   1              		.file	"awss_notify.c"
   2              		.option nopic
   3              		.attribute arch, "rv32i2p0_m2p0_a2p0_f2p0_c2p0_b_p0p94"
   4              		.attribute unaligned_access, 0
   5              		.attribute stack_align, 16
   6              		.text
   7              	.Ltext0:
   8              		.cfi_sections	.debug_frame
   9              		.section	.rodata.awss_notify_response.str1.4,"aMS",@progbits,1
  10              		.align	2
  11              	.LC0:
  12 0000 25732C20 		.string	"%s, type:%d,result:%u\r\n"
  12      74797065 
  12      3A25642C 
  12      72657375 
  12      6C743A25 
  13              		.align	2
  14              	.LC1:
  15 0018 61777373 		.string	"awss"
  15      00
  16 001d 000000   		.align	2
  17              	.LC2:
  18 0020 5B657272 		.string	"[err] "
  18      5D2000
  19 0027 00       		.align	2
  20              	.LC3:
  21 0028 7061796C 		.string	"payload invalid , len =%d"
  21      6F616420 
  21      696E7661 
  21      6C696420 
  21      2C206C65 
  22 0042 0000     		.align	2
  23              	.LC4:
  24 0044 0D0A00   		.string	"\r\n"
  25 0047 00       		.align	2
  26              	.LC5:
  27 0048 7061796C 		.string	"payload:%s\r\n"
  27      6F61643A 
  27      25730D0A 
  27      00
  28 0055 000000   		.align	2
  29              	.LC6:
  30 0058 696400   		.string	"id"
  31 005b 00       		.align	2
  32              	.LC7:
  33 005c 6E6F2069 		.string	"no id in payload"
  33      6420696E 
  33      20706179 
  33      6C6F6164 
  33      00
  34 006d 000000   		.align	2
  35              	.LC8:
  36 0070 636F6465 		.string	"code"
  36      00
  37 0075 000000   		.align	2
  38              	.LC9:
  39 0078 6E6F2063 		.string	"no code in payload"
  39      6F646520 
  39      696E2070 
  39      61796C6F 
  39      616400
  40 008b 00       		.align	2
  41              	.LC10:
  42 008c 636F6465 		.string	"code = %s"
  42      203D2025 
  42      7300
  43              		.section	.text.awss_notify_response,"ax",@progbits
  44              		.align	1
  46              	awss_notify_response:
  47              	.LFB67:
  48              		.file 1 "C:/Users/stapi/OneDrive/Desktop/GD32VW553/V1_MQTT_OK/GD32VW55X_Wifi_BLE_SDK/GD32VW55x_REL
   1:C:/Users/stapi/OneDrive/Desktop/GD32VW553/V1_MQTT_OK/GD32VW55X_Wifi_BLE_SDK/GD32VW55x_RELEASE_V1.0.2/MSDK/cloud/alicloud/src/services/dev_bind\awss_notify.c **** /*
   2:C:/Users/stapi/OneDrive/Desktop/GD32VW553/V1_MQTT_OK/GD32VW55X_Wifi_BLE_SDK/GD32VW55x_RELEASE_V1.0.2/MSDK/cloud/alicloud/src/services/dev_bind\awss_notify.c ****  * Copyright (C) 2015-2018 Alibaba Group Holding Limited
   3:C:/Users/stapi/OneDrive/Desktop/GD32VW553/V1_MQTT_OK/GD32VW55X_Wifi_BLE_SDK/GD32VW55x_RELEASE_V1.0.2/MSDK/cloud/alicloud/src/services/dev_bind\awss_notify.c ****  */
   4:C:/Users/stapi/OneDrive/Desktop/GD32VW553/V1_MQTT_OK/GD32VW55X_Wifi_BLE_SDK/GD32VW55x_RELEASE_V1.0.2/MSDK/cloud/alicloud/src/services/dev_bind\awss_notify.c **** 
   5:C:/Users/stapi/OneDrive/Desktop/GD32VW553/V1_MQTT_OK/GD32VW55X_Wifi_BLE_SDK/GD32VW55x_RELEASE_V1.0.2/MSDK/cloud/alicloud/src/services/dev_bind\awss_notify.c **** #include <stdlib.h>
   6:C:/Users/stapi/OneDrive/Desktop/GD32VW553/V1_MQTT_OK/GD32VW55X_Wifi_BLE_SDK/GD32VW55x_RELEASE_V1.0.2/MSDK/cloud/alicloud/src/services/dev_bind\awss_notify.c **** #include "iot_export.h"
   7:C:/Users/stapi/OneDrive/Desktop/GD32VW553/V1_MQTT_OK/GD32VW55X_Wifi_BLE_SDK/GD32VW55x_RELEASE_V1.0.2/MSDK/cloud/alicloud/src/services/dev_bind\awss_notify.c **** #include "json_parser.h"
   8:C:/Users/stapi/OneDrive/Desktop/GD32VW553/V1_MQTT_OK/GD32VW55X_Wifi_BLE_SDK/GD32VW55x_RELEASE_V1.0.2/MSDK/cloud/alicloud/src/services/dev_bind\awss_notify.c **** #include "awss_packet.h"
   9:C:/Users/stapi/OneDrive/Desktop/GD32VW553/V1_MQTT_OK/GD32VW55X_Wifi_BLE_SDK/GD32VW55x_RELEASE_V1.0.2/MSDK/cloud/alicloud/src/services/dev_bind\awss_notify.c **** #include "awss_notify.h"
  10:C:/Users/stapi/OneDrive/Desktop/GD32VW553/V1_MQTT_OK/GD32VW55X_Wifi_BLE_SDK/GD32VW55x_RELEASE_V1.0.2/MSDK/cloud/alicloud/src/services/dev_bind\awss_notify.c **** #include "awss_event.h"
  11:C:/Users/stapi/OneDrive/Desktop/GD32VW553/V1_MQTT_OK/GD32VW55X_Wifi_BLE_SDK/GD32VW55x_RELEASE_V1.0.2/MSDK/cloud/alicloud/src/services/dev_bind\awss_notify.c **** #include "awss_timer.h"
  12:C:/Users/stapi/OneDrive/Desktop/GD32VW553/V1_MQTT_OK/GD32VW55X_Wifi_BLE_SDK/GD32VW55x_RELEASE_V1.0.2/MSDK/cloud/alicloud/src/services/dev_bind\awss_notify.c **** #include "awss_utils.h"
  13:C:/Users/stapi/OneDrive/Desktop/GD32VW553/V1_MQTT_OK/GD32VW55X_Wifi_BLE_SDK/GD32VW55x_RELEASE_V1.0.2/MSDK/cloud/alicloud/src/services/dev_bind\awss_notify.c **** #include "awss_cmp.h"
  14:C:/Users/stapi/OneDrive/Desktop/GD32VW553/V1_MQTT_OK/GD32VW55X_Wifi_BLE_SDK/GD32VW55x_RELEASE_V1.0.2/MSDK/cloud/alicloud/src/services/dev_bind\awss_notify.c **** #include "awss_log.h"
  15:C:/Users/stapi/OneDrive/Desktop/GD32VW553/V1_MQTT_OK/GD32VW55X_Wifi_BLE_SDK/GD32VW55x_RELEASE_V1.0.2/MSDK/cloud/alicloud/src/services/dev_bind\awss_notify.c **** #include "awss_reset.h"
  16:C:/Users/stapi/OneDrive/Desktop/GD32VW553/V1_MQTT_OK/GD32VW55X_Wifi_BLE_SDK/GD32VW55x_RELEASE_V1.0.2/MSDK/cloud/alicloud/src/services/dev_bind\awss_notify.c **** #include "platform.h"
  17:C:/Users/stapi/OneDrive/Desktop/GD32VW553/V1_MQTT_OK/GD32VW55X_Wifi_BLE_SDK/GD32VW55x_RELEASE_V1.0.2/MSDK/cloud/alicloud/src/services/dev_bind\awss_notify.c **** #include "passwd.h"
  18:C:/Users/stapi/OneDrive/Desktop/GD32VW553/V1_MQTT_OK/GD32VW55X_Wifi_BLE_SDK/GD32VW55x_RELEASE_V1.0.2/MSDK/cloud/alicloud/src/services/dev_bind\awss_notify.c **** #include "os.h"
  19:C:/Users/stapi/OneDrive/Desktop/GD32VW553/V1_MQTT_OK/GD32VW55X_Wifi_BLE_SDK/GD32VW55x_RELEASE_V1.0.2/MSDK/cloud/alicloud/src/services/dev_bind\awss_notify.c **** 
  20:C:/Users/stapi/OneDrive/Desktop/GD32VW553/V1_MQTT_OK/GD32VW55X_Wifi_BLE_SDK/GD32VW55x_RELEASE_V1.0.2/MSDK/cloud/alicloud/src/services/dev_bind\awss_notify.c **** #if defined(__cplusplus) /* If this is a C++ compiler, use C linkage */
  21:C:/Users/stapi/OneDrive/Desktop/GD32VW553/V1_MQTT_OK/GD32VW55X_Wifi_BLE_SDK/GD32VW55x_RELEASE_V1.0.2/MSDK/cloud/alicloud/src/services/dev_bind\awss_notify.c **** extern "C" {
  22:C:/Users/stapi/OneDrive/Desktop/GD32VW553/V1_MQTT_OK/GD32VW55X_Wifi_BLE_SDK/GD32VW55x_RELEASE_V1.0.2/MSDK/cloud/alicloud/src/services/dev_bind\awss_notify.c **** #endif
  23:C:/Users/stapi/OneDrive/Desktop/GD32VW553/V1_MQTT_OK/GD32VW55X_Wifi_BLE_SDK/GD32VW55x_RELEASE_V1.0.2/MSDK/cloud/alicloud/src/services/dev_bind\awss_notify.c **** 
  24:C:/Users/stapi/OneDrive/Desktop/GD32VW553/V1_MQTT_OK/GD32VW55X_Wifi_BLE_SDK/GD32VW55x_RELEASE_V1.0.2/MSDK/cloud/alicloud/src/services/dev_bind\awss_notify.c **** #define AWSS_CHECK_RESP_TIME (300)
  25:C:/Users/stapi/OneDrive/Desktop/GD32VW553/V1_MQTT_OK/GD32VW55X_Wifi_BLE_SDK/GD32VW55x_RELEASE_V1.0.2/MSDK/cloud/alicloud/src/services/dev_bind\awss_notify.c **** #define AWSS_NOTIFY_PORT     (5683)
  26:C:/Users/stapi/OneDrive/Desktop/GD32VW553/V1_MQTT_OK/GD32VW55X_Wifi_BLE_SDK/GD32VW55x_RELEASE_V1.0.2/MSDK/cloud/alicloud/src/services/dev_bind\awss_notify.c **** #define AWSS_NOTIFY_HOST     "255.255.255.255"
  27:C:/Users/stapi/OneDrive/Desktop/GD32VW553/V1_MQTT_OK/GD32VW55X_Wifi_BLE_SDK/GD32VW55x_RELEASE_V1.0.2/MSDK/cloud/alicloud/src/services/dev_bind\awss_notify.c **** #define AWSS_DEV_NOTIFY_FMT  "{\"id\":\"%u\",\"version\":\"1.0\",\"method\":\"%s\",\"params\":{%s}}
  28:C:/Users/stapi/OneDrive/Desktop/GD32VW553/V1_MQTT_OK/GD32VW55X_Wifi_BLE_SDK/GD32VW55x_RELEASE_V1.0.2/MSDK/cloud/alicloud/src/services/dev_bind\awss_notify.c **** 
  29:C:/Users/stapi/OneDrive/Desktop/GD32VW553/V1_MQTT_OK/GD32VW55X_Wifi_BLE_SDK/GD32VW55x_RELEASE_V1.0.2/MSDK/cloud/alicloud/src/services/dev_bind\awss_notify.c **** struct notify_map_t {
  30:C:/Users/stapi/OneDrive/Desktop/GD32VW553/V1_MQTT_OK/GD32VW55X_Wifi_BLE_SDK/GD32VW55x_RELEASE_V1.0.2/MSDK/cloud/alicloud/src/services/dev_bind\awss_notify.c ****     uint8_t notify_type;
  31:C:/Users/stapi/OneDrive/Desktop/GD32VW553/V1_MQTT_OK/GD32VW55X_Wifi_BLE_SDK/GD32VW55x_RELEASE_V1.0.2/MSDK/cloud/alicloud/src/services/dev_bind\awss_notify.c ****     char *notify_method;
  32:C:/Users/stapi/OneDrive/Desktop/GD32VW553/V1_MQTT_OK/GD32VW55X_Wifi_BLE_SDK/GD32VW55x_RELEASE_V1.0.2/MSDK/cloud/alicloud/src/services/dev_bind\awss_notify.c ****     char *notify_topic;
  33:C:/Users/stapi/OneDrive/Desktop/GD32VW553/V1_MQTT_OK/GD32VW55X_Wifi_BLE_SDK/GD32VW55x_RELEASE_V1.0.2/MSDK/cloud/alicloud/src/services/dev_bind\awss_notify.c ****     void *cb;
  34:C:/Users/stapi/OneDrive/Desktop/GD32VW553/V1_MQTT_OK/GD32VW55X_Wifi_BLE_SDK/GD32VW55x_RELEASE_V1.0.2/MSDK/cloud/alicloud/src/services/dev_bind\awss_notify.c **** };
  35:C:/Users/stapi/OneDrive/Desktop/GD32VW553/V1_MQTT_OK/GD32VW55X_Wifi_BLE_SDK/GD32VW55x_RELEASE_V1.0.2/MSDK/cloud/alicloud/src/services/dev_bind\awss_notify.c **** 
  36:C:/Users/stapi/OneDrive/Desktop/GD32VW553/V1_MQTT_OK/GD32VW55X_Wifi_BLE_SDK/GD32VW55x_RELEASE_V1.0.2/MSDK/cloud/alicloud/src/services/dev_bind\awss_notify.c **** static uint8_t g_notify_id;
  37:C:/Users/stapi/OneDrive/Desktop/GD32VW553/V1_MQTT_OK/GD32VW55X_Wifi_BLE_SDK/GD32VW55x_RELEASE_V1.0.2/MSDK/cloud/alicloud/src/services/dev_bind\awss_notify.c **** static char awss_notify_resp[AWSS_NOTIFY_TYPE_MAX] = {0};
  38:C:/Users/stapi/OneDrive/Desktop/GD32VW553/V1_MQTT_OK/GD32VW55X_Wifi_BLE_SDK/GD32VW55x_RELEASE_V1.0.2/MSDK/cloud/alicloud/src/services/dev_bind\awss_notify.c **** static uint16_t g_notify_msg_id[AWSS_NOTIFY_TYPE_MAX] = {0};
  39:C:/Users/stapi/OneDrive/Desktop/GD32VW553/V1_MQTT_OK/GD32VW55X_Wifi_BLE_SDK/GD32VW55x_RELEASE_V1.0.2/MSDK/cloud/alicloud/src/services/dev_bind\awss_notify.c **** 
  40:C:/Users/stapi/OneDrive/Desktop/GD32VW553/V1_MQTT_OK/GD32VW55X_Wifi_BLE_SDK/GD32VW55x_RELEASE_V1.0.2/MSDK/cloud/alicloud/src/services/dev_bind\awss_notify.c **** #ifdef WIFI_PROVISION_ENABLED
  41:C:/Users/stapi/OneDrive/Desktop/GD32VW553/V1_MQTT_OK/GD32VW55X_Wifi_BLE_SDK/GD32VW55x_RELEASE_V1.0.2/MSDK/cloud/alicloud/src/services/dev_bind\awss_notify.c **** static void *success_notify_timer = NULL;
  42:C:/Users/stapi/OneDrive/Desktop/GD32VW553/V1_MQTT_OK/GD32VW55X_Wifi_BLE_SDK/GD32VW55x_RELEASE_V1.0.2/MSDK/cloud/alicloud/src/services/dev_bind\awss_notify.c **** static void *devinfo_notify_timer = NULL;
  43:C:/Users/stapi/OneDrive/Desktop/GD32VW553/V1_MQTT_OK/GD32VW55X_Wifi_BLE_SDK/GD32VW55x_RELEASE_V1.0.2/MSDK/cloud/alicloud/src/services/dev_bind\awss_notify.c **** static void *success_notify_mutex = NULL;
  44:C:/Users/stapi/OneDrive/Desktop/GD32VW553/V1_MQTT_OK/GD32VW55X_Wifi_BLE_SDK/GD32VW55x_RELEASE_V1.0.2/MSDK/cloud/alicloud/src/services/dev_bind\awss_notify.c **** static void *devinfo_notify_mutex = NULL;
  45:C:/Users/stapi/OneDrive/Desktop/GD32VW553/V1_MQTT_OK/GD32VW55X_Wifi_BLE_SDK/GD32VW55x_RELEASE_V1.0.2/MSDK/cloud/alicloud/src/services/dev_bind\awss_notify.c **** #endif
  46:C:/Users/stapi/OneDrive/Desktop/GD32VW553/V1_MQTT_OK/GD32VW55X_Wifi_BLE_SDK/GD32VW55x_RELEASE_V1.0.2/MSDK/cloud/alicloud/src/services/dev_bind\awss_notify.c **** static void *dev_bind_notify_timer = NULL;
  47:C:/Users/stapi/OneDrive/Desktop/GD32VW553/V1_MQTT_OK/GD32VW55X_Wifi_BLE_SDK/GD32VW55x_RELEASE_V1.0.2/MSDK/cloud/alicloud/src/services/dev_bind\awss_notify.c **** static void *get_devinfo_timer  = NULL;
  48:C:/Users/stapi/OneDrive/Desktop/GD32VW553/V1_MQTT_OK/GD32VW55X_Wifi_BLE_SDK/GD32VW55x_RELEASE_V1.0.2/MSDK/cloud/alicloud/src/services/dev_bind\awss_notify.c **** static void *dev_bind_notify_mutex = NULL;
  49:C:/Users/stapi/OneDrive/Desktop/GD32VW553/V1_MQTT_OK/GD32VW55X_Wifi_BLE_SDK/GD32VW55x_RELEASE_V1.0.2/MSDK/cloud/alicloud/src/services/dev_bind\awss_notify.c **** 
  50:C:/Users/stapi/OneDrive/Desktop/GD32VW553/V1_MQTT_OK/GD32VW55X_Wifi_BLE_SDK/GD32VW55x_RELEASE_V1.0.2/MSDK/cloud/alicloud/src/services/dev_bind\awss_notify.c **** extern char awss_report_token_suc;
  51:C:/Users/stapi/OneDrive/Desktop/GD32VW553/V1_MQTT_OK/GD32VW55X_Wifi_BLE_SDK/GD32VW55x_RELEASE_V1.0.2/MSDK/cloud/alicloud/src/services/dev_bind\awss_notify.c **** extern char awss_report_token_cnt;
  52:C:/Users/stapi/OneDrive/Desktop/GD32VW553/V1_MQTT_OK/GD32VW55X_Wifi_BLE_SDK/GD32VW55x_RELEASE_V1.0.2/MSDK/cloud/alicloud/src/services/dev_bind\awss_notify.c **** 
  53:C:/Users/stapi/OneDrive/Desktop/GD32VW553/V1_MQTT_OK/GD32VW55X_Wifi_BLE_SDK/GD32VW55x_RELEASE_V1.0.2/MSDK/cloud/alicloud/src/services/dev_bind\awss_notify.c **** static int awss_dev_bind_notify_resp(void *context, int result,
  54:C:/Users/stapi/OneDrive/Desktop/GD32VW553/V1_MQTT_OK/GD32VW55X_Wifi_BLE_SDK/GD32VW55x_RELEASE_V1.0.2/MSDK/cloud/alicloud/src/services/dev_bind\awss_notify.c ****                                      void *userdata, void *remote,
  55:C:/Users/stapi/OneDrive/Desktop/GD32VW553/V1_MQTT_OK/GD32VW55X_Wifi_BLE_SDK/GD32VW55x_RELEASE_V1.0.2/MSDK/cloud/alicloud/src/services/dev_bind\awss_notify.c ****                                      void *message);
  56:C:/Users/stapi/OneDrive/Desktop/GD32VW553/V1_MQTT_OK/GD32VW55X_Wifi_BLE_SDK/GD32VW55x_RELEASE_V1.0.2/MSDK/cloud/alicloud/src/services/dev_bind\awss_notify.c **** #ifdef WIFI_PROVISION_ENABLED
  57:C:/Users/stapi/OneDrive/Desktop/GD32VW553/V1_MQTT_OK/GD32VW55X_Wifi_BLE_SDK/GD32VW55x_RELEASE_V1.0.2/MSDK/cloud/alicloud/src/services/dev_bind\awss_notify.c **** static int awss_devinfo_notify_resp(void *context, int result,
  58:C:/Users/stapi/OneDrive/Desktop/GD32VW553/V1_MQTT_OK/GD32VW55X_Wifi_BLE_SDK/GD32VW55x_RELEASE_V1.0.2/MSDK/cloud/alicloud/src/services/dev_bind\awss_notify.c ****                                     void *userdata, void *remote,
  59:C:/Users/stapi/OneDrive/Desktop/GD32VW553/V1_MQTT_OK/GD32VW55X_Wifi_BLE_SDK/GD32VW55x_RELEASE_V1.0.2/MSDK/cloud/alicloud/src/services/dev_bind\awss_notify.c ****                                     void *message);
  60:C:/Users/stapi/OneDrive/Desktop/GD32VW553/V1_MQTT_OK/GD32VW55X_Wifi_BLE_SDK/GD32VW55x_RELEASE_V1.0.2/MSDK/cloud/alicloud/src/services/dev_bind\awss_notify.c **** static int awss_suc_notify_resp(void *context, int result,
  61:C:/Users/stapi/OneDrive/Desktop/GD32VW553/V1_MQTT_OK/GD32VW55X_Wifi_BLE_SDK/GD32VW55x_RELEASE_V1.0.2/MSDK/cloud/alicloud/src/services/dev_bind\awss_notify.c ****                                 void *userdata, void *remote,
  62:C:/Users/stapi/OneDrive/Desktop/GD32VW553/V1_MQTT_OK/GD32VW55X_Wifi_BLE_SDK/GD32VW55x_RELEASE_V1.0.2/MSDK/cloud/alicloud/src/services/dev_bind\awss_notify.c ****                                 void *message);
  63:C:/Users/stapi/OneDrive/Desktop/GD32VW553/V1_MQTT_OK/GD32VW55X_Wifi_BLE_SDK/GD32VW55x_RELEASE_V1.0.2/MSDK/cloud/alicloud/src/services/dev_bind\awss_notify.c **** int awss_devinfo_notify();
  64:C:/Users/stapi/OneDrive/Desktop/GD32VW553/V1_MQTT_OK/GD32VW55X_Wifi_BLE_SDK/GD32VW55x_RELEASE_V1.0.2/MSDK/cloud/alicloud/src/services/dev_bind\awss_notify.c **** int awss_suc_notify();
  65:C:/Users/stapi/OneDrive/Desktop/GD32VW553/V1_MQTT_OK/GD32VW55X_Wifi_BLE_SDK/GD32VW55x_RELEASE_V1.0.2/MSDK/cloud/alicloud/src/services/dev_bind\awss_notify.c **** #endif
  66:C:/Users/stapi/OneDrive/Desktop/GD32VW553/V1_MQTT_OK/GD32VW55X_Wifi_BLE_SDK/GD32VW55x_RELEASE_V1.0.2/MSDK/cloud/alicloud/src/services/dev_bind\awss_notify.c **** static int awss_notify_response(int type, int result, void *message);
  67:C:/Users/stapi/OneDrive/Desktop/GD32VW553/V1_MQTT_OK/GD32VW55X_Wifi_BLE_SDK/GD32VW55x_RELEASE_V1.0.2/MSDK/cloud/alicloud/src/services/dev_bind\awss_notify.c **** static int awss_process_get_devinfo();
  68:C:/Users/stapi/OneDrive/Desktop/GD32VW553/V1_MQTT_OK/GD32VW55X_Wifi_BLE_SDK/GD32VW55x_RELEASE_V1.0.2/MSDK/cloud/alicloud/src/services/dev_bind\awss_notify.c **** int awss_dev_bind_notify();
  69:C:/Users/stapi/OneDrive/Desktop/GD32VW553/V1_MQTT_OK/GD32VW55X_Wifi_BLE_SDK/GD32VW55x_RELEASE_V1.0.2/MSDK/cloud/alicloud/src/services/dev_bind\awss_notify.c **** 
  70:C:/Users/stapi/OneDrive/Desktop/GD32VW553/V1_MQTT_OK/GD32VW55X_Wifi_BLE_SDK/GD32VW55x_RELEASE_V1.0.2/MSDK/cloud/alicloud/src/services/dev_bind\awss_notify.c **** static const struct notify_map_t notify_map[] = {
  71:C:/Users/stapi/OneDrive/Desktop/GD32VW553/V1_MQTT_OK/GD32VW55X_Wifi_BLE_SDK/GD32VW55x_RELEASE_V1.0.2/MSDK/cloud/alicloud/src/services/dev_bind\awss_notify.c ****     {AWSS_NOTIFY_DEV_BIND_TOKEN, METHOD_DEV_INFO_NOTIFY,       TOPIC_NOTIFY,                awss_de
  72:C:/Users/stapi/OneDrive/Desktop/GD32VW553/V1_MQTT_OK/GD32VW55X_Wifi_BLE_SDK/GD32VW55x_RELEASE_V1.0.2/MSDK/cloud/alicloud/src/services/dev_bind\awss_notify.c **** #ifdef WIFI_PROVISION_ENABLED
  73:C:/Users/stapi/OneDrive/Desktop/GD32VW553/V1_MQTT_OK/GD32VW55X_Wifi_BLE_SDK/GD32VW55x_RELEASE_V1.0.2/MSDK/cloud/alicloud/src/services/dev_bind\awss_notify.c ****     {AWSS_NOTIFY_DEV_RAND_SIGN,  METHOD_AWSS_DEV_INFO_NOTIFY,  TOPIC_AWSS_NOTIFY,           awss_de
  74:C:/Users/stapi/OneDrive/Desktop/GD32VW553/V1_MQTT_OK/GD32VW55X_Wifi_BLE_SDK/GD32VW55x_RELEASE_V1.0.2/MSDK/cloud/alicloud/src/services/dev_bind\awss_notify.c ****     {AWSS_NOTIFY_SUCCESS,        METHOD_AWSS_CONNECTAP_NOTIFY, TOPIC_AWSS_CONNECTAP_NOTIFY, awss_su
  75:C:/Users/stapi/OneDrive/Desktop/GD32VW553/V1_MQTT_OK/GD32VW55X_Wifi_BLE_SDK/GD32VW55x_RELEASE_V1.0.2/MSDK/cloud/alicloud/src/services/dev_bind\awss_notify.c **** #endif
  76:C:/Users/stapi/OneDrive/Desktop/GD32VW553/V1_MQTT_OK/GD32VW55X_Wifi_BLE_SDK/GD32VW55x_RELEASE_V1.0.2/MSDK/cloud/alicloud/src/services/dev_bind\awss_notify.c **** };
  77:C:/Users/stapi/OneDrive/Desktop/GD32VW553/V1_MQTT_OK/GD32VW55X_Wifi_BLE_SDK/GD32VW55x_RELEASE_V1.0.2/MSDK/cloud/alicloud/src/services/dev_bind\awss_notify.c **** 
  78:C:/Users/stapi/OneDrive/Desktop/GD32VW553/V1_MQTT_OK/GD32VW55X_Wifi_BLE_SDK/GD32VW55x_RELEASE_V1.0.2/MSDK/cloud/alicloud/src/services/dev_bind\awss_notify.c **** /*
  79:C:/Users/stapi/OneDrive/Desktop/GD32VW553/V1_MQTT_OK/GD32VW55X_Wifi_BLE_SDK/GD32VW55x_RELEASE_V1.0.2/MSDK/cloud/alicloud/src/services/dev_bind\awss_notify.c ****  * {
  80:C:/Users/stapi/OneDrive/Desktop/GD32VW553/V1_MQTT_OK/GD32VW55X_Wifi_BLE_SDK/GD32VW55x_RELEASE_V1.0.2/MSDK/cloud/alicloud/src/services/dev_bind\awss_notify.c ****  *  "id": "123",
  81:C:/Users/stapi/OneDrive/Desktop/GD32VW553/V1_MQTT_OK/GD32VW55X_Wifi_BLE_SDK/GD32VW55x_RELEASE_V1.0.2/MSDK/cloud/alicloud/src/services/dev_bind\awss_notify.c ****  *  "code": 200,
  82:C:/Users/stapi/OneDrive/Desktop/GD32VW553/V1_MQTT_OK/GD32VW55X_Wifi_BLE_SDK/GD32VW55x_RELEASE_V1.0.2/MSDK/cloud/alicloud/src/services/dev_bind\awss_notify.c ****  *  "data": {}
  83:C:/Users/stapi/OneDrive/Desktop/GD32VW553/V1_MQTT_OK/GD32VW55X_Wifi_BLE_SDK/GD32VW55x_RELEASE_V1.0.2/MSDK/cloud/alicloud/src/services/dev_bind\awss_notify.c ****  * }
  84:C:/Users/stapi/OneDrive/Desktop/GD32VW553/V1_MQTT_OK/GD32VW55X_Wifi_BLE_SDK/GD32VW55x_RELEASE_V1.0.2/MSDK/cloud/alicloud/src/services/dev_bind\awss_notify.c ****  */
  85:C:/Users/stapi/OneDrive/Desktop/GD32VW553/V1_MQTT_OK/GD32VW55X_Wifi_BLE_SDK/GD32VW55x_RELEASE_V1.0.2/MSDK/cloud/alicloud/src/services/dev_bind\awss_notify.c **** static int awss_dev_bind_notify_resp(void *context, int result,
  86:C:/Users/stapi/OneDrive/Desktop/GD32VW553/V1_MQTT_OK/GD32VW55X_Wifi_BLE_SDK/GD32VW55x_RELEASE_V1.0.2/MSDK/cloud/alicloud/src/services/dev_bind\awss_notify.c ****                                      void *userdata, void *remote,
  87:C:/Users/stapi/OneDrive/Desktop/GD32VW553/V1_MQTT_OK/GD32VW55X_Wifi_BLE_SDK/GD32VW55x_RELEASE_V1.0.2/MSDK/cloud/alicloud/src/services/dev_bind\awss_notify.c ****                                      void *message)
  88:C:/Users/stapi/OneDrive/Desktop/GD32VW553/V1_MQTT_OK/GD32VW55X_Wifi_BLE_SDK/GD32VW55x_RELEASE_V1.0.2/MSDK/cloud/alicloud/src/services/dev_bind\awss_notify.c **** {
  89:C:/Users/stapi/OneDrive/Desktop/GD32VW553/V1_MQTT_OK/GD32VW55X_Wifi_BLE_SDK/GD32VW55x_RELEASE_V1.0.2/MSDK/cloud/alicloud/src/services/dev_bind\awss_notify.c ****     int res = awss_notify_response(AWSS_NOTIFY_DEV_BIND_TOKEN, result, message);
  90:C:/Users/stapi/OneDrive/Desktop/GD32VW553/V1_MQTT_OK/GD32VW55X_Wifi_BLE_SDK/GD32VW55x_RELEASE_V1.0.2/MSDK/cloud/alicloud/src/services/dev_bind\awss_notify.c ****     if (res == 1) {
  91:C:/Users/stapi/OneDrive/Desktop/GD32VW553/V1_MQTT_OK/GD32VW55X_Wifi_BLE_SDK/GD32VW55x_RELEASE_V1.0.2/MSDK/cloud/alicloud/src/services/dev_bind\awss_notify.c ****         awss_update_token();
  92:C:/Users/stapi/OneDrive/Desktop/GD32VW553/V1_MQTT_OK/GD32VW55X_Wifi_BLE_SDK/GD32VW55x_RELEASE_V1.0.2/MSDK/cloud/alicloud/src/services/dev_bind\awss_notify.c **** #ifdef DEV_BIND_TEST
  93:C:/Users/stapi/OneDrive/Desktop/GD32VW553/V1_MQTT_OK/GD32VW55X_Wifi_BLE_SDK/GD32VW55x_RELEASE_V1.0.2/MSDK/cloud/alicloud/src/services/dev_bind\awss_notify.c ****         os_reboot();
  94:C:/Users/stapi/OneDrive/Desktop/GD32VW553/V1_MQTT_OK/GD32VW55X_Wifi_BLE_SDK/GD32VW55x_RELEASE_V1.0.2/MSDK/cloud/alicloud/src/services/dev_bind\awss_notify.c **** #endif
  95:C:/Users/stapi/OneDrive/Desktop/GD32VW553/V1_MQTT_OK/GD32VW55X_Wifi_BLE_SDK/GD32VW55x_RELEASE_V1.0.2/MSDK/cloud/alicloud/src/services/dev_bind\awss_notify.c ****     }
  96:C:/Users/stapi/OneDrive/Desktop/GD32VW553/V1_MQTT_OK/GD32VW55X_Wifi_BLE_SDK/GD32VW55x_RELEASE_V1.0.2/MSDK/cloud/alicloud/src/services/dev_bind\awss_notify.c ****     return res;
  97:C:/Users/stapi/OneDrive/Desktop/GD32VW553/V1_MQTT_OK/GD32VW55X_Wifi_BLE_SDK/GD32VW55x_RELEASE_V1.0.2/MSDK/cloud/alicloud/src/services/dev_bind\awss_notify.c **** }
  98:C:/Users/stapi/OneDrive/Desktop/GD32VW553/V1_MQTT_OK/GD32VW55X_Wifi_BLE_SDK/GD32VW55x_RELEASE_V1.0.2/MSDK/cloud/alicloud/src/services/dev_bind\awss_notify.c **** 
  99:C:/Users/stapi/OneDrive/Desktop/GD32VW553/V1_MQTT_OK/GD32VW55X_Wifi_BLE_SDK/GD32VW55x_RELEASE_V1.0.2/MSDK/cloud/alicloud/src/services/dev_bind\awss_notify.c **** #ifdef WIFI_PROVISION_ENABLED
 100:C:/Users/stapi/OneDrive/Desktop/GD32VW553/V1_MQTT_OK/GD32VW55X_Wifi_BLE_SDK/GD32VW55x_RELEASE_V1.0.2/MSDK/cloud/alicloud/src/services/dev_bind\awss_notify.c **** static int awss_devinfo_notify_resp(void *context, int result,
 101:C:/Users/stapi/OneDrive/Desktop/GD32VW553/V1_MQTT_OK/GD32VW55X_Wifi_BLE_SDK/GD32VW55x_RELEASE_V1.0.2/MSDK/cloud/alicloud/src/services/dev_bind\awss_notify.c ****                                     void *userdata, void *remote,
 102:C:/Users/stapi/OneDrive/Desktop/GD32VW553/V1_MQTT_OK/GD32VW55X_Wifi_BLE_SDK/GD32VW55x_RELEASE_V1.0.2/MSDK/cloud/alicloud/src/services/dev_bind\awss_notify.c ****                                     void *message)
 103:C:/Users/stapi/OneDrive/Desktop/GD32VW553/V1_MQTT_OK/GD32VW55X_Wifi_BLE_SDK/GD32VW55x_RELEASE_V1.0.2/MSDK/cloud/alicloud/src/services/dev_bind\awss_notify.c **** {
 104:C:/Users/stapi/OneDrive/Desktop/GD32VW553/V1_MQTT_OK/GD32VW55X_Wifi_BLE_SDK/GD32VW55x_RELEASE_V1.0.2/MSDK/cloud/alicloud/src/services/dev_bind\awss_notify.c ****     return awss_notify_response(AWSS_NOTIFY_DEV_RAND_SIGN, result, message);
 105:C:/Users/stapi/OneDrive/Desktop/GD32VW553/V1_MQTT_OK/GD32VW55X_Wifi_BLE_SDK/GD32VW55x_RELEASE_V1.0.2/MSDK/cloud/alicloud/src/services/dev_bind\awss_notify.c **** }
 106:C:/Users/stapi/OneDrive/Desktop/GD32VW553/V1_MQTT_OK/GD32VW55X_Wifi_BLE_SDK/GD32VW55x_RELEASE_V1.0.2/MSDK/cloud/alicloud/src/services/dev_bind\awss_notify.c **** 
 107:C:/Users/stapi/OneDrive/Desktop/GD32VW553/V1_MQTT_OK/GD32VW55X_Wifi_BLE_SDK/GD32VW55x_RELEASE_V1.0.2/MSDK/cloud/alicloud/src/services/dev_bind\awss_notify.c **** static int awss_suc_notify_resp(void *context, int result,
 108:C:/Users/stapi/OneDrive/Desktop/GD32VW553/V1_MQTT_OK/GD32VW55X_Wifi_BLE_SDK/GD32VW55x_RELEASE_V1.0.2/MSDK/cloud/alicloud/src/services/dev_bind\awss_notify.c ****                                 void *userdata, void *remote,
 109:C:/Users/stapi/OneDrive/Desktop/GD32VW553/V1_MQTT_OK/GD32VW55X_Wifi_BLE_SDK/GD32VW55x_RELEASE_V1.0.2/MSDK/cloud/alicloud/src/services/dev_bind\awss_notify.c ****                                 void *message)
 110:C:/Users/stapi/OneDrive/Desktop/GD32VW553/V1_MQTT_OK/GD32VW55X_Wifi_BLE_SDK/GD32VW55x_RELEASE_V1.0.2/MSDK/cloud/alicloud/src/services/dev_bind\awss_notify.c **** {
 111:C:/Users/stapi/OneDrive/Desktop/GD32VW553/V1_MQTT_OK/GD32VW55X_Wifi_BLE_SDK/GD32VW55x_RELEASE_V1.0.2/MSDK/cloud/alicloud/src/services/dev_bind\awss_notify.c ****     return awss_notify_response(AWSS_NOTIFY_SUCCESS, result, message);
 112:C:/Users/stapi/OneDrive/Desktop/GD32VW553/V1_MQTT_OK/GD32VW55X_Wifi_BLE_SDK/GD32VW55x_RELEASE_V1.0.2/MSDK/cloud/alicloud/src/services/dev_bind\awss_notify.c **** }
 113:C:/Users/stapi/OneDrive/Desktop/GD32VW553/V1_MQTT_OK/GD32VW55X_Wifi_BLE_SDK/GD32VW55x_RELEASE_V1.0.2/MSDK/cloud/alicloud/src/services/dev_bind\awss_notify.c **** #endif
 114:C:/Users/stapi/OneDrive/Desktop/GD32VW553/V1_MQTT_OK/GD32VW55X_Wifi_BLE_SDK/GD32VW55x_RELEASE_V1.0.2/MSDK/cloud/alicloud/src/services/dev_bind\awss_notify.c **** 
 115:C:/Users/stapi/OneDrive/Desktop/GD32VW553/V1_MQTT_OK/GD32VW55X_Wifi_BLE_SDK/GD32VW55x_RELEASE_V1.0.2/MSDK/cloud/alicloud/src/services/dev_bind\awss_notify.c **** static int awss_notify_response(int type, int result, void *message)
 116:C:/Users/stapi/OneDrive/Desktop/GD32VW553/V1_MQTT_OK/GD32VW55X_Wifi_BLE_SDK/GD32VW55x_RELEASE_V1.0.2/MSDK/cloud/alicloud/src/services/dev_bind\awss_notify.c **** {
  49              		.loc 1 116 1
  50              		.cfi_startproc
  51              	.LVL0:
  52 0000 17030000 		call	t0,__riscv_save_5
  52      E7020300 
  53              		.cfi_offset 20, -24
  54              		.cfi_offset 19, -20
  55              		.cfi_offset 18, -16
  56              		.cfi_offset 9, -12
  57              		.cfi_offset 8, -8
  58              		.cfi_offset 1, -4
  59              		.cfi_def_cfa_offset 32
 117:C:/Users/stapi/OneDrive/Desktop/GD32VW553/V1_MQTT_OK/GD32VW55X_Wifi_BLE_SDK/GD32VW55x_RELEASE_V1.0.2/MSDK/cloud/alicloud/src/services/dev_bind\awss_notify.c ****     uint8_t i = 0;
  60              		.loc 1 117 5
  61              	.LVL1:
 118:C:/Users/stapi/OneDrive/Desktop/GD32VW553/V1_MQTT_OK/GD32VW55X_Wifi_BLE_SDK/GD32VW55x_RELEASE_V1.0.2/MSDK/cloud/alicloud/src/services/dev_bind\awss_notify.c ****     uint8_t code;
  62              		.loc 1 118 5
 119:C:/Users/stapi/OneDrive/Desktop/GD32VW553/V1_MQTT_OK/GD32VW55X_Wifi_BLE_SDK/GD32VW55x_RELEASE_V1.0.2/MSDK/cloud/alicloud/src/services/dev_bind\awss_notify.c **** 
 120:C:/Users/stapi/OneDrive/Desktop/GD32VW553/V1_MQTT_OK/GD32VW55X_Wifi_BLE_SDK/GD32VW55x_RELEASE_V1.0.2/MSDK/cloud/alicloud/src/services/dev_bind\awss_notify.c ****     awss_flow("%s, type:%d,result:%u\r\n", __func__, type, result);
  63              		.loc 1 120 5
  64 0008 370A0000 		lui	s4,%hi(.LANCHOR1)
  65 000c B7070000 		lui	a5,%hi(.LANCHOR0)
  66 0010 37070000 		lui	a4,%hi(.LC0)
  67 0014 B7090000 		lui	s3,%hi(.LC1)
 116:C:/Users/stapi/OneDrive/Desktop/GD32VW553/V1_MQTT_OK/GD32VW55X_Wifi_BLE_SDK/GD32VW55x_RELEASE_V1.0.2/MSDK/cloud/alicloud/src/services/dev_bind\awss_notify.c ****     uint8_t i = 0;
  68              		.loc 1 116 1 is_stmt 0
  69 0018 3284     		mv	s0,a2
  70 001a 0111     		addi	sp,sp,-32
  71              		.cfi_def_cfa_offset 64
 116:C:/Users/stapi/OneDrive/Desktop/GD32VW553/V1_MQTT_OK/GD32VW55X_Wifi_BLE_SDK/GD32VW55x_RELEASE_V1.0.2/MSDK/cloud/alicloud/src/services/dev_bind\awss_notify.c ****     uint8_t i = 0;
  72              		.loc 1 116 1
  73 001c AA84     		mv	s1,a0
  74 001e 2E89     		mv	s2,a1
  75              		.loc 1 120 5
  76 0020 AE88     		mv	a7,a1
  77 0022 2A88     		mv	a6,a0
  78 0024 93870700 		addi	a5,a5,%lo(.LANCHOR0)
  79 0028 13070700 		addi	a4,a4,%lo(.LC0)
  80 002c 9946     		li	a3,6
  81 002e 13068007 		li	a2,120
  82              	.LVL2:
  83 0032 93050A00 		addi	a1,s4,%lo(.LANCHOR1)
  84              	.LVL3:
  85 0036 13850900 		addi	a0,s3,%lo(.LC1)
  86              	.LVL4:
  87 003a 97000000 		call	LITE_syslog
  87      E7800000 
  88              	.LVL5:
 121:C:/Users/stapi/OneDrive/Desktop/GD32VW553/V1_MQTT_OK/GD32VW55X_Wifi_BLE_SDK/GD32VW55x_RELEASE_V1.0.2/MSDK/cloud/alicloud/src/services/dev_bind\awss_notify.c **** 
 122:C:/Users/stapi/OneDrive/Desktop/GD32VW553/V1_MQTT_OK/GD32VW55X_Wifi_BLE_SDK/GD32VW55x_RELEASE_V1.0.2/MSDK/cloud/alicloud/src/services/dev_bind\awss_notify.c ****     if (message == NULL) {
  89              		.loc 1 122 5 is_stmt 1
  90              		.loc 1 122 8 is_stmt 0
  91 0042 01E4     		bne	s0,zero,.L2
  92              	.LVL6:
  93              	.L7:
  94              	.LBB24:
 123:C:/Users/stapi/OneDrive/Desktop/GD32VW553/V1_MQTT_OK/GD32VW55X_Wifi_BLE_SDK/GD32VW55x_RELEASE_V1.0.2/MSDK/cloud/alicloud/src/services/dev_bind\awss_notify.c ****         return STATE_WIFI_COAP_RSP_INVALID;
 124:C:/Users/stapi/OneDrive/Desktop/GD32VW553/V1_MQTT_OK/GD32VW55X_Wifi_BLE_SDK/GD32VW55x_RELEASE_V1.0.2/MSDK/cloud/alicloud/src/services/dev_bind\awss_notify.c ****     }
 125:C:/Users/stapi/OneDrive/Desktop/GD32VW553/V1_MQTT_OK/GD32VW55X_Wifi_BLE_SDK/GD32VW55x_RELEASE_V1.0.2/MSDK/cloud/alicloud/src/services/dev_bind\awss_notify.c **** 
 126:C:/Users/stapi/OneDrive/Desktop/GD32VW553/V1_MQTT_OK/GD32VW55X_Wifi_BLE_SDK/GD32VW55x_RELEASE_V1.0.2/MSDK/cloud/alicloud/src/services/dev_bind\awss_notify.c ****     if (result != 0) {
 127:C:/Users/stapi/OneDrive/Desktop/GD32VW553/V1_MQTT_OK/GD32VW55X_Wifi_BLE_SDK/GD32VW55x_RELEASE_V1.0.2/MSDK/cloud/alicloud/src/services/dev_bind\awss_notify.c ****         //awss_err("result = %d", result);
 128:C:/Users/stapi/OneDrive/Desktop/GD32VW553/V1_MQTT_OK/GD32VW55X_Wifi_BLE_SDK/GD32VW55x_RELEASE_V1.0.2/MSDK/cloud/alicloud/src/services/dev_bind\awss_notify.c ****         return STATE_WIFI_COAP_RSP_INVALID;
 129:C:/Users/stapi/OneDrive/Desktop/GD32VW553/V1_MQTT_OK/GD32VW55X_Wifi_BLE_SDK/GD32VW55x_RELEASE_V1.0.2/MSDK/cloud/alicloud/src/services/dev_bind\awss_notify.c ****     }
 130:C:/Users/stapi/OneDrive/Desktop/GD32VW553/V1_MQTT_OK/GD32VW55X_Wifi_BLE_SDK/GD32VW55x_RELEASE_V1.0.2/MSDK/cloud/alicloud/src/services/dev_bind\awss_notify.c **** 
 131:C:/Users/stapi/OneDrive/Desktop/GD32VW553/V1_MQTT_OK/GD32VW55X_Wifi_BLE_SDK/GD32VW55x_RELEASE_V1.0.2/MSDK/cloud/alicloud/src/services/dev_bind\awss_notify.c ****     code = awss_cmp_get_coap_code(message);
 132:C:/Users/stapi/OneDrive/Desktop/GD32VW553/V1_MQTT_OK/GD32VW55X_Wifi_BLE_SDK/GD32VW55x_RELEASE_V1.0.2/MSDK/cloud/alicloud/src/services/dev_bind\awss_notify.c ****     if (code >= 0x60) {
 133:C:/Users/stapi/OneDrive/Desktop/GD32VW553/V1_MQTT_OK/GD32VW55X_Wifi_BLE_SDK/GD32VW55x_RELEASE_V1.0.2/MSDK/cloud/alicloud/src/services/dev_bind\awss_notify.c ****         //awss_err("code:%02x", code);
 134:C:/Users/stapi/OneDrive/Desktop/GD32VW553/V1_MQTT_OK/GD32VW55X_Wifi_BLE_SDK/GD32VW55x_RELEASE_V1.0.2/MSDK/cloud/alicloud/src/services/dev_bind\awss_notify.c ****         return STATE_WIFI_COAP_RSP_INVALID;
 135:C:/Users/stapi/OneDrive/Desktop/GD32VW553/V1_MQTT_OK/GD32VW55X_Wifi_BLE_SDK/GD32VW55x_RELEASE_V1.0.2/MSDK/cloud/alicloud/src/services/dev_bind\awss_notify.c ****     }
 136:C:/Users/stapi/OneDrive/Desktop/GD32VW553/V1_MQTT_OK/GD32VW55X_Wifi_BLE_SDK/GD32VW55x_RELEASE_V1.0.2/MSDK/cloud/alicloud/src/services/dev_bind\awss_notify.c **** 
 137:C:/Users/stapi/OneDrive/Desktop/GD32VW553/V1_MQTT_OK/GD32VW55X_Wifi_BLE_SDK/GD32VW55x_RELEASE_V1.0.2/MSDK/cloud/alicloud/src/services/dev_bind\awss_notify.c ****     do {
 138:C:/Users/stapi/OneDrive/Desktop/GD32VW553/V1_MQTT_OK/GD32VW55X_Wifi_BLE_SDK/GD32VW55x_RELEASE_V1.0.2/MSDK/cloud/alicloud/src/services/dev_bind\awss_notify.c ****         int val = 0;
 139:C:/Users/stapi/OneDrive/Desktop/GD32VW553/V1_MQTT_OK/GD32VW55X_Wifi_BLE_SDK/GD32VW55x_RELEASE_V1.0.2/MSDK/cloud/alicloud/src/services/dev_bind\awss_notify.c ****         int len = 0, mlen = 0;
 140:C:/Users/stapi/OneDrive/Desktop/GD32VW553/V1_MQTT_OK/GD32VW55X_Wifi_BLE_SDK/GD32VW55x_RELEASE_V1.0.2/MSDK/cloud/alicloud/src/services/dev_bind\awss_notify.c ****         char *payload = NULL, *elem = NULL;
 141:C:/Users/stapi/OneDrive/Desktop/GD32VW553/V1_MQTT_OK/GD32VW55X_Wifi_BLE_SDK/GD32VW55x_RELEASE_V1.0.2/MSDK/cloud/alicloud/src/services/dev_bind\awss_notify.c **** 
 142:C:/Users/stapi/OneDrive/Desktop/GD32VW553/V1_MQTT_OK/GD32VW55X_Wifi_BLE_SDK/GD32VW55x_RELEASE_V1.0.2/MSDK/cloud/alicloud/src/services/dev_bind\awss_notify.c ****         if ((payload = awss_cmp_get_coap_payload(message, &len)) == NULL || len > 0x40 || len == 0)
 143:C:/Users/stapi/OneDrive/Desktop/GD32VW553/V1_MQTT_OK/GD32VW55X_Wifi_BLE_SDK/GD32VW55x_RELEASE_V1.0.2/MSDK/cloud/alicloud/src/services/dev_bind\awss_notify.c ****             awss_err("payload invalid , len =%d", len);
 144:C:/Users/stapi/OneDrive/Desktop/GD32VW553/V1_MQTT_OK/GD32VW55X_Wifi_BLE_SDK/GD32VW55x_RELEASE_V1.0.2/MSDK/cloud/alicloud/src/services/dev_bind\awss_notify.c ****             return STATE_WIFI_COAP_RSP_INVALID;
  95              		.loc 1 144 20 discriminator 1
  96 0044 130550BE 		li	a0,-1051
  97 0048 A9AA     		j	.L1
  98              	.LVL7:
  99              	.L2:
 100              	.LBE24:
 126:C:/Users/stapi/OneDrive/Desktop/GD32VW553/V1_MQTT_OK/GD32VW55X_Wifi_BLE_SDK/GD32VW55x_RELEASE_V1.0.2/MSDK/cloud/alicloud/src/services/dev_bind\awss_notify.c ****         //awss_err("result = %d", result);
 101              		.loc 1 126 5 is_stmt 1
 126:C:/Users/stapi/OneDrive/Desktop/GD32VW553/V1_MQTT_OK/GD32VW55X_Wifi_BLE_SDK/GD32VW55x_RELEASE_V1.0.2/MSDK/cloud/alicloud/src/services/dev_bind\awss_notify.c ****         //awss_err("result = %d", result);
 102              		.loc 1 126 8 is_stmt 0
 103 004a E31D09FE 		bne	s2,zero,.L7
 131:C:/Users/stapi/OneDrive/Desktop/GD32VW553/V1_MQTT_OK/GD32VW55X_Wifi_BLE_SDK/GD32VW55x_RELEASE_V1.0.2/MSDK/cloud/alicloud/src/services/dev_bind\awss_notify.c ****     if (code >= 0x60) {
 104              		.loc 1 131 5 is_stmt 1
 131:C:/Users/stapi/OneDrive/Desktop/GD32VW553/V1_MQTT_OK/GD32VW55X_Wifi_BLE_SDK/GD32VW55x_RELEASE_V1.0.2/MSDK/cloud/alicloud/src/services/dev_bind\awss_notify.c ****     if (code >= 0x60) {
 105              		.loc 1 131 12 is_stmt 0
 106 004e 2285     		mv	a0,s0
 107 0050 97000000 		call	awss_cmp_get_coap_code
 107      E7800000 
 108              	.LVL8:
 132:C:/Users/stapi/OneDrive/Desktop/GD32VW553/V1_MQTT_OK/GD32VW55X_Wifi_BLE_SDK/GD32VW55x_RELEASE_V1.0.2/MSDK/cloud/alicloud/src/services/dev_bind\awss_notify.c ****         //awss_err("code:%02x", code);
 109              		.loc 1 132 5 is_stmt 1
 132:C:/Users/stapi/OneDrive/Desktop/GD32VW553/V1_MQTT_OK/GD32VW55X_Wifi_BLE_SDK/GD32VW55x_RELEASE_V1.0.2/MSDK/cloud/alicloud/src/services/dev_bind\awss_notify.c ****         //awss_err("code:%02x", code);
 110              		.loc 1 132 8 is_stmt 0
 111 0058 9307F005 		li	a5,95
 112 005c E3E4A7FE 		bgtu	a0,a5,.L7
 137:C:/Users/stapi/OneDrive/Desktop/GD32VW553/V1_MQTT_OK/GD32VW55X_Wifi_BLE_SDK/GD32VW55x_RELEASE_V1.0.2/MSDK/cloud/alicloud/src/services/dev_bind\awss_notify.c ****         int val = 0;
 113              		.loc 1 137 5 is_stmt 1
 114              	.LBB25:
 138:C:/Users/stapi/OneDrive/Desktop/GD32VW553/V1_MQTT_OK/GD32VW55X_Wifi_BLE_SDK/GD32VW55x_RELEASE_V1.0.2/MSDK/cloud/alicloud/src/services/dev_bind\awss_notify.c ****         int len = 0, mlen = 0;
 115              		.loc 1 138 9
 116              	.LVL9:
 139:C:/Users/stapi/OneDrive/Desktop/GD32VW553/V1_MQTT_OK/GD32VW55X_Wifi_BLE_SDK/GD32VW55x_RELEASE_V1.0.2/MSDK/cloud/alicloud/src/services/dev_bind\awss_notify.c ****         char *payload = NULL, *elem = NULL;
 117              		.loc 1 139 9
 142:C:/Users/stapi/OneDrive/Desktop/GD32VW553/V1_MQTT_OK/GD32VW55X_Wifi_BLE_SDK/GD32VW55x_RELEASE_V1.0.2/MSDK/cloud/alicloud/src/services/dev_bind\awss_notify.c ****             awss_err("payload invalid , len =%d", len);
 118              		.loc 1 142 24 is_stmt 0
 119 0060 2285     		mv	a0,s0
 120              	.LVL10:
 121 0062 2C08     		addi	a1,sp,24
 139:C:/Users/stapi/OneDrive/Desktop/GD32VW553/V1_MQTT_OK/GD32VW55X_Wifi_BLE_SDK/GD32VW55x_RELEASE_V1.0.2/MSDK/cloud/alicloud/src/services/dev_bind\awss_notify.c ****         char *payload = NULL, *elem = NULL;
 122              		.loc 1 139 13
 123 0064 02CC     		sw	zero,24(sp)
 139:C:/Users/stapi/OneDrive/Desktop/GD32VW553/V1_MQTT_OK/GD32VW55X_Wifi_BLE_SDK/GD32VW55x_RELEASE_V1.0.2/MSDK/cloud/alicloud/src/services/dev_bind\awss_notify.c ****         char *payload = NULL, *elem = NULL;
 124              		.loc 1 139 22
 125 0066 02CE     		sw	zero,28(sp)
 140:C:/Users/stapi/OneDrive/Desktop/GD32VW553/V1_MQTT_OK/GD32VW55X_Wifi_BLE_SDK/GD32VW55x_RELEASE_V1.0.2/MSDK/cloud/alicloud/src/services/dev_bind\awss_notify.c **** 
 126              		.loc 1 140 9 is_stmt 1
 127              	.LVL11:
 142:C:/Users/stapi/OneDrive/Desktop/GD32VW553/V1_MQTT_OK/GD32VW55X_Wifi_BLE_SDK/GD32VW55x_RELEASE_V1.0.2/MSDK/cloud/alicloud/src/services/dev_bind\awss_notify.c ****             awss_err("payload invalid , len =%d", len);
 128              		.loc 1 142 9
 142:C:/Users/stapi/OneDrive/Desktop/GD32VW553/V1_MQTT_OK/GD32VW55X_Wifi_BLE_SDK/GD32VW55x_RELEASE_V1.0.2/MSDK/cloud/alicloud/src/services/dev_bind\awss_notify.c ****             awss_err("payload invalid , len =%d", len);
 129              		.loc 1 142 24 is_stmt 0
 130 0068 97000000 		call	awss_cmp_get_coap_payload
 130      E7800000 
 131              	.LVL12:
 132 0070 2A84     		mv	s0,a0
 133              	.LVL13:
 142:C:/Users/stapi/OneDrive/Desktop/GD32VW553/V1_MQTT_OK/GD32VW55X_Wifi_BLE_SDK/GD32VW55x_RELEASE_V1.0.2/MSDK/cloud/alicloud/src/services/dev_bind\awss_notify.c ****             awss_err("payload invalid , len =%d", len);
 134              		.loc 1 142 12
 135 0072 19C5     		beq	a0,zero,.L5
 142:C:/Users/stapi/OneDrive/Desktop/GD32VW553/V1_MQTT_OK/GD32VW55X_Wifi_BLE_SDK/GD32VW55x_RELEASE_V1.0.2/MSDK/cloud/alicloud/src/services/dev_bind\awss_notify.c ****             awss_err("payload invalid , len =%d", len);
 136              		.loc 1 142 81 discriminator 1
 137 0074 E247     		lw	a5,24(sp)
 142:C:/Users/stapi/OneDrive/Desktop/GD32VW553/V1_MQTT_OK/GD32VW55X_Wifi_BLE_SDK/GD32VW55x_RELEASE_V1.0.2/MSDK/cloud/alicloud/src/services/dev_bind\awss_notify.c ****             awss_err("payload invalid , len =%d", len);
 138              		.loc 1 142 74 discriminator 1
 139 0076 13070004 		li	a4,64
 140 007a 6343F700 		bgt	a5,a4,.L5
 142:C:/Users/stapi/OneDrive/Desktop/GD32VW553/V1_MQTT_OK/GD32VW55X_Wifi_BLE_SDK/GD32VW55x_RELEASE_V1.0.2/MSDK/cloud/alicloud/src/services/dev_bind\awss_notify.c ****             awss_err("payload invalid , len =%d", len);
 141              		.loc 1 142 88 discriminator 2
 142 007e 9DE3     		bne	a5,zero,.L6
 143              	.L5:
 143:C:/Users/stapi/OneDrive/Desktop/GD32VW553/V1_MQTT_OK/GD32VW55X_Wifi_BLE_SDK/GD32VW55x_RELEASE_V1.0.2/MSDK/cloud/alicloud/src/services/dev_bind\awss_notify.c ****             return STATE_WIFI_COAP_RSP_INVALID;
 144              		.loc 1 143 13 is_stmt 1
 143:C:/Users/stapi/OneDrive/Desktop/GD32VW553/V1_MQTT_OK/GD32VW55X_Wifi_BLE_SDK/GD32VW55x_RELEASE_V1.0.2/MSDK/cloud/alicloud/src/services/dev_bind\awss_notify.c ****             return STATE_WIFI_COAP_RSP_INVALID;
 145              		.loc 1 143 13
 146 0080 37050000 		lui	a0,%hi(.LC2)
 147 0084 13050500 		addi	a0,a0,%lo(.LC2)
 148 0088 97000000 		call	HAL_Printf
 148      E7800000 
 149              	.LVL14:
 143:C:/Users/stapi/OneDrive/Desktop/GD32VW553/V1_MQTT_OK/GD32VW55X_Wifi_BLE_SDK/GD32VW55x_RELEASE_V1.0.2/MSDK/cloud/alicloud/src/services/dev_bind\awss_notify.c ****             return STATE_WIFI_COAP_RSP_INVALID;
 150              		.loc 1 143 13
 151 0090 E245     		lw	a1,24(sp)
 152 0092 37050000 		lui	a0,%hi(.LC3)
 153 0096 13050500 		addi	a0,a0,%lo(.LC3)
 154              	.LVL15:
 155              	.L18:
 145:C:/Users/stapi/OneDrive/Desktop/GD32VW553/V1_MQTT_OK/GD32VW55X_Wifi_BLE_SDK/GD32VW55x_RELEASE_V1.0.2/MSDK/cloud/alicloud/src/services/dev_bind\awss_notify.c ****         }
 146:C:/Users/stapi/OneDrive/Desktop/GD32VW553/V1_MQTT_OK/GD32VW55X_Wifi_BLE_SDK/GD32VW55x_RELEASE_V1.0.2/MSDK/cloud/alicloud/src/services/dev_bind\awss_notify.c **** 
 147:C:/Users/stapi/OneDrive/Desktop/GD32VW553/V1_MQTT_OK/GD32VW55X_Wifi_BLE_SDK/GD32VW55x_RELEASE_V1.0.2/MSDK/cloud/alicloud/src/services/dev_bind\awss_notify.c ****         awss_debug("payload:%s\r\n", payload);
 148:C:/Users/stapi/OneDrive/Desktop/GD32VW553/V1_MQTT_OK/GD32VW55X_Wifi_BLE_SDK/GD32VW55x_RELEASE_V1.0.2/MSDK/cloud/alicloud/src/services/dev_bind\awss_notify.c **** 
 149:C:/Users/stapi/OneDrive/Desktop/GD32VW553/V1_MQTT_OK/GD32VW55X_Wifi_BLE_SDK/GD32VW55x_RELEASE_V1.0.2/MSDK/cloud/alicloud/src/services/dev_bind\awss_notify.c ****         elem = json_get_value_by_name(payload, len, AWSS_JSON_ID, &mlen, 0);
 150:C:/Users/stapi/OneDrive/Desktop/GD32VW553/V1_MQTT_OK/GD32VW55X_Wifi_BLE_SDK/GD32VW55x_RELEASE_V1.0.2/MSDK/cloud/alicloud/src/services/dev_bind\awss_notify.c ****         if (elem == NULL) {
 151:C:/Users/stapi/OneDrive/Desktop/GD32VW553/V1_MQTT_OK/GD32VW55X_Wifi_BLE_SDK/GD32VW55x_RELEASE_V1.0.2/MSDK/cloud/alicloud/src/services/dev_bind\awss_notify.c ****             awss_err("no id in payload");
 152:C:/Users/stapi/OneDrive/Desktop/GD32VW553/V1_MQTT_OK/GD32VW55X_Wifi_BLE_SDK/GD32VW55x_RELEASE_V1.0.2/MSDK/cloud/alicloud/src/services/dev_bind\awss_notify.c ****             return STATE_WIFI_COAP_RSP_INVALID;
 153:C:/Users/stapi/OneDrive/Desktop/GD32VW553/V1_MQTT_OK/GD32VW55X_Wifi_BLE_SDK/GD32VW55x_RELEASE_V1.0.2/MSDK/cloud/alicloud/src/services/dev_bind\awss_notify.c ****         }
 154:C:/Users/stapi/OneDrive/Desktop/GD32VW553/V1_MQTT_OK/GD32VW55X_Wifi_BLE_SDK/GD32VW55x_RELEASE_V1.0.2/MSDK/cloud/alicloud/src/services/dev_bind\awss_notify.c **** 
 155:C:/Users/stapi/OneDrive/Desktop/GD32VW553/V1_MQTT_OK/GD32VW55X_Wifi_BLE_SDK/GD32VW55x_RELEASE_V1.0.2/MSDK/cloud/alicloud/src/services/dev_bind\awss_notify.c ****         val = atoi(elem);
 156:C:/Users/stapi/OneDrive/Desktop/GD32VW553/V1_MQTT_OK/GD32VW55X_Wifi_BLE_SDK/GD32VW55x_RELEASE_V1.0.2/MSDK/cloud/alicloud/src/services/dev_bind\awss_notify.c ****         if (val != 123 && val > g_notify_id) {
 157:C:/Users/stapi/OneDrive/Desktop/GD32VW553/V1_MQTT_OK/GD32VW55X_Wifi_BLE_SDK/GD32VW55x_RELEASE_V1.0.2/MSDK/cloud/alicloud/src/services/dev_bind\awss_notify.c ****             return STATE_WIFI_COAP_RSP_INVALID;
 158:C:/Users/stapi/OneDrive/Desktop/GD32VW553/V1_MQTT_OK/GD32VW55X_Wifi_BLE_SDK/GD32VW55x_RELEASE_V1.0.2/MSDK/cloud/alicloud/src/services/dev_bind\awss_notify.c ****         }
 159:C:/Users/stapi/OneDrive/Desktop/GD32VW553/V1_MQTT_OK/GD32VW55X_Wifi_BLE_SDK/GD32VW55x_RELEASE_V1.0.2/MSDK/cloud/alicloud/src/services/dev_bind\awss_notify.c **** 
 160:C:/Users/stapi/OneDrive/Desktop/GD32VW553/V1_MQTT_OK/GD32VW55X_Wifi_BLE_SDK/GD32VW55x_RELEASE_V1.0.2/MSDK/cloud/alicloud/src/services/dev_bind\awss_notify.c ****         elem = json_get_value_by_name(payload, len, AWSS_JSON_CODE, &mlen, 0);
 161:C:/Users/stapi/OneDrive/Desktop/GD32VW553/V1_MQTT_OK/GD32VW55X_Wifi_BLE_SDK/GD32VW55x_RELEASE_V1.0.2/MSDK/cloud/alicloud/src/services/dev_bind\awss_notify.c ****         if (elem == NULL) {
 162:C:/Users/stapi/OneDrive/Desktop/GD32VW553/V1_MQTT_OK/GD32VW55X_Wifi_BLE_SDK/GD32VW55x_RELEASE_V1.0.2/MSDK/cloud/alicloud/src/services/dev_bind\awss_notify.c ****             awss_err("no code in payload");
 163:C:/Users/stapi/OneDrive/Desktop/GD32VW553/V1_MQTT_OK/GD32VW55X_Wifi_BLE_SDK/GD32VW55x_RELEASE_V1.0.2/MSDK/cloud/alicloud/src/services/dev_bind\awss_notify.c ****             return STATE_WIFI_COAP_RSP_INVALID;
 164:C:/Users/stapi/OneDrive/Desktop/GD32VW553/V1_MQTT_OK/GD32VW55X_Wifi_BLE_SDK/GD32VW55x_RELEASE_V1.0.2/MSDK/cloud/alicloud/src/services/dev_bind\awss_notify.c ****         }
 165:C:/Users/stapi/OneDrive/Desktop/GD32VW553/V1_MQTT_OK/GD32VW55X_Wifi_BLE_SDK/GD32VW55x_RELEASE_V1.0.2/MSDK/cloud/alicloud/src/services/dev_bind\awss_notify.c **** 
 166:C:/Users/stapi/OneDrive/Desktop/GD32VW553/V1_MQTT_OK/GD32VW55X_Wifi_BLE_SDK/GD32VW55x_RELEASE_V1.0.2/MSDK/cloud/alicloud/src/services/dev_bind\awss_notify.c ****         val = atoi(elem);
 167:C:/Users/stapi/OneDrive/Desktop/GD32VW553/V1_MQTT_OK/GD32VW55X_Wifi_BLE_SDK/GD32VW55x_RELEASE_V1.0.2/MSDK/cloud/alicloud/src/services/dev_bind\awss_notify.c ****         if (val != 200) {
 168:C:/Users/stapi/OneDrive/Desktop/GD32VW553/V1_MQTT_OK/GD32VW55X_Wifi_BLE_SDK/GD32VW55x_RELEASE_V1.0.2/MSDK/cloud/alicloud/src/services/dev_bind\awss_notify.c ****             awss_err("code = %s", val);
 156              		.loc 1 168 13 is_stmt 0
 157 009a 97000000 		call	HAL_Printf
 157      E7800000 
 158              	.LVL16:
 159              		.loc 1 168 13 is_stmt 1
 160 00a2 B1A8     		j	.L16
 161              	.LVL17:
 162              	.L6:
 147:C:/Users/stapi/OneDrive/Desktop/GD32VW553/V1_MQTT_OK/GD32VW55X_Wifi_BLE_SDK/GD32VW55x_RELEASE_V1.0.2/MSDK/cloud/alicloud/src/services/dev_bind\awss_notify.c **** 
 163              		.loc 1 147 9
 164 00a4 37070000 		lui	a4,%hi(.LC5)
 165 00a8 AA87     		mv	a5,a0
 166 00aa 13070700 		addi	a4,a4,%lo(.LC5)
 167 00ae 9546     		li	a3,5
 168 00b0 13063009 		li	a2,147
 169 00b4 93050A00 		addi	a1,s4,%lo(.LANCHOR1)
 170 00b8 13850900 		addi	a0,s3,%lo(.LC1)
 171 00bc 97000000 		call	LITE_syslog
 171      E7800000 
 172              	.LVL18:
 149:C:/Users/stapi/OneDrive/Desktop/GD32VW553/V1_MQTT_OK/GD32VW55X_Wifi_BLE_SDK/GD32VW55x_RELEASE_V1.0.2/MSDK/cloud/alicloud/src/services/dev_bind\awss_notify.c ****         if (elem == NULL) {
 173              		.loc 1 149 9
 149:C:/Users/stapi/OneDrive/Desktop/GD32VW553/V1_MQTT_OK/GD32VW55X_Wifi_BLE_SDK/GD32VW55x_RELEASE_V1.0.2/MSDK/cloud/alicloud/src/services/dev_bind\awss_notify.c ****         if (elem == NULL) {
 174              		.loc 1 149 16 is_stmt 0
 175 00c4 E245     		lw	a1,24(sp)
 176 00c6 37060000 		lui	a2,%hi(.LC6)
 177 00ca 0147     		li	a4,0
 178 00cc 7408     		addi	a3,sp,28
 179 00ce 13060600 		addi	a2,a2,%lo(.LC6)
 180 00d2 2285     		mv	a0,s0
 181 00d4 97000000 		call	json_get_value_by_name
 181      E7800000 
 182              	.LVL19:
 150:C:/Users/stapi/OneDrive/Desktop/GD32VW553/V1_MQTT_OK/GD32VW55X_Wifi_BLE_SDK/GD32VW55x_RELEASE_V1.0.2/MSDK/cloud/alicloud/src/services/dev_bind\awss_notify.c ****             awss_err("no id in payload");
 183              		.loc 1 150 9 is_stmt 1
 150:C:/Users/stapi/OneDrive/Desktop/GD32VW553/V1_MQTT_OK/GD32VW55X_Wifi_BLE_SDK/GD32VW55x_RELEASE_V1.0.2/MSDK/cloud/alicloud/src/services/dev_bind\awss_notify.c ****             awss_err("no id in payload");
 184              		.loc 1 150 12 is_stmt 0
 185 00dc 15E9     		bne	a0,zero,.L8
 151:C:/Users/stapi/OneDrive/Desktop/GD32VW553/V1_MQTT_OK/GD32VW55X_Wifi_BLE_SDK/GD32VW55x_RELEASE_V1.0.2/MSDK/cloud/alicloud/src/services/dev_bind\awss_notify.c ****             return STATE_WIFI_COAP_RSP_INVALID;
 186              		.loc 1 151 13 is_stmt 1
 151:C:/Users/stapi/OneDrive/Desktop/GD32VW553/V1_MQTT_OK/GD32VW55X_Wifi_BLE_SDK/GD32VW55x_RELEASE_V1.0.2/MSDK/cloud/alicloud/src/services/dev_bind\awss_notify.c ****             return STATE_WIFI_COAP_RSP_INVALID;
 187              		.loc 1 151 13
 188 00de 37050000 		lui	a0,%hi(.LC2)
 189              	.LVL20:
 190 00e2 13050500 		addi	a0,a0,%lo(.LC2)
 191 00e6 97000000 		call	HAL_Printf
 191      E7800000 
 192              	.LVL21:
 151:C:/Users/stapi/OneDrive/Desktop/GD32VW553/V1_MQTT_OK/GD32VW55X_Wifi_BLE_SDK/GD32VW55x_RELEASE_V1.0.2/MSDK/cloud/alicloud/src/services/dev_bind\awss_notify.c ****             return STATE_WIFI_COAP_RSP_INVALID;
 193              		.loc 1 151 13
 194 00ee 37050000 		lui	a0,%hi(.LC7)
 195 00f2 13050500 		addi	a0,a0,%lo(.LC7)
 196              	.LVL22:
 197              	.L17:
 162:C:/Users/stapi/OneDrive/Desktop/GD32VW553/V1_MQTT_OK/GD32VW55X_Wifi_BLE_SDK/GD32VW55x_RELEASE_V1.0.2/MSDK/cloud/alicloud/src/services/dev_bind\awss_notify.c ****             return STATE_WIFI_COAP_RSP_INVALID;
 198              		.loc 1 162 13 is_stmt 0
 199 00f6 97000000 		call	HAL_Printf
 199      E7800000 
 200              	.LVL23:
 201              	.L16:
 162:C:/Users/stapi/OneDrive/Desktop/GD32VW553/V1_MQTT_OK/GD32VW55X_Wifi_BLE_SDK/GD32VW55x_RELEASE_V1.0.2/MSDK/cloud/alicloud/src/services/dev_bind\awss_notify.c ****             return STATE_WIFI_COAP_RSP_INVALID;
 202              		.loc 1 162 13 is_stmt 1
 203 00fe 37050000 		lui	a0,%hi(.LC4)
 204 0102 13050500 		addi	a0,a0,%lo(.LC4)
 205 0106 97000000 		call	HAL_Printf
 205      E7800000 
 206              	.LVL24:
 162:C:/Users/stapi/OneDrive/Desktop/GD32VW553/V1_MQTT_OK/GD32VW55X_Wifi_BLE_SDK/GD32VW55x_RELEASE_V1.0.2/MSDK/cloud/alicloud/src/services/dev_bind\awss_notify.c ****             return STATE_WIFI_COAP_RSP_INVALID;
 207              		.loc 1 162 13
 163:C:/Users/stapi/OneDrive/Desktop/GD32VW553/V1_MQTT_OK/GD32VW55X_Wifi_BLE_SDK/GD32VW55x_RELEASE_V1.0.2/MSDK/cloud/alicloud/src/services/dev_bind\awss_notify.c ****         }
 208              		.loc 1 163 13
 163:C:/Users/stapi/OneDrive/Desktop/GD32VW553/V1_MQTT_OK/GD32VW55X_Wifi_BLE_SDK/GD32VW55x_RELEASE_V1.0.2/MSDK/cloud/alicloud/src/services/dev_bind\awss_notify.c ****         }
 209              		.loc 1 163 20 is_stmt 0
 210 010e 1DBF     		j	.L7
 211              	.LVL25:
 212              	.L8:
 155:C:/Users/stapi/OneDrive/Desktop/GD32VW553/V1_MQTT_OK/GD32VW55X_Wifi_BLE_SDK/GD32VW55x_RELEASE_V1.0.2/MSDK/cloud/alicloud/src/services/dev_bind\awss_notify.c ****         if (val != 123 && val > g_notify_id) {
 213              		.loc 1 155 9 is_stmt 1
 155:C:/Users/stapi/OneDrive/Desktop/GD32VW553/V1_MQTT_OK/GD32VW55X_Wifi_BLE_SDK/GD32VW55x_RELEASE_V1.0.2/MSDK/cloud/alicloud/src/services/dev_bind\awss_notify.c ****         if (val != 123 && val > g_notify_id) {
 214              		.loc 1 155 15 is_stmt 0
 215 0110 97000000 		call	atoi
 215      E7800000 
 216              	.LVL26:
 156:C:/Users/stapi/OneDrive/Desktop/GD32VW553/V1_MQTT_OK/GD32VW55X_Wifi_BLE_SDK/GD32VW55x_RELEASE_V1.0.2/MSDK/cloud/alicloud/src/services/dev_bind\awss_notify.c ****             return STATE_WIFI_COAP_RSP_INVALID;
 217              		.loc 1 156 9 is_stmt 1
 156:C:/Users/stapi/OneDrive/Desktop/GD32VW553/V1_MQTT_OK/GD32VW55X_Wifi_BLE_SDK/GD32VW55x_RELEASE_V1.0.2/MSDK/cloud/alicloud/src/services/dev_bind\awss_notify.c ****             return STATE_WIFI_COAP_RSP_INVALID;
 218              		.loc 1 156 12 is_stmt 0
 219 0118 9307B007 		li	a5,123
 220 011c 6308F500 		beq	a0,a5,.L9
 156:C:/Users/stapi/OneDrive/Desktop/GD32VW553/V1_MQTT_OK/GD32VW55X_Wifi_BLE_SDK/GD32VW55x_RELEASE_V1.0.2/MSDK/cloud/alicloud/src/services/dev_bind\awss_notify.c ****             return STATE_WIFI_COAP_RSP_INVALID;
 221              		.loc 1 156 31 discriminator 1
 222 0120 B7070000 		lui	a5,%hi(.LANCHOR2)
 223 0124 83C70700 		lbu	a5,%lo(.LANCHOR2)(a5)
 156:C:/Users/stapi/OneDrive/Desktop/GD32VW553/V1_MQTT_OK/GD32VW55X_Wifi_BLE_SDK/GD32VW55x_RELEASE_V1.0.2/MSDK/cloud/alicloud/src/services/dev_bind\awss_notify.c ****             return STATE_WIFI_COAP_RSP_INVALID;
 224              		.loc 1 156 24 discriminator 1
 225 0128 E3CEA7F0 		blt	a5,a0,.L7
 226              	.L9:
 160:C:/Users/stapi/OneDrive/Desktop/GD32VW553/V1_MQTT_OK/GD32VW55X_Wifi_BLE_SDK/GD32VW55x_RELEASE_V1.0.2/MSDK/cloud/alicloud/src/services/dev_bind\awss_notify.c ****         if (elem == NULL) {
 227              		.loc 1 160 9 is_stmt 1
 160:C:/Users/stapi/OneDrive/Desktop/GD32VW553/V1_MQTT_OK/GD32VW55X_Wifi_BLE_SDK/GD32VW55x_RELEASE_V1.0.2/MSDK/cloud/alicloud/src/services/dev_bind\awss_notify.c ****         if (elem == NULL) {
 228              		.loc 1 160 16 is_stmt 0
 229 012c E245     		lw	a1,24(sp)
 230 012e 37060000 		lui	a2,%hi(.LC8)
 231 0132 0147     		li	a4,0
 232 0134 7408     		addi	a3,sp,28
 233 0136 13060600 		addi	a2,a2,%lo(.LC8)
 234 013a 2285     		mv	a0,s0
 235              	.LVL27:
 236 013c 97000000 		call	json_get_value_by_name
 236      E7800000 
 237              	.LVL28:
 161:C:/Users/stapi/OneDrive/Desktop/GD32VW553/V1_MQTT_OK/GD32VW55X_Wifi_BLE_SDK/GD32VW55x_RELEASE_V1.0.2/MSDK/cloud/alicloud/src/services/dev_bind\awss_notify.c ****             awss_err("no code in payload");
 238              		.loc 1 161 9 is_stmt 1
 161:C:/Users/stapi/OneDrive/Desktop/GD32VW553/V1_MQTT_OK/GD32VW55X_Wifi_BLE_SDK/GD32VW55x_RELEASE_V1.0.2/MSDK/cloud/alicloud/src/services/dev_bind\awss_notify.c ****             awss_err("no code in payload");
 239              		.loc 1 161 12 is_stmt 0
 240 0144 11ED     		bne	a0,zero,.L10
 162:C:/Users/stapi/OneDrive/Desktop/GD32VW553/V1_MQTT_OK/GD32VW55X_Wifi_BLE_SDK/GD32VW55x_RELEASE_V1.0.2/MSDK/cloud/alicloud/src/services/dev_bind\awss_notify.c ****             return STATE_WIFI_COAP_RSP_INVALID;
 241              		.loc 1 162 13 is_stmt 1
 162:C:/Users/stapi/OneDrive/Desktop/GD32VW553/V1_MQTT_OK/GD32VW55X_Wifi_BLE_SDK/GD32VW55x_RELEASE_V1.0.2/MSDK/cloud/alicloud/src/services/dev_bind\awss_notify.c ****             return STATE_WIFI_COAP_RSP_INVALID;
 242              		.loc 1 162 13
 243 0146 37050000 		lui	a0,%hi(.LC2)
 244              	.LVL29:
 245 014a 13050500 		addi	a0,a0,%lo(.LC2)
 246 014e 97000000 		call	HAL_Printf
 246      E7800000 
 247              	.LVL30:
 162:C:/Users/stapi/OneDrive/Desktop/GD32VW553/V1_MQTT_OK/GD32VW55X_Wifi_BLE_SDK/GD32VW55x_RELEASE_V1.0.2/MSDK/cloud/alicloud/src/services/dev_bind\awss_notify.c ****             return STATE_WIFI_COAP_RSP_INVALID;
 248              		.loc 1 162 13
 249 0156 37050000 		lui	a0,%hi(.LC9)
 250 015a 13050500 		addi	a0,a0,%lo(.LC9)
 251 015e 61BF     		j	.L17
 252              	.LVL31:
 253              	.L10:
 166:C:/Users/stapi/OneDrive/Desktop/GD32VW553/V1_MQTT_OK/GD32VW55X_Wifi_BLE_SDK/GD32VW55x_RELEASE_V1.0.2/MSDK/cloud/alicloud/src/services/dev_bind\awss_notify.c ****         if (val != 200) {
 254              		.loc 1 166 9
 166:C:/Users/stapi/OneDrive/Desktop/GD32VW553/V1_MQTT_OK/GD32VW55X_Wifi_BLE_SDK/GD32VW55x_RELEASE_V1.0.2/MSDK/cloud/alicloud/src/services/dev_bind\awss_notify.c ****         if (val != 200) {
 255              		.loc 1 166 15 is_stmt 0
 256 0160 97000000 		call	atoi
 256      E7800000 
 257              	.LVL32:
 167:C:/Users/stapi/OneDrive/Desktop/GD32VW553/V1_MQTT_OK/GD32VW55X_Wifi_BLE_SDK/GD32VW55x_RELEASE_V1.0.2/MSDK/cloud/alicloud/src/services/dev_bind\awss_notify.c ****             awss_err("code = %s", val);
 258              		.loc 1 167 9 is_stmt 1
 167:C:/Users/stapi/OneDrive/Desktop/GD32VW553/V1_MQTT_OK/GD32VW55X_Wifi_BLE_SDK/GD32VW55x_RELEASE_V1.0.2/MSDK/cloud/alicloud/src/services/dev_bind\awss_notify.c ****             awss_err("code = %s", val);
 259              		.loc 1 167 12 is_stmt 0
 260 0168 9307800C 		li	a5,200
 261 016c 6301F502 		beq	a0,a5,.L11
 262 0170 2AC6     		sw	a0,12(sp)
 263              		.loc 1 168 13 is_stmt 1
 264              		.loc 1 168 13
 265 0172 37050000 		lui	a0,%hi(.LC2)
 266              	.LVL33:
 267 0176 13050500 		addi	a0,a0,%lo(.LC2)
 268 017a 97000000 		call	HAL_Printf
 268      E7800000 
 269              	.LVL34:
 270              		.loc 1 168 13
 271 0182 37050000 		lui	a0,%hi(.LC10)
 272 0186 B245     		lw	a1,12(sp)
 273 0188 13050500 		addi	a0,a0,%lo(.LC10)
 274 018c 39B7     		j	.L18
 275              	.LVL35:
 276              	.L11:
 277              	.LBE25:
 169:C:/Users/stapi/OneDrive/Desktop/GD32VW553/V1_MQTT_OK/GD32VW55X_Wifi_BLE_SDK/GD32VW55x_RELEASE_V1.0.2/MSDK/cloud/alicloud/src/services/dev_bind\awss_notify.c ****             return STATE_WIFI_COAP_RSP_INVALID;
 170:C:/Users/stapi/OneDrive/Desktop/GD32VW553/V1_MQTT_OK/GD32VW55X_Wifi_BLE_SDK/GD32VW55x_RELEASE_V1.0.2/MSDK/cloud/alicloud/src/services/dev_bind\awss_notify.c ****         }
 171:C:/Users/stapi/OneDrive/Desktop/GD32VW553/V1_MQTT_OK/GD32VW55X_Wifi_BLE_SDK/GD32VW55x_RELEASE_V1.0.2/MSDK/cloud/alicloud/src/services/dev_bind\awss_notify.c ****     } while (0);
 278              		.loc 1 171 13
 172:C:/Users/stapi/OneDrive/Desktop/GD32VW553/V1_MQTT_OK/GD32VW55X_Wifi_BLE_SDK/GD32VW55x_RELEASE_V1.0.2/MSDK/cloud/alicloud/src/services/dev_bind\awss_notify.c **** 
 173:C:/Users/stapi/OneDrive/Desktop/GD32VW553/V1_MQTT_OK/GD32VW55X_Wifi_BLE_SDK/GD32VW55x_RELEASE_V1.0.2/MSDK/cloud/alicloud/src/services/dev_bind\awss_notify.c ****     for (i = 0; i < sizeof(notify_map) / sizeof(notify_map[0]); i ++) {
 279              		.loc 1 173 5
 280              		.loc 1 173 17
 174:C:/Users/stapi/OneDrive/Desktop/GD32VW553/V1_MQTT_OK/GD32VW55X_Wifi_BLE_SDK/GD32VW55x_RELEASE_V1.0.2/MSDK/cloud/alicloud/src/services/dev_bind\awss_notify.c ****         if (notify_map[i].notify_type != type) {
 281              		.loc 1 174 9
 175:C:/Users/stapi/OneDrive/Desktop/GD32VW553/V1_MQTT_OK/GD32VW55X_Wifi_BLE_SDK/GD32VW55x_RELEASE_V1.0.2/MSDK/cloud/alicloud/src/services/dev_bind\awss_notify.c ****             continue;
 176:C:/Users/stapi/OneDrive/Desktop/GD32VW553/V1_MQTT_OK/GD32VW55X_Wifi_BLE_SDK/GD32VW55x_RELEASE_V1.0.2/MSDK/cloud/alicloud/src/services/dev_bind\awss_notify.c ****         }
 177:C:/Users/stapi/OneDrive/Desktop/GD32VW553/V1_MQTT_OK/GD32VW55X_Wifi_BLE_SDK/GD32VW55x_RELEASE_V1.0.2/MSDK/cloud/alicloud/src/services/dev_bind\awss_notify.c **** 
 178:C:/Users/stapi/OneDrive/Desktop/GD32VW553/V1_MQTT_OK/GD32VW55X_Wifi_BLE_SDK/GD32VW55x_RELEASE_V1.0.2/MSDK/cloud/alicloud/src/services/dev_bind\awss_notify.c ****         awss_notify_resp[type] = 1;
 282              		.loc 1 178 9
 283              		.loc 1 178 32 is_stmt 0
 284 018e B7070000 		lui	a5,%hi(.LANCHOR3)
 285 0192 93870700 		addi	a5,a5,%lo(.LANCHOR3)
 286 0196 33859700 		add	a0,a5,s1
 287              	.LVL36:
 288 019a 8547     		li	a5,1
 289 019c 2300F500 		sb	a5,0(a0)
 179:C:/Users/stapi/OneDrive/Desktop/GD32VW553/V1_MQTT_OK/GD32VW55X_Wifi_BLE_SDK/GD32VW55x_RELEASE_V1.0.2/MSDK/cloud/alicloud/src/services/dev_bind\awss_notify.c ****         break;
 290              		.loc 1 179 9 is_stmt 1
 180:C:/Users/stapi/OneDrive/Desktop/GD32VW553/V1_MQTT_OK/GD32VW55X_Wifi_BLE_SDK/GD32VW55x_RELEASE_V1.0.2/MSDK/cloud/alicloud/src/services/dev_bind\awss_notify.c ****     }
 181:C:/Users/stapi/OneDrive/Desktop/GD32VW553/V1_MQTT_OK/GD32VW55X_Wifi_BLE_SDK/GD32VW55x_RELEASE_V1.0.2/MSDK/cloud/alicloud/src/services/dev_bind\awss_notify.c **** 
 182:C:/Users/stapi/OneDrive/Desktop/GD32VW553/V1_MQTT_OK/GD32VW55X_Wifi_BLE_SDK/GD32VW55x_RELEASE_V1.0.2/MSDK/cloud/alicloud/src/services/dev_bind\awss_notify.c ****     return awss_notify_resp[type];
 291              		.loc 1 182 5
 292              		.loc 1 182 28 is_stmt 0
 293 01a0 0545     		li	a0,1
 294              	.LVL37:
 295              	.L1:
 183:C:/Users/stapi/OneDrive/Desktop/GD32VW553/V1_MQTT_OK/GD32VW55X_Wifi_BLE_SDK/GD32VW55x_RELEASE_V1.0.2/MSDK/cloud/alicloud/src/services/dev_bind\awss_notify.c **** }
 296              		.loc 1 183 1
 297 01a2 0561     		addi	sp,sp,32
 298              		.cfi_def_cfa_offset 0
 299 01a4 17030000 		tail	__riscv_restore_5
 299      67000300 
 300              		.cfi_restore 20
 301              		.cfi_restore 19
 302              		.cfi_restore 18
 303              		.cfi_restore 9
 304              		.cfi_restore 8
 305              		.cfi_restore 1
 306              		.cfi_def_cfa_offset -32
 307              		.cfi_endproc
 308              	.LFE67:
 310              		.section	.text.awss_suc_notify_resp,"ax",@progbits
 311              		.align	1
 313              	awss_suc_notify_resp:
 314              	.LFB66:
 110:C:/Users/stapi/OneDrive/Desktop/GD32VW553/V1_MQTT_OK/GD32VW55X_Wifi_BLE_SDK/GD32VW55x_RELEASE_V1.0.2/MSDK/cloud/alicloud/src/services/dev_bind\awss_notify.c ****     return awss_notify_response(AWSS_NOTIFY_SUCCESS, result, message);
 315              		.loc 1 110 1 is_stmt 1
 316              		.cfi_startproc
 317              	.LVL38:
 111:C:/Users/stapi/OneDrive/Desktop/GD32VW553/V1_MQTT_OK/GD32VW55X_Wifi_BLE_SDK/GD32VW55x_RELEASE_V1.0.2/MSDK/cloud/alicloud/src/services/dev_bind\awss_notify.c **** }
 318              		.loc 1 111 5
 111:C:/Users/stapi/OneDrive/Desktop/GD32VW553/V1_MQTT_OK/GD32VW55X_Wifi_BLE_SDK/GD32VW55x_RELEASE_V1.0.2/MSDK/cloud/alicloud/src/services/dev_bind\awss_notify.c **** }
 319              		.loc 1 111 12 is_stmt 0
 320 0000 3A86     		mv	a2,a4
 321              	.LVL39:
 322 0002 0D45     		li	a0,3
 323              	.LVL40:
 324 0004 17030000 		tail	awss_notify_response
 324      67000300 
 325              	.LVL41:
 326              		.cfi_endproc
 327              	.LFE66:
 329              		.section	.text.awss_devinfo_notify_resp,"ax",@progbits
 330              		.align	1
 332              	awss_devinfo_notify_resp:
 333              	.LFB65:
 103:C:/Users/stapi/OneDrive/Desktop/GD32VW553/V1_MQTT_OK/GD32VW55X_Wifi_BLE_SDK/GD32VW55x_RELEASE_V1.0.2/MSDK/cloud/alicloud/src/services/dev_bind\awss_notify.c ****     return awss_notify_response(AWSS_NOTIFY_DEV_RAND_SIGN, result, message);
 334              		.loc 1 103 1 is_stmt 1
 335              		.cfi_startproc
 336              	.LVL42:
 104:C:/Users/stapi/OneDrive/Desktop/GD32VW553/V1_MQTT_OK/GD32VW55X_Wifi_BLE_SDK/GD32VW55x_RELEASE_V1.0.2/MSDK/cloud/alicloud/src/services/dev_bind\awss_notify.c **** }
 337              		.loc 1 104 5
 104:C:/Users/stapi/OneDrive/Desktop/GD32VW553/V1_MQTT_OK/GD32VW55X_Wifi_BLE_SDK/GD32VW55x_RELEASE_V1.0.2/MSDK/cloud/alicloud/src/services/dev_bind\awss_notify.c **** }
 338              		.loc 1 104 12 is_stmt 0
 339 0000 3A86     		mv	a2,a4
 340              	.LVL43:
 341 0002 0945     		li	a0,2
 342              	.LVL44:
 343 0004 17030000 		tail	awss_notify_response
 343      67000300 
 344              	.LVL45:
 345              		.cfi_endproc
 346              	.LFE65:
 348              		.section	.text.awss_dev_bind_notify_resp,"ax",@progbits
 349              		.align	1
 351              	awss_dev_bind_notify_resp:
 352              	.LFB64:
  88:C:/Users/stapi/OneDrive/Desktop/GD32VW553/V1_MQTT_OK/GD32VW55X_Wifi_BLE_SDK/GD32VW55x_RELEASE_V1.0.2/MSDK/cloud/alicloud/src/services/dev_bind\awss_notify.c ****     int res = awss_notify_response(AWSS_NOTIFY_DEV_BIND_TOKEN, result, message);
 353              		.loc 1 88 1 is_stmt 1
 354              		.cfi_startproc
 355              	.LVL46:
 356 0000 17030000 		call	t0,__riscv_save_1
 356      E7020300 
 357              		.cfi_offset 8, -8
 358              		.cfi_offset 1, -4
 359              		.cfi_def_cfa_offset 16
  89:C:/Users/stapi/OneDrive/Desktop/GD32VW553/V1_MQTT_OK/GD32VW55X_Wifi_BLE_SDK/GD32VW55x_RELEASE_V1.0.2/MSDK/cloud/alicloud/src/services/dev_bind\awss_notify.c ****     if (res == 1) {
 360              		.loc 1 89 5
  89:C:/Users/stapi/OneDrive/Desktop/GD32VW553/V1_MQTT_OK/GD32VW55X_Wifi_BLE_SDK/GD32VW55x_RELEASE_V1.0.2/MSDK/cloud/alicloud/src/services/dev_bind\awss_notify.c ****     if (res == 1) {
 361              		.loc 1 89 15 is_stmt 0
 362 0008 3A86     		mv	a2,a4
 363              	.LVL47:
 364 000a 0545     		li	a0,1
 365              	.LVL48:
 366 000c 97000000 		call	awss_notify_response
 366      E7800000 
 367              	.LVL49:
  90:C:/Users/stapi/OneDrive/Desktop/GD32VW553/V1_MQTT_OK/GD32VW55X_Wifi_BLE_SDK/GD32VW55x_RELEASE_V1.0.2/MSDK/cloud/alicloud/src/services/dev_bind\awss_notify.c ****         awss_update_token();
 368              		.loc 1 90 8
 369 0014 8547     		li	a5,1
  89:C:/Users/stapi/OneDrive/Desktop/GD32VW553/V1_MQTT_OK/GD32VW55X_Wifi_BLE_SDK/GD32VW55x_RELEASE_V1.0.2/MSDK/cloud/alicloud/src/services/dev_bind\awss_notify.c ****     if (res == 1) {
 370              		.loc 1 89 15
 371 0016 2A84     		mv	s0,a0
 372              	.LVL50:
  90:C:/Users/stapi/OneDrive/Desktop/GD32VW553/V1_MQTT_OK/GD32VW55X_Wifi_BLE_SDK/GD32VW55x_RELEASE_V1.0.2/MSDK/cloud/alicloud/src/services/dev_bind\awss_notify.c ****         awss_update_token();
 373              		.loc 1 90 5 is_stmt 1
  90:C:/Users/stapi/OneDrive/Desktop/GD32VW553/V1_MQTT_OK/GD32VW55X_Wifi_BLE_SDK/GD32VW55x_RELEASE_V1.0.2/MSDK/cloud/alicloud/src/services/dev_bind\awss_notify.c ****         awss_update_token();
 374              		.loc 1 90 8 is_stmt 0
 375 0018 6316F500 		bne	a0,a5,.L23
  91:C:/Users/stapi/OneDrive/Desktop/GD32VW553/V1_MQTT_OK/GD32VW55X_Wifi_BLE_SDK/GD32VW55x_RELEASE_V1.0.2/MSDK/cloud/alicloud/src/services/dev_bind\awss_notify.c **** #ifdef DEV_BIND_TEST
 376              		.loc 1 91 9 is_stmt 1
 377 001c 97000000 		call	awss_update_token
 377      E7800000 
 378              	.LVL51:
  96:C:/Users/stapi/OneDrive/Desktop/GD32VW553/V1_MQTT_OK/GD32VW55X_Wifi_BLE_SDK/GD32VW55x_RELEASE_V1.0.2/MSDK/cloud/alicloud/src/services/dev_bind\awss_notify.c **** }
 379              		.loc 1 96 5
 380              	.L23:
  97:C:/Users/stapi/OneDrive/Desktop/GD32VW553/V1_MQTT_OK/GD32VW55X_Wifi_BLE_SDK/GD32VW55x_RELEASE_V1.0.2/MSDK/cloud/alicloud/src/services/dev_bind\awss_notify.c **** 
 381              		.loc 1 97 1 is_stmt 0
 382 0024 2285     		mv	a0,s0
 383 0026 17030000 		tail	__riscv_restore_1
 383      67000300 
 384              		.cfi_restore 8
 385              		.cfi_restore 1
 386              		.cfi_def_cfa_offset 0
 387              		.cfi_endproc
 388              	.LFE64:
 390              		.section	.rodata.online_get_device_info.constprop.0.str1.4,"aMS",@progbits,1
 391              		.align	2
 392              	.LC11:
 393 0000 72656376 		.string	"recv token query"
 393      20746F6B 
 393      656E2071 
 393      75657279 
 393      00
 394 0011 000000   		.align	2
 395              	.LC12:
 396 0014 6E656564 		.string	"need do reset"
 396      20646F20 
 396      72657365 
 396      7400
 397 0022 0000     		.align	2
 398              	.LC13:
 399 0024 72656376 		.string	"recv get dev info fail"
 399      20676574 
 399      20646576 
 399      20696E66 
 399      6F206661 
 400 003b 00       		.align	2
 401              	.LC14:
 402 003c 63707920 		.string	"cpy req ctx fail"
 402      72657120 
 402      63747820 
 402      6661696C 
 402      00
 403 004d 000000   		.align	2
 404              	.LC15:
 405 0050 6765745F 		.string	"get_devinfo"
 405      64657669 
 405      6E666F00 
 406              		.section	.text.online_get_device_info.constprop.0,"ax",@progbits
 407              		.align	1
 409              	online_get_device_info.constprop.0:
 410              	.LFB84:
 184:C:/Users/stapi/OneDrive/Desktop/GD32VW553/V1_MQTT_OK/GD32VW55X_Wifi_BLE_SDK/GD32VW55x_RELEASE_V1.0.2/MSDK/cloud/alicloud/src/services/dev_bind\awss_notify.c **** 
 185:C:/Users/stapi/OneDrive/Desktop/GD32VW553/V1_MQTT_OK/GD32VW55X_Wifi_BLE_SDK/GD32VW55x_RELEASE_V1.0.2/MSDK/cloud/alicloud/src/services/dev_bind\awss_notify.c **** int awss_notify_dev_info(int type, int count)
 186:C:/Users/stapi/OneDrive/Desktop/GD32VW553/V1_MQTT_OK/GD32VW55X_Wifi_BLE_SDK/GD32VW55x_RELEASE_V1.0.2/MSDK/cloud/alicloud/src/services/dev_bind\awss_notify.c **** {
 187:C:/Users/stapi/OneDrive/Desktop/GD32VW553/V1_MQTT_OK/GD32VW55X_Wifi_BLE_SDK/GD32VW55x_RELEASE_V1.0.2/MSDK/cloud/alicloud/src/services/dev_bind\awss_notify.c ****     char *buf = NULL;
 188:C:/Users/stapi/OneDrive/Desktop/GD32VW553/V1_MQTT_OK/GD32VW55X_Wifi_BLE_SDK/GD32VW55x_RELEASE_V1.0.2/MSDK/cloud/alicloud/src/services/dev_bind\awss_notify.c ****     char *dev_info = NULL;
 189:C:/Users/stapi/OneDrive/Desktop/GD32VW553/V1_MQTT_OK/GD32VW55X_Wifi_BLE_SDK/GD32VW55x_RELEASE_V1.0.2/MSDK/cloud/alicloud/src/services/dev_bind\awss_notify.c ****     int i;
 190:C:/Users/stapi/OneDrive/Desktop/GD32VW553/V1_MQTT_OK/GD32VW55X_Wifi_BLE_SDK/GD32VW55x_RELEASE_V1.0.2/MSDK/cloud/alicloud/src/services/dev_bind\awss_notify.c ****     platform_netaddr_t notify_sa;
 191:C:/Users/stapi/OneDrive/Desktop/GD32VW553/V1_MQTT_OK/GD32VW55X_Wifi_BLE_SDK/GD32VW55x_RELEASE_V1.0.2/MSDK/cloud/alicloud/src/services/dev_bind\awss_notify.c ****     memset(&notify_sa, 0, sizeof(notify_sa));
 192:C:/Users/stapi/OneDrive/Desktop/GD32VW553/V1_MQTT_OK/GD32VW55X_Wifi_BLE_SDK/GD32VW55x_RELEASE_V1.0.2/MSDK/cloud/alicloud/src/services/dev_bind\awss_notify.c **** 
 193:C:/Users/stapi/OneDrive/Desktop/GD32VW553/V1_MQTT_OK/GD32VW55X_Wifi_BLE_SDK/GD32VW55x_RELEASE_V1.0.2/MSDK/cloud/alicloud/src/services/dev_bind\awss_notify.c ****     do {
 194:C:/Users/stapi/OneDrive/Desktop/GD32VW553/V1_MQTT_OK/GD32VW55X_Wifi_BLE_SDK/GD32VW55x_RELEASE_V1.0.2/MSDK/cloud/alicloud/src/services/dev_bind\awss_notify.c ****         void *cb = NULL;
 195:C:/Users/stapi/OneDrive/Desktop/GD32VW553/V1_MQTT_OK/GD32VW55X_Wifi_BLE_SDK/GD32VW55x_RELEASE_V1.0.2/MSDK/cloud/alicloud/src/services/dev_bind\awss_notify.c ****         char *method = NULL, *topic = NULL;
 196:C:/Users/stapi/OneDrive/Desktop/GD32VW553/V1_MQTT_OK/GD32VW55X_Wifi_BLE_SDK/GD32VW55x_RELEASE_V1.0.2/MSDK/cloud/alicloud/src/services/dev_bind\awss_notify.c ****         char rand_str[RANDOM_MAX_LEN * 2 + 1] = {0};
 197:C:/Users/stapi/OneDrive/Desktop/GD32VW553/V1_MQTT_OK/GD32VW55X_Wifi_BLE_SDK/GD32VW55x_RELEASE_V1.0.2/MSDK/cloud/alicloud/src/services/dev_bind\awss_notify.c ****         for (i = 0; i < sizeof(notify_map) / sizeof(notify_map[0]); i ++) {
 198:C:/Users/stapi/OneDrive/Desktop/GD32VW553/V1_MQTT_OK/GD32VW55X_Wifi_BLE_SDK/GD32VW55x_RELEASE_V1.0.2/MSDK/cloud/alicloud/src/services/dev_bind\awss_notify.c ****             if (notify_map[i].notify_type != type) {
 199:C:/Users/stapi/OneDrive/Desktop/GD32VW553/V1_MQTT_OK/GD32VW55X_Wifi_BLE_SDK/GD32VW55x_RELEASE_V1.0.2/MSDK/cloud/alicloud/src/services/dev_bind\awss_notify.c ****                 continue;
 200:C:/Users/stapi/OneDrive/Desktop/GD32VW553/V1_MQTT_OK/GD32VW55X_Wifi_BLE_SDK/GD32VW55x_RELEASE_V1.0.2/MSDK/cloud/alicloud/src/services/dev_bind\awss_notify.c ****             }
 201:C:/Users/stapi/OneDrive/Desktop/GD32VW553/V1_MQTT_OK/GD32VW55X_Wifi_BLE_SDK/GD32VW55x_RELEASE_V1.0.2/MSDK/cloud/alicloud/src/services/dev_bind\awss_notify.c **** 
 202:C:/Users/stapi/OneDrive/Desktop/GD32VW553/V1_MQTT_OK/GD32VW55X_Wifi_BLE_SDK/GD32VW55x_RELEASE_V1.0.2/MSDK/cloud/alicloud/src/services/dev_bind\awss_notify.c ****             method = notify_map[i].notify_method;
 203:C:/Users/stapi/OneDrive/Desktop/GD32VW553/V1_MQTT_OK/GD32VW55X_Wifi_BLE_SDK/GD32VW55x_RELEASE_V1.0.2/MSDK/cloud/alicloud/src/services/dev_bind\awss_notify.c ****             topic = notify_map[i].notify_topic;
 204:C:/Users/stapi/OneDrive/Desktop/GD32VW553/V1_MQTT_OK/GD32VW55X_Wifi_BLE_SDK/GD32VW55x_RELEASE_V1.0.2/MSDK/cloud/alicloud/src/services/dev_bind\awss_notify.c ****             cb = notify_map[i].cb;
 205:C:/Users/stapi/OneDrive/Desktop/GD32VW553/V1_MQTT_OK/GD32VW55X_Wifi_BLE_SDK/GD32VW55x_RELEASE_V1.0.2/MSDK/cloud/alicloud/src/services/dev_bind\awss_notify.c ****             break;
 206:C:/Users/stapi/OneDrive/Desktop/GD32VW553/V1_MQTT_OK/GD32VW55X_Wifi_BLE_SDK/GD32VW55x_RELEASE_V1.0.2/MSDK/cloud/alicloud/src/services/dev_bind\awss_notify.c ****         }
 207:C:/Users/stapi/OneDrive/Desktop/GD32VW553/V1_MQTT_OK/GD32VW55X_Wifi_BLE_SDK/GD32VW55x_RELEASE_V1.0.2/MSDK/cloud/alicloud/src/services/dev_bind\awss_notify.c ****         if (method == NULL || topic == NULL) {
 208:C:/Users/stapi/OneDrive/Desktop/GD32VW553/V1_MQTT_OK/GD32VW55X_Wifi_BLE_SDK/GD32VW55x_RELEASE_V1.0.2/MSDK/cloud/alicloud/src/services/dev_bind\awss_notify.c ****             awss_err("params invalid");
 209:C:/Users/stapi/OneDrive/Desktop/GD32VW553/V1_MQTT_OK/GD32VW55X_Wifi_BLE_SDK/GD32VW55x_RELEASE_V1.0.2/MSDK/cloud/alicloud/src/services/dev_bind\awss_notify.c ****             break;
 210:C:/Users/stapi/OneDrive/Desktop/GD32VW553/V1_MQTT_OK/GD32VW55X_Wifi_BLE_SDK/GD32VW55x_RELEASE_V1.0.2/MSDK/cloud/alicloud/src/services/dev_bind\awss_notify.c ****         }
 211:C:/Users/stapi/OneDrive/Desktop/GD32VW553/V1_MQTT_OK/GD32VW55X_Wifi_BLE_SDK/GD32VW55x_RELEASE_V1.0.2/MSDK/cloud/alicloud/src/services/dev_bind\awss_notify.c **** 
 212:C:/Users/stapi/OneDrive/Desktop/GD32VW553/V1_MQTT_OK/GD32VW55X_Wifi_BLE_SDK/GD32VW55x_RELEASE_V1.0.2/MSDK/cloud/alicloud/src/services/dev_bind\awss_notify.c ****         buf = os_zalloc(DEV_INFO_LEN_MAX);
 213:C:/Users/stapi/OneDrive/Desktop/GD32VW553/V1_MQTT_OK/GD32VW55X_Wifi_BLE_SDK/GD32VW55x_RELEASE_V1.0.2/MSDK/cloud/alicloud/src/services/dev_bind\awss_notify.c ****         dev_info = os_zalloc(DEV_INFO_LEN_MAX);
 214:C:/Users/stapi/OneDrive/Desktop/GD32VW553/V1_MQTT_OK/GD32VW55X_Wifi_BLE_SDK/GD32VW55x_RELEASE_V1.0.2/MSDK/cloud/alicloud/src/services/dev_bind\awss_notify.c ****         if (buf == NULL || dev_info == NULL) {
 215:C:/Users/stapi/OneDrive/Desktop/GD32VW553/V1_MQTT_OK/GD32VW55X_Wifi_BLE_SDK/GD32VW55x_RELEASE_V1.0.2/MSDK/cloud/alicloud/src/services/dev_bind\awss_notify.c ****             awss_err("alloc mem fail");
 216:C:/Users/stapi/OneDrive/Desktop/GD32VW553/V1_MQTT_OK/GD32VW55X_Wifi_BLE_SDK/GD32VW55x_RELEASE_V1.0.2/MSDK/cloud/alicloud/src/services/dev_bind\awss_notify.c ****             break;
 217:C:/Users/stapi/OneDrive/Desktop/GD32VW553/V1_MQTT_OK/GD32VW55X_Wifi_BLE_SDK/GD32VW55x_RELEASE_V1.0.2/MSDK/cloud/alicloud/src/services/dev_bind\awss_notify.c ****         }
 218:C:/Users/stapi/OneDrive/Desktop/GD32VW553/V1_MQTT_OK/GD32VW55X_Wifi_BLE_SDK/GD32VW55x_RELEASE_V1.0.2/MSDK/cloud/alicloud/src/services/dev_bind\awss_notify.c **** 
 219:C:/Users/stapi/OneDrive/Desktop/GD32VW553/V1_MQTT_OK/GD32VW55X_Wifi_BLE_SDK/GD32VW55x_RELEASE_V1.0.2/MSDK/cloud/alicloud/src/services/dev_bind\awss_notify.c ****         memset(&notify_sa, 0, sizeof(notify_sa));
 220:C:/Users/stapi/OneDrive/Desktop/GD32VW553/V1_MQTT_OK/GD32VW55X_Wifi_BLE_SDK/GD32VW55x_RELEASE_V1.0.2/MSDK/cloud/alicloud/src/services/dev_bind\awss_notify.c ****         memcpy(notify_sa.host, AWSS_NOTIFY_HOST, strlen(AWSS_NOTIFY_HOST));
 221:C:/Users/stapi/OneDrive/Desktop/GD32VW553/V1_MQTT_OK/GD32VW55X_Wifi_BLE_SDK/GD32VW55x_RELEASE_V1.0.2/MSDK/cloud/alicloud/src/services/dev_bind\awss_notify.c ****         notify_sa.port = AWSS_NOTIFY_PORT;
 222:C:/Users/stapi/OneDrive/Desktop/GD32VW553/V1_MQTT_OK/GD32VW55X_Wifi_BLE_SDK/GD32VW55x_RELEASE_V1.0.2/MSDK/cloud/alicloud/src/services/dev_bind\awss_notify.c **** 
 223:C:/Users/stapi/OneDrive/Desktop/GD32VW553/V1_MQTT_OK/GD32VW55X_Wifi_BLE_SDK/GD32VW55x_RELEASE_V1.0.2/MSDK/cloud/alicloud/src/services/dev_bind\awss_notify.c ****         awss_build_dev_info(type, dev_info, DEV_INFO_LEN_MAX);
 224:C:/Users/stapi/OneDrive/Desktop/GD32VW553/V1_MQTT_OK/GD32VW55X_Wifi_BLE_SDK/GD32VW55x_RELEASE_V1.0.2/MSDK/cloud/alicloud/src/services/dev_bind\awss_notify.c **** 
 225:C:/Users/stapi/OneDrive/Desktop/GD32VW553/V1_MQTT_OK/GD32VW55X_Wifi_BLE_SDK/GD32VW55x_RELEASE_V1.0.2/MSDK/cloud/alicloud/src/services/dev_bind\awss_notify.c ****         snprintf(buf, DEV_INFO_LEN_MAX - 1, AWSS_DEV_NOTIFY_FMT, ++ g_notify_id, method, dev_info);
 226:C:/Users/stapi/OneDrive/Desktop/GD32VW553/V1_MQTT_OK/GD32VW55X_Wifi_BLE_SDK/GD32VW55x_RELEASE_V1.0.2/MSDK/cloud/alicloud/src/services/dev_bind\awss_notify.c ****         utils_hex_to_str(g_aes_random, RANDOM_MAX_LEN, rand_str, sizeof(rand_str));
 227:C:/Users/stapi/OneDrive/Desktop/GD32VW553/V1_MQTT_OK/GD32VW55X_Wifi_BLE_SDK/GD32VW55x_RELEASE_V1.0.2/MSDK/cloud/alicloud/src/services/dev_bind\awss_notify.c ****         if (type == AWSS_NOTIFY_SUCCESS) {
 228:C:/Users/stapi/OneDrive/Desktop/GD32VW553/V1_MQTT_OK/GD32VW55X_Wifi_BLE_SDK/GD32VW55x_RELEASE_V1.0.2/MSDK/cloud/alicloud/src/services/dev_bind\awss_notify.c ****             dump_awss_status(STATE_WIFI_SENT_CONNECTAP_NOTIFY, "connect ap notify");
 229:C:/Users/stapi/OneDrive/Desktop/GD32VW553/V1_MQTT_OK/GD32VW55X_Wifi_BLE_SDK/GD32VW55x_RELEASE_V1.0.2/MSDK/cloud/alicloud/src/services/dev_bind\awss_notify.c ****         } else if (type == AWSS_NOTIFY_DEV_RAND_SIGN) {
 230:C:/Users/stapi/OneDrive/Desktop/GD32VW553/V1_MQTT_OK/GD32VW55X_Wifi_BLE_SDK/GD32VW55x_RELEASE_V1.0.2/MSDK/cloud/alicloud/src/services/dev_bind\awss_notify.c **** 
 231:C:/Users/stapi/OneDrive/Desktop/GD32VW553/V1_MQTT_OK/GD32VW55X_Wifi_BLE_SDK/GD32VW55x_RELEASE_V1.0.2/MSDK/cloud/alicloud/src/services/dev_bind\awss_notify.c ****         }
 232:C:/Users/stapi/OneDrive/Desktop/GD32VW553/V1_MQTT_OK/GD32VW55X_Wifi_BLE_SDK/GD32VW55x_RELEASE_V1.0.2/MSDK/cloud/alicloud/src/services/dev_bind\awss_notify.c ****         awss_info("topic:%s\n", topic);
 233:C:/Users/stapi/OneDrive/Desktop/GD32VW553/V1_MQTT_OK/GD32VW55X_Wifi_BLE_SDK/GD32VW55x_RELEASE_V1.0.2/MSDK/cloud/alicloud/src/services/dev_bind\awss_notify.c ****         awss_debug("payload:%s\n", buf);
 234:C:/Users/stapi/OneDrive/Desktop/GD32VW553/V1_MQTT_OK/GD32VW55X_Wifi_BLE_SDK/GD32VW55x_RELEASE_V1.0.2/MSDK/cloud/alicloud/src/services/dev_bind\awss_notify.c ****         for (i = 0; i < count; i ++) {
 235:C:/Users/stapi/OneDrive/Desktop/GD32VW553/V1_MQTT_OK/GD32VW55X_Wifi_BLE_SDK/GD32VW55x_RELEASE_V1.0.2/MSDK/cloud/alicloud/src/services/dev_bind\awss_notify.c ****             int ret = awss_cmp_coap_send(buf, strlen(buf), &notify_sa, topic, cb, &g_notify_msg_id[
 236:C:/Users/stapi/OneDrive/Desktop/GD32VW553/V1_MQTT_OK/GD32VW55X_Wifi_BLE_SDK/GD32VW55x_RELEASE_V1.0.2/MSDK/cloud/alicloud/src/services/dev_bind\awss_notify.c ****             awss_info("coap send notify %s", ret == 0 ? "success" : "fail");
 237:C:/Users/stapi/OneDrive/Desktop/GD32VW553/V1_MQTT_OK/GD32VW55X_Wifi_BLE_SDK/GD32VW55x_RELEASE_V1.0.2/MSDK/cloud/alicloud/src/services/dev_bind\awss_notify.c ****             if (count > 1)
 238:C:/Users/stapi/OneDrive/Desktop/GD32VW553/V1_MQTT_OK/GD32VW55X_Wifi_BLE_SDK/GD32VW55x_RELEASE_V1.0.2/MSDK/cloud/alicloud/src/services/dev_bind\awss_notify.c ****                 os_msleep(200 + 100 * i);
 239:C:/Users/stapi/OneDrive/Desktop/GD32VW553/V1_MQTT_OK/GD32VW55X_Wifi_BLE_SDK/GD32VW55x_RELEASE_V1.0.2/MSDK/cloud/alicloud/src/services/dev_bind\awss_notify.c **** 
 240:C:/Users/stapi/OneDrive/Desktop/GD32VW553/V1_MQTT_OK/GD32VW55X_Wifi_BLE_SDK/GD32VW55x_RELEASE_V1.0.2/MSDK/cloud/alicloud/src/services/dev_bind\awss_notify.c ****             if (awss_notify_resp[type])
 241:C:/Users/stapi/OneDrive/Desktop/GD32VW553/V1_MQTT_OK/GD32VW55X_Wifi_BLE_SDK/GD32VW55x_RELEASE_V1.0.2/MSDK/cloud/alicloud/src/services/dev_bind\awss_notify.c ****                 break;
 242:C:/Users/stapi/OneDrive/Desktop/GD32VW553/V1_MQTT_OK/GD32VW55X_Wifi_BLE_SDK/GD32VW55x_RELEASE_V1.0.2/MSDK/cloud/alicloud/src/services/dev_bind\awss_notify.c ****         }
 243:C:/Users/stapi/OneDrive/Desktop/GD32VW553/V1_MQTT_OK/GD32VW55X_Wifi_BLE_SDK/GD32VW55x_RELEASE_V1.0.2/MSDK/cloud/alicloud/src/services/dev_bind\awss_notify.c ****     } while (0);
 244:C:/Users/stapi/OneDrive/Desktop/GD32VW553/V1_MQTT_OK/GD32VW55X_Wifi_BLE_SDK/GD32VW55x_RELEASE_V1.0.2/MSDK/cloud/alicloud/src/services/dev_bind\awss_notify.c **** 
 245:C:/Users/stapi/OneDrive/Desktop/GD32VW553/V1_MQTT_OK/GD32VW55X_Wifi_BLE_SDK/GD32VW55x_RELEASE_V1.0.2/MSDK/cloud/alicloud/src/services/dev_bind\awss_notify.c ****     if (buf) {
 246:C:/Users/stapi/OneDrive/Desktop/GD32VW553/V1_MQTT_OK/GD32VW55X_Wifi_BLE_SDK/GD32VW55x_RELEASE_V1.0.2/MSDK/cloud/alicloud/src/services/dev_bind\awss_notify.c ****         os_free(buf);
 247:C:/Users/stapi/OneDrive/Desktop/GD32VW553/V1_MQTT_OK/GD32VW55X_Wifi_BLE_SDK/GD32VW55x_RELEASE_V1.0.2/MSDK/cloud/alicloud/src/services/dev_bind\awss_notify.c ****     }
 248:C:/Users/stapi/OneDrive/Desktop/GD32VW553/V1_MQTT_OK/GD32VW55X_Wifi_BLE_SDK/GD32VW55x_RELEASE_V1.0.2/MSDK/cloud/alicloud/src/services/dev_bind\awss_notify.c ****     if (dev_info) {
 249:C:/Users/stapi/OneDrive/Desktop/GD32VW553/V1_MQTT_OK/GD32VW55X_Wifi_BLE_SDK/GD32VW55x_RELEASE_V1.0.2/MSDK/cloud/alicloud/src/services/dev_bind\awss_notify.c ****         os_free(dev_info);
 250:C:/Users/stapi/OneDrive/Desktop/GD32VW553/V1_MQTT_OK/GD32VW55X_Wifi_BLE_SDK/GD32VW55x_RELEASE_V1.0.2/MSDK/cloud/alicloud/src/services/dev_bind\awss_notify.c ****     }
 251:C:/Users/stapi/OneDrive/Desktop/GD32VW553/V1_MQTT_OK/GD32VW55X_Wifi_BLE_SDK/GD32VW55x_RELEASE_V1.0.2/MSDK/cloud/alicloud/src/services/dev_bind\awss_notify.c **** 
 252:C:/Users/stapi/OneDrive/Desktop/GD32VW553/V1_MQTT_OK/GD32VW55X_Wifi_BLE_SDK/GD32VW55x_RELEASE_V1.0.2/MSDK/cloud/alicloud/src/services/dev_bind\awss_notify.c ****     return awss_notify_resp[type];
 253:C:/Users/stapi/OneDrive/Desktop/GD32VW553/V1_MQTT_OK/GD32VW55X_Wifi_BLE_SDK/GD32VW55x_RELEASE_V1.0.2/MSDK/cloud/alicloud/src/services/dev_bind\awss_notify.c **** }
 254:C:/Users/stapi/OneDrive/Desktop/GD32VW553/V1_MQTT_OK/GD32VW55X_Wifi_BLE_SDK/GD32VW55x_RELEASE_V1.0.2/MSDK/cloud/alicloud/src/services/dev_bind\awss_notify.c **** 
 255:C:/Users/stapi/OneDrive/Desktop/GD32VW553/V1_MQTT_OK/GD32VW55X_Wifi_BLE_SDK/GD32VW55x_RELEASE_V1.0.2/MSDK/cloud/alicloud/src/services/dev_bind\awss_notify.c **** #define AWSS_NOTIFY_CNT_MAX (30)
 256:C:/Users/stapi/OneDrive/Desktop/GD32VW553/V1_MQTT_OK/GD32VW55X_Wifi_BLE_SDK/GD32VW55x_RELEASE_V1.0.2/MSDK/cloud/alicloud/src/services/dev_bind\awss_notify.c **** 
 257:C:/Users/stapi/OneDrive/Desktop/GD32VW553/V1_MQTT_OK/GD32VW55X_Wifi_BLE_SDK/GD32VW55x_RELEASE_V1.0.2/MSDK/cloud/alicloud/src/services/dev_bind\awss_notify.c **** static void *coap_session_ctx = NULL;
 258:C:/Users/stapi/OneDrive/Desktop/GD32VW553/V1_MQTT_OK/GD32VW55X_Wifi_BLE_SDK/GD32VW55x_RELEASE_V1.0.2/MSDK/cloud/alicloud/src/services/dev_bind\awss_notify.c **** 
 259:C:/Users/stapi/OneDrive/Desktop/GD32VW553/V1_MQTT_OK/GD32VW55X_Wifi_BLE_SDK/GD32VW55x_RELEASE_V1.0.2/MSDK/cloud/alicloud/src/services/dev_bind\awss_notify.c **** static int awss_process_get_devinfo()
 260:C:/Users/stapi/OneDrive/Desktop/GD32VW553/V1_MQTT_OK/GD32VW55X_Wifi_BLE_SDK/GD32VW55x_RELEASE_V1.0.2/MSDK/cloud/alicloud/src/services/dev_bind\awss_notify.c **** {
 261:C:/Users/stapi/OneDrive/Desktop/GD32VW553/V1_MQTT_OK/GD32VW55X_Wifi_BLE_SDK/GD32VW55x_RELEASE_V1.0.2/MSDK/cloud/alicloud/src/services/dev_bind\awss_notify.c ****     char *buf = NULL;
 262:C:/Users/stapi/OneDrive/Desktop/GD32VW553/V1_MQTT_OK/GD32VW55X_Wifi_BLE_SDK/GD32VW55x_RELEASE_V1.0.2/MSDK/cloud/alicloud/src/services/dev_bind\awss_notify.c ****     char *dev_info = NULL;
 263:C:/Users/stapi/OneDrive/Desktop/GD32VW553/V1_MQTT_OK/GD32VW55X_Wifi_BLE_SDK/GD32VW55x_RELEASE_V1.0.2/MSDK/cloud/alicloud/src/services/dev_bind\awss_notify.c ****     int ret;
 264:C:/Users/stapi/OneDrive/Desktop/GD32VW553/V1_MQTT_OK/GD32VW55X_Wifi_BLE_SDK/GD32VW55x_RELEASE_V1.0.2/MSDK/cloud/alicloud/src/services/dev_bind\awss_notify.c ****     if (awss_report_token_suc == 0) {
 265:C:/Users/stapi/OneDrive/Desktop/GD32VW553/V1_MQTT_OK/GD32VW55X_Wifi_BLE_SDK/GD32VW55x_RELEASE_V1.0.2/MSDK/cloud/alicloud/src/services/dev_bind\awss_notify.c ****         awss_debug("try to report token to cloud");
 266:C:/Users/stapi/OneDrive/Desktop/GD32VW553/V1_MQTT_OK/GD32VW55X_Wifi_BLE_SDK/GD32VW55x_RELEASE_V1.0.2/MSDK/cloud/alicloud/src/services/dev_bind\awss_notify.c ****         HAL_Timer_Start(get_devinfo_timer, AWSS_CHECK_RESP_TIME);
 267:C:/Users/stapi/OneDrive/Desktop/GD32VW553/V1_MQTT_OK/GD32VW55X_Wifi_BLE_SDK/GD32VW55x_RELEASE_V1.0.2/MSDK/cloud/alicloud/src/services/dev_bind\awss_notify.c ****         return 0;
 268:C:/Users/stapi/OneDrive/Desktop/GD32VW553/V1_MQTT_OK/GD32VW55X_Wifi_BLE_SDK/GD32VW55x_RELEASE_V1.0.2/MSDK/cloud/alicloud/src/services/dev_bind\awss_notify.c ****     }
 269:C:/Users/stapi/OneDrive/Desktop/GD32VW553/V1_MQTT_OK/GD32VW55X_Wifi_BLE_SDK/GD32VW55x_RELEASE_V1.0.2/MSDK/cloud/alicloud/src/services/dev_bind\awss_notify.c **** 
 270:C:/Users/stapi/OneDrive/Desktop/GD32VW553/V1_MQTT_OK/GD32VW55X_Wifi_BLE_SDK/GD32VW55x_RELEASE_V1.0.2/MSDK/cloud/alicloud/src/services/dev_bind\awss_notify.c ****     if (coap_session_ctx == NULL) {
 271:C:/Users/stapi/OneDrive/Desktop/GD32VW553/V1_MQTT_OK/GD32VW55X_Wifi_BLE_SDK/GD32VW55x_RELEASE_V1.0.2/MSDK/cloud/alicloud/src/services/dev_bind\awss_notify.c ****         awss_debug("no get req");
 272:C:/Users/stapi/OneDrive/Desktop/GD32VW553/V1_MQTT_OK/GD32VW55X_Wifi_BLE_SDK/GD32VW55x_RELEASE_V1.0.2/MSDK/cloud/alicloud/src/services/dev_bind\awss_notify.c ****         return STATE_USER_INPUT_NULL_POINTER;
 273:C:/Users/stapi/OneDrive/Desktop/GD32VW553/V1_MQTT_OK/GD32VW55X_Wifi_BLE_SDK/GD32VW55x_RELEASE_V1.0.2/MSDK/cloud/alicloud/src/services/dev_bind\awss_notify.c ****     }
 274:C:/Users/stapi/OneDrive/Desktop/GD32VW553/V1_MQTT_OK/GD32VW55X_Wifi_BLE_SDK/GD32VW55x_RELEASE_V1.0.2/MSDK/cloud/alicloud/src/services/dev_bind\awss_notify.c **** 
 275:C:/Users/stapi/OneDrive/Desktop/GD32VW553/V1_MQTT_OK/GD32VW55X_Wifi_BLE_SDK/GD32VW55x_RELEASE_V1.0.2/MSDK/cloud/alicloud/src/services/dev_bind\awss_notify.c ****     do {
 276:C:/Users/stapi/OneDrive/Desktop/GD32VW553/V1_MQTT_OK/GD32VW55X_Wifi_BLE_SDK/GD32VW55x_RELEASE_V1.0.2/MSDK/cloud/alicloud/src/services/dev_bind\awss_notify.c ****         int len = 0, id_len = 0;
 277:C:/Users/stapi/OneDrive/Desktop/GD32VW553/V1_MQTT_OK/GD32VW55X_Wifi_BLE_SDK/GD32VW55x_RELEASE_V1.0.2/MSDK/cloud/alicloud/src/services/dev_bind\awss_notify.c ****         char *msg = NULL, *id = NULL;
 278:C:/Users/stapi/OneDrive/Desktop/GD32VW553/V1_MQTT_OK/GD32VW55X_Wifi_BLE_SDK/GD32VW55x_RELEASE_V1.0.2/MSDK/cloud/alicloud/src/services/dev_bind\awss_notify.c ****         char req_msg_id[MSG_REQ_ID_LEN + 1];
 279:C:/Users/stapi/OneDrive/Desktop/GD32VW553/V1_MQTT_OK/GD32VW55X_Wifi_BLE_SDK/GD32VW55x_RELEASE_V1.0.2/MSDK/cloud/alicloud/src/services/dev_bind\awss_notify.c ****         char rand_str[RANDOM_MAX_LEN * 2 + 1] = {0};
 280:C:/Users/stapi/OneDrive/Desktop/GD32VW553/V1_MQTT_OK/GD32VW55X_Wifi_BLE_SDK/GD32VW55x_RELEASE_V1.0.2/MSDK/cloud/alicloud/src/services/dev_bind\awss_notify.c ****         struct coap_session_ctx_t *ctx = (struct coap_session_ctx_t *)coap_session_ctx;
 281:C:/Users/stapi/OneDrive/Desktop/GD32VW553/V1_MQTT_OK/GD32VW55X_Wifi_BLE_SDK/GD32VW55x_RELEASE_V1.0.2/MSDK/cloud/alicloud/src/services/dev_bind\awss_notify.c **** 
 282:C:/Users/stapi/OneDrive/Desktop/GD32VW553/V1_MQTT_OK/GD32VW55X_Wifi_BLE_SDK/GD32VW55x_RELEASE_V1.0.2/MSDK/cloud/alicloud/src/services/dev_bind\awss_notify.c ****         buf = os_zalloc(DEV_INFO_LEN_MAX);
 283:C:/Users/stapi/OneDrive/Desktop/GD32VW553/V1_MQTT_OK/GD32VW55X_Wifi_BLE_SDK/GD32VW55x_RELEASE_V1.0.2/MSDK/cloud/alicloud/src/services/dev_bind\awss_notify.c ****         if (buf == NULL) {
 284:C:/Users/stapi/OneDrive/Desktop/GD32VW553/V1_MQTT_OK/GD32VW55X_Wifi_BLE_SDK/GD32VW55x_RELEASE_V1.0.2/MSDK/cloud/alicloud/src/services/dev_bind\awss_notify.c ****             ret = STATE_SYS_DEPEND_MALLOC;
 285:C:/Users/stapi/OneDrive/Desktop/GD32VW553/V1_MQTT_OK/GD32VW55X_Wifi_BLE_SDK/GD32VW55x_RELEASE_V1.0.2/MSDK/cloud/alicloud/src/services/dev_bind\awss_notify.c ****             goto GET_DEV_INFO_ERR;
 286:C:/Users/stapi/OneDrive/Desktop/GD32VW553/V1_MQTT_OK/GD32VW55X_Wifi_BLE_SDK/GD32VW55x_RELEASE_V1.0.2/MSDK/cloud/alicloud/src/services/dev_bind\awss_notify.c ****         }
 287:C:/Users/stapi/OneDrive/Desktop/GD32VW553/V1_MQTT_OK/GD32VW55X_Wifi_BLE_SDK/GD32VW55x_RELEASE_V1.0.2/MSDK/cloud/alicloud/src/services/dev_bind\awss_notify.c ****         dev_info = os_zalloc(DEV_INFO_LEN_MAX);
 288:C:/Users/stapi/OneDrive/Desktop/GD32VW553/V1_MQTT_OK/GD32VW55X_Wifi_BLE_SDK/GD32VW55x_RELEASE_V1.0.2/MSDK/cloud/alicloud/src/services/dev_bind\awss_notify.c ****         if (dev_info == NULL) {
 289:C:/Users/stapi/OneDrive/Desktop/GD32VW553/V1_MQTT_OK/GD32VW55X_Wifi_BLE_SDK/GD32VW55x_RELEASE_V1.0.2/MSDK/cloud/alicloud/src/services/dev_bind\awss_notify.c ****             ret = STATE_SYS_DEPEND_MALLOC;
 290:C:/Users/stapi/OneDrive/Desktop/GD32VW553/V1_MQTT_OK/GD32VW55X_Wifi_BLE_SDK/GD32VW55x_RELEASE_V1.0.2/MSDK/cloud/alicloud/src/services/dev_bind\awss_notify.c ****             goto GET_DEV_INFO_ERR;
 291:C:/Users/stapi/OneDrive/Desktop/GD32VW553/V1_MQTT_OK/GD32VW55X_Wifi_BLE_SDK/GD32VW55x_RELEASE_V1.0.2/MSDK/cloud/alicloud/src/services/dev_bind\awss_notify.c ****         }
 292:C:/Users/stapi/OneDrive/Desktop/GD32VW553/V1_MQTT_OK/GD32VW55X_Wifi_BLE_SDK/GD32VW55x_RELEASE_V1.0.2/MSDK/cloud/alicloud/src/services/dev_bind\awss_notify.c ****         msg = awss_cmp_get_coap_payload(ctx->request, &len);
 293:C:/Users/stapi/OneDrive/Desktop/GD32VW553/V1_MQTT_OK/GD32VW55X_Wifi_BLE_SDK/GD32VW55x_RELEASE_V1.0.2/MSDK/cloud/alicloud/src/services/dev_bind\awss_notify.c ****         if (msg == NULL) {
 294:C:/Users/stapi/OneDrive/Desktop/GD32VW553/V1_MQTT_OK/GD32VW55X_Wifi_BLE_SDK/GD32VW55x_RELEASE_V1.0.2/MSDK/cloud/alicloud/src/services/dev_bind\awss_notify.c ****             ret = STATE_BIND_COAP_MSG_INVALID;
 295:C:/Users/stapi/OneDrive/Desktop/GD32VW553/V1_MQTT_OK/GD32VW55X_Wifi_BLE_SDK/GD32VW55x_RELEASE_V1.0.2/MSDK/cloud/alicloud/src/services/dev_bind\awss_notify.c ****             goto GET_DEV_INFO_ERR;
 296:C:/Users/stapi/OneDrive/Desktop/GD32VW553/V1_MQTT_OK/GD32VW55X_Wifi_BLE_SDK/GD32VW55x_RELEASE_V1.0.2/MSDK/cloud/alicloud/src/services/dev_bind\awss_notify.c ****         }
 297:C:/Users/stapi/OneDrive/Desktop/GD32VW553/V1_MQTT_OK/GD32VW55X_Wifi_BLE_SDK/GD32VW55x_RELEASE_V1.0.2/MSDK/cloud/alicloud/src/services/dev_bind\awss_notify.c **** 
 298:C:/Users/stapi/OneDrive/Desktop/GD32VW553/V1_MQTT_OK/GD32VW55X_Wifi_BLE_SDK/GD32VW55x_RELEASE_V1.0.2/MSDK/cloud/alicloud/src/services/dev_bind\awss_notify.c ****         id = json_get_value_by_name(msg, len, "id", &id_len, 0);
 299:C:/Users/stapi/OneDrive/Desktop/GD32VW553/V1_MQTT_OK/GD32VW55X_Wifi_BLE_SDK/GD32VW55x_RELEASE_V1.0.2/MSDK/cloud/alicloud/src/services/dev_bind\awss_notify.c ****         if (id_len > MSG_REQ_ID_LEN) {
 300:C:/Users/stapi/OneDrive/Desktop/GD32VW553/V1_MQTT_OK/GD32VW55X_Wifi_BLE_SDK/GD32VW55x_RELEASE_V1.0.2/MSDK/cloud/alicloud/src/services/dev_bind\awss_notify.c ****             ret = STATE_BIND_COAP_MSG_INVALID;
 301:C:/Users/stapi/OneDrive/Desktop/GD32VW553/V1_MQTT_OK/GD32VW55X_Wifi_BLE_SDK/GD32VW55x_RELEASE_V1.0.2/MSDK/cloud/alicloud/src/services/dev_bind\awss_notify.c ****             goto GET_DEV_INFO_ERR;
 302:C:/Users/stapi/OneDrive/Desktop/GD32VW553/V1_MQTT_OK/GD32VW55X_Wifi_BLE_SDK/GD32VW55x_RELEASE_V1.0.2/MSDK/cloud/alicloud/src/services/dev_bind\awss_notify.c ****         }
 303:C:/Users/stapi/OneDrive/Desktop/GD32VW553/V1_MQTT_OK/GD32VW55X_Wifi_BLE_SDK/GD32VW55x_RELEASE_V1.0.2/MSDK/cloud/alicloud/src/services/dev_bind\awss_notify.c **** 
 304:C:/Users/stapi/OneDrive/Desktop/GD32VW553/V1_MQTT_OK/GD32VW55X_Wifi_BLE_SDK/GD32VW55x_RELEASE_V1.0.2/MSDK/cloud/alicloud/src/services/dev_bind\awss_notify.c ****         memset(req_msg_id, 0, sizeof(req_msg_id));
 305:C:/Users/stapi/OneDrive/Desktop/GD32VW553/V1_MQTT_OK/GD32VW55X_Wifi_BLE_SDK/GD32VW55x_RELEASE_V1.0.2/MSDK/cloud/alicloud/src/services/dev_bind\awss_notify.c ****         memcpy(req_msg_id, id, id_len);
 306:C:/Users/stapi/OneDrive/Desktop/GD32VW553/V1_MQTT_OK/GD32VW55X_Wifi_BLE_SDK/GD32VW55x_RELEASE_V1.0.2/MSDK/cloud/alicloud/src/services/dev_bind\awss_notify.c **** 
 307:C:/Users/stapi/OneDrive/Desktop/GD32VW553/V1_MQTT_OK/GD32VW55X_Wifi_BLE_SDK/GD32VW55x_RELEASE_V1.0.2/MSDK/cloud/alicloud/src/services/dev_bind\awss_notify.c ****         awss_build_dev_info(AWSS_NOTIFY_DEV_BIND_TOKEN, buf, DEV_INFO_LEN_MAX);
 308:C:/Users/stapi/OneDrive/Desktop/GD32VW553/V1_MQTT_OK/GD32VW55X_Wifi_BLE_SDK/GD32VW55x_RELEASE_V1.0.2/MSDK/cloud/alicloud/src/services/dev_bind\awss_notify.c ****         snprintf(dev_info, DEV_INFO_LEN_MAX - 1, "{%s}", buf);
 309:C:/Users/stapi/OneDrive/Desktop/GD32VW553/V1_MQTT_OK/GD32VW55X_Wifi_BLE_SDK/GD32VW55x_RELEASE_V1.0.2/MSDK/cloud/alicloud/src/services/dev_bind\awss_notify.c ****         memset(buf, 0x00, DEV_INFO_LEN_MAX);
 310:C:/Users/stapi/OneDrive/Desktop/GD32VW553/V1_MQTT_OK/GD32VW55X_Wifi_BLE_SDK/GD32VW55x_RELEASE_V1.0.2/MSDK/cloud/alicloud/src/services/dev_bind\awss_notify.c ****         snprintf(buf, DEV_INFO_LEN_MAX - 1, AWSS_ACK_FMT, req_msg_id, 200, dev_info);
 311:C:/Users/stapi/OneDrive/Desktop/GD32VW553/V1_MQTT_OK/GD32VW55X_Wifi_BLE_SDK/GD32VW55x_RELEASE_V1.0.2/MSDK/cloud/alicloud/src/services/dev_bind\awss_notify.c ****         os_free(dev_info);
 312:C:/Users/stapi/OneDrive/Desktop/GD32VW553/V1_MQTT_OK/GD32VW55X_Wifi_BLE_SDK/GD32VW55x_RELEASE_V1.0.2/MSDK/cloud/alicloud/src/services/dev_bind\awss_notify.c **** 
 313:C:/Users/stapi/OneDrive/Desktop/GD32VW553/V1_MQTT_OK/GD32VW55X_Wifi_BLE_SDK/GD32VW55x_RELEASE_V1.0.2/MSDK/cloud/alicloud/src/services/dev_bind\awss_notify.c ****         utils_hex_to_str(g_aes_random, RANDOM_MAX_LEN, rand_str, sizeof(rand_str));
 314:C:/Users/stapi/OneDrive/Desktop/GD32VW553/V1_MQTT_OK/GD32VW55X_Wifi_BLE_SDK/GD32VW55x_RELEASE_V1.0.2/MSDK/cloud/alicloud/src/services/dev_bind\awss_notify.c ****         dump_dev_bind_status(STATE_BIND_SENT_TOKEN_RESP, dev_info);
 315:C:/Users/stapi/OneDrive/Desktop/GD32VW553/V1_MQTT_OK/GD32VW55X_Wifi_BLE_SDK/GD32VW55x_RELEASE_V1.0.2/MSDK/cloud/alicloud/src/services/dev_bind\awss_notify.c ****         awss_info("sending message to app: %s", buf);
 316:C:/Users/stapi/OneDrive/Desktop/GD32VW553/V1_MQTT_OK/GD32VW55X_Wifi_BLE_SDK/GD32VW55x_RELEASE_V1.0.2/MSDK/cloud/alicloud/src/services/dev_bind\awss_notify.c ****         char topic[TOPIC_LEN_MAX] = { 0 };
 317:C:/Users/stapi/OneDrive/Desktop/GD32VW553/V1_MQTT_OK/GD32VW55X_Wifi_BLE_SDK/GD32VW55x_RELEASE_V1.0.2/MSDK/cloud/alicloud/src/services/dev_bind\awss_notify.c ****         if (ctx->is_mcast) {
 318:C:/Users/stapi/OneDrive/Desktop/GD32VW553/V1_MQTT_OK/GD32VW55X_Wifi_BLE_SDK/GD32VW55x_RELEASE_V1.0.2/MSDK/cloud/alicloud/src/services/dev_bind\awss_notify.c ****             awss_build_topic((const char *)TOPIC_GETDEVICEINFO_MCAST, topic, TOPIC_LEN_MAX);
 319:C:/Users/stapi/OneDrive/Desktop/GD32VW553/V1_MQTT_OK/GD32VW55X_Wifi_BLE_SDK/GD32VW55x_RELEASE_V1.0.2/MSDK/cloud/alicloud/src/services/dev_bind\awss_notify.c ****         } else {
 320:C:/Users/stapi/OneDrive/Desktop/GD32VW553/V1_MQTT_OK/GD32VW55X_Wifi_BLE_SDK/GD32VW55x_RELEASE_V1.0.2/MSDK/cloud/alicloud/src/services/dev_bind\awss_notify.c ****             awss_build_topic((const char *)TOPIC_GETDEVICEINFO_UCAST, topic, TOPIC_LEN_MAX);
 321:C:/Users/stapi/OneDrive/Desktop/GD32VW553/V1_MQTT_OK/GD32VW55X_Wifi_BLE_SDK/GD32VW55x_RELEASE_V1.0.2/MSDK/cloud/alicloud/src/services/dev_bind\awss_notify.c ****         }
 322:C:/Users/stapi/OneDrive/Desktop/GD32VW553/V1_MQTT_OK/GD32VW55X_Wifi_BLE_SDK/GD32VW55x_RELEASE_V1.0.2/MSDK/cloud/alicloud/src/services/dev_bind\awss_notify.c **** 
 323:C:/Users/stapi/OneDrive/Desktop/GD32VW553/V1_MQTT_OK/GD32VW55X_Wifi_BLE_SDK/GD32VW55x_RELEASE_V1.0.2/MSDK/cloud/alicloud/src/services/dev_bind\awss_notify.c ****         /*before tx to app, clear token suc flag*/
 324:C:/Users/stapi/OneDrive/Desktop/GD32VW553/V1_MQTT_OK/GD32VW55X_Wifi_BLE_SDK/GD32VW55x_RELEASE_V1.0.2/MSDK/cloud/alicloud/src/services/dev_bind\awss_notify.c ****         awss_update_token();
 325:C:/Users/stapi/OneDrive/Desktop/GD32VW553/V1_MQTT_OK/GD32VW55X_Wifi_BLE_SDK/GD32VW55x_RELEASE_V1.0.2/MSDK/cloud/alicloud/src/services/dev_bind\awss_notify.c **** 
 326:C:/Users/stapi/OneDrive/Desktop/GD32VW553/V1_MQTT_OK/GD32VW55X_Wifi_BLE_SDK/GD32VW55x_RELEASE_V1.0.2/MSDK/cloud/alicloud/src/services/dev_bind\awss_notify.c ****         if ((ret = awss_cmp_coap_send_resp(buf, strlen(buf), ctx->remote, topic, ctx->request, NULL
 327:C:/Users/stapi/OneDrive/Desktop/GD32VW553/V1_MQTT_OK/GD32VW55X_Wifi_BLE_SDK/GD32VW55x_RELEASE_V1.0.2/MSDK/cloud/alicloud/src/services/dev_bind\awss_notify.c ****             dump_dev_bind_status(STATE_BIND_APP_GET_TOKEN_RESP_FAIL, topic);
 328:C:/Users/stapi/OneDrive/Desktop/GD32VW553/V1_MQTT_OK/GD32VW55X_Wifi_BLE_SDK/GD32VW55x_RELEASE_V1.0.2/MSDK/cloud/alicloud/src/services/dev_bind\awss_notify.c ****             awss_err("sending failed.");
 329:C:/Users/stapi/OneDrive/Desktop/GD32VW553/V1_MQTT_OK/GD32VW55X_Wifi_BLE_SDK/GD32VW55x_RELEASE_V1.0.2/MSDK/cloud/alicloud/src/services/dev_bind\awss_notify.c ****         }
 330:C:/Users/stapi/OneDrive/Desktop/GD32VW553/V1_MQTT_OK/GD32VW55X_Wifi_BLE_SDK/GD32VW55x_RELEASE_V1.0.2/MSDK/cloud/alicloud/src/services/dev_bind\awss_notify.c **** 
 331:C:/Users/stapi/OneDrive/Desktop/GD32VW553/V1_MQTT_OK/GD32VW55X_Wifi_BLE_SDK/GD32VW55x_RELEASE_V1.0.2/MSDK/cloud/alicloud/src/services/dev_bind\awss_notify.c ****         os_free(buf);
 332:C:/Users/stapi/OneDrive/Desktop/GD32VW553/V1_MQTT_OK/GD32VW55X_Wifi_BLE_SDK/GD32VW55x_RELEASE_V1.0.2/MSDK/cloud/alicloud/src/services/dev_bind\awss_notify.c ****         awss_release_coap_ctx(coap_session_ctx);
 333:C:/Users/stapi/OneDrive/Desktop/GD32VW553/V1_MQTT_OK/GD32VW55X_Wifi_BLE_SDK/GD32VW55x_RELEASE_V1.0.2/MSDK/cloud/alicloud/src/services/dev_bind\awss_notify.c ****         coap_session_ctx = NULL;
 334:C:/Users/stapi/OneDrive/Desktop/GD32VW553/V1_MQTT_OK/GD32VW55X_Wifi_BLE_SDK/GD32VW55x_RELEASE_V1.0.2/MSDK/cloud/alicloud/src/services/dev_bind\awss_notify.c ****         awss_stop_timer(get_devinfo_timer);
 335:C:/Users/stapi/OneDrive/Desktop/GD32VW553/V1_MQTT_OK/GD32VW55X_Wifi_BLE_SDK/GD32VW55x_RELEASE_V1.0.2/MSDK/cloud/alicloud/src/services/dev_bind\awss_notify.c ****         get_devinfo_timer = NULL;
 336:C:/Users/stapi/OneDrive/Desktop/GD32VW553/V1_MQTT_OK/GD32VW55X_Wifi_BLE_SDK/GD32VW55x_RELEASE_V1.0.2/MSDK/cloud/alicloud/src/services/dev_bind\awss_notify.c ****     } while (0);
 337:C:/Users/stapi/OneDrive/Desktop/GD32VW553/V1_MQTT_OK/GD32VW55X_Wifi_BLE_SDK/GD32VW55x_RELEASE_V1.0.2/MSDK/cloud/alicloud/src/services/dev_bind\awss_notify.c **** 
 338:C:/Users/stapi/OneDrive/Desktop/GD32VW553/V1_MQTT_OK/GD32VW55X_Wifi_BLE_SDK/GD32VW55x_RELEASE_V1.0.2/MSDK/cloud/alicloud/src/services/dev_bind\awss_notify.c ****     return 0;
 339:C:/Users/stapi/OneDrive/Desktop/GD32VW553/V1_MQTT_OK/GD32VW55X_Wifi_BLE_SDK/GD32VW55x_RELEASE_V1.0.2/MSDK/cloud/alicloud/src/services/dev_bind\awss_notify.c **** 
 340:C:/Users/stapi/OneDrive/Desktop/GD32VW553/V1_MQTT_OK/GD32VW55X_Wifi_BLE_SDK/GD32VW55x_RELEASE_V1.0.2/MSDK/cloud/alicloud/src/services/dev_bind\awss_notify.c **** GET_DEV_INFO_ERR:
 341:C:/Users/stapi/OneDrive/Desktop/GD32VW553/V1_MQTT_OK/GD32VW55X_Wifi_BLE_SDK/GD32VW55x_RELEASE_V1.0.2/MSDK/cloud/alicloud/src/services/dev_bind\awss_notify.c ****     dump_dev_bind_status(STATE_BIND_APP_GET_TOKEN_RESP_FAIL, "get token response fail");
 342:C:/Users/stapi/OneDrive/Desktop/GD32VW553/V1_MQTT_OK/GD32VW55X_Wifi_BLE_SDK/GD32VW55x_RELEASE_V1.0.2/MSDK/cloud/alicloud/src/services/dev_bind\awss_notify.c ****     awss_release_coap_ctx(coap_session_ctx);
 343:C:/Users/stapi/OneDrive/Desktop/GD32VW553/V1_MQTT_OK/GD32VW55X_Wifi_BLE_SDK/GD32VW55x_RELEASE_V1.0.2/MSDK/cloud/alicloud/src/services/dev_bind\awss_notify.c ****     coap_session_ctx = NULL;
 344:C:/Users/stapi/OneDrive/Desktop/GD32VW553/V1_MQTT_OK/GD32VW55X_Wifi_BLE_SDK/GD32VW55x_RELEASE_V1.0.2/MSDK/cloud/alicloud/src/services/dev_bind\awss_notify.c ****     awss_stop_timer(get_devinfo_timer);
 345:C:/Users/stapi/OneDrive/Desktop/GD32VW553/V1_MQTT_OK/GD32VW55X_Wifi_BLE_SDK/GD32VW55x_RELEASE_V1.0.2/MSDK/cloud/alicloud/src/services/dev_bind\awss_notify.c ****     get_devinfo_timer = NULL;
 346:C:/Users/stapi/OneDrive/Desktop/GD32VW553/V1_MQTT_OK/GD32VW55X_Wifi_BLE_SDK/GD32VW55x_RELEASE_V1.0.2/MSDK/cloud/alicloud/src/services/dev_bind\awss_notify.c **** 
 347:C:/Users/stapi/OneDrive/Desktop/GD32VW553/V1_MQTT_OK/GD32VW55X_Wifi_BLE_SDK/GD32VW55x_RELEASE_V1.0.2/MSDK/cloud/alicloud/src/services/dev_bind\awss_notify.c ****     if (buf) {
 348:C:/Users/stapi/OneDrive/Desktop/GD32VW553/V1_MQTT_OK/GD32VW55X_Wifi_BLE_SDK/GD32VW55x_RELEASE_V1.0.2/MSDK/cloud/alicloud/src/services/dev_bind\awss_notify.c ****         os_free(buf);
 349:C:/Users/stapi/OneDrive/Desktop/GD32VW553/V1_MQTT_OK/GD32VW55X_Wifi_BLE_SDK/GD32VW55x_RELEASE_V1.0.2/MSDK/cloud/alicloud/src/services/dev_bind\awss_notify.c ****     }
 350:C:/Users/stapi/OneDrive/Desktop/GD32VW553/V1_MQTT_OK/GD32VW55X_Wifi_BLE_SDK/GD32VW55x_RELEASE_V1.0.2/MSDK/cloud/alicloud/src/services/dev_bind\awss_notify.c ****     if (dev_info) {
 351:C:/Users/stapi/OneDrive/Desktop/GD32VW553/V1_MQTT_OK/GD32VW55X_Wifi_BLE_SDK/GD32VW55x_RELEASE_V1.0.2/MSDK/cloud/alicloud/src/services/dev_bind\awss_notify.c ****         os_free(dev_info);
 352:C:/Users/stapi/OneDrive/Desktop/GD32VW553/V1_MQTT_OK/GD32VW55X_Wifi_BLE_SDK/GD32VW55x_RELEASE_V1.0.2/MSDK/cloud/alicloud/src/services/dev_bind\awss_notify.c ****     }
 353:C:/Users/stapi/OneDrive/Desktop/GD32VW553/V1_MQTT_OK/GD32VW55X_Wifi_BLE_SDK/GD32VW55x_RELEASE_V1.0.2/MSDK/cloud/alicloud/src/services/dev_bind\awss_notify.c **** 
 354:C:/Users/stapi/OneDrive/Desktop/GD32VW553/V1_MQTT_OK/GD32VW55X_Wifi_BLE_SDK/GD32VW55x_RELEASE_V1.0.2/MSDK/cloud/alicloud/src/services/dev_bind\awss_notify.c ****     return ret;
 355:C:/Users/stapi/OneDrive/Desktop/GD32VW553/V1_MQTT_OK/GD32VW55X_Wifi_BLE_SDK/GD32VW55x_RELEASE_V1.0.2/MSDK/cloud/alicloud/src/services/dev_bind\awss_notify.c **** }
 356:C:/Users/stapi/OneDrive/Desktop/GD32VW553/V1_MQTT_OK/GD32VW55X_Wifi_BLE_SDK/GD32VW55x_RELEASE_V1.0.2/MSDK/cloud/alicloud/src/services/dev_bind\awss_notify.c **** 
 357:C:/Users/stapi/OneDrive/Desktop/GD32VW553/V1_MQTT_OK/GD32VW55X_Wifi_BLE_SDK/GD32VW55x_RELEASE_V1.0.2/MSDK/cloud/alicloud/src/services/dev_bind\awss_notify.c **** static int online_get_device_info(void *ctx, void *resource, void *remote,
 411              		.loc 1 357 12 is_stmt 1
 412              		.cfi_startproc
 413              	.LVL52:
 414 0000 17030000 		call	t0,__riscv_save_6
 414      E7020300 
 415              		.cfi_offset 21, -28
 416              		.cfi_offset 20, -24
 417              		.cfi_offset 19, -20
 418              		.cfi_offset 18, -16
 419              		.cfi_offset 9, -12
 420              		.cfi_offset 8, -8
 421              		.cfi_offset 1, -4
 422              		.cfi_def_cfa_offset 32
 423              	.LVL53:
 358:C:/Users/stapi/OneDrive/Desktop/GD32VW553/V1_MQTT_OK/GD32VW55X_Wifi_BLE_SDK/GD32VW55x_RELEASE_V1.0.2/MSDK/cloud/alicloud/src/services/dev_bind\awss_notify.c ****                                   void *request, char is_mcast)
 359:C:/Users/stapi/OneDrive/Desktop/GD32VW553/V1_MQTT_OK/GD32VW55X_Wifi_BLE_SDK/GD32VW55x_RELEASE_V1.0.2/MSDK/cloud/alicloud/src/services/dev_bind\awss_notify.c **** {
 360:C:/Users/stapi/OneDrive/Desktop/GD32VW553/V1_MQTT_OK/GD32VW55X_Wifi_BLE_SDK/GD32VW55x_RELEASE_V1.0.2/MSDK/cloud/alicloud/src/services/dev_bind\awss_notify.c ****     int timeout = 0;
 424              		.loc 1 360 5
 361:C:/Users/stapi/OneDrive/Desktop/GD32VW553/V1_MQTT_OK/GD32VW55X_Wifi_BLE_SDK/GD32VW55x_RELEASE_V1.0.2/MSDK/cloud/alicloud/src/services/dev_bind\awss_notify.c ****     /*
 362:C:/Users/stapi/OneDrive/Desktop/GD32VW553/V1_MQTT_OK/GD32VW55X_Wifi_BLE_SDK/GD32VW55x_RELEASE_V1.0.2/MSDK/cloud/alicloud/src/services/dev_bind\awss_notify.c ****      * if cloud is not ready, don't response token
 363:C:/Users/stapi/OneDrive/Desktop/GD32VW553/V1_MQTT_OK/GD32VW55X_Wifi_BLE_SDK/GD32VW55x_RELEASE_V1.0.2/MSDK/cloud/alicloud/src/services/dev_bind\awss_notify.c ****      */
 364:C:/Users/stapi/OneDrive/Desktop/GD32VW553/V1_MQTT_OK/GD32VW55X_Wifi_BLE_SDK/GD32VW55x_RELEASE_V1.0.2/MSDK/cloud/alicloud/src/services/dev_bind\awss_notify.c ****     dump_dev_bind_status(STATE_BIND_RECV_TOKEN_QUERY, "recv token query");
 425              		.loc 1 364 5
 357:C:/Users/stapi/OneDrive/Desktop/GD32VW553/V1_MQTT_OK/GD32VW55X_Wifi_BLE_SDK/GD32VW55x_RELEASE_V1.0.2/MSDK/cloud/alicloud/src/services/dev_bind\awss_notify.c ****                                   void *request, char is_mcast)
 426              		.loc 1 357 12 is_stmt 0
 427 0008 B28A     		mv	s5,a2
 428              		.loc 1 364 5
 429 000a FD74     		li	s1,-4096
 430 000c 37060000 		lui	a2,%hi(.LC11)
 431              	.LVL54:
 357:C:/Users/stapi/OneDrive/Desktop/GD32VW553/V1_MQTT_OK/GD32VW55X_Wifi_BLE_SDK/GD32VW55x_RELEASE_V1.0.2/MSDK/cloud/alicloud/src/services/dev_bind\awss_notify.c ****                                   void *request, char is_mcast)
 432              		.loc 1 357 12
 433 0010 2A8A     		mv	s4,a0
 434 0012 AE89     		mv	s3,a1
 435              		.loc 1 364 5
 436 0014 13060600 		addi	a2,a2,%lo(.LC11)
 437 0018 9385A47F 		addi	a1,s1,2042
 438              	.LVL55:
 439 001c 7D45     		li	a0,31
 440              	.LVL56:
 441 001e 97000000 		call	iotx_state_event
 441      E7800000 
 442              	.LVL57:
 365:C:/Users/stapi/OneDrive/Desktop/GD32VW553/V1_MQTT_OK/GD32VW55X_Wifi_BLE_SDK/GD32VW55x_RELEASE_V1.0.2/MSDK/cloud/alicloud/src/services/dev_bind\awss_notify.c **** #ifdef DEVICE_MODEL_ENABLED
 366:C:/Users/stapi/OneDrive/Desktop/GD32VW553/V1_MQTT_OK/GD32VW55X_Wifi_BLE_SDK/GD32VW55x_RELEASE_V1.0.2/MSDK/cloud/alicloud/src/services/dev_bind\awss_notify.c ****     if (awss_check_reset(NULL)) {
 443              		.loc 1 366 5 is_stmt 1
 444              		.loc 1 366 9 is_stmt 0
 445 0026 0145     		li	a0,0
 446 0028 97000000 		call	awss_check_reset
 446      E7800000 
 447              	.LVL58:
 448              		.loc 1 366 8
 449 0030 1DC1     		beq	a0,zero,.L27
 367:C:/Users/stapi/OneDrive/Desktop/GD32VW553/V1_MQTT_OK/GD32VW55X_Wifi_BLE_SDK/GD32VW55x_RELEASE_V1.0.2/MSDK/cloud/alicloud/src/services/dev_bind\awss_notify.c ****         dump_dev_bind_status(STATE_BIND_RST_IN_PROGRESS, "need do reset");
 450              		.loc 1 367 9 is_stmt 1
 451 0032 37060000 		lui	a2,%hi(.LC12)
 452 0036 13060600 		addi	a2,a2,%lo(.LC12)
 453 003a 9385D47E 		addi	a1,s1,2029
 454 003e 7D45     		li	a0,31
 455 0040 97000000 		call	iotx_state_event
 455      E7800000 
 456              	.LVL59:
 368:C:/Users/stapi/OneDrive/Desktop/GD32VW553/V1_MQTT_OK/GD32VW55X_Wifi_BLE_SDK/GD32VW55x_RELEASE_V1.0.2/MSDK/cloud/alicloud/src/services/dev_bind\awss_notify.c ****         return STATE_BIND_RST_IN_PROGRESS;
 457              		.loc 1 368 9
 458              		.loc 1 368 16 is_stmt 0
 459 0048 1384D47E 		addi	s0,s1,2029
 460              	.LVL60:
 461              	.L26:
 369:C:/Users/stapi/OneDrive/Desktop/GD32VW553/V1_MQTT_OK/GD32VW55X_Wifi_BLE_SDK/GD32VW55x_RELEASE_V1.0.2/MSDK/cloud/alicloud/src/services/dev_bind\awss_notify.c ****     }
 370:C:/Users/stapi/OneDrive/Desktop/GD32VW553/V1_MQTT_OK/GD32VW55X_Wifi_BLE_SDK/GD32VW55x_RELEASE_V1.0.2/MSDK/cloud/alicloud/src/services/dev_bind\awss_notify.c **** #endif
 371:C:/Users/stapi/OneDrive/Desktop/GD32VW553/V1_MQTT_OK/GD32VW55X_Wifi_BLE_SDK/GD32VW55x_RELEASE_V1.0.2/MSDK/cloud/alicloud/src/services/dev_bind\awss_notify.c ****     /*
 372:C:/Users/stapi/OneDrive/Desktop/GD32VW553/V1_MQTT_OK/GD32VW55X_Wifi_BLE_SDK/GD32VW55x_RELEASE_V1.0.2/MSDK/cloud/alicloud/src/services/dev_bind\awss_notify.c ****      * if the last one is not finished, drop current request
 373:C:/Users/stapi/OneDrive/Desktop/GD32VW553/V1_MQTT_OK/GD32VW55X_Wifi_BLE_SDK/GD32VW55x_RELEASE_V1.0.2/MSDK/cloud/alicloud/src/services/dev_bind\awss_notify.c ****      */
 374:C:/Users/stapi/OneDrive/Desktop/GD32VW553/V1_MQTT_OK/GD32VW55X_Wifi_BLE_SDK/GD32VW55x_RELEASE_V1.0.2/MSDK/cloud/alicloud/src/services/dev_bind\awss_notify.c ****     if (coap_session_ctx != NULL) {
 375:C:/Users/stapi/OneDrive/Desktop/GD32VW553/V1_MQTT_OK/GD32VW55X_Wifi_BLE_SDK/GD32VW55x_RELEASE_V1.0.2/MSDK/cloud/alicloud/src/services/dev_bind\awss_notify.c ****         dump_dev_bind_status(STATE_BIND_COAP_INIT_FAIL, "recv get dev info fail");
 376:C:/Users/stapi/OneDrive/Desktop/GD32VW553/V1_MQTT_OK/GD32VW55X_Wifi_BLE_SDK/GD32VW55x_RELEASE_V1.0.2/MSDK/cloud/alicloud/src/services/dev_bind\awss_notify.c ****         return STATE_BIND_COAP_INIT_FAIL;
 377:C:/Users/stapi/OneDrive/Desktop/GD32VW553/V1_MQTT_OK/GD32VW55X_Wifi_BLE_SDK/GD32VW55x_RELEASE_V1.0.2/MSDK/cloud/alicloud/src/services/dev_bind\awss_notify.c ****     }
 378:C:/Users/stapi/OneDrive/Desktop/GD32VW553/V1_MQTT_OK/GD32VW55X_Wifi_BLE_SDK/GD32VW55x_RELEASE_V1.0.2/MSDK/cloud/alicloud/src/services/dev_bind\awss_notify.c ****     /*
 379:C:/Users/stapi/OneDrive/Desktop/GD32VW553/V1_MQTT_OK/GD32VW55X_Wifi_BLE_SDK/GD32VW55x_RELEASE_V1.0.2/MSDK/cloud/alicloud/src/services/dev_bind\awss_notify.c ****      * copy coap session context
 380:C:/Users/stapi/OneDrive/Desktop/GD32VW553/V1_MQTT_OK/GD32VW55X_Wifi_BLE_SDK/GD32VW55x_RELEASE_V1.0.2/MSDK/cloud/alicloud/src/services/dev_bind\awss_notify.c ****      */
 381:C:/Users/stapi/OneDrive/Desktop/GD32VW553/V1_MQTT_OK/GD32VW55X_Wifi_BLE_SDK/GD32VW55x_RELEASE_V1.0.2/MSDK/cloud/alicloud/src/services/dev_bind\awss_notify.c ****     coap_session_ctx = awss_cpy_coap_ctx(request, remote, is_mcast);
 382:C:/Users/stapi/OneDrive/Desktop/GD32VW553/V1_MQTT_OK/GD32VW55X_Wifi_BLE_SDK/GD32VW55x_RELEASE_V1.0.2/MSDK/cloud/alicloud/src/services/dev_bind\awss_notify.c ****     if (coap_session_ctx == NULL) {
 383:C:/Users/stapi/OneDrive/Desktop/GD32VW553/V1_MQTT_OK/GD32VW55X_Wifi_BLE_SDK/GD32VW55x_RELEASE_V1.0.2/MSDK/cloud/alicloud/src/services/dev_bind\awss_notify.c ****         dump_dev_bind_status(STATE_BIND_COAP_INIT_FAIL, "cpy req ctx fail");
 384:C:/Users/stapi/OneDrive/Desktop/GD32VW553/V1_MQTT_OK/GD32VW55X_Wifi_BLE_SDK/GD32VW55x_RELEASE_V1.0.2/MSDK/cloud/alicloud/src/services/dev_bind\awss_notify.c ****         return STATE_BIND_COAP_INIT_FAIL;
 385:C:/Users/stapi/OneDrive/Desktop/GD32VW553/V1_MQTT_OK/GD32VW55X_Wifi_BLE_SDK/GD32VW55x_RELEASE_V1.0.2/MSDK/cloud/alicloud/src/services/dev_bind\awss_notify.c ****     }
 386:C:/Users/stapi/OneDrive/Desktop/GD32VW553/V1_MQTT_OK/GD32VW55X_Wifi_BLE_SDK/GD32VW55x_RELEASE_V1.0.2/MSDK/cloud/alicloud/src/services/dev_bind\awss_notify.c **** 
 387:C:/Users/stapi/OneDrive/Desktop/GD32VW553/V1_MQTT_OK/GD32VW55X_Wifi_BLE_SDK/GD32VW55x_RELEASE_V1.0.2/MSDK/cloud/alicloud/src/services/dev_bind\awss_notify.c ****     timeout = awss_token_timeout();
 388:C:/Users/stapi/OneDrive/Desktop/GD32VW553/V1_MQTT_OK/GD32VW55X_Wifi_BLE_SDK/GD32VW55x_RELEASE_V1.0.2/MSDK/cloud/alicloud/src/services/dev_bind\awss_notify.c ****     if (timeout) {
 389:C:/Users/stapi/OneDrive/Desktop/GD32VW553/V1_MQTT_OK/GD32VW55X_Wifi_BLE_SDK/GD32VW55x_RELEASE_V1.0.2/MSDK/cloud/alicloud/src/services/dev_bind\awss_notify.c ****         produce_random(g_aes_random, sizeof(g_aes_random));
 390:C:/Users/stapi/OneDrive/Desktop/GD32VW553/V1_MQTT_OK/GD32VW55X_Wifi_BLE_SDK/GD32VW55x_RELEASE_V1.0.2/MSDK/cloud/alicloud/src/services/dev_bind\awss_notify.c ****         awss_report_token();
 391:C:/Users/stapi/OneDrive/Desktop/GD32VW553/V1_MQTT_OK/GD32VW55X_Wifi_BLE_SDK/GD32VW55x_RELEASE_V1.0.2/MSDK/cloud/alicloud/src/services/dev_bind\awss_notify.c ****     }
 392:C:/Users/stapi/OneDrive/Desktop/GD32VW553/V1_MQTT_OK/GD32VW55X_Wifi_BLE_SDK/GD32VW55x_RELEASE_V1.0.2/MSDK/cloud/alicloud/src/services/dev_bind\awss_notify.c **** 
 393:C:/Users/stapi/OneDrive/Desktop/GD32VW553/V1_MQTT_OK/GD32VW55X_Wifi_BLE_SDK/GD32VW55x_RELEASE_V1.0.2/MSDK/cloud/alicloud/src/services/dev_bind\awss_notify.c ****     if (get_devinfo_timer == NULL)
 394:C:/Users/stapi/OneDrive/Desktop/GD32VW553/V1_MQTT_OK/GD32VW55X_Wifi_BLE_SDK/GD32VW55x_RELEASE_V1.0.2/MSDK/cloud/alicloud/src/services/dev_bind\awss_notify.c ****         get_devinfo_timer = HAL_Timer_Create("get_devinfo", (void (*)(void *))awss_process_get_devi
 395:C:/Users/stapi/OneDrive/Desktop/GD32VW553/V1_MQTT_OK/GD32VW55X_Wifi_BLE_SDK/GD32VW55x_RELEASE_V1.0.2/MSDK/cloud/alicloud/src/services/dev_bind\awss_notify.c ****     HAL_Timer_Stop(get_devinfo_timer);
 396:C:/Users/stapi/OneDrive/Desktop/GD32VW553/V1_MQTT_OK/GD32VW55X_Wifi_BLE_SDK/GD32VW55x_RELEASE_V1.0.2/MSDK/cloud/alicloud/src/services/dev_bind\awss_notify.c ****     HAL_Timer_Start(get_devinfo_timer, timeout ? AWSS_CHECK_RESP_TIME : 1);
 397:C:/Users/stapi/OneDrive/Desktop/GD32VW553/V1_MQTT_OK/GD32VW55X_Wifi_BLE_SDK/GD32VW55x_RELEASE_V1.0.2/MSDK/cloud/alicloud/src/services/dev_bind\awss_notify.c **** 
 398:C:/Users/stapi/OneDrive/Desktop/GD32VW553/V1_MQTT_OK/GD32VW55X_Wifi_BLE_SDK/GD32VW55x_RELEASE_V1.0.2/MSDK/cloud/alicloud/src/services/dev_bind\awss_notify.c ****     return 0;
 399:C:/Users/stapi/OneDrive/Desktop/GD32VW553/V1_MQTT_OK/GD32VW55X_Wifi_BLE_SDK/GD32VW55x_RELEASE_V1.0.2/MSDK/cloud/alicloud/src/services/dev_bind\awss_notify.c **** }
 462              		.loc 1 399 1
 463 004c 2285     		mv	a0,s0
 464 004e 17030000 		tail	__riscv_restore_6
 464      67000300 
 465              		.cfi_remember_state
 466              		.cfi_restore 21
 467              		.cfi_restore 20
 468              		.cfi_restore 19
 469              		.cfi_restore 18
 470              		.cfi_restore 9
 471              		.cfi_restore 8
 472              		.cfi_restore 1
 473              		.cfi_def_cfa_offset 0
 474              	.LVL61:
 475              	.L27:
 476              		.cfi_restore_state
 374:C:/Users/stapi/OneDrive/Desktop/GD32VW553/V1_MQTT_OK/GD32VW55X_Wifi_BLE_SDK/GD32VW55x_RELEASE_V1.0.2/MSDK/cloud/alicloud/src/services/dev_bind\awss_notify.c ****         dump_dev_bind_status(STATE_BIND_COAP_INIT_FAIL, "recv get dev info fail");
 477              		.loc 1 374 5 is_stmt 1
 374:C:/Users/stapi/OneDrive/Desktop/GD32VW553/V1_MQTT_OK/GD32VW55X_Wifi_BLE_SDK/GD32VW55x_RELEASE_V1.0.2/MSDK/cloud/alicloud/src/services/dev_bind\awss_notify.c ****         dump_dev_bind_status(STATE_BIND_COAP_INIT_FAIL, "recv get dev info fail");
 478              		.loc 1 374 26 is_stmt 0
 479 0056 37090000 		lui	s2,%hi(.LANCHOR4)
 480 005a 13090900 		addi	s2,s2,%lo(.LANCHOR4)
 374:C:/Users/stapi/OneDrive/Desktop/GD32VW553/V1_MQTT_OK/GD32VW55X_Wifi_BLE_SDK/GD32VW55x_RELEASE_V1.0.2/MSDK/cloud/alicloud/src/services/dev_bind\awss_notify.c ****         dump_dev_bind_status(STATE_BIND_COAP_INIT_FAIL, "recv get dev info fail");
 481              		.loc 1 374 8
 482 005e 83270900 		lw	a5,0(s2)
 483 0062 99CF     		beq	a5,zero,.L29
 375:C:/Users/stapi/OneDrive/Desktop/GD32VW553/V1_MQTT_OK/GD32VW55X_Wifi_BLE_SDK/GD32VW55x_RELEASE_V1.0.2/MSDK/cloud/alicloud/src/services/dev_bind\awss_notify.c ****         return STATE_BIND_COAP_INIT_FAIL;
 484              		.loc 1 375 9 is_stmt 1
 485 0064 37060000 		lui	a2,%hi(.LC13)
 486 0068 13060600 		addi	a2,a2,%lo(.LC13)
 487              	.L39:
 383:C:/Users/stapi/OneDrive/Desktop/GD32VW553/V1_MQTT_OK/GD32VW55X_Wifi_BLE_SDK/GD32VW55x_RELEASE_V1.0.2/MSDK/cloud/alicloud/src/services/dev_bind\awss_notify.c ****         return STATE_BIND_COAP_INIT_FAIL;
 488              		.loc 1 383 9 is_stmt 0
 489 006c 9385E47F 		addi	a1,s1,2046
 490 0070 7D45     		li	a0,31
 491 0072 97000000 		call	iotx_state_event
 491      E7800000 
 492              	.LVL62:
 384:C:/Users/stapi/OneDrive/Desktop/GD32VW553/V1_MQTT_OK/GD32VW55X_Wifi_BLE_SDK/GD32VW55x_RELEASE_V1.0.2/MSDK/cloud/alicloud/src/services/dev_bind\awss_notify.c ****     }
 493              		.loc 1 384 9 is_stmt 1
 384:C:/Users/stapi/OneDrive/Desktop/GD32VW553/V1_MQTT_OK/GD32VW55X_Wifi_BLE_SDK/GD32VW55x_RELEASE_V1.0.2/MSDK/cloud/alicloud/src/services/dev_bind\awss_notify.c ****     }
 494              		.loc 1 384 16 is_stmt 0
 495 007a 1384E47F 		addi	s0,s1,2046
 496 007e F9B7     		j	.L26
 497              	.L29:
 498 0080 2A84     		mv	s0,a0
 381:C:/Users/stapi/OneDrive/Desktop/GD32VW553/V1_MQTT_OK/GD32VW55X_Wifi_BLE_SDK/GD32VW55x_RELEASE_V1.0.2/MSDK/cloud/alicloud/src/services/dev_bind\awss_notify.c ****     if (coap_session_ctx == NULL) {
 499              		.loc 1 381 5 is_stmt 1
 381:C:/Users/stapi/OneDrive/Desktop/GD32VW553/V1_MQTT_OK/GD32VW55X_Wifi_BLE_SDK/GD32VW55x_RELEASE_V1.0.2/MSDK/cloud/alicloud/src/services/dev_bind\awss_notify.c ****     if (coap_session_ctx == NULL) {
 500              		.loc 1 381 24 is_stmt 0
 501 0082 5686     		mv	a2,s5
 502 0084 D285     		mv	a1,s4
 503 0086 4E85     		mv	a0,s3
 504 0088 97000000 		call	awss_cpy_coap_ctx
 504      E7800000 
 505              	.LVL63:
 381:C:/Users/stapi/OneDrive/Desktop/GD32VW553/V1_MQTT_OK/GD32VW55X_Wifi_BLE_SDK/GD32VW55x_RELEASE_V1.0.2/MSDK/cloud/alicloud/src/services/dev_bind\awss_notify.c ****     if (coap_session_ctx == NULL) {
 506              		.loc 1 381 22
 507 0090 2320A900 		sw	a0,0(s2)
 382:C:/Users/stapi/OneDrive/Desktop/GD32VW553/V1_MQTT_OK/GD32VW55X_Wifi_BLE_SDK/GD32VW55x_RELEASE_V1.0.2/MSDK/cloud/alicloud/src/services/dev_bind\awss_notify.c ****         dump_dev_bind_status(STATE_BIND_COAP_INIT_FAIL, "cpy req ctx fail");
 508              		.loc 1 382 5 is_stmt 1
 382:C:/Users/stapi/OneDrive/Desktop/GD32VW553/V1_MQTT_OK/GD32VW55X_Wifi_BLE_SDK/GD32VW55x_RELEASE_V1.0.2/MSDK/cloud/alicloud/src/services/dev_bind\awss_notify.c ****         dump_dev_bind_status(STATE_BIND_COAP_INIT_FAIL, "cpy req ctx fail");
 509              		.loc 1 382 8 is_stmt 0
 510 0094 11E5     		bne	a0,zero,.L30
 383:C:/Users/stapi/OneDrive/Desktop/GD32VW553/V1_MQTT_OK/GD32VW55X_Wifi_BLE_SDK/GD32VW55x_RELEASE_V1.0.2/MSDK/cloud/alicloud/src/services/dev_bind\awss_notify.c ****         return STATE_BIND_COAP_INIT_FAIL;
 511              		.loc 1 383 9 is_stmt 1
 512 0096 37060000 		lui	a2,%hi(.LC14)
 513 009a 13060600 		addi	a2,a2,%lo(.LC14)
 514 009e F9B7     		j	.L39
 515              	.L30:
 387:C:/Users/stapi/OneDrive/Desktop/GD32VW553/V1_MQTT_OK/GD32VW55X_Wifi_BLE_SDK/GD32VW55x_RELEASE_V1.0.2/MSDK/cloud/alicloud/src/services/dev_bind\awss_notify.c ****     if (timeout) {
 516              		.loc 1 387 5
 387:C:/Users/stapi/OneDrive/Desktop/GD32VW553/V1_MQTT_OK/GD32VW55X_Wifi_BLE_SDK/GD32VW55x_RELEASE_V1.0.2/MSDK/cloud/alicloud/src/services/dev_bind\awss_notify.c ****     if (timeout) {
 517              		.loc 1 387 15 is_stmt 0
 518 00a0 97000000 		call	awss_token_timeout
 518      E7800000 
 519              	.LVL64:
 520 00a8 2A89     		mv	s2,a0
 521              	.LVL65:
 388:C:/Users/stapi/OneDrive/Desktop/GD32VW553/V1_MQTT_OK/GD32VW55X_Wifi_BLE_SDK/GD32VW55x_RELEASE_V1.0.2/MSDK/cloud/alicloud/src/services/dev_bind\awss_notify.c ****         produce_random(g_aes_random, sizeof(g_aes_random));
 522              		.loc 1 388 5 is_stmt 1
 388:C:/Users/stapi/OneDrive/Desktop/GD32VW553/V1_MQTT_OK/GD32VW55X_Wifi_BLE_SDK/GD32VW55x_RELEASE_V1.0.2/MSDK/cloud/alicloud/src/services/dev_bind\awss_notify.c ****         produce_random(g_aes_random, sizeof(g_aes_random));
 523              		.loc 1 388 8 is_stmt 0
 524 00aa 11CD     		beq	a0,zero,.L31
 389:C:/Users/stapi/OneDrive/Desktop/GD32VW553/V1_MQTT_OK/GD32VW55X_Wifi_BLE_SDK/GD32VW55x_RELEASE_V1.0.2/MSDK/cloud/alicloud/src/services/dev_bind\awss_notify.c ****         awss_report_token();
 525              		.loc 1 389 9 is_stmt 1
 526 00ac 37050000 		lui	a0,%hi(g_aes_random)
 527              	.LVL66:
 528 00b0 C145     		li	a1,16
 529 00b2 13050500 		addi	a0,a0,%lo(g_aes_random)
 530 00b6 97000000 		call	produce_random
 530      E7800000 
 531              	.LVL67:
 390:C:/Users/stapi/OneDrive/Desktop/GD32VW553/V1_MQTT_OK/GD32VW55X_Wifi_BLE_SDK/GD32VW55x_RELEASE_V1.0.2/MSDK/cloud/alicloud/src/services/dev_bind\awss_notify.c ****     }
 532              		.loc 1 390 9
 533 00be 97000000 		call	awss_report_token
 533      E7800000 
 534              	.LVL68:
 535              	.L31:
 393:C:/Users/stapi/OneDrive/Desktop/GD32VW553/V1_MQTT_OK/GD32VW55X_Wifi_BLE_SDK/GD32VW55x_RELEASE_V1.0.2/MSDK/cloud/alicloud/src/services/dev_bind\awss_notify.c ****         get_devinfo_timer = HAL_Timer_Create("get_devinfo", (void (*)(void *))awss_process_get_devi
 536              		.loc 1 393 5
 393:C:/Users/stapi/OneDrive/Desktop/GD32VW553/V1_MQTT_OK/GD32VW55X_Wifi_BLE_SDK/GD32VW55x_RELEASE_V1.0.2/MSDK/cloud/alicloud/src/services/dev_bind\awss_notify.c ****         get_devinfo_timer = HAL_Timer_Create("get_devinfo", (void (*)(void *))awss_process_get_devi
 537              		.loc 1 393 27 is_stmt 0
 538 00c6 B7040000 		lui	s1,%hi(.LANCHOR5)
 393:C:/Users/stapi/OneDrive/Desktop/GD32VW553/V1_MQTT_OK/GD32VW55X_Wifi_BLE_SDK/GD32VW55x_RELEASE_V1.0.2/MSDK/cloud/alicloud/src/services/dev_bind\awss_notify.c ****         get_devinfo_timer = HAL_Timer_Create("get_devinfo", (void (*)(void *))awss_process_get_devi
 539              		.loc 1 393 8
 540 00ca 83A70400 		lw	a5,%lo(.LANCHOR5)(s1)
 541 00ce 93840400 		addi	s1,s1,%lo(.LANCHOR5)
 542 00d2 99EF     		bne	a5,zero,.L32
 394:C:/Users/stapi/OneDrive/Desktop/GD32VW553/V1_MQTT_OK/GD32VW55X_Wifi_BLE_SDK/GD32VW55x_RELEASE_V1.0.2/MSDK/cloud/alicloud/src/services/dev_bind\awss_notify.c ****     HAL_Timer_Stop(get_devinfo_timer);
 543              		.loc 1 394 9 is_stmt 1
 394:C:/Users/stapi/OneDrive/Desktop/GD32VW553/V1_MQTT_OK/GD32VW55X_Wifi_BLE_SDK/GD32VW55x_RELEASE_V1.0.2/MSDK/cloud/alicloud/src/services/dev_bind\awss_notify.c ****     HAL_Timer_Stop(get_devinfo_timer);
 544              		.loc 1 394 29 is_stmt 0
 545 00d4 B7050000 		lui	a1,%hi(awss_process_get_devinfo)
 546 00d8 37050000 		lui	a0,%hi(.LC15)
 547 00dc 0146     		li	a2,0
 548 00de 93850500 		addi	a1,a1,%lo(awss_process_get_devinfo)
 549 00e2 13050500 		addi	a0,a0,%lo(.LC15)
 550 00e6 97000000 		call	HAL_Timer_Create
 550      E7800000 
 551              	.LVL69:
 394:C:/Users/stapi/OneDrive/Desktop/GD32VW553/V1_MQTT_OK/GD32VW55X_Wifi_BLE_SDK/GD32VW55x_RELEASE_V1.0.2/MSDK/cloud/alicloud/src/services/dev_bind\awss_notify.c ****     HAL_Timer_Stop(get_devinfo_timer);
 552              		.loc 1 394 27
 553 00ee 88C0     		sw	a0,0(s1)
 554              	.L32:
 395:C:/Users/stapi/OneDrive/Desktop/GD32VW553/V1_MQTT_OK/GD32VW55X_Wifi_BLE_SDK/GD32VW55x_RELEASE_V1.0.2/MSDK/cloud/alicloud/src/services/dev_bind\awss_notify.c ****     HAL_Timer_Start(get_devinfo_timer, timeout ? AWSS_CHECK_RESP_TIME : 1);
 555              		.loc 1 395 5 is_stmt 1
 556 00f0 8840     		lw	a0,0(s1)
 557 00f2 97000000 		call	HAL_Timer_Stop
 557      E7800000 
 558              	.LVL70:
 396:C:/Users/stapi/OneDrive/Desktop/GD32VW553/V1_MQTT_OK/GD32VW55X_Wifi_BLE_SDK/GD32VW55x_RELEASE_V1.0.2/MSDK/cloud/alicloud/src/services/dev_bind\awss_notify.c **** 
 559              		.loc 1 396 5
 560 00fa 8840     		lw	a0,0(s1)
 561 00fc 9305C012 		li	a1,300
 562 0100 63130900 		bne	s2,zero,.L33
 563 0104 8545     		li	a1,1
 564              	.L33:
 565 0106 97000000 		call	HAL_Timer_Start
 565      E7800000 
 566              	.LVL71:
 398:C:/Users/stapi/OneDrive/Desktop/GD32VW553/V1_MQTT_OK/GD32VW55X_Wifi_BLE_SDK/GD32VW55x_RELEASE_V1.0.2/MSDK/cloud/alicloud/src/services/dev_bind\awss_notify.c **** }
 567              		.loc 1 398 5
 398:C:/Users/stapi/OneDrive/Desktop/GD32VW553/V1_MQTT_OK/GD32VW55X_Wifi_BLE_SDK/GD32VW55x_RELEASE_V1.0.2/MSDK/cloud/alicloud/src/services/dev_bind\awss_notify.c **** }
 568              		.loc 1 398 12 is_stmt 0
 569 010e 3DBF     		j	.L26
 570              		.cfi_endproc
 571              	.LFE84:
 573              		.section	.text.os_zalloc.constprop.0,"ax",@progbits
 574              		.align	1
 576              	os_zalloc.constprop.0:
 577              	.LFB83:
 578              		.file 2 "..\\..\\..\\..\\cloud\\alicloud\\src\\services\\dev_bind\\os/os.h"
   1:..\..\..\..\cloud\alicloud\src\services\dev_bind\os/os.h **** /*
   2:..\..\..\..\cloud\alicloud\src\services\dev_bind\os/os.h ****  * Copyright (C) 2015-2018 Alibaba Group Holding Limited
   3:..\..\..\..\cloud\alicloud\src\services\dev_bind\os/os.h ****  */
   4:..\..\..\..\cloud\alicloud\src\services\dev_bind\os/os.h **** 
   5:..\..\..\..\cloud\alicloud\src\services\dev_bind\os/os.h **** #ifndef __AWSS_OS_H__
   6:..\..\..\..\cloud\alicloud\src\services\dev_bind\os/os.h **** #define __AWSS_OS_H__
   7:..\..\..\..\cloud\alicloud\src\services\dev_bind\os/os.h **** 
   8:..\..\..\..\cloud\alicloud\src\services\dev_bind\os/os.h **** #ifdef __cplusplus
   9:..\..\..\..\cloud\alicloud\src\services\dev_bind\os/os.h **** extern "C" {
  10:..\..\..\..\cloud\alicloud\src\services\dev_bind\os/os.h **** #endif
  11:..\..\..\..\cloud\alicloud\src\services\dev_bind\os/os.h **** #include <ctype.h>
  12:..\..\..\..\cloud\alicloud\src\services\dev_bind\os/os.h **** #include "iot_import.h"
  13:..\..\..\..\cloud\alicloud\src\services\dev_bind\os/os.h **** #include "iot_export.h"
  14:..\..\..\..\cloud\alicloud\src\services\dev_bind\os/os.h **** #include "product/product.h"
  15:..\..\..\..\cloud\alicloud\src\services\dev_bind\os/os.h **** #include "platform.h"
  16:..\..\..\..\cloud\alicloud\src\services\dev_bind\os/os.h **** 
  17:..\..\..\..\cloud\alicloud\src\services\dev_bind\os/os.h **** /** @defgroup group_os os
  18:..\..\..\..\cloud\alicloud\src\services\dev_bind\os/os.h ****  *  @{
  19:..\..\..\..\cloud\alicloud\src\services\dev_bind\os/os.h ****  */
  20:..\..\..\..\cloud\alicloud\src\services\dev_bind\os/os.h **** 
  21:..\..\..\..\cloud\alicloud\src\services\dev_bind\os/os.h **** #define OS_MAX_SSID_LEN         PLATFORM_MAX_SSID_LEN
  22:..\..\..\..\cloud\alicloud\src\services\dev_bind\os/os.h **** #define OS_MAX_PASSWD_LEN       PLATFORM_MAX_PASSWD_LEN
  23:..\..\..\..\cloud\alicloud\src\services\dev_bind\os/os.h **** 
  24:..\..\..\..\cloud\alicloud\src\services\dev_bind\os/os.h **** #define OS_MAC_LEN              PLATFORM_MAC_LEN
  25:..\..\..\..\cloud\alicloud\src\services\dev_bind\os/os.h **** #define OS_IP_LEN               PLATFORM_IP_LEN
  26:..\..\..\..\cloud\alicloud\src\services\dev_bind\os/os.h **** #define OS_ETH_ALEN             ETH_ALEN
  27:..\..\..\..\cloud\alicloud\src\services\dev_bind\os/os.h **** 
  28:..\..\..\..\cloud\alicloud\src\services\dev_bind\os/os.h **** #define OS_PRODUCT_KEY_LEN      PRODUCT_KEY_LEN
  29:..\..\..\..\cloud\alicloud\src\services\dev_bind\os/os.h **** #define OS_PRODUCT_SECRET_LEN   PRODUCT_SECRET_LEN
  30:..\..\..\..\cloud\alicloud\src\services\dev_bind\os/os.h **** #define OS_DEVICE_NAME_LEN      DEVICE_NAME_LEN
  31:..\..\..\..\cloud\alicloud\src\services\dev_bind\os/os.h **** #define OS_DEVICE_SECRET_LEN    DEVICE_SECRET_LEN
  32:..\..\..\..\cloud\alicloud\src\services\dev_bind\os/os.h **** 
  33:..\..\..\..\cloud\alicloud\src\services\dev_bind\os/os.h **** /***************************************** Misc Interface *****************************************
  34:..\..\..\..\cloud\alicloud\src\services\dev_bind\os/os.h **** 
  35:..\..\..\..\cloud\alicloud\src\services\dev_bind\os/os.h **** /** @defgroup group_misc misc
  36:..\..\..\..\cloud\alicloud\src\services\dev_bind\os/os.h ****  *  @{
  37:..\..\..\..\cloud\alicloud\src\services\dev_bind\os/os.h ****  */
  38:..\..\..\..\cloud\alicloud\src\services\dev_bind\os/os.h **** /**
  39:..\..\..\..\cloud\alicloud\src\services\dev_bind\os/os.h ****  * @brief .
  40:..\..\..\..\cloud\alicloud\src\services\dev_bind\os/os.h ****  *
  41:..\..\..\..\cloud\alicloud\src\services\dev_bind\os/os.h ****  * @param None.
  42:..\..\..\..\cloud\alicloud\src\services\dev_bind\os/os.h ****  * @return
  43:..\..\..\..\cloud\alicloud\src\services\dev_bind\os/os.h ****  * @verbatim
  44:..\..\..\..\cloud\alicloud\src\services\dev_bind\os/os.h ****  * = 0, This platform is little endian.
  45:..\..\..\..\cloud\alicloud\src\services\dev_bind\os/os.h ****  * = 1, This platform is big endian.
  46:..\..\..\..\cloud\alicloud\src\services\dev_bind\os/os.h ****  * @endverbatim
  47:..\..\..\..\cloud\alicloud\src\services\dev_bind\os/os.h ****  * @see None.
  48:..\..\..\..\cloud\alicloud\src\services\dev_bind\os/os.h ****  * @note None.
  49:..\..\..\..\cloud\alicloud\src\services\dev_bind\os/os.h ****  */
  50:..\..\..\..\cloud\alicloud\src\services\dev_bind\os/os.h **** static inline int os_is_big_endian(void)
  51:..\..\..\..\cloud\alicloud\src\services\dev_bind\os/os.h **** {
  52:..\..\..\..\cloud\alicloud\src\services\dev_bind\os/os.h ****     uint32_t data = 0xFF000000;
  53:..\..\..\..\cloud\alicloud\src\services\dev_bind\os/os.h **** 
  54:..\..\..\..\cloud\alicloud\src\services\dev_bind\os/os.h ****     if (0xFF == *(uint8_t *) & data) {
  55:..\..\..\..\cloud\alicloud\src\services\dev_bind\os/os.h ****         return 1;                                    //big endian
  56:..\..\..\..\cloud\alicloud\src\services\dev_bind\os/os.h ****     }
  57:..\..\..\..\cloud\alicloud\src\services\dev_bind\os/os.h **** 
  58:..\..\..\..\cloud\alicloud\src\services\dev_bind\os/os.h ****     return 0;                                        //little endian
  59:..\..\..\..\cloud\alicloud\src\services\dev_bind\os/os.h **** }
  60:..\..\..\..\cloud\alicloud\src\services\dev_bind\os/os.h **** 
  61:..\..\..\..\cloud\alicloud\src\services\dev_bind\os/os.h **** /**
  62:..\..\..\..\cloud\alicloud\src\services\dev_bind\os/os.h ****  * @brief Convert the data from byte order of current CPU(the "host") to big-endian.
  63:..\..\..\..\cloud\alicloud\src\services\dev_bind\os/os.h ****    The size of the data is 16 bits.
  64:..\..\..\..\cloud\alicloud\src\services\dev_bind\os/os.h ****  *
  65:..\..\..\..\cloud\alicloud\src\services\dev_bind\os/os.h ****  * @param[in] data @n Data to be converted.
  66:..\..\..\..\cloud\alicloud\src\services\dev_bind\os/os.h ****  * @return Conversion result.
  67:..\..\..\..\cloud\alicloud\src\services\dev_bind\os/os.h ****  * @see None.
  68:..\..\..\..\cloud\alicloud\src\services\dev_bind\os/os.h ****  * @note None.
  69:..\..\..\..\cloud\alicloud\src\services\dev_bind\os/os.h ****  */
  70:..\..\..\..\cloud\alicloud\src\services\dev_bind\os/os.h **** uint16_t os_htobe16(uint16_t data);
  71:..\..\..\..\cloud\alicloud\src\services\dev_bind\os/os.h **** 
  72:..\..\..\..\cloud\alicloud\src\services\dev_bind\os/os.h **** /**
  73:..\..\..\..\cloud\alicloud\src\services\dev_bind\os/os.h ****  * @brief Convert the data from host to little-endian.
  74:..\..\..\..\cloud\alicloud\src\services\dev_bind\os/os.h ****    The size of the data is 16 bits.
  75:..\..\..\..\cloud\alicloud\src\services\dev_bind\os/os.h ****  *
  76:..\..\..\..\cloud\alicloud\src\services\dev_bind\os/os.h ****  * @param[in] data @n Data to be converted.
  77:..\..\..\..\cloud\alicloud\src\services\dev_bind\os/os.h ****  * @return Conversion result.
  78:..\..\..\..\cloud\alicloud\src\services\dev_bind\os/os.h ****  * @see None.
  79:..\..\..\..\cloud\alicloud\src\services\dev_bind\os/os.h ****  * @note None.
  80:..\..\..\..\cloud\alicloud\src\services\dev_bind\os/os.h ****  */
  81:..\..\..\..\cloud\alicloud\src\services\dev_bind\os/os.h **** uint16_t os_htole16(uint16_t data);
  82:..\..\..\..\cloud\alicloud\src\services\dev_bind\os/os.h **** 
  83:..\..\..\..\cloud\alicloud\src\services\dev_bind\os/os.h **** /**
  84:..\..\..\..\cloud\alicloud\src\services\dev_bind\os/os.h ****  * @brief Convert the data from big-endian to host.
  85:..\..\..\..\cloud\alicloud\src\services\dev_bind\os/os.h ****    The size of the data is 16 bits.
  86:..\..\..\..\cloud\alicloud\src\services\dev_bind\os/os.h ****  *
  87:..\..\..\..\cloud\alicloud\src\services\dev_bind\os/os.h ****  * @param[in] data @n Data to be converted.
  88:..\..\..\..\cloud\alicloud\src\services\dev_bind\os/os.h ****  * @return Conversion result.
  89:..\..\..\..\cloud\alicloud\src\services\dev_bind\os/os.h ****  * @see None.
  90:..\..\..\..\cloud\alicloud\src\services\dev_bind\os/os.h ****  * @note None.
  91:..\..\..\..\cloud\alicloud\src\services\dev_bind\os/os.h ****  */
  92:..\..\..\..\cloud\alicloud\src\services\dev_bind\os/os.h **** uint16_t os_be16toh(uint16_t data);
  93:..\..\..\..\cloud\alicloud\src\services\dev_bind\os/os.h **** 
  94:..\..\..\..\cloud\alicloud\src\services\dev_bind\os/os.h **** /**
  95:..\..\..\..\cloud\alicloud\src\services\dev_bind\os/os.h ****  * @brief Convert the data from little-endian to host.
  96:..\..\..\..\cloud\alicloud\src\services\dev_bind\os/os.h ****    The size of the data is 16 bits.
  97:..\..\..\..\cloud\alicloud\src\services\dev_bind\os/os.h ****  *
  98:..\..\..\..\cloud\alicloud\src\services\dev_bind\os/os.h ****  * @param[in] data @n Data to be converted.
  99:..\..\..\..\cloud\alicloud\src\services\dev_bind\os/os.h ****  * @return Conversion result.
 100:..\..\..\..\cloud\alicloud\src\services\dev_bind\os/os.h ****  * @see None.
 101:..\..\..\..\cloud\alicloud\src\services\dev_bind\os/os.h ****  * @note None.
 102:..\..\..\..\cloud\alicloud\src\services\dev_bind\os/os.h ****  */
 103:..\..\..\..\cloud\alicloud\src\services\dev_bind\os/os.h **** uint16_t os_le16toh(uint16_t data);
 104:..\..\..\..\cloud\alicloud\src\services\dev_bind\os/os.h **** 
 105:..\..\..\..\cloud\alicloud\src\services\dev_bind\os/os.h **** /**
 106:..\..\..\..\cloud\alicloud\src\services\dev_bind\os/os.h ****  * @brief Convert the data from little-endian to host.
 107:..\..\..\..\cloud\alicloud\src\services\dev_bind\os/os.h ****    The size of the data is 32 bits.
 108:..\..\..\..\cloud\alicloud\src\services\dev_bind\os/os.h ****  *
 109:..\..\..\..\cloud\alicloud\src\services\dev_bind\os/os.h ****  * @param[in] data @n Data to be converted.
 110:..\..\..\..\cloud\alicloud\src\services\dev_bind\os/os.h ****  * @return Conversion result.
 111:..\..\..\..\cloud\alicloud\src\services\dev_bind\os/os.h ****  * @see None.
 112:..\..\..\..\cloud\alicloud\src\services\dev_bind\os/os.h ****  * @note None.
 113:..\..\..\..\cloud\alicloud\src\services\dev_bind\os/os.h ****  */
 114:..\..\..\..\cloud\alicloud\src\services\dev_bind\os/os.h **** uint32_t os_le32toh(uint32_t data);
 115:..\..\..\..\cloud\alicloud\src\services\dev_bind\os/os.h **** 
 116:..\..\..\..\cloud\alicloud\src\services\dev_bind\os/os.h **** /**
 117:..\..\..\..\cloud\alicloud\src\services\dev_bind\os/os.h ****  * @brief Convert the data from host to big-endian.
 118:..\..\..\..\cloud\alicloud\src\services\dev_bind\os/os.h ****    The size of the data is 64 bits.
 119:..\..\..\..\cloud\alicloud\src\services\dev_bind\os/os.h ****  *
 120:..\..\..\..\cloud\alicloud\src\services\dev_bind\os/os.h ****  * @param[in] data @n Data to be converted.
 121:..\..\..\..\cloud\alicloud\src\services\dev_bind\os/os.h ****  * @return Conversion result.
 122:..\..\..\..\cloud\alicloud\src\services\dev_bind\os/os.h ****  * @see None.
 123:..\..\..\..\cloud\alicloud\src\services\dev_bind\os/os.h ****  * @note None.
 124:..\..\..\..\cloud\alicloud\src\services\dev_bind\os/os.h ****  */
 125:..\..\..\..\cloud\alicloud\src\services\dev_bind\os/os.h **** //uint64_t os_htobe64(uint64_t data);
 126:..\..\..\..\cloud\alicloud\src\services\dev_bind\os/os.h **** 
 127:..\..\..\..\cloud\alicloud\src\services\dev_bind\os/os.h **** /**
 128:..\..\..\..\cloud\alicloud\src\services\dev_bind\os/os.h ****  * @brief Convert the data from host to little-endian.
 129:..\..\..\..\cloud\alicloud\src\services\dev_bind\os/os.h ****    The size of the data is 64 bits.
 130:..\..\..\..\cloud\alicloud\src\services\dev_bind\os/os.h ****  *
 131:..\..\..\..\cloud\alicloud\src\services\dev_bind\os/os.h ****  * @param[in] data @n Data to be converted.
 132:..\..\..\..\cloud\alicloud\src\services\dev_bind\os/os.h ****  * @return Conversion result.
 133:..\..\..\..\cloud\alicloud\src\services\dev_bind\os/os.h ****  * @see None.
 134:..\..\..\..\cloud\alicloud\src\services\dev_bind\os/os.h ****  * @note None.
 135:..\..\..\..\cloud\alicloud\src\services\dev_bind\os/os.h ****  */
 136:..\..\..\..\cloud\alicloud\src\services\dev_bind\os/os.h **** //uint64_t os_htole64(uint64_t data);
 137:..\..\..\..\cloud\alicloud\src\services\dev_bind\os/os.h **** 
 138:..\..\..\..\cloud\alicloud\src\services\dev_bind\os/os.h **** /**
 139:..\..\..\..\cloud\alicloud\src\services\dev_bind\os/os.h ****  * @brief Convert the data from big-endian to host.
 140:..\..\..\..\cloud\alicloud\src\services\dev_bind\os/os.h ****    The size of the data is 64 bits.
 141:..\..\..\..\cloud\alicloud\src\services\dev_bind\os/os.h ****  *
 142:..\..\..\..\cloud\alicloud\src\services\dev_bind\os/os.h ****  * @param[in] data @n Data to be converted.
 143:..\..\..\..\cloud\alicloud\src\services\dev_bind\os/os.h ****  * @return Conversion result.
 144:..\..\..\..\cloud\alicloud\src\services\dev_bind\os/os.h ****  * @see None.
 145:..\..\..\..\cloud\alicloud\src\services\dev_bind\os/os.h ****  * @note None.
 146:..\..\..\..\cloud\alicloud\src\services\dev_bind\os/os.h ****  */
 147:..\..\..\..\cloud\alicloud\src\services\dev_bind\os/os.h **** //uint64_t os_be64toh(uint64_t data);
 148:..\..\..\..\cloud\alicloud\src\services\dev_bind\os/os.h **** 
 149:..\..\..\..\cloud\alicloud\src\services\dev_bind\os/os.h **** /**
 150:..\..\..\..\cloud\alicloud\src\services\dev_bind\os/os.h ****  * @brief Convert the data from little-endian to host.
 151:..\..\..\..\cloud\alicloud\src\services\dev_bind\os/os.h ****    The size of the data is 64 bits.
 152:..\..\..\..\cloud\alicloud\src\services\dev_bind\os/os.h ****  *
 153:..\..\..\..\cloud\alicloud\src\services\dev_bind\os/os.h ****  * @param[in] data @n Data to be converted.
 154:..\..\..\..\cloud\alicloud\src\services\dev_bind\os/os.h ****  * @return Conversion result.
 155:..\..\..\..\cloud\alicloud\src\services\dev_bind\os/os.h ****  * @see None.
 156:..\..\..\..\cloud\alicloud\src\services\dev_bind\os/os.h ****  * @note None.
 157:..\..\..\..\cloud\alicloud\src\services\dev_bind\os/os.h ****  */
 158:..\..\..\..\cloud\alicloud\src\services\dev_bind\os/os.h **** //uint64_t os_le64toh(uint64_t data);
 159:..\..\..\..\cloud\alicloud\src\services\dev_bind\os/os.h **** 
 160:..\..\..\..\cloud\alicloud\src\services\dev_bind\os/os.h **** /**
 161:..\..\..\..\cloud\alicloud\src\services\dev_bind\os/os.h ****  * @brief Get unaligned 16 bits data which is big-endian and convert to host byte order.
 162:..\..\..\..\cloud\alicloud\src\services\dev_bind\os/os.h ****  *
 163:..\..\..\..\cloud\alicloud\src\services\dev_bind\os/os.h ****  * @param[in] ptr @n The start address of the unaligned data.
 164:..\..\..\..\cloud\alicloud\src\services\dev_bind\os/os.h ****  * @return Result in host byte order.
 165:..\..\..\..\cloud\alicloud\src\services\dev_bind\os/os.h ****  * @see None.
 166:..\..\..\..\cloud\alicloud\src\services\dev_bind\os/os.h ****  * @note None.
 167:..\..\..\..\cloud\alicloud\src\services\dev_bind\os/os.h ****  */
 168:..\..\..\..\cloud\alicloud\src\services\dev_bind\os/os.h **** uint16_t os_get_unaligned_be16(uint8_t *ptr);
 169:..\..\..\..\cloud\alicloud\src\services\dev_bind\os/os.h **** 
 170:..\..\..\..\cloud\alicloud\src\services\dev_bind\os/os.h **** /**
 171:..\..\..\..\cloud\alicloud\src\services\dev_bind\os/os.h ****  * @brief Get unaligned 16 bits data which is little-endian and convert to host byte order.
 172:..\..\..\..\cloud\alicloud\src\services\dev_bind\os/os.h ****  *
 173:..\..\..\..\cloud\alicloud\src\services\dev_bind\os/os.h ****  * @param[in] ptr @n The start address of the unaligned data.
 174:..\..\..\..\cloud\alicloud\src\services\dev_bind\os/os.h ****  * @return Result in host byte order.
 175:..\..\..\..\cloud\alicloud\src\services\dev_bind\os/os.h ****  * @see None.
 176:..\..\..\..\cloud\alicloud\src\services\dev_bind\os/os.h ****  * @note None.
 177:..\..\..\..\cloud\alicloud\src\services\dev_bind\os/os.h ****  */
 178:..\..\..\..\cloud\alicloud\src\services\dev_bind\os/os.h **** uint16_t os_get_unaligned_le16(uint8_t *ptr);
 179:..\..\..\..\cloud\alicloud\src\services\dev_bind\os/os.h **** 
 180:..\..\..\..\cloud\alicloud\src\services\dev_bind\os/os.h **** /**
 181:..\..\..\..\cloud\alicloud\src\services\dev_bind\os/os.h ****  * @brief Get unaligned 32 bits data which is big-endian and convert to host byte order.
 182:..\..\..\..\cloud\alicloud\src\services\dev_bind\os/os.h ****  *
 183:..\..\..\..\cloud\alicloud\src\services\dev_bind\os/os.h ****  * @param[in] ptr @n The start address of the unaligned data.
 184:..\..\..\..\cloud\alicloud\src\services\dev_bind\os/os.h ****  * @return Result in host byte order.
 185:..\..\..\..\cloud\alicloud\src\services\dev_bind\os/os.h ****  * @see None.
 186:..\..\..\..\cloud\alicloud\src\services\dev_bind\os/os.h ****  * @note None.
 187:..\..\..\..\cloud\alicloud\src\services\dev_bind\os/os.h ****  */
 188:..\..\..\..\cloud\alicloud\src\services\dev_bind\os/os.h **** uint32_t os_get_unaligned_be32(uint8_t *ptr);
 189:..\..\..\..\cloud\alicloud\src\services\dev_bind\os/os.h **** 
 190:..\..\..\..\cloud\alicloud\src\services\dev_bind\os/os.h **** /**
 191:..\..\..\..\cloud\alicloud\src\services\dev_bind\os/os.h ****  * @brief Get unaligned 32 bits data which is little-endian and convert to host byte order.
 192:..\..\..\..\cloud\alicloud\src\services\dev_bind\os/os.h ****  *
 193:..\..\..\..\cloud\alicloud\src\services\dev_bind\os/os.h ****  * @param[in] ptr @n The start address of the unaligned data.
 194:..\..\..\..\cloud\alicloud\src\services\dev_bind\os/os.h ****  * @return Result in host byte order.
 195:..\..\..\..\cloud\alicloud\src\services\dev_bind\os/os.h ****  * @see None.
 196:..\..\..\..\cloud\alicloud\src\services\dev_bind\os/os.h ****  * @note None.
 197:..\..\..\..\cloud\alicloud\src\services\dev_bind\os/os.h ****  */
 198:..\..\..\..\cloud\alicloud\src\services\dev_bind\os/os.h **** uint32_t os_get_unaligned_le32(uint8_t *ptr);
 199:..\..\..\..\cloud\alicloud\src\services\dev_bind\os/os.h **** 
 200:..\..\..\..\cloud\alicloud\src\services\dev_bind\os/os.h **** /**
 201:..\..\..\..\cloud\alicloud\src\services\dev_bind\os/os.h ****  * @brief sleep thread itself.
 202:..\..\..\..\cloud\alicloud\src\services\dev_bind\os/os.h ****  *
 203:..\..\..\..\cloud\alicloud\src\services\dev_bind\os/os.h ****  * @param[in] ms @n the time interval for which execution is to be suspended, in milliseconds.
 204:..\..\..\..\cloud\alicloud\src\services\dev_bind\os/os.h ****  * @return None.
 205:..\..\..\..\cloud\alicloud\src\services\dev_bind\os/os.h ****  * @see None.
 206:..\..\..\..\cloud\alicloud\src\services\dev_bind\os/os.h ****  * @note None.
 207:..\..\..\..\cloud\alicloud\src\services\dev_bind\os/os.h ****  */
 208:..\..\..\..\cloud\alicloud\src\services\dev_bind\os/os.h **** static inline void os_msleep(_IN_ uint32_t ms)
 209:..\..\..\..\cloud\alicloud\src\services\dev_bind\os/os.h **** {
 210:..\..\..\..\cloud\alicloud\src\services\dev_bind\os/os.h ****     platform_msleep(ms);
 211:..\..\..\..\cloud\alicloud\src\services\dev_bind\os/os.h **** }
 212:..\..\..\..\cloud\alicloud\src\services\dev_bind\os/os.h **** 
 213:..\..\..\..\cloud\alicloud\src\services\dev_bind\os/os.h **** /**
 214:..\..\..\..\cloud\alicloud\src\services\dev_bind\os/os.h ****  * @brief sleep thread itself.
 215:..\..\..\..\cloud\alicloud\src\services\dev_bind\os/os.h ****  *
 216:..\..\..\..\cloud\alicloud\src\services\dev_bind\os/os.h ****  * @param[in] sec @n the time interval for which execution is to be suspended, in seconds.
 217:..\..\..\..\cloud\alicloud\src\services\dev_bind\os/os.h ****  * @return None.
 218:..\..\..\..\cloud\alicloud\src\services\dev_bind\os/os.h ****  * @see None.
 219:..\..\..\..\cloud\alicloud\src\services\dev_bind\os/os.h ****  * @note None.
 220:..\..\..\..\cloud\alicloud\src\services\dev_bind\os/os.h ****  */
 221:..\..\..\..\cloud\alicloud\src\services\dev_bind\os/os.h **** static inline void os_sleep(_IN_ uint32_t sec)
 222:..\..\..\..\cloud\alicloud\src\services\dev_bind\os/os.h **** {
 223:..\..\..\..\cloud\alicloud\src\services\dev_bind\os/os.h ****     platform_msleep(sec * 1000);
 224:..\..\..\..\cloud\alicloud\src\services\dev_bind\os/os.h **** }
 225:..\..\..\..\cloud\alicloud\src\services\dev_bind\os/os.h **** 
 226:..\..\..\..\cloud\alicloud\src\services\dev_bind\os/os.h **** /**
 227:..\..\..\..\cloud\alicloud\src\services\dev_bind\os/os.h ****  * @brief system reboot immediately.
 228:..\..\..\..\cloud\alicloud\src\services\dev_bind\os/os.h ****  *
 229:..\..\..\..\cloud\alicloud\src\services\dev_bind\os/os.h ****  * @return None.
 230:..\..\..\..\cloud\alicloud\src\services\dev_bind\os/os.h ****  * @see None.
 231:..\..\..\..\cloud\alicloud\src\services\dev_bind\os/os.h ****  * @note None.
 232:..\..\..\..\cloud\alicloud\src\services\dev_bind\os/os.h ****  */
 233:..\..\..\..\cloud\alicloud\src\services\dev_bind\os/os.h **** static inline void os_reboot()
 234:..\..\..\..\cloud\alicloud\src\services\dev_bind\os/os.h **** {
 235:..\..\..\..\cloud\alicloud\src\services\dev_bind\os/os.h ****     platform_reboot();
 236:..\..\..\..\cloud\alicloud\src\services\dev_bind\os/os.h **** }
 237:..\..\..\..\cloud\alicloud\src\services\dev_bind\os/os.h **** 
 238:..\..\..\..\cloud\alicloud\src\services\dev_bind\os/os.h **** /** @} *///end of os_misc
 239:..\..\..\..\cloud\alicloud\src\services\dev_bind\os/os.h **** 
 240:..\..\..\..\cloud\alicloud\src\services\dev_bind\os/os.h **** /***************************************** mutex Interface ****************************************
 241:..\..\..\..\cloud\alicloud\src\services\dev_bind\os/os.h **** 
 242:..\..\..\..\cloud\alicloud\src\services\dev_bind\os/os.h **** /** @defgroup group_os_mutex mutex
 243:..\..\..\..\cloud\alicloud\src\services\dev_bind\os/os.h ****  *  @{
 244:..\..\..\..\cloud\alicloud\src\services\dev_bind\os/os.h ****  */
 245:..\..\..\..\cloud\alicloud\src\services\dev_bind\os/os.h **** 
 246:..\..\..\..\cloud\alicloud\src\services\dev_bind\os/os.h **** /**
 247:..\..\..\..\cloud\alicloud\src\services\dev_bind\os/os.h ****  * @brief Create a mutex.
 248:..\..\..\..\cloud\alicloud\src\services\dev_bind\os/os.h ****  *
 249:..\..\..\..\cloud\alicloud\src\services\dev_bind\os/os.h ****  * @return Mutex handle.
 250:..\..\..\..\cloud\alicloud\src\services\dev_bind\os/os.h ****  * @see None.
 251:..\..\..\..\cloud\alicloud\src\services\dev_bind\os/os.h ****  * @note None.
 252:..\..\..\..\cloud\alicloud\src\services\dev_bind\os/os.h ****  */
 253:..\..\..\..\cloud\alicloud\src\services\dev_bind\os/os.h **** static inline void *os_mutex_init(void)
 254:..\..\..\..\cloud\alicloud\src\services\dev_bind\os/os.h **** {
 255:..\..\..\..\cloud\alicloud\src\services\dev_bind\os/os.h ****     return platform_mutex_init();
 256:..\..\..\..\cloud\alicloud\src\services\dev_bind\os/os.h **** }
 257:..\..\..\..\cloud\alicloud\src\services\dev_bind\os/os.h **** 
 258:..\..\..\..\cloud\alicloud\src\services\dev_bind\os/os.h **** /**
 259:..\..\..\..\cloud\alicloud\src\services\dev_bind\os/os.h ****  * @brief Destroy the specified mutex object, it will free related resource.
 260:..\..\..\..\cloud\alicloud\src\services\dev_bind\os/os.h ****  *
 261:..\..\..\..\cloud\alicloud\src\services\dev_bind\os/os.h ****  * @param[in] mutex @n The specified mutex.
 262:..\..\..\..\cloud\alicloud\src\services\dev_bind\os/os.h ****  * @return None.
 263:..\..\..\..\cloud\alicloud\src\services\dev_bind\os/os.h ****  * @see None.
 264:..\..\..\..\cloud\alicloud\src\services\dev_bind\os/os.h ****  * @note None.
 265:..\..\..\..\cloud\alicloud\src\services\dev_bind\os/os.h ****  */
 266:..\..\..\..\cloud\alicloud\src\services\dev_bind\os/os.h **** static inline void os_mutex_destroy(_IN_ void *mutex)
 267:..\..\..\..\cloud\alicloud\src\services\dev_bind\os/os.h **** {
 268:..\..\..\..\cloud\alicloud\src\services\dev_bind\os/os.h ****     platform_mutex_destroy(mutex);
 269:..\..\..\..\cloud\alicloud\src\services\dev_bind\os/os.h **** }
 270:..\..\..\..\cloud\alicloud\src\services\dev_bind\os/os.h **** 
 271:..\..\..\..\cloud\alicloud\src\services\dev_bind\os/os.h **** /**
 272:..\..\..\..\cloud\alicloud\src\services\dev_bind\os/os.h ****  * @brief Waits until the specified mutex is in the signaled state.
 273:..\..\..\..\cloud\alicloud\src\services\dev_bind\os/os.h ****  *
 274:..\..\..\..\cloud\alicloud\src\services\dev_bind\os/os.h ****  * @param[in] mutex @n the specified mutex.
 275:..\..\..\..\cloud\alicloud\src\services\dev_bind\os/os.h ****  * @return None.
 276:..\..\..\..\cloud\alicloud\src\services\dev_bind\os/os.h ****  * @see None.
 277:..\..\..\..\cloud\alicloud\src\services\dev_bind\os/os.h ****  * @note None.
 278:..\..\..\..\cloud\alicloud\src\services\dev_bind\os/os.h ****  */
 279:..\..\..\..\cloud\alicloud\src\services\dev_bind\os/os.h **** static inline void os_mutex_lock(_IN_ void *mutex)
 280:..\..\..\..\cloud\alicloud\src\services\dev_bind\os/os.h **** {
 281:..\..\..\..\cloud\alicloud\src\services\dev_bind\os/os.h ****     platform_mutex_lock(mutex);
 282:..\..\..\..\cloud\alicloud\src\services\dev_bind\os/os.h **** }
 283:..\..\..\..\cloud\alicloud\src\services\dev_bind\os/os.h **** 
 284:..\..\..\..\cloud\alicloud\src\services\dev_bind\os/os.h **** /**
 285:..\..\..\..\cloud\alicloud\src\services\dev_bind\os/os.h ****  * @brief Releases ownership of the specified mutex object..
 286:..\..\..\..\cloud\alicloud\src\services\dev_bind\os/os.h ****  *
 287:..\..\..\..\cloud\alicloud\src\services\dev_bind\os/os.h ****  * @param[in] mutex @n the specified mutex.
 288:..\..\..\..\cloud\alicloud\src\services\dev_bind\os/os.h ****  * @return None.
 289:..\..\..\..\cloud\alicloud\src\services\dev_bind\os/os.h ****  * @see None.
 290:..\..\..\..\cloud\alicloud\src\services\dev_bind\os/os.h ****  * @note None.
 291:..\..\..\..\cloud\alicloud\src\services\dev_bind\os/os.h ****  */
 292:..\..\..\..\cloud\alicloud\src\services\dev_bind\os/os.h **** static inline void os_mutex_unlock(_IN_ void *mutex)
 293:..\..\..\..\cloud\alicloud\src\services\dev_bind\os/os.h **** {
 294:..\..\..\..\cloud\alicloud\src\services\dev_bind\os/os.h ****     platform_mutex_unlock(mutex);
 295:..\..\..\..\cloud\alicloud\src\services\dev_bind\os/os.h **** }
 296:..\..\..\..\cloud\alicloud\src\services\dev_bind\os/os.h **** 
 297:..\..\..\..\cloud\alicloud\src\services\dev_bind\os/os.h **** /** @} */// end of os_mutex
 298:..\..\..\..\cloud\alicloud\src\services\dev_bind\os/os.h **** 
 299:..\..\..\..\cloud\alicloud\src\services\dev_bind\os/os.h **** /*************************************** semaphore Interface **************************************
 300:..\..\..\..\cloud\alicloud\src\services\dev_bind\os/os.h **** 
 301:..\..\..\..\cloud\alicloud\src\services\dev_bind\os/os.h **** /** @defgroup group_os_semaphore semaphore
 302:..\..\..\..\cloud\alicloud\src\services\dev_bind\os/os.h ****  *  @{
 303:..\..\..\..\cloud\alicloud\src\services\dev_bind\os/os.h ****  */
 304:..\..\..\..\cloud\alicloud\src\services\dev_bind\os/os.h **** 
 305:..\..\..\..\cloud\alicloud\src\services\dev_bind\os/os.h **** /**
 306:..\..\..\..\cloud\alicloud\src\services\dev_bind\os/os.h ****  * @brief Create a semaphore.
 307:..\..\..\..\cloud\alicloud\src\services\dev_bind\os/os.h ****  *
 308:..\..\..\..\cloud\alicloud\src\services\dev_bind\os/os.h ****  * @return semaphore handle.
 309:..\..\..\..\cloud\alicloud\src\services\dev_bind\os/os.h ****  * @see None.
 310:..\..\..\..\cloud\alicloud\src\services\dev_bind\os/os.h ****  * @note The recommended value of maximum count of the semaphore is 255.
 311:..\..\..\..\cloud\alicloud\src\services\dev_bind\os/os.h ****  */
 312:..\..\..\..\cloud\alicloud\src\services\dev_bind\os/os.h **** static inline void *os_semaphore_init(void)
 313:..\..\..\..\cloud\alicloud\src\services\dev_bind\os/os.h **** {
 314:..\..\..\..\cloud\alicloud\src\services\dev_bind\os/os.h ****     return platform_semaphore_init();
 315:..\..\..\..\cloud\alicloud\src\services\dev_bind\os/os.h **** }
 316:..\..\..\..\cloud\alicloud\src\services\dev_bind\os/os.h **** 
 317:..\..\..\..\cloud\alicloud\src\services\dev_bind\os/os.h **** /**
 318:..\..\..\..\cloud\alicloud\src\services\dev_bind\os/os.h ****  * @brief Destroy the specified semaphore object, it will free related resource.
 319:..\..\..\..\cloud\alicloud\src\services\dev_bind\os/os.h ****  *
 320:..\..\..\..\cloud\alicloud\src\services\dev_bind\os/os.h ****  * @param[in] sem @n the specified sem.
 321:..\..\..\..\cloud\alicloud\src\services\dev_bind\os/os.h ****  * @return None.
 322:..\..\..\..\cloud\alicloud\src\services\dev_bind\os/os.h ****  * @see None.
 323:..\..\..\..\cloud\alicloud\src\services\dev_bind\os/os.h ****  * @note None.
 324:..\..\..\..\cloud\alicloud\src\services\dev_bind\os/os.h ****  */
 325:..\..\..\..\cloud\alicloud\src\services\dev_bind\os/os.h **** static inline void os_semaphore_destroy(_IN_ void *sem)
 326:..\..\..\..\cloud\alicloud\src\services\dev_bind\os/os.h **** {
 327:..\..\..\..\cloud\alicloud\src\services\dev_bind\os/os.h ****     platform_semaphore_destroy(sem);
 328:..\..\..\..\cloud\alicloud\src\services\dev_bind\os/os.h **** }
 329:..\..\..\..\cloud\alicloud\src\services\dev_bind\os/os.h **** 
 330:..\..\..\..\cloud\alicloud\src\services\dev_bind\os/os.h **** /**
 331:..\..\..\..\cloud\alicloud\src\services\dev_bind\os/os.h ****  * @brief Wait until the specified mutex is in the signaled state or the time-out interval elapses.
 332:..\..\..\..\cloud\alicloud\src\services\dev_bind\os/os.h ****  *
 333:..\..\..\..\cloud\alicloud\src\services\dev_bind\os/os.h ****  * @param[in] sem @n the specified semaphore.
 334:..\..\..\..\cloud\alicloud\src\services\dev_bind\os/os.h ****  * @param[in] timeout_ms @n timeout interval in millisecond.
 335:..\..\..\..\cloud\alicloud\src\services\dev_bind\os/os.h ****      If timeout_ms is OS_WAIT_INFINITE, the function will return only when the semaphore is signale
 336:..\..\..\..\cloud\alicloud\src\services\dev_bind\os/os.h ****  * @return
 337:..\..\..\..\cloud\alicloud\src\services\dev_bind\os/os.h ****    @verbatim
 338:..\..\..\..\cloud\alicloud\src\services\dev_bind\os/os.h ****    =  0: The state of the specified object is signaled.
 339:..\..\..\..\cloud\alicloud\src\services\dev_bind\os/os.h ****    =  -1: The time-out interval elapsed, and the object's state is nonsignaled.
 340:..\..\..\..\cloud\alicloud\src\services\dev_bind\os/os.h ****    @endverbatim
 341:..\..\..\..\cloud\alicloud\src\services\dev_bind\os/os.h ****  * @see None.
 342:..\..\..\..\cloud\alicloud\src\services\dev_bind\os/os.h ****  * @note None.
 343:..\..\..\..\cloud\alicloud\src\services\dev_bind\os/os.h ****  */
 344:..\..\..\..\cloud\alicloud\src\services\dev_bind\os/os.h **** static inline int os_semaphore_wait(_IN_ void *sem, _IN_ uint32_t timeout_ms)
 345:..\..\..\..\cloud\alicloud\src\services\dev_bind\os/os.h **** {
 346:..\..\..\..\cloud\alicloud\src\services\dev_bind\os/os.h ****     return platform_semaphore_wait(sem, timeout_ms);
 347:..\..\..\..\cloud\alicloud\src\services\dev_bind\os/os.h **** }
 348:..\..\..\..\cloud\alicloud\src\services\dev_bind\os/os.h **** 
 349:..\..\..\..\cloud\alicloud\src\services\dev_bind\os/os.h **** /**
 350:..\..\..\..\cloud\alicloud\src\services\dev_bind\os/os.h ****  * @brief Increases the count of the specified semaphore object by 1.
 351:..\..\..\..\cloud\alicloud\src\services\dev_bind\os/os.h ****  *
 352:..\..\..\..\cloud\alicloud\src\services\dev_bind\os/os.h ****  * @param[in] sem @n the specified semaphore.
 353:..\..\..\..\cloud\alicloud\src\services\dev_bind\os/os.h ****  * @return None.
 354:..\..\..\..\cloud\alicloud\src\services\dev_bind\os/os.h ****  * @see None.
 355:..\..\..\..\cloud\alicloud\src\services\dev_bind\os/os.h ****  * @note None.
 356:..\..\..\..\cloud\alicloud\src\services\dev_bind\os/os.h ****  */
 357:..\..\..\..\cloud\alicloud\src\services\dev_bind\os/os.h **** static inline void os_semaphore_post(_IN_ void *sem)
 358:..\..\..\..\cloud\alicloud\src\services\dev_bind\os/os.h **** {
 359:..\..\..\..\cloud\alicloud\src\services\dev_bind\os/os.h ****     platform_semaphore_post(sem);
 360:..\..\..\..\cloud\alicloud\src\services\dev_bind\os/os.h **** }
 361:..\..\..\..\cloud\alicloud\src\services\dev_bind\os/os.h **** 
 362:..\..\..\..\cloud\alicloud\src\services\dev_bind\os/os.h **** /** @} */// end of os_semaphore
 363:..\..\..\..\cloud\alicloud\src\services\dev_bind\os/os.h **** 
 364:..\..\..\..\cloud\alicloud\src\services\dev_bind\os/os.h **** /**************************************** memory Interface ****************************************
 365:..\..\..\..\cloud\alicloud\src\services\dev_bind\os/os.h **** 
 366:..\..\..\..\cloud\alicloud\src\services\dev_bind\os/os.h **** /** @defgroup group_os_memory_manage memory
 367:..\..\..\..\cloud\alicloud\src\services\dev_bind\os/os.h ****  *  @{
 368:..\..\..\..\cloud\alicloud\src\services\dev_bind\os/os.h ****  */
 369:..\..\..\..\cloud\alicloud\src\services\dev_bind\os/os.h **** 
 370:..\..\..\..\cloud\alicloud\src\services\dev_bind\os/os.h **** /**
 371:..\..\..\..\cloud\alicloud\src\services\dev_bind\os/os.h ****  * @brief Allocates a block of size bytes of memory, returning a pointer to the beginning of the bl
 372:..\..\..\..\cloud\alicloud\src\services\dev_bind\os/os.h ****  *
 373:..\..\..\..\cloud\alicloud\src\services\dev_bind\os/os.h ****  * @param[in] size @n specify block size in bytes.
 374:..\..\..\..\cloud\alicloud\src\services\dev_bind\os/os.h ****  * @return A pointer to the beginning of the block.
 375:..\..\..\..\cloud\alicloud\src\services\dev_bind\os/os.h ****  * @see None.
 376:..\..\..\..\cloud\alicloud\src\services\dev_bind\os/os.h ****  * @note Block value is indeterminate.
 377:..\..\..\..\cloud\alicloud\src\services\dev_bind\os/os.h ****  */
 378:..\..\..\..\cloud\alicloud\src\services\dev_bind\os/os.h **** static inline void *os_malloc(_IN_ uint32_t size)
 379:..\..\..\..\cloud\alicloud\src\services\dev_bind\os/os.h **** {
 380:..\..\..\..\cloud\alicloud\src\services\dev_bind\os/os.h ****     return platform_malloc(size);
 381:..\..\..\..\cloud\alicloud\src\services\dev_bind\os/os.h **** }
 382:..\..\..\..\cloud\alicloud\src\services\dev_bind\os/os.h **** 
 383:..\..\..\..\cloud\alicloud\src\services\dev_bind\os/os.h **** 
 384:..\..\..\..\cloud\alicloud\src\services\dev_bind\os/os.h **** /**
 385:..\..\..\..\cloud\alicloud\src\services\dev_bind\os/os.h ****  * @brief Deallocate memory block
 386:..\..\..\..\cloud\alicloud\src\services\dev_bind\os/os.h ****  *
 387:..\..\..\..\cloud\alicloud\src\services\dev_bind\os/os.h ****  * @param[in] ptr @n Pointer to a memory block previously allocated with platform_malloc.
 388:..\..\..\..\cloud\alicloud\src\services\dev_bind\os/os.h ****  * @return None.
 389:..\..\..\..\cloud\alicloud\src\services\dev_bind\os/os.h ****  * @see None.
 390:..\..\..\..\cloud\alicloud\src\services\dev_bind\os/os.h ****  * @note None.
 391:..\..\..\..\cloud\alicloud\src\services\dev_bind\os/os.h ****  */
 392:..\..\..\..\cloud\alicloud\src\services\dev_bind\os/os.h **** static inline void os_free(_IN_ void *ptr)
 393:..\..\..\..\cloud\alicloud\src\services\dev_bind\os/os.h **** {
 394:..\..\..\..\cloud\alicloud\src\services\dev_bind\os/os.h ****     platform_free(ptr);
 395:..\..\..\..\cloud\alicloud\src\services\dev_bind\os/os.h **** }
 396:..\..\..\..\cloud\alicloud\src\services\dev_bind\os/os.h **** 
 397:..\..\..\..\cloud\alicloud\src\services\dev_bind\os/os.h **** /**
 398:..\..\..\..\cloud\alicloud\src\services\dev_bind\os/os.h ****  * @brief Allocates a memory block with memory initialized to 0,
 399:..\..\..\..\cloud\alicloud\src\services\dev_bind\os/os.h ****      returning a pointer to the beginning of the block.
 400:..\..\..\..\cloud\alicloud\src\services\dev_bind\os/os.h ****  *
 401:..\..\..\..\cloud\alicloud\src\services\dev_bind\os/os.h ****  * @param[in] size @n specify block size in bytes.
 402:..\..\..\..\cloud\alicloud\src\services\dev_bind\os/os.h ****  * @return A pointer to the beginning of the block.
 403:..\..\..\..\cloud\alicloud\src\services\dev_bind\os/os.h ****  * @see None.
 404:..\..\..\..\cloud\alicloud\src\services\dev_bind\os/os.h ****  * @note Block value is indeterminate.
 405:..\..\..\..\cloud\alicloud\src\services\dev_bind\os/os.h ****  */
 406:..\..\..\..\cloud\alicloud\src\services\dev_bind\os/os.h **** static inline void *os_zalloc(uint32_t size)
 579              		.loc 2 406 21 is_stmt 1
 580              		.cfi_startproc
 581 0000 17030000 		call	t0,__riscv_save_1
 581      E7020300 
 582              		.cfi_offset 8, -8
 583              		.cfi_offset 1, -4
 584              		.cfi_def_cfa_offset 16
 585              	.LVL72:
 407:..\..\..\..\cloud\alicloud\src\services\dev_bind\os/os.h **** {
 408:..\..\..\..\cloud\alicloud\src\services\dev_bind\os/os.h ****     void *ptr = os_malloc(size);
 586              		.loc 2 408 5
 587              	.LBB26:
 588              	.LBB27:
 380:..\..\..\..\cloud\alicloud\src\services\dev_bind\os/os.h **** }
 589              		.loc 2 380 5
 380:..\..\..\..\cloud\alicloud\src\services\dev_bind\os/os.h **** }
 590              		.loc 2 380 12 is_stmt 0
 591 0008 13050024 		li	a0,576
 592 000c 97000000 		call	HAL_Malloc
 592      E7800000 
 593              	.LVL73:
 594 0014 2A84     		mv	s0,a0
 595              	.LVL74:
 596              	.LBE27:
 597              	.LBE26:
 409:..\..\..\..\cloud\alicloud\src\services\dev_bind\os/os.h ****     if (ptr != NULL) {
 598              		.loc 2 409 5 is_stmt 1
 599              		.loc 2 409 8 is_stmt 0
 600 0016 01C9     		beq	a0,zero,.L40
 410:..\..\..\..\cloud\alicloud\src\services\dev_bind\os/os.h ****         memset(ptr, 0, size);
 601              		.loc 2 410 9 is_stmt 1
 602 0018 13060024 		li	a2,576
 603 001c 8145     		li	a1,0
 604 001e 97000000 		call	memset
 604      E7800000 
 605              	.LVL75:
 411:..\..\..\..\cloud\alicloud\src\services\dev_bind\os/os.h ****     }
 412:..\..\..\..\cloud\alicloud\src\services\dev_bind\os/os.h ****     return ptr;
 606              		.loc 2 412 5
 607              	.L40:
 413:..\..\..\..\cloud\alicloud\src\services\dev_bind\os/os.h **** }
 608              		.loc 2 413 1 is_stmt 0
 609 0026 2285     		mv	a0,s0
 610 0028 17030000 		tail	__riscv_restore_1
 610      67000300 
 611              		.cfi_restore 8
 612              		.cfi_restore 1
 613              		.cfi_def_cfa_offset 0
 614              		.cfi_endproc
 615              	.LFE83:
 617              		.section	.rodata.awss_process_get_devinfo.str1.4,"aMS",@progbits,1
 618              		.align	2
 619              	.LC16:
 620 0000 74727920 		.string	"try to report token to cloud"
 620      746F2072 
 620      65706F72 
 620      7420746F 
 620      6B656E20 
 621 001d 000000   		.align	2
 622              	.LC17:
 623 0020 6E6F2067 		.string	"no get req"
 623      65742072 
 623      657100
 624 002b 00       		.align	2
 625              	.LC18:
 626 002c 7B25737D 		.string	"{%s}"
 626      00
 627 0031 000000   		.align	2
 628              	.LC19:
 629 0034 7B226964 		.string	"{\"id\":%s,\"code\":%d,\"data\":%s}"
 629      223A2573 
 629      2C22636F 
 629      6465223A 
 629      25642C22 
 630 0052 0000     		.align	2
 631              	.LC20:
 632 0054 5B696E66 		.string	"[inf] "
 632      5D2000
 633 005b 00       		.align	2
 634              	.LC21:
 635 005c 73656E64 		.string	"sending message to app: %s"
 635      696E6720 
 635      6D657373 
 635      61676520 
 635      746F2061 
 636 0077 00       		.align	2
 637              	.LC22:
 638 0078 2F737973 		.string	"/sys/device/info/get"
 638      2F646576 
 638      6963652F 
 638      696E666F 
 638      2F676574 
 639 008d 000000   		.align	2
 640              	.LC23:
 641 0090 2F737973 		.string	"/sys/%s/%s/device/info/get"
 641      2F25732F 
 641      25732F64 
 641      65766963 
 641      652F696E 
 642 00ab 00       		.align	2
 643              	.LC24:
 644 00ac 73656E64 		.string	"sending failed."
 644      696E6720 
 644      6661696C 
 644      65642E00 
 645              		.align	2
 646              	.LC25:
 647 00bc 67657420 		.string	"get token response fail"
 647      746F6B65 
 647      6E207265 
 647      73706F6E 
 647      73652066 
 648              		.section	.text.awss_process_get_devinfo,"ax",@progbits
 649              		.align	1
 651              	awss_process_get_devinfo:
 652              	.LFB69:
 260:C:/Users/stapi/OneDrive/Desktop/GD32VW553/V1_MQTT_OK/GD32VW55X_Wifi_BLE_SDK/GD32VW55x_RELEASE_V1.0.2/MSDK/cloud/alicloud/src/services/dev_bind\awss_notify.c ****     char *buf = NULL;
 653              		.loc 1 260 1 is_stmt 1
 654              		.cfi_startproc
 655 0000 17030000 		call	t0,__riscv_save_5
 655      E7020300 
 656              		.cfi_offset 20, -24
 657              		.cfi_offset 19, -20
 658              		.cfi_offset 18, -16
 659              		.cfi_offset 9, -12
 660              		.cfi_offset 8, -8
 661              		.cfi_offset 1, -4
 662              		.cfi_def_cfa_offset 32
 261:C:/Users/stapi/OneDrive/Desktop/GD32VW553/V1_MQTT_OK/GD32VW55X_Wifi_BLE_SDK/GD32VW55x_RELEASE_V1.0.2/MSDK/cloud/alicloud/src/services/dev_bind\awss_notify.c ****     char *dev_info = NULL;
 663              		.loc 1 261 5
 664              	.LVL76:
 262:C:/Users/stapi/OneDrive/Desktop/GD32VW553/V1_MQTT_OK/GD32VW55X_Wifi_BLE_SDK/GD32VW55x_RELEASE_V1.0.2/MSDK/cloud/alicloud/src/services/dev_bind\awss_notify.c ****     int ret;
 665              		.loc 1 262 5
 263:C:/Users/stapi/OneDrive/Desktop/GD32VW553/V1_MQTT_OK/GD32VW55X_Wifi_BLE_SDK/GD32VW55x_RELEASE_V1.0.2/MSDK/cloud/alicloud/src/services/dev_bind\awss_notify.c ****     if (awss_report_token_suc == 0) {
 666              		.loc 1 263 5
 264:C:/Users/stapi/OneDrive/Desktop/GD32VW553/V1_MQTT_OK/GD32VW55X_Wifi_BLE_SDK/GD32VW55x_RELEASE_V1.0.2/MSDK/cloud/alicloud/src/services/dev_bind\awss_notify.c ****         awss_debug("try to report token to cloud");
 667              		.loc 1 264 5
 264:C:/Users/stapi/OneDrive/Desktop/GD32VW553/V1_MQTT_OK/GD32VW55X_Wifi_BLE_SDK/GD32VW55x_RELEASE_V1.0.2/MSDK/cloud/alicloud/src/services/dev_bind\awss_notify.c ****         awss_debug("try to report token to cloud");
 668              		.loc 1 264 8 is_stmt 0
 669 0008 B7070000 		lui	a5,%hi(awss_report_token_suc)
 260:C:/Users/stapi/OneDrive/Desktop/GD32VW553/V1_MQTT_OK/GD32VW55X_Wifi_BLE_SDK/GD32VW55x_RELEASE_V1.0.2/MSDK/cloud/alicloud/src/services/dev_bind\awss_notify.c ****     char *buf = NULL;
 670              		.loc 1 260 1
 671 000c 3171     		addi	sp,sp,-192
 672              		.cfi_def_cfa_offset 224
 264:C:/Users/stapi/OneDrive/Desktop/GD32VW553/V1_MQTT_OK/GD32VW55X_Wifi_BLE_SDK/GD32VW55x_RELEASE_V1.0.2/MSDK/cloud/alicloud/src/services/dev_bind\awss_notify.c ****         awss_debug("try to report token to cloud");
 673              		.loc 1 264 8
 674 000e 83870700 		lb	a5,%lo(awss_report_token_suc)(a5)
 675 0012 A1E3     		bne	a5,zero,.L47
 265:C:/Users/stapi/OneDrive/Desktop/GD32VW553/V1_MQTT_OK/GD32VW55X_Wifi_BLE_SDK/GD32VW55x_RELEASE_V1.0.2/MSDK/cloud/alicloud/src/services/dev_bind\awss_notify.c ****         HAL_Timer_Start(get_devinfo_timer, AWSS_CHECK_RESP_TIME);
 676              		.loc 1 265 9 is_stmt 1
 677 0014 37070000 		lui	a4,%hi(.LC16)
 678 0018 B7050000 		lui	a1,%hi(.LANCHOR6)
 679 001c 37050000 		lui	a0,%hi(.LC1)
 680 0020 93850500 		addi	a1,a1,%lo(.LANCHOR6)
 681 0024 13050500 		addi	a0,a0,%lo(.LC1)
 682 0028 13070700 		addi	a4,a4,%lo(.LC16)
 683 002c 9546     		li	a3,5
 684 002e 13069010 		li	a2,265
 685 0032 97000000 		call	LITE_syslog
 685      E7800000 
 686              	.LVL77:
 266:C:/Users/stapi/OneDrive/Desktop/GD32VW553/V1_MQTT_OK/GD32VW55X_Wifi_BLE_SDK/GD32VW55x_RELEASE_V1.0.2/MSDK/cloud/alicloud/src/services/dev_bind\awss_notify.c ****         return 0;
 687              		.loc 1 266 9
 688 003a B7070000 		lui	a5,%hi(.LANCHOR5)
 689 003e 03A50700 		lw	a0,%lo(.LANCHOR5)(a5)
 690 0042 9305C012 		li	a1,300
 691 0046 97000000 		call	HAL_Timer_Start
 691      E7800000 
 692              	.LVL78:
 267:C:/Users/stapi/OneDrive/Desktop/GD32VW553/V1_MQTT_OK/GD32VW55X_Wifi_BLE_SDK/GD32VW55x_RELEASE_V1.0.2/MSDK/cloud/alicloud/src/services/dev_bind\awss_notify.c ****     }
 693              		.loc 1 267 9
 694              	.L72:
 336:C:/Users/stapi/OneDrive/Desktop/GD32VW553/V1_MQTT_OK/GD32VW55X_Wifi_BLE_SDK/GD32VW55x_RELEASE_V1.0.2/MSDK/cloud/alicloud/src/services/dev_bind\awss_notify.c **** 
 695              		.loc 1 336 13 discriminator 1
 338:C:/Users/stapi/OneDrive/Desktop/GD32VW553/V1_MQTT_OK/GD32VW55X_Wifi_BLE_SDK/GD32VW55x_RELEASE_V1.0.2/MSDK/cloud/alicloud/src/services/dev_bind\awss_notify.c **** 
 696              		.loc 1 338 5 discriminator 1
 338:C:/Users/stapi/OneDrive/Desktop/GD32VW553/V1_MQTT_OK/GD32VW55X_Wifi_BLE_SDK/GD32VW55x_RELEASE_V1.0.2/MSDK/cloud/alicloud/src/services/dev_bind\awss_notify.c **** 
 697              		.loc 1 338 12 is_stmt 0 discriminator 1
 698 004e 8144     		li	s1,0
 699 0050 2DA8     		j	.L46
 700              	.LVL79:
 701              	.L47:
 270:C:/Users/stapi/OneDrive/Desktop/GD32VW553/V1_MQTT_OK/GD32VW55X_Wifi_BLE_SDK/GD32VW55x_RELEASE_V1.0.2/MSDK/cloud/alicloud/src/services/dev_bind\awss_notify.c ****         awss_debug("no get req");
 702              		.loc 1 270 5 is_stmt 1
 270:C:/Users/stapi/OneDrive/Desktop/GD32VW553/V1_MQTT_OK/GD32VW55X_Wifi_BLE_SDK/GD32VW55x_RELEASE_V1.0.2/MSDK/cloud/alicloud/src/services/dev_bind\awss_notify.c ****         awss_debug("no get req");
 703              		.loc 1 270 26 is_stmt 0
 704 0052 B7090000 		lui	s3,%hi(.LANCHOR4)
 705 0056 83A40900 		lw	s1,%lo(.LANCHOR4)(s3)
 706 005a 93890900 		addi	s3,s3,%lo(.LANCHOR4)
 270:C:/Users/stapi/OneDrive/Desktop/GD32VW553/V1_MQTT_OK/GD32VW55X_Wifi_BLE_SDK/GD32VW55x_RELEASE_V1.0.2/MSDK/cloud/alicloud/src/services/dev_bind\awss_notify.c ****         awss_debug("no get req");
 707              		.loc 1 270 8
 708 005e 85EC     		bne	s1,zero,.L49
 271:C:/Users/stapi/OneDrive/Desktop/GD32VW553/V1_MQTT_OK/GD32VW55X_Wifi_BLE_SDK/GD32VW55x_RELEASE_V1.0.2/MSDK/cloud/alicloud/src/services/dev_bind\awss_notify.c ****         return STATE_USER_INPUT_NULL_POINTER;
 709              		.loc 1 271 9 is_stmt 1
 710 0060 37070000 		lui	a4,%hi(.LC17)
 711 0064 B7050000 		lui	a1,%hi(.LANCHOR6)
 712 0068 37050000 		lui	a0,%hi(.LC1)
 713 006c 13070700 		addi	a4,a4,%lo(.LC17)
 714 0070 9546     		li	a3,5
 715 0072 1306F010 		li	a2,271
 716 0076 93850500 		addi	a1,a1,%lo(.LANCHOR6)
 717 007a 13050500 		addi	a0,a0,%lo(.LC1)
 718 007e 97000000 		call	LITE_syslog
 718      E7800000 
 719              	.LVL80:
 272:C:/Users/stapi/OneDrive/Desktop/GD32VW553/V1_MQTT_OK/GD32VW55X_Wifi_BLE_SDK/GD32VW55x_RELEASE_V1.0.2/MSDK/cloud/alicloud/src/services/dev_bind\awss_notify.c ****     }
 720              		.loc 1 272 9
 272:C:/Users/stapi/OneDrive/Desktop/GD32VW553/V1_MQTT_OK/GD32VW55X_Wifi_BLE_SDK/GD32VW55x_RELEASE_V1.0.2/MSDK/cloud/alicloud/src/services/dev_bind\awss_notify.c ****     }
 721              		.loc 1 272 16 is_stmt 0
 722 0086 9304F0EF 		li	s1,-257
 723              	.LVL81:
 724              	.L46:
 355:C:/Users/stapi/OneDrive/Desktop/GD32VW553/V1_MQTT_OK/GD32VW55X_Wifi_BLE_SDK/GD32VW55x_RELEASE_V1.0.2/MSDK/cloud/alicloud/src/services/dev_bind\awss_notify.c **** 
 725              		.loc 1 355 1
 726 008a 2685     		mv	a0,s1
 727 008c 2961     		addi	sp,sp,192
 728              		.cfi_remember_state
 729              		.cfi_def_cfa_offset 0
 730 008e 17030000 		tail	__riscv_restore_5
 730      67000300 
 731              		.cfi_restore 20
 732              		.cfi_restore 19
 733              		.cfi_restore 18
 734              		.cfi_restore 9
 735              		.cfi_restore 8
 736              		.cfi_restore 1
 737              		.cfi_def_cfa_offset -32
 738              	.LVL82:
 739              	.L49:
 740              		.cfi_restore_state
 275:C:/Users/stapi/OneDrive/Desktop/GD32VW553/V1_MQTT_OK/GD32VW55X_Wifi_BLE_SDK/GD32VW55x_RELEASE_V1.0.2/MSDK/cloud/alicloud/src/services/dev_bind\awss_notify.c ****         int len = 0, id_len = 0;
 741              		.loc 1 275 5 is_stmt 1
 742              	.LBB28:
 276:C:/Users/stapi/OneDrive/Desktop/GD32VW553/V1_MQTT_OK/GD32VW55X_Wifi_BLE_SDK/GD32VW55x_RELEASE_V1.0.2/MSDK/cloud/alicloud/src/services/dev_bind\awss_notify.c ****         char *msg = NULL, *id = NULL;
 743              		.loc 1 276 9
 279:C:/Users/stapi/OneDrive/Desktop/GD32VW553/V1_MQTT_OK/GD32VW55X_Wifi_BLE_SDK/GD32VW55x_RELEASE_V1.0.2/MSDK/cloud/alicloud/src/services/dev_bind\awss_notify.c ****         struct coap_session_ctx_t *ctx = (struct coap_session_ctx_t *)coap_session_ctx;
 744              		.loc 1 279 14 is_stmt 0
 745 0096 7546     		li	a2,29
 746 0098 8145     		li	a1,0
 747 009a 0810     		addi	a0,sp,32
 276:C:/Users/stapi/OneDrive/Desktop/GD32VW553/V1_MQTT_OK/GD32VW55X_Wifi_BLE_SDK/GD32VW55x_RELEASE_V1.0.2/MSDK/cloud/alicloud/src/services/dev_bind\awss_notify.c ****         char *msg = NULL, *id = NULL;
 748              		.loc 1 276 13
 749 009c 02C0     		sw	zero,0(sp)
 276:C:/Users/stapi/OneDrive/Desktop/GD32VW553/V1_MQTT_OK/GD32VW55X_Wifi_BLE_SDK/GD32VW55x_RELEASE_V1.0.2/MSDK/cloud/alicloud/src/services/dev_bind\awss_notify.c ****         char *msg = NULL, *id = NULL;
 750              		.loc 1 276 22
 751 009e 02C2     		sw	zero,4(sp)
 277:C:/Users/stapi/OneDrive/Desktop/GD32VW553/V1_MQTT_OK/GD32VW55X_Wifi_BLE_SDK/GD32VW55x_RELEASE_V1.0.2/MSDK/cloud/alicloud/src/services/dev_bind\awss_notify.c ****         char req_msg_id[MSG_REQ_ID_LEN + 1];
 752              		.loc 1 277 9 is_stmt 1
 753              	.LVL83:
 278:C:/Users/stapi/OneDrive/Desktop/GD32VW553/V1_MQTT_OK/GD32VW55X_Wifi_BLE_SDK/GD32VW55x_RELEASE_V1.0.2/MSDK/cloud/alicloud/src/services/dev_bind\awss_notify.c ****         char rand_str[RANDOM_MAX_LEN * 2 + 1] = {0};
 754              		.loc 1 278 9
 279:C:/Users/stapi/OneDrive/Desktop/GD32VW553/V1_MQTT_OK/GD32VW55X_Wifi_BLE_SDK/GD32VW55x_RELEASE_V1.0.2/MSDK/cloud/alicloud/src/services/dev_bind\awss_notify.c ****         struct coap_session_ctx_t *ctx = (struct coap_session_ctx_t *)coap_session_ctx;
 755              		.loc 1 279 9
 279:C:/Users/stapi/OneDrive/Desktop/GD32VW553/V1_MQTT_OK/GD32VW55X_Wifi_BLE_SDK/GD32VW55x_RELEASE_V1.0.2/MSDK/cloud/alicloud/src/services/dev_bind\awss_notify.c ****         struct coap_session_ctx_t *ctx = (struct coap_session_ctx_t *)coap_session_ctx;
 756              		.loc 1 279 14 is_stmt 0
 757 00a0 02CE     		sw	zero,28(sp)
 758 00a2 97000000 		call	memset
 758      E7800000 
 759              	.LVL84:
 280:C:/Users/stapi/OneDrive/Desktop/GD32VW553/V1_MQTT_OK/GD32VW55X_Wifi_BLE_SDK/GD32VW55x_RELEASE_V1.0.2/MSDK/cloud/alicloud/src/services/dev_bind\awss_notify.c **** 
 760              		.loc 1 280 9 is_stmt 1
 282:C:/Users/stapi/OneDrive/Desktop/GD32VW553/V1_MQTT_OK/GD32VW55X_Wifi_BLE_SDK/GD32VW55x_RELEASE_V1.0.2/MSDK/cloud/alicloud/src/services/dev_bind\awss_notify.c ****         if (buf == NULL) {
 761              		.loc 1 282 9
 282:C:/Users/stapi/OneDrive/Desktop/GD32VW553/V1_MQTT_OK/GD32VW55X_Wifi_BLE_SDK/GD32VW55x_RELEASE_V1.0.2/MSDK/cloud/alicloud/src/services/dev_bind\awss_notify.c ****         if (buf == NULL) {
 762              		.loc 1 282 15 is_stmt 0
 763 00aa 97000000 		call	os_zalloc.constprop.0
 763      E7800000 
 764              	.LVL85:
 765 00b2 370A0000 		lui	s4,%hi(.LANCHOR5)
 766 00b6 2A84     		mv	s0,a0
 767              	.LVL86:
 283:C:/Users/stapi/OneDrive/Desktop/GD32VW553/V1_MQTT_OK/GD32VW55X_Wifi_BLE_SDK/GD32VW55x_RELEASE_V1.0.2/MSDK/cloud/alicloud/src/services/dev_bind\awss_notify.c ****             ret = STATE_SYS_DEPEND_MALLOC;
 768              		.loc 1 283 9 is_stmt 1
 769 00b8 130A0A00 		addi	s4,s4,%lo(.LANCHOR5)
 283:C:/Users/stapi/OneDrive/Desktop/GD32VW553/V1_MQTT_OK/GD32VW55X_Wifi_BLE_SDK/GD32VW55x_RELEASE_V1.0.2/MSDK/cloud/alicloud/src/services/dev_bind\awss_notify.c ****             ret = STATE_SYS_DEPEND_MALLOC;
 770              		.loc 1 283 12 is_stmt 0
 771 00bc 6301051E 		beq	a0,zero,.L50
 287:C:/Users/stapi/OneDrive/Desktop/GD32VW553/V1_MQTT_OK/GD32VW55X_Wifi_BLE_SDK/GD32VW55x_RELEASE_V1.0.2/MSDK/cloud/alicloud/src/services/dev_bind\awss_notify.c ****         if (dev_info == NULL) {
 772              		.loc 1 287 9 is_stmt 1
 287:C:/Users/stapi/OneDrive/Desktop/GD32VW553/V1_MQTT_OK/GD32VW55X_Wifi_BLE_SDK/GD32VW55x_RELEASE_V1.0.2/MSDK/cloud/alicloud/src/services/dev_bind\awss_notify.c ****         if (dev_info == NULL) {
 773              		.loc 1 287 20 is_stmt 0
 774 00c0 97000000 		call	os_zalloc.constprop.0
 774      E7800000 
 775              	.LVL87:
 776 00c8 2A89     		mv	s2,a0
 777              	.LVL88:
 288:C:/Users/stapi/OneDrive/Desktop/GD32VW553/V1_MQTT_OK/GD32VW55X_Wifi_BLE_SDK/GD32VW55x_RELEASE_V1.0.2/MSDK/cloud/alicloud/src/services/dev_bind\awss_notify.c ****             ret = STATE_SYS_DEPEND_MALLOC;
 778              		.loc 1 288 9 is_stmt 1
 288:C:/Users/stapi/OneDrive/Desktop/GD32VW553/V1_MQTT_OK/GD32VW55X_Wifi_BLE_SDK/GD32VW55x_RELEASE_V1.0.2/MSDK/cloud/alicloud/src/services/dev_bind\awss_notify.c ****             ret = STATE_SYS_DEPEND_MALLOC;
 779              		.loc 1 288 12 is_stmt 0
 780 00ca 630A051C 		beq	a0,zero,.L50
 292:C:/Users/stapi/OneDrive/Desktop/GD32VW553/V1_MQTT_OK/GD32VW55X_Wifi_BLE_SDK/GD32VW55x_RELEASE_V1.0.2/MSDK/cloud/alicloud/src/services/dev_bind\awss_notify.c ****         if (msg == NULL) {
 781              		.loc 1 292 9 is_stmt 1
 292:C:/Users/stapi/OneDrive/Desktop/GD32VW553/V1_MQTT_OK/GD32VW55X_Wifi_BLE_SDK/GD32VW55x_RELEASE_V1.0.2/MSDK/cloud/alicloud/src/services/dev_bind\awss_notify.c ****         if (msg == NULL) {
 782              		.loc 1 292 15 is_stmt 0
 783 00ce 8840     		lw	a0,0(s1)
 784              	.LVL89:
 785 00d0 8A85     		mv	a1,sp
 786 00d2 97000000 		call	awss_cmp_get_coap_payload
 786      E7800000 
 787              	.LVL90:
 293:C:/Users/stapi/OneDrive/Desktop/GD32VW553/V1_MQTT_OK/GD32VW55X_Wifi_BLE_SDK/GD32VW55x_RELEASE_V1.0.2/MSDK/cloud/alicloud/src/services/dev_bind\awss_notify.c ****             ret = STATE_BIND_COAP_MSG_INVALID;
 788              		.loc 1 293 9 is_stmt 1
 293:C:/Users/stapi/OneDrive/Desktop/GD32VW553/V1_MQTT_OK/GD32VW55X_Wifi_BLE_SDK/GD32VW55x_RELEASE_V1.0.2/MSDK/cloud/alicloud/src/services/dev_bind\awss_notify.c ****             ret = STATE_BIND_COAP_MSG_INVALID;
 789              		.loc 1 293 12 is_stmt 0
 790 00da 630F0520 		beq	a0,zero,.L57
 298:C:/Users/stapi/OneDrive/Desktop/GD32VW553/V1_MQTT_OK/GD32VW55X_Wifi_BLE_SDK/GD32VW55x_RELEASE_V1.0.2/MSDK/cloud/alicloud/src/services/dev_bind\awss_notify.c ****         if (id_len > MSG_REQ_ID_LEN) {
 791              		.loc 1 298 9 is_stmt 1
 298:C:/Users/stapi/OneDrive/Desktop/GD32VW553/V1_MQTT_OK/GD32VW55X_Wifi_BLE_SDK/GD32VW55x_RELEASE_V1.0.2/MSDK/cloud/alicloud/src/services/dev_bind\awss_notify.c ****         if (id_len > MSG_REQ_ID_LEN) {
 792              		.loc 1 298 14 is_stmt 0
 793 00de 8245     		lw	a1,0(sp)
 794 00e0 37060000 		lui	a2,%hi(.LC6)
 795 00e4 13060600 		addi	a2,a2,%lo(.LC6)
 796 00e8 0147     		li	a4,0
 797 00ea 5400     		addi	a3,sp,4
 798 00ec 97000000 		call	json_get_value_by_name
 798      E7800000 
 799              	.LVL91:
 299:C:/Users/stapi/OneDrive/Desktop/GD32VW553/V1_MQTT_OK/GD32VW55X_Wifi_BLE_SDK/GD32VW55x_RELEASE_V1.0.2/MSDK/cloud/alicloud/src/services/dev_bind\awss_notify.c ****             ret = STATE_BIND_COAP_MSG_INVALID;
 800              		.loc 1 299 20
 801 00f4 1246     		lw	a2,4(sp)
 299:C:/Users/stapi/OneDrive/Desktop/GD32VW553/V1_MQTT_OK/GD32VW55X_Wifi_BLE_SDK/GD32VW55x_RELEASE_V1.0.2/MSDK/cloud/alicloud/src/services/dev_bind\awss_notify.c ****             ret = STATE_BIND_COAP_MSG_INVALID;
 802              		.loc 1 299 12
 803 00f6 C147     		li	a5,16
 298:C:/Users/stapi/OneDrive/Desktop/GD32VW553/V1_MQTT_OK/GD32VW55X_Wifi_BLE_SDK/GD32VW55x_RELEASE_V1.0.2/MSDK/cloud/alicloud/src/services/dev_bind\awss_notify.c ****         if (id_len > MSG_REQ_ID_LEN) {
 804              		.loc 1 298 14
 805 00f8 AA85     		mv	a1,a0
 806              	.LVL92:
 299:C:/Users/stapi/OneDrive/Desktop/GD32VW553/V1_MQTT_OK/GD32VW55X_Wifi_BLE_SDK/GD32VW55x_RELEASE_V1.0.2/MSDK/cloud/alicloud/src/services/dev_bind\awss_notify.c ****             ret = STATE_BIND_COAP_MSG_INVALID;
 807              		.loc 1 299 9 is_stmt 1
 299:C:/Users/stapi/OneDrive/Desktop/GD32VW553/V1_MQTT_OK/GD32VW55X_Wifi_BLE_SDK/GD32VW55x_RELEASE_V1.0.2/MSDK/cloud/alicloud/src/services/dev_bind\awss_notify.c ****             ret = STATE_BIND_COAP_MSG_INVALID;
 808              		.loc 1 299 12 is_stmt 0
 809 00fa 63CFC71E 		bgt	a2,a5,.L57
 304:C:/Users/stapi/OneDrive/Desktop/GD32VW553/V1_MQTT_OK/GD32VW55X_Wifi_BLE_SDK/GD32VW55x_RELEASE_V1.0.2/MSDK/cloud/alicloud/src/services/dev_bind\awss_notify.c ****         memcpy(req_msg_id, id, id_len);
 810              		.loc 1 304 9 is_stmt 1
 305:C:/Users/stapi/OneDrive/Desktop/GD32VW553/V1_MQTT_OK/GD32VW55X_Wifi_BLE_SDK/GD32VW55x_RELEASE_V1.0.2/MSDK/cloud/alicloud/src/services/dev_bind\awss_notify.c **** 
 811              		.loc 1 305 9 is_stmt 0
 812 00fe 2800     		addi	a0,sp,8
 813              	.LVL93:
 304:C:/Users/stapi/OneDrive/Desktop/GD32VW553/V1_MQTT_OK/GD32VW55X_Wifi_BLE_SDK/GD32VW55x_RELEASE_V1.0.2/MSDK/cloud/alicloud/src/services/dev_bind\awss_notify.c ****         memcpy(req_msg_id, id, id_len);
 814              		.loc 1 304 9
 815 0100 02C4     		sw	zero,8(sp)
 816 0102 02C6     		sw	zero,12(sp)
 817 0104 02C8     		sw	zero,16(sp)
 818 0106 02CA     		sw	zero,20(sp)
 819 0108 230C0100 		sb	zero,24(sp)
 305:C:/Users/stapi/OneDrive/Desktop/GD32VW553/V1_MQTT_OK/GD32VW55X_Wifi_BLE_SDK/GD32VW55x_RELEASE_V1.0.2/MSDK/cloud/alicloud/src/services/dev_bind\awss_notify.c **** 
 820              		.loc 1 305 9 is_stmt 1
 821 010c 97000000 		call	memcpy
 821      E7800000 
 822              	.LVL94:
 307:C:/Users/stapi/OneDrive/Desktop/GD32VW553/V1_MQTT_OK/GD32VW55X_Wifi_BLE_SDK/GD32VW55x_RELEASE_V1.0.2/MSDK/cloud/alicloud/src/services/dev_bind\awss_notify.c ****         snprintf(dev_info, DEV_INFO_LEN_MAX - 1, "{%s}", buf);
 823              		.loc 1 307 9
 824 0114 13060024 		li	a2,576
 825 0118 A285     		mv	a1,s0
 826 011a 0545     		li	a0,1
 827 011c 97000000 		call	awss_build_dev_info
 827      E7800000 
 828              	.LVL95:
 308:C:/Users/stapi/OneDrive/Desktop/GD32VW553/V1_MQTT_OK/GD32VW55X_Wifi_BLE_SDK/GD32VW55x_RELEASE_V1.0.2/MSDK/cloud/alicloud/src/services/dev_bind\awss_notify.c ****         memset(buf, 0x00, DEV_INFO_LEN_MAX);
 829              		.loc 1 308 9
 830 0124 37060000 		lui	a2,%hi(.LC18)
 831 0128 A286     		mv	a3,s0
 832 012a 13060600 		addi	a2,a2,%lo(.LC18)
 833 012e 9305F023 		li	a1,575
 834 0132 4A85     		mv	a0,s2
 835 0134 97000000 		call	snprintf
 835      E7800000 
 836              	.LVL96:
 309:C:/Users/stapi/OneDrive/Desktop/GD32VW553/V1_MQTT_OK/GD32VW55X_Wifi_BLE_SDK/GD32VW55x_RELEASE_V1.0.2/MSDK/cloud/alicloud/src/services/dev_bind\awss_notify.c ****         snprintf(buf, DEV_INFO_LEN_MAX - 1, AWSS_ACK_FMT, req_msg_id, 200, dev_info);
 837              		.loc 1 309 9
 838 013c 13060024 		li	a2,576
 839 0140 8145     		li	a1,0
 840 0142 2285     		mv	a0,s0
 841 0144 97000000 		call	memset
 841      E7800000 
 842              	.LVL97:
 310:C:/Users/stapi/OneDrive/Desktop/GD32VW553/V1_MQTT_OK/GD32VW55X_Wifi_BLE_SDK/GD32VW55x_RELEASE_V1.0.2/MSDK/cloud/alicloud/src/services/dev_bind\awss_notify.c ****         os_free(dev_info);
 843              		.loc 1 310 9
 844 014c 37060000 		lui	a2,%hi(.LC19)
 845 0150 CA87     		mv	a5,s2
 846 0152 1307800C 		li	a4,200
 847 0156 3400     		addi	a3,sp,8
 848 0158 13060600 		addi	a2,a2,%lo(.LC19)
 849 015c 9305F023 		li	a1,575
 850 0160 2285     		mv	a0,s0
 851 0162 97000000 		call	snprintf
 851      E7800000 
 852              	.LVL98:
 311:C:/Users/stapi/OneDrive/Desktop/GD32VW553/V1_MQTT_OK/GD32VW55X_Wifi_BLE_SDK/GD32VW55x_RELEASE_V1.0.2/MSDK/cloud/alicloud/src/services/dev_bind\awss_notify.c **** 
 853              		.loc 1 311 9
 854              	.LBB29:
 855              	.LBB30:
 394:..\..\..\..\cloud\alicloud\src\services\dev_bind\os/os.h **** }
 856              		.loc 2 394 5
 857 016a 4A85     		mv	a0,s2
 858 016c 97000000 		call	HAL_Free
 858      E7800000 
 859              	.LVL99:
 860              	.LBE30:
 861              	.LBE29:
 313:C:/Users/stapi/OneDrive/Desktop/GD32VW553/V1_MQTT_OK/GD32VW55X_Wifi_BLE_SDK/GD32VW55x_RELEASE_V1.0.2/MSDK/cloud/alicloud/src/services/dev_bind\awss_notify.c ****         dump_dev_bind_status(STATE_BIND_SENT_TOKEN_RESP, dev_info);
 862              		.loc 1 313 9
 863 0174 37050000 		lui	a0,%hi(g_aes_random)
 864 0178 8546     		li	a3,1
 865 017a 4146     		li	a2,16
 866 017c 6C08     		addi	a1,sp,28
 867 017e 13050500 		addi	a0,a0,%lo(g_aes_random)
 868 0182 97000000 		call	LITE_hexbuf_convert
 868      E7800000 
 869              	.LVL100:
 314:C:/Users/stapi/OneDrive/Desktop/GD32VW553/V1_MQTT_OK/GD32VW55X_Wifi_BLE_SDK/GD32VW55x_RELEASE_V1.0.2/MSDK/cloud/alicloud/src/services/dev_bind\awss_notify.c ****         awss_info("sending message to app: %s", buf);
 870              		.loc 1 314 9
 871 018a FD75     		li	a1,-4096
 872 018c 4A86     		mv	a2,s2
 873 018e 9385957F 		addi	a1,a1,2041
 874 0192 7D45     		li	a0,31
 875 0194 97000000 		call	iotx_state_event
 875      E7800000 
 876              	.LVL101:
 315:C:/Users/stapi/OneDrive/Desktop/GD32VW553/V1_MQTT_OK/GD32VW55X_Wifi_BLE_SDK/GD32VW55x_RELEASE_V1.0.2/MSDK/cloud/alicloud/src/services/dev_bind\awss_notify.c ****         char topic[TOPIC_LEN_MAX] = { 0 };
 877              		.loc 1 315 9
 315:C:/Users/stapi/OneDrive/Desktop/GD32VW553/V1_MQTT_OK/GD32VW55X_Wifi_BLE_SDK/GD32VW55x_RELEASE_V1.0.2/MSDK/cloud/alicloud/src/services/dev_bind\awss_notify.c ****         char topic[TOPIC_LEN_MAX] = { 0 };
 878              		.loc 1 315 9
 879 019c 37050000 		lui	a0,%hi(.LC20)
 880 01a0 13050500 		addi	a0,a0,%lo(.LC20)
 881 01a4 97000000 		call	HAL_Printf
 881      E7800000 
 882              	.LVL102:
 315:C:/Users/stapi/OneDrive/Desktop/GD32VW553/V1_MQTT_OK/GD32VW55X_Wifi_BLE_SDK/GD32VW55x_RELEASE_V1.0.2/MSDK/cloud/alicloud/src/services/dev_bind\awss_notify.c ****         char topic[TOPIC_LEN_MAX] = { 0 };
 883              		.loc 1 315 9
 884 01ac 37050000 		lui	a0,%hi(.LC21)
 885 01b0 A285     		mv	a1,s0
 886 01b2 13050500 		addi	a0,a0,%lo(.LC21)
 887 01b6 97000000 		call	HAL_Printf
 887      E7800000 
 888              	.LVL103:
 315:C:/Users/stapi/OneDrive/Desktop/GD32VW553/V1_MQTT_OK/GD32VW55X_Wifi_BLE_SDK/GD32VW55x_RELEASE_V1.0.2/MSDK/cloud/alicloud/src/services/dev_bind\awss_notify.c ****         char topic[TOPIC_LEN_MAX] = { 0 };
 889              		.loc 1 315 9
 890 01be 37090000 		lui	s2,%hi(.LC4)
 891              	.LVL104:
 892 01c2 13050900 		addi	a0,s2,%lo(.LC4)
 893 01c6 97000000 		call	HAL_Printf
 893      E7800000 
 894              	.LVL105:
 315:C:/Users/stapi/OneDrive/Desktop/GD32VW553/V1_MQTT_OK/GD32VW55X_Wifi_BLE_SDK/GD32VW55x_RELEASE_V1.0.2/MSDK/cloud/alicloud/src/services/dev_bind\awss_notify.c ****         char topic[TOPIC_LEN_MAX] = { 0 };
 895              		.loc 1 315 9
 316:C:/Users/stapi/OneDrive/Desktop/GD32VW553/V1_MQTT_OK/GD32VW55X_Wifi_BLE_SDK/GD32VW55x_RELEASE_V1.0.2/MSDK/cloud/alicloud/src/services/dev_bind\awss_notify.c ****         if (ctx->is_mcast) {
 896              		.loc 1 316 9
 316:C:/Users/stapi/OneDrive/Desktop/GD32VW553/V1_MQTT_OK/GD32VW55X_Wifi_BLE_SDK/GD32VW55x_RELEASE_V1.0.2/MSDK/cloud/alicloud/src/services/dev_bind\awss_notify.c ****         if (ctx->is_mcast) {
 897              		.loc 1 316 14 is_stmt 0
 898 01ce 1306C007 		li	a2,124
 899 01d2 8145     		li	a1,0
 900 01d4 C800     		addi	a0,sp,68
 901 01d6 82C0     		sw	zero,64(sp)
 902 01d8 97000000 		call	memset
 902      E7800000 
 903              	.LVL106:
 317:C:/Users/stapi/OneDrive/Desktop/GD32VW553/V1_MQTT_OK/GD32VW55X_Wifi_BLE_SDK/GD32VW55x_RELEASE_V1.0.2/MSDK/cloud/alicloud/src/services/dev_bind\awss_notify.c ****             awss_build_topic((const char *)TOPIC_GETDEVICEINFO_MCAST, topic, TOPIC_LEN_MAX);
 904              		.loc 1 317 9 is_stmt 1
 318:C:/Users/stapi/OneDrive/Desktop/GD32VW553/V1_MQTT_OK/GD32VW55X_Wifi_BLE_SDK/GD32VW55x_RELEASE_V1.0.2/MSDK/cloud/alicloud/src/services/dev_bind\awss_notify.c ****         } else {
 905              		.loc 1 318 13 is_stmt 0
 906 01e0 13060008 		li	a2,128
 907 01e4 8C00     		addi	a1,sp,64
 317:C:/Users/stapi/OneDrive/Desktop/GD32VW553/V1_MQTT_OK/GD32VW55X_Wifi_BLE_SDK/GD32VW55x_RELEASE_V1.0.2/MSDK/cloud/alicloud/src/services/dev_bind\awss_notify.c ****             awss_build_topic((const char *)TOPIC_GETDEVICEINFO_MCAST, topic, TOPIC_LEN_MAX);
 908              		.loc 1 317 12
 909 01e6 83878400 		lb	a5,8(s1)
 910 01ea CDC7     		beq	a5,zero,.L52
 318:C:/Users/stapi/OneDrive/Desktop/GD32VW553/V1_MQTT_OK/GD32VW55X_Wifi_BLE_SDK/GD32VW55x_RELEASE_V1.0.2/MSDK/cloud/alicloud/src/services/dev_bind\awss_notify.c ****         } else {
 911              		.loc 1 318 13 is_stmt 1
 912 01ec 37050000 		lui	a0,%hi(.LC22)
 913 01f0 13050500 		addi	a0,a0,%lo(.LC22)
 914              	.L71:
 320:C:/Users/stapi/OneDrive/Desktop/GD32VW553/V1_MQTT_OK/GD32VW55X_Wifi_BLE_SDK/GD32VW55x_RELEASE_V1.0.2/MSDK/cloud/alicloud/src/services/dev_bind\awss_notify.c ****         }
 915              		.loc 1 320 13 is_stmt 0
 916 01f4 97000000 		call	awss_build_topic
 916      E7800000 
 917              	.LVL107:
 324:C:/Users/stapi/OneDrive/Desktop/GD32VW553/V1_MQTT_OK/GD32VW55X_Wifi_BLE_SDK/GD32VW55x_RELEASE_V1.0.2/MSDK/cloud/alicloud/src/services/dev_bind\awss_notify.c **** 
 918              		.loc 1 324 9 is_stmt 1
 919 01fc 97000000 		call	awss_update_token
 919      E7800000 
 920              	.LVL108:
 326:C:/Users/stapi/OneDrive/Desktop/GD32VW553/V1_MQTT_OK/GD32VW55X_Wifi_BLE_SDK/GD32VW55x_RELEASE_V1.0.2/MSDK/cloud/alicloud/src/services/dev_bind\awss_notify.c ****             dump_dev_bind_status(STATE_BIND_APP_GET_TOKEN_RESP_FAIL, topic);
 921              		.loc 1 326 9
 326:C:/Users/stapi/OneDrive/Desktop/GD32VW553/V1_MQTT_OK/GD32VW55X_Wifi_BLE_SDK/GD32VW55x_RELEASE_V1.0.2/MSDK/cloud/alicloud/src/services/dev_bind\awss_notify.c ****             dump_dev_bind_status(STATE_BIND_APP_GET_TOKEN_RESP_FAIL, topic);
 922              		.loc 1 326 49 is_stmt 0
 923 0204 2285     		mv	a0,s0
 924 0206 97000000 		call	strlen
 924      E7800000 
 925              	.LVL109:
 326:C:/Users/stapi/OneDrive/Desktop/GD32VW553/V1_MQTT_OK/GD32VW55X_Wifi_BLE_SDK/GD32VW55x_RELEASE_V1.0.2/MSDK/cloud/alicloud/src/services/dev_bind\awss_notify.c ****             dump_dev_bind_status(STATE_BIND_APP_GET_TOKEN_RESP_FAIL, topic);
 926              		.loc 1 326 20
 927 020e 9840     		lw	a4,0(s1)
 928 0210 D040     		lw	a2,4(s1)
 326:C:/Users/stapi/OneDrive/Desktop/GD32VW553/V1_MQTT_OK/GD32VW55X_Wifi_BLE_SDK/GD32VW55x_RELEASE_V1.0.2/MSDK/cloud/alicloud/src/services/dev_bind\awss_notify.c ****             dump_dev_bind_status(STATE_BIND_APP_GET_TOKEN_RESP_FAIL, topic);
 929              		.loc 1 326 49
 930 0212 AA85     		mv	a1,a0
 326:C:/Users/stapi/OneDrive/Desktop/GD32VW553/V1_MQTT_OK/GD32VW55X_Wifi_BLE_SDK/GD32VW55x_RELEASE_V1.0.2/MSDK/cloud/alicloud/src/services/dev_bind\awss_notify.c ****             dump_dev_bind_status(STATE_BIND_APP_GET_TOKEN_RESP_FAIL, topic);
 931              		.loc 1 326 20
 932 0214 8148     		li	a7,0
 933 0216 0148     		li	a6,0
 934 0218 8147     		li	a5,0
 935 021a 9400     		addi	a3,sp,64
 936 021c 2285     		mv	a0,s0
 937 021e 97000000 		call	awss_cmp_coap_send_resp
 937      E7800000 
 938              	.LVL110:
 326:C:/Users/stapi/OneDrive/Desktop/GD32VW553/V1_MQTT_OK/GD32VW55X_Wifi_BLE_SDK/GD32VW55x_RELEASE_V1.0.2/MSDK/cloud/alicloud/src/services/dev_bind\awss_notify.c ****             dump_dev_bind_status(STATE_BIND_APP_GET_TOKEN_RESP_FAIL, topic);
 939              		.loc 1 326 12
 940 0226 63510504 		bge	a0,zero,.L54
 327:C:/Users/stapi/OneDrive/Desktop/GD32VW553/V1_MQTT_OK/GD32VW55X_Wifi_BLE_SDK/GD32VW55x_RELEASE_V1.0.2/MSDK/cloud/alicloud/src/services/dev_bind\awss_notify.c ****             awss_err("sending failed.");
 941              		.loc 1 327 13 is_stmt 1
 942 022a FD75     		li	a1,-4096
 943 022c 9000     		addi	a2,sp,64
 944 022e 9385D57B 		addi	a1,a1,1981
 945 0232 7D45     		li	a0,31
 946              	.LVL111:
 947 0234 97000000 		call	iotx_state_event
 947      E7800000 
 948              	.LVL112:
 328:C:/Users/stapi/OneDrive/Desktop/GD32VW553/V1_MQTT_OK/GD32VW55X_Wifi_BLE_SDK/GD32VW55x_RELEASE_V1.0.2/MSDK/cloud/alicloud/src/services/dev_bind\awss_notify.c ****         }
 949              		.loc 1 328 13
 328:C:/Users/stapi/OneDrive/Desktop/GD32VW553/V1_MQTT_OK/GD32VW55X_Wifi_BLE_SDK/GD32VW55x_RELEASE_V1.0.2/MSDK/cloud/alicloud/src/services/dev_bind\awss_notify.c ****         }
 950              		.loc 1 328 13
 951 023c 37050000 		lui	a0,%hi(.LC2)
 952 0240 13050500 		addi	a0,a0,%lo(.LC2)
 953 0244 97000000 		call	HAL_Printf
 953      E7800000 
 954              	.LVL113:
 328:C:/Users/stapi/OneDrive/Desktop/GD32VW553/V1_MQTT_OK/GD32VW55X_Wifi_BLE_SDK/GD32VW55x_RELEASE_V1.0.2/MSDK/cloud/alicloud/src/services/dev_bind\awss_notify.c ****         }
 955              		.loc 1 328 13
 956 024c 37050000 		lui	a0,%hi(.LC24)
 957 0250 13050500 		addi	a0,a0,%lo(.LC24)
 958 0254 97000000 		call	HAL_Printf
 958      E7800000 
 959              	.LVL114:
 328:C:/Users/stapi/OneDrive/Desktop/GD32VW553/V1_MQTT_OK/GD32VW55X_Wifi_BLE_SDK/GD32VW55x_RELEASE_V1.0.2/MSDK/cloud/alicloud/src/services/dev_bind\awss_notify.c ****         }
 960              		.loc 1 328 13
 961 025c 13050900 		addi	a0,s2,%lo(.LC4)
 962 0260 97000000 		call	HAL_Printf
 962      E7800000 
 963              	.LVL115:
 964              	.L54:
 328:C:/Users/stapi/OneDrive/Desktop/GD32VW553/V1_MQTT_OK/GD32VW55X_Wifi_BLE_SDK/GD32VW55x_RELEASE_V1.0.2/MSDK/cloud/alicloud/src/services/dev_bind\awss_notify.c ****         }
 965              		.loc 1 328 13 discriminator 1
 331:C:/Users/stapi/OneDrive/Desktop/GD32VW553/V1_MQTT_OK/GD32VW55X_Wifi_BLE_SDK/GD32VW55x_RELEASE_V1.0.2/MSDK/cloud/alicloud/src/services/dev_bind\awss_notify.c ****         awss_release_coap_ctx(coap_session_ctx);
 966              		.loc 1 331 9 discriminator 1
 967              	.LBB31:
 968              	.LBB32:
 394:..\..\..\..\cloud\alicloud\src\services\dev_bind\os/os.h **** }
 969              		.loc 2 394 5 discriminator 1
 970 0268 2285     		mv	a0,s0
 971 026a 97000000 		call	HAL_Free
 971      E7800000 
 972              	.LVL116:
 973              	.LBE32:
 974              	.LBE31:
 332:C:/Users/stapi/OneDrive/Desktop/GD32VW553/V1_MQTT_OK/GD32VW55X_Wifi_BLE_SDK/GD32VW55x_RELEASE_V1.0.2/MSDK/cloud/alicloud/src/services/dev_bind\awss_notify.c ****         coap_session_ctx = NULL;
 975              		.loc 1 332 9 discriminator 1
 976 0272 03A50900 		lw	a0,0(s3)
 977 0276 97000000 		call	awss_release_coap_ctx
 977      E7800000 
 978              	.LVL117:
 333:C:/Users/stapi/OneDrive/Desktop/GD32VW553/V1_MQTT_OK/GD32VW55X_Wifi_BLE_SDK/GD32VW55x_RELEASE_V1.0.2/MSDK/cloud/alicloud/src/services/dev_bind\awss_notify.c ****         awss_stop_timer(get_devinfo_timer);
 979              		.loc 1 333 9 discriminator 1
 334:C:/Users/stapi/OneDrive/Desktop/GD32VW553/V1_MQTT_OK/GD32VW55X_Wifi_BLE_SDK/GD32VW55x_RELEASE_V1.0.2/MSDK/cloud/alicloud/src/services/dev_bind\awss_notify.c ****         get_devinfo_timer = NULL;
 980              		.loc 1 334 9 is_stmt 0 discriminator 1
 981 027e 03250A00 		lw	a0,0(s4)
 333:C:/Users/stapi/OneDrive/Desktop/GD32VW553/V1_MQTT_OK/GD32VW55X_Wifi_BLE_SDK/GD32VW55x_RELEASE_V1.0.2/MSDK/cloud/alicloud/src/services/dev_bind\awss_notify.c ****         awss_stop_timer(get_devinfo_timer);
 982              		.loc 1 333 26 discriminator 1
 983 0282 23A00900 		sw	zero,0(s3)
 334:C:/Users/stapi/OneDrive/Desktop/GD32VW553/V1_MQTT_OK/GD32VW55X_Wifi_BLE_SDK/GD32VW55x_RELEASE_V1.0.2/MSDK/cloud/alicloud/src/services/dev_bind\awss_notify.c ****         get_devinfo_timer = NULL;
 984              		.loc 1 334 9 is_stmt 1 discriminator 1
 985 0286 97000000 		call	awss_stop_timer
 985      E7800000 
 986              	.LVL118:
 335:C:/Users/stapi/OneDrive/Desktop/GD32VW553/V1_MQTT_OK/GD32VW55X_Wifi_BLE_SDK/GD32VW55x_RELEASE_V1.0.2/MSDK/cloud/alicloud/src/services/dev_bind\awss_notify.c ****     } while (0);
 987              		.loc 1 335 9 discriminator 1
 335:C:/Users/stapi/OneDrive/Desktop/GD32VW553/V1_MQTT_OK/GD32VW55X_Wifi_BLE_SDK/GD32VW55x_RELEASE_V1.0.2/MSDK/cloud/alicloud/src/services/dev_bind\awss_notify.c ****     } while (0);
 988              		.loc 1 335 27 is_stmt 0 discriminator 1
 989 028e 23200A00 		sw	zero,0(s4)
 990 0292 75BB     		j	.L72
 991              	.L52:
 320:C:/Users/stapi/OneDrive/Desktop/GD32VW553/V1_MQTT_OK/GD32VW55X_Wifi_BLE_SDK/GD32VW55x_RELEASE_V1.0.2/MSDK/cloud/alicloud/src/services/dev_bind\awss_notify.c ****         }
 992              		.loc 1 320 13 is_stmt 1
 993 0294 37050000 		lui	a0,%hi(.LC23)
 994 0298 13050500 		addi	a0,a0,%lo(.LC23)
 995 029c A1BF     		j	.L71
 996              	.LVL119:
 997              	.L50:
 284:C:/Users/stapi/OneDrive/Desktop/GD32VW553/V1_MQTT_OK/GD32VW55X_Wifi_BLE_SDK/GD32VW55x_RELEASE_V1.0.2/MSDK/cloud/alicloud/src/services/dev_bind\awss_notify.c ****             goto GET_DEV_INFO_ERR;
 998              		.loc 1 284 17 is_stmt 0
 999 029e 9304F0DF 		li	s1,-513
 1000              	.LVL120:
 1001              	.LBE28:
 262:C:/Users/stapi/OneDrive/Desktop/GD32VW553/V1_MQTT_OK/GD32VW55X_Wifi_BLE_SDK/GD32VW55x_RELEASE_V1.0.2/MSDK/cloud/alicloud/src/services/dev_bind\awss_notify.c ****     int ret;
 1002              		.loc 1 262 11
 1003 02a2 0149     		li	s2,0
 1004              	.LVL121:
 1005              	.L51:
 1006              	.LDL1:
 341:C:/Users/stapi/OneDrive/Desktop/GD32VW553/V1_MQTT_OK/GD32VW55X_Wifi_BLE_SDK/GD32VW55x_RELEASE_V1.0.2/MSDK/cloud/alicloud/src/services/dev_bind\awss_notify.c ****     awss_release_coap_ctx(coap_session_ctx);
 1007              		.loc 1 341 5 is_stmt 1 discriminator 1
 1008 02a4 37060000 		lui	a2,%hi(.LC25)
 1009 02a8 FD75     		li	a1,-4096
 1010 02aa 13060600 		addi	a2,a2,%lo(.LC25)
 1011 02ae 9385D57B 		addi	a1,a1,1981
 1012 02b2 7D45     		li	a0,31
 1013 02b4 97000000 		call	iotx_state_event
 1013      E7800000 
 1014              	.LVL122:
 342:C:/Users/stapi/OneDrive/Desktop/GD32VW553/V1_MQTT_OK/GD32VW55X_Wifi_BLE_SDK/GD32VW55x_RELEASE_V1.0.2/MSDK/cloud/alicloud/src/services/dev_bind\awss_notify.c ****     coap_session_ctx = NULL;
 1015              		.loc 1 342 5 discriminator 1
 1016 02bc 03A50900 		lw	a0,0(s3)
 1017 02c0 97000000 		call	awss_release_coap_ctx
 1017      E7800000 
 1018              	.LVL123:
 343:C:/Users/stapi/OneDrive/Desktop/GD32VW553/V1_MQTT_OK/GD32VW55X_Wifi_BLE_SDK/GD32VW55x_RELEASE_V1.0.2/MSDK/cloud/alicloud/src/services/dev_bind\awss_notify.c ****     awss_stop_timer(get_devinfo_timer);
 1019              		.loc 1 343 5 discriminator 1
 344:C:/Users/stapi/OneDrive/Desktop/GD32VW553/V1_MQTT_OK/GD32VW55X_Wifi_BLE_SDK/GD32VW55x_RELEASE_V1.0.2/MSDK/cloud/alicloud/src/services/dev_bind\awss_notify.c ****     get_devinfo_timer = NULL;
 1020              		.loc 1 344 5 is_stmt 0 discriminator 1
 1021 02c8 03250A00 		lw	a0,0(s4)
 343:C:/Users/stapi/OneDrive/Desktop/GD32VW553/V1_MQTT_OK/GD32VW55X_Wifi_BLE_SDK/GD32VW55x_RELEASE_V1.0.2/MSDK/cloud/alicloud/src/services/dev_bind\awss_notify.c ****     awss_stop_timer(get_devinfo_timer);
 1022              		.loc 1 343 22 discriminator 1
 1023 02cc 23A00900 		sw	zero,0(s3)
 344:C:/Users/stapi/OneDrive/Desktop/GD32VW553/V1_MQTT_OK/GD32VW55X_Wifi_BLE_SDK/GD32VW55x_RELEASE_V1.0.2/MSDK/cloud/alicloud/src/services/dev_bind\awss_notify.c ****     get_devinfo_timer = NULL;
 1024              		.loc 1 344 5 is_stmt 1 discriminator 1
 1025 02d0 97000000 		call	awss_stop_timer
 1025      E7800000 
 1026              	.LVL124:
 345:C:/Users/stapi/OneDrive/Desktop/GD32VW553/V1_MQTT_OK/GD32VW55X_Wifi_BLE_SDK/GD32VW55x_RELEASE_V1.0.2/MSDK/cloud/alicloud/src/services/dev_bind\awss_notify.c **** 
 1027              		.loc 1 345 5 discriminator 1
 345:C:/Users/stapi/OneDrive/Desktop/GD32VW553/V1_MQTT_OK/GD32VW55X_Wifi_BLE_SDK/GD32VW55x_RELEASE_V1.0.2/MSDK/cloud/alicloud/src/services/dev_bind\awss_notify.c **** 
 1028              		.loc 1 345 23 is_stmt 0 discriminator 1
 1029 02d8 23200A00 		sw	zero,0(s4)
 347:C:/Users/stapi/OneDrive/Desktop/GD32VW553/V1_MQTT_OK/GD32VW55X_Wifi_BLE_SDK/GD32VW55x_RELEASE_V1.0.2/MSDK/cloud/alicloud/src/services/dev_bind\awss_notify.c ****         os_free(buf);
 1030              		.loc 1 347 5 is_stmt 1 discriminator 1
 347:C:/Users/stapi/OneDrive/Desktop/GD32VW553/V1_MQTT_OK/GD32VW55X_Wifi_BLE_SDK/GD32VW55x_RELEASE_V1.0.2/MSDK/cloud/alicloud/src/services/dev_bind\awss_notify.c ****         os_free(buf);
 1031              		.loc 1 347 8 is_stmt 0 discriminator 1
 1032 02dc 11C4     		beq	s0,zero,.L55
 348:C:/Users/stapi/OneDrive/Desktop/GD32VW553/V1_MQTT_OK/GD32VW55X_Wifi_BLE_SDK/GD32VW55x_RELEASE_V1.0.2/MSDK/cloud/alicloud/src/services/dev_bind\awss_notify.c ****     }
 1033              		.loc 1 348 9 is_stmt 1
 1034              	.LVL125:
 1035              	.LBB33:
 1036              	.LBB34:
 394:..\..\..\..\cloud\alicloud\src\services\dev_bind\os/os.h **** }
 1037              		.loc 2 394 5
 1038 02de 2285     		mv	a0,s0
 1039 02e0 97000000 		call	HAL_Free
 1039      E7800000 
 1040              	.LVL126:
 1041              	.L55:
 1042              	.LBE34:
 1043              	.LBE33:
 350:C:/Users/stapi/OneDrive/Desktop/GD32VW553/V1_MQTT_OK/GD32VW55X_Wifi_BLE_SDK/GD32VW55x_RELEASE_V1.0.2/MSDK/cloud/alicloud/src/services/dev_bind\awss_notify.c ****         os_free(dev_info);
 1044              		.loc 1 350 5
 350:C:/Users/stapi/OneDrive/Desktop/GD32VW553/V1_MQTT_OK/GD32VW55X_Wifi_BLE_SDK/GD32VW55x_RELEASE_V1.0.2/MSDK/cloud/alicloud/src/services/dev_bind\awss_notify.c ****         os_free(dev_info);
 1045              		.loc 1 350 8 is_stmt 0
 1046 02e8 E30109DA 		beq	s2,zero,.L46
 351:C:/Users/stapi/OneDrive/Desktop/GD32VW553/V1_MQTT_OK/GD32VW55X_Wifi_BLE_SDK/GD32VW55x_RELEASE_V1.0.2/MSDK/cloud/alicloud/src/services/dev_bind\awss_notify.c ****     }
 1047              		.loc 1 351 9 is_stmt 1
 1048              	.LVL127:
 1049              	.LBB35:
 1050              	.LBB36:
 394:..\..\..\..\cloud\alicloud\src\services\dev_bind\os/os.h **** }
 1051              		.loc 2 394 5
 1052 02ec 4A85     		mv	a0,s2
 1053 02ee 97000000 		call	HAL_Free
 1053      E7800000 
 1054              	.LVL128:
 395:..\..\..\..\cloud\alicloud\src\services\dev_bind\os/os.h **** 
 1055              		.loc 2 395 1 is_stmt 0
 1056 02f6 51BB     		j	.L46
 1057              	.LVL129:
 1058              	.L57:
 1059              	.LBE36:
 1060              	.LBE35:
 1061              	.LBB37:
 300:C:/Users/stapi/OneDrive/Desktop/GD32VW553/V1_MQTT_OK/GD32VW55X_Wifi_BLE_SDK/GD32VW55x_RELEASE_V1.0.2/MSDK/cloud/alicloud/src/services/dev_bind\awss_notify.c ****             goto GET_DEV_INFO_ERR;
 1062              		.loc 1 300 17
 1063 02f8 FD74     		li	s1,-4096
 1064              	.LVL130:
 1065 02fa 9384B47E 		addi	s1,s1,2027
 1066 02fe 5DB7     		j	.L51
 1067              	.LBE37:
 1068              		.cfi_endproc
 1069              	.LFE69:
 1071              		.section	.rodata.awss_notify_dev_info.str1.4,"aMS",@progbits,1
 1072              		.align	2
 1073              	.LC26:
 1074 0000 73756363 		.string	"success"
 1074      65737300 
 1075              		.align	2
 1076              	.LC27:
 1077 0008 6661696C 		.string	"fail"
 1077      00
 1078 000d 000000   		.align	2
 1079              	.LC28:
 1080 0010 70617261 		.string	"params invalid"
 1080      6D732069 
 1080      6E76616C 
 1080      696400
 1081 001f 00       		.align	2
 1082              	.LC29:
 1083 0020 616C6C6F 		.string	"alloc mem fail"
 1083      63206D65 
 1083      6D206661 
 1083      696C00
 1084 002f 00       		.align	2
 1085              	.LC30:
 1086 0030 3235352E 		.string	"255.255.255.255"
 1086      3235352E 
 1086      3235352E 
 1086      32353500 
 1087              		.align	2
 1088              	.LC31:
 1089 0040 7B226964 		.string	"{\"id\":\"%u\",\"version\":\"1.0\",\"method\":\"%s\",\"params\":{%s}}"
 1089      223A2225 
 1089      75222C22 
 1089      76657273 
 1089      696F6E22 
 1090              		.align	2
 1091              	.LC32:
 1092 0078 636F6E6E 		.string	"connect ap notify"
 1092      65637420 
 1092      6170206E 
 1092      6F746966 
 1092      7900
 1093 008a 0000     		.align	2
 1094              	.LC33:
 1095 008c 746F7069 		.string	"topic:%s\n"
 1095      633A2573 
 1095      0A00
 1096 0096 0000     		.align	2
 1097              	.LC34:
 1098 0098 7061796C 		.string	"payload:%s\n"
 1098      6F61643A 
 1098      25730A00 
 1099              		.align	2
 1100              	.LC35:
 1101 00a4 636F6170 		.string	"coap send notify %s"
 1101      2073656E 
 1101      64206E6F 
 1101      74696679 
 1101      20257300 
 1102              		.section	.text.awss_notify_dev_info,"ax",@progbits
 1103              		.align	1
 1104              		.globl	awss_notify_dev_info
 1106              	awss_notify_dev_info:
 1107              	.LFB68:
 186:C:/Users/stapi/OneDrive/Desktop/GD32VW553/V1_MQTT_OK/GD32VW55X_Wifi_BLE_SDK/GD32VW55x_RELEASE_V1.0.2/MSDK/cloud/alicloud/src/services/dev_bind\awss_notify.c ****     char *buf = NULL;
 1108              		.loc 1 186 1 is_stmt 1
 1109              		.cfi_startproc
 1110              	.LVL131:
 1111 0000 17030000 		call	t0,__riscv_save_12
 1111      E7020300 
 1112              		.cfi_offset 27, -52
 1113              		.cfi_offset 26, -48
 1114              		.cfi_offset 25, -44
 1115              		.cfi_offset 24, -40
 1116              		.cfi_offset 23, -36
 1117              		.cfi_offset 22, -32
 1118              		.cfi_offset 21, -28
 1119              		.cfi_offset 20, -24
 1120              		.cfi_offset 19, -20
 1121              		.cfi_offset 18, -16
 1122              		.cfi_offset 9, -12
 1123              		.cfi_offset 8, -8
 1124              		.cfi_offset 1, -4
 1125              		.cfi_def_cfa_offset 64
 187:C:/Users/stapi/OneDrive/Desktop/GD32VW553/V1_MQTT_OK/GD32VW55X_Wifi_BLE_SDK/GD32VW55x_RELEASE_V1.0.2/MSDK/cloud/alicloud/src/services/dev_bind\awss_notify.c ****     char *dev_info = NULL;
 1126              		.loc 1 187 5
 1127              	.LVL132:
 188:C:/Users/stapi/OneDrive/Desktop/GD32VW553/V1_MQTT_OK/GD32VW55X_Wifi_BLE_SDK/GD32VW55x_RELEASE_V1.0.2/MSDK/cloud/alicloud/src/services/dev_bind\awss_notify.c ****     int i;
 1128              		.loc 1 188 5
 189:C:/Users/stapi/OneDrive/Desktop/GD32VW553/V1_MQTT_OK/GD32VW55X_Wifi_BLE_SDK/GD32VW55x_RELEASE_V1.0.2/MSDK/cloud/alicloud/src/services/dev_bind\awss_notify.c ****     platform_netaddr_t notify_sa;
 1129              		.loc 1 189 5
 190:C:/Users/stapi/OneDrive/Desktop/GD32VW553/V1_MQTT_OK/GD32VW55X_Wifi_BLE_SDK/GD32VW55x_RELEASE_V1.0.2/MSDK/cloud/alicloud/src/services/dev_bind\awss_notify.c ****     memset(&notify_sa, 0, sizeof(notify_sa));
 1130              		.loc 1 190 5
 191:C:/Users/stapi/OneDrive/Desktop/GD32VW553/V1_MQTT_OK/GD32VW55X_Wifi_BLE_SDK/GD32VW55x_RELEASE_V1.0.2/MSDK/cloud/alicloud/src/services/dev_bind\awss_notify.c **** 
 1131              		.loc 1 191 5
 186:C:/Users/stapi/OneDrive/Desktop/GD32VW553/V1_MQTT_OK/GD32VW55X_Wifi_BLE_SDK/GD32VW55x_RELEASE_V1.0.2/MSDK/cloud/alicloud/src/services/dev_bind\awss_notify.c ****     char *buf = NULL;
 1132              		.loc 1 186 1 is_stmt 0
 1133 0008 1D71     		addi	sp,sp,-96
 1134              		.cfi_def_cfa_offset 160
 186:C:/Users/stapi/OneDrive/Desktop/GD32VW553/V1_MQTT_OK/GD32VW55X_Wifi_BLE_SDK/GD32VW55x_RELEASE_V1.0.2/MSDK/cloud/alicloud/src/services/dev_bind\awss_notify.c ****     char *buf = NULL;
 1135              		.loc 1 186 1
 1136 000a 2A84     		mv	s0,a0
 1137 000c 2E8A     		mv	s4,a1
 1138              	.LBB38:
 196:C:/Users/stapi/OneDrive/Desktop/GD32VW553/V1_MQTT_OK/GD32VW55X_Wifi_BLE_SDK/GD32VW55x_RELEASE_V1.0.2/MSDK/cloud/alicloud/src/services/dev_bind\awss_notify.c ****         for (i = 0; i < sizeof(notify_map) / sizeof(notify_map[0]); i ++) {
 1139              		.loc 1 196 14
 1140 000e 7546     		li	a2,29
 1141 0010 8145     		li	a1,0
 1142              	.LVL133:
 1143 0012 8800     		addi	a0,sp,64
 1144              	.LVL134:
 1145              	.LBE38:
 191:C:/Users/stapi/OneDrive/Desktop/GD32VW553/V1_MQTT_OK/GD32VW55X_Wifi_BLE_SDK/GD32VW55x_RELEASE_V1.0.2/MSDK/cloud/alicloud/src/services/dev_bind\awss_notify.c **** 
 1146              		.loc 1 191 5
 1147 0014 02D4     		sw	zero,40(sp)
 1148 0016 02D6     		sw	zero,44(sp)
 1149 0018 02D8     		sw	zero,48(sp)
 1150 001a 02DA     		sw	zero,52(sp)
 1151 001c 231C0102 		sh	zero,56(sp)
 193:C:/Users/stapi/OneDrive/Desktop/GD32VW553/V1_MQTT_OK/GD32VW55X_Wifi_BLE_SDK/GD32VW55x_RELEASE_V1.0.2/MSDK/cloud/alicloud/src/services/dev_bind\awss_notify.c ****         void *cb = NULL;
 1152              		.loc 1 193 5 is_stmt 1
 1153              	.LBB46:
 194:C:/Users/stapi/OneDrive/Desktop/GD32VW553/V1_MQTT_OK/GD32VW55X_Wifi_BLE_SDK/GD32VW55x_RELEASE_V1.0.2/MSDK/cloud/alicloud/src/services/dev_bind\awss_notify.c ****         char *method = NULL, *topic = NULL;
 1154              		.loc 1 194 9
 1155              	.LVL135:
 195:C:/Users/stapi/OneDrive/Desktop/GD32VW553/V1_MQTT_OK/GD32VW55X_Wifi_BLE_SDK/GD32VW55x_RELEASE_V1.0.2/MSDK/cloud/alicloud/src/services/dev_bind\awss_notify.c ****         char rand_str[RANDOM_MAX_LEN * 2 + 1] = {0};
 1156              		.loc 1 195 9
 196:C:/Users/stapi/OneDrive/Desktop/GD32VW553/V1_MQTT_OK/GD32VW55X_Wifi_BLE_SDK/GD32VW55x_RELEASE_V1.0.2/MSDK/cloud/alicloud/src/services/dev_bind\awss_notify.c ****         for (i = 0; i < sizeof(notify_map) / sizeof(notify_map[0]); i ++) {
 1157              		.loc 1 196 9
 196:C:/Users/stapi/OneDrive/Desktop/GD32VW553/V1_MQTT_OK/GD32VW55X_Wifi_BLE_SDK/GD32VW55x_RELEASE_V1.0.2/MSDK/cloud/alicloud/src/services/dev_bind\awss_notify.c ****         for (i = 0; i < sizeof(notify_map) / sizeof(notify_map[0]); i ++) {
 1158              		.loc 1 196 14 is_stmt 0
 1159 0020 02DE     		sw	zero,60(sp)
 1160 0022 97000000 		call	memset
 1160      E7800000 
 1161              	.LVL136:
 197:C:/Users/stapi/OneDrive/Desktop/GD32VW553/V1_MQTT_OK/GD32VW55X_Wifi_BLE_SDK/GD32VW55x_RELEASE_V1.0.2/MSDK/cloud/alicloud/src/services/dev_bind\awss_notify.c ****             if (notify_map[i].notify_type != type) {
 1162              		.loc 1 197 9 is_stmt 1
 197:C:/Users/stapi/OneDrive/Desktop/GD32VW553/V1_MQTT_OK/GD32VW55X_Wifi_BLE_SDK/GD32VW55x_RELEASE_V1.0.2/MSDK/cloud/alicloud/src/services/dev_bind\awss_notify.c ****             if (notify_map[i].notify_type != type) {
 1163              		.loc 1 197 21
 198:C:/Users/stapi/OneDrive/Desktop/GD32VW553/V1_MQTT_OK/GD32VW55X_Wifi_BLE_SDK/GD32VW55x_RELEASE_V1.0.2/MSDK/cloud/alicloud/src/services/dev_bind\awss_notify.c ****                 continue;
 1164              		.loc 1 198 13
 1165 002a B7090000 		lui	s3,%hi(.LANCHOR3)
 198:C:/Users/stapi/OneDrive/Desktop/GD32VW553/V1_MQTT_OK/GD32VW55X_Wifi_BLE_SDK/GD32VW55x_RELEASE_V1.0.2/MSDK/cloud/alicloud/src/services/dev_bind\awss_notify.c ****                 continue;
 1166              		.loc 1 198 16 is_stmt 0
 1167 002e 0547     		li	a4,1
 1168 0030 370B0000 		lui	s6,%hi(.LC4)
 1169 0034 93890900 		addi	s3,s3,%lo(.LANCHOR3)
 197:C:/Users/stapi/OneDrive/Desktop/GD32VW553/V1_MQTT_OK/GD32VW55X_Wifi_BLE_SDK/GD32VW55x_RELEASE_V1.0.2/MSDK/cloud/alicloud/src/services/dev_bind\awss_notify.c ****             if (notify_map[i].notify_type != type) {
 1170              		.loc 1 197 16
 1171 0038 8147     		li	a5,0
 198:C:/Users/stapi/OneDrive/Desktop/GD32VW553/V1_MQTT_OK/GD32VW55X_Wifi_BLE_SDK/GD32VW55x_RELEASE_V1.0.2/MSDK/cloud/alicloud/src/services/dev_bind\awss_notify.c ****                 continue;
 1172              		.loc 1 198 16
 1173 003a 630AE400 		beq	s0,a4,.L74
 199:C:/Users/stapi/OneDrive/Desktop/GD32VW553/V1_MQTT_OK/GD32VW55X_Wifi_BLE_SDK/GD32VW55x_RELEASE_V1.0.2/MSDK/cloud/alicloud/src/services/dev_bind\awss_notify.c ****             }
 1174              		.loc 1 199 17 is_stmt 1
 197:C:/Users/stapi/OneDrive/Desktop/GD32VW553/V1_MQTT_OK/GD32VW55X_Wifi_BLE_SDK/GD32VW55x_RELEASE_V1.0.2/MSDK/cloud/alicloud/src/services/dev_bind\awss_notify.c ****             if (notify_map[i].notify_type != type) {
 1175              		.loc 1 197 69
 1176              	.LVL137:
 197:C:/Users/stapi/OneDrive/Desktop/GD32VW553/V1_MQTT_OK/GD32VW55X_Wifi_BLE_SDK/GD32VW55x_RELEASE_V1.0.2/MSDK/cloud/alicloud/src/services/dev_bind\awss_notify.c ****             if (notify_map[i].notify_type != type) {
 1177              		.loc 1 197 21
 198:C:/Users/stapi/OneDrive/Desktop/GD32VW553/V1_MQTT_OK/GD32VW55X_Wifi_BLE_SDK/GD32VW55x_RELEASE_V1.0.2/MSDK/cloud/alicloud/src/services/dev_bind\awss_notify.c ****                 continue;
 1178              		.loc 1 198 13
 198:C:/Users/stapi/OneDrive/Desktop/GD32VW553/V1_MQTT_OK/GD32VW55X_Wifi_BLE_SDK/GD32VW55x_RELEASE_V1.0.2/MSDK/cloud/alicloud/src/services/dev_bind\awss_notify.c ****                 continue;
 1179              		.loc 1 198 16 is_stmt 0
 1180 003e 0947     		li	a4,2
 197:C:/Users/stapi/OneDrive/Desktop/GD32VW553/V1_MQTT_OK/GD32VW55X_Wifi_BLE_SDK/GD32VW55x_RELEASE_V1.0.2/MSDK/cloud/alicloud/src/services/dev_bind\awss_notify.c ****             if (notify_map[i].notify_type != type) {
 1181              		.loc 1 197 71
 1182 0040 8547     		li	a5,1
 198:C:/Users/stapi/OneDrive/Desktop/GD32VW553/V1_MQTT_OK/GD32VW55X_Wifi_BLE_SDK/GD32VW55x_RELEASE_V1.0.2/MSDK/cloud/alicloud/src/services/dev_bind\awss_notify.c ****                 continue;
 1183              		.loc 1 198 16
 1184 0042 6306E400 		beq	s0,a4,.L74
 199:C:/Users/stapi/OneDrive/Desktop/GD32VW553/V1_MQTT_OK/GD32VW55X_Wifi_BLE_SDK/GD32VW55x_RELEASE_V1.0.2/MSDK/cloud/alicloud/src/services/dev_bind\awss_notify.c ****             }
 1185              		.loc 1 199 17 is_stmt 1
 197:C:/Users/stapi/OneDrive/Desktop/GD32VW553/V1_MQTT_OK/GD32VW55X_Wifi_BLE_SDK/GD32VW55x_RELEASE_V1.0.2/MSDK/cloud/alicloud/src/services/dev_bind\awss_notify.c ****             if (notify_map[i].notify_type != type) {
 1186              		.loc 1 197 69
 1187              	.LVL138:
 197:C:/Users/stapi/OneDrive/Desktop/GD32VW553/V1_MQTT_OK/GD32VW55X_Wifi_BLE_SDK/GD32VW55x_RELEASE_V1.0.2/MSDK/cloud/alicloud/src/services/dev_bind\awss_notify.c ****             if (notify_map[i].notify_type != type) {
 1188              		.loc 1 197 21
 198:C:/Users/stapi/OneDrive/Desktop/GD32VW553/V1_MQTT_OK/GD32VW55X_Wifi_BLE_SDK/GD32VW55x_RELEASE_V1.0.2/MSDK/cloud/alicloud/src/services/dev_bind\awss_notify.c ****                 continue;
 1189              		.loc 1 198 13
 198:C:/Users/stapi/OneDrive/Desktop/GD32VW553/V1_MQTT_OK/GD32VW55X_Wifi_BLE_SDK/GD32VW55x_RELEASE_V1.0.2/MSDK/cloud/alicloud/src/services/dev_bind\awss_notify.c ****                 continue;
 1190              		.loc 1 198 16 is_stmt 0
 1191 0046 8D47     		li	a5,3
 1192 0048 6312F402 		bne	s0,a5,.L75
 197:C:/Users/stapi/OneDrive/Desktop/GD32VW553/V1_MQTT_OK/GD32VW55X_Wifi_BLE_SDK/GD32VW55x_RELEASE_V1.0.2/MSDK/cloud/alicloud/src/services/dev_bind\awss_notify.c ****             if (notify_map[i].notify_type != type) {
 1193              		.loc 1 197 71
 1194 004c 8947     		li	a5,2
 1195              	.LVL139:
 1196              	.L74:
 202:C:/Users/stapi/OneDrive/Desktop/GD32VW553/V1_MQTT_OK/GD32VW55X_Wifi_BLE_SDK/GD32VW55x_RELEASE_V1.0.2/MSDK/cloud/alicloud/src/services/dev_bind\awss_notify.c ****             topic = notify_map[i].notify_topic;
 1197              		.loc 1 202 13 is_stmt 1
 202:C:/Users/stapi/OneDrive/Desktop/GD32VW553/V1_MQTT_OK/GD32VW55X_Wifi_BLE_SDK/GD32VW55x_RELEASE_V1.0.2/MSDK/cloud/alicloud/src/services/dev_bind\awss_notify.c ****             topic = notify_map[i].notify_topic;
 1198              		.loc 1 202 20 is_stmt 0
 1199 004e 13974700 		slli	a4,a5,4
 1200 0052 B7070000 		lui	a5,%hi(.LANCHOR7)
 1201 0056 93870700 		addi	a5,a5,%lo(.LANCHOR7)
 1202 005a BA97     		add	a5,a5,a4
 1203 005c 83AA4700 		lw	s5,4(a5)
 1204              	.LVL140:
 203:C:/Users/stapi/OneDrive/Desktop/GD32VW553/V1_MQTT_OK/GD32VW55X_Wifi_BLE_SDK/GD32VW55x_RELEASE_V1.0.2/MSDK/cloud/alicloud/src/services/dev_bind\awss_notify.c ****             cb = notify_map[i].cb;
 1205              		.loc 1 203 13 is_stmt 1
 203:C:/Users/stapi/OneDrive/Desktop/GD32VW553/V1_MQTT_OK/GD32VW55X_Wifi_BLE_SDK/GD32VW55x_RELEASE_V1.0.2/MSDK/cloud/alicloud/src/services/dev_bind\awss_notify.c ****             cb = notify_map[i].cb;
 1206              		.loc 1 203 19 is_stmt 0
 1207 0060 83AB8700 		lw	s7,8(a5)
 1208              	.LVL141:
 204:C:/Users/stapi/OneDrive/Desktop/GD32VW553/V1_MQTT_OK/GD32VW55X_Wifi_BLE_SDK/GD32VW55x_RELEASE_V1.0.2/MSDK/cloud/alicloud/src/services/dev_bind\awss_notify.c ****             break;
 1209              		.loc 1 204 13 is_stmt 1
 205:C:/Users/stapi/OneDrive/Desktop/GD32VW553/V1_MQTT_OK/GD32VW55X_Wifi_BLE_SDK/GD32VW55x_RELEASE_V1.0.2/MSDK/cloud/alicloud/src/services/dev_bind\awss_notify.c ****         }
 1210              		.loc 1 205 13
 207:C:/Users/stapi/OneDrive/Desktop/GD32VW553/V1_MQTT_OK/GD32VW55X_Wifi_BLE_SDK/GD32VW55x_RELEASE_V1.0.2/MSDK/cloud/alicloud/src/services/dev_bind\awss_notify.c ****             awss_err("params invalid");
 1211              		.loc 1 207 9
 207:C:/Users/stapi/OneDrive/Desktop/GD32VW553/V1_MQTT_OK/GD32VW55X_Wifi_BLE_SDK/GD32VW55x_RELEASE_V1.0.2/MSDK/cloud/alicloud/src/services/dev_bind\awss_notify.c ****             awss_err("params invalid");
 1212              		.loc 1 207 12 is_stmt 0
 1213 0064 63840A00 		beq	s5,zero,.L75
 207:C:/Users/stapi/OneDrive/Desktop/GD32VW553/V1_MQTT_OK/GD32VW55X_Wifi_BLE_SDK/GD32VW55x_RELEASE_V1.0.2/MSDK/cloud/alicloud/src/services/dev_bind\awss_notify.c ****             awss_err("params invalid");
 1214              		.loc 1 207 28 discriminator 1
 1215 0068 63900B04 		bne	s7,zero,.L76
 1216              	.LVL142:
 1217              	.L75:
 208:C:/Users/stapi/OneDrive/Desktop/GD32VW553/V1_MQTT_OK/GD32VW55X_Wifi_BLE_SDK/GD32VW55x_RELEASE_V1.0.2/MSDK/cloud/alicloud/src/services/dev_bind\awss_notify.c ****             break;
 1218              		.loc 1 208 13 is_stmt 1
 208:C:/Users/stapi/OneDrive/Desktop/GD32VW553/V1_MQTT_OK/GD32VW55X_Wifi_BLE_SDK/GD32VW55x_RELEASE_V1.0.2/MSDK/cloud/alicloud/src/services/dev_bind\awss_notify.c ****             break;
 1219              		.loc 1 208 13
 1220 006c 37050000 		lui	a0,%hi(.LC2)
 1221 0070 13050500 		addi	a0,a0,%lo(.LC2)
 1222 0074 97000000 		call	HAL_Printf
 1222      E7800000 
 1223              	.LVL143:
 208:C:/Users/stapi/OneDrive/Desktop/GD32VW553/V1_MQTT_OK/GD32VW55X_Wifi_BLE_SDK/GD32VW55x_RELEASE_V1.0.2/MSDK/cloud/alicloud/src/services/dev_bind\awss_notify.c ****             break;
 1224              		.loc 1 208 13
 1225 007c 37050000 		lui	a0,%hi(.LC28)
 1226 0080 13050500 		addi	a0,a0,%lo(.LC28)
 1227 0084 97000000 		call	HAL_Printf
 1227      E7800000 
 1228              	.LVL144:
 208:C:/Users/stapi/OneDrive/Desktop/GD32VW553/V1_MQTT_OK/GD32VW55X_Wifi_BLE_SDK/GD32VW55x_RELEASE_V1.0.2/MSDK/cloud/alicloud/src/services/dev_bind\awss_notify.c ****             break;
 1229              		.loc 1 208 13
 1230 008c 13050B00 		addi	a0,s6,%lo(.LC4)
 1231 0090 97000000 		call	HAL_Printf
 1231      E7800000 
 1232              	.LVL145:
 208:C:/Users/stapi/OneDrive/Desktop/GD32VW553/V1_MQTT_OK/GD32VW55X_Wifi_BLE_SDK/GD32VW55x_RELEASE_V1.0.2/MSDK/cloud/alicloud/src/services/dev_bind\awss_notify.c ****             break;
 1233              		.loc 1 208 13
 209:C:/Users/stapi/OneDrive/Desktop/GD32VW553/V1_MQTT_OK/GD32VW55X_Wifi_BLE_SDK/GD32VW55x_RELEASE_V1.0.2/MSDK/cloud/alicloud/src/services/dev_bind\awss_notify.c ****         }
 1234              		.loc 1 209 13
 1235              	.LBE46:
 243:C:/Users/stapi/OneDrive/Desktop/GD32VW553/V1_MQTT_OK/GD32VW55X_Wifi_BLE_SDK/GD32VW55x_RELEASE_V1.0.2/MSDK/cloud/alicloud/src/services/dev_bind\awss_notify.c **** 
 1236              		.loc 1 243 13
 245:C:/Users/stapi/OneDrive/Desktop/GD32VW553/V1_MQTT_OK/GD32VW55X_Wifi_BLE_SDK/GD32VW55x_RELEASE_V1.0.2/MSDK/cloud/alicloud/src/services/dev_bind\awss_notify.c ****         os_free(buf);
 1237              		.loc 1 245 5
 248:C:/Users/stapi/OneDrive/Desktop/GD32VW553/V1_MQTT_OK/GD32VW55X_Wifi_BLE_SDK/GD32VW55x_RELEASE_V1.0.2/MSDK/cloud/alicloud/src/services/dev_bind\awss_notify.c ****         os_free(dev_info);
 1238              		.loc 1 248 5
 1239              	.L77:
 252:C:/Users/stapi/OneDrive/Desktop/GD32VW553/V1_MQTT_OK/GD32VW55X_Wifi_BLE_SDK/GD32VW55x_RELEASE_V1.0.2/MSDK/cloud/alicloud/src/services/dev_bind\awss_notify.c **** }
 1240              		.loc 1 252 5
 252:C:/Users/stapi/OneDrive/Desktop/GD32VW553/V1_MQTT_OK/GD32VW55X_Wifi_BLE_SDK/GD32VW55x_RELEASE_V1.0.2/MSDK/cloud/alicloud/src/services/dev_bind\awss_notify.c **** }
 1241              		.loc 1 252 28 is_stmt 0
 1242 0098 4E94     		add	s0,s3,s0
 1243              	.LVL146:
 253:C:/Users/stapi/OneDrive/Desktop/GD32VW553/V1_MQTT_OK/GD32VW55X_Wifi_BLE_SDK/GD32VW55x_RELEASE_V1.0.2/MSDK/cloud/alicloud/src/services/dev_bind\awss_notify.c **** 
 1244              		.loc 1 253 1
 1245 009a 03050400 		lb	a0,0(s0)
 1246 009e 2561     		addi	sp,sp,96
 1247              		.cfi_remember_state
 1248              		.cfi_def_cfa_offset 0
 1249 00a0 17030000 		tail	__riscv_restore_12
 1249      67000300 
 1250              		.cfi_restore 27
 1251              		.cfi_restore 26
 1252              		.cfi_restore 25
 1253              		.cfi_restore 24
 1254              		.cfi_restore 23
 1255              		.cfi_restore 22
 1256              		.cfi_restore 21
 1257              		.cfi_restore 20
 1258              		.cfi_restore 19
 1259              		.cfi_restore 18
 1260              		.cfi_restore 9
 1261              		.cfi_restore 8
 1262              		.cfi_restore 1
 1263              		.cfi_def_cfa_offset -64
 1264              	.LVL147:
 1265              	.L76:
 1266              		.cfi_restore_state
 1267              	.LBB47:
 204:C:/Users/stapi/OneDrive/Desktop/GD32VW553/V1_MQTT_OK/GD32VW55X_Wifi_BLE_SDK/GD32VW55x_RELEASE_V1.0.2/MSDK/cloud/alicloud/src/services/dev_bind\awss_notify.c ****             break;
 1268              		.loc 1 204 16
 1269 00a8 DC47     		lw	a5,12(a5)
 1270 00aa 3EC8     		sw	a5,16(sp)
 212:C:/Users/stapi/OneDrive/Desktop/GD32VW553/V1_MQTT_OK/GD32VW55X_Wifi_BLE_SDK/GD32VW55x_RELEASE_V1.0.2/MSDK/cloud/alicloud/src/services/dev_bind\awss_notify.c ****         dev_info = os_zalloc(DEV_INFO_LEN_MAX);
 1271              		.loc 1 212 9 is_stmt 1
 212:C:/Users/stapi/OneDrive/Desktop/GD32VW553/V1_MQTT_OK/GD32VW55X_Wifi_BLE_SDK/GD32VW55x_RELEASE_V1.0.2/MSDK/cloud/alicloud/src/services/dev_bind\awss_notify.c ****         dev_info = os_zalloc(DEV_INFO_LEN_MAX);
 1272              		.loc 1 212 15 is_stmt 0
 1273 00ac 97000000 		call	os_zalloc.constprop.0
 1273      E7800000 
 1274              	.LVL148:
 1275 00b4 AA84     		mv	s1,a0
 1276              	.LVL149:
 213:C:/Users/stapi/OneDrive/Desktop/GD32VW553/V1_MQTT_OK/GD32VW55X_Wifi_BLE_SDK/GD32VW55x_RELEASE_V1.0.2/MSDK/cloud/alicloud/src/services/dev_bind\awss_notify.c ****         if (buf == NULL || dev_info == NULL) {
 1277              		.loc 1 213 9 is_stmt 1
 213:C:/Users/stapi/OneDrive/Desktop/GD32VW553/V1_MQTT_OK/GD32VW55X_Wifi_BLE_SDK/GD32VW55x_RELEASE_V1.0.2/MSDK/cloud/alicloud/src/services/dev_bind\awss_notify.c ****         if (buf == NULL || dev_info == NULL) {
 1278              		.loc 1 213 20 is_stmt 0
 1279 00b6 97000000 		call	os_zalloc.constprop.0
 1279      E7800000 
 1280              	.LVL150:
 1281 00be 2A89     		mv	s2,a0
 1282              	.LVL151:
 214:C:/Users/stapi/OneDrive/Desktop/GD32VW553/V1_MQTT_OK/GD32VW55X_Wifi_BLE_SDK/GD32VW55x_RELEASE_V1.0.2/MSDK/cloud/alicloud/src/services/dev_bind\awss_notify.c ****             awss_err("alloc mem fail");
 1283              		.loc 1 214 9 is_stmt 1
 214:C:/Users/stapi/OneDrive/Desktop/GD32VW553/V1_MQTT_OK/GD32VW55X_Wifi_BLE_SDK/GD32VW55x_RELEASE_V1.0.2/MSDK/cloud/alicloud/src/services/dev_bind\awss_notify.c ****             awss_err("alloc mem fail");
 1284              		.loc 1 214 12 is_stmt 0
 1285 00c0 91C0     		beq	s1,zero,.L78
 214:C:/Users/stapi/OneDrive/Desktop/GD32VW553/V1_MQTT_OK/GD32VW55X_Wifi_BLE_SDK/GD32VW55x_RELEASE_V1.0.2/MSDK/cloud/alicloud/src/services/dev_bind\awss_notify.c ****             awss_err("alloc mem fail");
 1286              		.loc 1 214 25 discriminator 1
 1287 00c2 29E5     		bne	a0,zero,.L79
 1288              	.L78:
 215:C:/Users/stapi/OneDrive/Desktop/GD32VW553/V1_MQTT_OK/GD32VW55X_Wifi_BLE_SDK/GD32VW55x_RELEASE_V1.0.2/MSDK/cloud/alicloud/src/services/dev_bind\awss_notify.c ****             break;
 1289              		.loc 1 215 13 is_stmt 1
 215:C:/Users/stapi/OneDrive/Desktop/GD32VW553/V1_MQTT_OK/GD32VW55X_Wifi_BLE_SDK/GD32VW55x_RELEASE_V1.0.2/MSDK/cloud/alicloud/src/services/dev_bind\awss_notify.c ****             break;
 1290              		.loc 1 215 13
 1291 00c4 37050000 		lui	a0,%hi(.LC2)
 1292              	.LVL152:
 1293 00c8 13050500 		addi	a0,a0,%lo(.LC2)
 1294 00cc 97000000 		call	HAL_Printf
 1294      E7800000 
 1295              	.LVL153:
 215:C:/Users/stapi/OneDrive/Desktop/GD32VW553/V1_MQTT_OK/GD32VW55X_Wifi_BLE_SDK/GD32VW55x_RELEASE_V1.0.2/MSDK/cloud/alicloud/src/services/dev_bind\awss_notify.c ****             break;
 1296              		.loc 1 215 13
 1297 00d4 37050000 		lui	a0,%hi(.LC29)
 1298 00d8 13050500 		addi	a0,a0,%lo(.LC29)
 1299 00dc 97000000 		call	HAL_Printf
 1299      E7800000 
 1300              	.LVL154:
 215:C:/Users/stapi/OneDrive/Desktop/GD32VW553/V1_MQTT_OK/GD32VW55X_Wifi_BLE_SDK/GD32VW55x_RELEASE_V1.0.2/MSDK/cloud/alicloud/src/services/dev_bind\awss_notify.c ****             break;
 1301              		.loc 1 215 13
 1302 00e4 13050B00 		addi	a0,s6,%lo(.LC4)
 1303 00e8 97000000 		call	HAL_Printf
 1303      E7800000 
 1304              	.LVL155:
 215:C:/Users/stapi/OneDrive/Desktop/GD32VW553/V1_MQTT_OK/GD32VW55X_Wifi_BLE_SDK/GD32VW55x_RELEASE_V1.0.2/MSDK/cloud/alicloud/src/services/dev_bind\awss_notify.c ****             break;
 1305              		.loc 1 215 13
 216:C:/Users/stapi/OneDrive/Desktop/GD32VW553/V1_MQTT_OK/GD32VW55X_Wifi_BLE_SDK/GD32VW55x_RELEASE_V1.0.2/MSDK/cloud/alicloud/src/services/dev_bind\awss_notify.c ****         }
 1306              		.loc 1 216 13
 1307              	.LBE47:
 243:C:/Users/stapi/OneDrive/Desktop/GD32VW553/V1_MQTT_OK/GD32VW55X_Wifi_BLE_SDK/GD32VW55x_RELEASE_V1.0.2/MSDK/cloud/alicloud/src/services/dev_bind\awss_notify.c **** 
 1308              		.loc 1 243 13
 245:C:/Users/stapi/OneDrive/Desktop/GD32VW553/V1_MQTT_OK/GD32VW55X_Wifi_BLE_SDK/GD32VW55x_RELEASE_V1.0.2/MSDK/cloud/alicloud/src/services/dev_bind\awss_notify.c ****         os_free(buf);
 1309              		.loc 1 245 5
 245:C:/Users/stapi/OneDrive/Desktop/GD32VW553/V1_MQTT_OK/GD32VW55X_Wifi_BLE_SDK/GD32VW55x_RELEASE_V1.0.2/MSDK/cloud/alicloud/src/services/dev_bind\awss_notify.c ****         os_free(buf);
 1310              		.loc 1 245 8 is_stmt 0
 1311 00f0 91C4     		beq	s1,zero,.L81
 1312              	.LVL156:
 1313              	.L80:
 246:C:/Users/stapi/OneDrive/Desktop/GD32VW553/V1_MQTT_OK/GD32VW55X_Wifi_BLE_SDK/GD32VW55x_RELEASE_V1.0.2/MSDK/cloud/alicloud/src/services/dev_bind\awss_notify.c ****     }
 1314              		.loc 1 246 9 is_stmt 1
 1315              	.LBB48:
 1316              	.LBB49:
 394:..\..\..\..\cloud\alicloud\src\services\dev_bind\os/os.h **** }
 1317              		.loc 2 394 5
 1318 00f2 2685     		mv	a0,s1
 1319 00f4 97000000 		call	HAL_Free
 1319      E7800000 
 1320              	.LVL157:
 1321              	.L81:
 1322              	.LBE49:
 1323              	.LBE48:
 248:C:/Users/stapi/OneDrive/Desktop/GD32VW553/V1_MQTT_OK/GD32VW55X_Wifi_BLE_SDK/GD32VW55x_RELEASE_V1.0.2/MSDK/cloud/alicloud/src/services/dev_bind\awss_notify.c ****         os_free(dev_info);
 1324              		.loc 1 248 5
 248:C:/Users/stapi/OneDrive/Desktop/GD32VW553/V1_MQTT_OK/GD32VW55X_Wifi_BLE_SDK/GD32VW55x_RELEASE_V1.0.2/MSDK/cloud/alicloud/src/services/dev_bind\awss_notify.c ****         os_free(dev_info);
 1325              		.loc 1 248 8 is_stmt 0
 1326 00fc E30E09F8 		beq	s2,zero,.L77
 249:C:/Users/stapi/OneDrive/Desktop/GD32VW553/V1_MQTT_OK/GD32VW55X_Wifi_BLE_SDK/GD32VW55x_RELEASE_V1.0.2/MSDK/cloud/alicloud/src/services/dev_bind\awss_notify.c ****     }
 1327              		.loc 1 249 9 is_stmt 1
 1328              	.LVL158:
 1329              	.LBB50:
 1330              	.LBB51:
 394:..\..\..\..\cloud\alicloud\src\services\dev_bind\os/os.h **** }
 1331              		.loc 2 394 5
 1332 0100 4A85     		mv	a0,s2
 1333 0102 97000000 		call	HAL_Free
 1333      E7800000 
 1334              	.LVL159:
 395:..\..\..\..\cloud\alicloud\src\services\dev_bind\os/os.h **** 
 1335              		.loc 2 395 1 is_stmt 0
 1336 010a 79B7     		j	.L77
 1337              	.LVL160:
 1338              	.L79:
 1339              	.LBE51:
 1340              	.LBE50:
 1341              	.LBB52:
 219:C:/Users/stapi/OneDrive/Desktop/GD32VW553/V1_MQTT_OK/GD32VW55X_Wifi_BLE_SDK/GD32VW55x_RELEASE_V1.0.2/MSDK/cloud/alicloud/src/services/dev_bind\awss_notify.c ****         memcpy(notify_sa.host, AWSS_NOTIFY_HOST, strlen(AWSS_NOTIFY_HOST));
 1342              		.loc 1 219 9 is_stmt 1
 220:C:/Users/stapi/OneDrive/Desktop/GD32VW553/V1_MQTT_OK/GD32VW55X_Wifi_BLE_SDK/GD32VW55x_RELEASE_V1.0.2/MSDK/cloud/alicloud/src/services/dev_bind\awss_notify.c ****         notify_sa.port = AWSS_NOTIFY_PORT;
 1343              		.loc 1 220 9 is_stmt 0
 1344 010c B7050000 		lui	a1,%hi(.LC30)
 1345 0110 3D46     		li	a2,15
 1346 0112 93850500 		addi	a1,a1,%lo(.LC30)
 1347 0116 2810     		addi	a0,sp,40
 1348              	.LVL161:
 1349 0118 A30B0102 		sb	zero,55(sp)
 220:C:/Users/stapi/OneDrive/Desktop/GD32VW553/V1_MQTT_OK/GD32VW55X_Wifi_BLE_SDK/GD32VW55x_RELEASE_V1.0.2/MSDK/cloud/alicloud/src/services/dev_bind\awss_notify.c ****         notify_sa.port = AWSS_NOTIFY_PORT;
 1350              		.loc 1 220 9 is_stmt 1
 1351 011c 97000000 		call	memcpy
 1351      E7800000 
 1352              	.LVL162:
 221:C:/Users/stapi/OneDrive/Desktop/GD32VW553/V1_MQTT_OK/GD32VW55X_Wifi_BLE_SDK/GD32VW55x_RELEASE_V1.0.2/MSDK/cloud/alicloud/src/services/dev_bind\awss_notify.c **** 
 1353              		.loc 1 221 9
 221:C:/Users/stapi/OneDrive/Desktop/GD32VW553/V1_MQTT_OK/GD32VW55X_Wifi_BLE_SDK/GD32VW55x_RELEASE_V1.0.2/MSDK/cloud/alicloud/src/services/dev_bind\awss_notify.c **** 
 1354              		.loc 1 221 24 is_stmt 0
 1355 0124 8567     		li	a5,4096
 1356 0126 93873763 		addi	a5,a5,1587
 223:C:/Users/stapi/OneDrive/Desktop/GD32VW553/V1_MQTT_OK/GD32VW55X_Wifi_BLE_SDK/GD32VW55x_RELEASE_V1.0.2/MSDK/cloud/alicloud/src/services/dev_bind\awss_notify.c **** 
 1357              		.loc 1 223 9
 1358 012a 13060024 		li	a2,576
 1359 012e CA85     		mv	a1,s2
 1360 0130 2285     		mv	a0,s0
 221:C:/Users/stapi/OneDrive/Desktop/GD32VW553/V1_MQTT_OK/GD32VW55X_Wifi_BLE_SDK/GD32VW55x_RELEASE_V1.0.2/MSDK/cloud/alicloud/src/services/dev_bind\awss_notify.c **** 
 1361              		.loc 1 221 24
 1362 0132 231CF102 		sh	a5,56(sp)
 223:C:/Users/stapi/OneDrive/Desktop/GD32VW553/V1_MQTT_OK/GD32VW55X_Wifi_BLE_SDK/GD32VW55x_RELEASE_V1.0.2/MSDK/cloud/alicloud/src/services/dev_bind\awss_notify.c **** 
 1363              		.loc 1 223 9 is_stmt 1
 1364 0136 97000000 		call	awss_build_dev_info
 1364      E7800000 
 1365              	.LVL163:
 225:C:/Users/stapi/OneDrive/Desktop/GD32VW553/V1_MQTT_OK/GD32VW55X_Wifi_BLE_SDK/GD32VW55x_RELEASE_V1.0.2/MSDK/cloud/alicloud/src/services/dev_bind\awss_notify.c ****         utils_hex_to_str(g_aes_random, RANDOM_MAX_LEN, rand_str, sizeof(rand_str));
 1366              		.loc 1 225 9
 225:C:/Users/stapi/OneDrive/Desktop/GD32VW553/V1_MQTT_OK/GD32VW55X_Wifi_BLE_SDK/GD32VW55x_RELEASE_V1.0.2/MSDK/cloud/alicloud/src/services/dev_bind\awss_notify.c ****         utils_hex_to_str(g_aes_random, RANDOM_MAX_LEN, rand_str, sizeof(rand_str));
 1367              		.loc 1 225 66 is_stmt 0
 1368 013e B7070000 		lui	a5,%hi(.LANCHOR2)
 1369 0142 93870700 		addi	a5,a5,%lo(.LANCHOR2)
 1370 0146 83C60700 		lbu	a3,0(a5)
 225:C:/Users/stapi/OneDrive/Desktop/GD32VW553/V1_MQTT_OK/GD32VW55X_Wifi_BLE_SDK/GD32VW55x_RELEASE_V1.0.2/MSDK/cloud/alicloud/src/services/dev_bind\awss_notify.c ****         utils_hex_to_str(g_aes_random, RANDOM_MAX_LEN, rand_str, sizeof(rand_str));
 1371              		.loc 1 225 9
 1372 014a 37060000 		lui	a2,%hi(.LC31)
 1373 014e 5687     		mv	a4,s5
 225:C:/Users/stapi/OneDrive/Desktop/GD32VW553/V1_MQTT_OK/GD32VW55X_Wifi_BLE_SDK/GD32VW55x_RELEASE_V1.0.2/MSDK/cloud/alicloud/src/services/dev_bind\awss_notify.c ****         utils_hex_to_str(g_aes_random, RANDOM_MAX_LEN, rand_str, sizeof(rand_str));
 1374              		.loc 1 225 66
 1375 0150 8506     		addi	a3,a3,1
 1376 0152 93F6F60F 		andi	a3,a3,0xff
 225:C:/Users/stapi/OneDrive/Desktop/GD32VW553/V1_MQTT_OK/GD32VW55X_Wifi_BLE_SDK/GD32VW55x_RELEASE_V1.0.2/MSDK/cloud/alicloud/src/services/dev_bind\awss_notify.c ****         utils_hex_to_str(g_aes_random, RANDOM_MAX_LEN, rand_str, sizeof(rand_str));
 1377              		.loc 1 225 9
 1378 0156 2380D700 		sb	a3,0(a5)
 1379 015a 13060600 		addi	a2,a2,%lo(.LC31)
 1380 015e CA87     		mv	a5,s2
 1381 0160 9305F023 		li	a1,575
 1382 0164 2685     		mv	a0,s1
 1383 0166 97000000 		call	snprintf
 1383      E7800000 
 1384              	.LVL164:
 226:C:/Users/stapi/OneDrive/Desktop/GD32VW553/V1_MQTT_OK/GD32VW55X_Wifi_BLE_SDK/GD32VW55x_RELEASE_V1.0.2/MSDK/cloud/alicloud/src/services/dev_bind\awss_notify.c ****         if (type == AWSS_NOTIFY_SUCCESS) {
 1385              		.loc 1 226 9 is_stmt 1
 1386 016e 37050000 		lui	a0,%hi(g_aes_random)
 1387 0172 8546     		li	a3,1
 1388 0174 4146     		li	a2,16
 1389 0176 6C18     		addi	a1,sp,60
 1390 0178 13050500 		addi	a0,a0,%lo(g_aes_random)
 1391 017c 97000000 		call	LITE_hexbuf_convert
 1391      E7800000 
 1392              	.LVL165:
 227:C:/Users/stapi/OneDrive/Desktop/GD32VW553/V1_MQTT_OK/GD32VW55X_Wifi_BLE_SDK/GD32VW55x_RELEASE_V1.0.2/MSDK/cloud/alicloud/src/services/dev_bind\awss_notify.c ****             dump_awss_status(STATE_WIFI_SENT_CONNECTAP_NOTIFY, "connect ap notify");
 1393              		.loc 1 227 9
 227:C:/Users/stapi/OneDrive/Desktop/GD32VW553/V1_MQTT_OK/GD32VW55X_Wifi_BLE_SDK/GD32VW55x_RELEASE_V1.0.2/MSDK/cloud/alicloud/src/services/dev_bind\awss_notify.c ****             dump_awss_status(STATE_WIFI_SENT_CONNECTAP_NOTIFY, "connect ap notify");
 1394              		.loc 1 227 12 is_stmt 0
 1395 0184 8D47     		li	a5,3
 1396 0186 631DF400 		bne	s0,a5,.L82
 228:C:/Users/stapi/OneDrive/Desktop/GD32VW553/V1_MQTT_OK/GD32VW55X_Wifi_BLE_SDK/GD32VW55x_RELEASE_V1.0.2/MSDK/cloud/alicloud/src/services/dev_bind\awss_notify.c ****         } else if (type == AWSS_NOTIFY_DEV_RAND_SIGN) {
 1397              		.loc 1 228 13 is_stmt 1
 1398 018a 37060000 		lui	a2,%hi(.LC32)
 1399 018e 13060600 		addi	a2,a2,%lo(.LC32)
 1400 0192 930510BE 		li	a1,-1055
 1401 0196 6D45     		li	a0,27
 1402 0198 97000000 		call	iotx_state_event
 1402      E7800000 
 1403              	.LVL166:
 1404              	.L82:
 231:C:/Users/stapi/OneDrive/Desktop/GD32VW553/V1_MQTT_OK/GD32VW55X_Wifi_BLE_SDK/GD32VW55x_RELEASE_V1.0.2/MSDK/cloud/alicloud/src/services/dev_bind\awss_notify.c ****         awss_info("topic:%s\n", topic);
 1405              		.loc 1 231 9
 232:C:/Users/stapi/OneDrive/Desktop/GD32VW553/V1_MQTT_OK/GD32VW55X_Wifi_BLE_SDK/GD32VW55x_RELEASE_V1.0.2/MSDK/cloud/alicloud/src/services/dev_bind\awss_notify.c ****         awss_debug("payload:%s\n", buf);
 1406              		.loc 1 232 9
 232:C:/Users/stapi/OneDrive/Desktop/GD32VW553/V1_MQTT_OK/GD32VW55X_Wifi_BLE_SDK/GD32VW55x_RELEASE_V1.0.2/MSDK/cloud/alicloud/src/services/dev_bind\awss_notify.c ****         awss_debug("payload:%s\n", buf);
 1407              		.loc 1 232 9
 1408 01a0 370C0000 		lui	s8,%hi(.LC20)
 1409 01a4 13050C00 		addi	a0,s8,%lo(.LC20)
 1410 01a8 97000000 		call	HAL_Printf
 1410      E7800000 
 1411              	.LVL167:
 232:C:/Users/stapi/OneDrive/Desktop/GD32VW553/V1_MQTT_OK/GD32VW55X_Wifi_BLE_SDK/GD32VW55x_RELEASE_V1.0.2/MSDK/cloud/alicloud/src/services/dev_bind\awss_notify.c ****         awss_debug("payload:%s\n", buf);
 1412              		.loc 1 232 9
 1413 01b0 37050000 		lui	a0,%hi(.LC33)
 1414 01b4 DE85     		mv	a1,s7
 1415 01b6 13050500 		addi	a0,a0,%lo(.LC33)
 1416 01ba 97000000 		call	HAL_Printf
 1416      E7800000 
 1417              	.LVL168:
 232:C:/Users/stapi/OneDrive/Desktop/GD32VW553/V1_MQTT_OK/GD32VW55X_Wifi_BLE_SDK/GD32VW55x_RELEASE_V1.0.2/MSDK/cloud/alicloud/src/services/dev_bind\awss_notify.c ****         awss_debug("payload:%s\n", buf);
 1418              		.loc 1 232 9
 1419 01c2 13050B00 		addi	a0,s6,%lo(.LC4)
 1420 01c6 97000000 		call	HAL_Printf
 1420      E7800000 
 1421              	.LVL169:
 232:C:/Users/stapi/OneDrive/Desktop/GD32VW553/V1_MQTT_OK/GD32VW55X_Wifi_BLE_SDK/GD32VW55x_RELEASE_V1.0.2/MSDK/cloud/alicloud/src/services/dev_bind\awss_notify.c ****         awss_debug("payload:%s\n", buf);
 1422              		.loc 1 232 9
 233:C:/Users/stapi/OneDrive/Desktop/GD32VW553/V1_MQTT_OK/GD32VW55X_Wifi_BLE_SDK/GD32VW55x_RELEASE_V1.0.2/MSDK/cloud/alicloud/src/services/dev_bind\awss_notify.c ****         for (i = 0; i < count; i ++) {
 1423              		.loc 1 233 9
 1424 01ce 37070000 		lui	a4,%hi(.LC34)
 1425 01d2 B7050000 		lui	a1,%hi(.LANCHOR8)
 1426 01d6 37050000 		lui	a0,%hi(.LC1)
 1427 01da A687     		mv	a5,s1
 1428 01dc 13070700 		addi	a4,a4,%lo(.LC34)
 1429 01e0 9546     		li	a3,5
 1430 01e2 1306900E 		li	a2,233
 1431 01e6 93850500 		addi	a1,a1,%lo(.LANCHOR8)
 1432 01ea 13050500 		addi	a0,a0,%lo(.LC1)
 1433 01ee 97000000 		call	LITE_syslog
 1433      E7800000 
 1434              	.LVL170:
 234:C:/Users/stapi/OneDrive/Desktop/GD32VW553/V1_MQTT_OK/GD32VW55X_Wifi_BLE_SDK/GD32VW55x_RELEASE_V1.0.2/MSDK/cloud/alicloud/src/services/dev_bind\awss_notify.c ****             int ret = awss_cmp_coap_send(buf, strlen(buf), &notify_sa, topic, cb, &g_notify_msg_id[
 1435              		.loc 1 234 9
 1436              	.LBB39:
 235:C:/Users/stapi/OneDrive/Desktop/GD32VW553/V1_MQTT_OK/GD32VW55X_Wifi_BLE_SDK/GD32VW55x_RELEASE_V1.0.2/MSDK/cloud/alicloud/src/services/dev_bind\awss_notify.c ****             awss_info("coap send notify %s", ret == 0 ? "success" : "fail");
 1437              		.loc 1 235 23 is_stmt 0
 1438 01f6 B7070000 		lui	a5,%hi(.LANCHOR9)
 1439 01fa 93870700 		addi	a5,a5,%lo(.LANCHOR9)
 1440 01fe B327F420 		sh1add	a5,s0,a5
 1441 0202 3EC6     		sw	a5,12(sp)
 236:C:/Users/stapi/OneDrive/Desktop/GD32VW553/V1_MQTT_OK/GD32VW55X_Wifi_BLE_SDK/GD32VW55x_RELEASE_V1.0.2/MSDK/cloud/alicloud/src/services/dev_bind\awss_notify.c ****             if (count > 1)
 1442              		.loc 1 236 13
 1443 0204 B7070000 		lui	a5,%hi(.LC26)
 1444 0208 93870700 		addi	a5,a5,%lo(.LC26)
 1445 020c 3ECA     		sw	a5,20(sp)
 1446 020e B7070000 		lui	a5,%hi(.LC27)
 1447 0212 93870700 		addi	a5,a5,%lo(.LC27)
 1448              	.LBE39:
 234:C:/Users/stapi/OneDrive/Desktop/GD32VW553/V1_MQTT_OK/GD32VW55X_Wifi_BLE_SDK/GD32VW55x_RELEASE_V1.0.2/MSDK/cloud/alicloud/src/services/dev_bind\awss_notify.c ****             int ret = awss_cmp_coap_send(buf, strlen(buf), &notify_sa, topic, cb, &g_notify_msg_id[
 1449              		.loc 1 234 16
 1450 0216 814A     		li	s5,0
 1451              	.LVL171:
 1452              	.LBB44:
 236:C:/Users/stapi/OneDrive/Desktop/GD32VW553/V1_MQTT_OK/GD32VW55X_Wifi_BLE_SDK/GD32VW55x_RELEASE_V1.0.2/MSDK/cloud/alicloud/src/services/dev_bind\awss_notify.c ****             if (count > 1)
 1453              		.loc 1 236 13
 1454 0218 3ECC     		sw	a5,24(sp)
 237:C:/Users/stapi/OneDrive/Desktop/GD32VW553/V1_MQTT_OK/GD32VW55X_Wifi_BLE_SDK/GD32VW55x_RELEASE_V1.0.2/MSDK/cloud/alicloud/src/services/dev_bind\awss_notify.c ****                 os_msleep(200 + 100 * i);
 1455              		.loc 1 237 16
 1456 021a 854C     		li	s9,1
 1457              	.LBB40:
 1458              	.LBB41:
 210:..\..\..\..\cloud\alicloud\src\services\dev_bind\os/os.h **** }
 1459              		.loc 2 210 5
 1460 021c 130D4006 		li	s10,100
 1461              	.LBE41:
 1462              	.LBE40:
 240:C:/Users/stapi/OneDrive/Desktop/GD32VW553/V1_MQTT_OK/GD32VW55X_Wifi_BLE_SDK/GD32VW55x_RELEASE_V1.0.2/MSDK/cloud/alicloud/src/services/dev_bind\awss_notify.c ****                 break;
 1463              		.loc 1 240 33
 1464 0220 B38D8900 		add	s11,s3,s0
 1465              	.LVL172:
 1466              	.L83:
 1467              	.LBE44:
 234:C:/Users/stapi/OneDrive/Desktop/GD32VW553/V1_MQTT_OK/GD32VW55X_Wifi_BLE_SDK/GD32VW55x_RELEASE_V1.0.2/MSDK/cloud/alicloud/src/services/dev_bind\awss_notify.c ****             int ret = awss_cmp_coap_send(buf, strlen(buf), &notify_sa, topic, cb, &g_notify_msg_id[
 1468              		.loc 1 234 21 is_stmt 1 discriminator 1
 234:C:/Users/stapi/OneDrive/Desktop/GD32VW553/V1_MQTT_OK/GD32VW55X_Wifi_BLE_SDK/GD32VW55x_RELEASE_V1.0.2/MSDK/cloud/alicloud/src/services/dev_bind\awss_notify.c ****             int ret = awss_cmp_coap_send(buf, strlen(buf), &notify_sa, topic, cb, &g_notify_msg_id[
 1469              		.loc 1 234 9 is_stmt 0 discriminator 1
 1470 0224 E3D74AED 		bge	s5,s4,.L80
 1471              	.LBB45:
 235:C:/Users/stapi/OneDrive/Desktop/GD32VW553/V1_MQTT_OK/GD32VW55X_Wifi_BLE_SDK/GD32VW55x_RELEASE_V1.0.2/MSDK/cloud/alicloud/src/services/dev_bind\awss_notify.c ****             awss_info("coap send notify %s", ret == 0 ? "success" : "fail");
 1472              		.loc 1 235 13 is_stmt 1
 235:C:/Users/stapi/OneDrive/Desktop/GD32VW553/V1_MQTT_OK/GD32VW55X_Wifi_BLE_SDK/GD32VW55x_RELEASE_V1.0.2/MSDK/cloud/alicloud/src/services/dev_bind\awss_notify.c ****             awss_info("coap send notify %s", ret == 0 ? "success" : "fail");
 1473              		.loc 1 235 47 is_stmt 0
 1474 0228 2685     		mv	a0,s1
 1475 022a 97000000 		call	strlen
 1475      E7800000 
 1476              	.LVL173:
 235:C:/Users/stapi/OneDrive/Desktop/GD32VW553/V1_MQTT_OK/GD32VW55X_Wifi_BLE_SDK/GD32VW55x_RELEASE_V1.0.2/MSDK/cloud/alicloud/src/services/dev_bind\awss_notify.c ****             awss_info("coap send notify %s", ret == 0 ? "success" : "fail");
 1477              		.loc 1 235 23
 1478 0232 B247     		lw	a5,12(sp)
 1479 0234 4247     		lw	a4,16(sp)
 235:C:/Users/stapi/OneDrive/Desktop/GD32VW553/V1_MQTT_OK/GD32VW55X_Wifi_BLE_SDK/GD32VW55x_RELEASE_V1.0.2/MSDK/cloud/alicloud/src/services/dev_bind\awss_notify.c ****             awss_info("coap send notify %s", ret == 0 ? "success" : "fail");
 1480              		.loc 1 235 47
 1481 0236 AA85     		mv	a1,a0
 235:C:/Users/stapi/OneDrive/Desktop/GD32VW553/V1_MQTT_OK/GD32VW55X_Wifi_BLE_SDK/GD32VW55x_RELEASE_V1.0.2/MSDK/cloud/alicloud/src/services/dev_bind\awss_notify.c ****             awss_info("coap send notify %s", ret == 0 ? "success" : "fail");
 1482              		.loc 1 235 23
 1483 0238 DE86     		mv	a3,s7
 1484 023a 3010     		addi	a2,sp,40
 1485 023c 2685     		mv	a0,s1
 1486 023e 97000000 		call	awss_cmp_coap_send
 1486      E7800000 
 1487              	.LVL174:
 1488 0246 2ACE     		sw	a0,28(sp)
 1489              	.LVL175:
 236:C:/Users/stapi/OneDrive/Desktop/GD32VW553/V1_MQTT_OK/GD32VW55X_Wifi_BLE_SDK/GD32VW55x_RELEASE_V1.0.2/MSDK/cloud/alicloud/src/services/dev_bind\awss_notify.c ****             if (count > 1)
 1490              		.loc 1 236 13 is_stmt 1
 236:C:/Users/stapi/OneDrive/Desktop/GD32VW553/V1_MQTT_OK/GD32VW55X_Wifi_BLE_SDK/GD32VW55x_RELEASE_V1.0.2/MSDK/cloud/alicloud/src/services/dev_bind\awss_notify.c ****             if (count > 1)
 1491              		.loc 1 236 13
 1492 0248 13050C00 		addi	a0,s8,%lo(.LC20)
 1493              	.LVL176:
 1494 024c 97000000 		call	HAL_Printf
 1494      E7800000 
 1495              	.LVL177:
 236:C:/Users/stapi/OneDrive/Desktop/GD32VW553/V1_MQTT_OK/GD32VW55X_Wifi_BLE_SDK/GD32VW55x_RELEASE_V1.0.2/MSDK/cloud/alicloud/src/services/dev_bind\awss_notify.c ****             if (count > 1)
 1496              		.loc 1 236 13
 1497 0254 F247     		lw	a5,28(sp)
 1498 0256 D245     		lw	a1,20(sp)
 1499 0258 91C3     		beq	a5,zero,.L84
 1500 025a E245     		lw	a1,24(sp)
 1501              	.L84:
 236:C:/Users/stapi/OneDrive/Desktop/GD32VW553/V1_MQTT_OK/GD32VW55X_Wifi_BLE_SDK/GD32VW55x_RELEASE_V1.0.2/MSDK/cloud/alicloud/src/services/dev_bind\awss_notify.c ****             if (count > 1)
 1502              		.loc 1 236 13 is_stmt 0 discriminator 4
 1503 025c B7070000 		lui	a5,%hi(.LC35)
 1504 0260 13850700 		addi	a0,a5,%lo(.LC35)
 1505 0264 97000000 		call	HAL_Printf
 1505      E7800000 
 1506              	.LVL178:
 236:C:/Users/stapi/OneDrive/Desktop/GD32VW553/V1_MQTT_OK/GD32VW55X_Wifi_BLE_SDK/GD32VW55x_RELEASE_V1.0.2/MSDK/cloud/alicloud/src/services/dev_bind\awss_notify.c ****             if (count > 1)
 1507              		.loc 1 236 13 is_stmt 1 discriminator 4
 1508 026c 13050B00 		addi	a0,s6,%lo(.LC4)
 1509 0270 97000000 		call	HAL_Printf
 1509      E7800000 
 1510              	.LVL179:
 236:C:/Users/stapi/OneDrive/Desktop/GD32VW553/V1_MQTT_OK/GD32VW55X_Wifi_BLE_SDK/GD32VW55x_RELEASE_V1.0.2/MSDK/cloud/alicloud/src/services/dev_bind\awss_notify.c ****             if (count > 1)
 1511              		.loc 1 236 13 discriminator 4
 237:C:/Users/stapi/OneDrive/Desktop/GD32VW553/V1_MQTT_OK/GD32VW55X_Wifi_BLE_SDK/GD32VW55x_RELEASE_V1.0.2/MSDK/cloud/alicloud/src/services/dev_bind\awss_notify.c ****                 os_msleep(200 + 100 * i);
 1512              		.loc 1 237 13 discriminator 4
 237:C:/Users/stapi/OneDrive/Desktop/GD32VW553/V1_MQTT_OK/GD32VW55X_Wifi_BLE_SDK/GD32VW55x_RELEASE_V1.0.2/MSDK/cloud/alicloud/src/services/dev_bind\awss_notify.c ****                 os_msleep(200 + 100 * i);
 1513              		.loc 1 237 16 is_stmt 0 discriminator 4
 1514 0278 630A9A01 		beq	s4,s9,.L85
 238:C:/Users/stapi/OneDrive/Desktop/GD32VW553/V1_MQTT_OK/GD32VW55X_Wifi_BLE_SDK/GD32VW55x_RELEASE_V1.0.2/MSDK/cloud/alicloud/src/services/dev_bind\awss_notify.c **** 
 1515              		.loc 1 238 17 is_stmt 1
 1516              	.LVL180:
 1517              	.LBB43:
 1518              	.LBB42:
 210:..\..\..\..\cloud\alicloud\src\services\dev_bind\os/os.h **** }
 1519              		.loc 2 210 5
 1520 027c 3385AA03 		mul	a0,s5,s10
 1521 0280 1305850C 		addi	a0,a0,200
 1522 0284 97000000 		call	HAL_SleepMs
 1522      E7800000 
 1523              	.LVL181:
 1524              	.L85:
 1525              	.LBE42:
 1526              	.LBE43:
 240:C:/Users/stapi/OneDrive/Desktop/GD32VW553/V1_MQTT_OK/GD32VW55X_Wifi_BLE_SDK/GD32VW55x_RELEASE_V1.0.2/MSDK/cloud/alicloud/src/services/dev_bind\awss_notify.c ****                 break;
 1527              		.loc 1 240 13
 240:C:/Users/stapi/OneDrive/Desktop/GD32VW553/V1_MQTT_OK/GD32VW55X_Wifi_BLE_SDK/GD32VW55x_RELEASE_V1.0.2/MSDK/cloud/alicloud/src/services/dev_bind\awss_notify.c ****                 break;
 1528              		.loc 1 240 16 is_stmt 0
 1529 028c 83870D00 		lb	a5,0(s11)
 1530 0290 E39107E6 		bne	a5,zero,.L80
 1531              	.LBE45:
 234:C:/Users/stapi/OneDrive/Desktop/GD32VW553/V1_MQTT_OK/GD32VW55X_Wifi_BLE_SDK/GD32VW55x_RELEASE_V1.0.2/MSDK/cloud/alicloud/src/services/dev_bind\awss_notify.c ****             int ret = awss_cmp_coap_send(buf, strlen(buf), &notify_sa, topic, cb, &g_notify_msg_id[
 1532              		.loc 1 234 32 is_stmt 1 discriminator 2
 234:C:/Users/stapi/OneDrive/Desktop/GD32VW553/V1_MQTT_OK/GD32VW55X_Wifi_BLE_SDK/GD32VW55x_RELEASE_V1.0.2/MSDK/cloud/alicloud/src/services/dev_bind\awss_notify.c ****             int ret = awss_cmp_coap_send(buf, strlen(buf), &notify_sa, topic, cb, &g_notify_msg_id[
 1533              		.loc 1 234 34 is_stmt 0 discriminator 2
 1534 0294 850A     		addi	s5,s5,1
 1535              	.LVL182:
 1536 0296 79B7     		j	.L83
 1537              	.LBE52:
 1538              		.cfi_endproc
 1539              	.LFE68:
 1541              		.section	.rodata.__awss_dev_bind_notify.str1.4,"aMS",@progbits,1
 1542              		.align	2
 1543              	.LC36:
 1544 0000 6465765F 		.string	"dev_bind"
 1544      62696E64 
 1544      00
 1545              		.section	.text.__awss_dev_bind_notify,"ax",@progbits
 1546              		.align	1
 1548              	__awss_dev_bind_notify:
 1549              	.LFB73:
 400:C:/Users/stapi/OneDrive/Desktop/GD32VW553/V1_MQTT_OK/GD32VW55X_Wifi_BLE_SDK/GD32VW55x_RELEASE_V1.0.2/MSDK/cloud/alicloud/src/services/dev_bind\awss_notify.c **** 
 401:C:/Users/stapi/OneDrive/Desktop/GD32VW553/V1_MQTT_OK/GD32VW55X_Wifi_BLE_SDK/GD32VW55x_RELEASE_V1.0.2/MSDK/cloud/alicloud/src/services/dev_bind\awss_notify.c **** int online_mcast_get_device_info(void *ctx, void *resource, void *remote, void *request)
 402:C:/Users/stapi/OneDrive/Desktop/GD32VW553/V1_MQTT_OK/GD32VW55X_Wifi_BLE_SDK/GD32VW55x_RELEASE_V1.0.2/MSDK/cloud/alicloud/src/services/dev_bind\awss_notify.c **** {
 403:C:/Users/stapi/OneDrive/Desktop/GD32VW553/V1_MQTT_OK/GD32VW55X_Wifi_BLE_SDK/GD32VW55x_RELEASE_V1.0.2/MSDK/cloud/alicloud/src/services/dev_bind\awss_notify.c ****     return online_get_device_info(ctx, resource, remote, request, 1);
 404:C:/Users/stapi/OneDrive/Desktop/GD32VW553/V1_MQTT_OK/GD32VW55X_Wifi_BLE_SDK/GD32VW55x_RELEASE_V1.0.2/MSDK/cloud/alicloud/src/services/dev_bind\awss_notify.c **** }
 405:C:/Users/stapi/OneDrive/Desktop/GD32VW553/V1_MQTT_OK/GD32VW55X_Wifi_BLE_SDK/GD32VW55x_RELEASE_V1.0.2/MSDK/cloud/alicloud/src/services/dev_bind\awss_notify.c **** 
 406:C:/Users/stapi/OneDrive/Desktop/GD32VW553/V1_MQTT_OK/GD32VW55X_Wifi_BLE_SDK/GD32VW55x_RELEASE_V1.0.2/MSDK/cloud/alicloud/src/services/dev_bind\awss_notify.c **** int online_ucast_get_device_info(void *ctx, void *resource, void *remote, void *request)
 407:C:/Users/stapi/OneDrive/Desktop/GD32VW553/V1_MQTT_OK/GD32VW55X_Wifi_BLE_SDK/GD32VW55x_RELEASE_V1.0.2/MSDK/cloud/alicloud/src/services/dev_bind\awss_notify.c **** {
 408:C:/Users/stapi/OneDrive/Desktop/GD32VW553/V1_MQTT_OK/GD32VW55X_Wifi_BLE_SDK/GD32VW55x_RELEASE_V1.0.2/MSDK/cloud/alicloud/src/services/dev_bind\awss_notify.c ****     return online_get_device_info(ctx, resource, remote, request, 0);
 409:C:/Users/stapi/OneDrive/Desktop/GD32VW553/V1_MQTT_OK/GD32VW55X_Wifi_BLE_SDK/GD32VW55x_RELEASE_V1.0.2/MSDK/cloud/alicloud/src/services/dev_bind\awss_notify.c **** }
 410:C:/Users/stapi/OneDrive/Desktop/GD32VW553/V1_MQTT_OK/GD32VW55X_Wifi_BLE_SDK/GD32VW55x_RELEASE_V1.0.2/MSDK/cloud/alicloud/src/services/dev_bind\awss_notify.c **** 
 411:C:/Users/stapi/OneDrive/Desktop/GD32VW553/V1_MQTT_OK/GD32VW55X_Wifi_BLE_SDK/GD32VW55x_RELEASE_V1.0.2/MSDK/cloud/alicloud/src/services/dev_bind\awss_notify.c **** static int dev_bind_interval = 0;
 412:C:/Users/stapi/OneDrive/Desktop/GD32VW553/V1_MQTT_OK/GD32VW55X_Wifi_BLE_SDK/GD32VW55x_RELEASE_V1.0.2/MSDK/cloud/alicloud/src/services/dev_bind\awss_notify.c **** static char dev_sync_token = 0;
 413:C:/Users/stapi/OneDrive/Desktop/GD32VW553/V1_MQTT_OK/GD32VW55X_Wifi_BLE_SDK/GD32VW55x_RELEASE_V1.0.2/MSDK/cloud/alicloud/src/services/dev_bind\awss_notify.c **** static char dev_bind_cnt = 0;
 414:C:/Users/stapi/OneDrive/Desktop/GD32VW553/V1_MQTT_OK/GD32VW55X_Wifi_BLE_SDK/GD32VW55x_RELEASE_V1.0.2/MSDK/cloud/alicloud/src/services/dev_bind\awss_notify.c **** static int __awss_dev_bind_notify()
 415:C:/Users/stapi/OneDrive/Desktop/GD32VW553/V1_MQTT_OK/GD32VW55X_Wifi_BLE_SDK/GD32VW55x_RELEASE_V1.0.2/MSDK/cloud/alicloud/src/services/dev_bind\awss_notify.c **** {
 1550              		.loc 1 415 1 is_stmt 1
 1551              		.cfi_startproc
 1552 0000 17030000 		call	t0,__riscv_save_6
 1552      E7020300 
 1553              		.cfi_offset 21, -28
 1554              		.cfi_offset 20, -24
 1555              		.cfi_offset 19, -20
 1556              		.cfi_offset 18, -16
 1557              		.cfi_offset 9, -12
 1558              		.cfi_offset 8, -8
 1559              		.cfi_offset 1, -4
 1560              		.cfi_def_cfa_offset 32
 416:C:/Users/stapi/OneDrive/Desktop/GD32VW553/V1_MQTT_OK/GD32VW55X_Wifi_BLE_SDK/GD32VW55x_RELEASE_V1.0.2/MSDK/cloud/alicloud/src/services/dev_bind\awss_notify.c ****     /*
 417:C:/Users/stapi/OneDrive/Desktop/GD32VW553/V1_MQTT_OK/GD32VW55X_Wifi_BLE_SDK/GD32VW55x_RELEASE_V1.0.2/MSDK/cloud/alicloud/src/services/dev_bind\awss_notify.c ****      * wait for token is sent to cloud and rx reply from cloud
 418:C:/Users/stapi/OneDrive/Desktop/GD32VW553/V1_MQTT_OK/GD32VW55X_Wifi_BLE_SDK/GD32VW55x_RELEASE_V1.0.2/MSDK/cloud/alicloud/src/services/dev_bind\awss_notify.c ****      */
 419:C:/Users/stapi/OneDrive/Desktop/GD32VW553/V1_MQTT_OK/GD32VW55X_Wifi_BLE_SDK/GD32VW55x_RELEASE_V1.0.2/MSDK/cloud/alicloud/src/services/dev_bind\awss_notify.c ****     if (awss_report_token_suc == 0) {
 1561              		.loc 1 419 5
 1562              		.loc 1 419 31 is_stmt 0
 1563 0008 370A0000 		lui	s4,%hi(awss_report_token_suc)
 1564              		.loc 1 419 8
 1565 000c 83070A00 		lb	a5,%lo(awss_report_token_suc)(s4)
 1566 0010 A1E7     		bne	a5,zero,.L103
 420:C:/Users/stapi/OneDrive/Desktop/GD32VW553/V1_MQTT_OK/GD32VW55X_Wifi_BLE_SDK/GD32VW55x_RELEASE_V1.0.2/MSDK/cloud/alicloud/src/services/dev_bind\awss_notify.c ****         if (dev_bind_notify_timer == NULL)
 1567              		.loc 1 420 9 is_stmt 1
 1568              		.loc 1 420 35 is_stmt 0
 1569 0012 37040000 		lui	s0,%hi(.LANCHOR10)
 1570              		.loc 1 420 12
 1571 0016 83270400 		lw	a5,%lo(.LANCHOR10)(s0)
 1572 001a 13040400 		addi	s0,s0,%lo(.LANCHOR10)
 1573 001e 99EF     		bne	a5,zero,.L104
 421:C:/Users/stapi/OneDrive/Desktop/GD32VW553/V1_MQTT_OK/GD32VW55X_Wifi_BLE_SDK/GD32VW55x_RELEASE_V1.0.2/MSDK/cloud/alicloud/src/services/dev_bind\awss_notify.c ****             dev_bind_notify_timer = HAL_Timer_Create("dev_bind", (void (*)(void *))__awss_dev_bind_
 1574              		.loc 1 421 13 is_stmt 1
 1575              		.loc 1 421 37 is_stmt 0
 1576 0020 B7050000 		lui	a1,%hi(__awss_dev_bind_notify)
 1577 0024 37050000 		lui	a0,%hi(.LC36)
 1578 0028 0146     		li	a2,0
 1579 002a 93850500 		addi	a1,a1,%lo(__awss_dev_bind_notify)
 1580 002e 13050500 		addi	a0,a0,%lo(.LC36)
 1581 0032 97000000 		call	HAL_Timer_Create
 1581      E7800000 
 1582              	.LVL183:
 1583              		.loc 1 421 35
 1584 003a 08C0     		sw	a0,0(s0)
 1585              	.L104:
 422:C:/Users/stapi/OneDrive/Desktop/GD32VW553/V1_MQTT_OK/GD32VW55X_Wifi_BLE_SDK/GD32VW55x_RELEASE_V1.0.2/MSDK/cloud/alicloud/src/services/dev_bind\awss_notify.c ****         HAL_Timer_Stop(dev_bind_notify_timer);
 1586              		.loc 1 422 9 is_stmt 1
 1587 003c 0840     		lw	a0,0(s0)
 1588 003e 97000000 		call	HAL_Timer_Stop
 1588      E7800000 
 1589              	.LVL184:
 423:C:/Users/stapi/OneDrive/Desktop/GD32VW553/V1_MQTT_OK/GD32VW55X_Wifi_BLE_SDK/GD32VW55x_RELEASE_V1.0.2/MSDK/cloud/alicloud/src/services/dev_bind\awss_notify.c ****         HAL_Timer_Start(dev_bind_notify_timer, AWSS_CHECK_RESP_TIME);
 1590              		.loc 1 423 9
 1591 0046 0840     		lw	a0,0(s0)
 1592 0048 9305C012 		li	a1,300
 1593 004c 97000000 		call	HAL_Timer_Start
 1593      E7800000 
 1594              	.LVL185:
 424:C:/Users/stapi/OneDrive/Desktop/GD32VW553/V1_MQTT_OK/GD32VW55X_Wifi_BLE_SDK/GD32VW55x_RELEASE_V1.0.2/MSDK/cloud/alicloud/src/services/dev_bind\awss_notify.c ****         return 0;
 1595              		.loc 1 424 9
 1596              	.L132:
 1597              	.LBB56:
 1598              	.LBB57:
 1599              	.LBB58:
 425:C:/Users/stapi/OneDrive/Desktop/GD32VW553/V1_MQTT_OK/GD32VW55X_Wifi_BLE_SDK/GD32VW55x_RELEASE_V1.0.2/MSDK/cloud/alicloud/src/services/dev_bind\awss_notify.c ****     }
 426:C:/Users/stapi/OneDrive/Desktop/GD32VW553/V1_MQTT_OK/GD32VW55X_Wifi_BLE_SDK/GD32VW55x_RELEASE_V1.0.2/MSDK/cloud/alicloud/src/services/dev_bind\awss_notify.c **** 
 427:C:/Users/stapi/OneDrive/Desktop/GD32VW553/V1_MQTT_OK/GD32VW55X_Wifi_BLE_SDK/GD32VW55x_RELEASE_V1.0.2/MSDK/cloud/alicloud/src/services/dev_bind\awss_notify.c ****     if (dev_bind_notify_mutex == NULL) {
 428:C:/Users/stapi/OneDrive/Desktop/GD32VW553/V1_MQTT_OK/GD32VW55X_Wifi_BLE_SDK/GD32VW55x_RELEASE_V1.0.2/MSDK/cloud/alicloud/src/services/dev_bind\awss_notify.c ****         dev_bind_notify_mutex = HAL_MutexCreate();
 429:C:/Users/stapi/OneDrive/Desktop/GD32VW553/V1_MQTT_OK/GD32VW55X_Wifi_BLE_SDK/GD32VW55x_RELEASE_V1.0.2/MSDK/cloud/alicloud/src/services/dev_bind\awss_notify.c ****         if (dev_bind_notify_mutex == NULL) {
 430:C:/Users/stapi/OneDrive/Desktop/GD32VW553/V1_MQTT_OK/GD32VW55X_Wifi_BLE_SDK/GD32VW55x_RELEASE_V1.0.2/MSDK/cloud/alicloud/src/services/dev_bind\awss_notify.c ****             return STATE_USER_INPUT_NULL_POINTER;
 431:C:/Users/stapi/OneDrive/Desktop/GD32VW553/V1_MQTT_OK/GD32VW55X_Wifi_BLE_SDK/GD32VW55x_RELEASE_V1.0.2/MSDK/cloud/alicloud/src/services/dev_bind\awss_notify.c ****         }
 432:C:/Users/stapi/OneDrive/Desktop/GD32VW553/V1_MQTT_OK/GD32VW55X_Wifi_BLE_SDK/GD32VW55x_RELEASE_V1.0.2/MSDK/cloud/alicloud/src/services/dev_bind\awss_notify.c ****     }
 433:C:/Users/stapi/OneDrive/Desktop/GD32VW553/V1_MQTT_OK/GD32VW55X_Wifi_BLE_SDK/GD32VW55x_RELEASE_V1.0.2/MSDK/cloud/alicloud/src/services/dev_bind\awss_notify.c **** 
 434:C:/Users/stapi/OneDrive/Desktop/GD32VW553/V1_MQTT_OK/GD32VW55X_Wifi_BLE_SDK/GD32VW55x_RELEASE_V1.0.2/MSDK/cloud/alicloud/src/services/dev_bind\awss_notify.c ****     if (dev_bind_cnt == 0)
 435:C:/Users/stapi/OneDrive/Desktop/GD32VW553/V1_MQTT_OK/GD32VW55X_Wifi_BLE_SDK/GD32VW55x_RELEASE_V1.0.2/MSDK/cloud/alicloud/src/services/dev_bind\awss_notify.c ****         awss_event_post(IOTX_AWSS_BIND_NOTIFY);
 436:C:/Users/stapi/OneDrive/Desktop/GD32VW553/V1_MQTT_OK/GD32VW55X_Wifi_BLE_SDK/GD32VW55x_RELEASE_V1.0.2/MSDK/cloud/alicloud/src/services/dev_bind\awss_notify.c **** 
 437:C:/Users/stapi/OneDrive/Desktop/GD32VW553/V1_MQTT_OK/GD32VW55X_Wifi_BLE_SDK/GD32VW55x_RELEASE_V1.0.2/MSDK/cloud/alicloud/src/services/dev_bind\awss_notify.c ****     HAL_MutexLock(dev_bind_notify_mutex);
 438:C:/Users/stapi/OneDrive/Desktop/GD32VW553/V1_MQTT_OK/GD32VW55X_Wifi_BLE_SDK/GD32VW55x_RELEASE_V1.0.2/MSDK/cloud/alicloud/src/services/dev_bind\awss_notify.c **** 
 439:C:/Users/stapi/OneDrive/Desktop/GD32VW553/V1_MQTT_OK/GD32VW55X_Wifi_BLE_SDK/GD32VW55x_RELEASE_V1.0.2/MSDK/cloud/alicloud/src/services/dev_bind\awss_notify.c ****     do {
 440:C:/Users/stapi/OneDrive/Desktop/GD32VW553/V1_MQTT_OK/GD32VW55X_Wifi_BLE_SDK/GD32VW55x_RELEASE_V1.0.2/MSDK/cloud/alicloud/src/services/dev_bind\awss_notify.c ****         uint8_t i = 0;
 441:C:/Users/stapi/OneDrive/Desktop/GD32VW553/V1_MQTT_OK/GD32VW55X_Wifi_BLE_SDK/GD32VW55x_RELEASE_V1.0.2/MSDK/cloud/alicloud/src/services/dev_bind\awss_notify.c **** 
 442:C:/Users/stapi/OneDrive/Desktop/GD32VW553/V1_MQTT_OK/GD32VW55X_Wifi_BLE_SDK/GD32VW55x_RELEASE_V1.0.2/MSDK/cloud/alicloud/src/services/dev_bind\awss_notify.c ****         if (awss_notify_resp[AWSS_NOTIFY_DEV_BIND_TOKEN] != 0)
 443:C:/Users/stapi/OneDrive/Desktop/GD32VW553/V1_MQTT_OK/GD32VW55X_Wifi_BLE_SDK/GD32VW55x_RELEASE_V1.0.2/MSDK/cloud/alicloud/src/services/dev_bind\awss_notify.c ****             break;
 444:C:/Users/stapi/OneDrive/Desktop/GD32VW553/V1_MQTT_OK/GD32VW55X_Wifi_BLE_SDK/GD32VW55x_RELEASE_V1.0.2/MSDK/cloud/alicloud/src/services/dev_bind\awss_notify.c **** 
 445:C:/Users/stapi/OneDrive/Desktop/GD32VW553/V1_MQTT_OK/GD32VW55X_Wifi_BLE_SDK/GD32VW55x_RELEASE_V1.0.2/MSDK/cloud/alicloud/src/services/dev_bind\awss_notify.c ****         for (i = 0; i < RANDOM_MAX_LEN; i ++)
 446:C:/Users/stapi/OneDrive/Desktop/GD32VW553/V1_MQTT_OK/GD32VW55X_Wifi_BLE_SDK/GD32VW55x_RELEASE_V1.0.2/MSDK/cloud/alicloud/src/services/dev_bind\awss_notify.c ****             if (g_aes_random[i] != 0x00)
 447:C:/Users/stapi/OneDrive/Desktop/GD32VW553/V1_MQTT_OK/GD32VW55X_Wifi_BLE_SDK/GD32VW55x_RELEASE_V1.0.2/MSDK/cloud/alicloud/src/services/dev_bind\awss_notify.c ****                 break;
 448:C:/Users/stapi/OneDrive/Desktop/GD32VW553/V1_MQTT_OK/GD32VW55X_Wifi_BLE_SDK/GD32VW55x_RELEASE_V1.0.2/MSDK/cloud/alicloud/src/services/dev_bind\awss_notify.c **** 
 449:C:/Users/stapi/OneDrive/Desktop/GD32VW553/V1_MQTT_OK/GD32VW55X_Wifi_BLE_SDK/GD32VW55x_RELEASE_V1.0.2/MSDK/cloud/alicloud/src/services/dev_bind\awss_notify.c ****         if (i >= RANDOM_MAX_LEN)
 450:C:/Users/stapi/OneDrive/Desktop/GD32VW553/V1_MQTT_OK/GD32VW55X_Wifi_BLE_SDK/GD32VW55x_RELEASE_V1.0.2/MSDK/cloud/alicloud/src/services/dev_bind\awss_notify.c ****             produce_random(g_aes_random, sizeof(g_aes_random));
 451:C:/Users/stapi/OneDrive/Desktop/GD32VW553/V1_MQTT_OK/GD32VW55X_Wifi_BLE_SDK/GD32VW55x_RELEASE_V1.0.2/MSDK/cloud/alicloud/src/services/dev_bind\awss_notify.c **** 
 452:C:/Users/stapi/OneDrive/Desktop/GD32VW553/V1_MQTT_OK/GD32VW55X_Wifi_BLE_SDK/GD32VW55x_RELEASE_V1.0.2/MSDK/cloud/alicloud/src/services/dev_bind\awss_notify.c ****         if (awss_token_timeout() == 0) {
 453:C:/Users/stapi/OneDrive/Desktop/GD32VW553/V1_MQTT_OK/GD32VW55X_Wifi_BLE_SDK/GD32VW55x_RELEASE_V1.0.2/MSDK/cloud/alicloud/src/services/dev_bind\awss_notify.c ****             awss_notify_dev_info(AWSS_NOTIFY_DEV_BIND_TOKEN, 1);
 454:C:/Users/stapi/OneDrive/Desktop/GD32VW553/V1_MQTT_OK/GD32VW55X_Wifi_BLE_SDK/GD32VW55x_RELEASE_V1.0.2/MSDK/cloud/alicloud/src/services/dev_bind\awss_notify.c ****             dev_bind_interval += 100;
 455:C:/Users/stapi/OneDrive/Desktop/GD32VW553/V1_MQTT_OK/GD32VW55X_Wifi_BLE_SDK/GD32VW55x_RELEASE_V1.0.2/MSDK/cloud/alicloud/src/services/dev_bind\awss_notify.c ****             dev_bind_cnt ++;
 456:C:/Users/stapi/OneDrive/Desktop/GD32VW553/V1_MQTT_OK/GD32VW55X_Wifi_BLE_SDK/GD32VW55x_RELEASE_V1.0.2/MSDK/cloud/alicloud/src/services/dev_bind\awss_notify.c ****             dev_sync_token = 0;
 457:C:/Users/stapi/OneDrive/Desktop/GD32VW553/V1_MQTT_OK/GD32VW55X_Wifi_BLE_SDK/GD32VW55x_RELEASE_V1.0.2/MSDK/cloud/alicloud/src/services/dev_bind\awss_notify.c ****         } else if (dev_sync_token == 0) {
 458:C:/Users/stapi/OneDrive/Desktop/GD32VW553/V1_MQTT_OK/GD32VW55X_Wifi_BLE_SDK/GD32VW55x_RELEASE_V1.0.2/MSDK/cloud/alicloud/src/services/dev_bind\awss_notify.c ****             dev_sync_token = 1;
 459:C:/Users/stapi/OneDrive/Desktop/GD32VW553/V1_MQTT_OK/GD32VW55X_Wifi_BLE_SDK/GD32VW55x_RELEASE_V1.0.2/MSDK/cloud/alicloud/src/services/dev_bind\awss_notify.c ****             awss_update_token();
 460:C:/Users/stapi/OneDrive/Desktop/GD32VW553/V1_MQTT_OK/GD32VW55X_Wifi_BLE_SDK/GD32VW55x_RELEASE_V1.0.2/MSDK/cloud/alicloud/src/services/dev_bind\awss_notify.c ****             if (dev_bind_cnt == 0)
 461:C:/Users/stapi/OneDrive/Desktop/GD32VW553/V1_MQTT_OK/GD32VW55X_Wifi_BLE_SDK/GD32VW55x_RELEASE_V1.0.2/MSDK/cloud/alicloud/src/services/dev_bind\awss_notify.c ****                 dev_bind_cnt ++;
 462:C:/Users/stapi/OneDrive/Desktop/GD32VW553/V1_MQTT_OK/GD32VW55X_Wifi_BLE_SDK/GD32VW55x_RELEASE_V1.0.2/MSDK/cloud/alicloud/src/services/dev_bind\awss_notify.c ****         }
 463:C:/Users/stapi/OneDrive/Desktop/GD32VW553/V1_MQTT_OK/GD32VW55X_Wifi_BLE_SDK/GD32VW55x_RELEASE_V1.0.2/MSDK/cloud/alicloud/src/services/dev_bind\awss_notify.c **** #ifdef DEV_BIND_TEST
 464:C:/Users/stapi/OneDrive/Desktop/GD32VW553/V1_MQTT_OK/GD32VW55X_Wifi_BLE_SDK/GD32VW55x_RELEASE_V1.0.2/MSDK/cloud/alicloud/src/services/dev_bind\awss_notify.c ****         if (dev_bind_cnt > 3)
 465:C:/Users/stapi/OneDrive/Desktop/GD32VW553/V1_MQTT_OK/GD32VW55X_Wifi_BLE_SDK/GD32VW55x_RELEASE_V1.0.2/MSDK/cloud/alicloud/src/services/dev_bind\awss_notify.c ****             os_reboot();
 466:C:/Users/stapi/OneDrive/Desktop/GD32VW553/V1_MQTT_OK/GD32VW55X_Wifi_BLE_SDK/GD32VW55x_RELEASE_V1.0.2/MSDK/cloud/alicloud/src/services/dev_bind\awss_notify.c **** #endif
 467:C:/Users/stapi/OneDrive/Desktop/GD32VW553/V1_MQTT_OK/GD32VW55X_Wifi_BLE_SDK/GD32VW55x_RELEASE_V1.0.2/MSDK/cloud/alicloud/src/services/dev_bind\awss_notify.c **** 
 468:C:/Users/stapi/OneDrive/Desktop/GD32VW553/V1_MQTT_OK/GD32VW55X_Wifi_BLE_SDK/GD32VW55x_RELEASE_V1.0.2/MSDK/cloud/alicloud/src/services/dev_bind\awss_notify.c ****         if (dev_bind_cnt < AWSS_NOTIFY_CNT_MAX &&
 469:C:/Users/stapi/OneDrive/Desktop/GD32VW553/V1_MQTT_OK/GD32VW55X_Wifi_BLE_SDK/GD32VW55x_RELEASE_V1.0.2/MSDK/cloud/alicloud/src/services/dev_bind\awss_notify.c ****             awss_notify_resp[AWSS_NOTIFY_DEV_BIND_TOKEN] == 0) {
 470:C:/Users/stapi/OneDrive/Desktop/GD32VW553/V1_MQTT_OK/GD32VW55X_Wifi_BLE_SDK/GD32VW55x_RELEASE_V1.0.2/MSDK/cloud/alicloud/src/services/dev_bind\awss_notify.c ****             if (dev_bind_notify_timer == NULL)
 471:C:/Users/stapi/OneDrive/Desktop/GD32VW553/V1_MQTT_OK/GD32VW55X_Wifi_BLE_SDK/GD32VW55x_RELEASE_V1.0.2/MSDK/cloud/alicloud/src/services/dev_bind\awss_notify.c ****                 dev_bind_notify_timer = HAL_Timer_Create("dev_bind", (void (*)(void *))awss_dev_bin
 472:C:/Users/stapi/OneDrive/Desktop/GD32VW553/V1_MQTT_OK/GD32VW55X_Wifi_BLE_SDK/GD32VW55x_RELEASE_V1.0.2/MSDK/cloud/alicloud/src/services/dev_bind\awss_notify.c ****             HAL_Timer_Stop(dev_bind_notify_timer);
 473:C:/Users/stapi/OneDrive/Desktop/GD32VW553/V1_MQTT_OK/GD32VW55X_Wifi_BLE_SDK/GD32VW55x_RELEASE_V1.0.2/MSDK/cloud/alicloud/src/services/dev_bind\awss_notify.c ****             HAL_Timer_Start(dev_bind_notify_timer, awss_report_token_suc == 0 ? AWSS_CHECK_RESP_TIM
 474:C:/Users/stapi/OneDrive/Desktop/GD32VW553/V1_MQTT_OK/GD32VW55X_Wifi_BLE_SDK/GD32VW55x_RELEASE_V1.0.2/MSDK/cloud/alicloud/src/services/dev_bind\awss_notify.c ****             HAL_MutexUnlock(dev_bind_notify_mutex);
 475:C:/Users/stapi/OneDrive/Desktop/GD32VW553/V1_MQTT_OK/GD32VW55X_Wifi_BLE_SDK/GD32VW55x_RELEASE_V1.0.2/MSDK/cloud/alicloud/src/services/dev_bind\awss_notify.c ****             return 0;
 1600              		.loc 1 475 13
 1601              		.loc 1 475 20 is_stmt 0
 1602 0054 0144     		li	s0,0
 1603 0056 25A2     		j	.L102
 1604              	.L103:
 1605              	.LBE58:
 427:C:/Users/stapi/OneDrive/Desktop/GD32VW553/V1_MQTT_OK/GD32VW55X_Wifi_BLE_SDK/GD32VW55x_RELEASE_V1.0.2/MSDK/cloud/alicloud/src/services/dev_bind\awss_notify.c ****         dev_bind_notify_mutex = HAL_MutexCreate();
 1606              		.loc 1 427 5 is_stmt 1
 427:C:/Users/stapi/OneDrive/Desktop/GD32VW553/V1_MQTT_OK/GD32VW55X_Wifi_BLE_SDK/GD32VW55x_RELEASE_V1.0.2/MSDK/cloud/alicloud/src/services/dev_bind\awss_notify.c ****         dev_bind_notify_mutex = HAL_MutexCreate();
 1607              		.loc 1 427 31 is_stmt 0
 1608 0058 B7040000 		lui	s1,%hi(.LANCHOR11)
 1609 005c 13840400 		addi	s0,s1,%lo(.LANCHOR11)
 427:C:/Users/stapi/OneDrive/Desktop/GD32VW553/V1_MQTT_OK/GD32VW55X_Wifi_BLE_SDK/GD32VW55x_RELEASE_V1.0.2/MSDK/cloud/alicloud/src/services/dev_bind\awss_notify.c ****         dev_bind_notify_mutex = HAL_MutexCreate();
 1610              		.loc 1 427 8
 1611 0060 1C40     		lw	a5,0(s0)
 1612 0062 93840400 		addi	s1,s1,%lo(.LANCHOR11)
 1613 0066 63830710 		beq	a5,zero,.L106
 1614              	.L109:
 434:C:/Users/stapi/OneDrive/Desktop/GD32VW553/V1_MQTT_OK/GD32VW55X_Wifi_BLE_SDK/GD32VW55x_RELEASE_V1.0.2/MSDK/cloud/alicloud/src/services/dev_bind\awss_notify.c ****         awss_event_post(IOTX_AWSS_BIND_NOTIFY);
 1615              		.loc 1 434 5 is_stmt 1
 434:C:/Users/stapi/OneDrive/Desktop/GD32VW553/V1_MQTT_OK/GD32VW55X_Wifi_BLE_SDK/GD32VW55x_RELEASE_V1.0.2/MSDK/cloud/alicloud/src/services/dev_bind\awss_notify.c ****         awss_event_post(IOTX_AWSS_BIND_NOTIFY);
 1616              		.loc 1 434 22 is_stmt 0
 1617 006a 37040000 		lui	s0,%hi(.LANCHOR12)
 434:C:/Users/stapi/OneDrive/Desktop/GD32VW553/V1_MQTT_OK/GD32VW55X_Wifi_BLE_SDK/GD32VW55x_RELEASE_V1.0.2/MSDK/cloud/alicloud/src/services/dev_bind\awss_notify.c ****         awss_event_post(IOTX_AWSS_BIND_NOTIFY);
 1618              		.loc 1 434 8
 1619 006e 83070400 		lb	a5,%lo(.LANCHOR12)(s0)
 1620 0072 13040400 		addi	s0,s0,%lo(.LANCHOR12)
 1621 0076 99E7     		bne	a5,zero,.L108
 435:C:/Users/stapi/OneDrive/Desktop/GD32VW553/V1_MQTT_OK/GD32VW55X_Wifi_BLE_SDK/GD32VW55x_RELEASE_V1.0.2/MSDK/cloud/alicloud/src/services/dev_bind\awss_notify.c **** 
 1622              		.loc 1 435 9 is_stmt 1
 1623 0078 0565     		li	a0,4096
 1624 007a 3D05     		addi	a0,a0,15
 1625 007c 97000000 		call	awss_event_post
 1625      E7800000 
 1626              	.LVL186:
 1627              	.L108:
 437:C:/Users/stapi/OneDrive/Desktop/GD32VW553/V1_MQTT_OK/GD32VW55X_Wifi_BLE_SDK/GD32VW55x_RELEASE_V1.0.2/MSDK/cloud/alicloud/src/services/dev_bind\awss_notify.c **** 
 1628              		.loc 1 437 5
 1629 0084 8840     		lw	a0,0(s1)
 1630              	.LBB59:
 442:C:/Users/stapi/OneDrive/Desktop/GD32VW553/V1_MQTT_OK/GD32VW55X_Wifi_BLE_SDK/GD32VW55x_RELEASE_V1.0.2/MSDK/cloud/alicloud/src/services/dev_bind\awss_notify.c ****             break;
 1631              		.loc 1 442 29 is_stmt 0
 1632 0086 37090000 		lui	s2,%hi(.LANCHOR3)
 1633              	.LBE59:
 437:C:/Users/stapi/OneDrive/Desktop/GD32VW553/V1_MQTT_OK/GD32VW55X_Wifi_BLE_SDK/GD32VW55x_RELEASE_V1.0.2/MSDK/cloud/alicloud/src/services/dev_bind\awss_notify.c **** 
 1634              		.loc 1 437 5
 1635 008a 97000000 		call	HAL_MutexLock
 1635      E7800000 
 1636              	.LVL187:
 439:C:/Users/stapi/OneDrive/Desktop/GD32VW553/V1_MQTT_OK/GD32VW55X_Wifi_BLE_SDK/GD32VW55x_RELEASE_V1.0.2/MSDK/cloud/alicloud/src/services/dev_bind\awss_notify.c ****         uint8_t i = 0;
 1637              		.loc 1 439 5 is_stmt 1
 1638              	.LBB60:
 440:C:/Users/stapi/OneDrive/Desktop/GD32VW553/V1_MQTT_OK/GD32VW55X_Wifi_BLE_SDK/GD32VW55x_RELEASE_V1.0.2/MSDK/cloud/alicloud/src/services/dev_bind\awss_notify.c **** 
 1639              		.loc 1 440 9
 442:C:/Users/stapi/OneDrive/Desktop/GD32VW553/V1_MQTT_OK/GD32VW55X_Wifi_BLE_SDK/GD32VW55x_RELEASE_V1.0.2/MSDK/cloud/alicloud/src/services/dev_bind\awss_notify.c ****             break;
 1640              		.loc 1 442 9
 442:C:/Users/stapi/OneDrive/Desktop/GD32VW553/V1_MQTT_OK/GD32VW55X_Wifi_BLE_SDK/GD32VW55x_RELEASE_V1.0.2/MSDK/cloud/alicloud/src/services/dev_bind\awss_notify.c ****             break;
 1641              		.loc 1 442 29 is_stmt 0
 1642 0092 93070900 		addi	a5,s2,%lo(.LANCHOR3)
 442:C:/Users/stapi/OneDrive/Desktop/GD32VW553/V1_MQTT_OK/GD32VW55X_Wifi_BLE_SDK/GD32VW55x_RELEASE_V1.0.2/MSDK/cloud/alicloud/src/services/dev_bind\awss_notify.c ****             break;
 1643              		.loc 1 442 12
 1644 0096 83871700 		lb	a5,1(a5)
 1645 009a 13090900 		addi	s2,s2,%lo(.LANCHOR3)
 1646 009e A5EB     		bne	a5,zero,.L110
 446:C:/Users/stapi/OneDrive/Desktop/GD32VW553/V1_MQTT_OK/GD32VW55X_Wifi_BLE_SDK/GD32VW55x_RELEASE_V1.0.2/MSDK/cloud/alicloud/src/services/dev_bind\awss_notify.c ****                 break;
 1647              		.loc 1 446 29
 1648 00a0 37050000 		lui	a0,%hi(g_aes_random)
 1649 00a4 93060500 		addi	a3,a0,%lo(g_aes_random)
 445:C:/Users/stapi/OneDrive/Desktop/GD32VW553/V1_MQTT_OK/GD32VW55X_Wifi_BLE_SDK/GD32VW55x_RELEASE_V1.0.2/MSDK/cloud/alicloud/src/services/dev_bind\awss_notify.c ****             if (g_aes_random[i] != 0x00)
 1650              		.loc 1 445 9
 1651 00a8 4147     		li	a4,16
 1652              	.LVL188:
 1653              	.L112:
 446:C:/Users/stapi/OneDrive/Desktop/GD32VW553/V1_MQTT_OK/GD32VW55X_Wifi_BLE_SDK/GD32VW55x_RELEASE_V1.0.2/MSDK/cloud/alicloud/src/services/dev_bind\awss_notify.c ****                 break;
 1654              		.loc 1 446 13 is_stmt 1
 446:C:/Users/stapi/OneDrive/Desktop/GD32VW553/V1_MQTT_OK/GD32VW55X_Wifi_BLE_SDK/GD32VW55x_RELEASE_V1.0.2/MSDK/cloud/alicloud/src/services/dev_bind\awss_notify.c ****                 break;
 1655              		.loc 1 446 29 is_stmt 0
 1656 00aa 3386D700 		add	a2,a5,a3
 446:C:/Users/stapi/OneDrive/Desktop/GD32VW553/V1_MQTT_OK/GD32VW55X_Wifi_BLE_SDK/GD32VW55x_RELEASE_V1.0.2/MSDK/cloud/alicloud/src/services/dev_bind\awss_notify.c ****                 break;
 1657              		.loc 1 446 16
 1658 00ae 03460600 		lbu	a2,0(a2)
 1659 00b2 19EA     		bne	a2,zero,.L111
 445:C:/Users/stapi/OneDrive/Desktop/GD32VW553/V1_MQTT_OK/GD32VW55X_Wifi_BLE_SDK/GD32VW55x_RELEASE_V1.0.2/MSDK/cloud/alicloud/src/services/dev_bind\awss_notify.c ****             if (g_aes_random[i] != 0x00)
 1660              		.loc 1 445 41 is_stmt 1
 1661              	.LVL189:
 445:C:/Users/stapi/OneDrive/Desktop/GD32VW553/V1_MQTT_OK/GD32VW55X_Wifi_BLE_SDK/GD32VW55x_RELEASE_V1.0.2/MSDK/cloud/alicloud/src/services/dev_bind\awss_notify.c ****             if (g_aes_random[i] != 0x00)
 1662              		.loc 1 445 21
 445:C:/Users/stapi/OneDrive/Desktop/GD32VW553/V1_MQTT_OK/GD32VW55X_Wifi_BLE_SDK/GD32VW55x_RELEASE_V1.0.2/MSDK/cloud/alicloud/src/services/dev_bind\awss_notify.c ****             if (g_aes_random[i] != 0x00)
 1663              		.loc 1 445 9 is_stmt 0
 1664 00b4 8507     		addi	a5,a5,1
 1665              	.LVL190:
 1666 00b6 E39AE7FE 		bne	a5,a4,.L112
 449:C:/Users/stapi/OneDrive/Desktop/GD32VW553/V1_MQTT_OK/GD32VW55X_Wifi_BLE_SDK/GD32VW55x_RELEASE_V1.0.2/MSDK/cloud/alicloud/src/services/dev_bind\awss_notify.c ****             produce_random(g_aes_random, sizeof(g_aes_random));
 1667              		.loc 1 449 9 is_stmt 1
 450:C:/Users/stapi/OneDrive/Desktop/GD32VW553/V1_MQTT_OK/GD32VW55X_Wifi_BLE_SDK/GD32VW55x_RELEASE_V1.0.2/MSDK/cloud/alicloud/src/services/dev_bind\awss_notify.c **** 
 1668              		.loc 1 450 13
 1669 00ba C145     		li	a1,16
 1670 00bc 13050500 		addi	a0,a0,%lo(g_aes_random)
 1671 00c0 97000000 		call	produce_random
 1671      E7800000 
 1672              	.LVL191:
 1673              	.L111:
 452:C:/Users/stapi/OneDrive/Desktop/GD32VW553/V1_MQTT_OK/GD32VW55X_Wifi_BLE_SDK/GD32VW55x_RELEASE_V1.0.2/MSDK/cloud/alicloud/src/services/dev_bind\awss_notify.c ****             awss_notify_dev_info(AWSS_NOTIFY_DEV_BIND_TOKEN, 1);
 1674              		.loc 1 452 9
 1675 00c8 B7090000 		lui	s3,%hi(.LANCHOR14)
 452:C:/Users/stapi/OneDrive/Desktop/GD32VW553/V1_MQTT_OK/GD32VW55X_Wifi_BLE_SDK/GD32VW55x_RELEASE_V1.0.2/MSDK/cloud/alicloud/src/services/dev_bind\awss_notify.c ****             awss_notify_dev_info(AWSS_NOTIFY_DEV_BIND_TOKEN, 1);
 1676              		.loc 1 452 13 is_stmt 0
 1677 00cc 97000000 		call	awss_token_timeout
 1677      E7800000 
 1678              	.LVL192:
 1679 00d4 93890900 		addi	s3,s3,%lo(.LANCHOR14)
 452:C:/Users/stapi/OneDrive/Desktop/GD32VW553/V1_MQTT_OK/GD32VW55X_Wifi_BLE_SDK/GD32VW55x_RELEASE_V1.0.2/MSDK/cloud/alicloud/src/services/dev_bind\awss_notify.c ****             awss_notify_dev_info(AWSS_NOTIFY_DEV_BIND_TOKEN, 1);
 1680              		.loc 1 452 12
 1681 00d8 45E9     		bne	a0,zero,.L114
 453:C:/Users/stapi/OneDrive/Desktop/GD32VW553/V1_MQTT_OK/GD32VW55X_Wifi_BLE_SDK/GD32VW55x_RELEASE_V1.0.2/MSDK/cloud/alicloud/src/services/dev_bind\awss_notify.c ****             dev_bind_interval += 100;
 1682              		.loc 1 453 13 is_stmt 1
 1683 00da 8545     		li	a1,1
 1684 00dc 0545     		li	a0,1
 1685 00de 97000000 		call	awss_notify_dev_info
 1685      E7800000 
 1686              	.LVL193:
 454:C:/Users/stapi/OneDrive/Desktop/GD32VW553/V1_MQTT_OK/GD32VW55X_Wifi_BLE_SDK/GD32VW55x_RELEASE_V1.0.2/MSDK/cloud/alicloud/src/services/dev_bind\awss_notify.c ****             dev_bind_cnt ++;
 1687              		.loc 1 454 13
 454:C:/Users/stapi/OneDrive/Desktop/GD32VW553/V1_MQTT_OK/GD32VW55X_Wifi_BLE_SDK/GD32VW55x_RELEASE_V1.0.2/MSDK/cloud/alicloud/src/services/dev_bind\awss_notify.c ****             dev_bind_cnt ++;
 1688              		.loc 1 454 31 is_stmt 0
 1689 00e6 B7070000 		lui	a5,%hi(.LANCHOR13)
 1690 00ea 93870700 		addi	a5,a5,%lo(.LANCHOR13)
 1691 00ee 9843     		lw	a4,0(a5)
 456:C:/Users/stapi/OneDrive/Desktop/GD32VW553/V1_MQTT_OK/GD32VW55X_Wifi_BLE_SDK/GD32VW55x_RELEASE_V1.0.2/MSDK/cloud/alicloud/src/services/dev_bind\awss_notify.c ****         } else if (dev_sync_token == 0) {
 1692              		.loc 1 456 28
 1693 00f0 23800900 		sb	zero,0(s3)
 454:C:/Users/stapi/OneDrive/Desktop/GD32VW553/V1_MQTT_OK/GD32VW55X_Wifi_BLE_SDK/GD32VW55x_RELEASE_V1.0.2/MSDK/cloud/alicloud/src/services/dev_bind\awss_notify.c ****             dev_bind_cnt ++;
 1694              		.loc 1 454 31
 1695 00f4 13074706 		addi	a4,a4,100
 1696 00f8 98C3     		sw	a4,0(a5)
 455:C:/Users/stapi/OneDrive/Desktop/GD32VW553/V1_MQTT_OK/GD32VW55X_Wifi_BLE_SDK/GD32VW55x_RELEASE_V1.0.2/MSDK/cloud/alicloud/src/services/dev_bind\awss_notify.c ****             dev_sync_token = 0;
 1697              		.loc 1 455 13 is_stmt 1
 455:C:/Users/stapi/OneDrive/Desktop/GD32VW553/V1_MQTT_OK/GD32VW55X_Wifi_BLE_SDK/GD32VW55x_RELEASE_V1.0.2/MSDK/cloud/alicloud/src/services/dev_bind\awss_notify.c ****             dev_sync_token = 0;
 1698              		.loc 1 455 26 is_stmt 0
 1699 00fa 83470400 		lbu	a5,0(s0)
 1700 00fe 8507     		addi	a5,a5,1
 1701 0100 2300F400 		sb	a5,0(s0)
 456:C:/Users/stapi/OneDrive/Desktop/GD32VW553/V1_MQTT_OK/GD32VW55X_Wifi_BLE_SDK/GD32VW55x_RELEASE_V1.0.2/MSDK/cloud/alicloud/src/services/dev_bind\awss_notify.c ****         } else if (dev_sync_token == 0) {
 1702              		.loc 1 456 13 is_stmt 1
 1703              	.L115:
 468:C:/Users/stapi/OneDrive/Desktop/GD32VW553/V1_MQTT_OK/GD32VW55X_Wifi_BLE_SDK/GD32VW55x_RELEASE_V1.0.2/MSDK/cloud/alicloud/src/services/dev_bind\awss_notify.c ****             awss_notify_resp[AWSS_NOTIFY_DEV_BIND_TOKEN] == 0) {
 1704              		.loc 1 468 9
 468:C:/Users/stapi/OneDrive/Desktop/GD32VW553/V1_MQTT_OK/GD32VW55X_Wifi_BLE_SDK/GD32VW55x_RELEASE_V1.0.2/MSDK/cloud/alicloud/src/services/dev_bind\awss_notify.c ****             awss_notify_resp[AWSS_NOTIFY_DEV_BIND_TOKEN] == 0) {
 1705              		.loc 1 468 12 is_stmt 0
 1706 0104 F547     		li	a5,29
 1707 0106 03070400 		lb	a4,0(s0)
 1708 010a 63DEE708 		ble	a4,a5,.L117
 1709              	.L110:
 1710              	.LBE60:
 476:C:/Users/stapi/OneDrive/Desktop/GD32VW553/V1_MQTT_OK/GD32VW55X_Wifi_BLE_SDK/GD32VW55x_RELEASE_V1.0.2/MSDK/cloud/alicloud/src/services/dev_bind\awss_notify.c ****         }
 477:C:/Users/stapi/OneDrive/Desktop/GD32VW553/V1_MQTT_OK/GD32VW55X_Wifi_BLE_SDK/GD32VW55x_RELEASE_V1.0.2/MSDK/cloud/alicloud/src/services/dev_bind\awss_notify.c ****     } while (0);
 1711              		.loc 1 477 13 is_stmt 1
 478:C:/Users/stapi/OneDrive/Desktop/GD32VW553/V1_MQTT_OK/GD32VW55X_Wifi_BLE_SDK/GD32VW55x_RELEASE_V1.0.2/MSDK/cloud/alicloud/src/services/dev_bind\awss_notify.c **** 
 479:C:/Users/stapi/OneDrive/Desktop/GD32VW553/V1_MQTT_OK/GD32VW55X_Wifi_BLE_SDK/GD32VW55x_RELEASE_V1.0.2/MSDK/cloud/alicloud/src/services/dev_bind\awss_notify.c ****     awss_cmp_coap_cancel_packet(g_notify_msg_id[AWSS_NOTIFY_DEV_BIND_TOKEN]);
 1712              		.loc 1 479 5
 1713 010e B7090000 		lui	s3,%hi(.LANCHOR9)
 1714 0112 93890900 		addi	s3,s3,%lo(.LANCHOR9)
 1715 0116 03D52900 		lhu	a0,2(s3)
 1716 011a 97000000 		call	awss_cmp_coap_cancel_packet
 1716      E7800000 
 1717              	.LVL194:
 480:C:/Users/stapi/OneDrive/Desktop/GD32VW553/V1_MQTT_OK/GD32VW55X_Wifi_BLE_SDK/GD32VW55x_RELEASE_V1.0.2/MSDK/cloud/alicloud/src/services/dev_bind\awss_notify.c ****     g_notify_msg_id[AWSS_NOTIFY_DEV_BIND_TOKEN] = 0;
 1718              		.loc 1 480 5
 481:C:/Users/stapi/OneDrive/Desktop/GD32VW553/V1_MQTT_OK/GD32VW55X_Wifi_BLE_SDK/GD32VW55x_RELEASE_V1.0.2/MSDK/cloud/alicloud/src/services/dev_bind\awss_notify.c ****     awss_notify_resp[AWSS_NOTIFY_DEV_BIND_TOKEN] = 0;
 482:C:/Users/stapi/OneDrive/Desktop/GD32VW553/V1_MQTT_OK/GD32VW55X_Wifi_BLE_SDK/GD32VW55x_RELEASE_V1.0.2/MSDK/cloud/alicloud/src/services/dev_bind\awss_notify.c ****     dev_bind_interval = 0;
 483:C:/Users/stapi/OneDrive/Desktop/GD32VW553/V1_MQTT_OK/GD32VW55X_Wifi_BLE_SDK/GD32VW55x_RELEASE_V1.0.2/MSDK/cloud/alicloud/src/services/dev_bind\awss_notify.c ****     dev_bind_cnt = 0;
 1719              		.loc 1 483 18 is_stmt 0
 1720 0122 23000400 		sb	zero,0(s0)
 484:C:/Users/stapi/OneDrive/Desktop/GD32VW553/V1_MQTT_OK/GD32VW55X_Wifi_BLE_SDK/GD32VW55x_RELEASE_V1.0.2/MSDK/cloud/alicloud/src/services/dev_bind\awss_notify.c ****     if (dev_bind_notify_timer) {
 1721              		.loc 1 484 9
 1722 0126 37040000 		lui	s0,%hi(.LANCHOR10)
 1723 012a 13040400 		addi	s0,s0,%lo(.LANCHOR10)
 1724 012e 0840     		lw	a0,0(s0)
 482:C:/Users/stapi/OneDrive/Desktop/GD32VW553/V1_MQTT_OK/GD32VW55X_Wifi_BLE_SDK/GD32VW55x_RELEASE_V1.0.2/MSDK/cloud/alicloud/src/services/dev_bind\awss_notify.c ****     dev_bind_cnt = 0;
 1725              		.loc 1 482 23
 1726 0130 B7070000 		lui	a5,%hi(.LANCHOR13)
 480:C:/Users/stapi/OneDrive/Desktop/GD32VW553/V1_MQTT_OK/GD32VW55X_Wifi_BLE_SDK/GD32VW55x_RELEASE_V1.0.2/MSDK/cloud/alicloud/src/services/dev_bind\awss_notify.c ****     awss_notify_resp[AWSS_NOTIFY_DEV_BIND_TOKEN] = 0;
 1727              		.loc 1 480 49
 1728 0134 23910900 		sh	zero,2(s3)
 481:C:/Users/stapi/OneDrive/Desktop/GD32VW553/V1_MQTT_OK/GD32VW55X_Wifi_BLE_SDK/GD32VW55x_RELEASE_V1.0.2/MSDK/cloud/alicloud/src/services/dev_bind\awss_notify.c ****     dev_bind_interval = 0;
 1729              		.loc 1 481 5 is_stmt 1
 481:C:/Users/stapi/OneDrive/Desktop/GD32VW553/V1_MQTT_OK/GD32VW55X_Wifi_BLE_SDK/GD32VW55x_RELEASE_V1.0.2/MSDK/cloud/alicloud/src/services/dev_bind\awss_notify.c ****     dev_bind_interval = 0;
 1730              		.loc 1 481 50 is_stmt 0
 1731 0138 A3000900 		sb	zero,1(s2)
 482:C:/Users/stapi/OneDrive/Desktop/GD32VW553/V1_MQTT_OK/GD32VW55X_Wifi_BLE_SDK/GD32VW55x_RELEASE_V1.0.2/MSDK/cloud/alicloud/src/services/dev_bind\awss_notify.c ****     dev_bind_cnt = 0;
 1732              		.loc 1 482 5 is_stmt 1
 482:C:/Users/stapi/OneDrive/Desktop/GD32VW553/V1_MQTT_OK/GD32VW55X_Wifi_BLE_SDK/GD32VW55x_RELEASE_V1.0.2/MSDK/cloud/alicloud/src/services/dev_bind\awss_notify.c ****     dev_bind_cnt = 0;
 1733              		.loc 1 482 23 is_stmt 0
 1734 013c 23A00700 		sw	zero,%lo(.LANCHOR13)(a5)
 483:C:/Users/stapi/OneDrive/Desktop/GD32VW553/V1_MQTT_OK/GD32VW55X_Wifi_BLE_SDK/GD32VW55x_RELEASE_V1.0.2/MSDK/cloud/alicloud/src/services/dev_bind\awss_notify.c ****     if (dev_bind_notify_timer) {
 1735              		.loc 1 483 5 is_stmt 1
 1736              		.loc 1 484 5
 1737              		.loc 1 484 8 is_stmt 0
 1738 0140 19C5     		beq	a0,zero,.L120
 485:C:/Users/stapi/OneDrive/Desktop/GD32VW553/V1_MQTT_OK/GD32VW55X_Wifi_BLE_SDK/GD32VW55x_RELEASE_V1.0.2/MSDK/cloud/alicloud/src/services/dev_bind\awss_notify.c ****         awss_stop_timer(dev_bind_notify_timer);
 1739              		.loc 1 485 9 is_stmt 1
 1740 0142 97000000 		call	awss_stop_timer
 1740      E7800000 
 1741              	.LVL195:
 486:C:/Users/stapi/OneDrive/Desktop/GD32VW553/V1_MQTT_OK/GD32VW55X_Wifi_BLE_SDK/GD32VW55x_RELEASE_V1.0.2/MSDK/cloud/alicloud/src/services/dev_bind\awss_notify.c ****         dev_bind_notify_timer = NULL;
 1742              		.loc 1 486 9
 1743              		.loc 1 486 31 is_stmt 0
 1744 014a 23200400 		sw	zero,0(s0)
 1745              	.L120:
 487:C:/Users/stapi/OneDrive/Desktop/GD32VW553/V1_MQTT_OK/GD32VW55X_Wifi_BLE_SDK/GD32VW55x_RELEASE_V1.0.2/MSDK/cloud/alicloud/src/services/dev_bind\awss_notify.c ****     }
 488:C:/Users/stapi/OneDrive/Desktop/GD32VW553/V1_MQTT_OK/GD32VW55X_Wifi_BLE_SDK/GD32VW55x_RELEASE_V1.0.2/MSDK/cloud/alicloud/src/services/dev_bind\awss_notify.c ****     if (dev_bind_notify_mutex) {
 1746              		.loc 1 488 5 is_stmt 1
 1747              		.loc 1 488 9 is_stmt 0
 1748 014e 8840     		lw	a0,0(s1)
 489:C:/Users/stapi/OneDrive/Desktop/GD32VW553/V1_MQTT_OK/GD32VW55X_Wifi_BLE_SDK/GD32VW55x_RELEASE_V1.0.2/MSDK/cloud/alicloud/src/services/dev_bind\awss_notify.c ****         HAL_MutexUnlock(dev_bind_notify_mutex);
 490:C:/Users/stapi/OneDrive/Desktop/GD32VW553/V1_MQTT_OK/GD32VW55X_Wifi_BLE_SDK/GD32VW55x_RELEASE_V1.0.2/MSDK/cloud/alicloud/src/services/dev_bind\awss_notify.c ****         HAL_MutexDestroy(dev_bind_notify_mutex);
 491:C:/Users/stapi/OneDrive/Desktop/GD32VW553/V1_MQTT_OK/GD32VW55X_Wifi_BLE_SDK/GD32VW55x_RELEASE_V1.0.2/MSDK/cloud/alicloud/src/services/dev_bind\awss_notify.c ****         dev_bind_notify_mutex = NULL;
 492:C:/Users/stapi/OneDrive/Desktop/GD32VW553/V1_MQTT_OK/GD32VW55X_Wifi_BLE_SDK/GD32VW55x_RELEASE_V1.0.2/MSDK/cloud/alicloud/src/services/dev_bind\awss_notify.c ****     }
 493:C:/Users/stapi/OneDrive/Desktop/GD32VW553/V1_MQTT_OK/GD32VW55X_Wifi_BLE_SDK/GD32VW55x_RELEASE_V1.0.2/MSDK/cloud/alicloud/src/services/dev_bind\awss_notify.c ****     return 1;
 1749              		.loc 1 493 12
 1750 0150 0544     		li	s0,1
 488:C:/Users/stapi/OneDrive/Desktop/GD32VW553/V1_MQTT_OK/GD32VW55X_Wifi_BLE_SDK/GD32VW55x_RELEASE_V1.0.2/MSDK/cloud/alicloud/src/services/dev_bind\awss_notify.c ****         HAL_MutexUnlock(dev_bind_notify_mutex);
 1751              		.loc 1 488 8
 1752 0152 15C5     		beq	a0,zero,.L102
 489:C:/Users/stapi/OneDrive/Desktop/GD32VW553/V1_MQTT_OK/GD32VW55X_Wifi_BLE_SDK/GD32VW55x_RELEASE_V1.0.2/MSDK/cloud/alicloud/src/services/dev_bind\awss_notify.c ****         HAL_MutexUnlock(dev_bind_notify_mutex);
 1753              		.loc 1 489 9 is_stmt 1
 1754 0154 97000000 		call	HAL_MutexUnlock
 1754      E7800000 
 1755              	.LVL196:
 490:C:/Users/stapi/OneDrive/Desktop/GD32VW553/V1_MQTT_OK/GD32VW55X_Wifi_BLE_SDK/GD32VW55x_RELEASE_V1.0.2/MSDK/cloud/alicloud/src/services/dev_bind\awss_notify.c ****         dev_bind_notify_mutex = NULL;
 1756              		.loc 1 490 9
 1757 015c 8840     		lw	a0,0(s1)
 1758 015e 97000000 		call	HAL_MutexDestroy
 1758      E7800000 
 1759              	.LVL197:
 491:C:/Users/stapi/OneDrive/Desktop/GD32VW553/V1_MQTT_OK/GD32VW55X_Wifi_BLE_SDK/GD32VW55x_RELEASE_V1.0.2/MSDK/cloud/alicloud/src/services/dev_bind\awss_notify.c ****     }
 1760              		.loc 1 491 9
 491:C:/Users/stapi/OneDrive/Desktop/GD32VW553/V1_MQTT_OK/GD32VW55X_Wifi_BLE_SDK/GD32VW55x_RELEASE_V1.0.2/MSDK/cloud/alicloud/src/services/dev_bind\awss_notify.c ****     }
 1761              		.loc 1 491 31 is_stmt 0
 1762 0166 23A00400 		sw	zero,0(s1)
 1763 016a 11A8     		j	.L102
 1764              	.L106:
 428:C:/Users/stapi/OneDrive/Desktop/GD32VW553/V1_MQTT_OK/GD32VW55X_Wifi_BLE_SDK/GD32VW55x_RELEASE_V1.0.2/MSDK/cloud/alicloud/src/services/dev_bind\awss_notify.c ****         if (dev_bind_notify_mutex == NULL) {
 1765              		.loc 1 428 9 is_stmt 1
 428:C:/Users/stapi/OneDrive/Desktop/GD32VW553/V1_MQTT_OK/GD32VW55X_Wifi_BLE_SDK/GD32VW55x_RELEASE_V1.0.2/MSDK/cloud/alicloud/src/services/dev_bind\awss_notify.c ****         if (dev_bind_notify_mutex == NULL) {
 1766              		.loc 1 428 33 is_stmt 0
 1767 016c 97000000 		call	HAL_MutexCreate
 1767      E7800000 
 1768              	.LVL198:
 428:C:/Users/stapi/OneDrive/Desktop/GD32VW553/V1_MQTT_OK/GD32VW55X_Wifi_BLE_SDK/GD32VW55x_RELEASE_V1.0.2/MSDK/cloud/alicloud/src/services/dev_bind\awss_notify.c ****         if (dev_bind_notify_mutex == NULL) {
 1769              		.loc 1 428 31
 1770 0174 08C0     		sw	a0,0(s0)
 429:C:/Users/stapi/OneDrive/Desktop/GD32VW553/V1_MQTT_OK/GD32VW55X_Wifi_BLE_SDK/GD32VW55x_RELEASE_V1.0.2/MSDK/cloud/alicloud/src/services/dev_bind\awss_notify.c ****             return STATE_USER_INPUT_NULL_POINTER;
 1771              		.loc 1 429 9 is_stmt 1
 430:C:/Users/stapi/OneDrive/Desktop/GD32VW553/V1_MQTT_OK/GD32VW55X_Wifi_BLE_SDK/GD32VW55x_RELEASE_V1.0.2/MSDK/cloud/alicloud/src/services/dev_bind\awss_notify.c ****         }
 1772              		.loc 1 430 20 is_stmt 0
 1773 0176 1304F0EF 		li	s0,-257
 429:C:/Users/stapi/OneDrive/Desktop/GD32VW553/V1_MQTT_OK/GD32VW55X_Wifi_BLE_SDK/GD32VW55x_RELEASE_V1.0.2/MSDK/cloud/alicloud/src/services/dev_bind\awss_notify.c ****             return STATE_USER_INPUT_NULL_POINTER;
 1774              		.loc 1 429 12
 1775 017a E31805EE 		bne	a0,zero,.L109
 1776              	.L102:
 1777              	.LBE57:
 1778              	.LBE56:
 494:C:/Users/stapi/OneDrive/Desktop/GD32VW553/V1_MQTT_OK/GD32VW55X_Wifi_BLE_SDK/GD32VW55x_RELEASE_V1.0.2/MSDK/cloud/alicloud/src/services/dev_bind\awss_notify.c **** }
 1779              		.loc 1 494 1
 1780 017e 2285     		mv	a0,s0
 1781 0180 17030000 		tail	__riscv_restore_6
 1781      67000300 
 1782              		.cfi_remember_state
 1783              		.cfi_restore 21
 1784              		.cfi_restore 20
 1785              		.cfi_restore 19
 1786              		.cfi_restore 18
 1787              		.cfi_restore 9
 1788              		.cfi_restore 8
 1789              		.cfi_restore 1
 1790              		.cfi_def_cfa_offset 0
 1791              	.L114:
 1792              		.cfi_restore_state
 1793              	.LBB63:
 1794              	.LBB62:
 1795              	.LBB61:
 457:C:/Users/stapi/OneDrive/Desktop/GD32VW553/V1_MQTT_OK/GD32VW55X_Wifi_BLE_SDK/GD32VW55x_RELEASE_V1.0.2/MSDK/cloud/alicloud/src/services/dev_bind\awss_notify.c ****             dev_sync_token = 1;
 1796              		.loc 1 457 16 is_stmt 1
 457:C:/Users/stapi/OneDrive/Desktop/GD32VW553/V1_MQTT_OK/GD32VW55X_Wifi_BLE_SDK/GD32VW55x_RELEASE_V1.0.2/MSDK/cloud/alicloud/src/services/dev_bind\awss_notify.c ****             dev_sync_token = 1;
 1797              		.loc 1 457 19 is_stmt 0
 1798 0188 83870900 		lb	a5,0(s3)
 1799 018c A5FF     		bne	a5,zero,.L115
 458:C:/Users/stapi/OneDrive/Desktop/GD32VW553/V1_MQTT_OK/GD32VW55X_Wifi_BLE_SDK/GD32VW55x_RELEASE_V1.0.2/MSDK/cloud/alicloud/src/services/dev_bind\awss_notify.c ****             awss_update_token();
 1800              		.loc 1 458 13 is_stmt 1
 458:C:/Users/stapi/OneDrive/Desktop/GD32VW553/V1_MQTT_OK/GD32VW55X_Wifi_BLE_SDK/GD32VW55x_RELEASE_V1.0.2/MSDK/cloud/alicloud/src/services/dev_bind\awss_notify.c ****             awss_update_token();
 1801              		.loc 1 458 28 is_stmt 0
 1802 018e 854A     		li	s5,1
 1803 0190 23805901 		sb	s5,0(s3)
 459:C:/Users/stapi/OneDrive/Desktop/GD32VW553/V1_MQTT_OK/GD32VW55X_Wifi_BLE_SDK/GD32VW55x_RELEASE_V1.0.2/MSDK/cloud/alicloud/src/services/dev_bind\awss_notify.c ****             if (dev_bind_cnt == 0)
 1804              		.loc 1 459 13 is_stmt 1
 1805 0194 97000000 		call	awss_update_token
 1805      E7800000 
 1806              	.LVL199:
 460:C:/Users/stapi/OneDrive/Desktop/GD32VW553/V1_MQTT_OK/GD32VW55X_Wifi_BLE_SDK/GD32VW55x_RELEASE_V1.0.2/MSDK/cloud/alicloud/src/services/dev_bind\awss_notify.c ****                 dev_bind_cnt ++;
 1807              		.loc 1 460 13
 460:C:/Users/stapi/OneDrive/Desktop/GD32VW553/V1_MQTT_OK/GD32VW55X_Wifi_BLE_SDK/GD32VW55x_RELEASE_V1.0.2/MSDK/cloud/alicloud/src/services/dev_bind\awss_notify.c ****                 dev_bind_cnt ++;
 1808              		.loc 1 460 16 is_stmt 0
 1809 019c 83070400 		lb	a5,0(s0)
 1810 01a0 B5F3     		bne	a5,zero,.L115
 461:C:/Users/stapi/OneDrive/Desktop/GD32VW553/V1_MQTT_OK/GD32VW55X_Wifi_BLE_SDK/GD32VW55x_RELEASE_V1.0.2/MSDK/cloud/alicloud/src/services/dev_bind\awss_notify.c ****         }
 1811              		.loc 1 461 17 is_stmt 1
 461:C:/Users/stapi/OneDrive/Desktop/GD32VW553/V1_MQTT_OK/GD32VW55X_Wifi_BLE_SDK/GD32VW55x_RELEASE_V1.0.2/MSDK/cloud/alicloud/src/services/dev_bind\awss_notify.c ****         }
 1812              		.loc 1 461 30 is_stmt 0
 1813 01a2 23005401 		sb	s5,0(s0)
 468:C:/Users/stapi/OneDrive/Desktop/GD32VW553/V1_MQTT_OK/GD32VW55X_Wifi_BLE_SDK/GD32VW55x_RELEASE_V1.0.2/MSDK/cloud/alicloud/src/services/dev_bind\awss_notify.c ****             awss_notify_resp[AWSS_NOTIFY_DEV_BIND_TOKEN] == 0) {
 1814              		.loc 1 468 9 is_stmt 1
 1815              	.L117:
 468:C:/Users/stapi/OneDrive/Desktop/GD32VW553/V1_MQTT_OK/GD32VW55X_Wifi_BLE_SDK/GD32VW55x_RELEASE_V1.0.2/MSDK/cloud/alicloud/src/services/dev_bind\awss_notify.c ****             awss_notify_resp[AWSS_NOTIFY_DEV_BIND_TOKEN] == 0) {
 1816              		.loc 1 468 48 is_stmt 0
 1817 01a6 83071900 		lb	a5,1(s2)
 1818 01aa B5F3     		bne	a5,zero,.L110
 470:C:/Users/stapi/OneDrive/Desktop/GD32VW553/V1_MQTT_OK/GD32VW55X_Wifi_BLE_SDK/GD32VW55x_RELEASE_V1.0.2/MSDK/cloud/alicloud/src/services/dev_bind\awss_notify.c ****                 dev_bind_notify_timer = HAL_Timer_Create("dev_bind", (void (*)(void *))awss_dev_bin
 1819              		.loc 1 470 13 is_stmt 1
 470:C:/Users/stapi/OneDrive/Desktop/GD32VW553/V1_MQTT_OK/GD32VW55X_Wifi_BLE_SDK/GD32VW55x_RELEASE_V1.0.2/MSDK/cloud/alicloud/src/services/dev_bind\awss_notify.c ****                 dev_bind_notify_timer = HAL_Timer_Create("dev_bind", (void (*)(void *))awss_dev_bin
 1820              		.loc 1 470 39 is_stmt 0
 1821 01ac 37040000 		lui	s0,%hi(.LANCHOR10)
 470:C:/Users/stapi/OneDrive/Desktop/GD32VW553/V1_MQTT_OK/GD32VW55X_Wifi_BLE_SDK/GD32VW55x_RELEASE_V1.0.2/MSDK/cloud/alicloud/src/services/dev_bind\awss_notify.c ****                 dev_bind_notify_timer = HAL_Timer_Create("dev_bind", (void (*)(void *))awss_dev_bin
 1822              		.loc 1 470 16
 1823 01b0 83270400 		lw	a5,%lo(.LANCHOR10)(s0)
 1824 01b4 13040400 		addi	s0,s0,%lo(.LANCHOR10)
 1825 01b8 99EF     		bne	a5,zero,.L118
 471:C:/Users/stapi/OneDrive/Desktop/GD32VW553/V1_MQTT_OK/GD32VW55X_Wifi_BLE_SDK/GD32VW55x_RELEASE_V1.0.2/MSDK/cloud/alicloud/src/services/dev_bind\awss_notify.c ****             HAL_Timer_Stop(dev_bind_notify_timer);
 1826              		.loc 1 471 17 is_stmt 1
 471:C:/Users/stapi/OneDrive/Desktop/GD32VW553/V1_MQTT_OK/GD32VW55X_Wifi_BLE_SDK/GD32VW55x_RELEASE_V1.0.2/MSDK/cloud/alicloud/src/services/dev_bind\awss_notify.c ****             HAL_Timer_Stop(dev_bind_notify_timer);
 1827              		.loc 1 471 41 is_stmt 0
 1828 01ba B7050000 		lui	a1,%hi(awss_dev_bind_notify)
 1829 01be 37050000 		lui	a0,%hi(.LC36)
 1830 01c2 0146     		li	a2,0
 1831 01c4 93850500 		addi	a1,a1,%lo(awss_dev_bind_notify)
 1832 01c8 13050500 		addi	a0,a0,%lo(.LC36)
 1833 01cc 97000000 		call	HAL_Timer_Create
 1833      E7800000 
 1834              	.LVL200:
 471:C:/Users/stapi/OneDrive/Desktop/GD32VW553/V1_MQTT_OK/GD32VW55X_Wifi_BLE_SDK/GD32VW55x_RELEASE_V1.0.2/MSDK/cloud/alicloud/src/services/dev_bind\awss_notify.c ****             HAL_Timer_Stop(dev_bind_notify_timer);
 1835              		.loc 1 471 39
 1836 01d4 08C0     		sw	a0,0(s0)
 1837              	.L118:
 472:C:/Users/stapi/OneDrive/Desktop/GD32VW553/V1_MQTT_OK/GD32VW55X_Wifi_BLE_SDK/GD32VW55x_RELEASE_V1.0.2/MSDK/cloud/alicloud/src/services/dev_bind\awss_notify.c ****             HAL_Timer_Start(dev_bind_notify_timer, awss_report_token_suc == 0 ? AWSS_CHECK_RESP_TIM
 1838              		.loc 1 472 13 is_stmt 1
 1839 01d6 0840     		lw	a0,0(s0)
 1840 01d8 97000000 		call	HAL_Timer_Stop
 1840      E7800000 
 1841              	.LVL201:
 473:C:/Users/stapi/OneDrive/Desktop/GD32VW553/V1_MQTT_OK/GD32VW55X_Wifi_BLE_SDK/GD32VW55x_RELEASE_V1.0.2/MSDK/cloud/alicloud/src/services/dev_bind\awss_notify.c ****             HAL_MutexUnlock(dev_bind_notify_mutex);
 1842              		.loc 1 473 13
 1843 01e0 0840     		lw	a0,0(s0)
 1844 01e2 9305C012 		li	a1,300
 1845 01e6 83070A00 		lb	a5,%lo(awss_report_token_suc)(s4)
 1846 01ea 89C7     		beq	a5,zero,.L119
 1847 01ec B7070000 		lui	a5,%hi(.LANCHOR13)
 1848 01f0 83A50700 		lw	a1,%lo(.LANCHOR13)(a5)
 1849              	.L119:
 1850 01f4 97000000 		call	HAL_Timer_Start
 1850      E7800000 
 1851              	.LVL202:
 474:C:/Users/stapi/OneDrive/Desktop/GD32VW553/V1_MQTT_OK/GD32VW55X_Wifi_BLE_SDK/GD32VW55x_RELEASE_V1.0.2/MSDK/cloud/alicloud/src/services/dev_bind\awss_notify.c ****             return 0;
 1852              		.loc 1 474 13
 1853 01fc 8840     		lw	a0,0(s1)
 1854 01fe 97000000 		call	HAL_MutexUnlock
 1854      E7800000 
 1855              	.LVL203:
 1856 0206 B9B5     		j	.L132
 1857              	.LBE61:
 1858              	.LBE62:
 1859              	.LBE63:
 1860              		.cfi_endproc
 1861              	.LFE73:
 1863              		.section	.text.awss_dev_bind_notify,"ax",@progbits
 1864              		.align	1
 1865              		.globl	awss_dev_bind_notify
 1867              	awss_dev_bind_notify:
 1868              	.LFB74:
 495:C:/Users/stapi/OneDrive/Desktop/GD32VW553/V1_MQTT_OK/GD32VW55X_Wifi_BLE_SDK/GD32VW55x_RELEASE_V1.0.2/MSDK/cloud/alicloud/src/services/dev_bind\awss_notify.c **** 
 496:C:/Users/stapi/OneDrive/Desktop/GD32VW553/V1_MQTT_OK/GD32VW55X_Wifi_BLE_SDK/GD32VW55x_RELEASE_V1.0.2/MSDK/cloud/alicloud/src/services/dev_bind\awss_notify.c **** int awss_dev_bind_notify()
 497:C:/Users/stapi/OneDrive/Desktop/GD32VW553/V1_MQTT_OK/GD32VW55X_Wifi_BLE_SDK/GD32VW55x_RELEASE_V1.0.2/MSDK/cloud/alicloud/src/services/dev_bind\awss_notify.c **** {
 1869              		.loc 1 497 1
 1870              		.cfi_startproc
 498:C:/Users/stapi/OneDrive/Desktop/GD32VW553/V1_MQTT_OK/GD32VW55X_Wifi_BLE_SDK/GD32VW55x_RELEASE_V1.0.2/MSDK/cloud/alicloud/src/services/dev_bind\awss_notify.c ****     dev_bind_cnt = 0;
 1871              		.loc 1 498 5
 1872              		.loc 1 498 18 is_stmt 0
 1873 0000 B7070000 		lui	a5,%hi(.LANCHOR12)
 1874 0004 23800700 		sb	zero,%lo(.LANCHOR12)(a5)
 499:C:/Users/stapi/OneDrive/Desktop/GD32VW553/V1_MQTT_OK/GD32VW55X_Wifi_BLE_SDK/GD32VW55x_RELEASE_V1.0.2/MSDK/cloud/alicloud/src/services/dev_bind\awss_notify.c ****     dev_sync_token = 0;
 1875              		.loc 1 499 5 is_stmt 1
 1876              		.loc 1 499 20 is_stmt 0
 1877 0008 B7070000 		lui	a5,%hi(.LANCHOR14)
 1878 000c 23800700 		sb	zero,%lo(.LANCHOR14)(a5)
 500:C:/Users/stapi/OneDrive/Desktop/GD32VW553/V1_MQTT_OK/GD32VW55X_Wifi_BLE_SDK/GD32VW55x_RELEASE_V1.0.2/MSDK/cloud/alicloud/src/services/dev_bind\awss_notify.c ****     dev_bind_interval = 0;
 1879              		.loc 1 500 5 is_stmt 1
 1880              		.loc 1 500 23 is_stmt 0
 1881 0010 B7070000 		lui	a5,%hi(.LANCHOR13)
 1882 0014 23A00700 		sw	zero,%lo(.LANCHOR13)(a5)
 501:C:/Users/stapi/OneDrive/Desktop/GD32VW553/V1_MQTT_OK/GD32VW55X_Wifi_BLE_SDK/GD32VW55x_RELEASE_V1.0.2/MSDK/cloud/alicloud/src/services/dev_bind\awss_notify.c ****     awss_notify_resp[AWSS_NOTIFY_DEV_BIND_TOKEN] = 0;
 1883              		.loc 1 501 5 is_stmt 1
 1884              		.loc 1 501 50 is_stmt 0
 1885 0018 B7070000 		lui	a5,%hi(.LANCHOR3+1)
 1886 001c A3800700 		sb	zero,%lo(.LANCHOR3+1)(a5)
 502:C:/Users/stapi/OneDrive/Desktop/GD32VW553/V1_MQTT_OK/GD32VW55X_Wifi_BLE_SDK/GD32VW55x_RELEASE_V1.0.2/MSDK/cloud/alicloud/src/services/dev_bind\awss_notify.c **** 
 503:C:/Users/stapi/OneDrive/Desktop/GD32VW553/V1_MQTT_OK/GD32VW55X_Wifi_BLE_SDK/GD32VW55x_RELEASE_V1.0.2/MSDK/cloud/alicloud/src/services/dev_bind\awss_notify.c ****     return __awss_dev_bind_notify();
 1887              		.loc 1 503 5 is_stmt 1
 1888              		.loc 1 503 12 is_stmt 0
 1889 0020 17030000 		tail	__awss_dev_bind_notify
 1889      67000300 
 1890              	.LVL204:
 1891              		.cfi_endproc
 1892              	.LFE74:
 1894              		.section	.rodata.__awss_suc_notify.str1.4,"aMS",@progbits,1
 1895              		.align	2
 1896              	.LC37:
 1897 0000 61777373 		.string	"awss notify resp:%d\r\n"
 1897      206E6F74 
 1897      69667920 
 1897      72657370 
 1897      3A25640D 
 1898 0016 0000     		.align	2
 1899              	.LC38:
 1900 0018 61777373 		.string	"awss_suc"
 1900      5F737563 
 1900      00
 1901 0021 000000   		.align	2
 1902              	.LC39:
 1903 0024 5F5F6177 		.string	"__awss_suc_notify %d timeout"
 1903      73735F73 
 1903      75635F6E 
 1903      6F746966 
 1903      79202564 
 1904              		.section	.text.__awss_suc_notify,"ax",@progbits
 1905              		.align	1
 1907              	__awss_suc_notify:
 1908              	.LFB76:
 504:C:/Users/stapi/OneDrive/Desktop/GD32VW553/V1_MQTT_OK/GD32VW55X_Wifi_BLE_SDK/GD32VW55x_RELEASE_V1.0.2/MSDK/cloud/alicloud/src/services/dev_bind\awss_notify.c **** }
 505:C:/Users/stapi/OneDrive/Desktop/GD32VW553/V1_MQTT_OK/GD32VW55X_Wifi_BLE_SDK/GD32VW55x_RELEASE_V1.0.2/MSDK/cloud/alicloud/src/services/dev_bind\awss_notify.c **** 
 506:C:/Users/stapi/OneDrive/Desktop/GD32VW553/V1_MQTT_OK/GD32VW55X_Wifi_BLE_SDK/GD32VW55x_RELEASE_V1.0.2/MSDK/cloud/alicloud/src/services/dev_bind\awss_notify.c **** int awss_dev_bind_notify_stop()
 507:C:/Users/stapi/OneDrive/Desktop/GD32VW553/V1_MQTT_OK/GD32VW55X_Wifi_BLE_SDK/GD32VW55x_RELEASE_V1.0.2/MSDK/cloud/alicloud/src/services/dev_bind\awss_notify.c **** {
 508:C:/Users/stapi/OneDrive/Desktop/GD32VW553/V1_MQTT_OK/GD32VW55X_Wifi_BLE_SDK/GD32VW55x_RELEASE_V1.0.2/MSDK/cloud/alicloud/src/services/dev_bind\awss_notify.c ****     if (dev_bind_notify_mutex)
 509:C:/Users/stapi/OneDrive/Desktop/GD32VW553/V1_MQTT_OK/GD32VW55X_Wifi_BLE_SDK/GD32VW55x_RELEASE_V1.0.2/MSDK/cloud/alicloud/src/services/dev_bind\awss_notify.c ****         HAL_MutexLock(dev_bind_notify_mutex);
 510:C:/Users/stapi/OneDrive/Desktop/GD32VW553/V1_MQTT_OK/GD32VW55X_Wifi_BLE_SDK/GD32VW55x_RELEASE_V1.0.2/MSDK/cloud/alicloud/src/services/dev_bind\awss_notify.c **** 
 511:C:/Users/stapi/OneDrive/Desktop/GD32VW553/V1_MQTT_OK/GD32VW55X_Wifi_BLE_SDK/GD32VW55x_RELEASE_V1.0.2/MSDK/cloud/alicloud/src/services/dev_bind\awss_notify.c ****     do {
 512:C:/Users/stapi/OneDrive/Desktop/GD32VW553/V1_MQTT_OK/GD32VW55X_Wifi_BLE_SDK/GD32VW55x_RELEASE_V1.0.2/MSDK/cloud/alicloud/src/services/dev_bind\awss_notify.c ****         dev_sync_token = 0;
 513:C:/Users/stapi/OneDrive/Desktop/GD32VW553/V1_MQTT_OK/GD32VW55X_Wifi_BLE_SDK/GD32VW55x_RELEASE_V1.0.2/MSDK/cloud/alicloud/src/services/dev_bind\awss_notify.c ****         awss_notify_resp[AWSS_NOTIFY_DEV_BIND_TOKEN] = 1;
 514:C:/Users/stapi/OneDrive/Desktop/GD32VW553/V1_MQTT_OK/GD32VW55X_Wifi_BLE_SDK/GD32VW55x_RELEASE_V1.0.2/MSDK/cloud/alicloud/src/services/dev_bind\awss_notify.c ****         dev_bind_cnt = AWSS_NOTIFY_CNT_MAX;
 515:C:/Users/stapi/OneDrive/Desktop/GD32VW553/V1_MQTT_OK/GD32VW55X_Wifi_BLE_SDK/GD32VW55x_RELEASE_V1.0.2/MSDK/cloud/alicloud/src/services/dev_bind\awss_notify.c ****         if (dev_bind_notify_timer == NULL)
 516:C:/Users/stapi/OneDrive/Desktop/GD32VW553/V1_MQTT_OK/GD32VW55X_Wifi_BLE_SDK/GD32VW55x_RELEASE_V1.0.2/MSDK/cloud/alicloud/src/services/dev_bind\awss_notify.c ****             break;
 517:C:/Users/stapi/OneDrive/Desktop/GD32VW553/V1_MQTT_OK/GD32VW55X_Wifi_BLE_SDK/GD32VW55x_RELEASE_V1.0.2/MSDK/cloud/alicloud/src/services/dev_bind\awss_notify.c **** 
 518:C:/Users/stapi/OneDrive/Desktop/GD32VW553/V1_MQTT_OK/GD32VW55X_Wifi_BLE_SDK/GD32VW55x_RELEASE_V1.0.2/MSDK/cloud/alicloud/src/services/dev_bind\awss_notify.c ****         awss_stop_timer(dev_bind_notify_timer);
 519:C:/Users/stapi/OneDrive/Desktop/GD32VW553/V1_MQTT_OK/GD32VW55X_Wifi_BLE_SDK/GD32VW55x_RELEASE_V1.0.2/MSDK/cloud/alicloud/src/services/dev_bind\awss_notify.c ****         dev_bind_notify_timer = NULL;
 520:C:/Users/stapi/OneDrive/Desktop/GD32VW553/V1_MQTT_OK/GD32VW55X_Wifi_BLE_SDK/GD32VW55x_RELEASE_V1.0.2/MSDK/cloud/alicloud/src/services/dev_bind\awss_notify.c ****     } while (0);
 521:C:/Users/stapi/OneDrive/Desktop/GD32VW553/V1_MQTT_OK/GD32VW55X_Wifi_BLE_SDK/GD32VW55x_RELEASE_V1.0.2/MSDK/cloud/alicloud/src/services/dev_bind\awss_notify.c **** 
 522:C:/Users/stapi/OneDrive/Desktop/GD32VW553/V1_MQTT_OK/GD32VW55X_Wifi_BLE_SDK/GD32VW55x_RELEASE_V1.0.2/MSDK/cloud/alicloud/src/services/dev_bind\awss_notify.c ****     awss_cmp_coap_cancel_packet(g_notify_msg_id[AWSS_NOTIFY_DEV_BIND_TOKEN]);
 523:C:/Users/stapi/OneDrive/Desktop/GD32VW553/V1_MQTT_OK/GD32VW55X_Wifi_BLE_SDK/GD32VW55x_RELEASE_V1.0.2/MSDK/cloud/alicloud/src/services/dev_bind\awss_notify.c ****     g_notify_msg_id[AWSS_NOTIFY_DEV_BIND_TOKEN] = 0;
 524:C:/Users/stapi/OneDrive/Desktop/GD32VW553/V1_MQTT_OK/GD32VW55X_Wifi_BLE_SDK/GD32VW55x_RELEASE_V1.0.2/MSDK/cloud/alicloud/src/services/dev_bind\awss_notify.c **** 
 525:C:/Users/stapi/OneDrive/Desktop/GD32VW553/V1_MQTT_OK/GD32VW55X_Wifi_BLE_SDK/GD32VW55x_RELEASE_V1.0.2/MSDK/cloud/alicloud/src/services/dev_bind\awss_notify.c ****     if (dev_bind_notify_mutex) {
 526:C:/Users/stapi/OneDrive/Desktop/GD32VW553/V1_MQTT_OK/GD32VW55X_Wifi_BLE_SDK/GD32VW55x_RELEASE_V1.0.2/MSDK/cloud/alicloud/src/services/dev_bind\awss_notify.c ****         HAL_MutexUnlock(dev_bind_notify_mutex);
 527:C:/Users/stapi/OneDrive/Desktop/GD32VW553/V1_MQTT_OK/GD32VW55X_Wifi_BLE_SDK/GD32VW55x_RELEASE_V1.0.2/MSDK/cloud/alicloud/src/services/dev_bind\awss_notify.c ****         HAL_MutexDestroy(dev_bind_notify_mutex);
 528:C:/Users/stapi/OneDrive/Desktop/GD32VW553/V1_MQTT_OK/GD32VW55X_Wifi_BLE_SDK/GD32VW55x_RELEASE_V1.0.2/MSDK/cloud/alicloud/src/services/dev_bind\awss_notify.c ****         dev_bind_notify_mutex = NULL;
 529:C:/Users/stapi/OneDrive/Desktop/GD32VW553/V1_MQTT_OK/GD32VW55X_Wifi_BLE_SDK/GD32VW55x_RELEASE_V1.0.2/MSDK/cloud/alicloud/src/services/dev_bind\awss_notify.c ****     }
 530:C:/Users/stapi/OneDrive/Desktop/GD32VW553/V1_MQTT_OK/GD32VW55X_Wifi_BLE_SDK/GD32VW55x_RELEASE_V1.0.2/MSDK/cloud/alicloud/src/services/dev_bind\awss_notify.c ****     return 0;
 531:C:/Users/stapi/OneDrive/Desktop/GD32VW553/V1_MQTT_OK/GD32VW55X_Wifi_BLE_SDK/GD32VW55x_RELEASE_V1.0.2/MSDK/cloud/alicloud/src/services/dev_bind\awss_notify.c **** }
 532:C:/Users/stapi/OneDrive/Desktop/GD32VW553/V1_MQTT_OK/GD32VW55X_Wifi_BLE_SDK/GD32VW55x_RELEASE_V1.0.2/MSDK/cloud/alicloud/src/services/dev_bind\awss_notify.c **** 
 533:C:/Users/stapi/OneDrive/Desktop/GD32VW553/V1_MQTT_OK/GD32VW55X_Wifi_BLE_SDK/GD32VW55x_RELEASE_V1.0.2/MSDK/cloud/alicloud/src/services/dev_bind\awss_notify.c **** #ifdef WIFI_PROVISION_ENABLED
 534:C:/Users/stapi/OneDrive/Desktop/GD32VW553/V1_MQTT_OK/GD32VW55X_Wifi_BLE_SDK/GD32VW55x_RELEASE_V1.0.2/MSDK/cloud/alicloud/src/services/dev_bind\awss_notify.c **** static int suc_interval = 0;
 535:C:/Users/stapi/OneDrive/Desktop/GD32VW553/V1_MQTT_OK/GD32VW55X_Wifi_BLE_SDK/GD32VW55x_RELEASE_V1.0.2/MSDK/cloud/alicloud/src/services/dev_bind\awss_notify.c **** static char suc_cnt = 0;
 536:C:/Users/stapi/OneDrive/Desktop/GD32VW553/V1_MQTT_OK/GD32VW55X_Wifi_BLE_SDK/GD32VW55x_RELEASE_V1.0.2/MSDK/cloud/alicloud/src/services/dev_bind\awss_notify.c **** static int __awss_suc_notify()
 537:C:/Users/stapi/OneDrive/Desktop/GD32VW553/V1_MQTT_OK/GD32VW55X_Wifi_BLE_SDK/GD32VW55x_RELEASE_V1.0.2/MSDK/cloud/alicloud/src/services/dev_bind\awss_notify.c **** {
 1909              		.loc 1 537 1 is_stmt 1
 1910              		.cfi_startproc
 1911 0000 17030000 		call	t0,__riscv_save_6
 1911      E7020300 
 1912              		.cfi_offset 21, -28
 1913              		.cfi_offset 20, -24
 1914              		.cfi_offset 19, -20
 1915              		.cfi_offset 18, -16
 1916              		.cfi_offset 9, -12
 1917              		.cfi_offset 8, -8
 1918              		.cfi_offset 1, -4
 1919              		.cfi_def_cfa_offset 32
 538:C:/Users/stapi/OneDrive/Desktop/GD32VW553/V1_MQTT_OK/GD32VW55X_Wifi_BLE_SDK/GD32VW55x_RELEASE_V1.0.2/MSDK/cloud/alicloud/src/services/dev_bind\awss_notify.c ****     awss_debug("awss notify resp:%d\r\n", awss_notify_resp[AWSS_NOTIFY_SUCCESS]);
 1920              		.loc 1 538 5
 1921 0008 370A0000 		lui	s4,%hi(.LANCHOR3)
 1922 000c 37070000 		lui	a4,%hi(.LC37)
 1923 0010 B7050000 		lui	a1,%hi(.LANCHOR15)
 1924 0014 37050000 		lui	a0,%hi(.LC1)
 1925 0018 93070A00 		addi	a5,s4,%lo(.LANCHOR3)
 539:C:/Users/stapi/OneDrive/Desktop/GD32VW553/V1_MQTT_OK/GD32VW55X_Wifi_BLE_SDK/GD32VW55x_RELEASE_V1.0.2/MSDK/cloud/alicloud/src/services/dev_bind\awss_notify.c **** 
 540:C:/Users/stapi/OneDrive/Desktop/GD32VW553/V1_MQTT_OK/GD32VW55X_Wifi_BLE_SDK/GD32VW55x_RELEASE_V1.0.2/MSDK/cloud/alicloud/src/services/dev_bind\awss_notify.c ****     if (success_notify_mutex == NULL) {
 1926              		.loc 1 540 30 is_stmt 0
 1927 001c 37040000 		lui	s0,%hi(.LANCHOR16)
 538:C:/Users/stapi/OneDrive/Desktop/GD32VW553/V1_MQTT_OK/GD32VW55X_Wifi_BLE_SDK/GD32VW55x_RELEASE_V1.0.2/MSDK/cloud/alicloud/src/services/dev_bind\awss_notify.c ****     awss_debug("awss notify resp:%d\r\n", awss_notify_resp[AWSS_NOTIFY_SUCCESS]);
 1928              		.loc 1 538 5
 1929 0020 13070700 		addi	a4,a4,%lo(.LC37)
 1930 0024 9546     		li	a3,5
 1931 0026 1306A021 		li	a2,538
 1932 002a 93850500 		addi	a1,a1,%lo(.LANCHOR15)
 1933 002e 13050500 		addi	a0,a0,%lo(.LC1)
 1934              		.loc 1 540 30
 1935 0032 93040400 		addi	s1,s0,%lo(.LANCHOR16)
 538:C:/Users/stapi/OneDrive/Desktop/GD32VW553/V1_MQTT_OK/GD32VW55X_Wifi_BLE_SDK/GD32VW55x_RELEASE_V1.0.2/MSDK/cloud/alicloud/src/services/dev_bind\awss_notify.c ****     awss_debug("awss notify resp:%d\r\n", awss_notify_resp[AWSS_NOTIFY_SUCCESS]);
 1936              		.loc 1 538 5
 1937 0036 83873700 		lb	a5,3(a5)
 1938 003a 97000000 		call	LITE_syslog
 1938      E7800000 
 1939              	.LVL205:
 1940              		.loc 1 540 5 is_stmt 1
 1941              		.loc 1 540 8 is_stmt 0
 1942 0042 9C40     		lw	a5,0(s1)
 1943 0044 130A0A00 		addi	s4,s4,%lo(.LANCHOR3)
 1944 0048 13040400 		addi	s0,s0,%lo(.LANCHOR16)
 1945 004c CDCF     		beq	a5,zero,.L136
 1946              	.L140:
 541:C:/Users/stapi/OneDrive/Desktop/GD32VW553/V1_MQTT_OK/GD32VW55X_Wifi_BLE_SDK/GD32VW55x_RELEASE_V1.0.2/MSDK/cloud/alicloud/src/services/dev_bind\awss_notify.c ****         success_notify_mutex = HAL_MutexCreate();
 542:C:/Users/stapi/OneDrive/Desktop/GD32VW553/V1_MQTT_OK/GD32VW55X_Wifi_BLE_SDK/GD32VW55x_RELEASE_V1.0.2/MSDK/cloud/alicloud/src/services/dev_bind\awss_notify.c ****         if (success_notify_mutex == NULL) {
 543:C:/Users/stapi/OneDrive/Desktop/GD32VW553/V1_MQTT_OK/GD32VW55X_Wifi_BLE_SDK/GD32VW55x_RELEASE_V1.0.2/MSDK/cloud/alicloud/src/services/dev_bind\awss_notify.c ****             return STATE_SYS_DEPEND_MUTEX_CREATE;
 544:C:/Users/stapi/OneDrive/Desktop/GD32VW553/V1_MQTT_OK/GD32VW55X_Wifi_BLE_SDK/GD32VW55x_RELEASE_V1.0.2/MSDK/cloud/alicloud/src/services/dev_bind\awss_notify.c ****         }
 545:C:/Users/stapi/OneDrive/Desktop/GD32VW553/V1_MQTT_OK/GD32VW55X_Wifi_BLE_SDK/GD32VW55x_RELEASE_V1.0.2/MSDK/cloud/alicloud/src/services/dev_bind\awss_notify.c ****     }
 546:C:/Users/stapi/OneDrive/Desktop/GD32VW553/V1_MQTT_OK/GD32VW55X_Wifi_BLE_SDK/GD32VW55x_RELEASE_V1.0.2/MSDK/cloud/alicloud/src/services/dev_bind\awss_notify.c **** 
 547:C:/Users/stapi/OneDrive/Desktop/GD32VW553/V1_MQTT_OK/GD32VW55X_Wifi_BLE_SDK/GD32VW55x_RELEASE_V1.0.2/MSDK/cloud/alicloud/src/services/dev_bind\awss_notify.c ****     if (suc_cnt == 0)
 1947              		.loc 1 547 5 is_stmt 1
 1948              		.loc 1 547 17 is_stmt 0
 1949 004e 37090000 		lui	s2,%hi(.LANCHOR17)
 1950              		.loc 1 547 8
 1951 0052 83070900 		lb	a5,%lo(.LANCHOR17)(s2)
 1952 0056 13090900 		addi	s2,s2,%lo(.LANCHOR17)
 1953 005a 99E7     		bne	a5,zero,.L138
 548:C:/Users/stapi/OneDrive/Desktop/GD32VW553/V1_MQTT_OK/GD32VW55X_Wifi_BLE_SDK/GD32VW55x_RELEASE_V1.0.2/MSDK/cloud/alicloud/src/services/dev_bind\awss_notify.c ****         awss_event_post(IOTX_AWSS_SUC_NOTIFY);
 1954              		.loc 1 548 9 is_stmt 1
 1955 005c 0565     		li	a0,4096
 1956 005e 3905     		addi	a0,a0,14
 1957 0060 97000000 		call	awss_event_post
 1957      E7800000 
 1958              	.LVL206:
 1959              	.L138:
 549:C:/Users/stapi/OneDrive/Desktop/GD32VW553/V1_MQTT_OK/GD32VW55X_Wifi_BLE_SDK/GD32VW55x_RELEASE_V1.0.2/MSDK/cloud/alicloud/src/services/dev_bind\awss_notify.c **** 
 550:C:/Users/stapi/OneDrive/Desktop/GD32VW553/V1_MQTT_OK/GD32VW55X_Wifi_BLE_SDK/GD32VW55x_RELEASE_V1.0.2/MSDK/cloud/alicloud/src/services/dev_bind\awss_notify.c ****     HAL_MutexLock(success_notify_mutex);
 1960              		.loc 1 550 5
 1961 0068 0840     		lw	a0,0(s0)
 1962 006a B7090000 		lui	s3,%hi(.LANCHOR18)
 1963 006e B7040000 		lui	s1,%hi(.LANCHOR19)
 1964 0072 97000000 		call	HAL_MutexLock
 1964      E7800000 
 1965              	.LVL207:
 551:C:/Users/stapi/OneDrive/Desktop/GD32VW553/V1_MQTT_OK/GD32VW55X_Wifi_BLE_SDK/GD32VW55x_RELEASE_V1.0.2/MSDK/cloud/alicloud/src/services/dev_bind\awss_notify.c **** 
 552:C:/Users/stapi/OneDrive/Desktop/GD32VW553/V1_MQTT_OK/GD32VW55X_Wifi_BLE_SDK/GD32VW55x_RELEASE_V1.0.2/MSDK/cloud/alicloud/src/services/dev_bind\awss_notify.c ****     do {
 1966              		.loc 1 552 5
 553:C:/Users/stapi/OneDrive/Desktop/GD32VW553/V1_MQTT_OK/GD32VW55X_Wifi_BLE_SDK/GD32VW55x_RELEASE_V1.0.2/MSDK/cloud/alicloud/src/services/dev_bind\awss_notify.c ****         if (awss_notify_resp[AWSS_NOTIFY_SUCCESS] != 0)
 1967              		.loc 1 553 9
 1968 007a 93890900 		addi	s3,s3,%lo(.LANCHOR18)
 1969 007e 93840400 		addi	s1,s1,%lo(.LANCHOR19)
 1970              		.loc 1 553 12 is_stmt 0
 1971 0082 83073A00 		lb	a5,3(s4)
 1972 0086 CDEB     		bne	a5,zero,.L146
 554:C:/Users/stapi/OneDrive/Desktop/GD32VW553/V1_MQTT_OK/GD32VW55X_Wifi_BLE_SDK/GD32VW55x_RELEASE_V1.0.2/MSDK/cloud/alicloud/src/services/dev_bind\awss_notify.c ****             break;
 555:C:/Users/stapi/OneDrive/Desktop/GD32VW553/V1_MQTT_OK/GD32VW55X_Wifi_BLE_SDK/GD32VW55x_RELEASE_V1.0.2/MSDK/cloud/alicloud/src/services/dev_bind\awss_notify.c **** 
 556:C:/Users/stapi/OneDrive/Desktop/GD32VW553/V1_MQTT_OK/GD32VW55X_Wifi_BLE_SDK/GD32VW55x_RELEASE_V1.0.2/MSDK/cloud/alicloud/src/services/dev_bind\awss_notify.c ****         awss_notify_dev_info(AWSS_NOTIFY_SUCCESS, 1);
 1973              		.loc 1 556 9 is_stmt 1
 1974 0088 8545     		li	a1,1
 1975 008a 0D45     		li	a0,3
 1976 008c 97000000 		call	awss_notify_dev_info
 1976      E7800000 
 1977              	.LVL208:
 557:C:/Users/stapi/OneDrive/Desktop/GD32VW553/V1_MQTT_OK/GD32VW55X_Wifi_BLE_SDK/GD32VW55x_RELEASE_V1.0.2/MSDK/cloud/alicloud/src/services/dev_bind\awss_notify.c **** 
 558:C:/Users/stapi/OneDrive/Desktop/GD32VW553/V1_MQTT_OK/GD32VW55X_Wifi_BLE_SDK/GD32VW55x_RELEASE_V1.0.2/MSDK/cloud/alicloud/src/services/dev_bind\awss_notify.c ****         suc_interval += 100;
 1978              		.loc 1 558 9
 1979              		.loc 1 558 22 is_stmt 0
 1980 0094 83A70900 		lw	a5,0(s3)
 559:C:/Users/stapi/OneDrive/Desktop/GD32VW553/V1_MQTT_OK/GD32VW55X_Wifi_BLE_SDK/GD32VW55x_RELEASE_V1.0.2/MSDK/cloud/alicloud/src/services/dev_bind\awss_notify.c ****         if (suc_cnt ++ < AWSS_NOTIFY_CNT_MAX &&
 1981              		.loc 1 559 21
 1982 0098 03070900 		lb	a4,0(s2)
 1983 009c 93061700 		addi	a3,a4,1
 558:C:/Users/stapi/OneDrive/Desktop/GD32VW553/V1_MQTT_OK/GD32VW55X_Wifi_BLE_SDK/GD32VW55x_RELEASE_V1.0.2/MSDK/cloud/alicloud/src/services/dev_bind\awss_notify.c ****         if (suc_cnt ++ < AWSS_NOTIFY_CNT_MAX &&
 1984              		.loc 1 558 22
 1985 00a0 93874706 		addi	a5,a5,100
 1986 00a4 23A0F900 		sw	a5,0(s3)
 1987              		.loc 1 559 9 is_stmt 1
 1988 00a8 83473A00 		lbu	a5,3(s4)
 1989              		.loc 1 559 21 is_stmt 0
 1990 00ac 93964660 		sext.b	a3,a3
 1991              		.loc 1 559 12
 1992 00b0 7546     		li	a2,29
 1993              		.loc 1 559 21
 1994 00b2 2300D900 		sb	a3,0(s2)
 1995              		.loc 1 559 46
 1996 00b6 93974760 		sext.b	a5,a5
 1997              		.loc 1 559 12
 1998 00ba 6343E606 		bgt	a4,a2,.L142
 1999              		.loc 1 559 46 discriminator 1
 2000 00be ADEF     		bne	a5,zero,.L146
 560:C:/Users/stapi/OneDrive/Desktop/GD32VW553/V1_MQTT_OK/GD32VW55X_Wifi_BLE_SDK/GD32VW55x_RELEASE_V1.0.2/MSDK/cloud/alicloud/src/services/dev_bind\awss_notify.c ****             awss_notify_resp[AWSS_NOTIFY_SUCCESS] == 0) {
 561:C:/Users/stapi/OneDrive/Desktop/GD32VW553/V1_MQTT_OK/GD32VW55X_Wifi_BLE_SDK/GD32VW55x_RELEASE_V1.0.2/MSDK/cloud/alicloud/src/services/dev_bind\awss_notify.c ****             if (success_notify_timer == NULL)
 2001              		.loc 1 561 13 is_stmt 1
 2002              		.loc 1 561 16 is_stmt 0
 2003 00c0 9C40     		lw	a5,0(s1)
 2004 00c2 99EF     		bne	a5,zero,.L143
 562:C:/Users/stapi/OneDrive/Desktop/GD32VW553/V1_MQTT_OK/GD32VW55X_Wifi_BLE_SDK/GD32VW55x_RELEASE_V1.0.2/MSDK/cloud/alicloud/src/services/dev_bind\awss_notify.c ****                 success_notify_timer = HAL_Timer_Create("awss_suc", (void (*)(void *))__awss_suc_no
 2005              		.loc 1 562 17 is_stmt 1
 2006              		.loc 1 562 40 is_stmt 0
 2007 00c4 B7050000 		lui	a1,%hi(__awss_suc_notify)
 2008 00c8 37050000 		lui	a0,%hi(.LC38)
 2009 00cc 0146     		li	a2,0
 2010 00ce 93850500 		addi	a1,a1,%lo(__awss_suc_notify)
 2011 00d2 13050500 		addi	a0,a0,%lo(.LC38)
 2012 00d6 97000000 		call	HAL_Timer_Create
 2012      E7800000 
 2013              	.LVL209:
 2014              		.loc 1 562 38
 2015 00de 88C0     		sw	a0,0(s1)
 2016              	.L143:
 563:C:/Users/stapi/OneDrive/Desktop/GD32VW553/V1_MQTT_OK/GD32VW55X_Wifi_BLE_SDK/GD32VW55x_RELEASE_V1.0.2/MSDK/cloud/alicloud/src/services/dev_bind\awss_notify.c ****             HAL_Timer_Stop(success_notify_timer);
 2017              		.loc 1 563 13 is_stmt 1
 2018 00e0 8840     		lw	a0,0(s1)
 2019 00e2 97000000 		call	HAL_Timer_Stop
 2019      E7800000 
 2020              	.LVL210:
 564:C:/Users/stapi/OneDrive/Desktop/GD32VW553/V1_MQTT_OK/GD32VW55X_Wifi_BLE_SDK/GD32VW55x_RELEASE_V1.0.2/MSDK/cloud/alicloud/src/services/dev_bind\awss_notify.c ****             HAL_Timer_Start(success_notify_timer, suc_interval);
 2021              		.loc 1 564 13
 2022 00ea 83A50900 		lw	a1,0(s3)
 2023 00ee 8840     		lw	a0,0(s1)
 565:C:/Users/stapi/OneDrive/Desktop/GD32VW553/V1_MQTT_OK/GD32VW55X_Wifi_BLE_SDK/GD32VW55x_RELEASE_V1.0.2/MSDK/cloud/alicloud/src/services/dev_bind\awss_notify.c ****             HAL_MutexUnlock(success_notify_mutex);
 566:C:/Users/stapi/OneDrive/Desktop/GD32VW553/V1_MQTT_OK/GD32VW55X_Wifi_BLE_SDK/GD32VW55x_RELEASE_V1.0.2/MSDK/cloud/alicloud/src/services/dev_bind\awss_notify.c ****             return 0;
 2024              		.loc 1 566 20 is_stmt 0
 2025 00f0 8144     		li	s1,0
 564:C:/Users/stapi/OneDrive/Desktop/GD32VW553/V1_MQTT_OK/GD32VW55X_Wifi_BLE_SDK/GD32VW55x_RELEASE_V1.0.2/MSDK/cloud/alicloud/src/services/dev_bind\awss_notify.c ****             HAL_Timer_Start(success_notify_timer, suc_interval);
 2026              		.loc 1 564 13
 2027 00f2 97000000 		call	HAL_Timer_Start
 2027      E7800000 
 2028              	.LVL211:
 565:C:/Users/stapi/OneDrive/Desktop/GD32VW553/V1_MQTT_OK/GD32VW55X_Wifi_BLE_SDK/GD32VW55x_RELEASE_V1.0.2/MSDK/cloud/alicloud/src/services/dev_bind\awss_notify.c ****             HAL_MutexUnlock(success_notify_mutex);
 2029              		.loc 1 565 13 is_stmt 1
 2030 00fa 0840     		lw	a0,0(s0)
 2031 00fc 97000000 		call	HAL_MutexUnlock
 2031      E7800000 
 2032              	.LVL212:
 2033              		.loc 1 566 13
 2034              		.loc 1 566 20 is_stmt 0
 2035 0104 09A8     		j	.L135
 2036              	.L136:
 541:C:/Users/stapi/OneDrive/Desktop/GD32VW553/V1_MQTT_OK/GD32VW55X_Wifi_BLE_SDK/GD32VW55x_RELEASE_V1.0.2/MSDK/cloud/alicloud/src/services/dev_bind\awss_notify.c ****         if (success_notify_mutex == NULL) {
 2037              		.loc 1 541 9 is_stmt 1
 541:C:/Users/stapi/OneDrive/Desktop/GD32VW553/V1_MQTT_OK/GD32VW55X_Wifi_BLE_SDK/GD32VW55x_RELEASE_V1.0.2/MSDK/cloud/alicloud/src/services/dev_bind\awss_notify.c ****         if (success_notify_mutex == NULL) {
 2038              		.loc 1 541 32 is_stmt 0
 2039 0106 97000000 		call	HAL_MutexCreate
 2039      E7800000 
 2040              	.LVL213:
 541:C:/Users/stapi/OneDrive/Desktop/GD32VW553/V1_MQTT_OK/GD32VW55X_Wifi_BLE_SDK/GD32VW55x_RELEASE_V1.0.2/MSDK/cloud/alicloud/src/services/dev_bind\awss_notify.c ****         if (success_notify_mutex == NULL) {
 2041              		.loc 1 541 30
 2042 010e 88C0     		sw	a0,0(s1)
 542:C:/Users/stapi/OneDrive/Desktop/GD32VW553/V1_MQTT_OK/GD32VW55X_Wifi_BLE_SDK/GD32VW55x_RELEASE_V1.0.2/MSDK/cloud/alicloud/src/services/dev_bind\awss_notify.c ****             return STATE_SYS_DEPEND_MUTEX_CREATE;
 2043              		.loc 1 542 9 is_stmt 1
 543:C:/Users/stapi/OneDrive/Desktop/GD32VW553/V1_MQTT_OK/GD32VW55X_Wifi_BLE_SDK/GD32VW55x_RELEASE_V1.0.2/MSDK/cloud/alicloud/src/services/dev_bind\awss_notify.c ****         }
 2044              		.loc 1 543 20 is_stmt 0
 2045 0110 9304B0DF 		li	s1,-517
 542:C:/Users/stapi/OneDrive/Desktop/GD32VW553/V1_MQTT_OK/GD32VW55X_Wifi_BLE_SDK/GD32VW55x_RELEASE_V1.0.2/MSDK/cloud/alicloud/src/services/dev_bind\awss_notify.c ****             return STATE_SYS_DEPEND_MUTEX_CREATE;
 2046              		.loc 1 542 12
 2047 0114 0DFD     		bne	a0,zero,.L140
 2048              	.L135:
 567:C:/Users/stapi/OneDrive/Desktop/GD32VW553/V1_MQTT_OK/GD32VW55X_Wifi_BLE_SDK/GD32VW55x_RELEASE_V1.0.2/MSDK/cloud/alicloud/src/services/dev_bind\awss_notify.c ****         }
 568:C:/Users/stapi/OneDrive/Desktop/GD32VW553/V1_MQTT_OK/GD32VW55X_Wifi_BLE_SDK/GD32VW55x_RELEASE_V1.0.2/MSDK/cloud/alicloud/src/services/dev_bind\awss_notify.c ****     } while (0);
 569:C:/Users/stapi/OneDrive/Desktop/GD32VW553/V1_MQTT_OK/GD32VW55X_Wifi_BLE_SDK/GD32VW55x_RELEASE_V1.0.2/MSDK/cloud/alicloud/src/services/dev_bind\awss_notify.c **** 
 570:C:/Users/stapi/OneDrive/Desktop/GD32VW553/V1_MQTT_OK/GD32VW55X_Wifi_BLE_SDK/GD32VW55x_RELEASE_V1.0.2/MSDK/cloud/alicloud/src/services/dev_bind\awss_notify.c ****     if (awss_notify_resp[AWSS_NOTIFY_SUCCESS] == 0) {
 571:C:/Users/stapi/OneDrive/Desktop/GD32VW553/V1_MQTT_OK/GD32VW55X_Wifi_BLE_SDK/GD32VW55x_RELEASE_V1.0.2/MSDK/cloud/alicloud/src/services/dev_bind\awss_notify.c ****         dump_awss_status(STATE_WIFI_SENT_CONNECTAP_NOTI_TIMEOUT, "__awss_suc_notify %d timeout", su
 572:C:/Users/stapi/OneDrive/Desktop/GD32VW553/V1_MQTT_OK/GD32VW55X_Wifi_BLE_SDK/GD32VW55x_RELEASE_V1.0.2/MSDK/cloud/alicloud/src/services/dev_bind\awss_notify.c ****     }
 573:C:/Users/stapi/OneDrive/Desktop/GD32VW553/V1_MQTT_OK/GD32VW55X_Wifi_BLE_SDK/GD32VW55x_RELEASE_V1.0.2/MSDK/cloud/alicloud/src/services/dev_bind\awss_notify.c **** 
 574:C:/Users/stapi/OneDrive/Desktop/GD32VW553/V1_MQTT_OK/GD32VW55X_Wifi_BLE_SDK/GD32VW55x_RELEASE_V1.0.2/MSDK/cloud/alicloud/src/services/dev_bind\awss_notify.c ****     awss_cmp_coap_cancel_packet(g_notify_msg_id[AWSS_NOTIFY_SUCCESS]);
 575:C:/Users/stapi/OneDrive/Desktop/GD32VW553/V1_MQTT_OK/GD32VW55X_Wifi_BLE_SDK/GD32VW55x_RELEASE_V1.0.2/MSDK/cloud/alicloud/src/services/dev_bind\awss_notify.c ****     g_notify_msg_id[AWSS_NOTIFY_SUCCESS] = 0;
 576:C:/Users/stapi/OneDrive/Desktop/GD32VW553/V1_MQTT_OK/GD32VW55X_Wifi_BLE_SDK/GD32VW55x_RELEASE_V1.0.2/MSDK/cloud/alicloud/src/services/dev_bind\awss_notify.c **** 
 577:C:/Users/stapi/OneDrive/Desktop/GD32VW553/V1_MQTT_OK/GD32VW55X_Wifi_BLE_SDK/GD32VW55x_RELEASE_V1.0.2/MSDK/cloud/alicloud/src/services/dev_bind\awss_notify.c ****     awss_notify_resp[AWSS_NOTIFY_SUCCESS] = 0;
 578:C:/Users/stapi/OneDrive/Desktop/GD32VW553/V1_MQTT_OK/GD32VW55X_Wifi_BLE_SDK/GD32VW55x_RELEASE_V1.0.2/MSDK/cloud/alicloud/src/services/dev_bind\awss_notify.c ****     suc_interval = 0;
 579:C:/Users/stapi/OneDrive/Desktop/GD32VW553/V1_MQTT_OK/GD32VW55X_Wifi_BLE_SDK/GD32VW55x_RELEASE_V1.0.2/MSDK/cloud/alicloud/src/services/dev_bind\awss_notify.c ****     suc_cnt = 0;
 580:C:/Users/stapi/OneDrive/Desktop/GD32VW553/V1_MQTT_OK/GD32VW55X_Wifi_BLE_SDK/GD32VW55x_RELEASE_V1.0.2/MSDK/cloud/alicloud/src/services/dev_bind\awss_notify.c ****     if (success_notify_timer) {
 581:C:/Users/stapi/OneDrive/Desktop/GD32VW553/V1_MQTT_OK/GD32VW55X_Wifi_BLE_SDK/GD32VW55x_RELEASE_V1.0.2/MSDK/cloud/alicloud/src/services/dev_bind\awss_notify.c ****         awss_stop_timer(success_notify_timer);
 582:C:/Users/stapi/OneDrive/Desktop/GD32VW553/V1_MQTT_OK/GD32VW55X_Wifi_BLE_SDK/GD32VW55x_RELEASE_V1.0.2/MSDK/cloud/alicloud/src/services/dev_bind\awss_notify.c ****         success_notify_timer = NULL;
 583:C:/Users/stapi/OneDrive/Desktop/GD32VW553/V1_MQTT_OK/GD32VW55X_Wifi_BLE_SDK/GD32VW55x_RELEASE_V1.0.2/MSDK/cloud/alicloud/src/services/dev_bind\awss_notify.c ****     }
 584:C:/Users/stapi/OneDrive/Desktop/GD32VW553/V1_MQTT_OK/GD32VW55X_Wifi_BLE_SDK/GD32VW55x_RELEASE_V1.0.2/MSDK/cloud/alicloud/src/services/dev_bind\awss_notify.c **** 
 585:C:/Users/stapi/OneDrive/Desktop/GD32VW553/V1_MQTT_OK/GD32VW55X_Wifi_BLE_SDK/GD32VW55x_RELEASE_V1.0.2/MSDK/cloud/alicloud/src/services/dev_bind\awss_notify.c ****     if (success_notify_mutex) {
 586:C:/Users/stapi/OneDrive/Desktop/GD32VW553/V1_MQTT_OK/GD32VW55X_Wifi_BLE_SDK/GD32VW55x_RELEASE_V1.0.2/MSDK/cloud/alicloud/src/services/dev_bind\awss_notify.c ****         HAL_MutexUnlock(success_notify_mutex);
 587:C:/Users/stapi/OneDrive/Desktop/GD32VW553/V1_MQTT_OK/GD32VW55X_Wifi_BLE_SDK/GD32VW55x_RELEASE_V1.0.2/MSDK/cloud/alicloud/src/services/dev_bind\awss_notify.c ****         HAL_MutexDestroy(success_notify_mutex);
 588:C:/Users/stapi/OneDrive/Desktop/GD32VW553/V1_MQTT_OK/GD32VW55X_Wifi_BLE_SDK/GD32VW55x_RELEASE_V1.0.2/MSDK/cloud/alicloud/src/services/dev_bind\awss_notify.c ****         success_notify_mutex = NULL;
 589:C:/Users/stapi/OneDrive/Desktop/GD32VW553/V1_MQTT_OK/GD32VW55X_Wifi_BLE_SDK/GD32VW55x_RELEASE_V1.0.2/MSDK/cloud/alicloud/src/services/dev_bind\awss_notify.c ****     }
 590:C:/Users/stapi/OneDrive/Desktop/GD32VW553/V1_MQTT_OK/GD32VW55X_Wifi_BLE_SDK/GD32VW55x_RELEASE_V1.0.2/MSDK/cloud/alicloud/src/services/dev_bind\awss_notify.c ****     return 1;
 591:C:/Users/stapi/OneDrive/Desktop/GD32VW553/V1_MQTT_OK/GD32VW55X_Wifi_BLE_SDK/GD32VW55x_RELEASE_V1.0.2/MSDK/cloud/alicloud/src/services/dev_bind\awss_notify.c **** }
 2049              		.loc 1 591 1
 2050 0116 2685     		mv	a0,s1
 2051 0118 17030000 		tail	__riscv_restore_6
 2051      67000300 
 2052              		.cfi_remember_state
 2053              		.cfi_restore 21
 2054              		.cfi_restore 20
 2055              		.cfi_restore 19
 2056              		.cfi_restore 18
 2057              		.cfi_restore 9
 2058              		.cfi_restore 8
 2059              		.cfi_restore 1
 2060              		.cfi_def_cfa_offset 0
 2061              	.L142:
 2062              		.cfi_restore_state
 568:C:/Users/stapi/OneDrive/Desktop/GD32VW553/V1_MQTT_OK/GD32VW55X_Wifi_BLE_SDK/GD32VW55x_RELEASE_V1.0.2/MSDK/cloud/alicloud/src/services/dev_bind\awss_notify.c **** 
 2063              		.loc 1 568 13 is_stmt 1
 570:C:/Users/stapi/OneDrive/Desktop/GD32VW553/V1_MQTT_OK/GD32VW55X_Wifi_BLE_SDK/GD32VW55x_RELEASE_V1.0.2/MSDK/cloud/alicloud/src/services/dev_bind\awss_notify.c ****         dump_awss_status(STATE_WIFI_SENT_CONNECTAP_NOTI_TIMEOUT, "__awss_suc_notify %d timeout", su
 2064              		.loc 1 570 5
 570:C:/Users/stapi/OneDrive/Desktop/GD32VW553/V1_MQTT_OK/GD32VW55X_Wifi_BLE_SDK/GD32VW55x_RELEASE_V1.0.2/MSDK/cloud/alicloud/src/services/dev_bind\awss_notify.c ****         dump_awss_status(STATE_WIFI_SENT_CONNECTAP_NOTI_TIMEOUT, "__awss_suc_notify %d timeout", su
 2065              		.loc 1 570 8 is_stmt 0
 2066 0120 81EF     		bne	a5,zero,.L146
 571:C:/Users/stapi/OneDrive/Desktop/GD32VW553/V1_MQTT_OK/GD32VW55X_Wifi_BLE_SDK/GD32VW55x_RELEASE_V1.0.2/MSDK/cloud/alicloud/src/services/dev_bind\awss_notify.c ****     }
 2067              		.loc 1 571 9 is_stmt 1
 2068 0122 37060000 		lui	a2,%hi(.LC39)
 2069 0126 13060600 		addi	a2,a2,%lo(.LC39)
 2070 012a 930500BA 		li	a1,-1120
 2071 012e 6D45     		li	a0,27
 2072 0130 97000000 		call	iotx_state_event
 2072      E7800000 
 2073              	.LVL214:
 2074              	.L146:
 574:C:/Users/stapi/OneDrive/Desktop/GD32VW553/V1_MQTT_OK/GD32VW55X_Wifi_BLE_SDK/GD32VW55x_RELEASE_V1.0.2/MSDK/cloud/alicloud/src/services/dev_bind\awss_notify.c ****     g_notify_msg_id[AWSS_NOTIFY_SUCCESS] = 0;
 2075              		.loc 1 574 5
 2076 0138 B70A0000 		lui	s5,%hi(.LANCHOR9)
 2077 013c 938A0A00 		addi	s5,s5,%lo(.LANCHOR9)
 2078 0140 03D56A00 		lhu	a0,6(s5)
 2079 0144 97000000 		call	awss_cmp_coap_cancel_packet
 2079      E7800000 
 2080              	.LVL215:
 575:C:/Users/stapi/OneDrive/Desktop/GD32VW553/V1_MQTT_OK/GD32VW55X_Wifi_BLE_SDK/GD32VW55x_RELEASE_V1.0.2/MSDK/cloud/alicloud/src/services/dev_bind\awss_notify.c **** 
 2081              		.loc 1 575 5
 580:C:/Users/stapi/OneDrive/Desktop/GD32VW553/V1_MQTT_OK/GD32VW55X_Wifi_BLE_SDK/GD32VW55x_RELEASE_V1.0.2/MSDK/cloud/alicloud/src/services/dev_bind\awss_notify.c ****         awss_stop_timer(success_notify_timer);
 2082              		.loc 1 580 9 is_stmt 0
 2083 014c 8840     		lw	a0,0(s1)
 575:C:/Users/stapi/OneDrive/Desktop/GD32VW553/V1_MQTT_OK/GD32VW55X_Wifi_BLE_SDK/GD32VW55x_RELEASE_V1.0.2/MSDK/cloud/alicloud/src/services/dev_bind\awss_notify.c **** 
 2084              		.loc 1 575 42
 2085 014e 23930A00 		sh	zero,6(s5)
 577:C:/Users/stapi/OneDrive/Desktop/GD32VW553/V1_MQTT_OK/GD32VW55X_Wifi_BLE_SDK/GD32VW55x_RELEASE_V1.0.2/MSDK/cloud/alicloud/src/services/dev_bind\awss_notify.c ****     suc_interval = 0;
 2086              		.loc 1 577 5 is_stmt 1
 577:C:/Users/stapi/OneDrive/Desktop/GD32VW553/V1_MQTT_OK/GD32VW55X_Wifi_BLE_SDK/GD32VW55x_RELEASE_V1.0.2/MSDK/cloud/alicloud/src/services/dev_bind\awss_notify.c ****     suc_interval = 0;
 2087              		.loc 1 577 43 is_stmt 0
 2088 0152 A3010A00 		sb	zero,3(s4)
 578:C:/Users/stapi/OneDrive/Desktop/GD32VW553/V1_MQTT_OK/GD32VW55X_Wifi_BLE_SDK/GD32VW55x_RELEASE_V1.0.2/MSDK/cloud/alicloud/src/services/dev_bind\awss_notify.c ****     suc_cnt = 0;
 2089              		.loc 1 578 5 is_stmt 1
 578:C:/Users/stapi/OneDrive/Desktop/GD32VW553/V1_MQTT_OK/GD32VW55X_Wifi_BLE_SDK/GD32VW55x_RELEASE_V1.0.2/MSDK/cloud/alicloud/src/services/dev_bind\awss_notify.c ****     suc_cnt = 0;
 2090              		.loc 1 578 18 is_stmt 0
 2091 0156 23A00900 		sw	zero,0(s3)
 579:C:/Users/stapi/OneDrive/Desktop/GD32VW553/V1_MQTT_OK/GD32VW55X_Wifi_BLE_SDK/GD32VW55x_RELEASE_V1.0.2/MSDK/cloud/alicloud/src/services/dev_bind\awss_notify.c ****     if (success_notify_timer) {
 2092              		.loc 1 579 5 is_stmt 1
 579:C:/Users/stapi/OneDrive/Desktop/GD32VW553/V1_MQTT_OK/GD32VW55X_Wifi_BLE_SDK/GD32VW55x_RELEASE_V1.0.2/MSDK/cloud/alicloud/src/services/dev_bind\awss_notify.c ****     if (success_notify_timer) {
 2093              		.loc 1 579 13 is_stmt 0
 2094 015a 23000900 		sb	zero,0(s2)
 580:C:/Users/stapi/OneDrive/Desktop/GD32VW553/V1_MQTT_OK/GD32VW55X_Wifi_BLE_SDK/GD32VW55x_RELEASE_V1.0.2/MSDK/cloud/alicloud/src/services/dev_bind\awss_notify.c ****         awss_stop_timer(success_notify_timer);
 2095              		.loc 1 580 5 is_stmt 1
 580:C:/Users/stapi/OneDrive/Desktop/GD32VW553/V1_MQTT_OK/GD32VW55X_Wifi_BLE_SDK/GD32VW55x_RELEASE_V1.0.2/MSDK/cloud/alicloud/src/services/dev_bind\awss_notify.c ****         awss_stop_timer(success_notify_timer);
 2096              		.loc 1 580 8 is_stmt 0
 2097 015e 19C5     		beq	a0,zero,.L145
 581:C:/Users/stapi/OneDrive/Desktop/GD32VW553/V1_MQTT_OK/GD32VW55X_Wifi_BLE_SDK/GD32VW55x_RELEASE_V1.0.2/MSDK/cloud/alicloud/src/services/dev_bind\awss_notify.c ****         success_notify_timer = NULL;
 2098              		.loc 1 581 9 is_stmt 1
 2099 0160 97000000 		call	awss_stop_timer
 2099      E7800000 
 2100              	.LVL216:
 582:C:/Users/stapi/OneDrive/Desktop/GD32VW553/V1_MQTT_OK/GD32VW55X_Wifi_BLE_SDK/GD32VW55x_RELEASE_V1.0.2/MSDK/cloud/alicloud/src/services/dev_bind\awss_notify.c ****     }
 2101              		.loc 1 582 9
 582:C:/Users/stapi/OneDrive/Desktop/GD32VW553/V1_MQTT_OK/GD32VW55X_Wifi_BLE_SDK/GD32VW55x_RELEASE_V1.0.2/MSDK/cloud/alicloud/src/services/dev_bind\awss_notify.c ****     }
 2102              		.loc 1 582 30 is_stmt 0
 2103 0168 23A00400 		sw	zero,0(s1)
 2104              	.L145:
 585:C:/Users/stapi/OneDrive/Desktop/GD32VW553/V1_MQTT_OK/GD32VW55X_Wifi_BLE_SDK/GD32VW55x_RELEASE_V1.0.2/MSDK/cloud/alicloud/src/services/dev_bind\awss_notify.c ****         HAL_MutexUnlock(success_notify_mutex);
 2105              		.loc 1 585 5 is_stmt 1
 585:C:/Users/stapi/OneDrive/Desktop/GD32VW553/V1_MQTT_OK/GD32VW55X_Wifi_BLE_SDK/GD32VW55x_RELEASE_V1.0.2/MSDK/cloud/alicloud/src/services/dev_bind\awss_notify.c ****         HAL_MutexUnlock(success_notify_mutex);
 2106              		.loc 1 585 9 is_stmt 0
 2107 016c 0840     		lw	a0,0(s0)
 590:C:/Users/stapi/OneDrive/Desktop/GD32VW553/V1_MQTT_OK/GD32VW55X_Wifi_BLE_SDK/GD32VW55x_RELEASE_V1.0.2/MSDK/cloud/alicloud/src/services/dev_bind\awss_notify.c **** }
 2108              		.loc 1 590 12
 2109 016e 8544     		li	s1,1
 585:C:/Users/stapi/OneDrive/Desktop/GD32VW553/V1_MQTT_OK/GD32VW55X_Wifi_BLE_SDK/GD32VW55x_RELEASE_V1.0.2/MSDK/cloud/alicloud/src/services/dev_bind\awss_notify.c ****         HAL_MutexUnlock(success_notify_mutex);
 2110              		.loc 1 585 8
 2111 0170 5DD1     		beq	a0,zero,.L135
 586:C:/Users/stapi/OneDrive/Desktop/GD32VW553/V1_MQTT_OK/GD32VW55X_Wifi_BLE_SDK/GD32VW55x_RELEASE_V1.0.2/MSDK/cloud/alicloud/src/services/dev_bind\awss_notify.c ****         HAL_MutexDestroy(success_notify_mutex);
 2112              		.loc 1 586 9 is_stmt 1
 2113 0172 97000000 		call	HAL_MutexUnlock
 2113      E7800000 
 2114              	.LVL217:
 587:C:/Users/stapi/OneDrive/Desktop/GD32VW553/V1_MQTT_OK/GD32VW55X_Wifi_BLE_SDK/GD32VW55x_RELEASE_V1.0.2/MSDK/cloud/alicloud/src/services/dev_bind\awss_notify.c ****         success_notify_mutex = NULL;
 2115              		.loc 1 587 9
 2116 017a 0840     		lw	a0,0(s0)
 2117 017c 97000000 		call	HAL_MutexDestroy
 2117      E7800000 
 2118              	.LVL218:
 588:C:/Users/stapi/OneDrive/Desktop/GD32VW553/V1_MQTT_OK/GD32VW55X_Wifi_BLE_SDK/GD32VW55x_RELEASE_V1.0.2/MSDK/cloud/alicloud/src/services/dev_bind\awss_notify.c ****     }
 2119              		.loc 1 588 9
 588:C:/Users/stapi/OneDrive/Desktop/GD32VW553/V1_MQTT_OK/GD32VW55X_Wifi_BLE_SDK/GD32VW55x_RELEASE_V1.0.2/MSDK/cloud/alicloud/src/services/dev_bind\awss_notify.c ****     }
 2120              		.loc 1 588 30 is_stmt 0
 2121 0184 23200400 		sw	zero,0(s0)
 2122 0188 79B7     		j	.L135
 2123              		.cfi_endproc
 2124              	.LFE76:
 2126              		.section	.rodata.__awss_devinfo_notify.str1.4,"aMS",@progbits,1
 2127              		.align	2
 2128              	.LC40:
 2129 0000 64657669 		.string	"devinfo"
 2129      6E666F00 
 2130              		.section	.text.__awss_devinfo_notify,"ax",@progbits
 2131              		.align	1
 2133              	__awss_devinfo_notify:
 2134              	.LFB79:
 592:C:/Users/stapi/OneDrive/Desktop/GD32VW553/V1_MQTT_OK/GD32VW55X_Wifi_BLE_SDK/GD32VW55x_RELEASE_V1.0.2/MSDK/cloud/alicloud/src/services/dev_bind\awss_notify.c **** 
 593:C:/Users/stapi/OneDrive/Desktop/GD32VW553/V1_MQTT_OK/GD32VW55X_Wifi_BLE_SDK/GD32VW55x_RELEASE_V1.0.2/MSDK/cloud/alicloud/src/services/dev_bind\awss_notify.c **** int awss_suc_notify()
 594:C:/Users/stapi/OneDrive/Desktop/GD32VW553/V1_MQTT_OK/GD32VW55X_Wifi_BLE_SDK/GD32VW55x_RELEASE_V1.0.2/MSDK/cloud/alicloud/src/services/dev_bind\awss_notify.c **** {
 595:C:/Users/stapi/OneDrive/Desktop/GD32VW553/V1_MQTT_OK/GD32VW55X_Wifi_BLE_SDK/GD32VW55x_RELEASE_V1.0.2/MSDK/cloud/alicloud/src/services/dev_bind\awss_notify.c ****     suc_cnt = 0;
 596:C:/Users/stapi/OneDrive/Desktop/GD32VW553/V1_MQTT_OK/GD32VW55X_Wifi_BLE_SDK/GD32VW55x_RELEASE_V1.0.2/MSDK/cloud/alicloud/src/services/dev_bind\awss_notify.c ****     suc_interval = 0;
 597:C:/Users/stapi/OneDrive/Desktop/GD32VW553/V1_MQTT_OK/GD32VW55X_Wifi_BLE_SDK/GD32VW55x_RELEASE_V1.0.2/MSDK/cloud/alicloud/src/services/dev_bind\awss_notify.c ****     awss_notify_resp[AWSS_NOTIFY_SUCCESS] = 0;
 598:C:/Users/stapi/OneDrive/Desktop/GD32VW553/V1_MQTT_OK/GD32VW55X_Wifi_BLE_SDK/GD32VW55x_RELEASE_V1.0.2/MSDK/cloud/alicloud/src/services/dev_bind\awss_notify.c ****     return __awss_suc_notify();
 599:C:/Users/stapi/OneDrive/Desktop/GD32VW553/V1_MQTT_OK/GD32VW55X_Wifi_BLE_SDK/GD32VW55x_RELEASE_V1.0.2/MSDK/cloud/alicloud/src/services/dev_bind\awss_notify.c **** }
 600:C:/Users/stapi/OneDrive/Desktop/GD32VW553/V1_MQTT_OK/GD32VW55X_Wifi_BLE_SDK/GD32VW55x_RELEASE_V1.0.2/MSDK/cloud/alicloud/src/services/dev_bind\awss_notify.c **** 
 601:C:/Users/stapi/OneDrive/Desktop/GD32VW553/V1_MQTT_OK/GD32VW55X_Wifi_BLE_SDK/GD32VW55x_RELEASE_V1.0.2/MSDK/cloud/alicloud/src/services/dev_bind\awss_notify.c **** int awss_suc_notify_stop()
 602:C:/Users/stapi/OneDrive/Desktop/GD32VW553/V1_MQTT_OK/GD32VW55X_Wifi_BLE_SDK/GD32VW55x_RELEASE_V1.0.2/MSDK/cloud/alicloud/src/services/dev_bind\awss_notify.c **** {
 603:C:/Users/stapi/OneDrive/Desktop/GD32VW553/V1_MQTT_OK/GD32VW55X_Wifi_BLE_SDK/GD32VW55x_RELEASE_V1.0.2/MSDK/cloud/alicloud/src/services/dev_bind\awss_notify.c ****     if (success_notify_mutex)
 604:C:/Users/stapi/OneDrive/Desktop/GD32VW553/V1_MQTT_OK/GD32VW55X_Wifi_BLE_SDK/GD32VW55x_RELEASE_V1.0.2/MSDK/cloud/alicloud/src/services/dev_bind\awss_notify.c ****         HAL_MutexLock(success_notify_mutex);
 605:C:/Users/stapi/OneDrive/Desktop/GD32VW553/V1_MQTT_OK/GD32VW55X_Wifi_BLE_SDK/GD32VW55x_RELEASE_V1.0.2/MSDK/cloud/alicloud/src/services/dev_bind\awss_notify.c **** 
 606:C:/Users/stapi/OneDrive/Desktop/GD32VW553/V1_MQTT_OK/GD32VW55X_Wifi_BLE_SDK/GD32VW55x_RELEASE_V1.0.2/MSDK/cloud/alicloud/src/services/dev_bind\awss_notify.c ****     do {
 607:C:/Users/stapi/OneDrive/Desktop/GD32VW553/V1_MQTT_OK/GD32VW55X_Wifi_BLE_SDK/GD32VW55x_RELEASE_V1.0.2/MSDK/cloud/alicloud/src/services/dev_bind\awss_notify.c ****         awss_notify_resp[AWSS_NOTIFY_SUCCESS] = 1;
 608:C:/Users/stapi/OneDrive/Desktop/GD32VW553/V1_MQTT_OK/GD32VW55X_Wifi_BLE_SDK/GD32VW55x_RELEASE_V1.0.2/MSDK/cloud/alicloud/src/services/dev_bind\awss_notify.c ****         suc_cnt = AWSS_NOTIFY_CNT_MAX;
 609:C:/Users/stapi/OneDrive/Desktop/GD32VW553/V1_MQTT_OK/GD32VW55X_Wifi_BLE_SDK/GD32VW55x_RELEASE_V1.0.2/MSDK/cloud/alicloud/src/services/dev_bind\awss_notify.c ****         if (success_notify_timer == NULL)
 610:C:/Users/stapi/OneDrive/Desktop/GD32VW553/V1_MQTT_OK/GD32VW55X_Wifi_BLE_SDK/GD32VW55x_RELEASE_V1.0.2/MSDK/cloud/alicloud/src/services/dev_bind\awss_notify.c ****             break;
 611:C:/Users/stapi/OneDrive/Desktop/GD32VW553/V1_MQTT_OK/GD32VW55X_Wifi_BLE_SDK/GD32VW55x_RELEASE_V1.0.2/MSDK/cloud/alicloud/src/services/dev_bind\awss_notify.c **** 
 612:C:/Users/stapi/OneDrive/Desktop/GD32VW553/V1_MQTT_OK/GD32VW55X_Wifi_BLE_SDK/GD32VW55x_RELEASE_V1.0.2/MSDK/cloud/alicloud/src/services/dev_bind\awss_notify.c ****         awss_stop_timer(success_notify_timer);
 613:C:/Users/stapi/OneDrive/Desktop/GD32VW553/V1_MQTT_OK/GD32VW55X_Wifi_BLE_SDK/GD32VW55x_RELEASE_V1.0.2/MSDK/cloud/alicloud/src/services/dev_bind\awss_notify.c ****         success_notify_timer = NULL;
 614:C:/Users/stapi/OneDrive/Desktop/GD32VW553/V1_MQTT_OK/GD32VW55X_Wifi_BLE_SDK/GD32VW55x_RELEASE_V1.0.2/MSDK/cloud/alicloud/src/services/dev_bind\awss_notify.c ****     } while (0);
 615:C:/Users/stapi/OneDrive/Desktop/GD32VW553/V1_MQTT_OK/GD32VW55X_Wifi_BLE_SDK/GD32VW55x_RELEASE_V1.0.2/MSDK/cloud/alicloud/src/services/dev_bind\awss_notify.c **** 
 616:C:/Users/stapi/OneDrive/Desktop/GD32VW553/V1_MQTT_OK/GD32VW55X_Wifi_BLE_SDK/GD32VW55x_RELEASE_V1.0.2/MSDK/cloud/alicloud/src/services/dev_bind\awss_notify.c ****     awss_cmp_coap_cancel_packet(g_notify_msg_id[AWSS_NOTIFY_SUCCESS]);
 617:C:/Users/stapi/OneDrive/Desktop/GD32VW553/V1_MQTT_OK/GD32VW55X_Wifi_BLE_SDK/GD32VW55x_RELEASE_V1.0.2/MSDK/cloud/alicloud/src/services/dev_bind\awss_notify.c ****     g_notify_msg_id[AWSS_NOTIFY_SUCCESS] = 0;
 618:C:/Users/stapi/OneDrive/Desktop/GD32VW553/V1_MQTT_OK/GD32VW55X_Wifi_BLE_SDK/GD32VW55x_RELEASE_V1.0.2/MSDK/cloud/alicloud/src/services/dev_bind\awss_notify.c **** 
 619:C:/Users/stapi/OneDrive/Desktop/GD32VW553/V1_MQTT_OK/GD32VW55X_Wifi_BLE_SDK/GD32VW55x_RELEASE_V1.0.2/MSDK/cloud/alicloud/src/services/dev_bind\awss_notify.c ****     if (success_notify_mutex) {
 620:C:/Users/stapi/OneDrive/Desktop/GD32VW553/V1_MQTT_OK/GD32VW55X_Wifi_BLE_SDK/GD32VW55x_RELEASE_V1.0.2/MSDK/cloud/alicloud/src/services/dev_bind\awss_notify.c ****         HAL_MutexUnlock(success_notify_mutex);
 621:C:/Users/stapi/OneDrive/Desktop/GD32VW553/V1_MQTT_OK/GD32VW55X_Wifi_BLE_SDK/GD32VW55x_RELEASE_V1.0.2/MSDK/cloud/alicloud/src/services/dev_bind\awss_notify.c ****         HAL_MutexDestroy(success_notify_mutex);
 622:C:/Users/stapi/OneDrive/Desktop/GD32VW553/V1_MQTT_OK/GD32VW55X_Wifi_BLE_SDK/GD32VW55x_RELEASE_V1.0.2/MSDK/cloud/alicloud/src/services/dev_bind\awss_notify.c ****         success_notify_mutex = NULL;
 623:C:/Users/stapi/OneDrive/Desktop/GD32VW553/V1_MQTT_OK/GD32VW55X_Wifi_BLE_SDK/GD32VW55x_RELEASE_V1.0.2/MSDK/cloud/alicloud/src/services/dev_bind\awss_notify.c ****     }
 624:C:/Users/stapi/OneDrive/Desktop/GD32VW553/V1_MQTT_OK/GD32VW55X_Wifi_BLE_SDK/GD32VW55x_RELEASE_V1.0.2/MSDK/cloud/alicloud/src/services/dev_bind\awss_notify.c ****     return 0;
 625:C:/Users/stapi/OneDrive/Desktop/GD32VW553/V1_MQTT_OK/GD32VW55X_Wifi_BLE_SDK/GD32VW55x_RELEASE_V1.0.2/MSDK/cloud/alicloud/src/services/dev_bind\awss_notify.c **** }
 626:C:/Users/stapi/OneDrive/Desktop/GD32VW553/V1_MQTT_OK/GD32VW55X_Wifi_BLE_SDK/GD32VW55x_RELEASE_V1.0.2/MSDK/cloud/alicloud/src/services/dev_bind\awss_notify.c **** 
 627:C:/Users/stapi/OneDrive/Desktop/GD32VW553/V1_MQTT_OK/GD32VW55X_Wifi_BLE_SDK/GD32VW55x_RELEASE_V1.0.2/MSDK/cloud/alicloud/src/services/dev_bind\awss_notify.c **** 
 628:C:/Users/stapi/OneDrive/Desktop/GD32VW553/V1_MQTT_OK/GD32VW55X_Wifi_BLE_SDK/GD32VW55x_RELEASE_V1.0.2/MSDK/cloud/alicloud/src/services/dev_bind\awss_notify.c **** static int devinfo_interval = 0;
 629:C:/Users/stapi/OneDrive/Desktop/GD32VW553/V1_MQTT_OK/GD32VW55X_Wifi_BLE_SDK/GD32VW55x_RELEASE_V1.0.2/MSDK/cloud/alicloud/src/services/dev_bind\awss_notify.c **** static char devinfo_cnt = 0;
 630:C:/Users/stapi/OneDrive/Desktop/GD32VW553/V1_MQTT_OK/GD32VW55X_Wifi_BLE_SDK/GD32VW55x_RELEASE_V1.0.2/MSDK/cloud/alicloud/src/services/dev_bind\awss_notify.c **** static int __awss_devinfo_notify()
 631:C:/Users/stapi/OneDrive/Desktop/GD32VW553/V1_MQTT_OK/GD32VW55X_Wifi_BLE_SDK/GD32VW55x_RELEASE_V1.0.2/MSDK/cloud/alicloud/src/services/dev_bind\awss_notify.c **** {
 2135              		.loc 1 631 1 is_stmt 1
 2136              		.cfi_startproc
 2137 0000 17030000 		call	t0,__riscv_save_6
 2137      E7020300 
 2138              		.cfi_offset 21, -28
 2139              		.cfi_offset 20, -24
 2140              		.cfi_offset 19, -20
 2141              		.cfi_offset 18, -16
 2142              		.cfi_offset 9, -12
 2143              		.cfi_offset 8, -8
 2144              		.cfi_offset 1, -4
 2145              		.cfi_def_cfa_offset 32
 632:C:/Users/stapi/OneDrive/Desktop/GD32VW553/V1_MQTT_OK/GD32VW55X_Wifi_BLE_SDK/GD32VW55x_RELEASE_V1.0.2/MSDK/cloud/alicloud/src/services/dev_bind\awss_notify.c ****     if (devinfo_notify_mutex == NULL) {
 2146              		.loc 1 632 5
 2147              		.loc 1 632 30 is_stmt 0
 2148 0008 37040000 		lui	s0,%hi(.LANCHOR20)
 2149 000c 93040400 		addi	s1,s0,%lo(.LANCHOR20)
 2150              		.loc 1 632 8
 2151 0010 9C40     		lw	a5,0(s1)
 2152 0012 13040400 		addi	s0,s0,%lo(.LANCHOR20)
 2153 0016 D5C7     		beq	a5,zero,.L155
 2154              	.L159:
 633:C:/Users/stapi/OneDrive/Desktop/GD32VW553/V1_MQTT_OK/GD32VW55X_Wifi_BLE_SDK/GD32VW55x_RELEASE_V1.0.2/MSDK/cloud/alicloud/src/services/dev_bind\awss_notify.c ****         devinfo_notify_mutex = HAL_MutexCreate();
 634:C:/Users/stapi/OneDrive/Desktop/GD32VW553/V1_MQTT_OK/GD32VW55X_Wifi_BLE_SDK/GD32VW55x_RELEASE_V1.0.2/MSDK/cloud/alicloud/src/services/dev_bind\awss_notify.c ****         if (devinfo_notify_mutex == NULL) {
 635:C:/Users/stapi/OneDrive/Desktop/GD32VW553/V1_MQTT_OK/GD32VW55X_Wifi_BLE_SDK/GD32VW55x_RELEASE_V1.0.2/MSDK/cloud/alicloud/src/services/dev_bind\awss_notify.c ****             return STATE_SYS_DEPEND_MUTEX_CREATE;
 636:C:/Users/stapi/OneDrive/Desktop/GD32VW553/V1_MQTT_OK/GD32VW55X_Wifi_BLE_SDK/GD32VW55x_RELEASE_V1.0.2/MSDK/cloud/alicloud/src/services/dev_bind\awss_notify.c ****         }
 637:C:/Users/stapi/OneDrive/Desktop/GD32VW553/V1_MQTT_OK/GD32VW55X_Wifi_BLE_SDK/GD32VW55x_RELEASE_V1.0.2/MSDK/cloud/alicloud/src/services/dev_bind\awss_notify.c ****     }
 638:C:/Users/stapi/OneDrive/Desktop/GD32VW553/V1_MQTT_OK/GD32VW55X_Wifi_BLE_SDK/GD32VW55x_RELEASE_V1.0.2/MSDK/cloud/alicloud/src/services/dev_bind\awss_notify.c ****     HAL_MutexLock(devinfo_notify_mutex);
 2155              		.loc 1 638 5 is_stmt 1
 2156 0018 0840     		lw	a0,0(s0)
 2157 001a 37090000 		lui	s2,%hi(.LANCHOR21)
 2158 001e B7090000 		lui	s3,%hi(.LANCHOR22)
 2159 0022 97000000 		call	HAL_MutexLock
 2159      E7800000 
 2160              	.LVL219:
 639:C:/Users/stapi/OneDrive/Desktop/GD32VW553/V1_MQTT_OK/GD32VW55X_Wifi_BLE_SDK/GD32VW55x_RELEASE_V1.0.2/MSDK/cloud/alicloud/src/services/dev_bind\awss_notify.c **** 
 640:C:/Users/stapi/OneDrive/Desktop/GD32VW553/V1_MQTT_OK/GD32VW55X_Wifi_BLE_SDK/GD32VW55x_RELEASE_V1.0.2/MSDK/cloud/alicloud/src/services/dev_bind\awss_notify.c ****     do {
 2161              		.loc 1 640 5
 641:C:/Users/stapi/OneDrive/Desktop/GD32VW553/V1_MQTT_OK/GD32VW55X_Wifi_BLE_SDK/GD32VW55x_RELEASE_V1.0.2/MSDK/cloud/alicloud/src/services/dev_bind\awss_notify.c ****         if (awss_notify_resp[AWSS_NOTIFY_DEV_RAND_SIGN] != 0)
 2162              		.loc 1 641 9
 2163              		.loc 1 641 29 is_stmt 0
 2164 002a B7070000 		lui	a5,%hi(.LANCHOR3)
 2165 002e 138A0700 		addi	s4,a5,%lo(.LANCHOR3)
 2166 0032 B7040000 		lui	s1,%hi(.LANCHOR23)
 2167 0036 938A0700 		addi	s5,a5,%lo(.LANCHOR3)
 2168 003a 13090900 		addi	s2,s2,%lo(.LANCHOR21)
 2169 003e 93890900 		addi	s3,s3,%lo(.LANCHOR22)
 2170 0042 93840400 		addi	s1,s1,%lo(.LANCHOR23)
 2171              		.loc 1 641 12
 2172 0046 03072A00 		lb	a4,2(s4)
 2173 004a 49EB     		bne	a4,zero,.L156
 642:C:/Users/stapi/OneDrive/Desktop/GD32VW553/V1_MQTT_OK/GD32VW55X_Wifi_BLE_SDK/GD32VW55x_RELEASE_V1.0.2/MSDK/cloud/alicloud/src/services/dev_bind\awss_notify.c ****             break;
 643:C:/Users/stapi/OneDrive/Desktop/GD32VW553/V1_MQTT_OK/GD32VW55X_Wifi_BLE_SDK/GD32VW55x_RELEASE_V1.0.2/MSDK/cloud/alicloud/src/services/dev_bind\awss_notify.c **** 
 644:C:/Users/stapi/OneDrive/Desktop/GD32VW553/V1_MQTT_OK/GD32VW55X_Wifi_BLE_SDK/GD32VW55x_RELEASE_V1.0.2/MSDK/cloud/alicloud/src/services/dev_bind\awss_notify.c ****         awss_notify_dev_info(AWSS_NOTIFY_DEV_RAND_SIGN, 1);
 2174              		.loc 1 644 9 is_stmt 1
 2175 004c 8545     		li	a1,1
 2176 004e 0945     		li	a0,2
 2177 0050 97000000 		call	awss_notify_dev_info
 2177      E7800000 
 2178              	.LVL220:
 645:C:/Users/stapi/OneDrive/Desktop/GD32VW553/V1_MQTT_OK/GD32VW55X_Wifi_BLE_SDK/GD32VW55x_RELEASE_V1.0.2/MSDK/cloud/alicloud/src/services/dev_bind\awss_notify.c **** 
 646:C:/Users/stapi/OneDrive/Desktop/GD32VW553/V1_MQTT_OK/GD32VW55X_Wifi_BLE_SDK/GD32VW55x_RELEASE_V1.0.2/MSDK/cloud/alicloud/src/services/dev_bind\awss_notify.c ****         devinfo_interval += 100;
 2179              		.loc 1 646 9
 2180              		.loc 1 646 26 is_stmt 0
 2181 0058 83270900 		lw	a5,0(s2)
 2182 005c 93874706 		addi	a5,a5,100
 2183 0060 2320F900 		sw	a5,0(s2)
 647:C:/Users/stapi/OneDrive/Desktop/GD32VW553/V1_MQTT_OK/GD32VW55X_Wifi_BLE_SDK/GD32VW55x_RELEASE_V1.0.2/MSDK/cloud/alicloud/src/services/dev_bind\awss_notify.c ****         if (devinfo_cnt ++ < AWSS_NOTIFY_CNT_MAX &&
 2184              		.loc 1 647 9 is_stmt 1
 2185              		.loc 1 647 25 is_stmt 0
 2186 0064 83870900 		lb	a5,0(s3)
 2187 0068 13871700 		addi	a4,a5,1
 2188 006c 2380E900 		sb	a4,0(s3)
 2189              		.loc 1 647 12
 2190 0070 7547     		li	a4,29
 2191 0072 6345F706 		bgt	a5,a4,.L156
 2192              		.loc 1 647 50 discriminator 1
 2193 0076 83072A00 		lb	a5,2(s4)
 2194 007a ADE3     		bne	a5,zero,.L156
 648:C:/Users/stapi/OneDrive/Desktop/GD32VW553/V1_MQTT_OK/GD32VW55X_Wifi_BLE_SDK/GD32VW55x_RELEASE_V1.0.2/MSDK/cloud/alicloud/src/services/dev_bind\awss_notify.c ****             awss_notify_resp[AWSS_NOTIFY_DEV_RAND_SIGN] == 0) {
 649:C:/Users/stapi/OneDrive/Desktop/GD32VW553/V1_MQTT_OK/GD32VW55X_Wifi_BLE_SDK/GD32VW55x_RELEASE_V1.0.2/MSDK/cloud/alicloud/src/services/dev_bind\awss_notify.c ****             if (devinfo_notify_timer == NULL)
 2195              		.loc 1 649 13 is_stmt 1
 2196              		.loc 1 649 16 is_stmt 0
 2197 007c 9C40     		lw	a5,0(s1)
 2198 007e 99EF     		bne	a5,zero,.L160
 650:C:/Users/stapi/OneDrive/Desktop/GD32VW553/V1_MQTT_OK/GD32VW55X_Wifi_BLE_SDK/GD32VW55x_RELEASE_V1.0.2/MSDK/cloud/alicloud/src/services/dev_bind\awss_notify.c ****                 devinfo_notify_timer = HAL_Timer_Create("devinfo", (void (*)(void *))__awss_devinfo
 2199              		.loc 1 650 17 is_stmt 1
 2200              		.loc 1 650 40 is_stmt 0
 2201 0080 B7050000 		lui	a1,%hi(__awss_devinfo_notify)
 2202 0084 37050000 		lui	a0,%hi(.LC40)
 2203 0088 0146     		li	a2,0
 2204 008a 93850500 		addi	a1,a1,%lo(__awss_devinfo_notify)
 2205 008e 13050500 		addi	a0,a0,%lo(.LC40)
 2206 0092 97000000 		call	HAL_Timer_Create
 2206      E7800000 
 2207              	.LVL221:
 2208              		.loc 1 650 38
 2209 009a 88C0     		sw	a0,0(s1)
 2210              	.L160:
 651:C:/Users/stapi/OneDrive/Desktop/GD32VW553/V1_MQTT_OK/GD32VW55X_Wifi_BLE_SDK/GD32VW55x_RELEASE_V1.0.2/MSDK/cloud/alicloud/src/services/dev_bind\awss_notify.c ****             HAL_Timer_Stop(devinfo_notify_timer);
 2211              		.loc 1 651 13 is_stmt 1
 2212 009c 8840     		lw	a0,0(s1)
 2213 009e 97000000 		call	HAL_Timer_Stop
 2213      E7800000 
 2214              	.LVL222:
 652:C:/Users/stapi/OneDrive/Desktop/GD32VW553/V1_MQTT_OK/GD32VW55X_Wifi_BLE_SDK/GD32VW55x_RELEASE_V1.0.2/MSDK/cloud/alicloud/src/services/dev_bind\awss_notify.c ****             HAL_Timer_Start(devinfo_notify_timer, devinfo_interval);
 2215              		.loc 1 652 13
 2216 00a6 83250900 		lw	a1,0(s2)
 2217 00aa 8840     		lw	a0,0(s1)
 653:C:/Users/stapi/OneDrive/Desktop/GD32VW553/V1_MQTT_OK/GD32VW55X_Wifi_BLE_SDK/GD32VW55x_RELEASE_V1.0.2/MSDK/cloud/alicloud/src/services/dev_bind\awss_notify.c ****             HAL_MutexUnlock(devinfo_notify_mutex);
 654:C:/Users/stapi/OneDrive/Desktop/GD32VW553/V1_MQTT_OK/GD32VW55X_Wifi_BLE_SDK/GD32VW55x_RELEASE_V1.0.2/MSDK/cloud/alicloud/src/services/dev_bind\awss_notify.c ****             return 0;
 2218              		.loc 1 654 20 is_stmt 0
 2219 00ac 8144     		li	s1,0
 652:C:/Users/stapi/OneDrive/Desktop/GD32VW553/V1_MQTT_OK/GD32VW55X_Wifi_BLE_SDK/GD32VW55x_RELEASE_V1.0.2/MSDK/cloud/alicloud/src/services/dev_bind\awss_notify.c ****             HAL_Timer_Start(devinfo_notify_timer, devinfo_interval);
 2220              		.loc 1 652 13
 2221 00ae 97000000 		call	HAL_Timer_Start
 2221      E7800000 
 2222              	.LVL223:
 653:C:/Users/stapi/OneDrive/Desktop/GD32VW553/V1_MQTT_OK/GD32VW55X_Wifi_BLE_SDK/GD32VW55x_RELEASE_V1.0.2/MSDK/cloud/alicloud/src/services/dev_bind\awss_notify.c ****             HAL_MutexUnlock(devinfo_notify_mutex);
 2223              		.loc 1 653 13 is_stmt 1
 2224 00b6 0840     		lw	a0,0(s0)
 2225 00b8 97000000 		call	HAL_MutexUnlock
 2225      E7800000 
 2226              	.LVL224:
 2227              		.loc 1 654 13
 2228              		.loc 1 654 20 is_stmt 0
 2229 00c0 09A8     		j	.L154
 2230              	.L155:
 633:C:/Users/stapi/OneDrive/Desktop/GD32VW553/V1_MQTT_OK/GD32VW55X_Wifi_BLE_SDK/GD32VW55x_RELEASE_V1.0.2/MSDK/cloud/alicloud/src/services/dev_bind\awss_notify.c ****         if (devinfo_notify_mutex == NULL) {
 2231              		.loc 1 633 9 is_stmt 1
 633:C:/Users/stapi/OneDrive/Desktop/GD32VW553/V1_MQTT_OK/GD32VW55X_Wifi_BLE_SDK/GD32VW55x_RELEASE_V1.0.2/MSDK/cloud/alicloud/src/services/dev_bind\awss_notify.c ****         if (devinfo_notify_mutex == NULL) {
 2232              		.loc 1 633 32 is_stmt 0
 2233 00c2 97000000 		call	HAL_MutexCreate
 2233      E7800000 
 2234              	.LVL225:
 633:C:/Users/stapi/OneDrive/Desktop/GD32VW553/V1_MQTT_OK/GD32VW55X_Wifi_BLE_SDK/GD32VW55x_RELEASE_V1.0.2/MSDK/cloud/alicloud/src/services/dev_bind\awss_notify.c ****         if (devinfo_notify_mutex == NULL) {
 2235              		.loc 1 633 30
 2236 00ca 88C0     		sw	a0,0(s1)
 634:C:/Users/stapi/OneDrive/Desktop/GD32VW553/V1_MQTT_OK/GD32VW55X_Wifi_BLE_SDK/GD32VW55x_RELEASE_V1.0.2/MSDK/cloud/alicloud/src/services/dev_bind\awss_notify.c ****             return STATE_SYS_DEPEND_MUTEX_CREATE;
 2237              		.loc 1 634 9 is_stmt 1
 635:C:/Users/stapi/OneDrive/Desktop/GD32VW553/V1_MQTT_OK/GD32VW55X_Wifi_BLE_SDK/GD32VW55x_RELEASE_V1.0.2/MSDK/cloud/alicloud/src/services/dev_bind\awss_notify.c ****         }
 2238              		.loc 1 635 20 is_stmt 0
 2239 00cc 9304B0DF 		li	s1,-517
 634:C:/Users/stapi/OneDrive/Desktop/GD32VW553/V1_MQTT_OK/GD32VW55X_Wifi_BLE_SDK/GD32VW55x_RELEASE_V1.0.2/MSDK/cloud/alicloud/src/services/dev_bind\awss_notify.c ****             return STATE_SYS_DEPEND_MUTEX_CREATE;
 2240              		.loc 1 634 12
 2241 00d0 21F5     		bne	a0,zero,.L159
 2242              	.L154:
 655:C:/Users/stapi/OneDrive/Desktop/GD32VW553/V1_MQTT_OK/GD32VW55X_Wifi_BLE_SDK/GD32VW55x_RELEASE_V1.0.2/MSDK/cloud/alicloud/src/services/dev_bind\awss_notify.c ****         }
 656:C:/Users/stapi/OneDrive/Desktop/GD32VW553/V1_MQTT_OK/GD32VW55X_Wifi_BLE_SDK/GD32VW55x_RELEASE_V1.0.2/MSDK/cloud/alicloud/src/services/dev_bind\awss_notify.c ****     } while (0);
 657:C:/Users/stapi/OneDrive/Desktop/GD32VW553/V1_MQTT_OK/GD32VW55X_Wifi_BLE_SDK/GD32VW55x_RELEASE_V1.0.2/MSDK/cloud/alicloud/src/services/dev_bind\awss_notify.c **** 
 658:C:/Users/stapi/OneDrive/Desktop/GD32VW553/V1_MQTT_OK/GD32VW55X_Wifi_BLE_SDK/GD32VW55x_RELEASE_V1.0.2/MSDK/cloud/alicloud/src/services/dev_bind\awss_notify.c ****     awss_cmp_coap_cancel_packet(g_notify_msg_id[AWSS_NOTIFY_DEV_RAND_SIGN]);
 659:C:/Users/stapi/OneDrive/Desktop/GD32VW553/V1_MQTT_OK/GD32VW55X_Wifi_BLE_SDK/GD32VW55x_RELEASE_V1.0.2/MSDK/cloud/alicloud/src/services/dev_bind\awss_notify.c ****     g_notify_msg_id[AWSS_NOTIFY_DEV_RAND_SIGN] = 0;
 660:C:/Users/stapi/OneDrive/Desktop/GD32VW553/V1_MQTT_OK/GD32VW55X_Wifi_BLE_SDK/GD32VW55x_RELEASE_V1.0.2/MSDK/cloud/alicloud/src/services/dev_bind\awss_notify.c **** 
 661:C:/Users/stapi/OneDrive/Desktop/GD32VW553/V1_MQTT_OK/GD32VW55X_Wifi_BLE_SDK/GD32VW55x_RELEASE_V1.0.2/MSDK/cloud/alicloud/src/services/dev_bind\awss_notify.c ****     awss_notify_resp[AWSS_NOTIFY_DEV_RAND_SIGN] = 0;
 662:C:/Users/stapi/OneDrive/Desktop/GD32VW553/V1_MQTT_OK/GD32VW55X_Wifi_BLE_SDK/GD32VW55x_RELEASE_V1.0.2/MSDK/cloud/alicloud/src/services/dev_bind\awss_notify.c ****     devinfo_interval = 0;
 663:C:/Users/stapi/OneDrive/Desktop/GD32VW553/V1_MQTT_OK/GD32VW55X_Wifi_BLE_SDK/GD32VW55x_RELEASE_V1.0.2/MSDK/cloud/alicloud/src/services/dev_bind\awss_notify.c ****     devinfo_cnt = 0;
 664:C:/Users/stapi/OneDrive/Desktop/GD32VW553/V1_MQTT_OK/GD32VW55X_Wifi_BLE_SDK/GD32VW55x_RELEASE_V1.0.2/MSDK/cloud/alicloud/src/services/dev_bind\awss_notify.c ****     if (devinfo_notify_timer) {
 665:C:/Users/stapi/OneDrive/Desktop/GD32VW553/V1_MQTT_OK/GD32VW55X_Wifi_BLE_SDK/GD32VW55x_RELEASE_V1.0.2/MSDK/cloud/alicloud/src/services/dev_bind\awss_notify.c ****         awss_stop_timer(devinfo_notify_timer);
 666:C:/Users/stapi/OneDrive/Desktop/GD32VW553/V1_MQTT_OK/GD32VW55X_Wifi_BLE_SDK/GD32VW55x_RELEASE_V1.0.2/MSDK/cloud/alicloud/src/services/dev_bind\awss_notify.c ****         devinfo_notify_timer = NULL;
 667:C:/Users/stapi/OneDrive/Desktop/GD32VW553/V1_MQTT_OK/GD32VW55X_Wifi_BLE_SDK/GD32VW55x_RELEASE_V1.0.2/MSDK/cloud/alicloud/src/services/dev_bind\awss_notify.c ****     }
 668:C:/Users/stapi/OneDrive/Desktop/GD32VW553/V1_MQTT_OK/GD32VW55X_Wifi_BLE_SDK/GD32VW55x_RELEASE_V1.0.2/MSDK/cloud/alicloud/src/services/dev_bind\awss_notify.c ****     if (devinfo_notify_mutex) {
 669:C:/Users/stapi/OneDrive/Desktop/GD32VW553/V1_MQTT_OK/GD32VW55X_Wifi_BLE_SDK/GD32VW55x_RELEASE_V1.0.2/MSDK/cloud/alicloud/src/services/dev_bind\awss_notify.c ****         HAL_MutexUnlock(devinfo_notify_mutex);
 670:C:/Users/stapi/OneDrive/Desktop/GD32VW553/V1_MQTT_OK/GD32VW55X_Wifi_BLE_SDK/GD32VW55x_RELEASE_V1.0.2/MSDK/cloud/alicloud/src/services/dev_bind\awss_notify.c ****         HAL_MutexDestroy(devinfo_notify_mutex);
 671:C:/Users/stapi/OneDrive/Desktop/GD32VW553/V1_MQTT_OK/GD32VW55X_Wifi_BLE_SDK/GD32VW55x_RELEASE_V1.0.2/MSDK/cloud/alicloud/src/services/dev_bind\awss_notify.c ****         devinfo_notify_mutex = NULL;
 672:C:/Users/stapi/OneDrive/Desktop/GD32VW553/V1_MQTT_OK/GD32VW55X_Wifi_BLE_SDK/GD32VW55x_RELEASE_V1.0.2/MSDK/cloud/alicloud/src/services/dev_bind\awss_notify.c ****     }
 673:C:/Users/stapi/OneDrive/Desktop/GD32VW553/V1_MQTT_OK/GD32VW55X_Wifi_BLE_SDK/GD32VW55x_RELEASE_V1.0.2/MSDK/cloud/alicloud/src/services/dev_bind\awss_notify.c ****     return 1;
 674:C:/Users/stapi/OneDrive/Desktop/GD32VW553/V1_MQTT_OK/GD32VW55X_Wifi_BLE_SDK/GD32VW55x_RELEASE_V1.0.2/MSDK/cloud/alicloud/src/services/dev_bind\awss_notify.c **** }
 2243              		.loc 1 674 1
 2244 00d2 2685     		mv	a0,s1
 2245 00d4 17030000 		tail	__riscv_restore_6
 2245      67000300 
 2246              		.cfi_remember_state
 2247              		.cfi_restore 21
 2248              		.cfi_restore 20
 2249              		.cfi_restore 19
 2250              		.cfi_restore 18
 2251              		.cfi_restore 9
 2252              		.cfi_restore 8
 2253              		.cfi_restore 1
 2254              		.cfi_def_cfa_offset 0
 2255              	.L156:
 2256              		.cfi_restore_state
 656:C:/Users/stapi/OneDrive/Desktop/GD32VW553/V1_MQTT_OK/GD32VW55X_Wifi_BLE_SDK/GD32VW55x_RELEASE_V1.0.2/MSDK/cloud/alicloud/src/services/dev_bind\awss_notify.c **** 
 2257              		.loc 1 656 13 is_stmt 1
 658:C:/Users/stapi/OneDrive/Desktop/GD32VW553/V1_MQTT_OK/GD32VW55X_Wifi_BLE_SDK/GD32VW55x_RELEASE_V1.0.2/MSDK/cloud/alicloud/src/services/dev_bind\awss_notify.c ****     g_notify_msg_id[AWSS_NOTIFY_DEV_RAND_SIGN] = 0;
 2258              		.loc 1 658 5
 2259 00dc 370A0000 		lui	s4,%hi(.LANCHOR9)
 2260 00e0 130A0A00 		addi	s4,s4,%lo(.LANCHOR9)
 2261 00e4 03554A00 		lhu	a0,4(s4)
 2262 00e8 97000000 		call	awss_cmp_coap_cancel_packet
 2262      E7800000 
 2263              	.LVL226:
 659:C:/Users/stapi/OneDrive/Desktop/GD32VW553/V1_MQTT_OK/GD32VW55X_Wifi_BLE_SDK/GD32VW55x_RELEASE_V1.0.2/MSDK/cloud/alicloud/src/services/dev_bind\awss_notify.c **** 
 2264              		.loc 1 659 5
 664:C:/Users/stapi/OneDrive/Desktop/GD32VW553/V1_MQTT_OK/GD32VW55X_Wifi_BLE_SDK/GD32VW55x_RELEASE_V1.0.2/MSDK/cloud/alicloud/src/services/dev_bind\awss_notify.c ****         awss_stop_timer(devinfo_notify_timer);
 2265              		.loc 1 664 9 is_stmt 0
 2266 00f0 8840     		lw	a0,0(s1)
 659:C:/Users/stapi/OneDrive/Desktop/GD32VW553/V1_MQTT_OK/GD32VW55X_Wifi_BLE_SDK/GD32VW55x_RELEASE_V1.0.2/MSDK/cloud/alicloud/src/services/dev_bind\awss_notify.c **** 
 2267              		.loc 1 659 48
 2268 00f2 23120A00 		sh	zero,4(s4)
 661:C:/Users/stapi/OneDrive/Desktop/GD32VW553/V1_MQTT_OK/GD32VW55X_Wifi_BLE_SDK/GD32VW55x_RELEASE_V1.0.2/MSDK/cloud/alicloud/src/services/dev_bind\awss_notify.c ****     devinfo_interval = 0;
 2269              		.loc 1 661 5 is_stmt 1
 661:C:/Users/stapi/OneDrive/Desktop/GD32VW553/V1_MQTT_OK/GD32VW55X_Wifi_BLE_SDK/GD32VW55x_RELEASE_V1.0.2/MSDK/cloud/alicloud/src/services/dev_bind\awss_notify.c ****     devinfo_interval = 0;
 2270              		.loc 1 661 49 is_stmt 0
 2271 00f6 23810A00 		sb	zero,2(s5)
 662:C:/Users/stapi/OneDrive/Desktop/GD32VW553/V1_MQTT_OK/GD32VW55X_Wifi_BLE_SDK/GD32VW55x_RELEASE_V1.0.2/MSDK/cloud/alicloud/src/services/dev_bind\awss_notify.c ****     devinfo_cnt = 0;
 2272              		.loc 1 662 5 is_stmt 1
 662:C:/Users/stapi/OneDrive/Desktop/GD32VW553/V1_MQTT_OK/GD32VW55X_Wifi_BLE_SDK/GD32VW55x_RELEASE_V1.0.2/MSDK/cloud/alicloud/src/services/dev_bind\awss_notify.c ****     devinfo_cnt = 0;
 2273              		.loc 1 662 22 is_stmt 0
 2274 00fa 23200900 		sw	zero,0(s2)
 663:C:/Users/stapi/OneDrive/Desktop/GD32VW553/V1_MQTT_OK/GD32VW55X_Wifi_BLE_SDK/GD32VW55x_RELEASE_V1.0.2/MSDK/cloud/alicloud/src/services/dev_bind\awss_notify.c ****     if (devinfo_notify_timer) {
 2275              		.loc 1 663 5 is_stmt 1
 663:C:/Users/stapi/OneDrive/Desktop/GD32VW553/V1_MQTT_OK/GD32VW55X_Wifi_BLE_SDK/GD32VW55x_RELEASE_V1.0.2/MSDK/cloud/alicloud/src/services/dev_bind\awss_notify.c ****     if (devinfo_notify_timer) {
 2276              		.loc 1 663 17 is_stmt 0
 2277 00fe 23800900 		sb	zero,0(s3)
 664:C:/Users/stapi/OneDrive/Desktop/GD32VW553/V1_MQTT_OK/GD32VW55X_Wifi_BLE_SDK/GD32VW55x_RELEASE_V1.0.2/MSDK/cloud/alicloud/src/services/dev_bind\awss_notify.c ****         awss_stop_timer(devinfo_notify_timer);
 2278              		.loc 1 664 5 is_stmt 1
 664:C:/Users/stapi/OneDrive/Desktop/GD32VW553/V1_MQTT_OK/GD32VW55X_Wifi_BLE_SDK/GD32VW55x_RELEASE_V1.0.2/MSDK/cloud/alicloud/src/services/dev_bind\awss_notify.c ****         awss_stop_timer(devinfo_notify_timer);
 2279              		.loc 1 664 8 is_stmt 0
 2280 0102 19C5     		beq	a0,zero,.L161
 665:C:/Users/stapi/OneDrive/Desktop/GD32VW553/V1_MQTT_OK/GD32VW55X_Wifi_BLE_SDK/GD32VW55x_RELEASE_V1.0.2/MSDK/cloud/alicloud/src/services/dev_bind\awss_notify.c ****         devinfo_notify_timer = NULL;
 2281              		.loc 1 665 9 is_stmt 1
 2282 0104 97000000 		call	awss_stop_timer
 2282      E7800000 
 2283              	.LVL227:
 666:C:/Users/stapi/OneDrive/Desktop/GD32VW553/V1_MQTT_OK/GD32VW55X_Wifi_BLE_SDK/GD32VW55x_RELEASE_V1.0.2/MSDK/cloud/alicloud/src/services/dev_bind\awss_notify.c ****     }
 2284              		.loc 1 666 9
 666:C:/Users/stapi/OneDrive/Desktop/GD32VW553/V1_MQTT_OK/GD32VW55X_Wifi_BLE_SDK/GD32VW55x_RELEASE_V1.0.2/MSDK/cloud/alicloud/src/services/dev_bind\awss_notify.c ****     }
 2285              		.loc 1 666 30 is_stmt 0
 2286 010c 23A00400 		sw	zero,0(s1)
 2287              	.L161:
 668:C:/Users/stapi/OneDrive/Desktop/GD32VW553/V1_MQTT_OK/GD32VW55X_Wifi_BLE_SDK/GD32VW55x_RELEASE_V1.0.2/MSDK/cloud/alicloud/src/services/dev_bind\awss_notify.c ****         HAL_MutexUnlock(devinfo_notify_mutex);
 2288              		.loc 1 668 5 is_stmt 1
 668:C:/Users/stapi/OneDrive/Desktop/GD32VW553/V1_MQTT_OK/GD32VW55X_Wifi_BLE_SDK/GD32VW55x_RELEASE_V1.0.2/MSDK/cloud/alicloud/src/services/dev_bind\awss_notify.c ****         HAL_MutexUnlock(devinfo_notify_mutex);
 2289              		.loc 1 668 9 is_stmt 0
 2290 0110 0840     		lw	a0,0(s0)
 673:C:/Users/stapi/OneDrive/Desktop/GD32VW553/V1_MQTT_OK/GD32VW55X_Wifi_BLE_SDK/GD32VW55x_RELEASE_V1.0.2/MSDK/cloud/alicloud/src/services/dev_bind\awss_notify.c **** }
 2291              		.loc 1 673 12
 2292 0112 8544     		li	s1,1
 668:C:/Users/stapi/OneDrive/Desktop/GD32VW553/V1_MQTT_OK/GD32VW55X_Wifi_BLE_SDK/GD32VW55x_RELEASE_V1.0.2/MSDK/cloud/alicloud/src/services/dev_bind\awss_notify.c ****         HAL_MutexUnlock(devinfo_notify_mutex);
 2293              		.loc 1 668 8
 2294 0114 5DDD     		beq	a0,zero,.L154
 669:C:/Users/stapi/OneDrive/Desktop/GD32VW553/V1_MQTT_OK/GD32VW55X_Wifi_BLE_SDK/GD32VW55x_RELEASE_V1.0.2/MSDK/cloud/alicloud/src/services/dev_bind\awss_notify.c ****         HAL_MutexDestroy(devinfo_notify_mutex);
 2295              		.loc 1 669 9 is_stmt 1
 2296 0116 97000000 		call	HAL_MutexUnlock
 2296      E7800000 
 2297              	.LVL228:
 670:C:/Users/stapi/OneDrive/Desktop/GD32VW553/V1_MQTT_OK/GD32VW55X_Wifi_BLE_SDK/GD32VW55x_RELEASE_V1.0.2/MSDK/cloud/alicloud/src/services/dev_bind\awss_notify.c ****         devinfo_notify_mutex = NULL;
 2298              		.loc 1 670 9
 2299 011e 0840     		lw	a0,0(s0)
 2300 0120 97000000 		call	HAL_MutexDestroy
 2300      E7800000 
 2301              	.LVL229:
 671:C:/Users/stapi/OneDrive/Desktop/GD32VW553/V1_MQTT_OK/GD32VW55X_Wifi_BLE_SDK/GD32VW55x_RELEASE_V1.0.2/MSDK/cloud/alicloud/src/services/dev_bind\awss_notify.c ****     }
 2302              		.loc 1 671 9
 671:C:/Users/stapi/OneDrive/Desktop/GD32VW553/V1_MQTT_OK/GD32VW55X_Wifi_BLE_SDK/GD32VW55x_RELEASE_V1.0.2/MSDK/cloud/alicloud/src/services/dev_bind\awss_notify.c ****     }
 2303              		.loc 1 671 30 is_stmt 0
 2304 0128 23200400 		sw	zero,0(s0)
 2305 012c 5DB7     		j	.L154
 2306              		.cfi_endproc
 2307              	.LFE79:
 2309              		.section	.text.online_mcast_get_device_info,"ax",@progbits
 2310              		.align	1
 2311              		.globl	online_mcast_get_device_info
 2313              	online_mcast_get_device_info:
 2314              	.LFB71:
 402:C:/Users/stapi/OneDrive/Desktop/GD32VW553/V1_MQTT_OK/GD32VW55X_Wifi_BLE_SDK/GD32VW55x_RELEASE_V1.0.2/MSDK/cloud/alicloud/src/services/dev_bind\awss_notify.c ****     return online_get_device_info(ctx, resource, remote, request, 1);
 2315              		.loc 1 402 1 is_stmt 1
 2316              		.cfi_startproc
 2317              	.LVL230:
 403:C:/Users/stapi/OneDrive/Desktop/GD32VW553/V1_MQTT_OK/GD32VW55X_Wifi_BLE_SDK/GD32VW55x_RELEASE_V1.0.2/MSDK/cloud/alicloud/src/services/dev_bind\awss_notify.c **** }
 2318              		.loc 1 403 5
 402:C:/Users/stapi/OneDrive/Desktop/GD32VW553/V1_MQTT_OK/GD32VW55X_Wifi_BLE_SDK/GD32VW55x_RELEASE_V1.0.2/MSDK/cloud/alicloud/src/services/dev_bind\awss_notify.c ****     return online_get_device_info(ctx, resource, remote, request, 1);
 2319              		.loc 1 402 1 is_stmt 0
 2320 0000 3285     		mv	a0,a2
 2321              	.LVL231:
 403:C:/Users/stapi/OneDrive/Desktop/GD32VW553/V1_MQTT_OK/GD32VW55X_Wifi_BLE_SDK/GD32VW55x_RELEASE_V1.0.2/MSDK/cloud/alicloud/src/services/dev_bind\awss_notify.c **** }
 2322              		.loc 1 403 12
 2323 0002 B685     		mv	a1,a3
 2324              	.LVL232:
 2325 0004 0546     		li	a2,1
 2326              	.LVL233:
 2327 0006 17030000 		tail	online_get_device_info.constprop.0
 2327      67000300 
 2328              	.LVL234:
 2329              		.cfi_endproc
 2330              	.LFE71:
 2332              		.section	.text.online_ucast_get_device_info,"ax",@progbits
 2333              		.align	1
 2334              		.globl	online_ucast_get_device_info
 2336              	online_ucast_get_device_info:
 2337              	.LFB72:
 407:C:/Users/stapi/OneDrive/Desktop/GD32VW553/V1_MQTT_OK/GD32VW55X_Wifi_BLE_SDK/GD32VW55x_RELEASE_V1.0.2/MSDK/cloud/alicloud/src/services/dev_bind\awss_notify.c ****     return online_get_device_info(ctx, resource, remote, request, 0);
 2338              		.loc 1 407 1 is_stmt 1
 2339              		.cfi_startproc
 2340              	.LVL235:
 408:C:/Users/stapi/OneDrive/Desktop/GD32VW553/V1_MQTT_OK/GD32VW55X_Wifi_BLE_SDK/GD32VW55x_RELEASE_V1.0.2/MSDK/cloud/alicloud/src/services/dev_bind\awss_notify.c **** }
 2341              		.loc 1 408 5
 407:C:/Users/stapi/OneDrive/Desktop/GD32VW553/V1_MQTT_OK/GD32VW55X_Wifi_BLE_SDK/GD32VW55x_RELEASE_V1.0.2/MSDK/cloud/alicloud/src/services/dev_bind\awss_notify.c ****     return online_get_device_info(ctx, resource, remote, request, 0);
 2342              		.loc 1 407 1 is_stmt 0
 2343 0000 3285     		mv	a0,a2
 2344              	.LVL236:
 408:C:/Users/stapi/OneDrive/Desktop/GD32VW553/V1_MQTT_OK/GD32VW55X_Wifi_BLE_SDK/GD32VW55x_RELEASE_V1.0.2/MSDK/cloud/alicloud/src/services/dev_bind\awss_notify.c **** }
 2345              		.loc 1 408 12
 2346 0002 B685     		mv	a1,a3
 2347              	.LVL237:
 2348 0004 0146     		li	a2,0
 2349              	.LVL238:
 2350 0006 17030000 		tail	online_get_device_info.constprop.0
 2350      67000300 
 2351              	.LVL239:
 2352              		.cfi_endproc
 2353              	.LFE72:
 2355              		.section	.text.awss_dev_bind_notify_stop,"ax",@progbits
 2356              		.align	1
 2357              		.globl	awss_dev_bind_notify_stop
 2359              	awss_dev_bind_notify_stop:
 2360              	.LFB75:
 507:C:/Users/stapi/OneDrive/Desktop/GD32VW553/V1_MQTT_OK/GD32VW55X_Wifi_BLE_SDK/GD32VW55x_RELEASE_V1.0.2/MSDK/cloud/alicloud/src/services/dev_bind\awss_notify.c ****     if (dev_bind_notify_mutex)
 2361              		.loc 1 507 1 is_stmt 1
 2362              		.cfi_startproc
 2363 0000 17030000 		call	t0,__riscv_save_2
 2363      E7020300 
 2364              		.cfi_offset 9, -12
 2365              		.cfi_offset 8, -8
 2366              		.cfi_offset 1, -4
 2367              		.cfi_def_cfa_offset 16
 508:C:/Users/stapi/OneDrive/Desktop/GD32VW553/V1_MQTT_OK/GD32VW55X_Wifi_BLE_SDK/GD32VW55x_RELEASE_V1.0.2/MSDK/cloud/alicloud/src/services/dev_bind\awss_notify.c ****         HAL_MutexLock(dev_bind_notify_mutex);
 2368              		.loc 1 508 5
 508:C:/Users/stapi/OneDrive/Desktop/GD32VW553/V1_MQTT_OK/GD32VW55X_Wifi_BLE_SDK/GD32VW55x_RELEASE_V1.0.2/MSDK/cloud/alicloud/src/services/dev_bind\awss_notify.c ****         HAL_MutexLock(dev_bind_notify_mutex);
 2369              		.loc 1 508 9 is_stmt 0
 2370 0008 37040000 		lui	s0,%hi(.LANCHOR11)
 2371 000c 03250400 		lw	a0,%lo(.LANCHOR11)(s0)
 2372 0010 13040400 		addi	s0,s0,%lo(.LANCHOR11)
 508:C:/Users/stapi/OneDrive/Desktop/GD32VW553/V1_MQTT_OK/GD32VW55X_Wifi_BLE_SDK/GD32VW55x_RELEASE_V1.0.2/MSDK/cloud/alicloud/src/services/dev_bind\awss_notify.c ****         HAL_MutexLock(dev_bind_notify_mutex);
 2373              		.loc 1 508 8
 2374 0014 09C5     		beq	a0,zero,.L175
 509:C:/Users/stapi/OneDrive/Desktop/GD32VW553/V1_MQTT_OK/GD32VW55X_Wifi_BLE_SDK/GD32VW55x_RELEASE_V1.0.2/MSDK/cloud/alicloud/src/services/dev_bind\awss_notify.c **** 
 2375              		.loc 1 509 9 is_stmt 1
 2376 0016 97000000 		call	HAL_MutexLock
 2376      E7800000 
 2377              	.LVL240:
 2378              	.L175:
 511:C:/Users/stapi/OneDrive/Desktop/GD32VW553/V1_MQTT_OK/GD32VW55X_Wifi_BLE_SDK/GD32VW55x_RELEASE_V1.0.2/MSDK/cloud/alicloud/src/services/dev_bind\awss_notify.c ****         dev_sync_token = 0;
 2379              		.loc 1 511 5
 512:C:/Users/stapi/OneDrive/Desktop/GD32VW553/V1_MQTT_OK/GD32VW55X_Wifi_BLE_SDK/GD32VW55x_RELEASE_V1.0.2/MSDK/cloud/alicloud/src/services/dev_bind\awss_notify.c ****         awss_notify_resp[AWSS_NOTIFY_DEV_BIND_TOKEN] = 1;
 2380              		.loc 1 512 9
 515:C:/Users/stapi/OneDrive/Desktop/GD32VW553/V1_MQTT_OK/GD32VW55X_Wifi_BLE_SDK/GD32VW55x_RELEASE_V1.0.2/MSDK/cloud/alicloud/src/services/dev_bind\awss_notify.c ****             break;
 2381              		.loc 1 515 35 is_stmt 0
 2382 001e B7040000 		lui	s1,%hi(.LANCHOR10)
 512:C:/Users/stapi/OneDrive/Desktop/GD32VW553/V1_MQTT_OK/GD32VW55X_Wifi_BLE_SDK/GD32VW55x_RELEASE_V1.0.2/MSDK/cloud/alicloud/src/services/dev_bind\awss_notify.c ****         awss_notify_resp[AWSS_NOTIFY_DEV_BIND_TOKEN] = 1;
 2383              		.loc 1 512 24
 2384 0022 B7070000 		lui	a5,%hi(.LANCHOR14)
 515:C:/Users/stapi/OneDrive/Desktop/GD32VW553/V1_MQTT_OK/GD32VW55X_Wifi_BLE_SDK/GD32VW55x_RELEASE_V1.0.2/MSDK/cloud/alicloud/src/services/dev_bind\awss_notify.c ****             break;
 2385              		.loc 1 515 35
 2386 0026 93840400 		addi	s1,s1,%lo(.LANCHOR10)
 513:C:/Users/stapi/OneDrive/Desktop/GD32VW553/V1_MQTT_OK/GD32VW55X_Wifi_BLE_SDK/GD32VW55x_RELEASE_V1.0.2/MSDK/cloud/alicloud/src/services/dev_bind\awss_notify.c ****         dev_bind_cnt = AWSS_NOTIFY_CNT_MAX;
 2387              		.loc 1 513 54
 2388 002a 0547     		li	a4,1
 512:C:/Users/stapi/OneDrive/Desktop/GD32VW553/V1_MQTT_OK/GD32VW55X_Wifi_BLE_SDK/GD32VW55x_RELEASE_V1.0.2/MSDK/cloud/alicloud/src/services/dev_bind\awss_notify.c ****         awss_notify_resp[AWSS_NOTIFY_DEV_BIND_TOKEN] = 1;
 2389              		.loc 1 512 24
 2390 002c 23800700 		sb	zero,%lo(.LANCHOR14)(a5)
 513:C:/Users/stapi/OneDrive/Desktop/GD32VW553/V1_MQTT_OK/GD32VW55X_Wifi_BLE_SDK/GD32VW55x_RELEASE_V1.0.2/MSDK/cloud/alicloud/src/services/dev_bind\awss_notify.c ****         dev_bind_cnt = AWSS_NOTIFY_CNT_MAX;
 2391              		.loc 1 513 9 is_stmt 1
 515:C:/Users/stapi/OneDrive/Desktop/GD32VW553/V1_MQTT_OK/GD32VW55X_Wifi_BLE_SDK/GD32VW55x_RELEASE_V1.0.2/MSDK/cloud/alicloud/src/services/dev_bind\awss_notify.c ****             break;
 2392              		.loc 1 515 35 is_stmt 0
 2393 0030 8840     		lw	a0,0(s1)
 513:C:/Users/stapi/OneDrive/Desktop/GD32VW553/V1_MQTT_OK/GD32VW55X_Wifi_BLE_SDK/GD32VW55x_RELEASE_V1.0.2/MSDK/cloud/alicloud/src/services/dev_bind\awss_notify.c ****         dev_bind_cnt = AWSS_NOTIFY_CNT_MAX;
 2394              		.loc 1 513 54
 2395 0032 B7070000 		lui	a5,%hi(.LANCHOR3+1)
 2396 0036 A380E700 		sb	a4,%lo(.LANCHOR3+1)(a5)
 514:C:/Users/stapi/OneDrive/Desktop/GD32VW553/V1_MQTT_OK/GD32VW55X_Wifi_BLE_SDK/GD32VW55x_RELEASE_V1.0.2/MSDK/cloud/alicloud/src/services/dev_bind\awss_notify.c ****         if (dev_bind_notify_timer == NULL)
 2397              		.loc 1 514 9 is_stmt 1
 514:C:/Users/stapi/OneDrive/Desktop/GD32VW553/V1_MQTT_OK/GD32VW55X_Wifi_BLE_SDK/GD32VW55x_RELEASE_V1.0.2/MSDK/cloud/alicloud/src/services/dev_bind\awss_notify.c ****         if (dev_bind_notify_timer == NULL)
 2398              		.loc 1 514 22 is_stmt 0
 2399 003a B7070000 		lui	a5,%hi(.LANCHOR12)
 2400 003e 7947     		li	a4,30
 2401 0040 2380E700 		sb	a4,%lo(.LANCHOR12)(a5)
 515:C:/Users/stapi/OneDrive/Desktop/GD32VW553/V1_MQTT_OK/GD32VW55X_Wifi_BLE_SDK/GD32VW55x_RELEASE_V1.0.2/MSDK/cloud/alicloud/src/services/dev_bind\awss_notify.c ****             break;
 2402              		.loc 1 515 9 is_stmt 1
 515:C:/Users/stapi/OneDrive/Desktop/GD32VW553/V1_MQTT_OK/GD32VW55X_Wifi_BLE_SDK/GD32VW55x_RELEASE_V1.0.2/MSDK/cloud/alicloud/src/services/dev_bind\awss_notify.c ****             break;
 2403              		.loc 1 515 12 is_stmt 0
 2404 0044 19C5     		beq	a0,zero,.L176
 518:C:/Users/stapi/OneDrive/Desktop/GD32VW553/V1_MQTT_OK/GD32VW55X_Wifi_BLE_SDK/GD32VW55x_RELEASE_V1.0.2/MSDK/cloud/alicloud/src/services/dev_bind\awss_notify.c ****         dev_bind_notify_timer = NULL;
 2405              		.loc 1 518 9 is_stmt 1
 2406 0046 97000000 		call	awss_stop_timer
 2406      E7800000 
 2407              	.LVL241:
 519:C:/Users/stapi/OneDrive/Desktop/GD32VW553/V1_MQTT_OK/GD32VW55X_Wifi_BLE_SDK/GD32VW55x_RELEASE_V1.0.2/MSDK/cloud/alicloud/src/services/dev_bind\awss_notify.c ****     } while (0);
 2408              		.loc 1 519 9
 519:C:/Users/stapi/OneDrive/Desktop/GD32VW553/V1_MQTT_OK/GD32VW55X_Wifi_BLE_SDK/GD32VW55x_RELEASE_V1.0.2/MSDK/cloud/alicloud/src/services/dev_bind\awss_notify.c ****     } while (0);
 2409              		.loc 1 519 31 is_stmt 0
 2410 004e 23A00400 		sw	zero,0(s1)
 2411              	.L176:
 520:C:/Users/stapi/OneDrive/Desktop/GD32VW553/V1_MQTT_OK/GD32VW55X_Wifi_BLE_SDK/GD32VW55x_RELEASE_V1.0.2/MSDK/cloud/alicloud/src/services/dev_bind\awss_notify.c **** 
 2412              		.loc 1 520 13 is_stmt 1
 522:C:/Users/stapi/OneDrive/Desktop/GD32VW553/V1_MQTT_OK/GD32VW55X_Wifi_BLE_SDK/GD32VW55x_RELEASE_V1.0.2/MSDK/cloud/alicloud/src/services/dev_bind\awss_notify.c ****     g_notify_msg_id[AWSS_NOTIFY_DEV_BIND_TOKEN] = 0;
 2413              		.loc 1 522 5
 2414 0052 B7040000 		lui	s1,%hi(.LANCHOR9)
 2415 0056 93840400 		addi	s1,s1,%lo(.LANCHOR9)
 2416 005a 03D52400 		lhu	a0,2(s1)
 2417 005e 97000000 		call	awss_cmp_coap_cancel_packet
 2417      E7800000 
 2418              	.LVL242:
 523:C:/Users/stapi/OneDrive/Desktop/GD32VW553/V1_MQTT_OK/GD32VW55X_Wifi_BLE_SDK/GD32VW55x_RELEASE_V1.0.2/MSDK/cloud/alicloud/src/services/dev_bind\awss_notify.c **** 
 2419              		.loc 1 523 5
 525:C:/Users/stapi/OneDrive/Desktop/GD32VW553/V1_MQTT_OK/GD32VW55X_Wifi_BLE_SDK/GD32VW55x_RELEASE_V1.0.2/MSDK/cloud/alicloud/src/services/dev_bind\awss_notify.c ****         HAL_MutexUnlock(dev_bind_notify_mutex);
 2420              		.loc 1 525 9 is_stmt 0
 2421 0066 0840     		lw	a0,0(s0)
 523:C:/Users/stapi/OneDrive/Desktop/GD32VW553/V1_MQTT_OK/GD32VW55X_Wifi_BLE_SDK/GD32VW55x_RELEASE_V1.0.2/MSDK/cloud/alicloud/src/services/dev_bind\awss_notify.c **** 
 2422              		.loc 1 523 49
 2423 0068 23910400 		sh	zero,2(s1)
 525:C:/Users/stapi/OneDrive/Desktop/GD32VW553/V1_MQTT_OK/GD32VW55X_Wifi_BLE_SDK/GD32VW55x_RELEASE_V1.0.2/MSDK/cloud/alicloud/src/services/dev_bind\awss_notify.c ****         HAL_MutexUnlock(dev_bind_notify_mutex);
 2424              		.loc 1 525 5 is_stmt 1
 525:C:/Users/stapi/OneDrive/Desktop/GD32VW553/V1_MQTT_OK/GD32VW55X_Wifi_BLE_SDK/GD32VW55x_RELEASE_V1.0.2/MSDK/cloud/alicloud/src/services/dev_bind\awss_notify.c ****         HAL_MutexUnlock(dev_bind_notify_mutex);
 2425              		.loc 1 525 8 is_stmt 0
 2426 006c 01CD     		beq	a0,zero,.L177
 526:C:/Users/stapi/OneDrive/Desktop/GD32VW553/V1_MQTT_OK/GD32VW55X_Wifi_BLE_SDK/GD32VW55x_RELEASE_V1.0.2/MSDK/cloud/alicloud/src/services/dev_bind\awss_notify.c ****         HAL_MutexDestroy(dev_bind_notify_mutex);
 2427              		.loc 1 526 9 is_stmt 1
 2428 006e 97000000 		call	HAL_MutexUnlock
 2428      E7800000 
 2429              	.LVL243:
 527:C:/Users/stapi/OneDrive/Desktop/GD32VW553/V1_MQTT_OK/GD32VW55X_Wifi_BLE_SDK/GD32VW55x_RELEASE_V1.0.2/MSDK/cloud/alicloud/src/services/dev_bind\awss_notify.c ****         dev_bind_notify_mutex = NULL;
 2430              		.loc 1 527 9
 2431 0076 0840     		lw	a0,0(s0)
 2432 0078 97000000 		call	HAL_MutexDestroy
 2432      E7800000 
 2433              	.LVL244:
 528:C:/Users/stapi/OneDrive/Desktop/GD32VW553/V1_MQTT_OK/GD32VW55X_Wifi_BLE_SDK/GD32VW55x_RELEASE_V1.0.2/MSDK/cloud/alicloud/src/services/dev_bind\awss_notify.c ****     }
 2434              		.loc 1 528 9
 528:C:/Users/stapi/OneDrive/Desktop/GD32VW553/V1_MQTT_OK/GD32VW55X_Wifi_BLE_SDK/GD32VW55x_RELEASE_V1.0.2/MSDK/cloud/alicloud/src/services/dev_bind\awss_notify.c ****     }
 2435              		.loc 1 528 31 is_stmt 0
 2436 0080 23200400 		sw	zero,0(s0)
 2437              	.L177:
 530:C:/Users/stapi/OneDrive/Desktop/GD32VW553/V1_MQTT_OK/GD32VW55X_Wifi_BLE_SDK/GD32VW55x_RELEASE_V1.0.2/MSDK/cloud/alicloud/src/services/dev_bind\awss_notify.c **** }
 2438              		.loc 1 530 5 is_stmt 1
 531:C:/Users/stapi/OneDrive/Desktop/GD32VW553/V1_MQTT_OK/GD32VW55X_Wifi_BLE_SDK/GD32VW55x_RELEASE_V1.0.2/MSDK/cloud/alicloud/src/services/dev_bind\awss_notify.c **** 
 2439              		.loc 1 531 1 is_stmt 0
 2440 0084 0145     		li	a0,0
 2441 0086 17030000 		tail	__riscv_restore_2
 2441      67000300 
 2442              		.cfi_restore 9
 2443              		.cfi_restore 8
 2444              		.cfi_restore 1
 2445              		.cfi_def_cfa_offset 0
 2446              		.cfi_endproc
 2447              	.LFE75:
 2449              		.section	.text.awss_suc_notify,"ax",@progbits
 2450              		.align	1
 2451              		.globl	awss_suc_notify
 2453              	awss_suc_notify:
 2454              	.LFB77:
 594:C:/Users/stapi/OneDrive/Desktop/GD32VW553/V1_MQTT_OK/GD32VW55X_Wifi_BLE_SDK/GD32VW55x_RELEASE_V1.0.2/MSDK/cloud/alicloud/src/services/dev_bind\awss_notify.c ****     suc_cnt = 0;
 2455              		.loc 1 594 1 is_stmt 1
 2456              		.cfi_startproc
 595:C:/Users/stapi/OneDrive/Desktop/GD32VW553/V1_MQTT_OK/GD32VW55X_Wifi_BLE_SDK/GD32VW55x_RELEASE_V1.0.2/MSDK/cloud/alicloud/src/services/dev_bind\awss_notify.c ****     suc_interval = 0;
 2457              		.loc 1 595 5
 595:C:/Users/stapi/OneDrive/Desktop/GD32VW553/V1_MQTT_OK/GD32VW55X_Wifi_BLE_SDK/GD32VW55x_RELEASE_V1.0.2/MSDK/cloud/alicloud/src/services/dev_bind\awss_notify.c ****     suc_interval = 0;
 2458              		.loc 1 595 13 is_stmt 0
 2459 0000 B7070000 		lui	a5,%hi(.LANCHOR17)
 2460 0004 23800700 		sb	zero,%lo(.LANCHOR17)(a5)
 596:C:/Users/stapi/OneDrive/Desktop/GD32VW553/V1_MQTT_OK/GD32VW55X_Wifi_BLE_SDK/GD32VW55x_RELEASE_V1.0.2/MSDK/cloud/alicloud/src/services/dev_bind\awss_notify.c ****     awss_notify_resp[AWSS_NOTIFY_SUCCESS] = 0;
 2461              		.loc 1 596 5 is_stmt 1
 596:C:/Users/stapi/OneDrive/Desktop/GD32VW553/V1_MQTT_OK/GD32VW55X_Wifi_BLE_SDK/GD32VW55x_RELEASE_V1.0.2/MSDK/cloud/alicloud/src/services/dev_bind\awss_notify.c ****     awss_notify_resp[AWSS_NOTIFY_SUCCESS] = 0;
 2462              		.loc 1 596 18 is_stmt 0
 2463 0008 B7070000 		lui	a5,%hi(.LANCHOR18)
 2464 000c 23A00700 		sw	zero,%lo(.LANCHOR18)(a5)
 597:C:/Users/stapi/OneDrive/Desktop/GD32VW553/V1_MQTT_OK/GD32VW55X_Wifi_BLE_SDK/GD32VW55x_RELEASE_V1.0.2/MSDK/cloud/alicloud/src/services/dev_bind\awss_notify.c ****     return __awss_suc_notify();
 2465              		.loc 1 597 5 is_stmt 1
 597:C:/Users/stapi/OneDrive/Desktop/GD32VW553/V1_MQTT_OK/GD32VW55X_Wifi_BLE_SDK/GD32VW55x_RELEASE_V1.0.2/MSDK/cloud/alicloud/src/services/dev_bind\awss_notify.c ****     return __awss_suc_notify();
 2466              		.loc 1 597 43 is_stmt 0
 2467 0010 B7070000 		lui	a5,%hi(.LANCHOR3+3)
 2468 0014 A3810700 		sb	zero,%lo(.LANCHOR3+3)(a5)
 598:C:/Users/stapi/OneDrive/Desktop/GD32VW553/V1_MQTT_OK/GD32VW55X_Wifi_BLE_SDK/GD32VW55x_RELEASE_V1.0.2/MSDK/cloud/alicloud/src/services/dev_bind\awss_notify.c **** }
 2469              		.loc 1 598 5 is_stmt 1
 598:C:/Users/stapi/OneDrive/Desktop/GD32VW553/V1_MQTT_OK/GD32VW55X_Wifi_BLE_SDK/GD32VW55x_RELEASE_V1.0.2/MSDK/cloud/alicloud/src/services/dev_bind\awss_notify.c **** }
 2470              		.loc 1 598 12 is_stmt 0
 2471 0018 17030000 		tail	__awss_suc_notify
 2471      67000300 
 2472              	.LVL245:
 2473              		.cfi_endproc
 2474              	.LFE77:
 2476              		.section	.text.awss_suc_notify_stop,"ax",@progbits
 2477              		.align	1
 2478              		.globl	awss_suc_notify_stop
 2480              	awss_suc_notify_stop:
 2481              	.LFB78:
 602:C:/Users/stapi/OneDrive/Desktop/GD32VW553/V1_MQTT_OK/GD32VW55X_Wifi_BLE_SDK/GD32VW55x_RELEASE_V1.0.2/MSDK/cloud/alicloud/src/services/dev_bind\awss_notify.c ****     if (success_notify_mutex)
 2482              		.loc 1 602 1 is_stmt 1
 2483              		.cfi_startproc
 2484 0000 17030000 		call	t0,__riscv_save_2
 2484      E7020300 
 2485              		.cfi_offset 9, -12
 2486              		.cfi_offset 8, -8
 2487              		.cfi_offset 1, -4
 2488              		.cfi_def_cfa_offset 16
 603:C:/Users/stapi/OneDrive/Desktop/GD32VW553/V1_MQTT_OK/GD32VW55X_Wifi_BLE_SDK/GD32VW55x_RELEASE_V1.0.2/MSDK/cloud/alicloud/src/services/dev_bind\awss_notify.c ****         HAL_MutexLock(success_notify_mutex);
 2489              		.loc 1 603 5
 603:C:/Users/stapi/OneDrive/Desktop/GD32VW553/V1_MQTT_OK/GD32VW55X_Wifi_BLE_SDK/GD32VW55x_RELEASE_V1.0.2/MSDK/cloud/alicloud/src/services/dev_bind\awss_notify.c ****         HAL_MutexLock(success_notify_mutex);
 2490              		.loc 1 603 9 is_stmt 0
 2491 0008 37040000 		lui	s0,%hi(.LANCHOR16)
 2492 000c 03250400 		lw	a0,%lo(.LANCHOR16)(s0)
 2493 0010 13040400 		addi	s0,s0,%lo(.LANCHOR16)
 603:C:/Users/stapi/OneDrive/Desktop/GD32VW553/V1_MQTT_OK/GD32VW55X_Wifi_BLE_SDK/GD32VW55x_RELEASE_V1.0.2/MSDK/cloud/alicloud/src/services/dev_bind\awss_notify.c ****         HAL_MutexLock(success_notify_mutex);
 2494              		.loc 1 603 8
 2495 0014 09C5     		beq	a0,zero,.L191
 604:C:/Users/stapi/OneDrive/Desktop/GD32VW553/V1_MQTT_OK/GD32VW55X_Wifi_BLE_SDK/GD32VW55x_RELEASE_V1.0.2/MSDK/cloud/alicloud/src/services/dev_bind\awss_notify.c **** 
 2496              		.loc 1 604 9 is_stmt 1
 2497 0016 97000000 		call	HAL_MutexLock
 2497      E7800000 
 2498              	.LVL246:
 2499              	.L191:
 606:C:/Users/stapi/OneDrive/Desktop/GD32VW553/V1_MQTT_OK/GD32VW55X_Wifi_BLE_SDK/GD32VW55x_RELEASE_V1.0.2/MSDK/cloud/alicloud/src/services/dev_bind\awss_notify.c ****         awss_notify_resp[AWSS_NOTIFY_SUCCESS] = 1;
 2500              		.loc 1 606 5
 607:C:/Users/stapi/OneDrive/Desktop/GD32VW553/V1_MQTT_OK/GD32VW55X_Wifi_BLE_SDK/GD32VW55x_RELEASE_V1.0.2/MSDK/cloud/alicloud/src/services/dev_bind\awss_notify.c ****         suc_cnt = AWSS_NOTIFY_CNT_MAX;
 2501              		.loc 1 607 9
 609:C:/Users/stapi/OneDrive/Desktop/GD32VW553/V1_MQTT_OK/GD32VW55X_Wifi_BLE_SDK/GD32VW55x_RELEASE_V1.0.2/MSDK/cloud/alicloud/src/services/dev_bind\awss_notify.c ****             break;
 2502              		.loc 1 609 34 is_stmt 0
 2503 001e B7040000 		lui	s1,%hi(.LANCHOR19)
 2504 0022 93840400 		addi	s1,s1,%lo(.LANCHOR19)
 607:C:/Users/stapi/OneDrive/Desktop/GD32VW553/V1_MQTT_OK/GD32VW55X_Wifi_BLE_SDK/GD32VW55x_RELEASE_V1.0.2/MSDK/cloud/alicloud/src/services/dev_bind\awss_notify.c ****         suc_cnt = AWSS_NOTIFY_CNT_MAX;
 2505              		.loc 1 607 47
 2506 0026 B7070000 		lui	a5,%hi(.LANCHOR3+3)
 2507 002a 0547     		li	a4,1
 609:C:/Users/stapi/OneDrive/Desktop/GD32VW553/V1_MQTT_OK/GD32VW55X_Wifi_BLE_SDK/GD32VW55x_RELEASE_V1.0.2/MSDK/cloud/alicloud/src/services/dev_bind\awss_notify.c ****             break;
 2508              		.loc 1 609 34
 2509 002c 8840     		lw	a0,0(s1)
 607:C:/Users/stapi/OneDrive/Desktop/GD32VW553/V1_MQTT_OK/GD32VW55X_Wifi_BLE_SDK/GD32VW55x_RELEASE_V1.0.2/MSDK/cloud/alicloud/src/services/dev_bind\awss_notify.c ****         suc_cnt = AWSS_NOTIFY_CNT_MAX;
 2510              		.loc 1 607 47
 2511 002e A381E700 		sb	a4,%lo(.LANCHOR3+3)(a5)
 608:C:/Users/stapi/OneDrive/Desktop/GD32VW553/V1_MQTT_OK/GD32VW55X_Wifi_BLE_SDK/GD32VW55x_RELEASE_V1.0.2/MSDK/cloud/alicloud/src/services/dev_bind\awss_notify.c ****         if (success_notify_timer == NULL)
 2512              		.loc 1 608 9 is_stmt 1
 608:C:/Users/stapi/OneDrive/Desktop/GD32VW553/V1_MQTT_OK/GD32VW55X_Wifi_BLE_SDK/GD32VW55x_RELEASE_V1.0.2/MSDK/cloud/alicloud/src/services/dev_bind\awss_notify.c ****         if (success_notify_timer == NULL)
 2513              		.loc 1 608 17 is_stmt 0
 2514 0032 B7070000 		lui	a5,%hi(.LANCHOR17)
 2515 0036 7947     		li	a4,30
 2516 0038 2380E700 		sb	a4,%lo(.LANCHOR17)(a5)
 609:C:/Users/stapi/OneDrive/Desktop/GD32VW553/V1_MQTT_OK/GD32VW55X_Wifi_BLE_SDK/GD32VW55x_RELEASE_V1.0.2/MSDK/cloud/alicloud/src/services/dev_bind\awss_notify.c ****             break;
 2517              		.loc 1 609 9 is_stmt 1
 609:C:/Users/stapi/OneDrive/Desktop/GD32VW553/V1_MQTT_OK/GD32VW55X_Wifi_BLE_SDK/GD32VW55x_RELEASE_V1.0.2/MSDK/cloud/alicloud/src/services/dev_bind\awss_notify.c ****             break;
 2518              		.loc 1 609 12 is_stmt 0
 2519 003c 19C5     		beq	a0,zero,.L192
 612:C:/Users/stapi/OneDrive/Desktop/GD32VW553/V1_MQTT_OK/GD32VW55X_Wifi_BLE_SDK/GD32VW55x_RELEASE_V1.0.2/MSDK/cloud/alicloud/src/services/dev_bind\awss_notify.c ****         success_notify_timer = NULL;
 2520              		.loc 1 612 9 is_stmt 1
 2521 003e 97000000 		call	awss_stop_timer
 2521      E7800000 
 2522              	.LVL247:
 613:C:/Users/stapi/OneDrive/Desktop/GD32VW553/V1_MQTT_OK/GD32VW55X_Wifi_BLE_SDK/GD32VW55x_RELEASE_V1.0.2/MSDK/cloud/alicloud/src/services/dev_bind\awss_notify.c ****     } while (0);
 2523              		.loc 1 613 9
 613:C:/Users/stapi/OneDrive/Desktop/GD32VW553/V1_MQTT_OK/GD32VW55X_Wifi_BLE_SDK/GD32VW55x_RELEASE_V1.0.2/MSDK/cloud/alicloud/src/services/dev_bind\awss_notify.c ****     } while (0);
 2524              		.loc 1 613 30 is_stmt 0
 2525 0046 23A00400 		sw	zero,0(s1)
 2526              	.L192:
 614:C:/Users/stapi/OneDrive/Desktop/GD32VW553/V1_MQTT_OK/GD32VW55X_Wifi_BLE_SDK/GD32VW55x_RELEASE_V1.0.2/MSDK/cloud/alicloud/src/services/dev_bind\awss_notify.c **** 
 2527              		.loc 1 614 13 is_stmt 1
 616:C:/Users/stapi/OneDrive/Desktop/GD32VW553/V1_MQTT_OK/GD32VW55X_Wifi_BLE_SDK/GD32VW55x_RELEASE_V1.0.2/MSDK/cloud/alicloud/src/services/dev_bind\awss_notify.c ****     g_notify_msg_id[AWSS_NOTIFY_SUCCESS] = 0;
 2528              		.loc 1 616 5
 2529 004a B7040000 		lui	s1,%hi(.LANCHOR9)
 2530 004e 93840400 		addi	s1,s1,%lo(.LANCHOR9)
 2531 0052 03D56400 		lhu	a0,6(s1)
 2532 0056 97000000 		call	awss_cmp_coap_cancel_packet
 2532      E7800000 
 2533              	.LVL248:
 617:C:/Users/stapi/OneDrive/Desktop/GD32VW553/V1_MQTT_OK/GD32VW55X_Wifi_BLE_SDK/GD32VW55x_RELEASE_V1.0.2/MSDK/cloud/alicloud/src/services/dev_bind\awss_notify.c **** 
 2534              		.loc 1 617 5
 619:C:/Users/stapi/OneDrive/Desktop/GD32VW553/V1_MQTT_OK/GD32VW55X_Wifi_BLE_SDK/GD32VW55x_RELEASE_V1.0.2/MSDK/cloud/alicloud/src/services/dev_bind\awss_notify.c ****         HAL_MutexUnlock(success_notify_mutex);
 2535              		.loc 1 619 9 is_stmt 0
 2536 005e 0840     		lw	a0,0(s0)
 617:C:/Users/stapi/OneDrive/Desktop/GD32VW553/V1_MQTT_OK/GD32VW55X_Wifi_BLE_SDK/GD32VW55x_RELEASE_V1.0.2/MSDK/cloud/alicloud/src/services/dev_bind\awss_notify.c **** 
 2537              		.loc 1 617 42
 2538 0060 23930400 		sh	zero,6(s1)
 619:C:/Users/stapi/OneDrive/Desktop/GD32VW553/V1_MQTT_OK/GD32VW55X_Wifi_BLE_SDK/GD32VW55x_RELEASE_V1.0.2/MSDK/cloud/alicloud/src/services/dev_bind\awss_notify.c ****         HAL_MutexUnlock(success_notify_mutex);
 2539              		.loc 1 619 5 is_stmt 1
 619:C:/Users/stapi/OneDrive/Desktop/GD32VW553/V1_MQTT_OK/GD32VW55X_Wifi_BLE_SDK/GD32VW55x_RELEASE_V1.0.2/MSDK/cloud/alicloud/src/services/dev_bind\awss_notify.c ****         HAL_MutexUnlock(success_notify_mutex);
 2540              		.loc 1 619 8 is_stmt 0
 2541 0064 01CD     		beq	a0,zero,.L193
 620:C:/Users/stapi/OneDrive/Desktop/GD32VW553/V1_MQTT_OK/GD32VW55X_Wifi_BLE_SDK/GD32VW55x_RELEASE_V1.0.2/MSDK/cloud/alicloud/src/services/dev_bind\awss_notify.c ****         HAL_MutexDestroy(success_notify_mutex);
 2542              		.loc 1 620 9 is_stmt 1
 2543 0066 97000000 		call	HAL_MutexUnlock
 2543      E7800000 
 2544              	.LVL249:
 621:C:/Users/stapi/OneDrive/Desktop/GD32VW553/V1_MQTT_OK/GD32VW55X_Wifi_BLE_SDK/GD32VW55x_RELEASE_V1.0.2/MSDK/cloud/alicloud/src/services/dev_bind\awss_notify.c ****         success_notify_mutex = NULL;
 2545              		.loc 1 621 9
 2546 006e 0840     		lw	a0,0(s0)
 2547 0070 97000000 		call	HAL_MutexDestroy
 2547      E7800000 
 2548              	.LVL250:
 622:C:/Users/stapi/OneDrive/Desktop/GD32VW553/V1_MQTT_OK/GD32VW55X_Wifi_BLE_SDK/GD32VW55x_RELEASE_V1.0.2/MSDK/cloud/alicloud/src/services/dev_bind\awss_notify.c ****     }
 2549              		.loc 1 622 9
 622:C:/Users/stapi/OneDrive/Desktop/GD32VW553/V1_MQTT_OK/GD32VW55X_Wifi_BLE_SDK/GD32VW55x_RELEASE_V1.0.2/MSDK/cloud/alicloud/src/services/dev_bind\awss_notify.c ****     }
 2550              		.loc 1 622 30 is_stmt 0
 2551 0078 23200400 		sw	zero,0(s0)
 2552              	.L193:
 624:C:/Users/stapi/OneDrive/Desktop/GD32VW553/V1_MQTT_OK/GD32VW55X_Wifi_BLE_SDK/GD32VW55x_RELEASE_V1.0.2/MSDK/cloud/alicloud/src/services/dev_bind\awss_notify.c **** }
 2553              		.loc 1 624 5 is_stmt 1
 625:C:/Users/stapi/OneDrive/Desktop/GD32VW553/V1_MQTT_OK/GD32VW55X_Wifi_BLE_SDK/GD32VW55x_RELEASE_V1.0.2/MSDK/cloud/alicloud/src/services/dev_bind\awss_notify.c **** 
 2554              		.loc 1 625 1 is_stmt 0
 2555 007c 0145     		li	a0,0
 2556 007e 17030000 		tail	__riscv_restore_2
 2556      67000300 
 2557              		.cfi_restore 9
 2558              		.cfi_restore 8
 2559              		.cfi_restore 1
 2560              		.cfi_def_cfa_offset 0
 2561              		.cfi_endproc
 2562              	.LFE78:
 2564              		.section	.text.awss_devinfo_notify,"ax",@progbits
 2565              		.align	1
 2566              		.globl	awss_devinfo_notify
 2568              	awss_devinfo_notify:
 2569              	.LFB80:
 675:C:/Users/stapi/OneDrive/Desktop/GD32VW553/V1_MQTT_OK/GD32VW55X_Wifi_BLE_SDK/GD32VW55x_RELEASE_V1.0.2/MSDK/cloud/alicloud/src/services/dev_bind\awss_notify.c **** 
 676:C:/Users/stapi/OneDrive/Desktop/GD32VW553/V1_MQTT_OK/GD32VW55X_Wifi_BLE_SDK/GD32VW55x_RELEASE_V1.0.2/MSDK/cloud/alicloud/src/services/dev_bind\awss_notify.c **** int awss_devinfo_notify()
 677:C:/Users/stapi/OneDrive/Desktop/GD32VW553/V1_MQTT_OK/GD32VW55X_Wifi_BLE_SDK/GD32VW55x_RELEASE_V1.0.2/MSDK/cloud/alicloud/src/services/dev_bind\awss_notify.c **** {
 2570              		.loc 1 677 1 is_stmt 1
 2571              		.cfi_startproc
 678:C:/Users/stapi/OneDrive/Desktop/GD32VW553/V1_MQTT_OK/GD32VW55X_Wifi_BLE_SDK/GD32VW55x_RELEASE_V1.0.2/MSDK/cloud/alicloud/src/services/dev_bind\awss_notify.c ****     devinfo_cnt = 0;
 2572              		.loc 1 678 5
 2573              		.loc 1 678 17 is_stmt 0
 2574 0000 B7070000 		lui	a5,%hi(.LANCHOR22)
 2575 0004 23800700 		sb	zero,%lo(.LANCHOR22)(a5)
 679:C:/Users/stapi/OneDrive/Desktop/GD32VW553/V1_MQTT_OK/GD32VW55X_Wifi_BLE_SDK/GD32VW55x_RELEASE_V1.0.2/MSDK/cloud/alicloud/src/services/dev_bind\awss_notify.c ****     devinfo_interval = 0;
 2576              		.loc 1 679 5 is_stmt 1
 2577              		.loc 1 679 22 is_stmt 0
 2578 0008 B7070000 		lui	a5,%hi(.LANCHOR21)
 2579 000c 23A00700 		sw	zero,%lo(.LANCHOR21)(a5)
 680:C:/Users/stapi/OneDrive/Desktop/GD32VW553/V1_MQTT_OK/GD32VW55X_Wifi_BLE_SDK/GD32VW55x_RELEASE_V1.0.2/MSDK/cloud/alicloud/src/services/dev_bind\awss_notify.c ****     awss_notify_resp[AWSS_NOTIFY_DEV_RAND_SIGN] = 0;
 2580              		.loc 1 680 5 is_stmt 1
 2581              		.loc 1 680 49 is_stmt 0
 2582 0010 B7070000 		lui	a5,%hi(.LANCHOR3+2)
 2583 0014 23810700 		sb	zero,%lo(.LANCHOR3+2)(a5)
 681:C:/Users/stapi/OneDrive/Desktop/GD32VW553/V1_MQTT_OK/GD32VW55X_Wifi_BLE_SDK/GD32VW55x_RELEASE_V1.0.2/MSDK/cloud/alicloud/src/services/dev_bind\awss_notify.c ****     return __awss_devinfo_notify();
 2584              		.loc 1 681 5 is_stmt 1
 2585              		.loc 1 681 12 is_stmt 0
 2586 0018 17030000 		tail	__awss_devinfo_notify
 2586      67000300 
 2587              	.LVL251:
 2588              		.cfi_endproc
 2589              	.LFE80:
 2591              		.section	.text.awss_devinfo_notify_stop,"ax",@progbits
 2592              		.align	1
 2593              		.globl	awss_devinfo_notify_stop
 2595              	awss_devinfo_notify_stop:
 2596              	.LFB81:
 682:C:/Users/stapi/OneDrive/Desktop/GD32VW553/V1_MQTT_OK/GD32VW55X_Wifi_BLE_SDK/GD32VW55x_RELEASE_V1.0.2/MSDK/cloud/alicloud/src/services/dev_bind\awss_notify.c **** }
 683:C:/Users/stapi/OneDrive/Desktop/GD32VW553/V1_MQTT_OK/GD32VW55X_Wifi_BLE_SDK/GD32VW55x_RELEASE_V1.0.2/MSDK/cloud/alicloud/src/services/dev_bind\awss_notify.c **** 
 684:C:/Users/stapi/OneDrive/Desktop/GD32VW553/V1_MQTT_OK/GD32VW55X_Wifi_BLE_SDK/GD32VW55x_RELEASE_V1.0.2/MSDK/cloud/alicloud/src/services/dev_bind\awss_notify.c **** int awss_devinfo_notify_stop()
 685:C:/Users/stapi/OneDrive/Desktop/GD32VW553/V1_MQTT_OK/GD32VW55X_Wifi_BLE_SDK/GD32VW55x_RELEASE_V1.0.2/MSDK/cloud/alicloud/src/services/dev_bind\awss_notify.c **** {
 2597              		.loc 1 685 1 is_stmt 1
 2598              		.cfi_startproc
 2599 0000 17030000 		call	t0,__riscv_save_2
 2599      E7020300 
 2600              		.cfi_offset 9, -12
 2601              		.cfi_offset 8, -8
 2602              		.cfi_offset 1, -4
 2603              		.cfi_def_cfa_offset 16
 686:C:/Users/stapi/OneDrive/Desktop/GD32VW553/V1_MQTT_OK/GD32VW55X_Wifi_BLE_SDK/GD32VW55x_RELEASE_V1.0.2/MSDK/cloud/alicloud/src/services/dev_bind\awss_notify.c ****     if (devinfo_notify_mutex)
 2604              		.loc 1 686 5
 2605              		.loc 1 686 9 is_stmt 0
 2606 0008 37040000 		lui	s0,%hi(.LANCHOR20)
 2607 000c 03250400 		lw	a0,%lo(.LANCHOR20)(s0)
 2608 0010 13040400 		addi	s0,s0,%lo(.LANCHOR20)
 2609              		.loc 1 686 8
 2610 0014 09C5     		beq	a0,zero,.L207
 687:C:/Users/stapi/OneDrive/Desktop/GD32VW553/V1_MQTT_OK/GD32VW55X_Wifi_BLE_SDK/GD32VW55x_RELEASE_V1.0.2/MSDK/cloud/alicloud/src/services/dev_bind\awss_notify.c ****         HAL_MutexLock(devinfo_notify_mutex);
 2611              		.loc 1 687 9 is_stmt 1
 2612 0016 97000000 		call	HAL_MutexLock
 2612      E7800000 
 2613              	.LVL252:
 2614              	.L207:
 688:C:/Users/stapi/OneDrive/Desktop/GD32VW553/V1_MQTT_OK/GD32VW55X_Wifi_BLE_SDK/GD32VW55x_RELEASE_V1.0.2/MSDK/cloud/alicloud/src/services/dev_bind\awss_notify.c **** 
 689:C:/Users/stapi/OneDrive/Desktop/GD32VW553/V1_MQTT_OK/GD32VW55X_Wifi_BLE_SDK/GD32VW55x_RELEASE_V1.0.2/MSDK/cloud/alicloud/src/services/dev_bind\awss_notify.c ****     do {
 2615              		.loc 1 689 5
 690:C:/Users/stapi/OneDrive/Desktop/GD32VW553/V1_MQTT_OK/GD32VW55X_Wifi_BLE_SDK/GD32VW55x_RELEASE_V1.0.2/MSDK/cloud/alicloud/src/services/dev_bind\awss_notify.c ****         awss_notify_resp[AWSS_NOTIFY_DEV_RAND_SIGN] = 1;
 2616              		.loc 1 690 9
 691:C:/Users/stapi/OneDrive/Desktop/GD32VW553/V1_MQTT_OK/GD32VW55X_Wifi_BLE_SDK/GD32VW55x_RELEASE_V1.0.2/MSDK/cloud/alicloud/src/services/dev_bind\awss_notify.c ****         devinfo_cnt = AWSS_NOTIFY_CNT_MAX;
 692:C:/Users/stapi/OneDrive/Desktop/GD32VW553/V1_MQTT_OK/GD32VW55X_Wifi_BLE_SDK/GD32VW55x_RELEASE_V1.0.2/MSDK/cloud/alicloud/src/services/dev_bind\awss_notify.c ****         if (devinfo_notify_timer == NULL)
 2617              		.loc 1 692 34 is_stmt 0
 2618 001e B7040000 		lui	s1,%hi(.LANCHOR23)
 2619 0022 93840400 		addi	s1,s1,%lo(.LANCHOR23)
 690:C:/Users/stapi/OneDrive/Desktop/GD32VW553/V1_MQTT_OK/GD32VW55X_Wifi_BLE_SDK/GD32VW55x_RELEASE_V1.0.2/MSDK/cloud/alicloud/src/services/dev_bind\awss_notify.c ****         awss_notify_resp[AWSS_NOTIFY_DEV_RAND_SIGN] = 1;
 2620              		.loc 1 690 53
 2621 0026 B7070000 		lui	a5,%hi(.LANCHOR3+2)
 2622 002a 0547     		li	a4,1
 2623              		.loc 1 692 34
 2624 002c 8840     		lw	a0,0(s1)
 690:C:/Users/stapi/OneDrive/Desktop/GD32VW553/V1_MQTT_OK/GD32VW55X_Wifi_BLE_SDK/GD32VW55x_RELEASE_V1.0.2/MSDK/cloud/alicloud/src/services/dev_bind\awss_notify.c ****         awss_notify_resp[AWSS_NOTIFY_DEV_RAND_SIGN] = 1;
 2625              		.loc 1 690 53
 2626 002e 2381E700 		sb	a4,%lo(.LANCHOR3+2)(a5)
 691:C:/Users/stapi/OneDrive/Desktop/GD32VW553/V1_MQTT_OK/GD32VW55X_Wifi_BLE_SDK/GD32VW55x_RELEASE_V1.0.2/MSDK/cloud/alicloud/src/services/dev_bind\awss_notify.c ****         devinfo_cnt = AWSS_NOTIFY_CNT_MAX;
 2627              		.loc 1 691 9 is_stmt 1
 691:C:/Users/stapi/OneDrive/Desktop/GD32VW553/V1_MQTT_OK/GD32VW55X_Wifi_BLE_SDK/GD32VW55x_RELEASE_V1.0.2/MSDK/cloud/alicloud/src/services/dev_bind\awss_notify.c ****         devinfo_cnt = AWSS_NOTIFY_CNT_MAX;
 2628              		.loc 1 691 21 is_stmt 0
 2629 0032 B7070000 		lui	a5,%hi(.LANCHOR22)
 2630 0036 7947     		li	a4,30
 2631 0038 2380E700 		sb	a4,%lo(.LANCHOR22)(a5)
 2632              		.loc 1 692 9 is_stmt 1
 2633              		.loc 1 692 12 is_stmt 0
 2634 003c 19C5     		beq	a0,zero,.L208
 693:C:/Users/stapi/OneDrive/Desktop/GD32VW553/V1_MQTT_OK/GD32VW55X_Wifi_BLE_SDK/GD32VW55x_RELEASE_V1.0.2/MSDK/cloud/alicloud/src/services/dev_bind\awss_notify.c ****             break;
 694:C:/Users/stapi/OneDrive/Desktop/GD32VW553/V1_MQTT_OK/GD32VW55X_Wifi_BLE_SDK/GD32VW55x_RELEASE_V1.0.2/MSDK/cloud/alicloud/src/services/dev_bind\awss_notify.c **** 
 695:C:/Users/stapi/OneDrive/Desktop/GD32VW553/V1_MQTT_OK/GD32VW55X_Wifi_BLE_SDK/GD32VW55x_RELEASE_V1.0.2/MSDK/cloud/alicloud/src/services/dev_bind\awss_notify.c ****         awss_stop_timer(devinfo_notify_timer);
 2635              		.loc 1 695 9 is_stmt 1
 2636 003e 97000000 		call	awss_stop_timer
 2636      E7800000 
 2637              	.LVL253:
 696:C:/Users/stapi/OneDrive/Desktop/GD32VW553/V1_MQTT_OK/GD32VW55X_Wifi_BLE_SDK/GD32VW55x_RELEASE_V1.0.2/MSDK/cloud/alicloud/src/services/dev_bind\awss_notify.c ****         devinfo_notify_timer = NULL;
 2638              		.loc 1 696 9
 2639              		.loc 1 696 30 is_stmt 0
 2640 0046 23A00400 		sw	zero,0(s1)
 2641              	.L208:
 697:C:/Users/stapi/OneDrive/Desktop/GD32VW553/V1_MQTT_OK/GD32VW55X_Wifi_BLE_SDK/GD32VW55x_RELEASE_V1.0.2/MSDK/cloud/alicloud/src/services/dev_bind\awss_notify.c ****     } while (0);
 2642              		.loc 1 697 13 is_stmt 1
 698:C:/Users/stapi/OneDrive/Desktop/GD32VW553/V1_MQTT_OK/GD32VW55X_Wifi_BLE_SDK/GD32VW55x_RELEASE_V1.0.2/MSDK/cloud/alicloud/src/services/dev_bind\awss_notify.c **** 
 699:C:/Users/stapi/OneDrive/Desktop/GD32VW553/V1_MQTT_OK/GD32VW55X_Wifi_BLE_SDK/GD32VW55x_RELEASE_V1.0.2/MSDK/cloud/alicloud/src/services/dev_bind\awss_notify.c ****     awss_cmp_coap_cancel_packet(g_notify_msg_id[AWSS_NOTIFY_DEV_RAND_SIGN]);
 2643              		.loc 1 699 5
 2644 004a B7040000 		lui	s1,%hi(.LANCHOR9)
 2645 004e 93840400 		addi	s1,s1,%lo(.LANCHOR9)
 2646 0052 03D54400 		lhu	a0,4(s1)
 2647 0056 97000000 		call	awss_cmp_coap_cancel_packet
 2647      E7800000 
 2648              	.LVL254:
 700:C:/Users/stapi/OneDrive/Desktop/GD32VW553/V1_MQTT_OK/GD32VW55X_Wifi_BLE_SDK/GD32VW55x_RELEASE_V1.0.2/MSDK/cloud/alicloud/src/services/dev_bind\awss_notify.c ****     g_notify_msg_id[AWSS_NOTIFY_DEV_RAND_SIGN] = 0;
 2649              		.loc 1 700 5
 701:C:/Users/stapi/OneDrive/Desktop/GD32VW553/V1_MQTT_OK/GD32VW55X_Wifi_BLE_SDK/GD32VW55x_RELEASE_V1.0.2/MSDK/cloud/alicloud/src/services/dev_bind\awss_notify.c **** 
 702:C:/Users/stapi/OneDrive/Desktop/GD32VW553/V1_MQTT_OK/GD32VW55X_Wifi_BLE_SDK/GD32VW55x_RELEASE_V1.0.2/MSDK/cloud/alicloud/src/services/dev_bind\awss_notify.c ****     if (devinfo_notify_mutex) {
 2650              		.loc 1 702 9 is_stmt 0
 2651 005e 0840     		lw	a0,0(s0)
 700:C:/Users/stapi/OneDrive/Desktop/GD32VW553/V1_MQTT_OK/GD32VW55X_Wifi_BLE_SDK/GD32VW55x_RELEASE_V1.0.2/MSDK/cloud/alicloud/src/services/dev_bind\awss_notify.c ****     g_notify_msg_id[AWSS_NOTIFY_DEV_RAND_SIGN] = 0;
 2652              		.loc 1 700 48
 2653 0060 23920400 		sh	zero,4(s1)
 2654              		.loc 1 702 5 is_stmt 1
 2655              		.loc 1 702 8 is_stmt 0
 2656 0064 01CD     		beq	a0,zero,.L209
 703:C:/Users/stapi/OneDrive/Desktop/GD32VW553/V1_MQTT_OK/GD32VW55X_Wifi_BLE_SDK/GD32VW55x_RELEASE_V1.0.2/MSDK/cloud/alicloud/src/services/dev_bind\awss_notify.c ****         HAL_MutexUnlock(devinfo_notify_mutex);
 2657              		.loc 1 703 9 is_stmt 1
 2658 0066 97000000 		call	HAL_MutexUnlock
 2658      E7800000 
 2659              	.LVL255:
 704:C:/Users/stapi/OneDrive/Desktop/GD32VW553/V1_MQTT_OK/GD32VW55X_Wifi_BLE_SDK/GD32VW55x_RELEASE_V1.0.2/MSDK/cloud/alicloud/src/services/dev_bind\awss_notify.c ****         HAL_MutexDestroy(devinfo_notify_mutex);
 2660              		.loc 1 704 9
 2661 006e 0840     		lw	a0,0(s0)
 2662 0070 97000000 		call	HAL_MutexDestroy
 2662      E7800000 
 2663              	.LVL256:
 705:C:/Users/stapi/OneDrive/Desktop/GD32VW553/V1_MQTT_OK/GD32VW55X_Wifi_BLE_SDK/GD32VW55x_RELEASE_V1.0.2/MSDK/cloud/alicloud/src/services/dev_bind\awss_notify.c ****         devinfo_notify_mutex = NULL;
 2664              		.loc 1 705 9
 2665              		.loc 1 705 30 is_stmt 0
 2666 0078 23200400 		sw	zero,0(s0)
 2667              	.L209:
 706:C:/Users/stapi/OneDrive/Desktop/GD32VW553/V1_MQTT_OK/GD32VW55X_Wifi_BLE_SDK/GD32VW55x_RELEASE_V1.0.2/MSDK/cloud/alicloud/src/services/dev_bind\awss_notify.c ****     }
 707:C:/Users/stapi/OneDrive/Desktop/GD32VW553/V1_MQTT_OK/GD32VW55X_Wifi_BLE_SDK/GD32VW55x_RELEASE_V1.0.2/MSDK/cloud/alicloud/src/services/dev_bind\awss_notify.c ****     return 0;
 2668              		.loc 1 707 5 is_stmt 1
 708:C:/Users/stapi/OneDrive/Desktop/GD32VW553/V1_MQTT_OK/GD32VW55X_Wifi_BLE_SDK/GD32VW55x_RELEASE_V1.0.2/MSDK/cloud/alicloud/src/services/dev_bind\awss_notify.c **** }
 2669              		.loc 1 708 1 is_stmt 0
 2670 007c 0145     		li	a0,0
 2671 007e 17030000 		tail	__riscv_restore_2
 2671      67000300 
 2672              		.cfi_restore 9
 2673              		.cfi_restore 8
 2674              		.cfi_restore 1
 2675              		.cfi_def_cfa_offset 0
 2676              		.cfi_endproc
 2677              	.LFE81:
 2679              		.section	.rodata.str1.4,"aMS",@progbits,1
 2680              		.align	2
 2681              	.LC41:
 2682 0000 64657669 		.string	"device.info.notify"
 2682      63652E69 
 2682      6E666F2E 
 2682      6E6F7469 
 2682      667900
 2683 0013 00       		.align	2
 2684              	.LC42:
 2685 0014 2F737973 		.string	"/sys/device/info/notify"
 2685      2F646576 
 2685      6963652F 
 2685      696E666F 
 2685      2F6E6F74 
 2686              		.align	2
 2687              	.LC43:
 2688 002c 61777373 		.string	"awss.device.info.notify"
 2688      2E646576 
 2688      6963652E 
 2688      696E666F 
 2688      2E6E6F74 
 2689              		.align	2
 2690              	.LC44:
 2691 0044 2F737973 		.string	"/sys/awss/device/info/notify"
 2691      2F617773 
 2691      732F6465 
 2691      76696365 
 2691      2F696E66 
 2692 0061 000000   		.align	2
 2693              	.LC45:
 2694 0064 61777373 		.string	"awss.event.connectap.notify"
 2694      2E657665 
 2694      6E742E63 
 2694      6F6E6E65 
 2694      63746170 
 2695              		.align	2
 2696              	.LC46:
 2697 0080 2F737973 		.string	"/sys/awss/event/connectap/notify"
 2697      2F617773 
 2697      732F6576 
 2697      656E742F 
 2697      636F6E6E 
 2698              		.section	.bss.g_notify_msg_id,"aw",@nobits
 2699              		.align	2
 2700              		.set	.LANCHOR9,. + 0
 2703              	g_notify_msg_id:
 2704 0000 00000000 		.zero	10
 2704      00000000 
 2704      0000
 2705              		.section	.rodata.__FUNCTION__.0,"a"
 2706              		.align	2
 2707              		.set	.LANCHOR15,. + 0
 2710              	__FUNCTION__.0:
 2711 0000 5F5F6177 		.string	"__awss_suc_notify"
 2711      73735F73 
 2711      75635F6E 
 2711      6F746966 
 2711      7900
 2712              		.section	.rodata.__FUNCTION__.1,"a"
 2713              		.align	2
 2714              		.set	.LANCHOR6,. + 0
 2717              	__FUNCTION__.1:
 2718 0000 61777373 		.string	"awss_process_get_devinfo"
 2718      5F70726F 
 2718      63657373 
 2718      5F676574 
 2718      5F646576 
 2719              		.section	.rodata.__FUNCTION__.3,"a"
 2720              		.align	2
 2721              		.set	.LANCHOR1,. + 0
 2724              	__FUNCTION__.3:
 2725 0000 61777373 		.string	"awss_notify_response"
 2725      5F6E6F74 
 2725      6966795F 
 2725      72657370 
 2725      6F6E7365 
 2726              		.section	.rodata.__FUNCTION__.4,"a"
 2727              		.align	2
 2728              		.set	.LANCHOR8,. + 0
 2731              	__FUNCTION__.4:
 2732 0000 61777373 		.string	"awss_notify_dev_info"
 2732      5F6E6F74 
 2732      6966795F 
 2732      6465765F 
 2732      696E666F 
 2733              		.section	.rodata.__func__.2,"a"
 2734              		.align	2
 2735              		.set	.LANCHOR0,. + 0
 2738              	__func__.2:
 2739 0000 61777373 		.string	"awss_notify_response"
 2739      5F6E6F74 
 2739      6966795F 
 2739      72657370 
 2739      6F6E7365 
 2740              		.section	.rodata.notify_map,"a"
 2741              		.align	2
 2742              		.set	.LANCHOR7,. + 0
 2745              	notify_map:
 2746 0000 01       		.byte	1
 2747 0001 000000   		.zero	3
 2748 0004 00000000 		.word	.LC41
 2749 0008 00000000 		.word	.LC42
 2750 000c 00000000 		.word	awss_dev_bind_notify_resp
 2751 0010 02       		.byte	2
 2752 0011 000000   		.zero	3
 2753 0014 00000000 		.word	.LC43
 2754 0018 00000000 		.word	.LC44
 2755 001c 00000000 		.word	awss_devinfo_notify_resp
 2756 0020 03       		.byte	3
 2757 0021 000000   		.zero	3
 2758 0024 00000000 		.word	.LC45
 2759 0028 00000000 		.word	.LC46
 2760 002c 00000000 		.word	awss_suc_notify_resp
 2761              		.section	.sbss.awss_notify_resp,"aw",@nobits
 2762              		.align	2
 2763              		.set	.LANCHOR3,. + 0
 2766              	awss_notify_resp:
 2767 0000 00000000 		.zero	5
 2767      00
 2768              		.section	.sbss.coap_session_ctx,"aw",@nobits
 2769              		.align	2
 2770              		.set	.LANCHOR4,. + 0
 2773              	coap_session_ctx:
 2774 0000 00000000 		.zero	4
 2775              		.section	.sbss.dev_bind_cnt,"aw",@nobits
 2776              		.set	.LANCHOR12,. + 0
 2779              	dev_bind_cnt:
 2780 0000 00       		.zero	1
 2781              		.section	.sbss.dev_bind_interval,"aw",@nobits
 2782              		.align	2
 2783              		.set	.LANCHOR13,. + 0
 2786              	dev_bind_interval:
 2787 0000 00000000 		.zero	4
 2788              		.section	.sbss.dev_bind_notify_mutex,"aw",@nobits
 2789              		.align	2
 2790              		.set	.LANCHOR11,. + 0
 2793              	dev_bind_notify_mutex:
 2794 0000 00000000 		.zero	4
 2795              		.section	.sbss.dev_bind_notify_timer,"aw",@nobits
 2796              		.align	2
 2797              		.set	.LANCHOR10,. + 0
 2800              	dev_bind_notify_timer:
 2801 0000 00000000 		.zero	4
 2802              		.section	.sbss.dev_sync_token,"aw",@nobits
 2803              		.set	.LANCHOR14,. + 0
 2806              	dev_sync_token:
 2807 0000 00       		.zero	1
 2808              		.section	.sbss.devinfo_cnt,"aw",@nobits
 2809              		.set	.LANCHOR22,. + 0
 2812              	devinfo_cnt:
 2813 0000 00       		.zero	1
 2814              		.section	.sbss.devinfo_interval,"aw",@nobits
 2815              		.align	2
 2816              		.set	.LANCHOR21,. + 0
 2819              	devinfo_interval:
 2820 0000 00000000 		.zero	4
 2821              		.section	.sbss.devinfo_notify_mutex,"aw",@nobits
 2822              		.align	2
 2823              		.set	.LANCHOR20,. + 0
 2826              	devinfo_notify_mutex:
 2827 0000 00000000 		.zero	4
 2828              		.section	.sbss.devinfo_notify_timer,"aw",@nobits
 2829              		.align	2
 2830              		.set	.LANCHOR23,. + 0
 2833              	devinfo_notify_timer:
 2834 0000 00000000 		.zero	4
 2835              		.section	.sbss.g_notify_id,"aw",@nobits
 2836              		.set	.LANCHOR2,. + 0
 2839              	g_notify_id:
 2840 0000 00       		.zero	1
 2841              		.section	.sbss.get_devinfo_timer,"aw",@nobits
 2842              		.align	2
 2843              		.set	.LANCHOR5,. + 0
 2846              	get_devinfo_timer:
 2847 0000 00000000 		.zero	4
 2848              		.section	.sbss.suc_cnt,"aw",@nobits
 2849              		.set	.LANCHOR17,. + 0
 2852              	suc_cnt:
 2853 0000 00       		.zero	1
 2854              		.section	.sbss.suc_interval,"aw",@nobits
 2855              		.align	2
 2856              		.set	.LANCHOR18,. + 0
 2859              	suc_interval:
 2860 0000 00000000 		.zero	4
 2861              		.section	.sbss.success_notify_mutex,"aw",@nobits
 2862              		.align	2
 2863              		.set	.LANCHOR16,. + 0
 2866              	success_notify_mutex:
 2867 0000 00000000 		.zero	4
 2868              		.section	.sbss.success_notify_timer,"aw",@nobits
 2869              		.align	2
 2870              		.set	.LANCHOR19,. + 0
 2873              	success_notify_timer:
 2874 0000 00000000 		.zero	4
 2875              		.text
 2876              	.Letext0:
 2877              		.file 3 "c:\\users\\stapi\\onedrive\\desktop\\gd32vw553\\embeddedbuilder_v1.4.7.26843\\tools\\nucl
 2878              		.file 4 "c:\\users\\stapi\\onedrive\\desktop\\gd32vw553\\embeddedbuilder_v1.4.7.26843\\tools\\nucl
 2879              		.file 5 "..\\..\\..\\..\\cloud\\alicloud\\include/iot_export.h"
 2880              		.file 6 "C:/Users/stapi/OneDrive/Desktop/GD32VW553/V1_MQTT_OK/GD32VW55X_Wifi_BLE_SDK/GD32VW55x_REL
 2881              		.file 7 "C:/Users/stapi/OneDrive/Desktop/GD32VW553/V1_MQTT_OK/GD32VW55X_Wifi_BLE_SDK/GD32VW55x_REL
 2882              		.file 8 "C:/Users/stapi/OneDrive/Desktop/GD32VW553/V1_MQTT_OK/GD32VW55X_Wifi_BLE_SDK/GD32VW55x_REL
 2883              		.file 9 "..\\..\\..\\..\\cloud\\alicloud\\include/iot_import.h"
 2884              		.file 10 "C:/Users/stapi/OneDrive/Desktop/GD32VW553/V1_MQTT_OK/GD32VW55X_Wifi_BLE_SDK/GD32VW55x_RE
 2885              		.file 11 "..\\..\\..\\..\\cloud\\alicloud\\src\\infra\\log/iotx_log.h"
 2886              		.file 12 "C:/Users/stapi/OneDrive/Desktop/GD32VW553/V1_MQTT_OK/GD32VW55X_Wifi_BLE_SDK/GD32VW55x_RE
 2887              		.file 13 "..\\..\\..\\..\\cloud\\alicloud\\src\\infra\\utils\\misc/json_parser.h"
 2888              		.file 14 "<built-in>"
 2889              		.file 15 "C:/Users/stapi/OneDrive/Desktop/GD32VW553/V1_MQTT_OK/GD32VW55X_Wifi_BLE_SDK/GD32VW55x_RE
 2890              		.file 16 "c:\\users\\stapi\\onedrive\\desktop\\gd32vw553\\embeddedbuilder_v1.4.7.26843\\tools\\nuc
 2891              		.file 17 "..\\..\\..\\..\\cloud\\alicloud\\src\\infra\\utils/iotx_utils.h"
 2892              		.file 18 "c:\\users\\stapi\\onedrive\\desktop\\gd32vw553\\embeddedbuilder_v1.4.7.26843\\tools\\nuc
 2893              		.file 19 "c:\\users\\stapi\\onedrive\\desktop\\gd32vw553\\embeddedbuilder_v1.4.7.26843\\tools\\nuc
 2894              		.file 20 "..\\..\\..\\..\\cloud\\alicloud\\include/exports/iot_export_awss.h"
 2895              		.file 21 "..\\..\\..\\..\\cloud\\alicloud\\include/exports/iot_export_event.h"
DEFINED SYMBOLS
                            *ABS*:0000000000000000 awss_notify.c
C:\Users\stapi\AppData\Local\Temp\ccQLRcFb.s:46     .text.awss_notify_response:0000000000000000 awss_notify_response
C:\Users\stapi\AppData\Local\Temp\ccQLRcFb.s:50     .text.awss_notify_response:0000000000000000 .L0 
C:\Users\stapi\AppData\Local\Temp\ccQLRcFb.s:52     .text.awss_notify_response:0000000000000000 .L0 
C:\Users\stapi\AppData\Local\Temp\ccQLRcFb.s:53     .text.awss_notify_response:0000000000000008 .L0 
C:\Users\stapi\AppData\Local\Temp\ccQLRcFb.s:54     .text.awss_notify_response:0000000000000008 .L0 
C:\Users\stapi\AppData\Local\Temp\ccQLRcFb.s:55     .text.awss_notify_response:0000000000000008 .L0 
C:\Users\stapi\AppData\Local\Temp\ccQLRcFb.s:56     .text.awss_notify_response:0000000000000008 .L0 
C:\Users\stapi\AppData\Local\Temp\ccQLRcFb.s:57     .text.awss_notify_response:0000000000000008 .L0 
C:\Users\stapi\AppData\Local\Temp\ccQLRcFb.s:58     .text.awss_notify_response:0000000000000008 .L0 
C:\Users\stapi\AppData\Local\Temp\ccQLRcFb.s:59     .text.awss_notify_response:0000000000000008 .L0 
C:\Users\stapi\AppData\Local\Temp\ccQLRcFb.s:62     .text.awss_notify_response:0000000000000008 .L0 
C:\Users\stapi\AppData\Local\Temp\ccQLRcFb.s:63     .text.awss_notify_response:0000000000000008 .L0 
C:\Users\stapi\AppData\Local\Temp\ccQLRcFb.s:64     .text.awss_notify_response:0000000000000008 .L0 
C:\Users\stapi\AppData\Local\Temp\ccQLRcFb.s:69     .text.awss_notify_response:0000000000000018 .L0 
C:\Users\stapi\AppData\Local\Temp\ccQLRcFb.s:71     .text.awss_notify_response:000000000000001c .L0 
C:\Users\stapi\AppData\Local\Temp\ccQLRcFb.s:73     .text.awss_notify_response:000000000000001c .L0 
C:\Users\stapi\AppData\Local\Temp\ccQLRcFb.s:76     .text.awss_notify_response:0000000000000020 .L0 
C:\Users\stapi\AppData\Local\Temp\ccQLRcFb.s:90     .text.awss_notify_response:0000000000000042 .L0 
C:\Users\stapi\AppData\Local\Temp\ccQLRcFb.s:91     .text.awss_notify_response:0000000000000042 .L0 
C:\Users\stapi\AppData\Local\Temp\ccQLRcFb.s:96     .text.awss_notify_response:0000000000000044 .L0 
C:\Users\stapi\AppData\Local\Temp\ccQLRcFb.s:102    .text.awss_notify_response:000000000000004a .L0 
C:\Users\stapi\AppData\Local\Temp\ccQLRcFb.s:103    .text.awss_notify_response:000000000000004a .L0 
C:\Users\stapi\AppData\Local\Temp\ccQLRcFb.s:105    .text.awss_notify_response:000000000000004e .L0 
C:\Users\stapi\AppData\Local\Temp\ccQLRcFb.s:106    .text.awss_notify_response:000000000000004e .L0 
C:\Users\stapi\AppData\Local\Temp\ccQLRcFb.s:110    .text.awss_notify_response:0000000000000058 .L0 
C:\Users\stapi\AppData\Local\Temp\ccQLRcFb.s:111    .text.awss_notify_response:0000000000000058 .L0 
C:\Users\stapi\AppData\Local\Temp\ccQLRcFb.s:115    .text.awss_notify_response:0000000000000060 .L0 
C:\Users\stapi\AppData\Local\Temp\ccQLRcFb.s:117    .text.awss_notify_response:0000000000000060 .L0 
C:\Users\stapi\AppData\Local\Temp\ccQLRcFb.s:118    .text.awss_notify_response:0000000000000060 .L0 
C:\Users\stapi\AppData\Local\Temp\ccQLRcFb.s:119    .text.awss_notify_response:0000000000000060 .L0 
C:\Users\stapi\AppData\Local\Temp\ccQLRcFb.s:123    .text.awss_notify_response:0000000000000064 .L0 
C:\Users\stapi\AppData\Local\Temp\ccQLRcFb.s:125    .text.awss_notify_response:0000000000000066 .L0 
C:\Users\stapi\AppData\Local\Temp\ccQLRcFb.s:128    .text.awss_notify_response:0000000000000068 .L0 
C:\Users\stapi\AppData\Local\Temp\ccQLRcFb.s:129    .text.awss_notify_response:0000000000000068 .L0 
C:\Users\stapi\AppData\Local\Temp\ccQLRcFb.s:130    .text.awss_notify_response:0000000000000068 .L0 
C:\Users\stapi\AppData\Local\Temp\ccQLRcFb.s:135    .text.awss_notify_response:0000000000000072 .L0 
C:\Users\stapi\AppData\Local\Temp\ccQLRcFb.s:137    .text.awss_notify_response:0000000000000074 .L0 
C:\Users\stapi\AppData\Local\Temp\ccQLRcFb.s:139    .text.awss_notify_response:0000000000000076 .L0 
C:\Users\stapi\AppData\Local\Temp\ccQLRcFb.s:142    .text.awss_notify_response:000000000000007e .L0 
C:\Users\stapi\AppData\Local\Temp\ccQLRcFb.s:145    .text.awss_notify_response:0000000000000080 .L0 
C:\Users\stapi\AppData\Local\Temp\ccQLRcFb.s:146    .text.awss_notify_response:0000000000000080 .L0 
C:\Users\stapi\AppData\Local\Temp\ccQLRcFb.s:151    .text.awss_notify_response:0000000000000090 .L0 
C:\Users\stapi\AppData\Local\Temp\ccQLRcFb.s:157    .text.awss_notify_response:000000000000009a .L0 
C:\Users\stapi\AppData\Local\Temp\ccQLRcFb.s:160    .text.awss_notify_response:00000000000000a2 .L0 
C:\Users\stapi\AppData\Local\Temp\ccQLRcFb.s:164    .text.awss_notify_response:00000000000000a4 .L0 
C:\Users\stapi\AppData\Local\Temp\ccQLRcFb.s:174    .text.awss_notify_response:00000000000000c4 .L0 
C:\Users\stapi\AppData\Local\Temp\ccQLRcFb.s:175    .text.awss_notify_response:00000000000000c4 .L0 
C:\Users\stapi\AppData\Local\Temp\ccQLRcFb.s:184    .text.awss_notify_response:00000000000000dc .L0 
C:\Users\stapi\AppData\Local\Temp\ccQLRcFb.s:185    .text.awss_notify_response:00000000000000dc .L0 
C:\Users\stapi\AppData\Local\Temp\ccQLRcFb.s:187    .text.awss_notify_response:00000000000000de .L0 
C:\Users\stapi\AppData\Local\Temp\ccQLRcFb.s:188    .text.awss_notify_response:00000000000000de .L0 
C:\Users\stapi\AppData\Local\Temp\ccQLRcFb.s:194    .text.awss_notify_response:00000000000000ee .L0 
C:\Users\stapi\AppData\Local\Temp\ccQLRcFb.s:199    .text.awss_notify_response:00000000000000f6 .L0 
C:\Users\stapi\AppData\Local\Temp\ccQLRcFb.s:203    .text.awss_notify_response:00000000000000fe .L0 
C:\Users\stapi\AppData\Local\Temp\ccQLRcFb.s:208    .text.awss_notify_response:000000000000010e .L0 
C:\Users\stapi\AppData\Local\Temp\ccQLRcFb.s:209    .text.awss_notify_response:000000000000010e .L0 
C:\Users\stapi\AppData\Local\Temp\ccQLRcFb.s:210    .text.awss_notify_response:000000000000010e .L0 
C:\Users\stapi\AppData\Local\Temp\ccQLRcFb.s:214    .text.awss_notify_response:0000000000000110 .L0 
C:\Users\stapi\AppData\Local\Temp\ccQLRcFb.s:215    .text.awss_notify_response:0000000000000110 .L0 
C:\Users\stapi\AppData\Local\Temp\ccQLRcFb.s:218    .text.awss_notify_response:0000000000000118 .L0 
C:\Users\stapi\AppData\Local\Temp\ccQLRcFb.s:219    .text.awss_notify_response:0000000000000118 .L0 
C:\Users\stapi\AppData\Local\Temp\ccQLRcFb.s:222    .text.awss_notify_response:0000000000000120 .L0 
C:\Users\stapi\AppData\Local\Temp\ccQLRcFb.s:225    .text.awss_notify_response:0000000000000128 .L0 
C:\Users\stapi\AppData\Local\Temp\ccQLRcFb.s:228    .text.awss_notify_response:000000000000012c .L0 
C:\Users\stapi\AppData\Local\Temp\ccQLRcFb.s:229    .text.awss_notify_response:000000000000012c .L0 
C:\Users\stapi\AppData\Local\Temp\ccQLRcFb.s:239    .text.awss_notify_response:0000000000000144 .L0 
C:\Users\stapi\AppData\Local\Temp\ccQLRcFb.s:240    .text.awss_notify_response:0000000000000144 .L0 
C:\Users\stapi\AppData\Local\Temp\ccQLRcFb.s:242    .text.awss_notify_response:0000000000000146 .L0 
C:\Users\stapi\AppData\Local\Temp\ccQLRcFb.s:243    .text.awss_notify_response:0000000000000146 .L0 
C:\Users\stapi\AppData\Local\Temp\ccQLRcFb.s:249    .text.awss_notify_response:0000000000000156 .L0 
C:\Users\stapi\AppData\Local\Temp\ccQLRcFb.s:255    .text.awss_notify_response:0000000000000160 .L0 
C:\Users\stapi\AppData\Local\Temp\ccQLRcFb.s:256    .text.awss_notify_response:0000000000000160 .L0 
C:\Users\stapi\AppData\Local\Temp\ccQLRcFb.s:259    .text.awss_notify_response:0000000000000168 .L0 
C:\Users\stapi\AppData\Local\Temp\ccQLRcFb.s:260    .text.awss_notify_response:0000000000000168 .L0 
C:\Users\stapi\AppData\Local\Temp\ccQLRcFb.s:264    .text.awss_notify_response:0000000000000172 .L0 
C:\Users\stapi\AppData\Local\Temp\ccQLRcFb.s:265    .text.awss_notify_response:0000000000000172 .L0 
C:\Users\stapi\AppData\Local\Temp\ccQLRcFb.s:271    .text.awss_notify_response:0000000000000182 .L0 
C:\Users\stapi\AppData\Local\Temp\ccQLRcFb.s:279    .text.awss_notify_response:000000000000018e .L0 
C:\Users\stapi\AppData\Local\Temp\ccQLRcFb.s:280    .text.awss_notify_response:000000000000018e .L0 
C:\Users\stapi\AppData\Local\Temp\ccQLRcFb.s:281    .text.awss_notify_response:000000000000018e .L0 
C:\Users\stapi\AppData\Local\Temp\ccQLRcFb.s:282    .text.awss_notify_response:000000000000018e .L0 
C:\Users\stapi\AppData\Local\Temp\ccQLRcFb.s:283    .text.awss_notify_response:000000000000018e .L0 
C:\Users\stapi\AppData\Local\Temp\ccQLRcFb.s:284    .text.awss_notify_response:000000000000018e .L0 
C:\Users\stapi\AppData\Local\Temp\ccQLRcFb.s:291    .text.awss_notify_response:00000000000001a0 .L0 
C:\Users\stapi\AppData\Local\Temp\ccQLRcFb.s:292    .text.awss_notify_response:00000000000001a0 .L0 
C:\Users\stapi\AppData\Local\Temp\ccQLRcFb.s:293    .text.awss_notify_response:00000000000001a0 .L0 
C:\Users\stapi\AppData\Local\Temp\ccQLRcFb.s:297    .text.awss_notify_response:00000000000001a2 .L0 
C:\Users\stapi\AppData\Local\Temp\ccQLRcFb.s:298    .text.awss_notify_response:00000000000001a4 .L0 
C:\Users\stapi\AppData\Local\Temp\ccQLRcFb.s:300    .text.awss_notify_response:00000000000001ac .L0 
C:\Users\stapi\AppData\Local\Temp\ccQLRcFb.s:301    .text.awss_notify_response:00000000000001ac .L0 
C:\Users\stapi\AppData\Local\Temp\ccQLRcFb.s:302    .text.awss_notify_response:00000000000001ac .L0 
C:\Users\stapi\AppData\Local\Temp\ccQLRcFb.s:303    .text.awss_notify_response:00000000000001ac .L0 
C:\Users\stapi\AppData\Local\Temp\ccQLRcFb.s:304    .text.awss_notify_response:00000000000001ac .L0 
C:\Users\stapi\AppData\Local\Temp\ccQLRcFb.s:305    .text.awss_notify_response:00000000000001ac .L0 
C:\Users\stapi\AppData\Local\Temp\ccQLRcFb.s:306    .text.awss_notify_response:00000000000001ac .L0 
C:\Users\stapi\AppData\Local\Temp\ccQLRcFb.s:307    .text.awss_notify_response:00000000000001ac .L0 
C:\Users\stapi\AppData\Local\Temp\ccQLRcFb.s:313    .text.awss_suc_notify_resp:0000000000000000 awss_suc_notify_resp
C:\Users\stapi\AppData\Local\Temp\ccQLRcFb.s:316    .text.awss_suc_notify_resp:0000000000000000 .L0 
C:\Users\stapi\AppData\Local\Temp\ccQLRcFb.s:318    .text.awss_suc_notify_resp:0000000000000000 .L0 
C:\Users\stapi\AppData\Local\Temp\ccQLRcFb.s:319    .text.awss_suc_notify_resp:0000000000000000 .L0 
C:\Users\stapi\AppData\Local\Temp\ccQLRcFb.s:320    .text.awss_suc_notify_resp:0000000000000000 .L0 
C:\Users\stapi\AppData\Local\Temp\ccQLRcFb.s:326    .text.awss_suc_notify_resp:000000000000000c .L0 
C:\Users\stapi\AppData\Local\Temp\ccQLRcFb.s:332    .text.awss_devinfo_notify_resp:0000000000000000 awss_devinfo_notify_resp
C:\Users\stapi\AppData\Local\Temp\ccQLRcFb.s:335    .text.awss_devinfo_notify_resp:0000000000000000 .L0 
C:\Users\stapi\AppData\Local\Temp\ccQLRcFb.s:337    .text.awss_devinfo_notify_resp:0000000000000000 .L0 
C:\Users\stapi\AppData\Local\Temp\ccQLRcFb.s:338    .text.awss_devinfo_notify_resp:0000000000000000 .L0 
C:\Users\stapi\AppData\Local\Temp\ccQLRcFb.s:339    .text.awss_devinfo_notify_resp:0000000000000000 .L0 
C:\Users\stapi\AppData\Local\Temp\ccQLRcFb.s:345    .text.awss_devinfo_notify_resp:000000000000000c .L0 
C:\Users\stapi\AppData\Local\Temp\ccQLRcFb.s:351    .text.awss_dev_bind_notify_resp:0000000000000000 awss_dev_bind_notify_resp
C:\Users\stapi\AppData\Local\Temp\ccQLRcFb.s:354    .text.awss_dev_bind_notify_resp:0000000000000000 .L0 
C:\Users\stapi\AppData\Local\Temp\ccQLRcFb.s:356    .text.awss_dev_bind_notify_resp:0000000000000000 .L0 
C:\Users\stapi\AppData\Local\Temp\ccQLRcFb.s:357    .text.awss_dev_bind_notify_resp:0000000000000008 .L0 
C:\Users\stapi\AppData\Local\Temp\ccQLRcFb.s:358    .text.awss_dev_bind_notify_resp:0000000000000008 .L0 
C:\Users\stapi\AppData\Local\Temp\ccQLRcFb.s:359    .text.awss_dev_bind_notify_resp:0000000000000008 .L0 
C:\Users\stapi\AppData\Local\Temp\ccQLRcFb.s:361    .text.awss_dev_bind_notify_resp:0000000000000008 .L0 
C:\Users\stapi\AppData\Local\Temp\ccQLRcFb.s:362    .text.awss_dev_bind_notify_resp:0000000000000008 .L0 
C:\Users\stapi\AppData\Local\Temp\ccQLRcFb.s:369    .text.awss_dev_bind_notify_resp:0000000000000014 .L0 
C:\Users\stapi\AppData\Local\Temp\ccQLRcFb.s:371    .text.awss_dev_bind_notify_resp:0000000000000016 .L0 
C:\Users\stapi\AppData\Local\Temp\ccQLRcFb.s:374    .text.awss_dev_bind_notify_resp:0000000000000018 .L0 
C:\Users\stapi\AppData\Local\Temp\ccQLRcFb.s:375    .text.awss_dev_bind_notify_resp:0000000000000018 .L0 
C:\Users\stapi\AppData\Local\Temp\ccQLRcFb.s:377    .text.awss_dev_bind_notify_resp:000000000000001c .L0 
C:\Users\stapi\AppData\Local\Temp\ccQLRcFb.s:381    .text.awss_dev_bind_notify_resp:0000000000000024 .L0 
C:\Users\stapi\AppData\Local\Temp\ccQLRcFb.s:382    .text.awss_dev_bind_notify_resp:0000000000000024 .L0 
C:\Users\stapi\AppData\Local\Temp\ccQLRcFb.s:384    .text.awss_dev_bind_notify_resp:000000000000002e .L0 
C:\Users\stapi\AppData\Local\Temp\ccQLRcFb.s:385    .text.awss_dev_bind_notify_resp:000000000000002e .L0 
C:\Users\stapi\AppData\Local\Temp\ccQLRcFb.s:386    .text.awss_dev_bind_notify_resp:000000000000002e .L0 
C:\Users\stapi\AppData\Local\Temp\ccQLRcFb.s:387    .text.awss_dev_bind_notify_resp:000000000000002e .L0 
C:\Users\stapi\AppData\Local\Temp\ccQLRcFb.s:409    .text.online_get_device_info.constprop.0:0000000000000000 online_get_device_info.constprop.0
C:\Users\stapi\AppData\Local\Temp\ccQLRcFb.s:412    .text.online_get_device_info.constprop.0:0000000000000000 .L0 
C:\Users\stapi\AppData\Local\Temp\ccQLRcFb.s:414    .text.online_get_device_info.constprop.0:0000000000000000 .L0 
C:\Users\stapi\AppData\Local\Temp\ccQLRcFb.s:415    .text.online_get_device_info.constprop.0:0000000000000008 .L0 
C:\Users\stapi\AppData\Local\Temp\ccQLRcFb.s:416    .text.online_get_device_info.constprop.0:0000000000000008 .L0 
C:\Users\stapi\AppData\Local\Temp\ccQLRcFb.s:417    .text.online_get_device_info.constprop.0:0000000000000008 .L0 
C:\Users\stapi\AppData\Local\Temp\ccQLRcFb.s:418    .text.online_get_device_info.constprop.0:0000000000000008 .L0 
C:\Users\stapi\AppData\Local\Temp\ccQLRcFb.s:419    .text.online_get_device_info.constprop.0:0000000000000008 .L0 
C:\Users\stapi\AppData\Local\Temp\ccQLRcFb.s:420    .text.online_get_device_info.constprop.0:0000000000000008 .L0 
C:\Users\stapi\AppData\Local\Temp\ccQLRcFb.s:421    .text.online_get_device_info.constprop.0:0000000000000008 .L0 
C:\Users\stapi\AppData\Local\Temp\ccQLRcFb.s:422    .text.online_get_device_info.constprop.0:0000000000000008 .L0 
C:\Users\stapi\AppData\Local\Temp\ccQLRcFb.s:425    .text.online_get_device_info.constprop.0:0000000000000008 .L0 
C:\Users\stapi\AppData\Local\Temp\ccQLRcFb.s:426    .text.online_get_device_info.constprop.0:0000000000000008 .L0 
C:\Users\stapi\AppData\Local\Temp\ccQLRcFb.s:427    .text.online_get_device_info.constprop.0:0000000000000008 .L0 
C:\Users\stapi\AppData\Local\Temp\ccQLRcFb.s:429    .text.online_get_device_info.constprop.0:000000000000000a .L0 
C:\Users\stapi\AppData\Local\Temp\ccQLRcFb.s:433    .text.online_get_device_info.constprop.0:0000000000000010 .L0 
C:\Users\stapi\AppData\Local\Temp\ccQLRcFb.s:436    .text.online_get_device_info.constprop.0:0000000000000014 .L0 
C:\Users\stapi\AppData\Local\Temp\ccQLRcFb.s:444    .text.online_get_device_info.constprop.0:0000000000000026 .L0 
C:\Users\stapi\AppData\Local\Temp\ccQLRcFb.s:445    .text.online_get_device_info.constprop.0:0000000000000026 .L0 
C:\Users\stapi\AppData\Local\Temp\ccQLRcFb.s:449    .text.online_get_device_info.constprop.0:0000000000000030 .L0 
C:\Users\stapi\AppData\Local\Temp\ccQLRcFb.s:451    .text.online_get_device_info.constprop.0:0000000000000032 .L0 
C:\Users\stapi\AppData\Local\Temp\ccQLRcFb.s:458    .text.online_get_device_info.constprop.0:0000000000000048 .L0 
C:\Users\stapi\AppData\Local\Temp\ccQLRcFb.s:459    .text.online_get_device_info.constprop.0:0000000000000048 .L0 
C:\Users\stapi\AppData\Local\Temp\ccQLRcFb.s:463    .text.online_get_device_info.constprop.0:000000000000004c .L0 
C:\Users\stapi\AppData\Local\Temp\ccQLRcFb.s:465    .text.online_get_device_info.constprop.0:0000000000000056 .L0 
C:\Users\stapi\AppData\Local\Temp\ccQLRcFb.s:466    .text.online_get_device_info.constprop.0:0000000000000056 .L0 
C:\Users\stapi\AppData\Local\Temp\ccQLRcFb.s:467    .text.online_get_device_info.constprop.0:0000000000000056 .L0 
C:\Users\stapi\AppData\Local\Temp\ccQLRcFb.s:468    .text.online_get_device_info.constprop.0:0000000000000056 .L0 
C:\Users\stapi\AppData\Local\Temp\ccQLRcFb.s:469    .text.online_get_device_info.constprop.0:0000000000000056 .L0 
C:\Users\stapi\AppData\Local\Temp\ccQLRcFb.s:470    .text.online_get_device_info.constprop.0:0000000000000056 .L0 
C:\Users\stapi\AppData\Local\Temp\ccQLRcFb.s:471    .text.online_get_device_info.constprop.0:0000000000000056 .L0 
C:\Users\stapi\AppData\Local\Temp\ccQLRcFb.s:472    .text.online_get_device_info.constprop.0:0000000000000056 .L0 
C:\Users\stapi\AppData\Local\Temp\ccQLRcFb.s:473    .text.online_get_device_info.constprop.0:0000000000000056 .L0 
C:\Users\stapi\AppData\Local\Temp\ccQLRcFb.s:476    .text.online_get_device_info.constprop.0:0000000000000056 .L0 
C:\Users\stapi\AppData\Local\Temp\ccQLRcFb.s:478    .text.online_get_device_info.constprop.0:0000000000000056 .L0 
C:\Users\stapi\AppData\Local\Temp\ccQLRcFb.s:479    .text.online_get_device_info.constprop.0:0000000000000056 .L0 
C:\Users\stapi\AppData\Local\Temp\ccQLRcFb.s:482    .text.online_get_device_info.constprop.0:000000000000005e .L0 
C:\Users\stapi\AppData\Local\Temp\ccQLRcFb.s:485    .text.online_get_device_info.constprop.0:0000000000000064 .L0 
C:\Users\stapi\AppData\Local\Temp\ccQLRcFb.s:489    .text.online_get_device_info.constprop.0:000000000000006c .L0 
C:\Users\stapi\AppData\Local\Temp\ccQLRcFb.s:494    .text.online_get_device_info.constprop.0:000000000000007a .L0 
C:\Users\stapi\AppData\Local\Temp\ccQLRcFb.s:495    .text.online_get_device_info.constprop.0:000000000000007a .L0 
C:\Users\stapi\AppData\Local\Temp\ccQLRcFb.s:500    .text.online_get_device_info.constprop.0:0000000000000082 .L0 
C:\Users\stapi\AppData\Local\Temp\ccQLRcFb.s:501    .text.online_get_device_info.constprop.0:0000000000000082 .L0 
C:\Users\stapi\AppData\Local\Temp\ccQLRcFb.s:507    .text.online_get_device_info.constprop.0:0000000000000090 .L0 
C:\Users\stapi\AppData\Local\Temp\ccQLRcFb.s:509    .text.online_get_device_info.constprop.0:0000000000000094 .L0 
C:\Users\stapi\AppData\Local\Temp\ccQLRcFb.s:510    .text.online_get_device_info.constprop.0:0000000000000094 .L0 
C:\Users\stapi\AppData\Local\Temp\ccQLRcFb.s:512    .text.online_get_device_info.constprop.0:0000000000000096 .L0 
C:\Users\stapi\AppData\Local\Temp\ccQLRcFb.s:517    .text.online_get_device_info.constprop.0:00000000000000a0 .L0 
C:\Users\stapi\AppData\Local\Temp\ccQLRcFb.s:518    .text.online_get_device_info.constprop.0:00000000000000a0 .L0 
C:\Users\stapi\AppData\Local\Temp\ccQLRcFb.s:523    .text.online_get_device_info.constprop.0:00000000000000aa .L0 
C:\Users\stapi\AppData\Local\Temp\ccQLRcFb.s:524    .text.online_get_device_info.constprop.0:00000000000000aa .L0 
C:\Users\stapi\AppData\Local\Temp\ccQLRcFb.s:526    .text.online_get_device_info.constprop.0:00000000000000ac .L0 
C:\Users\stapi\AppData\Local\Temp\ccQLRcFb.s:533    .text.online_get_device_info.constprop.0:00000000000000be .L0 
C:\Users\stapi\AppData\Local\Temp\ccQLRcFb.s:537    .text.online_get_device_info.constprop.0:00000000000000c6 .L0 
C:\Users\stapi\AppData\Local\Temp\ccQLRcFb.s:538    .text.online_get_device_info.constprop.0:00000000000000c6 .L0 
C:\Users\stapi\AppData\Local\Temp\ccQLRcFb.s:540    .text.online_get_device_info.constprop.0:00000000000000ca .L0 
C:\Users\stapi\AppData\Local\Temp\ccQLRcFb.s:544    .text.online_get_device_info.constprop.0:00000000000000d4 .L0 
C:\Users\stapi\AppData\Local\Temp\ccQLRcFb.s:651    .text.awss_process_get_devinfo:0000000000000000 awss_process_get_devinfo
C:\Users\stapi\AppData\Local\Temp\ccQLRcFb.s:545    .text.online_get_device_info.constprop.0:00000000000000d4 .L0 
C:\Users\stapi\AppData\Local\Temp\ccQLRcFb.s:553    .text.online_get_device_info.constprop.0:00000000000000ee .L0 
C:\Users\stapi\AppData\Local\Temp\ccQLRcFb.s:556    .text.online_get_device_info.constprop.0:00000000000000f0 .L0 
C:\Users\stapi\AppData\Local\Temp\ccQLRcFb.s:560    .text.online_get_device_info.constprop.0:00000000000000fa .L0 
C:\Users\stapi\AppData\Local\Temp\ccQLRcFb.s:568    .text.online_get_device_info.constprop.0:000000000000010e .L0 
C:\Users\stapi\AppData\Local\Temp\ccQLRcFb.s:569    .text.online_get_device_info.constprop.0:000000000000010e .L0 
C:\Users\stapi\AppData\Local\Temp\ccQLRcFb.s:570    .text.online_get_device_info.constprop.0:0000000000000110 .L0 
C:\Users\stapi\AppData\Local\Temp\ccQLRcFb.s:576    .text.os_zalloc.constprop.0:0000000000000000 os_zalloc.constprop.0
C:\Users\stapi\AppData\Local\Temp\ccQLRcFb.s:580    .text.os_zalloc.constprop.0:0000000000000000 .L0 
C:\Users\stapi\AppData\Local\Temp\ccQLRcFb.s:581    .text.os_zalloc.constprop.0:0000000000000000 .L0 
C:\Users\stapi\AppData\Local\Temp\ccQLRcFb.s:582    .text.os_zalloc.constprop.0:0000000000000008 .L0 
C:\Users\stapi\AppData\Local\Temp\ccQLRcFb.s:583    .text.os_zalloc.constprop.0:0000000000000008 .L0 
C:\Users\stapi\AppData\Local\Temp\ccQLRcFb.s:584    .text.os_zalloc.constprop.0:0000000000000008 .L0 
C:\Users\stapi\AppData\Local\Temp\ccQLRcFb.s:589    .text.os_zalloc.constprop.0:0000000000000008 .L0 
C:\Users\stapi\AppData\Local\Temp\ccQLRcFb.s:590    .text.os_zalloc.constprop.0:0000000000000008 .L0 
C:\Users\stapi\AppData\Local\Temp\ccQLRcFb.s:591    .text.os_zalloc.constprop.0:0000000000000008 .L0 
C:\Users\stapi\AppData\Local\Temp\ccQLRcFb.s:599    .text.os_zalloc.constprop.0:0000000000000016 .L0 
C:\Users\stapi\AppData\Local\Temp\ccQLRcFb.s:600    .text.os_zalloc.constprop.0:0000000000000016 .L0 
C:\Users\stapi\AppData\Local\Temp\ccQLRcFb.s:602    .text.os_zalloc.constprop.0:0000000000000018 .L0 
C:\Users\stapi\AppData\Local\Temp\ccQLRcFb.s:608    .text.os_zalloc.constprop.0:0000000000000026 .L0 
C:\Users\stapi\AppData\Local\Temp\ccQLRcFb.s:609    .text.os_zalloc.constprop.0:0000000000000026 .L0 
C:\Users\stapi\AppData\Local\Temp\ccQLRcFb.s:611    .text.os_zalloc.constprop.0:0000000000000030 .L0 
C:\Users\stapi\AppData\Local\Temp\ccQLRcFb.s:612    .text.os_zalloc.constprop.0:0000000000000030 .L0 
C:\Users\stapi\AppData\Local\Temp\ccQLRcFb.s:613    .text.os_zalloc.constprop.0:0000000000000030 .L0 
C:\Users\stapi\AppData\Local\Temp\ccQLRcFb.s:614    .text.os_zalloc.constprop.0:0000000000000030 .L0 
C:\Users\stapi\AppData\Local\Temp\ccQLRcFb.s:654    .text.awss_process_get_devinfo:0000000000000000 .L0 
C:\Users\stapi\AppData\Local\Temp\ccQLRcFb.s:655    .text.awss_process_get_devinfo:0000000000000000 .L0 
C:\Users\stapi\AppData\Local\Temp\ccQLRcFb.s:656    .text.awss_process_get_devinfo:0000000000000008 .L0 
C:\Users\stapi\AppData\Local\Temp\ccQLRcFb.s:657    .text.awss_process_get_devinfo:0000000000000008 .L0 
C:\Users\stapi\AppData\Local\Temp\ccQLRcFb.s:658    .text.awss_process_get_devinfo:0000000000000008 .L0 
C:\Users\stapi\AppData\Local\Temp\ccQLRcFb.s:659    .text.awss_process_get_devinfo:0000000000000008 .L0 
C:\Users\stapi\AppData\Local\Temp\ccQLRcFb.s:660    .text.awss_process_get_devinfo:0000000000000008 .L0 
C:\Users\stapi\AppData\Local\Temp\ccQLRcFb.s:661    .text.awss_process_get_devinfo:0000000000000008 .L0 
C:\Users\stapi\AppData\Local\Temp\ccQLRcFb.s:662    .text.awss_process_get_devinfo:0000000000000008 .L0 
C:\Users\stapi\AppData\Local\Temp\ccQLRcFb.s:665    .text.awss_process_get_devinfo:0000000000000008 .L0 
C:\Users\stapi\AppData\Local\Temp\ccQLRcFb.s:666    .text.awss_process_get_devinfo:0000000000000008 .L0 
C:\Users\stapi\AppData\Local\Temp\ccQLRcFb.s:667    .text.awss_process_get_devinfo:0000000000000008 .L0 
C:\Users\stapi\AppData\Local\Temp\ccQLRcFb.s:668    .text.awss_process_get_devinfo:0000000000000008 .L0 
C:\Users\stapi\AppData\Local\Temp\ccQLRcFb.s:669    .text.awss_process_get_devinfo:0000000000000008 .L0 
C:\Users\stapi\AppData\Local\Temp\ccQLRcFb.s:671    .text.awss_process_get_devinfo:000000000000000c .L0 
C:\Users\stapi\AppData\Local\Temp\ccQLRcFb.s:672    .text.awss_process_get_devinfo:000000000000000e .L0 
C:\Users\stapi\AppData\Local\Temp\ccQLRcFb.s:674    .text.awss_process_get_devinfo:000000000000000e .L0 
C:\Users\stapi\AppData\Local\Temp\ccQLRcFb.s:677    .text.awss_process_get_devinfo:0000000000000014 .L0 
C:\Users\stapi\AppData\Local\Temp\ccQLRcFb.s:688    .text.awss_process_get_devinfo:000000000000003a .L0 
C:\Users\stapi\AppData\Local\Temp\ccQLRcFb.s:695    .text.awss_process_get_devinfo:000000000000004e .L0 
C:\Users\stapi\AppData\Local\Temp\ccQLRcFb.s:696    .text.awss_process_get_devinfo:000000000000004e .L0 
C:\Users\stapi\AppData\Local\Temp\ccQLRcFb.s:697    .text.awss_process_get_devinfo:000000000000004e .L0 
C:\Users\stapi\AppData\Local\Temp\ccQLRcFb.s:698    .text.awss_process_get_devinfo:000000000000004e .L0 
C:\Users\stapi\AppData\Local\Temp\ccQLRcFb.s:703    .text.awss_process_get_devinfo:0000000000000052 .L0 
C:\Users\stapi\AppData\Local\Temp\ccQLRcFb.s:704    .text.awss_process_get_devinfo:0000000000000052 .L0 
C:\Users\stapi\AppData\Local\Temp\ccQLRcFb.s:708    .text.awss_process_get_devinfo:000000000000005e .L0 
C:\Users\stapi\AppData\Local\Temp\ccQLRcFb.s:710    .text.awss_process_get_devinfo:0000000000000060 .L0 
C:\Users\stapi\AppData\Local\Temp\ccQLRcFb.s:721    .text.awss_process_get_devinfo:0000000000000086 .L0 
C:\Users\stapi\AppData\Local\Temp\ccQLRcFb.s:722    .text.awss_process_get_devinfo:0000000000000086 .L0 
C:\Users\stapi\AppData\Local\Temp\ccQLRcFb.s:726    .text.awss_process_get_devinfo:000000000000008a .L0 
C:\Users\stapi\AppData\Local\Temp\ccQLRcFb.s:728    .text.awss_process_get_devinfo:000000000000008e .L0 
C:\Users\stapi\AppData\Local\Temp\ccQLRcFb.s:729    .text.awss_process_get_devinfo:000000000000008e .L0 
C:\Users\stapi\AppData\Local\Temp\ccQLRcFb.s:731    .text.awss_process_get_devinfo:0000000000000096 .L0 
C:\Users\stapi\AppData\Local\Temp\ccQLRcFb.s:732    .text.awss_process_get_devinfo:0000000000000096 .L0 
C:\Users\stapi\AppData\Local\Temp\ccQLRcFb.s:733    .text.awss_process_get_devinfo:0000000000000096 .L0 
C:\Users\stapi\AppData\Local\Temp\ccQLRcFb.s:734    .text.awss_process_get_devinfo:0000000000000096 .L0 
C:\Users\stapi\AppData\Local\Temp\ccQLRcFb.s:735    .text.awss_process_get_devinfo:0000000000000096 .L0 
C:\Users\stapi\AppData\Local\Temp\ccQLRcFb.s:736    .text.awss_process_get_devinfo:0000000000000096 .L0 
C:\Users\stapi\AppData\Local\Temp\ccQLRcFb.s:737    .text.awss_process_get_devinfo:0000000000000096 .L0 
C:\Users\stapi\AppData\Local\Temp\ccQLRcFb.s:740    .text.awss_process_get_devinfo:0000000000000096 .L0 
C:\Users\stapi\AppData\Local\Temp\ccQLRcFb.s:743    .text.awss_process_get_devinfo:0000000000000096 .L0 
C:\Users\stapi\AppData\Local\Temp\ccQLRcFb.s:744    .text.awss_process_get_devinfo:0000000000000096 .L0 
C:\Users\stapi\AppData\Local\Temp\ccQLRcFb.s:745    .text.awss_process_get_devinfo:0000000000000096 .L0 
C:\Users\stapi\AppData\Local\Temp\ccQLRcFb.s:749    .text.awss_process_get_devinfo:000000000000009c .L0 
C:\Users\stapi\AppData\Local\Temp\ccQLRcFb.s:751    .text.awss_process_get_devinfo:000000000000009e .L0 
C:\Users\stapi\AppData\Local\Temp\ccQLRcFb.s:754    .text.awss_process_get_devinfo:00000000000000a0 .L0 
C:\Users\stapi\AppData\Local\Temp\ccQLRcFb.s:755    .text.awss_process_get_devinfo:00000000000000a0 .L0 
C:\Users\stapi\AppData\Local\Temp\ccQLRcFb.s:756    .text.awss_process_get_devinfo:00000000000000a0 .L0 
C:\Users\stapi\AppData\Local\Temp\ccQLRcFb.s:757    .text.awss_process_get_devinfo:00000000000000a0 .L0 
C:\Users\stapi\AppData\Local\Temp\ccQLRcFb.s:761    .text.awss_process_get_devinfo:00000000000000aa .L0 
C:\Users\stapi\AppData\Local\Temp\ccQLRcFb.s:762    .text.awss_process_get_devinfo:00000000000000aa .L0 
C:\Users\stapi\AppData\Local\Temp\ccQLRcFb.s:763    .text.awss_process_get_devinfo:00000000000000aa .L0 
C:\Users\stapi\AppData\Local\Temp\ccQLRcFb.s:769    .text.awss_process_get_devinfo:00000000000000b8 .L0 
C:\Users\stapi\AppData\Local\Temp\ccQLRcFb.s:771    .text.awss_process_get_devinfo:00000000000000bc .L0 
C:\Users\stapi\AppData\Local\Temp\ccQLRcFb.s:773    .text.awss_process_get_devinfo:00000000000000c0 .L0 
C:\Users\stapi\AppData\Local\Temp\ccQLRcFb.s:774    .text.awss_process_get_devinfo:00000000000000c0 .L0 
C:\Users\stapi\AppData\Local\Temp\ccQLRcFb.s:779    .text.awss_process_get_devinfo:00000000000000ca .L0 
C:\Users\stapi\AppData\Local\Temp\ccQLRcFb.s:780    .text.awss_process_get_devinfo:00000000000000ca .L0 
C:\Users\stapi\AppData\Local\Temp\ccQLRcFb.s:782    .text.awss_process_get_devinfo:00000000000000ce .L0 
C:\Users\stapi\AppData\Local\Temp\ccQLRcFb.s:783    .text.awss_process_get_devinfo:00000000000000ce .L0 
C:\Users\stapi\AppData\Local\Temp\ccQLRcFb.s:789    .text.awss_process_get_devinfo:00000000000000da .L0 
C:\Users\stapi\AppData\Local\Temp\ccQLRcFb.s:790    .text.awss_process_get_devinfo:00000000000000da .L0 
C:\Users\stapi\AppData\Local\Temp\ccQLRcFb.s:792    .text.awss_process_get_devinfo:00000000000000de .L0 
C:\Users\stapi\AppData\Local\Temp\ccQLRcFb.s:793    .text.awss_process_get_devinfo:00000000000000de .L0 
C:\Users\stapi\AppData\Local\Temp\ccQLRcFb.s:801    .text.awss_process_get_devinfo:00000000000000f4 .L0 
C:\Users\stapi\AppData\Local\Temp\ccQLRcFb.s:803    .text.awss_process_get_devinfo:00000000000000f6 .L0 
C:\Users\stapi\AppData\Local\Temp\ccQLRcFb.s:805    .text.awss_process_get_devinfo:00000000000000f8 .L0 
C:\Users\stapi\AppData\Local\Temp\ccQLRcFb.s:808    .text.awss_process_get_devinfo:00000000000000fa .L0 
C:\Users\stapi\AppData\Local\Temp\ccQLRcFb.s:809    .text.awss_process_get_devinfo:00000000000000fa .L0 
C:\Users\stapi\AppData\Local\Temp\ccQLRcFb.s:811    .text.awss_process_get_devinfo:00000000000000fe .L0 
C:\Users\stapi\AppData\Local\Temp\ccQLRcFb.s:812    .text.awss_process_get_devinfo:00000000000000fe .L0 
C:\Users\stapi\AppData\Local\Temp\ccQLRcFb.s:815    .text.awss_process_get_devinfo:0000000000000100 .L0 
C:\Users\stapi\AppData\Local\Temp\ccQLRcFb.s:821    .text.awss_process_get_devinfo:000000000000010c .L0 
C:\Users\stapi\AppData\Local\Temp\ccQLRcFb.s:824    .text.awss_process_get_devinfo:0000000000000114 .L0 
C:\Users\stapi\AppData\Local\Temp\ccQLRcFb.s:830    .text.awss_process_get_devinfo:0000000000000124 .L0 
C:\Users\stapi\AppData\Local\Temp\ccQLRcFb.s:838    .text.awss_process_get_devinfo:000000000000013c .L0 
C:\Users\stapi\AppData\Local\Temp\ccQLRcFb.s:844    .text.awss_process_get_devinfo:000000000000014c .L0 
C:\Users\stapi\AppData\Local\Temp\ccQLRcFb.s:856    .text.awss_process_get_devinfo:000000000000016a .L0 
C:\Users\stapi\AppData\Local\Temp\ccQLRcFb.s:857    .text.awss_process_get_devinfo:000000000000016a .L0 
C:\Users\stapi\AppData\Local\Temp\ccQLRcFb.s:863    .text.awss_process_get_devinfo:0000000000000174 .L0 
C:\Users\stapi\AppData\Local\Temp\ccQLRcFb.s:871    .text.awss_process_get_devinfo:000000000000018a .L0 
C:\Users\stapi\AppData\Local\Temp\ccQLRcFb.s:878    .text.awss_process_get_devinfo:000000000000019c .L0 
C:\Users\stapi\AppData\Local\Temp\ccQLRcFb.s:879    .text.awss_process_get_devinfo:000000000000019c .L0 
C:\Users\stapi\AppData\Local\Temp\ccQLRcFb.s:884    .text.awss_process_get_devinfo:00000000000001ac .L0 
C:\Users\stapi\AppData\Local\Temp\ccQLRcFb.s:890    .text.awss_process_get_devinfo:00000000000001be .L0 
C:\Users\stapi\AppData\Local\Temp\ccQLRcFb.s:896    .text.awss_process_get_devinfo:00000000000001ce .L0 
C:\Users\stapi\AppData\Local\Temp\ccQLRcFb.s:897    .text.awss_process_get_devinfo:00000000000001ce .L0 
C:\Users\stapi\AppData\Local\Temp\ccQLRcFb.s:898    .text.awss_process_get_devinfo:00000000000001ce .L0 
C:\Users\stapi\AppData\Local\Temp\ccQLRcFb.s:905    .text.awss_process_get_devinfo:00000000000001e0 .L0 
C:\Users\stapi\AppData\Local\Temp\ccQLRcFb.s:906    .text.awss_process_get_devinfo:00000000000001e0 .L0 
C:\Users\stapi\AppData\Local\Temp\ccQLRcFb.s:909    .text.awss_process_get_devinfo:00000000000001e6 .L0 
C:\Users\stapi\AppData\Local\Temp\ccQLRcFb.s:912    .text.awss_process_get_devinfo:00000000000001ec .L0 
C:\Users\stapi\AppData\Local\Temp\ccQLRcFb.s:916    .text.awss_process_get_devinfo:00000000000001f4 .L0 
C:\Users\stapi\AppData\Local\Temp\ccQLRcFb.s:919    .text.awss_process_get_devinfo:00000000000001fc .L0 
C:\Users\stapi\AppData\Local\Temp\ccQLRcFb.s:922    .text.awss_process_get_devinfo:0000000000000204 .L0 
C:\Users\stapi\AppData\Local\Temp\ccQLRcFb.s:923    .text.awss_process_get_devinfo:0000000000000204 .L0 
C:\Users\stapi\AppData\Local\Temp\ccQLRcFb.s:927    .text.awss_process_get_devinfo:000000000000020e .L0 
C:\Users\stapi\AppData\Local\Temp\ccQLRcFb.s:930    .text.awss_process_get_devinfo:0000000000000212 .L0 
C:\Users\stapi\AppData\Local\Temp\ccQLRcFb.s:932    .text.awss_process_get_devinfo:0000000000000214 .L0 
C:\Users\stapi\AppData\Local\Temp\ccQLRcFb.s:940    .text.awss_process_get_devinfo:0000000000000226 .L0 
C:\Users\stapi\AppData\Local\Temp\ccQLRcFb.s:942    .text.awss_process_get_devinfo:000000000000022a .L0 
C:\Users\stapi\AppData\Local\Temp\ccQLRcFb.s:950    .text.awss_process_get_devinfo:000000000000023c .L0 
C:\Users\stapi\AppData\Local\Temp\ccQLRcFb.s:951    .text.awss_process_get_devinfo:000000000000023c .L0 
C:\Users\stapi\AppData\Local\Temp\ccQLRcFb.s:956    .text.awss_process_get_devinfo:000000000000024c .L0 
C:\Users\stapi\AppData\Local\Temp\ccQLRcFb.s:961    .text.awss_process_get_devinfo:000000000000025c .L0 
C:\Users\stapi\AppData\Local\Temp\ccQLRcFb.s:966    .text.awss_process_get_devinfo:0000000000000268 .L0 
C:\Users\stapi\AppData\Local\Temp\ccQLRcFb.s:969    .text.awss_process_get_devinfo:0000000000000268 .L0 
C:\Users\stapi\AppData\Local\Temp\ccQLRcFb.s:970    .text.awss_process_get_devinfo:0000000000000268 .L0 
C:\Users\stapi\AppData\Local\Temp\ccQLRcFb.s:976    .text.awss_process_get_devinfo:0000000000000272 .L0 
C:\Users\stapi\AppData\Local\Temp\ccQLRcFb.s:980    .text.awss_process_get_devinfo:000000000000027e .L0 
C:\Users\stapi\AppData\Local\Temp\ccQLRcFb.s:981    .text.awss_process_get_devinfo:000000000000027e .L0 
C:\Users\stapi\AppData\Local\Temp\ccQLRcFb.s:983    .text.awss_process_get_devinfo:0000000000000282 .L0 
C:\Users\stapi\AppData\Local\Temp\ccQLRcFb.s:985    .text.awss_process_get_devinfo:0000000000000286 .L0 
C:\Users\stapi\AppData\Local\Temp\ccQLRcFb.s:988    .text.awss_process_get_devinfo:000000000000028e .L0 
C:\Users\stapi\AppData\Local\Temp\ccQLRcFb.s:989    .text.awss_process_get_devinfo:000000000000028e .L0 
C:\Users\stapi\AppData\Local\Temp\ccQLRcFb.s:993    .text.awss_process_get_devinfo:0000000000000294 .L0 
C:\Users\stapi\AppData\Local\Temp\ccQLRcFb.s:999    .text.awss_process_get_devinfo:000000000000029e .L0 
C:\Users\stapi\AppData\Local\Temp\ccQLRcFb.s:1003   .text.awss_process_get_devinfo:00000000000002a2 .L0 
C:\Users\stapi\AppData\Local\Temp\ccQLRcFb.s:1008   .text.awss_process_get_devinfo:00000000000002a4 .L0 
C:\Users\stapi\AppData\Local\Temp\ccQLRcFb.s:1016   .text.awss_process_get_devinfo:00000000000002bc .L0 
C:\Users\stapi\AppData\Local\Temp\ccQLRcFb.s:1020   .text.awss_process_get_devinfo:00000000000002c8 .L0 
C:\Users\stapi\AppData\Local\Temp\ccQLRcFb.s:1021   .text.awss_process_get_devinfo:00000000000002c8 .L0 
C:\Users\stapi\AppData\Local\Temp\ccQLRcFb.s:1023   .text.awss_process_get_devinfo:00000000000002cc .L0 
C:\Users\stapi\AppData\Local\Temp\ccQLRcFb.s:1025   .text.awss_process_get_devinfo:00000000000002d0 .L0 
C:\Users\stapi\AppData\Local\Temp\ccQLRcFb.s:1028   .text.awss_process_get_devinfo:00000000000002d8 .L0 
C:\Users\stapi\AppData\Local\Temp\ccQLRcFb.s:1029   .text.awss_process_get_devinfo:00000000000002d8 .L0 
C:\Users\stapi\AppData\Local\Temp\ccQLRcFb.s:1031   .text.awss_process_get_devinfo:00000000000002dc .L0 
C:\Users\stapi\AppData\Local\Temp\ccQLRcFb.s:1032   .text.awss_process_get_devinfo:00000000000002dc .L0 
C:\Users\stapi\AppData\Local\Temp\ccQLRcFb.s:1037   .text.awss_process_get_devinfo:00000000000002de .L0 
C:\Users\stapi\AppData\Local\Temp\ccQLRcFb.s:1038   .text.awss_process_get_devinfo:00000000000002de .L0 
C:\Users\stapi\AppData\Local\Temp\ccQLRcFb.s:1045   .text.awss_process_get_devinfo:00000000000002e8 .L0 
C:\Users\stapi\AppData\Local\Temp\ccQLRcFb.s:1046   .text.awss_process_get_devinfo:00000000000002e8 .L0 
C:\Users\stapi\AppData\Local\Temp\ccQLRcFb.s:1051   .text.awss_process_get_devinfo:00000000000002ec .L0 
C:\Users\stapi\AppData\Local\Temp\ccQLRcFb.s:1052   .text.awss_process_get_devinfo:00000000000002ec .L0 
C:\Users\stapi\AppData\Local\Temp\ccQLRcFb.s:1056   .text.awss_process_get_devinfo:00000000000002f6 .L0 
C:\Users\stapi\AppData\Local\Temp\ccQLRcFb.s:1063   .text.awss_process_get_devinfo:00000000000002f8 .L0 
C:\Users\stapi\AppData\Local\Temp\ccQLRcFb.s:1068   .text.awss_process_get_devinfo:0000000000000300 .L0 
C:\Users\stapi\AppData\Local\Temp\ccQLRcFb.s:1106   .text.awss_notify_dev_info:0000000000000000 awss_notify_dev_info
C:\Users\stapi\AppData\Local\Temp\ccQLRcFb.s:1109   .text.awss_notify_dev_info:0000000000000000 .L0 
C:\Users\stapi\AppData\Local\Temp\ccQLRcFb.s:1111   .text.awss_notify_dev_info:0000000000000000 .L0 
C:\Users\stapi\AppData\Local\Temp\ccQLRcFb.s:1112   .text.awss_notify_dev_info:0000000000000008 .L0 
C:\Users\stapi\AppData\Local\Temp\ccQLRcFb.s:1113   .text.awss_notify_dev_info:0000000000000008 .L0 
C:\Users\stapi\AppData\Local\Temp\ccQLRcFb.s:1114   .text.awss_notify_dev_info:0000000000000008 .L0 
C:\Users\stapi\AppData\Local\Temp\ccQLRcFb.s:1115   .text.awss_notify_dev_info:0000000000000008 .L0 
C:\Users\stapi\AppData\Local\Temp\ccQLRcFb.s:1116   .text.awss_notify_dev_info:0000000000000008 .L0 
C:\Users\stapi\AppData\Local\Temp\ccQLRcFb.s:1117   .text.awss_notify_dev_info:0000000000000008 .L0 
C:\Users\stapi\AppData\Local\Temp\ccQLRcFb.s:1118   .text.awss_notify_dev_info:0000000000000008 .L0 
C:\Users\stapi\AppData\Local\Temp\ccQLRcFb.s:1119   .text.awss_notify_dev_info:0000000000000008 .L0 
C:\Users\stapi\AppData\Local\Temp\ccQLRcFb.s:1120   .text.awss_notify_dev_info:0000000000000008 .L0 
C:\Users\stapi\AppData\Local\Temp\ccQLRcFb.s:1121   .text.awss_notify_dev_info:0000000000000008 .L0 
C:\Users\stapi\AppData\Local\Temp\ccQLRcFb.s:1122   .text.awss_notify_dev_info:0000000000000008 .L0 
C:\Users\stapi\AppData\Local\Temp\ccQLRcFb.s:1123   .text.awss_notify_dev_info:0000000000000008 .L0 
C:\Users\stapi\AppData\Local\Temp\ccQLRcFb.s:1124   .text.awss_notify_dev_info:0000000000000008 .L0 
C:\Users\stapi\AppData\Local\Temp\ccQLRcFb.s:1125   .text.awss_notify_dev_info:0000000000000008 .L0 
C:\Users\stapi\AppData\Local\Temp\ccQLRcFb.s:1128   .text.awss_notify_dev_info:0000000000000008 .L0 
C:\Users\stapi\AppData\Local\Temp\ccQLRcFb.s:1129   .text.awss_notify_dev_info:0000000000000008 .L0 
C:\Users\stapi\AppData\Local\Temp\ccQLRcFb.s:1130   .text.awss_notify_dev_info:0000000000000008 .L0 
C:\Users\stapi\AppData\Local\Temp\ccQLRcFb.s:1131   .text.awss_notify_dev_info:0000000000000008 .L0 
C:\Users\stapi\AppData\Local\Temp\ccQLRcFb.s:1132   .text.awss_notify_dev_info:0000000000000008 .L0 
C:\Users\stapi\AppData\Local\Temp\ccQLRcFb.s:1133   .text.awss_notify_dev_info:0000000000000008 .L0 
C:\Users\stapi\AppData\Local\Temp\ccQLRcFb.s:1134   .text.awss_notify_dev_info:000000000000000a .L0 
C:\Users\stapi\AppData\Local\Temp\ccQLRcFb.s:1136   .text.awss_notify_dev_info:000000000000000a .L0 
C:\Users\stapi\AppData\Local\Temp\ccQLRcFb.s:1140   .text.awss_notify_dev_info:000000000000000e .L0 
C:\Users\stapi\AppData\Local\Temp\ccQLRcFb.s:1147   .text.awss_notify_dev_info:0000000000000014 .L0 
C:\Users\stapi\AppData\Local\Temp\ccQLRcFb.s:1154   .text.awss_notify_dev_info:0000000000000020 .L0 
C:\Users\stapi\AppData\Local\Temp\ccQLRcFb.s:1156   .text.awss_notify_dev_info:0000000000000020 .L0 
C:\Users\stapi\AppData\Local\Temp\ccQLRcFb.s:1157   .text.awss_notify_dev_info:0000000000000020 .L0 
C:\Users\stapi\AppData\Local\Temp\ccQLRcFb.s:1158   .text.awss_notify_dev_info:0000000000000020 .L0 
C:\Users\stapi\AppData\Local\Temp\ccQLRcFb.s:1159   .text.awss_notify_dev_info:0000000000000020 .L0 
C:\Users\stapi\AppData\Local\Temp\ccQLRcFb.s:1163   .text.awss_notify_dev_info:000000000000002a .L0 
C:\Users\stapi\AppData\Local\Temp\ccQLRcFb.s:1164   .text.awss_notify_dev_info:000000000000002a .L0 
C:\Users\stapi\AppData\Local\Temp\ccQLRcFb.s:1165   .text.awss_notify_dev_info:000000000000002a .L0 
C:\Users\stapi\AppData\Local\Temp\ccQLRcFb.s:1167   .text.awss_notify_dev_info:000000000000002e .L0 
C:\Users\stapi\AppData\Local\Temp\ccQLRcFb.s:1171   .text.awss_notify_dev_info:0000000000000038 .L0 
C:\Users\stapi\AppData\Local\Temp\ccQLRcFb.s:1173   .text.awss_notify_dev_info:000000000000003a .L0 
C:\Users\stapi\AppData\Local\Temp\ccQLRcFb.s:1175   .text.awss_notify_dev_info:000000000000003e .L0 
C:\Users\stapi\AppData\Local\Temp\ccQLRcFb.s:1177   .text.awss_notify_dev_info:000000000000003e .L0 
C:\Users\stapi\AppData\Local\Temp\ccQLRcFb.s:1178   .text.awss_notify_dev_info:000000000000003e .L0 
C:\Users\stapi\AppData\Local\Temp\ccQLRcFb.s:1179   .text.awss_notify_dev_info:000000000000003e .L0 
C:\Users\stapi\AppData\Local\Temp\ccQLRcFb.s:1180   .text.awss_notify_dev_info:000000000000003e .L0 
C:\Users\stapi\AppData\Local\Temp\ccQLRcFb.s:1182   .text.awss_notify_dev_info:0000000000000040 .L0 
C:\Users\stapi\AppData\Local\Temp\ccQLRcFb.s:1184   .text.awss_notify_dev_info:0000000000000042 .L0 
C:\Users\stapi\AppData\Local\Temp\ccQLRcFb.s:1186   .text.awss_notify_dev_info:0000000000000046 .L0 
C:\Users\stapi\AppData\Local\Temp\ccQLRcFb.s:1188   .text.awss_notify_dev_info:0000000000000046 .L0 
C:\Users\stapi\AppData\Local\Temp\ccQLRcFb.s:1189   .text.awss_notify_dev_info:0000000000000046 .L0 
C:\Users\stapi\AppData\Local\Temp\ccQLRcFb.s:1190   .text.awss_notify_dev_info:0000000000000046 .L0 
C:\Users\stapi\AppData\Local\Temp\ccQLRcFb.s:1191   .text.awss_notify_dev_info:0000000000000046 .L0 
C:\Users\stapi\AppData\Local\Temp\ccQLRcFb.s:1194   .text.awss_notify_dev_info:000000000000004c .L0 
C:\Users\stapi\AppData\Local\Temp\ccQLRcFb.s:1198   .text.awss_notify_dev_info:000000000000004e .L0 
C:\Users\stapi\AppData\Local\Temp\ccQLRcFb.s:1199   .text.awss_notify_dev_info:000000000000004e .L0 
C:\Users\stapi\AppData\Local\Temp\ccQLRcFb.s:1206   .text.awss_notify_dev_info:0000000000000060 .L0 
C:\Users\stapi\AppData\Local\Temp\ccQLRcFb.s:1207   .text.awss_notify_dev_info:0000000000000060 .L0 
C:\Users\stapi\AppData\Local\Temp\ccQLRcFb.s:1210   .text.awss_notify_dev_info:0000000000000064 .L0 
C:\Users\stapi\AppData\Local\Temp\ccQLRcFb.s:1211   .text.awss_notify_dev_info:0000000000000064 .L0 
C:\Users\stapi\AppData\Local\Temp\ccQLRcFb.s:1212   .text.awss_notify_dev_info:0000000000000064 .L0 
C:\Users\stapi\AppData\Local\Temp\ccQLRcFb.s:1213   .text.awss_notify_dev_info:0000000000000064 .L0 
C:\Users\stapi\AppData\Local\Temp\ccQLRcFb.s:1215   .text.awss_notify_dev_info:0000000000000068 .L0 
C:\Users\stapi\AppData\Local\Temp\ccQLRcFb.s:1219   .text.awss_notify_dev_info:000000000000006c .L0 
C:\Users\stapi\AppData\Local\Temp\ccQLRcFb.s:1220   .text.awss_notify_dev_info:000000000000006c .L0 
C:\Users\stapi\AppData\Local\Temp\ccQLRcFb.s:1225   .text.awss_notify_dev_info:000000000000007c .L0 
C:\Users\stapi\AppData\Local\Temp\ccQLRcFb.s:1230   .text.awss_notify_dev_info:000000000000008c .L0 
C:\Users\stapi\AppData\Local\Temp\ccQLRcFb.s:1234   .text.awss_notify_dev_info:0000000000000098 .L0 
C:\Users\stapi\AppData\Local\Temp\ccQLRcFb.s:1236   .text.awss_notify_dev_info:0000000000000098 .L0 
C:\Users\stapi\AppData\Local\Temp\ccQLRcFb.s:1237   .text.awss_notify_dev_info:0000000000000098 .L0 
C:\Users\stapi\AppData\Local\Temp\ccQLRcFb.s:1238   .text.awss_notify_dev_info:0000000000000098 .L0 
C:\Users\stapi\AppData\Local\Temp\ccQLRcFb.s:1240   .text.awss_notify_dev_info:0000000000000098 .L0 
C:\Users\stapi\AppData\Local\Temp\ccQLRcFb.s:1241   .text.awss_notify_dev_info:0000000000000098 .L0 
C:\Users\stapi\AppData\Local\Temp\ccQLRcFb.s:1242   .text.awss_notify_dev_info:0000000000000098 .L0 
C:\Users\stapi\AppData\Local\Temp\ccQLRcFb.s:1245   .text.awss_notify_dev_info:000000000000009a .L0 
C:\Users\stapi\AppData\Local\Temp\ccQLRcFb.s:1247   .text.awss_notify_dev_info:00000000000000a0 .L0 
C:\Users\stapi\AppData\Local\Temp\ccQLRcFb.s:1248   .text.awss_notify_dev_info:00000000000000a0 .L0 
C:\Users\stapi\AppData\Local\Temp\ccQLRcFb.s:1250   .text.awss_notify_dev_info:00000000000000a8 .L0 
C:\Users\stapi\AppData\Local\Temp\ccQLRcFb.s:1251   .text.awss_notify_dev_info:00000000000000a8 .L0 
C:\Users\stapi\AppData\Local\Temp\ccQLRcFb.s:1252   .text.awss_notify_dev_info:00000000000000a8 .L0 
C:\Users\stapi\AppData\Local\Temp\ccQLRcFb.s:1253   .text.awss_notify_dev_info:00000000000000a8 .L0 
C:\Users\stapi\AppData\Local\Temp\ccQLRcFb.s:1254   .text.awss_notify_dev_info:00000000000000a8 .L0 
C:\Users\stapi\AppData\Local\Temp\ccQLRcFb.s:1255   .text.awss_notify_dev_info:00000000000000a8 .L0 
C:\Users\stapi\AppData\Local\Temp\ccQLRcFb.s:1256   .text.awss_notify_dev_info:00000000000000a8 .L0 
C:\Users\stapi\AppData\Local\Temp\ccQLRcFb.s:1257   .text.awss_notify_dev_info:00000000000000a8 .L0 
C:\Users\stapi\AppData\Local\Temp\ccQLRcFb.s:1258   .text.awss_notify_dev_info:00000000000000a8 .L0 
C:\Users\stapi\AppData\Local\Temp\ccQLRcFb.s:1259   .text.awss_notify_dev_info:00000000000000a8 .L0 
C:\Users\stapi\AppData\Local\Temp\ccQLRcFb.s:1260   .text.awss_notify_dev_info:00000000000000a8 .L0 
C:\Users\stapi\AppData\Local\Temp\ccQLRcFb.s:1261   .text.awss_notify_dev_info:00000000000000a8 .L0 
C:\Users\stapi\AppData\Local\Temp\ccQLRcFb.s:1262   .text.awss_notify_dev_info:00000000000000a8 .L0 
C:\Users\stapi\AppData\Local\Temp\ccQLRcFb.s:1263   .text.awss_notify_dev_info:00000000000000a8 .L0 
C:\Users\stapi\AppData\Local\Temp\ccQLRcFb.s:1266   .text.awss_notify_dev_info:00000000000000a8 .L0 
C:\Users\stapi\AppData\Local\Temp\ccQLRcFb.s:1269   .text.awss_notify_dev_info:00000000000000a8 .L0 
C:\Users\stapi\AppData\Local\Temp\ccQLRcFb.s:1272   .text.awss_notify_dev_info:00000000000000ac .L0 
C:\Users\stapi\AppData\Local\Temp\ccQLRcFb.s:1273   .text.awss_notify_dev_info:00000000000000ac .L0 
C:\Users\stapi\AppData\Local\Temp\ccQLRcFb.s:1278   .text.awss_notify_dev_info:00000000000000b6 .L0 
C:\Users\stapi\AppData\Local\Temp\ccQLRcFb.s:1279   .text.awss_notify_dev_info:00000000000000b6 .L0 
C:\Users\stapi\AppData\Local\Temp\ccQLRcFb.s:1284   .text.awss_notify_dev_info:00000000000000c0 .L0 
C:\Users\stapi\AppData\Local\Temp\ccQLRcFb.s:1285   .text.awss_notify_dev_info:00000000000000c0 .L0 
C:\Users\stapi\AppData\Local\Temp\ccQLRcFb.s:1287   .text.awss_notify_dev_info:00000000000000c2 .L0 
C:\Users\stapi\AppData\Local\Temp\ccQLRcFb.s:1290   .text.awss_notify_dev_info:00000000000000c4 .L0 
C:\Users\stapi\AppData\Local\Temp\ccQLRcFb.s:1291   .text.awss_notify_dev_info:00000000000000c4 .L0 
C:\Users\stapi\AppData\Local\Temp\ccQLRcFb.s:1297   .text.awss_notify_dev_info:00000000000000d4 .L0 
C:\Users\stapi\AppData\Local\Temp\ccQLRcFb.s:1302   .text.awss_notify_dev_info:00000000000000e4 .L0 
C:\Users\stapi\AppData\Local\Temp\ccQLRcFb.s:1306   .text.awss_notify_dev_info:00000000000000f0 .L0 
C:\Users\stapi\AppData\Local\Temp\ccQLRcFb.s:1308   .text.awss_notify_dev_info:00000000000000f0 .L0 
C:\Users\stapi\AppData\Local\Temp\ccQLRcFb.s:1309   .text.awss_notify_dev_info:00000000000000f0 .L0 
C:\Users\stapi\AppData\Local\Temp\ccQLRcFb.s:1310   .text.awss_notify_dev_info:00000000000000f0 .L0 
C:\Users\stapi\AppData\Local\Temp\ccQLRcFb.s:1311   .text.awss_notify_dev_info:00000000000000f0 .L0 
C:\Users\stapi\AppData\Local\Temp\ccQLRcFb.s:1317   .text.awss_notify_dev_info:00000000000000f2 .L0 
C:\Users\stapi\AppData\Local\Temp\ccQLRcFb.s:1318   .text.awss_notify_dev_info:00000000000000f2 .L0 
C:\Users\stapi\AppData\Local\Temp\ccQLRcFb.s:1325   .text.awss_notify_dev_info:00000000000000fc .L0 
C:\Users\stapi\AppData\Local\Temp\ccQLRcFb.s:1326   .text.awss_notify_dev_info:00000000000000fc .L0 
C:\Users\stapi\AppData\Local\Temp\ccQLRcFb.s:1331   .text.awss_notify_dev_info:0000000000000100 .L0 
C:\Users\stapi\AppData\Local\Temp\ccQLRcFb.s:1332   .text.awss_notify_dev_info:0000000000000100 .L0 
C:\Users\stapi\AppData\Local\Temp\ccQLRcFb.s:1336   .text.awss_notify_dev_info:000000000000010a .L0 
C:\Users\stapi\AppData\Local\Temp\ccQLRcFb.s:1343   .text.awss_notify_dev_info:000000000000010c .L0 
C:\Users\stapi\AppData\Local\Temp\ccQLRcFb.s:1344   .text.awss_notify_dev_info:000000000000010c .L0 
C:\Users\stapi\AppData\Local\Temp\ccQLRcFb.s:1351   .text.awss_notify_dev_info:000000000000011c .L0 
C:\Users\stapi\AppData\Local\Temp\ccQLRcFb.s:1354   .text.awss_notify_dev_info:0000000000000124 .L0 
C:\Users\stapi\AppData\Local\Temp\ccQLRcFb.s:1355   .text.awss_notify_dev_info:0000000000000124 .L0 
C:\Users\stapi\AppData\Local\Temp\ccQLRcFb.s:1358   .text.awss_notify_dev_info:000000000000012a .L0 
C:\Users\stapi\AppData\Local\Temp\ccQLRcFb.s:1362   .text.awss_notify_dev_info:0000000000000132 .L0 
C:\Users\stapi\AppData\Local\Temp\ccQLRcFb.s:1364   .text.awss_notify_dev_info:0000000000000136 .L0 
C:\Users\stapi\AppData\Local\Temp\ccQLRcFb.s:1367   .text.awss_notify_dev_info:000000000000013e .L0 
C:\Users\stapi\AppData\Local\Temp\ccQLRcFb.s:1368   .text.awss_notify_dev_info:000000000000013e .L0 
C:\Users\stapi\AppData\Local\Temp\ccQLRcFb.s:1372   .text.awss_notify_dev_info:000000000000014a .L0 
C:\Users\stapi\AppData\Local\Temp\ccQLRcFb.s:1375   .text.awss_notify_dev_info:0000000000000150 .L0 
C:\Users\stapi\AppData\Local\Temp\ccQLRcFb.s:1378   .text.awss_notify_dev_info:0000000000000156 .L0 
C:\Users\stapi\AppData\Local\Temp\ccQLRcFb.s:1386   .text.awss_notify_dev_info:000000000000016e .L0 
C:\Users\stapi\AppData\Local\Temp\ccQLRcFb.s:1394   .text.awss_notify_dev_info:0000000000000184 .L0 
C:\Users\stapi\AppData\Local\Temp\ccQLRcFb.s:1395   .text.awss_notify_dev_info:0000000000000184 .L0 
C:\Users\stapi\AppData\Local\Temp\ccQLRcFb.s:1398   .text.awss_notify_dev_info:000000000000018a .L0 
C:\Users\stapi\AppData\Local\Temp\ccQLRcFb.s:1406   .text.awss_notify_dev_info:00000000000001a0 .L0 
C:\Users\stapi\AppData\Local\Temp\ccQLRcFb.s:1407   .text.awss_notify_dev_info:00000000000001a0 .L0 
C:\Users\stapi\AppData\Local\Temp\ccQLRcFb.s:1408   .text.awss_notify_dev_info:00000000000001a0 .L0 
C:\Users\stapi\AppData\Local\Temp\ccQLRcFb.s:1413   .text.awss_notify_dev_info:00000000000001b0 .L0 
C:\Users\stapi\AppData\Local\Temp\ccQLRcFb.s:1419   .text.awss_notify_dev_info:00000000000001c2 .L0 
C:\Users\stapi\AppData\Local\Temp\ccQLRcFb.s:1423   .text.awss_notify_dev_info:00000000000001ce .L0 
C:\Users\stapi\AppData\Local\Temp\ccQLRcFb.s:1424   .text.awss_notify_dev_info:00000000000001ce .L0 
C:\Users\stapi\AppData\Local\Temp\ccQLRcFb.s:1437   .text.awss_notify_dev_info:00000000000001f6 .L0 
C:\Users\stapi\AppData\Local\Temp\ccQLRcFb.s:1438   .text.awss_notify_dev_info:00000000000001f6 .L0 
C:\Users\stapi\AppData\Local\Temp\ccQLRcFb.s:1443   .text.awss_notify_dev_info:0000000000000204 .L0 
C:\Users\stapi\AppData\Local\Temp\ccQLRcFb.s:1450   .text.awss_notify_dev_info:0000000000000216 .L0 
C:\Users\stapi\AppData\Local\Temp\ccQLRcFb.s:1454   .text.awss_notify_dev_info:0000000000000218 .L0 
C:\Users\stapi\AppData\Local\Temp\ccQLRcFb.s:1456   .text.awss_notify_dev_info:000000000000021a .L0 
C:\Users\stapi\AppData\Local\Temp\ccQLRcFb.s:1460   .text.awss_notify_dev_info:000000000000021c .L0 
C:\Users\stapi\AppData\Local\Temp\ccQLRcFb.s:1464   .text.awss_notify_dev_info:0000000000000220 .L0 
C:\Users\stapi\AppData\Local\Temp\ccQLRcFb.s:1469   .text.awss_notify_dev_info:0000000000000224 .L0 
C:\Users\stapi\AppData\Local\Temp\ccQLRcFb.s:1470   .text.awss_notify_dev_info:0000000000000224 .L0 
C:\Users\stapi\AppData\Local\Temp\ccQLRcFb.s:1473   .text.awss_notify_dev_info:0000000000000228 .L0 
C:\Users\stapi\AppData\Local\Temp\ccQLRcFb.s:1474   .text.awss_notify_dev_info:0000000000000228 .L0 
C:\Users\stapi\AppData\Local\Temp\ccQLRcFb.s:1478   .text.awss_notify_dev_info:0000000000000232 .L0 
C:\Users\stapi\AppData\Local\Temp\ccQLRcFb.s:1481   .text.awss_notify_dev_info:0000000000000236 .L0 
C:\Users\stapi\AppData\Local\Temp\ccQLRcFb.s:1483   .text.awss_notify_dev_info:0000000000000238 .L0 
C:\Users\stapi\AppData\Local\Temp\ccQLRcFb.s:1491   .text.awss_notify_dev_info:0000000000000248 .L0 
C:\Users\stapi\AppData\Local\Temp\ccQLRcFb.s:1492   .text.awss_notify_dev_info:0000000000000248 .L0 
C:\Users\stapi\AppData\Local\Temp\ccQLRcFb.s:1497   .text.awss_notify_dev_info:0000000000000254 .L0 
C:\Users\stapi\AppData\Local\Temp\ccQLRcFb.s:1503   .text.awss_notify_dev_info:000000000000025c .L0 
C:\Users\stapi\AppData\Local\Temp\ccQLRcFb.s:1508   .text.awss_notify_dev_info:000000000000026c .L0 
C:\Users\stapi\AppData\Local\Temp\ccQLRcFb.s:1512   .text.awss_notify_dev_info:0000000000000278 .L0 
C:\Users\stapi\AppData\Local\Temp\ccQLRcFb.s:1513   .text.awss_notify_dev_info:0000000000000278 .L0 
C:\Users\stapi\AppData\Local\Temp\ccQLRcFb.s:1514   .text.awss_notify_dev_info:0000000000000278 .L0 
C:\Users\stapi\AppData\Local\Temp\ccQLRcFb.s:1519   .text.awss_notify_dev_info:000000000000027c .L0 
C:\Users\stapi\AppData\Local\Temp\ccQLRcFb.s:1520   .text.awss_notify_dev_info:000000000000027c .L0 
C:\Users\stapi\AppData\Local\Temp\ccQLRcFb.s:1528   .text.awss_notify_dev_info:000000000000028c .L0 
C:\Users\stapi\AppData\Local\Temp\ccQLRcFb.s:1529   .text.awss_notify_dev_info:000000000000028c .L0 
C:\Users\stapi\AppData\Local\Temp\ccQLRcFb.s:1533   .text.awss_notify_dev_info:0000000000000294 .L0 
C:\Users\stapi\AppData\Local\Temp\ccQLRcFb.s:1534   .text.awss_notify_dev_info:0000000000000294 .L0 
C:\Users\stapi\AppData\Local\Temp\ccQLRcFb.s:1538   .text.awss_notify_dev_info:0000000000000298 .L0 
C:\Users\stapi\AppData\Local\Temp\ccQLRcFb.s:1548   .text.__awss_dev_bind_notify:0000000000000000 __awss_dev_bind_notify
C:\Users\stapi\AppData\Local\Temp\ccQLRcFb.s:1551   .text.__awss_dev_bind_notify:0000000000000000 .L0 
C:\Users\stapi\AppData\Local\Temp\ccQLRcFb.s:1552   .text.__awss_dev_bind_notify:0000000000000000 .L0 
C:\Users\stapi\AppData\Local\Temp\ccQLRcFb.s:1553   .text.__awss_dev_bind_notify:0000000000000008 .L0 
C:\Users\stapi\AppData\Local\Temp\ccQLRcFb.s:1554   .text.__awss_dev_bind_notify:0000000000000008 .L0 
C:\Users\stapi\AppData\Local\Temp\ccQLRcFb.s:1555   .text.__awss_dev_bind_notify:0000000000000008 .L0 
C:\Users\stapi\AppData\Local\Temp\ccQLRcFb.s:1556   .text.__awss_dev_bind_notify:0000000000000008 .L0 
C:\Users\stapi\AppData\Local\Temp\ccQLRcFb.s:1557   .text.__awss_dev_bind_notify:0000000000000008 .L0 
C:\Users\stapi\AppData\Local\Temp\ccQLRcFb.s:1558   .text.__awss_dev_bind_notify:0000000000000008 .L0 
C:\Users\stapi\AppData\Local\Temp\ccQLRcFb.s:1559   .text.__awss_dev_bind_notify:0000000000000008 .L0 
C:\Users\stapi\AppData\Local\Temp\ccQLRcFb.s:1560   .text.__awss_dev_bind_notify:0000000000000008 .L0 
C:\Users\stapi\AppData\Local\Temp\ccQLRcFb.s:1562   .text.__awss_dev_bind_notify:0000000000000008 .L0 
C:\Users\stapi\AppData\Local\Temp\ccQLRcFb.s:1563   .text.__awss_dev_bind_notify:0000000000000008 .L0 
C:\Users\stapi\AppData\Local\Temp\ccQLRcFb.s:1565   .text.__awss_dev_bind_notify:000000000000000c .L0 
C:\Users\stapi\AppData\Local\Temp\ccQLRcFb.s:1568   .text.__awss_dev_bind_notify:0000000000000012 .L0 
C:\Users\stapi\AppData\Local\Temp\ccQLRcFb.s:1569   .text.__awss_dev_bind_notify:0000000000000012 .L0 
C:\Users\stapi\AppData\Local\Temp\ccQLRcFb.s:1571   .text.__awss_dev_bind_notify:0000000000000016 .L0 
C:\Users\stapi\AppData\Local\Temp\ccQLRcFb.s:1575   .text.__awss_dev_bind_notify:0000000000000020 .L0 
C:\Users\stapi\AppData\Local\Temp\ccQLRcFb.s:1576   .text.__awss_dev_bind_notify:0000000000000020 .L0 
C:\Users\stapi\AppData\Local\Temp\ccQLRcFb.s:1584   .text.__awss_dev_bind_notify:000000000000003a .L0 
C:\Users\stapi\AppData\Local\Temp\ccQLRcFb.s:1587   .text.__awss_dev_bind_notify:000000000000003c .L0 
C:\Users\stapi\AppData\Local\Temp\ccQLRcFb.s:1591   .text.__awss_dev_bind_notify:0000000000000046 .L0 
C:\Users\stapi\AppData\Local\Temp\ccQLRcFb.s:1600   .text.__awss_dev_bind_notify:0000000000000054 .L0 
C:\Users\stapi\AppData\Local\Temp\ccQLRcFb.s:1601   .text.__awss_dev_bind_notify:0000000000000054 .L0 
C:\Users\stapi\AppData\Local\Temp\ccQLRcFb.s:1602   .text.__awss_dev_bind_notify:0000000000000054 .L0 
C:\Users\stapi\AppData\Local\Temp\ccQLRcFb.s:1607   .text.__awss_dev_bind_notify:0000000000000058 .L0 
C:\Users\stapi\AppData\Local\Temp\ccQLRcFb.s:1608   .text.__awss_dev_bind_notify:0000000000000058 .L0 
C:\Users\stapi\AppData\Local\Temp\ccQLRcFb.s:1611   .text.__awss_dev_bind_notify:0000000000000060 .L0 
C:\Users\stapi\AppData\Local\Temp\ccQLRcFb.s:1616   .text.__awss_dev_bind_notify:000000000000006a .L0 
C:\Users\stapi\AppData\Local\Temp\ccQLRcFb.s:1617   .text.__awss_dev_bind_notify:000000000000006a .L0 
C:\Users\stapi\AppData\Local\Temp\ccQLRcFb.s:1619   .text.__awss_dev_bind_notify:000000000000006e .L0 
C:\Users\stapi\AppData\Local\Temp\ccQLRcFb.s:1623   .text.__awss_dev_bind_notify:0000000000000078 .L0 
C:\Users\stapi\AppData\Local\Temp\ccQLRcFb.s:1629   .text.__awss_dev_bind_notify:0000000000000084 .L0 
C:\Users\stapi\AppData\Local\Temp\ccQLRcFb.s:1632   .text.__awss_dev_bind_notify:0000000000000086 .L0 
C:\Users\stapi\AppData\Local\Temp\ccQLRcFb.s:1635   .text.__awss_dev_bind_notify:000000000000008a .L0 
C:\Users\stapi\AppData\Local\Temp\ccQLRcFb.s:1639   .text.__awss_dev_bind_notify:0000000000000092 .L0 
C:\Users\stapi\AppData\Local\Temp\ccQLRcFb.s:1640   .text.__awss_dev_bind_notify:0000000000000092 .L0 
C:\Users\stapi\AppData\Local\Temp\ccQLRcFb.s:1641   .text.__awss_dev_bind_notify:0000000000000092 .L0 
C:\Users\stapi\AppData\Local\Temp\ccQLRcFb.s:1642   .text.__awss_dev_bind_notify:0000000000000092 .L0 
C:\Users\stapi\AppData\Local\Temp\ccQLRcFb.s:1644   .text.__awss_dev_bind_notify:0000000000000096 .L0 
C:\Users\stapi\AppData\Local\Temp\ccQLRcFb.s:1648   .text.__awss_dev_bind_notify:00000000000000a0 .L0 
C:\Users\stapi\AppData\Local\Temp\ccQLRcFb.s:1651   .text.__awss_dev_bind_notify:00000000000000a8 .L0 
C:\Users\stapi\AppData\Local\Temp\ccQLRcFb.s:1655   .text.__awss_dev_bind_notify:00000000000000aa .L0 
C:\Users\stapi\AppData\Local\Temp\ccQLRcFb.s:1656   .text.__awss_dev_bind_notify:00000000000000aa .L0 
C:\Users\stapi\AppData\Local\Temp\ccQLRcFb.s:1658   .text.__awss_dev_bind_notify:00000000000000ae .L0 
C:\Users\stapi\AppData\Local\Temp\ccQLRcFb.s:1662   .text.__awss_dev_bind_notify:00000000000000b4 .L0 
C:\Users\stapi\AppData\Local\Temp\ccQLRcFb.s:1663   .text.__awss_dev_bind_notify:00000000000000b4 .L0 
C:\Users\stapi\AppData\Local\Temp\ccQLRcFb.s:1664   .text.__awss_dev_bind_notify:00000000000000b4 .L0 
C:\Users\stapi\AppData\Local\Temp\ccQLRcFb.s:1668   .text.__awss_dev_bind_notify:00000000000000ba .L0 
C:\Users\stapi\AppData\Local\Temp\ccQLRcFb.s:1669   .text.__awss_dev_bind_notify:00000000000000ba .L0 
C:\Users\stapi\AppData\Local\Temp\ccQLRcFb.s:1675   .text.__awss_dev_bind_notify:00000000000000c8 .L0 
C:\Users\stapi\AppData\Local\Temp\ccQLRcFb.s:1677   .text.__awss_dev_bind_notify:00000000000000cc .L0 
C:\Users\stapi\AppData\Local\Temp\ccQLRcFb.s:1681   .text.__awss_dev_bind_notify:00000000000000d8 .L0 
C:\Users\stapi\AppData\Local\Temp\ccQLRcFb.s:1683   .text.__awss_dev_bind_notify:00000000000000da .L0 
C:\Users\stapi\AppData\Local\Temp\ccQLRcFb.s:1688   .text.__awss_dev_bind_notify:00000000000000e6 .L0 
C:\Users\stapi\AppData\Local\Temp\ccQLRcFb.s:1689   .text.__awss_dev_bind_notify:00000000000000e6 .L0 
C:\Users\stapi\AppData\Local\Temp\ccQLRcFb.s:1693   .text.__awss_dev_bind_notify:00000000000000f0 .L0 
C:\Users\stapi\AppData\Local\Temp\ccQLRcFb.s:1695   .text.__awss_dev_bind_notify:00000000000000f4 .L0 
C:\Users\stapi\AppData\Local\Temp\ccQLRcFb.s:1698   .text.__awss_dev_bind_notify:00000000000000fa .L0 
C:\Users\stapi\AppData\Local\Temp\ccQLRcFb.s:1699   .text.__awss_dev_bind_notify:00000000000000fa .L0 
C:\Users\stapi\AppData\Local\Temp\ccQLRcFb.s:1704   .text.__awss_dev_bind_notify:0000000000000104 .L0 
C:\Users\stapi\AppData\Local\Temp\ccQLRcFb.s:1705   .text.__awss_dev_bind_notify:0000000000000104 .L0 
C:\Users\stapi\AppData\Local\Temp\ccQLRcFb.s:1706   .text.__awss_dev_bind_notify:0000000000000104 .L0 
C:\Users\stapi\AppData\Local\Temp\ccQLRcFb.s:1712   .text.__awss_dev_bind_notify:000000000000010e .L0 
C:\Users\stapi\AppData\Local\Temp\ccQLRcFb.s:1713   .text.__awss_dev_bind_notify:000000000000010e .L0 
C:\Users\stapi\AppData\Local\Temp\ccQLRcFb.s:1719   .text.__awss_dev_bind_notify:0000000000000122 .L0 
C:\Users\stapi\AppData\Local\Temp\ccQLRcFb.s:1720   .text.__awss_dev_bind_notify:0000000000000122 .L0 
C:\Users\stapi\AppData\Local\Temp\ccQLRcFb.s:1722   .text.__awss_dev_bind_notify:0000000000000126 .L0 
C:\Users\stapi\AppData\Local\Temp\ccQLRcFb.s:1726   .text.__awss_dev_bind_notify:0000000000000130 .L0 
C:\Users\stapi\AppData\Local\Temp\ccQLRcFb.s:1728   .text.__awss_dev_bind_notify:0000000000000134 .L0 
C:\Users\stapi\AppData\Local\Temp\ccQLRcFb.s:1730   .text.__awss_dev_bind_notify:0000000000000138 .L0 
C:\Users\stapi\AppData\Local\Temp\ccQLRcFb.s:1731   .text.__awss_dev_bind_notify:0000000000000138 .L0 
C:\Users\stapi\AppData\Local\Temp\ccQLRcFb.s:1733   .text.__awss_dev_bind_notify:000000000000013c .L0 
C:\Users\stapi\AppData\Local\Temp\ccQLRcFb.s:1734   .text.__awss_dev_bind_notify:000000000000013c .L0 
C:\Users\stapi\AppData\Local\Temp\ccQLRcFb.s:1736   .text.__awss_dev_bind_notify:0000000000000140 .L0 
C:\Users\stapi\AppData\Local\Temp\ccQLRcFb.s:1737   .text.__awss_dev_bind_notify:0000000000000140 .L0 
C:\Users\stapi\AppData\Local\Temp\ccQLRcFb.s:1738   .text.__awss_dev_bind_notify:0000000000000140 .L0 
C:\Users\stapi\AppData\Local\Temp\ccQLRcFb.s:1740   .text.__awss_dev_bind_notify:0000000000000142 .L0 
C:\Users\stapi\AppData\Local\Temp\ccQLRcFb.s:1743   .text.__awss_dev_bind_notify:000000000000014a .L0 
C:\Users\stapi\AppData\Local\Temp\ccQLRcFb.s:1744   .text.__awss_dev_bind_notify:000000000000014a .L0 
C:\Users\stapi\AppData\Local\Temp\ccQLRcFb.s:1747   .text.__awss_dev_bind_notify:000000000000014e .L0 
C:\Users\stapi\AppData\Local\Temp\ccQLRcFb.s:1748   .text.__awss_dev_bind_notify:000000000000014e .L0 
C:\Users\stapi\AppData\Local\Temp\ccQLRcFb.s:1750   .text.__awss_dev_bind_notify:0000000000000150 .L0 
C:\Users\stapi\AppData\Local\Temp\ccQLRcFb.s:1752   .text.__awss_dev_bind_notify:0000000000000152 .L0 
C:\Users\stapi\AppData\Local\Temp\ccQLRcFb.s:1754   .text.__awss_dev_bind_notify:0000000000000154 .L0 
C:\Users\stapi\AppData\Local\Temp\ccQLRcFb.s:1757   .text.__awss_dev_bind_notify:000000000000015c .L0 
C:\Users\stapi\AppData\Local\Temp\ccQLRcFb.s:1761   .text.__awss_dev_bind_notify:0000000000000166 .L0 
C:\Users\stapi\AppData\Local\Temp\ccQLRcFb.s:1762   .text.__awss_dev_bind_notify:0000000000000166 .L0 
C:\Users\stapi\AppData\Local\Temp\ccQLRcFb.s:1766   .text.__awss_dev_bind_notify:000000000000016c .L0 
C:\Users\stapi\AppData\Local\Temp\ccQLRcFb.s:1767   .text.__awss_dev_bind_notify:000000000000016c .L0 
C:\Users\stapi\AppData\Local\Temp\ccQLRcFb.s:1770   .text.__awss_dev_bind_notify:0000000000000174 .L0 
C:\Users\stapi\AppData\Local\Temp\ccQLRcFb.s:1772   .text.__awss_dev_bind_notify:0000000000000176 .L0 
C:\Users\stapi\AppData\Local\Temp\ccQLRcFb.s:1773   .text.__awss_dev_bind_notify:0000000000000176 .L0 
C:\Users\stapi\AppData\Local\Temp\ccQLRcFb.s:1775   .text.__awss_dev_bind_notify:000000000000017a .L0 
C:\Users\stapi\AppData\Local\Temp\ccQLRcFb.s:1780   .text.__awss_dev_bind_notify:000000000000017e .L0 
C:\Users\stapi\AppData\Local\Temp\ccQLRcFb.s:1782   .text.__awss_dev_bind_notify:0000000000000188 .L0 
C:\Users\stapi\AppData\Local\Temp\ccQLRcFb.s:1783   .text.__awss_dev_bind_notify:0000000000000188 .L0 
C:\Users\stapi\AppData\Local\Temp\ccQLRcFb.s:1784   .text.__awss_dev_bind_notify:0000000000000188 .L0 
C:\Users\stapi\AppData\Local\Temp\ccQLRcFb.s:1785   .text.__awss_dev_bind_notify:0000000000000188 .L0 
C:\Users\stapi\AppData\Local\Temp\ccQLRcFb.s:1786   .text.__awss_dev_bind_notify:0000000000000188 .L0 
C:\Users\stapi\AppData\Local\Temp\ccQLRcFb.s:1787   .text.__awss_dev_bind_notify:0000000000000188 .L0 
C:\Users\stapi\AppData\Local\Temp\ccQLRcFb.s:1788   .text.__awss_dev_bind_notify:0000000000000188 .L0 
C:\Users\stapi\AppData\Local\Temp\ccQLRcFb.s:1789   .text.__awss_dev_bind_notify:0000000000000188 .L0 
C:\Users\stapi\AppData\Local\Temp\ccQLRcFb.s:1790   .text.__awss_dev_bind_notify:0000000000000188 .L0 
C:\Users\stapi\AppData\Local\Temp\ccQLRcFb.s:1792   .text.__awss_dev_bind_notify:0000000000000188 .L0 
C:\Users\stapi\AppData\Local\Temp\ccQLRcFb.s:1797   .text.__awss_dev_bind_notify:0000000000000188 .L0 
C:\Users\stapi\AppData\Local\Temp\ccQLRcFb.s:1798   .text.__awss_dev_bind_notify:0000000000000188 .L0 
C:\Users\stapi\AppData\Local\Temp\ccQLRcFb.s:1801   .text.__awss_dev_bind_notify:000000000000018e .L0 
C:\Users\stapi\AppData\Local\Temp\ccQLRcFb.s:1802   .text.__awss_dev_bind_notify:000000000000018e .L0 
C:\Users\stapi\AppData\Local\Temp\ccQLRcFb.s:1805   .text.__awss_dev_bind_notify:0000000000000194 .L0 
C:\Users\stapi\AppData\Local\Temp\ccQLRcFb.s:1808   .text.__awss_dev_bind_notify:000000000000019c .L0 
C:\Users\stapi\AppData\Local\Temp\ccQLRcFb.s:1809   .text.__awss_dev_bind_notify:000000000000019c .L0 
C:\Users\stapi\AppData\Local\Temp\ccQLRcFb.s:1812   .text.__awss_dev_bind_notify:00000000000001a2 .L0 
C:\Users\stapi\AppData\Local\Temp\ccQLRcFb.s:1813   .text.__awss_dev_bind_notify:00000000000001a2 .L0 
C:\Users\stapi\AppData\Local\Temp\ccQLRcFb.s:1816   .text.__awss_dev_bind_notify:00000000000001a6 .L0 
C:\Users\stapi\AppData\Local\Temp\ccQLRcFb.s:1817   .text.__awss_dev_bind_notify:00000000000001a6 .L0 
C:\Users\stapi\AppData\Local\Temp\ccQLRcFb.s:1820   .text.__awss_dev_bind_notify:00000000000001ac .L0 
C:\Users\stapi\AppData\Local\Temp\ccQLRcFb.s:1821   .text.__awss_dev_bind_notify:00000000000001ac .L0 
C:\Users\stapi\AppData\Local\Temp\ccQLRcFb.s:1823   .text.__awss_dev_bind_notify:00000000000001b0 .L0 
C:\Users\stapi\AppData\Local\Temp\ccQLRcFb.s:1827   .text.__awss_dev_bind_notify:00000000000001ba .L0 
C:\Users\stapi\AppData\Local\Temp\ccQLRcFb.s:1867   .text.awss_dev_bind_notify:0000000000000000 awss_dev_bind_notify
C:\Users\stapi\AppData\Local\Temp\ccQLRcFb.s:1828   .text.__awss_dev_bind_notify:00000000000001ba .L0 
C:\Users\stapi\AppData\Local\Temp\ccQLRcFb.s:1836   .text.__awss_dev_bind_notify:00000000000001d4 .L0 
C:\Users\stapi\AppData\Local\Temp\ccQLRcFb.s:1839   .text.__awss_dev_bind_notify:00000000000001d6 .L0 
C:\Users\stapi\AppData\Local\Temp\ccQLRcFb.s:1843   .text.__awss_dev_bind_notify:00000000000001e0 .L0 
C:\Users\stapi\AppData\Local\Temp\ccQLRcFb.s:1853   .text.__awss_dev_bind_notify:00000000000001fc .L0 
C:\Users\stapi\AppData\Local\Temp\ccQLRcFb.s:1860   .text.__awss_dev_bind_notify:0000000000000208 .L0 
C:\Users\stapi\AppData\Local\Temp\ccQLRcFb.s:1870   .text.awss_dev_bind_notify:0000000000000000 .L0 
C:\Users\stapi\AppData\Local\Temp\ccQLRcFb.s:1871   .text.awss_dev_bind_notify:0000000000000000 .L0 
C:\Users\stapi\AppData\Local\Temp\ccQLRcFb.s:1872   .text.awss_dev_bind_notify:0000000000000000 .L0 
C:\Users\stapi\AppData\Local\Temp\ccQLRcFb.s:1873   .text.awss_dev_bind_notify:0000000000000000 .L0 
C:\Users\stapi\AppData\Local\Temp\ccQLRcFb.s:1876   .text.awss_dev_bind_notify:0000000000000008 .L0 
C:\Users\stapi\AppData\Local\Temp\ccQLRcFb.s:1877   .text.awss_dev_bind_notify:0000000000000008 .L0 
C:\Users\stapi\AppData\Local\Temp\ccQLRcFb.s:1880   .text.awss_dev_bind_notify:0000000000000010 .L0 
C:\Users\stapi\AppData\Local\Temp\ccQLRcFb.s:1881   .text.awss_dev_bind_notify:0000000000000010 .L0 
C:\Users\stapi\AppData\Local\Temp\ccQLRcFb.s:1884   .text.awss_dev_bind_notify:0000000000000018 .L0 
C:\Users\stapi\AppData\Local\Temp\ccQLRcFb.s:1885   .text.awss_dev_bind_notify:0000000000000018 .L0 
C:\Users\stapi\AppData\Local\Temp\ccQLRcFb.s:1888   .text.awss_dev_bind_notify:0000000000000020 .L0 
C:\Users\stapi\AppData\Local\Temp\ccQLRcFb.s:1889   .text.awss_dev_bind_notify:0000000000000020 .L0 
C:\Users\stapi\AppData\Local\Temp\ccQLRcFb.s:1891   .text.awss_dev_bind_notify:0000000000000028 .L0 
C:\Users\stapi\AppData\Local\Temp\ccQLRcFb.s:1907   .text.__awss_suc_notify:0000000000000000 __awss_suc_notify
C:\Users\stapi\AppData\Local\Temp\ccQLRcFb.s:1910   .text.__awss_suc_notify:0000000000000000 .L0 
C:\Users\stapi\AppData\Local\Temp\ccQLRcFb.s:1911   .text.__awss_suc_notify:0000000000000000 .L0 
C:\Users\stapi\AppData\Local\Temp\ccQLRcFb.s:1912   .text.__awss_suc_notify:0000000000000008 .L0 
C:\Users\stapi\AppData\Local\Temp\ccQLRcFb.s:1913   .text.__awss_suc_notify:0000000000000008 .L0 
C:\Users\stapi\AppData\Local\Temp\ccQLRcFb.s:1914   .text.__awss_suc_notify:0000000000000008 .L0 
C:\Users\stapi\AppData\Local\Temp\ccQLRcFb.s:1915   .text.__awss_suc_notify:0000000000000008 .L0 
C:\Users\stapi\AppData\Local\Temp\ccQLRcFb.s:1916   .text.__awss_suc_notify:0000000000000008 .L0 
C:\Users\stapi\AppData\Local\Temp\ccQLRcFb.s:1917   .text.__awss_suc_notify:0000000000000008 .L0 
C:\Users\stapi\AppData\Local\Temp\ccQLRcFb.s:1918   .text.__awss_suc_notify:0000000000000008 .L0 
C:\Users\stapi\AppData\Local\Temp\ccQLRcFb.s:1919   .text.__awss_suc_notify:0000000000000008 .L0 
C:\Users\stapi\AppData\Local\Temp\ccQLRcFb.s:1921   .text.__awss_suc_notify:0000000000000008 .L0 
C:\Users\stapi\AppData\Local\Temp\ccQLRcFb.s:1927   .text.__awss_suc_notify:000000000000001c .L0 
C:\Users\stapi\AppData\Local\Temp\ccQLRcFb.s:1929   .text.__awss_suc_notify:0000000000000020 .L0 
C:\Users\stapi\AppData\Local\Temp\ccQLRcFb.s:1935   .text.__awss_suc_notify:0000000000000032 .L0 
C:\Users\stapi\AppData\Local\Temp\ccQLRcFb.s:1937   .text.__awss_suc_notify:0000000000000036 .L0 
C:\Users\stapi\AppData\Local\Temp\ccQLRcFb.s:1941   .text.__awss_suc_notify:0000000000000042 .L0 
C:\Users\stapi\AppData\Local\Temp\ccQLRcFb.s:1942   .text.__awss_suc_notify:0000000000000042 .L0 
C:\Users\stapi\AppData\Local\Temp\ccQLRcFb.s:1948   .text.__awss_suc_notify:000000000000004e .L0 
C:\Users\stapi\AppData\Local\Temp\ccQLRcFb.s:1949   .text.__awss_suc_notify:000000000000004e .L0 
C:\Users\stapi\AppData\Local\Temp\ccQLRcFb.s:1951   .text.__awss_suc_notify:0000000000000052 .L0 
C:\Users\stapi\AppData\Local\Temp\ccQLRcFb.s:1955   .text.__awss_suc_notify:000000000000005c .L0 
C:\Users\stapi\AppData\Local\Temp\ccQLRcFb.s:1961   .text.__awss_suc_notify:0000000000000068 .L0 
C:\Users\stapi\AppData\Local\Temp\ccQLRcFb.s:1967   .text.__awss_suc_notify:000000000000007a .L0 
C:\Users\stapi\AppData\Local\Temp\ccQLRcFb.s:1968   .text.__awss_suc_notify:000000000000007a .L0 
C:\Users\stapi\AppData\Local\Temp\ccQLRcFb.s:1971   .text.__awss_suc_notify:0000000000000082 .L0 
C:\Users\stapi\AppData\Local\Temp\ccQLRcFb.s:1974   .text.__awss_suc_notify:0000000000000088 .L0 
C:\Users\stapi\AppData\Local\Temp\ccQLRcFb.s:1979   .text.__awss_suc_notify:0000000000000094 .L0 
C:\Users\stapi\AppData\Local\Temp\ccQLRcFb.s:1980   .text.__awss_suc_notify:0000000000000094 .L0 
C:\Users\stapi\AppData\Local\Temp\ccQLRcFb.s:1982   .text.__awss_suc_notify:0000000000000098 .L0 
C:\Users\stapi\AppData\Local\Temp\ccQLRcFb.s:1985   .text.__awss_suc_notify:00000000000000a0 .L0 
C:\Users\stapi\AppData\Local\Temp\ccQLRcFb.s:1988   .text.__awss_suc_notify:00000000000000a8 .L0 
C:\Users\stapi\AppData\Local\Temp\ccQLRcFb.s:1990   .text.__awss_suc_notify:00000000000000ac .L0 
C:\Users\stapi\AppData\Local\Temp\ccQLRcFb.s:1992   .text.__awss_suc_notify:00000000000000b0 .L0 
C:\Users\stapi\AppData\Local\Temp\ccQLRcFb.s:1994   .text.__awss_suc_notify:00000000000000b2 .L0 
C:\Users\stapi\AppData\Local\Temp\ccQLRcFb.s:1996   .text.__awss_suc_notify:00000000000000b6 .L0 
C:\Users\stapi\AppData\Local\Temp\ccQLRcFb.s:1998   .text.__awss_suc_notify:00000000000000ba .L0 
C:\Users\stapi\AppData\Local\Temp\ccQLRcFb.s:2000   .text.__awss_suc_notify:00000000000000be .L0 
C:\Users\stapi\AppData\Local\Temp\ccQLRcFb.s:2002   .text.__awss_suc_notify:00000000000000c0 .L0 
C:\Users\stapi\AppData\Local\Temp\ccQLRcFb.s:2003   .text.__awss_suc_notify:00000000000000c0 .L0 
C:\Users\stapi\AppData\Local\Temp\ccQLRcFb.s:2006   .text.__awss_suc_notify:00000000000000c4 .L0 
C:\Users\stapi\AppData\Local\Temp\ccQLRcFb.s:2007   .text.__awss_suc_notify:00000000000000c4 .L0 
C:\Users\stapi\AppData\Local\Temp\ccQLRcFb.s:2015   .text.__awss_suc_notify:00000000000000de .L0 
C:\Users\stapi\AppData\Local\Temp\ccQLRcFb.s:2018   .text.__awss_suc_notify:00000000000000e0 .L0 
C:\Users\stapi\AppData\Local\Temp\ccQLRcFb.s:2022   .text.__awss_suc_notify:00000000000000ea .L0 
C:\Users\stapi\AppData\Local\Temp\ccQLRcFb.s:2025   .text.__awss_suc_notify:00000000000000f0 .L0 
C:\Users\stapi\AppData\Local\Temp\ccQLRcFb.s:2027   .text.__awss_suc_notify:00000000000000f2 .L0 
C:\Users\stapi\AppData\Local\Temp\ccQLRcFb.s:2030   .text.__awss_suc_notify:00000000000000fa .L0 
C:\Users\stapi\AppData\Local\Temp\ccQLRcFb.s:2034   .text.__awss_suc_notify:0000000000000104 .L0 
C:\Users\stapi\AppData\Local\Temp\ccQLRcFb.s:2035   .text.__awss_suc_notify:0000000000000104 .L0 
C:\Users\stapi\AppData\Local\Temp\ccQLRcFb.s:2038   .text.__awss_suc_notify:0000000000000106 .L0 
C:\Users\stapi\AppData\Local\Temp\ccQLRcFb.s:2039   .text.__awss_suc_notify:0000000000000106 .L0 
C:\Users\stapi\AppData\Local\Temp\ccQLRcFb.s:2042   .text.__awss_suc_notify:000000000000010e .L0 
C:\Users\stapi\AppData\Local\Temp\ccQLRcFb.s:2044   .text.__awss_suc_notify:0000000000000110 .L0 
C:\Users\stapi\AppData\Local\Temp\ccQLRcFb.s:2045   .text.__awss_suc_notify:0000000000000110 .L0 
C:\Users\stapi\AppData\Local\Temp\ccQLRcFb.s:2047   .text.__awss_suc_notify:0000000000000114 .L0 
C:\Users\stapi\AppData\Local\Temp\ccQLRcFb.s:2050   .text.__awss_suc_notify:0000000000000116 .L0 
C:\Users\stapi\AppData\Local\Temp\ccQLRcFb.s:2052   .text.__awss_suc_notify:0000000000000120 .L0 
C:\Users\stapi\AppData\Local\Temp\ccQLRcFb.s:2053   .text.__awss_suc_notify:0000000000000120 .L0 
C:\Users\stapi\AppData\Local\Temp\ccQLRcFb.s:2054   .text.__awss_suc_notify:0000000000000120 .L0 
C:\Users\stapi\AppData\Local\Temp\ccQLRcFb.s:2055   .text.__awss_suc_notify:0000000000000120 .L0 
C:\Users\stapi\AppData\Local\Temp\ccQLRcFb.s:2056   .text.__awss_suc_notify:0000000000000120 .L0 
C:\Users\stapi\AppData\Local\Temp\ccQLRcFb.s:2057   .text.__awss_suc_notify:0000000000000120 .L0 
C:\Users\stapi\AppData\Local\Temp\ccQLRcFb.s:2058   .text.__awss_suc_notify:0000000000000120 .L0 
C:\Users\stapi\AppData\Local\Temp\ccQLRcFb.s:2059   .text.__awss_suc_notify:0000000000000120 .L0 
C:\Users\stapi\AppData\Local\Temp\ccQLRcFb.s:2060   .text.__awss_suc_notify:0000000000000120 .L0 
C:\Users\stapi\AppData\Local\Temp\ccQLRcFb.s:2062   .text.__awss_suc_notify:0000000000000120 .L0 
C:\Users\stapi\AppData\Local\Temp\ccQLRcFb.s:2064   .text.__awss_suc_notify:0000000000000120 .L0 
C:\Users\stapi\AppData\Local\Temp\ccQLRcFb.s:2065   .text.__awss_suc_notify:0000000000000120 .L0 
C:\Users\stapi\AppData\Local\Temp\ccQLRcFb.s:2066   .text.__awss_suc_notify:0000000000000120 .L0 
C:\Users\stapi\AppData\Local\Temp\ccQLRcFb.s:2068   .text.__awss_suc_notify:0000000000000122 .L0 
C:\Users\stapi\AppData\Local\Temp\ccQLRcFb.s:2076   .text.__awss_suc_notify:0000000000000138 .L0 
C:\Users\stapi\AppData\Local\Temp\ccQLRcFb.s:2082   .text.__awss_suc_notify:000000000000014c .L0 
C:\Users\stapi\AppData\Local\Temp\ccQLRcFb.s:2083   .text.__awss_suc_notify:000000000000014c .L0 
C:\Users\stapi\AppData\Local\Temp\ccQLRcFb.s:2085   .text.__awss_suc_notify:000000000000014e .L0 
C:\Users\stapi\AppData\Local\Temp\ccQLRcFb.s:2087   .text.__awss_suc_notify:0000000000000152 .L0 
C:\Users\stapi\AppData\Local\Temp\ccQLRcFb.s:2088   .text.__awss_suc_notify:0000000000000152 .L0 
C:\Users\stapi\AppData\Local\Temp\ccQLRcFb.s:2090   .text.__awss_suc_notify:0000000000000156 .L0 
C:\Users\stapi\AppData\Local\Temp\ccQLRcFb.s:2091   .text.__awss_suc_notify:0000000000000156 .L0 
C:\Users\stapi\AppData\Local\Temp\ccQLRcFb.s:2093   .text.__awss_suc_notify:000000000000015a .L0 
C:\Users\stapi\AppData\Local\Temp\ccQLRcFb.s:2094   .text.__awss_suc_notify:000000000000015a .L0 
C:\Users\stapi\AppData\Local\Temp\ccQLRcFb.s:2096   .text.__awss_suc_notify:000000000000015e .L0 
C:\Users\stapi\AppData\Local\Temp\ccQLRcFb.s:2097   .text.__awss_suc_notify:000000000000015e .L0 
C:\Users\stapi\AppData\Local\Temp\ccQLRcFb.s:2099   .text.__awss_suc_notify:0000000000000160 .L0 
C:\Users\stapi\AppData\Local\Temp\ccQLRcFb.s:2102   .text.__awss_suc_notify:0000000000000168 .L0 
C:\Users\stapi\AppData\Local\Temp\ccQLRcFb.s:2103   .text.__awss_suc_notify:0000000000000168 .L0 
C:\Users\stapi\AppData\Local\Temp\ccQLRcFb.s:2106   .text.__awss_suc_notify:000000000000016c .L0 
C:\Users\stapi\AppData\Local\Temp\ccQLRcFb.s:2107   .text.__awss_suc_notify:000000000000016c .L0 
C:\Users\stapi\AppData\Local\Temp\ccQLRcFb.s:2109   .text.__awss_suc_notify:000000000000016e .L0 
C:\Users\stapi\AppData\Local\Temp\ccQLRcFb.s:2111   .text.__awss_suc_notify:0000000000000170 .L0 
C:\Users\stapi\AppData\Local\Temp\ccQLRcFb.s:2113   .text.__awss_suc_notify:0000000000000172 .L0 
C:\Users\stapi\AppData\Local\Temp\ccQLRcFb.s:2116   .text.__awss_suc_notify:000000000000017a .L0 
C:\Users\stapi\AppData\Local\Temp\ccQLRcFb.s:2120   .text.__awss_suc_notify:0000000000000184 .L0 
C:\Users\stapi\AppData\Local\Temp\ccQLRcFb.s:2121   .text.__awss_suc_notify:0000000000000184 .L0 
C:\Users\stapi\AppData\Local\Temp\ccQLRcFb.s:2123   .text.__awss_suc_notify:000000000000018a .L0 
C:\Users\stapi\AppData\Local\Temp\ccQLRcFb.s:2133   .text.__awss_devinfo_notify:0000000000000000 __awss_devinfo_notify
C:\Users\stapi\AppData\Local\Temp\ccQLRcFb.s:2136   .text.__awss_devinfo_notify:0000000000000000 .L0 
C:\Users\stapi\AppData\Local\Temp\ccQLRcFb.s:2137   .text.__awss_devinfo_notify:0000000000000000 .L0 
C:\Users\stapi\AppData\Local\Temp\ccQLRcFb.s:2138   .text.__awss_devinfo_notify:0000000000000008 .L0 
C:\Users\stapi\AppData\Local\Temp\ccQLRcFb.s:2139   .text.__awss_devinfo_notify:0000000000000008 .L0 
C:\Users\stapi\AppData\Local\Temp\ccQLRcFb.s:2140   .text.__awss_devinfo_notify:0000000000000008 .L0 
C:\Users\stapi\AppData\Local\Temp\ccQLRcFb.s:2141   .text.__awss_devinfo_notify:0000000000000008 .L0 
C:\Users\stapi\AppData\Local\Temp\ccQLRcFb.s:2142   .text.__awss_devinfo_notify:0000000000000008 .L0 
C:\Users\stapi\AppData\Local\Temp\ccQLRcFb.s:2143   .text.__awss_devinfo_notify:0000000000000008 .L0 
C:\Users\stapi\AppData\Local\Temp\ccQLRcFb.s:2144   .text.__awss_devinfo_notify:0000000000000008 .L0 
C:\Users\stapi\AppData\Local\Temp\ccQLRcFb.s:2145   .text.__awss_devinfo_notify:0000000000000008 .L0 
C:\Users\stapi\AppData\Local\Temp\ccQLRcFb.s:2147   .text.__awss_devinfo_notify:0000000000000008 .L0 
C:\Users\stapi\AppData\Local\Temp\ccQLRcFb.s:2148   .text.__awss_devinfo_notify:0000000000000008 .L0 
C:\Users\stapi\AppData\Local\Temp\ccQLRcFb.s:2151   .text.__awss_devinfo_notify:0000000000000010 .L0 
C:\Users\stapi\AppData\Local\Temp\ccQLRcFb.s:2156   .text.__awss_devinfo_notify:0000000000000018 .L0 
C:\Users\stapi\AppData\Local\Temp\ccQLRcFb.s:2162   .text.__awss_devinfo_notify:000000000000002a .L0 
C:\Users\stapi\AppData\Local\Temp\ccQLRcFb.s:2163   .text.__awss_devinfo_notify:000000000000002a .L0 
C:\Users\stapi\AppData\Local\Temp\ccQLRcFb.s:2164   .text.__awss_devinfo_notify:000000000000002a .L0 
C:\Users\stapi\AppData\Local\Temp\ccQLRcFb.s:2172   .text.__awss_devinfo_notify:0000000000000046 .L0 
C:\Users\stapi\AppData\Local\Temp\ccQLRcFb.s:2175   .text.__awss_devinfo_notify:000000000000004c .L0 
C:\Users\stapi\AppData\Local\Temp\ccQLRcFb.s:2180   .text.__awss_devinfo_notify:0000000000000058 .L0 
C:\Users\stapi\AppData\Local\Temp\ccQLRcFb.s:2181   .text.__awss_devinfo_notify:0000000000000058 .L0 
C:\Users\stapi\AppData\Local\Temp\ccQLRcFb.s:2185   .text.__awss_devinfo_notify:0000000000000064 .L0 
C:\Users\stapi\AppData\Local\Temp\ccQLRcFb.s:2186   .text.__awss_devinfo_notify:0000000000000064 .L0 
C:\Users\stapi\AppData\Local\Temp\ccQLRcFb.s:2190   .text.__awss_devinfo_notify:0000000000000070 .L0 
C:\Users\stapi\AppData\Local\Temp\ccQLRcFb.s:2193   .text.__awss_devinfo_notify:0000000000000076 .L0 
C:\Users\stapi\AppData\Local\Temp\ccQLRcFb.s:2196   .text.__awss_devinfo_notify:000000000000007c .L0 
C:\Users\stapi\AppData\Local\Temp\ccQLRcFb.s:2197   .text.__awss_devinfo_notify:000000000000007c .L0 
C:\Users\stapi\AppData\Local\Temp\ccQLRcFb.s:2200   .text.__awss_devinfo_notify:0000000000000080 .L0 
C:\Users\stapi\AppData\Local\Temp\ccQLRcFb.s:2201   .text.__awss_devinfo_notify:0000000000000080 .L0 
C:\Users\stapi\AppData\Local\Temp\ccQLRcFb.s:2209   .text.__awss_devinfo_notify:000000000000009a .L0 
C:\Users\stapi\AppData\Local\Temp\ccQLRcFb.s:2212   .text.__awss_devinfo_notify:000000000000009c .L0 
C:\Users\stapi\AppData\Local\Temp\ccQLRcFb.s:2216   .text.__awss_devinfo_notify:00000000000000a6 .L0 
C:\Users\stapi\AppData\Local\Temp\ccQLRcFb.s:2219   .text.__awss_devinfo_notify:00000000000000ac .L0 
C:\Users\stapi\AppData\Local\Temp\ccQLRcFb.s:2221   .text.__awss_devinfo_notify:00000000000000ae .L0 
C:\Users\stapi\AppData\Local\Temp\ccQLRcFb.s:2224   .text.__awss_devinfo_notify:00000000000000b6 .L0 
C:\Users\stapi\AppData\Local\Temp\ccQLRcFb.s:2228   .text.__awss_devinfo_notify:00000000000000c0 .L0 
C:\Users\stapi\AppData\Local\Temp\ccQLRcFb.s:2229   .text.__awss_devinfo_notify:00000000000000c0 .L0 
C:\Users\stapi\AppData\Local\Temp\ccQLRcFb.s:2232   .text.__awss_devinfo_notify:00000000000000c2 .L0 
C:\Users\stapi\AppData\Local\Temp\ccQLRcFb.s:2233   .text.__awss_devinfo_notify:00000000000000c2 .L0 
C:\Users\stapi\AppData\Local\Temp\ccQLRcFb.s:2236   .text.__awss_devinfo_notify:00000000000000ca .L0 
C:\Users\stapi\AppData\Local\Temp\ccQLRcFb.s:2238   .text.__awss_devinfo_notify:00000000000000cc .L0 
C:\Users\stapi\AppData\Local\Temp\ccQLRcFb.s:2239   .text.__awss_devinfo_notify:00000000000000cc .L0 
C:\Users\stapi\AppData\Local\Temp\ccQLRcFb.s:2241   .text.__awss_devinfo_notify:00000000000000d0 .L0 
C:\Users\stapi\AppData\Local\Temp\ccQLRcFb.s:2244   .text.__awss_devinfo_notify:00000000000000d2 .L0 
C:\Users\stapi\AppData\Local\Temp\ccQLRcFb.s:2246   .text.__awss_devinfo_notify:00000000000000dc .L0 
C:\Users\stapi\AppData\Local\Temp\ccQLRcFb.s:2247   .text.__awss_devinfo_notify:00000000000000dc .L0 
C:\Users\stapi\AppData\Local\Temp\ccQLRcFb.s:2248   .text.__awss_devinfo_notify:00000000000000dc .L0 
C:\Users\stapi\AppData\Local\Temp\ccQLRcFb.s:2249   .text.__awss_devinfo_notify:00000000000000dc .L0 
C:\Users\stapi\AppData\Local\Temp\ccQLRcFb.s:2250   .text.__awss_devinfo_notify:00000000000000dc .L0 
C:\Users\stapi\AppData\Local\Temp\ccQLRcFb.s:2251   .text.__awss_devinfo_notify:00000000000000dc .L0 
C:\Users\stapi\AppData\Local\Temp\ccQLRcFb.s:2252   .text.__awss_devinfo_notify:00000000000000dc .L0 
C:\Users\stapi\AppData\Local\Temp\ccQLRcFb.s:2253   .text.__awss_devinfo_notify:00000000000000dc .L0 
C:\Users\stapi\AppData\Local\Temp\ccQLRcFb.s:2254   .text.__awss_devinfo_notify:00000000000000dc .L0 
C:\Users\stapi\AppData\Local\Temp\ccQLRcFb.s:2256   .text.__awss_devinfo_notify:00000000000000dc .L0 
C:\Users\stapi\AppData\Local\Temp\ccQLRcFb.s:2258   .text.__awss_devinfo_notify:00000000000000dc .L0 
C:\Users\stapi\AppData\Local\Temp\ccQLRcFb.s:2259   .text.__awss_devinfo_notify:00000000000000dc .L0 
C:\Users\stapi\AppData\Local\Temp\ccQLRcFb.s:2265   .text.__awss_devinfo_notify:00000000000000f0 .L0 
C:\Users\stapi\AppData\Local\Temp\ccQLRcFb.s:2266   .text.__awss_devinfo_notify:00000000000000f0 .L0 
C:\Users\stapi\AppData\Local\Temp\ccQLRcFb.s:2268   .text.__awss_devinfo_notify:00000000000000f2 .L0 
C:\Users\stapi\AppData\Local\Temp\ccQLRcFb.s:2270   .text.__awss_devinfo_notify:00000000000000f6 .L0 
C:\Users\stapi\AppData\Local\Temp\ccQLRcFb.s:2271   .text.__awss_devinfo_notify:00000000000000f6 .L0 
C:\Users\stapi\AppData\Local\Temp\ccQLRcFb.s:2273   .text.__awss_devinfo_notify:00000000000000fa .L0 
C:\Users\stapi\AppData\Local\Temp\ccQLRcFb.s:2274   .text.__awss_devinfo_notify:00000000000000fa .L0 
C:\Users\stapi\AppData\Local\Temp\ccQLRcFb.s:2276   .text.__awss_devinfo_notify:00000000000000fe .L0 
C:\Users\stapi\AppData\Local\Temp\ccQLRcFb.s:2277   .text.__awss_devinfo_notify:00000000000000fe .L0 
C:\Users\stapi\AppData\Local\Temp\ccQLRcFb.s:2279   .text.__awss_devinfo_notify:0000000000000102 .L0 
C:\Users\stapi\AppData\Local\Temp\ccQLRcFb.s:2280   .text.__awss_devinfo_notify:0000000000000102 .L0 
C:\Users\stapi\AppData\Local\Temp\ccQLRcFb.s:2282   .text.__awss_devinfo_notify:0000000000000104 .L0 
C:\Users\stapi\AppData\Local\Temp\ccQLRcFb.s:2285   .text.__awss_devinfo_notify:000000000000010c .L0 
C:\Users\stapi\AppData\Local\Temp\ccQLRcFb.s:2286   .text.__awss_devinfo_notify:000000000000010c .L0 
C:\Users\stapi\AppData\Local\Temp\ccQLRcFb.s:2289   .text.__awss_devinfo_notify:0000000000000110 .L0 
C:\Users\stapi\AppData\Local\Temp\ccQLRcFb.s:2290   .text.__awss_devinfo_notify:0000000000000110 .L0 
C:\Users\stapi\AppData\Local\Temp\ccQLRcFb.s:2292   .text.__awss_devinfo_notify:0000000000000112 .L0 
C:\Users\stapi\AppData\Local\Temp\ccQLRcFb.s:2294   .text.__awss_devinfo_notify:0000000000000114 .L0 
C:\Users\stapi\AppData\Local\Temp\ccQLRcFb.s:2296   .text.__awss_devinfo_notify:0000000000000116 .L0 
C:\Users\stapi\AppData\Local\Temp\ccQLRcFb.s:2299   .text.__awss_devinfo_notify:000000000000011e .L0 
C:\Users\stapi\AppData\Local\Temp\ccQLRcFb.s:2303   .text.__awss_devinfo_notify:0000000000000128 .L0 
C:\Users\stapi\AppData\Local\Temp\ccQLRcFb.s:2304   .text.__awss_devinfo_notify:0000000000000128 .L0 
C:\Users\stapi\AppData\Local\Temp\ccQLRcFb.s:2306   .text.__awss_devinfo_notify:000000000000012e .L0 
C:\Users\stapi\AppData\Local\Temp\ccQLRcFb.s:2313   .text.online_mcast_get_device_info:0000000000000000 online_mcast_get_device_info
C:\Users\stapi\AppData\Local\Temp\ccQLRcFb.s:2316   .text.online_mcast_get_device_info:0000000000000000 .L0 
C:\Users\stapi\AppData\Local\Temp\ccQLRcFb.s:2318   .text.online_mcast_get_device_info:0000000000000000 .L0 
C:\Users\stapi\AppData\Local\Temp\ccQLRcFb.s:2319   .text.online_mcast_get_device_info:0000000000000000 .L0 
C:\Users\stapi\AppData\Local\Temp\ccQLRcFb.s:2320   .text.online_mcast_get_device_info:0000000000000000 .L0 
C:\Users\stapi\AppData\Local\Temp\ccQLRcFb.s:2323   .text.online_mcast_get_device_info:0000000000000002 .L0 
C:\Users\stapi\AppData\Local\Temp\ccQLRcFb.s:2329   .text.online_mcast_get_device_info:000000000000000e .L0 
C:\Users\stapi\AppData\Local\Temp\ccQLRcFb.s:2336   .text.online_ucast_get_device_info:0000000000000000 online_ucast_get_device_info
C:\Users\stapi\AppData\Local\Temp\ccQLRcFb.s:2339   .text.online_ucast_get_device_info:0000000000000000 .L0 
C:\Users\stapi\AppData\Local\Temp\ccQLRcFb.s:2341   .text.online_ucast_get_device_info:0000000000000000 .L0 
C:\Users\stapi\AppData\Local\Temp\ccQLRcFb.s:2342   .text.online_ucast_get_device_info:0000000000000000 .L0 
C:\Users\stapi\AppData\Local\Temp\ccQLRcFb.s:2343   .text.online_ucast_get_device_info:0000000000000000 .L0 
C:\Users\stapi\AppData\Local\Temp\ccQLRcFb.s:2346   .text.online_ucast_get_device_info:0000000000000002 .L0 
C:\Users\stapi\AppData\Local\Temp\ccQLRcFb.s:2352   .text.online_ucast_get_device_info:000000000000000e .L0 
C:\Users\stapi\AppData\Local\Temp\ccQLRcFb.s:2359   .text.awss_dev_bind_notify_stop:0000000000000000 awss_dev_bind_notify_stop
C:\Users\stapi\AppData\Local\Temp\ccQLRcFb.s:2362   .text.awss_dev_bind_notify_stop:0000000000000000 .L0 
C:\Users\stapi\AppData\Local\Temp\ccQLRcFb.s:2363   .text.awss_dev_bind_notify_stop:0000000000000000 .L0 
C:\Users\stapi\AppData\Local\Temp\ccQLRcFb.s:2364   .text.awss_dev_bind_notify_stop:0000000000000008 .L0 
C:\Users\stapi\AppData\Local\Temp\ccQLRcFb.s:2365   .text.awss_dev_bind_notify_stop:0000000000000008 .L0 
C:\Users\stapi\AppData\Local\Temp\ccQLRcFb.s:2366   .text.awss_dev_bind_notify_stop:0000000000000008 .L0 
C:\Users\stapi\AppData\Local\Temp\ccQLRcFb.s:2367   .text.awss_dev_bind_notify_stop:0000000000000008 .L0 
C:\Users\stapi\AppData\Local\Temp\ccQLRcFb.s:2369   .text.awss_dev_bind_notify_stop:0000000000000008 .L0 
C:\Users\stapi\AppData\Local\Temp\ccQLRcFb.s:2370   .text.awss_dev_bind_notify_stop:0000000000000008 .L0 
C:\Users\stapi\AppData\Local\Temp\ccQLRcFb.s:2374   .text.awss_dev_bind_notify_stop:0000000000000014 .L0 
C:\Users\stapi\AppData\Local\Temp\ccQLRcFb.s:2376   .text.awss_dev_bind_notify_stop:0000000000000016 .L0 
C:\Users\stapi\AppData\Local\Temp\ccQLRcFb.s:2380   .text.awss_dev_bind_notify_stop:000000000000001e .L0 
C:\Users\stapi\AppData\Local\Temp\ccQLRcFb.s:2381   .text.awss_dev_bind_notify_stop:000000000000001e .L0 
C:\Users\stapi\AppData\Local\Temp\ccQLRcFb.s:2382   .text.awss_dev_bind_notify_stop:000000000000001e .L0 
C:\Users\stapi\AppData\Local\Temp\ccQLRcFb.s:2384   .text.awss_dev_bind_notify_stop:0000000000000022 .L0 
C:\Users\stapi\AppData\Local\Temp\ccQLRcFb.s:2386   .text.awss_dev_bind_notify_stop:0000000000000026 .L0 
C:\Users\stapi\AppData\Local\Temp\ccQLRcFb.s:2388   .text.awss_dev_bind_notify_stop:000000000000002a .L0 
C:\Users\stapi\AppData\Local\Temp\ccQLRcFb.s:2390   .text.awss_dev_bind_notify_stop:000000000000002c .L0 
C:\Users\stapi\AppData\Local\Temp\ccQLRcFb.s:2392   .text.awss_dev_bind_notify_stop:0000000000000030 .L0 
C:\Users\stapi\AppData\Local\Temp\ccQLRcFb.s:2393   .text.awss_dev_bind_notify_stop:0000000000000030 .L0 
C:\Users\stapi\AppData\Local\Temp\ccQLRcFb.s:2395   .text.awss_dev_bind_notify_stop:0000000000000032 .L0 
C:\Users\stapi\AppData\Local\Temp\ccQLRcFb.s:2398   .text.awss_dev_bind_notify_stop:000000000000003a .L0 
C:\Users\stapi\AppData\Local\Temp\ccQLRcFb.s:2399   .text.awss_dev_bind_notify_stop:000000000000003a .L0 
C:\Users\stapi\AppData\Local\Temp\ccQLRcFb.s:2403   .text.awss_dev_bind_notify_stop:0000000000000044 .L0 
C:\Users\stapi\AppData\Local\Temp\ccQLRcFb.s:2404   .text.awss_dev_bind_notify_stop:0000000000000044 .L0 
C:\Users\stapi\AppData\Local\Temp\ccQLRcFb.s:2406   .text.awss_dev_bind_notify_stop:0000000000000046 .L0 
C:\Users\stapi\AppData\Local\Temp\ccQLRcFb.s:2409   .text.awss_dev_bind_notify_stop:000000000000004e .L0 
C:\Users\stapi\AppData\Local\Temp\ccQLRcFb.s:2410   .text.awss_dev_bind_notify_stop:000000000000004e .L0 
C:\Users\stapi\AppData\Local\Temp\ccQLRcFb.s:2413   .text.awss_dev_bind_notify_stop:0000000000000052 .L0 
C:\Users\stapi\AppData\Local\Temp\ccQLRcFb.s:2414   .text.awss_dev_bind_notify_stop:0000000000000052 .L0 
C:\Users\stapi\AppData\Local\Temp\ccQLRcFb.s:2420   .text.awss_dev_bind_notify_stop:0000000000000066 .L0 
C:\Users\stapi\AppData\Local\Temp\ccQLRcFb.s:2421   .text.awss_dev_bind_notify_stop:0000000000000066 .L0 
C:\Users\stapi\AppData\Local\Temp\ccQLRcFb.s:2423   .text.awss_dev_bind_notify_stop:0000000000000068 .L0 
C:\Users\stapi\AppData\Local\Temp\ccQLRcFb.s:2425   .text.awss_dev_bind_notify_stop:000000000000006c .L0 
C:\Users\stapi\AppData\Local\Temp\ccQLRcFb.s:2426   .text.awss_dev_bind_notify_stop:000000000000006c .L0 
C:\Users\stapi\AppData\Local\Temp\ccQLRcFb.s:2428   .text.awss_dev_bind_notify_stop:000000000000006e .L0 
C:\Users\stapi\AppData\Local\Temp\ccQLRcFb.s:2431   .text.awss_dev_bind_notify_stop:0000000000000076 .L0 
C:\Users\stapi\AppData\Local\Temp\ccQLRcFb.s:2435   .text.awss_dev_bind_notify_stop:0000000000000080 .L0 
C:\Users\stapi\AppData\Local\Temp\ccQLRcFb.s:2436   .text.awss_dev_bind_notify_stop:0000000000000080 .L0 
C:\Users\stapi\AppData\Local\Temp\ccQLRcFb.s:2439   .text.awss_dev_bind_notify_stop:0000000000000084 .L0 
C:\Users\stapi\AppData\Local\Temp\ccQLRcFb.s:2440   .text.awss_dev_bind_notify_stop:0000000000000084 .L0 
C:\Users\stapi\AppData\Local\Temp\ccQLRcFb.s:2442   .text.awss_dev_bind_notify_stop:000000000000008e .L0 
C:\Users\stapi\AppData\Local\Temp\ccQLRcFb.s:2443   .text.awss_dev_bind_notify_stop:000000000000008e .L0 
C:\Users\stapi\AppData\Local\Temp\ccQLRcFb.s:2444   .text.awss_dev_bind_notify_stop:000000000000008e .L0 
C:\Users\stapi\AppData\Local\Temp\ccQLRcFb.s:2445   .text.awss_dev_bind_notify_stop:000000000000008e .L0 
C:\Users\stapi\AppData\Local\Temp\ccQLRcFb.s:2446   .text.awss_dev_bind_notify_stop:000000000000008e .L0 
C:\Users\stapi\AppData\Local\Temp\ccQLRcFb.s:2453   .text.awss_suc_notify:0000000000000000 awss_suc_notify
C:\Users\stapi\AppData\Local\Temp\ccQLRcFb.s:2456   .text.awss_suc_notify:0000000000000000 .L0 
C:\Users\stapi\AppData\Local\Temp\ccQLRcFb.s:2457   .text.awss_suc_notify:0000000000000000 .L0 
C:\Users\stapi\AppData\Local\Temp\ccQLRcFb.s:2458   .text.awss_suc_notify:0000000000000000 .L0 
C:\Users\stapi\AppData\Local\Temp\ccQLRcFb.s:2459   .text.awss_suc_notify:0000000000000000 .L0 
C:\Users\stapi\AppData\Local\Temp\ccQLRcFb.s:2462   .text.awss_suc_notify:0000000000000008 .L0 
C:\Users\stapi\AppData\Local\Temp\ccQLRcFb.s:2463   .text.awss_suc_notify:0000000000000008 .L0 
C:\Users\stapi\AppData\Local\Temp\ccQLRcFb.s:2466   .text.awss_suc_notify:0000000000000010 .L0 
C:\Users\stapi\AppData\Local\Temp\ccQLRcFb.s:2467   .text.awss_suc_notify:0000000000000010 .L0 
C:\Users\stapi\AppData\Local\Temp\ccQLRcFb.s:2470   .text.awss_suc_notify:0000000000000018 .L0 
C:\Users\stapi\AppData\Local\Temp\ccQLRcFb.s:2471   .text.awss_suc_notify:0000000000000018 .L0 
C:\Users\stapi\AppData\Local\Temp\ccQLRcFb.s:2473   .text.awss_suc_notify:0000000000000020 .L0 
C:\Users\stapi\AppData\Local\Temp\ccQLRcFb.s:2480   .text.awss_suc_notify_stop:0000000000000000 awss_suc_notify_stop
C:\Users\stapi\AppData\Local\Temp\ccQLRcFb.s:2483   .text.awss_suc_notify_stop:0000000000000000 .L0 
C:\Users\stapi\AppData\Local\Temp\ccQLRcFb.s:2484   .text.awss_suc_notify_stop:0000000000000000 .L0 
C:\Users\stapi\AppData\Local\Temp\ccQLRcFb.s:2485   .text.awss_suc_notify_stop:0000000000000008 .L0 
C:\Users\stapi\AppData\Local\Temp\ccQLRcFb.s:2486   .text.awss_suc_notify_stop:0000000000000008 .L0 
C:\Users\stapi\AppData\Local\Temp\ccQLRcFb.s:2487   .text.awss_suc_notify_stop:0000000000000008 .L0 
C:\Users\stapi\AppData\Local\Temp\ccQLRcFb.s:2488   .text.awss_suc_notify_stop:0000000000000008 .L0 
C:\Users\stapi\AppData\Local\Temp\ccQLRcFb.s:2490   .text.awss_suc_notify_stop:0000000000000008 .L0 
C:\Users\stapi\AppData\Local\Temp\ccQLRcFb.s:2491   .text.awss_suc_notify_stop:0000000000000008 .L0 
C:\Users\stapi\AppData\Local\Temp\ccQLRcFb.s:2495   .text.awss_suc_notify_stop:0000000000000014 .L0 
C:\Users\stapi\AppData\Local\Temp\ccQLRcFb.s:2497   .text.awss_suc_notify_stop:0000000000000016 .L0 
C:\Users\stapi\AppData\Local\Temp\ccQLRcFb.s:2501   .text.awss_suc_notify_stop:000000000000001e .L0 
C:\Users\stapi\AppData\Local\Temp\ccQLRcFb.s:2502   .text.awss_suc_notify_stop:000000000000001e .L0 
C:\Users\stapi\AppData\Local\Temp\ccQLRcFb.s:2503   .text.awss_suc_notify_stop:000000000000001e .L0 
C:\Users\stapi\AppData\Local\Temp\ccQLRcFb.s:2506   .text.awss_suc_notify_stop:0000000000000026 .L0 
C:\Users\stapi\AppData\Local\Temp\ccQLRcFb.s:2509   .text.awss_suc_notify_stop:000000000000002c .L0 
C:\Users\stapi\AppData\Local\Temp\ccQLRcFb.s:2511   .text.awss_suc_notify_stop:000000000000002e .L0 
C:\Users\stapi\AppData\Local\Temp\ccQLRcFb.s:2513   .text.awss_suc_notify_stop:0000000000000032 .L0 
C:\Users\stapi\AppData\Local\Temp\ccQLRcFb.s:2514   .text.awss_suc_notify_stop:0000000000000032 .L0 
C:\Users\stapi\AppData\Local\Temp\ccQLRcFb.s:2518   .text.awss_suc_notify_stop:000000000000003c .L0 
C:\Users\stapi\AppData\Local\Temp\ccQLRcFb.s:2519   .text.awss_suc_notify_stop:000000000000003c .L0 
C:\Users\stapi\AppData\Local\Temp\ccQLRcFb.s:2521   .text.awss_suc_notify_stop:000000000000003e .L0 
C:\Users\stapi\AppData\Local\Temp\ccQLRcFb.s:2524   .text.awss_suc_notify_stop:0000000000000046 .L0 
C:\Users\stapi\AppData\Local\Temp\ccQLRcFb.s:2525   .text.awss_suc_notify_stop:0000000000000046 .L0 
C:\Users\stapi\AppData\Local\Temp\ccQLRcFb.s:2528   .text.awss_suc_notify_stop:000000000000004a .L0 
C:\Users\stapi\AppData\Local\Temp\ccQLRcFb.s:2529   .text.awss_suc_notify_stop:000000000000004a .L0 
C:\Users\stapi\AppData\Local\Temp\ccQLRcFb.s:2535   .text.awss_suc_notify_stop:000000000000005e .L0 
C:\Users\stapi\AppData\Local\Temp\ccQLRcFb.s:2536   .text.awss_suc_notify_stop:000000000000005e .L0 
C:\Users\stapi\AppData\Local\Temp\ccQLRcFb.s:2538   .text.awss_suc_notify_stop:0000000000000060 .L0 
C:\Users\stapi\AppData\Local\Temp\ccQLRcFb.s:2540   .text.awss_suc_notify_stop:0000000000000064 .L0 
C:\Users\stapi\AppData\Local\Temp\ccQLRcFb.s:2541   .text.awss_suc_notify_stop:0000000000000064 .L0 
C:\Users\stapi\AppData\Local\Temp\ccQLRcFb.s:2543   .text.awss_suc_notify_stop:0000000000000066 .L0 
C:\Users\stapi\AppData\Local\Temp\ccQLRcFb.s:2546   .text.awss_suc_notify_stop:000000000000006e .L0 
C:\Users\stapi\AppData\Local\Temp\ccQLRcFb.s:2550   .text.awss_suc_notify_stop:0000000000000078 .L0 
C:\Users\stapi\AppData\Local\Temp\ccQLRcFb.s:2551   .text.awss_suc_notify_stop:0000000000000078 .L0 
C:\Users\stapi\AppData\Local\Temp\ccQLRcFb.s:2554   .text.awss_suc_notify_stop:000000000000007c .L0 
C:\Users\stapi\AppData\Local\Temp\ccQLRcFb.s:2555   .text.awss_suc_notify_stop:000000000000007c .L0 
C:\Users\stapi\AppData\Local\Temp\ccQLRcFb.s:2557   .text.awss_suc_notify_stop:0000000000000086 .L0 
C:\Users\stapi\AppData\Local\Temp\ccQLRcFb.s:2558   .text.awss_suc_notify_stop:0000000000000086 .L0 
C:\Users\stapi\AppData\Local\Temp\ccQLRcFb.s:2559   .text.awss_suc_notify_stop:0000000000000086 .L0 
C:\Users\stapi\AppData\Local\Temp\ccQLRcFb.s:2560   .text.awss_suc_notify_stop:0000000000000086 .L0 
C:\Users\stapi\AppData\Local\Temp\ccQLRcFb.s:2561   .text.awss_suc_notify_stop:0000000000000086 .L0 
C:\Users\stapi\AppData\Local\Temp\ccQLRcFb.s:2568   .text.awss_devinfo_notify:0000000000000000 awss_devinfo_notify
C:\Users\stapi\AppData\Local\Temp\ccQLRcFb.s:2571   .text.awss_devinfo_notify:0000000000000000 .L0 
C:\Users\stapi\AppData\Local\Temp\ccQLRcFb.s:2572   .text.awss_devinfo_notify:0000000000000000 .L0 
C:\Users\stapi\AppData\Local\Temp\ccQLRcFb.s:2573   .text.awss_devinfo_notify:0000000000000000 .L0 
C:\Users\stapi\AppData\Local\Temp\ccQLRcFb.s:2574   .text.awss_devinfo_notify:0000000000000000 .L0 
C:\Users\stapi\AppData\Local\Temp\ccQLRcFb.s:2577   .text.awss_devinfo_notify:0000000000000008 .L0 
C:\Users\stapi\AppData\Local\Temp\ccQLRcFb.s:2578   .text.awss_devinfo_notify:0000000000000008 .L0 
C:\Users\stapi\AppData\Local\Temp\ccQLRcFb.s:2581   .text.awss_devinfo_notify:0000000000000010 .L0 
C:\Users\stapi\AppData\Local\Temp\ccQLRcFb.s:2582   .text.awss_devinfo_notify:0000000000000010 .L0 
C:\Users\stapi\AppData\Local\Temp\ccQLRcFb.s:2585   .text.awss_devinfo_notify:0000000000000018 .L0 
C:\Users\stapi\AppData\Local\Temp\ccQLRcFb.s:2586   .text.awss_devinfo_notify:0000000000000018 .L0 
C:\Users\stapi\AppData\Local\Temp\ccQLRcFb.s:2588   .text.awss_devinfo_notify:0000000000000020 .L0 
C:\Users\stapi\AppData\Local\Temp\ccQLRcFb.s:2595   .text.awss_devinfo_notify_stop:0000000000000000 awss_devinfo_notify_stop
C:\Users\stapi\AppData\Local\Temp\ccQLRcFb.s:2598   .text.awss_devinfo_notify_stop:0000000000000000 .L0 
C:\Users\stapi\AppData\Local\Temp\ccQLRcFb.s:2599   .text.awss_devinfo_notify_stop:0000000000000000 .L0 
C:\Users\stapi\AppData\Local\Temp\ccQLRcFb.s:2600   .text.awss_devinfo_notify_stop:0000000000000008 .L0 
C:\Users\stapi\AppData\Local\Temp\ccQLRcFb.s:2601   .text.awss_devinfo_notify_stop:0000000000000008 .L0 
C:\Users\stapi\AppData\Local\Temp\ccQLRcFb.s:2602   .text.awss_devinfo_notify_stop:0000000000000008 .L0 
C:\Users\stapi\AppData\Local\Temp\ccQLRcFb.s:2603   .text.awss_devinfo_notify_stop:0000000000000008 .L0 
C:\Users\stapi\AppData\Local\Temp\ccQLRcFb.s:2605   .text.awss_devinfo_notify_stop:0000000000000008 .L0 
C:\Users\stapi\AppData\Local\Temp\ccQLRcFb.s:2606   .text.awss_devinfo_notify_stop:0000000000000008 .L0 
C:\Users\stapi\AppData\Local\Temp\ccQLRcFb.s:2610   .text.awss_devinfo_notify_stop:0000000000000014 .L0 
C:\Users\stapi\AppData\Local\Temp\ccQLRcFb.s:2612   .text.awss_devinfo_notify_stop:0000000000000016 .L0 
C:\Users\stapi\AppData\Local\Temp\ccQLRcFb.s:2616   .text.awss_devinfo_notify_stop:000000000000001e .L0 
C:\Users\stapi\AppData\Local\Temp\ccQLRcFb.s:2617   .text.awss_devinfo_notify_stop:000000000000001e .L0 
C:\Users\stapi\AppData\Local\Temp\ccQLRcFb.s:2618   .text.awss_devinfo_notify_stop:000000000000001e .L0 
C:\Users\stapi\AppData\Local\Temp\ccQLRcFb.s:2621   .text.awss_devinfo_notify_stop:0000000000000026 .L0 
C:\Users\stapi\AppData\Local\Temp\ccQLRcFb.s:2624   .text.awss_devinfo_notify_stop:000000000000002c .L0 
C:\Users\stapi\AppData\Local\Temp\ccQLRcFb.s:2626   .text.awss_devinfo_notify_stop:000000000000002e .L0 
C:\Users\stapi\AppData\Local\Temp\ccQLRcFb.s:2628   .text.awss_devinfo_notify_stop:0000000000000032 .L0 
C:\Users\stapi\AppData\Local\Temp\ccQLRcFb.s:2629   .text.awss_devinfo_notify_stop:0000000000000032 .L0 
C:\Users\stapi\AppData\Local\Temp\ccQLRcFb.s:2633   .text.awss_devinfo_notify_stop:000000000000003c .L0 
C:\Users\stapi\AppData\Local\Temp\ccQLRcFb.s:2634   .text.awss_devinfo_notify_stop:000000000000003c .L0 
C:\Users\stapi\AppData\Local\Temp\ccQLRcFb.s:2636   .text.awss_devinfo_notify_stop:000000000000003e .L0 
C:\Users\stapi\AppData\Local\Temp\ccQLRcFb.s:2639   .text.awss_devinfo_notify_stop:0000000000000046 .L0 
C:\Users\stapi\AppData\Local\Temp\ccQLRcFb.s:2640   .text.awss_devinfo_notify_stop:0000000000000046 .L0 
C:\Users\stapi\AppData\Local\Temp\ccQLRcFb.s:2643   .text.awss_devinfo_notify_stop:000000000000004a .L0 
C:\Users\stapi\AppData\Local\Temp\ccQLRcFb.s:2644   .text.awss_devinfo_notify_stop:000000000000004a .L0 
C:\Users\stapi\AppData\Local\Temp\ccQLRcFb.s:2650   .text.awss_devinfo_notify_stop:000000000000005e .L0 
C:\Users\stapi\AppData\Local\Temp\ccQLRcFb.s:2651   .text.awss_devinfo_notify_stop:000000000000005e .L0 
C:\Users\stapi\AppData\Local\Temp\ccQLRcFb.s:2653   .text.awss_devinfo_notify_stop:0000000000000060 .L0 
C:\Users\stapi\AppData\Local\Temp\ccQLRcFb.s:2655   .text.awss_devinfo_notify_stop:0000000000000064 .L0 
C:\Users\stapi\AppData\Local\Temp\ccQLRcFb.s:2656   .text.awss_devinfo_notify_stop:0000000000000064 .L0 
C:\Users\stapi\AppData\Local\Temp\ccQLRcFb.s:2658   .text.awss_devinfo_notify_stop:0000000000000066 .L0 
C:\Users\stapi\AppData\Local\Temp\ccQLRcFb.s:2661   .text.awss_devinfo_notify_stop:000000000000006e .L0 
C:\Users\stapi\AppData\Local\Temp\ccQLRcFb.s:2665   .text.awss_devinfo_notify_stop:0000000000000078 .L0 
C:\Users\stapi\AppData\Local\Temp\ccQLRcFb.s:2666   .text.awss_devinfo_notify_stop:0000000000000078 .L0 
C:\Users\stapi\AppData\Local\Temp\ccQLRcFb.s:2669   .text.awss_devinfo_notify_stop:000000000000007c .L0 
C:\Users\stapi\AppData\Local\Temp\ccQLRcFb.s:2670   .text.awss_devinfo_notify_stop:000000000000007c .L0 
C:\Users\stapi\AppData\Local\Temp\ccQLRcFb.s:2672   .text.awss_devinfo_notify_stop:0000000000000086 .L0 
C:\Users\stapi\AppData\Local\Temp\ccQLRcFb.s:2673   .text.awss_devinfo_notify_stop:0000000000000086 .L0 
C:\Users\stapi\AppData\Local\Temp\ccQLRcFb.s:2674   .text.awss_devinfo_notify_stop:0000000000000086 .L0 
C:\Users\stapi\AppData\Local\Temp\ccQLRcFb.s:2675   .text.awss_devinfo_notify_stop:0000000000000086 .L0 
C:\Users\stapi\AppData\Local\Temp\ccQLRcFb.s:2676   .text.awss_devinfo_notify_stop:0000000000000086 .L0 
C:\Users\stapi\AppData\Local\Temp\ccQLRcFb.s:2700   .bss.g_notify_msg_id:0000000000000000 .LANCHOR9
C:\Users\stapi\AppData\Local\Temp\ccQLRcFb.s:2703   .bss.g_notify_msg_id:0000000000000000 g_notify_msg_id
C:\Users\stapi\AppData\Local\Temp\ccQLRcFb.s:2707   .rodata.__FUNCTION__.0:0000000000000000 .LANCHOR15
C:\Users\stapi\AppData\Local\Temp\ccQLRcFb.s:2710   .rodata.__FUNCTION__.0:0000000000000000 __FUNCTION__.0
C:\Users\stapi\AppData\Local\Temp\ccQLRcFb.s:2714   .rodata.__FUNCTION__.1:0000000000000000 .LANCHOR6
C:\Users\stapi\AppData\Local\Temp\ccQLRcFb.s:2717   .rodata.__FUNCTION__.1:0000000000000000 __FUNCTION__.1
C:\Users\stapi\AppData\Local\Temp\ccQLRcFb.s:2721   .rodata.__FUNCTION__.3:0000000000000000 .LANCHOR1
C:\Users\stapi\AppData\Local\Temp\ccQLRcFb.s:2724   .rodata.__FUNCTION__.3:0000000000000000 __FUNCTION__.3
C:\Users\stapi\AppData\Local\Temp\ccQLRcFb.s:2728   .rodata.__FUNCTION__.4:0000000000000000 .LANCHOR8
C:\Users\stapi\AppData\Local\Temp\ccQLRcFb.s:2731   .rodata.__FUNCTION__.4:0000000000000000 __FUNCTION__.4
C:\Users\stapi\AppData\Local\Temp\ccQLRcFb.s:2735   .rodata.__func__.2:0000000000000000 .LANCHOR0
C:\Users\stapi\AppData\Local\Temp\ccQLRcFb.s:2738   .rodata.__func__.2:0000000000000000 __func__.2
C:\Users\stapi\AppData\Local\Temp\ccQLRcFb.s:2742   .rodata.notify_map:0000000000000000 .LANCHOR7
C:\Users\stapi\AppData\Local\Temp\ccQLRcFb.s:2745   .rodata.notify_map:0000000000000000 notify_map
C:\Users\stapi\AppData\Local\Temp\ccQLRcFb.s:2763   .sbss.awss_notify_resp:0000000000000000 .LANCHOR3
C:\Users\stapi\AppData\Local\Temp\ccQLRcFb.s:2766   .sbss.awss_notify_resp:0000000000000000 awss_notify_resp
C:\Users\stapi\AppData\Local\Temp\ccQLRcFb.s:2770   .sbss.coap_session_ctx:0000000000000000 .LANCHOR4
C:\Users\stapi\AppData\Local\Temp\ccQLRcFb.s:2773   .sbss.coap_session_ctx:0000000000000000 coap_session_ctx
C:\Users\stapi\AppData\Local\Temp\ccQLRcFb.s:2776   .sbss.dev_bind_cnt:0000000000000000 .LANCHOR12
C:\Users\stapi\AppData\Local\Temp\ccQLRcFb.s:2779   .sbss.dev_bind_cnt:0000000000000000 dev_bind_cnt
C:\Users\stapi\AppData\Local\Temp\ccQLRcFb.s:2783   .sbss.dev_bind_interval:0000000000000000 .LANCHOR13
C:\Users\stapi\AppData\Local\Temp\ccQLRcFb.s:2786   .sbss.dev_bind_interval:0000000000000000 dev_bind_interval
C:\Users\stapi\AppData\Local\Temp\ccQLRcFb.s:2790   .sbss.dev_bind_notify_mutex:0000000000000000 .LANCHOR11
C:\Users\stapi\AppData\Local\Temp\ccQLRcFb.s:2793   .sbss.dev_bind_notify_mutex:0000000000000000 dev_bind_notify_mutex
C:\Users\stapi\AppData\Local\Temp\ccQLRcFb.s:2797   .sbss.dev_bind_notify_timer:0000000000000000 .LANCHOR10
C:\Users\stapi\AppData\Local\Temp\ccQLRcFb.s:2800   .sbss.dev_bind_notify_timer:0000000000000000 dev_bind_notify_timer
C:\Users\stapi\AppData\Local\Temp\ccQLRcFb.s:2803   .sbss.dev_sync_token:0000000000000000 .LANCHOR14
C:\Users\stapi\AppData\Local\Temp\ccQLRcFb.s:2806   .sbss.dev_sync_token:0000000000000000 dev_sync_token
C:\Users\stapi\AppData\Local\Temp\ccQLRcFb.s:2809   .sbss.devinfo_cnt:0000000000000000 .LANCHOR22
C:\Users\stapi\AppData\Local\Temp\ccQLRcFb.s:2812   .sbss.devinfo_cnt:0000000000000000 devinfo_cnt
C:\Users\stapi\AppData\Local\Temp\ccQLRcFb.s:2816   .sbss.devinfo_interval:0000000000000000 .LANCHOR21
C:\Users\stapi\AppData\Local\Temp\ccQLRcFb.s:2819   .sbss.devinfo_interval:0000000000000000 devinfo_interval
C:\Users\stapi\AppData\Local\Temp\ccQLRcFb.s:2823   .sbss.devinfo_notify_mutex:0000000000000000 .LANCHOR20
C:\Users\stapi\AppData\Local\Temp\ccQLRcFb.s:2826   .sbss.devinfo_notify_mutex:0000000000000000 devinfo_notify_mutex
C:\Users\stapi\AppData\Local\Temp\ccQLRcFb.s:2830   .sbss.devinfo_notify_timer:0000000000000000 .LANCHOR23
C:\Users\stapi\AppData\Local\Temp\ccQLRcFb.s:2833   .sbss.devinfo_notify_timer:0000000000000000 devinfo_notify_timer
C:\Users\stapi\AppData\Local\Temp\ccQLRcFb.s:2836   .sbss.g_notify_id:0000000000000000 .LANCHOR2
C:\Users\stapi\AppData\Local\Temp\ccQLRcFb.s:2839   .sbss.g_notify_id:0000000000000000 g_notify_id
C:\Users\stapi\AppData\Local\Temp\ccQLRcFb.s:2843   .sbss.get_devinfo_timer:0000000000000000 .LANCHOR5
C:\Users\stapi\AppData\Local\Temp\ccQLRcFb.s:2846   .sbss.get_devinfo_timer:0000000000000000 get_devinfo_timer
C:\Users\stapi\AppData\Local\Temp\ccQLRcFb.s:2849   .sbss.suc_cnt:0000000000000000 .LANCHOR17
C:\Users\stapi\AppData\Local\Temp\ccQLRcFb.s:2852   .sbss.suc_cnt:0000000000000000 suc_cnt
C:\Users\stapi\AppData\Local\Temp\ccQLRcFb.s:2856   .sbss.suc_interval:0000000000000000 .LANCHOR18
C:\Users\stapi\AppData\Local\Temp\ccQLRcFb.s:2859   .sbss.suc_interval:0000000000000000 suc_interval
C:\Users\stapi\AppData\Local\Temp\ccQLRcFb.s:2863   .sbss.success_notify_mutex:0000000000000000 .LANCHOR16
C:\Users\stapi\AppData\Local\Temp\ccQLRcFb.s:2866   .sbss.success_notify_mutex:0000000000000000 success_notify_mutex
C:\Users\stapi\AppData\Local\Temp\ccQLRcFb.s:2870   .sbss.success_notify_timer:0000000000000000 .LANCHOR19
C:\Users\stapi\AppData\Local\Temp\ccQLRcFb.s:2873   .sbss.success_notify_timer:0000000000000000 success_notify_timer
C:\Users\stapi\AppData\Local\Temp\ccQLRcFb.s:310    .text.awss_notify_response:00000000000001ac .L0 
C:\Users\stapi\AppData\Local\Temp\ccQLRcFb.s:329    .text.awss_suc_notify_resp:000000000000000c .L0 
C:\Users\stapi\AppData\Local\Temp\ccQLRcFb.s:348    .text.awss_devinfo_notify_resp:000000000000000c .L0 
C:\Users\stapi\AppData\Local\Temp\ccQLRcFb.s:390    .text.awss_dev_bind_notify_resp:000000000000002e .L0 
C:\Users\stapi\AppData\Local\Temp\ccQLRcFb.s:573    .text.online_get_device_info.constprop.0:0000000000000110 .L0 
C:\Users\stapi\AppData\Local\Temp\ccQLRcFb.s:617    .text.os_zalloc.constprop.0:0000000000000030 .L0 
C:\Users\stapi\AppData\Local\Temp\ccQLRcFb.s:1071   .text.awss_process_get_devinfo:0000000000000300 .L0 
C:\Users\stapi\AppData\Local\Temp\ccQLRcFb.s:1541   .text.awss_notify_dev_info:0000000000000298 .L0 
C:\Users\stapi\AppData\Local\Temp\ccQLRcFb.s:1863   .text.__awss_dev_bind_notify:0000000000000208 .L0 
C:\Users\stapi\AppData\Local\Temp\ccQLRcFb.s:1894   .text.awss_dev_bind_notify:0000000000000028 .L0 
C:\Users\stapi\AppData\Local\Temp\ccQLRcFb.s:2126   .text.__awss_suc_notify:000000000000018a .L0 
C:\Users\stapi\AppData\Local\Temp\ccQLRcFb.s:2309   .text.__awss_devinfo_notify:000000000000012e .L0 
C:\Users\stapi\AppData\Local\Temp\ccQLRcFb.s:2332   .text.online_mcast_get_device_info:000000000000000e .L0 
C:\Users\stapi\AppData\Local\Temp\ccQLRcFb.s:2355   .text.online_ucast_get_device_info:000000000000000e .L0 
C:\Users\stapi\AppData\Local\Temp\ccQLRcFb.s:2449   .text.awss_dev_bind_notify_stop:000000000000008e .L0 
C:\Users\stapi\AppData\Local\Temp\ccQLRcFb.s:2476   .text.awss_suc_notify:0000000000000020 .L0 
C:\Users\stapi\AppData\Local\Temp\ccQLRcFb.s:2564   .text.awss_suc_notify_stop:0000000000000086 .L0 
C:\Users\stapi\AppData\Local\Temp\ccQLRcFb.s:2591   .text.awss_devinfo_notify:0000000000000020 .L0 
C:\Users\stapi\AppData\Local\Temp\ccQLRcFb.s:2679   .text.awss_devinfo_notify_stop:0000000000000086 .L0 
                     .debug_frame:0000000000000000 .L0 
C:\Users\stapi\AppData\Local\Temp\ccQLRcFb.s:11     .rodata.awss_notify_response.str1.4:0000000000000000 .LC0
C:\Users\stapi\AppData\Local\Temp\ccQLRcFb.s:14     .rodata.awss_notify_response.str1.4:0000000000000018 .LC1
C:\Users\stapi\AppData\Local\Temp\ccQLRcFb.s:17     .rodata.awss_notify_response.str1.4:0000000000000020 .LC2
C:\Users\stapi\AppData\Local\Temp\ccQLRcFb.s:20     .rodata.awss_notify_response.str1.4:0000000000000028 .LC3
C:\Users\stapi\AppData\Local\Temp\ccQLRcFb.s:26     .rodata.awss_notify_response.str1.4:0000000000000048 .LC5
C:\Users\stapi\AppData\Local\Temp\ccQLRcFb.s:29     .rodata.awss_notify_response.str1.4:0000000000000058 .LC6
C:\Users\stapi\AppData\Local\Temp\ccQLRcFb.s:32     .rodata.awss_notify_response.str1.4:000000000000005c .LC7
C:\Users\stapi\AppData\Local\Temp\ccQLRcFb.s:23     .rodata.awss_notify_response.str1.4:0000000000000044 .LC4
C:\Users\stapi\AppData\Local\Temp\ccQLRcFb.s:35     .rodata.awss_notify_response.str1.4:0000000000000070 .LC8
C:\Users\stapi\AppData\Local\Temp\ccQLRcFb.s:38     .rodata.awss_notify_response.str1.4:0000000000000078 .LC9
C:\Users\stapi\AppData\Local\Temp\ccQLRcFb.s:41     .rodata.awss_notify_response.str1.4:000000000000008c .LC10
C:\Users\stapi\AppData\Local\Temp\ccQLRcFb.s:99     .text.awss_notify_response:000000000000004a .L2
C:\Users\stapi\AppData\Local\Temp\ccQLRcFb.s:295    .text.awss_notify_response:00000000000001a2 .L1
C:\Users\stapi\AppData\Local\Temp\ccQLRcFb.s:93     .text.awss_notify_response:0000000000000044 .L7
C:\Users\stapi\AppData\Local\Temp\ccQLRcFb.s:143    .text.awss_notify_response:0000000000000080 .L5
C:\Users\stapi\AppData\Local\Temp\ccQLRcFb.s:162    .text.awss_notify_response:00000000000000a4 .L6
C:\Users\stapi\AppData\Local\Temp\ccQLRcFb.s:201    .text.awss_notify_response:00000000000000fe .L16
C:\Users\stapi\AppData\Local\Temp\ccQLRcFb.s:212    .text.awss_notify_response:0000000000000110 .L8
C:\Users\stapi\AppData\Local\Temp\ccQLRcFb.s:226    .text.awss_notify_response:000000000000012c .L9
C:\Users\stapi\AppData\Local\Temp\ccQLRcFb.s:253    .text.awss_notify_response:0000000000000160 .L10
C:\Users\stapi\AppData\Local\Temp\ccQLRcFb.s:197    .text.awss_notify_response:00000000000000f6 .L17
C:\Users\stapi\AppData\Local\Temp\ccQLRcFb.s:276    .text.awss_notify_response:000000000000018e .L11
C:\Users\stapi\AppData\Local\Temp\ccQLRcFb.s:155    .text.awss_notify_response:000000000000009a .L18
C:\Users\stapi\AppData\Local\Temp\ccQLRcFb.s:380    .text.awss_dev_bind_notify_resp:0000000000000024 .L23
C:\Users\stapi\AppData\Local\Temp\ccQLRcFb.s:392    .rodata.online_get_device_info.constprop.0.str1.4:0000000000000000 .LC11
C:\Users\stapi\AppData\Local\Temp\ccQLRcFb.s:395    .rodata.online_get_device_info.constprop.0.str1.4:0000000000000014 .LC12
C:\Users\stapi\AppData\Local\Temp\ccQLRcFb.s:398    .rodata.online_get_device_info.constprop.0.str1.4:0000000000000024 .LC13
C:\Users\stapi\AppData\Local\Temp\ccQLRcFb.s:401    .rodata.online_get_device_info.constprop.0.str1.4:000000000000003c .LC14
C:\Users\stapi\AppData\Local\Temp\ccQLRcFb.s:404    .rodata.online_get_device_info.constprop.0.str1.4:0000000000000050 .LC15
C:\Users\stapi\AppData\Local\Temp\ccQLRcFb.s:475    .text.online_get_device_info.constprop.0:0000000000000056 .L27
C:\Users\stapi\AppData\Local\Temp\ccQLRcFb.s:497    .text.online_get_device_info.constprop.0:0000000000000080 .L29
C:\Users\stapi\AppData\Local\Temp\ccQLRcFb.s:461    .text.online_get_device_info.constprop.0:000000000000004c .L26
C:\Users\stapi\AppData\Local\Temp\ccQLRcFb.s:515    .text.online_get_device_info.constprop.0:00000000000000a0 .L30
C:\Users\stapi\AppData\Local\Temp\ccQLRcFb.s:487    .text.online_get_device_info.constprop.0:000000000000006c .L39
C:\Users\stapi\AppData\Local\Temp\ccQLRcFb.s:535    .text.online_get_device_info.constprop.0:00000000000000c6 .L31
C:\Users\stapi\AppData\Local\Temp\ccQLRcFb.s:554    .text.online_get_device_info.constprop.0:00000000000000f0 .L32
C:\Users\stapi\AppData\Local\Temp\ccQLRcFb.s:564    .text.online_get_device_info.constprop.0:0000000000000106 .L33
C:\Users\stapi\AppData\Local\Temp\ccQLRcFb.s:607    .text.os_zalloc.constprop.0:0000000000000026 .L40
C:\Users\stapi\AppData\Local\Temp\ccQLRcFb.s:619    .rodata.awss_process_get_devinfo.str1.4:0000000000000000 .LC16
C:\Users\stapi\AppData\Local\Temp\ccQLRcFb.s:622    .rodata.awss_process_get_devinfo.str1.4:0000000000000020 .LC17
C:\Users\stapi\AppData\Local\Temp\ccQLRcFb.s:625    .rodata.awss_process_get_devinfo.str1.4:000000000000002c .LC18
C:\Users\stapi\AppData\Local\Temp\ccQLRcFb.s:628    .rodata.awss_process_get_devinfo.str1.4:0000000000000034 .LC19
C:\Users\stapi\AppData\Local\Temp\ccQLRcFb.s:631    .rodata.awss_process_get_devinfo.str1.4:0000000000000054 .LC20
C:\Users\stapi\AppData\Local\Temp\ccQLRcFb.s:634    .rodata.awss_process_get_devinfo.str1.4:000000000000005c .LC21
C:\Users\stapi\AppData\Local\Temp\ccQLRcFb.s:637    .rodata.awss_process_get_devinfo.str1.4:0000000000000078 .LC22
C:\Users\stapi\AppData\Local\Temp\ccQLRcFb.s:643    .rodata.awss_process_get_devinfo.str1.4:00000000000000ac .LC24
C:\Users\stapi\AppData\Local\Temp\ccQLRcFb.s:640    .rodata.awss_process_get_devinfo.str1.4:0000000000000090 .LC23
C:\Users\stapi\AppData\Local\Temp\ccQLRcFb.s:646    .rodata.awss_process_get_devinfo.str1.4:00000000000000bc .LC25
C:\Users\stapi\AppData\Local\Temp\ccQLRcFb.s:701    .text.awss_process_get_devinfo:0000000000000052 .L47
C:\Users\stapi\AppData\Local\Temp\ccQLRcFb.s:724    .text.awss_process_get_devinfo:000000000000008a .L46
C:\Users\stapi\AppData\Local\Temp\ccQLRcFb.s:739    .text.awss_process_get_devinfo:0000000000000096 .L49
C:\Users\stapi\AppData\Local\Temp\ccQLRcFb.s:997    .text.awss_process_get_devinfo:000000000000029e .L50
C:\Users\stapi\AppData\Local\Temp\ccQLRcFb.s:1058   .text.awss_process_get_devinfo:00000000000002f8 .L57
C:\Users\stapi\AppData\Local\Temp\ccQLRcFb.s:991    .text.awss_process_get_devinfo:0000000000000294 .L52
C:\Users\stapi\AppData\Local\Temp\ccQLRcFb.s:964    .text.awss_process_get_devinfo:0000000000000268 .L54
C:\Users\stapi\AppData\Local\Temp\ccQLRcFb.s:694    .text.awss_process_get_devinfo:000000000000004e .L72
C:\Users\stapi\AppData\Local\Temp\ccQLRcFb.s:914    .text.awss_process_get_devinfo:00000000000001f4 .L71
C:\Users\stapi\AppData\Local\Temp\ccQLRcFb.s:1041   .text.awss_process_get_devinfo:00000000000002e8 .L55
C:\Users\stapi\AppData\Local\Temp\ccQLRcFb.s:1005   .text.awss_process_get_devinfo:00000000000002a4 .L51
C:\Users\stapi\AppData\Local\Temp\ccQLRcFb.s:1079   .rodata.awss_notify_dev_info.str1.4:0000000000000010 .LC28
C:\Users\stapi\AppData\Local\Temp\ccQLRcFb.s:1082   .rodata.awss_notify_dev_info.str1.4:0000000000000020 .LC29
C:\Users\stapi\AppData\Local\Temp\ccQLRcFb.s:1085   .rodata.awss_notify_dev_info.str1.4:0000000000000030 .LC30
C:\Users\stapi\AppData\Local\Temp\ccQLRcFb.s:1088   .rodata.awss_notify_dev_info.str1.4:0000000000000040 .LC31
C:\Users\stapi\AppData\Local\Temp\ccQLRcFb.s:1091   .rodata.awss_notify_dev_info.str1.4:0000000000000078 .LC32
C:\Users\stapi\AppData\Local\Temp\ccQLRcFb.s:1094   .rodata.awss_notify_dev_info.str1.4:000000000000008c .LC33
C:\Users\stapi\AppData\Local\Temp\ccQLRcFb.s:1097   .rodata.awss_notify_dev_info.str1.4:0000000000000098 .LC34
C:\Users\stapi\AppData\Local\Temp\ccQLRcFb.s:1073   .rodata.awss_notify_dev_info.str1.4:0000000000000000 .LC26
C:\Users\stapi\AppData\Local\Temp\ccQLRcFb.s:1076   .rodata.awss_notify_dev_info.str1.4:0000000000000008 .LC27
C:\Users\stapi\AppData\Local\Temp\ccQLRcFb.s:1100   .rodata.awss_notify_dev_info.str1.4:00000000000000a4 .LC35
C:\Users\stapi\AppData\Local\Temp\ccQLRcFb.s:1196   .text.awss_notify_dev_info:000000000000004e .L74
C:\Users\stapi\AppData\Local\Temp\ccQLRcFb.s:1217   .text.awss_notify_dev_info:000000000000006c .L75
C:\Users\stapi\AppData\Local\Temp\ccQLRcFb.s:1265   .text.awss_notify_dev_info:00000000000000a8 .L76
C:\Users\stapi\AppData\Local\Temp\ccQLRcFb.s:1288   .text.awss_notify_dev_info:00000000000000c4 .L78
C:\Users\stapi\AppData\Local\Temp\ccQLRcFb.s:1338   .text.awss_notify_dev_info:000000000000010c .L79
C:\Users\stapi\AppData\Local\Temp\ccQLRcFb.s:1321   .text.awss_notify_dev_info:00000000000000fc .L81
C:\Users\stapi\AppData\Local\Temp\ccQLRcFb.s:1239   .text.awss_notify_dev_info:0000000000000098 .L77
C:\Users\stapi\AppData\Local\Temp\ccQLRcFb.s:1404   .text.awss_notify_dev_info:00000000000001a0 .L82
C:\Users\stapi\AppData\Local\Temp\ccQLRcFb.s:1313   .text.awss_notify_dev_info:00000000000000f2 .L80
C:\Users\stapi\AppData\Local\Temp\ccQLRcFb.s:1501   .text.awss_notify_dev_info:000000000000025c .L84
C:\Users\stapi\AppData\Local\Temp\ccQLRcFb.s:1524   .text.awss_notify_dev_info:000000000000028c .L85
C:\Users\stapi\AppData\Local\Temp\ccQLRcFb.s:1466   .text.awss_notify_dev_info:0000000000000224 .L83
C:\Users\stapi\AppData\Local\Temp\ccQLRcFb.s:1543   .rodata.__awss_dev_bind_notify.str1.4:0000000000000000 .LC36
C:\Users\stapi\AppData\Local\Temp\ccQLRcFb.s:1604   .text.__awss_dev_bind_notify:0000000000000058 .L103
C:\Users\stapi\AppData\Local\Temp\ccQLRcFb.s:1585   .text.__awss_dev_bind_notify:000000000000003c .L104
C:\Users\stapi\AppData\Local\Temp\ccQLRcFb.s:1776   .text.__awss_dev_bind_notify:000000000000017e .L102
C:\Users\stapi\AppData\Local\Temp\ccQLRcFb.s:1764   .text.__awss_dev_bind_notify:000000000000016c .L106
C:\Users\stapi\AppData\Local\Temp\ccQLRcFb.s:1627   .text.__awss_dev_bind_notify:0000000000000084 .L108
C:\Users\stapi\AppData\Local\Temp\ccQLRcFb.s:1709   .text.__awss_dev_bind_notify:000000000000010e .L110
C:\Users\stapi\AppData\Local\Temp\ccQLRcFb.s:1673   .text.__awss_dev_bind_notify:00000000000000c8 .L111
C:\Users\stapi\AppData\Local\Temp\ccQLRcFb.s:1653   .text.__awss_dev_bind_notify:00000000000000aa .L112
C:\Users\stapi\AppData\Local\Temp\ccQLRcFb.s:1791   .text.__awss_dev_bind_notify:0000000000000188 .L114
C:\Users\stapi\AppData\Local\Temp\ccQLRcFb.s:1815   .text.__awss_dev_bind_notify:00000000000001a6 .L117
C:\Users\stapi\AppData\Local\Temp\ccQLRcFb.s:1745   .text.__awss_dev_bind_notify:000000000000014e .L120
C:\Users\stapi\AppData\Local\Temp\ccQLRcFb.s:1614   .text.__awss_dev_bind_notify:000000000000006a .L109
C:\Users\stapi\AppData\Local\Temp\ccQLRcFb.s:1703   .text.__awss_dev_bind_notify:0000000000000104 .L115
C:\Users\stapi\AppData\Local\Temp\ccQLRcFb.s:1837   .text.__awss_dev_bind_notify:00000000000001d6 .L118
C:\Users\stapi\AppData\Local\Temp\ccQLRcFb.s:1849   .text.__awss_dev_bind_notify:00000000000001f4 .L119
C:\Users\stapi\AppData\Local\Temp\ccQLRcFb.s:1596   .text.__awss_dev_bind_notify:0000000000000054 .L132
C:\Users\stapi\AppData\Local\Temp\ccQLRcFb.s:1896   .rodata.__awss_suc_notify.str1.4:0000000000000000 .LC37
C:\Users\stapi\AppData\Local\Temp\ccQLRcFb.s:1899   .rodata.__awss_suc_notify.str1.4:0000000000000018 .LC38
C:\Users\stapi\AppData\Local\Temp\ccQLRcFb.s:1902   .rodata.__awss_suc_notify.str1.4:0000000000000024 .LC39
C:\Users\stapi\AppData\Local\Temp\ccQLRcFb.s:2036   .text.__awss_suc_notify:0000000000000106 .L136
C:\Users\stapi\AppData\Local\Temp\ccQLRcFb.s:1959   .text.__awss_suc_notify:0000000000000068 .L138
C:\Users\stapi\AppData\Local\Temp\ccQLRcFb.s:2074   .text.__awss_suc_notify:0000000000000138 .L146
C:\Users\stapi\AppData\Local\Temp\ccQLRcFb.s:2061   .text.__awss_suc_notify:0000000000000120 .L142
C:\Users\stapi\AppData\Local\Temp\ccQLRcFb.s:2016   .text.__awss_suc_notify:00000000000000e0 .L143
C:\Users\stapi\AppData\Local\Temp\ccQLRcFb.s:2048   .text.__awss_suc_notify:0000000000000116 .L135
C:\Users\stapi\AppData\Local\Temp\ccQLRcFb.s:1946   .text.__awss_suc_notify:000000000000004e .L140
C:\Users\stapi\AppData\Local\Temp\ccQLRcFb.s:2104   .text.__awss_suc_notify:000000000000016c .L145
C:\Users\stapi\AppData\Local\Temp\ccQLRcFb.s:2128   .rodata.__awss_devinfo_notify.str1.4:0000000000000000 .LC40
C:\Users\stapi\AppData\Local\Temp\ccQLRcFb.s:2230   .text.__awss_devinfo_notify:00000000000000c2 .L155
C:\Users\stapi\AppData\Local\Temp\ccQLRcFb.s:2255   .text.__awss_devinfo_notify:00000000000000dc .L156
C:\Users\stapi\AppData\Local\Temp\ccQLRcFb.s:2210   .text.__awss_devinfo_notify:000000000000009c .L160
C:\Users\stapi\AppData\Local\Temp\ccQLRcFb.s:2242   .text.__awss_devinfo_notify:00000000000000d2 .L154
C:\Users\stapi\AppData\Local\Temp\ccQLRcFb.s:2154   .text.__awss_devinfo_notify:0000000000000018 .L159
C:\Users\stapi\AppData\Local\Temp\ccQLRcFb.s:2287   .text.__awss_devinfo_notify:0000000000000110 .L161
C:\Users\stapi\AppData\Local\Temp\ccQLRcFb.s:2378   .text.awss_dev_bind_notify_stop:000000000000001e .L175
C:\Users\stapi\AppData\Local\Temp\ccQLRcFb.s:2411   .text.awss_dev_bind_notify_stop:0000000000000052 .L176
C:\Users\stapi\AppData\Local\Temp\ccQLRcFb.s:2437   .text.awss_dev_bind_notify_stop:0000000000000084 .L177
C:\Users\stapi\AppData\Local\Temp\ccQLRcFb.s:2499   .text.awss_suc_notify_stop:000000000000001e .L191
C:\Users\stapi\AppData\Local\Temp\ccQLRcFb.s:2526   .text.awss_suc_notify_stop:000000000000004a .L192
C:\Users\stapi\AppData\Local\Temp\ccQLRcFb.s:2552   .text.awss_suc_notify_stop:000000000000007c .L193
C:\Users\stapi\AppData\Local\Temp\ccQLRcFb.s:2614   .text.awss_devinfo_notify_stop:000000000000001e .L207
C:\Users\stapi\AppData\Local\Temp\ccQLRcFb.s:2641   .text.awss_devinfo_notify_stop:000000000000004a .L208
C:\Users\stapi\AppData\Local\Temp\ccQLRcFb.s:2667   .text.awss_devinfo_notify_stop:000000000000007c .L209
C:\Users\stapi\AppData\Local\Temp\ccQLRcFb.s:2681   .rodata.str1.4:0000000000000000 .LC41
C:\Users\stapi\AppData\Local\Temp\ccQLRcFb.s:2684   .rodata.str1.4:0000000000000014 .LC42
C:\Users\stapi\AppData\Local\Temp\ccQLRcFb.s:2687   .rodata.str1.4:000000000000002c .LC43
C:\Users\stapi\AppData\Local\Temp\ccQLRcFb.s:2690   .rodata.str1.4:0000000000000044 .LC44
C:\Users\stapi\AppData\Local\Temp\ccQLRcFb.s:2693   .rodata.str1.4:0000000000000064 .LC45
C:\Users\stapi\AppData\Local\Temp\ccQLRcFb.s:2696   .rodata.str1.4:0000000000000080 .LC46
C:\Users\stapi\AppData\Local\Temp\ccQLRcFb.s:6654   .debug_abbrev:0000000000000000 .Ldebug_abbrev0
C:\Users\stapi\AppData\Local\Temp\ccQLRcFb.s:9110   .debug_str:0000000000000c8f .LASF193
C:\Users\stapi\AppData\Local\Temp\ccQLRcFb.s:8762   .debug_str:0000000000000091 .LASF194
C:\Users\stapi\AppData\Local\Temp\ccQLRcFb.s:8904   .debug_str:000000000000055f .LASF195
C:\Users\stapi\AppData\Local\Temp\ccQLRcFb.s:8646   .debug_ranges:0000000000000000 .Ldebug_ranges0
C:\Users\stapi\AppData\Local\Temp\ccQLRcFb.s:8740   .debug_line:0000000000000000 .Ldebug_line0
C:\Users\stapi\AppData\Local\Temp\ccQLRcFb.s:9002   .debug_str:000000000000092c .LASF0
C:\Users\stapi\AppData\Local\Temp\ccQLRcFb.s:8802   .debug_str:0000000000000262 .LASF1
C:\Users\stapi\AppData\Local\Temp\ccQLRcFb.s:8760   .debug_str:0000000000000087 .LASF4
C:\Users\stapi\AppData\Local\Temp\ccQLRcFb.s:8998   .debug_str:0000000000000911 .LASF2
C:\Users\stapi\AppData\Local\Temp\ccQLRcFb.s:9004   .debug_str:0000000000000939 .LASF3
C:\Users\stapi\AppData\Local\Temp\ccQLRcFb.s:9056   .debug_str:0000000000000ac8 .LASF5
C:\Users\stapi\AppData\Local\Temp\ccQLRcFb.s:8898   .debug_str:0000000000000520 .LASF6
C:\Users\stapi\AppData\Local\Temp\ccQLRcFb.s:8818   .debug_str:00000000000002f8 .LASF7
C:\Users\stapi\AppData\Local\Temp\ccQLRcFb.s:8850   .debug_str:00000000000003e0 .LASF8
C:\Users\stapi\AppData\Local\Temp\ccQLRcFb.s:8876   .debug_str:000000000000047b .LASF9
C:\Users\stapi\AppData\Local\Temp\ccQLRcFb.s:8800   .debug_str:0000000000000254 .LASF10
C:\Users\stapi\AppData\Local\Temp\ccQLRcFb.s:8774   .debug_str:000000000000016a .LASF11
C:\Users\stapi\AppData\Local\Temp\ccQLRcFb.s:9052   .debug_str:0000000000000aba .LASF12
C:\Users\stapi\AppData\Local\Temp\ccQLRcFb.s:9100   .debug_str:0000000000000c3e .LASF13
C:\Users\stapi\AppData\Local\Temp\ccQLRcFb.s:8832   .debug_str:0000000000000358 .LASF14
C:\Users\stapi\AppData\Local\Temp\ccQLRcFb.s:9038   .debug_str:0000000000000a61 .LASF15
C:\Users\stapi\AppData\Local\Temp\ccQLRcFb.s:8978   .debug_str:0000000000000856 .LASF16
C:\Users\stapi\AppData\Local\Temp\ccQLRcFb.s:8852   .debug_str:00000000000003eb .LASF17
C:\Users\stapi\AppData\Local\Temp\ccQLRcFb.s:8806   .debug_str:0000000000000284 .LASF18
C:\Users\stapi\AppData\Local\Temp\ccQLRcFb.s:8954   .debug_str:00000000000007a7 .LASF19
C:\Users\stapi\AppData\Local\Temp\ccQLRcFb.s:9022   .debug_str:00000000000009d7 .LASF20
C:\Users\stapi\AppData\Local\Temp\ccQLRcFb.s:9050   .debug_str:0000000000000aa8 .LASF21
C:\Users\stapi\AppData\Local\Temp\ccQLRcFb.s:9024   .debug_str:00000000000009e4 .LASF22
C:\Users\stapi\AppData\Local\Temp\ccQLRcFb.s:9018   .debug_str:00000000000009b6 .LASF23
C:\Users\stapi\AppData\Local\Temp\ccQLRcFb.s:8936   .debug_str:0000000000000702 .LASF24
C:\Users\stapi\AppData\Local\Temp\ccQLRcFb.s:8956   .debug_str:00000000000007b8 .LASF25
C:\Users\stapi\AppData\Local\Temp\ccQLRcFb.s:8786   .debug_str:00000000000001d7 .LASF26
C:\Users\stapi\AppData\Local\Temp\ccQLRcFb.s:9026   .debug_str:00000000000009f8 .LASF27
C:\Users\stapi\AppData\Local\Temp\ccQLRcFb.s:9096   .debug_str:0000000000000c20 .LASF28
C:\Users\stapi\AppData\Local\Temp\ccQLRcFb.s:9074   .debug_str:0000000000000b66 .LASF29
C:\Users\stapi\AppData\Local\Temp\ccQLRcFb.s:9082   .debug_str:0000000000000ba8 .LASF30
C:\Users\stapi\AppData\Local\Temp\ccQLRcFb.s:8924   .debug_str:000000000000069a .LASF31
C:\Users\stapi\AppData\Local\Temp\ccQLRcFb.s:8934   .debug_str:00000000000006ee .LASF32
C:\Users\stapi\AppData\Local\Temp\ccQLRcFb.s:8790   .debug_str:00000000000001fa .LASF33
C:\Users\stapi\AppData\Local\Temp\ccQLRcFb.s:8782   .debug_str:00000000000001b9 .LASF34
C:\Users\stapi\AppData\Local\Temp\ccQLRcFb.s:8918   .debug_str:0000000000000660 .LASF35
C:\Users\stapi\AppData\Local\Temp\ccQLRcFb.s:8914   .debug_str:0000000000000639 .LASF36
C:\Users\stapi\AppData\Local\Temp\ccQLRcFb.s:9104   .debug_str:0000000000000c5c .LASF37
C:\Users\stapi\AppData\Local\Temp\ccQLRcFb.s:9088   .debug_str:0000000000000bdf .LASF38
C:\Users\stapi\AppData\Local\Temp\ccQLRcFb.s:8816   .debug_str:00000000000002e3 .LASF39
C:\Users\stapi\AppData\Local\Temp\ccQLRcFb.s:8882   .debug_str:00000000000004a2 .LASF40
C:\Users\stapi\AppData\Local\Temp\ccQLRcFb.s:8940   .debug_str:0000000000000727 .LASF41
C:\Users\stapi\AppData\Local\Temp\ccQLRcFb.s:8952   .debug_str:0000000000000793 .LASF42
C:\Users\stapi\AppData\Local\Temp\ccQLRcFb.s:9012   .debug_str:000000000000097b .LASF43
C:\Users\stapi\AppData\Local\Temp\ccQLRcFb.s:9114   .debug_str:0000000000000d8b .LASF44
C:\Users\stapi\AppData\Local\Temp\ccQLRcFb.s:8884   .debug_str:00000000000004b7 .LASF45
C:\Users\stapi\AppData\Local\Temp\ccQLRcFb.s:8794   .debug_str:0000000000000228 .LASF46
C:\Users\stapi\AppData\Local\Temp\ccQLRcFb.s:8946   .debug_str:0000000000000766 .LASF47
C:\Users\stapi\AppData\Local\Temp\ccQLRcFb.s:8980   .debug_str:0000000000000866 .LASF48
C:\Users\stapi\AppData\Local\Temp\ccQLRcFb.s:8910   .debug_str:000000000000060c .LASF49
C:\Users\stapi\AppData\Local\Temp\ccQLRcFb.s:8992   .debug_str:00000000000008e6 .LASF196
C:\Users\stapi\AppData\Local\Temp\ccQLRcFb.s:9034   .debug_str:0000000000000a44 .LASF50
C:\Users\stapi\AppData\Local\Temp\ccQLRcFb.s:8752   .debug_str:0000000000000037 .LASF51
C:\Users\stapi\AppData\Local\Temp\ccQLRcFb.s:8858   .debug_str:0000000000000416 .LASF52
C:\Users\stapi\AppData\Local\Temp\ccQLRcFb.s:8986   .debug_str:00000000000008a3 .LASF53
C:\Users\stapi\AppData\Local\Temp\ccQLRcFb.s:8784   .debug_str:00000000000001c2 .LASF54
C:\Users\stapi\AppData\Local\Temp\ccQLRcFb.s:8808   .debug_str:0000000000000295 .LASF55
C:\Users\stapi\AppData\Local\Temp\ccQLRcFb.s:8848   .debug_str:00000000000003c9 .LASF56
C:\Users\stapi\AppData\Local\Temp\ccQLRcFb.s:9006   .debug_str:0000000000000943 .LASF57
C:\Users\stapi\AppData\Local\Temp\ccQLRcFb.s:8842   .debug_str:0000000000000393 .LASF58
C:\Users\stapi\AppData\Local\Temp\ccQLRcFb.s:9072   .debug_str:0000000000000b4b .LASF59
C:\Users\stapi\AppData\Local\Temp\ccQLRcFb.s:8922   .debug_str:0000000000000683 .LASF60
C:\Users\stapi\AppData\Local\Temp\ccQLRcFb.s:9092   .debug_str:0000000000000bf4 .LASF61
C:\Users\stapi\AppData\Local\Temp\ccQLRcFb.s:9014   .debug_str:000000000000098f .LASF62
C:\Users\stapi\AppData\Local\Temp\ccQLRcFb.s:8822   .debug_str:0000000000000307 .LASF63
C:\Users\stapi\AppData\Local\Temp\ccQLRcFb.s:9134   .debug_str:0000000000000e45 .LASF64
C:\Users\stapi\AppData\Local\Temp\ccQLRcFb.s:8798   .debug_str:000000000000023e .LASF65
C:\Users\stapi\AppData\Local\Temp\ccQLRcFb.s:8912   .debug_str:0000000000000620 .LASF66
C:\Users\stapi\AppData\Local\Temp\ccQLRcFb.s:9064   .debug_str:0000000000000afb .LASF67
C:\Users\stapi\AppData\Local\Temp\ccQLRcFb.s:8812   .debug_str:00000000000002c0 .LASF68
C:\Users\stapi\AppData\Local\Temp\ccQLRcFb.s:8938   .debug_str:0000000000000713 .LASF69
C:\Users\stapi\AppData\Local\Temp\ccQLRcFb.s:8982   .debug_str:000000000000087b .LASF70
C:\Users\stapi\AppData\Local\Temp\ccQLRcFb.s:9128   .debug_str:0000000000000e10 .LASF71
C:\Users\stapi\AppData\Local\Temp\ccQLRcFb.s:8856   .debug_str:0000000000000401 .LASF72
C:\Users\stapi\AppData\Local\Temp\ccQLRcFb.s:9084   .debug_str:0000000000000bb8 .LASF73
C:\Users\stapi\AppData\Local\Temp\ccQLRcFb.s:8892   .debug_str:00000000000004f9 .LASF74
C:\Users\stapi\AppData\Local\Temp\ccQLRcFb.s:8960   .debug_str:00000000000007d1 .LASF75
C:\Users\stapi\AppData\Local\Temp\ccQLRcFb.s:8824   .debug_str:0000000000000318 .LASF76
C:\Users\stapi\AppData\Local\Temp\ccQLRcFb.s:9124   .debug_str:0000000000000df4 .LASF77
C:\Users\stapi\AppData\Local\Temp\ccQLRcFb.s:8834   .debug_str:0000000000000361 .LASF78
C:\Users\stapi\AppData\Local\Temp\ccQLRcFb.s:8862   .debug_str:0000000000000438 .LASF79
C:\Users\stapi\AppData\Local\Temp\ccQLRcFb.s:8854   .debug_str:00000000000003fc .LASF80
C:\Users\stapi\AppData\Local\Temp\ccQLRcFb.s:8776   .debug_str:0000000000000181 .LASF81
C:\Users\stapi\AppData\Local\Temp\ccQLRcFb.s:8836   .debug_str:0000000000000368 .LASF85
C:\Users\stapi\AppData\Local\Temp\ccQLRcFb.s:9078   .debug_str:0000000000000b83 .LASF82
C:\Users\stapi\AppData\Local\Temp\ccQLRcFb.s:9046   .debug_str:0000000000000a8f .LASF83
C:\Users\stapi\AppData\Local\Temp\ccQLRcFb.s:8866   .debug_str:0000000000000445 .LASF84
C:\Users\stapi\AppData\Local\Temp\ccQLRcFb.s:9036   .debug_str:0000000000000a54 .LASF100
C:\Users\stapi\AppData\Local\Temp\ccQLRcFb.s:8748   .debug_str:000000000000001b .LASF86
C:\Users\stapi\AppData\Local\Temp\ccQLRcFb.s:8976   .debug_str:000000000000084a .LASF87
C:\Users\stapi\AppData\Local\Temp\ccQLRcFb.s:8814   .debug_str:00000000000002d5 .LASF88
C:\Users\stapi\AppData\Local\Temp\ccQLRcFb.s:8984   .debug_str:0000000000000896 .LASF89
C:\Users\stapi\AppData\Local\Temp\ccQLRcFb.s:9106   .debug_str:0000000000000c6d .LASF90
C:\Users\stapi\AppData\Local\Temp\ccQLRcFb.s:8974   .debug_str:0000000000000839 .LASF91
C:\Users\stapi\AppData\Local\Temp\ccQLRcFb.s:8874   .debug_str:000000000000046b .LASF92
C:\Users\stapi\AppData\Local\Temp\ccQLRcFb.s:9120   .debug_str:0000000000000dc8 .LASF93
C:\Users\stapi\AppData\Local\Temp\ccQLRcFb.s:9010   .debug_str:0000000000000966 .LASF94
C:\Users\stapi\AppData\Local\Temp\ccQLRcFb.s:8778   .debug_str:0000000000000194 .LASF95
C:\Users\stapi\AppData\Local\Temp\ccQLRcFb.s:8792   .debug_str:0000000000000213 .LASF96
C:\Users\stapi\AppData\Local\Temp\ccQLRcFb.s:9102   .debug_str:0000000000000c46 .LASF97
C:\Users\stapi\AppData\Local\Temp\ccQLRcFb.s:8932   .debug_str:00000000000006dc .LASF98
C:\Users\stapi\AppData\Local\Temp\ccQLRcFb.s:9108   .debug_str:0000000000000c79 .LASF99
C:\Users\stapi\AppData\Local\Temp\ccQLRcFb.s:8804   .debug_str:000000000000026e .LASF101
C:\Users\stapi\AppData\Local\Temp\ccQLRcFb.s:9040   .debug_str:0000000000000a6a .LASF102
C:\Users\stapi\AppData\Local\Temp\ccQLRcFb.s:8840   .debug_str:0000000000000382 .LASF103
C:\Users\stapi\AppData\Local\Temp\ccQLRcFb.s:8788   .debug_str:00000000000001e8 .LASF104
C:\Users\stapi\AppData\Local\Temp\ccQLRcFb.s:8846   .debug_str:00000000000003ba .LASF105
C:\Users\stapi\AppData\Local\Temp\ccQLRcFb.s:9020   .debug_str:00000000000009ca .LASF106
C:\Users\stapi\AppData\Local\Temp\ccQLRcFb.s:9000   .debug_str:000000000000091f .LASF107
C:\Users\stapi\AppData\Local\Temp\ccQLRcFb.s:8796   .debug_str:0000000000000236 .LASF108
C:\Users\stapi\AppData\Local\Temp\ccQLRcFb.s:8970   .debug_str:0000000000000814 .LASF109
C:\Users\stapi\AppData\Local\Temp\ccQLRcFb.s:9086   .debug_str:0000000000000bd3 .LASF110
C:\Users\stapi\AppData\Local\Temp\ccQLRcFb.s:8996   .debug_str:00000000000008f8 .LASF111
C:\Users\stapi\AppData\Local\Temp\ccQLRcFb.s:2596   .text.awss_devinfo_notify_stop:0000000000000000 .LFB81
C:\Users\stapi\AppData\Local\Temp\ccQLRcFb.s:2677   .text.awss_devinfo_notify_stop:0000000000000086 .LFE81
C:\Users\stapi\AppData\Local\Temp\ccQLRcFb.s:2613   .text.awss_devinfo_notify_stop:000000000000001e .LVL252
C:\Users\stapi\AppData\Local\Temp\ccQLRcFb.s:2637   .text.awss_devinfo_notify_stop:0000000000000046 .LVL253
C:\Users\stapi\AppData\Local\Temp\ccQLRcFb.s:2648   .text.awss_devinfo_notify_stop:000000000000005e .LVL254
C:\Users\stapi\AppData\Local\Temp\ccQLRcFb.s:2659   .text.awss_devinfo_notify_stop:000000000000006e .LVL255
C:\Users\stapi\AppData\Local\Temp\ccQLRcFb.s:2663   .text.awss_devinfo_notify_stop:0000000000000078 .LVL256
C:\Users\stapi\AppData\Local\Temp\ccQLRcFb.s:8966   .debug_str:00000000000007f8 .LASF112
C:\Users\stapi\AppData\Local\Temp\ccQLRcFb.s:2569   .text.awss_devinfo_notify:0000000000000000 .LFB80
C:\Users\stapi\AppData\Local\Temp\ccQLRcFb.s:2589   .text.awss_devinfo_notify:0000000000000020 .LFE80
C:\Users\stapi\AppData\Local\Temp\ccQLRcFb.s:2587   .text.awss_devinfo_notify:0000000000000020 .LVL251
C:\Users\stapi\AppData\Local\Temp\ccQLRcFb.s:8988   .debug_str:00000000000008b4 .LASF115
C:\Users\stapi\AppData\Local\Temp\ccQLRcFb.s:2134   .text.__awss_devinfo_notify:0000000000000000 .LFB79
C:\Users\stapi\AppData\Local\Temp\ccQLRcFb.s:2307   .text.__awss_devinfo_notify:000000000000012e .LFE79
C:\Users\stapi\AppData\Local\Temp\ccQLRcFb.s:2160   .text.__awss_devinfo_notify:000000000000002a .LVL219
C:\Users\stapi\AppData\Local\Temp\ccQLRcFb.s:2178   .text.__awss_devinfo_notify:0000000000000058 .LVL220
C:\Users\stapi\AppData\Local\Temp\ccQLRcFb.s:2207   .text.__awss_devinfo_notify:000000000000009a .LVL221
C:\Users\stapi\AppData\Local\Temp\ccQLRcFb.s:2214   .text.__awss_devinfo_notify:00000000000000a6 .LVL222
C:\Users\stapi\AppData\Local\Temp\ccQLRcFb.s:2222   .text.__awss_devinfo_notify:00000000000000b6 .LVL223
C:\Users\stapi\AppData\Local\Temp\ccQLRcFb.s:2226   .text.__awss_devinfo_notify:00000000000000c0 .LVL224
C:\Users\stapi\AppData\Local\Temp\ccQLRcFb.s:2234   .text.__awss_devinfo_notify:00000000000000ca .LVL225
C:\Users\stapi\AppData\Local\Temp\ccQLRcFb.s:2263   .text.__awss_devinfo_notify:00000000000000f0 .LVL226
C:\Users\stapi\AppData\Local\Temp\ccQLRcFb.s:2283   .text.__awss_devinfo_notify:000000000000010c .LVL227
C:\Users\stapi\AppData\Local\Temp\ccQLRcFb.s:2297   .text.__awss_devinfo_notify:000000000000011e .LVL228
C:\Users\stapi\AppData\Local\Temp\ccQLRcFb.s:2301   .text.__awss_devinfo_notify:0000000000000128 .LVL229
C:\Users\stapi\AppData\Local\Temp\ccQLRcFb.s:8902   .debug_str:000000000000054a .LASF113
C:\Users\stapi\AppData\Local\Temp\ccQLRcFb.s:2481   .text.awss_suc_notify_stop:0000000000000000 .LFB78
C:\Users\stapi\AppData\Local\Temp\ccQLRcFb.s:2562   .text.awss_suc_notify_stop:0000000000000086 .LFE78
C:\Users\stapi\AppData\Local\Temp\ccQLRcFb.s:2498   .text.awss_suc_notify_stop:000000000000001e .LVL246
C:\Users\stapi\AppData\Local\Temp\ccQLRcFb.s:2522   .text.awss_suc_notify_stop:0000000000000046 .LVL247
C:\Users\stapi\AppData\Local\Temp\ccQLRcFb.s:2533   .text.awss_suc_notify_stop:000000000000005e .LVL248
C:\Users\stapi\AppData\Local\Temp\ccQLRcFb.s:2544   .text.awss_suc_notify_stop:000000000000006e .LVL249
C:\Users\stapi\AppData\Local\Temp\ccQLRcFb.s:2548   .text.awss_suc_notify_stop:0000000000000078 .LVL250
C:\Users\stapi\AppData\Local\Temp\ccQLRcFb.s:9058   .debug_str:0000000000000ad3 .LASF114
C:\Users\stapi\AppData\Local\Temp\ccQLRcFb.s:2454   .text.awss_suc_notify:0000000000000000 .LFB77
C:\Users\stapi\AppData\Local\Temp\ccQLRcFb.s:2474   .text.awss_suc_notify:0000000000000020 .LFE77
C:\Users\stapi\AppData\Local\Temp\ccQLRcFb.s:2472   .text.awss_suc_notify:0000000000000020 .LVL245
C:\Users\stapi\AppData\Local\Temp\ccQLRcFb.s:8828   .debug_str:0000000000000334 .LASF116
C:\Users\stapi\AppData\Local\Temp\ccQLRcFb.s:1908   .text.__awss_suc_notify:0000000000000000 .LFB76
C:\Users\stapi\AppData\Local\Temp\ccQLRcFb.s:2124   .text.__awss_suc_notify:000000000000018a .LFE76
C:\Users\stapi\AppData\Local\Temp\ccQLRcFb.s:8880   .debug_str:0000000000000495 .LASF125
C:\Users\stapi\AppData\Local\Temp\ccQLRcFb.s:1939   .text.__awss_suc_notify:0000000000000042 .LVL205
C:\Users\stapi\AppData\Local\Temp\ccQLRcFb.s:1958   .text.__awss_suc_notify:0000000000000068 .LVL206
C:\Users\stapi\AppData\Local\Temp\ccQLRcFb.s:1965   .text.__awss_suc_notify:000000000000007a .LVL207
C:\Users\stapi\AppData\Local\Temp\ccQLRcFb.s:1977   .text.__awss_suc_notify:0000000000000094 .LVL208
C:\Users\stapi\AppData\Local\Temp\ccQLRcFb.s:2013   .text.__awss_suc_notify:00000000000000de .LVL209
C:\Users\stapi\AppData\Local\Temp\ccQLRcFb.s:2020   .text.__awss_suc_notify:00000000000000ea .LVL210
C:\Users\stapi\AppData\Local\Temp\ccQLRcFb.s:2028   .text.__awss_suc_notify:00000000000000fa .LVL211
C:\Users\stapi\AppData\Local\Temp\ccQLRcFb.s:2032   .text.__awss_suc_notify:0000000000000104 .LVL212
C:\Users\stapi\AppData\Local\Temp\ccQLRcFb.s:2040   .text.__awss_suc_notify:000000000000010e .LVL213
C:\Users\stapi\AppData\Local\Temp\ccQLRcFb.s:2073   .text.__awss_suc_notify:0000000000000138 .LVL214
C:\Users\stapi\AppData\Local\Temp\ccQLRcFb.s:2080   .text.__awss_suc_notify:000000000000014c .LVL215
C:\Users\stapi\AppData\Local\Temp\ccQLRcFb.s:2100   .text.__awss_suc_notify:0000000000000168 .LVL216
C:\Users\stapi\AppData\Local\Temp\ccQLRcFb.s:2114   .text.__awss_suc_notify:000000000000017a .LVL217
C:\Users\stapi\AppData\Local\Temp\ccQLRcFb.s:2118   .text.__awss_suc_notify:0000000000000184 .LVL218
C:\Users\stapi\AppData\Local\Temp\ccQLRcFb.s:9136   .debug_str:0000000000000e5a .LASF117
C:\Users\stapi\AppData\Local\Temp\ccQLRcFb.s:2360   .text.awss_dev_bind_notify_stop:0000000000000000 .LFB75
C:\Users\stapi\AppData\Local\Temp\ccQLRcFb.s:2447   .text.awss_dev_bind_notify_stop:000000000000008e .LFE75
C:\Users\stapi\AppData\Local\Temp\ccQLRcFb.s:2377   .text.awss_dev_bind_notify_stop:000000000000001e .LVL240
C:\Users\stapi\AppData\Local\Temp\ccQLRcFb.s:2407   .text.awss_dev_bind_notify_stop:000000000000004e .LVL241
C:\Users\stapi\AppData\Local\Temp\ccQLRcFb.s:2418   .text.awss_dev_bind_notify_stop:0000000000000066 .LVL242
C:\Users\stapi\AppData\Local\Temp\ccQLRcFb.s:2429   .text.awss_dev_bind_notify_stop:0000000000000076 .LVL243
C:\Users\stapi\AppData\Local\Temp\ccQLRcFb.s:2433   .text.awss_dev_bind_notify_stop:0000000000000080 .LVL244
C:\Users\stapi\AppData\Local\Temp\ccQLRcFb.s:9112   .debug_str:0000000000000d76 .LASF118
C:\Users\stapi\AppData\Local\Temp\ccQLRcFb.s:1868   .text.awss_dev_bind_notify:0000000000000000 .LFB74
C:\Users\stapi\AppData\Local\Temp\ccQLRcFb.s:1892   .text.awss_dev_bind_notify:0000000000000028 .LFE74
C:\Users\stapi\AppData\Local\Temp\ccQLRcFb.s:1890   .text.awss_dev_bind_notify:0000000000000028 .LVL204
C:\Users\stapi\AppData\Local\Temp\ccQLRcFb.s:9122   .debug_str:0000000000000ddd .LASF151
C:\Users\stapi\AppData\Local\Temp\ccQLRcFb.s:9080   .debug_str:0000000000000b8b .LASF120
C:\Users\stapi\AppData\Local\Temp\ccQLRcFb.s:2337   .text.online_ucast_get_device_info:0000000000000000 .LFB72
C:\Users\stapi\AppData\Local\Temp\ccQLRcFb.s:2353   .text.online_ucast_get_device_info:000000000000000e .LFE72
C:\Users\stapi\AppData\Local\Temp\ccQLRcFb.s:7707   .debug_loc:0000000000000000 .LLST55
C:\Users\stapi\AppData\Local\Temp\ccQLRcFb.s:8746   .debug_str:0000000000000012 .LASF119
C:\Users\stapi\AppData\Local\Temp\ccQLRcFb.s:7721   .debug_loc:0000000000000021 .LLST56
C:\Users\stapi\AppData\Local\Temp\ccQLRcFb.s:7735   .debug_loc:0000000000000042 .LLST57
C:\Users\stapi\AppData\Local\Temp\ccQLRcFb.s:7753   .debug_loc:000000000000006e .LLST58
C:\Users\stapi\AppData\Local\Temp\ccQLRcFb.s:2351   .text.online_ucast_get_device_info:000000000000000e .LVL239
C:\Users\stapi\AppData\Local\Temp\ccQLRcFb.s:9070   .debug_str:0000000000000b2e .LASF121
C:\Users\stapi\AppData\Local\Temp\ccQLRcFb.s:2314   .text.online_mcast_get_device_info:0000000000000000 .LFB71
C:\Users\stapi\AppData\Local\Temp\ccQLRcFb.s:2330   .text.online_mcast_get_device_info:000000000000000e .LFE71
C:\Users\stapi\AppData\Local\Temp\ccQLRcFb.s:7767   .debug_loc:000000000000008f .LLST51
C:\Users\stapi\AppData\Local\Temp\ccQLRcFb.s:7781   .debug_loc:00000000000000b0 .LLST52
C:\Users\stapi\AppData\Local\Temp\ccQLRcFb.s:7795   .debug_loc:00000000000000d1 .LLST53
C:\Users\stapi\AppData\Local\Temp\ccQLRcFb.s:7813   .debug_loc:00000000000000fd .LLST54
C:\Users\stapi\AppData\Local\Temp\ccQLRcFb.s:2328   .text.online_mcast_get_device_info:000000000000000e .LVL234
C:\Users\stapi\AppData\Local\Temp\ccQLRcFb.s:8888   .debug_str:00000000000004d2 .LASF148
C:\Users\stapi\AppData\Local\Temp\ccQLRcFb.s:8878   .debug_str:000000000000048d .LASF122
C:\Users\stapi\AppData\Local\Temp\ccQLRcFb.s:8758   .debug_str:000000000000006e .LASF123
C:\Users\stapi\AppData\Local\Temp\ccQLRcFb.s:652    .text.awss_process_get_devinfo:0000000000000000 .LFB69
C:\Users\stapi\AppData\Local\Temp\ccQLRcFb.s:1069   .text.awss_process_get_devinfo:0000000000000300 .LFE69
C:\Users\stapi\AppData\Local\Temp\ccQLRcFb.s:7827   .debug_loc:000000000000011e .LLST28
C:\Users\stapi\AppData\Local\Temp\ccQLRcFb.s:9032   .debug_str:0000000000000a3b .LASF124
C:\Users\stapi\AppData\Local\Temp\ccQLRcFb.s:7849   .debug_loc:0000000000000155 .LLST29
C:\Users\stapi\AppData\Local\Temp\ccQLRcFb.s:7879   .debug_loc:00000000000001a2 .LLST30
C:\Users\stapi\AppData\Local\Temp\ccQLRcFb.s:8810   .debug_str:00000000000002af .LASF197
C:\Users\stapi\AppData\Local\Temp\ccQLRcFb.s:1006   .text.awss_process_get_devinfo:00000000000002a4 .LDL1
C:\Users\stapi\AppData\Local\Temp\ccQLRcFb.s:8838   .debug_str:000000000000037b .LASF126
C:\Users\stapi\AppData\Local\Temp\ccQLRcFb.s:7890   .debug_loc:00000000000001c0 .LLST31
C:\Users\stapi\AppData\Local\Temp\ccQLRcFb.s:7907   .debug_loc:00000000000001eb .LLST32
C:\Users\stapi\AppData\Local\Temp\ccQLRcFb.s:9066   .debug_str:0000000000000b0b .LASF127
C:\Users\stapi\AppData\Local\Temp\ccQLRcFb.s:8962   .debug_str:00000000000007e5 .LASF128
C:\Users\stapi\AppData\Local\Temp\ccQLRcFb.s:7928   .debug_loc:0000000000000221 .LLST33
C:\Users\stapi\AppData\Local\Temp\ccQLRcFb.s:8820   .debug_str:0000000000000301 .LASF129
C:\Users\stapi\AppData\Local\Temp\ccQLRcFb.s:854    .text.awss_process_get_devinfo:000000000000016a .LBB29
C:\Users\stapi\AppData\Local\Temp\ccQLRcFb.s:861    .text.awss_process_get_devinfo:0000000000000174 .LBE29
C:\Users\stapi\AppData\Local\Temp\ccQLRcFb.s:7939   .debug_loc:000000000000023f .LLST34
C:\Users\stapi\AppData\Local\Temp\ccQLRcFb.s:859    .text.awss_process_get_devinfo:0000000000000174 .LVL99
C:\Users\stapi\AppData\Local\Temp\ccQLRcFb.s:967    .text.awss_process_get_devinfo:0000000000000268 .LBB31
C:\Users\stapi\AppData\Local\Temp\ccQLRcFb.s:974    .text.awss_process_get_devinfo:0000000000000272 .LBE31
C:\Users\stapi\AppData\Local\Temp\ccQLRcFb.s:7946   .debug_loc:0000000000000252 .LLST35
C:\Users\stapi\AppData\Local\Temp\ccQLRcFb.s:972    .text.awss_process_get_devinfo:0000000000000272 .LVL116
C:\Users\stapi\AppData\Local\Temp\ccQLRcFb.s:759    .text.awss_process_get_devinfo:00000000000000aa .LVL84
C:\Users\stapi\AppData\Local\Temp\ccQLRcFb.s:764    .text.awss_process_get_devinfo:00000000000000b2 .LVL85
C:\Users\stapi\AppData\Local\Temp\ccQLRcFb.s:775    .text.awss_process_get_devinfo:00000000000000c8 .LVL87
C:\Users\stapi\AppData\Local\Temp\ccQLRcFb.s:787    .text.awss_process_get_devinfo:00000000000000da .LVL90
C:\Users\stapi\AppData\Local\Temp\ccQLRcFb.s:799    .text.awss_process_get_devinfo:00000000000000f4 .LVL91
C:\Users\stapi\AppData\Local\Temp\ccQLRcFb.s:822    .text.awss_process_get_devinfo:0000000000000114 .LVL94
C:\Users\stapi\AppData\Local\Temp\ccQLRcFb.s:828    .text.awss_process_get_devinfo:0000000000000124 .LVL95
C:\Users\stapi\AppData\Local\Temp\ccQLRcFb.s:836    .text.awss_process_get_devinfo:000000000000013c .LVL96
C:\Users\stapi\AppData\Local\Temp\ccQLRcFb.s:842    .text.awss_process_get_devinfo:000000000000014c .LVL97
C:\Users\stapi\AppData\Local\Temp\ccQLRcFb.s:852    .text.awss_process_get_devinfo:000000000000016a .LVL98
C:\Users\stapi\AppData\Local\Temp\ccQLRcFb.s:869    .text.awss_process_get_devinfo:000000000000018a .LVL100
C:\Users\stapi\AppData\Local\Temp\ccQLRcFb.s:876    .text.awss_process_get_devinfo:000000000000019c .LVL101
C:\Users\stapi\AppData\Local\Temp\ccQLRcFb.s:882    .text.awss_process_get_devinfo:00000000000001ac .LVL102
C:\Users\stapi\AppData\Local\Temp\ccQLRcFb.s:888    .text.awss_process_get_devinfo:00000000000001be .LVL103
C:\Users\stapi\AppData\Local\Temp\ccQLRcFb.s:894    .text.awss_process_get_devinfo:00000000000001ce .LVL105
C:\Users\stapi\AppData\Local\Temp\ccQLRcFb.s:903    .text.awss_process_get_devinfo:00000000000001e0 .LVL106
C:\Users\stapi\AppData\Local\Temp\ccQLRcFb.s:917    .text.awss_process_get_devinfo:00000000000001fc .LVL107
C:\Users\stapi\AppData\Local\Temp\ccQLRcFb.s:920    .text.awss_process_get_devinfo:0000000000000204 .LVL108
C:\Users\stapi\AppData\Local\Temp\ccQLRcFb.s:925    .text.awss_process_get_devinfo:000000000000020e .LVL109
C:\Users\stapi\AppData\Local\Temp\ccQLRcFb.s:938    .text.awss_process_get_devinfo:0000000000000226 .LVL110
C:\Users\stapi\AppData\Local\Temp\ccQLRcFb.s:948    .text.awss_process_get_devinfo:000000000000023c .LVL112
C:\Users\stapi\AppData\Local\Temp\ccQLRcFb.s:954    .text.awss_process_get_devinfo:000000000000024c .LVL113
C:\Users\stapi\AppData\Local\Temp\ccQLRcFb.s:959    .text.awss_process_get_devinfo:000000000000025c .LVL114
C:\Users\stapi\AppData\Local\Temp\ccQLRcFb.s:963    .text.awss_process_get_devinfo:0000000000000268 .LVL115
C:\Users\stapi\AppData\Local\Temp\ccQLRcFb.s:978    .text.awss_process_get_devinfo:000000000000027e .LVL117
C:\Users\stapi\AppData\Local\Temp\ccQLRcFb.s:986    .text.awss_process_get_devinfo:000000000000028e .LVL118
C:\Users\stapi\AppData\Local\Temp\ccQLRcFb.s:1035   .text.awss_process_get_devinfo:00000000000002de .LBB33
C:\Users\stapi\AppData\Local\Temp\ccQLRcFb.s:1043   .text.awss_process_get_devinfo:00000000000002e8 .LBE33
C:\Users\stapi\AppData\Local\Temp\ccQLRcFb.s:7953   .debug_loc:0000000000000265 .LLST36
C:\Users\stapi\AppData\Local\Temp\ccQLRcFb.s:1040   .text.awss_process_get_devinfo:00000000000002e8 .LVL126
C:\Users\stapi\AppData\Local\Temp\ccQLRcFb.s:1049   .text.awss_process_get_devinfo:00000000000002ec .LBB35
C:\Users\stapi\AppData\Local\Temp\ccQLRcFb.s:1060   .text.awss_process_get_devinfo:00000000000002f8 .LBE35
C:\Users\stapi\AppData\Local\Temp\ccQLRcFb.s:7960   .debug_loc:0000000000000278 .LLST37
C:\Users\stapi\AppData\Local\Temp\ccQLRcFb.s:1054   .text.awss_process_get_devinfo:00000000000002f6 .LVL128
C:\Users\stapi\AppData\Local\Temp\ccQLRcFb.s:686    .text.awss_process_get_devinfo:000000000000003a .LVL77
C:\Users\stapi\AppData\Local\Temp\ccQLRcFb.s:692    .text.awss_process_get_devinfo:000000000000004e .LVL78
C:\Users\stapi\AppData\Local\Temp\ccQLRcFb.s:719    .text.awss_process_get_devinfo:0000000000000086 .LVL80
C:\Users\stapi\AppData\Local\Temp\ccQLRcFb.s:1014   .text.awss_process_get_devinfo:00000000000002bc .LVL122
C:\Users\stapi\AppData\Local\Temp\ccQLRcFb.s:1018   .text.awss_process_get_devinfo:00000000000002c8 .LVL123
C:\Users\stapi\AppData\Local\Temp\ccQLRcFb.s:1026   .text.awss_process_get_devinfo:00000000000002d8 .LVL124
C:\Users\stapi\AppData\Local\Temp\ccQLRcFb.s:8754   .debug_str:0000000000000048 .LASF130
C:\Users\stapi\AppData\Local\Temp\ccQLRcFb.s:1107   .text.awss_notify_dev_info:0000000000000000 .LFB68
C:\Users\stapi\AppData\Local\Temp\ccQLRcFb.s:1539   .text.awss_notify_dev_info:0000000000000298 .LFE68
C:\Users\stapi\AppData\Local\Temp\ccQLRcFb.s:8764   .debug_str:000000000000012e .LASF131
C:\Users\stapi\AppData\Local\Temp\ccQLRcFb.s:7967   .debug_loc:000000000000028b .LLST38
C:\Users\stapi\AppData\Local\Temp\ccQLRcFb.s:8744   .debug_str:000000000000000c .LASF132
C:\Users\stapi\AppData\Local\Temp\ccQLRcFb.s:7989   .debug_loc:00000000000002c2 .LLST39
C:\Users\stapi\AppData\Local\Temp\ccQLRcFb.s:8000   .debug_loc:00000000000002e0 .LLST40
C:\Users\stapi\AppData\Local\Temp\ccQLRcFb.s:8017   .debug_loc:000000000000030b .LLST41
C:\Users\stapi\AppData\Local\Temp\ccQLRcFb.s:8046   .debug_loc:0000000000000357 .LLST42
C:\Users\stapi\AppData\Local\Temp\ccQLRcFb.s:8950   .debug_str:0000000000000789 .LASF133
C:\Users\stapi\AppData\Local\Temp\ccQLRcFb.s:8073   .debug_loc:000000000000039a .LLST43
C:\Users\stapi\AppData\Local\Temp\ccQLRcFb.s:8886   .debug_str:00000000000004cb .LASF134
C:\Users\stapi\AppData\Local\Temp\ccQLRcFb.s:8081   .debug_loc:00000000000003ae .LLST44
C:\Users\stapi\AppData\Local\Temp\ccQLRcFb.s:8101   .debug_loc:00000000000003e3 .LLST45
C:\Users\stapi\AppData\Local\Temp\ccQLRcFb.s:8117   .debug_loc:000000000000040d .LLST46
C:\Users\stapi\AppData\Local\Temp\ccQLRcFb.s:1457   .text.awss_notify_dev_info:000000000000021c .LBB40
C:\Users\stapi\AppData\Local\Temp\ccQLRcFb.s:8129   .debug_loc:000000000000042d .LLST47
C:\Users\stapi\AppData\Local\Temp\ccQLRcFb.s:1523   .text.awss_notify_dev_info:000000000000028c .LVL181
C:\Users\stapi\AppData\Local\Temp\ccQLRcFb.s:1476   .text.awss_notify_dev_info:0000000000000232 .LVL173
C:\Users\stapi\AppData\Local\Temp\ccQLRcFb.s:1487   .text.awss_notify_dev_info:0000000000000246 .LVL174
C:\Users\stapi\AppData\Local\Temp\ccQLRcFb.s:1495   .text.awss_notify_dev_info:0000000000000254 .LVL177
C:\Users\stapi\AppData\Local\Temp\ccQLRcFb.s:1506   .text.awss_notify_dev_info:000000000000026c .LVL178
C:\Users\stapi\AppData\Local\Temp\ccQLRcFb.s:1510   .text.awss_notify_dev_info:0000000000000278 .LVL179
C:\Users\stapi\AppData\Local\Temp\ccQLRcFb.s:1161   .text.awss_notify_dev_info:000000000000002a .LVL136
C:\Users\stapi\AppData\Local\Temp\ccQLRcFb.s:1223   .text.awss_notify_dev_info:000000000000007c .LVL143
C:\Users\stapi\AppData\Local\Temp\ccQLRcFb.s:1228   .text.awss_notify_dev_info:000000000000008c .LVL144
C:\Users\stapi\AppData\Local\Temp\ccQLRcFb.s:1232   .text.awss_notify_dev_info:0000000000000098 .LVL145
C:\Users\stapi\AppData\Local\Temp\ccQLRcFb.s:1274   .text.awss_notify_dev_info:00000000000000b4 .LVL148
C:\Users\stapi\AppData\Local\Temp\ccQLRcFb.s:1280   .text.awss_notify_dev_info:00000000000000be .LVL150
C:\Users\stapi\AppData\Local\Temp\ccQLRcFb.s:1295   .text.awss_notify_dev_info:00000000000000d4 .LVL153
C:\Users\stapi\AppData\Local\Temp\ccQLRcFb.s:1300   .text.awss_notify_dev_info:00000000000000e4 .LVL154
C:\Users\stapi\AppData\Local\Temp\ccQLRcFb.s:1304   .text.awss_notify_dev_info:00000000000000f0 .LVL155
C:\Users\stapi\AppData\Local\Temp\ccQLRcFb.s:1352   .text.awss_notify_dev_info:0000000000000124 .LVL162
C:\Users\stapi\AppData\Local\Temp\ccQLRcFb.s:1365   .text.awss_notify_dev_info:000000000000013e .LVL163
C:\Users\stapi\AppData\Local\Temp\ccQLRcFb.s:1384   .text.awss_notify_dev_info:000000000000016e .LVL164
C:\Users\stapi\AppData\Local\Temp\ccQLRcFb.s:1392   .text.awss_notify_dev_info:0000000000000184 .LVL165
C:\Users\stapi\AppData\Local\Temp\ccQLRcFb.s:1403   .text.awss_notify_dev_info:00000000000001a0 .LVL166
C:\Users\stapi\AppData\Local\Temp\ccQLRcFb.s:1411   .text.awss_notify_dev_info:00000000000001b0 .LVL167
C:\Users\stapi\AppData\Local\Temp\ccQLRcFb.s:1417   .text.awss_notify_dev_info:00000000000001c2 .LVL168
C:\Users\stapi\AppData\Local\Temp\ccQLRcFb.s:1421   .text.awss_notify_dev_info:00000000000001ce .LVL169
C:\Users\stapi\AppData\Local\Temp\ccQLRcFb.s:1434   .text.awss_notify_dev_info:00000000000001f6 .LVL170
C:\Users\stapi\AppData\Local\Temp\ccQLRcFb.s:1315   .text.awss_notify_dev_info:00000000000000f2 .LBB48
C:\Users\stapi\AppData\Local\Temp\ccQLRcFb.s:1323   .text.awss_notify_dev_info:00000000000000fc .LBE48
C:\Users\stapi\AppData\Local\Temp\ccQLRcFb.s:8143   .debug_loc:0000000000000448 .LLST48
C:\Users\stapi\AppData\Local\Temp\ccQLRcFb.s:1320   .text.awss_notify_dev_info:00000000000000fc .LVL157
C:\Users\stapi\AppData\Local\Temp\ccQLRcFb.s:1329   .text.awss_notify_dev_info:0000000000000100 .LBB50
C:\Users\stapi\AppData\Local\Temp\ccQLRcFb.s:1340   .text.awss_notify_dev_info:000000000000010c .LBE50
C:\Users\stapi\AppData\Local\Temp\ccQLRcFb.s:8150   .debug_loc:000000000000045b .LLST49
C:\Users\stapi\AppData\Local\Temp\ccQLRcFb.s:1334   .text.awss_notify_dev_info:000000000000010a .LVL159
C:\Users\stapi\AppData\Local\Temp\ccQLRcFb.s:8930   .debug_str:00000000000006c7 .LASF142
C:\Users\stapi\AppData\Local\Temp\ccQLRcFb.s:47     .text.awss_notify_response:0000000000000000 .LFB67
C:\Users\stapi\AppData\Local\Temp\ccQLRcFb.s:308    .text.awss_notify_response:00000000000001ac .LFE67
C:\Users\stapi\AppData\Local\Temp\ccQLRcFb.s:8157   .debug_loc:000000000000046e .LLST0
C:\Users\stapi\AppData\Local\Temp\ccQLRcFb.s:9126   .debug_str:0000000000000e09 .LASF135
C:\Users\stapi\AppData\Local\Temp\ccQLRcFb.s:8168   .debug_loc:000000000000048c .LLST1
C:\Users\stapi\AppData\Local\Temp\ccQLRcFb.s:8968   .debug_str:000000000000080c .LASF136
C:\Users\stapi\AppData\Local\Temp\ccQLRcFb.s:8183   .debug_loc:00000000000004b5 .LLST2
C:\Users\stapi\AppData\Local\Temp\ccQLRcFb.s:8212   .debug_loc:00000000000004fa .LLST3
C:\Users\stapi\AppData\Local\Temp\ccQLRcFb.s:9090   .debug_str:0000000000000bef .LASF137
C:\Users\stapi\AppData\Local\Temp\ccQLRcFb.s:8220   .debug_loc:000000000000050e .LLST4
C:\Users\stapi\AppData\Local\Temp\ccQLRcFb.s:9016   .debug_str:00000000000009ad .LASF138
C:\Users\stapi\AppData\Local\Temp\ccQLRcFb.s:8227   .debug_loc:0000000000000521 .LLST5
C:\Users\stapi\AppData\Local\Temp\ccQLRcFb.s:9042   .debug_str:0000000000000a75 .LASF139
C:\Users\stapi\AppData\Local\Temp\ccQLRcFb.s:8958   .debug_str:00000000000007c9 .LASF140
C:\Users\stapi\AppData\Local\Temp\ccQLRcFb.s:8262   .debug_loc:000000000000057a .LLST6
C:\Users\stapi\AppData\Local\Temp\ccQLRcFb.s:8868   .debug_str:000000000000044e .LASF141
C:\Users\stapi\AppData\Local\Temp\ccQLRcFb.s:8274   .debug_loc:0000000000000599 .LLST7
C:\Users\stapi\AppData\Local\Temp\ccQLRcFb.s:131    .text.awss_notify_response:0000000000000070 .LVL12
C:\Users\stapi\AppData\Local\Temp\ccQLRcFb.s:149    .text.awss_notify_response:0000000000000090 .LVL14
C:\Users\stapi\AppData\Local\Temp\ccQLRcFb.s:158    .text.awss_notify_response:00000000000000a2 .LVL16
C:\Users\stapi\AppData\Local\Temp\ccQLRcFb.s:172    .text.awss_notify_response:00000000000000c4 .LVL18
C:\Users\stapi\AppData\Local\Temp\ccQLRcFb.s:182    .text.awss_notify_response:00000000000000dc .LVL19
C:\Users\stapi\AppData\Local\Temp\ccQLRcFb.s:192    .text.awss_notify_response:00000000000000ee .LVL21
C:\Users\stapi\AppData\Local\Temp\ccQLRcFb.s:200    .text.awss_notify_response:00000000000000fe .LVL23
C:\Users\stapi\AppData\Local\Temp\ccQLRcFb.s:206    .text.awss_notify_response:000000000000010e .LVL24
C:\Users\stapi\AppData\Local\Temp\ccQLRcFb.s:216    .text.awss_notify_response:0000000000000118 .LVL26
C:\Users\stapi\AppData\Local\Temp\ccQLRcFb.s:237    .text.awss_notify_response:0000000000000144 .LVL28
C:\Users\stapi\AppData\Local\Temp\ccQLRcFb.s:247    .text.awss_notify_response:0000000000000156 .LVL30
C:\Users\stapi\AppData\Local\Temp\ccQLRcFb.s:257    .text.awss_notify_response:0000000000000168 .LVL32
C:\Users\stapi\AppData\Local\Temp\ccQLRcFb.s:269    .text.awss_notify_response:0000000000000182 .LVL34
C:\Users\stapi\AppData\Local\Temp\ccQLRcFb.s:88     .text.awss_notify_response:0000000000000042 .LVL5
C:\Users\stapi\AppData\Local\Temp\ccQLRcFb.s:108    .text.awss_notify_response:0000000000000058 .LVL8
C:\Users\stapi\AppData\Local\Temp\ccQLRcFb.s:9044   .debug_str:0000000000000a7a .LASF143
C:\Users\stapi\AppData\Local\Temp\ccQLRcFb.s:314    .text.awss_suc_notify_resp:0000000000000000 .LFB66
C:\Users\stapi\AppData\Local\Temp\ccQLRcFb.s:327    .text.awss_suc_notify_resp:000000000000000c .LFE66
C:\Users\stapi\AppData\Local\Temp\ccQLRcFb.s:8894   .debug_str:0000000000000513 .LASF144
C:\Users\stapi\AppData\Local\Temp\ccQLRcFb.s:8303   .debug_loc:00000000000005e5 .LLST8
C:\Users\stapi\AppData\Local\Temp\ccQLRcFb.s:8317   .debug_loc:0000000000000606 .LLST9
C:\Users\stapi\AppData\Local\Temp\ccQLRcFb.s:8928   .debug_str:00000000000006be .LASF145
C:\Users\stapi\AppData\Local\Temp\ccQLRcFb.s:8331   .debug_loc:0000000000000627 .LLST10
C:\Users\stapi\AppData\Local\Temp\ccQLRcFb.s:8345   .debug_loc:0000000000000648 .LLST11
C:\Users\stapi\AppData\Local\Temp\ccQLRcFb.s:8359   .debug_loc:0000000000000669 .LLST12
C:\Users\stapi\AppData\Local\Temp\ccQLRcFb.s:325    .text.awss_suc_notify_resp:000000000000000c .LVL41
C:\Users\stapi\AppData\Local\Temp\ccQLRcFb.s:9132   .debug_str:0000000000000e2c .LASF146
C:\Users\stapi\AppData\Local\Temp\ccQLRcFb.s:333    .text.awss_devinfo_notify_resp:0000000000000000 .LFB65
C:\Users\stapi\AppData\Local\Temp\ccQLRcFb.s:346    .text.awss_devinfo_notify_resp:000000000000000c .LFE65
C:\Users\stapi\AppData\Local\Temp\ccQLRcFb.s:8373   .debug_loc:000000000000068a .LLST13
C:\Users\stapi\AppData\Local\Temp\ccQLRcFb.s:8387   .debug_loc:00000000000006ab .LLST14
C:\Users\stapi\AppData\Local\Temp\ccQLRcFb.s:8401   .debug_loc:00000000000006cc .LLST15
C:\Users\stapi\AppData\Local\Temp\ccQLRcFb.s:8415   .debug_loc:00000000000006ed .LLST16
C:\Users\stapi\AppData\Local\Temp\ccQLRcFb.s:8429   .debug_loc:000000000000070e .LLST17
C:\Users\stapi\AppData\Local\Temp\ccQLRcFb.s:344    .text.awss_devinfo_notify_resp:000000000000000c .LVL45
C:\Users\stapi\AppData\Local\Temp\ccQLRcFb.s:9030   .debug_str:0000000000000a21 .LASF147
C:\Users\stapi\AppData\Local\Temp\ccQLRcFb.s:352    .text.awss_dev_bind_notify_resp:0000000000000000 .LFB64
C:\Users\stapi\AppData\Local\Temp\ccQLRcFb.s:388    .text.awss_dev_bind_notify_resp:000000000000002e .LFE64
C:\Users\stapi\AppData\Local\Temp\ccQLRcFb.s:8443   .debug_loc:000000000000072f .LLST18
C:\Users\stapi\AppData\Local\Temp\ccQLRcFb.s:8457   .debug_loc:0000000000000750 .LLST19
C:\Users\stapi\AppData\Local\Temp\ccQLRcFb.s:8471   .debug_loc:0000000000000771 .LLST20
C:\Users\stapi\AppData\Local\Temp\ccQLRcFb.s:8485   .debug_loc:0000000000000792 .LLST21
C:\Users\stapi\AppData\Local\Temp\ccQLRcFb.s:8499   .debug_loc:00000000000007b3 .LLST22
C:\Users\stapi\AppData\Local\Temp\ccQLRcFb.s:367    .text.awss_dev_bind_notify_resp:0000000000000014 .LVL49
C:\Users\stapi\AppData\Local\Temp\ccQLRcFb.s:378    .text.awss_dev_bind_notify_resp:0000000000000024 .LVL51
C:\Users\stapi\AppData\Local\Temp\ccQLRcFb.s:9098   .debug_str:0000000000000c34 .LASF149
C:\Users\stapi\AppData\Local\Temp\ccQLRcFb.s:8896   .debug_str:000000000000051b .LASF150
C:\Users\stapi\AppData\Local\Temp\ccQLRcFb.s:8864   .debug_str:000000000000043d .LASF152
C:\Users\stapi\AppData\Local\Temp\ccQLRcFb.s:8964   .debug_str:00000000000007ee .LASF153
C:\Users\stapi\AppData\Local\Temp\ccQLRcFb.s:9076   .debug_str:0000000000000b79 .LASF154
C:\Users\stapi\AppData\Local\Temp\ccQLRcFb.s:410    .text.online_get_device_info.constprop.0:0000000000000000 .LFB84
C:\Users\stapi\AppData\Local\Temp\ccQLRcFb.s:571    .text.online_get_device_info.constprop.0:0000000000000110 .LFE84
C:\Users\stapi\AppData\Local\Temp\ccQLRcFb.s:8513   .debug_loc:00000000000007d4 .LLST23
C:\Users\stapi\AppData\Local\Temp\ccQLRcFb.s:8524   .debug_loc:00000000000007f2 .LLST24
C:\Users\stapi\AppData\Local\Temp\ccQLRcFb.s:8535   .debug_loc:0000000000000810 .LLST25
C:\Users\stapi\AppData\Local\Temp\ccQLRcFb.s:8549   .debug_loc:0000000000000831 .LLST26
C:\Users\stapi\AppData\Local\Temp\ccQLRcFb.s:442    .text.online_get_device_info.constprop.0:0000000000000026 .LVL57
C:\Users\stapi\AppData\Local\Temp\ccQLRcFb.s:447    .text.online_get_device_info.constprop.0:0000000000000030 .LVL58
C:\Users\stapi\AppData\Local\Temp\ccQLRcFb.s:456    .text.online_get_device_info.constprop.0:0000000000000048 .LVL59
C:\Users\stapi\AppData\Local\Temp\ccQLRcFb.s:492    .text.online_get_device_info.constprop.0:000000000000007a .LVL62
C:\Users\stapi\AppData\Local\Temp\ccQLRcFb.s:505    .text.online_get_device_info.constprop.0:0000000000000090 .LVL63
C:\Users\stapi\AppData\Local\Temp\ccQLRcFb.s:519    .text.online_get_device_info.constprop.0:00000000000000a8 .LVL64
C:\Users\stapi\AppData\Local\Temp\ccQLRcFb.s:531    .text.online_get_device_info.constprop.0:00000000000000be .LVL67
C:\Users\stapi\AppData\Local\Temp\ccQLRcFb.s:534    .text.online_get_device_info.constprop.0:00000000000000c6 .LVL68
C:\Users\stapi\AppData\Local\Temp\ccQLRcFb.s:551    .text.online_get_device_info.constprop.0:00000000000000ee .LVL69
C:\Users\stapi\AppData\Local\Temp\ccQLRcFb.s:558    .text.online_get_device_info.constprop.0:00000000000000fa .LVL70
C:\Users\stapi\AppData\Local\Temp\ccQLRcFb.s:566    .text.online_get_device_info.constprop.0:000000000000010e .LVL71
C:\Users\stapi\AppData\Local\Temp\ccQLRcFb.s:577    .text.os_zalloc.constprop.0:0000000000000000 .LFB83
C:\Users\stapi\AppData\Local\Temp\ccQLRcFb.s:615    .text.os_zalloc.constprop.0:0000000000000030 .LFE83
C:\Users\stapi\AppData\Local\Temp\ccQLRcFb.s:587    .text.os_zalloc.constprop.0:0000000000000008 .LBB26
C:\Users\stapi\AppData\Local\Temp\ccQLRcFb.s:597    .text.os_zalloc.constprop.0:0000000000000016 .LBE26
C:\Users\stapi\AppData\Local\Temp\ccQLRcFb.s:8570   .debug_loc:0000000000000867 .LLST27
C:\Users\stapi\AppData\Local\Temp\ccQLRcFb.s:593    .text.os_zalloc.constprop.0:0000000000000014 .LVL73
C:\Users\stapi\AppData\Local\Temp\ccQLRcFb.s:605    .text.os_zalloc.constprop.0:0000000000000026 .LVL75
C:\Users\stapi\AppData\Local\Temp\ccQLRcFb.s:1549   .text.__awss_dev_bind_notify:0000000000000000 .LFB73
C:\Users\stapi\AppData\Local\Temp\ccQLRcFb.s:1861   .text.__awss_dev_bind_notify:0000000000000208 .LFE73
C:\Users\stapi\AppData\Local\Temp\ccQLRcFb.s:1597   .text.__awss_dev_bind_notify:0000000000000054 .LBB56
C:\Users\stapi\AppData\Local\Temp\ccQLRcFb.s:8579   .debug_loc:000000000000087d .LLST50
C:\Users\stapi\AppData\Local\Temp\ccQLRcFb.s:1672   .text.__awss_dev_bind_notify:00000000000000c8 .LVL191
C:\Users\stapi\AppData\Local\Temp\ccQLRcFb.s:1678   .text.__awss_dev_bind_notify:00000000000000d4 .LVL192
C:\Users\stapi\AppData\Local\Temp\ccQLRcFb.s:1686   .text.__awss_dev_bind_notify:00000000000000e6 .LVL193
C:\Users\stapi\AppData\Local\Temp\ccQLRcFb.s:1806   .text.__awss_dev_bind_notify:000000000000019c .LVL199
C:\Users\stapi\AppData\Local\Temp\ccQLRcFb.s:1834   .text.__awss_dev_bind_notify:00000000000001d4 .LVL200
C:\Users\stapi\AppData\Local\Temp\ccQLRcFb.s:1841   .text.__awss_dev_bind_notify:00000000000001e0 .LVL201
C:\Users\stapi\AppData\Local\Temp\ccQLRcFb.s:1851   .text.__awss_dev_bind_notify:00000000000001fc .LVL202
C:\Users\stapi\AppData\Local\Temp\ccQLRcFb.s:1855   .text.__awss_dev_bind_notify:0000000000000206 .LVL203
C:\Users\stapi\AppData\Local\Temp\ccQLRcFb.s:1626   .text.__awss_dev_bind_notify:0000000000000084 .LVL186
C:\Users\stapi\AppData\Local\Temp\ccQLRcFb.s:1636   .text.__awss_dev_bind_notify:0000000000000092 .LVL187
C:\Users\stapi\AppData\Local\Temp\ccQLRcFb.s:1717   .text.__awss_dev_bind_notify:0000000000000122 .LVL194
C:\Users\stapi\AppData\Local\Temp\ccQLRcFb.s:1741   .text.__awss_dev_bind_notify:000000000000014a .LVL195
C:\Users\stapi\AppData\Local\Temp\ccQLRcFb.s:1755   .text.__awss_dev_bind_notify:000000000000015c .LVL196
C:\Users\stapi\AppData\Local\Temp\ccQLRcFb.s:1759   .text.__awss_dev_bind_notify:0000000000000166 .LVL197
C:\Users\stapi\AppData\Local\Temp\ccQLRcFb.s:1768   .text.__awss_dev_bind_notify:0000000000000174 .LVL198
C:\Users\stapi\AppData\Local\Temp\ccQLRcFb.s:1582   .text.__awss_dev_bind_notify:000000000000003a .LVL183
C:\Users\stapi\AppData\Local\Temp\ccQLRcFb.s:1589   .text.__awss_dev_bind_notify:0000000000000046 .LVL184
C:\Users\stapi\AppData\Local\Temp\ccQLRcFb.s:1594   .text.__awss_dev_bind_notify:0000000000000054 .LVL185
C:\Users\stapi\AppData\Local\Temp\ccQLRcFb.s:8860   .debug_str:000000000000042a .LASF155
C:\Users\stapi\AppData\Local\Temp\ccQLRcFb.s:8948   .debug_str:0000000000000779 .LASF156
C:\Users\stapi\AppData\Local\Temp\ccQLRcFb.s:8990   .debug_str:00000000000008ca .LASF157
C:\Users\stapi\AppData\Local\Temp\ccQLRcFb.s:8890   .debug_str:00000000000004e9 .LASF158
C:\Users\stapi\AppData\Local\Temp\ccQLRcFb.s:8756   .debug_str:000000000000005d .LASF159
C:\Users\stapi\AppData\Local\Temp\ccQLRcFb.s:8844   .debug_str:00000000000003a9 .LASF160
C:\Users\stapi\AppData\Local\Temp\ccQLRcFb.s:8750   .debug_str:0000000000000028 .LASF161
C:\Users\stapi\AppData\Local\Temp\ccQLRcFb.s:8908   .debug_str:00000000000005fc .LASF162
C:\Users\stapi\AppData\Local\Temp\ccQLRcFb.s:8780   .debug_str:00000000000001a9 .LASF163
C:\Users\stapi\AppData\Local\Temp\ccQLRcFb.s:8906   .debug_str:00000000000005f0 .LASF164
C:\Users\stapi\AppData\Local\Temp\ccQLRcFb.s:8768   .debug_str:000000000000013e .LASF165
C:\Users\stapi\AppData\Local\Temp\ccQLRcFb.s:8872   .debug_str:000000000000045a .LASF166
C:\Users\stapi\AppData\Local\Temp\ccQLRcFb.s:9054   .debug_str:0000000000000abf .LASF167
C:\Users\stapi\AppData\Local\Temp\ccQLRcFb.s:9008   .debug_str:000000000000095f .LASF170
C:\Users\stapi\AppData\Local\Temp\ccQLRcFb.s:8772   .debug_str:0000000000000159 .LASF172
C:\Users\stapi\AppData\Local\Temp\ccQLRcFb.s:8920   .debug_str:0000000000000669 .LASF168
C:\Users\stapi\AppData\Local\Temp\ccQLRcFb.s:8900   .debug_str:0000000000000533 .LASF169
C:\Users\stapi\AppData\Local\Temp\ccQLRcFb.s:8826   .debug_str:000000000000032d .LASF171
C:\Users\stapi\AppData\Local\Temp\ccQLRcFb.s:8916   .debug_str:000000000000064f .LASF173
C:\Users\stapi\AppData\Local\Temp\ccQLRcFb.s:8972   .debug_str:0000000000000825 .LASF174
C:\Users\stapi\AppData\Local\Temp\ccQLRcFb.s:9062   .debug_str:0000000000000af2 .LASF175
C:\Users\stapi\AppData\Local\Temp\ccQLRcFb.s:8926   .debug_str:00000000000006aa .LASF176
C:\Users\stapi\AppData\Local\Temp\ccQLRcFb.s:8766   .debug_str:0000000000000133 .LASF177
C:\Users\stapi\AppData\Local\Temp\ccQLRcFb.s:9028   .debug_str:0000000000000a10 .LASF178
C:\Users\stapi\AppData\Local\Temp\ccQLRcFb.s:8830   .debug_str:0000000000000346 .LASF179
C:\Users\stapi\AppData\Local\Temp\ccQLRcFb.s:8870   .debug_str:0000000000000453 .LASF180
C:\Users\stapi\AppData\Local\Temp\ccQLRcFb.s:9068   .debug_str:0000000000000b16 .LASF181
C:\Users\stapi\AppData\Local\Temp\ccQLRcFb.s:9116   .debug_str:0000000000000da0 .LASF182
C:\Users\stapi\AppData\Local\Temp\ccQLRcFb.s:8742   .debug_str:0000000000000000 .LASF183
C:\Users\stapi\AppData\Local\Temp\ccQLRcFb.s:9094   .debug_str:0000000000000c0d .LASF184
C:\Users\stapi\AppData\Local\Temp\ccQLRcFb.s:8994   .debug_str:00000000000008f3 .LASF185
C:\Users\stapi\AppData\Local\Temp\ccQLRcFb.s:8942   .debug_str:000000000000073c .LASF186
C:\Users\stapi\AppData\Local\Temp\ccQLRcFb.s:9130   .debug_str:0000000000000e1b .LASF187
C:\Users\stapi\AppData\Local\Temp\ccQLRcFb.s:9118   .debug_str:0000000000000db6 .LASF188
C:\Users\stapi\AppData\Local\Temp\ccQLRcFb.s:8944   .debug_str:0000000000000753 .LASF189
C:\Users\stapi\AppData\Local\Temp\ccQLRcFb.s:9060   .debug_str:0000000000000ae3 .LASF190
C:\Users\stapi\AppData\Local\Temp\ccQLRcFb.s:9048   .debug_str:0000000000000a96 .LASF191
C:\Users\stapi\AppData\Local\Temp\ccQLRcFb.s:8770   .debug_str:000000000000014e .LASF192
C:\Users\stapi\AppData\Local\Temp\ccQLRcFb.s:2340   .text.online_ucast_get_device_info:0000000000000000 .LVL235
C:\Users\stapi\AppData\Local\Temp\ccQLRcFb.s:2344   .text.online_ucast_get_device_info:0000000000000002 .LVL236
C:\Users\stapi\AppData\Local\Temp\ccQLRcFb.s:2347   .text.online_ucast_get_device_info:0000000000000004 .LVL237
C:\Users\stapi\AppData\Local\Temp\ccQLRcFb.s:2349   .text.online_ucast_get_device_info:0000000000000006 .LVL238
C:\Users\stapi\AppData\Local\Temp\ccQLRcFb.s:2317   .text.online_mcast_get_device_info:0000000000000000 .LVL230
C:\Users\stapi\AppData\Local\Temp\ccQLRcFb.s:2321   .text.online_mcast_get_device_info:0000000000000002 .LVL231
C:\Users\stapi\AppData\Local\Temp\ccQLRcFb.s:2324   .text.online_mcast_get_device_info:0000000000000004 .LVL232
C:\Users\stapi\AppData\Local\Temp\ccQLRcFb.s:2326   .text.online_mcast_get_device_info:0000000000000006 .LVL233
C:\Users\stapi\AppData\Local\Temp\ccQLRcFb.s:664    .text.awss_process_get_devinfo:0000000000000008 .LVL76
C:\Users\stapi\AppData\Local\Temp\ccQLRcFb.s:700    .text.awss_process_get_devinfo:0000000000000052 .LVL79
C:\Users\stapi\AppData\Local\Temp\ccQLRcFb.s:723    .text.awss_process_get_devinfo:000000000000008a .LVL81
C:\Users\stapi\AppData\Local\Temp\ccQLRcFb.s:738    .text.awss_process_get_devinfo:0000000000000096 .LVL82
C:\Users\stapi\AppData\Local\Temp\ccQLRcFb.s:767    .text.awss_process_get_devinfo:00000000000000b8 .LVL86
C:\Users\stapi\AppData\Local\Temp\ccQLRcFb.s:777    .text.awss_process_get_devinfo:00000000000000ca .LVL88
C:\Users\stapi\AppData\Local\Temp\ccQLRcFb.s:784    .text.awss_process_get_devinfo:00000000000000d0 .LVL89
C:\Users\stapi\AppData\Local\Temp\ccQLRcFb.s:891    .text.awss_process_get_devinfo:00000000000001c2 .LVL104
C:\Users\stapi\AppData\Local\Temp\ccQLRcFb.s:1004   .text.awss_process_get_devinfo:00000000000002a4 .LVL121
C:\Users\stapi\AppData\Local\Temp\ccQLRcFb.s:946    .text.awss_process_get_devinfo:0000000000000234 .LVL111
C:\Users\stapi\AppData\Local\Temp\ccQLRcFb.s:1057   .text.awss_process_get_devinfo:00000000000002f8 .LVL129
C:\Users\stapi\AppData\Local\Temp\ccQLRcFb.s:753    .text.awss_process_get_devinfo:00000000000000a0 .LVL83
C:\Users\stapi\AppData\Local\Temp\ccQLRcFb.s:996    .text.awss_process_get_devinfo:000000000000029e .LVL119
C:\Users\stapi\AppData\Local\Temp\ccQLRcFb.s:806    .text.awss_process_get_devinfo:00000000000000fa .LVL92
C:\Users\stapi\AppData\Local\Temp\ccQLRcFb.s:813    .text.awss_process_get_devinfo:0000000000000100 .LVL93
C:\Users\stapi\AppData\Local\Temp\ccQLRcFb.s:1000   .text.awss_process_get_devinfo:00000000000002a2 .LVL120
C:\Users\stapi\AppData\Local\Temp\ccQLRcFb.s:1064   .text.awss_process_get_devinfo:00000000000002fa .LVL130
C:\Users\stapi\AppData\Local\Temp\ccQLRcFb.s:1034   .text.awss_process_get_devinfo:00000000000002de .LVL125
C:\Users\stapi\AppData\Local\Temp\ccQLRcFb.s:1048   .text.awss_process_get_devinfo:00000000000002ec .LVL127
C:\Users\stapi\AppData\Local\Temp\ccQLRcFb.s:1110   .text.awss_notify_dev_info:0000000000000000 .LVL131
C:\Users\stapi\AppData\Local\Temp\ccQLRcFb.s:1144   .text.awss_notify_dev_info:0000000000000014 .LVL134
C:\Users\stapi\AppData\Local\Temp\ccQLRcFb.s:1243   .text.awss_notify_dev_info:000000000000009a .LVL146
C:\Users\stapi\AppData\Local\Temp\ccQLRcFb.s:1264   .text.awss_notify_dev_info:00000000000000a8 .LVL147
C:\Users\stapi\AppData\Local\Temp\ccQLRcFb.s:1142   .text.awss_notify_dev_info:0000000000000012 .LVL133
C:\Users\stapi\AppData\Local\Temp\ccQLRcFb.s:1127   .text.awss_notify_dev_info:0000000000000008 .LVL132
C:\Users\stapi\AppData\Local\Temp\ccQLRcFb.s:1276   .text.awss_notify_dev_info:00000000000000b6 .LVL149
C:\Users\stapi\AppData\Local\Temp\ccQLRcFb.s:1282   .text.awss_notify_dev_info:00000000000000c0 .LVL151
C:\Users\stapi\AppData\Local\Temp\ccQLRcFb.s:1292   .text.awss_notify_dev_info:00000000000000c8 .LVL152
C:\Users\stapi\AppData\Local\Temp\ccQLRcFb.s:1337   .text.awss_notify_dev_info:000000000000010c .LVL160
C:\Users\stapi\AppData\Local\Temp\ccQLRcFb.s:1348   .text.awss_notify_dev_info:0000000000000118 .LVL161
C:\Users\stapi\AppData\Local\Temp\ccQLRcFb.s:1176   .text.awss_notify_dev_info:000000000000003e .LVL137
C:\Users\stapi\AppData\Local\Temp\ccQLRcFb.s:1187   .text.awss_notify_dev_info:0000000000000046 .LVL138
C:\Users\stapi\AppData\Local\Temp\ccQLRcFb.s:1195   .text.awss_notify_dev_info:000000000000004e .LVL139
C:\Users\stapi\AppData\Local\Temp\ccQLRcFb.s:1465   .text.awss_notify_dev_info:0000000000000224 .LVL172
C:\Users\stapi\AppData\Local\Temp\ccQLRcFb.s:1155   .text.awss_notify_dev_info:0000000000000020 .LVL135
C:\Users\stapi\AppData\Local\Temp\ccQLRcFb.s:1208   .text.awss_notify_dev_info:0000000000000064 .LVL141
C:\Users\stapi\AppData\Local\Temp\ccQLRcFb.s:1204   .text.awss_notify_dev_info:0000000000000060 .LVL140
C:\Users\stapi\AppData\Local\Temp\ccQLRcFb.s:1216   .text.awss_notify_dev_info:000000000000006c .LVL142
C:\Users\stapi\AppData\Local\Temp\ccQLRcFb.s:1312   .text.awss_notify_dev_info:00000000000000f2 .LVL156
C:\Users\stapi\AppData\Local\Temp\ccQLRcFb.s:1451   .text.awss_notify_dev_info:0000000000000218 .LVL171
C:\Users\stapi\AppData\Local\Temp\ccQLRcFb.s:1489   .text.awss_notify_dev_info:0000000000000248 .LVL175
C:\Users\stapi\AppData\Local\Temp\ccQLRcFb.s:1493   .text.awss_notify_dev_info:000000000000024c .LVL176
C:\Users\stapi\AppData\Local\Temp\ccQLRcFb.s:1516   .text.awss_notify_dev_info:000000000000027c .LVL180
C:\Users\stapi\AppData\Local\Temp\ccQLRcFb.s:1328   .text.awss_notify_dev_info:0000000000000100 .LVL158
C:\Users\stapi\AppData\Local\Temp\ccQLRcFb.s:51     .text.awss_notify_response:0000000000000000 .LVL0
C:\Users\stapi\AppData\Local\Temp\ccQLRcFb.s:86     .text.awss_notify_response:000000000000003a .LVL4
C:\Users\stapi\AppData\Local\Temp\ccQLRcFb.s:84     .text.awss_notify_response:0000000000000036 .LVL3
C:\Users\stapi\AppData\Local\Temp\ccQLRcFb.s:82     .text.awss_notify_response:0000000000000032 .LVL2
C:\Users\stapi\AppData\Local\Temp\ccQLRcFb.s:92     .text.awss_notify_response:0000000000000044 .LVL6
C:\Users\stapi\AppData\Local\Temp\ccQLRcFb.s:98     .text.awss_notify_response:000000000000004a .LVL7
C:\Users\stapi\AppData\Local\Temp\ccQLRcFb.s:133    .text.awss_notify_response:0000000000000072 .LVL13
C:\Users\stapi\AppData\Local\Temp\ccQLRcFb.s:61     .text.awss_notify_response:0000000000000008 .LVL1
C:\Users\stapi\AppData\Local\Temp\ccQLRcFb.s:275    .text.awss_notify_response:000000000000018e .LVL35
C:\Users\stapi\AppData\Local\Temp\ccQLRcFb.s:120    .text.awss_notify_response:0000000000000062 .LVL10
C:\Users\stapi\AppData\Local\Temp\ccQLRcFb.s:116    .text.awss_notify_response:0000000000000060 .LVL9
C:\Users\stapi\AppData\Local\Temp\ccQLRcFb.s:154    .text.awss_notify_response:000000000000009a .LVL15
C:\Users\stapi\AppData\Local\Temp\ccQLRcFb.s:161    .text.awss_notify_response:00000000000000a4 .LVL17
C:\Users\stapi\AppData\Local\Temp\ccQLRcFb.s:196    .text.awss_notify_response:00000000000000f6 .LVL22
C:\Users\stapi\AppData\Local\Temp\ccQLRcFb.s:211    .text.awss_notify_response:0000000000000110 .LVL25
C:\Users\stapi\AppData\Local\Temp\ccQLRcFb.s:235    .text.awss_notify_response:000000000000013c .LVL27
C:\Users\stapi\AppData\Local\Temp\ccQLRcFb.s:266    .text.awss_notify_response:0000000000000176 .LVL33
C:\Users\stapi\AppData\Local\Temp\ccQLRcFb.s:287    .text.awss_notify_response:000000000000019a .LVL36
C:\Users\stapi\AppData\Local\Temp\ccQLRcFb.s:127    .text.awss_notify_response:0000000000000068 .LVL11
C:\Users\stapi\AppData\Local\Temp\ccQLRcFb.s:294    .text.awss_notify_response:00000000000001a2 .LVL37
C:\Users\stapi\AppData\Local\Temp\ccQLRcFb.s:189    .text.awss_notify_response:00000000000000e2 .LVL20
C:\Users\stapi\AppData\Local\Temp\ccQLRcFb.s:244    .text.awss_notify_response:000000000000014a .LVL29
C:\Users\stapi\AppData\Local\Temp\ccQLRcFb.s:252    .text.awss_notify_response:0000000000000160 .LVL31
C:\Users\stapi\AppData\Local\Temp\ccQLRcFb.s:317    .text.awss_suc_notify_resp:0000000000000000 .LVL38
C:\Users\stapi\AppData\Local\Temp\ccQLRcFb.s:323    .text.awss_suc_notify_resp:0000000000000004 .LVL40
C:\Users\stapi\AppData\Local\Temp\ccQLRcFb.s:321    .text.awss_suc_notify_resp:0000000000000002 .LVL39
C:\Users\stapi\AppData\Local\Temp\ccQLRcFb.s:336    .text.awss_devinfo_notify_resp:0000000000000000 .LVL42
C:\Users\stapi\AppData\Local\Temp\ccQLRcFb.s:342    .text.awss_devinfo_notify_resp:0000000000000004 .LVL44
C:\Users\stapi\AppData\Local\Temp\ccQLRcFb.s:340    .text.awss_devinfo_notify_resp:0000000000000002 .LVL43
C:\Users\stapi\AppData\Local\Temp\ccQLRcFb.s:355    .text.awss_dev_bind_notify_resp:0000000000000000 .LVL46
C:\Users\stapi\AppData\Local\Temp\ccQLRcFb.s:365    .text.awss_dev_bind_notify_resp:000000000000000c .LVL48
C:\Users\stapi\AppData\Local\Temp\ccQLRcFb.s:363    .text.awss_dev_bind_notify_resp:000000000000000a .LVL47
C:\Users\stapi\AppData\Local\Temp\ccQLRcFb.s:413    .text.online_get_device_info.constprop.0:0000000000000000 .LVL52
C:\Users\stapi\AppData\Local\Temp\ccQLRcFb.s:440    .text.online_get_device_info.constprop.0:000000000000001e .LVL56
C:\Users\stapi\AppData\Local\Temp\ccQLRcFb.s:438    .text.online_get_device_info.constprop.0:000000000000001c .LVL55
C:\Users\stapi\AppData\Local\Temp\ccQLRcFb.s:431    .text.online_get_device_info.constprop.0:0000000000000010 .LVL54
C:\Users\stapi\AppData\Local\Temp\ccQLRcFb.s:423    .text.online_get_device_info.constprop.0:0000000000000008 .LVL53
C:\Users\stapi\AppData\Local\Temp\ccQLRcFb.s:460    .text.online_get_device_info.constprop.0:000000000000004c .LVL60
C:\Users\stapi\AppData\Local\Temp\ccQLRcFb.s:474    .text.online_get_device_info.constprop.0:0000000000000056 .LVL61
C:\Users\stapi\AppData\Local\Temp\ccQLRcFb.s:521    .text.online_get_device_info.constprop.0:00000000000000aa .LVL65
C:\Users\stapi\AppData\Local\Temp\ccQLRcFb.s:527    .text.online_get_device_info.constprop.0:00000000000000b0 .LVL66
C:\Users\stapi\AppData\Local\Temp\ccQLRcFb.s:585    .text.os_zalloc.constprop.0:0000000000000008 .LVL72
C:\Users\stapi\AppData\Local\Temp\ccQLRcFb.s:595    .text.os_zalloc.constprop.0:0000000000000016 .LVL74
C:\Users\stapi\AppData\Local\Temp\ccQLRcFb.s:1652   .text.__awss_dev_bind_notify:00000000000000aa .LVL188
C:\Users\stapi\AppData\Local\Temp\ccQLRcFb.s:1661   .text.__awss_dev_bind_notify:00000000000000b4 .LVL189
C:\Users\stapi\AppData\Local\Temp\ccQLRcFb.s:1665   .text.__awss_dev_bind_notify:00000000000000b6 .LVL190
C:\Users\stapi\AppData\Local\Temp\ccQLRcFb.s:2897   .debug_info:0000000000000000 .Ldebug_info0
C:\Users\stapi\AppData\Local\Temp\ccQLRcFb.s:94     .text.awss_notify_response:0000000000000044 .LBB24
C:\Users\stapi\AppData\Local\Temp\ccQLRcFb.s:100    .text.awss_notify_response:000000000000004a .LBE24
C:\Users\stapi\AppData\Local\Temp\ccQLRcFb.s:114    .text.awss_notify_response:0000000000000060 .LBB25
C:\Users\stapi\AppData\Local\Temp\ccQLRcFb.s:277    .text.awss_notify_response:000000000000018e .LBE25
C:\Users\stapi\AppData\Local\Temp\ccQLRcFb.s:742    .text.awss_process_get_devinfo:0000000000000096 .LBB28
C:\Users\stapi\AppData\Local\Temp\ccQLRcFb.s:1001   .text.awss_process_get_devinfo:00000000000002a2 .LBE28
C:\Users\stapi\AppData\Local\Temp\ccQLRcFb.s:1061   .text.awss_process_get_devinfo:00000000000002f8 .LBB37
C:\Users\stapi\AppData\Local\Temp\ccQLRcFb.s:1067   .text.awss_process_get_devinfo:0000000000000300 .LBE37
C:\Users\stapi\AppData\Local\Temp\ccQLRcFb.s:1138   .text.awss_notify_dev_info:000000000000000e .LBB38
C:\Users\stapi\AppData\Local\Temp\ccQLRcFb.s:1145   .text.awss_notify_dev_info:0000000000000014 .LBE38
C:\Users\stapi\AppData\Local\Temp\ccQLRcFb.s:1153   .text.awss_notify_dev_info:0000000000000020 .LBB46
C:\Users\stapi\AppData\Local\Temp\ccQLRcFb.s:1235   .text.awss_notify_dev_info:0000000000000098 .LBE46
C:\Users\stapi\AppData\Local\Temp\ccQLRcFb.s:1267   .text.awss_notify_dev_info:00000000000000a8 .LBB47
C:\Users\stapi\AppData\Local\Temp\ccQLRcFb.s:1307   .text.awss_notify_dev_info:00000000000000f0 .LBE47
C:\Users\stapi\AppData\Local\Temp\ccQLRcFb.s:1341   .text.awss_notify_dev_info:000000000000010c .LBB52
C:\Users\stapi\AppData\Local\Temp\ccQLRcFb.s:1537   .text.awss_notify_dev_info:0000000000000298 .LBE52
C:\Users\stapi\AppData\Local\Temp\ccQLRcFb.s:1436   .text.awss_notify_dev_info:00000000000001f6 .LBB39
C:\Users\stapi\AppData\Local\Temp\ccQLRcFb.s:1448   .text.awss_notify_dev_info:0000000000000216 .LBE39
C:\Users\stapi\AppData\Local\Temp\ccQLRcFb.s:1452   .text.awss_notify_dev_info:0000000000000218 .LBB44
C:\Users\stapi\AppData\Local\Temp\ccQLRcFb.s:1467   .text.awss_notify_dev_info:0000000000000224 .LBE44
C:\Users\stapi\AppData\Local\Temp\ccQLRcFb.s:1471   .text.awss_notify_dev_info:0000000000000228 .LBB45
C:\Users\stapi\AppData\Local\Temp\ccQLRcFb.s:1531   .text.awss_notify_dev_info:0000000000000294 .LBE45
C:\Users\stapi\AppData\Local\Temp\ccQLRcFb.s:1462   .text.awss_notify_dev_info:0000000000000220 .LBE40
C:\Users\stapi\AppData\Local\Temp\ccQLRcFb.s:1517   .text.awss_notify_dev_info:000000000000027c .LBB43
C:\Users\stapi\AppData\Local\Temp\ccQLRcFb.s:1526   .text.awss_notify_dev_info:000000000000028c .LBE43
C:\Users\stapi\AppData\Local\Temp\ccQLRcFb.s:1778   .text.__awss_dev_bind_notify:000000000000017e .LBE56
C:\Users\stapi\AppData\Local\Temp\ccQLRcFb.s:1793   .text.__awss_dev_bind_notify:0000000000000188 .LBB63
C:\Users\stapi\AppData\Local\Temp\ccQLRcFb.s:1859   .text.__awss_dev_bind_notify:0000000000000208 .LBE63
C:\Users\stapi\AppData\Local\Temp\ccQLRcFb.s:1599   .text.__awss_dev_bind_notify:0000000000000054 .LBB58
C:\Users\stapi\AppData\Local\Temp\ccQLRcFb.s:1605   .text.__awss_dev_bind_notify:0000000000000058 .LBE58
C:\Users\stapi\AppData\Local\Temp\ccQLRcFb.s:1630   .text.__awss_dev_bind_notify:0000000000000086 .LBB59
C:\Users\stapi\AppData\Local\Temp\ccQLRcFb.s:1633   .text.__awss_dev_bind_notify:000000000000008a .LBE59
C:\Users\stapi\AppData\Local\Temp\ccQLRcFb.s:1638   .text.__awss_dev_bind_notify:0000000000000092 .LBB60
C:\Users\stapi\AppData\Local\Temp\ccQLRcFb.s:1710   .text.__awss_dev_bind_notify:000000000000010e .LBE60
C:\Users\stapi\AppData\Local\Temp\ccQLRcFb.s:1795   .text.__awss_dev_bind_notify:0000000000000188 .LBB61
C:\Users\stapi\AppData\Local\Temp\ccQLRcFb.s:1857   .text.__awss_dev_bind_notify:0000000000000208 .LBE61

UNDEFINED SYMBOLS
__riscv_save_5
LITE_syslog
awss_cmp_get_coap_code
awss_cmp_get_coap_payload
HAL_Printf
json_get_value_by_name
atoi
__riscv_restore_5
__riscv_save_1
awss_update_token
__riscv_restore_1
__riscv_save_6
iotx_state_event
awss_check_reset
__riscv_restore_6
awss_cpy_coap_ctx
awss_token_timeout
g_aes_random
produce_random
awss_report_token
HAL_Timer_Create
HAL_Timer_Stop
HAL_Timer_Start
HAL_Malloc
memset
awss_report_token_suc
memcpy
awss_build_dev_info
snprintf
HAL_Free
LITE_hexbuf_convert
awss_build_topic
strlen
awss_cmp_coap_send_resp
awss_release_coap_ctx
awss_stop_timer
__riscv_save_12
__riscv_restore_12
awss_cmp_coap_send
HAL_SleepMs
awss_event_post
HAL_MutexLock
awss_cmp_coap_cancel_packet
HAL_MutexUnlock
HAL_MutexDestroy
HAL_MutexCreate
__riscv_save_2
__riscv_restore_2
