   1              		.file	"awss_report.c"
   2              		.option nopic
   3              		.attribute arch, "rv32i2p0_m2p0_a2p0_f2p0_c2p0_b_p0p94"
   4              		.attribute unaligned_access, 0
   5              		.attribute stack_align, 16
   6              		.text
   7              	.Ltext0:
   8              		.cfi_sections	.debug_frame
   9              		.section	.text.os_get_time_ms,"ax",@progbits
  10              		.align	1
  12              	os_get_time_ms:
  13              	.LFB20:
  14              		.file 1 "..\\..\\..\\..\\cloud\\alicloud\\src\\services\\dev_bind\\os/os.h"
   1:..\..\..\..\cloud\alicloud\src\services\dev_bind\os/os.h **** /*
   2:..\..\..\..\cloud\alicloud\src\services\dev_bind\os/os.h ****  * Copyright (C) 2015-2018 Alibaba Group Holding Limited
   3:..\..\..\..\cloud\alicloud\src\services\dev_bind\os/os.h ****  */
   4:..\..\..\..\cloud\alicloud\src\services\dev_bind\os/os.h **** 
   5:..\..\..\..\cloud\alicloud\src\services\dev_bind\os/os.h **** #ifndef __AWSS_OS_H__
   6:..\..\..\..\cloud\alicloud\src\services\dev_bind\os/os.h **** #define __AWSS_OS_H__
   7:..\..\..\..\cloud\alicloud\src\services\dev_bind\os/os.h **** 
   8:..\..\..\..\cloud\alicloud\src\services\dev_bind\os/os.h **** #ifdef __cplusplus
   9:..\..\..\..\cloud\alicloud\src\services\dev_bind\os/os.h **** extern "C" {
  10:..\..\..\..\cloud\alicloud\src\services\dev_bind\os/os.h **** #endif
  11:..\..\..\..\cloud\alicloud\src\services\dev_bind\os/os.h **** #include <ctype.h>
  12:..\..\..\..\cloud\alicloud\src\services\dev_bind\os/os.h **** #include "iot_import.h"
  13:..\..\..\..\cloud\alicloud\src\services\dev_bind\os/os.h **** #include "iot_export.h"
  14:..\..\..\..\cloud\alicloud\src\services\dev_bind\os/os.h **** #include "product/product.h"
  15:..\..\..\..\cloud\alicloud\src\services\dev_bind\os/os.h **** #include "platform.h"
  16:..\..\..\..\cloud\alicloud\src\services\dev_bind\os/os.h **** 
  17:..\..\..\..\cloud\alicloud\src\services\dev_bind\os/os.h **** /** @defgroup group_os os
  18:..\..\..\..\cloud\alicloud\src\services\dev_bind\os/os.h ****  *  @{
  19:..\..\..\..\cloud\alicloud\src\services\dev_bind\os/os.h ****  */
  20:..\..\..\..\cloud\alicloud\src\services\dev_bind\os/os.h **** 
  21:..\..\..\..\cloud\alicloud\src\services\dev_bind\os/os.h **** #define OS_MAX_SSID_LEN         PLATFORM_MAX_SSID_LEN
  22:..\..\..\..\cloud\alicloud\src\services\dev_bind\os/os.h **** #define OS_MAX_PASSWD_LEN       PLATFORM_MAX_PASSWD_LEN
  23:..\..\..\..\cloud\alicloud\src\services\dev_bind\os/os.h **** 
  24:..\..\..\..\cloud\alicloud\src\services\dev_bind\os/os.h **** #define OS_MAC_LEN              PLATFORM_MAC_LEN
  25:..\..\..\..\cloud\alicloud\src\services\dev_bind\os/os.h **** #define OS_IP_LEN               PLATFORM_IP_LEN
  26:..\..\..\..\cloud\alicloud\src\services\dev_bind\os/os.h **** #define OS_ETH_ALEN             ETH_ALEN
  27:..\..\..\..\cloud\alicloud\src\services\dev_bind\os/os.h **** 
  28:..\..\..\..\cloud\alicloud\src\services\dev_bind\os/os.h **** #define OS_PRODUCT_KEY_LEN      PRODUCT_KEY_LEN
  29:..\..\..\..\cloud\alicloud\src\services\dev_bind\os/os.h **** #define OS_PRODUCT_SECRET_LEN   PRODUCT_SECRET_LEN
  30:..\..\..\..\cloud\alicloud\src\services\dev_bind\os/os.h **** #define OS_DEVICE_NAME_LEN      DEVICE_NAME_LEN
  31:..\..\..\..\cloud\alicloud\src\services\dev_bind\os/os.h **** #define OS_DEVICE_SECRET_LEN    DEVICE_SECRET_LEN
  32:..\..\..\..\cloud\alicloud\src\services\dev_bind\os/os.h **** 
  33:..\..\..\..\cloud\alicloud\src\services\dev_bind\os/os.h **** /***************************************** Misc Interface *****************************************
  34:..\..\..\..\cloud\alicloud\src\services\dev_bind\os/os.h **** 
  35:..\..\..\..\cloud\alicloud\src\services\dev_bind\os/os.h **** /** @defgroup group_misc misc
  36:..\..\..\..\cloud\alicloud\src\services\dev_bind\os/os.h ****  *  @{
  37:..\..\..\..\cloud\alicloud\src\services\dev_bind\os/os.h ****  */
  38:..\..\..\..\cloud\alicloud\src\services\dev_bind\os/os.h **** /**
  39:..\..\..\..\cloud\alicloud\src\services\dev_bind\os/os.h ****  * @brief .
  40:..\..\..\..\cloud\alicloud\src\services\dev_bind\os/os.h ****  *
  41:..\..\..\..\cloud\alicloud\src\services\dev_bind\os/os.h ****  * @param None.
  42:..\..\..\..\cloud\alicloud\src\services\dev_bind\os/os.h ****  * @return
  43:..\..\..\..\cloud\alicloud\src\services\dev_bind\os/os.h ****  * @verbatim
  44:..\..\..\..\cloud\alicloud\src\services\dev_bind\os/os.h ****  * = 0, This platform is little endian.
  45:..\..\..\..\cloud\alicloud\src\services\dev_bind\os/os.h ****  * = 1, This platform is big endian.
  46:..\..\..\..\cloud\alicloud\src\services\dev_bind\os/os.h ****  * @endverbatim
  47:..\..\..\..\cloud\alicloud\src\services\dev_bind\os/os.h ****  * @see None.
  48:..\..\..\..\cloud\alicloud\src\services\dev_bind\os/os.h ****  * @note None.
  49:..\..\..\..\cloud\alicloud\src\services\dev_bind\os/os.h ****  */
  50:..\..\..\..\cloud\alicloud\src\services\dev_bind\os/os.h **** static inline int os_is_big_endian(void)
  51:..\..\..\..\cloud\alicloud\src\services\dev_bind\os/os.h **** {
  52:..\..\..\..\cloud\alicloud\src\services\dev_bind\os/os.h ****     uint32_t data = 0xFF000000;
  53:..\..\..\..\cloud\alicloud\src\services\dev_bind\os/os.h **** 
  54:..\..\..\..\cloud\alicloud\src\services\dev_bind\os/os.h ****     if (0xFF == *(uint8_t *) & data) {
  55:..\..\..\..\cloud\alicloud\src\services\dev_bind\os/os.h ****         return 1;                                    //big endian
  56:..\..\..\..\cloud\alicloud\src\services\dev_bind\os/os.h ****     }
  57:..\..\..\..\cloud\alicloud\src\services\dev_bind\os/os.h **** 
  58:..\..\..\..\cloud\alicloud\src\services\dev_bind\os/os.h ****     return 0;                                        //little endian
  59:..\..\..\..\cloud\alicloud\src\services\dev_bind\os/os.h **** }
  60:..\..\..\..\cloud\alicloud\src\services\dev_bind\os/os.h **** 
  61:..\..\..\..\cloud\alicloud\src\services\dev_bind\os/os.h **** /**
  62:..\..\..\..\cloud\alicloud\src\services\dev_bind\os/os.h ****  * @brief Convert the data from byte order of current CPU(the "host") to big-endian.
  63:..\..\..\..\cloud\alicloud\src\services\dev_bind\os/os.h ****    The size of the data is 16 bits.
  64:..\..\..\..\cloud\alicloud\src\services\dev_bind\os/os.h ****  *
  65:..\..\..\..\cloud\alicloud\src\services\dev_bind\os/os.h ****  * @param[in] data @n Data to be converted.
  66:..\..\..\..\cloud\alicloud\src\services\dev_bind\os/os.h ****  * @return Conversion result.
  67:..\..\..\..\cloud\alicloud\src\services\dev_bind\os/os.h ****  * @see None.
  68:..\..\..\..\cloud\alicloud\src\services\dev_bind\os/os.h ****  * @note None.
  69:..\..\..\..\cloud\alicloud\src\services\dev_bind\os/os.h ****  */
  70:..\..\..\..\cloud\alicloud\src\services\dev_bind\os/os.h **** uint16_t os_htobe16(uint16_t data);
  71:..\..\..\..\cloud\alicloud\src\services\dev_bind\os/os.h **** 
  72:..\..\..\..\cloud\alicloud\src\services\dev_bind\os/os.h **** /**
  73:..\..\..\..\cloud\alicloud\src\services\dev_bind\os/os.h ****  * @brief Convert the data from host to little-endian.
  74:..\..\..\..\cloud\alicloud\src\services\dev_bind\os/os.h ****    The size of the data is 16 bits.
  75:..\..\..\..\cloud\alicloud\src\services\dev_bind\os/os.h ****  *
  76:..\..\..\..\cloud\alicloud\src\services\dev_bind\os/os.h ****  * @param[in] data @n Data to be converted.
  77:..\..\..\..\cloud\alicloud\src\services\dev_bind\os/os.h ****  * @return Conversion result.
  78:..\..\..\..\cloud\alicloud\src\services\dev_bind\os/os.h ****  * @see None.
  79:..\..\..\..\cloud\alicloud\src\services\dev_bind\os/os.h ****  * @note None.
  80:..\..\..\..\cloud\alicloud\src\services\dev_bind\os/os.h ****  */
  81:..\..\..\..\cloud\alicloud\src\services\dev_bind\os/os.h **** uint16_t os_htole16(uint16_t data);
  82:..\..\..\..\cloud\alicloud\src\services\dev_bind\os/os.h **** 
  83:..\..\..\..\cloud\alicloud\src\services\dev_bind\os/os.h **** /**
  84:..\..\..\..\cloud\alicloud\src\services\dev_bind\os/os.h ****  * @brief Convert the data from big-endian to host.
  85:..\..\..\..\cloud\alicloud\src\services\dev_bind\os/os.h ****    The size of the data is 16 bits.
  86:..\..\..\..\cloud\alicloud\src\services\dev_bind\os/os.h ****  *
  87:..\..\..\..\cloud\alicloud\src\services\dev_bind\os/os.h ****  * @param[in] data @n Data to be converted.
  88:..\..\..\..\cloud\alicloud\src\services\dev_bind\os/os.h ****  * @return Conversion result.
  89:..\..\..\..\cloud\alicloud\src\services\dev_bind\os/os.h ****  * @see None.
  90:..\..\..\..\cloud\alicloud\src\services\dev_bind\os/os.h ****  * @note None.
  91:..\..\..\..\cloud\alicloud\src\services\dev_bind\os/os.h ****  */
  92:..\..\..\..\cloud\alicloud\src\services\dev_bind\os/os.h **** uint16_t os_be16toh(uint16_t data);
  93:..\..\..\..\cloud\alicloud\src\services\dev_bind\os/os.h **** 
  94:..\..\..\..\cloud\alicloud\src\services\dev_bind\os/os.h **** /**
  95:..\..\..\..\cloud\alicloud\src\services\dev_bind\os/os.h ****  * @brief Convert the data from little-endian to host.
  96:..\..\..\..\cloud\alicloud\src\services\dev_bind\os/os.h ****    The size of the data is 16 bits.
  97:..\..\..\..\cloud\alicloud\src\services\dev_bind\os/os.h ****  *
  98:..\..\..\..\cloud\alicloud\src\services\dev_bind\os/os.h ****  * @param[in] data @n Data to be converted.
  99:..\..\..\..\cloud\alicloud\src\services\dev_bind\os/os.h ****  * @return Conversion result.
 100:..\..\..\..\cloud\alicloud\src\services\dev_bind\os/os.h ****  * @see None.
 101:..\..\..\..\cloud\alicloud\src\services\dev_bind\os/os.h ****  * @note None.
 102:..\..\..\..\cloud\alicloud\src\services\dev_bind\os/os.h ****  */
 103:..\..\..\..\cloud\alicloud\src\services\dev_bind\os/os.h **** uint16_t os_le16toh(uint16_t data);
 104:..\..\..\..\cloud\alicloud\src\services\dev_bind\os/os.h **** 
 105:..\..\..\..\cloud\alicloud\src\services\dev_bind\os/os.h **** /**
 106:..\..\..\..\cloud\alicloud\src\services\dev_bind\os/os.h ****  * @brief Convert the data from little-endian to host.
 107:..\..\..\..\cloud\alicloud\src\services\dev_bind\os/os.h ****    The size of the data is 32 bits.
 108:..\..\..\..\cloud\alicloud\src\services\dev_bind\os/os.h ****  *
 109:..\..\..\..\cloud\alicloud\src\services\dev_bind\os/os.h ****  * @param[in] data @n Data to be converted.
 110:..\..\..\..\cloud\alicloud\src\services\dev_bind\os/os.h ****  * @return Conversion result.
 111:..\..\..\..\cloud\alicloud\src\services\dev_bind\os/os.h ****  * @see None.
 112:..\..\..\..\cloud\alicloud\src\services\dev_bind\os/os.h ****  * @note None.
 113:..\..\..\..\cloud\alicloud\src\services\dev_bind\os/os.h ****  */
 114:..\..\..\..\cloud\alicloud\src\services\dev_bind\os/os.h **** uint32_t os_le32toh(uint32_t data);
 115:..\..\..\..\cloud\alicloud\src\services\dev_bind\os/os.h **** 
 116:..\..\..\..\cloud\alicloud\src\services\dev_bind\os/os.h **** /**
 117:..\..\..\..\cloud\alicloud\src\services\dev_bind\os/os.h ****  * @brief Convert the data from host to big-endian.
 118:..\..\..\..\cloud\alicloud\src\services\dev_bind\os/os.h ****    The size of the data is 64 bits.
 119:..\..\..\..\cloud\alicloud\src\services\dev_bind\os/os.h ****  *
 120:..\..\..\..\cloud\alicloud\src\services\dev_bind\os/os.h ****  * @param[in] data @n Data to be converted.
 121:..\..\..\..\cloud\alicloud\src\services\dev_bind\os/os.h ****  * @return Conversion result.
 122:..\..\..\..\cloud\alicloud\src\services\dev_bind\os/os.h ****  * @see None.
 123:..\..\..\..\cloud\alicloud\src\services\dev_bind\os/os.h ****  * @note None.
 124:..\..\..\..\cloud\alicloud\src\services\dev_bind\os/os.h ****  */
 125:..\..\..\..\cloud\alicloud\src\services\dev_bind\os/os.h **** //uint64_t os_htobe64(uint64_t data);
 126:..\..\..\..\cloud\alicloud\src\services\dev_bind\os/os.h **** 
 127:..\..\..\..\cloud\alicloud\src\services\dev_bind\os/os.h **** /**
 128:..\..\..\..\cloud\alicloud\src\services\dev_bind\os/os.h ****  * @brief Convert the data from host to little-endian.
 129:..\..\..\..\cloud\alicloud\src\services\dev_bind\os/os.h ****    The size of the data is 64 bits.
 130:..\..\..\..\cloud\alicloud\src\services\dev_bind\os/os.h ****  *
 131:..\..\..\..\cloud\alicloud\src\services\dev_bind\os/os.h ****  * @param[in] data @n Data to be converted.
 132:..\..\..\..\cloud\alicloud\src\services\dev_bind\os/os.h ****  * @return Conversion result.
 133:..\..\..\..\cloud\alicloud\src\services\dev_bind\os/os.h ****  * @see None.
 134:..\..\..\..\cloud\alicloud\src\services\dev_bind\os/os.h ****  * @note None.
 135:..\..\..\..\cloud\alicloud\src\services\dev_bind\os/os.h ****  */
 136:..\..\..\..\cloud\alicloud\src\services\dev_bind\os/os.h **** //uint64_t os_htole64(uint64_t data);
 137:..\..\..\..\cloud\alicloud\src\services\dev_bind\os/os.h **** 
 138:..\..\..\..\cloud\alicloud\src\services\dev_bind\os/os.h **** /**
 139:..\..\..\..\cloud\alicloud\src\services\dev_bind\os/os.h ****  * @brief Convert the data from big-endian to host.
 140:..\..\..\..\cloud\alicloud\src\services\dev_bind\os/os.h ****    The size of the data is 64 bits.
 141:..\..\..\..\cloud\alicloud\src\services\dev_bind\os/os.h ****  *
 142:..\..\..\..\cloud\alicloud\src\services\dev_bind\os/os.h ****  * @param[in] data @n Data to be converted.
 143:..\..\..\..\cloud\alicloud\src\services\dev_bind\os/os.h ****  * @return Conversion result.
 144:..\..\..\..\cloud\alicloud\src\services\dev_bind\os/os.h ****  * @see None.
 145:..\..\..\..\cloud\alicloud\src\services\dev_bind\os/os.h ****  * @note None.
 146:..\..\..\..\cloud\alicloud\src\services\dev_bind\os/os.h ****  */
 147:..\..\..\..\cloud\alicloud\src\services\dev_bind\os/os.h **** //uint64_t os_be64toh(uint64_t data);
 148:..\..\..\..\cloud\alicloud\src\services\dev_bind\os/os.h **** 
 149:..\..\..\..\cloud\alicloud\src\services\dev_bind\os/os.h **** /**
 150:..\..\..\..\cloud\alicloud\src\services\dev_bind\os/os.h ****  * @brief Convert the data from little-endian to host.
 151:..\..\..\..\cloud\alicloud\src\services\dev_bind\os/os.h ****    The size of the data is 64 bits.
 152:..\..\..\..\cloud\alicloud\src\services\dev_bind\os/os.h ****  *
 153:..\..\..\..\cloud\alicloud\src\services\dev_bind\os/os.h ****  * @param[in] data @n Data to be converted.
 154:..\..\..\..\cloud\alicloud\src\services\dev_bind\os/os.h ****  * @return Conversion result.
 155:..\..\..\..\cloud\alicloud\src\services\dev_bind\os/os.h ****  * @see None.
 156:..\..\..\..\cloud\alicloud\src\services\dev_bind\os/os.h ****  * @note None.
 157:..\..\..\..\cloud\alicloud\src\services\dev_bind\os/os.h ****  */
 158:..\..\..\..\cloud\alicloud\src\services\dev_bind\os/os.h **** //uint64_t os_le64toh(uint64_t data);
 159:..\..\..\..\cloud\alicloud\src\services\dev_bind\os/os.h **** 
 160:..\..\..\..\cloud\alicloud\src\services\dev_bind\os/os.h **** /**
 161:..\..\..\..\cloud\alicloud\src\services\dev_bind\os/os.h ****  * @brief Get unaligned 16 bits data which is big-endian and convert to host byte order.
 162:..\..\..\..\cloud\alicloud\src\services\dev_bind\os/os.h ****  *
 163:..\..\..\..\cloud\alicloud\src\services\dev_bind\os/os.h ****  * @param[in] ptr @n The start address of the unaligned data.
 164:..\..\..\..\cloud\alicloud\src\services\dev_bind\os/os.h ****  * @return Result in host byte order.
 165:..\..\..\..\cloud\alicloud\src\services\dev_bind\os/os.h ****  * @see None.
 166:..\..\..\..\cloud\alicloud\src\services\dev_bind\os/os.h ****  * @note None.
 167:..\..\..\..\cloud\alicloud\src\services\dev_bind\os/os.h ****  */
 168:..\..\..\..\cloud\alicloud\src\services\dev_bind\os/os.h **** uint16_t os_get_unaligned_be16(uint8_t *ptr);
 169:..\..\..\..\cloud\alicloud\src\services\dev_bind\os/os.h **** 
 170:..\..\..\..\cloud\alicloud\src\services\dev_bind\os/os.h **** /**
 171:..\..\..\..\cloud\alicloud\src\services\dev_bind\os/os.h ****  * @brief Get unaligned 16 bits data which is little-endian and convert to host byte order.
 172:..\..\..\..\cloud\alicloud\src\services\dev_bind\os/os.h ****  *
 173:..\..\..\..\cloud\alicloud\src\services\dev_bind\os/os.h ****  * @param[in] ptr @n The start address of the unaligned data.
 174:..\..\..\..\cloud\alicloud\src\services\dev_bind\os/os.h ****  * @return Result in host byte order.
 175:..\..\..\..\cloud\alicloud\src\services\dev_bind\os/os.h ****  * @see None.
 176:..\..\..\..\cloud\alicloud\src\services\dev_bind\os/os.h ****  * @note None.
 177:..\..\..\..\cloud\alicloud\src\services\dev_bind\os/os.h ****  */
 178:..\..\..\..\cloud\alicloud\src\services\dev_bind\os/os.h **** uint16_t os_get_unaligned_le16(uint8_t *ptr);
 179:..\..\..\..\cloud\alicloud\src\services\dev_bind\os/os.h **** 
 180:..\..\..\..\cloud\alicloud\src\services\dev_bind\os/os.h **** /**
 181:..\..\..\..\cloud\alicloud\src\services\dev_bind\os/os.h ****  * @brief Get unaligned 32 bits data which is big-endian and convert to host byte order.
 182:..\..\..\..\cloud\alicloud\src\services\dev_bind\os/os.h ****  *
 183:..\..\..\..\cloud\alicloud\src\services\dev_bind\os/os.h ****  * @param[in] ptr @n The start address of the unaligned data.
 184:..\..\..\..\cloud\alicloud\src\services\dev_bind\os/os.h ****  * @return Result in host byte order.
 185:..\..\..\..\cloud\alicloud\src\services\dev_bind\os/os.h ****  * @see None.
 186:..\..\..\..\cloud\alicloud\src\services\dev_bind\os/os.h ****  * @note None.
 187:..\..\..\..\cloud\alicloud\src\services\dev_bind\os/os.h ****  */
 188:..\..\..\..\cloud\alicloud\src\services\dev_bind\os/os.h **** uint32_t os_get_unaligned_be32(uint8_t *ptr);
 189:..\..\..\..\cloud\alicloud\src\services\dev_bind\os/os.h **** 
 190:..\..\..\..\cloud\alicloud\src\services\dev_bind\os/os.h **** /**
 191:..\..\..\..\cloud\alicloud\src\services\dev_bind\os/os.h ****  * @brief Get unaligned 32 bits data which is little-endian and convert to host byte order.
 192:..\..\..\..\cloud\alicloud\src\services\dev_bind\os/os.h ****  *
 193:..\..\..\..\cloud\alicloud\src\services\dev_bind\os/os.h ****  * @param[in] ptr @n The start address of the unaligned data.
 194:..\..\..\..\cloud\alicloud\src\services\dev_bind\os/os.h ****  * @return Result in host byte order.
 195:..\..\..\..\cloud\alicloud\src\services\dev_bind\os/os.h ****  * @see None.
 196:..\..\..\..\cloud\alicloud\src\services\dev_bind\os/os.h ****  * @note None.
 197:..\..\..\..\cloud\alicloud\src\services\dev_bind\os/os.h ****  */
 198:..\..\..\..\cloud\alicloud\src\services\dev_bind\os/os.h **** uint32_t os_get_unaligned_le32(uint8_t *ptr);
 199:..\..\..\..\cloud\alicloud\src\services\dev_bind\os/os.h **** 
 200:..\..\..\..\cloud\alicloud\src\services\dev_bind\os/os.h **** /**
 201:..\..\..\..\cloud\alicloud\src\services\dev_bind\os/os.h ****  * @brief sleep thread itself.
 202:..\..\..\..\cloud\alicloud\src\services\dev_bind\os/os.h ****  *
 203:..\..\..\..\cloud\alicloud\src\services\dev_bind\os/os.h ****  * @param[in] ms @n the time interval for which execution is to be suspended, in milliseconds.
 204:..\..\..\..\cloud\alicloud\src\services\dev_bind\os/os.h ****  * @return None.
 205:..\..\..\..\cloud\alicloud\src\services\dev_bind\os/os.h ****  * @see None.
 206:..\..\..\..\cloud\alicloud\src\services\dev_bind\os/os.h ****  * @note None.
 207:..\..\..\..\cloud\alicloud\src\services\dev_bind\os/os.h ****  */
 208:..\..\..\..\cloud\alicloud\src\services\dev_bind\os/os.h **** static inline void os_msleep(_IN_ uint32_t ms)
 209:..\..\..\..\cloud\alicloud\src\services\dev_bind\os/os.h **** {
 210:..\..\..\..\cloud\alicloud\src\services\dev_bind\os/os.h ****     platform_msleep(ms);
 211:..\..\..\..\cloud\alicloud\src\services\dev_bind\os/os.h **** }
 212:..\..\..\..\cloud\alicloud\src\services\dev_bind\os/os.h **** 
 213:..\..\..\..\cloud\alicloud\src\services\dev_bind\os/os.h **** /**
 214:..\..\..\..\cloud\alicloud\src\services\dev_bind\os/os.h ****  * @brief sleep thread itself.
 215:..\..\..\..\cloud\alicloud\src\services\dev_bind\os/os.h ****  *
 216:..\..\..\..\cloud\alicloud\src\services\dev_bind\os/os.h ****  * @param[in] sec @n the time interval for which execution is to be suspended, in seconds.
 217:..\..\..\..\cloud\alicloud\src\services\dev_bind\os/os.h ****  * @return None.
 218:..\..\..\..\cloud\alicloud\src\services\dev_bind\os/os.h ****  * @see None.
 219:..\..\..\..\cloud\alicloud\src\services\dev_bind\os/os.h ****  * @note None.
 220:..\..\..\..\cloud\alicloud\src\services\dev_bind\os/os.h ****  */
 221:..\..\..\..\cloud\alicloud\src\services\dev_bind\os/os.h **** static inline void os_sleep(_IN_ uint32_t sec)
 222:..\..\..\..\cloud\alicloud\src\services\dev_bind\os/os.h **** {
 223:..\..\..\..\cloud\alicloud\src\services\dev_bind\os/os.h ****     platform_msleep(sec * 1000);
 224:..\..\..\..\cloud\alicloud\src\services\dev_bind\os/os.h **** }
 225:..\..\..\..\cloud\alicloud\src\services\dev_bind\os/os.h **** 
 226:..\..\..\..\cloud\alicloud\src\services\dev_bind\os/os.h **** /**
 227:..\..\..\..\cloud\alicloud\src\services\dev_bind\os/os.h ****  * @brief system reboot immediately.
 228:..\..\..\..\cloud\alicloud\src\services\dev_bind\os/os.h ****  *
 229:..\..\..\..\cloud\alicloud\src\services\dev_bind\os/os.h ****  * @return None.
 230:..\..\..\..\cloud\alicloud\src\services\dev_bind\os/os.h ****  * @see None.
 231:..\..\..\..\cloud\alicloud\src\services\dev_bind\os/os.h ****  * @note None.
 232:..\..\..\..\cloud\alicloud\src\services\dev_bind\os/os.h ****  */
 233:..\..\..\..\cloud\alicloud\src\services\dev_bind\os/os.h **** static inline void os_reboot()
 234:..\..\..\..\cloud\alicloud\src\services\dev_bind\os/os.h **** {
 235:..\..\..\..\cloud\alicloud\src\services\dev_bind\os/os.h ****     platform_reboot();
 236:..\..\..\..\cloud\alicloud\src\services\dev_bind\os/os.h **** }
 237:..\..\..\..\cloud\alicloud\src\services\dev_bind\os/os.h **** 
 238:..\..\..\..\cloud\alicloud\src\services\dev_bind\os/os.h **** /** @} *///end of os_misc
 239:..\..\..\..\cloud\alicloud\src\services\dev_bind\os/os.h **** 
 240:..\..\..\..\cloud\alicloud\src\services\dev_bind\os/os.h **** /***************************************** mutex Interface ****************************************
 241:..\..\..\..\cloud\alicloud\src\services\dev_bind\os/os.h **** 
 242:..\..\..\..\cloud\alicloud\src\services\dev_bind\os/os.h **** /** @defgroup group_os_mutex mutex
 243:..\..\..\..\cloud\alicloud\src\services\dev_bind\os/os.h ****  *  @{
 244:..\..\..\..\cloud\alicloud\src\services\dev_bind\os/os.h ****  */
 245:..\..\..\..\cloud\alicloud\src\services\dev_bind\os/os.h **** 
 246:..\..\..\..\cloud\alicloud\src\services\dev_bind\os/os.h **** /**
 247:..\..\..\..\cloud\alicloud\src\services\dev_bind\os/os.h ****  * @brief Create a mutex.
 248:..\..\..\..\cloud\alicloud\src\services\dev_bind\os/os.h ****  *
 249:..\..\..\..\cloud\alicloud\src\services\dev_bind\os/os.h ****  * @return Mutex handle.
 250:..\..\..\..\cloud\alicloud\src\services\dev_bind\os/os.h ****  * @see None.
 251:..\..\..\..\cloud\alicloud\src\services\dev_bind\os/os.h ****  * @note None.
 252:..\..\..\..\cloud\alicloud\src\services\dev_bind\os/os.h ****  */
 253:..\..\..\..\cloud\alicloud\src\services\dev_bind\os/os.h **** static inline void *os_mutex_init(void)
 254:..\..\..\..\cloud\alicloud\src\services\dev_bind\os/os.h **** {
 255:..\..\..\..\cloud\alicloud\src\services\dev_bind\os/os.h ****     return platform_mutex_init();
 256:..\..\..\..\cloud\alicloud\src\services\dev_bind\os/os.h **** }
 257:..\..\..\..\cloud\alicloud\src\services\dev_bind\os/os.h **** 
 258:..\..\..\..\cloud\alicloud\src\services\dev_bind\os/os.h **** /**
 259:..\..\..\..\cloud\alicloud\src\services\dev_bind\os/os.h ****  * @brief Destroy the specified mutex object, it will free related resource.
 260:..\..\..\..\cloud\alicloud\src\services\dev_bind\os/os.h ****  *
 261:..\..\..\..\cloud\alicloud\src\services\dev_bind\os/os.h ****  * @param[in] mutex @n The specified mutex.
 262:..\..\..\..\cloud\alicloud\src\services\dev_bind\os/os.h ****  * @return None.
 263:..\..\..\..\cloud\alicloud\src\services\dev_bind\os/os.h ****  * @see None.
 264:..\..\..\..\cloud\alicloud\src\services\dev_bind\os/os.h ****  * @note None.
 265:..\..\..\..\cloud\alicloud\src\services\dev_bind\os/os.h ****  */
 266:..\..\..\..\cloud\alicloud\src\services\dev_bind\os/os.h **** static inline void os_mutex_destroy(_IN_ void *mutex)
 267:..\..\..\..\cloud\alicloud\src\services\dev_bind\os/os.h **** {
 268:..\..\..\..\cloud\alicloud\src\services\dev_bind\os/os.h ****     platform_mutex_destroy(mutex);
 269:..\..\..\..\cloud\alicloud\src\services\dev_bind\os/os.h **** }
 270:..\..\..\..\cloud\alicloud\src\services\dev_bind\os/os.h **** 
 271:..\..\..\..\cloud\alicloud\src\services\dev_bind\os/os.h **** /**
 272:..\..\..\..\cloud\alicloud\src\services\dev_bind\os/os.h ****  * @brief Waits until the specified mutex is in the signaled state.
 273:..\..\..\..\cloud\alicloud\src\services\dev_bind\os/os.h ****  *
 274:..\..\..\..\cloud\alicloud\src\services\dev_bind\os/os.h ****  * @param[in] mutex @n the specified mutex.
 275:..\..\..\..\cloud\alicloud\src\services\dev_bind\os/os.h ****  * @return None.
 276:..\..\..\..\cloud\alicloud\src\services\dev_bind\os/os.h ****  * @see None.
 277:..\..\..\..\cloud\alicloud\src\services\dev_bind\os/os.h ****  * @note None.
 278:..\..\..\..\cloud\alicloud\src\services\dev_bind\os/os.h ****  */
 279:..\..\..\..\cloud\alicloud\src\services\dev_bind\os/os.h **** static inline void os_mutex_lock(_IN_ void *mutex)
 280:..\..\..\..\cloud\alicloud\src\services\dev_bind\os/os.h **** {
 281:..\..\..\..\cloud\alicloud\src\services\dev_bind\os/os.h ****     platform_mutex_lock(mutex);
 282:..\..\..\..\cloud\alicloud\src\services\dev_bind\os/os.h **** }
 283:..\..\..\..\cloud\alicloud\src\services\dev_bind\os/os.h **** 
 284:..\..\..\..\cloud\alicloud\src\services\dev_bind\os/os.h **** /**
 285:..\..\..\..\cloud\alicloud\src\services\dev_bind\os/os.h ****  * @brief Releases ownership of the specified mutex object..
 286:..\..\..\..\cloud\alicloud\src\services\dev_bind\os/os.h ****  *
 287:..\..\..\..\cloud\alicloud\src\services\dev_bind\os/os.h ****  * @param[in] mutex @n the specified mutex.
 288:..\..\..\..\cloud\alicloud\src\services\dev_bind\os/os.h ****  * @return None.
 289:..\..\..\..\cloud\alicloud\src\services\dev_bind\os/os.h ****  * @see None.
 290:..\..\..\..\cloud\alicloud\src\services\dev_bind\os/os.h ****  * @note None.
 291:..\..\..\..\cloud\alicloud\src\services\dev_bind\os/os.h ****  */
 292:..\..\..\..\cloud\alicloud\src\services\dev_bind\os/os.h **** static inline void os_mutex_unlock(_IN_ void *mutex)
 293:..\..\..\..\cloud\alicloud\src\services\dev_bind\os/os.h **** {
 294:..\..\..\..\cloud\alicloud\src\services\dev_bind\os/os.h ****     platform_mutex_unlock(mutex);
 295:..\..\..\..\cloud\alicloud\src\services\dev_bind\os/os.h **** }
 296:..\..\..\..\cloud\alicloud\src\services\dev_bind\os/os.h **** 
 297:..\..\..\..\cloud\alicloud\src\services\dev_bind\os/os.h **** /** @} */// end of os_mutex
 298:..\..\..\..\cloud\alicloud\src\services\dev_bind\os/os.h **** 
 299:..\..\..\..\cloud\alicloud\src\services\dev_bind\os/os.h **** /*************************************** semaphore Interface **************************************
 300:..\..\..\..\cloud\alicloud\src\services\dev_bind\os/os.h **** 
 301:..\..\..\..\cloud\alicloud\src\services\dev_bind\os/os.h **** /** @defgroup group_os_semaphore semaphore
 302:..\..\..\..\cloud\alicloud\src\services\dev_bind\os/os.h ****  *  @{
 303:..\..\..\..\cloud\alicloud\src\services\dev_bind\os/os.h ****  */
 304:..\..\..\..\cloud\alicloud\src\services\dev_bind\os/os.h **** 
 305:..\..\..\..\cloud\alicloud\src\services\dev_bind\os/os.h **** /**
 306:..\..\..\..\cloud\alicloud\src\services\dev_bind\os/os.h ****  * @brief Create a semaphore.
 307:..\..\..\..\cloud\alicloud\src\services\dev_bind\os/os.h ****  *
 308:..\..\..\..\cloud\alicloud\src\services\dev_bind\os/os.h ****  * @return semaphore handle.
 309:..\..\..\..\cloud\alicloud\src\services\dev_bind\os/os.h ****  * @see None.
 310:..\..\..\..\cloud\alicloud\src\services\dev_bind\os/os.h ****  * @note The recommended value of maximum count of the semaphore is 255.
 311:..\..\..\..\cloud\alicloud\src\services\dev_bind\os/os.h ****  */
 312:..\..\..\..\cloud\alicloud\src\services\dev_bind\os/os.h **** static inline void *os_semaphore_init(void)
 313:..\..\..\..\cloud\alicloud\src\services\dev_bind\os/os.h **** {
 314:..\..\..\..\cloud\alicloud\src\services\dev_bind\os/os.h ****     return platform_semaphore_init();
 315:..\..\..\..\cloud\alicloud\src\services\dev_bind\os/os.h **** }
 316:..\..\..\..\cloud\alicloud\src\services\dev_bind\os/os.h **** 
 317:..\..\..\..\cloud\alicloud\src\services\dev_bind\os/os.h **** /**
 318:..\..\..\..\cloud\alicloud\src\services\dev_bind\os/os.h ****  * @brief Destroy the specified semaphore object, it will free related resource.
 319:..\..\..\..\cloud\alicloud\src\services\dev_bind\os/os.h ****  *
 320:..\..\..\..\cloud\alicloud\src\services\dev_bind\os/os.h ****  * @param[in] sem @n the specified sem.
 321:..\..\..\..\cloud\alicloud\src\services\dev_bind\os/os.h ****  * @return None.
 322:..\..\..\..\cloud\alicloud\src\services\dev_bind\os/os.h ****  * @see None.
 323:..\..\..\..\cloud\alicloud\src\services\dev_bind\os/os.h ****  * @note None.
 324:..\..\..\..\cloud\alicloud\src\services\dev_bind\os/os.h ****  */
 325:..\..\..\..\cloud\alicloud\src\services\dev_bind\os/os.h **** static inline void os_semaphore_destroy(_IN_ void *sem)
 326:..\..\..\..\cloud\alicloud\src\services\dev_bind\os/os.h **** {
 327:..\..\..\..\cloud\alicloud\src\services\dev_bind\os/os.h ****     platform_semaphore_destroy(sem);
 328:..\..\..\..\cloud\alicloud\src\services\dev_bind\os/os.h **** }
 329:..\..\..\..\cloud\alicloud\src\services\dev_bind\os/os.h **** 
 330:..\..\..\..\cloud\alicloud\src\services\dev_bind\os/os.h **** /**
 331:..\..\..\..\cloud\alicloud\src\services\dev_bind\os/os.h ****  * @brief Wait until the specified mutex is in the signaled state or the time-out interval elapses.
 332:..\..\..\..\cloud\alicloud\src\services\dev_bind\os/os.h ****  *
 333:..\..\..\..\cloud\alicloud\src\services\dev_bind\os/os.h ****  * @param[in] sem @n the specified semaphore.
 334:..\..\..\..\cloud\alicloud\src\services\dev_bind\os/os.h ****  * @param[in] timeout_ms @n timeout interval in millisecond.
 335:..\..\..\..\cloud\alicloud\src\services\dev_bind\os/os.h ****      If timeout_ms is OS_WAIT_INFINITE, the function will return only when the semaphore is signale
 336:..\..\..\..\cloud\alicloud\src\services\dev_bind\os/os.h ****  * @return
 337:..\..\..\..\cloud\alicloud\src\services\dev_bind\os/os.h ****    @verbatim
 338:..\..\..\..\cloud\alicloud\src\services\dev_bind\os/os.h ****    =  0: The state of the specified object is signaled.
 339:..\..\..\..\cloud\alicloud\src\services\dev_bind\os/os.h ****    =  -1: The time-out interval elapsed, and the object's state is nonsignaled.
 340:..\..\..\..\cloud\alicloud\src\services\dev_bind\os/os.h ****    @endverbatim
 341:..\..\..\..\cloud\alicloud\src\services\dev_bind\os/os.h ****  * @see None.
 342:..\..\..\..\cloud\alicloud\src\services\dev_bind\os/os.h ****  * @note None.
 343:..\..\..\..\cloud\alicloud\src\services\dev_bind\os/os.h ****  */
 344:..\..\..\..\cloud\alicloud\src\services\dev_bind\os/os.h **** static inline int os_semaphore_wait(_IN_ void *sem, _IN_ uint32_t timeout_ms)
 345:..\..\..\..\cloud\alicloud\src\services\dev_bind\os/os.h **** {
 346:..\..\..\..\cloud\alicloud\src\services\dev_bind\os/os.h ****     return platform_semaphore_wait(sem, timeout_ms);
 347:..\..\..\..\cloud\alicloud\src\services\dev_bind\os/os.h **** }
 348:..\..\..\..\cloud\alicloud\src\services\dev_bind\os/os.h **** 
 349:..\..\..\..\cloud\alicloud\src\services\dev_bind\os/os.h **** /**
 350:..\..\..\..\cloud\alicloud\src\services\dev_bind\os/os.h ****  * @brief Increases the count of the specified semaphore object by 1.
 351:..\..\..\..\cloud\alicloud\src\services\dev_bind\os/os.h ****  *
 352:..\..\..\..\cloud\alicloud\src\services\dev_bind\os/os.h ****  * @param[in] sem @n the specified semaphore.
 353:..\..\..\..\cloud\alicloud\src\services\dev_bind\os/os.h ****  * @return None.
 354:..\..\..\..\cloud\alicloud\src\services\dev_bind\os/os.h ****  * @see None.
 355:..\..\..\..\cloud\alicloud\src\services\dev_bind\os/os.h ****  * @note None.
 356:..\..\..\..\cloud\alicloud\src\services\dev_bind\os/os.h ****  */
 357:..\..\..\..\cloud\alicloud\src\services\dev_bind\os/os.h **** static inline void os_semaphore_post(_IN_ void *sem)
 358:..\..\..\..\cloud\alicloud\src\services\dev_bind\os/os.h **** {
 359:..\..\..\..\cloud\alicloud\src\services\dev_bind\os/os.h ****     platform_semaphore_post(sem);
 360:..\..\..\..\cloud\alicloud\src\services\dev_bind\os/os.h **** }
 361:..\..\..\..\cloud\alicloud\src\services\dev_bind\os/os.h **** 
 362:..\..\..\..\cloud\alicloud\src\services\dev_bind\os/os.h **** /** @} */// end of os_semaphore
 363:..\..\..\..\cloud\alicloud\src\services\dev_bind\os/os.h **** 
 364:..\..\..\..\cloud\alicloud\src\services\dev_bind\os/os.h **** /**************************************** memory Interface ****************************************
 365:..\..\..\..\cloud\alicloud\src\services\dev_bind\os/os.h **** 
 366:..\..\..\..\cloud\alicloud\src\services\dev_bind\os/os.h **** /** @defgroup group_os_memory_manage memory
 367:..\..\..\..\cloud\alicloud\src\services\dev_bind\os/os.h ****  *  @{
 368:..\..\..\..\cloud\alicloud\src\services\dev_bind\os/os.h ****  */
 369:..\..\..\..\cloud\alicloud\src\services\dev_bind\os/os.h **** 
 370:..\..\..\..\cloud\alicloud\src\services\dev_bind\os/os.h **** /**
 371:..\..\..\..\cloud\alicloud\src\services\dev_bind\os/os.h ****  * @brief Allocates a block of size bytes of memory, returning a pointer to the beginning of the bl
 372:..\..\..\..\cloud\alicloud\src\services\dev_bind\os/os.h ****  *
 373:..\..\..\..\cloud\alicloud\src\services\dev_bind\os/os.h ****  * @param[in] size @n specify block size in bytes.
 374:..\..\..\..\cloud\alicloud\src\services\dev_bind\os/os.h ****  * @return A pointer to the beginning of the block.
 375:..\..\..\..\cloud\alicloud\src\services\dev_bind\os/os.h ****  * @see None.
 376:..\..\..\..\cloud\alicloud\src\services\dev_bind\os/os.h ****  * @note Block value is indeterminate.
 377:..\..\..\..\cloud\alicloud\src\services\dev_bind\os/os.h ****  */
 378:..\..\..\..\cloud\alicloud\src\services\dev_bind\os/os.h **** static inline void *os_malloc(_IN_ uint32_t size)
 379:..\..\..\..\cloud\alicloud\src\services\dev_bind\os/os.h **** {
 380:..\..\..\..\cloud\alicloud\src\services\dev_bind\os/os.h ****     return platform_malloc(size);
 381:..\..\..\..\cloud\alicloud\src\services\dev_bind\os/os.h **** }
 382:..\..\..\..\cloud\alicloud\src\services\dev_bind\os/os.h **** 
 383:..\..\..\..\cloud\alicloud\src\services\dev_bind\os/os.h **** 
 384:..\..\..\..\cloud\alicloud\src\services\dev_bind\os/os.h **** /**
 385:..\..\..\..\cloud\alicloud\src\services\dev_bind\os/os.h ****  * @brief Deallocate memory block
 386:..\..\..\..\cloud\alicloud\src\services\dev_bind\os/os.h ****  *
 387:..\..\..\..\cloud\alicloud\src\services\dev_bind\os/os.h ****  * @param[in] ptr @n Pointer to a memory block previously allocated with platform_malloc.
 388:..\..\..\..\cloud\alicloud\src\services\dev_bind\os/os.h ****  * @return None.
 389:..\..\..\..\cloud\alicloud\src\services\dev_bind\os/os.h ****  * @see None.
 390:..\..\..\..\cloud\alicloud\src\services\dev_bind\os/os.h ****  * @note None.
 391:..\..\..\..\cloud\alicloud\src\services\dev_bind\os/os.h ****  */
 392:..\..\..\..\cloud\alicloud\src\services\dev_bind\os/os.h **** static inline void os_free(_IN_ void *ptr)
 393:..\..\..\..\cloud\alicloud\src\services\dev_bind\os/os.h **** {
 394:..\..\..\..\cloud\alicloud\src\services\dev_bind\os/os.h ****     platform_free(ptr);
 395:..\..\..\..\cloud\alicloud\src\services\dev_bind\os/os.h **** }
 396:..\..\..\..\cloud\alicloud\src\services\dev_bind\os/os.h **** 
 397:..\..\..\..\cloud\alicloud\src\services\dev_bind\os/os.h **** /**
 398:..\..\..\..\cloud\alicloud\src\services\dev_bind\os/os.h ****  * @brief Allocates a memory block with memory initialized to 0,
 399:..\..\..\..\cloud\alicloud\src\services\dev_bind\os/os.h ****      returning a pointer to the beginning of the block.
 400:..\..\..\..\cloud\alicloud\src\services\dev_bind\os/os.h ****  *
 401:..\..\..\..\cloud\alicloud\src\services\dev_bind\os/os.h ****  * @param[in] size @n specify block size in bytes.
 402:..\..\..\..\cloud\alicloud\src\services\dev_bind\os/os.h ****  * @return A pointer to the beginning of the block.
 403:..\..\..\..\cloud\alicloud\src\services\dev_bind\os/os.h ****  * @see None.
 404:..\..\..\..\cloud\alicloud\src\services\dev_bind\os/os.h ****  * @note Block value is indeterminate.
 405:..\..\..\..\cloud\alicloud\src\services\dev_bind\os/os.h ****  */
 406:..\..\..\..\cloud\alicloud\src\services\dev_bind\os/os.h **** static inline void *os_zalloc(uint32_t size)
 407:..\..\..\..\cloud\alicloud\src\services\dev_bind\os/os.h **** {
 408:..\..\..\..\cloud\alicloud\src\services\dev_bind\os/os.h ****     void *ptr = os_malloc(size);
 409:..\..\..\..\cloud\alicloud\src\services\dev_bind\os/os.h ****     if (ptr != NULL) {
 410:..\..\..\..\cloud\alicloud\src\services\dev_bind\os/os.h ****         memset(ptr, 0, size);
 411:..\..\..\..\cloud\alicloud\src\services\dev_bind\os/os.h ****     }
 412:..\..\..\..\cloud\alicloud\src\services\dev_bind\os/os.h ****     return ptr;
 413:..\..\..\..\cloud\alicloud\src\services\dev_bind\os/os.h **** }
 414:..\..\..\..\cloud\alicloud\src\services\dev_bind\os/os.h **** 
 415:..\..\..\..\cloud\alicloud\src\services\dev_bind\os/os.h **** /** @} */// end of os_memory_manage
 416:..\..\..\..\cloud\alicloud\src\services\dev_bind\os/os.h **** 
 417:..\..\..\..\cloud\alicloud\src\services\dev_bind\os/os.h **** /**************************************** system Interface ****************************************
 418:..\..\..\..\cloud\alicloud\src\services\dev_bind\os/os.h **** 
 419:..\..\..\..\cloud\alicloud\src\services\dev_bind\os/os.h **** /** @defgroup group_os_system system
 420:..\..\..\..\cloud\alicloud\src\services\dev_bind\os/os.h ****  *  @{
 421:..\..\..\..\cloud\alicloud\src\services\dev_bind\os/os.h ****  */
 422:..\..\..\..\cloud\alicloud\src\services\dev_bind\os/os.h **** 
 423:..\..\..\..\cloud\alicloud\src\services\dev_bind\os/os.h **** /**
 424:..\..\..\..\cloud\alicloud\src\services\dev_bind\os/os.h ****  * @brief check system network is ready(get ip address) or not.
 425:..\..\..\..\cloud\alicloud\src\services\dev_bind\os/os.h ****  *
 426:..\..\..\..\cloud\alicloud\src\services\dev_bind\os/os.h ****  * @param None.
 427:..\..\..\..\cloud\alicloud\src\services\dev_bind\os/os.h ****  * @return 0, net is not ready; 1, net is ready.
 428:..\..\..\..\cloud\alicloud\src\services\dev_bind\os/os.h ****  * @see None.
 429:..\..\..\..\cloud\alicloud\src\services\dev_bind\os/os.h ****  * @note None.
 430:..\..\..\..\cloud\alicloud\src\services\dev_bind\os/os.h ****  */
 431:..\..\..\..\cloud\alicloud\src\services\dev_bind\os/os.h **** static inline int os_sys_net_is_ready(void)
 432:..\..\..\..\cloud\alicloud\src\services\dev_bind\os/os.h **** {
 433:..\..\..\..\cloud\alicloud\src\services\dev_bind\os/os.h ****     return platform_sys_net_is_ready();
 434:..\..\..\..\cloud\alicloud\src\services\dev_bind\os/os.h **** }
 435:..\..\..\..\cloud\alicloud\src\services\dev_bind\os/os.h **** 
 436:..\..\..\..\cloud\alicloud\src\services\dev_bind\os/os.h **** /**
 437:..\..\..\..\cloud\alicloud\src\services\dev_bind\os/os.h ****  * @brief Retrieves the number of milliseconds that have elapsed since the system was boot.
 438:..\..\..\..\cloud\alicloud\src\services\dev_bind\os/os.h ****  *
 439:..\..\..\..\cloud\alicloud\src\services\dev_bind\os/os.h ****  * @param None.
 440:..\..\..\..\cloud\alicloud\src\services\dev_bind\os/os.h ****  * @return the number of milliseconds.
 441:..\..\..\..\cloud\alicloud\src\services\dev_bind\os/os.h ****  * @see None.
 442:..\..\..\..\cloud\alicloud\src\services\dev_bind\os/os.h ****  * @note Add a big offset, for easier caught time overflow bug.
 443:..\..\..\..\cloud\alicloud\src\services\dev_bind\os/os.h ****  */
 444:..\..\..\..\cloud\alicloud\src\services\dev_bind\os/os.h **** static inline uint32_t os_get_time_ms(void)
 445:..\..\..\..\cloud\alicloud\src\services\dev_bind\os/os.h **** {
  15              		.loc 1 445 1
  16              		.cfi_startproc
  17 0000 17030000 		call	t0,__riscv_save_1
  17      E7020300 
  18              		.cfi_offset 8, -8
  19              		.cfi_offset 1, -4
  20              		.cfi_def_cfa_offset 16
 446:..\..\..\..\cloud\alicloud\src\services\dev_bind\os/os.h ****     static uint32_t fixed_delta;
  21              		.loc 1 446 5
 447:..\..\..\..\cloud\alicloud\src\services\dev_bind\os/os.h **** 
 448:..\..\..\..\cloud\alicloud\src\services\dev_bind\os/os.h ****     if (!fixed_delta) {
  22              		.loc 1 448 5
  23              		.loc 1 448 9 is_stmt 0
  24 0008 37040000 		lui	s0,%hi(.LANCHOR0)
  25              		.loc 1 448 8
  26 000c 83270400 		lw	a5,%lo(.LANCHOR0)(s0)
  27 0010 13040400 		addi	s0,s0,%lo(.LANCHOR0)
  28 0014 81EB     		bne	a5,zero,.L2
 449:..\..\..\..\cloud\alicloud\src\services\dev_bind\os/os.h ****         fixed_delta = platform_get_time_ms() - 0xFFFF0000;
  29              		.loc 1 449 9 is_stmt 1
  30              		.loc 1 449 23 is_stmt 0
  31 0016 97000000 		call	HAL_UptimeMs
  31      E7800000 
  32              	.LVL0:
  33              		.loc 1 449 46
  34 001e C167     		li	a5,65536
  35 0020 AA97     		add	a5,a5,a0
  36              		.loc 1 449 21
  37 0022 1CC0     		sw	a5,0(s0)
  38              	.L2:
 450:..\..\..\..\cloud\alicloud\src\services\dev_bind\os/os.h ****     }
 451:..\..\..\..\cloud\alicloud\src\services\dev_bind\os/os.h **** 
 452:..\..\..\..\cloud\alicloud\src\services\dev_bind\os/os.h ****     /* add a big offset, for easier caught time overflow bug */
 453:..\..\..\..\cloud\alicloud\src\services\dev_bind\os/os.h ****     return platform_get_time_ms() - fixed_delta;
  39              		.loc 1 453 5 is_stmt 1
  40              		.loc 1 453 12 is_stmt 0
  41 0024 97000000 		call	HAL_UptimeMs
  41      E7800000 
  42              	.LVL1:
  43              		.loc 1 453 35
  44 002c 1C40     		lw	a5,0(s0)
 454:..\..\..\..\cloud\alicloud\src\services\dev_bind\os/os.h **** }
  45              		.loc 1 454 1
  46 002e 1D8D     		sub	a0,a0,a5
  47 0030 17030000 		tail	__riscv_restore_1
  47      67000300 
  48              		.cfi_restore 8
  49              		.cfi_restore 1
  50              		.cfi_def_cfa_offset 0
  51              		.cfi_endproc
  52              	.LFE20:
  54              		.section	.rodata.awss_report_token_to_cloud.str1.4,"aMS",@progbits,1
  55              		.align	2
  56              	.LC0:
  57 0000 62696E64 		.string	"bind token already report success"
  57      20746F6B 
  57      656E2061 
  57      6C726561 
  57      64792072 
  58 0022 0000     		.align	2
  59              	.LC1:
  60 0024 5B696E66 		.string	"[inf] "
  60      5D2000
  61 002b 00       		.align	2
  62              	.LC2:
  63 002c 74727920 		.string	"try %d times fail"
  63      25642074 
  63      696D6573 
  63      20666169 
  63      6C00
  64 003e 0000     		.align	2
  65              	.LC3:
  66 0040 0D0A00   		.string	"\r\n"
  67 0043 00       		.align	2
  68              	.LC4:
  69 0044 7265706F 		.string	"report token timeout"
  69      72742074 
  69      6F6B656E 
  69      2074696D 
  69      656F7574 
  70 0059 000000   		.align	2
  71              	.LC5:
  72 005c 72705F74 		.string	"rp_token"
  72      6F6B656E 
  72      00
  73 0065 000000   		.align	2
  74              	.LC6:
  75 0068 22257522 		.string	"\"%u\""
  75      00
  76 006d 000000   		.align	2
  77              	.LC7:
  78 0070 7B22746F 		.string	"{\"token\":\"%s\"}"
  78      6B656E22 
  78      3A222573 
  78      227D00
  79 007f 00       		.align	2
  80              	.LC8:
  81 0080 7468696E 		.string	"thing.awss.enrollee.match"
  81      672E6177 
  81      73732E65 
  81      6E726F6C 
  81      6C65652E 
  82 009a 0000     		.align	2
  83              	.LC9:
  84 009c 312E3000 		.string	"1.0"
  85              		.align	2
  86              	.LC10:
  87 00a0 7265706F 		.string	"report token:%s to cloud"
  87      72742074 
  87      6F6B656E 
  87      3A257320 
  87      746F2063 
  88 00b9 000000   		.align	2
  89              	.LC11:
  90 00bc 7265706F 		.string	"report token:%s\r\n"
  90      72742074 
  90      6F6B656E 
  90      3A25730D 
  90      0A00
  91 00ce 0000     		.align	2
  92              	.LC12:
  93 00d0 61777373 		.string	"awss"
  93      00
  94 00d5 000000   		.align	2
  95              	.LC13:
  96 00d8 2F737973 		.string	"/sys/%s/%s/thing/awss/enrollee/match"
  96      2F25732F 
  96      25732F74 
  96      68696E67 
  96      2F617773 
  97 00fd 000000   		.align	2
  98              	.LC14:
  99 0100 7265706F 		.string	"report token res:%d\r\n"
  99      72742074 
  99      6F6B656E 
  99      20726573 
  99      3A25640D 
 100 0116 0000     		.align	2
 101              	.LC15:
 102 0118 7265706F 		.string	"report token fail, reason(%d)"
 102      72742074 
 102      6F6B656E 
 102      20666169 
 102      6C2C2072 
 103 0136 0000     		.align	2
 104              	.LC16:
 105 0138 5B657272 		.string	"[err] "
 105      5D2000
 106 013f 00       		.align	2
 107              	.LC17:
 108 0140 616C6C6F 		.string	"alloc mem(%d) failed"
 108      63206D65 
 108      6D282564 
 108      29206661 
 108      696C6564 
 109              		.section	.text.awss_report_token_to_cloud,"ax",@progbits
 110              		.align	1
 112              	awss_report_token_to_cloud:
 113              	.LFB71:
 114              		.file 2 "C:/Users/stapi/OneDrive/Desktop/GD32VW553/V1_MQTT_OK/GD32VW55X_Wifi_BLE_SDK/GD32VW55x_REL
   1:C:/Users/stapi/OneDrive/Desktop/GD32VW553/V1_MQTT_OK/GD32VW55X_Wifi_BLE_SDK/GD32VW55x_RELEASE_V1.0.2/MSDK/cloud/alicloud/src/services/dev_bind\awss_report.c **** /*
   2:C:/Users/stapi/OneDrive/Desktop/GD32VW553/V1_MQTT_OK/GD32VW55X_Wifi_BLE_SDK/GD32VW55x_RELEASE_V1.0.2/MSDK/cloud/alicloud/src/services/dev_bind\awss_report.c ****  * Copyright (C) 2015-2018 Alibaba Group Holding Limited
   3:C:/Users/stapi/OneDrive/Desktop/GD32VW553/V1_MQTT_OK/GD32VW55X_Wifi_BLE_SDK/GD32VW55x_RELEASE_V1.0.2/MSDK/cloud/alicloud/src/services/dev_bind\awss_report.c ****  */
   4:C:/Users/stapi/OneDrive/Desktop/GD32VW553/V1_MQTT_OK/GD32VW55X_Wifi_BLE_SDK/GD32VW55x_RELEASE_V1.0.2/MSDK/cloud/alicloud/src/services/dev_bind\awss_report.c **** #include <stdint.h>
   5:C:/Users/stapi/OneDrive/Desktop/GD32VW553/V1_MQTT_OK/GD32VW55X_Wifi_BLE_SDK/GD32VW55x_RELEASE_V1.0.2/MSDK/cloud/alicloud/src/services/dev_bind\awss_report.c **** #include "json_parser.h"
   6:C:/Users/stapi/OneDrive/Desktop/GD32VW553/V1_MQTT_OK/GD32VW55X_Wifi_BLE_SDK/GD32VW55x_RELEASE_V1.0.2/MSDK/cloud/alicloud/src/services/dev_bind\awss_report.c **** #include "awss_cmp.h"
   7:C:/Users/stapi/OneDrive/Desktop/GD32VW553/V1_MQTT_OK/GD32VW55X_Wifi_BLE_SDK/GD32VW55x_RELEASE_V1.0.2/MSDK/cloud/alicloud/src/services/dev_bind\awss_report.c **** #include "awss_timer.h"
   8:C:/Users/stapi/OneDrive/Desktop/GD32VW553/V1_MQTT_OK/GD32VW55X_Wifi_BLE_SDK/GD32VW55x_RELEASE_V1.0.2/MSDK/cloud/alicloud/src/services/dev_bind\awss_report.c **** #include "awss_packet.h"
   9:C:/Users/stapi/OneDrive/Desktop/GD32VW553/V1_MQTT_OK/GD32VW55X_Wifi_BLE_SDK/GD32VW55x_RELEASE_V1.0.2/MSDK/cloud/alicloud/src/services/dev_bind\awss_report.c **** #include "awss_bind_statis.h"
  10:C:/Users/stapi/OneDrive/Desktop/GD32VW553/V1_MQTT_OK/GD32VW55X_Wifi_BLE_SDK/GD32VW55x_RELEASE_V1.0.2/MSDK/cloud/alicloud/src/services/dev_bind\awss_report.c **** #include "iot_export_event.h"
  11:C:/Users/stapi/OneDrive/Desktop/GD32VW553/V1_MQTT_OK/GD32VW55X_Wifi_BLE_SDK/GD32VW55x_RELEASE_V1.0.2/MSDK/cloud/alicloud/src/services/dev_bind\awss_report.c **** #include "awss_utils.h"
  12:C:/Users/stapi/OneDrive/Desktop/GD32VW553/V1_MQTT_OK/GD32VW55X_Wifi_BLE_SDK/GD32VW55x_RELEASE_V1.0.2/MSDK/cloud/alicloud/src/services/dev_bind\awss_report.c **** #include "awss_log.h"
  13:C:/Users/stapi/OneDrive/Desktop/GD32VW553/V1_MQTT_OK/GD32VW55X_Wifi_BLE_SDK/GD32VW55x_RELEASE_V1.0.2/MSDK/cloud/alicloud/src/services/dev_bind\awss_report.c **** #include "passwd.h"
  14:C:/Users/stapi/OneDrive/Desktop/GD32VW553/V1_MQTT_OK/GD32VW55X_Wifi_BLE_SDK/GD32VW55x_RELEASE_V1.0.2/MSDK/cloud/alicloud/src/services/dev_bind\awss_report.c **** #include "os.h"
  15:C:/Users/stapi/OneDrive/Desktop/GD32VW553/V1_MQTT_OK/GD32VW55X_Wifi_BLE_SDK/GD32VW55x_RELEASE_V1.0.2/MSDK/cloud/alicloud/src/services/dev_bind\awss_report.c **** 
  16:C:/Users/stapi/OneDrive/Desktop/GD32VW553/V1_MQTT_OK/GD32VW55X_Wifi_BLE_SDK/GD32VW55x_RELEASE_V1.0.2/MSDK/cloud/alicloud/src/services/dev_bind\awss_report.c **** #if defined(__cplusplus)  /* If this is a C++ compiler, use C linkage */
  17:C:/Users/stapi/OneDrive/Desktop/GD32VW553/V1_MQTT_OK/GD32VW55X_Wifi_BLE_SDK/GD32VW55x_RELEASE_V1.0.2/MSDK/cloud/alicloud/src/services/dev_bind\awss_report.c **** extern "C" {
  18:C:/Users/stapi/OneDrive/Desktop/GD32VW553/V1_MQTT_OK/GD32VW55X_Wifi_BLE_SDK/GD32VW55x_RELEASE_V1.0.2/MSDK/cloud/alicloud/src/services/dev_bind\awss_report.c **** #endif
  19:C:/Users/stapi/OneDrive/Desktop/GD32VW553/V1_MQTT_OK/GD32VW55X_Wifi_BLE_SDK/GD32VW55x_RELEASE_V1.0.2/MSDK/cloud/alicloud/src/services/dev_bind\awss_report.c **** 
  20:C:/Users/stapi/OneDrive/Desktop/GD32VW553/V1_MQTT_OK/GD32VW55X_Wifi_BLE_SDK/GD32VW55x_RELEASE_V1.0.2/MSDK/cloud/alicloud/src/services/dev_bind\awss_report.c **** #define AWSS_REPORT_LEN_MAX       (256)
  21:C:/Users/stapi/OneDrive/Desktop/GD32VW553/V1_MQTT_OK/GD32VW55X_Wifi_BLE_SDK/GD32VW55x_RELEASE_V1.0.2/MSDK/cloud/alicloud/src/services/dev_bind\awss_report.c **** #define AWSS_TOKEN_TIMEOUT_MS     (120 * 1000)
  22:C:/Users/stapi/OneDrive/Desktop/GD32VW553/V1_MQTT_OK/GD32VW55X_Wifi_BLE_SDK/GD32VW55x_RELEASE_V1.0.2/MSDK/cloud/alicloud/src/services/dev_bind\awss_report.c **** #define MATCH_MONITOR_TIMEOUT_MS  (10 * 1000)
  23:C:/Users/stapi/OneDrive/Desktop/GD32VW553/V1_MQTT_OK/GD32VW55X_Wifi_BLE_SDK/GD32VW55x_RELEASE_V1.0.2/MSDK/cloud/alicloud/src/services/dev_bind\awss_report.c **** #define MATCH_REPORT_CNT_MAX      (2)
  24:C:/Users/stapi/OneDrive/Desktop/GD32VW553/V1_MQTT_OK/GD32VW55X_Wifi_BLE_SDK/GD32VW55x_RELEASE_V1.0.2/MSDK/cloud/alicloud/src/services/dev_bind\awss_report.c **** 
  25:C:/Users/stapi/OneDrive/Desktop/GD32VW553/V1_MQTT_OK/GD32VW55X_Wifi_BLE_SDK/GD32VW55x_RELEASE_V1.0.2/MSDK/cloud/alicloud/src/services/dev_bind\awss_report.c **** volatile char awss_report_token_suc = 0;
  26:C:/Users/stapi/OneDrive/Desktop/GD32VW553/V1_MQTT_OK/GD32VW55X_Wifi_BLE_SDK/GD32VW55x_RELEASE_V1.0.2/MSDK/cloud/alicloud/src/services/dev_bind\awss_report.c **** volatile char awss_report_token_cnt = 0;
  27:C:/Users/stapi/OneDrive/Desktop/GD32VW553/V1_MQTT_OK/GD32VW55X_Wifi_BLE_SDK/GD32VW55x_RELEASE_V1.0.2/MSDK/cloud/alicloud/src/services/dev_bind\awss_report.c **** static char awss_report_id = 0;
  28:C:/Users/stapi/OneDrive/Desktop/GD32VW553/V1_MQTT_OK/GD32VW55X_Wifi_BLE_SDK/GD32VW55x_RELEASE_V1.0.2/MSDK/cloud/alicloud/src/services/dev_bind\awss_report.c **** #ifdef WIFI_PROVISION_ENABLED
  29:C:/Users/stapi/OneDrive/Desktop/GD32VW553/V1_MQTT_OK/GD32VW55X_Wifi_BLE_SDK/GD32VW55x_RELEASE_V1.0.2/MSDK/cloud/alicloud/src/services/dev_bind\awss_report.c **** static char switchap_ssid[OS_MAX_SSID_LEN] = {0};
  30:C:/Users/stapi/OneDrive/Desktop/GD32VW553/V1_MQTT_OK/GD32VW55X_Wifi_BLE_SDK/GD32VW55x_RELEASE_V1.0.2/MSDK/cloud/alicloud/src/services/dev_bind\awss_report.c **** static char switchap_passwd[OS_MAX_PASSWD_LEN] = {0};
  31:C:/Users/stapi/OneDrive/Desktop/GD32VW553/V1_MQTT_OK/GD32VW55X_Wifi_BLE_SDK/GD32VW55x_RELEASE_V1.0.2/MSDK/cloud/alicloud/src/services/dev_bind\awss_report.c **** static uint8_t switchap_bssid[ETH_ALEN] = {0};
  32:C:/Users/stapi/OneDrive/Desktop/GD32VW553/V1_MQTT_OK/GD32VW55X_Wifi_BLE_SDK/GD32VW55x_RELEASE_V1.0.2/MSDK/cloud/alicloud/src/services/dev_bind\awss_report.c **** static void *switchap_timer = NULL;
  33:C:/Users/stapi/OneDrive/Desktop/GD32VW553/V1_MQTT_OK/GD32VW55X_Wifi_BLE_SDK/GD32VW55x_RELEASE_V1.0.2/MSDK/cloud/alicloud/src/services/dev_bind\awss_report.c **** #endif
  34:C:/Users/stapi/OneDrive/Desktop/GD32VW553/V1_MQTT_OK/GD32VW55X_Wifi_BLE_SDK/GD32VW55x_RELEASE_V1.0.2/MSDK/cloud/alicloud/src/services/dev_bind\awss_report.c **** 
  35:C:/Users/stapi/OneDrive/Desktop/GD32VW553/V1_MQTT_OK/GD32VW55X_Wifi_BLE_SDK/GD32VW55x_RELEASE_V1.0.2/MSDK/cloud/alicloud/src/services/dev_bind\awss_report.c **** static uint32_t awss_report_token_time = 0;
  36:C:/Users/stapi/OneDrive/Desktop/GD32VW553/V1_MQTT_OK/GD32VW55X_Wifi_BLE_SDK/GD32VW55x_RELEASE_V1.0.2/MSDK/cloud/alicloud/src/services/dev_bind\awss_report.c **** static void *report_token_timer = NULL;
  37:C:/Users/stapi/OneDrive/Desktop/GD32VW553/V1_MQTT_OK/GD32VW55X_Wifi_BLE_SDK/GD32VW55x_RELEASE_V1.0.2/MSDK/cloud/alicloud/src/services/dev_bind\awss_report.c **** 
  38:C:/Users/stapi/OneDrive/Desktop/GD32VW553/V1_MQTT_OK/GD32VW55X_Wifi_BLE_SDK/GD32VW55x_RELEASE_V1.0.2/MSDK/cloud/alicloud/src/services/dev_bind\awss_report.c **** static int awss_report_token_to_cloud();
  39:C:/Users/stapi/OneDrive/Desktop/GD32VW553/V1_MQTT_OK/GD32VW55X_Wifi_BLE_SDK/GD32VW55x_RELEASE_V1.0.2/MSDK/cloud/alicloud/src/services/dev_bind\awss_report.c **** #ifdef WIFI_PROVISION_ENABLED
  40:C:/Users/stapi/OneDrive/Desktop/GD32VW553/V1_MQTT_OK/GD32VW55X_Wifi_BLE_SDK/GD32VW55x_RELEASE_V1.0.2/MSDK/cloud/alicloud/src/services/dev_bind\awss_report.c **** static int awss_switch_ap_online();
  41:C:/Users/stapi/OneDrive/Desktop/GD32VW553/V1_MQTT_OK/GD32VW55X_Wifi_BLE_SDK/GD32VW55x_RELEASE_V1.0.2/MSDK/cloud/alicloud/src/services/dev_bind\awss_report.c **** static int awss_reboot_system();
  42:C:/Users/stapi/OneDrive/Desktop/GD32VW553/V1_MQTT_OK/GD32VW55X_Wifi_BLE_SDK/GD32VW55x_RELEASE_V1.0.2/MSDK/cloud/alicloud/src/services/dev_bind\awss_report.c **** #endif
  43:C:/Users/stapi/OneDrive/Desktop/GD32VW553/V1_MQTT_OK/GD32VW55X_Wifi_BLE_SDK/GD32VW55x_RELEASE_V1.0.2/MSDK/cloud/alicloud/src/services/dev_bind\awss_report.c **** 
  44:C:/Users/stapi/OneDrive/Desktop/GD32VW553/V1_MQTT_OK/GD32VW55X_Wifi_BLE_SDK/GD32VW55x_RELEASE_V1.0.2/MSDK/cloud/alicloud/src/services/dev_bind\awss_report.c **** int awss_token_remain_time()
  45:C:/Users/stapi/OneDrive/Desktop/GD32VW553/V1_MQTT_OK/GD32VW55X_Wifi_BLE_SDK/GD32VW55x_RELEASE_V1.0.2/MSDK/cloud/alicloud/src/services/dev_bind\awss_report.c **** {
  46:C:/Users/stapi/OneDrive/Desktop/GD32VW553/V1_MQTT_OK/GD32VW55X_Wifi_BLE_SDK/GD32VW55x_RELEASE_V1.0.2/MSDK/cloud/alicloud/src/services/dev_bind\awss_report.c ****     int remain = 0;
  47:C:/Users/stapi/OneDrive/Desktop/GD32VW553/V1_MQTT_OK/GD32VW55X_Wifi_BLE_SDK/GD32VW55x_RELEASE_V1.0.2/MSDK/cloud/alicloud/src/services/dev_bind\awss_report.c ****     uint32_t cur = os_get_time_ms();
  48:C:/Users/stapi/OneDrive/Desktop/GD32VW553/V1_MQTT_OK/GD32VW55X_Wifi_BLE_SDK/GD32VW55x_RELEASE_V1.0.2/MSDK/cloud/alicloud/src/services/dev_bind\awss_report.c ****     uint32_t diff = (uint32_t)(cur - awss_report_token_time);
  49:C:/Users/stapi/OneDrive/Desktop/GD32VW553/V1_MQTT_OK/GD32VW55X_Wifi_BLE_SDK/GD32VW55x_RELEASE_V1.0.2/MSDK/cloud/alicloud/src/services/dev_bind\awss_report.c **** 
  50:C:/Users/stapi/OneDrive/Desktop/GD32VW553/V1_MQTT_OK/GD32VW55X_Wifi_BLE_SDK/GD32VW55x_RELEASE_V1.0.2/MSDK/cloud/alicloud/src/services/dev_bind\awss_report.c ****     if (awss_report_token_suc == 0) {
  51:C:/Users/stapi/OneDrive/Desktop/GD32VW553/V1_MQTT_OK/GD32VW55X_Wifi_BLE_SDK/GD32VW55x_RELEASE_V1.0.2/MSDK/cloud/alicloud/src/services/dev_bind\awss_report.c ****         return remain;
  52:C:/Users/stapi/OneDrive/Desktop/GD32VW553/V1_MQTT_OK/GD32VW55X_Wifi_BLE_SDK/GD32VW55x_RELEASE_V1.0.2/MSDK/cloud/alicloud/src/services/dev_bind\awss_report.c ****     }
  53:C:/Users/stapi/OneDrive/Desktop/GD32VW553/V1_MQTT_OK/GD32VW55X_Wifi_BLE_SDK/GD32VW55x_RELEASE_V1.0.2/MSDK/cloud/alicloud/src/services/dev_bind\awss_report.c **** 
  54:C:/Users/stapi/OneDrive/Desktop/GD32VW553/V1_MQTT_OK/GD32VW55X_Wifi_BLE_SDK/GD32VW55x_RELEASE_V1.0.2/MSDK/cloud/alicloud/src/services/dev_bind\awss_report.c ****     if (diff < AWSS_TOKEN_TIMEOUT_MS) {
  55:C:/Users/stapi/OneDrive/Desktop/GD32VW553/V1_MQTT_OK/GD32VW55X_Wifi_BLE_SDK/GD32VW55x_RELEASE_V1.0.2/MSDK/cloud/alicloud/src/services/dev_bind\awss_report.c ****         remain = AWSS_TOKEN_TIMEOUT_MS - diff;
  56:C:/Users/stapi/OneDrive/Desktop/GD32VW553/V1_MQTT_OK/GD32VW55X_Wifi_BLE_SDK/GD32VW55x_RELEASE_V1.0.2/MSDK/cloud/alicloud/src/services/dev_bind\awss_report.c ****     }
  57:C:/Users/stapi/OneDrive/Desktop/GD32VW553/V1_MQTT_OK/GD32VW55X_Wifi_BLE_SDK/GD32VW55x_RELEASE_V1.0.2/MSDK/cloud/alicloud/src/services/dev_bind\awss_report.c **** 
  58:C:/Users/stapi/OneDrive/Desktop/GD32VW553/V1_MQTT_OK/GD32VW55X_Wifi_BLE_SDK/GD32VW55x_RELEASE_V1.0.2/MSDK/cloud/alicloud/src/services/dev_bind\awss_report.c ****     return remain;
  59:C:/Users/stapi/OneDrive/Desktop/GD32VW553/V1_MQTT_OK/GD32VW55X_Wifi_BLE_SDK/GD32VW55x_RELEASE_V1.0.2/MSDK/cloud/alicloud/src/services/dev_bind\awss_report.c **** }
  60:C:/Users/stapi/OneDrive/Desktop/GD32VW553/V1_MQTT_OK/GD32VW55X_Wifi_BLE_SDK/GD32VW55x_RELEASE_V1.0.2/MSDK/cloud/alicloud/src/services/dev_bind\awss_report.c **** 
  61:C:/Users/stapi/OneDrive/Desktop/GD32VW553/V1_MQTT_OK/GD32VW55X_Wifi_BLE_SDK/GD32VW55x_RELEASE_V1.0.2/MSDK/cloud/alicloud/src/services/dev_bind\awss_report.c **** int awss_update_token()
  62:C:/Users/stapi/OneDrive/Desktop/GD32VW553/V1_MQTT_OK/GD32VW55X_Wifi_BLE_SDK/GD32VW55x_RELEASE_V1.0.2/MSDK/cloud/alicloud/src/services/dev_bind\awss_report.c **** {
  63:C:/Users/stapi/OneDrive/Desktop/GD32VW553/V1_MQTT_OK/GD32VW55X_Wifi_BLE_SDK/GD32VW55x_RELEASE_V1.0.2/MSDK/cloud/alicloud/src/services/dev_bind\awss_report.c ****     awss_report_token_time = 0;
  64:C:/Users/stapi/OneDrive/Desktop/GD32VW553/V1_MQTT_OK/GD32VW55X_Wifi_BLE_SDK/GD32VW55x_RELEASE_V1.0.2/MSDK/cloud/alicloud/src/services/dev_bind\awss_report.c ****     awss_report_token_cnt = 0;
  65:C:/Users/stapi/OneDrive/Desktop/GD32VW553/V1_MQTT_OK/GD32VW55X_Wifi_BLE_SDK/GD32VW55x_RELEASE_V1.0.2/MSDK/cloud/alicloud/src/services/dev_bind\awss_report.c ****     awss_report_token_suc = 0;
  66:C:/Users/stapi/OneDrive/Desktop/GD32VW553/V1_MQTT_OK/GD32VW55X_Wifi_BLE_SDK/GD32VW55x_RELEASE_V1.0.2/MSDK/cloud/alicloud/src/services/dev_bind\awss_report.c **** 
  67:C:/Users/stapi/OneDrive/Desktop/GD32VW553/V1_MQTT_OK/GD32VW55X_Wifi_BLE_SDK/GD32VW55x_RELEASE_V1.0.2/MSDK/cloud/alicloud/src/services/dev_bind\awss_report.c ****     if (report_token_timer == NULL) {
  68:C:/Users/stapi/OneDrive/Desktop/GD32VW553/V1_MQTT_OK/GD32VW55X_Wifi_BLE_SDK/GD32VW55x_RELEASE_V1.0.2/MSDK/cloud/alicloud/src/services/dev_bind\awss_report.c ****         report_token_timer = HAL_Timer_Create("rp_token", (void (*)(void *))awss_report_token_to_cl
  69:C:/Users/stapi/OneDrive/Desktop/GD32VW553/V1_MQTT_OK/GD32VW55X_Wifi_BLE_SDK/GD32VW55x_RELEASE_V1.0.2/MSDK/cloud/alicloud/src/services/dev_bind\awss_report.c ****     }
  70:C:/Users/stapi/OneDrive/Desktop/GD32VW553/V1_MQTT_OK/GD32VW55X_Wifi_BLE_SDK/GD32VW55x_RELEASE_V1.0.2/MSDK/cloud/alicloud/src/services/dev_bind\awss_report.c ****     HAL_Timer_Stop(report_token_timer);
  71:C:/Users/stapi/OneDrive/Desktop/GD32VW553/V1_MQTT_OK/GD32VW55X_Wifi_BLE_SDK/GD32VW55x_RELEASE_V1.0.2/MSDK/cloud/alicloud/src/services/dev_bind\awss_report.c ****     HAL_Timer_Start(report_token_timer, 10);
  72:C:/Users/stapi/OneDrive/Desktop/GD32VW553/V1_MQTT_OK/GD32VW55X_Wifi_BLE_SDK/GD32VW55x_RELEASE_V1.0.2/MSDK/cloud/alicloud/src/services/dev_bind\awss_report.c ****     awss_info("update token");
  73:C:/Users/stapi/OneDrive/Desktop/GD32VW553/V1_MQTT_OK/GD32VW55X_Wifi_BLE_SDK/GD32VW55x_RELEASE_V1.0.2/MSDK/cloud/alicloud/src/services/dev_bind\awss_report.c **** 
  74:C:/Users/stapi/OneDrive/Desktop/GD32VW553/V1_MQTT_OK/GD32VW55X_Wifi_BLE_SDK/GD32VW55x_RELEASE_V1.0.2/MSDK/cloud/alicloud/src/services/dev_bind\awss_report.c ****     produce_random(g_aes_random, sizeof(g_aes_random));
  75:C:/Users/stapi/OneDrive/Desktop/GD32VW553/V1_MQTT_OK/GD32VW55X_Wifi_BLE_SDK/GD32VW55x_RELEASE_V1.0.2/MSDK/cloud/alicloud/src/services/dev_bind\awss_report.c ****     return 0;
  76:C:/Users/stapi/OneDrive/Desktop/GD32VW553/V1_MQTT_OK/GD32VW55X_Wifi_BLE_SDK/GD32VW55x_RELEASE_V1.0.2/MSDK/cloud/alicloud/src/services/dev_bind\awss_report.c **** }
  77:C:/Users/stapi/OneDrive/Desktop/GD32VW553/V1_MQTT_OK/GD32VW55X_Wifi_BLE_SDK/GD32VW55x_RELEASE_V1.0.2/MSDK/cloud/alicloud/src/services/dev_bind\awss_report.c **** 
  78:C:/Users/stapi/OneDrive/Desktop/GD32VW553/V1_MQTT_OK/GD32VW55X_Wifi_BLE_SDK/GD32VW55x_RELEASE_V1.0.2/MSDK/cloud/alicloud/src/services/dev_bind\awss_report.c **** int awss_token_timeout()
  79:C:/Users/stapi/OneDrive/Desktop/GD32VW553/V1_MQTT_OK/GD32VW55X_Wifi_BLE_SDK/GD32VW55x_RELEASE_V1.0.2/MSDK/cloud/alicloud/src/services/dev_bind\awss_report.c **** {
  80:C:/Users/stapi/OneDrive/Desktop/GD32VW553/V1_MQTT_OK/GD32VW55X_Wifi_BLE_SDK/GD32VW55x_RELEASE_V1.0.2/MSDK/cloud/alicloud/src/services/dev_bind\awss_report.c ****     if (awss_report_token_time == 0) {
  81:C:/Users/stapi/OneDrive/Desktop/GD32VW553/V1_MQTT_OK/GD32VW55X_Wifi_BLE_SDK/GD32VW55x_RELEASE_V1.0.2/MSDK/cloud/alicloud/src/services/dev_bind\awss_report.c ****         return 1;
  82:C:/Users/stapi/OneDrive/Desktop/GD32VW553/V1_MQTT_OK/GD32VW55X_Wifi_BLE_SDK/GD32VW55x_RELEASE_V1.0.2/MSDK/cloud/alicloud/src/services/dev_bind\awss_report.c ****     }
  83:C:/Users/stapi/OneDrive/Desktop/GD32VW553/V1_MQTT_OK/GD32VW55X_Wifi_BLE_SDK/GD32VW55x_RELEASE_V1.0.2/MSDK/cloud/alicloud/src/services/dev_bind\awss_report.c **** 
  84:C:/Users/stapi/OneDrive/Desktop/GD32VW553/V1_MQTT_OK/GD32VW55X_Wifi_BLE_SDK/GD32VW55x_RELEASE_V1.0.2/MSDK/cloud/alicloud/src/services/dev_bind\awss_report.c ****     uint32_t cur = os_get_time_ms();
  85:C:/Users/stapi/OneDrive/Desktop/GD32VW553/V1_MQTT_OK/GD32VW55X_Wifi_BLE_SDK/GD32VW55x_RELEASE_V1.0.2/MSDK/cloud/alicloud/src/services/dev_bind\awss_report.c ****     if ((uint32_t)(cur - awss_report_token_time) > AWSS_TOKEN_TIMEOUT_MS) {
  86:C:/Users/stapi/OneDrive/Desktop/GD32VW553/V1_MQTT_OK/GD32VW55X_Wifi_BLE_SDK/GD32VW55x_RELEASE_V1.0.2/MSDK/cloud/alicloud/src/services/dev_bind\awss_report.c ****         return 1;
  87:C:/Users/stapi/OneDrive/Desktop/GD32VW553/V1_MQTT_OK/GD32VW55X_Wifi_BLE_SDK/GD32VW55x_RELEASE_V1.0.2/MSDK/cloud/alicloud/src/services/dev_bind\awss_report.c ****     }
  88:C:/Users/stapi/OneDrive/Desktop/GD32VW553/V1_MQTT_OK/GD32VW55X_Wifi_BLE_SDK/GD32VW55x_RELEASE_V1.0.2/MSDK/cloud/alicloud/src/services/dev_bind\awss_report.c ****     return 0;
  89:C:/Users/stapi/OneDrive/Desktop/GD32VW553/V1_MQTT_OK/GD32VW55X_Wifi_BLE_SDK/GD32VW55x_RELEASE_V1.0.2/MSDK/cloud/alicloud/src/services/dev_bind\awss_report.c **** }
  90:C:/Users/stapi/OneDrive/Desktop/GD32VW553/V1_MQTT_OK/GD32VW55X_Wifi_BLE_SDK/GD32VW55x_RELEASE_V1.0.2/MSDK/cloud/alicloud/src/services/dev_bind\awss_report.c **** 
  91:C:/Users/stapi/OneDrive/Desktop/GD32VW553/V1_MQTT_OK/GD32VW55X_Wifi_BLE_SDK/GD32VW55x_RELEASE_V1.0.2/MSDK/cloud/alicloud/src/services/dev_bind\awss_report.c **** void awss_report_token_reply(void *pcontext, void *pclient, void *msg)
  92:C:/Users/stapi/OneDrive/Desktop/GD32VW553/V1_MQTT_OK/GD32VW55X_Wifi_BLE_SDK/GD32VW55x_RELEASE_V1.0.2/MSDK/cloud/alicloud/src/services/dev_bind\awss_report.c **** {
  93:C:/Users/stapi/OneDrive/Desktop/GD32VW553/V1_MQTT_OK/GD32VW55X_Wifi_BLE_SDK/GD32VW55x_RELEASE_V1.0.2/MSDK/cloud/alicloud/src/services/dev_bind\awss_report.c ****     int ret, len;
  94:C:/Users/stapi/OneDrive/Desktop/GD32VW553/V1_MQTT_OK/GD32VW55X_Wifi_BLE_SDK/GD32VW55x_RELEASE_V1.0.2/MSDK/cloud/alicloud/src/services/dev_bind\awss_report.c ****     char *payload;
  95:C:/Users/stapi/OneDrive/Desktop/GD32VW553/V1_MQTT_OK/GD32VW55X_Wifi_BLE_SDK/GD32VW55x_RELEASE_V1.0.2/MSDK/cloud/alicloud/src/services/dev_bind\awss_report.c ****     char *id = NULL;
  96:C:/Users/stapi/OneDrive/Desktop/GD32VW553/V1_MQTT_OK/GD32VW55X_Wifi_BLE_SDK/GD32VW55x_RELEASE_V1.0.2/MSDK/cloud/alicloud/src/services/dev_bind\awss_report.c ****     char reply_id = 0;
  97:C:/Users/stapi/OneDrive/Desktop/GD32VW553/V1_MQTT_OK/GD32VW55X_Wifi_BLE_SDK/GD32VW55x_RELEASE_V1.0.2/MSDK/cloud/alicloud/src/services/dev_bind\awss_report.c ****     uint32_t payload_len;
  98:C:/Users/stapi/OneDrive/Desktop/GD32VW553/V1_MQTT_OK/GD32VW55X_Wifi_BLE_SDK/GD32VW55x_RELEASE_V1.0.2/MSDK/cloud/alicloud/src/services/dev_bind\awss_report.c **** 
  99:C:/Users/stapi/OneDrive/Desktop/GD32VW553/V1_MQTT_OK/GD32VW55X_Wifi_BLE_SDK/GD32VW55x_RELEASE_V1.0.2/MSDK/cloud/alicloud/src/services/dev_bind\awss_report.c ****     ret = awss_cmp_mqtt_get_payload(msg, &payload, &payload_len);
 100:C:/Users/stapi/OneDrive/Desktop/GD32VW553/V1_MQTT_OK/GD32VW55X_Wifi_BLE_SDK/GD32VW55x_RELEASE_V1.0.2/MSDK/cloud/alicloud/src/services/dev_bind\awss_report.c **** 
 101:C:/Users/stapi/OneDrive/Desktop/GD32VW553/V1_MQTT_OK/GD32VW55X_Wifi_BLE_SDK/GD32VW55x_RELEASE_V1.0.2/MSDK/cloud/alicloud/src/services/dev_bind\awss_report.c ****     if (ret != 0 || payload == NULL || payload_len == 0) {
 102:C:/Users/stapi/OneDrive/Desktop/GD32VW553/V1_MQTT_OK/GD32VW55X_Wifi_BLE_SDK/GD32VW55x_RELEASE_V1.0.2/MSDK/cloud/alicloud/src/services/dev_bind\awss_report.c ****         dump_dev_bind_status(STATE_BIND_MQTT_RSP_INVALID, "null pointer");
 103:C:/Users/stapi/OneDrive/Desktop/GD32VW553/V1_MQTT_OK/GD32VW55X_Wifi_BLE_SDK/GD32VW55x_RELEASE_V1.0.2/MSDK/cloud/alicloud/src/services/dev_bind\awss_report.c ****         return;
 104:C:/Users/stapi/OneDrive/Desktop/GD32VW553/V1_MQTT_OK/GD32VW55X_Wifi_BLE_SDK/GD32VW55x_RELEASE_V1.0.2/MSDK/cloud/alicloud/src/services/dev_bind\awss_report.c ****     }
 105:C:/Users/stapi/OneDrive/Desktop/GD32VW553/V1_MQTT_OK/GD32VW55X_Wifi_BLE_SDK/GD32VW55x_RELEASE_V1.0.2/MSDK/cloud/alicloud/src/services/dev_bind\awss_report.c **** 
 106:C:/Users/stapi/OneDrive/Desktop/GD32VW553/V1_MQTT_OK/GD32VW55X_Wifi_BLE_SDK/GD32VW55x_RELEASE_V1.0.2/MSDK/cloud/alicloud/src/services/dev_bind\awss_report.c ****     id = json_get_value_by_name(payload, payload_len, AWSS_JSON_ID, &len, NULL);
 107:C:/Users/stapi/OneDrive/Desktop/GD32VW553/V1_MQTT_OK/GD32VW55X_Wifi_BLE_SDK/GD32VW55x_RELEASE_V1.0.2/MSDK/cloud/alicloud/src/services/dev_bind\awss_report.c ****     if (id == NULL) {
 108:C:/Users/stapi/OneDrive/Desktop/GD32VW553/V1_MQTT_OK/GD32VW55X_Wifi_BLE_SDK/GD32VW55x_RELEASE_V1.0.2/MSDK/cloud/alicloud/src/services/dev_bind\awss_report.c ****         dump_dev_bind_status(STATE_BIND_MQTT_RSP_INVALID, "no id");
 109:C:/Users/stapi/OneDrive/Desktop/GD32VW553/V1_MQTT_OK/GD32VW55X_Wifi_BLE_SDK/GD32VW55x_RELEASE_V1.0.2/MSDK/cloud/alicloud/src/services/dev_bind\awss_report.c ****         return;
 110:C:/Users/stapi/OneDrive/Desktop/GD32VW553/V1_MQTT_OK/GD32VW55X_Wifi_BLE_SDK/GD32VW55x_RELEASE_V1.0.2/MSDK/cloud/alicloud/src/services/dev_bind\awss_report.c ****     }
 111:C:/Users/stapi/OneDrive/Desktop/GD32VW553/V1_MQTT_OK/GD32VW55X_Wifi_BLE_SDK/GD32VW55x_RELEASE_V1.0.2/MSDK/cloud/alicloud/src/services/dev_bind\awss_report.c **** 
 112:C:/Users/stapi/OneDrive/Desktop/GD32VW553/V1_MQTT_OK/GD32VW55X_Wifi_BLE_SDK/GD32VW55x_RELEASE_V1.0.2/MSDK/cloud/alicloud/src/services/dev_bind\awss_report.c ****     reply_id = atoi(id);
 113:C:/Users/stapi/OneDrive/Desktop/GD32VW553/V1_MQTT_OK/GD32VW55X_Wifi_BLE_SDK/GD32VW55x_RELEASE_V1.0.2/MSDK/cloud/alicloud/src/services/dev_bind\awss_report.c ****     if (reply_id + 1 < awss_report_id) {
 114:C:/Users/stapi/OneDrive/Desktop/GD32VW553/V1_MQTT_OK/GD32VW55X_Wifi_BLE_SDK/GD32VW55x_RELEASE_V1.0.2/MSDK/cloud/alicloud/src/services/dev_bind\awss_report.c ****         dump_dev_bind_status(STATE_BIND_MQTT_MSGID_INVALID, "reply id invalid");
 115:C:/Users/stapi/OneDrive/Desktop/GD32VW553/V1_MQTT_OK/GD32VW55X_Wifi_BLE_SDK/GD32VW55x_RELEASE_V1.0.2/MSDK/cloud/alicloud/src/services/dev_bind\awss_report.c ****         return;
 116:C:/Users/stapi/OneDrive/Desktop/GD32VW553/V1_MQTT_OK/GD32VW55X_Wifi_BLE_SDK/GD32VW55x_RELEASE_V1.0.2/MSDK/cloud/alicloud/src/services/dev_bind\awss_report.c ****     }
 117:C:/Users/stapi/OneDrive/Desktop/GD32VW553/V1_MQTT_OK/GD32VW55X_Wifi_BLE_SDK/GD32VW55x_RELEASE_V1.0.2/MSDK/cloud/alicloud/src/services/dev_bind\awss_report.c ****     awss_info("%s\r\n", __func__);
 118:C:/Users/stapi/OneDrive/Desktop/GD32VW553/V1_MQTT_OK/GD32VW55X_Wifi_BLE_SDK/GD32VW55x_RELEASE_V1.0.2/MSDK/cloud/alicloud/src/services/dev_bind\awss_report.c ****     dump_dev_bind_status(STATE_BIND_REPORT_TOKEN_SUCCESS, "report token success");
 119:C:/Users/stapi/OneDrive/Desktop/GD32VW553/V1_MQTT_OK/GD32VW55X_Wifi_BLE_SDK/GD32VW55x_RELEASE_V1.0.2/MSDK/cloud/alicloud/src/services/dev_bind\awss_report.c ****     awss_report_token_suc = 1;
 120:C:/Users/stapi/OneDrive/Desktop/GD32VW553/V1_MQTT_OK/GD32VW55X_Wifi_BLE_SDK/GD32VW55x_RELEASE_V1.0.2/MSDK/cloud/alicloud/src/services/dev_bind\awss_report.c ****     iotx_event_post(IOTX_CONN_REPORT_TOKEN_SUC);
 121:C:/Users/stapi/OneDrive/Desktop/GD32VW553/V1_MQTT_OK/GD32VW55X_Wifi_BLE_SDK/GD32VW55x_RELEASE_V1.0.2/MSDK/cloud/alicloud/src/services/dev_bind\awss_report.c ****     awss_stop_timer(report_token_timer);
 122:C:/Users/stapi/OneDrive/Desktop/GD32VW553/V1_MQTT_OK/GD32VW55X_Wifi_BLE_SDK/GD32VW55x_RELEASE_V1.0.2/MSDK/cloud/alicloud/src/services/dev_bind\awss_report.c ****     report_token_timer = NULL;
 123:C:/Users/stapi/OneDrive/Desktop/GD32VW553/V1_MQTT_OK/GD32VW55X_Wifi_BLE_SDK/GD32VW55x_RELEASE_V1.0.2/MSDK/cloud/alicloud/src/services/dev_bind\awss_report.c ****     AWSS_DB_UPDATE_STATIS(AWSS_DB_STATIS_SUC);
 124:C:/Users/stapi/OneDrive/Desktop/GD32VW553/V1_MQTT_OK/GD32VW55X_Wifi_BLE_SDK/GD32VW55x_RELEASE_V1.0.2/MSDK/cloud/alicloud/src/services/dev_bind\awss_report.c ****     AWSS_DB_DISP_STATIS();
 125:C:/Users/stapi/OneDrive/Desktop/GD32VW553/V1_MQTT_OK/GD32VW55X_Wifi_BLE_SDK/GD32VW55x_RELEASE_V1.0.2/MSDK/cloud/alicloud/src/services/dev_bind\awss_report.c ****     return;
 126:C:/Users/stapi/OneDrive/Desktop/GD32VW553/V1_MQTT_OK/GD32VW55X_Wifi_BLE_SDK/GD32VW55x_RELEASE_V1.0.2/MSDK/cloud/alicloud/src/services/dev_bind\awss_report.c **** }
 127:C:/Users/stapi/OneDrive/Desktop/GD32VW553/V1_MQTT_OK/GD32VW55X_Wifi_BLE_SDK/GD32VW55x_RELEASE_V1.0.2/MSDK/cloud/alicloud/src/services/dev_bind\awss_report.c **** 
 128:C:/Users/stapi/OneDrive/Desktop/GD32VW553/V1_MQTT_OK/GD32VW55X_Wifi_BLE_SDK/GD32VW55x_RELEASE_V1.0.2/MSDK/cloud/alicloud/src/services/dev_bind\awss_report.c **** #ifdef WIFI_PROVISION_ENABLED
 129:C:/Users/stapi/OneDrive/Desktop/GD32VW553/V1_MQTT_OK/GD32VW55X_Wifi_BLE_SDK/GD32VW55x_RELEASE_V1.0.2/MSDK/cloud/alicloud/src/services/dev_bind\awss_report.c **** void awss_online_switchap(void *pcontext, void *pclient, void *msg)
 130:C:/Users/stapi/OneDrive/Desktop/GD32VW553/V1_MQTT_OK/GD32VW55X_Wifi_BLE_SDK/GD32VW55x_RELEASE_V1.0.2/MSDK/cloud/alicloud/src/services/dev_bind\awss_report.c **** {
 131:C:/Users/stapi/OneDrive/Desktop/GD32VW553/V1_MQTT_OK/GD32VW55X_Wifi_BLE_SDK/GD32VW55x_RELEASE_V1.0.2/MSDK/cloud/alicloud/src/services/dev_bind\awss_report.c **** #define SWITCHAP_RSP_LEN   (64)
 132:C:/Users/stapi/OneDrive/Desktop/GD32VW553/V1_MQTT_OK/GD32VW55X_Wifi_BLE_SDK/GD32VW55x_RELEASE_V1.0.2/MSDK/cloud/alicloud/src/services/dev_bind\awss_report.c **** #define AWSS_BSSID_STR_LEN (17)
 133:C:/Users/stapi/OneDrive/Desktop/GD32VW553/V1_MQTT_OK/GD32VW55X_Wifi_BLE_SDK/GD32VW55x_RELEASE_V1.0.2/MSDK/cloud/alicloud/src/services/dev_bind\awss_report.c **** #define AWSS_SSID          "ssid"
 134:C:/Users/stapi/OneDrive/Desktop/GD32VW553/V1_MQTT_OK/GD32VW55X_Wifi_BLE_SDK/GD32VW55x_RELEASE_V1.0.2/MSDK/cloud/alicloud/src/services/dev_bind\awss_report.c **** #define AWSS_PASSWD        "passwd"
 135:C:/Users/stapi/OneDrive/Desktop/GD32VW553/V1_MQTT_OK/GD32VW55X_Wifi_BLE_SDK/GD32VW55x_RELEASE_V1.0.2/MSDK/cloud/alicloud/src/services/dev_bind\awss_report.c **** #define AWSS_BSSID         "bssid"
 136:C:/Users/stapi/OneDrive/Desktop/GD32VW553/V1_MQTT_OK/GD32VW55X_Wifi_BLE_SDK/GD32VW55x_RELEASE_V1.0.2/MSDK/cloud/alicloud/src/services/dev_bind\awss_report.c **** #define AWSS_SWITCH_MODE   "switchMode"
 137:C:/Users/stapi/OneDrive/Desktop/GD32VW553/V1_MQTT_OK/GD32VW55X_Wifi_BLE_SDK/GD32VW55x_RELEASE_V1.0.2/MSDK/cloud/alicloud/src/services/dev_bind\awss_report.c **** #define AWSS_TIMEOUT       "timeout"
 138:C:/Users/stapi/OneDrive/Desktop/GD32VW553/V1_MQTT_OK/GD32VW55X_Wifi_BLE_SDK/GD32VW55x_RELEASE_V1.0.2/MSDK/cloud/alicloud/src/services/dev_bind\awss_report.c **** 
 139:C:/Users/stapi/OneDrive/Desktop/GD32VW553/V1_MQTT_OK/GD32VW55X_Wifi_BLE_SDK/GD32VW55x_RELEASE_V1.0.2/MSDK/cloud/alicloud/src/services/dev_bind\awss_report.c ****     int len = 0, timeout = 0;
 140:C:/Users/stapi/OneDrive/Desktop/GD32VW553/V1_MQTT_OK/GD32VW55X_Wifi_BLE_SDK/GD32VW55x_RELEASE_V1.0.2/MSDK/cloud/alicloud/src/services/dev_bind\awss_report.c ****     char *packet = NULL, *awss_info = NULL, *elem = NULL;
 141:C:/Users/stapi/OneDrive/Desktop/GD32VW553/V1_MQTT_OK/GD32VW55X_Wifi_BLE_SDK/GD32VW55x_RELEASE_V1.0.2/MSDK/cloud/alicloud/src/services/dev_bind\awss_report.c ****     int packet_len = SWITCHAP_RSP_LEN, awss_info_len = 0;
 142:C:/Users/stapi/OneDrive/Desktop/GD32VW553/V1_MQTT_OK/GD32VW55X_Wifi_BLE_SDK/GD32VW55x_RELEASE_V1.0.2/MSDK/cloud/alicloud/src/services/dev_bind\awss_report.c **** 
 143:C:/Users/stapi/OneDrive/Desktop/GD32VW553/V1_MQTT_OK/GD32VW55X_Wifi_BLE_SDK/GD32VW55x_RELEASE_V1.0.2/MSDK/cloud/alicloud/src/services/dev_bind\awss_report.c ****     uint32_t payload_len;
 144:C:/Users/stapi/OneDrive/Desktop/GD32VW553/V1_MQTT_OK/GD32VW55X_Wifi_BLE_SDK/GD32VW55x_RELEASE_V1.0.2/MSDK/cloud/alicloud/src/services/dev_bind\awss_report.c ****     char *payload;
 145:C:/Users/stapi/OneDrive/Desktop/GD32VW553/V1_MQTT_OK/GD32VW55X_Wifi_BLE_SDK/GD32VW55x_RELEASE_V1.0.2/MSDK/cloud/alicloud/src/services/dev_bind\awss_report.c ****     int ret;
 146:C:/Users/stapi/OneDrive/Desktop/GD32VW553/V1_MQTT_OK/GD32VW55X_Wifi_BLE_SDK/GD32VW55x_RELEASE_V1.0.2/MSDK/cloud/alicloud/src/services/dev_bind\awss_report.c **** 
 147:C:/Users/stapi/OneDrive/Desktop/GD32VW553/V1_MQTT_OK/GD32VW55X_Wifi_BLE_SDK/GD32VW55x_RELEASE_V1.0.2/MSDK/cloud/alicloud/src/services/dev_bind\awss_report.c ****     ret = awss_cmp_mqtt_get_payload(msg, &payload, &payload_len);
 148:C:/Users/stapi/OneDrive/Desktop/GD32VW553/V1_MQTT_OK/GD32VW55X_Wifi_BLE_SDK/GD32VW55x_RELEASE_V1.0.2/MSDK/cloud/alicloud/src/services/dev_bind\awss_report.c **** 
 149:C:/Users/stapi/OneDrive/Desktop/GD32VW553/V1_MQTT_OK/GD32VW55X_Wifi_BLE_SDK/GD32VW55x_RELEASE_V1.0.2/MSDK/cloud/alicloud/src/services/dev_bind\awss_report.c ****     if (ret != 0) {
 150:C:/Users/stapi/OneDrive/Desktop/GD32VW553/V1_MQTT_OK/GD32VW55X_Wifi_BLE_SDK/GD32VW55x_RELEASE_V1.0.2/MSDK/cloud/alicloud/src/services/dev_bind\awss_report.c ****         goto ONLINE_SWITCHAP_FAIL;
 151:C:/Users/stapi/OneDrive/Desktop/GD32VW553/V1_MQTT_OK/GD32VW55X_Wifi_BLE_SDK/GD32VW55x_RELEASE_V1.0.2/MSDK/cloud/alicloud/src/services/dev_bind\awss_report.c ****     }
 152:C:/Users/stapi/OneDrive/Desktop/GD32VW553/V1_MQTT_OK/GD32VW55X_Wifi_BLE_SDK/GD32VW55x_RELEASE_V1.0.2/MSDK/cloud/alicloud/src/services/dev_bind\awss_report.c **** 
 153:C:/Users/stapi/OneDrive/Desktop/GD32VW553/V1_MQTT_OK/GD32VW55X_Wifi_BLE_SDK/GD32VW55x_RELEASE_V1.0.2/MSDK/cloud/alicloud/src/services/dev_bind\awss_report.c ****     if (payload == NULL || payload_len == 0) {
 154:C:/Users/stapi/OneDrive/Desktop/GD32VW553/V1_MQTT_OK/GD32VW55X_Wifi_BLE_SDK/GD32VW55x_RELEASE_V1.0.2/MSDK/cloud/alicloud/src/services/dev_bind\awss_report.c ****         goto ONLINE_SWITCHAP_FAIL;
 155:C:/Users/stapi/OneDrive/Desktop/GD32VW553/V1_MQTT_OK/GD32VW55X_Wifi_BLE_SDK/GD32VW55x_RELEASE_V1.0.2/MSDK/cloud/alicloud/src/services/dev_bind\awss_report.c ****     }
 156:C:/Users/stapi/OneDrive/Desktop/GD32VW553/V1_MQTT_OK/GD32VW55X_Wifi_BLE_SDK/GD32VW55x_RELEASE_V1.0.2/MSDK/cloud/alicloud/src/services/dev_bind\awss_report.c **** 
 157:C:/Users/stapi/OneDrive/Desktop/GD32VW553/V1_MQTT_OK/GD32VW55X_Wifi_BLE_SDK/GD32VW55x_RELEASE_V1.0.2/MSDK/cloud/alicloud/src/services/dev_bind\awss_report.c ****     awss_debug("online switchap len:%u, payload:%s\r\n", payload_len, payload);
 158:C:/Users/stapi/OneDrive/Desktop/GD32VW553/V1_MQTT_OK/GD32VW55X_Wifi_BLE_SDK/GD32VW55x_RELEASE_V1.0.2/MSDK/cloud/alicloud/src/services/dev_bind\awss_report.c ****     packet = os_zalloc(packet_len + 1);
 159:C:/Users/stapi/OneDrive/Desktop/GD32VW553/V1_MQTT_OK/GD32VW55X_Wifi_BLE_SDK/GD32VW55x_RELEASE_V1.0.2/MSDK/cloud/alicloud/src/services/dev_bind\awss_report.c ****     if (packet == NULL) {
 160:C:/Users/stapi/OneDrive/Desktop/GD32VW553/V1_MQTT_OK/GD32VW55X_Wifi_BLE_SDK/GD32VW55x_RELEASE_V1.0.2/MSDK/cloud/alicloud/src/services/dev_bind\awss_report.c ****         goto ONLINE_SWITCHAP_FAIL;
 161:C:/Users/stapi/OneDrive/Desktop/GD32VW553/V1_MQTT_OK/GD32VW55X_Wifi_BLE_SDK/GD32VW55x_RELEASE_V1.0.2/MSDK/cloud/alicloud/src/services/dev_bind\awss_report.c ****     }
 162:C:/Users/stapi/OneDrive/Desktop/GD32VW553/V1_MQTT_OK/GD32VW55X_Wifi_BLE_SDK/GD32VW55x_RELEASE_V1.0.2/MSDK/cloud/alicloud/src/services/dev_bind\awss_report.c **** 
 163:C:/Users/stapi/OneDrive/Desktop/GD32VW553/V1_MQTT_OK/GD32VW55X_Wifi_BLE_SDK/GD32VW55x_RELEASE_V1.0.2/MSDK/cloud/alicloud/src/services/dev_bind\awss_report.c ****     awss_info = json_get_value_by_name(payload, payload_len, AWSS_JSON_PARAM, &awss_info_len, NULL)
 164:C:/Users/stapi/OneDrive/Desktop/GD32VW553/V1_MQTT_OK/GD32VW55X_Wifi_BLE_SDK/GD32VW55x_RELEASE_V1.0.2/MSDK/cloud/alicloud/src/services/dev_bind\awss_report.c ****     if (awss_info == NULL || awss_info_len == 0) {
 165:C:/Users/stapi/OneDrive/Desktop/GD32VW553/V1_MQTT_OK/GD32VW55X_Wifi_BLE_SDK/GD32VW55x_RELEASE_V1.0.2/MSDK/cloud/alicloud/src/services/dev_bind\awss_report.c ****         goto ONLINE_SWITCHAP_FAIL;
 166:C:/Users/stapi/OneDrive/Desktop/GD32VW553/V1_MQTT_OK/GD32VW55X_Wifi_BLE_SDK/GD32VW55x_RELEASE_V1.0.2/MSDK/cloud/alicloud/src/services/dev_bind\awss_report.c ****     }
 167:C:/Users/stapi/OneDrive/Desktop/GD32VW553/V1_MQTT_OK/GD32VW55X_Wifi_BLE_SDK/GD32VW55x_RELEASE_V1.0.2/MSDK/cloud/alicloud/src/services/dev_bind\awss_report.c **** 
 168:C:/Users/stapi/OneDrive/Desktop/GD32VW553/V1_MQTT_OK/GD32VW55X_Wifi_BLE_SDK/GD32VW55x_RELEASE_V1.0.2/MSDK/cloud/alicloud/src/services/dev_bind\awss_report.c ****     /*
 169:C:/Users/stapi/OneDrive/Desktop/GD32VW553/V1_MQTT_OK/GD32VW55X_Wifi_BLE_SDK/GD32VW55x_RELEASE_V1.0.2/MSDK/cloud/alicloud/src/services/dev_bind\awss_report.c ****      * get SSID , PASSWD, BSSID of router
 170:C:/Users/stapi/OneDrive/Desktop/GD32VW553/V1_MQTT_OK/GD32VW55X_Wifi_BLE_SDK/GD32VW55x_RELEASE_V1.0.2/MSDK/cloud/alicloud/src/services/dev_bind\awss_report.c ****      */
 171:C:/Users/stapi/OneDrive/Desktop/GD32VW553/V1_MQTT_OK/GD32VW55X_Wifi_BLE_SDK/GD32VW55x_RELEASE_V1.0.2/MSDK/cloud/alicloud/src/services/dev_bind\awss_report.c ****     elem = json_get_value_by_name(awss_info, awss_info_len, AWSS_SSID, &len, NULL);
 172:C:/Users/stapi/OneDrive/Desktop/GD32VW553/V1_MQTT_OK/GD32VW55X_Wifi_BLE_SDK/GD32VW55x_RELEASE_V1.0.2/MSDK/cloud/alicloud/src/services/dev_bind\awss_report.c ****     if (elem == NULL || len <= 0 || len >= OS_MAX_SSID_LEN) {
 173:C:/Users/stapi/OneDrive/Desktop/GD32VW553/V1_MQTT_OK/GD32VW55X_Wifi_BLE_SDK/GD32VW55x_RELEASE_V1.0.2/MSDK/cloud/alicloud/src/services/dev_bind\awss_report.c ****         goto ONLINE_SWITCHAP_FAIL;
 174:C:/Users/stapi/OneDrive/Desktop/GD32VW553/V1_MQTT_OK/GD32VW55X_Wifi_BLE_SDK/GD32VW55x_RELEASE_V1.0.2/MSDK/cloud/alicloud/src/services/dev_bind\awss_report.c ****     }
 175:C:/Users/stapi/OneDrive/Desktop/GD32VW553/V1_MQTT_OK/GD32VW55X_Wifi_BLE_SDK/GD32VW55x_RELEASE_V1.0.2/MSDK/cloud/alicloud/src/services/dev_bind\awss_report.c **** 
 176:C:/Users/stapi/OneDrive/Desktop/GD32VW553/V1_MQTT_OK/GD32VW55X_Wifi_BLE_SDK/GD32VW55x_RELEASE_V1.0.2/MSDK/cloud/alicloud/src/services/dev_bind\awss_report.c ****     memset(switchap_ssid, 0, sizeof(switchap_ssid));
 177:C:/Users/stapi/OneDrive/Desktop/GD32VW553/V1_MQTT_OK/GD32VW55X_Wifi_BLE_SDK/GD32VW55x_RELEASE_V1.0.2/MSDK/cloud/alicloud/src/services/dev_bind\awss_report.c ****     memcpy(switchap_ssid, elem, len);
 178:C:/Users/stapi/OneDrive/Desktop/GD32VW553/V1_MQTT_OK/GD32VW55X_Wifi_BLE_SDK/GD32VW55x_RELEASE_V1.0.2/MSDK/cloud/alicloud/src/services/dev_bind\awss_report.c **** 
 179:C:/Users/stapi/OneDrive/Desktop/GD32VW553/V1_MQTT_OK/GD32VW55X_Wifi_BLE_SDK/GD32VW55x_RELEASE_V1.0.2/MSDK/cloud/alicloud/src/services/dev_bind\awss_report.c ****     len = 0;
 180:C:/Users/stapi/OneDrive/Desktop/GD32VW553/V1_MQTT_OK/GD32VW55X_Wifi_BLE_SDK/GD32VW55x_RELEASE_V1.0.2/MSDK/cloud/alicloud/src/services/dev_bind\awss_report.c ****     elem = json_get_value_by_name(awss_info, awss_info_len, AWSS_PASSWD, &len, NULL);
 181:C:/Users/stapi/OneDrive/Desktop/GD32VW553/V1_MQTT_OK/GD32VW55X_Wifi_BLE_SDK/GD32VW55x_RELEASE_V1.0.2/MSDK/cloud/alicloud/src/services/dev_bind\awss_report.c ****     if (elem == NULL || len <= 0 || len >= OS_MAX_PASSWD_LEN) {
 182:C:/Users/stapi/OneDrive/Desktop/GD32VW553/V1_MQTT_OK/GD32VW55X_Wifi_BLE_SDK/GD32VW55x_RELEASE_V1.0.2/MSDK/cloud/alicloud/src/services/dev_bind\awss_report.c ****         goto ONLINE_SWITCHAP_FAIL;
 183:C:/Users/stapi/OneDrive/Desktop/GD32VW553/V1_MQTT_OK/GD32VW55X_Wifi_BLE_SDK/GD32VW55x_RELEASE_V1.0.2/MSDK/cloud/alicloud/src/services/dev_bind\awss_report.c ****     }
 184:C:/Users/stapi/OneDrive/Desktop/GD32VW553/V1_MQTT_OK/GD32VW55X_Wifi_BLE_SDK/GD32VW55x_RELEASE_V1.0.2/MSDK/cloud/alicloud/src/services/dev_bind\awss_report.c **** 
 185:C:/Users/stapi/OneDrive/Desktop/GD32VW553/V1_MQTT_OK/GD32VW55X_Wifi_BLE_SDK/GD32VW55x_RELEASE_V1.0.2/MSDK/cloud/alicloud/src/services/dev_bind\awss_report.c ****     memset(switchap_passwd, 0, sizeof(switchap_passwd));
 186:C:/Users/stapi/OneDrive/Desktop/GD32VW553/V1_MQTT_OK/GD32VW55X_Wifi_BLE_SDK/GD32VW55x_RELEASE_V1.0.2/MSDK/cloud/alicloud/src/services/dev_bind\awss_report.c ****     memcpy(switchap_passwd, elem, len);
 187:C:/Users/stapi/OneDrive/Desktop/GD32VW553/V1_MQTT_OK/GD32VW55X_Wifi_BLE_SDK/GD32VW55x_RELEASE_V1.0.2/MSDK/cloud/alicloud/src/services/dev_bind\awss_report.c **** 
 188:C:/Users/stapi/OneDrive/Desktop/GD32VW553/V1_MQTT_OK/GD32VW55X_Wifi_BLE_SDK/GD32VW55x_RELEASE_V1.0.2/MSDK/cloud/alicloud/src/services/dev_bind\awss_report.c ****     len = 0;
 189:C:/Users/stapi/OneDrive/Desktop/GD32VW553/V1_MQTT_OK/GD32VW55X_Wifi_BLE_SDK/GD32VW55x_RELEASE_V1.0.2/MSDK/cloud/alicloud/src/services/dev_bind\awss_report.c ****     memset(switchap_bssid, 0, sizeof(switchap_bssid));
 190:C:/Users/stapi/OneDrive/Desktop/GD32VW553/V1_MQTT_OK/GD32VW55X_Wifi_BLE_SDK/GD32VW55x_RELEASE_V1.0.2/MSDK/cloud/alicloud/src/services/dev_bind\awss_report.c ****     elem = json_get_value_by_name(awss_info, awss_info_len, AWSS_BSSID, &len, NULL);
 191:C:/Users/stapi/OneDrive/Desktop/GD32VW553/V1_MQTT_OK/GD32VW55X_Wifi_BLE_SDK/GD32VW55x_RELEASE_V1.0.2/MSDK/cloud/alicloud/src/services/dev_bind\awss_report.c **** 
 192:C:/Users/stapi/OneDrive/Desktop/GD32VW553/V1_MQTT_OK/GD32VW55X_Wifi_BLE_SDK/GD32VW55x_RELEASE_V1.0.2/MSDK/cloud/alicloud/src/services/dev_bind\awss_report.c ****     if (elem != NULL && len == AWSS_BSSID_STR_LEN) {
 193:C:/Users/stapi/OneDrive/Desktop/GD32VW553/V1_MQTT_OK/GD32VW55X_Wifi_BLE_SDK/GD32VW55x_RELEASE_V1.0.2/MSDK/cloud/alicloud/src/services/dev_bind\awss_report.c ****         uint8_t i = 0;
 194:C:/Users/stapi/OneDrive/Desktop/GD32VW553/V1_MQTT_OK/GD32VW55X_Wifi_BLE_SDK/GD32VW55x_RELEASE_V1.0.2/MSDK/cloud/alicloud/src/services/dev_bind\awss_report.c ****         char *bssid_str = elem;
 195:C:/Users/stapi/OneDrive/Desktop/GD32VW553/V1_MQTT_OK/GD32VW55X_Wifi_BLE_SDK/GD32VW55x_RELEASE_V1.0.2/MSDK/cloud/alicloud/src/services/dev_bind\awss_report.c ****         // convert bssid string to bssid value
 196:C:/Users/stapi/OneDrive/Desktop/GD32VW553/V1_MQTT_OK/GD32VW55X_Wifi_BLE_SDK/GD32VW55x_RELEASE_V1.0.2/MSDK/cloud/alicloud/src/services/dev_bind\awss_report.c ****         while (i < OS_ETH_ALEN) {
 197:C:/Users/stapi/OneDrive/Desktop/GD32VW553/V1_MQTT_OK/GD32VW55X_Wifi_BLE_SDK/GD32VW55x_RELEASE_V1.0.2/MSDK/cloud/alicloud/src/services/dev_bind\awss_report.c ****             switchap_bssid[i ++] = (uint8_t)strtol(bssid_str, &bssid_str, 16);
 198:C:/Users/stapi/OneDrive/Desktop/GD32VW553/V1_MQTT_OK/GD32VW55X_Wifi_BLE_SDK/GD32VW55x_RELEASE_V1.0.2/MSDK/cloud/alicloud/src/services/dev_bind\awss_report.c ****             ++ bssid_str;
 199:C:/Users/stapi/OneDrive/Desktop/GD32VW553/V1_MQTT_OK/GD32VW55X_Wifi_BLE_SDK/GD32VW55x_RELEASE_V1.0.2/MSDK/cloud/alicloud/src/services/dev_bind\awss_report.c ****             /*
 200:C:/Users/stapi/OneDrive/Desktop/GD32VW553/V1_MQTT_OK/GD32VW55X_Wifi_BLE_SDK/GD32VW55x_RELEASE_V1.0.2/MSDK/cloud/alicloud/src/services/dev_bind\awss_report.c ****              * fix the format of bssid string is not legal.
 201:C:/Users/stapi/OneDrive/Desktop/GD32VW553/V1_MQTT_OK/GD32VW55X_Wifi_BLE_SDK/GD32VW55x_RELEASE_V1.0.2/MSDK/cloud/alicloud/src/services/dev_bind\awss_report.c ****              */
 202:C:/Users/stapi/OneDrive/Desktop/GD32VW553/V1_MQTT_OK/GD32VW55X_Wifi_BLE_SDK/GD32VW55x_RELEASE_V1.0.2/MSDK/cloud/alicloud/src/services/dev_bind\awss_report.c ****             if ((uint32_t)((unsigned long)bssid_str - (unsigned long)elem) > AWSS_BSSID_STR_LEN) {
 203:C:/Users/stapi/OneDrive/Desktop/GD32VW553/V1_MQTT_OK/GD32VW55X_Wifi_BLE_SDK/GD32VW55x_RELEASE_V1.0.2/MSDK/cloud/alicloud/src/services/dev_bind\awss_report.c ****                 memset(switchap_bssid, 0, sizeof(switchap_bssid));
 204:C:/Users/stapi/OneDrive/Desktop/GD32VW553/V1_MQTT_OK/GD32VW55X_Wifi_BLE_SDK/GD32VW55x_RELEASE_V1.0.2/MSDK/cloud/alicloud/src/services/dev_bind\awss_report.c ****                 break;
 205:C:/Users/stapi/OneDrive/Desktop/GD32VW553/V1_MQTT_OK/GD32VW55X_Wifi_BLE_SDK/GD32VW55x_RELEASE_V1.0.2/MSDK/cloud/alicloud/src/services/dev_bind\awss_report.c ****             }
 206:C:/Users/stapi/OneDrive/Desktop/GD32VW553/V1_MQTT_OK/GD32VW55X_Wifi_BLE_SDK/GD32VW55x_RELEASE_V1.0.2/MSDK/cloud/alicloud/src/services/dev_bind\awss_report.c ****         }
 207:C:/Users/stapi/OneDrive/Desktop/GD32VW553/V1_MQTT_OK/GD32VW55X_Wifi_BLE_SDK/GD32VW55x_RELEASE_V1.0.2/MSDK/cloud/alicloud/src/services/dev_bind\awss_report.c ****     }
 208:C:/Users/stapi/OneDrive/Desktop/GD32VW553/V1_MQTT_OK/GD32VW55X_Wifi_BLE_SDK/GD32VW55x_RELEASE_V1.0.2/MSDK/cloud/alicloud/src/services/dev_bind\awss_report.c **** 
 209:C:/Users/stapi/OneDrive/Desktop/GD32VW553/V1_MQTT_OK/GD32VW55X_Wifi_BLE_SDK/GD32VW55x_RELEASE_V1.0.2/MSDK/cloud/alicloud/src/services/dev_bind\awss_report.c ****     len = 0;
 210:C:/Users/stapi/OneDrive/Desktop/GD32VW553/V1_MQTT_OK/GD32VW55X_Wifi_BLE_SDK/GD32VW55x_RELEASE_V1.0.2/MSDK/cloud/alicloud/src/services/dev_bind\awss_report.c ****     elem = json_get_value_by_name(awss_info, awss_info_len, AWSS_SWITCH_MODE, &len, NULL);
 211:C:/Users/stapi/OneDrive/Desktop/GD32VW553/V1_MQTT_OK/GD32VW55X_Wifi_BLE_SDK/GD32VW55x_RELEASE_V1.0.2/MSDK/cloud/alicloud/src/services/dev_bind\awss_report.c ****     if (elem != NULL && (elem[0] == '0' || elem[0] == 0)) {
 212:C:/Users/stapi/OneDrive/Desktop/GD32VW553/V1_MQTT_OK/GD32VW55X_Wifi_BLE_SDK/GD32VW55x_RELEASE_V1.0.2/MSDK/cloud/alicloud/src/services/dev_bind\awss_report.c ****         elem = json_get_value_by_name(awss_info, awss_info_len, AWSS_TIMEOUT, &len, NULL);
 213:C:/Users/stapi/OneDrive/Desktop/GD32VW553/V1_MQTT_OK/GD32VW55X_Wifi_BLE_SDK/GD32VW55x_RELEASE_V1.0.2/MSDK/cloud/alicloud/src/services/dev_bind\awss_report.c ****         if (elem) {
 214:C:/Users/stapi/OneDrive/Desktop/GD32VW553/V1_MQTT_OK/GD32VW55X_Wifi_BLE_SDK/GD32VW55x_RELEASE_V1.0.2/MSDK/cloud/alicloud/src/services/dev_bind\awss_report.c ****             timeout = (int)strtol(elem, &elem, 16);
 215:C:/Users/stapi/OneDrive/Desktop/GD32VW553/V1_MQTT_OK/GD32VW55X_Wifi_BLE_SDK/GD32VW55x_RELEASE_V1.0.2/MSDK/cloud/alicloud/src/services/dev_bind\awss_report.c ****         }
 216:C:/Users/stapi/OneDrive/Desktop/GD32VW553/V1_MQTT_OK/GD32VW55X_Wifi_BLE_SDK/GD32VW55x_RELEASE_V1.0.2/MSDK/cloud/alicloud/src/services/dev_bind\awss_report.c ****     }
 217:C:/Users/stapi/OneDrive/Desktop/GD32VW553/V1_MQTT_OK/GD32VW55X_Wifi_BLE_SDK/GD32VW55x_RELEASE_V1.0.2/MSDK/cloud/alicloud/src/services/dev_bind\awss_report.c **** 
 218:C:/Users/stapi/OneDrive/Desktop/GD32VW553/V1_MQTT_OK/GD32VW55X_Wifi_BLE_SDK/GD32VW55x_RELEASE_V1.0.2/MSDK/cloud/alicloud/src/services/dev_bind\awss_report.c ****     do {
 219:C:/Users/stapi/OneDrive/Desktop/GD32VW553/V1_MQTT_OK/GD32VW55X_Wifi_BLE_SDK/GD32VW55x_RELEASE_V1.0.2/MSDK/cloud/alicloud/src/services/dev_bind\awss_report.c ****         // reduce stack used
 220:C:/Users/stapi/OneDrive/Desktop/GD32VW553/V1_MQTT_OK/GD32VW55X_Wifi_BLE_SDK/GD32VW55x_RELEASE_V1.0.2/MSDK/cloud/alicloud/src/services/dev_bind\awss_report.c ****         char *id = NULL;
 221:C:/Users/stapi/OneDrive/Desktop/GD32VW553/V1_MQTT_OK/GD32VW55X_Wifi_BLE_SDK/GD32VW55x_RELEASE_V1.0.2/MSDK/cloud/alicloud/src/services/dev_bind\awss_report.c ****         char id_str[MSG_REQ_ID_LEN] = {0};
 222:C:/Users/stapi/OneDrive/Desktop/GD32VW553/V1_MQTT_OK/GD32VW55X_Wifi_BLE_SDK/GD32VW55x_RELEASE_V1.0.2/MSDK/cloud/alicloud/src/services/dev_bind\awss_report.c ****         id = json_get_value_by_name(payload, payload_len, AWSS_JSON_ID, &len, NULL);
 223:C:/Users/stapi/OneDrive/Desktop/GD32VW553/V1_MQTT_OK/GD32VW55X_Wifi_BLE_SDK/GD32VW55x_RELEASE_V1.0.2/MSDK/cloud/alicloud/src/services/dev_bind\awss_report.c ****         memcpy(id_str, id, len > MSG_REQ_ID_LEN - 1 ? MSG_REQ_ID_LEN - 1 : len);
 224:C:/Users/stapi/OneDrive/Desktop/GD32VW553/V1_MQTT_OK/GD32VW55X_Wifi_BLE_SDK/GD32VW55x_RELEASE_V1.0.2/MSDK/cloud/alicloud/src/services/dev_bind\awss_report.c ****         awss_build_packet(AWSS_CMP_PKT_TYPE_RSP, id_str, ILOP_VER, METHOD_EVENT_ZC_SWITCHAP, "{}", 
 225:C:/Users/stapi/OneDrive/Desktop/GD32VW553/V1_MQTT_OK/GD32VW55X_Wifi_BLE_SDK/GD32VW55x_RELEASE_V1.0.2/MSDK/cloud/alicloud/src/services/dev_bind\awss_report.c ****     } while (0);
 226:C:/Users/stapi/OneDrive/Desktop/GD32VW553/V1_MQTT_OK/GD32VW55X_Wifi_BLE_SDK/GD32VW55x_RELEASE_V1.0.2/MSDK/cloud/alicloud/src/services/dev_bind\awss_report.c **** 
 227:C:/Users/stapi/OneDrive/Desktop/GD32VW553/V1_MQTT_OK/GD32VW55X_Wifi_BLE_SDK/GD32VW55x_RELEASE_V1.0.2/MSDK/cloud/alicloud/src/services/dev_bind\awss_report.c ****     do {
 228:C:/Users/stapi/OneDrive/Desktop/GD32VW553/V1_MQTT_OK/GD32VW55X_Wifi_BLE_SDK/GD32VW55x_RELEASE_V1.0.2/MSDK/cloud/alicloud/src/services/dev_bind\awss_report.c ****         char reply[TOPIC_LEN_MAX] = {0};
 229:C:/Users/stapi/OneDrive/Desktop/GD32VW553/V1_MQTT_OK/GD32VW55X_Wifi_BLE_SDK/GD32VW55x_RELEASE_V1.0.2/MSDK/cloud/alicloud/src/services/dev_bind\awss_report.c ****         awss_build_topic(TOPIC_SWITCHAP_REPLY, reply, TOPIC_LEN_MAX);
 230:C:/Users/stapi/OneDrive/Desktop/GD32VW553/V1_MQTT_OK/GD32VW55X_Wifi_BLE_SDK/GD32VW55x_RELEASE_V1.0.2/MSDK/cloud/alicloud/src/services/dev_bind\awss_report.c ****         awss_cmp_mqtt_send(reply, packet, packet_len, 1);
 231:C:/Users/stapi/OneDrive/Desktop/GD32VW553/V1_MQTT_OK/GD32VW55X_Wifi_BLE_SDK/GD32VW55x_RELEASE_V1.0.2/MSDK/cloud/alicloud/src/services/dev_bind\awss_report.c ****         os_free(packet);
 232:C:/Users/stapi/OneDrive/Desktop/GD32VW553/V1_MQTT_OK/GD32VW55X_Wifi_BLE_SDK/GD32VW55x_RELEASE_V1.0.2/MSDK/cloud/alicloud/src/services/dev_bind\awss_report.c ****     } while (0);
 233:C:/Users/stapi/OneDrive/Desktop/GD32VW553/V1_MQTT_OK/GD32VW55X_Wifi_BLE_SDK/GD32VW55x_RELEASE_V1.0.2/MSDK/cloud/alicloud/src/services/dev_bind\awss_report.c **** 
 234:C:/Users/stapi/OneDrive/Desktop/GD32VW553/V1_MQTT_OK/GD32VW55X_Wifi_BLE_SDK/GD32VW55x_RELEASE_V1.0.2/MSDK/cloud/alicloud/src/services/dev_bind\awss_report.c ****     /*
 235:C:/Users/stapi/OneDrive/Desktop/GD32VW553/V1_MQTT_OK/GD32VW55X_Wifi_BLE_SDK/GD32VW55x_RELEASE_V1.0.2/MSDK/cloud/alicloud/src/services/dev_bind\awss_report.c ****      * make sure the response would been received
 236:C:/Users/stapi/OneDrive/Desktop/GD32VW553/V1_MQTT_OK/GD32VW55X_Wifi_BLE_SDK/GD32VW55x_RELEASE_V1.0.2/MSDK/cloud/alicloud/src/services/dev_bind\awss_report.c ****      */
 237:C:/Users/stapi/OneDrive/Desktop/GD32VW553/V1_MQTT_OK/GD32VW55X_Wifi_BLE_SDK/GD32VW55x_RELEASE_V1.0.2/MSDK/cloud/alicloud/src/services/dev_bind\awss_report.c ****     if (timeout < 1000) {
 238:C:/Users/stapi/OneDrive/Desktop/GD32VW553/V1_MQTT_OK/GD32VW55X_Wifi_BLE_SDK/GD32VW55x_RELEASE_V1.0.2/MSDK/cloud/alicloud/src/services/dev_bind\awss_report.c ****         timeout = 1000;
 239:C:/Users/stapi/OneDrive/Desktop/GD32VW553/V1_MQTT_OK/GD32VW55X_Wifi_BLE_SDK/GD32VW55x_RELEASE_V1.0.2/MSDK/cloud/alicloud/src/services/dev_bind\awss_report.c ****     }
 240:C:/Users/stapi/OneDrive/Desktop/GD32VW553/V1_MQTT_OK/GD32VW55X_Wifi_BLE_SDK/GD32VW55x_RELEASE_V1.0.2/MSDK/cloud/alicloud/src/services/dev_bind\awss_report.c **** 
 241:C:/Users/stapi/OneDrive/Desktop/GD32VW553/V1_MQTT_OK/GD32VW55X_Wifi_BLE_SDK/GD32VW55x_RELEASE_V1.0.2/MSDK/cloud/alicloud/src/services/dev_bind\awss_report.c ****     do {
 242:C:/Users/stapi/OneDrive/Desktop/GD32VW553/V1_MQTT_OK/GD32VW55X_Wifi_BLE_SDK/GD32VW55x_RELEASE_V1.0.2/MSDK/cloud/alicloud/src/services/dev_bind\awss_report.c ****         uint8_t bssid[ETH_ALEN] = {0};
 243:C:/Users/stapi/OneDrive/Desktop/GD32VW553/V1_MQTT_OK/GD32VW55X_Wifi_BLE_SDK/GD32VW55x_RELEASE_V1.0.2/MSDK/cloud/alicloud/src/services/dev_bind\awss_report.c ****         char ssid[OS_MAX_SSID_LEN + 1] = {0}, passwd[OS_MAX_PASSWD_LEN + 1] = {0};
 244:C:/Users/stapi/OneDrive/Desktop/GD32VW553/V1_MQTT_OK/GD32VW55X_Wifi_BLE_SDK/GD32VW55x_RELEASE_V1.0.2/MSDK/cloud/alicloud/src/services/dev_bind\awss_report.c ****         os_wifi_get_ap_info(ssid, passwd, bssid);
 245:C:/Users/stapi/OneDrive/Desktop/GD32VW553/V1_MQTT_OK/GD32VW55X_Wifi_BLE_SDK/GD32VW55x_RELEASE_V1.0.2/MSDK/cloud/alicloud/src/services/dev_bind\awss_report.c ****         /*
 246:C:/Users/stapi/OneDrive/Desktop/GD32VW553/V1_MQTT_OK/GD32VW55X_Wifi_BLE_SDK/GD32VW55x_RELEASE_V1.0.2/MSDK/cloud/alicloud/src/services/dev_bind\awss_report.c ****          * switch ap when destination ap is differenct from current ap
 247:C:/Users/stapi/OneDrive/Desktop/GD32VW553/V1_MQTT_OK/GD32VW55X_Wifi_BLE_SDK/GD32VW55x_RELEASE_V1.0.2/MSDK/cloud/alicloud/src/services/dev_bind\awss_report.c ****          */
 248:C:/Users/stapi/OneDrive/Desktop/GD32VW553/V1_MQTT_OK/GD32VW55X_Wifi_BLE_SDK/GD32VW55x_RELEASE_V1.0.2/MSDK/cloud/alicloud/src/services/dev_bind\awss_report.c ****         if (strncmp(ssid, switchap_ssid, sizeof(ssid)) ||
 249:C:/Users/stapi/OneDrive/Desktop/GD32VW553/V1_MQTT_OK/GD32VW55X_Wifi_BLE_SDK/GD32VW55x_RELEASE_V1.0.2/MSDK/cloud/alicloud/src/services/dev_bind\awss_report.c ****             memcmp(bssid, switchap_bssid, sizeof(bssid)) ||
 250:C:/Users/stapi/OneDrive/Desktop/GD32VW553/V1_MQTT_OK/GD32VW55X_Wifi_BLE_SDK/GD32VW55x_RELEASE_V1.0.2/MSDK/cloud/alicloud/src/services/dev_bind\awss_report.c ****             strncmp(passwd, switchap_passwd, sizeof(passwd))) {
 251:C:/Users/stapi/OneDrive/Desktop/GD32VW553/V1_MQTT_OK/GD32VW55X_Wifi_BLE_SDK/GD32VW55x_RELEASE_V1.0.2/MSDK/cloud/alicloud/src/services/dev_bind\awss_report.c ****             if (switchap_timer == NULL) {
 252:C:/Users/stapi/OneDrive/Desktop/GD32VW553/V1_MQTT_OK/GD32VW55X_Wifi_BLE_SDK/GD32VW55x_RELEASE_V1.0.2/MSDK/cloud/alicloud/src/services/dev_bind\awss_report.c ****                 switchap_timer = HAL_Timer_Create("swichap_online", (void (*)(void *))awss_switch_a
 253:C:/Users/stapi/OneDrive/Desktop/GD32VW553/V1_MQTT_OK/GD32VW55X_Wifi_BLE_SDK/GD32VW55x_RELEASE_V1.0.2/MSDK/cloud/alicloud/src/services/dev_bind\awss_report.c ****             }
 254:C:/Users/stapi/OneDrive/Desktop/GD32VW553/V1_MQTT_OK/GD32VW55X_Wifi_BLE_SDK/GD32VW55x_RELEASE_V1.0.2/MSDK/cloud/alicloud/src/services/dev_bind\awss_report.c **** 
 255:C:/Users/stapi/OneDrive/Desktop/GD32VW553/V1_MQTT_OK/GD32VW55X_Wifi_BLE_SDK/GD32VW55x_RELEASE_V1.0.2/MSDK/cloud/alicloud/src/services/dev_bind\awss_report.c ****             HAL_Timer_Stop(switchap_timer);
 256:C:/Users/stapi/OneDrive/Desktop/GD32VW553/V1_MQTT_OK/GD32VW55X_Wifi_BLE_SDK/GD32VW55x_RELEASE_V1.0.2/MSDK/cloud/alicloud/src/services/dev_bind\awss_report.c ****             HAL_Timer_Start(switchap_timer, timeout);
 257:C:/Users/stapi/OneDrive/Desktop/GD32VW553/V1_MQTT_OK/GD32VW55X_Wifi_BLE_SDK/GD32VW55x_RELEASE_V1.0.2/MSDK/cloud/alicloud/src/services/dev_bind\awss_report.c ****         }
 258:C:/Users/stapi/OneDrive/Desktop/GD32VW553/V1_MQTT_OK/GD32VW55X_Wifi_BLE_SDK/GD32VW55x_RELEASE_V1.0.2/MSDK/cloud/alicloud/src/services/dev_bind\awss_report.c ****     } while (0);
 259:C:/Users/stapi/OneDrive/Desktop/GD32VW553/V1_MQTT_OK/GD32VW55X_Wifi_BLE_SDK/GD32VW55x_RELEASE_V1.0.2/MSDK/cloud/alicloud/src/services/dev_bind\awss_report.c **** 
 260:C:/Users/stapi/OneDrive/Desktop/GD32VW553/V1_MQTT_OK/GD32VW55X_Wifi_BLE_SDK/GD32VW55x_RELEASE_V1.0.2/MSDK/cloud/alicloud/src/services/dev_bind\awss_report.c ****     return;
 261:C:/Users/stapi/OneDrive/Desktop/GD32VW553/V1_MQTT_OK/GD32VW55X_Wifi_BLE_SDK/GD32VW55x_RELEASE_V1.0.2/MSDK/cloud/alicloud/src/services/dev_bind\awss_report.c **** 
 262:C:/Users/stapi/OneDrive/Desktop/GD32VW553/V1_MQTT_OK/GD32VW55X_Wifi_BLE_SDK/GD32VW55x_RELEASE_V1.0.2/MSDK/cloud/alicloud/src/services/dev_bind\awss_report.c **** ONLINE_SWITCHAP_FAIL:
 263:C:/Users/stapi/OneDrive/Desktop/GD32VW553/V1_MQTT_OK/GD32VW55X_Wifi_BLE_SDK/GD32VW55x_RELEASE_V1.0.2/MSDK/cloud/alicloud/src/services/dev_bind\awss_report.c ****     awss_warn("ilop online switchap failed");
 264:C:/Users/stapi/OneDrive/Desktop/GD32VW553/V1_MQTT_OK/GD32VW55X_Wifi_BLE_SDK/GD32VW55x_RELEASE_V1.0.2/MSDK/cloud/alicloud/src/services/dev_bind\awss_report.c ****     memset(switchap_ssid, 0, sizeof(switchap_ssid));
 265:C:/Users/stapi/OneDrive/Desktop/GD32VW553/V1_MQTT_OK/GD32VW55X_Wifi_BLE_SDK/GD32VW55x_RELEASE_V1.0.2/MSDK/cloud/alicloud/src/services/dev_bind\awss_report.c ****     memset(switchap_bssid, 0, sizeof(switchap_bssid));
 266:C:/Users/stapi/OneDrive/Desktop/GD32VW553/V1_MQTT_OK/GD32VW55X_Wifi_BLE_SDK/GD32VW55x_RELEASE_V1.0.2/MSDK/cloud/alicloud/src/services/dev_bind\awss_report.c ****     memset(switchap_passwd, 0, sizeof(switchap_passwd));
 267:C:/Users/stapi/OneDrive/Desktop/GD32VW553/V1_MQTT_OK/GD32VW55X_Wifi_BLE_SDK/GD32VW55x_RELEASE_V1.0.2/MSDK/cloud/alicloud/src/services/dev_bind\awss_report.c ****     if (packet) {
 268:C:/Users/stapi/OneDrive/Desktop/GD32VW553/V1_MQTT_OK/GD32VW55X_Wifi_BLE_SDK/GD32VW55x_RELEASE_V1.0.2/MSDK/cloud/alicloud/src/services/dev_bind\awss_report.c ****         os_free(packet);
 269:C:/Users/stapi/OneDrive/Desktop/GD32VW553/V1_MQTT_OK/GD32VW55X_Wifi_BLE_SDK/GD32VW55x_RELEASE_V1.0.2/MSDK/cloud/alicloud/src/services/dev_bind\awss_report.c ****     }
 270:C:/Users/stapi/OneDrive/Desktop/GD32VW553/V1_MQTT_OK/GD32VW55X_Wifi_BLE_SDK/GD32VW55x_RELEASE_V1.0.2/MSDK/cloud/alicloud/src/services/dev_bind\awss_report.c ****     return;
 271:C:/Users/stapi/OneDrive/Desktop/GD32VW553/V1_MQTT_OK/GD32VW55X_Wifi_BLE_SDK/GD32VW55x_RELEASE_V1.0.2/MSDK/cloud/alicloud/src/services/dev_bind\awss_report.c **** }
 272:C:/Users/stapi/OneDrive/Desktop/GD32VW553/V1_MQTT_OK/GD32VW55X_Wifi_BLE_SDK/GD32VW55x_RELEASE_V1.0.2/MSDK/cloud/alicloud/src/services/dev_bind\awss_report.c **** 
 273:C:/Users/stapi/OneDrive/Desktop/GD32VW553/V1_MQTT_OK/GD32VW55X_Wifi_BLE_SDK/GD32VW55x_RELEASE_V1.0.2/MSDK/cloud/alicloud/src/services/dev_bind\awss_report.c **** static void *reboot_timer = NULL;
 274:C:/Users/stapi/OneDrive/Desktop/GD32VW553/V1_MQTT_OK/GD32VW55X_Wifi_BLE_SDK/GD32VW55x_RELEASE_V1.0.2/MSDK/cloud/alicloud/src/services/dev_bind\awss_report.c **** static int awss_switch_ap_online()
 275:C:/Users/stapi/OneDrive/Desktop/GD32VW553/V1_MQTT_OK/GD32VW55X_Wifi_BLE_SDK/GD32VW55x_RELEASE_V1.0.2/MSDK/cloud/alicloud/src/services/dev_bind\awss_report.c **** {
 276:C:/Users/stapi/OneDrive/Desktop/GD32VW553/V1_MQTT_OK/GD32VW55X_Wifi_BLE_SDK/GD32VW55x_RELEASE_V1.0.2/MSDK/cloud/alicloud/src/services/dev_bind\awss_report.c ****     os_awss_connect_ap(WLAN_CONNECTION_TIMEOUT_MS, switchap_ssid, switchap_passwd,
 277:C:/Users/stapi/OneDrive/Desktop/GD32VW553/V1_MQTT_OK/GD32VW55X_Wifi_BLE_SDK/GD32VW55x_RELEASE_V1.0.2/MSDK/cloud/alicloud/src/services/dev_bind\awss_report.c ****                        AWSS_AUTH_TYPE_INVALID, AWSS_ENC_TYPE_INVALID, switchap_bssid, 0);
 278:C:/Users/stapi/OneDrive/Desktop/GD32VW553/V1_MQTT_OK/GD32VW55X_Wifi_BLE_SDK/GD32VW55x_RELEASE_V1.0.2/MSDK/cloud/alicloud/src/services/dev_bind\awss_report.c **** 
 279:C:/Users/stapi/OneDrive/Desktop/GD32VW553/V1_MQTT_OK/GD32VW55X_Wifi_BLE_SDK/GD32VW55x_RELEASE_V1.0.2/MSDK/cloud/alicloud/src/services/dev_bind\awss_report.c ****     awss_stop_timer(switchap_timer);
 280:C:/Users/stapi/OneDrive/Desktop/GD32VW553/V1_MQTT_OK/GD32VW55X_Wifi_BLE_SDK/GD32VW55x_RELEASE_V1.0.2/MSDK/cloud/alicloud/src/services/dev_bind\awss_report.c ****     switchap_timer = NULL;
 281:C:/Users/stapi/OneDrive/Desktop/GD32VW553/V1_MQTT_OK/GD32VW55X_Wifi_BLE_SDK/GD32VW55x_RELEASE_V1.0.2/MSDK/cloud/alicloud/src/services/dev_bind\awss_report.c **** 
 282:C:/Users/stapi/OneDrive/Desktop/GD32VW553/V1_MQTT_OK/GD32VW55X_Wifi_BLE_SDK/GD32VW55x_RELEASE_V1.0.2/MSDK/cloud/alicloud/src/services/dev_bind\awss_report.c ****     memset(switchap_ssid, 0, sizeof(switchap_ssid));
 283:C:/Users/stapi/OneDrive/Desktop/GD32VW553/V1_MQTT_OK/GD32VW55X_Wifi_BLE_SDK/GD32VW55x_RELEASE_V1.0.2/MSDK/cloud/alicloud/src/services/dev_bind\awss_report.c ****     memset(switchap_bssid, 0, sizeof(switchap_bssid));
 284:C:/Users/stapi/OneDrive/Desktop/GD32VW553/V1_MQTT_OK/GD32VW55X_Wifi_BLE_SDK/GD32VW55x_RELEASE_V1.0.2/MSDK/cloud/alicloud/src/services/dev_bind\awss_report.c ****     memset(switchap_passwd, 0, sizeof(switchap_passwd));
 285:C:/Users/stapi/OneDrive/Desktop/GD32VW553/V1_MQTT_OK/GD32VW55X_Wifi_BLE_SDK/GD32VW55x_RELEASE_V1.0.2/MSDK/cloud/alicloud/src/services/dev_bind\awss_report.c **** 
 286:C:/Users/stapi/OneDrive/Desktop/GD32VW553/V1_MQTT_OK/GD32VW55X_Wifi_BLE_SDK/GD32VW55x_RELEASE_V1.0.2/MSDK/cloud/alicloud/src/services/dev_bind\awss_report.c ****     reboot_timer = HAL_Timer_Create("rb_timer", (void (*)(void *))awss_reboot_system, NULL);
 287:C:/Users/stapi/OneDrive/Desktop/GD32VW553/V1_MQTT_OK/GD32VW55X_Wifi_BLE_SDK/GD32VW55x_RELEASE_V1.0.2/MSDK/cloud/alicloud/src/services/dev_bind\awss_report.c ****     HAL_Timer_Start(reboot_timer, 1000);;
 288:C:/Users/stapi/OneDrive/Desktop/GD32VW553/V1_MQTT_OK/GD32VW55X_Wifi_BLE_SDK/GD32VW55x_RELEASE_V1.0.2/MSDK/cloud/alicloud/src/services/dev_bind\awss_report.c **** 
 289:C:/Users/stapi/OneDrive/Desktop/GD32VW553/V1_MQTT_OK/GD32VW55X_Wifi_BLE_SDK/GD32VW55x_RELEASE_V1.0.2/MSDK/cloud/alicloud/src/services/dev_bind\awss_report.c ****     return 0;
 290:C:/Users/stapi/OneDrive/Desktop/GD32VW553/V1_MQTT_OK/GD32VW55X_Wifi_BLE_SDK/GD32VW55x_RELEASE_V1.0.2/MSDK/cloud/alicloud/src/services/dev_bind\awss_report.c **** }
 291:C:/Users/stapi/OneDrive/Desktop/GD32VW553/V1_MQTT_OK/GD32VW55X_Wifi_BLE_SDK/GD32VW55x_RELEASE_V1.0.2/MSDK/cloud/alicloud/src/services/dev_bind\awss_report.c **** 
 292:C:/Users/stapi/OneDrive/Desktop/GD32VW553/V1_MQTT_OK/GD32VW55X_Wifi_BLE_SDK/GD32VW55x_RELEASE_V1.0.2/MSDK/cloud/alicloud/src/services/dev_bind\awss_report.c **** static int awss_reboot_system()
 293:C:/Users/stapi/OneDrive/Desktop/GD32VW553/V1_MQTT_OK/GD32VW55X_Wifi_BLE_SDK/GD32VW55x_RELEASE_V1.0.2/MSDK/cloud/alicloud/src/services/dev_bind\awss_report.c **** {
 294:C:/Users/stapi/OneDrive/Desktop/GD32VW553/V1_MQTT_OK/GD32VW55X_Wifi_BLE_SDK/GD32VW55x_RELEASE_V1.0.2/MSDK/cloud/alicloud/src/services/dev_bind\awss_report.c ****     awss_stop_timer(reboot_timer);
 295:C:/Users/stapi/OneDrive/Desktop/GD32VW553/V1_MQTT_OK/GD32VW55X_Wifi_BLE_SDK/GD32VW55x_RELEASE_V1.0.2/MSDK/cloud/alicloud/src/services/dev_bind\awss_report.c ****     reboot_timer = NULL;
 296:C:/Users/stapi/OneDrive/Desktop/GD32VW553/V1_MQTT_OK/GD32VW55X_Wifi_BLE_SDK/GD32VW55x_RELEASE_V1.0.2/MSDK/cloud/alicloud/src/services/dev_bind\awss_report.c ****     os_reboot();
 297:C:/Users/stapi/OneDrive/Desktop/GD32VW553/V1_MQTT_OK/GD32VW55X_Wifi_BLE_SDK/GD32VW55x_RELEASE_V1.0.2/MSDK/cloud/alicloud/src/services/dev_bind\awss_report.c ****     while (1);
 298:C:/Users/stapi/OneDrive/Desktop/GD32VW553/V1_MQTT_OK/GD32VW55X_Wifi_BLE_SDK/GD32VW55x_RELEASE_V1.0.2/MSDK/cloud/alicloud/src/services/dev_bind\awss_report.c ****     return 0;
 299:C:/Users/stapi/OneDrive/Desktop/GD32VW553/V1_MQTT_OK/GD32VW55X_Wifi_BLE_SDK/GD32VW55x_RELEASE_V1.0.2/MSDK/cloud/alicloud/src/services/dev_bind\awss_report.c **** }
 300:C:/Users/stapi/OneDrive/Desktop/GD32VW553/V1_MQTT_OK/GD32VW55X_Wifi_BLE_SDK/GD32VW55x_RELEASE_V1.0.2/MSDK/cloud/alicloud/src/services/dev_bind\awss_report.c **** #endif
 301:C:/Users/stapi/OneDrive/Desktop/GD32VW553/V1_MQTT_OK/GD32VW55X_Wifi_BLE_SDK/GD32VW55x_RELEASE_V1.0.2/MSDK/cloud/alicloud/src/services/dev_bind\awss_report.c **** 
 302:C:/Users/stapi/OneDrive/Desktop/GD32VW553/V1_MQTT_OK/GD32VW55X_Wifi_BLE_SDK/GD32VW55x_RELEASE_V1.0.2/MSDK/cloud/alicloud/src/services/dev_bind\awss_report.c **** static int awss_report_token_to_cloud()
 303:C:/Users/stapi/OneDrive/Desktop/GD32VW553/V1_MQTT_OK/GD32VW55X_Wifi_BLE_SDK/GD32VW55x_RELEASE_V1.0.2/MSDK/cloud/alicloud/src/services/dev_bind\awss_report.c **** {
 115              		.loc 2 303 1 is_stmt 1
 116              		.cfi_startproc
 117 0000 17030000 		call	t0,__riscv_save_4
 117      E7020300 
 118              		.cfi_offset 19, -20
 119              		.cfi_offset 18, -16
 120              		.cfi_offset 9, -12
 121              		.cfi_offset 8, -8
 122              		.cfi_offset 1, -4
 123              		.cfi_def_cfa_offset 32
 304:C:/Users/stapi/OneDrive/Desktop/GD32VW553/V1_MQTT_OK/GD32VW55X_Wifi_BLE_SDK/GD32VW55x_RELEASE_V1.0.2/MSDK/cloud/alicloud/src/services/dev_bind\awss_report.c **** #define REPORT_TOKEN_PARAM_LEN  (64)
 305:C:/Users/stapi/OneDrive/Desktop/GD32VW553/V1_MQTT_OK/GD32VW55X_Wifi_BLE_SDK/GD32VW55x_RELEASE_V1.0.2/MSDK/cloud/alicloud/src/services/dev_bind\awss_report.c **** #define REPORT_TOKEN_STATE_MSG_LEN  (64)
 306:C:/Users/stapi/OneDrive/Desktop/GD32VW553/V1_MQTT_OK/GD32VW55X_Wifi_BLE_SDK/GD32VW55x_RELEASE_V1.0.2/MSDK/cloud/alicloud/src/services/dev_bind\awss_report.c ****     char token_state_msg[REPORT_TOKEN_STATE_MSG_LEN];
 124              		.loc 2 306 5
 307:C:/Users/stapi/OneDrive/Desktop/GD32VW553/V1_MQTT_OK/GD32VW55X_Wifi_BLE_SDK/GD32VW55x_RELEASE_V1.0.2/MSDK/cloud/alicloud/src/services/dev_bind\awss_report.c **** 
 308:C:/Users/stapi/OneDrive/Desktop/GD32VW553/V1_MQTT_OK/GD32VW55X_Wifi_BLE_SDK/GD32VW55x_RELEASE_V1.0.2/MSDK/cloud/alicloud/src/services/dev_bind\awss_report.c ****     if (awss_report_token_suc) { // success ,no need to report
 125              		.loc 2 308 5
 126              		.loc 2 308 9 is_stmt 0
 127 0008 B7070000 		lui	a5,%hi(.LANCHOR1)
 128 000c 83C70700 		lbu	a5,%lo(.LANCHOR1)(a5)
 303:C:/Users/stapi/OneDrive/Desktop/GD32VW553/V1_MQTT_OK/GD32VW55X_Wifi_BLE_SDK/GD32VW55x_RELEASE_V1.0.2/MSDK/cloud/alicloud/src/services/dev_bind\awss_report.c **** #define REPORT_TOKEN_PARAM_LEN  (64)
 129              		.loc 2 303 1
 130 0010 1171     		addi	sp,sp,-256
 131              		.cfi_def_cfa_offset 288
 132              		.loc 2 308 9
 133 0012 93974760 		sext.b	a5,a5
 134              		.loc 2 308 8
 135 0016 8DC7     		beq	a5,zero,.L5
 309:C:/Users/stapi/OneDrive/Desktop/GD32VW553/V1_MQTT_OK/GD32VW55X_Wifi_BLE_SDK/GD32VW55x_RELEASE_V1.0.2/MSDK/cloud/alicloud/src/services/dev_bind\awss_report.c ****         dump_dev_bind_status(STATE_BIND_ALREADY_RESET, "bind token already report success");
 136              		.loc 2 309 9 is_stmt 1
 137 0018 7D74     		li	s0,-4096
 138 001a 37060000 		lui	a2,%hi(.LC0)
 139 001e 9305F47E 		addi	a1,s0,2031
 140 0022 13060600 		addi	a2,a2,%lo(.LC0)
 141 0026 7D45     		li	a0,31
 142 0028 97000000 		call	iotx_state_event
 142      E7800000 
 143              	.LVL2:
 310:C:/Users/stapi/OneDrive/Desktop/GD32VW553/V1_MQTT_OK/GD32VW55X_Wifi_BLE_SDK/GD32VW55x_RELEASE_V1.0.2/MSDK/cloud/alicloud/src/services/dev_bind\awss_report.c ****         return STATE_BIND_ALREADY_REPORT;
 144              		.loc 2 310 9
 145              		.loc 2 310 16 is_stmt 0
 146 0030 1304F47B 		addi	s0,s0,1983
 147              	.L4:
 311:C:/Users/stapi/OneDrive/Desktop/GD32VW553/V1_MQTT_OK/GD32VW55X_Wifi_BLE_SDK/GD32VW55x_RELEASE_V1.0.2/MSDK/cloud/alicloud/src/services/dev_bind\awss_report.c ****     }
 312:C:/Users/stapi/OneDrive/Desktop/GD32VW553/V1_MQTT_OK/GD32VW55X_Wifi_BLE_SDK/GD32VW55x_RELEASE_V1.0.2/MSDK/cloud/alicloud/src/services/dev_bind\awss_report.c **** 
 313:C:/Users/stapi/OneDrive/Desktop/GD32VW553/V1_MQTT_OK/GD32VW55X_Wifi_BLE_SDK/GD32VW55x_RELEASE_V1.0.2/MSDK/cloud/alicloud/src/services/dev_bind\awss_report.c ****     AWSS_DB_UPDATE_STATIS(AWSS_DB_STATIS_START);
 314:C:/Users/stapi/OneDrive/Desktop/GD32VW553/V1_MQTT_OK/GD32VW55X_Wifi_BLE_SDK/GD32VW55x_RELEASE_V1.0.2/MSDK/cloud/alicloud/src/services/dev_bind\awss_report.c **** 
 315:C:/Users/stapi/OneDrive/Desktop/GD32VW553/V1_MQTT_OK/GD32VW55X_Wifi_BLE_SDK/GD32VW55x_RELEASE_V1.0.2/MSDK/cloud/alicloud/src/services/dev_bind\awss_report.c ****     /*
 316:C:/Users/stapi/OneDrive/Desktop/GD32VW553/V1_MQTT_OK/GD32VW55X_Wifi_BLE_SDK/GD32VW55x_RELEASE_V1.0.2/MSDK/cloud/alicloud/src/services/dev_bind\awss_report.c ****      * it is still failed after try to report token MATCH_REPORT_CNT_MAX times
 317:C:/Users/stapi/OneDrive/Desktop/GD32VW553/V1_MQTT_OK/GD32VW55X_Wifi_BLE_SDK/GD32VW55x_RELEASE_V1.0.2/MSDK/cloud/alicloud/src/services/dev_bind\awss_report.c ****      */
 318:C:/Users/stapi/OneDrive/Desktop/GD32VW553/V1_MQTT_OK/GD32VW55X_Wifi_BLE_SDK/GD32VW55x_RELEASE_V1.0.2/MSDK/cloud/alicloud/src/services/dev_bind\awss_report.c ****     if (awss_report_token_cnt ++ > MATCH_REPORT_CNT_MAX) {
 319:C:/Users/stapi/OneDrive/Desktop/GD32VW553/V1_MQTT_OK/GD32VW55X_Wifi_BLE_SDK/GD32VW55x_RELEASE_V1.0.2/MSDK/cloud/alicloud/src/services/dev_bind\awss_report.c ****         awss_stop_timer(report_token_timer);
 320:C:/Users/stapi/OneDrive/Desktop/GD32VW553/V1_MQTT_OK/GD32VW55X_Wifi_BLE_SDK/GD32VW55x_RELEASE_V1.0.2/MSDK/cloud/alicloud/src/services/dev_bind\awss_report.c ****         report_token_timer = NULL;
 321:C:/Users/stapi/OneDrive/Desktop/GD32VW553/V1_MQTT_OK/GD32VW55X_Wifi_BLE_SDK/GD32VW55x_RELEASE_V1.0.2/MSDK/cloud/alicloud/src/services/dev_bind\awss_report.c ****         awss_info("try %d times fail", awss_report_token_cnt);
 322:C:/Users/stapi/OneDrive/Desktop/GD32VW553/V1_MQTT_OK/GD32VW55X_Wifi_BLE_SDK/GD32VW55x_RELEASE_V1.0.2/MSDK/cloud/alicloud/src/services/dev_bind\awss_report.c ****         dump_dev_bind_status(STATE_BIND_REPORT_TOKEN_TIMEOUT, "report token timeout");
 323:C:/Users/stapi/OneDrive/Desktop/GD32VW553/V1_MQTT_OK/GD32VW55X_Wifi_BLE_SDK/GD32VW55x_RELEASE_V1.0.2/MSDK/cloud/alicloud/src/services/dev_bind\awss_report.c ****         return STATE_BIND_REPORT_TOKEN_TIMEOUT;
 324:C:/Users/stapi/OneDrive/Desktop/GD32VW553/V1_MQTT_OK/GD32VW55X_Wifi_BLE_SDK/GD32VW55x_RELEASE_V1.0.2/MSDK/cloud/alicloud/src/services/dev_bind\awss_report.c ****     }
 325:C:/Users/stapi/OneDrive/Desktop/GD32VW553/V1_MQTT_OK/GD32VW55X_Wifi_BLE_SDK/GD32VW55x_RELEASE_V1.0.2/MSDK/cloud/alicloud/src/services/dev_bind\awss_report.c **** 
 326:C:/Users/stapi/OneDrive/Desktop/GD32VW553/V1_MQTT_OK/GD32VW55X_Wifi_BLE_SDK/GD32VW55x_RELEASE_V1.0.2/MSDK/cloud/alicloud/src/services/dev_bind\awss_report.c ****     if (report_token_timer == NULL) {
 327:C:/Users/stapi/OneDrive/Desktop/GD32VW553/V1_MQTT_OK/GD32VW55X_Wifi_BLE_SDK/GD32VW55x_RELEASE_V1.0.2/MSDK/cloud/alicloud/src/services/dev_bind\awss_report.c ****         report_token_timer = HAL_Timer_Create("rp_token", (void (*)(void *))awss_report_token_to_cl
 328:C:/Users/stapi/OneDrive/Desktop/GD32VW553/V1_MQTT_OK/GD32VW55X_Wifi_BLE_SDK/GD32VW55x_RELEASE_V1.0.2/MSDK/cloud/alicloud/src/services/dev_bind\awss_report.c ****     }
 329:C:/Users/stapi/OneDrive/Desktop/GD32VW553/V1_MQTT_OK/GD32VW55X_Wifi_BLE_SDK/GD32VW55x_RELEASE_V1.0.2/MSDK/cloud/alicloud/src/services/dev_bind\awss_report.c ****     HAL_Timer_Stop(report_token_timer);
 330:C:/Users/stapi/OneDrive/Desktop/GD32VW553/V1_MQTT_OK/GD32VW55X_Wifi_BLE_SDK/GD32VW55x_RELEASE_V1.0.2/MSDK/cloud/alicloud/src/services/dev_bind\awss_report.c ****     HAL_Timer_Start(report_token_timer, 3 * 1000);
 331:C:/Users/stapi/OneDrive/Desktop/GD32VW553/V1_MQTT_OK/GD32VW55X_Wifi_BLE_SDK/GD32VW55x_RELEASE_V1.0.2/MSDK/cloud/alicloud/src/services/dev_bind\awss_report.c **** 
 332:C:/Users/stapi/OneDrive/Desktop/GD32VW553/V1_MQTT_OK/GD32VW55X_Wifi_BLE_SDK/GD32VW55x_RELEASE_V1.0.2/MSDK/cloud/alicloud/src/services/dev_bind\awss_report.c ****     int packet_len = AWSS_REPORT_LEN_MAX;
 333:C:/Users/stapi/OneDrive/Desktop/GD32VW553/V1_MQTT_OK/GD32VW55X_Wifi_BLE_SDK/GD32VW55x_RELEASE_V1.0.2/MSDK/cloud/alicloud/src/services/dev_bind\awss_report.c **** 
 334:C:/Users/stapi/OneDrive/Desktop/GD32VW553/V1_MQTT_OK/GD32VW55X_Wifi_BLE_SDK/GD32VW55x_RELEASE_V1.0.2/MSDK/cloud/alicloud/src/services/dev_bind\awss_report.c ****     char *packet = os_zalloc(packet_len + 1);
 335:C:/Users/stapi/OneDrive/Desktop/GD32VW553/V1_MQTT_OK/GD32VW55X_Wifi_BLE_SDK/GD32VW55x_RELEASE_V1.0.2/MSDK/cloud/alicloud/src/services/dev_bind\awss_report.c ****     if (packet == NULL) {
 336:C:/Users/stapi/OneDrive/Desktop/GD32VW553/V1_MQTT_OK/GD32VW55X_Wifi_BLE_SDK/GD32VW55x_RELEASE_V1.0.2/MSDK/cloud/alicloud/src/services/dev_bind\awss_report.c ****         awss_err("alloc mem(%d) failed", packet_len);
 337:C:/Users/stapi/OneDrive/Desktop/GD32VW553/V1_MQTT_OK/GD32VW55X_Wifi_BLE_SDK/GD32VW55x_RELEASE_V1.0.2/MSDK/cloud/alicloud/src/services/dev_bind\awss_report.c ****         return STATE_SYS_DEPEND_MALLOC;
 338:C:/Users/stapi/OneDrive/Desktop/GD32VW553/V1_MQTT_OK/GD32VW55X_Wifi_BLE_SDK/GD32VW55x_RELEASE_V1.0.2/MSDK/cloud/alicloud/src/services/dev_bind\awss_report.c ****     }
 339:C:/Users/stapi/OneDrive/Desktop/GD32VW553/V1_MQTT_OK/GD32VW55X_Wifi_BLE_SDK/GD32VW55x_RELEASE_V1.0.2/MSDK/cloud/alicloud/src/services/dev_bind\awss_report.c **** 
 340:C:/Users/stapi/OneDrive/Desktop/GD32VW553/V1_MQTT_OK/GD32VW55X_Wifi_BLE_SDK/GD32VW55x_RELEASE_V1.0.2/MSDK/cloud/alicloud/src/services/dev_bind\awss_report.c ****     do {
 341:C:/Users/stapi/OneDrive/Desktop/GD32VW553/V1_MQTT_OK/GD32VW55X_Wifi_BLE_SDK/GD32VW55x_RELEASE_V1.0.2/MSDK/cloud/alicloud/src/services/dev_bind\awss_report.c ****         // reduce stack used
 342:C:/Users/stapi/OneDrive/Desktop/GD32VW553/V1_MQTT_OK/GD32VW55X_Wifi_BLE_SDK/GD32VW55x_RELEASE_V1.0.2/MSDK/cloud/alicloud/src/services/dev_bind\awss_report.c ****         uint8_t i;
 343:C:/Users/stapi/OneDrive/Desktop/GD32VW553/V1_MQTT_OK/GD32VW55X_Wifi_BLE_SDK/GD32VW55x_RELEASE_V1.0.2/MSDK/cloud/alicloud/src/services/dev_bind\awss_report.c ****         bind_token_type_t token_type;
 344:C:/Users/stapi/OneDrive/Desktop/GD32VW553/V1_MQTT_OK/GD32VW55X_Wifi_BLE_SDK/GD32VW55x_RELEASE_V1.0.2/MSDK/cloud/alicloud/src/services/dev_bind\awss_report.c ****         char id_str[MSG_REQ_ID_LEN] = {0};
 345:C:/Users/stapi/OneDrive/Desktop/GD32VW553/V1_MQTT_OK/GD32VW55X_Wifi_BLE_SDK/GD32VW55x_RELEASE_V1.0.2/MSDK/cloud/alicloud/src/services/dev_bind\awss_report.c ****         char param[REPORT_TOKEN_PARAM_LEN] = {0};
 346:C:/Users/stapi/OneDrive/Desktop/GD32VW553/V1_MQTT_OK/GD32VW55X_Wifi_BLE_SDK/GD32VW55x_RELEASE_V1.0.2/MSDK/cloud/alicloud/src/services/dev_bind\awss_report.c ****         unsigned char token_str[RANDOM_STR_MAX_LEN] = {0};
 347:C:/Users/stapi/OneDrive/Desktop/GD32VW553/V1_MQTT_OK/GD32VW55X_Wifi_BLE_SDK/GD32VW55x_RELEASE_V1.0.2/MSDK/cloud/alicloud/src/services/dev_bind\awss_report.c **** 
 348:C:/Users/stapi/OneDrive/Desktop/GD32VW553/V1_MQTT_OK/GD32VW55X_Wifi_BLE_SDK/GD32VW55x_RELEASE_V1.0.2/MSDK/cloud/alicloud/src/services/dev_bind\awss_report.c ****         awss_report_token_time = os_get_time_ms();
 349:C:/Users/stapi/OneDrive/Desktop/GD32VW553/V1_MQTT_OK/GD32VW55X_Wifi_BLE_SDK/GD32VW55x_RELEASE_V1.0.2/MSDK/cloud/alicloud/src/services/dev_bind\awss_report.c **** 
 350:C:/Users/stapi/OneDrive/Desktop/GD32VW553/V1_MQTT_OK/GD32VW55X_Wifi_BLE_SDK/GD32VW55x_RELEASE_V1.0.2/MSDK/cloud/alicloud/src/services/dev_bind\awss_report.c ****         snprintf(id_str, MSG_REQ_ID_LEN - 1, "\"%u\"", awss_report_id ++);
 351:C:/Users/stapi/OneDrive/Desktop/GD32VW553/V1_MQTT_OK/GD32VW55X_Wifi_BLE_SDK/GD32VW55x_RELEASE_V1.0.2/MSDK/cloud/alicloud/src/services/dev_bind\awss_report.c **** 
 352:C:/Users/stapi/OneDrive/Desktop/GD32VW553/V1_MQTT_OK/GD32VW55X_Wifi_BLE_SDK/GD32VW55x_RELEASE_V1.0.2/MSDK/cloud/alicloud/src/services/dev_bind\awss_report.c ****         awss_get_token(token_str, RANDOM_STR_MAX_LEN, &token_type);
 353:C:/Users/stapi/OneDrive/Desktop/GD32VW553/V1_MQTT_OK/GD32VW55X_Wifi_BLE_SDK/GD32VW55x_RELEASE_V1.0.2/MSDK/cloud/alicloud/src/services/dev_bind\awss_report.c ****         snprintf(param, REPORT_TOKEN_PARAM_LEN - 1, "{\"token\":\"%s\"}", token_str);
 354:C:/Users/stapi/OneDrive/Desktop/GD32VW553/V1_MQTT_OK/GD32VW55X_Wifi_BLE_SDK/GD32VW55x_RELEASE_V1.0.2/MSDK/cloud/alicloud/src/services/dev_bind\awss_report.c ****         awss_build_packet(AWSS_CMP_PKT_TYPE_REQ, id_str, ILOP_VER, METHOD_MATCH_REPORT, param, 0, p
 355:C:/Users/stapi/OneDrive/Desktop/GD32VW553/V1_MQTT_OK/GD32VW55X_Wifi_BLE_SDK/GD32VW55x_RELEASE_V1.0.2/MSDK/cloud/alicloud/src/services/dev_bind\awss_report.c **** 
 356:C:/Users/stapi/OneDrive/Desktop/GD32VW553/V1_MQTT_OK/GD32VW55X_Wifi_BLE_SDK/GD32VW55x_RELEASE_V1.0.2/MSDK/cloud/alicloud/src/services/dev_bind\awss_report.c ****         HAL_Snprintf(token_state_msg, REPORT_TOKEN_STATE_MSG_LEN, "report token:%s to cloud", token
 357:C:/Users/stapi/OneDrive/Desktop/GD32VW553/V1_MQTT_OK/GD32VW55X_Wifi_BLE_SDK/GD32VW55x_RELEASE_V1.0.2/MSDK/cloud/alicloud/src/services/dev_bind\awss_report.c ****         dump_dev_bind_status(STATE_BIND_REPORT_TOKEN, token_state_msg);        
 358:C:/Users/stapi/OneDrive/Desktop/GD32VW553/V1_MQTT_OK/GD32VW55X_Wifi_BLE_SDK/GD32VW55x_RELEASE_V1.0.2/MSDK/cloud/alicloud/src/services/dev_bind\awss_report.c ****     } while (0);
 359:C:/Users/stapi/OneDrive/Desktop/GD32VW553/V1_MQTT_OK/GD32VW55X_Wifi_BLE_SDK/GD32VW55x_RELEASE_V1.0.2/MSDK/cloud/alicloud/src/services/dev_bind\awss_report.c **** 
 360:C:/Users/stapi/OneDrive/Desktop/GD32VW553/V1_MQTT_OK/GD32VW55X_Wifi_BLE_SDK/GD32VW55x_RELEASE_V1.0.2/MSDK/cloud/alicloud/src/services/dev_bind\awss_report.c ****     awss_debug("report token:%s\r\n", packet);
 361:C:/Users/stapi/OneDrive/Desktop/GD32VW553/V1_MQTT_OK/GD32VW55X_Wifi_BLE_SDK/GD32VW55x_RELEASE_V1.0.2/MSDK/cloud/alicloud/src/services/dev_bind\awss_report.c ****     char topic[TOPIC_LEN_MAX] = {0};
 362:C:/Users/stapi/OneDrive/Desktop/GD32VW553/V1_MQTT_OK/GD32VW55X_Wifi_BLE_SDK/GD32VW55x_RELEASE_V1.0.2/MSDK/cloud/alicloud/src/services/dev_bind\awss_report.c ****     awss_build_topic(TOPIC_MATCH_REPORT, topic, TOPIC_LEN_MAX);
 363:C:/Users/stapi/OneDrive/Desktop/GD32VW553/V1_MQTT_OK/GD32VW55X_Wifi_BLE_SDK/GD32VW55x_RELEASE_V1.0.2/MSDK/cloud/alicloud/src/services/dev_bind\awss_report.c **** 
 364:C:/Users/stapi/OneDrive/Desktop/GD32VW553/V1_MQTT_OK/GD32VW55X_Wifi_BLE_SDK/GD32VW55x_RELEASE_V1.0.2/MSDK/cloud/alicloud/src/services/dev_bind\awss_report.c ****     int ret = awss_cmp_mqtt_send(topic, packet, packet_len, 1);
 365:C:/Users/stapi/OneDrive/Desktop/GD32VW553/V1_MQTT_OK/GD32VW55X_Wifi_BLE_SDK/GD32VW55x_RELEASE_V1.0.2/MSDK/cloud/alicloud/src/services/dev_bind\awss_report.c **** 
 366:C:/Users/stapi/OneDrive/Desktop/GD32VW553/V1_MQTT_OK/GD32VW55X_Wifi_BLE_SDK/GD32VW55x_RELEASE_V1.0.2/MSDK/cloud/alicloud/src/services/dev_bind\awss_report.c ****     awss_info("report token res:%d\r\n", ret);
 367:C:/Users/stapi/OneDrive/Desktop/GD32VW553/V1_MQTT_OK/GD32VW55X_Wifi_BLE_SDK/GD32VW55x_RELEASE_V1.0.2/MSDK/cloud/alicloud/src/services/dev_bind\awss_report.c ****     if (ret < 0) {
 368:C:/Users/stapi/OneDrive/Desktop/GD32VW553/V1_MQTT_OK/GD32VW55X_Wifi_BLE_SDK/GD32VW55x_RELEASE_V1.0.2/MSDK/cloud/alicloud/src/services/dev_bind\awss_report.c ****         // if ret > 0, means send success, and ret value is msg id
 369:C:/Users/stapi/OneDrive/Desktop/GD32VW553/V1_MQTT_OK/GD32VW55X_Wifi_BLE_SDK/GD32VW55x_RELEASE_V1.0.2/MSDK/cloud/alicloud/src/services/dev_bind\awss_report.c ****         dump_dev_bind_status(STATE_BIND_REPORT_TOKEN_FAIL, "report token fail, reason(%d)", ret);
 370:C:/Users/stapi/OneDrive/Desktop/GD32VW553/V1_MQTT_OK/GD32VW55X_Wifi_BLE_SDK/GD32VW55x_RELEASE_V1.0.2/MSDK/cloud/alicloud/src/services/dev_bind\awss_report.c ****     }
 371:C:/Users/stapi/OneDrive/Desktop/GD32VW553/V1_MQTT_OK/GD32VW55X_Wifi_BLE_SDK/GD32VW55x_RELEASE_V1.0.2/MSDK/cloud/alicloud/src/services/dev_bind\awss_report.c ****     os_free(packet);
 372:C:/Users/stapi/OneDrive/Desktop/GD32VW553/V1_MQTT_OK/GD32VW55X_Wifi_BLE_SDK/GD32VW55x_RELEASE_V1.0.2/MSDK/cloud/alicloud/src/services/dev_bind\awss_report.c **** 
 373:C:/Users/stapi/OneDrive/Desktop/GD32VW553/V1_MQTT_OK/GD32VW55X_Wifi_BLE_SDK/GD32VW55x_RELEASE_V1.0.2/MSDK/cloud/alicloud/src/services/dev_bind\awss_report.c ****     return ret;
 374:C:/Users/stapi/OneDrive/Desktop/GD32VW553/V1_MQTT_OK/GD32VW55X_Wifi_BLE_SDK/GD32VW55x_RELEASE_V1.0.2/MSDK/cloud/alicloud/src/services/dev_bind\awss_report.c **** }
 148              		.loc 2 374 1
 149 0034 2285     		mv	a0,s0
 150 0036 1161     		addi	sp,sp,256
 151              		.cfi_remember_state
 152              		.cfi_def_cfa_offset 0
 153 0038 17030000 		tail	__riscv_restore_4
 153      67000300 
 154              		.cfi_restore 19
 155              		.cfi_restore 18
 156              		.cfi_restore 9
 157              		.cfi_restore 8
 158              		.cfi_restore 1
 159              		.cfi_def_cfa_offset -32
 160              	.L5:
 161              		.cfi_restore_state
 313:C:/Users/stapi/OneDrive/Desktop/GD32VW553/V1_MQTT_OK/GD32VW55X_Wifi_BLE_SDK/GD32VW55x_RELEASE_V1.0.2/MSDK/cloud/alicloud/src/services/dev_bind\awss_report.c **** 
 162              		.loc 2 313 5 is_stmt 1
 163 0040 0145     		li	a0,0
 318:C:/Users/stapi/OneDrive/Desktop/GD32VW553/V1_MQTT_OK/GD32VW55X_Wifi_BLE_SDK/GD32VW55x_RELEASE_V1.0.2/MSDK/cloud/alicloud/src/services/dev_bind\awss_report.c ****         awss_stop_timer(report_token_timer);
 164              		.loc 2 318 31 is_stmt 0
 165 0042 B7040000 		lui	s1,%hi(.LANCHOR2)
 313:C:/Users/stapi/OneDrive/Desktop/GD32VW553/V1_MQTT_OK/GD32VW55X_Wifi_BLE_SDK/GD32VW55x_RELEASE_V1.0.2/MSDK/cloud/alicloud/src/services/dev_bind\awss_report.c **** 
 166              		.loc 2 313 5
 167 0046 97000000 		call	awss_bind_update_statis
 167      E7800000 
 168              	.LVL3:
 318:C:/Users/stapi/OneDrive/Desktop/GD32VW553/V1_MQTT_OK/GD32VW55X_Wifi_BLE_SDK/GD32VW55x_RELEASE_V1.0.2/MSDK/cloud/alicloud/src/services/dev_bind\awss_report.c ****         awss_stop_timer(report_token_timer);
 169              		.loc 2 318 5 is_stmt 1
 318:C:/Users/stapi/OneDrive/Desktop/GD32VW553/V1_MQTT_OK/GD32VW55X_Wifi_BLE_SDK/GD32VW55x_RELEASE_V1.0.2/MSDK/cloud/alicloud/src/services/dev_bind\awss_report.c ****         awss_stop_timer(report_token_timer);
 170              		.loc 2 318 31 is_stmt 0
 171 004e 93840400 		addi	s1,s1,%lo(.LANCHOR2)
 172 0052 83C70400 		lbu	a5,0(s1)
 173 0056 37040000 		lui	s0,%hi(.LANCHOR3)
 174 005a 13040400 		addi	s0,s0,%lo(.LANCHOR3)
 175 005e 93974760 		sext.b	a5,a5
 176 0062 13871700 		addi	a4,a5,1
 177 0066 13174760 		sext.b	a4,a4
 178 006a 2380E400 		sb	a4,0(s1)
 318:C:/Users/stapi/OneDrive/Desktop/GD32VW553/V1_MQTT_OK/GD32VW55X_Wifi_BLE_SDK/GD32VW55x_RELEASE_V1.0.2/MSDK/cloud/alicloud/src/services/dev_bind\awss_report.c ****         awss_stop_timer(report_token_timer);
 179              		.loc 2 318 8
 180 006e 0947     		li	a4,2
 181 0070 37090000 		lui	s2,%hi(.LC3)
 182 0074 6352F706 		ble	a5,a4,.L7
 319:C:/Users/stapi/OneDrive/Desktop/GD32VW553/V1_MQTT_OK/GD32VW55X_Wifi_BLE_SDK/GD32VW55x_RELEASE_V1.0.2/MSDK/cloud/alicloud/src/services/dev_bind\awss_report.c ****         report_token_timer = NULL;
 183              		.loc 2 319 9 is_stmt 1
 184 0078 0840     		lw	a0,0(s0)
 185 007a 97000000 		call	awss_stop_timer
 185      E7800000 
 186              	.LVL4:
 320:C:/Users/stapi/OneDrive/Desktop/GD32VW553/V1_MQTT_OK/GD32VW55X_Wifi_BLE_SDK/GD32VW55x_RELEASE_V1.0.2/MSDK/cloud/alicloud/src/services/dev_bind\awss_report.c ****         awss_info("try %d times fail", awss_report_token_cnt);
 187              		.loc 2 320 9
 321:C:/Users/stapi/OneDrive/Desktop/GD32VW553/V1_MQTT_OK/GD32VW55X_Wifi_BLE_SDK/GD32VW55x_RELEASE_V1.0.2/MSDK/cloud/alicloud/src/services/dev_bind\awss_report.c ****         dump_dev_bind_status(STATE_BIND_REPORT_TOKEN_TIMEOUT, "report token timeout");
 188              		.loc 2 321 9 is_stmt 0
 189 0082 37050000 		lui	a0,%hi(.LC1)
 190 0086 13050500 		addi	a0,a0,%lo(.LC1)
 320:C:/Users/stapi/OneDrive/Desktop/GD32VW553/V1_MQTT_OK/GD32VW55X_Wifi_BLE_SDK/GD32VW55x_RELEASE_V1.0.2/MSDK/cloud/alicloud/src/services/dev_bind\awss_report.c ****         awss_info("try %d times fail", awss_report_token_cnt);
 191              		.loc 2 320 28
 192 008a 23200400 		sw	zero,0(s0)
 321:C:/Users/stapi/OneDrive/Desktop/GD32VW553/V1_MQTT_OK/GD32VW55X_Wifi_BLE_SDK/GD32VW55x_RELEASE_V1.0.2/MSDK/cloud/alicloud/src/services/dev_bind\awss_report.c ****         dump_dev_bind_status(STATE_BIND_REPORT_TOKEN_TIMEOUT, "report token timeout");
 193              		.loc 2 321 9 is_stmt 1
 321:C:/Users/stapi/OneDrive/Desktop/GD32VW553/V1_MQTT_OK/GD32VW55X_Wifi_BLE_SDK/GD32VW55x_RELEASE_V1.0.2/MSDK/cloud/alicloud/src/services/dev_bind\awss_report.c ****         dump_dev_bind_status(STATE_BIND_REPORT_TOKEN_TIMEOUT, "report token timeout");
 194              		.loc 2 321 9
 195 008e 97000000 		call	HAL_Printf
 195      E7800000 
 196              	.LVL5:
 321:C:/Users/stapi/OneDrive/Desktop/GD32VW553/V1_MQTT_OK/GD32VW55X_Wifi_BLE_SDK/GD32VW55x_RELEASE_V1.0.2/MSDK/cloud/alicloud/src/services/dev_bind\awss_report.c ****         dump_dev_bind_status(STATE_BIND_REPORT_TOKEN_TIMEOUT, "report token timeout");
 197              		.loc 2 321 9
 198 0096 83C50400 		lbu	a1,0(s1)
 199 009a 37050000 		lui	a0,%hi(.LC2)
 200 009e 13050500 		addi	a0,a0,%lo(.LC2)
 201 00a2 93954560 		sext.b	a1,a1
 202 00a6 97000000 		call	HAL_Printf
 202      E7800000 
 203              	.LVL6:
 321:C:/Users/stapi/OneDrive/Desktop/GD32VW553/V1_MQTT_OK/GD32VW55X_Wifi_BLE_SDK/GD32VW55x_RELEASE_V1.0.2/MSDK/cloud/alicloud/src/services/dev_bind\awss_report.c ****         dump_dev_bind_status(STATE_BIND_REPORT_TOKEN_TIMEOUT, "report token timeout");
 204              		.loc 2 321 9
 205 00ae 13050900 		addi	a0,s2,%lo(.LC3)
 206 00b2 97000000 		call	HAL_Printf
 206      E7800000 
 207              	.LVL7:
 321:C:/Users/stapi/OneDrive/Desktop/GD32VW553/V1_MQTT_OK/GD32VW55X_Wifi_BLE_SDK/GD32VW55x_RELEASE_V1.0.2/MSDK/cloud/alicloud/src/services/dev_bind\awss_report.c ****         dump_dev_bind_status(STATE_BIND_REPORT_TOKEN_TIMEOUT, "report token timeout");
 208              		.loc 2 321 9
 322:C:/Users/stapi/OneDrive/Desktop/GD32VW553/V1_MQTT_OK/GD32VW55X_Wifi_BLE_SDK/GD32VW55x_RELEASE_V1.0.2/MSDK/cloud/alicloud/src/services/dev_bind\awss_report.c ****         return STATE_BIND_REPORT_TOKEN_TIMEOUT;
 209              		.loc 2 322 9
 210 00ba 7D74     		li	s0,-4096
 211 00bc 37060000 		lui	a2,%hi(.LC4)
 212 00c0 9305E47E 		addi	a1,s0,2030
 213 00c4 13060600 		addi	a2,a2,%lo(.LC4)
 214 00c8 7D45     		li	a0,31
 215 00ca 97000000 		call	iotx_state_event
 215      E7800000 
 216              	.LVL8:
 323:C:/Users/stapi/OneDrive/Desktop/GD32VW553/V1_MQTT_OK/GD32VW55X_Wifi_BLE_SDK/GD32VW55x_RELEASE_V1.0.2/MSDK/cloud/alicloud/src/services/dev_bind\awss_report.c ****     }
 217              		.loc 2 323 9
 323:C:/Users/stapi/OneDrive/Desktop/GD32VW553/V1_MQTT_OK/GD32VW55X_Wifi_BLE_SDK/GD32VW55x_RELEASE_V1.0.2/MSDK/cloud/alicloud/src/services/dev_bind\awss_report.c ****     }
 218              		.loc 2 323 16 is_stmt 0
 219 00d2 1304E47E 		addi	s0,s0,2030
 220 00d6 B9BF     		j	.L4
 221              	.L7:
 326:C:/Users/stapi/OneDrive/Desktop/GD32VW553/V1_MQTT_OK/GD32VW55X_Wifi_BLE_SDK/GD32VW55x_RELEASE_V1.0.2/MSDK/cloud/alicloud/src/services/dev_bind\awss_report.c ****         report_token_timer = HAL_Timer_Create("rp_token", (void (*)(void *))awss_report_token_to_cl
 222              		.loc 2 326 5 is_stmt 1
 326:C:/Users/stapi/OneDrive/Desktop/GD32VW553/V1_MQTT_OK/GD32VW55X_Wifi_BLE_SDK/GD32VW55x_RELEASE_V1.0.2/MSDK/cloud/alicloud/src/services/dev_bind\awss_report.c ****         report_token_timer = HAL_Timer_Create("rp_token", (void (*)(void *))awss_report_token_to_cl
 223              		.loc 2 326 8 is_stmt 0
 224 00d8 1C40     		lw	a5,0(s0)
 225 00da 99EF     		bne	a5,zero,.L8
 327:C:/Users/stapi/OneDrive/Desktop/GD32VW553/V1_MQTT_OK/GD32VW55X_Wifi_BLE_SDK/GD32VW55x_RELEASE_V1.0.2/MSDK/cloud/alicloud/src/services/dev_bind\awss_report.c ****     }
 226              		.loc 2 327 9 is_stmt 1
 327:C:/Users/stapi/OneDrive/Desktop/GD32VW553/V1_MQTT_OK/GD32VW55X_Wifi_BLE_SDK/GD32VW55x_RELEASE_V1.0.2/MSDK/cloud/alicloud/src/services/dev_bind\awss_report.c ****     }
 227              		.loc 2 327 30 is_stmt 0
 228 00dc B7050000 		lui	a1,%hi(awss_report_token_to_cloud)
 229 00e0 37050000 		lui	a0,%hi(.LC5)
 230 00e4 0146     		li	a2,0
 231 00e6 93850500 		addi	a1,a1,%lo(awss_report_token_to_cloud)
 232 00ea 13050500 		addi	a0,a0,%lo(.LC5)
 233 00ee 97000000 		call	HAL_Timer_Create
 233      E7800000 
 234              	.LVL9:
 327:C:/Users/stapi/OneDrive/Desktop/GD32VW553/V1_MQTT_OK/GD32VW55X_Wifi_BLE_SDK/GD32VW55x_RELEASE_V1.0.2/MSDK/cloud/alicloud/src/services/dev_bind\awss_report.c ****     }
 235              		.loc 2 327 28
 236 00f6 08C0     		sw	a0,0(s0)
 237              	.L8:
 329:C:/Users/stapi/OneDrive/Desktop/GD32VW553/V1_MQTT_OK/GD32VW55X_Wifi_BLE_SDK/GD32VW55x_RELEASE_V1.0.2/MSDK/cloud/alicloud/src/services/dev_bind\awss_report.c ****     HAL_Timer_Start(report_token_timer, 3 * 1000);
 238              		.loc 2 329 5 is_stmt 1
 239 00f8 0840     		lw	a0,0(s0)
 240 00fa 97000000 		call	HAL_Timer_Stop
 240      E7800000 
 241              	.LVL10:
 330:C:/Users/stapi/OneDrive/Desktop/GD32VW553/V1_MQTT_OK/GD32VW55X_Wifi_BLE_SDK/GD32VW55x_RELEASE_V1.0.2/MSDK/cloud/alicloud/src/services/dev_bind\awss_report.c **** 
 242              		.loc 2 330 5
 243 0102 0840     		lw	a0,0(s0)
 244 0104 8565     		li	a1,4096
 245 0106 938585BB 		addi	a1,a1,-1096
 246 010a 97000000 		call	HAL_Timer_Start
 246      E7800000 
 247              	.LVL11:
 332:C:/Users/stapi/OneDrive/Desktop/GD32VW553/V1_MQTT_OK/GD32VW55X_Wifi_BLE_SDK/GD32VW55x_RELEASE_V1.0.2/MSDK/cloud/alicloud/src/services/dev_bind\awss_report.c **** 
 248              		.loc 2 332 5
 332:C:/Users/stapi/OneDrive/Desktop/GD32VW553/V1_MQTT_OK/GD32VW55X_Wifi_BLE_SDK/GD32VW55x_RELEASE_V1.0.2/MSDK/cloud/alicloud/src/services/dev_bind\awss_report.c **** 
 249              		.loc 2 332 9 is_stmt 0
 250 0112 93070010 		li	a5,256
 251              	.LBB24:
 252              	.LBB25:
 253              	.LBB26:
 254              	.LBB27:
 380:..\..\..\..\cloud\alicloud\src\services\dev_bind\os/os.h **** }
 255              		.loc 1 380 12
 256 0116 13051010 		li	a0,257
 257              	.LBE27:
 258              	.LBE26:
 259              	.LBE25:
 260              	.LBE24:
 332:C:/Users/stapi/OneDrive/Desktop/GD32VW553/V1_MQTT_OK/GD32VW55X_Wifi_BLE_SDK/GD32VW55x_RELEASE_V1.0.2/MSDK/cloud/alicloud/src/services/dev_bind\awss_report.c **** 
 261              		.loc 2 332 9
 262 011a 3EC2     		sw	a5,4(sp)
 334:C:/Users/stapi/OneDrive/Desktop/GD32VW553/V1_MQTT_OK/GD32VW55X_Wifi_BLE_SDK/GD32VW55x_RELEASE_V1.0.2/MSDK/cloud/alicloud/src/services/dev_bind\awss_report.c ****     if (packet == NULL) {
 263              		.loc 2 334 5 is_stmt 1
 264              	.LVL12:
 265              	.LBB32:
 266              	.LBB30:
 408:..\..\..\..\cloud\alicloud\src\services\dev_bind\os/os.h ****     if (ptr != NULL) {
 267              		.loc 1 408 5
 268              	.LBB29:
 269              	.LBB28:
 380:..\..\..\..\cloud\alicloud\src\services\dev_bind\os/os.h **** }
 270              		.loc 1 380 5
 380:..\..\..\..\cloud\alicloud\src\services\dev_bind\os/os.h **** }
 271              		.loc 1 380 12 is_stmt 0
 272 011c 97000000 		call	HAL_Malloc
 272      E7800000 
 273              	.LVL13:
 274 0124 AA84     		mv	s1,a0
 275              	.LVL14:
 276              	.LBE28:
 277              	.LBE29:
 409:..\..\..\..\cloud\alicloud\src\services\dev_bind\os/os.h ****         memset(ptr, 0, size);
 278              		.loc 1 409 5 is_stmt 1
 409:..\..\..\..\cloud\alicloud\src\services\dev_bind\os/os.h ****         memset(ptr, 0, size);
 279              		.loc 1 409 8 is_stmt 0
 280 0126 6302051A 		beq	a0,zero,.L9
 410:..\..\..\..\cloud\alicloud\src\services\dev_bind\os/os.h ****     }
 281              		.loc 1 410 9 is_stmt 1
 282 012a 13061010 		li	a2,257
 283 012e 8145     		li	a1,0
 284 0130 97000000 		call	memset
 284      E7800000 
 285              	.LVL15:
 412:..\..\..\..\cloud\alicloud\src\services\dev_bind\os/os.h **** }
 286              		.loc 1 412 5
 287              	.LBE30:
 288              	.LBE32:
 335:C:/Users/stapi/OneDrive/Desktop/GD32VW553/V1_MQTT_OK/GD32VW55X_Wifi_BLE_SDK/GD32VW55x_RELEASE_V1.0.2/MSDK/cloud/alicloud/src/services/dev_bind\awss_report.c ****         awss_err("alloc mem(%d) failed", packet_len);
 289              		.loc 2 335 5
 340:C:/Users/stapi/OneDrive/Desktop/GD32VW553/V1_MQTT_OK/GD32VW55X_Wifi_BLE_SDK/GD32VW55x_RELEASE_V1.0.2/MSDK/cloud/alicloud/src/services/dev_bind\awss_report.c ****         // reduce stack used
 290              		.loc 2 340 5
 291              	.LBB33:
 342:C:/Users/stapi/OneDrive/Desktop/GD32VW553/V1_MQTT_OK/GD32VW55X_Wifi_BLE_SDK/GD32VW55x_RELEASE_V1.0.2/MSDK/cloud/alicloud/src/services/dev_bind\awss_report.c ****         bind_token_type_t token_type;
 292              		.loc 2 342 9
 343:C:/Users/stapi/OneDrive/Desktop/GD32VW553/V1_MQTT_OK/GD32VW55X_Wifi_BLE_SDK/GD32VW55x_RELEASE_V1.0.2/MSDK/cloud/alicloud/src/services/dev_bind\awss_report.c ****         char id_str[MSG_REQ_ID_LEN] = {0};
 293              		.loc 2 343 9
 344:C:/Users/stapi/OneDrive/Desktop/GD32VW553/V1_MQTT_OK/GD32VW55X_Wifi_BLE_SDK/GD32VW55x_RELEASE_V1.0.2/MSDK/cloud/alicloud/src/services/dev_bind\awss_report.c ****         char param[REPORT_TOKEN_PARAM_LEN] = {0};
 294              		.loc 2 344 9
 345:C:/Users/stapi/OneDrive/Desktop/GD32VW553/V1_MQTT_OK/GD32VW55X_Wifi_BLE_SDK/GD32VW55x_RELEASE_V1.0.2/MSDK/cloud/alicloud/src/services/dev_bind\awss_report.c ****         unsigned char token_str[RANDOM_STR_MAX_LEN] = {0};
 295              		.loc 2 345 14 is_stmt 0
 296 0138 1306C003 		li	a2,60
 297 013c 8145     		li	a1,0
 298 013e 4801     		addi	a0,sp,132
 344:C:/Users/stapi/OneDrive/Desktop/GD32VW553/V1_MQTT_OK/GD32VW55X_Wifi_BLE_SDK/GD32VW55x_RELEASE_V1.0.2/MSDK/cloud/alicloud/src/services/dev_bind\awss_report.c ****         char param[REPORT_TOKEN_PARAM_LEN] = {0};
 299              		.loc 2 344 14
 300 0140 02C6     		sw	zero,12(sp)
 301 0142 02C8     		sw	zero,16(sp)
 302 0144 02CA     		sw	zero,20(sp)
 303 0146 02CC     		sw	zero,24(sp)
 345:C:/Users/stapi/OneDrive/Desktop/GD32VW553/V1_MQTT_OK/GD32VW55X_Wifi_BLE_SDK/GD32VW55x_RELEASE_V1.0.2/MSDK/cloud/alicloud/src/services/dev_bind\awss_report.c ****         unsigned char token_str[RANDOM_STR_MAX_LEN] = {0};
 304              		.loc 2 345 9 is_stmt 1
 345:C:/Users/stapi/OneDrive/Desktop/GD32VW553/V1_MQTT_OK/GD32VW55X_Wifi_BLE_SDK/GD32VW55x_RELEASE_V1.0.2/MSDK/cloud/alicloud/src/services/dev_bind\awss_report.c ****         unsigned char token_str[RANDOM_STR_MAX_LEN] = {0};
 305              		.loc 2 345 14 is_stmt 0
 306 0148 02C1     		sw	zero,128(sp)
 307 014a 97000000 		call	memset
 307      E7800000 
 308              	.LVL16:
 346:C:/Users/stapi/OneDrive/Desktop/GD32VW553/V1_MQTT_OK/GD32VW55X_Wifi_BLE_SDK/GD32VW55x_RELEASE_V1.0.2/MSDK/cloud/alicloud/src/services/dev_bind\awss_report.c **** 
 309              		.loc 2 346 9 is_stmt 1
 346:C:/Users/stapi/OneDrive/Desktop/GD32VW553/V1_MQTT_OK/GD32VW55X_Wifi_BLE_SDK/GD32VW55x_RELEASE_V1.0.2/MSDK/cloud/alicloud/src/services/dev_bind\awss_report.c **** 
 310              		.loc 2 346 23 is_stmt 0
 311 0152 7546     		li	a2,29
 312 0154 8145     		li	a1,0
 313 0156 0810     		addi	a0,sp,32
 314 0158 02CE     		sw	zero,28(sp)
 315 015a 97000000 		call	memset
 315      E7800000 
 316              	.LVL17:
 348:C:/Users/stapi/OneDrive/Desktop/GD32VW553/V1_MQTT_OK/GD32VW55X_Wifi_BLE_SDK/GD32VW55x_RELEASE_V1.0.2/MSDK/cloud/alicloud/src/services/dev_bind\awss_report.c **** 
 317              		.loc 2 348 9 is_stmt 1
 348:C:/Users/stapi/OneDrive/Desktop/GD32VW553/V1_MQTT_OK/GD32VW55X_Wifi_BLE_SDK/GD32VW55x_RELEASE_V1.0.2/MSDK/cloud/alicloud/src/services/dev_bind\awss_report.c **** 
 318              		.loc 2 348 34 is_stmt 0
 319 0162 97000000 		call	os_get_time_ms
 319      E7800000 
 320              	.LVL18:
 348:C:/Users/stapi/OneDrive/Desktop/GD32VW553/V1_MQTT_OK/GD32VW55X_Wifi_BLE_SDK/GD32VW55x_RELEASE_V1.0.2/MSDK/cloud/alicloud/src/services/dev_bind\awss_report.c **** 
 321              		.loc 2 348 32
 322 016a B7070000 		lui	a5,%hi(.LANCHOR4)
 323 016e 23A0A700 		sw	a0,%lo(.LANCHOR4)(a5)
 350:C:/Users/stapi/OneDrive/Desktop/GD32VW553/V1_MQTT_OK/GD32VW55X_Wifi_BLE_SDK/GD32VW55x_RELEASE_V1.0.2/MSDK/cloud/alicloud/src/services/dev_bind\awss_report.c **** 
 324              		.loc 2 350 9 is_stmt 1
 350:C:/Users/stapi/OneDrive/Desktop/GD32VW553/V1_MQTT_OK/GD32VW55X_Wifi_BLE_SDK/GD32VW55x_RELEASE_V1.0.2/MSDK/cloud/alicloud/src/services/dev_bind\awss_report.c **** 
 325              		.loc 2 350 71 is_stmt 0
 326 0172 B7070000 		lui	a5,%hi(.LANCHOR5)
 327 0176 93870700 		addi	a5,a5,%lo(.LANCHOR5)
 350:C:/Users/stapi/OneDrive/Desktop/GD32VW553/V1_MQTT_OK/GD32VW55X_Wifi_BLE_SDK/GD32VW55x_RELEASE_V1.0.2/MSDK/cloud/alicloud/src/services/dev_bind\awss_report.c **** 
 328              		.loc 2 350 9
 329 017a 37060000 		lui	a2,%hi(.LC6)
 350:C:/Users/stapi/OneDrive/Desktop/GD32VW553/V1_MQTT_OK/GD32VW55X_Wifi_BLE_SDK/GD32VW55x_RELEASE_V1.0.2/MSDK/cloud/alicloud/src/services/dev_bind\awss_report.c **** 
 330              		.loc 2 350 71
 331 017e 83860700 		lb	a3,0(a5)
 350:C:/Users/stapi/OneDrive/Desktop/GD32VW553/V1_MQTT_OK/GD32VW55X_Wifi_BLE_SDK/GD32VW55x_RELEASE_V1.0.2/MSDK/cloud/alicloud/src/services/dev_bind\awss_report.c **** 
 332              		.loc 2 350 9
 333 0182 13060600 		addi	a2,a2,%lo(.LC6)
 350:C:/Users/stapi/OneDrive/Desktop/GD32VW553/V1_MQTT_OK/GD32VW55X_Wifi_BLE_SDK/GD32VW55x_RELEASE_V1.0.2/MSDK/cloud/alicloud/src/services/dev_bind\awss_report.c **** 
 334              		.loc 2 350 71
 335 0186 13871600 		addi	a4,a3,1
 350:C:/Users/stapi/OneDrive/Desktop/GD32VW553/V1_MQTT_OK/GD32VW55X_Wifi_BLE_SDK/GD32VW55x_RELEASE_V1.0.2/MSDK/cloud/alicloud/src/services/dev_bind\awss_report.c **** 
 336              		.loc 2 350 9
 337 018a BD45     		li	a1,15
 338 018c 6800     		addi	a0,sp,12
 350:C:/Users/stapi/OneDrive/Desktop/GD32VW553/V1_MQTT_OK/GD32VW55X_Wifi_BLE_SDK/GD32VW55x_RELEASE_V1.0.2/MSDK/cloud/alicloud/src/services/dev_bind\awss_report.c **** 
 339              		.loc 2 350 71
 340 018e 2380E700 		sb	a4,0(a5)
 350:C:/Users/stapi/OneDrive/Desktop/GD32VW553/V1_MQTT_OK/GD32VW55X_Wifi_BLE_SDK/GD32VW55x_RELEASE_V1.0.2/MSDK/cloud/alicloud/src/services/dev_bind\awss_report.c **** 
 341              		.loc 2 350 9
 342 0192 97000000 		call	snprintf
 342      E7800000 
 343              	.LVL19:
 352:C:/Users/stapi/OneDrive/Desktop/GD32VW553/V1_MQTT_OK/GD32VW55X_Wifi_BLE_SDK/GD32VW55x_RELEASE_V1.0.2/MSDK/cloud/alicloud/src/services/dev_bind\awss_report.c ****         snprintf(param, REPORT_TOKEN_PARAM_LEN - 1, "{\"token\":\"%s\"}", token_str);
 344              		.loc 2 352 9 is_stmt 1
 345 019a 3000     		addi	a2,sp,8
 346 019c 93051002 		li	a1,33
 347 01a0 6808     		addi	a0,sp,28
 348 01a2 97000000 		call	awss_get_token
 348      E7800000 
 349              	.LVL20:
 353:C:/Users/stapi/OneDrive/Desktop/GD32VW553/V1_MQTT_OK/GD32VW55X_Wifi_BLE_SDK/GD32VW55x_RELEASE_V1.0.2/MSDK/cloud/alicloud/src/services/dev_bind\awss_report.c ****         awss_build_packet(AWSS_CMP_PKT_TYPE_REQ, id_str, ILOP_VER, METHOD_MATCH_REPORT, param, 0, p
 350              		.loc 2 353 9
 351 01aa 37060000 		lui	a2,%hi(.LC7)
 352 01ae 7408     		addi	a3,sp,28
 353 01b0 13060600 		addi	a2,a2,%lo(.LC7)
 354 01b4 9305F003 		li	a1,63
 355 01b8 0801     		addi	a0,sp,128
 356 01ba 97000000 		call	snprintf
 356      E7800000 
 357              	.LVL21:
 354:C:/Users/stapi/OneDrive/Desktop/GD32VW553/V1_MQTT_OK/GD32VW55X_Wifi_BLE_SDK/GD32VW55x_RELEASE_V1.0.2/MSDK/cloud/alicloud/src/services/dev_bind\awss_report.c **** 
 358              		.loc 2 354 9
 359 01c2 B7060000 		lui	a3,%hi(.LC8)
 360 01c6 37060000 		lui	a2,%hi(.LC9)
 361 01ca 93084100 		addi	a7,sp,4
 362 01ce 2688     		mv	a6,s1
 363 01d0 8147     		li	a5,0
 364 01d2 1801     		addi	a4,sp,128
 365 01d4 93860600 		addi	a3,a3,%lo(.LC8)
 366 01d8 13060600 		addi	a2,a2,%lo(.LC9)
 367 01dc 6C00     		addi	a1,sp,12
 368 01de 0545     		li	a0,1
 369 01e0 97000000 		call	awss_build_packet
 369      E7800000 
 370              	.LVL22:
 356:C:/Users/stapi/OneDrive/Desktop/GD32VW553/V1_MQTT_OK/GD32VW55X_Wifi_BLE_SDK/GD32VW55x_RELEASE_V1.0.2/MSDK/cloud/alicloud/src/services/dev_bind\awss_report.c ****         dump_dev_bind_status(STATE_BIND_REPORT_TOKEN, token_state_msg);        
 371              		.loc 2 356 9
 372 01e8 37060000 		lui	a2,%hi(.LC10)
 373 01ec 7408     		addi	a3,sp,28
 374 01ee 13060600 		addi	a2,a2,%lo(.LC10)
 375 01f2 93050004 		li	a1,64
 376 01f6 8800     		addi	a0,sp,64
 377 01f8 97000000 		call	HAL_Snprintf
 377      E7800000 
 378              	.LVL23:
 357:C:/Users/stapi/OneDrive/Desktop/GD32VW553/V1_MQTT_OK/GD32VW55X_Wifi_BLE_SDK/GD32VW55x_RELEASE_V1.0.2/MSDK/cloud/alicloud/src/services/dev_bind\awss_report.c ****     } while (0);
 379              		.loc 2 357 9
 380 0200 FD79     		li	s3,-4096
 381 0202 9000     		addi	a2,sp,64
 382 0204 9385D97F 		addi	a1,s3,2045
 383 0208 7D45     		li	a0,31
 384 020a 97000000 		call	iotx_state_event
 384      E7800000 
 385              	.LVL24:
 386              	.LBE33:
 358:C:/Users/stapi/OneDrive/Desktop/GD32VW553/V1_MQTT_OK/GD32VW55X_Wifi_BLE_SDK/GD32VW55x_RELEASE_V1.0.2/MSDK/cloud/alicloud/src/services/dev_bind\awss_report.c **** 
 387              		.loc 2 358 13
 360:C:/Users/stapi/OneDrive/Desktop/GD32VW553/V1_MQTT_OK/GD32VW55X_Wifi_BLE_SDK/GD32VW55x_RELEASE_V1.0.2/MSDK/cloud/alicloud/src/services/dev_bind\awss_report.c ****     char topic[TOPIC_LEN_MAX] = {0};
 388              		.loc 2 360 5
 389 0212 37070000 		lui	a4,%hi(.LC11)
 390 0216 B7050000 		lui	a1,%hi(.LANCHOR6)
 391 021a 37050000 		lui	a0,%hi(.LC12)
 392 021e A687     		mv	a5,s1
 393 0220 13070700 		addi	a4,a4,%lo(.LC11)
 394 0224 9546     		li	a3,5
 395 0226 13068016 		li	a2,360
 396 022a 93850500 		addi	a1,a1,%lo(.LANCHOR6)
 397 022e 13050500 		addi	a0,a0,%lo(.LC12)
 398 0232 97000000 		call	LITE_syslog
 398      E7800000 
 399              	.LVL25:
 361:C:/Users/stapi/OneDrive/Desktop/GD32VW553/V1_MQTT_OK/GD32VW55X_Wifi_BLE_SDK/GD32VW55x_RELEASE_V1.0.2/MSDK/cloud/alicloud/src/services/dev_bind\awss_report.c ****     awss_build_topic(TOPIC_MATCH_REPORT, topic, TOPIC_LEN_MAX);
 400              		.loc 2 361 5
 361:C:/Users/stapi/OneDrive/Desktop/GD32VW553/V1_MQTT_OK/GD32VW55X_Wifi_BLE_SDK/GD32VW55x_RELEASE_V1.0.2/MSDK/cloud/alicloud/src/services/dev_bind\awss_report.c ****     awss_build_topic(TOPIC_MATCH_REPORT, topic, TOPIC_LEN_MAX);
 401              		.loc 2 361 10 is_stmt 0
 402 023a 1306C007 		li	a2,124
 403 023e 8145     		li	a1,0
 404 0240 4801     		addi	a0,sp,132
 405 0242 02C1     		sw	zero,128(sp)
 406 0244 97000000 		call	memset
 406      E7800000 
 407              	.LVL26:
 362:C:/Users/stapi/OneDrive/Desktop/GD32VW553/V1_MQTT_OK/GD32VW55X_Wifi_BLE_SDK/GD32VW55x_RELEASE_V1.0.2/MSDK/cloud/alicloud/src/services/dev_bind\awss_report.c **** 
 408              		.loc 2 362 5 is_stmt 1
 409 024c 37050000 		lui	a0,%hi(.LC13)
 410 0250 13060008 		li	a2,128
 411 0254 0C01     		addi	a1,sp,128
 412 0256 13050500 		addi	a0,a0,%lo(.LC13)
 413 025a 97000000 		call	awss_build_topic
 413      E7800000 
 414              	.LVL27:
 364:C:/Users/stapi/OneDrive/Desktop/GD32VW553/V1_MQTT_OK/GD32VW55X_Wifi_BLE_SDK/GD32VW55x_RELEASE_V1.0.2/MSDK/cloud/alicloud/src/services/dev_bind\awss_report.c **** 
 415              		.loc 2 364 5
 364:C:/Users/stapi/OneDrive/Desktop/GD32VW553/V1_MQTT_OK/GD32VW55X_Wifi_BLE_SDK/GD32VW55x_RELEASE_V1.0.2/MSDK/cloud/alicloud/src/services/dev_bind\awss_report.c **** 
 416              		.loc 2 364 15 is_stmt 0
 417 0262 1246     		lw	a2,4(sp)
 418 0264 8546     		li	a3,1
 419 0266 A685     		mv	a1,s1
 420 0268 0801     		addi	a0,sp,128
 421 026a 97000000 		call	awss_cmp_mqtt_send
 421      E7800000 
 422              	.LVL28:
 423 0272 2A84     		mv	s0,a0
 424              	.LVL29:
 366:C:/Users/stapi/OneDrive/Desktop/GD32VW553/V1_MQTT_OK/GD32VW55X_Wifi_BLE_SDK/GD32VW55x_RELEASE_V1.0.2/MSDK/cloud/alicloud/src/services/dev_bind\awss_report.c ****     if (ret < 0) {
 425              		.loc 2 366 5 is_stmt 1
 366:C:/Users/stapi/OneDrive/Desktop/GD32VW553/V1_MQTT_OK/GD32VW55X_Wifi_BLE_SDK/GD32VW55x_RELEASE_V1.0.2/MSDK/cloud/alicloud/src/services/dev_bind\awss_report.c ****     if (ret < 0) {
 426              		.loc 2 366 5
 427 0274 37050000 		lui	a0,%hi(.LC1)
 428 0278 13050500 		addi	a0,a0,%lo(.LC1)
 429 027c 97000000 		call	HAL_Printf
 429      E7800000 
 430              	.LVL30:
 366:C:/Users/stapi/OneDrive/Desktop/GD32VW553/V1_MQTT_OK/GD32VW55X_Wifi_BLE_SDK/GD32VW55x_RELEASE_V1.0.2/MSDK/cloud/alicloud/src/services/dev_bind\awss_report.c ****     if (ret < 0) {
 431              		.loc 2 366 5
 432 0284 37050000 		lui	a0,%hi(.LC14)
 433 0288 13050500 		addi	a0,a0,%lo(.LC14)
 434 028c A285     		mv	a1,s0
 435 028e 97000000 		call	HAL_Printf
 435      E7800000 
 436              	.LVL31:
 366:C:/Users/stapi/OneDrive/Desktop/GD32VW553/V1_MQTT_OK/GD32VW55X_Wifi_BLE_SDK/GD32VW55x_RELEASE_V1.0.2/MSDK/cloud/alicloud/src/services/dev_bind\awss_report.c ****     if (ret < 0) {
 437              		.loc 2 366 5
 438 0296 13050900 		addi	a0,s2,%lo(.LC3)
 439 029a 97000000 		call	HAL_Printf
 439      E7800000 
 440              	.LVL32:
 366:C:/Users/stapi/OneDrive/Desktop/GD32VW553/V1_MQTT_OK/GD32VW55X_Wifi_BLE_SDK/GD32VW55x_RELEASE_V1.0.2/MSDK/cloud/alicloud/src/services/dev_bind\awss_report.c ****     if (ret < 0) {
 441              		.loc 2 366 5
 367:C:/Users/stapi/OneDrive/Desktop/GD32VW553/V1_MQTT_OK/GD32VW55X_Wifi_BLE_SDK/GD32VW55x_RELEASE_V1.0.2/MSDK/cloud/alicloud/src/services/dev_bind\awss_report.c ****         // if ret > 0, means send success, and ret value is msg id
 442              		.loc 2 367 5
 367:C:/Users/stapi/OneDrive/Desktop/GD32VW553/V1_MQTT_OK/GD32VW55X_Wifi_BLE_SDK/GD32VW55x_RELEASE_V1.0.2/MSDK/cloud/alicloud/src/services/dev_bind\awss_report.c ****         // if ret > 0, means send success, and ret value is msg id
 443              		.loc 2 367 8 is_stmt 0
 444 02a2 635E0400 		bge	s0,zero,.L10
 369:C:/Users/stapi/OneDrive/Desktop/GD32VW553/V1_MQTT_OK/GD32VW55X_Wifi_BLE_SDK/GD32VW55x_RELEASE_V1.0.2/MSDK/cloud/alicloud/src/services/dev_bind\awss_report.c ****     }
 445              		.loc 2 369 9 is_stmt 1
 446 02a6 37060000 		lui	a2,%hi(.LC15)
 447 02aa A286     		mv	a3,s0
 448 02ac 13060600 		addi	a2,a2,%lo(.LC15)
 449 02b0 9385E97B 		addi	a1,s3,1982
 450 02b4 7D45     		li	a0,31
 451 02b6 97000000 		call	iotx_state_event
 451      E7800000 
 452              	.LVL33:
 453              	.L10:
 371:C:/Users/stapi/OneDrive/Desktop/GD32VW553/V1_MQTT_OK/GD32VW55X_Wifi_BLE_SDK/GD32VW55x_RELEASE_V1.0.2/MSDK/cloud/alicloud/src/services/dev_bind\awss_report.c **** 
 454              		.loc 2 371 5
 455              	.LBB34:
 456              	.LBB35:
 394:..\..\..\..\cloud\alicloud\src\services\dev_bind\os/os.h **** }
 457              		.loc 1 394 5
 458 02be 2685     		mv	a0,s1
 459 02c0 97000000 		call	HAL_Free
 459      E7800000 
 460              	.LVL34:
 461              	.LBE35:
 462              	.LBE34:
 373:C:/Users/stapi/OneDrive/Desktop/GD32VW553/V1_MQTT_OK/GD32VW55X_Wifi_BLE_SDK/GD32VW55x_RELEASE_V1.0.2/MSDK/cloud/alicloud/src/services/dev_bind\awss_report.c **** }
 463              		.loc 2 373 5
 373:C:/Users/stapi/OneDrive/Desktop/GD32VW553/V1_MQTT_OK/GD32VW55X_Wifi_BLE_SDK/GD32VW55x_RELEASE_V1.0.2/MSDK/cloud/alicloud/src/services/dev_bind\awss_report.c **** }
 464              		.loc 2 373 12 is_stmt 0
 465 02c8 B5B3     		j	.L4
 466              	.LVL35:
 467              	.L9:
 468              	.LBB36:
 469              	.LBB31:
 412:..\..\..\..\cloud\alicloud\src\services\dev_bind\os/os.h **** }
 470              		.loc 1 412 5 is_stmt 1
 471              	.LBE31:
 472              	.LBE36:
 335:C:/Users/stapi/OneDrive/Desktop/GD32VW553/V1_MQTT_OK/GD32VW55X_Wifi_BLE_SDK/GD32VW55x_RELEASE_V1.0.2/MSDK/cloud/alicloud/src/services/dev_bind\awss_report.c ****         awss_err("alloc mem(%d) failed", packet_len);
 473              		.loc 2 335 5
 336:C:/Users/stapi/OneDrive/Desktop/GD32VW553/V1_MQTT_OK/GD32VW55X_Wifi_BLE_SDK/GD32VW55x_RELEASE_V1.0.2/MSDK/cloud/alicloud/src/services/dev_bind\awss_report.c ****         return STATE_SYS_DEPEND_MALLOC;
 474              		.loc 2 336 9
 336:C:/Users/stapi/OneDrive/Desktop/GD32VW553/V1_MQTT_OK/GD32VW55X_Wifi_BLE_SDK/GD32VW55x_RELEASE_V1.0.2/MSDK/cloud/alicloud/src/services/dev_bind\awss_report.c ****         return STATE_SYS_DEPEND_MALLOC;
 475              		.loc 2 336 9
 476 02ca 37050000 		lui	a0,%hi(.LC16)
 477 02ce 13050500 		addi	a0,a0,%lo(.LC16)
 478 02d2 97000000 		call	HAL_Printf
 478      E7800000 
 479              	.LVL36:
 336:C:/Users/stapi/OneDrive/Desktop/GD32VW553/V1_MQTT_OK/GD32VW55X_Wifi_BLE_SDK/GD32VW55x_RELEASE_V1.0.2/MSDK/cloud/alicloud/src/services/dev_bind\awss_report.c ****         return STATE_SYS_DEPEND_MALLOC;
 480              		.loc 2 336 9
 481 02da 9245     		lw	a1,4(sp)
 482 02dc 37050000 		lui	a0,%hi(.LC17)
 483 02e0 13050500 		addi	a0,a0,%lo(.LC17)
 484 02e4 97000000 		call	HAL_Printf
 484      E7800000 
 485              	.LVL37:
 336:C:/Users/stapi/OneDrive/Desktop/GD32VW553/V1_MQTT_OK/GD32VW55X_Wifi_BLE_SDK/GD32VW55x_RELEASE_V1.0.2/MSDK/cloud/alicloud/src/services/dev_bind\awss_report.c ****         return STATE_SYS_DEPEND_MALLOC;
 486              		.loc 2 336 9
 487 02ec 13050900 		addi	a0,s2,%lo(.LC3)
 488 02f0 97000000 		call	HAL_Printf
 488      E7800000 
 489              	.LVL38:
 336:C:/Users/stapi/OneDrive/Desktop/GD32VW553/V1_MQTT_OK/GD32VW55X_Wifi_BLE_SDK/GD32VW55x_RELEASE_V1.0.2/MSDK/cloud/alicloud/src/services/dev_bind\awss_report.c ****         return STATE_SYS_DEPEND_MALLOC;
 490              		.loc 2 336 9
 337:C:/Users/stapi/OneDrive/Desktop/GD32VW553/V1_MQTT_OK/GD32VW55X_Wifi_BLE_SDK/GD32VW55x_RELEASE_V1.0.2/MSDK/cloud/alicloud/src/services/dev_bind\awss_report.c ****     }
 491              		.loc 2 337 9
 337:C:/Users/stapi/OneDrive/Desktop/GD32VW553/V1_MQTT_OK/GD32VW55X_Wifi_BLE_SDK/GD32VW55x_RELEASE_V1.0.2/MSDK/cloud/alicloud/src/services/dev_bind\awss_report.c ****     }
 492              		.loc 2 337 16 is_stmt 0
 493 02f8 1304F0DF 		li	s0,-513
 494 02fc 25BB     		j	.L4
 495              		.cfi_endproc
 496              	.LFE71:
 498              		.section	.text.awss_reboot_system,"ax",@progbits
 499              		.align	1
 501              	awss_reboot_system:
 502              	.LFB70:
 293:C:/Users/stapi/OneDrive/Desktop/GD32VW553/V1_MQTT_OK/GD32VW55X_Wifi_BLE_SDK/GD32VW55x_RELEASE_V1.0.2/MSDK/cloud/alicloud/src/services/dev_bind\awss_report.c ****     awss_stop_timer(reboot_timer);
 503              		.loc 2 293 1 is_stmt 1
 504              		.cfi_startproc
 505 0000 17030000 		call	t0,__riscv_save_1
 505      E7020300 
 506              		.cfi_offset 8, -8
 507              		.cfi_offset 1, -4
 508              		.cfi_def_cfa_offset 16
 294:C:/Users/stapi/OneDrive/Desktop/GD32VW553/V1_MQTT_OK/GD32VW55X_Wifi_BLE_SDK/GD32VW55x_RELEASE_V1.0.2/MSDK/cloud/alicloud/src/services/dev_bind\awss_report.c ****     reboot_timer = NULL;
 509              		.loc 2 294 5
 510 0008 37040000 		lui	s0,%hi(.LANCHOR7)
 511 000c 13040400 		addi	s0,s0,%lo(.LANCHOR7)
 512 0010 0840     		lw	a0,0(s0)
 513 0012 97000000 		call	awss_stop_timer
 513      E7800000 
 514              	.LVL39:
 295:C:/Users/stapi/OneDrive/Desktop/GD32VW553/V1_MQTT_OK/GD32VW55X_Wifi_BLE_SDK/GD32VW55x_RELEASE_V1.0.2/MSDK/cloud/alicloud/src/services/dev_bind\awss_report.c ****     os_reboot();
 515              		.loc 2 295 5
 295:C:/Users/stapi/OneDrive/Desktop/GD32VW553/V1_MQTT_OK/GD32VW55X_Wifi_BLE_SDK/GD32VW55x_RELEASE_V1.0.2/MSDK/cloud/alicloud/src/services/dev_bind\awss_report.c ****     os_reboot();
 516              		.loc 2 295 18 is_stmt 0
 517 001a 23200400 		sw	zero,0(s0)
 296:C:/Users/stapi/OneDrive/Desktop/GD32VW553/V1_MQTT_OK/GD32VW55X_Wifi_BLE_SDK/GD32VW55x_RELEASE_V1.0.2/MSDK/cloud/alicloud/src/services/dev_bind\awss_report.c ****     while (1);
 518              		.loc 2 296 5 is_stmt 1
 519              	.LBB37:
 520              	.LBB38:
 235:..\..\..\..\cloud\alicloud\src\services\dev_bind\os/os.h **** }
 521              		.loc 1 235 5
 522 001e 97000000 		call	HAL_Reboot
 522      E7800000 
 523              	.LVL40:
 524              	.L13:
 525              	.LBE38:
 526              	.LBE37:
 297:C:/Users/stapi/OneDrive/Desktop/GD32VW553/V1_MQTT_OK/GD32VW55X_Wifi_BLE_SDK/GD32VW55x_RELEASE_V1.0.2/MSDK/cloud/alicloud/src/services/dev_bind\awss_report.c ****     return 0;
 527              		.loc 2 297 5 discriminator 1
 297:C:/Users/stapi/OneDrive/Desktop/GD32VW553/V1_MQTT_OK/GD32VW55X_Wifi_BLE_SDK/GD32VW55x_RELEASE_V1.0.2/MSDK/cloud/alicloud/src/services/dev_bind\awss_report.c ****     return 0;
 528              		.loc 2 297 14 discriminator 1
 297:C:/Users/stapi/OneDrive/Desktop/GD32VW553/V1_MQTT_OK/GD32VW55X_Wifi_BLE_SDK/GD32VW55x_RELEASE_V1.0.2/MSDK/cloud/alicloud/src/services/dev_bind\awss_report.c ****     return 0;
 529              		.loc 2 297 11 discriminator 1
 530 0026 01A0     		j	.L13
 531              		.cfi_endproc
 532              	.LFE70:
 534              		.section	.rodata.awss_switch_ap_online.str1.4,"aMS",@progbits,1
 535              		.align	2
 536              	.LC18:
 537 0000 72625F74 		.string	"rb_timer"
 537      696D6572 
 537      00
 538              		.section	.text.awss_switch_ap_online,"ax",@progbits
 539              		.align	1
 541              	awss_switch_ap_online:
 542              	.LFB69:
 275:C:/Users/stapi/OneDrive/Desktop/GD32VW553/V1_MQTT_OK/GD32VW55X_Wifi_BLE_SDK/GD32VW55x_RELEASE_V1.0.2/MSDK/cloud/alicloud/src/services/dev_bind\awss_report.c ****     os_awss_connect_ap(WLAN_CONNECTION_TIMEOUT_MS, switchap_ssid, switchap_passwd,
 543              		.loc 2 275 1
 544              		.cfi_startproc
 545 0000 17030000 		call	t0,__riscv_save_4
 545      E7020300 
 546              		.cfi_offset 19, -20
 547              		.cfi_offset 18, -16
 548              		.cfi_offset 9, -12
 549              		.cfi_offset 8, -8
 550              		.cfi_offset 1, -4
 551              		.cfi_def_cfa_offset 32
 276:C:/Users/stapi/OneDrive/Desktop/GD32VW553/V1_MQTT_OK/GD32VW55X_Wifi_BLE_SDK/GD32VW55x_RELEASE_V1.0.2/MSDK/cloud/alicloud/src/services/dev_bind\awss_report.c ****                        AWSS_AUTH_TYPE_INVALID, AWSS_ENC_TYPE_INVALID, switchap_bssid, 0);
 552              		.loc 2 276 5
 553              	.LVL41:
 554              	.LBB41:
 555              	.LBB42:
 455:..\..\..\..\cloud\alicloud\src\services\dev_bind\os/os.h **** 
 456:..\..\..\..\cloud\alicloud\src\services\dev_bind\os/os.h **** /*
 457:..\..\..\..\cloud\alicloud\src\services\dev_bind\os/os.h ****  *  These inlines deal with timer wrapping correctly. You are
 458:..\..\..\..\cloud\alicloud\src\services\dev_bind\os/os.h ****  *  strongly encouraged to use them
 459:..\..\..\..\cloud\alicloud\src\services\dev_bind\os/os.h ****  *  1. Because people otherwise forget
 460:..\..\..\..\cloud\alicloud\src\services\dev_bind\os/os.h ****  *  2. Because if the timer wrap changes in future you won't have to
 461:..\..\..\..\cloud\alicloud\src\services\dev_bind\os/os.h ****  *     alter your code.
 462:..\..\..\..\cloud\alicloud\src\services\dev_bind\os/os.h ****  */
 463:..\..\..\..\cloud\alicloud\src\services\dev_bind\os/os.h **** static inline uint32_t time_elapsed_ms_since(uint32_t start_timestamp)
 464:..\..\..\..\cloud\alicloud\src\services\dev_bind\os/os.h **** {
 465:..\..\..\..\cloud\alicloud\src\services\dev_bind\os/os.h ****     uint32_t now = os_get_time_ms();
 466:..\..\..\..\cloud\alicloud\src\services\dev_bind\os/os.h **** 
 467:..\..\..\..\cloud\alicloud\src\services\dev_bind\os/os.h ****     return now - start_timestamp;
 468:..\..\..\..\cloud\alicloud\src\services\dev_bind\os/os.h **** }
 469:..\..\..\..\cloud\alicloud\src\services\dev_bind\os/os.h **** 
 470:..\..\..\..\cloud\alicloud\src\services\dev_bind\os/os.h **** /** @} */// end of os_system
 471:..\..\..\..\cloud\alicloud\src\services\dev_bind\os/os.h **** 
 472:..\..\..\..\cloud\alicloud\src\services\dev_bind\os/os.h **** /****************************************** io Interface ******************************************
 473:..\..\..\..\cloud\alicloud\src\services\dev_bind\os/os.h **** 
 474:..\..\..\..\cloud\alicloud\src\services\dev_bind\os/os.h **** /** @defgroup group_os_io io
 475:..\..\..\..\cloud\alicloud\src\services\dev_bind\os/os.h ****  *  @{
 476:..\..\..\..\cloud\alicloud\src\services\dev_bind\os/os.h ****  */
 477:..\..\..\..\cloud\alicloud\src\services\dev_bind\os/os.h **** 
 478:..\..\..\..\cloud\alicloud\src\services\dev_bind\os/os.h **** /**
 479:..\..\..\..\cloud\alicloud\src\services\dev_bind\os/os.h ****  * @brief Writes formatted data to stream.
 480:..\..\..\..\cloud\alicloud\src\services\dev_bind\os/os.h ****  *
 481:..\..\..\..\cloud\alicloud\src\services\dev_bind\os/os.h ****  * @param[in] fmt: @n String that contains the text to be written, it can optionally contain embedd
 482:..\..\..\..\cloud\alicloud\src\services\dev_bind\os/os.h ****      that specifies how subsequent arguments are converted for output.
 483:..\..\..\..\cloud\alicloud\src\services\dev_bind\os/os.h ****  * @param[in] ...: @n the variable argument list, for formatted and inserted in the resulting strin
 484:..\..\..\..\cloud\alicloud\src\services\dev_bind\os/os.h ****  * @return None.
 485:..\..\..\..\cloud\alicloud\src\services\dev_bind\os/os.h ****  * @see None.
 486:..\..\..\..\cloud\alicloud\src\services\dev_bind\os/os.h ****  * @note None.
 487:..\..\..\..\cloud\alicloud\src\services\dev_bind\os/os.h ****  */
 488:..\..\..\..\cloud\alicloud\src\services\dev_bind\os/os.h **** #define os_printf(fmt, ...) platform_printf(fmt, ## __VA_ARGS__)
 489:..\..\..\..\cloud\alicloud\src\services\dev_bind\os/os.h **** 
 490:..\..\..\..\cloud\alicloud\src\services\dev_bind\os/os.h **** /** @} */// end of os_io
 491:..\..\..\..\cloud\alicloud\src\services\dev_bind\os/os.h **** 
 492:..\..\..\..\cloud\alicloud\src\services\dev_bind\os/os.h **** /*************************************** wifi module Interface ************************************
 493:..\..\..\..\cloud\alicloud\src\services\dev_bind\os/os.h **** 
 494:..\..\..\..\cloud\alicloud\src\services\dev_bind\os/os.h **** /** @defgroup group_os_wifi_module wifi
 495:..\..\..\..\cloud\alicloud\src\services\dev_bind\os/os.h ****  *  @{
 496:..\..\..\..\cloud\alicloud\src\services\dev_bind\os/os.h ****  */
 497:..\..\..\..\cloud\alicloud\src\services\dev_bind\os/os.h **** 
 498:..\..\..\..\cloud\alicloud\src\services\dev_bind\os/os.h **** /**
 499:..\..\..\..\cloud\alicloud\src\services\dev_bind\os/os.h ****  * @brief Get encrypt type for smartconfig.
 500:..\..\..\..\cloud\alicloud\src\services\dev_bind\os/os.h ****  *
 501:..\..\..\..\cloud\alicloud\src\services\dev_bind\os/os.h ****  * @param None.
 502:..\..\..\..\cloud\alicloud\src\services\dev_bind\os/os.h ****  * @return.
 503:..\..\..\..\cloud\alicloud\src\services\dev_bind\os/os.h ****    @verbatim
 504:..\..\..\..\cloud\alicloud\src\services\dev_bind\os/os.h ****      = 0: open (no encrypt)
 505:..\..\..\..\cloud\alicloud\src\services\dev_bind\os/os.h ****      = 1: aes256cbc with default aes-key and aes-iv
 506:..\..\..\..\cloud\alicloud\src\services\dev_bind\os/os.h ****      = 2: aes128cbc with default aes-key and aes-iv
 507:..\..\..\..\cloud\alicloud\src\services\dev_bind\os/os.h ****      = 3: aes128cbc with aes-key per product and aes-iv = 0
 508:..\..\..\..\cloud\alicloud\src\services\dev_bind\os/os.h ****      = 4: aes128cbc with aes-key per device and aes-iv = 0
 509:..\..\..\..\cloud\alicloud\src\services\dev_bind\os/os.h ****      = 5: aes128cbc with aes-key per manufacture and aes-iv = 0
 510:..\..\..\..\cloud\alicloud\src\services\dev_bind\os/os.h ****      = others: invalid
 511:..\..\..\..\cloud\alicloud\src\services\dev_bind\os/os.h ****    @endverbatim
 512:..\..\..\..\cloud\alicloud\src\services\dev_bind\os/os.h ****  * @see None.
 513:..\..\..\..\cloud\alicloud\src\services\dev_bind\os/os.h ****  * @note None.
 514:..\..\..\..\cloud\alicloud\src\services\dev_bind\os/os.h ****  */
 515:..\..\..\..\cloud\alicloud\src\services\dev_bind\os/os.h **** static inline int os_get_encrypt_type(void)
 516:..\..\..\..\cloud\alicloud\src\services\dev_bind\os/os.h **** {
 517:..\..\..\..\cloud\alicloud\src\services\dev_bind\os/os.h ****     return platform_get_encrypt_type();
 518:..\..\..\..\cloud\alicloud\src\services\dev_bind\os/os.h **** }
 519:..\..\..\..\cloud\alicloud\src\services\dev_bind\os/os.h **** 
 520:..\..\..\..\cloud\alicloud\src\services\dev_bind\os/os.h **** /**
 521:..\..\..\..\cloud\alicloud\src\services\dev_bind\os/os.h ****  * @brief    Get Security level for wifi configuration with connection.
 522:..\..\..\..\cloud\alicloud\src\services\dev_bind\os/os.h ****  *           Used for AP solution of router and App.
 523:..\..\..\..\cloud\alicloud\src\services\dev_bind\os/os.h ****  *
 524:..\..\..\..\cloud\alicloud\src\services\dev_bind\os/os.h ****  * @param None.
 525:..\..\..\..\cloud\alicloud\src\services\dev_bind\os/os.h ****  * @return The security level:
 526:..\..\..\..\cloud\alicloud\src\services\dev_bind\os/os.h ****    @verbatim
 527:..\..\..\..\cloud\alicloud\src\services\dev_bind\os/os.h ****     3: aes128cfb with aes-key per product and aes-iv = random
 528:..\..\..\..\cloud\alicloud\src\services\dev_bind\os/os.h ****     4: aes128cfb with aes-key per device and aes-iv = random
 529:..\..\..\..\cloud\alicloud\src\services\dev_bind\os/os.h ****     5: aes128cfb with aes-key per manufacture and aes-iv = random
 530:..\..\..\..\cloud\alicloud\src\services\dev_bind\os/os.h ****     others: invalid
 531:..\..\..\..\cloud\alicloud\src\services\dev_bind\os/os.h ****    @endverbatim
 532:..\..\..\..\cloud\alicloud\src\services\dev_bind\os/os.h ****  * @see None.
 533:..\..\..\..\cloud\alicloud\src\services\dev_bind\os/os.h ****  */
 534:..\..\..\..\cloud\alicloud\src\services\dev_bind\os/os.h **** static inline int os_get_conn_encrypt_type(void)
 535:..\..\..\..\cloud\alicloud\src\services\dev_bind\os/os.h **** {
 536:..\..\..\..\cloud\alicloud\src\services\dev_bind\os/os.h ****     return platform_get_conn_encrypt_type();
 537:..\..\..\..\cloud\alicloud\src\services\dev_bind\os/os.h **** }
 538:..\..\..\..\cloud\alicloud\src\services\dev_bind\os/os.h **** 
 539:..\..\..\..\cloud\alicloud\src\services\dev_bind\os/os.h **** /**
 540:..\..\..\..\cloud\alicloud\src\services\dev_bind\os/os.h ****  * @brief   Get rssi and channel of current link
 541:..\..\..\..\cloud\alicloud\src\services\dev_bind\os/os.h ****  *
 542:..\..\..\..\cloud\alicloud\src\services\dev_bind\os/os.h ****  * @param[out] p_rssi: rssi value of current link
 543:..\..\..\..\cloud\alicloud\src\services\dev_bind\os/os.h ****  * @param[out] p_channel: channel of current link
 544:..\..\..\..\cloud\alicloud\src\services\dev_bind\os/os.h ****  * 
 545:..\..\..\..\cloud\alicloud\src\services\dev_bind\os/os.h ****  * @return
 546:..\..\..\..\cloud\alicloud\src\services\dev_bind\os/os.h ****    @verbatim
 547:..\..\..\..\cloud\alicloud\src\services\dev_bind\os/os.h ****      = 0: succeeded
 548:..\..\..\..\cloud\alicloud\src\services\dev_bind\os/os.h ****      = -1: failed
 549:..\..\..\..\cloud\alicloud\src\services\dev_bind\os/os.h ****    @endverbatim
 550:..\..\..\..\cloud\alicloud\src\services\dev_bind\os/os.h ****  * @see None.
 551:..\..\..\..\cloud\alicloud\src\services\dev_bind\os/os.h ****  * @note None.
 552:..\..\..\..\cloud\alicloud\src\services\dev_bind\os/os.h ****  * @note awss use this API to get rssi and channel of current link
 553:..\..\..\..\cloud\alicloud\src\services\dev_bind\os/os.h ****  */
 554:..\..\..\..\cloud\alicloud\src\services\dev_bind\os/os.h **** static inline int os_get_conn_link_stat(int *p_rssi, int *p_channel)
 555:..\..\..\..\cloud\alicloud\src\services\dev_bind\os/os.h **** {
 556:..\..\..\..\cloud\alicloud\src\services\dev_bind\os/os.h ****     return platform_get_conn_link_stat(p_rssi, p_channel);
 557:..\..\..\..\cloud\alicloud\src\services\dev_bind\os/os.h **** }
 558:..\..\..\..\cloud\alicloud\src\services\dev_bind\os/os.h **** 
 559:..\..\..\..\cloud\alicloud\src\services\dev_bind\os/os.h **** /**
 560:..\..\..\..\cloud\alicloud\src\services\dev_bind\os/os.h ****  * @brief Get WIFI MAC string with format like: XX:XX:XX:XX:XX:XX.
 561:..\..\..\..\cloud\alicloud\src\services\dev_bind\os/os.h ****  *
 562:..\..\..\..\cloud\alicloud\src\services\dev_bind\os/os.h ****  * @param[out] mac_str @n Buffer for using to store wifi MAC string.
 563:..\..\..\..\cloud\alicloud\src\services\dev_bind\os/os.h ****  * @return A pointer to the start address of mac_str.
 564:..\..\..\..\cloud\alicloud\src\services\dev_bind\os/os.h ****  * @see None.
 565:..\..\..\..\cloud\alicloud\src\services\dev_bind\os/os.h ****  * @note this func will format mac address string uppercase
 566:..\..\..\..\cloud\alicloud\src\services\dev_bind\os/os.h ****  */
 567:..\..\..\..\cloud\alicloud\src\services\dev_bind\os/os.h **** char *os_wifi_get_mac_str(char mac_str[OS_MAC_LEN]);
 568:..\..\..\..\cloud\alicloud\src\services\dev_bind\os/os.h **** 
 569:..\..\..\..\cloud\alicloud\src\services\dev_bind\os/os.h **** char *os_wifi_str2mac(char mac_str[OS_MAC_LEN], char mac[OS_ETH_ALEN]);
 570:..\..\..\..\cloud\alicloud\src\services\dev_bind\os/os.h **** 
 571:..\..\..\..\cloud\alicloud\src\services\dev_bind\os/os.h **** /**
 572:..\..\..\..\cloud\alicloud\src\services\dev_bind\os/os.h ****  * @brief Get WIFI MAC address(digital form)
 573:..\..\..\..\cloud\alicloud\src\services\dev_bind\os/os.h ****  *
 574:..\..\..\..\cloud\alicloud\src\services\dev_bind\os/os.h ****  * @param[out] mac @n digital buffer to hold mac address
 575:..\..\..\..\cloud\alicloud\src\services\dev_bind\os/os.h ****  * @return A pointer to the start address of mac.
 576:..\..\..\..\cloud\alicloud\src\services\dev_bind\os/os.h ****  * @see None.
 577:..\..\..\..\cloud\alicloud\src\services\dev_bind\os/os.h ****  * @note None.
 578:..\..\..\..\cloud\alicloud\src\services\dev_bind\os/os.h ****  */
 579:..\..\..\..\cloud\alicloud\src\services\dev_bind\os/os.h **** uint8_t *os_wifi_get_mac(uint8_t mac[OS_ETH_ALEN]);
 580:..\..\..\..\cloud\alicloud\src\services\dev_bind\os/os.h **** 
 581:..\..\..\..\cloud\alicloud\src\services\dev_bind\os/os.h **** /**
 582:..\..\..\..\cloud\alicloud\src\services\dev_bind\os/os.h ****  * @brief Get WIFI IP string with format like: xx:xx:xx:xx:xx:xx,
 583:..\..\..\..\cloud\alicloud\src\services\dev_bind\os/os.h ****    and return IP with binary form, in network byte order.
 584:..\..\..\..\cloud\alicloud\src\services\dev_bind\os/os.h ****  *
 585:..\..\..\..\cloud\alicloud\src\services\dev_bind\os/os.h ****  * @param[in] ifname @n Specify the interface name.The NULL value indicates the default network int
 586:..\..\..\..\cloud\alicloud\src\services\dev_bind\os/os.h ****  * @param[out] ip_str @n Buffer for using to store IP string, in numbers-and-dots notation form.
 587:..\..\..\..\cloud\alicloud\src\services\dev_bind\os/os.h ****  * @return IP address with binary form, in network byte order.
 588:..\..\..\..\cloud\alicloud\src\services\dev_bind\os/os.h ****  * @see None.
 589:..\..\..\..\cloud\alicloud\src\services\dev_bind\os/os.h ****  * @note None.
 590:..\..\..\..\cloud\alicloud\src\services\dev_bind\os/os.h ****  */
 591:..\..\..\..\cloud\alicloud\src\services\dev_bind\os/os.h **** static inline uint32_t os_wifi_get_ip(char ip_str[OS_IP_LEN], const char *ifname)
 592:..\..\..\..\cloud\alicloud\src\services\dev_bind\os/os.h **** {
 593:..\..\..\..\cloud\alicloud\src\services\dev_bind\os/os.h ****     return platform_wifi_get_ip(ip_str, ifname);
 594:..\..\..\..\cloud\alicloud\src\services\dev_bind\os/os.h **** }
 595:..\..\..\..\cloud\alicloud\src\services\dev_bind\os/os.h **** 
 596:..\..\..\..\cloud\alicloud\src\services\dev_bind\os/os.h **** /*************************************** awss interface ***************************************/
 597:..\..\..\..\cloud\alicloud\src\services\dev_bind\os/os.h **** 
 598:..\..\..\..\cloud\alicloud\src\services\dev_bind\os/os.h **** /** @defgroup group_os_awss alink wireless setup service(awss)
 599:..\..\..\..\cloud\alicloud\src\services\dev_bind\os/os.h ****  *  @{
 600:..\..\..\..\cloud\alicloud\src\services\dev_bind\os/os.h ****  */
 601:..\..\..\..\cloud\alicloud\src\services\dev_bind\os/os.h **** 
 602:..\..\..\..\cloud\alicloud\src\services\dev_bind\os/os.h **** /**
 603:..\..\..\..\cloud\alicloud\src\services\dev_bind\os/os.h ****  * @brief Get timeout interval, in millisecond, of per awss.
 604:..\..\..\..\cloud\alicloud\src\services\dev_bind\os/os.h ****  *
 605:..\..\..\..\cloud\alicloud\src\services\dev_bind\os/os.h ****  * @param None.
 606:..\..\..\..\cloud\alicloud\src\services\dev_bind\os/os.h ****  * @return The timeout interval.
 607:..\..\..\..\cloud\alicloud\src\services\dev_bind\os/os.h ****  * @see None.
 608:..\..\..\..\cloud\alicloud\src\services\dev_bind\os/os.h ****  * @note The recommended value is 60,000ms.
 609:..\..\..\..\cloud\alicloud\src\services\dev_bind\os/os.h ****  */
 610:..\..\..\..\cloud\alicloud\src\services\dev_bind\os/os.h **** static inline int os_awss_get_timeout_interval_ms(void)
 611:..\..\..\..\cloud\alicloud\src\services\dev_bind\os/os.h **** {
 612:..\..\..\..\cloud\alicloud\src\services\dev_bind\os/os.h ****     return platform_awss_get_timeout_interval_ms();
 613:..\..\..\..\cloud\alicloud\src\services\dev_bind\os/os.h **** }
 614:..\..\..\..\cloud\alicloud\src\services\dev_bind\os/os.h **** 
 615:..\..\..\..\cloud\alicloud\src\services\dev_bind\os/os.h **** /**
 616:..\..\..\..\cloud\alicloud\src\services\dev_bind\os/os.h ****  * @brief Get time length, in millisecond, of per channel scan.
 617:..\..\..\..\cloud\alicloud\src\services\dev_bind\os/os.h ****  *
 618:..\..\..\..\cloud\alicloud\src\services\dev_bind\os/os.h ****  * @param None.
 619:..\..\..\..\cloud\alicloud\src\services\dev_bind\os/os.h ****  * @return The timeout interval.
 620:..\..\..\..\cloud\alicloud\src\services\dev_bind\os/os.h ****  * @see None.
 621:..\..\..\..\cloud\alicloud\src\services\dev_bind\os/os.h ****  * @note None. The recommended value is between 200ms and 400ms.
 622:..\..\..\..\cloud\alicloud\src\services\dev_bind\os/os.h ****  */
 623:..\..\..\..\cloud\alicloud\src\services\dev_bind\os/os.h **** static inline int os_awss_get_channelscan_interval_ms(void)
 624:..\..\..\..\cloud\alicloud\src\services\dev_bind\os/os.h **** {
 625:..\..\..\..\cloud\alicloud\src\services\dev_bind\os/os.h ****     return platform_awss_get_channelscan_interval_ms();
 626:..\..\..\..\cloud\alicloud\src\services\dev_bind\os/os.h **** }
 627:..\..\..\..\cloud\alicloud\src\services\dev_bind\os/os.h **** 
 628:..\..\..\..\cloud\alicloud\src\services\dev_bind\os/os.h **** typedef platform_awss_recv_80211_frame_cb_t os_awss_recv_80211_frame_cb_t;
 629:..\..\..\..\cloud\alicloud\src\services\dev_bind\os/os.h **** /**
 630:..\..\..\..\cloud\alicloud\src\services\dev_bind\os/os.h ****  * @brief Set wifi running at monitor mode,
 631:..\..\..\..\cloud\alicloud\src\services\dev_bind\os/os.h ****    and register a callback function which will be called when wifi receive a frame.
 632:..\..\..\..\cloud\alicloud\src\services\dev_bind\os/os.h ****  *
 633:..\..\..\..\cloud\alicloud\src\services\dev_bind\os/os.h ****  * @param[in] cb @n A function pointer, called back when wifi receive a frame.
 634:..\..\..\..\cloud\alicloud\src\services\dev_bind\os/os.h ****  * @return None.
 635:..\..\..\..\cloud\alicloud\src\services\dev_bind\os/os.h ****  * @see None.
 636:..\..\..\..\cloud\alicloud\src\services\dev_bind\os/os.h ****  * @note None.
 637:..\..\..\..\cloud\alicloud\src\services\dev_bind\os/os.h ****  */
 638:..\..\..\..\cloud\alicloud\src\services\dev_bind\os/os.h **** static inline void os_awss_open_monitor(os_awss_recv_80211_frame_cb_t cb)
 639:..\..\..\..\cloud\alicloud\src\services\dev_bind\os/os.h **** {
 640:..\..\..\..\cloud\alicloud\src\services\dev_bind\os/os.h ****     platform_awss_open_monitor(cb);
 641:..\..\..\..\cloud\alicloud\src\services\dev_bind\os/os.h **** }
 642:..\..\..\..\cloud\alicloud\src\services\dev_bind\os/os.h **** 
 643:..\..\..\..\cloud\alicloud\src\services\dev_bind\os/os.h **** /**
 644:..\..\..\..\cloud\alicloud\src\services\dev_bind\os/os.h ****  * @brief Close wifi monitor mode, and set running at station mode.
 645:..\..\..\..\cloud\alicloud\src\services\dev_bind\os/os.h ****  *
 646:..\..\..\..\cloud\alicloud\src\services\dev_bind\os/os.h ****  * @param None.
 647:..\..\..\..\cloud\alicloud\src\services\dev_bind\os/os.h ****  * @return None.
 648:..\..\..\..\cloud\alicloud\src\services\dev_bind\os/os.h ****  * @see None.
 649:..\..\..\..\cloud\alicloud\src\services\dev_bind\os/os.h ****  * @note None.
 650:..\..\..\..\cloud\alicloud\src\services\dev_bind\os/os.h ****  */
 651:..\..\..\..\cloud\alicloud\src\services\dev_bind\os/os.h **** static inline void os_awss_close_monitor(void)
 652:..\..\..\..\cloud\alicloud\src\services\dev_bind\os/os.h **** {
 653:..\..\..\..\cloud\alicloud\src\services\dev_bind\os/os.h ****     platform_awss_close_monitor();
 654:..\..\..\..\cloud\alicloud\src\services\dev_bind\os/os.h **** }
 655:..\..\..\..\cloud\alicloud\src\services\dev_bind\os/os.h **** 
 656:..\..\..\..\cloud\alicloud\src\services\dev_bind\os/os.h **** /**
 657:..\..\..\..\cloud\alicloud\src\services\dev_bind\os/os.h ****   * @brief   SoftAP
 658:..\..\..\..\cloud\alicloud\src\services\dev_bind\os/os.h ****   *
 659:..\..\..\..\cloud\alicloud\src\services\dev_bind\os/os.h ****   * @param[in] ssid @n ssid
 660:..\..\..\..\cloud\alicloud\src\services\dev_bind\os/os.h ****   * @param[in] passwd @n passwd
 661:..\..\..\..\cloud\alicloud\src\services\dev_bind\os/os.h ****   * @param[in] beacon_interval @n Beacon
 662:..\..\..\..\cloud\alicloud\src\services\dev_bind\os/os.h ****   * @param[in] hide @n hide:0, , 
 663:..\..\..\..\cloud\alicloud\src\services\dev_bind\os/os.h ****   * @return
 664:..\..\..\..\cloud\alicloud\src\services\dev_bind\os/os.h ****      @verbatim
 665:..\..\..\..\cloud\alicloud\src\services\dev_bind\os/os.h ****         = 0: success
 666:..\..\..\..\cloud\alicloud\src\services\dev_bind\os/os.h ****         = -1: unsupported
 667:..\..\..\..\cloud\alicloud\src\services\dev_bind\os/os.h ****         = -2: failure with system error
 668:..\..\..\..\cloud\alicloud\src\services\dev_bind\os/os.h ****         = -3: failure with no memory
 669:..\..\..\..\cloud\alicloud\src\services\dev_bind\os/os.h ****         = -4: failure with invalid parameters
 670:..\..\..\..\cloud\alicloud\src\services\dev_bind\os/os.h ****      @endverbatim
 671:..\..\..\..\cloud\alicloud\src\services\dev_bind\os/os.h ****   * @Note:
 672:..\..\..\..\cloud\alicloud\src\services\dev_bind\os/os.h ****   *       1ssidpasswd'\0'passwd
 673:..\..\..\..\cloud\alicloud\src\services\dev_bind\os/os.h ****   *          0Open
 674:..\..\..\..\cloud\alicloud\src\services\dev_bind\os/os.h ****   *       2beacon_intervalBeacon
 675:..\..\..\..\cloud\alicloud\src\services\dev_bind\os/os.h ****   *          100ms
 676:..\..\..\..\cloud\alicloud\src\services\dev_bind\os/os.h ****   *       3hidehide=0
 677:..\..\..\..\cloud\alicloud\src\services\dev_bind\os/os.h ****   *         
 678:..\..\..\..\cloud\alicloud\src\services\dev_bind\os/os.h ****   */
 679:..\..\..\..\cloud\alicloud\src\services\dev_bind\os/os.h **** 
 680:..\..\..\..\cloud\alicloud\src\services\dev_bind\os/os.h **** static inline int os_awss_open_ap(const char *ssid, const char *passwd, int beacon_interval, int hi
 681:..\..\..\..\cloud\alicloud\src\services\dev_bind\os/os.h **** {
 682:..\..\..\..\cloud\alicloud\src\services\dev_bind\os/os.h ****     return platform_awss_open_ap(ssid, passwd, beacon_interval, hide);
 683:..\..\..\..\cloud\alicloud\src\services\dev_bind\os/os.h **** }
 684:..\..\..\..\cloud\alicloud\src\services\dev_bind\os/os.h **** 
 685:..\..\..\..\cloud\alicloud\src\services\dev_bind\os/os.h **** /**
 686:..\..\..\..\cloud\alicloud\src\services\dev_bind\os/os.h ****   * @brief   SoftAPStation
 687:..\..\..\..\cloud\alicloud\src\services\dev_bind\os/os.h ****   *
 688:..\..\..\..\cloud\alicloud\src\services\dev_bind\os/os.h ****   * @return
 689:..\..\..\..\cloud\alicloud\src\services\dev_bind\os/os.h ****      @verbatim
 690:..\..\..\..\cloud\alicloud\src\services\dev_bind\os/os.h ****         = 0: success
 691:..\..\..\..\cloud\alicloud\src\services\dev_bind\os/os.h ****         = -1: unsupported
 692:..\..\..\..\cloud\alicloud\src\services\dev_bind\os/os.h ****         = -2: failure
 693:..\..\..\..\cloud\alicloud\src\services\dev_bind\os/os.h ****      @endverbatim
 694:..\..\..\..\cloud\alicloud\src\services\dev_bind\os/os.h ****   * @Note:
 695:..\..\..\..\cloud\alicloud\src\services\dev_bind\os/os.h ****   *       1
 696:..\..\..\..\cloud\alicloud\src\services\dev_bind\os/os.h ****   *          
 697:..\..\..\..\cloud\alicloud\src\services\dev_bind\os/os.h ****   *       2StationStation+SoftAP
 698:..\..\..\..\cloud\alicloud\src\services\dev_bind\os/os.h ****   *          SoftAPStation
 699:..\..\..\..\cloud\alicloud\src\services\dev_bind\os/os.h ****   *       3Wi-Fi
 700:..\..\..\..\cloud\alicloud\src\services\dev_bind\os/os.h ****   *          
 701:..\..\..\..\cloud\alicloud\src\services\dev_bind\os/os.h ****   */
 702:..\..\..\..\cloud\alicloud\src\services\dev_bind\os/os.h **** 
 703:..\..\..\..\cloud\alicloud\src\services\dev_bind\os/os.h **** static inline int os_awss_close_ap()
 704:..\..\..\..\cloud\alicloud\src\services\dev_bind\os/os.h **** {
 705:..\..\..\..\cloud\alicloud\src\services\dev_bind\os/os.h ****     return platform_awss_close_ap();
 706:..\..\..\..\cloud\alicloud\src\services\dev_bind\os/os.h **** }
 707:..\..\..\..\cloud\alicloud\src\services\dev_bind\os/os.h **** 
 708:..\..\..\..\cloud\alicloud\src\services\dev_bind\os/os.h **** /**
 709:..\..\..\..\cloud\alicloud\src\services\dev_bind\os/os.h ****  * @brief Switch to specific wifi channel.
 710:..\..\..\..\cloud\alicloud\src\services\dev_bind\os/os.h ****  *
 711:..\..\..\..\cloud\alicloud\src\services\dev_bind\os/os.h ****  * @param[in] primary_channel @n Primary channel.
 712:..\..\..\..\cloud\alicloud\src\services\dev_bind\os/os.h ****  * @param[in] secondary_channel @n Auxiliary channel.
 713:..\..\..\..\cloud\alicloud\src\services\dev_bind\os/os.h ****  * @param[in] bssid @n A pointer to wifi BSSID.
 714:..\..\..\..\cloud\alicloud\src\services\dev_bind\os/os.h ****  * @return None.
 715:..\..\..\..\cloud\alicloud\src\services\dev_bind\os/os.h ****  * @see None.
 716:..\..\..\..\cloud\alicloud\src\services\dev_bind\os/os.h ****  * @note None.
 717:..\..\..\..\cloud\alicloud\src\services\dev_bind\os/os.h ****  */
 718:..\..\..\..\cloud\alicloud\src\services\dev_bind\os/os.h **** static inline void os_awss_switch_channel(char primary_channel, char secondary_channel, uint8_t bss
 719:..\..\..\..\cloud\alicloud\src\services\dev_bind\os/os.h **** {
 720:..\..\..\..\cloud\alicloud\src\services\dev_bind\os/os.h ****     platform_awss_switch_channel(primary_channel, secondary_channel, bssid);
 721:..\..\..\..\cloud\alicloud\src\services\dev_bind\os/os.h **** }
 722:..\..\..\..\cloud\alicloud\src\services\dev_bind\os/os.h **** 
 723:..\..\..\..\cloud\alicloud\src\services\dev_bind\os/os.h **** /**
 724:..\..\..\..\cloud\alicloud\src\services\dev_bind\os/os.h ****  * @brief Wifi AP connect function
 725:..\..\..\..\cloud\alicloud\src\services\dev_bind\os/os.h ****  *
 726:..\..\..\..\cloud\alicloud\src\services\dev_bind\os/os.h ****  * @param[in] connection_timeout_ms @n AP connection timeout in ms or PLATFORM_WAIT_INFINITE
 727:..\..\..\..\cloud\alicloud\src\services\dev_bind\os/os.h ****  * @param[in] ssid @n AP ssid
 728:..\..\..\..\cloud\alicloud\src\services\dev_bind\os/os.h ****  * @param[in] passwd @n AP passwd
 729:..\..\..\..\cloud\alicloud\src\services\dev_bind\os/os.h ****  * @param[in] auth @n optional(AWSS_AUTH_TYPE_INVALID), AP auth info
 730:..\..\..\..\cloud\alicloud\src\services\dev_bind\os/os.h ****  * @param[in] encry @n optional(AWSS_ENC_TYPE_INVALID), AP encry info
 731:..\..\..\..\cloud\alicloud\src\services\dev_bind\os/os.h ****  * @param[in] bssid @n optional(NULL or zero mac address), AP bssid info
 732:..\..\..\..\cloud\alicloud\src\services\dev_bind\os/os.h ****  * @param[in] channel @n optional, AP channel info
 733:..\..\..\..\cloud\alicloud\src\services\dev_bind\os/os.h ****  * @return
 734:..\..\..\..\cloud\alicloud\src\services\dev_bind\os/os.h ****    @verbatim
 735:..\..\..\..\cloud\alicloud\src\services\dev_bind\os/os.h ****      = 0: connect AP & DHCP success
 736:..\..\..\..\cloud\alicloud\src\services\dev_bind\os/os.h ****      = -1: connect AP or DHCP fail/timeout
 737:..\..\..\..\cloud\alicloud\src\services\dev_bind\os/os.h ****    @endverbatim
 738:..\..\..\..\cloud\alicloud\src\services\dev_bind\os/os.h ****  * @see None.
 739:..\..\..\..\cloud\alicloud\src\services\dev_bind\os/os.h ****  * @note None.
 740:..\..\..\..\cloud\alicloud\src\services\dev_bind\os/os.h ****  */
 741:..\..\..\..\cloud\alicloud\src\services\dev_bind\os/os.h **** static inline int os_awss_connect_ap(
 742:..\..\..\..\cloud\alicloud\src\services\dev_bind\os/os.h ****             _IN_ uint32_t connection_timeout_ms,
 743:..\..\..\..\cloud\alicloud\src\services\dev_bind\os/os.h ****             _IN_ char ssid[OS_MAX_SSID_LEN],
 744:..\..\..\..\cloud\alicloud\src\services\dev_bind\os/os.h ****             _IN_ char passwd[OS_MAX_PASSWD_LEN],
 745:..\..\..\..\cloud\alicloud\src\services\dev_bind\os/os.h ****             _IN_OPT_ enum AWSS_AUTH_TYPE auth,
 746:..\..\..\..\cloud\alicloud\src\services\dev_bind\os/os.h ****             _IN_OPT_ enum AWSS_ENC_TYPE encry,
 747:..\..\..\..\cloud\alicloud\src\services\dev_bind\os/os.h ****             _IN_OPT_ uint8_t bssid[ETH_ALEN],
 748:..\..\..\..\cloud\alicloud\src\services\dev_bind\os/os.h ****             _IN_OPT_ uint8_t channel)
 749:..\..\..\..\cloud\alicloud\src\services\dev_bind\os/os.h **** {
 750:..\..\..\..\cloud\alicloud\src\services\dev_bind\os/os.h ****     return platform_awss_connect_ap(connection_timeout_ms, ssid, passwd,
 556              		.loc 1 750 5
 557              		.loc 1 750 12 is_stmt 0
 558 0008 B7040000 		lui	s1,%hi(.LANCHOR9)
 559 000c B7090000 		lui	s3,%hi(.LANCHOR10)
 560 0010 B7070000 		lui	a5,%hi(.LANCHOR8)
 561 0014 1D65     		li	a0,28672
 562 0016 0148     		li	a6,0
 563 0018 1307F00F 		li	a4,255
 564 001c 9306F00F 		li	a3,255
 565 0020 13890700 		addi	s2,a5,%lo(.LANCHOR8)
 566 0024 13860400 		addi	a2,s1,%lo(.LANCHOR9)
 567 0028 93870700 		addi	a5,a5,%lo(.LANCHOR8)
 568 002c 93850900 		addi	a1,s3,%lo(.LANCHOR10)
 569 0030 13050553 		addi	a0,a0,1328
 570              	.LBE42:
 571              	.LBE41:
 279:C:/Users/stapi/OneDrive/Desktop/GD32VW553/V1_MQTT_OK/GD32VW55X_Wifi_BLE_SDK/GD32VW55x_RELEASE_V1.0.2/MSDK/cloud/alicloud/src/services/dev_bind\awss_report.c ****     switchap_timer = NULL;
 572              		.loc 2 279 5
 573 0034 37040000 		lui	s0,%hi(.LANCHOR11)
 574              	.LBB44:
 575              	.LBB43:
 576              		.loc 1 750 12
 577 0038 97000000 		call	HAL_Awss_Connect_Ap
 577      E7800000 
 578              	.LVL42:
 579              	.LBE43:
 580              	.LBE44:
 279:C:/Users/stapi/OneDrive/Desktop/GD32VW553/V1_MQTT_OK/GD32VW55X_Wifi_BLE_SDK/GD32VW55x_RELEASE_V1.0.2/MSDK/cloud/alicloud/src/services/dev_bind\awss_report.c ****     switchap_timer = NULL;
 581              		.loc 2 279 5 is_stmt 1
 582 0040 13040400 		addi	s0,s0,%lo(.LANCHOR11)
 583 0044 0840     		lw	a0,0(s0)
 584 0046 97000000 		call	awss_stop_timer
 584      E7800000 
 585              	.LVL43:
 280:C:/Users/stapi/OneDrive/Desktop/GD32VW553/V1_MQTT_OK/GD32VW55X_Wifi_BLE_SDK/GD32VW55x_RELEASE_V1.0.2/MSDK/cloud/alicloud/src/services/dev_bind\awss_report.c **** 
 586              		.loc 2 280 5
 282:C:/Users/stapi/OneDrive/Desktop/GD32VW553/V1_MQTT_OK/GD32VW55X_Wifi_BLE_SDK/GD32VW55x_RELEASE_V1.0.2/MSDK/cloud/alicloud/src/services/dev_bind\awss_report.c ****     memset(switchap_bssid, 0, sizeof(switchap_bssid));
 587              		.loc 2 282 5 is_stmt 0
 588 004e 13061002 		li	a2,33
 589 0052 8145     		li	a1,0
 590 0054 13850900 		addi	a0,s3,%lo(.LANCHOR10)
 280:C:/Users/stapi/OneDrive/Desktop/GD32VW553/V1_MQTT_OK/GD32VW55X_Wifi_BLE_SDK/GD32VW55x_RELEASE_V1.0.2/MSDK/cloud/alicloud/src/services/dev_bind\awss_report.c **** 
 591              		.loc 2 280 20
 592 0058 23200400 		sw	zero,0(s0)
 282:C:/Users/stapi/OneDrive/Desktop/GD32VW553/V1_MQTT_OK/GD32VW55X_Wifi_BLE_SDK/GD32VW55x_RELEASE_V1.0.2/MSDK/cloud/alicloud/src/services/dev_bind\awss_report.c ****     memset(switchap_bssid, 0, sizeof(switchap_bssid));
 593              		.loc 2 282 5 is_stmt 1
 594 005c 97000000 		call	memset
 594      E7800000 
 595              	.LVL44:
 283:C:/Users/stapi/OneDrive/Desktop/GD32VW553/V1_MQTT_OK/GD32VW55X_Wifi_BLE_SDK/GD32VW55x_RELEASE_V1.0.2/MSDK/cloud/alicloud/src/services/dev_bind\awss_report.c ****     memset(switchap_passwd, 0, sizeof(switchap_passwd));
 596              		.loc 2 283 5
 284:C:/Users/stapi/OneDrive/Desktop/GD32VW553/V1_MQTT_OK/GD32VW55X_Wifi_BLE_SDK/GD32VW55x_RELEASE_V1.0.2/MSDK/cloud/alicloud/src/services/dev_bind\awss_report.c **** 
 597              		.loc 2 284 5 is_stmt 0
 598 0064 13061004 		li	a2,65
 599 0068 8145     		li	a1,0
 600 006a 13850400 		addi	a0,s1,%lo(.LANCHOR9)
 283:C:/Users/stapi/OneDrive/Desktop/GD32VW553/V1_MQTT_OK/GD32VW55X_Wifi_BLE_SDK/GD32VW55x_RELEASE_V1.0.2/MSDK/cloud/alicloud/src/services/dev_bind\awss_report.c ****     memset(switchap_passwd, 0, sizeof(switchap_passwd));
 601              		.loc 2 283 5
 602 006e 23200900 		sw	zero,0(s2)
 603 0072 23120900 		sh	zero,4(s2)
 284:C:/Users/stapi/OneDrive/Desktop/GD32VW553/V1_MQTT_OK/GD32VW55X_Wifi_BLE_SDK/GD32VW55x_RELEASE_V1.0.2/MSDK/cloud/alicloud/src/services/dev_bind\awss_report.c **** 
 604              		.loc 2 284 5 is_stmt 1
 605 0076 97000000 		call	memset
 605      E7800000 
 606              	.LVL45:
 286:C:/Users/stapi/OneDrive/Desktop/GD32VW553/V1_MQTT_OK/GD32VW55X_Wifi_BLE_SDK/GD32VW55x_RELEASE_V1.0.2/MSDK/cloud/alicloud/src/services/dev_bind\awss_report.c ****     HAL_Timer_Start(reboot_timer, 1000);;
 607              		.loc 2 286 5
 286:C:/Users/stapi/OneDrive/Desktop/GD32VW553/V1_MQTT_OK/GD32VW55X_Wifi_BLE_SDK/GD32VW55x_RELEASE_V1.0.2/MSDK/cloud/alicloud/src/services/dev_bind\awss_report.c ****     HAL_Timer_Start(reboot_timer, 1000);;
 608              		.loc 2 286 20 is_stmt 0
 609 007e B7050000 		lui	a1,%hi(awss_reboot_system)
 610 0082 37050000 		lui	a0,%hi(.LC18)
 611 0086 0146     		li	a2,0
 612 0088 93850500 		addi	a1,a1,%lo(awss_reboot_system)
 613 008c 13050500 		addi	a0,a0,%lo(.LC18)
 614 0090 97000000 		call	HAL_Timer_Create
 614      E7800000 
 615              	.LVL46:
 286:C:/Users/stapi/OneDrive/Desktop/GD32VW553/V1_MQTT_OK/GD32VW55X_Wifi_BLE_SDK/GD32VW55x_RELEASE_V1.0.2/MSDK/cloud/alicloud/src/services/dev_bind\awss_report.c ****     HAL_Timer_Start(reboot_timer, 1000);;
 616              		.loc 2 286 18
 617 0098 B7070000 		lui	a5,%hi(.LANCHOR7)
 287:C:/Users/stapi/OneDrive/Desktop/GD32VW553/V1_MQTT_OK/GD32VW55X_Wifi_BLE_SDK/GD32VW55x_RELEASE_V1.0.2/MSDK/cloud/alicloud/src/services/dev_bind\awss_report.c **** 
 618              		.loc 2 287 5
 619 009c 9305803E 		li	a1,1000
 286:C:/Users/stapi/OneDrive/Desktop/GD32VW553/V1_MQTT_OK/GD32VW55X_Wifi_BLE_SDK/GD32VW55x_RELEASE_V1.0.2/MSDK/cloud/alicloud/src/services/dev_bind\awss_report.c ****     HAL_Timer_Start(reboot_timer, 1000);;
 620              		.loc 2 286 18
 621 00a0 23A0A700 		sw	a0,%lo(.LANCHOR7)(a5)
 287:C:/Users/stapi/OneDrive/Desktop/GD32VW553/V1_MQTT_OK/GD32VW55X_Wifi_BLE_SDK/GD32VW55x_RELEASE_V1.0.2/MSDK/cloud/alicloud/src/services/dev_bind\awss_report.c **** 
 622              		.loc 2 287 5 is_stmt 1
 623 00a4 97000000 		call	HAL_Timer_Start
 623      E7800000 
 624              	.LVL47:
 287:C:/Users/stapi/OneDrive/Desktop/GD32VW553/V1_MQTT_OK/GD32VW55X_Wifi_BLE_SDK/GD32VW55x_RELEASE_V1.0.2/MSDK/cloud/alicloud/src/services/dev_bind\awss_report.c **** 
 625              		.loc 2 287 41
 289:C:/Users/stapi/OneDrive/Desktop/GD32VW553/V1_MQTT_OK/GD32VW55X_Wifi_BLE_SDK/GD32VW55x_RELEASE_V1.0.2/MSDK/cloud/alicloud/src/services/dev_bind\awss_report.c **** }
 626              		.loc 2 289 5
 290:C:/Users/stapi/OneDrive/Desktop/GD32VW553/V1_MQTT_OK/GD32VW55X_Wifi_BLE_SDK/GD32VW55x_RELEASE_V1.0.2/MSDK/cloud/alicloud/src/services/dev_bind\awss_report.c **** 
 627              		.loc 2 290 1 is_stmt 0
 628 00ac 0145     		li	a0,0
 629 00ae 17030000 		tail	__riscv_restore_4
 629      67000300 
 630              		.cfi_restore 19
 631              		.cfi_restore 18
 632              		.cfi_restore 9
 633              		.cfi_restore 8
 634              		.cfi_restore 1
 635              		.cfi_def_cfa_offset 0
 636              		.cfi_endproc
 637              	.LFE69:
 639              		.section	.text.awss_token_remain_time,"ax",@progbits
 640              		.align	1
 641              		.globl	awss_token_remain_time
 643              	awss_token_remain_time:
 644              	.LFB64:
  45:C:/Users/stapi/OneDrive/Desktop/GD32VW553/V1_MQTT_OK/GD32VW55X_Wifi_BLE_SDK/GD32VW55x_RELEASE_V1.0.2/MSDK/cloud/alicloud/src/services/dev_bind\awss_report.c ****     int remain = 0;
 645              		.loc 2 45 1 is_stmt 1
 646              		.cfi_startproc
 647 0000 17030000 		call	t0,__riscv_save_0
 647      E7020300 
 648              		.cfi_offset 1, -4
 649              		.cfi_def_cfa_offset 16
  46:C:/Users/stapi/OneDrive/Desktop/GD32VW553/V1_MQTT_OK/GD32VW55X_Wifi_BLE_SDK/GD32VW55x_RELEASE_V1.0.2/MSDK/cloud/alicloud/src/services/dev_bind\awss_report.c ****     uint32_t cur = os_get_time_ms();
 650              		.loc 2 46 5
 651              	.LVL48:
  47:C:/Users/stapi/OneDrive/Desktop/GD32VW553/V1_MQTT_OK/GD32VW55X_Wifi_BLE_SDK/GD32VW55x_RELEASE_V1.0.2/MSDK/cloud/alicloud/src/services/dev_bind\awss_report.c ****     uint32_t diff = (uint32_t)(cur - awss_report_token_time);
 652              		.loc 2 47 5
  47:C:/Users/stapi/OneDrive/Desktop/GD32VW553/V1_MQTT_OK/GD32VW55X_Wifi_BLE_SDK/GD32VW55x_RELEASE_V1.0.2/MSDK/cloud/alicloud/src/services/dev_bind\awss_report.c ****     uint32_t diff = (uint32_t)(cur - awss_report_token_time);
 653              		.loc 2 47 20 is_stmt 0
 654 0008 97000000 		call	os_get_time_ms
 654      E7800000 
 655              	.LVL49:
  50:C:/Users/stapi/OneDrive/Desktop/GD32VW553/V1_MQTT_OK/GD32VW55X_Wifi_BLE_SDK/GD32VW55x_RELEASE_V1.0.2/MSDK/cloud/alicloud/src/services/dev_bind\awss_report.c ****         return remain;
 656              		.loc 2 50 31
 657 0010 B7060000 		lui	a3,%hi(.LANCHOR1)
 658 0014 83C60600 		lbu	a3,%lo(.LANCHOR1)(a3)
  48:C:/Users/stapi/OneDrive/Desktop/GD32VW553/V1_MQTT_OK/GD32VW55X_Wifi_BLE_SDK/GD32VW55x_RELEASE_V1.0.2/MSDK/cloud/alicloud/src/services/dev_bind\awss_report.c **** 
 659              		.loc 2 48 21
 660 0018 37070000 		lui	a4,%hi(.LANCHOR4)
  47:C:/Users/stapi/OneDrive/Desktop/GD32VW553/V1_MQTT_OK/GD32VW55X_Wifi_BLE_SDK/GD32VW55x_RELEASE_V1.0.2/MSDK/cloud/alicloud/src/services/dev_bind\awss_report.c ****     uint32_t diff = (uint32_t)(cur - awss_report_token_time);
 661              		.loc 2 47 20
 662 001c AA87     		mv	a5,a0
 663              	.LVL50:
  48:C:/Users/stapi/OneDrive/Desktop/GD32VW553/V1_MQTT_OK/GD32VW55X_Wifi_BLE_SDK/GD32VW55x_RELEASE_V1.0.2/MSDK/cloud/alicloud/src/services/dev_bind\awss_report.c **** 
 664              		.loc 2 48 5 is_stmt 1
  48:C:/Users/stapi/OneDrive/Desktop/GD32VW553/V1_MQTT_OK/GD32VW55X_Wifi_BLE_SDK/GD32VW55x_RELEASE_V1.0.2/MSDK/cloud/alicloud/src/services/dev_bind\awss_report.c **** 
 665              		.loc 2 48 21 is_stmt 0
 666 001e 03270700 		lw	a4,%lo(.LANCHOR4)(a4)
 667              	.LVL51:
  50:C:/Users/stapi/OneDrive/Desktop/GD32VW553/V1_MQTT_OK/GD32VW55X_Wifi_BLE_SDK/GD32VW55x_RELEASE_V1.0.2/MSDK/cloud/alicloud/src/services/dev_bind\awss_report.c ****         return remain;
 668              		.loc 2 50 5 is_stmt 1
  51:C:/Users/stapi/OneDrive/Desktop/GD32VW553/V1_MQTT_OK/GD32VW55X_Wifi_BLE_SDK/GD32VW55x_RELEASE_V1.0.2/MSDK/cloud/alicloud/src/services/dev_bind\awss_report.c ****     }
 669              		.loc 2 51 16 is_stmt 0
 670 0022 0145     		li	a0,0
 671              	.LVL52:
  50:C:/Users/stapi/OneDrive/Desktop/GD32VW553/V1_MQTT_OK/GD32VW55X_Wifi_BLE_SDK/GD32VW55x_RELEASE_V1.0.2/MSDK/cloud/alicloud/src/services/dev_bind\awss_report.c ****         return remain;
 672              		.loc 2 50 31
 673 0024 93964660 		sext.b	a3,a3
  50:C:/Users/stapi/OneDrive/Desktop/GD32VW553/V1_MQTT_OK/GD32VW55X_Wifi_BLE_SDK/GD32VW55x_RELEASE_V1.0.2/MSDK/cloud/alicloud/src/services/dev_bind\awss_report.c ****         return remain;
 674              		.loc 2 50 8
 675 0028 89CE     		beq	a3,zero,.L17
  54:C:/Users/stapi/OneDrive/Desktop/GD32VW553/V1_MQTT_OK/GD32VW55X_Wifi_BLE_SDK/GD32VW55x_RELEASE_V1.0.2/MSDK/cloud/alicloud/src/services/dev_bind\awss_report.c ****         remain = AWSS_TOKEN_TIMEOUT_MS - diff;
 676              		.loc 2 54 5 is_stmt 1
  54:C:/Users/stapi/OneDrive/Desktop/GD32VW553/V1_MQTT_OK/GD32VW55X_Wifi_BLE_SDK/GD32VW55x_RELEASE_V1.0.2/MSDK/cloud/alicloud/src/services/dev_bind\awss_report.c ****         remain = AWSS_TOKEN_TIMEOUT_MS - diff;
 677              		.loc 2 54 8 is_stmt 0
 678 002a F566     		li	a3,118784
  48:C:/Users/stapi/OneDrive/Desktop/GD32VW553/V1_MQTT_OK/GD32VW55X_Wifi_BLE_SDK/GD32VW55x_RELEASE_V1.0.2/MSDK/cloud/alicloud/src/services/dev_bind\awss_report.c **** 
 679              		.loc 2 48 14
 680 002c 3386E740 		sub	a2,a5,a4
 681              	.LVL53:
  54:C:/Users/stapi/OneDrive/Desktop/GD32VW553/V1_MQTT_OK/GD32VW55X_Wifi_BLE_SDK/GD32VW55x_RELEASE_V1.0.2/MSDK/cloud/alicloud/src/services/dev_bind\awss_report.c ****         remain = AWSS_TOKEN_TIMEOUT_MS - diff;
 682              		.loc 2 54 8
 683 0030 9385F64B 		addi	a1,a3,1215
 684 0034 63E7C500 		bgtu	a2,a1,.L17
  55:C:/Users/stapi/OneDrive/Desktop/GD32VW553/V1_MQTT_OK/GD32VW55X_Wifi_BLE_SDK/GD32VW55x_RELEASE_V1.0.2/MSDK/cloud/alicloud/src/services/dev_bind\awss_report.c ****     }
 685              		.loc 2 55 9 is_stmt 1
  55:C:/Users/stapi/OneDrive/Desktop/GD32VW553/V1_MQTT_OK/GD32VW55X_Wifi_BLE_SDK/GD32VW55x_RELEASE_V1.0.2/MSDK/cloud/alicloud/src/services/dev_bind\awss_report.c ****     }
 686              		.loc 2 55 40 is_stmt 0
 687 0038 9386064C 		addi	a3,a3,1216
 688 003c 3697     		add	a4,a4,a3
 689 003e 3305F740 		sub	a0,a4,a5
 690              	.LVL54:
 691              	.L17:
  59:C:/Users/stapi/OneDrive/Desktop/GD32VW553/V1_MQTT_OK/GD32VW55X_Wifi_BLE_SDK/GD32VW55x_RELEASE_V1.0.2/MSDK/cloud/alicloud/src/services/dev_bind\awss_report.c **** 
 692              		.loc 2 59 1
 693 0042 17030000 		tail	__riscv_restore_0
 693      67000300 
 694              		.cfi_restore 1
 695              		.cfi_def_cfa_offset 0
 696              		.cfi_endproc
 697              	.LFE64:
 699              		.section	.rodata.awss_update_token.str1.4,"aMS",@progbits,1
 700              		.align	2
 701              	.LC19:
 702 0000 75706461 		.string	"update token"
 702      74652074 
 702      6F6B656E 
 702      00
 703              		.section	.text.awss_update_token,"ax",@progbits
 704              		.align	1
 705              		.globl	awss_update_token
 707              	awss_update_token:
 708              	.LFB65:
  62:C:/Users/stapi/OneDrive/Desktop/GD32VW553/V1_MQTT_OK/GD32VW55X_Wifi_BLE_SDK/GD32VW55x_RELEASE_V1.0.2/MSDK/cloud/alicloud/src/services/dev_bind\awss_report.c ****     awss_report_token_time = 0;
 709              		.loc 2 62 1 is_stmt 1
 710              		.cfi_startproc
 711 0000 17030000 		call	t0,__riscv_save_1
 711      E7020300 
 712              		.cfi_offset 8, -8
 713              		.cfi_offset 1, -4
 714              		.cfi_def_cfa_offset 16
  63:C:/Users/stapi/OneDrive/Desktop/GD32VW553/V1_MQTT_OK/GD32VW55X_Wifi_BLE_SDK/GD32VW55x_RELEASE_V1.0.2/MSDK/cloud/alicloud/src/services/dev_bind\awss_report.c ****     awss_report_token_cnt = 0;
 715              		.loc 2 63 5
  63:C:/Users/stapi/OneDrive/Desktop/GD32VW553/V1_MQTT_OK/GD32VW55X_Wifi_BLE_SDK/GD32VW55x_RELEASE_V1.0.2/MSDK/cloud/alicloud/src/services/dev_bind\awss_report.c ****     awss_report_token_cnt = 0;
 716              		.loc 2 63 28 is_stmt 0
 717 0008 B7070000 		lui	a5,%hi(.LANCHOR4)
 718 000c 23A00700 		sw	zero,%lo(.LANCHOR4)(a5)
  64:C:/Users/stapi/OneDrive/Desktop/GD32VW553/V1_MQTT_OK/GD32VW55X_Wifi_BLE_SDK/GD32VW55x_RELEASE_V1.0.2/MSDK/cloud/alicloud/src/services/dev_bind\awss_report.c ****     awss_report_token_suc = 0;
 719              		.loc 2 64 5 is_stmt 1
  64:C:/Users/stapi/OneDrive/Desktop/GD32VW553/V1_MQTT_OK/GD32VW55X_Wifi_BLE_SDK/GD32VW55x_RELEASE_V1.0.2/MSDK/cloud/alicloud/src/services/dev_bind\awss_report.c ****     awss_report_token_suc = 0;
 720              		.loc 2 64 27 is_stmt 0
 721 0010 B7070000 		lui	a5,%hi(.LANCHOR2)
 722 0014 23800700 		sb	zero,%lo(.LANCHOR2)(a5)
  65:C:/Users/stapi/OneDrive/Desktop/GD32VW553/V1_MQTT_OK/GD32VW55X_Wifi_BLE_SDK/GD32VW55x_RELEASE_V1.0.2/MSDK/cloud/alicloud/src/services/dev_bind\awss_report.c **** 
 723              		.loc 2 65 5 is_stmt 1
  67:C:/Users/stapi/OneDrive/Desktop/GD32VW553/V1_MQTT_OK/GD32VW55X_Wifi_BLE_SDK/GD32VW55x_RELEASE_V1.0.2/MSDK/cloud/alicloud/src/services/dev_bind\awss_report.c ****         report_token_timer = HAL_Timer_Create("rp_token", (void (*)(void *))awss_report_token_to_cl
 724              		.loc 2 67 28 is_stmt 0
 725 0018 37040000 		lui	s0,%hi(.LANCHOR3)
  65:C:/Users/stapi/OneDrive/Desktop/GD32VW553/V1_MQTT_OK/GD32VW55X_Wifi_BLE_SDK/GD32VW55x_RELEASE_V1.0.2/MSDK/cloud/alicloud/src/services/dev_bind\awss_report.c **** 
 726              		.loc 2 65 27
 727 001c B7070000 		lui	a5,%hi(.LANCHOR1)
 728 0020 23800700 		sb	zero,%lo(.LANCHOR1)(a5)
  67:C:/Users/stapi/OneDrive/Desktop/GD32VW553/V1_MQTT_OK/GD32VW55X_Wifi_BLE_SDK/GD32VW55x_RELEASE_V1.0.2/MSDK/cloud/alicloud/src/services/dev_bind\awss_report.c ****         report_token_timer = HAL_Timer_Create("rp_token", (void (*)(void *))awss_report_token_to_cl
 729              		.loc 2 67 5 is_stmt 1
  67:C:/Users/stapi/OneDrive/Desktop/GD32VW553/V1_MQTT_OK/GD32VW55X_Wifi_BLE_SDK/GD32VW55x_RELEASE_V1.0.2/MSDK/cloud/alicloud/src/services/dev_bind\awss_report.c ****         report_token_timer = HAL_Timer_Create("rp_token", (void (*)(void *))awss_report_token_to_cl
 730              		.loc 2 67 8 is_stmt 0
 731 0024 83270400 		lw	a5,%lo(.LANCHOR3)(s0)
 732 0028 13040400 		addi	s0,s0,%lo(.LANCHOR3)
 733 002c 99EF     		bne	a5,zero,.L23
  68:C:/Users/stapi/OneDrive/Desktop/GD32VW553/V1_MQTT_OK/GD32VW55X_Wifi_BLE_SDK/GD32VW55x_RELEASE_V1.0.2/MSDK/cloud/alicloud/src/services/dev_bind\awss_report.c ****     }
 734              		.loc 2 68 9 is_stmt 1
  68:C:/Users/stapi/OneDrive/Desktop/GD32VW553/V1_MQTT_OK/GD32VW55X_Wifi_BLE_SDK/GD32VW55x_RELEASE_V1.0.2/MSDK/cloud/alicloud/src/services/dev_bind\awss_report.c ****     }
 735              		.loc 2 68 30 is_stmt 0
 736 002e B7050000 		lui	a1,%hi(awss_report_token_to_cloud)
 737 0032 37050000 		lui	a0,%hi(.LC5)
 738 0036 0146     		li	a2,0
 739 0038 93850500 		addi	a1,a1,%lo(awss_report_token_to_cloud)
 740 003c 13050500 		addi	a0,a0,%lo(.LC5)
 741 0040 97000000 		call	HAL_Timer_Create
 741      E7800000 
 742              	.LVL55:
  68:C:/Users/stapi/OneDrive/Desktop/GD32VW553/V1_MQTT_OK/GD32VW55X_Wifi_BLE_SDK/GD32VW55x_RELEASE_V1.0.2/MSDK/cloud/alicloud/src/services/dev_bind\awss_report.c ****     }
 743              		.loc 2 68 28
 744 0048 08C0     		sw	a0,0(s0)
 745              	.L23:
  70:C:/Users/stapi/OneDrive/Desktop/GD32VW553/V1_MQTT_OK/GD32VW55X_Wifi_BLE_SDK/GD32VW55x_RELEASE_V1.0.2/MSDK/cloud/alicloud/src/services/dev_bind\awss_report.c ****     HAL_Timer_Start(report_token_timer, 10);
 746              		.loc 2 70 5 is_stmt 1
 747 004a 0840     		lw	a0,0(s0)
 748 004c 97000000 		call	HAL_Timer_Stop
 748      E7800000 
 749              	.LVL56:
  71:C:/Users/stapi/OneDrive/Desktop/GD32VW553/V1_MQTT_OK/GD32VW55X_Wifi_BLE_SDK/GD32VW55x_RELEASE_V1.0.2/MSDK/cloud/alicloud/src/services/dev_bind\awss_report.c ****     awss_info("update token");
 750              		.loc 2 71 5
 751 0054 0840     		lw	a0,0(s0)
 752 0056 A945     		li	a1,10
 753 0058 97000000 		call	HAL_Timer_Start
 753      E7800000 
 754              	.LVL57:
  72:C:/Users/stapi/OneDrive/Desktop/GD32VW553/V1_MQTT_OK/GD32VW55X_Wifi_BLE_SDK/GD32VW55x_RELEASE_V1.0.2/MSDK/cloud/alicloud/src/services/dev_bind\awss_report.c **** 
 755              		.loc 2 72 5
  72:C:/Users/stapi/OneDrive/Desktop/GD32VW553/V1_MQTT_OK/GD32VW55X_Wifi_BLE_SDK/GD32VW55x_RELEASE_V1.0.2/MSDK/cloud/alicloud/src/services/dev_bind\awss_report.c **** 
 756              		.loc 2 72 5
 757 0060 37050000 		lui	a0,%hi(.LC1)
 758 0064 13050500 		addi	a0,a0,%lo(.LC1)
 759 0068 97000000 		call	HAL_Printf
 759      E7800000 
 760              	.LVL58:
  72:C:/Users/stapi/OneDrive/Desktop/GD32VW553/V1_MQTT_OK/GD32VW55X_Wifi_BLE_SDK/GD32VW55x_RELEASE_V1.0.2/MSDK/cloud/alicloud/src/services/dev_bind\awss_report.c **** 
 761              		.loc 2 72 5
 762 0070 37050000 		lui	a0,%hi(.LC19)
 763 0074 13050500 		addi	a0,a0,%lo(.LC19)
 764 0078 97000000 		call	HAL_Printf
 764      E7800000 
 765              	.LVL59:
  72:C:/Users/stapi/OneDrive/Desktop/GD32VW553/V1_MQTT_OK/GD32VW55X_Wifi_BLE_SDK/GD32VW55x_RELEASE_V1.0.2/MSDK/cloud/alicloud/src/services/dev_bind\awss_report.c **** 
 766              		.loc 2 72 5
 767 0080 37050000 		lui	a0,%hi(.LC3)
 768 0084 13050500 		addi	a0,a0,%lo(.LC3)
 769 0088 97000000 		call	HAL_Printf
 769      E7800000 
 770              	.LVL60:
  72:C:/Users/stapi/OneDrive/Desktop/GD32VW553/V1_MQTT_OK/GD32VW55X_Wifi_BLE_SDK/GD32VW55x_RELEASE_V1.0.2/MSDK/cloud/alicloud/src/services/dev_bind\awss_report.c **** 
 771              		.loc 2 72 5
  74:C:/Users/stapi/OneDrive/Desktop/GD32VW553/V1_MQTT_OK/GD32VW55X_Wifi_BLE_SDK/GD32VW55x_RELEASE_V1.0.2/MSDK/cloud/alicloud/src/services/dev_bind\awss_report.c ****     return 0;
 772              		.loc 2 74 5
 773 0090 37050000 		lui	a0,%hi(g_aes_random)
 774 0094 C145     		li	a1,16
 775 0096 13050500 		addi	a0,a0,%lo(g_aes_random)
 776 009a 97000000 		call	produce_random
 776      E7800000 
 777              	.LVL61:
  75:C:/Users/stapi/OneDrive/Desktop/GD32VW553/V1_MQTT_OK/GD32VW55X_Wifi_BLE_SDK/GD32VW55x_RELEASE_V1.0.2/MSDK/cloud/alicloud/src/services/dev_bind\awss_report.c **** }
 778              		.loc 2 75 5
  76:C:/Users/stapi/OneDrive/Desktop/GD32VW553/V1_MQTT_OK/GD32VW55X_Wifi_BLE_SDK/GD32VW55x_RELEASE_V1.0.2/MSDK/cloud/alicloud/src/services/dev_bind\awss_report.c **** 
 779              		.loc 2 76 1 is_stmt 0
 780 00a2 0145     		li	a0,0
 781 00a4 17030000 		tail	__riscv_restore_1
 781      67000300 
 782              		.cfi_restore 8
 783              		.cfi_restore 1
 784              		.cfi_def_cfa_offset 0
 785              		.cfi_endproc
 786              	.LFE65:
 788              		.section	.text.awss_token_timeout,"ax",@progbits
 789              		.align	1
 790              		.globl	awss_token_timeout
 792              	awss_token_timeout:
 793              	.LFB66:
  79:C:/Users/stapi/OneDrive/Desktop/GD32VW553/V1_MQTT_OK/GD32VW55X_Wifi_BLE_SDK/GD32VW55x_RELEASE_V1.0.2/MSDK/cloud/alicloud/src/services/dev_bind\awss_report.c ****     if (awss_report_token_time == 0) {
 794              		.loc 2 79 1 is_stmt 1
 795              		.cfi_startproc
 796 0000 17030000 		call	t0,__riscv_save_1
 796      E7020300 
 797              		.cfi_offset 8, -8
 798              		.cfi_offset 1, -4
 799              		.cfi_def_cfa_offset 16
  80:C:/Users/stapi/OneDrive/Desktop/GD32VW553/V1_MQTT_OK/GD32VW55X_Wifi_BLE_SDK/GD32VW55x_RELEASE_V1.0.2/MSDK/cloud/alicloud/src/services/dev_bind\awss_report.c ****         return 1;
 800              		.loc 2 80 5
  80:C:/Users/stapi/OneDrive/Desktop/GD32VW553/V1_MQTT_OK/GD32VW55X_Wifi_BLE_SDK/GD32VW55x_RELEASE_V1.0.2/MSDK/cloud/alicloud/src/services/dev_bind\awss_report.c ****         return 1;
 801              		.loc 2 80 32 is_stmt 0
 802 0008 37040000 		lui	s0,%hi(.LANCHOR4)
 803 000c 13040400 		addi	s0,s0,%lo(.LANCHOR4)
  80:C:/Users/stapi/OneDrive/Desktop/GD32VW553/V1_MQTT_OK/GD32VW55X_Wifi_BLE_SDK/GD32VW55x_RELEASE_V1.0.2/MSDK/cloud/alicloud/src/services/dev_bind\awss_report.c ****         return 1;
 804              		.loc 2 80 8
 805 0010 1C40     		lw	a5,0(s0)
 806 0012 0545     		li	a0,1
 807 0014 91CF     		beq	a5,zero,.L25
  84:C:/Users/stapi/OneDrive/Desktop/GD32VW553/V1_MQTT_OK/GD32VW55X_Wifi_BLE_SDK/GD32VW55x_RELEASE_V1.0.2/MSDK/cloud/alicloud/src/services/dev_bind\awss_report.c ****     if ((uint32_t)(cur - awss_report_token_time) > AWSS_TOKEN_TIMEOUT_MS) {
 808              		.loc 2 84 5 is_stmt 1
  84:C:/Users/stapi/OneDrive/Desktop/GD32VW553/V1_MQTT_OK/GD32VW55X_Wifi_BLE_SDK/GD32VW55x_RELEASE_V1.0.2/MSDK/cloud/alicloud/src/services/dev_bind\awss_report.c ****     if ((uint32_t)(cur - awss_report_token_time) > AWSS_TOKEN_TIMEOUT_MS) {
 809              		.loc 2 84 20 is_stmt 0
 810 0016 97000000 		call	os_get_time_ms
 810      E7800000 
 811              	.LVL62:
  85:C:/Users/stapi/OneDrive/Desktop/GD32VW553/V1_MQTT_OK/GD32VW55X_Wifi_BLE_SDK/GD32VW55x_RELEASE_V1.0.2/MSDK/cloud/alicloud/src/services/dev_bind\awss_report.c ****         return 1;
 812              		.loc 2 85 5 is_stmt 1
  85:C:/Users/stapi/OneDrive/Desktop/GD32VW553/V1_MQTT_OK/GD32VW55X_Wifi_BLE_SDK/GD32VW55x_RELEASE_V1.0.2/MSDK/cloud/alicloud/src/services/dev_bind\awss_report.c ****         return 1;
 813              		.loc 2 85 24 is_stmt 0
 814 001e 1C40     		lw	a5,0(s0)
 815 0020 1D8D     		sub	a0,a0,a5
 816              	.LVL63:
  85:C:/Users/stapi/OneDrive/Desktop/GD32VW553/V1_MQTT_OK/GD32VW55X_Wifi_BLE_SDK/GD32VW55x_RELEASE_V1.0.2/MSDK/cloud/alicloud/src/services/dev_bind\awss_report.c ****         return 1;
 817              		.loc 2 85 8
 818 0022 F567     		li	a5,118784
 819 0024 9387174C 		addi	a5,a5,1217
 820 0028 3335F500 		sltu	a0,a0,a5
 821 002c 13451500 		xori	a0,a0,1
 822              	.L25:
  89:C:/Users/stapi/OneDrive/Desktop/GD32VW553/V1_MQTT_OK/GD32VW55X_Wifi_BLE_SDK/GD32VW55x_RELEASE_V1.0.2/MSDK/cloud/alicloud/src/services/dev_bind\awss_report.c **** 
 823              		.loc 2 89 1
 824 0030 17030000 		tail	__riscv_restore_1
 824      67000300 
 825              		.cfi_restore 8
 826              		.cfi_restore 1
 827              		.cfi_def_cfa_offset 0
 828              		.cfi_endproc
 829              	.LFE66:
 831              		.section	.rodata.awss_report_token_reply.str1.4,"aMS",@progbits,1
 832              		.align	2
 833              	.LC20:
 834 0000 6E756C6C 		.string	"null pointer"
 834      20706F69 
 834      6E746572 
 834      00
 835 000d 000000   		.align	2
 836              	.LC21:
 837 0010 696400   		.string	"id"
 838 0013 00       		.align	2
 839              	.LC22:
 840 0014 6E6F2069 		.string	"no id"
 840      6400
 841 001a 0000     		.align	2
 842              	.LC23:
 843 001c 7265706C 		.string	"reply id invalid"
 843      79206964 
 843      20696E76 
 843      616C6964 
 843      00
 844 002d 000000   		.align	2
 845              	.LC24:
 846 0030 25730D0A 		.string	"%s\r\n"
 846      00
 847 0035 000000   		.align	2
 848              	.LC25:
 849 0038 7265706F 		.string	"report token success"
 849      72742074 
 849      6F6B656E 
 849      20737563 
 849      63657373 
 850              		.section	.text.awss_report_token_reply,"ax",@progbits
 851              		.align	1
 852              		.globl	awss_report_token_reply
 854              	awss_report_token_reply:
 855              	.LFB67:
  92:C:/Users/stapi/OneDrive/Desktop/GD32VW553/V1_MQTT_OK/GD32VW55X_Wifi_BLE_SDK/GD32VW55x_RELEASE_V1.0.2/MSDK/cloud/alicloud/src/services/dev_bind\awss_report.c ****     int ret, len;
 856              		.loc 2 92 1 is_stmt 1
 857              		.cfi_startproc
 858              	.LVL64:
 859 0000 17030000 		call	t0,__riscv_save_1
 859      E7020300 
 860              		.cfi_offset 8, -8
 861              		.cfi_offset 1, -4
 862              		.cfi_def_cfa_offset 16
  93:C:/Users/stapi/OneDrive/Desktop/GD32VW553/V1_MQTT_OK/GD32VW55X_Wifi_BLE_SDK/GD32VW55x_RELEASE_V1.0.2/MSDK/cloud/alicloud/src/services/dev_bind\awss_report.c ****     char *payload;
 863              		.loc 2 93 5
  94:C:/Users/stapi/OneDrive/Desktop/GD32VW553/V1_MQTT_OK/GD32VW55X_Wifi_BLE_SDK/GD32VW55x_RELEASE_V1.0.2/MSDK/cloud/alicloud/src/services/dev_bind\awss_report.c ****     char *id = NULL;
 864              		.loc 2 94 5
  95:C:/Users/stapi/OneDrive/Desktop/GD32VW553/V1_MQTT_OK/GD32VW55X_Wifi_BLE_SDK/GD32VW55x_RELEASE_V1.0.2/MSDK/cloud/alicloud/src/services/dev_bind\awss_report.c ****     char reply_id = 0;
 865              		.loc 2 95 5
 866              	.LVL65:
  96:C:/Users/stapi/OneDrive/Desktop/GD32VW553/V1_MQTT_OK/GD32VW55X_Wifi_BLE_SDK/GD32VW55x_RELEASE_V1.0.2/MSDK/cloud/alicloud/src/services/dev_bind\awss_report.c ****     uint32_t payload_len;
 867              		.loc 2 96 5
  97:C:/Users/stapi/OneDrive/Desktop/GD32VW553/V1_MQTT_OK/GD32VW55X_Wifi_BLE_SDK/GD32VW55x_RELEASE_V1.0.2/MSDK/cloud/alicloud/src/services/dev_bind\awss_report.c **** 
 868              		.loc 2 97 5
  99:C:/Users/stapi/OneDrive/Desktop/GD32VW553/V1_MQTT_OK/GD32VW55X_Wifi_BLE_SDK/GD32VW55x_RELEASE_V1.0.2/MSDK/cloud/alicloud/src/services/dev_bind\awss_report.c **** 
 869              		.loc 2 99 5
  92:C:/Users/stapi/OneDrive/Desktop/GD32VW553/V1_MQTT_OK/GD32VW55X_Wifi_BLE_SDK/GD32VW55x_RELEASE_V1.0.2/MSDK/cloud/alicloud/src/services/dev_bind\awss_report.c ****     int ret, len;
 870              		.loc 2 92 1 is_stmt 0
 871 0008 4111     		addi	sp,sp,-16
 872              		.cfi_def_cfa_offset 32
  92:C:/Users/stapi/OneDrive/Desktop/GD32VW553/V1_MQTT_OK/GD32VW55X_Wifi_BLE_SDK/GD32VW55x_RELEASE_V1.0.2/MSDK/cloud/alicloud/src/services/dev_bind\awss_report.c ****     int ret, len;
 873              		.loc 2 92 1
 874 000a 3285     		mv	a0,a2
 875              	.LVL66:
  99:C:/Users/stapi/OneDrive/Desktop/GD32VW553/V1_MQTT_OK/GD32VW55X_Wifi_BLE_SDK/GD32VW55x_RELEASE_V1.0.2/MSDK/cloud/alicloud/src/services/dev_bind\awss_report.c **** 
 876              		.loc 2 99 11
 877 000c 2C00     		addi	a1,sp,8
 878              	.LVL67:
 879 000e 7000     		addi	a2,sp,12
 880              	.LVL68:
 881 0010 97000000 		call	awss_cmp_mqtt_get_payload
 881      E7800000 
 882              	.LVL69:
 101:C:/Users/stapi/OneDrive/Desktop/GD32VW553/V1_MQTT_OK/GD32VW55X_Wifi_BLE_SDK/GD32VW55x_RELEASE_V1.0.2/MSDK/cloud/alicloud/src/services/dev_bind\awss_report.c ****         dump_dev_bind_status(STATE_BIND_MQTT_RSP_INVALID, "null pointer");
 883              		.loc 2 101 5 is_stmt 1
 101:C:/Users/stapi/OneDrive/Desktop/GD32VW553/V1_MQTT_OK/GD32VW55X_Wifi_BLE_SDK/GD32VW55x_RELEASE_V1.0.2/MSDK/cloud/alicloud/src/services/dev_bind\awss_report.c ****         dump_dev_bind_status(STATE_BIND_MQTT_RSP_INVALID, "null pointer");
 884              		.loc 2 101 8 is_stmt 0
 885 0018 09E5     		bne	a0,zero,.L32
 101:C:/Users/stapi/OneDrive/Desktop/GD32VW553/V1_MQTT_OK/GD32VW55X_Wifi_BLE_SDK/GD32VW55x_RELEASE_V1.0.2/MSDK/cloud/alicloud/src/services/dev_bind\awss_report.c ****         dump_dev_bind_status(STATE_BIND_MQTT_RSP_INVALID, "null pointer");
 886              		.loc 2 101 29 discriminator 1
 887 001a 2245     		lw	a0,8(sp)
 888              	.LVL70:
 101:C:/Users/stapi/OneDrive/Desktop/GD32VW553/V1_MQTT_OK/GD32VW55X_Wifi_BLE_SDK/GD32VW55x_RELEASE_V1.0.2/MSDK/cloud/alicloud/src/services/dev_bind\awss_report.c ****         dump_dev_bind_status(STATE_BIND_MQTT_RSP_INVALID, "null pointer");
 889              		.loc 2 101 18 discriminator 1
 890 001c 19C1     		beq	a0,zero,.L32
 101:C:/Users/stapi/OneDrive/Desktop/GD32VW553/V1_MQTT_OK/GD32VW55X_Wifi_BLE_SDK/GD32VW55x_RELEASE_V1.0.2/MSDK/cloud/alicloud/src/services/dev_bind\awss_report.c ****         dump_dev_bind_status(STATE_BIND_MQTT_RSP_INVALID, "null pointer");
 891              		.loc 2 101 52 discriminator 2
 892 001e B245     		lw	a1,12(sp)
 101:C:/Users/stapi/OneDrive/Desktop/GD32VW553/V1_MQTT_OK/GD32VW55X_Wifi_BLE_SDK/GD32VW55x_RELEASE_V1.0.2/MSDK/cloud/alicloud/src/services/dev_bind\awss_report.c ****         dump_dev_bind_status(STATE_BIND_MQTT_RSP_INVALID, "null pointer");
 893              		.loc 2 101 37 discriminator 2
 894 0020 95E1     		bne	a1,zero,.L33
 895              	.L32:
 102:C:/Users/stapi/OneDrive/Desktop/GD32VW553/V1_MQTT_OK/GD32VW55X_Wifi_BLE_SDK/GD32VW55x_RELEASE_V1.0.2/MSDK/cloud/alicloud/src/services/dev_bind\awss_report.c ****         return;
 896              		.loc 2 102 9 is_stmt 1
 897 0022 37060000 		lui	a2,%hi(.LC20)
 898 0026 13060600 		addi	a2,a2,%lo(.LC20)
 899              	.LVL71:
 900              	.L42:
 108:C:/Users/stapi/OneDrive/Desktop/GD32VW553/V1_MQTT_OK/GD32VW55X_Wifi_BLE_SDK/GD32VW55x_RELEASE_V1.0.2/MSDK/cloud/alicloud/src/services/dev_bind\awss_report.c ****         return;
 901              		.loc 2 108 9 is_stmt 0
 902 002a FD75     		li	a1,-4096
 903 002c 9385857F 		addi	a1,a1,2040
 904              	.LVL72:
 905              	.L41:
 114:C:/Users/stapi/OneDrive/Desktop/GD32VW553/V1_MQTT_OK/GD32VW55X_Wifi_BLE_SDK/GD32VW55x_RELEASE_V1.0.2/MSDK/cloud/alicloud/src/services/dev_bind\awss_report.c ****         return;
 906              		.loc 2 114 9
 907 0030 7D45     		li	a0,31
 908 0032 97000000 		call	iotx_state_event
 908      E7800000 
 909              	.LVL73:
 115:C:/Users/stapi/OneDrive/Desktop/GD32VW553/V1_MQTT_OK/GD32VW55X_Wifi_BLE_SDK/GD32VW55x_RELEASE_V1.0.2/MSDK/cloud/alicloud/src/services/dev_bind\awss_report.c ****     }
 910              		.loc 2 115 9 is_stmt 1
 911              	.L31:
 126:C:/Users/stapi/OneDrive/Desktop/GD32VW553/V1_MQTT_OK/GD32VW55X_Wifi_BLE_SDK/GD32VW55x_RELEASE_V1.0.2/MSDK/cloud/alicloud/src/services/dev_bind\awss_report.c **** 
 912              		.loc 2 126 1 is_stmt 0
 913 003a 4101     		addi	sp,sp,16
 914              		.cfi_remember_state
 915              		.cfi_def_cfa_offset 0
 916 003c 17030000 		tail	__riscv_restore_1
 916      67000300 
 917              		.cfi_restore 8
 918              		.cfi_restore 1
 919              		.cfi_def_cfa_offset -16
 920              	.LVL74:
 921              	.L33:
 922              		.cfi_restore_state
 106:C:/Users/stapi/OneDrive/Desktop/GD32VW553/V1_MQTT_OK/GD32VW55X_Wifi_BLE_SDK/GD32VW55x_RELEASE_V1.0.2/MSDK/cloud/alicloud/src/services/dev_bind\awss_report.c ****     if (id == NULL) {
 923              		.loc 2 106 5 is_stmt 1
 106:C:/Users/stapi/OneDrive/Desktop/GD32VW553/V1_MQTT_OK/GD32VW55X_Wifi_BLE_SDK/GD32VW55x_RELEASE_V1.0.2/MSDK/cloud/alicloud/src/services/dev_bind\awss_report.c ****     if (id == NULL) {
 924              		.loc 2 106 10 is_stmt 0
 925 0044 37060000 		lui	a2,%hi(.LC21)
 926 0048 0147     		li	a4,0
 927 004a 5400     		addi	a3,sp,4
 928 004c 13060600 		addi	a2,a2,%lo(.LC21)
 929 0050 97000000 		call	json_get_value_by_name
 929      E7800000 
 930              	.LVL75:
 107:C:/Users/stapi/OneDrive/Desktop/GD32VW553/V1_MQTT_OK/GD32VW55X_Wifi_BLE_SDK/GD32VW55x_RELEASE_V1.0.2/MSDK/cloud/alicloud/src/services/dev_bind\awss_report.c ****         dump_dev_bind_status(STATE_BIND_MQTT_RSP_INVALID, "no id");
 931              		.loc 2 107 5 is_stmt 1
 107:C:/Users/stapi/OneDrive/Desktop/GD32VW553/V1_MQTT_OK/GD32VW55X_Wifi_BLE_SDK/GD32VW55x_RELEASE_V1.0.2/MSDK/cloud/alicloud/src/services/dev_bind\awss_report.c ****         dump_dev_bind_status(STATE_BIND_MQTT_RSP_INVALID, "no id");
 932              		.loc 2 107 8 is_stmt 0
 933 0058 11E5     		bne	a0,zero,.L35
 108:C:/Users/stapi/OneDrive/Desktop/GD32VW553/V1_MQTT_OK/GD32VW55X_Wifi_BLE_SDK/GD32VW55x_RELEASE_V1.0.2/MSDK/cloud/alicloud/src/services/dev_bind\awss_report.c ****         return;
 934              		.loc 2 108 9 is_stmt 1
 935 005a 37060000 		lui	a2,%hi(.LC22)
 936 005e 13060600 		addi	a2,a2,%lo(.LC22)
 937 0062 E1B7     		j	.L42
 938              	.L35:
 112:C:/Users/stapi/OneDrive/Desktop/GD32VW553/V1_MQTT_OK/GD32VW55X_Wifi_BLE_SDK/GD32VW55x_RELEASE_V1.0.2/MSDK/cloud/alicloud/src/services/dev_bind\awss_report.c ****     if (reply_id + 1 < awss_report_id) {
 939              		.loc 2 112 5
 112:C:/Users/stapi/OneDrive/Desktop/GD32VW553/V1_MQTT_OK/GD32VW55X_Wifi_BLE_SDK/GD32VW55x_RELEASE_V1.0.2/MSDK/cloud/alicloud/src/services/dev_bind\awss_report.c ****     if (reply_id + 1 < awss_report_id) {
 940              		.loc 2 112 16 is_stmt 0
 941 0064 97000000 		call	atoi
 941      E7800000 
 942              	.LVL76:
 113:C:/Users/stapi/OneDrive/Desktop/GD32VW553/V1_MQTT_OK/GD32VW55X_Wifi_BLE_SDK/GD32VW55x_RELEASE_V1.0.2/MSDK/cloud/alicloud/src/services/dev_bind\awss_report.c ****         dump_dev_bind_status(STATE_BIND_MQTT_MSGID_INVALID, "reply id invalid");
 943              		.loc 2 113 5 is_stmt 1
 113:C:/Users/stapi/OneDrive/Desktop/GD32VW553/V1_MQTT_OK/GD32VW55X_Wifi_BLE_SDK/GD32VW55x_RELEASE_V1.0.2/MSDK/cloud/alicloud/src/services/dev_bind\awss_report.c ****         dump_dev_bind_status(STATE_BIND_MQTT_MSGID_INVALID, "reply id invalid");
 944              		.loc 2 113 22 is_stmt 0
 945 006c B7070000 		lui	a5,%hi(.LANCHOR5)
 113:C:/Users/stapi/OneDrive/Desktop/GD32VW553/V1_MQTT_OK/GD32VW55X_Wifi_BLE_SDK/GD32VW55x_RELEASE_V1.0.2/MSDK/cloud/alicloud/src/services/dev_bind\awss_report.c ****         dump_dev_bind_status(STATE_BIND_MQTT_MSGID_INVALID, "reply id invalid");
 946              		.loc 2 113 18
 947 0070 13154560 		sext.b	a0,a0
 948 0074 0505     		addi	a0,a0,1
 949              	.LVL77:
 113:C:/Users/stapi/OneDrive/Desktop/GD32VW553/V1_MQTT_OK/GD32VW55X_Wifi_BLE_SDK/GD32VW55x_RELEASE_V1.0.2/MSDK/cloud/alicloud/src/services/dev_bind\awss_report.c ****         dump_dev_bind_status(STATE_BIND_MQTT_MSGID_INVALID, "reply id invalid");
 950              		.loc 2 113 22
 951 0076 83870700 		lb	a5,%lo(.LANCHOR5)(a5)
 113:C:/Users/stapi/OneDrive/Desktop/GD32VW553/V1_MQTT_OK/GD32VW55X_Wifi_BLE_SDK/GD32VW55x_RELEASE_V1.0.2/MSDK/cloud/alicloud/src/services/dev_bind\awss_report.c ****         dump_dev_bind_status(STATE_BIND_MQTT_MSGID_INVALID, "reply id invalid");
 952              		.loc 2 113 8
 953 007a 635AF500 		bge	a0,a5,.L36
 114:C:/Users/stapi/OneDrive/Desktop/GD32VW553/V1_MQTT_OK/GD32VW55X_Wifi_BLE_SDK/GD32VW55x_RELEASE_V1.0.2/MSDK/cloud/alicloud/src/services/dev_bind\awss_report.c ****         return;
 954              		.loc 2 114 9 is_stmt 1
 955 007e 37060000 		lui	a2,%hi(.LC23)
 956 0082 FD75     		li	a1,-4096
 957 0084 13060600 		addi	a2,a2,%lo(.LC23)
 958 0088 9385757F 		addi	a1,a1,2039
 959 008c 55B7     		j	.L41
 960              	.L36:
 117:C:/Users/stapi/OneDrive/Desktop/GD32VW553/V1_MQTT_OK/GD32VW55X_Wifi_BLE_SDK/GD32VW55x_RELEASE_V1.0.2/MSDK/cloud/alicloud/src/services/dev_bind\awss_report.c ****     dump_dev_bind_status(STATE_BIND_REPORT_TOKEN_SUCCESS, "report token success");
 961              		.loc 2 117 5
 117:C:/Users/stapi/OneDrive/Desktop/GD32VW553/V1_MQTT_OK/GD32VW55X_Wifi_BLE_SDK/GD32VW55x_RELEASE_V1.0.2/MSDK/cloud/alicloud/src/services/dev_bind\awss_report.c ****     dump_dev_bind_status(STATE_BIND_REPORT_TOKEN_SUCCESS, "report token success");
 962              		.loc 2 117 5
 963 008e 37050000 		lui	a0,%hi(.LC1)
 964              	.LVL78:
 965 0092 13050500 		addi	a0,a0,%lo(.LC1)
 966 0096 97000000 		call	HAL_Printf
 966      E7800000 
 967              	.LVL79:
 117:C:/Users/stapi/OneDrive/Desktop/GD32VW553/V1_MQTT_OK/GD32VW55X_Wifi_BLE_SDK/GD32VW55x_RELEASE_V1.0.2/MSDK/cloud/alicloud/src/services/dev_bind\awss_report.c ****     dump_dev_bind_status(STATE_BIND_REPORT_TOKEN_SUCCESS, "report token success");
 968              		.loc 2 117 5
 969 009e B7050000 		lui	a1,%hi(.LANCHOR12)
 970 00a2 37050000 		lui	a0,%hi(.LC24)
 971 00a6 93850500 		addi	a1,a1,%lo(.LANCHOR12)
 972 00aa 13050500 		addi	a0,a0,%lo(.LC24)
 973 00ae 97000000 		call	HAL_Printf
 973      E7800000 
 974              	.LVL80:
 117:C:/Users/stapi/OneDrive/Desktop/GD32VW553/V1_MQTT_OK/GD32VW55X_Wifi_BLE_SDK/GD32VW55x_RELEASE_V1.0.2/MSDK/cloud/alicloud/src/services/dev_bind\awss_report.c ****     dump_dev_bind_status(STATE_BIND_REPORT_TOKEN_SUCCESS, "report token success");
 975              		.loc 2 117 5
 976 00b6 37050000 		lui	a0,%hi(.LC3)
 977 00ba 13050500 		addi	a0,a0,%lo(.LC3)
 978 00be 97000000 		call	HAL_Printf
 978      E7800000 
 979              	.LVL81:
 117:C:/Users/stapi/OneDrive/Desktop/GD32VW553/V1_MQTT_OK/GD32VW55X_Wifi_BLE_SDK/GD32VW55x_RELEASE_V1.0.2/MSDK/cloud/alicloud/src/services/dev_bind\awss_report.c ****     dump_dev_bind_status(STATE_BIND_REPORT_TOKEN_SUCCESS, "report token success");
 980              		.loc 2 117 5
 118:C:/Users/stapi/OneDrive/Desktop/GD32VW553/V1_MQTT_OK/GD32VW55X_Wifi_BLE_SDK/GD32VW55x_RELEASE_V1.0.2/MSDK/cloud/alicloud/src/services/dev_bind\awss_report.c ****     awss_report_token_suc = 1;
 981              		.loc 2 118 5
 982 00c6 37060000 		lui	a2,%hi(.LC25)
 983 00ca FD75     		li	a1,-4096
 984 00cc 13060600 		addi	a2,a2,%lo(.LC25)
 985 00d0 9385C57F 		addi	a1,a1,2044
 986 00d4 7D45     		li	a0,31
 987 00d6 97000000 		call	iotx_state_event
 987      E7800000 
 988              	.LVL82:
 119:C:/Users/stapi/OneDrive/Desktop/GD32VW553/V1_MQTT_OK/GD32VW55X_Wifi_BLE_SDK/GD32VW55x_RELEASE_V1.0.2/MSDK/cloud/alicloud/src/services/dev_bind\awss_report.c ****     iotx_event_post(IOTX_CONN_REPORT_TOKEN_SUC);
 989              		.loc 2 119 5
 120:C:/Users/stapi/OneDrive/Desktop/GD32VW553/V1_MQTT_OK/GD32VW55X_Wifi_BLE_SDK/GD32VW55x_RELEASE_V1.0.2/MSDK/cloud/alicloud/src/services/dev_bind\awss_report.c ****     awss_stop_timer(report_token_timer);
 990              		.loc 2 120 5 is_stmt 0
 991 00de 0965     		li	a0,8192
 119:C:/Users/stapi/OneDrive/Desktop/GD32VW553/V1_MQTT_OK/GD32VW55X_Wifi_BLE_SDK/GD32VW55x_RELEASE_V1.0.2/MSDK/cloud/alicloud/src/services/dev_bind\awss_report.c ****     iotx_event_post(IOTX_CONN_REPORT_TOKEN_SUC);
 992              		.loc 2 119 27
 993 00e0 B7070000 		lui	a5,%hi(.LANCHOR1)
 994 00e4 0547     		li	a4,1
 120:C:/Users/stapi/OneDrive/Desktop/GD32VW553/V1_MQTT_OK/GD32VW55X_Wifi_BLE_SDK/GD32VW55x_RELEASE_V1.0.2/MSDK/cloud/alicloud/src/services/dev_bind\awss_report.c ****     awss_stop_timer(report_token_timer);
 995              		.loc 2 120 5
 996 00e6 0D05     		addi	a0,a0,3
 121:C:/Users/stapi/OneDrive/Desktop/GD32VW553/V1_MQTT_OK/GD32VW55X_Wifi_BLE_SDK/GD32VW55x_RELEASE_V1.0.2/MSDK/cloud/alicloud/src/services/dev_bind\awss_report.c ****     report_token_timer = NULL;
 997              		.loc 2 121 5
 998 00e8 37040000 		lui	s0,%hi(.LANCHOR3)
 119:C:/Users/stapi/OneDrive/Desktop/GD32VW553/V1_MQTT_OK/GD32VW55X_Wifi_BLE_SDK/GD32VW55x_RELEASE_V1.0.2/MSDK/cloud/alicloud/src/services/dev_bind\awss_report.c ****     iotx_event_post(IOTX_CONN_REPORT_TOKEN_SUC);
 999              		.loc 2 119 27
 1000 00ec 2380E700 		sb	a4,%lo(.LANCHOR1)(a5)
 120:C:/Users/stapi/OneDrive/Desktop/GD32VW553/V1_MQTT_OK/GD32VW55X_Wifi_BLE_SDK/GD32VW55x_RELEASE_V1.0.2/MSDK/cloud/alicloud/src/services/dev_bind\awss_report.c ****     awss_stop_timer(report_token_timer);
 1001              		.loc 2 120 5 is_stmt 1
 121:C:/Users/stapi/OneDrive/Desktop/GD32VW553/V1_MQTT_OK/GD32VW55X_Wifi_BLE_SDK/GD32VW55x_RELEASE_V1.0.2/MSDK/cloud/alicloud/src/services/dev_bind\awss_report.c ****     report_token_timer = NULL;
 1002              		.loc 2 121 5 is_stmt 0
 1003 00f0 13040400 		addi	s0,s0,%lo(.LANCHOR3)
 120:C:/Users/stapi/OneDrive/Desktop/GD32VW553/V1_MQTT_OK/GD32VW55X_Wifi_BLE_SDK/GD32VW55x_RELEASE_V1.0.2/MSDK/cloud/alicloud/src/services/dev_bind\awss_report.c ****     awss_stop_timer(report_token_timer);
 1004              		.loc 2 120 5
 1005 00f4 97000000 		call	iotx_event_post
 1005      E7800000 
 1006              	.LVL83:
 121:C:/Users/stapi/OneDrive/Desktop/GD32VW553/V1_MQTT_OK/GD32VW55X_Wifi_BLE_SDK/GD32VW55x_RELEASE_V1.0.2/MSDK/cloud/alicloud/src/services/dev_bind\awss_report.c ****     report_token_timer = NULL;
 1007              		.loc 2 121 5 is_stmt 1
 1008 00fc 0840     		lw	a0,0(s0)
 1009 00fe 97000000 		call	awss_stop_timer
 1009      E7800000 
 1010              	.LVL84:
 122:C:/Users/stapi/OneDrive/Desktop/GD32VW553/V1_MQTT_OK/GD32VW55X_Wifi_BLE_SDK/GD32VW55x_RELEASE_V1.0.2/MSDK/cloud/alicloud/src/services/dev_bind\awss_report.c ****     AWSS_DB_UPDATE_STATIS(AWSS_DB_STATIS_SUC);
 1011              		.loc 2 122 5
 123:C:/Users/stapi/OneDrive/Desktop/GD32VW553/V1_MQTT_OK/GD32VW55X_Wifi_BLE_SDK/GD32VW55x_RELEASE_V1.0.2/MSDK/cloud/alicloud/src/services/dev_bind\awss_report.c ****     AWSS_DB_DISP_STATIS();
 1012              		.loc 2 123 5 is_stmt 0
 1013 0106 0545     		li	a0,1
 122:C:/Users/stapi/OneDrive/Desktop/GD32VW553/V1_MQTT_OK/GD32VW55X_Wifi_BLE_SDK/GD32VW55x_RELEASE_V1.0.2/MSDK/cloud/alicloud/src/services/dev_bind\awss_report.c ****     AWSS_DB_UPDATE_STATIS(AWSS_DB_STATIS_SUC);
 1014              		.loc 2 122 24
 1015 0108 23200400 		sw	zero,0(s0)
 123:C:/Users/stapi/OneDrive/Desktop/GD32VW553/V1_MQTT_OK/GD32VW55X_Wifi_BLE_SDK/GD32VW55x_RELEASE_V1.0.2/MSDK/cloud/alicloud/src/services/dev_bind\awss_report.c ****     AWSS_DB_DISP_STATIS();
 1016              		.loc 2 123 5 is_stmt 1
 1017 010c 97000000 		call	awss_bind_update_statis
 1017      E7800000 
 1018              	.LVL85:
 124:C:/Users/stapi/OneDrive/Desktop/GD32VW553/V1_MQTT_OK/GD32VW55X_Wifi_BLE_SDK/GD32VW55x_RELEASE_V1.0.2/MSDK/cloud/alicloud/src/services/dev_bind\awss_report.c ****     return;
 1019              		.loc 2 124 5
 1020 0114 97000000 		call	awss_bind_disp_statis
 1020      E7800000 
 1021              	.LVL86:
 125:C:/Users/stapi/OneDrive/Desktop/GD32VW553/V1_MQTT_OK/GD32VW55X_Wifi_BLE_SDK/GD32VW55x_RELEASE_V1.0.2/MSDK/cloud/alicloud/src/services/dev_bind\awss_report.c **** }
 1022              		.loc 2 125 5
 1023 011c 39BF     		j	.L31
 1024              		.cfi_endproc
 1025              	.LFE67:
 1027              		.section	.rodata.awss_online_switchap.str1.4,"aMS",@progbits,1
 1028              		.align	2
 1029              	.LC26:
 1030 0000 6F6E6C69 		.string	"online switchap len:%u, payload:%s\r\n"
 1030      6E652073 
 1030      77697463 
 1030      68617020 
 1030      6C656E3A 
 1031 0025 000000   		.align	2
 1032              	.LC27:
 1033 0028 70617261 		.string	"params"
 1033      6D7300
 1034 002f 00       		.align	2
 1035              	.LC28:
 1036 0030 73736964 		.string	"ssid"
 1036      00
 1037 0035 000000   		.align	2
 1038              	.LC29:
 1039 0038 70617373 		.string	"passwd"
 1039      776400
 1040 003f 00       		.align	2
 1041              	.LC30:
 1042 0040 62737369 		.string	"bssid"
 1042      6400
 1043 0046 0000     		.align	2
 1044              	.LC31:
 1045 0048 73776974 		.string	"switchMode"
 1045      63684D6F 
 1045      646500
 1046 0053 00       		.align	2
 1047              	.LC32:
 1048 0054 74696D65 		.string	"timeout"
 1048      6F757400 
 1049              		.align	2
 1050              	.LC33:
 1051 005c 7B7D00   		.string	"{}"
 1052 005f 00       		.align	2
 1053              	.LC34:
 1054 0060 7468696E 		.string	"thing.awss.device.switchap"
 1054      672E6177 
 1054      73732E64 
 1054      65766963 
 1054      652E7377 
 1055 007b 00       		.align	2
 1056              	.LC35:
 1057 007c 2F737973 		.string	"/sys/%s/%s/thing/awss/device/switchap_reply"
 1057      2F25732F 
 1057      25732F74 
 1057      68696E67 
 1057      2F617773 
 1058              		.align	2
 1059              	.LC36:
 1060 00a8 73776963 		.string	"swichap_online"
 1060      6861705F 
 1060      6F6E6C69 
 1060      6E6500
 1061 00b7 00       		.align	2
 1062              	.LC37:
 1063 00b8 5B77726E 		.string	"[wrn] "
 1063      5D2000
 1064 00bf 00       		.align	2
 1065              	.LC38:
 1066 00c0 696C6F70 		.string	"ilop online switchap failed"
 1066      206F6E6C 
 1066      696E6520 
 1066      73776974 
 1066      63686170 
 1067              		.section	.text.awss_online_switchap,"ax",@progbits
 1068              		.align	1
 1069              		.globl	awss_online_switchap
 1071              	awss_online_switchap:
 1072              	.LFB68:
 130:C:/Users/stapi/OneDrive/Desktop/GD32VW553/V1_MQTT_OK/GD32VW55X_Wifi_BLE_SDK/GD32VW55x_RELEASE_V1.0.2/MSDK/cloud/alicloud/src/services/dev_bind\awss_report.c **** #define SWITCHAP_RSP_LEN   (64)
 1073              		.loc 2 130 1
 1074              		.cfi_startproc
 1075              	.LVL87:
 1076 0000 17030000 		call	t0,__riscv_save_10
 1076      E7020300 
 1077              		.cfi_offset 25, -44
 1078              		.cfi_offset 24, -40
 1079              		.cfi_offset 23, -36
 1080              		.cfi_offset 22, -32
 1081              		.cfi_offset 21, -28
 1082              		.cfi_offset 20, -24
 1083              		.cfi_offset 19, -20
 1084              		.cfi_offset 18, -16
 1085              		.cfi_offset 9, -12
 1086              		.cfi_offset 8, -8
 1087              		.cfi_offset 1, -4
 1088              		.cfi_def_cfa_offset 48
 139:C:/Users/stapi/OneDrive/Desktop/GD32VW553/V1_MQTT_OK/GD32VW55X_Wifi_BLE_SDK/GD32VW55x_RELEASE_V1.0.2/MSDK/cloud/alicloud/src/services/dev_bind\awss_report.c ****     char *packet = NULL, *awss_info = NULL, *elem = NULL;
 1089              		.loc 2 139 5
 130:C:/Users/stapi/OneDrive/Desktop/GD32VW553/V1_MQTT_OK/GD32VW55X_Wifi_BLE_SDK/GD32VW55x_RELEASE_V1.0.2/MSDK/cloud/alicloud/src/services/dev_bind\awss_report.c **** #define SWITCHAP_RSP_LEN   (64)
 1090              		.loc 2 130 1 is_stmt 0
 1091 0008 1571     		addi	sp,sp,-224
 1092              		.cfi_def_cfa_offset 272
 130:C:/Users/stapi/OneDrive/Desktop/GD32VW553/V1_MQTT_OK/GD32VW55X_Wifi_BLE_SDK/GD32VW55x_RELEASE_V1.0.2/MSDK/cloud/alicloud/src/services/dev_bind\awss_report.c **** #define SWITCHAP_RSP_LEN   (64)
 1093              		.loc 2 130 1
 1094 000a 3285     		mv	a0,a2
 1095              	.LVL88:
 141:C:/Users/stapi/OneDrive/Desktop/GD32VW553/V1_MQTT_OK/GD32VW55X_Wifi_BLE_SDK/GD32VW55x_RELEASE_V1.0.2/MSDK/cloud/alicloud/src/services/dev_bind\awss_report.c **** 
 1096              		.loc 2 141 9
 1097 000c 93070004 		li	a5,64
 147:C:/Users/stapi/OneDrive/Desktop/GD32VW553/V1_MQTT_OK/GD32VW55X_Wifi_BLE_SDK/GD32VW55x_RELEASE_V1.0.2/MSDK/cloud/alicloud/src/services/dev_bind\awss_report.c **** 
 1098              		.loc 2 147 11
 1099 0010 7010     		addi	a2,sp,44
 1100              	.LVL89:
 1101 0012 0C18     		addi	a1,sp,48
 1102              	.LVL90:
 139:C:/Users/stapi/OneDrive/Desktop/GD32VW553/V1_MQTT_OK/GD32VW55X_Wifi_BLE_SDK/GD32VW55x_RELEASE_V1.0.2/MSDK/cloud/alicloud/src/services/dev_bind\awss_report.c ****     char *packet = NULL, *awss_info = NULL, *elem = NULL;
 1103              		.loc 2 139 9
 1104 0014 02CE     		sw	zero,28(sp)
 1105              	.LVL91:
 140:C:/Users/stapi/OneDrive/Desktop/GD32VW553/V1_MQTT_OK/GD32VW55X_Wifi_BLE_SDK/GD32VW55x_RELEASE_V1.0.2/MSDK/cloud/alicloud/src/services/dev_bind\awss_report.c ****     int packet_len = SWITCHAP_RSP_LEN, awss_info_len = 0;
 1106              		.loc 2 140 5 is_stmt 1
 140:C:/Users/stapi/OneDrive/Desktop/GD32VW553/V1_MQTT_OK/GD32VW55X_Wifi_BLE_SDK/GD32VW55x_RELEASE_V1.0.2/MSDK/cloud/alicloud/src/services/dev_bind\awss_report.c ****     int packet_len = SWITCHAP_RSP_LEN, awss_info_len = 0;
 1107              		.loc 2 140 46 is_stmt 0
 1108 0016 02D0     		sw	zero,32(sp)
 141:C:/Users/stapi/OneDrive/Desktop/GD32VW553/V1_MQTT_OK/GD32VW55X_Wifi_BLE_SDK/GD32VW55x_RELEASE_V1.0.2/MSDK/cloud/alicloud/src/services/dev_bind\awss_report.c **** 
 1109              		.loc 2 141 5 is_stmt 1
 141:C:/Users/stapi/OneDrive/Desktop/GD32VW553/V1_MQTT_OK/GD32VW55X_Wifi_BLE_SDK/GD32VW55x_RELEASE_V1.0.2/MSDK/cloud/alicloud/src/services/dev_bind\awss_report.c **** 
 1110              		.loc 2 141 9 is_stmt 0
 1111 0018 3ED2     		sw	a5,36(sp)
 141:C:/Users/stapi/OneDrive/Desktop/GD32VW553/V1_MQTT_OK/GD32VW55X_Wifi_BLE_SDK/GD32VW55x_RELEASE_V1.0.2/MSDK/cloud/alicloud/src/services/dev_bind\awss_report.c **** 
 1112              		.loc 2 141 40
 1113 001a 02D4     		sw	zero,40(sp)
 143:C:/Users/stapi/OneDrive/Desktop/GD32VW553/V1_MQTT_OK/GD32VW55X_Wifi_BLE_SDK/GD32VW55x_RELEASE_V1.0.2/MSDK/cloud/alicloud/src/services/dev_bind\awss_report.c ****     char *payload;
 1114              		.loc 2 143 5 is_stmt 1
 144:C:/Users/stapi/OneDrive/Desktop/GD32VW553/V1_MQTT_OK/GD32VW55X_Wifi_BLE_SDK/GD32VW55x_RELEASE_V1.0.2/MSDK/cloud/alicloud/src/services/dev_bind\awss_report.c ****     int ret;
 1115              		.loc 2 144 5
 145:C:/Users/stapi/OneDrive/Desktop/GD32VW553/V1_MQTT_OK/GD32VW55X_Wifi_BLE_SDK/GD32VW55x_RELEASE_V1.0.2/MSDK/cloud/alicloud/src/services/dev_bind\awss_report.c **** 
 1116              		.loc 2 145 5
 147:C:/Users/stapi/OneDrive/Desktop/GD32VW553/V1_MQTT_OK/GD32VW55X_Wifi_BLE_SDK/GD32VW55x_RELEASE_V1.0.2/MSDK/cloud/alicloud/src/services/dev_bind\awss_report.c **** 
 1117              		.loc 2 147 5
 1118 001c 370B0000 		lui	s6,%hi(.LANCHOR8)
 147:C:/Users/stapi/OneDrive/Desktop/GD32VW553/V1_MQTT_OK/GD32VW55X_Wifi_BLE_SDK/GD32VW55x_RELEASE_V1.0.2/MSDK/cloud/alicloud/src/services/dev_bind\awss_report.c **** 
 1119              		.loc 2 147 11 is_stmt 0
 1120 0020 97000000 		call	awss_cmp_mqtt_get_payload
 1120      E7800000 
 1121              	.LVL92:
 149:C:/Users/stapi/OneDrive/Desktop/GD32VW553/V1_MQTT_OK/GD32VW55X_Wifi_BLE_SDK/GD32VW55x_RELEASE_V1.0.2/MSDK/cloud/alicloud/src/services/dev_bind\awss_report.c ****         goto ONLINE_SWITCHAP_FAIL;
 1122              		.loc 2 149 5 is_stmt 1
 1123 0028 B70A0000 		lui	s5,%hi(.LANCHOR10)
 1124 002c 370A0000 		lui	s4,%hi(.LANCHOR9)
 1125 0030 93040B00 		addi	s1,s6,%lo(.LANCHOR8)
 149:C:/Users/stapi/OneDrive/Desktop/GD32VW553/V1_MQTT_OK/GD32VW55X_Wifi_BLE_SDK/GD32VW55x_RELEASE_V1.0.2/MSDK/cloud/alicloud/src/services/dev_bind\awss_report.c ****         goto ONLINE_SWITCHAP_FAIL;
 1126              		.loc 2 149 8 is_stmt 0
 1127 0034 63100534 		bne	a0,zero,.L44
 153:C:/Users/stapi/OneDrive/Desktop/GD32VW553/V1_MQTT_OK/GD32VW55X_Wifi_BLE_SDK/GD32VW55x_RELEASE_V1.0.2/MSDK/cloud/alicloud/src/services/dev_bind\awss_report.c ****         goto ONLINE_SWITCHAP_FAIL;
 1128              		.loc 2 153 5 is_stmt 1
 153:C:/Users/stapi/OneDrive/Desktop/GD32VW553/V1_MQTT_OK/GD32VW55X_Wifi_BLE_SDK/GD32VW55x_RELEASE_V1.0.2/MSDK/cloud/alicloud/src/services/dev_bind\awss_report.c ****         goto ONLINE_SWITCHAP_FAIL;
 1129              		.loc 2 153 17 is_stmt 0
 1130 0038 4258     		lw	a6,48(sp)
 153:C:/Users/stapi/OneDrive/Desktop/GD32VW553/V1_MQTT_OK/GD32VW55X_Wifi_BLE_SDK/GD32VW55x_RELEASE_V1.0.2/MSDK/cloud/alicloud/src/services/dev_bind\awss_report.c ****         goto ONLINE_SWITCHAP_FAIL;
 1131              		.loc 2 153 8
 1132 003a 630D0832 		beq	a6,zero,.L44
 153:C:/Users/stapi/OneDrive/Desktop/GD32VW553/V1_MQTT_OK/GD32VW55X_Wifi_BLE_SDK/GD32VW55x_RELEASE_V1.0.2/MSDK/cloud/alicloud/src/services/dev_bind\awss_report.c ****         goto ONLINE_SWITCHAP_FAIL;
 1133              		.loc 2 153 40 discriminator 1
 1134 003e B257     		lw	a5,44(sp)
 153:C:/Users/stapi/OneDrive/Desktop/GD32VW553/V1_MQTT_OK/GD32VW55X_Wifi_BLE_SDK/GD32VW55x_RELEASE_V1.0.2/MSDK/cloud/alicloud/src/services/dev_bind\awss_report.c ****         goto ONLINE_SWITCHAP_FAIL;
 1135              		.loc 2 153 25 discriminator 1
 1136 0040 638A0732 		beq	a5,zero,.L44
 1137 0044 2A89     		mv	s2,a0
 157:C:/Users/stapi/OneDrive/Desktop/GD32VW553/V1_MQTT_OK/GD32VW55X_Wifi_BLE_SDK/GD32VW55x_RELEASE_V1.0.2/MSDK/cloud/alicloud/src/services/dev_bind\awss_report.c ****     packet = os_zalloc(packet_len + 1);
 1138              		.loc 2 157 5 is_stmt 1
 1139 0046 37070000 		lui	a4,%hi(.LC26)
 1140 004a B7050000 		lui	a1,%hi(.LANCHOR13)
 1141 004e 37050000 		lui	a0,%hi(.LC12)
 1142              	.LVL93:
 1143 0052 13070700 		addi	a4,a4,%lo(.LC26)
 1144 0056 9546     		li	a3,5
 1145 0058 1306D009 		li	a2,157
 1146 005c 93850500 		addi	a1,a1,%lo(.LANCHOR13)
 1147 0060 13050500 		addi	a0,a0,%lo(.LC12)
 1148 0064 97000000 		call	LITE_syslog
 1148      E7800000 
 1149              	.LVL94:
 158:C:/Users/stapi/OneDrive/Desktop/GD32VW553/V1_MQTT_OK/GD32VW55X_Wifi_BLE_SDK/GD32VW55x_RELEASE_V1.0.2/MSDK/cloud/alicloud/src/services/dev_bind\awss_report.c ****     if (packet == NULL) {
 1150              		.loc 2 158 5
 158:C:/Users/stapi/OneDrive/Desktop/GD32VW553/V1_MQTT_OK/GD32VW55X_Wifi_BLE_SDK/GD32VW55x_RELEASE_V1.0.2/MSDK/cloud/alicloud/src/services/dev_bind\awss_report.c ****     if (packet == NULL) {
 1151              		.loc 2 158 35 is_stmt 0
 1152 006c 1256     		lw	a2,36(sp)
 1153 006e 0506     		addi	a2,a2,1
 1154              	.LVL95:
 1155              	.LBB59:
 1156              	.LBB60:
 408:..\..\..\..\cloud\alicloud\src\services\dev_bind\os/os.h ****     if (ptr != NULL) {
 1157              		.loc 1 408 5 is_stmt 1
 1158              	.LBB61:
 1159              	.LBB62:
 380:..\..\..\..\cloud\alicloud\src\services\dev_bind\os/os.h **** }
 1160              		.loc 1 380 5
 380:..\..\..\..\cloud\alicloud\src\services\dev_bind\os/os.h **** }
 1161              		.loc 1 380 12 is_stmt 0
 1162 0070 3285     		mv	a0,a2
 1163 0072 32C6     		sw	a2,12(sp)
 1164 0074 97000000 		call	HAL_Malloc
 1164      E7800000 
 1165              	.LVL96:
 1166 007c 2A84     		mv	s0,a0
 1167              	.LVL97:
 1168              	.LBE62:
 1169              	.LBE61:
 409:..\..\..\..\cloud\alicloud\src\services\dev_bind\os/os.h ****         memset(ptr, 0, size);
 1170              		.loc 1 409 5 is_stmt 1
 409:..\..\..\..\cloud\alicloud\src\services\dev_bind\os/os.h ****         memset(ptr, 0, size);
 1171              		.loc 1 409 8 is_stmt 0
 1172 007e 630B052E 		beq	a0,zero,.L44
 410:..\..\..\..\cloud\alicloud\src\services\dev_bind\os/os.h ****     }
 1173              		.loc 1 410 9 is_stmt 1
 1174 0082 3246     		lw	a2,12(sp)
 1175 0084 8145     		li	a1,0
 1176 0086 97000000 		call	memset
 1176      E7800000 
 1177              	.LVL98:
 412:..\..\..\..\cloud\alicloud\src\services\dev_bind\os/os.h **** }
 1178              		.loc 1 412 5
 1179              	.LBE60:
 1180              	.LBE59:
 159:C:/Users/stapi/OneDrive/Desktop/GD32VW553/V1_MQTT_OK/GD32VW55X_Wifi_BLE_SDK/GD32VW55x_RELEASE_V1.0.2/MSDK/cloud/alicloud/src/services/dev_bind\awss_report.c ****         goto ONLINE_SWITCHAP_FAIL;
 1181              		.loc 2 159 5
 163:C:/Users/stapi/OneDrive/Desktop/GD32VW553/V1_MQTT_OK/GD32VW55X_Wifi_BLE_SDK/GD32VW55x_RELEASE_V1.0.2/MSDK/cloud/alicloud/src/services/dev_bind\awss_report.c ****     if (awss_info == NULL || awss_info_len == 0) {
 1182              		.loc 2 163 5
 163:C:/Users/stapi/OneDrive/Desktop/GD32VW553/V1_MQTT_OK/GD32VW55X_Wifi_BLE_SDK/GD32VW55x_RELEASE_V1.0.2/MSDK/cloud/alicloud/src/services/dev_bind\awss_report.c ****     if (awss_info == NULL || awss_info_len == 0) {
 1183              		.loc 2 163 17 is_stmt 0
 1184 008e B255     		lw	a1,44(sp)
 1185 0090 4255     		lw	a0,48(sp)
 1186 0092 37060000 		lui	a2,%hi(.LC27)
 1187 0096 0147     		li	a4,0
 1188 0098 3410     		addi	a3,sp,40
 1189 009a 13060600 		addi	a2,a2,%lo(.LC27)
 1190 009e 97000000 		call	json_get_value_by_name
 1190      E7800000 
 1191              	.LVL99:
 1192 00a6 AA89     		mv	s3,a0
 1193              	.LVL100:
 164:C:/Users/stapi/OneDrive/Desktop/GD32VW553/V1_MQTT_OK/GD32VW55X_Wifi_BLE_SDK/GD32VW55x_RELEASE_V1.0.2/MSDK/cloud/alicloud/src/services/dev_bind\awss_report.c ****         goto ONLINE_SWITCHAP_FAIL;
 1194              		.loc 2 164 5 is_stmt 1
 164:C:/Users/stapi/OneDrive/Desktop/GD32VW553/V1_MQTT_OK/GD32VW55X_Wifi_BLE_SDK/GD32VW55x_RELEASE_V1.0.2/MSDK/cloud/alicloud/src/services/dev_bind\awss_report.c ****         goto ONLINE_SWITCHAP_FAIL;
 1195              		.loc 2 164 8 is_stmt 0
 1196 00a8 6307052C 		beq	a0,zero,.L45
 164:C:/Users/stapi/OneDrive/Desktop/GD32VW553/V1_MQTT_OK/GD32VW55X_Wifi_BLE_SDK/GD32VW55x_RELEASE_V1.0.2/MSDK/cloud/alicloud/src/services/dev_bind\awss_report.c ****         goto ONLINE_SWITCHAP_FAIL;
 1197              		.loc 2 164 44 discriminator 1
 1198 00ac A255     		lw	a1,40(sp)
 164:C:/Users/stapi/OneDrive/Desktop/GD32VW553/V1_MQTT_OK/GD32VW55X_Wifi_BLE_SDK/GD32VW55x_RELEASE_V1.0.2/MSDK/cloud/alicloud/src/services/dev_bind\awss_report.c ****         goto ONLINE_SWITCHAP_FAIL;
 1199              		.loc 2 164 27 discriminator 1
 1200 00ae 6384052C 		beq	a1,zero,.L45
 171:C:/Users/stapi/OneDrive/Desktop/GD32VW553/V1_MQTT_OK/GD32VW55X_Wifi_BLE_SDK/GD32VW55x_RELEASE_V1.0.2/MSDK/cloud/alicloud/src/services/dev_bind\awss_report.c ****     if (elem == NULL || len <= 0 || len >= OS_MAX_SSID_LEN) {
 1201              		.loc 2 171 5 is_stmt 1
 171:C:/Users/stapi/OneDrive/Desktop/GD32VW553/V1_MQTT_OK/GD32VW55X_Wifi_BLE_SDK/GD32VW55x_RELEASE_V1.0.2/MSDK/cloud/alicloud/src/services/dev_bind\awss_report.c ****     if (elem == NULL || len <= 0 || len >= OS_MAX_SSID_LEN) {
 1202              		.loc 2 171 12 is_stmt 0
 1203 00b2 37060000 		lui	a2,%hi(.LC28)
 1204 00b6 0147     		li	a4,0
 1205 00b8 7408     		addi	a3,sp,28
 1206 00ba 13060600 		addi	a2,a2,%lo(.LC28)
 1207 00be 97000000 		call	json_get_value_by_name
 1207      E7800000 
 1208              	.LVL101:
 171:C:/Users/stapi/OneDrive/Desktop/GD32VW553/V1_MQTT_OK/GD32VW55X_Wifi_BLE_SDK/GD32VW55x_RELEASE_V1.0.2/MSDK/cloud/alicloud/src/services/dev_bind\awss_report.c ****     if (elem == NULL || len <= 0 || len >= OS_MAX_SSID_LEN) {
 1209              		.loc 2 171 10
 1210 00c6 2AD0     		sw	a0,32(sp)
 172:C:/Users/stapi/OneDrive/Desktop/GD32VW553/V1_MQTT_OK/GD32VW55X_Wifi_BLE_SDK/GD32VW55x_RELEASE_V1.0.2/MSDK/cloud/alicloud/src/services/dev_bind\awss_report.c ****         goto ONLINE_SWITCHAP_FAIL;
 1211              		.loc 2 172 5 is_stmt 1
 171:C:/Users/stapi/OneDrive/Desktop/GD32VW553/V1_MQTT_OK/GD32VW55X_Wifi_BLE_SDK/GD32VW55x_RELEASE_V1.0.2/MSDK/cloud/alicloud/src/services/dev_bind\awss_report.c ****     if (elem == NULL || len <= 0 || len >= OS_MAX_SSID_LEN) {
 1212              		.loc 2 171 12 is_stmt 0
 1213 00c8 AA8B     		mv	s7,a0
 172:C:/Users/stapi/OneDrive/Desktop/GD32VW553/V1_MQTT_OK/GD32VW55X_Wifi_BLE_SDK/GD32VW55x_RELEASE_V1.0.2/MSDK/cloud/alicloud/src/services/dev_bind\awss_report.c ****         goto ONLINE_SWITCHAP_FAIL;
 1214              		.loc 2 172 8
 1215 00ca 6306052A 		beq	a0,zero,.L45
 172:C:/Users/stapi/OneDrive/Desktop/GD32VW553/V1_MQTT_OK/GD32VW55X_Wifi_BLE_SDK/GD32VW55x_RELEASE_V1.0.2/MSDK/cloud/alicloud/src/services/dev_bind\awss_report.c ****         goto ONLINE_SWITCHAP_FAIL;
 1216              		.loc 2 172 22 discriminator 1
 1217 00ce 724C     		lw	s8,28(sp)
 1218 00d0 FD47     		li	a5,31
 1219 00d2 1307FCFF 		addi	a4,s8,-1
 1220 00d6 63E0E72A 		bgtu	a4,a5,.L45
 176:C:/Users/stapi/OneDrive/Desktop/GD32VW553/V1_MQTT_OK/GD32VW55X_Wifi_BLE_SDK/GD32VW55x_RELEASE_V1.0.2/MSDK/cloud/alicloud/src/services/dev_bind\awss_report.c ****     memcpy(switchap_ssid, elem, len);
 1221              		.loc 2 176 5 is_stmt 1
 1222 00da 13061002 		li	a2,33
 1223 00de 8145     		li	a1,0
 1224 00e0 13850A00 		addi	a0,s5,%lo(.LANCHOR10)
 1225 00e4 97000000 		call	memset
 1225      E7800000 
 1226              	.LVL102:
 177:C:/Users/stapi/OneDrive/Desktop/GD32VW553/V1_MQTT_OK/GD32VW55X_Wifi_BLE_SDK/GD32VW55x_RELEASE_V1.0.2/MSDK/cloud/alicloud/src/services/dev_bind\awss_report.c **** 
 1227              		.loc 2 177 5
 1228 00ec DE85     		mv	a1,s7
 1229 00ee 6286     		mv	a2,s8
 1230 00f0 13850A00 		addi	a0,s5,%lo(.LANCHOR10)
 1231 00f4 97000000 		call	memcpy
 1231      E7800000 
 1232              	.LVL103:
 179:C:/Users/stapi/OneDrive/Desktop/GD32VW553/V1_MQTT_OK/GD32VW55X_Wifi_BLE_SDK/GD32VW55x_RELEASE_V1.0.2/MSDK/cloud/alicloud/src/services/dev_bind\awss_report.c ****     elem = json_get_value_by_name(awss_info, awss_info_len, AWSS_PASSWD, &len, NULL);
 1233              		.loc 2 179 5
 180:C:/Users/stapi/OneDrive/Desktop/GD32VW553/V1_MQTT_OK/GD32VW55X_Wifi_BLE_SDK/GD32VW55x_RELEASE_V1.0.2/MSDK/cloud/alicloud/src/services/dev_bind\awss_report.c ****     if (elem == NULL || len <= 0 || len >= OS_MAX_PASSWD_LEN) {
 1234              		.loc 2 180 12 is_stmt 0
 1235 00fc A255     		lw	a1,40(sp)
 1236 00fe 37060000 		lui	a2,%hi(.LC29)
 1237 0102 0147     		li	a4,0
 1238 0104 7408     		addi	a3,sp,28
 1239 0106 13060600 		addi	a2,a2,%lo(.LC29)
 1240 010a 4E85     		mv	a0,s3
 179:C:/Users/stapi/OneDrive/Desktop/GD32VW553/V1_MQTT_OK/GD32VW55X_Wifi_BLE_SDK/GD32VW55x_RELEASE_V1.0.2/MSDK/cloud/alicloud/src/services/dev_bind\awss_report.c ****     elem = json_get_value_by_name(awss_info, awss_info_len, AWSS_PASSWD, &len, NULL);
 1241              		.loc 2 179 9
 1242 010c 02CE     		sw	zero,28(sp)
 180:C:/Users/stapi/OneDrive/Desktop/GD32VW553/V1_MQTT_OK/GD32VW55X_Wifi_BLE_SDK/GD32VW55x_RELEASE_V1.0.2/MSDK/cloud/alicloud/src/services/dev_bind\awss_report.c ****     if (elem == NULL || len <= 0 || len >= OS_MAX_PASSWD_LEN) {
 1243              		.loc 2 180 5 is_stmt 1
 180:C:/Users/stapi/OneDrive/Desktop/GD32VW553/V1_MQTT_OK/GD32VW55X_Wifi_BLE_SDK/GD32VW55x_RELEASE_V1.0.2/MSDK/cloud/alicloud/src/services/dev_bind\awss_report.c ****     if (elem == NULL || len <= 0 || len >= OS_MAX_PASSWD_LEN) {
 1244              		.loc 2 180 12 is_stmt 0
 1245 010e 97000000 		call	json_get_value_by_name
 1245      E7800000 
 1246              	.LVL104:
 180:C:/Users/stapi/OneDrive/Desktop/GD32VW553/V1_MQTT_OK/GD32VW55X_Wifi_BLE_SDK/GD32VW55x_RELEASE_V1.0.2/MSDK/cloud/alicloud/src/services/dev_bind\awss_report.c ****     if (elem == NULL || len <= 0 || len >= OS_MAX_PASSWD_LEN) {
 1247              		.loc 2 180 10
 1248 0116 2AD0     		sw	a0,32(sp)
 181:C:/Users/stapi/OneDrive/Desktop/GD32VW553/V1_MQTT_OK/GD32VW55X_Wifi_BLE_SDK/GD32VW55x_RELEASE_V1.0.2/MSDK/cloud/alicloud/src/services/dev_bind\awss_report.c ****         goto ONLINE_SWITCHAP_FAIL;
 1249              		.loc 2 181 5 is_stmt 1
 180:C:/Users/stapi/OneDrive/Desktop/GD32VW553/V1_MQTT_OK/GD32VW55X_Wifi_BLE_SDK/GD32VW55x_RELEASE_V1.0.2/MSDK/cloud/alicloud/src/services/dev_bind\awss_report.c ****     if (elem == NULL || len <= 0 || len >= OS_MAX_PASSWD_LEN) {
 1250              		.loc 2 180 12 is_stmt 0
 1251 0118 AA8B     		mv	s7,a0
 181:C:/Users/stapi/OneDrive/Desktop/GD32VW553/V1_MQTT_OK/GD32VW55X_Wifi_BLE_SDK/GD32VW55x_RELEASE_V1.0.2/MSDK/cloud/alicloud/src/services/dev_bind\awss_report.c ****         goto ONLINE_SWITCHAP_FAIL;
 1252              		.loc 2 181 8
 1253 011a 630E0524 		beq	a0,zero,.L45
 181:C:/Users/stapi/OneDrive/Desktop/GD32VW553/V1_MQTT_OK/GD32VW55X_Wifi_BLE_SDK/GD32VW55x_RELEASE_V1.0.2/MSDK/cloud/alicloud/src/services/dev_bind\awss_report.c ****         goto ONLINE_SWITCHAP_FAIL;
 1254              		.loc 2 181 22 discriminator 1
 1255 011e 724C     		lw	s8,28(sp)
 1256 0120 9307F003 		li	a5,63
 1257 0124 1307FCFF 		addi	a4,s8,-1
 1258 0128 63E7E724 		bgtu	a4,a5,.L45
 185:C:/Users/stapi/OneDrive/Desktop/GD32VW553/V1_MQTT_OK/GD32VW55X_Wifi_BLE_SDK/GD32VW55x_RELEASE_V1.0.2/MSDK/cloud/alicloud/src/services/dev_bind\awss_report.c ****     memcpy(switchap_passwd, elem, len);
 1259              		.loc 2 185 5 is_stmt 1
 1260 012c 13061004 		li	a2,65
 1261 0130 8145     		li	a1,0
 1262 0132 13050A00 		addi	a0,s4,%lo(.LANCHOR9)
 1263 0136 97000000 		call	memset
 1263      E7800000 
 1264              	.LVL105:
 186:C:/Users/stapi/OneDrive/Desktop/GD32VW553/V1_MQTT_OK/GD32VW55X_Wifi_BLE_SDK/GD32VW55x_RELEASE_V1.0.2/MSDK/cloud/alicloud/src/services/dev_bind\awss_report.c **** 
 1265              		.loc 2 186 5
 1266 013e 6286     		mv	a2,s8
 1267 0140 DE85     		mv	a1,s7
 1268 0142 13050A00 		addi	a0,s4,%lo(.LANCHOR9)
 1269 0146 97000000 		call	memcpy
 1269      E7800000 
 1270              	.LVL106:
 188:C:/Users/stapi/OneDrive/Desktop/GD32VW553/V1_MQTT_OK/GD32VW55X_Wifi_BLE_SDK/GD32VW55x_RELEASE_V1.0.2/MSDK/cloud/alicloud/src/services/dev_bind\awss_report.c ****     memset(switchap_bssid, 0, sizeof(switchap_bssid));
 1271              		.loc 2 188 5
 190:C:/Users/stapi/OneDrive/Desktop/GD32VW553/V1_MQTT_OK/GD32VW55X_Wifi_BLE_SDK/GD32VW55x_RELEASE_V1.0.2/MSDK/cloud/alicloud/src/services/dev_bind\awss_report.c **** 
 1272              		.loc 2 190 12 is_stmt 0
 1273 014e A255     		lw	a1,40(sp)
 1274 0150 37060000 		lui	a2,%hi(.LC30)
 1275 0154 0147     		li	a4,0
 1276 0156 7408     		addi	a3,sp,28
 1277 0158 13060600 		addi	a2,a2,%lo(.LC30)
 1278 015c 4E85     		mv	a0,s3
 188:C:/Users/stapi/OneDrive/Desktop/GD32VW553/V1_MQTT_OK/GD32VW55X_Wifi_BLE_SDK/GD32VW55x_RELEASE_V1.0.2/MSDK/cloud/alicloud/src/services/dev_bind\awss_report.c ****     memset(switchap_bssid, 0, sizeof(switchap_bssid));
 1279              		.loc 2 188 9
 1280 015e 02CE     		sw	zero,28(sp)
 189:C:/Users/stapi/OneDrive/Desktop/GD32VW553/V1_MQTT_OK/GD32VW55X_Wifi_BLE_SDK/GD32VW55x_RELEASE_V1.0.2/MSDK/cloud/alicloud/src/services/dev_bind\awss_report.c ****     elem = json_get_value_by_name(awss_info, awss_info_len, AWSS_BSSID, &len, NULL);
 1281              		.loc 2 189 5 is_stmt 1
 1282 0160 23A00400 		sw	zero,0(s1)
 1283 0164 23920400 		sh	zero,4(s1)
 190:C:/Users/stapi/OneDrive/Desktop/GD32VW553/V1_MQTT_OK/GD32VW55X_Wifi_BLE_SDK/GD32VW55x_RELEASE_V1.0.2/MSDK/cloud/alicloud/src/services/dev_bind\awss_report.c **** 
 1284              		.loc 2 190 5
 190:C:/Users/stapi/OneDrive/Desktop/GD32VW553/V1_MQTT_OK/GD32VW55X_Wifi_BLE_SDK/GD32VW55x_RELEASE_V1.0.2/MSDK/cloud/alicloud/src/services/dev_bind\awss_report.c **** 
 1285              		.loc 2 190 12 is_stmt 0
 1286 0168 97000000 		call	json_get_value_by_name
 1286      E7800000 
 1287              	.LVL107:
 190:C:/Users/stapi/OneDrive/Desktop/GD32VW553/V1_MQTT_OK/GD32VW55X_Wifi_BLE_SDK/GD32VW55x_RELEASE_V1.0.2/MSDK/cloud/alicloud/src/services/dev_bind\awss_report.c **** 
 1288              		.loc 2 190 10
 1289 0170 2AD0     		sw	a0,32(sp)
 192:C:/Users/stapi/OneDrive/Desktop/GD32VW553/V1_MQTT_OK/GD32VW55X_Wifi_BLE_SDK/GD32VW55x_RELEASE_V1.0.2/MSDK/cloud/alicloud/src/services/dev_bind\awss_report.c ****         uint8_t i = 0;
 1290              		.loc 2 192 5 is_stmt 1
 192:C:/Users/stapi/OneDrive/Desktop/GD32VW553/V1_MQTT_OK/GD32VW55X_Wifi_BLE_SDK/GD32VW55x_RELEASE_V1.0.2/MSDK/cloud/alicloud/src/services/dev_bind\awss_report.c ****         uint8_t i = 0;
 1291              		.loc 2 192 8 is_stmt 0
 1292 0172 1DCD     		beq	a0,zero,.L46
 192:C:/Users/stapi/OneDrive/Desktop/GD32VW553/V1_MQTT_OK/GD32VW55X_Wifi_BLE_SDK/GD32VW55x_RELEASE_V1.0.2/MSDK/cloud/alicloud/src/services/dev_bind\awss_report.c ****         uint8_t i = 0;
 1293              		.loc 2 192 22 discriminator 1
 1294 0174 7247     		lw	a4,28(sp)
 1295 0176 C547     		li	a5,17
 1296 0178 631CF702 		bne	a4,a5,.L46
 1297              	.LBB63:
 193:C:/Users/stapi/OneDrive/Desktop/GD32VW553/V1_MQTT_OK/GD32VW55X_Wifi_BLE_SDK/GD32VW55x_RELEASE_V1.0.2/MSDK/cloud/alicloud/src/services/dev_bind\awss_report.c ****         char *bssid_str = elem;
 1298              		.loc 2 193 9 is_stmt 1
 1299              	.LVL108:
 194:C:/Users/stapi/OneDrive/Desktop/GD32VW553/V1_MQTT_OK/GD32VW55X_Wifi_BLE_SDK/GD32VW55x_RELEASE_V1.0.2/MSDK/cloud/alicloud/src/services/dev_bind\awss_report.c ****         // convert bssid string to bssid value
 1300              		.loc 2 194 9
 194:C:/Users/stapi/OneDrive/Desktop/GD32VW553/V1_MQTT_OK/GD32VW55X_Wifi_BLE_SDK/GD32VW55x_RELEASE_V1.0.2/MSDK/cloud/alicloud/src/services/dev_bind\awss_report.c ****         // convert bssid string to bssid value
 1301              		.loc 2 194 15 is_stmt 0
 1302 017c AAD0     		sw	a0,96(sp)
 196:C:/Users/stapi/OneDrive/Desktop/GD32VW553/V1_MQTT_OK/GD32VW55X_Wifi_BLE_SDK/GD32VW55x_RELEASE_V1.0.2/MSDK/cloud/alicloud/src/services/dev_bind\awss_report.c ****             switchap_bssid[i ++] = (uint8_t)strtol(bssid_str, &bssid_str, 16);
 1303              		.loc 2 196 9 is_stmt 1
 196:C:/Users/stapi/OneDrive/Desktop/GD32VW553/V1_MQTT_OK/GD32VW55X_Wifi_BLE_SDK/GD32VW55x_RELEASE_V1.0.2/MSDK/cloud/alicloud/src/services/dev_bind\awss_report.c ****             switchap_bssid[i ++] = (uint8_t)strtol(bssid_str, &bssid_str, 16);
 1304              		.loc 2 196 15
 194:C:/Users/stapi/OneDrive/Desktop/GD32VW553/V1_MQTT_OK/GD32VW55X_Wifi_BLE_SDK/GD32VW55x_RELEASE_V1.0.2/MSDK/cloud/alicloud/src/services/dev_bind\awss_report.c ****         // convert bssid string to bssid value
 1305              		.loc 2 194 15 is_stmt 0
 1306 017e 814B     		li	s7,0
 202:C:/Users/stapi/OneDrive/Desktop/GD32VW553/V1_MQTT_OK/GD32VW55X_Wifi_BLE_SDK/GD32VW55x_RELEASE_V1.0.2/MSDK/cloud/alicloud/src/services/dev_bind\awss_report.c ****                 memset(switchap_bssid, 0, sizeof(switchap_bssid));
 1307              		.loc 2 202 16
 1308 0180 C54C     		li	s9,17
 196:C:/Users/stapi/OneDrive/Desktop/GD32VW553/V1_MQTT_OK/GD32VW55X_Wifi_BLE_SDK/GD32VW55x_RELEASE_V1.0.2/MSDK/cloud/alicloud/src/services/dev_bind\awss_report.c ****             switchap_bssid[i ++] = (uint8_t)strtol(bssid_str, &bssid_str, 16);
 1309              		.loc 2 196 15
 1310 0182 194C     		li	s8,6
 1311              	.LVL109:
 1312              	.L49:
 197:C:/Users/stapi/OneDrive/Desktop/GD32VW553/V1_MQTT_OK/GD32VW55X_Wifi_BLE_SDK/GD32VW55x_RELEASE_V1.0.2/MSDK/cloud/alicloud/src/services/dev_bind\awss_report.c ****             ++ bssid_str;
 1313              		.loc 2 197 13 is_stmt 1
 197:C:/Users/stapi/OneDrive/Desktop/GD32VW553/V1_MQTT_OK/GD32VW55X_Wifi_BLE_SDK/GD32VW55x_RELEASE_V1.0.2/MSDK/cloud/alicloud/src/services/dev_bind\awss_report.c ****             ++ bssid_str;
 1314              		.loc 2 197 45 is_stmt 0
 1315 0184 0655     		lw	a0,96(sp)
 1316 0186 4146     		li	a2,16
 1317 0188 8C10     		addi	a1,sp,96
 1318 018a 97000000 		call	strtol
 1318      E7800000 
 1319              	.LVL110:
 197:C:/Users/stapi/OneDrive/Desktop/GD32VW553/V1_MQTT_OK/GD32VW55X_Wifi_BLE_SDK/GD32VW55x_RELEASE_V1.0.2/MSDK/cloud/alicloud/src/services/dev_bind\awss_report.c ****             ++ bssid_str;
 1320              		.loc 2 197 34
 1321 0192 B3877401 		add	a5,s1,s7
 197:C:/Users/stapi/OneDrive/Desktop/GD32VW553/V1_MQTT_OK/GD32VW55X_Wifi_BLE_SDK/GD32VW55x_RELEASE_V1.0.2/MSDK/cloud/alicloud/src/services/dev_bind\awss_report.c ****             ++ bssid_str;
 1322              		.loc 2 197 36
 1323 0196 2380A700 		sb	a0,0(a5)
 198:C:/Users/stapi/OneDrive/Desktop/GD32VW553/V1_MQTT_OK/GD32VW55X_Wifi_BLE_SDK/GD32VW55x_RELEASE_V1.0.2/MSDK/cloud/alicloud/src/services/dev_bind\awss_report.c ****             /*
 1324              		.loc 2 198 13 is_stmt 1
 1325 019a 8657     		lw	a5,96(sp)
 202:C:/Users/stapi/OneDrive/Desktop/GD32VW553/V1_MQTT_OK/GD32VW55X_Wifi_BLE_SDK/GD32VW55x_RELEASE_V1.0.2/MSDK/cloud/alicloud/src/services/dev_bind\awss_report.c ****                 memset(switchap_bssid, 0, sizeof(switchap_bssid));
 1326              		.loc 2 202 17 is_stmt 0
 1327 019c 0257     		lw	a4,32(sp)
 198:C:/Users/stapi/OneDrive/Desktop/GD32VW553/V1_MQTT_OK/GD32VW55X_Wifi_BLE_SDK/GD32VW55x_RELEASE_V1.0.2/MSDK/cloud/alicloud/src/services/dev_bind\awss_report.c ****             /*
 1328              		.loc 2 198 13
 1329 019e 8507     		addi	a5,a5,1
 1330 01a0 BED0     		sw	a5,96(sp)
 202:C:/Users/stapi/OneDrive/Desktop/GD32VW553/V1_MQTT_OK/GD32VW55X_Wifi_BLE_SDK/GD32VW55x_RELEASE_V1.0.2/MSDK/cloud/alicloud/src/services/dev_bind\awss_report.c ****                 memset(switchap_bssid, 0, sizeof(switchap_bssid));
 1331              		.loc 2 202 13 is_stmt 1
 202:C:/Users/stapi/OneDrive/Desktop/GD32VW553/V1_MQTT_OK/GD32VW55X_Wifi_BLE_SDK/GD32VW55x_RELEASE_V1.0.2/MSDK/cloud/alicloud/src/services/dev_bind\awss_report.c ****                 memset(switchap_bssid, 0, sizeof(switchap_bssid));
 1332              		.loc 2 202 17 is_stmt 0
 1333 01a2 998F     		sub	a5,a5,a4
 202:C:/Users/stapi/OneDrive/Desktop/GD32VW553/V1_MQTT_OK/GD32VW55X_Wifi_BLE_SDK/GD32VW55x_RELEASE_V1.0.2/MSDK/cloud/alicloud/src/services/dev_bind\awss_report.c ****                 memset(switchap_bssid, 0, sizeof(switchap_bssid));
 1334              		.loc 2 202 16
 1335 01a4 63F4FC1C 		bleu	a5,s9,.L47
 203:C:/Users/stapi/OneDrive/Desktop/GD32VW553/V1_MQTT_OK/GD32VW55X_Wifi_BLE_SDK/GD32VW55x_RELEASE_V1.0.2/MSDK/cloud/alicloud/src/services/dev_bind\awss_report.c ****                 break;
 1336              		.loc 2 203 17 is_stmt 1
 1337 01a8 23A00400 		sw	zero,0(s1)
 1338 01ac 23920400 		sh	zero,4(s1)
 204:C:/Users/stapi/OneDrive/Desktop/GD32VW553/V1_MQTT_OK/GD32VW55X_Wifi_BLE_SDK/GD32VW55x_RELEASE_V1.0.2/MSDK/cloud/alicloud/src/services/dev_bind\awss_report.c ****             }
 1339              		.loc 2 204 17
 1340              	.LVL111:
 1341              	.L46:
 1342              	.LBE63:
 209:C:/Users/stapi/OneDrive/Desktop/GD32VW553/V1_MQTT_OK/GD32VW55X_Wifi_BLE_SDK/GD32VW55x_RELEASE_V1.0.2/MSDK/cloud/alicloud/src/services/dev_bind\awss_report.c ****     elem = json_get_value_by_name(awss_info, awss_info_len, AWSS_SWITCH_MODE, &len, NULL);
 1343              		.loc 2 209 5
 210:C:/Users/stapi/OneDrive/Desktop/GD32VW553/V1_MQTT_OK/GD32VW55X_Wifi_BLE_SDK/GD32VW55x_RELEASE_V1.0.2/MSDK/cloud/alicloud/src/services/dev_bind\awss_report.c ****     if (elem != NULL && (elem[0] == '0' || elem[0] == 0)) {
 1344              		.loc 2 210 12 is_stmt 0
 1345 01b0 A255     		lw	a1,40(sp)
 1346 01b2 37060000 		lui	a2,%hi(.LC31)
 1347 01b6 0147     		li	a4,0
 1348 01b8 7408     		addi	a3,sp,28
 1349 01ba 13060600 		addi	a2,a2,%lo(.LC31)
 1350 01be 4E85     		mv	a0,s3
 209:C:/Users/stapi/OneDrive/Desktop/GD32VW553/V1_MQTT_OK/GD32VW55X_Wifi_BLE_SDK/GD32VW55x_RELEASE_V1.0.2/MSDK/cloud/alicloud/src/services/dev_bind\awss_report.c ****     elem = json_get_value_by_name(awss_info, awss_info_len, AWSS_SWITCH_MODE, &len, NULL);
 1351              		.loc 2 209 9
 1352 01c0 02CE     		sw	zero,28(sp)
 210:C:/Users/stapi/OneDrive/Desktop/GD32VW553/V1_MQTT_OK/GD32VW55X_Wifi_BLE_SDK/GD32VW55x_RELEASE_V1.0.2/MSDK/cloud/alicloud/src/services/dev_bind\awss_report.c ****     if (elem != NULL && (elem[0] == '0' || elem[0] == 0)) {
 1353              		.loc 2 210 5 is_stmt 1
 210:C:/Users/stapi/OneDrive/Desktop/GD32VW553/V1_MQTT_OK/GD32VW55X_Wifi_BLE_SDK/GD32VW55x_RELEASE_V1.0.2/MSDK/cloud/alicloud/src/services/dev_bind\awss_report.c ****     if (elem != NULL && (elem[0] == '0' || elem[0] == 0)) {
 1354              		.loc 2 210 12 is_stmt 0
 1355 01c2 97000000 		call	json_get_value_by_name
 1355      E7800000 
 1356              	.LVL112:
 210:C:/Users/stapi/OneDrive/Desktop/GD32VW553/V1_MQTT_OK/GD32VW55X_Wifi_BLE_SDK/GD32VW55x_RELEASE_V1.0.2/MSDK/cloud/alicloud/src/services/dev_bind\awss_report.c ****     if (elem != NULL && (elem[0] == '0' || elem[0] == 0)) {
 1357              		.loc 2 210 10
 1358 01ca 2AD0     		sw	a0,32(sp)
 211:C:/Users/stapi/OneDrive/Desktop/GD32VW553/V1_MQTT_OK/GD32VW55X_Wifi_BLE_SDK/GD32VW55x_RELEASE_V1.0.2/MSDK/cloud/alicloud/src/services/dev_bind\awss_report.c ****         elem = json_get_value_by_name(awss_info, awss_info_len, AWSS_TIMEOUT, &len, NULL);
 1359              		.loc 2 211 5 is_stmt 1
 211:C:/Users/stapi/OneDrive/Desktop/GD32VW553/V1_MQTT_OK/GD32VW55X_Wifi_BLE_SDK/GD32VW55x_RELEASE_V1.0.2/MSDK/cloud/alicloud/src/services/dev_bind\awss_report.c ****         elem = json_get_value_by_name(awss_info, awss_info_len, AWSS_TIMEOUT, &len, NULL);
 1360              		.loc 2 211 8 is_stmt 0
 1361 01cc 0DCD     		beq	a0,zero,.L51
 211:C:/Users/stapi/OneDrive/Desktop/GD32VW553/V1_MQTT_OK/GD32VW55X_Wifi_BLE_SDK/GD32VW55x_RELEASE_V1.0.2/MSDK/cloud/alicloud/src/services/dev_bind\awss_report.c ****         elem = json_get_value_by_name(awss_info, awss_info_len, AWSS_TIMEOUT, &len, NULL);
 1362              		.loc 2 211 22 discriminator 1
 1363 01ce 13070003 		li	a4,48
 211:C:/Users/stapi/OneDrive/Desktop/GD32VW553/V1_MQTT_OK/GD32VW55X_Wifi_BLE_SDK/GD32VW55x_RELEASE_V1.0.2/MSDK/cloud/alicloud/src/services/dev_bind\awss_report.c ****         elem = json_get_value_by_name(awss_info, awss_info_len, AWSS_TIMEOUT, &len, NULL);
 1364              		.loc 2 211 30 discriminator 1
 1365 01d2 83070500 		lb	a5,0(a0)
 211:C:/Users/stapi/OneDrive/Desktop/GD32VW553/V1_MQTT_OK/GD32VW55X_Wifi_BLE_SDK/GD32VW55x_RELEASE_V1.0.2/MSDK/cloud/alicloud/src/services/dev_bind\awss_report.c ****         elem = json_get_value_by_name(awss_info, awss_info_len, AWSS_TIMEOUT, &len, NULL);
 1366              		.loc 2 211 22 discriminator 1
 1367 01d6 6383E700 		beq	a5,a4,.L52
 211:C:/Users/stapi/OneDrive/Desktop/GD32VW553/V1_MQTT_OK/GD32VW55X_Wifi_BLE_SDK/GD32VW55x_RELEASE_V1.0.2/MSDK/cloud/alicloud/src/services/dev_bind\awss_report.c ****         elem = json_get_value_by_name(awss_info, awss_info_len, AWSS_TIMEOUT, &len, NULL);
 1368              		.loc 2 211 41 discriminator 2
 1369 01da 95E7     		bne	a5,zero,.L51
 1370              	.L52:
 212:C:/Users/stapi/OneDrive/Desktop/GD32VW553/V1_MQTT_OK/GD32VW55X_Wifi_BLE_SDK/GD32VW55x_RELEASE_V1.0.2/MSDK/cloud/alicloud/src/services/dev_bind\awss_report.c ****         if (elem) {
 1371              		.loc 2 212 9 is_stmt 1
 212:C:/Users/stapi/OneDrive/Desktop/GD32VW553/V1_MQTT_OK/GD32VW55X_Wifi_BLE_SDK/GD32VW55x_RELEASE_V1.0.2/MSDK/cloud/alicloud/src/services/dev_bind\awss_report.c ****         if (elem) {
 1372              		.loc 2 212 16 is_stmt 0
 1373 01dc A255     		lw	a1,40(sp)
 1374 01de 37060000 		lui	a2,%hi(.LC32)
 1375 01e2 0147     		li	a4,0
 1376 01e4 7408     		addi	a3,sp,28
 1377 01e6 13060600 		addi	a2,a2,%lo(.LC32)
 1378 01ea 4E85     		mv	a0,s3
 1379 01ec 97000000 		call	json_get_value_by_name
 1379      E7800000 
 1380              	.LVL113:
 212:C:/Users/stapi/OneDrive/Desktop/GD32VW553/V1_MQTT_OK/GD32VW55X_Wifi_BLE_SDK/GD32VW55x_RELEASE_V1.0.2/MSDK/cloud/alicloud/src/services/dev_bind\awss_report.c ****         if (elem) {
 1381              		.loc 2 212 14
 1382 01f4 2AD0     		sw	a0,32(sp)
 213:C:/Users/stapi/OneDrive/Desktop/GD32VW553/V1_MQTT_OK/GD32VW55X_Wifi_BLE_SDK/GD32VW55x_RELEASE_V1.0.2/MSDK/cloud/alicloud/src/services/dev_bind\awss_report.c ****             timeout = (int)strtol(elem, &elem, 16);
 1383              		.loc 2 213 9 is_stmt 1
 213:C:/Users/stapi/OneDrive/Desktop/GD32VW553/V1_MQTT_OK/GD32VW55X_Wifi_BLE_SDK/GD32VW55x_RELEASE_V1.0.2/MSDK/cloud/alicloud/src/services/dev_bind\awss_report.c ****             timeout = (int)strtol(elem, &elem, 16);
 1384              		.loc 2 213 12 is_stmt 0
 1385 01f6 01C9     		beq	a0,zero,.L51
 214:C:/Users/stapi/OneDrive/Desktop/GD32VW553/V1_MQTT_OK/GD32VW55X_Wifi_BLE_SDK/GD32VW55x_RELEASE_V1.0.2/MSDK/cloud/alicloud/src/services/dev_bind\awss_report.c ****         }
 1386              		.loc 2 214 13 is_stmt 1
 214:C:/Users/stapi/OneDrive/Desktop/GD32VW553/V1_MQTT_OK/GD32VW55X_Wifi_BLE_SDK/GD32VW55x_RELEASE_V1.0.2/MSDK/cloud/alicloud/src/services/dev_bind\awss_report.c ****         }
 1387              		.loc 2 214 28 is_stmt 0
 1388 01f8 4146     		li	a2,16
 1389 01fa 0C10     		addi	a1,sp,32
 1390 01fc 97000000 		call	strtol
 1390      E7800000 
 1391              	.LVL114:
 1392 0204 2A89     		mv	s2,a0
 1393              	.LVL115:
 1394              	.L51:
 218:C:/Users/stapi/OneDrive/Desktop/GD32VW553/V1_MQTT_OK/GD32VW55X_Wifi_BLE_SDK/GD32VW55x_RELEASE_V1.0.2/MSDK/cloud/alicloud/src/services/dev_bind\awss_report.c ****         // reduce stack used
 1395              		.loc 2 218 5 is_stmt 1
 1396              	.LBB64:
 220:C:/Users/stapi/OneDrive/Desktop/GD32VW553/V1_MQTT_OK/GD32VW55X_Wifi_BLE_SDK/GD32VW55x_RELEASE_V1.0.2/MSDK/cloud/alicloud/src/services/dev_bind\awss_report.c ****         char id_str[MSG_REQ_ID_LEN] = {0};
 1397              		.loc 2 220 9
 221:C:/Users/stapi/OneDrive/Desktop/GD32VW553/V1_MQTT_OK/GD32VW55X_Wifi_BLE_SDK/GD32VW55x_RELEASE_V1.0.2/MSDK/cloud/alicloud/src/services/dev_bind\awss_report.c ****         id = json_get_value_by_name(payload, payload_len, AWSS_JSON_ID, &len, NULL);
 1398              		.loc 2 221 9
 222:C:/Users/stapi/OneDrive/Desktop/GD32VW553/V1_MQTT_OK/GD32VW55X_Wifi_BLE_SDK/GD32VW55x_RELEASE_V1.0.2/MSDK/cloud/alicloud/src/services/dev_bind\awss_report.c ****         memcpy(id_str, id, len > MSG_REQ_ID_LEN - 1 ? MSG_REQ_ID_LEN - 1 : len);
 1399              		.loc 2 222 14 is_stmt 0
 1400 0206 B255     		lw	a1,44(sp)
 1401 0208 4255     		lw	a0,48(sp)
 1402 020a 37060000 		lui	a2,%hi(.LC21)
 1403 020e 0147     		li	a4,0
 1404 0210 7408     		addi	a3,sp,28
 1405 0212 13060600 		addi	a2,a2,%lo(.LC21)
 221:C:/Users/stapi/OneDrive/Desktop/GD32VW553/V1_MQTT_OK/GD32VW55X_Wifi_BLE_SDK/GD32VW55x_RELEASE_V1.0.2/MSDK/cloud/alicloud/src/services/dev_bind\awss_report.c ****         id = json_get_value_by_name(payload, payload_len, AWSS_JSON_ID, &len, NULL);
 1406              		.loc 2 221 14
 1407 0216 82D0     		sw	zero,96(sp)
 1408 0218 82D2     		sw	zero,100(sp)
 1409 021a 82D4     		sw	zero,104(sp)
 1410 021c 82D6     		sw	zero,108(sp)
 222:C:/Users/stapi/OneDrive/Desktop/GD32VW553/V1_MQTT_OK/GD32VW55X_Wifi_BLE_SDK/GD32VW55x_RELEASE_V1.0.2/MSDK/cloud/alicloud/src/services/dev_bind\awss_report.c ****         memcpy(id_str, id, len > MSG_REQ_ID_LEN - 1 ? MSG_REQ_ID_LEN - 1 : len);
 1411              		.loc 2 222 9 is_stmt 1
 222:C:/Users/stapi/OneDrive/Desktop/GD32VW553/V1_MQTT_OK/GD32VW55X_Wifi_BLE_SDK/GD32VW55x_RELEASE_V1.0.2/MSDK/cloud/alicloud/src/services/dev_bind\awss_report.c ****         memcpy(id_str, id, len > MSG_REQ_ID_LEN - 1 ? MSG_REQ_ID_LEN - 1 : len);
 1412              		.loc 2 222 14 is_stmt 0
 1413 021e 97000000 		call	json_get_value_by_name
 1413      E7800000 
 1414              	.LVL116:
 223:C:/Users/stapi/OneDrive/Desktop/GD32VW553/V1_MQTT_OK/GD32VW55X_Wifi_BLE_SDK/GD32VW55x_RELEASE_V1.0.2/MSDK/cloud/alicloud/src/services/dev_bind\awss_report.c ****         awss_build_packet(AWSS_CMP_PKT_TYPE_RSP, id_str, ILOP_VER, METHOD_EVENT_ZC_SWITCHAP, "{}", 
 1415              		.loc 2 223 74
 1416 0226 F247     		lw	a5,28(sp)
 222:C:/Users/stapi/OneDrive/Desktop/GD32VW553/V1_MQTT_OK/GD32VW55X_Wifi_BLE_SDK/GD32VW55x_RELEASE_V1.0.2/MSDK/cloud/alicloud/src/services/dev_bind\awss_report.c ****         memcpy(id_str, id, len > MSG_REQ_ID_LEN - 1 ? MSG_REQ_ID_LEN - 1 : len);
 1417              		.loc 2 222 14
 1418 0228 AA85     		mv	a1,a0
 1419              	.LVL117:
 223:C:/Users/stapi/OneDrive/Desktop/GD32VW553/V1_MQTT_OK/GD32VW55X_Wifi_BLE_SDK/GD32VW55x_RELEASE_V1.0.2/MSDK/cloud/alicloud/src/services/dev_bind\awss_report.c ****         awss_build_packet(AWSS_CMP_PKT_TYPE_RSP, id_str, ILOP_VER, METHOD_EVENT_ZC_SWITCHAP, "{}", 
 1420              		.loc 2 223 9 is_stmt 1
 1421 022a 3D46     		li	a2,15
 1422 022c 8810     		addi	a0,sp,96
 1423              	.LVL118:
 1424 022e 3346F60A 		min	a2,a2,a5
 1425 0232 97000000 		call	memcpy
 1425      E7800000 
 1426              	.LVL119:
 224:C:/Users/stapi/OneDrive/Desktop/GD32VW553/V1_MQTT_OK/GD32VW55X_Wifi_BLE_SDK/GD32VW55x_RELEASE_V1.0.2/MSDK/cloud/alicloud/src/services/dev_bind\awss_report.c ****     } while (0);
 1427              		.loc 2 224 9
 1428 023a 37070000 		lui	a4,%hi(.LC33)
 1429 023e B7060000 		lui	a3,%hi(.LC34)
 1430 0242 37060000 		lui	a2,%hi(.LC9)
 1431 0246 93084102 		addi	a7,sp,36
 1432 024a 2288     		mv	a6,s0
 1433 024c 9307800C 		li	a5,200
 1434 0250 13070700 		addi	a4,a4,%lo(.LC33)
 1435 0254 93860600 		addi	a3,a3,%lo(.LC34)
 1436 0258 13060600 		addi	a2,a2,%lo(.LC9)
 1437 025c 8C10     		addi	a1,sp,96
 1438 025e 0945     		li	a0,2
 1439 0260 97000000 		call	awss_build_packet
 1439      E7800000 
 1440              	.LVL120:
 1441              	.LBE64:
 225:C:/Users/stapi/OneDrive/Desktop/GD32VW553/V1_MQTT_OK/GD32VW55X_Wifi_BLE_SDK/GD32VW55x_RELEASE_V1.0.2/MSDK/cloud/alicloud/src/services/dev_bind\awss_report.c **** 
 1442              		.loc 2 225 13
 227:C:/Users/stapi/OneDrive/Desktop/GD32VW553/V1_MQTT_OK/GD32VW55X_Wifi_BLE_SDK/GD32VW55x_RELEASE_V1.0.2/MSDK/cloud/alicloud/src/services/dev_bind\awss_report.c ****         char reply[TOPIC_LEN_MAX] = {0};
 1443              		.loc 2 227 5
 1444              	.LBB65:
 228:C:/Users/stapi/OneDrive/Desktop/GD32VW553/V1_MQTT_OK/GD32VW55X_Wifi_BLE_SDK/GD32VW55x_RELEASE_V1.0.2/MSDK/cloud/alicloud/src/services/dev_bind\awss_report.c ****         awss_build_topic(TOPIC_SWITCHAP_REPLY, reply, TOPIC_LEN_MAX);
 1445              		.loc 2 228 9
 228:C:/Users/stapi/OneDrive/Desktop/GD32VW553/V1_MQTT_OK/GD32VW55X_Wifi_BLE_SDK/GD32VW55x_RELEASE_V1.0.2/MSDK/cloud/alicloud/src/services/dev_bind\awss_report.c ****         awss_build_topic(TOPIC_SWITCHAP_REPLY, reply, TOPIC_LEN_MAX);
 1446              		.loc 2 228 14 is_stmt 0
 1447 0268 1306C007 		li	a2,124
 1448 026c 8145     		li	a1,0
 1449 026e C810     		addi	a0,sp,100
 1450 0270 82D0     		sw	zero,96(sp)
 1451 0272 97000000 		call	memset
 1451      E7800000 
 1452              	.LVL121:
 229:C:/Users/stapi/OneDrive/Desktop/GD32VW553/V1_MQTT_OK/GD32VW55X_Wifi_BLE_SDK/GD32VW55x_RELEASE_V1.0.2/MSDK/cloud/alicloud/src/services/dev_bind\awss_report.c ****         awss_cmp_mqtt_send(reply, packet, packet_len, 1);
 1453              		.loc 2 229 9 is_stmt 1
 1454 027a 37050000 		lui	a0,%hi(.LC35)
 1455 027e 13060008 		li	a2,128
 1456 0282 8C10     		addi	a1,sp,96
 1457 0284 13050500 		addi	a0,a0,%lo(.LC35)
 1458 0288 97000000 		call	awss_build_topic
 1458      E7800000 
 1459              	.LVL122:
 230:C:/Users/stapi/OneDrive/Desktop/GD32VW553/V1_MQTT_OK/GD32VW55X_Wifi_BLE_SDK/GD32VW55x_RELEASE_V1.0.2/MSDK/cloud/alicloud/src/services/dev_bind\awss_report.c ****         os_free(packet);
 1460              		.loc 2 230 9
 1461 0290 1256     		lw	a2,36(sp)
 1462 0292 8546     		li	a3,1
 1463 0294 A285     		mv	a1,s0
 1464 0296 8810     		addi	a0,sp,96
 1465 0298 97000000 		call	awss_cmp_mqtt_send
 1465      E7800000 
 1466              	.LVL123:
 231:C:/Users/stapi/OneDrive/Desktop/GD32VW553/V1_MQTT_OK/GD32VW55X_Wifi_BLE_SDK/GD32VW55x_RELEASE_V1.0.2/MSDK/cloud/alicloud/src/services/dev_bind\awss_report.c ****     } while (0);
 1467              		.loc 2 231 9
 1468              	.LBB66:
 1469              	.LBB67:
 394:..\..\..\..\cloud\alicloud\src\services\dev_bind\os/os.h **** }
 1470              		.loc 1 394 5
 1471 02a0 2285     		mv	a0,s0
 1472 02a2 97000000 		call	HAL_Free
 1472      E7800000 
 1473              	.LVL124:
 1474              	.LBE67:
 1475              	.LBE66:
 1476              	.LBE65:
 232:C:/Users/stapi/OneDrive/Desktop/GD32VW553/V1_MQTT_OK/GD32VW55X_Wifi_BLE_SDK/GD32VW55x_RELEASE_V1.0.2/MSDK/cloud/alicloud/src/services/dev_bind\awss_report.c **** 
 1477              		.loc 2 232 13
 237:C:/Users/stapi/OneDrive/Desktop/GD32VW553/V1_MQTT_OK/GD32VW55X_Wifi_BLE_SDK/GD32VW55x_RELEASE_V1.0.2/MSDK/cloud/alicloud/src/services/dev_bind\awss_report.c ****         timeout = 1000;
 1478              		.loc 2 237 5
 1479 02aa 1305803E 		li	a0,1000
 1480              	.LBB68:
 243:C:/Users/stapi/OneDrive/Desktop/GD32VW553/V1_MQTT_OK/GD32VW55X_Wifi_BLE_SDK/GD32VW55x_RELEASE_V1.0.2/MSDK/cloud/alicloud/src/services/dev_bind\awss_report.c ****         os_wifi_get_ap_info(ssid, passwd, bssid);
 1481              		.loc 2 243 14 is_stmt 0
 1482 02ae 7946     		li	a2,30
 1483 02b0 8145     		li	a1,0
 1484 02b2 3369A90A 		max	s2,s2,a0
 1485              	.LVL125:
 1486              	.LBE68:
 241:C:/Users/stapi/OneDrive/Desktop/GD32VW553/V1_MQTT_OK/GD32VW55X_Wifi_BLE_SDK/GD32VW55x_RELEASE_V1.0.2/MSDK/cloud/alicloud/src/services/dev_bind\awss_report.c ****         uint8_t bssid[ETH_ALEN] = {0};
 1487              		.loc 2 241 5 is_stmt 1
 1488              	.LBB71:
 242:C:/Users/stapi/OneDrive/Desktop/GD32VW553/V1_MQTT_OK/GD32VW55X_Wifi_BLE_SDK/GD32VW55x_RELEASE_V1.0.2/MSDK/cloud/alicloud/src/services/dev_bind\awss_report.c ****         char ssid[OS_MAX_SSID_LEN + 1] = {0}, passwd[OS_MAX_PASSWD_LEN + 1] = {0};
 1489              		.loc 2 242 9
 243:C:/Users/stapi/OneDrive/Desktop/GD32VW553/V1_MQTT_OK/GD32VW55X_Wifi_BLE_SDK/GD32VW55x_RELEASE_V1.0.2/MSDK/cloud/alicloud/src/services/dev_bind\awss_report.c ****         os_wifi_get_ap_info(ssid, passwd, bssid);
 1490              		.loc 2 243 14 is_stmt 0
 1491 02b6 8800     		addi	a0,sp,64
 242:C:/Users/stapi/OneDrive/Desktop/GD32VW553/V1_MQTT_OK/GD32VW55X_Wifi_BLE_SDK/GD32VW55x_RELEASE_V1.0.2/MSDK/cloud/alicloud/src/services/dev_bind\awss_report.c ****         char ssid[OS_MAX_SSID_LEN + 1] = {0}, passwd[OS_MAX_PASSWD_LEN + 1] = {0};
 1492              		.loc 2 242 17
 1493 02b8 02DA     		sw	zero,52(sp)
 1494 02ba 231C0102 		sh	zero,56(sp)
 243:C:/Users/stapi/OneDrive/Desktop/GD32VW553/V1_MQTT_OK/GD32VW55X_Wifi_BLE_SDK/GD32VW55x_RELEASE_V1.0.2/MSDK/cloud/alicloud/src/services/dev_bind\awss_report.c ****         os_wifi_get_ap_info(ssid, passwd, bssid);
 1495              		.loc 2 243 9 is_stmt 1
 243:C:/Users/stapi/OneDrive/Desktop/GD32VW553/V1_MQTT_OK/GD32VW55X_Wifi_BLE_SDK/GD32VW55x_RELEASE_V1.0.2/MSDK/cloud/alicloud/src/services/dev_bind\awss_report.c ****         os_wifi_get_ap_info(ssid, passwd, bssid);
 1496              		.loc 2 243 14 is_stmt 0
 1497 02be 02DE     		sw	zero,60(sp)
 1498 02c0 97000000 		call	memset
 1498      E7800000 
 1499              	.LVL126:
 243:C:/Users/stapi/OneDrive/Desktop/GD32VW553/V1_MQTT_OK/GD32VW55X_Wifi_BLE_SDK/GD32VW55x_RELEASE_V1.0.2/MSDK/cloud/alicloud/src/services/dev_bind\awss_report.c ****         os_wifi_get_ap_info(ssid, passwd, bssid);
 1500              		.loc 2 243 47
 1501 02c8 1306E003 		li	a2,62
 1502 02cc 8145     		li	a1,0
 1503 02ce C810     		addi	a0,sp,100
 1504 02d0 82D0     		sw	zero,96(sp)
 1505 02d2 97000000 		call	memset
 1505      E7800000 
 1506              	.LVL127:
 244:C:/Users/stapi/OneDrive/Desktop/GD32VW553/V1_MQTT_OK/GD32VW55X_Wifi_BLE_SDK/GD32VW55x_RELEASE_V1.0.2/MSDK/cloud/alicloud/src/services/dev_bind\awss_report.c ****         /*
 1507              		.loc 2 244 9 is_stmt 1
 1508              	.LBB69:
 1509              	.LBB70:
 751:..\..\..\..\cloud\alicloud\src\services\dev_bind\os/os.h ****                                     auth, encry, bssid, channel);
 752:..\..\..\..\cloud\alicloud\src\services\dev_bind\os/os.h **** }
 753:..\..\..\..\cloud\alicloud\src\services\dev_bind\os/os.h **** 
 754:..\..\..\..\cloud\alicloud\src\services\dev_bind\os/os.h **** #define os_wifi_scan_result_cb_t    platform_wifi_scan_result_cb_t
 755:..\..\..\..\cloud\alicloud\src\services\dev_bind\os/os.h **** 
 756:..\..\..\..\cloud\alicloud\src\services\dev_bind\os/os.h **** /**
 757:..\..\..\..\cloud\alicloud\src\services\dev_bind\os/os.h ****  * @brief send 80211 raw frame in current channel with basic rate(1Mbps)
 758:..\..\..\..\cloud\alicloud\src\services\dev_bind\os/os.h ****  *
 759:..\..\..\..\cloud\alicloud\src\services\dev_bind\os/os.h ****  * @param[in] type @n see enum platform_awss_frame_type, currently only FRAME_BEACON
 760:..\..\..\..\cloud\alicloud\src\services\dev_bind\os/os.h ****  *                      FRAME_PROBE_REQ is used
 761:..\..\..\..\cloud\alicloud\src\services\dev_bind\os/os.h ****  * @param[in] buffer @n 80211 raw frame, include complete mac header & FCS field
 762:..\..\..\..\cloud\alicloud\src\services\dev_bind\os/os.h ****  * @param[in] len @n 80211 raw frame length
 763:..\..\..\..\cloud\alicloud\src\services\dev_bind\os/os.h ****  * @return
 764:..\..\..\..\cloud\alicloud\src\services\dev_bind\os/os.h ****    @verbatim
 765:..\..\..\..\cloud\alicloud\src\services\dev_bind\os/os.h ****    =  0, send success.
 766:..\..\..\..\cloud\alicloud\src\services\dev_bind\os/os.h ****    = -1, send failure.
 767:..\..\..\..\cloud\alicloud\src\services\dev_bind\os/os.h ****    = -2, unsupported.
 768:..\..\..\..\cloud\alicloud\src\services\dev_bind\os/os.h ****    @endverbatim
 769:..\..\..\..\cloud\alicloud\src\services\dev_bind\os/os.h ****  * @see None.
 770:..\..\..\..\cloud\alicloud\src\services\dev_bind\os/os.h ****  * @note awss use this API send raw frame in wifi monitor mode & station mode
 771:..\..\..\..\cloud\alicloud\src\services\dev_bind\os/os.h ****  */
 772:..\..\..\..\cloud\alicloud\src\services\dev_bind\os/os.h **** static inline int os_wifi_send_80211_raw_frame(_IN_ enum platform_awss_frame_type type,
 773:..\..\..\..\cloud\alicloud\src\services\dev_bind\os/os.h ****         _IN_ uint8_t *buffer, _IN_ int len)
 774:..\..\..\..\cloud\alicloud\src\services\dev_bind\os/os.h **** {
 775:..\..\..\..\cloud\alicloud\src\services\dev_bind\os/os.h ****     return platform_wifi_send_80211_raw_frame(type, buffer, len);
 776:..\..\..\..\cloud\alicloud\src\services\dev_bind\os/os.h **** }
 777:..\..\..\..\cloud\alicloud\src\services\dev_bind\os/os.h **** 
 778:..\..\..\..\cloud\alicloud\src\services\dev_bind\os/os.h **** /**
 779:..\..\..\..\cloud\alicloud\src\services\dev_bind\os/os.h ****  * @brief management frame handler
 780:..\..\..\..\cloud\alicloud\src\services\dev_bind\os/os.h ****  *
 781:..\..\..\..\cloud\alicloud\src\services\dev_bind\os/os.h ****  * @param[in] buffer @n 80211 raw frame or ie(information element) buffer
 782:..\..\..\..\cloud\alicloud\src\services\dev_bind\os/os.h ****  * @param[in] len @n buffer length
 783:..\..\..\..\cloud\alicloud\src\services\dev_bind\os/os.h ****  * @param[in] buffer_type @n 0 when buffer is a 80211 frame,
 784:..\..\..\..\cloud\alicloud\src\services\dev_bind\os/os.h ****  *                          1 when buffer only contain IE info
 785:..\..\..\..\cloud\alicloud\src\services\dev_bind\os/os.h ****  * @return None.
 786:..\..\..\..\cloud\alicloud\src\services\dev_bind\os/os.h ****  * @see None.
 787:..\..\..\..\cloud\alicloud\src\services\dev_bind\os/os.h ****  * @note None.
 788:..\..\..\..\cloud\alicloud\src\services\dev_bind\os/os.h ****  */
 789:..\..\..\..\cloud\alicloud\src\services\dev_bind\os/os.h **** #define os_wifi_mgnt_frame_cb_t     platform_wifi_mgnt_frame_cb_t
 790:..\..\..\..\cloud\alicloud\src\services\dev_bind\os/os.h **** 
 791:..\..\..\..\cloud\alicloud\src\services\dev_bind\os/os.h **** /**
 792:..\..\..\..\cloud\alicloud\src\services\dev_bind\os/os.h ****  * @brief enable/disable filter specific management frame in wifi station mode
 793:..\..\..\..\cloud\alicloud\src\services\dev_bind\os/os.h ****  *
 794:..\..\..\..\cloud\alicloud\src\services\dev_bind\os/os.h ****  * @param[in] filter_mask @n see mask macro in enum platform_awss_frame_type,
 795:..\..\..\..\cloud\alicloud\src\services\dev_bind\os/os.h ****  *                      currently only FRAME_PROBE_REQ_MASK & FRAME_BEACON_MASK is used
 796:..\..\..\..\cloud\alicloud\src\services\dev_bind\os/os.h ****  * @param[in] vendor_oui @n oui can be used for precise frame match, optional
 797:..\..\..\..\cloud\alicloud\src\services\dev_bind\os/os.h ****  * @param[in] callback @n see platform_wifi_mgnt_frame_cb_t, passing 80211
 798:..\..\..\..\cloud\alicloud\src\services\dev_bind\os/os.h ****  *                      frame or ie to callback. when callback is NULL
 799:..\..\..\..\cloud\alicloud\src\services\dev_bind\os/os.h ****  *                      disable sniffer feature, otherwise enable it.
 800:..\..\..\..\cloud\alicloud\src\services\dev_bind\os/os.h ****  * @return
 801:..\..\..\..\cloud\alicloud\src\services\dev_bind\os/os.h ****    @verbatim
 802:..\..\..\..\cloud\alicloud\src\services\dev_bind\os/os.h ****    =  0, success
 803:..\..\..\..\cloud\alicloud\src\services\dev_bind\os/os.h ****    = -1, fail
 804:..\..\..\..\cloud\alicloud\src\services\dev_bind\os/os.h ****    = -2, unsupported.
 805:..\..\..\..\cloud\alicloud\src\services\dev_bind\os/os.h ****    @endverbatim
 806:..\..\..\..\cloud\alicloud\src\services\dev_bind\os/os.h ****  * @see None.
 807:..\..\..\..\cloud\alicloud\src\services\dev_bind\os/os.h ****  * @note awss use this API to filter specific mgnt frame in wifi station mode
 808:..\..\..\..\cloud\alicloud\src\services\dev_bind\os/os.h ****  */
 809:..\..\..\..\cloud\alicloud\src\services\dev_bind\os/os.h **** static inline int os_wifi_enable_mgnt_frame_filter(
 810:..\..\..\..\cloud\alicloud\src\services\dev_bind\os/os.h ****             _IN_ uint32_t filter_mask,
 811:..\..\..\..\cloud\alicloud\src\services\dev_bind\os/os.h ****             _IN_OPT_ uint8_t vendor_oui[3],
 812:..\..\..\..\cloud\alicloud\src\services\dev_bind\os/os.h ****             _IN_ platform_wifi_mgnt_frame_cb_t callback)
 813:..\..\..\..\cloud\alicloud\src\services\dev_bind\os/os.h **** {
 814:..\..\..\..\cloud\alicloud\src\services\dev_bind\os/os.h ****     return platform_wifi_enable_mgnt_frame_filter(filter_mask, vendor_oui, callback);
 815:..\..\..\..\cloud\alicloud\src\services\dev_bind\os/os.h **** }
 816:..\..\..\..\cloud\alicloud\src\services\dev_bind\os/os.h **** 
 817:..\..\..\..\cloud\alicloud\src\services\dev_bind\os/os.h **** /**
 818:..\..\..\..\cloud\alicloud\src\services\dev_bind\os/os.h ****  * @brief find all the wifi AP around adapted with device.
 819:..\..\..\..\cloud\alicloud\src\services\dev_bind\os/os.h ****  *
 820:..\..\..\..\cloud\alicloud\src\services\dev_bind\os/os.h ****  * @param[in] cb @n pass ssid info(scan result) to this callback one by one
 821:..\..\..\..\cloud\alicloud\src\services\dev_bind\os/os.h ****  * @return 0 for wifi scan is done, otherwise return -1
 822:..\..\..\..\cloud\alicloud\src\services\dev_bind\os/os.h ****  * @see None.
 823:..\..\..\..\cloud\alicloud\src\services\dev_bind\os/os.h ****  * @note
 824:..\..\..\..\cloud\alicloud\src\services\dev_bind\os/os.h ****  *      This API should NOT exit before the invoking for cb is finished.
 825:..\..\..\..\cloud\alicloud\src\services\dev_bind\os/os.h ****  *      This rule is something like the following :
 826:..\..\..\..\cloud\alicloud\src\services\dev_bind\os/os.h ****  *      platform_wifi_scan() is invoked...
 827:..\..\..\..\cloud\alicloud\src\services\dev_bind\os/os.h ****  *      ...
 828:..\..\..\..\cloud\alicloud\src\services\dev_bind\os/os.h ****  *      for (ap = first_ap; ap <= last_ap; ap = next_ap){
 829:..\..\..\..\cloud\alicloud\src\services\dev_bind\os/os.h ****  *          cb(ap)
 830:..\..\..\..\cloud\alicloud\src\services\dev_bind\os/os.h ****  *      }
 831:..\..\..\..\cloud\alicloud\src\services\dev_bind\os/os.h ****  *      ...
 832:..\..\..\..\cloud\alicloud\src\services\dev_bind\os/os.h ****  *      platform_wifi_scan() exit...
 833:..\..\..\..\cloud\alicloud\src\services\dev_bind\os/os.h ****  */
 834:..\..\..\..\cloud\alicloud\src\services\dev_bind\os/os.h **** static inline int os_wifi_scan(_IN_ platform_wifi_scan_result_cb_t cb)
 835:..\..\..\..\cloud\alicloud\src\services\dev_bind\os/os.h **** {
 836:..\..\..\..\cloud\alicloud\src\services\dev_bind\os/os.h ****     return platform_wifi_scan(cb);
 837:..\..\..\..\cloud\alicloud\src\services\dev_bind\os/os.h **** }
 838:..\..\..\..\cloud\alicloud\src\services\dev_bind\os/os.h **** 
 839:..\..\..\..\cloud\alicloud\src\services\dev_bind\os/os.h **** /**
 840:..\..\..\..\cloud\alicloud\src\services\dev_bind\os/os.h ****  * @brief initialize AES struct.
 841:..\..\..\..\cloud\alicloud\src\services\dev_bind\os/os.h ****  *
 842:..\..\..\..\cloud\alicloud\src\services\dev_bind\os/os.h ****  * @param[in] key:
 843:..\..\..\..\cloud\alicloud\src\services\dev_bind\os/os.h ****  * @param[in] iv:
 844:..\..\..\..\cloud\alicloud\src\services\dev_bind\os/os.h ****  * @param[in] dir: AES_ENCRYPTION or AES_DECRYPTION
 845:..\..\..\..\cloud\alicloud\src\services\dev_bind\os/os.h ****  * @return AES128_t
 846:..\..\..\..\cloud\alicloud\src\services\dev_bind\os/os.h ****    @verbatim None
 847:..\..\..\..\cloud\alicloud\src\services\dev_bind\os/os.h ****    @endverbatim
 848:..\..\..\..\cloud\alicloud\src\services\dev_bind\os/os.h ****  * @see None.
 849:..\..\..\..\cloud\alicloud\src\services\dev_bind\os/os.h ****  * @note None.
 850:..\..\..\..\cloud\alicloud\src\services\dev_bind\os/os.h ****  */
 851:..\..\..\..\cloud\alicloud\src\services\dev_bind\os/os.h **** static inline p_aes128_t os_aes128_init(
 852:..\..\..\..\cloud\alicloud\src\services\dev_bind\os/os.h ****             _IN_ const uint8_t *key,
 853:..\..\..\..\cloud\alicloud\src\services\dev_bind\os/os.h ****             _IN_ const uint8_t *iv,
 854:..\..\..\..\cloud\alicloud\src\services\dev_bind\os/os.h ****             _IN_ AES_DIR_t dir)
 855:..\..\..\..\cloud\alicloud\src\services\dev_bind\os/os.h **** {
 856:..\..\..\..\cloud\alicloud\src\services\dev_bind\os/os.h ****     return platform_aes128_init(key, iv, dir);
 857:..\..\..\..\cloud\alicloud\src\services\dev_bind\os/os.h **** }
 858:..\..\..\..\cloud\alicloud\src\services\dev_bind\os/os.h **** 
 859:..\..\..\..\cloud\alicloud\src\services\dev_bind\os/os.h **** /**
 860:..\..\..\..\cloud\alicloud\src\services\dev_bind\os/os.h ****  * @brief release AES struct.
 861:..\..\..\..\cloud\alicloud\src\services\dev_bind\os/os.h ****  *
 862:..\..\..\..\cloud\alicloud\src\services\dev_bind\os/os.h ****  * @param[in] aes:
 863:..\..\..\..\cloud\alicloud\src\services\dev_bind\os/os.h ****  * @return
 864:..\..\..\..\cloud\alicloud\src\services\dev_bind\os/os.h ****    @verbatim
 865:..\..\..\..\cloud\alicloud\src\services\dev_bind\os/os.h ****      = 0: succeeded
 866:..\..\..\..\cloud\alicloud\src\services\dev_bind\os/os.h ****      = -1: failed
 867:..\..\..\..\cloud\alicloud\src\services\dev_bind\os/os.h ****    @endverbatim
 868:..\..\..\..\cloud\alicloud\src\services\dev_bind\os/os.h ****  * @see None.
 869:..\..\..\..\cloud\alicloud\src\services\dev_bind\os/os.h ****  * @note None.
 870:..\..\..\..\cloud\alicloud\src\services\dev_bind\os/os.h ****  */
 871:..\..\..\..\cloud\alicloud\src\services\dev_bind\os/os.h **** static inline int os_aes128_destroy(
 872:..\..\..\..\cloud\alicloud\src\services\dev_bind\os/os.h ****             _IN_ p_aes128_t aes)
 873:..\..\..\..\cloud\alicloud\src\services\dev_bind\os/os.h **** {
 874:..\..\..\..\cloud\alicloud\src\services\dev_bind\os/os.h ****     return platform_aes128_destroy(aes);
 875:..\..\..\..\cloud\alicloud\src\services\dev_bind\os/os.h **** }
 876:..\..\..\..\cloud\alicloud\src\services\dev_bind\os/os.h **** 
 877:..\..\..\..\cloud\alicloud\src\services\dev_bind\os/os.h **** /**
 878:..\..\..\..\cloud\alicloud\src\services\dev_bind\os/os.h ****  * @brief encrypt data with aes (cbc/128bit key).
 879:..\..\..\..\cloud\alicloud\src\services\dev_bind\os/os.h ****  *
 880:..\..\..\..\cloud\alicloud\src\services\dev_bind\os/os.h ****  * @param[in] aes: AES handler
 881:..\..\..\..\cloud\alicloud\src\services\dev_bind\os/os.h ****  * @param[in] src: plain data
 882:..\..\..\..\cloud\alicloud\src\services\dev_bind\os/os.h ****  * @param[in] blockNum: plain data number of 16 bytes size
 883:..\..\..\..\cloud\alicloud\src\services\dev_bind\os/os.h ****  * @param[out] dst: cipher data
 884:..\..\..\..\cloud\alicloud\src\services\dev_bind\os/os.h ****  * @return
 885:..\..\..\..\cloud\alicloud\src\services\dev_bind\os/os.h ****    @verbatim
 886:..\..\..\..\cloud\alicloud\src\services\dev_bind\os/os.h ****      = 0: succeeded
 887:..\..\..\..\cloud\alicloud\src\services\dev_bind\os/os.h ****      = -1: failed
 888:..\..\..\..\cloud\alicloud\src\services\dev_bind\os/os.h ****    @endverbatim
 889:..\..\..\..\cloud\alicloud\src\services\dev_bind\os/os.h ****  * @see None.
 890:..\..\..\..\cloud\alicloud\src\services\dev_bind\os/os.h ****  * @note None.
 891:..\..\..\..\cloud\alicloud\src\services\dev_bind\os/os.h ****  */
 892:..\..\..\..\cloud\alicloud\src\services\dev_bind\os/os.h **** static inline int os_aes128_cbc_encrypt(
 893:..\..\..\..\cloud\alicloud\src\services\dev_bind\os/os.h ****             _IN_ p_aes128_t aes,
 894:..\..\..\..\cloud\alicloud\src\services\dev_bind\os/os.h ****             _IN_ const void *src,
 895:..\..\..\..\cloud\alicloud\src\services\dev_bind\os/os.h ****             _IN_ size_t blockNum,
 896:..\..\..\..\cloud\alicloud\src\services\dev_bind\os/os.h ****             _OUT_ void *dst)
 897:..\..\..\..\cloud\alicloud\src\services\dev_bind\os/os.h **** {
 898:..\..\..\..\cloud\alicloud\src\services\dev_bind\os/os.h ****     return platform_aes128_cbc_encrypt(aes, src, blockNum, dst);
 899:..\..\..\..\cloud\alicloud\src\services\dev_bind\os/os.h **** }
 900:..\..\..\..\cloud\alicloud\src\services\dev_bind\os/os.h **** 
 901:..\..\..\..\cloud\alicloud\src\services\dev_bind\os/os.h **** /**
 902:..\..\..\..\cloud\alicloud\src\services\dev_bind\os/os.h ****  * @brief encrypt data with aes (cfb/128bit key).
 903:..\..\..\..\cloud\alicloud\src\services\dev_bind\os/os.h ****  *
 904:..\..\..\..\cloud\alicloud\src\services\dev_bind\os/os.h ****  * @param[in] aes: AES handler
 905:..\..\..\..\cloud\alicloud\src\services\dev_bind\os/os.h ****  * @param[in] src: plain data
 906:..\..\..\..\cloud\alicloud\src\services\dev_bind\os/os.h ****  * @param[in] blockNum: plain data number of 16 bytes size
 907:..\..\..\..\cloud\alicloud\src\services\dev_bind\os/os.h ****  * @param[out] dst: cipher data
 908:..\..\..\..\cloud\alicloud\src\services\dev_bind\os/os.h ****  * @return
 909:..\..\..\..\cloud\alicloud\src\services\dev_bind\os/os.h ****    @verbatim
 910:..\..\..\..\cloud\alicloud\src\services\dev_bind\os/os.h ****      = 0: succeeded
 911:..\..\..\..\cloud\alicloud\src\services\dev_bind\os/os.h ****      = -1: failed
 912:..\..\..\..\cloud\alicloud\src\services\dev_bind\os/os.h ****    @endverbatim
 913:..\..\..\..\cloud\alicloud\src\services\dev_bind\os/os.h ****  * @see None.
 914:..\..\..\..\cloud\alicloud\src\services\dev_bind\os/os.h ****  * @note None.
 915:..\..\..\..\cloud\alicloud\src\services\dev_bind\os/os.h ****  */
 916:..\..\..\..\cloud\alicloud\src\services\dev_bind\os/os.h **** static inline int os_aes128_cfb_encrypt(
 917:..\..\..\..\cloud\alicloud\src\services\dev_bind\os/os.h ****             _IN_ p_aes128_t aes,
 918:..\..\..\..\cloud\alicloud\src\services\dev_bind\os/os.h ****             _IN_ const void *src,
 919:..\..\..\..\cloud\alicloud\src\services\dev_bind\os/os.h ****             _IN_ size_t blockNum,
 920:..\..\..\..\cloud\alicloud\src\services\dev_bind\os/os.h ****             _OUT_ void *dst)
 921:..\..\..\..\cloud\alicloud\src\services\dev_bind\os/os.h **** {
 922:..\..\..\..\cloud\alicloud\src\services\dev_bind\os/os.h ****     return platform_aes128_cfb_encrypt(aes, src, blockNum, dst);
 923:..\..\..\..\cloud\alicloud\src\services\dev_bind\os/os.h **** }
 924:..\..\..\..\cloud\alicloud\src\services\dev_bind\os/os.h **** 
 925:..\..\..\..\cloud\alicloud\src\services\dev_bind\os/os.h **** /**
 926:..\..\..\..\cloud\alicloud\src\services\dev_bind\os/os.h ****  * @brief decrypt data with aes (cbc/128bit key).
 927:..\..\..\..\cloud\alicloud\src\services\dev_bind\os/os.h ****  *
 928:..\..\..\..\cloud\alicloud\src\services\dev_bind\os/os.h ****  * @param[in] aes: AES handler
 929:..\..\..\..\cloud\alicloud\src\services\dev_bind\os/os.h ****  * @param[in] src: cipher data
 930:..\..\..\..\cloud\alicloud\src\services\dev_bind\os/os.h ****  * @param[in] blockNum: plain data number of 16 bytes size
 931:..\..\..\..\cloud\alicloud\src\services\dev_bind\os/os.h ****  * @param[out] dst: plain data
 932:..\..\..\..\cloud\alicloud\src\services\dev_bind\os/os.h ****  * @return
 933:..\..\..\..\cloud\alicloud\src\services\dev_bind\os/os.h ****    @verbatim
 934:..\..\..\..\cloud\alicloud\src\services\dev_bind\os/os.h ****      = 0: succeeded
 935:..\..\..\..\cloud\alicloud\src\services\dev_bind\os/os.h ****      = -1: failed
 936:..\..\..\..\cloud\alicloud\src\services\dev_bind\os/os.h ****    @endverbatim
 937:..\..\..\..\cloud\alicloud\src\services\dev_bind\os/os.h ****  * @see None.
 938:..\..\..\..\cloud\alicloud\src\services\dev_bind\os/os.h ****  * @note None.
 939:..\..\..\..\cloud\alicloud\src\services\dev_bind\os/os.h ****  */
 940:..\..\..\..\cloud\alicloud\src\services\dev_bind\os/os.h **** static inline int os_aes128_cbc_decrypt(
 941:..\..\..\..\cloud\alicloud\src\services\dev_bind\os/os.h ****             _IN_ p_aes128_t aes,
 942:..\..\..\..\cloud\alicloud\src\services\dev_bind\os/os.h ****             _IN_ const void *src,
 943:..\..\..\..\cloud\alicloud\src\services\dev_bind\os/os.h ****             _IN_ size_t blockNum,
 944:..\..\..\..\cloud\alicloud\src\services\dev_bind\os/os.h ****             _OUT_ void *dst)
 945:..\..\..\..\cloud\alicloud\src\services\dev_bind\os/os.h **** {
 946:..\..\..\..\cloud\alicloud\src\services\dev_bind\os/os.h ****     return platform_aes128_cbc_decrypt(aes, src, blockNum, dst);
 947:..\..\..\..\cloud\alicloud\src\services\dev_bind\os/os.h **** }
 948:..\..\..\..\cloud\alicloud\src\services\dev_bind\os/os.h **** 
 949:..\..\..\..\cloud\alicloud\src\services\dev_bind\os/os.h **** /**
 950:..\..\..\..\cloud\alicloud\src\services\dev_bind\os/os.h ****  * @brief decrypt data with aes (cfb/128bit key).
 951:..\..\..\..\cloud\alicloud\src\services\dev_bind\os/os.h ****  *
 952:..\..\..\..\cloud\alicloud\src\services\dev_bind\os/os.h ****  * @param[in] aes: AES handler
 953:..\..\..\..\cloud\alicloud\src\services\dev_bind\os/os.h ****  * @param[in] src: cipher data
 954:..\..\..\..\cloud\alicloud\src\services\dev_bind\os/os.h ****  * @param[in] blockNum: plain data number of 16 bytes size
 955:..\..\..\..\cloud\alicloud\src\services\dev_bind\os/os.h ****  * @param[out] dst: plain data
 956:..\..\..\..\cloud\alicloud\src\services\dev_bind\os/os.h ****  * @return
 957:..\..\..\..\cloud\alicloud\src\services\dev_bind\os/os.h ****    @verbatim
 958:..\..\..\..\cloud\alicloud\src\services\dev_bind\os/os.h ****      = 0: succeeded
 959:..\..\..\..\cloud\alicloud\src\services\dev_bind\os/os.h ****      = -1: failed
 960:..\..\..\..\cloud\alicloud\src\services\dev_bind\os/os.h ****    @endverbatim
 961:..\..\..\..\cloud\alicloud\src\services\dev_bind\os/os.h ****  * @see None.
 962:..\..\..\..\cloud\alicloud\src\services\dev_bind\os/os.h ****  * @note None.
 963:..\..\..\..\cloud\alicloud\src\services\dev_bind\os/os.h ****  */
 964:..\..\..\..\cloud\alicloud\src\services\dev_bind\os/os.h **** static inline int os_aes128_cfb_decrypt(
 965:..\..\..\..\cloud\alicloud\src\services\dev_bind\os/os.h ****             _IN_ p_aes128_t aes,
 966:..\..\..\..\cloud\alicloud\src\services\dev_bind\os/os.h ****             _IN_ const void *src,
 967:..\..\..\..\cloud\alicloud\src\services\dev_bind\os/os.h ****             _IN_ size_t blockNum,
 968:..\..\..\..\cloud\alicloud\src\services\dev_bind\os/os.h ****             _OUT_ void *dst)
 969:..\..\..\..\cloud\alicloud\src\services\dev_bind\os/os.h **** {
 970:..\..\..\..\cloud\alicloud\src\services\dev_bind\os/os.h ****     return platform_aes128_cfb_decrypt(aes, src, blockNum, dst);
 971:..\..\..\..\cloud\alicloud\src\services\dev_bind\os/os.h **** }
 972:..\..\..\..\cloud\alicloud\src\services\dev_bind\os/os.h **** 
 973:..\..\..\..\cloud\alicloud\src\services\dev_bind\os/os.h **** /**
 974:..\..\..\..\cloud\alicloud\src\services\dev_bind\os/os.h ****  * @brief get the information of the connected AP.
 975:..\..\..\..\cloud\alicloud\src\services\dev_bind\os/os.h ****  *
 976:..\..\..\..\cloud\alicloud\src\services\dev_bind\os/os.h ****  * @param[out] ssid: array to store ap ssid. It will be null if ssid is not required.
 977:..\..\..\..\cloud\alicloud\src\services\dev_bind\os/os.h ****  * @param[out] passwd: array to store ap password. It will be null if ap password is not required.
 978:..\..\..\..\cloud\alicloud\src\services\dev_bind\os/os.h ****  * @param[out] bssid: array to store ap bssid. It will be null if bssid is not required.
 979:..\..\..\..\cloud\alicloud\src\services\dev_bind\os/os.h **** * @return
 980:..\..\..\..\cloud\alicloud\src\services\dev_bind\os/os.h ****    @verbatim
 981:..\..\..\..\cloud\alicloud\src\services\dev_bind\os/os.h ****      = 0: succeeded
 982:..\..\..\..\cloud\alicloud\src\services\dev_bind\os/os.h ****      = -1: failed
 983:..\..\..\..\cloud\alicloud\src\services\dev_bind\os/os.h ****    @endverbatim
 984:..\..\..\..\cloud\alicloud\src\services\dev_bind\os/os.h ****  * @see None.
 985:..\..\..\..\cloud\alicloud\src\services\dev_bind\os/os.h ****  * @note None.
 986:..\..\..\..\cloud\alicloud\src\services\dev_bind\os/os.h ****  */
 987:..\..\..\..\cloud\alicloud\src\services\dev_bind\os/os.h **** static inline int os_wifi_get_ap_info(
 988:..\..\..\..\cloud\alicloud\src\services\dev_bind\os/os.h ****             _OUT_ char ssid[PLATFORM_MAX_SSID_LEN],
 989:..\..\..\..\cloud\alicloud\src\services\dev_bind\os/os.h ****             _OUT_ char passwd[PLATFORM_MAX_PASSWD_LEN],
 990:..\..\..\..\cloud\alicloud\src\services\dev_bind\os/os.h ****             _OUT_ uint8_t bssid[ETH_ALEN])
 991:..\..\..\..\cloud\alicloud\src\services\dev_bind\os/os.h **** {
 992:..\..\..\..\cloud\alicloud\src\services\dev_bind\os/os.h ****     return platform_wifi_get_ap_info(ssid, passwd, bssid);
 1510              		.loc 1 992 5
 1511              		.loc 1 992 12 is_stmt 0
 1512 02da 5018     		addi	a2,sp,52
 1513              	.LVL128:
 1514 02dc 8C10     		addi	a1,sp,96
 1515              	.LVL129:
 1516 02de 6818     		addi	a0,sp,60
 1517              	.LVL130:
 1518 02e0 97000000 		call	HAL_Wifi_Get_Ap_Info
 1518      E7800000 
 1519              	.LVL131:
 1520              	.LBE70:
 1521              	.LBE69:
 248:C:/Users/stapi/OneDrive/Desktop/GD32VW553/V1_MQTT_OK/GD32VW55X_Wifi_BLE_SDK/GD32VW55x_RELEASE_V1.0.2/MSDK/cloud/alicloud/src/services/dev_bind\awss_report.c ****             memcmp(bssid, switchap_bssid, sizeof(bssid)) ||
 1522              		.loc 2 248 9 is_stmt 1
 248:C:/Users/stapi/OneDrive/Desktop/GD32VW553/V1_MQTT_OK/GD32VW55X_Wifi_BLE_SDK/GD32VW55x_RELEASE_V1.0.2/MSDK/cloud/alicloud/src/services/dev_bind\awss_report.c ****             memcmp(bssid, switchap_bssid, sizeof(bssid)) ||
 1523              		.loc 2 248 13 is_stmt 0
 1524 02e8 13062002 		li	a2,34
 1525 02ec 93850A00 		addi	a1,s5,%lo(.LANCHOR10)
 1526 02f0 6818     		addi	a0,sp,60
 1527 02f2 97000000 		call	strncmp
 1527      E7800000 
 1528              	.LVL132:
 248:C:/Users/stapi/OneDrive/Desktop/GD32VW553/V1_MQTT_OK/GD32VW55X_Wifi_BLE_SDK/GD32VW55x_RELEASE_V1.0.2/MSDK/cloud/alicloud/src/services/dev_bind\awss_report.c ****             memcmp(bssid, switchap_bssid, sizeof(bssid)) ||
 1529              		.loc 2 248 12
 1530 02fa 05E5     		bne	a0,zero,.L54
 249:C:/Users/stapi/OneDrive/Desktop/GD32VW553/V1_MQTT_OK/GD32VW55X_Wifi_BLE_SDK/GD32VW55x_RELEASE_V1.0.2/MSDK/cloud/alicloud/src/services/dev_bind\awss_report.c ****             strncmp(passwd, switchap_passwd, sizeof(passwd))) {
 1531              		.loc 2 249 13 discriminator 1
 1532 02fc 1946     		li	a2,6
 1533 02fe 93050B00 		addi	a1,s6,%lo(.LANCHOR8)
 1534 0302 4818     		addi	a0,sp,52
 1535 0304 97000000 		call	memcmp
 1535      E7800000 
 1536              	.LVL133:
 248:C:/Users/stapi/OneDrive/Desktop/GD32VW553/V1_MQTT_OK/GD32VW55X_Wifi_BLE_SDK/GD32VW55x_RELEASE_V1.0.2/MSDK/cloud/alicloud/src/services/dev_bind\awss_report.c ****             memcmp(bssid, switchap_bssid, sizeof(bssid)) ||
 1537              		.loc 2 248 56 discriminator 1
 1538 030c 19E9     		bne	a0,zero,.L54
 250:C:/Users/stapi/OneDrive/Desktop/GD32VW553/V1_MQTT_OK/GD32VW55X_Wifi_BLE_SDK/GD32VW55x_RELEASE_V1.0.2/MSDK/cloud/alicloud/src/services/dev_bind\awss_report.c ****             if (switchap_timer == NULL) {
 1539              		.loc 2 250 13
 1540 030e 13062004 		li	a2,66
 1541 0312 93050A00 		addi	a1,s4,%lo(.LANCHOR9)
 1542 0316 8810     		addi	a0,sp,96
 1543 0318 97000000 		call	strncmp
 1543      E7800000 
 1544              	.LVL134:
 249:C:/Users/stapi/OneDrive/Desktop/GD32VW553/V1_MQTT_OK/GD32VW55X_Wifi_BLE_SDK/GD32VW55x_RELEASE_V1.0.2/MSDK/cloud/alicloud/src/services/dev_bind\awss_report.c ****             strncmp(passwd, switchap_passwd, sizeof(passwd))) {
 1545              		.loc 2 249 58
 1546 0320 29C1     		beq	a0,zero,.L43
 1547              	.L54:
 251:C:/Users/stapi/OneDrive/Desktop/GD32VW553/V1_MQTT_OK/GD32VW55X_Wifi_BLE_SDK/GD32VW55x_RELEASE_V1.0.2/MSDK/cloud/alicloud/src/services/dev_bind\awss_report.c ****                 switchap_timer = HAL_Timer_Create("swichap_online", (void (*)(void *))awss_switch_a
 1548              		.loc 2 251 13 is_stmt 1
 251:C:/Users/stapi/OneDrive/Desktop/GD32VW553/V1_MQTT_OK/GD32VW55X_Wifi_BLE_SDK/GD32VW55x_RELEASE_V1.0.2/MSDK/cloud/alicloud/src/services/dev_bind\awss_report.c ****                 switchap_timer = HAL_Timer_Create("swichap_online", (void (*)(void *))awss_switch_a
 1549              		.loc 2 251 32 is_stmt 0
 1550 0322 37040000 		lui	s0,%hi(.LANCHOR11)
 1551              	.LVL135:
 251:C:/Users/stapi/OneDrive/Desktop/GD32VW553/V1_MQTT_OK/GD32VW55X_Wifi_BLE_SDK/GD32VW55x_RELEASE_V1.0.2/MSDK/cloud/alicloud/src/services/dev_bind\awss_report.c ****                 switchap_timer = HAL_Timer_Create("swichap_online", (void (*)(void *))awss_switch_a
 1552              		.loc 2 251 16
 1553 0326 83270400 		lw	a5,%lo(.LANCHOR11)(s0)
 1554 032a 13040400 		addi	s0,s0,%lo(.LANCHOR11)
 1555 032e 99EF     		bne	a5,zero,.L56
 252:C:/Users/stapi/OneDrive/Desktop/GD32VW553/V1_MQTT_OK/GD32VW55X_Wifi_BLE_SDK/GD32VW55x_RELEASE_V1.0.2/MSDK/cloud/alicloud/src/services/dev_bind\awss_report.c ****             }
 1556              		.loc 2 252 17 is_stmt 1
 252:C:/Users/stapi/OneDrive/Desktop/GD32VW553/V1_MQTT_OK/GD32VW55X_Wifi_BLE_SDK/GD32VW55x_RELEASE_V1.0.2/MSDK/cloud/alicloud/src/services/dev_bind\awss_report.c ****             }
 1557              		.loc 2 252 34 is_stmt 0
 1558 0330 B7050000 		lui	a1,%hi(awss_switch_ap_online)
 1559 0334 37050000 		lui	a0,%hi(.LC36)
 1560 0338 0146     		li	a2,0
 1561 033a 93850500 		addi	a1,a1,%lo(awss_switch_ap_online)
 1562 033e 13050500 		addi	a0,a0,%lo(.LC36)
 1563 0342 97000000 		call	HAL_Timer_Create
 1563      E7800000 
 1564              	.LVL136:
 252:C:/Users/stapi/OneDrive/Desktop/GD32VW553/V1_MQTT_OK/GD32VW55X_Wifi_BLE_SDK/GD32VW55x_RELEASE_V1.0.2/MSDK/cloud/alicloud/src/services/dev_bind\awss_report.c ****             }
 1565              		.loc 2 252 32
 1566 034a 08C0     		sw	a0,0(s0)
 1567              	.L56:
 255:C:/Users/stapi/OneDrive/Desktop/GD32VW553/V1_MQTT_OK/GD32VW55X_Wifi_BLE_SDK/GD32VW55x_RELEASE_V1.0.2/MSDK/cloud/alicloud/src/services/dev_bind\awss_report.c ****             HAL_Timer_Start(switchap_timer, timeout);
 1568              		.loc 2 255 13 is_stmt 1
 1569 034c 0840     		lw	a0,0(s0)
 1570 034e 97000000 		call	HAL_Timer_Stop
 1570      E7800000 
 1571              	.LVL137:
 256:C:/Users/stapi/OneDrive/Desktop/GD32VW553/V1_MQTT_OK/GD32VW55X_Wifi_BLE_SDK/GD32VW55x_RELEASE_V1.0.2/MSDK/cloud/alicloud/src/services/dev_bind\awss_report.c ****         }
 1572              		.loc 2 256 13
 1573 0356 0840     		lw	a0,0(s0)
 1574 0358 CA85     		mv	a1,s2
 1575 035a 97000000 		call	HAL_Timer_Start
 1575      E7800000 
 1576              	.LVL138:
 1577              	.LBE71:
 258:C:/Users/stapi/OneDrive/Desktop/GD32VW553/V1_MQTT_OK/GD32VW55X_Wifi_BLE_SDK/GD32VW55x_RELEASE_V1.0.2/MSDK/cloud/alicloud/src/services/dev_bind\awss_report.c **** 
 1578              		.loc 2 258 13
 260:C:/Users/stapi/OneDrive/Desktop/GD32VW553/V1_MQTT_OK/GD32VW55X_Wifi_BLE_SDK/GD32VW55x_RELEASE_V1.0.2/MSDK/cloud/alicloud/src/services/dev_bind\awss_report.c **** 
 1579              		.loc 2 260 5
 1580              	.L43:
 271:C:/Users/stapi/OneDrive/Desktop/GD32VW553/V1_MQTT_OK/GD32VW55X_Wifi_BLE_SDK/GD32VW55x_RELEASE_V1.0.2/MSDK/cloud/alicloud/src/services/dev_bind\awss_report.c **** 
 1581              		.loc 2 271 1 is_stmt 0
 1582 0362 2D61     		addi	sp,sp,224
 1583              		.cfi_remember_state
 1584              		.cfi_def_cfa_offset 0
 1585 0364 17030000 		tail	__riscv_restore_10
 1585      67000300 
 1586              		.cfi_restore 25
 1587              		.cfi_restore 24
 1588              		.cfi_restore 23
 1589              		.cfi_restore 22
 1590              		.cfi_restore 21
 1591              		.cfi_restore 20
 1592              		.cfi_restore 19
 1593              		.cfi_restore 18
 1594              		.cfi_restore 9
 1595              		.cfi_restore 8
 1596              		.cfi_restore 1
 1597              		.cfi_def_cfa_offset -48
 1598              	.LVL139:
 1599              	.L47:
 1600              		.cfi_restore_state
 1601              	.LBB72:
 196:C:/Users/stapi/OneDrive/Desktop/GD32VW553/V1_MQTT_OK/GD32VW55X_Wifi_BLE_SDK/GD32VW55x_RELEASE_V1.0.2/MSDK/cloud/alicloud/src/services/dev_bind\awss_report.c ****             switchap_bssid[i ++] = (uint8_t)strtol(bssid_str, &bssid_str, 16);
 1602              		.loc 2 196 15 is_stmt 1
 1603 036c 850B     		addi	s7,s7,1
 1604              	.LVL140:
 1605 036e E39B8BE1 		bne	s7,s8,.L49
 1606 0372 3DBD     		j	.L46
 1607              	.LVL141:
 1608              	.L44:
 1609              	.LBE72:
 140:C:/Users/stapi/OneDrive/Desktop/GD32VW553/V1_MQTT_OK/GD32VW55X_Wifi_BLE_SDK/GD32VW55x_RELEASE_V1.0.2/MSDK/cloud/alicloud/src/services/dev_bind\awss_report.c ****     int packet_len = SWITCHAP_RSP_LEN, awss_info_len = 0;
 1610              		.loc 2 140 11 is_stmt 0
 1611 0374 0144     		li	s0,0
 1612              	.LVL142:
 1613              	.L45:
 263:C:/Users/stapi/OneDrive/Desktop/GD32VW553/V1_MQTT_OK/GD32VW55X_Wifi_BLE_SDK/GD32VW55x_RELEASE_V1.0.2/MSDK/cloud/alicloud/src/services/dev_bind\awss_report.c ****     memset(switchap_ssid, 0, sizeof(switchap_ssid));
 1614              		.loc 2 263 5 is_stmt 1
 263:C:/Users/stapi/OneDrive/Desktop/GD32VW553/V1_MQTT_OK/GD32VW55X_Wifi_BLE_SDK/GD32VW55x_RELEASE_V1.0.2/MSDK/cloud/alicloud/src/services/dev_bind\awss_report.c ****     memset(switchap_ssid, 0, sizeof(switchap_ssid));
 1615              		.loc 2 263 5
 1616 0376 37050000 		lui	a0,%hi(.LC37)
 1617 037a 13050500 		addi	a0,a0,%lo(.LC37)
 1618 037e 97000000 		call	HAL_Printf
 1618      E7800000 
 1619              	.LVL143:
 263:C:/Users/stapi/OneDrive/Desktop/GD32VW553/V1_MQTT_OK/GD32VW55X_Wifi_BLE_SDK/GD32VW55x_RELEASE_V1.0.2/MSDK/cloud/alicloud/src/services/dev_bind\awss_report.c ****     memset(switchap_ssid, 0, sizeof(switchap_ssid));
 1620              		.loc 2 263 5
 1621 0386 37050000 		lui	a0,%hi(.LC38)
 1622 038a 13050500 		addi	a0,a0,%lo(.LC38)
 1623 038e 97000000 		call	HAL_Printf
 1623      E7800000 
 1624              	.LVL144:
 263:C:/Users/stapi/OneDrive/Desktop/GD32VW553/V1_MQTT_OK/GD32VW55X_Wifi_BLE_SDK/GD32VW55x_RELEASE_V1.0.2/MSDK/cloud/alicloud/src/services/dev_bind\awss_report.c ****     memset(switchap_ssid, 0, sizeof(switchap_ssid));
 1625              		.loc 2 263 5
 1626 0396 37050000 		lui	a0,%hi(.LC3)
 1627 039a 13050500 		addi	a0,a0,%lo(.LC3)
 1628 039e 97000000 		call	HAL_Printf
 1628      E7800000 
 1629              	.LVL145:
 263:C:/Users/stapi/OneDrive/Desktop/GD32VW553/V1_MQTT_OK/GD32VW55X_Wifi_BLE_SDK/GD32VW55x_RELEASE_V1.0.2/MSDK/cloud/alicloud/src/services/dev_bind\awss_report.c ****     memset(switchap_ssid, 0, sizeof(switchap_ssid));
 1630              		.loc 2 263 5
 264:C:/Users/stapi/OneDrive/Desktop/GD32VW553/V1_MQTT_OK/GD32VW55X_Wifi_BLE_SDK/GD32VW55x_RELEASE_V1.0.2/MSDK/cloud/alicloud/src/services/dev_bind\awss_report.c ****     memset(switchap_bssid, 0, sizeof(switchap_bssid));
 1631              		.loc 2 264 5
 1632 03a6 13061002 		li	a2,33
 1633 03aa 8145     		li	a1,0
 1634 03ac 13850A00 		addi	a0,s5,%lo(.LANCHOR10)
 1635 03b0 97000000 		call	memset
 1635      E7800000 
 1636              	.LVL146:
 265:C:/Users/stapi/OneDrive/Desktop/GD32VW553/V1_MQTT_OK/GD32VW55X_Wifi_BLE_SDK/GD32VW55x_RELEASE_V1.0.2/MSDK/cloud/alicloud/src/services/dev_bind\awss_report.c ****     memset(switchap_passwd, 0, sizeof(switchap_passwd));
 1637              		.loc 2 265 5
 266:C:/Users/stapi/OneDrive/Desktop/GD32VW553/V1_MQTT_OK/GD32VW55X_Wifi_BLE_SDK/GD32VW55x_RELEASE_V1.0.2/MSDK/cloud/alicloud/src/services/dev_bind\awss_report.c ****     if (packet) {
 1638              		.loc 2 266 5 is_stmt 0
 1639 03b8 13061004 		li	a2,65
 1640 03bc 8145     		li	a1,0
 1641 03be 13050A00 		addi	a0,s4,%lo(.LANCHOR9)
 265:C:/Users/stapi/OneDrive/Desktop/GD32VW553/V1_MQTT_OK/GD32VW55X_Wifi_BLE_SDK/GD32VW55x_RELEASE_V1.0.2/MSDK/cloud/alicloud/src/services/dev_bind\awss_report.c ****     memset(switchap_passwd, 0, sizeof(switchap_passwd));
 1642              		.loc 2 265 5
 1643 03c2 23A00400 		sw	zero,0(s1)
 1644 03c6 23920400 		sh	zero,4(s1)
 266:C:/Users/stapi/OneDrive/Desktop/GD32VW553/V1_MQTT_OK/GD32VW55X_Wifi_BLE_SDK/GD32VW55x_RELEASE_V1.0.2/MSDK/cloud/alicloud/src/services/dev_bind\awss_report.c ****     if (packet) {
 1645              		.loc 2 266 5 is_stmt 1
 1646 03ca 97000000 		call	memset
 1646      E7800000 
 1647              	.LVL147:
 267:C:/Users/stapi/OneDrive/Desktop/GD32VW553/V1_MQTT_OK/GD32VW55X_Wifi_BLE_SDK/GD32VW55x_RELEASE_V1.0.2/MSDK/cloud/alicloud/src/services/dev_bind\awss_report.c ****         os_free(packet);
 1648              		.loc 2 267 5
 267:C:/Users/stapi/OneDrive/Desktop/GD32VW553/V1_MQTT_OK/GD32VW55X_Wifi_BLE_SDK/GD32VW55x_RELEASE_V1.0.2/MSDK/cloud/alicloud/src/services/dev_bind\awss_report.c ****         os_free(packet);
 1649              		.loc 2 267 8 is_stmt 0
 1650 03d2 41D8     		beq	s0,zero,.L43
 268:C:/Users/stapi/OneDrive/Desktop/GD32VW553/V1_MQTT_OK/GD32VW55X_Wifi_BLE_SDK/GD32VW55x_RELEASE_V1.0.2/MSDK/cloud/alicloud/src/services/dev_bind\awss_report.c ****     }
 1651              		.loc 2 268 9 is_stmt 1
 1652              	.LVL148:
 1653              	.LBB73:
 1654              	.LBB74:
 394:..\..\..\..\cloud\alicloud\src\services\dev_bind\os/os.h **** }
 1655              		.loc 1 394 5
 1656 03d4 2285     		mv	a0,s0
 1657 03d6 97000000 		call	HAL_Free
 1657      E7800000 
 1658              	.LVL149:
 395:..\..\..\..\cloud\alicloud\src\services\dev_bind\os/os.h **** 
 1659              		.loc 1 395 1 is_stmt 0
 1660 03de 51B7     		j	.L43
 1661              	.LBE74:
 1662              	.LBE73:
 1663              		.cfi_endproc
 1664              	.LFE68:
 1666              		.section	.text.awss_report_token,"ax",@progbits
 1667              		.align	1
 1668              		.globl	awss_report_token
 1670              	awss_report_token:
 1671              	.LFB72:
 375:C:/Users/stapi/OneDrive/Desktop/GD32VW553/V1_MQTT_OK/GD32VW55X_Wifi_BLE_SDK/GD32VW55x_RELEASE_V1.0.2/MSDK/cloud/alicloud/src/services/dev_bind\awss_report.c **** 
 376:C:/Users/stapi/OneDrive/Desktop/GD32VW553/V1_MQTT_OK/GD32VW55X_Wifi_BLE_SDK/GD32VW55x_RELEASE_V1.0.2/MSDK/cloud/alicloud/src/services/dev_bind\awss_report.c **** int awss_report_token()
 377:C:/Users/stapi/OneDrive/Desktop/GD32VW553/V1_MQTT_OK/GD32VW55X_Wifi_BLE_SDK/GD32VW55x_RELEASE_V1.0.2/MSDK/cloud/alicloud/src/services/dev_bind\awss_report.c **** {
 1672              		.loc 2 377 1 is_stmt 1
 1673              		.cfi_startproc
 378:C:/Users/stapi/OneDrive/Desktop/GD32VW553/V1_MQTT_OK/GD32VW55X_Wifi_BLE_SDK/GD32VW55x_RELEASE_V1.0.2/MSDK/cloud/alicloud/src/services/dev_bind\awss_report.c ****     awss_report_token_cnt = 0;
 1674              		.loc 2 378 5
 1675              		.loc 2 378 27 is_stmt 0
 1676 0000 B7070000 		lui	a5,%hi(.LANCHOR2)
 1677 0004 23800700 		sb	zero,%lo(.LANCHOR2)(a5)
 379:C:/Users/stapi/OneDrive/Desktop/GD32VW553/V1_MQTT_OK/GD32VW55X_Wifi_BLE_SDK/GD32VW55x_RELEASE_V1.0.2/MSDK/cloud/alicloud/src/services/dev_bind\awss_report.c ****     awss_report_token_suc = 0;
 1678              		.loc 2 379 5 is_stmt 1
 1679              		.loc 2 379 27 is_stmt 0
 1680 0008 B7070000 		lui	a5,%hi(.LANCHOR1)
 1681 000c 23800700 		sb	zero,%lo(.LANCHOR1)(a5)
 380:C:/Users/stapi/OneDrive/Desktop/GD32VW553/V1_MQTT_OK/GD32VW55X_Wifi_BLE_SDK/GD32VW55x_RELEASE_V1.0.2/MSDK/cloud/alicloud/src/services/dev_bind\awss_report.c **** 
 381:C:/Users/stapi/OneDrive/Desktop/GD32VW553/V1_MQTT_OK/GD32VW55X_Wifi_BLE_SDK/GD32VW55x_RELEASE_V1.0.2/MSDK/cloud/alicloud/src/services/dev_bind\awss_report.c ****     return awss_report_token_to_cloud();
 1682              		.loc 2 381 5 is_stmt 1
 1683              		.loc 2 381 12 is_stmt 0
 1684 0010 17030000 		tail	awss_report_token_to_cloud
 1684      67000300 
 1685              	.LVL150:
 1686              		.cfi_endproc
 1687              	.LFE72:
 1689              		.section	.text.awss_stop_report_token,"ax",@progbits
 1690              		.align	1
 1691              		.globl	awss_stop_report_token
 1693              	awss_stop_report_token:
 1694              	.LFB73:
 382:C:/Users/stapi/OneDrive/Desktop/GD32VW553/V1_MQTT_OK/GD32VW55X_Wifi_BLE_SDK/GD32VW55x_RELEASE_V1.0.2/MSDK/cloud/alicloud/src/services/dev_bind\awss_report.c **** }
 383:C:/Users/stapi/OneDrive/Desktop/GD32VW553/V1_MQTT_OK/GD32VW55X_Wifi_BLE_SDK/GD32VW55x_RELEASE_V1.0.2/MSDK/cloud/alicloud/src/services/dev_bind\awss_report.c **** 
 384:C:/Users/stapi/OneDrive/Desktop/GD32VW553/V1_MQTT_OK/GD32VW55X_Wifi_BLE_SDK/GD32VW55x_RELEASE_V1.0.2/MSDK/cloud/alicloud/src/services/dev_bind\awss_report.c **** int awss_stop_report_token()
 385:C:/Users/stapi/OneDrive/Desktop/GD32VW553/V1_MQTT_OK/GD32VW55X_Wifi_BLE_SDK/GD32VW55x_RELEASE_V1.0.2/MSDK/cloud/alicloud/src/services/dev_bind\awss_report.c **** {
 1695              		.loc 2 385 1 is_stmt 1
 1696              		.cfi_startproc
 1697 0000 17030000 		call	t0,__riscv_save_1
 1697      E7020300 
 1698              		.cfi_offset 8, -8
 1699              		.cfi_offset 1, -4
 1700              		.cfi_def_cfa_offset 16
 386:C:/Users/stapi/OneDrive/Desktop/GD32VW553/V1_MQTT_OK/GD32VW55X_Wifi_BLE_SDK/GD32VW55x_RELEASE_V1.0.2/MSDK/cloud/alicloud/src/services/dev_bind\awss_report.c ****     if (report_token_timer) {
 1701              		.loc 2 386 5
 1702              		.loc 2 386 9 is_stmt 0
 1703 0008 37040000 		lui	s0,%hi(.LANCHOR3)
 1704 000c 13040400 		addi	s0,s0,%lo(.LANCHOR3)
 1705 0010 0840     		lw	a0,0(s0)
 1706              		.loc 2 386 8
 1707 0012 19C5     		beq	a0,zero,.L96
 387:C:/Users/stapi/OneDrive/Desktop/GD32VW553/V1_MQTT_OK/GD32VW55X_Wifi_BLE_SDK/GD32VW55x_RELEASE_V1.0.2/MSDK/cloud/alicloud/src/services/dev_bind\awss_report.c ****         awss_stop_timer(report_token_timer);
 1708              		.loc 2 387 9 is_stmt 1
 1709 0014 97000000 		call	awss_stop_timer
 1709      E7800000 
 1710              	.LVL151:
 388:C:/Users/stapi/OneDrive/Desktop/GD32VW553/V1_MQTT_OK/GD32VW55X_Wifi_BLE_SDK/GD32VW55x_RELEASE_V1.0.2/MSDK/cloud/alicloud/src/services/dev_bind\awss_report.c ****         report_token_timer = NULL;
 1711              		.loc 2 388 9
 1712              		.loc 2 388 28 is_stmt 0
 1713 001c 23200400 		sw	zero,0(s0)
 1714              	.L96:
 389:C:/Users/stapi/OneDrive/Desktop/GD32VW553/V1_MQTT_OK/GD32VW55X_Wifi_BLE_SDK/GD32VW55x_RELEASE_V1.0.2/MSDK/cloud/alicloud/src/services/dev_bind\awss_report.c ****     }
 390:C:/Users/stapi/OneDrive/Desktop/GD32VW553/V1_MQTT_OK/GD32VW55X_Wifi_BLE_SDK/GD32VW55x_RELEASE_V1.0.2/MSDK/cloud/alicloud/src/services/dev_bind\awss_report.c **** 
 391:C:/Users/stapi/OneDrive/Desktop/GD32VW553/V1_MQTT_OK/GD32VW55X_Wifi_BLE_SDK/GD32VW55x_RELEASE_V1.0.2/MSDK/cloud/alicloud/src/services/dev_bind\awss_report.c ****     memset(g_aes_random, 0x00, sizeof(g_aes_random));
 1715              		.loc 2 391 5 is_stmt 1
 1716 0020 37050000 		lui	a0,%hi(g_aes_random)
 1717 0024 4146     		li	a2,16
 1718 0026 8145     		li	a1,0
 1719 0028 13050500 		addi	a0,a0,%lo(g_aes_random)
 1720 002c 97000000 		call	memset
 1720      E7800000 
 1721              	.LVL152:
 392:C:/Users/stapi/OneDrive/Desktop/GD32VW553/V1_MQTT_OK/GD32VW55X_Wifi_BLE_SDK/GD32VW55x_RELEASE_V1.0.2/MSDK/cloud/alicloud/src/services/dev_bind\awss_report.c ****     g_token_type = TOKEN_TYPE_INVALID;
 1722              		.loc 2 392 5
 1723              		.loc 2 392 18 is_stmt 0
 1724 0034 B7070000 		lui	a5,%hi(g_token_type)
 1725 0038 7D57     		li	a4,-1
 1726 003a 2380E700 		sb	a4,%lo(g_token_type)(a5)
 393:C:/Users/stapi/OneDrive/Desktop/GD32VW553/V1_MQTT_OK/GD32VW55X_Wifi_BLE_SDK/GD32VW55x_RELEASE_V1.0.2/MSDK/cloud/alicloud/src/services/dev_bind\awss_report.c **** 
 394:C:/Users/stapi/OneDrive/Desktop/GD32VW553/V1_MQTT_OK/GD32VW55X_Wifi_BLE_SDK/GD32VW55x_RELEASE_V1.0.2/MSDK/cloud/alicloud/src/services/dev_bind\awss_report.c ****     return 0;
 1727              		.loc 2 394 5 is_stmt 1
 395:C:/Users/stapi/OneDrive/Desktop/GD32VW553/V1_MQTT_OK/GD32VW55X_Wifi_BLE_SDK/GD32VW55x_RELEASE_V1.0.2/MSDK/cloud/alicloud/src/services/dev_bind\awss_report.c **** }
 1728              		.loc 2 395 1 is_stmt 0
 1729 003e 0145     		li	a0,0
 1730 0040 17030000 		tail	__riscv_restore_1
 1730      67000300 
 1731              		.cfi_restore 8
 1732              		.cfi_restore 1
 1733              		.cfi_def_cfa_offset 0
 1734              		.cfi_endproc
 1735              	.LFE73:
 1737              		.globl	awss_report_token_cnt
 1738              		.globl	awss_report_token_suc
 1739              		.section	.bss.switchap_passwd,"aw",@nobits
 1740              		.align	2
 1741              		.set	.LANCHOR9,. + 0
 1744              	switchap_passwd:
 1745 0000 00000000 		.zero	65
 1745      00000000 
 1745      00000000 
 1745      00000000 
 1745      00000000 
 1746              		.section	.bss.switchap_ssid,"aw",@nobits
 1747              		.align	2
 1748              		.set	.LANCHOR10,. + 0
 1751              	switchap_ssid:
 1752 0000 00000000 		.zero	33
 1752      00000000 
 1752      00000000 
 1752      00000000 
 1752      00000000 
 1753              		.section	.rodata.__FUNCTION__.0,"a"
 1754              		.align	2
 1755              		.set	.LANCHOR13,. + 0
 1758              	__FUNCTION__.0:
 1759 0000 61777373 		.string	"awss_online_switchap"
 1759      5F6F6E6C 
 1759      696E655F 
 1759      73776974 
 1759      63686170 
 1760              		.section	.rodata.__FUNCTION__.2,"a"
 1761              		.align	2
 1762              		.set	.LANCHOR6,. + 0
 1765              	__FUNCTION__.2:
 1766 0000 61777373 		.string	"awss_report_token_to_cloud"
 1766      5F726570 
 1766      6F72745F 
 1766      746F6B65 
 1766      6E5F746F 
 1767              		.section	.rodata.__func__.1,"a"
 1768              		.align	2
 1769              		.set	.LANCHOR12,. + 0
 1772              	__func__.1:
 1773 0000 61777373 		.string	"awss_report_token_reply"
 1773      5F726570 
 1773      6F72745F 
 1773      746F6B65 
 1773      6E5F7265 
 1774              		.section	.sbss.awss_report_id,"aw",@nobits
 1775              		.set	.LANCHOR5,. + 0
 1778              	awss_report_id:
 1779 0000 00       		.zero	1
 1780              		.section	.sbss.awss_report_token_cnt,"aw",@nobits
 1781              		.set	.LANCHOR2,. + 0
 1784              	awss_report_token_cnt:
 1785 0000 00       		.zero	1
 1786              		.section	.sbss.awss_report_token_suc,"aw",@nobits
 1787              		.set	.LANCHOR1,. + 0
 1790              	awss_report_token_suc:
 1791 0000 00       		.zero	1
 1792              		.section	.sbss.awss_report_token_time,"aw",@nobits
 1793              		.align	2
 1794              		.set	.LANCHOR4,. + 0
 1797              	awss_report_token_time:
 1798 0000 00000000 		.zero	4
 1799              		.section	.sbss.fixed_delta.3,"aw",@nobits
 1800              		.align	2
 1801              		.set	.LANCHOR0,. + 0
 1804              	fixed_delta.3:
 1805 0000 00000000 		.zero	4
 1806              		.section	.sbss.reboot_timer,"aw",@nobits
 1807              		.align	2
 1808              		.set	.LANCHOR7,. + 0
 1811              	reboot_timer:
 1812 0000 00000000 		.zero	4
 1813              		.section	.sbss.report_token_timer,"aw",@nobits
 1814              		.align	2
 1815              		.set	.LANCHOR3,. + 0
 1818              	report_token_timer:
 1819 0000 00000000 		.zero	4
 1820              		.section	.sbss.switchap_bssid,"aw",@nobits
 1821              		.align	2
 1822              		.set	.LANCHOR8,. + 0
 1825              	switchap_bssid:
 1826 0000 00000000 		.zero	6
 1826      0000
 1827              		.section	.sbss.switchap_timer,"aw",@nobits
 1828              		.align	2
 1829              		.set	.LANCHOR11,. + 0
 1832              	switchap_timer:
 1833 0000 00000000 		.zero	4
 1834              		.text
 1835              	.Letext0:
 1836              		.file 3 "c:\\users\\stapi\\onedrive\\desktop\\gd32vw553\\embeddedbuilder_v1.4.7.26843\\tools\\nucl
 1837              		.file 4 "c:\\users\\stapi\\onedrive\\desktop\\gd32vw553\\embeddedbuilder_v1.4.7.26843\\tools\\nucl
 1838              		.file 5 "C:/Users/stapi/OneDrive/Desktop/GD32VW553/V1_MQTT_OK/GD32VW55X_Wifi_BLE_SDK/GD32VW55x_REL
 1839              		.file 6 "C:/Users/stapi/OneDrive/Desktop/GD32VW553/V1_MQTT_OK/GD32VW55X_Wifi_BLE_SDK/GD32VW55x_REL
 1840              		.file 7 "..\\..\\..\\..\\cloud\\alicloud\\include/iot_export.h"
 1841              		.file 8 "..\\..\\..\\..\\cloud\\alicloud\\include\\exports/iot_export_event.h"
 1842              		.file 9 "..\\..\\..\\..\\cloud\\alicloud\\include/imports/iot_import_awss.h"
 1843              		.file 10 "C:/Users/stapi/OneDrive/Desktop/GD32VW553/V1_MQTT_OK/GD32VW55X_Wifi_BLE_SDK/GD32VW55x_RE
 1844              		.file 11 "C:/Users/stapi/OneDrive/Desktop/GD32VW553/V1_MQTT_OK/GD32VW55X_Wifi_BLE_SDK/GD32VW55x_RE
 1845              		.file 12 "c:\\users\\stapi\\onedrive\\desktop\\gd32vw553\\embeddedbuilder_v1.4.7.26843\\tools\\nuc
 1846              		.file 13 "..\\..\\..\\..\\cloud\\alicloud\\include/iot_import.h"
 1847              		.file 14 "..\\..\\..\\..\\cloud\\alicloud\\src\\infra\\log/iotx_log.h"
 1848              		.file 15 "C:/Users/stapi/OneDrive/Desktop/GD32VW553/V1_MQTT_OK/GD32VW55X_Wifi_BLE_SDK/GD32VW55x_RE
 1849              		.file 16 "c:\\users\\stapi\\onedrive\\desktop\\gd32vw553\\embeddedbuilder_v1.4.7.26843\\tools\\nuc
 1850              		.file 17 "..\\..\\..\\..\\cloud\\alicloud\\src\\infra\\utils\\misc/json_parser.h"
 1851              		.file 18 "<built-in>"
 1852              		.file 19 "c:\\users\\stapi\\onedrive\\desktop\\gd32vw553\\embeddedbuilder_v1.4.7.26843\\tools\\nuc
DEFINED SYMBOLS
                            *ABS*:0000000000000000 awss_report.c
C:\Users\stapi\AppData\Local\Temp\ccUZ5Gtk.s:12     .text.os_get_time_ms:0000000000000000 os_get_time_ms
C:\Users\stapi\AppData\Local\Temp\ccUZ5Gtk.s:16     .text.os_get_time_ms:0000000000000000 .L0 
C:\Users\stapi\AppData\Local\Temp\ccUZ5Gtk.s:17     .text.os_get_time_ms:0000000000000000 .L0 
C:\Users\stapi\AppData\Local\Temp\ccUZ5Gtk.s:18     .text.os_get_time_ms:0000000000000008 .L0 
C:\Users\stapi\AppData\Local\Temp\ccUZ5Gtk.s:19     .text.os_get_time_ms:0000000000000008 .L0 
C:\Users\stapi\AppData\Local\Temp\ccUZ5Gtk.s:20     .text.os_get_time_ms:0000000000000008 .L0 
C:\Users\stapi\AppData\Local\Temp\ccUZ5Gtk.s:22     .text.os_get_time_ms:0000000000000008 .L0 
C:\Users\stapi\AppData\Local\Temp\ccUZ5Gtk.s:23     .text.os_get_time_ms:0000000000000008 .L0 
C:\Users\stapi\AppData\Local\Temp\ccUZ5Gtk.s:24     .text.os_get_time_ms:0000000000000008 .L0 
C:\Users\stapi\AppData\Local\Temp\ccUZ5Gtk.s:26     .text.os_get_time_ms:000000000000000c .L0 
C:\Users\stapi\AppData\Local\Temp\ccUZ5Gtk.s:30     .text.os_get_time_ms:0000000000000016 .L0 
C:\Users\stapi\AppData\Local\Temp\ccUZ5Gtk.s:31     .text.os_get_time_ms:0000000000000016 .L0 
C:\Users\stapi\AppData\Local\Temp\ccUZ5Gtk.s:34     .text.os_get_time_ms:000000000000001e .L0 
C:\Users\stapi\AppData\Local\Temp\ccUZ5Gtk.s:37     .text.os_get_time_ms:0000000000000022 .L0 
C:\Users\stapi\AppData\Local\Temp\ccUZ5Gtk.s:40     .text.os_get_time_ms:0000000000000024 .L0 
C:\Users\stapi\AppData\Local\Temp\ccUZ5Gtk.s:41     .text.os_get_time_ms:0000000000000024 .L0 
C:\Users\stapi\AppData\Local\Temp\ccUZ5Gtk.s:44     .text.os_get_time_ms:000000000000002c .L0 
C:\Users\stapi\AppData\Local\Temp\ccUZ5Gtk.s:46     .text.os_get_time_ms:000000000000002e .L0 
C:\Users\stapi\AppData\Local\Temp\ccUZ5Gtk.s:48     .text.os_get_time_ms:0000000000000038 .L0 
C:\Users\stapi\AppData\Local\Temp\ccUZ5Gtk.s:49     .text.os_get_time_ms:0000000000000038 .L0 
C:\Users\stapi\AppData\Local\Temp\ccUZ5Gtk.s:50     .text.os_get_time_ms:0000000000000038 .L0 
C:\Users\stapi\AppData\Local\Temp\ccUZ5Gtk.s:51     .text.os_get_time_ms:0000000000000038 .L0 
C:\Users\stapi\AppData\Local\Temp\ccUZ5Gtk.s:112    .text.awss_report_token_to_cloud:0000000000000000 awss_report_token_to_cloud
C:\Users\stapi\AppData\Local\Temp\ccUZ5Gtk.s:116    .text.awss_report_token_to_cloud:0000000000000000 .L0 
C:\Users\stapi\AppData\Local\Temp\ccUZ5Gtk.s:117    .text.awss_report_token_to_cloud:0000000000000000 .L0 
C:\Users\stapi\AppData\Local\Temp\ccUZ5Gtk.s:118    .text.awss_report_token_to_cloud:0000000000000008 .L0 
C:\Users\stapi\AppData\Local\Temp\ccUZ5Gtk.s:119    .text.awss_report_token_to_cloud:0000000000000008 .L0 
C:\Users\stapi\AppData\Local\Temp\ccUZ5Gtk.s:120    .text.awss_report_token_to_cloud:0000000000000008 .L0 
C:\Users\stapi\AppData\Local\Temp\ccUZ5Gtk.s:121    .text.awss_report_token_to_cloud:0000000000000008 .L0 
C:\Users\stapi\AppData\Local\Temp\ccUZ5Gtk.s:122    .text.awss_report_token_to_cloud:0000000000000008 .L0 
C:\Users\stapi\AppData\Local\Temp\ccUZ5Gtk.s:123    .text.awss_report_token_to_cloud:0000000000000008 .L0 
C:\Users\stapi\AppData\Local\Temp\ccUZ5Gtk.s:125    .text.awss_report_token_to_cloud:0000000000000008 .L0 
C:\Users\stapi\AppData\Local\Temp\ccUZ5Gtk.s:126    .text.awss_report_token_to_cloud:0000000000000008 .L0 
C:\Users\stapi\AppData\Local\Temp\ccUZ5Gtk.s:127    .text.awss_report_token_to_cloud:0000000000000008 .L0 
C:\Users\stapi\AppData\Local\Temp\ccUZ5Gtk.s:130    .text.awss_report_token_to_cloud:0000000000000010 .L0 
C:\Users\stapi\AppData\Local\Temp\ccUZ5Gtk.s:131    .text.awss_report_token_to_cloud:0000000000000012 .L0 
C:\Users\stapi\AppData\Local\Temp\ccUZ5Gtk.s:133    .text.awss_report_token_to_cloud:0000000000000012 .L0 
C:\Users\stapi\AppData\Local\Temp\ccUZ5Gtk.s:135    .text.awss_report_token_to_cloud:0000000000000016 .L0 
C:\Users\stapi\AppData\Local\Temp\ccUZ5Gtk.s:137    .text.awss_report_token_to_cloud:0000000000000018 .L0 
C:\Users\stapi\AppData\Local\Temp\ccUZ5Gtk.s:145    .text.awss_report_token_to_cloud:0000000000000030 .L0 
C:\Users\stapi\AppData\Local\Temp\ccUZ5Gtk.s:146    .text.awss_report_token_to_cloud:0000000000000030 .L0 
C:\Users\stapi\AppData\Local\Temp\ccUZ5Gtk.s:149    .text.awss_report_token_to_cloud:0000000000000034 .L0 
C:\Users\stapi\AppData\Local\Temp\ccUZ5Gtk.s:151    .text.awss_report_token_to_cloud:0000000000000038 .L0 
C:\Users\stapi\AppData\Local\Temp\ccUZ5Gtk.s:152    .text.awss_report_token_to_cloud:0000000000000038 .L0 
C:\Users\stapi\AppData\Local\Temp\ccUZ5Gtk.s:154    .text.awss_report_token_to_cloud:0000000000000040 .L0 
C:\Users\stapi\AppData\Local\Temp\ccUZ5Gtk.s:155    .text.awss_report_token_to_cloud:0000000000000040 .L0 
C:\Users\stapi\AppData\Local\Temp\ccUZ5Gtk.s:156    .text.awss_report_token_to_cloud:0000000000000040 .L0 
C:\Users\stapi\AppData\Local\Temp\ccUZ5Gtk.s:157    .text.awss_report_token_to_cloud:0000000000000040 .L0 
C:\Users\stapi\AppData\Local\Temp\ccUZ5Gtk.s:158    .text.awss_report_token_to_cloud:0000000000000040 .L0 
C:\Users\stapi\AppData\Local\Temp\ccUZ5Gtk.s:159    .text.awss_report_token_to_cloud:0000000000000040 .L0 
C:\Users\stapi\AppData\Local\Temp\ccUZ5Gtk.s:161    .text.awss_report_token_to_cloud:0000000000000040 .L0 
C:\Users\stapi\AppData\Local\Temp\ccUZ5Gtk.s:163    .text.awss_report_token_to_cloud:0000000000000040 .L0 
C:\Users\stapi\AppData\Local\Temp\ccUZ5Gtk.s:165    .text.awss_report_token_to_cloud:0000000000000042 .L0 
C:\Users\stapi\AppData\Local\Temp\ccUZ5Gtk.s:167    .text.awss_report_token_to_cloud:0000000000000046 .L0 
C:\Users\stapi\AppData\Local\Temp\ccUZ5Gtk.s:170    .text.awss_report_token_to_cloud:000000000000004e .L0 
C:\Users\stapi\AppData\Local\Temp\ccUZ5Gtk.s:171    .text.awss_report_token_to_cloud:000000000000004e .L0 
C:\Users\stapi\AppData\Local\Temp\ccUZ5Gtk.s:180    .text.awss_report_token_to_cloud:000000000000006e .L0 
C:\Users\stapi\AppData\Local\Temp\ccUZ5Gtk.s:184    .text.awss_report_token_to_cloud:0000000000000078 .L0 
C:\Users\stapi\AppData\Local\Temp\ccUZ5Gtk.s:188    .text.awss_report_token_to_cloud:0000000000000082 .L0 
C:\Users\stapi\AppData\Local\Temp\ccUZ5Gtk.s:189    .text.awss_report_token_to_cloud:0000000000000082 .L0 
C:\Users\stapi\AppData\Local\Temp\ccUZ5Gtk.s:192    .text.awss_report_token_to_cloud:000000000000008a .L0 
C:\Users\stapi\AppData\Local\Temp\ccUZ5Gtk.s:194    .text.awss_report_token_to_cloud:000000000000008e .L0 
C:\Users\stapi\AppData\Local\Temp\ccUZ5Gtk.s:195    .text.awss_report_token_to_cloud:000000000000008e .L0 
C:\Users\stapi\AppData\Local\Temp\ccUZ5Gtk.s:198    .text.awss_report_token_to_cloud:0000000000000096 .L0 
C:\Users\stapi\AppData\Local\Temp\ccUZ5Gtk.s:205    .text.awss_report_token_to_cloud:00000000000000ae .L0 
C:\Users\stapi\AppData\Local\Temp\ccUZ5Gtk.s:209    .text.awss_report_token_to_cloud:00000000000000ba .L0 
C:\Users\stapi\AppData\Local\Temp\ccUZ5Gtk.s:210    .text.awss_report_token_to_cloud:00000000000000ba .L0 
C:\Users\stapi\AppData\Local\Temp\ccUZ5Gtk.s:218    .text.awss_report_token_to_cloud:00000000000000d2 .L0 
C:\Users\stapi\AppData\Local\Temp\ccUZ5Gtk.s:219    .text.awss_report_token_to_cloud:00000000000000d2 .L0 
C:\Users\stapi\AppData\Local\Temp\ccUZ5Gtk.s:223    .text.awss_report_token_to_cloud:00000000000000d8 .L0 
C:\Users\stapi\AppData\Local\Temp\ccUZ5Gtk.s:224    .text.awss_report_token_to_cloud:00000000000000d8 .L0 
C:\Users\stapi\AppData\Local\Temp\ccUZ5Gtk.s:227    .text.awss_report_token_to_cloud:00000000000000dc .L0 
C:\Users\stapi\AppData\Local\Temp\ccUZ5Gtk.s:228    .text.awss_report_token_to_cloud:00000000000000dc .L0 
C:\Users\stapi\AppData\Local\Temp\ccUZ5Gtk.s:236    .text.awss_report_token_to_cloud:00000000000000f6 .L0 
C:\Users\stapi\AppData\Local\Temp\ccUZ5Gtk.s:239    .text.awss_report_token_to_cloud:00000000000000f8 .L0 
C:\Users\stapi\AppData\Local\Temp\ccUZ5Gtk.s:243    .text.awss_report_token_to_cloud:0000000000000102 .L0 
C:\Users\stapi\AppData\Local\Temp\ccUZ5Gtk.s:249    .text.awss_report_token_to_cloud:0000000000000112 .L0 
C:\Users\stapi\AppData\Local\Temp\ccUZ5Gtk.s:250    .text.awss_report_token_to_cloud:0000000000000112 .L0 
C:\Users\stapi\AppData\Local\Temp\ccUZ5Gtk.s:256    .text.awss_report_token_to_cloud:0000000000000116 .L0 
C:\Users\stapi\AppData\Local\Temp\ccUZ5Gtk.s:262    .text.awss_report_token_to_cloud:000000000000011a .L0 
C:\Users\stapi\AppData\Local\Temp\ccUZ5Gtk.s:267    .text.awss_report_token_to_cloud:000000000000011c .L0 
C:\Users\stapi\AppData\Local\Temp\ccUZ5Gtk.s:270    .text.awss_report_token_to_cloud:000000000000011c .L0 
C:\Users\stapi\AppData\Local\Temp\ccUZ5Gtk.s:271    .text.awss_report_token_to_cloud:000000000000011c .L0 
C:\Users\stapi\AppData\Local\Temp\ccUZ5Gtk.s:272    .text.awss_report_token_to_cloud:000000000000011c .L0 
C:\Users\stapi\AppData\Local\Temp\ccUZ5Gtk.s:279    .text.awss_report_token_to_cloud:0000000000000126 .L0 
C:\Users\stapi\AppData\Local\Temp\ccUZ5Gtk.s:280    .text.awss_report_token_to_cloud:0000000000000126 .L0 
C:\Users\stapi\AppData\Local\Temp\ccUZ5Gtk.s:282    .text.awss_report_token_to_cloud:000000000000012a .L0 
C:\Users\stapi\AppData\Local\Temp\ccUZ5Gtk.s:289    .text.awss_report_token_to_cloud:0000000000000138 .L0 
C:\Users\stapi\AppData\Local\Temp\ccUZ5Gtk.s:290    .text.awss_report_token_to_cloud:0000000000000138 .L0 
C:\Users\stapi\AppData\Local\Temp\ccUZ5Gtk.s:292    .text.awss_report_token_to_cloud:0000000000000138 .L0 
C:\Users\stapi\AppData\Local\Temp\ccUZ5Gtk.s:293    .text.awss_report_token_to_cloud:0000000000000138 .L0 
C:\Users\stapi\AppData\Local\Temp\ccUZ5Gtk.s:294    .text.awss_report_token_to_cloud:0000000000000138 .L0 
C:\Users\stapi\AppData\Local\Temp\ccUZ5Gtk.s:295    .text.awss_report_token_to_cloud:0000000000000138 .L0 
C:\Users\stapi\AppData\Local\Temp\ccUZ5Gtk.s:296    .text.awss_report_token_to_cloud:0000000000000138 .L0 
C:\Users\stapi\AppData\Local\Temp\ccUZ5Gtk.s:300    .text.awss_report_token_to_cloud:0000000000000140 .L0 
C:\Users\stapi\AppData\Local\Temp\ccUZ5Gtk.s:305    .text.awss_report_token_to_cloud:0000000000000148 .L0 
C:\Users\stapi\AppData\Local\Temp\ccUZ5Gtk.s:306    .text.awss_report_token_to_cloud:0000000000000148 .L0 
C:\Users\stapi\AppData\Local\Temp\ccUZ5Gtk.s:310    .text.awss_report_token_to_cloud:0000000000000152 .L0 
C:\Users\stapi\AppData\Local\Temp\ccUZ5Gtk.s:311    .text.awss_report_token_to_cloud:0000000000000152 .L0 
C:\Users\stapi\AppData\Local\Temp\ccUZ5Gtk.s:318    .text.awss_report_token_to_cloud:0000000000000162 .L0 
C:\Users\stapi\AppData\Local\Temp\ccUZ5Gtk.s:319    .text.awss_report_token_to_cloud:0000000000000162 .L0 
C:\Users\stapi\AppData\Local\Temp\ccUZ5Gtk.s:322    .text.awss_report_token_to_cloud:000000000000016a .L0 
C:\Users\stapi\AppData\Local\Temp\ccUZ5Gtk.s:325    .text.awss_report_token_to_cloud:0000000000000172 .L0 
C:\Users\stapi\AppData\Local\Temp\ccUZ5Gtk.s:326    .text.awss_report_token_to_cloud:0000000000000172 .L0 
C:\Users\stapi\AppData\Local\Temp\ccUZ5Gtk.s:329    .text.awss_report_token_to_cloud:000000000000017a .L0 
C:\Users\stapi\AppData\Local\Temp\ccUZ5Gtk.s:331    .text.awss_report_token_to_cloud:000000000000017e .L0 
C:\Users\stapi\AppData\Local\Temp\ccUZ5Gtk.s:333    .text.awss_report_token_to_cloud:0000000000000182 .L0 
C:\Users\stapi\AppData\Local\Temp\ccUZ5Gtk.s:335    .text.awss_report_token_to_cloud:0000000000000186 .L0 
C:\Users\stapi\AppData\Local\Temp\ccUZ5Gtk.s:337    .text.awss_report_token_to_cloud:000000000000018a .L0 
C:\Users\stapi\AppData\Local\Temp\ccUZ5Gtk.s:340    .text.awss_report_token_to_cloud:000000000000018e .L0 
C:\Users\stapi\AppData\Local\Temp\ccUZ5Gtk.s:342    .text.awss_report_token_to_cloud:0000000000000192 .L0 
C:\Users\stapi\AppData\Local\Temp\ccUZ5Gtk.s:345    .text.awss_report_token_to_cloud:000000000000019a .L0 
C:\Users\stapi\AppData\Local\Temp\ccUZ5Gtk.s:351    .text.awss_report_token_to_cloud:00000000000001aa .L0 
C:\Users\stapi\AppData\Local\Temp\ccUZ5Gtk.s:359    .text.awss_report_token_to_cloud:00000000000001c2 .L0 
C:\Users\stapi\AppData\Local\Temp\ccUZ5Gtk.s:372    .text.awss_report_token_to_cloud:00000000000001e8 .L0 
C:\Users\stapi\AppData\Local\Temp\ccUZ5Gtk.s:380    .text.awss_report_token_to_cloud:0000000000000200 .L0 
C:\Users\stapi\AppData\Local\Temp\ccUZ5Gtk.s:388    .text.awss_report_token_to_cloud:0000000000000212 .L0 
C:\Users\stapi\AppData\Local\Temp\ccUZ5Gtk.s:389    .text.awss_report_token_to_cloud:0000000000000212 .L0 
C:\Users\stapi\AppData\Local\Temp\ccUZ5Gtk.s:401    .text.awss_report_token_to_cloud:000000000000023a .L0 
C:\Users\stapi\AppData\Local\Temp\ccUZ5Gtk.s:402    .text.awss_report_token_to_cloud:000000000000023a .L0 
C:\Users\stapi\AppData\Local\Temp\ccUZ5Gtk.s:409    .text.awss_report_token_to_cloud:000000000000024c .L0 
C:\Users\stapi\AppData\Local\Temp\ccUZ5Gtk.s:416    .text.awss_report_token_to_cloud:0000000000000262 .L0 
C:\Users\stapi\AppData\Local\Temp\ccUZ5Gtk.s:417    .text.awss_report_token_to_cloud:0000000000000262 .L0 
C:\Users\stapi\AppData\Local\Temp\ccUZ5Gtk.s:426    .text.awss_report_token_to_cloud:0000000000000274 .L0 
C:\Users\stapi\AppData\Local\Temp\ccUZ5Gtk.s:427    .text.awss_report_token_to_cloud:0000000000000274 .L0 
C:\Users\stapi\AppData\Local\Temp\ccUZ5Gtk.s:432    .text.awss_report_token_to_cloud:0000000000000284 .L0 
C:\Users\stapi\AppData\Local\Temp\ccUZ5Gtk.s:438    .text.awss_report_token_to_cloud:0000000000000296 .L0 
C:\Users\stapi\AppData\Local\Temp\ccUZ5Gtk.s:442    .text.awss_report_token_to_cloud:00000000000002a2 .L0 
C:\Users\stapi\AppData\Local\Temp\ccUZ5Gtk.s:443    .text.awss_report_token_to_cloud:00000000000002a2 .L0 
C:\Users\stapi\AppData\Local\Temp\ccUZ5Gtk.s:444    .text.awss_report_token_to_cloud:00000000000002a2 .L0 
C:\Users\stapi\AppData\Local\Temp\ccUZ5Gtk.s:446    .text.awss_report_token_to_cloud:00000000000002a6 .L0 
C:\Users\stapi\AppData\Local\Temp\ccUZ5Gtk.s:457    .text.awss_report_token_to_cloud:00000000000002be .L0 
C:\Users\stapi\AppData\Local\Temp\ccUZ5Gtk.s:458    .text.awss_report_token_to_cloud:00000000000002be .L0 
C:\Users\stapi\AppData\Local\Temp\ccUZ5Gtk.s:464    .text.awss_report_token_to_cloud:00000000000002c8 .L0 
C:\Users\stapi\AppData\Local\Temp\ccUZ5Gtk.s:465    .text.awss_report_token_to_cloud:00000000000002c8 .L0 
C:\Users\stapi\AppData\Local\Temp\ccUZ5Gtk.s:473    .text.awss_report_token_to_cloud:00000000000002ca .L0 
C:\Users\stapi\AppData\Local\Temp\ccUZ5Gtk.s:474    .text.awss_report_token_to_cloud:00000000000002ca .L0 
C:\Users\stapi\AppData\Local\Temp\ccUZ5Gtk.s:475    .text.awss_report_token_to_cloud:00000000000002ca .L0 
C:\Users\stapi\AppData\Local\Temp\ccUZ5Gtk.s:476    .text.awss_report_token_to_cloud:00000000000002ca .L0 
C:\Users\stapi\AppData\Local\Temp\ccUZ5Gtk.s:481    .text.awss_report_token_to_cloud:00000000000002da .L0 
C:\Users\stapi\AppData\Local\Temp\ccUZ5Gtk.s:487    .text.awss_report_token_to_cloud:00000000000002ec .L0 
C:\Users\stapi\AppData\Local\Temp\ccUZ5Gtk.s:491    .text.awss_report_token_to_cloud:00000000000002f8 .L0 
C:\Users\stapi\AppData\Local\Temp\ccUZ5Gtk.s:492    .text.awss_report_token_to_cloud:00000000000002f8 .L0 
C:\Users\stapi\AppData\Local\Temp\ccUZ5Gtk.s:493    .text.awss_report_token_to_cloud:00000000000002f8 .L0 
C:\Users\stapi\AppData\Local\Temp\ccUZ5Gtk.s:495    .text.awss_report_token_to_cloud:00000000000002fe .L0 
C:\Users\stapi\AppData\Local\Temp\ccUZ5Gtk.s:501    .text.awss_reboot_system:0000000000000000 awss_reboot_system
C:\Users\stapi\AppData\Local\Temp\ccUZ5Gtk.s:504    .text.awss_reboot_system:0000000000000000 .L0 
C:\Users\stapi\AppData\Local\Temp\ccUZ5Gtk.s:505    .text.awss_reboot_system:0000000000000000 .L0 
C:\Users\stapi\AppData\Local\Temp\ccUZ5Gtk.s:506    .text.awss_reboot_system:0000000000000008 .L0 
C:\Users\stapi\AppData\Local\Temp\ccUZ5Gtk.s:507    .text.awss_reboot_system:0000000000000008 .L0 
C:\Users\stapi\AppData\Local\Temp\ccUZ5Gtk.s:508    .text.awss_reboot_system:0000000000000008 .L0 
C:\Users\stapi\AppData\Local\Temp\ccUZ5Gtk.s:510    .text.awss_reboot_system:0000000000000008 .L0 
C:\Users\stapi\AppData\Local\Temp\ccUZ5Gtk.s:516    .text.awss_reboot_system:000000000000001a .L0 
C:\Users\stapi\AppData\Local\Temp\ccUZ5Gtk.s:517    .text.awss_reboot_system:000000000000001a .L0 
C:\Users\stapi\AppData\Local\Temp\ccUZ5Gtk.s:521    .text.awss_reboot_system:000000000000001e .L0 
C:\Users\stapi\AppData\Local\Temp\ccUZ5Gtk.s:522    .text.awss_reboot_system:000000000000001e .L0 
C:\Users\stapi\AppData\Local\Temp\ccUZ5Gtk.s:528    .text.awss_reboot_system:0000000000000026 .L0 
C:\Users\stapi\AppData\Local\Temp\ccUZ5Gtk.s:529    .text.awss_reboot_system:0000000000000026 .L0 
C:\Users\stapi\AppData\Local\Temp\ccUZ5Gtk.s:530    .text.awss_reboot_system:0000000000000026 .L0 
C:\Users\stapi\AppData\Local\Temp\ccUZ5Gtk.s:531    .text.awss_reboot_system:0000000000000028 .L0 
C:\Users\stapi\AppData\Local\Temp\ccUZ5Gtk.s:541    .text.awss_switch_ap_online:0000000000000000 awss_switch_ap_online
C:\Users\stapi\AppData\Local\Temp\ccUZ5Gtk.s:544    .text.awss_switch_ap_online:0000000000000000 .L0 
C:\Users\stapi\AppData\Local\Temp\ccUZ5Gtk.s:545    .text.awss_switch_ap_online:0000000000000000 .L0 
C:\Users\stapi\AppData\Local\Temp\ccUZ5Gtk.s:546    .text.awss_switch_ap_online:0000000000000008 .L0 
C:\Users\stapi\AppData\Local\Temp\ccUZ5Gtk.s:547    .text.awss_switch_ap_online:0000000000000008 .L0 
C:\Users\stapi\AppData\Local\Temp\ccUZ5Gtk.s:548    .text.awss_switch_ap_online:0000000000000008 .L0 
C:\Users\stapi\AppData\Local\Temp\ccUZ5Gtk.s:549    .text.awss_switch_ap_online:0000000000000008 .L0 
C:\Users\stapi\AppData\Local\Temp\ccUZ5Gtk.s:550    .text.awss_switch_ap_online:0000000000000008 .L0 
C:\Users\stapi\AppData\Local\Temp\ccUZ5Gtk.s:551    .text.awss_switch_ap_online:0000000000000008 .L0 
C:\Users\stapi\AppData\Local\Temp\ccUZ5Gtk.s:556    .text.awss_switch_ap_online:0000000000000008 .L0 
C:\Users\stapi\AppData\Local\Temp\ccUZ5Gtk.s:557    .text.awss_switch_ap_online:0000000000000008 .L0 
C:\Users\stapi\AppData\Local\Temp\ccUZ5Gtk.s:558    .text.awss_switch_ap_online:0000000000000008 .L0 
C:\Users\stapi\AppData\Local\Temp\ccUZ5Gtk.s:573    .text.awss_switch_ap_online:0000000000000034 .L0 
C:\Users\stapi\AppData\Local\Temp\ccUZ5Gtk.s:577    .text.awss_switch_ap_online:0000000000000038 .L0 
C:\Users\stapi\AppData\Local\Temp\ccUZ5Gtk.s:582    .text.awss_switch_ap_online:0000000000000040 .L0 
C:\Users\stapi\AppData\Local\Temp\ccUZ5Gtk.s:587    .text.awss_switch_ap_online:000000000000004e .L0 
C:\Users\stapi\AppData\Local\Temp\ccUZ5Gtk.s:588    .text.awss_switch_ap_online:000000000000004e .L0 
C:\Users\stapi\AppData\Local\Temp\ccUZ5Gtk.s:592    .text.awss_switch_ap_online:0000000000000058 .L0 
C:\Users\stapi\AppData\Local\Temp\ccUZ5Gtk.s:594    .text.awss_switch_ap_online:000000000000005c .L0 
C:\Users\stapi\AppData\Local\Temp\ccUZ5Gtk.s:597    .text.awss_switch_ap_online:0000000000000064 .L0 
C:\Users\stapi\AppData\Local\Temp\ccUZ5Gtk.s:598    .text.awss_switch_ap_online:0000000000000064 .L0 
C:\Users\stapi\AppData\Local\Temp\ccUZ5Gtk.s:602    .text.awss_switch_ap_online:000000000000006e .L0 
C:\Users\stapi\AppData\Local\Temp\ccUZ5Gtk.s:605    .text.awss_switch_ap_online:0000000000000076 .L0 
C:\Users\stapi\AppData\Local\Temp\ccUZ5Gtk.s:608    .text.awss_switch_ap_online:000000000000007e .L0 
C:\Users\stapi\AppData\Local\Temp\ccUZ5Gtk.s:609    .text.awss_switch_ap_online:000000000000007e .L0 
C:\Users\stapi\AppData\Local\Temp\ccUZ5Gtk.s:617    .text.awss_switch_ap_online:0000000000000098 .L0 
C:\Users\stapi\AppData\Local\Temp\ccUZ5Gtk.s:619    .text.awss_switch_ap_online:000000000000009c .L0 
C:\Users\stapi\AppData\Local\Temp\ccUZ5Gtk.s:621    .text.awss_switch_ap_online:00000000000000a0 .L0 
C:\Users\stapi\AppData\Local\Temp\ccUZ5Gtk.s:623    .text.awss_switch_ap_online:00000000000000a4 .L0 
C:\Users\stapi\AppData\Local\Temp\ccUZ5Gtk.s:626    .text.awss_switch_ap_online:00000000000000ac .L0 
C:\Users\stapi\AppData\Local\Temp\ccUZ5Gtk.s:627    .text.awss_switch_ap_online:00000000000000ac .L0 
C:\Users\stapi\AppData\Local\Temp\ccUZ5Gtk.s:628    .text.awss_switch_ap_online:00000000000000ac .L0 
C:\Users\stapi\AppData\Local\Temp\ccUZ5Gtk.s:630    .text.awss_switch_ap_online:00000000000000b6 .L0 
C:\Users\stapi\AppData\Local\Temp\ccUZ5Gtk.s:631    .text.awss_switch_ap_online:00000000000000b6 .L0 
C:\Users\stapi\AppData\Local\Temp\ccUZ5Gtk.s:632    .text.awss_switch_ap_online:00000000000000b6 .L0 
C:\Users\stapi\AppData\Local\Temp\ccUZ5Gtk.s:633    .text.awss_switch_ap_online:00000000000000b6 .L0 
C:\Users\stapi\AppData\Local\Temp\ccUZ5Gtk.s:634    .text.awss_switch_ap_online:00000000000000b6 .L0 
C:\Users\stapi\AppData\Local\Temp\ccUZ5Gtk.s:635    .text.awss_switch_ap_online:00000000000000b6 .L0 
C:\Users\stapi\AppData\Local\Temp\ccUZ5Gtk.s:636    .text.awss_switch_ap_online:00000000000000b6 .L0 
C:\Users\stapi\AppData\Local\Temp\ccUZ5Gtk.s:643    .text.awss_token_remain_time:0000000000000000 awss_token_remain_time
C:\Users\stapi\AppData\Local\Temp\ccUZ5Gtk.s:646    .text.awss_token_remain_time:0000000000000000 .L0 
C:\Users\stapi\AppData\Local\Temp\ccUZ5Gtk.s:647    .text.awss_token_remain_time:0000000000000000 .L0 
C:\Users\stapi\AppData\Local\Temp\ccUZ5Gtk.s:648    .text.awss_token_remain_time:0000000000000008 .L0 
C:\Users\stapi\AppData\Local\Temp\ccUZ5Gtk.s:649    .text.awss_token_remain_time:0000000000000008 .L0 
C:\Users\stapi\AppData\Local\Temp\ccUZ5Gtk.s:652    .text.awss_token_remain_time:0000000000000008 .L0 
C:\Users\stapi\AppData\Local\Temp\ccUZ5Gtk.s:653    .text.awss_token_remain_time:0000000000000008 .L0 
C:\Users\stapi\AppData\Local\Temp\ccUZ5Gtk.s:654    .text.awss_token_remain_time:0000000000000008 .L0 
C:\Users\stapi\AppData\Local\Temp\ccUZ5Gtk.s:657    .text.awss_token_remain_time:0000000000000010 .L0 
C:\Users\stapi\AppData\Local\Temp\ccUZ5Gtk.s:660    .text.awss_token_remain_time:0000000000000018 .L0 
C:\Users\stapi\AppData\Local\Temp\ccUZ5Gtk.s:662    .text.awss_token_remain_time:000000000000001c .L0 
C:\Users\stapi\AppData\Local\Temp\ccUZ5Gtk.s:665    .text.awss_token_remain_time:000000000000001e .L0 
C:\Users\stapi\AppData\Local\Temp\ccUZ5Gtk.s:666    .text.awss_token_remain_time:000000000000001e .L0 
C:\Users\stapi\AppData\Local\Temp\ccUZ5Gtk.s:669    .text.awss_token_remain_time:0000000000000022 .L0 
C:\Users\stapi\AppData\Local\Temp\ccUZ5Gtk.s:670    .text.awss_token_remain_time:0000000000000022 .L0 
C:\Users\stapi\AppData\Local\Temp\ccUZ5Gtk.s:673    .text.awss_token_remain_time:0000000000000024 .L0 
C:\Users\stapi\AppData\Local\Temp\ccUZ5Gtk.s:675    .text.awss_token_remain_time:0000000000000028 .L0 
C:\Users\stapi\AppData\Local\Temp\ccUZ5Gtk.s:677    .text.awss_token_remain_time:000000000000002a .L0 
C:\Users\stapi\AppData\Local\Temp\ccUZ5Gtk.s:678    .text.awss_token_remain_time:000000000000002a .L0 
C:\Users\stapi\AppData\Local\Temp\ccUZ5Gtk.s:680    .text.awss_token_remain_time:000000000000002c .L0 
C:\Users\stapi\AppData\Local\Temp\ccUZ5Gtk.s:683    .text.awss_token_remain_time:0000000000000030 .L0 
C:\Users\stapi\AppData\Local\Temp\ccUZ5Gtk.s:686    .text.awss_token_remain_time:0000000000000038 .L0 
C:\Users\stapi\AppData\Local\Temp\ccUZ5Gtk.s:687    .text.awss_token_remain_time:0000000000000038 .L0 
C:\Users\stapi\AppData\Local\Temp\ccUZ5Gtk.s:693    .text.awss_token_remain_time:0000000000000042 .L0 
C:\Users\stapi\AppData\Local\Temp\ccUZ5Gtk.s:694    .text.awss_token_remain_time:000000000000004a .L0 
C:\Users\stapi\AppData\Local\Temp\ccUZ5Gtk.s:695    .text.awss_token_remain_time:000000000000004a .L0 
C:\Users\stapi\AppData\Local\Temp\ccUZ5Gtk.s:696    .text.awss_token_remain_time:000000000000004a .L0 
C:\Users\stapi\AppData\Local\Temp\ccUZ5Gtk.s:707    .text.awss_update_token:0000000000000000 awss_update_token
C:\Users\stapi\AppData\Local\Temp\ccUZ5Gtk.s:710    .text.awss_update_token:0000000000000000 .L0 
C:\Users\stapi\AppData\Local\Temp\ccUZ5Gtk.s:711    .text.awss_update_token:0000000000000000 .L0 
C:\Users\stapi\AppData\Local\Temp\ccUZ5Gtk.s:712    .text.awss_update_token:0000000000000008 .L0 
C:\Users\stapi\AppData\Local\Temp\ccUZ5Gtk.s:713    .text.awss_update_token:0000000000000008 .L0 
C:\Users\stapi\AppData\Local\Temp\ccUZ5Gtk.s:714    .text.awss_update_token:0000000000000008 .L0 
C:\Users\stapi\AppData\Local\Temp\ccUZ5Gtk.s:716    .text.awss_update_token:0000000000000008 .L0 
C:\Users\stapi\AppData\Local\Temp\ccUZ5Gtk.s:717    .text.awss_update_token:0000000000000008 .L0 
C:\Users\stapi\AppData\Local\Temp\ccUZ5Gtk.s:720    .text.awss_update_token:0000000000000010 .L0 
C:\Users\stapi\AppData\Local\Temp\ccUZ5Gtk.s:721    .text.awss_update_token:0000000000000010 .L0 
C:\Users\stapi\AppData\Local\Temp\ccUZ5Gtk.s:724    .text.awss_update_token:0000000000000018 .L0 
C:\Users\stapi\AppData\Local\Temp\ccUZ5Gtk.s:725    .text.awss_update_token:0000000000000018 .L0 
C:\Users\stapi\AppData\Local\Temp\ccUZ5Gtk.s:727    .text.awss_update_token:000000000000001c .L0 
C:\Users\stapi\AppData\Local\Temp\ccUZ5Gtk.s:730    .text.awss_update_token:0000000000000024 .L0 
C:\Users\stapi\AppData\Local\Temp\ccUZ5Gtk.s:731    .text.awss_update_token:0000000000000024 .L0 
C:\Users\stapi\AppData\Local\Temp\ccUZ5Gtk.s:735    .text.awss_update_token:000000000000002e .L0 
C:\Users\stapi\AppData\Local\Temp\ccUZ5Gtk.s:736    .text.awss_update_token:000000000000002e .L0 
C:\Users\stapi\AppData\Local\Temp\ccUZ5Gtk.s:744    .text.awss_update_token:0000000000000048 .L0 
C:\Users\stapi\AppData\Local\Temp\ccUZ5Gtk.s:747    .text.awss_update_token:000000000000004a .L0 
C:\Users\stapi\AppData\Local\Temp\ccUZ5Gtk.s:751    .text.awss_update_token:0000000000000054 .L0 
C:\Users\stapi\AppData\Local\Temp\ccUZ5Gtk.s:756    .text.awss_update_token:0000000000000060 .L0 
C:\Users\stapi\AppData\Local\Temp\ccUZ5Gtk.s:757    .text.awss_update_token:0000000000000060 .L0 
C:\Users\stapi\AppData\Local\Temp\ccUZ5Gtk.s:762    .text.awss_update_token:0000000000000070 .L0 
C:\Users\stapi\AppData\Local\Temp\ccUZ5Gtk.s:767    .text.awss_update_token:0000000000000080 .L0 
C:\Users\stapi\AppData\Local\Temp\ccUZ5Gtk.s:772    .text.awss_update_token:0000000000000090 .L0 
C:\Users\stapi\AppData\Local\Temp\ccUZ5Gtk.s:773    .text.awss_update_token:0000000000000090 .L0 
C:\Users\stapi\AppData\Local\Temp\ccUZ5Gtk.s:779    .text.awss_update_token:00000000000000a2 .L0 
C:\Users\stapi\AppData\Local\Temp\ccUZ5Gtk.s:780    .text.awss_update_token:00000000000000a2 .L0 
C:\Users\stapi\AppData\Local\Temp\ccUZ5Gtk.s:782    .text.awss_update_token:00000000000000ac .L0 
C:\Users\stapi\AppData\Local\Temp\ccUZ5Gtk.s:783    .text.awss_update_token:00000000000000ac .L0 
C:\Users\stapi\AppData\Local\Temp\ccUZ5Gtk.s:784    .text.awss_update_token:00000000000000ac .L0 
C:\Users\stapi\AppData\Local\Temp\ccUZ5Gtk.s:785    .text.awss_update_token:00000000000000ac .L0 
C:\Users\stapi\AppData\Local\Temp\ccUZ5Gtk.s:792    .text.awss_token_timeout:0000000000000000 awss_token_timeout
C:\Users\stapi\AppData\Local\Temp\ccUZ5Gtk.s:795    .text.awss_token_timeout:0000000000000000 .L0 
C:\Users\stapi\AppData\Local\Temp\ccUZ5Gtk.s:796    .text.awss_token_timeout:0000000000000000 .L0 
C:\Users\stapi\AppData\Local\Temp\ccUZ5Gtk.s:797    .text.awss_token_timeout:0000000000000008 .L0 
C:\Users\stapi\AppData\Local\Temp\ccUZ5Gtk.s:798    .text.awss_token_timeout:0000000000000008 .L0 
C:\Users\stapi\AppData\Local\Temp\ccUZ5Gtk.s:799    .text.awss_token_timeout:0000000000000008 .L0 
C:\Users\stapi\AppData\Local\Temp\ccUZ5Gtk.s:801    .text.awss_token_timeout:0000000000000008 .L0 
C:\Users\stapi\AppData\Local\Temp\ccUZ5Gtk.s:802    .text.awss_token_timeout:0000000000000008 .L0 
C:\Users\stapi\AppData\Local\Temp\ccUZ5Gtk.s:805    .text.awss_token_timeout:0000000000000010 .L0 
C:\Users\stapi\AppData\Local\Temp\ccUZ5Gtk.s:809    .text.awss_token_timeout:0000000000000016 .L0 
C:\Users\stapi\AppData\Local\Temp\ccUZ5Gtk.s:810    .text.awss_token_timeout:0000000000000016 .L0 
C:\Users\stapi\AppData\Local\Temp\ccUZ5Gtk.s:813    .text.awss_token_timeout:000000000000001e .L0 
C:\Users\stapi\AppData\Local\Temp\ccUZ5Gtk.s:814    .text.awss_token_timeout:000000000000001e .L0 
C:\Users\stapi\AppData\Local\Temp\ccUZ5Gtk.s:818    .text.awss_token_timeout:0000000000000022 .L0 
C:\Users\stapi\AppData\Local\Temp\ccUZ5Gtk.s:824    .text.awss_token_timeout:0000000000000030 .L0 
C:\Users\stapi\AppData\Local\Temp\ccUZ5Gtk.s:825    .text.awss_token_timeout:0000000000000038 .L0 
C:\Users\stapi\AppData\Local\Temp\ccUZ5Gtk.s:826    .text.awss_token_timeout:0000000000000038 .L0 
C:\Users\stapi\AppData\Local\Temp\ccUZ5Gtk.s:827    .text.awss_token_timeout:0000000000000038 .L0 
C:\Users\stapi\AppData\Local\Temp\ccUZ5Gtk.s:828    .text.awss_token_timeout:0000000000000038 .L0 
C:\Users\stapi\AppData\Local\Temp\ccUZ5Gtk.s:854    .text.awss_report_token_reply:0000000000000000 awss_report_token_reply
C:\Users\stapi\AppData\Local\Temp\ccUZ5Gtk.s:857    .text.awss_report_token_reply:0000000000000000 .L0 
C:\Users\stapi\AppData\Local\Temp\ccUZ5Gtk.s:859    .text.awss_report_token_reply:0000000000000000 .L0 
C:\Users\stapi\AppData\Local\Temp\ccUZ5Gtk.s:860    .text.awss_report_token_reply:0000000000000008 .L0 
C:\Users\stapi\AppData\Local\Temp\ccUZ5Gtk.s:861    .text.awss_report_token_reply:0000000000000008 .L0 
C:\Users\stapi\AppData\Local\Temp\ccUZ5Gtk.s:862    .text.awss_report_token_reply:0000000000000008 .L0 
C:\Users\stapi\AppData\Local\Temp\ccUZ5Gtk.s:864    .text.awss_report_token_reply:0000000000000008 .L0 
C:\Users\stapi\AppData\Local\Temp\ccUZ5Gtk.s:865    .text.awss_report_token_reply:0000000000000008 .L0 
C:\Users\stapi\AppData\Local\Temp\ccUZ5Gtk.s:867    .text.awss_report_token_reply:0000000000000008 .L0 
C:\Users\stapi\AppData\Local\Temp\ccUZ5Gtk.s:868    .text.awss_report_token_reply:0000000000000008 .L0 
C:\Users\stapi\AppData\Local\Temp\ccUZ5Gtk.s:869    .text.awss_report_token_reply:0000000000000008 .L0 
C:\Users\stapi\AppData\Local\Temp\ccUZ5Gtk.s:870    .text.awss_report_token_reply:0000000000000008 .L0 
C:\Users\stapi\AppData\Local\Temp\ccUZ5Gtk.s:871    .text.awss_report_token_reply:0000000000000008 .L0 
C:\Users\stapi\AppData\Local\Temp\ccUZ5Gtk.s:872    .text.awss_report_token_reply:000000000000000a .L0 
C:\Users\stapi\AppData\Local\Temp\ccUZ5Gtk.s:874    .text.awss_report_token_reply:000000000000000a .L0 
C:\Users\stapi\AppData\Local\Temp\ccUZ5Gtk.s:877    .text.awss_report_token_reply:000000000000000c .L0 
C:\Users\stapi\AppData\Local\Temp\ccUZ5Gtk.s:884    .text.awss_report_token_reply:0000000000000018 .L0 
C:\Users\stapi\AppData\Local\Temp\ccUZ5Gtk.s:885    .text.awss_report_token_reply:0000000000000018 .L0 
C:\Users\stapi\AppData\Local\Temp\ccUZ5Gtk.s:887    .text.awss_report_token_reply:000000000000001a .L0 
C:\Users\stapi\AppData\Local\Temp\ccUZ5Gtk.s:890    .text.awss_report_token_reply:000000000000001c .L0 
C:\Users\stapi\AppData\Local\Temp\ccUZ5Gtk.s:892    .text.awss_report_token_reply:000000000000001e .L0 
C:\Users\stapi\AppData\Local\Temp\ccUZ5Gtk.s:894    .text.awss_report_token_reply:0000000000000020 .L0 
C:\Users\stapi\AppData\Local\Temp\ccUZ5Gtk.s:897    .text.awss_report_token_reply:0000000000000022 .L0 
C:\Users\stapi\AppData\Local\Temp\ccUZ5Gtk.s:902    .text.awss_report_token_reply:000000000000002a .L0 
C:\Users\stapi\AppData\Local\Temp\ccUZ5Gtk.s:907    .text.awss_report_token_reply:0000000000000030 .L0 
C:\Users\stapi\AppData\Local\Temp\ccUZ5Gtk.s:912    .text.awss_report_token_reply:000000000000003a .L0 
C:\Users\stapi\AppData\Local\Temp\ccUZ5Gtk.s:913    .text.awss_report_token_reply:000000000000003a .L0 
C:\Users\stapi\AppData\Local\Temp\ccUZ5Gtk.s:914    .text.awss_report_token_reply:000000000000003c .L0 
C:\Users\stapi\AppData\Local\Temp\ccUZ5Gtk.s:915    .text.awss_report_token_reply:000000000000003c .L0 
C:\Users\stapi\AppData\Local\Temp\ccUZ5Gtk.s:917    .text.awss_report_token_reply:0000000000000044 .L0 
C:\Users\stapi\AppData\Local\Temp\ccUZ5Gtk.s:918    .text.awss_report_token_reply:0000000000000044 .L0 
C:\Users\stapi\AppData\Local\Temp\ccUZ5Gtk.s:919    .text.awss_report_token_reply:0000000000000044 .L0 
C:\Users\stapi\AppData\Local\Temp\ccUZ5Gtk.s:922    .text.awss_report_token_reply:0000000000000044 .L0 
C:\Users\stapi\AppData\Local\Temp\ccUZ5Gtk.s:924    .text.awss_report_token_reply:0000000000000044 .L0 
C:\Users\stapi\AppData\Local\Temp\ccUZ5Gtk.s:925    .text.awss_report_token_reply:0000000000000044 .L0 
C:\Users\stapi\AppData\Local\Temp\ccUZ5Gtk.s:932    .text.awss_report_token_reply:0000000000000058 .L0 
C:\Users\stapi\AppData\Local\Temp\ccUZ5Gtk.s:933    .text.awss_report_token_reply:0000000000000058 .L0 
C:\Users\stapi\AppData\Local\Temp\ccUZ5Gtk.s:935    .text.awss_report_token_reply:000000000000005a .L0 
C:\Users\stapi\AppData\Local\Temp\ccUZ5Gtk.s:940    .text.awss_report_token_reply:0000000000000064 .L0 
C:\Users\stapi\AppData\Local\Temp\ccUZ5Gtk.s:941    .text.awss_report_token_reply:0000000000000064 .L0 
C:\Users\stapi\AppData\Local\Temp\ccUZ5Gtk.s:944    .text.awss_report_token_reply:000000000000006c .L0 
C:\Users\stapi\AppData\Local\Temp\ccUZ5Gtk.s:945    .text.awss_report_token_reply:000000000000006c .L0 
C:\Users\stapi\AppData\Local\Temp\ccUZ5Gtk.s:947    .text.awss_report_token_reply:0000000000000070 .L0 
C:\Users\stapi\AppData\Local\Temp\ccUZ5Gtk.s:951    .text.awss_report_token_reply:0000000000000076 .L0 
C:\Users\stapi\AppData\Local\Temp\ccUZ5Gtk.s:953    .text.awss_report_token_reply:000000000000007a .L0 
C:\Users\stapi\AppData\Local\Temp\ccUZ5Gtk.s:955    .text.awss_report_token_reply:000000000000007e .L0 
C:\Users\stapi\AppData\Local\Temp\ccUZ5Gtk.s:962    .text.awss_report_token_reply:000000000000008e .L0 
C:\Users\stapi\AppData\Local\Temp\ccUZ5Gtk.s:963    .text.awss_report_token_reply:000000000000008e .L0 
C:\Users\stapi\AppData\Local\Temp\ccUZ5Gtk.s:969    .text.awss_report_token_reply:000000000000009e .L0 
C:\Users\stapi\AppData\Local\Temp\ccUZ5Gtk.s:976    .text.awss_report_token_reply:00000000000000b6 .L0 
C:\Users\stapi\AppData\Local\Temp\ccUZ5Gtk.s:981    .text.awss_report_token_reply:00000000000000c6 .L0 
C:\Users\stapi\AppData\Local\Temp\ccUZ5Gtk.s:982    .text.awss_report_token_reply:00000000000000c6 .L0 
C:\Users\stapi\AppData\Local\Temp\ccUZ5Gtk.s:990    .text.awss_report_token_reply:00000000000000de .L0 
C:\Users\stapi\AppData\Local\Temp\ccUZ5Gtk.s:991    .text.awss_report_token_reply:00000000000000de .L0 
C:\Users\stapi\AppData\Local\Temp\ccUZ5Gtk.s:993    .text.awss_report_token_reply:00000000000000e0 .L0 
C:\Users\stapi\AppData\Local\Temp\ccUZ5Gtk.s:996    .text.awss_report_token_reply:00000000000000e6 .L0 
C:\Users\stapi\AppData\Local\Temp\ccUZ5Gtk.s:998    .text.awss_report_token_reply:00000000000000e8 .L0 
C:\Users\stapi\AppData\Local\Temp\ccUZ5Gtk.s:1000   .text.awss_report_token_reply:00000000000000ec .L0 
C:\Users\stapi\AppData\Local\Temp\ccUZ5Gtk.s:1002   .text.awss_report_token_reply:00000000000000f0 .L0 
C:\Users\stapi\AppData\Local\Temp\ccUZ5Gtk.s:1003   .text.awss_report_token_reply:00000000000000f0 .L0 
C:\Users\stapi\AppData\Local\Temp\ccUZ5Gtk.s:1005   .text.awss_report_token_reply:00000000000000f4 .L0 
C:\Users\stapi\AppData\Local\Temp\ccUZ5Gtk.s:1008   .text.awss_report_token_reply:00000000000000fc .L0 
C:\Users\stapi\AppData\Local\Temp\ccUZ5Gtk.s:1012   .text.awss_report_token_reply:0000000000000106 .L0 
C:\Users\stapi\AppData\Local\Temp\ccUZ5Gtk.s:1013   .text.awss_report_token_reply:0000000000000106 .L0 
C:\Users\stapi\AppData\Local\Temp\ccUZ5Gtk.s:1015   .text.awss_report_token_reply:0000000000000108 .L0 
C:\Users\stapi\AppData\Local\Temp\ccUZ5Gtk.s:1017   .text.awss_report_token_reply:000000000000010c .L0 
C:\Users\stapi\AppData\Local\Temp\ccUZ5Gtk.s:1020   .text.awss_report_token_reply:0000000000000114 .L0 
C:\Users\stapi\AppData\Local\Temp\ccUZ5Gtk.s:1023   .text.awss_report_token_reply:000000000000011c .L0 
C:\Users\stapi\AppData\Local\Temp\ccUZ5Gtk.s:1024   .text.awss_report_token_reply:000000000000011e .L0 
C:\Users\stapi\AppData\Local\Temp\ccUZ5Gtk.s:1071   .text.awss_online_switchap:0000000000000000 awss_online_switchap
C:\Users\stapi\AppData\Local\Temp\ccUZ5Gtk.s:1074   .text.awss_online_switchap:0000000000000000 .L0 
C:\Users\stapi\AppData\Local\Temp\ccUZ5Gtk.s:1076   .text.awss_online_switchap:0000000000000000 .L0 
C:\Users\stapi\AppData\Local\Temp\ccUZ5Gtk.s:1077   .text.awss_online_switchap:0000000000000008 .L0 
C:\Users\stapi\AppData\Local\Temp\ccUZ5Gtk.s:1078   .text.awss_online_switchap:0000000000000008 .L0 
C:\Users\stapi\AppData\Local\Temp\ccUZ5Gtk.s:1079   .text.awss_online_switchap:0000000000000008 .L0 
C:\Users\stapi\AppData\Local\Temp\ccUZ5Gtk.s:1080   .text.awss_online_switchap:0000000000000008 .L0 
C:\Users\stapi\AppData\Local\Temp\ccUZ5Gtk.s:1081   .text.awss_online_switchap:0000000000000008 .L0 
C:\Users\stapi\AppData\Local\Temp\ccUZ5Gtk.s:1082   .text.awss_online_switchap:0000000000000008 .L0 
C:\Users\stapi\AppData\Local\Temp\ccUZ5Gtk.s:1083   .text.awss_online_switchap:0000000000000008 .L0 
C:\Users\stapi\AppData\Local\Temp\ccUZ5Gtk.s:1084   .text.awss_online_switchap:0000000000000008 .L0 
C:\Users\stapi\AppData\Local\Temp\ccUZ5Gtk.s:1085   .text.awss_online_switchap:0000000000000008 .L0 
C:\Users\stapi\AppData\Local\Temp\ccUZ5Gtk.s:1086   .text.awss_online_switchap:0000000000000008 .L0 
C:\Users\stapi\AppData\Local\Temp\ccUZ5Gtk.s:1087   .text.awss_online_switchap:0000000000000008 .L0 
C:\Users\stapi\AppData\Local\Temp\ccUZ5Gtk.s:1088   .text.awss_online_switchap:0000000000000008 .L0 
C:\Users\stapi\AppData\Local\Temp\ccUZ5Gtk.s:1090   .text.awss_online_switchap:0000000000000008 .L0 
C:\Users\stapi\AppData\Local\Temp\ccUZ5Gtk.s:1091   .text.awss_online_switchap:0000000000000008 .L0 
C:\Users\stapi\AppData\Local\Temp\ccUZ5Gtk.s:1092   .text.awss_online_switchap:000000000000000a .L0 
C:\Users\stapi\AppData\Local\Temp\ccUZ5Gtk.s:1094   .text.awss_online_switchap:000000000000000a .L0 
C:\Users\stapi\AppData\Local\Temp\ccUZ5Gtk.s:1097   .text.awss_online_switchap:000000000000000c .L0 
C:\Users\stapi\AppData\Local\Temp\ccUZ5Gtk.s:1099   .text.awss_online_switchap:0000000000000010 .L0 
C:\Users\stapi\AppData\Local\Temp\ccUZ5Gtk.s:1104   .text.awss_online_switchap:0000000000000014 .L0 
C:\Users\stapi\AppData\Local\Temp\ccUZ5Gtk.s:1107   .text.awss_online_switchap:0000000000000016 .L0 
C:\Users\stapi\AppData\Local\Temp\ccUZ5Gtk.s:1108   .text.awss_online_switchap:0000000000000016 .L0 
C:\Users\stapi\AppData\Local\Temp\ccUZ5Gtk.s:1110   .text.awss_online_switchap:0000000000000018 .L0 
C:\Users\stapi\AppData\Local\Temp\ccUZ5Gtk.s:1111   .text.awss_online_switchap:0000000000000018 .L0 
C:\Users\stapi\AppData\Local\Temp\ccUZ5Gtk.s:1113   .text.awss_online_switchap:000000000000001a .L0 
C:\Users\stapi\AppData\Local\Temp\ccUZ5Gtk.s:1115   .text.awss_online_switchap:000000000000001c .L0 
C:\Users\stapi\AppData\Local\Temp\ccUZ5Gtk.s:1116   .text.awss_online_switchap:000000000000001c .L0 
C:\Users\stapi\AppData\Local\Temp\ccUZ5Gtk.s:1117   .text.awss_online_switchap:000000000000001c .L0 
C:\Users\stapi\AppData\Local\Temp\ccUZ5Gtk.s:1118   .text.awss_online_switchap:000000000000001c .L0 
C:\Users\stapi\AppData\Local\Temp\ccUZ5Gtk.s:1120   .text.awss_online_switchap:0000000000000020 .L0 
C:\Users\stapi\AppData\Local\Temp\ccUZ5Gtk.s:1123   .text.awss_online_switchap:0000000000000028 .L0 
C:\Users\stapi\AppData\Local\Temp\ccUZ5Gtk.s:1127   .text.awss_online_switchap:0000000000000034 .L0 
C:\Users\stapi\AppData\Local\Temp\ccUZ5Gtk.s:1129   .text.awss_online_switchap:0000000000000038 .L0 
C:\Users\stapi\AppData\Local\Temp\ccUZ5Gtk.s:1130   .text.awss_online_switchap:0000000000000038 .L0 
C:\Users\stapi\AppData\Local\Temp\ccUZ5Gtk.s:1132   .text.awss_online_switchap:000000000000003a .L0 
C:\Users\stapi\AppData\Local\Temp\ccUZ5Gtk.s:1134   .text.awss_online_switchap:000000000000003e .L0 
C:\Users\stapi\AppData\Local\Temp\ccUZ5Gtk.s:1136   .text.awss_online_switchap:0000000000000040 .L0 
C:\Users\stapi\AppData\Local\Temp\ccUZ5Gtk.s:1139   .text.awss_online_switchap:0000000000000046 .L0 
C:\Users\stapi\AppData\Local\Temp\ccUZ5Gtk.s:1151   .text.awss_online_switchap:000000000000006c .L0 
C:\Users\stapi\AppData\Local\Temp\ccUZ5Gtk.s:1152   .text.awss_online_switchap:000000000000006c .L0 
C:\Users\stapi\AppData\Local\Temp\ccUZ5Gtk.s:1160   .text.awss_online_switchap:0000000000000070 .L0 
C:\Users\stapi\AppData\Local\Temp\ccUZ5Gtk.s:1161   .text.awss_online_switchap:0000000000000070 .L0 
C:\Users\stapi\AppData\Local\Temp\ccUZ5Gtk.s:1162   .text.awss_online_switchap:0000000000000070 .L0 
C:\Users\stapi\AppData\Local\Temp\ccUZ5Gtk.s:1171   .text.awss_online_switchap:000000000000007e .L0 
C:\Users\stapi\AppData\Local\Temp\ccUZ5Gtk.s:1172   .text.awss_online_switchap:000000000000007e .L0 
C:\Users\stapi\AppData\Local\Temp\ccUZ5Gtk.s:1174   .text.awss_online_switchap:0000000000000082 .L0 
C:\Users\stapi\AppData\Local\Temp\ccUZ5Gtk.s:1181   .text.awss_online_switchap:000000000000008e .L0 
C:\Users\stapi\AppData\Local\Temp\ccUZ5Gtk.s:1182   .text.awss_online_switchap:000000000000008e .L0 
C:\Users\stapi\AppData\Local\Temp\ccUZ5Gtk.s:1183   .text.awss_online_switchap:000000000000008e .L0 
C:\Users\stapi\AppData\Local\Temp\ccUZ5Gtk.s:1184   .text.awss_online_switchap:000000000000008e .L0 
C:\Users\stapi\AppData\Local\Temp\ccUZ5Gtk.s:1195   .text.awss_online_switchap:00000000000000a8 .L0 
C:\Users\stapi\AppData\Local\Temp\ccUZ5Gtk.s:1196   .text.awss_online_switchap:00000000000000a8 .L0 
C:\Users\stapi\AppData\Local\Temp\ccUZ5Gtk.s:1198   .text.awss_online_switchap:00000000000000ac .L0 
C:\Users\stapi\AppData\Local\Temp\ccUZ5Gtk.s:1200   .text.awss_online_switchap:00000000000000ae .L0 
C:\Users\stapi\AppData\Local\Temp\ccUZ5Gtk.s:1202   .text.awss_online_switchap:00000000000000b2 .L0 
C:\Users\stapi\AppData\Local\Temp\ccUZ5Gtk.s:1203   .text.awss_online_switchap:00000000000000b2 .L0 
C:\Users\stapi\AppData\Local\Temp\ccUZ5Gtk.s:1210   .text.awss_online_switchap:00000000000000c6 .L0 
C:\Users\stapi\AppData\Local\Temp\ccUZ5Gtk.s:1212   .text.awss_online_switchap:00000000000000c8 .L0 
C:\Users\stapi\AppData\Local\Temp\ccUZ5Gtk.s:1213   .text.awss_online_switchap:00000000000000c8 .L0 
C:\Users\stapi\AppData\Local\Temp\ccUZ5Gtk.s:1215   .text.awss_online_switchap:00000000000000ca .L0 
C:\Users\stapi\AppData\Local\Temp\ccUZ5Gtk.s:1217   .text.awss_online_switchap:00000000000000ce .L0 
C:\Users\stapi\AppData\Local\Temp\ccUZ5Gtk.s:1222   .text.awss_online_switchap:00000000000000da .L0 
C:\Users\stapi\AppData\Local\Temp\ccUZ5Gtk.s:1228   .text.awss_online_switchap:00000000000000ec .L0 
C:\Users\stapi\AppData\Local\Temp\ccUZ5Gtk.s:1234   .text.awss_online_switchap:00000000000000fc .L0 
C:\Users\stapi\AppData\Local\Temp\ccUZ5Gtk.s:1235   .text.awss_online_switchap:00000000000000fc .L0 
C:\Users\stapi\AppData\Local\Temp\ccUZ5Gtk.s:1242   .text.awss_online_switchap:000000000000010c .L0 
C:\Users\stapi\AppData\Local\Temp\ccUZ5Gtk.s:1244   .text.awss_online_switchap:000000000000010e .L0 
C:\Users\stapi\AppData\Local\Temp\ccUZ5Gtk.s:1245   .text.awss_online_switchap:000000000000010e .L0 
C:\Users\stapi\AppData\Local\Temp\ccUZ5Gtk.s:1248   .text.awss_online_switchap:0000000000000116 .L0 
C:\Users\stapi\AppData\Local\Temp\ccUZ5Gtk.s:1250   .text.awss_online_switchap:0000000000000118 .L0 
C:\Users\stapi\AppData\Local\Temp\ccUZ5Gtk.s:1251   .text.awss_online_switchap:0000000000000118 .L0 
C:\Users\stapi\AppData\Local\Temp\ccUZ5Gtk.s:1253   .text.awss_online_switchap:000000000000011a .L0 
C:\Users\stapi\AppData\Local\Temp\ccUZ5Gtk.s:1255   .text.awss_online_switchap:000000000000011e .L0 
C:\Users\stapi\AppData\Local\Temp\ccUZ5Gtk.s:1260   .text.awss_online_switchap:000000000000012c .L0 
C:\Users\stapi\AppData\Local\Temp\ccUZ5Gtk.s:1266   .text.awss_online_switchap:000000000000013e .L0 
C:\Users\stapi\AppData\Local\Temp\ccUZ5Gtk.s:1272   .text.awss_online_switchap:000000000000014e .L0 
C:\Users\stapi\AppData\Local\Temp\ccUZ5Gtk.s:1273   .text.awss_online_switchap:000000000000014e .L0 
C:\Users\stapi\AppData\Local\Temp\ccUZ5Gtk.s:1280   .text.awss_online_switchap:000000000000015e .L0 
C:\Users\stapi\AppData\Local\Temp\ccUZ5Gtk.s:1282   .text.awss_online_switchap:0000000000000160 .L0 
C:\Users\stapi\AppData\Local\Temp\ccUZ5Gtk.s:1285   .text.awss_online_switchap:0000000000000168 .L0 
C:\Users\stapi\AppData\Local\Temp\ccUZ5Gtk.s:1286   .text.awss_online_switchap:0000000000000168 .L0 
C:\Users\stapi\AppData\Local\Temp\ccUZ5Gtk.s:1289   .text.awss_online_switchap:0000000000000170 .L0 
C:\Users\stapi\AppData\Local\Temp\ccUZ5Gtk.s:1291   .text.awss_online_switchap:0000000000000172 .L0 
C:\Users\stapi\AppData\Local\Temp\ccUZ5Gtk.s:1292   .text.awss_online_switchap:0000000000000172 .L0 
C:\Users\stapi\AppData\Local\Temp\ccUZ5Gtk.s:1294   .text.awss_online_switchap:0000000000000174 .L0 
C:\Users\stapi\AppData\Local\Temp\ccUZ5Gtk.s:1300   .text.awss_online_switchap:000000000000017c .L0 
C:\Users\stapi\AppData\Local\Temp\ccUZ5Gtk.s:1301   .text.awss_online_switchap:000000000000017c .L0 
C:\Users\stapi\AppData\Local\Temp\ccUZ5Gtk.s:1302   .text.awss_online_switchap:000000000000017c .L0 
C:\Users\stapi\AppData\Local\Temp\ccUZ5Gtk.s:1304   .text.awss_online_switchap:000000000000017e .L0 
C:\Users\stapi\AppData\Local\Temp\ccUZ5Gtk.s:1305   .text.awss_online_switchap:000000000000017e .L0 
C:\Users\stapi\AppData\Local\Temp\ccUZ5Gtk.s:1306   .text.awss_online_switchap:000000000000017e .L0 
C:\Users\stapi\AppData\Local\Temp\ccUZ5Gtk.s:1308   .text.awss_online_switchap:0000000000000180 .L0 
C:\Users\stapi\AppData\Local\Temp\ccUZ5Gtk.s:1310   .text.awss_online_switchap:0000000000000182 .L0 
C:\Users\stapi\AppData\Local\Temp\ccUZ5Gtk.s:1314   .text.awss_online_switchap:0000000000000184 .L0 
C:\Users\stapi\AppData\Local\Temp\ccUZ5Gtk.s:1315   .text.awss_online_switchap:0000000000000184 .L0 
C:\Users\stapi\AppData\Local\Temp\ccUZ5Gtk.s:1321   .text.awss_online_switchap:0000000000000192 .L0 
C:\Users\stapi\AppData\Local\Temp\ccUZ5Gtk.s:1323   .text.awss_online_switchap:0000000000000196 .L0 
C:\Users\stapi\AppData\Local\Temp\ccUZ5Gtk.s:1325   .text.awss_online_switchap:000000000000019a .L0 
C:\Users\stapi\AppData\Local\Temp\ccUZ5Gtk.s:1327   .text.awss_online_switchap:000000000000019c .L0 
C:\Users\stapi\AppData\Local\Temp\ccUZ5Gtk.s:1329   .text.awss_online_switchap:000000000000019e .L0 
C:\Users\stapi\AppData\Local\Temp\ccUZ5Gtk.s:1332   .text.awss_online_switchap:00000000000001a2 .L0 
C:\Users\stapi\AppData\Local\Temp\ccUZ5Gtk.s:1333   .text.awss_online_switchap:00000000000001a2 .L0 
C:\Users\stapi\AppData\Local\Temp\ccUZ5Gtk.s:1335   .text.awss_online_switchap:00000000000001a4 .L0 
C:\Users\stapi\AppData\Local\Temp\ccUZ5Gtk.s:1337   .text.awss_online_switchap:00000000000001a8 .L0 
C:\Users\stapi\AppData\Local\Temp\ccUZ5Gtk.s:1343   .text.awss_online_switchap:00000000000001b0 .L0 
C:\Users\stapi\AppData\Local\Temp\ccUZ5Gtk.s:1344   .text.awss_online_switchap:00000000000001b0 .L0 
C:\Users\stapi\AppData\Local\Temp\ccUZ5Gtk.s:1345   .text.awss_online_switchap:00000000000001b0 .L0 
C:\Users\stapi\AppData\Local\Temp\ccUZ5Gtk.s:1352   .text.awss_online_switchap:00000000000001c0 .L0 
C:\Users\stapi\AppData\Local\Temp\ccUZ5Gtk.s:1354   .text.awss_online_switchap:00000000000001c2 .L0 
C:\Users\stapi\AppData\Local\Temp\ccUZ5Gtk.s:1355   .text.awss_online_switchap:00000000000001c2 .L0 
C:\Users\stapi\AppData\Local\Temp\ccUZ5Gtk.s:1358   .text.awss_online_switchap:00000000000001ca .L0 
C:\Users\stapi\AppData\Local\Temp\ccUZ5Gtk.s:1360   .text.awss_online_switchap:00000000000001cc .L0 
C:\Users\stapi\AppData\Local\Temp\ccUZ5Gtk.s:1361   .text.awss_online_switchap:00000000000001cc .L0 
C:\Users\stapi\AppData\Local\Temp\ccUZ5Gtk.s:1363   .text.awss_online_switchap:00000000000001ce .L0 
C:\Users\stapi\AppData\Local\Temp\ccUZ5Gtk.s:1365   .text.awss_online_switchap:00000000000001d2 .L0 
C:\Users\stapi\AppData\Local\Temp\ccUZ5Gtk.s:1367   .text.awss_online_switchap:00000000000001d6 .L0 
C:\Users\stapi\AppData\Local\Temp\ccUZ5Gtk.s:1369   .text.awss_online_switchap:00000000000001da .L0 
C:\Users\stapi\AppData\Local\Temp\ccUZ5Gtk.s:1372   .text.awss_online_switchap:00000000000001dc .L0 
C:\Users\stapi\AppData\Local\Temp\ccUZ5Gtk.s:1373   .text.awss_online_switchap:00000000000001dc .L0 
C:\Users\stapi\AppData\Local\Temp\ccUZ5Gtk.s:1382   .text.awss_online_switchap:00000000000001f4 .L0 
C:\Users\stapi\AppData\Local\Temp\ccUZ5Gtk.s:1384   .text.awss_online_switchap:00000000000001f6 .L0 
C:\Users\stapi\AppData\Local\Temp\ccUZ5Gtk.s:1385   .text.awss_online_switchap:00000000000001f6 .L0 
C:\Users\stapi\AppData\Local\Temp\ccUZ5Gtk.s:1387   .text.awss_online_switchap:00000000000001f8 .L0 
C:\Users\stapi\AppData\Local\Temp\ccUZ5Gtk.s:1388   .text.awss_online_switchap:00000000000001f8 .L0 
C:\Users\stapi\AppData\Local\Temp\ccUZ5Gtk.s:1397   .text.awss_online_switchap:0000000000000206 .L0 
C:\Users\stapi\AppData\Local\Temp\ccUZ5Gtk.s:1398   .text.awss_online_switchap:0000000000000206 .L0 
C:\Users\stapi\AppData\Local\Temp\ccUZ5Gtk.s:1399   .text.awss_online_switchap:0000000000000206 .L0 
C:\Users\stapi\AppData\Local\Temp\ccUZ5Gtk.s:1400   .text.awss_online_switchap:0000000000000206 .L0 
C:\Users\stapi\AppData\Local\Temp\ccUZ5Gtk.s:1407   .text.awss_online_switchap:0000000000000216 .L0 
C:\Users\stapi\AppData\Local\Temp\ccUZ5Gtk.s:1412   .text.awss_online_switchap:000000000000021e .L0 
C:\Users\stapi\AppData\Local\Temp\ccUZ5Gtk.s:1413   .text.awss_online_switchap:000000000000021e .L0 
C:\Users\stapi\AppData\Local\Temp\ccUZ5Gtk.s:1416   .text.awss_online_switchap:0000000000000226 .L0 
C:\Users\stapi\AppData\Local\Temp\ccUZ5Gtk.s:1418   .text.awss_online_switchap:0000000000000228 .L0 
C:\Users\stapi\AppData\Local\Temp\ccUZ5Gtk.s:1421   .text.awss_online_switchap:000000000000022a .L0 
C:\Users\stapi\AppData\Local\Temp\ccUZ5Gtk.s:1428   .text.awss_online_switchap:000000000000023a .L0 
C:\Users\stapi\AppData\Local\Temp\ccUZ5Gtk.s:1443   .text.awss_online_switchap:0000000000000268 .L0 
C:\Users\stapi\AppData\Local\Temp\ccUZ5Gtk.s:1445   .text.awss_online_switchap:0000000000000268 .L0 
C:\Users\stapi\AppData\Local\Temp\ccUZ5Gtk.s:1446   .text.awss_online_switchap:0000000000000268 .L0 
C:\Users\stapi\AppData\Local\Temp\ccUZ5Gtk.s:1447   .text.awss_online_switchap:0000000000000268 .L0 
C:\Users\stapi\AppData\Local\Temp\ccUZ5Gtk.s:1454   .text.awss_online_switchap:000000000000027a .L0 
C:\Users\stapi\AppData\Local\Temp\ccUZ5Gtk.s:1461   .text.awss_online_switchap:0000000000000290 .L0 
C:\Users\stapi\AppData\Local\Temp\ccUZ5Gtk.s:1470   .text.awss_online_switchap:00000000000002a0 .L0 
C:\Users\stapi\AppData\Local\Temp\ccUZ5Gtk.s:1471   .text.awss_online_switchap:00000000000002a0 .L0 
C:\Users\stapi\AppData\Local\Temp\ccUZ5Gtk.s:1478   .text.awss_online_switchap:00000000000002aa .L0 
C:\Users\stapi\AppData\Local\Temp\ccUZ5Gtk.s:1479   .text.awss_online_switchap:00000000000002aa .L0 
C:\Users\stapi\AppData\Local\Temp\ccUZ5Gtk.s:1482   .text.awss_online_switchap:00000000000002ae .L0 
C:\Users\stapi\AppData\Local\Temp\ccUZ5Gtk.s:1489   .text.awss_online_switchap:00000000000002b6 .L0 
C:\Users\stapi\AppData\Local\Temp\ccUZ5Gtk.s:1490   .text.awss_online_switchap:00000000000002b6 .L0 
C:\Users\stapi\AppData\Local\Temp\ccUZ5Gtk.s:1491   .text.awss_online_switchap:00000000000002b6 .L0 
C:\Users\stapi\AppData\Local\Temp\ccUZ5Gtk.s:1493   .text.awss_online_switchap:00000000000002b8 .L0 
C:\Users\stapi\AppData\Local\Temp\ccUZ5Gtk.s:1496   .text.awss_online_switchap:00000000000002be .L0 
C:\Users\stapi\AppData\Local\Temp\ccUZ5Gtk.s:1497   .text.awss_online_switchap:00000000000002be .L0 
C:\Users\stapi\AppData\Local\Temp\ccUZ5Gtk.s:1501   .text.awss_online_switchap:00000000000002c8 .L0 
C:\Users\stapi\AppData\Local\Temp\ccUZ5Gtk.s:1510   .text.awss_online_switchap:00000000000002da .L0 
C:\Users\stapi\AppData\Local\Temp\ccUZ5Gtk.s:1511   .text.awss_online_switchap:00000000000002da .L0 
C:\Users\stapi\AppData\Local\Temp\ccUZ5Gtk.s:1512   .text.awss_online_switchap:00000000000002da .L0 
C:\Users\stapi\AppData\Local\Temp\ccUZ5Gtk.s:1523   .text.awss_online_switchap:00000000000002e8 .L0 
C:\Users\stapi\AppData\Local\Temp\ccUZ5Gtk.s:1524   .text.awss_online_switchap:00000000000002e8 .L0 
C:\Users\stapi\AppData\Local\Temp\ccUZ5Gtk.s:1530   .text.awss_online_switchap:00000000000002fa .L0 
C:\Users\stapi\AppData\Local\Temp\ccUZ5Gtk.s:1532   .text.awss_online_switchap:00000000000002fc .L0 
C:\Users\stapi\AppData\Local\Temp\ccUZ5Gtk.s:1538   .text.awss_online_switchap:000000000000030c .L0 
C:\Users\stapi\AppData\Local\Temp\ccUZ5Gtk.s:1540   .text.awss_online_switchap:000000000000030e .L0 
C:\Users\stapi\AppData\Local\Temp\ccUZ5Gtk.s:1546   .text.awss_online_switchap:0000000000000320 .L0 
C:\Users\stapi\AppData\Local\Temp\ccUZ5Gtk.s:1549   .text.awss_online_switchap:0000000000000322 .L0 
C:\Users\stapi\AppData\Local\Temp\ccUZ5Gtk.s:1550   .text.awss_online_switchap:0000000000000322 .L0 
C:\Users\stapi\AppData\Local\Temp\ccUZ5Gtk.s:1553   .text.awss_online_switchap:0000000000000326 .L0 
C:\Users\stapi\AppData\Local\Temp\ccUZ5Gtk.s:1557   .text.awss_online_switchap:0000000000000330 .L0 
C:\Users\stapi\AppData\Local\Temp\ccUZ5Gtk.s:1558   .text.awss_online_switchap:0000000000000330 .L0 
C:\Users\stapi\AppData\Local\Temp\ccUZ5Gtk.s:1566   .text.awss_online_switchap:000000000000034a .L0 
C:\Users\stapi\AppData\Local\Temp\ccUZ5Gtk.s:1569   .text.awss_online_switchap:000000000000034c .L0 
C:\Users\stapi\AppData\Local\Temp\ccUZ5Gtk.s:1573   .text.awss_online_switchap:0000000000000356 .L0 
C:\Users\stapi\AppData\Local\Temp\ccUZ5Gtk.s:1579   .text.awss_online_switchap:0000000000000362 .L0 
C:\Users\stapi\AppData\Local\Temp\ccUZ5Gtk.s:1581   .text.awss_online_switchap:0000000000000362 .L0 
C:\Users\stapi\AppData\Local\Temp\ccUZ5Gtk.s:1582   .text.awss_online_switchap:0000000000000362 .L0 
C:\Users\stapi\AppData\Local\Temp\ccUZ5Gtk.s:1583   .text.awss_online_switchap:0000000000000364 .L0 
C:\Users\stapi\AppData\Local\Temp\ccUZ5Gtk.s:1584   .text.awss_online_switchap:0000000000000364 .L0 
C:\Users\stapi\AppData\Local\Temp\ccUZ5Gtk.s:1586   .text.awss_online_switchap:000000000000036c .L0 
C:\Users\stapi\AppData\Local\Temp\ccUZ5Gtk.s:1587   .text.awss_online_switchap:000000000000036c .L0 
C:\Users\stapi\AppData\Local\Temp\ccUZ5Gtk.s:1588   .text.awss_online_switchap:000000000000036c .L0 
C:\Users\stapi\AppData\Local\Temp\ccUZ5Gtk.s:1589   .text.awss_online_switchap:000000000000036c .L0 
C:\Users\stapi\AppData\Local\Temp\ccUZ5Gtk.s:1590   .text.awss_online_switchap:000000000000036c .L0 
C:\Users\stapi\AppData\Local\Temp\ccUZ5Gtk.s:1591   .text.awss_online_switchap:000000000000036c .L0 
C:\Users\stapi\AppData\Local\Temp\ccUZ5Gtk.s:1592   .text.awss_online_switchap:000000000000036c .L0 
C:\Users\stapi\AppData\Local\Temp\ccUZ5Gtk.s:1593   .text.awss_online_switchap:000000000000036c .L0 
C:\Users\stapi\AppData\Local\Temp\ccUZ5Gtk.s:1594   .text.awss_online_switchap:000000000000036c .L0 
C:\Users\stapi\AppData\Local\Temp\ccUZ5Gtk.s:1595   .text.awss_online_switchap:000000000000036c .L0 
C:\Users\stapi\AppData\Local\Temp\ccUZ5Gtk.s:1596   .text.awss_online_switchap:000000000000036c .L0 
C:\Users\stapi\AppData\Local\Temp\ccUZ5Gtk.s:1597   .text.awss_online_switchap:000000000000036c .L0 
C:\Users\stapi\AppData\Local\Temp\ccUZ5Gtk.s:1600   .text.awss_online_switchap:000000000000036c .L0 
C:\Users\stapi\AppData\Local\Temp\ccUZ5Gtk.s:1603   .text.awss_online_switchap:000000000000036c .L0 
C:\Users\stapi\AppData\Local\Temp\ccUZ5Gtk.s:1611   .text.awss_online_switchap:0000000000000374 .L0 
C:\Users\stapi\AppData\Local\Temp\ccUZ5Gtk.s:1615   .text.awss_online_switchap:0000000000000376 .L0 
C:\Users\stapi\AppData\Local\Temp\ccUZ5Gtk.s:1616   .text.awss_online_switchap:0000000000000376 .L0 
C:\Users\stapi\AppData\Local\Temp\ccUZ5Gtk.s:1621   .text.awss_online_switchap:0000000000000386 .L0 
C:\Users\stapi\AppData\Local\Temp\ccUZ5Gtk.s:1626   .text.awss_online_switchap:0000000000000396 .L0 
C:\Users\stapi\AppData\Local\Temp\ccUZ5Gtk.s:1631   .text.awss_online_switchap:00000000000003a6 .L0 
C:\Users\stapi\AppData\Local\Temp\ccUZ5Gtk.s:1632   .text.awss_online_switchap:00000000000003a6 .L0 
C:\Users\stapi\AppData\Local\Temp\ccUZ5Gtk.s:1638   .text.awss_online_switchap:00000000000003b8 .L0 
C:\Users\stapi\AppData\Local\Temp\ccUZ5Gtk.s:1639   .text.awss_online_switchap:00000000000003b8 .L0 
C:\Users\stapi\AppData\Local\Temp\ccUZ5Gtk.s:1643   .text.awss_online_switchap:00000000000003c2 .L0 
C:\Users\stapi\AppData\Local\Temp\ccUZ5Gtk.s:1646   .text.awss_online_switchap:00000000000003ca .L0 
C:\Users\stapi\AppData\Local\Temp\ccUZ5Gtk.s:1649   .text.awss_online_switchap:00000000000003d2 .L0 
C:\Users\stapi\AppData\Local\Temp\ccUZ5Gtk.s:1650   .text.awss_online_switchap:00000000000003d2 .L0 
C:\Users\stapi\AppData\Local\Temp\ccUZ5Gtk.s:1655   .text.awss_online_switchap:00000000000003d4 .L0 
C:\Users\stapi\AppData\Local\Temp\ccUZ5Gtk.s:1656   .text.awss_online_switchap:00000000000003d4 .L0 
C:\Users\stapi\AppData\Local\Temp\ccUZ5Gtk.s:1660   .text.awss_online_switchap:00000000000003de .L0 
C:\Users\stapi\AppData\Local\Temp\ccUZ5Gtk.s:1663   .text.awss_online_switchap:00000000000003e0 .L0 
C:\Users\stapi\AppData\Local\Temp\ccUZ5Gtk.s:1670   .text.awss_report_token:0000000000000000 awss_report_token
C:\Users\stapi\AppData\Local\Temp\ccUZ5Gtk.s:1673   .text.awss_report_token:0000000000000000 .L0 
C:\Users\stapi\AppData\Local\Temp\ccUZ5Gtk.s:1674   .text.awss_report_token:0000000000000000 .L0 
C:\Users\stapi\AppData\Local\Temp\ccUZ5Gtk.s:1675   .text.awss_report_token:0000000000000000 .L0 
C:\Users\stapi\AppData\Local\Temp\ccUZ5Gtk.s:1676   .text.awss_report_token:0000000000000000 .L0 
C:\Users\stapi\AppData\Local\Temp\ccUZ5Gtk.s:1679   .text.awss_report_token:0000000000000008 .L0 
C:\Users\stapi\AppData\Local\Temp\ccUZ5Gtk.s:1680   .text.awss_report_token:0000000000000008 .L0 
C:\Users\stapi\AppData\Local\Temp\ccUZ5Gtk.s:1683   .text.awss_report_token:0000000000000010 .L0 
C:\Users\stapi\AppData\Local\Temp\ccUZ5Gtk.s:1684   .text.awss_report_token:0000000000000010 .L0 
C:\Users\stapi\AppData\Local\Temp\ccUZ5Gtk.s:1686   .text.awss_report_token:0000000000000018 .L0 
C:\Users\stapi\AppData\Local\Temp\ccUZ5Gtk.s:1693   .text.awss_stop_report_token:0000000000000000 awss_stop_report_token
C:\Users\stapi\AppData\Local\Temp\ccUZ5Gtk.s:1696   .text.awss_stop_report_token:0000000000000000 .L0 
C:\Users\stapi\AppData\Local\Temp\ccUZ5Gtk.s:1697   .text.awss_stop_report_token:0000000000000000 .L0 
C:\Users\stapi\AppData\Local\Temp\ccUZ5Gtk.s:1698   .text.awss_stop_report_token:0000000000000008 .L0 
C:\Users\stapi\AppData\Local\Temp\ccUZ5Gtk.s:1699   .text.awss_stop_report_token:0000000000000008 .L0 
C:\Users\stapi\AppData\Local\Temp\ccUZ5Gtk.s:1700   .text.awss_stop_report_token:0000000000000008 .L0 
C:\Users\stapi\AppData\Local\Temp\ccUZ5Gtk.s:1702   .text.awss_stop_report_token:0000000000000008 .L0 
C:\Users\stapi\AppData\Local\Temp\ccUZ5Gtk.s:1703   .text.awss_stop_report_token:0000000000000008 .L0 
C:\Users\stapi\AppData\Local\Temp\ccUZ5Gtk.s:1707   .text.awss_stop_report_token:0000000000000012 .L0 
C:\Users\stapi\AppData\Local\Temp\ccUZ5Gtk.s:1709   .text.awss_stop_report_token:0000000000000014 .L0 
C:\Users\stapi\AppData\Local\Temp\ccUZ5Gtk.s:1712   .text.awss_stop_report_token:000000000000001c .L0 
C:\Users\stapi\AppData\Local\Temp\ccUZ5Gtk.s:1713   .text.awss_stop_report_token:000000000000001c .L0 
C:\Users\stapi\AppData\Local\Temp\ccUZ5Gtk.s:1716   .text.awss_stop_report_token:0000000000000020 .L0 
C:\Users\stapi\AppData\Local\Temp\ccUZ5Gtk.s:1723   .text.awss_stop_report_token:0000000000000034 .L0 
C:\Users\stapi\AppData\Local\Temp\ccUZ5Gtk.s:1724   .text.awss_stop_report_token:0000000000000034 .L0 
C:\Users\stapi\AppData\Local\Temp\ccUZ5Gtk.s:1728   .text.awss_stop_report_token:000000000000003e .L0 
C:\Users\stapi\AppData\Local\Temp\ccUZ5Gtk.s:1729   .text.awss_stop_report_token:000000000000003e .L0 
C:\Users\stapi\AppData\Local\Temp\ccUZ5Gtk.s:1731   .text.awss_stop_report_token:0000000000000048 .L0 
C:\Users\stapi\AppData\Local\Temp\ccUZ5Gtk.s:1732   .text.awss_stop_report_token:0000000000000048 .L0 
C:\Users\stapi\AppData\Local\Temp\ccUZ5Gtk.s:1733   .text.awss_stop_report_token:0000000000000048 .L0 
C:\Users\stapi\AppData\Local\Temp\ccUZ5Gtk.s:1734   .text.awss_stop_report_token:0000000000000048 .L0 
C:\Users\stapi\AppData\Local\Temp\ccUZ5Gtk.s:1784   .sbss.awss_report_token_cnt:0000000000000000 awss_report_token_cnt
C:\Users\stapi\AppData\Local\Temp\ccUZ5Gtk.s:1790   .sbss.awss_report_token_suc:0000000000000000 awss_report_token_suc
C:\Users\stapi\AppData\Local\Temp\ccUZ5Gtk.s:1741   .bss.switchap_passwd:0000000000000000 .LANCHOR9
C:\Users\stapi\AppData\Local\Temp\ccUZ5Gtk.s:1744   .bss.switchap_passwd:0000000000000000 switchap_passwd
C:\Users\stapi\AppData\Local\Temp\ccUZ5Gtk.s:1748   .bss.switchap_ssid:0000000000000000 .LANCHOR10
C:\Users\stapi\AppData\Local\Temp\ccUZ5Gtk.s:1751   .bss.switchap_ssid:0000000000000000 switchap_ssid
C:\Users\stapi\AppData\Local\Temp\ccUZ5Gtk.s:1755   .rodata.__FUNCTION__.0:0000000000000000 .LANCHOR13
C:\Users\stapi\AppData\Local\Temp\ccUZ5Gtk.s:1758   .rodata.__FUNCTION__.0:0000000000000000 __FUNCTION__.0
C:\Users\stapi\AppData\Local\Temp\ccUZ5Gtk.s:1762   .rodata.__FUNCTION__.2:0000000000000000 .LANCHOR6
C:\Users\stapi\AppData\Local\Temp\ccUZ5Gtk.s:1765   .rodata.__FUNCTION__.2:0000000000000000 __FUNCTION__.2
C:\Users\stapi\AppData\Local\Temp\ccUZ5Gtk.s:1769   .rodata.__func__.1:0000000000000000 .LANCHOR12
C:\Users\stapi\AppData\Local\Temp\ccUZ5Gtk.s:1772   .rodata.__func__.1:0000000000000000 __func__.1
C:\Users\stapi\AppData\Local\Temp\ccUZ5Gtk.s:1775   .sbss.awss_report_id:0000000000000000 .LANCHOR5
C:\Users\stapi\AppData\Local\Temp\ccUZ5Gtk.s:1778   .sbss.awss_report_id:0000000000000000 awss_report_id
C:\Users\stapi\AppData\Local\Temp\ccUZ5Gtk.s:1781   .sbss.awss_report_token_cnt:0000000000000000 .LANCHOR2
C:\Users\stapi\AppData\Local\Temp\ccUZ5Gtk.s:1787   .sbss.awss_report_token_suc:0000000000000000 .LANCHOR1
C:\Users\stapi\AppData\Local\Temp\ccUZ5Gtk.s:1794   .sbss.awss_report_token_time:0000000000000000 .LANCHOR4
C:\Users\stapi\AppData\Local\Temp\ccUZ5Gtk.s:1797   .sbss.awss_report_token_time:0000000000000000 awss_report_token_time
C:\Users\stapi\AppData\Local\Temp\ccUZ5Gtk.s:1801   .sbss.fixed_delta.3:0000000000000000 .LANCHOR0
C:\Users\stapi\AppData\Local\Temp\ccUZ5Gtk.s:1804   .sbss.fixed_delta.3:0000000000000000 fixed_delta.3
C:\Users\stapi\AppData\Local\Temp\ccUZ5Gtk.s:1808   .sbss.reboot_timer:0000000000000000 .LANCHOR7
C:\Users\stapi\AppData\Local\Temp\ccUZ5Gtk.s:1811   .sbss.reboot_timer:0000000000000000 reboot_timer
C:\Users\stapi\AppData\Local\Temp\ccUZ5Gtk.s:1815   .sbss.report_token_timer:0000000000000000 .LANCHOR3
C:\Users\stapi\AppData\Local\Temp\ccUZ5Gtk.s:1818   .sbss.report_token_timer:0000000000000000 report_token_timer
C:\Users\stapi\AppData\Local\Temp\ccUZ5Gtk.s:1822   .sbss.switchap_bssid:0000000000000000 .LANCHOR8
C:\Users\stapi\AppData\Local\Temp\ccUZ5Gtk.s:1825   .sbss.switchap_bssid:0000000000000000 switchap_bssid
C:\Users\stapi\AppData\Local\Temp\ccUZ5Gtk.s:1829   .sbss.switchap_timer:0000000000000000 .LANCHOR11
C:\Users\stapi\AppData\Local\Temp\ccUZ5Gtk.s:1832   .sbss.switchap_timer:0000000000000000 switchap_timer
C:\Users\stapi\AppData\Local\Temp\ccUZ5Gtk.s:54     .text.os_get_time_ms:0000000000000038 .L0 
C:\Users\stapi\AppData\Local\Temp\ccUZ5Gtk.s:498    .text.awss_report_token_to_cloud:00000000000002fe .L0 
C:\Users\stapi\AppData\Local\Temp\ccUZ5Gtk.s:534    .text.awss_reboot_system:0000000000000028 .L0 
C:\Users\stapi\AppData\Local\Temp\ccUZ5Gtk.s:639    .text.awss_switch_ap_online:00000000000000b6 .L0 
C:\Users\stapi\AppData\Local\Temp\ccUZ5Gtk.s:699    .text.awss_token_remain_time:000000000000004a .L0 
C:\Users\stapi\AppData\Local\Temp\ccUZ5Gtk.s:788    .text.awss_update_token:00000000000000ac .L0 
C:\Users\stapi\AppData\Local\Temp\ccUZ5Gtk.s:831    .text.awss_token_timeout:0000000000000038 .L0 
C:\Users\stapi\AppData\Local\Temp\ccUZ5Gtk.s:1027   .text.awss_report_token_reply:000000000000011e .L0 
C:\Users\stapi\AppData\Local\Temp\ccUZ5Gtk.s:1666   .text.awss_online_switchap:00000000000003e0 .L0 
C:\Users\stapi\AppData\Local\Temp\ccUZ5Gtk.s:1689   .text.awss_report_token:0000000000000018 .L0 
C:\Users\stapi\AppData\Local\Temp\ccUZ5Gtk.s:1739   .text.awss_stop_report_token:0000000000000048 .L0 
                     .debug_frame:0000000000000000 .L0 
C:\Users\stapi\AppData\Local\Temp\ccUZ5Gtk.s:38     .text.os_get_time_ms:0000000000000024 .L2
C:\Users\stapi\AppData\Local\Temp\ccUZ5Gtk.s:56     .rodata.awss_report_token_to_cloud.str1.4:0000000000000000 .LC0
C:\Users\stapi\AppData\Local\Temp\ccUZ5Gtk.s:65     .rodata.awss_report_token_to_cloud.str1.4:0000000000000040 .LC3
C:\Users\stapi\AppData\Local\Temp\ccUZ5Gtk.s:59     .rodata.awss_report_token_to_cloud.str1.4:0000000000000024 .LC1
C:\Users\stapi\AppData\Local\Temp\ccUZ5Gtk.s:62     .rodata.awss_report_token_to_cloud.str1.4:000000000000002c .LC2
C:\Users\stapi\AppData\Local\Temp\ccUZ5Gtk.s:68     .rodata.awss_report_token_to_cloud.str1.4:0000000000000044 .LC4
C:\Users\stapi\AppData\Local\Temp\ccUZ5Gtk.s:71     .rodata.awss_report_token_to_cloud.str1.4:000000000000005c .LC5
C:\Users\stapi\AppData\Local\Temp\ccUZ5Gtk.s:74     .rodata.awss_report_token_to_cloud.str1.4:0000000000000068 .LC6
C:\Users\stapi\AppData\Local\Temp\ccUZ5Gtk.s:77     .rodata.awss_report_token_to_cloud.str1.4:0000000000000070 .LC7
C:\Users\stapi\AppData\Local\Temp\ccUZ5Gtk.s:80     .rodata.awss_report_token_to_cloud.str1.4:0000000000000080 .LC8
C:\Users\stapi\AppData\Local\Temp\ccUZ5Gtk.s:83     .rodata.awss_report_token_to_cloud.str1.4:000000000000009c .LC9
C:\Users\stapi\AppData\Local\Temp\ccUZ5Gtk.s:86     .rodata.awss_report_token_to_cloud.str1.4:00000000000000a0 .LC10
C:\Users\stapi\AppData\Local\Temp\ccUZ5Gtk.s:89     .rodata.awss_report_token_to_cloud.str1.4:00000000000000bc .LC11
C:\Users\stapi\AppData\Local\Temp\ccUZ5Gtk.s:92     .rodata.awss_report_token_to_cloud.str1.4:00000000000000d0 .LC12
C:\Users\stapi\AppData\Local\Temp\ccUZ5Gtk.s:95     .rodata.awss_report_token_to_cloud.str1.4:00000000000000d8 .LC13
C:\Users\stapi\AppData\Local\Temp\ccUZ5Gtk.s:98     .rodata.awss_report_token_to_cloud.str1.4:0000000000000100 .LC14
C:\Users\stapi\AppData\Local\Temp\ccUZ5Gtk.s:101    .rodata.awss_report_token_to_cloud.str1.4:0000000000000118 .LC15
C:\Users\stapi\AppData\Local\Temp\ccUZ5Gtk.s:104    .rodata.awss_report_token_to_cloud.str1.4:0000000000000138 .LC16
C:\Users\stapi\AppData\Local\Temp\ccUZ5Gtk.s:107    .rodata.awss_report_token_to_cloud.str1.4:0000000000000140 .LC17
C:\Users\stapi\AppData\Local\Temp\ccUZ5Gtk.s:160    .text.awss_report_token_to_cloud:0000000000000040 .L5
C:\Users\stapi\AppData\Local\Temp\ccUZ5Gtk.s:221    .text.awss_report_token_to_cloud:00000000000000d8 .L7
C:\Users\stapi\AppData\Local\Temp\ccUZ5Gtk.s:147    .text.awss_report_token_to_cloud:0000000000000034 .L4
C:\Users\stapi\AppData\Local\Temp\ccUZ5Gtk.s:237    .text.awss_report_token_to_cloud:00000000000000f8 .L8
C:\Users\stapi\AppData\Local\Temp\ccUZ5Gtk.s:467    .text.awss_report_token_to_cloud:00000000000002ca .L9
C:\Users\stapi\AppData\Local\Temp\ccUZ5Gtk.s:453    .text.awss_report_token_to_cloud:00000000000002be .L10
C:\Users\stapi\AppData\Local\Temp\ccUZ5Gtk.s:524    .text.awss_reboot_system:0000000000000026 .L13
C:\Users\stapi\AppData\Local\Temp\ccUZ5Gtk.s:536    .rodata.awss_switch_ap_online.str1.4:0000000000000000 .LC18
C:\Users\stapi\AppData\Local\Temp\ccUZ5Gtk.s:691    .text.awss_token_remain_time:0000000000000042 .L17
C:\Users\stapi\AppData\Local\Temp\ccUZ5Gtk.s:701    .rodata.awss_update_token.str1.4:0000000000000000 .LC19
C:\Users\stapi\AppData\Local\Temp\ccUZ5Gtk.s:745    .text.awss_update_token:000000000000004a .L23
C:\Users\stapi\AppData\Local\Temp\ccUZ5Gtk.s:822    .text.awss_token_timeout:0000000000000030 .L25
C:\Users\stapi\AppData\Local\Temp\ccUZ5Gtk.s:833    .rodata.awss_report_token_reply.str1.4:0000000000000000 .LC20
C:\Users\stapi\AppData\Local\Temp\ccUZ5Gtk.s:836    .rodata.awss_report_token_reply.str1.4:0000000000000010 .LC21
C:\Users\stapi\AppData\Local\Temp\ccUZ5Gtk.s:839    .rodata.awss_report_token_reply.str1.4:0000000000000014 .LC22
C:\Users\stapi\AppData\Local\Temp\ccUZ5Gtk.s:842    .rodata.awss_report_token_reply.str1.4:000000000000001c .LC23
C:\Users\stapi\AppData\Local\Temp\ccUZ5Gtk.s:845    .rodata.awss_report_token_reply.str1.4:0000000000000030 .LC24
C:\Users\stapi\AppData\Local\Temp\ccUZ5Gtk.s:848    .rodata.awss_report_token_reply.str1.4:0000000000000038 .LC25
C:\Users\stapi\AppData\Local\Temp\ccUZ5Gtk.s:895    .text.awss_report_token_reply:0000000000000022 .L32
C:\Users\stapi\AppData\Local\Temp\ccUZ5Gtk.s:921    .text.awss_report_token_reply:0000000000000044 .L33
C:\Users\stapi\AppData\Local\Temp\ccUZ5Gtk.s:938    .text.awss_report_token_reply:0000000000000064 .L35
C:\Users\stapi\AppData\Local\Temp\ccUZ5Gtk.s:900    .text.awss_report_token_reply:000000000000002a .L42
C:\Users\stapi\AppData\Local\Temp\ccUZ5Gtk.s:960    .text.awss_report_token_reply:000000000000008e .L36
C:\Users\stapi\AppData\Local\Temp\ccUZ5Gtk.s:905    .text.awss_report_token_reply:0000000000000030 .L41
C:\Users\stapi\AppData\Local\Temp\ccUZ5Gtk.s:911    .text.awss_report_token_reply:000000000000003a .L31
C:\Users\stapi\AppData\Local\Temp\ccUZ5Gtk.s:1029   .rodata.awss_online_switchap.str1.4:0000000000000000 .LC26
C:\Users\stapi\AppData\Local\Temp\ccUZ5Gtk.s:1032   .rodata.awss_online_switchap.str1.4:0000000000000028 .LC27
C:\Users\stapi\AppData\Local\Temp\ccUZ5Gtk.s:1035   .rodata.awss_online_switchap.str1.4:0000000000000030 .LC28
C:\Users\stapi\AppData\Local\Temp\ccUZ5Gtk.s:1038   .rodata.awss_online_switchap.str1.4:0000000000000038 .LC29
C:\Users\stapi\AppData\Local\Temp\ccUZ5Gtk.s:1041   .rodata.awss_online_switchap.str1.4:0000000000000040 .LC30
C:\Users\stapi\AppData\Local\Temp\ccUZ5Gtk.s:1044   .rodata.awss_online_switchap.str1.4:0000000000000048 .LC31
C:\Users\stapi\AppData\Local\Temp\ccUZ5Gtk.s:1047   .rodata.awss_online_switchap.str1.4:0000000000000054 .LC32
C:\Users\stapi\AppData\Local\Temp\ccUZ5Gtk.s:1050   .rodata.awss_online_switchap.str1.4:000000000000005c .LC33
C:\Users\stapi\AppData\Local\Temp\ccUZ5Gtk.s:1053   .rodata.awss_online_switchap.str1.4:0000000000000060 .LC34
C:\Users\stapi\AppData\Local\Temp\ccUZ5Gtk.s:1056   .rodata.awss_online_switchap.str1.4:000000000000007c .LC35
C:\Users\stapi\AppData\Local\Temp\ccUZ5Gtk.s:1059   .rodata.awss_online_switchap.str1.4:00000000000000a8 .LC36
C:\Users\stapi\AppData\Local\Temp\ccUZ5Gtk.s:1062   .rodata.awss_online_switchap.str1.4:00000000000000b8 .LC37
C:\Users\stapi\AppData\Local\Temp\ccUZ5Gtk.s:1065   .rodata.awss_online_switchap.str1.4:00000000000000c0 .LC38
C:\Users\stapi\AppData\Local\Temp\ccUZ5Gtk.s:1608   .text.awss_online_switchap:0000000000000374 .L44
C:\Users\stapi\AppData\Local\Temp\ccUZ5Gtk.s:1613   .text.awss_online_switchap:0000000000000376 .L45
C:\Users\stapi\AppData\Local\Temp\ccUZ5Gtk.s:1341   .text.awss_online_switchap:00000000000001b0 .L46
C:\Users\stapi\AppData\Local\Temp\ccUZ5Gtk.s:1599   .text.awss_online_switchap:000000000000036c .L47
C:\Users\stapi\AppData\Local\Temp\ccUZ5Gtk.s:1394   .text.awss_online_switchap:0000000000000206 .L51
C:\Users\stapi\AppData\Local\Temp\ccUZ5Gtk.s:1370   .text.awss_online_switchap:00000000000001dc .L52
C:\Users\stapi\AppData\Local\Temp\ccUZ5Gtk.s:1547   .text.awss_online_switchap:0000000000000322 .L54
C:\Users\stapi\AppData\Local\Temp\ccUZ5Gtk.s:1580   .text.awss_online_switchap:0000000000000362 .L43
C:\Users\stapi\AppData\Local\Temp\ccUZ5Gtk.s:1567   .text.awss_online_switchap:000000000000034c .L56
C:\Users\stapi\AppData\Local\Temp\ccUZ5Gtk.s:1312   .text.awss_online_switchap:0000000000000184 .L49
C:\Users\stapi\AppData\Local\Temp\ccUZ5Gtk.s:1714   .text.awss_stop_report_token:0000000000000020 .L96
C:\Users\stapi\AppData\Local\Temp\ccUZ5Gtk.s:5238   .debug_abbrev:0000000000000000 .Ldebug_abbrev0
C:\Users\stapi\AppData\Local\Temp\ccUZ5Gtk.s:7063   .debug_str:0000000000000c1c .LASF190
C:\Users\stapi\AppData\Local\Temp\ccUZ5Gtk.s:7073   .debug_str:0000000000000d60 .LASF191
C:\Users\stapi\AppData\Local\Temp\ccUZ5Gtk.s:6837   .debug_str:0000000000000477 .LASF192
C:\Users\stapi\AppData\Local\Temp\ccUZ5Gtk.s:6629   .debug_ranges:0000000000000000 .Ldebug_ranges0
C:\Users\stapi\AppData\Local\Temp\ccUZ5Gtk.s:6687   .debug_line:0000000000000000 .Ldebug_line0
C:\Users\stapi\AppData\Local\Temp\ccUZ5Gtk.s:6741   .debug_str:0000000000000189 .LASF0
C:\Users\stapi\AppData\Local\Temp\ccUZ5Gtk.s:6699   .debug_str:0000000000000060 .LASF5
C:\Users\stapi\AppData\Local\Temp\ccUZ5Gtk.s:6949   .debug_str:000000000000088f .LASF1
C:\Users\stapi\AppData\Local\Temp\ccUZ5Gtk.s:6961   .debug_str:00000000000008ed .LASF2
C:\Users\stapi\AppData\Local\Temp\ccUZ5Gtk.s:6799   .debug_str:000000000000034c .LASF3
C:\Users\stapi\AppData\Local\Temp\ccUZ5Gtk.s:6765   .debug_str:0000000000000254 .LASF4
C:\Users\stapi\AppData\Local\Temp\ccUZ5Gtk.s:6805   .debug_str:0000000000000388 .LASF6
C:\Users\stapi\AppData\Local\Temp\ccUZ5Gtk.s:6835   .debug_str:0000000000000465 .LASF7
C:\Users\stapi\AppData\Local\Temp\ccUZ5Gtk.s:6739   .debug_str:000000000000017b .LASF8
C:\Users\stapi\AppData\Local\Temp\ccUZ5Gtk.s:6753   .debug_str:00000000000001e6 .LASF9
C:\Users\stapi\AppData\Local\Temp\ccUZ5Gtk.s:6821   .debug_str:000000000000040a .LASF10
C:\Users\stapi\AppData\Local\Temp\ccUZ5Gtk.s:7049   .debug_str:0000000000000bc0 .LASF11
C:\Users\stapi\AppData\Local\Temp\ccUZ5Gtk.s:6995   .debug_str:0000000000000a14 .LASF12
C:\Users\stapi\AppData\Local\Temp\ccUZ5Gtk.s:7001   .debug_str:0000000000000a41 .LASF13
C:\Users\stapi\AppData\Local\Temp\ccUZ5Gtk.s:6879   .debug_str:0000000000000658 .LASF14
C:\Users\stapi\AppData\Local\Temp\ccUZ5Gtk.s:6809   .debug_str:000000000000039a .LASF15
C:\Users\stapi\AppData\Local\Temp\ccUZ5Gtk.s:6831   .debug_str:000000000000043f .LASF16
C:\Users\stapi\AppData\Local\Temp\ccUZ5Gtk.s:6905   .debug_str:000000000000072a .LASF17
C:\Users\stapi\AppData\Local\Temp\ccUZ5Gtk.s:6943   .debug_str:000000000000086a .LASF74
C:\Users\stapi\AppData\Local\Temp\ccUZ5Gtk.s:6989   .debug_str:00000000000009e3 .LASF18
C:\Users\stapi\AppData\Local\Temp\ccUZ5Gtk.s:6697   .debug_str:000000000000004f .LASF19
C:\Users\stapi\AppData\Local\Temp\ccUZ5Gtk.s:6817   .debug_str:00000000000003ee .LASF20
C:\Users\stapi\AppData\Local\Temp\ccUZ5Gtk.s:6941   .debug_str:0000000000000859 .LASF21
C:\Users\stapi\AppData\Local\Temp\ccUZ5Gtk.s:6735   .debug_str:0000000000000150 .LASF22
C:\Users\stapi\AppData\Local\Temp\ccUZ5Gtk.s:6755   .debug_str:00000000000001fd .LASF23
C:\Users\stapi\AppData\Local\Temp\ccUZ5Gtk.s:6803   .debug_str:0000000000000371 .LASF24
C:\Users\stapi\AppData\Local\Temp\ccUZ5Gtk.s:6963   .debug_str:00000000000008f7 .LASF25
C:\Users\stapi\AppData\Local\Temp\ccUZ5Gtk.s:6793   .debug_str:0000000000000313 .LASF26
C:\Users\stapi\AppData\Local\Temp\ccUZ5Gtk.s:7025   .debug_str:0000000000000aef .LASF27
C:\Users\stapi\AppData\Local\Temp\ccUZ5Gtk.s:7077   .debug_str:0000000000000e15 .LASF28
C:\Users\stapi\AppData\Local\Temp\ccUZ5Gtk.s:7041   .debug_str:0000000000000b76 .LASF29
C:\Users\stapi\AppData\Local\Temp\ccUZ5Gtk.s:6971   .debug_str:0000000000000945 .LASF30
C:\Users\stapi\AppData\Local\Temp\ccUZ5Gtk.s:6775   .debug_str:000000000000028f .LASF31
C:\Users\stapi\AppData\Local\Temp\ccUZ5Gtk.s:7081   .debug_str:0000000000000e37 .LASF32
C:\Users\stapi\AppData\Local\Temp\ccUZ5Gtk.s:6737   .debug_str:0000000000000165 .LASF33
C:\Users\stapi\AppData\Local\Temp\ccUZ5Gtk.s:6869   .debug_str:00000000000005fc .LASF34
C:\Users\stapi\AppData\Local\Temp\ccUZ5Gtk.s:7013   .debug_str:0000000000000a94 .LASF35
C:\Users\stapi\AppData\Local\Temp\ccUZ5Gtk.s:6761   .debug_str:000000000000022a .LASF36
C:\Users\stapi\AppData\Local\Temp\ccUZ5Gtk.s:6933   .debug_str:000000000000080e .LASF37
C:\Users\stapi\AppData\Local\Temp\ccUZ5Gtk.s:6937   .debug_str:0000000000000838 .LASF38
C:\Users\stapi\AppData\Local\Temp\ccUZ5Gtk.s:7079   .debug_str:0000000000000e2c .LASF39
C:\Users\stapi\AppData\Local\Temp\ccUZ5Gtk.s:6929   .debug_str:00000000000007ef .LASF40
C:\Users\stapi\AppData\Local\Temp\ccUZ5Gtk.s:6811   .debug_str:00000000000003b0 .LASF41
C:\Users\stapi\AppData\Local\Temp\ccUZ5Gtk.s:6745   .debug_str:00000000000001ab .LASF42
C:\Users\stapi\AppData\Local\Temp\ccUZ5Gtk.s:6903   .debug_str:0000000000000719 .LASF43
C:\Users\stapi\AppData\Local\Temp\ccUZ5Gtk.s:6979   .debug_str:0000000000000987 .LASF44
C:\Users\stapi\AppData\Local\Temp\ccUZ5Gtk.s:6999   .debug_str:0000000000000a2f .LASF45
C:\Users\stapi\AppData\Local\Temp\ccUZ5Gtk.s:6981   .debug_str:0000000000000994 .LASF46
C:\Users\stapi\AppData\Local\Temp\ccUZ5Gtk.s:6975   .debug_str:000000000000096c .LASF47
C:\Users\stapi\AppData\Local\Temp\ccUZ5Gtk.s:6783   .debug_str:00000000000002c3 .LASF48
C:\Users\stapi\AppData\Local\Temp\ccUZ5Gtk.s:6907   .debug_str:000000000000073d .LASF49
C:\Users\stapi\AppData\Local\Temp\ccUZ5Gtk.s:6725   .debug_str:0000000000000107 .LASF50
C:\Users\stapi\AppData\Local\Temp\ccUZ5Gtk.s:6985   .debug_str:00000000000009ba .LASF51
C:\Users\stapi\AppData\Local\Temp\ccUZ5Gtk.s:7045   .debug_str:0000000000000ba2 .LASF52
C:\Users\stapi\AppData\Local\Temp\ccUZ5Gtk.s:7029   .debug_str:0000000000000b13 .LASF53
C:\Users\stapi\AppData\Local\Temp\ccUZ5Gtk.s:7035   .debug_str:0000000000000b46 .LASF54
C:\Users\stapi\AppData\Local\Temp\ccUZ5Gtk.s:6881   .debug_str:000000000000066e .LASF55
C:\Users\stapi\AppData\Local\Temp\ccUZ5Gtk.s:6889   .debug_str:00000000000006a4 .LASF56
C:\Users\stapi\AppData\Local\Temp\ccUZ5Gtk.s:6729   .debug_str:0000000000000122 .LASF57
C:\Users\stapi\AppData\Local\Temp\ccUZ5Gtk.s:6721   .debug_str:00000000000000f9 .LASF58
C:\Users\stapi\AppData\Local\Temp\ccUZ5Gtk.s:6875   .debug_str:000000000000063c .LASF59
C:\Users\stapi\AppData\Local\Temp\ccUZ5Gtk.s:6871   .debug_str:0000000000000615 .LASF60
C:\Users\stapi\AppData\Local\Temp\ccUZ5Gtk.s:7061   .debug_str:0000000000000c0b .LASF61
C:\Users\stapi\AppData\Local\Temp\ccUZ5Gtk.s:6701   .debug_str:000000000000006a .LASF62
C:\Users\stapi\AppData\Local\Temp\ccUZ5Gtk.s:6763   .debug_str:000000000000023f .LASF63
C:\Users\stapi\AppData\Local\Temp\ccUZ5Gtk.s:6843   .debug_str:000000000000051d .LASF64
C:\Users\stapi\AppData\Local\Temp\ccUZ5Gtk.s:6813   .debug_str:00000000000003c1 .LASF65
C:\Users\stapi\AppData\Local\Temp\ccUZ5Gtk.s:7033   .debug_str:0000000000000b32 .LASF66
C:\Users\stapi\AppData\Local\Temp\ccUZ5Gtk.s:6969   .debug_str:0000000000000931 .LASF67
C:\Users\stapi\AppData\Local\Temp\ccUZ5Gtk.s:6709   .debug_str:00000000000000a1 .LASF68
C:\Users\stapi\AppData\Local\Temp\ccUZ5Gtk.s:6845   .debug_str:0000000000000532 .LASF69
C:\Users\stapi\AppData\Local\Temp\ccUZ5Gtk.s:6733   .debug_str:0000000000000142 .LASF70
C:\Users\stapi\AppData\Local\Temp\ccUZ5Gtk.s:6915   .debug_str:000000000000076f .LASF71
C:\Users\stapi\AppData\Local\Temp\ccUZ5Gtk.s:6847   .debug_str:0000000000000546 .LASF72
C:\Users\stapi\AppData\Local\Temp\ccUZ5Gtk.s:6867   .debug_str:00000000000005e8 .LASF73
C:\Users\stapi\AppData\Local\Temp\ccUZ5Gtk.s:6919   .debug_str:0000000000000795 .LASF75
C:\Users\stapi\AppData\Local\Temp\ccUZ5Gtk.s:7005   .debug_str:0000000000000a4f .LASF76
C:\Users\stapi\AppData\Local\Temp\ccUZ5Gtk.s:6769   .debug_str:000000000000026c .LASF77
C:\Users\stapi\AppData\Local\Temp\ccUZ5Gtk.s:6787   .debug_str:00000000000002db .LASF78
C:\Users\stapi\AppData\Local\Temp\ccUZ5Gtk.s:7075   .debug_str:0000000000000dfd .LASF79
C:\Users\stapi\AppData\Local\Temp\ccUZ5Gtk.s:6851   .debug_str:0000000000000560 .LASF80
C:\Users\stapi\AppData\Local\Temp\ccUZ5Gtk.s:6789   .debug_str:00000000000002f1 .LASF81
C:\Users\stapi\AppData\Local\Temp\ccUZ5Gtk.s:6955   .debug_str:00000000000008b0 .LASF82
C:\Users\stapi\AppData\Local\Temp\ccUZ5Gtk.s:6917   .debug_str:0000000000000782 .LASF83
C:\Users\stapi\AppData\Local\Temp\ccUZ5Gtk.s:6927   .debug_str:00000000000007d8 .LASF84
C:\Users\stapi\AppData\Local\Temp\ccUZ5Gtk.s:6749   .debug_str:00000000000001d2 .LASF85
C:\Users\stapi\AppData\Local\Temp\ccUZ5Gtk.s:6877   .debug_str:0000000000000645 .LASF86
C:\Users\stapi\AppData\Local\Temp\ccUZ5Gtk.s:6801   .debug_str:000000000000035f .LASF87
C:\Users\stapi\AppData\Local\Temp\ccUZ5Gtk.s:7043   .debug_str:0000000000000b8f .LASF88
C:\Users\stapi\AppData\Local\Temp\ccUZ5Gtk.s:6797   .debug_str:000000000000033a .LASF89
C:\Users\stapi\AppData\Local\Temp\ccUZ5Gtk.s:6921   .debug_str:00000000000007a4 .LASF90
C:\Users\stapi\AppData\Local\Temp\ccUZ5Gtk.s:6901   .debug_str:0000000000000707 .LASF91
C:\Users\stapi\AppData\Local\Temp\ccUZ5Gtk.s:6935   .debug_str:0000000000000822 .LASF92
C:\Users\stapi\AppData\Local\Temp\ccUZ5Gtk.s:6785   .debug_str:00000000000002d4 .LASF93
C:\Users\stapi\AppData\Local\Temp\ccUZ5Gtk.s:6691   .debug_str:0000000000000016 .LASF94
C:\Users\stapi\AppData\Local\Temp\ccUZ5Gtk.s:6861   .debug_str:00000000000005bb .LASF95
C:\Users\stapi\AppData\Local\Temp\ccUZ5Gtk.s:7051   .debug_str:0000000000000bc8 .LASF96
C:\Users\stapi\AppData\Local\Temp\ccUZ5Gtk.s:7071   .debug_str:0000000000000d4d .LASF97
C:\Users\stapi\AppData\Local\Temp\ccUZ5Gtk.s:6983   .debug_str:00000000000009a8 .LASF98
C:\Users\stapi\AppData\Local\Temp\ccUZ5Gtk.s:6991   .debug_str:00000000000009f3 .LASF99
C:\Users\stapi\AppData\Local\Temp\ccUZ5Gtk.s:7053   .debug_str:0000000000000bd7 .LASF100
C:\Users\stapi\AppData\Local\Temp\ccUZ5Gtk.s:6743   .debug_str:0000000000000195 .LASF101
C:\Users\stapi\AppData\Local\Temp\ccUZ5Gtk.s:6747   .debug_str:00000000000001bc .LASF102
C:\Users\stapi\AppData\Local\Temp\ccUZ5Gtk.s:6767   .debug_str:000000000000025d .LASF103
C:\Users\stapi\AppData\Local\Temp\ccUZ5Gtk.s:6883   .debug_str:000000000000067e .LASF104
C:\Users\stapi\AppData\Local\Temp\ccUZ5Gtk.s:6899   .debug_str:00000000000006f7 .LASF105
C:\Users\stapi\AppData\Local\Temp\ccUZ5Gtk.s:6825   .debug_str:000000000000041c .LASF106
C:\Users\stapi\AppData\Local\Temp\ccUZ5Gtk.s:6827   .debug_str:000000000000042b .LASF107
C:\Users\stapi\AppData\Local\Temp\ccUZ5Gtk.s:6923   .debug_str:00000000000007ba .LASF108
C:\Users\stapi\AppData\Local\Temp\ccUZ5Gtk.s:7057   .debug_str:0000000000000bec .LASF109
C:\Users\stapi\AppData\Local\Temp\ccUZ5Gtk.s:7007   .debug_str:0000000000000a63 .LASF110
C:\Users\stapi\AppData\Local\Temp\ccUZ5Gtk.s:6693   .debug_str:000000000000002b .LASF111
C:\Users\stapi\AppData\Local\Temp\ccUZ5Gtk.s:1694   .text.awss_stop_report_token:0000000000000000 .LFB73
C:\Users\stapi\AppData\Local\Temp\ccUZ5Gtk.s:1735   .text.awss_stop_report_token:0000000000000048 .LFE73
C:\Users\stapi\AppData\Local\Temp\ccUZ5Gtk.s:1710   .text.awss_stop_report_token:000000000000001c .LVL151
C:\Users\stapi\AppData\Local\Temp\ccUZ5Gtk.s:1721   .text.awss_stop_report_token:0000000000000034 .LVL152
C:\Users\stapi\AppData\Local\Temp\ccUZ5Gtk.s:6997   .debug_str:0000000000000a1d .LASF112
C:\Users\stapi\AppData\Local\Temp\ccUZ5Gtk.s:1671   .text.awss_report_token:0000000000000000 .LFB72
C:\Users\stapi\AppData\Local\Temp\ccUZ5Gtk.s:1687   .text.awss_report_token:0000000000000018 .LFE72
C:\Users\stapi\AppData\Local\Temp\ccUZ5Gtk.s:1685   .text.awss_report_token:0000000000000018 .LVL150
C:\Users\stapi\AppData\Local\Temp\ccUZ5Gtk.s:7067   .debug_str:0000000000000d1d .LASF121
C:\Users\stapi\AppData\Local\Temp\ccUZ5Gtk.s:113    .text.awss_report_token_to_cloud:0000000000000000 .LFB71
C:\Users\stapi\AppData\Local\Temp\ccUZ5Gtk.s:496    .text.awss_report_token_to_cloud:00000000000002fe .LFE71
C:\Users\stapi\AppData\Local\Temp\ccUZ5Gtk.s:7017   .debug_str:0000000000000aab .LASF113
C:\Users\stapi\AppData\Local\Temp\ccUZ5Gtk.s:6957   .debug_str:00000000000008cd .LASF114
C:\Users\stapi\AppData\Local\Temp\ccUZ5Gtk.s:6925   .debug_str:00000000000007d1 .LASF115
C:\Users\stapi\AppData\Local\Temp\ccUZ5Gtk.s:6071   .debug_loc:0000000000000000 .LLST0
C:\Users\stapi\AppData\Local\Temp\ccUZ5Gtk.s:6841   .debug_str:0000000000000510 .LASF133
C:\Users\stapi\AppData\Local\Temp\ccUZ5Gtk.s:6773   .debug_str:0000000000000289 .LASF116
C:\Users\stapi\AppData\Local\Temp\ccUZ5Gtk.s:6083   .debug_loc:000000000000001f .LLST1
C:\Users\stapi\AppData\Local\Temp\ccUZ5Gtk.s:291    .text.awss_report_token_to_cloud:0000000000000138 .LBB33
C:\Users\stapi\AppData\Local\Temp\ccUZ5Gtk.s:386    .text.awss_report_token_to_cloud:0000000000000212 .LBE33
C:\Users\stapi\AppData\Local\Temp\ccUZ5Gtk.s:6951   .debug_str:000000000000089d .LASF117
C:\Users\stapi\AppData\Local\Temp\ccUZ5Gtk.s:6731   .debug_str:000000000000013b .LASF118
C:\Users\stapi\AppData\Local\Temp\ccUZ5Gtk.s:6911   .debug_str:0000000000000756 .LASF119
C:\Users\stapi\AppData\Local\Temp\ccUZ5Gtk.s:6727   .debug_str:0000000000000118 .LASF120
C:\Users\stapi\AppData\Local\Temp\ccUZ5Gtk.s:308    .text.awss_report_token_to_cloud:0000000000000152 .LVL16
C:\Users\stapi\AppData\Local\Temp\ccUZ5Gtk.s:316    .text.awss_report_token_to_cloud:0000000000000162 .LVL17
C:\Users\stapi\AppData\Local\Temp\ccUZ5Gtk.s:320    .text.awss_report_token_to_cloud:000000000000016a .LVL18
C:\Users\stapi\AppData\Local\Temp\ccUZ5Gtk.s:343    .text.awss_report_token_to_cloud:000000000000019a .LVL19
C:\Users\stapi\AppData\Local\Temp\ccUZ5Gtk.s:349    .text.awss_report_token_to_cloud:00000000000001aa .LVL20
C:\Users\stapi\AppData\Local\Temp\ccUZ5Gtk.s:357    .text.awss_report_token_to_cloud:00000000000001c2 .LVL21
C:\Users\stapi\AppData\Local\Temp\ccUZ5Gtk.s:370    .text.awss_report_token_to_cloud:00000000000001e8 .LVL22
C:\Users\stapi\AppData\Local\Temp\ccUZ5Gtk.s:378    .text.awss_report_token_to_cloud:0000000000000200 .LVL23
C:\Users\stapi\AppData\Local\Temp\ccUZ5Gtk.s:385    .text.awss_report_token_to_cloud:0000000000000212 .LVL24
C:\Users\stapi\AppData\Local\Temp\ccUZ5Gtk.s:251    .text.awss_report_token_to_cloud:0000000000000116 .LBB24
C:\Users\stapi\AppData\Local\Temp\ccUZ5Gtk.s:6090   .debug_loc:0000000000000032 .LLST2
C:\Users\stapi\AppData\Local\Temp\ccUZ5Gtk.s:253    .text.awss_report_token_to_cloud:0000000000000116 .LBB26
C:\Users\stapi\AppData\Local\Temp\ccUZ5Gtk.s:6099   .debug_loc:0000000000000048 .LLST3
C:\Users\stapi\AppData\Local\Temp\ccUZ5Gtk.s:273    .text.awss_report_token_to_cloud:0000000000000124 .LVL13
C:\Users\stapi\AppData\Local\Temp\ccUZ5Gtk.s:285    .text.awss_report_token_to_cloud:0000000000000138 .LVL15
C:\Users\stapi\AppData\Local\Temp\ccUZ5Gtk.s:455    .text.awss_report_token_to_cloud:00000000000002be .LBB34
C:\Users\stapi\AppData\Local\Temp\ccUZ5Gtk.s:462    .text.awss_report_token_to_cloud:00000000000002c8 .LBE34
C:\Users\stapi\AppData\Local\Temp\ccUZ5Gtk.s:6108   .debug_loc:000000000000005e .LLST4
C:\Users\stapi\AppData\Local\Temp\ccUZ5Gtk.s:460    .text.awss_report_token_to_cloud:00000000000002c8 .LVL34
C:\Users\stapi\AppData\Local\Temp\ccUZ5Gtk.s:143    .text.awss_report_token_to_cloud:0000000000000030 .LVL2
C:\Users\stapi\AppData\Local\Temp\ccUZ5Gtk.s:168    .text.awss_report_token_to_cloud:000000000000004e .LVL3
C:\Users\stapi\AppData\Local\Temp\ccUZ5Gtk.s:186    .text.awss_report_token_to_cloud:0000000000000082 .LVL4
C:\Users\stapi\AppData\Local\Temp\ccUZ5Gtk.s:196    .text.awss_report_token_to_cloud:0000000000000096 .LVL5
C:\Users\stapi\AppData\Local\Temp\ccUZ5Gtk.s:203    .text.awss_report_token_to_cloud:00000000000000ae .LVL6
C:\Users\stapi\AppData\Local\Temp\ccUZ5Gtk.s:207    .text.awss_report_token_to_cloud:00000000000000ba .LVL7
C:\Users\stapi\AppData\Local\Temp\ccUZ5Gtk.s:216    .text.awss_report_token_to_cloud:00000000000000d2 .LVL8
C:\Users\stapi\AppData\Local\Temp\ccUZ5Gtk.s:234    .text.awss_report_token_to_cloud:00000000000000f6 .LVL9
C:\Users\stapi\AppData\Local\Temp\ccUZ5Gtk.s:241    .text.awss_report_token_to_cloud:0000000000000102 .LVL10
C:\Users\stapi\AppData\Local\Temp\ccUZ5Gtk.s:247    .text.awss_report_token_to_cloud:0000000000000112 .LVL11
C:\Users\stapi\AppData\Local\Temp\ccUZ5Gtk.s:399    .text.awss_report_token_to_cloud:000000000000023a .LVL25
C:\Users\stapi\AppData\Local\Temp\ccUZ5Gtk.s:407    .text.awss_report_token_to_cloud:000000000000024c .LVL26
C:\Users\stapi\AppData\Local\Temp\ccUZ5Gtk.s:414    .text.awss_report_token_to_cloud:0000000000000262 .LVL27
C:\Users\stapi\AppData\Local\Temp\ccUZ5Gtk.s:422    .text.awss_report_token_to_cloud:0000000000000272 .LVL28
C:\Users\stapi\AppData\Local\Temp\ccUZ5Gtk.s:430    .text.awss_report_token_to_cloud:0000000000000284 .LVL30
C:\Users\stapi\AppData\Local\Temp\ccUZ5Gtk.s:436    .text.awss_report_token_to_cloud:0000000000000296 .LVL31
C:\Users\stapi\AppData\Local\Temp\ccUZ5Gtk.s:440    .text.awss_report_token_to_cloud:00000000000002a2 .LVL32
C:\Users\stapi\AppData\Local\Temp\ccUZ5Gtk.s:452    .text.awss_report_token_to_cloud:00000000000002be .LVL33
C:\Users\stapi\AppData\Local\Temp\ccUZ5Gtk.s:479    .text.awss_report_token_to_cloud:00000000000002da .LVL36
C:\Users\stapi\AppData\Local\Temp\ccUZ5Gtk.s:485    .text.awss_report_token_to_cloud:00000000000002ec .LVL37
C:\Users\stapi\AppData\Local\Temp\ccUZ5Gtk.s:489    .text.awss_report_token_to_cloud:00000000000002f8 .LVL38
C:\Users\stapi\AppData\Local\Temp\ccUZ5Gtk.s:6913   .debug_str:000000000000075c .LASF122
C:\Users\stapi\AppData\Local\Temp\ccUZ5Gtk.s:502    .text.awss_reboot_system:0000000000000000 .LFB70
C:\Users\stapi\AppData\Local\Temp\ccUZ5Gtk.s:532    .text.awss_reboot_system:0000000000000028 .LFE70
C:\Users\stapi\AppData\Local\Temp\ccUZ5Gtk.s:519    .text.awss_reboot_system:000000000000001e .LBB37
C:\Users\stapi\AppData\Local\Temp\ccUZ5Gtk.s:526    .text.awss_reboot_system:0000000000000026 .LBE37
C:\Users\stapi\AppData\Local\Temp\ccUZ5Gtk.s:523    .text.awss_reboot_system:0000000000000026 .LVL40
C:\Users\stapi\AppData\Local\Temp\ccUZ5Gtk.s:514    .text.awss_reboot_system:000000000000001a .LVL39
C:\Users\stapi\AppData\Local\Temp\ccUZ5Gtk.s:6689   .debug_str:0000000000000000 .LASF123
C:\Users\stapi\AppData\Local\Temp\ccUZ5Gtk.s:542    .text.awss_switch_ap_online:0000000000000000 .LFB69
C:\Users\stapi\AppData\Local\Temp\ccUZ5Gtk.s:637    .text.awss_switch_ap_online:00000000000000b6 .LFE69
C:\Users\stapi\AppData\Local\Temp\ccUZ5Gtk.s:554    .text.awss_switch_ap_online:0000000000000008 .LBB41
C:\Users\stapi\AppData\Local\Temp\ccUZ5Gtk.s:6115   .debug_loc:0000000000000071 .LLST5
C:\Users\stapi\AppData\Local\Temp\ccUZ5Gtk.s:6124   .debug_loc:0000000000000087 .LLST6
C:\Users\stapi\AppData\Local\Temp\ccUZ5Gtk.s:6133   .debug_loc:000000000000009f .LLST7
C:\Users\stapi\AppData\Local\Temp\ccUZ5Gtk.s:6142   .debug_loc:00000000000000b7 .LLST8
C:\Users\stapi\AppData\Local\Temp\ccUZ5Gtk.s:6151   .debug_loc:00000000000000cc .LLST10
C:\Users\stapi\AppData\Local\Temp\ccUZ5Gtk.s:6160   .debug_loc:00000000000000e4 .LLST11
C:\Users\stapi\AppData\Local\Temp\ccUZ5Gtk.s:578    .text.awss_switch_ap_online:0000000000000040 .LVL42
C:\Users\stapi\AppData\Local\Temp\ccUZ5Gtk.s:585    .text.awss_switch_ap_online:000000000000004e .LVL43
C:\Users\stapi\AppData\Local\Temp\ccUZ5Gtk.s:595    .text.awss_switch_ap_online:0000000000000064 .LVL44
C:\Users\stapi\AppData\Local\Temp\ccUZ5Gtk.s:606    .text.awss_switch_ap_online:000000000000007e .LVL45
C:\Users\stapi\AppData\Local\Temp\ccUZ5Gtk.s:615    .text.awss_switch_ap_online:0000000000000098 .LVL46
C:\Users\stapi\AppData\Local\Temp\ccUZ5Gtk.s:624    .text.awss_switch_ap_online:00000000000000ac .LVL47
C:\Users\stapi\AppData\Local\Temp\ccUZ5Gtk.s:7069   .debug_str:0000000000000d38 .LASF124
C:\Users\stapi\AppData\Local\Temp\ccUZ5Gtk.s:1072   .text.awss_online_switchap:0000000000000000 .LFB68
C:\Users\stapi\AppData\Local\Temp\ccUZ5Gtk.s:1664   .text.awss_online_switchap:00000000000003e0 .LFE68
C:\Users\stapi\AppData\Local\Temp\ccUZ5Gtk.s:6759   .debug_str:0000000000000221 .LASF125
C:\Users\stapi\AppData\Local\Temp\ccUZ5Gtk.s:6168   .debug_loc:00000000000000f8 .LLST22
C:\Users\stapi\AppData\Local\Temp\ccUZ5Gtk.s:6885   .debug_str:000000000000068c .LASF126
C:\Users\stapi\AppData\Local\Temp\ccUZ5Gtk.s:6182   .debug_loc:0000000000000119 .LLST23
C:\Users\stapi\AppData\Local\Temp\ccUZ5Gtk.s:6196   .debug_loc:000000000000013a .LLST24
C:\Users\stapi\AppData\Local\Temp\ccUZ5Gtk.s:6839   .debug_str:0000000000000508 .LASF127
C:\Users\stapi\AppData\Local\Temp\ccUZ5Gtk.s:6214   .debug_loc:0000000000000166 .LLST25
C:\Users\stapi\AppData\Local\Temp\ccUZ5Gtk.s:6231   .debug_loc:0000000000000191 .LLST26
C:\Users\stapi\AppData\Local\Temp\ccUZ5Gtk.s:6781   .debug_str:00000000000002b9 .LASF128
C:\Users\stapi\AppData\Local\Temp\ccUZ5Gtk.s:6256   .debug_loc:00000000000001d2 .LLST27
C:\Users\stapi\AppData\Local\Temp\ccUZ5Gtk.s:6823   .debug_str:0000000000000417 .LASF129
C:\Users\stapi\AppData\Local\Temp\ccUZ5Gtk.s:6853   .debug_str:0000000000000577 .LASF130
C:\Users\stapi\AppData\Local\Temp\ccUZ5Gtk.s:7031   .debug_str:0000000000000b26 .LASF131
C:\Users\stapi\AppData\Local\Temp\ccUZ5Gtk.s:6909   .debug_str:000000000000074e .LASF132
C:\Users\stapi\AppData\Local\Temp\ccUZ5Gtk.s:6281   .debug_loc:0000000000000213 .LLST28
C:\Users\stapi\AppData\Local\Temp\ccUZ5Gtk.s:7009   .debug_str:0000000000000a70 .LASF193
C:\Users\stapi\AppData\Local\Temp\ccUZ5Gtk.s:6296   .debug_loc:000000000000023c .LLST32
C:\Users\stapi\AppData\Local\Temp\ccUZ5Gtk.s:6715   .debug_str:00000000000000d2 .LASF134
C:\Users\stapi\AppData\Local\Temp\ccUZ5Gtk.s:1319   .text.awss_online_switchap:0000000000000192 .LVL110
C:\Users\stapi\AppData\Local\Temp\ccUZ5Gtk.s:1396   .text.awss_online_switchap:0000000000000206 .LBB64
C:\Users\stapi\AppData\Local\Temp\ccUZ5Gtk.s:1441   .text.awss_online_switchap:0000000000000268 .LBE64
C:\Users\stapi\AppData\Local\Temp\ccUZ5Gtk.s:6320   .debug_loc:0000000000000275 .LLST33
C:\Users\stapi\AppData\Local\Temp\ccUZ5Gtk.s:1414   .text.awss_online_switchap:0000000000000226 .LVL116
C:\Users\stapi\AppData\Local\Temp\ccUZ5Gtk.s:1426   .text.awss_online_switchap:000000000000023a .LVL119
C:\Users\stapi\AppData\Local\Temp\ccUZ5Gtk.s:1440   .text.awss_online_switchap:0000000000000268 .LVL120
C:\Users\stapi\AppData\Local\Temp\ccUZ5Gtk.s:1444   .text.awss_online_switchap:0000000000000268 .LBB65
C:\Users\stapi\AppData\Local\Temp\ccUZ5Gtk.s:1476   .text.awss_online_switchap:00000000000002aa .LBE65
C:\Users\stapi\AppData\Local\Temp\ccUZ5Gtk.s:6893   .debug_str:00000000000006ce .LASF135
C:\Users\stapi\AppData\Local\Temp\ccUZ5Gtk.s:1468   .text.awss_online_switchap:00000000000002a0 .LBB66
C:\Users\stapi\AppData\Local\Temp\ccUZ5Gtk.s:1475   .text.awss_online_switchap:00000000000002aa .LBE66
C:\Users\stapi\AppData\Local\Temp\ccUZ5Gtk.s:6336   .debug_loc:000000000000029f .LLST34
C:\Users\stapi\AppData\Local\Temp\ccUZ5Gtk.s:1473   .text.awss_online_switchap:00000000000002aa .LVL124
C:\Users\stapi\AppData\Local\Temp\ccUZ5Gtk.s:1452   .text.awss_online_switchap:000000000000027a .LVL121
C:\Users\stapi\AppData\Local\Temp\ccUZ5Gtk.s:1459   .text.awss_online_switchap:0000000000000290 .LVL122
C:\Users\stapi\AppData\Local\Temp\ccUZ5Gtk.s:1466   .text.awss_online_switchap:00000000000002a0 .LVL123
C:\Users\stapi\AppData\Local\Temp\ccUZ5Gtk.s:6939   .debug_str:0000000000000853 .LASF136
C:\Users\stapi\AppData\Local\Temp\ccUZ5Gtk.s:6829   .debug_str:000000000000043a .LASF137
C:\Users\stapi\AppData\Local\Temp\ccUZ5Gtk.s:6977   .debug_str:0000000000000980 .LASF138
C:\Users\stapi\AppData\Local\Temp\ccUZ5Gtk.s:1508   .text.awss_online_switchap:00000000000002da .LBB69
C:\Users\stapi\AppData\Local\Temp\ccUZ5Gtk.s:1521   .text.awss_online_switchap:00000000000002e8 .LBE69
C:\Users\stapi\AppData\Local\Temp\ccUZ5Gtk.s:6343   .debug_loc:00000000000002b2 .LLST35
C:\Users\stapi\AppData\Local\Temp\ccUZ5Gtk.s:6362   .debug_loc:00000000000002e1 .LLST36
C:\Users\stapi\AppData\Local\Temp\ccUZ5Gtk.s:6381   .debug_loc:0000000000000310 .LLST37
C:\Users\stapi\AppData\Local\Temp\ccUZ5Gtk.s:1519   .text.awss_online_switchap:00000000000002e8 .LVL131
C:\Users\stapi\AppData\Local\Temp\ccUZ5Gtk.s:1499   .text.awss_online_switchap:00000000000002c8 .LVL126
C:\Users\stapi\AppData\Local\Temp\ccUZ5Gtk.s:1506   .text.awss_online_switchap:00000000000002da .LVL127
C:\Users\stapi\AppData\Local\Temp\ccUZ5Gtk.s:1528   .text.awss_online_switchap:00000000000002fa .LVL132
C:\Users\stapi\AppData\Local\Temp\ccUZ5Gtk.s:1536   .text.awss_online_switchap:000000000000030c .LVL133
C:\Users\stapi\AppData\Local\Temp\ccUZ5Gtk.s:1544   .text.awss_online_switchap:0000000000000320 .LVL134
C:\Users\stapi\AppData\Local\Temp\ccUZ5Gtk.s:1564   .text.awss_online_switchap:000000000000034a .LVL136
C:\Users\stapi\AppData\Local\Temp\ccUZ5Gtk.s:1571   .text.awss_online_switchap:0000000000000356 .LVL137
C:\Users\stapi\AppData\Local\Temp\ccUZ5Gtk.s:1576   .text.awss_online_switchap:0000000000000362 .LVL138
C:\Users\stapi\AppData\Local\Temp\ccUZ5Gtk.s:1155   .text.awss_online_switchap:0000000000000070 .LBB59
C:\Users\stapi\AppData\Local\Temp\ccUZ5Gtk.s:1180   .text.awss_online_switchap:000000000000008e .LBE59
C:\Users\stapi\AppData\Local\Temp\ccUZ5Gtk.s:6400   .debug_loc:000000000000033f .LLST29
C:\Users\stapi\AppData\Local\Temp\ccUZ5Gtk.s:6412   .debug_loc:000000000000035f .LLST30
C:\Users\stapi\AppData\Local\Temp\ccUZ5Gtk.s:1158   .text.awss_online_switchap:0000000000000070 .LBB61
C:\Users\stapi\AppData\Local\Temp\ccUZ5Gtk.s:1169   .text.awss_online_switchap:000000000000007e .LBE61
C:\Users\stapi\AppData\Local\Temp\ccUZ5Gtk.s:6423   .debug_loc:000000000000037d .LLST31
C:\Users\stapi\AppData\Local\Temp\ccUZ5Gtk.s:1165   .text.awss_online_switchap:000000000000007c .LVL96
C:\Users\stapi\AppData\Local\Temp\ccUZ5Gtk.s:1177   .text.awss_online_switchap:000000000000008e .LVL98
C:\Users\stapi\AppData\Local\Temp\ccUZ5Gtk.s:1653   .text.awss_online_switchap:00000000000003d4 .LBB73
C:\Users\stapi\AppData\Local\Temp\ccUZ5Gtk.s:1662   .text.awss_online_switchap:00000000000003e0 .LBE73
C:\Users\stapi\AppData\Local\Temp\ccUZ5Gtk.s:6435   .debug_loc:000000000000039d .LLST38
C:\Users\stapi\AppData\Local\Temp\ccUZ5Gtk.s:1658   .text.awss_online_switchap:00000000000003de .LVL149
C:\Users\stapi\AppData\Local\Temp\ccUZ5Gtk.s:1121   .text.awss_online_switchap:0000000000000028 .LVL92
C:\Users\stapi\AppData\Local\Temp\ccUZ5Gtk.s:1149   .text.awss_online_switchap:000000000000006c .LVL94
C:\Users\stapi\AppData\Local\Temp\ccUZ5Gtk.s:1191   .text.awss_online_switchap:00000000000000a6 .LVL99
C:\Users\stapi\AppData\Local\Temp\ccUZ5Gtk.s:1208   .text.awss_online_switchap:00000000000000c6 .LVL101
C:\Users\stapi\AppData\Local\Temp\ccUZ5Gtk.s:1226   .text.awss_online_switchap:00000000000000ec .LVL102
C:\Users\stapi\AppData\Local\Temp\ccUZ5Gtk.s:1232   .text.awss_online_switchap:00000000000000fc .LVL103
C:\Users\stapi\AppData\Local\Temp\ccUZ5Gtk.s:1246   .text.awss_online_switchap:0000000000000116 .LVL104
C:\Users\stapi\AppData\Local\Temp\ccUZ5Gtk.s:1264   .text.awss_online_switchap:000000000000013e .LVL105
C:\Users\stapi\AppData\Local\Temp\ccUZ5Gtk.s:1270   .text.awss_online_switchap:000000000000014e .LVL106
C:\Users\stapi\AppData\Local\Temp\ccUZ5Gtk.s:1287   .text.awss_online_switchap:0000000000000170 .LVL107
C:\Users\stapi\AppData\Local\Temp\ccUZ5Gtk.s:1356   .text.awss_online_switchap:00000000000001ca .LVL112
C:\Users\stapi\AppData\Local\Temp\ccUZ5Gtk.s:1380   .text.awss_online_switchap:00000000000001f4 .LVL113
C:\Users\stapi\AppData\Local\Temp\ccUZ5Gtk.s:1391   .text.awss_online_switchap:0000000000000204 .LVL114
C:\Users\stapi\AppData\Local\Temp\ccUZ5Gtk.s:1619   .text.awss_online_switchap:0000000000000386 .LVL143
C:\Users\stapi\AppData\Local\Temp\ccUZ5Gtk.s:1624   .text.awss_online_switchap:0000000000000396 .LVL144
C:\Users\stapi\AppData\Local\Temp\ccUZ5Gtk.s:1629   .text.awss_online_switchap:00000000000003a6 .LVL145
C:\Users\stapi\AppData\Local\Temp\ccUZ5Gtk.s:1636   .text.awss_online_switchap:00000000000003b8 .LVL146
C:\Users\stapi\AppData\Local\Temp\ccUZ5Gtk.s:1647   .text.awss_online_switchap:00000000000003d2 .LVL147
C:\Users\stapi\AppData\Local\Temp\ccUZ5Gtk.s:6717   .debug_str:00000000000000dc .LASF139
C:\Users\stapi\AppData\Local\Temp\ccUZ5Gtk.s:855    .text.awss_report_token_reply:0000000000000000 .LFB67
C:\Users\stapi\AppData\Local\Temp\ccUZ5Gtk.s:1025   .text.awss_report_token_reply:000000000000011e .LFE67
C:\Users\stapi\AppData\Local\Temp\ccUZ5Gtk.s:6442   .debug_loc:00000000000003b0 .LLST16
C:\Users\stapi\AppData\Local\Temp\ccUZ5Gtk.s:6456   .debug_loc:00000000000003d1 .LLST17
C:\Users\stapi\AppData\Local\Temp\ccUZ5Gtk.s:6470   .debug_loc:00000000000003f2 .LLST18
C:\Users\stapi\AppData\Local\Temp\ccUZ5Gtk.s:6488   .debug_loc:000000000000041e .LLST19
C:\Users\stapi\AppData\Local\Temp\ccUZ5Gtk.s:6495   .debug_loc:0000000000000431 .LLST20
C:\Users\stapi\AppData\Local\Temp\ccUZ5Gtk.s:6791   .debug_str:000000000000030a .LASF140
C:\Users\stapi\AppData\Local\Temp\ccUZ5Gtk.s:6512   .debug_loc:000000000000045c .LLST21
C:\Users\stapi\AppData\Local\Temp\ccUZ5Gtk.s:6973   .debug_str:0000000000000963 .LASF141
C:\Users\stapi\AppData\Local\Temp\ccUZ5Gtk.s:882    .text.awss_report_token_reply:0000000000000018 .LVL69
C:\Users\stapi\AppData\Local\Temp\ccUZ5Gtk.s:909    .text.awss_report_token_reply:000000000000003a .LVL73
C:\Users\stapi\AppData\Local\Temp\ccUZ5Gtk.s:930    .text.awss_report_token_reply:0000000000000058 .LVL75
C:\Users\stapi\AppData\Local\Temp\ccUZ5Gtk.s:942    .text.awss_report_token_reply:000000000000006c .LVL76
C:\Users\stapi\AppData\Local\Temp\ccUZ5Gtk.s:967    .text.awss_report_token_reply:000000000000009e .LVL79
C:\Users\stapi\AppData\Local\Temp\ccUZ5Gtk.s:974    .text.awss_report_token_reply:00000000000000b6 .LVL80
C:\Users\stapi\AppData\Local\Temp\ccUZ5Gtk.s:979    .text.awss_report_token_reply:00000000000000c6 .LVL81
C:\Users\stapi\AppData\Local\Temp\ccUZ5Gtk.s:988    .text.awss_report_token_reply:00000000000000de .LVL82
C:\Users\stapi\AppData\Local\Temp\ccUZ5Gtk.s:1006   .text.awss_report_token_reply:00000000000000fc .LVL83
C:\Users\stapi\AppData\Local\Temp\ccUZ5Gtk.s:1010   .text.awss_report_token_reply:0000000000000106 .LVL84
C:\Users\stapi\AppData\Local\Temp\ccUZ5Gtk.s:1018   .text.awss_report_token_reply:0000000000000114 .LVL85
C:\Users\stapi\AppData\Local\Temp\ccUZ5Gtk.s:1021   .text.awss_report_token_reply:000000000000011c .LVL86
C:\Users\stapi\AppData\Local\Temp\ccUZ5Gtk.s:6895   .debug_str:00000000000006d4 .LASF142
C:\Users\stapi\AppData\Local\Temp\ccUZ5Gtk.s:793    .text.awss_token_timeout:0000000000000000 .LFB66
C:\Users\stapi\AppData\Local\Temp\ccUZ5Gtk.s:829    .text.awss_token_timeout:0000000000000038 .LFE66
C:\Users\stapi\AppData\Local\Temp\ccUZ5Gtk.s:6535   .debug_loc:0000000000000494 .LLST15
C:\Users\stapi\AppData\Local\Temp\ccUZ5Gtk.s:811    .text.awss_token_timeout:000000000000001e .LVL62
C:\Users\stapi\AppData\Local\Temp\ccUZ5Gtk.s:6779   .debug_str:00000000000002a7 .LASF143
C:\Users\stapi\AppData\Local\Temp\ccUZ5Gtk.s:708    .text.awss_update_token:0000000000000000 .LFB65
C:\Users\stapi\AppData\Local\Temp\ccUZ5Gtk.s:786    .text.awss_update_token:00000000000000ac .LFE65
C:\Users\stapi\AppData\Local\Temp\ccUZ5Gtk.s:742    .text.awss_update_token:0000000000000048 .LVL55
C:\Users\stapi\AppData\Local\Temp\ccUZ5Gtk.s:749    .text.awss_update_token:0000000000000054 .LVL56
C:\Users\stapi\AppData\Local\Temp\ccUZ5Gtk.s:754    .text.awss_update_token:0000000000000060 .LVL57
C:\Users\stapi\AppData\Local\Temp\ccUZ5Gtk.s:760    .text.awss_update_token:0000000000000070 .LVL58
C:\Users\stapi\AppData\Local\Temp\ccUZ5Gtk.s:765    .text.awss_update_token:0000000000000080 .LVL59
C:\Users\stapi\AppData\Local\Temp\ccUZ5Gtk.s:770    .text.awss_update_token:0000000000000090 .LVL60
C:\Users\stapi\AppData\Local\Temp\ccUZ5Gtk.s:777    .text.awss_update_token:00000000000000a2 .LVL61
C:\Users\stapi\AppData\Local\Temp\ccUZ5Gtk.s:6855   .debug_str:0000000000000585 .LASF144
C:\Users\stapi\AppData\Local\Temp\ccUZ5Gtk.s:644    .text.awss_token_remain_time:0000000000000000 .LFB64
C:\Users\stapi\AppData\Local\Temp\ccUZ5Gtk.s:697    .text.awss_token_remain_time:000000000000004a .LFE64
C:\Users\stapi\AppData\Local\Temp\ccUZ5Gtk.s:6807   .debug_str:0000000000000393 .LASF145
C:\Users\stapi\AppData\Local\Temp\ccUZ5Gtk.s:6542   .debug_loc:00000000000004a7 .LLST12
C:\Users\stapi\AppData\Local\Temp\ccUZ5Gtk.s:6550   .debug_loc:00000000000004bb .LLST13
C:\Users\stapi\AppData\Local\Temp\ccUZ5Gtk.s:6719   .debug_str:00000000000000f4 .LASF146
C:\Users\stapi\AppData\Local\Temp\ccUZ5Gtk.s:6561   .debug_loc:00000000000004d9 .LLST14
C:\Users\stapi\AppData\Local\Temp\ccUZ5Gtk.s:655    .text.awss_token_remain_time:0000000000000010 .LVL49
C:\Users\stapi\AppData\Local\Temp\ccUZ5Gtk.s:6859   .debug_str:00000000000005a7 .LASF147
C:\Users\stapi\AppData\Local\Temp\ccUZ5Gtk.s:7023   .debug_str:0000000000000adc .LASF148
C:\Users\stapi\AppData\Local\Temp\ccUZ5Gtk.s:6891   .debug_str:00000000000006b8 .LASF149
C:\Users\stapi\AppData\Local\Temp\ccUZ5Gtk.s:6723   .debug_str:0000000000000102 .LASF150
C:\Users\stapi\AppData\Local\Temp\ccUZ5Gtk.s:6751   .debug_str:00000000000001e0 .LASF151
C:\Users\stapi\AppData\Local\Temp\ccUZ5Gtk.s:7055   .debug_str:0000000000000be4 .LASF152
C:\Users\stapi\AppData\Local\Temp\ccUZ5Gtk.s:6711   .debug_str:00000000000000b6 .LASF194
C:\Users\stapi\AppData\Local\Temp\ccUZ5Gtk.s:13     .text.os_get_time_ms:0000000000000000 .LFB20
C:\Users\stapi\AppData\Local\Temp\ccUZ5Gtk.s:52     .text.os_get_time_ms:0000000000000038 .LFE20
C:\Users\stapi\AppData\Local\Temp\ccUZ5Gtk.s:7059   .debug_str:0000000000000bff .LASF153
C:\Users\stapi\AppData\Local\Temp\ccUZ5Gtk.s:32     .text.os_get_time_ms:000000000000001e .LVL0
C:\Users\stapi\AppData\Local\Temp\ccUZ5Gtk.s:42     .text.os_get_time_ms:000000000000002c .LVL1
C:\Users\stapi\AppData\Local\Temp\ccUZ5Gtk.s:7047   .debug_str:0000000000000bb6 .LASF154
C:\Users\stapi\AppData\Local\Temp\ccUZ5Gtk.s:6849   .debug_str:000000000000055b .LASF155
C:\Users\stapi\AppData\Local\Temp\ccUZ5Gtk.s:6819   .debug_str:0000000000000402 .LASF195
C:\Users\stapi\AppData\Local\Temp\ccUZ5Gtk.s:6757   .debug_str:0000000000000217 .LASF156
C:\Users\stapi\AppData\Local\Temp\ccUZ5Gtk.s:7039   .debug_str:0000000000000b6c .LASF196
C:\Users\stapi\AppData\Local\Temp\ccUZ5Gtk.s:6897   .debug_str:00000000000006e7 .LASF157
C:\Users\stapi\AppData\Local\Temp\ccUZ5Gtk.s:6965   .debug_str:0000000000000913 .LASF177
C:\Users\stapi\AppData\Local\Temp\ccUZ5Gtk.s:6707   .debug_str:0000000000000090 .LASF179
C:\Users\stapi\AppData\Local\Temp\ccUZ5Gtk.s:7027   .debug_str:0000000000000b0a .LASF158
C:\Users\stapi\AppData\Local\Temp\ccUZ5Gtk.s:6931   .debug_str:00000000000007ff .LASF159
C:\Users\stapi\AppData\Local\Temp\ccUZ5Gtk.s:7021   .debug_str:0000000000000aca .LASF160
C:\Users\stapi\AppData\Local\Temp\ccUZ5Gtk.s:6713   .debug_str:00000000000000c5 .LASF161
C:\Users\stapi\AppData\Local\Temp\ccUZ5Gtk.s:6833   .debug_str:0000000000000454 .LASF162
C:\Users\stapi\AppData\Local\Temp\ccUZ5Gtk.s:6705   .debug_str:0000000000000085 .LASF163
C:\Users\stapi\AppData\Local\Temp\ccUZ5Gtk.s:7003   .debug_str:0000000000000a46 .LASF164
C:\Users\stapi\AppData\Local\Temp\ccUZ5Gtk.s:6815   .debug_str:00000000000003d6 .LASF165
C:\Users\stapi\AppData\Local\Temp\ccUZ5Gtk.s:6703   .debug_str:000000000000007a .LASF166
C:\Users\stapi\AppData\Local\Temp\ccUZ5Gtk.s:6795   .debug_str:0000000000000329 .LASF167
C:\Users\stapi\AppData\Local\Temp\ccUZ5Gtk.s:7019   .debug_str:0000000000000abb .LASF168
C:\Users\stapi\AppData\Local\Temp\ccUZ5Gtk.s:6865   .debug_str:00000000000005d8 .LASF169
C:\Users\stapi\AppData\Local\Temp\ccUZ5Gtk.s:6863   .debug_str:00000000000005cc .LASF170
C:\Users\stapi\AppData\Local\Temp\ccUZ5Gtk.s:6987   .debug_str:00000000000009d2 .LASF171
C:\Users\stapi\AppData\Local\Temp\ccUZ5Gtk.s:6945   .debug_str:0000000000000877 .LASF172
C:\Users\stapi\AppData\Local\Temp\ccUZ5Gtk.s:6857   .debug_str:000000000000059c .LASF173
C:\Users\stapi\AppData\Local\Temp\ccUZ5Gtk.s:6993   .debug_str:0000000000000a00 .LASF174
C:\Users\stapi\AppData\Local\Temp\ccUZ5Gtk.s:6771   .debug_str:0000000000000282 .LASF175
C:\Users\stapi\AppData\Local\Temp\ccUZ5Gtk.s:6967   .debug_str:000000000000091a .LASF176
C:\Users\stapi\AppData\Local\Temp\ccUZ5Gtk.s:6777   .debug_str:00000000000002a0 .LASF178
C:\Users\stapi\AppData\Local\Temp\ccUZ5Gtk.s:6873   .debug_str:000000000000062b .LASF180
C:\Users\stapi\AppData\Local\Temp\ccUZ5Gtk.s:6959   .debug_str:00000000000008d8 .LASF181
C:\Users\stapi\AppData\Local\Temp\ccUZ5Gtk.s:6953   .debug_str:00000000000008a8 .LASF182
C:\Users\stapi\AppData\Local\Temp\ccUZ5Gtk.s:7015   .debug_str:0000000000000aa4 .LASF183
C:\Users\stapi\AppData\Local\Temp\ccUZ5Gtk.s:7065   .debug_str:0000000000000d03 .LASF184
C:\Users\stapi\AppData\Local\Temp\ccUZ5Gtk.s:6947   .debug_str:000000000000088a .LASF185
C:\Users\stapi\AppData\Local\Temp\ccUZ5Gtk.s:6887   .debug_str:0000000000000694 .LASF186
C:\Users\stapi\AppData\Local\Temp\ccUZ5Gtk.s:7037   .debug_str:0000000000000b56 .LASF187
C:\Users\stapi\AppData\Local\Temp\ccUZ5Gtk.s:7011   .debug_str:0000000000000a85 .LASF188
C:\Users\stapi\AppData\Local\Temp\ccUZ5Gtk.s:6695   .debug_str:0000000000000042 .LASF189
C:\Users\stapi\AppData\Local\Temp\ccUZ5Gtk.s:466    .text.awss_report_token_to_cloud:00000000000002ca .LVL35
C:\Users\stapi\AppData\Local\Temp\ccUZ5Gtk.s:424    .text.awss_report_token_to_cloud:0000000000000274 .LVL29
C:\Users\stapi\AppData\Local\Temp\ccUZ5Gtk.s:264    .text.awss_report_token_to_cloud:000000000000011c .LVL12
C:\Users\stapi\AppData\Local\Temp\ccUZ5Gtk.s:275    .text.awss_report_token_to_cloud:0000000000000126 .LVL14
C:\Users\stapi\AppData\Local\Temp\ccUZ5Gtk.s:553    .text.awss_switch_ap_online:0000000000000008 .LVL41
C:\Users\stapi\AppData\Local\Temp\ccUZ5Gtk.s:1075   .text.awss_online_switchap:0000000000000000 .LVL87
C:\Users\stapi\AppData\Local\Temp\ccUZ5Gtk.s:1095   .text.awss_online_switchap:000000000000000c .LVL88
C:\Users\stapi\AppData\Local\Temp\ccUZ5Gtk.s:1102   .text.awss_online_switchap:0000000000000014 .LVL90
C:\Users\stapi\AppData\Local\Temp\ccUZ5Gtk.s:1100   .text.awss_online_switchap:0000000000000012 .LVL89
C:\Users\stapi\AppData\Local\Temp\ccUZ5Gtk.s:1105   .text.awss_online_switchap:0000000000000016 .LVL91
C:\Users\stapi\AppData\Local\Temp\ccUZ5Gtk.s:1393   .text.awss_online_switchap:0000000000000206 .LVL115
C:\Users\stapi\AppData\Local\Temp\ccUZ5Gtk.s:1598   .text.awss_online_switchap:000000000000036c .LVL139
C:\Users\stapi\AppData\Local\Temp\ccUZ5Gtk.s:1551   .text.awss_online_switchap:0000000000000326 .LVL135
C:\Users\stapi\AppData\Local\Temp\ccUZ5Gtk.s:1607   .text.awss_online_switchap:0000000000000374 .LVL141
C:\Users\stapi\AppData\Local\Temp\ccUZ5Gtk.s:1612   .text.awss_online_switchap:0000000000000376 .LVL142
C:\Users\stapi\AppData\Local\Temp\ccUZ5Gtk.s:1193   .text.awss_online_switchap:00000000000000a8 .LVL100
C:\Users\stapi\AppData\Local\Temp\ccUZ5Gtk.s:1142   .text.awss_online_switchap:0000000000000052 .LVL93
C:\Users\stapi\AppData\Local\Temp\ccUZ5Gtk.s:1299   .text.awss_online_switchap:000000000000017c .LVL108
C:\Users\stapi\AppData\Local\Temp\ccUZ5Gtk.s:1311   .text.awss_online_switchap:0000000000000184 .LVL109
C:\Users\stapi\AppData\Local\Temp\ccUZ5Gtk.s:1340   .text.awss_online_switchap:00000000000001b0 .LVL111
C:\Users\stapi\AppData\Local\Temp\ccUZ5Gtk.s:1604   .text.awss_online_switchap:000000000000036e .LVL140
C:\Users\stapi\AppData\Local\Temp\ccUZ5Gtk.s:1419   .text.awss_online_switchap:000000000000022a .LVL117
C:\Users\stapi\AppData\Local\Temp\ccUZ5Gtk.s:1423   .text.awss_online_switchap:000000000000022e .LVL118
C:\Users\stapi\AppData\Local\Temp\ccUZ5Gtk.s:1513   .text.awss_online_switchap:00000000000002dc .LVL128
C:\Users\stapi\AppData\Local\Temp\ccUZ5Gtk.s:1515   .text.awss_online_switchap:00000000000002de .LVL129
C:\Users\stapi\AppData\Local\Temp\ccUZ5Gtk.s:1517   .text.awss_online_switchap:00000000000002e0 .LVL130
C:\Users\stapi\AppData\Local\Temp\ccUZ5Gtk.s:1154   .text.awss_online_switchap:0000000000000070 .LVL95
C:\Users\stapi\AppData\Local\Temp\ccUZ5Gtk.s:1167   .text.awss_online_switchap:000000000000007e .LVL97
C:\Users\stapi\AppData\Local\Temp\ccUZ5Gtk.s:1652   .text.awss_online_switchap:00000000000003d4 .LVL148
C:\Users\stapi\AppData\Local\Temp\ccUZ5Gtk.s:858    .text.awss_report_token_reply:0000000000000000 .LVL64
C:\Users\stapi\AppData\Local\Temp\ccUZ5Gtk.s:875    .text.awss_report_token_reply:000000000000000c .LVL66
C:\Users\stapi\AppData\Local\Temp\ccUZ5Gtk.s:878    .text.awss_report_token_reply:000000000000000e .LVL67
C:\Users\stapi\AppData\Local\Temp\ccUZ5Gtk.s:880    .text.awss_report_token_reply:0000000000000010 .LVL68
C:\Users\stapi\AppData\Local\Temp\ccUZ5Gtk.s:888    .text.awss_report_token_reply:000000000000001c .LVL70
C:\Users\stapi\AppData\Local\Temp\ccUZ5Gtk.s:866    .text.awss_report_token_reply:0000000000000008 .LVL65
C:\Users\stapi\AppData\Local\Temp\ccUZ5Gtk.s:899    .text.awss_report_token_reply:000000000000002a .LVL71
C:\Users\stapi\AppData\Local\Temp\ccUZ5Gtk.s:920    .text.awss_report_token_reply:0000000000000044 .LVL74
C:\Users\stapi\AppData\Local\Temp\ccUZ5Gtk.s:904    .text.awss_report_token_reply:0000000000000030 .LVL72
C:\Users\stapi\AppData\Local\Temp\ccUZ5Gtk.s:949    .text.awss_report_token_reply:0000000000000076 .LVL77
C:\Users\stapi\AppData\Local\Temp\ccUZ5Gtk.s:964    .text.awss_report_token_reply:0000000000000092 .LVL78
C:\Users\stapi\AppData\Local\Temp\ccUZ5Gtk.s:816    .text.awss_token_timeout:0000000000000022 .LVL63
C:\Users\stapi\AppData\Local\Temp\ccUZ5Gtk.s:651    .text.awss_token_remain_time:0000000000000008 .LVL48
C:\Users\stapi\AppData\Local\Temp\ccUZ5Gtk.s:690    .text.awss_token_remain_time:0000000000000042 .LVL54
C:\Users\stapi\AppData\Local\Temp\ccUZ5Gtk.s:663    .text.awss_token_remain_time:000000000000001e .LVL50
C:\Users\stapi\AppData\Local\Temp\ccUZ5Gtk.s:671    .text.awss_token_remain_time:0000000000000024 .LVL52
C:\Users\stapi\AppData\Local\Temp\ccUZ5Gtk.s:667    .text.awss_token_remain_time:0000000000000022 .LVL51
C:\Users\stapi\AppData\Local\Temp\ccUZ5Gtk.s:681    .text.awss_token_remain_time:0000000000000030 .LVL53
C:\Users\stapi\AppData\Local\Temp\ccUZ5Gtk.s:1854   .debug_info:0000000000000000 .Ldebug_info0
C:\Users\stapi\AppData\Local\Temp\ccUZ5Gtk.s:260    .text.awss_report_token_to_cloud:000000000000011a .LBE24
C:\Users\stapi\AppData\Local\Temp\ccUZ5Gtk.s:265    .text.awss_report_token_to_cloud:000000000000011c .LBB32
C:\Users\stapi\AppData\Local\Temp\ccUZ5Gtk.s:288    .text.awss_report_token_to_cloud:0000000000000138 .LBE32
C:\Users\stapi\AppData\Local\Temp\ccUZ5Gtk.s:468    .text.awss_report_token_to_cloud:00000000000002ca .LBB36
C:\Users\stapi\AppData\Local\Temp\ccUZ5Gtk.s:472    .text.awss_report_token_to_cloud:00000000000002ca .LBE36
C:\Users\stapi\AppData\Local\Temp\ccUZ5Gtk.s:258    .text.awss_report_token_to_cloud:000000000000011a .LBE26
C:\Users\stapi\AppData\Local\Temp\ccUZ5Gtk.s:268    .text.awss_report_token_to_cloud:000000000000011c .LBB29
C:\Users\stapi\AppData\Local\Temp\ccUZ5Gtk.s:277    .text.awss_report_token_to_cloud:0000000000000126 .LBE29
C:\Users\stapi\AppData\Local\Temp\ccUZ5Gtk.s:571    .text.awss_switch_ap_online:0000000000000034 .LBE41
C:\Users\stapi\AppData\Local\Temp\ccUZ5Gtk.s:574    .text.awss_switch_ap_online:0000000000000038 .LBB44
C:\Users\stapi\AppData\Local\Temp\ccUZ5Gtk.s:580    .text.awss_switch_ap_online:0000000000000040 .LBE44
C:\Users\stapi\AppData\Local\Temp\ccUZ5Gtk.s:1297   .text.awss_online_switchap:000000000000017c .LBB63
C:\Users\stapi\AppData\Local\Temp\ccUZ5Gtk.s:1342   .text.awss_online_switchap:00000000000001b0 .LBE63
C:\Users\stapi\AppData\Local\Temp\ccUZ5Gtk.s:1601   .text.awss_online_switchap:000000000000036c .LBB72
C:\Users\stapi\AppData\Local\Temp\ccUZ5Gtk.s:1609   .text.awss_online_switchap:0000000000000374 .LBE72
C:\Users\stapi\AppData\Local\Temp\ccUZ5Gtk.s:1480   .text.awss_online_switchap:00000000000002ae .LBB68
C:\Users\stapi\AppData\Local\Temp\ccUZ5Gtk.s:1486   .text.awss_online_switchap:00000000000002b6 .LBE68
C:\Users\stapi\AppData\Local\Temp\ccUZ5Gtk.s:1488   .text.awss_online_switchap:00000000000002b6 .LBB71
C:\Users\stapi\AppData\Local\Temp\ccUZ5Gtk.s:1577   .text.awss_online_switchap:0000000000000362 .LBE71

UNDEFINED SYMBOLS
__riscv_save_1
HAL_UptimeMs
__riscv_restore_1
__riscv_save_4
iotx_state_event
__riscv_restore_4
awss_bind_update_statis
awss_stop_timer
HAL_Printf
HAL_Timer_Create
HAL_Timer_Stop
HAL_Timer_Start
HAL_Malloc
memset
snprintf
awss_get_token
awss_build_packet
HAL_Snprintf
LITE_syslog
awss_build_topic
awss_cmp_mqtt_send
HAL_Free
HAL_Reboot
HAL_Awss_Connect_Ap
__riscv_save_0
__riscv_restore_0
g_aes_random
produce_random
awss_cmp_mqtt_get_payload
json_get_value_by_name
atoi
iotx_event_post
awss_bind_disp_statis
__riscv_save_10
memcpy
strtol
HAL_Wifi_Get_Ap_Info
strncmp
memcmp
__riscv_restore_10
g_token_type
