   1              		.file	"awss_cmp_mqtt.c"
   2              		.option nopic
   3              		.attribute arch, "rv32i2p0_m2p0_a2p0_f2p0_c2p0_b_p0p94"
   4              		.attribute unaligned_access, 0
   5              		.attribute stack_align, 16
   6              		.text
   7              	.Ltext0:
   8              		.cfi_sections	.debug_frame
   9              		.section	.text.awss_cmp_mqtt_register_cb,"ax",@progbits
  10              		.align	1
  11              		.globl	awss_cmp_mqtt_register_cb
  13              	awss_cmp_mqtt_register_cb:
  14              	.LFB48:
  15              		.file 1 "C:/Users/stapi/OneDrive/Desktop/GD32VW553/V1_MQTT_OK/GD32VW55X_Wifi_BLE_SDK/GD32VW55x_REL
   1:C:/Users/stapi/OneDrive/Desktop/GD32VW553/V1_MQTT_OK/GD32VW55X_Wifi_BLE_SDK/GD32VW55x_RELEASE_V1.0.2/MSDK/cloud/alicloud/src/services/dev_bind\awss_cmp_mqtt.c **** /*
   2:C:/Users/stapi/OneDrive/Desktop/GD32VW553/V1_MQTT_OK/GD32VW55X_Wifi_BLE_SDK/GD32VW55x_RELEASE_V1.0.2/MSDK/cloud/alicloud/src/services/dev_bind\awss_cmp_mqtt.c ****  * Copyright (C) 2015-2018 Alibaba Group Holding Limited
   3:C:/Users/stapi/OneDrive/Desktop/GD32VW553/V1_MQTT_OK/GD32VW55X_Wifi_BLE_SDK/GD32VW55x_RELEASE_V1.0.2/MSDK/cloud/alicloud/src/services/dev_bind\awss_cmp_mqtt.c ****  */
   4:C:/Users/stapi/OneDrive/Desktop/GD32VW553/V1_MQTT_OK/GD32VW55X_Wifi_BLE_SDK/GD32VW55x_RELEASE_V1.0.2/MSDK/cloud/alicloud/src/services/dev_bind\awss_cmp_mqtt.c **** 
   5:C:/Users/stapi/OneDrive/Desktop/GD32VW553/V1_MQTT_OK/GD32VW55X_Wifi_BLE_SDK/GD32VW55x_RELEASE_V1.0.2/MSDK/cloud/alicloud/src/services/dev_bind\awss_cmp_mqtt.c **** 
   6:C:/Users/stapi/OneDrive/Desktop/GD32VW553/V1_MQTT_OK/GD32VW55X_Wifi_BLE_SDK/GD32VW55x_RELEASE_V1.0.2/MSDK/cloud/alicloud/src/services/dev_bind\awss_cmp_mqtt.c **** 
   7:C:/Users/stapi/OneDrive/Desktop/GD32VW553/V1_MQTT_OK/GD32VW55X_Wifi_BLE_SDK/GD32VW55x_RELEASE_V1.0.2/MSDK/cloud/alicloud/src/services/dev_bind\awss_cmp_mqtt.c **** #include <stdio.h>
   8:C:/Users/stapi/OneDrive/Desktop/GD32VW553/V1_MQTT_OK/GD32VW55X_Wifi_BLE_SDK/GD32VW55x_RELEASE_V1.0.2/MSDK/cloud/alicloud/src/services/dev_bind\awss_cmp_mqtt.c **** #include "os.h"
   9:C:/Users/stapi/OneDrive/Desktop/GD32VW553/V1_MQTT_OK/GD32VW55X_Wifi_BLE_SDK/GD32VW55x_RELEASE_V1.0.2/MSDK/cloud/alicloud/src/services/dev_bind\awss_cmp_mqtt.c **** #include "iot_import.h"
  10:C:/Users/stapi/OneDrive/Desktop/GD32VW553/V1_MQTT_OK/GD32VW55X_Wifi_BLE_SDK/GD32VW55x_RELEASE_V1.0.2/MSDK/cloud/alicloud/src/services/dev_bind\awss_cmp_mqtt.c **** #include "iot_export.h"
  11:C:/Users/stapi/OneDrive/Desktop/GD32VW553/V1_MQTT_OK/GD32VW55X_Wifi_BLE_SDK/GD32VW55x_RELEASE_V1.0.2/MSDK/cloud/alicloud/src/services/dev_bind\awss_cmp_mqtt.c **** #include "awss_cmp.h"
  12:C:/Users/stapi/OneDrive/Desktop/GD32VW553/V1_MQTT_OK/GD32VW55X_Wifi_BLE_SDK/GD32VW55x_RELEASE_V1.0.2/MSDK/cloud/alicloud/src/services/dev_bind\awss_cmp_mqtt.c **** #include "awss_notify.h"
  13:C:/Users/stapi/OneDrive/Desktop/GD32VW553/V1_MQTT_OK/GD32VW55X_Wifi_BLE_SDK/GD32VW55x_RELEASE_V1.0.2/MSDK/cloud/alicloud/src/services/dev_bind\awss_cmp_mqtt.c **** #include "awss_packet.h"
  14:C:/Users/stapi/OneDrive/Desktop/GD32VW553/V1_MQTT_OK/GD32VW55X_Wifi_BLE_SDK/GD32VW55x_RELEASE_V1.0.2/MSDK/cloud/alicloud/src/services/dev_bind\awss_cmp_mqtt.c **** #include "awss_log.h"
  15:C:/Users/stapi/OneDrive/Desktop/GD32VW553/V1_MQTT_OK/GD32VW55X_Wifi_BLE_SDK/GD32VW55x_RELEASE_V1.0.2/MSDK/cloud/alicloud/src/services/dev_bind\awss_cmp_mqtt.c **** 
  16:C:/Users/stapi/OneDrive/Desktop/GD32VW553/V1_MQTT_OK/GD32VW55X_Wifi_BLE_SDK/GD32VW55x_RELEASE_V1.0.2/MSDK/cloud/alicloud/src/services/dev_bind\awss_cmp_mqtt.c **** #if defined(__cplusplus)  /* If this is a C++ compiler, use C linkage */
  17:C:/Users/stapi/OneDrive/Desktop/GD32VW553/V1_MQTT_OK/GD32VW55X_Wifi_BLE_SDK/GD32VW55x_RELEASE_V1.0.2/MSDK/cloud/alicloud/src/services/dev_bind\awss_cmp_mqtt.c **** extern "C" {
  18:C:/Users/stapi/OneDrive/Desktop/GD32VW553/V1_MQTT_OK/GD32VW55X_Wifi_BLE_SDK/GD32VW55x_RELEASE_V1.0.2/MSDK/cloud/alicloud/src/services/dev_bind\awss_cmp_mqtt.c **** #endif
  19:C:/Users/stapi/OneDrive/Desktop/GD32VW553/V1_MQTT_OK/GD32VW55X_Wifi_BLE_SDK/GD32VW55x_RELEASE_V1.0.2/MSDK/cloud/alicloud/src/services/dev_bind\awss_cmp_mqtt.c **** 
  20:C:/Users/stapi/OneDrive/Desktop/GD32VW553/V1_MQTT_OK/GD32VW55X_Wifi_BLE_SDK/GD32VW55x_RELEASE_V1.0.2/MSDK/cloud/alicloud/src/services/dev_bind\awss_cmp_mqtt.c **** static char online_init = 0;
  21:C:/Users/stapi/OneDrive/Desktop/GD32VW553/V1_MQTT_OK/GD32VW55X_Wifi_BLE_SDK/GD32VW55x_RELEASE_V1.0.2/MSDK/cloud/alicloud/src/services/dev_bind\awss_cmp_mqtt.c **** 
  22:C:/Users/stapi/OneDrive/Desktop/GD32VW553/V1_MQTT_OK/GD32VW55X_Wifi_BLE_SDK/GD32VW55x_RELEASE_V1.0.2/MSDK/cloud/alicloud/src/services/dev_bind\awss_cmp_mqtt.c **** int awss_cmp_mqtt_register_cb(char *topic, void *cb)
  23:C:/Users/stapi/OneDrive/Desktop/GD32VW553/V1_MQTT_OK/GD32VW55X_Wifi_BLE_SDK/GD32VW55x_RELEASE_V1.0.2/MSDK/cloud/alicloud/src/services/dev_bind\awss_cmp_mqtt.c **** {
  16              		.loc 1 23 1
  17              		.cfi_startproc
  18              	.LVL0:
  24:C:/Users/stapi/OneDrive/Desktop/GD32VW553/V1_MQTT_OK/GD32VW55X_Wifi_BLE_SDK/GD32VW55x_RELEASE_V1.0.2/MSDK/cloud/alicloud/src/services/dev_bind\awss_cmp_mqtt.c ****     if (topic == NULL) {
  19              		.loc 1 24 5
  20              		.loc 1 24 8 is_stmt 0
  21 0000 11C9     		beq	a0,zero,.L3
  22 0002 AE86     		mv	a3,a1
  25:C:/Users/stapi/OneDrive/Desktop/GD32VW553/V1_MQTT_OK/GD32VW55X_Wifi_BLE_SDK/GD32VW55x_RELEASE_V1.0.2/MSDK/cloud/alicloud/src/services/dev_bind\awss_cmp_mqtt.c ****         return STATE_USER_INPUT_NULL_POINTER;
  26:C:/Users/stapi/OneDrive/Desktop/GD32VW553/V1_MQTT_OK/GD32VW55X_Wifi_BLE_SDK/GD32VW55x_RELEASE_V1.0.2/MSDK/cloud/alicloud/src/services/dev_bind\awss_cmp_mqtt.c ****     }
  27:C:/Users/stapi/OneDrive/Desktop/GD32VW553/V1_MQTT_OK/GD32VW55X_Wifi_BLE_SDK/GD32VW55x_RELEASE_V1.0.2/MSDK/cloud/alicloud/src/services/dev_bind\awss_cmp_mqtt.c **** 
  28:C:/Users/stapi/OneDrive/Desktop/GD32VW553/V1_MQTT_OK/GD32VW55X_Wifi_BLE_SDK/GD32VW55x_RELEASE_V1.0.2/MSDK/cloud/alicloud/src/services/dev_bind\awss_cmp_mqtt.c **** #ifdef MQTT_AUTO_SUBSCRIBE
  29:C:/Users/stapi/OneDrive/Desktop/GD32VW553/V1_MQTT_OK/GD32VW55X_Wifi_BLE_SDK/GD32VW55x_RELEASE_V1.0.2/MSDK/cloud/alicloud/src/services/dev_bind\awss_cmp_mqtt.c ****     return IOT_MQTT_Subscribe(NULL, topic, IOTX_MQTT_QOS3_SUB_LOCAL, (iotx_mqtt_event_handle_func_f
  23              		.loc 1 29 5 is_stmt 1
  24              		.loc 1 29 12 is_stmt 0
  25 0004 0147     		li	a4,0
  26 0006 AA85     		mv	a1,a0
  27              	.LVL1:
  28 0008 0D46     		li	a2,3
  29 000a 0145     		li	a0,0
  30              	.LVL2:
  31 000c 17030000 		tail	IOT_MQTT_Subscribe
  31      67000300 
  32              	.LVL3:
  33              	.L3:
  25:C:/Users/stapi/OneDrive/Desktop/GD32VW553/V1_MQTT_OK/GD32VW55X_Wifi_BLE_SDK/GD32VW55x_RELEASE_V1.0.2/MSDK/cloud/alicloud/src/services/dev_bind\awss_cmp_mqtt.c ****         return STATE_USER_INPUT_NULL_POINTER;
  34              		.loc 1 25 16
  35 0014 1305F0EF 		li	a0,-257
  36              	.LVL4:
  30:C:/Users/stapi/OneDrive/Desktop/GD32VW553/V1_MQTT_OK/GD32VW55X_Wifi_BLE_SDK/GD32VW55x_RELEASE_V1.0.2/MSDK/cloud/alicloud/src/services/dev_bind\awss_cmp_mqtt.c **** #else
  31:C:/Users/stapi/OneDrive/Desktop/GD32VW553/V1_MQTT_OK/GD32VW55X_Wifi_BLE_SDK/GD32VW55x_RELEASE_V1.0.2/MSDK/cloud/alicloud/src/services/dev_bind\awss_cmp_mqtt.c ****     return IOT_MQTT_Subscribe(NULL, topic, IOTX_MQTT_QOS0, (iotx_mqtt_event_handle_func_fpt)cb, NUL
  32:C:/Users/stapi/OneDrive/Desktop/GD32VW553/V1_MQTT_OK/GD32VW55X_Wifi_BLE_SDK/GD32VW55x_RELEASE_V1.0.2/MSDK/cloud/alicloud/src/services/dev_bind\awss_cmp_mqtt.c **** #endif
  33:C:/Users/stapi/OneDrive/Desktop/GD32VW553/V1_MQTT_OK/GD32VW55X_Wifi_BLE_SDK/GD32VW55x_RELEASE_V1.0.2/MSDK/cloud/alicloud/src/services/dev_bind\awss_cmp_mqtt.c **** }
  37              		.loc 1 33 1
  38 0018 8280     		ret
  39              		.cfi_endproc
  40              	.LFE48:
  42              		.section	.text.awss_cmp_mqtt_unregister_cb,"ax",@progbits
  43              		.align	1
  44              		.globl	awss_cmp_mqtt_unregister_cb
  46              	awss_cmp_mqtt_unregister_cb:
  47              	.LFB49:
  34:C:/Users/stapi/OneDrive/Desktop/GD32VW553/V1_MQTT_OK/GD32VW55X_Wifi_BLE_SDK/GD32VW55x_RELEASE_V1.0.2/MSDK/cloud/alicloud/src/services/dev_bind\awss_cmp_mqtt.c **** 
  35:C:/Users/stapi/OneDrive/Desktop/GD32VW553/V1_MQTT_OK/GD32VW55X_Wifi_BLE_SDK/GD32VW55x_RELEASE_V1.0.2/MSDK/cloud/alicloud/src/services/dev_bind\awss_cmp_mqtt.c **** int awss_cmp_mqtt_unregister_cb(char *topic)
  36:C:/Users/stapi/OneDrive/Desktop/GD32VW553/V1_MQTT_OK/GD32VW55X_Wifi_BLE_SDK/GD32VW55x_RELEASE_V1.0.2/MSDK/cloud/alicloud/src/services/dev_bind\awss_cmp_mqtt.c **** {
  48              		.loc 1 36 1 is_stmt 1
  49              		.cfi_startproc
  50              	.LVL5:
  37:C:/Users/stapi/OneDrive/Desktop/GD32VW553/V1_MQTT_OK/GD32VW55X_Wifi_BLE_SDK/GD32VW55x_RELEASE_V1.0.2/MSDK/cloud/alicloud/src/services/dev_bind\awss_cmp_mqtt.c ****     return IOT_MQTT_Unsubscribe(NULL, topic);
  51              		.loc 1 37 5
  36:C:/Users/stapi/OneDrive/Desktop/GD32VW553/V1_MQTT_OK/GD32VW55X_Wifi_BLE_SDK/GD32VW55x_RELEASE_V1.0.2/MSDK/cloud/alicloud/src/services/dev_bind\awss_cmp_mqtt.c ****     return IOT_MQTT_Unsubscribe(NULL, topic);
  52              		.loc 1 36 1 is_stmt 0
  53 0000 AA85     		mv	a1,a0
  54              		.loc 1 37 12
  55 0002 0145     		li	a0,0
  56              	.LVL6:
  57 0004 17030000 		tail	IOT_MQTT_Unsubscribe
  57      67000300 
  58              	.LVL7:
  59              		.cfi_endproc
  60              	.LFE49:
  62              		.section	.text.awss_cmp_mqtt_send,"ax",@progbits
  63              		.align	1
  64              		.globl	awss_cmp_mqtt_send
  66              	awss_cmp_mqtt_send:
  67              	.LFB50:
  38:C:/Users/stapi/OneDrive/Desktop/GD32VW553/V1_MQTT_OK/GD32VW55X_Wifi_BLE_SDK/GD32VW55x_RELEASE_V1.0.2/MSDK/cloud/alicloud/src/services/dev_bind\awss_cmp_mqtt.c **** }
  39:C:/Users/stapi/OneDrive/Desktop/GD32VW553/V1_MQTT_OK/GD32VW55X_Wifi_BLE_SDK/GD32VW55x_RELEASE_V1.0.2/MSDK/cloud/alicloud/src/services/dev_bind\awss_cmp_mqtt.c **** 
  40:C:/Users/stapi/OneDrive/Desktop/GD32VW553/V1_MQTT_OK/GD32VW55X_Wifi_BLE_SDK/GD32VW55x_RELEASE_V1.0.2/MSDK/cloud/alicloud/src/services/dev_bind\awss_cmp_mqtt.c **** int awss_cmp_mqtt_send(char *topic, void *data, int len, int qos)
  41:C:/Users/stapi/OneDrive/Desktop/GD32VW553/V1_MQTT_OK/GD32VW55X_Wifi_BLE_SDK/GD32VW55x_RELEASE_V1.0.2/MSDK/cloud/alicloud/src/services/dev_bind\awss_cmp_mqtt.c **** {
  68              		.loc 1 41 1 is_stmt 1
  69              		.cfi_startproc
  70              	.LVL8:
  42:C:/Users/stapi/OneDrive/Desktop/GD32VW553/V1_MQTT_OK/GD32VW55X_Wifi_BLE_SDK/GD32VW55x_RELEASE_V1.0.2/MSDK/cloud/alicloud/src/services/dev_bind\awss_cmp_mqtt.c ****     return IOT_MQTT_Publish_Simple(NULL, topic, qos, data, len);  //IOTX_MQTT_QOS1 or IOTX_MQTT_QOS
  71              		.loc 1 42 5
  41:C:/Users/stapi/OneDrive/Desktop/GD32VW553/V1_MQTT_OK/GD32VW55X_Wifi_BLE_SDK/GD32VW55x_RELEASE_V1.0.2/MSDK/cloud/alicloud/src/services/dev_bind\awss_cmp_mqtt.c ****     return IOT_MQTT_Publish_Simple(NULL, topic, qos, data, len);  //IOTX_MQTT_QOS1 or IOTX_MQTT_QOS
  72              		.loc 1 41 1 is_stmt 0
  73 0000 3287     		mv	a4,a2
  74 0002 3686     		mv	a2,a3
  75              	.LVL9:
  76              		.loc 1 42 12
  77 0004 AE86     		mv	a3,a1
  78              	.LVL10:
  79 0006 AA85     		mv	a1,a0
  80              	.LVL11:
  81 0008 0145     		li	a0,0
  82              	.LVL12:
  83 000a 17030000 		tail	IOT_MQTT_Publish_Simple
  83      67000300 
  84              	.LVL13:
  85              		.cfi_endproc
  86              	.LFE50:
  88              		.section	.rodata.awss_cmp_online_init.str1.4,"aMS",@progbits,1
  89              		.align	2
  90              	.LC0:
  91 0000 6661696C 		.string	"fail"
  91      00
  92 0005 000000   		.align	2
  93              	.LC1:
  94 0008 73756363 		.string	"success"
  94      65737300 
  95              		.align	2
  96              	.LC2:
  97 0010 73756220 		.string	"sub %s %s\n"
  97      25732025 
  97      730A00
  98 001b 00       		.align	2
  99              	.LC3:
 100 001c 61777373 		.string	"awss"
 100      00
 101              		.section	.text.awss_cmp_online_init,"ax",@progbits
 102              		.align	1
 103              		.globl	awss_cmp_online_init
 105              	awss_cmp_online_init:
 106              	.LFB51:
  43:C:/Users/stapi/OneDrive/Desktop/GD32VW553/V1_MQTT_OK/GD32VW55X_Wifi_BLE_SDK/GD32VW55x_RELEASE_V1.0.2/MSDK/cloud/alicloud/src/services/dev_bind\awss_cmp_mqtt.c **** }
  44:C:/Users/stapi/OneDrive/Desktop/GD32VW553/V1_MQTT_OK/GD32VW55X_Wifi_BLE_SDK/GD32VW55x_RELEASE_V1.0.2/MSDK/cloud/alicloud/src/services/dev_bind\awss_cmp_mqtt.c **** 
  45:C:/Users/stapi/OneDrive/Desktop/GD32VW553/V1_MQTT_OK/GD32VW55X_Wifi_BLE_SDK/GD32VW55x_RELEASE_V1.0.2/MSDK/cloud/alicloud/src/services/dev_bind\awss_cmp_mqtt.c **** const struct awss_cmp_couple awss_online_couple[] = {
  46:C:/Users/stapi/OneDrive/Desktop/GD32VW553/V1_MQTT_OK/GD32VW55X_Wifi_BLE_SDK/GD32VW55x_RELEASE_V1.0.2/MSDK/cloud/alicloud/src/services/dev_bind\awss_cmp_mqtt.c ****     {-1, TOPIC_MATCH_REPORT_REPLY, awss_report_token_reply},
  47:C:/Users/stapi/OneDrive/Desktop/GD32VW553/V1_MQTT_OK/GD32VW55X_Wifi_BLE_SDK/GD32VW55x_RELEASE_V1.0.2/MSDK/cloud/alicloud/src/services/dev_bind\awss_cmp_mqtt.c **** #ifdef WIFI_PROVISION_ENABLED
  48:C:/Users/stapi/OneDrive/Desktop/GD32VW553/V1_MQTT_OK/GD32VW55X_Wifi_BLE_SDK/GD32VW55x_RELEASE_V1.0.2/MSDK/cloud/alicloud/src/services/dev_bind\awss_cmp_mqtt.c **** #ifndef AWSS_DISABLE_REGISTRAR
  49:C:/Users/stapi/OneDrive/Desktop/GD32VW553/V1_MQTT_OK/GD32VW55X_Wifi_BLE_SDK/GD32VW55x_RELEASE_V1.0.2/MSDK/cloud/alicloud/src/services/dev_bind\awss_cmp_mqtt.c ****     {-1, TOPIC_ZC_CHECKIN,         awss_registrar_cloud_checkin},
  50:C:/Users/stapi/OneDrive/Desktop/GD32VW553/V1_MQTT_OK/GD32VW55X_Wifi_BLE_SDK/GD32VW55x_RELEASE_V1.0.2/MSDK/cloud/alicloud/src/services/dev_bind\awss_cmp_mqtt.c ****     {-1, TOPIC_ZC_ENROLLEE_REPLY,  awss_registrar_enr_found_reply},
  51:C:/Users/stapi/OneDrive/Desktop/GD32VW553/V1_MQTT_OK/GD32VW55X_Wifi_BLE_SDK/GD32VW55x_RELEASE_V1.0.2/MSDK/cloud/alicloud/src/services/dev_bind\awss_cmp_mqtt.c ****     {-1, TOPIC_ZC_CIPHER_REPLY,    awss_registrar_enr_cipher_reply},
  52:C:/Users/stapi/OneDrive/Desktop/GD32VW553/V1_MQTT_OK/GD32VW55X_Wifi_BLE_SDK/GD32VW55x_RELEASE_V1.0.2/MSDK/cloud/alicloud/src/services/dev_bind\awss_cmp_mqtt.c **** #endif
  53:C:/Users/stapi/OneDrive/Desktop/GD32VW553/V1_MQTT_OK/GD32VW55X_Wifi_BLE_SDK/GD32VW55x_RELEASE_V1.0.2/MSDK/cloud/alicloud/src/services/dev_bind\awss_cmp_mqtt.c ****     {-1, TOPIC_SWITCHAP,           awss_online_switchap}
  54:C:/Users/stapi/OneDrive/Desktop/GD32VW553/V1_MQTT_OK/GD32VW55X_Wifi_BLE_SDK/GD32VW55x_RELEASE_V1.0.2/MSDK/cloud/alicloud/src/services/dev_bind\awss_cmp_mqtt.c **** #endif
  55:C:/Users/stapi/OneDrive/Desktop/GD32VW553/V1_MQTT_OK/GD32VW55X_Wifi_BLE_SDK/GD32VW55x_RELEASE_V1.0.2/MSDK/cloud/alicloud/src/services/dev_bind\awss_cmp_mqtt.c **** };
  56:C:/Users/stapi/OneDrive/Desktop/GD32VW553/V1_MQTT_OK/GD32VW55X_Wifi_BLE_SDK/GD32VW55x_RELEASE_V1.0.2/MSDK/cloud/alicloud/src/services/dev_bind\awss_cmp_mqtt.c **** 
  57:C:/Users/stapi/OneDrive/Desktop/GD32VW553/V1_MQTT_OK/GD32VW55X_Wifi_BLE_SDK/GD32VW55x_RELEASE_V1.0.2/MSDK/cloud/alicloud/src/services/dev_bind\awss_cmp_mqtt.c **** int awss_cmp_online_init()
  58:C:/Users/stapi/OneDrive/Desktop/GD32VW553/V1_MQTT_OK/GD32VW55X_Wifi_BLE_SDK/GD32VW55x_RELEASE_V1.0.2/MSDK/cloud/alicloud/src/services/dev_bind\awss_cmp_mqtt.c **** {
 107              		.loc 1 58 1 is_stmt 1
 108              		.cfi_startproc
  59:C:/Users/stapi/OneDrive/Desktop/GD32VW553/V1_MQTT_OK/GD32VW55X_Wifi_BLE_SDK/GD32VW55x_RELEASE_V1.0.2/MSDK/cloud/alicloud/src/services/dev_bind\awss_cmp_mqtt.c ****     if (online_init) {
 109              		.loc 1 59 5
 110              		.loc 1 59 9 is_stmt 0
 111 0000 B7070000 		lui	a5,%hi(.LANCHOR0)
 112              		.loc 1 59 8
 113 0004 03870700 		lb	a4,%lo(.LANCHOR0)(a5)
 114 0008 45E3     		bne	a4,zero,.L19
  58:C:/Users/stapi/OneDrive/Desktop/GD32VW553/V1_MQTT_OK/GD32VW55X_Wifi_BLE_SDK/GD32VW55x_RELEASE_V1.0.2/MSDK/cloud/alicloud/src/services/dev_bind\awss_cmp_mqtt.c ****     if (online_init) {
 115              		.loc 1 58 1
 116 000a 17030000 		call	t0,__riscv_save_8
 116      E7020300 
 117              		.cfi_offset 23, -36
 118              		.cfi_offset 22, -32
 119              		.cfi_offset 21, -28
 120              		.cfi_offset 20, -24
 121              		.cfi_offset 19, -20
 122              		.cfi_offset 18, -16
 123              		.cfi_offset 9, -12
 124              		.cfi_offset 8, -8
 125              		.cfi_offset 1, -4
 126              		.cfi_def_cfa_offset 48
 127 0012 37040000 		lui	s0,%hi(.LANCHOR1)
 128 0016 13040400 		addi	s0,s0,%lo(.LANCHOR1)
 129              	.LBB2:
  60:C:/Users/stapi/OneDrive/Desktop/GD32VW553/V1_MQTT_OK/GD32VW55X_Wifi_BLE_SDK/GD32VW55x_RELEASE_V1.0.2/MSDK/cloud/alicloud/src/services/dev_bind\awss_cmp_mqtt.c ****         return 0;
  61:C:/Users/stapi/OneDrive/Desktop/GD32VW553/V1_MQTT_OK/GD32VW55X_Wifi_BLE_SDK/GD32VW55x_RELEASE_V1.0.2/MSDK/cloud/alicloud/src/services/dev_bind\awss_cmp_mqtt.c ****     }
  62:C:/Users/stapi/OneDrive/Desktop/GD32VW553/V1_MQTT_OK/GD32VW55X_Wifi_BLE_SDK/GD32VW55x_RELEASE_V1.0.2/MSDK/cloud/alicloud/src/services/dev_bind\awss_cmp_mqtt.c **** 
  63:C:/Users/stapi/OneDrive/Desktop/GD32VW553/V1_MQTT_OK/GD32VW55X_Wifi_BLE_SDK/GD32VW55x_RELEASE_V1.0.2/MSDK/cloud/alicloud/src/services/dev_bind\awss_cmp_mqtt.c ****     char topic[TOPIC_LEN_MAX] = {0};
  64:C:/Users/stapi/OneDrive/Desktop/GD32VW553/V1_MQTT_OK/GD32VW55X_Wifi_BLE_SDK/GD32VW55x_RELEASE_V1.0.2/MSDK/cloud/alicloud/src/services/dev_bind\awss_cmp_mqtt.c ****     int i;
  65:C:/Users/stapi/OneDrive/Desktop/GD32VW553/V1_MQTT_OK/GD32VW55X_Wifi_BLE_SDK/GD32VW55x_RELEASE_V1.0.2/MSDK/cloud/alicloud/src/services/dev_bind\awss_cmp_mqtt.c **** 
  66:C:/Users/stapi/OneDrive/Desktop/GD32VW553/V1_MQTT_OK/GD32VW55X_Wifi_BLE_SDK/GD32VW55x_RELEASE_V1.0.2/MSDK/cloud/alicloud/src/services/dev_bind\awss_cmp_mqtt.c ****     for (i = 0; i < sizeof(awss_online_couple) / sizeof(awss_online_couple[0]); i ++) {
  67:C:/Users/stapi/OneDrive/Desktop/GD32VW553/V1_MQTT_OK/GD32VW55X_Wifi_BLE_SDK/GD32VW55x_RELEASE_V1.0.2/MSDK/cloud/alicloud/src/services/dev_bind\awss_cmp_mqtt.c ****         int res = -1;
  68:C:/Users/stapi/OneDrive/Desktop/GD32VW553/V1_MQTT_OK/GD32VW55X_Wifi_BLE_SDK/GD32VW55x_RELEASE_V1.0.2/MSDK/cloud/alicloud/src/services/dev_bind\awss_cmp_mqtt.c ****         memset(topic, 0, sizeof(topic));
  69:C:/Users/stapi/OneDrive/Desktop/GD32VW553/V1_MQTT_OK/GD32VW55X_Wifi_BLE_SDK/GD32VW55x_RELEASE_V1.0.2/MSDK/cloud/alicloud/src/services/dev_bind\awss_cmp_mqtt.c ****         awss_build_topic(awss_online_couple[i].topic, topic, TOPIC_LEN_MAX);
  70:C:/Users/stapi/OneDrive/Desktop/GD32VW553/V1_MQTT_OK/GD32VW55X_Wifi_BLE_SDK/GD32VW55x_RELEASE_V1.0.2/MSDK/cloud/alicloud/src/services/dev_bind\awss_cmp_mqtt.c ****         res = awss_cmp_mqtt_register_cb(topic, awss_online_couple[i].cb);
  71:C:/Users/stapi/OneDrive/Desktop/GD32VW553/V1_MQTT_OK/GD32VW55X_Wifi_BLE_SDK/GD32VW55x_RELEASE_V1.0.2/MSDK/cloud/alicloud/src/services/dev_bind\awss_cmp_mqtt.c ****         awss_debug("sub %s %s\n", topic, res < 0 ? "fail" : "success");
 130              		.loc 1 71 9
 131 001a B7040000 		lui	s1,%hi(.LC0)
 132 001e 37090000 		lui	s2,%hi(.LC1)
 133              	.LBE2:
  58:C:/Users/stapi/OneDrive/Desktop/GD32VW553/V1_MQTT_OK/GD32VW55X_Wifi_BLE_SDK/GD32VW55x_RELEASE_V1.0.2/MSDK/cloud/alicloud/src/services/dev_bind\awss_cmp_mqtt.c ****     if (online_init) {
 134              		.loc 1 58 1
 135 0022 1971     		addi	sp,sp,-128
 136              		.cfi_def_cfa_offset 176
 137 0024 93890700 		addi	s3,a5,%lo(.LANCHOR0)
 138 0028 130AC403 		addi	s4,s0,60
 139              	.LBB3:
 140              		.loc 1 71 9
 141 002c 93840400 		addi	s1,s1,%lo(.LC0)
 142 0030 13090900 		addi	s2,s2,%lo(.LC1)
 143 0034 370B0000 		lui	s6,%hi(.LANCHOR2)
 144 0038 B70B0000 		lui	s7,%hi(.LC2)
 145 003c B70A0000 		lui	s5,%hi(.LC3)
 146              	.L15:
  67:C:/Users/stapi/OneDrive/Desktop/GD32VW553/V1_MQTT_OK/GD32VW55X_Wifi_BLE_SDK/GD32VW55x_RELEASE_V1.0.2/MSDK/cloud/alicloud/src/services/dev_bind\awss_cmp_mqtt.c ****         memset(topic, 0, sizeof(topic));
 147              		.loc 1 67 9 is_stmt 1
 148              	.LVL14:
  68:C:/Users/stapi/OneDrive/Desktop/GD32VW553/V1_MQTT_OK/GD32VW55X_Wifi_BLE_SDK/GD32VW55x_RELEASE_V1.0.2/MSDK/cloud/alicloud/src/services/dev_bind\awss_cmp_mqtt.c ****         awss_build_topic(awss_online_couple[i].topic, topic, TOPIC_LEN_MAX);
 149              		.loc 1 68 9
 150 0040 13060008 		li	a2,128
 151 0044 8145     		li	a1,0
 152 0046 0A85     		mv	a0,sp
 153 0048 97000000 		call	memset
 153      E7800000 
 154              	.LVL15:
  69:C:/Users/stapi/OneDrive/Desktop/GD32VW553/V1_MQTT_OK/GD32VW55X_Wifi_BLE_SDK/GD32VW55x_RELEASE_V1.0.2/MSDK/cloud/alicloud/src/services/dev_bind\awss_cmp_mqtt.c ****         res = awss_cmp_mqtt_register_cb(topic, awss_online_couple[i].cb);
 155              		.loc 1 69 9
 156 0050 4840     		lw	a0,4(s0)
 157 0052 13060008 		li	a2,128
 158 0056 8A85     		mv	a1,sp
 159 0058 97000000 		call	awss_build_topic
 159      E7800000 
 160              	.LVL16:
  70:C:/Users/stapi/OneDrive/Desktop/GD32VW553/V1_MQTT_OK/GD32VW55X_Wifi_BLE_SDK/GD32VW55x_RELEASE_V1.0.2/MSDK/cloud/alicloud/src/services/dev_bind\awss_cmp_mqtt.c ****         awss_debug("sub %s %s\n", topic, res < 0 ? "fail" : "success");
 161              		.loc 1 70 9
  70:C:/Users/stapi/OneDrive/Desktop/GD32VW553/V1_MQTT_OK/GD32VW55X_Wifi_BLE_SDK/GD32VW55x_RELEASE_V1.0.2/MSDK/cloud/alicloud/src/services/dev_bind\awss_cmp_mqtt.c ****         awss_debug("sub %s %s\n", topic, res < 0 ? "fail" : "success");
 162              		.loc 1 70 15 is_stmt 0
 163 0060 0C44     		lw	a1,8(s0)
 164 0062 0A85     		mv	a0,sp
 165 0064 97000000 		call	awss_cmp_mqtt_register_cb
 165      E7800000 
 166              	.LVL17:
 167              		.loc 1 71 9 is_stmt 1
 168 006c 2688     		mv	a6,s1
 169 006e 63430500 		blt	a0,zero,.L14
 170 0072 4A88     		mv	a6,s2
 171              	.L14:
 172              		.loc 1 71 9 is_stmt 0 discriminator 4
 173 0074 8A87     		mv	a5,sp
 174 0076 13870B00 		addi	a4,s7,%lo(.LC2)
 175 007a 9546     		li	a3,5
 176 007c 13067004 		li	a2,71
 177 0080 93050B00 		addi	a1,s6,%lo(.LANCHOR2)
 178 0084 13850A00 		addi	a0,s5,%lo(.LC3)
 179              	.LVL18:
 180              	.LBE3:
  66:C:/Users/stapi/OneDrive/Desktop/GD32VW553/V1_MQTT_OK/GD32VW55X_Wifi_BLE_SDK/GD32VW55x_RELEASE_V1.0.2/MSDK/cloud/alicloud/src/services/dev_bind\awss_cmp_mqtt.c ****         int res = -1;
 181              		.loc 1 66 5 discriminator 4
 182 0088 3104     		addi	s0,s0,12
 183              	.LBB4:
 184              		.loc 1 71 9 discriminator 4
 185 008a 97000000 		call	LITE_syslog
 185      E7800000 
 186              	.LVL19:
 187              	.LBE4:
  66:C:/Users/stapi/OneDrive/Desktop/GD32VW553/V1_MQTT_OK/GD32VW55X_Wifi_BLE_SDK/GD32VW55x_RELEASE_V1.0.2/MSDK/cloud/alicloud/src/services/dev_bind\awss_cmp_mqtt.c ****         int res = -1;
 188              		.loc 1 66 81 is_stmt 1 discriminator 4
  66:C:/Users/stapi/OneDrive/Desktop/GD32VW553/V1_MQTT_OK/GD32VW55X_Wifi_BLE_SDK/GD32VW55x_RELEASE_V1.0.2/MSDK/cloud/alicloud/src/services/dev_bind\awss_cmp_mqtt.c ****         int res = -1;
 189              		.loc 1 66 17 discriminator 4
  66:C:/Users/stapi/OneDrive/Desktop/GD32VW553/V1_MQTT_OK/GD32VW55X_Wifi_BLE_SDK/GD32VW55x_RELEASE_V1.0.2/MSDK/cloud/alicloud/src/services/dev_bind\awss_cmp_mqtt.c ****         int res = -1;
 190              		.loc 1 66 5 is_stmt 0 discriminator 4
 191 0092 E31744FB 		bne	s0,s4,.L15
  72:C:/Users/stapi/OneDrive/Desktop/GD32VW553/V1_MQTT_OK/GD32VW55X_Wifi_BLE_SDK/GD32VW55x_RELEASE_V1.0.2/MSDK/cloud/alicloud/src/services/dev_bind\awss_cmp_mqtt.c ****     }
  73:C:/Users/stapi/OneDrive/Desktop/GD32VW553/V1_MQTT_OK/GD32VW55X_Wifi_BLE_SDK/GD32VW55x_RELEASE_V1.0.2/MSDK/cloud/alicloud/src/services/dev_bind\awss_cmp_mqtt.c **** 
  74:C:/Users/stapi/OneDrive/Desktop/GD32VW553/V1_MQTT_OK/GD32VW55X_Wifi_BLE_SDK/GD32VW55x_RELEASE_V1.0.2/MSDK/cloud/alicloud/src/services/dev_bind\awss_cmp_mqtt.c ****     online_init = 1;
 192              		.loc 1 74 5 is_stmt 1
 193              		.loc 1 74 17 is_stmt 0
 194 0096 8547     		li	a5,1
 195 0098 2380F900 		sb	a5,0(s3)
  75:C:/Users/stapi/OneDrive/Desktop/GD32VW553/V1_MQTT_OK/GD32VW55X_Wifi_BLE_SDK/GD32VW55x_RELEASE_V1.0.2/MSDK/cloud/alicloud/src/services/dev_bind\awss_cmp_mqtt.c **** 
  76:C:/Users/stapi/OneDrive/Desktop/GD32VW553/V1_MQTT_OK/GD32VW55X_Wifi_BLE_SDK/GD32VW55x_RELEASE_V1.0.2/MSDK/cloud/alicloud/src/services/dev_bind\awss_cmp_mqtt.c ****     return 0;
 196              		.loc 1 76 5 is_stmt 1
  77:C:/Users/stapi/OneDrive/Desktop/GD32VW553/V1_MQTT_OK/GD32VW55X_Wifi_BLE_SDK/GD32VW55x_RELEASE_V1.0.2/MSDK/cloud/alicloud/src/services/dev_bind\awss_cmp_mqtt.c **** }
 197              		.loc 1 77 1 is_stmt 0
 198 009c 0145     		li	a0,0
 199 009e 0961     		addi	sp,sp,128
 200              		.cfi_def_cfa_offset 0
 201 00a0 17030000 		tail	__riscv_restore_8
 201      67000300 
 202              		.cfi_restore 23
 203              		.cfi_restore 22
 204              		.cfi_restore 21
 205              		.cfi_restore 20
 206              		.cfi_restore 19
 207              		.cfi_restore 18
 208              		.cfi_restore 9
 209              		.cfi_restore 8
 210              		.cfi_restore 1
 211              		.cfi_def_cfa_offset -48
 212              	.L19:
 213              		.cfi_def_cfa_offset 0
 214 00a8 0145     		li	a0,0
 215 00aa 8280     		ret
 216              		.cfi_endproc
 217              	.LFE51:
 219              		.section	.text.awss_cmp_online_deinit,"ax",@progbits
 220              		.align	1
 221              		.globl	awss_cmp_online_deinit
 223              	awss_cmp_online_deinit:
 224              	.LFB52:
  78:C:/Users/stapi/OneDrive/Desktop/GD32VW553/V1_MQTT_OK/GD32VW55X_Wifi_BLE_SDK/GD32VW55x_RELEASE_V1.0.2/MSDK/cloud/alicloud/src/services/dev_bind\awss_cmp_mqtt.c **** 
  79:C:/Users/stapi/OneDrive/Desktop/GD32VW553/V1_MQTT_OK/GD32VW55X_Wifi_BLE_SDK/GD32VW55x_RELEASE_V1.0.2/MSDK/cloud/alicloud/src/services/dev_bind\awss_cmp_mqtt.c **** int awss_cmp_online_deinit()
  80:C:/Users/stapi/OneDrive/Desktop/GD32VW553/V1_MQTT_OK/GD32VW55X_Wifi_BLE_SDK/GD32VW55x_RELEASE_V1.0.2/MSDK/cloud/alicloud/src/services/dev_bind\awss_cmp_mqtt.c **** {
 225              		.loc 1 80 1 is_stmt 1
 226              		.cfi_startproc
 227 0000 17030000 		call	t0,__riscv_save_3
 227      E7020300 
 228              		.cfi_offset 18, -16
 229              		.cfi_offset 9, -12
 230              		.cfi_offset 8, -8
 231              		.cfi_offset 1, -4
 232              		.cfi_def_cfa_offset 16
  81:C:/Users/stapi/OneDrive/Desktop/GD32VW553/V1_MQTT_OK/GD32VW55X_Wifi_BLE_SDK/GD32VW55x_RELEASE_V1.0.2/MSDK/cloud/alicloud/src/services/dev_bind\awss_cmp_mqtt.c ****     uint8_t i;
 233              		.loc 1 81 5
  82:C:/Users/stapi/OneDrive/Desktop/GD32VW553/V1_MQTT_OK/GD32VW55X_Wifi_BLE_SDK/GD32VW55x_RELEASE_V1.0.2/MSDK/cloud/alicloud/src/services/dev_bind\awss_cmp_mqtt.c ****     char topic[TOPIC_LEN_MAX] = {0};
 234              		.loc 1 82 5
  80:C:/Users/stapi/OneDrive/Desktop/GD32VW553/V1_MQTT_OK/GD32VW55X_Wifi_BLE_SDK/GD32VW55x_RELEASE_V1.0.2/MSDK/cloud/alicloud/src/services/dev_bind\awss_cmp_mqtt.c ****     uint8_t i;
 235              		.loc 1 80 1 is_stmt 0
 236 0008 1971     		addi	sp,sp,-128
 237              		.cfi_def_cfa_offset 144
 238              		.loc 1 82 10
 239 000a 1306C007 		li	a2,124
 240 000e 8145     		li	a1,0
 241 0010 4800     		addi	a0,sp,4
 242 0012 02C0     		sw	zero,0(sp)
 243 0014 97000000 		call	memset
 243      E7800000 
 244              	.LVL20:
  83:C:/Users/stapi/OneDrive/Desktop/GD32VW553/V1_MQTT_OK/GD32VW55X_Wifi_BLE_SDK/GD32VW55x_RELEASE_V1.0.2/MSDK/cloud/alicloud/src/services/dev_bind\awss_cmp_mqtt.c **** 
  84:C:/Users/stapi/OneDrive/Desktop/GD32VW553/V1_MQTT_OK/GD32VW55X_Wifi_BLE_SDK/GD32VW55x_RELEASE_V1.0.2/MSDK/cloud/alicloud/src/services/dev_bind\awss_cmp_mqtt.c ****     if (!online_init) {
 245              		.loc 1 84 5 is_stmt 1
 246              		.loc 1 84 9 is_stmt 0
 247 001c B7070000 		lui	a5,%hi(.LANCHOR0)
 248              		.loc 1 84 8
 249 0020 03870700 		lb	a4,%lo(.LANCHOR0)(a5)
 250 0024 39C7     		beq	a4,zero,.L23
 251 0026 37040000 		lui	s0,%hi(.LANCHOR1)
 252 002a 13040400 		addi	s0,s0,%lo(.LANCHOR1)
 253 002e 93840700 		addi	s1,a5,%lo(.LANCHOR0)
  85:C:/Users/stapi/OneDrive/Desktop/GD32VW553/V1_MQTT_OK/GD32VW55X_Wifi_BLE_SDK/GD32VW55x_RELEASE_V1.0.2/MSDK/cloud/alicloud/src/services/dev_bind\awss_cmp_mqtt.c ****         return 0;
  86:C:/Users/stapi/OneDrive/Desktop/GD32VW553/V1_MQTT_OK/GD32VW55X_Wifi_BLE_SDK/GD32VW55x_RELEASE_V1.0.2/MSDK/cloud/alicloud/src/services/dev_bind\awss_cmp_mqtt.c ****     }
  87:C:/Users/stapi/OneDrive/Desktop/GD32VW553/V1_MQTT_OK/GD32VW55X_Wifi_BLE_SDK/GD32VW55x_RELEASE_V1.0.2/MSDK/cloud/alicloud/src/services/dev_bind\awss_cmp_mqtt.c **** 
  88:C:/Users/stapi/OneDrive/Desktop/GD32VW553/V1_MQTT_OK/GD32VW55X_Wifi_BLE_SDK/GD32VW55x_RELEASE_V1.0.2/MSDK/cloud/alicloud/src/services/dev_bind\awss_cmp_mqtt.c ****     awss_dev_bind_notify_stop();
 254              		.loc 1 88 5 is_stmt 1
 255 0032 1309C403 		addi	s2,s0,60
 256 0036 97000000 		call	awss_dev_bind_notify_stop
 256      E7800000 
 257              	.LVL21:
  89:C:/Users/stapi/OneDrive/Desktop/GD32VW553/V1_MQTT_OK/GD32VW55X_Wifi_BLE_SDK/GD32VW55x_RELEASE_V1.0.2/MSDK/cloud/alicloud/src/services/dev_bind\awss_cmp_mqtt.c **** 
  90:C:/Users/stapi/OneDrive/Desktop/GD32VW553/V1_MQTT_OK/GD32VW55X_Wifi_BLE_SDK/GD32VW55x_RELEASE_V1.0.2/MSDK/cloud/alicloud/src/services/dev_bind\awss_cmp_mqtt.c ****     for (i = 0; i < sizeof(awss_online_couple) / sizeof(awss_online_couple[0]); i ++) {
 258              		.loc 1 90 5
 259              		.loc 1 90 17
 260              	.L24:
  91:C:/Users/stapi/OneDrive/Desktop/GD32VW553/V1_MQTT_OK/GD32VW55X_Wifi_BLE_SDK/GD32VW55x_RELEASE_V1.0.2/MSDK/cloud/alicloud/src/services/dev_bind\awss_cmp_mqtt.c ****         memset(topic, 0, sizeof(topic));
 261              		.loc 1 91 9 discriminator 3
 262 003e 13060008 		li	a2,128
 263 0042 8145     		li	a1,0
 264 0044 0A85     		mv	a0,sp
 265 0046 97000000 		call	memset
 265      E7800000 
 266              	.LVL22:
  92:C:/Users/stapi/OneDrive/Desktop/GD32VW553/V1_MQTT_OK/GD32VW55X_Wifi_BLE_SDK/GD32VW55x_RELEASE_V1.0.2/MSDK/cloud/alicloud/src/services/dev_bind\awss_cmp_mqtt.c ****         awss_build_topic(awss_online_couple[i].topic, topic, TOPIC_LEN_MAX);
 267              		.loc 1 92 9 discriminator 3
 268 004e 4840     		lw	a0,4(s0)
 269 0050 13060008 		li	a2,128
 270 0054 8A85     		mv	a1,sp
 271 0056 97000000 		call	awss_build_topic
 271      E7800000 
 272              	.LVL23:
  93:C:/Users/stapi/OneDrive/Desktop/GD32VW553/V1_MQTT_OK/GD32VW55X_Wifi_BLE_SDK/GD32VW55x_RELEASE_V1.0.2/MSDK/cloud/alicloud/src/services/dev_bind\awss_cmp_mqtt.c ****         awss_cmp_mqtt_unregister_cb(topic);
 273              		.loc 1 93 9 discriminator 3
 274 005e 0A85     		mv	a0,sp
  90:C:/Users/stapi/OneDrive/Desktop/GD32VW553/V1_MQTT_OK/GD32VW55X_Wifi_BLE_SDK/GD32VW55x_RELEASE_V1.0.2/MSDK/cloud/alicloud/src/services/dev_bind\awss_cmp_mqtt.c ****         memset(topic, 0, sizeof(topic));
 275              		.loc 1 90 5 is_stmt 0 discriminator 3
 276 0060 3104     		addi	s0,s0,12
 277              	.LVL24:
 278              		.loc 1 93 9 discriminator 3
 279 0062 97000000 		call	awss_cmp_mqtt_unregister_cb
 279      E7800000 
 280              	.LVL25:
  90:C:/Users/stapi/OneDrive/Desktop/GD32VW553/V1_MQTT_OK/GD32VW55X_Wifi_BLE_SDK/GD32VW55x_RELEASE_V1.0.2/MSDK/cloud/alicloud/src/services/dev_bind\awss_cmp_mqtt.c ****         memset(topic, 0, sizeof(topic));
 281              		.loc 1 90 81 is_stmt 1 discriminator 3
  90:C:/Users/stapi/OneDrive/Desktop/GD32VW553/V1_MQTT_OK/GD32VW55X_Wifi_BLE_SDK/GD32VW55x_RELEASE_V1.0.2/MSDK/cloud/alicloud/src/services/dev_bind\awss_cmp_mqtt.c ****         memset(topic, 0, sizeof(topic));
 282              		.loc 1 90 17 discriminator 3
  90:C:/Users/stapi/OneDrive/Desktop/GD32VW553/V1_MQTT_OK/GD32VW55X_Wifi_BLE_SDK/GD32VW55x_RELEASE_V1.0.2/MSDK/cloud/alicloud/src/services/dev_bind\awss_cmp_mqtt.c ****         memset(topic, 0, sizeof(topic));
 283              		.loc 1 90 5 is_stmt 0 discriminator 3
 284 006a E31A24FD 		bne	s0,s2,.L24
  94:C:/Users/stapi/OneDrive/Desktop/GD32VW553/V1_MQTT_OK/GD32VW55X_Wifi_BLE_SDK/GD32VW55x_RELEASE_V1.0.2/MSDK/cloud/alicloud/src/services/dev_bind\awss_cmp_mqtt.c ****     }
  95:C:/Users/stapi/OneDrive/Desktop/GD32VW553/V1_MQTT_OK/GD32VW55X_Wifi_BLE_SDK/GD32VW55x_RELEASE_V1.0.2/MSDK/cloud/alicloud/src/services/dev_bind\awss_cmp_mqtt.c **** 
  96:C:/Users/stapi/OneDrive/Desktop/GD32VW553/V1_MQTT_OK/GD32VW55X_Wifi_BLE_SDK/GD32VW55x_RELEASE_V1.0.2/MSDK/cloud/alicloud/src/services/dev_bind\awss_cmp_mqtt.c ****     online_init = 0;
 285              		.loc 1 96 5 is_stmt 1
 286              		.loc 1 96 17 is_stmt 0
 287 006e 23800400 		sb	zero,0(s1)
  97:C:/Users/stapi/OneDrive/Desktop/GD32VW553/V1_MQTT_OK/GD32VW55X_Wifi_BLE_SDK/GD32VW55x_RELEASE_V1.0.2/MSDK/cloud/alicloud/src/services/dev_bind\awss_cmp_mqtt.c **** 
  98:C:/Users/stapi/OneDrive/Desktop/GD32VW553/V1_MQTT_OK/GD32VW55X_Wifi_BLE_SDK/GD32VW55x_RELEASE_V1.0.2/MSDK/cloud/alicloud/src/services/dev_bind\awss_cmp_mqtt.c ****     return 0;
 288              		.loc 1 98 5 is_stmt 1
 289              	.L23:
  99:C:/Users/stapi/OneDrive/Desktop/GD32VW553/V1_MQTT_OK/GD32VW55X_Wifi_BLE_SDK/GD32VW55x_RELEASE_V1.0.2/MSDK/cloud/alicloud/src/services/dev_bind\awss_cmp_mqtt.c **** }
 290              		.loc 1 99 1 is_stmt 0
 291 0072 0145     		li	a0,0
 292 0074 0961     		addi	sp,sp,128
 293              		.cfi_def_cfa_offset 0
 294 0076 17030000 		tail	__riscv_restore_3
 294      67000300 
 295              		.cfi_restore 18
 296              		.cfi_restore 9
 297              		.cfi_restore 8
 298              		.cfi_restore 1
 299              		.cfi_def_cfa_offset -16
 300              		.cfi_endproc
 301              	.LFE52:
 303              		.section	.rodata.awss_cmp_mqtt_get_payload.str1.4,"aMS",@progbits,1
 304              		.align	2
 305              	.LC4:
 306 0000 6D717474 		.string	"mqtt msg type:%d err"
 306      206D7367 
 306      20747970 
 306      653A2564 
 306      20657272 
 307              		.section	.text.awss_cmp_mqtt_get_payload,"ax",@progbits
 308              		.align	1
 309              		.globl	awss_cmp_mqtt_get_payload
 311              	awss_cmp_mqtt_get_payload:
 312              	.LFB53:
 100:C:/Users/stapi/OneDrive/Desktop/GD32VW553/V1_MQTT_OK/GD32VW55X_Wifi_BLE_SDK/GD32VW55x_RELEASE_V1.0.2/MSDK/cloud/alicloud/src/services/dev_bind\awss_cmp_mqtt.c **** 
 101:C:/Users/stapi/OneDrive/Desktop/GD32VW553/V1_MQTT_OK/GD32VW55X_Wifi_BLE_SDK/GD32VW55x_RELEASE_V1.0.2/MSDK/cloud/alicloud/src/services/dev_bind\awss_cmp_mqtt.c **** int awss_cmp_mqtt_get_payload(void *mesg, char **payload, uint32_t *playload_len)
 102:C:/Users/stapi/OneDrive/Desktop/GD32VW553/V1_MQTT_OK/GD32VW55X_Wifi_BLE_SDK/GD32VW55x_RELEASE_V1.0.2/MSDK/cloud/alicloud/src/services/dev_bind\awss_cmp_mqtt.c **** {
 313              		.loc 1 102 1 is_stmt 1
 314              		.cfi_startproc
 315              	.LVL26:
 103:C:/Users/stapi/OneDrive/Desktop/GD32VW553/V1_MQTT_OK/GD32VW55X_Wifi_BLE_SDK/GD32VW55x_RELEASE_V1.0.2/MSDK/cloud/alicloud/src/services/dev_bind\awss_cmp_mqtt.c ****     if (mesg == NULL || payload == NULL || playload_len == NULL) {
 316              		.loc 1 103 5
 317              		.loc 1 103 8 is_stmt 0
 318 0000 39C5     		beq	a0,zero,.L33
 319 0002 AA87     		mv	a5,a0
 104:C:/Users/stapi/OneDrive/Desktop/GD32VW553/V1_MQTT_OK/GD32VW55X_Wifi_BLE_SDK/GD32VW55x_RELEASE_V1.0.2/MSDK/cloud/alicloud/src/services/dev_bind\awss_cmp_mqtt.c ****         return STATE_USER_INPUT_NULL_POINTER;
 320              		.loc 1 104 16 discriminator 1
 321 0004 1305F0EF 		li	a0,-257
 322              	.LVL27:
 103:C:/Users/stapi/OneDrive/Desktop/GD32VW553/V1_MQTT_OK/GD32VW55X_Wifi_BLE_SDK/GD32VW55x_RELEASE_V1.0.2/MSDK/cloud/alicloud/src/services/dev_bind\awss_cmp_mqtt.c ****     if (mesg == NULL || payload == NULL || playload_len == NULL) {
 323              		.loc 1 103 22 discriminator 1
 324 0008 B1C5     		beq	a1,zero,.L37
 103:C:/Users/stapi/OneDrive/Desktop/GD32VW553/V1_MQTT_OK/GD32VW55X_Wifi_BLE_SDK/GD32VW55x_RELEASE_V1.0.2/MSDK/cloud/alicloud/src/services/dev_bind\awss_cmp_mqtt.c ****     if (mesg == NULL || payload == NULL || playload_len == NULL) {
 325              		.loc 1 103 41 discriminator 2
 326 000a 29C6     		beq	a2,zero,.L37
 105:C:/Users/stapi/OneDrive/Desktop/GD32VW553/V1_MQTT_OK/GD32VW55X_Wifi_BLE_SDK/GD32VW55x_RELEASE_V1.0.2/MSDK/cloud/alicloud/src/services/dev_bind\awss_cmp_mqtt.c ****     }
 106:C:/Users/stapi/OneDrive/Desktop/GD32VW553/V1_MQTT_OK/GD32VW55X_Wifi_BLE_SDK/GD32VW55x_RELEASE_V1.0.2/MSDK/cloud/alicloud/src/services/dev_bind\awss_cmp_mqtt.c **** 
 107:C:/Users/stapi/OneDrive/Desktop/GD32VW553/V1_MQTT_OK/GD32VW55X_Wifi_BLE_SDK/GD32VW55x_RELEASE_V1.0.2/MSDK/cloud/alicloud/src/services/dev_bind\awss_cmp_mqtt.c ****     iotx_mqtt_event_msg_pt msg = (iotx_mqtt_event_msg_pt)mesg;
 327              		.loc 1 107 5 is_stmt 1
 328              	.LVL28:
 108:C:/Users/stapi/OneDrive/Desktop/GD32VW553/V1_MQTT_OK/GD32VW55X_Wifi_BLE_SDK/GD32VW55x_RELEASE_V1.0.2/MSDK/cloud/alicloud/src/services/dev_bind\awss_cmp_mqtt.c **** 
 109:C:/Users/stapi/OneDrive/Desktop/GD32VW553/V1_MQTT_OK/GD32VW55X_Wifi_BLE_SDK/GD32VW55x_RELEASE_V1.0.2/MSDK/cloud/alicloud/src/services/dev_bind\awss_cmp_mqtt.c ****     iotx_mqtt_topic_info_pt ptopic_info = (iotx_mqtt_topic_info_pt) msg->msg;
 329              		.loc 1 109 5
 110:C:/Users/stapi/OneDrive/Desktop/GD32VW553/V1_MQTT_OK/GD32VW55X_Wifi_BLE_SDK/GD32VW55x_RELEASE_V1.0.2/MSDK/cloud/alicloud/src/services/dev_bind\awss_cmp_mqtt.c **** 
 111:C:/Users/stapi/OneDrive/Desktop/GD32VW553/V1_MQTT_OK/GD32VW55X_Wifi_BLE_SDK/GD32VW55x_RELEASE_V1.0.2/MSDK/cloud/alicloud/src/services/dev_bind\awss_cmp_mqtt.c ****     switch (msg->event_type) {
 330              		.loc 1 111 16 is_stmt 0
 331 000c 9443     		lw	a3,0(a5)
 109:C:/Users/stapi/OneDrive/Desktop/GD32VW553/V1_MQTT_OK/GD32VW55X_Wifi_BLE_SDK/GD32VW55x_RELEASE_V1.0.2/MSDK/cloud/alicloud/src/services/dev_bind\awss_cmp_mqtt.c **** 
 332              		.loc 1 109 29
 333 000e D843     		lw	a4,4(a5)
 334              	.LVL29:
 335              		.loc 1 111 5 is_stmt 1
 336 0010 B147     		li	a5,12
 337              	.LVL30:
 338 0012 6398F600 		bne	a3,a5,.L32
 112:C:/Users/stapi/OneDrive/Desktop/GD32VW553/V1_MQTT_OK/GD32VW55X_Wifi_BLE_SDK/GD32VW55x_RELEASE_V1.0.2/MSDK/cloud/alicloud/src/services/dev_bind\awss_cmp_mqtt.c ****         case IOTX_MQTT_EVENT_PUBLISH_RECEIVED:
 113:C:/Users/stapi/OneDrive/Desktop/GD32VW553/V1_MQTT_OK/GD32VW55X_Wifi_BLE_SDK/GD32VW55x_RELEASE_V1.0.2/MSDK/cloud/alicloud/src/services/dev_bind\awss_cmp_mqtt.c ****             *playload_len = ptopic_info->payload_len;
 339              		.loc 1 113 13
 340              		.loc 1 113 40 is_stmt 0
 341 0016 1C47     		lw	a5,8(a4)
 114:C:/Users/stapi/OneDrive/Desktop/GD32VW553/V1_MQTT_OK/GD32VW55X_Wifi_BLE_SDK/GD32VW55x_RELEASE_V1.0.2/MSDK/cloud/alicloud/src/services/dev_bind\awss_cmp_mqtt.c ****             *payload = (char *)ptopic_info->payload;
 115:C:/Users/stapi/OneDrive/Desktop/GD32VW553/V1_MQTT_OK/GD32VW55X_Wifi_BLE_SDK/GD32VW55x_RELEASE_V1.0.2/MSDK/cloud/alicloud/src/services/dev_bind\awss_cmp_mqtt.c ****             break;
 116:C:/Users/stapi/OneDrive/Desktop/GD32VW553/V1_MQTT_OK/GD32VW55X_Wifi_BLE_SDK/GD32VW55x_RELEASE_V1.0.2/MSDK/cloud/alicloud/src/services/dev_bind\awss_cmp_mqtt.c ****         default:
 117:C:/Users/stapi/OneDrive/Desktop/GD32VW553/V1_MQTT_OK/GD32VW55X_Wifi_BLE_SDK/GD32VW55x_RELEASE_V1.0.2/MSDK/cloud/alicloud/src/services/dev_bind\awss_cmp_mqtt.c ****             dump_dev_bind_status(STATE_BIND_MQTT_MSG_INVALID, "mqtt msg type:%d err", msg->event_ty
 118:C:/Users/stapi/OneDrive/Desktop/GD32VW553/V1_MQTT_OK/GD32VW55X_Wifi_BLE_SDK/GD32VW55x_RELEASE_V1.0.2/MSDK/cloud/alicloud/src/services/dev_bind\awss_cmp_mqtt.c ****             return STATE_BIND_MQTT_MSG_INVALID;
 119:C:/Users/stapi/OneDrive/Desktop/GD32VW553/V1_MQTT_OK/GD32VW55X_Wifi_BLE_SDK/GD32VW55x_RELEASE_V1.0.2/MSDK/cloud/alicloud/src/services/dev_bind\awss_cmp_mqtt.c ****     }
 120:C:/Users/stapi/OneDrive/Desktop/GD32VW553/V1_MQTT_OK/GD32VW55X_Wifi_BLE_SDK/GD32VW55x_RELEASE_V1.0.2/MSDK/cloud/alicloud/src/services/dev_bind\awss_cmp_mqtt.c ****     return 0;
 342              		.loc 1 120 12
 343 0018 0145     		li	a0,0
 113:C:/Users/stapi/OneDrive/Desktop/GD32VW553/V1_MQTT_OK/GD32VW55X_Wifi_BLE_SDK/GD32VW55x_RELEASE_V1.0.2/MSDK/cloud/alicloud/src/services/dev_bind\awss_cmp_mqtt.c ****             *payload = (char *)ptopic_info->payload;
 344              		.loc 1 113 27
 345 001a 1CC2     		sw	a5,0(a2)
 114:C:/Users/stapi/OneDrive/Desktop/GD32VW553/V1_MQTT_OK/GD32VW55X_Wifi_BLE_SDK/GD32VW55x_RELEASE_V1.0.2/MSDK/cloud/alicloud/src/services/dev_bind\awss_cmp_mqtt.c ****             *payload = (char *)ptopic_info->payload;
 346              		.loc 1 114 13 is_stmt 1
 114:C:/Users/stapi/OneDrive/Desktop/GD32VW553/V1_MQTT_OK/GD32VW55X_Wifi_BLE_SDK/GD32VW55x_RELEASE_V1.0.2/MSDK/cloud/alicloud/src/services/dev_bind\awss_cmp_mqtt.c ****             *payload = (char *)ptopic_info->payload;
 347              		.loc 1 114 43 is_stmt 0
 348 001c 1C4B     		lw	a5,16(a4)
 114:C:/Users/stapi/OneDrive/Desktop/GD32VW553/V1_MQTT_OK/GD32VW55X_Wifi_BLE_SDK/GD32VW55x_RELEASE_V1.0.2/MSDK/cloud/alicloud/src/services/dev_bind\awss_cmp_mqtt.c ****             *payload = (char *)ptopic_info->payload;
 349              		.loc 1 114 22
 350 001e 9CC1     		sw	a5,0(a1)
 115:C:/Users/stapi/OneDrive/Desktop/GD32VW553/V1_MQTT_OK/GD32VW55X_Wifi_BLE_SDK/GD32VW55x_RELEASE_V1.0.2/MSDK/cloud/alicloud/src/services/dev_bind\awss_cmp_mqtt.c ****         default:
 351              		.loc 1 115 13 is_stmt 1
 352              		.loc 1 120 5
 353              		.loc 1 120 12 is_stmt 0
 354 0020 8280     		ret
 355              	.L32:
 102:C:/Users/stapi/OneDrive/Desktop/GD32VW553/V1_MQTT_OK/GD32VW55X_Wifi_BLE_SDK/GD32VW55x_RELEASE_V1.0.2/MSDK/cloud/alicloud/src/services/dev_bind\awss_cmp_mqtt.c ****     if (mesg == NULL || payload == NULL || playload_len == NULL) {
 356              		.loc 1 102 1
 357 0022 17030000 		call	t0,__riscv_save_1
 357      E7020300 
 358              		.cfi_offset 8, -8
 359              		.cfi_offset 1, -4
 360              		.cfi_def_cfa_offset 16
 117:C:/Users/stapi/OneDrive/Desktop/GD32VW553/V1_MQTT_OK/GD32VW55X_Wifi_BLE_SDK/GD32VW55x_RELEASE_V1.0.2/MSDK/cloud/alicloud/src/services/dev_bind\awss_cmp_mqtt.c ****             return STATE_BIND_MQTT_MSG_INVALID;
 361              		.loc 1 117 13 is_stmt 1
 362 002a 7D74     		li	s0,-4096
 363 002c 37060000 		lui	a2,%hi(.LC4)
 364              	.LVL31:
 365 0030 13060600 		addi	a2,a2,%lo(.LC4)
 366 0034 9305C47E 		addi	a1,s0,2028
 367              	.LVL32:
 368 0038 7D45     		li	a0,31
 369 003a 97000000 		call	iotx_state_event
 369      E7800000 
 370              	.LVL33:
 118:C:/Users/stapi/OneDrive/Desktop/GD32VW553/V1_MQTT_OK/GD32VW55X_Wifi_BLE_SDK/GD32VW55x_RELEASE_V1.0.2/MSDK/cloud/alicloud/src/services/dev_bind\awss_cmp_mqtt.c ****     }
 371              		.loc 1 118 13
 118:C:/Users/stapi/OneDrive/Desktop/GD32VW553/V1_MQTT_OK/GD32VW55X_Wifi_BLE_SDK/GD32VW55x_RELEASE_V1.0.2/MSDK/cloud/alicloud/src/services/dev_bind\awss_cmp_mqtt.c ****     }
 372              		.loc 1 118 20 is_stmt 0
 373 0042 1305C47E 		addi	a0,s0,2028
 121:C:/Users/stapi/OneDrive/Desktop/GD32VW553/V1_MQTT_OK/GD32VW55X_Wifi_BLE_SDK/GD32VW55x_RELEASE_V1.0.2/MSDK/cloud/alicloud/src/services/dev_bind\awss_cmp_mqtt.c **** }
 374              		.loc 1 121 1
 375 0046 17030000 		tail	__riscv_restore_1
 375      67000300 
 376              		.cfi_restore 8
 377              		.cfi_restore 1
 378              		.cfi_def_cfa_offset 0
 379              	.LVL34:
 380              	.L33:
 104:C:/Users/stapi/OneDrive/Desktop/GD32VW553/V1_MQTT_OK/GD32VW55X_Wifi_BLE_SDK/GD32VW55x_RELEASE_V1.0.2/MSDK/cloud/alicloud/src/services/dev_bind\awss_cmp_mqtt.c ****     }
 381              		.loc 1 104 16
 382 004e 1305F0EF 		li	a0,-257
 383              	.LVL35:
 384 0052 8280     		ret
 385              	.LVL36:
 386              	.L37:
 387              		.loc 1 121 1
 388 0054 8280     		ret
 389              		.cfi_endproc
 390              	.LFE53:
 392              		.globl	awss_online_couple
 393              		.section	.rodata.str1.4,"aMS",@progbits,1
 394              		.align	2
 395              	.LC5:
 396 0000 2F737973 		.string	"/sys/%s/%s/thing/awss/enrollee/match_reply"
 396      2F25732F 
 396      25732F74 
 396      68696E67 
 396      2F617773 
 397 002b 00       		.align	2
 398              	.LC6:
 399 002c 2F737973 		.string	"/sys/%s/%s/thing/awss/enrollee/checkin"
 399      2F25732F 
 399      25732F74 
 399      68696E67 
 399      2F617773 
 400 0053 00       		.align	2
 401              	.LC7:
 402 0054 2F737973 		.string	"/sys/%s/%s/thing/awss/enrollee/found_reply"
 402      2F25732F 
 402      25732F74 
 402      68696E67 
 402      2F617773 
 403 007f 00       		.align	2
 404              	.LC8:
 405 0080 2F737973 		.string	"/sys/%s/%s/thing/cipher/get_reply"
 405      2F25732F 
 405      25732F74 
 405      68696E67 
 405      2F636970 
 406 00a2 0000     		.align	2
 407              	.LC9:
 408 00a4 2F737973 		.string	"/sys/%s/%s/thing/awss/device/switchap"
 408      2F25732F 
 408      25732F74 
 408      68696E67 
 408      2F617773 
 409              		.section	.rodata.__FUNCTION__.0,"a"
 410              		.align	2
 411              		.set	.LANCHOR2,. + 0
 414              	__FUNCTION__.0:
 415 0000 61777373 		.string	"awss_cmp_online_init"
 415      5F636D70 
 415      5F6F6E6C 
 415      696E655F 
 415      696E6974 
 416              		.section	.rodata.awss_online_couple,"a"
 417              		.align	2
 418              		.set	.LANCHOR1,. + 0
 421              	awss_online_couple:
 422 0000 FFFFFFFF 		.word	-1
 423 0004 00000000 		.word	.LC5
 424 0008 00000000 		.word	awss_report_token_reply
 425 000c FFFFFFFF 		.word	-1
 426 0010 00000000 		.word	.LC6
 427 0014 00000000 		.word	awss_registrar_cloud_checkin
 428 0018 FFFFFFFF 		.word	-1
 429 001c 00000000 		.word	.LC7
 430 0020 00000000 		.word	awss_registrar_enr_found_reply
 431 0024 FFFFFFFF 		.word	-1
 432 0028 00000000 		.word	.LC8
 433 002c 00000000 		.word	awss_registrar_enr_cipher_reply
 434 0030 FFFFFFFF 		.word	-1
 435 0034 00000000 		.word	.LC9
 436 0038 00000000 		.word	awss_online_switchap
 437              		.section	.sbss.online_init,"aw",@nobits
 438              		.set	.LANCHOR0,. + 0
 441              	online_init:
 442 0000 00       		.zero	1
 443              		.text
 444              	.Letext0:
 445              		.file 2 "c:\\users\\stapi\\onedrive\\desktop\\gd32vw553\\embeddedbuilder_v1.4.7.26843\\tools\\nucl
 446              		.file 3 "c:\\users\\stapi\\onedrive\\desktop\\gd32vw553\\embeddedbuilder_v1.4.7.26843\\tools\\nucl
 447              		.file 4 "..\\..\\..\\..\\cloud\\alicloud\\include/iot_export.h"
 448              		.file 5 "..\\..\\..\\..\\cloud\\alicloud\\include/exports/iot_export_mqtt.h"
 449              		.file 6 "C:/Users/stapi/OneDrive/Desktop/GD32VW553/V1_MQTT_OK/GD32VW55X_Wifi_BLE_SDK/GD32VW55x_REL
 450              		.file 7 "C:/Users/stapi/OneDrive/Desktop/GD32VW553/V1_MQTT_OK/GD32VW55X_Wifi_BLE_SDK/GD32VW55x_REL
 451              		.file 8 "C:/Users/stapi/OneDrive/Desktop/GD32VW553/V1_MQTT_OK/GD32VW55X_Wifi_BLE_SDK/GD32VW55x_REL
 452              		.file 9 "..\\..\\..\\..\\cloud\\alicloud\\src\\infra\\log/iotx_log.h"
 453              		.file 10 "<built-in>"