   1              		.file	"awss_bind.c"
   2              		.option nopic
   3              		.attribute arch, "rv32i2p0_m2p0_a2p0_f2p0_c2p0_b_p0p94"
   4              		.attribute unaligned_access, 0
   5              		.attribute stack_align, 16
   6              		.text
   7              	.Ltext0:
   8              		.cfi_sections	.debug_frame
   9              		.section	.text.awss_start_bind,"ax",@progbits
  10              		.align	1
  11              		.globl	awss_start_bind
  13              	awss_start_bind:
  14              	.LFB4:
  15              		.file 1 "C:/Users/stapi/OneDrive/Desktop/GD32VW553/V1_MQTT_OK/GD32VW55X_Wifi_BLE_SDK/GD32VW55x_REL
   1:C:/Users/stapi/OneDrive/Desktop/GD32VW553/V1_MQTT_OK/GD32VW55X_Wifi_BLE_SDK/GD32VW55x_RELEASE_V1.0.2/MSDK/cloud/alicloud/src/services/dev_bind\awss_bind.c **** /*
   2:C:/Users/stapi/OneDrive/Desktop/GD32VW553/V1_MQTT_OK/GD32VW55X_Wifi_BLE_SDK/GD32VW55x_RELEASE_V1.0.2/MSDK/cloud/alicloud/src/services/dev_bind\awss_bind.c ****  * Copyright (C) 2015-2018 Alibaba Group Holding Limited
   3:C:/Users/stapi/OneDrive/Desktop/GD32VW553/V1_MQTT_OK/GD32VW55X_Wifi_BLE_SDK/GD32VW55x_RELEASE_V1.0.2/MSDK/cloud/alicloud/src/services/dev_bind\awss_bind.c ****  */
   4:C:/Users/stapi/OneDrive/Desktop/GD32VW553/V1_MQTT_OK/GD32VW55X_Wifi_BLE_SDK/GD32VW55x_RELEASE_V1.0.2/MSDK/cloud/alicloud/src/services/dev_bind\awss_bind.c **** #include <stdio.h>
   5:C:/Users/stapi/OneDrive/Desktop/GD32VW553/V1_MQTT_OK/GD32VW55X_Wifi_BLE_SDK/GD32VW55x_RELEASE_V1.0.2/MSDK/cloud/alicloud/src/services/dev_bind\awss_bind.c **** #include "iot_import.h"
   6:C:/Users/stapi/OneDrive/Desktop/GD32VW553/V1_MQTT_OK/GD32VW55X_Wifi_BLE_SDK/GD32VW55x_RELEASE_V1.0.2/MSDK/cloud/alicloud/src/services/dev_bind\awss_bind.c **** #include "awss_cmp.h"
   7:C:/Users/stapi/OneDrive/Desktop/GD32VW553/V1_MQTT_OK/GD32VW55X_Wifi_BLE_SDK/GD32VW55x_RELEASE_V1.0.2/MSDK/cloud/alicloud/src/services/dev_bind\awss_bind.c **** #include "awss_notify.h"
   8:C:/Users/stapi/OneDrive/Desktop/GD32VW553/V1_MQTT_OK/GD32VW55X_Wifi_BLE_SDK/GD32VW55x_RELEASE_V1.0.2/MSDK/cloud/alicloud/src/services/dev_bind\awss_bind.c **** #include "awss_bind_statis.h"
   9:C:/Users/stapi/OneDrive/Desktop/GD32VW553/V1_MQTT_OK/GD32VW55X_Wifi_BLE_SDK/GD32VW55x_RELEASE_V1.0.2/MSDK/cloud/alicloud/src/services/dev_bind\awss_bind.c **** 
  10:C:/Users/stapi/OneDrive/Desktop/GD32VW553/V1_MQTT_OK/GD32VW55X_Wifi_BLE_SDK/GD32VW55x_RELEASE_V1.0.2/MSDK/cloud/alicloud/src/services/dev_bind\awss_bind.c **** #ifdef WIFI_PROVISION_ENABLED
  11:C:/Users/stapi/OneDrive/Desktop/GD32VW553/V1_MQTT_OK/GD32VW55X_Wifi_BLE_SDK/GD32VW55x_RELEASE_V1.0.2/MSDK/cloud/alicloud/src/services/dev_bind\awss_bind.c **** #include "awss_statis.h"
  12:C:/Users/stapi/OneDrive/Desktop/GD32VW553/V1_MQTT_OK/GD32VW55X_Wifi_BLE_SDK/GD32VW55x_RELEASE_V1.0.2/MSDK/cloud/alicloud/src/services/dev_bind\awss_bind.c **** #endif
  13:C:/Users/stapi/OneDrive/Desktop/GD32VW553/V1_MQTT_OK/GD32VW55X_Wifi_BLE_SDK/GD32VW55x_RELEASE_V1.0.2/MSDK/cloud/alicloud/src/services/dev_bind\awss_bind.c **** 
  14:C:/Users/stapi/OneDrive/Desktop/GD32VW553/V1_MQTT_OK/GD32VW55X_Wifi_BLE_SDK/GD32VW55x_RELEASE_V1.0.2/MSDK/cloud/alicloud/src/services/dev_bind\awss_bind.c **** #include "awss_reset.h"
  15:C:/Users/stapi/OneDrive/Desktop/GD32VW553/V1_MQTT_OK/GD32VW55X_Wifi_BLE_SDK/GD32VW55x_RELEASE_V1.0.2/MSDK/cloud/alicloud/src/services/dev_bind\awss_bind.c **** 
  16:C:/Users/stapi/OneDrive/Desktop/GD32VW553/V1_MQTT_OK/GD32VW55X_Wifi_BLE_SDK/GD32VW55x_RELEASE_V1.0.2/MSDK/cloud/alicloud/src/services/dev_bind\awss_bind.c **** #if defined(__cplusplus)  /* If this is a C++ compiler, use C linkage */
  17:C:/Users/stapi/OneDrive/Desktop/GD32VW553/V1_MQTT_OK/GD32VW55X_Wifi_BLE_SDK/GD32VW55x_RELEASE_V1.0.2/MSDK/cloud/alicloud/src/services/dev_bind\awss_bind.c **** extern "C"
  18:C:/Users/stapi/OneDrive/Desktop/GD32VW553/V1_MQTT_OK/GD32VW55X_Wifi_BLE_SDK/GD32VW55x_RELEASE_V1.0.2/MSDK/cloud/alicloud/src/services/dev_bind\awss_bind.c **** {
  19:C:/Users/stapi/OneDrive/Desktop/GD32VW553/V1_MQTT_OK/GD32VW55X_Wifi_BLE_SDK/GD32VW55x_RELEASE_V1.0.2/MSDK/cloud/alicloud/src/services/dev_bind\awss_bind.c **** #endif
  20:C:/Users/stapi/OneDrive/Desktop/GD32VW553/V1_MQTT_OK/GD32VW55X_Wifi_BLE_SDK/GD32VW55x_RELEASE_V1.0.2/MSDK/cloud/alicloud/src/services/dev_bind\awss_bind.c **** 
  21:C:/Users/stapi/OneDrive/Desktop/GD32VW553/V1_MQTT_OK/GD32VW55X_Wifi_BLE_SDK/GD32VW55x_RELEASE_V1.0.2/MSDK/cloud/alicloud/src/services/dev_bind\awss_bind.c **** static void *awss_bind_mutex = NULL;
  22:C:/Users/stapi/OneDrive/Desktop/GD32VW553/V1_MQTT_OK/GD32VW55X_Wifi_BLE_SDK/GD32VW55x_RELEASE_V1.0.2/MSDK/cloud/alicloud/src/services/dev_bind\awss_bind.c **** 
  23:C:/Users/stapi/OneDrive/Desktop/GD32VW553/V1_MQTT_OK/GD32VW55X_Wifi_BLE_SDK/GD32VW55x_RELEASE_V1.0.2/MSDK/cloud/alicloud/src/services/dev_bind\awss_bind.c **** static uint8_t awss_bind_inited = 0;
  24:C:/Users/stapi/OneDrive/Desktop/GD32VW553/V1_MQTT_OK/GD32VW55X_Wifi_BLE_SDK/GD32VW55x_RELEASE_V1.0.2/MSDK/cloud/alicloud/src/services/dev_bind\awss_bind.c **** 
  25:C:/Users/stapi/OneDrive/Desktop/GD32VW553/V1_MQTT_OK/GD32VW55X_Wifi_BLE_SDK/GD32VW55x_RELEASE_V1.0.2/MSDK/cloud/alicloud/src/services/dev_bind\awss_bind.c **** int awss_start_bind()
  26:C:/Users/stapi/OneDrive/Desktop/GD32VW553/V1_MQTT_OK/GD32VW55X_Wifi_BLE_SDK/GD32VW55x_RELEASE_V1.0.2/MSDK/cloud/alicloud/src/services/dev_bind\awss_bind.c **** {
  16              		.loc 1 26 1
  17              		.cfi_startproc
  18 0000 17030000 		call	t0,__riscv_save_3
  18      E7020300 
  19              		.cfi_offset 18, -16
  20              		.cfi_offset 9, -12
  21              		.cfi_offset 8, -8
  22              		.cfi_offset 1, -4
  23              		.cfi_def_cfa_offset 16
  27:C:/Users/stapi/OneDrive/Desktop/GD32VW553/V1_MQTT_OK/GD32VW55X_Wifi_BLE_SDK/GD32VW55x_RELEASE_V1.0.2/MSDK/cloud/alicloud/src/services/dev_bind\awss_bind.c ****     char module_name[MID_STRLEN_MAX] = {0};
  24              		.loc 1 27 5
  26:C:/Users/stapi/OneDrive/Desktop/GD32VW553/V1_MQTT_OK/GD32VW55X_Wifi_BLE_SDK/GD32VW55x_RELEASE_V1.0.2/MSDK/cloud/alicloud/src/services/dev_bind\awss_bind.c ****     char module_name[MID_STRLEN_MAX] = {0};
  25              		.loc 1 26 1 is_stmt 0
  26 0008 3971     		addi	sp,sp,-64
  27              		.cfi_def_cfa_offset 80
  28              		.loc 1 27 10
  29 000a 1306C003 		li	a2,60
  30 000e 8145     		li	a1,0
  31 0010 4800     		addi	a0,sp,4
  32 0012 02C0     		sw	zero,0(sp)
  33 0014 97000000 		call	memset
  33      E7800000 
  34              	.LVL0:
  28:C:/Users/stapi/OneDrive/Desktop/GD32VW553/V1_MQTT_OK/GD32VW55X_Wifi_BLE_SDK/GD32VW55x_RELEASE_V1.0.2/MSDK/cloud/alicloud/src/services/dev_bind\awss_bind.c **** 
  29:C:/Users/stapi/OneDrive/Desktop/GD32VW553/V1_MQTT_OK/GD32VW55X_Wifi_BLE_SDK/GD32VW55x_RELEASE_V1.0.2/MSDK/cloud/alicloud/src/services/dev_bind\awss_bind.c ****     memset(module_name, 0, sizeof(module_name));
  35              		.loc 1 29 5 is_stmt 1
  30:C:/Users/stapi/OneDrive/Desktop/GD32VW553/V1_MQTT_OK/GD32VW55X_Wifi_BLE_SDK/GD32VW55x_RELEASE_V1.0.2/MSDK/cloud/alicloud/src/services/dev_bind\awss_bind.c ****     HAL_GetModuleID(module_name);
  36              		.loc 1 30 5
  31:C:/Users/stapi/OneDrive/Desktop/GD32VW553/V1_MQTT_OK/GD32VW55X_Wifi_BLE_SDK/GD32VW55x_RELEASE_V1.0.2/MSDK/cloud/alicloud/src/services/dev_bind\awss_bind.c **** 
  32:C:/Users/stapi/OneDrive/Desktop/GD32VW553/V1_MQTT_OK/GD32VW55X_Wifi_BLE_SDK/GD32VW55x_RELEASE_V1.0.2/MSDK/cloud/alicloud/src/services/dev_bind\awss_bind.c ****     if (awss_bind_mutex == NULL) {
  37              		.loc 1 32 25 is_stmt 0
  38 001c 37040000 		lui	s0,%hi(.LANCHOR0)
  30:C:/Users/stapi/OneDrive/Desktop/GD32VW553/V1_MQTT_OK/GD32VW55X_Wifi_BLE_SDK/GD32VW55x_RELEASE_V1.0.2/MSDK/cloud/alicloud/src/services/dev_bind\awss_bind.c ****     HAL_GetModuleID(module_name);
  39              		.loc 1 30 5
  40 0020 0A85     		mv	a0,sp
  41              		.loc 1 32 25
  42 0022 93040400 		addi	s1,s0,%lo(.LANCHOR0)
  30:C:/Users/stapi/OneDrive/Desktop/GD32VW553/V1_MQTT_OK/GD32VW55X_Wifi_BLE_SDK/GD32VW55x_RELEASE_V1.0.2/MSDK/cloud/alicloud/src/services/dev_bind\awss_bind.c ****     HAL_GetModuleID(module_name);
  43              		.loc 1 30 5
  44 0026 97000000 		call	HAL_GetModuleID
  44      E7800000 
  45              	.LVL1:
  46              		.loc 1 32 5 is_stmt 1
  47              		.loc 1 32 8 is_stmt 0
  48 002e 9C40     		lw	a5,0(s1)
  49 0030 13040400 		addi	s0,s0,%lo(.LANCHOR0)
  50 0034 95C7     		beq	a5,zero,.L2
  51              	.L6:
  33:C:/Users/stapi/OneDrive/Desktop/GD32VW553/V1_MQTT_OK/GD32VW55X_Wifi_BLE_SDK/GD32VW55x_RELEASE_V1.0.2/MSDK/cloud/alicloud/src/services/dev_bind\awss_bind.c ****         awss_bind_mutex = HAL_MutexCreate();
  34:C:/Users/stapi/OneDrive/Desktop/GD32VW553/V1_MQTT_OK/GD32VW55X_Wifi_BLE_SDK/GD32VW55x_RELEASE_V1.0.2/MSDK/cloud/alicloud/src/services/dev_bind\awss_bind.c ****         if (awss_bind_mutex == NULL)
  35:C:/Users/stapi/OneDrive/Desktop/GD32VW553/V1_MQTT_OK/GD32VW55X_Wifi_BLE_SDK/GD32VW55x_RELEASE_V1.0.2/MSDK/cloud/alicloud/src/services/dev_bind\awss_bind.c ****             return STATE_SYS_DEPEND_MUTEX_CREATE;
  36:C:/Users/stapi/OneDrive/Desktop/GD32VW553/V1_MQTT_OK/GD32VW55X_Wifi_BLE_SDK/GD32VW55x_RELEASE_V1.0.2/MSDK/cloud/alicloud/src/services/dev_bind\awss_bind.c ****     }
  37:C:/Users/stapi/OneDrive/Desktop/GD32VW553/V1_MQTT_OK/GD32VW55X_Wifi_BLE_SDK/GD32VW55x_RELEASE_V1.0.2/MSDK/cloud/alicloud/src/services/dev_bind\awss_bind.c **** 
  38:C:/Users/stapi/OneDrive/Desktop/GD32VW553/V1_MQTT_OK/GD32VW55X_Wifi_BLE_SDK/GD32VW55x_RELEASE_V1.0.2/MSDK/cloud/alicloud/src/services/dev_bind\awss_bind.c ****     HAL_MutexLock(awss_bind_mutex);
  52              		.loc 1 38 5 is_stmt 1
  53 0036 0840     		lw	a0,0(s0)
  39:C:/Users/stapi/OneDrive/Desktop/GD32VW553/V1_MQTT_OK/GD32VW55X_Wifi_BLE_SDK/GD32VW55x_RELEASE_V1.0.2/MSDK/cloud/alicloud/src/services/dev_bind\awss_bind.c ****     if(awss_bind_inited == 1) {
  54              		.loc 1 39 25 is_stmt 0
  55 0038 B7040000 		lui	s1,%hi(.LANCHOR1)
  56 003c 93840400 		addi	s1,s1,%lo(.LANCHOR1)
  38:C:/Users/stapi/OneDrive/Desktop/GD32VW553/V1_MQTT_OK/GD32VW55X_Wifi_BLE_SDK/GD32VW55x_RELEASE_V1.0.2/MSDK/cloud/alicloud/src/services/dev_bind\awss_bind.c ****     if(awss_bind_inited == 1) {
  57              		.loc 1 38 5
  58 0040 97000000 		call	HAL_MutexLock
  58      E7800000 
  59              	.LVL2:
  60              		.loc 1 39 5 is_stmt 1
  61              		.loc 1 39 7 is_stmt 0
  62 0048 83C70400 		lbu	a5,0(s1)
  63 004c 0549     		li	s2,1
  64 004e 63972703 		bne	a5,s2,.L8
  65              	.L10:
  40:C:/Users/stapi/OneDrive/Desktop/GD32VW553/V1_MQTT_OK/GD32VW55X_Wifi_BLE_SDK/GD32VW55x_RELEASE_V1.0.2/MSDK/cloud/alicloud/src/services/dev_bind\awss_bind.c ****         HAL_MutexUnlock(awss_bind_mutex);
  41:C:/Users/stapi/OneDrive/Desktop/GD32VW553/V1_MQTT_OK/GD32VW55X_Wifi_BLE_SDK/GD32VW55x_RELEASE_V1.0.2/MSDK/cloud/alicloud/src/services/dev_bind\awss_bind.c ****         return 0;
  42:C:/Users/stapi/OneDrive/Desktop/GD32VW553/V1_MQTT_OK/GD32VW55X_Wifi_BLE_SDK/GD32VW55x_RELEASE_V1.0.2/MSDK/cloud/alicloud/src/services/dev_bind\awss_bind.c ****     }
  43:C:/Users/stapi/OneDrive/Desktop/GD32VW553/V1_MQTT_OK/GD32VW55X_Wifi_BLE_SDK/GD32VW55x_RELEASE_V1.0.2/MSDK/cloud/alicloud/src/services/dev_bind\awss_bind.c **** 
  44:C:/Users/stapi/OneDrive/Desktop/GD32VW553/V1_MQTT_OK/GD32VW55X_Wifi_BLE_SDK/GD32VW55x_RELEASE_V1.0.2/MSDK/cloud/alicloud/src/services/dev_bind\awss_bind.c ****     awss_report_token();
  45:C:/Users/stapi/OneDrive/Desktop/GD32VW553/V1_MQTT_OK/GD32VW55X_Wifi_BLE_SDK/GD32VW55x_RELEASE_V1.0.2/MSDK/cloud/alicloud/src/services/dev_bind\awss_bind.c **** 
  46:C:/Users/stapi/OneDrive/Desktop/GD32VW553/V1_MQTT_OK/GD32VW55X_Wifi_BLE_SDK/GD32VW55x_RELEASE_V1.0.2/MSDK/cloud/alicloud/src/services/dev_bind\awss_bind.c ****     awss_cmp_local_init(AWSS_LC_INIT_BIND);
  47:C:/Users/stapi/OneDrive/Desktop/GD32VW553/V1_MQTT_OK/GD32VW55X_Wifi_BLE_SDK/GD32VW55x_RELEASE_V1.0.2/MSDK/cloud/alicloud/src/services/dev_bind\awss_bind.c ****     awss_dev_bind_notify_stop();
  48:C:/Users/stapi/OneDrive/Desktop/GD32VW553/V1_MQTT_OK/GD32VW55X_Wifi_BLE_SDK/GD32VW55x_RELEASE_V1.0.2/MSDK/cloud/alicloud/src/services/dev_bind\awss_bind.c ****     awss_dev_bind_notify();
  49:C:/Users/stapi/OneDrive/Desktop/GD32VW553/V1_MQTT_OK/GD32VW55X_Wifi_BLE_SDK/GD32VW55x_RELEASE_V1.0.2/MSDK/cloud/alicloud/src/services/dev_bind\awss_bind.c **** #ifdef WIFI_PROVISION_ENABLED
  50:C:/Users/stapi/OneDrive/Desktop/GD32VW553/V1_MQTT_OK/GD32VW55X_Wifi_BLE_SDK/GD32VW55x_RELEASE_V1.0.2/MSDK/cloud/alicloud/src/services/dev_bind\awss_bind.c **** #ifndef AWSS_DISABLE_REGISTRAR
  51:C:/Users/stapi/OneDrive/Desktop/GD32VW553/V1_MQTT_OK/GD32VW55X_Wifi_BLE_SDK/GD32VW55x_RELEASE_V1.0.2/MSDK/cloud/alicloud/src/services/dev_bind\awss_bind.c ****     extern int awss_registrar_init();
  52:C:/Users/stapi/OneDrive/Desktop/GD32VW553/V1_MQTT_OK/GD32VW55X_Wifi_BLE_SDK/GD32VW55x_RELEASE_V1.0.2/MSDK/cloud/alicloud/src/services/dev_bind\awss_bind.c ****     awss_registrar_init();
  53:C:/Users/stapi/OneDrive/Desktop/GD32VW553/V1_MQTT_OK/GD32VW55X_Wifi_BLE_SDK/GD32VW55x_RELEASE_V1.0.2/MSDK/cloud/alicloud/src/services/dev_bind\awss_bind.c **** #endif
  54:C:/Users/stapi/OneDrive/Desktop/GD32VW553/V1_MQTT_OK/GD32VW55X_Wifi_BLE_SDK/GD32VW55x_RELEASE_V1.0.2/MSDK/cloud/alicloud/src/services/dev_bind\awss_bind.c ****     AWSS_DISP_STATIS();
  55:C:/Users/stapi/OneDrive/Desktop/GD32VW553/V1_MQTT_OK/GD32VW55X_Wifi_BLE_SDK/GD32VW55x_RELEASE_V1.0.2/MSDK/cloud/alicloud/src/services/dev_bind\awss_bind.c ****     AWSS_REPORT_STATIS(module_name);
  56:C:/Users/stapi/OneDrive/Desktop/GD32VW553/V1_MQTT_OK/GD32VW55X_Wifi_BLE_SDK/GD32VW55x_RELEASE_V1.0.2/MSDK/cloud/alicloud/src/services/dev_bind\awss_bind.c **** #endif
  57:C:/Users/stapi/OneDrive/Desktop/GD32VW553/V1_MQTT_OK/GD32VW55X_Wifi_BLE_SDK/GD32VW55x_RELEASE_V1.0.2/MSDK/cloud/alicloud/src/services/dev_bind\awss_bind.c ****     AWSS_DB_DISP_STATIS();
  58:C:/Users/stapi/OneDrive/Desktop/GD32VW553/V1_MQTT_OK/GD32VW55X_Wifi_BLE_SDK/GD32VW55x_RELEASE_V1.0.2/MSDK/cloud/alicloud/src/services/dev_bind\awss_bind.c ****     AWSS_DB_REPORT_STATIS(module_name);
  59:C:/Users/stapi/OneDrive/Desktop/GD32VW553/V1_MQTT_OK/GD32VW55X_Wifi_BLE_SDK/GD32VW55x_RELEASE_V1.0.2/MSDK/cloud/alicloud/src/services/dev_bind\awss_bind.c ****     awss_bind_inited = 1;
  60:C:/Users/stapi/OneDrive/Desktop/GD32VW553/V1_MQTT_OK/GD32VW55X_Wifi_BLE_SDK/GD32VW55x_RELEASE_V1.0.2/MSDK/cloud/alicloud/src/services/dev_bind\awss_bind.c ****     HAL_MutexUnlock(awss_bind_mutex);
  66              		.loc 1 60 5 is_stmt 1
  67 0052 0840     		lw	a0,0(s0)
  68 0054 97000000 		call	HAL_MutexUnlock
  68      E7800000 
  69              	.LVL3:
  61:C:/Users/stapi/OneDrive/Desktop/GD32VW553/V1_MQTT_OK/GD32VW55X_Wifi_BLE_SDK/GD32VW55x_RELEASE_V1.0.2/MSDK/cloud/alicloud/src/services/dev_bind\awss_bind.c ****     return 0;
  70              		.loc 1 61 5
  71              		.loc 1 61 12 is_stmt 0
  72 005c 0145     		li	a0,0
  73 005e 11A8     		j	.L1
  74              	.L2:
  33:C:/Users/stapi/OneDrive/Desktop/GD32VW553/V1_MQTT_OK/GD32VW55X_Wifi_BLE_SDK/GD32VW55x_RELEASE_V1.0.2/MSDK/cloud/alicloud/src/services/dev_bind\awss_bind.c ****         if (awss_bind_mutex == NULL)
  75              		.loc 1 33 9 is_stmt 1
  33:C:/Users/stapi/OneDrive/Desktop/GD32VW553/V1_MQTT_OK/GD32VW55X_Wifi_BLE_SDK/GD32VW55x_RELEASE_V1.0.2/MSDK/cloud/alicloud/src/services/dev_bind\awss_bind.c ****         if (awss_bind_mutex == NULL)
  76              		.loc 1 33 27 is_stmt 0
  77 0060 97000000 		call	HAL_MutexCreate
  77      E7800000 
  78              	.LVL4:
  79 0068 AA87     		mv	a5,a0
  33:C:/Users/stapi/OneDrive/Desktop/GD32VW553/V1_MQTT_OK/GD32VW55X_Wifi_BLE_SDK/GD32VW55x_RELEASE_V1.0.2/MSDK/cloud/alicloud/src/services/dev_bind\awss_bind.c ****         if (awss_bind_mutex == NULL)
  80              		.loc 1 33 25
  81 006a 88C0     		sw	a0,0(s1)
  34:C:/Users/stapi/OneDrive/Desktop/GD32VW553/V1_MQTT_OK/GD32VW55X_Wifi_BLE_SDK/GD32VW55x_RELEASE_V1.0.2/MSDK/cloud/alicloud/src/services/dev_bind\awss_bind.c ****             return STATE_SYS_DEPEND_MUTEX_CREATE;
  82              		.loc 1 34 9 is_stmt 1
  35:C:/Users/stapi/OneDrive/Desktop/GD32VW553/V1_MQTT_OK/GD32VW55X_Wifi_BLE_SDK/GD32VW55x_RELEASE_V1.0.2/MSDK/cloud/alicloud/src/services/dev_bind\awss_bind.c ****     }
  83              		.loc 1 35 20 is_stmt 0
  84 006c 1305B0DF 		li	a0,-517
  34:C:/Users/stapi/OneDrive/Desktop/GD32VW553/V1_MQTT_OK/GD32VW55X_Wifi_BLE_SDK/GD32VW55x_RELEASE_V1.0.2/MSDK/cloud/alicloud/src/services/dev_bind\awss_bind.c ****             return STATE_SYS_DEPEND_MUTEX_CREATE;
  85              		.loc 1 34 12
  86 0070 F9F3     		bne	a5,zero,.L6
  87              	.L1:
  62:C:/Users/stapi/OneDrive/Desktop/GD32VW553/V1_MQTT_OK/GD32VW55X_Wifi_BLE_SDK/GD32VW55x_RELEASE_V1.0.2/MSDK/cloud/alicloud/src/services/dev_bind\awss_bind.c **** }
  88              		.loc 1 62 1
  89 0072 2161     		addi	sp,sp,64
  90              		.cfi_remember_state
  91              		.cfi_def_cfa_offset 0
  92 0074 17030000 		tail	__riscv_restore_3
  92      67000300 
  93              		.cfi_restore 18
  94              		.cfi_restore 9
  95              		.cfi_restore 8
  96              		.cfi_restore 1
  97              		.cfi_def_cfa_offset -16
  98              	.L8:
  99              		.cfi_restore_state
  44:C:/Users/stapi/OneDrive/Desktop/GD32VW553/V1_MQTT_OK/GD32VW55X_Wifi_BLE_SDK/GD32VW55x_RELEASE_V1.0.2/MSDK/cloud/alicloud/src/services/dev_bind\awss_bind.c **** 
 100              		.loc 1 44 5 is_stmt 1
 101 007c 97000000 		call	awss_report_token
 101      E7800000 
 102              	.LVL5:
  46:C:/Users/stapi/OneDrive/Desktop/GD32VW553/V1_MQTT_OK/GD32VW55X_Wifi_BLE_SDK/GD32VW55x_RELEASE_V1.0.2/MSDK/cloud/alicloud/src/services/dev_bind\awss_bind.c ****     awss_dev_bind_notify_stop();
 103              		.loc 1 46 5
 104 0084 13050010 		li	a0,256
 105 0088 97000000 		call	awss_cmp_local_init
 105      E7800000 
 106              	.LVL6:
  47:C:/Users/stapi/OneDrive/Desktop/GD32VW553/V1_MQTT_OK/GD32VW55X_Wifi_BLE_SDK/GD32VW55x_RELEASE_V1.0.2/MSDK/cloud/alicloud/src/services/dev_bind\awss_bind.c ****     awss_dev_bind_notify();
 107              		.loc 1 47 5
 108 0090 97000000 		call	awss_dev_bind_notify_stop
 108      E7800000 
 109              	.LVL7:
  48:C:/Users/stapi/OneDrive/Desktop/GD32VW553/V1_MQTT_OK/GD32VW55X_Wifi_BLE_SDK/GD32VW55x_RELEASE_V1.0.2/MSDK/cloud/alicloud/src/services/dev_bind\awss_bind.c **** #ifdef WIFI_PROVISION_ENABLED
 110              		.loc 1 48 5
 111 0098 97000000 		call	awss_dev_bind_notify
 111      E7800000 
 112              	.LVL8:
  51:C:/Users/stapi/OneDrive/Desktop/GD32VW553/V1_MQTT_OK/GD32VW55X_Wifi_BLE_SDK/GD32VW55x_RELEASE_V1.0.2/MSDK/cloud/alicloud/src/services/dev_bind\awss_bind.c ****     awss_registrar_init();
 113              		.loc 1 51 5
  52:C:/Users/stapi/OneDrive/Desktop/GD32VW553/V1_MQTT_OK/GD32VW55X_Wifi_BLE_SDK/GD32VW55x_RELEASE_V1.0.2/MSDK/cloud/alicloud/src/services/dev_bind\awss_bind.c **** #endif
 114              		.loc 1 52 5
 115 00a0 97000000 		call	awss_registrar_init
 115      E7800000 
 116              	.LVL9:
  54:C:/Users/stapi/OneDrive/Desktop/GD32VW553/V1_MQTT_OK/GD32VW55X_Wifi_BLE_SDK/GD32VW55x_RELEASE_V1.0.2/MSDK/cloud/alicloud/src/services/dev_bind\awss_bind.c ****     AWSS_REPORT_STATIS(module_name);
 117              		.loc 1 54 5
 118 00a8 97000000 		call	awss_disp_statis
 118      E7800000 
 119              	.LVL10:
  55:C:/Users/stapi/OneDrive/Desktop/GD32VW553/V1_MQTT_OK/GD32VW55X_Wifi_BLE_SDK/GD32VW55x_RELEASE_V1.0.2/MSDK/cloud/alicloud/src/services/dev_bind\awss_bind.c **** #endif
 120              		.loc 1 55 5
 121 00b0 0A85     		mv	a0,sp
 122 00b2 97000000 		call	awss_report_statis
 122      E7800000 
 123              	.LVL11:
  57:C:/Users/stapi/OneDrive/Desktop/GD32VW553/V1_MQTT_OK/GD32VW55X_Wifi_BLE_SDK/GD32VW55x_RELEASE_V1.0.2/MSDK/cloud/alicloud/src/services/dev_bind\awss_bind.c ****     AWSS_DB_REPORT_STATIS(module_name);
 124              		.loc 1 57 5
 125 00ba 97000000 		call	awss_bind_disp_statis
 125      E7800000 
 126              	.LVL12:
  58:C:/Users/stapi/OneDrive/Desktop/GD32VW553/V1_MQTT_OK/GD32VW55X_Wifi_BLE_SDK/GD32VW55x_RELEASE_V1.0.2/MSDK/cloud/alicloud/src/services/dev_bind\awss_bind.c ****     awss_bind_inited = 1;
 127              		.loc 1 58 5
 128 00c2 0A85     		mv	a0,sp
 129 00c4 97000000 		call	awss_bind_report_statis
 129      E7800000 
 130              	.LVL13:
  59:C:/Users/stapi/OneDrive/Desktop/GD32VW553/V1_MQTT_OK/GD32VW55X_Wifi_BLE_SDK/GD32VW55x_RELEASE_V1.0.2/MSDK/cloud/alicloud/src/services/dev_bind\awss_bind.c ****     HAL_MutexUnlock(awss_bind_mutex);
 131              		.loc 1 59 5
  59:C:/Users/stapi/OneDrive/Desktop/GD32VW553/V1_MQTT_OK/GD32VW55X_Wifi_BLE_SDK/GD32VW55x_RELEASE_V1.0.2/MSDK/cloud/alicloud/src/services/dev_bind\awss_bind.c ****     HAL_MutexUnlock(awss_bind_mutex);
 132              		.loc 1 59 22 is_stmt 0
 133 00cc 23802401 		sb	s2,0(s1)
 134 00d0 49B7     		j	.L10
 135              		.cfi_endproc
 136              	.LFE4:
 138              		.section	.text.awss_report_cloud,"ax",@progbits
 139              		.align	1
 140              		.globl	awss_report_cloud
 142              	awss_report_cloud:
 143              	.LFB5:
  63:C:/Users/stapi/OneDrive/Desktop/GD32VW553/V1_MQTT_OK/GD32VW55X_Wifi_BLE_SDK/GD32VW55x_RELEASE_V1.0.2/MSDK/cloud/alicloud/src/services/dev_bind\awss_bind.c **** 
  64:C:/Users/stapi/OneDrive/Desktop/GD32VW553/V1_MQTT_OK/GD32VW55X_Wifi_BLE_SDK/GD32VW55x_RELEASE_V1.0.2/MSDK/cloud/alicloud/src/services/dev_bind\awss_bind.c **** extern iotx_vendor_dev_reset_type_t g_reset_type;
  65:C:/Users/stapi/OneDrive/Desktop/GD32VW553/V1_MQTT_OK/GD32VW55X_Wifi_BLE_SDK/GD32VW55x_RELEASE_V1.0.2/MSDK/cloud/alicloud/src/services/dev_bind\awss_bind.c **** int awss_report_cloud()
  66:C:/Users/stapi/OneDrive/Desktop/GD32VW553/V1_MQTT_OK/GD32VW55X_Wifi_BLE_SDK/GD32VW55x_RELEASE_V1.0.2/MSDK/cloud/alicloud/src/services/dev_bind\awss_bind.c **** {
 144              		.loc 1 66 1 is_stmt 1
 145              		.cfi_startproc
 146 0000 17030000 		call	t0,__riscv_save_2
 146      E7020300 
 147              		.cfi_offset 9, -12
 148              		.cfi_offset 8, -8
 149              		.cfi_offset 1, -4
 150              		.cfi_def_cfa_offset 16
  67:C:/Users/stapi/OneDrive/Desktop/GD32VW553/V1_MQTT_OK/GD32VW55X_Wifi_BLE_SDK/GD32VW55x_RELEASE_V1.0.2/MSDK/cloud/alicloud/src/services/dev_bind\awss_bind.c ****     int ret;
 151              		.loc 1 67 5
  68:C:/Users/stapi/OneDrive/Desktop/GD32VW553/V1_MQTT_OK/GD32VW55X_Wifi_BLE_SDK/GD32VW55x_RELEASE_V1.0.2/MSDK/cloud/alicloud/src/services/dev_bind\awss_bind.c ****     if (awss_bind_mutex == NULL) {
 152              		.loc 1 68 5
 153              		.loc 1 68 25 is_stmt 0
 154 0008 37040000 		lui	s0,%hi(.LANCHOR0)
 155 000c 93040400 		addi	s1,s0,%lo(.LANCHOR0)
 156              		.loc 1 68 8
 157 0010 9C40     		lw	a5,0(s1)
 158 0012 13040400 		addi	s0,s0,%lo(.LANCHOR0)
 159 0016 9DC7     		beq	a5,zero,.L12
 160              	.L14:
  69:C:/Users/stapi/OneDrive/Desktop/GD32VW553/V1_MQTT_OK/GD32VW55X_Wifi_BLE_SDK/GD32VW55x_RELEASE_V1.0.2/MSDK/cloud/alicloud/src/services/dev_bind\awss_bind.c ****         awss_bind_mutex = HAL_MutexCreate();
  70:C:/Users/stapi/OneDrive/Desktop/GD32VW553/V1_MQTT_OK/GD32VW55X_Wifi_BLE_SDK/GD32VW55x_RELEASE_V1.0.2/MSDK/cloud/alicloud/src/services/dev_bind\awss_bind.c ****         if (awss_bind_mutex == NULL) {
  71:C:/Users/stapi/OneDrive/Desktop/GD32VW553/V1_MQTT_OK/GD32VW55X_Wifi_BLE_SDK/GD32VW55x_RELEASE_V1.0.2/MSDK/cloud/alicloud/src/services/dev_bind\awss_bind.c ****             return STATE_SYS_DEPEND_MUTEX_CREATE;
  72:C:/Users/stapi/OneDrive/Desktop/GD32VW553/V1_MQTT_OK/GD32VW55X_Wifi_BLE_SDK/GD32VW55x_RELEASE_V1.0.2/MSDK/cloud/alicloud/src/services/dev_bind\awss_bind.c ****         }
  73:C:/Users/stapi/OneDrive/Desktop/GD32VW553/V1_MQTT_OK/GD32VW55X_Wifi_BLE_SDK/GD32VW55x_RELEASE_V1.0.2/MSDK/cloud/alicloud/src/services/dev_bind\awss_bind.c ****     }
  74:C:/Users/stapi/OneDrive/Desktop/GD32VW553/V1_MQTT_OK/GD32VW55X_Wifi_BLE_SDK/GD32VW55x_RELEASE_V1.0.2/MSDK/cloud/alicloud/src/services/dev_bind\awss_bind.c **** 
  75:C:/Users/stapi/OneDrive/Desktop/GD32VW553/V1_MQTT_OK/GD32VW55X_Wifi_BLE_SDK/GD32VW55x_RELEASE_V1.0.2/MSDK/cloud/alicloud/src/services/dev_bind\awss_bind.c ****     HAL_MutexLock(awss_bind_mutex);
 161              		.loc 1 75 5 is_stmt 1
 162 0018 0840     		lw	a0,0(s0)
 163 001a 97000000 		call	HAL_MutexLock
 163      E7800000 
 164              	.LVL14:
  76:C:/Users/stapi/OneDrive/Desktop/GD32VW553/V1_MQTT_OK/GD32VW55X_Wifi_BLE_SDK/GD32VW55x_RELEASE_V1.0.2/MSDK/cloud/alicloud/src/services/dev_bind\awss_bind.c ****     awss_cmp_online_init();
 165              		.loc 1 76 5
 166 0022 97000000 		call	awss_cmp_online_init
 166      E7800000 
 167              	.LVL15:
  77:C:/Users/stapi/OneDrive/Desktop/GD32VW553/V1_MQTT_OK/GD32VW55X_Wifi_BLE_SDK/GD32VW55x_RELEASE_V1.0.2/MSDK/cloud/alicloud/src/services/dev_bind\awss_bind.c **** 	HAL_MutexUnlock(awss_bind_mutex);
 168              		.loc 1 77 2
 169 002a 0840     		lw	a0,0(s0)
 170 002c 97000000 		call	HAL_MutexUnlock
 170      E7800000 
 171              	.LVL16:
  78:C:/Users/stapi/OneDrive/Desktop/GD32VW553/V1_MQTT_OK/GD32VW55X_Wifi_BLE_SDK/GD32VW55x_RELEASE_V1.0.2/MSDK/cloud/alicloud/src/services/dev_bind\awss_bind.c **** 
  79:C:/Users/stapi/OneDrive/Desktop/GD32VW553/V1_MQTT_OK/GD32VW55X_Wifi_BLE_SDK/GD32VW55x_RELEASE_V1.0.2/MSDK/cloud/alicloud/src/services/dev_bind\awss_bind.c ****     ret = awss_start_bind();
 172              		.loc 1 79 5
 173              		.loc 1 79 11 is_stmt 0
 174 0034 97000000 		call	awss_start_bind
 174      E7800000 
 175              	.LVL17:
  80:C:/Users/stapi/OneDrive/Desktop/GD32VW553/V1_MQTT_OK/GD32VW55X_Wifi_BLE_SDK/GD32VW55x_RELEASE_V1.0.2/MSDK/cloud/alicloud/src/services/dev_bind\awss_bind.c ****     return ret;
 176              		.loc 1 80 5 is_stmt 1
 177              	.L11:
  81:C:/Users/stapi/OneDrive/Desktop/GD32VW553/V1_MQTT_OK/GD32VW55X_Wifi_BLE_SDK/GD32VW55x_RELEASE_V1.0.2/MSDK/cloud/alicloud/src/services/dev_bind\awss_bind.c **** }
 178              		.loc 1 81 1 is_stmt 0
 179 003c 17030000 		tail	__riscv_restore_2
 179      67000300 
 180              		.cfi_remember_state
 181              		.cfi_restore 9
 182              		.cfi_restore 8
 183              		.cfi_restore 1
 184              		.cfi_def_cfa_offset 0
 185              	.L12:
 186              		.cfi_restore_state
  69:C:/Users/stapi/OneDrive/Desktop/GD32VW553/V1_MQTT_OK/GD32VW55X_Wifi_BLE_SDK/GD32VW55x_RELEASE_V1.0.2/MSDK/cloud/alicloud/src/services/dev_bind\awss_bind.c ****         if (awss_bind_mutex == NULL) {
 187              		.loc 1 69 9 is_stmt 1
  69:C:/Users/stapi/OneDrive/Desktop/GD32VW553/V1_MQTT_OK/GD32VW55X_Wifi_BLE_SDK/GD32VW55x_RELEASE_V1.0.2/MSDK/cloud/alicloud/src/services/dev_bind\awss_bind.c ****         if (awss_bind_mutex == NULL) {
 188              		.loc 1 69 27 is_stmt 0
 189 0044 97000000 		call	HAL_MutexCreate
 189      E7800000 
 190              	.LVL18:
  69:C:/Users/stapi/OneDrive/Desktop/GD32VW553/V1_MQTT_OK/GD32VW55X_Wifi_BLE_SDK/GD32VW55x_RELEASE_V1.0.2/MSDK/cloud/alicloud/src/services/dev_bind\awss_bind.c ****         if (awss_bind_mutex == NULL) {
 191              		.loc 1 69 25
 192 004c 88C0     		sw	a0,0(s1)
  70:C:/Users/stapi/OneDrive/Desktop/GD32VW553/V1_MQTT_OK/GD32VW55X_Wifi_BLE_SDK/GD32VW55x_RELEASE_V1.0.2/MSDK/cloud/alicloud/src/services/dev_bind\awss_bind.c ****             return STATE_SYS_DEPEND_MUTEX_CREATE;
 193              		.loc 1 70 9 is_stmt 1
  70:C:/Users/stapi/OneDrive/Desktop/GD32VW553/V1_MQTT_OK/GD32VW55X_Wifi_BLE_SDK/GD32VW55x_RELEASE_V1.0.2/MSDK/cloud/alicloud/src/services/dev_bind\awss_bind.c ****             return STATE_SYS_DEPEND_MUTEX_CREATE;
 194              		.loc 1 70 12 is_stmt 0
 195 004e 69F5     		bne	a0,zero,.L14
  71:C:/Users/stapi/OneDrive/Desktop/GD32VW553/V1_MQTT_OK/GD32VW55X_Wifi_BLE_SDK/GD32VW55x_RELEASE_V1.0.2/MSDK/cloud/alicloud/src/services/dev_bind\awss_bind.c ****         }
 196              		.loc 1 71 20
 197 0050 1305B0DF 		li	a0,-517
 198 0054 E5B7     		j	.L11
 199              		.cfi_endproc
 200              	.LFE5:
 202              		.section	.text.awss_bind_deinit,"ax",@progbits
 203              		.align	1
 204              		.globl	awss_bind_deinit
 206              	awss_bind_deinit:
 207              	.LFB6:
  82:C:/Users/stapi/OneDrive/Desktop/GD32VW553/V1_MQTT_OK/GD32VW55X_Wifi_BLE_SDK/GD32VW55x_RELEASE_V1.0.2/MSDK/cloud/alicloud/src/services/dev_bind\awss_bind.c **** 
  83:C:/Users/stapi/OneDrive/Desktop/GD32VW553/V1_MQTT_OK/GD32VW55X_Wifi_BLE_SDK/GD32VW55x_RELEASE_V1.0.2/MSDK/cloud/alicloud/src/services/dev_bind\awss_bind.c **** void awss_bind_deinit()
  84:C:/Users/stapi/OneDrive/Desktop/GD32VW553/V1_MQTT_OK/GD32VW55X_Wifi_BLE_SDK/GD32VW55x_RELEASE_V1.0.2/MSDK/cloud/alicloud/src/services/dev_bind\awss_bind.c **** {
 208              		.loc 1 84 1 is_stmt 1
 209              		.cfi_startproc
 210 0000 17030000 		call	t0,__riscv_save_1
 210      E7020300 
 211              		.cfi_offset 8, -8
 212              		.cfi_offset 1, -4
 213              		.cfi_def_cfa_offset 16
  85:C:/Users/stapi/OneDrive/Desktop/GD32VW553/V1_MQTT_OK/GD32VW55X_Wifi_BLE_SDK/GD32VW55x_RELEASE_V1.0.2/MSDK/cloud/alicloud/src/services/dev_bind\awss_bind.c ****     if (awss_bind_mutex) {
 214              		.loc 1 85 5
 215              		.loc 1 85 9 is_stmt 0
 216 0008 37040000 		lui	s0,%hi(.LANCHOR0)
 217 000c 03250400 		lw	a0,%lo(.LANCHOR0)(s0)
 218 0010 13040400 		addi	s0,s0,%lo(.LANCHOR0)
 219              		.loc 1 85 8
 220 0014 09C5     		beq	a0,zero,.L17
  86:C:/Users/stapi/OneDrive/Desktop/GD32VW553/V1_MQTT_OK/GD32VW55X_Wifi_BLE_SDK/GD32VW55x_RELEASE_V1.0.2/MSDK/cloud/alicloud/src/services/dev_bind\awss_bind.c ****         HAL_MutexLock(awss_bind_mutex);
 221              		.loc 1 86 9 is_stmt 1
 222 0016 97000000 		call	HAL_MutexLock
 222      E7800000 
 223              	.LVL19:
 224              	.L17:
  87:C:/Users/stapi/OneDrive/Desktop/GD32VW553/V1_MQTT_OK/GD32VW55X_Wifi_BLE_SDK/GD32VW55x_RELEASE_V1.0.2/MSDK/cloud/alicloud/src/services/dev_bind\awss_bind.c ****     }
  88:C:/Users/stapi/OneDrive/Desktop/GD32VW553/V1_MQTT_OK/GD32VW55X_Wifi_BLE_SDK/GD32VW55x_RELEASE_V1.0.2/MSDK/cloud/alicloud/src/services/dev_bind\awss_bind.c ****     awss_stop_report_reset();
 225              		.loc 1 88 5
 226 001e 97000000 		call	awss_stop_report_reset
 226      E7800000 
 227              	.LVL20:
  89:C:/Users/stapi/OneDrive/Desktop/GD32VW553/V1_MQTT_OK/GD32VW55X_Wifi_BLE_SDK/GD32VW55x_RELEASE_V1.0.2/MSDK/cloud/alicloud/src/services/dev_bind\awss_bind.c ****     awss_stop_report_token();
 228              		.loc 1 89 5
 229 0026 97000000 		call	awss_stop_report_token
 229      E7800000 
 230              	.LVL21:
  90:C:/Users/stapi/OneDrive/Desktop/GD32VW553/V1_MQTT_OK/GD32VW55X_Wifi_BLE_SDK/GD32VW55x_RELEASE_V1.0.2/MSDK/cloud/alicloud/src/services/dev_bind\awss_bind.c ****     awss_dev_bind_notify_stop();
 231              		.loc 1 90 5
 232 002e 97000000 		call	awss_dev_bind_notify_stop
 232      E7800000 
 233              	.LVL22:
  91:C:/Users/stapi/OneDrive/Desktop/GD32VW553/V1_MQTT_OK/GD32VW55X_Wifi_BLE_SDK/GD32VW55x_RELEASE_V1.0.2/MSDK/cloud/alicloud/src/services/dev_bind\awss_bind.c **** 	awss_cmp_online_deinit();
 234              		.loc 1 91 2
 235 0036 97000000 		call	awss_cmp_online_deinit
 235      E7800000 
 236              	.LVL23:
  92:C:/Users/stapi/OneDrive/Desktop/GD32VW553/V1_MQTT_OK/GD32VW55X_Wifi_BLE_SDK/GD32VW55x_RELEASE_V1.0.2/MSDK/cloud/alicloud/src/services/dev_bind\awss_bind.c ****     awss_cmp_local_deinit(1);
 237              		.loc 1 92 5
 238 003e 0545     		li	a0,1
 239 0040 97000000 		call	awss_cmp_local_deinit
 239      E7800000 
 240              	.LVL24:
  93:C:/Users/stapi/OneDrive/Desktop/GD32VW553/V1_MQTT_OK/GD32VW55X_Wifi_BLE_SDK/GD32VW55x_RELEASE_V1.0.2/MSDK/cloud/alicloud/src/services/dev_bind\awss_bind.c **** #ifdef WIFI_PROVISION_ENABLED
  94:C:/Users/stapi/OneDrive/Desktop/GD32VW553/V1_MQTT_OK/GD32VW55X_Wifi_BLE_SDK/GD32VW55x_RELEASE_V1.0.2/MSDK/cloud/alicloud/src/services/dev_bind\awss_bind.c **** #ifndef AWSS_DISABLE_REGISTRAR
  95:C:/Users/stapi/OneDrive/Desktop/GD32VW553/V1_MQTT_OK/GD32VW55X_Wifi_BLE_SDK/GD32VW55x_RELEASE_V1.0.2/MSDK/cloud/alicloud/src/services/dev_bind\awss_bind.c ****     //extern void awss_registrar_deinit(void);
  96:C:/Users/stapi/OneDrive/Desktop/GD32VW553/V1_MQTT_OK/GD32VW55X_Wifi_BLE_SDK/GD32VW55x_RELEASE_V1.0.2/MSDK/cloud/alicloud/src/services/dev_bind\awss_bind.c ****     //awss_registrar_deinit();
  97:C:/Users/stapi/OneDrive/Desktop/GD32VW553/V1_MQTT_OK/GD32VW55X_Wifi_BLE_SDK/GD32VW55x_RELEASE_V1.0.2/MSDK/cloud/alicloud/src/services/dev_bind\awss_bind.c **** #endif
  98:C:/Users/stapi/OneDrive/Desktop/GD32VW553/V1_MQTT_OK/GD32VW55X_Wifi_BLE_SDK/GD32VW55x_RELEASE_V1.0.2/MSDK/cloud/alicloud/src/services/dev_bind\awss_bind.c ****     AWSS_CLEAR_STATIS();
 241              		.loc 1 98 5
 242 0048 97000000 		call	awss_clear_statis
 242      E7800000 
 243              	.LVL25:
  99:C:/Users/stapi/OneDrive/Desktop/GD32VW553/V1_MQTT_OK/GD32VW55X_Wifi_BLE_SDK/GD32VW55x_RELEASE_V1.0.2/MSDK/cloud/alicloud/src/services/dev_bind\awss_bind.c **** #endif
 100:C:/Users/stapi/OneDrive/Desktop/GD32VW553/V1_MQTT_OK/GD32VW55X_Wifi_BLE_SDK/GD32VW55x_RELEASE_V1.0.2/MSDK/cloud/alicloud/src/services/dev_bind\awss_bind.c ****     AWSS_DB_CLEAR_STATIS();
 244              		.loc 1 100 5
 245 0050 97000000 		call	awss_bind_clear_statis
 245      E7800000 
 246              	.LVL26:
 101:C:/Users/stapi/OneDrive/Desktop/GD32VW553/V1_MQTT_OK/GD32VW55X_Wifi_BLE_SDK/GD32VW55x_RELEASE_V1.0.2/MSDK/cloud/alicloud/src/services/dev_bind\awss_bind.c **** 
 102:C:/Users/stapi/OneDrive/Desktop/GD32VW553/V1_MQTT_OK/GD32VW55X_Wifi_BLE_SDK/GD32VW55x_RELEASE_V1.0.2/MSDK/cloud/alicloud/src/services/dev_bind\awss_bind.c ****     if (awss_bind_mutex) {
 247              		.loc 1 102 5
 248              		.loc 1 102 9 is_stmt 0
 249 0058 0840     		lw	a0,0(s0)
 250              		.loc 1 102 8
 251 005a 11C9     		beq	a0,zero,.L18
 103:C:/Users/stapi/OneDrive/Desktop/GD32VW553/V1_MQTT_OK/GD32VW55X_Wifi_BLE_SDK/GD32VW55x_RELEASE_V1.0.2/MSDK/cloud/alicloud/src/services/dev_bind\awss_bind.c ****         HAL_MutexUnlock(awss_bind_mutex);
 252              		.loc 1 103 9 is_stmt 1
 253 005c 97000000 		call	HAL_MutexUnlock
 253      E7800000 
 254              	.LVL27:
 104:C:/Users/stapi/OneDrive/Desktop/GD32VW553/V1_MQTT_OK/GD32VW55X_Wifi_BLE_SDK/GD32VW55x_RELEASE_V1.0.2/MSDK/cloud/alicloud/src/services/dev_bind\awss_bind.c ****         HAL_MutexDestroy(awss_bind_mutex);
 255              		.loc 1 104 9
 256 0064 0840     		lw	a0,0(s0)
 257 0066 97000000 		call	HAL_MutexDestroy
 257      E7800000 
 258              	.LVL28:
 259              	.L18:
 105:C:/Users/stapi/OneDrive/Desktop/GD32VW553/V1_MQTT_OK/GD32VW55X_Wifi_BLE_SDK/GD32VW55x_RELEASE_V1.0.2/MSDK/cloud/alicloud/src/services/dev_bind\awss_bind.c ****     }
 106:C:/Users/stapi/OneDrive/Desktop/GD32VW553/V1_MQTT_OK/GD32VW55X_Wifi_BLE_SDK/GD32VW55x_RELEASE_V1.0.2/MSDK/cloud/alicloud/src/services/dev_bind\awss_bind.c **** 
 107:C:/Users/stapi/OneDrive/Desktop/GD32VW553/V1_MQTT_OK/GD32VW55X_Wifi_BLE_SDK/GD32VW55x_RELEASE_V1.0.2/MSDK/cloud/alicloud/src/services/dev_bind\awss_bind.c ****     awss_bind_mutex = NULL;
 260              		.loc 1 107 5
 108:C:/Users/stapi/OneDrive/Desktop/GD32VW553/V1_MQTT_OK/GD32VW55X_Wifi_BLE_SDK/GD32VW55x_RELEASE_V1.0.2/MSDK/cloud/alicloud/src/services/dev_bind\awss_bind.c ****     awss_bind_inited = 0;
 261              		.loc 1 108 22 is_stmt 0
 262 006e B7070000 		lui	a5,%hi(.LANCHOR1)
 107:C:/Users/stapi/OneDrive/Desktop/GD32VW553/V1_MQTT_OK/GD32VW55X_Wifi_BLE_SDK/GD32VW55x_RELEASE_V1.0.2/MSDK/cloud/alicloud/src/services/dev_bind\awss_bind.c ****     awss_bind_inited = 0;
 263              		.loc 1 107 21
 264 0072 23200400 		sw	zero,0(s0)
 265              		.loc 1 108 5 is_stmt 1
 266              		.loc 1 108 22 is_stmt 0
 267 0076 23800700 		sb	zero,%lo(.LANCHOR1)(a5)
 109:C:/Users/stapi/OneDrive/Desktop/GD32VW553/V1_MQTT_OK/GD32VW55X_Wifi_BLE_SDK/GD32VW55x_RELEASE_V1.0.2/MSDK/cloud/alicloud/src/services/dev_bind\awss_bind.c **** }
 268              		.loc 1 109 1
 269 007a 17030000 		tail	__riscv_restore_1
 269      67000300 
 270              		.cfi_restore 8
 271              		.cfi_restore 1
 272              		.cfi_def_cfa_offset 0
 273              		.cfi_endproc
 274              	.LFE6:
 276              		.section	.sbss.awss_bind_inited,"aw",@nobits
 277              		.set	.LANCHOR1,. + 0
 280              	awss_bind_inited:
 281 0000 00       		.zero	1
 282              		.section	.sbss.awss_bind_mutex,"aw",@nobits
 283              		.align	2
 284              		.set	.LANCHOR0,. + 0
 287              	awss_bind_mutex:
 288 0000 00000000 		.zero	4
 289              		.text
 290              	.Letext0:
 291              		.file 2 "c:\\users\\stapi\\onedrive\\desktop\\gd32vw553\\embeddedbuilder_v1.4.7.26843\\tools\\nucl
 292              		.file 3 "c:\\users\\stapi\\onedrive\\desktop\\gd32vw553\\embeddedbuilder_v1.4.7.26843\\tools\\nucl
 293              		.file 4 "..\\..\\..\\..\\cloud\\alicloud\\include/iot_import.h"
 294              		.file 5 "..\\..\\..\\..\\cloud\\alicloud\\src\\services\\linkkit\\dev_reset/awss_reset.h"
 295              		.file 6 "C:/Users/stapi/OneDrive/Desktop/GD32VW553/V1_MQTT_OK/GD32VW55X_Wifi_BLE_SDK/GD32VW55x_REL
 296              		.file 7 "C:/Users/stapi/OneDrive/Desktop/GD32VW553/V1_MQTT_OK/GD32VW55X_Wifi_BLE_SDK/GD32VW55x_REL
 297              		.file 8 "..\\..\\..\\..\\cloud\\alicloud\\src\\services\\awss/awss_statis.h"
 298              		.file 9 "C:/Users/stapi/OneDrive/Desktop/GD32VW553/V1_MQTT_OK/GD32VW55X_Wifi_BLE_SDK/GD32VW55x_REL
 299              		.file 10 "..\\..\\..\\..\\cloud\\alicloud\\include/imports/iot_import_product.h"
 300              		.file 11 "<built-in>"
DEFINED SYMBOLS
                            *ABS*:0000000000000000 awss_bind.c
C:\Users\stapi\AppData\Local\Temp\ccctIxeW.s:13     .text.awss_start_bind:0000000000000000 awss_start_bind
C:\Users\stapi\AppData\Local\Temp\ccctIxeW.s:17     .text.awss_start_bind:0000000000000000 .L0 
C:\Users\stapi\AppData\Local\Temp\ccctIxeW.s:18     .text.awss_start_bind:0000000000000000 .L0 
C:\Users\stapi\AppData\Local\Temp\ccctIxeW.s:19     .text.awss_start_bind:0000000000000008 .L0 
C:\Users\stapi\AppData\Local\Temp\ccctIxeW.s:20     .text.awss_start_bind:0000000000000008 .L0 
C:\Users\stapi\AppData\Local\Temp\ccctIxeW.s:21     .text.awss_start_bind:0000000000000008 .L0 
C:\Users\stapi\AppData\Local\Temp\ccctIxeW.s:22     .text.awss_start_bind:0000000000000008 .L0 
C:\Users\stapi\AppData\Local\Temp\ccctIxeW.s:23     .text.awss_start_bind:0000000000000008 .L0 
C:\Users\stapi\AppData\Local\Temp\ccctIxeW.s:25     .text.awss_start_bind:0000000000000008 .L0 
C:\Users\stapi\AppData\Local\Temp\ccctIxeW.s:26     .text.awss_start_bind:0000000000000008 .L0 
C:\Users\stapi\AppData\Local\Temp\ccctIxeW.s:27     .text.awss_start_bind:000000000000000a .L0 
C:\Users\stapi\AppData\Local\Temp\ccctIxeW.s:29     .text.awss_start_bind:000000000000000a .L0 
C:\Users\stapi\AppData\Local\Temp\ccctIxeW.s:36     .text.awss_start_bind:000000000000001c .L0 
C:\Users\stapi\AppData\Local\Temp\ccctIxeW.s:37     .text.awss_start_bind:000000000000001c .L0 
C:\Users\stapi\AppData\Local\Temp\ccctIxeW.s:38     .text.awss_start_bind:000000000000001c .L0 
C:\Users\stapi\AppData\Local\Temp\ccctIxeW.s:40     .text.awss_start_bind:0000000000000020 .L0 
C:\Users\stapi\AppData\Local\Temp\ccctIxeW.s:42     .text.awss_start_bind:0000000000000022 .L0 
C:\Users\stapi\AppData\Local\Temp\ccctIxeW.s:44     .text.awss_start_bind:0000000000000026 .L0 
C:\Users\stapi\AppData\Local\Temp\ccctIxeW.s:47     .text.awss_start_bind:000000000000002e .L0 
C:\Users\stapi\AppData\Local\Temp\ccctIxeW.s:48     .text.awss_start_bind:000000000000002e .L0 
C:\Users\stapi\AppData\Local\Temp\ccctIxeW.s:53     .text.awss_start_bind:0000000000000036 .L0 
C:\Users\stapi\AppData\Local\Temp\ccctIxeW.s:55     .text.awss_start_bind:0000000000000038 .L0 
C:\Users\stapi\AppData\Local\Temp\ccctIxeW.s:58     .text.awss_start_bind:0000000000000040 .L0 
C:\Users\stapi\AppData\Local\Temp\ccctIxeW.s:61     .text.awss_start_bind:0000000000000048 .L0 
C:\Users\stapi\AppData\Local\Temp\ccctIxeW.s:62     .text.awss_start_bind:0000000000000048 .L0 
C:\Users\stapi\AppData\Local\Temp\ccctIxeW.s:67     .text.awss_start_bind:0000000000000052 .L0 
C:\Users\stapi\AppData\Local\Temp\ccctIxeW.s:71     .text.awss_start_bind:000000000000005c .L0 
C:\Users\stapi\AppData\Local\Temp\ccctIxeW.s:72     .text.awss_start_bind:000000000000005c .L0 
C:\Users\stapi\AppData\Local\Temp\ccctIxeW.s:76     .text.awss_start_bind:0000000000000060 .L0 
C:\Users\stapi\AppData\Local\Temp\ccctIxeW.s:77     .text.awss_start_bind:0000000000000060 .L0 
C:\Users\stapi\AppData\Local\Temp\ccctIxeW.s:81     .text.awss_start_bind:000000000000006a .L0 
C:\Users\stapi\AppData\Local\Temp\ccctIxeW.s:83     .text.awss_start_bind:000000000000006c .L0 
C:\Users\stapi\AppData\Local\Temp\ccctIxeW.s:84     .text.awss_start_bind:000000000000006c .L0 
C:\Users\stapi\AppData\Local\Temp\ccctIxeW.s:86     .text.awss_start_bind:0000000000000070 .L0 
C:\Users\stapi\AppData\Local\Temp\ccctIxeW.s:89     .text.awss_start_bind:0000000000000072 .L0 
C:\Users\stapi\AppData\Local\Temp\ccctIxeW.s:90     .text.awss_start_bind:0000000000000074 .L0 
C:\Users\stapi\AppData\Local\Temp\ccctIxeW.s:91     .text.awss_start_bind:0000000000000074 .L0 
C:\Users\stapi\AppData\Local\Temp\ccctIxeW.s:93     .text.awss_start_bind:000000000000007c .L0 
C:\Users\stapi\AppData\Local\Temp\ccctIxeW.s:94     .text.awss_start_bind:000000000000007c .L0 
C:\Users\stapi\AppData\Local\Temp\ccctIxeW.s:95     .text.awss_start_bind:000000000000007c .L0 
C:\Users\stapi\AppData\Local\Temp\ccctIxeW.s:96     .text.awss_start_bind:000000000000007c .L0 
C:\Users\stapi\AppData\Local\Temp\ccctIxeW.s:97     .text.awss_start_bind:000000000000007c .L0 
C:\Users\stapi\AppData\Local\Temp\ccctIxeW.s:99     .text.awss_start_bind:000000000000007c .L0 
C:\Users\stapi\AppData\Local\Temp\ccctIxeW.s:101    .text.awss_start_bind:000000000000007c .L0 
C:\Users\stapi\AppData\Local\Temp\ccctIxeW.s:104    .text.awss_start_bind:0000000000000084 .L0 
C:\Users\stapi\AppData\Local\Temp\ccctIxeW.s:108    .text.awss_start_bind:0000000000000090 .L0 
C:\Users\stapi\AppData\Local\Temp\ccctIxeW.s:111    .text.awss_start_bind:0000000000000098 .L0 
C:\Users\stapi\AppData\Local\Temp\ccctIxeW.s:114    .text.awss_start_bind:00000000000000a0 .L0 
C:\Users\stapi\AppData\Local\Temp\ccctIxeW.s:115    .text.awss_start_bind:00000000000000a0 .L0 
C:\Users\stapi\AppData\Local\Temp\ccctIxeW.s:118    .text.awss_start_bind:00000000000000a8 .L0 
C:\Users\stapi\AppData\Local\Temp\ccctIxeW.s:121    .text.awss_start_bind:00000000000000b0 .L0 
C:\Users\stapi\AppData\Local\Temp\ccctIxeW.s:125    .text.awss_start_bind:00000000000000ba .L0 
C:\Users\stapi\AppData\Local\Temp\ccctIxeW.s:128    .text.awss_start_bind:00000000000000c2 .L0 
C:\Users\stapi\AppData\Local\Temp\ccctIxeW.s:132    .text.awss_start_bind:00000000000000cc .L0 
C:\Users\stapi\AppData\Local\Temp\ccctIxeW.s:133    .text.awss_start_bind:00000000000000cc .L0 
C:\Users\stapi\AppData\Local\Temp\ccctIxeW.s:135    .text.awss_start_bind:00000000000000d2 .L0 
C:\Users\stapi\AppData\Local\Temp\ccctIxeW.s:142    .text.awss_report_cloud:0000000000000000 awss_report_cloud
C:\Users\stapi\AppData\Local\Temp\ccctIxeW.s:145    .text.awss_report_cloud:0000000000000000 .L0 
C:\Users\stapi\AppData\Local\Temp\ccctIxeW.s:146    .text.awss_report_cloud:0000000000000000 .L0 
C:\Users\stapi\AppData\Local\Temp\ccctIxeW.s:147    .text.awss_report_cloud:0000000000000008 .L0 
C:\Users\stapi\AppData\Local\Temp\ccctIxeW.s:148    .text.awss_report_cloud:0000000000000008 .L0 
C:\Users\stapi\AppData\Local\Temp\ccctIxeW.s:149    .text.awss_report_cloud:0000000000000008 .L0 
C:\Users\stapi\AppData\Local\Temp\ccctIxeW.s:150    .text.awss_report_cloud:0000000000000008 .L0 
C:\Users\stapi\AppData\Local\Temp\ccctIxeW.s:152    .text.awss_report_cloud:0000000000000008 .L0 
C:\Users\stapi\AppData\Local\Temp\ccctIxeW.s:153    .text.awss_report_cloud:0000000000000008 .L0 
C:\Users\stapi\AppData\Local\Temp\ccctIxeW.s:154    .text.awss_report_cloud:0000000000000008 .L0 
C:\Users\stapi\AppData\Local\Temp\ccctIxeW.s:157    .text.awss_report_cloud:0000000000000010 .L0 
C:\Users\stapi\AppData\Local\Temp\ccctIxeW.s:162    .text.awss_report_cloud:0000000000000018 .L0 
C:\Users\stapi\AppData\Local\Temp\ccctIxeW.s:166    .text.awss_report_cloud:0000000000000022 .L0 
C:\Users\stapi\AppData\Local\Temp\ccctIxeW.s:169    .text.awss_report_cloud:000000000000002a .L0 
C:\Users\stapi\AppData\Local\Temp\ccctIxeW.s:173    .text.awss_report_cloud:0000000000000034 .L0 
C:\Users\stapi\AppData\Local\Temp\ccctIxeW.s:174    .text.awss_report_cloud:0000000000000034 .L0 
C:\Users\stapi\AppData\Local\Temp\ccctIxeW.s:178    .text.awss_report_cloud:000000000000003c .L0 
C:\Users\stapi\AppData\Local\Temp\ccctIxeW.s:179    .text.awss_report_cloud:000000000000003c .L0 
C:\Users\stapi\AppData\Local\Temp\ccctIxeW.s:180    .text.awss_report_cloud:0000000000000044 .L0 
C:\Users\stapi\AppData\Local\Temp\ccctIxeW.s:181    .text.awss_report_cloud:0000000000000044 .L0 
C:\Users\stapi\AppData\Local\Temp\ccctIxeW.s:182    .text.awss_report_cloud:0000000000000044 .L0 
C:\Users\stapi\AppData\Local\Temp\ccctIxeW.s:183    .text.awss_report_cloud:0000000000000044 .L0 
C:\Users\stapi\AppData\Local\Temp\ccctIxeW.s:184    .text.awss_report_cloud:0000000000000044 .L0 
C:\Users\stapi\AppData\Local\Temp\ccctIxeW.s:186    .text.awss_report_cloud:0000000000000044 .L0 
C:\Users\stapi\AppData\Local\Temp\ccctIxeW.s:188    .text.awss_report_cloud:0000000000000044 .L0 
C:\Users\stapi\AppData\Local\Temp\ccctIxeW.s:189    .text.awss_report_cloud:0000000000000044 .L0 
C:\Users\stapi\AppData\Local\Temp\ccctIxeW.s:192    .text.awss_report_cloud:000000000000004c .L0 
C:\Users\stapi\AppData\Local\Temp\ccctIxeW.s:194    .text.awss_report_cloud:000000000000004e .L0 
C:\Users\stapi\AppData\Local\Temp\ccctIxeW.s:195    .text.awss_report_cloud:000000000000004e .L0 
C:\Users\stapi\AppData\Local\Temp\ccctIxeW.s:197    .text.awss_report_cloud:0000000000000050 .L0 
C:\Users\stapi\AppData\Local\Temp\ccctIxeW.s:199    .text.awss_report_cloud:0000000000000056 .L0 
C:\Users\stapi\AppData\Local\Temp\ccctIxeW.s:206    .text.awss_bind_deinit:0000000000000000 awss_bind_deinit
C:\Users\stapi\AppData\Local\Temp\ccctIxeW.s:209    .text.awss_bind_deinit:0000000000000000 .L0 
C:\Users\stapi\AppData\Local\Temp\ccctIxeW.s:210    .text.awss_bind_deinit:0000000000000000 .L0 
C:\Users\stapi\AppData\Local\Temp\ccctIxeW.s:211    .text.awss_bind_deinit:0000000000000008 .L0 
C:\Users\stapi\AppData\Local\Temp\ccctIxeW.s:212    .text.awss_bind_deinit:0000000000000008 .L0 
C:\Users\stapi\AppData\Local\Temp\ccctIxeW.s:213    .text.awss_bind_deinit:0000000000000008 .L0 
C:\Users\stapi\AppData\Local\Temp\ccctIxeW.s:215    .text.awss_bind_deinit:0000000000000008 .L0 
C:\Users\stapi\AppData\Local\Temp\ccctIxeW.s:216    .text.awss_bind_deinit:0000000000000008 .L0 
C:\Users\stapi\AppData\Local\Temp\ccctIxeW.s:220    .text.awss_bind_deinit:0000000000000014 .L0 
C:\Users\stapi\AppData\Local\Temp\ccctIxeW.s:222    .text.awss_bind_deinit:0000000000000016 .L0 
C:\Users\stapi\AppData\Local\Temp\ccctIxeW.s:226    .text.awss_bind_deinit:000000000000001e .L0 
C:\Users\stapi\AppData\Local\Temp\ccctIxeW.s:229    .text.awss_bind_deinit:0000000000000026 .L0 
C:\Users\stapi\AppData\Local\Temp\ccctIxeW.s:232    .text.awss_bind_deinit:000000000000002e .L0 
C:\Users\stapi\AppData\Local\Temp\ccctIxeW.s:235    .text.awss_bind_deinit:0000000000000036 .L0 
C:\Users\stapi\AppData\Local\Temp\ccctIxeW.s:238    .text.awss_bind_deinit:000000000000003e .L0 
C:\Users\stapi\AppData\Local\Temp\ccctIxeW.s:242    .text.awss_bind_deinit:0000000000000048 .L0 
C:\Users\stapi\AppData\Local\Temp\ccctIxeW.s:245    .text.awss_bind_deinit:0000000000000050 .L0 
C:\Users\stapi\AppData\Local\Temp\ccctIxeW.s:248    .text.awss_bind_deinit:0000000000000058 .L0 
C:\Users\stapi\AppData\Local\Temp\ccctIxeW.s:249    .text.awss_bind_deinit:0000000000000058 .L0 
C:\Users\stapi\AppData\Local\Temp\ccctIxeW.s:251    .text.awss_bind_deinit:000000000000005a .L0 
C:\Users\stapi\AppData\Local\Temp\ccctIxeW.s:253    .text.awss_bind_deinit:000000000000005c .L0 
C:\Users\stapi\AppData\Local\Temp\ccctIxeW.s:256    .text.awss_bind_deinit:0000000000000064 .L0 
C:\Users\stapi\AppData\Local\Temp\ccctIxeW.s:261    .text.awss_bind_deinit:000000000000006e .L0 
C:\Users\stapi\AppData\Local\Temp\ccctIxeW.s:262    .text.awss_bind_deinit:000000000000006e .L0 
C:\Users\stapi\AppData\Local\Temp\ccctIxeW.s:264    .text.awss_bind_deinit:0000000000000072 .L0 
C:\Users\stapi\AppData\Local\Temp\ccctIxeW.s:266    .text.awss_bind_deinit:0000000000000076 .L0 
C:\Users\stapi\AppData\Local\Temp\ccctIxeW.s:267    .text.awss_bind_deinit:0000000000000076 .L0 
C:\Users\stapi\AppData\Local\Temp\ccctIxeW.s:269    .text.awss_bind_deinit:000000000000007a .L0 
C:\Users\stapi\AppData\Local\Temp\ccctIxeW.s:270    .text.awss_bind_deinit:0000000000000082 .L0 
C:\Users\stapi\AppData\Local\Temp\ccctIxeW.s:271    .text.awss_bind_deinit:0000000000000082 .L0 
C:\Users\stapi\AppData\Local\Temp\ccctIxeW.s:272    .text.awss_bind_deinit:0000000000000082 .L0 
C:\Users\stapi\AppData\Local\Temp\ccctIxeW.s:273    .text.awss_bind_deinit:0000000000000082 .L0 
C:\Users\stapi\AppData\Local\Temp\ccctIxeW.s:277    .sbss.awss_bind_inited:0000000000000000 .LANCHOR1
C:\Users\stapi\AppData\Local\Temp\ccctIxeW.s:280    .sbss.awss_bind_inited:0000000000000000 awss_bind_inited
C:\Users\stapi\AppData\Local\Temp\ccctIxeW.s:284    .sbss.awss_bind_mutex:0000000000000000 .LANCHOR0
C:\Users\stapi\AppData\Local\Temp\ccctIxeW.s:287    .sbss.awss_bind_mutex:0000000000000000 awss_bind_mutex
C:\Users\stapi\AppData\Local\Temp\ccctIxeW.s:138    .text.awss_start_bind:00000000000000d2 .L0 
C:\Users\stapi\AppData\Local\Temp\ccctIxeW.s:202    .text.awss_report_cloud:0000000000000056 .L0 
C:\Users\stapi\AppData\Local\Temp\ccctIxeW.s:276    .text.awss_bind_deinit:0000000000000082 .L0 
                     .debug_frame:0000000000000000 .L0 
C:\Users\stapi\AppData\Local\Temp\ccctIxeW.s:74     .text.awss_start_bind:0000000000000060 .L2
C:\Users\stapi\AppData\Local\Temp\ccctIxeW.s:98     .text.awss_start_bind:000000000000007c .L8
C:\Users\stapi\AppData\Local\Temp\ccctIxeW.s:87     .text.awss_start_bind:0000000000000072 .L1
C:\Users\stapi\AppData\Local\Temp\ccctIxeW.s:51     .text.awss_start_bind:0000000000000036 .L6
C:\Users\stapi\AppData\Local\Temp\ccctIxeW.s:65     .text.awss_start_bind:0000000000000052 .L10
C:\Users\stapi\AppData\Local\Temp\ccctIxeW.s:185    .text.awss_report_cloud:0000000000000044 .L12
C:\Users\stapi\AppData\Local\Temp\ccctIxeW.s:160    .text.awss_report_cloud:0000000000000018 .L14
C:\Users\stapi\AppData\Local\Temp\ccctIxeW.s:177    .text.awss_report_cloud:000000000000003c .L11
C:\Users\stapi\AppData\Local\Temp\ccctIxeW.s:224    .text.awss_bind_deinit:000000000000001e .L17
C:\Users\stapi\AppData\Local\Temp\ccctIxeW.s:259    .text.awss_bind_deinit:000000000000006e .L18
C:\Users\stapi\AppData\Local\Temp\ccctIxeW.s:758    .debug_abbrev:0000000000000000 .Ldebug_abbrev0
C:\Users\stapi\AppData\Local\Temp\ccctIxeW.s:1175   .debug_str:0000000000000360 .LASF43
C:\Users\stapi\AppData\Local\Temp\ccctIxeW.s:1109   .debug_str:00000000000000b3 .LASF44
C:\Users\stapi\AppData\Local\Temp\ccctIxeW.s:1177   .debug_str:0000000000000447 .LASF45
C:\Users\stapi\AppData\Local\Temp\ccctIxeW.s:1079   .debug_ranges:0000000000000000 .Ldebug_ranges0
C:\Users\stapi\AppData\Local\Temp\ccctIxeW.s:1089   .debug_line:0000000000000000 .Ldebug_line0
C:\Users\stapi\AppData\Local\Temp\ccctIxeW.s:1183   .debug_str:00000000000004f8 .LASF0
C:\Users\stapi\AppData\Local\Temp\ccctIxeW.s:1093   .debug_str:0000000000000018 .LASF10
C:\Users\stapi\AppData\Local\Temp\ccctIxeW.s:1123   .debug_str:00000000000001c5 .LASF1
C:\Users\stapi\AppData\Local\Temp\ccctIxeW.s:1145   .debug_str:000000000000027e .LASF2
C:\Users\stapi\AppData\Local\Temp\ccctIxeW.s:1129   .debug_str:00000000000001f6 .LASF3
C:\Users\stapi\AppData\Local\Temp\ccctIxeW.s:1179   .debug_str:00000000000004d8 .LASF4
C:\Users\stapi\AppData\Local\Temp\ccctIxeW.s:1139   .debug_str:0000000000000245 .LASF5
C:\Users\stapi\AppData\Local\Temp\ccctIxeW.s:1169   .debug_str:0000000000000336 .LASF6
C:\Users\stapi\AppData\Local\Temp\ccctIxeW.s:1117   .debug_str:0000000000000189 .LASF7
C:\Users\stapi\AppData\Local\Temp\ccctIxeW.s:1153   .debug_str:00000000000002bf .LASF8
C:\Users\stapi\AppData\Local\Temp\ccctIxeW.s:1157   .debug_str:00000000000002dc .LASF9
C:\Users\stapi\AppData\Local\Temp\ccctIxeW.s:1159   .debug_str:00000000000002e1 .LASF11
C:\Users\stapi\AppData\Local\Temp\ccctIxeW.s:1147   .debug_str:0000000000000288 .LASF12
C:\Users\stapi\AppData\Local\Temp\ccctIxeW.s:1095   .debug_str:0000000000000022 .LASF13
C:\Users\stapi\AppData\Local\Temp\ccctIxeW.s:1131   .debug_str:0000000000000209 .LASF14
C:\Users\stapi\AppData\Local\Temp\ccctIxeW.s:1151   .debug_str:00000000000002ae .LASF15
C:\Users\stapi\AppData\Local\Temp\ccctIxeW.s:1127   .debug_str:00000000000001e4 .LASF16
C:\Users\stapi\AppData\Local\Temp\ccctIxeW.s:1133   .debug_str:000000000000021d .LASF17
C:\Users\stapi\AppData\Local\Temp\ccctIxeW.s:1187   .debug_str:0000000000000514 .LASF18
C:\Users\stapi\AppData\Local\Temp\ccctIxeW.s:1115   .debug_str:0000000000000178 .LASF46
C:\Users\stapi\AppData\Local\Temp\ccctIxeW.s:207    .text.awss_bind_deinit:0000000000000000 .LFB6
C:\Users\stapi\AppData\Local\Temp\ccctIxeW.s:274    .text.awss_bind_deinit:0000000000000082 .LFE6
C:\Users\stapi\AppData\Local\Temp\ccctIxeW.s:223    .text.awss_bind_deinit:000000000000001e .LVL19
C:\Users\stapi\AppData\Local\Temp\ccctIxeW.s:227    .text.awss_bind_deinit:0000000000000026 .LVL20
C:\Users\stapi\AppData\Local\Temp\ccctIxeW.s:230    .text.awss_bind_deinit:000000000000002e .LVL21
C:\Users\stapi\AppData\Local\Temp\ccctIxeW.s:233    .text.awss_bind_deinit:0000000000000036 .LVL22
C:\Users\stapi\AppData\Local\Temp\ccctIxeW.s:236    .text.awss_bind_deinit:000000000000003e .LVL23
C:\Users\stapi\AppData\Local\Temp\ccctIxeW.s:240    .text.awss_bind_deinit:0000000000000048 .LVL24
C:\Users\stapi\AppData\Local\Temp\ccctIxeW.s:243    .text.awss_bind_deinit:0000000000000050 .LVL25
C:\Users\stapi\AppData\Local\Temp\ccctIxeW.s:246    .text.awss_bind_deinit:0000000000000058 .LVL26
C:\Users\stapi\AppData\Local\Temp\ccctIxeW.s:254    .text.awss_bind_deinit:0000000000000064 .LVL27
C:\Users\stapi\AppData\Local\Temp\ccctIxeW.s:258    .text.awss_bind_deinit:000000000000006e .LVL28
C:\Users\stapi\AppData\Local\Temp\ccctIxeW.s:1141   .debug_str:0000000000000257 .LASF19
C:\Users\stapi\AppData\Local\Temp\ccctIxeW.s:143    .text.awss_report_cloud:0000000000000000 .LFB5
C:\Users\stapi\AppData\Local\Temp\ccctIxeW.s:200    .text.awss_report_cloud:0000000000000056 .LFE5
C:\Users\stapi\AppData\Local\Temp\ccctIxeW.s:164    .text.awss_report_cloud:0000000000000022 .LVL14
C:\Users\stapi\AppData\Local\Temp\ccctIxeW.s:167    .text.awss_report_cloud:000000000000002a .LVL15
C:\Users\stapi\AppData\Local\Temp\ccctIxeW.s:171    .text.awss_report_cloud:0000000000000034 .LVL16
C:\Users\stapi\AppData\Local\Temp\ccctIxeW.s:175    .text.awss_report_cloud:000000000000003c .LVL17
C:\Users\stapi\AppData\Local\Temp\ccctIxeW.s:190    .text.awss_report_cloud:000000000000004c .LVL18
C:\Users\stapi\AppData\Local\Temp\ccctIxeW.s:1185   .debug_str:0000000000000504 .LASF20
C:\Users\stapi\AppData\Local\Temp\ccctIxeW.s:14     .text.awss_start_bind:0000000000000000 .LFB4
C:\Users\stapi\AppData\Local\Temp\ccctIxeW.s:136    .text.awss_start_bind:00000000000000d2 .LFE4
C:\Users\stapi\AppData\Local\Temp\ccctIxeW.s:1173   .debug_str:0000000000000354 .LASF21
C:\Users\stapi\AppData\Local\Temp\ccctIxeW.s:1111   .debug_str:000000000000014e .LASF38
C:\Users\stapi\AppData\Local\Temp\ccctIxeW.s:34     .text.awss_start_bind:000000000000001c .LVL0
C:\Users\stapi\AppData\Local\Temp\ccctIxeW.s:45     .text.awss_start_bind:000000000000002e .LVL1
C:\Users\stapi\AppData\Local\Temp\ccctIxeW.s:59     .text.awss_start_bind:0000000000000048 .LVL2
C:\Users\stapi\AppData\Local\Temp\ccctIxeW.s:69     .text.awss_start_bind:000000000000005c .LVL3
C:\Users\stapi\AppData\Local\Temp\ccctIxeW.s:78     .text.awss_start_bind:0000000000000068 .LVL4
C:\Users\stapi\AppData\Local\Temp\ccctIxeW.s:102    .text.awss_start_bind:0000000000000084 .LVL5
C:\Users\stapi\AppData\Local\Temp\ccctIxeW.s:106    .text.awss_start_bind:0000000000000090 .LVL6
C:\Users\stapi\AppData\Local\Temp\ccctIxeW.s:109    .text.awss_start_bind:0000000000000098 .LVL7
C:\Users\stapi\AppData\Local\Temp\ccctIxeW.s:112    .text.awss_start_bind:00000000000000a0 .LVL8
C:\Users\stapi\AppData\Local\Temp\ccctIxeW.s:116    .text.awss_start_bind:00000000000000a8 .LVL9
C:\Users\stapi\AppData\Local\Temp\ccctIxeW.s:119    .text.awss_start_bind:00000000000000b0 .LVL10
C:\Users\stapi\AppData\Local\Temp\ccctIxeW.s:123    .text.awss_start_bind:00000000000000ba .LVL11
C:\Users\stapi\AppData\Local\Temp\ccctIxeW.s:126    .text.awss_start_bind:00000000000000c2 .LVL12
C:\Users\stapi\AppData\Local\Temp\ccctIxeW.s:130    .text.awss_start_bind:00000000000000cc .LVL13
C:\Users\stapi\AppData\Local\Temp\ccctIxeW.s:1121   .debug_str:00000000000001b7 .LASF22
C:\Users\stapi\AppData\Local\Temp\ccctIxeW.s:1181   .debug_str:00000000000004e1 .LASF23
C:\Users\stapi\AppData\Local\Temp\ccctIxeW.s:1167   .debug_str:000000000000031f .LASF24
C:\Users\stapi\AppData\Local\Temp\ccctIxeW.s:1105   .debug_str:0000000000000084 .LASF25
C:\Users\stapi\AppData\Local\Temp\ccctIxeW.s:1119   .debug_str:00000000000001a0 .LASF26
C:\Users\stapi\AppData\Local\Temp\ccctIxeW.s:1103   .debug_str:000000000000006e .LASF27
C:\Users\stapi\AppData\Local\Temp\ccctIxeW.s:1163   .debug_str:00000000000002fd .LASF28
C:\Users\stapi\AppData\Local\Temp\ccctIxeW.s:1097   .debug_str:0000000000000033 .LASF29
C:\Users\stapi\AppData\Local\Temp\ccctIxeW.s:1171   .debug_str:0000000000000344 .LASF30
C:\Users\stapi\AppData\Local\Temp\ccctIxeW.s:1135   .debug_str:000000000000022d .LASF31
C:\Users\stapi\AppData\Local\Temp\ccctIxeW.s:1143   .debug_str:0000000000000269 .LASF32
C:\Users\stapi\AppData\Local\Temp\ccctIxeW.s:1165   .debug_str:000000000000030f .LASF33
C:\Users\stapi\AppData\Local\Temp\ccctIxeW.s:1137   .debug_str:000000000000023e .LASF47
C:\Users\stapi\AppData\Local\Temp\ccctIxeW.s:1125   .debug_str:00000000000001d3 .LASF48
C:\Users\stapi\AppData\Local\Temp\ccctIxeW.s:1155   .debug_str:00000000000002cc .LASF34
C:\Users\stapi\AppData\Local\Temp\ccctIxeW.s:1149   .debug_str:000000000000029c .LASF35
C:\Users\stapi\AppData\Local\Temp\ccctIxeW.s:1161   .debug_str:00000000000002e9 .LASF36
C:\Users\stapi\AppData\Local\Temp\ccctIxeW.s:1107   .debug_str:000000000000009e .LASF37
C:\Users\stapi\AppData\Local\Temp\ccctIxeW.s:1099   .debug_str:000000000000004a .LASF39
C:\Users\stapi\AppData\Local\Temp\ccctIxeW.s:1101   .debug_str:000000000000005b .LASF40
C:\Users\stapi\AppData\Local\Temp\ccctIxeW.s:1113   .debug_str:0000000000000162 .LASF41
C:\Users\stapi\AppData\Local\Temp\ccctIxeW.s:1091   .debug_str:0000000000000000 .LASF42
C:\Users\stapi\AppData\Local\Temp\ccctIxeW.s:302    .debug_info:0000000000000000 .Ldebug_info0

UNDEFINED SYMBOLS
__riscv_save_3
memset
HAL_GetModuleID
HAL_MutexLock
HAL_MutexUnlock
HAL_MutexCreate
__riscv_restore_3
awss_report_token
awss_cmp_local_init
awss_dev_bind_notify_stop
awss_dev_bind_notify
awss_registrar_init
awss_disp_statis
awss_report_statis
awss_bind_disp_statis
awss_bind_report_statis
__riscv_save_2
awss_cmp_online_init
__riscv_restore_2
__riscv_save_1
awss_stop_report_reset
awss_stop_report_token
awss_cmp_online_deinit
awss_cmp_local_deinit
awss_clear_statis
awss_bind_clear_statis
HAL_MutexDestroy
__riscv_restore_1
