   1              		.file	"awss_report.c"
   2              		.option nopic
   3              		.attribute arch, "rv32i2p0_m2p0_a2p0_f2p0_c2p0_b_p0p94"
   4              		.attribute unaligned_access, 0
   5              		.attribute stack_align, 16
   6              		.text
   7              	.Ltext0:
   8              		.cfi_sections	.debug_frame
   9              		.section	.text.os_get_time_ms,"ax",@progbits
  10              		.align	1
  12              	os_get_time_ms:
  13              	.LFB20:
  14              		.file 1 "..\\..\\..\\..\\cloud\\alicloud\\src\\services\\dev_bind\\os/os.h"
   1:..\..\..\..\cloud\alicloud\src\services\dev_bind\os/os.h **** /*
   2:..\..\..\..\cloud\alicloud\src\services\dev_bind\os/os.h ****  * Copyright (C) 2015-2018 Alibaba Group Holding Limited
   3:..\..\..\..\cloud\alicloud\src\services\dev_bind\os/os.h ****  */
   4:..\..\..\..\cloud\alicloud\src\services\dev_bind\os/os.h **** 
   5:..\..\..\..\cloud\alicloud\src\services\dev_bind\os/os.h **** #ifndef __AWSS_OS_H__
   6:..\..\..\..\cloud\alicloud\src\services\dev_bind\os/os.h **** #define __AWSS_OS_H__
   7:..\..\..\..\cloud\alicloud\src\services\dev_bind\os/os.h **** 
   8:..\..\..\..\cloud\alicloud\src\services\dev_bind\os/os.h **** #ifdef __cplusplus
   9:..\..\..\..\cloud\alicloud\src\services\dev_bind\os/os.h **** extern "C" {
  10:..\..\..\..\cloud\alicloud\src\services\dev_bind\os/os.h **** #endif
  11:..\..\..\..\cloud\alicloud\src\services\dev_bind\os/os.h **** #include <ctype.h>
  12:..\..\..\..\cloud\alicloud\src\services\dev_bind\os/os.h **** #include "iot_import.h"
  13:..\..\..\..\cloud\alicloud\src\services\dev_bind\os/os.h **** #include "iot_export.h"
  14:..\..\..\..\cloud\alicloud\src\services\dev_bind\os/os.h **** #include "product/product.h"
  15:..\..\..\..\cloud\alicloud\src\services\dev_bind\os/os.h **** #include "platform.h"
  16:..\..\..\..\cloud\alicloud\src\services\dev_bind\os/os.h **** 
  17:..\..\..\..\cloud\alicloud\src\services\dev_bind\os/os.h **** /** @defgroup group_os os
  18:..\..\..\..\cloud\alicloud\src\services\dev_bind\os/os.h ****  *  @{
  19:..\..\..\..\cloud\alicloud\src\services\dev_bind\os/os.h ****  */
  20:..\..\..\..\cloud\alicloud\src\services\dev_bind\os/os.h **** 
  21:..\..\..\..\cloud\alicloud\src\services\dev_bind\os/os.h **** #define OS_MAX_SSID_LEN         PLATFORM_MAX_SSID_LEN
  22:..\..\..\..\cloud\alicloud\src\services\dev_bind\os/os.h **** #define OS_MAX_PASSWD_LEN       PLATFORM_MAX_PASSWD_LEN
  23:..\..\..\..\cloud\alicloud\src\services\dev_bind\os/os.h **** 
  24:..\..\..\..\cloud\alicloud\src\services\dev_bind\os/os.h **** #define OS_MAC_LEN              PLATFORM_MAC_LEN
  25:..\..\..\..\cloud\alicloud\src\services\dev_bind\os/os.h **** #define OS_IP_LEN               PLATFORM_IP_LEN
  26:..\..\..\..\cloud\alicloud\src\services\dev_bind\os/os.h **** #define OS_ETH_ALEN             ETH_ALEN
  27:..\..\..\..\cloud\alicloud\src\services\dev_bind\os/os.h **** 
  28:..\..\..\..\cloud\alicloud\src\services\dev_bind\os/os.h **** #define OS_PRODUCT_KEY_LEN      PRODUCT_KEY_LEN
  29:..\..\..\..\cloud\alicloud\src\services\dev_bind\os/os.h **** #define OS_PRODUCT_SECRET_LEN   PRODUCT_SECRET_LEN
  30:..\..\..\..\cloud\alicloud\src\services\dev_bind\os/os.h **** #define OS_DEVICE_NAME_LEN      DEVICE_NAME_LEN
  31:..\..\..\..\cloud\alicloud\src\services\dev_bind\os/os.h **** #define OS_DEVICE_SECRET_LEN    DEVICE_SECRET_LEN
  32:..\..\..\..\cloud\alicloud\src\services\dev_bind\os/os.h **** 
  33:..\..\..\..\cloud\alicloud\src\services\dev_bind\os/os.h **** /***************************************** Misc Interface *****************************************
  34:..\..\..\..\cloud\alicloud\src\services\dev_bind\os/os.h **** 
  35:..\..\..\..\cloud\alicloud\src\services\dev_bind\os/os.h **** /** @defgroup group_misc misc
  36:..\..\..\..\cloud\alicloud\src\services\dev_bind\os/os.h ****  *  @{
  37:..\..\..\..\cloud\alicloud\src\services\dev_bind\os/os.h ****  */
  38:..\..\..\..\cloud\alicloud\src\services\dev_bind\os/os.h **** /**
  39:..\..\..\..\cloud\alicloud\src\services\dev_bind\os/os.h ****  * @brief .
  40:..\..\..\..\cloud\alicloud\src\services\dev_bind\os/os.h ****  *
  41:..\..\..\..\cloud\alicloud\src\services\dev_bind\os/os.h ****  * @param None.
  42:..\..\..\..\cloud\alicloud\src\services\dev_bind\os/os.h ****  * @return
  43:..\..\..\..\cloud\alicloud\src\services\dev_bind\os/os.h ****  * @verbatim
  44:..\..\..\..\cloud\alicloud\src\services\dev_bind\os/os.h ****  * = 0, This platform is little endian.
  45:..\..\..\..\cloud\alicloud\src\services\dev_bind\os/os.h ****  * = 1, This platform is big endian.
  46:..\..\..\..\cloud\alicloud\src\services\dev_bind\os/os.h ****  * @endverbatim
  47:..\..\..\..\cloud\alicloud\src\services\dev_bind\os/os.h ****  * @see None.
  48:..\..\..\..\cloud\alicloud\src\services\dev_bind\os/os.h ****  * @note None.
  49:..\..\..\..\cloud\alicloud\src\services\dev_bind\os/os.h ****  */
  50:..\..\..\..\cloud\alicloud\src\services\dev_bind\os/os.h **** static inline int os_is_big_endian(void)
  51:..\..\..\..\cloud\alicloud\src\services\dev_bind\os/os.h **** {
  52:..\..\..\..\cloud\alicloud\src\services\dev_bind\os/os.h ****     uint32_t data = 0xFF000000;
  53:..\..\..\..\cloud\alicloud\src\services\dev_bind\os/os.h **** 
  54:..\..\..\..\cloud\alicloud\src\services\dev_bind\os/os.h ****     if (0xFF == *(uint8_t *) & data) {
  55:..\..\..\..\cloud\alicloud\src\services\dev_bind\os/os.h ****         return 1;                                    //big endian
  56:..\..\..\..\cloud\alicloud\src\services\dev_bind\os/os.h ****     }
  57:..\..\..\..\cloud\alicloud\src\services\dev_bind\os/os.h **** 
  58:..\..\..\..\cloud\alicloud\src\services\dev_bind\os/os.h ****     return 0;                                        //little endian
  59:..\..\..\..\cloud\alicloud\src\services\dev_bind\os/os.h **** }
  60:..\..\..\..\cloud\alicloud\src\services\dev_bind\os/os.h **** 
  61:..\..\..\..\cloud\alicloud\src\services\dev_bind\os/os.h **** /**
  62:..\..\..\..\cloud\alicloud\src\services\dev_bind\os/os.h ****  * @brief Convert the data from byte order of current CPU(the "host") to big-endian.
  63:..\..\..\..\cloud\alicloud\src\services\dev_bind\os/os.h ****    The size of the data is 16 bits.
  64:..\..\..\..\cloud\alicloud\src\services\dev_bind\os/os.h ****  *
  65:..\..\..\..\cloud\alicloud\src\services\dev_bind\os/os.h ****  * @param[in] data @n Data to be converted.
  66:..\..\..\..\cloud\alicloud\src\services\dev_bind\os/os.h ****  * @return Conversion result.
  67:..\..\..\..\cloud\alicloud\src\services\dev_bind\os/os.h ****  * @see None.
  68:..\..\..\..\cloud\alicloud\src\services\dev_bind\os/os.h ****  * @note None.
  69:..\..\..\..\cloud\alicloud\src\services\dev_bind\os/os.h ****  */
  70:..\..\..\..\cloud\alicloud\src\services\dev_bind\os/os.h **** uint16_t os_htobe16(uint16_t data);
  71:..\..\..\..\cloud\alicloud\src\services\dev_bind\os/os.h **** 
  72:..\..\..\..\cloud\alicloud\src\services\dev_bind\os/os.h **** /**
  73:..\..\..\..\cloud\alicloud\src\services\dev_bind\os/os.h ****  * @brief Convert the data from host to little-endian.
  74:..\..\..\..\cloud\alicloud\src\services\dev_bind\os/os.h ****    The size of the data is 16 bits.
  75:..\..\..\..\cloud\alicloud\src\services\dev_bind\os/os.h ****  *
  76:..\..\..\..\cloud\alicloud\src\services\dev_bind\os/os.h ****  * @param[in] data @n Data to be converted.
  77:..\..\..\..\cloud\alicloud\src\services\dev_bind\os/os.h ****  * @return Conversion result.
  78:..\..\..\..\cloud\alicloud\src\services\dev_bind\os/os.h ****  * @see None.
  79:..\..\..\..\cloud\alicloud\src\services\dev_bind\os/os.h ****  * @note None.
  80:..\..\..\..\cloud\alicloud\src\services\dev_bind\os/os.h ****  */
  81:..\..\..\..\cloud\alicloud\src\services\dev_bind\os/os.h **** uint16_t os_htole16(uint16_t data);
  82:..\..\..\..\cloud\alicloud\src\services\dev_bind\os/os.h **** 
  83:..\..\..\..\cloud\alicloud\src\services\dev_bind\os/os.h **** /**
  84:..\..\..\..\cloud\alicloud\src\services\dev_bind\os/os.h ****  * @brief Convert the data from big-endian to host.
  85:..\..\..\..\cloud\alicloud\src\services\dev_bind\os/os.h ****    The size of the data is 16 bits.
  86:..\..\..\..\cloud\alicloud\src\services\dev_bind\os/os.h ****  *
  87:..\..\..\..\cloud\alicloud\src\services\dev_bind\os/os.h ****  * @param[in] data @n Data to be converted.
  88:..\..\..\..\cloud\alicloud\src\services\dev_bind\os/os.h ****  * @return Conversion result.
  89:..\..\..\..\cloud\alicloud\src\services\dev_bind\os/os.h ****  * @see None.
  90:..\..\..\..\cloud\alicloud\src\services\dev_bind\os/os.h ****  * @note None.
  91:..\..\..\..\cloud\alicloud\src\services\dev_bind\os/os.h ****  */
  92:..\..\..\..\cloud\alicloud\src\services\dev_bind\os/os.h **** uint16_t os_be16toh(uint16_t data);
  93:..\..\..\..\cloud\alicloud\src\services\dev_bind\os/os.h **** 
  94:..\..\..\..\cloud\alicloud\src\services\dev_bind\os/os.h **** /**
  95:..\..\..\..\cloud\alicloud\src\services\dev_bind\os/os.h ****  * @brief Convert the data from little-endian to host.
  96:..\..\..\..\cloud\alicloud\src\services\dev_bind\os/os.h ****    The size of the data is 16 bits.
  97:..\..\..\..\cloud\alicloud\src\services\dev_bind\os/os.h ****  *
  98:..\..\..\..\cloud\alicloud\src\services\dev_bind\os/os.h ****  * @param[in] data @n Data to be converted.
  99:..\..\..\..\cloud\alicloud\src\services\dev_bind\os/os.h ****  * @return Conversion result.
 100:..\..\..\..\cloud\alicloud\src\services\dev_bind\os/os.h ****  * @see None.
 101:..\..\..\..\cloud\alicloud\src\services\dev_bind\os/os.h ****  * @note None.
 102:..\..\..\..\cloud\alicloud\src\services\dev_bind\os/os.h ****  */
 103:..\..\..\..\cloud\alicloud\src\services\dev_bind\os/os.h **** uint16_t os_le16toh(uint16_t data);
 104:..\..\..\..\cloud\alicloud\src\services\dev_bind\os/os.h **** 
 105:..\..\..\..\cloud\alicloud\src\services\dev_bind\os/os.h **** /**
 106:..\..\..\..\cloud\alicloud\src\services\dev_bind\os/os.h ****  * @brief Convert the data from little-endian to host.
 107:..\..\..\..\cloud\alicloud\src\services\dev_bind\os/os.h ****    The size of the data is 32 bits.
 108:..\..\..\..\cloud\alicloud\src\services\dev_bind\os/os.h ****  *
 109:..\..\..\..\cloud\alicloud\src\services\dev_bind\os/os.h ****  * @param[in] data @n Data to be converted.
 110:..\..\..\..\cloud\alicloud\src\services\dev_bind\os/os.h ****  * @return Conversion result.
 111:..\..\..\..\cloud\alicloud\src\services\dev_bind\os/os.h ****  * @see None.
 112:..\..\..\..\cloud\alicloud\src\services\dev_bind\os/os.h ****  * @note None.
 113:..\..\..\..\cloud\alicloud\src\services\dev_bind\os/os.h ****  */
 114:..\..\..\..\cloud\alicloud\src\services\dev_bind\os/os.h **** uint32_t os_le32toh(uint32_t data);
 115:..\..\..\..\cloud\alicloud\src\services\dev_bind\os/os.h **** 
 116:..\..\..\..\cloud\alicloud\src\services\dev_bind\os/os.h **** /**
 117:..\..\..\..\cloud\alicloud\src\services\dev_bind\os/os.h ****  * @brief Convert the data from host to big-endian.
 118:..\..\..\..\cloud\alicloud\src\services\dev_bind\os/os.h ****    The size of the data is 64 bits.
 119:..\..\..\..\cloud\alicloud\src\services\dev_bind\os/os.h ****  *
 120:..\..\..\..\cloud\alicloud\src\services\dev_bind\os/os.h ****  * @param[in] data @n Data to be converted.
 121:..\..\..\..\cloud\alicloud\src\services\dev_bind\os/os.h ****  * @return Conversion result.
 122:..\..\..\..\cloud\alicloud\src\services\dev_bind\os/os.h ****  * @see None.
 123:..\..\..\..\cloud\alicloud\src\services\dev_bind\os/os.h ****  * @note None.
 124:..\..\..\..\cloud\alicloud\src\services\dev_bind\os/os.h ****  */
 125:..\..\..\..\cloud\alicloud\src\services\dev_bind\os/os.h **** //uint64_t os_htobe64(uint64_t data);
 126:..\..\..\..\cloud\alicloud\src\services\dev_bind\os/os.h **** 
 127:..\..\..\..\cloud\alicloud\src\services\dev_bind\os/os.h **** /**
 128:..\..\..\..\cloud\alicloud\src\services\dev_bind\os/os.h ****  * @brief Convert the data from host to little-endian.
 129:..\..\..\..\cloud\alicloud\src\services\dev_bind\os/os.h ****    The size of the data is 64 bits.
 130:..\..\..\..\cloud\alicloud\src\services\dev_bind\os/os.h ****  *
 131:..\..\..\..\cloud\alicloud\src\services\dev_bind\os/os.h ****  * @param[in] data @n Data to be converted.
 132:..\..\..\..\cloud\alicloud\src\services\dev_bind\os/os.h ****  * @return Conversion result.
 133:..\..\..\..\cloud\alicloud\src\services\dev_bind\os/os.h ****  * @see None.
 134:..\..\..\..\cloud\alicloud\src\services\dev_bind\os/os.h ****  * @note None.
 135:..\..\..\..\cloud\alicloud\src\services\dev_bind\os/os.h ****  */
 136:..\..\..\..\cloud\alicloud\src\services\dev_bind\os/os.h **** //uint64_t os_htole64(uint64_t data);
 137:..\..\..\..\cloud\alicloud\src\services\dev_bind\os/os.h **** 
 138:..\..\..\..\cloud\alicloud\src\services\dev_bind\os/os.h **** /**
 139:..\..\..\..\cloud\alicloud\src\services\dev_bind\os/os.h ****  * @brief Convert the data from big-endian to host.
 140:..\..\..\..\cloud\alicloud\src\services\dev_bind\os/os.h ****    The size of the data is 64 bits.
 141:..\..\..\..\cloud\alicloud\src\services\dev_bind\os/os.h ****  *
 142:..\..\..\..\cloud\alicloud\src\services\dev_bind\os/os.h ****  * @param[in] data @n Data to be converted.
 143:..\..\..\..\cloud\alicloud\src\services\dev_bind\os/os.h ****  * @return Conversion result.
 144:..\..\..\..\cloud\alicloud\src\services\dev_bind\os/os.h ****  * @see None.
 145:..\..\..\..\cloud\alicloud\src\services\dev_bind\os/os.h ****  * @note None.
 146:..\..\..\..\cloud\alicloud\src\services\dev_bind\os/os.h ****  */
 147:..\..\..\..\cloud\alicloud\src\services\dev_bind\os/os.h **** //uint64_t os_be64toh(uint64_t data);
 148:..\..\..\..\cloud\alicloud\src\services\dev_bind\os/os.h **** 
 149:..\..\..\..\cloud\alicloud\src\services\dev_bind\os/os.h **** /**
 150:..\..\..\..\cloud\alicloud\src\services\dev_bind\os/os.h ****  * @brief Convert the data from little-endian to host.
 151:..\..\..\..\cloud\alicloud\src\services\dev_bind\os/os.h ****    The size of the data is 64 bits.
 152:..\..\..\..\cloud\alicloud\src\services\dev_bind\os/os.h ****  *
 153:..\..\..\..\cloud\alicloud\src\services\dev_bind\os/os.h ****  * @param[in] data @n Data to be converted.
 154:..\..\..\..\cloud\alicloud\src\services\dev_bind\os/os.h ****  * @return Conversion result.
 155:..\..\..\..\cloud\alicloud\src\services\dev_bind\os/os.h ****  * @see None.
 156:..\..\..\..\cloud\alicloud\src\services\dev_bind\os/os.h ****  * @note None.
 157:..\..\..\..\cloud\alicloud\src\services\dev_bind\os/os.h ****  */
 158:..\..\..\..\cloud\alicloud\src\services\dev_bind\os/os.h **** //uint64_t os_le64toh(uint64_t data);
 159:..\..\..\..\cloud\alicloud\src\services\dev_bind\os/os.h **** 
 160:..\..\..\..\cloud\alicloud\src\services\dev_bind\os/os.h **** /**
 161:..\..\..\..\cloud\alicloud\src\services\dev_bind\os/os.h ****  * @brief Get unaligned 16 bits data which is big-endian and convert to host byte order.
 162:..\..\..\..\cloud\alicloud\src\services\dev_bind\os/os.h ****  *
 163:..\..\..\..\cloud\alicloud\src\services\dev_bind\os/os.h ****  * @param[in] ptr @n The start address of the unaligned data.
 164:..\..\..\..\cloud\alicloud\src\services\dev_bind\os/os.h ****  * @return Result in host byte order.
 165:..\..\..\..\cloud\alicloud\src\services\dev_bind\os/os.h ****  * @see None.
 166:..\..\..\..\cloud\alicloud\src\services\dev_bind\os/os.h ****  * @note None.
 167:..\..\..\..\cloud\alicloud\src\services\dev_bind\os/os.h ****  */
 168:..\..\..\..\cloud\alicloud\src\services\dev_bind\os/os.h **** uint16_t os_get_unaligned_be16(uint8_t *ptr);
 169:..\..\..\..\cloud\alicloud\src\services\dev_bind\os/os.h **** 
 170:..\..\..\..\cloud\alicloud\src\services\dev_bind\os/os.h **** /**
 171:..\..\..\..\cloud\alicloud\src\services\dev_bind\os/os.h ****  * @brief Get unaligned 16 bits data which is little-endian and convert to host byte order.
 172:..\..\..\..\cloud\alicloud\src\services\dev_bind\os/os.h ****  *
 173:..\..\..\..\cloud\alicloud\src\services\dev_bind\os/os.h ****  * @param[in] ptr @n The start address of the unaligned data.
 174:..\..\..\..\cloud\alicloud\src\services\dev_bind\os/os.h ****  * @return Result in host byte order.
 175:..\..\..\..\cloud\alicloud\src\services\dev_bind\os/os.h ****  * @see None.
 176:..\..\..\..\cloud\alicloud\src\services\dev_bind\os/os.h ****  * @note None.
 177:..\..\..\..\cloud\alicloud\src\services\dev_bind\os/os.h ****  */
 178:..\..\..\..\cloud\alicloud\src\services\dev_bind\os/os.h **** uint16_t os_get_unaligned_le16(uint8_t *ptr);
 179:..\..\..\..\cloud\alicloud\src\services\dev_bind\os/os.h **** 
 180:..\..\..\..\cloud\alicloud\src\services\dev_bind\os/os.h **** /**
 181:..\..\..\..\cloud\alicloud\src\services\dev_bind\os/os.h ****  * @brief Get unaligned 32 bits data which is big-endian and convert to host byte order.
 182:..\..\..\..\cloud\alicloud\src\services\dev_bind\os/os.h ****  *
 183:..\..\..\..\cloud\alicloud\src\services\dev_bind\os/os.h ****  * @param[in] ptr @n The start address of the unaligned data.
 184:..\..\..\..\cloud\alicloud\src\services\dev_bind\os/os.h ****  * @return Result in host byte order.
 185:..\..\..\..\cloud\alicloud\src\services\dev_bind\os/os.h ****  * @see None.
 186:..\..\..\..\cloud\alicloud\src\services\dev_bind\os/os.h ****  * @note None.
 187:..\..\..\..\cloud\alicloud\src\services\dev_bind\os/os.h ****  */
 188:..\..\..\..\cloud\alicloud\src\services\dev_bind\os/os.h **** uint32_t os_get_unaligned_be32(uint8_t *ptr);
 189:..\..\..\..\cloud\alicloud\src\services\dev_bind\os/os.h **** 
 190:..\..\..\..\cloud\alicloud\src\services\dev_bind\os/os.h **** /**
 191:..\..\..\..\cloud\alicloud\src\services\dev_bind\os/os.h ****  * @brief Get unaligned 32 bits data which is little-endian and convert to host byte order.
 192:..\..\..\..\cloud\alicloud\src\services\dev_bind\os/os.h ****  *
 193:..\..\..\..\cloud\alicloud\src\services\dev_bind\os/os.h ****  * @param[in] ptr @n The start address of the unaligned data.
 194:..\..\..\..\cloud\alicloud\src\services\dev_bind\os/os.h ****  * @return Result in host byte order.
 195:..\..\..\..\cloud\alicloud\src\services\dev_bind\os/os.h ****  * @see None.
 196:..\..\..\..\cloud\alicloud\src\services\dev_bind\os/os.h ****  * @note None.
 197:..\..\..\..\cloud\alicloud\src\services\dev_bind\os/os.h ****  */
 198:..\..\..\..\cloud\alicloud\src\services\dev_bind\os/os.h **** uint32_t os_get_unaligned_le32(uint8_t *ptr);
 199:..\..\..\..\cloud\alicloud\src\services\dev_bind\os/os.h **** 
 200:..\..\..\..\cloud\alicloud\src\services\dev_bind\os/os.h **** /**
 201:..\..\..\..\cloud\alicloud\src\services\dev_bind\os/os.h ****  * @brief sleep thread itself.
 202:..\..\..\..\cloud\alicloud\src\services\dev_bind\os/os.h ****  *
 203:..\..\..\..\cloud\alicloud\src\services\dev_bind\os/os.h ****  * @param[in] ms @n the time interval for which execution is to be suspended, in milliseconds.
 204:..\..\..\..\cloud\alicloud\src\services\dev_bind\os/os.h ****  * @return None.
 205:..\..\..\..\cloud\alicloud\src\services\dev_bind\os/os.h ****  * @see None.
 206:..\..\..\..\cloud\alicloud\src\services\dev_bind\os/os.h ****  * @note None.
 207:..\..\..\..\cloud\alicloud\src\services\dev_bind\os/os.h ****  */
 208:..\..\..\..\cloud\alicloud\src\services\dev_bind\os/os.h **** static inline void os_msleep(_IN_ uint32_t ms)
 209:..\..\..\..\cloud\alicloud\src\services\dev_bind\os/os.h **** {
 210:..\..\..\..\cloud\alicloud\src\services\dev_bind\os/os.h ****     platform_msleep(ms);
 211:..\..\..\..\cloud\alicloud\src\services\dev_bind\os/os.h **** }
 212:..\..\..\..\cloud\alicloud\src\services\dev_bind\os/os.h **** 
 213:..\..\..\..\cloud\alicloud\src\services\dev_bind\os/os.h **** /**
 214:..\..\..\..\cloud\alicloud\src\services\dev_bind\os/os.h ****  * @brief sleep thread itself.
 215:..\..\..\..\cloud\alicloud\src\services\dev_bind\os/os.h ****  *
 216:..\..\..\..\cloud\alicloud\src\services\dev_bind\os/os.h ****  * @param[in] sec @n the time interval for which execution is to be suspended, in seconds.
 217:..\..\..\..\cloud\alicloud\src\services\dev_bind\os/os.h ****  * @return None.
 218:..\..\..\..\cloud\alicloud\src\services\dev_bind\os/os.h ****  * @see None.
 219:..\..\..\..\cloud\alicloud\src\services\dev_bind\os/os.h ****  * @note None.
 220:..\..\..\..\cloud\alicloud\src\services\dev_bind\os/os.h ****  */
 221:..\..\..\..\cloud\alicloud\src\services\dev_bind\os/os.h **** static inline void os_sleep(_IN_ uint32_t sec)
 222:..\..\..\..\cloud\alicloud\src\services\dev_bind\os/os.h **** {
 223:..\..\..\..\cloud\alicloud\src\services\dev_bind\os/os.h ****     platform_msleep(sec * 1000);
 224:..\..\..\..\cloud\alicloud\src\services\dev_bind\os/os.h **** }
 225:..\..\..\..\cloud\alicloud\src\services\dev_bind\os/os.h **** 
 226:..\..\..\..\cloud\alicloud\src\services\dev_bind\os/os.h **** /**
 227:..\..\..\..\cloud\alicloud\src\services\dev_bind\os/os.h ****  * @brief system reboot immediately.
 228:..\..\..\..\cloud\alicloud\src\services\dev_bind\os/os.h ****  *
 229:..\..\..\..\cloud\alicloud\src\services\dev_bind\os/os.h ****  * @return None.
 230:..\..\..\..\cloud\alicloud\src\services\dev_bind\os/os.h ****  * @see None.
 231:..\..\..\..\cloud\alicloud\src\services\dev_bind\os/os.h ****  * @note None.
 232:..\..\..\..\cloud\alicloud\src\services\dev_bind\os/os.h ****  */
 233:..\..\..\..\cloud\alicloud\src\services\dev_bind\os/os.h **** static inline void os_reboot()
 234:..\..\..\..\cloud\alicloud\src\services\dev_bind\os/os.h **** {
 235:..\..\..\..\cloud\alicloud\src\services\dev_bind\os/os.h ****     platform_reboot();
 236:..\..\..\..\cloud\alicloud\src\services\dev_bind\os/os.h **** }
 237:..\..\..\..\cloud\alicloud\src\services\dev_bind\os/os.h **** 
 238:..\..\..\..\cloud\alicloud\src\services\dev_bind\os/os.h **** /** @} *///end of os_misc
 239:..\..\..\..\cloud\alicloud\src\services\dev_bind\os/os.h **** 
 240:..\..\..\..\cloud\alicloud\src\services\dev_bind\os/os.h **** /***************************************** mutex Interface ****************************************
 241:..\..\..\..\cloud\alicloud\src\services\dev_bind\os/os.h **** 
 242:..\..\..\..\cloud\alicloud\src\services\dev_bind\os/os.h **** /** @defgroup group_os_mutex mutex
 243:..\..\..\..\cloud\alicloud\src\services\dev_bind\os/os.h ****  *  @{
 244:..\..\..\..\cloud\alicloud\src\services\dev_bind\os/os.h ****  */
 245:..\..\..\..\cloud\alicloud\src\services\dev_bind\os/os.h **** 
 246:..\..\..\..\cloud\alicloud\src\services\dev_bind\os/os.h **** /**
 247:..\..\..\..\cloud\alicloud\src\services\dev_bind\os/os.h ****  * @brief Create a mutex.
 248:..\..\..\..\cloud\alicloud\src\services\dev_bind\os/os.h ****  *
 249:..\..\..\..\cloud\alicloud\src\services\dev_bind\os/os.h ****  * @return Mutex handle.
 250:..\..\..\..\cloud\alicloud\src\services\dev_bind\os/os.h ****  * @see None.
 251:..\..\..\..\cloud\alicloud\src\services\dev_bind\os/os.h ****  * @note None.
 252:..\..\..\..\cloud\alicloud\src\services\dev_bind\os/os.h ****  */
 253:..\..\..\..\cloud\alicloud\src\services\dev_bind\os/os.h **** static inline void *os_mutex_init(void)
 254:..\..\..\..\cloud\alicloud\src\services\dev_bind\os/os.h **** {
 255:..\..\..\..\cloud\alicloud\src\services\dev_bind\os/os.h ****     return platform_mutex_init();
 256:..\..\..\..\cloud\alicloud\src\services\dev_bind\os/os.h **** }
 257:..\..\..\..\cloud\alicloud\src\services\dev_bind\os/os.h **** 
 258:..\..\..\..\cloud\alicloud\src\services\dev_bind\os/os.h **** /**
 259:..\..\..\..\cloud\alicloud\src\services\dev_bind\os/os.h ****  * @brief Destroy the specified mutex object, it will free related resource.
 260:..\..\..\..\cloud\alicloud\src\services\dev_bind\os/os.h ****  *
 261:..\..\..\..\cloud\alicloud\src\services\dev_bind\os/os.h ****  * @param[in] mutex @n The specified mutex.
 262:..\..\..\..\cloud\alicloud\src\services\dev_bind\os/os.h ****  * @return None.
 263:..\..\..\..\cloud\alicloud\src\services\dev_bind\os/os.h ****  * @see None.
 264:..\..\..\..\cloud\alicloud\src\services\dev_bind\os/os.h ****  * @note None.
 265:..\..\..\..\cloud\alicloud\src\services\dev_bind\os/os.h ****  */
 266:..\..\..\..\cloud\alicloud\src\services\dev_bind\os/os.h **** static inline void os_mutex_destroy(_IN_ void *mutex)
 267:..\..\..\..\cloud\alicloud\src\services\dev_bind\os/os.h **** {
 268:..\..\..\..\cloud\alicloud\src\services\dev_bind\os/os.h ****     platform_mutex_destroy(mutex);
 269:..\..\..\..\cloud\alicloud\src\services\dev_bind\os/os.h **** }
 270:..\..\..\..\cloud\alicloud\src\services\dev_bind\os/os.h **** 
 271:..\..\..\..\cloud\alicloud\src\services\dev_bind\os/os.h **** /**
 272:..\..\..\..\cloud\alicloud\src\services\dev_bind\os/os.h ****  * @brief Waits until the specified mutex is in the signaled state.
 273:..\..\..\..\cloud\alicloud\src\services\dev_bind\os/os.h ****  *
 274:..\..\..\..\cloud\alicloud\src\services\dev_bind\os/os.h ****  * @param[in] mutex @n the specified mutex.
 275:..\..\..\..\cloud\alicloud\src\services\dev_bind\os/os.h ****  * @return None.
 276:..\..\..\..\cloud\alicloud\src\services\dev_bind\os/os.h ****  * @see None.
 277:..\..\..\..\cloud\alicloud\src\services\dev_bind\os/os.h ****  * @note None.
 278:..\..\..\..\cloud\alicloud\src\services\dev_bind\os/os.h ****  */
 279:..\..\..\..\cloud\alicloud\src\services\dev_bind\os/os.h **** static inline void os_mutex_lock(_IN_ void *mutex)
 280:..\..\..\..\cloud\alicloud\src\services\dev_bind\os/os.h **** {
 281:..\..\..\..\cloud\alicloud\src\services\dev_bind\os/os.h ****     platform_mutex_lock(mutex);
 282:..\..\..\..\cloud\alicloud\src\services\dev_bind\os/os.h **** }
 283:..\..\..\..\cloud\alicloud\src\services\dev_bind\os/os.h **** 
 284:..\..\..\..\cloud\alicloud\src\services\dev_bind\os/os.h **** /**
 285:..\..\..\..\cloud\alicloud\src\services\dev_bind\os/os.h ****  * @brief Releases ownership of the specified mutex object..
 286:..\..\..\..\cloud\alicloud\src\services\dev_bind\os/os.h ****  *
 287:..\..\..\..\cloud\alicloud\src\services\dev_bind\os/os.h ****  * @param[in] mutex @n the specified mutex.
 288:..\..\..\..\cloud\alicloud\src\services\dev_bind\os/os.h ****  * @return None.
 289:..\..\..\..\cloud\alicloud\src\services\dev_bind\os/os.h ****  * @see None.
 290:..\..\..\..\cloud\alicloud\src\services\dev_bind\os/os.h ****  * @note None.
 291:..\..\..\..\cloud\alicloud\src\services\dev_bind\os/os.h ****  */
 292:..\..\..\..\cloud\alicloud\src\services\dev_bind\os/os.h **** static inline void os_mutex_unlock(_IN_ void *mutex)
 293:..\..\..\..\cloud\alicloud\src\services\dev_bind\os/os.h **** {
 294:..\..\..\..\cloud\alicloud\src\services\dev_bind\os/os.h ****     platform_mutex_unlock(mutex);
 295:..\..\..\..\cloud\alicloud\src\services\dev_bind\os/os.h **** }
 296:..\..\..\..\cloud\alicloud\src\services\dev_bind\os/os.h **** 
 297:..\..\..\..\cloud\alicloud\src\services\dev_bind\os/os.h **** /** @} */// end of os_mutex
 298:..\..\..\..\cloud\alicloud\src\services\dev_bind\os/os.h **** 
 299:..\..\..\..\cloud\alicloud\src\services\dev_bind\os/os.h **** /*************************************** semaphore Interface **************************************
 300:..\..\..\..\cloud\alicloud\src\services\dev_bind\os/os.h **** 
 301:..\..\..\..\cloud\alicloud\src\services\dev_bind\os/os.h **** /** @defgroup group_os_semaphore semaphore
 302:..\..\..\..\cloud\alicloud\src\services\dev_bind\os/os.h ****  *  @{
 303:..\..\..\..\cloud\alicloud\src\services\dev_bind\os/os.h ****  */
 304:..\..\..\..\cloud\alicloud\src\services\dev_bind\os/os.h **** 
 305:..\..\..\..\cloud\alicloud\src\services\dev_bind\os/os.h **** /**
 306:..\..\..\..\cloud\alicloud\src\services\dev_bind\os/os.h ****  * @brief Create a semaphore.
 307:..\..\..\..\cloud\alicloud\src\services\dev_bind\os/os.h ****  *
 308:..\..\..\..\cloud\alicloud\src\services\dev_bind\os/os.h ****  * @return semaphore handle.
 309:..\..\..\..\cloud\alicloud\src\services\dev_bind\os/os.h ****  * @see None.
 310:..\..\..\..\cloud\alicloud\src\services\dev_bind\os/os.h ****  * @note The recommended value of maximum count of the semaphore is 255.
 311:..\..\..\..\cloud\alicloud\src\services\dev_bind\os/os.h ****  */
 312:..\..\..\..\cloud\alicloud\src\services\dev_bind\os/os.h **** static inline void *os_semaphore_init(void)
 313:..\..\..\..\cloud\alicloud\src\services\dev_bind\os/os.h **** {
 314:..\..\..\..\cloud\alicloud\src\services\dev_bind\os/os.h ****     return platform_semaphore_init();
 315:..\..\..\..\cloud\alicloud\src\services\dev_bind\os/os.h **** }
 316:..\..\..\..\cloud\alicloud\src\services\dev_bind\os/os.h **** 
 317:..\..\..\..\cloud\alicloud\src\services\dev_bind\os/os.h **** /**
 318:..\..\..\..\cloud\alicloud\src\services\dev_bind\os/os.h ****  * @brief Destroy the specified semaphore object, it will free related resource.
 319:..\..\..\..\cloud\alicloud\src\services\dev_bind\os/os.h ****  *
 320:..\..\..\..\cloud\alicloud\src\services\dev_bind\os/os.h ****  * @param[in] sem @n the specified sem.
 321:..\..\..\..\cloud\alicloud\src\services\dev_bind\os/os.h ****  * @return None.
 322:..\..\..\..\cloud\alicloud\src\services\dev_bind\os/os.h ****  * @see None.
 323:..\..\..\..\cloud\alicloud\src\services\dev_bind\os/os.h ****  * @note None.
 324:..\..\..\..\cloud\alicloud\src\services\dev_bind\os/os.h ****  */
 325:..\..\..\..\cloud\alicloud\src\services\dev_bind\os/os.h **** static inline void os_semaphore_destroy(_IN_ void *sem)
 326:..\..\..\..\cloud\alicloud\src\services\dev_bind\os/os.h **** {
 327:..\..\..\..\cloud\alicloud\src\services\dev_bind\os/os.h ****     platform_semaphore_destroy(sem);
 328:..\..\..\..\cloud\alicloud\src\services\dev_bind\os/os.h **** }
 329:..\..\..\..\cloud\alicloud\src\services\dev_bind\os/os.h **** 
 330:..\..\..\..\cloud\alicloud\src\services\dev_bind\os/os.h **** /**
 331:..\..\..\..\cloud\alicloud\src\services\dev_bind\os/os.h ****  * @brief Wait until the specified mutex is in the signaled state or the time-out interval elapses.
 332:..\..\..\..\cloud\alicloud\src\services\dev_bind\os/os.h ****  *
 333:..\..\..\..\cloud\alicloud\src\services\dev_bind\os/os.h ****  * @param[in] sem @n the specified semaphore.
 334:..\..\..\..\cloud\alicloud\src\services\dev_bind\os/os.h ****  * @param[in] timeout_ms @n timeout interval in millisecond.
 335:..\..\..\..\cloud\alicloud\src\services\dev_bind\os/os.h ****      If timeout_ms is OS_WAIT_INFINITE, the function will return only when the semaphore is signale
 336:..\..\..\..\cloud\alicloud\src\services\dev_bind\os/os.h ****  * @return
 337:..\..\..\..\cloud\alicloud\src\services\dev_bind\os/os.h ****    @verbatim
 338:..\..\..\..\cloud\alicloud\src\services\dev_bind\os/os.h ****    =  0: The state of the specified object is signaled.
 339:..\..\..\..\cloud\alicloud\src\services\dev_bind\os/os.h ****    =  -1: The time-out interval elapsed, and the object's state is nonsignaled.
 340:..\..\..\..\cloud\alicloud\src\services\dev_bind\os/os.h ****    @endverbatim
 341:..\..\..\..\cloud\alicloud\src\services\dev_bind\os/os.h ****  * @see None.
 342:..\..\..\..\cloud\alicloud\src\services\dev_bind\os/os.h ****  * @note None.
 343:..\..\..\..\cloud\alicloud\src\services\dev_bind\os/os.h ****  */
 344:..\..\..\..\cloud\alicloud\src\services\dev_bind\os/os.h **** static inline int os_semaphore_wait(_IN_ void *sem, _IN_ uint32_t timeout_ms)
 345:..\..\..\..\cloud\alicloud\src\services\dev_bind\os/os.h **** {
 346:..\..\..\..\cloud\alicloud\src\services\dev_bind\os/os.h ****     return platform_semaphore_wait(sem, timeout_ms);
 347:..\..\..\..\cloud\alicloud\src\services\dev_bind\os/os.h **** }
 348:..\..\..\..\cloud\alicloud\src\services\dev_bind\os/os.h **** 
 349:..\..\..\..\cloud\alicloud\src\services\dev_bind\os/os.h **** /**
 350:..\..\..\..\cloud\alicloud\src\services\dev_bind\os/os.h ****  * @brief Increases the count of the specified semaphore object by 1.
 351:..\..\..\..\cloud\alicloud\src\services\dev_bind\os/os.h ****  *
 352:..\..\..\..\cloud\alicloud\src\services\dev_bind\os/os.h ****  * @param[in] sem @n the specified semaphore.
 353:..\..\..\..\cloud\alicloud\src\services\dev_bind\os/os.h ****  * @return None.
 354:..\..\..\..\cloud\alicloud\src\services\dev_bind\os/os.h ****  * @see None.
 355:..\..\..\..\cloud\alicloud\src\services\dev_bind\os/os.h ****  * @note None.
 356:..\..\..\..\cloud\alicloud\src\services\dev_bind\os/os.h ****  */
 357:..\..\..\..\cloud\alicloud\src\services\dev_bind\os/os.h **** static inline void os_semaphore_post(_IN_ void *sem)
 358:..\..\..\..\cloud\alicloud\src\services\dev_bind\os/os.h **** {
 359:..\..\..\..\cloud\alicloud\src\services\dev_bind\os/os.h ****     platform_semaphore_post(sem);
 360:..\..\..\..\cloud\alicloud\src\services\dev_bind\os/os.h **** }
 361:..\..\..\..\cloud\alicloud\src\services\dev_bind\os/os.h **** 
 362:..\..\..\..\cloud\alicloud\src\services\dev_bind\os/os.h **** /** @} */// end of os_semaphore
 363:..\..\..\..\cloud\alicloud\src\services\dev_bind\os/os.h **** 
 364:..\..\..\..\cloud\alicloud\src\services\dev_bind\os/os.h **** /**************************************** memory Interface ****************************************
 365:..\..\..\..\cloud\alicloud\src\services\dev_bind\os/os.h **** 
 366:..\..\..\..\cloud\alicloud\src\services\dev_bind\os/os.h **** /** @defgroup group_os_memory_manage memory
 367:..\..\..\..\cloud\alicloud\src\services\dev_bind\os/os.h ****  *  @{
 368:..\..\..\..\cloud\alicloud\src\services\dev_bind\os/os.h ****  */
 369:..\..\..\..\cloud\alicloud\src\services\dev_bind\os/os.h **** 
 370:..\..\..\..\cloud\alicloud\src\services\dev_bind\os/os.h **** /**
 371:..\..\..\..\cloud\alicloud\src\services\dev_bind\os/os.h ****  * @brief Allocates a block of size bytes of memory, returning a pointer to the beginning of the bl
 372:..\..\..\..\cloud\alicloud\src\services\dev_bind\os/os.h ****  *
 373:..\..\..\..\cloud\alicloud\src\services\dev_bind\os/os.h ****  * @param[in] size @n specify block size in bytes.
 374:..\..\..\..\cloud\alicloud\src\services\dev_bind\os/os.h ****  * @return A pointer to the beginning of the block.
 375:..\..\..\..\cloud\alicloud\src\services\dev_bind\os/os.h ****  * @see None.
 376:..\..\..\..\cloud\alicloud\src\services\dev_bind\os/os.h ****  * @note Block value is indeterminate.
 377:..\..\..\..\cloud\alicloud\src\services\dev_bind\os/os.h ****  */
 378:..\..\..\..\cloud\alicloud\src\services\dev_bind\os/os.h **** static inline void *os_malloc(_IN_ uint32_t size)
 379:..\..\..\..\cloud\alicloud\src\services\dev_bind\os/os.h **** {
 380:..\..\..\..\cloud\alicloud\src\services\dev_bind\os/os.h ****     return platform_malloc(size);
 381:..\..\..\..\cloud\alicloud\src\services\dev_bind\os/os.h **** }
 382:..\..\..\..\cloud\alicloud\src\services\dev_bind\os/os.h **** 
 383:..\..\..\..\cloud\alicloud\src\services\dev_bind\os/os.h **** 
 384:..\..\..\..\cloud\alicloud\src\services\dev_bind\os/os.h **** /**
 385:..\..\..\..\cloud\alicloud\src\services\dev_bind\os/os.h ****  * @brief Deallocate memory block
 386:..\..\..\..\cloud\alicloud\src\services\dev_bind\os/os.h ****  *
 387:..\..\..\..\cloud\alicloud\src\services\dev_bind\os/os.h ****  * @param[in] ptr @n Pointer to a memory block previously allocated with platform_malloc.
 388:..\..\..\..\cloud\alicloud\src\services\dev_bind\os/os.h ****  * @return None.
 389:..\..\..\..\cloud\alicloud\src\services\dev_bind\os/os.h ****  * @see None.
 390:..\..\..\..\cloud\alicloud\src\services\dev_bind\os/os.h ****  * @note None.
 391:..\..\..\..\cloud\alicloud\src\services\dev_bind\os/os.h ****  */
 392:..\..\..\..\cloud\alicloud\src\services\dev_bind\os/os.h **** static inline void os_free(_IN_ void *ptr)
 393:..\..\..\..\cloud\alicloud\src\services\dev_bind\os/os.h **** {
 394:..\..\..\..\cloud\alicloud\src\services\dev_bind\os/os.h ****     platform_free(ptr);
 395:..\..\..\..\cloud\alicloud\src\services\dev_bind\os/os.h **** }
 396:..\..\..\..\cloud\alicloud\src\services\dev_bind\os/os.h **** 
 397:..\..\..\..\cloud\alicloud\src\services\dev_bind\os/os.h **** /**
 398:..\..\..\..\cloud\alicloud\src\services\dev_bind\os/os.h ****  * @brief Allocates a memory block with memory initialized to 0,
 399:..\..\..\..\cloud\alicloud\src\services\dev_bind\os/os.h ****      returning a pointer to the beginning of the block.
 400:..\..\..\..\cloud\alicloud\src\services\dev_bind\os/os.h ****  *
 401:..\..\..\..\cloud\alicloud\src\services\dev_bind\os/os.h ****  * @param[in] size @n specify block size in bytes.
 402:..\..\..\..\cloud\alicloud\src\services\dev_bind\os/os.h ****  * @return A pointer to the beginning of the block.
 403:..\..\..\..\cloud\alicloud\src\services\dev_bind\os/os.h ****  * @see None.
 404:..\..\..\..\cloud\alicloud\src\services\dev_bind\os/os.h ****  * @note Block value is indeterminate.
 405:..\..\..\..\cloud\alicloud\src\services\dev_bind\os/os.h ****  */
 406:..\..\..\..\cloud\alicloud\src\services\dev_bind\os/os.h **** static inline void *os_zalloc(uint32_t size)
 407:..\..\..\..\cloud\alicloud\src\services\dev_bind\os/os.h **** {
 408:..\..\..\..\cloud\alicloud\src\services\dev_bind\os/os.h ****     void *ptr = os_malloc(size);
 409:..\..\..\..\cloud\alicloud\src\services\dev_bind\os/os.h ****     if (ptr != NULL) {
 410:..\..\..\..\cloud\alicloud\src\services\dev_bind\os/os.h ****         memset(ptr, 0, size);
 411:..\..\..\..\cloud\alicloud\src\services\dev_bind\os/os.h ****     }
 412:..\..\..\..\cloud\alicloud\src\services\dev_bind\os/os.h ****     return ptr;
 413:..\..\..\..\cloud\alicloud\src\services\dev_bind\os/os.h **** }
 414:..\..\..\..\cloud\alicloud\src\services\dev_bind\os/os.h **** 
 415:..\..\..\..\cloud\alicloud\src\services\dev_bind\os/os.h **** /** @} */// end of os_memory_manage
 416:..\..\..\..\cloud\alicloud\src\services\dev_bind\os/os.h **** 
 417:..\..\..\..\cloud\alicloud\src\services\dev_bind\os/os.h **** /**************************************** system Interface ****************************************
 418:..\..\..\..\cloud\alicloud\src\services\dev_bind\os/os.h **** 
 419:..\..\..\..\cloud\alicloud\src\services\dev_bind\os/os.h **** /** @defgroup group_os_system system
 420:..\..\..\..\cloud\alicloud\src\services\dev_bind\os/os.h ****  *  @{
 421:..\..\..\..\cloud\alicloud\src\services\dev_bind\os/os.h ****  */
 422:..\..\..\..\cloud\alicloud\src\services\dev_bind\os/os.h **** 
 423:..\..\..\..\cloud\alicloud\src\services\dev_bind\os/os.h **** /**
 424:..\..\..\..\cloud\alicloud\src\services\dev_bind\os/os.h ****  * @brief check system network is ready(get ip address) or not.
 425:..\..\..\..\cloud\alicloud\src\services\dev_bind\os/os.h ****  *
 426:..\..\..\..\cloud\alicloud\src\services\dev_bind\os/os.h ****  * @param None.
 427:..\..\..\..\cloud\alicloud\src\services\dev_bind\os/os.h ****  * @return 0, net is not ready; 1, net is ready.
 428:..\..\..\..\cloud\alicloud\src\services\dev_bind\os/os.h ****  * @see None.
 429:..\..\..\..\cloud\alicloud\src\services\dev_bind\os/os.h ****  * @note None.
 430:..\..\..\..\cloud\alicloud\src\services\dev_bind\os/os.h ****  */
 431:..\..\..\..\cloud\alicloud\src\services\dev_bind\os/os.h **** static inline int os_sys_net_is_ready(void)
 432:..\..\..\..\cloud\alicloud\src\services\dev_bind\os/os.h **** {
 433:..\..\..\..\cloud\alicloud\src\services\dev_bind\os/os.h ****     return platform_sys_net_is_ready();
 434:..\..\..\..\cloud\alicloud\src\services\dev_bind\os/os.h **** }
 435:..\..\..\..\cloud\alicloud\src\services\dev_bind\os/os.h **** 
 436:..\..\..\..\cloud\alicloud\src\services\dev_bind\os/os.h **** /**
 437:..\..\..\..\cloud\alicloud\src\services\dev_bind\os/os.h ****  * @brief Retrieves the number of milliseconds that have elapsed since the system was boot.
 438:..\..\..\..\cloud\alicloud\src\services\dev_bind\os/os.h ****  *
 439:..\..\..\..\cloud\alicloud\src\services\dev_bind\os/os.h ****  * @param None.
 440:..\..\..\..\cloud\alicloud\src\services\dev_bind\os/os.h ****  * @return the number of milliseconds.
 441:..\..\..\..\cloud\alicloud\src\services\dev_bind\os/os.h ****  * @see None.
 442:..\..\..\..\cloud\alicloud\src\services\dev_bind\os/os.h ****  * @note Add a big offset, for easier caught time overflow bug.
 443:..\..\..\..\cloud\alicloud\src\services\dev_bind\os/os.h ****  */
 444:..\..\..\..\cloud\alicloud\src\services\dev_bind\os/os.h **** static inline uint32_t os_get_time_ms(void)
 445:..\..\..\..\cloud\alicloud\src\services\dev_bind\os/os.h **** {
  15              		.loc 1 445 1
  16              		.cfi_startproc
  17 0000 17030000 		call	t0,__riscv_save_1
  17      E7020300 
  18              		.cfi_offset 8, -8
  19              		.cfi_offset 1, -4
  20              		.cfi_def_cfa_offset 16
 446:..\..\..\..\cloud\alicloud\src\services\dev_bind\os/os.h ****     static uint32_t fixed_delta;
  21              		.loc 1 446 5
 447:..\..\..\..\cloud\alicloud\src\services\dev_bind\os/os.h **** 
 448:..\..\..\..\cloud\alicloud\src\services\dev_bind\os/os.h ****     if (!fixed_delta) {
  22              		.loc 1 448 5
  23              		.loc 1 448 9 is_stmt 0
  24 0008 37040000 		lui	s0,%hi(.LANCHOR0)
  25              		.loc 1 448 8
  26 000c 83270400 		lw	a5,%lo(.LANCHOR0)(s0)
  27 0010 13040400 		addi	s0,s0,%lo(.LANCHOR0)
  28 0014 81EB     		bne	a5,zero,.L2
 449:..\..\..\..\cloud\alicloud\src\services\dev_bind\os/os.h ****         fixed_delta = platform_get_time_ms() - 0xFFFF0000;
  29              		.loc 1 449 9 is_stmt 1
  30              		.loc 1 449 23 is_stmt 0
  31 0016 97000000 		call	HAL_UptimeMs
  31      E7800000 
  32              	.LVL0:
  33              		.loc 1 449 46
  34 001e C167     		li	a5,65536
  35 0020 AA97     		add	a5,a5,a0
  36              		.loc 1 449 21
  37 0022 1CC0     		sw	a5,0(s0)
  38              	.L2:
 450:..\..\..\..\cloud\alicloud\src\services\dev_bind\os/os.h ****     }
 451:..\..\..\..\cloud\alicloud\src\services\dev_bind\os/os.h **** 
 452:..\..\..\..\cloud\alicloud\src\services\dev_bind\os/os.h ****     /* add a big offset, for easier caught time overflow bug */
 453:..\..\..\..\cloud\alicloud\src\services\dev_bind\os/os.h ****     return platform_get_time_ms() - fixed_delta;
  39              		.loc 1 453 5 is_stmt 1
  40              		.loc 1 453 12 is_stmt 0
  41 0024 97000000 		call	HAL_UptimeMs
  41      E7800000 
  42              	.LVL1:
  43              		.loc 1 453 35
  44 002c 1C40     		lw	a5,0(s0)
 454:..\..\..\..\cloud\alicloud\src\services\dev_bind\os/os.h **** }
  45              		.loc 1 454 1
  46 002e 1D8D     		sub	a0,a0,a5
  47 0030 17030000 		tail	__riscv_restore_1
  47      67000300 
  48              		.cfi_restore 8
  49              		.cfi_restore 1
  50              		.cfi_def_cfa_offset 0
  51              		.cfi_endproc
  52              	.LFE20:
  54              		.section	.rodata.awss_report_token_to_cloud.str1.4,"aMS",@progbits,1
  55              		.align	2
  56              	.LC0:
  57 0000 62696E64 		.string	"bind token already report success"
  57      20746F6B 
  57      656E2061 
  57      6C726561 
  57      64792072 
  58 0022 0000     		.align	2
  59              	.LC1:
  60 0024 5B696E66 		.string	"[inf] "
  60      5D2000
  61 002b 00       		.align	2
  62              	.LC2:
  63 002c 74727920 		.string	"try %d times fail"
  63      25642074 
  63      696D6573 
  63      20666169 
  63      6C00
  64 003e 0000     		.align	2
  65              	.LC3:
  66 0040 0D0A00   		.string	"\r\n"
  67 0043 00       		.align	2
  68              	.LC4:
  69 0044 7265706F 		.string	"report token timeout"
  69      72742074 
  69      6F6B656E 
  69      2074696D 
  69      656F7574 
  70 0059 000000   		.align	2
  71              	.LC5:
  72 005c 72705F74 		.string	"rp_token"
  72      6F6B656E 
  72      00
  73 0065 000000   		.align	2
  74              	.LC6:
  75 0068 22257522 		.string	"\"%u\""
  75      00
  76 006d 000000   		.align	2
  77              	.LC7:
  78 0070 7B22746F 		.string	"{\"token\":\"%s\"}"
  78      6B656E22 
  78      3A222573 
  78      227D00
  79 007f 00       		.align	2
  80              	.LC8:
  81 0080 7468696E 		.string	"thing.awss.enrollee.match"
  81      672E6177 
  81      73732E65 
  81      6E726F6C 
  81      6C65652E 
  82 009a 0000     		.align	2
  83              	.LC9:
  84 009c 312E3000 		.string	"1.0"
  85              		.align	2
  86              	.LC10:
  87 00a0 7265706F 		.string	"report token:%s to cloud"
  87      72742074 
  87      6F6B656E 
  87      3A257320 
  87      746F2063 
  88 00b9 000000   		.align	2
  89              	.LC11:
  90 00bc 7265706F 		.string	"report token:%s\r\n"
  90      72742074 
  90      6F6B656E 
  90      3A25730D 
  90      0A00
  91 00ce 0000     		.align	2
  92              	.LC12:
  93 00d0 61777373 		.string	"awss"
  93      00
  94 00d5 000000   		.align	2
  95              	.LC13:
  96 00d8 2F737973 		.string	"/sys/%s/%s/thing/awss/enrollee/match"
  96      2F25732F 
  96      25732F74 
  96      68696E67 
  96      2F617773 
  97 00fd 000000   		.align	2
  98              	.LC14:
  99 0100 7265706F 		.string	"report token res:%d\r\n"
  99      72742074 
  99      6F6B656E 
  99      20726573 
  99      3A25640D 
 100 0116 0000     		.align	2
 101              	.LC15:
 102 0118 7265706F 		.string	"report token fail, reason(%d)"
 102      72742074 
 102      6F6B656E 
 102      20666169 
 102      6C2C2072 
 103 0136 0000     		.align	2
 104              	.LC16:
 105 0138 5B657272 		.string	"[err] "
 105      5D2000
 106 013f 00       		.align	2
 107              	.LC17:
 108 0140 616C6C6F 		.string	"alloc mem(%d) failed"
 108      63206D65 
 108      6D282564 
 108      29206661 
 108      696C6564 
 109              		.section	.text.awss_report_token_to_cloud,"ax",@progbits
 110              		.align	1
 112              	awss_report_token_to_cloud:
 113              	.LFB71:
 114              		.file 2 "C:/Users/stapi/OneDrive/Desktop/GD32VW553/V1_MQTT_OK/GD32VW55X_Wifi_BLE_SDK/GD32VW55x_REL
   1:C:/Users/stapi/OneDrive/Desktop/GD32VW553/V1_MQTT_OK/GD32VW55X_Wifi_BLE_SDK/GD32VW55x_RELEASE_V1.0.2/MSDK/cloud/alicloud/src/services/dev_bind\awss_report.c **** /*
   2:C:/Users/stapi/OneDrive/Desktop/GD32VW553/V1_MQTT_OK/GD32VW55X_Wifi_BLE_SDK/GD32VW55x_RELEASE_V1.0.2/MSDK/cloud/alicloud/src/services/dev_bind\awss_report.c ****  * Copyright (C) 2015-2018 Alibaba Group Holding Limited
   3:C:/Users/stapi/OneDrive/Desktop/GD32VW553/V1_MQTT_OK/GD32VW55X_Wifi_BLE_SDK/GD32VW55x_RELEASE_V1.0.2/MSDK/cloud/alicloud/src/services/dev_bind\awss_report.c ****  */
   4:C:/Users/stapi/OneDrive/Desktop/GD32VW553/V1_MQTT_OK/GD32VW55X_Wifi_BLE_SDK/GD32VW55x_RELEASE_V1.0.2/MSDK/cloud/alicloud/src/services/dev_bind\awss_report.c **** #include <stdint.h>
   5:C:/Users/stapi/OneDrive/Desktop/GD32VW553/V1_MQTT_OK/GD32VW55X_Wifi_BLE_SDK/GD32VW55x_RELEASE_V1.0.2/MSDK/cloud/alicloud/src/services/dev_bind\awss_report.c **** #include "json_parser.h"
   6:C:/Users/stapi/OneDrive/Desktop/GD32VW553/V1_MQTT_OK/GD32VW55X_Wifi_BLE_SDK/GD32VW55x_RELEASE_V1.0.2/MSDK/cloud/alicloud/src/services/dev_bind\awss_report.c **** #include "awss_cmp.h"
   7:C:/Users/stapi/OneDrive/Desktop/GD32VW553/V1_MQTT_OK/GD32VW55X_Wifi_BLE_SDK/GD32VW55x_RELEASE_V1.0.2/MSDK/cloud/alicloud/src/services/dev_bind\awss_report.c **** #include "awss_timer.h"
   8:C:/Users/stapi/OneDrive/Desktop/GD32VW553/V1_MQTT_OK/GD32VW55X_Wifi_BLE_SDK/GD32VW55x_RELEASE_V1.0.2/MSDK/cloud/alicloud/src/services/dev_bind\awss_report.c **** #include "awss_packet.h"
   9:C:/Users/stapi/OneDrive/Desktop/GD32VW553/V1_MQTT_OK/GD32VW55X_Wifi_BLE_SDK/GD32VW55x_RELEASE_V1.0.2/MSDK/cloud/alicloud/src/services/dev_bind\awss_report.c **** #include "awss_bind_statis.h"
  10:C:/Users/stapi/OneDrive/Desktop/GD32VW553/V1_MQTT_OK/GD32VW55X_Wifi_BLE_SDK/GD32VW55x_RELEASE_V1.0.2/MSDK/cloud/alicloud/src/services/dev_bind\awss_report.c **** #include "iot_export_event.h"
  11:C:/Users/stapi/OneDrive/Desktop/GD32VW553/V1_MQTT_OK/GD32VW55X_Wifi_BLE_SDK/GD32VW55x_RELEASE_V1.0.2/MSDK/cloud/alicloud/src/services/dev_bind\awss_report.c **** #include "awss_utils.h"
  12:C:/Users/stapi/OneDrive/Desktop/GD32VW553/V1_MQTT_OK/GD32VW55X_Wifi_BLE_SDK/GD32VW55x_RELEASE_V1.0.2/MSDK/cloud/alicloud/src/services/dev_bind\awss_report.c **** #include "awss_log.h"
  13:C:/Users/stapi/OneDrive/Desktop/GD32VW553/V1_MQTT_OK/GD32VW55X_Wifi_BLE_SDK/GD32VW55x_RELEASE_V1.0.2/MSDK/cloud/alicloud/src/services/dev_bind\awss_report.c **** #include "passwd.h"
  14:C:/Users/stapi/OneDrive/Desktop/GD32VW553/V1_MQTT_OK/GD32VW55X_Wifi_BLE_SDK/GD32VW55x_RELEASE_V1.0.2/MSDK/cloud/alicloud/src/services/dev_bind\awss_report.c **** #include "os.h"
  15:C:/Users/stapi/OneDrive/Desktop/GD32VW553/V1_MQTT_OK/GD32VW55X_Wifi_BLE_SDK/GD32VW55x_RELEASE_V1.0.2/MSDK/cloud/alicloud/src/services/dev_bind\awss_report.c **** 
  16:C:/Users/stapi/OneDrive/Desktop/GD32VW553/V1_MQTT_OK/GD32VW55X_Wifi_BLE_SDK/GD32VW55x_RELEASE_V1.0.2/MSDK/cloud/alicloud/src/services/dev_bind\awss_report.c **** #if defined(__cplusplus)  /* If this is a C++ compiler, use C linkage */
  17:C:/Users/stapi/OneDrive/Desktop/GD32VW553/V1_MQTT_OK/GD32VW55X_Wifi_BLE_SDK/GD32VW55x_RELEASE_V1.0.2/MSDK/cloud/alicloud/src/services/dev_bind\awss_report.c **** extern "C" {
  18:C:/Users/stapi/OneDrive/Desktop/GD32VW553/V1_MQTT_OK/GD32VW55X_Wifi_BLE_SDK/GD32VW55x_RELEASE_V1.0.2/MSDK/cloud/alicloud/src/services/dev_bind\awss_report.c **** #endif
  19:C:/Users/stapi/OneDrive/Desktop/GD32VW553/V1_MQTT_OK/GD32VW55X_Wifi_BLE_SDK/GD32VW55x_RELEASE_V1.0.2/MSDK/cloud/alicloud/src/services/dev_bind\awss_report.c **** 
  20:C:/Users/stapi/OneDrive/Desktop/GD32VW553/V1_MQTT_OK/GD32VW55X_Wifi_BLE_SDK/GD32VW55x_RELEASE_V1.0.2/MSDK/cloud/alicloud/src/services/dev_bind\awss_report.c **** #define AWSS_REPORT_LEN_MAX       (256)
  21:C:/Users/stapi/OneDrive/Desktop/GD32VW553/V1_MQTT_OK/GD32VW55X_Wifi_BLE_SDK/GD32VW55x_RELEASE_V1.0.2/MSDK/cloud/alicloud/src/services/dev_bind\awss_report.c **** #define AWSS_TOKEN_TIMEOUT_MS     (120 * 1000)
  22:C:/Users/stapi/OneDrive/Desktop/GD32VW553/V1_MQTT_OK/GD32VW55X_Wifi_BLE_SDK/GD32VW55x_RELEASE_V1.0.2/MSDK/cloud/alicloud/src/services/dev_bind\awss_report.c **** #define MATCH_MONITOR_TIMEOUT_MS  (10 * 1000)
  23:C:/Users/stapi/OneDrive/Desktop/GD32VW553/V1_MQTT_OK/GD32VW55X_Wifi_BLE_SDK/GD32VW55x_RELEASE_V1.0.2/MSDK/cloud/alicloud/src/services/dev_bind\awss_report.c **** #define MATCH_REPORT_CNT_MAX      (2)
  24:C:/Users/stapi/OneDrive/Desktop/GD32VW553/V1_MQTT_OK/GD32VW55X_Wifi_BLE_SDK/GD32VW55x_RELEASE_V1.0.2/MSDK/cloud/alicloud/src/services/dev_bind\awss_report.c **** 
  25:C:/Users/stapi/OneDrive/Desktop/GD32VW553/V1_MQTT_OK/GD32VW55X_Wifi_BLE_SDK/GD32VW55x_RELEASE_V1.0.2/MSDK/cloud/alicloud/src/services/dev_bind\awss_report.c **** volatile char awss_report_token_suc = 0;
  26:C:/Users/stapi/OneDrive/Desktop/GD32VW553/V1_MQTT_OK/GD32VW55X_Wifi_BLE_SDK/GD32VW55x_RELEASE_V1.0.2/MSDK/cloud/alicloud/src/services/dev_bind\awss_report.c **** volatile char awss_report_token_cnt = 0;
  27:C:/Users/stapi/OneDrive/Desktop/GD32VW553/V1_MQTT_OK/GD32VW55X_Wifi_BLE_SDK/GD32VW55x_RELEASE_V1.0.2/MSDK/cloud/alicloud/src/services/dev_bind\awss_report.c **** static char awss_report_id = 0;
  28:C:/Users/stapi/OneDrive/Desktop/GD32VW553/V1_MQTT_OK/GD32VW55X_Wifi_BLE_SDK/GD32VW55x_RELEASE_V1.0.2/MSDK/cloud/alicloud/src/services/dev_bind\awss_report.c **** #ifdef WIFI_PROVISION_ENABLED
  29:C:/Users/stapi/OneDrive/Desktop/GD32VW553/V1_MQTT_OK/GD32VW55X_Wifi_BLE_SDK/GD32VW55x_RELEASE_V1.0.2/MSDK/cloud/alicloud/src/services/dev_bind\awss_report.c **** static char switchap_ssid[OS_MAX_SSID_LEN] = {0};
  30:C:/Users/stapi/OneDrive/Desktop/GD32VW553/V1_MQTT_OK/GD32VW55X_Wifi_BLE_SDK/GD32VW55x_RELEASE_V1.0.2/MSDK/cloud/alicloud/src/services/dev_bind\awss_report.c **** static char switchap_passwd[OS_MAX_PASSWD_LEN] = {0};
  31:C:/Users/stapi/OneDrive/Desktop/GD32VW553/V1_MQTT_OK/GD32VW55X_Wifi_BLE_SDK/GD32VW55x_RELEASE_V1.0.2/MSDK/cloud/alicloud/src/services/dev_bind\awss_report.c **** static uint8_t switchap_bssid[ETH_ALEN] = {0};
  32:C:/Users/stapi/OneDrive/Desktop/GD32VW553/V1_MQTT_OK/GD32VW55X_Wifi_BLE_SDK/GD32VW55x_RELEASE_V1.0.2/MSDK/cloud/alicloud/src/services/dev_bind\awss_report.c **** static void *switchap_timer = NULL;
  33:C:/Users/stapi/OneDrive/Desktop/GD32VW553/V1_MQTT_OK/GD32VW55X_Wifi_BLE_SDK/GD32VW55x_RELEASE_V1.0.2/MSDK/cloud/alicloud/src/services/dev_bind\awss_report.c **** #endif
  34:C:/Users/stapi/OneDrive/Desktop/GD32VW553/V1_MQTT_OK/GD32VW55X_Wifi_BLE_SDK/GD32VW55x_RELEASE_V1.0.2/MSDK/cloud/alicloud/src/services/dev_bind\awss_report.c **** 
  35:C:/Users/stapi/OneDrive/Desktop/GD32VW553/V1_MQTT_OK/GD32VW55X_Wifi_BLE_SDK/GD32VW55x_RELEASE_V1.0.2/MSDK/cloud/alicloud/src/services/dev_bind\awss_report.c **** static uint32_t awss_report_token_time = 0;
  36:C:/Users/stapi/OneDrive/Desktop/GD32VW553/V1_MQTT_OK/GD32VW55X_Wifi_BLE_SDK/GD32VW55x_RELEASE_V1.0.2/MSDK/cloud/alicloud/src/services/dev_bind\awss_report.c **** static void *report_token_timer = NULL;
  37:C:/Users/stapi/OneDrive/Desktop/GD32VW553/V1_MQTT_OK/GD32VW55X_Wifi_BLE_SDK/GD32VW55x_RELEASE_V1.0.2/MSDK/cloud/alicloud/src/services/dev_bind\awss_report.c **** 
  38:C:/Users/stapi/OneDrive/Desktop/GD32VW553/V1_MQTT_OK/GD32VW55X_Wifi_BLE_SDK/GD32VW55x_RELEASE_V1.0.2/MSDK/cloud/alicloud/src/services/dev_bind\awss_report.c **** static int awss_report_token_to_cloud();
  39:C:/Users/stapi/OneDrive/Desktop/GD32VW553/V1_MQTT_OK/GD32VW55X_Wifi_BLE_SDK/GD32VW55x_RELEASE_V1.0.2/MSDK/cloud/alicloud/src/services/dev_bind\awss_report.c **** #ifdef WIFI_PROVISION_ENABLED
  40:C:/Users/stapi/OneDrive/Desktop/GD32VW553/V1_MQTT_OK/GD32VW55X_Wifi_BLE_SDK/GD32VW55x_RELEASE_V1.0.2/MSDK/cloud/alicloud/src/services/dev_bind\awss_report.c **** static int awss_switch_ap_online();
  41:C:/Users/stapi/OneDrive/Desktop/GD32VW553/V1_MQTT_OK/GD32VW55X_Wifi_BLE_SDK/GD32VW55x_RELEASE_V1.0.2/MSDK/cloud/alicloud/src/services/dev_bind\awss_report.c **** static int awss_reboot_system();
  42:C:/Users/stapi/OneDrive/Desktop/GD32VW553/V1_MQTT_OK/GD32VW55X_Wifi_BLE_SDK/GD32VW55x_RELEASE_V1.0.2/MSDK/cloud/alicloud/src/services/dev_bind\awss_report.c **** #endif
  43:C:/Users/stapi/OneDrive/Desktop/GD32VW553/V1_MQTT_OK/GD32VW55X_Wifi_BLE_SDK/GD32VW55x_RELEASE_V1.0.2/MSDK/cloud/alicloud/src/services/dev_bind\awss_report.c **** 
  44:C:/Users/stapi/OneDrive/Desktop/GD32VW553/V1_MQTT_OK/GD32VW55X_Wifi_BLE_SDK/GD32VW55x_RELEASE_V1.0.2/MSDK/cloud/alicloud/src/services/dev_bind\awss_report.c **** int awss_token_remain_time()
  45:C:/Users/stapi/OneDrive/Desktop/GD32VW553/V1_MQTT_OK/GD32VW55X_Wifi_BLE_SDK/GD32VW55x_RELEASE_V1.0.2/MSDK/cloud/alicloud/src/services/dev_bind\awss_report.c **** {
  46:C:/Users/stapi/OneDrive/Desktop/GD32VW553/V1_MQTT_OK/GD32VW55X_Wifi_BLE_SDK/GD32VW55x_RELEASE_V1.0.2/MSDK/cloud/alicloud/src/services/dev_bind\awss_report.c ****     int remain = 0;
  47:C:/Users/stapi/OneDrive/Desktop/GD32VW553/V1_MQTT_OK/GD32VW55X_Wifi_BLE_SDK/GD32VW55x_RELEASE_V1.0.2/MSDK/cloud/alicloud/src/services/dev_bind\awss_report.c ****     uint32_t cur = os_get_time_ms();
  48:C:/Users/stapi/OneDrive/Desktop/GD32VW553/V1_MQTT_OK/GD32VW55X_Wifi_BLE_SDK/GD32VW55x_RELEASE_V1.0.2/MSDK/cloud/alicloud/src/services/dev_bind\awss_report.c ****     uint32_t diff = (uint32_t)(cur - awss_report_token_time);
  49:C:/Users/stapi/OneDrive/Desktop/GD32VW553/V1_MQTT_OK/GD32VW55X_Wifi_BLE_SDK/GD32VW55x_RELEASE_V1.0.2/MSDK/cloud/alicloud/src/services/dev_bind\awss_report.c **** 
  50:C:/Users/stapi/OneDrive/Desktop/GD32VW553/V1_MQTT_OK/GD32VW55X_Wifi_BLE_SDK/GD32VW55x_RELEASE_V1.0.2/MSDK/cloud/alicloud/src/services/dev_bind\awss_report.c ****     if (awss_report_token_suc == 0) {
  51:C:/Users/stapi/OneDrive/Desktop/GD32VW553/V1_MQTT_OK/GD32VW55X_Wifi_BLE_SDK/GD32VW55x_RELEASE_V1.0.2/MSDK/cloud/alicloud/src/services/dev_bind\awss_report.c ****         return remain;
  52:C:/Users/stapi/OneDrive/Desktop/GD32VW553/V1_MQTT_OK/GD32VW55X_Wifi_BLE_SDK/GD32VW55x_RELEASE_V1.0.2/MSDK/cloud/alicloud/src/services/dev_bind\awss_report.c ****     }
  53:C:/Users/stapi/OneDrive/Desktop/GD32VW553/V1_MQTT_OK/GD32VW55X_Wifi_BLE_SDK/GD32VW55x_RELEASE_V1.0.2/MSDK/cloud/alicloud/src/services/dev_bind\awss_report.c **** 
  54:C:/Users/stapi/OneDrive/Desktop/GD32VW553/V1_MQTT_OK/GD32VW55X_Wifi_BLE_SDK/GD32VW55x_RELEASE_V1.0.2/MSDK/cloud/alicloud/src/services/dev_bind\awss_report.c ****     if (diff < AWSS_TOKEN_TIMEOUT_MS) {
  55:C:/Users/stapi/OneDrive/Desktop/GD32VW553/V1_MQTT_OK/GD32VW55X_Wifi_BLE_SDK/GD32VW55x_RELEASE_V1.0.2/MSDK/cloud/alicloud/src/services/dev_bind\awss_report.c ****         remain = AWSS_TOKEN_TIMEOUT_MS - diff;
  56:C:/Users/stapi/OneDrive/Desktop/GD32VW553/V1_MQTT_OK/GD32VW55X_Wifi_BLE_SDK/GD32VW55x_RELEASE_V1.0.2/MSDK/cloud/alicloud/src/services/dev_bind\awss_report.c ****     }
  57:C:/Users/stapi/OneDrive/Desktop/GD32VW553/V1_MQTT_OK/GD32VW55X_Wifi_BLE_SDK/GD32VW55x_RELEASE_V1.0.2/MSDK/cloud/alicloud/src/services/dev_bind\awss_report.c **** 
  58:C:/Users/stapi/OneDrive/Desktop/GD32VW553/V1_MQTT_OK/GD32VW55X_Wifi_BLE_SDK/GD32VW55x_RELEASE_V1.0.2/MSDK/cloud/alicloud/src/services/dev_bind\awss_report.c ****     return remain;
  59:C:/Users/stapi/OneDrive/Desktop/GD32VW553/V1_MQTT_OK/GD32VW55X_Wifi_BLE_SDK/GD32VW55x_RELEASE_V1.0.2/MSDK/cloud/alicloud/src/services/dev_bind\awss_report.c **** }
  60:C:/Users/stapi/OneDrive/Desktop/GD32VW553/V1_MQTT_OK/GD32VW55X_Wifi_BLE_SDK/GD32VW55x_RELEASE_V1.0.2/MSDK/cloud/alicloud/src/services/dev_bind\awss_report.c **** 
  61:C:/Users/stapi/OneDrive/Desktop/GD32VW553/V1_MQTT_OK/GD32VW55X_Wifi_BLE_SDK/GD32VW55x_RELEASE_V1.0.2/MSDK/cloud/alicloud/src/services/dev_bind\awss_report.c **** int awss_update_token()
  62:C:/Users/stapi/OneDrive/Desktop/GD32VW553/V1_MQTT_OK/GD32VW55X_Wifi_BLE_SDK/GD32VW55x_RELEASE_V1.0.2/MSDK/cloud/alicloud/src/services/dev_bind\awss_report.c **** {
  63:C:/Users/stapi/OneDrive/Desktop/GD32VW553/V1_MQTT_OK/GD32VW55X_Wifi_BLE_SDK/GD32VW55x_RELEASE_V1.0.2/MSDK/cloud/alicloud/src/services/dev_bind\awss_report.c ****     awss_report_token_time = 0;
  64:C:/Users/stapi/OneDrive/Desktop/GD32VW553/V1_MQTT_OK/GD32VW55X_Wifi_BLE_SDK/GD32VW55x_RELEASE_V1.0.2/MSDK/cloud/alicloud/src/services/dev_bind\awss_report.c ****     awss_report_token_cnt = 0;
  65:C:/Users/stapi/OneDrive/Desktop/GD32VW553/V1_MQTT_OK/GD32VW55X_Wifi_BLE_SDK/GD32VW55x_RELEASE_V1.0.2/MSDK/cloud/alicloud/src/services/dev_bind\awss_report.c ****     awss_report_token_suc = 0;
  66:C:/Users/stapi/OneDrive/Desktop/GD32VW553/V1_MQTT_OK/GD32VW55X_Wifi_BLE_SDK/GD32VW55x_RELEASE_V1.0.2/MSDK/cloud/alicloud/src/services/dev_bind\awss_report.c **** 
  67:C:/Users/stapi/OneDrive/Desktop/GD32VW553/V1_MQTT_OK/GD32VW55X_Wifi_BLE_SDK/GD32VW55x_RELEASE_V1.0.2/MSDK/cloud/alicloud/src/services/dev_bind\awss_report.c ****     if (report_token_timer == NULL) {
  68:C:/Users/stapi/OneDrive/Desktop/GD32VW553/V1_MQTT_OK/GD32VW55X_Wifi_BLE_SDK/GD32VW55x_RELEASE_V1.0.2/MSDK/cloud/alicloud/src/services/dev_bind\awss_report.c ****         report_token_timer = HAL_Timer_Create("rp_token", (void (*)(void *))awss_report_token_to_cl
  69:C:/Users/stapi/OneDrive/Desktop/GD32VW553/V1_MQTT_OK/GD32VW55X_Wifi_BLE_SDK/GD32VW55x_RELEASE_V1.0.2/MSDK/cloud/alicloud/src/services/dev_bind\awss_report.c ****     }
  70:C:/Users/stapi/OneDrive/Desktop/GD32VW553/V1_MQTT_OK/GD32VW55X_Wifi_BLE_SDK/GD32VW55x_RELEASE_V1.0.2/MSDK/cloud/alicloud/src/services/dev_bind\awss_report.c ****     HAL_Timer_Stop(report_token_timer);
  71:C:/Users/stapi/OneDrive/Desktop/GD32VW553/V1_MQTT_OK/GD32VW55X_Wifi_BLE_SDK/GD32VW55x_RELEASE_V1.0.2/MSDK/cloud/alicloud/src/services/dev_bind\awss_report.c ****     HAL_Timer_Start(report_token_timer, 10);
  72:C:/Users/stapi/OneDrive/Desktop/GD32VW553/V1_MQTT_OK/GD32VW55X_Wifi_BLE_SDK/GD32VW55x_RELEASE_V1.0.2/MSDK/cloud/alicloud/src/services/dev_bind\awss_report.c ****     awss_info("update token");
  73:C:/Users/stapi/OneDrive/Desktop/GD32VW553/V1_MQTT_OK/GD32VW55X_Wifi_BLE_SDK/GD32VW55x_RELEASE_V1.0.2/MSDK/cloud/alicloud/src/services/dev_bind\awss_report.c **** 
  74:C:/Users/stapi/OneDrive/Desktop/GD32VW553/V1_MQTT_OK/GD32VW55X_Wifi_BLE_SDK/GD32VW55x_RELEASE_V1.0.2/MSDK/cloud/alicloud/src/services/dev_bind\awss_report.c ****     produce_random(g_aes_random, sizeof(g_aes_random));
  75:C:/Users/stapi/OneDrive/Desktop/GD32VW553/V1_MQTT_OK/GD32VW55X_Wifi_BLE_SDK/GD32VW55x_RELEASE_V1.0.2/MSDK/cloud/alicloud/src/services/dev_bind\awss_report.c ****     return 0;
  76:C:/Users/stapi/OneDrive/Desktop/GD32VW553/V1_MQTT_OK/GD32VW55X_Wifi_BLE_SDK/GD32VW55x_RELEASE_V1.0.2/MSDK/cloud/alicloud/src/services/dev_bind\awss_report.c **** }
  77:C:/Users/stapi/OneDrive/Desktop/GD32VW553/V1_MQTT_OK/GD32VW55X_Wifi_BLE_SDK/GD32VW55x_RELEASE_V1.0.2/MSDK/cloud/alicloud/src/services/dev_bind\awss_report.c **** 
  78:C:/Users/stapi/OneDrive/Desktop/GD32VW553/V1_MQTT_OK/GD32VW55X_Wifi_BLE_SDK/GD32VW55x_RELEASE_V1.0.2/MSDK/cloud/alicloud/src/services/dev_bind\awss_report.c **** int awss_token_timeout()
  79:C:/Users/stapi/OneDrive/Desktop/GD32VW553/V1_MQTT_OK/GD32VW55X_Wifi_BLE_SDK/GD32VW55x_RELEASE_V1.0.2/MSDK/cloud/alicloud/src/services/dev_bind\awss_report.c **** {
  80:C:/Users/stapi/OneDrive/Desktop/GD32VW553/V1_MQTT_OK/GD32VW55X_Wifi_BLE_SDK/GD32VW55x_RELEASE_V1.0.2/MSDK/cloud/alicloud/src/services/dev_bind\awss_report.c ****     if (awss_report_token_time == 0) {
  81:C:/Users/stapi/OneDrive/Desktop/GD32VW553/V1_MQTT_OK/GD32VW55X_Wifi_BLE_SDK/GD32VW55x_RELEASE_V1.0.2/MSDK/cloud/alicloud/src/services/dev_bind\awss_report.c ****         return 1;
  82:C:/Users/stapi/OneDrive/Desktop/GD32VW553/V1_MQTT_OK/GD32VW55X_Wifi_BLE_SDK/GD32VW55x_RELEASE_V1.0.2/MSDK/cloud/alicloud/src/services/dev_bind\awss_report.c ****     }
  83:C:/Users/stapi/OneDrive/Desktop/GD32VW553/V1_MQTT_OK/GD32VW55X_Wifi_BLE_SDK/GD32VW55x_RELEASE_V1.0.2/MSDK/cloud/alicloud/src/services/dev_bind\awss_report.c **** 
  84:C:/Users/stapi/OneDrive/Desktop/GD32VW553/V1_MQTT_OK/GD32VW55X_Wifi_BLE_SDK/GD32VW55x_RELEASE_V1.0.2/MSDK/cloud/alicloud/src/services/dev_bind\awss_report.c ****     uint32_t cur = os_get_time_ms();
  85:C:/Users/stapi/OneDrive/Desktop/GD32VW553/V1_MQTT_OK/GD32VW55X_Wifi_BLE_SDK/GD32VW55x_RELEASE_V1.0.2/MSDK/cloud/alicloud/src/services/dev_bind\awss_report.c ****     if ((uint32_t)(cur - awss_report_token_time) > AWSS_TOKEN_TIMEOUT_MS) {
  86:C:/Users/stapi/OneDrive/Desktop/GD32VW553/V1_MQTT_OK/GD32VW55X_Wifi_BLE_SDK/GD32VW55x_RELEASE_V1.0.2/MSDK/cloud/alicloud/src/services/dev_bind\awss_report.c ****         return 1;
  87:C:/Users/stapi/OneDrive/Desktop/GD32VW553/V1_MQTT_OK/GD32VW55X_Wifi_BLE_SDK/GD32VW55x_RELEASE_V1.0.2/MSDK/cloud/alicloud/src/services/dev_bind\awss_report.c ****     }
  88:C:/Users/stapi/OneDrive/Desktop/GD32VW553/V1_MQTT_OK/GD32VW55X_Wifi_BLE_SDK/GD32VW55x_RELEASE_V1.0.2/MSDK/cloud/alicloud/src/services/dev_bind\awss_report.c ****     return 0;
  89:C:/Users/stapi/OneDrive/Desktop/GD32VW553/V1_MQTT_OK/GD32VW55X_Wifi_BLE_SDK/GD32VW55x_RELEASE_V1.0.2/MSDK/cloud/alicloud/src/services/dev_bind\awss_report.c **** }
  90:C:/Users/stapi/OneDrive/Desktop/GD32VW553/V1_MQTT_OK/GD32VW55X_Wifi_BLE_SDK/GD32VW55x_RELEASE_V1.0.2/MSDK/cloud/alicloud/src/services/dev_bind\awss_report.c **** 
  91:C:/Users/stapi/OneDrive/Desktop/GD32VW553/V1_MQTT_OK/GD32VW55X_Wifi_BLE_SDK/GD32VW55x_RELEASE_V1.0.2/MSDK/cloud/alicloud/src/services/dev_bind\awss_report.c **** void awss_report_token_reply(void *pcontext, void *pclient, void *msg)
  92:C:/Users/stapi/OneDrive/Desktop/GD32VW553/V1_MQTT_OK/GD32VW55X_Wifi_BLE_SDK/GD32VW55x_RELEASE_V1.0.2/MSDK/cloud/alicloud/src/services/dev_bind\awss_report.c **** {
  93:C:/Users/stapi/OneDrive/Desktop/GD32VW553/V1_MQTT_OK/GD32VW55X_Wifi_BLE_SDK/GD32VW55x_RELEASE_V1.0.2/MSDK/cloud/alicloud/src/services/dev_bind\awss_report.c ****     int ret, len;
  94:C:/Users/stapi/OneDrive/Desktop/GD32VW553/V1_MQTT_OK/GD32VW55X_Wifi_BLE_SDK/GD32VW55x_RELEASE_V1.0.2/MSDK/cloud/alicloud/src/services/dev_bind\awss_report.c ****     char *payload;
  95:C:/Users/stapi/OneDrive/Desktop/GD32VW553/V1_MQTT_OK/GD32VW55X_Wifi_BLE_SDK/GD32VW55x_RELEASE_V1.0.2/MSDK/cloud/alicloud/src/services/dev_bind\awss_report.c ****     char *id = NULL;
  96:C:/Users/stapi/OneDrive/Desktop/GD32VW553/V1_MQTT_OK/GD32VW55X_Wifi_BLE_SDK/GD32VW55x_RELEASE_V1.0.2/MSDK/cloud/alicloud/src/services/dev_bind\awss_report.c ****     char reply_id = 0;
  97:C:/Users/stapi/OneDrive/Desktop/GD32VW553/V1_MQTT_OK/GD32VW55X_Wifi_BLE_SDK/GD32VW55x_RELEASE_V1.0.2/MSDK/cloud/alicloud/src/services/dev_bind\awss_report.c ****     uint32_t payload_len;
  98:C:/Users/stapi/OneDrive/Desktop/GD32VW553/V1_MQTT_OK/GD32VW55X_Wifi_BLE_SDK/GD32VW55x_RELEASE_V1.0.2/MSDK/cloud/alicloud/src/services/dev_bind\awss_report.c **** 
  99:C:/Users/stapi/OneDrive/Desktop/GD32VW553/V1_MQTT_OK/GD32VW55X_Wifi_BLE_SDK/GD32VW55x_RELEASE_V1.0.2/MSDK/cloud/alicloud/src/services/dev_bind\awss_report.c ****     ret = awss_cmp_mqtt_get_payload(msg, &payload, &payload_len);
 100:C:/Users/stapi/OneDrive/Desktop/GD32VW553/V1_MQTT_OK/GD32VW55X_Wifi_BLE_SDK/GD32VW55x_RELEASE_V1.0.2/MSDK/cloud/alicloud/src/services/dev_bind\awss_report.c **** 
 101:C:/Users/stapi/OneDrive/Desktop/GD32VW553/V1_MQTT_OK/GD32VW55X_Wifi_BLE_SDK/GD32VW55x_RELEASE_V1.0.2/MSDK/cloud/alicloud/src/services/dev_bind\awss_report.c ****     if (ret != 0 || payload == NULL || payload_len == 0) {
 102:C:/Users/stapi/OneDrive/Desktop/GD32VW553/V1_MQTT_OK/GD32VW55X_Wifi_BLE_SDK/GD32VW55x_RELEASE_V1.0.2/MSDK/cloud/alicloud/src/services/dev_bind\awss_report.c ****         dump_dev_bind_status(STATE_BIND_MQTT_RSP_INVALID, "null pointer");
 103:C:/Users/stapi/OneDrive/Desktop/GD32VW553/V1_MQTT_OK/GD32VW55X_Wifi_BLE_SDK/GD32VW55x_RELEASE_V1.0.2/MSDK/cloud/alicloud/src/services/dev_bind\awss_report.c ****         return;
 104:C:/Users/stapi/OneDrive/Desktop/GD32VW553/V1_MQTT_OK/GD32VW55X_Wifi_BLE_SDK/GD32VW55x_RELEASE_V1.0.2/MSDK/cloud/alicloud/src/services/dev_bind\awss_report.c ****     }
 105:C:/Users/stapi/OneDrive/Desktop/GD32VW553/V1_MQTT_OK/GD32VW55X_Wifi_BLE_SDK/GD32VW55x_RELEASE_V1.0.2/MSDK/cloud/alicloud/src/services/dev_bind\awss_report.c **** 
 106:C:/Users/stapi/OneDrive/Desktop/GD32VW553/V1_MQTT_OK/GD32VW55X_Wifi_BLE_SDK/GD32VW55x_RELEASE_V1.0.2/MSDK/cloud/alicloud/src/services/dev_bind\awss_report.c ****     id = json_get_value_by_name(payload, payload_len, AWSS_JSON_ID, &len, NULL);
 107:C:/Users/stapi/OneDrive/Desktop/GD32VW553/V1_MQTT_OK/GD32VW55X_Wifi_BLE_SDK/GD32VW55x_RELEASE_V1.0.2/MSDK/cloud/alicloud/src/services/dev_bind\awss_report.c ****     if (id == NULL) {
 108:C:/Users/stapi/OneDrive/Desktop/GD32VW553/V1_MQTT_OK/GD32VW55X_Wifi_BLE_SDK/GD32VW55x_RELEASE_V1.0.2/MSDK/cloud/alicloud/src/services/dev_bind\awss_report.c ****         dump_dev_bind_status(STATE_BIND_MQTT_RSP_INVALID, "no id");
 109:C:/Users/stapi/OneDrive/Desktop/GD32VW553/V1_MQTT_OK/GD32VW55X_Wifi_BLE_SDK/GD32VW55x_RELEASE_V1.0.2/MSDK/cloud/alicloud/src/services/dev_bind\awss_report.c ****         return;
 110:C:/Users/stapi/OneDrive/Desktop/GD32VW553/V1_MQTT_OK/GD32VW55X_Wifi_BLE_SDK/GD32VW55x_RELEASE_V1.0.2/MSDK/cloud/alicloud/src/services/dev_bind\awss_report.c ****     }
 111:C:/Users/stapi/OneDrive/Desktop/GD32VW553/V1_MQTT_OK/GD32VW55X_Wifi_BLE_SDK/GD32VW55x_RELEASE_V1.0.2/MSDK/cloud/alicloud/src/services/dev_bind\awss_report.c **** 
 112:C:/Users/stapi/OneDrive/Desktop/GD32VW553/V1_MQTT_OK/GD32VW55X_Wifi_BLE_SDK/GD32VW55x_RELEASE_V1.0.2/MSDK/cloud/alicloud/src/services/dev_bind\awss_report.c ****     reply_id = atoi(id);
 113:C:/Users/stapi/OneDrive/Desktop/GD32VW553/V1_MQTT_OK/GD32VW55X_Wifi_BLE_SDK/GD32VW55x_RELEASE_V1.0.2/MSDK/cloud/alicloud/src/services/dev_bind\awss_report.c ****     if (reply_id + 1 < awss_report_id) {
 114:C:/Users/stapi/OneDrive/Desktop/GD32VW553/V1_MQTT_OK/GD32VW55X_Wifi_BLE_SDK/GD32VW55x_RELEASE_V1.0.2/MSDK/cloud/alicloud/src/services/dev_bind\awss_report.c ****         dump_dev_bind_status(STATE_BIND_MQTT_MSGID_INVALID, "reply id invalid");
 115:C:/Users/stapi/OneDrive/Desktop/GD32VW553/V1_MQTT_OK/GD32VW55X_Wifi_BLE_SDK/GD32VW55x_RELEASE_V1.0.2/MSDK/cloud/alicloud/src/services/dev_bind\awss_report.c ****         return;
 116:C:/Users/stapi/OneDrive/Desktop/GD32VW553/V1_MQTT_OK/GD32VW55X_Wifi_BLE_SDK/GD32VW55x_RELEASE_V1.0.2/MSDK/cloud/alicloud/src/services/dev_bind\awss_report.c ****     }
 117:C:/Users/stapi/OneDrive/Desktop/GD32VW553/V1_MQTT_OK/GD32VW55X_Wifi_BLE_SDK/GD32VW55x_RELEASE_V1.0.2/MSDK/cloud/alicloud/src/services/dev_bind\awss_report.c ****     awss_info("%s\r\n", __func__);
 118:C:/Users/stapi/OneDrive/Desktop/GD32VW553/V1_MQTT_OK/GD32VW55X_Wifi_BLE_SDK/GD32VW55x_RELEASE_V1.0.2/MSDK/cloud/alicloud/src/services/dev_bind\awss_report.c ****     dump_dev_bind_status(STATE_BIND_REPORT_TOKEN_SUCCESS, "report token success");
 119:C:/Users/stapi/OneDrive/Desktop/GD32VW553/V1_MQTT_OK/GD32VW55X_Wifi_BLE_SDK/GD32VW55x_RELEASE_V1.0.2/MSDK/cloud/alicloud/src/services/dev_bind\awss_report.c ****     awss_report_token_suc = 1;
 120:C:/Users/stapi/OneDrive/Desktop/GD32VW553/V1_MQTT_OK/GD32VW55X_Wifi_BLE_SDK/GD32VW55x_RELEASE_V1.0.2/MSDK/cloud/alicloud/src/services/dev_bind\awss_report.c ****     iotx_event_post(IOTX_CONN_REPORT_TOKEN_SUC);
 121:C:/Users/stapi/OneDrive/Desktop/GD32VW553/V1_MQTT_OK/GD32VW55X_Wifi_BLE_SDK/GD32VW55x_RELEASE_V1.0.2/MSDK/cloud/alicloud/src/services/dev_bind\awss_report.c ****     awss_stop_timer(report_token_timer);
 122:C:/Users/stapi/OneDrive/Desktop/GD32VW553/V1_MQTT_OK/GD32VW55X_Wifi_BLE_SDK/GD32VW55x_RELEASE_V1.0.2/MSDK/cloud/alicloud/src/services/dev_bind\awss_report.c ****     report_token_timer = NULL;
 123:C:/Users/stapi/OneDrive/Desktop/GD32VW553/V1_MQTT_OK/GD32VW55X_Wifi_BLE_SDK/GD32VW55x_RELEASE_V1.0.2/MSDK/cloud/alicloud/src/services/dev_bind\awss_report.c ****     AWSS_DB_UPDATE_STATIS(AWSS_DB_STATIS_SUC);
 124:C:/Users/stapi/OneDrive/Desktop/GD32VW553/V1_MQTT_OK/GD32VW55X_Wifi_BLE_SDK/GD32VW55x_RELEASE_V1.0.2/MSDK/cloud/alicloud/src/services/dev_bind\awss_report.c ****     AWSS_DB_DISP_STATIS();
 125:C:/Users/stapi/OneDrive/Desktop/GD32VW553/V1_MQTT_OK/GD32VW55X_Wifi_BLE_SDK/GD32VW55x_RELEASE_V1.0.2/MSDK/cloud/alicloud/src/services/dev_bind\awss_report.c ****     return;
 126:C:/Users/stapi/OneDrive/Desktop/GD32VW553/V1_MQTT_OK/GD32VW55X_Wifi_BLE_SDK/GD32VW55x_RELEASE_V1.0.2/MSDK/cloud/alicloud/src/services/dev_bind\awss_report.c **** }
 127:C:/Users/stapi/OneDrive/Desktop/GD32VW553/V1_MQTT_OK/GD32VW55X_Wifi_BLE_SDK/GD32VW55x_RELEASE_V1.0.2/MSDK/cloud/alicloud/src/services/dev_bind\awss_report.c **** 
 128:C:/Users/stapi/OneDrive/Desktop/GD32VW553/V1_MQTT_OK/GD32VW55X_Wifi_BLE_SDK/GD32VW55x_RELEASE_V1.0.2/MSDK/cloud/alicloud/src/services/dev_bind\awss_report.c **** #ifdef WIFI_PROVISION_ENABLED
 129:C:/Users/stapi/OneDrive/Desktop/GD32VW553/V1_MQTT_OK/GD32VW55X_Wifi_BLE_SDK/GD32VW55x_RELEASE_V1.0.2/MSDK/cloud/alicloud/src/services/dev_bind\awss_report.c **** void awss_online_switchap(void *pcontext, void *pclient, void *msg)
 130:C:/Users/stapi/OneDrive/Desktop/GD32VW553/V1_MQTT_OK/GD32VW55X_Wifi_BLE_SDK/GD32VW55x_RELEASE_V1.0.2/MSDK/cloud/alicloud/src/services/dev_bind\awss_report.c **** {
 131:C:/Users/stapi/OneDrive/Desktop/GD32VW553/V1_MQTT_OK/GD32VW55X_Wifi_BLE_SDK/GD32VW55x_RELEASE_V1.0.2/MSDK/cloud/alicloud/src/services/dev_bind\awss_report.c **** #define SWITCHAP_RSP_LEN   (64)
 132:C:/Users/stapi/OneDrive/Desktop/GD32VW553/V1_MQTT_OK/GD32VW55X_Wifi_BLE_SDK/GD32VW55x_RELEASE_V1.0.2/MSDK/cloud/alicloud/src/services/dev_bind\awss_report.c **** #define AWSS_BSSID_STR_LEN (17)
 133:C:/Users/stapi/OneDrive/Desktop/GD32VW553/V1_MQTT_OK/GD32VW55X_Wifi_BLE_SDK/GD32VW55x_RELEASE_V1.0.2/MSDK/cloud/alicloud/src/services/dev_bind\awss_report.c **** #define AWSS_SSID          "ssid"
 134:C:/Users/stapi/OneDrive/Desktop/GD32VW553/V1_MQTT_OK/GD32VW55X_Wifi_BLE_SDK/GD32VW55x_RELEASE_V1.0.2/MSDK/cloud/alicloud/src/services/dev_bind\awss_report.c **** #define AWSS_PASSWD        "passwd"
 135:C:/Users/stapi/OneDrive/Desktop/GD32VW553/V1_MQTT_OK/GD32VW55X_Wifi_BLE_SDK/GD32VW55x_RELEASE_V1.0.2/MSDK/cloud/alicloud/src/services/dev_bind\awss_report.c **** #define AWSS_BSSID         "bssid"
 136:C:/Users/stapi/OneDrive/Desktop/GD32VW553/V1_MQTT_OK/GD32VW55X_Wifi_BLE_SDK/GD32VW55x_RELEASE_V1.0.2/MSDK/cloud/alicloud/src/services/dev_bind\awss_report.c **** #define AWSS_SWITCH_MODE   "switchMode"
 137:C:/Users/stapi/OneDrive/Desktop/GD32VW553/V1_MQTT_OK/GD32VW55X_Wifi_BLE_SDK/GD32VW55x_RELEASE_V1.0.2/MSDK/cloud/alicloud/src/services/dev_bind\awss_report.c **** #define AWSS_TIMEOUT       "timeout"
 138:C:/Users/stapi/OneDrive/Desktop/GD32VW553/V1_MQTT_OK/GD32VW55X_Wifi_BLE_SDK/GD32VW55x_RELEASE_V1.0.2/MSDK/cloud/alicloud/src/services/dev_bind\awss_report.c **** 
 139:C:/Users/stapi/OneDrive/Desktop/GD32VW553/V1_MQTT_OK/GD32VW55X_Wifi_BLE_SDK/GD32VW55x_RELEASE_V1.0.2/MSDK/cloud/alicloud/src/services/dev_bind\awss_report.c ****     int len = 0, timeout = 0;
 140:C:/Users/stapi/OneDrive/Desktop/GD32VW553/V1_MQTT_OK/GD32VW55X_Wifi_BLE_SDK/GD32VW55x_RELEASE_V1.0.2/MSDK/cloud/alicloud/src/services/dev_bind\awss_report.c ****     char *packet = NULL, *awss_info = NULL, *elem = NULL;
 141:C:/Users/stapi/OneDrive/Desktop/GD32VW553/V1_MQTT_OK/GD32VW55X_Wifi_BLE_SDK/GD32VW55x_RELEASE_V1.0.2/MSDK/cloud/alicloud/src/services/dev_bind\awss_report.c ****     int packet_len = SWITCHAP_RSP_LEN, awss_info_len = 0;
 142:C:/Users/stapi/OneDrive/Desktop/GD32VW553/V1_MQTT_OK/GD32VW55X_Wifi_BLE_SDK/GD32VW55x_RELEASE_V1.0.2/MSDK/cloud/alicloud/src/services/dev_bind\awss_report.c **** 
 143:C:/Users/stapi/OneDrive/Desktop/GD32VW553/V1_MQTT_OK/GD32VW55X_Wifi_BLE_SDK/GD32VW55x_RELEASE_V1.0.2/MSDK/cloud/alicloud/src/services/dev_bind\awss_report.c ****     uint32_t payload_len;
 144:C:/Users/stapi/OneDrive/Desktop/GD32VW553/V1_MQTT_OK/GD32VW55X_Wifi_BLE_SDK/GD32VW55x_RELEASE_V1.0.2/MSDK/cloud/alicloud/src/services/dev_bind\awss_report.c ****     char *payload;
 145:C:/Users/stapi/OneDrive/Desktop/GD32VW553/V1_MQTT_OK/GD32VW55X_Wifi_BLE_SDK/GD32VW55x_RELEASE_V1.0.2/MSDK/cloud/alicloud/src/services/dev_bind\awss_report.c ****     int ret;
 146:C:/Users/stapi/OneDrive/Desktop/GD32VW553/V1_MQTT_OK/GD32VW55X_Wifi_BLE_SDK/GD32VW55x_RELEASE_V1.0.2/MSDK/cloud/alicloud/src/services/dev_bind\awss_report.c **** 
 147:C:/Users/stapi/OneDrive/Desktop/GD32VW553/V1_MQTT_OK/GD32VW55X_Wifi_BLE_SDK/GD32VW55x_RELEASE_V1.0.2/MSDK/cloud/alicloud/src/services/dev_bind\awss_report.c ****     ret = awss_cmp_mqtt_get_payload(msg, &payload, &payload_len);
 148:C:/Users/stapi/OneDrive/Desktop/GD32VW553/V1_MQTT_OK/GD32VW55X_Wifi_BLE_SDK/GD32VW55x_RELEASE_V1.0.2/MSDK/cloud/alicloud/src/services/dev_bind\awss_report.c **** 
 149:C:/Users/stapi/OneDrive/Desktop/GD32VW553/V1_MQTT_OK/GD32VW55X_Wifi_BLE_SDK/GD32VW55x_RELEASE_V1.0.2/MSDK/cloud/alicloud/src/services/dev_bind\awss_report.c ****     if (ret != 0) {
 150:C:/Users/stapi/OneDrive/Desktop/GD32VW553/V1_MQTT_OK/GD32VW55X_Wifi_BLE_SDK/GD32VW55x_RELEASE_V1.0.2/MSDK/cloud/alicloud/src/services/dev_bind\awss_report.c ****         goto ONLINE_SWITCHAP_FAIL;
 151:C:/Users/stapi/OneDrive/Desktop/GD32VW553/V1_MQTT_OK/GD32VW55X_Wifi_BLE_SDK/GD32VW55x_RELEASE_V1.0.2/MSDK/cloud/alicloud/src/services/dev_bind\awss_report.c ****     }
 152:C:/Users/stapi/OneDrive/Desktop/GD32VW553/V1_MQTT_OK/GD32VW55X_Wifi_BLE_SDK/GD32VW55x_RELEASE_V1.0.2/MSDK/cloud/alicloud/src/services/dev_bind\awss_report.c **** 
 153:C:/Users/stapi/OneDrive/Desktop/GD32VW553/V1_MQTT_OK/GD32VW55X_Wifi_BLE_SDK/GD32VW55x_RELEASE_V1.0.2/MSDK/cloud/alicloud/src/services/dev_bind\awss_report.c ****     if (payload == NULL || payload_len == 0) {
 154:C:/Users/stapi/OneDrive/Desktop/GD32VW553/V1_MQTT_OK/GD32VW55X_Wifi_BLE_SDK/GD32VW55x_RELEASE_V1.0.2/MSDK/cloud/alicloud/src/services/dev_bind\awss_report.c ****         goto ONLINE_SWITCHAP_FAIL;
 155:C:/Users/stapi/OneDrive/Desktop/GD32VW553/V1_MQTT_OK/GD32VW55X_Wifi_BLE_SDK/GD32VW55x_RELEASE_V1.0.2/MSDK/cloud/alicloud/src/services/dev_bind\awss_report.c ****     }
 156:C:/Users/stapi/OneDrive/Desktop/GD32VW553/V1_MQTT_OK/GD32VW55X_Wifi_BLE_SDK/GD32VW55x_RELEASE_V1.0.2/MSDK/cloud/alicloud/src/services/dev_bind\awss_report.c **** 
 157:C:/Users/stapi/OneDrive/Desktop/GD32VW553/V1_MQTT_OK/GD32VW55X_Wifi_BLE_SDK/GD32VW55x_RELEASE_V1.0.2/MSDK/cloud/alicloud/src/services/dev_bind\awss_report.c ****     awss_debug("online switchap len:%u, payload:%s\r\n", payload_len, payload);
 158:C:/Users/stapi/OneDrive/Desktop/GD32VW553/V1_MQTT_OK/GD32VW55X_Wifi_BLE_SDK/GD32VW55x_RELEASE_V1.0.2/MSDK/cloud/alicloud/src/services/dev_bind\awss_report.c ****     packet = os_zalloc(packet_len + 1);
 159:C:/Users/stapi/OneDrive/Desktop/GD32VW553/V1_MQTT_OK/GD32VW55X_Wifi_BLE_SDK/GD32VW55x_RELEASE_V1.0.2/MSDK/cloud/alicloud/src/services/dev_bind\awss_report.c ****     if (packet == NULL) {
 160:C:/Users/stapi/OneDrive/Desktop/GD32VW553/V1_MQTT_OK/GD32VW55X_Wifi_BLE_SDK/GD32VW55x_RELEASE_V1.0.2/MSDK/cloud/alicloud/src/services/dev_bind\awss_report.c ****         goto ONLINE_SWITCHAP_FAIL;
 161:C:/Users/stapi/OneDrive/Desktop/GD32VW553/V1_MQTT_OK/GD32VW55X_Wifi_BLE_SDK/GD32VW55x_RELEASE_V1.0.2/MSDK/cloud/alicloud/src/services/dev_bind\awss_report.c ****     }
 162:C:/Users/stapi/OneDrive/Desktop/GD32VW553/V1_MQTT_OK/GD32VW55X_Wifi_BLE_SDK/GD32VW55x_RELEASE_V1.0.2/MSDK/cloud/alicloud/src/services/dev_bind\awss_report.c **** 
 163:C:/Users/stapi/OneDrive/Desktop/GD32VW553/V1_MQTT_OK/GD32VW55X_Wifi_BLE_SDK/GD32VW55x_RELEASE_V1.0.2/MSDK/cloud/alicloud/src/services/dev_bind\awss_report.c ****     awss_info = json_get_value_by_name(payload, payload_len, AWSS_JSON_PARAM, &awss_info_len, NULL)
 164:C:/Users/stapi/OneDrive/Desktop/GD32VW553/V1_MQTT_OK/GD32VW55X_Wifi_BLE_SDK/GD32VW55x_RELEASE_V1.0.2/MSDK/cloud/alicloud/src/services/dev_bind\awss_report.c ****     if (awss_info == NULL || awss_info_len == 0) {
 165:C:/Users/stapi/OneDrive/Desktop/GD32VW553/V1_MQTT_OK/GD32VW55X_Wifi_BLE_SDK/GD32VW55x_RELEASE_V1.0.2/MSDK/cloud/alicloud/src/services/dev_bind\awss_report.c ****         goto ONLINE_SWITCHAP_FAIL;
 166:C:/Users/stapi/OneDrive/Desktop/GD32VW553/V1_MQTT_OK/GD32VW55X_Wifi_BLE_SDK/GD32VW55x_RELEASE_V1.0.2/MSDK/cloud/alicloud/src/services/dev_bind\awss_report.c ****     }
 167:C:/Users/stapi/OneDrive/Desktop/GD32VW553/V1_MQTT_OK/GD32VW55X_Wifi_BLE_SDK/GD32VW55x_RELEASE_V1.0.2/MSDK/cloud/alicloud/src/services/dev_bind\awss_report.c **** 
 168:C:/Users/stapi/OneDrive/Desktop/GD32VW553/V1_MQTT_OK/GD32VW55X_Wifi_BLE_SDK/GD32VW55x_RELEASE_V1.0.2/MSDK/cloud/alicloud/src/services/dev_bind\awss_report.c ****     /*
 169:C:/Users/stapi/OneDrive/Desktop/GD32VW553/V1_MQTT_OK/GD32VW55X_Wifi_BLE_SDK/GD32VW55x_RELEASE_V1.0.2/MSDK/cloud/alicloud/src/services/dev_bind\awss_report.c ****      * get SSID , PASSWD, BSSID of router
 170:C:/Users/stapi/OneDrive/Desktop/GD32VW553/V1_MQTT_OK/GD32VW55X_Wifi_BLE_SDK/GD32VW55x_RELEASE_V1.0.2/MSDK/cloud/alicloud/src/services/dev_bind\awss_report.c ****      */
 171:C:/Users/stapi/OneDrive/Desktop/GD32VW553/V1_MQTT_OK/GD32VW55X_Wifi_BLE_SDK/GD32VW55x_RELEASE_V1.0.2/MSDK/cloud/alicloud/src/services/dev_bind\awss_report.c ****     elem = json_get_value_by_name(awss_info, awss_info_len, AWSS_SSID, &len, NULL);
 172:C:/Users/stapi/OneDrive/Desktop/GD32VW553/V1_MQTT_OK/GD32VW55X_Wifi_BLE_SDK/GD32VW55x_RELEASE_V1.0.2/MSDK/cloud/alicloud/src/services/dev_bind\awss_report.c ****     if (elem == NULL || len <= 0 || len >= OS_MAX_SSID_LEN) {
 173:C:/Users/stapi/OneDrive/Desktop/GD32VW553/V1_MQTT_OK/GD32VW55X_Wifi_BLE_SDK/GD32VW55x_RELEASE_V1.0.2/MSDK/cloud/alicloud/src/services/dev_bind\awss_report.c ****         goto ONLINE_SWITCHAP_FAIL;
 174:C:/Users/stapi/OneDrive/Desktop/GD32VW553/V1_MQTT_OK/GD32VW55X_Wifi_BLE_SDK/GD32VW55x_RELEASE_V1.0.2/MSDK/cloud/alicloud/src/services/dev_bind\awss_report.c ****     }
 175:C:/Users/stapi/OneDrive/Desktop/GD32VW553/V1_MQTT_OK/GD32VW55X_Wifi_BLE_SDK/GD32VW55x_RELEASE_V1.0.2/MSDK/cloud/alicloud/src/services/dev_bind\awss_report.c **** 
 176:C:/Users/stapi/OneDrive/Desktop/GD32VW553/V1_MQTT_OK/GD32VW55X_Wifi_BLE_SDK/GD32VW55x_RELEASE_V1.0.2/MSDK/cloud/alicloud/src/services/dev_bind\awss_report.c ****     memset(switchap_ssid, 0, sizeof(switchap_ssid));
 177:C:/Users/stapi/OneDrive/Desktop/GD32VW553/V1_MQTT_OK/GD32VW55X_Wifi_BLE_SDK/GD32VW55x_RELEASE_V1.0.2/MSDK/cloud/alicloud/src/services/dev_bind\awss_report.c ****     memcpy(switchap_ssid, elem, len);
 178:C:/Users/stapi/OneDrive/Desktop/GD32VW553/V1_MQTT_OK/GD32VW55X_Wifi_BLE_SDK/GD32VW55x_RELEASE_V1.0.2/MSDK/cloud/alicloud/src/services/dev_bind\awss_report.c **** 
 179:C:/Users/stapi/OneDrive/Desktop/GD32VW553/V1_MQTT_OK/GD32VW55X_Wifi_BLE_SDK/GD32VW55x_RELEASE_V1.0.2/MSDK/cloud/alicloud/src/services/dev_bind\awss_report.c ****     len = 0;
 180:C:/Users/stapi/OneDrive/Desktop/GD32VW553/V1_MQTT_OK/GD32VW55X_Wifi_BLE_SDK/GD32VW55x_RELEASE_V1.0.2/MSDK/cloud/alicloud/src/services/dev_bind\awss_report.c ****     elem = json_get_value_by_name(awss_info, awss_info_len, AWSS_PASSWD, &len, NULL);
 181:C:/Users/stapi/OneDrive/Desktop/GD32VW553/V1_MQTT_OK/GD32VW55X_Wifi_BLE_SDK/GD32VW55x_RELEASE_V1.0.2/MSDK/cloud/alicloud/src/services/dev_bind\awss_report.c ****     if (elem == NULL || len <= 0 || len >= OS_MAX_PASSWD_LEN) {
 182:C:/Users/stapi/OneDrive/Desktop/GD32VW553/V1_MQTT_OK/GD32VW55X_Wifi_BLE_SDK/GD32VW55x_RELEASE_V1.0.2/MSDK/cloud/alicloud/src/services/dev_bind\awss_report.c ****         goto ONLINE_SWITCHAP_FAIL;
 183:C:/Users/stapi/OneDrive/Desktop/GD32VW553/V1_MQTT_OK/GD32VW55X_Wifi_BLE_SDK/GD32VW55x_RELEASE_V1.0.2/MSDK/cloud/alicloud/src/services/dev_bind\awss_report.c ****     }
 184:C:/Users/stapi/OneDrive/Desktop/GD32VW553/V1_MQTT_OK/GD32VW55X_Wifi_BLE_SDK/GD32VW55x_RELEASE_V1.0.2/MSDK/cloud/alicloud/src/services/dev_bind\awss_report.c **** 
 185:C:/Users/stapi/OneDrive/Desktop/GD32VW553/V1_MQTT_OK/GD32VW55X_Wifi_BLE_SDK/GD32VW55x_RELEASE_V1.0.2/MSDK/cloud/alicloud/src/services/dev_bind\awss_report.c ****     memset(switchap_passwd, 0, sizeof(switchap_passwd));
 186:C:/Users/stapi/OneDrive/Desktop/GD32VW553/V1_MQTT_OK/GD32VW55X_Wifi_BLE_SDK/GD32VW55x_RELEASE_V1.0.2/MSDK/cloud/alicloud/src/services/dev_bind\awss_report.c ****     memcpy(switchap_passwd, elem, len);
 187:C:/Users/stapi/OneDrive/Desktop/GD32VW553/V1_MQTT_OK/GD32VW55X_Wifi_BLE_SDK/GD32VW55x_RELEASE_V1.0.2/MSDK/cloud/alicloud/src/services/dev_bind\awss_report.c **** 
 188:C:/Users/stapi/OneDrive/Desktop/GD32VW553/V1_MQTT_OK/GD32VW55X_Wifi_BLE_SDK/GD32VW55x_RELEASE_V1.0.2/MSDK/cloud/alicloud/src/services/dev_bind\awss_report.c ****     len = 0;
 189:C:/Users/stapi/OneDrive/Desktop/GD32VW553/V1_MQTT_OK/GD32VW55X_Wifi_BLE_SDK/GD32VW55x_RELEASE_V1.0.2/MSDK/cloud/alicloud/src/services/dev_bind\awss_report.c ****     memset(switchap_bssid, 0, sizeof(switchap_bssid));
 190:C:/Users/stapi/OneDrive/Desktop/GD32VW553/V1_MQTT_OK/GD32VW55X_Wifi_BLE_SDK/GD32VW55x_RELEASE_V1.0.2/MSDK/cloud/alicloud/src/services/dev_bind\awss_report.c ****     elem = json_get_value_by_name(awss_info, awss_info_len, AWSS_BSSID, &len, NULL);
 191:C:/Users/stapi/OneDrive/Desktop/GD32VW553/V1_MQTT_OK/GD32VW55X_Wifi_BLE_SDK/GD32VW55x_RELEASE_V1.0.2/MSDK/cloud/alicloud/src/services/dev_bind\awss_report.c **** 
 192:C:/Users/stapi/OneDrive/Desktop/GD32VW553/V1_MQTT_OK/GD32VW55X_Wifi_BLE_SDK/GD32VW55x_RELEASE_V1.0.2/MSDK/cloud/alicloud/src/services/dev_bind\awss_report.c ****     if (elem != NULL && len == AWSS_BSSID_STR_LEN) {
 193:C:/Users/stapi/OneDrive/Desktop/GD32VW553/V1_MQTT_OK/GD32VW55X_Wifi_BLE_SDK/GD32VW55x_RELEASE_V1.0.2/MSDK/cloud/alicloud/src/services/dev_bind\awss_report.c ****         uint8_t i = 0;
 194:C:/Users/stapi/OneDrive/Desktop/GD32VW553/V1_MQTT_OK/GD32VW55X_Wifi_BLE_SDK/GD32VW55x_RELEASE_V1.0.2/MSDK/cloud/alicloud/src/services/dev_bind\awss_report.c ****         char *bssid_str = elem;
 195:C:/Users/stapi/OneDrive/Desktop/GD32VW553/V1_MQTT_OK/GD32VW55X_Wifi_BLE_SDK/GD32VW55x_RELEASE_V1.0.2/MSDK/cloud/alicloud/src/services/dev_bind\awss_report.c ****         // convert bssid string to bssid value
 196:C:/Users/stapi/OneDrive/Desktop/GD32VW553/V1_MQTT_OK/GD32VW55X_Wifi_BLE_SDK/GD32VW55x_RELEASE_V1.0.2/MSDK/cloud/alicloud/src/services/dev_bind\awss_report.c ****         while (i < OS_ETH_ALEN) {
 197:C:/Users/stapi/OneDrive/Desktop/GD32VW553/V1_MQTT_OK/GD32VW55X_Wifi_BLE_SDK/GD32VW55x_RELEASE_V1.0.2/MSDK/cloud/alicloud/src/services/dev_bind\awss_report.c ****             switchap_bssid[i ++] = (uint8_t)strtol(bssid_str, &bssid_str, 16);
 198:C:/Users/stapi/OneDrive/Desktop/GD32VW553/V1_MQTT_OK/GD32VW55X_Wifi_BLE_SDK/GD32VW55x_RELEASE_V1.0.2/MSDK/cloud/alicloud/src/services/dev_bind\awss_report.c ****             ++ bssid_str;
 199:C:/Users/stapi/OneDrive/Desktop/GD32VW553/V1_MQTT_OK/GD32VW55X_Wifi_BLE_SDK/GD32VW55x_RELEASE_V1.0.2/MSDK/cloud/alicloud/src/services/dev_bind\awss_report.c ****             /*
 200:C:/Users/stapi/OneDrive/Desktop/GD32VW553/V1_MQTT_OK/GD32VW55X_Wifi_BLE_SDK/GD32VW55x_RELEASE_V1.0.2/MSDK/cloud/alicloud/src/services/dev_bind\awss_report.c ****              * fix the format of bssid string is not legal.
 201:C:/Users/stapi/OneDrive/Desktop/GD32VW553/V1_MQTT_OK/GD32VW55X_Wifi_BLE_SDK/GD32VW55x_RELEASE_V1.0.2/MSDK/cloud/alicloud/src/services/dev_bind\awss_report.c ****              */
 202:C:/Users/stapi/OneDrive/Desktop/GD32VW553/V1_MQTT_OK/GD32VW55X_Wifi_BLE_SDK/GD32VW55x_RELEASE_V1.0.2/MSDK/cloud/alicloud/src/services/dev_bind\awss_report.c ****             if ((uint32_t)((unsigned long)bssid_str - (unsigned long)elem) > AWSS_BSSID_STR_LEN) {
 203:C:/Users/stapi/OneDrive/Desktop/GD32VW553/V1_MQTT_OK/GD32VW55X_Wifi_BLE_SDK/GD32VW55x_RELEASE_V1.0.2/MSDK/cloud/alicloud/src/services/dev_bind\awss_report.c ****                 memset(switchap_bssid, 0, sizeof(switchap_bssid));
 204:C:/Users/stapi/OneDrive/Desktop/GD32VW553/V1_MQTT_OK/GD32VW55X_Wifi_BLE_SDK/GD32VW55x_RELEASE_V1.0.2/MSDK/cloud/alicloud/src/services/dev_bind\awss_report.c ****                 break;
 205:C:/Users/stapi/OneDrive/Desktop/GD32VW553/V1_MQTT_OK/GD32VW55X_Wifi_BLE_SDK/GD32VW55x_RELEASE_V1.0.2/MSDK/cloud/alicloud/src/services/dev_bind\awss_report.c ****             }
 206:C:/Users/stapi/OneDrive/Desktop/GD32VW553/V1_MQTT_OK/GD32VW55X_Wifi_BLE_SDK/GD32VW55x_RELEASE_V1.0.2/MSDK/cloud/alicloud/src/services/dev_bind\awss_report.c ****         }
 207:C:/Users/stapi/OneDrive/Desktop/GD32VW553/V1_MQTT_OK/GD32VW55X_Wifi_BLE_SDK/GD32VW55x_RELEASE_V1.0.2/MSDK/cloud/alicloud/src/services/dev_bind\awss_report.c ****     }
 208:C:/Users/stapi/OneDrive/Desktop/GD32VW553/V1_MQTT_OK/GD32VW55X_Wifi_BLE_SDK/GD32VW55x_RELEASE_V1.0.2/MSDK/cloud/alicloud/src/services/dev_bind\awss_report.c **** 
 209:C:/Users/stapi/OneDrive/Desktop/GD32VW553/V1_MQTT_OK/GD32VW55X_Wifi_BLE_SDK/GD32VW55x_RELEASE_V1.0.2/MSDK/cloud/alicloud/src/services/dev_bind\awss_report.c ****     len = 0;
 210:C:/Users/stapi/OneDrive/Desktop/GD32VW553/V1_MQTT_OK/GD32VW55X_Wifi_BLE_SDK/GD32VW55x_RELEASE_V1.0.2/MSDK/cloud/alicloud/src/services/dev_bind\awss_report.c ****     elem = json_get_value_by_name(awss_info, awss_info_len, AWSS_SWITCH_MODE, &len, NULL);
 211:C:/Users/stapi/OneDrive/Desktop/GD32VW553/V1_MQTT_OK/GD32VW55X_Wifi_BLE_SDK/GD32VW55x_RELEASE_V1.0.2/MSDK/cloud/alicloud/src/services/dev_bind\awss_report.c ****     if (elem != NULL && (elem[0] == '0' || elem[0] == 0)) {
 212:C:/Users/stapi/OneDrive/Desktop/GD32VW553/V1_MQTT_OK/GD32VW55X_Wifi_BLE_SDK/GD32VW55x_RELEASE_V1.0.2/MSDK/cloud/alicloud/src/services/dev_bind\awss_report.c ****         elem = json_get_value_by_name(awss_info, awss_info_len, AWSS_TIMEOUT, &len, NULL);
 213:C:/Users/stapi/OneDrive/Desktop/GD32VW553/V1_MQTT_OK/GD32VW55X_Wifi_BLE_SDK/GD32VW55x_RELEASE_V1.0.2/MSDK/cloud/alicloud/src/services/dev_bind\awss_report.c ****         if (elem) {
 214:C:/Users/stapi/OneDrive/Desktop/GD32VW553/V1_MQTT_OK/GD32VW55X_Wifi_BLE_SDK/GD32VW55x_RELEASE_V1.0.2/MSDK/cloud/alicloud/src/services/dev_bind\awss_report.c ****             timeout = (int)strtol(elem, &elem, 16);
 215:C:/Users/stapi/OneDrive/Desktop/GD32VW553/V1_MQTT_OK/GD32VW55X_Wifi_BLE_SDK/GD32VW55x_RELEASE_V1.0.2/MSDK/cloud/alicloud/src/services/dev_bind\awss_report.c ****         }
 216:C:/Users/stapi/OneDrive/Desktop/GD32VW553/V1_MQTT_OK/GD32VW55X_Wifi_BLE_SDK/GD32VW55x_RELEASE_V1.0.2/MSDK/cloud/alicloud/src/services/dev_bind\awss_report.c ****     }
 217:C:/Users/stapi/OneDrive/Desktop/GD32VW553/V1_MQTT_OK/GD32VW55X_Wifi_BLE_SDK/GD32VW55x_RELEASE_V1.0.2/MSDK/cloud/alicloud/src/services/dev_bind\awss_report.c **** 
 218:C:/Users/stapi/OneDrive/Desktop/GD32VW553/V1_MQTT_OK/GD32VW55X_Wifi_BLE_SDK/GD32VW55x_RELEASE_V1.0.2/MSDK/cloud/alicloud/src/services/dev_bind\awss_report.c ****     do {
 219:C:/Users/stapi/OneDrive/Desktop/GD32VW553/V1_MQTT_OK/GD32VW55X_Wifi_BLE_SDK/GD32VW55x_RELEASE_V1.0.2/MSDK/cloud/alicloud/src/services/dev_bind\awss_report.c ****         // reduce stack used
 220:C:/Users/stapi/OneDrive/Desktop/GD32VW553/V1_MQTT_OK/GD32VW55X_Wifi_BLE_SDK/GD32VW55x_RELEASE_V1.0.2/MSDK/cloud/alicloud/src/services/dev_bind\awss_report.c ****         char *id = NULL;
 221:C:/Users/stapi/OneDrive/Desktop/GD32VW553/V1_MQTT_OK/GD32VW55X_Wifi_BLE_SDK/GD32VW55x_RELEASE_V1.0.2/MSDK/cloud/alicloud/src/services/dev_bind\awss_report.c ****         char id_str[MSG_REQ_ID_LEN] = {0};
 222:C:/Users/stapi/OneDrive/Desktop/GD32VW553/V1_MQTT_OK/GD32VW55X_Wifi_BLE_SDK/GD32VW55x_RELEASE_V1.0.2/MSDK/cloud/alicloud/src/services/dev_bind\awss_report.c ****         id = json_get_value_by_name(payload, payload_len, AWSS_JSON_ID, &len, NULL);
 223:C:/Users/stapi/OneDrive/Desktop/GD32VW553/V1_MQTT_OK/GD32VW55X_Wifi_BLE_SDK/GD32VW55x_RELEASE_V1.0.2/MSDK/cloud/alicloud/src/services/dev_bind\awss_report.c ****         memcpy(id_str, id, len > MSG_REQ_ID_LEN - 1 ? MSG_REQ_ID_LEN - 1 : len);
 224:C:/Users/stapi/OneDrive/Desktop/GD32VW553/V1_MQTT_OK/GD32VW55X_Wifi_BLE_SDK/GD32VW55x_RELEASE_V1.0.2/MSDK/cloud/alicloud/src/services/dev_bind\awss_report.c ****         awss_build_packet(AWSS_CMP_PKT_TYPE_RSP, id_str, ILOP_VER, METHOD_EVENT_ZC_SWITCHAP, "{}", 
 225:C:/Users/stapi/OneDrive/Desktop/GD32VW553/V1_MQTT_OK/GD32VW55X_Wifi_BLE_SDK/GD32VW55x_RELEASE_V1.0.2/MSDK/cloud/alicloud/src/services/dev_bind\awss_report.c ****     } while (0);
 226:C:/Users/stapi/OneDrive/Desktop/GD32VW553/V1_MQTT_OK/GD32VW55X_Wifi_BLE_SDK/GD32VW55x_RELEASE_V1.0.2/MSDK/cloud/alicloud/src/services/dev_bind\awss_report.c **** 
 227:C:/Users/stapi/OneDrive/Desktop/GD32VW553/V1_MQTT_OK/GD32VW55X_Wifi_BLE_SDK/GD32VW55x_RELEASE_V1.0.2/MSDK/cloud/alicloud/src/services/dev_bind\awss_report.c ****     do {
 228:C:/Users/stapi/OneDrive/Desktop/GD32VW553/V1_MQTT_OK/GD32VW55X_Wifi_BLE_SDK/GD32VW55x_RELEASE_V1.0.2/MSDK/cloud/alicloud/src/services/dev_bind\awss_report.c ****         char reply[TOPIC_LEN_MAX] = {0};
 229:C:/Users/stapi/OneDrive/Desktop/GD32VW553/V1_MQTT_OK/GD32VW55X_Wifi_BLE_SDK/GD32VW55x_RELEASE_V1.0.2/MSDK/cloud/alicloud/src/services/dev_bind\awss_report.c ****         awss_build_topic(TOPIC_SWITCHAP_REPLY, reply, TOPIC_LEN_MAX);
 230:C:/Users/stapi/OneDrive/Desktop/GD32VW553/V1_MQTT_OK/GD32VW55X_Wifi_BLE_SDK/GD32VW55x_RELEASE_V1.0.2/MSDK/cloud/alicloud/src/services/dev_bind\awss_report.c ****         awss_cmp_mqtt_send(reply, packet, packet_len, 1);
 231:C:/Users/stapi/OneDrive/Desktop/GD32VW553/V1_MQTT_OK/GD32VW55X_Wifi_BLE_SDK/GD32VW55x_RELEASE_V1.0.2/MSDK/cloud/alicloud/src/services/dev_bind\awss_report.c ****         os_free(packet);
 232:C:/Users/stapi/OneDrive/Desktop/GD32VW553/V1_MQTT_OK/GD32VW55X_Wifi_BLE_SDK/GD32VW55x_RELEASE_V1.0.2/MSDK/cloud/alicloud/src/services/dev_bind\awss_report.c ****     } while (0);
 233:C:/Users/stapi/OneDrive/Desktop/GD32VW553/V1_MQTT_OK/GD32VW55X_Wifi_BLE_SDK/GD32VW55x_RELEASE_V1.0.2/MSDK/cloud/alicloud/src/services/dev_bind\awss_report.c **** 
 234:C:/Users/stapi/OneDrive/Desktop/GD32VW553/V1_MQTT_OK/GD32VW55X_Wifi_BLE_SDK/GD32VW55x_RELEASE_V1.0.2/MSDK/cloud/alicloud/src/services/dev_bind\awss_report.c ****     /*
 235:C:/Users/stapi/OneDrive/Desktop/GD32VW553/V1_MQTT_OK/GD32VW55X_Wifi_BLE_SDK/GD32VW55x_RELEASE_V1.0.2/MSDK/cloud/alicloud/src/services/dev_bind\awss_report.c ****      * make sure the response would been received
 236:C:/Users/stapi/OneDrive/Desktop/GD32VW553/V1_MQTT_OK/GD32VW55X_Wifi_BLE_SDK/GD32VW55x_RELEASE_V1.0.2/MSDK/cloud/alicloud/src/services/dev_bind\awss_report.c ****      */
 237:C:/Users/stapi/OneDrive/Desktop/GD32VW553/V1_MQTT_OK/GD32VW55X_Wifi_BLE_SDK/GD32VW55x_RELEASE_V1.0.2/MSDK/cloud/alicloud/src/services/dev_bind\awss_report.c ****     if (timeout < 1000) {
 238:C:/Users/stapi/OneDrive/Desktop/GD32VW553/V1_MQTT_OK/GD32VW55X_Wifi_BLE_SDK/GD32VW55x_RELEASE_V1.0.2/MSDK/cloud/alicloud/src/services/dev_bind\awss_report.c ****         timeout = 1000;
 239:C:/Users/stapi/OneDrive/Desktop/GD32VW553/V1_MQTT_OK/GD32VW55X_Wifi_BLE_SDK/GD32VW55x_RELEASE_V1.0.2/MSDK/cloud/alicloud/src/services/dev_bind\awss_report.c ****     }
 240:C:/Users/stapi/OneDrive/Desktop/GD32VW553/V1_MQTT_OK/GD32VW55X_Wifi_BLE_SDK/GD32VW55x_RELEASE_V1.0.2/MSDK/cloud/alicloud/src/services/dev_bind\awss_report.c **** 
 241:C:/Users/stapi/OneDrive/Desktop/GD32VW553/V1_MQTT_OK/GD32VW55X_Wifi_BLE_SDK/GD32VW55x_RELEASE_V1.0.2/MSDK/cloud/alicloud/src/services/dev_bind\awss_report.c ****     do {
 242:C:/Users/stapi/OneDrive/Desktop/GD32VW553/V1_MQTT_OK/GD32VW55X_Wifi_BLE_SDK/GD32VW55x_RELEASE_V1.0.2/MSDK/cloud/alicloud/src/services/dev_bind\awss_report.c ****         uint8_t bssid[ETH_ALEN] = {0};
 243:C:/Users/stapi/OneDrive/Desktop/GD32VW553/V1_MQTT_OK/GD32VW55X_Wifi_BLE_SDK/GD32VW55x_RELEASE_V1.0.2/MSDK/cloud/alicloud/src/services/dev_bind\awss_report.c ****         char ssid[OS_MAX_SSID_LEN + 1] = {0}, passwd[OS_MAX_PASSWD_LEN + 1] = {0};
 244:C:/Users/stapi/OneDrive/Desktop/GD32VW553/V1_MQTT_OK/GD32VW55X_Wifi_BLE_SDK/GD32VW55x_RELEASE_V1.0.2/MSDK/cloud/alicloud/src/services/dev_bind\awss_report.c ****         os_wifi_get_ap_info(ssid, passwd, bssid);
 245:C:/Users/stapi/OneDrive/Desktop/GD32VW553/V1_MQTT_OK/GD32VW55X_Wifi_BLE_SDK/GD32VW55x_RELEASE_V1.0.2/MSDK/cloud/alicloud/src/services/dev_bind\awss_report.c ****         /*
 246:C:/Users/stapi/OneDrive/Desktop/GD32VW553/V1_MQTT_OK/GD32VW55X_Wifi_BLE_SDK/GD32VW55x_RELEASE_V1.0.2/MSDK/cloud/alicloud/src/services/dev_bind\awss_report.c ****          * switch ap when destination ap is differenct from current ap
 247:C:/Users/stapi/OneDrive/Desktop/GD32VW553/V1_MQTT_OK/GD32VW55X_Wifi_BLE_SDK/GD32VW55x_RELEASE_V1.0.2/MSDK/cloud/alicloud/src/services/dev_bind\awss_report.c ****          */
 248:C:/Users/stapi/OneDrive/Desktop/GD32VW553/V1_MQTT_OK/GD32VW55X_Wifi_BLE_SDK/GD32VW55x_RELEASE_V1.0.2/MSDK/cloud/alicloud/src/services/dev_bind\awss_report.c ****         if (strncmp(ssid, switchap_ssid, sizeof(ssid)) ||
 249:C:/Users/stapi/OneDrive/Desktop/GD32VW553/V1_MQTT_OK/GD32VW55X_Wifi_BLE_SDK/GD32VW55x_RELEASE_V1.0.2/MSDK/cloud/alicloud/src/services/dev_bind\awss_report.c ****             memcmp(bssid, switchap_bssid, sizeof(bssid)) ||
 250:C:/Users/stapi/OneDrive/Desktop/GD32VW553/V1_MQTT_OK/GD32VW55X_Wifi_BLE_SDK/GD32VW55x_RELEASE_V1.0.2/MSDK/cloud/alicloud/src/services/dev_bind\awss_report.c ****             strncmp(passwd, switchap_passwd, sizeof(passwd))) {
 251:C:/Users/stapi/OneDrive/Desktop/GD32VW553/V1_MQTT_OK/GD32VW55X_Wifi_BLE_SDK/GD32VW55x_RELEASE_V1.0.2/MSDK/cloud/alicloud/src/services/dev_bind\awss_report.c ****             if (switchap_timer == NULL) {
 252:C:/Users/stapi/OneDrive/Desktop/GD32VW553/V1_MQTT_OK/GD32VW55X_Wifi_BLE_SDK/GD32VW55x_RELEASE_V1.0.2/MSDK/cloud/alicloud/src/services/dev_bind\awss_report.c ****                 switchap_timer = HAL_Timer_Create("swichap_online", (void (*)(void *))awss_switch_a
 253:C:/Users/stapi/OneDrive/Desktop/GD32VW553/V1_MQTT_OK/GD32VW55X_Wifi_BLE_SDK/GD32VW55x_RELEASE_V1.0.2/MSDK/cloud/alicloud/src/services/dev_bind\awss_report.c ****             }
 254:C:/Users/stapi/OneDrive/Desktop/GD32VW553/V1_MQTT_OK/GD32VW55X_Wifi_BLE_SDK/GD32VW55x_RELEASE_V1.0.2/MSDK/cloud/alicloud/src/services/dev_bind\awss_report.c **** 
 255:C:/Users/stapi/OneDrive/Desktop/GD32VW553/V1_MQTT_OK/GD32VW55X_Wifi_BLE_SDK/GD32VW55x_RELEASE_V1.0.2/MSDK/cloud/alicloud/src/services/dev_bind\awss_report.c ****             HAL_Timer_Stop(switchap_timer);
 256:C:/Users/stapi/OneDrive/Desktop/GD32VW553/V1_MQTT_OK/GD32VW55X_Wifi_BLE_SDK/GD32VW55x_RELEASE_V1.0.2/MSDK/cloud/alicloud/src/services/dev_bind\awss_report.c ****             HAL_Timer_Start(switchap_timer, timeout);
 257:C:/Users/stapi/OneDrive/Desktop/GD32VW553/V1_MQTT_OK/GD32VW55X_Wifi_BLE_SDK/GD32VW55x_RELEASE_V1.0.2/MSDK/cloud/alicloud/src/services/dev_bind\awss_report.c ****         }
 258:C:/Users/stapi/OneDrive/Desktop/GD32VW553/V1_MQTT_OK/GD32VW55X_Wifi_BLE_SDK/GD32VW55x_RELEASE_V1.0.2/MSDK/cloud/alicloud/src/services/dev_bind\awss_report.c ****     } while (0);
 259:C:/Users/stapi/OneDrive/Desktop/GD32VW553/V1_MQTT_OK/GD32VW55X_Wifi_BLE_SDK/GD32VW55x_RELEASE_V1.0.2/MSDK/cloud/alicloud/src/services/dev_bind\awss_report.c **** 
 260:C:/Users/stapi/OneDrive/Desktop/GD32VW553/V1_MQTT_OK/GD32VW55X_Wifi_BLE_SDK/GD32VW55x_RELEASE_V1.0.2/MSDK/cloud/alicloud/src/services/dev_bind\awss_report.c ****     return;
 261:C:/Users/stapi/OneDrive/Desktop/GD32VW553/V1_MQTT_OK/GD32VW55X_Wifi_BLE_SDK/GD32VW55x_RELEASE_V1.0.2/MSDK/cloud/alicloud/src/services/dev_bind\awss_report.c **** 
 262:C:/Users/stapi/OneDrive/Desktop/GD32VW553/V1_MQTT_OK/GD32VW55X_Wifi_BLE_SDK/GD32VW55x_RELEASE_V1.0.2/MSDK/cloud/alicloud/src/services/dev_bind\awss_report.c **** ONLINE_SWITCHAP_FAIL:
 263:C:/Users/stapi/OneDrive/Desktop/GD32VW553/V1_MQTT_OK/GD32VW55X_Wifi_BLE_SDK/GD32VW55x_RELEASE_V1.0.2/MSDK/cloud/alicloud/src/services/dev_bind\awss_report.c ****     awss_warn("ilop online switchap failed");
 264:C:/Users/stapi/OneDrive/Desktop/GD32VW553/V1_MQTT_OK/GD32VW55X_Wifi_BLE_SDK/GD32VW55x_RELEASE_V1.0.2/MSDK/cloud/alicloud/src/services/dev_bind\awss_report.c ****     memset(switchap_ssid, 0, sizeof(switchap_ssid));
 265:C:/Users/stapi/OneDrive/Desktop/GD32VW553/V1_MQTT_OK/GD32VW55X_Wifi_BLE_SDK/GD32VW55x_RELEASE_V1.0.2/MSDK/cloud/alicloud/src/services/dev_bind\awss_report.c ****     memset(switchap_bssid, 0, sizeof(switchap_bssid));
 266:C:/Users/stapi/OneDrive/Desktop/GD32VW553/V1_MQTT_OK/GD32VW55X_Wifi_BLE_SDK/GD32VW55x_RELEASE_V1.0.2/MSDK/cloud/alicloud/src/services/dev_bind\awss_report.c ****     memset(switchap_passwd, 0, sizeof(switchap_passwd));
 267:C:/Users/stapi/OneDrive/Desktop/GD32VW553/V1_MQTT_OK/GD32VW55X_Wifi_BLE_SDK/GD32VW55x_RELEASE_V1.0.2/MSDK/cloud/alicloud/src/services/dev_bind\awss_report.c ****     if (packet) {
 268:C:/Users/stapi/OneDrive/Desktop/GD32VW553/V1_MQTT_OK/GD32VW55X_Wifi_BLE_SDK/GD32VW55x_RELEASE_V1.0.2/MSDK/cloud/alicloud/src/services/dev_bind\awss_report.c ****         os_free(packet);
 269:C:/Users/stapi/OneDrive/Desktop/GD32VW553/V1_MQTT_OK/GD32VW55X_Wifi_BLE_SDK/GD32VW55x_RELEASE_V1.0.2/MSDK/cloud/alicloud/src/services/dev_bind\awss_report.c ****     }
 270:C:/Users/stapi/OneDrive/Desktop/GD32VW553/V1_MQTT_OK/GD32VW55X_Wifi_BLE_SDK/GD32VW55x_RELEASE_V1.0.2/MSDK/cloud/alicloud/src/services/dev_bind\awss_report.c ****     return;
 271:C:/Users/stapi/OneDrive/Desktop/GD32VW553/V1_MQTT_OK/GD32VW55X_Wifi_BLE_SDK/GD32VW55x_RELEASE_V1.0.2/MSDK/cloud/alicloud/src/services/dev_bind\awss_report.c **** }
 272:C:/Users/stapi/OneDrive/Desktop/GD32VW553/V1_MQTT_OK/GD32VW55X_Wifi_BLE_SDK/GD32VW55x_RELEASE_V1.0.2/MSDK/cloud/alicloud/src/services/dev_bind\awss_report.c **** 
 273:C:/Users/stapi/OneDrive/Desktop/GD32VW553/V1_MQTT_OK/GD32VW55X_Wifi_BLE_SDK/GD32VW55x_RELEASE_V1.0.2/MSDK/cloud/alicloud/src/services/dev_bind\awss_report.c **** static void *reboot_timer = NULL;
 274:C:/Users/stapi/OneDrive/Desktop/GD32VW553/V1_MQTT_OK/GD32VW55X_Wifi_BLE_SDK/GD32VW55x_RELEASE_V1.0.2/MSDK/cloud/alicloud/src/services/dev_bind\awss_report.c **** static int awss_switch_ap_online()
 275:C:/Users/stapi/OneDrive/Desktop/GD32VW553/V1_MQTT_OK/GD32VW55X_Wifi_BLE_SDK/GD32VW55x_RELEASE_V1.0.2/MSDK/cloud/alicloud/src/services/dev_bind\awss_report.c **** {
 276:C:/Users/stapi/OneDrive/Desktop/GD32VW553/V1_MQTT_OK/GD32VW55X_Wifi_BLE_SDK/GD32VW55x_RELEASE_V1.0.2/MSDK/cloud/alicloud/src/services/dev_bind\awss_report.c ****     os_awss_connect_ap(WLAN_CONNECTION_TIMEOUT_MS, switchap_ssid, switchap_passwd,
 277:C:/Users/stapi/OneDrive/Desktop/GD32VW553/V1_MQTT_OK/GD32VW55X_Wifi_BLE_SDK/GD32VW55x_RELEASE_V1.0.2/MSDK/cloud/alicloud/src/services/dev_bind\awss_report.c ****                        AWSS_AUTH_TYPE_INVALID, AWSS_ENC_TYPE_INVALID, switchap_bssid, 0);
 278:C:/Users/stapi/OneDrive/Desktop/GD32VW553/V1_MQTT_OK/GD32VW55X_Wifi_BLE_SDK/GD32VW55x_RELEASE_V1.0.2/MSDK/cloud/alicloud/src/services/dev_bind\awss_report.c **** 
 279:C:/Users/stapi/OneDrive/Desktop/GD32VW553/V1_MQTT_OK/GD32VW55X_Wifi_BLE_SDK/GD32VW55x_RELEASE_V1.0.2/MSDK/cloud/alicloud/src/services/dev_bind\awss_report.c ****     awss_stop_timer(switchap_timer);
 280:C:/Users/stapi/OneDrive/Desktop/GD32VW553/V1_MQTT_OK/GD32VW55X_Wifi_BLE_SDK/GD32VW55x_RELEASE_V1.0.2/MSDK/cloud/alicloud/src/services/dev_bind\awss_report.c ****     switchap_timer = NULL;
 281:C:/Users/stapi/OneDrive/Desktop/GD32VW553/V1_MQTT_OK/GD32VW55X_Wifi_BLE_SDK/GD32VW55x_RELEASE_V1.0.2/MSDK/cloud/alicloud/src/services/dev_bind\awss_report.c **** 
 282:C:/Users/stapi/OneDrive/Desktop/GD32VW553/V1_MQTT_OK/GD32VW55X_Wifi_BLE_SDK/GD32VW55x_RELEASE_V1.0.2/MSDK/cloud/alicloud/src/services/dev_bind\awss_report.c ****     memset(switchap_ssid, 0, sizeof(switchap_ssid));
 283:C:/Users/stapi/OneDrive/Desktop/GD32VW553/V1_MQTT_OK/GD32VW55X_Wifi_BLE_SDK/GD32VW55x_RELEASE_V1.0.2/MSDK/cloud/alicloud/src/services/dev_bind\awss_report.c ****     memset(switchap_bssid, 0, sizeof(switchap_bssid));
 284:C:/Users/stapi/OneDrive/Desktop/GD32VW553/V1_MQTT_OK/GD32VW55X_Wifi_BLE_SDK/GD32VW55x_RELEASE_V1.0.2/MSDK/cloud/alicloud/src/services/dev_bind\awss_report.c ****     memset(switchap_passwd, 0, sizeof(switchap_passwd));
 285:C:/Users/stapi/OneDrive/Desktop/GD32VW553/V1_MQTT_OK/GD32VW55X_Wifi_BLE_SDK/GD32VW55x_RELEASE_V1.0.2/MSDK/cloud/alicloud/src/services/dev_bind\awss_report.c **** 
 286:C:/Users/stapi/OneDrive/Desktop/GD32VW553/V1_MQTT_OK/GD32VW55X_Wifi_BLE_SDK/GD32VW55x_RELEASE_V1.0.2/MSDK/cloud/alicloud/src/services/dev_bind\awss_report.c ****     reboot_timer = HAL_Timer_Create("rb_timer", (void (*)(void *))awss_reboot_system, NULL);
 287:C:/Users/stapi/OneDrive/Desktop/GD32VW553/V1_MQTT_OK/GD32VW55X_Wifi_BLE_SDK/GD32VW55x_RELEASE_V1.0.2/MSDK/cloud/alicloud/src/services/dev_bind\awss_report.c ****     HAL_Timer_Start(reboot_timer, 1000);;
 288:C:/Users/stapi/OneDrive/Desktop/GD32VW553/V1_MQTT_OK/GD32VW55X_Wifi_BLE_SDK/GD32VW55x_RELEASE_V1.0.2/MSDK/cloud/alicloud/src/services/dev_bind\awss_report.c **** 
 289:C:/Users/stapi/OneDrive/Desktop/GD32VW553/V1_MQTT_OK/GD32VW55X_Wifi_BLE_SDK/GD32VW55x_RELEASE_V1.0.2/MSDK/cloud/alicloud/src/services/dev_bind\awss_report.c ****     return 0;
 290:C:/Users/stapi/OneDrive/Desktop/GD32VW553/V1_MQTT_OK/GD32VW55X_Wifi_BLE_SDK/GD32VW55x_RELEASE_V1.0.2/MSDK/cloud/alicloud/src/services/dev_bind\awss_report.c **** }
 291:C:/Users/stapi/OneDrive/Desktop/GD32VW553/V1_MQTT_OK/GD32VW55X_Wifi_BLE_SDK/GD32VW55x_RELEASE_V1.0.2/MSDK/cloud/alicloud/src/services/dev_bind\awss_report.c **** 
 292:C:/Users/stapi/OneDrive/Desktop/GD32VW553/V1_MQTT_OK/GD32VW55X_Wifi_BLE_SDK/GD32VW55x_RELEASE_V1.0.2/MSDK/cloud/alicloud/src/services/dev_bind\awss_report.c **** static int awss_reboot_system()
 293:C:/Users/stapi/OneDrive/Desktop/GD32VW553/V1_MQTT_OK/GD32VW55X_Wifi_BLE_SDK/GD32VW55x_RELEASE_V1.0.2/MSDK/cloud/alicloud/src/services/dev_bind\awss_report.c **** {
 294:C:/Users/stapi/OneDrive/Desktop/GD32VW553/V1_MQTT_OK/GD32VW55X_Wifi_BLE_SDK/GD32VW55x_RELEASE_V1.0.2/MSDK/cloud/alicloud/src/services/dev_bind\awss_report.c ****     awss_stop_timer(reboot_timer);
 295:C:/Users/stapi/OneDrive/Desktop/GD32VW553/V1_MQTT_OK/GD32VW55X_Wifi_BLE_SDK/GD32VW55x_RELEASE_V1.0.2/MSDK/cloud/alicloud/src/services/dev_bind\awss_report.c ****     reboot_timer = NULL;
 296:C:/Users/stapi/OneDrive/Desktop/GD32VW553/V1_MQTT_OK/GD32VW55X_Wifi_BLE_SDK/GD32VW55x_RELEASE_V1.0.2/MSDK/cloud/alicloud/src/services/dev_bind\awss_report.c ****     os_reboot();
 297:C:/Users/stapi/OneDrive/Desktop/GD32VW553/V1_MQTT_OK/GD32VW55X_Wifi_BLE_SDK/GD32VW55x_RELEASE_V1.0.2/MSDK/cloud/alicloud/src/services/dev_bind\awss_report.c ****     while (1);
 298:C:/Users/stapi/OneDrive/Desktop/GD32VW553/V1_MQTT_OK/GD32VW55X_Wifi_BLE_SDK/GD32VW55x_RELEASE_V1.0.2/MSDK/cloud/alicloud/src/services/dev_bind\awss_report.c ****     return 0;
 299:C:/Users/stapi/OneDrive/Desktop/GD32VW553/V1_MQTT_OK/GD32VW55X_Wifi_BLE_SDK/GD32VW55x_RELEASE_V1.0.2/MSDK/cloud/alicloud/src/services/dev_bind\awss_report.c **** }
 300:C:/Users/stapi/OneDrive/Desktop/GD32VW553/V1_MQTT_OK/GD32VW55X_Wifi_BLE_SDK/GD32VW55x_RELEASE_V1.0.2/MSDK/cloud/alicloud/src/services/dev_bind\awss_report.c **** #endif
 301:C:/Users/stapi/OneDrive/Desktop/GD32VW553/V1_MQTT_OK/GD32VW55X_Wifi_BLE_SDK/GD32VW55x_RELEASE_V1.0.2/MSDK/cloud/alicloud/src/services/dev_bind\awss_report.c **** 
 302:C:/Users/stapi/OneDrive/Desktop/GD32VW553/V1_MQTT_OK/GD32VW55X_Wifi_BLE_SDK/GD32VW55x_RELEASE_V1.0.2/MSDK/cloud/alicloud/src/services/dev_bind\awss_report.c **** static int awss_report_token_to_cloud()
 303:C:/Users/stapi/OneDrive/Desktop/GD32VW553/V1_MQTT_OK/GD32VW55X_Wifi_BLE_SDK/GD32VW55x_RELEASE_V1.0.2/MSDK/cloud/alicloud/src/services/dev_bind\awss_report.c **** {
 115              		.loc 2 303 1 is_stmt 1
 116              		.cfi_startproc
 117 0000 17030000 		call	t0,__riscv_save_4
 117      E7020300 
 118              		.cfi_offset 19, -20
 119              		.cfi_offset 18, -16
 120              		.cfi_offset 9, -12
 121              		.cfi_offset 8, -8
 122              		.cfi_offset 1, -4
 123              		.cfi_def_cfa_offset 32
 304:C:/Users/stapi/OneDrive/Desktop/GD32VW553/V1_MQTT_OK/GD32VW55X_Wifi_BLE_SDK/GD32VW55x_RELEASE_V1.0.2/MSDK/cloud/alicloud/src/services/dev_bind\awss_report.c **** #define REPORT_TOKEN_PARAM_LEN  (64)
 305:C:/Users/stapi/OneDrive/Desktop/GD32VW553/V1_MQTT_OK/GD32VW55X_Wifi_BLE_SDK/GD32VW55x_RELEASE_V1.0.2/MSDK/cloud/alicloud/src/services/dev_bind\awss_report.c **** #define REPORT_TOKEN_STATE_MSG_LEN  (64)
 306:C:/Users/stapi/OneDrive/Desktop/GD32VW553/V1_MQTT_OK/GD32VW55X_Wifi_BLE_SDK/GD32VW55x_RELEASE_V1.0.2/MSDK/cloud/alicloud/src/services/dev_bind\awss_report.c ****     char token_state_msg[REPORT_TOKEN_STATE_MSG_LEN];
 124              		.loc 2 306 5
 307:C:/Users/stapi/OneDrive/Desktop/GD32VW553/V1_MQTT_OK/GD32VW55X_Wifi_BLE_SDK/GD32VW55x_RELEASE_V1.0.2/MSDK/cloud/alicloud/src/services/dev_bind\awss_report.c **** 
 308:C:/Users/stapi/OneDrive/Desktop/GD32VW553/V1_MQTT_OK/GD32VW55X_Wifi_BLE_SDK/GD32VW55x_RELEASE_V1.0.2/MSDK/cloud/alicloud/src/services/dev_bind\awss_report.c ****     if (awss_report_token_suc) { // success ,no need to report
 125              		.loc 2 308 5
 126              		.loc 2 308 9 is_stmt 0
 127 0008 B7070000 		lui	a5,%hi(.LANCHOR1)
 128 000c 83C70700 		lbu	a5,%lo(.LANCHOR1)(a5)
 303:C:/Users/stapi/OneDrive/Desktop/GD32VW553/V1_MQTT_OK/GD32VW55X_Wifi_BLE_SDK/GD32VW55x_RELEASE_V1.0.2/MSDK/cloud/alicloud/src/services/dev_bind\awss_report.c **** #define REPORT_TOKEN_PARAM_LEN  (64)
 129              		.loc 2 303 1
 130 0010 1171     		addi	sp,sp,-256
 131              		.cfi_def_cfa_offset 288
 132              		.loc 2 308 9
 133 0012 93974760 		sext.b	a5,a5
 134              		.loc 2 308 8
 135 0016 8DC7     		beq	a5,zero,.L5
 309:C:/Users/stapi/OneDrive/Desktop/GD32VW553/V1_MQTT_OK/GD32VW55X_Wifi_BLE_SDK/GD32VW55x_RELEASE_V1.0.2/MSDK/cloud/alicloud/src/services/dev_bind\awss_report.c ****         dump_dev_bind_status(STATE_BIND_ALREADY_RESET, "bind token already report success");
 136              		.loc 2 309 9 is_stmt 1
 137 0018 7D74     		li	s0,-4096
 138 001a 37060000 		lui	a2,%hi(.LC0)
 139 001e 9305F47E 		addi	a1,s0,2031
 140 0022 13060600 		addi	a2,a2,%lo(.LC0)
 141 0026 7D45     		li	a0,31
 142 0028 97000000 		call	iotx_state_event
 142      E7800000 
 143              	.LVL2:
 310:C:/Users/stapi/OneDrive/Desktop/GD32VW553/V1_MQTT_OK/GD32VW55X_Wifi_BLE_SDK/GD32VW55x_RELEASE_V1.0.2/MSDK/cloud/alicloud/src/services/dev_bind\awss_report.c ****         return STATE_BIND_ALREADY_REPORT;
 144              		.loc 2 310 9
 145              		.loc 2 310 16 is_stmt 0
 146 0030 1304F47B 		addi	s0,s0,1983
 147              	.L4:
 311:C:/Users/stapi/OneDrive/Desktop/GD32VW553/V1_MQTT_OK/GD32VW55X_Wifi_BLE_SDK/GD32VW55x_RELEASE_V1.0.2/MSDK/cloud/alicloud/src/services/dev_bind\awss_report.c ****     }
 312:C:/Users/stapi/OneDrive/Desktop/GD32VW553/V1_MQTT_OK/GD32VW55X_Wifi_BLE_SDK/GD32VW55x_RELEASE_V1.0.2/MSDK/cloud/alicloud/src/services/dev_bind\awss_report.c **** 
 313:C:/Users/stapi/OneDrive/Desktop/GD32VW553/V1_MQTT_OK/GD32VW55X_Wifi_BLE_SDK/GD32VW55x_RELEASE_V1.0.2/MSDK/cloud/alicloud/src/services/dev_bind\awss_report.c ****     AWSS_DB_UPDATE_STATIS(AWSS_DB_STATIS_START);
 314:C:/Users/stapi/OneDrive/Desktop/GD32VW553/V1_MQTT_OK/GD32VW55X_Wifi_BLE_SDK/GD32VW55x_RELEASE_V1.0.2/MSDK/cloud/alicloud/src/services/dev_bind\awss_report.c **** 
 315:C:/Users/stapi/OneDrive/Desktop/GD32VW553/V1_MQTT_OK/GD32VW55X_Wifi_BLE_SDK/GD32VW55x_RELEASE_V1.0.2/MSDK/cloud/alicloud/src/services/dev_bind\awss_report.c ****     /*
 316:C:/Users/stapi/OneDrive/Desktop/GD32VW553/V1_MQTT_OK/GD32VW55X_Wifi_BLE_SDK/GD32VW55x_RELEASE_V1.0.2/MSDK/cloud/alicloud/src/services/dev_bind\awss_report.c ****      * it is still failed after try to report token MATCH_REPORT_CNT_MAX times
 317:C:/Users/stapi/OneDrive/Desktop/GD32VW553/V1_MQTT_OK/GD32VW55X_Wifi_BLE_SDK/GD32VW55x_RELEASE_V1.0.2/MSDK/cloud/alicloud/src/services/dev_bind\awss_report.c ****      */
 318:C:/Users/stapi/OneDrive/Desktop/GD32VW553/V1_MQTT_OK/GD32VW55X_Wifi_BLE_SDK/GD32VW55x_RELEASE_V1.0.2/MSDK/cloud/alicloud/src/services/dev_bind\awss_report.c ****     if (awss_report_token_cnt ++ > MATCH_REPORT_CNT_MAX) {
 319:C:/Users/stapi/OneDrive/Desktop/GD32VW553/V1_MQTT_OK/GD32VW55X_Wifi_BLE_SDK/GD32VW55x_RELEASE_V1.0.2/MSDK/cloud/alicloud/src/services/dev_bind\awss_report.c ****         awss_stop_timer(report_token_timer);
 320:C:/Users/stapi/OneDrive/Desktop/GD32VW553/V1_MQTT_OK/GD32VW55X_Wifi_BLE_SDK/GD32VW55x_RELEASE_V1.0.2/MSDK/cloud/alicloud/src/services/dev_bind\awss_report.c ****         report_token_timer = NULL;
 321:C:/Users/stapi/OneDrive/Desktop/GD32VW553/V1_MQTT_OK/GD32VW55X_Wifi_BLE_SDK/GD32VW55x_RELEASE_V1.0.2/MSDK/cloud/alicloud/src/services/dev_bind\awss_report.c ****         awss_info("try %d times fail", awss_report_token_cnt);
 322:C:/Users/stapi/OneDrive/Desktop/GD32VW553/V1_MQTT_OK/GD32VW55X_Wifi_BLE_SDK/GD32VW55x_RELEASE_V1.0.2/MSDK/cloud/alicloud/src/services/dev_bind\awss_report.c ****         dump_dev_bind_status(STATE_BIND_REPORT_TOKEN_TIMEOUT, "report token timeout");
 323:C:/Users/stapi/OneDrive/Desktop/GD32VW553/V1_MQTT_OK/GD32VW55X_Wifi_BLE_SDK/GD32VW55x_RELEASE_V1.0.2/MSDK/cloud/alicloud/src/services/dev_bind\awss_report.c ****         return STATE_BIND_REPORT_TOKEN_TIMEOUT;
 324:C:/Users/stapi/OneDrive/Desktop/GD32VW553/V1_MQTT_OK/GD32VW55X_Wifi_BLE_SDK/GD32VW55x_RELEASE_V1.0.2/MSDK/cloud/alicloud/src/services/dev_bind\awss_report.c ****     }
 325:C:/Users/stapi/OneDrive/Desktop/GD32VW553/V1_MQTT_OK/GD32VW55X_Wifi_BLE_SDK/GD32VW55x_RELEASE_V1.0.2/MSDK/cloud/alicloud/src/services/dev_bind\awss_report.c **** 
 326:C:/Users/stapi/OneDrive/Desktop/GD32VW553/V1_MQTT_OK/GD32VW55X_Wifi_BLE_SDK/GD32VW55x_RELEASE_V1.0.2/MSDK/cloud/alicloud/src/services/dev_bind\awss_report.c ****     if (report_token_timer == NULL) {
 327:C:/Users/stapi/OneDrive/Desktop/GD32VW553/V1_MQTT_OK/GD32VW55X_Wifi_BLE_SDK/GD32VW55x_RELEASE_V1.0.2/MSDK/cloud/alicloud/src/services/dev_bind\awss_report.c ****         report_token_timer = HAL_Timer_Create("rp_token", (void (*)(void *))awss_report_token_to_cl
 328:C:/Users/stapi/OneDrive/Desktop/GD32VW553/V1_MQTT_OK/GD32VW55X_Wifi_BLE_SDK/GD32VW55x_RELEASE_V1.0.2/MSDK/cloud/alicloud/src/services/dev_bind\awss_report.c ****     }
 329:C:/Users/stapi/OneDrive/Desktop/GD32VW553/V1_MQTT_OK/GD32VW55X_Wifi_BLE_SDK/GD32VW55x_RELEASE_V1.0.2/MSDK/cloud/alicloud/src/services/dev_bind\awss_report.c ****     HAL_Timer_Stop(report_token_timer);
 330:C:/Users/stapi/OneDrive/Desktop/GD32VW553/V1_MQTT_OK/GD32VW55X_Wifi_BLE_SDK/GD32VW55x_RELEASE_V1.0.2/MSDK/cloud/alicloud/src/services/dev_bind\awss_report.c ****     HAL_Timer_Start(report_token_timer, 3 * 1000);
 331:C:/Users/stapi/OneDrive/Desktop/GD32VW553/V1_MQTT_OK/GD32VW55X_Wifi_BLE_SDK/GD32VW55x_RELEASE_V1.0.2/MSDK/cloud/alicloud/src/services/dev_bind\awss_report.c **** 
 332:C:/Users/stapi/OneDrive/Desktop/GD32VW553/V1_MQTT_OK/GD32VW55X_Wifi_BLE_SDK/GD32VW55x_RELEASE_V1.0.2/MSDK/cloud/alicloud/src/services/dev_bind\awss_report.c ****     int packet_len = AWSS_REPORT_LEN_MAX;
 333:C:/Users/stapi/OneDrive/Desktop/GD32VW553/V1_MQTT_OK/GD32VW55X_Wifi_BLE_SDK/GD32VW55x_RELEASE_V1.0.2/MSDK/cloud/alicloud/src/services/dev_bind\awss_report.c **** 
 334:C:/Users/stapi/OneDrive/Desktop/GD32VW553/V1_MQTT_OK/GD32VW55X_Wifi_BLE_SDK/GD32VW55x_RELEASE_V1.0.2/MSDK/cloud/alicloud/src/services/dev_bind\awss_report.c ****     char *packet = os_zalloc(packet_len + 1);
 335:C:/Users/stapi/OneDrive/Desktop/GD32VW553/V1_MQTT_OK/GD32VW55X_Wifi_BLE_SDK/GD32VW55x_RELEASE_V1.0.2/MSDK/cloud/alicloud/src/services/dev_bind\awss_report.c ****     if (packet == NULL) {
 336:C:/Users/stapi/OneDrive/Desktop/GD32VW553/V1_MQTT_OK/GD32VW55X_Wifi_BLE_SDK/GD32VW55x_RELEASE_V1.0.2/MSDK/cloud/alicloud/src/services/dev_bind\awss_report.c ****         awss_err("alloc mem(%d) failed", packet_len);
 337:C:/Users/stapi/OneDrive/Desktop/GD32VW553/V1_MQTT_OK/GD32VW55X_Wifi_BLE_SDK/GD32VW55x_RELEASE_V1.0.2/MSDK/cloud/alicloud/src/services/dev_bind\awss_report.c ****         return STATE_SYS_DEPEND_MALLOC;
 338:C:/Users/stapi/OneDrive/Desktop/GD32VW553/V1_MQTT_OK/GD32VW55X_Wifi_BLE_SDK/GD32VW55x_RELEASE_V1.0.2/MSDK/cloud/alicloud/src/services/dev_bind\awss_report.c ****     }
 339:C:/Users/stapi/OneDrive/Desktop/GD32VW553/V1_MQTT_OK/GD32VW55X_Wifi_BLE_SDK/GD32VW55x_RELEASE_V1.0.2/MSDK/cloud/alicloud/src/services/dev_bind\awss_report.c **** 
 340:C:/Users/stapi/OneDrive/Desktop/GD32VW553/V1_MQTT_OK/GD32VW55X_Wifi_BLE_SDK/GD32VW55x_RELEASE_V1.0.2/MSDK/cloud/alicloud/src/services/dev_bind\awss_report.c ****     do {
 341:C:/Users/stapi/OneDrive/Desktop/GD32VW553/V1_MQTT_OK/GD32VW55X_Wifi_BLE_SDK/GD32VW55x_RELEASE_V1.0.2/MSDK/cloud/alicloud/src/services/dev_bind\awss_report.c ****         // reduce stack used
 342:C:/Users/stapi/OneDrive/Desktop/GD32VW553/V1_MQTT_OK/GD32VW55X_Wifi_BLE_SDK/GD32VW55x_RELEASE_V1.0.2/MSDK/cloud/alicloud/src/services/dev_bind\awss_report.c ****         uint8_t i;
 343:C:/Users/stapi/OneDrive/Desktop/GD32VW553/V1_MQTT_OK/GD32VW55X_Wifi_BLE_SDK/GD32VW55x_RELEASE_V1.0.2/MSDK/cloud/alicloud/src/services/dev_bind\awss_report.c ****         bind_token_type_t token_type;
 344:C:/Users/stapi/OneDrive/Desktop/GD32VW553/V1_MQTT_OK/GD32VW55X_Wifi_BLE_SDK/GD32VW55x_RELEASE_V1.0.2/MSDK/cloud/alicloud/src/services/dev_bind\awss_report.c ****         char id_str[MSG_REQ_ID_LEN] = {0};
 345:C:/Users/stapi/OneDrive/Desktop/GD32VW553/V1_MQTT_OK/GD32VW55X_Wifi_BLE_SDK/GD32VW55x_RELEASE_V1.0.2/MSDK/cloud/alicloud/src/services/dev_bind\awss_report.c ****         char param[REPORT_TOKEN_PARAM_LEN] = {0};
 346:C:/Users/stapi/OneDrive/Desktop/GD32VW553/V1_MQTT_OK/GD32VW55X_Wifi_BLE_SDK/GD32VW55x_RELEASE_V1.0.2/MSDK/cloud/alicloud/src/services/dev_bind\awss_report.c ****         unsigned char token_str[RANDOM_STR_MAX_LEN] = {0};
 347:C:/Users/stapi/OneDrive/Desktop/GD32VW553/V1_MQTT_OK/GD32VW55X_Wifi_BLE_SDK/GD32VW55x_RELEASE_V1.0.2/MSDK/cloud/alicloud/src/services/dev_bind\awss_report.c **** 
 348:C:/Users/stapi/OneDrive/Desktop/GD32VW553/V1_MQTT_OK/GD32VW55X_Wifi_BLE_SDK/GD32VW55x_RELEASE_V1.0.2/MSDK/cloud/alicloud/src/services/dev_bind\awss_report.c ****         awss_report_token_time = os_get_time_ms();
 349:C:/Users/stapi/OneDrive/Desktop/GD32VW553/V1_MQTT_OK/GD32VW55X_Wifi_BLE_SDK/GD32VW55x_RELEASE_V1.0.2/MSDK/cloud/alicloud/src/services/dev_bind\awss_report.c **** 
 350:C:/Users/stapi/OneDrive/Desktop/GD32VW553/V1_MQTT_OK/GD32VW55X_Wifi_BLE_SDK/GD32VW55x_RELEASE_V1.0.2/MSDK/cloud/alicloud/src/services/dev_bind\awss_report.c ****         snprintf(id_str, MSG_REQ_ID_LEN - 1, "\"%u\"", awss_report_id ++);
 351:C:/Users/stapi/OneDrive/Desktop/GD32VW553/V1_MQTT_OK/GD32VW55X_Wifi_BLE_SDK/GD32VW55x_RELEASE_V1.0.2/MSDK/cloud/alicloud/src/services/dev_bind\awss_report.c **** 
 352:C:/Users/stapi/OneDrive/Desktop/GD32VW553/V1_MQTT_OK/GD32VW55X_Wifi_BLE_SDK/GD32VW55x_RELEASE_V1.0.2/MSDK/cloud/alicloud/src/services/dev_bind\awss_report.c ****         awss_get_token(token_str, RANDOM_STR_MAX_LEN, &token_type);
 353:C:/Users/stapi/OneDrive/Desktop/GD32VW553/V1_MQTT_OK/GD32VW55X_Wifi_BLE_SDK/GD32VW55x_RELEASE_V1.0.2/MSDK/cloud/alicloud/src/services/dev_bind\awss_report.c ****         snprintf(param, REPORT_TOKEN_PARAM_LEN - 1, "{\"token\":\"%s\"}", token_str);
 354:C:/Users/stapi/OneDrive/Desktop/GD32VW553/V1_MQTT_OK/GD32VW55X_Wifi_BLE_SDK/GD32VW55x_RELEASE_V1.0.2/MSDK/cloud/alicloud/src/services/dev_bind\awss_report.c ****         awss_build_packet(AWSS_CMP_PKT_TYPE_REQ, id_str, ILOP_VER, METHOD_MATCH_REPORT, param, 0, p
 355:C:/Users/stapi/OneDrive/Desktop/GD32VW553/V1_MQTT_OK/GD32VW55X_Wifi_BLE_SDK/GD32VW55x_RELEASE_V1.0.2/MSDK/cloud/alicloud/src/services/dev_bind\awss_report.c **** 
 356:C:/Users/stapi/OneDrive/Desktop/GD32VW553/V1_MQTT_OK/GD32VW55X_Wifi_BLE_SDK/GD32VW55x_RELEASE_V1.0.2/MSDK/cloud/alicloud/src/services/dev_bind\awss_report.c ****         HAL_Snprintf(token_state_msg, REPORT_TOKEN_STATE_MSG_LEN, "report token:%s to cloud", token
 357:C:/Users/stapi/OneDrive/Desktop/GD32VW553/V1_MQTT_OK/GD32VW55X_Wifi_BLE_SDK/GD32VW55x_RELEASE_V1.0.2/MSDK/cloud/alicloud/src/services/dev_bind\awss_report.c ****         dump_dev_bind_status(STATE_BIND_REPORT_TOKEN, token_state_msg);        
 358:C:/Users/stapi/OneDrive/Desktop/GD32VW553/V1_MQTT_OK/GD32VW55X_Wifi_BLE_SDK/GD32VW55x_RELEASE_V1.0.2/MSDK/cloud/alicloud/src/services/dev_bind\awss_report.c ****     } while (0);
 359:C:/Users/stapi/OneDrive/Desktop/GD32VW553/V1_MQTT_OK/GD32VW55X_Wifi_BLE_SDK/GD32VW55x_RELEASE_V1.0.2/MSDK/cloud/alicloud/src/services/dev_bind\awss_report.c **** 
 360:C:/Users/stapi/OneDrive/Desktop/GD32VW553/V1_MQTT_OK/GD32VW55X_Wifi_BLE_SDK/GD32VW55x_RELEASE_V1.0.2/MSDK/cloud/alicloud/src/services/dev_bind\awss_report.c ****     awss_debug("report token:%s\r\n", packet);
 361:C:/Users/stapi/OneDrive/Desktop/GD32VW553/V1_MQTT_OK/GD32VW55X_Wifi_BLE_SDK/GD32VW55x_RELEASE_V1.0.2/MSDK/cloud/alicloud/src/services/dev_bind\awss_report.c ****     char topic[TOPIC_LEN_MAX] = {0};
 362:C:/Users/stapi/OneDrive/Desktop/GD32VW553/V1_MQTT_OK/GD32VW55X_Wifi_BLE_SDK/GD32VW55x_RELEASE_V1.0.2/MSDK/cloud/alicloud/src/services/dev_bind\awss_report.c ****     awss_build_topic(TOPIC_MATCH_REPORT, topic, TOPIC_LEN_MAX);
 363:C:/Users/stapi/OneDrive/Desktop/GD32VW553/V1_MQTT_OK/GD32VW55X_Wifi_BLE_SDK/GD32VW55x_RELEASE_V1.0.2/MSDK/cloud/alicloud/src/services/dev_bind\awss_report.c **** 
 364:C:/Users/stapi/OneDrive/Desktop/GD32VW553/V1_MQTT_OK/GD32VW55X_Wifi_BLE_SDK/GD32VW55x_RELEASE_V1.0.2/MSDK/cloud/alicloud/src/services/dev_bind\awss_report.c ****     int ret = awss_cmp_mqtt_send(topic, packet, packet_len, 1);
 365:C:/Users/stapi/OneDrive/Desktop/GD32VW553/V1_MQTT_OK/GD32VW55X_Wifi_BLE_SDK/GD32VW55x_RELEASE_V1.0.2/MSDK/cloud/alicloud/src/services/dev_bind\awss_report.c **** 
 366:C:/Users/stapi/OneDrive/Desktop/GD32VW553/V1_MQTT_OK/GD32VW55X_Wifi_BLE_SDK/GD32VW55x_RELEASE_V1.0.2/MSDK/cloud/alicloud/src/services/dev_bind\awss_report.c ****     awss_info("report token res:%d\r\n", ret);
 367:C:/Users/stapi/OneDrive/Desktop/GD32VW553/V1_MQTT_OK/GD32VW55X_Wifi_BLE_SDK/GD32VW55x_RELEASE_V1.0.2/MSDK/cloud/alicloud/src/services/dev_bind\awss_report.c ****     if (ret < 0) {
 368:C:/Users/stapi/OneDrive/Desktop/GD32VW553/V1_MQTT_OK/GD32VW55X_Wifi_BLE_SDK/GD32VW55x_RELEASE_V1.0.2/MSDK/cloud/alicloud/src/services/dev_bind\awss_report.c ****         // if ret > 0, means send success, and ret value is msg id
 369:C:/Users/stapi/OneDrive/Desktop/GD32VW553/V1_MQTT_OK/GD32VW55X_Wifi_BLE_SDK/GD32VW55x_RELEASE_V1.0.2/MSDK/cloud/alicloud/src/services/dev_bind\awss_report.c ****         dump_dev_bind_status(STATE_BIND_REPORT_TOKEN_FAIL, "report token fail, reason(%d)", ret);
 370:C:/Users/stapi/OneDrive/Desktop/GD32VW553/V1_MQTT_OK/GD32VW55X_Wifi_BLE_SDK/GD32VW55x_RELEASE_V1.0.2/MSDK/cloud/alicloud/src/services/dev_bind\awss_report.c ****     }
 371:C:/Users/stapi/OneDrive/Desktop/GD32VW553/V1_MQTT_OK/GD32VW55X_Wifi_BLE_SDK/GD32VW55x_RELEASE_V1.0.2/MSDK/cloud/alicloud/src/services/dev_bind\awss_report.c ****     os_free(packet);
 372:C:/Users/stapi/OneDrive/Desktop/GD32VW553/V1_MQTT_OK/GD32VW55X_Wifi_BLE_SDK/GD32VW55x_RELEASE_V1.0.2/MSDK/cloud/alicloud/src/services/dev_bind\awss_report.c **** 
 373:C:/Users/stapi/OneDrive/Desktop/GD32VW553/V1_MQTT_OK/GD32VW55X_Wifi_BLE_SDK/GD32VW55x_RELEASE_V1.0.2/MSDK/cloud/alicloud/src/services/dev_bind\awss_report.c ****     return ret;
 374:C:/Users/stapi/OneDrive/Desktop/GD32VW553/V1_MQTT_OK/GD32VW55X_Wifi_BLE_SDK/GD32VW55x_RELEASE_V1.0.2/MSDK/cloud/alicloud/src/services/dev_bind\awss_report.c **** }
 148              		.loc 2 374 1
 149 0034 2285     		mv	a0,s0
 150 0036 1161     		addi	sp,sp,256
 151              		.cfi_remember_state
 152              		.cfi_def_cfa_offset 0
 153 0038 17030000 		tail	__riscv_restore_4
 153      67000300 
 154              		.cfi_restore 19
 155              		.cfi_restore 18
 156              		.cfi_restore 9
 157              		.cfi_restore 8
 158              		.cfi_restore 1
 159              		.cfi_def_cfa_offset -32
 160              	.L5:
 161              		.cfi_restore_state
 313:C:/Users/stapi/OneDrive/Desktop/GD32VW553/V1_MQTT_OK/GD32VW55X_Wifi_BLE_SDK/GD32VW55x_RELEASE_V1.0.2/MSDK/cloud/alicloud/src/services/dev_bind\awss_report.c **** 
 162              		.loc 2 313 5 is_stmt 1
 163 0040 0145     		li	a0,0
 318:C:/Users/stapi/OneDrive/Desktop/GD32VW553/V1_MQTT_OK/GD32VW55X_Wifi_BLE_SDK/GD32VW55x_RELEASE_V1.0.2/MSDK/cloud/alicloud/src/services/dev_bind\awss_report.c ****         awss_stop_timer(report_token_timer);
 164              		.loc 2 318 31 is_stmt 0
 165 0042 B7040000 		lui	s1,%hi(.LANCHOR2)
 313:C:/Users/stapi/OneDrive/Desktop/GD32VW553/V1_MQTT_OK/GD32VW55X_Wifi_BLE_SDK/GD32VW55x_RELEASE_V1.0.2/MSDK/cloud/alicloud/src/services/dev_bind\awss_report.c **** 
 166              		.loc 2 313 5
 167 0046 97000000 		call	awss_bind_update_statis
 167      E7800000 
 168              	.LVL3:
 318:C:/Users/stapi/OneDrive/Desktop/GD32VW553/V1_MQTT_OK/GD32VW55X_Wifi_BLE_SDK/GD32VW55x_RELEASE_V1.0.2/MSDK/cloud/alicloud/src/services/dev_bind\awss_report.c ****         awss_stop_timer(report_token_timer);
 169              		.loc 2 318 5 is_stmt 1
 318:C:/Users/stapi/OneDrive/Desktop/GD32VW553/V1_MQTT_OK/GD32VW55X_Wifi_BLE_SDK/GD32VW55x_RELEASE_V1.0.2/MSDK/cloud/alicloud/src/services/dev_bind\awss_report.c ****         awss_stop_timer(report_token_timer);
 170              		.loc 2 318 31 is_stmt 0
 171 004e 93840400 		addi	s1,s1,%lo(.LANCHOR2)
 172 0052 83C70400 		lbu	a5,0(s1)
 173 0056 37040000 		lui	s0,%hi(.LANCHOR3)
 174 005a 13040400 		addi	s0,s0,%lo(.LANCHOR3)
 175 005e 93974760 		sext.b	a5,a5
 176 0062 13871700 		addi	a4,a5,1
 177 0066 13174760 		sext.b	a4,a4
 178 006a 2380E400 		sb	a4,0(s1)
 318:C:/Users/stapi/OneDrive/Desktop/GD32VW553/V1_MQTT_OK/GD32VW55X_Wifi_BLE_SDK/GD32VW55x_RELEASE_V1.0.2/MSDK/cloud/alicloud/src/services/dev_bind\awss_report.c ****         awss_stop_timer(report_token_timer);
 179              		.loc 2 318 8
 180 006e 0947     		li	a4,2
 181 0070 37090000 		lui	s2,%hi(.LC3)
 182 0074 6352F706 		ble	a5,a4,.L7
 319:C:/Users/stapi/OneDrive/Desktop/GD32VW553/V1_MQTT_OK/GD32VW55X_Wifi_BLE_SDK/GD32VW55x_RELEASE_V1.0.2/MSDK/cloud/alicloud/src/services/dev_bind\awss_report.c ****         report_token_timer = NULL;
 183              		.loc 2 319 9 is_stmt 1
 184 0078 0840     		lw	a0,0(s0)
 185 007a 97000000 		call	awss_stop_timer
 185      E7800000 
 186              	.LVL4:
 320:C:/Users/stapi/OneDrive/Desktop/GD32VW553/V1_MQTT_OK/GD32VW55X_Wifi_BLE_SDK/GD32VW55x_RELEASE_V1.0.2/MSDK/cloud/alicloud/src/services/dev_bind\awss_report.c ****         awss_info("try %d times fail", awss_report_token_cnt);
 187              		.loc 2 320 9
 321:C:/Users/stapi/OneDrive/Desktop/GD32VW553/V1_MQTT_OK/GD32VW55X_Wifi_BLE_SDK/GD32VW55x_RELEASE_V1.0.2/MSDK/cloud/alicloud/src/services/dev_bind\awss_report.c ****         dump_dev_bind_status(STATE_BIND_REPORT_TOKEN_TIMEOUT, "report token timeout");
 188              		.loc 2 321 9 is_stmt 0
 189 0082 37050000 		lui	a0,%hi(.LC1)
 190 0086 13050500 		addi	a0,a0,%lo(.LC1)
 320:C:/Users/stapi/OneDrive/Desktop/GD32VW553/V1_MQTT_OK/GD32VW55X_Wifi_BLE_SDK/GD32VW55x_RELEASE_V1.0.2/MSDK/cloud/alicloud/src/services/dev_bind\awss_report.c ****         awss_info("try %d times fail", awss_report_token_cnt);
 191              		.loc 2 320 28
 192 008a 23200400 		sw	zero,0(s0)
 321:C:/Users/stapi/OneDrive/Desktop/GD32VW553/V1_MQTT_OK/GD32VW55X_Wifi_BLE_SDK/GD32VW55x_RELEASE_V1.0.2/MSDK/cloud/alicloud/src/services/dev_bind\awss_report.c ****         dump_dev_bind_status(STATE_BIND_REPORT_TOKEN_TIMEOUT, "report token timeout");
 193              		.loc 2 321 9 is_stmt 1
 321:C:/Users/stapi/OneDrive/Desktop/GD32VW553/V1_MQTT_OK/GD32VW55X_Wifi_BLE_SDK/GD32VW55x_RELEASE_V1.0.2/MSDK/cloud/alicloud/src/services/dev_bind\awss_report.c ****         dump_dev_bind_status(STATE_BIND_REPORT_TOKEN_TIMEOUT, "report token timeout");
 194              		.loc 2 321 9
 195 008e 97000000 		call	HAL_Printf
 195      E7800000 
 196              	.LVL5:
 321:C:/Users/stapi/OneDrive/Desktop/GD32VW553/V1_MQTT_OK/GD32VW55X_Wifi_BLE_SDK/GD32VW55x_RELEASE_V1.0.2/MSDK/cloud/alicloud/src/services/dev_bind\awss_report.c ****         dump_dev_bind_status(STATE_BIND_REPORT_TOKEN_TIMEOUT, "report token timeout");
 197              		.loc 2 321 9
 198 0096 83C50400 		lbu	a1,0(s1)
 199 009a 37050000 		lui	a0,%hi(.LC2)
 200 009e 13050500 		addi	a0,a0,%lo(.LC2)
 201 00a2 93954560 		sext.b	a1,a1
 202 00a6 97000000 		call	HAL_Printf
 202      E7800000 
 203              	.LVL6:
 321:C:/Users/stapi/OneDrive/Desktop/GD32VW553/V1_MQTT_OK/GD32VW55X_Wifi_BLE_SDK/GD32VW55x_RELEASE_V1.0.2/MSDK/cloud/alicloud/src/services/dev_bind\awss_report.c ****         dump_dev_bind_status(STATE_BIND_REPORT_TOKEN_TIMEOUT, "report token timeout");
 204              		.loc 2 321 9
 205 00ae 13050900 		addi	a0,s2,%lo(.LC3)
 206 00b2 97000000 		call	HAL_Printf
 206      E7800000 
 207              	.LVL7:
 321:C:/Users/stapi/OneDrive/Desktop/GD32VW553/V1_MQTT_OK/GD32VW55X_Wifi_BLE_SDK/GD32VW55x_RELEASE_V1.0.2/MSDK/cloud/alicloud/src/services/dev_bind\awss_report.c ****         dump_dev_bind_status(STATE_BIND_REPORT_TOKEN_TIMEOUT, "report token timeout");
 208              		.loc 2 321 9
 322:C:/Users/stapi/OneDrive/Desktop/GD32VW553/V1_MQTT_OK/GD32VW55X_Wifi_BLE_SDK/GD32VW55x_RELEASE_V1.0.2/MSDK/cloud/alicloud/src/services/dev_bind\awss_report.c ****         return STATE_BIND_REPORT_TOKEN_TIMEOUT;
 209              		.loc 2 322 9
 210 00ba 7D74     		li	s0,-4096
 211 00bc 37060000 		lui	a2,%hi(.LC4)
 212 00c0 9305E47E 		addi	a1,s0,2030
 213 00c4 13060600 		addi	a2,a2,%lo(.LC4)
 214 00c8 7D45     		li	a0,31
 215 00ca 97000000 		call	iotx_state_event
 215      E7800000 
 216              	.LVL8:
 323:C:/Users/stapi/OneDrive/Desktop/GD32VW553/V1_MQTT_OK/GD32VW55X_Wifi_BLE_SDK/GD32VW55x_RELEASE_V1.0.2/MSDK/cloud/alicloud/src/services/dev_bind\awss_report.c ****     }
 217              		.loc 2 323 9
 323:C:/Users/stapi/OneDrive/Desktop/GD32VW553/V1_MQTT_OK/GD32VW55X_Wifi_BLE_SDK/GD32VW55x_RELEASE_V1.0.2/MSDK/cloud/alicloud/src/services/dev_bind\awss_report.c ****     }
 218              		.loc 2 323 16 is_stmt 0
 219 00d2 1304E47E 		addi	s0,s0,2030
 220 00d6 B9BF     		j	.L4
 221              	.L7:
 326:C:/Users/stapi/OneDrive/Desktop/GD32VW553/V1_MQTT_OK/GD32VW55X_Wifi_BLE_SDK/GD32VW55x_RELEASE_V1.0.2/MSDK/cloud/alicloud/src/services/dev_bind\awss_report.c ****         report_token_timer = HAL_Timer_Create("rp_token", (void (*)(void *))awss_report_token_to_cl
 222              		.loc 2 326 5 is_stmt 1
 326:C:/Users/stapi/OneDrive/Desktop/GD32VW553/V1_MQTT_OK/GD32VW55X_Wifi_BLE_SDK/GD32VW55x_RELEASE_V1.0.2/MSDK/cloud/alicloud/src/services/dev_bind\awss_report.c ****         report_token_timer = HAL_Timer_Create("rp_token", (void (*)(void *))awss_report_token_to_cl
 223              		.loc 2 326 8 is_stmt 0
 224 00d8 1C40     		lw	a5,0(s0)
 225 00da 99EF     		bne	a5,zero,.L8
 327:C:/Users/stapi/OneDrive/Desktop/GD32VW553/V1_MQTT_OK/GD32VW55X_Wifi_BLE_SDK/GD32VW55x_RELEASE_V1.0.2/MSDK/cloud/alicloud/src/services/dev_bind\awss_report.c ****     }
 226              		.loc 2 327 9 is_stmt 1
 327:C:/Users/stapi/OneDrive/Desktop/GD32VW553/V1_MQTT_OK/GD32VW55X_Wifi_BLE_SDK/GD32VW55x_RELEASE_V1.0.2/MSDK/cloud/alicloud/src/services/dev_bind\awss_report.c ****     }
 227              		.loc 2 327 30 is_stmt 0
 228 00dc B7050000 		lui	a1,%hi(awss_report_token_to_cloud)
 229 00e0 37050000 		lui	a0,%hi(.LC5)
 230 00e4 0146     		li	a2,0
 231 00e6 93850500 		addi	a1,a1,%lo(awss_report_token_to_cloud)
 232 00ea 13050500 		addi	a0,a0,%lo(.LC5)
 233 00ee 97000000 		call	HAL_Timer_Create
 233      E7800000 
 234              	.LVL9:
 327:C:/Users/stapi/OneDrive/Desktop/GD32VW553/V1_MQTT_OK/GD32VW55X_Wifi_BLE_SDK/GD32VW55x_RELEASE_V1.0.2/MSDK/cloud/alicloud/src/services/dev_bind\awss_report.c ****     }
 235              		.loc 2 327 28
 236 00f6 08C0     		sw	a0,0(s0)
 237              	.L8:
 329:C:/Users/stapi/OneDrive/Desktop/GD32VW553/V1_MQTT_OK/GD32VW55X_Wifi_BLE_SDK/GD32VW55x_RELEASE_V1.0.2/MSDK/cloud/alicloud/src/services/dev_bind\awss_report.c ****     HAL_Timer_Start(report_token_timer, 3 * 1000);
 238              		.loc 2 329 5 is_stmt 1
 239 00f8 0840     		lw	a0,0(s0)
 240 00fa 97000000 		call	HAL_Timer_Stop
 240      E7800000 
 241              	.LVL10:
 330:C:/Users/stapi/OneDrive/Desktop/GD32VW553/V1_MQTT_OK/GD32VW55X_Wifi_BLE_SDK/GD32VW55x_RELEASE_V1.0.2/MSDK/cloud/alicloud/src/services/dev_bind\awss_report.c **** 
 242              		.loc 2 330 5
 243 0102 0840     		lw	a0,0(s0)
 244 0104 8565     		li	a1,4096
 245 0106 938585BB 		addi	a1,a1,-1096
 246 010a 97000000 		call	HAL_Timer_Start
 246      E7800000 
 247              	.LVL11:
 332:C:/Users/stapi/OneDrive/Desktop/GD32VW553/V1_MQTT_OK/GD32VW55X_Wifi_BLE_SDK/GD32VW55x_RELEASE_V1.0.2/MSDK/cloud/alicloud/src/services/dev_bind\awss_report.c **** 
 248              		.loc 2 332 5
 332:C:/Users/stapi/OneDrive/Desktop/GD32VW553/V1_MQTT_OK/GD32VW55X_Wifi_BLE_SDK/GD32VW55x_RELEASE_V1.0.2/MSDK/cloud/alicloud/src/services/dev_bind\awss_report.c **** 
 249              		.loc 2 332 9 is_stmt 0
 250 0112 93070010 		li	a5,256
 251              	.LBB24:
 252              	.LBB25:
 253              	.LBB26:
 254              	.LBB27:
 380:..\..\..\..\cloud\alicloud\src\services\dev_bind\os/os.h **** }
 255              		.loc 1 380 12
 256 0116 13051010 		li	a0,257
 257              	.LBE27:
 258              	.LBE26:
 259              	.LBE25:
 260              	.LBE24:
 332:C:/Users/stapi/OneDrive/Desktop/GD32VW553/V1_MQTT_OK/GD32VW55X_Wifi_BLE_SDK/GD32VW55x_RELEASE_V1.0.2/MSDK/cloud/alicloud/src/services/dev_bind\awss_report.c **** 
 261              		.loc 2 332 9
 262 011a 3EC2     		sw	a5,4(sp)
 334:C:/Users/stapi/OneDrive/Desktop/GD32VW553/V1_MQTT_OK/GD32VW55X_Wifi_BLE_SDK/GD32VW55x_RELEASE_V1.0.2/MSDK/cloud/alicloud/src/services/dev_bind\awss_report.c ****     if (packet == NULL) {
 263              		.loc 2 334 5 is_stmt 1
 264              	.LVL12:
 265              	.LBB32:
 266              	.LBB30:
 408:..\..\..\..\cloud\alicloud\src\services\dev_bind\os/os.h ****     if (ptr != NULL) {
 267              		.loc 1 408 5
 268              	.LBB29:
 269              	.LBB28:
 380:..\..\..\..\cloud\alicloud\src\services\dev_bind\os/os.h **** }
 270              		.loc 1 380 5
 380:..\..\..\..\cloud\alicloud\src\services\dev_bind\os/os.h **** }
 271              		.loc 1 380 12 is_stmt 0
 272 011c 97000000 		call	HAL_Malloc
 272      E7800000 
 273              	.LVL13:
 274 0124 AA84     		mv	s1,a0
 275              	.LVL14:
 276              	.LBE28:
 277              	.LBE29:
 409:..\..\..\..\cloud\alicloud\src\services\dev_bind\os/os.h ****         memset(ptr, 0, size);
 278              		.loc 1 409 5 is_stmt 1
 409:..\..\..\..\cloud\alicloud\src\services\dev_bind\os/os.h ****         memset(ptr, 0, size);
 279              		.loc 1 409 8 is_stmt 0
 280 0126 6302051A 		beq	a0,zero,.L9
 410:..\..\..\..\cloud\alicloud\src\services\dev_bind\os/os.h ****     }
 281              		.loc 1 410 9 is_stmt 1
 282 012a 13061010 		li	a2,257
 283 012e 8145     		li	a1,0
 284 0130 97000000 		call	memset
 284      E7800000 
 285              	.LVL15:
 412:..\..\..\..\cloud\alicloud\src\services\dev_bind\os/os.h **** }
 286              		.loc 1 412 5
 287              	.LBE30:
 288              	.LBE32:
 335:C:/Users/stapi/OneDrive/Desktop/GD32VW553/V1_MQTT_OK/GD32VW55X_Wifi_BLE_SDK/GD32VW55x_RELEASE_V1.0.2/MSDK/cloud/alicloud/src/services/dev_bind\awss_report.c ****         awss_err("alloc mem(%d) failed", packet_len);
 289              		.loc 2 335 5
 340:C:/Users/stapi/OneDrive/Desktop/GD32VW553/V1_MQTT_OK/GD32VW55X_Wifi_BLE_SDK/GD32VW55x_RELEASE_V1.0.2/MSDK/cloud/alicloud/src/services/dev_bind\awss_report.c ****         // reduce stack used
 290              		.loc 2 340 5
 291              	.LBB33:
 342:C:/Users/stapi/OneDrive/Desktop/GD32VW553/V1_MQTT_OK/GD32VW55X_Wifi_BLE_SDK/GD32VW55x_RELEASE_V1.0.2/MSDK/cloud/alicloud/src/services/dev_bind\awss_report.c ****         bind_token_type_t token_type;
 292              		.loc 2 342 9
 343:C:/Users/stapi/OneDrive/Desktop/GD32VW553/V1_MQTT_OK/GD32VW55X_Wifi_BLE_SDK/GD32VW55x_RELEASE_V1.0.2/MSDK/cloud/alicloud/src/services/dev_bind\awss_report.c ****         char id_str[MSG_REQ_ID_LEN] = {0};
 293              		.loc 2 343 9
 344:C:/Users/stapi/OneDrive/Desktop/GD32VW553/V1_MQTT_OK/GD32VW55X_Wifi_BLE_SDK/GD32VW55x_RELEASE_V1.0.2/MSDK/cloud/alicloud/src/services/dev_bind\awss_report.c ****         char param[REPORT_TOKEN_PARAM_LEN] = {0};
 294              		.loc 2 344 9
 345:C:/Users/stapi/OneDrive/Desktop/GD32VW553/V1_MQTT_OK/GD32VW55X_Wifi_BLE_SDK/GD32VW55x_RELEASE_V1.0.2/MSDK/cloud/alicloud/src/services/dev_bind\awss_report.c ****         unsigned char token_str[RANDOM_STR_MAX_LEN] = {0};
 295              		.loc 2 345 14 is_stmt 0
 296 0138 1306C003 		li	a2,60
 297 013c 8145     		li	a1,0
 298 013e 4801     		addi	a0,sp,132
 344:C:/Users/stapi/OneDrive/Desktop/GD32VW553/V1_MQTT_OK/GD32VW55X_Wifi_BLE_SDK/GD32VW55x_RELEASE_V1.0.2/MSDK/cloud/alicloud/src/services/dev_bind\awss_report.c ****         char param[REPORT_TOKEN_PARAM_LEN] = {0};
 299              		.loc 2 344 14
 300 0140 02C6     		sw	zero,12(sp)
 301 0142 02C8     		sw	zero,16(sp)
 302 0144 02CA     		sw	zero,20(sp)
 303 0146 02CC     		sw	zero,24(sp)
 345:C:/Users/stapi/OneDrive/Desktop/GD32VW553/V1_MQTT_OK/GD32VW55X_Wifi_BLE_SDK/GD32VW55x_RELEASE_V1.0.2/MSDK/cloud/alicloud/src/services/dev_bind\awss_report.c ****         unsigned char token_str[RANDOM_STR_MAX_LEN] = {0};
 304              		.loc 2 345 9 is_stmt 1
 345:C:/Users/stapi/OneDrive/Desktop/GD32VW553/V1_MQTT_OK/GD32VW55X_Wifi_BLE_SDK/GD32VW55x_RELEASE_V1.0.2/MSDK/cloud/alicloud/src/services/dev_bind\awss_report.c ****         unsigned char token_str[RANDOM_STR_MAX_LEN] = {0};
 305              		.loc 2 345 14 is_stmt 0
 306 0148 02C1     		sw	zero,128(sp)
 307 014a 97000000 		call	memset
 307      E7800000 
 308              	.LVL16:
 346:C:/Users/stapi/OneDrive/Desktop/GD32VW553/V1_MQTT_OK/GD32VW55X_Wifi_BLE_SDK/GD32VW55x_RELEASE_V1.0.2/MSDK/cloud/alicloud/src/services/dev_bind\awss_report.c **** 
 309              		.loc 2 346 9 is_stmt 1
 346:C:/Users/stapi/OneDrive/Desktop/GD32VW553/V1_MQTT_OK/GD32VW55X_Wifi_BLE_SDK/GD32VW55x_RELEASE_V1.0.2/MSDK/cloud/alicloud/src/services/dev_bind\awss_report.c **** 
 310              		.loc 2 346 23 is_stmt 0
 311 0152 7546     		li	a2,29
 312 0154 8145     		li	a1,0
 313 0156 0810     		addi	a0,sp,32
 314 0158 02CE     		sw	zero,28(sp)
 315 015a 97000000 		call	memset
 315      E7800000 
 316              	.LVL17:
 348:C:/Users/stapi/OneDrive/Desktop/GD32VW553/V1_MQTT_OK/GD32VW55X_Wifi_BLE_SDK/GD32VW55x_RELEASE_V1.0.2/MSDK/cloud/alicloud/src/services/dev_bind\awss_report.c **** 
 317              		.loc 2 348 9 is_stmt 1
 348:C:/Users/stapi/OneDrive/Desktop/GD32VW553/V1_MQTT_OK/GD32VW55X_Wifi_BLE_SDK/GD32VW55x_RELEASE_V1.0.2/MSDK/cloud/alicloud/src/services/dev_bind\awss_report.c **** 
 318              		.loc 2 348 34 is_stmt 0
 319 0162 97000000 		call	os_get_time_ms
 319      E7800000 
 320              	.LVL18:
 348:C:/Users/stapi/OneDrive/Desktop/GD32VW553/V1_MQTT_OK/GD32VW55X_Wifi_BLE_SDK/GD32VW55x_RELEASE_V1.0.2/MSDK/cloud/alicloud/src/services/dev_bind\awss_report.c **** 
 321              		.loc 2 348 32
 322 016a B7070000 		lui	a5,%hi(.LANCHOR4)
 323 016e 23A0A700 		sw	a0,%lo(.LANCHOR4)(a5)
 350:C:/Users/stapi/OneDrive/Desktop/GD32VW553/V1_MQTT_OK/GD32VW55X_Wifi_BLE_SDK/GD32VW55x_RELEASE_V1.0.2/MSDK/cloud/alicloud/src/services/dev_bind\awss_report.c **** 
 324              		.loc 2 350 9 is_stmt 1
 350:C:/Users/stapi/OneDrive/Desktop/GD32VW553/V1_MQTT_OK/GD32VW55X_Wifi_BLE_SDK/GD32VW55x_RELEASE_V1.0.2/MSDK/cloud/alicloud/src/services/dev_bind\awss_report.c **** 
 325              		.loc 2 350 71 is_stmt 0
 326 0172 B7070000 		lui	a5,%hi(.LANCHOR5)
 327 0176 93870700 		addi	a5,a5,%lo(.LANCHOR5)
 350:C:/Users/stapi/OneDrive/Desktop/GD32VW553/V1_MQTT_OK/GD32VW55X_Wifi_BLE_SDK/GD32VW55x_RELEASE_V1.0.2/MSDK/cloud/alicloud/src/services/dev_bind\awss_report.c **** 
 328              		.loc 2 350 9
 329 017a 37060000 		lui	a2,%hi(.LC6)
 350:C:/Users/stapi/OneDrive/Desktop/GD32VW553/V1_MQTT_OK/GD32VW55X_Wifi_BLE_SDK/GD32VW55x_RELEASE_V1.0.2/MSDK/cloud/alicloud/src/services/dev_bind\awss_report.c **** 
 330              		.loc 2 350 71
 331 017e 83860700 		lb	a3,0(a5)
 350:C:/Users/stapi/OneDrive/Desktop/GD32VW553/V1_MQTT_OK/GD32VW55X_Wifi_BLE_SDK/GD32VW55x_RELEASE_V1.0.2/MSDK/cloud/alicloud/src/services/dev_bind\awss_report.c **** 
 332              		.loc 2 350 9
 333 0182 13060600 		addi	a2,a2,%lo(.LC6)
 350:C:/Users/stapi/OneDrive/Desktop/GD32VW553/V1_MQTT_OK/GD32VW55X_Wifi_BLE_SDK/GD32VW55x_RELEASE_V1.0.2/MSDK/cloud/alicloud/src/services/dev_bind\awss_report.c **** 
 334              		.loc 2 350 71
 335 0186 13871600 		addi	a4,a3,1
 350:C:/Users/stapi/OneDrive/Desktop/GD32VW553/V1_MQTT_OK/GD32VW55X_Wifi_BLE_SDK/GD32VW55x_RELEASE_V1.0.2/MSDK/cloud/alicloud/src/services/dev_bind\awss_report.c **** 
 336              		.loc 2 350 9
 337 018a BD45     		li	a1,15
 338 018c 6800     		addi	a0,sp,12
 350:C:/Users/stapi/OneDrive/Desktop/GD32VW553/V1_MQTT_OK/GD32VW55X_Wifi_BLE_SDK/GD32VW55x_RELEASE_V1.0.2/MSDK/cloud/alicloud/src/services/dev_bind\awss_report.c **** 
 339              		.loc 2 350 71
 340 018e 2380E700 		sb	a4,0(a5)
 350:C:/Users/stapi/OneDrive/Desktop/GD32VW553/V1_MQTT_OK/GD32VW55X_Wifi_BLE_SDK/GD32VW55x_RELEASE_V1.0.2/MSDK/cloud/alicloud/src/services/dev_bind\awss_report.c **** 
 341              		.loc 2 350 9
 342 0192 97000000 		call	snprintf
 342      E7800000 
 343              	.LVL19:
 352:C:/Users/stapi/OneDrive/Desktop/GD32VW553/V1_MQTT_OK/GD32VW55X_Wifi_BLE_SDK/GD32VW55x_RELEASE_V1.0.2/MSDK/cloud/alicloud/src/services/dev_bind\awss_report.c ****         snprintf(param, REPORT_TOKEN_PARAM_LEN - 1, "{\"token\":\"%s\"}", token_str);
 344              		.loc 2 352 9 is_stmt 1
 345 019a 3000     		addi	a2,sp,8
 346 019c 93051002 		li	a1,33
 347 01a0 6808     		addi	a0,sp,28
 348 01a2 97000000 		call	awss_get_token
 348      E7800000 
 349              	.LVL20:
 353:C:/Users/stapi/OneDrive/Desktop/GD32VW553/V1_MQTT_OK/GD32VW55X_Wifi_BLE_SDK/GD32VW55x_RELEASE_V1.0.2/MSDK/cloud/alicloud/src/services/dev_bind\awss_report.c ****         awss_build_packet(AWSS_CMP_PKT_TYPE_REQ, id_str, ILOP_VER, METHOD_MATCH_REPORT, param, 0, p
 350              		.loc 2 353 9
 351 01aa 37060000 		lui	a2,%hi(.LC7)
 352 01ae 7408     		addi	a3,sp,28
 353 01b0 13060600 		addi	a2,a2,%lo(.LC7)
 354 01b4 9305F003 		li	a1,63
 355 01b8 0801     		addi	a0,sp,128
 356 01ba 97000000 		call	snprintf
 356      E7800000 
 357              	.LVL21:
 354:C:/Users/stapi/OneDrive/Desktop/GD32VW553/V1_MQTT_OK/GD32VW55X_Wifi_BLE_SDK/GD32VW55x_RELEASE_V1.0.2/MSDK/cloud/alicloud/src/services/dev_bind\awss_report.c **** 
 358              		.loc 2 354 9
 359 01c2 B7060000 		lui	a3,%hi(.LC8)
 360 01c6 37060000 		lui	a2,%hi(.LC9)
 361 01ca 93084100 		addi	a7,sp,4
 362 01ce 2688     		mv	a6,s1
 363 01d0 8147     		li	a5,0
 364 01d2 1801     		addi	a4,sp,128
 365 01d4 93860600 		addi	a3,a3,%lo(.LC8)
 366 01d8 13060600 		addi	a2,a2,%lo(.LC9)
 367 01dc 6C00     		addi	a1,sp,12
 368 01de 0545     		li	a0,1
 369 01e0 97000000 		call	awss_build_packet
 369      E7800000 
 370              	.LVL22:
 356:C:/Users/stapi/OneDrive/Desktop/GD32VW553/V1_MQTT_OK/GD32VW55X_Wifi_BLE_SDK/GD32VW55x_RELEASE_V1.0.2/MSDK/cloud/alicloud/src/services/dev_bind\awss_report.c ****         dump_dev_bind_status(STATE_BIND_REPORT_TOKEN, token_state_msg);        
 371              		.loc 2 356 9
 372 01e8 37060000 		lui	a2,%hi(.LC10)
 373 01ec 7408     		addi	a3,sp,28
 374 01ee 13060600 		addi	a2,a2,%lo(.LC10)
 375 01f2 93050004 		li	a1,64
 376 01f6 8800     		addi	a0,sp,64
 377 01f8 97000000 		call	HAL_Snprintf
 377      E7800000 
 378              	.LVL23:
 357:C:/Users/stapi/OneDrive/Desktop/GD32VW553/V1_MQTT_OK/GD32VW55X_Wifi_BLE_SDK/GD32VW55x_RELEASE_V1.0.2/MSDK/cloud/alicloud/src/services/dev_bind\awss_report.c ****     } while (0);
 379              		.loc 2 357 9
 380 0200 FD79     		li	s3,-4096
 381 0202 9000     		addi	a2,sp,64
 382 0204 9385D97F 		addi	a1,s3,2045
 383 0208 7D45     		li	a0,31
 384 020a 97000000 		call	iotx_state_event
 384      E7800000 
 385              	.LVL24:
 386              	.LBE33:
 358:C:/Users/stapi/OneDrive/Desktop/GD32VW553/V1_MQTT_OK/GD32VW55X_Wifi_BLE_SDK/GD32VW55x_RELEASE_V1.0.2/MSDK/cloud/alicloud/src/services/dev_bind\awss_report.c **** 
 387              		.loc 2 358 13
 360:C:/Users/stapi/OneDrive/Desktop/GD32VW553/V1_MQTT_OK/GD32VW55X_Wifi_BLE_SDK/GD32VW55x_RELEASE_V1.0.2/MSDK/cloud/alicloud/src/services/dev_bind\awss_report.c ****     char topic[TOPIC_LEN_MAX] = {0};
 388              		.loc 2 360 5
 389 0212 37070000 		lui	a4,%hi(.LC11)
 390 0216 B7050000 		lui	a1,%hi(.LANCHOR6)
 391 021a 37050000 		lui	a0,%hi(.LC12)
 392 021e A687     		mv	a5,s1
 393 0220 13070700 		addi	a4,a4,%lo(.LC11)
 394 0224 9546     		li	a3,5
 395 0226 13068016 		li	a2,360
 396 022a 93850500 		addi	a1,a1,%lo(.LANCHOR6)
 397 022e 13050500 		addi	a0,a0,%lo(.LC12)
 398 0232 97000000 		call	LITE_syslog
 398      E7800000 
 399              	.LVL25:
 361:C:/Users/stapi/OneDrive/Desktop/GD32VW553/V1_MQTT_OK/GD32VW55X_Wifi_BLE_SDK/GD32VW55x_RELEASE_V1.0.2/MSDK/cloud/alicloud/src/services/dev_bind\awss_report.c ****     awss_build_topic(TOPIC_MATCH_REPORT, topic, TOPIC_LEN_MAX);
 400              		.loc 2 361 5
 361:C:/Users/stapi/OneDrive/Desktop/GD32VW553/V1_MQTT_OK/GD32VW55X_Wifi_BLE_SDK/GD32VW55x_RELEASE_V1.0.2/MSDK/cloud/alicloud/src/services/dev_bind\awss_report.c ****     awss_build_topic(TOPIC_MATCH_REPORT, topic, TOPIC_LEN_MAX);
 401              		.loc 2 361 10 is_stmt 0
 402 023a 1306C007 		li	a2,124
 403 023e 8145     		li	a1,0
 404 0240 4801     		addi	a0,sp,132
 405 0242 02C1     		sw	zero,128(sp)
 406 0244 97000000 		call	memset
 406      E7800000 
 407              	.LVL26:
 362:C:/Users/stapi/OneDrive/Desktop/GD32VW553/V1_MQTT_OK/GD32VW55X_Wifi_BLE_SDK/GD32VW55x_RELEASE_V1.0.2/MSDK/cloud/alicloud/src/services/dev_bind\awss_report.c **** 
 408              		.loc 2 362 5 is_stmt 1
 409 024c 37050000 		lui	a0,%hi(.LC13)
 410 0250 13060008 		li	a2,128
 411 0254 0C01     		addi	a1,sp,128
 412 0256 13050500 		addi	a0,a0,%lo(.LC13)
 413 025a 97000000 		call	awss_build_topic
 413      E7800000 
 414              	.LVL27:
 364:C:/Users/stapi/OneDrive/Desktop/GD32VW553/V1_MQTT_OK/GD32VW55X_Wifi_BLE_SDK/GD32VW55x_RELEASE_V1.0.2/MSDK/cloud/alicloud/src/services/dev_bind\awss_report.c **** 
 415              		.loc 2 364 5
 364:C:/Users/stapi/OneDrive/Desktop/GD32VW553/V1_MQTT_OK/GD32VW55X_Wifi_BLE_SDK/GD32VW55x_RELEASE_V1.0.2/MSDK/cloud/alicloud/src/services/dev_bind\awss_report.c **** 
 416              		.loc 2 364 15 is_stmt 0
 417 0262 1246     		lw	a2,4(sp)
 418 0264 8546     		li	a3,1
 419 0266 A685     		mv	a1,s1
 420 0268 0801     		addi	a0,sp,128
 421 026a 97000000 		call	awss_cmp_mqtt_send
 421      E7800000 
 422              	.LVL28:
 423 0272 2A84     		mv	s0,a0
 424              	.LVL29:
 366:C:/Users/stapi/OneDrive/Desktop/GD32VW553/V1_MQTT_OK/GD32VW55X_Wifi_BLE_SDK/GD32VW55x_RELEASE_V1.0.2/MSDK/cloud/alicloud/src/services/dev_bind\awss_report.c ****     if (ret < 0) {
 425              		.loc 2 366 5 is_stmt 1
 366:C:/Users/stapi/OneDrive/Desktop/GD32VW553/V1_MQTT_OK/GD32VW55X_Wifi_BLE_SDK/GD32VW55x_RELEASE_V1.0.2/MSDK/cloud/alicloud/src/services/dev_bind\awss_report.c ****     if (ret < 0) {
 426              		.loc 2 366 5
 427 0274 37050000 		lui	a0,%hi(.LC1)
 428 0278 13050500 		addi	a0,a0,%lo(.LC1)
 429 027c 97000000 		call	HAL_Printf
 429      E7800000 
 430              	.LVL30:
 366:C:/Users/stapi/OneDrive/Desktop/GD32VW553/V1_MQTT_OK/GD32VW55X_Wifi_BLE_SDK/GD32VW55x_RELEASE_V1.0.2/MSDK/cloud/alicloud/src/services/dev_bind\awss_report.c ****     if (ret < 0) {
 431              		.loc 2 366 5
 432 0284 37050000 		lui	a0,%hi(.LC14)
 433 0288 13050500 		addi	a0,a0,%lo(.LC14)
 434 028c A285     		mv	a1,s0
 435 028e 97000000 		call	HAL_Printf
 435      E7800000 
 436              	.LVL31:
 366:C:/Users/stapi/OneDrive/Desktop/GD32VW553/V1_MQTT_OK/GD32VW55X_Wifi_BLE_SDK/GD32VW55x_RELEASE_V1.0.2/MSDK/cloud/alicloud/src/services/dev_bind\awss_report.c ****     if (ret < 0) {
 437              		.loc 2 366 5
 438 0296 13050900 		addi	a0,s2,%lo(.LC3)
 439 029a 97000000 		call	HAL_Printf
 439      E7800000 
 440              	.LVL32:
 366:C:/Users/stapi/OneDrive/Desktop/GD32VW553/V1_MQTT_OK/GD32VW55X_Wifi_BLE_SDK/GD32VW55x_RELEASE_V1.0.2/MSDK/cloud/alicloud/src/services/dev_bind\awss_report.c ****     if (ret < 0) {
 441              		.loc 2 366 5
 367:C:/Users/stapi/OneDrive/Desktop/GD32VW553/V1_MQTT_OK/GD32VW55X_Wifi_BLE_SDK/GD32VW55x_RELEASE_V1.0.2/MSDK/cloud/alicloud/src/services/dev_bind\awss_report.c ****         // if ret > 0, means send success, and ret value is msg id
 442              		.loc 2 367 5
 367:C:/Users/stapi/OneDrive/Desktop/GD32VW553/V1_MQTT_OK/GD32VW55X_Wifi_BLE_SDK/GD32VW55x_RELEASE_V1.0.2/MSDK/cloud/alicloud/src/services/dev_bind\awss_report.c ****         // if ret > 0, means send success, and ret value is msg id
 443              		.loc 2 367 8 is_stmt 0
 444 02a2 635E0400 		bge	s0,zero,.L10
 369:C:/Users/stapi/OneDrive/Desktop/GD32VW553/V1_MQTT_OK/GD32VW55X_Wifi_BLE_SDK/GD32VW55x_RELEASE_V1.0.2/MSDK/cloud/alicloud/src/services/dev_bind\awss_report.c ****     }
 445              		.loc 2 369 9 is_stmt 1
 446 02a6 37060000 		lui	a2,%hi(.LC15)
 447 02aa A286     		mv	a3,s0
 448 02ac 13060600 		addi	a2,a2,%lo(.LC15)
 449 02b0 9385E97B 		addi	a1,s3,1982
 450 02b4 7D45     		li	a0,31
 451 02b6 97000000 		call	iotx_state_event
 451      E7800000 
 452              	.LVL33:
 453              	.L10:
 371:C:/Users/stapi/OneDrive/Desktop/GD32VW553/V1_MQTT_OK/GD32VW55X_Wifi_BLE_SDK/GD32VW55x_RELEASE_V1.0.2/MSDK/cloud/alicloud/src/services/dev_bind\awss_report.c **** 
 454              		.loc 2 371 5
 455              	.LBB34:
 456              	.LBB35:
 394:..\..\..\..\cloud\alicloud\src\services\dev_bind\os/os.h **** }
 457              		.loc 1 394 5
 458 02be 2685     		mv	a0,s1
 459 02c0 97000000 		call	HAL_Free
 459      E7800000 
 460              	.LVL34:
 461              	.LBE35:
 462              	.LBE34:
 373:C:/Users/stapi/OneDrive/Desktop/GD32VW553/V1_MQTT_OK/GD32VW55X_Wifi_BLE_SDK/GD32VW55x_RELEASE_V1.0.2/MSDK/cloud/alicloud/src/services/dev_bind\awss_report.c **** }
 463              		.loc 2 373 5
 373:C:/Users/stapi/OneDrive/Desktop/GD32VW553/V1_MQTT_OK/GD32VW55X_Wifi_BLE_SDK/GD32VW55x_RELEASE_V1.0.2/MSDK/cloud/alicloud/src/services/dev_bind\awss_report.c **** }
 464              		.loc 2 373 12 is_stmt 0
 465 02c8 B5B3     		j	.L4
 466              	.LVL35:
 467              	.L9:
 468              	.LBB36:
 469              	.LBB31:
 412:..\..\..\..\cloud\alicloud\src\services\dev_bind\os/os.h **** }
 470              		.loc 1 412 5 is_stmt 1
 471              	.LBE31:
 472              	.LBE36:
 335:C:/Users/stapi/OneDrive/Desktop/GD32VW553/V1_MQTT_OK/GD32VW55X_Wifi_BLE_SDK/GD32VW55x_RELEASE_V1.0.2/MSDK/cloud/alicloud/src/services/dev_bind\awss_report.c ****         awss_err("alloc mem(%d) failed", packet_len);
 473              		.loc 2 335 5
 336:C:/Users/stapi/OneDrive/Desktop/GD32VW553/V1_MQTT_OK/GD32VW55X_Wifi_BLE_SDK/GD32VW55x_RELEASE_V1.0.2/MSDK/cloud/alicloud/src/services/dev_bind\awss_report.c ****         return STATE_SYS_DEPEND_MALLOC;
 474              		.loc 2 336 9
 336:C:/Users/stapi/OneDrive/Desktop/GD32VW553/V1_MQTT_OK/GD32VW55X_Wifi_BLE_SDK/GD32VW55x_RELEASE_V1.0.2/MSDK/cloud/alicloud/src/services/dev_bind\awss_report.c ****         return STATE_SYS_DEPEND_MALLOC;
 475              		.loc 2 336 9
 476 02ca 37050000 		lui	a0,%hi(.LC16)
 477 02ce 13050500 		addi	a0,a0,%lo(.LC16)
 478 02d2 97000000 		call	HAL_Printf
 478      E7800000 
 479              	.LVL36:
 336:C:/Users/stapi/OneDrive/Desktop/GD32VW553/V1_MQTT_OK/GD32VW55X_Wifi_BLE_SDK/GD32VW55x_RELEASE_V1.0.2/MSDK/cloud/alicloud/src/services/dev_bind\awss_report.c ****         return STATE_SYS_DEPEND_MALLOC;
 480              		.loc 2 336 9
 481 02da 9245     		lw	a1,4(sp)
 482 02dc 37050000 		lui	a0,%hi(.LC17)
 483 02e0 13050500 		addi	a0,a0,%lo(.LC17)
 484 02e4 97000000 		call	HAL_Printf
 484      E7800000 
 485              	.LVL37:
 336:C:/Users/stapi/OneDrive/Desktop/GD32VW553/V1_MQTT_OK/GD32VW55X_Wifi_BLE_SDK/GD32VW55x_RELEASE_V1.0.2/MSDK/cloud/alicloud/src/services/dev_bind\awss_report.c ****         return STATE_SYS_DEPEND_MALLOC;
 486              		.loc 2 336 9
 487 02ec 13050900 		addi	a0,s2,%lo(.LC3)
 488 02f0 97000000 		call	HAL_Printf
 488      E7800000 
 489              	.LVL38:
 336:C:/Users/stapi/OneDrive/Desktop/GD32VW553/V1_MQTT_OK/GD32VW55X_Wifi_BLE_SDK/GD32VW55x_RELEASE_V1.0.2/MSDK/cloud/alicloud/src/services/dev_bind\awss_report.c ****         return STATE_SYS_DEPEND_MALLOC;
 490              		.loc 2 336 9
 337:C:/Users/stapi/OneDrive/Desktop/GD32VW553/V1_MQTT_OK/GD32VW55X_Wifi_BLE_SDK/GD32VW55x_RELEASE_V1.0.2/MSDK/cloud/alicloud/src/services/dev_bind\awss_report.c ****     }
 491              		.loc 2 337 9
 337:C:/Users/stapi/OneDrive/Desktop/GD32VW553/V1_MQTT_OK/GD32VW55X_Wifi_BLE_SDK/GD32VW55x_RELEASE_V1.0.2/MSDK/cloud/alicloud/src/services/dev_bind\awss_report.c ****     }
 492              		.loc 2 337 16 is_stmt 0
 493 02f8 1304F0DF 		li	s0,-513
 494 02fc 25BB     		j	.L4
 495              		.cfi_endproc
 496              	.LFE71:
 498              		.section	.text.awss_reboot_system,"ax",@progbits
 499              		.align	1
 501              	awss_reboot_system:
 502              	.LFB70:
 293:C:/Users/stapi/OneDrive/Desktop/GD32VW553/V1_MQTT_OK/GD32VW55X_Wifi_BLE_SDK/GD32VW55x_RELEASE_V1.0.2/MSDK/cloud/alicloud/src/services/dev_bind\awss_report.c ****     awss_stop_timer(reboot_timer);
 503              		.loc 2 293 1 is_stmt 1
 504              		.cfi_startproc
 505 0000 17030000 		call	t0,__riscv_save_1
 505      E7020300 
 506              		.cfi_offset 8, -8
 507              		.cfi_offset 1, -4
 508              		.cfi_def_cfa_offset 16
 294:C:/Users/stapi/OneDrive/Desktop/GD32VW553/V1_MQTT_OK/GD32VW55X_Wifi_BLE_SDK/GD32VW55x_RELEASE_V1.0.2/MSDK/cloud/alicloud/src/services/dev_bind\awss_report.c ****     reboot_timer = NULL;
 509              		.loc 2 294 5
 510 0008 37040000 		lui	s0,%hi(.LANCHOR7)
 511 000c 13040400 		addi	s0,s0,%lo(.LANCHOR7)
 512 0010 0840     		lw	a0,0(s0)
 513 0012 97000000 		call	awss_stop_timer
 513      E7800000 
 514              	.LVL39:
 295:C:/Users/stapi/OneDrive/Desktop/GD32VW553/V1_MQTT_OK/GD32VW55X_Wifi_BLE_SDK/GD32VW55x_RELEASE_V1.0.2/MSDK/cloud/alicloud/src/services/dev_bind\awss_report.c ****     os_reboot();
 515              		.loc 2 295 5
 295:C:/Users/stapi/OneDrive/Desktop/GD32VW553/V1_MQTT_OK/GD32VW55X_Wifi_BLE_SDK/GD32VW55x_RELEASE_V1.0.2/MSDK/cloud/alicloud/src/services/dev_bind\awss_report.c ****     os_reboot();
 516              		.loc 2 295 18 is_stmt 0
 517 001a 23200400 		sw	zero,0(s0)
 296:C:/Users/stapi/OneDrive/Desktop/GD32VW553/V1_MQTT_OK/GD32VW55X_Wifi_BLE_SDK/GD32VW55x_RELEASE_V1.0.2/MSDK/cloud/alicloud/src/services/dev_bind\awss_report.c ****     while (1);
 518              		.loc 2 296 5 is_stmt 1
 519              	.LBB37:
 520              	.LBB38:
 235:..\..\..\..\cloud\alicloud\src\services\dev_bind\os/os.h **** }
 521              		.loc 1 235 5
 522 001e 97000000 		call	HAL_Reboot
 522      E7800000 
 523              	.LVL40:
 524              	.L13:
 525              	.LBE38:
 526              	.LBE37:
 297:C:/Users/stapi/OneDrive/Desktop/GD32VW553/V1_MQTT_OK/GD32VW55X_Wifi_BLE_SDK/GD32VW55x_RELEASE_V1.0.2/MSDK/cloud/alicloud/src/services/dev_bind\awss_report.c ****     return 0;
 527              		.loc 2 297 5 discriminator 1
 297:C:/Users/stapi/OneDrive/Desktop/GD32VW553/V1_MQTT_OK/GD32VW55X_Wifi_BLE_SDK/GD32VW55x_RELEASE_V1.0.2/MSDK/cloud/alicloud/src/services/dev_bind\awss_report.c ****     return 0;
 528              		.loc 2 297 14 discriminator 1
 297:C:/Users/stapi/OneDrive/Desktop/GD32VW553/V1_MQTT_OK/GD32VW55X_Wifi_BLE_SDK/GD32VW55x_RELEASE_V1.0.2/MSDK/cloud/alicloud/src/services/dev_bind\awss_report.c ****     return 0;
 529              		.loc 2 297 11 discriminator 1
 530 0026 01A0     		j	.L13
 531              		.cfi_endproc
 532              	.LFE70:
 534              		.section	.rodata.awss_switch_ap_online.str1.4,"aMS",@progbits,1
 535              		.align	2
 536              	.LC18:
 537 0000 72625F74 		.string	"rb_timer"
 537      696D6572 
 537      00
 538              		.section	.text.awss_switch_ap_online,"ax",@progbits
 539              		.align	1
 541              	awss_switch_ap_online:
 542              	.LFB69:
 275:C:/Users/stapi/OneDrive/Desktop/GD32VW553/V1_MQTT_OK/GD32VW55X_Wifi_BLE_SDK/GD32VW55x_RELEASE_V1.0.2/MSDK/cloud/alicloud/src/services/dev_bind\awss_report.c ****     os_awss_connect_ap(WLAN_CONNECTION_TIMEOUT_MS, switchap_ssid, switchap_passwd,
 543              		.loc 2 275 1
 544              		.cfi_startproc
 545 0000 17030000 		call	t0,__riscv_save_4
 545      E7020300 
 546              		.cfi_offset 19, -20
 547              		.cfi_offset 18, -16
 548              		.cfi_offset 9, -12
 549              		.cfi_offset 8, -8
 550              		.cfi_offset 1, -4
 551              		.cfi_def_cfa_offset 32
 276:C:/Users/stapi/OneDrive/Desktop/GD32VW553/V1_MQTT_OK/GD32VW55X_Wifi_BLE_SDK/GD32VW55x_RELEASE_V1.0.2/MSDK/cloud/alicloud/src/services/dev_bind\awss_report.c ****                        AWSS_AUTH_TYPE_INVALID, AWSS_ENC_TYPE_INVALID, switchap_bssid, 0);
 552              		.loc 2 276 5
 553              	.LVL41:
 554              	.LBB41:
 555              	.LBB42:
 455:..\..\..\..\cloud\alicloud\src\services\dev_bind\os/os.h **** 
 456:..\..\..\..\cloud\alicloud\src\services\dev_bind\os/os.h **** /*
 457:..\..\..\..\cloud\alicloud\src\services\dev_bind\os/os.h ****  *  These inlines deal with timer wrapping correctly. You are
 458:..\..\..\..\cloud\alicloud\src\services\dev_bind\os/os.h ****  *  strongly encouraged to use them
 459:..\..\..\..\cloud\alicloud\src\services\dev_bind\os/os.h ****  *  1. Because people otherwise forget
 460:..\..\..\..\cloud\alicloud\src\services\dev_bind\os/os.h ****  *  2. Because if the timer wrap changes in future you won't have to
 461:..\..\..\..\cloud\alicloud\src\services\dev_bind\os/os.h ****  *     alter your code.
 462:..\..\..\..\cloud\alicloud\src\services\dev_bind\os/os.h ****  */
 463:..\..\..\..\cloud\alicloud\src\services\dev_bind\os/os.h **** static inline uint32_t time_elapsed_ms_since(uint32_t start_timestamp)
 464:..\..\..\..\cloud\alicloud\src\services\dev_bind\os/os.h **** {
 465:..\..\..\..\cloud\alicloud\src\services\dev_bind\os/os.h ****     uint32_t now = os_get_time_ms();
 466:..\..\..\..\cloud\alicloud\src\services\dev_bind\os/os.h **** 
 467:..\..\..\..\cloud\alicloud\src\services\dev_bind\os/os.h ****     return now - start_timestamp;
 468:..\..\..\..\cloud\alicloud\src\services\dev_bind\os/os.h **** }
 469:..\..\..\..\cloud\alicloud\src\services\dev_bind\os/os.h **** 
 470:..\..\..\..\cloud\alicloud\src\services\dev_bind\os/os.h **** /** @} */// end of os_system
 471:..\..\..\..\cloud\alicloud\src\services\dev_bind\os/os.h **** 
 472:..\..\..\..\cloud\alicloud\src\services\dev_bind\os/os.h **** /****************************************** io Interface ******************************************
 473:..\..\..\..\cloud\alicloud\src\services\dev_bind\os/os.h **** 
 474:..\..\..\..\cloud\alicloud\src\services\dev_bind\os/os.h **** /** @defgroup group_os_io io
 475:..\..\..\..\cloud\alicloud\src\services\dev_bind\os/os.h ****  *  @{
 476:..\..\..\..\cloud\alicloud\src\services\dev_bind\os/os.h ****  */
 477:..\..\..\..\cloud\alicloud\src\services\dev_bind\os/os.h **** 
 478:..\..\..\..\cloud\alicloud\src\services\dev_bind\os/os.h **** /**
 479:..\..\..\..\cloud\alicloud\src\services\dev_bind\os/os.h ****  * @brief Writes formatted data to stream.
 480:..\..\..\..\cloud\alicloud\src\services\dev_bind\os/os.h ****  *
 481:..\..\..\..\cloud\alicloud\src\services\dev_bind\os/os.h ****  * @param[in] fmt: @n String that contains the text to be written, it can optionally contain embedd
 482:..\..\..\..\cloud\alicloud\src\services\dev_bind\os/os.h ****      that specifies how subsequent arguments are converted for output.
 483:..\..\..\..\cloud\alicloud\src\services\dev_bind\os/os.h ****  * @param[in] ...: @n the variable argument list, for formatted and inserted in the resulting strin
 484:..\..\..\..\cloud\alicloud\src\services\dev_bind\os/os.h ****  * @return None.
 485:..\..\..\..\cloud\alicloud\src\services\dev_bind\os/os.h ****  * @see None.
 486:..\..\..\..\cloud\alicloud\src\services\dev_bind\os/os.h ****  * @note None.
 487:..\..\..\..\cloud\alicloud\src\services\dev_bind\os/os.h ****  */
 488:..\..\..\..\cloud\alicloud\src\services\dev_bind\os/os.h **** #define os_printf(fmt, ...) platform_printf(fmt, ## __VA_ARGS__)
 489:..\..\..\..\cloud\alicloud\src\services\dev_bind\os/os.h **** 
 490:..\..\..\..\cloud\alicloud\src\services\dev_bind\os/os.h **** /** @} */// end of os_io
 491:..\..\..\..\cloud\alicloud\src\services\dev_bind\os/os.h **** 
 492:..\..\..\..\cloud\alicloud\src\services\dev_bind\os/os.h **** /*************************************** wifi module Interface ************************************
 493:..\..\..\..\cloud\alicloud\src\services\dev_bind\os/os.h **** 
 494:..\..\..\..\cloud\alicloud\src\services\dev_bind\os/os.h **** /** @defgroup group_os_wifi_module wifi
 495:..\..\..\..\cloud\alicloud\src\services\dev_bind\os/os.h ****  *  @{
 496:..\..\..\..\cloud\alicloud\src\services\dev_bind\os/os.h ****  */
 497:..\..\..\..\cloud\alicloud\src\services\dev_bind\os/os.h **** 
 498:..\..\..\..\cloud\alicloud\src\services\dev_bind\os/os.h **** /**
 499:..\..\..\..\cloud\alicloud\src\services\dev_bind\os/os.h ****  * @brief Get encrypt type for smartconfig.
 500:..\..\..\..\cloud\alicloud\src\services\dev_bind\os/os.h ****  *
 501:..\..\..\..\cloud\alicloud\src\services\dev_bind\os/os.h ****  * @param None.
 502:..\..\..\..\cloud\alicloud\src\services\dev_bind\os/os.h ****  * @return.
 503:..\..\..\..\cloud\alicloud\src\services\dev_bind\os/os.h ****    @verbatim
 504:..\..\..\..\cloud\alicloud\src\services\dev_bind\os/os.h ****      = 0: open (no encrypt)
 505:..\..\..\..\cloud\alicloud\src\services\dev_bind\os/os.h ****      = 1: aes256cbc with default aes-key and aes-iv
 506:..\..\..\..\cloud\alicloud\src\services\dev_bind\os/os.h ****      = 2: aes128cbc with default aes-key and aes-iv
 507:..\..\..\..\cloud\alicloud\src\services\dev_bind\os/os.h ****      = 3: aes128cbc with aes-key per product and aes-iv = 0
 508:..\..\..\..\cloud\alicloud\src\services\dev_bind\os/os.h ****      = 4: aes128cbc with aes-key per device and aes-iv = 0
 509:..\..\..\..\cloud\alicloud\src\services\dev_bind\os/os.h ****      = 5: aes128cbc with aes-key per manufacture and aes-iv = 0
 510:..\..\..\..\cloud\alicloud\src\services\dev_bind\os/os.h ****      = others: invalid
 511:..\..\..\..\cloud\alicloud\src\services\dev_bind\os/os.h ****    @endverbatim
 512:..\..\..\..\cloud\alicloud\src\services\dev_bind\os/os.h ****  * @see None.
 513:..\..\..\..\cloud\alicloud\src\services\dev_bind\os/os.h ****  * @note None.
 514:..\..\..\..\cloud\alicloud\src\services\dev_bind\os/os.h ****  */
 515:..\..\..\..\cloud\alicloud\src\services\dev_bind\os/os.h **** static inline int os_get_encrypt_type(void)
 516:..\..\..\..\cloud\alicloud\src\services\dev_bind\os/os.h **** {
 517:..\..\..\..\cloud\alicloud\src\services\dev_bind\os/os.h ****     return platform_get_encrypt_type();
 518:..\..\..\..\cloud\alicloud\src\services\dev_bind\os/os.h **** }
 519:..\..\..\..\cloud\alicloud\src\services\dev_bind\os/os.h **** 
 520:..\..\..\..\cloud\alicloud\src\services\dev_bind\os/os.h **** /**
 521:..\..\..\..\cloud\alicloud\src\services\dev_bind\os/os.h ****  * @brief    Get Security level for wifi configuration with connection.
 522:..\..\..\..\cloud\alicloud\src\services\dev_bind\os/os.h ****  *           Used for AP solution of router and App.
 523:..\..\..\..\cloud\alicloud\src\services\dev_bind\os/os.h ****  *
 524:..\..\..\..\cloud\alicloud\src\services\dev_bind\os/os.h ****  * @param None.
 525:..\..\..\..\cloud\alicloud\src\services\dev_bind\os/os.h ****  * @return The security level:
 526:..\..\..\..\cloud\alicloud\src\services\dev_bind\os/os.h ****    @verbatim
 527:..\..\..\..\cloud\alicloud\src\services\dev_bind\os/os.h ****     3: aes128cfb with aes-key per product and aes-iv = random
 528:..\..\..\..\cloud\alicloud\src\services\dev_bind\os/os.h ****     4: aes128cfb with aes-key per device and aes-iv = random
 529:..\..\..\..\cloud\alicloud\src\services\dev_bind\os/os.h ****     5: aes128cfb with aes-key per manufacture and aes-iv = random
 530:..\..\..\..\cloud\alicloud\src\services\dev_bind\os/os.h ****     others: invalid
 531:..\..\..\..\cloud\alicloud\src\services\dev_bind\os/os.h ****    @endverbatim
 532:..\..\..\..\cloud\alicloud\src\services\dev_bind\os/os.h ****  * @see None.
 533:..\..\..\..\cloud\alicloud\src\services\dev_bind\os/os.h ****  */
 534:..\..\..\..\cloud\alicloud\src\services\dev_bind\os/os.h **** static inline int os_get_conn_encrypt_type(void)
 535:..\..\..\..\cloud\alicloud\src\services\dev_bind\os/os.h **** {
 536:..\..\..\..\cloud\alicloud\src\services\dev_bind\os/os.h ****     return platform_get_conn_encrypt_type();
 537:..\..\..\..\cloud\alicloud\src\services\dev_bind\os/os.h **** }
 538:..\..\..\..\cloud\alicloud\src\services\dev_bind\os/os.h **** 
 539:..\..\..\..\cloud\alicloud\src\services\dev_bind\os/os.h **** /**
 540:..\..\..\..\cloud\alicloud\src\services\dev_bind\os/os.h ****  * @brief   Get rssi and channel of current link
 541:..\..\..\..\cloud\alicloud\src\services\dev_bind\os/os.h ****  *
 542:..\..\..\..\cloud\alicloud\src\services\dev_bind\os/os.h ****  * @param[out] p_rssi: rssi value of current link
 543:..\..\..\..\cloud\alicloud\src\services\dev_bind\os/os.h ****  * @param[out] p_channel: channel of current link
 544:..\..\..\..\cloud\alicloud\src\services\dev_bind\os/os.h ****  * 
 545:..\..\..\..\cloud\alicloud\src\services\dev_bind\os/os.h ****  * @return
 546:..\..\..\..\cloud\alicloud\src\services\dev_bind\os/os.h ****    @verbatim
 547:..\..\..\..\cloud\alicloud\src\services\dev_bind\os/os.h ****      = 0: succeeded
 548:..\..\..\..\cloud\alicloud\src\services\dev_bind\os/os.h ****      = -1: failed
 549:..\..\..\..\cloud\alicloud\src\services\dev_bind\os/os.h ****    @endverbatim
 550:..\..\..\..\cloud\alicloud\src\services\dev_bind\os/os.h ****  * @see None.
 551:..\..\..\..\cloud\alicloud\src\services\dev_bind\os/os.h ****  * @note None.
 552:..\..\..\..\cloud\alicloud\src\services\dev_bind\os/os.h ****  * @note awss use this API to get rssi and channel of current link
 553:..\..\..\..\cloud\alicloud\src\services\dev_bind\os/os.h ****  */
 554:..\..\..\..\cloud\alicloud\src\services\dev_bind\os/os.h **** static inline int os_get_conn_link_stat(int *p_rssi, int *p_channel)
 555:..\..\..\..\cloud\alicloud\src\services\dev_bind\os/os.h **** {
 556:..\..\..\..\cloud\alicloud\src\services\dev_bind\os/os.h ****     return platform_get_conn_link_stat(p_rssi, p_channel);
 557:..\..\..\..\cloud\alicloud\src\services\dev_bind\os/os.h **** }
 558:..\..\..\..\cloud\alicloud\src\services\dev_bind\os/os.h **** 
 559:..\..\..\..\cloud\alicloud\src\services\dev_bind\os/os.h **** /**
 560:..\..\..\..\cloud\alicloud\src\services\dev_bind\os/os.h ****  * @brief Get WIFI MAC string with format like: XX:XX:XX:XX:XX:XX.
 561:..\..\..\..\cloud\alicloud\src\services\dev_bind\os/os.h ****  *
 562:..\..\..\..\cloud\alicloud\src\services\dev_bind\os/os.h ****  * @param[out] mac_str @n Buffer for using to store wifi MAC string.
 563:..\..\..\..\cloud\alicloud\src\services\dev_bind\os/os.h ****  * @return A pointer to the start address of mac_str.
 564:..\..\..\..\cloud\alicloud\src\services\dev_bind\os/os.h ****  * @see None.
 565:..\..\..\..\cloud\alicloud\src\services\dev_bind\os/os.h ****  * @note this func will format mac address string uppercase
 566:..\..\..\..\cloud\alicloud\src\services\dev_bind\os/os.h ****  */
 567:..\..\..\..\cloud\alicloud\src\services\dev_bind\os/os.h **** char *os_wifi_get_mac_str(char mac_str[OS_MAC_LEN]);
 568:..\..\..\..\cloud\alicloud\src\services\dev_bind\os/os.h **** 
 569:..\..\..\..\cloud\alicloud\src\services\dev_bind\os/os.h **** char *os_wifi_str2mac(char mac_str[OS_MAC_LEN], char mac[OS_ETH_ALEN]);
 570:..\..\..\..\cloud\alicloud\src\services\dev_bind\os/os.h **** 
 571:..\..\..\..\cloud\alicloud\src\services\dev_bind\os/os.h **** /**
 572:..\..\..\..\cloud\alicloud\src\services\dev_bind\os/os.h ****  * @brief Get WIFI MAC address(digital form)
 573:..\..\..\..\cloud\alicloud\src\services\dev_bind\os/os.h ****  *
 574:..\..\..\..\cloud\alicloud\src\services\dev_bind\os/os.h ****  * @param[out] mac @n digital buffer to hold mac address
 575:..\..\..\..\cloud\alicloud\src\services\dev_bind\os/os.h ****  * @return A pointer to the start address of mac.
 576:..\..\..\..\cloud\alicloud\src\services\dev_bind\os/os.h ****  * @see None.
 577:..\..\..\..\cloud\alicloud\src\services\dev_bind\os/os.h ****  * @note None.
 578:..\..\..\..\cloud\alicloud\src\services\dev_bind\os/os.h ****  */
 579:..\..\..\..\cloud\alicloud\src\services\dev_bind\os/os.h **** uint8_t *os_wifi_get_mac(uint8_t mac[OS_ETH_ALEN]);
 580:..\..\..\..\cloud\alicloud\src\services\dev_bind\os/os.h **** 
 581:..\..\..\..\cloud\alicloud\src\services\dev_bind\os/os.h **** /**
 582:..\..\..\..\cloud\alicloud\src\services\dev_bind\os/os.h ****  * @brief Get WIFI IP string with format like: xx:xx:xx:xx:xx:xx,
 583:..\..\..\..\cloud\alicloud\src\services\dev_bind\os/os.h ****    and return IP with binary form, in network byte order.
 584:..\..\..\..\cloud\alicloud\src\services\dev_bind\os/os.h ****  *
 585:..\..\..\..\cloud\alicloud\src\services\dev_bind\os/os.h ****  * @param[in] ifname @n Specify the interface name.The NULL value indicates the default network int
 586:..\..\..\..\cloud\alicloud\src\services\dev_bind\os/os.h ****  * @param[out] ip_str @n Buffer for using to store IP string, in numbers-and-dots notation form.
 587:..\..\..\..\cloud\alicloud\src\services\dev_bind\os/os.h ****  * @return IP address with binary form, in network byte order.
 588:..\..\..\..\cloud\alicloud\src\services\dev_bind\os/os.h ****  * @see None.
 589:..\..\..\..\cloud\alicloud\src\services\dev_bind\os/os.h ****  * @note None.
 590:..\..\..\..\cloud\alicloud\src\services\dev_bind\os/os.h ****  */
 591:..\..\..\..\cloud\alicloud\src\services\dev_bind\os/os.h **** static inline uint32_t os_wifi_get_ip(char ip_str[OS_IP_LEN], const char *ifname)
 592:..\..\..\..\cloud\alicloud\src\services\dev_bind\os/os.h **** {
 593:..\..\..\..\cloud\alicloud\src\services\dev_bind\os/os.h ****     return platform_wifi_get_ip(ip_str, ifname);
 594:..\..\..\..\cloud\alicloud\src\services\dev_bind\os/os.h **** }
 595:..\..\..\..\cloud\alicloud\src\services\dev_bind\os/os.h **** 
 596:..\..\..\..\cloud\alicloud\src\services\dev_bind\os/os.h **** /*************************************** awss interface ***************************************/
 597:..\..\..\..\cloud\alicloud\src\services\dev_bind\os/os.h **** 
 598:..\..\..\..\cloud\alicloud\src\services\dev_bind\os/os.h **** /** @defgroup group_os_awss alink wireless setup service(awss)
 599:..\..\..\..\cloud\alicloud\src\services\dev_bind\os/os.h ****  *  @{
 600:..\..\..\..\cloud\alicloud\src\services\dev_bind\os/os.h ****  */
 601:..\..\..\..\cloud\alicloud\src\services\dev_bind\os/os.h **** 
 602:..\..\..\..\cloud\alicloud\src\services\dev_bind\os/os.h **** /**
 603:..\..\..\..\cloud\alicloud\src\services\dev_bind\os/os.h ****  * @brief Get timeout interval, in millisecond, of per awss.
 604:..\..\..\..\cloud\alicloud\src\services\dev_bind\os/os.h ****  *
 605:..\..\..\..\cloud\alicloud\src\services\dev_bind\os/os.h ****  * @param None.
 606:..\..\..\..\cloud\alicloud\src\services\dev_bind\os/os.h ****  * @return The timeout interval.
 607:..\..\..\..\cloud\alicloud\src\services\dev_bind\os/os.h ****  * @see None.
 608:..\..\..\..\cloud\alicloud\src\services\dev_bind\os/os.h ****  * @note The recommended value is 60,000ms.
 609:..\..\..\..\cloud\alicloud\src\services\dev_bind\os/os.h ****  */
 610:..\..\..\..\cloud\alicloud\src\services\dev_bind\os/os.h **** static inline int os_awss_get_timeout_interval_ms(void)
 611:..\..\..\..\cloud\alicloud\src\services\dev_bind\os/os.h **** {
 612:..\..\..\..\cloud\alicloud\src\services\dev_bind\os/os.h ****     return platform_awss_get_timeout_interval_ms();
 613:..\..\..\..\cloud\alicloud\src\services\dev_bind\os/os.h **** }
 614:..\..\..\..\cloud\alicloud\src\services\dev_bind\os/os.h **** 
 615:..\..\..\..\cloud\alicloud\src\services\dev_bind\os/os.h **** /**
 616:..\..\..\..\cloud\alicloud\src\services\dev_bind\os/os.h ****  * @brief Get time length, in millisecond, of per channel scan.
 617:..\..\..\..\cloud\alicloud\src\services\dev_bind\os/os.h ****  *
 618:..\..\..\..\cloud\alicloud\src\services\dev_bind\os/os.h ****  * @param None.
 619:..\..\..\..\cloud\alicloud\src\services\dev_bind\os/os.h ****  * @return The timeout interval.
 620:..\..\..\..\cloud\alicloud\src\services\dev_bind\os/os.h ****  * @see None.
 621:..\..\..\..\cloud\alicloud\src\services\dev_bind\os/os.h ****  * @note None. The recommended value is between 200ms and 400ms.
 622:..\..\..\..\cloud\alicloud\src\services\dev_bind\os/os.h ****  */
 623:..\..\..\..\cloud\alicloud\src\services\dev_bind\os/os.h **** static inline int os_awss_get_channelscan_interval_ms(void)
 624:..\..\..\..\cloud\alicloud\src\services\dev_bind\os/os.h **** {
 625:..\..\..\..\cloud\alicloud\src\services\dev_bind\os/os.h ****     return platform_awss_get_channelscan_interval_ms();
 626:..\..\..\..\cloud\alicloud\src\services\dev_bind\os/os.h **** }
 627:..\..\..\..\cloud\alicloud\src\services\dev_bind\os/os.h **** 
 628:..\..\..\..\cloud\alicloud\src\services\dev_bind\os/os.h **** typedef platform_awss_recv_80211_frame_cb_t os_awss_recv_80211_frame_cb_t;
 629:..\..\..\..\cloud\alicloud\src\services\dev_bind\os/os.h **** /**
 630:..\..\..\..\cloud\alicloud\src\services\dev_bind\os/os.h ****  * @brief Set wifi running at monitor mode,
 631:..\..\..\..\cloud\alicloud\src\services\dev_bind\os/os.h ****    and register a callback function which will be called when wifi receive a frame.
 632:..\..\..\..\cloud\alicloud\src\services\dev_bind\os/os.h ****  *
 633:..\..\..\..\cloud\alicloud\src\services\dev_bind\os/os.h ****  * @param[in] cb @n A function pointer, called back when wifi receive a frame.
 634:..\..\..\..\cloud\alicloud\src\services\dev_bind\os/os.h ****  * @return None.
 635:..\..\..\..\cloud\alicloud\src\services\dev_bind\os/os.h ****  * @see None.
 636:..\..\..\..\cloud\alicloud\src\services\dev_bind\os/os.h ****  * @note None.
 637:..\..\..\..\cloud\alicloud\src\services\dev_bind\os/os.h ****  */
 638:..\..\..\..\cloud\alicloud\src\services\dev_bind\os/os.h **** static inline void os_awss_open_monitor(os_awss_recv_80211_frame_cb_t cb)
 639:..\..\..\..\cloud\alicloud\src\services\dev_bind\os/os.h **** {
 640:..\..\..\..\cloud\alicloud\src\services\dev_bind\os/os.h ****     platform_awss_open_monitor(cb);
 641:..\..\..\..\cloud\alicloud\src\services\dev_bind\os/os.h **** }
 642:..\..\..\..\cloud\alicloud\src\services\dev_bind\os/os.h **** 
 643:..\..\..\..\cloud\alicloud\src\services\dev_bind\os/os.h **** /**
 644:..\..\..\..\cloud\alicloud\src\services\dev_bind\os/os.h ****  * @brief Close wifi monitor mode, and set running at station mode.
 645:..\..\..\..\cloud\alicloud\src\services\dev_bind\os/os.h ****  *
 646:..\..\..\..\cloud\alicloud\src\services\dev_bind\os/os.h ****  * @param None.
 647:..\..\..\..\cloud\alicloud\src\services\dev_bind\os/os.h ****  * @return None.
 648:..\..\..\..\cloud\alicloud\src\services\dev_bind\os/os.h ****  * @see None.
 649:..\..\..\..\cloud\alicloud\src\services\dev_bind\os/os.h ****  * @note None.
 650:..\..\..\..\cloud\alicloud\src\services\dev_bind\os/os.h ****  */
 651:..\..\..\..\cloud\alicloud\src\services\dev_bind\os/os.h **** static inline void os_awss_close_monitor(void)
 652:..\..\..\..\cloud\alicloud\src\services\dev_bind\os/os.h **** {
 653:..\..\..\..\cloud\alicloud\src\services\dev_bind\os/os.h ****     platform_awss_close_monitor();
 654:..\..\..\..\cloud\alicloud\src\services\dev_bind\os/os.h **** }
 655:..\..\..\..\cloud\alicloud\src\services\dev_bind\os/os.h **** 
 656:..\..\..\..\cloud\alicloud\src\services\dev_bind\os/os.h **** /**
 657:..\..\..\..\cloud\alicloud\src\services\dev_bind\os/os.h ****   * @brief   SoftAP
 658:..\..\..\..\cloud\alicloud\src\services\dev_bind\os/os.h ****   *
 659:..\..\..\..\cloud\alicloud\src\services\dev_bind\os/os.h ****   * @param[in] ssid @n ssid
 660:..\..\..\..\cloud\alicloud\src\services\dev_bind\os/os.h ****   * @param[in] passwd @n passwd
 661:..\..\..\..\cloud\alicloud\src\services\dev_bind\os/os.h ****   * @param[in] beacon_interval @n Beacon
 662:..\..\..\..\cloud\alicloud\src\services\dev_bind\os/os.h ****   * @param[in] hide @n hide:0, , 
 663:..\..\..\..\cloud\alicloud\src\services\dev_bind\os/os.h ****   * @return
 664:..\..\..\..\cloud\alicloud\src\services\dev_bind\os/os.h ****      @verbatim
 665:..\..\..\..\cloud\alicloud\src\services\dev_bind\os/os.h ****         = 0: success
 666:..\..\..\..\cloud\alicloud\src\services\dev_bind\os/os.h ****         = -1: unsupported
 667:..\..\..\..\cloud\alicloud\src\services\dev_bind\os/os.h ****         = -2: failure with system error
 668:..\..\..\..\cloud\alicloud\src\services\dev_bind\os/os.h ****         = -3: failure with no memory
 669:..\..\..\..\cloud\alicloud\src\services\dev_bind\os/os.h ****         = -4: failure with invalid parameters
 670:..\..\..\..\cloud\alicloud\src\services\dev_bind\os/os.h ****      @endverbatim
 671:..\..\..\..\cloud\alicloud\src\services\dev_bind\os/os.h ****   * @Note:
 672:..\..\..\..\cloud\alicloud\src\services\dev_bind\os/os.h ****   *       1ssidpasswd'\0'passwd
 673:..\..\..\..\cloud\alicloud\src\services\dev_bind\os/os.h ****   *          0Open
 674:..\..\..\..\cloud\alicloud\src\services\dev_bind\os/os.h ****   *       2beacon_intervalBeacon
 675:..\..\..\..\cloud\alicloud\src\services\dev_bind\os/os.h ****   *          100ms
 676:..\..\..\..\cloud\alicloud\src\services\dev_bind\os/os.h ****   *       3hidehide=0
 677:..\..\..\..\cloud\alicloud\src\services\dev_bind\os/os.h ****   *         
 678:..\..\..\..\cloud\alicloud\src\services\dev_bind\os/os.h ****   */
 679:..\..\..\..\cloud\alicloud\src\services\dev_bind\os/os.h **** 
 680:..\..\..\..\cloud\alicloud\src\services\dev_bind\os/os.h **** static inline int os_awss_open_ap(const char *ssid, const char *passwd, int beacon_interval, int hi
 681:..\..\..\..\cloud\alicloud\src\services\dev_bind\os/os.h **** {
 682:..\..\..\..\cloud\alicloud\src\services\dev_bind\os/os.h ****     return platform_awss_open_ap(ssid, passwd, beacon_interval, hide);
 683:..\..\..\..\cloud\alicloud\src\services\dev_bind\os/os.h **** }
 684:..\..\..\..\cloud\alicloud\src\services\dev_bind\os/os.h **** 
 685:..\..\..\..\cloud\alicloud\src\services\dev_bind\os/os.h **** /**
 686:..\..\..\..\cloud\alicloud\src\services\dev_bind\os/os.h ****   * @brief   SoftAPStation
 687:..\..\..\..\cloud\alicloud\src\services\dev_bind\os/os.h ****   *
 688:..\..\..\..\cloud\alicloud\src\services\dev_bind\os/os.h ****   * @return
 689:..\..\..\..\cloud\alicloud\src\services\dev_bind\os/os.h ****      @verbatim
 690:..\..\..\..\cloud\alicloud\src\services\dev_bind\os/os.h ****         = 0: success
 691:..\..\..\..\cloud\alicloud\src\services\dev_bind\os/os.h ****         = -1: unsupported
 692:..\..\..\..\cloud\alicloud\src\services\dev_bind\os/os.h ****         = -2: failure
 693:..\..\..\..\cloud\alicloud\src\services\dev_bind\os/os.h ****      @endverbatim
 694:..\..\..\..\cloud\alicloud\src\services\dev_bind\os/os.h ****   * @Note:
 695:..\..\..\..\cloud\alicloud\src\services\dev_bind\os/os.h ****   *       1
 696:..\..\..\..\cloud\alicloud\src\services\dev_bind\os/os.h ****   *          
 697:..\..\..\..\cloud\alicloud\src\services\dev_bind\os/os.h ****   *       2StationStation+SoftAP
 698:..\..\..\..\cloud\alicloud\src\services\dev_bind\os/os.h ****   *          SoftAPStation
 699:..\..\..\..\cloud\alicloud\src\services\dev_bind\os/os.h ****   *       3Wi-Fi
 700:..\..\..\..\cloud\alicloud\src\services\dev_bind\os/os.h ****   *          
 701:..\..\..\..\cloud\alicloud\src\services\dev_bind\os/os.h ****   */
 702:..\..\..\..\cloud\alicloud\src\services\dev_bind\os/os.h **** 
 703:..\..\..\..\cloud\alicloud\src\services\dev_bind\os/os.h **** static inline int os_awss_close_ap()
 704:..\..\..\..\cloud\alicloud\src\services\dev_bind\os/os.h **** {
 705:..\..\..\..\cloud\alicloud\src\services\dev_bind\os/os.h ****     return platform_awss_close_ap();
 706:..\..\..\..\cloud\alicloud\src\services\dev_bind\os/os.h **** }
 707:..\..\..\..\cloud\alicloud\src\services\dev_bind\os/os.h **** 
 708:..\..\..\..\cloud\alicloud\src\services\dev_bind\os/os.h **** /**
 709:..\..\..\..\cloud\alicloud\src\services\dev_bind\os/os.h ****  * @brief Switch to specific wifi channel.
 710:..\..\..\..\cloud\alicloud\src\services\dev_bind\os/os.h ****  *
 711:..\..\..\..\cloud\alicloud\src\services\dev_bind\os/os.h ****  * @param[in] primary_channel @n Primary channel.
 712:..\..\..\..\cloud\alicloud\src\services\dev_bind\os/os.h ****  * @param[in] secondary_channel @n Auxiliary channel.
 713:..\..\..\..\cloud\alicloud\src\services\dev_bind\os/os.h ****  * @param[in] bssid @n A pointer to wifi BSSID.
 714:..\..\..\..\cloud\alicloud\src\services\dev_bind\os/os.h ****  * @return None.
 715:..\..\..\..\cloud\alicloud\src\services\dev_bind\os/os.h ****  * @see None.
 716:..\..\..\..\cloud\alicloud\src\services\dev_bind\os/os.h ****  * @note None.
 717:..\..\..\..\cloud\alicloud\src\services\dev_bind\os/os.h ****  */
 718:..\..\..\..\cloud\alicloud\src\services\dev_bind\os/os.h **** static inline void os_awss_switch_channel(char primary_channel, char secondary_channel, uint8_t bss
 719:..\..\..\..\cloud\alicloud\src\services\dev_bind\os/os.h **** {
 720:..\..\..\..\cloud\alicloud\src\services\dev_bind\os/os.h ****     platform_awss_switch_channel(primary_channel, secondary_channel, bssid);
 721:..\..\..\..\cloud\alicloud\src\services\dev_bind\os/os.h **** }
 722:..\..\..\..\cloud\alicloud\src\services\dev_bind\os/os.h **** 
 723:..\..\..\..\cloud\alicloud\src\services\dev_bind\os/os.h **** /**
 724:..\..\..\..\cloud\alicloud\src\services\dev_bind\os/os.h ****  * @brief Wifi AP connect function
 725:..\..\..\..\cloud\alicloud\src\services\dev_bind\os/os.h ****  *
 726:..\..\..\..\cloud\alicloud\src\services\dev_bind\os/os.h ****  * @param[in] connection_timeout_ms @n AP connection timeout in ms or PLATFORM_WAIT_INFINITE
 727:..\..\..\..\cloud\alicloud\src\services\dev_bind\os/os.h ****  * @param[in] ssid @n AP ssid
 728:..\..\..\..\cloud\alicloud\src\services\dev_bind\os/os.h ****  * @param[in] passwd @n AP passwd
 729:..\..\..\..\cloud\alicloud\src\services\dev_bind\os/os.h ****  * @param[in] auth @n optional(AWSS_AUTH_TYPE_INVALID), AP auth info
 730:..\..\..\..\cloud\alicloud\src\services\dev_bind\os/os.h ****  * @param[in] encry @n optional(AWSS_ENC_TYPE_INVALID), AP encry info
 731:..\..\..\..\cloud\alicloud\src\services\dev_bind\os/os.h ****  * @param[in] bssid @n optional(NULL or zero mac address), AP bssid info
 732:..\..\..\..\cloud\alicloud\src\services\dev_bind\os/os.h ****  * @param[in] channel @n optional, AP channel info
 733:..\..\..\..\cloud\alicloud\src\services\dev_bind\os/os.h ****  * @return
 734:..\..\..\..\cloud\alicloud\src\services\dev_bind\os/os.h ****    @verbatim
 735:..\..\..\..\cloud\alicloud\src\services\dev_bind\os/os.h ****      = 0: connect AP & DHCP success
 736:..\..\..\..\cloud\alicloud\src\services\dev_bind\os/os.h ****      = -1: connect AP or DHCP fail/timeout
 737:..\..\..\..\cloud\alicloud\src\services\dev_bind\os/os.h ****    @endverbatim
 738:..\..\..\..\cloud\alicloud\src\services\dev_bind\os/os.h ****  * @see None.
 739:..\..\..\..\cloud\alicloud\src\services\dev_bind\os/os.h ****  * @note None.
 740:..\..\..\..\cloud\alicloud\src\services\dev_bind\os/os.h ****  */
 741:..\..\..\..\cloud\alicloud\src\services\dev_bind\os/os.h **** static inline int os_awss_connect_ap(
 742:..\..\..\..\cloud\alicloud\src\services\dev_bind\os/os.h ****             _IN_ uint32_t connection_timeout_ms,
 743:..\..\..\..\cloud\alicloud\src\services\dev_bind\os/os.h ****             _IN_ char ssid[OS_MAX_SSID_LEN],
 744:..\..\..\..\cloud\alicloud\src\services\dev_bind\os/os.h ****             _IN_ char passwd[OS_MAX_PASSWD_LEN],
 745:..\..\..\..\cloud\alicloud\src\services\dev_bind\os/os.h ****             _IN_OPT_ enum AWSS_AUTH_TYPE auth,
 746:..\..\..\..\cloud\alicloud\src\services\dev_bind\os/os.h ****             _IN_OPT_ enum AWSS_ENC_TYPE encry,
 747:..\..\..\..\cloud\alicloud\src\services\dev_bind\os/os.h ****             _IN_OPT_ uint8_t bssid[ETH_ALEN],
 748:..\..\..\..\cloud\alicloud\src\services\dev_bind\os/os.h ****             _IN_OPT_ uint8_t channel)
 749:..\..\..\..\cloud\alicloud\src\services\dev_bind\os/os.h **** {
 750:..\..\..\..\cloud\alicloud\src\services\dev_bind\os/os.h ****     return platform_awss_connect_ap(connection_timeout_ms, ssid, passwd,
 556              		.loc 1 750 5
 557              		.loc 1 750 12 is_stmt 0
 558 0008 B7040000 		lui	s1,%hi(.LANCHOR9)
 559 000c B7090000 		lui	s3,%hi(.LANCHOR10)
 560 0010 B7070000 		lui	a5,%hi(.LANCHOR8)
 561 0014 1D65     		li	a0,28672
 562 0016 0148     		li	a6,0
 563 0018 1307F00F 		li	a4,255
 564 001c 9306F00F 		li	a3,255
 565 0020 13890700 		addi	s2,a5,%lo(.LANCHOR8)
 566 0024 13860400 		addi	a2,s1,%lo(.LANCHOR9)
 567 0028 93870700 		addi	a5,a5,%lo(.LANCHOR8)
 568 002c 93850900 		addi	a1,s3,%lo(.LANCHOR10)
 569 0030 13050553 		addi	a0,a0,1328
 570              	.LBE42:
 571              	.LBE41:
 279:C:/Users/stapi/OneDrive/Desktop/GD32VW553/V1_MQTT_OK/GD32VW55X_Wifi_BLE_SDK/GD32VW55x_RELEASE_V1.0.2/MSDK/cloud/alicloud/src/services/dev_bind\awss_report.c ****     switchap_timer = NULL;
 572              		.loc 2 279 5
 573 0034 37040000 		lui	s0,%hi(.LANCHOR11)
 574              	.LBB44:
 575              	.LBB43:
 576              		.loc 1 750 12
 577 0038 97000000 		call	HAL_Awss_Connect_Ap
 577      E7800000 
 578              	.LVL42:
 579              	.LBE43:
 580              	.LBE44:
 279:C:/Users/stapi/OneDrive/Desktop/GD32VW553/V1_MQTT_OK/GD32VW55X_Wifi_BLE_SDK/GD32VW55x_RELEASE_V1.0.2/MSDK/cloud/alicloud/src/services/dev_bind\awss_report.c ****     switchap_timer = NULL;
 581              		.loc 2 279 5 is_stmt 1
 582 0040 13040400 		addi	s0,s0,%lo(.LANCHOR11)
 583 0044 0840     		lw	a0,0(s0)
 584 0046 97000000 		call	awss_stop_timer
 584      E7800000 
 585              	.LVL43:
 280:C:/Users/stapi/OneDrive/Desktop/GD32VW553/V1_MQTT_OK/GD32VW55X_Wifi_BLE_SDK/GD32VW55x_RELEASE_V1.0.2/MSDK/cloud/alicloud/src/services/dev_bind\awss_report.c **** 
 586              		.loc 2 280 5
 282:C:/Users/stapi/OneDrive/Desktop/GD32VW553/V1_MQTT_OK/GD32VW55X_Wifi_BLE_SDK/GD32VW55x_RELEASE_V1.0.2/MSDK/cloud/alicloud/src/services/dev_bind\awss_report.c ****     memset(switchap_bssid, 0, sizeof(switchap_bssid));
 587              		.loc 2 282 5 is_stmt 0
 588 004e 13061002 		li	a2,33
 589 0052 8145     		li	a1,0
 590 0054 13850900 		addi	a0,s3,%lo(.LANCHOR10)
 280:C:/Users/stapi/OneDrive/Desktop/GD32VW553/V1_MQTT_OK/GD32VW55X_Wifi_BLE_SDK/GD32VW55x_RELEASE_V1.0.2/MSDK/cloud/alicloud/src/services/dev_bind\awss_report.c **** 
 591              		.loc 2 280 20
 592 0058 23200400 		sw	zero,0(s0)
 282:C:/Users/stapi/OneDrive/Desktop/GD32VW553/V1_MQTT_OK/GD32VW55X_Wifi_BLE_SDK/GD32VW55x_RELEASE_V1.0.2/MSDK/cloud/alicloud/src/services/dev_bind\awss_report.c ****     memset(switchap_bssid, 0, sizeof(switchap_bssid));
 593              		.loc 2 282 5 is_stmt 1
 594 005c 97000000 		call	memset
 594      E7800000 
 595              	.LVL44:
 283:C:/Users/stapi/OneDrive/Desktop/GD32VW553/V1_MQTT_OK/GD32VW55X_Wifi_BLE_SDK/GD32VW55x_RELEASE_V1.0.2/MSDK/cloud/alicloud/src/services/dev_bind\awss_report.c ****     memset(switchap_passwd, 0, sizeof(switchap_passwd));
 596              		.loc 2 283 5
 284:C:/Users/stapi/OneDrive/Desktop/GD32VW553/V1_MQTT_OK/GD32VW55X_Wifi_BLE_SDK/GD32VW55x_RELEASE_V1.0.2/MSDK/cloud/alicloud/src/services/dev_bind\awss_report.c **** 
 597              		.loc 2 284 5 is_stmt 0
 598 0064 13061004 		li	a2,65
 599 0068 8145     		li	a1,0
 600 006a 13850400 		addi	a0,s1,%lo(.LANCHOR9)
 283:C:/Users/stapi/OneDrive/Desktop/GD32VW553/V1_MQTT_OK/GD32VW55X_Wifi_BLE_SDK/GD32VW55x_RELEASE_V1.0.2/MSDK/cloud/alicloud/src/services/dev_bind\awss_report.c ****     memset(switchap_passwd, 0, sizeof(switchap_passwd));
 601              		.loc 2 283 5
 602 006e 23200900 		sw	zero,0(s2)
 603 0072 23120900 		sh	zero,4(s2)
 284:C:/Users/stapi/OneDrive/Desktop/GD32VW553/V1_MQTT_OK/GD32VW55X_Wifi_BLE_SDK/GD32VW55x_RELEASE_V1.0.2/MSDK/cloud/alicloud/src/services/dev_bind\awss_report.c **** 
 604              		.loc 2 284 5 is_stmt 1
 605 0076 97000000 		call	memset
 605      E7800000 
 606              	.LVL45:
 286:C:/Users/stapi/OneDrive/Desktop/GD32VW553/V1_MQTT_OK/GD32VW55X_Wifi_BLE_SDK/GD32VW55x_RELEASE_V1.0.2/MSDK/cloud/alicloud/src/services/dev_bind\awss_report.c ****     HAL_Timer_Start(reboot_timer, 1000);;
 607              		.loc 2 286 5
 286:C:/Users/stapi/OneDrive/Desktop/GD32VW553/V1_MQTT_OK/GD32VW55X_Wifi_BLE_SDK/GD32VW55x_RELEASE_V1.0.2/MSDK/cloud/alicloud/src/services/dev_bind\awss_report.c ****     HAL_Timer_Start(reboot_timer, 1000);;
 608              		.loc 2 286 20 is_stmt 0
 609 007e B7050000 		lui	a1,%hi(awss_reboot_system)
 610 0082 37050000 		lui	a0,%hi(.LC18)
 611 0086 0146     		li	a2,0
 612 0088 93850500 		addi	a1,a1,%lo(awss_reboot_system)
 613 008c 13050500 		addi	a0,a0,%lo(.LC18)
 614 0090 97000000 		call	HAL_Timer_Create
 614      E7800000 
 615              	.LVL46:
 286:C:/Users/stapi/OneDrive/Desktop/GD32VW553/V1_MQTT_OK/GD32VW55X_Wifi_BLE_SDK/GD32VW55x_RELEASE_V1.0.2/MSDK/cloud/alicloud/src/services/dev_bind\awss_report.c ****     HAL_Timer_Start(reboot_timer, 1000);;
 616              		.loc 2 286 18
 617 0098 B7070000 		lui	a5,%hi(.LANCHOR7)
 287:C:/Users/stapi/OneDrive/Desktop/GD32VW553/V1_MQTT_OK/GD32VW55X_Wifi_BLE_SDK/GD32VW55x_RELEASE_V1.0.2/MSDK/cloud/alicloud/src/services/dev_bind\awss_report.c **** 
 618              		.loc 2 287 5
 619 009c 9305803E 		li	a1,1000
 286:C:/Users/stapi/OneDrive/Desktop/GD32VW553/V1_MQTT_OK/GD32VW55X_Wifi_BLE_SDK/GD32VW55x_RELEASE_V1.0.2/MSDK/cloud/alicloud/src/services/dev_bind\awss_report.c ****     HAL_Timer_Start(reboot_timer, 1000);;
 620              		.loc 2 286 18
 621 00a0 23A0A700 		sw	a0,%lo(.LANCHOR7)(a5)
 287:C:/Users/stapi/OneDrive/Desktop/GD32VW553/V1_MQTT_OK/GD32VW55X_Wifi_BLE_SDK/GD32VW55x_RELEASE_V1.0.2/MSDK/cloud/alicloud/src/services/dev_bind\awss_report.c **** 
 622              		.loc 2 287 5 is_stmt 1
 623 00a4 97000000 		call	HAL_Timer_Start
 623      E7800000 
 624              	.LVL47:
 287:C:/Users/stapi/OneDrive/Desktop/GD32VW553/V1_MQTT_OK/GD32VW55X_Wifi_BLE_SDK/GD32VW55x_RELEASE_V1.0.2/MSDK/cloud/alicloud/src/services/dev_bind\awss_report.c **** 
 625              		.loc 2 287 41
 289:C:/Users/stapi/OneDrive/Desktop/GD32VW553/V1_MQTT_OK/GD32VW55X_Wifi_BLE_SDK/GD32VW55x_RELEASE_V1.0.2/MSDK/cloud/alicloud/src/services/dev_bind\awss_report.c **** }
 626              		.loc 2 289 5
 290:C:/Users/stapi/OneDrive/Desktop/GD32VW553/V1_MQTT_OK/GD32VW55X_Wifi_BLE_SDK/GD32VW55x_RELEASE_V1.0.2/MSDK/cloud/alicloud/src/services/dev_bind\awss_report.c **** 
 627              		.loc 2 290 1 is_stmt 0
 628 00ac 0145     		li	a0,0
 629 00ae 17030000 		tail	__riscv_restore_4
 629      67000300 
 630              		.cfi_restore 19
 631              		.cfi_restore 18
 632              		.cfi_restore 9
 633              		.cfi_restore 8
 634              		.cfi_restore 1
 635              		.cfi_def_cfa_offset 0
 636              		.cfi_endproc
 637              	.LFE69:
 639              		.section	.text.awss_token_remain_time,"ax",@progbits
 640              		.align	1
 641              		.globl	awss_token_remain_time
 643              	awss_token_remain_time:
 644              	.LFB64:
  45:C:/Users/stapi/OneDrive/Desktop/GD32VW553/V1_MQTT_OK/GD32VW55X_Wifi_BLE_SDK/GD32VW55x_RELEASE_V1.0.2/MSDK/cloud/alicloud/src/services/dev_bind\awss_report.c ****     int remain = 0;
 645              		.loc 2 45 1 is_stmt 1
 646              		.cfi_startproc
 647 0000 17030000 		call	t0,__riscv_save_0
 647      E7020300 
 648              		.cfi_offset 1, -4
 649              		.cfi_def_cfa_offset 16
  46:C:/Users/stapi/OneDrive/Desktop/GD32VW553/V1_MQTT_OK/GD32VW55X_Wifi_BLE_SDK/GD32VW55x_RELEASE_V1.0.2/MSDK/cloud/alicloud/src/services/dev_bind\awss_report.c ****     uint32_t cur = os_get_time_ms();
 650              		.loc 2 46 5
 651              	.LVL48:
  47:C:/Users/stapi/OneDrive/Desktop/GD32VW553/V1_MQTT_OK/GD32VW55X_Wifi_BLE_SDK/GD32VW55x_RELEASE_V1.0.2/MSDK/cloud/alicloud/src/services/dev_bind\awss_report.c ****     uint32_t diff = (uint32_t)(cur - awss_report_token_time);
 652              		.loc 2 47 5
  47:C:/Users/stapi/OneDrive/Desktop/GD32VW553/V1_MQTT_OK/GD32VW55X_Wifi_BLE_SDK/GD32VW55x_RELEASE_V1.0.2/MSDK/cloud/alicloud/src/services/dev_bind\awss_report.c ****     uint32_t diff = (uint32_t)(cur - awss_report_token_time);
 653              		.loc 2 47 20 is_stmt 0
 654 0008 97000000 		call	os_get_time_ms
 654      E7800000 
 655              	.LVL49:
  50:C:/Users/stapi/OneDrive/Desktop/GD32VW553/V1_MQTT_OK/GD32VW55X_Wifi_BLE_SDK/GD32VW55x_RELEASE_V1.0.2/MSDK/cloud/alicloud/src/services/dev_bind\awss_report.c ****         return remain;
 656              		.loc 2 50 31
 657 0010 B7060000 		lui	a3,%hi(.LANCHOR1)
 658 0014 83C60600 		lbu	a3,%lo(.LANCHOR1)(a3)
  48:C:/Users/stapi/OneDrive/Desktop/GD32VW553/V1_MQTT_OK/GD32VW55X_Wifi_BLE_SDK/GD32VW55x_RELEASE_V1.0.2/MSDK/cloud/alicloud/src/services/dev_bind\awss_report.c **** 
 659              		.loc 2 48 21
 660 0018 37070000 		lui	a4,%hi(.LANCHOR4)
  47:C:/Users/stapi/OneDrive/Desktop/GD32VW553/V1_MQTT_OK/GD32VW55X_Wifi_BLE_SDK/GD32VW55x_RELEASE_V1.0.2/MSDK/cloud/alicloud/src/services/dev_bind\awss_report.c ****     uint32_t diff = (uint32_t)(cur - awss_report_token_time);
 661              		.loc 2 47 20
 662 001c AA87     		mv	a5,a0
 663              	.LVL50:
  48:C:/Users/stapi/OneDrive/Desktop/GD32VW553/V1_MQTT_OK/GD32VW55X_Wifi_BLE_SDK/GD32VW55x_RELEASE_V1.0.2/MSDK/cloud/alicloud/src/services/dev_bind\awss_report.c **** 
 664              		.loc 2 48 5 is_stmt 1
  48:C:/Users/stapi/OneDrive/Desktop/GD32VW553/V1_MQTT_OK/GD32VW55X_Wifi_BLE_SDK/GD32VW55x_RELEASE_V1.0.2/MSDK/cloud/alicloud/src/services/dev_bind\awss_report.c **** 
 665              		.loc 2 48 21 is_stmt 0
 666 001e 03270700 		lw	a4,%lo(.LANCHOR4)(a4)
 667              	.LVL51:
  50:C:/Users/stapi/OneDrive/Desktop/GD32VW553/V1_MQTT_OK/GD32VW55X_Wifi_BLE_SDK/GD32VW55x_RELEASE_V1.0.2/MSDK/cloud/alicloud/src/services/dev_bind\awss_report.c ****         return remain;
 668              		.loc 2 50 5 is_stmt 1
  51:C:/Users/stapi/OneDrive/Desktop/GD32VW553/V1_MQTT_OK/GD32VW55X_Wifi_BLE_SDK/GD32VW55x_RELEASE_V1.0.2/MSDK/cloud/alicloud/src/services/dev_bind\awss_report.c ****     }
 669              		.loc 2 51 16 is_stmt 0
 670 0022 0145     		li	a0,0
 671              	.LVL52:
  50:C:/Users/stapi/OneDrive/Desktop/GD32VW553/V1_MQTT_OK/GD32VW55X_Wifi_BLE_SDK/GD32VW55x_RELEASE_V1.0.2/MSDK/cloud/alicloud/src/services/dev_bind\awss_report.c ****         return remain;
 672              		.loc 2 50 31
 673 0024 93964660 		sext.b	a3,a3
  50:C:/Users/stapi/OneDrive/Desktop/GD32VW553/V1_MQTT_OK/GD32VW55X_Wifi_BLE_SDK/GD32VW55x_RELEASE_V1.0.2/MSDK/cloud/alicloud/src/services/dev_bind\awss_report.c ****         return remain;
 674              		.loc 2 50 8
 675 0028 89CE     		beq	a3,zero,.L17
  54:C:/Users/stapi/OneDrive/Desktop/GD32VW553/V1_MQTT_OK/GD32VW55X_Wifi_BLE_SDK/GD32VW55x_RELEASE_V1.0.2/MSDK/cloud/alicloud/src/services/dev_bind\awss_report.c ****         remain = AWSS_TOKEN_TIMEOUT_MS - diff;
 676              		.loc 2 54 5 is_stmt 1
  54:C:/Users/stapi/OneDrive/Desktop/GD32VW553/V1_MQTT_OK/GD32VW55X_Wifi_BLE_SDK/GD32VW55x_RELEASE_V1.0.2/MSDK/cloud/alicloud/src/services/dev_bind\awss_report.c ****         remain = AWSS_TOKEN_TIMEOUT_MS - diff;
 677              		.loc 2 54 8 is_stmt 0
 678 002a F566     		li	a3,118784
  48:C:/Users/stapi/OneDrive/Desktop/GD32VW553/V1_MQTT_OK/GD32VW55X_Wifi_BLE_SDK/GD32VW55x_RELEASE_V1.0.2/MSDK/cloud/alicloud/src/services/dev_bind\awss_report.c **** 
 679              		.loc 2 48 14
 680 002c 3386E740 		sub	a2,a5,a4
 681              	.LVL53:
  54:C:/Users/stapi/OneDrive/Desktop/GD32VW553/V1_MQTT_OK/GD32VW55X_Wifi_BLE_SDK/GD32VW55x_RELEASE_V1.0.2/MSDK/cloud/alicloud/src/services/dev_bind\awss_report.c ****         remain = AWSS_TOKEN_TIMEOUT_MS - diff;
 682              		.loc 2 54 8
 683 0030 9385F64B 		addi	a1,a3,1215
 684 0034 63E7C500 		bgtu	a2,a1,.L17
  55:C:/Users/stapi/OneDrive/Desktop/GD32VW553/V1_MQTT_OK/GD32VW55X_Wifi_BLE_SDK/GD32VW55x_RELEASE_V1.0.2/MSDK/cloud/alicloud/src/services/dev_bind\awss_report.c ****     }
 685              		.loc 2 55 9 is_stmt 1
  55:C:/Users/stapi/OneDrive/Desktop/GD32VW553/V1_MQTT_OK/GD32VW55X_Wifi_BLE_SDK/GD32VW55x_RELEASE_V1.0.2/MSDK/cloud/alicloud/src/services/dev_bind\awss_report.c ****     }
 686              		.loc 2 55 40 is_stmt 0
 687 0038 9386064C 		addi	a3,a3,1216
 688 003c 3697     		add	a4,a4,a3
 689 003e 3305F740 		sub	a0,a4,a5
 690              	.LVL54:
 691              	.L17:
  59:C:/Users/stapi/OneDrive/Desktop/GD32VW553/V1_MQTT_OK/GD32VW55X_Wifi_BLE_SDK/GD32VW55x_RELEASE_V1.0.2/MSDK/cloud/alicloud/src/services/dev_bind\awss_report.c **** 
 692              		.loc 2 59 1
 693 0042 17030000 		tail	__riscv_restore_0
 693      67000300 
 694              		.cfi_restore 1
 695              		.cfi_def_cfa_offset 0
 696              		.cfi_endproc
 697              	.LFE64:
 699              		.section	.rodata.awss_update_token.str1.4,"aMS",@progbits,1
 700              		.align	2
 701              	.LC19:
 702 0000 75706461 		.string	"update token"
 702      74652074 
 702      6F6B656E 
 702      00
 703              		.section	.text.awss_update_token,"ax",@progbits
 704              		.align	1
 705              		.globl	awss_update_token
 707              	awss_update_token:
 708              	.LFB65:
  62:C:/Users/stapi/OneDrive/Desktop/GD32VW553/V1_MQTT_OK/GD32VW55X_Wifi_BLE_SDK/GD32VW55x_RELEASE_V1.0.2/MSDK/cloud/alicloud/src/services/dev_bind\awss_report.c ****     awss_report_token_time = 0;
 709              		.loc 2 62 1 is_stmt 1
 710              		.cfi_startproc
 711 0000 17030000 		call	t0,__riscv_save_1
 711      E7020300 
 712              		.cfi_offset 8, -8
 713              		.cfi_offset 1, -4
 714              		.cfi_def_cfa_offset 16
  63:C:/Users/stapi/OneDrive/Desktop/GD32VW553/V1_MQTT_OK/GD32VW55X_Wifi_BLE_SDK/GD32VW55x_RELEASE_V1.0.2/MSDK/cloud/alicloud/src/services/dev_bind\awss_report.c ****     awss_report_token_cnt = 0;
 715              		.loc 2 63 5
  63:C:/Users/stapi/OneDrive/Desktop/GD32VW553/V1_MQTT_OK/GD32VW55X_Wifi_BLE_SDK/GD32VW55x_RELEASE_V1.0.2/MSDK/cloud/alicloud/src/services/dev_bind\awss_report.c ****     awss_report_token_cnt = 0;
 716              		.loc 2 63 28 is_stmt 0
 717 0008 B7070000 		lui	a5,%hi(.LANCHOR4)
 718 000c 23A00700 		sw	zero,%lo(.LANCHOR4)(a5)
  64:C:/Users/stapi/OneDrive/Desktop/GD32VW553/V1_MQTT_OK/GD32VW55X_Wifi_BLE_SDK/GD32VW55x_RELEASE_V1.0.2/MSDK/cloud/alicloud/src/services/dev_bind\awss_report.c ****     awss_report_token_suc = 0;
 719              		.loc 2 64 5 is_stmt 1
  64:C:/Users/stapi/OneDrive/Desktop/GD32VW553/V1_MQTT_OK/GD32VW55X_Wifi_BLE_SDK/GD32VW55x_RELEASE_V1.0.2/MSDK/cloud/alicloud/src/services/dev_bind\awss_report.c ****     awss_report_token_suc = 0;
 720              		.loc 2 64 27 is_stmt 0
 721 0010 B7070000 		lui	a5,%hi(.LANCHOR2)
 722 0014 23800700 		sb	zero,%lo(.LANCHOR2)(a5)
  65:C:/Users/stapi/OneDrive/Desktop/GD32VW553/V1_MQTT_OK/GD32VW55X_Wifi_BLE_SDK/GD32VW55x_RELEASE_V1.0.2/MSDK/cloud/alicloud/src/services/dev_bind\awss_report.c **** 
 723              		.loc 2 65 5 is_stmt 1
  67:C:/Users/stapi/OneDrive/Desktop/GD32VW553/V1_MQTT_OK/GD32VW55X_Wifi_BLE_SDK/GD32VW55x_RELEASE_V1.0.2/MSDK/cloud/alicloud/src/services/dev_bind\awss_report.c ****         report_token_timer = HAL_Timer_Create("rp_token", (void (*)(void *))awss_report_token_to_cl
 724              		.loc 2 67 28 is_stmt 0
 725 0018 37040000 		lui	s0,%hi(.LANCHOR3)
  65:C:/Users/stapi/OneDrive/Desktop/GD32VW553/V1_MQTT_OK/GD32VW55X_Wifi_BLE_SDK/GD32VW55x_RELEASE_V1.0.2/MSDK/cloud/alicloud/src/services/dev_bind\awss_report.c **** 
 726              		.loc 2 65 27
 727 001c B7070000 		lui	a5,%hi(.LANCHOR1)
 728 0020 23800700 		sb	zero,%lo(.LANCHOR1)(a5)
  67:C:/Users/stapi/OneDrive/Desktop/GD32VW553/V1_MQTT_OK/GD32VW55X_Wifi_BLE_SDK/GD32VW55x_RELEASE_V1.0.2/MSDK/cloud/alicloud/src/services/dev_bind\awss_report.c ****         report_token_timer = HAL_Timer_Create("rp_token", (void (*)(void *))awss_report_token_to_cl
 729              		.loc 2 67 5 is_stmt 1
  67:C:/Users/stapi/OneDrive/Desktop/GD32VW553/V1_MQTT_OK/GD32VW55X_Wifi_BLE_SDK/GD32VW55x_RELEASE_V1.0.2/MSDK/cloud/alicloud/src/services/dev_bind\awss_report.c ****         report_token_timer = HAL_Timer_Create("rp_token", (void (*)(void *))awss_report_token_to_cl
 730              		.loc 2 67 8 is_stmt 0
 731 0024 83270400 		lw	a5,%lo(.LANCHOR3)(s0)
 732 0028 13040400 		addi	s0,s0,%lo(.LANCHOR3)
 733 002c 99EF     		bne	a5,zero,.L23
  68:C:/Users/stapi/OneDrive/Desktop/GD32VW553/V1_MQTT_OK/GD32VW55X_Wifi_BLE_SDK/GD32VW55x_RELEASE_V1.0.2/MSDK/cloud/alicloud/src/services/dev_bind\awss_report.c ****     }
 734              		.loc 2 68 9 is_stmt 1
  68:C:/Users/stapi/OneDrive/Desktop/GD32VW553/V1_MQTT_OK/GD32VW55X_Wifi_BLE_SDK/GD32VW55x_RELEASE_V1.0.2/MSDK/cloud/alicloud/src/services/dev_bind\awss_report.c ****     }
 735              		.loc 2 68 30 is_stmt 0
 736 002e B7050000 		lui	a1,%hi(awss_report_token_to_cloud)
 737 0032 37050000 		lui	a0,%hi(.LC5)
 738 0036 0146     		li	a2,0
 739 0038 93850500 		addi	a1,a1,%lo(awss_report_token_to_cloud)
 740 003c 13050500 		addi	a0,a0,%lo(.LC5)
 741 0040 97000000 		call	HAL_Timer_Create
 741      E7800000 
 742              	.LVL55:
  68:C:/Users/stapi/OneDrive/Desktop/GD32VW553/V1_MQTT_OK/GD32VW55X_Wifi_BLE_SDK/GD32VW55x_RELEASE_V1.0.2/MSDK/cloud/alicloud/src/services/dev_bind\awss_report.c ****     }
 743              		.loc 2 68 28
 744 0048 08C0     		sw	a0,0(s0)
 745              	.L23:
  70:C:/Users/stapi/OneDrive/Desktop/GD32VW553/V1_MQTT_OK/GD32VW55X_Wifi_BLE_SDK/GD32VW55x_RELEASE_V1.0.2/MSDK/cloud/alicloud/src/services/dev_bind\awss_report.c ****     HAL_Timer_Start(report_token_timer, 10);
 746              		.loc 2 70 5 is_stmt 1
 747 004a 0840     		lw	a0,0(s0)
 748 004c 97000000 		call	HAL_Timer_Stop
 748      E7800000 
 749              	.LVL56:
  71:C:/Users/stapi/OneDrive/Desktop/GD32VW553/V1_MQTT_OK/GD32VW55X_Wifi_BLE_SDK/GD32VW55x_RELEASE_V1.0.2/MSDK/cloud/alicloud/src/services/dev_bind\awss_report.c ****     awss_info("update token");
 750              		.loc 2 71 5
 751 0054 0840     		lw	a0,0(s0)
 752 0056 A945     		li	a1,10
 753 0058 97000000 		call	HAL_Timer_Start
 753      E7800000 
 754              	.LVL57:
  72:C:/Users/stapi/OneDrive/Desktop/GD32VW553/V1_MQTT_OK/GD32VW55X_Wifi_BLE_SDK/GD32VW55x_RELEASE_V1.0.2/MSDK/cloud/alicloud/src/services/dev_bind\awss_report.c **** 
 755              		.loc 2 72 5
  72:C:/Users/stapi/OneDrive/Desktop/GD32VW553/V1_MQTT_OK/GD32VW55X_Wifi_BLE_SDK/GD32VW55x_RELEASE_V1.0.2/MSDK/cloud/alicloud/src/services/dev_bind\awss_report.c **** 
 756              		.loc 2 72 5
 757 0060 37050000 		lui	a0,%hi(.LC1)
 758 0064 13050500 		addi	a0,a0,%lo(.LC1)
 759 0068 97000000 		call	HAL_Printf
 759      E7800000 
 760              	.LVL58:
  72:C:/Users/stapi/OneDrive/Desktop/GD32VW553/V1_MQTT_OK/GD32VW55X_Wifi_BLE_SDK/GD32VW55x_RELEASE_V1.0.2/MSDK/cloud/alicloud/src/services/dev_bind\awss_report.c **** 
 761              		.loc 2 72 5
 762 0070 37050000 		lui	a0,%hi(.LC19)
 763 0074 13050500 		addi	a0,a0,%lo(.LC19)
 764 0078 97000000 		call	HAL_Printf
 764      E7800000 
 765              	.LVL59:
  72:C:/Users/stapi/OneDrive/Desktop/GD32VW553/V1_MQTT_OK/GD32VW55X_Wifi_BLE_SDK/GD32VW55x_RELEASE_V1.0.2/MSDK/cloud/alicloud/src/services/dev_bind\awss_report.c **** 
 766              		.loc 2 72 5
 767 0080 37050000 		lui	a0,%hi(.LC3)
 768 0084 13050500 		addi	a0,a0,%lo(.LC3)
 769 0088 97000000 		call	HAL_Printf
 769      E7800000 
 770              	.LVL60:
  72:C:/Users/stapi/OneDrive/Desktop/GD32VW553/V1_MQTT_OK/GD32VW55X_Wifi_BLE_SDK/GD32VW55x_RELEASE_V1.0.2/MSDK/cloud/alicloud/src/services/dev_bind\awss_report.c **** 
 771              		.loc 2 72 5
  74:C:/Users/stapi/OneDrive/Desktop/GD32VW553/V1_MQTT_OK/GD32VW55X_Wifi_BLE_SDK/GD32VW55x_RELEASE_V1.0.2/MSDK/cloud/alicloud/src/services/dev_bind\awss_report.c ****     return 0;
 772              		.loc 2 74 5
 773 0090 37050000 		lui	a0,%hi(g_aes_random)
 774 0094 C145     		li	a1,16
 775 0096 13050500 		addi	a0,a0,%lo(g_aes_random)
 776 009a 97000000 		call	produce_random
 776      E7800000 
 777              	.LVL61:
  75:C:/Users/stapi/OneDrive/Desktop/GD32VW553/V1_MQTT_OK/GD32VW55X_Wifi_BLE_SDK/GD32VW55x_RELEASE_V1.0.2/MSDK/cloud/alicloud/src/services/dev_bind\awss_report.c **** }
 778              		.loc 2 75 5
  76:C:/Users/stapi/OneDrive/Desktop/GD32VW553/V1_MQTT_OK/GD32VW55X_Wifi_BLE_SDK/GD32VW55x_RELEASE_V1.0.2/MSDK/cloud/alicloud/src/services/dev_bind\awss_report.c **** 
 779              		.loc 2 76 1 is_stmt 0
 780 00a2 0145     		li	a0,0
 781 00a4 17030000 		tail	__riscv_restore_1
 781      67000300 
 782              		.cfi_restore 8
 783              		.cfi_restore 1
 784              		.cfi_def_cfa_offset 0
 785              		.cfi_endproc
 786              	.LFE65:
 788              		.section	.text.awss_token_timeout,"ax",@progbits
 789              		.align	1
 790              		.globl	awss_token_timeout
 792              	awss_token_timeout:
 793              	.LFB66:
  79:C:/Users/stapi/OneDrive/Desktop/GD32VW553/V1_MQTT_OK/GD32VW55X_Wifi_BLE_SDK/GD32VW55x_RELEASE_V1.0.2/MSDK/cloud/alicloud/src/services/dev_bind\awss_report.c ****     if (awss_report_token_time == 0) {
 794              		.loc 2 79 1 is_stmt 1
 795              		.cfi_startproc
 796 0000 17030000 		call	t0,__riscv_save_1
 796      E7020300 
 797              		.cfi_offset 8, -8
 798              		.cfi_offset 1, -4
 799              		.cfi_def_cfa_offset 16
  80:C:/Users/stapi/OneDrive/Desktop/GD32VW553/V1_MQTT_OK/GD32VW55X_Wifi_BLE_SDK/GD32VW55x_RELEASE_V1.0.2/MSDK/cloud/alicloud/src/services/dev_bind\awss_report.c ****         return 1;
 800              		.loc 2 80 5
  80:C:/Users/stapi/OneDrive/Desktop/GD32VW553/V1_MQTT_OK/GD32VW55X_Wifi_BLE_SDK/GD32VW55x_RELEASE_V1.0.2/MSDK/cloud/alicloud/src/services/dev_bind\awss_report.c ****         return 1;
 801              		.loc 2 80 32 is_stmt 0
 802 0008 37040000 		lui	s0,%hi(.LANCHOR4)
 803 000c 13040400 		addi	s0,s0,%lo(.LANCHOR4)
  80:C:/Users/stapi/OneDrive/Desktop/GD32VW553/V1_MQTT_OK/GD32VW55X_Wifi_BLE_SDK/GD32VW55x_RELEASE_V1.0.2/MSDK/cloud/alicloud/src/services/dev_bind\awss_report.c ****         return 1;
 804              		.loc 2 80 8
 805 0010 1C40     		lw	a5,0(s0)
 806 0012 0545     		li	a0,1
 807 0014 91CF     		beq	a5,zero,.L25
  84:C:/Users/stapi/OneDrive/Desktop/GD32VW553/V1_MQTT_OK/GD32VW55X_Wifi_BLE_SDK/GD32VW55x_RELEASE_V1.0.2/MSDK/cloud/alicloud/src/services/dev_bind\awss_report.c ****     if ((uint32_t)(cur - awss_report_token_time) > AWSS_TOKEN_TIMEOUT_MS) {
 808              		.loc 2 84 5 is_stmt 1
  84:C:/Users/stapi/OneDrive/Desktop/GD32VW553/V1_MQTT_OK/GD32VW55X_Wifi_BLE_SDK/GD32VW55x_RELEASE_V1.0.2/MSDK/cloud/alicloud/src/services/dev_bind\awss_report.c ****     if ((uint32_t)(cur - awss_report_token_time) > AWSS_TOKEN_TIMEOUT_MS) {
 809              		.loc 2 84 20 is_stmt 0
 810 0016 97000000 		call	os_get_time_ms
 810      E7800000 
 811              	.LVL62:
  85:C:/Users/stapi/OneDrive/Desktop/GD32VW553/V1_MQTT_OK/GD32VW55X_Wifi_BLE_SDK/GD32VW55x_RELEASE_V1.0.2/MSDK/cloud/alicloud/src/services/dev_bind\awss_report.c ****         return 1;
 812              		.loc 2 85 5 is_stmt 1
  85:C:/Users/stapi/OneDrive/Desktop/GD32VW553/V1_MQTT_OK/GD32VW55X_Wifi_BLE_SDK/GD32VW55x_RELEASE_V1.0.2/MSDK/cloud/alicloud/src/services/dev_bind\awss_report.c ****         return 1;
 813              		.loc 2 85 24 is_stmt 0
 814 001e 1C40     		lw	a5,0(s0)
 815 0020 1D8D     		sub	a0,a0,a5
 816              	.LVL63:
  85:C:/Users/stapi/OneDrive/Desktop/GD32VW553/V1_MQTT_OK/GD32VW55X_Wifi_BLE_SDK/GD32VW55x_RELEASE_V1.0.2/MSDK/cloud/alicloud/src/services/dev_bind\awss_report.c ****         return 1;
 817              		.loc 2 85 8
 818 0022 F567     		li	a5,118784
 819 0024 9387174C 		addi	a5,a5,1217
 820 0028 3335F500 		sltu	a0,a0,a5
 821 002c 13451500 		xori	a0,a0,1
 822              	.L25:
  89:C:/Users/stapi/OneDrive/Desktop/GD32VW553/V1_MQTT_OK/GD32VW55X_Wifi_BLE_SDK/GD32VW55x_RELEASE_V1.0.2/MSDK/cloud/alicloud/src/services/dev_bind\awss_report.c **** 
 823              		.loc 2 89 1
 824 0030 17030000 		tail	__riscv_restore_1
 824      67000300 
 825              		.cfi_restore 8
 826              		.cfi_restore 1
 827              		.cfi_def_cfa_offset 0
 828              		.cfi_endproc
 829              	.LFE66:
 831              		.section	.rodata.awss_report_token_reply.str1.4,"aMS",@progbits,1
 832              		.align	2
 833              	.LC20:
 834 0000 6E756C6C 		.string	"null pointer"
 834      20706F69 
 834      6E746572 
 834      00
 835 000d 000000   		.align	2
 836              	.LC21:
 837 0010 696400   		.string	"id"
 838 0013 00       		.align	2
 839              	.LC22:
 840 0014 6E6F2069 		.string	"no id"
 840      6400
 841 001a 0000     		.align	2
 842              	.LC23:
 843 001c 7265706C 		.string	"reply id invalid"
 843      79206964 
 843      20696E76 
 843      616C6964 
 843      00
 844 002d 000000   		.align	2
 845              	.LC24:
 846 0030 25730D0A 		.string	"%s\r\n"
 846      00
 847 0035 000000   		.align	2
 848              	.LC25:
 849 0038 7265706F 		.string	"report token success"
 849      72742074 
 849      6F6B656E 
 849      20737563 
 849      63657373 
 850              		.section	.text.awss_report_token_reply,"ax",@progbits
 851              		.align	1
 852              		.globl	awss_report_token_reply
 854              	awss_report_token_reply:
 855              	.LFB67:
  92:C:/Users/stapi/OneDrive/Desktop/GD32VW553/V1_MQTT_OK/GD32VW55X_Wifi_BLE_SDK/GD32VW55x_RELEASE_V1.0.2/MSDK/cloud/alicloud/src/services/dev_bind\awss_report.c ****     int ret, len;
 856              		.loc 2 92 1 is_stmt 1
 857              		.cfi_startproc
 858              	.LVL64:
 859 0000 17030000 		call	t0,__riscv_save_1
 859      E7020300 
 860              		.cfi_offset 8, -8
 861              		.cfi_offset 1, -4
 862              		.cfi_def_cfa_offset 16
  93:C:/Users/stapi/OneDrive/Desktop/GD32VW553/V1_MQTT_OK/GD32VW55X_Wifi_BLE_SDK/GD32VW55x_RELEASE_V1.0.2/MSDK/cloud/alicloud/src/services/dev_bind\awss_report.c ****     char *payload;
 863              		.loc 2 93 5
  94:C:/Users/stapi/OneDrive/Desktop/GD32VW553/V1_MQTT_OK/GD32VW55X_Wifi_BLE_SDK/GD32VW55x_RELEASE_V1.0.2/MSDK/cloud/alicloud/src/services/dev_bind\awss_report.c ****     char *id = NULL;
 864              		.loc 2 94 5
  95:C:/Users/stapi/OneDrive/Desktop/GD32VW553/V1_MQTT_OK/GD32VW55X_Wifi_BLE_SDK/GD32VW55x_RELEASE_V1.0.2/MSDK/cloud/alicloud/src/services/dev_bind\awss_report.c ****     char reply_id = 0;
 865              		.loc 2 95 5
 866              	.LVL65:
  96:C:/Users/stapi/OneDrive/Desktop/GD32VW553/V1_MQTT_OK/GD32VW55X_Wifi_BLE_SDK/GD32VW55x_RELEASE_V1.0.2/MSDK/cloud/alicloud/src/services/dev_bind\awss_report.c ****     uint32_t payload_len;
 867              		.loc 2 96 5
  97:C:/Users/stapi/OneDrive/Desktop/GD32VW553/V1_MQTT_OK/GD32VW55X_Wifi_BLE_SDK/GD32VW55x_RELEASE_V1.0.2/MSDK/cloud/alicloud/src/services/dev_bind\awss_report.c **** 
 868              		.loc 2 97 5
  99:C:/Users/stapi/OneDrive/Desktop/GD32VW553/V1_MQTT_OK/GD32VW55X_Wifi_BLE_SDK/GD32VW55x_RELEASE_V1.0.2/MSDK/cloud/alicloud/src/services/dev_bind\awss_report.c **** 
 869              		.loc 2 99 5
  92:C:/Users/stapi/OneDrive/Desktop/GD32VW553/V1_MQTT_OK/GD32VW55X_Wifi_BLE_SDK/GD32VW55x_RELEASE_V1.0.2/MSDK/cloud/alicloud/src/services/dev_bind\awss_report.c ****     int ret, len;
 870              		.loc 2 92 1 is_stmt 0
 871 0008 4111     		addi	sp,sp,-16
 872              		.cfi_def_cfa_offset 32
  92:C:/Users/stapi/OneDrive/Desktop/GD32VW553/V1_MQTT_OK/GD32VW55X_Wifi_BLE_SDK/GD32VW55x_RELEASE_V1.0.2/MSDK/cloud/alicloud/src/services/dev_bind\awss_report.c ****     int ret, len;
 873              		.loc 2 92 1
 874 000a 3285     		mv	a0,a2
 875              	.LVL66:
  99:C:/Users/stapi/OneDrive/Desktop/GD32VW553/V1_MQTT_OK/GD32VW55X_Wifi_BLE_SDK/GD32VW55x_RELEASE_V1.0.2/MSDK/cloud/alicloud/src/services/dev_bind\awss_report.c **** 
 876              		.loc 2 99 11
 877 000c 2C00     		addi	a1,sp,8
 878              	.LVL67:
 879 000e 7000     		addi	a2,sp,12
 880              	.LVL68:
 881 0010 97000000 		call	awss_cmp_mqtt_get_payload
 881      E7800000 
 882              	.LVL69:
 101:C:/Users/stapi/OneDrive/Desktop/GD32VW553/V1_MQTT_OK/GD32VW55X_Wifi_BLE_SDK/GD32VW55x_RELEASE_V1.0.2/MSDK/cloud/alicloud/src/services/dev_bind\awss_report.c ****         dump_dev_bind_status(STATE_BIND_MQTT_RSP_INVALID, "null pointer");
 883              		.loc 2 101 5 is_stmt 1
 101:C:/Users/stapi/OneDrive/Desktop/GD32VW553/V1_MQTT_OK/GD32VW55X_Wifi_BLE_SDK/GD32VW55x_RELEASE_V1.0.2/MSDK/cloud/alicloud/src/services/dev_bind\awss_report.c ****         dump_dev_bind_status(STATE_BIND_MQTT_RSP_INVALID, "null pointer");
 884              		.loc 2 101 8 is_stmt 0
 885 0018 09E5     		bne	a0,zero,.L32
 101:C:/Users/stapi/OneDrive/Desktop/GD32VW553/V1_MQTT_OK/GD32VW55X_Wifi_BLE_SDK/GD32VW55x_RELEASE_V1.0.2/MSDK/cloud/alicloud/src/services/dev_bind\awss_report.c ****         dump_dev_bind_status(STATE_BIND_MQTT_RSP_INVALID, "null pointer");
 886              		.loc 2 101 29 discriminator 1
 887 001a 2245     		lw	a0,8(sp)
 888              	.LVL70:
 101:C:/Users/stapi/OneDrive/Desktop/GD32VW553/V1_MQTT_OK/GD32VW55X_Wifi_BLE_SDK/GD32VW55x_RELEASE_V1.0.2/MSDK/cloud/alicloud/src/services/dev_bind\awss_report.c ****         dump_dev_bind_status(STATE_BIND_MQTT_RSP_INVALID, "null pointer");
 889              		.loc 2 101 18 discriminator 1
 890 001c 19C1     		beq	a0,zero,.L32
 101:C:/Users/stapi/OneDrive/Desktop/GD32VW553/V1_MQTT_OK/GD32VW55X_Wifi_BLE_SDK/GD32VW55x_RELEASE_V1.0.2/MSDK/cloud/alicloud/src/services/dev_bind\awss_report.c ****         dump_dev_bind_status(STATE_BIND_MQTT_RSP_INVALID, "null pointer");
 891              		.loc 2 101 52 discriminator 2
 892 001e B245     		lw	a1,12(sp)
 101:C:/Users/stapi/OneDrive/Desktop/GD32VW553/V1_MQTT_OK/GD32VW55X_Wifi_BLE_SDK/GD32VW55x_RELEASE_V1.0.2/MSDK/cloud/alicloud/src/services/dev_bind\awss_report.c ****         dump_dev_bind_status(STATE_BIND_MQTT_RSP_INVALID, "null pointer");
 893              		.loc 2 101 37 discriminator 2
 894 0020 95E1     		bne	a1,zero,.L33
 895              	.L32:
 102:C:/Users/stapi/OneDrive/Desktop/GD32VW553/V1_MQTT_OK/GD32VW55X_Wifi_BLE_SDK/GD32VW55x_RELEASE_V1.0.2/MSDK/cloud/alicloud/src/services/dev_bind\awss_report.c ****         return;
 896              		.loc 2 102 9 is_stmt 1
 897 0022 37060000 		lui	a2,%hi(.LC20)
 898 0026 13060600 		addi	a2,a2,%lo(.LC20)
 899              	.LVL71:
 900              	.L42:
 108:C:/Users/stapi/OneDrive/Desktop/GD32VW553/V1_MQTT_OK/GD32VW55X_Wifi_BLE_SDK/GD32VW55x_RELEASE_V1.0.2/MSDK/cloud/alicloud/src/services/dev_bind\awss_report.c ****         return;
 901              		.loc 2 108 9 is_stmt 0
 902 002a FD75     		li	a1,-4096
 903 002c 9385857F 		addi	a1,a1,2040
 904              	.LVL72:
 905              	.L41:
 114:C:/Users/stapi/OneDrive/Desktop/GD32VW553/V1_MQTT_OK/GD32VW55X_Wifi_BLE_SDK/GD32VW55x_RELEASE_V1.0.2/MSDK/cloud/alicloud/src/services/dev_bind\awss_report.c ****         return;
 906              		.loc 2 114 9
 907 0030 7D45     		li	a0,31
 908 0032 97000000 		call	iotx_state_event
 908      E7800000 
 909              	.LVL73:
 115:C:/Users/stapi/OneDrive/Desktop/GD32VW553/V1_MQTT_OK/GD32VW55X_Wifi_BLE_SDK/GD32VW55x_RELEASE_V1.0.2/MSDK/cloud/alicloud/src/services/dev_bind\awss_report.c ****     }
 910              		.loc 2 115 9 is_stmt 1
 911              	.L31:
 126:C:/Users/stapi/OneDrive/Desktop/GD32VW553/V1_MQTT_OK/GD32VW55X_Wifi_BLE_SDK/GD32VW55x_RELEASE_V1.0.2/MSDK/cloud/alicloud/src/services/dev_bind\awss_report.c **** 
 912              		.loc 2 126 1 is_stmt 0
 913 003a 4101     		addi	sp,sp,16
 914              		.cfi_remember_state
 915              		.cfi_def_cfa_offset 0
 916 003c 17030000 		tail	__riscv_restore_1
 916      67000300 
 917              		.cfi_restore 8
 918              		.cfi_restore 1
 919              		.cfi_def_cfa_offset -16
 920              	.LVL74:
 921              	.L33:
 922              		.cfi_restore_state
 106:C:/Users/stapi/OneDrive/Desktop/GD32VW553/V1_MQTT_OK/GD32VW55X_Wifi_BLE_SDK/GD32VW55x_RELEASE_V1.0.2/MSDK/cloud/alicloud/src/services/dev_bind\awss_report.c ****     if (id == NULL) {
 923              		.loc 2 106 5 is_stmt 1
 106:C:/Users/stapi/OneDrive/Desktop/GD32VW553/V1_MQTT_OK/GD32VW55X_Wifi_BLE_SDK/GD32VW55x_RELEASE_V1.0.2/MSDK/cloud/alicloud/src/services/dev_bind\awss_report.c ****     if (id == NULL) {
 924              		.loc 2 106 10 is_stmt 0
 925 0044 37060000 		lui	a2,%hi(.LC21)
 926 0048 0147     		li	a4,0
 927 004a 5400     		addi	a3,sp,4
 928 004c 13060600 		addi	a2,a2,%lo(.LC21)
 929 0050 97000000 		call	json_get_value_by_name
 929      E7800000 
 930              	.LVL75:
 107:C:/Users/stapi/OneDrive/Desktop/GD32VW553/V1_MQTT_OK/GD32VW55X_Wifi_BLE_SDK/GD32VW55x_RELEASE_V1.0.2/MSDK/cloud/alicloud/src/services/dev_bind\awss_report.c ****         dump_dev_bind_status(STATE_BIND_MQTT_RSP_INVALID, "no id");
 931              		.loc 2 107 5 is_stmt 1
 107:C:/Users/stapi/OneDrive/Desktop/GD32VW553/V1_MQTT_OK/GD32VW55X_Wifi_BLE_SDK/GD32VW55x_RELEASE_V1.0.2/MSDK/cloud/alicloud/src/services/dev_bind\awss_report.c ****         dump_dev_bind_status(STATE_BIND_MQTT_RSP_INVALID, "no id");
 932              		.loc 2 107 8 is_stmt 0
 933 0058 11E5     		bne	a0,zero,.L35
 108:C:/Users/stapi/OneDrive/Desktop/GD32VW553/V1_MQTT_OK/GD32VW55X_Wifi_BLE_SDK/GD32VW55x_RELEASE_V1.0.2/MSDK/cloud/alicloud/src/services/dev_bind\awss_report.c ****         return;
 934              		.loc 2 108 9 is_stmt 1
 935 005a 37060000 		lui	a2,%hi(.LC22)
 936 005e 13060600 		addi	a2,a2,%lo(.LC22)
 937 0062 E1B7     		j	.L42
 938              	.L35:
 112:C:/Users/stapi/OneDrive/Desktop/GD32VW553/V1_MQTT_OK/GD32VW55X_Wifi_BLE_SDK/GD32VW55x_RELEASE_V1.0.2/MSDK/cloud/alicloud/src/services/dev_bind\awss_report.c ****     if (reply_id + 1 < awss_report_id) {
 939              		.loc 2 112 5
 112:C:/Users/stapi/OneDrive/Desktop/GD32VW553/V1_MQTT_OK/GD32VW55X_Wifi_BLE_SDK/GD32VW55x_RELEASE_V1.0.2/MSDK/cloud/alicloud/src/services/dev_bind\awss_report.c ****     if (reply_id + 1 < awss_report_id) {
 940              		.loc 2 112 16 is_stmt 0
 941 0064 97000000 		call	atoi
 941      E7800000 
 942              	.LVL76:
 113:C:/Users/stapi/OneDrive/Desktop/GD32VW553/V1_MQTT_OK/GD32VW55X_Wifi_BLE_SDK/GD32VW55x_RELEASE_V1.0.2/MSDK/cloud/alicloud/src/services/dev_bind\awss_report.c ****         dump_dev_bind_status(STATE_BIND_MQTT_MSGID_INVALID, "reply id invalid");
 943              		.loc 2 113 5 is_stmt 1
 113:C:/Users/stapi/OneDrive/Desktop/GD32VW553/V1_MQTT_OK/GD32VW55X_Wifi_BLE_SDK/GD32VW55x_RELEASE_V1.0.2/MSDK/cloud/alicloud/src/services/dev_bind\awss_report.c ****         dump_dev_bind_status(STATE_BIND_MQTT_MSGID_INVALID, "reply id invalid");
 944              		.loc 2 113 22 is_stmt 0
 945 006c B7070000 		lui	a5,%hi(.LANCHOR5)
 113:C:/Users/stapi/OneDrive/Desktop/GD32VW553/V1_MQTT_OK/GD32VW55X_Wifi_BLE_SDK/GD32VW55x_RELEASE_V1.0.2/MSDK/cloud/alicloud/src/services/dev_bind\awss_report.c ****         dump_dev_bind_status(STATE_BIND_MQTT_MSGID_INVALID, "reply id invalid");
 946              		.loc 2 113 18
 947 0070 13154560 		sext.b	a0,a0
 948 0074 0505     		addi	a0,a0,1
 949              	.LVL77:
 113:C:/Users/stapi/OneDrive/Desktop/GD32VW553/V1_MQTT_OK/GD32VW55X_Wifi_BLE_SDK/GD32VW55x_RELEASE_V1.0.2/MSDK/cloud/alicloud/src/services/dev_bind\awss_report.c ****         dump_dev_bind_status(STATE_BIND_MQTT_MSGID_INVALID, "reply id invalid");
 950              		.loc 2 113 22
 951 0076 83870700 		lb	a5,%lo(.LANCHOR5)(a5)
 113:C:/Users/stapi/OneDrive/Desktop/GD32VW553/V1_MQTT_OK/GD32VW55X_Wifi_BLE_SDK/GD32VW55x_RELEASE_V1.0.2/MSDK/cloud/alicloud/src/services/dev_bind\awss_report.c ****         dump_dev_bind_status(STATE_BIND_MQTT_MSGID_INVALID, "reply id invalid");
 952              		.loc 2 113 8
 953 007a 635AF500 		bge	a0,a5,.L36
 114:C:/Users/stapi/OneDrive/Desktop/GD32VW553/V1_MQTT_OK/GD32VW55X_Wifi_BLE_SDK/GD32VW55x_RELEASE_V1.0.2/MSDK/cloud/alicloud/src/services/dev_bind\awss_report.c ****         return;
 954              		.loc 2 114 9 is_stmt 1
 955 007e 37060000 		lui	a2,%hi(.LC23)
 956 0082 FD75     		li	a1,-4096
 957 0084 13060600 		addi	a2,a2,%lo(.LC23)
 958 0088 9385757F 		addi	a1,a1,2039
 959 008c 55B7     		j	.L41
 960              	.L36:
 117:C:/Users/stapi/OneDrive/Desktop/GD32VW553/V1_MQTT_OK/GD32VW55X_Wifi_BLE_SDK/GD32VW55x_RELEASE_V1.0.2/MSDK/cloud/alicloud/src/services/dev_bind\awss_report.c ****     dump_dev_bind_status(STATE_BIND_REPORT_TOKEN_SUCCESS, "report token success");
 961              		.loc 2 117 5
 117:C:/Users/stapi/OneDrive/Desktop/GD32VW553/V1_MQTT_OK/GD32VW55X_Wifi_BLE_SDK/GD32VW55x_RELEASE_V1.0.2/MSDK/cloud/alicloud/src/services/dev_bind\awss_report.c ****     dump_dev_bind_status(STATE_BIND_REPORT_TOKEN_SUCCESS, "report token success");
 962              		.loc 2 117 5
 963 008e 37050000 		lui	a0,%hi(.LC1)
 964              	.LVL78:
 965 0092 13050500 		addi	a0,a0,%lo(.LC1)
 966 0096 97000000 		call	HAL_Printf
 966      E7800000 
 967              	.LVL79:
 117:C:/Users/stapi/OneDrive/Desktop/GD32VW553/V1_MQTT_OK/GD32VW55X_Wifi_BLE_SDK/GD32VW55x_RELEASE_V1.0.2/MSDK/cloud/alicloud/src/services/dev_bind\awss_report.c ****     dump_dev_bind_status(STATE_BIND_REPORT_TOKEN_SUCCESS, "report token success");
 968              		.loc 2 117 5
 969 009e B7050000 		lui	a1,%hi(.LANCHOR12)
 970 00a2 37050000 		lui	a0,%hi(.LC24)
 971 00a6 93850500 		addi	a1,a1,%lo(.LANCHOR12)
 972 00aa 13050500 		addi	a0,a0,%lo(.LC24)
 973 00ae 97000000 		call	HAL_Printf
 973      E7800000 
 974              	.LVL80:
 117:C:/Users/stapi/OneDrive/Desktop/GD32VW553/V1_MQTT_OK/GD32VW55X_Wifi_BLE_SDK/GD32VW55x_RELEASE_V1.0.2/MSDK/cloud/alicloud/src/services/dev_bind\awss_report.c ****     dump_dev_bind_status(STATE_BIND_REPORT_TOKEN_SUCCESS, "report token success");
 975              		.loc 2 117 5
 976 00b6 37050000 		lui	a0,%hi(.LC3)
 977 00ba 13050500 		addi	a0,a0,%lo(.LC3)
 978 00be 97000000 		call	HAL_Printf
 978      E7800000 
 979              	.LVL81:
 117:C:/Users/stapi/OneDrive/Desktop/GD32VW553/V1_MQTT_OK/GD32VW55X_Wifi_BLE_SDK/GD32VW55x_RELEASE_V1.0.2/MSDK/cloud/alicloud/src/services/dev_bind\awss_report.c ****     dump_dev_bind_status(STATE_BIND_REPORT_TOKEN_SUCCESS, "report token success");
 980              		.loc 2 117 5
 118:C:/Users/stapi/OneDrive/Desktop/GD32VW553/V1_MQTT_OK/GD32VW55X_Wifi_BLE_SDK/GD32VW55x_RELEASE_V1.0.2/MSDK/cloud/alicloud/src/services/dev_bind\awss_report.c ****     awss_report_token_suc = 1;
 981              		.loc 2 118 5
 982 00c6 37060000 		lui	a2,%hi(.LC25)
 983 00ca FD75     		li	a1,-4096
 984 00cc 13060600 		addi	a2,a2,%lo(.LC25)
 985 00d0 9385C57F 		addi	a1,a1,2044
 986 00d4 7D45     		li	a0,31
 987 00d6 97000000 		call	iotx_state_event
 987      E7800000 
 988              	.LVL82:
 119:C:/Users/stapi/OneDrive/Desktop/GD32VW553/V1_MQTT_OK/GD32VW55X_Wifi_BLE_SDK/GD32VW55x_RELEASE_V1.0.2/MSDK/cloud/alicloud/src/services/dev_bind\awss_report.c ****     iotx_event_post(IOTX_CONN_REPORT_TOKEN_SUC);
 989              		.loc 2 119 5
 120:C:/Users/stapi/OneDrive/Desktop/GD32VW553/V1_MQTT_OK/GD32VW55X_Wifi_BLE_SDK/GD32VW55x_RELEASE_V1.0.2/MSDK/cloud/alicloud/src/services/dev_bind\awss_report.c ****     awss_stop_timer(report_token_timer);
 990              		.loc 2 120 5 is_stmt 0
 991 00de 0965     		li	a0,8192
 119:C:/Users/stapi/OneDrive/Desktop/GD32VW553/V1_MQTT_OK/GD32VW55X_Wifi_BLE_SDK/GD32VW55x_RELEASE_V1.0.2/MSDK/cloud/alicloud/src/services/dev_bind\awss_report.c ****     iotx_event_post(IOTX_CONN_REPORT_TOKEN_SUC);
 992              		.loc 2 119 27
 993 00e0 B7070000 		lui	a5,%hi(.LANCHOR1)
 994 00e4 0547     		li	a4,1
 120:C:/Users/stapi/OneDrive/Desktop/GD32VW553/V1_MQTT_OK/GD32VW55X_Wifi_BLE_SDK/GD32VW55x_RELEASE_V1.0.2/MSDK/cloud/alicloud/src/services/dev_bind\awss_report.c ****     awss_stop_timer(report_token_timer);
 995              		.loc 2 120 5
 996 00e6 0D05     		addi	a0,a0,3
 121:C:/Users/stapi/OneDrive/Desktop/GD32VW553/V1_MQTT_OK/GD32VW55X_Wifi_BLE_SDK/GD32VW55x_RELEASE_V1.0.2/MSDK/cloud/alicloud/src/services/dev_bind\awss_report.c ****     report_token_timer = NULL;
 997              		.loc 2 121 5
 998 00e8 37040000 		lui	s0,%hi(.LANCHOR3)
 119:C:/Users/stapi/OneDrive/Desktop/GD32VW553/V1_MQTT_OK/GD32VW55X_Wifi_BLE_SDK/GD32VW55x_RELEASE_V1.0.2/MSDK/cloud/alicloud/src/services/dev_bind\awss_report.c ****     iotx_event_post(IOTX_CONN_REPORT_TOKEN_SUC);
 999              		.loc 2 119 27
 1000 00ec 2380E700 		sb	a4,%lo(.LANCHOR1)(a5)
 120:C:/Users/stapi/OneDrive/Desktop/GD32VW553/V1_MQTT_OK/GD32VW55X_Wifi_BLE_SDK/GD32VW55x_RELEASE_V1.0.2/MSDK/cloud/alicloud/src/services/dev_bind\awss_report.c ****     awss_stop_timer(report_token_timer);
 1001              		.loc 2 120 5 is_stmt 1
 121:C:/Users/stapi/OneDrive/Desktop/GD32VW553/V1_MQTT_OK/GD32VW55X_Wifi_BLE_SDK/GD32VW55x_RELEASE_V1.0.2/MSDK/cloud/alicloud/src/services/dev_bind\awss_report.c ****     report_token_timer = NULL;
 1002              		.loc 2 121 5 is_stmt 0
 1003 00f0 13040400 		addi	s0,s0,%lo(.LANCHOR3)
 120:C:/Users/stapi/OneDrive/Desktop/GD32VW553/V1_MQTT_OK/GD32VW55X_Wifi_BLE_SDK/GD32VW55x_RELEASE_V1.0.2/MSDK/cloud/alicloud/src/services/dev_bind\awss_report.c ****     awss_stop_timer(report_token_timer);
 1004              		.loc 2 120 5
 1005 00f4 97000000 		call	iotx_event_post
 1005      E7800000 
 1006              	.LVL83:
 121:C:/Users/stapi/OneDrive/Desktop/GD32VW553/V1_MQTT_OK/GD32VW55X_Wifi_BLE_SDK/GD32VW55x_RELEASE_V1.0.2/MSDK/cloud/alicloud/src/services/dev_bind\awss_report.c ****     report_token_timer = NULL;
 1007              		.loc 2 121 5 is_stmt 1
 1008 00fc 0840     		lw	a0,0(s0)
 1009 00fe 97000000 		call	awss_stop_timer
 1009      E7800000 
 1010              	.LVL84:
 122:C:/Users/stapi/OneDrive/Desktop/GD32VW553/V1_MQTT_OK/GD32VW55X_Wifi_BLE_SDK/GD32VW55x_RELEASE_V1.0.2/MSDK/cloud/alicloud/src/services/dev_bind\awss_report.c ****     AWSS_DB_UPDATE_STATIS(AWSS_DB_STATIS_SUC);
 1011              		.loc 2 122 5
 123:C:/Users/stapi/OneDrive/Desktop/GD32VW553/V1_MQTT_OK/GD32VW55X_Wifi_BLE_SDK/GD32VW55x_RELEASE_V1.0.2/MSDK/cloud/alicloud/src/services/dev_bind\awss_report.c ****     AWSS_DB_DISP_STATIS();
 1012              		.loc 2 123 5 is_stmt 0
 1013 0106 0545     		li	a0,1
 122:C:/Users/stapi/OneDrive/Desktop/GD32VW553/V1_MQTT_OK/GD32VW55X_Wifi_BLE_SDK/GD32VW55x_RELEASE_V1.0.2/MSDK/cloud/alicloud/src/services/dev_bind\awss_report.c ****     AWSS_DB_UPDATE_STATIS(AWSS_DB_STATIS_SUC);
 1014              		.loc 2 122 24
 1015 0108 23200400 		sw	zero,0(s0)
 123:C:/Users/stapi/OneDrive/Desktop/GD32VW553/V1_MQTT_OK/GD32VW55X_Wifi_BLE_SDK/GD32VW55x_RELEASE_V1.0.2/MSDK/cloud/alicloud/src/services/dev_bind\awss_report.c ****     AWSS_DB_DISP_STATIS();
 1016              		.loc 2 123 5 is_stmt 1
 1017 010c 97000000 		call	awss_bind_update_statis
 1017      E7800000 
 1018              	.LVL85:
 124:C:/Users/stapi/OneDrive/Desktop/GD32VW553/V1_MQTT_OK/GD32VW55X_Wifi_BLE_SDK/GD32VW55x_RELEASE_V1.0.2/MSDK/cloud/alicloud/src/services/dev_bind\awss_report.c ****     return;
 1019              		.loc 2 124 5
 1020 0114 97000000 		call	awss_bind_disp_statis
 1020      E7800000 
 1021              	.LVL86:
 125:C:/Users/stapi/OneDrive/Desktop/GD32VW553/V1_MQTT_OK/GD32VW55X_Wifi_BLE_SDK/GD32VW55x_RELEASE_V1.0.2/MSDK/cloud/alicloud/src/services/dev_bind\awss_report.c **** }
 1022              		.loc 2 125 5
 1023 011c 39BF     		j	.L31
 1024              		.cfi_endproc
 1025              	.LFE67:
 1027              		.section	.rodata.awss_online_switchap.str1.4,"aMS",@progbits,1
 1028              		.align	2
 1029              	.LC26:
 1030 0000 6F6E6C69 		.string	"online switchap len:%u, payload:%s\r\n"
 1030      6E652073 
 1030      77697463 
 1030      68617020 
 1030      6C656E3A 
 1031 0025 000000   		.align	2
 1032              	.LC27:
 1033 0028 70617261 		.string	"params"
 1033      6D7300
 1034 002f 00       		.align	2
 1035              	.LC28:
 1036 0030 73736964 		.string	"ssid"
 1036      00
 1037 0035 000000   		.align	2
 1038              	.LC29:
 1039 0038 70617373 		.string	"passwd"
 1039      776400
 1040 003f 00       		.align	2
 1041              	.LC30:
 1042 0040 62737369 		.string	"bssid"
 1042      6400
 1043 0046 0000     		.align	2
 1044              	.LC31:
 1045 0048 73776974 		.string	"switchMode"
 1045      63684D6F 
 1045      646500
 1046 0053 00       		.align	2
 1047              	.LC32:
 1048 0054 74696D65 		.string	"timeout"
 1048      6F757400 
 1049              		.align	2
 1050              	.LC33:
 1051 005c 7B7D00   		.string	"{}"
 1052 005f 00       		.align	2
 1053              	.LC34:
 1054 0060 7468696E 		.string	"thing.awss.device.switchap"
 1054      672E6177 
 1054      73732E64 
 1054      65766963 
 1054      652E7377 
 1055 007b 00       		.align	2
 1056              	.LC35:
 1057 007c 2F737973 		.string	"/sys/%s/%s/thing/awss/device/switchap_reply"
 1057      2F25732F 
 1057      25732F74 
 1057      68696E67 
 1057      2F617773 
 1058              		.align	2
 1059              	.LC36:
 1060 00a8 73776963 		.string	"swichap_online"
 1060      6861705F 
 1060      6F6E6C69 
 1060      6E6500
 1061 00b7 00       		.align	2
 1062              	.LC37:
 1063 00b8 5B77726E 		.string	"[wrn] "
 1063      5D2000
 1064 00bf 00       		.align	2
 1065              	.LC38:
 1066 00c0 696C6F70 		.string	"ilop online switchap failed"
 1066      206F6E6C 
 1066      696E6520 
 1066      73776974 
 1066      63686170 
 1067              		.section	.text.awss_online_switchap,"ax",@progbits
 1068              		.align	1
 1069              		.globl	awss_online_switchap
 1071              	awss_online_switchap:
 1072              	.LFB68:
 130:C:/Users/stapi/OneDrive/Desktop/GD32VW553/V1_MQTT_OK/GD32VW55X_Wifi_BLE_SDK/GD32VW55x_RELEASE_V1.0.2/MSDK/cloud/alicloud/src/services/dev_bind\awss_report.c **** #define SWITCHAP_RSP_LEN   (64)
 1073              		.loc 2 130 1
 1074              		.cfi_startproc
 1075              	.LVL87:
 1076 0000 17030000 		call	t0,__riscv_save_10
 1076      E7020300 
 1077              		.cfi_offset 25, -44
 1078              		.cfi_offset 24, -40
 1079              		.cfi_offset 23, -36
 1080              		.cfi_offset 22, -32
 1081              		.cfi_offset 21, -28
 1082              		.cfi_offset 20, -24
 1083              		.cfi_offset 19, -20
 1084              		.cfi_offset 18, -16
 1085              		.cfi_offset 9, -12
 1086              		.cfi_offset 8, -8
 1087              		.cfi_offset 1, -4
 1088              		.cfi_def_cfa_offset 48
 139:C:/Users/stapi/OneDrive/Desktop/GD32VW553/V1_MQTT_OK/GD32VW55X_Wifi_BLE_SDK/GD32VW55x_RELEASE_V1.0.2/MSDK/cloud/alicloud/src/services/dev_bind\awss_report.c ****     char *packet = NULL, *awss_info = NULL, *elem = NULL;
 1089              		.loc 2 139 5
 130:C:/Users/stapi/OneDrive/Desktop/GD32VW553/V1_MQTT_OK/GD32VW55X_Wifi_BLE_SDK/GD32VW55x_RELEASE_V1.0.2/MSDK/cloud/alicloud/src/services/dev_bind\awss_report.c **** #define SWITCHAP_RSP_LEN   (64)
 1090              		.loc 2 130 1 is_stmt 0
 1091 0008 1571     		addi	sp,sp,-224
 1092              		.cfi_def_cfa_offset 272
 130:C:/Users/stapi/OneDrive/Desktop/GD32VW553/V1_MQTT_OK/GD32VW55X_Wifi_BLE_SDK/GD32VW55x_RELEASE_V1.0.2/MSDK/cloud/alicloud/src/services/dev_bind\awss_report.c **** #define SWITCHAP_RSP_LEN   (64)
 1093              		.loc 2 130 1
 1094 000a 3285     		mv	a0,a2
 1095              	.LVL88:
 141:C:/Users/stapi/OneDrive/Desktop/GD32VW553/V1_MQTT_OK/GD32VW55X_Wifi_BLE_SDK/GD32VW55x_RELEASE_V1.0.2/MSDK/cloud/alicloud/src/services/dev_bind\awss_report.c **** 
 1096              		.loc 2 141 9
 1097 000c 93070004 		li	a5,64
 147:C:/Users/stapi/OneDrive/Desktop/GD32VW553/V1_MQTT_OK/GD32VW55X_Wifi_BLE_SDK/GD32VW55x_RELEASE_V1.0.2/MSDK/cloud/alicloud/src/services/dev_bind\awss_report.c **** 
 1098              		.loc 2 147 11
 1099 0010 7010     		addi	a2,sp,44
 1100              	.LVL89:
 1101 0012 0C18     		addi	a1,sp,48
 1102              	.LVL90:
 139:C:/Users/stapi/OneDrive/Desktop/GD32VW553/V1_MQTT_OK/GD32VW55X_Wifi_BLE_SDK/GD32VW55x_RELEASE_V1.0.2/MSDK/cloud/alicloud/src/services/dev_bind\awss_report.c ****     char *packet = NULL, *awss_info = NULL, *elem = NULL;
 1103              		.loc 2 139 9
 1104 0014 02CE     		sw	zero,28(sp)
 1105              	.LVL91:
 140:C:/Users/stapi/OneDrive/Desktop/GD32VW553/V1_MQTT_OK/GD32VW55X_Wifi_BLE_SDK/GD32VW55x_RELEASE_V1.0.2/MSDK/cloud/alicloud/src/services/dev_bind\awss_report.c ****     int packet_len = SWITCHAP_RSP_LEN, awss_info_len = 0;
 1106              		.loc 2 140 5 is_stmt 1
 140:C:/Users/stapi/OneDrive/Desktop/GD32VW553/V1_MQTT_OK/GD32VW55X_Wifi_BLE_SDK/GD32VW55x_RELEASE_V1.0.2/MSDK/cloud/alicloud/src/services/dev_bind\awss_report.c ****     int packet_len = SWITCHAP_RSP_LEN, awss_info_len = 0;
 1107              		.loc 2 140 46 is_stmt 0
 1108 0016 02D0     		sw	zero,32(sp)
 141:C:/Users/stapi/OneDrive/Desktop/GD32VW553/V1_MQTT_OK/GD32VW55X_Wifi_BLE_SDK/GD32VW55x_RELEASE_V1.0.2/MSDK/cloud/alicloud/src/services/dev_bind\awss_report.c **** 
 1109              		.loc 2 141 5 is_stmt 1
 141:C:/Users/stapi/OneDrive/Desktop/GD32VW553/V1_MQTT_OK/GD32VW55X_Wifi_BLE_SDK/GD32VW55x_RELEASE_V1.0.2/MSDK/cloud/alicloud/src/services/dev_bind\awss_report.c **** 
 1110              		.loc 2 141 9 is_stmt 0
 1111 0018 3ED2     		sw	a5,36(sp)
 141:C:/Users/stapi/OneDrive/Desktop/GD32VW553/V1_MQTT_OK/GD32VW55X_Wifi_BLE_SDK/GD32VW55x_RELEASE_V1.0.2/MSDK/cloud/alicloud/src/services/dev_bind\awss_report.c **** 
 1112              		.loc 2 141 40
 1113 001a 02D4     		sw	zero,40(sp)
 143:C:/Users/stapi/OneDrive/Desktop/GD32VW553/V1_MQTT_OK/GD32VW55X_Wifi_BLE_SDK/GD32VW55x_RELEASE_V1.0.2/MSDK/cloud/alicloud/src/services/dev_bind\awss_report.c ****     char *payload;
 1114              		.loc 2 143 5 is_stmt 1
 144:C:/Users/stapi/OneDrive/Desktop/GD32VW553/V1_MQTT_OK/GD32VW55X_Wifi_BLE_SDK/GD32VW55x_RELEASE_V1.0.2/MSDK/cloud/alicloud/src/services/dev_bind\awss_report.c ****     int ret;
 1115              		.loc 2 144 5
 145:C:/Users/stapi/OneDrive/Desktop/GD32VW553/V1_MQTT_OK/GD32VW55X_Wifi_BLE_SDK/GD32VW55x_RELEASE_V1.0.2/MSDK/cloud/alicloud/src/services/dev_bind\awss_report.c **** 
 1116              		.loc 2 145 5
 147:C:/Users/stapi/OneDrive/Desktop/GD32VW553/V1_MQTT_OK/GD32VW55X_Wifi_BLE_SDK/GD32VW55x_RELEASE_V1.0.2/MSDK/cloud/alicloud/src/services/dev_bind\awss_report.c **** 
 1117              		.loc 2 147 5
 1118 001c 370B0000 		lui	s6,%hi(.LANCHOR8)
 147:C:/Users/stapi/OneDrive/Desktop/GD32VW553/V1_MQTT_OK/GD32VW55X_Wifi_BLE_SDK/GD32VW55x_RELEASE_V1.0.2/MSDK/cloud/alicloud/src/services/dev_bind\awss_report.c **** 
 1119              		.loc 2 147 11 is_stmt 0
 1120 0020 97000000 		call	awss_cmp_mqtt_get_payload
 1120      E7800000 
 1121              	.LVL92:
 149:C:/Users/stapi/OneDrive/Desktop/GD32VW553/V1_MQTT_OK/GD32VW55X_Wifi_BLE_SDK/GD32VW55x_RELEASE_V1.0.2/MSDK/cloud/alicloud/src/services/dev_bind\awss_report.c ****         goto ONLINE_SWITCHAP_FAIL;
 1122              		.loc 2 149 5 is_stmt 1
 1123 0028 B70A0000 		lui	s5,%hi(.LANCHOR10)
 1124 002c 370A0000 		lui	s4,%hi(.LANCHOR9)
 1125 0030 93040B00 		addi	s1,s6,%lo(.LANCHOR8)
 149:C:/Users/stapi/OneDrive/Desktop/GD32VW553/V1_MQTT_OK/GD32VW55X_Wifi_BLE_SDK/GD32VW55x_RELEASE_V1.0.2/MSDK/cloud/alicloud/src/services/dev_bind\awss_report.c ****         goto ONLINE_SWITCHAP_FAIL;
 1126              		.loc 2 149 8 is_stmt 0
 1127 0034 63100534 		bne	a0,zero,.L44
 153:C:/Users/stapi/OneDrive/Desktop/GD32VW553/V1_MQTT_OK/GD32VW55X_Wifi_BLE_SDK/GD32VW55x_RELEASE_V1.0.2/MSDK/cloud/alicloud/src/services/dev_bind\awss_report.c ****         goto ONLINE_SWITCHAP_FAIL;
 1128              		.loc 2 153 5 is_stmt 1
 153:C:/Users/stapi/OneDrive/Desktop/GD32VW553/V1_MQTT_OK/GD32VW55X_Wifi_BLE_SDK/GD32VW55x_RELEASE_V1.0.2/MSDK/cloud/alicloud/src/services/dev_bind\awss_report.c ****         goto ONLINE_SWITCHAP_FAIL;
 1129              		.loc 2 153 17 is_stmt 0
 1130 0038 4258     		lw	a6,48(sp)
 153:C:/Users/stapi/OneDrive/Desktop/GD32VW553/V1_MQTT_OK/GD32VW55X_Wifi_BLE_SDK/GD32VW55x_RELEASE_V1.0.2/MSDK/cloud/alicloud/src/services/dev_bind\awss_report.c ****         goto ONLINE_SWITCHAP_FAIL;
 1131              		.loc 2 153 8
 1132 003a 630D0832 		beq	a6,zero,.L44
 153:C:/Users/stapi/OneDrive/Desktop/GD32VW553/V1_MQTT_OK/GD32VW55X_Wifi_BLE_SDK/GD32VW55x_RELEASE_V1.0.2/MSDK/cloud/alicloud/src/services/dev_bind\awss_report.c ****         goto ONLINE_SWITCHAP_FAIL;
 1133              		.loc 2 153 40 discriminator 1
 1134 003e B257     		lw	a5,44(sp)
 153:C:/Users/stapi/OneDrive/Desktop/GD32VW553/V1_MQTT_OK/GD32VW55X_Wifi_BLE_SDK/GD32VW55x_RELEASE_V1.0.2/MSDK/cloud/alicloud/src/services/dev_bind\awss_report.c ****         goto ONLINE_SWITCHAP_FAIL;
 1135              		.loc 2 153 25 discriminator 1
 1136 0040 638A0732 		beq	a5,zero,.L44
 1137 0044 2A89     		mv	s2,a0
 157:C:/Users/stapi/OneDrive/Desktop/GD32VW553/V1_MQTT_OK/GD32VW55X_Wifi_BLE_SDK/GD32VW55x_RELEASE_V1.0.2/MSDK/cloud/alicloud/src/services/dev_bind\awss_report.c ****     packet = os_zalloc(packet_len + 1);
 1138              		.loc 2 157 5 is_stmt 1
 1139 0046 37070000 		lui	a4,%hi(.LC26)
 1140 004a B7050000 		lui	a1,%hi(.LANCHOR13)
 1141 004e 37050000 		lui	a0,%hi(.LC12)
 1142              	.LVL93:
 1143 0052 13070700 		addi	a4,a4,%lo(.LC26)
 1144 0056 9546     		li	a3,5
 1145 0058 1306D009 		li	a2,157
 1146 005c 93850500 		addi	a1,a1,%lo(.LANCHOR13)
 1147 0060 13050500 		addi	a0,a0,%lo(.LC12)
 1148 0064 97000000 		call	LITE_syslog
 1148      E7800000 
 1149              	.LVL94:
 158:C:/Users/stapi/OneDrive/Desktop/GD32VW553/V1_MQTT_OK/GD32VW55X_Wifi_BLE_SDK/GD32VW55x_RELEASE_V1.0.2/MSDK/cloud/alicloud/src/services/dev_bind\awss_report.c ****     if (packet == NULL) {
 1150              		.loc 2 158 5
 158:C:/Users/stapi/OneDrive/Desktop/GD32VW553/V1_MQTT_OK/GD32VW55X_Wifi_BLE_SDK/GD32VW55x_RELEASE_V1.0.2/MSDK/cloud/alicloud/src/services/dev_bind\awss_report.c ****     if (packet == NULL) {
 1151              		.loc 2 158 35 is_stmt 0
 1152 006c 1256     		lw	a2,36(sp)
 1153 006e 0506     		addi	a2,a2,1
 1154              	.LVL95:
 1155              	.LBB59:
 1156              	.LBB60:
 408:..\..\..\..\cloud\alicloud\src\services\dev_bind\os/os.h ****     if (ptr != NULL) {
 1157              		.loc 1 408 5 is_stmt 1
 1158              	.LBB61:
 1159              	.LBB62:
 380:..\..\..\..\cloud\alicloud\src\services\dev_bind\os/os.h **** }
 1160              		.loc 1 380 5
 380:..\..\..\..\cloud\alicloud\src\services\dev_bind\os/os.h **** }
 1161              		.loc 1 380 12 is_stmt 0
 1162 0070 3285     		mv	a0,a2
 1163 0072 32C6     		sw	a2,12(sp)
 1164 0074 97000000 		call	HAL_Malloc
 1164      E7800000 
 1165              	.LVL96:
 1166 007c 2A84     		mv	s0,a0
 1167              	.LVL97:
 1168              	.LBE62:
 1169              	.LBE61:
 409:..\..\..\..\cloud\alicloud\src\services\dev_bind\os/os.h ****         memset(ptr, 0, size);
 1170              		.loc 1 409 5 is_stmt 1
 409:..\..\..\..\cloud\alicloud\src\services\dev_bind\os/os.h ****         memset(ptr, 0, size);
 1171              		.loc 1 409 8 is_stmt 0
 1172 007e 630B052E 		beq	a0,zero,.L44
 410:..\..\..\..\cloud\alicloud\src\services\dev_bind\os/os.h ****     }
 1173              		.loc 1 410 9 is_stmt 1
 1174 0082 3246     		lw	a2,12(sp)
 1175 0084 8145     		li	a1,0
 1176 0086 97000000 		call	memset
 1176      E7800000 
 1177              	.LVL98:
 412:..\..\..\..\cloud\alicloud\src\services\dev_bind\os/os.h **** }
 1178              		.loc 1 412 5
 1179              	.LBE60:
 1180              	.LBE59:
 159:C:/Users/stapi/OneDrive/Desktop/GD32VW553/V1_MQTT_OK/GD32VW55X_Wifi_BLE_SDK/GD32VW55x_RELEASE_V1.0.2/MSDK/cloud/alicloud/src/services/dev_bind\awss_report.c ****         goto ONLINE_SWITCHAP_FAIL;
 1181              		.loc 2 159 5
 163:C:/Users/stapi/OneDrive/Desktop/GD32VW553/V1_MQTT_OK/GD32VW55X_Wifi_BLE_SDK/GD32VW55x_RELEASE_V1.0.2/MSDK/cloud/alicloud/src/services/dev_bind\awss_report.c ****     if (awss_info == NULL || awss_info_len == 0) {
 1182              		.loc 2 163 5
 163:C:/Users/stapi/OneDrive/Desktop/GD32VW553/V1_MQTT_OK/GD32VW55X_Wifi_BLE_SDK/GD32VW55x_RELEASE_V1.0.2/MSDK/cloud/alicloud/src/services/dev_bind\awss_report.c ****     if (awss_info == NULL || awss_info_len == 0) {
 1183              		.loc 2 163 17 is_stmt 0
 1184 008e B255     		lw	a1,44(sp)
 1185 0090 4255     		lw	a0,48(sp)
 1186 0092 37060000 		lui	a2,%hi(.LC27)
 1187 0096 0147     		li	a4,0
 1188 0098 3410     		addi	a3,sp,40
 1189 009a 13060600 		addi	a2,a2,%lo(.LC27)
 1190 009e 97000000 		call	json_get_value_by_name
 1190      E7800000 
 1191              	.LVL99:
 1192 00a6 AA89     		mv	s3,a0
 1193              	.LVL100:
 164:C:/Users/stapi/OneDrive/Desktop/GD32VW553/V1_MQTT_OK/GD32VW55X_Wifi_BLE_SDK/GD32VW55x_RELEASE_V1.0.2/MSDK/cloud/alicloud/src/services/dev_bind\awss_report.c ****         goto ONLINE_SWITCHAP_FAIL;
 1194              		.loc 2 164 5 is_stmt 1
 164:C:/Users/stapi/OneDrive/Desktop/GD32VW553/V1_MQTT_OK/GD32VW55X_Wifi_BLE_SDK/GD32VW55x_RELEASE_V1.0.2/MSDK/cloud/alicloud/src/services/dev_bind\awss_report.c ****         goto ONLINE_SWITCHAP_FAIL;
 1195              		.loc 2 164 8 is_stmt 0
 1196 00a8 6307052C 		beq	a0,zero,.L45
 164:C:/Users/stapi/OneDrive/Desktop/GD32VW553/V1_MQTT_OK/GD32VW55X_Wifi_BLE_SDK/GD32VW55x_RELEASE_V1.0.2/MSDK/cloud/alicloud/src/services/dev_bind\awss_report.c ****         goto ONLINE_SWITCHAP_FAIL;
 1197              		.loc 2 164 44 discriminator 1
 1198 00ac A255     		lw	a1,40(sp)
 164:C:/Users/stapi/OneDrive/Desktop/GD32VW553/V1_MQTT_OK/GD32VW55X_Wifi_BLE_SDK/GD32VW55x_RELEASE_V1.0.2/MSDK/cloud/alicloud/src/services/dev_bind\awss_report.c ****         goto ONLINE_SWITCHAP_FAIL;
 1199              		.loc 2 164 27 discriminator 1
 1200 00ae 6384052C 		beq	a1,zero,.L45
 171:C:/Users/stapi/OneDrive/Desktop/GD32VW553/V1_MQTT_OK/GD32VW55X_Wifi_BLE_SDK/GD32VW55x_RELEASE_V1.0.2/MSDK/cloud/alicloud/src/services/dev_bind\awss_report.c ****     if (elem == NULL || len <= 0 || len >= OS_MAX_SSID_LEN) {
 1201              		.loc 2 171 5 is_stmt 1
 171:C:/Users/stapi/OneDrive/Desktop/GD32VW553/V1_MQTT_OK/GD32VW55X_Wifi_BLE_SDK/GD32VW55x_RELEASE_V1.0.2/MSDK/cloud/alicloud/src/services/dev_bind\awss_report.c ****     if (elem == NULL || len <= 0 || len >= OS_MAX_SSID_LEN) {
 1202              		.loc 2 171 12 is_stmt 0
 1203 00b2 37060000 		lui	a2,%hi(.LC28)
 1204 00b6 0147     		li	a4,0
 1205 00b8 7408     		addi	a3,sp,28
 1206 00ba 13060600 		addi	a2,a2,%lo(.LC28)
 1207 00be 97000000 		call	json_get_value_by_name
 1207      E7800000 
 1208              	.LVL101:
 171:C:/Users/stapi/OneDrive/Desktop/GD32VW553/V1_MQTT_OK/GD32VW55X_Wifi_BLE_SDK/GD32VW55x_RELEASE_V1.0.2/MSDK/cloud/alicloud/src/services/dev_bind\awss_report.c ****     if (elem == NULL || len <= 0 || len >= OS_MAX_SSID_LEN) {
 1209              		.loc 2 171 10
 1210 00c6 2AD0     		sw	a0,32(sp)
 172:C:/Users/stapi/OneDrive/Desktop/GD32VW553/V1_MQTT_OK/GD32VW55X_Wifi_BLE_SDK/GD32VW55x_RELEASE_V1.0.2/MSDK/cloud/alicloud/src/services/dev_bind\awss_report.c ****         goto ONLINE_SWITCHAP_FAIL;
 1211              		.loc 2 172 5 is_stmt 1
 171:C:/Users/stapi/OneDrive/Desktop/GD32VW553/V1_MQTT_OK/GD32VW55X_Wifi_BLE_SDK/GD32VW55x_RELEASE_V1.0.2/MSDK/cloud/alicloud/src/services/dev_bind\awss_report.c ****     if (elem == NULL || len <= 0 || len >= OS_MAX_SSID_LEN) {
 1212              		.loc 2 171 12 is_stmt 0
 1213 00c8 AA8B     		mv	s7,a0
 172:C:/Users/stapi/OneDrive/Desktop/GD32VW553/V1_MQTT_OK/GD32VW55X_Wifi_BLE_SDK/GD32VW55x_RELEASE_V1.0.2/MSDK/cloud/alicloud/src/services/dev_bind\awss_report.c ****         goto ONLINE_SWITCHAP_FAIL;
 1214              		.loc 2 172 8
 1215 00ca 6306052A 		beq	a0,zero,.L45
 172:C:/Users/stapi/OneDrive/Desktop/GD32VW553/V1_MQTT_OK/GD32VW55X_Wifi_BLE_SDK/GD32VW55x_RELEASE_V1.0.2/MSDK/cloud/alicloud/src/services/dev_bind\awss_report.c ****         goto ONLINE_SWITCHAP_FAIL;
 1216              		.loc 2 172 22 discriminator 1
 1217 00ce 724C     		lw	s8,28(sp)
 1218 00d0 FD47     		li	a5,31
 1219 00d2 1307FCFF 		addi	a4,s8,-1
 1220 00d6 63E0E72A 		bgtu	a4,a5,.L45
 176:C:/Users/stapi/OneDrive/Desktop/GD32VW553/V1_MQTT_OK/GD32VW55X_Wifi_BLE_SDK/GD32VW55x_RELEASE_V1.0.2/MSDK/cloud/alicloud/src/services/dev_bind\awss_report.c ****     memcpy(switchap_ssid, elem, len);
 1221              		.loc 2 176 5 is_stmt 1
 1222 00da 13061002 		li	a2,33
 1223 00de 8145     		li	a1,0
 1224 00e0 13850A00 		addi	a0,s5,%lo(.LANCHOR10)
 1225 00e4 97000000 		call	memset
 1225      E7800000 
 1226              	.LVL102:
 177:C:/Users/stapi/OneDrive/Desktop/GD32VW553/V1_MQTT_OK/GD32VW55X_Wifi_BLE_SDK/GD32VW55x_RELEASE_V1.0.2/MSDK/cloud/alicloud/src/services/dev_bind\awss_report.c **** 
 1227              		.loc 2 177 5
 1228 00ec DE85     		mv	a1,s7
 1229 00ee 6286     		mv	a2,s8
 1230 00f0 13850A00 		addi	a0,s5,%lo(.LANCHOR10)
 1231 00f4 97000000 		call	memcpy
 1231      E7800000 
 1232              	.LVL103:
 179:C:/Users/stapi/OneDrive/Desktop/GD32VW553/V1_MQTT_OK/GD32VW55X_Wifi_BLE_SDK/GD32VW55x_RELEASE_V1.0.2/MSDK/cloud/alicloud/src/services/dev_bind\awss_report.c ****     elem = json_get_value_by_name(awss_info, awss_info_len, AWSS_PASSWD, &len, NULL);
 1233              		.loc 2 179 5
 180:C:/Users/stapi/OneDrive/Desktop/GD32VW553/V1_MQTT_OK/GD32VW55X_Wifi_BLE_SDK/GD32VW55x_RELEASE_V1.0.2/MSDK/cloud/alicloud/src/services/dev_bind\awss_report.c ****     if (elem == NULL || len <= 0 || len >= OS_MAX_PASSWD_LEN) {
 1234              		.loc 2 180 12 is_stmt 0
 1235 00fc A255     		lw	a1,40(sp)
 1236 00fe 37060000 		lui	a2,%hi(.LC29)
 1237 0102 0147     		li	a4,0
 1238 0104 7408     		addi	a3,sp,28
 1239 0106 13060600 		addi	a2,a2,%lo(.LC29)
 1240 010a 4E85     		mv	a0,s3
 179:C:/Users/stapi/OneDrive/Desktop/GD32VW553/V1_MQTT_OK/GD32VW55X_Wifi_BLE_SDK/GD32VW55x_RELEASE_V1.0.2/MSDK/cloud/alicloud/src/services/dev_bind\awss_report.c ****     elem = json_get_value_by_name(awss_info, awss_info_len, AWSS_PASSWD, &len, NULL);
 1241              		.loc 2 179 9
 1242 010c 02CE     		sw	zero,28(sp)
 180:C:/Users/stapi/OneDrive/Desktop/GD32VW553/V1_MQTT_OK/GD32VW55X_Wifi_BLE_SDK/GD32VW55x_RELEASE_V1.0.2/MSDK/cloud/alicloud/src/services/dev_bind\awss_report.c ****     if (elem == NULL || len <= 0 || len >= OS_MAX_PASSWD_LEN) {
 1243              		.loc 2 180 5 is_stmt 1
 180:C:/Users/stapi/OneDrive/Desktop/GD32VW553/V1_MQTT_OK/GD32VW55X_Wifi_BLE_SDK/GD32VW55x_RELEASE_V1.0.2/MSDK/cloud/alicloud/src/services/dev_bind\awss_report.c ****     if (elem == NULL || len <= 0 || len >= OS_MAX_PASSWD_LEN) {
 1244              		.loc 2 180 12 is_stmt 0
 1245 010e 97000000 		call	json_get_value_by_name
 1245      E7800000 
 1246              	.LVL104:
 180:C:/Users/stapi/OneDrive/Desktop/GD32VW553/V1_MQTT_OK/GD32VW55X_Wifi_BLE_SDK/GD32VW55x_RELEASE_V1.0.2/MSDK/cloud/alicloud/src/services/dev_bind\awss_report.c ****     if (elem == NULL || len <= 0 || len >= OS_MAX_PASSWD_LEN) {
 1247              		.loc 2 180 10
 1248 0116 2AD0     		sw	a0,32(sp)
 181:C:/Users/stapi/OneDrive/Desktop/GD32VW553/V1_MQTT_OK/GD32VW55X_Wifi_BLE_SDK/GD32VW55x_RELEASE_V1.0.2/MSDK/cloud/alicloud/src/services/dev_bind\awss_report.c ****         goto ONLINE_SWITCHAP_FAIL;
 1249              		.loc 2 181 5 is_stmt 1
 180:C:/Users/stapi/OneDrive/Desktop/GD32VW553/V1_MQTT_OK/GD32VW55X_Wifi_BLE_SDK/GD32VW55x_RELEASE_V1.0.2/MSDK/cloud/alicloud/src/services/dev_bind\awss_report.c ****     if (elem == NULL || len <= 0 || len >= OS_MAX_PASSWD_LEN) {
 1250              		.loc 2 180 12 is_stmt 0
 1251 0118 AA8B     		mv	s7,a0
 181:C:/Users/stapi/OneDrive/Desktop/GD32VW553/V1_MQTT_OK/GD32VW55X_Wifi_BLE_SDK/GD32VW55x_RELEASE_V1.0.2/MSDK/cloud/alicloud/src/services/dev_bind\awss_report.c ****         goto ONLINE_SWITCHAP_FAIL;
 1252              		.loc 2 181 8
 1253 011a 630E0524 		beq	a0,zero,.L45
 181:C:/Users/stapi/OneDrive/Desktop/GD32VW553/V1_MQTT_OK/GD32VW55X_Wifi_BLE_SDK/GD32VW55x_RELEASE_V1.0.2/MSDK/cloud/alicloud/src/services/dev_bind\awss_report.c ****         goto ONLINE_SWITCHAP_FAIL;
 1254              		.loc 2 181 22 discriminator 1
 1255 011e 724C     		lw	s8,28(sp)
 1256 0120 9307F003 		li	a5,63
 1257 0124 1307FCFF 		addi	a4,s8,-1
 1258 0128 63E7E724 		bgtu	a4,a5,.L45
 185:C:/Users/stapi/OneDrive/Desktop/GD32VW553/V1_MQTT_OK/GD32VW55X_Wifi_BLE_SDK/GD32VW55x_RELEASE_V1.0.2/MSDK/cloud/alicloud/src/services/dev_bind\awss_report.c ****     memcpy(switchap_passwd, elem, len);
 1259              		.loc 2 185 5 is_stmt 1
 1260 012c 13061004 		li	a2,65
 1261 0130 8145     		li	a1,0
 1262 0132 13050A00 		addi	a0,s4,%lo(.LANCHOR9)
 1263 0136 97000000 		call	memset
 1263      E7800000 
 1264              	.LVL105:
 186:C:/Users/stapi/OneDrive/Desktop/GD32VW553/V1_MQTT_OK/GD32VW55X_Wifi_BLE_SDK/GD32VW55x_RELEASE_V1.0.2/MSDK/cloud/alicloud/src/services/dev_bind\awss_report.c **** 
 1265              		.loc 2 186 5
 1266 013e 6286     		mv	a2,s8
 1267 0140 DE85     		mv	a1,s7
 1268 0142 13050A00 		addi	a0,s4,%lo(.LANCHOR9)
 1269 0146 97000000 		call	memcpy
 1269      E7800000 
 1270              	.LVL106:
 188:C:/Users/stapi/OneDrive/Desktop/GD32VW553/V1_MQTT_OK/GD32VW55X_Wifi_BLE_SDK/GD32VW55x_RELEASE_V1.0.2/MSDK/cloud/alicloud/src/services/dev_bind\awss_report.c ****     memset(switchap_bssid, 0, sizeof(switchap_bssid));
 1271              		.loc 2 188 5
 190:C:/Users/stapi/OneDrive/Desktop/GD32VW553/V1_MQTT_OK/GD32VW55X_Wifi_BLE_SDK/GD32VW55x_RELEASE_V1.0.2/MSDK/cloud/alicloud/src/services/dev_bind\awss_report.c **** 
 1272              		.loc 2 190 12 is_stmt 0
 1273 014e A255     		lw	a1,40(sp)
 1274 0150 37060000 		lui	a2,%hi(.LC30)
 1275 0154 0147     		li	a4,0
 1276 0156 7408     		addi	a3,sp,28
 1277 0158 13060600 		addi	a2,a2,%lo(.LC30)
 1278 015c 4E85     		mv	a0,s3
 188:C:/Users/stapi/OneDrive/Desktop/GD32VW553/V1_MQTT_OK/GD32VW55X_Wifi_BLE_SDK/GD32VW55x_RELEASE_V1.0.2/MSDK/cloud/alicloud/src/services/dev_bind\awss_report.c ****     memset(switchap_bssid, 0, sizeof(switchap_bssid));
 1279              		.loc 2 188 9
 1280 015e 02CE     		sw	zero,28(sp)
