   1              		.file	"awss_notify.c"
   2              		.option nopic
   3              		.attribute arch, "rv32i2p0_m2p0_a2p0_f2p0_c2p0_b_p0p94"
   4              		.attribute unaligned_access, 0
   5              		.attribute stack_align, 16
   6              		.text
   7              	.Ltext0:
   8              		.cfi_sections	.debug_frame
   9              		.section	.rodata.awss_notify_response.str1.4,"aMS",@progbits,1
  10              		.align	2
  11              	.LC0:
  12 0000 25732C20 		.string	"%s, type:%d,result:%u\r\n"
  12      74797065 
  12      3A25642C 
  12      72657375 
  12      6C743A25 
  13              		.align	2
  14              	.LC1:
  15 0018 61777373 		.string	"awss"
  15      00
  16 001d 000000   		.align	2
  17              	.LC2:
  18 0020 5B657272 		.string	"[err] "
  18      5D2000
  19 0027 00       		.align	2
  20              	.LC3:
  21 0028 7061796C 		.string	"payload invalid , len =%d"
  21      6F616420 
  21      696E7661 
  21      6C696420 
  21      2C206C65 
  22 0042 0000     		.align	2
  23              	.LC4:
  24 0044 0D0A00   		.string	"\r\n"
  25 0047 00       		.align	2
  26              	.LC5:
  27 0048 7061796C 		.string	"payload:%s\r\n"
  27      6F61643A 
  27      25730D0A 
  27      00
  28 0055 000000   		.align	2
  29              	.LC6:
  30 0058 696400   		.string	"id"
  31 005b 00       		.align	2
  32              	.LC7:
  33 005c 6E6F2069 		.string	"no id in payload"
  33      6420696E 
  33      20706179 
  33      6C6F6164 
  33      00
  34 006d 000000   		.align	2
  35              	.LC8:
  36 0070 636F6465 		.string	"code"
  36      00
  37 0075 000000   		.align	2
  38              	.LC9:
  39 0078 6E6F2063 		.string	"no code in payload"
  39      6F646520 
  39      696E2070 
  39      61796C6F 
  39      616400
  40 008b 00       		.align	2
  41              	.LC10:
  42 008c 636F6465 		.string	"code = %s"
  42      203D2025 
  42      7300
  43              		.section	.text.awss_notify_response,"ax",@progbits
  44              		.align	1
  46              	awss_notify_response:
  47              	.LFB67:
  48              		.file 1 "C:/Users/stapi/OneDrive/Desktop/GD32VW553/V1_MQTT_OK/GD32VW55X_Wifi_BLE_SDK/GD32VW55x_REL
   1:C:/Users/stapi/OneDrive/Desktop/GD32VW553/V1_MQTT_OK/GD32VW55X_Wifi_BLE_SDK/GD32VW55x_RELEASE_V1.0.2/MSDK/cloud/alicloud/src/services/dev_bind\awss_notify.c **** /*
   2:C:/Users/stapi/OneDrive/Desktop/GD32VW553/V1_MQTT_OK/GD32VW55X_Wifi_BLE_SDK/GD32VW55x_RELEASE_V1.0.2/MSDK/cloud/alicloud/src/services/dev_bind\awss_notify.c ****  * Copyright (C) 2015-2018 Alibaba Group Holding Limited
   3:C:/Users/stapi/OneDrive/Desktop/GD32VW553/V1_MQTT_OK/GD32VW55X_Wifi_BLE_SDK/GD32VW55x_RELEASE_V1.0.2/MSDK/cloud/alicloud/src/services/dev_bind\awss_notify.c ****  */
   4:C:/Users/stapi/OneDrive/Desktop/GD32VW553/V1_MQTT_OK/GD32VW55X_Wifi_BLE_SDK/GD32VW55x_RELEASE_V1.0.2/MSDK/cloud/alicloud/src/services/dev_bind\awss_notify.c **** 
   5:C:/Users/stapi/OneDrive/Desktop/GD32VW553/V1_MQTT_OK/GD32VW55X_Wifi_BLE_SDK/GD32VW55x_RELEASE_V1.0.2/MSDK/cloud/alicloud/src/services/dev_bind\awss_notify.c **** #include <stdlib.h>
   6:C:/Users/stapi/OneDrive/Desktop/GD32VW553/V1_MQTT_OK/GD32VW55X_Wifi_BLE_SDK/GD32VW55x_RELEASE_V1.0.2/MSDK/cloud/alicloud/src/services/dev_bind\awss_notify.c **** #include "iot_export.h"
   7:C:/Users/stapi/OneDrive/Desktop/GD32VW553/V1_MQTT_OK/GD32VW55X_Wifi_BLE_SDK/GD32VW55x_RELEASE_V1.0.2/MSDK/cloud/alicloud/src/services/dev_bind\awss_notify.c **** #include "json_parser.h"
   8:C:/Users/stapi/OneDrive/Desktop/GD32VW553/V1_MQTT_OK/GD32VW55X_Wifi_BLE_SDK/GD32VW55x_RELEASE_V1.0.2/MSDK/cloud/alicloud/src/services/dev_bind\awss_notify.c **** #include "awss_packet.h"
   9:C:/Users/stapi/OneDrive/Desktop/GD32VW553/V1_MQTT_OK/GD32VW55X_Wifi_BLE_SDK/GD32VW55x_RELEASE_V1.0.2/MSDK/cloud/alicloud/src/services/dev_bind\awss_notify.c **** #include "awss_notify.h"
  10:C:/Users/stapi/OneDrive/Desktop/GD32VW553/V1_MQTT_OK/GD32VW55X_Wifi_BLE_SDK/GD32VW55x_RELEASE_V1.0.2/MSDK/cloud/alicloud/src/services/dev_bind\awss_notify.c **** #include "awss_event.h"
  11:C:/Users/stapi/OneDrive/Desktop/GD32VW553/V1_MQTT_OK/GD32VW55X_Wifi_BLE_SDK/GD32VW55x_RELEASE_V1.0.2/MSDK/cloud/alicloud/src/services/dev_bind\awss_notify.c **** #include "awss_timer.h"
  12:C:/Users/stapi/OneDrive/Desktop/GD32VW553/V1_MQTT_OK/GD32VW55X_Wifi_BLE_SDK/GD32VW55x_RELEASE_V1.0.2/MSDK/cloud/alicloud/src/services/dev_bind\awss_notify.c **** #include "awss_utils.h"
  13:C:/Users/stapi/OneDrive/Desktop/GD32VW553/V1_MQTT_OK/GD32VW55X_Wifi_BLE_SDK/GD32VW55x_RELEASE_V1.0.2/MSDK/cloud/alicloud/src/services/dev_bind\awss_notify.c **** #include "awss_cmp.h"
  14:C:/Users/stapi/OneDrive/Desktop/GD32VW553/V1_MQTT_OK/GD32VW55X_Wifi_BLE_SDK/GD32VW55x_RELEASE_V1.0.2/MSDK/cloud/alicloud/src/services/dev_bind\awss_notify.c **** #include "awss_log.h"
  15:C:/Users/stapi/OneDrive/Desktop/GD32VW553/V1_MQTT_OK/GD32VW55X_Wifi_BLE_SDK/GD32VW55x_RELEASE_V1.0.2/MSDK/cloud/alicloud/src/services/dev_bind\awss_notify.c **** #include "awss_reset.h"
  16:C:/Users/stapi/OneDrive/Desktop/GD32VW553/V1_MQTT_OK/GD32VW55X_Wifi_BLE_SDK/GD32VW55x_RELEASE_V1.0.2/MSDK/cloud/alicloud/src/services/dev_bind\awss_notify.c **** #include "platform.h"
  17:C:/Users/stapi/OneDrive/Desktop/GD32VW553/V1_MQTT_OK/GD32VW55X_Wifi_BLE_SDK/GD32VW55x_RELEASE_V1.0.2/MSDK/cloud/alicloud/src/services/dev_bind\awss_notify.c **** #include "passwd.h"
  18:C:/Users/stapi/OneDrive/Desktop/GD32VW553/V1_MQTT_OK/GD32VW55X_Wifi_BLE_SDK/GD32VW55x_RELEASE_V1.0.2/MSDK/cloud/alicloud/src/services/dev_bind\awss_notify.c **** #include "os.h"
  19:C:/Users/stapi/OneDrive/Desktop/GD32VW553/V1_MQTT_OK/GD32VW55X_Wifi_BLE_SDK/GD32VW55x_RELEASE_V1.0.2/MSDK/cloud/alicloud/src/services/dev_bind\awss_notify.c **** 
  20:C:/Users/stapi/OneDrive/Desktop/GD32VW553/V1_MQTT_OK/GD32VW55X_Wifi_BLE_SDK/GD32VW55x_RELEASE_V1.0.2/MSDK/cloud/alicloud/src/services/dev_bind\awss_notify.c **** #if defined(__cplusplus) /* If this is a C++ compiler, use C linkage */
  21:C:/Users/stapi/OneDrive/Desktop/GD32VW553/V1_MQTT_OK/GD32VW55X_Wifi_BLE_SDK/GD32VW55x_RELEASE_V1.0.2/MSDK/cloud/alicloud/src/services/dev_bind\awss_notify.c **** extern "C" {
  22:C:/Users/stapi/OneDrive/Desktop/GD32VW553/V1_MQTT_OK/GD32VW55X_Wifi_BLE_SDK/GD32VW55x_RELEASE_V1.0.2/MSDK/cloud/alicloud/src/services/dev_bind\awss_notify.c **** #endif
  23:C:/Users/stapi/OneDrive/Desktop/GD32VW553/V1_MQTT_OK/GD32VW55X_Wifi_BLE_SDK/GD32VW55x_RELEASE_V1.0.2/MSDK/cloud/alicloud/src/services/dev_bind\awss_notify.c **** 
  24:C:/Users/stapi/OneDrive/Desktop/GD32VW553/V1_MQTT_OK/GD32VW55X_Wifi_BLE_SDK/GD32VW55x_RELEASE_V1.0.2/MSDK/cloud/alicloud/src/services/dev_bind\awss_notify.c **** #define AWSS_CHECK_RESP_TIME (300)
  25:C:/Users/stapi/OneDrive/Desktop/GD32VW553/V1_MQTT_OK/GD32VW55X_Wifi_BLE_SDK/GD32VW55x_RELEASE_V1.0.2/MSDK/cloud/alicloud/src/services/dev_bind\awss_notify.c **** #define AWSS_NOTIFY_PORT     (5683)
  26:C:/Users/stapi/OneDrive/Desktop/GD32VW553/V1_MQTT_OK/GD32VW55X_Wifi_BLE_SDK/GD32VW55x_RELEASE_V1.0.2/MSDK/cloud/alicloud/src/services/dev_bind\awss_notify.c **** #define AWSS_NOTIFY_HOST     "255.255.255.255"
  27:C:/Users/stapi/OneDrive/Desktop/GD32VW553/V1_MQTT_OK/GD32VW55X_Wifi_BLE_SDK/GD32VW55x_RELEASE_V1.0.2/MSDK/cloud/alicloud/src/services/dev_bind\awss_notify.c **** #define AWSS_DEV_NOTIFY_FMT  "{\"id\":\"%u\",\"version\":\"1.0\",\"method\":\"%s\",\"params\":{%s}}
  28:C:/Users/stapi/OneDrive/Desktop/GD32VW553/V1_MQTT_OK/GD32VW55X_Wifi_BLE_SDK/GD32VW55x_RELEASE_V1.0.2/MSDK/cloud/alicloud/src/services/dev_bind\awss_notify.c **** 
  29:C:/Users/stapi/OneDrive/Desktop/GD32VW553/V1_MQTT_OK/GD32VW55X_Wifi_BLE_SDK/GD32VW55x_RELEASE_V1.0.2/MSDK/cloud/alicloud/src/services/dev_bind\awss_notify.c **** struct notify_map_t {
  30:C:/Users/stapi/OneDrive/Desktop/GD32VW553/V1_MQTT_OK/GD32VW55X_Wifi_BLE_SDK/GD32VW55x_RELEASE_V1.0.2/MSDK/cloud/alicloud/src/services/dev_bind\awss_notify.c ****     uint8_t notify_type;
  31:C:/Users/stapi/OneDrive/Desktop/GD32VW553/V1_MQTT_OK/GD32VW55X_Wifi_BLE_SDK/GD32VW55x_RELEASE_V1.0.2/MSDK/cloud/alicloud/src/services/dev_bind\awss_notify.c ****     char *notify_method;
  32:C:/Users/stapi/OneDrive/Desktop/GD32VW553/V1_MQTT_OK/GD32VW55X_Wifi_BLE_SDK/GD32VW55x_RELEASE_V1.0.2/MSDK/cloud/alicloud/src/services/dev_bind\awss_notify.c ****     char *notify_topic;
  33:C:/Users/stapi/OneDrive/Desktop/GD32VW553/V1_MQTT_OK/GD32VW55X_Wifi_BLE_SDK/GD32VW55x_RELEASE_V1.0.2/MSDK/cloud/alicloud/src/services/dev_bind\awss_notify.c ****     void *cb;
  34:C:/Users/stapi/OneDrive/Desktop/GD32VW553/V1_MQTT_OK/GD32VW55X_Wifi_BLE_SDK/GD32VW55x_RELEASE_V1.0.2/MSDK/cloud/alicloud/src/services/dev_bind\awss_notify.c **** };
  35:C:/Users/stapi/OneDrive/Desktop/GD32VW553/V1_MQTT_OK/GD32VW55X_Wifi_BLE_SDK/GD32VW55x_RELEASE_V1.0.2/MSDK/cloud/alicloud/src/services/dev_bind\awss_notify.c **** 
  36:C:/Users/stapi/OneDrive/Desktop/GD32VW553/V1_MQTT_OK/GD32VW55X_Wifi_BLE_SDK/GD32VW55x_RELEASE_V1.0.2/MSDK/cloud/alicloud/src/services/dev_bind\awss_notify.c **** static uint8_t g_notify_id;
  37:C:/Users/stapi/OneDrive/Desktop/GD32VW553/V1_MQTT_OK/GD32VW55X_Wifi_BLE_SDK/GD32VW55x_RELEASE_V1.0.2/MSDK/cloud/alicloud/src/services/dev_bind\awss_notify.c **** static char awss_notify_resp[AWSS_NOTIFY_TYPE_MAX] = {0};
  38:C:/Users/stapi/OneDrive/Desktop/GD32VW553/V1_MQTT_OK/GD32VW55X_Wifi_BLE_SDK/GD32VW55x_RELEASE_V1.0.2/MSDK/cloud/alicloud/src/services/dev_bind\awss_notify.c **** static uint16_t g_notify_msg_id[AWSS_NOTIFY_TYPE_MAX] = {0};
  39:C:/Users/stapi/OneDrive/Desktop/GD32VW553/V1_MQTT_OK/GD32VW55X_Wifi_BLE_SDK/GD32VW55x_RELEASE_V1.0.2/MSDK/cloud/alicloud/src/services/dev_bind\awss_notify.c **** 
  40:C:/Users/stapi/OneDrive/Desktop/GD32VW553/V1_MQTT_OK/GD32VW55X_Wifi_BLE_SDK/GD32VW55x_RELEASE_V1.0.2/MSDK/cloud/alicloud/src/services/dev_bind\awss_notify.c **** #ifdef WIFI_PROVISION_ENABLED
  41:C:/Users/stapi/OneDrive/Desktop/GD32VW553/V1_MQTT_OK/GD32VW55X_Wifi_BLE_SDK/GD32VW55x_RELEASE_V1.0.2/MSDK/cloud/alicloud/src/services/dev_bind\awss_notify.c **** static void *success_notify_timer = NULL;
  42:C:/Users/stapi/OneDrive/Desktop/GD32VW553/V1_MQTT_OK/GD32VW55X_Wifi_BLE_SDK/GD32VW55x_RELEASE_V1.0.2/MSDK/cloud/alicloud/src/services/dev_bind\awss_notify.c **** static void *devinfo_notify_timer = NULL;
  43:C:/Users/stapi/OneDrive/Desktop/GD32VW553/V1_MQTT_OK/GD32VW55X_Wifi_BLE_SDK/GD32VW55x_RELEASE_V1.0.2/MSDK/cloud/alicloud/src/services/dev_bind\awss_notify.c **** static void *success_notify_mutex = NULL;
  44:C:/Users/stapi/OneDrive/Desktop/GD32VW553/V1_MQTT_OK/GD32VW55X_Wifi_BLE_SDK/GD32VW55x_RELEASE_V1.0.2/MSDK/cloud/alicloud/src/services/dev_bind\awss_notify.c **** static void *devinfo_notify_mutex = NULL;
  45:C:/Users/stapi/OneDrive/Desktop/GD32VW553/V1_MQTT_OK/GD32VW55X_Wifi_BLE_SDK/GD32VW55x_RELEASE_V1.0.2/MSDK/cloud/alicloud/src/services/dev_bind\awss_notify.c **** #endif
  46:C:/Users/stapi/OneDrive/Desktop/GD32VW553/V1_MQTT_OK/GD32VW55X_Wifi_BLE_SDK/GD32VW55x_RELEASE_V1.0.2/MSDK/cloud/alicloud/src/services/dev_bind\awss_notify.c **** static void *dev_bind_notify_timer = NULL;
  47:C:/Users/stapi/OneDrive/Desktop/GD32VW553/V1_MQTT_OK/GD32VW55X_Wifi_BLE_SDK/GD32VW55x_RELEASE_V1.0.2/MSDK/cloud/alicloud/src/services/dev_bind\awss_notify.c **** static void *get_devinfo_timer  = NULL;
  48:C:/Users/stapi/OneDrive/Desktop/GD32VW553/V1_MQTT_OK/GD32VW55X_Wifi_BLE_SDK/GD32VW55x_RELEASE_V1.0.2/MSDK/cloud/alicloud/src/services/dev_bind\awss_notify.c **** static void *dev_bind_notify_mutex = NULL;
  49:C:/Users/stapi/OneDrive/Desktop/GD32VW553/V1_MQTT_OK/GD32VW55X_Wifi_BLE_SDK/GD32VW55x_RELEASE_V1.0.2/MSDK/cloud/alicloud/src/services/dev_bind\awss_notify.c **** 
  50:C:/Users/stapi/OneDrive/Desktop/GD32VW553/V1_MQTT_OK/GD32VW55X_Wifi_BLE_SDK/GD32VW55x_RELEASE_V1.0.2/MSDK/cloud/alicloud/src/services/dev_bind\awss_notify.c **** extern char awss_report_token_suc;
  51:C:/Users/stapi/OneDrive/Desktop/GD32VW553/V1_MQTT_OK/GD32VW55X_Wifi_BLE_SDK/GD32VW55x_RELEASE_V1.0.2/MSDK/cloud/alicloud/src/services/dev_bind\awss_notify.c **** extern char awss_report_token_cnt;
  52:C:/Users/stapi/OneDrive/Desktop/GD32VW553/V1_MQTT_OK/GD32VW55X_Wifi_BLE_SDK/GD32VW55x_RELEASE_V1.0.2/MSDK/cloud/alicloud/src/services/dev_bind\awss_notify.c **** 
  53:C:/Users/stapi/OneDrive/Desktop/GD32VW553/V1_MQTT_OK/GD32VW55X_Wifi_BLE_SDK/GD32VW55x_RELEASE_V1.0.2/MSDK/cloud/alicloud/src/services/dev_bind\awss_notify.c **** static int awss_dev_bind_notify_resp(void *context, int result,
  54:C:/Users/stapi/OneDrive/Desktop/GD32VW553/V1_MQTT_OK/GD32VW55X_Wifi_BLE_SDK/GD32VW55x_RELEASE_V1.0.2/MSDK/cloud/alicloud/src/services/dev_bind\awss_notify.c ****                                      void *userdata, void *remote,
  55:C:/Users/stapi/OneDrive/Desktop/GD32VW553/V1_MQTT_OK/GD32VW55X_Wifi_BLE_SDK/GD32VW55x_RELEASE_V1.0.2/MSDK/cloud/alicloud/src/services/dev_bind\awss_notify.c ****                                      void *message);
  56:C:/Users/stapi/OneDrive/Desktop/GD32VW553/V1_MQTT_OK/GD32VW55X_Wifi_BLE_SDK/GD32VW55x_RELEASE_V1.0.2/MSDK/cloud/alicloud/src/services/dev_bind\awss_notify.c **** #ifdef WIFI_PROVISION_ENABLED
  57:C:/Users/stapi/OneDrive/Desktop/GD32VW553/V1_MQTT_OK/GD32VW55X_Wifi_BLE_SDK/GD32VW55x_RELEASE_V1.0.2/MSDK/cloud/alicloud/src/services/dev_bind\awss_notify.c **** static int awss_devinfo_notify_resp(void *context, int result,
  58:C:/Users/stapi/OneDrive/Desktop/GD32VW553/V1_MQTT_OK/GD32VW55X_Wifi_BLE_SDK/GD32VW55x_RELEASE_V1.0.2/MSDK/cloud/alicloud/src/services/dev_bind\awss_notify.c ****                                     void *userdata, void *remote,
  59:C:/Users/stapi/OneDrive/Desktop/GD32VW553/V1_MQTT_OK/GD32VW55X_Wifi_BLE_SDK/GD32VW55x_RELEASE_V1.0.2/MSDK/cloud/alicloud/src/services/dev_bind\awss_notify.c ****                                     void *message);
  60:C:/Users/stapi/OneDrive/Desktop/GD32VW553/V1_MQTT_OK/GD32VW55X_Wifi_BLE_SDK/GD32VW55x_RELEASE_V1.0.2/MSDK/cloud/alicloud/src/services/dev_bind\awss_notify.c **** static int awss_suc_notify_resp(void *context, int result,
  61:C:/Users/stapi/OneDrive/Desktop/GD32VW553/V1_MQTT_OK/GD32VW55X_Wifi_BLE_SDK/GD32VW55x_RELEASE_V1.0.2/MSDK/cloud/alicloud/src/services/dev_bind\awss_notify.c ****                                 void *userdata, void *remote,
  62:C:/Users/stapi/OneDrive/Desktop/GD32VW553/V1_MQTT_OK/GD32VW55X_Wifi_BLE_SDK/GD32VW55x_RELEASE_V1.0.2/MSDK/cloud/alicloud/src/services/dev_bind\awss_notify.c ****                                 void *message);
  63:C:/Users/stapi/OneDrive/Desktop/GD32VW553/V1_MQTT_OK/GD32VW55X_Wifi_BLE_SDK/GD32VW55x_RELEASE_V1.0.2/MSDK/cloud/alicloud/src/services/dev_bind\awss_notify.c **** int awss_devinfo_notify();
  64:C:/Users/stapi/OneDrive/Desktop/GD32VW553/V1_MQTT_OK/GD32VW55X_Wifi_BLE_SDK/GD32VW55x_RELEASE_V1.0.2/MSDK/cloud/alicloud/src/services/dev_bind\awss_notify.c **** int awss_suc_notify();
  65:C:/Users/stapi/OneDrive/Desktop/GD32VW553/V1_MQTT_OK/GD32VW55X_Wifi_BLE_SDK/GD32VW55x_RELEASE_V1.0.2/MSDK/cloud/alicloud/src/services/dev_bind\awss_notify.c **** #endif
  66:C:/Users/stapi/OneDrive/Desktop/GD32VW553/V1_MQTT_OK/GD32VW55X_Wifi_BLE_SDK/GD32VW55x_RELEASE_V1.0.2/MSDK/cloud/alicloud/src/services/dev_bind\awss_notify.c **** static int awss_notify_response(int type, int result, void *message);
  67:C:/Users/stapi/OneDrive/Desktop/GD32VW553/V1_MQTT_OK/GD32VW55X_Wifi_BLE_SDK/GD32VW55x_RELEASE_V1.0.2/MSDK/cloud/alicloud/src/services/dev_bind\awss_notify.c **** static int awss_process_get_devinfo();
  68:C:/Users/stapi/OneDrive/Desktop/GD32VW553/V1_MQTT_OK/GD32VW55X_Wifi_BLE_SDK/GD32VW55x_RELEASE_V1.0.2/MSDK/cloud/alicloud/src/services/dev_bind\awss_notify.c **** int awss_dev_bind_notify();
  69:C:/Users/stapi/OneDrive/Desktop/GD32VW553/V1_MQTT_OK/GD32VW55X_Wifi_BLE_SDK/GD32VW55x_RELEASE_V1.0.2/MSDK/cloud/alicloud/src/services/dev_bind\awss_notify.c **** 
  70:C:/Users/stapi/OneDrive/Desktop/GD32VW553/V1_MQTT_OK/GD32VW55X_Wifi_BLE_SDK/GD32VW55x_RELEASE_V1.0.2/MSDK/cloud/alicloud/src/services/dev_bind\awss_notify.c **** static const struct notify_map_t notify_map[] = {
  71:C:/Users/stapi/OneDrive/Desktop/GD32VW553/V1_MQTT_OK/GD32VW55X_Wifi_BLE_SDK/GD32VW55x_RELEASE_V1.0.2/MSDK/cloud/alicloud/src/services/dev_bind\awss_notify.c ****     {AWSS_NOTIFY_DEV_BIND_TOKEN, METHOD_DEV_INFO_NOTIFY,       TOPIC_NOTIFY,                awss_de
  72:C:/Users/stapi/OneDrive/Desktop/GD32VW553/V1_MQTT_OK/GD32VW55X_Wifi_BLE_SDK/GD32VW55x_RELEASE_V1.0.2/MSDK/cloud/alicloud/src/services/dev_bind\awss_notify.c **** #ifdef WIFI_PROVISION_ENABLED
  73:C:/Users/stapi/OneDrive/Desktop/GD32VW553/V1_MQTT_OK/GD32VW55X_Wifi_BLE_SDK/GD32VW55x_RELEASE_V1.0.2/MSDK/cloud/alicloud/src/services/dev_bind\awss_notify.c ****     {AWSS_NOTIFY_DEV_RAND_SIGN,  METHOD_AWSS_DEV_INFO_NOTIFY,  TOPIC_AWSS_NOTIFY,           awss_de
  74:C:/Users/stapi/OneDrive/Desktop/GD32VW553/V1_MQTT_OK/GD32VW55X_Wifi_BLE_SDK/GD32VW55x_RELEASE_V1.0.2/MSDK/cloud/alicloud/src/services/dev_bind\awss_notify.c ****     {AWSS_NOTIFY_SUCCESS,        METHOD_AWSS_CONNECTAP_NOTIFY, TOPIC_AWSS_CONNECTAP_NOTIFY, awss_su
  75:C:/Users/stapi/OneDrive/Desktop/GD32VW553/V1_MQTT_OK/GD32VW55X_Wifi_BLE_SDK/GD32VW55x_RELEASE_V1.0.2/MSDK/cloud/alicloud/src/services/dev_bind\awss_notify.c **** #endif
  76:C:/Users/stapi/OneDrive/Desktop/GD32VW553/V1_MQTT_OK/GD32VW55X_Wifi_BLE_SDK/GD32VW55x_RELEASE_V1.0.2/MSDK/cloud/alicloud/src/services/dev_bind\awss_notify.c **** };
  77:C:/Users/stapi/OneDrive/Desktop/GD32VW553/V1_MQTT_OK/GD32VW55X_Wifi_BLE_SDK/GD32VW55x_RELEASE_V1.0.2/MSDK/cloud/alicloud/src/services/dev_bind\awss_notify.c **** 
  78:C:/Users/stapi/OneDrive/Desktop/GD32VW553/V1_MQTT_OK/GD32VW55X_Wifi_BLE_SDK/GD32VW55x_RELEASE_V1.0.2/MSDK/cloud/alicloud/src/services/dev_bind\awss_notify.c **** /*
  79:C:/Users/stapi/OneDrive/Desktop/GD32VW553/V1_MQTT_OK/GD32VW55X_Wifi_BLE_SDK/GD32VW55x_RELEASE_V1.0.2/MSDK/cloud/alicloud/src/services/dev_bind\awss_notify.c ****  * {
  80:C:/Users/stapi/OneDrive/Desktop/GD32VW553/V1_MQTT_OK/GD32VW55X_Wifi_BLE_SDK/GD32VW55x_RELEASE_V1.0.2/MSDK/cloud/alicloud/src/services/dev_bind\awss_notify.c ****  *  "id": "123",
  81:C:/Users/stapi/OneDrive/Desktop/GD32VW553/V1_MQTT_OK/GD32VW55X_Wifi_BLE_SDK/GD32VW55x_RELEASE_V1.0.2/MSDK/cloud/alicloud/src/services/dev_bind\awss_notify.c ****  *  "code": 200,
  82:C:/Users/stapi/OneDrive/Desktop/GD32VW553/V1_MQTT_OK/GD32VW55X_Wifi_BLE_SDK/GD32VW55x_RELEASE_V1.0.2/MSDK/cloud/alicloud/src/services/dev_bind\awss_notify.c ****  *  "data": {}
  83:C:/Users/stapi/OneDrive/Desktop/GD32VW553/V1_MQTT_OK/GD32VW55X_Wifi_BLE_SDK/GD32VW55x_RELEASE_V1.0.2/MSDK/cloud/alicloud/src/services/dev_bind\awss_notify.c ****  * }
  84:C:/Users/stapi/OneDrive/Desktop/GD32VW553/V1_MQTT_OK/GD32VW55X_Wifi_BLE_SDK/GD32VW55x_RELEASE_V1.0.2/MSDK/cloud/alicloud/src/services/dev_bind\awss_notify.c ****  */
  85:C:/Users/stapi/OneDrive/Desktop/GD32VW553/V1_MQTT_OK/GD32VW55X_Wifi_BLE_SDK/GD32VW55x_RELEASE_V1.0.2/MSDK/cloud/alicloud/src/services/dev_bind\awss_notify.c **** static int awss_dev_bind_notify_resp(void *context, int result,
  86:C:/Users/stapi/OneDrive/Desktop/GD32VW553/V1_MQTT_OK/GD32VW55X_Wifi_BLE_SDK/GD32VW55x_RELEASE_V1.0.2/MSDK/cloud/alicloud/src/services/dev_bind\awss_notify.c ****                                      void *userdata, void *remote,
  87:C:/Users/stapi/OneDrive/Desktop/GD32VW553/V1_MQTT_OK/GD32VW55X_Wifi_BLE_SDK/GD32VW55x_RELEASE_V1.0.2/MSDK/cloud/alicloud/src/services/dev_bind\awss_notify.c ****                                      void *message)
  88:C:/Users/stapi/OneDrive/Desktop/GD32VW553/V1_MQTT_OK/GD32VW55X_Wifi_BLE_SDK/GD32VW55x_RELEASE_V1.0.2/MSDK/cloud/alicloud/src/services/dev_bind\awss_notify.c **** {
  89:C:/Users/stapi/OneDrive/Desktop/GD32VW553/V1_MQTT_OK/GD32VW55X_Wifi_BLE_SDK/GD32VW55x_RELEASE_V1.0.2/MSDK/cloud/alicloud/src/services/dev_bind\awss_notify.c ****     int res = awss_notify_response(AWSS_NOTIFY_DEV_BIND_TOKEN, result, message);
  90:C:/Users/stapi/OneDrive/Desktop/GD32VW553/V1_MQTT_OK/GD32VW55X_Wifi_BLE_SDK/GD32VW55x_RELEASE_V1.0.2/MSDK/cloud/alicloud/src/services/dev_bind\awss_notify.c ****     if (res == 1) {
  91:C:/Users/stapi/OneDrive/Desktop/GD32VW553/V1_MQTT_OK/GD32VW55X_Wifi_BLE_SDK/GD32VW55x_RELEASE_V1.0.2/MSDK/cloud/alicloud/src/services/dev_bind\awss_notify.c ****         awss_update_token();
  92:C:/Users/stapi/OneDrive/Desktop/GD32VW553/V1_MQTT_OK/GD32VW55X_Wifi_BLE_SDK/GD32VW55x_RELEASE_V1.0.2/MSDK/cloud/alicloud/src/services/dev_bind\awss_notify.c **** #ifdef DEV_BIND_TEST
  93:C:/Users/stapi/OneDrive/Desktop/GD32VW553/V1_MQTT_OK/GD32VW55X_Wifi_BLE_SDK/GD32VW55x_RELEASE_V1.0.2/MSDK/cloud/alicloud/src/services/dev_bind\awss_notify.c ****         os_reboot();
  94:C:/Users/stapi/OneDrive/Desktop/GD32VW553/V1_MQTT_OK/GD32VW55X_Wifi_BLE_SDK/GD32VW55x_RELEASE_V1.0.2/MSDK/cloud/alicloud/src/services/dev_bind\awss_notify.c **** #endif
  95:C:/Users/stapi/OneDrive/Desktop/GD32VW553/V1_MQTT_OK/GD32VW55X_Wifi_BLE_SDK/GD32VW55x_RELEASE_V1.0.2/MSDK/cloud/alicloud/src/services/dev_bind\awss_notify.c ****     }
  96:C:/Users/stapi/OneDrive/Desktop/GD32VW553/V1_MQTT_OK/GD32VW55X_Wifi_BLE_SDK/GD32VW55x_RELEASE_V1.0.2/MSDK/cloud/alicloud/src/services/dev_bind\awss_notify.c ****     return res;
  97:C:/Users/stapi/OneDrive/Desktop/GD32VW553/V1_MQTT_OK/GD32VW55X_Wifi_BLE_SDK/GD32VW55x_RELEASE_V1.0.2/MSDK/cloud/alicloud/src/services/dev_bind\awss_notify.c **** }
  98:C:/Users/stapi/OneDrive/Desktop/GD32VW553/V1_MQTT_OK/GD32VW55X_Wifi_BLE_SDK/GD32VW55x_RELEASE_V1.0.2/MSDK/cloud/alicloud/src/services/dev_bind\awss_notify.c **** 
  99:C:/Users/stapi/OneDrive/Desktop/GD32VW553/V1_MQTT_OK/GD32VW55X_Wifi_BLE_SDK/GD32VW55x_RELEASE_V1.0.2/MSDK/cloud/alicloud/src/services/dev_bind\awss_notify.c **** #ifdef WIFI_PROVISION_ENABLED
 100:C:/Users/stapi/OneDrive/Desktop/GD32VW553/V1_MQTT_OK/GD32VW55X_Wifi_BLE_SDK/GD32VW55x_RELEASE_V1.0.2/MSDK/cloud/alicloud/src/services/dev_bind\awss_notify.c **** static int awss_devinfo_notify_resp(void *context, int result,
 101:C:/Users/stapi/OneDrive/Desktop/GD32VW553/V1_MQTT_OK/GD32VW55X_Wifi_BLE_SDK/GD32VW55x_RELEASE_V1.0.2/MSDK/cloud/alicloud/src/services/dev_bind\awss_notify.c ****                                     void *userdata, void *remote,
 102:C:/Users/stapi/OneDrive/Desktop/GD32VW553/V1_MQTT_OK/GD32VW55X_Wifi_BLE_SDK/GD32VW55x_RELEASE_V1.0.2/MSDK/cloud/alicloud/src/services/dev_bind\awss_notify.c ****                                     void *message)
 103:C:/Users/stapi/OneDrive/Desktop/GD32VW553/V1_MQTT_OK/GD32VW55X_Wifi_BLE_SDK/GD32VW55x_RELEASE_V1.0.2/MSDK/cloud/alicloud/src/services/dev_bind\awss_notify.c **** {
 104:C:/Users/stapi/OneDrive/Desktop/GD32VW553/V1_MQTT_OK/GD32VW55X_Wifi_BLE_SDK/GD32VW55x_RELEASE_V1.0.2/MSDK/cloud/alicloud/src/services/dev_bind\awss_notify.c ****     return awss_notify_response(AWSS_NOTIFY_DEV_RAND_SIGN, result, message);
 105:C:/Users/stapi/OneDrive/Desktop/GD32VW553/V1_MQTT_OK/GD32VW55X_Wifi_BLE_SDK/GD32VW55x_RELEASE_V1.0.2/MSDK/cloud/alicloud/src/services/dev_bind\awss_notify.c **** }
 106:C:/Users/stapi/OneDrive/Desktop/GD32VW553/V1_MQTT_OK/GD32VW55X_Wifi_BLE_SDK/GD32VW55x_RELEASE_V1.0.2/MSDK/cloud/alicloud/src/services/dev_bind\awss_notify.c **** 
 107:C:/Users/stapi/OneDrive/Desktop/GD32VW553/V1_MQTT_OK/GD32VW55X_Wifi_BLE_SDK/GD32VW55x_RELEASE_V1.0.2/MSDK/cloud/alicloud/src/services/dev_bind\awss_notify.c **** static int awss_suc_notify_resp(void *context, int result,
 108:C:/Users/stapi/OneDrive/Desktop/GD32VW553/V1_MQTT_OK/GD32VW55X_Wifi_BLE_SDK/GD32VW55x_RELEASE_V1.0.2/MSDK/cloud/alicloud/src/services/dev_bind\awss_notify.c ****                                 void *userdata, void *remote,
 109:C:/Users/stapi/OneDrive/Desktop/GD32VW553/V1_MQTT_OK/GD32VW55X_Wifi_BLE_SDK/GD32VW55x_RELEASE_V1.0.2/MSDK/cloud/alicloud/src/services/dev_bind\awss_notify.c ****                                 void *message)
 110:C:/Users/stapi/OneDrive/Desktop/GD32VW553/V1_MQTT_OK/GD32VW55X_Wifi_BLE_SDK/GD32VW55x_RELEASE_V1.0.2/MSDK/cloud/alicloud/src/services/dev_bind\awss_notify.c **** {
 111:C:/Users/stapi/OneDrive/Desktop/GD32VW553/V1_MQTT_OK/GD32VW55X_Wifi_BLE_SDK/GD32VW55x_RELEASE_V1.0.2/MSDK/cloud/alicloud/src/services/dev_bind\awss_notify.c ****     return awss_notify_response(AWSS_NOTIFY_SUCCESS, result, message);
 112:C:/Users/stapi/OneDrive/Desktop/GD32VW553/V1_MQTT_OK/GD32VW55X_Wifi_BLE_SDK/GD32VW55x_RELEASE_V1.0.2/MSDK/cloud/alicloud/src/services/dev_bind\awss_notify.c **** }
 113:C:/Users/stapi/OneDrive/Desktop/GD32VW553/V1_MQTT_OK/GD32VW55X_Wifi_BLE_SDK/GD32VW55x_RELEASE_V1.0.2/MSDK/cloud/alicloud/src/services/dev_bind\awss_notify.c **** #endif
 114:C:/Users/stapi/OneDrive/Desktop/GD32VW553/V1_MQTT_OK/GD32VW55X_Wifi_BLE_SDK/GD32VW55x_RELEASE_V1.0.2/MSDK/cloud/alicloud/src/services/dev_bind\awss_notify.c **** 
 115:C:/Users/stapi/OneDrive/Desktop/GD32VW553/V1_MQTT_OK/GD32VW55X_Wifi_BLE_SDK/GD32VW55x_RELEASE_V1.0.2/MSDK/cloud/alicloud/src/services/dev_bind\awss_notify.c **** static int awss_notify_response(int type, int result, void *message)
 116:C:/Users/stapi/OneDrive/Desktop/GD32VW553/V1_MQTT_OK/GD32VW55X_Wifi_BLE_SDK/GD32VW55x_RELEASE_V1.0.2/MSDK/cloud/alicloud/src/services/dev_bind\awss_notify.c **** {
  49              		.loc 1 116 1
  50              		.cfi_startproc
  51              	.LVL0:
  52 0000 17030000 		call	t0,__riscv_save_5
  52      E7020300 
  53              		.cfi_offset 20, -24
  54              		.cfi_offset 19, -20
  55              		.cfi_offset 18, -16
  56              		.cfi_offset 9, -12
  57              		.cfi_offset 8, -8
  58              		.cfi_offset 1, -4
  59              		.cfi_def_cfa_offset 32
 117:C:/Users/stapi/OneDrive/Desktop/GD32VW553/V1_MQTT_OK/GD32VW55X_Wifi_BLE_SDK/GD32VW55x_RELEASE_V1.0.2/MSDK/cloud/alicloud/src/services/dev_bind\awss_notify.c ****     uint8_t i = 0;
  60              		.loc 1 117 5
  61              	.LVL1:
 118:C:/Users/stapi/OneDrive/Desktop/GD32VW553/V1_MQTT_OK/GD32VW55X_Wifi_BLE_SDK/GD32VW55x_RELEASE_V1.0.2/MSDK/cloud/alicloud/src/services/dev_bind\awss_notify.c ****     uint8_t code;
  62              		.loc 1 118 5
 119:C:/Users/stapi/OneDrive/Desktop/GD32VW553/V1_MQTT_OK/GD32VW55X_Wifi_BLE_SDK/GD32VW55x_RELEASE_V1.0.2/MSDK/cloud/alicloud/src/services/dev_bind\awss_notify.c **** 
 120:C:/Users/stapi/OneDrive/Desktop/GD32VW553/V1_MQTT_OK/GD32VW55X_Wifi_BLE_SDK/GD32VW55x_RELEASE_V1.0.2/MSDK/cloud/alicloud/src/services/dev_bind\awss_notify.c ****     awss_flow("%s, type:%d,result:%u\r\n", __func__, type, result);
  63              		.loc 1 120 5
  64 0008 370A0000 		lui	s4,%hi(.LANCHOR1)
  65 000c B7070000 		lui	a5,%hi(.LANCHOR0)
  66 0010 37070000 		lui	a4,%hi(.LC0)
  67 0014 B7090000 		lui	s3,%hi(.LC1)
 116:C:/Users/stapi/OneDrive/Desktop/GD32VW553/V1_MQTT_OK/GD32VW55X_Wifi_BLE_SDK/GD32VW55x_RELEASE_V1.0.2/MSDK/cloud/alicloud/src/services/dev_bind\awss_notify.c ****     uint8_t i = 0;
  68              		.loc 1 116 1 is_stmt 0
  69 0018 3284     		mv	s0,a2
  70 001a 0111     		addi	sp,sp,-32
  71              		.cfi_def_cfa_offset 64
 116:C:/Users/stapi/OneDrive/Desktop/GD32VW553/V1_MQTT_OK/GD32VW55X_Wifi_BLE_SDK/GD32VW55x_RELEASE_V1.0.2/MSDK/cloud/alicloud/src/services/dev_bind\awss_notify.c ****     uint8_t i = 0;
  72              		.loc 1 116 1
  73 001c AA84     		mv	s1,a0
  74 001e 2E89     		mv	s2,a1
  75              		.loc 1 120 5
  76 0020 AE88     		mv	a7,a1
  77 0022 2A88     		mv	a6,a0
  78 0024 93870700 		addi	a5,a5,%lo(.LANCHOR0)
  79 0028 13070700 		addi	a4,a4,%lo(.LC0)
  80 002c 9946     		li	a3,6
  81 002e 13068007 		li	a2,120
  82              	.LVL2:
  83 0032 93050A00 		addi	a1,s4,%lo(.LANCHOR1)
  84              	.LVL3:
  85 0036 13850900 		addi	a0,s3,%lo(.LC1)
  86              	.LVL4:
  87 003a 97000000 		call	LITE_syslog
  87      E7800000 
  88              	.LVL5:
 121:C:/Users/stapi/OneDrive/Desktop/GD32VW553/V1_MQTT_OK/GD32VW55X_Wifi_BLE_SDK/GD32VW55x_RELEASE_V1.0.2/MSDK/cloud/alicloud/src/services/dev_bind\awss_notify.c **** 
 122:C:/Users/stapi/OneDrive/Desktop/GD32VW553/V1_MQTT_OK/GD32VW55X_Wifi_BLE_SDK/GD32VW55x_RELEASE_V1.0.2/MSDK/cloud/alicloud/src/services/dev_bind\awss_notify.c ****     if (message == NULL) {
  89              		.loc 1 122 5 is_stmt 1
  90              		.loc 1 122 8 is_stmt 0
  91 0042 01E4     		bne	s0,zero,.L2
  92              	.LVL6:
  93              	.L7:
  94              	.LBB24:
 123:C:/Users/stapi/OneDrive/Desktop/GD32VW553/V1_MQTT_OK/GD32VW55X_Wifi_BLE_SDK/GD32VW55x_RELEASE_V1.0.2/MSDK/cloud/alicloud/src/services/dev_bind\awss_notify.c ****         return STATE_WIFI_COAP_RSP_INVALID;
 124:C:/Users/stapi/OneDrive/Desktop/GD32VW553/V1_MQTT_OK/GD32VW55X_Wifi_BLE_SDK/GD32VW55x_RELEASE_V1.0.2/MSDK/cloud/alicloud/src/services/dev_bind\awss_notify.c ****     }
 125:C:/Users/stapi/OneDrive/Desktop/GD32VW553/V1_MQTT_OK/GD32VW55X_Wifi_BLE_SDK/GD32VW55x_RELEASE_V1.0.2/MSDK/cloud/alicloud/src/services/dev_bind\awss_notify.c **** 
 126:C:/Users/stapi/OneDrive/Desktop/GD32VW553/V1_MQTT_OK/GD32VW55X_Wifi_BLE_SDK/GD32VW55x_RELEASE_V1.0.2/MSDK/cloud/alicloud/src/services/dev_bind\awss_notify.c ****     if (result != 0) {
 127:C:/Users/stapi/OneDrive/Desktop/GD32VW553/V1_MQTT_OK/GD32VW55X_Wifi_BLE_SDK/GD32VW55x_RELEASE_V1.0.2/MSDK/cloud/alicloud/src/services/dev_bind\awss_notify.c ****         //awss_err("result = %d", result);
 128:C:/Users/stapi/OneDrive/Desktop/GD32VW553/V1_MQTT_OK/GD32VW55X_Wifi_BLE_SDK/GD32VW55x_RELEASE_V1.0.2/MSDK/cloud/alicloud/src/services/dev_bind\awss_notify.c ****         return STATE_WIFI_COAP_RSP_INVALID;
 129:C:/Users/stapi/OneDrive/Desktop/GD32VW553/V1_MQTT_OK/GD32VW55X_Wifi_BLE_SDK/GD32VW55x_RELEASE_V1.0.2/MSDK/cloud/alicloud/src/services/dev_bind\awss_notify.c ****     }
 130:C:/Users/stapi/OneDrive/Desktop/GD32VW553/V1_MQTT_OK/GD32VW55X_Wifi_BLE_SDK/GD32VW55x_RELEASE_V1.0.2/MSDK/cloud/alicloud/src/services/dev_bind\awss_notify.c **** 
 131:C:/Users/stapi/OneDrive/Desktop/GD32VW553/V1_MQTT_OK/GD32VW55X_Wifi_BLE_SDK/GD32VW55x_RELEASE_V1.0.2/MSDK/cloud/alicloud/src/services/dev_bind\awss_notify.c ****     code = awss_cmp_get_coap_code(message);
 132:C:/Users/stapi/OneDrive/Desktop/GD32VW553/V1_MQTT_OK/GD32VW55X_Wifi_BLE_SDK/GD32VW55x_RELEASE_V1.0.2/MSDK/cloud/alicloud/src/services/dev_bind\awss_notify.c ****     if (code >= 0x60) {
 133:C:/Users/stapi/OneDrive/Desktop/GD32VW553/V1_MQTT_OK/GD32VW55X_Wifi_BLE_SDK/GD32VW55x_RELEASE_V1.0.2/MSDK/cloud/alicloud/src/services/dev_bind\awss_notify.c ****         //awss_err("code:%02x", code);
 134:C:/Users/stapi/OneDrive/Desktop/GD32VW553/V1_MQTT_OK/GD32VW55X_Wifi_BLE_SDK/GD32VW55x_RELEASE_V1.0.2/MSDK/cloud/alicloud/src/services/dev_bind\awss_notify.c ****         return STATE_WIFI_COAP_RSP_INVALID;
 135:C:/Users/stapi/OneDrive/Desktop/GD32VW553/V1_MQTT_OK/GD32VW55X_Wifi_BLE_SDK/GD32VW55x_RELEASE_V1.0.2/MSDK/cloud/alicloud/src/services/dev_bind\awss_notify.c ****     }
 136:C:/Users/stapi/OneDrive/Desktop/GD32VW553/V1_MQTT_OK/GD32VW55X_Wifi_BLE_SDK/GD32VW55x_RELEASE_V1.0.2/MSDK/cloud/alicloud/src/services/dev_bind\awss_notify.c **** 
 137:C:/Users/stapi/OneDrive/Desktop/GD32VW553/V1_MQTT_OK/GD32VW55X_Wifi_BLE_SDK/GD32VW55x_RELEASE_V1.0.2/MSDK/cloud/alicloud/src/services/dev_bind\awss_notify.c ****     do {
 138:C:/Users/stapi/OneDrive/Desktop/GD32VW553/V1_MQTT_OK/GD32VW55X_Wifi_BLE_SDK/GD32VW55x_RELEASE_V1.0.2/MSDK/cloud/alicloud/src/services/dev_bind\awss_notify.c ****         int val = 0;
 139:C:/Users/stapi/OneDrive/Desktop/GD32VW553/V1_MQTT_OK/GD32VW55X_Wifi_BLE_SDK/GD32VW55x_RELEASE_V1.0.2/MSDK/cloud/alicloud/src/services/dev_bind\awss_notify.c ****         int len = 0, mlen = 0;
 140:C:/Users/stapi/OneDrive/Desktop/GD32VW553/V1_MQTT_OK/GD32VW55X_Wifi_BLE_SDK/GD32VW55x_RELEASE_V1.0.2/MSDK/cloud/alicloud/src/services/dev_bind\awss_notify.c ****         char *payload = NULL, *elem = NULL;
 141:C:/Users/stapi/OneDrive/Desktop/GD32VW553/V1_MQTT_OK/GD32VW55X_Wifi_BLE_SDK/GD32VW55x_RELEASE_V1.0.2/MSDK/cloud/alicloud/src/services/dev_bind\awss_notify.c **** 
 142:C:/Users/stapi/OneDrive/Desktop/GD32VW553/V1_MQTT_OK/GD32VW55X_Wifi_BLE_SDK/GD32VW55x_RELEASE_V1.0.2/MSDK/cloud/alicloud/src/services/dev_bind\awss_notify.c ****         if ((payload = awss_cmp_get_coap_payload(message, &len)) == NULL || len > 0x40 || len == 0)
 143:C:/Users/stapi/OneDrive/Desktop/GD32VW553/V1_MQTT_OK/GD32VW55X_Wifi_BLE_SDK/GD32VW55x_RELEASE_V1.0.2/MSDK/cloud/alicloud/src/services/dev_bind\awss_notify.c ****             awss_err("payload invalid , len =%d", len);
 144:C:/Users/stapi/OneDrive/Desktop/GD32VW553/V1_MQTT_OK/GD32VW55X_Wifi_BLE_SDK/GD32VW55x_RELEASE_V1.0.2/MSDK/cloud/alicloud/src/services/dev_bind\awss_notify.c ****             return STATE_WIFI_COAP_RSP_INVALID;
  95              		.loc 1 144 20 discriminator 1
  96 0044 130550BE 		li	a0,-1051
  97 0048 A9AA     		j	.L1
  98              	.LVL7:
  99              	.L2:
 100              	.LBE24:
 126:C:/Users/stapi/OneDrive/Desktop/GD32VW553/V1_MQTT_OK/GD32VW55X_Wifi_BLE_SDK/GD32VW55x_RELEASE_V1.0.2/MSDK/cloud/alicloud/src/services/dev_bind\awss_notify.c ****         //awss_err("result = %d", result);
 101              		.loc 1 126 5 is_stmt 1
 126:C:/Users/stapi/OneDrive/Desktop/GD32VW553/V1_MQTT_OK/GD32VW55X_Wifi_BLE_SDK/GD32VW55x_RELEASE_V1.0.2/MSDK/cloud/alicloud/src/services/dev_bind\awss_notify.c ****         //awss_err("result = %d", result);
 102              		.loc 1 126 8 is_stmt 0
 103 004a E31D09FE 		bne	s2,zero,.L7
 131:C:/Users/stapi/OneDrive/Desktop/GD32VW553/V1_MQTT_OK/GD32VW55X_Wifi_BLE_SDK/GD32VW55x_RELEASE_V1.0.2/MSDK/cloud/alicloud/src/services/dev_bind\awss_notify.c ****     if (code >= 0x60) {
 104              		.loc 1 131 5 is_stmt 1
 131:C:/Users/stapi/OneDrive/Desktop/GD32VW553/V1_MQTT_OK/GD32VW55X_Wifi_BLE_SDK/GD32VW55x_RELEASE_V1.0.2/MSDK/cloud/alicloud/src/services/dev_bind\awss_notify.c ****     if (code >= 0x60) {
 105              		.loc 1 131 12 is_stmt 0
 106 004e 2285     		mv	a0,s0
 107 0050 97000000 		call	awss_cmp_get_coap_code
 107      E7800000 
 108              	.LVL8:
 132:C:/Users/stapi/OneDrive/Desktop/GD32VW553/V1_MQTT_OK/GD32VW55X_Wifi_BLE_SDK/GD32VW55x_RELEASE_V1.0.2/MSDK/cloud/alicloud/src/services/dev_bind\awss_notify.c ****         //awss_err("code:%02x", code);
 109              		.loc 1 132 5 is_stmt 1
 132:C:/Users/stapi/OneDrive/Desktop/GD32VW553/V1_MQTT_OK/GD32VW55X_Wifi_BLE_SDK/GD32VW55x_RELEASE_V1.0.2/MSDK/cloud/alicloud/src/services/dev_bind\awss_notify.c ****         //awss_err("code:%02x", code);
 110              		.loc 1 132 8 is_stmt 0
 111 0058 9307F005 		li	a5,95
 112 005c E3E4A7FE 		bgtu	a0,a5,.L7
 137:C:/Users/stapi/OneDrive/Desktop/GD32VW553/V1_MQTT_OK/GD32VW55X_Wifi_BLE_SDK/GD32VW55x_RELEASE_V1.0.2/MSDK/cloud/alicloud/src/services/dev_bind\awss_notify.c ****         int val = 0;
 113              		.loc 1 137 5 is_stmt 1
 114              	.LBB25:
 138:C:/Users/stapi/OneDrive/Desktop/GD32VW553/V1_MQTT_OK/GD32VW55X_Wifi_BLE_SDK/GD32VW55x_RELEASE_V1.0.2/MSDK/cloud/alicloud/src/services/dev_bind\awss_notify.c ****         int len = 0, mlen = 0;
 115              		.loc 1 138 9
 116              	.LVL9:
 139:C:/Users/stapi/OneDrive/Desktop/GD32VW553/V1_MQTT_OK/GD32VW55X_Wifi_BLE_SDK/GD32VW55x_RELEASE_V1.0.2/MSDK/cloud/alicloud/src/services/dev_bind\awss_notify.c ****         char *payload = NULL, *elem = NULL;
 117              		.loc 1 139 9
 142:C:/Users/stapi/OneDrive/Desktop/GD32VW553/V1_MQTT_OK/GD32VW55X_Wifi_BLE_SDK/GD32VW55x_RELEASE_V1.0.2/MSDK/cloud/alicloud/src/services/dev_bind\awss_notify.c ****             awss_err("payload invalid , len =%d", len);
 118              		.loc 1 142 24 is_stmt 0
 119 0060 2285     		mv	a0,s0
 120              	.LVL10:
 121 0062 2C08     		addi	a1,sp,24
 139:C:/Users/stapi/OneDrive/Desktop/GD32VW553/V1_MQTT_OK/GD32VW55X_Wifi_BLE_SDK/GD32VW55x_RELEASE_V1.0.2/MSDK/cloud/alicloud/src/services/dev_bind\awss_notify.c ****         char *payload = NULL, *elem = NULL;
 122              		.loc 1 139 13
 123 0064 02CC     		sw	zero,24(sp)
 139:C:/Users/stapi/OneDrive/Desktop/GD32VW553/V1_MQTT_OK/GD32VW55X_Wifi_BLE_SDK/GD32VW55x_RELEASE_V1.0.2/MSDK/cloud/alicloud/src/services/dev_bind\awss_notify.c ****         char *payload = NULL, *elem = NULL;
 124              		.loc 1 139 22
 125 0066 02CE     		sw	zero,28(sp)
 140:C:/Users/stapi/OneDrive/Desktop/GD32VW553/V1_MQTT_OK/GD32VW55X_Wifi_BLE_SDK/GD32VW55x_RELEASE_V1.0.2/MSDK/cloud/alicloud/src/services/dev_bind\awss_notify.c **** 
 126              		.loc 1 140 9 is_stmt 1
 127              	.LVL11:
 142:C:/Users/stapi/OneDrive/Desktop/GD32VW553/V1_MQTT_OK/GD32VW55X_Wifi_BLE_SDK/GD32VW55x_RELEASE_V1.0.2/MSDK/cloud/alicloud/src/services/dev_bind\awss_notify.c ****             awss_err("payload invalid , len =%d", len);
 128              		.loc 1 142 9
 142:C:/Users/stapi/OneDrive/Desktop/GD32VW553/V1_MQTT_OK/GD32VW55X_Wifi_BLE_SDK/GD32VW55x_RELEASE_V1.0.2/MSDK/cloud/alicloud/src/services/dev_bind\awss_notify.c ****             awss_err("payload invalid , len =%d", len);
 129              		.loc 1 142 24 is_stmt 0
 130 0068 97000000 		call	awss_cmp_get_coap_payload
 130      E7800000 
 131              	.LVL12:
 132 0070 2A84     		mv	s0,a0
 133              	.LVL13:
 142:C:/Users/stapi/OneDrive/Desktop/GD32VW553/V1_MQTT_OK/GD32VW55X_Wifi_BLE_SDK/GD32VW55x_RELEASE_V1.0.2/MSDK/cloud/alicloud/src/services/dev_bind\awss_notify.c ****             awss_err("payload invalid , len =%d", len);
 134              		.loc 1 142 12
 135 0072 19C5     		beq	a0,zero,.L5
 142:C:/Users/stapi/OneDrive/Desktop/GD32VW553/V1_MQTT_OK/GD32VW55X_Wifi_BLE_SDK/GD32VW55x_RELEASE_V1.0.2/MSDK/cloud/alicloud/src/services/dev_bind\awss_notify.c ****             awss_err("payload invalid , len =%d", len);
 136              		.loc 1 142 81 discriminator 1
 137 0074 E247     		lw	a5,24(sp)
 142:C:/Users/stapi/OneDrive/Desktop/GD32VW553/V1_MQTT_OK/GD32VW55X_Wifi_BLE_SDK/GD32VW55x_RELEASE_V1.0.2/MSDK/cloud/alicloud/src/services/dev_bind\awss_notify.c ****             awss_err("payload invalid , len =%d", len);
 138              		.loc 1 142 74 discriminator 1
 139 0076 13070004 		li	a4,64
 140 007a 6343F700 		bgt	a5,a4,.L5
 142:C:/Users/stapi/OneDrive/Desktop/GD32VW553/V1_MQTT_OK/GD32VW55X_Wifi_BLE_SDK/GD32VW55x_RELEASE_V1.0.2/MSDK/cloud/alicloud/src/services/dev_bind\awss_notify.c ****             awss_err("payload invalid , len =%d", len);
 141              		.loc 1 142 88 discriminator 2
 142 007e 9DE3     		bne	a5,zero,.L6
 143              	.L5:
 143:C:/Users/stapi/OneDrive/Desktop/GD32VW553/V1_MQTT_OK/GD32VW55X_Wifi_BLE_SDK/GD32VW55x_RELEASE_V1.0.2/MSDK/cloud/alicloud/src/services/dev_bind\awss_notify.c ****             return STATE_WIFI_COAP_RSP_INVALID;
 144              		.loc 1 143 13 is_stmt 1
 143:C:/Users/stapi/OneDrive/Desktop/GD32VW553/V1_MQTT_OK/GD32VW55X_Wifi_BLE_SDK/GD32VW55x_RELEASE_V1.0.2/MSDK/cloud/alicloud/src/services/dev_bind\awss_notify.c ****             return STATE_WIFI_COAP_RSP_INVALID;
 145              		.loc 1 143 13
 146 0080 37050000 		lui	a0,%hi(.LC2)
 147 0084 13050500 		addi	a0,a0,%lo(.LC2)
 148 0088 97000000 		call	HAL_Printf
 148      E7800000 
 149              	.LVL14:
 143:C:/Users/stapi/OneDrive/Desktop/GD32VW553/V1_MQTT_OK/GD32VW55X_Wifi_BLE_SDK/GD32VW55x_RELEASE_V1.0.2/MSDK/cloud/alicloud/src/services/dev_bind\awss_notify.c ****             return STATE_WIFI_COAP_RSP_INVALID;
 150              		.loc 1 143 13
 151 0090 E245     		lw	a1,24(sp)
 152 0092 37050000 		lui	a0,%hi(.LC3)
 153 0096 13050500 		addi	a0,a0,%lo(.LC3)
 154              	.LVL15:
 155              	.L18:
 145:C:/Users/stapi/OneDrive/Desktop/GD32VW553/V1_MQTT_OK/GD32VW55X_Wifi_BLE_SDK/GD32VW55x_RELEASE_V1.0.2/MSDK/cloud/alicloud/src/services/dev_bind\awss_notify.c ****         }
 146:C:/Users/stapi/OneDrive/Desktop/GD32VW553/V1_MQTT_OK/GD32VW55X_Wifi_BLE_SDK/GD32VW55x_RELEASE_V1.0.2/MSDK/cloud/alicloud/src/services/dev_bind\awss_notify.c **** 
 147:C:/Users/stapi/OneDrive/Desktop/GD32VW553/V1_MQTT_OK/GD32VW55X_Wifi_BLE_SDK/GD32VW55x_RELEASE_V1.0.2/MSDK/cloud/alicloud/src/services/dev_bind\awss_notify.c ****         awss_debug("payload:%s\r\n", payload);
 148:C:/Users/stapi/OneDrive/Desktop/GD32VW553/V1_MQTT_OK/GD32VW55X_Wifi_BLE_SDK/GD32VW55x_RELEASE_V1.0.2/MSDK/cloud/alicloud/src/services/dev_bind\awss_notify.c **** 
 149:C:/Users/stapi/OneDrive/Desktop/GD32VW553/V1_MQTT_OK/GD32VW55X_Wifi_BLE_SDK/GD32VW55x_RELEASE_V1.0.2/MSDK/cloud/alicloud/src/services/dev_bind\awss_notify.c ****         elem = json_get_value_by_name(payload, len, AWSS_JSON_ID, &mlen, 0);
 150:C:/Users/stapi/OneDrive/Desktop/GD32VW553/V1_MQTT_OK/GD32VW55X_Wifi_BLE_SDK/GD32VW55x_RELEASE_V1.0.2/MSDK/cloud/alicloud/src/services/dev_bind\awss_notify.c ****         if (elem == NULL) {
 151:C:/Users/stapi/OneDrive/Desktop/GD32VW553/V1_MQTT_OK/GD32VW55X_Wifi_BLE_SDK/GD32VW55x_RELEASE_V1.0.2/MSDK/cloud/alicloud/src/services/dev_bind\awss_notify.c ****             awss_err("no id in payload");
 152:C:/Users/stapi/OneDrive/Desktop/GD32VW553/V1_MQTT_OK/GD32VW55X_Wifi_BLE_SDK/GD32VW55x_RELEASE_V1.0.2/MSDK/cloud/alicloud/src/services/dev_bind\awss_notify.c ****             return STATE_WIFI_COAP_RSP_INVALID;
 153:C:/Users/stapi/OneDrive/Desktop/GD32VW553/V1_MQTT_OK/GD32VW55X_Wifi_BLE_SDK/GD32VW55x_RELEASE_V1.0.2/MSDK/cloud/alicloud/src/services/dev_bind\awss_notify.c ****         }
 154:C:/Users/stapi/OneDrive/Desktop/GD32VW553/V1_MQTT_OK/GD32VW55X_Wifi_BLE_SDK/GD32VW55x_RELEASE_V1.0.2/MSDK/cloud/alicloud/src/services/dev_bind\awss_notify.c **** 
 155:C:/Users/stapi/OneDrive/Desktop/GD32VW553/V1_MQTT_OK/GD32VW55X_Wifi_BLE_SDK/GD32VW55x_RELEASE_V1.0.2/MSDK/cloud/alicloud/src/services/dev_bind\awss_notify.c ****         val = atoi(elem);
 156:C:/Users/stapi/OneDrive/Desktop/GD32VW553/V1_MQTT_OK/GD32VW55X_Wifi_BLE_SDK/GD32VW55x_RELEASE_V1.0.2/MSDK/cloud/alicloud/src/services/dev_bind\awss_notify.c ****         if (val != 123 && val > g_notify_id) {
 157:C:/Users/stapi/OneDrive/Desktop/GD32VW553/V1_MQTT_OK/GD32VW55X_Wifi_BLE_SDK/GD32VW55x_RELEASE_V1.0.2/MSDK/cloud/alicloud/src/services/dev_bind\awss_notify.c ****             return STATE_WIFI_COAP_RSP_INVALID;
 158:C:/Users/stapi/OneDrive/Desktop/GD32VW553/V1_MQTT_OK/GD32VW55X_Wifi_BLE_SDK/GD32VW55x_RELEASE_V1.0.2/MSDK/cloud/alicloud/src/services/dev_bind\awss_notify.c ****         }
 159:C:/Users/stapi/OneDrive/Desktop/GD32VW553/V1_MQTT_OK/GD32VW55X_Wifi_BLE_SDK/GD32VW55x_RELEASE_V1.0.2/MSDK/cloud/alicloud/src/services/dev_bind\awss_notify.c **** 
 160:C:/Users/stapi/OneDrive/Desktop/GD32VW553/V1_MQTT_OK/GD32VW55X_Wifi_BLE_SDK/GD32VW55x_RELEASE_V1.0.2/MSDK/cloud/alicloud/src/services/dev_bind\awss_notify.c ****         elem = json_get_value_by_name(payload, len, AWSS_JSON_CODE, &mlen, 0);
 161:C:/Users/stapi/OneDrive/Desktop/GD32VW553/V1_MQTT_OK/GD32VW55X_Wifi_BLE_SDK/GD32VW55x_RELEASE_V1.0.2/MSDK/cloud/alicloud/src/services/dev_bind\awss_notify.c ****         if (elem == NULL) {
 162:C:/Users/stapi/OneDrive/Desktop/GD32VW553/V1_MQTT_OK/GD32VW55X_Wifi_BLE_SDK/GD32VW55x_RELEASE_V1.0.2/MSDK/cloud/alicloud/src/services/dev_bind\awss_notify.c ****             awss_err("no code in payload");
 163:C:/Users/stapi/OneDrive/Desktop/GD32VW553/V1_MQTT_OK/GD32VW55X_Wifi_BLE_SDK/GD32VW55x_RELEASE_V1.0.2/MSDK/cloud/alicloud/src/services/dev_bind\awss_notify.c ****             return STATE_WIFI_COAP_RSP_INVALID;
 164:C:/Users/stapi/OneDrive/Desktop/GD32VW553/V1_MQTT_OK/GD32VW55X_Wifi_BLE_SDK/GD32VW55x_RELEASE_V1.0.2/MSDK/cloud/alicloud/src/services/dev_bind\awss_notify.c ****         }
 165:C:/Users/stapi/OneDrive/Desktop/GD32VW553/V1_MQTT_OK/GD32VW55X_Wifi_BLE_SDK/GD32VW55x_RELEASE_V1.0.2/MSDK/cloud/alicloud/src/services/dev_bind\awss_notify.c **** 
 166:C:/Users/stapi/OneDrive/Desktop/GD32VW553/V1_MQTT_OK/GD32VW55X_Wifi_BLE_SDK/GD32VW55x_RELEASE_V1.0.2/MSDK/cloud/alicloud/src/services/dev_bind\awss_notify.c ****         val = atoi(elem);
 167:C:/Users/stapi/OneDrive/Desktop/GD32VW553/V1_MQTT_OK/GD32VW55X_Wifi_BLE_SDK/GD32VW55x_RELEASE_V1.0.2/MSDK/cloud/alicloud/src/services/dev_bind\awss_notify.c ****         if (val != 200) {
 168:C:/Users/stapi/OneDrive/Desktop/GD32VW553/V1_MQTT_OK/GD32VW55X_Wifi_BLE_SDK/GD32VW55x_RELEASE_V1.0.2/MSDK/cloud/alicloud/src/services/dev_bind\awss_notify.c ****             awss_err("code = %s", val);
 156              		.loc 1 168 13 is_stmt 0
 157 009a 97000000 		call	HAL_Printf
 157      E7800000 
 158              	.LVL16:
 159              		.loc 1 168 13 is_stmt 1
 160 00a2 B1A8     		j	.L16
 161              	.LVL17:
 162              	.L6:
 147:C:/Users/stapi/OneDrive/Desktop/GD32VW553/V1_MQTT_OK/GD32VW55X_Wifi_BLE_SDK/GD32VW55x_RELEASE_V1.0.2/MSDK/cloud/alicloud/src/services/dev_bind\awss_notify.c **** 
 163              		.loc 1 147 9
 164 00a4 37070000 		lui	a4,%hi(.LC5)
 165 00a8 AA87     		mv	a5,a0
 166 00aa 13070700 		addi	a4,a4,%lo(.LC5)
 167 00ae 9546     		li	a3,5
 168 00b0 13063009 		li	a2,147
 169 00b4 93050A00 		addi	a1,s4,%lo(.LANCHOR1)
 170 00b8 13850900 		addi	a0,s3,%lo(.LC1)
 171 00bc 97000000 		call	LITE_syslog
 171      E7800000 
 172              	.LVL18:
 149:C:/Users/stapi/OneDrive/Desktop/GD32VW553/V1_MQTT_OK/GD32VW55X_Wifi_BLE_SDK/GD32VW55x_RELEASE_V1.0.2/MSDK/cloud/alicloud/src/services/dev_bind\awss_notify.c ****         if (elem == NULL) {
 173              		.loc 1 149 9
 149:C:/Users/stapi/OneDrive/Desktop/GD32VW553/V1_MQTT_OK/GD32VW55X_Wifi_BLE_SDK/GD32VW55x_RELEASE_V1.0.2/MSDK/cloud/alicloud/src/services/dev_bind\awss_notify.c ****         if (elem == NULL) {
 174              		.loc 1 149 16 is_stmt 0
 175 00c4 E245     		lw	a1,24(sp)
 176 00c6 37060000 		lui	a2,%hi(.LC6)
 177 00ca 0147     		li	a4,0
 178 00cc 7408     		addi	a3,sp,28
 179 00ce 13060600 		addi	a2,a2,%lo(.LC6)
 180 00d2 2285     		mv	a0,s0
 181 00d4 97000000 		call	json_get_value_by_name
 181      E7800000 
 182              	.LVL19:
 150:C:/Users/stapi/OneDrive/Desktop/GD32VW553/V1_MQTT_OK/GD32VW55X_Wifi_BLE_SDK/GD32VW55x_RELEASE_V1.0.2/MSDK/cloud/alicloud/src/services/dev_bind\awss_notify.c ****             awss_err("no id in payload");
 183              		.loc 1 150 9 is_stmt 1
 150:C:/Users/stapi/OneDrive/Desktop/GD32VW553/V1_MQTT_OK/GD32VW55X_Wifi_BLE_SDK/GD32VW55x_RELEASE_V1.0.2/MSDK/cloud/alicloud/src/services/dev_bind\awss_notify.c ****             awss_err("no id in payload");
 184              		.loc 1 150 12 is_stmt 0
 185 00dc 15E9     		bne	a0,zero,.L8
 151:C:/Users/stapi/OneDrive/Desktop/GD32VW553/V1_MQTT_OK/GD32VW55X_Wifi_BLE_SDK/GD32VW55x_RELEASE_V1.0.2/MSDK/cloud/alicloud/src/services/dev_bind\awss_notify.c ****             return STATE_WIFI_COAP_RSP_INVALID;
 186              		.loc 1 151 13 is_stmt 1
 151:C:/Users/stapi/OneDrive/Desktop/GD32VW553/V1_MQTT_OK/GD32VW55X_Wifi_BLE_SDK/GD32VW55x_RELEASE_V1.0.2/MSDK/cloud/alicloud/src/services/dev_bind\awss_notify.c ****             return STATE_WIFI_COAP_RSP_INVALID;
 187              		.loc 1 151 13
 188 00de 37050000 		lui	a0,%hi(.LC2)
 189              	.LVL20:
 190 00e2 13050500 		addi	a0,a0,%lo(.LC2)
 191 00e6 97000000 		call	HAL_Printf
 191      E7800000 
 192              	.LVL21:
 151:C:/Users/stapi/OneDrive/Desktop/GD32VW553/V1_MQTT_OK/GD32VW55X_Wifi_BLE_SDK/GD32VW55x_RELEASE_V1.0.2/MSDK/cloud/alicloud/src/services/dev_bind\awss_notify.c ****             return STATE_WIFI_COAP_RSP_INVALID;
 193              		.loc 1 151 13
 194 00ee 37050000 		lui	a0,%hi(.LC7)
 195 00f2 13050500 		addi	a0,a0,%lo(.LC7)
 196              	.LVL22:
 197              	.L17:
 162:C:/Users/stapi/OneDrive/Desktop/GD32VW553/V1_MQTT_OK/GD32VW55X_Wifi_BLE_SDK/GD32VW55x_RELEASE_V1.0.2/MSDK/cloud/alicloud/src/services/dev_bind\awss_notify.c ****             return STATE_WIFI_COAP_RSP_INVALID;
 198              		.loc 1 162 13 is_stmt 0
 199 00f6 97000000 		call	HAL_Printf
 199      E7800000 
 200              	.LVL23:
 201              	.L16:
 162:C:/Users/stapi/OneDrive/Desktop/GD32VW553/V1_MQTT_OK/GD32VW55X_Wifi_BLE_SDK/GD32VW55x_RELEASE_V1.0.2/MSDK/cloud/alicloud/src/services/dev_bind\awss_notify.c ****             return STATE_WIFI_COAP_RSP_INVALID;
 202              		.loc 1 162 13 is_stmt 1
 203 00fe 37050000 		lui	a0,%hi(.LC4)
 204 0102 13050500 		addi	a0,a0,%lo(.LC4)
 205 0106 97000000 		call	HAL_Printf
 205      E7800000 
 206              	.LVL24:
 162:C:/Users/stapi/OneDrive/Desktop/GD32VW553/V1_MQTT_OK/GD32VW55X_Wifi_BLE_SDK/GD32VW55x_RELEASE_V1.0.2/MSDK/cloud/alicloud/src/services/dev_bind\awss_notify.c ****             return STATE_WIFI_COAP_RSP_INVALID;
 207              		.loc 1 162 13
 163:C:/Users/stapi/OneDrive/Desktop/GD32VW553/V1_MQTT_OK/GD32VW55X_Wifi_BLE_SDK/GD32VW55x_RELEASE_V1.0.2/MSDK/cloud/alicloud/src/services/dev_bind\awss_notify.c ****         }
 208              		.loc 1 163 13
 163:C:/Users/stapi/OneDrive/Desktop/GD32VW553/V1_MQTT_OK/GD32VW55X_Wifi_BLE_SDK/GD32VW55x_RELEASE_V1.0.2/MSDK/cloud/alicloud/src/services/dev_bind\awss_notify.c ****         }
 209              		.loc 1 163 20 is_stmt 0
 210 010e 1DBF     		j	.L7
 211              	.LVL25:
 212              	.L8:
 155:C:/Users/stapi/OneDrive/Desktop/GD32VW553/V1_MQTT_OK/GD32VW55X_Wifi_BLE_SDK/GD32VW55x_RELEASE_V1.0.2/MSDK/cloud/alicloud/src/services/dev_bind\awss_notify.c ****         if (val != 123 && val > g_notify_id) {
 213              		.loc 1 155 9 is_stmt 1
 155:C:/Users/stapi/OneDrive/Desktop/GD32VW553/V1_MQTT_OK/GD32VW55X_Wifi_BLE_SDK/GD32VW55x_RELEASE_V1.0.2/MSDK/cloud/alicloud/src/services/dev_bind\awss_notify.c ****         if (val != 123 && val > g_notify_id) {
 214              		.loc 1 155 15 is_stmt 0
 215 0110 97000000 		call	atoi
 215      E7800000 
 216              	.LVL26:
 156:C:/Users/stapi/OneDrive/Desktop/GD32VW553/V1_MQTT_OK/GD32VW55X_Wifi_BLE_SDK/GD32VW55x_RELEASE_V1.0.2/MSDK/cloud/alicloud/src/services/dev_bind\awss_notify.c ****             return STATE_WIFI_COAP_RSP_INVALID;
 217              		.loc 1 156 9 is_stmt 1
 156:C:/Users/stapi/OneDrive/Desktop/GD32VW553/V1_MQTT_OK/GD32VW55X_Wifi_BLE_SDK/GD32VW55x_RELEASE_V1.0.2/MSDK/cloud/alicloud/src/services/dev_bind\awss_notify.c ****             return STATE_WIFI_COAP_RSP_INVALID;
 218              		.loc 1 156 12 is_stmt 0
 219 0118 9307B007 		li	a5,123
 220 011c 6308F500 		beq	a0,a5,.L9
 156:C:/Users/stapi/OneDrive/Desktop/GD32VW553/V1_MQTT_OK/GD32VW55X_Wifi_BLE_SDK/GD32VW55x_RELEASE_V1.0.2/MSDK/cloud/alicloud/src/services/dev_bind\awss_notify.c ****             return STATE_WIFI_COAP_RSP_INVALID;
 221              		.loc 1 156 31 discriminator 1
 222 0120 B7070000 		lui	a5,%hi(.LANCHOR2)
 223 0124 83C70700 		lbu	a5,%lo(.LANCHOR2)(a5)
 156:C:/Users/stapi/OneDrive/Desktop/GD32VW553/V1_MQTT_OK/GD32VW55X_Wifi_BLE_SDK/GD32VW55x_RELEASE_V1.0.2/MSDK/cloud/alicloud/src/services/dev_bind\awss_notify.c ****             return STATE_WIFI_COAP_RSP_INVALID;
 224              		.loc 1 156 24 discriminator 1
 225 0128 E3CEA7F0 		blt	a5,a0,.L7
 226              	.L9:
 160:C:/Users/stapi/OneDrive/Desktop/GD32VW553/V1_MQTT_OK/GD32VW55X_Wifi_BLE_SDK/GD32VW55x_RELEASE_V1.0.2/MSDK/cloud/alicloud/src/services/dev_bind\awss_notify.c ****         if (elem == NULL) {
 227              		.loc 1 160 9 is_stmt 1
 160:C:/Users/stapi/OneDrive/Desktop/GD32VW553/V1_MQTT_OK/GD32VW55X_Wifi_BLE_SDK/GD32VW55x_RELEASE_V1.0.2/MSDK/cloud/alicloud/src/services/dev_bind\awss_notify.c ****         if (elem == NULL) {
 228              		.loc 1 160 16 is_stmt 0
 229 012c E245     		lw	a1,24(sp)
 230 012e 37060000 		lui	a2,%hi(.LC8)
 231 0132 0147     		li	a4,0
 232 0134 7408     		addi	a3,sp,28
 233 0136 13060600 		addi	a2,a2,%lo(.LC8)
 234 013a 2285     		mv	a0,s0
 235              	.LVL27:
 236 013c 97000000 		call	json_get_value_by_name
 236      E7800000 
 237              	.LVL28:
 161:C:/Users/stapi/OneDrive/Desktop/GD32VW553/V1_MQTT_OK/GD32VW55X_Wifi_BLE_SDK/GD32VW55x_RELEASE_V1.0.2/MSDK/cloud/alicloud/src/services/dev_bind\awss_notify.c ****             awss_err("no code in payload");
 238              		.loc 1 161 9 is_stmt 1
 161:C:/Users/stapi/OneDrive/Desktop/GD32VW553/V1_MQTT_OK/GD32VW55X_Wifi_BLE_SDK/GD32VW55x_RELEASE_V1.0.2/MSDK/cloud/alicloud/src/services/dev_bind\awss_notify.c ****             awss_err("no code in payload");
 239              		.loc 1 161 12 is_stmt 0
 240 0144 11ED     		bne	a0,zero,.L10
 162:C:/Users/stapi/OneDrive/Desktop/GD32VW553/V1_MQTT_OK/GD32VW55X_Wifi_BLE_SDK/GD32VW55x_RELEASE_V1.0.2/MSDK/cloud/alicloud/src/services/dev_bind\awss_notify.c ****             return STATE_WIFI_COAP_RSP_INVALID;
 241              		.loc 1 162 13 is_stmt 1
 162:C:/Users/stapi/OneDrive/Desktop/GD32VW553/V1_MQTT_OK/GD32VW55X_Wifi_BLE_SDK/GD32VW55x_RELEASE_V1.0.2/MSDK/cloud/alicloud/src/services/dev_bind\awss_notify.c ****             return STATE_WIFI_COAP_RSP_INVALID;
 242              		.loc 1 162 13
 243 0146 37050000 		lui	a0,%hi(.LC2)
 244              	.LVL29:
 245 014a 13050500 		addi	a0,a0,%lo(.LC2)
 246 014e 97000000 		call	HAL_Printf
 246      E7800000 
 247              	.LVL30:
 162:C:/Users/stapi/OneDrive/Desktop/GD32VW553/V1_MQTT_OK/GD32VW55X_Wifi_BLE_SDK/GD32VW55x_RELEASE_V1.0.2/MSDK/cloud/alicloud/src/services/dev_bind\awss_notify.c ****             return STATE_WIFI_COAP_RSP_INVALID;
 248              		.loc 1 162 13
 249 0156 37050000 		lui	a0,%hi(.LC9)
 250 015a 13050500 		addi	a0,a0,%lo(.LC9)
 251 015e 61BF     		j	.L17
 252              	.LVL31:
 253              	.L10:
 166:C:/Users/stapi/OneDrive/Desktop/GD32VW553/V1_MQTT_OK/GD32VW55X_Wifi_BLE_SDK/GD32VW55x_RELEASE_V1.0.2/MSDK/cloud/alicloud/src/services/dev_bind\awss_notify.c ****         if (val != 200) {
 254              		.loc 1 166 9
 166:C:/Users/stapi/OneDrive/Desktop/GD32VW553/V1_MQTT_OK/GD32VW55X_Wifi_BLE_SDK/GD32VW55x_RELEASE_V1.0.2/MSDK/cloud/alicloud/src/services/dev_bind\awss_notify.c ****         if (val != 200) {
 255              		.loc 1 166 15 is_stmt 0
 256 0160 97000000 		call	atoi
 256      E7800000 
 257              	.LVL32:
 167:C:/Users/stapi/OneDrive/Desktop/GD32VW553/V1_MQTT_OK/GD32VW55X_Wifi_BLE_SDK/GD32VW55x_RELEASE_V1.0.2/MSDK/cloud/alicloud/src/services/dev_bind\awss_notify.c ****             awss_err("code = %s", val);
 258              		.loc 1 167 9 is_stmt 1
 167:C:/Users/stapi/OneDrive/Desktop/GD32VW553/V1_MQTT_OK/GD32VW55X_Wifi_BLE_SDK/GD32VW55x_RELEASE_V1.0.2/MSDK/cloud/alicloud/src/services/dev_bind\awss_notify.c ****             awss_err("code = %s", val);
 259              		.loc 1 167 12 is_stmt 0
 260 0168 9307800C 		li	a5,200
 261 016c 6301F502 		beq	a0,a5,.L11
 262 0170 2AC6     		sw	a0,12(sp)
 263              		.loc 1 168 13 is_stmt 1
 264              		.loc 1 168 13
 265 0172 37050000 		lui	a0,%hi(.LC2)
 266              	.LVL33:
 267 0176 13050500 		addi	a0,a0,%lo(.LC2)
 268 017a 97000000 		call	HAL_Printf
 268      E7800000 
 269              	.LVL34:
 270              		.loc 1 168 13
 271 0182 37050000 		lui	a0,%hi(.LC10)
 272 0186 B245     		lw	a1,12(sp)
 273 0188 13050500 		addi	a0,a0,%lo(.LC10)
 274 018c 39B7     		j	.L18
 275              	.LVL35:
 276              	.L11:
 277              	.LBE25:
 169:C:/Users/stapi/OneDrive/Desktop/GD32VW553/V1_MQTT_OK/GD32VW55X_Wifi_BLE_SDK/GD32VW55x_RELEASE_V1.0.2/MSDK/cloud/alicloud/src/services/dev_bind\awss_notify.c ****             return STATE_WIFI_COAP_RSP_INVALID;
 170:C:/Users/stapi/OneDrive/Desktop/GD32VW553/V1_MQTT_OK/GD32VW55X_Wifi_BLE_SDK/GD32VW55x_RELEASE_V1.0.2/MSDK/cloud/alicloud/src/services/dev_bind\awss_notify.c ****         }
 171:C:/Users/stapi/OneDrive/Desktop/GD32VW553/V1_MQTT_OK/GD32VW55X_Wifi_BLE_SDK/GD32VW55x_RELEASE_V1.0.2/MSDK/cloud/alicloud/src/services/dev_bind\awss_notify.c ****     } while (0);
 278              		.loc 1 171 13
 172:C:/Users/stapi/OneDrive/Desktop/GD32VW553/V1_MQTT_OK/GD32VW55X_Wifi_BLE_SDK/GD32VW55x_RELEASE_V1.0.2/MSDK/cloud/alicloud/src/services/dev_bind\awss_notify.c **** 
 173:C:/Users/stapi/OneDrive/Desktop/GD32VW553/V1_MQTT_OK/GD32VW55X_Wifi_BLE_SDK/GD32VW55x_RELEASE_V1.0.2/MSDK/cloud/alicloud/src/services/dev_bind\awss_notify.c ****     for (i = 0; i < sizeof(notify_map) / sizeof(notify_map[0]); i ++) {
 279              		.loc 1 173 5
 280              		.loc 1 173 17
 174:C:/Users/stapi/OneDrive/Desktop/GD32VW553/V1_MQTT_OK/GD32VW55X_Wifi_BLE_SDK/GD32VW55x_RELEASE_V1.0.2/MSDK/cloud/alicloud/src/services/dev_bind\awss_notify.c ****         if (notify_map[i].notify_type != type) {
 281              		.loc 1 174 9
 175:C:/Users/stapi/OneDrive/Desktop/GD32VW553/V1_MQTT_OK/GD32VW55X_Wifi_BLE_SDK/GD32VW55x_RELEASE_V1.0.2/MSDK/cloud/alicloud/src/services/dev_bind\awss_notify.c ****             continue;
 176:C:/Users/stapi/OneDrive/Desktop/GD32VW553/V1_MQTT_OK/GD32VW55X_Wifi_BLE_SDK/GD32VW55x_RELEASE_V1.0.2/MSDK/cloud/alicloud/src/services/dev_bind\awss_notify.c ****         }
 177:C:/Users/stapi/OneDrive/Desktop/GD32VW553/V1_MQTT_OK/GD32VW55X_Wifi_BLE_SDK/GD32VW55x_RELEASE_V1.0.2/MSDK/cloud/alicloud/src/services/dev_bind\awss_notify.c **** 
 178:C:/Users/stapi/OneDrive/Desktop/GD32VW553/V1_MQTT_OK/GD32VW55X_Wifi_BLE_SDK/GD32VW55x_RELEASE_V1.0.2/MSDK/cloud/alicloud/src/services/dev_bind\awss_notify.c ****         awss_notify_resp[type] = 1;
 282              		.loc 1 178 9
 283              		.loc 1 178 32 is_stmt 0
 284 018e B7070000 		lui	a5,%hi(.LANCHOR3)
 285 0192 93870700 		addi	a5,a5,%lo(.LANCHOR3)
 286 0196 33859700 		add	a0,a5,s1
 287              	.LVL36:
 288 019a 8547     		li	a5,1
 289 019c 2300F500 		sb	a5,0(a0)
 179:C:/Users/stapi/OneDrive/Desktop/GD32VW553/V1_MQTT_OK/GD32VW55X_Wifi_BLE_SDK/GD32VW55x_RELEASE_V1.0.2/MSDK/cloud/alicloud/src/services/dev_bind\awss_notify.c ****         break;
 290              		.loc 1 179 9 is_stmt 1
 180:C:/Users/stapi/OneDrive/Desktop/GD32VW553/V1_MQTT_OK/GD32VW55X_Wifi_BLE_SDK/GD32VW55x_RELEASE_V1.0.2/MSDK/cloud/alicloud/src/services/dev_bind\awss_notify.c ****     }
 181:C:/Users/stapi/OneDrive/Desktop/GD32VW553/V1_MQTT_OK/GD32VW55X_Wifi_BLE_SDK/GD32VW55x_RELEASE_V1.0.2/MSDK/cloud/alicloud/src/services/dev_bind\awss_notify.c **** 
 182:C:/Users/stapi/OneDrive/Desktop/GD32VW553/V1_MQTT_OK/GD32VW55X_Wifi_BLE_SDK/GD32VW55x_RELEASE_V1.0.2/MSDK/cloud/alicloud/src/services/dev_bind\awss_notify.c ****     return awss_notify_resp[type];
 291              		.loc 1 182 5
 292              		.loc 1 182 28 is_stmt 0
 293 01a0 0545     		li	a0,1
 294              	.LVL37:
 295              	.L1:
 183:C:/Users/stapi/OneDrive/Desktop/GD32VW553/V1_MQTT_OK/GD32VW55X_Wifi_BLE_SDK/GD32VW55x_RELEASE_V1.0.2/MSDK/cloud/alicloud/src/services/dev_bind\awss_notify.c **** }
 296              		.loc 1 183 1
 297 01a2 0561     		addi	sp,sp,32
 298              		.cfi_def_cfa_offset 0
 299 01a4 17030000 		tail	__riscv_restore_5
 299      67000300 
 300              		.cfi_restore 20
 301              		.cfi_restore 19
 302              		.cfi_restore 18
 303              		.cfi_restore 9
 304              		.cfi_restore 8
 305              		.cfi_restore 1
 306              		.cfi_def_cfa_offset -32
 307              		.cfi_endproc
 308              	.LFE67:
 310              		.section	.text.awss_suc_notify_resp,"ax",@progbits
 311              		.align	1
 313              	awss_suc_notify_resp:
 314              	.LFB66:
 110:C:/Users/stapi/OneDrive/Desktop/GD32VW553/V1_MQTT_OK/GD32VW55X_Wifi_BLE_SDK/GD32VW55x_RELEASE_V1.0.2/MSDK/cloud/alicloud/src/services/dev_bind\awss_notify.c ****     return awss_notify_response(AWSS_NOTIFY_SUCCESS, result, message);
 315              		.loc 1 110 1 is_stmt 1
 316              		.cfi_startproc
 317              	.LVL38:
 111:C:/Users/stapi/OneDrive/Desktop/GD32VW553/V1_MQTT_OK/GD32VW55X_Wifi_BLE_SDK/GD32VW55x_RELEASE_V1.0.2/MSDK/cloud/alicloud/src/services/dev_bind\awss_notify.c **** }
 318              		.loc 1 111 5
 111:C:/Users/stapi/OneDrive/Desktop/GD32VW553/V1_MQTT_OK/GD32VW55X_Wifi_BLE_SDK/GD32VW55x_RELEASE_V1.0.2/MSDK/cloud/alicloud/src/services/dev_bind\awss_notify.c **** }
 319              		.loc 1 111 12 is_stmt 0
 320 0000 3A86     		mv	a2,a4
 321              	.LVL39:
 322 0002 0D45     		li	a0,3
 323              	.LVL40:
 324 0004 17030000 		tail	awss_notify_response
 324      67000300 
 325              	.LVL41:
 326              		.cfi_endproc
 327              	.LFE66:
 329              		.section	.text.awss_devinfo_notify_resp,"ax",@progbits
 330              		.align	1
 332              	awss_devinfo_notify_resp:
 333              	.LFB65:
 103:C:/Users/stapi/OneDrive/Desktop/GD32VW553/V1_MQTT_OK/GD32VW55X_Wifi_BLE_SDK/GD32VW55x_RELEASE_V1.0.2/MSDK/cloud/alicloud/src/services/dev_bind\awss_notify.c ****     return awss_notify_response(AWSS_NOTIFY_DEV_RAND_SIGN, result, message);
 334              		.loc 1 103 1 is_stmt 1
 335              		.cfi_startproc
 336              	.LVL42:
 104:C:/Users/stapi/OneDrive/Desktop/GD32VW553/V1_MQTT_OK/GD32VW55X_Wifi_BLE_SDK/GD32VW55x_RELEASE_V1.0.2/MSDK/cloud/alicloud/src/services/dev_bind\awss_notify.c **** }
 337              		.loc 1 104 5
 104:C:/Users/stapi/OneDrive/Desktop/GD32VW553/V1_MQTT_OK/GD32VW55X_Wifi_BLE_SDK/GD32VW55x_RELEASE_V1.0.2/MSDK/cloud/alicloud/src/services/dev_bind\awss_notify.c **** }
 338              		.loc 1 104 12 is_stmt 0
 339 0000 3A86     		mv	a2,a4
 340              	.LVL43:
 341 0002 0945     		li	a0,2
 342              	.LVL44:
 343 0004 17030000 		tail	awss_notify_response
 343      67000300 
 344              	.LVL45:
 345              		.cfi_endproc
 346              	.LFE65:
 348              		.section	.text.awss_dev_bind_notify_resp,"ax",@progbits
 349              		.align	1
 351              	awss_dev_bind_notify_resp:
 352              	.LFB64:
  88:C:/Users/stapi/OneDrive/Desktop/GD32VW553/V1_MQTT_OK/GD32VW55X_Wifi_BLE_SDK/GD32VW55x_RELEASE_V1.0.2/MSDK/cloud/alicloud/src/services/dev_bind\awss_notify.c ****     int res = awss_notify_response(AWSS_NOTIFY_DEV_BIND_TOKEN, result, message);
 353              		.loc 1 88 1 is_stmt 1
 354              		.cfi_startproc
 355              	.LVL46:
 356 0000 17030000 		call	t0,__riscv_save_1
 356      E7020300 
 357              		.cfi_offset 8, -8
 358              		.cfi_offset 1, -4
 359              		.cfi_def_cfa_offset 16
  89:C:/Users/stapi/OneDrive/Desktop/GD32VW553/V1_MQTT_OK/GD32VW55X_Wifi_BLE_SDK/GD32VW55x_RELEASE_V1.0.2/MSDK/cloud/alicloud/src/services/dev_bind\awss_notify.c ****     if (res == 1) {
 360              		.loc 1 89 5
  89:C:/Users/stapi/OneDrive/Desktop/GD32VW553/V1_MQTT_OK/GD32VW55X_Wifi_BLE_SDK/GD32VW55x_RELEASE_V1.0.2/MSDK/cloud/alicloud/src/services/dev_bind\awss_notify.c ****     if (res == 1) {
 361              		.loc 1 89 15 is_stmt 0
 362 0008 3A86     		mv	a2,a4
 363              	.LVL47:
 364 000a 0545     		li	a0,1
 365              	.LVL48:
 366 000c 97000000 		call	awss_notify_response
 366      E7800000 
 367              	.LVL49:
  90:C:/Users/stapi/OneDrive/Desktop/GD32VW553/V1_MQTT_OK/GD32VW55X_Wifi_BLE_SDK/GD32VW55x_RELEASE_V1.0.2/MSDK/cloud/alicloud/src/services/dev_bind\awss_notify.c ****         awss_update_token();
 368              		.loc 1 90 8
 369 0014 8547     		li	a5,1
  89:C:/Users/stapi/OneDrive/Desktop/GD32VW553/V1_MQTT_OK/GD32VW55X_Wifi_BLE_SDK/GD32VW55x_RELEASE_V1.0.2/MSDK/cloud/alicloud/src/services/dev_bind\awss_notify.c ****     if (res == 1) {
 370              		.loc 1 89 15
 371 0016 2A84     		mv	s0,a0
 372              	.LVL50:
  90:C:/Users/stapi/OneDrive/Desktop/GD32VW553/V1_MQTT_OK/GD32VW55X_Wifi_BLE_SDK/GD32VW55x_RELEASE_V1.0.2/MSDK/cloud/alicloud/src/services/dev_bind\awss_notify.c ****         awss_update_token();
 373              		.loc 1 90 5 is_stmt 1
  90:C:/Users/stapi/OneDrive/Desktop/GD32VW553/V1_MQTT_OK/GD32VW55X_Wifi_BLE_SDK/GD32VW55x_RELEASE_V1.0.2/MSDK/cloud/alicloud/src/services/dev_bind\awss_notify.c ****         awss_update_token();
 374              		.loc 1 90 8 is_stmt 0
 375 0018 6316F500 		bne	a0,a5,.L23
  91:C:/Users/stapi/OneDrive/Desktop/GD32VW553/V1_MQTT_OK/GD32VW55X_Wifi_BLE_SDK/GD32VW55x_RELEASE_V1.0.2/MSDK/cloud/alicloud/src/services/dev_bind\awss_notify.c **** #ifdef DEV_BIND_TEST
 376              		.loc 1 91 9 is_stmt 1
 377 001c 97000000 		call	awss_update_token
 377      E7800000 
 378              	.LVL51:
  96:C:/Users/stapi/OneDrive/Desktop/GD32VW553/V1_MQTT_OK/GD32VW55X_Wifi_BLE_SDK/GD32VW55x_RELEASE_V1.0.2/MSDK/cloud/alicloud/src/services/dev_bind\awss_notify.c **** }
 379              		.loc 1 96 5
 380              	.L23:
  97:C:/Users/stapi/OneDrive/Desktop/GD32VW553/V1_MQTT_OK/GD32VW55X_Wifi_BLE_SDK/GD32VW55x_RELEASE_V1.0.2/MSDK/cloud/alicloud/src/services/dev_bind\awss_notify.c **** 
 381              		.loc 1 97 1 is_stmt 0
 382 0024 2285     		mv	a0,s0
 383 0026 17030000 		tail	__riscv_restore_1
 383      67000300 
 384              		.cfi_restore 8
 385              		.cfi_restore 1
 386              		.cfi_def_cfa_offset 0
 387              		.cfi_endproc
 388              	.LFE64:
 390              		.section	.rodata.online_get_device_info.constprop.0.str1.4,"aMS",@progbits,1
 391              		.align	2
 392              	.LC11:
 393 0000 72656376 		.string	"recv token query"
 393      20746F6B 
 393      656E2071 
 393      75657279 
 393      00
 394 0011 000000   		.align	2
 395              	.LC12:
 396 0014 6E656564 		.string	"need do reset"
 396      20646F20 
 396      72657365 
 396      7400
 397 0022 0000     		.align	2
 398              	.LC13:
 399 0024 72656376 		.string	"recv get dev info fail"
 399      20676574 
 399      20646576 
 399      20696E66 
 399      6F206661 
 400 003b 00       		.align	2
 401              	.LC14:
 402 003c 63707920 		.string	"cpy req ctx fail"
 402      72657120 
 402      63747820 
 402      6661696C 
 402      00
 403 004d 000000   		.align	2
 404              	.LC15:
 405 0050 6765745F 		.string	"get_devinfo"
 405      64657669 
 405      6E666F00 
 406              		.section	.text.online_get_device_info.constprop.0,"ax",@progbits
 407              		.align	1
 409              	online_get_device_info.constprop.0:
 410              	.LFB84:
 184:C:/Users/stapi/OneDrive/Desktop/GD32VW553/V1_MQTT_OK/GD32VW55X_Wifi_BLE_SDK/GD32VW55x_RELEASE_V1.0.2/MSDK/cloud/alicloud/src/services/dev_bind\awss_notify.c **** 
 185:C:/Users/stapi/OneDrive/Desktop/GD32VW553/V1_MQTT_OK/GD32VW55X_Wifi_BLE_SDK/GD32VW55x_RELEASE_V1.0.2/MSDK/cloud/alicloud/src/services/dev_bind\awss_notify.c **** int awss_notify_dev_info(int type, int count)
 186:C:/Users/stapi/OneDrive/Desktop/GD32VW553/V1_MQTT_OK/GD32VW55X_Wifi_BLE_SDK/GD32VW55x_RELEASE_V1.0.2/MSDK/cloud/alicloud/src/services/dev_bind\awss_notify.c **** {
 187:C:/Users/stapi/OneDrive/Desktop/GD32VW553/V1_MQTT_OK/GD32VW55X_Wifi_BLE_SDK/GD32VW55x_RELEASE_V1.0.2/MSDK/cloud/alicloud/src/services/dev_bind\awss_notify.c ****     char *buf = NULL;
 188:C:/Users/stapi/OneDrive/Desktop/GD32VW553/V1_MQTT_OK/GD32VW55X_Wifi_BLE_SDK/GD32VW55x_RELEASE_V1.0.2/MSDK/cloud/alicloud/src/services/dev_bind\awss_notify.c ****     char *dev_info = NULL;
 189:C:/Users/stapi/OneDrive/Desktop/GD32VW553/V1_MQTT_OK/GD32VW55X_Wifi_BLE_SDK/GD32VW55x_RELEASE_V1.0.2/MSDK/cloud/alicloud/src/services/dev_bind\awss_notify.c ****     int i;
 190:C:/Users/stapi/OneDrive/Desktop/GD32VW553/V1_MQTT_OK/GD32VW55X_Wifi_BLE_SDK/GD32VW55x_RELEASE_V1.0.2/MSDK/cloud/alicloud/src/services/dev_bind\awss_notify.c ****     platform_netaddr_t notify_sa;
 191:C:/Users/stapi/OneDrive/Desktop/GD32VW553/V1_MQTT_OK/GD32VW55X_Wifi_BLE_SDK/GD32VW55x_RELEASE_V1.0.2/MSDK/cloud/alicloud/src/services/dev_bind\awss_notify.c ****     memset(&notify_sa, 0, sizeof(notify_sa));
 192:C:/Users/stapi/OneDrive/Desktop/GD32VW553/V1_MQTT_OK/GD32VW55X_Wifi_BLE_SDK/GD32VW55x_RELEASE_V1.0.2/MSDK/cloud/alicloud/src/services/dev_bind\awss_notify.c **** 
 193:C:/Users/stapi/OneDrive/Desktop/GD32VW553/V1_MQTT_OK/GD32VW55X_Wifi_BLE_SDK/GD32VW55x_RELEASE_V1.0.2/MSDK/cloud/alicloud/src/services/dev_bind\awss_notify.c ****     do {
 194:C:/Users/stapi/OneDrive/Desktop/GD32VW553/V1_MQTT_OK/GD32VW55X_Wifi_BLE_SDK/GD32VW55x_RELEASE_V1.0.2/MSDK/cloud/alicloud/src/services/dev_bind\awss_notify.c ****         void *cb = NULL;
 195:C:/Users/stapi/OneDrive/Desktop/GD32VW553/V1_MQTT_OK/GD32VW55X_Wifi_BLE_SDK/GD32VW55x_RELEASE_V1.0.2/MSDK/cloud/alicloud/src/services/dev_bind\awss_notify.c ****         char *method = NULL, *topic = NULL;
 196:C:/Users/stapi/OneDrive/Desktop/GD32VW553/V1_MQTT_OK/GD32VW55X_Wifi_BLE_SDK/GD32VW55x_RELEASE_V1.0.2/MSDK/cloud/alicloud/src/services/dev_bind\awss_notify.c ****         char rand_str[RANDOM_MAX_LEN * 2 + 1] = {0};
 197:C:/Users/stapi/OneDrive/Desktop/GD32VW553/V1_MQTT_OK/GD32VW55X_Wifi_BLE_SDK/GD32VW55x_RELEASE_V1.0.2/MSDK/cloud/alicloud/src/services/dev_bind\awss_notify.c ****         for (i = 0; i < sizeof(notify_map) / sizeof(notify_map[0]); i ++) {
 198:C:/Users/stapi/OneDrive/Desktop/GD32VW553/V1_MQTT_OK/GD32VW55X_Wifi_BLE_SDK/GD32VW55x_RELEASE_V1.0.2/MSDK/cloud/alicloud/src/services/dev_bind\awss_notify.c ****             if (notify_map[i].notify_type != type) {
 199:C:/Users/stapi/OneDrive/Desktop/GD32VW553/V1_MQTT_OK/GD32VW55X_Wifi_BLE_SDK/GD32VW55x_RELEASE_V1.0.2/MSDK/cloud/alicloud/src/services/dev_bind\awss_notify.c ****                 continue;
 200:C:/Users/stapi/OneDrive/Desktop/GD32VW553/V1_MQTT_OK/GD32VW55X_Wifi_BLE_SDK/GD32VW55x_RELEASE_V1.0.2/MSDK/cloud/alicloud/src/services/dev_bind\awss_notify.c ****             }
 201:C:/Users/stapi/OneDrive/Desktop/GD32VW553/V1_MQTT_OK/GD32VW55X_Wifi_BLE_SDK/GD32VW55x_RELEASE_V1.0.2/MSDK/cloud/alicloud/src/services/dev_bind\awss_notify.c **** 
 202:C:/Users/stapi/OneDrive/Desktop/GD32VW553/V1_MQTT_OK/GD32VW55X_Wifi_BLE_SDK/GD32VW55x_RELEASE_V1.0.2/MSDK/cloud/alicloud/src/services/dev_bind\awss_notify.c ****             method = notify_map[i].notify_method;
 203:C:/Users/stapi/OneDrive/Desktop/GD32VW553/V1_MQTT_OK/GD32VW55X_Wifi_BLE_SDK/GD32VW55x_RELEASE_V1.0.2/MSDK/cloud/alicloud/src/services/dev_bind\awss_notify.c ****             topic = notify_map[i].notify_topic;
 204:C:/Users/stapi/OneDrive/Desktop/GD32VW553/V1_MQTT_OK/GD32VW55X_Wifi_BLE_SDK/GD32VW55x_RELEASE_V1.0.2/MSDK/cloud/alicloud/src/services/dev_bind\awss_notify.c ****             cb = notify_map[i].cb;
 205:C:/Users/stapi/OneDrive/Desktop/GD32VW553/V1_MQTT_OK/GD32VW55X_Wifi_BLE_SDK/GD32VW55x_RELEASE_V1.0.2/MSDK/cloud/alicloud/src/services/dev_bind\awss_notify.c ****             break;
 206:C:/Users/stapi/OneDrive/Desktop/GD32VW553/V1_MQTT_OK/GD32VW55X_Wifi_BLE_SDK/GD32VW55x_RELEASE_V1.0.2/MSDK/cloud/alicloud/src/services/dev_bind\awss_notify.c ****         }
 207:C:/Users/stapi/OneDrive/Desktop/GD32VW553/V1_MQTT_OK/GD32VW55X_Wifi_BLE_SDK/GD32VW55x_RELEASE_V1.0.2/MSDK/cloud/alicloud/src/services/dev_bind\awss_notify.c ****         if (method == NULL || topic == NULL) {
 208:C:/Users/stapi/OneDrive/Desktop/GD32VW553/V1_MQTT_OK/GD32VW55X_Wifi_BLE_SDK/GD32VW55x_RELEASE_V1.0.2/MSDK/cloud/alicloud/src/services/dev_bind\awss_notify.c ****             awss_err("params invalid");
 209:C:/Users/stapi/OneDrive/Desktop/GD32VW553/V1_MQTT_OK/GD32VW55X_Wifi_BLE_SDK/GD32VW55x_RELEASE_V1.0.2/MSDK/cloud/alicloud/src/services/dev_bind\awss_notify.c ****             break;
 210:C:/Users/stapi/OneDrive/Desktop/GD32VW553/V1_MQTT_OK/GD32VW55X_Wifi_BLE_SDK/GD32VW55x_RELEASE_V1.0.2/MSDK/cloud/alicloud/src/services/dev_bind\awss_notify.c ****         }
 211:C:/Users/stapi/OneDrive/Desktop/GD32VW553/V1_MQTT_OK/GD32VW55X_Wifi_BLE_SDK/GD32VW55x_RELEASE_V1.0.2/MSDK/cloud/alicloud/src/services/dev_bind\awss_notify.c **** 
 212:C:/Users/stapi/OneDrive/Desktop/GD32VW553/V1_MQTT_OK/GD32VW55X_Wifi_BLE_SDK/GD32VW55x_RELEASE_V1.0.2/MSDK/cloud/alicloud/src/services/dev_bind\awss_notify.c ****         buf = os_zalloc(DEV_INFO_LEN_MAX);
 213:C:/Users/stapi/OneDrive/Desktop/GD32VW553/V1_MQTT_OK/GD32VW55X_Wifi_BLE_SDK/GD32VW55x_RELEASE_V1.0.2/MSDK/cloud/alicloud/src/services/dev_bind\awss_notify.c ****         dev_info = os_zalloc(DEV_INFO_LEN_MAX);
 214:C:/Users/stapi/OneDrive/Desktop/GD32VW553/V1_MQTT_OK/GD32VW55X_Wifi_BLE_SDK/GD32VW55x_RELEASE_V1.0.2/MSDK/cloud/alicloud/src/services/dev_bind\awss_notify.c ****         if (buf == NULL || dev_info == NULL) {
 215:C:/Users/stapi/OneDrive/Desktop/GD32VW553/V1_MQTT_OK/GD32VW55X_Wifi_BLE_SDK/GD32VW55x_RELEASE_V1.0.2/MSDK/cloud/alicloud/src/services/dev_bind\awss_notify.c ****             awss_err("alloc mem fail");
 216:C:/Users/stapi/OneDrive/Desktop/GD32VW553/V1_MQTT_OK/GD32VW55X_Wifi_BLE_SDK/GD32VW55x_RELEASE_V1.0.2/MSDK/cloud/alicloud/src/services/dev_bind\awss_notify.c ****             break;
 217:C:/Users/stapi/OneDrive/Desktop/GD32VW553/V1_MQTT_OK/GD32VW55X_Wifi_BLE_SDK/GD32VW55x_RELEASE_V1.0.2/MSDK/cloud/alicloud/src/services/dev_bind\awss_notify.c ****         }
 218:C:/Users/stapi/OneDrive/Desktop/GD32VW553/V1_MQTT_OK/GD32VW55X_Wifi_BLE_SDK/GD32VW55x_RELEASE_V1.0.2/MSDK/cloud/alicloud/src/services/dev_bind\awss_notify.c **** 
 219:C:/Users/stapi/OneDrive/Desktop/GD32VW553/V1_MQTT_OK/GD32VW55X_Wifi_BLE_SDK/GD32VW55x_RELEASE_V1.0.2/MSDK/cloud/alicloud/src/services/dev_bind\awss_notify.c ****         memset(&notify_sa, 0, sizeof(notify_sa));
 220:C:/Users/stapi/OneDrive/Desktop/GD32VW553/V1_MQTT_OK/GD32VW55X_Wifi_BLE_SDK/GD32VW55x_RELEASE_V1.0.2/MSDK/cloud/alicloud/src/services/dev_bind\awss_notify.c ****         memcpy(notify_sa.host, AWSS_NOTIFY_HOST, strlen(AWSS_NOTIFY_HOST));
 221:C:/Users/stapi/OneDrive/Desktop/GD32VW553/V1_MQTT_OK/GD32VW55X_Wifi_BLE_SDK/GD32VW55x_RELEASE_V1.0.2/MSDK/cloud/alicloud/src/services/dev_bind\awss_notify.c ****         notify_sa.port = AWSS_NOTIFY_PORT;
 222:C:/Users/stapi/OneDrive/Desktop/GD32VW553/V1_MQTT_OK/GD32VW55X_Wifi_BLE_SDK/GD32VW55x_RELEASE_V1.0.2/MSDK/cloud/alicloud/src/services/dev_bind\awss_notify.c **** 
 223:C:/Users/stapi/OneDrive/Desktop/GD32VW553/V1_MQTT_OK/GD32VW55X_Wifi_BLE_SDK/GD32VW55x_RELEASE_V1.0.2/MSDK/cloud/alicloud/src/services/dev_bind\awss_notify.c ****         awss_build_dev_info(type, dev_info, DEV_INFO_LEN_MAX);
 224:C:/Users/stapi/OneDrive/Desktop/GD32VW553/V1_MQTT_OK/GD32VW55X_Wifi_BLE_SDK/GD32VW55x_RELEASE_V1.0.2/MSDK/cloud/alicloud/src/services/dev_bind\awss_notify.c **** 
 225:C:/Users/stapi/OneDrive/Desktop/GD32VW553/V1_MQTT_OK/GD32VW55X_Wifi_BLE_SDK/GD32VW55x_RELEASE_V1.0.2/MSDK/cloud/alicloud/src/services/dev_bind\awss_notify.c ****         snprintf(buf, DEV_INFO_LEN_MAX - 1, AWSS_DEV_NOTIFY_FMT, ++ g_notify_id, method, dev_info);
 226:C:/Users/stapi/OneDrive/Desktop/GD32VW553/V1_MQTT_OK/GD32VW55X_Wifi_BLE_SDK/GD32VW55x_RELEASE_V1.0.2/MSDK/cloud/alicloud/src/services/dev_bind\awss_notify.c ****         utils_hex_to_str(g_aes_random, RANDOM_MAX_LEN, rand_str, sizeof(rand_str));
 227:C:/Users/stapi/OneDrive/Desktop/GD32VW553/V1_MQTT_OK/GD32VW55X_Wifi_BLE_SDK/GD32VW55x_RELEASE_V1.0.2/MSDK/cloud/alicloud/src/services/dev_bind\awss_notify.c ****         if (type == AWSS_NOTIFY_SUCCESS) {
 228:C:/Users/stapi/OneDrive/Desktop/GD32VW553/V1_MQTT_OK/GD32VW55X_Wifi_BLE_SDK/GD32VW55x_RELEASE_V1.0.2/MSDK/cloud/alicloud/src/services/dev_bind\awss_notify.c ****             dump_awss_status(STATE_WIFI_SENT_CONNECTAP_NOTIFY, "connect ap notify");
 229:C:/Users/stapi/OneDrive/Desktop/GD32VW553/V1_MQTT_OK/GD32VW55X_Wifi_BLE_SDK/GD32VW55x_RELEASE_V1.0.2/MSDK/cloud/alicloud/src/services/dev_bind\awss_notify.c ****         } else if (type == AWSS_NOTIFY_DEV_RAND_SIGN) {
 230:C:/Users/stapi/OneDrive/Desktop/GD32VW553/V1_MQTT_OK/GD32VW55X_Wifi_BLE_SDK/GD32VW55x_RELEASE_V1.0.2/MSDK/cloud/alicloud/src/services/dev_bind\awss_notify.c **** 
 231:C:/Users/stapi/OneDrive/Desktop/GD32VW553/V1_MQTT_OK/GD32VW55X_Wifi_BLE_SDK/GD32VW55x_RELEASE_V1.0.2/MSDK/cloud/alicloud/src/services/dev_bind\awss_notify.c ****         }
 232:C:/Users/stapi/OneDrive/Desktop/GD32VW553/V1_MQTT_OK/GD32VW55X_Wifi_BLE_SDK/GD32VW55x_RELEASE_V1.0.2/MSDK/cloud/alicloud/src/services/dev_bind\awss_notify.c ****         awss_info("topic:%s\n", topic);
 233:C:/Users/stapi/OneDrive/Desktop/GD32VW553/V1_MQTT_OK/GD32VW55X_Wifi_BLE_SDK/GD32VW55x_RELEASE_V1.0.2/MSDK/cloud/alicloud/src/services/dev_bind\awss_notify.c ****         awss_debug("payload:%s\n", buf);
 234:C:/Users/stapi/OneDrive/Desktop/GD32VW553/V1_MQTT_OK/GD32VW55X_Wifi_BLE_SDK/GD32VW55x_RELEASE_V1.0.2/MSDK/cloud/alicloud/src/services/dev_bind\awss_notify.c ****         for (i = 0; i < count; i ++) {
 235:C:/Users/stapi/OneDrive/Desktop/GD32VW553/V1_MQTT_OK/GD32VW55X_Wifi_BLE_SDK/GD32VW55x_RELEASE_V1.0.2/MSDK/cloud/alicloud/src/services/dev_bind\awss_notify.c ****             int ret = awss_cmp_coap_send(buf, strlen(buf), &notify_sa, topic, cb, &g_notify_msg_id[
 236:C:/Users/stapi/OneDrive/Desktop/GD32VW553/V1_MQTT_OK/GD32VW55X_Wifi_BLE_SDK/GD32VW55x_RELEASE_V1.0.2/MSDK/cloud/alicloud/src/services/dev_bind\awss_notify.c ****             awss_info("coap send notify %s", ret == 0 ? "success" : "fail");
 237:C:/Users/stapi/OneDrive/Desktop/GD32VW553/V1_MQTT_OK/GD32VW55X_Wifi_BLE_SDK/GD32VW55x_RELEASE_V1.0.2/MSDK/cloud/alicloud/src/services/dev_bind\awss_notify.c ****             if (count > 1)
 238:C:/Users/stapi/OneDrive/Desktop/GD32VW553/V1_MQTT_OK/GD32VW55X_Wifi_BLE_SDK/GD32VW55x_RELEASE_V1.0.2/MSDK/cloud/alicloud/src/services/dev_bind\awss_notify.c ****                 os_msleep(200 + 100 * i);
 239:C:/Users/stapi/OneDrive/Desktop/GD32VW553/V1_MQTT_OK/GD32VW55X_Wifi_BLE_SDK/GD32VW55x_RELEASE_V1.0.2/MSDK/cloud/alicloud/src/services/dev_bind\awss_notify.c **** 
 240:C:/Users/stapi/OneDrive/Desktop/GD32VW553/V1_MQTT_OK/GD32VW55X_Wifi_BLE_SDK/GD32VW55x_RELEASE_V1.0.2/MSDK/cloud/alicloud/src/services/dev_bind\awss_notify.c ****             if (awss_notify_resp[type])
 241:C:/Users/stapi/OneDrive/Desktop/GD32VW553/V1_MQTT_OK/GD32VW55X_Wifi_BLE_SDK/GD32VW55x_RELEASE_V1.0.2/MSDK/cloud/alicloud/src/services/dev_bind\awss_notify.c ****                 break;
 242:C:/Users/stapi/OneDrive/Desktop/GD32VW553/V1_MQTT_OK/GD32VW55X_Wifi_BLE_SDK/GD32VW55x_RELEASE_V1.0.2/MSDK/cloud/alicloud/src/services/dev_bind\awss_notify.c ****         }
 243:C:/Users/stapi/OneDrive/Desktop/GD32VW553/V1_MQTT_OK/GD32VW55X_Wifi_BLE_SDK/GD32VW55x_RELEASE_V1.0.2/MSDK/cloud/alicloud/src/services/dev_bind\awss_notify.c ****     } while (0);
 244:C:/Users/stapi/OneDrive/Desktop/GD32VW553/V1_MQTT_OK/GD32VW55X_Wifi_BLE_SDK/GD32VW55x_RELEASE_V1.0.2/MSDK/cloud/alicloud/src/services/dev_bind\awss_notify.c **** 
 245:C:/Users/stapi/OneDrive/Desktop/GD32VW553/V1_MQTT_OK/GD32VW55X_Wifi_BLE_SDK/GD32VW55x_RELEASE_V1.0.2/MSDK/cloud/alicloud/src/services/dev_bind\awss_notify.c ****     if (buf) {
 246:C:/Users/stapi/OneDrive/Desktop/GD32VW553/V1_MQTT_OK/GD32VW55X_Wifi_BLE_SDK/GD32VW55x_RELEASE_V1.0.2/MSDK/cloud/alicloud/src/services/dev_bind\awss_notify.c ****         os_free(buf);
 247:C:/Users/stapi/OneDrive/Desktop/GD32VW553/V1_MQTT_OK/GD32VW55X_Wifi_BLE_SDK/GD32VW55x_RELEASE_V1.0.2/MSDK/cloud/alicloud/src/services/dev_bind\awss_notify.c ****     }
 248:C:/Users/stapi/OneDrive/Desktop/GD32VW553/V1_MQTT_OK/GD32VW55X_Wifi_BLE_SDK/GD32VW55x_RELEASE_V1.0.2/MSDK/cloud/alicloud/src/services/dev_bind\awss_notify.c ****     if (dev_info) {
 249:C:/Users/stapi/OneDrive/Desktop/GD32VW553/V1_MQTT_OK/GD32VW55X_Wifi_BLE_SDK/GD32VW55x_RELEASE_V1.0.2/MSDK/cloud/alicloud/src/services/dev_bind\awss_notify.c ****         os_free(dev_info);
 250:C:/Users/stapi/OneDrive/Desktop/GD32VW553/V1_MQTT_OK/GD32VW55X_Wifi_BLE_SDK/GD32VW55x_RELEASE_V1.0.2/MSDK/cloud/alicloud/src/services/dev_bind\awss_notify.c ****     }
 251:C:/Users/stapi/OneDrive/Desktop/GD32VW553/V1_MQTT_OK/GD32VW55X_Wifi_BLE_SDK/GD32VW55x_RELEASE_V1.0.2/MSDK/cloud/alicloud/src/services/dev_bind\awss_notify.c **** 
 252:C:/Users/stapi/OneDrive/Desktop/GD32VW553/V1_MQTT_OK/GD32VW55X_Wifi_BLE_SDK/GD32VW55x_RELEASE_V1.0.2/MSDK/cloud/alicloud/src/services/dev_bind\awss_notify.c ****     return awss_notify_resp[type];
 253:C:/Users/stapi/OneDrive/Desktop/GD32VW553/V1_MQTT_OK/GD32VW55X_Wifi_BLE_SDK/GD32VW55x_RELEASE_V1.0.2/MSDK/cloud/alicloud/src/services/dev_bind\awss_notify.c **** }
 254:C:/Users/stapi/OneDrive/Desktop/GD32VW553/V1_MQTT_OK/GD32VW55X_Wifi_BLE_SDK/GD32VW55x_RELEASE_V1.0.2/MSDK/cloud/alicloud/src/services/dev_bind\awss_notify.c **** 
 255:C:/Users/stapi/OneDrive/Desktop/GD32VW553/V1_MQTT_OK/GD32VW55X_Wifi_BLE_SDK/GD32VW55x_RELEASE_V1.0.2/MSDK/cloud/alicloud/src/services/dev_bind\awss_notify.c **** #define AWSS_NOTIFY_CNT_MAX (30)
 256:C:/Users/stapi/OneDrive/Desktop/GD32VW553/V1_MQTT_OK/GD32VW55X_Wifi_BLE_SDK/GD32VW55x_RELEASE_V1.0.2/MSDK/cloud/alicloud/src/services/dev_bind\awss_notify.c **** 
 257:C:/Users/stapi/OneDrive/Desktop/GD32VW553/V1_MQTT_OK/GD32VW55X_Wifi_BLE_SDK/GD32VW55x_RELEASE_V1.0.2/MSDK/cloud/alicloud/src/services/dev_bind\awss_notify.c **** static void *coap_session_ctx = NULL;
 258:C:/Users/stapi/OneDrive/Desktop/GD32VW553/V1_MQTT_OK/GD32VW55X_Wifi_BLE_SDK/GD32VW55x_RELEASE_V1.0.2/MSDK/cloud/alicloud/src/services/dev_bind\awss_notify.c **** 
 259:C:/Users/stapi/OneDrive/Desktop/GD32VW553/V1_MQTT_OK/GD32VW55X_Wifi_BLE_SDK/GD32VW55x_RELEASE_V1.0.2/MSDK/cloud/alicloud/src/services/dev_bind\awss_notify.c **** static int awss_process_get_devinfo()
 260:C:/Users/stapi/OneDrive/Desktop/GD32VW553/V1_MQTT_OK/GD32VW55X_Wifi_BLE_SDK/GD32VW55x_RELEASE_V1.0.2/MSDK/cloud/alicloud/src/services/dev_bind\awss_notify.c **** {
 261:C:/Users/stapi/OneDrive/Desktop/GD32VW553/V1_MQTT_OK/GD32VW55X_Wifi_BLE_SDK/GD32VW55x_RELEASE_V1.0.2/MSDK/cloud/alicloud/src/services/dev_bind\awss_notify.c ****     char *buf = NULL;
 262:C:/Users/stapi/OneDrive/Desktop/GD32VW553/V1_MQTT_OK/GD32VW55X_Wifi_BLE_SDK/GD32VW55x_RELEASE_V1.0.2/MSDK/cloud/alicloud/src/services/dev_bind\awss_notify.c ****     char *dev_info = NULL;
 263:C:/Users/stapi/OneDrive/Desktop/GD32VW553/V1_MQTT_OK/GD32VW55X_Wifi_BLE_SDK/GD32VW55x_RELEASE_V1.0.2/MSDK/cloud/alicloud/src/services/dev_bind\awss_notify.c ****     int ret;
 264:C:/Users/stapi/OneDrive/Desktop/GD32VW553/V1_MQTT_OK/GD32VW55X_Wifi_BLE_SDK/GD32VW55x_RELEASE_V1.0.2/MSDK/cloud/alicloud/src/services/dev_bind\awss_notify.c ****     if (awss_report_token_suc == 0) {
 265:C:/Users/stapi/OneDrive/Desktop/GD32VW553/V1_MQTT_OK/GD32VW55X_Wifi_BLE_SDK/GD32VW55x_RELEASE_V1.0.2/MSDK/cloud/alicloud/src/services/dev_bind\awss_notify.c ****         awss_debug("try to report token to cloud");
 266:C:/Users/stapi/OneDrive/Desktop/GD32VW553/V1_MQTT_OK/GD32VW55X_Wifi_BLE_SDK/GD32VW55x_RELEASE_V1.0.2/MSDK/cloud/alicloud/src/services/dev_bind\awss_notify.c ****         HAL_Timer_Start(get_devinfo_timer, AWSS_CHECK_RESP_TIME);
 267:C:/Users/stapi/OneDrive/Desktop/GD32VW553/V1_MQTT_OK/GD32VW55X_Wifi_BLE_SDK/GD32VW55x_RELEASE_V1.0.2/MSDK/cloud/alicloud/src/services/dev_bind\awss_notify.c ****         return 0;
 268:C:/Users/stapi/OneDrive/Desktop/GD32VW553/V1_MQTT_OK/GD32VW55X_Wifi_BLE_SDK/GD32VW55x_RELEASE_V1.0.2/MSDK/cloud/alicloud/src/services/dev_bind\awss_notify.c ****     }
 269:C:/Users/stapi/OneDrive/Desktop/GD32VW553/V1_MQTT_OK/GD32VW55X_Wifi_BLE_SDK/GD32VW55x_RELEASE_V1.0.2/MSDK/cloud/alicloud/src/services/dev_bind\awss_notify.c **** 
 270:C:/Users/stapi/OneDrive/Desktop/GD32VW553/V1_MQTT_OK/GD32VW55X_Wifi_BLE_SDK/GD32VW55x_RELEASE_V1.0.2/MSDK/cloud/alicloud/src/services/dev_bind\awss_notify.c ****     if (coap_session_ctx == NULL) {
 271:C:/Users/stapi/OneDrive/Desktop/GD32VW553/V1_MQTT_OK/GD32VW55X_Wifi_BLE_SDK/GD32VW55x_RELEASE_V1.0.2/MSDK/cloud/alicloud/src/services/dev_bind\awss_notify.c ****         awss_debug("no get req");
 272:C:/Users/stapi/OneDrive/Desktop/GD32VW553/V1_MQTT_OK/GD32VW55X_Wifi_BLE_SDK/GD32VW55x_RELEASE_V1.0.2/MSDK/cloud/alicloud/src/services/dev_bind\awss_notify.c ****         return STATE_USER_INPUT_NULL_POINTER;
 273:C:/Users/stapi/OneDrive/Desktop/GD32VW553/V1_MQTT_OK/GD32VW55X_Wifi_BLE_SDK/GD32VW55x_RELEASE_V1.0.2/MSDK/cloud/alicloud/src/services/dev_bind\awss_notify.c ****     }
 274:C:/Users/stapi/OneDrive/Desktop/GD32VW553/V1_MQTT_OK/GD32VW55X_Wifi_BLE_SDK/GD32VW55x_RELEASE_V1.0.2/MSDK/cloud/alicloud/src/services/dev_bind\awss_notify.c **** 
 275:C:/Users/stapi/OneDrive/Desktop/GD32VW553/V1_MQTT_OK/GD32VW55X_Wifi_BLE_SDK/GD32VW55x_RELEASE_V1.0.2/MSDK/cloud/alicloud/src/services/dev_bind\awss_notify.c ****     do {
 276:C:/Users/stapi/OneDrive/Desktop/GD32VW553/V1_MQTT_OK/GD32VW55X_Wifi_BLE_SDK/GD32VW55x_RELEASE_V1.0.2/MSDK/cloud/alicloud/src/services/dev_bind\awss_notify.c ****         int len = 0, id_len = 0;
 277:C:/Users/stapi/OneDrive/Desktop/GD32VW553/V1_MQTT_OK/GD32VW55X_Wifi_BLE_SDK/GD32VW55x_RELEASE_V1.0.2/MSDK/cloud/alicloud/src/services/dev_bind\awss_notify.c ****         char *msg = NULL, *id = NULL;
 278:C:/Users/stapi/OneDrive/Desktop/GD32VW553/V1_MQTT_OK/GD32VW55X_Wifi_BLE_SDK/GD32VW55x_RELEASE_V1.0.2/MSDK/cloud/alicloud/src/services/dev_bind\awss_notify.c ****         char req_msg_id[MSG_REQ_ID_LEN + 1];
 279:C:/Users/stapi/OneDrive/Desktop/GD32VW553/V1_MQTT_OK/GD32VW55X_Wifi_BLE_SDK/GD32VW55x_RELEASE_V1.0.2/MSDK/cloud/alicloud/src/services/dev_bind\awss_notify.c ****         char rand_str[RANDOM_MAX_LEN * 2 + 1] = {0};
 280:C:/Users/stapi/OneDrive/Desktop/GD32VW553/V1_MQTT_OK/GD32VW55X_Wifi_BLE_SDK/GD32VW55x_RELEASE_V1.0.2/MSDK/cloud/alicloud/src/services/dev_bind\awss_notify.c ****         struct coap_session_ctx_t *ctx = (struct coap_session_ctx_t *)coap_session_ctx;
 281:C:/Users/stapi/OneDrive/Desktop/GD32VW553/V1_MQTT_OK/GD32VW55X_Wifi_BLE_SDK/GD32VW55x_RELEASE_V1.0.2/MSDK/cloud/alicloud/src/services/dev_bind\awss_notify.c **** 
 282:C:/Users/stapi/OneDrive/Desktop/GD32VW553/V1_MQTT_OK/GD32VW55X_Wifi_BLE_SDK/GD32VW55x_RELEASE_V1.0.2/MSDK/cloud/alicloud/src/services/dev_bind\awss_notify.c ****         buf = os_zalloc(DEV_INFO_LEN_MAX);
 283:C:/Users/stapi/OneDrive/Desktop/GD32VW553/V1_MQTT_OK/GD32VW55X_Wifi_BLE_SDK/GD32VW55x_RELEASE_V1.0.2/MSDK/cloud/alicloud/src/services/dev_bind\awss_notify.c ****         if (buf == NULL) {
 284:C:/Users/stapi/OneDrive/Desktop/GD32VW553/V1_MQTT_OK/GD32VW55X_Wifi_BLE_SDK/GD32VW55x_RELEASE_V1.0.2/MSDK/cloud/alicloud/src/services/dev_bind\awss_notify.c ****             ret = STATE_SYS_DEPEND_MALLOC;
 285:C:/Users/stapi/OneDrive/Desktop/GD32VW553/V1_MQTT_OK/GD32VW55X_Wifi_BLE_SDK/GD32VW55x_RELEASE_V1.0.2/MSDK/cloud/alicloud/src/services/dev_bind\awss_notify.c ****             goto GET_DEV_INFO_ERR;
 286:C:/Users/stapi/OneDrive/Desktop/GD32VW553/V1_MQTT_OK/GD32VW55X_Wifi_BLE_SDK/GD32VW55x_RELEASE_V1.0.2/MSDK/cloud/alicloud/src/services/dev_bind\awss_notify.c ****         }
 287:C:/Users/stapi/OneDrive/Desktop/GD32VW553/V1_MQTT_OK/GD32VW55X_Wifi_BLE_SDK/GD32VW55x_RELEASE_V1.0.2/MSDK/cloud/alicloud/src/services/dev_bind\awss_notify.c ****         dev_info = os_zalloc(DEV_INFO_LEN_MAX);
 288:C:/Users/stapi/OneDrive/Desktop/GD32VW553/V1_MQTT_OK/GD32VW55X_Wifi_BLE_SDK/GD32VW55x_RELEASE_V1.0.2/MSDK/cloud/alicloud/src/services/dev_bind\awss_notify.c ****         if (dev_info == NULL) {
 289:C:/Users/stapi/OneDrive/Desktop/GD32VW553/V1_MQTT_OK/GD32VW55X_Wifi_BLE_SDK/GD32VW55x_RELEASE_V1.0.2/MSDK/cloud/alicloud/src/services/dev_bind\awss_notify.c ****             ret = STATE_SYS_DEPEND_MALLOC;
 290:C:/Users/stapi/OneDrive/Desktop/GD32VW553/V1_MQTT_OK/GD32VW55X_Wifi_BLE_SDK/GD32VW55x_RELEASE_V1.0.2/MSDK/cloud/alicloud/src/services/dev_bind\awss_notify.c ****             goto GET_DEV_INFO_ERR;
 291:C:/Users/stapi/OneDrive/Desktop/GD32VW553/V1_MQTT_OK/GD32VW55X_Wifi_BLE_SDK/GD32VW55x_RELEASE_V1.0.2/MSDK/cloud/alicloud/src/services/dev_bind\awss_notify.c ****         }
 292:C:/Users/stapi/OneDrive/Desktop/GD32VW553/V1_MQTT_OK/GD32VW55X_Wifi_BLE_SDK/GD32VW55x_RELEASE_V1.0.2/MSDK/cloud/alicloud/src/services/dev_bind\awss_notify.c ****         msg = awss_cmp_get_coap_payload(ctx->request, &len);
 293:C:/Users/stapi/OneDrive/Desktop/GD32VW553/V1_MQTT_OK/GD32VW55X_Wifi_BLE_SDK/GD32VW55x_RELEASE_V1.0.2/MSDK/cloud/alicloud/src/services/dev_bind\awss_notify.c ****         if (msg == NULL) {
 294:C:/Users/stapi/OneDrive/Desktop/GD32VW553/V1_MQTT_OK/GD32VW55X_Wifi_BLE_SDK/GD32VW55x_RELEASE_V1.0.2/MSDK/cloud/alicloud/src/services/dev_bind\awss_notify.c ****             ret = STATE_BIND_COAP_MSG_INVALID;
 295:C:/Users/stapi/OneDrive/Desktop/GD32VW553/V1_MQTT_OK/GD32VW55X_Wifi_BLE_SDK/GD32VW55x_RELEASE_V1.0.2/MSDK/cloud/alicloud/src/services/dev_bind\awss_notify.c ****             goto GET_DEV_INFO_ERR;
 296:C:/Users/stapi/OneDrive/Desktop/GD32VW553/V1_MQTT_OK/GD32VW55X_Wifi_BLE_SDK/GD32VW55x_RELEASE_V1.0.2/MSDK/cloud/alicloud/src/services/dev_bind\awss_notify.c ****         }
 297:C:/Users/stapi/OneDrive/Desktop/GD32VW553/V1_MQTT_OK/GD32VW55X_Wifi_BLE_SDK/GD32VW55x_RELEASE_V1.0.2/MSDK/cloud/alicloud/src/services/dev_bind\awss_notify.c **** 
 298:C:/Users/stapi/OneDrive/Desktop/GD32VW553/V1_MQTT_OK/GD32VW55X_Wifi_BLE_SDK/GD32VW55x_RELEASE_V1.0.2/MSDK/cloud/alicloud/src/services/dev_bind\awss_notify.c ****         id = json_get_value_by_name(msg, len, "id", &id_len, 0);
 299:C:/Users/stapi/OneDrive/Desktop/GD32VW553/V1_MQTT_OK/GD32VW55X_Wifi_BLE_SDK/GD32VW55x_RELEASE_V1.0.2/MSDK/cloud/alicloud/src/services/dev_bind\awss_notify.c ****         if (id_len > MSG_REQ_ID_LEN) {
 300:C:/Users/stapi/OneDrive/Desktop/GD32VW553/V1_MQTT_OK/GD32VW55X_Wifi_BLE_SDK/GD32VW55x_RELEASE_V1.0.2/MSDK/cloud/alicloud/src/services/dev_bind\awss_notify.c ****             ret = STATE_BIND_COAP_MSG_INVALID;
 301:C:/Users/stapi/OneDrive/Desktop/GD32VW553/V1_MQTT_OK/GD32VW55X_Wifi_BLE_SDK/GD32VW55x_RELEASE_V1.0.2/MSDK/cloud/alicloud/src/services/dev_bind\awss_notify.c ****             goto GET_DEV_INFO_ERR;
 302:C:/Users/stapi/OneDrive/Desktop/GD32VW553/V1_MQTT_OK/GD32VW55X_Wifi_BLE_SDK/GD32VW55x_RELEASE_V1.0.2/MSDK/cloud/alicloud/src/services/dev_bind\awss_notify.c ****         }
 303:C:/Users/stapi/OneDrive/Desktop/GD32VW553/V1_MQTT_OK/GD32VW55X_Wifi_BLE_SDK/GD32VW55x_RELEASE_V1.0.2/MSDK/cloud/alicloud/src/services/dev_bind\awss_notify.c **** 
 304:C:/Users/stapi/OneDrive/Desktop/GD32VW553/V1_MQTT_OK/GD32VW55X_Wifi_BLE_SDK/GD32VW55x_RELEASE_V1.0.2/MSDK/cloud/alicloud/src/services/dev_bind\awss_notify.c ****         memset(req_msg_id, 0, sizeof(req_msg_id));
 305:C:/Users/stapi/OneDrive/Desktop/GD32VW553/V1_MQTT_OK/GD32VW55X_Wifi_BLE_SDK/GD32VW55x_RELEASE_V1.0.2/MSDK/cloud/alicloud/src/services/dev_bind\awss_notify.c ****         memcpy(req_msg_id, id, id_len);
 306:C:/Users/stapi/OneDrive/Desktop/GD32VW553/V1_MQTT_OK/GD32VW55X_Wifi_BLE_SDK/GD32VW55x_RELEASE_V1.0.2/MSDK/cloud/alicloud/src/services/dev_bind\awss_notify.c **** 
 307:C:/Users/stapi/OneDrive/Desktop/GD32VW553/V1_MQTT_OK/GD32VW55X_Wifi_BLE_SDK/GD32VW55x_RELEASE_V1.0.2/MSDK/cloud/alicloud/src/services/dev_bind\awss_notify.c ****         awss_build_dev_info(AWSS_NOTIFY_DEV_BIND_TOKEN, buf, DEV_INFO_LEN_MAX);
 308:C:/Users/stapi/OneDrive/Desktop/GD32VW553/V1_MQTT_OK/GD32VW55X_Wifi_BLE_SDK/GD32VW55x_RELEASE_V1.0.2/MSDK/cloud/alicloud/src/services/dev_bind\awss_notify.c ****         snprintf(dev_info, DEV_INFO_LEN_MAX - 1, "{%s}", buf);
 309:C:/Users/stapi/OneDrive/Desktop/GD32VW553/V1_MQTT_OK/GD32VW55X_Wifi_BLE_SDK/GD32VW55x_RELEASE_V1.0.2/MSDK/cloud/alicloud/src/services/dev_bind\awss_notify.c ****         memset(buf, 0x00, DEV_INFO_LEN_MAX);
 310:C:/Users/stapi/OneDrive/Desktop/GD32VW553/V1_MQTT_OK/GD32VW55X_Wifi_BLE_SDK/GD32VW55x_RELEASE_V1.0.2/MSDK/cloud/alicloud/src/services/dev_bind\awss_notify.c ****         snprintf(buf, DEV_INFO_LEN_MAX - 1, AWSS_ACK_FMT, req_msg_id, 200, dev_info);
 311:C:/Users/stapi/OneDrive/Desktop/GD32VW553/V1_MQTT_OK/GD32VW55X_Wifi_BLE_SDK/GD32VW55x_RELEASE_V1.0.2/MSDK/cloud/alicloud/src/services/dev_bind\awss_notify.c ****         os_free(dev_info);
 312:C:/Users/stapi/OneDrive/Desktop/GD32VW553/V1_MQTT_OK/GD32VW55X_Wifi_BLE_SDK/GD32VW55x_RELEASE_V1.0.2/MSDK/cloud/alicloud/src/services/dev_bind\awss_notify.c **** 
 313:C:/Users/stapi/OneDrive/Desktop/GD32VW553/V1_MQTT_OK/GD32VW55X_Wifi_BLE_SDK/GD32VW55x_RELEASE_V1.0.2/MSDK/cloud/alicloud/src/services/dev_bind\awss_notify.c ****         utils_hex_to_str(g_aes_random, RANDOM_MAX_LEN, rand_str, sizeof(rand_str));
 314:C:/Users/stapi/OneDrive/Desktop/GD32VW553/V1_MQTT_OK/GD32VW55X_Wifi_BLE_SDK/GD32VW55x_RELEASE_V1.0.2/MSDK/cloud/alicloud/src/services/dev_bind\awss_notify.c ****         dump_dev_bind_status(STATE_BIND_SENT_TOKEN_RESP, dev_info);
 315:C:/Users/stapi/OneDrive/Desktop/GD32VW553/V1_MQTT_OK/GD32VW55X_Wifi_BLE_SDK/GD32VW55x_RELEASE_V1.0.2/MSDK/cloud/alicloud/src/services/dev_bind\awss_notify.c ****         awss_info("sending message to app: %s", buf);
 316:C:/Users/stapi/OneDrive/Desktop/GD32VW553/V1_MQTT_OK/GD32VW55X_Wifi_BLE_SDK/GD32VW55x_RELEASE_V1.0.2/MSDK/cloud/alicloud/src/services/dev_bind\awss_notify.c ****         char topic[TOPIC_LEN_MAX] = { 0 };
 317:C:/Users/stapi/OneDrive/Desktop/GD32VW553/V1_MQTT_OK/GD32VW55X_Wifi_BLE_SDK/GD32VW55x_RELEASE_V1.0.2/MSDK/cloud/alicloud/src/services/dev_bind\awss_notify.c ****         if (ctx->is_mcast) {
 318:C:/Users/stapi/OneDrive/Desktop/GD32VW553/V1_MQTT_OK/GD32VW55X_Wifi_BLE_SDK/GD32VW55x_RELEASE_V1.0.2/MSDK/cloud/alicloud/src/services/dev_bind\awss_notify.c ****             awss_build_topic((const char *)TOPIC_GETDEVICEINFO_MCAST, topic, TOPIC_LEN_MAX);
 319:C:/Users/stapi/OneDrive/Desktop/GD32VW553/V1_MQTT_OK/GD32VW55X_Wifi_BLE_SDK/GD32VW55x_RELEASE_V1.0.2/MSDK/cloud/alicloud/src/services/dev_bind\awss_notify.c ****         } else {
 320:C:/Users/stapi/OneDrive/Desktop/GD32VW553/V1_MQTT_OK/GD32VW55X_Wifi_BLE_SDK/GD32VW55x_RELEASE_V1.0.2/MSDK/cloud/alicloud/src/services/dev_bind\awss_notify.c ****             awss_build_topic((const char *)TOPIC_GETDEVICEINFO_UCAST, topic, TOPIC_LEN_MAX);
 321:C:/Users/stapi/OneDrive/Desktop/GD32VW553/V1_MQTT_OK/GD32VW55X_Wifi_BLE_SDK/GD32VW55x_RELEASE_V1.0.2/MSDK/cloud/alicloud/src/services/dev_bind\awss_notify.c ****         }
 322:C:/Users/stapi/OneDrive/Desktop/GD32VW553/V1_MQTT_OK/GD32VW55X_Wifi_BLE_SDK/GD32VW55x_RELEASE_V1.0.2/MSDK/cloud/alicloud/src/services/dev_bind\awss_notify.c **** 
 323:C:/Users/stapi/OneDrive/Desktop/GD32VW553/V1_MQTT_OK/GD32VW55X_Wifi_BLE_SDK/GD32VW55x_RELEASE_V1.0.2/MSDK/cloud/alicloud/src/services/dev_bind\awss_notify.c ****         /*before tx to app, clear token suc flag*/
 324:C:/Users/stapi/OneDrive/Desktop/GD32VW553/V1_MQTT_OK/GD32VW55X_Wifi_BLE_SDK/GD32VW55x_RELEASE_V1.0.2/MSDK/cloud/alicloud/src/services/dev_bind\awss_notify.c ****         awss_update_token();
 325:C:/Users/stapi/OneDrive/Desktop/GD32VW553/V1_MQTT_OK/GD32VW55X_Wifi_BLE_SDK/GD32VW55x_RELEASE_V1.0.2/MSDK/cloud/alicloud/src/services/dev_bind\awss_notify.c **** 
 326:C:/Users/stapi/OneDrive/Desktop/GD32VW553/V1_MQTT_OK/GD32VW55X_Wifi_BLE_SDK/GD32VW55x_RELEASE_V1.0.2/MSDK/cloud/alicloud/src/services/dev_bind\awss_notify.c ****         if ((ret = awss_cmp_coap_send_resp(buf, strlen(buf), ctx->remote, topic, ctx->request, NULL
 327:C:/Users/stapi/OneDrive/Desktop/GD32VW553/V1_MQTT_OK/GD32VW55X_Wifi_BLE_SDK/GD32VW55x_RELEASE_V1.0.2/MSDK/cloud/alicloud/src/services/dev_bind\awss_notify.c ****             dump_dev_bind_status(STATE_BIND_APP_GET_TOKEN_RESP_FAIL, topic);
 328:C:/Users/stapi/OneDrive/Desktop/GD32VW553/V1_MQTT_OK/GD32VW55X_Wifi_BLE_SDK/GD32VW55x_RELEASE_V1.0.2/MSDK/cloud/alicloud/src/services/dev_bind\awss_notify.c ****             awss_err("sending failed.");
 329:C:/Users/stapi/OneDrive/Desktop/GD32VW553/V1_MQTT_OK/GD32VW55X_Wifi_BLE_SDK/GD32VW55x_RELEASE_V1.0.2/MSDK/cloud/alicloud/src/services/dev_bind\awss_notify.c ****         }
 330:C:/Users/stapi/OneDrive/Desktop/GD32VW553/V1_MQTT_OK/GD32VW55X_Wifi_BLE_SDK/GD32VW55x_RELEASE_V1.0.2/MSDK/cloud/alicloud/src/services/dev_bind\awss_notify.c **** 
 331:C:/Users/stapi/OneDrive/Desktop/GD32VW553/V1_MQTT_OK/GD32VW55X_Wifi_BLE_SDK/GD32VW55x_RELEASE_V1.0.2/MSDK/cloud/alicloud/src/services/dev_bind\awss_notify.c ****         os_free(buf);
 332:C:/Users/stapi/OneDrive/Desktop/GD32VW553/V1_MQTT_OK/GD32VW55X_Wifi_BLE_SDK/GD32VW55x_RELEASE_V1.0.2/MSDK/cloud/alicloud/src/services/dev_bind\awss_notify.c ****         awss_release_coap_ctx(coap_session_ctx);
 333:C:/Users/stapi/OneDrive/Desktop/GD32VW553/V1_MQTT_OK/GD32VW55X_Wifi_BLE_SDK/GD32VW55x_RELEASE_V1.0.2/MSDK/cloud/alicloud/src/services/dev_bind\awss_notify.c ****         coap_session_ctx = NULL;
 334:C:/Users/stapi/OneDrive/Desktop/GD32VW553/V1_MQTT_OK/GD32VW55X_Wifi_BLE_SDK/GD32VW55x_RELEASE_V1.0.2/MSDK/cloud/alicloud/src/services/dev_bind\awss_notify.c ****         awss_stop_timer(get_devinfo_timer);
 335:C:/Users/stapi/OneDrive/Desktop/GD32VW553/V1_MQTT_OK/GD32VW55X_Wifi_BLE_SDK/GD32VW55x_RELEASE_V1.0.2/MSDK/cloud/alicloud/src/services/dev_bind\awss_notify.c ****         get_devinfo_timer = NULL;
 336:C:/Users/stapi/OneDrive/Desktop/GD32VW553/V1_MQTT_OK/GD32VW55X_Wifi_BLE_SDK/GD32VW55x_RELEASE_V1.0.2/MSDK/cloud/alicloud/src/services/dev_bind\awss_notify.c ****     } while (0);
 337:C:/Users/stapi/OneDrive/Desktop/GD32VW553/V1_MQTT_OK/GD32VW55X_Wifi_BLE_SDK/GD32VW55x_RELEASE_V1.0.2/MSDK/cloud/alicloud/src/services/dev_bind\awss_notify.c **** 
 338:C:/Users/stapi/OneDrive/Desktop/GD32VW553/V1_MQTT_OK/GD32VW55X_Wifi_BLE_SDK/GD32VW55x_RELEASE_V1.0.2/MSDK/cloud/alicloud/src/services/dev_bind\awss_notify.c ****     return 0;
 339:C:/Users/stapi/OneDrive/Desktop/GD32VW553/V1_MQTT_OK/GD32VW55X_Wifi_BLE_SDK/GD32VW55x_RELEASE_V1.0.2/MSDK/cloud/alicloud/src/services/dev_bind\awss_notify.c **** 
 340:C:/Users/stapi/OneDrive/Desktop/GD32VW553/V1_MQTT_OK/GD32VW55X_Wifi_BLE_SDK/GD32VW55x_RELEASE_V1.0.2/MSDK/cloud/alicloud/src/services/dev_bind\awss_notify.c **** GET_DEV_INFO_ERR:
 341:C:/Users/stapi/OneDrive/Desktop/GD32VW553/V1_MQTT_OK/GD32VW55X_Wifi_BLE_SDK/GD32VW55x_RELEASE_V1.0.2/MSDK/cloud/alicloud/src/services/dev_bind\awss_notify.c ****     dump_dev_bind_status(STATE_BIND_APP_GET_TOKEN_RESP_FAIL, "get token response fail");
 342:C:/Users/stapi/OneDrive/Desktop/GD32VW553/V1_MQTT_OK/GD32VW55X_Wifi_BLE_SDK/GD32VW55x_RELEASE_V1.0.2/MSDK/cloud/alicloud/src/services/dev_bind\awss_notify.c ****     awss_release_coap_ctx(coap_session_ctx);
 343:C:/Users/stapi/OneDrive/Desktop/GD32VW553/V1_MQTT_OK/GD32VW55X_Wifi_BLE_SDK/GD32VW55x_RELEASE_V1.0.2/MSDK/cloud/alicloud/src/services/dev_bind\awss_notify.c ****     coap_session_ctx = NULL;
 344:C:/Users/stapi/OneDrive/Desktop/GD32VW553/V1_MQTT_OK/GD32VW55X_Wifi_BLE_SDK/GD32VW55x_RELEASE_V1.0.2/MSDK/cloud/alicloud/src/services/dev_bind\awss_notify.c ****     awss_stop_timer(get_devinfo_timer);
 345:C:/Users/stapi/OneDrive/Desktop/GD32VW553/V1_MQTT_OK/GD32VW55X_Wifi_BLE_SDK/GD32VW55x_RELEASE_V1.0.2/MSDK/cloud/alicloud/src/services/dev_bind\awss_notify.c ****     get_devinfo_timer = NULL;
 346:C:/Users/stapi/OneDrive/Desktop/GD32VW553/V1_MQTT_OK/GD32VW55X_Wifi_BLE_SDK/GD32VW55x_RELEASE_V1.0.2/MSDK/cloud/alicloud/src/services/dev_bind\awss_notify.c **** 
 347:C:/Users/stapi/OneDrive/Desktop/GD32VW553/V1_MQTT_OK/GD32VW55X_Wifi_BLE_SDK/GD32VW55x_RELEASE_V1.0.2/MSDK/cloud/alicloud/src/services/dev_bind\awss_notify.c ****     if (buf) {
 348:C:/Users/stapi/OneDrive/Desktop/GD32VW553/V1_MQTT_OK/GD32VW55X_Wifi_BLE_SDK/GD32VW55x_RELEASE_V1.0.2/MSDK/cloud/alicloud/src/services/dev_bind\awss_notify.c ****         os_free(buf);
 349:C:/Users/stapi/OneDrive/Desktop/GD32VW553/V1_MQTT_OK/GD32VW55X_Wifi_BLE_SDK/GD32VW55x_RELEASE_V1.0.2/MSDK/cloud/alicloud/src/services/dev_bind\awss_notify.c ****     }
 350:C:/Users/stapi/OneDrive/Desktop/GD32VW553/V1_MQTT_OK/GD32VW55X_Wifi_BLE_SDK/GD32VW55x_RELEASE_V1.0.2/MSDK/cloud/alicloud/src/services/dev_bind\awss_notify.c ****     if (dev_info) {
 351:C:/Users/stapi/OneDrive/Desktop/GD32VW553/V1_MQTT_OK/GD32VW55X_Wifi_BLE_SDK/GD32VW55x_RELEASE_V1.0.2/MSDK/cloud/alicloud/src/services/dev_bind\awss_notify.c ****         os_free(dev_info);
 352:C:/Users/stapi/OneDrive/Desktop/GD32VW553/V1_MQTT_OK/GD32VW55X_Wifi_BLE_SDK/GD32VW55x_RELEASE_V1.0.2/MSDK/cloud/alicloud/src/services/dev_bind\awss_notify.c ****     }
 353:C:/Users/stapi/OneDrive/Desktop/GD32VW553/V1_MQTT_OK/GD32VW55X_Wifi_BLE_SDK/GD32VW55x_RELEASE_V1.0.2/MSDK/cloud/alicloud/src/services/dev_bind\awss_notify.c **** 
 354:C:/Users/stapi/OneDrive/Desktop/GD32VW553/V1_MQTT_OK/GD32VW55X_Wifi_BLE_SDK/GD32VW55x_RELEASE_V1.0.2/MSDK/cloud/alicloud/src/services/dev_bind\awss_notify.c ****     return ret;
 355:C:/Users/stapi/OneDrive/Desktop/GD32VW553/V1_MQTT_OK/GD32VW55X_Wifi_BLE_SDK/GD32VW55x_RELEASE_V1.0.2/MSDK/cloud/alicloud/src/services/dev_bind\awss_notify.c **** }
 356:C:/Users/stapi/OneDrive/Desktop/GD32VW553/V1_MQTT_OK/GD32VW55X_Wifi_BLE_SDK/GD32VW55x_RELEASE_V1.0.2/MSDK/cloud/alicloud/src/services/dev_bind\awss_notify.c **** 
 357:C:/Users/stapi/OneDrive/Desktop/GD32VW553/V1_MQTT_OK/GD32VW55X_Wifi_BLE_SDK/GD32VW55x_RELEASE_V1.0.2/MSDK/cloud/alicloud/src/services/dev_bind\awss_notify.c **** static int online_get_device_info(void *ctx, void *resource, void *remote,
 411              		.loc 1 357 12 is_stmt 1
 412              		.cfi_startproc
 413              	.LVL52:
 414 0000 17030000 		call	t0,__riscv_save_6
 414      E7020300 
 415              		.cfi_offset 21, -28
 416              		.cfi_offset 20, -24
 417              		.cfi_offset 19, -20
 418              		.cfi_offset 18, -16
 419              		.cfi_offset 9, -12
 420              		.cfi_offset 8, -8
 421              		.cfi_offset 1, -4
 422              		.cfi_def_cfa_offset 32
 423              	.LVL53:
 358:C:/Users/stapi/OneDrive/Desktop/GD32VW553/V1_MQTT_OK/GD32VW55X_Wifi_BLE_SDK/GD32VW55x_RELEASE_V1.0.2/MSDK/cloud/alicloud/src/services/dev_bind\awss_notify.c ****                                   void *request, char is_mcast)
 359:C:/Users/stapi/OneDrive/Desktop/GD32VW553/V1_MQTT_OK/GD32VW55X_Wifi_BLE_SDK/GD32VW55x_RELEASE_V1.0.2/MSDK/cloud/alicloud/src/services/dev_bind\awss_notify.c **** {
 360:C:/Users/stapi/OneDrive/Desktop/GD32VW553/V1_MQTT_OK/GD32VW55X_Wifi_BLE_SDK/GD32VW55x_RELEASE_V1.0.2/MSDK/cloud/alicloud/src/services/dev_bind\awss_notify.c ****     int timeout = 0;
 424              		.loc 1 360 5
 361:C:/Users/stapi/OneDrive/Desktop/GD32VW553/V1_MQTT_OK/GD32VW55X_Wifi_BLE_SDK/GD32VW55x_RELEASE_V1.0.2/MSDK/cloud/alicloud/src/services/dev_bind\awss_notify.c ****     /*
 362:C:/Users/stapi/OneDrive/Desktop/GD32VW553/V1_MQTT_OK/GD32VW55X_Wifi_BLE_SDK/GD32VW55x_RELEASE_V1.0.2/MSDK/cloud/alicloud/src/services/dev_bind\awss_notify.c ****      * if cloud is not ready, don't response token
 363:C:/Users/stapi/OneDrive/Desktop/GD32VW553/V1_MQTT_OK/GD32VW55X_Wifi_BLE_SDK/GD32VW55x_RELEASE_V1.0.2/MSDK/cloud/alicloud/src/services/dev_bind\awss_notify.c ****      */
 364:C:/Users/stapi/OneDrive/Desktop/GD32VW553/V1_MQTT_OK/GD32VW55X_Wifi_BLE_SDK/GD32VW55x_RELEASE_V1.0.2/MSDK/cloud/alicloud/src/services/dev_bind\awss_notify.c ****     dump_dev_bind_status(STATE_BIND_RECV_TOKEN_QUERY, "recv token query");
 425              		.loc 1 364 5
 357:C:/Users/stapi/OneDrive/Desktop/GD32VW553/V1_MQTT_OK/GD32VW55X_Wifi_BLE_SDK/GD32VW55x_RELEASE_V1.0.2/MSDK/cloud/alicloud/src/services/dev_bind\awss_notify.c ****                                   void *request, char is_mcast)
 426              		.loc 1 357 12 is_stmt 0
 427 0008 B28A     		mv	s5,a2
 428              		.loc 1 364 5
 429 000a FD74     		li	s1,-4096
 430 000c 37060000 		lui	a2,%hi(.LC11)
 431              	.LVL54:
 357:C:/Users/stapi/OneDrive/Desktop/GD32VW553/V1_MQTT_OK/GD32VW55X_Wifi_BLE_SDK/GD32VW55x_RELEASE_V1.0.2/MSDK/cloud/alicloud/src/services/dev_bind\awss_notify.c ****                                   void *request, char is_mcast)
 432              		.loc 1 357 12
 433 0010 2A8A     		mv	s4,a0
 434 0012 AE89     		mv	s3,a1
 435              		.loc 1 364 5
 436 0014 13060600 		addi	a2,a2,%lo(.LC11)
 437 0018 9385A47F 		addi	a1,s1,2042
 438              	.LVL55:
 439 001c 7D45     		li	a0,31
 440              	.LVL56:
 441 001e 97000000 		call	iotx_state_event
 441      E7800000 
 442              	.LVL57:
 365:C:/Users/stapi/OneDrive/Desktop/GD32VW553/V1_MQTT_OK/GD32VW55X_Wifi_BLE_SDK/GD32VW55x_RELEASE_V1.0.2/MSDK/cloud/alicloud/src/services/dev_bind\awss_notify.c **** #ifdef DEVICE_MODEL_ENABLED
 366:C:/Users/stapi/OneDrive/Desktop/GD32VW553/V1_MQTT_OK/GD32VW55X_Wifi_BLE_SDK/GD32VW55x_RELEASE_V1.0.2/MSDK/cloud/alicloud/src/services/dev_bind\awss_notify.c ****     if (awss_check_reset(NULL)) {
 443              		.loc 1 366 5 is_stmt 1
 444              		.loc 1 366 9 is_stmt 0
 445 0026 0145     		li	a0,0
 446 0028 97000000 		call	awss_check_reset
 446      E7800000 
 447              	.LVL58:
 448              		.loc 1 366 8
 449 0030 1DC1     		beq	a0,zero,.L27
 367:C:/Users/stapi/OneDrive/Desktop/GD32VW553/V1_MQTT_OK/GD32VW55X_Wifi_BLE_SDK/GD32VW55x_RELEASE_V1.0.2/MSDK/cloud/alicloud/src/services/dev_bind\awss_notify.c ****         dump_dev_bind_status(STATE_BIND_RST_IN_PROGRESS, "need do reset");
 450              		.loc 1 367 9 is_stmt 1
 451 0032 37060000 		lui	a2,%hi(.LC12)
 452 0036 13060600 		addi	a2,a2,%lo(.LC12)
 453 003a 9385D47E 		addi	a1,s1,2029
 454 003e 7D45     		li	a0,31
 455 0040 97000000 		call	iotx_state_event
 455      E7800000 
 456              	.LVL59:
 368:C:/Users/stapi/OneDrive/Desktop/GD32VW553/V1_MQTT_OK/GD32VW55X_Wifi_BLE_SDK/GD32VW55x_RELEASE_V1.0.2/MSDK/cloud/alicloud/src/services/dev_bind\awss_notify.c ****         return STATE_BIND_RST_IN_PROGRESS;
 457              		.loc 1 368 9
 458              		.loc 1 368 16 is_stmt 0
 459 0048 1384D47E 		addi	s0,s1,2029
 460              	.LVL60:
 461              	.L26:
 369:C:/Users/stapi/OneDrive/Desktop/GD32VW553/V1_MQTT_OK/GD32VW55X_Wifi_BLE_SDK/GD32VW55x_RELEASE_V1.0.2/MSDK/cloud/alicloud/src/services/dev_bind\awss_notify.c ****     }
 370:C:/Users/stapi/OneDrive/Desktop/GD32VW553/V1_MQTT_OK/GD32VW55X_Wifi_BLE_SDK/GD32VW55x_RELEASE_V1.0.2/MSDK/cloud/alicloud/src/services/dev_bind\awss_notify.c **** #endif
 371:C:/Users/stapi/OneDrive/Desktop/GD32VW553/V1_MQTT_OK/GD32VW55X_Wifi_BLE_SDK/GD32VW55x_RELEASE_V1.0.2/MSDK/cloud/alicloud/src/services/dev_bind\awss_notify.c ****     /*
 372:C:/Users/stapi/OneDrive/Desktop/GD32VW553/V1_MQTT_OK/GD32VW55X_Wifi_BLE_SDK/GD32VW55x_RELEASE_V1.0.2/MSDK/cloud/alicloud/src/services/dev_bind\awss_notify.c ****      * if the last one is not finished, drop current request
 373:C:/Users/stapi/OneDrive/Desktop/GD32VW553/V1_MQTT_OK/GD32VW55X_Wifi_BLE_SDK/GD32VW55x_RELEASE_V1.0.2/MSDK/cloud/alicloud/src/services/dev_bind\awss_notify.c ****      */
 374:C:/Users/stapi/OneDrive/Desktop/GD32VW553/V1_MQTT_OK/GD32VW55X_Wifi_BLE_SDK/GD32VW55x_RELEASE_V1.0.2/MSDK/cloud/alicloud/src/services/dev_bind\awss_notify.c ****     if (coap_session_ctx != NULL) {
 375:C:/Users/stapi/OneDrive/Desktop/GD32VW553/V1_MQTT_OK/GD32VW55X_Wifi_BLE_SDK/GD32VW55x_RELEASE_V1.0.2/MSDK/cloud/alicloud/src/services/dev_bind\awss_notify.c ****         dump_dev_bind_status(STATE_BIND_COAP_INIT_FAIL, "recv get dev info fail");
 376:C:/Users/stapi/OneDrive/Desktop/GD32VW553/V1_MQTT_OK/GD32VW55X_Wifi_BLE_SDK/GD32VW55x_RELEASE_V1.0.2/MSDK/cloud/alicloud/src/services/dev_bind\awss_notify.c ****         return STATE_BIND_COAP_INIT_FAIL;
 377:C:/Users/stapi/OneDrive/Desktop/GD32VW553/V1_MQTT_OK/GD32VW55X_Wifi_BLE_SDK/GD32VW55x_RELEASE_V1.0.2/MSDK/cloud/alicloud/src/services/dev_bind\awss_notify.c ****     }
 378:C:/Users/stapi/OneDrive/Desktop/GD32VW553/V1_MQTT_OK/GD32VW55X_Wifi_BLE_SDK/GD32VW55x_RELEASE_V1.0.2/MSDK/cloud/alicloud/src/services/dev_bind\awss_notify.c ****     /*
 379:C:/Users/stapi/OneDrive/Desktop/GD32VW553/V1_MQTT_OK/GD32VW55X_Wifi_BLE_SDK/GD32VW55x_RELEASE_V1.0.2/MSDK/cloud/alicloud/src/services/dev_bind\awss_notify.c ****      * copy coap session context
 380:C:/Users/stapi/OneDrive/Desktop/GD32VW553/V1_MQTT_OK/GD32VW55X_Wifi_BLE_SDK/GD32VW55x_RELEASE_V1.0.2/MSDK/cloud/alicloud/src/services/dev_bind\awss_notify.c ****      */
 381:C:/Users/stapi/OneDrive/Desktop/GD32VW553/V1_MQTT_OK/GD32VW55X_Wifi_BLE_SDK/GD32VW55x_RELEASE_V1.0.2/MSDK/cloud/alicloud/src/services/dev_bind\awss_notify.c ****     coap_session_ctx = awss_cpy_coap_ctx(request, remote, is_mcast);
 382:C:/Users/stapi/OneDrive/Desktop/GD32VW553/V1_MQTT_OK/GD32VW55X_Wifi_BLE_SDK/GD32VW55x_RELEASE_V1.0.2/MSDK/cloud/alicloud/src/services/dev_bind\awss_notify.c ****     if (coap_session_ctx == NULL) {
 383:C:/Users/stapi/OneDrive/Desktop/GD32VW553/V1_MQTT_OK/GD32VW55X_Wifi_BLE_SDK/GD32VW55x_RELEASE_V1.0.2/MSDK/cloud/alicloud/src/services/dev_bind\awss_notify.c ****         dump_dev_bind_status(STATE_BIND_COAP_INIT_FAIL, "cpy req ctx fail");
 384:C:/Users/stapi/OneDrive/Desktop/GD32VW553/V1_MQTT_OK/GD32VW55X_Wifi_BLE_SDK/GD32VW55x_RELEASE_V1.0.2/MSDK/cloud/alicloud/src/services/dev_bind\awss_notify.c ****         return STATE_BIND_COAP_INIT_FAIL;
 385:C:/Users/stapi/OneDrive/Desktop/GD32VW553/V1_MQTT_OK/GD32VW55X_Wifi_BLE_SDK/GD32VW55x_RELEASE_V1.0.2/MSDK/cloud/alicloud/src/services/dev_bind\awss_notify.c ****     }
 386:C:/Users/stapi/OneDrive/Desktop/GD32VW553/V1_MQTT_OK/GD32VW55X_Wifi_BLE_SDK/GD32VW55x_RELEASE_V1.0.2/MSDK/cloud/alicloud/src/services/dev_bind\awss_notify.c **** 
 387:C:/Users/stapi/OneDrive/Desktop/GD32VW553/V1_MQTT_OK/GD32VW55X_Wifi_BLE_SDK/GD32VW55x_RELEASE_V1.0.2/MSDK/cloud/alicloud/src/services/dev_bind\awss_notify.c ****     timeout = awss_token_timeout();
 388:C:/Users/stapi/OneDrive/Desktop/GD32VW553/V1_MQTT_OK/GD32VW55X_Wifi_BLE_SDK/GD32VW55x_RELEASE_V1.0.2/MSDK/cloud/alicloud/src/services/dev_bind\awss_notify.c ****     if (timeout) {
 389:C:/Users/stapi/OneDrive/Desktop/GD32VW553/V1_MQTT_OK/GD32VW55X_Wifi_BLE_SDK/GD32VW55x_RELEASE_V1.0.2/MSDK/cloud/alicloud/src/services/dev_bind\awss_notify.c ****         produce_random(g_aes_random, sizeof(g_aes_random));
 390:C:/Users/stapi/OneDrive/Desktop/GD32VW553/V1_MQTT_OK/GD32VW55X_Wifi_BLE_SDK/GD32VW55x_RELEASE_V1.0.2/MSDK/cloud/alicloud/src/services/dev_bind\awss_notify.c ****         awss_report_token();
 391:C:/Users/stapi/OneDrive/Desktop/GD32VW553/V1_MQTT_OK/GD32VW55X_Wifi_BLE_SDK/GD32VW55x_RELEASE_V1.0.2/MSDK/cloud/alicloud/src/services/dev_bind\awss_notify.c ****     }
 392:C:/Users/stapi/OneDrive/Desktop/GD32VW553/V1_MQTT_OK/GD32VW55X_Wifi_BLE_SDK/GD32VW55x_RELEASE_V1.0.2/MSDK/cloud/alicloud/src/services/dev_bind\awss_notify.c **** 
 393:C:/Users/stapi/OneDrive/Desktop/GD32VW553/V1_MQTT_OK/GD32VW55X_Wifi_BLE_SDK/GD32VW55x_RELEASE_V1.0.2/MSDK/cloud/alicloud/src/services/dev_bind\awss_notify.c ****     if (get_devinfo_timer == NULL)
 394:C:/Users/stapi/OneDrive/Desktop/GD32VW553/V1_MQTT_OK/GD32VW55X_Wifi_BLE_SDK/GD32VW55x_RELEASE_V1.0.2/MSDK/cloud/alicloud/src/services/dev_bind\awss_notify.c ****         get_devinfo_timer = HAL_Timer_Create("get_devinfo", (void (*)(void *))awss_process_get_devi
 395:C:/Users/stapi/OneDrive/Desktop/GD32VW553/V1_MQTT_OK/GD32VW55X_Wifi_BLE_SDK/GD32VW55x_RELEASE_V1.0.2/MSDK/cloud/alicloud/src/services/dev_bind\awss_notify.c ****     HAL_Timer_Stop(get_devinfo_timer);
 396:C:/Users/stapi/OneDrive/Desktop/GD32VW553/V1_MQTT_OK/GD32VW55X_Wifi_BLE_SDK/GD32VW55x_RELEASE_V1.0.2/MSDK/cloud/alicloud/src/services/dev_bind\awss_notify.c ****     HAL_Timer_Start(get_devinfo_timer, timeout ? AWSS_CHECK_RESP_TIME : 1);
 397:C:/Users/stapi/OneDrive/Desktop/GD32VW553/V1_MQTT_OK/GD32VW55X_Wifi_BLE_SDK/GD32VW55x_RELEASE_V1.0.2/MSDK/cloud/alicloud/src/services/dev_bind\awss_notify.c **** 
 398:C:/Users/stapi/OneDrive/Desktop/GD32VW553/V1_MQTT_OK/GD32VW55X_Wifi_BLE_SDK/GD32VW55x_RELEASE_V1.0.2/MSDK/cloud/alicloud/src/services/dev_bind\awss_notify.c ****     return 0;
 399:C:/Users/stapi/OneDrive/Desktop/GD32VW553/V1_MQTT_OK/GD32VW55X_Wifi_BLE_SDK/GD32VW55x_RELEASE_V1.0.2/MSDK/cloud/alicloud/src/services/dev_bind\awss_notify.c **** }
 462              		.loc 1 399 1
 463 004c 2285     		mv	a0,s0
 464 004e 17030000 		tail	__riscv_restore_6
 464      67000300 
 465              		.cfi_remember_state
 466              		.cfi_restore 21
 467              		.cfi_restore 20
 468              		.cfi_restore 19
 469              		.cfi_restore 18
 470              		.cfi_restore 9
 471              		.cfi_restore 8
 472              		.cfi_restore 1
 473              		.cfi_def_cfa_offset 0
 474              	.LVL61:
 475              	.L27:
 476              		.cfi_restore_state
 374:C:/Users/stapi/OneDrive/Desktop/GD32VW553/V1_MQTT_OK/GD32VW55X_Wifi_BLE_SDK/GD32VW55x_RELEASE_V1.0.2/MSDK/cloud/alicloud/src/services/dev_bind\awss_notify.c ****         dump_dev_bind_status(STATE_BIND_COAP_INIT_FAIL, "recv get dev info fail");
 477              		.loc 1 374 5 is_stmt 1
 374:C:/Users/stapi/OneDrive/Desktop/GD32VW553/V1_MQTT_OK/GD32VW55X_Wifi_BLE_SDK/GD32VW55x_RELEASE_V1.0.2/MSDK/cloud/alicloud/src/services/dev_bind\awss_notify.c ****         dump_dev_bind_status(STATE_BIND_COAP_INIT_FAIL, "recv get dev info fail");
 478              		.loc 1 374 26 is_stmt 0
 479 0056 37090000 		lui	s2,%hi(.LANCHOR4)
 480 005a 13090900 		addi	s2,s2,%lo(.LANCHOR4)
 374:C:/Users/stapi/OneDrive/Desktop/GD32VW553/V1_MQTT_OK/GD32VW55X_Wifi_BLE_SDK/GD32VW55x_RELEASE_V1.0.2/MSDK/cloud/alicloud/src/services/dev_bind\awss_notify.c ****         dump_dev_bind_status(STATE_BIND_COAP_INIT_FAIL, "recv get dev info fail");
 481              		.loc 1 374 8
 482 005e 83270900 		lw	a5,0(s2)
 483 0062 99CF     		beq	a5,zero,.L29
 375:C:/Users/stapi/OneDrive/Desktop/GD32VW553/V1_MQTT_OK/GD32VW55X_Wifi_BLE_SDK/GD32VW55x_RELEASE_V1.0.2/MSDK/cloud/alicloud/src/services/dev_bind\awss_notify.c ****         return STATE_BIND_COAP_INIT_FAIL;
 484              		.loc 1 375 9 is_stmt 1
 485 0064 37060000 		lui	a2,%hi(.LC13)
 486 0068 13060600 		addi	a2,a2,%lo(.LC13)
 487              	.L39:
 383:C:/Users/stapi/OneDrive/Desktop/GD32VW553/V1_MQTT_OK/GD32VW55X_Wifi_BLE_SDK/GD32VW55x_RELEASE_V1.0.2/MSDK/cloud/alicloud/src/services/dev_bind\awss_notify.c ****         return STATE_BIND_COAP_INIT_FAIL;
 488              		.loc 1 383 9 is_stmt 0
 489 006c 9385E47F 		addi	a1,s1,2046
 490 0070 7D45     		li	a0,31
 491 0072 97000000 		call	iotx_state_event
 491      E7800000 
 492              	.LVL62:
 384:C:/Users/stapi/OneDrive/Desktop/GD32VW553/V1_MQTT_OK/GD32VW55X_Wifi_BLE_SDK/GD32VW55x_RELEASE_V1.0.2/MSDK/cloud/alicloud/src/services/dev_bind\awss_notify.c ****     }
 493              		.loc 1 384 9 is_stmt 1
 384:C:/Users/stapi/OneDrive/Desktop/GD32VW553/V1_MQTT_OK/GD32VW55X_Wifi_BLE_SDK/GD32VW55x_RELEASE_V1.0.2/MSDK/cloud/alicloud/src/services/dev_bind\awss_notify.c ****     }
 494              		.loc 1 384 16 is_stmt 0
 495 007a 1384E47F 		addi	s0,s1,2046
 496 007e F9B7     		j	.L26
 497              	.L29:
 498 0080 2A84     		mv	s0,a0
 381:C:/Users/stapi/OneDrive/Desktop/GD32VW553/V1_MQTT_OK/GD32VW55X_Wifi_BLE_SDK/GD32VW55x_RELEASE_V1.0.2/MSDK/cloud/alicloud/src/services/dev_bind\awss_notify.c ****     if (coap_session_ctx == NULL) {
 499              		.loc 1 381 5 is_stmt 1
 381:C:/Users/stapi/OneDrive/Desktop/GD32VW553/V1_MQTT_OK/GD32VW55X_Wifi_BLE_SDK/GD32VW55x_RELEASE_V1.0.2/MSDK/cloud/alicloud/src/services/dev_bind\awss_notify.c ****     if (coap_session_ctx == NULL) {
 500              		.loc 1 381 24 is_stmt 0
 501 0082 5686     		mv	a2,s5
 502 0084 D285     		mv	a1,s4
 503 0086 4E85     		mv	a0,s3
 504 0088 97000000 		call	awss_cpy_coap_ctx
 504      E7800000 
 505              	.LVL63:
 381:C:/Users/stapi/OneDrive/Desktop/GD32VW553/V1_MQTT_OK/GD32VW55X_Wifi_BLE_SDK/GD32VW55x_RELEASE_V1.0.2/MSDK/cloud/alicloud/src/services/dev_bind\awss_notify.c ****     if (coap_session_ctx == NULL) {
 506              		.loc 1 381 22
 507 0090 2320A900 		sw	a0,0(s2)
 382:C:/Users/stapi/OneDrive/Desktop/GD32VW553/V1_MQTT_OK/GD32VW55X_Wifi_BLE_SDK/GD32VW55x_RELEASE_V1.0.2/MSDK/cloud/alicloud/src/services/dev_bind\awss_notify.c ****         dump_dev_bind_status(STATE_BIND_COAP_INIT_FAIL, "cpy req ctx fail");
 508              		.loc 1 382 5 is_stmt 1
 382:C:/Users/stapi/OneDrive/Desktop/GD32VW553/V1_MQTT_OK/GD32VW55X_Wifi_BLE_SDK/GD32VW55x_RELEASE_V1.0.2/MSDK/cloud/alicloud/src/services/dev_bind\awss_notify.c ****         dump_dev_bind_status(STATE_BIND_COAP_INIT_FAIL, "cpy req ctx fail");
 509              		.loc 1 382 8 is_stmt 0
 510 0094 11E5     		bne	a0,zero,.L30
 383:C:/Users/stapi/OneDrive/Desktop/GD32VW553/V1_MQTT_OK/GD32VW55X_Wifi_BLE_SDK/GD32VW55x_RELEASE_V1.0.2/MSDK/cloud/alicloud/src/services/dev_bind\awss_notify.c ****         return STATE_BIND_COAP_INIT_FAIL;
 511              		.loc 1 383 9 is_stmt 1
 512 0096 37060000 		lui	a2,%hi(.LC14)
 513 009a 13060600 		addi	a2,a2,%lo(.LC14)
 514 009e F9B7     		j	.L39
 515              	.L30:
 387:C:/Users/stapi/OneDrive/Desktop/GD32VW553/V1_MQTT_OK/GD32VW55X_Wifi_BLE_SDK/GD32VW55x_RELEASE_V1.0.2/MSDK/cloud/alicloud/src/services/dev_bind\awss_notify.c ****     if (timeout) {
 516              		.loc 1 387 5
 387:C:/Users/stapi/OneDrive/Desktop/GD32VW553/V1_MQTT_OK/GD32VW55X_Wifi_BLE_SDK/GD32VW55x_RELEASE_V1.0.2/MSDK/cloud/alicloud/src/services/dev_bind\awss_notify.c ****     if (timeout) {
 517              		.loc 1 387 15 is_stmt 0
 518 00a0 97000000 		call	awss_token_timeout
 518      E7800000 
 519              	.LVL64:
 520 00a8 2A89     		mv	s2,a0
 521              	.LVL65:
 388:C:/Users/stapi/OneDrive/Desktop/GD32VW553/V1_MQTT_OK/GD32VW55X_Wifi_BLE_SDK/GD32VW55x_RELEASE_V1.0.2/MSDK/cloud/alicloud/src/services/dev_bind\awss_notify.c ****         produce_random(g_aes_random, sizeof(g_aes_random));
 522              		.loc 1 388 5 is_stmt 1
 388:C:/Users/stapi/OneDrive/Desktop/GD32VW553/V1_MQTT_OK/GD32VW55X_Wifi_BLE_SDK/GD32VW55x_RELEASE_V1.0.2/MSDK/cloud/alicloud/src/services/dev_bind\awss_notify.c ****         produce_random(g_aes_random, sizeof(g_aes_random));
 523              		.loc 1 388 8 is_stmt 0
 524 00aa 11CD     		beq	a0,zero,.L31
 389:C:/Users/stapi/OneDrive/Desktop/GD32VW553/V1_MQTT_OK/GD32VW55X_Wifi_BLE_SDK/GD32VW55x_RELEASE_V1.0.2/MSDK/cloud/alicloud/src/services/dev_bind\awss_notify.c ****         awss_report_token();
 525              		.loc 1 389 9 is_stmt 1
 526 00ac 37050000 		lui	a0,%hi(g_aes_random)
 527              	.LVL66:
 528 00b0 C145     		li	a1,16
 529 00b2 13050500 		addi	a0,a0,%lo(g_aes_random)
 530 00b6 97000000 		call	produce_random
 530      E7800000 
 531              	.LVL67:
 390:C:/Users/stapi/OneDrive/Desktop/GD32VW553/V1_MQTT_OK/GD32VW55X_Wifi_BLE_SDK/GD32VW55x_RELEASE_V1.0.2/MSDK/cloud/alicloud/src/services/dev_bind\awss_notify.c ****     }
 532              		.loc 1 390 9
 533 00be 97000000 		call	awss_report_token
 533      E7800000 
 534              	.LVL68:
 535              	.L31:
 393:C:/Users/stapi/OneDrive/Desktop/GD32VW553/V1_MQTT_OK/GD32VW55X_Wifi_BLE_SDK/GD32VW55x_RELEASE_V1.0.2/MSDK/cloud/alicloud/src/services/dev_bind\awss_notify.c ****         get_devinfo_timer = HAL_Timer_Create("get_devinfo", (void (*)(void *))awss_process_get_devi
 536              		.loc 1 393 5
 393:C:/Users/stapi/OneDrive/Desktop/GD32VW553/V1_MQTT_OK/GD32VW55X_Wifi_BLE_SDK/GD32VW55x_RELEASE_V1.0.2/MSDK/cloud/alicloud/src/services/dev_bind\awss_notify.c ****         get_devinfo_timer = HAL_Timer_Create("get_devinfo", (void (*)(void *))awss_process_get_devi
 537              		.loc 1 393 27 is_stmt 0
 538 00c6 B7040000 		lui	s1,%hi(.LANCHOR5)
 393:C:/Users/stapi/OneDrive/Desktop/GD32VW553/V1_MQTT_OK/GD32VW55X_Wifi_BLE_SDK/GD32VW55x_RELEASE_V1.0.2/MSDK/cloud/alicloud/src/services/dev_bind\awss_notify.c ****         get_devinfo_timer = HAL_Timer_Create("get_devinfo", (void (*)(void *))awss_process_get_devi
 539              		.loc 1 393 8
 540 00ca 83A70400 		lw	a5,%lo(.LANCHOR5)(s1)
 541 00ce 93840400 		addi	s1,s1,%lo(.LANCHOR5)
 542 00d2 99EF     		bne	a5,zero,.L32
 394:C:/Users/stapi/OneDrive/Desktop/GD32VW553/V1_MQTT_OK/GD32VW55X_Wifi_BLE_SDK/GD32VW55x_RELEASE_V1.0.2/MSDK/cloud/alicloud/src/services/dev_bind\awss_notify.c ****     HAL_Timer_Stop(get_devinfo_timer);
 543              		.loc 1 394 9 is_stmt 1
 394:C:/Users/stapi/OneDrive/Desktop/GD32VW553/V1_MQTT_OK/GD32VW55X_Wifi_BLE_SDK/GD32VW55x_RELEASE_V1.0.2/MSDK/cloud/alicloud/src/services/dev_bind\awss_notify.c ****     HAL_Timer_Stop(get_devinfo_timer);
 544              		.loc 1 394 29 is_stmt 0
 545 00d4 B7050000 		lui	a1,%hi(awss_process_get_devinfo)
 546 00d8 37050000 		lui	a0,%hi(.LC15)
 547 00dc 0146     		li	a2,0
 548 00de 93850500 		addi	a1,a1,%lo(awss_process_get_devinfo)
 549 00e2 13050500 		addi	a0,a0,%lo(.LC15)
 550 00e6 97000000 		call	HAL_Timer_Create
 550      E7800000 
 551              	.LVL69:
 394:C:/Users/stapi/OneDrive/Desktop/GD32VW553/V1_MQTT_OK/GD32VW55X_Wifi_BLE_SDK/GD32VW55x_RELEASE_V1.0.2/MSDK/cloud/alicloud/src/services/dev_bind\awss_notify.c ****     HAL_Timer_Stop(get_devinfo_timer);
 552              		.loc 1 394 27
 553 00ee 88C0     		sw	a0,0(s1)
 554              	.L32:
 395:C:/Users/stapi/OneDrive/Desktop/GD32VW553/V1_MQTT_OK/GD32VW55X_Wifi_BLE_SDK/GD32VW55x_RELEASE_V1.0.2/MSDK/cloud/alicloud/src/services/dev_bind\awss_notify.c ****     HAL_Timer_Start(get_devinfo_timer, timeout ? AWSS_CHECK_RESP_TIME : 1);
 555              		.loc 1 395 5 is_stmt 1
 556 00f0 8840     		lw	a0,0(s1)
 557 00f2 97000000 		call	HAL_Timer_Stop
 557      E7800000 
 558              	.LVL70:
 396:C:/Users/stapi/OneDrive/Desktop/GD32VW553/V1_MQTT_OK/GD32VW55X_Wifi_BLE_SDK/GD32VW55x_RELEASE_V1.0.2/MSDK/cloud/alicloud/src/services/dev_bind\awss_notify.c **** 
 559              		.loc 1 396 5
 560 00fa 8840     		lw	a0,0(s1)
 561 00fc 9305C012 		li	a1,300
 562 0100 63130900 		bne	s2,zero,.L33
 563 0104 8545     		li	a1,1
 564              	.L33:
 565 0106 97000000 		call	HAL_Timer_Start
 565      E7800000 
 566              	.LVL71:
 398:C:/Users/stapi/OneDrive/Desktop/GD32VW553/V1_MQTT_OK/GD32VW55X_Wifi_BLE_SDK/GD32VW55x_RELEASE_V1.0.2/MSDK/cloud/alicloud/src/services/dev_bind\awss_notify.c **** }
 567              		.loc 1 398 5
 398:C:/Users/stapi/OneDrive/Desktop/GD32VW553/V1_MQTT_OK/GD32VW55X_Wifi_BLE_SDK/GD32VW55x_RELEASE_V1.0.2/MSDK/cloud/alicloud/src/services/dev_bind\awss_notify.c **** }
 568              		.loc 1 398 12 is_stmt 0
 569 010e 3DBF     		j	.L26
 570              		.cfi_endproc
 571              	.LFE84:
 573              		.section	.text.os_zalloc.constprop.0,"ax",@progbits
 574              		.align	1
 576              	os_zalloc.constprop.0:
 577              	.LFB83:
 578              		.file 2 "..\\..\\..\\..\\cloud\\alicloud\\src\\services\\dev_bind\\os/os.h"
   1:..\..\..\..\cloud\alicloud\src\services\dev_bind\os/os.h **** /*
   2:..\..\..\..\cloud\alicloud\src\services\dev_bind\os/os.h ****  * Copyright (C) 2015-2018 Alibaba Group Holding Limited
   3:..\..\..\..\cloud\alicloud\src\services\dev_bind\os/os.h ****  */
   4:..\..\..\..\cloud\alicloud\src\services\dev_bind\os/os.h **** 
   5:..\..\..\..\cloud\alicloud\src\services\dev_bind\os/os.h **** #ifndef __AWSS_OS_H__
   6:..\..\..\..\cloud\alicloud\src\services\dev_bind\os/os.h **** #define __AWSS_OS_H__
   7:..\..\..\..\cloud\alicloud\src\services\dev_bind\os/os.h **** 
   8:..\..\..\..\cloud\alicloud\src\services\dev_bind\os/os.h **** #ifdef __cplusplus
   9:..\..\..\..\cloud\alicloud\src\services\dev_bind\os/os.h **** extern "C" {
  10:..\..\..\..\cloud\alicloud\src\services\dev_bind\os/os.h **** #endif
  11:..\..\..\..\cloud\alicloud\src\services\dev_bind\os/os.h **** #include <ctype.h>
  12:..\..\..\..\cloud\alicloud\src\services\dev_bind\os/os.h **** #include "iot_import.h"
  13:..\..\..\..\cloud\alicloud\src\services\dev_bind\os/os.h **** #include "iot_export.h"
  14:..\..\..\..\cloud\alicloud\src\services\dev_bind\os/os.h **** #include "product/product.h"
  15:..\..\..\..\cloud\alicloud\src\services\dev_bind\os/os.h **** #include "platform.h"
  16:..\..\..\..\cloud\alicloud\src\services\dev_bind\os/os.h **** 
  17:..\..\..\..\cloud\alicloud\src\services\dev_bind\os/os.h **** /** @defgroup group_os os
  18:..\..\..\..\cloud\alicloud\src\services\dev_bind\os/os.h ****  *  @{
  19:..\..\..\..\cloud\alicloud\src\services\dev_bind\os/os.h ****  */
  20:..\..\..\..\cloud\alicloud\src\services\dev_bind\os/os.h **** 
  21:..\..\..\..\cloud\alicloud\src\services\dev_bind\os/os.h **** #define OS_MAX_SSID_LEN         PLATFORM_MAX_SSID_LEN
  22:..\..\..\..\cloud\alicloud\src\services\dev_bind\os/os.h **** #define OS_MAX_PASSWD_LEN       PLATFORM_MAX_PASSWD_LEN
  23:..\..\..\..\cloud\alicloud\src\services\dev_bind\os/os.h **** 
  24:..\..\..\..\cloud\alicloud\src\services\dev_bind\os/os.h **** #define OS_MAC_LEN              PLATFORM_MAC_LEN
  25:..\..\..\..\cloud\alicloud\src\services\dev_bind\os/os.h **** #define OS_IP_LEN               PLATFORM_IP_LEN
  26:..\..\..\..\cloud\alicloud\src\services\dev_bind\os/os.h **** #define OS_ETH_ALEN             ETH_ALEN
  27:..\..\..\..\cloud\alicloud\src\services\dev_bind\os/os.h **** 
  28:..\..\..\..\cloud\alicloud\src\services\dev_bind\os/os.h **** #define OS_PRODUCT_KEY_LEN      PRODUCT_KEY_LEN
  29:..\..\..\..\cloud\alicloud\src\services\dev_bind\os/os.h **** #define OS_PRODUCT_SECRET_LEN   PRODUCT_SECRET_LEN
  30:..\..\..\..\cloud\alicloud\src\services\dev_bind\os/os.h **** #define OS_DEVICE_NAME_LEN      DEVICE_NAME_LEN
  31:..\..\..\..\cloud\alicloud\src\services\dev_bind\os/os.h **** #define OS_DEVICE_SECRET_LEN    DEVICE_SECRET_LEN
  32:..\..\..\..\cloud\alicloud\src\services\dev_bind\os/os.h **** 
  33:..\..\..\..\cloud\alicloud\src\services\dev_bind\os/os.h **** /***************************************** Misc Interface *****************************************
  34:..\..\..\..\cloud\alicloud\src\services\dev_bind\os/os.h **** 
  35:..\..\..\..\cloud\alicloud\src\services\dev_bind\os/os.h **** /** @defgroup group_misc misc
  36:..\..\..\..\cloud\alicloud\src\services\dev_bind\os/os.h ****  *  @{
  37:..\..\..\..\cloud\alicloud\src\services\dev_bind\os/os.h ****  */
  38:..\..\..\..\cloud\alicloud\src\services\dev_bind\os/os.h **** /**
  39:..\..\..\..\cloud\alicloud\src\services\dev_bind\os/os.h ****  * @brief .
  40:..\..\..\..\cloud\alicloud\src\services\dev_bind\os/os.h ****  *
  41:..\..\..\..\cloud\alicloud\src\services\dev_bind\os/os.h ****  * @param None.
  42:..\..\..\..\cloud\alicloud\src\services\dev_bind\os/os.h ****  * @return
  43:..\..\..\..\cloud\alicloud\src\services\dev_bind\os/os.h ****  * @verbatim
  44:..\..\..\..\cloud\alicloud\src\services\dev_bind\os/os.h ****  * = 0, This platform is little endian.
  45:..\..\..\..\cloud\alicloud\src\services\dev_bind\os/os.h ****  * = 1, This platform is big endian.
  46:..\..\..\..\cloud\alicloud\src\services\dev_bind\os/os.h ****  * @endverbatim
  47:..\..\..\..\cloud\alicloud\src\services\dev_bind\os/os.h ****  * @see None.
  48:..\..\..\..\cloud\alicloud\src\services\dev_bind\os/os.h ****  * @note None.
  49:..\..\..\..\cloud\alicloud\src\services\dev_bind\os/os.h ****  */
  50:..\..\..\..\cloud\alicloud\src\services\dev_bind\os/os.h **** static inline int os_is_big_endian(void)
  51:..\..\..\..\cloud\alicloud\src\services\dev_bind\os/os.h **** {
  52:..\..\..\..\cloud\alicloud\src\services\dev_bind\os/os.h ****     uint32_t data = 0xFF000000;
  53:..\..\..\..\cloud\alicloud\src\services\dev_bind\os/os.h **** 
  54:..\..\..\..\cloud\alicloud\src\services\dev_bind\os/os.h ****     if (0xFF == *(uint8_t *) & data) {
  55:..\..\..\..\cloud\alicloud\src\services\dev_bind\os/os.h ****         return 1;                                    //big endian
  56:..\..\..\..\cloud\alicloud\src\services\dev_bind\os/os.h ****     }
  57:..\..\..\..\cloud\alicloud\src\services\dev_bind\os/os.h **** 
  58:..\..\..\..\cloud\alicloud\src\services\dev_bind\os/os.h ****     return 0;                                        //little endian
  59:..\..\..\..\cloud\alicloud\src\services\dev_bind\os/os.h **** }
  60:..\..\..\..\cloud\alicloud\src\services\dev_bind\os/os.h **** 
  61:..\..\..\..\cloud\alicloud\src\services\dev_bind\os/os.h **** /**
  62:..\..\..\..\cloud\alicloud\src\services\dev_bind\os/os.h ****  * @brief Convert the data from byte order of current CPU(the "host") to big-endian.
  63:..\..\..\..\cloud\alicloud\src\services\dev_bind\os/os.h ****    The size of the data is 16 bits.
  64:..\..\..\..\cloud\alicloud\src\services\dev_bind\os/os.h ****  *
  65:..\..\..\..\cloud\alicloud\src\services\dev_bind\os/os.h ****  * @param[in] data @n Data to be converted.
  66:..\..\..\..\cloud\alicloud\src\services\dev_bind\os/os.h ****  * @return Conversion result.
  67:..\..\..\..\cloud\alicloud\src\services\dev_bind\os/os.h ****  * @see None.
  68:..\..\..\..\cloud\alicloud\src\services\dev_bind\os/os.h ****  * @note None.
  69:..\..\..\..\cloud\alicloud\src\services\dev_bind\os/os.h ****  */
  70:..\..\..\..\cloud\alicloud\src\services\dev_bind\os/os.h **** uint16_t os_htobe16(uint16_t data);
  71:..\..\..\..\cloud\alicloud\src\services\dev_bind\os/os.h **** 
  72:..\..\..\..\cloud\alicloud\src\services\dev_bind\os/os.h **** /**
  73:..\..\..\..\cloud\alicloud\src\services\dev_bind\os/os.h ****  * @brief Convert the data from host to little-endian.
  74:..\..\..\..\cloud\alicloud\src\services\dev_bind\os/os.h ****    The size of the data is 16 bits.
  75:..\..\..\..\cloud\alicloud\src\services\dev_bind\os/os.h ****  *
  76:..\..\..\..\cloud\alicloud\src\services\dev_bind\os/os.h ****  * @param[in] data @n Data to be converted.
  77:..\..\..\..\cloud\alicloud\src\services\dev_bind\os/os.h ****  * @return Conversion result.
  78:..\..\..\..\cloud\alicloud\src\services\dev_bind\os/os.h ****  * @see None.
  79:..\..\..\..\cloud\alicloud\src\services\dev_bind\os/os.h ****  * @note None.
  80:..\..\..\..\cloud\alicloud\src\services\dev_bind\os/os.h ****  */
  81:..\..\..\..\cloud\alicloud\src\services\dev_bind\os/os.h **** uint16_t os_htole16(uint16_t data);
  82:..\..\..\..\cloud\alicloud\src\services\dev_bind\os/os.h **** 
  83:..\..\..\..\cloud\alicloud\src\services\dev_bind\os/os.h **** /**
  84:..\..\..\..\cloud\alicloud\src\services\dev_bind\os/os.h ****  * @brief Convert the data from big-endian to host.
  85:..\..\..\..\cloud\alicloud\src\services\dev_bind\os/os.h ****    The size of the data is 16 bits.
  86:..\..\..\..\cloud\alicloud\src\services\dev_bind\os/os.h ****  *
  87:..\..\..\..\cloud\alicloud\src\services\dev_bind\os/os.h ****  * @param[in] data @n Data to be converted.
  88:..\..\..\..\cloud\alicloud\src\services\dev_bind\os/os.h ****  * @return Conversion result.
  89:..\..\..\..\cloud\alicloud\src\services\dev_bind\os/os.h ****  * @see None.
  90:..\..\..\..\cloud\alicloud\src\services\dev_bind\os/os.h ****  * @note None.
  91:..\..\..\..\cloud\alicloud\src\services\dev_bind\os/os.h ****  */
  92:..\..\..\..\cloud\alicloud\src\services\dev_bind\os/os.h **** uint16_t os_be16toh(uint16_t data);
  93:..\..\..\..\cloud\alicloud\src\services\dev_bind\os/os.h **** 
  94:..\..\..\..\cloud\alicloud\src\services\dev_bind\os/os.h **** /**
  95:..\..\..\..\cloud\alicloud\src\services\dev_bind\os/os.h ****  * @brief Convert the data from little-endian to host.
  96:..\..\..\..\cloud\alicloud\src\services\dev_bind\os/os.h ****    The size of the data is 16 bits.
  97:..\..\..\..\cloud\alicloud\src\services\dev_bind\os/os.h ****  *
  98:..\..\..\..\cloud\alicloud\src\services\dev_bind\os/os.h ****  * @param[in] data @n Data to be converted.
  99:..\..\..\..\cloud\alicloud\src\services\dev_bind\os/os.h ****  * @return Conversion result.
 100:..\..\..\..\cloud\alicloud\src\services\dev_bind\os/os.h ****  * @see None.
 101:..\..\..\..\cloud\alicloud\src\services\dev_bind\os/os.h ****  * @note None.
 102:..\..\..\..\cloud\alicloud\src\services\dev_bind\os/os.h ****  */
 103:..\..\..\..\cloud\alicloud\src\services\dev_bind\os/os.h **** uint16_t os_le16toh(uint16_t data);
 104:..\..\..\..\cloud\alicloud\src\services\dev_bind\os/os.h **** 
 105:..\..\..\..\cloud\alicloud\src\services\dev_bind\os/os.h **** /**
 106:..\..\..\..\cloud\alicloud\src\services\dev_bind\os/os.h ****  * @brief Convert the data from little-endian to host.
 107:..\..\..\..\cloud\alicloud\src\services\dev_bind\os/os.h ****    The size of the data is 32 bits.
 108:..\..\..\..\cloud\alicloud\src\services\dev_bind\os/os.h ****  *
 109:..\..\..\..\cloud\alicloud\src\services\dev_bind\os/os.h ****  * @param[in] data @n Data to be converted.
 110:..\..\..\..\cloud\alicloud\src\services\dev_bind\os/os.h ****  * @return Conversion result.
 111:..\..\..\..\cloud\alicloud\src\services\dev_bind\os/os.h ****  * @see None.
 112:..\..\..\..\cloud\alicloud\src\services\dev_bind\os/os.h ****  * @note None.
 113:..\..\..\..\cloud\alicloud\src\services\dev_bind\os/os.h ****  */
 114:..\..\..\..\cloud\alicloud\src\services\dev_bind\os/os.h **** uint32_t os_le32toh(uint32_t data);
 115:..\..\..\..\cloud\alicloud\src\services\dev_bind\os/os.h **** 
 116:..\..\..\..\cloud\alicloud\src\services\dev_bind\os/os.h **** /**
 117:..\..\..\..\cloud\alicloud\src\services\dev_bind\os/os.h ****  * @brief Convert the data from host to big-endian.
 118:..\..\..\..\cloud\alicloud\src\services\dev_bind\os/os.h ****    The size of the data is 64 bits.
 119:..\..\..\..\cloud\alicloud\src\services\dev_bind\os/os.h ****  *
 120:..\..\..\..\cloud\alicloud\src\services\dev_bind\os/os.h ****  * @param[in] data @n Data to be converted.
 121:..\..\..\..\cloud\alicloud\src\services\dev_bind\os/os.h ****  * @return Conversion result.
 122:..\..\..\..\cloud\alicloud\src\services\dev_bind\os/os.h ****  * @see None.
 123:..\..\..\..\cloud\alicloud\src\services\dev_bind\os/os.h ****  * @note None.
 124:..\..\..\..\cloud\alicloud\src\services\dev_bind\os/os.h ****  */
 125:..\..\..\..\cloud\alicloud\src\services\dev_bind\os/os.h **** //uint64_t os_htobe64(uint64_t data);
 126:..\..\..\..\cloud\alicloud\src\services\dev_bind\os/os.h **** 
 127:..\..\..\..\cloud\alicloud\src\services\dev_bind\os/os.h **** /**
 128:..\..\..\..\cloud\alicloud\src\services\dev_bind\os/os.h ****  * @brief Convert the data from host to little-endian.
 129:..\..\..\..\cloud\alicloud\src\services\dev_bind\os/os.h ****    The size of the data is 64 bits.
 130:..\..\..\..\cloud\alicloud\src\services\dev_bind\os/os.h ****  *
 131:..\..\..\..\cloud\alicloud\src\services\dev_bind\os/os.h ****  * @param[in] data @n Data to be converted.
 132:..\..\..\..\cloud\alicloud\src\services\dev_bind\os/os.h ****  * @return Conversion result.
 133:..\..\..\..\cloud\alicloud\src\services\dev_bind\os/os.h ****  * @see None.
 134:..\..\..\..\cloud\alicloud\src\services\dev_bind\os/os.h ****  * @note None.
 135:..\..\..\..\cloud\alicloud\src\services\dev_bind\os/os.h ****  */
 136:..\..\..\..\cloud\alicloud\src\services\dev_bind\os/os.h **** //uint64_t os_htole64(uint64_t data);
 137:..\..\..\..\cloud\alicloud\src\services\dev_bind\os/os.h **** 
 138:..\..\..\..\cloud\alicloud\src\services\dev_bind\os/os.h **** /**
 139:..\..\..\..\cloud\alicloud\src\services\dev_bind\os/os.h ****  * @brief Convert the data from big-endian to host.
 140:..\..\..\..\cloud\alicloud\src\services\dev_bind\os/os.h ****    The size of the data is 64 bits.
 141:..\..\..\..\cloud\alicloud\src\services\dev_bind\os/os.h ****  *
 142:..\..\..\..\cloud\alicloud\src\services\dev_bind\os/os.h ****  * @param[in] data @n Data to be converted.
 143:..\..\..\..\cloud\alicloud\src\services\dev_bind\os/os.h ****  * @return Conversion result.
 144:..\..\..\..\cloud\alicloud\src\services\dev_bind\os/os.h ****  * @see None.
 145:..\..\..\..\cloud\alicloud\src\services\dev_bind\os/os.h ****  * @note None.
 146:..\..\..\..\cloud\alicloud\src\services\dev_bind\os/os.h ****  */
 147:..\..\..\..\cloud\alicloud\src\services\dev_bind\os/os.h **** //uint64_t os_be64toh(uint64_t data);
 148:..\..\..\..\cloud\alicloud\src\services\dev_bind\os/os.h **** 
 149:..\..\..\..\cloud\alicloud\src\services\dev_bind\os/os.h **** /**
 150:..\..\..\..\cloud\alicloud\src\services\dev_bind\os/os.h ****  * @brief Convert the data from little-endian to host.
 151:..\..\..\..\cloud\alicloud\src\services\dev_bind\os/os.h ****    The size of the data is 64 bits.
 152:..\..\..\..\cloud\alicloud\src\services\dev_bind\os/os.h ****  *
 153:..\..\..\..\cloud\alicloud\src\services\dev_bind\os/os.h ****  * @param[in] data @n Data to be converted.
 154:..\..\..\..\cloud\alicloud\src\services\dev_bind\os/os.h ****  * @return Conversion result.
 155:..\..\..\..\cloud\alicloud\src\services\dev_bind\os/os.h ****  * @see None.
 156:..\..\..\..\cloud\alicloud\src\services\dev_bind\os/os.h ****  * @note None.
 157:..\..\..\..\cloud\alicloud\src\services\dev_bind\os/os.h ****  */
 158:..\..\..\..\cloud\alicloud\src\services\dev_bind\os/os.h **** //uint64_t os_le64toh(uint64_t data);
 159:..\..\..\..\cloud\alicloud\src\services\dev_bind\os/os.h **** 
 160:..\..\..\..\cloud\alicloud\src\services\dev_bind\os/os.h **** /**
 161:..\..\..\..\cloud\alicloud\src\services\dev_bind\os/os.h ****  * @brief Get unaligned 16 bits data which is big-endian and convert to host byte order.
 162:..\..\..\..\cloud\alicloud\src\services\dev_bind\os/os.h ****  *
 163:..\..\..\..\cloud\alicloud\src\services\dev_bind\os/os.h ****  * @param[in] ptr @n The start address of the unaligned data.
 164:..\..\..\..\cloud\alicloud\src\services\dev_bind\os/os.h ****  * @return Result in host byte order.
 165:..\..\..\..\cloud\alicloud\src\services\dev_bind\os/os.h ****  * @see None.
 166:..\..\..\..\cloud\alicloud\src\services\dev_bind\os/os.h ****  * @note None.
 167:..\..\..\..\cloud\alicloud\src\services\dev_bind\os/os.h ****  */
 168:..\..\..\..\cloud\alicloud\src\services\dev_bind\os/os.h **** uint16_t os_get_unaligned_be16(uint8_t *ptr);
 169:..\..\..\..\cloud\alicloud\src\services\dev_bind\os/os.h **** 
 170:..\..\..\..\cloud\alicloud\src\services\dev_bind\os/os.h **** /**
 171:..\..\..\..\cloud\alicloud\src\services\dev_bind\os/os.h ****  * @brief Get unaligned 16 bits data which is little-endian and convert to host byte order.
 172:..\..\..\..\cloud\alicloud\src\services\dev_bind\os/os.h ****  *
 173:..\..\..\..\cloud\alicloud\src\services\dev_bind\os/os.h ****  * @param[in] ptr @n The start address of the unaligned data.
 174:..\..\..\..\cloud\alicloud\src\services\dev_bind\os/os.h ****  * @return Result in host byte order.
 175:..\..\..\..\cloud\alicloud\src\services\dev_bind\os/os.h ****  * @see None.
 176:..\..\..\..\cloud\alicloud\src\services\dev_bind\os/os.h ****  * @note None.
 177:..\..\..\..\cloud\alicloud\src\services\dev_bind\os/os.h ****  */
 178:..\..\..\..\cloud\alicloud\src\services\dev_bind\os/os.h **** uint16_t os_get_unaligned_le16(uint8_t *ptr);
 179:..\..\..\..\cloud\alicloud\src\services\dev_bind\os/os.h **** 
 180:..\..\..\..\cloud\alicloud\src\services\dev_bind\os/os.h **** /**
 181:..\..\..\..\cloud\alicloud\src\services\dev_bind\os/os.h ****  * @brief Get unaligned 32 bits data which is big-endian and convert to host byte order.
 182:..\..\..\..\cloud\alicloud\src\services\dev_bind\os/os.h ****  *
 183:..\..\..\..\cloud\alicloud\src\services\dev_bind\os/os.h ****  * @param[in] ptr @n The start address of the unaligned data.
 184:..\..\..\..\cloud\alicloud\src\services\dev_bind\os/os.h ****  * @return Result in host byte order.
 185:..\..\..\..\cloud\alicloud\src\services\dev_bind\os/os.h ****  * @see None.
 186:..\..\..\..\cloud\alicloud\src\services\dev_bind\os/os.h ****  * @note None.
 187:..\..\..\..\cloud\alicloud\src\services\dev_bind\os/os.h ****  */
 188:..\..\..\..\cloud\alicloud\src\services\dev_bind\os/os.h **** uint32_t os_get_unaligned_be32(uint8_t *ptr);
 189:..\..\..\..\cloud\alicloud\src\services\dev_bind\os/os.h **** 
 190:..\..\..\..\cloud\alicloud\src\services\dev_bind\os/os.h **** /**
 191:..\..\..\..\cloud\alicloud\src\services\dev_bind\os/os.h ****  * @brief Get unaligned 32 bits data which is little-endian and convert to host byte order.
 192:..\..\..\..\cloud\alicloud\src\services\dev_bind\os/os.h ****  *
 193:..\..\..\..\cloud\alicloud\src\services\dev_bind\os/os.h ****  * @param[in] ptr @n The start address of the unaligned data.
 194:..\..\..\..\cloud\alicloud\src\services\dev_bind\os/os.h ****  * @return Result in host byte order.
 195:..\..\..\..\cloud\alicloud\src\services\dev_bind\os/os.h ****  * @see None.
 196:..\..\..\..\cloud\alicloud\src\services\dev_bind\os/os.h ****  * @note None.
 197:..\..\..\..\cloud\alicloud\src\services\dev_bind\os/os.h ****  */
 198:..\..\..\..\cloud\alicloud\src\services\dev_bind\os/os.h **** uint32_t os_get_unaligned_le32(uint8_t *ptr);
 199:..\..\..\..\cloud\alicloud\src\services\dev_bind\os/os.h **** 
 200:..\..\..\..\cloud\alicloud\src\services\dev_bind\os/os.h **** /**
 201:..\..\..\..\cloud\alicloud\src\services\dev_bind\os/os.h ****  * @brief sleep thread itself.
 202:..\..\..\..\cloud\alicloud\src\services\dev_bind\os/os.h ****  *
 203:..\..\..\..\cloud\alicloud\src\services\dev_bind\os/os.h ****  * @param[in] ms @n the time interval for which execution is to be suspended, in milliseconds.
 204:..\..\..\..\cloud\alicloud\src\services\dev_bind\os/os.h ****  * @return None.
 205:..\..\..\..\cloud\alicloud\src\services\dev_bind\os/os.h ****  * @see None.
 206:..\..\..\..\cloud\alicloud\src\services\dev_bind\os/os.h ****  * @note None.
 207:..\..\..\..\cloud\alicloud\src\services\dev_bind\os/os.h ****  */
 208:..\..\..\..\cloud\alicloud\src\services\dev_bind\os/os.h **** static inline void os_msleep(_IN_ uint32_t ms)
 209:..\..\..\..\cloud\alicloud\src\services\dev_bind\os/os.h **** {
 210:..\..\..\..\cloud\alicloud\src\services\dev_bind\os/os.h ****     platform_msleep(ms);
 211:..\..\..\..\cloud\alicloud\src\services\dev_bind\os/os.h **** }
 212:..\..\..\..\cloud\alicloud\src\services\dev_bind\os/os.h **** 
 213:..\..\..\..\cloud\alicloud\src\services\dev_bind\os/os.h **** /**
 214:..\..\..\..\cloud\alicloud\src\services\dev_bind\os/os.h ****  * @brief sleep thread itself.
 215:..\..\..\..\cloud\alicloud\src\services\dev_bind\os/os.h ****  *
 216:..\..\..\..\cloud\alicloud\src\services\dev_bind\os/os.h ****  * @param[in] sec @n the time interval for which execution is to be suspended, in seconds.
 217:..\..\..\..\cloud\alicloud\src\services\dev_bind\os/os.h ****  * @return None.
 218:..\..\..\..\cloud\alicloud\src\services\dev_bind\os/os.h ****  * @see None.
 219:..\..\..\..\cloud\alicloud\src\services\dev_bind\os/os.h ****  * @note None.
 220:..\..\..\..\cloud\alicloud\src\services\dev_bind\os/os.h ****  */
 221:..\..\..\..\cloud\alicloud\src\services\dev_bind\os/os.h **** static inline void os_sleep(_IN_ uint32_t sec)
 222:..\..\..\..\cloud\alicloud\src\services\dev_bind\os/os.h **** {
 223:..\..\..\..\cloud\alicloud\src\services\dev_bind\os/os.h ****     platform_msleep(sec * 1000);
 224:..\..\..\..\cloud\alicloud\src\services\dev_bind\os/os.h **** }
 225:..\..\..\..\cloud\alicloud\src\services\dev_bind\os/os.h **** 
 226:..\..\..\..\cloud\alicloud\src\services\dev_bind\os/os.h **** /**
 227:..\..\..\..\cloud\alicloud\src\services\dev_bind\os/os.h ****  * @brief system reboot immediately.
 228:..\..\..\..\cloud\alicloud\src\services\dev_bind\os/os.h ****  *
 229:..\..\..\..\cloud\alicloud\src\services\dev_bind\os/os.h ****  * @return None.
 230:..\..\..\..\cloud\alicloud\src\services\dev_bind\os/os.h ****  * @see None.
 231:..\..\..\..\cloud\alicloud\src\services\dev_bind\os/os.h ****  * @note None.
 232:..\..\..\..\cloud\alicloud\src\services\dev_bind\os/os.h ****  */
 233:..\..\..\..\cloud\alicloud\src\services\dev_bind\os/os.h **** static inline void os_reboot()
 234:..\..\..\..\cloud\alicloud\src\services\dev_bind\os/os.h **** {
 235:..\..\..\..\cloud\alicloud\src\services\dev_bind\os/os.h ****     platform_reboot();
 236:..\..\..\..\cloud\alicloud\src\services\dev_bind\os/os.h **** }
 237:..\..\..\..\cloud\alicloud\src\services\dev_bind\os/os.h **** 
 238:..\..\..\..\cloud\alicloud\src\services\dev_bind\os/os.h **** /** @} *///end of os_misc
 239:..\..\..\..\cloud\alicloud\src\services\dev_bind\os/os.h **** 
 240:..\..\..\..\cloud\alicloud\src\services\dev_bind\os/os.h **** /***************************************** mutex Interface ****************************************
 241:..\..\..\..\cloud\alicloud\src\services\dev_bind\os/os.h **** 
 242:..\..\..\..\cloud\alicloud\src\services\dev_bind\os/os.h **** /** @defgroup group_os_mutex mutex
 243:..\..\..\..\cloud\alicloud\src\services\dev_bind\os/os.h ****  *  @{
 244:..\..\..\..\cloud\alicloud\src\services\dev_bind\os/os.h ****  */
 245:..\..\..\..\cloud\alicloud\src\services\dev_bind\os/os.h **** 
 246:..\..\..\..\cloud\alicloud\src\services\dev_bind\os/os.h **** /**
 247:..\..\..\..\cloud\alicloud\src\services\dev_bind\os/os.h ****  * @brief Create a mutex.
 248:..\..\..\..\cloud\alicloud\src\services\dev_bind\os/os.h ****  *
 249:..\..\..\..\cloud\alicloud\src\services\dev_bind\os/os.h ****  * @return Mutex handle.
 250:..\..\..\..\cloud\alicloud\src\services\dev_bind\os/os.h ****  * @see None.
 251:..\..\..\..\cloud\alicloud\src\services\dev_bind\os/os.h ****  * @note None.
 252:..\..\..\..\cloud\alicloud\src\services\dev_bind\os/os.h ****  */
 253:..\..\..\..\cloud\alicloud\src\services\dev_bind\os/os.h **** static inline void *os_mutex_init(void)
 254:..\..\..\..\cloud\alicloud\src\services\dev_bind\os/os.h **** {
 255:..\..\..\..\cloud\alicloud\src\services\dev_bind\os/os.h ****     return platform_mutex_init();
 256:..\..\..\..\cloud\alicloud\src\services\dev_bind\os/os.h **** }
 257:..\..\..\..\cloud\alicloud\src\services\dev_bind\os/os.h **** 
 258:..\..\..\..\cloud\alicloud\src\services\dev_bind\os/os.h **** /**
 259:..\..\..\..\cloud\alicloud\src\services\dev_bind\os/os.h ****  * @brief Destroy the specified mutex object, it will free related resource.
 260:..\..\..\..\cloud\alicloud\src\services\dev_bind\os/os.h ****  *
 261:..\..\..\..\cloud\alicloud\src\services\dev_bind\os/os.h ****  * @param[in] mutex @n The specified mutex.
 262:..\..\..\..\cloud\alicloud\src\services\dev_bind\os/os.h ****  * @return None.
 263:..\..\..\..\cloud\alicloud\src\services\dev_bind\os/os.h ****  * @see None.
 264:..\..\..\..\cloud\alicloud\src\services\dev_bind\os/os.h ****  * @note None.
 265:..\..\..\..\cloud\alicloud\src\services\dev_bind\os/os.h ****  */
 266:..\..\..\..\cloud\alicloud\src\services\dev_bind\os/os.h **** static inline void os_mutex_destroy(_IN_ void *mutex)
 267:..\..\..\..\cloud\alicloud\src\services\dev_bind\os/os.h **** {
 268:..\..\..\..\cloud\alicloud\src\services\dev_bind\os/os.h ****     platform_mutex_destroy(mutex);
 269:..\..\..\..\cloud\alicloud\src\services\dev_bind\os/os.h **** }
 270:..\..\..\..\cloud\alicloud\src\services\dev_bind\os/os.h **** 
 271:..\..\..\..\cloud\alicloud\src\services\dev_bind\os/os.h **** /**
 272:..\..\..\..\cloud\alicloud\src\services\dev_bind\os/os.h ****  * @brief Waits until the specified mutex is in the signaled state.
 273:..\..\..\..\cloud\alicloud\src\services\dev_bind\os/os.h ****  *
 274:..\..\..\..\cloud\alicloud\src\services\dev_bind\os/os.h ****  * @param[in] mutex @n the specified mutex.
 275:..\..\..\..\cloud\alicloud\src\services\dev_bind\os/os.h ****  * @return None.
 276:..\..\..\..\cloud\alicloud\src\services\dev_bind\os/os.h ****  * @see None.
 277:..\..\..\..\cloud\alicloud\src\services\dev_bind\os/os.h ****  * @note None.
 278:..\..\..\..\cloud\alicloud\src\services\dev_bind\os/os.h ****  */
 279:..\..\..\..\cloud\alicloud\src\services\dev_bind\os/os.h **** static inline void os_mutex_lock(_IN_ void *mutex)
 280:..\..\..\..\cloud\alicloud\src\services\dev_bind\os/os.h **** {
 281:..\..\..\..\cloud\alicloud\src\services\dev_bind\os/os.h ****     platform_mutex_lock(mutex);
 282:..\..\..\..\cloud\alicloud\src\services\dev_bind\os/os.h **** }
 283:..\..\..\..\cloud\alicloud\src\services\dev_bind\os/os.h **** 
 284:..\..\..\..\cloud\alicloud\src\services\dev_bind\os/os.h **** /**
 285:..\..\..\..\cloud\alicloud\src\services\dev_bind\os/os.h ****  * @brief Releases ownership of the specified mutex object..
 286:..\..\..\..\cloud\alicloud\src\services\dev_bind\os/os.h ****  *
 287:..\..\..\..\cloud\alicloud\src\services\dev_bind\os/os.h ****  * @param[in] mutex @n the specified mutex.
 288:..\..\..\..\cloud\alicloud\src\services\dev_bind\os/os.h ****  * @return None.
 289:..\..\..\..\cloud\alicloud\src\services\dev_bind\os/os.h ****  * @see None.
 290:..\..\..\..\cloud\alicloud\src\services\dev_bind\os/os.h ****  * @note None.
 291:..\..\..\..\cloud\alicloud\src\services\dev_bind\os/os.h ****  */
 292:..\..\..\..\cloud\alicloud\src\services\dev_bind\os/os.h **** static inline void os_mutex_unlock(_IN_ void *mutex)
 293:..\..\..\..\cloud\alicloud\src\services\dev_bind\os/os.h **** {
 294:..\..\..\..\cloud\alicloud\src\services\dev_bind\os/os.h ****     platform_mutex_unlock(mutex);
 295:..\..\..\..\cloud\alicloud\src\services\dev_bind\os/os.h **** }
 296:..\..\..\..\cloud\alicloud\src\services\dev_bind\os/os.h **** 
 297:..\..\..\..\cloud\alicloud\src\services\dev_bind\os/os.h **** /** @} */// end of os_mutex
 298:..\..\..\..\cloud\alicloud\src\services\dev_bind\os/os.h **** 
 299:..\..\..\..\cloud\alicloud\src\services\dev_bind\os/os.h **** /*************************************** semaphore Interface **************************************
 300:..\..\..\..\cloud\alicloud\src\services\dev_bind\os/os.h **** 
 301:..\..\..\..\cloud\alicloud\src\services\dev_bind\os/os.h **** /** @defgroup group_os_semaphore semaphore
 302:..\..\..\..\cloud\alicloud\src\services\dev_bind\os/os.h ****  *  @{
 303:..\..\..\..\cloud\alicloud\src\services\dev_bind\os/os.h ****  */
 304:..\..\..\..\cloud\alicloud\src\services\dev_bind\os/os.h **** 
 305:..\..\..\..\cloud\alicloud\src\services\dev_bind\os/os.h **** /**
 306:..\..\..\..\cloud\alicloud\src\services\dev_bind\os/os.h ****  * @brief Create a semaphore.
 307:..\..\..\..\cloud\alicloud\src\services\dev_bind\os/os.h ****  *
 308:..\..\..\..\cloud\alicloud\src\services\dev_bind\os/os.h ****  * @return semaphore handle.
 309:..\..\..\..\cloud\alicloud\src\services\dev_bind\os/os.h ****  * @see None.
 310:..\..\..\..\cloud\alicloud\src\services\dev_bind\os/os.h ****  * @note The recommended value of maximum count of the semaphore is 255.
 311:..\..\..\..\cloud\alicloud\src\services\dev_bind\os/os.h ****  */
 312:..\..\..\..\cloud\alicloud\src\services\dev_bind\os/os.h **** static inline void *os_semaphore_init(void)
 313:..\..\..\..\cloud\alicloud\src\services\dev_bind\os/os.h **** {
 314:..\..\..\..\cloud\alicloud\src\services\dev_bind\os/os.h ****     return platform_semaphore_init();
 315:..\..\..\..\cloud\alicloud\src\services\dev_bind\os/os.h **** }
 316:..\..\..\..\cloud\alicloud\src\services\dev_bind\os/os.h **** 
 317:..\..\..\..\cloud\alicloud\src\services\dev_bind\os/os.h **** /**
 318:..\..\..\..\cloud\alicloud\src\services\dev_bind\os/os.h ****  * @brief Destroy the specified semaphore object, it will free related resource.
 319:..\..\..\..\cloud\alicloud\src\services\dev_bind\os/os.h ****  *
 320:..\..\..\..\cloud\alicloud\src\services\dev_bind\os/os.h ****  * @param[in] sem @n the specified sem.
 321:..\..\..\..\cloud\alicloud\src\services\dev_bind\os/os.h ****  * @return None.
 322:..\..\..\..\cloud\alicloud\src\services\dev_bind\os/os.h ****  * @see None.
 323:..\..\..\..\cloud\alicloud\src\services\dev_bind\os/os.h ****  * @note None.
 324:..\..\..\..\cloud\alicloud\src\services\dev_bind\os/os.h ****  */
 325:..\..\..\..\cloud\alicloud\src\services\dev_bind\os/os.h **** static inline void os_semaphore_destroy(_IN_ void *sem)
 326:..\..\..\..\cloud\alicloud\src\services\dev_bind\os/os.h **** {
 327:..\..\..\..\cloud\alicloud\src\services\dev_bind\os/os.h ****     platform_semaphore_destroy(sem);
 328:..\..\..\..\cloud\alicloud\src\services\dev_bind\os/os.h **** }
 329:..\..\..\..\cloud\alicloud\src\services\dev_bind\os/os.h **** 
 330:..\..\..\..\cloud\alicloud\src\services\dev_bind\os/os.h **** /**
 331:..\..\..\..\cloud\alicloud\src\services\dev_bind\os/os.h ****  * @brief Wait until the specified mutex is in the signaled state or the time-out interval elapses.
 332:..\..\..\..\cloud\alicloud\src\services\dev_bind\os/os.h ****  *
 333:..\..\..\..\cloud\alicloud\src\services\dev_bind\os/os.h ****  * @param[in] sem @n the specified semaphore.
 334:..\..\..\..\cloud\alicloud\src\services\dev_bind\os/os.h ****  * @param[in] timeout_ms @n timeout interval in millisecond.
 335:..\..\..\..\cloud\alicloud\src\services\dev_bind\os/os.h ****      If timeout_ms is OS_WAIT_INFINITE, the function will return only when the semaphore is signale
 336:..\..\..\..\cloud\alicloud\src\services\dev_bind\os/os.h ****  * @return
 337:..\..\..\..\cloud\alicloud\src\services\dev_bind\os/os.h ****    @verbatim
 338:..\..\..\..\cloud\alicloud\src\services\dev_bind\os/os.h ****    =  0: The state of the specified object is signaled.
 339:..\..\..\..\cloud\alicloud\src\services\dev_bind\os/os.h ****    =  -1: The time-out interval elapsed, and the object's state is nonsignaled.
 340:..\..\..\..\cloud\alicloud\src\services\dev_bind\os/os.h ****    @endverbatim
 341:..\..\..\..\cloud\alicloud\src\services\dev_bind\os/os.h ****  * @see None.
 342:..\..\..\..\cloud\alicloud\src\services\dev_bind\os/os.h ****  * @note None.
 343:..\..\..\..\cloud\alicloud\src\services\dev_bind\os/os.h ****  */
 344:..\..\..\..\cloud\alicloud\src\services\dev_bind\os/os.h **** static inline int os_semaphore_wait(_IN_ void *sem, _IN_ uint32_t timeout_ms)
 345:..\..\..\..\cloud\alicloud\src\services\dev_bind\os/os.h **** {
 346:..\..\..\..\cloud\alicloud\src\services\dev_bind\os/os.h ****     return platform_semaphore_wait(sem, timeout_ms);
 347:..\..\..\..\cloud\alicloud\src\services\dev_bind\os/os.h **** }
 348:..\..\..\..\cloud\alicloud\src\services\dev_bind\os/os.h **** 
 349:..\..\..\..\cloud\alicloud\src\services\dev_bind\os/os.h **** /**
 350:..\..\..\..\cloud\alicloud\src\services\dev_bind\os/os.h ****  * @brief Increases the count of the specified semaphore object by 1.
 351:..\..\..\..\cloud\alicloud\src\services\dev_bind\os/os.h ****  *
 352:..\..\..\..\cloud\alicloud\src\services\dev_bind\os/os.h ****  * @param[in] sem @n the specified semaphore.
 353:..\..\..\..\cloud\alicloud\src\services\dev_bind\os/os.h ****  * @return None.
 354:..\..\..\..\cloud\alicloud\src\services\dev_bind\os/os.h ****  * @see None.
 355:..\..\..\..\cloud\alicloud\src\services\dev_bind\os/os.h ****  * @note None.
 356:..\..\..\..\cloud\alicloud\src\services\dev_bind\os/os.h ****  */
 357:..\..\..\..\cloud\alicloud\src\services\dev_bind\os/os.h **** static inline void os_semaphore_post(_IN_ void *sem)
 358:..\..\..\..\cloud\alicloud\src\services\dev_bind\os/os.h **** {
 359:..\..\..\..\cloud\alicloud\src\services\dev_bind\os/os.h ****     platform_semaphore_post(sem);
 360:..\..\..\..\cloud\alicloud\src\services\dev_bind\os/os.h **** }
 361:..\..\..\..\cloud\alicloud\src\services\dev_bind\os/os.h **** 
 362:..\..\..\..\cloud\alicloud\src\services\dev_bind\os/os.h **** /** @} */// end of os_semaphore
 363:..\..\..\..\cloud\alicloud\src\services\dev_bind\os/os.h **** 
 364:..\..\..\..\cloud\alicloud\src\services\dev_bind\os/os.h **** /**************************************** memory Interface ****************************************
 365:..\..\..\..\cloud\alicloud\src\services\dev_bind\os/os.h **** 
 366:..\..\..\..\cloud\alicloud\src\services\dev_bind\os/os.h **** /** @defgroup group_os_memory_manage memory
 367:..\..\..\..\cloud\alicloud\src\services\dev_bind\os/os.h ****  *  @{
 368:..\..\..\..\cloud\alicloud\src\services\dev_bind\os/os.h ****  */
 369:..\..\..\..\cloud\alicloud\src\services\dev_bind\os/os.h **** 
 370:..\..\..\..\cloud\alicloud\src\services\dev_bind\os/os.h **** /**
 371:..\..\..\..\cloud\alicloud\src\services\dev_bind\os/os.h ****  * @brief Allocates a block of size bytes of memory, returning a pointer to the beginning of the bl
 372:..\..\..\..\cloud\alicloud\src\services\dev_bind\os/os.h ****  *
 373:..\..\..\..\cloud\alicloud\src\services\dev_bind\os/os.h ****  * @param[in] size @n specify block size in bytes.
 374:..\..\..\..\cloud\alicloud\src\services\dev_bind\os/os.h ****  * @return A pointer to the beginning of the block.
 375:..\..\..\..\cloud\alicloud\src\services\dev_bind\os/os.h ****  * @see None.
 376:..\..\..\..\cloud\alicloud\src\services\dev_bind\os/os.h ****  * @note Block value is indeterminate.
 377:..\..\..\..\cloud\alicloud\src\services\dev_bind\os/os.h ****  */
 378:..\..\..\..\cloud\alicloud\src\services\dev_bind\os/os.h **** static inline void *os_malloc(_IN_ uint32_t size)
 379:..\..\..\..\cloud\alicloud\src\services\dev_bind\os/os.h **** {
 380:..\..\..\..\cloud\alicloud\src\services\dev_bind\os/os.h ****     return platform_malloc(size);
 381:..\..\..\..\cloud\alicloud\src\services\dev_bind\os/os.h **** }
 382:..\..\..\..\cloud\alicloud\src\services\dev_bind\os/os.h **** 
 383:..\..\..\..\cloud\alicloud\src\services\dev_bind\os/os.h **** 
 384:..\..\..\..\cloud\alicloud\src\services\dev_bind\os/os.h **** /**
 385:..\..\..\..\cloud\alicloud\src\services\dev_bind\os/os.h ****  * @brief Deallocate memory block
 386:..\..\..\..\cloud\alicloud\src\services\dev_bind\os/os.h ****  *
 387:..\..\..\..\cloud\alicloud\src\services\dev_bind\os/os.h ****  * @param[in] ptr @n Pointer to a memory block previously allocated with platform_malloc.
 388:..\..\..\..\cloud\alicloud\src\services\dev_bind\os/os.h ****  * @return None.
 389:..\..\..\..\cloud\alicloud\src\services\dev_bind\os/os.h ****  * @see None.
 390:..\..\..\..\cloud\alicloud\src\services\dev_bind\os/os.h ****  * @note None.
 391:..\..\..\..\cloud\alicloud\src\services\dev_bind\os/os.h ****  */
 392:..\..\..\..\cloud\alicloud\src\services\dev_bind\os/os.h **** static inline void os_free(_IN_ void *ptr)
 393:..\..\..\..\cloud\alicloud\src\services\dev_bind\os/os.h **** {
 394:..\..\..\..\cloud\alicloud\src\services\dev_bind\os/os.h ****     platform_free(ptr);
 395:..\..\..\..\cloud\alicloud\src\services\dev_bind\os/os.h **** }
 396:..\..\..\..\cloud\alicloud\src\services\dev_bind\os/os.h **** 
 397:..\..\..\..\cloud\alicloud\src\services\dev_bind\os/os.h **** /**
 398:..\..\..\..\cloud\alicloud\src\services\dev_bind\os/os.h ****  * @brief Allocates a memory block with memory initialized to 0,
 399:..\..\..\..\cloud\alicloud\src\services\dev_bind\os/os.h ****      returning a pointer to the beginning of the block.
 400:..\..\..\..\cloud\alicloud\src\services\dev_bind\os/os.h ****  *
 401:..\..\..\..\cloud\alicloud\src\services\dev_bind\os/os.h ****  * @param[in] size @n specify block size in bytes.
 402:..\..\..\..\cloud\alicloud\src\services\dev_bind\os/os.h ****  * @return A pointer to the beginning of the block.
 403:..\..\..\..\cloud\alicloud\src\services\dev_bind\os/os.h ****  * @see None.
 404:..\..\..\..\cloud\alicloud\src\services\dev_bind\os/os.h ****  * @note Block value is indeterminate.
 405:..\..\..\..\cloud\alicloud\src\services\dev_bind\os/os.h ****  */
 406:..\..\..\..\cloud\alicloud\src\services\dev_bind\os/os.h **** static inline void *os_zalloc(uint32_t size)
 579              		.loc 2 406 21 is_stmt 1
 580              		.cfi_startproc
 581 0000 17030000 		call	t0,__riscv_save_1
 581      E7020300 
 582              		.cfi_offset 8, -8
 583              		.cfi_offset 1, -4
 584              		.cfi_def_cfa_offset 16
 585              	.LVL72:
 407:..\..\..\..\cloud\alicloud\src\services\dev_bind\os/os.h **** {
 408:..\..\..\..\cloud\alicloud\src\services\dev_bind\os/os.h ****     void *ptr = os_malloc(size);
 586              		.loc 2 408 5
 587              	.LBB26:
 588              	.LBB27:
 380:..\..\..\..\cloud\alicloud\src\services\dev_bind\os/os.h **** }
 589              		.loc 2 380 5
 380:..\..\..\..\cloud\alicloud\src\services\dev_bind\os/os.h **** }
 590              		.loc 2 380 12 is_stmt 0
 591 0008 13050024 		li	a0,576
 592 000c 97000000 		call	HAL_Malloc
 592      E7800000 
 593              	.LVL73:
 594 0014 2A84     		mv	s0,a0
 595              	.LVL74:
 596              	.LBE27:
 597              	.LBE26:
 409:..\..\..\..\cloud\alicloud\src\services\dev_bind\os/os.h ****     if (ptr != NULL) {
 598              		.loc 2 409 5 is_stmt 1
 599              		.loc 2 409 8 is_stmt 0
 600 0016 01C9     		beq	a0,zero,.L40
 410:..\..\..\..\cloud\alicloud\src\services\dev_bind\os/os.h ****         memset(ptr, 0, size);
 601              		.loc 2 410 9 is_stmt 1
 602 0018 13060024 		li	a2,576
 603 001c 8145     		li	a1,0
 604 001e 97000000 		call	memset
 604      E7800000 
 605              	.LVL75:
 411:..\..\..\..\cloud\alicloud\src\services\dev_bind\os/os.h ****     }
 412:..\..\..\..\cloud\alicloud\src\services\dev_bind\os/os.h ****     return ptr;
 606              		.loc 2 412 5
 607              	.L40:
 413:..\..\..\..\cloud\alicloud\src\services\dev_bind\os/os.h **** }
 608              		.loc 2 413 1 is_stmt 0
 609 0026 2285     		mv	a0,s0
 610 0028 17030000 		tail	__riscv_restore_1
 610      67000300 
 611              		.cfi_restore 8
 612              		.cfi_restore 1
 613              		.cfi_def_cfa_offset 0
 614              		.cfi_endproc
 615              	.LFE83:
 617              		.section	.rodata.awss_process_get_devinfo.str1.4,"aMS",@progbits,1
 618              		.align	2
 619              	.LC16:
 620 0000 74727920 		.string	"try to report token to cloud"
 620      746F2072 
 620      65706F72 
 620      7420746F 
 620      6B656E20 
 621 001d 000000   		.align	2
 622              	.LC17:
 623 0020 6E6F2067 		.string	"no get req"
 623      65742072 
 623      657100
 624 002b 00       		.align	2
 625              	.LC18:
 626 002c 7B25737D 		.string	"{%s}"
 626      00
 627 0031 000000   		.align	2
 628              	.LC19:
 629 0034 7B226964 		.string	"{\"id\":%s,\"code\":%d,\"data\":%s}"
 629      223A2573 
 629      2C22636F 
 629      6465223A 
 629      25642C22 
 630 0052 0000     		.align	2
 631              	.LC20:
 632 0054 5B696E66 		.string	"[inf] "
 632      5D2000
 633 005b 00       		.align	2
 634              	.LC21:
 635 005c 73656E64 		.string	"sending message to app: %s"
 635      696E6720 
 635      6D657373 
 635      61676520 
 635      746F2061 
 636 0077 00       		.align	2
 637              	.LC22:
 638 0078 2F737973 		.string	"/sys/device/info/get"
 638      2F646576 
 638      6963652F 
 638      696E666F 
 638      2F676574 
 639 008d 000000   		.align	2
 640              	.LC23:
 641 0090 2F737973 		.string	"/sys/%s/%s/device/info/get"
 641      2F25732F 
 641      25732F64 
 641      65766963 
 641      652F696E 
 642 00ab 00       		.align	2
 643              	.LC24:
 644 00ac 73656E64 		.string	"sending failed."
 644      696E6720 
 644      6661696C 
 644      65642E00 
 645              		.align	2
 646              	.LC25:
 647 00bc 67657420 		.string	"get token response fail"
 647      746F6B65 
 647      6E207265 
 647      73706F6E 
 647      73652066 
 648              		.section	.text.awss_process_get_devinfo,"ax",@progbits
 649              		.align	1
 651              	awss_process_get_devinfo:
 652              	.LFB69:
 260:C:/Users/stapi/OneDrive/Desktop/GD32VW553/V1_MQTT_OK/GD32VW55X_Wifi_BLE_SDK/GD32VW55x_RELEASE_V1.0.2/MSDK/cloud/alicloud/src/services/dev_bind\awss_notify.c ****     char *buf = NULL;
 653              		.loc 1 260 1 is_stmt 1
 654              		.cfi_startproc
 655 0000 17030000 		call	t0,__riscv_save_5
 655      E7020300 
 656              		.cfi_offset 20, -24
 657              		.cfi_offset 19, -20
 658              		.cfi_offset 18, -16
 659              		.cfi_offset 9, -12
 660              		.cfi_offset 8, -8
 661              		.cfi_offset 1, -4
 662              		.cfi_def_cfa_offset 32
 261:C:/Users/stapi/OneDrive/Desktop/GD32VW553/V1_MQTT_OK/GD32VW55X_Wifi_BLE_SDK/GD32VW55x_RELEASE_V1.0.2/MSDK/cloud/alicloud/src/services/dev_bind\awss_notify.c ****     char *dev_info = NULL;
 663              		.loc 1 261 5
 664              	.LVL76:
 262:C:/Users/stapi/OneDrive/Desktop/GD32VW553/V1_MQTT_OK/GD32VW55X_Wifi_BLE_SDK/GD32VW55x_RELEASE_V1.0.2/MSDK/cloud/alicloud/src/services/dev_bind\awss_notify.c ****     int ret;
 665              		.loc 1 262 5
 263:C:/Users/stapi/OneDrive/Desktop/GD32VW553/V1_MQTT_OK/GD32VW55X_Wifi_BLE_SDK/GD32VW55x_RELEASE_V1.0.2/MSDK/cloud/alicloud/src/services/dev_bind\awss_notify.c ****     if (awss_report_token_suc == 0) {
 666              		.loc 1 263 5
 264:C:/Users/stapi/OneDrive/Desktop/GD32VW553/V1_MQTT_OK/GD32VW55X_Wifi_BLE_SDK/GD32VW55x_RELEASE_V1.0.2/MSDK/cloud/alicloud/src/services/dev_bind\awss_notify.c ****         awss_debug("try to report token to cloud");
 667              		.loc 1 264 5
 264:C:/Users/stapi/OneDrive/Desktop/GD32VW553/V1_MQTT_OK/GD32VW55X_Wifi_BLE_SDK/GD32VW55x_RELEASE_V1.0.2/MSDK/cloud/alicloud/src/services/dev_bind\awss_notify.c ****         awss_debug("try to report token to cloud");
 668              		.loc 1 264 8 is_stmt 0
 669 0008 B7070000 		lui	a5,%hi(awss_report_token_suc)
 260:C:/Users/stapi/OneDrive/Desktop/GD32VW553/V1_MQTT_OK/GD32VW55X_Wifi_BLE_SDK/GD32VW55x_RELEASE_V1.0.2/MSDK/cloud/alicloud/src/services/dev_bind\awss_notify.c ****     char *buf = NULL;
 670              		.loc 1 260 1
 671 000c 3171     		addi	sp,sp,-192
 672              		.cfi_def_cfa_offset 224
 264:C:/Users/stapi/OneDrive/Desktop/GD32VW553/V1_MQTT_OK/GD32VW55X_Wifi_BLE_SDK/GD32VW55x_RELEASE_V1.0.2/MSDK/cloud/alicloud/src/services/dev_bind\awss_notify.c ****         awss_debug("try to report token to cloud");
 673              		.loc 1 264 8
 674 000e 83870700 		lb	a5,%lo(awss_report_token_suc)(a5)
 675 0012 A1E3     		bne	a5,zero,.L47
 265:C:/Users/stapi/OneDrive/Desktop/GD32VW553/V1_MQTT_OK/GD32VW55X_Wifi_BLE_SDK/GD32VW55x_RELEASE_V1.0.2/MSDK/cloud/alicloud/src/services/dev_bind\awss_notify.c ****         HAL_Timer_Start(get_devinfo_timer, AWSS_CHECK_RESP_TIME);
 676              		.loc 1 265 9 is_stmt 1
 677 0014 37070000 		lui	a4,%hi(.LC16)
 678 0018 B7050000 		lui	a1,%hi(.LANCHOR6)
 679 001c 37050000 		lui	a0,%hi(.LC1)
 680 0020 93850500 		addi	a1,a1,%lo(.LANCHOR6)
 681 0024 13050500 		addi	a0,a0,%lo(.LC1)
 682 0028 13070700 		addi	a4,a4,%lo(.LC16)
 683 002c 9546     		li	a3,5
 684 002e 13069010 		li	a2,265
 685 0032 97000000 		call	LITE_syslog
 685      E7800000 
 686              	.LVL77:
 266:C:/Users/stapi/OneDrive/Desktop/GD32VW553/V1_MQTT_OK/GD32VW55X_Wifi_BLE_SDK/GD32VW55x_RELEASE_V1.0.2/MSDK/cloud/alicloud/src/services/dev_bind\awss_notify.c ****         return 0;
 687              		.loc 1 266 9
 688 003a B7070000 		lui	a5,%hi(.LANCHOR5)
 689 003e 03A50700 		lw	a0,%lo(.LANCHOR5)(a5)
 690 0042 9305C012 		li	a1,300
 691 0046 97000000 		call	HAL_Timer_Start
 691      E7800000 
 692              	.LVL78:
 267:C:/Users/stapi/OneDrive/Desktop/GD32VW553/V1_MQTT_OK/GD32VW55X_Wifi_BLE_SDK/GD32VW55x_RELEASE_V1.0.2/MSDK/cloud/alicloud/src/services/dev_bind\awss_notify.c ****     }
 693              		.loc 1 267 9
 694              	.L72:
 336:C:/Users/stapi/OneDrive/Desktop/GD32VW553/V1_MQTT_OK/GD32VW55X_Wifi_BLE_SDK/GD32VW55x_RELEASE_V1.0.2/MSDK/cloud/alicloud/src/services/dev_bind\awss_notify.c **** 
 695              		.loc 1 336 13 discriminator 1
 338:C:/Users/stapi/OneDrive/Desktop/GD32VW553/V1_MQTT_OK/GD32VW55X_Wifi_BLE_SDK/GD32VW55x_RELEASE_V1.0.2/MSDK/cloud/alicloud/src/services/dev_bind\awss_notify.c **** 
 696              		.loc 1 338 5 discriminator 1
 338:C:/Users/stapi/OneDrive/Desktop/GD32VW553/V1_MQTT_OK/GD32VW55X_Wifi_BLE_SDK/GD32VW55x_RELEASE_V1.0.2/MSDK/cloud/alicloud/src/services/dev_bind\awss_notify.c **** 
 697              		.loc 1 338 12 is_stmt 0 discriminator 1
 698 004e 8144     		li	s1,0
 699 0050 2DA8     		j	.L46
 700              	.LVL79:
 701              	.L47:
 270:C:/Users/stapi/OneDrive/Desktop/GD32VW553/V1_MQTT_OK/GD32VW55X_Wifi_BLE_SDK/GD32VW55x_RELEASE_V1.0.2/MSDK/cloud/alicloud/src/services/dev_bind\awss_notify.c ****         awss_debug("no get req");
 702              		.loc 1 270 5 is_stmt 1
 270:C:/Users/stapi/OneDrive/Desktop/GD32VW553/V1_MQTT_OK/GD32VW55X_Wifi_BLE_SDK/GD32VW55x_RELEASE_V1.0.2/MSDK/cloud/alicloud/src/services/dev_bind\awss_notify.c ****         awss_debug("no get req");
 703              		.loc 1 270 26 is_stmt 0
 704 0052 B7090000 		lui	s3,%hi(.LANCHOR4)
 705 0056 83A40900 		lw	s1,%lo(.LANCHOR4)(s3)
 706 005a 93890900 		addi	s3,s3,%lo(.LANCHOR4)
 270:C:/Users/stapi/OneDrive/Desktop/GD32VW553/V1_MQTT_OK/GD32VW55X_Wifi_BLE_SDK/GD32VW55x_RELEASE_V1.0.2/MSDK/cloud/alicloud/src/services/dev_bind\awss_notify.c ****         awss_debug("no get req");
 707              		.loc 1 270 8
 708 005e 85EC     		bne	s1,zero,.L49
 271:C:/Users/stapi/OneDrive/Desktop/GD32VW553/V1_MQTT_OK/GD32VW55X_Wifi_BLE_SDK/GD32VW55x_RELEASE_V1.0.2/MSDK/cloud/alicloud/src/services/dev_bind\awss_notify.c ****         return STATE_USER_INPUT_NULL_POINTER;
 709              		.loc 1 271 9 is_stmt 1
 710 0060 37070000 		lui	a4,%hi(.LC17)
 711 0064 B7050000 		lui	a1,%hi(.LANCHOR6)
 712 0068 37050000 		lui	a0,%hi(.LC1)
 713 006c 13070700 		addi	a4,a4,%lo(.LC17)
 714 0070 9546     		li	a3,5
 715 0072 1306F010 		li	a2,271
 716 0076 93850500 		addi	a1,a1,%lo(.LANCHOR6)
 717 007a 13050500 		addi	a0,a0,%lo(.LC1)
 718 007e 97000000 		call	LITE_syslog
 718      E7800000 
 719              	.LVL80:
 272:C:/Users/stapi/OneDrive/Desktop/GD32VW553/V1_MQTT_OK/GD32VW55X_Wifi_BLE_SDK/GD32VW55x_RELEASE_V1.0.2/MSDK/cloud/alicloud/src/services/dev_bind\awss_notify.c ****     }
 720              		.loc 1 272 9
 272:C:/Users/stapi/OneDrive/Desktop/GD32VW553/V1_MQTT_OK/GD32VW55X_Wifi_BLE_SDK/GD32VW55x_RELEASE_V1.0.2/MSDK/cloud/alicloud/src/services/dev_bind\awss_notify.c ****     }
 721              		.loc 1 272 16 is_stmt 0
 722 0086 9304F0EF 		li	s1,-257
 723              	.LVL81:
 724              	.L46:
 355:C:/Users/stapi/OneDrive/Desktop/GD32VW553/V1_MQTT_OK/GD32VW55X_Wifi_BLE_SDK/GD32VW55x_RELEASE_V1.0.2/MSDK/cloud/alicloud/src/services/dev_bind\awss_notify.c **** 
 725              		.loc 1 355 1
 726 008a 2685     		mv	a0,s1
 727 008c 2961     		addi	sp,sp,192
 728              		.cfi_remember_state
 729              		.cfi_def_cfa_offset 0
 730 008e 17030000 		tail	__riscv_restore_5
 730      67000300 
 731              		.cfi_restore 20
 732              		.cfi_restore 19
 733              		.cfi_restore 18
 734              		.cfi_restore 9
 735              		.cfi_restore 8
 736              		.cfi_restore 1
 737              		.cfi_def_cfa_offset -32
 738              	.LVL82:
 739              	.L49:
 740              		.cfi_restore_state
 275:C:/Users/stapi/OneDrive/Desktop/GD32VW553/V1_MQTT_OK/GD32VW55X_Wifi_BLE_SDK/GD32VW55x_RELEASE_V1.0.2/MSDK/cloud/alicloud/src/services/dev_bind\awss_notify.c ****         int len = 0, id_len = 0;
 741              		.loc 1 275 5 is_stmt 1
 742              	.LBB28:
 276:C:/Users/stapi/OneDrive/Desktop/GD32VW553/V1_MQTT_OK/GD32VW55X_Wifi_BLE_SDK/GD32VW55x_RELEASE_V1.0.2/MSDK/cloud/alicloud/src/services/dev_bind\awss_notify.c ****         char *msg = NULL, *id = NULL;
 743              		.loc 1 276 9
 279:C:/Users/stapi/OneDrive/Desktop/GD32VW553/V1_MQTT_OK/GD32VW55X_Wifi_BLE_SDK/GD32VW55x_RELEASE_V1.0.2/MSDK/cloud/alicloud/src/services/dev_bind\awss_notify.c ****         struct coap_session_ctx_t *ctx = (struct coap_session_ctx_t *)coap_session_ctx;
 744              		.loc 1 279 14 is_stmt 0
 745 0096 7546     		li	a2,29
 746 0098 8145     		li	a1,0
 747 009a 0810     		addi	a0,sp,32
 276:C:/Users/stapi/OneDrive/Desktop/GD32VW553/V1_MQTT_OK/GD32VW55X_Wifi_BLE_SDK/GD32VW55x_RELEASE_V1.0.2/MSDK/cloud/alicloud/src/services/dev_bind\awss_notify.c ****         char *msg = NULL, *id = NULL;
 748              		.loc 1 276 13
 749 009c 02C0     		sw	zero,0(sp)
 276:C:/Users/stapi/OneDrive/Desktop/GD32VW553/V1_MQTT_OK/GD32VW55X_Wifi_BLE_SDK/GD32VW55x_RELEASE_V1.0.2/MSDK/cloud/alicloud/src/services/dev_bind\awss_notify.c ****         char *msg = NULL, *id = NULL;
 750              		.loc 1 276 22
 751 009e 02C2     		sw	zero,4(sp)
 277:C:/Users/stapi/OneDrive/Desktop/GD32VW553/V1_MQTT_OK/GD32VW55X_Wifi_BLE_SDK/GD32VW55x_RELEASE_V1.0.2/MSDK/cloud/alicloud/src/services/dev_bind\awss_notify.c ****         char req_msg_id[MSG_REQ_ID_LEN + 1];
 752              		.loc 1 277 9 is_stmt 1
 753              	.LVL83:
 278:C:/Users/stapi/OneDrive/Desktop/GD32VW553/V1_MQTT_OK/GD32VW55X_Wifi_BLE_SDK/GD32VW55x_RELEASE_V1.0.2/MSDK/cloud/alicloud/src/services/dev_bind\awss_notify.c ****         char rand_str[RANDOM_MAX_LEN * 2 + 1] = {0};
 754              		.loc 1 278 9
 279:C:/Users/stapi/OneDrive/Desktop/GD32VW553/V1_MQTT_OK/GD32VW55X_Wifi_BLE_SDK/GD32VW55x_RELEASE_V1.0.2/MSDK/cloud/alicloud/src/services/dev_bind\awss_notify.c ****         struct coap_session_ctx_t *ctx = (struct coap_session_ctx_t *)coap_session_ctx;
 755              		.loc 1 279 9
 279:C:/Users/stapi/OneDrive/Desktop/GD32VW553/V1_MQTT_OK/GD32VW55X_Wifi_BLE_SDK/GD32VW55x_RELEASE_V1.0.2/MSDK/cloud/alicloud/src/services/dev_bind\awss_notify.c ****         struct coap_session_ctx_t *ctx = (struct coap_session_ctx_t *)coap_session_ctx;
 756              		.loc 1 279 14 is_stmt 0
 757 00a0 02CE     		sw	zero,28(sp)
 758 00a2 97000000 		call	memset
 758      E7800000 
 759              	.LVL84:
 280:C:/Users/stapi/OneDrive/Desktop/GD32VW553/V1_MQTT_OK/GD32VW55X_Wifi_BLE_SDK/GD32VW55x_RELEASE_V1.0.2/MSDK/cloud/alicloud/src/services/dev_bind\awss_notify.c **** 
 760              		.loc 1 280 9 is_stmt 1
 282:C:/Users/stapi/OneDrive/Desktop/GD32VW553/V1_MQTT_OK/GD32VW55X_Wifi_BLE_SDK/GD32VW55x_RELEASE_V1.0.2/MSDK/cloud/alicloud/src/services/dev_bind\awss_notify.c ****         if (buf == NULL) {
 761              		.loc 1 282 9
 282:C:/Users/stapi/OneDrive/Desktop/GD32VW553/V1_MQTT_OK/GD32VW55X_Wifi_BLE_SDK/GD32VW55x_RELEASE_V1.0.2/MSDK/cloud/alicloud/src/services/dev_bind\awss_notify.c ****         if (buf == NULL) {
 762              		.loc 1 282 15 is_stmt 0
 763 00aa 97000000 		call	os_zalloc.constprop.0
 763      E7800000 
 764              	.LVL85:
 765 00b2 370A0000 		lui	s4,%hi(.LANCHOR5)
 766 00b6 2A84     		mv	s0,a0
 767              	.LVL86:
 283:C:/Users/stapi/OneDrive/Desktop/GD32VW553/V1_MQTT_OK/GD32VW55X_Wifi_BLE_SDK/GD32VW55x_RELEASE_V1.0.2/MSDK/cloud/alicloud/src/services/dev_bind\awss_notify.c ****             ret = STATE_SYS_DEPEND_MALLOC;
 768              		.loc 1 283 9 is_stmt 1
 769 00b8 130A0A00 		addi	s4,s4,%lo(.LANCHOR5)
 283:C:/Users/stapi/OneDrive/Desktop/GD32VW553/V1_MQTT_OK/GD32VW55X_Wifi_BLE_SDK/GD32VW55x_RELEASE_V1.0.2/MSDK/cloud/alicloud/src/services/dev_bind\awss_notify.c ****             ret = STATE_SYS_DEPEND_MALLOC;
 770              		.loc 1 283 12 is_stmt 0
 771 00bc 6301051E 		beq	a0,zero,.L50
 287:C:/Users/stapi/OneDrive/Desktop/GD32VW553/V1_MQTT_OK/GD32VW55X_Wifi_BLE_SDK/GD32VW55x_RELEASE_V1.0.2/MSDK/cloud/alicloud/src/services/dev_bind\awss_notify.c ****         if (dev_info == NULL) {
 772              		.loc 1 287 9 is_stmt 1
 287:C:/Users/stapi/OneDrive/Desktop/GD32VW553/V1_MQTT_OK/GD32VW55X_Wifi_BLE_SDK/GD32VW55x_RELEASE_V1.0.2/MSDK/cloud/alicloud/src/services/dev_bind\awss_notify.c ****         if (dev_info == NULL) {
 773              		.loc 1 287 20 is_stmt 0
 774 00c0 97000000 		call	os_zalloc.constprop.0
 774      E7800000 
 775              	.LVL87:
 776 00c8 2A89     		mv	s2,a0
 777              	.LVL88:
 288:C:/Users/stapi/OneDrive/Desktop/GD32VW553/V1_MQTT_OK/GD32VW55X_Wifi_BLE_SDK/GD32VW55x_RELEASE_V1.0.2/MSDK/cloud/alicloud/src/services/dev_bind\awss_notify.c ****             ret = STATE_SYS_DEPEND_MALLOC;
 778              		.loc 1 288 9 is_stmt 1
 288:C:/Users/stapi/OneDrive/Desktop/GD32VW553/V1_MQTT_OK/GD32VW55X_Wifi_BLE_SDK/GD32VW55x_RELEASE_V1.0.2/MSDK/cloud/alicloud/src/services/dev_bind\awss_notify.c ****             ret = STATE_SYS_DEPEND_MALLOC;
 779              		.loc 1 288 12 is_stmt 0
 780 00ca 630A051C 		beq	a0,zero,.L50
 292:C:/Users/stapi/OneDrive/Desktop/GD32VW553/V1_MQTT_OK/GD32VW55X_Wifi_BLE_SDK/GD32VW55x_RELEASE_V1.0.2/MSDK/cloud/alicloud/src/services/dev_bind\awss_notify.c ****         if (msg == NULL) {
 781              		.loc 1 292 9 is_stmt 1
 292:C:/Users/stapi/OneDrive/Desktop/GD32VW553/V1_MQTT_OK/GD32VW55X_Wifi_BLE_SDK/GD32VW55x_RELEASE_V1.0.2/MSDK/cloud/alicloud/src/services/dev_bind\awss_notify.c ****         if (msg == NULL) {
 782              		.loc 1 292 15 is_stmt 0
 783 00ce 8840     		lw	a0,0(s1)
 784              	.LVL89:
 785 00d0 8A85     		mv	a1,sp
 786 00d2 97000000 		call	awss_cmp_get_coap_payload
 786      E7800000 
 787              	.LVL90:
 293:C:/Users/stapi/OneDrive/Desktop/GD32VW553/V1_MQTT_OK/GD32VW55X_Wifi_BLE_SDK/GD32VW55x_RELEASE_V1.0.2/MSDK/cloud/alicloud/src/services/dev_bind\awss_notify.c ****             ret = STATE_BIND_COAP_MSG_INVALID;
 788              		.loc 1 293 9 is_stmt 1
 293:C:/Users/stapi/OneDrive/Desktop/GD32VW553/V1_MQTT_OK/GD32VW55X_Wifi_BLE_SDK/GD32VW55x_RELEASE_V1.0.2/MSDK/cloud/alicloud/src/services/dev_bind\awss_notify.c ****             ret = STATE_BIND_COAP_MSG_INVALID;
 789              		.loc 1 293 12 is_stmt 0
 790 00da 630F0520 		beq	a0,zero,.L57
 298:C:/Users/stapi/OneDrive/Desktop/GD32VW553/V1_MQTT_OK/GD32VW55X_Wifi_BLE_SDK/GD32VW55x_RELEASE_V1.0.2/MSDK/cloud/alicloud/src/services/dev_bind\awss_notify.c ****         if (id_len > MSG_REQ_ID_LEN) {
 791              		.loc 1 298 9 is_stmt 1
 298:C:/Users/stapi/OneDrive/Desktop/GD32VW553/V1_MQTT_OK/GD32VW55X_Wifi_BLE_SDK/GD32VW55x_RELEASE_V1.0.2/MSDK/cloud/alicloud/src/services/dev_bind\awss_notify.c ****         if (id_len > MSG_REQ_ID_LEN) {
 792              		.loc 1 298 14 is_stmt 0
 793 00de 8245     		lw	a1,0(sp)
 794 00e0 37060000 		lui	a2,%hi(.LC6)
 795 00e4 13060600 		addi	a2,a2,%lo(.LC6)
 796 00e8 0147     		li	a4,0
 797 00ea 5400     		addi	a3,sp,4
 798 00ec 97000000 		call	json_get_value_by_name
 798      E7800000 
 799              	.LVL91:
 299:C:/Users/stapi/OneDrive/Desktop/GD32VW553/V1_MQTT_OK/GD32VW55X_Wifi_BLE_SDK/GD32VW55x_RELEASE_V1.0.2/MSDK/cloud/alicloud/src/services/dev_bind\awss_notify.c ****             ret = STATE_BIND_COAP_MSG_INVALID;
 800              		.loc 1 299 20
 801 00f4 1246     		lw	a2,4(sp)
 299:C:/Users/stapi/OneDrive/Desktop/GD32VW553/V1_MQTT_OK/GD32VW55X_Wifi_BLE_SDK/GD32VW55x_RELEASE_V1.0.2/MSDK/cloud/alicloud/src/services/dev_bind\awss_notify.c ****             ret = STATE_BIND_COAP_MSG_INVALID;
 802              		.loc 1 299 12
 803 00f6 C147     		li	a5,16
 298:C:/Users/stapi/OneDrive/Desktop/GD32VW553/V1_MQTT_OK/GD32VW55X_Wifi_BLE_SDK/GD32VW55x_RELEASE_V1.0.2/MSDK/cloud/alicloud/src/services/dev_bind\awss_notify.c ****         if (id_len > MSG_REQ_ID_LEN) {
 804              		.loc 1 298 14
 805 00f8 AA85     		mv	a1,a0
 806              	.LVL92:
 299:C:/Users/stapi/OneDrive/Desktop/GD32VW553/V1_MQTT_OK/GD32VW55X_Wifi_BLE_SDK/GD32VW55x_RELEASE_V1.0.2/MSDK/cloud/alicloud/src/services/dev_bind\awss_notify.c ****             ret = STATE_BIND_COAP_MSG_INVALID;
 807              		.loc 1 299 9 is_stmt 1
 299:C:/Users/stapi/OneDrive/Desktop/GD32VW553/V1_MQTT_OK/GD32VW55X_Wifi_BLE_SDK/GD32VW55x_RELEASE_V1.0.2/MSDK/cloud/alicloud/src/services/dev_bind\awss_notify.c ****             ret = STATE_BIND_COAP_MSG_INVALID;
 808              		.loc 1 299 12 is_stmt 0
 809 00fa 63CFC71E 		bgt	a2,a5,.L57
 304:C:/Users/stapi/OneDrive/Desktop/GD32VW553/V1_MQTT_OK/GD32VW55X_Wifi_BLE_SDK/GD32VW55x_RELEASE_V1.0.2/MSDK/cloud/alicloud/src/services/dev_bind\awss_notify.c ****         memcpy(req_msg_id, id, id_len);
 810              		.loc 1 304 9 is_stmt 1
 305:C:/Users/stapi/OneDrive/Desktop/GD32VW553/V1_MQTT_OK/GD32VW55X_Wifi_BLE_SDK/GD32VW55x_RELEASE_V1.0.2/MSDK/cloud/alicloud/src/services/dev_bind\awss_notify.c **** 
 811              		.loc 1 305 9 is_stmt 0
 812 00fe 2800     		addi	a0,sp,8
 813              	.LVL93:
 304:C:/Users/stapi/OneDrive/Desktop/GD32VW553/V1_MQTT_OK/GD32VW55X_Wifi_BLE_SDK/GD32VW55x_RELEASE_V1.0.2/MSDK/cloud/alicloud/src/services/dev_bind\awss_notify.c ****         memcpy(req_msg_id, id, id_len);
 814              		.loc 1 304 9
 815 0100 02C4     		sw	zero,8(sp)
 816 0102 02C6     		sw	zero,12(sp)
 817 0104 02C8     		sw	zero,16(sp)
 818 0106 02CA     		sw	zero,20(sp)
 819 0108 230C0100 		sb	zero,24(sp)
 305:C:/Users/stapi/OneDrive/Desktop/GD32VW553/V1_MQTT_OK/GD32VW55X_Wifi_BLE_SDK/GD32VW55x_RELEASE_V1.0.2/MSDK/cloud/alicloud/src/services/dev_bind\awss_notify.c **** 
 820              		.loc 1 305 9 is_stmt 1
 821 010c 97000000 		call	memcpy
 821      E7800000 
 822              	.LVL94:
 307:C:/Users/stapi/OneDrive/Desktop/GD32VW553/V1_MQTT_OK/GD32VW55X_Wifi_BLE_SDK/GD32VW55x_RELEASE_V1.0.2/MSDK/cloud/alicloud/src/services/dev_bind\awss_notify.c ****         snprintf(dev_info, DEV_INFO_LEN_MAX - 1, "{%s}", buf);
 823              		.loc 1 307 9
 824 0114 13060024 		li	a2,576
 825 0118 A285     		mv	a1,s0
 826 011a 0545     		li	a0,1
 827 011c 97000000 		call	awss_build_dev_info
 827      E7800000 
 828              	.LVL95:
 308:C:/Users/stapi/OneDrive/Desktop/GD32VW553/V1_MQTT_OK/GD32VW55X_Wifi_BLE_SDK/GD32VW55x_RELEASE_V1.0.2/MSDK/cloud/alicloud/src/services/dev_bind\awss_notify.c ****         memset(buf, 0x00, DEV_INFO_LEN_MAX);
 829              		.loc 1 308 9
 830 0124 37060000 		lui	a2,%hi(.LC18)
 831 0128 A286     		mv	a3,s0
 832 012a 13060600 		addi	a2,a2,%lo(.LC18)
 833 012e 9305F023 		li	a1,575
 834 0132 4A85     		mv	a0,s2
 835 0134 97000000 		call	snprintf
 835      E7800000 
 836              	.LVL96:
 309:C:/Users/stapi/OneDrive/Desktop/GD32VW553/V1_MQTT_OK/GD32VW55X_Wifi_BLE_SDK/GD32VW55x_RELEASE_V1.0.2/MSDK/cloud/alicloud/src/services/dev_bind\awss_notify.c ****         snprintf(buf, DEV_INFO_LEN_MAX - 1, AWSS_ACK_FMT, req_msg_id, 200, dev_info);
 837              		.loc 1 309 9
 838 013c 13060024 		li	a2,576
 839 0140 8145     		li	a1,0
 840 0142 2285     		mv	a0,s0
 841 0144 97000000 		call	memset
 841      E7800000 
 842              	.LVL97:
 310:C:/Users/stapi/OneDrive/Desktop/GD32VW553/V1_MQTT_OK/GD32VW55X_Wifi_BLE_SDK/GD32VW55x_RELEASE_V1.0.2/MSDK/cloud/alicloud/src/services/dev_bind\awss_notify.c ****         os_free(dev_info);
 843              		.loc 1 310 9
 844 014c 37060000 		lui	a2,%hi(.LC19)
 845 0150 CA87     		mv	a5,s2
 846 0152 1307800C 		li	a4,200
 847 0156 3400     		addi	a3,sp,8
 848 0158 13060600 		addi	a2,a2,%lo(.LC19)
 849 015c 9305F023 		li	a1,575
 850 0160 2285     		mv	a0,s0
 851 0162 97000000 		call	snprintf
 851      E7800000 
 852              	.LVL98:
 311:C:/Users/stapi/OneDrive/Desktop/GD32VW553/V1_MQTT_OK/GD32VW55X_Wifi_BLE_SDK/GD32VW55x_RELEASE_V1.0.2/MSDK/cloud/alicloud/src/services/dev_bind\awss_notify.c **** 
 853              		.loc 1 311 9
 854              	.LBB29:
 855              	.LBB30:
 394:..\..\..\..\cloud\alicloud\src\services\dev_bind\os/os.h **** }
 856              		.loc 2 394 5
 857 016a 4A85     		mv	a0,s2
 858 016c 97000000 		call	HAL_Free
 858      E7800000 
 859              	.LVL99:
 860              	.LBE30:
 861              	.LBE29:
 313:C:/Users/stapi/OneDrive/Desktop/GD32VW553/V1_MQTT_OK/GD32VW55X_Wifi_BLE_SDK/GD32VW55x_RELEASE_V1.0.2/MSDK/cloud/alicloud/src/services/dev_bind\awss_notify.c ****         dump_dev_bind_status(STATE_BIND_SENT_TOKEN_RESP, dev_info);
 862              		.loc 1 313 9
 863 0174 37050000 		lui	a0,%hi(g_aes_random)
 864 0178 8546     		li	a3,1
 865 017a 4146     		li	a2,16
 866 017c 6C08     		addi	a1,sp,28
 867 017e 13050500 		addi	a0,a0,%lo(g_aes_random)
 868 0182 97000000 		call	LITE_hexbuf_convert
 868      E7800000 
 869              	.LVL100:
 314:C:/Users/stapi/OneDrive/Desktop/GD32VW553/V1_MQTT_OK/GD32VW55X_Wifi_BLE_SDK/GD32VW55x_RELEASE_V1.0.2/MSDK/cloud/alicloud/src/services/dev_bind\awss_notify.c ****         awss_info("sending message to app: %s", buf);
 870              		.loc 1 314 9
 871 018a FD75     		li	a1,-4096
 872 018c 4A86     		mv	a2,s2
 873 018e 9385957F 		addi	a1,a1,2041
 874 0192 7D45     		li	a0,31
 875 0194 97000000 		call	iotx_state_event
 875      E7800000 
 876              	.LVL101:
 315:C:/Users/stapi/OneDrive/Desktop/GD32VW553/V1_MQTT_OK/GD32VW55X_Wifi_BLE_SDK/GD32VW55x_RELEASE_V1.0.2/MSDK/cloud/alicloud/src/services/dev_bind\awss_notify.c ****         char topic[TOPIC_LEN_MAX] = { 0 };
 877              		.loc 1 315 9
 315:C:/Users/stapi/OneDrive/Desktop/GD32VW553/V1_MQTT_OK/GD32VW55X_Wifi_BLE_SDK/GD32VW55x_RELEASE_V1.0.2/MSDK/cloud/alicloud/src/services/dev_bind\awss_notify.c ****         char topic[TOPIC_LEN_MAX] = { 0 };
 878              		.loc 1 315 9
 879 019c 37050000 		lui	a0,%hi(.LC20)
 880 01a0 13050500 		addi	a0,a0,%lo(.LC20)
 881 01a4 97000000 		call	HAL_Printf
 881      E7800000 
 882              	.LVL102:
 315:C:/Users/stapi/OneDrive/Desktop/GD32VW553/V1_MQTT_OK/GD32VW55X_Wifi_BLE_SDK/GD32VW55x_RELEASE_V1.0.2/MSDK/cloud/alicloud/src/services/dev_bind\awss_notify.c ****         char topic[TOPIC_LEN_MAX] = { 0 };
 883              		.loc 1 315 9
 884 01ac 37050000 		lui	a0,%hi(.LC21)
 885 01b0 A285     		mv	a1,s0
 886 01b2 13050500 		addi	a0,a0,%lo(.LC21)
 887 01b6 97000000 		call	HAL_Printf
 887      E7800000 
 888              	.LVL103:
 315:C:/Users/stapi/OneDrive/Desktop/GD32VW553/V1_MQTT_OK/GD32VW55X_Wifi_BLE_SDK/GD32VW55x_RELEASE_V1.0.2/MSDK/cloud/alicloud/src/services/dev_bind\awss_notify.c ****         char topic[TOPIC_LEN_MAX] = { 0 };
 889              		.loc 1 315 9
 890 01be 37090000 		lui	s2,%hi(.LC4)
 891              	.LVL104:
 892 01c2 13050900 		addi	a0,s2,%lo(.LC4)
 893 01c6 97000000 		call	HAL_Printf
 893      E7800000 
 894              	.LVL105:
 315:C:/Users/stapi/OneDrive/Desktop/GD32VW553/V1_MQTT_OK/GD32VW55X_Wifi_BLE_SDK/GD32VW55x_RELEASE_V1.0.2/MSDK/cloud/alicloud/src/services/dev_bind\awss_notify.c ****         char topic[TOPIC_LEN_MAX] = { 0 };
 895              		.loc 1 315 9
 316:C:/Users/stapi/OneDrive/Desktop/GD32VW553/V1_MQTT_OK/GD32VW55X_Wifi_BLE_SDK/GD32VW55x_RELEASE_V1.0.2/MSDK/cloud/alicloud/src/services/dev_bind\awss_notify.c ****         if (ctx->is_mcast) {
 896              		.loc 1 316 9
 316:C:/Users/stapi/OneDrive/Desktop/GD32VW553/V1_MQTT_OK/GD32VW55X_Wifi_BLE_SDK/GD32VW55x_RELEASE_V1.0.2/MSDK/cloud/alicloud/src/services/dev_bind\awss_notify.c ****         if (ctx->is_mcast) {
 897              		.loc 1 316 14 is_stmt 0
 898 01ce 1306C007 		li	a2,124
 899 01d2 8145     		li	a1,0
 900 01d4 C800     		addi	a0,sp,68
 901 01d6 82C0     		sw	zero,64(sp)
 902 01d8 97000000 		call	memset
 902      E7800000 
 903              	.LVL106:
 317:C:/Users/stapi/OneDrive/Desktop/GD32VW553/V1_MQTT_OK/GD32VW55X_Wifi_BLE_SDK/GD32VW55x_RELEASE_V1.0.2/MSDK/cloud/alicloud/src/services/dev_bind\awss_notify.c ****             awss_build_topic((const char *)TOPIC_GETDEVICEINFO_MCAST, topic, TOPIC_LEN_MAX);
 904              		.loc 1 317 9 is_stmt 1
 318:C:/Users/stapi/OneDrive/Desktop/GD32VW553/V1_MQTT_OK/GD32VW55X_Wifi_BLE_SDK/GD32VW55x_RELEASE_V1.0.2/MSDK/cloud/alicloud/src/services/dev_bind\awss_notify.c ****         } else {
 905              		.loc 1 318 13 is_stmt 0
 906 01e0 13060008 		li	a2,128
 907 01e4 8C00     		addi	a1,sp,64
 317:C:/Users/stapi/OneDrive/Desktop/GD32VW553/V1_MQTT_OK/GD32VW55X_Wifi_BLE_SDK/GD32VW55x_RELEASE_V1.0.2/MSDK/cloud/alicloud/src/services/dev_bind\awss_notify.c ****             awss_build_topic((const char *)TOPIC_GETDEVICEINFO_MCAST, topic, TOPIC_LEN_MAX);
 908              		.loc 1 317 12
 909 01e6 83878400 		lb	a5,8(s1)
 910 01ea CDC7     		beq	a5,zero,.L52
 318:C:/Users/stapi/OneDrive/Desktop/GD32VW553/V1_MQTT_OK/GD32VW55X_Wifi_BLE_SDK/GD32VW55x_RELEASE_V1.0.2/MSDK/cloud/alicloud/src/services/dev_bind\awss_notify.c ****         } else {
 911              		.loc 1 318 13 is_stmt 1
 912 01ec 37050000 		lui	a0,%hi(.LC22)
 913 01f0 13050500 		addi	a0,a0,%lo(.LC22)
 914              	.L71:
 320:C:/Users/stapi/OneDrive/Desktop/GD32VW553/V1_MQTT_OK/GD32VW55X_Wifi_BLE_SDK/GD32VW55x_RELEASE_V1.0.2/MSDK/cloud/alicloud/src/services/dev_bind\awss_notify.c ****         }
 915              		.loc 1 320 13 is_stmt 0
 916 01f4 97000000 		call	awss_build_topic
 916      E7800000 
 917              	.LVL107:
 324:C:/Users/stapi/OneDrive/Desktop/GD32VW553/V1_MQTT_OK/GD32VW55X_Wifi_BLE_SDK/GD32VW55x_RELEASE_V1.0.2/MSDK/cloud/alicloud/src/services/dev_bind\awss_notify.c **** 
 918              		.loc 1 324 9 is_stmt 1
 919 01fc 97000000 		call	awss_update_token
 919      E7800000 
 920              	.LVL108:
 326:C:/Users/stapi/OneDrive/Desktop/GD32VW553/V1_MQTT_OK/GD32VW55X_Wifi_BLE_SDK/GD32VW55x_RELEASE_V1.0.2/MSDK/cloud/alicloud/src/services/dev_bind\awss_notify.c ****             dump_dev_bind_status(STATE_BIND_APP_GET_TOKEN_RESP_FAIL, topic);
 921              		.loc 1 326 9
 326:C:/Users/stapi/OneDrive/Desktop/GD32VW553/V1_MQTT_OK/GD32VW55X_Wifi_BLE_SDK/GD32VW55x_RELEASE_V1.0.2/MSDK/cloud/alicloud/src/services/dev_bind\awss_notify.c ****             dump_dev_bind_status(STATE_BIND_APP_GET_TOKEN_RESP_FAIL, topic);
 922              		.loc 1 326 49 is_stmt 0
 923 0204 2285     		mv	a0,s0
 924 0206 97000000 		call	strlen
 924      E7800000 
 925              	.LVL109:
 326:C:/Users/stapi/OneDrive/Desktop/GD32VW553/V1_MQTT_OK/GD32VW55X_Wifi_BLE_SDK/GD32VW55x_RELEASE_V1.0.2/MSDK/cloud/alicloud/src/services/dev_bind\awss_notify.c ****             dump_dev_bind_status(STATE_BIND_APP_GET_TOKEN_RESP_FAIL, topic);
 926              		.loc 1 326 20
 927 020e 9840     		lw	a4,0(s1)
 928 0210 D040     		lw	a2,4(s1)
 326:C:/Users/stapi/OneDrive/Desktop/GD32VW553/V1_MQTT_OK/GD32VW55X_Wifi_BLE_SDK/GD32VW55x_RELEASE_V1.0.2/MSDK/cloud/alicloud/src/services/dev_bind\awss_notify.c ****             dump_dev_bind_status(STATE_BIND_APP_GET_TOKEN_RESP_FAIL, topic);
 929              		.loc 1 326 49
 930 0212 AA85     		mv	a1,a0
 326:C:/Users/stapi/OneDrive/Desktop/GD32VW553/V1_MQTT_OK/GD32VW55X_Wifi_BLE_SDK/GD32VW55x_RELEASE_V1.0.2/MSDK/cloud/alicloud/src/services/dev_bind\awss_notify.c ****             dump_dev_bind_status(STATE_BIND_APP_GET_TOKEN_RESP_FAIL, topic);
 931              		.loc 1 326 20
 932 0214 8148     		li	a7,0
 933 0216 0148     		li	a6,0
 934 0218 8147     		li	a5,0
 935 021a 9400     		addi	a3,sp,64
 936 021c 2285     		mv	a0,s0
 937 021e 97000000 		call	awss_cmp_coap_send_resp
 937      E7800000 
 938              	.LVL110:
 326:C:/Users/stapi/OneDrive/Desktop/GD32VW553/V1_MQTT_OK/GD32VW55X_Wifi_BLE_SDK/GD32VW55x_RELEASE_V1.0.2/MSDK/cloud/alicloud/src/services/dev_bind\awss_notify.c ****             dump_dev_bind_status(STATE_BIND_APP_GET_TOKEN_RESP_FAIL, topic);
 939              		.loc 1 326 12
 940 0226 63510504 		bge	a0,zero,.L54
 327:C:/Users/stapi/OneDrive/Desktop/GD32VW553/V1_MQTT_OK/GD32VW55X_Wifi_BLE_SDK/GD32VW55x_RELEASE_V1.0.2/MSDK/cloud/alicloud/src/services/dev_bind\awss_notify.c ****             awss_err("sending failed.");
 941              		.loc 1 327 13 is_stmt 1
 942 022a FD75     		li	a1,-4096
 943 022c 9000     		addi	a2,sp,64
 944 022e 9385D57B 		addi	a1,a1,1981
 945 0232 7D45     		li	a0,31
 946              	.LVL111:
 947 0234 97000000 		call	iotx_state_event
 947      E7800000 
 948              	.LVL112:
 328:C:/Users/stapi/OneDrive/Desktop/GD32VW553/V1_MQTT_OK/GD32VW55X_Wifi_BLE_SDK/GD32VW55x_RELEASE_V1.0.2/MSDK/cloud/alicloud/src/services/dev_bind\awss_notify.c ****         }
 949              		.loc 1 328 13
 328:C:/Users/stapi/OneDrive/Desktop/GD32VW553/V1_MQTT_OK/GD32VW55X_Wifi_BLE_SDK/GD32VW55x_RELEASE_V1.0.2/MSDK/cloud/alicloud/src/services/dev_bind\awss_notify.c ****         }
 950              		.loc 1 328 13
 951 023c 37050000 		lui	a0,%hi(.LC2)
 952 0240 13050500 		addi	a0,a0,%lo(.LC2)
 953 0244 97000000 		call	HAL_Printf
 953      E7800000 
 954              	.LVL113:
 328:C:/Users/stapi/OneDrive/Desktop/GD32VW553/V1_MQTT_OK/GD32VW55X_Wifi_BLE_SDK/GD32VW55x_RELEASE_V1.0.2/MSDK/cloud/alicloud/src/services/dev_bind\awss_notify.c ****         }
 955              		.loc 1 328 13
 956 024c 37050000 		lui	a0,%hi(.LC24)
 957 0250 13050500 		addi	a0,a0,%lo(.LC24)
 958 0254 97000000 		call	HAL_Printf
 958      E7800000 
 959              	.LVL114:
 328:C:/Users/stapi/OneDrive/Desktop/GD32VW553/V1_MQTT_OK/GD32VW55X_Wifi_BLE_SDK/GD32VW55x_RELEASE_V1.0.2/MSDK/cloud/alicloud/src/services/dev_bind\awss_notify.c ****         }
 960              		.loc 1 328 13
 961 025c 13050900 		addi	a0,s2,%lo(.LC4)
 962 0260 97000000 		call	HAL_Printf
 962      E7800000 
 963              	.LVL115:
 964              	.L54:
 328:C:/Users/stapi/OneDrive/Desktop/GD32VW553/V1_MQTT_OK/GD32VW55X_Wifi_BLE_SDK/GD32VW55x_RELEASE_V1.0.2/MSDK/cloud/alicloud/src/services/dev_bind\awss_notify.c ****         }
 965              		.loc 1 328 13 discriminator 1
 331:C:/Users/stapi/OneDrive/Desktop/GD32VW553/V1_MQTT_OK/GD32VW55X_Wifi_BLE_SDK/GD32VW55x_RELEASE_V1.0.2/MSDK/cloud/alicloud/src/services/dev_bind\awss_notify.c ****         awss_release_coap_ctx(coap_session_ctx);
 966              		.loc 1 331 9 discriminator 1
 967              	.LBB31:
 968              	.LBB32:
 394:..\..\..\..\cloud\alicloud\src\services\dev_bind\os/os.h **** }
 969              		.loc 2 394 5 discriminator 1
 970 0268 2285     		mv	a0,s0
 971 026a 97000000 		call	HAL_Free
 971      E7800000 
 972              	.LVL116:
 973              	.LBE32:
 974              	.LBE31:
 332:C:/Users/stapi/OneDrive/Desktop/GD32VW553/V1_MQTT_OK/GD32VW55X_Wifi_BLE_SDK/GD32VW55x_RELEASE_V1.0.2/MSDK/cloud/alicloud/src/services/dev_bind\awss_notify.c ****         coap_session_ctx = NULL;
 975              		.loc 1 332 9 discriminator 1
 976 0272 03A50900 		lw	a0,0(s3)
 977 0276 97000000 		call	awss_release_coap_ctx
 977      E7800000 
 978              	.LVL117:
 333:C:/Users/stapi/OneDrive/Desktop/GD32VW553/V1_MQTT_OK/GD32VW55X_Wifi_BLE_SDK/GD32VW55x_RELEASE_V1.0.2/MSDK/cloud/alicloud/src/services/dev_bind\awss_notify.c ****         awss_stop_timer(get_devinfo_timer);
 979              		.loc 1 333 9 discriminator 1
 334:C:/Users/stapi/OneDrive/Desktop/GD32VW553/V1_MQTT_OK/GD32VW55X_Wifi_BLE_SDK/GD32VW55x_RELEASE_V1.0.2/MSDK/cloud/alicloud/src/services/dev_bind\awss_notify.c ****         get_devinfo_timer = NULL;
 980              		.loc 1 334 9 is_stmt 0 discriminator 1
 981 027e 03250A00 		lw	a0,0(s4)
 333:C:/Users/stapi/OneDrive/Desktop/GD32VW553/V1_MQTT_OK/GD32VW55X_Wifi_BLE_SDK/GD32VW55x_RELEASE_V1.0.2/MSDK/cloud/alicloud/src/services/dev_bind\awss_notify.c ****         awss_stop_timer(get_devinfo_timer);
 982              		.loc 1 333 26 discriminator 1
 983 0282 23A00900 		sw	zero,0(s3)
 334:C:/Users/stapi/OneDrive/Desktop/GD32VW553/V1_MQTT_OK/GD32VW55X_Wifi_BLE_SDK/GD32VW55x_RELEASE_V1.0.2/MSDK/cloud/alicloud/src/services/dev_bind\awss_notify.c ****         get_devinfo_timer = NULL;
 984              		.loc 1 334 9 is_stmt 1 discriminator 1
 985 0286 97000000 		call	awss_stop_timer
 985      E7800000 
 986              	.LVL118:
 335:C:/Users/stapi/OneDrive/Desktop/GD32VW553/V1_MQTT_OK/GD32VW55X_Wifi_BLE_SDK/GD32VW55x_RELEASE_V1.0.2/MSDK/cloud/alicloud/src/services/dev_bind\awss_notify.c ****     } while (0);
 987              		.loc 1 335 9 discriminator 1
 335:C:/Users/stapi/OneDrive/Desktop/GD32VW553/V1_MQTT_OK/GD32VW55X_Wifi_BLE_SDK/GD32VW55x_RELEASE_V1.0.2/MSDK/cloud/alicloud/src/services/dev_bind\awss_notify.c ****     } while (0);
 988              		.loc 1 335 27 is_stmt 0 discriminator 1
 989 028e 23200A00 		sw	zero,0(s4)
 990 0292 75BB     		j	.L72
 991              	.L52:
 320:C:/Users/stapi/OneDrive/Desktop/GD32VW553/V1_MQTT_OK/GD32VW55X_Wifi_BLE_SDK/GD32VW55x_RELEASE_V1.0.2/MSDK/cloud/alicloud/src/services/dev_bind\awss_notify.c ****         }
 992              		.loc 1 320 13 is_stmt 1
 993 0294 37050000 		lui	a0,%hi(.LC23)
 994 0298 13050500 		addi	a0,a0,%lo(.LC23)
 995 029c A1BF     		j	.L71
 996              	.LVL119:
 997              	.L50:
 284:C:/Users/stapi/OneDrive/Desktop/GD32VW553/V1_MQTT_OK/GD32VW55X_Wifi_BLE_SDK/GD32VW55x_RELEASE_V1.0.2/MSDK/cloud/alicloud/src/services/dev_bind\awss_notify.c ****             goto GET_DEV_INFO_ERR;
 998              		.loc 1 284 17 is_stmt 0
 999 029e 9304F0DF 		li	s1,-513
 1000              	.LVL120:
 1001              	.LBE28:
 262:C:/Users/stapi/OneDrive/Desktop/GD32VW553/V1_MQTT_OK/GD32VW55X_Wifi_BLE_SDK/GD32VW55x_RELEASE_V1.0.2/MSDK/cloud/alicloud/src/services/dev_bind\awss_notify.c ****     int ret;
 1002              		.loc 1 262 11
 1003 02a2 0149     		li	s2,0
 1004              	.LVL121:
 1005              	.L51:
 1006              	.LDL1:
 341:C:/Users/stapi/OneDrive/Desktop/GD32VW553/V1_MQTT_OK/GD32VW55X_Wifi_BLE_SDK/GD32VW55x_RELEASE_V1.0.2/MSDK/cloud/alicloud/src/services/dev_bind\awss_notify.c ****     awss_release_coap_ctx(coap_session_ctx);
 1007              		.loc 1 341 5 is_stmt 1 discriminator 1
 1008 02a4 37060000 		lui	a2,%hi(.LC25)
 1009 02a8 FD75     		li	a1,-4096
 1010 02aa 13060600 		addi	a2,a2,%lo(.LC25)
 1011 02ae 9385D57B 		addi	a1,a1,1981
 1012 02b2 7D45     		li	a0,31
 1013 02b4 97000000 		call	iotx_state_event
 1013      E7800000 
 1014              	.LVL122:
 342:C:/Users/stapi/OneDrive/Desktop/GD32VW553/V1_MQTT_OK/GD32VW55X_Wifi_BLE_SDK/GD32VW55x_RELEASE_V1.0.2/MSDK/cloud/alicloud/src/services/dev_bind\awss_notify.c ****     coap_session_ctx = NULL;
 1015              		.loc 1 342 5 discriminator 1
 1016 02bc 03A50900 		lw	a0,0(s3)
 1017 02c0 97000000 		call	awss_release_coap_ctx
 1017      E7800000 
 1018              	.LVL123:
 343:C:/Users/stapi/OneDrive/Desktop/GD32VW553/V1_MQTT_OK/GD32VW55X_Wifi_BLE_SDK/GD32VW55x_RELEASE_V1.0.2/MSDK/cloud/alicloud/src/services/dev_bind\awss_notify.c ****     awss_stop_timer(get_devinfo_timer);
 1019              		.loc 1 343 5 discriminator 1
 344:C:/Users/stapi/OneDrive/Desktop/GD32VW553/V1_MQTT_OK/GD32VW55X_Wifi_BLE_SDK/GD32VW55x_RELEASE_V1.0.2/MSDK/cloud/alicloud/src/services/dev_bind\awss_notify.c ****     get_devinfo_timer = NULL;
 1020              		.loc 1 344 5 is_stmt 0 discriminator 1
 1021 02c8 03250A00 		lw	a0,0(s4)
 343:C:/Users/stapi/OneDrive/Desktop/GD32VW553/V1_MQTT_OK/GD32VW55X_Wifi_BLE_SDK/GD32VW55x_RELEASE_V1.0.2/MSDK/cloud/alicloud/src/services/dev_bind\awss_notify.c ****     awss_stop_timer(get_devinfo_timer);
 1022              		.loc 1 343 22 discriminator 1
 1023 02cc 23A00900 		sw	zero,0(s3)
 344:C:/Users/stapi/OneDrive/Desktop/GD32VW553/V1_MQTT_OK/GD32VW55X_Wifi_BLE_SDK/GD32VW55x_RELEASE_V1.0.2/MSDK/cloud/alicloud/src/services/dev_bind\awss_notify.c ****     get_devinfo_timer = NULL;
 1024              		.loc 1 344 5 is_stmt 1 discriminator 1
 1025 02d0 97000000 		call	awss_stop_timer
 1025      E7800000 
 1026              	.LVL124:
 345:C:/Users/stapi/OneDrive/Desktop/GD32VW553/V1_MQTT_OK/GD32VW55X_Wifi_BLE_SDK/GD32VW55x_RELEASE_V1.0.2/MSDK/cloud/alicloud/src/services/dev_bind\awss_notify.c **** 
 1027              		.loc 1 345 5 discriminator 1
 345:C:/Users/stapi/OneDrive/Desktop/GD32VW553/V1_MQTT_OK/GD32VW55X_Wifi_BLE_SDK/GD32VW55x_RELEASE_V1.0.2/MSDK/cloud/alicloud/src/services/dev_bind\awss_notify.c **** 
 1028              		.loc 1 345 23 is_stmt 0 discriminator 1
 1029 02d8 23200A00 		sw	zero,0(s4)
 347:C:/Users/stapi/OneDrive/Desktop/GD32VW553/V1_MQTT_OK/GD32VW55X_Wifi_BLE_SDK/GD32VW55x_RELEASE_V1.0.2/MSDK/cloud/alicloud/src/services/dev_bind\awss_notify.c ****         os_free(buf);
 1030              		.loc 1 347 5 is_stmt 1 discriminator 1
 347:C:/Users/stapi/OneDrive/Desktop/GD32VW553/V1_MQTT_OK/GD32VW55X_Wifi_BLE_SDK/GD32VW55x_RELEASE_V1.0.2/MSDK/cloud/alicloud/src/services/dev_bind\awss_notify.c ****         os_free(buf);
 1031              		.loc 1 347 8 is_stmt 0 discriminator 1
 1032 02dc 11C4     		beq	s0,zero,.L55
 348:C:/Users/stapi/OneDrive/Desktop/GD32VW553/V1_MQTT_OK/GD32VW55X_Wifi_BLE_SDK/GD32VW55x_RELEASE_V1.0.2/MSDK/cloud/alicloud/src/services/dev_bind\awss_notify.c ****     }
 1033              		.loc 1 348 9 is_stmt 1
 1034              	.LVL125:
 1035              	.LBB33:
 1036              	.LBB34:
 394:..\..\..\..\cloud\alicloud\src\services\dev_bind\os/os.h **** }
 1037              		.loc 2 394 5
 1038 02de 2285     		mv	a0,s0
 1039 02e0 97000000 		call	HAL_Free
 1039      E7800000 
 1040              	.LVL126:
 1041              	.L55:
 1042              	.LBE34:
 1043              	.LBE33:
 350:C:/Users/stapi/OneDrive/Desktop/GD32VW553/V1_MQTT_OK/GD32VW55X_Wifi_BLE_SDK/GD32VW55x_RELEASE_V1.0.2/MSDK/cloud/alicloud/src/services/dev_bind\awss_notify.c ****         os_free(dev_info);
 1044              		.loc 1 350 5
 350:C:/Users/stapi/OneDrive/Desktop/GD32VW553/V1_MQTT_OK/GD32VW55X_Wifi_BLE_SDK/GD32VW55x_RELEASE_V1.0.2/MSDK/cloud/alicloud/src/services/dev_bind\awss_notify.c ****         os_free(dev_info);
 1045              		.loc 1 350 8 is_stmt 0
 1046 02e8 E30109DA 		beq	s2,zero,.L46
 351:C:/Users/stapi/OneDrive/Desktop/GD32VW553/V1_MQTT_OK/GD32VW55X_Wifi_BLE_SDK/GD32VW55x_RELEASE_V1.0.2/MSDK/cloud/alicloud/src/services/dev_bind\awss_notify.c ****     }
 1047              		.loc 1 351 9 is_stmt 1
 1048              	.LVL127:
 1049              	.LBB35:
 1050              	.LBB36:
 394:..\..\..\..\cloud\alicloud\src\services\dev_bind\os/os.h **** }
 1051              		.loc 2 394 5
 1052 02ec 4A85     		mv	a0,s2
 1053 02ee 97000000 		call	HAL_Free
 1053      E7800000 
 1054              	.LVL128:
 395:..\..\..\..\cloud\alicloud\src\services\dev_bind\os/os.h **** 
 1055              		.loc 2 395 1 is_stmt 0
 1056 02f6 51BB     		j	.L46
 1057              	.LVL129:
 1058              	.L57:
 1059              	.LBE36:
 1060              	.LBE35:
 1061              	.LBB37:
 300:C:/Users/stapi/OneDrive/Desktop/GD32VW553/V1_MQTT_OK/GD32VW55X_Wifi_BLE_SDK/GD32VW55x_RELEASE_V1.0.2/MSDK/cloud/alicloud/src/services/dev_bind\awss_notify.c ****             goto GET_DEV_INFO_ERR;
 1062              		.loc 1 300 17
 1063 02f8 FD74     		li	s1,-4096
 1064              	.LVL130:
 1065 02fa 9384B47E 		addi	s1,s1,2027
 1066 02fe 5DB7     		j	.L51
 1067              	.LBE37:
 1068              		.cfi_endproc
 1069              	.LFE69:
 1071              		.section	.rodata.awss_notify_dev_info.str1.4,"aMS",@progbits,1
 1072              		.align	2
 1073              	.LC26:
 1074 0000 73756363 		.string	"success"
 1074      65737300 
 1075              		.align	2
 1076              	.LC27:
 1077 0008 6661696C 		.string	"fail"
 1077      00
 1078 000d 000000   		.align	2
 1079              	.LC28:
 1080 0010 70617261 		.string	"params invalid"
 1080      6D732069 
 1080      6E76616C 
 1080      696400
 1081 001f 00       		.align	2
 1082              	.LC29:
 1083 0020 616C6C6F 		.string	"alloc mem fail"
 1083      63206D65 
 1083      6D206661 
 1083      696C00
 1084 002f 00       		.align	2
 1085              	.LC30:
 1086 0030 3235352E 		.string	"255.255.255.255"
 1086      3235352E 
 1086      3235352E 
 1086      32353500 
 1087              		.align	2
 1088              	.LC31:
 1089 0040 7B226964 		.string	"{\"id\":\"%u\",\"version\":\"1.0\",\"method\":\"%s\",\"params\":{%s}}"
 1089      223A2225 
 1089      75222C22 
 1089      76657273 
 1089      696F6E22 
 1090              		.align	2
 1091              	.LC32:
 1092 0078 636F6E6E 		.string	"connect ap notify"
 1092      65637420 
 1092      6170206E 
 1092      6F746966 
 1092      7900
 1093 008a 0000     		.align	2
 1094              	.LC33:
 1095 008c 746F7069 		.string	"topic:%s\n"
 1095      633A2573 
 1095      0A00
 1096 0096 0000     		.align	2
 1097              	.LC34:
 1098 0098 7061796C 		.string	"payload:%s\n"
 1098      6F61643A 
 1098      25730A00 
 1099              		.align	2
 1100              	.LC35:
 1101 00a4 636F6170 		.string	"coap send notify %s"
 1101      2073656E 
 1101      64206E6F 
 1101      74696679 
 1101      20257300 
 1102              		.section	.text.awss_notify_dev_info,"ax",@progbits
 1103              		.align	1
 1104              		.globl	awss_notify_dev_info
 1106              	awss_notify_dev_info:
 1107              	.LFB68:
 186:C:/Users/stapi/OneDrive/Desktop/GD32VW553/V1_MQTT_OK/GD32VW55X_Wifi_BLE_SDK/GD32VW55x_RELEASE_V1.0.2/MSDK/cloud/alicloud/src/services/dev_bind\awss_notify.c ****     char *buf = NULL;
 1108              		.loc 1 186 1 is_stmt 1
 1109              		.cfi_startproc
 1110              	.LVL131:
 1111 0000 17030000 		call	t0,__riscv_save_12
 1111      E7020300 
 1112              		.cfi_offset 27, -52
 1113              		.cfi_offset 26, -48
 1114              		.cfi_offset 25, -44
 1115              		.cfi_offset 24, -40
 1116              		.cfi_offset 23, -36
 1117              		.cfi_offset 22, -32
 1118              		.cfi_offset 21, -28
 1119              		.cfi_offset 20, -24
 1120              		.cfi_offset 19, -20
 1121              		.cfi_offset 18, -16
 1122              		.cfi_offset 9, -12
 1123              		.cfi_offset 8, -8
 1124              		.cfi_offset 1, -4
 1125              		.cfi_def_cfa_offset 64
 187:C:/Users/stapi/OneDrive/Desktop/GD32VW553/V1_MQTT_OK/GD32VW55X_Wifi_BLE_SDK/GD32VW55x_RELEASE_V1.0.2/MSDK/cloud/alicloud/src/services/dev_bind\awss_notify.c ****     char *dev_info = NULL;
 1126              		.loc 1 187 5
 1127              	.LVL132:
 188:C:/Users/stapi/OneDrive/Desktop/GD32VW553/V1_MQTT_OK/GD32VW55X_Wifi_BLE_SDK/GD32VW55x_RELEASE_V1.0.2/MSDK/cloud/alicloud/src/services/dev_bind\awss_notify.c ****     int i;
 1128              		.loc 1 188 5
 189:C:/Users/stapi/OneDrive/Desktop/GD32VW553/V1_MQTT_OK/GD32VW55X_Wifi_BLE_SDK/GD32VW55x_RELEASE_V1.0.2/MSDK/cloud/alicloud/src/services/dev_bind\awss_notify.c ****     platform_netaddr_t notify_sa;
 1129              		.loc 1 189 5
 190:C:/Users/stapi/OneDrive/Desktop/GD32VW553/V1_MQTT_OK/GD32VW55X_Wifi_BLE_SDK/GD32VW55x_RELEASE_V1.0.2/MSDK/cloud/alicloud/src/services/dev_bind\awss_notify.c ****     memset(&notify_sa, 0, sizeof(notify_sa));
 1130              		.loc 1 190 5
 191:C:/Users/stapi/OneDrive/Desktop/GD32VW553/V1_MQTT_OK/GD32VW55X_Wifi_BLE_SDK/GD32VW55x_RELEASE_V1.0.2/MSDK/cloud/alicloud/src/services/dev_bind\awss_notify.c **** 
 1131              		.loc 1 191 5
 186:C:/Users/stapi/OneDrive/Desktop/GD32VW553/V1_MQTT_OK/GD32VW55X_Wifi_BLE_SDK/GD32VW55x_RELEASE_V1.0.2/MSDK/cloud/alicloud/src/services/dev_bind\awss_notify.c ****     char *buf = NULL;
 1132              		.loc 1 186 1 is_stmt 0
 1133 0008 1D71     		addi	sp,sp,-96
 1134              		.cfi_def_cfa_offset 160
 186:C:/Users/stapi/OneDrive/Desktop/GD32VW553/V1_MQTT_OK/GD32VW55X_Wifi_BLE_SDK/GD32VW55x_RELEASE_V1.0.2/MSDK/cloud/alicloud/src/services/dev_bind\awss_notify.c ****     char *buf = NULL;
 1135              		.loc 1 186 1
 1136 000a 2A84     		mv	s0,a0
 1137 000c 2E8A     		mv	s4,a1
 1138              	.LBB38:
 196:C:/Users/stapi/OneDrive/Desktop/GD32VW553/V1_MQTT_OK/GD32VW55X_Wifi_BLE_SDK/GD32VW55x_RELEASE_V1.0.2/MSDK/cloud/alicloud/src/services/dev_bind\awss_notify.c ****         for (i = 0; i < sizeof(notify_map) / sizeof(notify_map[0]); i ++) {
 1139              		.loc 1 196 14
 1140 000e 7546     		li	a2,29
 1141 0010 8145     		li	a1,0
 1142              	.LVL133:
 1143 0012 8800     		addi	a0,sp,64
 1144              	.LVL134:
 1145              	.LBE38:
 191:C:/Users/stapi/OneDrive/Desktop/GD32VW553/V1_MQTT_OK/GD32VW55X_Wifi_BLE_SDK/GD32VW55x_RELEASE_V1.0.2/MSDK/cloud/alicloud/src/services/dev_bind\awss_notify.c **** 
 1146              		.loc 1 191 5
 1147 0014 02D4     		sw	zero,40(sp)
 1148 0016 02D6     		sw	zero,44(sp)
 1149 0018 02D8     		sw	zero,48(sp)
 1150 001a 02DA     		sw	zero,52(sp)
 1151 001c 231C0102 		sh	zero,56(sp)
 193:C:/Users/stapi/OneDrive/Desktop/GD32VW553/V1_MQTT_OK/GD32VW55X_Wifi_BLE_SDK/GD32VW55x_RELEASE_V1.0.2/MSDK/cloud/alicloud/src/services/dev_bind\awss_notify.c ****         void *cb = NULL;
 1152              		.loc 1 193 5 is_stmt 1
 1153              	.LBB46:
 194:C:/Users/stapi/OneDrive/Desktop/GD32VW553/V1_MQTT_OK/GD32VW55X_Wifi_BLE_SDK/GD32VW55x_RELEASE_V1.0.2/MSDK/cloud/alicloud/src/services/dev_bind\awss_notify.c ****         char *method = NULL, *topic = NULL;
 1154              		.loc 1 194 9
 1155              	.LVL135:
 195:C:/Users/stapi/OneDrive/Desktop/GD32VW553/V1_MQTT_OK/GD32VW55X_Wifi_BLE_SDK/GD32VW55x_RELEASE_V1.0.2/MSDK/cloud/alicloud/src/services/dev_bind\awss_notify.c ****         char rand_str[RANDOM_MAX_LEN * 2 + 1] = {0};
 1156              		.loc 1 195 9
 196:C:/Users/stapi/OneDrive/Desktop/GD32VW553/V1_MQTT_OK/GD32VW55X_Wifi_BLE_SDK/GD32VW55x_RELEASE_V1.0.2/MSDK/cloud/alicloud/src/services/dev_bind\awss_notify.c ****         for (i = 0; i < sizeof(notify_map) / sizeof(notify_map[0]); i ++) {
 1157              		.loc 1 196 9
 196:C:/Users/stapi/OneDrive/Desktop/GD32VW553/V1_MQTT_OK/GD32VW55X_Wifi_BLE_SDK/GD32VW55x_RELEASE_V1.0.2/MSDK/cloud/alicloud/src/services/dev_bind\awss_notify.c ****         for (i = 0; i < sizeof(notify_map) / sizeof(notify_map[0]); i ++) {
 1158              		.loc 1 196 14 is_stmt 0
 1159 0020 02DE     		sw	zero,60(sp)
 1160 0022 97000000 		call	memset
 1160      E7800000 
 1161              	.LVL136:
 197:C:/Users/stapi/OneDrive/Desktop/GD32VW553/V1_MQTT_OK/GD32VW55X_Wifi_BLE_SDK/GD32VW55x_RELEASE_V1.0.2/MSDK/cloud/alicloud/src/services/dev_bind\awss_notify.c ****             if (notify_map[i].notify_type != type) {
 1162              		.loc 1 197 9 is_stmt 1
 197:C:/Users/stapi/OneDrive/Desktop/GD32VW553/V1_MQTT_OK/GD32VW55X_Wifi_BLE_SDK/GD32VW55x_RELEASE_V1.0.2/MSDK/cloud/alicloud/src/services/dev_bind\awss_notify.c ****             if (notify_map[i].notify_type != type) {
 1163              		.loc 1 197 21
 198:C:/Users/stapi/OneDrive/Desktop/GD32VW553/V1_MQTT_OK/GD32VW55X_Wifi_BLE_SDK/GD32VW55x_RELEASE_V1.0.2/MSDK/cloud/alicloud/src/services/dev_bind\awss_notify.c ****                 continue;
 1164              		.loc 1 198 13
 1165 002a B7090000 		lui	s3,%hi(.LANCHOR3)
 198:C:/Users/stapi/OneDrive/Desktop/GD32VW553/V1_MQTT_OK/GD32VW55X_Wifi_BLE_SDK/GD32VW55x_RELEASE_V1.0.2/MSDK/cloud/alicloud/src/services/dev_bind\awss_notify.c ****                 continue;
 1166              		.loc 1 198 16 is_stmt 0
 1167 002e 0547     		li	a4,1
 1168 0030 370B0000 		lui	s6,%hi(.LC4)
 1169 0034 93890900 		addi	s3,s3,%lo(.LANCHOR3)
 197:C:/Users/stapi/OneDrive/Desktop/GD32VW553/V1_MQTT_OK/GD32VW55X_Wifi_BLE_SDK/GD32VW55x_RELEASE_V1.0.2/MSDK/cloud/alicloud/src/services/dev_bind\awss_notify.c ****             if (notify_map[i].notify_type != type) {
 1170              		.loc 1 197 16
 1171 0038 8147     		li	a5,0
 198:C:/Users/stapi/OneDrive/Desktop/GD32VW553/V1_MQTT_OK/GD32VW55X_Wifi_BLE_SDK/GD32VW55x_RELEASE_V1.0.2/MSDK/cloud/alicloud/src/services/dev_bind\awss_notify.c ****                 continue;
 1172              		.loc 1 198 16
 1173 003a 630AE400 		beq	s0,a4,.L74
 199:C:/Users/stapi/OneDrive/Desktop/GD32VW553/V1_MQTT_OK/GD32VW55X_Wifi_BLE_SDK/GD32VW55x_RELEASE_V1.0.2/MSDK/cloud/alicloud/src/services/dev_bind\awss_notify.c ****             }
 1174              		.loc 1 199 17 is_stmt 1
 197:C:/Users/stapi/OneDrive/Desktop/GD32VW553/V1_MQTT_OK/GD32VW55X_Wifi_BLE_SDK/GD32VW55x_RELEASE_V1.0.2/MSDK/cloud/alicloud/src/services/dev_bind\awss_notify.c ****             if (notify_map[i].notify_type != type) {
 1175              		.loc 1 197 69
 1176              	.LVL137:
 197:C:/Users/stapi/OneDrive/Desktop/GD32VW553/V1_MQTT_OK/GD32VW55X_Wifi_BLE_SDK/GD32VW55x_RELEASE_V1.0.2/MSDK/cloud/alicloud/src/services/dev_bind\awss_notify.c ****             if (notify_map[i].notify_type != type) {
 1177              		.loc 1 197 21
 198:C:/Users/stapi/OneDrive/Desktop/GD32VW553/V1_MQTT_OK/GD32VW55X_Wifi_BLE_SDK/GD32VW55x_RELEASE_V1.0.2/MSDK/cloud/alicloud/src/services/dev_bind\awss_notify.c ****                 continue;
 1178              		.loc 1 198 13
 198:C:/Users/stapi/OneDrive/Desktop/GD32VW553/V1_MQTT_OK/GD32VW55X_Wifi_BLE_SDK/GD32VW55x_RELEASE_V1.0.2/MSDK/cloud/alicloud/src/services/dev_bind\awss_notify.c ****                 continue;
 1179              		.loc 1 198 16 is_stmt 0
 1180 003e 0947     		li	a4,2
 197:C:/Users/stapi/OneDrive/Desktop/GD32VW553/V1_MQTT_OK/GD32VW55X_Wifi_BLE_SDK/GD32VW55x_RELEASE_V1.0.2/MSDK/cloud/alicloud/src/services/dev_bind\awss_notify.c ****             if (notify_map[i].notify_type != type) {
 1181              		.loc 1 197 71
 1182 0040 8547     		li	a5,1
 198:C:/Users/stapi/OneDrive/Desktop/GD32VW553/V1_MQTT_OK/GD32VW55X_Wifi_BLE_SDK/GD32VW55x_RELEASE_V1.0.2/MSDK/cloud/alicloud/src/services/dev_bind\awss_notify.c ****                 continue;
 1183              		.loc 1 198 16
 1184 0042 6306E400 		beq	s0,a4,.L74
 199:C:/Users/stapi/OneDrive/Desktop/GD32VW553/V1_MQTT_OK/GD32VW55X_Wifi_BLE_SDK/GD32VW55x_RELEASE_V1.0.2/MSDK/cloud/alicloud/src/services/dev_bind\awss_notify.c ****             }
 1185              		.loc 1 199 17 is_stmt 1
 197:C:/Users/stapi/OneDrive/Desktop/GD32VW553/V1_MQTT_OK/GD32VW55X_Wifi_BLE_SDK/GD32VW55x_RELEASE_V1.0.2/MSDK/cloud/alicloud/src/services/dev_bind\awss_notify.c ****             if (notify_map[i].notify_type != type) {
 1186              		.loc 1 197 69
 1187              	.LVL138:
 197:C:/Users/stapi/OneDrive/Desktop/GD32VW553/V1_MQTT_OK/GD32VW55X_Wifi_BLE_SDK/GD32VW55x_RELEASE_V1.0.2/MSDK/cloud/alicloud/src/services/dev_bind\awss_notify.c ****             if (notify_map[i].notify_type != type) {
 1188              		.loc 1 197 21
 198:C:/Users/stapi/OneDrive/Desktop/GD32VW553/V1_MQTT_OK/GD32VW55X_Wifi_BLE_SDK/GD32VW55x_RELEASE_V1.0.2/MSDK/cloud/alicloud/src/services/dev_bind\awss_notify.c ****                 continue;
 1189              		.loc 1 198 13
 198:C:/Users/stapi/OneDrive/Desktop/GD32VW553/V1_MQTT_OK/GD32VW55X_Wifi_BLE_SDK/GD32VW55x_RELEASE_V1.0.2/MSDK/cloud/alicloud/src/services/dev_bind\awss_notify.c ****                 continue;
 1190              		.loc 1 198 16 is_stmt 0
 1191 0046 8D47     		li	a5,3
 1192 0048 6312F402 		bne	s0,a5,.L75
 197:C:/Users/stapi/OneDrive/Desktop/GD32VW553/V1_MQTT_OK/GD32VW55X_Wifi_BLE_SDK/GD32VW55x_RELEASE_V1.0.2/MSDK/cloud/alicloud/src/services/dev_bind\awss_notify.c ****             if (notify_map[i].notify_type != type) {
 1193              		.loc 1 197 71
 1194 004c 8947     		li	a5,2
 1195              	.LVL139:
 1196              	.L74:
 202:C:/Users/stapi/OneDrive/Desktop/GD32VW553/V1_MQTT_OK/GD32VW55X_Wifi_BLE_SDK/GD32VW55x_RELEASE_V1.0.2/MSDK/cloud/alicloud/src/services/dev_bind\awss_notify.c ****             topic = notify_map[i].notify_topic;
 1197              		.loc 1 202 13 is_stmt 1
 202:C:/Users/stapi/OneDrive/Desktop/GD32VW553/V1_MQTT_OK/GD32VW55X_Wifi_BLE_SDK/GD32VW55x_RELEASE_V1.0.2/MSDK/cloud/alicloud/src/services/dev_bind\awss_notify.c ****             topic = notify_map[i].notify_topic;
 1198              		.loc 1 202 20 is_stmt 0
 1199 004e 13974700 		slli	a4,a5,4
 1200 0052 B7070000 		lui	a5,%hi(.LANCHOR7)
 1201 0056 93870700 		addi	a5,a5,%lo(.LANCHOR7)
 1202 005a BA97     		add	a5,a5,a4
 1203 005c 83AA4700 		lw	s5,4(a5)
 1204              	.LVL140:
 203:C:/Users/stapi/OneDrive/Desktop/GD32VW553/V1_MQTT_OK/GD32VW55X_Wifi_BLE_SDK/GD32VW55x_RELEASE_V1.0.2/MSDK/cloud/alicloud/src/services/dev_bind\awss_notify.c ****             cb = notify_map[i].cb;
 1205              		.loc 1 203 13 is_stmt 1
 203:C:/Users/stapi/OneDrive/Desktop/GD32VW553/V1_MQTT_OK/GD32VW55X_Wifi_BLE_SDK/GD32VW55x_RELEASE_V1.0.2/MSDK/cloud/alicloud/src/services/dev_bind\awss_notify.c ****             cb = notify_map[i].cb;
 1206              		.loc 1 203 19 is_stmt 0
 1207 0060 83AB8700 		lw	s7,8(a5)
 1208              	.LVL141:
 204:C:/Users/stapi/OneDrive/Desktop/GD32VW553/V1_MQTT_OK/GD32VW55X_Wifi_BLE_SDK/GD32VW55x_RELEASE_V1.0.2/MSDK/cloud/alicloud/src/services/dev_bind\awss_notify.c ****             break;
 1209              		.loc 1 204 13 is_stmt 1
 205:C:/Users/stapi/OneDrive/Desktop/GD32VW553/V1_MQTT_OK/GD32VW55X_Wifi_BLE_SDK/GD32VW55x_RELEASE_V1.0.2/MSDK/cloud/alicloud/src/services/dev_bind\awss_notify.c ****         }
 1210              		.loc 1 205 13
 207:C:/Users/stapi/OneDrive/Desktop/GD32VW553/V1_MQTT_OK/GD32VW55X_Wifi_BLE_SDK/GD32VW55x_RELEASE_V1.0.2/MSDK/cloud/alicloud/src/services/dev_bind\awss_notify.c ****             awss_err("params invalid");
 1211              		.loc 1 207 9
 207:C:/Users/stapi/OneDrive/Desktop/GD32VW553/V1_MQTT_OK/GD32VW55X_Wifi_BLE_SDK/GD32VW55x_RELEASE_V1.0.2/MSDK/cloud/alicloud/src/services/dev_bind\awss_notify.c ****             awss_err("params invalid");
 1212              		.loc 1 207 12 is_stmt 0
 1213 0064 63840A00 		beq	s5,zero,.L75
 207:C:/Users/stapi/OneDrive/Desktop/GD32VW553/V1_MQTT_OK/GD32VW55X_Wifi_BLE_SDK/GD32VW55x_RELEASE_V1.0.2/MSDK/cloud/alicloud/src/services/dev_bind\awss_notify.c ****             awss_err("params invalid");
 1214              		.loc 1 207 28 discriminator 1
 1215 0068 63900B04 		bne	s7,zero,.L76
 1216              	.LVL142:
 1217              	.L75:
 208:C:/Users/stapi/OneDrive/Desktop/GD32VW553/V1_MQTT_OK/GD32VW55X_Wifi_BLE_SDK/GD32VW55x_RELEASE_V1.0.2/MSDK/cloud/alicloud/src/services/dev_bind\awss_notify.c ****             break;
 1218              		.loc 1 208 13 is_stmt 1
 208:C:/Users/stapi/OneDrive/Desktop/GD32VW553/V1_MQTT_OK/GD32VW55X_Wifi_BLE_SDK/GD32VW55x_RELEASE_V1.0.2/MSDK/cloud/alicloud/src/services/dev_bind\awss_notify.c ****             break;
 1219              		.loc 1 208 13
 1220 006c 37050000 		lui	a0,%hi(.LC2)
 1221 0070 13050500 		addi	a0,a0,%lo(.LC2)
 1222 0074 97000000 		call	HAL_Printf
 1222      E7800000 
 1223              	.LVL143:
 208:C:/Users/stapi/OneDrive/Desktop/GD32VW553/V1_MQTT_OK/GD32VW55X_Wifi_BLE_SDK/GD32VW55x_RELEASE_V1.0.2/MSDK/cloud/alicloud/src/services/dev_bind\awss_notify.c ****             break;
 1224              		.loc 1 208 13
 1225 007c 37050000 		lui	a0,%hi(.LC28)
 1226 0080 13050500 		addi	a0,a0,%lo(.LC28)
 1227 0084 97000000 		call	HAL_Printf
 1227      E7800000 
 1228              	.LVL144:
 208:C:/Users/stapi/OneDrive/Desktop/GD32VW553/V1_MQTT_OK/GD32VW55X_Wifi_BLE_SDK/GD32VW55x_RELEASE_V1.0.2/MSDK/cloud/alicloud/src/services/dev_bind\awss_notify.c ****             break;
 1229              		.loc 1 208 13
 1230 008c 13050B00 		addi	a0,s6,%lo(.LC4)
 1231 0090 97000000 		call	HAL_Printf
 1231      E7800000 
 1232              	.LVL145:
 208:C:/Users/stapi/OneDrive/Desktop/GD32VW553/V1_MQTT_OK/GD32VW55X_Wifi_BLE_SDK/GD32VW55x_RELEASE_V1.0.2/MSDK/cloud/alicloud/src/services/dev_bind\awss_notify.c ****             break;
 1233              		.loc 1 208 13
 209:C:/Users/stapi/OneDrive/Desktop/GD32VW553/V1_MQTT_OK/GD32VW55X_Wifi_BLE_SDK/GD32VW55x_RELEASE_V1.0.2/MSDK/cloud/alicloud/src/services/dev_bind\awss_notify.c ****         }
 1234              		.loc 1 209 13
 1235              	.LBE46:
 243:C:/Users/stapi/OneDrive/Desktop/GD32VW553/V1_MQTT_OK/GD32VW55X_Wifi_BLE_SDK/GD32VW55x_RELEASE_V1.0.2/MSDK/cloud/alicloud/src/services/dev_bind\awss_notify.c **** 
 1236              		.loc 1 243 13
 245:C:/Users/stapi/OneDrive/Desktop/GD32VW553/V1_MQTT_OK/GD32VW55X_Wifi_BLE_SDK/GD32VW55x_RELEASE_V1.0.2/MSDK/cloud/alicloud/src/services/dev_bind\awss_notify.c ****         os_free(buf);
 1237              		.loc 1 245 5
 248:C:/Users/stapi/OneDrive/Desktop/GD32VW553/V1_MQTT_OK/GD32VW55X_Wifi_BLE_SDK/GD32VW55x_RELEASE_V1.0.2/MSDK/cloud/alicloud/src/services/dev_bind\awss_notify.c ****         os_free(dev_info);
 1238              		.loc 1 248 5
 1239              	.L77:
 252:C:/Users/stapi/OneDrive/Desktop/GD32VW553/V1_MQTT_OK/GD32VW55X_Wifi_BLE_SDK/GD32VW55x_RELEASE_V1.0.2/MSDK/cloud/alicloud/src/services/dev_bind\awss_notify.c **** }
 1240              		.loc 1 252 5
 252:C:/Users/stapi/OneDrive/Desktop/GD32VW553/V1_MQTT_OK/GD32VW55X_Wifi_BLE_SDK/GD32VW55x_RELEASE_V1.0.2/MSDK/cloud/alicloud/src/services/dev_bind\awss_notify.c **** }
 1241              		.loc 1 252 28 is_stmt 0
 1242 0098 4E94     		add	s0,s3,s0
 1243              	.LVL146:
 253:C:/Users/stapi/OneDrive/Desktop/GD32VW553/V1_MQTT_OK/GD32VW55X_Wifi_BLE_SDK/GD32VW55x_RELEASE_V1.0.2/MSDK/cloud/alicloud/src/services/dev_bind\awss_notify.c **** 
 1244              		.loc 1 253 1
 1245 009a 03050400 		lb	a0,0(s0)
 1246 009e 2561     		addi	sp,sp,96
 1247              		.cfi_remember_state
 1248              		.cfi_def_cfa_offset 0
 1249 00a0 17030000 		tail	__riscv_restore_12
 1249      67000300 
 1250              		.cfi_restore 27
 1251              		.cfi_restore 26
 1252              		.cfi_restore 25
 1253              		.cfi_restore 24
 1254              		.cfi_restore 23
 1255              		.cfi_restore 22
 1256              		.cfi_restore 21
 1257              		.cfi_restore 20
 1258              		.cfi_restore 19
 1259              		.cfi_restore 18
 1260              		.cfi_restore 9
 1261              		.cfi_restore 8
 1262              		.cfi_restore 1
 1263              		.cfi_def_cfa_offset -64
 1264              	.LVL147:
 1265              	.L76:
 1266              		.cfi_restore_state
 1267              	.LBB47:
 204:C:/Users/stapi/OneDrive/Desktop/GD32VW553/V1_MQTT_OK/GD32VW55X_Wifi_BLE_SDK/GD32VW55x_RELEASE_V1.0.2/MSDK/cloud/alicloud/src/services/dev_bind\awss_notify.c ****             break;
 1268              		.loc 1 204 16
 1269 00a8 DC47     		lw	a5,12(a5)
 1270 00aa 3EC8     		sw	a5,16(sp)
 212:C:/Users/stapi/OneDrive/Desktop/GD32VW553/V1_MQTT_OK/GD32VW55X_Wifi_BLE_SDK/GD32VW55x_RELEASE_V1.0.2/MSDK/cloud/alicloud/src/services/dev_bind\awss_notify.c ****         dev_info = os_zalloc(DEV_INFO_LEN_MAX);
 1271              		.loc 1 212 9 is_stmt 1
 212:C:/Users/stapi/OneDrive/Desktop/GD32VW553/V1_MQTT_OK/GD32VW55X_Wifi_BLE_SDK/GD32VW55x_RELEASE_V1.0.2/MSDK/cloud/alicloud/src/services/dev_bind\awss_notify.c ****         dev_info = os_zalloc(DEV_INFO_LEN_MAX);
 1272              		.loc 1 212 15 is_stmt 0
 1273 00ac 97000000 		call	os_zalloc.constprop.0
 1273      E7800000 
 1274              	.LVL148:
 1275 00b4 AA84     		mv	s1,a0
 1276              	.LVL149:
 213:C:/Users/stapi/OneDrive/Desktop/GD32VW553/V1_MQTT_OK/GD32VW55X_Wifi_BLE_SDK/GD32VW55x_RELEASE_V1.0.2/MSDK/cloud/alicloud/src/services/dev_bind\awss_notify.c ****         if (buf == NULL || dev_info == NULL) {
 1277              		.loc 1 213 9 is_stmt 1
 213:C:/Users/stapi/OneDrive/Desktop/GD32VW553/V1_MQTT_OK/GD32VW55X_Wifi_BLE_SDK/GD32VW55x_RELEASE_V1.0.2/MSDK/cloud/alicloud/src/services/dev_bind\awss_notify.c ****         if (buf == NULL || dev_info == NULL) {
 1278              		.loc 1 213 20 is_stmt 0
 1279 00b6 97000000 		call	os_zalloc.constprop.0
 1279      E7800000 
 1280              	.LVL150:
 1281 00be 2A89     		mv	s2,a0
 1282              	.LVL151:
 214:C:/Users/stapi/OneDrive/Desktop/GD32VW553/V1_MQTT_OK/GD32VW55X_Wifi_BLE_SDK/GD32VW55x_RELEASE_V1.0.2/MSDK/cloud/alicloud/src/services/dev_bind\awss_notify.c ****             awss_err("alloc mem fail");
 1283              		.loc 1 214 9 is_stmt 1
 214:C:/Users/stapi/OneDrive/Desktop/GD32VW553/V1_MQTT_OK/GD32VW55X_Wifi_BLE_SDK/GD32VW55x_RELEASE_V1.0.2/MSDK/cloud/alicloud/src/services/dev_bind\awss_notify.c ****             awss_err("alloc mem fail");
 1284              		.loc 1 214 12 is_stmt 0
 1285 00c0 91C0     		beq	s1,zero,.L78
 214:C:/Users/stapi/OneDrive/Desktop/GD32VW553/V1_MQTT_OK/GD32VW55X_Wifi_BLE_SDK/GD32VW55x_RELEASE_V1.0.2/MSDK/cloud/alicloud/src/services/dev_bind\awss_notify.c ****             awss_err("alloc mem fail");
 1286              		.loc 1 214 25 discriminator 1
 1287 00c2 29E5     		bne	a0,zero,.L79
 1288              	.L78:
 215:C:/Users/stapi/OneDrive/Desktop/GD32VW553/V1_MQTT_OK/GD32VW55X_Wifi_BLE_SDK/GD32VW55x_RELEASE_V1.0.2/MSDK/cloud/alicloud/src/services/dev_bind\awss_notify.c ****             break;
 1289              		.loc 1 215 13 is_stmt 1
 215:C:/Users/stapi/OneDrive/Desktop/GD32VW553/V1_MQTT_OK/GD32VW55X_Wifi_BLE_SDK/GD32VW55x_RELEASE_V1.0.2/MSDK/cloud/alicloud/src/services/dev_bind\awss_notify.c ****             break;
 1290              		.loc 1 215 13
 1291 00c4 37050000 		lui	a0,%hi(.LC2)
 1292              	.LVL152:
 1293 00c8 13050500 		addi	a0,a0,%lo(.LC2)
 1294 00cc 97000000 		call	HAL_Printf
 1294      E7800000 
 1295              	.LVL153:
 215:C:/Users/stapi/OneDrive/Desktop/GD32VW553/V1_MQTT_OK/GD32VW55X_Wifi_BLE_SDK/GD32VW55x_RELEASE_V1.0.2/MSDK/cloud/alicloud/src/services/dev_bind\awss_notify.c ****             break;
 1296              		.loc 1 215 13
 1297 00d4 37050000 		lui	a0,%hi(.LC29)
 1298 00d8 13050500 		addi	a0,a0,%lo(.LC29)
 1299 00dc 97000000 		call	HAL_Printf
 1299      E7800000 
 1300              	.LVL154:
 215:C:/Users/stapi/OneDrive/Desktop/GD32VW553/V1_MQTT_OK/GD32VW55X_Wifi_BLE_SDK/GD32VW55x_RELEASE_V1.0.2/MSDK/cloud/alicloud/src/services/dev_bind\awss_notify.c ****             break;
 1301              		.loc 1 215 13
 1302 00e4 13050B00 		addi	a0,s6,%lo(.LC4)
 1303 00e8 97000000 		call	HAL_Printf
 1303      E7800000 
 1304              	.LVL155:
 215:C:/Users/stapi/OneDrive/Desktop/GD32VW553/V1_MQTT_OK/GD32VW55X_Wifi_BLE_SDK/GD32VW55x_RELEASE_V1.0.2/MSDK/cloud/alicloud/src/services/dev_bind\awss_notify.c ****             break;
 1305              		.loc 1 215 13
 216:C:/Users/stapi/OneDrive/Desktop/GD32VW553/V1_MQTT_OK/GD32VW55X_Wifi_BLE_SDK/GD32VW55x_RELEASE_V1.0.2/MSDK/cloud/alicloud/src/services/dev_bind\awss_notify.c ****         }
 1306              		.loc 1 216 13
 1307              	.LBE47:
 243:C:/Users/stapi/OneDrive/Desktop/GD32VW553/V1_MQTT_OK/GD32VW55X_Wifi_BLE_SDK/GD32VW55x_RELEASE_V1.0.2/MSDK/cloud/alicloud/src/services/dev_bind\awss_notify.c **** 
 1308              		.loc 1 243 13
 245:C:/Users/stapi/OneDrive/Desktop/GD32VW553/V1_MQTT_OK/GD32VW55X_Wifi_BLE_SDK/GD32VW55x_RELEASE_V1.0.2/MSDK/cloud/alicloud/src/services/dev_bind\awss_notify.c ****         os_free(buf);
 1309              		.loc 1 245 5
 245:C:/Users/stapi/OneDrive/Desktop/GD32VW553/V1_MQTT_OK/GD32VW55X_Wifi_BLE_SDK/GD32VW55x_RELEASE_V1.0.2/MSDK/cloud/alicloud/src/services/dev_bind\awss_notify.c ****         os_free(buf);
 1310              		.loc 1 245 8 is_stmt 0
 1311 00f0 91C4     		beq	s1,zero,.L81
 1312              	.LVL156:
 1313              	.L80:
 246:C:/Users/stapi/OneDrive/Desktop/GD32VW553/V1_MQTT_OK/GD32VW55X_Wifi_BLE_SDK/GD32VW55x_RELEASE_V1.0.2/MSDK/cloud/alicloud/src/services/dev_bind\awss_notify.c ****     }
 1314              		.loc 1 246 9 is_stmt 1
 1315              	.LBB48:
 1316              	.LBB49:
 394:..\..\..\..\cloud\alicloud\src\services\dev_bind\os/os.h **** }
 1317              		.loc 2 394 5
 1318 00f2 2685     		mv	a0,s1
 1319 00f4 97000000 		call	HAL_Free
 1319      E7800000 
 1320              	.LVL157:
 1321              	.L81:
 1322              	.LBE49:
 1323              	.LBE48:
 248:C:/Users/stapi/OneDrive/Desktop/GD32VW553/V1_MQTT_OK/GD32VW55X_Wifi_BLE_SDK/GD32VW55x_RELEASE_V1.0.2/MSDK/cloud/alicloud/src/services/dev_bind\awss_notify.c ****         os_free(dev_info);
 1324              		.loc 1 248 5
 248:C:/Users/stapi/OneDrive/Desktop/GD32VW553/V1_MQTT_OK/GD32VW55X_Wifi_BLE_SDK/GD32VW55x_RELEASE_V1.0.2/MSDK/cloud/alicloud/src/services/dev_bind\awss_notify.c ****         os_free(dev_info);
 1325              		.loc 1 248 8 is_stmt 0
 1326 00fc E30E09F8 		beq	s2,zero,.L77
 249:C:/Users/stapi/OneDrive/Desktop/GD32VW553/V1_MQTT_OK/GD32VW55X_Wifi_BLE_SDK/GD32VW55x_RELEASE_V1.0.2/MSDK/cloud/alicloud/src/services/dev_bind\awss_notify.c ****     }
 1327              		.loc 1 249 9 is_stmt 1
 1328              	.LVL158:
 1329              	.LBB50:
 1330              	.LBB51:
 394:..\..\..\..\cloud\alicloud\src\services\dev_bind\os/os.h **** }
 1331              		.loc 2 394 5
 1332 0100 4A85     		mv	a0,s2
 1333 0102 97000000 		call	HAL_Free
 1333      E7800000 
 1334              	.LVL159:
 395:..\..\..\..\cloud\alicloud\src\services\dev_bind\os/os.h **** 
 1335              		.loc 2 395 1 is_stmt 0
 1336 010a 79B7     		j	.L77
 1337              	.LVL160:
 1338              	.L79:
 1339              	.LBE51:
 1340              	.LBE50:
 1341              	.LBB52:
 219:C:/Users/stapi/OneDrive/Desktop/GD32VW553/V1_MQTT_OK/GD32VW55X_Wifi_BLE_SDK/GD32VW55x_RELEASE_V1.0.2/MSDK/cloud/alicloud/src/services/dev_bind\awss_notify.c ****         memcpy(notify_sa.host, AWSS_NOTIFY_HOST, strlen(AWSS_NOTIFY_HOST));
 1342              		.loc 1 219 9 is_stmt 1
 220:C:/Users/stapi/OneDrive/Desktop/GD32VW553/V1_MQTT_OK/GD32VW55X_Wifi_BLE_SDK/GD32VW55x_RELEASE_V1.0.2/MSDK/cloud/alicloud/src/services/dev_bind\awss_notify.c ****         notify_sa.port = AWSS_NOTIFY_PORT;
 1343              		.loc 1 220 9 is_stmt 0
 1344 010c B7050000 		lui	a1,%hi(.LC30)
 1345 0110 3D46     		li	a2,15
 1346 0112 93850500 		addi	a1,a1,%lo(.LC30)
 1347 0116 2810     		addi	a0,sp,40
 1348              	.LVL161:
 1349 0118 A30B0102 		sb	zero,55(sp)
 220:C:/Users/stapi/OneDrive/Desktop/GD32VW553/V1_MQTT_OK/GD32VW55X_Wifi_BLE_SDK/GD32VW55x_RELEASE_V1.0.2/MSDK/cloud/alicloud/src/services/dev_bind\awss_notify.c ****         notify_sa.port = AWSS_NOTIFY_PORT;
 1350              		.loc 1 220 9 is_stmt 1
 1351 011c 97000000 		call	memcpy
 1351      E7800000 
 1352              	.LVL162:
 221:C:/Users/stapi/OneDrive/Desktop/GD32VW553/V1_MQTT_OK/GD32VW55X_Wifi_BLE_SDK/GD32VW55x_RELEASE_V1.0.2/MSDK/cloud/alicloud/src/services/dev_bind\awss_notify.c **** 
 1353              		.loc 1 221 9
 221:C:/Users/stapi/OneDrive/Desktop/GD32VW553/V1_MQTT_OK/GD32VW55X_Wifi_BLE_SDK/GD32VW55x_RELEASE_V1.0.2/MSDK/cloud/alicloud/src/services/dev_bind\awss_notify.c **** 
 1354              		.loc 1 221 24 is_stmt 0
 1355 0124 8567     		li	a5,4096
 1356 0126 93873763 		addi	a5,a5,1587
 223:C:/Users/stapi/OneDrive/Desktop/GD32VW553/V1_MQTT_OK/GD32VW55X_Wifi_BLE_SDK/GD32VW55x_RELEASE_V1.0.2/MSDK/cloud/alicloud/src/services/dev_bind\awss_notify.c **** 
 1357              		.loc 1 223 9
 1358 012a 13060024 		li	a2,576
 1359 012e CA85     		mv	a1,s2
 1360 0130 2285     		mv	a0,s0
 221:C:/Users/stapi/OneDrive/Desktop/GD32VW553/V1_MQTT_OK/GD32VW55X_Wifi_BLE_SDK/GD32VW55x_RELEASE_V1.0.2/MSDK/cloud/alicloud/src/services/dev_bind\awss_notify.c **** 
 1361              		.loc 1 221 24
 1362 0132 231CF102 		sh	a5,56(sp)
 223:C:/Users/stapi/OneDrive/Desktop/GD32VW553/V1_MQTT_OK/GD32VW55X_Wifi_BLE_SDK/GD32VW55x_RELEASE_V1.0.2/MSDK/cloud/alicloud/src/services/dev_bind\awss_notify.c **** 
 1363              		.loc 1 223 9 is_stmt 1
 1364 0136 97000000 		call	awss_build_dev_info
 1364      E7800000 
 1365              	.LVL163:
 225:C:/Users/stapi/OneDrive/Desktop/GD32VW553/V1_MQTT_OK/GD32VW55X_Wifi_BLE_SDK/GD32VW55x_RELEASE_V1.0.2/MSDK/cloud/alicloud/src/services/dev_bind\awss_notify.c ****         utils_hex_to_str(g_aes_random, RANDOM_MAX_LEN, rand_str, sizeof(rand_str));
 1366              		.loc 1 225 9
 225:C:/Users/stapi/OneDrive/Desktop/GD32VW553/V1_MQTT_OK/GD32VW55X_Wifi_BLE_SDK/GD32VW55x_RELEASE_V1.0.2/MSDK/cloud/alicloud/src/services/dev_bind\awss_notify.c ****         utils_hex_to_str(g_aes_random, RANDOM_MAX_LEN, rand_str, sizeof(rand_str));
 1367              		.loc 1 225 66 is_stmt 0
 1368 013e B7070000 		lui	a5,%hi(.LANCHOR2)
 1369 0142 93870700 		addi	a5,a5,%lo(.LANCHOR2)
 1370 0146 83C60700 		lbu	a3,0(a5)
 225:C:/Users/stapi/OneDrive/Desktop/GD32VW553/V1_MQTT_OK/GD32VW55X_Wifi_BLE_SDK/GD32VW55x_RELEASE_V1.0.2/MSDK/cloud/alicloud/src/services/dev_bind\awss_notify.c ****         utils_hex_to_str(g_aes_random, RANDOM_MAX_LEN, rand_str, sizeof(rand_str));
 1371              		.loc 1 225 9
 1372 014a 37060000 		lui	a2,%hi(.LC31)
 1373 014e 5687     		mv	a4,s5
 225:C:/Users/stapi/OneDrive/Desktop/GD32VW553/V1_MQTT_OK/GD32VW55X_Wifi_BLE_SDK/GD32VW55x_RELEASE_V1.0.2/MSDK/cloud/alicloud/src/services/dev_bind\awss_notify.c ****         utils_hex_to_str(g_aes_random, RANDOM_MAX_LEN, rand_str, sizeof(rand_str));
 1374              		.loc 1 225 66
 1375 0150 8506     		addi	a3,a3,1
 1376 0152 93F6F60F 		andi	a3,a3,0xff
 225:C:/Users/stapi/OneDrive/Desktop/GD32VW553/V1_MQTT_OK/GD32VW55X_Wifi_BLE_SDK/GD32VW55x_RELEASE_V1.0.2/MSDK/cloud/alicloud/src/services/dev_bind\awss_notify.c ****         utils_hex_to_str(g_aes_random, RANDOM_MAX_LEN, rand_str, sizeof(rand_str));
 1377              		.loc 1 225 9
 1378 0156 2380D700 		sb	a3,0(a5)
 1379 015a 13060600 		addi	a2,a2,%lo(.LC31)
 1380 015e CA87     		mv	a5,s2
 1381 0160 9305F023 		li	a1,575
 1382 0164 2685     		mv	a0,s1
 1383 0166 97000000 		call	snprintf
 1383      E7800000 
 1384              	.LVL164:
 226:C:/Users/stapi/OneDrive/Desktop/GD32VW553/V1_MQTT_OK/GD32VW55X_Wifi_BLE_SDK/GD32VW55x_RELEASE_V1.0.2/MSDK/cloud/alicloud/src/services/dev_bind\awss_notify.c ****         if (type == AWSS_NOTIFY_SUCCESS) {
 1385              		.loc 1 226 9 is_stmt 1
 1386 016e 37050000 		lui	a0,%hi(g_aes_random)
 1387 0172 8546     		li	a3,1
 1388 0174 4146     		li	a2,16
 1389 0176 6C18     		addi	a1,sp,60
 1390 0178 13050500 		addi	a0,a0,%lo(g_aes_random)
 1391 017c 97000000 		call	LITE_hexbuf_convert
 1391      E7800000 
 1392              	.LVL165:
 227:C:/Users/stapi/OneDrive/Desktop/GD32VW553/V1_MQTT_OK/GD32VW55X_Wifi_BLE_SDK/GD32VW55x_RELEASE_V1.0.2/MSDK/cloud/alicloud/src/services/dev_bind\awss_notify.c ****             dump_awss_status(STATE_WIFI_SENT_CONNECTAP_NOTIFY, "connect ap notify");
 1393              		.loc 1 227 9
 227:C:/Users/stapi/OneDrive/Desktop/GD32VW553/V1_MQTT_OK/GD32VW55X_Wifi_BLE_SDK/GD32VW55x_RELEASE_V1.0.2/MSDK/cloud/alicloud/src/services/dev_bind\awss_notify.c ****             dump_awss_status(STATE_WIFI_SENT_CONNECTAP_NOTIFY, "connect ap notify");
 1394              		.loc 1 227 12 is_stmt 0
 1395 0184 8D47     		li	a5,3
 1396 0186 631DF400 		bne	s0,a5,.L82
 228:C:/Users/stapi/OneDrive/Desktop/GD32VW553/V1_MQTT_OK/GD32VW55X_Wifi_BLE_SDK/GD32VW55x_RELEASE_V1.0.2/MSDK/cloud/alicloud/src/services/dev_bind\awss_notify.c ****         } else if (type == AWSS_NOTIFY_DEV_RAND_SIGN) {
 1397              		.loc 1 228 13 is_stmt 1
 1398 018a 37060000 		lui	a2,%hi(.LC32)
 1399 018e 13060600 		addi	a2,a2,%lo(.LC32)
 1400 0192 930510BE 		li	a1,-1055
 1401 0196 6D45     		li	a0,27
 1402 0198 97000000 		call	iotx_state_event
 1402      E7800000 
 1403              	.LVL166:
 1404              	.L82:
 231:C:/Users/stapi/OneDrive/Desktop/GD32VW553/V1_MQTT_OK/GD32VW55X_Wifi_BLE_SDK/GD32VW55x_RELEASE_V1.0.2/MSDK/cloud/alicloud/src/services/dev_bind\awss_notify.c ****         awss_info("topic:%s\n", topic);
 1405              		.loc 1 231 9
 232:C:/Users/stapi/OneDrive/Desktop/GD32VW553/V1_MQTT_OK/GD32VW55X_Wifi_BLE_SDK/GD32VW55x_RELEASE_V1.0.2/MSDK/cloud/alicloud/src/services/dev_bind\awss_notify.c ****         awss_debug("payload:%s\n", buf);
 1406              		.loc 1 232 9
 232:C:/Users/stapi/OneDrive/Desktop/GD32VW553/V1_MQTT_OK/GD32VW55X_Wifi_BLE_SDK/GD32VW55x_RELEASE_V1.0.2/MSDK/cloud/alicloud/src/services/dev_bind\awss_notify.c ****         awss_debug("payload:%s\n", buf);
 1407              		.loc 1 232 9
 1408 01a0 370C0000 		lui	s8,%hi(.LC20)
 1409 01a4 13050C00 		addi	a0,s8,%lo(.LC20)
 1410 01a8 97000000 		call	HAL_Printf
 1410      E7800000 
 1411              	.LVL167:
 232:C:/Users/stapi/OneDrive/Desktop/GD32VW553/V1_MQTT_OK/GD32VW55X_Wifi_BLE_SDK/GD32VW55x_RELEASE_V1.0.2/MSDK/cloud/alicloud/src/services/dev_bind\awss_notify.c ****         awss_debug("payload:%s\n", buf);
 1412              		.loc 1 232 9
 1413 01b0 37050000 		lui	a0,%hi(.LC33)
 1414 01b4 DE85     		mv	a1,s7
 1415 01b6 13050500 		addi	a0,a0,%lo(.LC33)
 1416 01ba 97000000 		call	HAL_Printf
 1416      E7800000 
 1417              	.LVL168:
 232:C:/Users/stapi/OneDrive/Desktop/GD32VW553/V1_MQTT_OK/GD32VW55X_Wifi_BLE_SDK/GD32VW55x_RELEASE_V1.0.2/MSDK/cloud/alicloud/src/services/dev_bind\awss_notify.c ****         awss_debug("payload:%s\n", buf);
 1418              		.loc 1 232 9
 1419 01c2 13050B00 		addi	a0,s6,%lo(.LC4)
 1420 01c6 97000000 		call	HAL_Printf
 1420      E7800000 
 1421              	.LVL169:
 232:C:/Users/stapi/OneDrive/Desktop/GD32VW553/V1_MQTT_OK/GD32VW55X_Wifi_BLE_SDK/GD32VW55x_RELEASE_V1.0.2/MSDK/cloud/alicloud/src/services/dev_bind\awss_notify.c ****         awss_debug("payload:%s\n", buf);
 1422              		.loc 1 232 9
 233:C:/Users/stapi/OneDrive/Desktop/GD32VW553/V1_MQTT_OK/GD32VW55X_Wifi_BLE_SDK/GD32VW55x_RELEASE_V1.0.2/MSDK/cloud/alicloud/src/services/dev_bind\awss_notify.c ****         for (i = 0; i < count; i ++) {
 1423              		.loc 1 233 9
 1424 01ce 37070000 		lui	a4,%hi(.LC34)
 1425 01d2 B7050000 		lui	a1,%hi(.LANCHOR8)
 1426 01d6 37050000 		lui	a0,%hi(.LC1)
 1427 01da A687     		mv	a5,s1
 1428 01dc 13070700 		addi	a4,a4,%lo(.LC34)
 1429 01e0 9546     		li	a3,5
 1430 01e2 1306900E 		li	a2,233
 1431 01e6 93850500 		addi	a1,a1,%lo(.LANCHOR8)
 1432 01ea 13050500 		addi	a0,a0,%lo(.LC1)
 1433 01ee 97000000 		call	LITE_syslog
 1433      E7800000 
 1434              	.LVL170:
 234:C:/Users/stapi/OneDrive/Desktop/GD32VW553/V1_MQTT_OK/GD32VW55X_Wifi_BLE_SDK/GD32VW55x_RELEASE_V1.0.2/MSDK/cloud/alicloud/src/services/dev_bind\awss_notify.c ****             int ret = awss_cmp_coap_send(buf, strlen(buf), &notify_sa, topic, cb, &g_notify_msg_id[
 1435              		.loc 1 234 9
 1436              	.LBB39:
 235:C:/Users/stapi/OneDrive/Desktop/GD32VW553/V1_MQTT_OK/GD32VW55X_Wifi_BLE_SDK/GD32VW55x_RELEASE_V1.0.2/MSDK/cloud/alicloud/src/services/dev_bind\awss_notify.c ****             awss_info("coap send notify %s", ret == 0 ? "success" : "fail");
 1437              		.loc 1 235 23 is_stmt 0
 1438 01f6 B7070000 		lui	a5,%hi(.LANCHOR9)
 1439 01fa 93870700 		addi	a5,a5,%lo(.LANCHOR9)
 1440 01fe B327F420 		sh1add	a5,s0,a5
 1441 0202 3EC6     		sw	a5,12(sp)
 236:C:/Users/stapi/OneDrive/Desktop/GD32VW553/V1_MQTT_OK/GD32VW55X_Wifi_BLE_SDK/GD32VW55x_RELEASE_V1.0.2/MSDK/cloud/alicloud/src/services/dev_bind\awss_notify.c ****             if (count > 1)
 1442              		.loc 1 236 13
 1443 0204 B7070000 		lui	a5,%hi(.LC26)
 1444 0208 93870700 		addi	a5,a5,%lo(.LC26)
 1445 020c 3ECA     		sw	a5,20(sp)
 1446 020e B7070000 		lui	a5,%hi(.LC27)
 1447 0212 93870700 		addi	a5,a5,%lo(.LC27)
 1448              	.LBE39:
 234:C:/Users/stapi/OneDrive/Desktop/GD32VW553/V1_MQTT_OK/GD32VW55X_Wifi_BLE_SDK/GD32VW55x_RELEASE_V1.0.2/MSDK/cloud/alicloud/src/services/dev_bind\awss_notify.c ****             int ret = awss_cmp_coap_send(buf, strlen(buf), &notify_sa, topic, cb, &g_notify_msg_id[
 1449              		.loc 1 234 16
 1450 0216 814A     		li	s5,0
 1451              	.LVL171:
 1452              	.LBB44:
 236:C:/Users/stapi/OneDrive/Desktop/GD32VW553/V1_MQTT_OK/GD32VW55X_Wifi_BLE_SDK/GD32VW55x_RELEASE_V1.0.2/MSDK/cloud/alicloud/src/services/dev_bind\awss_notify.c ****             if (count > 1)
 1453              		.loc 1 236 13
 1454 0218 3ECC     		sw	a5,24(sp)
 237:C:/Users/stapi/OneDrive/Desktop/GD32VW553/V1_MQTT_OK/GD32VW55X_Wifi_BLE_SDK/GD32VW55x_RELEASE_V1.0.2/MSDK/cloud/alicloud/src/services/dev_bind\awss_notify.c ****                 os_msleep(200 + 100 * i);
 1455              		.loc 1 237 16
 1456 021a 854C     		li	s9,1
 1457              	.LBB40:
 1458              	.LBB41:
 210:..\..\..\..\cloud\alicloud\src\services\dev_bind\os/os.h **** }
 1459              		.loc 2 210 5
 1460 021c 130D4006 		li	s10,100
 1461              	.LBE41:
 1462              	.LBE40:
 240:C:/Users/stapi/OneDrive/Desktop/GD32VW553/V1_MQTT_OK/GD32VW55X_Wifi_BLE_SDK/GD32VW55x_RELEASE_V1.0.2/MSDK/cloud/alicloud/src/services/dev_bind\awss_notify.c ****                 break;
 1463              		.loc 1 240 33
 1464 0220 B38D8900 		add	s11,s3,s0
 1465              	.LVL172:
 1466              	.L83:
 1467              	.LBE44:
 234:C:/Users/stapi/OneDrive/Desktop/GD32VW553/V1_MQTT_OK/GD32VW55X_Wifi_BLE_SDK/GD32VW55x_RELEASE_V1.0.2/MSDK/cloud/alicloud/src/services/dev_bind\awss_notify.c ****             int ret = awss_cmp_coap_send(buf, strlen(buf), &notify_sa, topic, cb, &g_notify_msg_id[
 1468              		.loc 1 234 21 is_stmt 1 discriminator 1
 234:C:/Users/stapi/OneDrive/Desktop/GD32VW553/V1_MQTT_OK/GD32VW55X_Wifi_BLE_SDK/GD32VW55x_RELEASE_V1.0.2/MSDK/cloud/alicloud/src/services/dev_bind\awss_notify.c ****             int ret = awss_cmp_coap_send(buf, strlen(buf), &notify_sa, topic, cb, &g_notify_msg_id[
 1469              		.loc 1 234 9 is_stmt 0 discriminator 1
 1470 0224 E3D74AED 		bge	s5,s4,.L80
 1471              	.LBB45:
 235:C:/Users/stapi/OneDrive/Desktop/GD32VW553/V1_MQTT_OK/GD32VW55X_Wifi_BLE_SDK/GD32VW55x_RELEASE_V1.0.2/MSDK/cloud/alicloud/src/services/dev_bind\awss_notify.c ****             awss_info("coap send notify %s", ret == 0 ? "success" : "fail");
 1472              		.loc 1 235 13 is_stmt 1
 235:C:/Users/stapi/OneDrive/Desktop/GD32VW553/V1_MQTT_OK/GD32VW55X_Wifi_BLE_SDK/GD32VW55x_RELEASE_V1.0.2/MSDK/cloud/alicloud/src/services/dev_bind\awss_notify.c ****             awss_info("coap send notify %s", ret == 0 ? "success" : "fail");
 1473              		.loc 1 235 47 is_stmt 0
 1474 0228 2685     		mv	a0,s1
 1475 022a 97000000 		call	strlen
 1475      E7800000 
 1476              	.LVL173:
 235:C:/Users/stapi/OneDrive/Desktop/GD32VW553/V1_MQTT_OK/GD32VW55X_Wifi_BLE_SDK/GD32VW55x_RELEASE_V1.0.2/MSDK/cloud/alicloud/src/services/dev_bind\awss_notify.c ****             awss_info("coap send notify %s", ret == 0 ? "success" : "fail");
 1477              		.loc 1 235 23
 1478 0232 B247     		lw	a5,12(sp)
 1479 0234 4247     		lw	a4,16(sp)
 235:C:/Users/stapi/OneDrive/Desktop/GD32VW553/V1_MQTT_OK/GD32VW55X_Wifi_BLE_SDK/GD32VW55x_RELEASE_V1.0.2/MSDK/cloud/alicloud/src/services/dev_bind\awss_notify.c ****             awss_info("coap send notify %s", ret == 0 ? "success" : "fail");
 1480              		.loc 1 235 47
 1481 0236 AA85     		mv	a1,a0
 235:C:/Users/stapi/OneDrive/Desktop/GD32VW553/V1_MQTT_OK/GD32VW55X_Wifi_BLE_SDK/GD32VW55x_RELEASE_V1.0.2/MSDK/cloud/alicloud/src/services/dev_bind\awss_notify.c ****             awss_info("coap send notify %s", ret == 0 ? "success" : "fail");
 1482              		.loc 1 235 23
 1483 0238 DE86     		mv	a3,s7
 1484 023a 3010     		addi	a2,sp,40
 1485 023c 2685     		mv	a0,s1
 1486 023e 97000000 		call	awss_cmp_coap_send
 1486      E7800000 
 1487              	.LVL174:
 1488 0246 2ACE     		sw	a0,28(sp)
 1489              	.LVL175:
 236:C:/Users/stapi/OneDrive/Desktop/GD32VW553/V1_MQTT_OK/GD32VW55X_Wifi_BLE_SDK/GD32VW55x_RELEASE_V1.0.2/MSDK/cloud/alicloud/src/services/dev_bind\awss_notify.c ****             if (count > 1)
 1490              		.loc 1 236 13 is_stmt 1
 236:C:/Users/stapi/OneDrive/Desktop/GD32VW553/V1_MQTT_OK/GD32VW55X_Wifi_BLE_SDK/GD32VW55x_RELEASE_V1.0.2/MSDK/cloud/alicloud/src/services/dev_bind\awss_notify.c ****             if (count > 1)
 1491              		.loc 1 236 13
 1492 0248 13050C00 		addi	a0,s8,%lo(.LC20)
 1493              	.LVL176:
 1494 024c 97000000 		call	HAL_Printf
 1494      E7800000 
 1495              	.LVL177:
 236:C:/Users/stapi/OneDrive/Desktop/GD32VW553/V1_MQTT_OK/GD32VW55X_Wifi_BLE_SDK/GD32VW55x_RELEASE_V1.0.2/MSDK/cloud/alicloud/src/services/dev_bind\awss_notify.c ****             if (count > 1)
 1496              		.loc 1 236 13
 1497 0254 F247     		lw	a5,28(sp)
 1498 0256 D245     		lw	a1,20(sp)
 1499 0258 91C3     		beq	a5,zero,.L84
 1500 025a E245     		lw	a1,24(sp)
 1501              	.L84:
 236:C:/Users/stapi/OneDrive/Desktop/GD32VW553/V1_MQTT_OK/GD32VW55X_Wifi_BLE_SDK/GD32VW55x_RELEASE_V1.0.2/MSDK/cloud/alicloud/src/services/dev_bind\awss_notify.c ****             if (count > 1)
 1502              		.loc 1 236 13 is_stmt 0 discriminator 4
 1503 025c B7070000 		lui	a5,%hi(.LC35)
 1504 0260 13850700 		addi	a0,a5,%lo(.LC35)
 1505 0264 97000000 		call	HAL_Printf
 1505      E7800000 
 1506              	.LVL178:
 236:C:/Users/stapi/OneDrive/Desktop/GD32VW553/V1_MQTT_OK/GD32VW55X_Wifi_BLE_SDK/GD32VW55x_RELEASE_V1.0.2/MSDK/cloud/alicloud/src/services/dev_bind\awss_notify.c ****             if (count > 1)
 1507              		.loc 1 236 13 is_stmt 1 discriminator 4
 1508 026c 13050B00 		addi	a0,s6,%lo(.LC4)
 1509 0270 97000000 		call	HAL_Printf
 1509      E7800000 
 1510              	.LVL179:
 236:C:/Users/stapi/OneDrive/Desktop/GD32VW553/V1_MQTT_OK/GD32VW55X_Wifi_BLE_SDK/GD32VW55x_RELEASE_V1.0.2/MSDK/cloud/alicloud/src/services/dev_bind\awss_notify.c ****             if (count > 1)
 1511              		.loc 1 236 13 discriminator 4
 237:C:/Users/stapi/OneDrive/Desktop/GD32VW553/V1_MQTT_OK/GD32VW55X_Wifi_BLE_SDK/GD32VW55x_RELEASE_V1.0.2/MSDK/cloud/alicloud/src/services/dev_bind\awss_notify.c ****                 os_msleep(200 + 100 * i);
 1512              		.loc 1 237 13 discriminator 4
 237:C:/Users/stapi/OneDrive/Desktop/GD32VW553/V1_MQTT_OK/GD32VW55X_Wifi_BLE_SDK/GD32VW55x_RELEASE_V1.0.2/MSDK/cloud/alicloud/src/services/dev_bind\awss_notify.c ****                 os_msleep(200 + 100 * i);
 1513              		.loc 1 237 16 is_stmt 0 discriminator 4
 1514 0278 630A9A01 		beq	s4,s9,.L85
 238:C:/Users/stapi/OneDrive/Desktop/GD32VW553/V1_MQTT_OK/GD32VW55X_Wifi_BLE_SDK/GD32VW55x_RELEASE_V1.0.2/MSDK/cloud/alicloud/src/services/dev_bind\awss_notify.c **** 
 1515              		.loc 1 238 17 is_stmt 1
 1516              	.LVL180:
 1517              	.LBB43:
 1518              	.LBB42:
 210:..\..\..\..\cloud\alicloud\src\services\dev_bind\os/os.h **** }
 1519              		.loc 2 210 5
 1520 027c 3385AA03 		mul	a0,s5,s10
 1521 0280 1305850C 		addi	a0,a0,200
 1522 0284 97000000 		call	HAL_SleepMs
 1522      E7800000 
 1523              	.LVL181:
 1524              	.L85:
 1525              	.LBE42:
 1526              	.LBE43:
 240:C:/Users/stapi/OneDrive/Desktop/GD32VW553/V1_MQTT_OK/GD32VW55X_Wifi_BLE_SDK/GD32VW55x_RELEASE_V1.0.2/MSDK/cloud/alicloud/src/services/dev_bind\awss_notify.c ****                 break;
 1527              		.loc 1 240 13
 240:C:/Users/stapi/OneDrive/Desktop/GD32VW553/V1_MQTT_OK/GD32VW55X_Wifi_BLE_SDK/GD32VW55x_RELEASE_V1.0.2/MSDK/cloud/alicloud/src/services/dev_bind\awss_notify.c ****                 break;
 1528              		.loc 1 240 16 is_stmt 0
 1529 028c 83870D00 		lb	a5,0(s11)
 1530 0290 E39107E6 		bne	a5,zero,.L80
 1531              	.LBE45:
 234:C:/Users/stapi/OneDrive/Desktop/GD32VW553/V1_MQTT_OK/GD32VW55X_Wifi_BLE_SDK/GD32VW55x_RELEASE_V1.0.2/MSDK/cloud/alicloud/src/services/dev_bind\awss_notify.c ****             int ret = awss_cmp_coap_send(buf, strlen(buf), &notify_sa, topic, cb, &g_notify_msg_id[
 1532              		.loc 1 234 32 is_stmt 1 discriminator 2
 234:C:/Users/stapi/OneDrive/Desktop/GD32VW553/V1_MQTT_OK/GD32VW55X_Wifi_BLE_SDK/GD32VW55x_RELEASE_V1.0.2/MSDK/cloud/alicloud/src/services/dev_bind\awss_notify.c ****             int ret = awss_cmp_coap_send(buf, strlen(buf), &notify_sa, topic, cb, &g_notify_msg_id[
 1533              		.loc 1 234 34 is_stmt 0 discriminator 2
 1534 0294 850A     		addi	s5,s5,1
 1535              	.LVL182:
 1536 0296 79B7     		j	.L83
 1537              	.LBE52:
 1538              		.cfi_endproc
 1539              	.LFE68:
 1541              		.section	.rodata.__awss_dev_bind_notify.str1.4,"aMS",@progbits,1
 1542              		.align	2
 1543              	.LC36:
 1544 0000 6465765F 		.string	"dev_bind"
 1544      62696E64 
 1544      00
 1545              		.section	.text.__awss_dev_bind_notify,"ax",@progbits
 1546              		.align	1
 1548              	__awss_dev_bind_notify:
 1549              	.LFB73:
 400:C:/Users/stapi/OneDrive/Desktop/GD32VW553/V1_MQTT_OK/GD32VW55X_Wifi_BLE_SDK/GD32VW55x_RELEASE_V1.0.2/MSDK/cloud/alicloud/src/services/dev_bind\awss_notify.c **** 
 401:C:/Users/stapi/OneDrive/Desktop/GD32VW553/V1_MQTT_OK/GD32VW55X_Wifi_BLE_SDK/GD32VW55x_RELEASE_V1.0.2/MSDK/cloud/alicloud/src/services/dev_bind\awss_notify.c **** int online_mcast_get_device_info(void *ctx, void *resource, void *remote, void *request)
 402:C:/Users/stapi/OneDrive/Desktop/GD32VW553/V1_MQTT_OK/GD32VW55X_Wifi_BLE_SDK/GD32VW55x_RELEASE_V1.0.2/MSDK/cloud/alicloud/src/services/dev_bind\awss_notify.c **** {
 403:C:/Users/stapi/OneDrive/Desktop/GD32VW553/V1_MQTT_OK/GD32VW55X_Wifi_BLE_SDK/GD32VW55x_RELEASE_V1.0.2/MSDK/cloud/alicloud/src/services/dev_bind\awss_notify.c ****     return online_get_device_info(ctx, resource, remote, request, 1);
 404:C:/Users/stapi/OneDrive/Desktop/GD32VW553/V1_MQTT_OK/GD32VW55X_Wifi_BLE_SDK/GD32VW55x_RELEASE_V1.0.2/MSDK/cloud/alicloud/src/services/dev_bind\awss_notify.c **** }
 405:C:/Users/stapi/OneDrive/Desktop/GD32VW553/V1_MQTT_OK/GD32VW55X_Wifi_BLE_SDK/GD32VW55x_RELEASE_V1.0.2/MSDK/cloud/alicloud/src/services/dev_bind\awss_notify.c **** 
 406:C:/Users/stapi/OneDrive/Desktop/GD32VW553/V1_MQTT_OK/GD32VW55X_Wifi_BLE_SDK/GD32VW55x_RELEASE_V1.0.2/MSDK/cloud/alicloud/src/services/dev_bind\awss_notify.c **** int online_ucast_get_device_info(void *ctx, void *resource, void *remote, void *request)
 407:C:/Users/stapi/OneDrive/Desktop/GD32VW553/V1_MQTT_OK/GD32VW55X_Wifi_BLE_SDK/GD32VW55x_RELEASE_V1.0.2/MSDK/cloud/alicloud/src/services/dev_bind\awss_notify.c **** {
 408:C:/Users/stapi/OneDrive/Desktop/GD32VW553/V1_MQTT_OK/GD32VW55X_Wifi_BLE_SDK/GD32VW55x_RELEASE_V1.0.2/MSDK/cloud/alicloud/src/services/dev_bind\awss_notify.c ****     return online_get_device_info(ctx, resource, remote, request, 0);
 409:C:/Users/stapi/OneDrive/Desktop/GD32VW553/V1_MQTT_OK/GD32VW55X_Wifi_BLE_SDK/GD32VW55x_RELEASE_V1.0.2/MSDK/cloud/alicloud/src/services/dev_bind\awss_notify.c **** }
 410:C:/Users/stapi/OneDrive/Desktop/GD32VW553/V1_MQTT_OK/GD32VW55X_Wifi_BLE_SDK/GD32VW55x_RELEASE_V1.0.2/MSDK/cloud/alicloud/src/services/dev_bind\awss_notify.c **** 
 411:C:/Users/stapi/OneDrive/Desktop/GD32VW553/V1_MQTT_OK/GD32VW55X_Wifi_BLE_SDK/GD32VW55x_RELEASE_V1.0.2/MSDK/cloud/alicloud/src/services/dev_bind\awss_notify.c **** static int dev_bind_interval = 0;
 412:C:/Users/stapi/OneDrive/Desktop/GD32VW553/V1_MQTT_OK/GD32VW55X_Wifi_BLE_SDK/GD32VW55x_RELEASE_V1.0.2/MSDK/cloud/alicloud/src/services/dev_bind\awss_notify.c **** static char dev_sync_token = 0;
 413:C:/Users/stapi/OneDrive/Desktop/GD32VW553/V1_MQTT_OK/GD32VW55X_Wifi_BLE_SDK/GD32VW55x_RELEASE_V1.0.2/MSDK/cloud/alicloud/src/services/dev_bind\awss_notify.c **** static char dev_bind_cnt = 0;
 414:C:/Users/stapi/OneDrive/Desktop/GD32VW553/V1_MQTT_OK/GD32VW55X_Wifi_BLE_SDK/GD32VW55x_RELEASE_V1.0.2/MSDK/cloud/alicloud/src/services/dev_bind\awss_notify.c **** static int __awss_dev_bind_notify()
 415:C:/Users/stapi/OneDrive/Desktop/GD32VW553/V1_MQTT_OK/GD32VW55X_Wifi_BLE_SDK/GD32VW55x_RELEASE_V1.0.2/MSDK/cloud/alicloud/src/services/dev_bind\awss_notify.c **** {
 1550              		.loc 1 415 1 is_stmt 1
 1551              		.cfi_startproc
 1552 0000 17030000 		call	t0,__riscv_save_6
 1552      E7020300 
 1553              		.cfi_offset 21, -28
 1554              		.cfi_offset 20, -24
 1555              		.cfi_offset 19, -20
 1556              		.cfi_offset 18, -16
 1557              		.cfi_offset 9, -12
 1558              		.cfi_offset 8, -8
 1559              		.cfi_offset 1, -4
 1560              		.cfi_def_cfa_offset 32
 416:C:/Users/stapi/OneDrive/Desktop/GD32VW553/V1_MQTT_OK/GD32VW55X_Wifi_BLE_SDK/GD32VW55x_RELEASE_V1.0.2/MSDK/cloud/alicloud/src/services/dev_bind\awss_notify.c ****     /*
