   1              		.file	"passwd.c"
   2              		.option nopic
   3              		.attribute arch, "rv32i2p0_m2p0_a2p0_f2p0_c2p0_b_p0p94"
   4              		.attribute unaligned_access, 0
   5              		.attribute stack_align, 16
   6              		.text
   7              	.Ltext0:
   8              		.cfi_sections	.debug_frame
   9              		.section	.rodata.awss_set_token.str1.4,"aMS",@progbits,1
  10              		.align	2
  11              	.LC0:
  12 0000 62696E64 		.string	"bind: app token set (%d):%s"
  12      3A206170 
  12      7020746F 
  12      6B656E20 
  12      73657420 
  13              		.section	.text.awss_set_token,"ax",@progbits
  14              		.align	1
  15              		.globl	awss_set_token
  17              	awss_set_token:
  18              	.LFB64:
  19              		.file 1 "C:/Users/stapi/OneDrive/Desktop/GD32VW553/V1_MQTT_OK/GD32VW55X_Wifi_BLE_SDK/GD32VW55x_REL
   1:C:/Users/stapi/OneDrive/Desktop/GD32VW553/V1_MQTT_OK/GD32VW55X_Wifi_BLE_SDK/GD32VW55x_RELEASE_V1.0.2/MSDK/cloud/alicloud/src/services/dev_bind\passwd.c **** /*
   2:C:/Users/stapi/OneDrive/Desktop/GD32VW553/V1_MQTT_OK/GD32VW55X_Wifi_BLE_SDK/GD32VW55x_RELEASE_V1.0.2/MSDK/cloud/alicloud/src/services/dev_bind\passwd.c ****  * Copyright (C) 2015-2018 Alibaba Group Holding Limited
   3:C:/Users/stapi/OneDrive/Desktop/GD32VW553/V1_MQTT_OK/GD32VW55X_Wifi_BLE_SDK/GD32VW55x_RELEASE_V1.0.2/MSDK/cloud/alicloud/src/services/dev_bind\passwd.c ****  */
   4:C:/Users/stapi/OneDrive/Desktop/GD32VW553/V1_MQTT_OK/GD32VW55X_Wifi_BLE_SDK/GD32VW55x_RELEASE_V1.0.2/MSDK/cloud/alicloud/src/services/dev_bind\passwd.c **** 
   5:C:/Users/stapi/OneDrive/Desktop/GD32VW553/V1_MQTT_OK/GD32VW55X_Wifi_BLE_SDK/GD32VW55x_RELEASE_V1.0.2/MSDK/cloud/alicloud/src/services/dev_bind\passwd.c **** #include <stdlib.h>
   6:C:/Users/stapi/OneDrive/Desktop/GD32VW553/V1_MQTT_OK/GD32VW55X_Wifi_BLE_SDK/GD32VW55x_RELEASE_V1.0.2/MSDK/cloud/alicloud/src/services/dev_bind\passwd.c **** 
   7:C:/Users/stapi/OneDrive/Desktop/GD32VW553/V1_MQTT_OK/GD32VW55X_Wifi_BLE_SDK/GD32VW55x_RELEASE_V1.0.2/MSDK/cloud/alicloud/src/services/dev_bind\passwd.c **** #include "os.h"
   8:C:/Users/stapi/OneDrive/Desktop/GD32VW553/V1_MQTT_OK/GD32VW55X_Wifi_BLE_SDK/GD32VW55x_RELEASE_V1.0.2/MSDK/cloud/alicloud/src/services/dev_bind\passwd.c **** #include "passwd.h"
   9:C:/Users/stapi/OneDrive/Desktop/GD32VW553/V1_MQTT_OK/GD32VW55X_Wifi_BLE_SDK/GD32VW55x_RELEASE_V1.0.2/MSDK/cloud/alicloud/src/services/dev_bind\passwd.c **** #include "awss_utils.h"
  10:C:/Users/stapi/OneDrive/Desktop/GD32VW553/V1_MQTT_OK/GD32VW55X_Wifi_BLE_SDK/GD32VW55x_RELEASE_V1.0.2/MSDK/cloud/alicloud/src/services/dev_bind\passwd.c **** #include "awss_log.h"
  11:C:/Users/stapi/OneDrive/Desktop/GD32VW553/V1_MQTT_OK/GD32VW55X_Wifi_BLE_SDK/GD32VW55x_RELEASE_V1.0.2/MSDK/cloud/alicloud/src/services/dev_bind\passwd.c **** #include "awss_packet.h"
  12:C:/Users/stapi/OneDrive/Desktop/GD32VW553/V1_MQTT_OK/GD32VW55X_Wifi_BLE_SDK/GD32VW55x_RELEASE_V1.0.2/MSDK/cloud/alicloud/src/services/dev_bind\passwd.c **** 
  13:C:/Users/stapi/OneDrive/Desktop/GD32VW553/V1_MQTT_OK/GD32VW55X_Wifi_BLE_SDK/GD32VW55x_RELEASE_V1.0.2/MSDK/cloud/alicloud/src/services/dev_bind\passwd.c **** #if defined(__cplusplus)  /* If this is a C++ compiler, use C linkage */
  14:C:/Users/stapi/OneDrive/Desktop/GD32VW553/V1_MQTT_OK/GD32VW55X_Wifi_BLE_SDK/GD32VW55x_RELEASE_V1.0.2/MSDK/cloud/alicloud/src/services/dev_bind\passwd.c **** extern "C" {
  15:C:/Users/stapi/OneDrive/Desktop/GD32VW553/V1_MQTT_OK/GD32VW55X_Wifi_BLE_SDK/GD32VW55x_RELEASE_V1.0.2/MSDK/cloud/alicloud/src/services/dev_bind\passwd.c **** #endif
  16:C:/Users/stapi/OneDrive/Desktop/GD32VW553/V1_MQTT_OK/GD32VW55X_Wifi_BLE_SDK/GD32VW55x_RELEASE_V1.0.2/MSDK/cloud/alicloud/src/services/dev_bind\passwd.c **** 
  17:C:/Users/stapi/OneDrive/Desktop/GD32VW553/V1_MQTT_OK/GD32VW55X_Wifi_BLE_SDK/GD32VW55x_RELEASE_V1.0.2/MSDK/cloud/alicloud/src/services/dev_bind\passwd.c **** uint8_t g_aes_random[RANDOM_MAX_LEN] = {0};
  18:C:/Users/stapi/OneDrive/Desktop/GD32VW553/V1_MQTT_OK/GD32VW55X_Wifi_BLE_SDK/GD32VW55x_RELEASE_V1.0.2/MSDK/cloud/alicloud/src/services/dev_bind\passwd.c **** uint8_t g_token_type = TOKEN_TYPE_INVALID;
  19:C:/Users/stapi/OneDrive/Desktop/GD32VW553/V1_MQTT_OK/GD32VW55X_Wifi_BLE_SDK/GD32VW55x_RELEASE_V1.0.2/MSDK/cloud/alicloud/src/services/dev_bind\passwd.c **** 
  20:C:/Users/stapi/OneDrive/Desktop/GD32VW553/V1_MQTT_OK/GD32VW55X_Wifi_BLE_SDK/GD32VW55x_RELEASE_V1.0.2/MSDK/cloud/alicloud/src/services/dev_bind\passwd.c **** #ifndef CONFIG_BLDTIME_MUTE_DBGLOG
  21:C:/Users/stapi/OneDrive/Desktop/GD32VW553/V1_MQTT_OK/GD32VW55X_Wifi_BLE_SDK/GD32VW55x_RELEASE_V1.0.2/MSDK/cloud/alicloud/src/services/dev_bind\passwd.c **** void _dump_hex(uint8_t *data, int len, int tab_num)
  22:C:/Users/stapi/OneDrive/Desktop/GD32VW553/V1_MQTT_OK/GD32VW55X_Wifi_BLE_SDK/GD32VW55x_RELEASE_V1.0.2/MSDK/cloud/alicloud/src/services/dev_bind\passwd.c **** {
  23:C:/Users/stapi/OneDrive/Desktop/GD32VW553/V1_MQTT_OK/GD32VW55X_Wifi_BLE_SDK/GD32VW55x_RELEASE_V1.0.2/MSDK/cloud/alicloud/src/services/dev_bind\passwd.c ****     int i;
  24:C:/Users/stapi/OneDrive/Desktop/GD32VW553/V1_MQTT_OK/GD32VW55X_Wifi_BLE_SDK/GD32VW55x_RELEASE_V1.0.2/MSDK/cloud/alicloud/src/services/dev_bind\passwd.c ****     for (i = 0; i < len; i++) {
  25:C:/Users/stapi/OneDrive/Desktop/GD32VW553/V1_MQTT_OK/GD32VW55X_Wifi_BLE_SDK/GD32VW55x_RELEASE_V1.0.2/MSDK/cloud/alicloud/src/services/dev_bind\passwd.c ****         HAL_Printf("%02x ", data[i]);
  26:C:/Users/stapi/OneDrive/Desktop/GD32VW553/V1_MQTT_OK/GD32VW55X_Wifi_BLE_SDK/GD32VW55x_RELEASE_V1.0.2/MSDK/cloud/alicloud/src/services/dev_bind\passwd.c **** 
  27:C:/Users/stapi/OneDrive/Desktop/GD32VW553/V1_MQTT_OK/GD32VW55X_Wifi_BLE_SDK/GD32VW55x_RELEASE_V1.0.2/MSDK/cloud/alicloud/src/services/dev_bind\passwd.c ****         if (!((i + 1) % tab_num)) {
  28:C:/Users/stapi/OneDrive/Desktop/GD32VW553/V1_MQTT_OK/GD32VW55X_Wifi_BLE_SDK/GD32VW55x_RELEASE_V1.0.2/MSDK/cloud/alicloud/src/services/dev_bind\passwd.c ****             HAL_Printf("\r\n");
  29:C:/Users/stapi/OneDrive/Desktop/GD32VW553/V1_MQTT_OK/GD32VW55X_Wifi_BLE_SDK/GD32VW55x_RELEASE_V1.0.2/MSDK/cloud/alicloud/src/services/dev_bind\passwd.c ****         }
  30:C:/Users/stapi/OneDrive/Desktop/GD32VW553/V1_MQTT_OK/GD32VW55X_Wifi_BLE_SDK/GD32VW55x_RELEASE_V1.0.2/MSDK/cloud/alicloud/src/services/dev_bind\passwd.c ****     }
  31:C:/Users/stapi/OneDrive/Desktop/GD32VW553/V1_MQTT_OK/GD32VW55X_Wifi_BLE_SDK/GD32VW55x_RELEASE_V1.0.2/MSDK/cloud/alicloud/src/services/dev_bind\passwd.c **** 
  32:C:/Users/stapi/OneDrive/Desktop/GD32VW553/V1_MQTT_OK/GD32VW55X_Wifi_BLE_SDK/GD32VW55x_RELEASE_V1.0.2/MSDK/cloud/alicloud/src/services/dev_bind\passwd.c ****     HAL_Printf("\r\n");
  33:C:/Users/stapi/OneDrive/Desktop/GD32VW553/V1_MQTT_OK/GD32VW55X_Wifi_BLE_SDK/GD32VW55x_RELEASE_V1.0.2/MSDK/cloud/alicloud/src/services/dev_bind\passwd.c **** }
  34:C:/Users/stapi/OneDrive/Desktop/GD32VW553/V1_MQTT_OK/GD32VW55X_Wifi_BLE_SDK/GD32VW55x_RELEASE_V1.0.2/MSDK/cloud/alicloud/src/services/dev_bind\passwd.c **** #endif
  35:C:/Users/stapi/OneDrive/Desktop/GD32VW553/V1_MQTT_OK/GD32VW55X_Wifi_BLE_SDK/GD32VW55x_RELEASE_V1.0.2/MSDK/cloud/alicloud/src/services/dev_bind\passwd.c **** 
  36:C:/Users/stapi/OneDrive/Desktop/GD32VW553/V1_MQTT_OK/GD32VW55X_Wifi_BLE_SDK/GD32VW55x_RELEASE_V1.0.2/MSDK/cloud/alicloud/src/services/dev_bind\passwd.c **** int awss_set_token(uint8_t token[RANDOM_MAX_LEN], bind_token_type_t token_type)
  37:C:/Users/stapi/OneDrive/Desktop/GD32VW553/V1_MQTT_OK/GD32VW55X_Wifi_BLE_SDK/GD32VW55x_RELEASE_V1.0.2/MSDK/cloud/alicloud/src/services/dev_bind\passwd.c **** {
  20              		.loc 1 37 1
  21              		.cfi_startproc
  22              	.LVL0:
  23 0000 17030000 		call	t0,__riscv_save_3
  23      E7020300 
  24              		.cfi_offset 18, -16
  25              		.cfi_offset 9, -12
  26              		.cfi_offset 8, -8
  27              		.cfi_offset 1, -4
  28              		.cfi_def_cfa_offset 16
  38:C:/Users/stapi/OneDrive/Desktop/GD32VW553/V1_MQTT_OK/GD32VW55X_Wifi_BLE_SDK/GD32VW55x_RELEASE_V1.0.2/MSDK/cloud/alicloud/src/services/dev_bind\passwd.c ****     char rand_str[RANDOM_MAX_LEN * 2 + 1] = {0};
  29              		.loc 1 38 5
  37:C:/Users/stapi/OneDrive/Desktop/GD32VW553/V1_MQTT_OK/GD32VW55X_Wifi_BLE_SDK/GD32VW55x_RELEASE_V1.0.2/MSDK/cloud/alicloud/src/services/dev_bind\passwd.c ****     char rand_str[RANDOM_MAX_LEN * 2 + 1] = {0};
  30              		.loc 1 37 1 is_stmt 0
  31 0008 7971     		addi	sp,sp,-48
  32              		.cfi_def_cfa_offset 64
  37:C:/Users/stapi/OneDrive/Desktop/GD32VW553/V1_MQTT_OK/GD32VW55X_Wifi_BLE_SDK/GD32VW55x_RELEASE_V1.0.2/MSDK/cloud/alicloud/src/services/dev_bind\passwd.c ****     char rand_str[RANDOM_MAX_LEN * 2 + 1] = {0};
  33              		.loc 1 37 1
  34 000a 2A84     		mv	s0,a0
  35 000c AE84     		mv	s1,a1
  36              		.loc 1 38 10
  37 000e 7546     		li	a2,29
  38 0010 8145     		li	a1,0
  39              	.LVL1:
  40 0012 0808     		addi	a0,sp,16
  41              	.LVL2:
  42 0014 02C6     		sw	zero,12(sp)
  43 0016 97000000 		call	memset
  43      E7800000 
  44              	.LVL3:
  39:C:/Users/stapi/OneDrive/Desktop/GD32VW553/V1_MQTT_OK/GD32VW55X_Wifi_BLE_SDK/GD32VW55x_RELEASE_V1.0.2/MSDK/cloud/alicloud/src/services/dev_bind\passwd.c ****     if ((token == NULL) || (token_type >= TOKEN_TYPE_MAX)) {
  45              		.loc 1 39 5 is_stmt 1
  40:C:/Users/stapi/OneDrive/Desktop/GD32VW553/V1_MQTT_OK/GD32VW55X_Wifi_BLE_SDK/GD32VW55x_RELEASE_V1.0.2/MSDK/cloud/alicloud/src/services/dev_bind\passwd.c ****         return STATE_USER_INPUT_NULL_POINTER;
  46              		.loc 1 40 16 is_stmt 0
  47 001e 1305F0EF 		li	a0,-257
  39:C:/Users/stapi/OneDrive/Desktop/GD32VW553/V1_MQTT_OK/GD32VW55X_Wifi_BLE_SDK/GD32VW55x_RELEASE_V1.0.2/MSDK/cloud/alicloud/src/services/dev_bind\passwd.c ****     if ((token == NULL) || (token_type >= TOKEN_TYPE_MAX)) {
  48              		.loc 1 39 8
  49 0022 39CC     		beq	s0,zero,.L1
  39:C:/Users/stapi/OneDrive/Desktop/GD32VW553/V1_MQTT_OK/GD32VW55X_Wifi_BLE_SDK/GD32VW55x_RELEASE_V1.0.2/MSDK/cloud/alicloud/src/services/dev_bind\passwd.c ****     if ((token == NULL) || (token_type >= TOKEN_TYPE_MAX)) {
  50              		.loc 1 39 25 discriminator 1
  51 0024 8547     		li	a5,1
  52              		.loc 1 40 16 discriminator 1
  53 0026 1305F0EF 		li	a0,-257
  39:C:/Users/stapi/OneDrive/Desktop/GD32VW553/V1_MQTT_OK/GD32VW55X_Wifi_BLE_SDK/GD32VW55x_RELEASE_V1.0.2/MSDK/cloud/alicloud/src/services/dev_bind\passwd.c ****     if ((token == NULL) || (token_type >= TOKEN_TYPE_MAX)) {
  54              		.loc 1 39 25 discriminator 1
  55 002a 63EB9704 		bgtu	s1,a5,.L1
  41:C:/Users/stapi/OneDrive/Desktop/GD32VW553/V1_MQTT_OK/GD32VW55X_Wifi_BLE_SDK/GD32VW55x_RELEASE_V1.0.2/MSDK/cloud/alicloud/src/services/dev_bind\passwd.c ****     }
  42:C:/Users/stapi/OneDrive/Desktop/GD32VW553/V1_MQTT_OK/GD32VW55X_Wifi_BLE_SDK/GD32VW55x_RELEASE_V1.0.2/MSDK/cloud/alicloud/src/services/dev_bind\passwd.c **** 
  43:C:/Users/stapi/OneDrive/Desktop/GD32VW553/V1_MQTT_OK/GD32VW55X_Wifi_BLE_SDK/GD32VW55x_RELEASE_V1.0.2/MSDK/cloud/alicloud/src/services/dev_bind\passwd.c ****     memcpy(g_aes_random, token, RANDOM_MAX_LEN);
  56              		.loc 1 43 5 is_stmt 1
  57 002e 37090000 		lui	s2,%hi(.LANCHOR0)
  58 0032 A285     		mv	a1,s0
  59 0034 4146     		li	a2,16
  60 0036 13050900 		addi	a0,s2,%lo(.LANCHOR0)
  61 003a 97000000 		call	memcpy
  61      E7800000 
  62              	.LVL4:
  44:C:/Users/stapi/OneDrive/Desktop/GD32VW553/V1_MQTT_OK/GD32VW55X_Wifi_BLE_SDK/GD32VW55x_RELEASE_V1.0.2/MSDK/cloud/alicloud/src/services/dev_bind\passwd.c ****     g_token_type = token_type;
  63              		.loc 1 44 5
  64              		.loc 1 44 18 is_stmt 0
  65 0042 37040000 		lui	s0,%hi(.LANCHOR1)
  66              	.LVL5:
  67 0046 13040400 		addi	s0,s0,%lo(.LANCHOR1)
  45:C:/Users/stapi/OneDrive/Desktop/GD32VW553/V1_MQTT_OK/GD32VW55X_Wifi_BLE_SDK/GD32VW55x_RELEASE_V1.0.2/MSDK/cloud/alicloud/src/services/dev_bind\passwd.c ****     utils_hex_to_str(g_aes_random, RANDOM_MAX_LEN, rand_str, sizeof(rand_str));
  68              		.loc 1 45 5
  69 004a 8546     		li	a3,1
  70 004c 4146     		li	a2,16
  71 004e 6C00     		addi	a1,sp,12
  72 0050 13050900 		addi	a0,s2,%lo(.LANCHOR0)
  44:C:/Users/stapi/OneDrive/Desktop/GD32VW553/V1_MQTT_OK/GD32VW55X_Wifi_BLE_SDK/GD32VW55x_RELEASE_V1.0.2/MSDK/cloud/alicloud/src/services/dev_bind\passwd.c ****     g_token_type = token_type;
  73              		.loc 1 44 18
  74 0054 23009400 		sb	s1,0(s0)
  75              		.loc 1 45 5 is_stmt 1
  76 0058 97000000 		call	LITE_hexbuf_convert
  76      E7800000 
  77              	.LVL6:
  46:C:/Users/stapi/OneDrive/Desktop/GD32VW553/V1_MQTT_OK/GD32VW55X_Wifi_BLE_SDK/GD32VW55x_RELEASE_V1.0.2/MSDK/cloud/alicloud/src/services/dev_bind\passwd.c ****     dump_dev_bind_status(STATE_BIND_SET_APP_TOKEN, "bind: app token set (%d):%s", g_token_type, ran
  78              		.loc 1 46 5
  79 0060 83460400 		lbu	a3,0(s0)
  80 0064 37060000 		lui	a2,%hi(.LC0)
  81 0068 FD75     		li	a1,-4096
  82 006a 7800     		addi	a4,sp,12
  83 006c 13060600 		addi	a2,a2,%lo(.LC0)
  84 0070 9385F57F 		addi	a1,a1,2047
  85 0074 7D45     		li	a0,31
  86 0076 97000000 		call	iotx_state_event
  86      E7800000 
  87              	.LVL7:
  47:C:/Users/stapi/OneDrive/Desktop/GD32VW553/V1_MQTT_OK/GD32VW55X_Wifi_BLE_SDK/GD32VW55x_RELEASE_V1.0.2/MSDK/cloud/alicloud/src/services/dev_bind\passwd.c ****     return STATE_SUCCESS;
  88              		.loc 1 47 5
  89              		.loc 1 47 12 is_stmt 0
  90 007e 0145     		li	a0,0
  91              	.L1:
  48:C:/Users/stapi/OneDrive/Desktop/GD32VW553/V1_MQTT_OK/GD32VW55X_Wifi_BLE_SDK/GD32VW55x_RELEASE_V1.0.2/MSDK/cloud/alicloud/src/services/dev_bind\passwd.c **** }
  92              		.loc 1 48 1
  93 0080 4561     		addi	sp,sp,48
  94              		.cfi_def_cfa_offset 0
  95 0082 17030000 		tail	__riscv_restore_3
  95      67000300 
  96              		.cfi_restore 18
  97              		.cfi_restore 9
  98              		.cfi_restore 8
  99              		.cfi_restore 1
 100              		.cfi_def_cfa_offset -16
 101              		.cfi_endproc
 102              	.LFE64:
 104              		.section	.rodata.awss_get_token.str1.4,"aMS",@progbits,1
 105              		.align	2
 106              	.LC1:
 107 0000 70726F64 		.string	"produce random:"
 107      75636520 
 107      72616E64 
 107      6F6D3A00 
 108              		.align	2
 109              	.LC2:
 110 0010 61777373 		.string	"awss"
 110      00
 111              		.section	.text.awss_get_token,"ax",@progbits
 112              		.align	1
 113              		.globl	awss_get_token
 115              	awss_get_token:
 116              	.LFB65:
  49:C:/Users/stapi/OneDrive/Desktop/GD32VW553/V1_MQTT_OK/GD32VW55X_Wifi_BLE_SDK/GD32VW55x_RELEASE_V1.0.2/MSDK/cloud/alicloud/src/services/dev_bind\passwd.c **** 
  50:C:/Users/stapi/OneDrive/Desktop/GD32VW553/V1_MQTT_OK/GD32VW55X_Wifi_BLE_SDK/GD32VW55x_RELEASE_V1.0.2/MSDK/cloud/alicloud/src/services/dev_bind\passwd.c **** int awss_get_token(uint8_t token_buf[], int token_buf_len, bind_token_type_t *p_token_type)
  51:C:/Users/stapi/OneDrive/Desktop/GD32VW553/V1_MQTT_OK/GD32VW55X_Wifi_BLE_SDK/GD32VW55x_RELEASE_V1.0.2/MSDK/cloud/alicloud/src/services/dev_bind\passwd.c **** {
 117              		.loc 1 51 1 is_stmt 1
 118              		.cfi_startproc
 119              	.LVL8:
 120 0000 17030000 		call	t0,__riscv_save_3
 120      E7020300 
 121              		.cfi_offset 18, -16
 122              		.cfi_offset 9, -12
 123              		.cfi_offset 8, -8
 124              		.cfi_offset 1, -4
 125              		.cfi_def_cfa_offset 16
  52:C:/Users/stapi/OneDrive/Desktop/GD32VW553/V1_MQTT_OK/GD32VW55X_Wifi_BLE_SDK/GD32VW55x_RELEASE_V1.0.2/MSDK/cloud/alicloud/src/services/dev_bind\passwd.c ****     int i = 0;
 126              		.loc 1 52 5
 127              	.LVL9:
  53:C:/Users/stapi/OneDrive/Desktop/GD32VW553/V1_MQTT_OK/GD32VW55X_Wifi_BLE_SDK/GD32VW55x_RELEASE_V1.0.2/MSDK/cloud/alicloud/src/services/dev_bind\passwd.c ****     char token_str[RANDOM_STR_MAX_LEN] = {0};
 128              		.loc 1 53 5
  51:C:/Users/stapi/OneDrive/Desktop/GD32VW553/V1_MQTT_OK/GD32VW55X_Wifi_BLE_SDK/GD32VW55x_RELEASE_V1.0.2/MSDK/cloud/alicloud/src/services/dev_bind\passwd.c ****     int i = 0;
 129              		.loc 1 51 1 is_stmt 0
 130 0008 7971     		addi	sp,sp,-48
 131              		.cfi_def_cfa_offset 64
  51:C:/Users/stapi/OneDrive/Desktop/GD32VW553/V1_MQTT_OK/GD32VW55X_Wifi_BLE_SDK/GD32VW55x_RELEASE_V1.0.2/MSDK/cloud/alicloud/src/services/dev_bind\passwd.c ****     int i = 0;
 132              		.loc 1 51 1
 133 000a 2A84     		mv	s0,a0
 134 000c 2E89     		mv	s2,a1
 135 000e B284     		mv	s1,a2
 136              		.loc 1 53 10
 137 0010 8145     		li	a1,0
 138              	.LVL10:
 139 0012 7546     		li	a2,29
 140              	.LVL11:
 141 0014 0808     		addi	a0,sp,16
 142              	.LVL12:
 143 0016 02C6     		sw	zero,12(sp)
 144 0018 97000000 		call	memset
 144      E7800000 
 145              	.LVL13:
  54:C:/Users/stapi/OneDrive/Desktop/GD32VW553/V1_MQTT_OK/GD32VW55X_Wifi_BLE_SDK/GD32VW55x_RELEASE_V1.0.2/MSDK/cloud/alicloud/src/services/dev_bind\passwd.c **** 
  55:C:/Users/stapi/OneDrive/Desktop/GD32VW553/V1_MQTT_OK/GD32VW55X_Wifi_BLE_SDK/GD32VW55x_RELEASE_V1.0.2/MSDK/cloud/alicloud/src/services/dev_bind\passwd.c ****     if (!token_buf || token_buf_len < RANDOM_STR_MAX_LEN) 
 146              		.loc 1 55 5 is_stmt 1
  56:C:/Users/stapi/OneDrive/Desktop/GD32VW553/V1_MQTT_OK/GD32VW55X_Wifi_BLE_SDK/GD32VW55x_RELEASE_V1.0.2/MSDK/cloud/alicloud/src/services/dev_bind\passwd.c ****     {
  57:C:/Users/stapi/OneDrive/Desktop/GD32VW553/V1_MQTT_OK/GD32VW55X_Wifi_BLE_SDK/GD32VW55x_RELEASE_V1.0.2/MSDK/cloud/alicloud/src/services/dev_bind\passwd.c ****         return STATE_USER_INPUT_INVALID;
 147              		.loc 1 57 16 is_stmt 0
 148 0020 1305D0EE 		li	a0,-275
  55:C:/Users/stapi/OneDrive/Desktop/GD32VW553/V1_MQTT_OK/GD32VW55X_Wifi_BLE_SDK/GD32VW55x_RELEASE_V1.0.2/MSDK/cloud/alicloud/src/services/dev_bind\passwd.c ****     {
 149              		.loc 1 55 8
 150 0024 59C4     		beq	s0,zero,.L6
  55:C:/Users/stapi/OneDrive/Desktop/GD32VW553/V1_MQTT_OK/GD32VW55X_Wifi_BLE_SDK/GD32VW55x_RELEASE_V1.0.2/MSDK/cloud/alicloud/src/services/dev_bind\passwd.c ****     {
 151              		.loc 1 55 20 discriminator 1
 152 0026 93070002 		li	a5,32
 153              		.loc 1 57 16 discriminator 1
 154 002a 1305D0EE 		li	a0,-275
  55:C:/Users/stapi/OneDrive/Desktop/GD32VW553/V1_MQTT_OK/GD32VW55X_Wifi_BLE_SDK/GD32VW55x_RELEASE_V1.0.2/MSDK/cloud/alicloud/src/services/dev_bind\passwd.c ****     {
 155              		.loc 1 55 20 discriminator 1
 156 002e 63D22709 		ble	s2,a5,.L6
  58:C:/Users/stapi/OneDrive/Desktop/GD32VW553/V1_MQTT_OK/GD32VW55X_Wifi_BLE_SDK/GD32VW55x_RELEASE_V1.0.2/MSDK/cloud/alicloud/src/services/dev_bind\passwd.c ****     }
  59:C:/Users/stapi/OneDrive/Desktop/GD32VW553/V1_MQTT_OK/GD32VW55X_Wifi_BLE_SDK/GD32VW55x_RELEASE_V1.0.2/MSDK/cloud/alicloud/src/services/dev_bind\passwd.c **** 
  60:C:/Users/stapi/OneDrive/Desktop/GD32VW553/V1_MQTT_OK/GD32VW55X_Wifi_BLE_SDK/GD32VW55x_RELEASE_V1.0.2/MSDK/cloud/alicloud/src/services/dev_bind\passwd.c ****     for (i = 0; i < sizeof(g_aes_random); i ++)  // check g_aes_random is initialed or not
  61:C:/Users/stapi/OneDrive/Desktop/GD32VW553/V1_MQTT_OK/GD32VW55X_Wifi_BLE_SDK/GD32VW55x_RELEASE_V1.0.2/MSDK/cloud/alicloud/src/services/dev_bind\passwd.c ****     {
  62:C:/Users/stapi/OneDrive/Desktop/GD32VW553/V1_MQTT_OK/GD32VW55X_Wifi_BLE_SDK/GD32VW55x_RELEASE_V1.0.2/MSDK/cloud/alicloud/src/services/dev_bind\passwd.c ****         if (g_aes_random[i] != 0x00) {
 157              		.loc 1 62 25
 158 0032 37050000 		lui	a0,%hi(.LANCHOR0)
  60:C:/Users/stapi/OneDrive/Desktop/GD32VW553/V1_MQTT_OK/GD32VW55X_Wifi_BLE_SDK/GD32VW55x_RELEASE_V1.0.2/MSDK/cloud/alicloud/src/services/dev_bind\passwd.c ****     {
 159              		.loc 1 60 12
 160 0036 8147     		li	a5,0
 161              		.loc 1 62 25
 162 0038 93060500 		addi	a3,a0,%lo(.LANCHOR0)
 163 003c 2A89     		mv	s2,a0
 164              	.LVL14:
  60:C:/Users/stapi/OneDrive/Desktop/GD32VW553/V1_MQTT_OK/GD32VW55X_Wifi_BLE_SDK/GD32VW55x_RELEASE_V1.0.2/MSDK/cloud/alicloud/src/services/dev_bind\passwd.c ****     {
 165              		.loc 1 60 5
 166 003e 4147     		li	a4,16
 167              	.LVL15:
 168              	.L9:
 169              		.loc 1 62 9 is_stmt 1
 170              		.loc 1 62 25 is_stmt 0
 171 0040 3386F600 		add	a2,a3,a5
 172              		.loc 1 62 12
 173 0044 03460600 		lbu	a2,0(a2)
 174 0048 15EE     		bne	a2,zero,.L8
  60:C:/Users/stapi/OneDrive/Desktop/GD32VW553/V1_MQTT_OK/GD32VW55X_Wifi_BLE_SDK/GD32VW55x_RELEASE_V1.0.2/MSDK/cloud/alicloud/src/services/dev_bind\passwd.c ****     {
 175              		.loc 1 60 43 is_stmt 1 discriminator 2
  60:C:/Users/stapi/OneDrive/Desktop/GD32VW553/V1_MQTT_OK/GD32VW55X_Wifi_BLE_SDK/GD32VW55x_RELEASE_V1.0.2/MSDK/cloud/alicloud/src/services/dev_bind\passwd.c ****     {
 176              		.loc 1 60 45 is_stmt 0 discriminator 2
 177 004a 8507     		addi	a5,a5,1
 178              	.LVL16:
  60:C:/Users/stapi/OneDrive/Desktop/GD32VW553/V1_MQTT_OK/GD32VW55X_Wifi_BLE_SDK/GD32VW55x_RELEASE_V1.0.2/MSDK/cloud/alicloud/src/services/dev_bind\passwd.c ****     {
 179              		.loc 1 60 17 is_stmt 1 discriminator 2
  60:C:/Users/stapi/OneDrive/Desktop/GD32VW553/V1_MQTT_OK/GD32VW55X_Wifi_BLE_SDK/GD32VW55x_RELEASE_V1.0.2/MSDK/cloud/alicloud/src/services/dev_bind\passwd.c ****     {
 180              		.loc 1 60 5 is_stmt 0 discriminator 2
 181 004c E39AE7FE 		bne	a5,a4,.L9
  63:C:/Users/stapi/OneDrive/Desktop/GD32VW553/V1_MQTT_OK/GD32VW55X_Wifi_BLE_SDK/GD32VW55x_RELEASE_V1.0.2/MSDK/cloud/alicloud/src/services/dev_bind\passwd.c ****             break;
  64:C:/Users/stapi/OneDrive/Desktop/GD32VW553/V1_MQTT_OK/GD32VW55X_Wifi_BLE_SDK/GD32VW55x_RELEASE_V1.0.2/MSDK/cloud/alicloud/src/services/dev_bind\passwd.c ****         }
  65:C:/Users/stapi/OneDrive/Desktop/GD32VW553/V1_MQTT_OK/GD32VW55X_Wifi_BLE_SDK/GD32VW55x_RELEASE_V1.0.2/MSDK/cloud/alicloud/src/services/dev_bind\passwd.c ****     }
  66:C:/Users/stapi/OneDrive/Desktop/GD32VW553/V1_MQTT_OK/GD32VW55X_Wifi_BLE_SDK/GD32VW55x_RELEASE_V1.0.2/MSDK/cloud/alicloud/src/services/dev_bind\passwd.c **** 
  67:C:/Users/stapi/OneDrive/Desktop/GD32VW553/V1_MQTT_OK/GD32VW55X_Wifi_BLE_SDK/GD32VW55x_RELEASE_V1.0.2/MSDK/cloud/alicloud/src/services/dev_bind\passwd.c ****     if (i >= sizeof(g_aes_random)) { // g_aes_random needs to be initialed
 182              		.loc 1 67 5 is_stmt 1
  68:C:/Users/stapi/OneDrive/Desktop/GD32VW553/V1_MQTT_OK/GD32VW55X_Wifi_BLE_SDK/GD32VW55x_RELEASE_V1.0.2/MSDK/cloud/alicloud/src/services/dev_bind\passwd.c ****         produce_random(g_aes_random, sizeof(g_aes_random));
 183              		.loc 1 68 9
 184 0050 C145     		li	a1,16
 185 0052 13050500 		addi	a0,a0,%lo(.LANCHOR0)
 186 0056 97000000 		call	produce_random
 186      E7800000 
 187              	.LVL17:
  69:C:/Users/stapi/OneDrive/Desktop/GD32VW553/V1_MQTT_OK/GD32VW55X_Wifi_BLE_SDK/GD32VW55x_RELEASE_V1.0.2/MSDK/cloud/alicloud/src/services/dev_bind\passwd.c ****         awss_debug("produce random:");
 188              		.loc 1 69 9
 189 005e 37070000 		lui	a4,%hi(.LC1)
 190 0062 B7050000 		lui	a1,%hi(.LANCHOR2)
 191 0066 37050000 		lui	a0,%hi(.LC2)
 192 006a 13070700 		addi	a4,a4,%lo(.LC1)
 193 006e 9546     		li	a3,5
 194 0070 13065004 		li	a2,69
 195 0074 93850500 		addi	a1,a1,%lo(.LANCHOR2)
 196 0078 13050500 		addi	a0,a0,%lo(.LC2)
 197 007c 97000000 		call	LITE_syslog
 197      E7800000 
 198              	.LVL18:
 199              	.L8:
  70:C:/Users/stapi/OneDrive/Desktop/GD32VW553/V1_MQTT_OK/GD32VW55X_Wifi_BLE_SDK/GD32VW55x_RELEASE_V1.0.2/MSDK/cloud/alicloud/src/services/dev_bind\passwd.c ****         #ifndef CONFIG_BLDTIME_MUTE_DBGLOG
  71:C:/Users/stapi/OneDrive/Desktop/GD32VW553/V1_MQTT_OK/GD32VW55X_Wifi_BLE_SDK/GD32VW55x_RELEASE_V1.0.2/MSDK/cloud/alicloud/src/services/dev_bind\passwd.c ****         _dump_hex((uint8_t *)g_aes_random, RANDOM_MAX_LEN, 24);
  72:C:/Users/stapi/OneDrive/Desktop/GD32VW553/V1_MQTT_OK/GD32VW55X_Wifi_BLE_SDK/GD32VW55x_RELEASE_V1.0.2/MSDK/cloud/alicloud/src/services/dev_bind\passwd.c ****         #endif
  73:C:/Users/stapi/OneDrive/Desktop/GD32VW553/V1_MQTT_OK/GD32VW55X_Wifi_BLE_SDK/GD32VW55x_RELEASE_V1.0.2/MSDK/cloud/alicloud/src/services/dev_bind\passwd.c ****     }
  74:C:/Users/stapi/OneDrive/Desktop/GD32VW553/V1_MQTT_OK/GD32VW55X_Wifi_BLE_SDK/GD32VW55x_RELEASE_V1.0.2/MSDK/cloud/alicloud/src/services/dev_bind\passwd.c **** 
  75:C:/Users/stapi/OneDrive/Desktop/GD32VW553/V1_MQTT_OK/GD32VW55X_Wifi_BLE_SDK/GD32VW55x_RELEASE_V1.0.2/MSDK/cloud/alicloud/src/services/dev_bind\passwd.c ****     utils_hex_to_str(g_aes_random, RANDOM_MAX_LEN, token_str, sizeof(token_str));
 200              		.loc 1 75 5
 201 0084 8546     		li	a3,1
 202 0086 4146     		li	a2,16
 203 0088 6C00     		addi	a1,sp,12
 204 008a 13050900 		addi	a0,s2,%lo(.LANCHOR0)
 205 008e 97000000 		call	LITE_hexbuf_convert
 205      E7800000 
 206              	.LVL19:
  76:C:/Users/stapi/OneDrive/Desktop/GD32VW553/V1_MQTT_OK/GD32VW55X_Wifi_BLE_SDK/GD32VW55x_RELEASE_V1.0.2/MSDK/cloud/alicloud/src/services/dev_bind\passwd.c ****     memcpy(token_buf, token_str, RANDOM_STR_MAX_LEN);
 207              		.loc 1 76 5
 208 0096 13061002 		li	a2,33
 209 009a 6C00     		addi	a1,sp,12
 210 009c 2285     		mv	a0,s0
 211 009e 97000000 		call	memcpy
 211      E7800000 
 212              	.LVL20:
  77:C:/Users/stapi/OneDrive/Desktop/GD32VW553/V1_MQTT_OK/GD32VW55X_Wifi_BLE_SDK/GD32VW55x_RELEASE_V1.0.2/MSDK/cloud/alicloud/src/services/dev_bind\passwd.c ****     *p_token_type = g_token_type;
 213              		.loc 1 77 5
 214              		.loc 1 77 19 is_stmt 0
 215 00a6 B7070000 		lui	a5,%hi(.LANCHOR1)
 216 00aa 83C70700 		lbu	a5,%lo(.LANCHOR1)(a5)
  78:C:/Users/stapi/OneDrive/Desktop/GD32VW553/V1_MQTT_OK/GD32VW55X_Wifi_BLE_SDK/GD32VW55x_RELEASE_V1.0.2/MSDK/cloud/alicloud/src/services/dev_bind\passwd.c **** 
  79:C:/Users/stapi/OneDrive/Desktop/GD32VW553/V1_MQTT_OK/GD32VW55X_Wifi_BLE_SDK/GD32VW55x_RELEASE_V1.0.2/MSDK/cloud/alicloud/src/services/dev_bind\passwd.c ****     return STATE_SUCCESS;
 217              		.loc 1 79 12
 218 00ae 0145     		li	a0,0
  77:C:/Users/stapi/OneDrive/Desktop/GD32VW553/V1_MQTT_OK/GD32VW55X_Wifi_BLE_SDK/GD32VW55x_RELEASE_V1.0.2/MSDK/cloud/alicloud/src/services/dev_bind\passwd.c ****     *p_token_type = g_token_type;
 219              		.loc 1 77 19
 220 00b0 9CC0     		sw	a5,0(s1)
 221              		.loc 1 79 5 is_stmt 1
 222              	.L6:
  80:C:/Users/stapi/OneDrive/Desktop/GD32VW553/V1_MQTT_OK/GD32VW55X_Wifi_BLE_SDK/GD32VW55x_RELEASE_V1.0.2/MSDK/cloud/alicloud/src/services/dev_bind\passwd.c **** }
 223              		.loc 1 80 1 is_stmt 0
 224 00b2 4561     		addi	sp,sp,48
 225              		.cfi_def_cfa_offset 0
 226 00b4 17030000 		tail	__riscv_restore_3
 226      67000300 
 227              		.cfi_restore 18
 228              		.cfi_restore 9
 229              		.cfi_restore 8
 230              		.cfi_restore 1
 231              		.cfi_def_cfa_offset -16
 232              		.cfi_endproc
 233              	.LFE65:
 235              		.section	.text.awss_dict_crypt,"ax",@progbits
 236              		.align	1
 237              		.globl	awss_dict_crypt
 239              	awss_dict_crypt:
 240              	.LFB66:
  81:C:/Users/stapi/OneDrive/Desktop/GD32VW553/V1_MQTT_OK/GD32VW55X_Wifi_BLE_SDK/GD32VW55x_RELEASE_V1.0.2/MSDK/cloud/alicloud/src/services/dev_bind\passwd.c **** #ifdef WIFI_PROVISION_ENABLED
  82:C:/Users/stapi/OneDrive/Desktop/GD32VW553/V1_MQTT_OK/GD32VW55X_Wifi_BLE_SDK/GD32VW55x_RELEASE_V1.0.2/MSDK/cloud/alicloud/src/services/dev_bind\passwd.c **** /*
  83:C:/Users/stapi/OneDrive/Desktop/GD32VW553/V1_MQTT_OK/GD32VW55X_Wifi_BLE_SDK/GD32VW55x_RELEASE_V1.0.2/MSDK/cloud/alicloud/src/services/dev_bind\passwd.c ****  * 1. place 0 @ 0, because of java modified-UTF8
  84:C:/Users/stapi/OneDrive/Desktop/GD32VW553/V1_MQTT_OK/GD32VW55X_Wifi_BLE_SDK/GD32VW55x_RELEASE_V1.0.2/MSDK/cloud/alicloud/src/services/dev_bind\passwd.c ****  * 2. translation follow utf8 stardard
  85:C:/Users/stapi/OneDrive/Desktop/GD32VW553/V1_MQTT_OK/GD32VW55X_Wifi_BLE_SDK/GD32VW55x_RELEASE_V1.0.2/MSDK/cloud/alicloud/src/services/dev_bind\passwd.c ****  */
  86:C:/Users/stapi/OneDrive/Desktop/GD32VW553/V1_MQTT_OK/GD32VW55X_Wifi_BLE_SDK/GD32VW55x_RELEASE_V1.0.2/MSDK/cloud/alicloud/src/services/dev_bind\passwd.c **** static const uint8_t ssid_dict_decode_table[] = {
  87:C:/Users/stapi/OneDrive/Desktop/GD32VW553/V1_MQTT_OK/GD32VW55X_Wifi_BLE_SDK/GD32VW55x_RELEASE_V1.0.2/MSDK/cloud/alicloud/src/services/dev_bind\passwd.c ****     0x00, 0x0e, 0x6c, 0x3a, 0x6d, 0x44, 0x2a, 0x6f,
  88:C:/Users/stapi/OneDrive/Desktop/GD32VW553/V1_MQTT_OK/GD32VW55X_Wifi_BLE_SDK/GD32VW55x_RELEASE_V1.0.2/MSDK/cloud/alicloud/src/services/dev_bind\passwd.c ****     0x4d, 0x05, 0x6b, 0x28, 0x08, 0x25, 0x5f, 0x2d,
  89:C:/Users/stapi/OneDrive/Desktop/GD32VW553/V1_MQTT_OK/GD32VW55X_Wifi_BLE_SDK/GD32VW55x_RELEASE_V1.0.2/MSDK/cloud/alicloud/src/services/dev_bind\passwd.c ****     0x64, 0x76, 0x78, 0x37, 0x58, 0x60, 0x53, 0x31,
  90:C:/Users/stapi/OneDrive/Desktop/GD32VW553/V1_MQTT_OK/GD32VW55X_Wifi_BLE_SDK/GD32VW55x_RELEASE_V1.0.2/MSDK/cloud/alicloud/src/services/dev_bind\passwd.c ****     0x36, 0x79, 0x43, 0x1a, 0x11, 0x72, 0x03, 0x59,
  91:C:/Users/stapi/OneDrive/Desktop/GD32VW553/V1_MQTT_OK/GD32VW55X_Wifi_BLE_SDK/GD32VW55x_RELEASE_V1.0.2/MSDK/cloud/alicloud/src/services/dev_bind\passwd.c ****     0x50, 0x02, 0x71, 0x7c, 0x34, 0x3e, 0x23, 0x24,
  92:C:/Users/stapi/OneDrive/Desktop/GD32VW553/V1_MQTT_OK/GD32VW55X_Wifi_BLE_SDK/GD32VW55x_RELEASE_V1.0.2/MSDK/cloud/alicloud/src/services/dev_bind\passwd.c ****     0x26, 0x5b, 0x73, 0x0f, 0x5e, 0x12, 0x54, 0x0b,
  93:C:/Users/stapi/OneDrive/Desktop/GD32VW553/V1_MQTT_OK/GD32VW55X_Wifi_BLE_SDK/GD32VW55x_RELEASE_V1.0.2/MSDK/cloud/alicloud/src/services/dev_bind\passwd.c ****     0x61, 0x35, 0x3c, 0x57, 0x48, 0x55, 0x63, 0x4a,
  94:C:/Users/stapi/OneDrive/Desktop/GD32VW553/V1_MQTT_OK/GD32VW55X_Wifi_BLE_SDK/GD32VW55x_RELEASE_V1.0.2/MSDK/cloud/alicloud/src/services/dev_bind\passwd.c ****     0x13, 0x75, 0x45, 0x70, 0x47, 0x0c, 0x2f, 0x21,
  95:C:/Users/stapi/OneDrive/Desktop/GD32VW553/V1_MQTT_OK/GD32VW55X_Wifi_BLE_SDK/GD32VW55x_RELEASE_V1.0.2/MSDK/cloud/alicloud/src/services/dev_bind\passwd.c ****     0x17, 0x2e, 0x62, 0x49, 0x4b, 0x5c, 0x19, 0x51,
  96:C:/Users/stapi/OneDrive/Desktop/GD32VW553/V1_MQTT_OK/GD32VW55X_Wifi_BLE_SDK/GD32VW55x_RELEASE_V1.0.2/MSDK/cloud/alicloud/src/services/dev_bind\passwd.c ****     0x69, 0x3b, 0x7e, 0x0d, 0x3d, 0x67, 0x2c, 0x22,
  97:C:/Users/stapi/OneDrive/Desktop/GD32VW553/V1_MQTT_OK/GD32VW55X_Wifi_BLE_SDK/GD32VW55x_RELEASE_V1.0.2/MSDK/cloud/alicloud/src/services/dev_bind\passwd.c ****     0x14, 0x42, 0x5a, 0x7f, 0x32, 0x01, 0x07, 0x7b,
  98:C:/Users/stapi/OneDrive/Desktop/GD32VW553/V1_MQTT_OK/GD32VW55X_Wifi_BLE_SDK/GD32VW55x_RELEASE_V1.0.2/MSDK/cloud/alicloud/src/services/dev_bind\passwd.c ****     0x15, 0x4f, 0x16, 0x29, 0x30, 0x27, 0x20, 0x18,
  99:C:/Users/stapi/OneDrive/Desktop/GD32VW553/V1_MQTT_OK/GD32VW55X_Wifi_BLE_SDK/GD32VW55x_RELEASE_V1.0.2/MSDK/cloud/alicloud/src/services/dev_bind\passwd.c ****     0x65, 0x06, 0x1c, 0x3f, 0x68, 0x2b, 0x4c, 0x0a,
 100:C:/Users/stapi/OneDrive/Desktop/GD32VW553/V1_MQTT_OK/GD32VW55X_Wifi_BLE_SDK/GD32VW55x_RELEASE_V1.0.2/MSDK/cloud/alicloud/src/services/dev_bind\passwd.c ****     0x1e, 0x46, 0x5d, 0x1f, 0x10, 0x6e, 0x56, 0x7a,
 101:C:/Users/stapi/OneDrive/Desktop/GD32VW553/V1_MQTT_OK/GD32VW55X_Wifi_BLE_SDK/GD32VW55x_RELEASE_V1.0.2/MSDK/cloud/alicloud/src/services/dev_bind\passwd.c ****     0x1b, 0x09, 0x52, 0x38, 0x66, 0x7d, 0x41, 0x40,
 102:C:/Users/stapi/OneDrive/Desktop/GD32VW553/V1_MQTT_OK/GD32VW55X_Wifi_BLE_SDK/GD32VW55x_RELEASE_V1.0.2/MSDK/cloud/alicloud/src/services/dev_bind\passwd.c ****     0x04, 0x6a, 0x39, 0x77, 0x33, 0x1d, 0x74, 0x4e,
 103:C:/Users/stapi/OneDrive/Desktop/GD32VW553/V1_MQTT_OK/GD32VW55X_Wifi_BLE_SDK/GD32VW55x_RELEASE_V1.0.2/MSDK/cloud/alicloud/src/services/dev_bind\passwd.c ****     0xaf, 0xa6, 0x8c, 0xbd, 0x89, 0xa2, 0xa9, 0x9e,
 104:C:/Users/stapi/OneDrive/Desktop/GD32VW553/V1_MQTT_OK/GD32VW55X_Wifi_BLE_SDK/GD32VW55x_RELEASE_V1.0.2/MSDK/cloud/alicloud/src/services/dev_bind\passwd.c ****     0xa1, 0x91, 0xb9, 0xad, 0xbf, 0xb7, 0x95, 0xa8,
 105:C:/Users/stapi/OneDrive/Desktop/GD32VW553/V1_MQTT_OK/GD32VW55X_Wifi_BLE_SDK/GD32VW55x_RELEASE_V1.0.2/MSDK/cloud/alicloud/src/services/dev_bind\passwd.c ****     0xa5, 0x82, 0xaa, 0xa3, 0x94, 0x92, 0xb8, 0x87,
 106:C:/Users/stapi/OneDrive/Desktop/GD32VW553/V1_MQTT_OK/GD32VW55X_Wifi_BLE_SDK/GD32VW55x_RELEASE_V1.0.2/MSDK/cloud/alicloud/src/services/dev_bind\passwd.c ****     0x88, 0xb1, 0x93, 0xbc, 0x80, 0xb5, 0xba, 0x99,
 107:C:/Users/stapi/OneDrive/Desktop/GD32VW553/V1_MQTT_OK/GD32VW55X_Wifi_BLE_SDK/GD32VW55x_RELEASE_V1.0.2/MSDK/cloud/alicloud/src/services/dev_bind\passwd.c ****     0xab, 0xbe, 0x90, 0x8e, 0x83, 0x9f, 0x9a, 0x86,
 108:C:/Users/stapi/OneDrive/Desktop/GD32VW553/V1_MQTT_OK/GD32VW55X_Wifi_BLE_SDK/GD32VW55x_RELEASE_V1.0.2/MSDK/cloud/alicloud/src/services/dev_bind\passwd.c ****     0x85, 0x98, 0xa4, 0xa0, 0xac, 0x9c, 0x96, 0x81,
 109:C:/Users/stapi/OneDrive/Desktop/GD32VW553/V1_MQTT_OK/GD32VW55X_Wifi_BLE_SDK/GD32VW55x_RELEASE_V1.0.2/MSDK/cloud/alicloud/src/services/dev_bind\passwd.c ****     0xb0, 0x8d, 0xbb, 0xb2, 0x9d, 0xae, 0x84, 0x9b,
 110:C:/Users/stapi/OneDrive/Desktop/GD32VW553/V1_MQTT_OK/GD32VW55X_Wifi_BLE_SDK/GD32VW55x_RELEASE_V1.0.2/MSDK/cloud/alicloud/src/services/dev_bind\passwd.c ****     0xb4, 0x8b, 0x97, 0xa7, 0xb3, 0x8a, 0x8f, 0xb6,
 111:C:/Users/stapi/OneDrive/Desktop/GD32VW553/V1_MQTT_OK/GD32VW55X_Wifi_BLE_SDK/GD32VW55x_RELEASE_V1.0.2/MSDK/cloud/alicloud/src/services/dev_bind\passwd.c ****     0xc5, 0xc0, 0xc8, 0xd7, 0xde, 0xc4, 0xd1, 0xd2,
 112:C:/Users/stapi/OneDrive/Desktop/GD32VW553/V1_MQTT_OK/GD32VW55X_Wifi_BLE_SDK/GD32VW55x_RELEASE_V1.0.2/MSDK/cloud/alicloud/src/services/dev_bind\passwd.c ****     0xd9, 0xcb, 0xcd, 0xd5, 0xcc, 0xc7, 0xdb, 0xdf,
 113:C:/Users/stapi/OneDrive/Desktop/GD32VW553/V1_MQTT_OK/GD32VW55X_Wifi_BLE_SDK/GD32VW55x_RELEASE_V1.0.2/MSDK/cloud/alicloud/src/services/dev_bind\passwd.c ****     0xdc, 0xdd, 0xcf, 0xc6, 0xda, 0xc2, 0xc3, 0xc9,
 114:C:/Users/stapi/OneDrive/Desktop/GD32VW553/V1_MQTT_OK/GD32VW55X_Wifi_BLE_SDK/GD32VW55x_RELEASE_V1.0.2/MSDK/cloud/alicloud/src/services/dev_bind\passwd.c ****     0xc1, 0xca, 0xd6, 0xd8, 0xce, 0xd3, 0xd0, 0xd4,
 115:C:/Users/stapi/OneDrive/Desktop/GD32VW553/V1_MQTT_OK/GD32VW55X_Wifi_BLE_SDK/GD32VW55x_RELEASE_V1.0.2/MSDK/cloud/alicloud/src/services/dev_bind\passwd.c ****     0xe9, 0xe5, 0xe8, 0xe2, 0xe6, 0xeb, 0xe3, 0xec,
 116:C:/Users/stapi/OneDrive/Desktop/GD32VW553/V1_MQTT_OK/GD32VW55X_Wifi_BLE_SDK/GD32VW55x_RELEASE_V1.0.2/MSDK/cloud/alicloud/src/services/dev_bind\passwd.c ****     0xed, 0xe7, 0xe1, 0xe4, 0xea, 0xef, 0xee, 0xe0,
 117:C:/Users/stapi/OneDrive/Desktop/GD32VW553/V1_MQTT_OK/GD32VW55X_Wifi_BLE_SDK/GD32VW55x_RELEASE_V1.0.2/MSDK/cloud/alicloud/src/services/dev_bind\passwd.c ****     0xf6, 0xf0, 0xf4, 0xf5, 0xf2, 0xf3, 0xf7, 0xf1,
 118:C:/Users/stapi/OneDrive/Desktop/GD32VW553/V1_MQTT_OK/GD32VW55X_Wifi_BLE_SDK/GD32VW55x_RELEASE_V1.0.2/MSDK/cloud/alicloud/src/services/dev_bind\passwd.c ****     0xfb, 0xf9, 0xfa, 0xf8, 0xfc, 0xfd, 0xfe, 0xff
 119:C:/Users/stapi/OneDrive/Desktop/GD32VW553/V1_MQTT_OK/GD32VW55X_Wifi_BLE_SDK/GD32VW55x_RELEASE_V1.0.2/MSDK/cloud/alicloud/src/services/dev_bind\passwd.c **** };
 120:C:/Users/stapi/OneDrive/Desktop/GD32VW553/V1_MQTT_OK/GD32VW55X_Wifi_BLE_SDK/GD32VW55x_RELEASE_V1.0.2/MSDK/cloud/alicloud/src/services/dev_bind\passwd.c **** 
 121:C:/Users/stapi/OneDrive/Desktop/GD32VW553/V1_MQTT_OK/GD32VW55X_Wifi_BLE_SDK/GD32VW55x_RELEASE_V1.0.2/MSDK/cloud/alicloud/src/services/dev_bind\passwd.c **** static const uint8_t notify_encode_table[] = {
 122:C:/Users/stapi/OneDrive/Desktop/GD32VW553/V1_MQTT_OK/GD32VW55X_Wifi_BLE_SDK/GD32VW55x_RELEASE_V1.0.2/MSDK/cloud/alicloud/src/services/dev_bind\passwd.c ****     0x00, 0x71, 0x21, 0x1e, 0x78, 0x09, 0x61, 0x56,
 123:C:/Users/stapi/OneDrive/Desktop/GD32VW553/V1_MQTT_OK/GD32VW55X_Wifi_BLE_SDK/GD32VW55x_RELEASE_V1.0.2/MSDK/cloud/alicloud/src/services/dev_bind\passwd.c ****     0x0c, 0x55, 0x67, 0x2f, 0x3d, 0x4b, 0x01, 0x2b,
 124:C:/Users/stapi/OneDrive/Desktop/GD32VW553/V1_MQTT_OK/GD32VW55X_Wifi_BLE_SDK/GD32VW55x_RELEASE_V1.0.2/MSDK/cloud/alicloud/src/services/dev_bind\passwd.c ****     0x6c, 0x1c, 0x1b, 0x38, 0x50, 0x58, 0x5a, 0x40,
 125:C:/Users/stapi/OneDrive/Desktop/GD32VW553/V1_MQTT_OK/GD32VW55X_Wifi_BLE_SDK/GD32VW55x_RELEASE_V1.0.2/MSDK/cloud/alicloud/src/services/dev_bind\passwd.c ****     0x5f, 0x46, 0x2d, 0x70, 0x62, 0x7d, 0x68, 0x6b,
 126:C:/Users/stapi/OneDrive/Desktop/GD32VW553/V1_MQTT_OK/GD32VW55X_Wifi_BLE_SDK/GD32VW55x_RELEASE_V1.0.2/MSDK/cloud/alicloud/src/services/dev_bind\passwd.c ****     0x5e, 0x3f, 0x4f, 0x65, 0x27, 0x0d, 0x28, 0x5d,
 127:C:/Users/stapi/OneDrive/Desktop/GD32VW553/V1_MQTT_OK/GD32VW55X_Wifi_BLE_SDK/GD32VW55x_RELEASE_V1.0.2/MSDK/cloud/alicloud/src/services/dev_bind\passwd.c ****     0x0b, 0x5b, 0x06, 0x26, 0x4e, 0x0f, 0x41, 0x3e,
 128:C:/Users/stapi/OneDrive/Desktop/GD32VW553/V1_MQTT_OK/GD32VW55X_Wifi_BLE_SDK/GD32VW55x_RELEASE_V1.0.2/MSDK/cloud/alicloud/src/services/dev_bind\passwd.c ****     0x5c, 0x17, 0x54, 0x7c, 0x32, 0x31, 0x18, 0x13,
 129:C:/Users/stapi/OneDrive/Desktop/GD32VW553/V1_MQTT_OK/GD32VW55X_Wifi_BLE_SDK/GD32VW55x_RELEASE_V1.0.2/MSDK/cloud/alicloud/src/services/dev_bind\passwd.c ****     0x73, 0x7a, 0x03, 0x49, 0x24, 0x4c, 0x25, 0x63,
 130:C:/Users/stapi/OneDrive/Desktop/GD32VW553/V1_MQTT_OK/GD32VW55X_Wifi_BLE_SDK/GD32VW55x_RELEASE_V1.0.2/MSDK/cloud/alicloud/src/services/dev_bind\passwd.c ****     0x77, 0x76, 0x51, 0x1a, 0x05, 0x08, 0x69, 0x3c,
 131:C:/Users/stapi/OneDrive/Desktop/GD32VW553/V1_MQTT_OK/GD32VW55X_Wifi_BLE_SDK/GD32VW55x_RELEASE_V1.0.2/MSDK/cloud/alicloud/src/services/dev_bind\passwd.c ****     0x34, 0x43, 0x37, 0x44, 0x66, 0x3a, 0x7f, 0x59,
 132:C:/Users/stapi/OneDrive/Desktop/GD32VW553/V1_MQTT_OK/GD32VW55X_Wifi_BLE_SDK/GD32VW55x_RELEASE_V1.0.2/MSDK/cloud/alicloud/src/services/dev_bind\passwd.c ****     0x20, 0x47, 0x72, 0x16, 0x2e, 0x35, 0x2c, 0x33,
 133:C:/Users/stapi/OneDrive/Desktop/GD32VW553/V1_MQTT_OK/GD32VW55X_Wifi_BLE_SDK/GD32VW55x_RELEASE_V1.0.2/MSDK/cloud/alicloud/src/services/dev_bind\passwd.c ****     0x14, 0x1f, 0x52, 0x29, 0x45, 0x6a, 0x6e, 0x0e,
 134:C:/Users/stapi/OneDrive/Desktop/GD32VW553/V1_MQTT_OK/GD32VW55X_Wifi_BLE_SDK/GD32VW55x_RELEASE_V1.0.2/MSDK/cloud/alicloud/src/services/dev_bind\passwd.c ****     0x15, 0x30, 0x42, 0x36, 0x10, 0x60, 0x74, 0x07,
 135:C:/Users/stapi/OneDrive/Desktop/GD32VW553/V1_MQTT_OK/GD32VW55X_Wifi_BLE_SDK/GD32VW55x_RELEASE_V1.0.2/MSDK/cloud/alicloud/src/services/dev_bind\passwd.c ****     0x64, 0x48, 0x79, 0x0a, 0x02, 0x04, 0x6d, 0x4d,
 136:C:/Users/stapi/OneDrive/Desktop/GD32VW553/V1_MQTT_OK/GD32VW55X_Wifi_BLE_SDK/GD32VW55x_RELEASE_V1.0.2/MSDK/cloud/alicloud/src/services/dev_bind\passwd.c ****     0x3b, 0x22, 0x1d, 0x2a, 0x7e, 0x39, 0x1a, 0x7b,
 137:C:/Users/stapi/OneDrive/Desktop/GD32VW553/V1_MQTT_OK/GD32VW55X_Wifi_BLE_SDK/GD32VW55x_RELEASE_V1.0.2/MSDK/cloud/alicloud/src/services/dev_bind\passwd.c ****     0x12, 0x19, 0x6f, 0x57, 0x23, 0x75, 0x41, 0x53,
 138:C:/Users/stapi/OneDrive/Desktop/GD32VW553/V1_MQTT_OK/GD32VW55X_Wifi_BLE_SDK/GD32VW55x_RELEASE_V1.0.2/MSDK/cloud/alicloud/src/services/dev_bind\passwd.c ****     0x9c, 0xaf, 0x91, 0xa4, 0xb6, 0xb1, 0xa7, 0x97,
 139:C:/Users/stapi/OneDrive/Desktop/GD32VW553/V1_MQTT_OK/GD32VW55X_Wifi_BLE_SDK/GD32VW55x_RELEASE_V1.0.2/MSDK/cloud/alicloud/src/services/dev_bind\passwd.c ****     0x98, 0x84, 0xbd, 0xb9, 0x82, 0xa8, 0xa3, 0xbe,
 140:C:/Users/stapi/OneDrive/Desktop/GD32VW553/V1_MQTT_OK/GD32VW55X_Wifi_BLE_SDK/GD32VW55x_RELEASE_V1.0.2/MSDK/cloud/alicloud/src/services/dev_bind\passwd.c ****     0xa2, 0x89, 0x95, 0x9a, 0x94, 0x8e, 0xae, 0xba,
 141:C:/Users/stapi/OneDrive/Desktop/GD32VW553/V1_MQTT_OK/GD32VW55X_Wifi_BLE_SDK/GD32VW55x_RELEASE_V1.0.2/MSDK/cloud/alicloud/src/services/dev_bind\passwd.c ****     0xa9, 0x9f, 0xa6, 0xb7, 0xad, 0xb4, 0x87, 0xa5,
 142:C:/Users/stapi/OneDrive/Desktop/GD32VW553/V1_MQTT_OK/GD32VW55X_Wifi_BLE_SDK/GD32VW55x_RELEASE_V1.0.2/MSDK/cloud/alicloud/src/services/dev_bind\passwd.c ****     0xab, 0x88, 0x85, 0x93, 0xaa, 0x90, 0x81, 0xbb,
 143:C:/Users/stapi/OneDrive/Desktop/GD32VW553/V1_MQTT_OK/GD32VW55X_Wifi_BLE_SDK/GD32VW55x_RELEASE_V1.0.2/MSDK/cloud/alicloud/src/services/dev_bind\passwd.c ****     0x8f, 0x86, 0x92, 0xa0, 0xac, 0x8b, 0xb5, 0x80,
 144:C:/Users/stapi/OneDrive/Desktop/GD32VW553/V1_MQTT_OK/GD32VW55X_Wifi_BLE_SDK/GD32VW55x_RELEASE_V1.0.2/MSDK/cloud/alicloud/src/services/dev_bind\passwd.c ****     0xb0, 0x99, 0xb3, 0xbc, 0xb8, 0x9d, 0xbf, 0x8d,
 145:C:/Users/stapi/OneDrive/Desktop/GD32VW553/V1_MQTT_OK/GD32VW55X_Wifi_BLE_SDK/GD32VW55x_RELEASE_V1.0.2/MSDK/cloud/alicloud/src/services/dev_bind\passwd.c ****     0x96, 0x8a, 0x9e, 0xb2, 0x9b, 0x83, 0xa1, 0x8c,
 146:C:/Users/stapi/OneDrive/Desktop/GD32VW553/V1_MQTT_OK/GD32VW55X_Wifi_BLE_SDK/GD32VW55x_RELEASE_V1.0.2/MSDK/cloud/alicloud/src/services/dev_bind\passwd.c ****     0xc1, 0xd8, 0xd5, 0xd6, 0xc5, 0xc0, 0xd3, 0xcd,
 147:C:/Users/stapi/OneDrive/Desktop/GD32VW553/V1_MQTT_OK/GD32VW55X_Wifi_BLE_SDK/GD32VW55x_RELEASE_V1.0.2/MSDK/cloud/alicloud/src/services/dev_bind\passwd.c ****     0xc2, 0xd7, 0xd9, 0xc9, 0xcc, 0xca, 0xdc, 0xd2,
 148:C:/Users/stapi/OneDrive/Desktop/GD32VW553/V1_MQTT_OK/GD32VW55X_Wifi_BLE_SDK/GD32VW55x_RELEASE_V1.0.2/MSDK/cloud/alicloud/src/services/dev_bind\passwd.c ****     0xde, 0xc6, 0xc7, 0xdd, 0xdf, 0xcb, 0xda, 0xc3,
 149:C:/Users/stapi/OneDrive/Desktop/GD32VW553/V1_MQTT_OK/GD32VW55X_Wifi_BLE_SDK/GD32VW55x_RELEASE_V1.0.2/MSDK/cloud/alicloud/src/services/dev_bind\passwd.c ****     0xdb, 0xc8, 0xd4, 0xce, 0xd0, 0xd1, 0xc4, 0xcf,
 150:C:/Users/stapi/OneDrive/Desktop/GD32VW553/V1_MQTT_OK/GD32VW55X_Wifi_BLE_SDK/GD32VW55x_RELEASE_V1.0.2/MSDK/cloud/alicloud/src/services/dev_bind\passwd.c ****     0xef, 0xea, 0xe3, 0xe6, 0xeb, 0xe1, 0xe4, 0xe9,
 151:C:/Users/stapi/OneDrive/Desktop/GD32VW553/V1_MQTT_OK/GD32VW55X_Wifi_BLE_SDK/GD32VW55x_RELEASE_V1.0.2/MSDK/cloud/alicloud/src/services/dev_bind\passwd.c ****     0xe2, 0xe0, 0xec, 0xe5, 0xe7, 0xe8, 0xee, 0xed,
 152:C:/Users/stapi/OneDrive/Desktop/GD32VW553/V1_MQTT_OK/GD32VW55X_Wifi_BLE_SDK/GD32VW55x_RELEASE_V1.0.2/MSDK/cloud/alicloud/src/services/dev_bind\passwd.c ****     0xf1, 0xf7, 0xf4, 0xf5, 0xf2, 0xf3, 0xf0, 0xf6,
 153:C:/Users/stapi/OneDrive/Desktop/GD32VW553/V1_MQTT_OK/GD32VW55X_Wifi_BLE_SDK/GD32VW55x_RELEASE_V1.0.2/MSDK/cloud/alicloud/src/services/dev_bind\passwd.c ****     0xfb, 0xf9, 0xfa, 0xf8, 0xfc, 0xfd, 0xfe, 0xff
 154:C:/Users/stapi/OneDrive/Desktop/GD32VW553/V1_MQTT_OK/GD32VW55X_Wifi_BLE_SDK/GD32VW55x_RELEASE_V1.0.2/MSDK/cloud/alicloud/src/services/dev_bind\passwd.c **** };
 155:C:/Users/stapi/OneDrive/Desktop/GD32VW553/V1_MQTT_OK/GD32VW55X_Wifi_BLE_SDK/GD32VW55x_RELEASE_V1.0.2/MSDK/cloud/alicloud/src/services/dev_bind\passwd.c **** 
 156:C:/Users/stapi/OneDrive/Desktop/GD32VW553/V1_MQTT_OK/GD32VW55X_Wifi_BLE_SDK/GD32VW55x_RELEASE_V1.0.2/MSDK/cloud/alicloud/src/services/dev_bind\passwd.c **** int awss_dict_crypt(char tab_idx, uint8_t *data, uint8_t len)
 157:C:/Users/stapi/OneDrive/Desktop/GD32VW553/V1_MQTT_OK/GD32VW55X_Wifi_BLE_SDK/GD32VW55x_RELEASE_V1.0.2/MSDK/cloud/alicloud/src/services/dev_bind\passwd.c **** {
 241              		.loc 1 157 1 is_stmt 1
 242              		.cfi_startproc
 243              	.LVL21:
 244              		.loc 1 157 1 is_stmt 0
 245 0000 AA87     		mv	a5,a0
 158:C:/Users/stapi/OneDrive/Desktop/GD32VW553/V1_MQTT_OK/GD32VW55X_Wifi_BLE_SDK/GD32VW55x_RELEASE_V1.0.2/MSDK/cloud/alicloud/src/services/dev_bind\passwd.c ****     uint8_t i = 0;
 246              		.loc 1 158 5 is_stmt 1
 247              	.LVL22:
 159:C:/Users/stapi/OneDrive/Desktop/GD32VW553/V1_MQTT_OK/GD32VW55X_Wifi_BLE_SDK/GD32VW55x_RELEASE_V1.0.2/MSDK/cloud/alicloud/src/services/dev_bind\passwd.c ****     uint8_t *table = NULL;
 248              		.loc 1 159 5
 160:C:/Users/stapi/OneDrive/Desktop/GD32VW553/V1_MQTT_OK/GD32VW55X_Wifi_BLE_SDK/GD32VW55x_RELEASE_V1.0.2/MSDK/cloud/alicloud/src/services/dev_bind\passwd.c **** 
 161:C:/Users/stapi/OneDrive/Desktop/GD32VW553/V1_MQTT_OK/GD32VW55X_Wifi_BLE_SDK/GD32VW55x_RELEASE_V1.0.2/MSDK/cloud/alicloud/src/services/dev_bind\passwd.c ****     switch (tab_idx) {
 249              		.loc 1 161 5
 250 0002 19CD     		beq	a0,zero,.L21
 251 0004 0547     		li	a4,1
 252 0006 1305F0EF 		li	a0,-257
 253              	.LVL23:
 254 000a 639AE700 		bne	a5,a4,.L16
 255 000e B7070000 		lui	a5,%hi(.LANCHOR4)
 256 0012 93870700 		addi	a5,a5,%lo(.LANCHOR4)
 257              	.L17:
 258              	.LVL24:
 162:C:/Users/stapi/OneDrive/Desktop/GD32VW553/V1_MQTT_OK/GD32VW55X_Wifi_BLE_SDK/GD32VW55x_RELEASE_V1.0.2/MSDK/cloud/alicloud/src/services/dev_bind\passwd.c ****         case SSID_DECODE_TABLE:
 163:C:/Users/stapi/OneDrive/Desktop/GD32VW553/V1_MQTT_OK/GD32VW55X_Wifi_BLE_SDK/GD32VW55x_RELEASE_V1.0.2/MSDK/cloud/alicloud/src/services/dev_bind\passwd.c ****             table = (uint8_t *)ssid_dict_decode_table;
 164:C:/Users/stapi/OneDrive/Desktop/GD32VW553/V1_MQTT_OK/GD32VW55X_Wifi_BLE_SDK/GD32VW55x_RELEASE_V1.0.2/MSDK/cloud/alicloud/src/services/dev_bind\passwd.c ****             break;
 165:C:/Users/stapi/OneDrive/Desktop/GD32VW553/V1_MQTT_OK/GD32VW55X_Wifi_BLE_SDK/GD32VW55x_RELEASE_V1.0.2/MSDK/cloud/alicloud/src/services/dev_bind\passwd.c ****         case NOTIFY_ENCODE_TABLE:
 166:C:/Users/stapi/OneDrive/Desktop/GD32VW553/V1_MQTT_OK/GD32VW55X_Wifi_BLE_SDK/GD32VW55x_RELEASE_V1.0.2/MSDK/cloud/alicloud/src/services/dev_bind\passwd.c ****             table = (uint8_t *)notify_encode_table;
 167:C:/Users/stapi/OneDrive/Desktop/GD32VW553/V1_MQTT_OK/GD32VW55X_Wifi_BLE_SDK/GD32VW55x_RELEASE_V1.0.2/MSDK/cloud/alicloud/src/services/dev_bind\passwd.c ****             break;
 168:C:/Users/stapi/OneDrive/Desktop/GD32VW553/V1_MQTT_OK/GD32VW55X_Wifi_BLE_SDK/GD32VW55x_RELEASE_V1.0.2/MSDK/cloud/alicloud/src/services/dev_bind\passwd.c ****         default:
 169:C:/Users/stapi/OneDrive/Desktop/GD32VW553/V1_MQTT_OK/GD32VW55X_Wifi_BLE_SDK/GD32VW55x_RELEASE_V1.0.2/MSDK/cloud/alicloud/src/services/dev_bind\passwd.c ****             table = NULL;
 170:C:/Users/stapi/OneDrive/Desktop/GD32VW553/V1_MQTT_OK/GD32VW55X_Wifi_BLE_SDK/GD32VW55x_RELEASE_V1.0.2/MSDK/cloud/alicloud/src/services/dev_bind\passwd.c ****             break;
 171:C:/Users/stapi/OneDrive/Desktop/GD32VW553/V1_MQTT_OK/GD32VW55X_Wifi_BLE_SDK/GD32VW55x_RELEASE_V1.0.2/MSDK/cloud/alicloud/src/services/dev_bind\passwd.c ****     }
 172:C:/Users/stapi/OneDrive/Desktop/GD32VW553/V1_MQTT_OK/GD32VW55X_Wifi_BLE_SDK/GD32VW55x_RELEASE_V1.0.2/MSDK/cloud/alicloud/src/services/dev_bind\passwd.c **** 
 173:C:/Users/stapi/OneDrive/Desktop/GD32VW553/V1_MQTT_OK/GD32VW55X_Wifi_BLE_SDK/GD32VW55x_RELEASE_V1.0.2/MSDK/cloud/alicloud/src/services/dev_bind\passwd.c ****     if (table == NULL || data == NULL) {
 259              		.loc 1 173 5
 174:C:/Users/stapi/OneDrive/Desktop/GD32VW553/V1_MQTT_OK/GD32VW55X_Wifi_BLE_SDK/GD32VW55x_RELEASE_V1.0.2/MSDK/cloud/alicloud/src/services/dev_bind\passwd.c ****         return STATE_USER_INPUT_NULL_POINTER;
 260              		.loc 1 174 16 is_stmt 0
 261 0016 1305F0EF 		li	a0,-257
 262 001a 2E96     		add	a2,a1,a2
 263              	.LVL25:
 173:C:/Users/stapi/OneDrive/Desktop/GD32VW553/V1_MQTT_OK/GD32VW55X_Wifi_BLE_SDK/GD32VW55x_RELEASE_V1.0.2/MSDK/cloud/alicloud/src/services/dev_bind\passwd.c ****         return STATE_USER_INPUT_NULL_POINTER;
 264              		.loc 1 173 23
 265 001c 99ED     		bne	a1,zero,.L19
 266              	.LVL26:
 267              	.L16:
 175:C:/Users/stapi/OneDrive/Desktop/GD32VW553/V1_MQTT_OK/GD32VW55X_Wifi_BLE_SDK/GD32VW55x_RELEASE_V1.0.2/MSDK/cloud/alicloud/src/services/dev_bind\passwd.c ****     }
 176:C:/Users/stapi/OneDrive/Desktop/GD32VW553/V1_MQTT_OK/GD32VW55X_Wifi_BLE_SDK/GD32VW55x_RELEASE_V1.0.2/MSDK/cloud/alicloud/src/services/dev_bind\passwd.c **** 
 177:C:/Users/stapi/OneDrive/Desktop/GD32VW553/V1_MQTT_OK/GD32VW55X_Wifi_BLE_SDK/GD32VW55x_RELEASE_V1.0.2/MSDK/cloud/alicloud/src/services/dev_bind\passwd.c ****     for (i = 0; i < len; i ++) {
 178:C:/Users/stapi/OneDrive/Desktop/GD32VW553/V1_MQTT_OK/GD32VW55X_Wifi_BLE_SDK/GD32VW55x_RELEASE_V1.0.2/MSDK/cloud/alicloud/src/services/dev_bind\passwd.c ****         data[i] = table[data[i]];
 179:C:/Users/stapi/OneDrive/Desktop/GD32VW553/V1_MQTT_OK/GD32VW55X_Wifi_BLE_SDK/GD32VW55x_RELEASE_V1.0.2/MSDK/cloud/alicloud/src/services/dev_bind\passwd.c ****     }
 180:C:/Users/stapi/OneDrive/Desktop/GD32VW553/V1_MQTT_OK/GD32VW55X_Wifi_BLE_SDK/GD32VW55x_RELEASE_V1.0.2/MSDK/cloud/alicloud/src/services/dev_bind\passwd.c **** 
 181:C:/Users/stapi/OneDrive/Desktop/GD32VW553/V1_MQTT_OK/GD32VW55X_Wifi_BLE_SDK/GD32VW55x_RELEASE_V1.0.2/MSDK/cloud/alicloud/src/services/dev_bind\passwd.c ****     return 0;
 182:C:/Users/stapi/OneDrive/Desktop/GD32VW553/V1_MQTT_OK/GD32VW55X_Wifi_BLE_SDK/GD32VW55x_RELEASE_V1.0.2/MSDK/cloud/alicloud/src/services/dev_bind\passwd.c **** }
 268              		.loc 1 182 1
 269 001e 8280     		ret
 270              	.LVL27:
 271              	.L21:
 163:C:/Users/stapi/OneDrive/Desktop/GD32VW553/V1_MQTT_OK/GD32VW55X_Wifi_BLE_SDK/GD32VW55x_RELEASE_V1.0.2/MSDK/cloud/alicloud/src/services/dev_bind\passwd.c ****             break;
 272              		.loc 1 163 19
 273 0020 B7070000 		lui	a5,%hi(.LANCHOR3)
 274 0024 93870700 		addi	a5,a5,%lo(.LANCHOR3)
 275 0028 FDB7     		j	.L17
 276              	.LVL28:
 277              	.L20:
 178:C:/Users/stapi/OneDrive/Desktop/GD32VW553/V1_MQTT_OK/GD32VW55X_Wifi_BLE_SDK/GD32VW55x_RELEASE_V1.0.2/MSDK/cloud/alicloud/src/services/dev_bind\passwd.c ****     }
 278              		.loc 1 178 9 is_stmt 1 discriminator 3
 178:C:/Users/stapi/OneDrive/Desktop/GD32VW553/V1_MQTT_OK/GD32VW55X_Wifi_BLE_SDK/GD32VW55x_RELEASE_V1.0.2/MSDK/cloud/alicloud/src/services/dev_bind\passwd.c ****     }
 279              		.loc 1 178 29 is_stmt 0 discriminator 3
 280 002a 03C70500 		lbu	a4,0(a1)
 281 002e 8505     		addi	a1,a1,1
 282              	.LVL29:
 178:C:/Users/stapi/OneDrive/Desktop/GD32VW553/V1_MQTT_OK/GD32VW55X_Wifi_BLE_SDK/GD32VW55x_RELEASE_V1.0.2/MSDK/cloud/alicloud/src/services/dev_bind\passwd.c ****     }
 283              		.loc 1 178 24 discriminator 3
 284 0030 3E97     		add	a4,a5,a4
 285 0032 03470700 		lbu	a4,0(a4)
 178:C:/Users/stapi/OneDrive/Desktop/GD32VW553/V1_MQTT_OK/GD32VW55X_Wifi_BLE_SDK/GD32VW55x_RELEASE_V1.0.2/MSDK/cloud/alicloud/src/services/dev_bind\passwd.c ****     }
 286              		.loc 1 178 17 discriminator 3
 287 0036 A38FE5FE 		sb	a4,-1(a1)
 177:C:/Users/stapi/OneDrive/Desktop/GD32VW553/V1_MQTT_OK/GD32VW55X_Wifi_BLE_SDK/GD32VW55x_RELEASE_V1.0.2/MSDK/cloud/alicloud/src/services/dev_bind\passwd.c ****         data[i] = table[data[i]];
 288              		.loc 1 177 26 is_stmt 1 discriminator 3
 289              	.L19:
 290              	.LVL30:
 177:C:/Users/stapi/OneDrive/Desktop/GD32VW553/V1_MQTT_OK/GD32VW55X_Wifi_BLE_SDK/GD32VW55x_RELEASE_V1.0.2/MSDK/cloud/alicloud/src/services/dev_bind\passwd.c ****         data[i] = table[data[i]];
 291              		.loc 1 177 17 discriminator 1
 177:C:/Users/stapi/OneDrive/Desktop/GD32VW553/V1_MQTT_OK/GD32VW55X_Wifi_BLE_SDK/GD32VW55x_RELEASE_V1.0.2/MSDK/cloud/alicloud/src/services/dev_bind\passwd.c ****         data[i] = table[data[i]];
 292              		.loc 1 177 5 is_stmt 0 discriminator 1
 293 003a E398C5FE 		bne	a1,a2,.L20
 181:C:/Users/stapi/OneDrive/Desktop/GD32VW553/V1_MQTT_OK/GD32VW55X_Wifi_BLE_SDK/GD32VW55x_RELEASE_V1.0.2/MSDK/cloud/alicloud/src/services/dev_bind\passwd.c **** }
 294              		.loc 1 181 12
 295 003e 0145     		li	a0,0
 296 0040 F9BF     		j	.L16
 297              		.cfi_endproc
 298              	.LFE66:
 300              		.section	.text.produce_signature,"ax",@progbits
 301              		.align	1
 302              		.globl	produce_signature
 304              	produce_signature:
 305              	.LFB67:
 183:C:/Users/stapi/OneDrive/Desktop/GD32VW553/V1_MQTT_OK/GD32VW55X_Wifi_BLE_SDK/GD32VW55x_RELEASE_V1.0.2/MSDK/cloud/alicloud/src/services/dev_bind\passwd.c **** 
 184:C:/Users/stapi/OneDrive/Desktop/GD32VW553/V1_MQTT_OK/GD32VW55X_Wifi_BLE_SDK/GD32VW55x_RELEASE_V1.0.2/MSDK/cloud/alicloud/src/services/dev_bind\passwd.c **** int produce_signature(uint8_t *sign, uint8_t *txt,
 185:C:/Users/stapi/OneDrive/Desktop/GD32VW553/V1_MQTT_OK/GD32VW55X_Wifi_BLE_SDK/GD32VW55x_RELEASE_V1.0.2/MSDK/cloud/alicloud/src/services/dev_bind\passwd.c ****                       uint32_t txt_len, const char *key)
 186:C:/Users/stapi/OneDrive/Desktop/GD32VW553/V1_MQTT_OK/GD32VW55X_Wifi_BLE_SDK/GD32VW55x_RELEASE_V1.0.2/MSDK/cloud/alicloud/src/services/dev_bind\passwd.c **** {
 306              		.loc 1 186 1 is_stmt 1
 307              		.cfi_startproc
 308              	.LVL31:
 187:C:/Users/stapi/OneDrive/Desktop/GD32VW553/V1_MQTT_OK/GD32VW55X_Wifi_BLE_SDK/GD32VW55x_RELEASE_V1.0.2/MSDK/cloud/alicloud/src/services/dev_bind\passwd.c ****     if (sign == NULL || txt == NULL || txt_len == 0 || key == NULL) {
 309              		.loc 1 187 5
 310              		.loc 1 187 8 is_stmt 0
 311 0000 39C1     		beq	a0,zero,.L26
 186:C:/Users/stapi/OneDrive/Desktop/GD32VW553/V1_MQTT_OK/GD32VW55X_Wifi_BLE_SDK/GD32VW55x_RELEASE_V1.0.2/MSDK/cloud/alicloud/src/services/dev_bind\passwd.c ****     if (sign == NULL || txt == NULL || txt_len == 0 || key == NULL) {
 312              		.loc 1 186 1 discriminator 1
 313 0002 17030000 		call	t0,__riscv_save_2
 313      E7020300 
 314              		.cfi_offset 9, -12
 315              		.cfi_offset 8, -8
 316              		.cfi_offset 1, -4
 317              		.cfi_def_cfa_offset 16
 318 000a AA84     		mv	s1,a0
 319 000c 4111     		addi	sp,sp,-16
 320              		.cfi_def_cfa_offset 32
 321 000e 2E84     		mv	s0,a1
 188:C:/Users/stapi/OneDrive/Desktop/GD32VW553/V1_MQTT_OK/GD32VW55X_Wifi_BLE_SDK/GD32VW55x_RELEASE_V1.0.2/MSDK/cloud/alicloud/src/services/dev_bind\passwd.c ****         return STATE_USER_INPUT_NULL_POINTER;
 322              		.loc 1 188 16 discriminator 1
 323 0010 1305F0EF 		li	a0,-257
 324              	.LVL32:
 187:C:/Users/stapi/OneDrive/Desktop/GD32VW553/V1_MQTT_OK/GD32VW55X_Wifi_BLE_SDK/GD32VW55x_RELEASE_V1.0.2/MSDK/cloud/alicloud/src/services/dev_bind\passwd.c ****     if (sign == NULL || txt == NULL || txt_len == 0 || key == NULL) {
 325              		.loc 1 187 22 discriminator 1
 326 0014 85C5     		beq	a1,zero,.L24
 187:C:/Users/stapi/OneDrive/Desktop/GD32VW553/V1_MQTT_OK/GD32VW55X_Wifi_BLE_SDK/GD32VW55x_RELEASE_V1.0.2/MSDK/cloud/alicloud/src/services/dev_bind\passwd.c ****     if (sign == NULL || txt == NULL || txt_len == 0 || key == NULL) {
 327              		.loc 1 187 37 discriminator 2
 328 0016 32C6     		sw	a2,12(sp)
 329 0018 15C2     		beq	a2,zero,.L24
 187:C:/Users/stapi/OneDrive/Desktop/GD32VW553/V1_MQTT_OK/GD32VW55X_Wifi_BLE_SDK/GD32VW55x_RELEASE_V1.0.2/MSDK/cloud/alicloud/src/services/dev_bind\passwd.c ****     if (sign == NULL || txt == NULL || txt_len == 0 || key == NULL) {
 330              		.loc 1 187 53 discriminator 3
 331 001a 8DC2     		beq	a3,zero,.L24
 189:C:/Users/stapi/OneDrive/Desktop/GD32VW553/V1_MQTT_OK/GD32VW55X_Wifi_BLE_SDK/GD32VW55x_RELEASE_V1.0.2/MSDK/cloud/alicloud/src/services/dev_bind\passwd.c ****     }
 190:C:/Users/stapi/OneDrive/Desktop/GD32VW553/V1_MQTT_OK/GD32VW55X_Wifi_BLE_SDK/GD32VW55x_RELEASE_V1.0.2/MSDK/cloud/alicloud/src/services/dev_bind\passwd.c **** 
 191:C:/Users/stapi/OneDrive/Desktop/GD32VW553/V1_MQTT_OK/GD32VW55X_Wifi_BLE_SDK/GD32VW55x_RELEASE_V1.0.2/MSDK/cloud/alicloud/src/services/dev_bind\passwd.c ****     utils_hmac_sha1_hex((const char *)txt, (int)txt_len,
 332              		.loc 1 191 5 is_stmt 1
 192:C:/Users/stapi/OneDrive/Desktop/GD32VW553/V1_MQTT_OK/GD32VW55X_Wifi_BLE_SDK/GD32VW55x_RELEASE_V1.0.2/MSDK/cloud/alicloud/src/services/dev_bind\passwd.c ****                         (char *)sign, key, strlen(key));
 333              		.loc 1 192 44 is_stmt 0
 334 001c 3685     		mv	a0,a3
 335 001e 36C4     		sw	a3,8(sp)
 336 0020 97000000 		call	strlen
 336      E7800000 
 337              	.LVL33:
 191:C:/Users/stapi/OneDrive/Desktop/GD32VW553/V1_MQTT_OK/GD32VW55X_Wifi_BLE_SDK/GD32VW55x_RELEASE_V1.0.2/MSDK/cloud/alicloud/src/services/dev_bind\passwd.c ****                         (char *)sign, key, strlen(key));
 338              		.loc 1 191 5
 339 0028 A246     		lw	a3,8(sp)
 340 002a B245     		lw	a1,12(sp)
 341              		.loc 1 192 44
 342 002c 2A87     		mv	a4,a0
 191:C:/Users/stapi/OneDrive/Desktop/GD32VW553/V1_MQTT_OK/GD32VW55X_Wifi_BLE_SDK/GD32VW55x_RELEASE_V1.0.2/MSDK/cloud/alicloud/src/services/dev_bind\passwd.c ****                         (char *)sign, key, strlen(key));
 343              		.loc 1 191 5
 344 002e 2686     		mv	a2,s1
 345 0030 2285     		mv	a0,s0
 346 0032 97000000 		call	utils_hmac_sha1_hex
 346      E7800000 
 347              	.LVL34:
 193:C:/Users/stapi/OneDrive/Desktop/GD32VW553/V1_MQTT_OK/GD32VW55X_Wifi_BLE_SDK/GD32VW55x_RELEASE_V1.0.2/MSDK/cloud/alicloud/src/services/dev_bind\passwd.c **** 
 194:C:/Users/stapi/OneDrive/Desktop/GD32VW553/V1_MQTT_OK/GD32VW55X_Wifi_BLE_SDK/GD32VW55x_RELEASE_V1.0.2/MSDK/cloud/alicloud/src/services/dev_bind\passwd.c ****     return 0;
 348              		.loc 1 194 5 is_stmt 1
 349              		.loc 1 194 12 is_stmt 0
 350 003a 0145     		li	a0,0
 351              	.LVL35:
 352              	.L24:
 195:C:/Users/stapi/OneDrive/Desktop/GD32VW553/V1_MQTT_OK/GD32VW55X_Wifi_BLE_SDK/GD32VW55x_RELEASE_V1.0.2/MSDK/cloud/alicloud/src/services/dev_bind\passwd.c **** }
 353              		.loc 1 195 1
 354 003c 4101     		addi	sp,sp,16
 355              		.cfi_def_cfa_offset 0
 356 003e 17030000 		tail	__riscv_restore_2
 356      67000300 
 357              		.cfi_restore 9
 358              		.cfi_restore 8
 359              		.cfi_restore 1
 360              		.cfi_def_cfa_offset -16
 361              	.LVL36:
 362              	.L26:
 363              		.cfi_def_cfa_offset 0
 188:C:/Users/stapi/OneDrive/Desktop/GD32VW553/V1_MQTT_OK/GD32VW55X_Wifi_BLE_SDK/GD32VW55x_RELEASE_V1.0.2/MSDK/cloud/alicloud/src/services/dev_bind\passwd.c ****     }
 364              		.loc 1 188 16
 365 0046 1305F0EF 		li	a0,-257
 366              	.LVL37:
 367              		.loc 1 195 1
 368 004a 8280     		ret
 369              		.cfi_endproc
 370              	.LFE67:
 372              		.globl	g_token_type
 373              		.globl	g_aes_random
 374              		.section	.bss.g_aes_random,"aw",@nobits
 375              		.align	2
 376              		.set	.LANCHOR0,. + 0
 379              	g_aes_random:
 380 0000 00000000 		.zero	16
 380      00000000 
 380      00000000 
 380      00000000 
 381              		.section	.rodata.__FUNCTION__.0,"a"
 382              		.align	2
 383              		.set	.LANCHOR2,. + 0
 386              	__FUNCTION__.0:
 387 0000 61777373 		.string	"awss_get_token"
 387      5F676574 
 387      5F746F6B 
 387      656E00
 388              		.section	.rodata.notify_encode_table,"a"
 389              		.align	2
 390              		.set	.LANCHOR4,. + 0
 393              	notify_encode_table:
 394 0000 00       		.string	""
 395 0001 71211E78 		.ascii	"q!\036x\taV\fUg/=K\001+l\034\0338PXZ@_F-pb}hk^?Oe'\r(]\013[\006"
 395      0961560C 
 395      55672F3D 
 395      4B012B6C 
 395      1C1B3850 
 396 002b 264E0F41 		.ascii	"&N\017A>\\\027T|21\030\023sz\003I$L%cwvQ\032\005\bi<4C7Df:\177"
 396      3E5C1754 
 396      7C323118 
 396      13737A03 
 396      49244C25 
 397 004f 59204772 		.ascii	"Y Gr\026.5,3\024\037R)Ejn\016\0250B6\020`t\007dHy\n\002\004m"
 397      162E352C 
 397      33141F52 
 397      29456A6E 
 397      0E153042 
 398 006f 4D3B221D 		.ascii	"M;\"\035*~9\032{\022\031oW#uAS\234\257\221\244\266\261\247\227"
 398      2A7E391A 
 398      7B12196F 
 398      57237541 
 398      539CAF91 
 399 0088 9884BDB9 		.ascii	"\230\204\275\271\202\250\243\276\242\211\225\232\224\216\256"
 399      82A8A3BE 
 399      A289959A 
 399      948EAE
 400 0097 BAA99FA6 		.ascii	"\272\251\237\246\267\255\264\207\245\253\210\205\223\252\220"
 400      B7ADB487 
 400      A5AB8885 
 400      93AA90
 401 00a6 81BB8F86 		.ascii	"\201\273\217\206\222\240\254\213\265\200\260\231\263\274\270"
 401      92A0AC8B 
 401      B580B099 
 401      B3BCB8
 402 00b5 9DBF8D96 		.ascii	"\235\277\215\226\212\236\262\233\203\241\214\301\330\325\326"
 402      8A9EB29B 
 402      83A18CC1 
 402      D8D5D6
 403 00c4 C5C0D3CD 		.ascii	"\305\300\323\315\302\327\331\311\314\312\334\322\336\306\307"
 403      C2D7D9C9 
 403      CCCADCD2 
 403      DEC6C7
 404 00d3 DDDFCBDA 		.ascii	"\335\337\313\332\303\333\310\324\316\320\321\304\317\357\352"
 404      C3DBC8D4 
 404      CED0D1C4 
 404      CFEFEA
 405 00e2 E3E6EBE1 		.ascii	"\343\346\353\341\344\351\342\340\354\345\347\350\356\355\361"
 405      E4E9E2E0 
 405      ECE5E7E8 
 405      EEEDF1
 406 00f1 F7F4F5F2 		.ascii	"\367\364\365\362\363\360\366\373\371\372\370\374\375\376\377"
 406      F3F0F6FB 
 406      F9FAF8FC 
 406      FDFEFF
 407              		.section	.rodata.ssid_dict_decode_table,"a"
 408              		.align	2
 409              		.set	.LANCHOR3,. + 0
 412              	ssid_dict_decode_table:
 413 0000 00       		.string	""
 414 0001 0E6C3A6D 		.ascii	"\016l:mD*oM\005k(\b%_-dvx7X`S16yC\032\021r\003YP\002q|4>#$&["
 414      442A6F4D 
 414      056B2808 
 414      255F2D64 
 414      76783758 
 415 002a 730F5E12 		.ascii	"s\017^\022T\013a5<WHUcJ\023uEpG\f/!\027.bIK\\\031Qi;~\r=g,\""
 415      540B6135 
 415      3C574855 
 415      634A1375 
 415      4570470C 
 416 0050 14425A7F 		.ascii	"\024BZ\1772\001\007{\025O\026)0' \030e\006\034?h+L\n\036F]\037"
 416      3201077B 
 416      154F1629 
 416      30272018 
 416      65061C3F 
 417 006c 106E567A 		.ascii	"\020nVz\033\tR8f}A@\004j9w3\035tN\257\246\214\275\211\242\251"
 417      1B095238 
 417      667D4140 
 417      046A3977 
 417      331D744E 
 418 0087 9EA191B9 		.ascii	"\236\241\221\271\255\277\267\225\250\245\202\252\243\224\222"
 418      ADBFB795 
 418      A8A582AA 
 418      A39492
 419 0096 B88788B1 		.ascii	"\270\207\210\261\223\274\200\265\272\231\253\276\220\216\203"
 419      93BC80B5 
 419      BA99ABBE 
 419      908E83
 420 00a5 9F9A8685 		.ascii	"\237\232\206\205\230\244\240\254\234\226\201\260\215\273\262"
 420      98A4A0AC 
 420      9C9681B0 
 420      8DBBB2
 421 00b4 9DAE849B 		.ascii	"\235\256\204\233\264\213\227\247\263\212\217\266\305\300\310"
 421      B48B97A7 
 421      B38A8FB6 
 421      C5C0C8
 422 00c3 D7DEC4D1 		.ascii	"\327\336\304\321\322\331\313\315\325\314\307\333\337\334\335"
 422      D2D9CBCD 
 422      D5CCC7DB 
 422      DFDCDD
 423 00d2 CFC6DAC2 		.ascii	"\317\306\332\302\303\311\301\312\326\330\316\323\320\324\351"
 423      C3C9C1CA 
 423      D6D8CED3 
 423      D0D4E9
 424 00e1 E5E8E2E6 		.ascii	"\345\350\342\346\353\343\354\355\347\341\344\352\357\356\340"
 424      EBE3ECED 
 424      E7E1E4EA 
 424      EFEEE0
 425 00f0 F6F0F4F5 		.ascii	"\366\360\364\365\362\363\367\361\373\371\372\370\374\375\376"
 425      F2F3F7F1 
 425      FBF9FAF8 
 425      FCFDFE
 426 00ff FF       		.ascii	"\377"
 427              		.section	.sdata.g_token_type,"aw"
 428              		.set	.LANCHOR1,. + 0
 431              	g_token_type:
 432 0000 FF       		.byte	-1
 433              		.text
 434              	.Letext0:
 435              		.file 2 "c:\\users\\stapi\\onedrive\\desktop\\gd32vw553\\embeddedbuilder_v1.4.7.26843\\tools\\nucl
 436              		.file 3 "c:\\users\\stapi\\onedrive\\desktop\\gd32vw553\\embeddedbuilder_v1.4.7.26843\\tools\\nucl
 437              		.file 4 "..\\..\\..\\..\\cloud\\alicloud\\include/iot_export.h"
 438              		.file 5 "C:/Users/stapi/OneDrive/Desktop/GD32VW553/V1_MQTT_OK/GD32VW55X_Wifi_BLE_SDK/GD32VW55x_REL
 439              		.file 6 "c:\\users\\stapi\\onedrive\\desktop\\gd32vw553\\embeddedbuilder_v1.4.7.26843\\tools\\nucl
 440              		.file 7 "..\\..\\..\\..\\cloud\\alicloud\\src\\infra\\utils\\digest/utils_hmac.h"
 441              		.file 8 "C:/Users/stapi/OneDrive/Desktop/GD32VW553/V1_MQTT_OK/GD32VW55X_Wifi_BLE_SDK/GD32VW55x_REL
 442              		.file 9 "..\\..\\..\\..\\cloud\\alicloud\\src\\infra\\log/iotx_log.h"
 443              		.file 10 "..\\..\\..\\..\\cloud\\alicloud\\src\\infra\\utils/iotx_utils.h"
 444              		.file 11 "<built-in>"