   1              		.file	"sha256.c"
   2              		.option nopic
   3              		.attribute arch, "rv32i2p0_m2p0_a2p0_f2p0_c2p0_b_p0p94"
   4              		.attribute unaligned_access, 0
   5              		.attribute stack_align, 16
   6              		.text
   7              	.Ltext0:
   8              		.cfi_sections	.debug_frame
   9              		.section	.text.SHA256_init,"ax",@progbits
  10              		.align	1
  11              		.globl	SHA256_init
  13              	SHA256_init:
  14              	.LFB49:
  15              		.file 1 "C:/Users/stapi/OneDrive/Desktop/GD32VW553/V1_MQTT_OK/GD32VW55X_Wifi_BLE_SDK/GD32VW55x_REL
   1:C:/Users/stapi/OneDrive/Desktop/GD32VW553/V1_MQTT_OK/GD32VW55X_Wifi_BLE_SDK/GD32VW55x_RELEASE_V1.0.2/MSDK/cloud/alicloud/src/services/dev_bind\sha256.c **** /*
   2:C:/Users/stapi/OneDrive/Desktop/GD32VW553/V1_MQTT_OK/GD32VW55X_Wifi_BLE_SDK/GD32VW55x_RELEASE_V1.0.2/MSDK/cloud/alicloud/src/services/dev_bind\sha256.c ****  * Copyright (C) 2015-2018 Alibaba Group Holding Limited
   3:C:/Users/stapi/OneDrive/Desktop/GD32VW553/V1_MQTT_OK/GD32VW55X_Wifi_BLE_SDK/GD32VW55x_RELEASE_V1.0.2/MSDK/cloud/alicloud/src/services/dev_bind\sha256.c ****  */
   4:C:/Users/stapi/OneDrive/Desktop/GD32VW553/V1_MQTT_OK/GD32VW55X_Wifi_BLE_SDK/GD32VW55x_RELEASE_V1.0.2/MSDK/cloud/alicloud/src/services/dev_bind\sha256.c **** 
   5:C:/Users/stapi/OneDrive/Desktop/GD32VW553/V1_MQTT_OK/GD32VW55X_Wifi_BLE_SDK/GD32VW55x_RELEASE_V1.0.2/MSDK/cloud/alicloud/src/services/dev_bind\sha256.c **** 
   6:C:/Users/stapi/OneDrive/Desktop/GD32VW553/V1_MQTT_OK/GD32VW55X_Wifi_BLE_SDK/GD32VW55x_RELEASE_V1.0.2/MSDK/cloud/alicloud/src/services/dev_bind\sha256.c **** // Optimized for minimal code size.
   7:C:/Users/stapi/OneDrive/Desktop/GD32VW553/V1_MQTT_OK/GD32VW55X_Wifi_BLE_SDK/GD32VW55x_RELEASE_V1.0.2/MSDK/cloud/alicloud/src/services/dev_bind\sha256.c **** #include <stdio.h>
   8:C:/Users/stapi/OneDrive/Desktop/GD32VW553/V1_MQTT_OK/GD32VW55X_Wifi_BLE_SDK/GD32VW55x_RELEASE_V1.0.2/MSDK/cloud/alicloud/src/services/dev_bind\sha256.c **** #include <string.h>
   9:C:/Users/stapi/OneDrive/Desktop/GD32VW553/V1_MQTT_OK/GD32VW55X_Wifi_BLE_SDK/GD32VW55x_RELEASE_V1.0.2/MSDK/cloud/alicloud/src/services/dev_bind\sha256.c **** #include "os.h"
  10:C:/Users/stapi/OneDrive/Desktop/GD32VW553/V1_MQTT_OK/GD32VW55X_Wifi_BLE_SDK/GD32VW55x_RELEASE_V1.0.2/MSDK/cloud/alicloud/src/services/dev_bind\sha256.c **** #include "sha256.h"
  11:C:/Users/stapi/OneDrive/Desktop/GD32VW553/V1_MQTT_OK/GD32VW55X_Wifi_BLE_SDK/GD32VW55x_RELEASE_V1.0.2/MSDK/cloud/alicloud/src/services/dev_bind\sha256.c **** 
  12:C:/Users/stapi/OneDrive/Desktop/GD32VW553/V1_MQTT_OK/GD32VW55X_Wifi_BLE_SDK/GD32VW55x_RELEASE_V1.0.2/MSDK/cloud/alicloud/src/services/dev_bind\sha256.c **** #define ror(value, bits) (((value) >> (bits)) | ((value) << (32 - (bits))))
  13:C:/Users/stapi/OneDrive/Desktop/GD32VW553/V1_MQTT_OK/GD32VW55X_Wifi_BLE_SDK/GD32VW55x_RELEASE_V1.0.2/MSDK/cloud/alicloud/src/services/dev_bind\sha256.c **** #define shr(value, bits) ((value) >> (bits))
  14:C:/Users/stapi/OneDrive/Desktop/GD32VW553/V1_MQTT_OK/GD32VW55X_Wifi_BLE_SDK/GD32VW55x_RELEASE_V1.0.2/MSDK/cloud/alicloud/src/services/dev_bind\sha256.c **** 
  15:C:/Users/stapi/OneDrive/Desktop/GD32VW553/V1_MQTT_OK/GD32VW55X_Wifi_BLE_SDK/GD32VW55x_RELEASE_V1.0.2/MSDK/cloud/alicloud/src/services/dev_bind\sha256.c **** #if defined(__cplusplus)  /* If this is a C++ compiler, use C linkage */
  16:C:/Users/stapi/OneDrive/Desktop/GD32VW553/V1_MQTT_OK/GD32VW55X_Wifi_BLE_SDK/GD32VW55x_RELEASE_V1.0.2/MSDK/cloud/alicloud/src/services/dev_bind\sha256.c **** extern "C"
  17:C:/Users/stapi/OneDrive/Desktop/GD32VW553/V1_MQTT_OK/GD32VW55X_Wifi_BLE_SDK/GD32VW55x_RELEASE_V1.0.2/MSDK/cloud/alicloud/src/services/dev_bind\sha256.c **** {
  18:C:/Users/stapi/OneDrive/Desktop/GD32VW553/V1_MQTT_OK/GD32VW55X_Wifi_BLE_SDK/GD32VW55x_RELEASE_V1.0.2/MSDK/cloud/alicloud/src/services/dev_bind\sha256.c **** #endif
  19:C:/Users/stapi/OneDrive/Desktop/GD32VW553/V1_MQTT_OK/GD32VW55X_Wifi_BLE_SDK/GD32VW55x_RELEASE_V1.0.2/MSDK/cloud/alicloud/src/services/dev_bind\sha256.c **** 
  20:C:/Users/stapi/OneDrive/Desktop/GD32VW553/V1_MQTT_OK/GD32VW55X_Wifi_BLE_SDK/GD32VW55x_RELEASE_V1.0.2/MSDK/cloud/alicloud/src/services/dev_bind\sha256.c **** static const uint32_t K[64] = {
  21:C:/Users/stapi/OneDrive/Desktop/GD32VW553/V1_MQTT_OK/GD32VW55X_Wifi_BLE_SDK/GD32VW55x_RELEASE_V1.0.2/MSDK/cloud/alicloud/src/services/dev_bind\sha256.c ****     0x428a2f98, 0x71374491, 0xb5c0fbcf, 0xe9b5dba5,
  22:C:/Users/stapi/OneDrive/Desktop/GD32VW553/V1_MQTT_OK/GD32VW55X_Wifi_BLE_SDK/GD32VW55x_RELEASE_V1.0.2/MSDK/cloud/alicloud/src/services/dev_bind\sha256.c ****     0x3956c25b, 0x59f111f1, 0x923f82a4, 0xab1c5ed5,
  23:C:/Users/stapi/OneDrive/Desktop/GD32VW553/V1_MQTT_OK/GD32VW55X_Wifi_BLE_SDK/GD32VW55x_RELEASE_V1.0.2/MSDK/cloud/alicloud/src/services/dev_bind\sha256.c ****     0xd807aa98, 0x12835b01, 0x243185be, 0x550c7dc3,
  24:C:/Users/stapi/OneDrive/Desktop/GD32VW553/V1_MQTT_OK/GD32VW55X_Wifi_BLE_SDK/GD32VW55x_RELEASE_V1.0.2/MSDK/cloud/alicloud/src/services/dev_bind\sha256.c ****     0x72be5d74, 0x80deb1fe, 0x9bdc06a7, 0xc19bf174,
  25:C:/Users/stapi/OneDrive/Desktop/GD32VW553/V1_MQTT_OK/GD32VW55X_Wifi_BLE_SDK/GD32VW55x_RELEASE_V1.0.2/MSDK/cloud/alicloud/src/services/dev_bind\sha256.c ****     0xe49b69c1, 0xefbe4786, 0x0fc19dc6, 0x240ca1cc,
  26:C:/Users/stapi/OneDrive/Desktop/GD32VW553/V1_MQTT_OK/GD32VW55X_Wifi_BLE_SDK/GD32VW55x_RELEASE_V1.0.2/MSDK/cloud/alicloud/src/services/dev_bind\sha256.c ****     0x2de92c6f, 0x4a7484aa, 0x5cb0a9dc, 0x76f988da,
  27:C:/Users/stapi/OneDrive/Desktop/GD32VW553/V1_MQTT_OK/GD32VW55X_Wifi_BLE_SDK/GD32VW55x_RELEASE_V1.0.2/MSDK/cloud/alicloud/src/services/dev_bind\sha256.c ****     0x983e5152, 0xa831c66d, 0xb00327c8, 0xbf597fc7,
  28:C:/Users/stapi/OneDrive/Desktop/GD32VW553/V1_MQTT_OK/GD32VW55X_Wifi_BLE_SDK/GD32VW55x_RELEASE_V1.0.2/MSDK/cloud/alicloud/src/services/dev_bind\sha256.c ****     0xc6e00bf3, 0xd5a79147, 0x06ca6351, 0x14292967,
  29:C:/Users/stapi/OneDrive/Desktop/GD32VW553/V1_MQTT_OK/GD32VW55X_Wifi_BLE_SDK/GD32VW55x_RELEASE_V1.0.2/MSDK/cloud/alicloud/src/services/dev_bind\sha256.c ****     0x27b70a85, 0x2e1b2138, 0x4d2c6dfc, 0x53380d13,
  30:C:/Users/stapi/OneDrive/Desktop/GD32VW553/V1_MQTT_OK/GD32VW55X_Wifi_BLE_SDK/GD32VW55x_RELEASE_V1.0.2/MSDK/cloud/alicloud/src/services/dev_bind\sha256.c ****     0x650a7354, 0x766a0abb, 0x81c2c92e, 0x92722c85,
  31:C:/Users/stapi/OneDrive/Desktop/GD32VW553/V1_MQTT_OK/GD32VW55X_Wifi_BLE_SDK/GD32VW55x_RELEASE_V1.0.2/MSDK/cloud/alicloud/src/services/dev_bind\sha256.c ****     0xa2bfe8a1, 0xa81a664b, 0xc24b8b70, 0xc76c51a3,
  32:C:/Users/stapi/OneDrive/Desktop/GD32VW553/V1_MQTT_OK/GD32VW55X_Wifi_BLE_SDK/GD32VW55x_RELEASE_V1.0.2/MSDK/cloud/alicloud/src/services/dev_bind\sha256.c ****     0xd192e819, 0xd6990624, 0xf40e3585, 0x106aa070,
  33:C:/Users/stapi/OneDrive/Desktop/GD32VW553/V1_MQTT_OK/GD32VW55X_Wifi_BLE_SDK/GD32VW55x_RELEASE_V1.0.2/MSDK/cloud/alicloud/src/services/dev_bind\sha256.c ****     0x19a4c116, 0x1e376c08, 0x2748774c, 0x34b0bcb5,
  34:C:/Users/stapi/OneDrive/Desktop/GD32VW553/V1_MQTT_OK/GD32VW55X_Wifi_BLE_SDK/GD32VW55x_RELEASE_V1.0.2/MSDK/cloud/alicloud/src/services/dev_bind\sha256.c ****     0x391c0cb3, 0x4ed8aa4a, 0x5b9cca4f, 0x682e6ff3,
  35:C:/Users/stapi/OneDrive/Desktop/GD32VW553/V1_MQTT_OK/GD32VW55X_Wifi_BLE_SDK/GD32VW55x_RELEASE_V1.0.2/MSDK/cloud/alicloud/src/services/dev_bind\sha256.c ****     0x748f82ee, 0x78a5636f, 0x84c87814, 0x8cc70208,
  36:C:/Users/stapi/OneDrive/Desktop/GD32VW553/V1_MQTT_OK/GD32VW55X_Wifi_BLE_SDK/GD32VW55x_RELEASE_V1.0.2/MSDK/cloud/alicloud/src/services/dev_bind\sha256.c ****     0x90befffa, 0xa4506ceb, 0xbef9a3f7, 0xc67178f2 };
  37:C:/Users/stapi/OneDrive/Desktop/GD32VW553/V1_MQTT_OK/GD32VW55X_Wifi_BLE_SDK/GD32VW55x_RELEASE_V1.0.2/MSDK/cloud/alicloud/src/services/dev_bind\sha256.c **** 
  38:C:/Users/stapi/OneDrive/Desktop/GD32VW553/V1_MQTT_OK/GD32VW55X_Wifi_BLE_SDK/GD32VW55x_RELEASE_V1.0.2/MSDK/cloud/alicloud/src/services/dev_bind\sha256.c **** static void SHA256_Transform(SHA256_CTX* ctx)
  39:C:/Users/stapi/OneDrive/Desktop/GD32VW553/V1_MQTT_OK/GD32VW55X_Wifi_BLE_SDK/GD32VW55x_RELEASE_V1.0.2/MSDK/cloud/alicloud/src/services/dev_bind\sha256.c **** {
  40:C:/Users/stapi/OneDrive/Desktop/GD32VW553/V1_MQTT_OK/GD32VW55X_Wifi_BLE_SDK/GD32VW55x_RELEASE_V1.0.2/MSDK/cloud/alicloud/src/services/dev_bind\sha256.c ****     uint32_t W[64];
  41:C:/Users/stapi/OneDrive/Desktop/GD32VW553/V1_MQTT_OK/GD32VW55X_Wifi_BLE_SDK/GD32VW55x_RELEASE_V1.0.2/MSDK/cloud/alicloud/src/services/dev_bind\sha256.c ****     uint32_t A, B, C, D, E, F, G, H;
  42:C:/Users/stapi/OneDrive/Desktop/GD32VW553/V1_MQTT_OK/GD32VW55X_Wifi_BLE_SDK/GD32VW55x_RELEASE_V1.0.2/MSDK/cloud/alicloud/src/services/dev_bind\sha256.c ****     uint8_t* p = ctx->buf;
  43:C:/Users/stapi/OneDrive/Desktop/GD32VW553/V1_MQTT_OK/GD32VW55X_Wifi_BLE_SDK/GD32VW55x_RELEASE_V1.0.2/MSDK/cloud/alicloud/src/services/dev_bind\sha256.c ****     int t;
  44:C:/Users/stapi/OneDrive/Desktop/GD32VW553/V1_MQTT_OK/GD32VW55X_Wifi_BLE_SDK/GD32VW55x_RELEASE_V1.0.2/MSDK/cloud/alicloud/src/services/dev_bind\sha256.c **** 
  45:C:/Users/stapi/OneDrive/Desktop/GD32VW553/V1_MQTT_OK/GD32VW55X_Wifi_BLE_SDK/GD32VW55x_RELEASE_V1.0.2/MSDK/cloud/alicloud/src/services/dev_bind\sha256.c ****     for(t = 0; t < 16; ++t) {
  46:C:/Users/stapi/OneDrive/Desktop/GD32VW553/V1_MQTT_OK/GD32VW55X_Wifi_BLE_SDK/GD32VW55x_RELEASE_V1.0.2/MSDK/cloud/alicloud/src/services/dev_bind\sha256.c ****         uint32_t tmp =  *p++ << 24;
  47:C:/Users/stapi/OneDrive/Desktop/GD32VW553/V1_MQTT_OK/GD32VW55X_Wifi_BLE_SDK/GD32VW55x_RELEASE_V1.0.2/MSDK/cloud/alicloud/src/services/dev_bind\sha256.c ****         tmp |= *p++ << 16;
  48:C:/Users/stapi/OneDrive/Desktop/GD32VW553/V1_MQTT_OK/GD32VW55X_Wifi_BLE_SDK/GD32VW55x_RELEASE_V1.0.2/MSDK/cloud/alicloud/src/services/dev_bind\sha256.c ****         tmp |= *p++ << 8;
  49:C:/Users/stapi/OneDrive/Desktop/GD32VW553/V1_MQTT_OK/GD32VW55X_Wifi_BLE_SDK/GD32VW55x_RELEASE_V1.0.2/MSDK/cloud/alicloud/src/services/dev_bind\sha256.c ****         tmp |= *p++;
  50:C:/Users/stapi/OneDrive/Desktop/GD32VW553/V1_MQTT_OK/GD32VW55X_Wifi_BLE_SDK/GD32VW55x_RELEASE_V1.0.2/MSDK/cloud/alicloud/src/services/dev_bind\sha256.c ****         W[t] = tmp;
  51:C:/Users/stapi/OneDrive/Desktop/GD32VW553/V1_MQTT_OK/GD32VW55X_Wifi_BLE_SDK/GD32VW55x_RELEASE_V1.0.2/MSDK/cloud/alicloud/src/services/dev_bind\sha256.c ****     }
  52:C:/Users/stapi/OneDrive/Desktop/GD32VW553/V1_MQTT_OK/GD32VW55X_Wifi_BLE_SDK/GD32VW55x_RELEASE_V1.0.2/MSDK/cloud/alicloud/src/services/dev_bind\sha256.c **** 
  53:C:/Users/stapi/OneDrive/Desktop/GD32VW553/V1_MQTT_OK/GD32VW55X_Wifi_BLE_SDK/GD32VW55x_RELEASE_V1.0.2/MSDK/cloud/alicloud/src/services/dev_bind\sha256.c ****     for(; t < 64; t++) {
  54:C:/Users/stapi/OneDrive/Desktop/GD32VW553/V1_MQTT_OK/GD32VW55X_Wifi_BLE_SDK/GD32VW55x_RELEASE_V1.0.2/MSDK/cloud/alicloud/src/services/dev_bind\sha256.c ****         uint32_t s0 = ror(W[t-15], 7) ^ ror(W[t-15], 18) ^ shr(W[t-15], 3);
  55:C:/Users/stapi/OneDrive/Desktop/GD32VW553/V1_MQTT_OK/GD32VW55X_Wifi_BLE_SDK/GD32VW55x_RELEASE_V1.0.2/MSDK/cloud/alicloud/src/services/dev_bind\sha256.c ****         uint32_t s1 = ror(W[t-2], 17) ^ ror(W[t-2], 19) ^ shr(W[t-2], 10);
  56:C:/Users/stapi/OneDrive/Desktop/GD32VW553/V1_MQTT_OK/GD32VW55X_Wifi_BLE_SDK/GD32VW55x_RELEASE_V1.0.2/MSDK/cloud/alicloud/src/services/dev_bind\sha256.c ****         W[t] = W[t-16] + s0 + W[t-7] + s1;
  57:C:/Users/stapi/OneDrive/Desktop/GD32VW553/V1_MQTT_OK/GD32VW55X_Wifi_BLE_SDK/GD32VW55x_RELEASE_V1.0.2/MSDK/cloud/alicloud/src/services/dev_bind\sha256.c ****     }
  58:C:/Users/stapi/OneDrive/Desktop/GD32VW553/V1_MQTT_OK/GD32VW55X_Wifi_BLE_SDK/GD32VW55x_RELEASE_V1.0.2/MSDK/cloud/alicloud/src/services/dev_bind\sha256.c **** 
  59:C:/Users/stapi/OneDrive/Desktop/GD32VW553/V1_MQTT_OK/GD32VW55X_Wifi_BLE_SDK/GD32VW55x_RELEASE_V1.0.2/MSDK/cloud/alicloud/src/services/dev_bind\sha256.c ****     A = ctx->state[0];
  60:C:/Users/stapi/OneDrive/Desktop/GD32VW553/V1_MQTT_OK/GD32VW55X_Wifi_BLE_SDK/GD32VW55x_RELEASE_V1.0.2/MSDK/cloud/alicloud/src/services/dev_bind\sha256.c ****     B = ctx->state[1];
  61:C:/Users/stapi/OneDrive/Desktop/GD32VW553/V1_MQTT_OK/GD32VW55X_Wifi_BLE_SDK/GD32VW55x_RELEASE_V1.0.2/MSDK/cloud/alicloud/src/services/dev_bind\sha256.c ****     C = ctx->state[2];
  62:C:/Users/stapi/OneDrive/Desktop/GD32VW553/V1_MQTT_OK/GD32VW55X_Wifi_BLE_SDK/GD32VW55x_RELEASE_V1.0.2/MSDK/cloud/alicloud/src/services/dev_bind\sha256.c ****     D = ctx->state[3];
  63:C:/Users/stapi/OneDrive/Desktop/GD32VW553/V1_MQTT_OK/GD32VW55X_Wifi_BLE_SDK/GD32VW55x_RELEASE_V1.0.2/MSDK/cloud/alicloud/src/services/dev_bind\sha256.c ****     E = ctx->state[4];
  64:C:/Users/stapi/OneDrive/Desktop/GD32VW553/V1_MQTT_OK/GD32VW55X_Wifi_BLE_SDK/GD32VW55x_RELEASE_V1.0.2/MSDK/cloud/alicloud/src/services/dev_bind\sha256.c ****     F = ctx->state[5];
  65:C:/Users/stapi/OneDrive/Desktop/GD32VW553/V1_MQTT_OK/GD32VW55X_Wifi_BLE_SDK/GD32VW55x_RELEASE_V1.0.2/MSDK/cloud/alicloud/src/services/dev_bind\sha256.c ****     G = ctx->state[6];
  66:C:/Users/stapi/OneDrive/Desktop/GD32VW553/V1_MQTT_OK/GD32VW55X_Wifi_BLE_SDK/GD32VW55x_RELEASE_V1.0.2/MSDK/cloud/alicloud/src/services/dev_bind\sha256.c ****     H = ctx->state[7];
  67:C:/Users/stapi/OneDrive/Desktop/GD32VW553/V1_MQTT_OK/GD32VW55X_Wifi_BLE_SDK/GD32VW55x_RELEASE_V1.0.2/MSDK/cloud/alicloud/src/services/dev_bind\sha256.c **** 
  68:C:/Users/stapi/OneDrive/Desktop/GD32VW553/V1_MQTT_OK/GD32VW55X_Wifi_BLE_SDK/GD32VW55x_RELEASE_V1.0.2/MSDK/cloud/alicloud/src/services/dev_bind\sha256.c ****     for(t = 0; t < 64; t++) {
  69:C:/Users/stapi/OneDrive/Desktop/GD32VW553/V1_MQTT_OK/GD32VW55X_Wifi_BLE_SDK/GD32VW55x_RELEASE_V1.0.2/MSDK/cloud/alicloud/src/services/dev_bind\sha256.c ****         uint32_t s0 = ror(A, 2) ^ ror(A, 13) ^ ror(A, 22);
  70:C:/Users/stapi/OneDrive/Desktop/GD32VW553/V1_MQTT_OK/GD32VW55X_Wifi_BLE_SDK/GD32VW55x_RELEASE_V1.0.2/MSDK/cloud/alicloud/src/services/dev_bind\sha256.c ****         uint32_t maj = (A & B) ^ (A & C) ^ (B & C);
  71:C:/Users/stapi/OneDrive/Desktop/GD32VW553/V1_MQTT_OK/GD32VW55X_Wifi_BLE_SDK/GD32VW55x_RELEASE_V1.0.2/MSDK/cloud/alicloud/src/services/dev_bind\sha256.c ****         uint32_t t2 = s0 + maj;
  72:C:/Users/stapi/OneDrive/Desktop/GD32VW553/V1_MQTT_OK/GD32VW55X_Wifi_BLE_SDK/GD32VW55x_RELEASE_V1.0.2/MSDK/cloud/alicloud/src/services/dev_bind\sha256.c ****         uint32_t s1 = ror(E, 6) ^ ror(E, 11) ^ ror(E, 25);
  73:C:/Users/stapi/OneDrive/Desktop/GD32VW553/V1_MQTT_OK/GD32VW55X_Wifi_BLE_SDK/GD32VW55x_RELEASE_V1.0.2/MSDK/cloud/alicloud/src/services/dev_bind\sha256.c ****         uint32_t ch = (E & F) ^ ((~E) & G);
  74:C:/Users/stapi/OneDrive/Desktop/GD32VW553/V1_MQTT_OK/GD32VW55X_Wifi_BLE_SDK/GD32VW55x_RELEASE_V1.0.2/MSDK/cloud/alicloud/src/services/dev_bind\sha256.c ****         uint32_t t1 = H + s1 + ch + K[t] + W[t];
  75:C:/Users/stapi/OneDrive/Desktop/GD32VW553/V1_MQTT_OK/GD32VW55X_Wifi_BLE_SDK/GD32VW55x_RELEASE_V1.0.2/MSDK/cloud/alicloud/src/services/dev_bind\sha256.c ****         H = G;
  76:C:/Users/stapi/OneDrive/Desktop/GD32VW553/V1_MQTT_OK/GD32VW55X_Wifi_BLE_SDK/GD32VW55x_RELEASE_V1.0.2/MSDK/cloud/alicloud/src/services/dev_bind\sha256.c ****         G = F;
  77:C:/Users/stapi/OneDrive/Desktop/GD32VW553/V1_MQTT_OK/GD32VW55X_Wifi_BLE_SDK/GD32VW55x_RELEASE_V1.0.2/MSDK/cloud/alicloud/src/services/dev_bind\sha256.c ****         F = E;
  78:C:/Users/stapi/OneDrive/Desktop/GD32VW553/V1_MQTT_OK/GD32VW55X_Wifi_BLE_SDK/GD32VW55x_RELEASE_V1.0.2/MSDK/cloud/alicloud/src/services/dev_bind\sha256.c ****         E = D + t1;
  79:C:/Users/stapi/OneDrive/Desktop/GD32VW553/V1_MQTT_OK/GD32VW55X_Wifi_BLE_SDK/GD32VW55x_RELEASE_V1.0.2/MSDK/cloud/alicloud/src/services/dev_bind\sha256.c ****         D = C;
  80:C:/Users/stapi/OneDrive/Desktop/GD32VW553/V1_MQTT_OK/GD32VW55X_Wifi_BLE_SDK/GD32VW55x_RELEASE_V1.0.2/MSDK/cloud/alicloud/src/services/dev_bind\sha256.c ****         C = B;
  81:C:/Users/stapi/OneDrive/Desktop/GD32VW553/V1_MQTT_OK/GD32VW55X_Wifi_BLE_SDK/GD32VW55x_RELEASE_V1.0.2/MSDK/cloud/alicloud/src/services/dev_bind\sha256.c ****         B = A;
  82:C:/Users/stapi/OneDrive/Desktop/GD32VW553/V1_MQTT_OK/GD32VW55X_Wifi_BLE_SDK/GD32VW55x_RELEASE_V1.0.2/MSDK/cloud/alicloud/src/services/dev_bind\sha256.c ****         A = t1 + t2;
  83:C:/Users/stapi/OneDrive/Desktop/GD32VW553/V1_MQTT_OK/GD32VW55X_Wifi_BLE_SDK/GD32VW55x_RELEASE_V1.0.2/MSDK/cloud/alicloud/src/services/dev_bind\sha256.c ****     }
  84:C:/Users/stapi/OneDrive/Desktop/GD32VW553/V1_MQTT_OK/GD32VW55X_Wifi_BLE_SDK/GD32VW55x_RELEASE_V1.0.2/MSDK/cloud/alicloud/src/services/dev_bind\sha256.c **** 
  85:C:/Users/stapi/OneDrive/Desktop/GD32VW553/V1_MQTT_OK/GD32VW55X_Wifi_BLE_SDK/GD32VW55x_RELEASE_V1.0.2/MSDK/cloud/alicloud/src/services/dev_bind\sha256.c ****     ctx->state[0] += A;
  86:C:/Users/stapi/OneDrive/Desktop/GD32VW553/V1_MQTT_OK/GD32VW55X_Wifi_BLE_SDK/GD32VW55x_RELEASE_V1.0.2/MSDK/cloud/alicloud/src/services/dev_bind\sha256.c ****     ctx->state[1] += B;
  87:C:/Users/stapi/OneDrive/Desktop/GD32VW553/V1_MQTT_OK/GD32VW55X_Wifi_BLE_SDK/GD32VW55x_RELEASE_V1.0.2/MSDK/cloud/alicloud/src/services/dev_bind\sha256.c ****     ctx->state[2] += C;
  88:C:/Users/stapi/OneDrive/Desktop/GD32VW553/V1_MQTT_OK/GD32VW55X_Wifi_BLE_SDK/GD32VW55x_RELEASE_V1.0.2/MSDK/cloud/alicloud/src/services/dev_bind\sha256.c ****     ctx->state[3] += D;
  89:C:/Users/stapi/OneDrive/Desktop/GD32VW553/V1_MQTT_OK/GD32VW55X_Wifi_BLE_SDK/GD32VW55x_RELEASE_V1.0.2/MSDK/cloud/alicloud/src/services/dev_bind\sha256.c ****     ctx->state[4] += E;
  90:C:/Users/stapi/OneDrive/Desktop/GD32VW553/V1_MQTT_OK/GD32VW55X_Wifi_BLE_SDK/GD32VW55x_RELEASE_V1.0.2/MSDK/cloud/alicloud/src/services/dev_bind\sha256.c ****     ctx->state[5] += F;
  91:C:/Users/stapi/OneDrive/Desktop/GD32VW553/V1_MQTT_OK/GD32VW55X_Wifi_BLE_SDK/GD32VW55x_RELEASE_V1.0.2/MSDK/cloud/alicloud/src/services/dev_bind\sha256.c ****     ctx->state[6] += G;
  92:C:/Users/stapi/OneDrive/Desktop/GD32VW553/V1_MQTT_OK/GD32VW55X_Wifi_BLE_SDK/GD32VW55x_RELEASE_V1.0.2/MSDK/cloud/alicloud/src/services/dev_bind\sha256.c ****     ctx->state[7] += H;
  93:C:/Users/stapi/OneDrive/Desktop/GD32VW553/V1_MQTT_OK/GD32VW55X_Wifi_BLE_SDK/GD32VW55x_RELEASE_V1.0.2/MSDK/cloud/alicloud/src/services/dev_bind\sha256.c **** }
  94:C:/Users/stapi/OneDrive/Desktop/GD32VW553/V1_MQTT_OK/GD32VW55X_Wifi_BLE_SDK/GD32VW55x_RELEASE_V1.0.2/MSDK/cloud/alicloud/src/services/dev_bind\sha256.c **** 
  95:C:/Users/stapi/OneDrive/Desktop/GD32VW553/V1_MQTT_OK/GD32VW55X_Wifi_BLE_SDK/GD32VW55x_RELEASE_V1.0.2/MSDK/cloud/alicloud/src/services/dev_bind\sha256.c **** #if 0
  96:C:/Users/stapi/OneDrive/Desktop/GD32VW553/V1_MQTT_OK/GD32VW55X_Wifi_BLE_SDK/GD32VW55x_RELEASE_V1.0.2/MSDK/cloud/alicloud/src/services/dev_bind\sha256.c **** static const HASH_VTAB SHA256_VTAB = {
  97:C:/Users/stapi/OneDrive/Desktop/GD32VW553/V1_MQTT_OK/GD32VW55X_Wifi_BLE_SDK/GD32VW55x_RELEASE_V1.0.2/MSDK/cloud/alicloud/src/services/dev_bind\sha256.c ****     SHA256_init,
  98:C:/Users/stapi/OneDrive/Desktop/GD32VW553/V1_MQTT_OK/GD32VW55X_Wifi_BLE_SDK/GD32VW55x_RELEASE_V1.0.2/MSDK/cloud/alicloud/src/services/dev_bind\sha256.c ****     SHA256_update,
  99:C:/Users/stapi/OneDrive/Desktop/GD32VW553/V1_MQTT_OK/GD32VW55X_Wifi_BLE_SDK/GD32VW55x_RELEASE_V1.0.2/MSDK/cloud/alicloud/src/services/dev_bind\sha256.c ****     SHA256_final,
 100:C:/Users/stapi/OneDrive/Desktop/GD32VW553/V1_MQTT_OK/GD32VW55X_Wifi_BLE_SDK/GD32VW55x_RELEASE_V1.0.2/MSDK/cloud/alicloud/src/services/dev_bind\sha256.c ****     SHA256_hash,
 101:C:/Users/stapi/OneDrive/Desktop/GD32VW553/V1_MQTT_OK/GD32VW55X_Wifi_BLE_SDK/GD32VW55x_RELEASE_V1.0.2/MSDK/cloud/alicloud/src/services/dev_bind\sha256.c ****     SHA256_DIGEST_SIZE
 102:C:/Users/stapi/OneDrive/Desktop/GD32VW553/V1_MQTT_OK/GD32VW55X_Wifi_BLE_SDK/GD32VW55x_RELEASE_V1.0.2/MSDK/cloud/alicloud/src/services/dev_bind\sha256.c **** };
 103:C:/Users/stapi/OneDrive/Desktop/GD32VW553/V1_MQTT_OK/GD32VW55X_Wifi_BLE_SDK/GD32VW55x_RELEASE_V1.0.2/MSDK/cloud/alicloud/src/services/dev_bind\sha256.c **** #endif
 104:C:/Users/stapi/OneDrive/Desktop/GD32VW553/V1_MQTT_OK/GD32VW55X_Wifi_BLE_SDK/GD32VW55x_RELEASE_V1.0.2/MSDK/cloud/alicloud/src/services/dev_bind\sha256.c **** 
 105:C:/Users/stapi/OneDrive/Desktop/GD32VW553/V1_MQTT_OK/GD32VW55X_Wifi_BLE_SDK/GD32VW55x_RELEASE_V1.0.2/MSDK/cloud/alicloud/src/services/dev_bind\sha256.c **** void SHA256_init(SHA256_CTX* ctx)
 106:C:/Users/stapi/OneDrive/Desktop/GD32VW553/V1_MQTT_OK/GD32VW55X_Wifi_BLE_SDK/GD32VW55x_RELEASE_V1.0.2/MSDK/cloud/alicloud/src/services/dev_bind\sha256.c **** {
  16              		.loc 1 106 1
  17              		.cfi_startproc
  18              	.LVL0:
 107:C:/Users/stapi/OneDrive/Desktop/GD32VW553/V1_MQTT_OK/GD32VW55X_Wifi_BLE_SDK/GD32VW55x_RELEASE_V1.0.2/MSDK/cloud/alicloud/src/services/dev_bind\sha256.c ****     //ctx->f = &SHA256_VTAB;
 108:C:/Users/stapi/OneDrive/Desktop/GD32VW553/V1_MQTT_OK/GD32VW55X_Wifi_BLE_SDK/GD32VW55x_RELEASE_V1.0.2/MSDK/cloud/alicloud/src/services/dev_bind\sha256.c ****     ctx->state[0] = 0x6a09e667;
  19              		.loc 1 108 5
  20              		.loc 1 108 19 is_stmt 0
  21 0000 B7E7096A 		li	a5,1779032064
  22 0004 93877766 		addi	a5,a5,1639
  23 0008 3CC5     		sw	a5,72(a0)
 109:C:/Users/stapi/OneDrive/Desktop/GD32VW553/V1_MQTT_OK/GD32VW55X_Wifi_BLE_SDK/GD32VW55x_RELEASE_V1.0.2/MSDK/cloud/alicloud/src/services/dev_bind\sha256.c ****     ctx->state[1] = 0xbb67ae85;
  24              		.loc 1 109 5 is_stmt 1
  25              		.loc 1 109 19 is_stmt 0
  26 000a B7B767BB 		li	a5,-1150832640
  27 000e 938757E8 		addi	a5,a5,-379
  28 0012 7CC5     		sw	a5,76(a0)
 110:C:/Users/stapi/OneDrive/Desktop/GD32VW553/V1_MQTT_OK/GD32VW55X_Wifi_BLE_SDK/GD32VW55x_RELEASE_V1.0.2/MSDK/cloud/alicloud/src/services/dev_bind\sha256.c ****     ctx->state[2] = 0x3c6ef372;
  29              		.loc 1 110 5 is_stmt 1
  30              		.loc 1 110 19 is_stmt 0
  31 0014 B7F76E3C 		li	a5,1013903360
  32 0018 93872737 		addi	a5,a5,882
  33 001c 3CC9     		sw	a5,80(a0)
 111:C:/Users/stapi/OneDrive/Desktop/GD32VW553/V1_MQTT_OK/GD32VW55X_Wifi_BLE_SDK/GD32VW55x_RELEASE_V1.0.2/MSDK/cloud/alicloud/src/services/dev_bind\sha256.c ****     ctx->state[3] = 0xa54ff53a;
  34              		.loc 1 111 5 is_stmt 1
  35              		.loc 1 111 19 is_stmt 0
  36 001e B7F74FA5 		li	a5,-1521487872
  37 0022 9387A753 		addi	a5,a5,1338
  38 0026 7CC9     		sw	a5,84(a0)
 112:C:/Users/stapi/OneDrive/Desktop/GD32VW553/V1_MQTT_OK/GD32VW55X_Wifi_BLE_SDK/GD32VW55x_RELEASE_V1.0.2/MSDK/cloud/alicloud/src/services/dev_bind\sha256.c ****     ctx->state[4] = 0x510e527f;
  39              		.loc 1 112 5 is_stmt 1
  40              		.loc 1 112 19 is_stmt 0
  41 0028 B7570E51 		li	a5,1359892480
  42 002c 9387F727 		addi	a5,a5,639
  43 0030 3CCD     		sw	a5,88(a0)
 113:C:/Users/stapi/OneDrive/Desktop/GD32VW553/V1_MQTT_OK/GD32VW55X_Wifi_BLE_SDK/GD32VW55x_RELEASE_V1.0.2/MSDK/cloud/alicloud/src/services/dev_bind\sha256.c ****     ctx->state[5] = 0x9b05688c;
  44              		.loc 1 113 5 is_stmt 1
  45              		.loc 1 113 19 is_stmt 0
  46 0032 B777059B 		li	a5,-1694142464
  47 0036 9387C788 		addi	a5,a5,-1908
  48 003a 7CCD     		sw	a5,92(a0)
 114:C:/Users/stapi/OneDrive/Desktop/GD32VW553/V1_MQTT_OK/GD32VW55X_Wifi_BLE_SDK/GD32VW55x_RELEASE_V1.0.2/MSDK/cloud/alicloud/src/services/dev_bind\sha256.c ****     ctx->state[6] = 0x1f83d9ab;
  49              		.loc 1 114 5 is_stmt 1
  50              		.loc 1 114 19 is_stmt 0
  51 003c B7E7831F 		li	a5,528736256
  52 0040 9387B79A 		addi	a5,a5,-1621
  53 0044 3CD1     		sw	a5,96(a0)
 115:C:/Users/stapi/OneDrive/Desktop/GD32VW553/V1_MQTT_OK/GD32VW55X_Wifi_BLE_SDK/GD32VW55x_RELEASE_V1.0.2/MSDK/cloud/alicloud/src/services/dev_bind\sha256.c ****     ctx->state[7] = 0x5be0cd19;
  54              		.loc 1 115 5 is_stmt 1
  55              		.loc 1 115 19 is_stmt 0
  56 0046 B7D7E05B 		li	a5,1541459968
  57 004a 938797D1 		addi	a5,a5,-743
  58 004e 7CD1     		sw	a5,100(a0)
 116:C:/Users/stapi/OneDrive/Desktop/GD32VW553/V1_MQTT_OK/GD32VW55X_Wifi_BLE_SDK/GD32VW55x_RELEASE_V1.0.2/MSDK/cloud/alicloud/src/services/dev_bind\sha256.c ****     ctx->count = 0;
  59              		.loc 1 116 5 is_stmt 1
  60              		.loc 1 116 16 is_stmt 0
  61 0050 0147     		li	a4,0
  62 0052 8147     		li	a5,0
  63 0054 18C1     		sw	a4,0(a0)
  64 0056 5CC1     		sw	a5,4(a0)
 117:C:/Users/stapi/OneDrive/Desktop/GD32VW553/V1_MQTT_OK/GD32VW55X_Wifi_BLE_SDK/GD32VW55x_RELEASE_V1.0.2/MSDK/cloud/alicloud/src/services/dev_bind\sha256.c **** }
  65              		.loc 1 117 1
  66 0058 8280     		ret
  67              		.cfi_endproc
  68              	.LFE49:
  70              		.section	.text.SHA256_update,"ax",@progbits
  71              		.align	1
  72              		.globl	SHA256_update
  74              	SHA256_update:
  75              	.LFB50:
 118:C:/Users/stapi/OneDrive/Desktop/GD32VW553/V1_MQTT_OK/GD32VW55X_Wifi_BLE_SDK/GD32VW55x_RELEASE_V1.0.2/MSDK/cloud/alicloud/src/services/dev_bind\sha256.c **** 
 119:C:/Users/stapi/OneDrive/Desktop/GD32VW553/V1_MQTT_OK/GD32VW55X_Wifi_BLE_SDK/GD32VW55x_RELEASE_V1.0.2/MSDK/cloud/alicloud/src/services/dev_bind\sha256.c **** void SHA256_update(SHA256_CTX* ctx, const void* data, int len)
 120:C:/Users/stapi/OneDrive/Desktop/GD32VW553/V1_MQTT_OK/GD32VW55X_Wifi_BLE_SDK/GD32VW55x_RELEASE_V1.0.2/MSDK/cloud/alicloud/src/services/dev_bind\sha256.c **** {
  76              		.loc 1 120 1 is_stmt 1
  77              		.cfi_startproc
  78              	.LVL1:
 121:C:/Users/stapi/OneDrive/Desktop/GD32VW553/V1_MQTT_OK/GD32VW55X_Wifi_BLE_SDK/GD32VW55x_RELEASE_V1.0.2/MSDK/cloud/alicloud/src/services/dev_bind\sha256.c ****     int i = (int) (ctx->count & 63);
  79              		.loc 1 121 5
  80              		.loc 1 121 23 is_stmt 0
  81 0000 1841     		lw	a4,0(a0)
  82 0002 83284500 		lw	a7,4(a0)
 122:C:/Users/stapi/OneDrive/Desktop/GD32VW553/V1_MQTT_OK/GD32VW55X_Wifi_BLE_SDK/GD32VW55x_RELEASE_V1.0.2/MSDK/cloud/alicloud/src/services/dev_bind\sha256.c ****     const uint8_t* p = (const uint8_t*)data;
 123:C:/Users/stapi/OneDrive/Desktop/GD32VW553/V1_MQTT_OK/GD32VW55X_Wifi_BLE_SDK/GD32VW55x_RELEASE_V1.0.2/MSDK/cloud/alicloud/src/services/dev_bind\sha256.c ****     ctx->count += len;
  83              		.loc 1 123 16
  84 0006 1358F641 		srai	a6,a2,31
 121:C:/Users/stapi/OneDrive/Desktop/GD32VW553/V1_MQTT_OK/GD32VW55X_Wifi_BLE_SDK/GD32VW55x_RELEASE_V1.0.2/MSDK/cloud/alicloud/src/services/dev_bind\sha256.c ****     int i = (int) (ctx->count & 63);
  85              		.loc 1 121 9
  86 000a 9377F703 		andi	a5,a4,63
  87              	.LVL2:
 122:C:/Users/stapi/OneDrive/Desktop/GD32VW553/V1_MQTT_OK/GD32VW55X_Wifi_BLE_SDK/GD32VW55x_RELEASE_V1.0.2/MSDK/cloud/alicloud/src/services/dev_bind\sha256.c ****     const uint8_t* p = (const uint8_t*)data;
  88              		.loc 1 122 5 is_stmt 1
  89              		.loc 1 123 5
  90              		.loc 1 123 16 is_stmt 0
  91 000e 3297     		add	a4,a2,a4
 120:C:/Users/stapi/OneDrive/Desktop/GD32VW553/V1_MQTT_OK/GD32VW55X_Wifi_BLE_SDK/GD32VW55x_RELEASE_V1.0.2/MSDK/cloud/alicloud/src/services/dev_bind\sha256.c ****     int i = (int) (ctx->count & 63);
  92              		.loc 1 120 1
  93 0010 2971     		addi	sp,sp,-320
  94              		.cfi_def_cfa_offset 320
  95              		.loc 1 123 16
  96 0012 B336C700 		sltu	a3,a4,a2
  97 0016 4698     		add	a6,a6,a7
  98 0018 18C1     		sw	a4,0(a0)
  99 001a 3387C500 		add	a4,a1,a2
 120:C:/Users/stapi/OneDrive/Desktop/GD32VW553/V1_MQTT_OK/GD32VW55X_Wifi_BLE_SDK/GD32VW55x_RELEASE_V1.0.2/MSDK/cloud/alicloud/src/services/dev_bind\sha256.c ****     int i = (int) (ctx->count & 63);
 100              		.loc 1 120 1
 101 001e 23245113 		sw	s5,296(sp)
 102              		.loc 1 123 16
 103 0022 C296     		add	a3,a3,a6
 104 0024 3AC4     		sw	a4,8(sp)
 105              		.cfi_offset 21, -24
 106              	.LBB7:
 107              	.LBB8:
 108              	.LBB9:
  74:C:/Users/stapi/OneDrive/Desktop/GD32VW553/V1_MQTT_OK/GD32VW55X_Wifi_BLE_SDK/GD32VW55x_RELEASE_V1.0.2/MSDK/cloud/alicloud/src/services/dev_bind\sha256.c ****         H = G;
 109              		.loc 1 74 38
 110 0026 B70A0000 		lui	s5,%hi(.LANCHOR0)
 111 002a 13078504 		addi	a4,a0,72
 112              	.LBE9:
 113              	.LBE8:
 114              	.LBE7:
 120:C:/Users/stapi/OneDrive/Desktop/GD32VW553/V1_MQTT_OK/GD32VW55X_Wifi_BLE_SDK/GD32VW55x_RELEASE_V1.0.2/MSDK/cloud/alicloud/src/services/dev_bind\sha256.c ****     int i = (int) (ctx->count & 63);
 115              		.loc 1 120 1
 116 002e 232E8111 		sw	s8,284(sp)
 117 0032 232C9111 		sw	s9,280(sp)
 118 0036 232E8112 		sw	s0,316(sp)
 119 003a 232C9112 		sw	s1,312(sp)
 120 003e 232A2113 		sw	s2,308(sp)
 121 0042 23283113 		sw	s3,304(sp)
 122 0046 23264113 		sw	s4,300(sp)
 123 004a 23226113 		sw	s6,292(sp)
 124 004e 23207113 		sw	s7,288(sp)
 125 0052 232AA111 		sw	s10,276(sp)
 126 0056 2328B111 		sw	s11,272(sp)
 127              		.cfi_offset 24, -36
 128              		.cfi_offset 25, -40
 129              		.cfi_offset 8, -4
 130              		.cfi_offset 9, -8
 131              		.cfi_offset 18, -12
 132              		.cfi_offset 19, -16
 133              		.cfi_offset 20, -20
 134              		.cfi_offset 22, -28
 135              		.cfi_offset 23, -32
 136              		.cfi_offset 26, -44
 137              		.cfi_offset 27, -48
 138              		.loc 1 123 16
 139 005a 54C1     		sw	a3,4(a0)
 124:C:/Users/stapi/OneDrive/Desktop/GD32VW553/V1_MQTT_OK/GD32VW55X_Wifi_BLE_SDK/GD32VW55x_RELEASE_V1.0.2/MSDK/cloud/alicloud/src/services/dev_bind\sha256.c ****     while (len--) {
 140              		.loc 1 124 5 is_stmt 1
 141 005c 3AC6     		sw	a4,12(sp)
 142              	.LBB21:
 143              	.LBB18:
 144              	.LBB10:
  72:C:/Users/stapi/OneDrive/Desktop/GD32VW553/V1_MQTT_OK/GD32VW55X_Wifi_BLE_SDK/GD32VW55x_RELEASE_V1.0.2/MSDK/cloud/alicloud/src/services/dev_bind\sha256.c ****         uint32_t ch = (E & F) ^ ((~E) & G);
 145              		.loc 1 72 48 is_stmt 0
 146 005e 1D4C     		li	s8,7
  74:C:/Users/stapi/OneDrive/Desktop/GD32VW553/V1_MQTT_OK/GD32VW55X_Wifi_BLE_SDK/GD32VW55x_RELEASE_V1.0.2/MSDK/cloud/alicloud/src/services/dev_bind\sha256.c ****         H = G;
 147              		.loc 1 74 38
 148 0060 938A0A00 		addi	s5,s5,%lo(.LANCHOR0)
 149              	.LBE10:
  68:C:/Users/stapi/OneDrive/Desktop/GD32VW553/V1_MQTT_OK/GD32VW55X_Wifi_BLE_SDK/GD32VW55x_RELEASE_V1.0.2/MSDK/cloud/alicloud/src/services/dev_bind\sha256.c ****         uint32_t s0 = ror(A, 2) ^ ror(A, 13) ^ ror(A, 22);
 150              		.loc 1 68 5
 151 0064 930C0010 		li	s9,256
 152              	.LVL3:
 153              	.L3:
 154              	.LBE18:
 155              	.LBE21:
 156              		.loc 1 124 11 is_stmt 1
 157 0068 2247     		lw	a4,8(sp)
 158 006a 639CE502 		bne	a1,a4,.L8
 125:C:/Users/stapi/OneDrive/Desktop/GD32VW553/V1_MQTT_OK/GD32VW55X_Wifi_BLE_SDK/GD32VW55x_RELEASE_V1.0.2/MSDK/cloud/alicloud/src/services/dev_bind\sha256.c ****         ctx->buf[i++] = *p++;
 126:C:/Users/stapi/OneDrive/Desktop/GD32VW553/V1_MQTT_OK/GD32VW55X_Wifi_BLE_SDK/GD32VW55x_RELEASE_V1.0.2/MSDK/cloud/alicloud/src/services/dev_bind\sha256.c ****         if (i == 64) {
 127:C:/Users/stapi/OneDrive/Desktop/GD32VW553/V1_MQTT_OK/GD32VW55X_Wifi_BLE_SDK/GD32VW55x_RELEASE_V1.0.2/MSDK/cloud/alicloud/src/services/dev_bind\sha256.c ****             SHA256_Transform(ctx);
 128:C:/Users/stapi/OneDrive/Desktop/GD32VW553/V1_MQTT_OK/GD32VW55X_Wifi_BLE_SDK/GD32VW55x_RELEASE_V1.0.2/MSDK/cloud/alicloud/src/services/dev_bind\sha256.c ****             i = 0;
 129:C:/Users/stapi/OneDrive/Desktop/GD32VW553/V1_MQTT_OK/GD32VW55X_Wifi_BLE_SDK/GD32VW55x_RELEASE_V1.0.2/MSDK/cloud/alicloud/src/services/dev_bind\sha256.c ****         }
 130:C:/Users/stapi/OneDrive/Desktop/GD32VW553/V1_MQTT_OK/GD32VW55X_Wifi_BLE_SDK/GD32VW55x_RELEASE_V1.0.2/MSDK/cloud/alicloud/src/services/dev_bind\sha256.c ****     }
 131:C:/Users/stapi/OneDrive/Desktop/GD32VW553/V1_MQTT_OK/GD32VW55X_Wifi_BLE_SDK/GD32VW55x_RELEASE_V1.0.2/MSDK/cloud/alicloud/src/services/dev_bind\sha256.c **** }
 159              		.loc 1 131 1 is_stmt 0
 160 006e 0324C113 		lw	s0,316(sp)
 161              		.cfi_remember_state
 162              		.cfi_restore 8
 163 0072 83248113 		lw	s1,312(sp)
 164              		.cfi_restore 9
 165 0076 03294113 		lw	s2,308(sp)
 166              		.cfi_restore 18
 167 007a 83290113 		lw	s3,304(sp)
 168              		.cfi_restore 19
 169 007e 032AC112 		lw	s4,300(sp)
 170              		.cfi_restore 20
 171 0082 832A8112 		lw	s5,296(sp)
 172              		.cfi_restore 21
 173 0086 032B4112 		lw	s6,292(sp)
 174              		.cfi_restore 22
 175 008a 832B0112 		lw	s7,288(sp)
 176              		.cfi_restore 23
 177 008e 032CC111 		lw	s8,284(sp)
 178              		.cfi_restore 24
 179 0092 832C8111 		lw	s9,280(sp)
 180              		.cfi_restore 25
 181 0096 032D4111 		lw	s10,276(sp)
 182              		.cfi_restore 26
 183 009a 832D0111 		lw	s11,272(sp)
 184              		.cfi_restore 27
 185 009e 3161     		addi	sp,sp,320
 186              		.cfi_def_cfa_offset 0
 187 00a0 8280     		jr	ra
 188              	.L8:
 189              		.cfi_restore_state
 125:C:/Users/stapi/OneDrive/Desktop/GD32VW553/V1_MQTT_OK/GD32VW55X_Wifi_BLE_SDK/GD32VW55x_RELEASE_V1.0.2/MSDK/cloud/alicloud/src/services/dev_bind\sha256.c ****         ctx->buf[i++] = *p++;
 190              		.loc 1 125 9 is_stmt 1
 125:C:/Users/stapi/OneDrive/Desktop/GD32VW553/V1_MQTT_OK/GD32VW55X_Wifi_BLE_SDK/GD32VW55x_RELEASE_V1.0.2/MSDK/cloud/alicloud/src/services/dev_bind\sha256.c ****         ctx->buf[i++] = *p++;
 191              		.loc 1 125 25 is_stmt 0
 192 00a2 83C60500 		lbu	a3,0(a1)
 125:C:/Users/stapi/OneDrive/Desktop/GD32VW553/V1_MQTT_OK/GD32VW55X_Wifi_BLE_SDK/GD32VW55x_RELEASE_V1.0.2/MSDK/cloud/alicloud/src/services/dev_bind\sha256.c ****         ctx->buf[i++] = *p++;
 193              		.loc 1 125 19
 194 00a6 13871700 		addi	a4,a5,1
 125:C:/Users/stapi/OneDrive/Desktop/GD32VW553/V1_MQTT_OK/GD32VW55X_Wifi_BLE_SDK/GD32VW55x_RELEASE_V1.0.2/MSDK/cloud/alicloud/src/services/dev_bind\sha256.c ****         ctx->buf[i++] = *p++;
 195              		.loc 1 125 23
 196 00aa AA97     		add	a5,a0,a5
 197              	.LVL4:
 198 00ac 2384D700 		sb	a3,8(a5)
 126:C:/Users/stapi/OneDrive/Desktop/GD32VW553/V1_MQTT_OK/GD32VW55X_Wifi_BLE_SDK/GD32VW55x_RELEASE_V1.0.2/MSDK/cloud/alicloud/src/services/dev_bind\sha256.c ****             SHA256_Transform(ctx);
 199              		.loc 1 126 12
 200 00b0 93070004 		li	a5,64
 125:C:/Users/stapi/OneDrive/Desktop/GD32VW553/V1_MQTT_OK/GD32VW55X_Wifi_BLE_SDK/GD32VW55x_RELEASE_V1.0.2/MSDK/cloud/alicloud/src/services/dev_bind\sha256.c ****         ctx->buf[i++] = *p++;
 201              		.loc 1 125 27
 202 00b4 8505     		addi	a1,a1,1
 203              	.LVL5:
 126:C:/Users/stapi/OneDrive/Desktop/GD32VW553/V1_MQTT_OK/GD32VW55X_Wifi_BLE_SDK/GD32VW55x_RELEASE_V1.0.2/MSDK/cloud/alicloud/src/services/dev_bind\sha256.c ****             SHA256_Transform(ctx);
 204              		.loc 1 126 9 is_stmt 1
 126:C:/Users/stapi/OneDrive/Desktop/GD32VW553/V1_MQTT_OK/GD32VW55X_Wifi_BLE_SDK/GD32VW55x_RELEASE_V1.0.2/MSDK/cloud/alicloud/src/services/dev_bind\sha256.c ****             SHA256_Transform(ctx);
 205              		.loc 1 126 12 is_stmt 0
 206 00b6 6310F714 		bne	a4,a5,.L4
 127:C:/Users/stapi/OneDrive/Desktop/GD32VW553/V1_MQTT_OK/GD32VW55X_Wifi_BLE_SDK/GD32VW55x_RELEASE_V1.0.2/MSDK/cloud/alicloud/src/services/dev_bind\sha256.c ****             i = 0;
 207              		.loc 1 127 13 is_stmt 1
 208              	.LVL6:
 209              	.LBB22:
 210              	.LBB19:
  40:C:/Users/stapi/OneDrive/Desktop/GD32VW553/V1_MQTT_OK/GD32VW55X_Wifi_BLE_SDK/GD32VW55x_RELEASE_V1.0.2/MSDK/cloud/alicloud/src/services/dev_bind\sha256.c ****     uint32_t A, B, C, D, E, F, G, H;
 211              		.loc 1 40 5
  41:C:/Users/stapi/OneDrive/Desktop/GD32VW553/V1_MQTT_OK/GD32VW55X_Wifi_BLE_SDK/GD32VW55x_RELEASE_V1.0.2/MSDK/cloud/alicloud/src/services/dev_bind\sha256.c ****     uint8_t* p = ctx->buf;
 212              		.loc 1 41 5
  42:C:/Users/stapi/OneDrive/Desktop/GD32VW553/V1_MQTT_OK/GD32VW55X_Wifi_BLE_SDK/GD32VW55x_RELEASE_V1.0.2/MSDK/cloud/alicloud/src/services/dev_bind\sha256.c ****     int t;
 213              		.loc 1 42 5
 214 00ba 1C08     		addi	a5,sp,16
  42:C:/Users/stapi/OneDrive/Desktop/GD32VW553/V1_MQTT_OK/GD32VW55X_Wifi_BLE_SDK/GD32VW55x_RELEASE_V1.0.2/MSDK/cloud/alicloud/src/services/dev_bind\sha256.c ****     int t;
 215              		.loc 1 42 14 is_stmt 0
 216 00bc 13078500 		addi	a4,a0,8
 217              	.LVL7:
  43:C:/Users/stapi/OneDrive/Desktop/GD32VW553/V1_MQTT_OK/GD32VW55X_Wifi_BLE_SDK/GD32VW55x_RELEASE_V1.0.2/MSDK/cloud/alicloud/src/services/dev_bind\sha256.c **** 
 218              		.loc 1 43 5 is_stmt 1
  45:C:/Users/stapi/OneDrive/Desktop/GD32VW553/V1_MQTT_OK/GD32VW55X_Wifi_BLE_SDK/GD32VW55x_RELEASE_V1.0.2/MSDK/cloud/alicloud/src/services/dev_bind\sha256.c ****         uint32_t tmp =  *p++ << 24;
 219              		.loc 1 45 5
  45:C:/Users/stapi/OneDrive/Desktop/GD32VW553/V1_MQTT_OK/GD32VW55X_Wifi_BLE_SDK/GD32VW55x_RELEASE_V1.0.2/MSDK/cloud/alicloud/src/services/dev_bind\sha256.c ****         uint32_t tmp =  *p++ << 24;
 220              		.loc 1 45 16
  42:C:/Users/stapi/OneDrive/Desktop/GD32VW553/V1_MQTT_OK/GD32VW55X_Wifi_BLE_SDK/GD32VW55x_RELEASE_V1.0.2/MSDK/cloud/alicloud/src/services/dev_bind\sha256.c ****     int t;
 221              		.loc 1 42 14 is_stmt 0
 222 00c0 3E88     		mv	a6,a5
 223 00c2 3E8D     		mv	s10,a5
 224              	.LVL8:
 225              	.L5:
 226              	.LBB11:
  46:C:/Users/stapi/OneDrive/Desktop/GD32VW553/V1_MQTT_OK/GD32VW55X_Wifi_BLE_SDK/GD32VW55x_RELEASE_V1.0.2/MSDK/cloud/alicloud/src/services/dev_bind\sha256.c ****         tmp |= *p++ << 16;
 227              		.loc 1 46 9 is_stmt 1
  47:C:/Users/stapi/OneDrive/Desktop/GD32VW553/V1_MQTT_OK/GD32VW55X_Wifi_BLE_SDK/GD32VW55x_RELEASE_V1.0.2/MSDK/cloud/alicloud/src/services/dev_bind\sha256.c ****         tmp |= *p++ << 8;
 228              		.loc 1 47 9
  48:C:/Users/stapi/OneDrive/Desktop/GD32VW553/V1_MQTT_OK/GD32VW55X_Wifi_BLE_SDK/GD32VW55x_RELEASE_V1.0.2/MSDK/cloud/alicloud/src/services/dev_bind\sha256.c ****         tmp |= *p++;
 229              		.loc 1 48 9
 230 00c4 03461700 		lbu	a2,1(a4)
 231 00c8 83460700 		lbu	a3,0(a4)
 232 00cc 1107     		addi	a4,a4,4
 233              	.LVL9:
 234 00ce 2206     		slli	a2,a2,8
 235 00d0 558E     		or	a2,a2,a3
 236 00d2 8346E7FF 		lbu	a3,-2(a4)
 237              	.LBE11:
  45:C:/Users/stapi/OneDrive/Desktop/GD32VW553/V1_MQTT_OK/GD32VW55X_Wifi_BLE_SDK/GD32VW55x_RELEASE_V1.0.2/MSDK/cloud/alicloud/src/services/dev_bind\sha256.c ****         uint32_t tmp =  *p++ << 24;
 238              		.loc 1 45 5 is_stmt 0
 239 00d6 1108     		addi	a6,a6,4
 240 00d8 C206     		slli	a3,a3,16
 241 00da 558E     		or	a2,a3,a2
 242 00dc 8346F7FF 		lbu	a3,-1(a4)
 243 00e0 E206     		slli	a3,a3,24
 244 00e2 D18E     		or	a3,a3,a2
 245 00e4 93D68669 		rev8	a3,a3
 246              	.LVL10:
 247              	.LBB12:
  49:C:/Users/stapi/OneDrive/Desktop/GD32VW553/V1_MQTT_OK/GD32VW55X_Wifi_BLE_SDK/GD32VW55x_RELEASE_V1.0.2/MSDK/cloud/alicloud/src/services/dev_bind\sha256.c ****         W[t] = tmp;
 248              		.loc 1 49 9 is_stmt 1
  50:C:/Users/stapi/OneDrive/Desktop/GD32VW553/V1_MQTT_OK/GD32VW55X_Wifi_BLE_SDK/GD32VW55x_RELEASE_V1.0.2/MSDK/cloud/alicloud/src/services/dev_bind\sha256.c ****     }
 249              		.loc 1 50 9
  50:C:/Users/stapi/OneDrive/Desktop/GD32VW553/V1_MQTT_OK/GD32VW55X_Wifi_BLE_SDK/GD32VW55x_RELEASE_V1.0.2/MSDK/cloud/alicloud/src/services/dev_bind\sha256.c ****     }
 250              		.loc 1 50 14 is_stmt 0
 251 00e8 232ED8FE 		sw	a3,-4(a6)
 252              	.LBE12:
  45:C:/Users/stapi/OneDrive/Desktop/GD32VW553/V1_MQTT_OK/GD32VW55X_Wifi_BLE_SDK/GD32VW55x_RELEASE_V1.0.2/MSDK/cloud/alicloud/src/services/dev_bind\sha256.c ****         uint32_t tmp =  *p++ << 24;
 253              		.loc 1 45 24 is_stmt 1
  45:C:/Users/stapi/OneDrive/Desktop/GD32VW553/V1_MQTT_OK/GD32VW55X_Wifi_BLE_SDK/GD32VW55x_RELEASE_V1.0.2/MSDK/cloud/alicloud/src/services/dev_bind\sha256.c ****         uint32_t tmp =  *p++ << 24;
 254              		.loc 1 45 16
  45:C:/Users/stapi/OneDrive/Desktop/GD32VW553/V1_MQTT_OK/GD32VW55X_Wifi_BLE_SDK/GD32VW55x_RELEASE_V1.0.2/MSDK/cloud/alicloud/src/services/dev_bind\sha256.c ****         uint32_t tmp =  *p++ << 24;
 255              		.loc 1 45 5 is_stmt 0
 256 00ec B246     		lw	a3,12(sp)
 257 00ee E31BD7FC 		bne	a4,a3,.L5
 258 00f2 1388070C 		addi	a6,a5,192
 259              	.LVL11:
 260              	.L6:
 261              	.LBB13:
  54:C:/Users/stapi/OneDrive/Desktop/GD32VW553/V1_MQTT_OK/GD32VW55X_Wifi_BLE_SDK/GD32VW55x_RELEASE_V1.0.2/MSDK/cloud/alicloud/src/services/dev_bind\sha256.c ****         uint32_t s1 = ror(W[t-2], 17) ^ ror(W[t-2], 19) ^ shr(W[t-2], 10);
 262              		.loc 1 54 9 is_stmt 1
  54:C:/Users/stapi/OneDrive/Desktop/GD32VW553/V1_MQTT_OK/GD32VW55X_Wifi_BLE_SDK/GD32VW55x_RELEASE_V1.0.2/MSDK/cloud/alicloud/src/services/dev_bind\sha256.c ****         uint32_t s1 = ror(W[t-2], 17) ^ ror(W[t-2], 19) ^ shr(W[t-2], 10);
 263              		.loc 1 54 23 is_stmt 0
 264 00f6 D443     		lw	a3,4(a5)
 265              	.LVL12:
  55:C:/Users/stapi/OneDrive/Desktop/GD32VW553/V1_MQTT_OK/GD32VW55X_Wifi_BLE_SDK/GD32VW55x_RELEASE_V1.0.2/MSDK/cloud/alicloud/src/services/dev_bind\sha256.c ****         W[t] = W[t-16] + s0 + W[t-7] + s1;
 266              		.loc 1 55 9 is_stmt 1
  54:C:/Users/stapi/OneDrive/Desktop/GD32VW553/V1_MQTT_OK/GD32VW55X_Wifi_BLE_SDK/GD32VW55x_RELEASE_V1.0.2/MSDK/cloud/alicloud/src/services/dev_bind\sha256.c ****         uint32_t s1 = ror(W[t-2], 17) ^ ror(W[t-2], 19) ^ shr(W[t-2], 10);
 267              		.loc 1 54 41 is_stmt 0
 268 00f8 3944     		li	s0,14
  55:C:/Users/stapi/OneDrive/Desktop/GD32VW553/V1_MQTT_OK/GD32VW55X_Wifi_BLE_SDK/GD32VW55x_RELEASE_V1.0.2/MSDK/cloud/alicloud/src/services/dev_bind\sha256.c ****         W[t] = W[t-16] + s0 + W[t-7] + s1;
 269              		.loc 1 55 23
 270 00fa 905F     		lw	a2,56(a5)
 271              	.LVL13:
  56:C:/Users/stapi/OneDrive/Desktop/GD32VW553/V1_MQTT_OK/GD32VW55X_Wifi_BLE_SDK/GD32VW55x_RELEASE_V1.0.2/MSDK/cloud/alicloud/src/services/dev_bind\sha256.c ****     }
 272              		.loc 1 56 9 is_stmt 1
  54:C:/Users/stapi/OneDrive/Desktop/GD32VW553/V1_MQTT_OK/GD32VW55X_Wifi_BLE_SDK/GD32VW55x_RELEASE_V1.0.2/MSDK/cloud/alicloud/src/services/dev_bind\sha256.c ****         uint32_t s1 = ror(W[t-2], 17) ^ ror(W[t-2], 19) ^ shr(W[t-2], 10);
 273              		.loc 1 54 41 is_stmt 0
 274 00fc B3988660 		rol	a7,a3,s0
  54:C:/Users/stapi/OneDrive/Desktop/GD32VW553/V1_MQTT_OK/GD32VW55X_Wifi_BLE_SDK/GD32VW55x_RELEASE_V1.0.2/MSDK/cloud/alicloud/src/services/dev_bind\sha256.c ****         uint32_t s1 = ror(W[t-2], 17) ^ ror(W[t-2], 19) ^ shr(W[t-2], 10);
 275              		.loc 1 54 23
 276 0100 13D77660 		rori	a4,a3,7
  54:C:/Users/stapi/OneDrive/Desktop/GD32VW553/V1_MQTT_OK/GD32VW55X_Wifi_BLE_SDK/GD32VW55x_RELEASE_V1.0.2/MSDK/cloud/alicloud/src/services/dev_bind\sha256.c ****         uint32_t s1 = ror(W[t-2], 17) ^ ror(W[t-2], 19) ^ shr(W[t-2], 10);
 277              		.loc 1 54 60
 278 0104 8D82     		srli	a3,a3,3
 279              	.LVL14:
  54:C:/Users/stapi/OneDrive/Desktop/GD32VW553/V1_MQTT_OK/GD32VW55X_Wifi_BLE_SDK/GD32VW55x_RELEASE_V1.0.2/MSDK/cloud/alicloud/src/services/dev_bind\sha256.c ****         uint32_t s1 = ror(W[t-2], 17) ^ ror(W[t-2], 19) ^ shr(W[t-2], 10);
 280              		.loc 1 54 39
 281 0106 33471701 		xor	a4,a4,a7
  54:C:/Users/stapi/OneDrive/Desktop/GD32VW553/V1_MQTT_OK/GD32VW55X_Wifi_BLE_SDK/GD32VW55x_RELEASE_V1.0.2/MSDK/cloud/alicloud/src/services/dev_bind\sha256.c ****         uint32_t s1 = ror(W[t-2], 17) ^ ror(W[t-2], 19) ^ shr(W[t-2], 10);
 282              		.loc 1 54 18
 283 010a 358F     		xor	a4,a4,a3
 284              	.LVL15:
  56:C:/Users/stapi/OneDrive/Desktop/GD32VW553/V1_MQTT_OK/GD32VW55X_Wifi_BLE_SDK/GD32VW55x_RELEASE_V1.0.2/MSDK/cloud/alicloud/src/services/dev_bind\sha256.c ****     }
 285              		.loc 1 56 29
 286 010c 83A84702 		lw	a7,36(a5)
 287 0110 9443     		lw	a3,0(a5)
  55:C:/Users/stapi/OneDrive/Desktop/GD32VW553/V1_MQTT_OK/GD32VW55X_Wifi_BLE_SDK/GD32VW55x_RELEASE_V1.0.2/MSDK/cloud/alicloud/src/services/dev_bind\sha256.c ****         W[t] = W[t-16] + s0 + W[t-7] + s1;
 288              		.loc 1 55 41
 289 0112 3544     		li	s0,13
 290              	.LBE13:
  53:C:/Users/stapi/OneDrive/Desktop/GD32VW553/V1_MQTT_OK/GD32VW55X_Wifi_BLE_SDK/GD32VW55x_RELEASE_V1.0.2/MSDK/cloud/alicloud/src/services/dev_bind\sha256.c ****         uint32_t s0 = ror(W[t-15], 7) ^ ror(W[t-15], 18) ^ shr(W[t-15], 3);
 291              		.loc 1 53 5
 292 0114 9107     		addi	a5,a5,4
 293              	.LBB14:
  56:C:/Users/stapi/OneDrive/Desktop/GD32VW553/V1_MQTT_OK/GD32VW55X_Wifi_BLE_SDK/GD32VW55x_RELEASE_V1.0.2/MSDK/cloud/alicloud/src/services/dev_bind\sha256.c ****     }
 294              		.loc 1 56 29
 295 0116 C696     		add	a3,a3,a7
 296 0118 3697     		add	a4,a4,a3
 297              	.LVL16:
  55:C:/Users/stapi/OneDrive/Desktop/GD32VW553/V1_MQTT_OK/GD32VW55X_Wifi_BLE_SDK/GD32VW55x_RELEASE_V1.0.2/MSDK/cloud/alicloud/src/services/dev_bind\sha256.c ****         W[t] = W[t-16] + s0 + W[t-7] + s1;
 298              		.loc 1 55 23
 299 011a BD46     		li	a3,15
 300 011c B316D660 		rol	a3,a2,a3
  55:C:/Users/stapi/OneDrive/Desktop/GD32VW553/V1_MQTT_OK/GD32VW55X_Wifi_BLE_SDK/GD32VW55x_RELEASE_V1.0.2/MSDK/cloud/alicloud/src/services/dev_bind\sha256.c ****         W[t] = W[t-16] + s0 + W[t-7] + s1;
 301              		.loc 1 55 41
 302 0120 B3188660 		rol	a7,a2,s0
  55:C:/Users/stapi/OneDrive/Desktop/GD32VW553/V1_MQTT_OK/GD32VW55X_Wifi_BLE_SDK/GD32VW55x_RELEASE_V1.0.2/MSDK/cloud/alicloud/src/services/dev_bind\sha256.c ****         W[t] = W[t-16] + s0 + W[t-7] + s1;
 303              		.loc 1 55 59
 304 0124 2982     		srli	a2,a2,10
 305              	.LVL17:
  55:C:/Users/stapi/OneDrive/Desktop/GD32VW553/V1_MQTT_OK/GD32VW55X_Wifi_BLE_SDK/GD32VW55x_RELEASE_V1.0.2/MSDK/cloud/alicloud/src/services/dev_bind\sha256.c ****         W[t] = W[t-16] + s0 + W[t-7] + s1;
 306              		.loc 1 55 39
 307 0126 B3C61601 		xor	a3,a3,a7
  55:C:/Users/stapi/OneDrive/Desktop/GD32VW553/V1_MQTT_OK/GD32VW55X_Wifi_BLE_SDK/GD32VW55x_RELEASE_V1.0.2/MSDK/cloud/alicloud/src/services/dev_bind\sha256.c ****         W[t] = W[t-16] + s0 + W[t-7] + s1;
 308              		.loc 1 55 18
 309 012a B18E     		xor	a3,a3,a2
 310              	.LVL18:
  56:C:/Users/stapi/OneDrive/Desktop/GD32VW553/V1_MQTT_OK/GD32VW55X_Wifi_BLE_SDK/GD32VW55x_RELEASE_V1.0.2/MSDK/cloud/alicloud/src/services/dev_bind\sha256.c ****     }
 311              		.loc 1 56 38
 312 012c 3697     		add	a4,a4,a3
  56:C:/Users/stapi/OneDrive/Desktop/GD32VW553/V1_MQTT_OK/GD32VW55X_Wifi_BLE_SDK/GD32VW55x_RELEASE_V1.0.2/MSDK/cloud/alicloud/src/services/dev_bind\sha256.c ****     }
 313              		.loc 1 56 14
 314 012e D8DF     		sw	a4,60(a5)
 315              	.LBE14:
  53:C:/Users/stapi/OneDrive/Desktop/GD32VW553/V1_MQTT_OK/GD32VW55X_Wifi_BLE_SDK/GD32VW55x_RELEASE_V1.0.2/MSDK/cloud/alicloud/src/services/dev_bind\sha256.c ****         uint32_t s0 = ror(W[t-15], 7) ^ ror(W[t-15], 18) ^ shr(W[t-15], 3);
 316              		.loc 1 53 19 is_stmt 1
  53:C:/Users/stapi/OneDrive/Desktop/GD32VW553/V1_MQTT_OK/GD32VW55X_Wifi_BLE_SDK/GD32VW55x_RELEASE_V1.0.2/MSDK/cloud/alicloud/src/services/dev_bind\sha256.c ****         uint32_t s0 = ror(W[t-15], 7) ^ ror(W[t-15], 18) ^ shr(W[t-15], 3);
 317              		.loc 1 53 11
  53:C:/Users/stapi/OneDrive/Desktop/GD32VW553/V1_MQTT_OK/GD32VW55X_Wifi_BLE_SDK/GD32VW55x_RELEASE_V1.0.2/MSDK/cloud/alicloud/src/services/dev_bind\sha256.c ****         uint32_t s0 = ror(W[t-15], 7) ^ ror(W[t-15], 18) ^ shr(W[t-15], 3);
 318              		.loc 1 53 5 is_stmt 0
 319 0130 E313F8FC 		bne	a6,a5,.L6
  59:C:/Users/stapi/OneDrive/Desktop/GD32VW553/V1_MQTT_OK/GD32VW55X_Wifi_BLE_SDK/GD32VW55x_RELEASE_V1.0.2/MSDK/cloud/alicloud/src/services/dev_bind\sha256.c ****     B = ctx->state[1];
 320              		.loc 1 59 5 is_stmt 1
  59:C:/Users/stapi/OneDrive/Desktop/GD32VW553/V1_MQTT_OK/GD32VW55X_Wifi_BLE_SDK/GD32VW55x_RELEASE_V1.0.2/MSDK/cloud/alicloud/src/services/dev_bind\sha256.c ****     B = ctx->state[1];
 321              		.loc 1 59 7 is_stmt 0
 322 0134 032A8504 		lw	s4,72(a0)
 323              	.LVL19:
  60:C:/Users/stapi/OneDrive/Desktop/GD32VW553/V1_MQTT_OK/GD32VW55X_Wifi_BLE_SDK/GD32VW55x_RELEASE_V1.0.2/MSDK/cloud/alicloud/src/services/dev_bind\sha256.c ****     C = ctx->state[2];
 324              		.loc 1 60 5 is_stmt 1
  60:C:/Users/stapi/OneDrive/Desktop/GD32VW553/V1_MQTT_OK/GD32VW55X_Wifi_BLE_SDK/GD32VW55x_RELEASE_V1.0.2/MSDK/cloud/alicloud/src/services/dev_bind\sha256.c ****     C = ctx->state[2];
 325              		.loc 1 60 7 is_stmt 0
 326 0138 8329C504 		lw	s3,76(a0)
 327              	.LVL20:
  61:C:/Users/stapi/OneDrive/Desktop/GD32VW553/V1_MQTT_OK/GD32VW55X_Wifi_BLE_SDK/GD32VW55x_RELEASE_V1.0.2/MSDK/cloud/alicloud/src/services/dev_bind\sha256.c ****     D = ctx->state[3];
 328              		.loc 1 61 5 is_stmt 1
  61:C:/Users/stapi/OneDrive/Desktop/GD32VW553/V1_MQTT_OK/GD32VW55X_Wifi_BLE_SDK/GD32VW55x_RELEASE_V1.0.2/MSDK/cloud/alicloud/src/services/dev_bind\sha256.c ****     D = ctx->state[3];
 329              		.loc 1 61 7 is_stmt 0
 330 013c 03290505 		lw	s2,80(a0)
 331              	.LVL21:
  62:C:/Users/stapi/OneDrive/Desktop/GD32VW553/V1_MQTT_OK/GD32VW55X_Wifi_BLE_SDK/GD32VW55x_RELEASE_V1.0.2/MSDK/cloud/alicloud/src/services/dev_bind\sha256.c ****     E = ctx->state[4];
 332              		.loc 1 62 5 is_stmt 1
  62:C:/Users/stapi/OneDrive/Desktop/GD32VW553/V1_MQTT_OK/GD32VW55X_Wifi_BLE_SDK/GD32VW55x_RELEASE_V1.0.2/MSDK/cloud/alicloud/src/services/dev_bind\sha256.c ****     E = ctx->state[4];
 333              		.loc 1 62 7 is_stmt 0
 334 0140 6449     		lw	s1,84(a0)
 335              	.LVL22:
  63:C:/Users/stapi/OneDrive/Desktop/GD32VW553/V1_MQTT_OK/GD32VW55X_Wifi_BLE_SDK/GD32VW55x_RELEASE_V1.0.2/MSDK/cloud/alicloud/src/services/dev_bind\sha256.c ****     F = ctx->state[5];
 336              		.loc 1 63 5 is_stmt 1
  63:C:/Users/stapi/OneDrive/Desktop/GD32VW553/V1_MQTT_OK/GD32VW55X_Wifi_BLE_SDK/GD32VW55x_RELEASE_V1.0.2/MSDK/cloud/alicloud/src/services/dev_bind\sha256.c ****     F = ctx->state[5];
 337              		.loc 1 63 7 is_stmt 0
 338 0142 204D     		lw	s0,88(a0)
 339              	.LVL23:
  64:C:/Users/stapi/OneDrive/Desktop/GD32VW553/V1_MQTT_OK/GD32VW55X_Wifi_BLE_SDK/GD32VW55x_RELEASE_V1.0.2/MSDK/cloud/alicloud/src/services/dev_bind\sha256.c ****     G = ctx->state[6];
 340              		.loc 1 64 5 is_stmt 1
  64:C:/Users/stapi/OneDrive/Desktop/GD32VW553/V1_MQTT_OK/GD32VW55X_Wifi_BLE_SDK/GD32VW55x_RELEASE_V1.0.2/MSDK/cloud/alicloud/src/services/dev_bind\sha256.c ****     G = ctx->state[6];
 341              		.loc 1 64 7 is_stmt 0
 342 0144 8323C505 		lw	t2,92(a0)
 343              	.LVL24:
  65:C:/Users/stapi/OneDrive/Desktop/GD32VW553/V1_MQTT_OK/GD32VW55X_Wifi_BLE_SDK/GD32VW55x_RELEASE_V1.0.2/MSDK/cloud/alicloud/src/services/dev_bind\sha256.c ****     H = ctx->state[7];
 344              		.loc 1 65 5 is_stmt 1
  65:C:/Users/stapi/OneDrive/Desktop/GD32VW553/V1_MQTT_OK/GD32VW55X_Wifi_BLE_SDK/GD32VW55x_RELEASE_V1.0.2/MSDK/cloud/alicloud/src/services/dev_bind\sha256.c ****     H = ctx->state[7];
 345              		.loc 1 65 7 is_stmt 0
 346 0148 832F0506 		lw	t6,96(a0)
 347              	.LVL25:
  66:C:/Users/stapi/OneDrive/Desktop/GD32VW553/V1_MQTT_OK/GD32VW55X_Wifi_BLE_SDK/GD32VW55x_RELEASE_V1.0.2/MSDK/cloud/alicloud/src/services/dev_bind\sha256.c **** 
 348              		.loc 1 66 5 is_stmt 1
  66:C:/Users/stapi/OneDrive/Desktop/GD32VW553/V1_MQTT_OK/GD32VW55X_Wifi_BLE_SDK/GD32VW55x_RELEASE_V1.0.2/MSDK/cloud/alicloud/src/services/dev_bind\sha256.c **** 
 349              		.loc 1 66 7 is_stmt 0
 350 014c 832E4506 		lw	t4,100(a0)
 351              	.LVL26:
  68:C:/Users/stapi/OneDrive/Desktop/GD32VW553/V1_MQTT_OK/GD32VW55X_Wifi_BLE_SDK/GD32VW55x_RELEASE_V1.0.2/MSDK/cloud/alicloud/src/services/dev_bind\sha256.c ****         uint32_t s0 = ror(A, 2) ^ ror(A, 13) ^ ror(A, 22);
 352              		.loc 1 68 5 is_stmt 1
  68:C:/Users/stapi/OneDrive/Desktop/GD32VW553/V1_MQTT_OK/GD32VW55X_Wifi_BLE_SDK/GD32VW55x_RELEASE_V1.0.2/MSDK/cloud/alicloud/src/services/dev_bind\sha256.c ****         uint32_t s0 = ror(A, 2) ^ ror(A, 13) ^ ror(A, 22);
 353              		.loc 1 68 16
  62:C:/Users/stapi/OneDrive/Desktop/GD32VW553/V1_MQTT_OK/GD32VW55X_Wifi_BLE_SDK/GD32VW55x_RELEASE_V1.0.2/MSDK/cloud/alicloud/src/services/dev_bind\sha256.c ****     E = ctx->state[4];
 354              		.loc 1 62 7 is_stmt 0
 355 0150 268B     		mv	s6,s1
  65:C:/Users/stapi/OneDrive/Desktop/GD32VW553/V1_MQTT_OK/GD32VW55X_Wifi_BLE_SDK/GD32VW55x_RELEASE_V1.0.2/MSDK/cloud/alicloud/src/services/dev_bind\sha256.c ****     H = ctx->state[7];
 356              		.loc 1 65 7
 357 0152 7E8F     		mv	t5,t6
  66:C:/Users/stapi/OneDrive/Desktop/GD32VW553/V1_MQTT_OK/GD32VW55X_Wifi_BLE_SDK/GD32VW55x_RELEASE_V1.0.2/MSDK/cloud/alicloud/src/services/dev_bind\sha256.c **** 
 358              		.loc 1 66 7
 359 0154 F68B     		mv	s7,t4
  64:C:/Users/stapi/OneDrive/Desktop/GD32VW553/V1_MQTT_OK/GD32VW55X_Wifi_BLE_SDK/GD32VW55x_RELEASE_V1.0.2/MSDK/cloud/alicloud/src/services/dev_bind\sha256.c ****     G = ctx->state[6];
 360              		.loc 1 64 7
 361 0156 9E82     		mv	t0,t2
  63:C:/Users/stapi/OneDrive/Desktop/GD32VW553/V1_MQTT_OK/GD32VW55X_Wifi_BLE_SDK/GD32VW55x_RELEASE_V1.0.2/MSDK/cloud/alicloud/src/services/dev_bind\sha256.c ****     F = ctx->state[5];
 362              		.loc 1 63 7
 363 0158 A286     		mv	a3,s0
 364              	.LVL27:
  61:C:/Users/stapi/OneDrive/Desktop/GD32VW553/V1_MQTT_OK/GD32VW55X_Wifi_BLE_SDK/GD32VW55x_RELEASE_V1.0.2/MSDK/cloud/alicloud/src/services/dev_bind\sha256.c ****     D = ctx->state[3];
 365              		.loc 1 61 7
 366 015a 4A88     		mv	a6,s2
  60:C:/Users/stapi/OneDrive/Desktop/GD32VW553/V1_MQTT_OK/GD32VW55X_Wifi_BLE_SDK/GD32VW55x_RELEASE_V1.0.2/MSDK/cloud/alicloud/src/services/dev_bind\sha256.c ****     C = ctx->state[2];
 367              		.loc 1 60 7
 368 015c CE88     		mv	a7,s3
  59:C:/Users/stapi/OneDrive/Desktop/GD32VW553/V1_MQTT_OK/GD32VW55X_Wifi_BLE_SDK/GD32VW55x_RELEASE_V1.0.2/MSDK/cloud/alicloud/src/services/dev_bind\sha256.c ****     B = ctx->state[1];
 369              		.loc 1 59 7
 370 015e 5286     		mv	a2,s4
  66:C:/Users/stapi/OneDrive/Desktop/GD32VW553/V1_MQTT_OK/GD32VW55X_Wifi_BLE_SDK/GD32VW55x_RELEASE_V1.0.2/MSDK/cloud/alicloud/src/services/dev_bind\sha256.c **** 
 371              		.loc 1 66 7
 372 0160 0143     		li	t1,0
 373              	.LVL28:
 374              	.L7:
 375              	.LBB15:
  69:C:/Users/stapi/OneDrive/Desktop/GD32VW553/V1_MQTT_OK/GD32VW55X_Wifi_BLE_SDK/GD32VW55x_RELEASE_V1.0.2/MSDK/cloud/alicloud/src/services/dev_bind\sha256.c ****         uint32_t maj = (A & B) ^ (A & C) ^ (B & C);
 376              		.loc 1 69 9 is_stmt 1
  70:C:/Users/stapi/OneDrive/Desktop/GD32VW553/V1_MQTT_OK/GD32VW55X_Wifi_BLE_SDK/GD32VW55x_RELEASE_V1.0.2/MSDK/cloud/alicloud/src/services/dev_bind\sha256.c ****         uint32_t t2 = s0 + maj;
 377              		.loc 1 70 9
  71:C:/Users/stapi/OneDrive/Desktop/GD32VW553/V1_MQTT_OK/GD32VW55X_Wifi_BLE_SDK/GD32VW55x_RELEASE_V1.0.2/MSDK/cloud/alicloud/src/services/dev_bind\sha256.c ****         uint32_t s1 = ror(E, 6) ^ ror(E, 11) ^ ror(E, 25);
 378              		.loc 1 71 9
  69:C:/Users/stapi/OneDrive/Desktop/GD32VW553/V1_MQTT_OK/GD32VW55X_Wifi_BLE_SDK/GD32VW55x_RELEASE_V1.0.2/MSDK/cloud/alicloud/src/services/dev_bind\sha256.c ****         uint32_t maj = (A & B) ^ (A & C) ^ (B & C);
 379              		.loc 1 69 35 is_stmt 0
 380 0162 9357D660 		rori	a5,a2,13
  69:C:/Users/stapi/OneDrive/Desktop/GD32VW553/V1_MQTT_OK/GD32VW55X_Wifi_BLE_SDK/GD32VW55x_RELEASE_V1.0.2/MSDK/cloud/alicloud/src/services/dev_bind\sha256.c ****         uint32_t maj = (A & B) ^ (A & C) ^ (B & C);
 381              		.loc 1 69 23
 382 0166 13572660 		rori	a4,a2,2
  69:C:/Users/stapi/OneDrive/Desktop/GD32VW553/V1_MQTT_OK/GD32VW55X_Wifi_BLE_SDK/GD32VW55x_RELEASE_V1.0.2/MSDK/cloud/alicloud/src/services/dev_bind\sha256.c ****         uint32_t maj = (A & B) ^ (A & C) ^ (B & C);
 383              		.loc 1 69 33
 384 016a 3D8F     		xor	a4,a4,a5
  69:C:/Users/stapi/OneDrive/Desktop/GD32VW553/V1_MQTT_OK/GD32VW55X_Wifi_BLE_SDK/GD32VW55x_RELEASE_V1.0.2/MSDK/cloud/alicloud/src/services/dev_bind\sha256.c ****         uint32_t maj = (A & B) ^ (A & C) ^ (B & C);
 385              		.loc 1 69 48
 386 016c A947     		li	a5,10
 387 016e B317F660 		rol	a5,a2,a5
  69:C:/Users/stapi/OneDrive/Desktop/GD32VW553/V1_MQTT_OK/GD32VW55X_Wifi_BLE_SDK/GD32VW55x_RELEASE_V1.0.2/MSDK/cloud/alicloud/src/services/dev_bind\sha256.c ****         uint32_t maj = (A & B) ^ (A & C) ^ (B & C);
 388              		.loc 1 69 18
 389 0172 3D8F     		xor	a4,a4,a5
 390              	.LVL29:
  70:C:/Users/stapi/OneDrive/Desktop/GD32VW553/V1_MQTT_OK/GD32VW55X_Wifi_BLE_SDK/GD32VW55x_RELEASE_V1.0.2/MSDK/cloud/alicloud/src/services/dev_bind\sha256.c ****         uint32_t t2 = s0 + maj;
 391              		.loc 1 70 32
 392 0174 B3C70801 		xor	a5,a7,a6
  70:C:/Users/stapi/OneDrive/Desktop/GD32VW553/V1_MQTT_OK/GD32VW55X_Wifi_BLE_SDK/GD32VW55x_RELEASE_V1.0.2/MSDK/cloud/alicloud/src/services/dev_bind\sha256.c ****         uint32_t t2 = s0 + maj;
 393              		.loc 1 70 47
 394 0178 33FE0801 		and	t3,a7,a6
  70:C:/Users/stapi/OneDrive/Desktop/GD32VW553/V1_MQTT_OK/GD32VW55X_Wifi_BLE_SDK/GD32VW55x_RELEASE_V1.0.2/MSDK/cloud/alicloud/src/services/dev_bind\sha256.c ****         uint32_t t2 = s0 + maj;
 395              		.loc 1 70 32
 396 017c F18F     		and	a5,a5,a2
  70:C:/Users/stapi/OneDrive/Desktop/GD32VW553/V1_MQTT_OK/GD32VW55X_Wifi_BLE_SDK/GD32VW55x_RELEASE_V1.0.2/MSDK/cloud/alicloud/src/services/dev_bind\sha256.c ****         uint32_t t2 = s0 + maj;
 397              		.loc 1 70 18
 398 017e B3C7C701 		xor	a5,a5,t3
 399              	.LVL30:
  72:C:/Users/stapi/OneDrive/Desktop/GD32VW553/V1_MQTT_OK/GD32VW55X_Wifi_BLE_SDK/GD32VW55x_RELEASE_V1.0.2/MSDK/cloud/alicloud/src/services/dev_bind\sha256.c ****         uint32_t ch = (E & F) ^ ((~E) & G);
 400              		.loc 1 72 35
 401 0182 13DEB660 		rori	t3,a3,11
  71:C:/Users/stapi/OneDrive/Desktop/GD32VW553/V1_MQTT_OK/GD32VW55X_Wifi_BLE_SDK/GD32VW55x_RELEASE_V1.0.2/MSDK/cloud/alicloud/src/services/dev_bind\sha256.c ****         uint32_t s1 = ror(E, 6) ^ ror(E, 11) ^ ror(E, 25);
 402              		.loc 1 71 18
 403 0186 3E97     		add	a4,a4,a5
 404              	.LVL31:
  72:C:/Users/stapi/OneDrive/Desktop/GD32VW553/V1_MQTT_OK/GD32VW55X_Wifi_BLE_SDK/GD32VW55x_RELEASE_V1.0.2/MSDK/cloud/alicloud/src/services/dev_bind\sha256.c ****         uint32_t ch = (E & F) ^ ((~E) & G);
 405              		.loc 1 72 9 is_stmt 1
  73:C:/Users/stapi/OneDrive/Desktop/GD32VW553/V1_MQTT_OK/GD32VW55X_Wifi_BLE_SDK/GD32VW55x_RELEASE_V1.0.2/MSDK/cloud/alicloud/src/services/dev_bind\sha256.c ****         uint32_t t1 = H + s1 + ch + K[t] + W[t];
 406              		.loc 1 73 9
  74:C:/Users/stapi/OneDrive/Desktop/GD32VW553/V1_MQTT_OK/GD32VW55X_Wifi_BLE_SDK/GD32VW55x_RELEASE_V1.0.2/MSDK/cloud/alicloud/src/services/dev_bind\sha256.c ****         H = G;
 407              		.loc 1 74 9
  72:C:/Users/stapi/OneDrive/Desktop/GD32VW553/V1_MQTT_OK/GD32VW55X_Wifi_BLE_SDK/GD32VW55x_RELEASE_V1.0.2/MSDK/cloud/alicloud/src/services/dev_bind\sha256.c ****         uint32_t ch = (E & F) ^ ((~E) & G);
 408              		.loc 1 72 23 is_stmt 0
 409 0188 93D76660 		rori	a5,a3,6
 410              	.LVL32:
  72:C:/Users/stapi/OneDrive/Desktop/GD32VW553/V1_MQTT_OK/GD32VW55X_Wifi_BLE_SDK/GD32VW55x_RELEASE_V1.0.2/MSDK/cloud/alicloud/src/services/dev_bind\sha256.c ****         uint32_t ch = (E & F) ^ ((~E) & G);
 411              		.loc 1 72 33
 412 018c B3C7C701 		xor	a5,a5,t3
  72:C:/Users/stapi/OneDrive/Desktop/GD32VW553/V1_MQTT_OK/GD32VW55X_Wifi_BLE_SDK/GD32VW55x_RELEASE_V1.0.2/MSDK/cloud/alicloud/src/services/dev_bind\sha256.c ****         uint32_t ch = (E & F) ^ ((~E) & G);
 413              		.loc 1 72 48
 414 0190 339E8661 		rol	t3,a3,s8
  74:C:/Users/stapi/OneDrive/Desktop/GD32VW553/V1_MQTT_OK/GD32VW55X_Wifi_BLE_SDK/GD32VW55x_RELEASE_V1.0.2/MSDK/cloud/alicloud/src/services/dev_bind\sha256.c ****         H = G;
 415              		.loc 1 74 45
 416 0194 B30D6D00 		add	s11,s10,t1
  72:C:/Users/stapi/OneDrive/Desktop/GD32VW553/V1_MQTT_OK/GD32VW55X_Wifi_BLE_SDK/GD32VW55x_RELEASE_V1.0.2/MSDK/cloud/alicloud/src/services/dev_bind\sha256.c ****         uint32_t ch = (E & F) ^ ((~E) & G);
 417              		.loc 1 72 18
 418 0198 B3C7C701 		xor	a5,a5,t3
  74:C:/Users/stapi/OneDrive/Desktop/GD32VW553/V1_MQTT_OK/GD32VW55X_Wifi_BLE_SDK/GD32VW55x_RELEASE_V1.0.2/MSDK/cloud/alicloud/src/services/dev_bind\sha256.c ****         H = G;
 419              		.loc 1 74 38
 420 019c 338E6A00 		add	t3,s5,t1
  74:C:/Users/stapi/OneDrive/Desktop/GD32VW553/V1_MQTT_OK/GD32VW55X_Wifi_BLE_SDK/GD32VW55x_RELEASE_V1.0.2/MSDK/cloud/alicloud/src/services/dev_bind\sha256.c ****         H = G;
 421              		.loc 1 74 18
 422 01a0 83AD0D00 		lw	s11,0(s11)
 423 01a4 032E0E00 		lw	t3,0(t3)
 424              	.LBE15:
  68:C:/Users/stapi/OneDrive/Desktop/GD32VW553/V1_MQTT_OK/GD32VW55X_Wifi_BLE_SDK/GD32VW55x_RELEASE_V1.0.2/MSDK/cloud/alicloud/src/services/dev_bind\sha256.c ****         uint32_t s0 = ror(A, 2) ^ ror(A, 13) ^ ror(A, 22);
 425              		.loc 1 68 5
 426 01a8 1103     		addi	t1,t1,4
 427              	.LBB16:
  74:C:/Users/stapi/OneDrive/Desktop/GD32VW553/V1_MQTT_OK/GD32VW55X_Wifi_BLE_SDK/GD32VW55x_RELEASE_V1.0.2/MSDK/cloud/alicloud/src/services/dev_bind\sha256.c ****         H = G;
 428              		.loc 1 74 18
 429 01aa 6E9E     		add	t3,t3,s11
  73:C:/Users/stapi/OneDrive/Desktop/GD32VW553/V1_MQTT_OK/GD32VW55X_Wifi_BLE_SDK/GD32VW55x_RELEASE_V1.0.2/MSDK/cloud/alicloud/src/services/dev_bind\sha256.c ****         uint32_t t1 = H + s1 + ch + K[t] + W[t];
 430              		.loc 1 73 26
 431 01ac B3FD5600 		and	s11,a3,t0
  74:C:/Users/stapi/OneDrive/Desktop/GD32VW553/V1_MQTT_OK/GD32VW55X_Wifi_BLE_SDK/GD32VW55x_RELEASE_V1.0.2/MSDK/cloud/alicloud/src/services/dev_bind\sha256.c ****         H = G;
 432              		.loc 1 74 18
 433 01b0 F297     		add	a5,a5,t3
  73:C:/Users/stapi/OneDrive/Desktop/GD32VW553/V1_MQTT_OK/GD32VW55X_Wifi_BLE_SDK/GD32VW55x_RELEASE_V1.0.2/MSDK/cloud/alicloud/src/services/dev_bind\sha256.c ****         uint32_t t1 = H + s1 + ch + K[t] + W[t];
 434              		.loc 1 73 39
 435 01b2 337EDF40 		andn	t3,t5,a3
  73:C:/Users/stapi/OneDrive/Desktop/GD32VW553/V1_MQTT_OK/GD32VW55X_Wifi_BLE_SDK/GD32VW55x_RELEASE_V1.0.2/MSDK/cloud/alicloud/src/services/dev_bind\sha256.c ****         uint32_t t1 = H + s1 + ch + K[t] + W[t];
 436              		.loc 1 73 18
 437 01b6 334EBE01 		xor	t3,t3,s11
 438              	.LVL33:
  74:C:/Users/stapi/OneDrive/Desktop/GD32VW553/V1_MQTT_OK/GD32VW55X_Wifi_BLE_SDK/GD32VW55x_RELEASE_V1.0.2/MSDK/cloud/alicloud/src/services/dev_bind\sha256.c ****         H = G;
 439              		.loc 1 74 18
 440 01ba 3E9E     		add	t3,a5,t3
 441              	.LVL34:
 442 01bc F29B     		add	s7,t3,s7
 443              	.LVL35:
  75:C:/Users/stapi/OneDrive/Desktop/GD32VW553/V1_MQTT_OK/GD32VW55X_Wifi_BLE_SDK/GD32VW55x_RELEASE_V1.0.2/MSDK/cloud/alicloud/src/services/dev_bind\sha256.c ****         G = F;
 444              		.loc 1 75 9 is_stmt 1
  76:C:/Users/stapi/OneDrive/Desktop/GD32VW553/V1_MQTT_OK/GD32VW55X_Wifi_BLE_SDK/GD32VW55x_RELEASE_V1.0.2/MSDK/cloud/alicloud/src/services/dev_bind\sha256.c ****         F = E;
 445              		.loc 1 76 9
  77:C:/Users/stapi/OneDrive/Desktop/GD32VW553/V1_MQTT_OK/GD32VW55X_Wifi_BLE_SDK/GD32VW55x_RELEASE_V1.0.2/MSDK/cloud/alicloud/src/services/dev_bind\sha256.c ****         E = D + t1;
 446              		.loc 1 77 9
  78:C:/Users/stapi/OneDrive/Desktop/GD32VW553/V1_MQTT_OK/GD32VW55X_Wifi_BLE_SDK/GD32VW55x_RELEASE_V1.0.2/MSDK/cloud/alicloud/src/services/dev_bind\sha256.c ****         D = C;
 447              		.loc 1 78 9
  78:C:/Users/stapi/OneDrive/Desktop/GD32VW553/V1_MQTT_OK/GD32VW55X_Wifi_BLE_SDK/GD32VW55x_RELEASE_V1.0.2/MSDK/cloud/alicloud/src/services/dev_bind\sha256.c ****         D = C;
 448              		.loc 1 78 11 is_stmt 0
 449 01be B3876B01 		add	a5,s7,s6
 450              	.LVL36:
  79:C:/Users/stapi/OneDrive/Desktop/GD32VW553/V1_MQTT_OK/GD32VW55X_Wifi_BLE_SDK/GD32VW55x_RELEASE_V1.0.2/MSDK/cloud/alicloud/src/services/dev_bind\sha256.c ****         C = B;
 451              		.loc 1 79 9 is_stmt 1
  80:C:/Users/stapi/OneDrive/Desktop/GD32VW553/V1_MQTT_OK/GD32VW55X_Wifi_BLE_SDK/GD32VW55x_RELEASE_V1.0.2/MSDK/cloud/alicloud/src/services/dev_bind\sha256.c ****         B = A;
 452              		.loc 1 80 9
  81:C:/Users/stapi/OneDrive/Desktop/GD32VW553/V1_MQTT_OK/GD32VW55X_Wifi_BLE_SDK/GD32VW55x_RELEASE_V1.0.2/MSDK/cloud/alicloud/src/services/dev_bind\sha256.c ****         A = t1 + t2;
 453              		.loc 1 81 9
  82:C:/Users/stapi/OneDrive/Desktop/GD32VW553/V1_MQTT_OK/GD32VW55X_Wifi_BLE_SDK/GD32VW55x_RELEASE_V1.0.2/MSDK/cloud/alicloud/src/services/dev_bind\sha256.c ****     }
 454              		.loc 1 82 9
  82:C:/Users/stapi/OneDrive/Desktop/GD32VW553/V1_MQTT_OK/GD32VW55X_Wifi_BLE_SDK/GD32VW55x_RELEASE_V1.0.2/MSDK/cloud/alicloud/src/services/dev_bind\sha256.c ****     }
 455              		.loc 1 82 11 is_stmt 0
 456 01c2 5E97     		add	a4,a4,s7
 457              	.LVL37:
 458              	.LBE16:
  68:C:/Users/stapi/OneDrive/Desktop/GD32VW553/V1_MQTT_OK/GD32VW55X_Wifi_BLE_SDK/GD32VW55x_RELEASE_V1.0.2/MSDK/cloud/alicloud/src/services/dev_bind\sha256.c ****         uint32_t s0 = ror(A, 2) ^ ror(A, 13) ^ ror(A, 22);
 459              		.loc 1 68 24 is_stmt 1
  68:C:/Users/stapi/OneDrive/Desktop/GD32VW553/V1_MQTT_OK/GD32VW55X_Wifi_BLE_SDK/GD32VW55x_RELEASE_V1.0.2/MSDK/cloud/alicloud/src/services/dev_bind\sha256.c ****         uint32_t s0 = ror(A, 2) ^ ror(A, 13) ^ ror(A, 22);
 460              		.loc 1 68 16
 461 01c4 428B     		mv	s6,a6
 462 01c6 FA8B     		mv	s7,t5
 463              	.LVL38:
  68:C:/Users/stapi/OneDrive/Desktop/GD32VW553/V1_MQTT_OK/GD32VW55X_Wifi_BLE_SDK/GD32VW55x_RELEASE_V1.0.2/MSDK/cloud/alicloud/src/services/dev_bind\sha256.c ****         uint32_t s0 = ror(A, 2) ^ ror(A, 13) ^ ror(A, 22);
 464              		.loc 1 68 5 is_stmt 0
 465 01c8 63199303 		bne	t1,s9,.L9
 466              	.LVL39:
  85:C:/Users/stapi/OneDrive/Desktop/GD32VW553/V1_MQTT_OK/GD32VW55X_Wifi_BLE_SDK/GD32VW55x_RELEASE_V1.0.2/MSDK/cloud/alicloud/src/services/dev_bind\sha256.c ****     ctx->state[1] += B;
 467              		.loc 1 85 5 is_stmt 1
  85:C:/Users/stapi/OneDrive/Desktop/GD32VW553/V1_MQTT_OK/GD32VW55X_Wifi_BLE_SDK/GD32VW55x_RELEASE_V1.0.2/MSDK/cloud/alicloud/src/services/dev_bind\sha256.c ****     ctx->state[1] += B;
 468              		.loc 1 85 19 is_stmt 0
 469 01cc 5297     		add	a4,s4,a4
 470              	.LVL40:
  86:C:/Users/stapi/OneDrive/Desktop/GD32VW553/V1_MQTT_OK/GD32VW55X_Wifi_BLE_SDK/GD32VW55x_RELEASE_V1.0.2/MSDK/cloud/alicloud/src/services/dev_bind\sha256.c ****     ctx->state[2] += C;
 471              		.loc 1 86 19
 472 01ce 4E96     		add	a2,s3,a2
 473              	.LVL41:
  87:C:/Users/stapi/OneDrive/Desktop/GD32VW553/V1_MQTT_OK/GD32VW55X_Wifi_BLE_SDK/GD32VW55x_RELEASE_V1.0.2/MSDK/cloud/alicloud/src/services/dev_bind\sha256.c ****     ctx->state[3] += D;
 474              		.loc 1 87 19
 475 01d0 CA98     		add	a7,s2,a7
 476              	.LVL42:
  88:C:/Users/stapi/OneDrive/Desktop/GD32VW553/V1_MQTT_OK/GD32VW55X_Wifi_BLE_SDK/GD32VW55x_RELEASE_V1.0.2/MSDK/cloud/alicloud/src/services/dev_bind\sha256.c ****     ctx->state[4] += E;
 477              		.loc 1 88 19
 478 01d2 2698     		add	a6,s1,a6
 479              	.LVL43:
  89:C:/Users/stapi/OneDrive/Desktop/GD32VW553/V1_MQTT_OK/GD32VW55X_Wifi_BLE_SDK/GD32VW55x_RELEASE_V1.0.2/MSDK/cloud/alicloud/src/services/dev_bind\sha256.c ****     ctx->state[5] += F;
 480              		.loc 1 89 19
 481 01d4 A297     		add	a5,s0,a5
 482              	.LVL44:
  90:C:/Users/stapi/OneDrive/Desktop/GD32VW553/V1_MQTT_OK/GD32VW55X_Wifi_BLE_SDK/GD32VW55x_RELEASE_V1.0.2/MSDK/cloud/alicloud/src/services/dev_bind\sha256.c ****     ctx->state[6] += G;
 483              		.loc 1 90 19
 484 01d6 9E96     		add	a3,t2,a3
 485              	.LVL45:
  91:C:/Users/stapi/OneDrive/Desktop/GD32VW553/V1_MQTT_OK/GD32VW55X_Wifi_BLE_SDK/GD32VW55x_RELEASE_V1.0.2/MSDK/cloud/alicloud/src/services/dev_bind\sha256.c ****     ctx->state[7] += H;
 486              		.loc 1 91 19
 487 01d8 969F     		add	t6,t6,t0
  92:C:/Users/stapi/OneDrive/Desktop/GD32VW553/V1_MQTT_OK/GD32VW55X_Wifi_BLE_SDK/GD32VW55x_RELEASE_V1.0.2/MSDK/cloud/alicloud/src/services/dev_bind\sha256.c **** }
 488              		.loc 1 92 19
 489 01da FA9E     		add	t4,t4,t5
  85:C:/Users/stapi/OneDrive/Desktop/GD32VW553/V1_MQTT_OK/GD32VW55X_Wifi_BLE_SDK/GD32VW55x_RELEASE_V1.0.2/MSDK/cloud/alicloud/src/services/dev_bind\sha256.c ****     ctx->state[1] += B;
 490              		.loc 1 85 19
 491 01dc 38C5     		sw	a4,72(a0)
  86:C:/Users/stapi/OneDrive/Desktop/GD32VW553/V1_MQTT_OK/GD32VW55X_Wifi_BLE_SDK/GD32VW55x_RELEASE_V1.0.2/MSDK/cloud/alicloud/src/services/dev_bind\sha256.c ****     ctx->state[2] += C;
 492              		.loc 1 86 5 is_stmt 1
  86:C:/Users/stapi/OneDrive/Desktop/GD32VW553/V1_MQTT_OK/GD32VW55X_Wifi_BLE_SDK/GD32VW55x_RELEASE_V1.0.2/MSDK/cloud/alicloud/src/services/dev_bind\sha256.c ****     ctx->state[2] += C;
 493              		.loc 1 86 19 is_stmt 0
 494 01de 70C5     		sw	a2,76(a0)
  87:C:/Users/stapi/OneDrive/Desktop/GD32VW553/V1_MQTT_OK/GD32VW55X_Wifi_BLE_SDK/GD32VW55x_RELEASE_V1.0.2/MSDK/cloud/alicloud/src/services/dev_bind\sha256.c ****     ctx->state[3] += D;
 495              		.loc 1 87 5 is_stmt 1
  87:C:/Users/stapi/OneDrive/Desktop/GD32VW553/V1_MQTT_OK/GD32VW55X_Wifi_BLE_SDK/GD32VW55x_RELEASE_V1.0.2/MSDK/cloud/alicloud/src/services/dev_bind\sha256.c ****     ctx->state[3] += D;
 496              		.loc 1 87 19 is_stmt 0
 497 01e0 23281505 		sw	a7,80(a0)
  88:C:/Users/stapi/OneDrive/Desktop/GD32VW553/V1_MQTT_OK/GD32VW55X_Wifi_BLE_SDK/GD32VW55x_RELEASE_V1.0.2/MSDK/cloud/alicloud/src/services/dev_bind\sha256.c ****     ctx->state[4] += E;
 498              		.loc 1 88 5 is_stmt 1
  88:C:/Users/stapi/OneDrive/Desktop/GD32VW553/V1_MQTT_OK/GD32VW55X_Wifi_BLE_SDK/GD32VW55x_RELEASE_V1.0.2/MSDK/cloud/alicloud/src/services/dev_bind\sha256.c ****     ctx->state[4] += E;
 499              		.loc 1 88 19 is_stmt 0
 500 01e4 232A0505 		sw	a6,84(a0)
  89:C:/Users/stapi/OneDrive/Desktop/GD32VW553/V1_MQTT_OK/GD32VW55X_Wifi_BLE_SDK/GD32VW55x_RELEASE_V1.0.2/MSDK/cloud/alicloud/src/services/dev_bind\sha256.c ****     ctx->state[5] += F;
 501              		.loc 1 89 5 is_stmt 1
  89:C:/Users/stapi/OneDrive/Desktop/GD32VW553/V1_MQTT_OK/GD32VW55X_Wifi_BLE_SDK/GD32VW55x_RELEASE_V1.0.2/MSDK/cloud/alicloud/src/services/dev_bind\sha256.c ****     ctx->state[5] += F;
 502              		.loc 1 89 19 is_stmt 0
 503 01e8 3CCD     		sw	a5,88(a0)
  90:C:/Users/stapi/OneDrive/Desktop/GD32VW553/V1_MQTT_OK/GD32VW55X_Wifi_BLE_SDK/GD32VW55x_RELEASE_V1.0.2/MSDK/cloud/alicloud/src/services/dev_bind\sha256.c ****     ctx->state[6] += G;
 504              		.loc 1 90 5 is_stmt 1
  90:C:/Users/stapi/OneDrive/Desktop/GD32VW553/V1_MQTT_OK/GD32VW55X_Wifi_BLE_SDK/GD32VW55x_RELEASE_V1.0.2/MSDK/cloud/alicloud/src/services/dev_bind\sha256.c ****     ctx->state[6] += G;
 505              		.loc 1 90 19 is_stmt 0
 506 01ea 74CD     		sw	a3,92(a0)
  91:C:/Users/stapi/OneDrive/Desktop/GD32VW553/V1_MQTT_OK/GD32VW55X_Wifi_BLE_SDK/GD32VW55x_RELEASE_V1.0.2/MSDK/cloud/alicloud/src/services/dev_bind\sha256.c ****     ctx->state[7] += H;
 507              		.loc 1 91 5 is_stmt 1
  91:C:/Users/stapi/OneDrive/Desktop/GD32VW553/V1_MQTT_OK/GD32VW55X_Wifi_BLE_SDK/GD32VW55x_RELEASE_V1.0.2/MSDK/cloud/alicloud/src/services/dev_bind\sha256.c ****     ctx->state[7] += H;
 508              		.loc 1 91 19 is_stmt 0
 509 01ec 2320F507 		sw	t6,96(a0)
  92:C:/Users/stapi/OneDrive/Desktop/GD32VW553/V1_MQTT_OK/GD32VW55X_Wifi_BLE_SDK/GD32VW55x_RELEASE_V1.0.2/MSDK/cloud/alicloud/src/services/dev_bind\sha256.c **** }
 510              		.loc 1 92 5 is_stmt 1
  92:C:/Users/stapi/OneDrive/Desktop/GD32VW553/V1_MQTT_OK/GD32VW55X_Wifi_BLE_SDK/GD32VW55x_RELEASE_V1.0.2/MSDK/cloud/alicloud/src/services/dev_bind\sha256.c **** }
 511              		.loc 1 92 19 is_stmt 0
 512 01f0 2322D507 		sw	t4,100(a0)
 513              	.LBE19:
 514              	.LBE22:
 128:C:/Users/stapi/OneDrive/Desktop/GD32VW553/V1_MQTT_OK/GD32VW55X_Wifi_BLE_SDK/GD32VW55x_RELEASE_V1.0.2/MSDK/cloud/alicloud/src/services/dev_bind\sha256.c ****         }
 515              		.loc 1 128 15
 516 01f4 0147     		li	a4,0
 517              	.LVL46:
 518              	.L4:
 519 01f6 BA87     		mv	a5,a4
 520 01f8 85BD     		j	.L3
 521              	.LVL47:
 522              	.L9:
 523              	.LBB23:
 524              	.LBB20:
 525 01fa 168F     		mv	t5,t0
 526 01fc 4688     		mv	a6,a7
 527              	.LVL48:
 528 01fe B682     		mv	t0,a3
 529              	.LVL49:
 530 0200 B288     		mv	a7,a2
 531              	.LVL50:
 532              	.LBB17:
  78:C:/Users/stapi/OneDrive/Desktop/GD32VW553/V1_MQTT_OK/GD32VW55X_Wifi_BLE_SDK/GD32VW55x_RELEASE_V1.0.2/MSDK/cloud/alicloud/src/services/dev_bind\sha256.c ****         D = C;
 533              		.loc 1 78 11
 534 0202 BE86     		mv	a3,a5
 535              	.LVL51:
  82:C:/Users/stapi/OneDrive/Desktop/GD32VW553/V1_MQTT_OK/GD32VW55X_Wifi_BLE_SDK/GD32VW55x_RELEASE_V1.0.2/MSDK/cloud/alicloud/src/services/dev_bind\sha256.c ****     }
 536              		.loc 1 82 11
 537 0204 3A86     		mv	a2,a4
 538              	.LVL52:
 539 0206 B1BF     		j	.L7
 540              	.LBE17:
 541              	.LBE20:
 542              	.LBE23:
 543              		.cfi_endproc
 544              	.LFE50:
 546              		.section	.rodata.SHA256_final.str1.4,"aMS",@progbits,1
 547              		.align	2
 548              	.LC0:
 549 0000 8000     		.string	"\200"
 550              		.globl	__lshrdi3
 551              		.section	.text.SHA256_final,"ax",@progbits
 552              		.align	1
 553              		.globl	SHA256_final
 555              	SHA256_final:
 556              	.LFB51:
 132:C:/Users/stapi/OneDrive/Desktop/GD32VW553/V1_MQTT_OK/GD32VW55X_Wifi_BLE_SDK/GD32VW55x_RELEASE_V1.0.2/MSDK/cloud/alicloud/src/services/dev_bind\sha256.c **** 
 133:C:/Users/stapi/OneDrive/Desktop/GD32VW553/V1_MQTT_OK/GD32VW55X_Wifi_BLE_SDK/GD32VW55x_RELEASE_V1.0.2/MSDK/cloud/alicloud/src/services/dev_bind\sha256.c **** const uint8_t* SHA256_final(SHA256_CTX* ctx)
 134:C:/Users/stapi/OneDrive/Desktop/GD32VW553/V1_MQTT_OK/GD32VW55X_Wifi_BLE_SDK/GD32VW55x_RELEASE_V1.0.2/MSDK/cloud/alicloud/src/services/dev_bind\sha256.c **** {
 557              		.loc 1 134 1 is_stmt 1
 558              		.cfi_startproc
 559              	.LVL53:
 560 0000 17030000 		call	t0,__riscv_save_6
 560      E7020300 
 561              		.cfi_offset 21, -28
 562              		.cfi_offset 20, -24
 563              		.cfi_offset 19, -20
 564              		.cfi_offset 18, -16
 565              		.cfi_offset 9, -12
 566              		.cfi_offset 8, -8
 567              		.cfi_offset 1, -4
 568              		.cfi_def_cfa_offset 32
 135:C:/Users/stapi/OneDrive/Desktop/GD32VW553/V1_MQTT_OK/GD32VW55X_Wifi_BLE_SDK/GD32VW55x_RELEASE_V1.0.2/MSDK/cloud/alicloud/src/services/dev_bind\sha256.c ****     uint8_t *p = ctx->buf;
 569              		.loc 1 135 5
 136:C:/Users/stapi/OneDrive/Desktop/GD32VW553/V1_MQTT_OK/GD32VW55X_Wifi_BLE_SDK/GD32VW55x_RELEASE_V1.0.2/MSDK/cloud/alicloud/src/services/dev_bind\sha256.c ****     uint64_t cnt = ctx->count * 8;
 570              		.loc 1 136 14 is_stmt 0
 571 0008 1C41     		lw	a5,0(a0)
 572 000a 4441     		lw	s1,4(a0)
 137:C:/Users/stapi/OneDrive/Desktop/GD32VW553/V1_MQTT_OK/GD32VW55X_Wifi_BLE_SDK/GD32VW55x_RELEASE_V1.0.2/MSDK/cloud/alicloud/src/services/dev_bind\sha256.c ****     int i;
 138:C:/Users/stapi/OneDrive/Desktop/GD32VW553/V1_MQTT_OK/GD32VW55X_Wifi_BLE_SDK/GD32VW55x_RELEASE_V1.0.2/MSDK/cloud/alicloud/src/services/dev_bind\sha256.c ****     SHA256_update(ctx, (uint8_t*)"\x80", 1);
 573              		.loc 1 138 5
 574 000c B7050000 		lui	a1,%hi(.LC0)
 136:C:/Users/stapi/OneDrive/Desktop/GD32VW553/V1_MQTT_OK/GD32VW55X_Wifi_BLE_SDK/GD32VW55x_RELEASE_V1.0.2/MSDK/cloud/alicloud/src/services/dev_bind\sha256.c ****     uint64_t cnt = ctx->count * 8;
 575              		.loc 1 136 14
 576 0010 13D7D701 		srli	a4,a5,29
 134:C:/Users/stapi/OneDrive/Desktop/GD32VW553/V1_MQTT_OK/GD32VW55X_Wifi_BLE_SDK/GD32VW55x_RELEASE_V1.0.2/MSDK/cloud/alicloud/src/services/dev_bind\sha256.c ****     uint8_t *p = ctx->buf;
 577              		.loc 1 134 1
 578 0014 4111     		addi	sp,sp,-16
 579              		.cfi_def_cfa_offset 48
 136:C:/Users/stapi/OneDrive/Desktop/GD32VW553/V1_MQTT_OK/GD32VW55X_Wifi_BLE_SDK/GD32VW55x_RELEASE_V1.0.2/MSDK/cloud/alicloud/src/services/dev_bind\sha256.c ****     uint64_t cnt = ctx->count * 8;
 580              		.loc 1 136 14
 581 0016 8E04     		slli	s1,s1,3
 582              		.loc 1 138 5
 583 0018 0546     		li	a2,1
 584 001a 93850500 		addi	a1,a1,%lo(.LC0)
 134:C:/Users/stapi/OneDrive/Desktop/GD32VW553/V1_MQTT_OK/GD32VW55X_Wifi_BLE_SDK/GD32VW55x_RELEASE_V1.0.2/MSDK/cloud/alicloud/src/services/dev_bind\sha256.c ****     uint8_t *p = ctx->buf;
 585              		.loc 1 134 1
 586 001e 2A84     		mv	s0,a0
 135:C:/Users/stapi/OneDrive/Desktop/GD32VW553/V1_MQTT_OK/GD32VW55X_Wifi_BLE_SDK/GD32VW55x_RELEASE_V1.0.2/MSDK/cloud/alicloud/src/services/dev_bind\sha256.c ****     uint64_t cnt = ctx->count * 8;
 587              		.loc 1 135 14
 588 0020 130A8500 		addi	s4,a0,8
 589              	.LVL54:
 136:C:/Users/stapi/OneDrive/Desktop/GD32VW553/V1_MQTT_OK/GD32VW55X_Wifi_BLE_SDK/GD32VW55x_RELEASE_V1.0.2/MSDK/cloud/alicloud/src/services/dev_bind\sha256.c ****     int i;
 590              		.loc 1 136 5 is_stmt 1
 136:C:/Users/stapi/OneDrive/Desktop/GD32VW553/V1_MQTT_OK/GD32VW55X_Wifi_BLE_SDK/GD32VW55x_RELEASE_V1.0.2/MSDK/cloud/alicloud/src/services/dev_bind\sha256.c ****     int i;
 591              		.loc 1 136 14 is_stmt 0
 592 0024 D98C     		or	s1,a4,s1
 593 0026 93993700 		slli	s3,a5,3
 594              	.LVL55:
 137:C:/Users/stapi/OneDrive/Desktop/GD32VW553/V1_MQTT_OK/GD32VW55X_Wifi_BLE_SDK/GD32VW55x_RELEASE_V1.0.2/MSDK/cloud/alicloud/src/services/dev_bind\sha256.c ****     SHA256_update(ctx, (uint8_t*)"\x80", 1);
 595              		.loc 1 137 5 is_stmt 1
 596              		.loc 1 138 5
 139:C:/Users/stapi/OneDrive/Desktop/GD32VW553/V1_MQTT_OK/GD32VW55X_Wifi_BLE_SDK/GD32VW55x_RELEASE_V1.0.2/MSDK/cloud/alicloud/src/services/dev_bind\sha256.c ****     while ((ctx->count & 63) != 56) {
 597              		.loc 1 139 11 is_stmt 0
 598 002a 13098003 		li	s2,56
 138:C:/Users/stapi/OneDrive/Desktop/GD32VW553/V1_MQTT_OK/GD32VW55X_Wifi_BLE_SDK/GD32VW55x_RELEASE_V1.0.2/MSDK/cloud/alicloud/src/services/dev_bind\sha256.c ****     while ((ctx->count & 63) != 56) {
 599              		.loc 1 138 5
 600 002e 97000000 		call	SHA256_update
 600      E7800000 
 601              	.LVL56:
 602              		.loc 1 139 5 is_stmt 1
 140:C:/Users/stapi/OneDrive/Desktop/GD32VW553/V1_MQTT_OK/GD32VW55X_Wifi_BLE_SDK/GD32VW55x_RELEASE_V1.0.2/MSDK/cloud/alicloud/src/services/dev_bind\sha256.c ****         SHA256_update(ctx, (uint8_t*)"\0", 1);
 603              		.loc 1 140 9 is_stmt 0
 604 0036 B70A0000 		lui	s5,%hi(.LC1)
 605              	.L14:
 139:C:/Users/stapi/OneDrive/Desktop/GD32VW553/V1_MQTT_OK/GD32VW55X_Wifi_BLE_SDK/GD32VW55x_RELEASE_V1.0.2/MSDK/cloud/alicloud/src/services/dev_bind\sha256.c ****     while ((ctx->count & 63) != 56) {
 606              		.loc 1 139 11 is_stmt 1
 139:C:/Users/stapi/OneDrive/Desktop/GD32VW553/V1_MQTT_OK/GD32VW55X_Wifi_BLE_SDK/GD32VW55x_RELEASE_V1.0.2/MSDK/cloud/alicloud/src/services/dev_bind\sha256.c ****     while ((ctx->count & 63) != 56) {
 607              		.loc 1 139 24 is_stmt 0
 608 003a 1C40     		lw	a5,0(s0)
 609 003c 93F7F703 		andi	a5,a5,63
 139:C:/Users/stapi/OneDrive/Desktop/GD32VW553/V1_MQTT_OK/GD32VW55X_Wifi_BLE_SDK/GD32VW55x_RELEASE_V1.0.2/MSDK/cloud/alicloud/src/services/dev_bind\sha256.c ****     while ((ctx->count & 63) != 56) {
 610              		.loc 1 139 11
 611 0040 63942707 		bne	a5,s2,.L15
 612 0044 13098003 		li	s2,56
 141:C:/Users/stapi/OneDrive/Desktop/GD32VW553/V1_MQTT_OK/GD32VW55X_Wifi_BLE_SDK/GD32VW55x_RELEASE_V1.0.2/MSDK/cloud/alicloud/src/services/dev_bind\sha256.c ****     }
 142:C:/Users/stapi/OneDrive/Desktop/GD32VW553/V1_MQTT_OK/GD32VW55X_Wifi_BLE_SDK/GD32VW55x_RELEASE_V1.0.2/MSDK/cloud/alicloud/src/services/dev_bind\sha256.c ****     for (i = 0; i < 8; ++i) {
 613              		.loc 1 142 5
 614 0048 E15A     		li	s5,-8
 615              	.L16:
 616              	.LBB24:
 143:C:/Users/stapi/OneDrive/Desktop/GD32VW553/V1_MQTT_OK/GD32VW55X_Wifi_BLE_SDK/GD32VW55x_RELEASE_V1.0.2/MSDK/cloud/alicloud/src/services/dev_bind\sha256.c ****         uint8_t tmp = (uint8_t) (cnt >> ((7 - i) * 8));
 617              		.loc 1 143 9 is_stmt 1 discriminator 3
 618              		.loc 1 143 38 is_stmt 0 discriminator 3
 619 004a 4A86     		mv	a2,s2
 620 004c 4E85     		mv	a0,s3
 621 004e A685     		mv	a1,s1
 622 0050 97000000 		call	__lshrdi3
 622      E7800000 
 623              	.LVL57:
 624              		.loc 1 143 23 discriminator 3
 625 0058 A307A100 		sb	a0,15(sp)
 144:C:/Users/stapi/OneDrive/Desktop/GD32VW553/V1_MQTT_OK/GD32VW55X_Wifi_BLE_SDK/GD32VW55x_RELEASE_V1.0.2/MSDK/cloud/alicloud/src/services/dev_bind\sha256.c ****         SHA256_update(ctx, &tmp, 1);
 626              		.loc 1 144 9 is_stmt 1 discriminator 3
 627 005c 0546     		li	a2,1
 628 005e 9305F100 		addi	a1,sp,15
 629 0062 2285     		mv	a0,s0
 630              	.LBE24:
 142:C:/Users/stapi/OneDrive/Desktop/GD32VW553/V1_MQTT_OK/GD32VW55X_Wifi_BLE_SDK/GD32VW55x_RELEASE_V1.0.2/MSDK/cloud/alicloud/src/services/dev_bind\sha256.c ****         uint8_t tmp = (uint8_t) (cnt >> ((7 - i) * 8));
 631              		.loc 1 142 5 is_stmt 0 discriminator 3
 632 0064 6119     		addi	s2,s2,-8
 633              	.LBB25:
 634              		.loc 1 144 9 discriminator 3
 635 0066 97000000 		call	SHA256_update
 635      E7800000 
 636              	.LVL58:
 637              	.LBE25:
 142:C:/Users/stapi/OneDrive/Desktop/GD32VW553/V1_MQTT_OK/GD32VW55X_Wifi_BLE_SDK/GD32VW55x_RELEASE_V1.0.2/MSDK/cloud/alicloud/src/services/dev_bind\sha256.c ****         uint8_t tmp = (uint8_t) (cnt >> ((7 - i) * 8));
 638              		.loc 1 142 24 is_stmt 1 discriminator 3
 142:C:/Users/stapi/OneDrive/Desktop/GD32VW553/V1_MQTT_OK/GD32VW55X_Wifi_BLE_SDK/GD32VW55x_RELEASE_V1.0.2/MSDK/cloud/alicloud/src/services/dev_bind\sha256.c ****         uint8_t tmp = (uint8_t) (cnt >> ((7 - i) * 8));
 639              		.loc 1 142 17 discriminator 3
 142:C:/Users/stapi/OneDrive/Desktop/GD32VW553/V1_MQTT_OK/GD32VW55X_Wifi_BLE_SDK/GD32VW55x_RELEASE_V1.0.2/MSDK/cloud/alicloud/src/services/dev_bind\sha256.c ****         uint8_t tmp = (uint8_t) (cnt >> ((7 - i) * 8));
 640              		.loc 1 142 5 is_stmt 0 discriminator 3
 641 006e E31E59FD 		bne	s2,s5,.L16
 642 0072 13048402 		addi	s0,s0,40
 643              	.LVL59:
 135:C:/Users/stapi/OneDrive/Desktop/GD32VW553/V1_MQTT_OK/GD32VW55X_Wifi_BLE_SDK/GD32VW55x_RELEASE_V1.0.2/MSDK/cloud/alicloud/src/services/dev_bind\sha256.c ****     uint64_t cnt = ctx->count * 8;
 644              		.loc 1 135 14
 645 0076 D287     		mv	a5,s4
 646              	.LVL60:
 647              	.L17:
 648              	.LBB26:
 145:C:/Users/stapi/OneDrive/Desktop/GD32VW553/V1_MQTT_OK/GD32VW55X_Wifi_BLE_SDK/GD32VW55x_RELEASE_V1.0.2/MSDK/cloud/alicloud/src/services/dev_bind\sha256.c ****     }
 146:C:/Users/stapi/OneDrive/Desktop/GD32VW553/V1_MQTT_OK/GD32VW55X_Wifi_BLE_SDK/GD32VW55x_RELEASE_V1.0.2/MSDK/cloud/alicloud/src/services/dev_bind\sha256.c ****     for (i = 0; i < 8; i++) {
 147:C:/Users/stapi/OneDrive/Desktop/GD32VW553/V1_MQTT_OK/GD32VW55X_Wifi_BLE_SDK/GD32VW55x_RELEASE_V1.0.2/MSDK/cloud/alicloud/src/services/dev_bind\sha256.c ****         uint32_t tmp = ctx->state[i];
 649              		.loc 1 147 9 is_stmt 1 discriminator 3
 650              		.loc 1 147 18 is_stmt 0 discriminator 3
 651 0078 B843     		lw	a4,64(a5)
 652              	.LVL61:
 148:C:/Users/stapi/OneDrive/Desktop/GD32VW553/V1_MQTT_OK/GD32VW55X_Wifi_BLE_SDK/GD32VW55x_RELEASE_V1.0.2/MSDK/cloud/alicloud/src/services/dev_bind\sha256.c ****         *p++ = tmp >> 24;
 653              		.loc 1 148 9 is_stmt 1 discriminator 3
 654 007a 9107     		addi	a5,a5,4
 655              	.LVL62:
 656              		.loc 1 148 20 is_stmt 0 discriminator 3
 657 007c 93568701 		srli	a3,a4,24
 658              		.loc 1 148 14 discriminator 3
 659 0080 238ED7FE 		sb	a3,-4(a5)
 149:C:/Users/stapi/OneDrive/Desktop/GD32VW553/V1_MQTT_OK/GD32VW55X_Wifi_BLE_SDK/GD32VW55x_RELEASE_V1.0.2/MSDK/cloud/alicloud/src/services/dev_bind\sha256.c ****         *p++ = tmp >> 16;
 660              		.loc 1 149 9 is_stmt 1 discriminator 3
 661              	.LVL63:
 662              		.loc 1 149 20 is_stmt 0 discriminator 3
 663 0084 93560701 		srli	a3,a4,16
 664              		.loc 1 149 14 discriminator 3
 665 0088 A38ED7FE 		sb	a3,-3(a5)
 150:C:/Users/stapi/OneDrive/Desktop/GD32VW553/V1_MQTT_OK/GD32VW55X_Wifi_BLE_SDK/GD32VW55x_RELEASE_V1.0.2/MSDK/cloud/alicloud/src/services/dev_bind\sha256.c ****         *p++ = tmp >> 8;
 666              		.loc 1 150 9 is_stmt 1 discriminator 3
 667              		.loc 1 150 20 is_stmt 0 discriminator 3
 668 008c 93568700 		srli	a3,a4,8
 669              		.loc 1 150 14 discriminator 3
 670 0090 238FD7FE 		sb	a3,-2(a5)
 151:C:/Users/stapi/OneDrive/Desktop/GD32VW553/V1_MQTT_OK/GD32VW55X_Wifi_BLE_SDK/GD32VW55x_RELEASE_V1.0.2/MSDK/cloud/alicloud/src/services/dev_bind\sha256.c ****         *p++ = tmp >> 0;
 671              		.loc 1 151 9 is_stmt 1 discriminator 3
 672              	.LVL64:
 673              		.loc 1 151 14 is_stmt 0 discriminator 3
 674 0094 A38FE7FE 		sb	a4,-1(a5)
 675              	.LBE26:
 146:C:/Users/stapi/OneDrive/Desktop/GD32VW553/V1_MQTT_OK/GD32VW55X_Wifi_BLE_SDK/GD32VW55x_RELEASE_V1.0.2/MSDK/cloud/alicloud/src/services/dev_bind\sha256.c ****         uint32_t tmp = ctx->state[i];
 676              		.loc 1 146 24 is_stmt 1 discriminator 3
 146:C:/Users/stapi/OneDrive/Desktop/GD32VW553/V1_MQTT_OK/GD32VW55X_Wifi_BLE_SDK/GD32VW55x_RELEASE_V1.0.2/MSDK/cloud/alicloud/src/services/dev_bind\sha256.c ****         uint32_t tmp = ctx->state[i];
 677              		.loc 1 146 17 discriminator 3
 146:C:/Users/stapi/OneDrive/Desktop/GD32VW553/V1_MQTT_OK/GD32VW55X_Wifi_BLE_SDK/GD32VW55x_RELEASE_V1.0.2/MSDK/cloud/alicloud/src/services/dev_bind\sha256.c ****         uint32_t tmp = ctx->state[i];
 678              		.loc 1 146 5 is_stmt 0 discriminator 3
 679 0098 E39087FE 		bne	a5,s0,.L17
 152:C:/Users/stapi/OneDrive/Desktop/GD32VW553/V1_MQTT_OK/GD32VW55X_Wifi_BLE_SDK/GD32VW55x_RELEASE_V1.0.2/MSDK/cloud/alicloud/src/services/dev_bind\sha256.c ****     }
 153:C:/Users/stapi/OneDrive/Desktop/GD32VW553/V1_MQTT_OK/GD32VW55X_Wifi_BLE_SDK/GD32VW55x_RELEASE_V1.0.2/MSDK/cloud/alicloud/src/services/dev_bind\sha256.c ****     return ctx->buf;
 680              		.loc 1 153 5 is_stmt 1
 154:C:/Users/stapi/OneDrive/Desktop/GD32VW553/V1_MQTT_OK/GD32VW55X_Wifi_BLE_SDK/GD32VW55x_RELEASE_V1.0.2/MSDK/cloud/alicloud/src/services/dev_bind\sha256.c **** }
 681              		.loc 1 154 1 is_stmt 0
 682 009c 5285     		mv	a0,s4
 683 009e 4101     		addi	sp,sp,16
 684              		.cfi_remember_state
 685              		.cfi_def_cfa_offset 0
 686 00a0 17030000 		tail	__riscv_restore_6
 686      67000300 
 687              		.cfi_restore 21
 688              		.cfi_restore 20
 689              		.cfi_restore 19
 690              		.cfi_restore 18
 691              		.cfi_restore 9
 692              		.cfi_restore 8
 693              		.cfi_restore 1
 694              		.cfi_def_cfa_offset -32
 695              	.LVL65:
 696              	.L15:
 697              		.cfi_restore_state
 140:C:/Users/stapi/OneDrive/Desktop/GD32VW553/V1_MQTT_OK/GD32VW55X_Wifi_BLE_SDK/GD32VW55x_RELEASE_V1.0.2/MSDK/cloud/alicloud/src/services/dev_bind\sha256.c ****     }
 698              		.loc 1 140 9 is_stmt 1
 699 00a8 0546     		li	a2,1
 700 00aa 93850A00 		addi	a1,s5,%lo(.LC1)
 701 00ae 2285     		mv	a0,s0
 702 00b0 97000000 		call	SHA256_update
 702      E7800000 
 703              	.LVL66:
 704 00b8 49B7     		j	.L14
 705              		.cfi_endproc
 706              	.LFE51:
 708              		.section	.text.SHA256_hash,"ax",@progbits
 709              		.align	1
 710              		.globl	SHA256_hash
 712              	SHA256_hash:
 713              	.LFB52:
 155:C:/Users/stapi/OneDrive/Desktop/GD32VW553/V1_MQTT_OK/GD32VW55X_Wifi_BLE_SDK/GD32VW55x_RELEASE_V1.0.2/MSDK/cloud/alicloud/src/services/dev_bind\sha256.c **** 
 156:C:/Users/stapi/OneDrive/Desktop/GD32VW553/V1_MQTT_OK/GD32VW55X_Wifi_BLE_SDK/GD32VW55x_RELEASE_V1.0.2/MSDK/cloud/alicloud/src/services/dev_bind\sha256.c **** /* Convenience function */
 157:C:/Users/stapi/OneDrive/Desktop/GD32VW553/V1_MQTT_OK/GD32VW55X_Wifi_BLE_SDK/GD32VW55x_RELEASE_V1.0.2/MSDK/cloud/alicloud/src/services/dev_bind\sha256.c **** const uint8_t* SHA256_hash(const void* data, int len, uint8_t* digest)
 158:C:/Users/stapi/OneDrive/Desktop/GD32VW553/V1_MQTT_OK/GD32VW55X_Wifi_BLE_SDK/GD32VW55x_RELEASE_V1.0.2/MSDK/cloud/alicloud/src/services/dev_bind\sha256.c **** {
 714              		.loc 1 158 1
 715              		.cfi_startproc
 716              	.LVL67:
 717 0000 17030000 		call	t0,__riscv_save_3
 717      E7020300 
 718              		.cfi_offset 18, -16
 719              		.cfi_offset 9, -12
 720              		.cfi_offset 8, -8
 721              		.cfi_offset 1, -4
 722              		.cfi_def_cfa_offset 16
 159:C:/Users/stapi/OneDrive/Desktop/GD32VW553/V1_MQTT_OK/GD32VW55X_Wifi_BLE_SDK/GD32VW55x_RELEASE_V1.0.2/MSDK/cloud/alicloud/src/services/dev_bind\sha256.c ****     SHA256_CTX ctx;
 723              		.loc 1 159 5
 160:C:/Users/stapi/OneDrive/Desktop/GD32VW553/V1_MQTT_OK/GD32VW55X_Wifi_BLE_SDK/GD32VW55x_RELEASE_V1.0.2/MSDK/cloud/alicloud/src/services/dev_bind\sha256.c ****     SHA256_init(&ctx);
 724              		.loc 1 160 5
 158:C:/Users/stapi/OneDrive/Desktop/GD32VW553/V1_MQTT_OK/GD32VW55X_Wifi_BLE_SDK/GD32VW55x_RELEASE_V1.0.2/MSDK/cloud/alicloud/src/services/dev_bind\sha256.c ****     SHA256_CTX ctx;
 725              		.loc 1 158 1 is_stmt 0
 726 0008 5971     		addi	sp,sp,-112
 727              		.cfi_def_cfa_offset 128
 158:C:/Users/stapi/OneDrive/Desktop/GD32VW553/V1_MQTT_OK/GD32VW55X_Wifi_BLE_SDK/GD32VW55x_RELEASE_V1.0.2/MSDK/cloud/alicloud/src/services/dev_bind\sha256.c ****     SHA256_CTX ctx;
 728              		.loc 1 158 1
 729 000a AA84     		mv	s1,a0
 730              		.loc 1 160 5
 731 000c 2800     		addi	a0,sp,8
 732              	.LVL68:
 158:C:/Users/stapi/OneDrive/Desktop/GD32VW553/V1_MQTT_OK/GD32VW55X_Wifi_BLE_SDK/GD32VW55x_RELEASE_V1.0.2/MSDK/cloud/alicloud/src/services/dev_bind\sha256.c ****     SHA256_CTX ctx;
 733              		.loc 1 158 1
 734 000e 3284     		mv	s0,a2
 735 0010 2E89     		mv	s2,a1
 736              		.loc 1 160 5
 737 0012 97000000 		call	SHA256_init
 737      E7800000 
 738              	.LVL69:
 161:C:/Users/stapi/OneDrive/Desktop/GD32VW553/V1_MQTT_OK/GD32VW55X_Wifi_BLE_SDK/GD32VW55x_RELEASE_V1.0.2/MSDK/cloud/alicloud/src/services/dev_bind\sha256.c ****     SHA256_update(&ctx, data, len);
 739              		.loc 1 161 5 is_stmt 1
 740 001a 4A86     		mv	a2,s2
 741 001c A685     		mv	a1,s1
 742 001e 2800     		addi	a0,sp,8
 743 0020 97000000 		call	SHA256_update
 743      E7800000 
 744              	.LVL70:
 162:C:/Users/stapi/OneDrive/Desktop/GD32VW553/V1_MQTT_OK/GD32VW55X_Wifi_BLE_SDK/GD32VW55x_RELEASE_V1.0.2/MSDK/cloud/alicloud/src/services/dev_bind\sha256.c ****     memcpy(digest, SHA256_final(&ctx), SHA256_DIGEST_SIZE);
 745              		.loc 1 162 5
 746              		.loc 1 162 20 is_stmt 0
 747 0028 2800     		addi	a0,sp,8
 748 002a 97000000 		call	SHA256_final
 748      E7800000 
 749              	.LVL71:
 750 0032 AA85     		mv	a1,a0
 751              		.loc 1 162 5
 752 0034 13060002 		li	a2,32
 753 0038 2285     		mv	a0,s0
 754 003a 97000000 		call	memcpy
 754      E7800000 
 755              	.LVL72:
 163:C:/Users/stapi/OneDrive/Desktop/GD32VW553/V1_MQTT_OK/GD32VW55X_Wifi_BLE_SDK/GD32VW55x_RELEASE_V1.0.2/MSDK/cloud/alicloud/src/services/dev_bind\sha256.c ****     return digest;
 756              		.loc 1 163 5 is_stmt 1
 164:C:/Users/stapi/OneDrive/Desktop/GD32VW553/V1_MQTT_OK/GD32VW55X_Wifi_BLE_SDK/GD32VW55x_RELEASE_V1.0.2/MSDK/cloud/alicloud/src/services/dev_bind\sha256.c **** }
 757              		.loc 1 164 1 is_stmt 0
 758 0042 2285     		mv	a0,s0
 759 0044 6561     		addi	sp,sp,112
 760              		.cfi_def_cfa_offset 0
 761 0046 17030000 		tail	__riscv_restore_3
 761      67000300 
 762              		.cfi_restore 18
 763              		.cfi_restore 9
 764              		.cfi_restore 8
 765              		.cfi_restore 1
 766              		.cfi_def_cfa_offset -16
 767              		.cfi_endproc
 768              	.LFE52:
 770              		.section	.rodata
 771              		.align	2
 772              	.LC1:
 773 0000 00       		.string	""
 774 0001 00       		.string	""
 775              		.section	.rodata.K,"a"
 776              		.align	2
 777              		.set	.LANCHOR0,. + 0
 780              	K:
 781 0000 982F8A42 		.word	1116352408
 782 0004 91443771 		.word	1899447441
 783 0008 CFFBC0B5 		.word	-1245643825
 784 000c A5DBB5E9 		.word	-373957723
 785 0010 5BC25639 		.word	961987163
 786 0014 F111F159 		.word	1508970993
 787 0018 A4823F92 		.word	-1841331548
 788 001c D55E1CAB 		.word	-1424204075
 789 0020 98AA07D8 		.word	-670586216
 790 0024 015B8312 		.word	310598401
 791 0028 BE853124 		.word	607225278
 792 002c C37D0C55 		.word	1426881987
 793 0030 745DBE72 		.word	1925078388
 794 0034 FEB1DE80 		.word	-2132889090
 795 0038 A706DC9B 		.word	-1680079193
 796 003c 74F19BC1 		.word	-1046744716
 797 0040 C1699BE4 		.word	-459576895
 798 0044 8647BEEF 		.word	-272742522
 799 0048 C69DC10F 		.word	264347078
 800 004c CCA10C24 		.word	604807628
 801 0050 6F2CE92D 		.word	770255983
 802 0054 AA84744A 		.word	1249150122
 803 0058 DCA9B05C 		.word	1555081692
 804 005c DA88F976 		.word	1996064986
 805 0060 52513E98 		.word	-1740746414
 806 0064 6DC631A8 		.word	-1473132947
 807 0068 C82703B0 		.word	-1341970488
 808 006c C77F59BF 		.word	-1084653625
 809 0070 F30BE0C6 		.word	-958395405
 810 0074 4791A7D5 		.word	-710438585
 811 0078 5163CA06 		.word	113926993
 812 007c 67292914 		.word	338241895
 813 0080 850AB727 		.word	666307205
 814 0084 38211B2E 		.word	773529912
 815 0088 FC6D2C4D 		.word	1294757372
 816 008c 130D3853 		.word	1396182291
 817 0090 54730A65 		.word	1695183700
 818 0094 BB0A6A76 		.word	1986661051
 819 0098 2EC9C281 		.word	-2117940946
 820 009c 852C7292 		.word	-1838011259
 821 00a0 A1E8BFA2 		.word	-1564481375
 822 00a4 4B661AA8 		.word	-1474664885
 823 00a8 708B4BC2 		.word	-1035236496
 824 00ac A3516CC7 		.word	-949202525
 825 00b0 19E892D1 		.word	-778901479
 826 00b4 240699D6 		.word	-694614492
 827 00b8 85350EF4 		.word	-200395387
 828 00bc 70A06A10 		.word	275423344
 829 00c0 16C1A419 		.word	430227734
 830 00c4 086C371E 		.word	506948616
 831 00c8 4C774827 		.word	659060556
 832 00cc B5BCB034 		.word	883997877
 833 00d0 B30C1C39 		.word	958139571
 834 00d4 4AAAD84E 		.word	1322822218
 835 00d8 4FCA9C5B 		.word	1537002063
 836 00dc F36F2E68 		.word	1747873779
 837 00e0 EE828F74 		.word	1955562222
 838 00e4 6F63A578 		.word	2024104815
 839 00e8 1478C884 		.word	-2067236844
 840 00ec 0802C78C 		.word	-1933114872
 841 00f0 FAFFBE90 		.word	-1866530822
 842 00f4 EB6C50A4 		.word	-1538233109
 843 00f8 F7A3F9BE 		.word	-1090935817
 844 00fc F27871C6 		.word	-965641998
 845              		.text
 846              	.Letext0:
 847              		.file 2 "c:\\users\\stapi\\onedrive\\desktop\\gd32vw553\\embeddedbuilder_v1.4.7.26843\\tools\\nucl
 848              		.file 3 "c:\\users\\stapi\\onedrive\\desktop\\gd32vw553\\embeddedbuilder_v1.4.7.26843\\tools\\nucl
 849              		.file 4 "C:/Users/stapi/OneDrive/Desktop/GD32VW553/V1_MQTT_OK/GD32VW55X_Wifi_BLE_SDK/GD32VW55x_REL
 850              		.file 5 "<built-in>"