   1              		.file	"handlers.c"
   2              		.option nopic
   3              		.attribute arch, "rv32i2p0_m2p0_a2p0_f2p0_c2p0_b_p0p94"
   4              		.attribute unaligned_access, 0
   5              		.attribute stack_align, 16
   6              		.text
   7              	.Ltext0:
   8              		.cfi_sections	.debug_frame
   9              		.section	.rodata.print_reg.str1.4,"aMS",@progbits,1
  10              		.align	2
  11              	.LC0:
  12 0000 0D0A00   		.string	"\r\n"
  13              		.section	.text.print_reg,"ax",@progbits
  14              		.align	1
  15              		.globl	print_reg
  17              	print_reg:
  18              	.LFB365:
  19              		.file 1 "C:/Users/stapi/OneDrive/Desktop/GD32VW553/V1_MQTT_OK/GD32VW55X_Wifi_BLE_SDK/GD32VW55x_REL
   1:C:/Users/stapi/OneDrive/Desktop/GD32VW553/V1_MQTT_OK/GD32VW55X_Wifi_BLE_SDK/GD32VW55x_RELEASE_V1.0.2/MSDK/plf/riscv/env\handlers.c **** /*!
   2:C:/Users/stapi/OneDrive/Desktop/GD32VW553/V1_MQTT_OK/GD32VW55X_Wifi_BLE_SDK/GD32VW55x_RELEASE_V1.0.2/MSDK/plf/riscv/env\handlers.c ****     \file    handlers.c
   3:C:/Users/stapi/OneDrive/Desktop/GD32VW553/V1_MQTT_OK/GD32VW55X_Wifi_BLE_SDK/GD32VW55x_RELEASE_V1.0.2/MSDK/plf/riscv/env\handlers.c ****     \brief   Interrupt and exception and NMI handling for GD32VW55x SDK.
   4:C:/Users/stapi/OneDrive/Desktop/GD32VW553/V1_MQTT_OK/GD32VW55X_Wifi_BLE_SDK/GD32VW55x_RELEASE_V1.0.2/MSDK/plf/riscv/env\handlers.c **** 
   5:C:/Users/stapi/OneDrive/Desktop/GD32VW553/V1_MQTT_OK/GD32VW55X_Wifi_BLE_SDK/GD32VW55x_RELEASE_V1.0.2/MSDK/plf/riscv/env\handlers.c ****     \version 2023-07-20, V1.0.0, firmware for GD32VW55x
   6:C:/Users/stapi/OneDrive/Desktop/GD32VW553/V1_MQTT_OK/GD32VW55X_Wifi_BLE_SDK/GD32VW55x_RELEASE_V1.0.2/MSDK/plf/riscv/env\handlers.c **** */
   7:C:/Users/stapi/OneDrive/Desktop/GD32VW553/V1_MQTT_OK/GD32VW55X_Wifi_BLE_SDK/GD32VW55x_RELEASE_V1.0.2/MSDK/plf/riscv/env\handlers.c **** 
   8:C:/Users/stapi/OneDrive/Desktop/GD32VW553/V1_MQTT_OK/GD32VW55X_Wifi_BLE_SDK/GD32VW55x_RELEASE_V1.0.2/MSDK/plf/riscv/env\handlers.c **** /*
   9:C:/Users/stapi/OneDrive/Desktop/GD32VW553/V1_MQTT_OK/GD32VW55X_Wifi_BLE_SDK/GD32VW55x_RELEASE_V1.0.2/MSDK/plf/riscv/env\handlers.c ****     Copyright (c) 2023, GigaDevice Semiconductor Inc.
  10:C:/Users/stapi/OneDrive/Desktop/GD32VW553/V1_MQTT_OK/GD32VW55X_Wifi_BLE_SDK/GD32VW55x_RELEASE_V1.0.2/MSDK/plf/riscv/env\handlers.c **** 
  11:C:/Users/stapi/OneDrive/Desktop/GD32VW553/V1_MQTT_OK/GD32VW55X_Wifi_BLE_SDK/GD32VW55x_RELEASE_V1.0.2/MSDK/plf/riscv/env\handlers.c ****     Redistribution and use in source and binary forms, with or without modification,
  12:C:/Users/stapi/OneDrive/Desktop/GD32VW553/V1_MQTT_OK/GD32VW55X_Wifi_BLE_SDK/GD32VW55x_RELEASE_V1.0.2/MSDK/plf/riscv/env\handlers.c **** are permitted provided that the following conditions are met:
  13:C:/Users/stapi/OneDrive/Desktop/GD32VW553/V1_MQTT_OK/GD32VW55X_Wifi_BLE_SDK/GD32VW55x_RELEASE_V1.0.2/MSDK/plf/riscv/env\handlers.c **** 
  14:C:/Users/stapi/OneDrive/Desktop/GD32VW553/V1_MQTT_OK/GD32VW55X_Wifi_BLE_SDK/GD32VW55x_RELEASE_V1.0.2/MSDK/plf/riscv/env\handlers.c ****     1. Redistributions of source code must retain the above copyright notice, this
  15:C:/Users/stapi/OneDrive/Desktop/GD32VW553/V1_MQTT_OK/GD32VW55X_Wifi_BLE_SDK/GD32VW55x_RELEASE_V1.0.2/MSDK/plf/riscv/env\handlers.c ****        list of conditions and the following disclaimer.
  16:C:/Users/stapi/OneDrive/Desktop/GD32VW553/V1_MQTT_OK/GD32VW55X_Wifi_BLE_SDK/GD32VW55x_RELEASE_V1.0.2/MSDK/plf/riscv/env\handlers.c ****     2. Redistributions in binary form must reproduce the above copyright notice,
  17:C:/Users/stapi/OneDrive/Desktop/GD32VW553/V1_MQTT_OK/GD32VW55X_Wifi_BLE_SDK/GD32VW55x_RELEASE_V1.0.2/MSDK/plf/riscv/env\handlers.c ****        this list of conditions and the following disclaimer in the documentation
  18:C:/Users/stapi/OneDrive/Desktop/GD32VW553/V1_MQTT_OK/GD32VW55X_Wifi_BLE_SDK/GD32VW55x_RELEASE_V1.0.2/MSDK/plf/riscv/env\handlers.c ****        and/or other materials provided with the distribution.
  19:C:/Users/stapi/OneDrive/Desktop/GD32VW553/V1_MQTT_OK/GD32VW55X_Wifi_BLE_SDK/GD32VW55x_RELEASE_V1.0.2/MSDK/plf/riscv/env\handlers.c ****     3. Neither the name of the copyright holder nor the names of its contributors
  20:C:/Users/stapi/OneDrive/Desktop/GD32VW553/V1_MQTT_OK/GD32VW55X_Wifi_BLE_SDK/GD32VW55x_RELEASE_V1.0.2/MSDK/plf/riscv/env\handlers.c ****        may be used to endorse or promote products derived from this software without
  21:C:/Users/stapi/OneDrive/Desktop/GD32VW553/V1_MQTT_OK/GD32VW55X_Wifi_BLE_SDK/GD32VW55x_RELEASE_V1.0.2/MSDK/plf/riscv/env\handlers.c ****        specific prior written permission.
  22:C:/Users/stapi/OneDrive/Desktop/GD32VW553/V1_MQTT_OK/GD32VW55X_Wifi_BLE_SDK/GD32VW55x_RELEASE_V1.0.2/MSDK/plf/riscv/env\handlers.c **** 
  23:C:/Users/stapi/OneDrive/Desktop/GD32VW553/V1_MQTT_OK/GD32VW55X_Wifi_BLE_SDK/GD32VW55x_RELEASE_V1.0.2/MSDK/plf/riscv/env\handlers.c ****     THIS SOFTWARE IS PROVIDED BY THE COPYRIGHT HOLDERS AND CONTRIBUTORS "AS IS"
  24:C:/Users/stapi/OneDrive/Desktop/GD32VW553/V1_MQTT_OK/GD32VW55X_Wifi_BLE_SDK/GD32VW55x_RELEASE_V1.0.2/MSDK/plf/riscv/env\handlers.c **** AND ANY EXPRESS OR IMPLIED WARRANTIES, INCLUDING, BUT NOT LIMITED TO, THE IMPLIED
  25:C:/Users/stapi/OneDrive/Desktop/GD32VW553/V1_MQTT_OK/GD32VW55X_Wifi_BLE_SDK/GD32VW55x_RELEASE_V1.0.2/MSDK/plf/riscv/env\handlers.c **** WARRANTIES OF MERCHANTABILITY AND FITNESS FOR A PARTICULAR PURPOSE ARE DISCLAIMED.
  26:C:/Users/stapi/OneDrive/Desktop/GD32VW553/V1_MQTT_OK/GD32VW55X_Wifi_BLE_SDK/GD32VW55x_RELEASE_V1.0.2/MSDK/plf/riscv/env\handlers.c **** IN NO EVENT SHALL THE COPYRIGHT HOLDER OR CONTRIBUTORS BE LIABLE FOR ANY DIRECT,
  27:C:/Users/stapi/OneDrive/Desktop/GD32VW553/V1_MQTT_OK/GD32VW55X_Wifi_BLE_SDK/GD32VW55x_RELEASE_V1.0.2/MSDK/plf/riscv/env\handlers.c **** INDIRECT, INCIDENTAL, SPECIAL, EXEMPLARY, OR CONSEQUENTIAL DAMAGES (INCLUDING, BUT
  28:C:/Users/stapi/OneDrive/Desktop/GD32VW553/V1_MQTT_OK/GD32VW55X_Wifi_BLE_SDK/GD32VW55x_RELEASE_V1.0.2/MSDK/plf/riscv/env\handlers.c **** NOT LIMITED TO, PROCUREMENT OF SUBSTITUTE GOODS OR SERVICES; LOSS OF USE, DATA, OR
  29:C:/Users/stapi/OneDrive/Desktop/GD32VW553/V1_MQTT_OK/GD32VW55X_Wifi_BLE_SDK/GD32VW55x_RELEASE_V1.0.2/MSDK/plf/riscv/env\handlers.c **** PROFITS; OR BUSINESS INTERRUPTION) HOWEVER CAUSED AND ON ANY THEORY OF LIABILITY,
  30:C:/Users/stapi/OneDrive/Desktop/GD32VW553/V1_MQTT_OK/GD32VW55X_Wifi_BLE_SDK/GD32VW55x_RELEASE_V1.0.2/MSDK/plf/riscv/env\handlers.c **** WHETHER IN CONTRACT, STRICT LIABILITY, OR TORT (INCLUDING NEGLIGENCE OR OTHERWISE)
  31:C:/Users/stapi/OneDrive/Desktop/GD32VW553/V1_MQTT_OK/GD32VW55X_Wifi_BLE_SDK/GD32VW55x_RELEASE_V1.0.2/MSDK/plf/riscv/env\handlers.c **** ARISING IN ANY WAY OUT OF THE USE OF THIS SOFTWARE, EVEN IF ADVISED OF THE POSSIBILITY
  32:C:/Users/stapi/OneDrive/Desktop/GD32VW553/V1_MQTT_OK/GD32VW55X_Wifi_BLE_SDK/GD32VW55x_RELEASE_V1.0.2/MSDK/plf/riscv/env\handlers.c **** OF SUCH DAMAGE.
  33:C:/Users/stapi/OneDrive/Desktop/GD32VW553/V1_MQTT_OK/GD32VW55X_Wifi_BLE_SDK/GD32VW55x_RELEASE_V1.0.2/MSDK/plf/riscv/env\handlers.c **** */
  34:C:/Users/stapi/OneDrive/Desktop/GD32VW553/V1_MQTT_OK/GD32VW55X_Wifi_BLE_SDK/GD32VW55x_RELEASE_V1.0.2/MSDK/plf/riscv/env\handlers.c **** 
  35:C:/Users/stapi/OneDrive/Desktop/GD32VW553/V1_MQTT_OK/GD32VW55X_Wifi_BLE_SDK/GD32VW55x_RELEASE_V1.0.2/MSDK/plf/riscv/env\handlers.c **** #include "gd32vw55x.h"
  36:C:/Users/stapi/OneDrive/Desktop/GD32VW553/V1_MQTT_OK/GD32VW55X_Wifi_BLE_SDK/GD32VW55x_RELEASE_V1.0.2/MSDK/plf/riscv/env\handlers.c **** 
  37:C:/Users/stapi/OneDrive/Desktop/GD32VW553/V1_MQTT_OK/GD32VW55X_Wifi_BLE_SDK/GD32VW55x_RELEASE_V1.0.2/MSDK/plf/riscv/env\handlers.c **** #ifndef EXEC_USING_STD_PRINTF
  38:C:/Users/stapi/OneDrive/Desktop/GD32VW553/V1_MQTT_OK/GD32VW55X_Wifi_BLE_SDK/GD32VW55x_RELEASE_V1.0.2/MSDK/plf/riscv/env\handlers.c **** #include "log_uart.h"
  39:C:/Users/stapi/OneDrive/Desktop/GD32VW553/V1_MQTT_OK/GD32VW55X_Wifi_BLE_SDK/GD32VW55x_RELEASE_V1.0.2/MSDK/plf/riscv/env\handlers.c **** #include "rom_export.h"
  40:C:/Users/stapi/OneDrive/Desktop/GD32VW553/V1_MQTT_OK/GD32VW55X_Wifi_BLE_SDK/GD32VW55x_RELEASE_V1.0.2/MSDK/plf/riscv/env\handlers.c **** #include "raw_flash_api.h"
  41:C:/Users/stapi/OneDrive/Desktop/GD32VW553/V1_MQTT_OK/GD32VW55X_Wifi_BLE_SDK/GD32VW55x_RELEASE_V1.0.2/MSDK/plf/riscv/env\handlers.c **** #include "wrapper_os.h"
  42:C:/Users/stapi/OneDrive/Desktop/GD32VW553/V1_MQTT_OK/GD32VW55X_Wifi_BLE_SDK/GD32VW55x_RELEASE_V1.0.2/MSDK/plf/riscv/env\handlers.c **** #define EXC_LOG_TO_FLASH    1
  43:C:/Users/stapi/OneDrive/Desktop/GD32VW553/V1_MQTT_OK/GD32VW55X_Wifi_BLE_SDK/GD32VW55x_RELEASE_V1.0.2/MSDK/plf/riscv/env\handlers.c **** #endif
  44:C:/Users/stapi/OneDrive/Desktop/GD32VW553/V1_MQTT_OK/GD32VW55X_Wifi_BLE_SDK/GD32VW55x_RELEASE_V1.0.2/MSDK/plf/riscv/env\handlers.c **** 
  45:C:/Users/stapi/OneDrive/Desktop/GD32VW553/V1_MQTT_OK/GD32VW55X_Wifi_BLE_SDK/GD32VW55x_RELEASE_V1.0.2/MSDK/plf/riscv/env\handlers.c **** #define UART_CMD_IN_EXC     1
  46:C:/Users/stapi/OneDrive/Desktop/GD32VW553/V1_MQTT_OK/GD32VW55X_Wifi_BLE_SDK/GD32VW55x_RELEASE_V1.0.2/MSDK/plf/riscv/env\handlers.c **** 
  47:C:/Users/stapi/OneDrive/Desktop/GD32VW553/V1_MQTT_OK/GD32VW55X_Wifi_BLE_SDK/GD32VW55x_RELEASE_V1.0.2/MSDK/plf/riscv/env\handlers.c **** extern uint32_t _sp[];
  48:C:/Users/stapi/OneDrive/Desktop/GD32VW553/V1_MQTT_OK/GD32VW55X_Wifi_BLE_SDK/GD32VW55x_RELEASE_V1.0.2/MSDK/plf/riscv/env\handlers.c **** 
  49:C:/Users/stapi/OneDrive/Desktop/GD32VW553/V1_MQTT_OK/GD32VW55X_Wifi_BLE_SDK/GD32VW55x_RELEASE_V1.0.2/MSDK/plf/riscv/env\handlers.c **** typedef struct EXC_Frame {
  50:C:/Users/stapi/OneDrive/Desktop/GD32VW553/V1_MQTT_OK/GD32VW55X_Wifi_BLE_SDK/GD32VW55x_RELEASE_V1.0.2/MSDK/plf/riscv/env\handlers.c **** #ifdef __riscv_flen
  51:C:/Users/stapi/OneDrive/Desktop/GD32VW553/V1_MQTT_OK/GD32VW55X_Wifi_BLE_SDK/GD32VW55x_RELEASE_V1.0.2/MSDK/plf/riscv/env\handlers.c ****     unsigned long f0;
  52:C:/Users/stapi/OneDrive/Desktop/GD32VW553/V1_MQTT_OK/GD32VW55X_Wifi_BLE_SDK/GD32VW55x_RELEASE_V1.0.2/MSDK/plf/riscv/env\handlers.c ****     unsigned long f1;
  53:C:/Users/stapi/OneDrive/Desktop/GD32VW553/V1_MQTT_OK/GD32VW55X_Wifi_BLE_SDK/GD32VW55x_RELEASE_V1.0.2/MSDK/plf/riscv/env\handlers.c ****     unsigned long f2;
  54:C:/Users/stapi/OneDrive/Desktop/GD32VW553/V1_MQTT_OK/GD32VW55X_Wifi_BLE_SDK/GD32VW55x_RELEASE_V1.0.2/MSDK/plf/riscv/env\handlers.c ****     unsigned long f3;
  55:C:/Users/stapi/OneDrive/Desktop/GD32VW553/V1_MQTT_OK/GD32VW55X_Wifi_BLE_SDK/GD32VW55x_RELEASE_V1.0.2/MSDK/plf/riscv/env\handlers.c ****     unsigned long f4;
  56:C:/Users/stapi/OneDrive/Desktop/GD32VW553/V1_MQTT_OK/GD32VW55X_Wifi_BLE_SDK/GD32VW55x_RELEASE_V1.0.2/MSDK/plf/riscv/env\handlers.c ****     unsigned long f5;
  57:C:/Users/stapi/OneDrive/Desktop/GD32VW553/V1_MQTT_OK/GD32VW55X_Wifi_BLE_SDK/GD32VW55x_RELEASE_V1.0.2/MSDK/plf/riscv/env\handlers.c ****     unsigned long f6;
  58:C:/Users/stapi/OneDrive/Desktop/GD32VW553/V1_MQTT_OK/GD32VW55X_Wifi_BLE_SDK/GD32VW55x_RELEASE_V1.0.2/MSDK/plf/riscv/env\handlers.c ****     unsigned long f7;
  59:C:/Users/stapi/OneDrive/Desktop/GD32VW553/V1_MQTT_OK/GD32VW55X_Wifi_BLE_SDK/GD32VW55x_RELEASE_V1.0.2/MSDK/plf/riscv/env\handlers.c ****     unsigned long f10;
  60:C:/Users/stapi/OneDrive/Desktop/GD32VW553/V1_MQTT_OK/GD32VW55X_Wifi_BLE_SDK/GD32VW55x_RELEASE_V1.0.2/MSDK/plf/riscv/env\handlers.c ****     unsigned long f11;
  61:C:/Users/stapi/OneDrive/Desktop/GD32VW553/V1_MQTT_OK/GD32VW55X_Wifi_BLE_SDK/GD32VW55x_RELEASE_V1.0.2/MSDK/plf/riscv/env\handlers.c ****     unsigned long f12;
  62:C:/Users/stapi/OneDrive/Desktop/GD32VW553/V1_MQTT_OK/GD32VW55X_Wifi_BLE_SDK/GD32VW55x_RELEASE_V1.0.2/MSDK/plf/riscv/env\handlers.c ****     unsigned long f13;
  63:C:/Users/stapi/OneDrive/Desktop/GD32VW553/V1_MQTT_OK/GD32VW55X_Wifi_BLE_SDK/GD32VW55x_RELEASE_V1.0.2/MSDK/plf/riscv/env\handlers.c ****     unsigned long f14;
  64:C:/Users/stapi/OneDrive/Desktop/GD32VW553/V1_MQTT_OK/GD32VW55X_Wifi_BLE_SDK/GD32VW55x_RELEASE_V1.0.2/MSDK/plf/riscv/env\handlers.c ****     unsigned long f15;
  65:C:/Users/stapi/OneDrive/Desktop/GD32VW553/V1_MQTT_OK/GD32VW55X_Wifi_BLE_SDK/GD32VW55x_RELEASE_V1.0.2/MSDK/plf/riscv/env\handlers.c ****     unsigned long f16;
  66:C:/Users/stapi/OneDrive/Desktop/GD32VW553/V1_MQTT_OK/GD32VW55X_Wifi_BLE_SDK/GD32VW55x_RELEASE_V1.0.2/MSDK/plf/riscv/env\handlers.c ****     unsigned long f17;
  67:C:/Users/stapi/OneDrive/Desktop/GD32VW553/V1_MQTT_OK/GD32VW55X_Wifi_BLE_SDK/GD32VW55x_RELEASE_V1.0.2/MSDK/plf/riscv/env\handlers.c ****     unsigned long f28;
  68:C:/Users/stapi/OneDrive/Desktop/GD32VW553/V1_MQTT_OK/GD32VW55X_Wifi_BLE_SDK/GD32VW55x_RELEASE_V1.0.2/MSDK/plf/riscv/env\handlers.c ****     unsigned long f29;
  69:C:/Users/stapi/OneDrive/Desktop/GD32VW553/V1_MQTT_OK/GD32VW55X_Wifi_BLE_SDK/GD32VW55x_RELEASE_V1.0.2/MSDK/plf/riscv/env\handlers.c ****     unsigned long f30;
  70:C:/Users/stapi/OneDrive/Desktop/GD32VW553/V1_MQTT_OK/GD32VW55X_Wifi_BLE_SDK/GD32VW55x_RELEASE_V1.0.2/MSDK/plf/riscv/env\handlers.c ****     unsigned long f31;
  71:C:/Users/stapi/OneDrive/Desktop/GD32VW553/V1_MQTT_OK/GD32VW55X_Wifi_BLE_SDK/GD32VW55x_RELEASE_V1.0.2/MSDK/plf/riscv/env\handlers.c ****     unsigned long fcsr;
  72:C:/Users/stapi/OneDrive/Desktop/GD32VW553/V1_MQTT_OK/GD32VW55X_Wifi_BLE_SDK/GD32VW55x_RELEASE_V1.0.2/MSDK/plf/riscv/env\handlers.c **** #endif
  73:C:/Users/stapi/OneDrive/Desktop/GD32VW553/V1_MQTT_OK/GD32VW55X_Wifi_BLE_SDK/GD32VW55x_RELEASE_V1.0.2/MSDK/plf/riscv/env\handlers.c ****     unsigned long ra;                /* ra: x1, return address for jump */
  74:C:/Users/stapi/OneDrive/Desktop/GD32VW553/V1_MQTT_OK/GD32VW55X_Wifi_BLE_SDK/GD32VW55x_RELEASE_V1.0.2/MSDK/plf/riscv/env\handlers.c ****     unsigned long tp;                /* tp: x4, thread pointer */
  75:C:/Users/stapi/OneDrive/Desktop/GD32VW553/V1_MQTT_OK/GD32VW55X_Wifi_BLE_SDK/GD32VW55x_RELEASE_V1.0.2/MSDK/plf/riscv/env\handlers.c ****     unsigned long t0;                /* t0: x5, temporary register 0 */
  76:C:/Users/stapi/OneDrive/Desktop/GD32VW553/V1_MQTT_OK/GD32VW55X_Wifi_BLE_SDK/GD32VW55x_RELEASE_V1.0.2/MSDK/plf/riscv/env\handlers.c ****     unsigned long t1;                /* t1: x6, temporary register 1 */
  77:C:/Users/stapi/OneDrive/Desktop/GD32VW553/V1_MQTT_OK/GD32VW55X_Wifi_BLE_SDK/GD32VW55x_RELEASE_V1.0.2/MSDK/plf/riscv/env\handlers.c ****     unsigned long t2;                /* t2: x7, temporary register 2 */
  78:C:/Users/stapi/OneDrive/Desktop/GD32VW553/V1_MQTT_OK/GD32VW55X_Wifi_BLE_SDK/GD32VW55x_RELEASE_V1.0.2/MSDK/plf/riscv/env\handlers.c ****     unsigned long a0;                /* a0: x10, return value or function argument 0 */
  79:C:/Users/stapi/OneDrive/Desktop/GD32VW553/V1_MQTT_OK/GD32VW55X_Wifi_BLE_SDK/GD32VW55x_RELEASE_V1.0.2/MSDK/plf/riscv/env\handlers.c ****     unsigned long a1;                /* a1: x11, return value or function argument 1 */
  80:C:/Users/stapi/OneDrive/Desktop/GD32VW553/V1_MQTT_OK/GD32VW55X_Wifi_BLE_SDK/GD32VW55x_RELEASE_V1.0.2/MSDK/plf/riscv/env\handlers.c ****     unsigned long a2;                /* a2: x12, function argument 2 */
  81:C:/Users/stapi/OneDrive/Desktop/GD32VW553/V1_MQTT_OK/GD32VW55X_Wifi_BLE_SDK/GD32VW55x_RELEASE_V1.0.2/MSDK/plf/riscv/env\handlers.c ****     unsigned long a3;                /* a3: x13, function argument 3 */
  82:C:/Users/stapi/OneDrive/Desktop/GD32VW553/V1_MQTT_OK/GD32VW55X_Wifi_BLE_SDK/GD32VW55x_RELEASE_V1.0.2/MSDK/plf/riscv/env\handlers.c ****     unsigned long a4;                /* a4: x14, function argument 4 */
  83:C:/Users/stapi/OneDrive/Desktop/GD32VW553/V1_MQTT_OK/GD32VW55X_Wifi_BLE_SDK/GD32VW55x_RELEASE_V1.0.2/MSDK/plf/riscv/env\handlers.c ****     unsigned long a5;                /* a5: x15, function argument 5 */
  84:C:/Users/stapi/OneDrive/Desktop/GD32VW553/V1_MQTT_OK/GD32VW55X_Wifi_BLE_SDK/GD32VW55x_RELEASE_V1.0.2/MSDK/plf/riscv/env\handlers.c ****     unsigned long mcause;            /* mcause: machine cause csr register */
  85:C:/Users/stapi/OneDrive/Desktop/GD32VW553/V1_MQTT_OK/GD32VW55X_Wifi_BLE_SDK/GD32VW55x_RELEASE_V1.0.2/MSDK/plf/riscv/env\handlers.c ****     unsigned long mepc;              /* mepc: machine exception program counter csr register */
  86:C:/Users/stapi/OneDrive/Desktop/GD32VW553/V1_MQTT_OK/GD32VW55X_Wifi_BLE_SDK/GD32VW55x_RELEASE_V1.0.2/MSDK/plf/riscv/env\handlers.c ****     unsigned long msubm;             /* msubm: machine sub-mode csr register, nuclei customized */
  87:C:/Users/stapi/OneDrive/Desktop/GD32VW553/V1_MQTT_OK/GD32VW55X_Wifi_BLE_SDK/GD32VW55x_RELEASE_V1.0.2/MSDK/plf/riscv/env\handlers.c **** #ifndef __riscv_32e
  88:C:/Users/stapi/OneDrive/Desktop/GD32VW553/V1_MQTT_OK/GD32VW55X_Wifi_BLE_SDK/GD32VW55x_RELEASE_V1.0.2/MSDK/plf/riscv/env\handlers.c ****     unsigned long a6;                /* a6: x16, function argument 6 */
  89:C:/Users/stapi/OneDrive/Desktop/GD32VW553/V1_MQTT_OK/GD32VW55X_Wifi_BLE_SDK/GD32VW55x_RELEASE_V1.0.2/MSDK/plf/riscv/env\handlers.c ****     unsigned long a7;                /* a7: x17, function argument 7 */
  90:C:/Users/stapi/OneDrive/Desktop/GD32VW553/V1_MQTT_OK/GD32VW55X_Wifi_BLE_SDK/GD32VW55x_RELEASE_V1.0.2/MSDK/plf/riscv/env\handlers.c ****     unsigned long t3;                /* t3: x28, temporary register 3 */
  91:C:/Users/stapi/OneDrive/Desktop/GD32VW553/V1_MQTT_OK/GD32VW55X_Wifi_BLE_SDK/GD32VW55x_RELEASE_V1.0.2/MSDK/plf/riscv/env\handlers.c ****     unsigned long t4;                /* t4: x29, temporary register 4 */
  92:C:/Users/stapi/OneDrive/Desktop/GD32VW553/V1_MQTT_OK/GD32VW55X_Wifi_BLE_SDK/GD32VW55x_RELEASE_V1.0.2/MSDK/plf/riscv/env\handlers.c ****     unsigned long t5;                /* t5: x30, temporary register 5 */
  93:C:/Users/stapi/OneDrive/Desktop/GD32VW553/V1_MQTT_OK/GD32VW55X_Wifi_BLE_SDK/GD32VW55x_RELEASE_V1.0.2/MSDK/plf/riscv/env\handlers.c ****     unsigned long t6;                /* t6: x31, temporary register 6 */
  94:C:/Users/stapi/OneDrive/Desktop/GD32VW553/V1_MQTT_OK/GD32VW55X_Wifi_BLE_SDK/GD32VW55x_RELEASE_V1.0.2/MSDK/plf/riscv/env\handlers.c **** #endif
  95:C:/Users/stapi/OneDrive/Desktop/GD32VW553/V1_MQTT_OK/GD32VW55X_Wifi_BLE_SDK/GD32VW55x_RELEASE_V1.0.2/MSDK/plf/riscv/env\handlers.c **** } EXC_Frame_Type;
  96:C:/Users/stapi/OneDrive/Desktop/GD32VW553/V1_MQTT_OK/GD32VW55X_Wifi_BLE_SDK/GD32VW55x_RELEASE_V1.0.2/MSDK/plf/riscv/env\handlers.c **** 
  97:C:/Users/stapi/OneDrive/Desktop/GD32VW553/V1_MQTT_OK/GD32VW55X_Wifi_BLE_SDK/GD32VW55x_RELEASE_V1.0.2/MSDK/plf/riscv/env\handlers.c **** /**
  98:C:/Users/stapi/OneDrive/Desktop/GD32VW553/V1_MQTT_OK/GD32VW55X_Wifi_BLE_SDK/GD32VW55x_RELEASE_V1.0.2/MSDK/plf/riscv/env\handlers.c ****  * \defgroup  NMSIS_Core_IntExcNMI_Handling   Interrupt and Exception and NMI Handling
  99:C:/Users/stapi/OneDrive/Desktop/GD32VW553/V1_MQTT_OK/GD32VW55X_Wifi_BLE_SDK/GD32VW55x_RELEASE_V1.0.2/MSDK/plf/riscv/env\handlers.c ****  * \brief Functions for interrupt, exception and nmi handle available in system_<device>.c.
 100:C:/Users/stapi/OneDrive/Desktop/GD32VW553/V1_MQTT_OK/GD32VW55X_Wifi_BLE_SDK/GD32VW55x_RELEASE_V1.0.2/MSDK/plf/riscv/env\handlers.c ****  * \details
 101:C:/Users/stapi/OneDrive/Desktop/GD32VW553/V1_MQTT_OK/GD32VW55X_Wifi_BLE_SDK/GD32VW55x_RELEASE_V1.0.2/MSDK/plf/riscv/env\handlers.c ****  * Nuclei provide a template for interrupt, exception and NMI handling. Silicon Vendor could adapat
 102:C:/Users/stapi/OneDrive/Desktop/GD32VW553/V1_MQTT_OK/GD32VW55X_Wifi_BLE_SDK/GD32VW55x_RELEASE_V1.0.2/MSDK/plf/riscv/env\handlers.c ****  * to their requirement. Silicon vendor could implement interface for different exception code and
 103:C:/Users/stapi/OneDrive/Desktop/GD32VW553/V1_MQTT_OK/GD32VW55X_Wifi_BLE_SDK/GD32VW55x_RELEASE_V1.0.2/MSDK/plf/riscv/env\handlers.c ****  * replace current implementation.
 104:C:/Users/stapi/OneDrive/Desktop/GD32VW553/V1_MQTT_OK/GD32VW55X_Wifi_BLE_SDK/GD32VW55x_RELEASE_V1.0.2/MSDK/plf/riscv/env\handlers.c ****  *
 105:C:/Users/stapi/OneDrive/Desktop/GD32VW553/V1_MQTT_OK/GD32VW55X_Wifi_BLE_SDK/GD32VW55x_RELEASE_V1.0.2/MSDK/plf/riscv/env\handlers.c ****  * @{
 106:C:/Users/stapi/OneDrive/Desktop/GD32VW553/V1_MQTT_OK/GD32VW55X_Wifi_BLE_SDK/GD32VW55x_RELEASE_V1.0.2/MSDK/plf/riscv/env\handlers.c ****  */
 107:C:/Users/stapi/OneDrive/Desktop/GD32VW553/V1_MQTT_OK/GD32VW55X_Wifi_BLE_SDK/GD32VW55x_RELEASE_V1.0.2/MSDK/plf/riscv/env\handlers.c **** /** \brief Max exception handler number, don't include the NMI(0xFFF) one */
 108:C:/Users/stapi/OneDrive/Desktop/GD32VW553/V1_MQTT_OK/GD32VW55X_Wifi_BLE_SDK/GD32VW55x_RELEASE_V1.0.2/MSDK/plf/riscv/env\handlers.c **** #define MAX_SYSTEM_EXCEPTION_NUM        12
 109:C:/Users/stapi/OneDrive/Desktop/GD32VW553/V1_MQTT_OK/GD32VW55X_Wifi_BLE_SDK/GD32VW55x_RELEASE_V1.0.2/MSDK/plf/riscv/env\handlers.c **** /**
 110:C:/Users/stapi/OneDrive/Desktop/GD32VW553/V1_MQTT_OK/GD32VW55X_Wifi_BLE_SDK/GD32VW55x_RELEASE_V1.0.2/MSDK/plf/riscv/env\handlers.c ****  * \brief      Store the exception handlers for each exception ID
 111:C:/Users/stapi/OneDrive/Desktop/GD32VW553/V1_MQTT_OK/GD32VW55X_Wifi_BLE_SDK/GD32VW55x_RELEASE_V1.0.2/MSDK/plf/riscv/env\handlers.c ****  * \note
 112:C:/Users/stapi/OneDrive/Desktop/GD32VW553/V1_MQTT_OK/GD32VW55X_Wifi_BLE_SDK/GD32VW55x_RELEASE_V1.0.2/MSDK/plf/riscv/env\handlers.c ****  * - This SystemExceptionHandlers are used to store all the handlers for all
 113:C:/Users/stapi/OneDrive/Desktop/GD32VW553/V1_MQTT_OK/GD32VW55X_Wifi_BLE_SDK/GD32VW55x_RELEASE_V1.0.2/MSDK/plf/riscv/env\handlers.c ****  * the exception codes Nuclei N/NX core provided.
 114:C:/Users/stapi/OneDrive/Desktop/GD32VW553/V1_MQTT_OK/GD32VW55X_Wifi_BLE_SDK/GD32VW55x_RELEASE_V1.0.2/MSDK/plf/riscv/env\handlers.c ****  * - Exception code 0 - 11, totally 12 exceptions are mapped to SystemExceptionHandlers[0:11]
 115:C:/Users/stapi/OneDrive/Desktop/GD32VW553/V1_MQTT_OK/GD32VW55X_Wifi_BLE_SDK/GD32VW55x_RELEASE_V1.0.2/MSDK/plf/riscv/env\handlers.c ****  * - Exception for NMI is also re-routed to exception handling(exception code 0xFFF) in startup cod
 116:C:/Users/stapi/OneDrive/Desktop/GD32VW553/V1_MQTT_OK/GD32VW55X_Wifi_BLE_SDK/GD32VW55x_RELEASE_V1.0.2/MSDK/plf/riscv/env\handlers.c ****  */
 117:C:/Users/stapi/OneDrive/Desktop/GD32VW553/V1_MQTT_OK/GD32VW55X_Wifi_BLE_SDK/GD32VW55x_RELEASE_V1.0.2/MSDK/plf/riscv/env\handlers.c **** static unsigned long SystemExceptionHandlers[MAX_SYSTEM_EXCEPTION_NUM + 1];
 118:C:/Users/stapi/OneDrive/Desktop/GD32VW553/V1_MQTT_OK/GD32VW55X_Wifi_BLE_SDK/GD32VW55x_RELEASE_V1.0.2/MSDK/plf/riscv/env\handlers.c **** 
 119:C:/Users/stapi/OneDrive/Desktop/GD32VW553/V1_MQTT_OK/GD32VW55X_Wifi_BLE_SDK/GD32VW55x_RELEASE_V1.0.2/MSDK/plf/riscv/env\handlers.c **** /**
 120:C:/Users/stapi/OneDrive/Desktop/GD32VW553/V1_MQTT_OK/GD32VW55X_Wifi_BLE_SDK/GD32VW55x_RELEASE_V1.0.2/MSDK/plf/riscv/env\handlers.c ****  * \brief      Exception Handler Function Typedef
 121:C:/Users/stapi/OneDrive/Desktop/GD32VW553/V1_MQTT_OK/GD32VW55X_Wifi_BLE_SDK/GD32VW55x_RELEASE_V1.0.2/MSDK/plf/riscv/env\handlers.c ****  * \note
 122:C:/Users/stapi/OneDrive/Desktop/GD32VW553/V1_MQTT_OK/GD32VW55X_Wifi_BLE_SDK/GD32VW55x_RELEASE_V1.0.2/MSDK/plf/riscv/env\handlers.c ****  * This typedef is only used internal in this system_<Device>.c file.
 123:C:/Users/stapi/OneDrive/Desktop/GD32VW553/V1_MQTT_OK/GD32VW55X_Wifi_BLE_SDK/GD32VW55x_RELEASE_V1.0.2/MSDK/plf/riscv/env\handlers.c ****  * It is used to do type conversion for registered exception handler before calling it.
 124:C:/Users/stapi/OneDrive/Desktop/GD32VW553/V1_MQTT_OK/GD32VW55X_Wifi_BLE_SDK/GD32VW55x_RELEASE_V1.0.2/MSDK/plf/riscv/env\handlers.c ****  */
 125:C:/Users/stapi/OneDrive/Desktop/GD32VW553/V1_MQTT_OK/GD32VW55X_Wifi_BLE_SDK/GD32VW55x_RELEASE_V1.0.2/MSDK/plf/riscv/env\handlers.c **** typedef void (*EXC_HANDLER)(unsigned long mcause, unsigned long sp);
 126:C:/Users/stapi/OneDrive/Desktop/GD32VW553/V1_MQTT_OK/GD32VW55X_Wifi_BLE_SDK/GD32VW55x_RELEASE_V1.0.2/MSDK/plf/riscv/env\handlers.c **** 
 127:C:/Users/stapi/OneDrive/Desktop/GD32VW553/V1_MQTT_OK/GD32VW55X_Wifi_BLE_SDK/GD32VW55x_RELEASE_V1.0.2/MSDK/plf/riscv/env\handlers.c **** void Exception_DumpFrame(unsigned long sp);
 128:C:/Users/stapi/OneDrive/Desktop/GD32VW553/V1_MQTT_OK/GD32VW55X_Wifi_BLE_SDK/GD32VW55x_RELEASE_V1.0.2/MSDK/plf/riscv/env\handlers.c **** 
 129:C:/Users/stapi/OneDrive/Desktop/GD32VW553/V1_MQTT_OK/GD32VW55X_Wifi_BLE_SDK/GD32VW55x_RELEASE_V1.0.2/MSDK/plf/riscv/env\handlers.c **** #ifndef EXEC_USING_STD_PRINTF
 130:C:/Users/stapi/OneDrive/Desktop/GD32VW553/V1_MQTT_OK/GD32VW55X_Wifi_BLE_SDK/GD32VW55x_RELEASE_V1.0.2/MSDK/plf/riscv/env\handlers.c **** void print_reg(char *title, uint32_t title_len, uint32_t val)
 131:C:/Users/stapi/OneDrive/Desktop/GD32VW553/V1_MQTT_OK/GD32VW55X_Wifi_BLE_SDK/GD32VW55x_RELEASE_V1.0.2/MSDK/plf/riscv/env\handlers.c **** {
  20              		.loc 1 131 1
  21              		.cfi_startproc
  22              	.LVL0:
  23 0000 17030000 		call	t0,__riscv_save_4
  23      E7020300 
  24              		.cfi_offset 19, -20
  25              		.cfi_offset 18, -16
  26              		.cfi_offset 9, -12
  27              		.cfi_offset 8, -8
  28              		.cfi_offset 1, -4
  29              		.cfi_def_cfa_offset 32
 132:C:/Users/stapi/OneDrive/Desktop/GD32VW553/V1_MQTT_OK/GD32VW55X_Wifi_BLE_SDK/GD32VW55x_RELEASE_V1.0.2/MSDK/plf/riscv/env\handlers.c ****     int i;
  30              		.loc 1 132 5
 133:C:/Users/stapi/OneDrive/Desktop/GD32VW553/V1_MQTT_OK/GD32VW55X_Wifi_BLE_SDK/GD32VW55x_RELEASE_V1.0.2/MSDK/plf/riscv/env\handlers.c ****     char c;
  31              		.loc 1 133 5
 134:C:/Users/stapi/OneDrive/Desktop/GD32VW553/V1_MQTT_OK/GD32VW55X_Wifi_BLE_SDK/GD32VW55x_RELEASE_V1.0.2/MSDK/plf/riscv/env\handlers.c **** 
 135:C:/Users/stapi/OneDrive/Desktop/GD32VW553/V1_MQTT_OK/GD32VW55X_Wifi_BLE_SDK/GD32VW55x_RELEASE_V1.0.2/MSDK/plf/riscv/env\handlers.c ****     log_uart_put_data((uint8_t *)title, title_len);
  32              		.loc 1 135 5
 131:C:/Users/stapi/OneDrive/Desktop/GD32VW553/V1_MQTT_OK/GD32VW55X_Wifi_BLE_SDK/GD32VW55x_RELEASE_V1.0.2/MSDK/plf/riscv/env\handlers.c ****     int i;
  33              		.loc 1 131 1 is_stmt 0
  34 0008 B284     		mv	s1,a2
 136:C:/Users/stapi/OneDrive/Desktop/GD32VW553/V1_MQTT_OK/GD32VW55X_Wifi_BLE_SDK/GD32VW55x_RELEASE_V1.0.2/MSDK/plf/riscv/env\handlers.c **** 
 137:C:/Users/stapi/OneDrive/Desktop/GD32VW553/V1_MQTT_OK/GD32VW55X_Wifi_BLE_SDK/GD32VW55x_RELEASE_V1.0.2/MSDK/plf/riscv/env\handlers.c ****     for (i = 28; i >= 0; i -= 4) {
  35              		.loc 1 137 12
  36 000a 7144     		li	s0,28
 135:C:/Users/stapi/OneDrive/Desktop/GD32VW553/V1_MQTT_OK/GD32VW55X_Wifi_BLE_SDK/GD32VW55x_RELEASE_V1.0.2/MSDK/plf/riscv/env\handlers.c **** 
  37              		.loc 1 135 5
  38 000c 97000000 		call	log_uart_put_data
  38      E7800000 
  39              	.LVL1:
  40              		.loc 1 137 5 is_stmt 1
  41              		.loc 1 137 18
 138:C:/Users/stapi/OneDrive/Desktop/GD32VW553/V1_MQTT_OK/GD32VW55X_Wifi_BLE_SDK/GD32VW55x_RELEASE_V1.0.2/MSDK/plf/riscv/env\handlers.c ****         c = ((val >> i ) & 0xF);
 139:C:/Users/stapi/OneDrive/Desktop/GD32VW553/V1_MQTT_OK/GD32VW55X_Wifi_BLE_SDK/GD32VW55x_RELEASE_V1.0.2/MSDK/plf/riscv/env\handlers.c ****         if (c >= 10)
  42              		.loc 1 139 12 is_stmt 0
  43 0014 A549     		li	s3,9
 137:C:/Users/stapi/OneDrive/Desktop/GD32VW553/V1_MQTT_OK/GD32VW55X_Wifi_BLE_SDK/GD32VW55x_RELEASE_V1.0.2/MSDK/plf/riscv/env\handlers.c ****         c = ((val >> i ) & 0xF);
  44              		.loc 1 137 5
  45 0016 7159     		li	s2,-4
  46              	.LVL2:
  47              	.L4:
 138:C:/Users/stapi/OneDrive/Desktop/GD32VW553/V1_MQTT_OK/GD32VW55X_Wifi_BLE_SDK/GD32VW55x_RELEASE_V1.0.2/MSDK/plf/riscv/env\handlers.c ****         c = ((val >> i ) & 0xF);
  48              		.loc 1 138 9 is_stmt 1
 138:C:/Users/stapi/OneDrive/Desktop/GD32VW553/V1_MQTT_OK/GD32VW55X_Wifi_BLE_SDK/GD32VW55x_RELEASE_V1.0.2/MSDK/plf/riscv/env\handlers.c ****         c = ((val >> i ) & 0xF);
  49              		.loc 1 138 19 is_stmt 0
  50 0018 B3D78400 		srl	a5,s1,s0
 138:C:/Users/stapi/OneDrive/Desktop/GD32VW553/V1_MQTT_OK/GD32VW55X_Wifi_BLE_SDK/GD32VW55x_RELEASE_V1.0.2/MSDK/plf/riscv/env\handlers.c ****         c = ((val >> i ) & 0xF);
  51              		.loc 1 138 11
  52 001c 13F7F700 		andi	a4,a5,15
  53              	.LVL3:
  54              		.loc 1 139 9 is_stmt 1
 140:C:/Users/stapi/OneDrive/Desktop/GD32VW553/V1_MQTT_OK/GD32VW55X_Wifi_BLE_SDK/GD32VW55x_RELEASE_V1.0.2/MSDK/plf/riscv/env\handlers.c ****             c += 'a' - 10;
 141:C:/Users/stapi/OneDrive/Desktop/GD32VW553/V1_MQTT_OK/GD32VW55X_Wifi_BLE_SDK/GD32VW55x_RELEASE_V1.0.2/MSDK/plf/riscv/env\handlers.c ****         else
 142:C:/Users/stapi/OneDrive/Desktop/GD32VW553/V1_MQTT_OK/GD32VW55X_Wifi_BLE_SDK/GD32VW55x_RELEASE_V1.0.2/MSDK/plf/riscv/env\handlers.c ****             c += '0';
  55              		.loc 1 142 15 is_stmt 0
  56 0020 13050703 		addi	a0,a4,48
 139:C:/Users/stapi/OneDrive/Desktop/GD32VW553/V1_MQTT_OK/GD32VW55X_Wifi_BLE_SDK/GD32VW55x_RELEASE_V1.0.2/MSDK/plf/riscv/env\handlers.c ****             c += 'a' - 10;
  57              		.loc 1 139 12
  58 0024 63D6E900 		ble	a4,s3,.L3
 140:C:/Users/stapi/OneDrive/Desktop/GD32VW553/V1_MQTT_OK/GD32VW55X_Wifi_BLE_SDK/GD32VW55x_RELEASE_V1.0.2/MSDK/plf/riscv/env\handlers.c ****             c += 'a' - 10;
  59              		.loc 1 140 13 is_stmt 1
 140:C:/Users/stapi/OneDrive/Desktop/GD32VW553/V1_MQTT_OK/GD32VW55X_Wifi_BLE_SDK/GD32VW55x_RELEASE_V1.0.2/MSDK/plf/riscv/env\handlers.c ****             c += 'a' - 10;
  60              		.loc 1 140 15 is_stmt 0
  61 0028 93077705 		addi	a5,a4,87
  62 002c 13954760 		sext.b	a0,a5
  63              	.LVL4:
  64              	.L3:
 143:C:/Users/stapi/OneDrive/Desktop/GD32VW553/V1_MQTT_OK/GD32VW55X_Wifi_BLE_SDK/GD32VW55x_RELEASE_V1.0.2/MSDK/plf/riscv/env\handlers.c ****         log_uart_putc_noint(c);
  65              		.loc 1 143 9 is_stmt 1 discriminator 2
  66 0030 1375F50F 		andi	a0,a0,0xff
 137:C:/Users/stapi/OneDrive/Desktop/GD32VW553/V1_MQTT_OK/GD32VW55X_Wifi_BLE_SDK/GD32VW55x_RELEASE_V1.0.2/MSDK/plf/riscv/env\handlers.c ****         c = ((val >> i ) & 0xF);
  67              		.loc 1 137 28 is_stmt 0 discriminator 2
  68 0034 7114     		addi	s0,s0,-4
  69              	.LVL5:
  70              		.loc 1 143 9 discriminator 2
  71 0036 97000000 		call	log_uart_putc_noint
  71      E7800000 
  72              	.LVL6:
 137:C:/Users/stapi/OneDrive/Desktop/GD32VW553/V1_MQTT_OK/GD32VW55X_Wifi_BLE_SDK/GD32VW55x_RELEASE_V1.0.2/MSDK/plf/riscv/env\handlers.c ****         c = ((val >> i ) & 0xF);
  73              		.loc 1 137 26 is_stmt 1 discriminator 2
 137:C:/Users/stapi/OneDrive/Desktop/GD32VW553/V1_MQTT_OK/GD32VW55X_Wifi_BLE_SDK/GD32VW55x_RELEASE_V1.0.2/MSDK/plf/riscv/env\handlers.c ****         c = ((val >> i ) & 0xF);
  74              		.loc 1 137 18 discriminator 2
 137:C:/Users/stapi/OneDrive/Desktop/GD32VW553/V1_MQTT_OK/GD32VW55X_Wifi_BLE_SDK/GD32VW55x_RELEASE_V1.0.2/MSDK/plf/riscv/env\handlers.c ****         c = ((val >> i ) & 0xF);
  75              		.loc 1 137 5 is_stmt 0 discriminator 2
  76 003e E31D24FD 		bne	s0,s2,.L4
 144:C:/Users/stapi/OneDrive/Desktop/GD32VW553/V1_MQTT_OK/GD32VW55X_Wifi_BLE_SDK/GD32VW55x_RELEASE_V1.0.2/MSDK/plf/riscv/env\handlers.c ****     }
 145:C:/Users/stapi/OneDrive/Desktop/GD32VW553/V1_MQTT_OK/GD32VW55X_Wifi_BLE_SDK/GD32VW55x_RELEASE_V1.0.2/MSDK/plf/riscv/env\handlers.c **** 
 146:C:/Users/stapi/OneDrive/Desktop/GD32VW553/V1_MQTT_OK/GD32VW55X_Wifi_BLE_SDK/GD32VW55x_RELEASE_V1.0.2/MSDK/plf/riscv/env\handlers.c ****     log_uart_put_data((const uint8_t *)"\r\n", strlen("\r\n"));
  77              		.loc 1 146 5 is_stmt 1
  78 0042 37050000 		lui	a0,%hi(.LC0)
  79 0046 8945     		li	a1,2
  80 0048 13050500 		addi	a0,a0,%lo(.LC0)
  81 004c 97000000 		call	log_uart_put_data
  81      E7800000 
  82              	.LVL7:
 147:C:/Users/stapi/OneDrive/Desktop/GD32VW553/V1_MQTT_OK/GD32VW55X_Wifi_BLE_SDK/GD32VW55x_RELEASE_V1.0.2/MSDK/plf/riscv/env\handlers.c **** }
  83              		.loc 1 147 1 is_stmt 0
  84 0054 17030000 		tail	__riscv_restore_4
  84      67000300 
  85              		.cfi_restore 19
  86              		.cfi_restore 18
  87              		.cfi_restore 9
  88              		.cfi_restore 8
  89              		.cfi_restore 1
  90              		.cfi_def_cfa_offset 0
  91              		.cfi_endproc
  92              	.LFE365:
  94              		.section	.text.dumpStackInfo,"ax",@progbits
  95              		.align	1
  96              		.globl	dumpStackInfo
  98              	dumpStackInfo:
  99              	.LFB366:
 148:C:/Users/stapi/OneDrive/Desktop/GD32VW553/V1_MQTT_OK/GD32VW55X_Wifi_BLE_SDK/GD32VW55x_RELEASE_V1.0.2/MSDK/plf/riscv/env\handlers.c **** #endif
 149:C:/Users/stapi/OneDrive/Desktop/GD32VW553/V1_MQTT_OK/GD32VW55X_Wifi_BLE_SDK/GD32VW55x_RELEASE_V1.0.2/MSDK/plf/riscv/env\handlers.c **** 
 150:C:/Users/stapi/OneDrive/Desktop/GD32VW553/V1_MQTT_OK/GD32VW55X_Wifi_BLE_SDK/GD32VW55x_RELEASE_V1.0.2/MSDK/plf/riscv/env\handlers.c **** #ifndef EXEC_USING_STD_PRINTF
 151:C:/Users/stapi/OneDrive/Desktop/GD32VW553/V1_MQTT_OK/GD32VW55X_Wifi_BLE_SDK/GD32VW55x_RELEASE_V1.0.2/MSDK/plf/riscv/env\handlers.c **** void dumpStackInfo(unsigned long sp, int32_t num)
 152:C:/Users/stapi/OneDrive/Desktop/GD32VW553/V1_MQTT_OK/GD32VW55X_Wifi_BLE_SDK/GD32VW55x_RELEASE_V1.0.2/MSDK/plf/riscv/env\handlers.c **** {
 100              		.loc 1 152 1 is_stmt 1
 101              		.cfi_startproc
 102              	.LVL8:
 103 0000 17030000 		call	t0,__riscv_save_6
 103      E7020300 
 104              		.cfi_offset 21, -28
 105              		.cfi_offset 20, -24
 106              		.cfi_offset 19, -20
 107              		.cfi_offset 18, -16
 108              		.cfi_offset 9, -12
 109              		.cfi_offset 8, -8
 110              		.cfi_offset 1, -4
 111              		.cfi_def_cfa_offset 32
 153:C:/Users/stapi/OneDrive/Desktop/GD32VW553/V1_MQTT_OK/GD32VW55X_Wifi_BLE_SDK/GD32VW55x_RELEASE_V1.0.2/MSDK/plf/riscv/env\handlers.c ****     uint32_t i = 0;
 112              		.loc 1 153 5
 113              	.LVL9:
 154:C:/Users/stapi/OneDrive/Desktop/GD32VW553/V1_MQTT_OK/GD32VW55X_Wifi_BLE_SDK/GD32VW55x_RELEASE_V1.0.2/MSDK/plf/riscv/env\handlers.c ****     int8_t j = 0;
 114              		.loc 1 154 5
 155:C:/Users/stapi/OneDrive/Desktop/GD32VW553/V1_MQTT_OK/GD32VW55X_Wifi_BLE_SDK/GD32VW55x_RELEASE_V1.0.2/MSDK/plf/riscv/env\handlers.c ****     char c;
 115              		.loc 1 155 5
 156:C:/Users/stapi/OneDrive/Desktop/GD32VW553/V1_MQTT_OK/GD32VW55X_Wifi_BLE_SDK/GD32VW55x_RELEASE_V1.0.2/MSDK/plf/riscv/env\handlers.c **** 
 157:C:/Users/stapi/OneDrive/Desktop/GD32VW553/V1_MQTT_OK/GD32VW55X_Wifi_BLE_SDK/GD32VW55x_RELEASE_V1.0.2/MSDK/plf/riscv/env\handlers.c ****     while(num > 0)
 116              		.loc 1 157 5
 152:C:/Users/stapi/OneDrive/Desktop/GD32VW553/V1_MQTT_OK/GD32VW55X_Wifi_BLE_SDK/GD32VW55x_RELEASE_V1.0.2/MSDK/plf/riscv/env\handlers.c ****     uint32_t i = 0;
 117              		.loc 1 152 1 is_stmt 0
 118 0008 AA89     		mv	s3,a0
 119 000a 2E89     		mv	s2,a1
 153:C:/Users/stapi/OneDrive/Desktop/GD32VW553/V1_MQTT_OK/GD32VW55X_Wifi_BLE_SDK/GD32VW55x_RELEASE_V1.0.2/MSDK/plf/riscv/env\handlers.c ****     int8_t j = 0;
 120              		.loc 1 153 14
 121 000c 8144     		li	s1,0
 122              	.LBB7:
 158:C:/Users/stapi/OneDrive/Desktop/GD32VW553/V1_MQTT_OK/GD32VW55X_Wifi_BLE_SDK/GD32VW55x_RELEASE_V1.0.2/MSDK/plf/riscv/env\handlers.c ****     {
 159:C:/Users/stapi/OneDrive/Desktop/GD32VW553/V1_MQTT_OK/GD32VW55X_Wifi_BLE_SDK/GD32VW55x_RELEASE_V1.0.2/MSDK/plf/riscv/env\handlers.c ****         uint8_t val = *(uint8_t *)sp;
 160:C:/Users/stapi/OneDrive/Desktop/GD32VW553/V1_MQTT_OK/GD32VW55X_Wifi_BLE_SDK/GD32VW55x_RELEASE_V1.0.2/MSDK/plf/riscv/env\handlers.c ****         for (j = 4; j >= 0; j -= 4) {
 161:C:/Users/stapi/OneDrive/Desktop/GD32VW553/V1_MQTT_OK/GD32VW55X_Wifi_BLE_SDK/GD32VW55x_RELEASE_V1.0.2/MSDK/plf/riscv/env\handlers.c ****             c = ((val >> j ) & 0xF);
 162:C:/Users/stapi/OneDrive/Desktop/GD32VW553/V1_MQTT_OK/GD32VW55X_Wifi_BLE_SDK/GD32VW55x_RELEASE_V1.0.2/MSDK/plf/riscv/env\handlers.c ****             if (c >= 10)
 123              		.loc 1 162 16
 124 000e 254A     		li	s4,9
 163:C:/Users/stapi/OneDrive/Desktop/GD32VW553/V1_MQTT_OK/GD32VW55X_Wifi_BLE_SDK/GD32VW55x_RELEASE_V1.0.2/MSDK/plf/riscv/env\handlers.c ****                 c += 'a' - 10;
 164:C:/Users/stapi/OneDrive/Desktop/GD32VW553/V1_MQTT_OK/GD32VW55X_Wifi_BLE_SDK/GD32VW55x_RELEASE_V1.0.2/MSDK/plf/riscv/env\handlers.c ****             else
 165:C:/Users/stapi/OneDrive/Desktop/GD32VW553/V1_MQTT_OK/GD32VW55X_Wifi_BLE_SDK/GD32VW55x_RELEASE_V1.0.2/MSDK/plf/riscv/env\handlers.c ****                 c += '0';
 166:C:/Users/stapi/OneDrive/Desktop/GD32VW553/V1_MQTT_OK/GD32VW55X_Wifi_BLE_SDK/GD32VW55x_RELEASE_V1.0.2/MSDK/plf/riscv/env\handlers.c ****             log_uart_putc_noint(c);
 167:C:/Users/stapi/OneDrive/Desktop/GD32VW553/V1_MQTT_OK/GD32VW55X_Wifi_BLE_SDK/GD32VW55x_RELEASE_V1.0.2/MSDK/plf/riscv/env\handlers.c ****         }
 168:C:/Users/stapi/OneDrive/Desktop/GD32VW553/V1_MQTT_OK/GD32VW55X_Wifi_BLE_SDK/GD32VW55x_RELEASE_V1.0.2/MSDK/plf/riscv/env\handlers.c **** 
 169:C:/Users/stapi/OneDrive/Desktop/GD32VW553/V1_MQTT_OK/GD32VW55X_Wifi_BLE_SDK/GD32VW55x_RELEASE_V1.0.2/MSDK/plf/riscv/env\handlers.c **** 
 170:C:/Users/stapi/OneDrive/Desktop/GD32VW553/V1_MQTT_OK/GD32VW55X_Wifi_BLE_SDK/GD32VW55x_RELEASE_V1.0.2/MSDK/plf/riscv/env\handlers.c ****         i++;
 171:C:/Users/stapi/OneDrive/Desktop/GD32VW553/V1_MQTT_OK/GD32VW55X_Wifi_BLE_SDK/GD32VW55x_RELEASE_V1.0.2/MSDK/plf/riscv/env\handlers.c ****         sp++;
 172:C:/Users/stapi/OneDrive/Desktop/GD32VW553/V1_MQTT_OK/GD32VW55X_Wifi_BLE_SDK/GD32VW55x_RELEASE_V1.0.2/MSDK/plf/riscv/env\handlers.c ****         if ((i % 16) == 0) {
 173:C:/Users/stapi/OneDrive/Desktop/GD32VW553/V1_MQTT_OK/GD32VW55X_Wifi_BLE_SDK/GD32VW55x_RELEASE_V1.0.2/MSDK/plf/riscv/env\handlers.c ****             log_uart_put_data((uint8_t *)"\r\n", strlen("\r\n"));
 125              		.loc 1 173 13
 126 0010 B70A0000 		lui	s5,%hi(.LC0)
 127              	.LVL10:
 128              	.L8:
 129              	.LBE7:
 157:C:/Users/stapi/OneDrive/Desktop/GD32VW553/V1_MQTT_OK/GD32VW55X_Wifi_BLE_SDK/GD32VW55x_RELEASE_V1.0.2/MSDK/plf/riscv/env\handlers.c ****     {
 130              		.loc 1 157 10 is_stmt 1
 131 0014 B3079940 		sub	a5,s2,s1
 132              	.LVL11:
 133 0018 6346F000 		bgt	a5,zero,.L15
 174:C:/Users/stapi/OneDrive/Desktop/GD32VW553/V1_MQTT_OK/GD32VW55X_Wifi_BLE_SDK/GD32VW55x_RELEASE_V1.0.2/MSDK/plf/riscv/env\handlers.c ****         }
 175:C:/Users/stapi/OneDrive/Desktop/GD32VW553/V1_MQTT_OK/GD32VW55X_Wifi_BLE_SDK/GD32VW55x_RELEASE_V1.0.2/MSDK/plf/riscv/env\handlers.c ****         else {
 176:C:/Users/stapi/OneDrive/Desktop/GD32VW553/V1_MQTT_OK/GD32VW55X_Wifi_BLE_SDK/GD32VW55x_RELEASE_V1.0.2/MSDK/plf/riscv/env\handlers.c ****             log_uart_putc_noint(',');
 177:C:/Users/stapi/OneDrive/Desktop/GD32VW553/V1_MQTT_OK/GD32VW55X_Wifi_BLE_SDK/GD32VW55x_RELEASE_V1.0.2/MSDK/plf/riscv/env\handlers.c ****             log_uart_putc_noint(' ');
 178:C:/Users/stapi/OneDrive/Desktop/GD32VW553/V1_MQTT_OK/GD32VW55X_Wifi_BLE_SDK/GD32VW55x_RELEASE_V1.0.2/MSDK/plf/riscv/env\handlers.c ****         }
 179:C:/Users/stapi/OneDrive/Desktop/GD32VW553/V1_MQTT_OK/GD32VW55X_Wifi_BLE_SDK/GD32VW55x_RELEASE_V1.0.2/MSDK/plf/riscv/env\handlers.c **** 
 180:C:/Users/stapi/OneDrive/Desktop/GD32VW553/V1_MQTT_OK/GD32VW55X_Wifi_BLE_SDK/GD32VW55x_RELEASE_V1.0.2/MSDK/plf/riscv/env\handlers.c ****         num--;
 181:C:/Users/stapi/OneDrive/Desktop/GD32VW553/V1_MQTT_OK/GD32VW55X_Wifi_BLE_SDK/GD32VW55x_RELEASE_V1.0.2/MSDK/plf/riscv/env\handlers.c ****     }
 182:C:/Users/stapi/OneDrive/Desktop/GD32VW553/V1_MQTT_OK/GD32VW55X_Wifi_BLE_SDK/GD32VW55x_RELEASE_V1.0.2/MSDK/plf/riscv/env\handlers.c **** }
 134              		.loc 1 182 1 is_stmt 0
 135 001c 17030000 		tail	__riscv_restore_6
 135      67000300 
 136              		.cfi_remember_state
 137              		.cfi_restore 21
 138              		.cfi_restore 20
 139              		.cfi_restore 19
 140              		.cfi_restore 18
 141              		.cfi_restore 9
 142              		.cfi_restore 8
 143              		.cfi_restore 1
 144              		.cfi_def_cfa_offset 0
 145              	.L15:
 146              		.cfi_restore_state
 147              	.LBB8:
 159:C:/Users/stapi/OneDrive/Desktop/GD32VW553/V1_MQTT_OK/GD32VW55X_Wifi_BLE_SDK/GD32VW55x_RELEASE_V1.0.2/MSDK/plf/riscv/env\handlers.c ****         for (j = 4; j >= 0; j -= 4) {
 148              		.loc 1 159 9 is_stmt 1
 159:C:/Users/stapi/OneDrive/Desktop/GD32VW553/V1_MQTT_OK/GD32VW55X_Wifi_BLE_SDK/GD32VW55x_RELEASE_V1.0.2/MSDK/plf/riscv/env\handlers.c ****         for (j = 4; j >= 0; j -= 4) {
 149              		.loc 1 159 17 is_stmt 0
 150 0024 B3873401 		add	a5,s1,s3
 151              	.LVL12:
 152 0028 03C40700 		lbu	s0,0(a5)
 153              	.LVL13:
 160:C:/Users/stapi/OneDrive/Desktop/GD32VW553/V1_MQTT_OK/GD32VW55X_Wifi_BLE_SDK/GD32VW55x_RELEASE_V1.0.2/MSDK/plf/riscv/env\handlers.c ****             c = ((val >> j ) & 0xF);
 154              		.loc 1 160 9 is_stmt 1
 160:C:/Users/stapi/OneDrive/Desktop/GD32VW553/V1_MQTT_OK/GD32VW55X_Wifi_BLE_SDK/GD32VW55x_RELEASE_V1.0.2/MSDK/plf/riscv/env\handlers.c ****             c = ((val >> j ) & 0xF);
 155              		.loc 1 160 21
 161:C:/Users/stapi/OneDrive/Desktop/GD32VW553/V1_MQTT_OK/GD32VW55X_Wifi_BLE_SDK/GD32VW55x_RELEASE_V1.0.2/MSDK/plf/riscv/env\handlers.c ****             if (c >= 10)
 156              		.loc 1 161 13
 161:C:/Users/stapi/OneDrive/Desktop/GD32VW553/V1_MQTT_OK/GD32VW55X_Wifi_BLE_SDK/GD32VW55x_RELEASE_V1.0.2/MSDK/plf/riscv/env\handlers.c ****             if (c >= 10)
 157              		.loc 1 161 23 is_stmt 0
 158 002c 13574440 		srai	a4,s0,4
 159              	.LVL14:
 162:C:/Users/stapi/OneDrive/Desktop/GD32VW553/V1_MQTT_OK/GD32VW55X_Wifi_BLE_SDK/GD32VW55x_RELEASE_V1.0.2/MSDK/plf/riscv/env\handlers.c ****                 c += 'a' - 10;
 160              		.loc 1 162 13 is_stmt 1
 165:C:/Users/stapi/OneDrive/Desktop/GD32VW553/V1_MQTT_OK/GD32VW55X_Wifi_BLE_SDK/GD32VW55x_RELEASE_V1.0.2/MSDK/plf/riscv/env\handlers.c ****             log_uart_putc_noint(c);
 161              		.loc 1 165 19 is_stmt 0
 162 0030 93574400 		srli	a5,s0,4
 162:C:/Users/stapi/OneDrive/Desktop/GD32VW553/V1_MQTT_OK/GD32VW55X_Wifi_BLE_SDK/GD32VW55x_RELEASE_V1.0.2/MSDK/plf/riscv/env\handlers.c ****                 c += 'a' - 10;
 163              		.loc 1 162 16
 164 0034 6342EA04 		bgt	a4,s4,.L9
 165:C:/Users/stapi/OneDrive/Desktop/GD32VW553/V1_MQTT_OK/GD32VW55X_Wifi_BLE_SDK/GD32VW55x_RELEASE_V1.0.2/MSDK/plf/riscv/env\handlers.c ****             log_uart_putc_noint(c);
 165              		.loc 1 165 17 is_stmt 1
 165:C:/Users/stapi/OneDrive/Desktop/GD32VW553/V1_MQTT_OK/GD32VW55X_Wifi_BLE_SDK/GD32VW55x_RELEASE_V1.0.2/MSDK/plf/riscv/env\handlers.c ****             log_uart_putc_noint(c);
 166              		.loc 1 165 19 is_stmt 0
 167 0038 93870703 		addi	a5,a5,48
 168              	.LVL15:
 169              	.L10:
 166:C:/Users/stapi/OneDrive/Desktop/GD32VW553/V1_MQTT_OK/GD32VW55X_Wifi_BLE_SDK/GD32VW55x_RELEASE_V1.0.2/MSDK/plf/riscv/env\handlers.c ****         }
 170              		.loc 1 166 13 is_stmt 1
 171 003c 13F5F70F 		andi	a0,a5,0xff
 172 0040 97000000 		call	log_uart_putc_noint
 172      E7800000 
 173              	.LVL16:
 160:C:/Users/stapi/OneDrive/Desktop/GD32VW553/V1_MQTT_OK/GD32VW55X_Wifi_BLE_SDK/GD32VW55x_RELEASE_V1.0.2/MSDK/plf/riscv/env\handlers.c ****             c = ((val >> j ) & 0xF);
 174              		.loc 1 160 29
 160:C:/Users/stapi/OneDrive/Desktop/GD32VW553/V1_MQTT_OK/GD32VW55X_Wifi_BLE_SDK/GD32VW55x_RELEASE_V1.0.2/MSDK/plf/riscv/env\handlers.c ****             c = ((val >> j ) & 0xF);
 175              		.loc 1 160 21
 161:C:/Users/stapi/OneDrive/Desktop/GD32VW553/V1_MQTT_OK/GD32VW55X_Wifi_BLE_SDK/GD32VW55x_RELEASE_V1.0.2/MSDK/plf/riscv/env\handlers.c ****             if (c >= 10)
 176              		.loc 1 161 13
 161:C:/Users/stapi/OneDrive/Desktop/GD32VW553/V1_MQTT_OK/GD32VW55X_Wifi_BLE_SDK/GD32VW55x_RELEASE_V1.0.2/MSDK/plf/riscv/env\handlers.c ****             if (c >= 10)
 177              		.loc 1 161 15 is_stmt 0
 178 0048 9377F400 		andi	a5,s0,15
 179              	.LVL17:
 162:C:/Users/stapi/OneDrive/Desktop/GD32VW553/V1_MQTT_OK/GD32VW55X_Wifi_BLE_SDK/GD32VW55x_RELEASE_V1.0.2/MSDK/plf/riscv/env\handlers.c ****                 c += 'a' - 10;
 180              		.loc 1 162 13 is_stmt 1
 162:C:/Users/stapi/OneDrive/Desktop/GD32VW553/V1_MQTT_OK/GD32VW55X_Wifi_BLE_SDK/GD32VW55x_RELEASE_V1.0.2/MSDK/plf/riscv/env\handlers.c ****                 c += 'a' - 10;
 181              		.loc 1 162 16 is_stmt 0
 182 004c 634BFA02 		bgt	a5,s4,.L11
 165:C:/Users/stapi/OneDrive/Desktop/GD32VW553/V1_MQTT_OK/GD32VW55X_Wifi_BLE_SDK/GD32VW55x_RELEASE_V1.0.2/MSDK/plf/riscv/env\handlers.c ****             log_uart_putc_noint(c);
 183              		.loc 1 165 17 is_stmt 1
 165:C:/Users/stapi/OneDrive/Desktop/GD32VW553/V1_MQTT_OK/GD32VW55X_Wifi_BLE_SDK/GD32VW55x_RELEASE_V1.0.2/MSDK/plf/riscv/env\handlers.c ****             log_uart_putc_noint(c);
 184              		.loc 1 165 19 is_stmt 0
 185 0050 13840703 		addi	s0,a5,48
 186              	.LVL18:
 187              	.L12:
 166:C:/Users/stapi/OneDrive/Desktop/GD32VW553/V1_MQTT_OK/GD32VW55X_Wifi_BLE_SDK/GD32VW55x_RELEASE_V1.0.2/MSDK/plf/riscv/env\handlers.c ****         }
 188              		.loc 1 166 13 is_stmt 1
 189 0054 1375F40F 		andi	a0,s0,0xff
 190 0058 97000000 		call	log_uart_putc_noint
 190      E7800000 
 191              	.LVL19:
 160:C:/Users/stapi/OneDrive/Desktop/GD32VW553/V1_MQTT_OK/GD32VW55X_Wifi_BLE_SDK/GD32VW55x_RELEASE_V1.0.2/MSDK/plf/riscv/env\handlers.c ****             c = ((val >> j ) & 0xF);
 192              		.loc 1 160 29
 160:C:/Users/stapi/OneDrive/Desktop/GD32VW553/V1_MQTT_OK/GD32VW55X_Wifi_BLE_SDK/GD32VW55x_RELEASE_V1.0.2/MSDK/plf/riscv/env\handlers.c ****             c = ((val >> j ) & 0xF);
 193              		.loc 1 160 21
 170:C:/Users/stapi/OneDrive/Desktop/GD32VW553/V1_MQTT_OK/GD32VW55X_Wifi_BLE_SDK/GD32VW55x_RELEASE_V1.0.2/MSDK/plf/riscv/env\handlers.c ****         sp++;
 194              		.loc 1 170 9
 170:C:/Users/stapi/OneDrive/Desktop/GD32VW553/V1_MQTT_OK/GD32VW55X_Wifi_BLE_SDK/GD32VW55x_RELEASE_V1.0.2/MSDK/plf/riscv/env\handlers.c ****         sp++;
 195              		.loc 1 170 10 is_stmt 0
 196 0060 8504     		addi	s1,s1,1
 197              	.LVL20:
 171:C:/Users/stapi/OneDrive/Desktop/GD32VW553/V1_MQTT_OK/GD32VW55X_Wifi_BLE_SDK/GD32VW55x_RELEASE_V1.0.2/MSDK/plf/riscv/env\handlers.c ****         if ((i % 16) == 0) {
 198              		.loc 1 171 9 is_stmt 1
 172:C:/Users/stapi/OneDrive/Desktop/GD32VW553/V1_MQTT_OK/GD32VW55X_Wifi_BLE_SDK/GD32VW55x_RELEASE_V1.0.2/MSDK/plf/riscv/env\handlers.c ****             log_uart_put_data((uint8_t *)"\r\n", strlen("\r\n"));
 199              		.loc 1 172 9
 172:C:/Users/stapi/OneDrive/Desktop/GD32VW553/V1_MQTT_OK/GD32VW55X_Wifi_BLE_SDK/GD32VW55x_RELEASE_V1.0.2/MSDK/plf/riscv/env\handlers.c ****             log_uart_put_data((uint8_t *)"\r\n", strlen("\r\n"));
 200              		.loc 1 172 16 is_stmt 0
 201 0062 93F7F400 		andi	a5,s1,15
 172:C:/Users/stapi/OneDrive/Desktop/GD32VW553/V1_MQTT_OK/GD32VW55X_Wifi_BLE_SDK/GD32VW55x_RELEASE_V1.0.2/MSDK/plf/riscv/env\handlers.c ****             log_uart_put_data((uint8_t *)"\r\n", strlen("\r\n"));
 202              		.loc 1 172 12
 203 0066 9DE3     		bne	a5,zero,.L13
 173:C:/Users/stapi/OneDrive/Desktop/GD32VW553/V1_MQTT_OK/GD32VW55X_Wifi_BLE_SDK/GD32VW55x_RELEASE_V1.0.2/MSDK/plf/riscv/env\handlers.c ****         }
 204              		.loc 1 173 13 is_stmt 1
 205 0068 8945     		li	a1,2
 206 006a 13850A00 		addi	a0,s5,%lo(.LC0)
 207 006e 97000000 		call	log_uart_put_data
 207      E7800000 
 208              	.LVL21:
 209 0076 79BF     		j	.L8
 210              	.LVL22:
 211              	.L9:
 163:C:/Users/stapi/OneDrive/Desktop/GD32VW553/V1_MQTT_OK/GD32VW55X_Wifi_BLE_SDK/GD32VW55x_RELEASE_V1.0.2/MSDK/plf/riscv/env\handlers.c ****             else
 212              		.loc 1 163 17
 163:C:/Users/stapi/OneDrive/Desktop/GD32VW553/V1_MQTT_OK/GD32VW55X_Wifi_BLE_SDK/GD32VW55x_RELEASE_V1.0.2/MSDK/plf/riscv/env\handlers.c ****             else
 213              		.loc 1 163 19 is_stmt 0
 214 0078 93877705 		addi	a5,a5,87
 215 007c 93974760 		sext.b	a5,a5
 216              	.LVL23:
 217 0080 75BF     		j	.L10
 218              	.LVL24:
 219              	.L11:
 163:C:/Users/stapi/OneDrive/Desktop/GD32VW553/V1_MQTT_OK/GD32VW55X_Wifi_BLE_SDK/GD32VW55x_RELEASE_V1.0.2/MSDK/plf/riscv/env\handlers.c ****             else
 220              		.loc 1 163 17 is_stmt 1
 163:C:/Users/stapi/OneDrive/Desktop/GD32VW553/V1_MQTT_OK/GD32VW55X_Wifi_BLE_SDK/GD32VW55x_RELEASE_V1.0.2/MSDK/plf/riscv/env\handlers.c ****             else
 221              		.loc 1 163 19 is_stmt 0
 222 0082 13847705 		addi	s0,a5,87
 223              	.LVL25:
 224 0086 13144460 		sext.b	s0,s0
 225              	.LVL26:
 226 008a E9B7     		j	.L12
 227              	.LVL27:
 228              	.L13:
 176:C:/Users/stapi/OneDrive/Desktop/GD32VW553/V1_MQTT_OK/GD32VW55X_Wifi_BLE_SDK/GD32VW55x_RELEASE_V1.0.2/MSDK/plf/riscv/env\handlers.c ****             log_uart_putc_noint(' ');
 229              		.loc 1 176 13 is_stmt 1
 230 008c 1305C002 		li	a0,44
 231 0090 97000000 		call	log_uart_putc_noint
 231      E7800000 
 232              	.LVL28:
 177:C:/Users/stapi/OneDrive/Desktop/GD32VW553/V1_MQTT_OK/GD32VW55X_Wifi_BLE_SDK/GD32VW55x_RELEASE_V1.0.2/MSDK/plf/riscv/env\handlers.c ****         }
 233              		.loc 1 177 13
 234 0098 13050002 		li	a0,32
 235 009c 97000000 		call	log_uart_putc_noint
 235      E7800000 
 236              	.LVL29:
 180:C:/Users/stapi/OneDrive/Desktop/GD32VW553/V1_MQTT_OK/GD32VW55X_Wifi_BLE_SDK/GD32VW55x_RELEASE_V1.0.2/MSDK/plf/riscv/env\handlers.c ****     }
 237              		.loc 1 180 9
 238 00a4 85BF     		j	.L8
 239              	.LBE8:
 240              		.cfi_endproc
 241              	.LFE366:
 243              		.section	.rodata.xCurrentTaskDumpInfo.str1.4,"aMS",@progbits,1
 244              		.align	2
 245              	.LC1:
 246 0000 73657420 		.string	"set configRECORD_STACK_HIGH_ADDRESS=1 to get precise data\r\n"
 246      636F6E66 
 246      69675245 
 246      434F5244 
 246      5F535441 
 247              		.align	2
 248              	.LC2:
 249 003c 20537461 		.string	" Stack Dump:\r\n"
 249      636B2044 
 249      756D703A 
 249      0D0A00
 250              		.section	.text.xCurrentTaskDumpInfo,"ax",@progbits
 251              		.align	1
 252              		.globl	xCurrentTaskDumpInfo
 254              	xCurrentTaskDumpInfo:
 255              	.LFB367:
 183:C:/Users/stapi/OneDrive/Desktop/GD32VW553/V1_MQTT_OK/GD32VW55X_Wifi_BLE_SDK/GD32VW55x_RELEASE_V1.0.2/MSDK/plf/riscv/env\handlers.c **** 
 184:C:/Users/stapi/OneDrive/Desktop/GD32VW553/V1_MQTT_OK/GD32VW55X_Wifi_BLE_SDK/GD32VW55x_RELEASE_V1.0.2/MSDK/plf/riscv/env\handlers.c **** void xCurrentTaskDumpInfo(unsigned long sp)
 185:C:/Users/stapi/OneDrive/Desktop/GD32VW553/V1_MQTT_OK/GD32VW55X_Wifi_BLE_SDK/GD32VW55x_RELEASE_V1.0.2/MSDK/plf/riscv/env\handlers.c **** {
 256              		.loc 1 185 1
 257              		.cfi_startproc
 258              	.LVL30:
 259 0000 17030000 		call	t0,__riscv_save_5
 259      E7020300 
 260              		.cfi_offset 20, -24
 261              		.cfi_offset 19, -20
 262              		.cfi_offset 18, -16
 263              		.cfi_offset 9, -12
 264              		.cfi_offset 8, -8
 265              		.cfi_offset 1, -4
 266              		.cfi_def_cfa_offset 32
 186:C:/Users/stapi/OneDrive/Desktop/GD32VW553/V1_MQTT_OK/GD32VW55X_Wifi_BLE_SDK/GD32VW55x_RELEASE_V1.0.2/MSDK/plf/riscv/env\handlers.c ****     int8_t j = 0;
 267              		.loc 1 186 5
 268              	.LVL31:
 187:C:/Users/stapi/OneDrive/Desktop/GD32VW553/V1_MQTT_OK/GD32VW55X_Wifi_BLE_SDK/GD32VW55x_RELEASE_V1.0.2/MSDK/plf/riscv/env\handlers.c ****     char *pcTaskName = sys_task_name_get(NULL);
 269              		.loc 1 187 5
 185:C:/Users/stapi/OneDrive/Desktop/GD32VW553/V1_MQTT_OK/GD32VW55X_Wifi_BLE_SDK/GD32VW55x_RELEASE_V1.0.2/MSDK/plf/riscv/env\handlers.c ****     int8_t j = 0;
 270              		.loc 1 185 1 is_stmt 0
 271 0008 2A84     		mv	s0,a0
 272              		.loc 1 187 24
 273 000a 0145     		li	a0,0
 274              	.LVL32:
 275 000c 97000000 		call	sys_task_name_get
 275      E7800000 
 276              	.LVL33:
 277 0014 AA89     		mv	s3,a0
 278              	.LVL34:
 188:C:/Users/stapi/OneDrive/Desktop/GD32VW553/V1_MQTT_OK/GD32VW55X_Wifi_BLE_SDK/GD32VW55x_RELEASE_V1.0.2/MSDK/plf/riscv/env\handlers.c ****     int32_t num = sys_current_task_stack_depth(sp);
 279              		.loc 1 188 5 is_stmt 1
 280              		.loc 1 188 19 is_stmt 0
 281 0016 2285     		mv	a0,s0
 282              	.LVL35:
 283 0018 97000000 		call	sys_current_task_stack_depth
 283      E7800000 
 284              	.LVL36:
 285 0020 2A89     		mv	s2,a0
 286              	.LVL37:
 189:C:/Users/stapi/OneDrive/Desktop/GD32VW553/V1_MQTT_OK/GD32VW55X_Wifi_BLE_SDK/GD32VW55x_RELEASE_V1.0.2/MSDK/plf/riscv/env\handlers.c **** #if (configRECORD_STACK_HIGH_ADDRESS == 0)
 190:C:/Users/stapi/OneDrive/Desktop/GD32VW553/V1_MQTT_OK/GD32VW55X_Wifi_BLE_SDK/GD32VW55x_RELEASE_V1.0.2/MSDK/plf/riscv/env\handlers.c ****     log_uart_put_data((const uint8_t *)"set configRECORD_STACK_HIGH_ADDRESS=1 to get precise data\r
 287              		.loc 1 190 5 is_stmt 1
 288 0022 37050000 		lui	a0,%hi(.LC1)
 289              	.LVL38:
 290 0026 9305B003 		li	a1,59
 291 002a 13050500 		addi	a0,a0,%lo(.LC1)
 292 002e 97000000 		call	log_uart_put_data
 292      E7800000 
 293              	.LVL39:
 191:C:/Users/stapi/OneDrive/Desktop/GD32VW553/V1_MQTT_OK/GD32VW55X_Wifi_BLE_SDK/GD32VW55x_RELEASE_V1.0.2/MSDK/plf/riscv/env\handlers.c ****                        strlen("set configRECORD_STACK_HIGH_ADDRESS=1 to get precise data\r\n"));
 192:C:/Users/stapi/OneDrive/Desktop/GD32VW553/V1_MQTT_OK/GD32VW55X_Wifi_BLE_SDK/GD32VW55x_RELEASE_V1.0.2/MSDK/plf/riscv/env\handlers.c **** #endif
 193:C:/Users/stapi/OneDrive/Desktop/GD32VW553/V1_MQTT_OK/GD32VW55X_Wifi_BLE_SDK/GD32VW55x_RELEASE_V1.0.2/MSDK/plf/riscv/env\handlers.c **** 
 194:C:/Users/stapi/OneDrive/Desktop/GD32VW553/V1_MQTT_OK/GD32VW55X_Wifi_BLE_SDK/GD32VW55x_RELEASE_V1.0.2/MSDK/plf/riscv/env\handlers.c ****     for(j = 0; j < 100; j++)
 294              		.loc 1 194 5
 295              		.loc 1 194 16
 190:C:/Users/stapi/OneDrive/Desktop/GD32VW553/V1_MQTT_OK/GD32VW55X_Wifi_BLE_SDK/GD32VW55x_RELEASE_V1.0.2/MSDK/plf/riscv/env\handlers.c ****                        strlen("set configRECORD_STACK_HIGH_ADDRESS=1 to get precise data\r\n"));
 296              		.loc 1 190 5 is_stmt 0
 297 0036 8144     		li	s1,0
 298              		.loc 1 194 5
 299 0038 130A4006 		li	s4,100
 300              	.LVL40:
 301              	.L19:
 195:C:/Users/stapi/OneDrive/Desktop/GD32VW553/V1_MQTT_OK/GD32VW55X_Wifi_BLE_SDK/GD32VW55x_RELEASE_V1.0.2/MSDK/plf/riscv/env\handlers.c ****     {
 196:C:/Users/stapi/OneDrive/Desktop/GD32VW553/V1_MQTT_OK/GD32VW55X_Wifi_BLE_SDK/GD32VW55x_RELEASE_V1.0.2/MSDK/plf/riscv/env\handlers.c ****         if (pcTaskName[j] != '\0')
 302              		.loc 1 196 9 is_stmt 1
 303              		.loc 1 196 23 is_stmt 0
 304 003c B3879900 		add	a5,s3,s1
 305 0040 03850700 		lb	a0,0(a5)
 306              		.loc 1 196 12
 307 0044 11C9     		beq	a0,zero,.L18
 197:C:/Users/stapi/OneDrive/Desktop/GD32VW553/V1_MQTT_OK/GD32VW55X_Wifi_BLE_SDK/GD32VW55x_RELEASE_V1.0.2/MSDK/plf/riscv/env\handlers.c ****         {
 198:C:/Users/stapi/OneDrive/Desktop/GD32VW553/V1_MQTT_OK/GD32VW55X_Wifi_BLE_SDK/GD32VW55x_RELEASE_V1.0.2/MSDK/plf/riscv/env\handlers.c ****             log_uart_putc_noint(pcTaskName[j]);
 308              		.loc 1 198 13 is_stmt 1 discriminator 2
 309 0046 1375F50F 		andi	a0,a0,0xff
 194:C:/Users/stapi/OneDrive/Desktop/GD32VW553/V1_MQTT_OK/GD32VW55X_Wifi_BLE_SDK/GD32VW55x_RELEASE_V1.0.2/MSDK/plf/riscv/env\handlers.c ****     {
 310              		.loc 1 194 5 is_stmt 0 discriminator 2
 311 004a 8504     		addi	s1,s1,1
 312              	.LVL41:
 313              		.loc 1 198 13 discriminator 2
 314 004c 97000000 		call	log_uart_putc_noint
 314      E7800000 
 315              	.LVL42:
 194:C:/Users/stapi/OneDrive/Desktop/GD32VW553/V1_MQTT_OK/GD32VW55X_Wifi_BLE_SDK/GD32VW55x_RELEASE_V1.0.2/MSDK/plf/riscv/env\handlers.c ****     {
 316              		.loc 1 194 25 is_stmt 1 discriminator 2
 194:C:/Users/stapi/OneDrive/Desktop/GD32VW553/V1_MQTT_OK/GD32VW55X_Wifi_BLE_SDK/GD32VW55x_RELEASE_V1.0.2/MSDK/plf/riscv/env\handlers.c ****     {
 317              		.loc 1 194 16 discriminator 2
 194:C:/Users/stapi/OneDrive/Desktop/GD32VW553/V1_MQTT_OK/GD32VW55X_Wifi_BLE_SDK/GD32VW55x_RELEASE_V1.0.2/MSDK/plf/riscv/env\handlers.c ****     {
 318              		.loc 1 194 5 is_stmt 0 discriminator 2
 319 0054 E39444FF 		bne	s1,s4,.L19
 320              	.L18:
 199:C:/Users/stapi/OneDrive/Desktop/GD32VW553/V1_MQTT_OK/GD32VW55X_Wifi_BLE_SDK/GD32VW55x_RELEASE_V1.0.2/MSDK/plf/riscv/env\handlers.c ****         }
 200:C:/Users/stapi/OneDrive/Desktop/GD32VW553/V1_MQTT_OK/GD32VW55X_Wifi_BLE_SDK/GD32VW55x_RELEASE_V1.0.2/MSDK/plf/riscv/env\handlers.c ****         else
 201:C:/Users/stapi/OneDrive/Desktop/GD32VW553/V1_MQTT_OK/GD32VW55X_Wifi_BLE_SDK/GD32VW55x_RELEASE_V1.0.2/MSDK/plf/riscv/env\handlers.c ****             break;
 202:C:/Users/stapi/OneDrive/Desktop/GD32VW553/V1_MQTT_OK/GD32VW55X_Wifi_BLE_SDK/GD32VW55x_RELEASE_V1.0.2/MSDK/plf/riscv/env\handlers.c ****     }
 203:C:/Users/stapi/OneDrive/Desktop/GD32VW553/V1_MQTT_OK/GD32VW55X_Wifi_BLE_SDK/GD32VW55x_RELEASE_V1.0.2/MSDK/plf/riscv/env\handlers.c **** 
 204:C:/Users/stapi/OneDrive/Desktop/GD32VW553/V1_MQTT_OK/GD32VW55X_Wifi_BLE_SDK/GD32VW55x_RELEASE_V1.0.2/MSDK/plf/riscv/env\handlers.c ****     log_uart_put_data((uint8_t *)" Stack Dump:\r\n", strlen(" Stack Dump:\r\n"));
 321              		.loc 1 204 5 is_stmt 1
 322 0058 37050000 		lui	a0,%hi(.LC2)
 323 005c B945     		li	a1,14
 324 005e 13050500 		addi	a0,a0,%lo(.LC2)
 325 0062 97000000 		call	log_uart_put_data
 325      E7800000 
 326              	.LVL43:
 205:C:/Users/stapi/OneDrive/Desktop/GD32VW553/V1_MQTT_OK/GD32VW55X_Wifi_BLE_SDK/GD32VW55x_RELEASE_V1.0.2/MSDK/plf/riscv/env\handlers.c **** 
 206:C:/Users/stapi/OneDrive/Desktop/GD32VW553/V1_MQTT_OK/GD32VW55X_Wifi_BLE_SDK/GD32VW55x_RELEASE_V1.0.2/MSDK/plf/riscv/env\handlers.c ****     dumpStackInfo(sp, num);
 327              		.loc 1 206 5
 328 006a CA85     		mv	a1,s2
 329 006c 2285     		mv	a0,s0
 330 006e 97000000 		call	dumpStackInfo
 330      E7800000 
 331              	.LVL44:
 207:C:/Users/stapi/OneDrive/Desktop/GD32VW553/V1_MQTT_OK/GD32VW55X_Wifi_BLE_SDK/GD32VW55x_RELEASE_V1.0.2/MSDK/plf/riscv/env\handlers.c **** }
 332              		.loc 1 207 1 is_stmt 0
 333 0076 17030000 		tail	__riscv_restore_5
 333      67000300 
 334              		.cfi_restore 20
 335              		.cfi_restore 19
 336              		.cfi_restore 18
 337              		.cfi_restore 9
 338              		.cfi_restore 8
 339              		.cfi_restore 1
 340              		.cfi_def_cfa_offset 0
 341              		.cfi_endproc
 342              	.LFE367:
 344              		.section	.text.Exception_Init,"ax",@progbits
 345              		.align	1
 346              		.globl	Exception_Init
 348              	Exception_Init:
 349              	.LFB372:
 208:C:/Users/stapi/OneDrive/Desktop/GD32VW553/V1_MQTT_OK/GD32VW55X_Wifi_BLE_SDK/GD32VW55x_RELEASE_V1.0.2/MSDK/plf/riscv/env\handlers.c **** 
 209:C:/Users/stapi/OneDrive/Desktop/GD32VW553/V1_MQTT_OK/GD32VW55X_Wifi_BLE_SDK/GD32VW55x_RELEASE_V1.0.2/MSDK/plf/riscv/env\handlers.c **** static bool parseUartCmd(char *p_buf, uint8_t buf_len, unsigned long sp) {
 210:C:/Users/stapi/OneDrive/Desktop/GD32VW553/V1_MQTT_OK/GD32VW55X_Wifi_BLE_SDK/GD32VW55x_RELEASE_V1.0.2/MSDK/plf/riscv/env\handlers.c ****     uint8_t idx = 0;
 211:C:/Users/stapi/OneDrive/Desktop/GD32VW553/V1_MQTT_OK/GD32VW55X_Wifi_BLE_SDK/GD32VW55x_RELEASE_V1.0.2/MSDK/plf/riscv/env\handlers.c ****     uint8_t state = 0;
 212:C:/Users/stapi/OneDrive/Desktop/GD32VW553/V1_MQTT_OK/GD32VW55X_Wifi_BLE_SDK/GD32VW55x_RELEASE_V1.0.2/MSDK/plf/riscv/env\handlers.c ****     uint32_t start_addr = 0;
 213:C:/Users/stapi/OneDrive/Desktop/GD32VW553/V1_MQTT_OK/GD32VW55X_Wifi_BLE_SDK/GD32VW55x_RELEASE_V1.0.2/MSDK/plf/riscv/env\handlers.c ****     uint8_t len = 0;
 214:C:/Users/stapi/OneDrive/Desktop/GD32VW553/V1_MQTT_OK/GD32VW55X_Wifi_BLE_SDK/GD32VW55x_RELEASE_V1.0.2/MSDK/plf/riscv/env\handlers.c ****     int8_t i, j;
 215:C:/Users/stapi/OneDrive/Desktop/GD32VW553/V1_MQTT_OK/GD32VW55X_Wifi_BLE_SDK/GD32VW55x_RELEASE_V1.0.2/MSDK/plf/riscv/env\handlers.c ****     char c;
 216:C:/Users/stapi/OneDrive/Desktop/GD32VW553/V1_MQTT_OK/GD32VW55X_Wifi_BLE_SDK/GD32VW55x_RELEASE_V1.0.2/MSDK/plf/riscv/env\handlers.c ****     char cmdr[] = {'r', 'm', 'e', 'm', ' '};
 217:C:/Users/stapi/OneDrive/Desktop/GD32VW553/V1_MQTT_OK/GD32VW55X_Wifi_BLE_SDK/GD32VW55x_RELEASE_V1.0.2/MSDK/plf/riscv/env\handlers.c ****     char cmdd[] = {'d', 'u', 'm', 'p'};
 218:C:/Users/stapi/OneDrive/Desktop/GD32VW553/V1_MQTT_OK/GD32VW55X_Wifi_BLE_SDK/GD32VW55x_RELEASE_V1.0.2/MSDK/plf/riscv/env\handlers.c ****     char cmdh[] = {'h', 'e', 'l', 'p'};
 219:C:/Users/stapi/OneDrive/Desktop/GD32VW553/V1_MQTT_OK/GD32VW55X_Wifi_BLE_SDK/GD32VW55x_RELEASE_V1.0.2/MSDK/plf/riscv/env\handlers.c **** 
 220:C:/Users/stapi/OneDrive/Desktop/GD32VW553/V1_MQTT_OK/GD32VW55X_Wifi_BLE_SDK/GD32VW55x_RELEASE_V1.0.2/MSDK/plf/riscv/env\handlers.c ****     while(idx < buf_len) {
 221:C:/Users/stapi/OneDrive/Desktop/GD32VW553/V1_MQTT_OK/GD32VW55X_Wifi_BLE_SDK/GD32VW55x_RELEASE_V1.0.2/MSDK/plf/riscv/env\handlers.c ****         switch (state) {
 222:C:/Users/stapi/OneDrive/Desktop/GD32VW553/V1_MQTT_OK/GD32VW55X_Wifi_BLE_SDK/GD32VW55x_RELEASE_V1.0.2/MSDK/plf/riscv/env\handlers.c ****         case 0:
 223:C:/Users/stapi/OneDrive/Desktop/GD32VW553/V1_MQTT_OK/GD32VW55X_Wifi_BLE_SDK/GD32VW55x_RELEASE_V1.0.2/MSDK/plf/riscv/env\handlers.c ****             if (p_buf[idx] == 'r' && (buf_len - idx) > 5) {
 224:C:/Users/stapi/OneDrive/Desktop/GD32VW553/V1_MQTT_OK/GD32VW55X_Wifi_BLE_SDK/GD32VW55x_RELEASE_V1.0.2/MSDK/plf/riscv/env\handlers.c ****                 for (i = 0; i < 5; i++) {
 225:C:/Users/stapi/OneDrive/Desktop/GD32VW553/V1_MQTT_OK/GD32VW55X_Wifi_BLE_SDK/GD32VW55x_RELEASE_V1.0.2/MSDK/plf/riscv/env\handlers.c ****                     if (p_buf[idx] != cmdr[i]) {
 226:C:/Users/stapi/OneDrive/Desktop/GD32VW553/V1_MQTT_OK/GD32VW55X_Wifi_BLE_SDK/GD32VW55x_RELEASE_V1.0.2/MSDK/plf/riscv/env\handlers.c ****                         return false;
 227:C:/Users/stapi/OneDrive/Desktop/GD32VW553/V1_MQTT_OK/GD32VW55X_Wifi_BLE_SDK/GD32VW55x_RELEASE_V1.0.2/MSDK/plf/riscv/env\handlers.c ****                     }
 228:C:/Users/stapi/OneDrive/Desktop/GD32VW553/V1_MQTT_OK/GD32VW55X_Wifi_BLE_SDK/GD32VW55x_RELEASE_V1.0.2/MSDK/plf/riscv/env\handlers.c ****                     idx++;
 229:C:/Users/stapi/OneDrive/Desktop/GD32VW553/V1_MQTT_OK/GD32VW55X_Wifi_BLE_SDK/GD32VW55x_RELEASE_V1.0.2/MSDK/plf/riscv/env\handlers.c ****                 }
 230:C:/Users/stapi/OneDrive/Desktop/GD32VW553/V1_MQTT_OK/GD32VW55X_Wifi_BLE_SDK/GD32VW55x_RELEASE_V1.0.2/MSDK/plf/riscv/env\handlers.c **** 
 231:C:/Users/stapi/OneDrive/Desktop/GD32VW553/V1_MQTT_OK/GD32VW55X_Wifi_BLE_SDK/GD32VW55x_RELEASE_V1.0.2/MSDK/plf/riscv/env\handlers.c ****                 state = 1;
 232:C:/Users/stapi/OneDrive/Desktop/GD32VW553/V1_MQTT_OK/GD32VW55X_Wifi_BLE_SDK/GD32VW55x_RELEASE_V1.0.2/MSDK/plf/riscv/env\handlers.c ****                 continue;
 233:C:/Users/stapi/OneDrive/Desktop/GD32VW553/V1_MQTT_OK/GD32VW55X_Wifi_BLE_SDK/GD32VW55x_RELEASE_V1.0.2/MSDK/plf/riscv/env\handlers.c ****             }
 234:C:/Users/stapi/OneDrive/Desktop/GD32VW553/V1_MQTT_OK/GD32VW55X_Wifi_BLE_SDK/GD32VW55x_RELEASE_V1.0.2/MSDK/plf/riscv/env\handlers.c ****             else if (p_buf[idx] == 'd' && (buf_len - idx) >= 4) {
 235:C:/Users/stapi/OneDrive/Desktop/GD32VW553/V1_MQTT_OK/GD32VW55X_Wifi_BLE_SDK/GD32VW55x_RELEASE_V1.0.2/MSDK/plf/riscv/env\handlers.c ****                 for (i = 0; i < 4; i++) {
 236:C:/Users/stapi/OneDrive/Desktop/GD32VW553/V1_MQTT_OK/GD32VW55X_Wifi_BLE_SDK/GD32VW55x_RELEASE_V1.0.2/MSDK/plf/riscv/env\handlers.c ****                     if (p_buf[idx] != cmdd[i]) {
 237:C:/Users/stapi/OneDrive/Desktop/GD32VW553/V1_MQTT_OK/GD32VW55X_Wifi_BLE_SDK/GD32VW55x_RELEASE_V1.0.2/MSDK/plf/riscv/env\handlers.c ****                         return false;
 238:C:/Users/stapi/OneDrive/Desktop/GD32VW553/V1_MQTT_OK/GD32VW55X_Wifi_BLE_SDK/GD32VW55x_RELEASE_V1.0.2/MSDK/plf/riscv/env\handlers.c ****                     }
 239:C:/Users/stapi/OneDrive/Desktop/GD32VW553/V1_MQTT_OK/GD32VW55X_Wifi_BLE_SDK/GD32VW55x_RELEASE_V1.0.2/MSDK/plf/riscv/env\handlers.c ****                     idx++;
 240:C:/Users/stapi/OneDrive/Desktop/GD32VW553/V1_MQTT_OK/GD32VW55X_Wifi_BLE_SDK/GD32VW55x_RELEASE_V1.0.2/MSDK/plf/riscv/env\handlers.c ****                 }
 241:C:/Users/stapi/OneDrive/Desktop/GD32VW553/V1_MQTT_OK/GD32VW55X_Wifi_BLE_SDK/GD32VW55x_RELEASE_V1.0.2/MSDK/plf/riscv/env\handlers.c ****                 Exception_DumpFrame(sp);
 242:C:/Users/stapi/OneDrive/Desktop/GD32VW553/V1_MQTT_OK/GD32VW55X_Wifi_BLE_SDK/GD32VW55x_RELEASE_V1.0.2/MSDK/plf/riscv/env\handlers.c ****                 // Trap from task
 243:C:/Users/stapi/OneDrive/Desktop/GD32VW553/V1_MQTT_OK/GD32VW55X_Wifi_BLE_SDK/GD32VW55x_RELEASE_V1.0.2/MSDK/plf/riscv/env\handlers.c ****                 if ((MSUBM_PTYP & __RV_CSR_READ(CSR_MSUBM)) == 0) {
 244:C:/Users/stapi/OneDrive/Desktop/GD32VW553/V1_MQTT_OK/GD32VW55X_Wifi_BLE_SDK/GD32VW55x_RELEASE_V1.0.2/MSDK/plf/riscv/env\handlers.c ****                     print_reg("SP     :      0x", 16, sp);
 245:C:/Users/stapi/OneDrive/Desktop/GD32VW553/V1_MQTT_OK/GD32VW55X_Wifi_BLE_SDK/GD32VW55x_RELEASE_V1.0.2/MSDK/plf/riscv/env\handlers.c ****                     xCurrentTaskDumpInfo(sp);
 246:C:/Users/stapi/OneDrive/Desktop/GD32VW553/V1_MQTT_OK/GD32VW55X_Wifi_BLE_SDK/GD32VW55x_RELEASE_V1.0.2/MSDK/plf/riscv/env\handlers.c ****                 }
 247:C:/Users/stapi/OneDrive/Desktop/GD32VW553/V1_MQTT_OK/GD32VW55X_Wifi_BLE_SDK/GD32VW55x_RELEASE_V1.0.2/MSDK/plf/riscv/env\handlers.c ****                 // Trap from interrupt
 248:C:/Users/stapi/OneDrive/Desktop/GD32VW553/V1_MQTT_OK/GD32VW55X_Wifi_BLE_SDK/GD32VW55x_RELEASE_V1.0.2/MSDK/plf/riscv/env\handlers.c ****                 else if ((MSUBM_PTYP & __RV_CSR_READ(CSR_MSUBM)) == 0x0100) {
 249:C:/Users/stapi/OneDrive/Desktop/GD32VW553/V1_MQTT_OK/GD32VW55X_Wifi_BLE_SDK/GD32VW55x_RELEASE_V1.0.2/MSDK/plf/riscv/env\handlers.c ****                     unsigned long int_sp = __RV_CSR_READ(CSR_MSCRATCH);
 250:C:/Users/stapi/OneDrive/Desktop/GD32VW553/V1_MQTT_OK/GD32VW55X_Wifi_BLE_SDK/GD32VW55x_RELEASE_V1.0.2/MSDK/plf/riscv/env\handlers.c ****                     print_reg("SP     :      0x", 16, int_sp);
 251:C:/Users/stapi/OneDrive/Desktop/GD32VW553/V1_MQTT_OK/GD32VW55X_Wifi_BLE_SDK/GD32VW55x_RELEASE_V1.0.2/MSDK/plf/riscv/env\handlers.c **** #ifndef __riscv_32e
 252:C:/Users/stapi/OneDrive/Desktop/GD32VW553/V1_MQTT_OK/GD32VW55X_Wifi_BLE_SDK/GD32VW55x_RELEASE_V1.0.2/MSDK/plf/riscv/env\handlers.c ****                     int32_t num = 80;
 253:C:/Users/stapi/OneDrive/Desktop/GD32VW553/V1_MQTT_OK/GD32VW55X_Wifi_BLE_SDK/GD32VW55x_RELEASE_V1.0.2/MSDK/plf/riscv/env\handlers.c **** #else
 254:C:/Users/stapi/OneDrive/Desktop/GD32VW553/V1_MQTT_OK/GD32VW55X_Wifi_BLE_SDK/GD32VW55x_RELEASE_V1.0.2/MSDK/plf/riscv/env\handlers.c ****                     int32_t num = 64;
 255:C:/Users/stapi/OneDrive/Desktop/GD32VW553/V1_MQTT_OK/GD32VW55X_Wifi_BLE_SDK/GD32VW55x_RELEASE_V1.0.2/MSDK/plf/riscv/env\handlers.c **** #endif
 256:C:/Users/stapi/OneDrive/Desktop/GD32VW553/V1_MQTT_OK/GD32VW55X_Wifi_BLE_SDK/GD32VW55x_RELEASE_V1.0.2/MSDK/plf/riscv/env\handlers.c **** 
 257:C:/Users/stapi/OneDrive/Desktop/GD32VW553/V1_MQTT_OK/GD32VW55X_Wifi_BLE_SDK/GD32VW55x_RELEASE_V1.0.2/MSDK/plf/riscv/env\handlers.c **** #ifdef __riscv_flen
 258:C:/Users/stapi/OneDrive/Desktop/GD32VW553/V1_MQTT_OK/GD32VW55X_Wifi_BLE_SDK/GD32VW55x_RELEASE_V1.0.2/MSDK/plf/riscv/env\handlers.c ****                     num += 80;
 259:C:/Users/stapi/OneDrive/Desktop/GD32VW553/V1_MQTT_OK/GD32VW55X_Wifi_BLE_SDK/GD32VW55x_RELEASE_V1.0.2/MSDK/plf/riscv/env\handlers.c **** #endif
 260:C:/Users/stapi/OneDrive/Desktop/GD32VW553/V1_MQTT_OK/GD32VW55X_Wifi_BLE_SDK/GD32VW55x_RELEASE_V1.0.2/MSDK/plf/riscv/env\handlers.c ****                     log_uart_put_data((uint8_t *)"Interrupt Stack Dump:\r\n", strlen("Interrupt Sta
 261:C:/Users/stapi/OneDrive/Desktop/GD32VW553/V1_MQTT_OK/GD32VW55X_Wifi_BLE_SDK/GD32VW55x_RELEASE_V1.0.2/MSDK/plf/riscv/env\handlers.c ****                     dumpStackInfo(sp, num);
 262:C:/Users/stapi/OneDrive/Desktop/GD32VW553/V1_MQTT_OK/GD32VW55X_Wifi_BLE_SDK/GD32VW55x_RELEASE_V1.0.2/MSDK/plf/riscv/env\handlers.c ****                     num = (uint32_t)_sp - int_sp;
 263:C:/Users/stapi/OneDrive/Desktop/GD32VW553/V1_MQTT_OK/GD32VW55X_Wifi_BLE_SDK/GD32VW55x_RELEASE_V1.0.2/MSDK/plf/riscv/env\handlers.c ****                     dumpStackInfo(int_sp, num);
 264:C:/Users/stapi/OneDrive/Desktop/GD32VW553/V1_MQTT_OK/GD32VW55X_Wifi_BLE_SDK/GD32VW55x_RELEASE_V1.0.2/MSDK/plf/riscv/env\handlers.c ****                 }
 265:C:/Users/stapi/OneDrive/Desktop/GD32VW553/V1_MQTT_OK/GD32VW55X_Wifi_BLE_SDK/GD32VW55x_RELEASE_V1.0.2/MSDK/plf/riscv/env\handlers.c **** 
 266:C:/Users/stapi/OneDrive/Desktop/GD32VW553/V1_MQTT_OK/GD32VW55X_Wifi_BLE_SDK/GD32VW55x_RELEASE_V1.0.2/MSDK/plf/riscv/env\handlers.c ****                 log_uart_put_data((const uint8_t *)"Please use bloodhound tool to parse log above!\
 267:C:/Users/stapi/OneDrive/Desktop/GD32VW553/V1_MQTT_OK/GD32VW55X_Wifi_BLE_SDK/GD32VW55x_RELEASE_V1.0.2/MSDK/plf/riscv/env\handlers.c ****                 return true;
 268:C:/Users/stapi/OneDrive/Desktop/GD32VW553/V1_MQTT_OK/GD32VW55X_Wifi_BLE_SDK/GD32VW55x_RELEASE_V1.0.2/MSDK/plf/riscv/env\handlers.c ****             }
 269:C:/Users/stapi/OneDrive/Desktop/GD32VW553/V1_MQTT_OK/GD32VW55X_Wifi_BLE_SDK/GD32VW55x_RELEASE_V1.0.2/MSDK/plf/riscv/env\handlers.c ****             else if (p_buf[idx] == 'h' && (buf_len - idx) >= 4) {
 270:C:/Users/stapi/OneDrive/Desktop/GD32VW553/V1_MQTT_OK/GD32VW55X_Wifi_BLE_SDK/GD32VW55x_RELEASE_V1.0.2/MSDK/plf/riscv/env\handlers.c ****                 for (i = 0; i < 4; i++) {
 271:C:/Users/stapi/OneDrive/Desktop/GD32VW553/V1_MQTT_OK/GD32VW55X_Wifi_BLE_SDK/GD32VW55x_RELEASE_V1.0.2/MSDK/plf/riscv/env\handlers.c ****                     if (p_buf[idx] != cmdh[i]) {
 272:C:/Users/stapi/OneDrive/Desktop/GD32VW553/V1_MQTT_OK/GD32VW55X_Wifi_BLE_SDK/GD32VW55x_RELEASE_V1.0.2/MSDK/plf/riscv/env\handlers.c ****                         return false;
 273:C:/Users/stapi/OneDrive/Desktop/GD32VW553/V1_MQTT_OK/GD32VW55X_Wifi_BLE_SDK/GD32VW55x_RELEASE_V1.0.2/MSDK/plf/riscv/env\handlers.c ****                     }
 274:C:/Users/stapi/OneDrive/Desktop/GD32VW553/V1_MQTT_OK/GD32VW55X_Wifi_BLE_SDK/GD32VW55x_RELEASE_V1.0.2/MSDK/plf/riscv/env\handlers.c ****                     idx++;
 275:C:/Users/stapi/OneDrive/Desktop/GD32VW553/V1_MQTT_OK/GD32VW55X_Wifi_BLE_SDK/GD32VW55x_RELEASE_V1.0.2/MSDK/plf/riscv/env\handlers.c ****                 }
 276:C:/Users/stapi/OneDrive/Desktop/GD32VW553/V1_MQTT_OK/GD32VW55X_Wifi_BLE_SDK/GD32VW55x_RELEASE_V1.0.2/MSDK/plf/riscv/env\handlers.c ****                 log_uart_put_data((uint8_t *)"rmem XXXXXXXX(8 bytes Hex) DD(decimal)\r\n", strlen("
 277:C:/Users/stapi/OneDrive/Desktop/GD32VW553/V1_MQTT_OK/GD32VW55X_Wifi_BLE_SDK/GD32VW55x_RELEASE_V1.0.2/MSDK/plf/riscv/env\handlers.c ****                 log_uart_put_data((uint8_t *)"dump\r\n", strlen("dump\r\n"));
 278:C:/Users/stapi/OneDrive/Desktop/GD32VW553/V1_MQTT_OK/GD32VW55X_Wifi_BLE_SDK/GD32VW55x_RELEASE_V1.0.2/MSDK/plf/riscv/env\handlers.c **** 
 279:C:/Users/stapi/OneDrive/Desktop/GD32VW553/V1_MQTT_OK/GD32VW55X_Wifi_BLE_SDK/GD32VW55x_RELEASE_V1.0.2/MSDK/plf/riscv/env\handlers.c ****                 return true;
 280:C:/Users/stapi/OneDrive/Desktop/GD32VW553/V1_MQTT_OK/GD32VW55X_Wifi_BLE_SDK/GD32VW55x_RELEASE_V1.0.2/MSDK/plf/riscv/env\handlers.c ****             }
 281:C:/Users/stapi/OneDrive/Desktop/GD32VW553/V1_MQTT_OK/GD32VW55X_Wifi_BLE_SDK/GD32VW55x_RELEASE_V1.0.2/MSDK/plf/riscv/env\handlers.c ****             break;
 282:C:/Users/stapi/OneDrive/Desktop/GD32VW553/V1_MQTT_OK/GD32VW55X_Wifi_BLE_SDK/GD32VW55x_RELEASE_V1.0.2/MSDK/plf/riscv/env\handlers.c ****         case 1:
 283:C:/Users/stapi/OneDrive/Desktop/GD32VW553/V1_MQTT_OK/GD32VW55X_Wifi_BLE_SDK/GD32VW55x_RELEASE_V1.0.2/MSDK/plf/riscv/env\handlers.c ****             if (p_buf[idx] == ' ') {
 284:C:/Users/stapi/OneDrive/Desktop/GD32VW553/V1_MQTT_OK/GD32VW55X_Wifi_BLE_SDK/GD32VW55x_RELEASE_V1.0.2/MSDK/plf/riscv/env\handlers.c ****                 break;
 285:C:/Users/stapi/OneDrive/Desktop/GD32VW553/V1_MQTT_OK/GD32VW55X_Wifi_BLE_SDK/GD32VW55x_RELEASE_V1.0.2/MSDK/plf/riscv/env\handlers.c ****             }
 286:C:/Users/stapi/OneDrive/Desktop/GD32VW553/V1_MQTT_OK/GD32VW55X_Wifi_BLE_SDK/GD32VW55x_RELEASE_V1.0.2/MSDK/plf/riscv/env\handlers.c ****             else if ((buf_len - idx) < 10) {
 287:C:/Users/stapi/OneDrive/Desktop/GD32VW553/V1_MQTT_OK/GD32VW55X_Wifi_BLE_SDK/GD32VW55x_RELEASE_V1.0.2/MSDK/plf/riscv/env\handlers.c ****                 return false;
 288:C:/Users/stapi/OneDrive/Desktop/GD32VW553/V1_MQTT_OK/GD32VW55X_Wifi_BLE_SDK/GD32VW55x_RELEASE_V1.0.2/MSDK/plf/riscv/env\handlers.c ****             }
 289:C:/Users/stapi/OneDrive/Desktop/GD32VW553/V1_MQTT_OK/GD32VW55X_Wifi_BLE_SDK/GD32VW55x_RELEASE_V1.0.2/MSDK/plf/riscv/env\handlers.c **** 
 290:C:/Users/stapi/OneDrive/Desktop/GD32VW553/V1_MQTT_OK/GD32VW55X_Wifi_BLE_SDK/GD32VW55x_RELEASE_V1.0.2/MSDK/plf/riscv/env\handlers.c ****             for (i = 28; i >= 0; i -= 4) {
 291:C:/Users/stapi/OneDrive/Desktop/GD32VW553/V1_MQTT_OK/GD32VW55X_Wifi_BLE_SDK/GD32VW55x_RELEASE_V1.0.2/MSDK/plf/riscv/env\handlers.c ****                 if (p_buf[idx] >= '0' && p_buf[idx] <= '9') {
 292:C:/Users/stapi/OneDrive/Desktop/GD32VW553/V1_MQTT_OK/GD32VW55X_Wifi_BLE_SDK/GD32VW55x_RELEASE_V1.0.2/MSDK/plf/riscv/env\handlers.c ****                     start_addr |= ((p_buf[idx] - '0') << i);
 293:C:/Users/stapi/OneDrive/Desktop/GD32VW553/V1_MQTT_OK/GD32VW55X_Wifi_BLE_SDK/GD32VW55x_RELEASE_V1.0.2/MSDK/plf/riscv/env\handlers.c ****                 }
 294:C:/Users/stapi/OneDrive/Desktop/GD32VW553/V1_MQTT_OK/GD32VW55X_Wifi_BLE_SDK/GD32VW55x_RELEASE_V1.0.2/MSDK/plf/riscv/env\handlers.c ****                 else if (p_buf[idx] >= 'a' && p_buf[idx] <= 'f') {
 295:C:/Users/stapi/OneDrive/Desktop/GD32VW553/V1_MQTT_OK/GD32VW55X_Wifi_BLE_SDK/GD32VW55x_RELEASE_V1.0.2/MSDK/plf/riscv/env\handlers.c ****                     start_addr |= ((p_buf[idx] - 'a') + 10) << i;
 296:C:/Users/stapi/OneDrive/Desktop/GD32VW553/V1_MQTT_OK/GD32VW55X_Wifi_BLE_SDK/GD32VW55x_RELEASE_V1.0.2/MSDK/plf/riscv/env\handlers.c ****                 }
 297:C:/Users/stapi/OneDrive/Desktop/GD32VW553/V1_MQTT_OK/GD32VW55X_Wifi_BLE_SDK/GD32VW55x_RELEASE_V1.0.2/MSDK/plf/riscv/env\handlers.c ****                 else if (p_buf[idx] >= 'A' && p_buf[idx] <= 'F') {
 298:C:/Users/stapi/OneDrive/Desktop/GD32VW553/V1_MQTT_OK/GD32VW55X_Wifi_BLE_SDK/GD32VW55x_RELEASE_V1.0.2/MSDK/plf/riscv/env\handlers.c ****                     start_addr |= ((p_buf[idx] - 'A') + 10) << i;
 299:C:/Users/stapi/OneDrive/Desktop/GD32VW553/V1_MQTT_OK/GD32VW55X_Wifi_BLE_SDK/GD32VW55x_RELEASE_V1.0.2/MSDK/plf/riscv/env\handlers.c ****                 }
 300:C:/Users/stapi/OneDrive/Desktop/GD32VW553/V1_MQTT_OK/GD32VW55X_Wifi_BLE_SDK/GD32VW55x_RELEASE_V1.0.2/MSDK/plf/riscv/env\handlers.c ****                 else {
 301:C:/Users/stapi/OneDrive/Desktop/GD32VW553/V1_MQTT_OK/GD32VW55X_Wifi_BLE_SDK/GD32VW55x_RELEASE_V1.0.2/MSDK/plf/riscv/env\handlers.c ****                     return false;
 302:C:/Users/stapi/OneDrive/Desktop/GD32VW553/V1_MQTT_OK/GD32VW55X_Wifi_BLE_SDK/GD32VW55x_RELEASE_V1.0.2/MSDK/plf/riscv/env\handlers.c ****                 }
 303:C:/Users/stapi/OneDrive/Desktop/GD32VW553/V1_MQTT_OK/GD32VW55X_Wifi_BLE_SDK/GD32VW55x_RELEASE_V1.0.2/MSDK/plf/riscv/env\handlers.c ****                 idx++;
 304:C:/Users/stapi/OneDrive/Desktop/GD32VW553/V1_MQTT_OK/GD32VW55X_Wifi_BLE_SDK/GD32VW55x_RELEASE_V1.0.2/MSDK/plf/riscv/env\handlers.c ****             }
 305:C:/Users/stapi/OneDrive/Desktop/GD32VW553/V1_MQTT_OK/GD32VW55X_Wifi_BLE_SDK/GD32VW55x_RELEASE_V1.0.2/MSDK/plf/riscv/env\handlers.c **** 
 306:C:/Users/stapi/OneDrive/Desktop/GD32VW553/V1_MQTT_OK/GD32VW55X_Wifi_BLE_SDK/GD32VW55x_RELEASE_V1.0.2/MSDK/plf/riscv/env\handlers.c ****             state = 2;
 307:C:/Users/stapi/OneDrive/Desktop/GD32VW553/V1_MQTT_OK/GD32VW55X_Wifi_BLE_SDK/GD32VW55x_RELEASE_V1.0.2/MSDK/plf/riscv/env\handlers.c ****             continue;
 308:C:/Users/stapi/OneDrive/Desktop/GD32VW553/V1_MQTT_OK/GD32VW55X_Wifi_BLE_SDK/GD32VW55x_RELEASE_V1.0.2/MSDK/plf/riscv/env\handlers.c ****             break;
 309:C:/Users/stapi/OneDrive/Desktop/GD32VW553/V1_MQTT_OK/GD32VW55X_Wifi_BLE_SDK/GD32VW55x_RELEASE_V1.0.2/MSDK/plf/riscv/env\handlers.c ****         case 2:
 310:C:/Users/stapi/OneDrive/Desktop/GD32VW553/V1_MQTT_OK/GD32VW55X_Wifi_BLE_SDK/GD32VW55x_RELEASE_V1.0.2/MSDK/plf/riscv/env\handlers.c ****             if (p_buf[idx] == ' ') {
 311:C:/Users/stapi/OneDrive/Desktop/GD32VW553/V1_MQTT_OK/GD32VW55X_Wifi_BLE_SDK/GD32VW55x_RELEASE_V1.0.2/MSDK/plf/riscv/env\handlers.c ****                 break;
 312:C:/Users/stapi/OneDrive/Desktop/GD32VW553/V1_MQTT_OK/GD32VW55X_Wifi_BLE_SDK/GD32VW55x_RELEASE_V1.0.2/MSDK/plf/riscv/env\handlers.c ****             }
 313:C:/Users/stapi/OneDrive/Desktop/GD32VW553/V1_MQTT_OK/GD32VW55X_Wifi_BLE_SDK/GD32VW55x_RELEASE_V1.0.2/MSDK/plf/riscv/env\handlers.c **** 
 314:C:/Users/stapi/OneDrive/Desktop/GD32VW553/V1_MQTT_OK/GD32VW55X_Wifi_BLE_SDK/GD32VW55x_RELEASE_V1.0.2/MSDK/plf/riscv/env\handlers.c ****             if (p_buf[idx] >= '0' && p_buf[idx] <= '9') {
 315:C:/Users/stapi/OneDrive/Desktop/GD32VW553/V1_MQTT_OK/GD32VW55X_Wifi_BLE_SDK/GD32VW55x_RELEASE_V1.0.2/MSDK/plf/riscv/env\handlers.c ****                 len = len * 10 + (p_buf[idx] - '0');
 316:C:/Users/stapi/OneDrive/Desktop/GD32VW553/V1_MQTT_OK/GD32VW55X_Wifi_BLE_SDK/GD32VW55x_RELEASE_V1.0.2/MSDK/plf/riscv/env\handlers.c ****             }
 317:C:/Users/stapi/OneDrive/Desktop/GD32VW553/V1_MQTT_OK/GD32VW55X_Wifi_BLE_SDK/GD32VW55x_RELEASE_V1.0.2/MSDK/plf/riscv/env\handlers.c ****             else {
 318:C:/Users/stapi/OneDrive/Desktop/GD32VW553/V1_MQTT_OK/GD32VW55X_Wifi_BLE_SDK/GD32VW55x_RELEASE_V1.0.2/MSDK/plf/riscv/env\handlers.c ****                 return false;
 319:C:/Users/stapi/OneDrive/Desktop/GD32VW553/V1_MQTT_OK/GD32VW55X_Wifi_BLE_SDK/GD32VW55x_RELEASE_V1.0.2/MSDK/plf/riscv/env\handlers.c ****             }
 320:C:/Users/stapi/OneDrive/Desktop/GD32VW553/V1_MQTT_OK/GD32VW55X_Wifi_BLE_SDK/GD32VW55x_RELEASE_V1.0.2/MSDK/plf/riscv/env\handlers.c **** 
 321:C:/Users/stapi/OneDrive/Desktop/GD32VW553/V1_MQTT_OK/GD32VW55X_Wifi_BLE_SDK/GD32VW55x_RELEASE_V1.0.2/MSDK/plf/riscv/env\handlers.c ****         default:
 322:C:/Users/stapi/OneDrive/Desktop/GD32VW553/V1_MQTT_OK/GD32VW55X_Wifi_BLE_SDK/GD32VW55x_RELEASE_V1.0.2/MSDK/plf/riscv/env\handlers.c ****             break;
 323:C:/Users/stapi/OneDrive/Desktop/GD32VW553/V1_MQTT_OK/GD32VW55X_Wifi_BLE_SDK/GD32VW55x_RELEASE_V1.0.2/MSDK/plf/riscv/env\handlers.c ****         }
 324:C:/Users/stapi/OneDrive/Desktop/GD32VW553/V1_MQTT_OK/GD32VW55X_Wifi_BLE_SDK/GD32VW55x_RELEASE_V1.0.2/MSDK/plf/riscv/env\handlers.c ****         idx++;
 325:C:/Users/stapi/OneDrive/Desktop/GD32VW553/V1_MQTT_OK/GD32VW55X_Wifi_BLE_SDK/GD32VW55x_RELEASE_V1.0.2/MSDK/plf/riscv/env\handlers.c ****     }
 326:C:/Users/stapi/OneDrive/Desktop/GD32VW553/V1_MQTT_OK/GD32VW55X_Wifi_BLE_SDK/GD32VW55x_RELEASE_V1.0.2/MSDK/plf/riscv/env\handlers.c **** 
 327:C:/Users/stapi/OneDrive/Desktop/GD32VW553/V1_MQTT_OK/GD32VW55X_Wifi_BLE_SDK/GD32VW55x_RELEASE_V1.0.2/MSDK/plf/riscv/env\handlers.c ****     // we need to check read addr is ok
 328:C:/Users/stapi/OneDrive/Desktop/GD32VW553/V1_MQTT_OK/GD32VW55X_Wifi_BLE_SDK/GD32VW55x_RELEASE_V1.0.2/MSDK/plf/riscv/env\handlers.c ****     for (i = 1; i <= len; i++) {
 329:C:/Users/stapi/OneDrive/Desktop/GD32VW553/V1_MQTT_OK/GD32VW55X_Wifi_BLE_SDK/GD32VW55x_RELEASE_V1.0.2/MSDK/plf/riscv/env\handlers.c ****         uint8_t val = *(uint8_t *)start_addr;
 330:C:/Users/stapi/OneDrive/Desktop/GD32VW553/V1_MQTT_OK/GD32VW55X_Wifi_BLE_SDK/GD32VW55x_RELEASE_V1.0.2/MSDK/plf/riscv/env\handlers.c ****         for (j = 4; j >= 0; j -= 4) {
 331:C:/Users/stapi/OneDrive/Desktop/GD32VW553/V1_MQTT_OK/GD32VW55X_Wifi_BLE_SDK/GD32VW55x_RELEASE_V1.0.2/MSDK/plf/riscv/env\handlers.c ****             c = ((val >> j ) & 0xF);
 332:C:/Users/stapi/OneDrive/Desktop/GD32VW553/V1_MQTT_OK/GD32VW55X_Wifi_BLE_SDK/GD32VW55x_RELEASE_V1.0.2/MSDK/plf/riscv/env\handlers.c ****             if (c >= 10)
 333:C:/Users/stapi/OneDrive/Desktop/GD32VW553/V1_MQTT_OK/GD32VW55X_Wifi_BLE_SDK/GD32VW55x_RELEASE_V1.0.2/MSDK/plf/riscv/env\handlers.c ****                 c += 'a' - 10;
 334:C:/Users/stapi/OneDrive/Desktop/GD32VW553/V1_MQTT_OK/GD32VW55X_Wifi_BLE_SDK/GD32VW55x_RELEASE_V1.0.2/MSDK/plf/riscv/env\handlers.c ****             else
 335:C:/Users/stapi/OneDrive/Desktop/GD32VW553/V1_MQTT_OK/GD32VW55X_Wifi_BLE_SDK/GD32VW55x_RELEASE_V1.0.2/MSDK/plf/riscv/env\handlers.c ****                 c += '0';
 336:C:/Users/stapi/OneDrive/Desktop/GD32VW553/V1_MQTT_OK/GD32VW55X_Wifi_BLE_SDK/GD32VW55x_RELEASE_V1.0.2/MSDK/plf/riscv/env\handlers.c ****             log_uart_putc_noint(c);
 337:C:/Users/stapi/OneDrive/Desktop/GD32VW553/V1_MQTT_OK/GD32VW55X_Wifi_BLE_SDK/GD32VW55x_RELEASE_V1.0.2/MSDK/plf/riscv/env\handlers.c ****         }
 338:C:/Users/stapi/OneDrive/Desktop/GD32VW553/V1_MQTT_OK/GD32VW55X_Wifi_BLE_SDK/GD32VW55x_RELEASE_V1.0.2/MSDK/plf/riscv/env\handlers.c **** 
 339:C:/Users/stapi/OneDrive/Desktop/GD32VW553/V1_MQTT_OK/GD32VW55X_Wifi_BLE_SDK/GD32VW55x_RELEASE_V1.0.2/MSDK/plf/riscv/env\handlers.c ****         start_addr++;
 340:C:/Users/stapi/OneDrive/Desktop/GD32VW553/V1_MQTT_OK/GD32VW55X_Wifi_BLE_SDK/GD32VW55x_RELEASE_V1.0.2/MSDK/plf/riscv/env\handlers.c ****         if ((i % 16) == 0) {
 341:C:/Users/stapi/OneDrive/Desktop/GD32VW553/V1_MQTT_OK/GD32VW55X_Wifi_BLE_SDK/GD32VW55x_RELEASE_V1.0.2/MSDK/plf/riscv/env\handlers.c ****             log_uart_put_data((uint8_t *)"\r\n", strlen("\r\n"));
 342:C:/Users/stapi/OneDrive/Desktop/GD32VW553/V1_MQTT_OK/GD32VW55X_Wifi_BLE_SDK/GD32VW55x_RELEASE_V1.0.2/MSDK/plf/riscv/env\handlers.c ****         }
 343:C:/Users/stapi/OneDrive/Desktop/GD32VW553/V1_MQTT_OK/GD32VW55X_Wifi_BLE_SDK/GD32VW55x_RELEASE_V1.0.2/MSDK/plf/riscv/env\handlers.c ****         else {
 344:C:/Users/stapi/OneDrive/Desktop/GD32VW553/V1_MQTT_OK/GD32VW55X_Wifi_BLE_SDK/GD32VW55x_RELEASE_V1.0.2/MSDK/plf/riscv/env\handlers.c ****             log_uart_putc_noint(',');
 345:C:/Users/stapi/OneDrive/Desktop/GD32VW553/V1_MQTT_OK/GD32VW55X_Wifi_BLE_SDK/GD32VW55x_RELEASE_V1.0.2/MSDK/plf/riscv/env\handlers.c ****             log_uart_putc_noint(' ');
 346:C:/Users/stapi/OneDrive/Desktop/GD32VW553/V1_MQTT_OK/GD32VW55X_Wifi_BLE_SDK/GD32VW55x_RELEASE_V1.0.2/MSDK/plf/riscv/env\handlers.c ****         }
 347:C:/Users/stapi/OneDrive/Desktop/GD32VW553/V1_MQTT_OK/GD32VW55X_Wifi_BLE_SDK/GD32VW55x_RELEASE_V1.0.2/MSDK/plf/riscv/env\handlers.c ****     }
 348:C:/Users/stapi/OneDrive/Desktop/GD32VW553/V1_MQTT_OK/GD32VW55X_Wifi_BLE_SDK/GD32VW55x_RELEASE_V1.0.2/MSDK/plf/riscv/env\handlers.c **** 
 349:C:/Users/stapi/OneDrive/Desktop/GD32VW553/V1_MQTT_OK/GD32VW55X_Wifi_BLE_SDK/GD32VW55x_RELEASE_V1.0.2/MSDK/plf/riscv/env\handlers.c ****     return true;
 350:C:/Users/stapi/OneDrive/Desktop/GD32VW553/V1_MQTT_OK/GD32VW55X_Wifi_BLE_SDK/GD32VW55x_RELEASE_V1.0.2/MSDK/plf/riscv/env\handlers.c **** }
 351:C:/Users/stapi/OneDrive/Desktop/GD32VW553/V1_MQTT_OK/GD32VW55X_Wifi_BLE_SDK/GD32VW55x_RELEASE_V1.0.2/MSDK/plf/riscv/env\handlers.c **** #endif
 352:C:/Users/stapi/OneDrive/Desktop/GD32VW553/V1_MQTT_OK/GD32VW55X_Wifi_BLE_SDK/GD32VW55x_RELEASE_V1.0.2/MSDK/plf/riscv/env\handlers.c **** 
 353:C:/Users/stapi/OneDrive/Desktop/GD32VW553/V1_MQTT_OK/GD32VW55X_Wifi_BLE_SDK/GD32VW55x_RELEASE_V1.0.2/MSDK/plf/riscv/env\handlers.c **** #if EXC_LOG_TO_FLASH
 354:C:/Users/stapi/OneDrive/Desktop/GD32VW553/V1_MQTT_OK/GD32VW55X_Wifi_BLE_SDK/GD32VW55x_RELEASE_V1.0.2/MSDK/plf/riscv/env\handlers.c **** #define WR_REGION_SPAGE    ((uint32_t)0x003FE000U)       /*!< start page of write protection region
 355:C:/Users/stapi/OneDrive/Desktop/GD32VW553/V1_MQTT_OK/GD32VW55X_Wifi_BLE_SDK/GD32VW55x_RELEASE_V1.0.2/MSDK/plf/riscv/env\handlers.c **** #define WR_REGION_EPAGE    ((uint32_t)0x003FF000U)       /*!< end page of write protection region: 
 356:C:/Users/stapi/OneDrive/Desktop/GD32VW553/V1_MQTT_OK/GD32VW55X_Wifi_BLE_SDK/GD32VW55x_RELEASE_V1.0.2/MSDK/plf/riscv/env\handlers.c **** 
 357:C:/Users/stapi/OneDrive/Desktop/GD32VW553/V1_MQTT_OK/GD32VW55X_Wifi_BLE_SDK/GD32VW55x_RELEASE_V1.0.2/MSDK/plf/riscv/env\handlers.c **** static void dump_info_2_flash(unsigned long sp)
 358:C:/Users/stapi/OneDrive/Desktop/GD32VW553/V1_MQTT_OK/GD32VW55X_Wifi_BLE_SDK/GD32VW55x_RELEASE_V1.0.2/MSDK/plf/riscv/env\handlers.c **** {
 359:C:/Users/stapi/OneDrive/Desktop/GD32VW553/V1_MQTT_OK/GD32VW55X_Wifi_BLE_SDK/GD32VW55x_RELEASE_V1.0.2/MSDK/plf/riscv/env\handlers.c ****     char prefix[3];
 360:C:/Users/stapi/OneDrive/Desktop/GD32VW553/V1_MQTT_OK/GD32VW55X_Wifi_BLE_SDK/GD32VW55x_RELEASE_V1.0.2/MSDK/plf/riscv/env\handlers.c ****     uint32_t reg_val = 0;
 361:C:/Users/stapi/OneDrive/Desktop/GD32VW553/V1_MQTT_OK/GD32VW55X_Wifi_BLE_SDK/GD32VW55x_RELEASE_V1.0.2/MSDK/plf/riscv/env\handlers.c ****     uint32_t offset = WR_REGION_SPAGE;
 362:C:/Users/stapi/OneDrive/Desktop/GD32VW553/V1_MQTT_OK/GD32VW55X_Wifi_BLE_SDK/GD32VW55x_RELEASE_V1.0.2/MSDK/plf/riscv/env\handlers.c **** 
 363:C:/Users/stapi/OneDrive/Desktop/GD32VW553/V1_MQTT_OK/GD32VW55X_Wifi_BLE_SDK/GD32VW55x_RELEASE_V1.0.2/MSDK/plf/riscv/env\handlers.c ****     if (raw_flash_erase(WR_REGION_SPAGE, FLASH_PAGE_SIZE))
 364:C:/Users/stapi/OneDrive/Desktop/GD32VW553/V1_MQTT_OK/GD32VW55X_Wifi_BLE_SDK/GD32VW55x_RELEASE_V1.0.2/MSDK/plf/riscv/env\handlers.c ****         return;
 365:C:/Users/stapi/OneDrive/Desktop/GD32VW553/V1_MQTT_OK/GD32VW55X_Wifi_BLE_SDK/GD32VW55x_RELEASE_V1.0.2/MSDK/plf/riscv/env\handlers.c **** 
 366:C:/Users/stapi/OneDrive/Desktop/GD32VW553/V1_MQTT_OK/GD32VW55X_Wifi_BLE_SDK/GD32VW55x_RELEASE_V1.0.2/MSDK/plf/riscv/env\handlers.c ****     prefix[0] = 20;
 367:C:/Users/stapi/OneDrive/Desktop/GD32VW553/V1_MQTT_OK/GD32VW55X_Wifi_BLE_SDK/GD32VW55x_RELEASE_V1.0.2/MSDK/plf/riscv/env\handlers.c ****     prefix[1] = 0;
 368:C:/Users/stapi/OneDrive/Desktop/GD32VW553/V1_MQTT_OK/GD32VW55X_Wifi_BLE_SDK/GD32VW55x_RELEASE_V1.0.2/MSDK/plf/riscv/env\handlers.c ****     prefix[2] = 0x01;   //register value
 369:C:/Users/stapi/OneDrive/Desktop/GD32VW553/V1_MQTT_OK/GD32VW55X_Wifi_BLE_SDK/GD32VW55x_RELEASE_V1.0.2/MSDK/plf/riscv/env\handlers.c ****     raw_flash_write(offset, (void *)&prefix, 3);
 370:C:/Users/stapi/OneDrive/Desktop/GD32VW553/V1_MQTT_OK/GD32VW55X_Wifi_BLE_SDK/GD32VW55x_RELEASE_V1.0.2/MSDK/plf/riscv/env\handlers.c ****     offset += 3;
 371:C:/Users/stapi/OneDrive/Desktop/GD32VW553/V1_MQTT_OK/GD32VW55X_Wifi_BLE_SDK/GD32VW55x_RELEASE_V1.0.2/MSDK/plf/riscv/env\handlers.c **** 
 372:C:/Users/stapi/OneDrive/Desktop/GD32VW553/V1_MQTT_OK/GD32VW55X_Wifi_BLE_SDK/GD32VW55x_RELEASE_V1.0.2/MSDK/plf/riscv/env\handlers.c ****     reg_val = __RV_CSR_READ(CSR_MCAUSE);
 373:C:/Users/stapi/OneDrive/Desktop/GD32VW553/V1_MQTT_OK/GD32VW55X_Wifi_BLE_SDK/GD32VW55x_RELEASE_V1.0.2/MSDK/plf/riscv/env\handlers.c ****     raw_flash_write(offset, (void *)&reg_val, 4);
 374:C:/Users/stapi/OneDrive/Desktop/GD32VW553/V1_MQTT_OK/GD32VW55X_Wifi_BLE_SDK/GD32VW55x_RELEASE_V1.0.2/MSDK/plf/riscv/env\handlers.c ****     offset += 4;
 375:C:/Users/stapi/OneDrive/Desktop/GD32VW553/V1_MQTT_OK/GD32VW55X_Wifi_BLE_SDK/GD32VW55x_RELEASE_V1.0.2/MSDK/plf/riscv/env\handlers.c **** 
 376:C:/Users/stapi/OneDrive/Desktop/GD32VW553/V1_MQTT_OK/GD32VW55X_Wifi_BLE_SDK/GD32VW55x_RELEASE_V1.0.2/MSDK/plf/riscv/env\handlers.c ****     reg_val = __RV_CSR_READ(CSR_MDCAUSE);
 377:C:/Users/stapi/OneDrive/Desktop/GD32VW553/V1_MQTT_OK/GD32VW55X_Wifi_BLE_SDK/GD32VW55x_RELEASE_V1.0.2/MSDK/plf/riscv/env\handlers.c ****     raw_flash_write(offset, (void *)&reg_val, 4);
 378:C:/Users/stapi/OneDrive/Desktop/GD32VW553/V1_MQTT_OK/GD32VW55X_Wifi_BLE_SDK/GD32VW55x_RELEASE_V1.0.2/MSDK/plf/riscv/env\handlers.c ****     offset += 4;
 379:C:/Users/stapi/OneDrive/Desktop/GD32VW553/V1_MQTT_OK/GD32VW55X_Wifi_BLE_SDK/GD32VW55x_RELEASE_V1.0.2/MSDK/plf/riscv/env\handlers.c **** 
 380:C:/Users/stapi/OneDrive/Desktop/GD32VW553/V1_MQTT_OK/GD32VW55X_Wifi_BLE_SDK/GD32VW55x_RELEASE_V1.0.2/MSDK/plf/riscv/env\handlers.c ****     reg_val = __RV_CSR_READ(CSR_MEPC);
 381:C:/Users/stapi/OneDrive/Desktop/GD32VW553/V1_MQTT_OK/GD32VW55X_Wifi_BLE_SDK/GD32VW55x_RELEASE_V1.0.2/MSDK/plf/riscv/env\handlers.c ****     raw_flash_write(offset, (void *)&reg_val, 4);
 382:C:/Users/stapi/OneDrive/Desktop/GD32VW553/V1_MQTT_OK/GD32VW55X_Wifi_BLE_SDK/GD32VW55x_RELEASE_V1.0.2/MSDK/plf/riscv/env\handlers.c ****     offset += 4;
 383:C:/Users/stapi/OneDrive/Desktop/GD32VW553/V1_MQTT_OK/GD32VW55X_Wifi_BLE_SDK/GD32VW55x_RELEASE_V1.0.2/MSDK/plf/riscv/env\handlers.c **** 
 384:C:/Users/stapi/OneDrive/Desktop/GD32VW553/V1_MQTT_OK/GD32VW55X_Wifi_BLE_SDK/GD32VW55x_RELEASE_V1.0.2/MSDK/plf/riscv/env\handlers.c ****     reg_val = __RV_CSR_READ(CSR_MTVAL);
 385:C:/Users/stapi/OneDrive/Desktop/GD32VW553/V1_MQTT_OK/GD32VW55X_Wifi_BLE_SDK/GD32VW55x_RELEASE_V1.0.2/MSDK/plf/riscv/env\handlers.c ****     raw_flash_write(offset, (void *)&reg_val, 4);
 386:C:/Users/stapi/OneDrive/Desktop/GD32VW553/V1_MQTT_OK/GD32VW55X_Wifi_BLE_SDK/GD32VW55x_RELEASE_V1.0.2/MSDK/plf/riscv/env\handlers.c ****     offset += 4;
 387:C:/Users/stapi/OneDrive/Desktop/GD32VW553/V1_MQTT_OK/GD32VW55X_Wifi_BLE_SDK/GD32VW55x_RELEASE_V1.0.2/MSDK/plf/riscv/env\handlers.c **** 
 388:C:/Users/stapi/OneDrive/Desktop/GD32VW553/V1_MQTT_OK/GD32VW55X_Wifi_BLE_SDK/GD32VW55x_RELEASE_V1.0.2/MSDK/plf/riscv/env\handlers.c ****     reg_val = __RV_CSR_READ(CSR_MSUBM);
 389:C:/Users/stapi/OneDrive/Desktop/GD32VW553/V1_MQTT_OK/GD32VW55X_Wifi_BLE_SDK/GD32VW55x_RELEASE_V1.0.2/MSDK/plf/riscv/env\handlers.c ****     raw_flash_write(offset, (void *)&reg_val, 4);
 390:C:/Users/stapi/OneDrive/Desktop/GD32VW553/V1_MQTT_OK/GD32VW55X_Wifi_BLE_SDK/GD32VW55x_RELEASE_V1.0.2/MSDK/plf/riscv/env\handlers.c ****     offset += 4;
 391:C:/Users/stapi/OneDrive/Desktop/GD32VW553/V1_MQTT_OK/GD32VW55X_Wifi_BLE_SDK/GD32VW55x_RELEASE_V1.0.2/MSDK/plf/riscv/env\handlers.c **** 
 392:C:/Users/stapi/OneDrive/Desktop/GD32VW553/V1_MQTT_OK/GD32VW55X_Wifi_BLE_SDK/GD32VW55x_RELEASE_V1.0.2/MSDK/plf/riscv/env\handlers.c ****     prefix[2] = 0x02;   //stack type
 393:C:/Users/stapi/OneDrive/Desktop/GD32VW553/V1_MQTT_OK/GD32VW55X_Wifi_BLE_SDK/GD32VW55x_RELEASE_V1.0.2/MSDK/plf/riscv/env\handlers.c ****     // Trap from task
 394:C:/Users/stapi/OneDrive/Desktop/GD32VW553/V1_MQTT_OK/GD32VW55X_Wifi_BLE_SDK/GD32VW55x_RELEASE_V1.0.2/MSDK/plf/riscv/env\handlers.c ****     if ((MSUBM_PTYP & __RV_CSR_READ(CSR_MSUBM)) == 0) {
 395:C:/Users/stapi/OneDrive/Desktop/GD32VW553/V1_MQTT_OK/GD32VW55X_Wifi_BLE_SDK/GD32VW55x_RELEASE_V1.0.2/MSDK/plf/riscv/env\handlers.c ****         int32_t num = sys_current_task_stack_depth(sp);
 396:C:/Users/stapi/OneDrive/Desktop/GD32VW553/V1_MQTT_OK/GD32VW55X_Wifi_BLE_SDK/GD32VW55x_RELEASE_V1.0.2/MSDK/plf/riscv/env\handlers.c ****         if ((offset + num + 6) > WR_REGION_EPAGE) {
 397:C:/Users/stapi/OneDrive/Desktop/GD32VW553/V1_MQTT_OK/GD32VW55X_Wifi_BLE_SDK/GD32VW55x_RELEASE_V1.0.2/MSDK/plf/riscv/env\handlers.c ****             num = WR_REGION_EPAGE - offset - 6;
 398:C:/Users/stapi/OneDrive/Desktop/GD32VW553/V1_MQTT_OK/GD32VW55X_Wifi_BLE_SDK/GD32VW55x_RELEASE_V1.0.2/MSDK/plf/riscv/env\handlers.c ****         }
 399:C:/Users/stapi/OneDrive/Desktop/GD32VW553/V1_MQTT_OK/GD32VW55X_Wifi_BLE_SDK/GD32VW55x_RELEASE_V1.0.2/MSDK/plf/riscv/env\handlers.c ****         prefix[0] = num & 0xFF;
 400:C:/Users/stapi/OneDrive/Desktop/GD32VW553/V1_MQTT_OK/GD32VW55X_Wifi_BLE_SDK/GD32VW55x_RELEASE_V1.0.2/MSDK/plf/riscv/env\handlers.c ****         prefix[1] = (num >> 8) & 0xFF;
 401:C:/Users/stapi/OneDrive/Desktop/GD32VW553/V1_MQTT_OK/GD32VW55X_Wifi_BLE_SDK/GD32VW55x_RELEASE_V1.0.2/MSDK/plf/riscv/env\handlers.c ****         raw_flash_write(offset, (void *)prefix, 3);
 402:C:/Users/stapi/OneDrive/Desktop/GD32VW553/V1_MQTT_OK/GD32VW55X_Wifi_BLE_SDK/GD32VW55x_RELEASE_V1.0.2/MSDK/plf/riscv/env\handlers.c ****         offset += 3;
 403:C:/Users/stapi/OneDrive/Desktop/GD32VW553/V1_MQTT_OK/GD32VW55X_Wifi_BLE_SDK/GD32VW55x_RELEASE_V1.0.2/MSDK/plf/riscv/env\handlers.c ****         raw_flash_write(offset, (void *)sp, num);
 404:C:/Users/stapi/OneDrive/Desktop/GD32VW553/V1_MQTT_OK/GD32VW55X_Wifi_BLE_SDK/GD32VW55x_RELEASE_V1.0.2/MSDK/plf/riscv/env\handlers.c ****         offset += num;
 405:C:/Users/stapi/OneDrive/Desktop/GD32VW553/V1_MQTT_OK/GD32VW55X_Wifi_BLE_SDK/GD32VW55x_RELEASE_V1.0.2/MSDK/plf/riscv/env\handlers.c ****     }
 406:C:/Users/stapi/OneDrive/Desktop/GD32VW553/V1_MQTT_OK/GD32VW55X_Wifi_BLE_SDK/GD32VW55x_RELEASE_V1.0.2/MSDK/plf/riscv/env\handlers.c ****     // Trap from interrupt
 407:C:/Users/stapi/OneDrive/Desktop/GD32VW553/V1_MQTT_OK/GD32VW55X_Wifi_BLE_SDK/GD32VW55x_RELEASE_V1.0.2/MSDK/plf/riscv/env\handlers.c ****     else if ((MSUBM_PTYP & __RV_CSR_READ(CSR_MSUBM)) == 0x0100) {
 408:C:/Users/stapi/OneDrive/Desktop/GD32VW553/V1_MQTT_OK/GD32VW55X_Wifi_BLE_SDK/GD32VW55x_RELEASE_V1.0.2/MSDK/plf/riscv/env\handlers.c ****           unsigned long int_sp = __RV_CSR_READ(CSR_MSCRATCH);
 409:C:/Users/stapi/OneDrive/Desktop/GD32VW553/V1_MQTT_OK/GD32VW55X_Wifi_BLE_SDK/GD32VW55x_RELEASE_V1.0.2/MSDK/plf/riscv/env\handlers.c ****           int32_t sk_num = (uint32_t)_sp - int_sp;
 410:C:/Users/stapi/OneDrive/Desktop/GD32VW553/V1_MQTT_OK/GD32VW55X_Wifi_BLE_SDK/GD32VW55x_RELEASE_V1.0.2/MSDK/plf/riscv/env\handlers.c **** #ifndef __riscv_32e
 411:C:/Users/stapi/OneDrive/Desktop/GD32VW553/V1_MQTT_OK/GD32VW55X_Wifi_BLE_SDK/GD32VW55x_RELEASE_V1.0.2/MSDK/plf/riscv/env\handlers.c ****         int32_t num = 80;
 412:C:/Users/stapi/OneDrive/Desktop/GD32VW553/V1_MQTT_OK/GD32VW55X_Wifi_BLE_SDK/GD32VW55x_RELEASE_V1.0.2/MSDK/plf/riscv/env\handlers.c **** #else
 413:C:/Users/stapi/OneDrive/Desktop/GD32VW553/V1_MQTT_OK/GD32VW55X_Wifi_BLE_SDK/GD32VW55x_RELEASE_V1.0.2/MSDK/plf/riscv/env\handlers.c ****         int32_t num = 64;
 414:C:/Users/stapi/OneDrive/Desktop/GD32VW553/V1_MQTT_OK/GD32VW55X_Wifi_BLE_SDK/GD32VW55x_RELEASE_V1.0.2/MSDK/plf/riscv/env\handlers.c **** #endif
 415:C:/Users/stapi/OneDrive/Desktop/GD32VW553/V1_MQTT_OK/GD32VW55X_Wifi_BLE_SDK/GD32VW55x_RELEASE_V1.0.2/MSDK/plf/riscv/env\handlers.c **** 
 416:C:/Users/stapi/OneDrive/Desktop/GD32VW553/V1_MQTT_OK/GD32VW55X_Wifi_BLE_SDK/GD32VW55x_RELEASE_V1.0.2/MSDK/plf/riscv/env\handlers.c **** #ifdef __riscv_flen
 417:C:/Users/stapi/OneDrive/Desktop/GD32VW553/V1_MQTT_OK/GD32VW55X_Wifi_BLE_SDK/GD32VW55x_RELEASE_V1.0.2/MSDK/plf/riscv/env\handlers.c ****         num += 80;
 418:C:/Users/stapi/OneDrive/Desktop/GD32VW553/V1_MQTT_OK/GD32VW55X_Wifi_BLE_SDK/GD32VW55x_RELEASE_V1.0.2/MSDK/plf/riscv/env\handlers.c **** #endif
 419:C:/Users/stapi/OneDrive/Desktop/GD32VW553/V1_MQTT_OK/GD32VW55X_Wifi_BLE_SDK/GD32VW55x_RELEASE_V1.0.2/MSDK/plf/riscv/env\handlers.c **** 
 420:C:/Users/stapi/OneDrive/Desktop/GD32VW553/V1_MQTT_OK/GD32VW55X_Wifi_BLE_SDK/GD32VW55x_RELEASE_V1.0.2/MSDK/plf/riscv/env\handlers.c ****         if ((offset + num + sk_num + 6) > WR_REGION_EPAGE) {
 421:C:/Users/stapi/OneDrive/Desktop/GD32VW553/V1_MQTT_OK/GD32VW55X_Wifi_BLE_SDK/GD32VW55x_RELEASE_V1.0.2/MSDK/plf/riscv/env\handlers.c ****             sk_num = WR_REGION_EPAGE - offset - 6 - num;
 422:C:/Users/stapi/OneDrive/Desktop/GD32VW553/V1_MQTT_OK/GD32VW55X_Wifi_BLE_SDK/GD32VW55x_RELEASE_V1.0.2/MSDK/plf/riscv/env\handlers.c ****         }
 423:C:/Users/stapi/OneDrive/Desktop/GD32VW553/V1_MQTT_OK/GD32VW55X_Wifi_BLE_SDK/GD32VW55x_RELEASE_V1.0.2/MSDK/plf/riscv/env\handlers.c **** 
 424:C:/Users/stapi/OneDrive/Desktop/GD32VW553/V1_MQTT_OK/GD32VW55X_Wifi_BLE_SDK/GD32VW55x_RELEASE_V1.0.2/MSDK/plf/riscv/env\handlers.c ****         num += sk_num;
 425:C:/Users/stapi/OneDrive/Desktop/GD32VW553/V1_MQTT_OK/GD32VW55X_Wifi_BLE_SDK/GD32VW55x_RELEASE_V1.0.2/MSDK/plf/riscv/env\handlers.c ****         prefix[0] = num & 0xFF;
 426:C:/Users/stapi/OneDrive/Desktop/GD32VW553/V1_MQTT_OK/GD32VW55X_Wifi_BLE_SDK/GD32VW55x_RELEASE_V1.0.2/MSDK/plf/riscv/env\handlers.c ****         prefix[1] = (num >> 8) & 0xFF;
 427:C:/Users/stapi/OneDrive/Desktop/GD32VW553/V1_MQTT_OK/GD32VW55X_Wifi_BLE_SDK/GD32VW55x_RELEASE_V1.0.2/MSDK/plf/riscv/env\handlers.c ****         raw_flash_write(offset, (void *)prefix, 3);
 428:C:/Users/stapi/OneDrive/Desktop/GD32VW553/V1_MQTT_OK/GD32VW55X_Wifi_BLE_SDK/GD32VW55x_RELEASE_V1.0.2/MSDK/plf/riscv/env\handlers.c ****         offset += 3;
 429:C:/Users/stapi/OneDrive/Desktop/GD32VW553/V1_MQTT_OK/GD32VW55X_Wifi_BLE_SDK/GD32VW55x_RELEASE_V1.0.2/MSDK/plf/riscv/env\handlers.c **** 
 430:C:/Users/stapi/OneDrive/Desktop/GD32VW553/V1_MQTT_OK/GD32VW55X_Wifi_BLE_SDK/GD32VW55x_RELEASE_V1.0.2/MSDK/plf/riscv/env\handlers.c ****         num -= sk_num;
 431:C:/Users/stapi/OneDrive/Desktop/GD32VW553/V1_MQTT_OK/GD32VW55X_Wifi_BLE_SDK/GD32VW55x_RELEASE_V1.0.2/MSDK/plf/riscv/env\handlers.c ****         raw_flash_write(offset, (void *)sp, num);
 432:C:/Users/stapi/OneDrive/Desktop/GD32VW553/V1_MQTT_OK/GD32VW55X_Wifi_BLE_SDK/GD32VW55x_RELEASE_V1.0.2/MSDK/plf/riscv/env\handlers.c ****         offset += num;
 433:C:/Users/stapi/OneDrive/Desktop/GD32VW553/V1_MQTT_OK/GD32VW55X_Wifi_BLE_SDK/GD32VW55x_RELEASE_V1.0.2/MSDK/plf/riscv/env\handlers.c **** 
 434:C:/Users/stapi/OneDrive/Desktop/GD32VW553/V1_MQTT_OK/GD32VW55X_Wifi_BLE_SDK/GD32VW55x_RELEASE_V1.0.2/MSDK/plf/riscv/env\handlers.c ****         num = sk_num;
 435:C:/Users/stapi/OneDrive/Desktop/GD32VW553/V1_MQTT_OK/GD32VW55X_Wifi_BLE_SDK/GD32VW55x_RELEASE_V1.0.2/MSDK/plf/riscv/env\handlers.c ****         raw_flash_write(offset, (void *)int_sp, num);
 436:C:/Users/stapi/OneDrive/Desktop/GD32VW553/V1_MQTT_OK/GD32VW55X_Wifi_BLE_SDK/GD32VW55x_RELEASE_V1.0.2/MSDK/plf/riscv/env\handlers.c ****         offset += num;
 437:C:/Users/stapi/OneDrive/Desktop/GD32VW553/V1_MQTT_OK/GD32VW55X_Wifi_BLE_SDK/GD32VW55x_RELEASE_V1.0.2/MSDK/plf/riscv/env\handlers.c ****     }
 438:C:/Users/stapi/OneDrive/Desktop/GD32VW553/V1_MQTT_OK/GD32VW55X_Wifi_BLE_SDK/GD32VW55x_RELEASE_V1.0.2/MSDK/plf/riscv/env\handlers.c **** 
 439:C:/Users/stapi/OneDrive/Desktop/GD32VW553/V1_MQTT_OK/GD32VW55X_Wifi_BLE_SDK/GD32VW55x_RELEASE_V1.0.2/MSDK/plf/riscv/env\handlers.c ****     prefix[0] = 0;
 440:C:/Users/stapi/OneDrive/Desktop/GD32VW553/V1_MQTT_OK/GD32VW55X_Wifi_BLE_SDK/GD32VW55x_RELEASE_V1.0.2/MSDK/plf/riscv/env\handlers.c ****     prefix[1] = 0;
 441:C:/Users/stapi/OneDrive/Desktop/GD32VW553/V1_MQTT_OK/GD32VW55X_Wifi_BLE_SDK/GD32VW55x_RELEASE_V1.0.2/MSDK/plf/riscv/env\handlers.c ****     raw_flash_write(offset, (void *)&prefix, 3);
 442:C:/Users/stapi/OneDrive/Desktop/GD32VW553/V1_MQTT_OK/GD32VW55X_Wifi_BLE_SDK/GD32VW55x_RELEASE_V1.0.2/MSDK/plf/riscv/env\handlers.c **** }
 443:C:/Users/stapi/OneDrive/Desktop/GD32VW553/V1_MQTT_OK/GD32VW55X_Wifi_BLE_SDK/GD32VW55x_RELEASE_V1.0.2/MSDK/plf/riscv/env\handlers.c **** #endif
 444:C:/Users/stapi/OneDrive/Desktop/GD32VW553/V1_MQTT_OK/GD32VW55X_Wifi_BLE_SDK/GD32VW55x_RELEASE_V1.0.2/MSDK/plf/riscv/env\handlers.c **** 
 445:C:/Users/stapi/OneDrive/Desktop/GD32VW553/V1_MQTT_OK/GD32VW55X_Wifi_BLE_SDK/GD32VW55x_RELEASE_V1.0.2/MSDK/plf/riscv/env\handlers.c **** /**
 446:C:/Users/stapi/OneDrive/Desktop/GD32VW553/V1_MQTT_OK/GD32VW55X_Wifi_BLE_SDK/GD32VW55x_RELEASE_V1.0.2/MSDK/plf/riscv/env\handlers.c ****  * \brief      System Default Exception Handler
 447:C:/Users/stapi/OneDrive/Desktop/GD32VW553/V1_MQTT_OK/GD32VW55X_Wifi_BLE_SDK/GD32VW55x_RELEASE_V1.0.2/MSDK/plf/riscv/env\handlers.c ****  * \details
 448:C:/Users/stapi/OneDrive/Desktop/GD32VW553/V1_MQTT_OK/GD32VW55X_Wifi_BLE_SDK/GD32VW55x_RELEASE_V1.0.2/MSDK/plf/riscv/env\handlers.c ****  * This function provided a default exception and NMI handling code for all exception ids.
 449:C:/Users/stapi/OneDrive/Desktop/GD32VW553/V1_MQTT_OK/GD32VW55X_Wifi_BLE_SDK/GD32VW55x_RELEASE_V1.0.2/MSDK/plf/riscv/env\handlers.c ****  * By default, It will just print some information for debug, Vendor can customize it according to 
 450:C:/Users/stapi/OneDrive/Desktop/GD32VW553/V1_MQTT_OK/GD32VW55X_Wifi_BLE_SDK/GD32VW55x_RELEASE_V1.0.2/MSDK/plf/riscv/env\handlers.c ****  */
 451:C:/Users/stapi/OneDrive/Desktop/GD32VW553/V1_MQTT_OK/GD32VW55X_Wifi_BLE_SDK/GD32VW55x_RELEASE_V1.0.2/MSDK/plf/riscv/env\handlers.c **** static void system_default_exception_handler(unsigned long mcause, unsigned long sp)
 452:C:/Users/stapi/OneDrive/Desktop/GD32VW553/V1_MQTT_OK/GD32VW55X_Wifi_BLE_SDK/GD32VW55x_RELEASE_V1.0.2/MSDK/plf/riscv/env\handlers.c **** {
 453:C:/Users/stapi/OneDrive/Desktop/GD32VW553/V1_MQTT_OK/GD32VW55X_Wifi_BLE_SDK/GD32VW55x_RELEASE_V1.0.2/MSDK/plf/riscv/env\handlers.c ****     /* TODO: Uncomment this if you have implement printf function */
 454:C:/Users/stapi/OneDrive/Desktop/GD32VW553/V1_MQTT_OK/GD32VW55X_Wifi_BLE_SDK/GD32VW55x_RELEASE_V1.0.2/MSDK/plf/riscv/env\handlers.c **** #ifdef EXEC_USING_STD_PRINTF
 455:C:/Users/stapi/OneDrive/Desktop/GD32VW553/V1_MQTT_OK/GD32VW55X_Wifi_BLE_SDK/GD32VW55x_RELEASE_V1.0.2/MSDK/plf/riscv/env\handlers.c ****     printf("MCAUSE : 0x%lx\r\n", mcause);
 456:C:/Users/stapi/OneDrive/Desktop/GD32VW553/V1_MQTT_OK/GD32VW55X_Wifi_BLE_SDK/GD32VW55x_RELEASE_V1.0.2/MSDK/plf/riscv/env\handlers.c ****     printf("MDCAUSE: 0x%lx\r\n", __RV_CSR_READ(CSR_MDCAUSE));
 457:C:/Users/stapi/OneDrive/Desktop/GD32VW553/V1_MQTT_OK/GD32VW55X_Wifi_BLE_SDK/GD32VW55x_RELEASE_V1.0.2/MSDK/plf/riscv/env\handlers.c ****     printf("MEPC   : 0x%lx\r\n", __RV_CSR_READ(CSR_MEPC));
 458:C:/Users/stapi/OneDrive/Desktop/GD32VW553/V1_MQTT_OK/GD32VW55X_Wifi_BLE_SDK/GD32VW55x_RELEASE_V1.0.2/MSDK/plf/riscv/env\handlers.c ****     printf("MTVAL  : 0x%lx\r\n", __RV_CSR_READ(CSR_MTVAL));
 459:C:/Users/stapi/OneDrive/Desktop/GD32VW553/V1_MQTT_OK/GD32VW55X_Wifi_BLE_SDK/GD32VW55x_RELEASE_V1.0.2/MSDK/plf/riscv/env\handlers.c **** #else
 460:C:/Users/stapi/OneDrive/Desktop/GD32VW553/V1_MQTT_OK/GD32VW55X_Wifi_BLE_SDK/GD32VW55x_RELEASE_V1.0.2/MSDK/plf/riscv/env\handlers.c ****     char ch;
 461:C:/Users/stapi/OneDrive/Desktop/GD32VW553/V1_MQTT_OK/GD32VW55X_Wifi_BLE_SDK/GD32VW55x_RELEASE_V1.0.2/MSDK/plf/riscv/env\handlers.c ****     char uart_buf[64];
 462:C:/Users/stapi/OneDrive/Desktop/GD32VW553/V1_MQTT_OK/GD32VW55X_Wifi_BLE_SDK/GD32VW55x_RELEASE_V1.0.2/MSDK/plf/riscv/env\handlers.c ****     uint8_t uart_index = 0;
 463:C:/Users/stapi/OneDrive/Desktop/GD32VW553/V1_MQTT_OK/GD32VW55X_Wifi_BLE_SDK/GD32VW55x_RELEASE_V1.0.2/MSDK/plf/riscv/env\handlers.c **** 
 464:C:/Users/stapi/OneDrive/Desktop/GD32VW553/V1_MQTT_OK/GD32VW55X_Wifi_BLE_SDK/GD32VW55x_RELEASE_V1.0.2/MSDK/plf/riscv/env\handlers.c ****     log_uart_put_data((const uint8_t *)"System Default Exception \r\n", strlen("System Default Exce
 465:C:/Users/stapi/OneDrive/Desktop/GD32VW553/V1_MQTT_OK/GD32VW55X_Wifi_BLE_SDK/GD32VW55x_RELEASE_V1.0.2/MSDK/plf/riscv/env\handlers.c ****     print_reg("MCAUSE :      0x", 16, mcause);
 466:C:/Users/stapi/OneDrive/Desktop/GD32VW553/V1_MQTT_OK/GD32VW55X_Wifi_BLE_SDK/GD32VW55x_RELEASE_V1.0.2/MSDK/plf/riscv/env\handlers.c ****     print_reg("MDCAUSE:      0x", 16, __RV_CSR_READ(CSR_MDCAUSE));
 467:C:/Users/stapi/OneDrive/Desktop/GD32VW553/V1_MQTT_OK/GD32VW55X_Wifi_BLE_SDK/GD32VW55x_RELEASE_V1.0.2/MSDK/plf/riscv/env\handlers.c ****     print_reg("MEPC   :      0x", 16, __RV_CSR_READ(CSR_MEPC));
 468:C:/Users/stapi/OneDrive/Desktop/GD32VW553/V1_MQTT_OK/GD32VW55X_Wifi_BLE_SDK/GD32VW55x_RELEASE_V1.0.2/MSDK/plf/riscv/env\handlers.c ****     print_reg("MTVAL  :      0x", 16, __RV_CSR_READ(CSR_MTVAL));
 469:C:/Users/stapi/OneDrive/Desktop/GD32VW553/V1_MQTT_OK/GD32VW55X_Wifi_BLE_SDK/GD32VW55x_RELEASE_V1.0.2/MSDK/plf/riscv/env\handlers.c ****     print_reg("MSUBM  :      0x", 16, __RV_CSR_READ(CSR_MSUBM));
 470:C:/Users/stapi/OneDrive/Desktop/GD32VW553/V1_MQTT_OK/GD32VW55X_Wifi_BLE_SDK/GD32VW55x_RELEASE_V1.0.2/MSDK/plf/riscv/env\handlers.c **** #endif
 471:C:/Users/stapi/OneDrive/Desktop/GD32VW553/V1_MQTT_OK/GD32VW55X_Wifi_BLE_SDK/GD32VW55x_RELEASE_V1.0.2/MSDK/plf/riscv/env\handlers.c ****     Exception_DumpFrame(sp);
 472:C:/Users/stapi/OneDrive/Desktop/GD32VW553/V1_MQTT_OK/GD32VW55X_Wifi_BLE_SDK/GD32VW55x_RELEASE_V1.0.2/MSDK/plf/riscv/env\handlers.c **** 
 473:C:/Users/stapi/OneDrive/Desktop/GD32VW553/V1_MQTT_OK/GD32VW55X_Wifi_BLE_SDK/GD32VW55x_RELEASE_V1.0.2/MSDK/plf/riscv/env\handlers.c **** #ifndef EXEC_USING_STD_PRINTF
 474:C:/Users/stapi/OneDrive/Desktop/GD32VW553/V1_MQTT_OK/GD32VW55X_Wifi_BLE_SDK/GD32VW55x_RELEASE_V1.0.2/MSDK/plf/riscv/env\handlers.c ****     // Trap from task
 475:C:/Users/stapi/OneDrive/Desktop/GD32VW553/V1_MQTT_OK/GD32VW55X_Wifi_BLE_SDK/GD32VW55x_RELEASE_V1.0.2/MSDK/plf/riscv/env\handlers.c ****     if ((MSUBM_PTYP & __RV_CSR_READ(CSR_MSUBM)) == 0) {
 476:C:/Users/stapi/OneDrive/Desktop/GD32VW553/V1_MQTT_OK/GD32VW55X_Wifi_BLE_SDK/GD32VW55x_RELEASE_V1.0.2/MSDK/plf/riscv/env\handlers.c ****         print_reg("SP     :      0x", 16, sp);
 477:C:/Users/stapi/OneDrive/Desktop/GD32VW553/V1_MQTT_OK/GD32VW55X_Wifi_BLE_SDK/GD32VW55x_RELEASE_V1.0.2/MSDK/plf/riscv/env\handlers.c ****         xCurrentTaskDumpInfo(sp);
 478:C:/Users/stapi/OneDrive/Desktop/GD32VW553/V1_MQTT_OK/GD32VW55X_Wifi_BLE_SDK/GD32VW55x_RELEASE_V1.0.2/MSDK/plf/riscv/env\handlers.c ****     }
 479:C:/Users/stapi/OneDrive/Desktop/GD32VW553/V1_MQTT_OK/GD32VW55X_Wifi_BLE_SDK/GD32VW55x_RELEASE_V1.0.2/MSDK/plf/riscv/env\handlers.c ****     // Trap from interrupt
 480:C:/Users/stapi/OneDrive/Desktop/GD32VW553/V1_MQTT_OK/GD32VW55X_Wifi_BLE_SDK/GD32VW55x_RELEASE_V1.0.2/MSDK/plf/riscv/env\handlers.c ****     else if ((MSUBM_PTYP & __RV_CSR_READ(CSR_MSUBM)) == 0x0100) {
 481:C:/Users/stapi/OneDrive/Desktop/GD32VW553/V1_MQTT_OK/GD32VW55X_Wifi_BLE_SDK/GD32VW55x_RELEASE_V1.0.2/MSDK/plf/riscv/env\handlers.c ****         unsigned long int_sp = __RV_CSR_READ(CSR_MSCRATCH);
 482:C:/Users/stapi/OneDrive/Desktop/GD32VW553/V1_MQTT_OK/GD32VW55X_Wifi_BLE_SDK/GD32VW55x_RELEASE_V1.0.2/MSDK/plf/riscv/env\handlers.c ****         print_reg("SP     :      0x", 16, int_sp);
 483:C:/Users/stapi/OneDrive/Desktop/GD32VW553/V1_MQTT_OK/GD32VW55X_Wifi_BLE_SDK/GD32VW55x_RELEASE_V1.0.2/MSDK/plf/riscv/env\handlers.c **** #ifndef __riscv_32e
 484:C:/Users/stapi/OneDrive/Desktop/GD32VW553/V1_MQTT_OK/GD32VW55X_Wifi_BLE_SDK/GD32VW55x_RELEASE_V1.0.2/MSDK/plf/riscv/env\handlers.c ****         int32_t num = 80;
 485:C:/Users/stapi/OneDrive/Desktop/GD32VW553/V1_MQTT_OK/GD32VW55X_Wifi_BLE_SDK/GD32VW55x_RELEASE_V1.0.2/MSDK/plf/riscv/env\handlers.c **** #else
 486:C:/Users/stapi/OneDrive/Desktop/GD32VW553/V1_MQTT_OK/GD32VW55X_Wifi_BLE_SDK/GD32VW55x_RELEASE_V1.0.2/MSDK/plf/riscv/env\handlers.c ****         int32_t num = 64;
 487:C:/Users/stapi/OneDrive/Desktop/GD32VW553/V1_MQTT_OK/GD32VW55X_Wifi_BLE_SDK/GD32VW55x_RELEASE_V1.0.2/MSDK/plf/riscv/env\handlers.c **** #endif
 488:C:/Users/stapi/OneDrive/Desktop/GD32VW553/V1_MQTT_OK/GD32VW55X_Wifi_BLE_SDK/GD32VW55x_RELEASE_V1.0.2/MSDK/plf/riscv/env\handlers.c **** 
 489:C:/Users/stapi/OneDrive/Desktop/GD32VW553/V1_MQTT_OK/GD32VW55X_Wifi_BLE_SDK/GD32VW55x_RELEASE_V1.0.2/MSDK/plf/riscv/env\handlers.c **** #ifdef __riscv_flen
 490:C:/Users/stapi/OneDrive/Desktop/GD32VW553/V1_MQTT_OK/GD32VW55X_Wifi_BLE_SDK/GD32VW55x_RELEASE_V1.0.2/MSDK/plf/riscv/env\handlers.c ****         num += 84;
 491:C:/Users/stapi/OneDrive/Desktop/GD32VW553/V1_MQTT_OK/GD32VW55X_Wifi_BLE_SDK/GD32VW55x_RELEASE_V1.0.2/MSDK/plf/riscv/env\handlers.c **** #endif
 492:C:/Users/stapi/OneDrive/Desktop/GD32VW553/V1_MQTT_OK/GD32VW55X_Wifi_BLE_SDK/GD32VW55x_RELEASE_V1.0.2/MSDK/plf/riscv/env\handlers.c ****         log_uart_put_data((uint8_t *)"Interrupt Stack Dump:\r\n", strlen("Interrupt Stack Dump:\r\n
 493:C:/Users/stapi/OneDrive/Desktop/GD32VW553/V1_MQTT_OK/GD32VW55X_Wifi_BLE_SDK/GD32VW55x_RELEASE_V1.0.2/MSDK/plf/riscv/env\handlers.c ****         dumpStackInfo(sp, num);
 494:C:/Users/stapi/OneDrive/Desktop/GD32VW553/V1_MQTT_OK/GD32VW55X_Wifi_BLE_SDK/GD32VW55x_RELEASE_V1.0.2/MSDK/plf/riscv/env\handlers.c ****         num = (uint32_t)_sp - int_sp;
 495:C:/Users/stapi/OneDrive/Desktop/GD32VW553/V1_MQTT_OK/GD32VW55X_Wifi_BLE_SDK/GD32VW55x_RELEASE_V1.0.2/MSDK/plf/riscv/env\handlers.c ****         dumpStackInfo(int_sp, num);
 496:C:/Users/stapi/OneDrive/Desktop/GD32VW553/V1_MQTT_OK/GD32VW55X_Wifi_BLE_SDK/GD32VW55x_RELEASE_V1.0.2/MSDK/plf/riscv/env\handlers.c ****     }
 497:C:/Users/stapi/OneDrive/Desktop/GD32VW553/V1_MQTT_OK/GD32VW55X_Wifi_BLE_SDK/GD32VW55x_RELEASE_V1.0.2/MSDK/plf/riscv/env\handlers.c ****     log_uart_put_data((const uint8_t *)"Please use bloodhound tool to parse log above!\r\n", strlen
 498:C:/Users/stapi/OneDrive/Desktop/GD32VW553/V1_MQTT_OK/GD32VW55X_Wifi_BLE_SDK/GD32VW55x_RELEASE_V1.0.2/MSDK/plf/riscv/env\handlers.c **** 
 499:C:/Users/stapi/OneDrive/Desktop/GD32VW553/V1_MQTT_OK/GD32VW55X_Wifi_BLE_SDK/GD32VW55x_RELEASE_V1.0.2/MSDK/plf/riscv/env\handlers.c **** #if EXC_LOG_TO_FLASH
 500:C:/Users/stapi/OneDrive/Desktop/GD32VW553/V1_MQTT_OK/GD32VW55X_Wifi_BLE_SDK/GD32VW55x_RELEASE_V1.0.2/MSDK/plf/riscv/env\handlers.c ****     dump_info_2_flash(sp);
 501:C:/Users/stapi/OneDrive/Desktop/GD32VW553/V1_MQTT_OK/GD32VW55X_Wifi_BLE_SDK/GD32VW55x_RELEASE_V1.0.2/MSDK/plf/riscv/env\handlers.c **** #endif
 502:C:/Users/stapi/OneDrive/Desktop/GD32VW553/V1_MQTT_OK/GD32VW55X_Wifi_BLE_SDK/GD32VW55x_RELEASE_V1.0.2/MSDK/plf/riscv/env\handlers.c **** 
 503:C:/Users/stapi/OneDrive/Desktop/GD32VW553/V1_MQTT_OK/GD32VW55X_Wifi_BLE_SDK/GD32VW55x_RELEASE_V1.0.2/MSDK/plf/riscv/env\handlers.c **** #if (UART_CMD_IN_EXC == 1)
 504:C:/Users/stapi/OneDrive/Desktop/GD32VW553/V1_MQTT_OK/GD32VW55X_Wifi_BLE_SDK/GD32VW55x_RELEASE_V1.0.2/MSDK/plf/riscv/env\handlers.c ****     uart_config(LOG_UART, DEFAULT_LOG_BAUDRATE, false, false, false);
 505:C:/Users/stapi/OneDrive/Desktop/GD32VW553/V1_MQTT_OK/GD32VW55X_Wifi_BLE_SDK/GD32VW55x_RELEASE_V1.0.2/MSDK/plf/riscv/env\handlers.c ****     log_uart_put_data((const uint8_t *)"\r\n", strlen("\r\n"));
 506:C:/Users/stapi/OneDrive/Desktop/GD32VW553/V1_MQTT_OK/GD32VW55X_Wifi_BLE_SDK/GD32VW55x_RELEASE_V1.0.2/MSDK/plf/riscv/env\handlers.c ****     log_uart_put_data((const uint8_t *)"print help to get cmd\r\n", strlen("print help to get cmd\r
 507:C:/Users/stapi/OneDrive/Desktop/GD32VW553/V1_MQTT_OK/GD32VW55X_Wifi_BLE_SDK/GD32VW55x_RELEASE_V1.0.2/MSDK/plf/riscv/env\handlers.c ****     while (1) {
 508:C:/Users/stapi/OneDrive/Desktop/GD32VW553/V1_MQTT_OK/GD32VW55X_Wifi_BLE_SDK/GD32VW55x_RELEASE_V1.0.2/MSDK/plf/riscv/env\handlers.c ****         // We should have chance to check overflow error
 509:C:/Users/stapi/OneDrive/Desktop/GD32VW553/V1_MQTT_OK/GD32VW55X_Wifi_BLE_SDK/GD32VW55x_RELEASE_V1.0.2/MSDK/plf/riscv/env\handlers.c ****         // Otherwise it may cause dead loop handle rx interrupt
 510:C:/Users/stapi/OneDrive/Desktop/GD32VW553/V1_MQTT_OK/GD32VW55X_Wifi_BLE_SDK/GD32VW55x_RELEASE_V1.0.2/MSDK/plf/riscv/env\handlers.c ****         if (RESET != usart_flag_get(LOG_UART, USART_FLAG_ORERR)) {
 511:C:/Users/stapi/OneDrive/Desktop/GD32VW553/V1_MQTT_OK/GD32VW55X_Wifi_BLE_SDK/GD32VW55x_RELEASE_V1.0.2/MSDK/plf/riscv/env\handlers.c ****             usart_flag_clear(LOG_UART, USART_FLAG_ORERR);
 512:C:/Users/stapi/OneDrive/Desktop/GD32VW553/V1_MQTT_OK/GD32VW55X_Wifi_BLE_SDK/GD32VW55x_RELEASE_V1.0.2/MSDK/plf/riscv/env\handlers.c ****         }
 513:C:/Users/stapi/OneDrive/Desktop/GD32VW553/V1_MQTT_OK/GD32VW55X_Wifi_BLE_SDK/GD32VW55x_RELEASE_V1.0.2/MSDK/plf/riscv/env\handlers.c **** 
 514:C:/Users/stapi/OneDrive/Desktop/GD32VW553/V1_MQTT_OK/GD32VW55X_Wifi_BLE_SDK/GD32VW55x_RELEASE_V1.0.2/MSDK/plf/riscv/env\handlers.c ****         if ((RESET != usart_flag_get(LOG_UART, USART_FLAG_RBNE))) {
 515:C:/Users/stapi/OneDrive/Desktop/GD32VW553/V1_MQTT_OK/GD32VW55X_Wifi_BLE_SDK/GD32VW55x_RELEASE_V1.0.2/MSDK/plf/riscv/env\handlers.c ****             ch = (char)usart_data_receive(LOG_UART);
 516:C:/Users/stapi/OneDrive/Desktop/GD32VW553/V1_MQTT_OK/GD32VW55X_Wifi_BLE_SDK/GD32VW55x_RELEASE_V1.0.2/MSDK/plf/riscv/env\handlers.c ****         }
 517:C:/Users/stapi/OneDrive/Desktop/GD32VW553/V1_MQTT_OK/GD32VW55X_Wifi_BLE_SDK/GD32VW55x_RELEASE_V1.0.2/MSDK/plf/riscv/env\handlers.c ****         else {
 518:C:/Users/stapi/OneDrive/Desktop/GD32VW553/V1_MQTT_OK/GD32VW55X_Wifi_BLE_SDK/GD32VW55x_RELEASE_V1.0.2/MSDK/plf/riscv/env\handlers.c ****             continue;
 519:C:/Users/stapi/OneDrive/Desktop/GD32VW553/V1_MQTT_OK/GD32VW55X_Wifi_BLE_SDK/GD32VW55x_RELEASE_V1.0.2/MSDK/plf/riscv/env\handlers.c ****         }
 520:C:/Users/stapi/OneDrive/Desktop/GD32VW553/V1_MQTT_OK/GD32VW55X_Wifi_BLE_SDK/GD32VW55x_RELEASE_V1.0.2/MSDK/plf/riscv/env\handlers.c **** 
 521:C:/Users/stapi/OneDrive/Desktop/GD32VW553/V1_MQTT_OK/GD32VW55X_Wifi_BLE_SDK/GD32VW55x_RELEASE_V1.0.2/MSDK/plf/riscv/env\handlers.c ****         if (ch == '\r' || ch == '\n') { /* putty doesn't transmit '\n' */
 522:C:/Users/stapi/OneDrive/Desktop/GD32VW553/V1_MQTT_OK/GD32VW55X_Wifi_BLE_SDK/GD32VW55x_RELEASE_V1.0.2/MSDK/plf/riscv/env\handlers.c ****             log_uart_putc_noint('\r');
 523:C:/Users/stapi/OneDrive/Desktop/GD32VW553/V1_MQTT_OK/GD32VW55X_Wifi_BLE_SDK/GD32VW55x_RELEASE_V1.0.2/MSDK/plf/riscv/env\handlers.c ****             log_uart_putc_noint('\n');
 524:C:/Users/stapi/OneDrive/Desktop/GD32VW553/V1_MQTT_OK/GD32VW55X_Wifi_BLE_SDK/GD32VW55x_RELEASE_V1.0.2/MSDK/plf/riscv/env\handlers.c **** 
 525:C:/Users/stapi/OneDrive/Desktop/GD32VW553/V1_MQTT_OK/GD32VW55X_Wifi_BLE_SDK/GD32VW55x_RELEASE_V1.0.2/MSDK/plf/riscv/env\handlers.c ****             if (uart_index > 0) {
 526:C:/Users/stapi/OneDrive/Desktop/GD32VW553/V1_MQTT_OK/GD32VW55X_Wifi_BLE_SDK/GD32VW55x_RELEASE_V1.0.2/MSDK/plf/riscv/env\handlers.c ****                 parseUartCmd(uart_buf, uart_index, sp);
 527:C:/Users/stapi/OneDrive/Desktop/GD32VW553/V1_MQTT_OK/GD32VW55X_Wifi_BLE_SDK/GD32VW55x_RELEASE_V1.0.2/MSDK/plf/riscv/env\handlers.c ****             }
 528:C:/Users/stapi/OneDrive/Desktop/GD32VW553/V1_MQTT_OK/GD32VW55X_Wifi_BLE_SDK/GD32VW55x_RELEASE_V1.0.2/MSDK/plf/riscv/env\handlers.c ****             log_uart_putc_noint('#');
 529:C:/Users/stapi/OneDrive/Desktop/GD32VW553/V1_MQTT_OK/GD32VW55X_Wifi_BLE_SDK/GD32VW55x_RELEASE_V1.0.2/MSDK/plf/riscv/env\handlers.c ****             log_uart_putc_noint(' ');
 530:C:/Users/stapi/OneDrive/Desktop/GD32VW553/V1_MQTT_OK/GD32VW55X_Wifi_BLE_SDK/GD32VW55x_RELEASE_V1.0.2/MSDK/plf/riscv/env\handlers.c ****             uart_index = 0;
 531:C:/Users/stapi/OneDrive/Desktop/GD32VW553/V1_MQTT_OK/GD32VW55X_Wifi_BLE_SDK/GD32VW55x_RELEASE_V1.0.2/MSDK/plf/riscv/env\handlers.c ****         } else if (ch == '\b') { /* non-destructive backspace */
 532:C:/Users/stapi/OneDrive/Desktop/GD32VW553/V1_MQTT_OK/GD32VW55X_Wifi_BLE_SDK/GD32VW55x_RELEASE_V1.0.2/MSDK/plf/riscv/env\handlers.c ****             if (uart_index > 0) {
 533:C:/Users/stapi/OneDrive/Desktop/GD32VW553/V1_MQTT_OK/GD32VW55X_Wifi_BLE_SDK/GD32VW55x_RELEASE_V1.0.2/MSDK/plf/riscv/env\handlers.c ****                 uart_buf[--uart_index] = '\0';
 534:C:/Users/stapi/OneDrive/Desktop/GD32VW553/V1_MQTT_OK/GD32VW55X_Wifi_BLE_SDK/GD32VW55x_RELEASE_V1.0.2/MSDK/plf/riscv/env\handlers.c ****             }
 535:C:/Users/stapi/OneDrive/Desktop/GD32VW553/V1_MQTT_OK/GD32VW55X_Wifi_BLE_SDK/GD32VW55x_RELEASE_V1.0.2/MSDK/plf/riscv/env\handlers.c ****         }
 536:C:/Users/stapi/OneDrive/Desktop/GD32VW553/V1_MQTT_OK/GD32VW55X_Wifi_BLE_SDK/GD32VW55x_RELEASE_V1.0.2/MSDK/plf/riscv/env\handlers.c ****         else {
 537:C:/Users/stapi/OneDrive/Desktop/GD32VW553/V1_MQTT_OK/GD32VW55X_Wifi_BLE_SDK/GD32VW55x_RELEASE_V1.0.2/MSDK/plf/riscv/env\handlers.c ****             uart_buf[uart_index++] = ch;
 538:C:/Users/stapi/OneDrive/Desktop/GD32VW553/V1_MQTT_OK/GD32VW55X_Wifi_BLE_SDK/GD32VW55x_RELEASE_V1.0.2/MSDK/plf/riscv/env\handlers.c ****             if (uart_index >= 64) {
 539:C:/Users/stapi/OneDrive/Desktop/GD32VW553/V1_MQTT_OK/GD32VW55X_Wifi_BLE_SDK/GD32VW55x_RELEASE_V1.0.2/MSDK/plf/riscv/env\handlers.c ****                 uart_index = 0;
 540:C:/Users/stapi/OneDrive/Desktop/GD32VW553/V1_MQTT_OK/GD32VW55X_Wifi_BLE_SDK/GD32VW55x_RELEASE_V1.0.2/MSDK/plf/riscv/env\handlers.c ****             }
 541:C:/Users/stapi/OneDrive/Desktop/GD32VW553/V1_MQTT_OK/GD32VW55X_Wifi_BLE_SDK/GD32VW55x_RELEASE_V1.0.2/MSDK/plf/riscv/env\handlers.c ****             log_uart_putc_noint(ch);
 542:C:/Users/stapi/OneDrive/Desktop/GD32VW553/V1_MQTT_OK/GD32VW55X_Wifi_BLE_SDK/GD32VW55x_RELEASE_V1.0.2/MSDK/plf/riscv/env\handlers.c ****         }
 543:C:/Users/stapi/OneDrive/Desktop/GD32VW553/V1_MQTT_OK/GD32VW55X_Wifi_BLE_SDK/GD32VW55x_RELEASE_V1.0.2/MSDK/plf/riscv/env\handlers.c ****     }
 544:C:/Users/stapi/OneDrive/Desktop/GD32VW553/V1_MQTT_OK/GD32VW55X_Wifi_BLE_SDK/GD32VW55x_RELEASE_V1.0.2/MSDK/plf/riscv/env\handlers.c **** #endif
 545:C:/Users/stapi/OneDrive/Desktop/GD32VW553/V1_MQTT_OK/GD32VW55X_Wifi_BLE_SDK/GD32VW55x_RELEASE_V1.0.2/MSDK/plf/riscv/env\handlers.c **** #endif
 546:C:/Users/stapi/OneDrive/Desktop/GD32VW553/V1_MQTT_OK/GD32VW55X_Wifi_BLE_SDK/GD32VW55x_RELEASE_V1.0.2/MSDK/plf/riscv/env\handlers.c ****     while (1);
 547:C:/Users/stapi/OneDrive/Desktop/GD32VW553/V1_MQTT_OK/GD32VW55X_Wifi_BLE_SDK/GD32VW55x_RELEASE_V1.0.2/MSDK/plf/riscv/env\handlers.c **** }
 548:C:/Users/stapi/OneDrive/Desktop/GD32VW553/V1_MQTT_OK/GD32VW55X_Wifi_BLE_SDK/GD32VW55x_RELEASE_V1.0.2/MSDK/plf/riscv/env\handlers.c **** 
 549:C:/Users/stapi/OneDrive/Desktop/GD32VW553/V1_MQTT_OK/GD32VW55X_Wifi_BLE_SDK/GD32VW55x_RELEASE_V1.0.2/MSDK/plf/riscv/env\handlers.c **** /**
 550:C:/Users/stapi/OneDrive/Desktop/GD32VW553/V1_MQTT_OK/GD32VW55X_Wifi_BLE_SDK/GD32VW55x_RELEASE_V1.0.2/MSDK/plf/riscv/env\handlers.c ****  * \brief      NMI Handler
 551:C:/Users/stapi/OneDrive/Desktop/GD32VW553/V1_MQTT_OK/GD32VW55X_Wifi_BLE_SDK/GD32VW55x_RELEASE_V1.0.2/MSDK/plf/riscv/env\handlers.c ****  * \details
 552:C:/Users/stapi/OneDrive/Desktop/GD32VW553/V1_MQTT_OK/GD32VW55X_Wifi_BLE_SDK/GD32VW55x_RELEASE_V1.0.2/MSDK/plf/riscv/env\handlers.c ****  * This function provided a NMI handling code for NMI_EXCn.
 553:C:/Users/stapi/OneDrive/Desktop/GD32VW553/V1_MQTT_OK/GD32VW55X_Wifi_BLE_SDK/GD32VW55x_RELEASE_V1.0.2/MSDK/plf/riscv/env\handlers.c ****  * By default, It will just print some information for debug, Vendor can customize it according to 
 554:C:/Users/stapi/OneDrive/Desktop/GD32VW553/V1_MQTT_OK/GD32VW55X_Wifi_BLE_SDK/GD32VW55x_RELEASE_V1.0.2/MSDK/plf/riscv/env\handlers.c ****  */
 555:C:/Users/stapi/OneDrive/Desktop/GD32VW553/V1_MQTT_OK/GD32VW55X_Wifi_BLE_SDK/GD32VW55x_RELEASE_V1.0.2/MSDK/plf/riscv/env\handlers.c **** void nmi_handler(unsigned long mcause, unsigned long sp)
 556:C:/Users/stapi/OneDrive/Desktop/GD32VW553/V1_MQTT_OK/GD32VW55X_Wifi_BLE_SDK/GD32VW55x_RELEASE_V1.0.2/MSDK/plf/riscv/env\handlers.c **** {
 557:C:/Users/stapi/OneDrive/Desktop/GD32VW553/V1_MQTT_OK/GD32VW55X_Wifi_BLE_SDK/GD32VW55x_RELEASE_V1.0.2/MSDK/plf/riscv/env\handlers.c ****     /* TODO: Uncomment this if you have implement printf function */
 558:C:/Users/stapi/OneDrive/Desktop/GD32VW553/V1_MQTT_OK/GD32VW55X_Wifi_BLE_SDK/GD32VW55x_RELEASE_V1.0.2/MSDK/plf/riscv/env\handlers.c **** #ifdef EXEC_USING_STD_PRINTF
 559:C:/Users/stapi/OneDrive/Desktop/GD32VW553/V1_MQTT_OK/GD32VW55X_Wifi_BLE_SDK/GD32VW55x_RELEASE_V1.0.2/MSDK/plf/riscv/env\handlers.c ****     printf("NMI \r\n");
 560:C:/Users/stapi/OneDrive/Desktop/GD32VW553/V1_MQTT_OK/GD32VW55X_Wifi_BLE_SDK/GD32VW55x_RELEASE_V1.0.2/MSDK/plf/riscv/env\handlers.c ****     printf("MCAUSE : 0x%lx\r\n", mcause);
 561:C:/Users/stapi/OneDrive/Desktop/GD32VW553/V1_MQTT_OK/GD32VW55X_Wifi_BLE_SDK/GD32VW55x_RELEASE_V1.0.2/MSDK/plf/riscv/env\handlers.c ****     printf("MDCAUSE: 0x%lx\r\n", __RV_CSR_READ(CSR_MDCAUSE));
 562:C:/Users/stapi/OneDrive/Desktop/GD32VW553/V1_MQTT_OK/GD32VW55X_Wifi_BLE_SDK/GD32VW55x_RELEASE_V1.0.2/MSDK/plf/riscv/env\handlers.c ****     printf("MEPC   : 0x%lx\r\n", __RV_CSR_READ(CSR_MEPC));
 563:C:/Users/stapi/OneDrive/Desktop/GD32VW553/V1_MQTT_OK/GD32VW55X_Wifi_BLE_SDK/GD32VW55x_RELEASE_V1.0.2/MSDK/plf/riscv/env\handlers.c ****     printf("MTVAL  : 0x%lx\r\n", __RV_CSR_READ(CSR_MTVAL));
 564:C:/Users/stapi/OneDrive/Desktop/GD32VW553/V1_MQTT_OK/GD32VW55X_Wifi_BLE_SDK/GD32VW55x_RELEASE_V1.0.2/MSDK/plf/riscv/env\handlers.c **** #else
 565:C:/Users/stapi/OneDrive/Desktop/GD32VW553/V1_MQTT_OK/GD32VW55X_Wifi_BLE_SDK/GD32VW55x_RELEASE_V1.0.2/MSDK/plf/riscv/env\handlers.c ****     log_uart_put_data((const uint8_t *)"NMI \r\n", strlen("NMI \r\n"));
 566:C:/Users/stapi/OneDrive/Desktop/GD32VW553/V1_MQTT_OK/GD32VW55X_Wifi_BLE_SDK/GD32VW55x_RELEASE_V1.0.2/MSDK/plf/riscv/env\handlers.c ****     print_reg("MCAUSE :      0x", 16, mcause);
 567:C:/Users/stapi/OneDrive/Desktop/GD32VW553/V1_MQTT_OK/GD32VW55X_Wifi_BLE_SDK/GD32VW55x_RELEASE_V1.0.2/MSDK/plf/riscv/env\handlers.c ****     print_reg("MDCAUSE:      0x", 16, __RV_CSR_READ(CSR_MDCAUSE));
 568:C:/Users/stapi/OneDrive/Desktop/GD32VW553/V1_MQTT_OK/GD32VW55X_Wifi_BLE_SDK/GD32VW55x_RELEASE_V1.0.2/MSDK/plf/riscv/env\handlers.c ****     print_reg("MEPC   :      0x", 16, __RV_CSR_READ(CSR_MEPC));
 569:C:/Users/stapi/OneDrive/Desktop/GD32VW553/V1_MQTT_OK/GD32VW55X_Wifi_BLE_SDK/GD32VW55x_RELEASE_V1.0.2/MSDK/plf/riscv/env\handlers.c ****     print_reg("MTVAL  :      0x", 16, __RV_CSR_READ(CSR_MTVAL));
 570:C:/Users/stapi/OneDrive/Desktop/GD32VW553/V1_MQTT_OK/GD32VW55X_Wifi_BLE_SDK/GD32VW55x_RELEASE_V1.0.2/MSDK/plf/riscv/env\handlers.c ****     print_reg("MSUBM  :      0x", 16, __RV_CSR_READ(CSR_MSUBM));
 571:C:/Users/stapi/OneDrive/Desktop/GD32VW553/V1_MQTT_OK/GD32VW55X_Wifi_BLE_SDK/GD32VW55x_RELEASE_V1.0.2/MSDK/plf/riscv/env\handlers.c **** #endif
 572:C:/Users/stapi/OneDrive/Desktop/GD32VW553/V1_MQTT_OK/GD32VW55X_Wifi_BLE_SDK/GD32VW55x_RELEASE_V1.0.2/MSDK/plf/riscv/env\handlers.c ****     Exception_DumpFrame(sp);
 573:C:/Users/stapi/OneDrive/Desktop/GD32VW553/V1_MQTT_OK/GD32VW55X_Wifi_BLE_SDK/GD32VW55x_RELEASE_V1.0.2/MSDK/plf/riscv/env\handlers.c **** 
 574:C:/Users/stapi/OneDrive/Desktop/GD32VW553/V1_MQTT_OK/GD32VW55X_Wifi_BLE_SDK/GD32VW55x_RELEASE_V1.0.2/MSDK/plf/riscv/env\handlers.c ****     while (1);
 575:C:/Users/stapi/OneDrive/Desktop/GD32VW553/V1_MQTT_OK/GD32VW55X_Wifi_BLE_SDK/GD32VW55x_RELEASE_V1.0.2/MSDK/plf/riscv/env\handlers.c **** }
 576:C:/Users/stapi/OneDrive/Desktop/GD32VW553/V1_MQTT_OK/GD32VW55X_Wifi_BLE_SDK/GD32VW55x_RELEASE_V1.0.2/MSDK/plf/riscv/env\handlers.c **** 
 577:C:/Users/stapi/OneDrive/Desktop/GD32VW553/V1_MQTT_OK/GD32VW55X_Wifi_BLE_SDK/GD32VW55x_RELEASE_V1.0.2/MSDK/plf/riscv/env\handlers.c **** /**
 578:C:/Users/stapi/OneDrive/Desktop/GD32VW553/V1_MQTT_OK/GD32VW55X_Wifi_BLE_SDK/GD32VW55x_RELEASE_V1.0.2/MSDK/plf/riscv/env\handlers.c ****  * \brief      Initialize all the default core exception handlers
 579:C:/Users/stapi/OneDrive/Desktop/GD32VW553/V1_MQTT_OK/GD32VW55X_Wifi_BLE_SDK/GD32VW55x_RELEASE_V1.0.2/MSDK/plf/riscv/env\handlers.c ****  * \details
 580:C:/Users/stapi/OneDrive/Desktop/GD32VW553/V1_MQTT_OK/GD32VW55X_Wifi_BLE_SDK/GD32VW55x_RELEASE_V1.0.2/MSDK/plf/riscv/env\handlers.c ****  * The core exception handler for each exception id will be initialized to \ref system_default_exce
 581:C:/Users/stapi/OneDrive/Desktop/GD32VW553/V1_MQTT_OK/GD32VW55X_Wifi_BLE_SDK/GD32VW55x_RELEASE_V1.0.2/MSDK/plf/riscv/env\handlers.c ****  * \note
 582:C:/Users/stapi/OneDrive/Desktop/GD32VW553/V1_MQTT_OK/GD32VW55X_Wifi_BLE_SDK/GD32VW55x_RELEASE_V1.0.2/MSDK/plf/riscv/env\handlers.c ****  * Called in \ref _init function, used to initialize default exception handlers for all exception I
 583:C:/Users/stapi/OneDrive/Desktop/GD32VW553/V1_MQTT_OK/GD32VW55X_Wifi_BLE_SDK/GD32VW55x_RELEASE_V1.0.2/MSDK/plf/riscv/env\handlers.c ****  */
 584:C:/Users/stapi/OneDrive/Desktop/GD32VW553/V1_MQTT_OK/GD32VW55X_Wifi_BLE_SDK/GD32VW55x_RELEASE_V1.0.2/MSDK/plf/riscv/env\handlers.c **** void Exception_Init(void)
 585:C:/Users/stapi/OneDrive/Desktop/GD32VW553/V1_MQTT_OK/GD32VW55X_Wifi_BLE_SDK/GD32VW55x_RELEASE_V1.0.2/MSDK/plf/riscv/env\handlers.c **** {
 350              		.loc 1 585 1 is_stmt 1
 351              		.cfi_startproc
 586:C:/Users/stapi/OneDrive/Desktop/GD32VW553/V1_MQTT_OK/GD32VW55X_Wifi_BLE_SDK/GD32VW55x_RELEASE_V1.0.2/MSDK/plf/riscv/env\handlers.c ****     for (int i = 0; i < MAX_SYSTEM_EXCEPTION_NUM + 1; i++) {
 352              		.loc 1 586 5
 353              	.LBB9:
 354              		.loc 1 586 10
 355              	.LVL45:
 356              		.loc 1 586 21
 357 0000 B7070000 		lui	a5,%hi(.LANCHOR0)
 358 0004 93870700 		addi	a5,a5,%lo(.LANCHOR0)
 587:C:/Users/stapi/OneDrive/Desktop/GD32VW553/V1_MQTT_OK/GD32VW55X_Wifi_BLE_SDK/GD32VW55x_RELEASE_V1.0.2/MSDK/plf/riscv/env\handlers.c ****         SystemExceptionHandlers[i] = (unsigned long)system_default_exception_handler;
 359              		.loc 1 587 36 is_stmt 0
 360 0008 37070000 		lui	a4,%hi(system_default_exception_handler)
 361 000c 93864703 		addi	a3,a5,52
 362 0010 13070700 		addi	a4,a4,%lo(system_default_exception_handler)
 363              	.LVL46:
 364              	.L26:
 365              		.loc 1 587 9 is_stmt 1 discriminator 3
 366              		.loc 1 587 36 is_stmt 0 discriminator 3
 367 0014 98C3     		sw	a4,0(a5)
 586:C:/Users/stapi/OneDrive/Desktop/GD32VW553/V1_MQTT_OK/GD32VW55X_Wifi_BLE_SDK/GD32VW55x_RELEASE_V1.0.2/MSDK/plf/riscv/env\handlers.c ****     for (int i = 0; i < MAX_SYSTEM_EXCEPTION_NUM + 1; i++) {
 368              		.loc 1 586 55 is_stmt 1 discriminator 3
 586:C:/Users/stapi/OneDrive/Desktop/GD32VW553/V1_MQTT_OK/GD32VW55X_Wifi_BLE_SDK/GD32VW55x_RELEASE_V1.0.2/MSDK/plf/riscv/env\handlers.c ****     for (int i = 0; i < MAX_SYSTEM_EXCEPTION_NUM + 1; i++) {
 369              		.loc 1 586 21 discriminator 3
 586:C:/Users/stapi/OneDrive/Desktop/GD32VW553/V1_MQTT_OK/GD32VW55X_Wifi_BLE_SDK/GD32VW55x_RELEASE_V1.0.2/MSDK/plf/riscv/env\handlers.c ****     for (int i = 0; i < MAX_SYSTEM_EXCEPTION_NUM + 1; i++) {
 370              		.loc 1 586 5 is_stmt 0 discriminator 3
 371 0016 9107     		addi	a5,a5,4
 372 0018 E39ED7FE 		bne	a5,a3,.L26
 373              	.LBE9:
 588:C:/Users/stapi/OneDrive/Desktop/GD32VW553/V1_MQTT_OK/GD32VW55X_Wifi_BLE_SDK/GD32VW55x_RELEASE_V1.0.2/MSDK/plf/riscv/env\handlers.c ****     }
 589:C:/Users/stapi/OneDrive/Desktop/GD32VW553/V1_MQTT_OK/GD32VW55X_Wifi_BLE_SDK/GD32VW55x_RELEASE_V1.0.2/MSDK/plf/riscv/env\handlers.c **** }
 374              		.loc 1 589 1
 375 001c 8280     		ret
 376              		.cfi_endproc
 377              	.LFE372:
 379              		.section	.text.Exception_Register_EXC,"ax",@progbits
 380              		.align	1
 381              		.globl	Exception_Register_EXC
 383              	Exception_Register_EXC:
 384              	.LFB373:
 590:C:/Users/stapi/OneDrive/Desktop/GD32VW553/V1_MQTT_OK/GD32VW55X_Wifi_BLE_SDK/GD32VW55x_RELEASE_V1.0.2/MSDK/plf/riscv/env\handlers.c **** 
 591:C:/Users/stapi/OneDrive/Desktop/GD32VW553/V1_MQTT_OK/GD32VW55X_Wifi_BLE_SDK/GD32VW55x_RELEASE_V1.0.2/MSDK/plf/riscv/env\handlers.c **** /**
 592:C:/Users/stapi/OneDrive/Desktop/GD32VW553/V1_MQTT_OK/GD32VW55X_Wifi_BLE_SDK/GD32VW55x_RELEASE_V1.0.2/MSDK/plf/riscv/env\handlers.c ****  * \brief       Register an exception handler for exception code EXCn
 593:C:/Users/stapi/OneDrive/Desktop/GD32VW553/V1_MQTT_OK/GD32VW55X_Wifi_BLE_SDK/GD32VW55x_RELEASE_V1.0.2/MSDK/plf/riscv/env\handlers.c ****  * \details
 594:C:/Users/stapi/OneDrive/Desktop/GD32VW553/V1_MQTT_OK/GD32VW55X_Wifi_BLE_SDK/GD32VW55x_RELEASE_V1.0.2/MSDK/plf/riscv/env\handlers.c ****  * * For EXCn < \ref MAX_SYSTEM_EXCEPTION_NUM, it will be registered into SystemExceptionHandlers[E
 595:C:/Users/stapi/OneDrive/Desktop/GD32VW553/V1_MQTT_OK/GD32VW55X_Wifi_BLE_SDK/GD32VW55x_RELEASE_V1.0.2/MSDK/plf/riscv/env\handlers.c ****  * * For EXCn == NMI_EXCn, it will be registered into SystemExceptionHandlers[MAX_SYSTEM_EXCEPTION_
 596:C:/Users/stapi/OneDrive/Desktop/GD32VW553/V1_MQTT_OK/GD32VW55X_Wifi_BLE_SDK/GD32VW55x_RELEASE_V1.0.2/MSDK/plf/riscv/env\handlers.c ****  * \param   EXCn    See \ref EXCn_Type
 597:C:/Users/stapi/OneDrive/Desktop/GD32VW553/V1_MQTT_OK/GD32VW55X_Wifi_BLE_SDK/GD32VW55x_RELEASE_V1.0.2/MSDK/plf/riscv/env\handlers.c ****  * \param   exc_handler     The exception handler for this exception code EXCn
 598:C:/Users/stapi/OneDrive/Desktop/GD32VW553/V1_MQTT_OK/GD32VW55X_Wifi_BLE_SDK/GD32VW55x_RELEASE_V1.0.2/MSDK/plf/riscv/env\handlers.c ****  */
 599:C:/Users/stapi/OneDrive/Desktop/GD32VW553/V1_MQTT_OK/GD32VW55X_Wifi_BLE_SDK/GD32VW55x_RELEASE_V1.0.2/MSDK/plf/riscv/env\handlers.c **** void Exception_Register_EXC(uint32_t EXCn, unsigned long exc_handler)
 600:C:/Users/stapi/OneDrive/Desktop/GD32VW553/V1_MQTT_OK/GD32VW55X_Wifi_BLE_SDK/GD32VW55x_RELEASE_V1.0.2/MSDK/plf/riscv/env\handlers.c **** {
 385              		.loc 1 600 1 is_stmt 1
 386              		.cfi_startproc
 387              	.LVL47:
 601:C:/Users/stapi/OneDrive/Desktop/GD32VW553/V1_MQTT_OK/GD32VW55X_Wifi_BLE_SDK/GD32VW55x_RELEASE_V1.0.2/MSDK/plf/riscv/env\handlers.c ****     if ((EXCn < MAX_SYSTEM_EXCEPTION_NUM) && (EXCn >= 0)) {
 388              		.loc 1 601 5
 389              		.loc 1 601 8 is_stmt 0
 390 0000 AD47     		li	a5,11
 391 0002 63EAA700 		bgtu	a0,a5,.L29
 602:C:/Users/stapi/OneDrive/Desktop/GD32VW553/V1_MQTT_OK/GD32VW55X_Wifi_BLE_SDK/GD32VW55x_RELEASE_V1.0.2/MSDK/plf/riscv/env\handlers.c ****         SystemExceptionHandlers[EXCn] = exc_handler;
 392              		.loc 1 602 9 is_stmt 1
 393              		.loc 1 602 39 is_stmt 0
 394 0006 B7070000 		lui	a5,%hi(.LANCHOR0)
 395 000a 93870700 		addi	a5,a5,%lo(.LANCHOR0)
 396 000e 3345F520 		sh2add	a0,a0,a5
 397              	.LVL48:
 398 0012 0CC1     		sw	a1,0(a0)
 399 0014 8280     		ret
 400              	.LVL49:
 401              	.L29:
 603:C:/Users/stapi/OneDrive/Desktop/GD32VW553/V1_MQTT_OK/GD32VW55X_Wifi_BLE_SDK/GD32VW55x_RELEASE_V1.0.2/MSDK/plf/riscv/env\handlers.c ****     } else if (EXCn == NMI_EXCn) {
 402              		.loc 1 603 12 is_stmt 1
 403              		.loc 1 603 15 is_stmt 0
 404 0016 8567     		li	a5,4096
 405 0018 FD17     		addi	a5,a5,-1
 406 001a 6316F500 		bne	a0,a5,.L28
 604:C:/Users/stapi/OneDrive/Desktop/GD32VW553/V1_MQTT_OK/GD32VW55X_Wifi_BLE_SDK/GD32VW55x_RELEASE_V1.0.2/MSDK/plf/riscv/env\handlers.c ****         SystemExceptionHandlers[MAX_SYSTEM_EXCEPTION_NUM] = exc_handler;
 407              		.loc 1 604 9 is_stmt 1
 408              		.loc 1 604 59 is_stmt 0
 409 001e B7070000 		lui	a5,%hi(.LANCHOR0+48)
 410 0022 23A8B702 		sw	a1,%lo(.LANCHOR0+48)(a5)
 411              	.L28:
 605:C:/Users/stapi/OneDrive/Desktop/GD32VW553/V1_MQTT_OK/GD32VW55X_Wifi_BLE_SDK/GD32VW55x_RELEASE_V1.0.2/MSDK/plf/riscv/env\handlers.c ****     }
 606:C:/Users/stapi/OneDrive/Desktop/GD32VW553/V1_MQTT_OK/GD32VW55X_Wifi_BLE_SDK/GD32VW55x_RELEASE_V1.0.2/MSDK/plf/riscv/env\handlers.c **** }
 412              		.loc 1 606 1
 413 0026 8280     		ret
 414              		.cfi_endproc
 415              	.LFE373:
 417              		.section	.text.Exception_Get_EXC,"ax",@progbits
 418              		.align	1
 419              		.globl	Exception_Get_EXC
 421              	Exception_Get_EXC:
 422              	.LFB374:
 607:C:/Users/stapi/OneDrive/Desktop/GD32VW553/V1_MQTT_OK/GD32VW55X_Wifi_BLE_SDK/GD32VW55x_RELEASE_V1.0.2/MSDK/plf/riscv/env\handlers.c **** 
 608:C:/Users/stapi/OneDrive/Desktop/GD32VW553/V1_MQTT_OK/GD32VW55X_Wifi_BLE_SDK/GD32VW55x_RELEASE_V1.0.2/MSDK/plf/riscv/env\handlers.c **** /**
 609:C:/Users/stapi/OneDrive/Desktop/GD32VW553/V1_MQTT_OK/GD32VW55X_Wifi_BLE_SDK/GD32VW55x_RELEASE_V1.0.2/MSDK/plf/riscv/env\handlers.c ****  * \brief       Get current exception handler for exception code EXCn
 610:C:/Users/stapi/OneDrive/Desktop/GD32VW553/V1_MQTT_OK/GD32VW55X_Wifi_BLE_SDK/GD32VW55x_RELEASE_V1.0.2/MSDK/plf/riscv/env\handlers.c ****  * \details
 611:C:/Users/stapi/OneDrive/Desktop/GD32VW553/V1_MQTT_OK/GD32VW55X_Wifi_BLE_SDK/GD32VW55x_RELEASE_V1.0.2/MSDK/plf/riscv/env\handlers.c ****  * * For EXCn < \ref MAX_SYSTEM_EXCEPTION_NUM, it will return SystemExceptionHandlers[EXCn-1].
 612:C:/Users/stapi/OneDrive/Desktop/GD32VW553/V1_MQTT_OK/GD32VW55X_Wifi_BLE_SDK/GD32VW55x_RELEASE_V1.0.2/MSDK/plf/riscv/env\handlers.c ****  * * For EXCn == NMI_EXCn, it will return SystemExceptionHandlers[MAX_SYSTEM_EXCEPTION_NUM].
 613:C:/Users/stapi/OneDrive/Desktop/GD32VW553/V1_MQTT_OK/GD32VW55X_Wifi_BLE_SDK/GD32VW55x_RELEASE_V1.0.2/MSDK/plf/riscv/env\handlers.c ****  * \param   EXCn    See \ref EXCn_Type
 614:C:/Users/stapi/OneDrive/Desktop/GD32VW553/V1_MQTT_OK/GD32VW55X_Wifi_BLE_SDK/GD32VW55x_RELEASE_V1.0.2/MSDK/plf/riscv/env\handlers.c ****  * \return  Current exception handler for exception code EXCn, if not found, return 0.
 615:C:/Users/stapi/OneDrive/Desktop/GD32VW553/V1_MQTT_OK/GD32VW55X_Wifi_BLE_SDK/GD32VW55x_RELEASE_V1.0.2/MSDK/plf/riscv/env\handlers.c ****  */
 616:C:/Users/stapi/OneDrive/Desktop/GD32VW553/V1_MQTT_OK/GD32VW55X_Wifi_BLE_SDK/GD32VW55x_RELEASE_V1.0.2/MSDK/plf/riscv/env\handlers.c **** unsigned long Exception_Get_EXC(uint32_t EXCn)
 617:C:/Users/stapi/OneDrive/Desktop/GD32VW553/V1_MQTT_OK/GD32VW55X_Wifi_BLE_SDK/GD32VW55x_RELEASE_V1.0.2/MSDK/plf/riscv/env\handlers.c **** {
 423              		.loc 1 617 1 is_stmt 1
 424              		.cfi_startproc
 425              	.LVL50:
 618:C:/Users/stapi/OneDrive/Desktop/GD32VW553/V1_MQTT_OK/GD32VW55X_Wifi_BLE_SDK/GD32VW55x_RELEASE_V1.0.2/MSDK/plf/riscv/env\handlers.c ****     if ((EXCn < MAX_SYSTEM_EXCEPTION_NUM) && (EXCn >= 0)) {
 426              		.loc 1 618 5
 427              		.loc 1 618 8 is_stmt 0
 428 0000 2D47     		li	a4,11
 617:C:/Users/stapi/OneDrive/Desktop/GD32VW553/V1_MQTT_OK/GD32VW55X_Wifi_BLE_SDK/GD32VW55x_RELEASE_V1.0.2/MSDK/plf/riscv/env\handlers.c ****     if ((EXCn < MAX_SYSTEM_EXCEPTION_NUM) && (EXCn >= 0)) {
 429              		.loc 1 617 1
 430 0002 AA87     		mv	a5,a0
 431              		.loc 1 618 8
 432 0004 636AA700 		bgtu	a0,a4,.L32
 619:C:/Users/stapi/OneDrive/Desktop/GD32VW553/V1_MQTT_OK/GD32VW55X_Wifi_BLE_SDK/GD32VW55x_RELEASE_V1.0.2/MSDK/plf/riscv/env\handlers.c ****         return SystemExceptionHandlers[EXCn];
 433              		.loc 1 619 9 is_stmt 1
 434              		.loc 1 619 39 is_stmt 0
 435 0008 37050000 		lui	a0,%hi(.LANCHOR0)
 436              	.LVL51:
 437 000c 13050500 		addi	a0,a0,%lo(.LANCHOR0)
 438 0010 B3C7A720 		sh2add	a5,a5,a0
 439              	.LVL52:
 440 0014 8843     		lw	a0,0(a5)
 441 0016 8280     		ret
 442              	.LVL53:
 443              	.L32:
 620:C:/Users/stapi/OneDrive/Desktop/GD32VW553/V1_MQTT_OK/GD32VW55X_Wifi_BLE_SDK/GD32VW55x_RELEASE_V1.0.2/MSDK/plf/riscv/env\handlers.c ****     } else if (EXCn == NMI_EXCn) {
 444              		.loc 1 620 12 is_stmt 1
 445              		.loc 1 620 15 is_stmt 0
 446 0018 0567     		li	a4,4096
 447 001a 7D17     		addi	a4,a4,-1
 621:C:/Users/stapi/OneDrive/Desktop/GD32VW553/V1_MQTT_OK/GD32VW55X_Wifi_BLE_SDK/GD32VW55x_RELEASE_V1.0.2/MSDK/plf/riscv/env\handlers.c ****         return SystemExceptionHandlers[MAX_SYSTEM_EXCEPTION_NUM];
 622:C:/Users/stapi/OneDrive/Desktop/GD32VW553/V1_MQTT_OK/GD32VW55X_Wifi_BLE_SDK/GD32VW55x_RELEASE_V1.0.2/MSDK/plf/riscv/env\handlers.c ****     } else {
 623:C:/Users/stapi/OneDrive/Desktop/GD32VW553/V1_MQTT_OK/GD32VW55X_Wifi_BLE_SDK/GD32VW55x_RELEASE_V1.0.2/MSDK/plf/riscv/env\handlers.c ****         return 0;
 448              		.loc 1 623 16
 449 001c 0145     		li	a0,0
 450              	.LVL54:
 620:C:/Users/stapi/OneDrive/Desktop/GD32VW553/V1_MQTT_OK/GD32VW55X_Wifi_BLE_SDK/GD32VW55x_RELEASE_V1.0.2/MSDK/plf/riscv/env\handlers.c ****     } else if (EXCn == NMI_EXCn) {
 451              		.loc 1 620 15
 452 001e 6396E700 		bne	a5,a4,.L31
 621:C:/Users/stapi/OneDrive/Desktop/GD32VW553/V1_MQTT_OK/GD32VW55X_Wifi_BLE_SDK/GD32VW55x_RELEASE_V1.0.2/MSDK/plf/riscv/env\handlers.c ****         return SystemExceptionHandlers[MAX_SYSTEM_EXCEPTION_NUM];
 453              		.loc 1 621 9 is_stmt 1
 621:C:/Users/stapi/OneDrive/Desktop/GD32VW553/V1_MQTT_OK/GD32VW55X_Wifi_BLE_SDK/GD32VW55x_RELEASE_V1.0.2/MSDK/plf/riscv/env\handlers.c ****         return SystemExceptionHandlers[MAX_SYSTEM_EXCEPTION_NUM];
 454              		.loc 1 621 39 is_stmt 0
 455 0022 B7070000 		lui	a5,%hi(.LANCHOR0+48)
 456              	.LVL55:
 457 0026 03A50703 		lw	a0,%lo(.LANCHOR0+48)(a5)
 458              	.L31:
 624:C:/Users/stapi/OneDrive/Desktop/GD32VW553/V1_MQTT_OK/GD32VW55X_Wifi_BLE_SDK/GD32VW55x_RELEASE_V1.0.2/MSDK/plf/riscv/env\handlers.c ****     }
 625:C:/Users/stapi/OneDrive/Desktop/GD32VW553/V1_MQTT_OK/GD32VW55X_Wifi_BLE_SDK/GD32VW55x_RELEASE_V1.0.2/MSDK/plf/riscv/env\handlers.c **** }
 459              		.loc 1 625 1
 460 002a 8280     		ret
 461              		.cfi_endproc
 462              	.LFE374:
 464              		.section	.text.core_exception_handler,"ax",@progbits
 465              		.align	1
 466              		.globl	core_exception_handler
 468              	core_exception_handler:
 469              	.LFB375:
 626:C:/Users/stapi/OneDrive/Desktop/GD32VW553/V1_MQTT_OK/GD32VW55X_Wifi_BLE_SDK/GD32VW55x_RELEASE_V1.0.2/MSDK/plf/riscv/env\handlers.c **** 
 627:C:/Users/stapi/OneDrive/Desktop/GD32VW553/V1_MQTT_OK/GD32VW55X_Wifi_BLE_SDK/GD32VW55x_RELEASE_V1.0.2/MSDK/plf/riscv/env\handlers.c **** /**
 628:C:/Users/stapi/OneDrive/Desktop/GD32VW553/V1_MQTT_OK/GD32VW55X_Wifi_BLE_SDK/GD32VW55x_RELEASE_V1.0.2/MSDK/plf/riscv/env\handlers.c ****  * \brief      Common NMI and Exception handler entry
 629:C:/Users/stapi/OneDrive/Desktop/GD32VW553/V1_MQTT_OK/GD32VW55X_Wifi_BLE_SDK/GD32VW55x_RELEASE_V1.0.2/MSDK/plf/riscv/env\handlers.c ****  * \details
 630:C:/Users/stapi/OneDrive/Desktop/GD32VW553/V1_MQTT_OK/GD32VW55X_Wifi_BLE_SDK/GD32VW55x_RELEASE_V1.0.2/MSDK/plf/riscv/env\handlers.c ****  * This function provided a command entry for NMI and exception. Silicon Vendor could modify
 631:C:/Users/stapi/OneDrive/Desktop/GD32VW553/V1_MQTT_OK/GD32VW55X_Wifi_BLE_SDK/GD32VW55x_RELEASE_V1.0.2/MSDK/plf/riscv/env\handlers.c ****  * this template implementation according to requirement.
 632:C:/Users/stapi/OneDrive/Desktop/GD32VW553/V1_MQTT_OK/GD32VW55X_Wifi_BLE_SDK/GD32VW55x_RELEASE_V1.0.2/MSDK/plf/riscv/env\handlers.c ****  * \remarks
 633:C:/Users/stapi/OneDrive/Desktop/GD32VW553/V1_MQTT_OK/GD32VW55X_Wifi_BLE_SDK/GD32VW55x_RELEASE_V1.0.2/MSDK/plf/riscv/env\handlers.c ****  * - RISCV provided common entry for all types of exception. This is proposed code template
 634:C:/Users/stapi/OneDrive/Desktop/GD32VW553/V1_MQTT_OK/GD32VW55X_Wifi_BLE_SDK/GD32VW55x_RELEASE_V1.0.2/MSDK/plf/riscv/env\handlers.c ****  *   for exception entry function, Silicon Vendor could modify the implementation.
 635:C:/Users/stapi/OneDrive/Desktop/GD32VW553/V1_MQTT_OK/GD32VW55X_Wifi_BLE_SDK/GD32VW55x_RELEASE_V1.0.2/MSDK/plf/riscv/env\handlers.c ****  * - For the core_exception_handler template, we provided exception register function \ref Exceptio
 636:C:/Users/stapi/OneDrive/Desktop/GD32VW553/V1_MQTT_OK/GD32VW55X_Wifi_BLE_SDK/GD32VW55x_RELEASE_V1.0.2/MSDK/plf/riscv/env\handlers.c ****  *   which can help developer to register your exception handler for specific exception number.
 637:C:/Users/stapi/OneDrive/Desktop/GD32VW553/V1_MQTT_OK/GD32VW55X_Wifi_BLE_SDK/GD32VW55x_RELEASE_V1.0.2/MSDK/plf/riscv/env\handlers.c ****  */
 638:C:/Users/stapi/OneDrive/Desktop/GD32VW553/V1_MQTT_OK/GD32VW55X_Wifi_BLE_SDK/GD32VW55x_RELEASE_V1.0.2/MSDK/plf/riscv/env\handlers.c **** uint32_t core_exception_handler(unsigned long mcause, unsigned long sp)
 639:C:/Users/stapi/OneDrive/Desktop/GD32VW553/V1_MQTT_OK/GD32VW55X_Wifi_BLE_SDK/GD32VW55x_RELEASE_V1.0.2/MSDK/plf/riscv/env\handlers.c **** {
 470              		.loc 1 639 1 is_stmt 1
 471              		.cfi_startproc
 472              	.LVL56:
 640:C:/Users/stapi/OneDrive/Desktop/GD32VW553/V1_MQTT_OK/GD32VW55X_Wifi_BLE_SDK/GD32VW55x_RELEASE_V1.0.2/MSDK/plf/riscv/env\handlers.c ****     uint32_t EXCn = (uint32_t)(mcause & 0X00000fff);
 473              		.loc 1 640 5
 474              		.loc 1 640 14 is_stmt 0
 475 0000 0567     		li	a4,4096
 476 0002 7D17     		addi	a4,a4,-1
 477 0004 B377E500 		and	a5,a0,a4
 478              	.LVL57:
 641:C:/Users/stapi/OneDrive/Desktop/GD32VW553/V1_MQTT_OK/GD32VW55X_Wifi_BLE_SDK/GD32VW55x_RELEASE_V1.0.2/MSDK/plf/riscv/env\handlers.c ****     EXC_HANDLER exc_handler;
 479              		.loc 1 641 5 is_stmt 1
 642:C:/Users/stapi/OneDrive/Desktop/GD32VW553/V1_MQTT_OK/GD32VW55X_Wifi_BLE_SDK/GD32VW55x_RELEASE_V1.0.2/MSDK/plf/riscv/env\handlers.c **** 
 643:C:/Users/stapi/OneDrive/Desktop/GD32VW553/V1_MQTT_OK/GD32VW55X_Wifi_BLE_SDK/GD32VW55x_RELEASE_V1.0.2/MSDK/plf/riscv/env\handlers.c ****     if ((EXCn < MAX_SYSTEM_EXCEPTION_NUM) && (EXCn >= 0)) {
 480              		.loc 1 643 5
 481              		.loc 1 643 8 is_stmt 0
 482 0008 AD46     		li	a3,11
 483 000a 63ECF600 		bgtu	a5,a3,.L36
 644:C:/Users/stapi/OneDrive/Desktop/GD32VW553/V1_MQTT_OK/GD32VW55X_Wifi_BLE_SDK/GD32VW55x_RELEASE_V1.0.2/MSDK/plf/riscv/env\handlers.c ****         exc_handler = (EXC_HANDLER)SystemExceptionHandlers[EXCn];
 484              		.loc 1 644 9 is_stmt 1
 485              		.loc 1 644 59 is_stmt 0
 486 000e 37070000 		lui	a4,%hi(.LANCHOR0)
 487 0012 13070700 		addi	a4,a4,%lo(.LANCHOR0)
 488 0016 B3C7E720 		sh2add	a5,a5,a4
 489              	.LVL58:
 490              		.loc 1 644 21
 491 001a 9C43     		lw	a5,0(a5)
 492              	.LVL59:
 493              	.L37:
 645:C:/Users/stapi/OneDrive/Desktop/GD32VW553/V1_MQTT_OK/GD32VW55X_Wifi_BLE_SDK/GD32VW55x_RELEASE_V1.0.2/MSDK/plf/riscv/env\handlers.c ****     } else if (EXCn == NMI_EXCn) {
 646:C:/Users/stapi/OneDrive/Desktop/GD32VW553/V1_MQTT_OK/GD32VW55X_Wifi_BLE_SDK/GD32VW55x_RELEASE_V1.0.2/MSDK/plf/riscv/env\handlers.c ****         exc_handler = (EXC_HANDLER)SystemExceptionHandlers[MAX_SYSTEM_EXCEPTION_NUM];
 647:C:/Users/stapi/OneDrive/Desktop/GD32VW553/V1_MQTT_OK/GD32VW55X_Wifi_BLE_SDK/GD32VW55x_RELEASE_V1.0.2/MSDK/plf/riscv/env\handlers.c ****     } else {
 648:C:/Users/stapi/OneDrive/Desktop/GD32VW553/V1_MQTT_OK/GD32VW55X_Wifi_BLE_SDK/GD32VW55x_RELEASE_V1.0.2/MSDK/plf/riscv/env\handlers.c ****         exc_handler = (EXC_HANDLER)system_default_exception_handler;
 649:C:/Users/stapi/OneDrive/Desktop/GD32VW553/V1_MQTT_OK/GD32VW55X_Wifi_BLE_SDK/GD32VW55x_RELEASE_V1.0.2/MSDK/plf/riscv/env\handlers.c ****     }
 650:C:/Users/stapi/OneDrive/Desktop/GD32VW553/V1_MQTT_OK/GD32VW55X_Wifi_BLE_SDK/GD32VW55x_RELEASE_V1.0.2/MSDK/plf/riscv/env\handlers.c ****     if (exc_handler != NULL) {
 494              		.loc 1 650 5 is_stmt 1
 495              		.loc 1 650 8 is_stmt 0
 496 001c 91EF     		bne	a5,zero,.L38
 651:C:/Users/stapi/OneDrive/Desktop/GD32VW553/V1_MQTT_OK/GD32VW55X_Wifi_BLE_SDK/GD32VW55x_RELEASE_V1.0.2/MSDK/plf/riscv/env\handlers.c ****         exc_handler(mcause, sp);
 652:C:/Users/stapi/OneDrive/Desktop/GD32VW553/V1_MQTT_OK/GD32VW55X_Wifi_BLE_SDK/GD32VW55x_RELEASE_V1.0.2/MSDK/plf/riscv/env\handlers.c ****     }
 653:C:/Users/stapi/OneDrive/Desktop/GD32VW553/V1_MQTT_OK/GD32VW55X_Wifi_BLE_SDK/GD32VW55x_RELEASE_V1.0.2/MSDK/plf/riscv/env\handlers.c ****     return 0;
 497              		.loc 1 653 5 is_stmt 1
 654:C:/Users/stapi/OneDrive/Desktop/GD32VW553/V1_MQTT_OK/GD32VW55X_Wifi_BLE_SDK/GD32VW55x_RELEASE_V1.0.2/MSDK/plf/riscv/env\handlers.c **** }
 498              		.loc 1 654 1 is_stmt 0
 499 001e 0145     		li	a0,0
 500              	.LVL60:
 501 0020 8280     		ret
 502              	.LVL61:
 503              	.L36:
 645:C:/Users/stapi/OneDrive/Desktop/GD32VW553/V1_MQTT_OK/GD32VW55X_Wifi_BLE_SDK/GD32VW55x_RELEASE_V1.0.2/MSDK/plf/riscv/env\handlers.c ****     } else if (EXCn == NMI_EXCn) {
 504              		.loc 1 645 12 is_stmt 1
 645:C:/Users/stapi/OneDrive/Desktop/GD32VW553/V1_MQTT_OK/GD32VW55X_Wifi_BLE_SDK/GD32VW55x_RELEASE_V1.0.2/MSDK/plf/riscv/env\handlers.c ****     } else if (EXCn == NMI_EXCn) {
 505              		.loc 1 645 15 is_stmt 0
 506 0022 6397E700 		bne	a5,a4,.L40
 646:C:/Users/stapi/OneDrive/Desktop/GD32VW553/V1_MQTT_OK/GD32VW55X_Wifi_BLE_SDK/GD32VW55x_RELEASE_V1.0.2/MSDK/plf/riscv/env\handlers.c ****     } else {
 507              		.loc 1 646 9 is_stmt 1
 646:C:/Users/stapi/OneDrive/Desktop/GD32VW553/V1_MQTT_OK/GD32VW55X_Wifi_BLE_SDK/GD32VW55x_RELEASE_V1.0.2/MSDK/plf/riscv/env\handlers.c ****     } else {
 508              		.loc 1 646 59 is_stmt 0
 509 0026 B7070000 		lui	a5,%hi(.LANCHOR0+48)
 510              	.LVL62:
 646:C:/Users/stapi/OneDrive/Desktop/GD32VW553/V1_MQTT_OK/GD32VW55X_Wifi_BLE_SDK/GD32VW55x_RELEASE_V1.0.2/MSDK/plf/riscv/env\handlers.c ****     } else {
 511              		.loc 1 646 21
 512 002a 83A70703 		lw	a5,%lo(.LANCHOR0+48)(a5)
 513              	.LVL63:
 514 002e FDB7     		j	.L37
 515              	.LVL64:
 516              	.L40:
 648:C:/Users/stapi/OneDrive/Desktop/GD32VW553/V1_MQTT_OK/GD32VW55X_Wifi_BLE_SDK/GD32VW55x_RELEASE_V1.0.2/MSDK/plf/riscv/env\handlers.c ****     }
 517              		.loc 1 648 21
 518 0030 B7070000 		lui	a5,%hi(system_default_exception_handler)
 519              	.LVL65:
 520 0034 93870700 		addi	a5,a5,%lo(system_default_exception_handler)
 521              	.LVL66:
 522              	.L38:
 639:C:/Users/stapi/OneDrive/Desktop/GD32VW553/V1_MQTT_OK/GD32VW55X_Wifi_BLE_SDK/GD32VW55x_RELEASE_V1.0.2/MSDK/plf/riscv/env\handlers.c ****     uint32_t EXCn = (uint32_t)(mcause & 0X00000fff);
 523              		.loc 1 639 1
 524 0038 17030000 		call	t0,__riscv_save_0
 524      E7020300 
 525              		.cfi_offset 1, -4
 526              		.cfi_def_cfa_offset 16
 527              	.LVL67:
 651:C:/Users/stapi/OneDrive/Desktop/GD32VW553/V1_MQTT_OK/GD32VW55X_Wifi_BLE_SDK/GD32VW55x_RELEASE_V1.0.2/MSDK/plf/riscv/env\handlers.c ****     }
 528              		.loc 1 651 9 is_stmt 1
 529 0040 8297     		jalr	a5
 530              	.LVL68:
 653:C:/Users/stapi/OneDrive/Desktop/GD32VW553/V1_MQTT_OK/GD32VW55X_Wifi_BLE_SDK/GD32VW55x_RELEASE_V1.0.2/MSDK/plf/riscv/env\handlers.c **** }
 531              		.loc 1 653 5
 532              		.loc 1 654 1 is_stmt 0
 533 0042 0145     		li	a0,0
 534 0044 17030000 		tail	__riscv_restore_0
 534      67000300 
 535              		.cfi_restore 1
 536              		.cfi_def_cfa_offset 0
 537              		.cfi_endproc
 538              	.LFE375:
 540              		.section	.rodata.Exception_DumpFrame.str1.4,"aMS",@progbits,1
 541              		.align	2
 542              	.LC3:
 543 0000 72612020 		.string	"ra     :      0x"
 543      2020203A 
 543      20202020 
 543      20203078 
 543      00
 544 0011 000000   		.align	2
 545              	.LC4:
 546 0014 74702020 		.string	"tp     :      0x"
 546      2020203A 
 546      20202020 
 546      20203078 
 546      00
 547 0025 000000   		.align	2
 548              	.LC5:
 549 0028 74302020 		.string	"t0     :      0x"
 549      2020203A 
 549      20202020 
 549      20203078 
 549      00
 550 0039 000000   		.align	2
 551              	.LC6:
 552 003c 74312020 		.string	"t1     :      0x"
 552      2020203A 
 552      20202020 
 552      20203078 
 552      00
 553 004d 000000   		.align	2
 554              	.LC7:
 555 0050 74322020 		.string	"t2     :      0x"
 555      2020203A 
 555      20202020 
 555      20203078 
 555      00
 556 0061 000000   		.align	2
 557              	.LC8:
 558 0064 74332020 		.string	"t3     :      0x"
 558      2020203A 
 558      20202020 
 558      20203078 
 558      00
 559 0075 000000   		.align	2
 560              	.LC9:
 561 0078 74342020 		.string	"t4     :      0x"
 561      2020203A 
 561      20202020 
 561      20203078 
 561      00
 562 0089 000000   		.align	2
 563              	.LC10:
 564 008c 74352020 		.string	"t5     :      0x"
 564      2020203A 
 564      20202020 
 564      20203078 
 564      00
 565 009d 000000   		.align	2
 566              	.LC11:
 567 00a0 74362020 		.string	"t6     :      0x"
 567      2020203A 
 567      20202020 
 567      20203078 
 567      00
 568 00b1 000000   		.align	2
 569              	.LC12:
 570 00b4 61302020 		.string	"a0     :      0x"
 570      2020203A 
 570      20202020 
 570      20203078 
 570      00
 571 00c5 000000   		.align	2
 572              	.LC13:
 573 00c8 61312020 		.string	"a1     :      0x"
 573      2020203A 
 573      20202020 
 573      20203078 
 573      00
 574 00d9 000000   		.align	2
 575              	.LC14:
 576 00dc 61322020 		.string	"a2     :      0x"
 576      2020203A 
 576      20202020 
 576      20203078 
 576      00
 577 00ed 000000   		.align	2
 578              	.LC15:
 579 00f0 61332020 		.string	"a3     :      0x"
 579      2020203A 
 579      20202020 
 579      20203078 
 579      00
 580 0101 000000   		.align	2
 581              	.LC16:
 582 0104 61342020 		.string	"a4     :      0x"
 582      2020203A 
 582      20202020 
 582      20203078 
 582      00
 583 0115 000000   		.align	2
 584              	.LC17:
 585 0118 61352020 		.string	"a5     :      0x"
 585      2020203A 
 585      20202020 
 585      20203078 
 585      00
 586 0129 000000   		.align	2
 587              	.LC18:
 588 012c 61362020 		.string	"a6     :      0x"
 588      2020203A 
 588      20202020 
 588      20203078 
 588      00
 589 013d 000000   		.align	2
 590              	.LC19:
 591 0140 6D636175 		.string	"mcause :      0x"
 591      7365203A 
 591      20202020 
 591      20203078 
 591      00
 592 0151 000000   		.align	2
 593              	.LC20:
 594 0154 6D657063 		.string	"mepc   :      0x"
 594      2020203A 
 594      20202020 
 594      20203078 
 594      00
 595 0165 000000   		.align	2
 596              	.LC21:
 597 0168 6D737562 		.string	"msubm  :      0x"
 597      6D20203A 
 597      20202020 
 597      20203078 
 597      00
 598              		.section	.text.Exception_DumpFrame,"ax",@progbits
 599              		.align	1
 600              		.globl	Exception_DumpFrame
 602              	Exception_DumpFrame:
 603              	.LFB376:
 655:C:/Users/stapi/OneDrive/Desktop/GD32VW553/V1_MQTT_OK/GD32VW55X_Wifi_BLE_SDK/GD32VW55x_RELEASE_V1.0.2/MSDK/plf/riscv/env\handlers.c **** /** @} */ /* End of Doxygen Group NMSIS_Core_ExceptionAndNMI */
 656:C:/Users/stapi/OneDrive/Desktop/GD32VW553/V1_MQTT_OK/GD32VW55X_Wifi_BLE_SDK/GD32VW55x_RELEASE_V1.0.2/MSDK/plf/riscv/env\handlers.c **** 
 657:C:/Users/stapi/OneDrive/Desktop/GD32VW553/V1_MQTT_OK/GD32VW55X_Wifi_BLE_SDK/GD32VW55x_RELEASE_V1.0.2/MSDK/plf/riscv/env\handlers.c **** /**
 658:C:/Users/stapi/OneDrive/Desktop/GD32VW553/V1_MQTT_OK/GD32VW55X_Wifi_BLE_SDK/GD32VW55x_RELEASE_V1.0.2/MSDK/plf/riscv/env\handlers.c ****  * \brief      Dump Exception Frame
 659:C:/Users/stapi/OneDrive/Desktop/GD32VW553/V1_MQTT_OK/GD32VW55X_Wifi_BLE_SDK/GD32VW55x_RELEASE_V1.0.2/MSDK/plf/riscv/env\handlers.c ****  * \details
 660:C:/Users/stapi/OneDrive/Desktop/GD32VW553/V1_MQTT_OK/GD32VW55X_Wifi_BLE_SDK/GD32VW55x_RELEASE_V1.0.2/MSDK/plf/riscv/env\handlers.c ****  * This function provided feature to dump exception frame stored in stack.
 661:C:/Users/stapi/OneDrive/Desktop/GD32VW553/V1_MQTT_OK/GD32VW55X_Wifi_BLE_SDK/GD32VW55x_RELEASE_V1.0.2/MSDK/plf/riscv/env\handlers.c ****  */
 662:C:/Users/stapi/OneDrive/Desktop/GD32VW553/V1_MQTT_OK/GD32VW55X_Wifi_BLE_SDK/GD32VW55x_RELEASE_V1.0.2/MSDK/plf/riscv/env\handlers.c **** void Exception_DumpFrame(unsigned long sp)
 663:C:/Users/stapi/OneDrive/Desktop/GD32VW553/V1_MQTT_OK/GD32VW55X_Wifi_BLE_SDK/GD32VW55x_RELEASE_V1.0.2/MSDK/plf/riscv/env\handlers.c **** {
 604              		.loc 1 663 1 is_stmt 1
 605              		.cfi_startproc
 606              	.LVL69:
 607 0000 17030000 		call	t0,__riscv_save_2
 607      E7020300 
 608              		.cfi_offset 9, -12
 609              		.cfi_offset 8, -8
 610              		.cfi_offset 1, -4
 611              		.cfi_def_cfa_offset 16
 664:C:/Users/stapi/OneDrive/Desktop/GD32VW553/V1_MQTT_OK/GD32VW55X_Wifi_BLE_SDK/GD32VW55x_RELEASE_V1.0.2/MSDK/plf/riscv/env\handlers.c ****     EXC_Frame_Type *exc_frame = (EXC_Frame_Type *)sp;
 612              		.loc 1 664 5
 613              	.LVL70:
 665:C:/Users/stapi/OneDrive/Desktop/GD32VW553/V1_MQTT_OK/GD32VW55X_Wifi_BLE_SDK/GD32VW55x_RELEASE_V1.0.2/MSDK/plf/riscv/env\handlers.c **** #ifndef __riscv_32e
 666:C:/Users/stapi/OneDrive/Desktop/GD32VW553/V1_MQTT_OK/GD32VW55X_Wifi_BLE_SDK/GD32VW55x_RELEASE_V1.0.2/MSDK/plf/riscv/env\handlers.c ****     /* TODO: Uncomment this if you have implement printf function */
 667:C:/Users/stapi/OneDrive/Desktop/GD32VW553/V1_MQTT_OK/GD32VW55X_Wifi_BLE_SDK/GD32VW55x_RELEASE_V1.0.2/MSDK/plf/riscv/env\handlers.c **** #ifdef EXEC_USING_STD_PRINTF
 668:C:/Users/stapi/OneDrive/Desktop/GD32VW553/V1_MQTT_OK/GD32VW55X_Wifi_BLE_SDK/GD32VW55x_RELEASE_V1.0.2/MSDK/plf/riscv/env\handlers.c ****     printf("ra: 0x%x, tp: 0x%x, t0: 0x%x, t1: 0x%x, t2: 0x%x, t3: 0x%x, t4: 0x%x, t5: 0x%x, t6: 0x%
 669:C:/Users/stapi/OneDrive/Desktop/GD32VW553/V1_MQTT_OK/GD32VW55X_Wifi_BLE_SDK/GD32VW55x_RELEASE_V1.0.2/MSDK/plf/riscv/env\handlers.c ****            "a0: 0x%x, a1: 0x%x, a2: 0x%x, a3: 0x%x, a4: 0x%x, a5: 0x%x, a6: 0x%x, a7: 0x%x\n" \
 670:C:/Users/stapi/OneDrive/Desktop/GD32VW553/V1_MQTT_OK/GD32VW55X_Wifi_BLE_SDK/GD32VW55x_RELEASE_V1.0.2/MSDK/plf/riscv/env\handlers.c ****            "mcause: 0x%x, mepc: 0x%x, msubm: 0x%x\n", exc_frame->ra, exc_frame->tp, exc_frame->t0, 
 671:C:/Users/stapi/OneDrive/Desktop/GD32VW553/V1_MQTT_OK/GD32VW55X_Wifi_BLE_SDK/GD32VW55x_RELEASE_V1.0.2/MSDK/plf/riscv/env\handlers.c ****            exc_frame->t1, exc_frame->t2, exc_frame->t3, exc_frame->t4, exc_frame->t5, exc_frame->t6
 672:C:/Users/stapi/OneDrive/Desktop/GD32VW553/V1_MQTT_OK/GD32VW55X_Wifi_BLE_SDK/GD32VW55x_RELEASE_V1.0.2/MSDK/plf/riscv/env\handlers.c ****            exc_frame->a0, exc_frame->a1, exc_frame->a2, exc_frame->a3, exc_frame->a4, exc_frame->a5
 673:C:/Users/stapi/OneDrive/Desktop/GD32VW553/V1_MQTT_OK/GD32VW55X_Wifi_BLE_SDK/GD32VW55x_RELEASE_V1.0.2/MSDK/plf/riscv/env\handlers.c ****            exc_frame->a6, exc_frame->a7, exc_frame->mcause, exc_frame->mepc, exc_frame->msubm);
 674:C:/Users/stapi/OneDrive/Desktop/GD32VW553/V1_MQTT_OK/GD32VW55X_Wifi_BLE_SDK/GD32VW55x_RELEASE_V1.0.2/MSDK/plf/riscv/env\handlers.c **** #else
 675:C:/Users/stapi/OneDrive/Desktop/GD32VW553/V1_MQTT_OK/GD32VW55X_Wifi_BLE_SDK/GD32VW55x_RELEASE_V1.0.2/MSDK/plf/riscv/env\handlers.c ****     print_reg("ra     :      0x", 16, exc_frame->ra);
 614              		.loc 1 675 5
 615 0008 7049     		lw	a2,84(a0)
 663:C:/Users/stapi/OneDrive/Desktop/GD32VW553/V1_MQTT_OK/GD32VW55X_Wifi_BLE_SDK/GD32VW55x_RELEASE_V1.0.2/MSDK/plf/riscv/env\handlers.c ****     EXC_Frame_Type *exc_frame = (EXC_Frame_Type *)sp;
 616              		.loc 1 663 1 is_stmt 0
 617 000a 2A84     		mv	s0,a0
 618              		.loc 1 675 5
 619 000c 37050000 		lui	a0,%hi(.LC3)
 620              	.LVL71:
 621 0010 C145     		li	a1,16
 622 0012 13050500 		addi	a0,a0,%lo(.LC3)
 623 0016 97000000 		call	print_reg
 623      E7800000 
 624              	.LVL72:
 676:C:/Users/stapi/OneDrive/Desktop/GD32VW553/V1_MQTT_OK/GD32VW55X_Wifi_BLE_SDK/GD32VW55x_RELEASE_V1.0.2/MSDK/plf/riscv/env\handlers.c ****     print_reg("tp     :      0x", 16, exc_frame->tp);
 625              		.loc 1 676 5 is_stmt 1
 626 001e 304C     		lw	a2,88(s0)
 627 0020 37050000 		lui	a0,%hi(.LC4)
 628 0024 C145     		li	a1,16
 629 0026 13050500 		addi	a0,a0,%lo(.LC4)
 630 002a 97000000 		call	print_reg
 630      E7800000 
 631              	.LVL73:
 677:C:/Users/stapi/OneDrive/Desktop/GD32VW553/V1_MQTT_OK/GD32VW55X_Wifi_BLE_SDK/GD32VW55x_RELEASE_V1.0.2/MSDK/plf/riscv/env\handlers.c ****     print_reg("t0     :      0x", 16, exc_frame->t0);
 632              		.loc 1 677 5
 633 0032 704C     		lw	a2,92(s0)
 634 0034 37050000 		lui	a0,%hi(.LC5)
 635 0038 C145     		li	a1,16
 636 003a 13050500 		addi	a0,a0,%lo(.LC5)
 637 003e 97000000 		call	print_reg
 637      E7800000 
 638              	.LVL74:
 678:C:/Users/stapi/OneDrive/Desktop/GD32VW553/V1_MQTT_OK/GD32VW55X_Wifi_BLE_SDK/GD32VW55x_RELEASE_V1.0.2/MSDK/plf/riscv/env\handlers.c ****     print_reg("t1     :      0x", 16, exc_frame->t1);
 639              		.loc 1 678 5
 640 0046 3050     		lw	a2,96(s0)
 641 0048 37050000 		lui	a0,%hi(.LC6)
 642 004c C145     		li	a1,16
 643 004e 13050500 		addi	a0,a0,%lo(.LC6)
 644 0052 97000000 		call	print_reg
 644      E7800000 
 645              	.LVL75:
 679:C:/Users/stapi/OneDrive/Desktop/GD32VW553/V1_MQTT_OK/GD32VW55X_Wifi_BLE_SDK/GD32VW55x_RELEASE_V1.0.2/MSDK/plf/riscv/env\handlers.c ****     print_reg("t2     :      0x", 16, exc_frame->t1);
 646              		.loc 1 679 5
 647 005a 3050     		lw	a2,96(s0)
 648 005c 37050000 		lui	a0,%hi(.LC7)
 649 0060 C145     		li	a1,16
 650 0062 13050500 		addi	a0,a0,%lo(.LC7)
 680:C:/Users/stapi/OneDrive/Desktop/GD32VW553/V1_MQTT_OK/GD32VW55X_Wifi_BLE_SDK/GD32VW55x_RELEASE_V1.0.2/MSDK/plf/riscv/env\handlers.c ****     print_reg("t3     :      0x", 16, exc_frame->t3);
 651              		.loc 1 680 5 is_stmt 0
 652 0066 93040408 		addi	s1,s0,128
 679:C:/Users/stapi/OneDrive/Desktop/GD32VW553/V1_MQTT_OK/GD32VW55X_Wifi_BLE_SDK/GD32VW55x_RELEASE_V1.0.2/MSDK/plf/riscv/env\handlers.c ****     print_reg("t2     :      0x", 16, exc_frame->t1);
 653              		.loc 1 679 5
 654 006a 97000000 		call	print_reg
 654      E7800000 
 655              	.LVL76:
 656              		.loc 1 680 5 is_stmt 1
 657 0072 D048     		lw	a2,20(s1)
 658 0074 37050000 		lui	a0,%hi(.LC8)
 659 0078 C145     		li	a1,16
 660 007a 13050500 		addi	a0,a0,%lo(.LC8)
 661 007e 97000000 		call	print_reg
 661      E7800000 
 662              	.LVL77:
 681:C:/Users/stapi/OneDrive/Desktop/GD32VW553/V1_MQTT_OK/GD32VW55X_Wifi_BLE_SDK/GD32VW55x_RELEASE_V1.0.2/MSDK/plf/riscv/env\handlers.c ****     print_reg("t4     :      0x", 16, exc_frame->t4);
 663              		.loc 1 681 5
 664 0086 904C     		lw	a2,24(s1)
 665 0088 37050000 		lui	a0,%hi(.LC9)
 666 008c C145     		li	a1,16
 667 008e 13050500 		addi	a0,a0,%lo(.LC9)
 668 0092 97000000 		call	print_reg
 668      E7800000 
 669              	.LVL78:
 682:C:/Users/stapi/OneDrive/Desktop/GD32VW553/V1_MQTT_OK/GD32VW55X_Wifi_BLE_SDK/GD32VW55x_RELEASE_V1.0.2/MSDK/plf/riscv/env\handlers.c ****     print_reg("t5     :      0x", 16, exc_frame->t5);
 670              		.loc 1 682 5
 671 009a D04C     		lw	a2,28(s1)
 672 009c 37050000 		lui	a0,%hi(.LC10)
 673 00a0 C145     		li	a1,16
 674 00a2 13050500 		addi	a0,a0,%lo(.LC10)
 675 00a6 97000000 		call	print_reg
 675      E7800000 
 676              	.LVL79:
 683:C:/Users/stapi/OneDrive/Desktop/GD32VW553/V1_MQTT_OK/GD32VW55X_Wifi_BLE_SDK/GD32VW55x_RELEASE_V1.0.2/MSDK/plf/riscv/env\handlers.c ****     print_reg("t6     :      0x", 16, exc_frame->t6);
 677              		.loc 1 683 5
 678 00ae 9050     		lw	a2,32(s1)
 679 00b0 37050000 		lui	a0,%hi(.LC11)
 680 00b4 C145     		li	a1,16
 681 00b6 13050500 		addi	a0,a0,%lo(.LC11)
 682 00ba 97000000 		call	print_reg
 682      E7800000 
 683              	.LVL80:
 684:C:/Users/stapi/OneDrive/Desktop/GD32VW553/V1_MQTT_OK/GD32VW55X_Wifi_BLE_SDK/GD32VW55x_RELEASE_V1.0.2/MSDK/plf/riscv/env\handlers.c **** 
 685:C:/Users/stapi/OneDrive/Desktop/GD32VW553/V1_MQTT_OK/GD32VW55X_Wifi_BLE_SDK/GD32VW55x_RELEASE_V1.0.2/MSDK/plf/riscv/env\handlers.c ****     print_reg("a0     :      0x", 16, exc_frame->a0);
 684              		.loc 1 685 5
 685 00c2 3054     		lw	a2,104(s0)
 686 00c4 37050000 		lui	a0,%hi(.LC12)
 687 00c8 C145     		li	a1,16
 688 00ca 13050500 		addi	a0,a0,%lo(.LC12)
 689 00ce 97000000 		call	print_reg
 689      E7800000 
 690              	.LVL81:
 686:C:/Users/stapi/OneDrive/Desktop/GD32VW553/V1_MQTT_OK/GD32VW55X_Wifi_BLE_SDK/GD32VW55x_RELEASE_V1.0.2/MSDK/plf/riscv/env\handlers.c ****     print_reg("a1     :      0x", 16, exc_frame->a1);
 691              		.loc 1 686 5
 692 00d6 7054     		lw	a2,108(s0)
 693 00d8 37050000 		lui	a0,%hi(.LC13)
 694 00dc C145     		li	a1,16
 695 00de 13050500 		addi	a0,a0,%lo(.LC13)
 696 00e2 97000000 		call	print_reg
 696      E7800000 
 697              	.LVL82:
 687:C:/Users/stapi/OneDrive/Desktop/GD32VW553/V1_MQTT_OK/GD32VW55X_Wifi_BLE_SDK/GD32VW55x_RELEASE_V1.0.2/MSDK/plf/riscv/env\handlers.c ****     print_reg("a2     :      0x", 16, exc_frame->a2);
 698              		.loc 1 687 5
 699 00ea 3058     		lw	a2,112(s0)
 700 00ec 37050000 		lui	a0,%hi(.LC14)
 701 00f0 C145     		li	a1,16
 702 00f2 13050500 		addi	a0,a0,%lo(.LC14)
 703 00f6 97000000 		call	print_reg
 703      E7800000 
 704              	.LVL83:
 688:C:/Users/stapi/OneDrive/Desktop/GD32VW553/V1_MQTT_OK/GD32VW55X_Wifi_BLE_SDK/GD32VW55x_RELEASE_V1.0.2/MSDK/plf/riscv/env\handlers.c ****     print_reg("a3     :      0x", 16, exc_frame->a3);
 705              		.loc 1 688 5
 706 00fe 7058     		lw	a2,116(s0)
 707 0100 37050000 		lui	a0,%hi(.LC15)
 708 0104 C145     		li	a1,16
 709 0106 13050500 		addi	a0,a0,%lo(.LC15)
 710 010a 97000000 		call	print_reg
 710      E7800000 
 711              	.LVL84:
 689:C:/Users/stapi/OneDrive/Desktop/GD32VW553/V1_MQTT_OK/GD32VW55X_Wifi_BLE_SDK/GD32VW55x_RELEASE_V1.0.2/MSDK/plf/riscv/env\handlers.c ****     print_reg("a4     :      0x", 16, exc_frame->a4);
 712              		.loc 1 689 5
 713 0112 305C     		lw	a2,120(s0)
 714 0114 37050000 		lui	a0,%hi(.LC16)
 715 0118 C145     		li	a1,16
 716 011a 13050500 		addi	a0,a0,%lo(.LC16)
 717 011e 97000000 		call	print_reg
 717      E7800000 
 718              	.LVL85:
 690:C:/Users/stapi/OneDrive/Desktop/GD32VW553/V1_MQTT_OK/GD32VW55X_Wifi_BLE_SDK/GD32VW55x_RELEASE_V1.0.2/MSDK/plf/riscv/env\handlers.c ****     print_reg("a5     :      0x", 16, exc_frame->a5);
 719              		.loc 1 690 5
 720 0126 705C     		lw	a2,124(s0)
 721 0128 37050000 		lui	a0,%hi(.LC17)
 722 012c C145     		li	a1,16
 723 012e 13050500 		addi	a0,a0,%lo(.LC17)
 724 0132 97000000 		call	print_reg
 724      E7800000 
 725              	.LVL86:
 691:C:/Users/stapi/OneDrive/Desktop/GD32VW553/V1_MQTT_OK/GD32VW55X_Wifi_BLE_SDK/GD32VW55x_RELEASE_V1.0.2/MSDK/plf/riscv/env\handlers.c ****     print_reg("a6     :      0x", 16, exc_frame->a6);
 726              		.loc 1 691 5
 727 013a D044     		lw	a2,12(s1)
 728 013c 37050000 		lui	a0,%hi(.LC18)
 729 0140 C145     		li	a1,16
 730 0142 13050500 		addi	a0,a0,%lo(.LC18)
 731 0146 97000000 		call	print_reg
 731      E7800000 
 732              	.LVL87:
 692:C:/Users/stapi/OneDrive/Desktop/GD32VW553/V1_MQTT_OK/GD32VW55X_Wifi_BLE_SDK/GD32VW55x_RELEASE_V1.0.2/MSDK/plf/riscv/env\handlers.c ****     print_reg("mcause :      0x", 16, exc_frame->mcause);
 733              		.loc 1 692 5
 734 014e 9040     		lw	a2,0(s1)
 735 0150 37050000 		lui	a0,%hi(.LC19)
 736 0154 C145     		li	a1,16
 737 0156 13050500 		addi	a0,a0,%lo(.LC19)
 738 015a 97000000 		call	print_reg
 738      E7800000 
 739              	.LVL88:
 693:C:/Users/stapi/OneDrive/Desktop/GD32VW553/V1_MQTT_OK/GD32VW55X_Wifi_BLE_SDK/GD32VW55x_RELEASE_V1.0.2/MSDK/plf/riscv/env\handlers.c ****     print_reg("mepc   :      0x", 16, exc_frame->mepc);
 740              		.loc 1 693 5
 741 0162 D040     		lw	a2,4(s1)
 742 0164 37050000 		lui	a0,%hi(.LC20)
 743 0168 C145     		li	a1,16
 744 016a 13050500 		addi	a0,a0,%lo(.LC20)
 745 016e 97000000 		call	print_reg
 745      E7800000 
 746              	.LVL89:
 694:C:/Users/stapi/OneDrive/Desktop/GD32VW553/V1_MQTT_OK/GD32VW55X_Wifi_BLE_SDK/GD32VW55x_RELEASE_V1.0.2/MSDK/plf/riscv/env\handlers.c ****     print_reg("msubm  :      0x", 16, exc_frame->msubm);
 747              		.loc 1 694 5
 748 0176 9044     		lw	a2,8(s1)
 749 0178 37050000 		lui	a0,%hi(.LC21)
 750 017c C145     		li	a1,16
 751 017e 13050500 		addi	a0,a0,%lo(.LC21)
 752 0182 97000000 		call	print_reg
 752      E7800000 
 753              	.LVL90:
 695:C:/Users/stapi/OneDrive/Desktop/GD32VW553/V1_MQTT_OK/GD32VW55X_Wifi_BLE_SDK/GD32VW55x_RELEASE_V1.0.2/MSDK/plf/riscv/env\handlers.c **** #endif
 696:C:/Users/stapi/OneDrive/Desktop/GD32VW553/V1_MQTT_OK/GD32VW55X_Wifi_BLE_SDK/GD32VW55x_RELEASE_V1.0.2/MSDK/plf/riscv/env\handlers.c **** #else /* __riscv_32e */
 697:C:/Users/stapi/OneDrive/Desktop/GD32VW553/V1_MQTT_OK/GD32VW55X_Wifi_BLE_SDK/GD32VW55x_RELEASE_V1.0.2/MSDK/plf/riscv/env\handlers.c ****     /* TODO: Uncomment this if you have implement printf function */
 698:C:/Users/stapi/OneDrive/Desktop/GD32VW553/V1_MQTT_OK/GD32VW55X_Wifi_BLE_SDK/GD32VW55x_RELEASE_V1.0.2/MSDK/plf/riscv/env\handlers.c ****     printf("ra: 0x%x, tp: 0x%x, t0: 0x%x, t1: 0x%x, t2: 0x%x\n" \
 699:C:/Users/stapi/OneDrive/Desktop/GD32VW553/V1_MQTT_OK/GD32VW55X_Wifi_BLE_SDK/GD32VW55x_RELEASE_V1.0.2/MSDK/plf/riscv/env\handlers.c ****            "a0: 0x%x, a1: 0x%x, a2: 0x%x, a3: 0x%x, a4: 0x%x, a5: 0x%x\n" \
 700:C:/Users/stapi/OneDrive/Desktop/GD32VW553/V1_MQTT_OK/GD32VW55X_Wifi_BLE_SDK/GD32VW55x_RELEASE_V1.0.2/MSDK/plf/riscv/env\handlers.c ****            "mcause: 0x%x, mepc: 0x%x, msubm: 0x%x\n", exc_frame->ra, exc_frame->tp, exc_frame->t0, 
 701:C:/Users/stapi/OneDrive/Desktop/GD32VW553/V1_MQTT_OK/GD32VW55X_Wifi_BLE_SDK/GD32VW55x_RELEASE_V1.0.2/MSDK/plf/riscv/env\handlers.c ****            exc_frame->t1, exc_frame->t2, exc_frame->a0, exc_frame->a1, exc_frame->a2, exc_frame->a3
 702:C:/Users/stapi/OneDrive/Desktop/GD32VW553/V1_MQTT_OK/GD32VW55X_Wifi_BLE_SDK/GD32VW55x_RELEASE_V1.0.2/MSDK/plf/riscv/env\handlers.c ****            exc_frame->a4, exc_frame->a5, exc_frame->mcause, exc_frame->mepc, exc_frame->msubm);
 703:C:/Users/stapi/OneDrive/Desktop/GD32VW553/V1_MQTT_OK/GD32VW55X_Wifi_BLE_SDK/GD32VW55x_RELEASE_V1.0.2/MSDK/plf/riscv/env\handlers.c **** #endif /* __riscv_32e */
 704:C:/Users/stapi/OneDrive/Desktop/GD32VW553/V1_MQTT_OK/GD32VW55X_Wifi_BLE_SDK/GD32VW55x_RELEASE_V1.0.2/MSDK/plf/riscv/env\handlers.c **** }
 754              		.loc 1 704 1 is_stmt 0
 755 018a 17030000 		tail	__riscv_restore_2
 755      67000300 
 756              		.cfi_restore 9
 757              		.cfi_restore 8
 758              		.cfi_restore 1
 759              		.cfi_def_cfa_offset 0
 760              		.cfi_endproc
 761              	.LFE376:
 763              		.section	.rodata.nmi_handler.str1.4,"aMS",@progbits,1
 764              		.align	2
 765              	.LC22:
 766 0000 4E4D4920 		.string	"NMI \r\n"
 766      0D0A00
 767 0007 00       		.align	2
 768              	.LC23:
 769 0008 4D434155 		.string	"MCAUSE :      0x"
 769      5345203A 
 769      20202020 
 769      20203078 
 769      00
 770 0019 000000   		.align	2
 771              	.LC24:
 772 001c 4D444341 		.string	"MDCAUSE:      0x"
 772      5553453A 
 772      20202020 
 772      20203078 
 772      00
 773 002d 000000   		.align	2
 774              	.LC25:
 775 0030 4D455043 		.string	"MEPC   :      0x"
 775      2020203A 
 775      20202020 
 775      20203078 
 775      00
 776 0041 000000   		.align	2
 777              	.LC26:
 778 0044 4D545641 		.string	"MTVAL  :      0x"
 778      4C20203A 
 778      20202020 
 778      20203078 
 778      00
 779 0055 000000   		.align	2
 780              	.LC27:
 781 0058 4D535542 		.string	"MSUBM  :      0x"
 781      4D20203A 
 781      20202020 
 781      20203078 
 781      00
 782              		.section	.text.nmi_handler,"ax",@progbits
 783              		.align	1
 784              		.globl	nmi_handler
 786              	nmi_handler:
 787              	.LFB371:
 556:C:/Users/stapi/OneDrive/Desktop/GD32VW553/V1_MQTT_OK/GD32VW55X_Wifi_BLE_SDK/GD32VW55x_RELEASE_V1.0.2/MSDK/plf/riscv/env\handlers.c ****     /* TODO: Uncomment this if you have implement printf function */
 788              		.loc 1 556 1 is_stmt 1
 789              		.cfi_startproc
 790              	.LVL91:
 791 0000 17030000 		call	t0,__riscv_save_1
 791      E7020300 
 792              		.cfi_offset 8, -8
 793              		.cfi_offset 1, -4
 794              		.cfi_def_cfa_offset 16
 565:C:/Users/stapi/OneDrive/Desktop/GD32VW553/V1_MQTT_OK/GD32VW55X_Wifi_BLE_SDK/GD32VW55x_RELEASE_V1.0.2/MSDK/plf/riscv/env\handlers.c ****     print_reg("MCAUSE :      0x", 16, mcause);
 795              		.loc 1 565 5
 556:C:/Users/stapi/OneDrive/Desktop/GD32VW553/V1_MQTT_OK/GD32VW55X_Wifi_BLE_SDK/GD32VW55x_RELEASE_V1.0.2/MSDK/plf/riscv/env\handlers.c ****     /* TODO: Uncomment this if you have implement printf function */
 796              		.loc 1 556 1 is_stmt 0
 797 0008 4111     		addi	sp,sp,-16
 798              		.cfi_def_cfa_offset 32
 556:C:/Users/stapi/OneDrive/Desktop/GD32VW553/V1_MQTT_OK/GD32VW55X_Wifi_BLE_SDK/GD32VW55x_RELEASE_V1.0.2/MSDK/plf/riscv/env\handlers.c ****     /* TODO: Uncomment this if you have implement printf function */
 799              		.loc 1 556 1
 800 000a 2AC6     		sw	a0,12(sp)
 565:C:/Users/stapi/OneDrive/Desktop/GD32VW553/V1_MQTT_OK/GD32VW55X_Wifi_BLE_SDK/GD32VW55x_RELEASE_V1.0.2/MSDK/plf/riscv/env\handlers.c ****     print_reg("MCAUSE :      0x", 16, mcause);
 801              		.loc 1 565 5
 802 000c 37050000 		lui	a0,%hi(.LC22)
 803              	.LVL92:
 556:C:/Users/stapi/OneDrive/Desktop/GD32VW553/V1_MQTT_OK/GD32VW55X_Wifi_BLE_SDK/GD32VW55x_RELEASE_V1.0.2/MSDK/plf/riscv/env\handlers.c ****     /* TODO: Uncomment this if you have implement printf function */
 804              		.loc 1 556 1
 805 0010 2E84     		mv	s0,a1
 565:C:/Users/stapi/OneDrive/Desktop/GD32VW553/V1_MQTT_OK/GD32VW55X_Wifi_BLE_SDK/GD32VW55x_RELEASE_V1.0.2/MSDK/plf/riscv/env\handlers.c ****     print_reg("MCAUSE :      0x", 16, mcause);
 806              		.loc 1 565 5
 807 0012 13050500 		addi	a0,a0,%lo(.LC22)
 808 0016 9945     		li	a1,6
 809              	.LVL93:
 810 0018 97000000 		call	log_uart_put_data
 810      E7800000 
 811              	.LVL94:
 566:C:/Users/stapi/OneDrive/Desktop/GD32VW553/V1_MQTT_OK/GD32VW55X_Wifi_BLE_SDK/GD32VW55x_RELEASE_V1.0.2/MSDK/plf/riscv/env\handlers.c ****     print_reg("MDCAUSE:      0x", 16, __RV_CSR_READ(CSR_MDCAUSE));
 812              		.loc 1 566 5 is_stmt 1
 813 0020 3246     		lw	a2,12(sp)
 814 0022 37050000 		lui	a0,%hi(.LC23)
 815 0026 C145     		li	a1,16
 816 0028 13050500 		addi	a0,a0,%lo(.LC23)
 817 002c 97000000 		call	print_reg
 817      E7800000 
 818              	.LVL95:
 567:C:/Users/stapi/OneDrive/Desktop/GD32VW553/V1_MQTT_OK/GD32VW55X_Wifi_BLE_SDK/GD32VW55x_RELEASE_V1.0.2/MSDK/plf/riscv/env\handlers.c ****     print_reg("MEPC   :      0x", 16, __RV_CSR_READ(CSR_MEPC));
 819              		.loc 1 567 5
 820              	.LBB10:
 567:C:/Users/stapi/OneDrive/Desktop/GD32VW553/V1_MQTT_OK/GD32VW55X_Wifi_BLE_SDK/GD32VW55x_RELEASE_V1.0.2/MSDK/plf/riscv/env\handlers.c ****     print_reg("MEPC   :      0x", 16, __RV_CSR_READ(CSR_MEPC));
 821              		.loc 1 567 39
 567:C:/Users/stapi/OneDrive/Desktop/GD32VW553/V1_MQTT_OK/GD32VW55X_Wifi_BLE_SDK/GD32VW55x_RELEASE_V1.0.2/MSDK/plf/riscv/env\handlers.c ****     print_reg("MEPC   :      0x", 16, __RV_CSR_READ(CSR_MEPC));
 822              		.loc 1 567 39
 823              	 #APP
 824              	# 567 "C:/Users/stapi/OneDrive/Desktop/GD32VW553/V1_MQTT_OK/GD32VW55X_Wifi_BLE_SDK/GD32VW55x_RELEAS
 825              		csrr a2, 0x7C9
 826              	# 0 "" 2
 827              	.LVL96:
 567:C:/Users/stapi/OneDrive/Desktop/GD32VW553/V1_MQTT_OK/GD32VW55X_Wifi_BLE_SDK/GD32VW55x_RELEASE_V1.0.2/MSDK/plf/riscv/env\handlers.c ****     print_reg("MEPC   :      0x", 16, __RV_CSR_READ(CSR_MEPC));
 828              		.loc 1 567 39
 829              	 #NO_APP
 830              	.LBE10:
 567:C:/Users/stapi/OneDrive/Desktop/GD32VW553/V1_MQTT_OK/GD32VW55X_Wifi_BLE_SDK/GD32VW55x_RELEASE_V1.0.2/MSDK/plf/riscv/env\handlers.c ****     print_reg("MEPC   :      0x", 16, __RV_CSR_READ(CSR_MEPC));
 831              		.loc 1 567 5 is_stmt 0
 832 0038 37050000 		lui	a0,%hi(.LC24)
 833 003c C145     		li	a1,16
 834 003e 13050500 		addi	a0,a0,%lo(.LC24)
 835 0042 97000000 		call	print_reg
 835      E7800000 
 836              	.LVL97:
 568:C:/Users/stapi/OneDrive/Desktop/GD32VW553/V1_MQTT_OK/GD32VW55X_Wifi_BLE_SDK/GD32VW55x_RELEASE_V1.0.2/MSDK/plf/riscv/env\handlers.c ****     print_reg("MTVAL  :      0x", 16, __RV_CSR_READ(CSR_MTVAL));
 837              		.loc 1 568 5 is_stmt 1
 838              	.LBB11:
 568:C:/Users/stapi/OneDrive/Desktop/GD32VW553/V1_MQTT_OK/GD32VW55X_Wifi_BLE_SDK/GD32VW55x_RELEASE_V1.0.2/MSDK/plf/riscv/env\handlers.c ****     print_reg("MTVAL  :      0x", 16, __RV_CSR_READ(CSR_MTVAL));
 839              		.loc 1 568 39
 568:C:/Users/stapi/OneDrive/Desktop/GD32VW553/V1_MQTT_OK/GD32VW55X_Wifi_BLE_SDK/GD32VW55x_RELEASE_V1.0.2/MSDK/plf/riscv/env\handlers.c ****     print_reg("MTVAL  :      0x", 16, __RV_CSR_READ(CSR_MTVAL));
 840              		.loc 1 568 39
 841              	 #APP
 842              	# 568 "C:/Users/stapi/OneDrive/Desktop/GD32VW553/V1_MQTT_OK/GD32VW55X_Wifi_BLE_SDK/GD32VW55x_RELEAS
 843              		csrr a2, 0x341
 844              	# 0 "" 2
 845              	.LVL98:
 568:C:/Users/stapi/OneDrive/Desktop/GD32VW553/V1_MQTT_OK/GD32VW55X_Wifi_BLE_SDK/GD32VW55x_RELEASE_V1.0.2/MSDK/plf/riscv/env\handlers.c ****     print_reg("MTVAL  :      0x", 16, __RV_CSR_READ(CSR_MTVAL));
 846              		.loc 1 568 39
 847              	 #NO_APP
 848              	.LBE11:
 568:C:/Users/stapi/OneDrive/Desktop/GD32VW553/V1_MQTT_OK/GD32VW55X_Wifi_BLE_SDK/GD32VW55x_RELEASE_V1.0.2/MSDK/plf/riscv/env\handlers.c ****     print_reg("MTVAL  :      0x", 16, __RV_CSR_READ(CSR_MTVAL));
 849              		.loc 1 568 5 is_stmt 0
 850 004e 37050000 		lui	a0,%hi(.LC25)
 851 0052 C145     		li	a1,16
 852 0054 13050500 		addi	a0,a0,%lo(.LC25)
 853 0058 97000000 		call	print_reg
 853      E7800000 
 854              	.LVL99:
 569:C:/Users/stapi/OneDrive/Desktop/GD32VW553/V1_MQTT_OK/GD32VW55X_Wifi_BLE_SDK/GD32VW55x_RELEASE_V1.0.2/MSDK/plf/riscv/env\handlers.c ****     print_reg("MSUBM  :      0x", 16, __RV_CSR_READ(CSR_MSUBM));
 855              		.loc 1 569 5 is_stmt 1
 856              	.LBB12:
 569:C:/Users/stapi/OneDrive/Desktop/GD32VW553/V1_MQTT_OK/GD32VW55X_Wifi_BLE_SDK/GD32VW55x_RELEASE_V1.0.2/MSDK/plf/riscv/env\handlers.c ****     print_reg("MSUBM  :      0x", 16, __RV_CSR_READ(CSR_MSUBM));
 857              		.loc 1 569 39
 569:C:/Users/stapi/OneDrive/Desktop/GD32VW553/V1_MQTT_OK/GD32VW55X_Wifi_BLE_SDK/GD32VW55x_RELEASE_V1.0.2/MSDK/plf/riscv/env\handlers.c ****     print_reg("MSUBM  :      0x", 16, __RV_CSR_READ(CSR_MSUBM));
 858              		.loc 1 569 39
 859              	 #APP
 860              	# 569 "C:/Users/stapi/OneDrive/Desktop/GD32VW553/V1_MQTT_OK/GD32VW55X_Wifi_BLE_SDK/GD32VW55x_RELEAS
 861              		csrr a2, 0x343
 862              	# 0 "" 2
 863              	.LVL100:
 569:C:/Users/stapi/OneDrive/Desktop/GD32VW553/V1_MQTT_OK/GD32VW55X_Wifi_BLE_SDK/GD32VW55x_RELEASE_V1.0.2/MSDK/plf/riscv/env\handlers.c ****     print_reg("MSUBM  :      0x", 16, __RV_CSR_READ(CSR_MSUBM));
 864              		.loc 1 569 39
 865              	 #NO_APP
 866              	.LBE12:
 569:C:/Users/stapi/OneDrive/Desktop/GD32VW553/V1_MQTT_OK/GD32VW55X_Wifi_BLE_SDK/GD32VW55x_RELEASE_V1.0.2/MSDK/plf/riscv/env\handlers.c ****     print_reg("MSUBM  :      0x", 16, __RV_CSR_READ(CSR_MSUBM));
 867              		.loc 1 569 5 is_stmt 0
 868 0064 37050000 		lui	a0,%hi(.LC26)
 869 0068 C145     		li	a1,16
 870 006a 13050500 		addi	a0,a0,%lo(.LC26)
 871 006e 97000000 		call	print_reg
 871      E7800000 
 872              	.LVL101:
 570:C:/Users/stapi/OneDrive/Desktop/GD32VW553/V1_MQTT_OK/GD32VW55X_Wifi_BLE_SDK/GD32VW55x_RELEASE_V1.0.2/MSDK/plf/riscv/env\handlers.c **** #endif
 873              		.loc 1 570 5 is_stmt 1
 874              	.LBB13:
 570:C:/Users/stapi/OneDrive/Desktop/GD32VW553/V1_MQTT_OK/GD32VW55X_Wifi_BLE_SDK/GD32VW55x_RELEASE_V1.0.2/MSDK/plf/riscv/env\handlers.c **** #endif
 875              		.loc 1 570 39
 570:C:/Users/stapi/OneDrive/Desktop/GD32VW553/V1_MQTT_OK/GD32VW55X_Wifi_BLE_SDK/GD32VW55x_RELEASE_V1.0.2/MSDK/plf/riscv/env\handlers.c **** #endif
 876              		.loc 1 570 39
 877              	 #APP
 878              	# 570 "C:/Users/stapi/OneDrive/Desktop/GD32VW553/V1_MQTT_OK/GD32VW55X_Wifi_BLE_SDK/GD32VW55x_RELEAS
 879              		csrr a2, 0x7C4
 880              	# 0 "" 2
 881              	.LVL102:
 570:C:/Users/stapi/OneDrive/Desktop/GD32VW553/V1_MQTT_OK/GD32VW55X_Wifi_BLE_SDK/GD32VW55x_RELEASE_V1.0.2/MSDK/plf/riscv/env\handlers.c **** #endif
 882              		.loc 1 570 39
 883              	 #NO_APP
 884              	.LBE13:
 570:C:/Users/stapi/OneDrive/Desktop/GD32VW553/V1_MQTT_OK/GD32VW55X_Wifi_BLE_SDK/GD32VW55x_RELEASE_V1.0.2/MSDK/plf/riscv/env\handlers.c **** #endif
 885              		.loc 1 570 5 is_stmt 0
 886 007a 37050000 		lui	a0,%hi(.LC27)
 887 007e 13050500 		addi	a0,a0,%lo(.LC27)
 888 0082 C145     		li	a1,16
 889 0084 97000000 		call	print_reg
 889      E7800000 
 890              	.LVL103:
 572:C:/Users/stapi/OneDrive/Desktop/GD32VW553/V1_MQTT_OK/GD32VW55X_Wifi_BLE_SDK/GD32VW55x_RELEASE_V1.0.2/MSDK/plf/riscv/env\handlers.c **** 
 891              		.loc 1 572 5 is_stmt 1
 892 008c 2285     		mv	a0,s0
 893 008e 97000000 		call	Exception_DumpFrame
 893      E7800000 
 894              	.LVL104:
 895              	.L50:
 574:C:/Users/stapi/OneDrive/Desktop/GD32VW553/V1_MQTT_OK/GD32VW55X_Wifi_BLE_SDK/GD32VW55x_RELEASE_V1.0.2/MSDK/plf/riscv/env\handlers.c **** }
 896              		.loc 1 574 5 discriminator 1
 574:C:/Users/stapi/OneDrive/Desktop/GD32VW553/V1_MQTT_OK/GD32VW55X_Wifi_BLE_SDK/GD32VW55x_RELEASE_V1.0.2/MSDK/plf/riscv/env\handlers.c **** }
 897              		.loc 1 574 14 discriminator 1
 574:C:/Users/stapi/OneDrive/Desktop/GD32VW553/V1_MQTT_OK/GD32VW55X_Wifi_BLE_SDK/GD32VW55x_RELEASE_V1.0.2/MSDK/plf/riscv/env\handlers.c **** }
 898              		.loc 1 574 11 discriminator 1
 899 0096 01A0     		j	.L50
 900              		.cfi_endproc
 901              	.LFE371:
 903              		.section	.rodata.system_default_exception_handler.str1.4,"aMS",@progbits,1
 904              		.align	2
 905              	.LC28:
 906 0000 53797374 		.string	"System Default Exception \r\n"
 906      656D2044 
 906      65666175 
 906      6C742045 
 906      78636570 
 907              		.align	2
 908              	.LC29:
 909 001c 53502020 		.string	"SP     :      0x"
 909      2020203A 
 909      20202020 
 909      20203078 
 909      00
 910 002d 000000   		.align	2
 911              	.LC30:
 912 0030 496E7465 		.string	"Interrupt Stack Dump:\r\n"
 912      72727570 
 912      74205374 
 912      61636B20 
 912      44756D70 
 913              		.align	2
 914              	.LC31:
 915 0048 506C6561 		.string	"Please use bloodhound tool to parse log above!\r\n"
 915      73652075 
 915      73652062 
 915      6C6F6F64 
 915      686F756E 
 916 0079 000000   		.align	2
 917              	.LC32:
 918 007c 7072696E 		.string	"print help to get cmd\r\n"
 918      74206865 
 918      6C702074 
 918      6F206765 
 918      7420636D 
 919              		.align	2
 920              	.LC33:
 921 0094 726D656D 		.string	"rmem XXXXXXXX(8 bytes Hex) DD(decimal)\r\n"
 921      20585858 
 921      58585858 
 921      58283820 
 921      62797465 
 922 00bd 000000   		.align	2
 923              	.LC34:
 924 00c0 64756D70 		.string	"dump\r\n"
 924      0D0A00
 925              		.section	.text.system_default_exception_handler,"ax",@progbits
 926              		.align	1
 928              	system_default_exception_handler:
 929              	.LFB370:
 452:C:/Users/stapi/OneDrive/Desktop/GD32VW553/V1_MQTT_OK/GD32VW55X_Wifi_BLE_SDK/GD32VW55x_RELEASE_V1.0.2/MSDK/plf/riscv/env\handlers.c ****     /* TODO: Uncomment this if you have implement printf function */
 930              		.loc 1 452 1
 931              		.cfi_startproc
 932              	.LVL105:
 933 0000 17030000 		call	t0,__riscv_save_12
 933      E7020300 
 934              		.cfi_offset 27, -52
 935              		.cfi_offset 26, -48
 936              		.cfi_offset 25, -44
 937              		.cfi_offset 24, -40
 938              		.cfi_offset 23, -36
 939              		.cfi_offset 22, -32
 940              		.cfi_offset 21, -28
 941              		.cfi_offset 20, -24
 942              		.cfi_offset 19, -20
 943              		.cfi_offset 18, -16
 944              		.cfi_offset 9, -12
 945              		.cfi_offset 8, -8
 946              		.cfi_offset 1, -4
 947              		.cfi_def_cfa_offset 64
 460:C:/Users/stapi/OneDrive/Desktop/GD32VW553/V1_MQTT_OK/GD32VW55X_Wifi_BLE_SDK/GD32VW55x_RELEASE_V1.0.2/MSDK/plf/riscv/env\handlers.c ****     char uart_buf[64];
 948              		.loc 1 460 5
 461:C:/Users/stapi/OneDrive/Desktop/GD32VW553/V1_MQTT_OK/GD32VW55X_Wifi_BLE_SDK/GD32VW55x_RELEASE_V1.0.2/MSDK/plf/riscv/env\handlers.c ****     uint8_t uart_index = 0;
 949              		.loc 1 461 5
 462:C:/Users/stapi/OneDrive/Desktop/GD32VW553/V1_MQTT_OK/GD32VW55X_Wifi_BLE_SDK/GD32VW55x_RELEASE_V1.0.2/MSDK/plf/riscv/env\handlers.c **** 
 950              		.loc 1 462 5
 951              	.LVL106:
 464:C:/Users/stapi/OneDrive/Desktop/GD32VW553/V1_MQTT_OK/GD32VW55X_Wifi_BLE_SDK/GD32VW55x_RELEASE_V1.0.2/MSDK/plf/riscv/env\handlers.c ****     print_reg("MCAUSE :      0x", 16, mcause);
 952              		.loc 1 464 5
 452:C:/Users/stapi/OneDrive/Desktop/GD32VW553/V1_MQTT_OK/GD32VW55X_Wifi_BLE_SDK/GD32VW55x_RELEASE_V1.0.2/MSDK/plf/riscv/env\handlers.c ****     /* TODO: Uncomment this if you have implement printf function */
 953              		.loc 1 452 1 is_stmt 0
 954 0008 1D71     		addi	sp,sp,-96
 955              		.cfi_def_cfa_offset 160
 452:C:/Users/stapi/OneDrive/Desktop/GD32VW553/V1_MQTT_OK/GD32VW55X_Wifi_BLE_SDK/GD32VW55x_RELEASE_V1.0.2/MSDK/plf/riscv/env\handlers.c ****     /* TODO: Uncomment this if you have implement printf function */
 956              		.loc 1 452 1
 957 000a 2AC6     		sw	a0,12(sp)
 464:C:/Users/stapi/OneDrive/Desktop/GD32VW553/V1_MQTT_OK/GD32VW55X_Wifi_BLE_SDK/GD32VW55x_RELEASE_V1.0.2/MSDK/plf/riscv/env\handlers.c ****     print_reg("MCAUSE :      0x", 16, mcause);
 958              		.loc 1 464 5
 959 000c 37050000 		lui	a0,%hi(.LC28)
 960              	.LVL107:
 452:C:/Users/stapi/OneDrive/Desktop/GD32VW553/V1_MQTT_OK/GD32VW55X_Wifi_BLE_SDK/GD32VW55x_RELEASE_V1.0.2/MSDK/plf/riscv/env\handlers.c ****     /* TODO: Uncomment this if you have implement printf function */
 961              		.loc 1 452 1
 962 0010 AE84     		mv	s1,a1
 464:C:/Users/stapi/OneDrive/Desktop/GD32VW553/V1_MQTT_OK/GD32VW55X_Wifi_BLE_SDK/GD32VW55x_RELEASE_V1.0.2/MSDK/plf/riscv/env\handlers.c ****     print_reg("MCAUSE :      0x", 16, mcause);
 963              		.loc 1 464 5
 964 0012 13050500 		addi	a0,a0,%lo(.LC28)
 965 0016 ED45     		li	a1,27
 966              	.LVL108:
 967 0018 97000000 		call	log_uart_put_data
 967      E7800000 
 968              	.LVL109:
 465:C:/Users/stapi/OneDrive/Desktop/GD32VW553/V1_MQTT_OK/GD32VW55X_Wifi_BLE_SDK/GD32VW55x_RELEASE_V1.0.2/MSDK/plf/riscv/env\handlers.c ****     print_reg("MDCAUSE:      0x", 16, __RV_CSR_READ(CSR_MDCAUSE));
 969              		.loc 1 465 5 is_stmt 1
 970 0020 3246     		lw	a2,12(sp)
 971 0022 37050000 		lui	a0,%hi(.LC23)
 972 0026 C145     		li	a1,16
 973 0028 13050500 		addi	a0,a0,%lo(.LC23)
 974 002c 97000000 		call	print_reg
 974      E7800000 
 975              	.LVL110:
 466:C:/Users/stapi/OneDrive/Desktop/GD32VW553/V1_MQTT_OK/GD32VW55X_Wifi_BLE_SDK/GD32VW55x_RELEASE_V1.0.2/MSDK/plf/riscv/env\handlers.c ****     print_reg("MEPC   :      0x", 16, __RV_CSR_READ(CSR_MEPC));
 976              		.loc 1 466 5
 977              	.LBB41:
 466:C:/Users/stapi/OneDrive/Desktop/GD32VW553/V1_MQTT_OK/GD32VW55X_Wifi_BLE_SDK/GD32VW55x_RELEASE_V1.0.2/MSDK/plf/riscv/env\handlers.c ****     print_reg("MEPC   :      0x", 16, __RV_CSR_READ(CSR_MEPC));
 978              		.loc 1 466 39
 466:C:/Users/stapi/OneDrive/Desktop/GD32VW553/V1_MQTT_OK/GD32VW55X_Wifi_BLE_SDK/GD32VW55x_RELEASE_V1.0.2/MSDK/plf/riscv/env\handlers.c ****     print_reg("MEPC   :      0x", 16, __RV_CSR_READ(CSR_MEPC));
 979              		.loc 1 466 39
 980              	 #APP
 981              	# 466 "C:/Users/stapi/OneDrive/Desktop/GD32VW553/V1_MQTT_OK/GD32VW55X_Wifi_BLE_SDK/GD32VW55x_RELEAS
 982              		csrr a2, 0x7C9
 983              	# 0 "" 2
 984              	.LVL111:
 466:C:/Users/stapi/OneDrive/Desktop/GD32VW553/V1_MQTT_OK/GD32VW55X_Wifi_BLE_SDK/GD32VW55x_RELEASE_V1.0.2/MSDK/plf/riscv/env\handlers.c ****     print_reg("MEPC   :      0x", 16, __RV_CSR_READ(CSR_MEPC));
 985              		.loc 1 466 39
 986              	 #NO_APP
 987              	.LBE41:
 466:C:/Users/stapi/OneDrive/Desktop/GD32VW553/V1_MQTT_OK/GD32VW55X_Wifi_BLE_SDK/GD32VW55x_RELEASE_V1.0.2/MSDK/plf/riscv/env\handlers.c ****     print_reg("MEPC   :      0x", 16, __RV_CSR_READ(CSR_MEPC));
 988              		.loc 1 466 5 is_stmt 0
 989 0038 37050000 		lui	a0,%hi(.LC24)
 990 003c C145     		li	a1,16
 991 003e 13050500 		addi	a0,a0,%lo(.LC24)
 992 0042 97000000 		call	print_reg
 992      E7800000 
 993              	.LVL112:
 467:C:/Users/stapi/OneDrive/Desktop/GD32VW553/V1_MQTT_OK/GD32VW55X_Wifi_BLE_SDK/GD32VW55x_RELEASE_V1.0.2/MSDK/plf/riscv/env\handlers.c ****     print_reg("MTVAL  :      0x", 16, __RV_CSR_READ(CSR_MTVAL));
 994              		.loc 1 467 5 is_stmt 1
 995              	.LBB42:
 467:C:/Users/stapi/OneDrive/Desktop/GD32VW553/V1_MQTT_OK/GD32VW55X_Wifi_BLE_SDK/GD32VW55x_RELEASE_V1.0.2/MSDK/plf/riscv/env\handlers.c ****     print_reg("MTVAL  :      0x", 16, __RV_CSR_READ(CSR_MTVAL));
 996              		.loc 1 467 39
 467:C:/Users/stapi/OneDrive/Desktop/GD32VW553/V1_MQTT_OK/GD32VW55X_Wifi_BLE_SDK/GD32VW55x_RELEASE_V1.0.2/MSDK/plf/riscv/env\handlers.c ****     print_reg("MTVAL  :      0x", 16, __RV_CSR_READ(CSR_MTVAL));
 997              		.loc 1 467 39
 998              	 #APP
 999              	# 467 "C:/Users/stapi/OneDrive/Desktop/GD32VW553/V1_MQTT_OK/GD32VW55X_Wifi_BLE_SDK/GD32VW55x_RELEAS
 1000              		csrr a2, 0x341
 1001              	# 0 "" 2
 1002              	.LVL113:
 467:C:/Users/stapi/OneDrive/Desktop/GD32VW553/V1_MQTT_OK/GD32VW55X_Wifi_BLE_SDK/GD32VW55x_RELEASE_V1.0.2/MSDK/plf/riscv/env\handlers.c ****     print_reg("MTVAL  :      0x", 16, __RV_CSR_READ(CSR_MTVAL));
 1003              		.loc 1 467 39
 1004              	 #NO_APP
 1005              	.LBE42:
 467:C:/Users/stapi/OneDrive/Desktop/GD32VW553/V1_MQTT_OK/GD32VW55X_Wifi_BLE_SDK/GD32VW55x_RELEASE_V1.0.2/MSDK/plf/riscv/env\handlers.c ****     print_reg("MTVAL  :      0x", 16, __RV_CSR_READ(CSR_MTVAL));
 1006              		.loc 1 467 5 is_stmt 0
 1007 004e 37050000 		lui	a0,%hi(.LC25)
 1008 0052 C145     		li	a1,16
 1009 0054 13050500 		addi	a0,a0,%lo(.LC25)
 1010 0058 97000000 		call	print_reg
 1010      E7800000 
 1011              	.LVL114:
 468:C:/Users/stapi/OneDrive/Desktop/GD32VW553/V1_MQTT_OK/GD32VW55X_Wifi_BLE_SDK/GD32VW55x_RELEASE_V1.0.2/MSDK/plf/riscv/env\handlers.c ****     print_reg("MSUBM  :      0x", 16, __RV_CSR_READ(CSR_MSUBM));
 1012              		.loc 1 468 5 is_stmt 1
 1013              	.LBB43:
 468:C:/Users/stapi/OneDrive/Desktop/GD32VW553/V1_MQTT_OK/GD32VW55X_Wifi_BLE_SDK/GD32VW55x_RELEASE_V1.0.2/MSDK/plf/riscv/env\handlers.c ****     print_reg("MSUBM  :      0x", 16, __RV_CSR_READ(CSR_MSUBM));
 1014              		.loc 1 468 39
 468:C:/Users/stapi/OneDrive/Desktop/GD32VW553/V1_MQTT_OK/GD32VW55X_Wifi_BLE_SDK/GD32VW55x_RELEASE_V1.0.2/MSDK/plf/riscv/env\handlers.c ****     print_reg("MSUBM  :      0x", 16, __RV_CSR_READ(CSR_MSUBM));
 1015              		.loc 1 468 39
 1016              	 #APP
 1017              	# 468 "C:/Users/stapi/OneDrive/Desktop/GD32VW553/V1_MQTT_OK/GD32VW55X_Wifi_BLE_SDK/GD32VW55x_RELEAS
 1018              		csrr a2, 0x343
 1019              	# 0 "" 2
 1020              	.LVL115:
 468:C:/Users/stapi/OneDrive/Desktop/GD32VW553/V1_MQTT_OK/GD32VW55X_Wifi_BLE_SDK/GD32VW55x_RELEASE_V1.0.2/MSDK/plf/riscv/env\handlers.c ****     print_reg("MSUBM  :      0x", 16, __RV_CSR_READ(CSR_MSUBM));
 1021              		.loc 1 468 39
 1022              	 #NO_APP
 1023              	.LBE43:
 468:C:/Users/stapi/OneDrive/Desktop/GD32VW553/V1_MQTT_OK/GD32VW55X_Wifi_BLE_SDK/GD32VW55x_RELEASE_V1.0.2/MSDK/plf/riscv/env\handlers.c ****     print_reg("MSUBM  :      0x", 16, __RV_CSR_READ(CSR_MSUBM));
 1024              		.loc 1 468 5 is_stmt 0
 1025 0064 37050000 		lui	a0,%hi(.LC26)
 1026 0068 C145     		li	a1,16
 1027 006a 13050500 		addi	a0,a0,%lo(.LC26)
 1028 006e 97000000 		call	print_reg
 1028      E7800000 
 1029              	.LVL116:
 469:C:/Users/stapi/OneDrive/Desktop/GD32VW553/V1_MQTT_OK/GD32VW55X_Wifi_BLE_SDK/GD32VW55x_RELEASE_V1.0.2/MSDK/plf/riscv/env\handlers.c **** #endif
 1030              		.loc 1 469 5 is_stmt 1
 1031              	.LBB44:
 469:C:/Users/stapi/OneDrive/Desktop/GD32VW553/V1_MQTT_OK/GD32VW55X_Wifi_BLE_SDK/GD32VW55x_RELEASE_V1.0.2/MSDK/plf/riscv/env\handlers.c **** #endif
 1032              		.loc 1 469 39
 469:C:/Users/stapi/OneDrive/Desktop/GD32VW553/V1_MQTT_OK/GD32VW55X_Wifi_BLE_SDK/GD32VW55x_RELEASE_V1.0.2/MSDK/plf/riscv/env\handlers.c **** #endif
 1033              		.loc 1 469 39
 1034              	 #APP
 1035              	# 469 "C:/Users/stapi/OneDrive/Desktop/GD32VW553/V1_MQTT_OK/GD32VW55X_Wifi_BLE_SDK/GD32VW55x_RELEAS
 1036              		csrr a2, 0x7C4
 1037              	# 0 "" 2
 1038              	.LVL117:
 469:C:/Users/stapi/OneDrive/Desktop/GD32VW553/V1_MQTT_OK/GD32VW55X_Wifi_BLE_SDK/GD32VW55x_RELEASE_V1.0.2/MSDK/plf/riscv/env\handlers.c **** #endif
 1039              		.loc 1 469 39
 1040              	 #NO_APP
 1041              	.LBE44:
 469:C:/Users/stapi/OneDrive/Desktop/GD32VW553/V1_MQTT_OK/GD32VW55X_Wifi_BLE_SDK/GD32VW55x_RELEASE_V1.0.2/MSDK/plf/riscv/env\handlers.c **** #endif
 1042              		.loc 1 469 5 is_stmt 0
 1043 007a 37050000 		lui	a0,%hi(.LC27)
 1044 007e C145     		li	a1,16
 1045 0080 13050500 		addi	a0,a0,%lo(.LC27)
 1046 0084 97000000 		call	print_reg
 1046      E7800000 
 1047              	.LVL118:
 471:C:/Users/stapi/OneDrive/Desktop/GD32VW553/V1_MQTT_OK/GD32VW55X_Wifi_BLE_SDK/GD32VW55x_RELEASE_V1.0.2/MSDK/plf/riscv/env\handlers.c **** 
 1048              		.loc 1 471 5 is_stmt 1
 1049 008c 2685     		mv	a0,s1
 1050 008e 97000000 		call	Exception_DumpFrame
 1050      E7800000 
 1051              	.LVL119:
 475:C:/Users/stapi/OneDrive/Desktop/GD32VW553/V1_MQTT_OK/GD32VW55X_Wifi_BLE_SDK/GD32VW55x_RELEASE_V1.0.2/MSDK/plf/riscv/env\handlers.c ****         print_reg("SP     :      0x", 16, sp);
 1052              		.loc 1 475 5
 1053              	.LBB45:
 475:C:/Users/stapi/OneDrive/Desktop/GD32VW553/V1_MQTT_OK/GD32VW55X_Wifi_BLE_SDK/GD32VW55x_RELEASE_V1.0.2/MSDK/plf/riscv/env\handlers.c ****         print_reg("SP     :      0x", 16, sp);
 1054              		.loc 1 475 23
 475:C:/Users/stapi/OneDrive/Desktop/GD32VW553/V1_MQTT_OK/GD32VW55X_Wifi_BLE_SDK/GD32VW55x_RELEASE_V1.0.2/MSDK/plf/riscv/env\handlers.c ****         print_reg("SP     :      0x", 16, sp);
 1055              		.loc 1 475 23
 1056              	 #APP
 1057              	# 475 "C:/Users/stapi/OneDrive/Desktop/GD32VW553/V1_MQTT_OK/GD32VW55X_Wifi_BLE_SDK/GD32VW55x_RELEAS
 1058              		csrr a5, 0x7C4
 1059              	# 0 "" 2
 1060              	.LVL120:
 475:C:/Users/stapi/OneDrive/Desktop/GD32VW553/V1_MQTT_OK/GD32VW55X_Wifi_BLE_SDK/GD32VW55x_RELEASE_V1.0.2/MSDK/plf/riscv/env\handlers.c ****         print_reg("SP     :      0x", 16, sp);
 1061              		.loc 1 475 23
 1062              	 #NO_APP
 1063              	.LBE45:
 475:C:/Users/stapi/OneDrive/Desktop/GD32VW553/V1_MQTT_OK/GD32VW55X_Wifi_BLE_SDK/GD32VW55x_RELEASE_V1.0.2/MSDK/plf/riscv/env\handlers.c ****         print_reg("SP     :      0x", 16, sp);
 1064              		.loc 1 475 21 is_stmt 0
 1065 009a 93F70730 		andi	a5,a5,768
 1066              	.LVL121:
 475:C:/Users/stapi/OneDrive/Desktop/GD32VW553/V1_MQTT_OK/GD32VW55X_Wifi_BLE_SDK/GD32VW55x_RELEASE_V1.0.2/MSDK/plf/riscv/env\handlers.c ****         print_reg("SP     :      0x", 16, sp);
 1067              		.loc 1 475 8
 1068 009e 639E072E 		bne	a5,zero,.L53
 476:C:/Users/stapi/OneDrive/Desktop/GD32VW553/V1_MQTT_OK/GD32VW55X_Wifi_BLE_SDK/GD32VW55x_RELEASE_V1.0.2/MSDK/plf/riscv/env\handlers.c ****         xCurrentTaskDumpInfo(sp);
 1069              		.loc 1 476 9 is_stmt 1
 1070 00a2 37050000 		lui	a0,%hi(.LC29)
 1071 00a6 13050500 		addi	a0,a0,%lo(.LC29)
 1072 00aa 2686     		mv	a2,s1
 1073 00ac C145     		li	a1,16
 1074 00ae 97000000 		call	print_reg
 1074      E7800000 
 1075              	.LVL122:
 477:C:/Users/stapi/OneDrive/Desktop/GD32VW553/V1_MQTT_OK/GD32VW55X_Wifi_BLE_SDK/GD32VW55x_RELEASE_V1.0.2/MSDK/plf/riscv/env\handlers.c ****     }
 1076              		.loc 1 477 9
 1077 00b6 2685     		mv	a0,s1
 1078 00b8 97000000 		call	xCurrentTaskDumpInfo
 1078      E7800000 
 1079              	.LVL123:
 1080              	.L54:
 497:C:/Users/stapi/OneDrive/Desktop/GD32VW553/V1_MQTT_OK/GD32VW55X_Wifi_BLE_SDK/GD32VW55x_RELEASE_V1.0.2/MSDK/plf/riscv/env\handlers.c **** 
 1081              		.loc 1 497 5
 1082 00c0 37090000 		lui	s2,%hi(.LC31)
 1083 00c4 93050003 		li	a1,48
 1084 00c8 13050900 		addi	a0,s2,%lo(.LC31)
 1085 00cc 97000000 		call	log_uart_put_data
 1085      E7800000 
 1086              	.LVL124:
 500:C:/Users/stapi/OneDrive/Desktop/GD32VW553/V1_MQTT_OK/GD32VW55X_Wifi_BLE_SDK/GD32VW55x_RELEASE_V1.0.2/MSDK/plf/riscv/env\handlers.c **** #endif
 1087              		.loc 1 500 5
 1088              	.LBB46:
 1089              	.LBB47:
 359:C:/Users/stapi/OneDrive/Desktop/GD32VW553/V1_MQTT_OK/GD32VW55X_Wifi_BLE_SDK/GD32VW55x_RELEASE_V1.0.2/MSDK/plf/riscv/env\handlers.c ****     uint32_t reg_val = 0;
 1090              		.loc 1 359 5
 360:C:/Users/stapi/OneDrive/Desktop/GD32VW553/V1_MQTT_OK/GD32VW55X_Wifi_BLE_SDK/GD32VW55x_RELEASE_V1.0.2/MSDK/plf/riscv/env\handlers.c ****     uint32_t offset = WR_REGION_SPAGE;
 1091              		.loc 1 360 5
 363:C:/Users/stapi/OneDrive/Desktop/GD32VW553/V1_MQTT_OK/GD32VW55X_Wifi_BLE_SDK/GD32VW55x_RELEASE_V1.0.2/MSDK/plf/riscv/env\handlers.c ****         return;
 1092              		.loc 1 363 9 is_stmt 0
 1093 00d4 8565     		li	a1,4096
 1094 00d6 37E53F00 		li	a0,4186112
 360:C:/Users/stapi/OneDrive/Desktop/GD32VW553/V1_MQTT_OK/GD32VW55X_Wifi_BLE_SDK/GD32VW55x_RELEASE_V1.0.2/MSDK/plf/riscv/env\handlers.c ****     uint32_t offset = WR_REGION_SPAGE;
 1095              		.loc 1 360 14
 1096 00da 02D0     		sw	zero,32(sp)
 361:C:/Users/stapi/OneDrive/Desktop/GD32VW553/V1_MQTT_OK/GD32VW55X_Wifi_BLE_SDK/GD32VW55x_RELEASE_V1.0.2/MSDK/plf/riscv/env\handlers.c **** 
 1097              		.loc 1 361 5 is_stmt 1
 1098              	.LVL125:
 363:C:/Users/stapi/OneDrive/Desktop/GD32VW553/V1_MQTT_OK/GD32VW55X_Wifi_BLE_SDK/GD32VW55x_RELEASE_V1.0.2/MSDK/plf/riscv/env\handlers.c ****         return;
 1099              		.loc 1 363 5
 363:C:/Users/stapi/OneDrive/Desktop/GD32VW553/V1_MQTT_OK/GD32VW55X_Wifi_BLE_SDK/GD32VW55x_RELEASE_V1.0.2/MSDK/plf/riscv/env\handlers.c ****         return;
 1100              		.loc 1 363 9 is_stmt 0
 1101 00dc 97000000 		call	raw_flash_erase
 1101      E7800000 
 1102              	.LVL126:
 363:C:/Users/stapi/OneDrive/Desktop/GD32VW553/V1_MQTT_OK/GD32VW55X_Wifi_BLE_SDK/GD32VW55x_RELEASE_V1.0.2/MSDK/plf/riscv/env\handlers.c ****         return;
 1103              		.loc 1 363 8
 1104 00e4 75ED     		bne	a0,zero,.L56
 366:C:/Users/stapi/OneDrive/Desktop/GD32VW553/V1_MQTT_OK/GD32VW55X_Wifi_BLE_SDK/GD32VW55x_RELEASE_V1.0.2/MSDK/plf/riscv/env\handlers.c ****     prefix[1] = 0;
 1105              		.loc 1 366 5 is_stmt 1
 367:C:/Users/stapi/OneDrive/Desktop/GD32VW553/V1_MQTT_OK/GD32VW55X_Wifi_BLE_SDK/GD32VW55x_RELEASE_V1.0.2/MSDK/plf/riscv/env\handlers.c ****     prefix[2] = 0x01;   //register value
 1106              		.loc 1 367 5
 368:C:/Users/stapi/OneDrive/Desktop/GD32VW553/V1_MQTT_OK/GD32VW55X_Wifi_BLE_SDK/GD32VW55x_RELEASE_V1.0.2/MSDK/plf/riscv/env\handlers.c ****     raw_flash_write(offset, (void *)&prefix, 3);
 1107              		.loc 1 368 5
 366:C:/Users/stapi/OneDrive/Desktop/GD32VW553/V1_MQTT_OK/GD32VW55X_Wifi_BLE_SDK/GD32VW55x_RELEASE_V1.0.2/MSDK/plf/riscv/env\handlers.c ****     prefix[1] = 0;
 1108              		.loc 1 366 15 is_stmt 0
 1109 00e6 D147     		li	a5,20
 1110 00e8 231CF100 		sh	a5,24(sp)
 369:C:/Users/stapi/OneDrive/Desktop/GD32VW553/V1_MQTT_OK/GD32VW55X_Wifi_BLE_SDK/GD32VW55x_RELEASE_V1.0.2/MSDK/plf/riscv/env\handlers.c ****     offset += 3;
 1111              		.loc 1 369 5
 1112 00ec 0D46     		li	a2,3
 368:C:/Users/stapi/OneDrive/Desktop/GD32VW553/V1_MQTT_OK/GD32VW55X_Wifi_BLE_SDK/GD32VW55x_RELEASE_V1.0.2/MSDK/plf/riscv/env\handlers.c ****     raw_flash_write(offset, (void *)&prefix, 3);
 1113              		.loc 1 368 15
 1114 00ee 8547     		li	a5,1
 369:C:/Users/stapi/OneDrive/Desktop/GD32VW553/V1_MQTT_OK/GD32VW55X_Wifi_BLE_SDK/GD32VW55x_RELEASE_V1.0.2/MSDK/plf/riscv/env\handlers.c ****     offset += 3;
 1115              		.loc 1 369 5
 1116 00f0 2C08     		addi	a1,sp,24
 1117 00f2 37E53F00 		li	a0,4186112
 368:C:/Users/stapi/OneDrive/Desktop/GD32VW553/V1_MQTT_OK/GD32VW55X_Wifi_BLE_SDK/GD32VW55x_RELEASE_V1.0.2/MSDK/plf/riscv/env\handlers.c ****     raw_flash_write(offset, (void *)&prefix, 3);
 1118              		.loc 1 368 15
 1119 00f6 230DF100 		sb	a5,26(sp)
 369:C:/Users/stapi/OneDrive/Desktop/GD32VW553/V1_MQTT_OK/GD32VW55X_Wifi_BLE_SDK/GD32VW55x_RELEASE_V1.0.2/MSDK/plf/riscv/env\handlers.c ****     offset += 3;
 1120              		.loc 1 369 5 is_stmt 1
 1121 00fa 97000000 		call	raw_flash_write
 1121      E7800000 
 1122              	.LVL127:
 370:C:/Users/stapi/OneDrive/Desktop/GD32VW553/V1_MQTT_OK/GD32VW55X_Wifi_BLE_SDK/GD32VW55x_RELEASE_V1.0.2/MSDK/plf/riscv/env\handlers.c **** 
 1123              		.loc 1 370 5
 372:C:/Users/stapi/OneDrive/Desktop/GD32VW553/V1_MQTT_OK/GD32VW55X_Wifi_BLE_SDK/GD32VW55x_RELEASE_V1.0.2/MSDK/plf/riscv/env\handlers.c ****     raw_flash_write(offset, (void *)&reg_val, 4);
 1124              		.loc 1 372 5
 1125              	.LBB48:
 372:C:/Users/stapi/OneDrive/Desktop/GD32VW553/V1_MQTT_OK/GD32VW55X_Wifi_BLE_SDK/GD32VW55x_RELEASE_V1.0.2/MSDK/plf/riscv/env\handlers.c ****     raw_flash_write(offset, (void *)&reg_val, 4);
 1126              		.loc 1 372 15
 372:C:/Users/stapi/OneDrive/Desktop/GD32VW553/V1_MQTT_OK/GD32VW55X_Wifi_BLE_SDK/GD32VW55x_RELEASE_V1.0.2/MSDK/plf/riscv/env\handlers.c ****     raw_flash_write(offset, (void *)&reg_val, 4);
 1127              		.loc 1 372 15
 1128              	 #APP
 1129              	# 372 "C:/Users/stapi/OneDrive/Desktop/GD32VW553/V1_MQTT_OK/GD32VW55X_Wifi_BLE_SDK/GD32VW55x_RELEAS
 1130              		csrr a5, 0x342
 1131              	# 0 "" 2
 1132              	.LVL128:
 372:C:/Users/stapi/OneDrive/Desktop/GD32VW553/V1_MQTT_OK/GD32VW55X_Wifi_BLE_SDK/GD32VW55x_RELEASE_V1.0.2/MSDK/plf/riscv/env\handlers.c ****     raw_flash_write(offset, (void *)&reg_val, 4);
 1133              		.loc 1 372 15
 1134              	 #NO_APP
 1135              	.LBE48:
 373:C:/Users/stapi/OneDrive/Desktop/GD32VW553/V1_MQTT_OK/GD32VW55X_Wifi_BLE_SDK/GD32VW55x_RELEASE_V1.0.2/MSDK/plf/riscv/env\handlers.c ****     offset += 4;
 1136              		.loc 1 373 5 is_stmt 0
 1137 0106 B7E93F00 		li	s3,4186112
 1138 010a 1146     		li	a2,4
 1139 010c 0C10     		addi	a1,sp,32
 1140 010e 13853900 		addi	a0,s3,3
 372:C:/Users/stapi/OneDrive/Desktop/GD32VW553/V1_MQTT_OK/GD32VW55X_Wifi_BLE_SDK/GD32VW55x_RELEASE_V1.0.2/MSDK/plf/riscv/env\handlers.c ****     raw_flash_write(offset, (void *)&reg_val, 4);
 1141              		.loc 1 372 13
 1142 0112 3ED0     		sw	a5,32(sp)
 373:C:/Users/stapi/OneDrive/Desktop/GD32VW553/V1_MQTT_OK/GD32VW55X_Wifi_BLE_SDK/GD32VW55x_RELEASE_V1.0.2/MSDK/plf/riscv/env\handlers.c ****     offset += 4;
 1143              		.loc 1 373 5 is_stmt 1
 1144 0114 97000000 		call	raw_flash_write
 1144      E7800000 
 1145              	.LVL129:
 374:C:/Users/stapi/OneDrive/Desktop/GD32VW553/V1_MQTT_OK/GD32VW55X_Wifi_BLE_SDK/GD32VW55x_RELEASE_V1.0.2/MSDK/plf/riscv/env\handlers.c **** 
 1146              		.loc 1 374 5
 376:C:/Users/stapi/OneDrive/Desktop/GD32VW553/V1_MQTT_OK/GD32VW55X_Wifi_BLE_SDK/GD32VW55x_RELEASE_V1.0.2/MSDK/plf/riscv/env\handlers.c ****     raw_flash_write(offset, (void *)&reg_val, 4);
 1147              		.loc 1 376 5
 1148              	.LBB49:
 376:C:/Users/stapi/OneDrive/Desktop/GD32VW553/V1_MQTT_OK/GD32VW55X_Wifi_BLE_SDK/GD32VW55x_RELEASE_V1.0.2/MSDK/plf/riscv/env\handlers.c ****     raw_flash_write(offset, (void *)&reg_val, 4);
 1149              		.loc 1 376 15
 376:C:/Users/stapi/OneDrive/Desktop/GD32VW553/V1_MQTT_OK/GD32VW55X_Wifi_BLE_SDK/GD32VW55x_RELEASE_V1.0.2/MSDK/plf/riscv/env\handlers.c ****     raw_flash_write(offset, (void *)&reg_val, 4);
 1150              		.loc 1 376 15
 1151              	 #APP
 1152              	# 376 "C:/Users/stapi/OneDrive/Desktop/GD32VW553/V1_MQTT_OK/GD32VW55X_Wifi_BLE_SDK/GD32VW55x_RELEAS
 1153              		csrr a5, 0x7C9
 1154              	# 0 "" 2
 1155              	.LVL130:
 376:C:/Users/stapi/OneDrive/Desktop/GD32VW553/V1_MQTT_OK/GD32VW55X_Wifi_BLE_SDK/GD32VW55x_RELEASE_V1.0.2/MSDK/plf/riscv/env\handlers.c ****     raw_flash_write(offset, (void *)&reg_val, 4);
 1156              		.loc 1 376 15
 1157              	 #NO_APP
 1158              	.LBE49:
 377:C:/Users/stapi/OneDrive/Desktop/GD32VW553/V1_MQTT_OK/GD32VW55X_Wifi_BLE_SDK/GD32VW55x_RELEASE_V1.0.2/MSDK/plf/riscv/env\handlers.c ****     offset += 4;
 1159              		.loc 1 377 5 is_stmt 0
 1160 0120 1146     		li	a2,4
 1161 0122 0C10     		addi	a1,sp,32
 1162 0124 13857900 		addi	a0,s3,7
 376:C:/Users/stapi/OneDrive/Desktop/GD32VW553/V1_MQTT_OK/GD32VW55X_Wifi_BLE_SDK/GD32VW55x_RELEASE_V1.0.2/MSDK/plf/riscv/env\handlers.c ****     raw_flash_write(offset, (void *)&reg_val, 4);
 1163              		.loc 1 376 13
 1164 0128 3ED0     		sw	a5,32(sp)
 377:C:/Users/stapi/OneDrive/Desktop/GD32VW553/V1_MQTT_OK/GD32VW55X_Wifi_BLE_SDK/GD32VW55x_RELEASE_V1.0.2/MSDK/plf/riscv/env\handlers.c ****     offset += 4;
 1165              		.loc 1 377 5 is_stmt 1
 1166 012a 97000000 		call	raw_flash_write
 1166      E7800000 
 1167              	.LVL131:
 378:C:/Users/stapi/OneDrive/Desktop/GD32VW553/V1_MQTT_OK/GD32VW55X_Wifi_BLE_SDK/GD32VW55x_RELEASE_V1.0.2/MSDK/plf/riscv/env\handlers.c **** 
 1168              		.loc 1 378 5
 380:C:/Users/stapi/OneDrive/Desktop/GD32VW553/V1_MQTT_OK/GD32VW55X_Wifi_BLE_SDK/GD32VW55x_RELEASE_V1.0.2/MSDK/plf/riscv/env\handlers.c ****     raw_flash_write(offset, (void *)&reg_val, 4);
 1169              		.loc 1 380 5
 1170              	.LBB50:
 380:C:/Users/stapi/OneDrive/Desktop/GD32VW553/V1_MQTT_OK/GD32VW55X_Wifi_BLE_SDK/GD32VW55x_RELEASE_V1.0.2/MSDK/plf/riscv/env\handlers.c ****     raw_flash_write(offset, (void *)&reg_val, 4);
 1171              		.loc 1 380 15
 380:C:/Users/stapi/OneDrive/Desktop/GD32VW553/V1_MQTT_OK/GD32VW55X_Wifi_BLE_SDK/GD32VW55x_RELEASE_V1.0.2/MSDK/plf/riscv/env\handlers.c ****     raw_flash_write(offset, (void *)&reg_val, 4);
 1172              		.loc 1 380 15
 1173              	 #APP
 1174              	# 380 "C:/Users/stapi/OneDrive/Desktop/GD32VW553/V1_MQTT_OK/GD32VW55X_Wifi_BLE_SDK/GD32VW55x_RELEAS
 1175              		csrr a5, 0x341
 1176              	# 0 "" 2
 1177              	.LVL132:
 380:C:/Users/stapi/OneDrive/Desktop/GD32VW553/V1_MQTT_OK/GD32VW55X_Wifi_BLE_SDK/GD32VW55x_RELEASE_V1.0.2/MSDK/plf/riscv/env\handlers.c ****     raw_flash_write(offset, (void *)&reg_val, 4);
 1178              		.loc 1 380 15
 1179              	 #NO_APP
 1180              	.LBE50:
 381:C:/Users/stapi/OneDrive/Desktop/GD32VW553/V1_MQTT_OK/GD32VW55X_Wifi_BLE_SDK/GD32VW55x_RELEASE_V1.0.2/MSDK/plf/riscv/env\handlers.c ****     offset += 4;
 1181              		.loc 1 381 5 is_stmt 0
 1182 0136 1146     		li	a2,4
 1183 0138 0C10     		addi	a1,sp,32
 1184 013a 1385B900 		addi	a0,s3,11
 380:C:/Users/stapi/OneDrive/Desktop/GD32VW553/V1_MQTT_OK/GD32VW55X_Wifi_BLE_SDK/GD32VW55x_RELEASE_V1.0.2/MSDK/plf/riscv/env\handlers.c ****     raw_flash_write(offset, (void *)&reg_val, 4);
 1185              		.loc 1 380 13
 1186 013e 3ED0     		sw	a5,32(sp)
 381:C:/Users/stapi/OneDrive/Desktop/GD32VW553/V1_MQTT_OK/GD32VW55X_Wifi_BLE_SDK/GD32VW55x_RELEASE_V1.0.2/MSDK/plf/riscv/env\handlers.c ****     offset += 4;
 1187              		.loc 1 381 5 is_stmt 1
 1188 0140 97000000 		call	raw_flash_write
 1188      E7800000 
 1189              	.LVL133:
 382:C:/Users/stapi/OneDrive/Desktop/GD32VW553/V1_MQTT_OK/GD32VW55X_Wifi_BLE_SDK/GD32VW55x_RELEASE_V1.0.2/MSDK/plf/riscv/env\handlers.c **** 
 1190              		.loc 1 382 5
 384:C:/Users/stapi/OneDrive/Desktop/GD32VW553/V1_MQTT_OK/GD32VW55X_Wifi_BLE_SDK/GD32VW55x_RELEASE_V1.0.2/MSDK/plf/riscv/env\handlers.c ****     raw_flash_write(offset, (void *)&reg_val, 4);
 1191              		.loc 1 384 5
 1192              	.LBB51:
 384:C:/Users/stapi/OneDrive/Desktop/GD32VW553/V1_MQTT_OK/GD32VW55X_Wifi_BLE_SDK/GD32VW55x_RELEASE_V1.0.2/MSDK/plf/riscv/env\handlers.c ****     raw_flash_write(offset, (void *)&reg_val, 4);
 1193              		.loc 1 384 15
 384:C:/Users/stapi/OneDrive/Desktop/GD32VW553/V1_MQTT_OK/GD32VW55X_Wifi_BLE_SDK/GD32VW55x_RELEASE_V1.0.2/MSDK/plf/riscv/env\handlers.c ****     raw_flash_write(offset, (void *)&reg_val, 4);
 1194              		.loc 1 384 15
 1195              	 #APP
 1196              	# 384 "C:/Users/stapi/OneDrive/Desktop/GD32VW553/V1_MQTT_OK/GD32VW55X_Wifi_BLE_SDK/GD32VW55x_RELEAS
 1197              		csrr a5, 0x343
 1198              	# 0 "" 2
 1199              	.LVL134:
 384:C:/Users/stapi/OneDrive/Desktop/GD32VW553/V1_MQTT_OK/GD32VW55X_Wifi_BLE_SDK/GD32VW55x_RELEASE_V1.0.2/MSDK/plf/riscv/env\handlers.c ****     raw_flash_write(offset, (void *)&reg_val, 4);
 1200              		.loc 1 384 15
 1201              	 #NO_APP
 1202              	.LBE51:
 385:C:/Users/stapi/OneDrive/Desktop/GD32VW553/V1_MQTT_OK/GD32VW55X_Wifi_BLE_SDK/GD32VW55x_RELEASE_V1.0.2/MSDK/plf/riscv/env\handlers.c ****     offset += 4;
 1203              		.loc 1 385 5 is_stmt 0
 1204 014c 1146     		li	a2,4
 1205 014e 0C10     		addi	a1,sp,32
 1206 0150 1385F900 		addi	a0,s3,15
 384:C:/Users/stapi/OneDrive/Desktop/GD32VW553/V1_MQTT_OK/GD32VW55X_Wifi_BLE_SDK/GD32VW55x_RELEASE_V1.0.2/MSDK/plf/riscv/env\handlers.c ****     raw_flash_write(offset, (void *)&reg_val, 4);
 1207              		.loc 1 384 13
 1208 0154 3ED0     		sw	a5,32(sp)
 385:C:/Users/stapi/OneDrive/Desktop/GD32VW553/V1_MQTT_OK/GD32VW55X_Wifi_BLE_SDK/GD32VW55x_RELEASE_V1.0.2/MSDK/plf/riscv/env\handlers.c ****     offset += 4;
 1209              		.loc 1 385 5 is_stmt 1
 1210 0156 97000000 		call	raw_flash_write
 1210      E7800000 
 1211              	.LVL135:
 386:C:/Users/stapi/OneDrive/Desktop/GD32VW553/V1_MQTT_OK/GD32VW55X_Wifi_BLE_SDK/GD32VW55x_RELEASE_V1.0.2/MSDK/plf/riscv/env\handlers.c **** 
 1212              		.loc 1 386 5
 388:C:/Users/stapi/OneDrive/Desktop/GD32VW553/V1_MQTT_OK/GD32VW55X_Wifi_BLE_SDK/GD32VW55x_RELEASE_V1.0.2/MSDK/plf/riscv/env\handlers.c ****     raw_flash_write(offset, (void *)&reg_val, 4);
 1213              		.loc 1 388 5
 1214              	.LBB52:
 388:C:/Users/stapi/OneDrive/Desktop/GD32VW553/V1_MQTT_OK/GD32VW55X_Wifi_BLE_SDK/GD32VW55x_RELEASE_V1.0.2/MSDK/plf/riscv/env\handlers.c ****     raw_flash_write(offset, (void *)&reg_val, 4);
 1215              		.loc 1 388 15
 388:C:/Users/stapi/OneDrive/Desktop/GD32VW553/V1_MQTT_OK/GD32VW55X_Wifi_BLE_SDK/GD32VW55x_RELEASE_V1.0.2/MSDK/plf/riscv/env\handlers.c ****     raw_flash_write(offset, (void *)&reg_val, 4);
 1216              		.loc 1 388 15
 1217              	 #APP
 1218              	# 388 "C:/Users/stapi/OneDrive/Desktop/GD32VW553/V1_MQTT_OK/GD32VW55X_Wifi_BLE_SDK/GD32VW55x_RELEAS
 1219              		csrr a5, 0x7C4
 1220              	# 0 "" 2
 1221              	.LVL136:
 388:C:/Users/stapi/OneDrive/Desktop/GD32VW553/V1_MQTT_OK/GD32VW55X_Wifi_BLE_SDK/GD32VW55x_RELEASE_V1.0.2/MSDK/plf/riscv/env\handlers.c ****     raw_flash_write(offset, (void *)&reg_val, 4);
 1222              		.loc 1 388 15
 1223              	 #NO_APP
 1224              	.LBE52:
 389:C:/Users/stapi/OneDrive/Desktop/GD32VW553/V1_MQTT_OK/GD32VW55X_Wifi_BLE_SDK/GD32VW55x_RELEASE_V1.0.2/MSDK/plf/riscv/env\handlers.c ****     offset += 4;
 1225              		.loc 1 389 5 is_stmt 0
 1226 0162 1146     		li	a2,4
 1227 0164 0C10     		addi	a1,sp,32
 1228 0166 13853901 		addi	a0,s3,19
 388:C:/Users/stapi/OneDrive/Desktop/GD32VW553/V1_MQTT_OK/GD32VW55X_Wifi_BLE_SDK/GD32VW55x_RELEASE_V1.0.2/MSDK/plf/riscv/env\handlers.c ****     raw_flash_write(offset, (void *)&reg_val, 4);
 1229              		.loc 1 388 13
 1230 016a 3ED0     		sw	a5,32(sp)
 389:C:/Users/stapi/OneDrive/Desktop/GD32VW553/V1_MQTT_OK/GD32VW55X_Wifi_BLE_SDK/GD32VW55x_RELEASE_V1.0.2/MSDK/plf/riscv/env\handlers.c ****     offset += 4;
 1231              		.loc 1 389 5 is_stmt 1
 1232 016c 97000000 		call	raw_flash_write
 1232      E7800000 
 1233              	.LVL137:
 390:C:/Users/stapi/OneDrive/Desktop/GD32VW553/V1_MQTT_OK/GD32VW55X_Wifi_BLE_SDK/GD32VW55x_RELEASE_V1.0.2/MSDK/plf/riscv/env\handlers.c **** 
 1234              		.loc 1 390 5
 392:C:/Users/stapi/OneDrive/Desktop/GD32VW553/V1_MQTT_OK/GD32VW55X_Wifi_BLE_SDK/GD32VW55x_RELEASE_V1.0.2/MSDK/plf/riscv/env\handlers.c ****     // Trap from task
 1235              		.loc 1 392 5
 392:C:/Users/stapi/OneDrive/Desktop/GD32VW553/V1_MQTT_OK/GD32VW55X_Wifi_BLE_SDK/GD32VW55x_RELEASE_V1.0.2/MSDK/plf/riscv/env\handlers.c ****     // Trap from task
 1236              		.loc 1 392 15 is_stmt 0
 1237 0174 8947     		li	a5,2
 1238 0176 230DF100 		sb	a5,26(sp)
 394:C:/Users/stapi/OneDrive/Desktop/GD32VW553/V1_MQTT_OK/GD32VW55X_Wifi_BLE_SDK/GD32VW55x_RELEASE_V1.0.2/MSDK/plf/riscv/env\handlers.c ****         int32_t num = sys_current_task_stack_depth(sp);
 1239              		.loc 1 394 5 is_stmt 1
 1240              	.LBB53:
 394:C:/Users/stapi/OneDrive/Desktop/GD32VW553/V1_MQTT_OK/GD32VW55X_Wifi_BLE_SDK/GD32VW55x_RELEASE_V1.0.2/MSDK/plf/riscv/env\handlers.c ****         int32_t num = sys_current_task_stack_depth(sp);
 1241              		.loc 1 394 23
 394:C:/Users/stapi/OneDrive/Desktop/GD32VW553/V1_MQTT_OK/GD32VW55X_Wifi_BLE_SDK/GD32VW55x_RELEASE_V1.0.2/MSDK/plf/riscv/env\handlers.c ****         int32_t num = sys_current_task_stack_depth(sp);
 1242              		.loc 1 394 23
 1243              	 #APP
 1244              	# 394 "C:/Users/stapi/OneDrive/Desktop/GD32VW553/V1_MQTT_OK/GD32VW55X_Wifi_BLE_SDK/GD32VW55x_RELEAS
 1245              		csrr a5, 0x7C4
 1246              	# 0 "" 2
 1247              	.LVL138:
 394:C:/Users/stapi/OneDrive/Desktop/GD32VW553/V1_MQTT_OK/GD32VW55X_Wifi_BLE_SDK/GD32VW55x_RELEASE_V1.0.2/MSDK/plf/riscv/env\handlers.c ****         int32_t num = sys_current_task_stack_depth(sp);
 1248              		.loc 1 394 23
 1249              	 #NO_APP
 1250              	.LBE53:
 394:C:/Users/stapi/OneDrive/Desktop/GD32VW553/V1_MQTT_OK/GD32VW55X_Wifi_BLE_SDK/GD32VW55x_RELEASE_V1.0.2/MSDK/plf/riscv/env\handlers.c ****         int32_t num = sys_current_task_stack_depth(sp);
 1251              		.loc 1 394 21 is_stmt 0
 1252 017e 93F70730 		andi	a5,a5,768
 1253              	.LVL139:
 394:C:/Users/stapi/OneDrive/Desktop/GD32VW553/V1_MQTT_OK/GD32VW55X_Wifi_BLE_SDK/GD32VW55x_RELEASE_V1.0.2/MSDK/plf/riscv/env\handlers.c ****         int32_t num = sys_current_task_stack_depth(sp);
 1254              		.loc 1 394 8
 1255 0182 639B0726 		bne	a5,zero,.L57
 1256              	.LBB54:
 395:C:/Users/stapi/OneDrive/Desktop/GD32VW553/V1_MQTT_OK/GD32VW55X_Wifi_BLE_SDK/GD32VW55x_RELEASE_V1.0.2/MSDK/plf/riscv/env\handlers.c ****         if ((offset + num + 6) > WR_REGION_EPAGE) {
 1257              		.loc 1 395 9 is_stmt 1
 395:C:/Users/stapi/OneDrive/Desktop/GD32VW553/V1_MQTT_OK/GD32VW55X_Wifi_BLE_SDK/GD32VW55x_RELEASE_V1.0.2/MSDK/plf/riscv/env\handlers.c ****         if ((offset + num + 6) > WR_REGION_EPAGE) {
 1258              		.loc 1 395 23 is_stmt 0
 1259 0186 2685     		mv	a0,s1
 1260 0188 97000000 		call	sys_current_task_stack_depth
 1260      E7800000 
 1261              	.LVL140:
 396:C:/Users/stapi/OneDrive/Desktop/GD32VW553/V1_MQTT_OK/GD32VW55X_Wifi_BLE_SDK/GD32VW55x_RELEASE_V1.0.2/MSDK/plf/riscv/env\handlers.c ****             num = WR_REGION_EPAGE - offset - 6;
 1262              		.loc 1 396 27
 1263 0190 F509     		addi	s3,s3,29
 1264 0192 AA99     		add	s3,a0,s3
 396:C:/Users/stapi/OneDrive/Desktop/GD32VW553/V1_MQTT_OK/GD32VW55X_Wifi_BLE_SDK/GD32VW55x_RELEASE_V1.0.2/MSDK/plf/riscv/env\handlers.c ****             num = WR_REGION_EPAGE - offset - 6;
 1265              		.loc 1 396 12
 1266 0194 B7F73F00 		li	a5,4190208
 395:C:/Users/stapi/OneDrive/Desktop/GD32VW553/V1_MQTT_OK/GD32VW55X_Wifi_BLE_SDK/GD32VW55x_RELEASE_V1.0.2/MSDK/plf/riscv/env\handlers.c ****         if ((offset + num + 6) > WR_REGION_EPAGE) {
 1267              		.loc 1 395 23
 1268 0198 2A84     		mv	s0,a0
 1269              	.LVL141:
 396:C:/Users/stapi/OneDrive/Desktop/GD32VW553/V1_MQTT_OK/GD32VW55X_Wifi_BLE_SDK/GD32VW55x_RELEASE_V1.0.2/MSDK/plf/riscv/env\handlers.c ****             num = WR_REGION_EPAGE - offset - 6;
 1270              		.loc 1 396 9 is_stmt 1
 396:C:/Users/stapi/OneDrive/Desktop/GD32VW553/V1_MQTT_OK/GD32VW55X_Wifi_BLE_SDK/GD32VW55x_RELEASE_V1.0.2/MSDK/plf/riscv/env\handlers.c ****             num = WR_REGION_EPAGE - offset - 6;
 1271              		.loc 1 396 12 is_stmt 0
 1272 019a 63F43701 		bleu	s3,a5,.L58
 397:C:/Users/stapi/OneDrive/Desktop/GD32VW553/V1_MQTT_OK/GD32VW55X_Wifi_BLE_SDK/GD32VW55x_RELEASE_V1.0.2/MSDK/plf/riscv/env\handlers.c ****         }
 1273              		.loc 1 397 17
 1274 019e 0564     		li	s0,4096
 1275              	.LVL142:
 1276 01a0 0D14     		addi	s0,s0,-29
 1277              	.L58:
 1278              	.LVL143:
 399:C:/Users/stapi/OneDrive/Desktop/GD32VW553/V1_MQTT_OK/GD32VW55X_Wifi_BLE_SDK/GD32VW55x_RELEASE_V1.0.2/MSDK/plf/riscv/env\handlers.c ****         prefix[1] = (num >> 8) & 0xFF;
 1279              		.loc 1 399 9 is_stmt 1
 400:C:/Users/stapi/OneDrive/Desktop/GD32VW553/V1_MQTT_OK/GD32VW55X_Wifi_BLE_SDK/GD32VW55x_RELEASE_V1.0.2/MSDK/plf/riscv/env\handlers.c ****         raw_flash_write(offset, (void *)prefix, 3);
 1280              		.loc 1 400 9
 401:C:/Users/stapi/OneDrive/Desktop/GD32VW553/V1_MQTT_OK/GD32VW55X_Wifi_BLE_SDK/GD32VW55x_RELEASE_V1.0.2/MSDK/plf/riscv/env\handlers.c ****         offset += 3;
 1281              		.loc 1 401 9 is_stmt 0
 1282 01a2 B7E93F00 		li	s3,4186112
 1283 01a6 0D46     		li	a2,3
 1284 01a8 2C08     		addi	a1,sp,24
 1285 01aa 13857901 		addi	a0,s3,23
 399:C:/Users/stapi/OneDrive/Desktop/GD32VW553/V1_MQTT_OK/GD32VW55X_Wifi_BLE_SDK/GD32VW55x_RELEASE_V1.0.2/MSDK/plf/riscv/env\handlers.c ****         prefix[1] = (num >> 8) & 0xFF;
 1286              		.loc 1 399 19
 1287 01ae 231C8100 		sh	s0,24(sp)
 401:C:/Users/stapi/OneDrive/Desktop/GD32VW553/V1_MQTT_OK/GD32VW55X_Wifi_BLE_SDK/GD32VW55x_RELEASE_V1.0.2/MSDK/plf/riscv/env\handlers.c ****         offset += 3;
 1288              		.loc 1 401 9 is_stmt 1
 1289 01b2 97000000 		call	raw_flash_write
 1289      E7800000 
 1290              	.LVL144:
 402:C:/Users/stapi/OneDrive/Desktop/GD32VW553/V1_MQTT_OK/GD32VW55X_Wifi_BLE_SDK/GD32VW55x_RELEASE_V1.0.2/MSDK/plf/riscv/env\handlers.c ****         raw_flash_write(offset, (void *)sp, num);
 1291              		.loc 1 402 9
 403:C:/Users/stapi/OneDrive/Desktop/GD32VW553/V1_MQTT_OK/GD32VW55X_Wifi_BLE_SDK/GD32VW55x_RELEASE_V1.0.2/MSDK/plf/riscv/env\handlers.c ****         offset += num;
 1292              		.loc 1 403 9
 1293 01ba 2286     		mv	a2,s0
 1294 01bc A685     		mv	a1,s1
 1295 01be 1385A901 		addi	a0,s3,26
 1296 01c2 97000000 		call	raw_flash_write
 1296      E7800000 
 1297              	.LVL145:
 404:C:/Users/stapi/OneDrive/Desktop/GD32VW553/V1_MQTT_OK/GD32VW55X_Wifi_BLE_SDK/GD32VW55x_RELEASE_V1.0.2/MSDK/plf/riscv/env\handlers.c ****     }
 1298              		.loc 1 404 9
 404:C:/Users/stapi/OneDrive/Desktop/GD32VW553/V1_MQTT_OK/GD32VW55X_Wifi_BLE_SDK/GD32VW55x_RELEASE_V1.0.2/MSDK/plf/riscv/env\handlers.c ****     }
 1299              		.loc 1 404 16 is_stmt 0
 1300 01ca 1385A901 		addi	a0,s3,26
 1301              	.LVL146:
 1302              	.L115:
 1303              	.LBE54:
 1304              	.LBB55:
 436:C:/Users/stapi/OneDrive/Desktop/GD32VW553/V1_MQTT_OK/GD32VW55X_Wifi_BLE_SDK/GD32VW55x_RELEASE_V1.0.2/MSDK/plf/riscv/env\handlers.c ****     }
 1305              		.loc 1 436 16
 1306 01ce 2295     		add	a0,s0,a0
 1307              	.LVL147:
 1308              	.L59:
 1309              	.LBE55:
 439:C:/Users/stapi/OneDrive/Desktop/GD32VW553/V1_MQTT_OK/GD32VW55X_Wifi_BLE_SDK/GD32VW55x_RELEASE_V1.0.2/MSDK/plf/riscv/env\handlers.c ****     prefix[1] = 0;
 1310              		.loc 1 439 5 is_stmt 1
 440:C:/Users/stapi/OneDrive/Desktop/GD32VW553/V1_MQTT_OK/GD32VW55X_Wifi_BLE_SDK/GD32VW55x_RELEASE_V1.0.2/MSDK/plf/riscv/env\handlers.c ****     raw_flash_write(offset, (void *)&prefix, 3);
 1311              		.loc 1 440 5
 441:C:/Users/stapi/OneDrive/Desktop/GD32VW553/V1_MQTT_OK/GD32VW55X_Wifi_BLE_SDK/GD32VW55x_RELEASE_V1.0.2/MSDK/plf/riscv/env\handlers.c **** }
 1312              		.loc 1 441 5 is_stmt 0
 1313 01d0 0D46     		li	a2,3
 1314 01d2 2C08     		addi	a1,sp,24
 439:C:/Users/stapi/OneDrive/Desktop/GD32VW553/V1_MQTT_OK/GD32VW55X_Wifi_BLE_SDK/GD32VW55x_RELEASE_V1.0.2/MSDK/plf/riscv/env\handlers.c ****     prefix[1] = 0;
 1315              		.loc 1 439 15
 1316 01d4 231C0100 		sh	zero,24(sp)
 441:C:/Users/stapi/OneDrive/Desktop/GD32VW553/V1_MQTT_OK/GD32VW55X_Wifi_BLE_SDK/GD32VW55x_RELEASE_V1.0.2/MSDK/plf/riscv/env\handlers.c **** }
 1317              		.loc 1 441 5 is_stmt 1
 1318 01d8 97000000 		call	raw_flash_write
 1318      E7800000 
 1319              	.LVL148:
 1320              	.L56:
 1321              	.LBE47:
 1322              	.LBE46:
 504:C:/Users/stapi/OneDrive/Desktop/GD32VW553/V1_MQTT_OK/GD32VW55X_Wifi_BLE_SDK/GD32VW55x_RELEASE_V1.0.2/MSDK/plf/riscv/env\handlers.c ****     log_uart_put_data((const uint8_t *)"\r\n", strlen("\r\n"));
 1323              		.loc 1 504 5
 1324 01e0 F165     		li	a1,114688
 1325 01e2 37450040 		li	a0,1073758208
 1326 01e6 0147     		li	a4,0
 1327 01e8 8146     		li	a3,0
 1328 01ea 0146     		li	a2,0
 1329 01ec 93850520 		addi	a1,a1,512
 1330 01f0 13050540 		addi	a0,a0,1024
 1331 01f4 97000000 		call	uart_config
 1331      E7800000 
 1332              	.LVL149:
 505:C:/Users/stapi/OneDrive/Desktop/GD32VW553/V1_MQTT_OK/GD32VW55X_Wifi_BLE_SDK/GD32VW55x_RELEASE_V1.0.2/MSDK/plf/riscv/env\handlers.c ****     log_uart_put_data((const uint8_t *)"print help to get cmd\r\n", strlen("print help to get cmd\r
 1333              		.loc 1 505 5
 1334 01fc B7090000 		lui	s3,%hi(.LC0)
 1335 0200 8945     		li	a1,2
 1336 0202 13850900 		addi	a0,s3,%lo(.LC0)
 1337 0206 97000000 		call	log_uart_put_data
 1337      E7800000 
 1338              	.LVL150:
 506:C:/Users/stapi/OneDrive/Desktop/GD32VW553/V1_MQTT_OK/GD32VW55X_Wifi_BLE_SDK/GD32VW55x_RELEASE_V1.0.2/MSDK/plf/riscv/env\handlers.c ****     while (1) {
 1339              		.loc 1 506 5
 1340 020e 37050000 		lui	a0,%hi(.LC32)
 1341 0212 DD45     		li	a1,23
 1342 0214 13050500 		addi	a0,a0,%lo(.LC32)
 1343 0218 97000000 		call	log_uart_put_data
 1343      E7800000 
 1344              	.LVL151:
 1345              	.LBB60:
 1346              	.LBB61:
 216:C:/Users/stapi/OneDrive/Desktop/GD32VW553/V1_MQTT_OK/GD32VW55X_Wifi_BLE_SDK/GD32VW55x_RELEASE_V1.0.2/MSDK/plf/riscv/env\handlers.c ****     char cmdd[] = {'d', 'u', 'm', 'p'};
 1347              		.loc 1 216 10 is_stmt 0
 1348 0220 B77A656D 		li	s5,1835364352
 1349              	.LBE61:
 1350              	.LBE60:
 510:C:/Users/stapi/OneDrive/Desktop/GD32VW553/V1_MQTT_OK/GD32VW55X_Wifi_BLE_SDK/GD32VW55x_RELEASE_V1.0.2/MSDK/plf/riscv/env\handlers.c ****             usart_flag_clear(LOG_UART, USART_FLAG_ORERR);
 1351              		.loc 1 510 22
 1352 0224 B74C0040 		li	s9,1073758208
 1353              	.LBB76:
 1354              	.LBB71:
 216:C:/Users/stapi/OneDrive/Desktop/GD32VW553/V1_MQTT_OK/GD32VW55X_Wifi_BLE_SDK/GD32VW55x_RELEASE_V1.0.2/MSDK/plf/riscv/env\handlers.c ****     char cmdd[] = {'d', 'u', 'm', 'p'};
 1355              		.loc 1 216 10
 1356 0228 93872AD7 		addi	a5,s5,-654
 217:C:/Users/stapi/OneDrive/Desktop/GD32VW553/V1_MQTT_OK/GD32VW55X_Wifi_BLE_SDK/GD32VW55x_RELEASE_V1.0.2/MSDK/plf/riscv/env\handlers.c ****     char cmdh[] = {'h', 'e', 'l', 'p'};
 1357              		.loc 1 217 10
 1358 022c 377B6D70 		li	s6,1886220288
 1359              	.LBB62:
 262:C:/Users/stapi/OneDrive/Desktop/GD32VW553/V1_MQTT_OK/GD32VW55X_Wifi_BLE_SDK/GD32VW55x_RELEASE_V1.0.2/MSDK/plf/riscv/env\handlers.c ****                     dumpStackInfo(int_sp, num);
 1360              		.loc 1 262 41
 1361 0230 B70B0000 		lui	s7,%hi(_sp)
 1362              	.LBE62:
 1363              	.LBE71:
 1364              	.LBE76:
 462:C:/Users/stapi/OneDrive/Desktop/GD32VW553/V1_MQTT_OK/GD32VW55X_Wifi_BLE_SDK/GD32VW55x_RELEASE_V1.0.2/MSDK/plf/riscv/env\handlers.c **** 
 1365              		.loc 1 462 13
 1366 0234 0144     		li	s0,0
 510:C:/Users/stapi/OneDrive/Desktop/GD32VW553/V1_MQTT_OK/GD32VW55X_Wifi_BLE_SDK/GD32VW55x_RELEASE_V1.0.2/MSDK/plf/riscv/env\handlers.c ****             usart_flag_clear(LOG_UART, USART_FLAG_ORERR);
 1367              		.loc 1 510 22
 1368 0236 138A0C40 		addi	s4,s9,1024
 1369              	.LBB77:
 1370              	.LBB72:
 216:C:/Users/stapi/OneDrive/Desktop/GD32VW553/V1_MQTT_OK/GD32VW55X_Wifi_BLE_SDK/GD32VW55x_RELEASE_V1.0.2/MSDK/plf/riscv/env\handlers.c ****     char cmdd[] = {'d', 'u', 'm', 'p'};
 1371              		.loc 1 216 10
 1372 023a 3EC6     		sw	a5,12(sp)
 1373              	.LVL152:
 217:C:/Users/stapi/OneDrive/Desktop/GD32VW553/V1_MQTT_OK/GD32VW55X_Wifi_BLE_SDK/GD32VW55x_RELEASE_V1.0.2/MSDK/plf/riscv/env\handlers.c ****     char cmdh[] = {'h', 'e', 'l', 'p'};
 1374              		.loc 1 217 10
 1375 023c 130B4B56 		addi	s6,s6,1380
 1376              	.LBB64:
 262:C:/Users/stapi/OneDrive/Desktop/GD32VW553/V1_MQTT_OK/GD32VW55X_Wifi_BLE_SDK/GD32VW55x_RELEASE_V1.0.2/MSDK/plf/riscv/env\handlers.c ****                     dumpStackInfo(int_sp, num);
 1377              		.loc 1 262 41
 1378 0240 938B0B00 		addi	s7,s7,%lo(_sp)
 1379              	.LVL153:
 1380              	.L63:
 1381              	.LBE64:
 1382              	.LBE72:
 1383              	.LBE77:
 507:C:/Users/stapi/OneDrive/Desktop/GD32VW553/V1_MQTT_OK/GD32VW55X_Wifi_BLE_SDK/GD32VW55x_RELEASE_V1.0.2/MSDK/plf/riscv/env\handlers.c ****         // We should have chance to check overflow error
 1384              		.loc 1 507 5 is_stmt 1
 510:C:/Users/stapi/OneDrive/Desktop/GD32VW553/V1_MQTT_OK/GD32VW55X_Wifi_BLE_SDK/GD32VW55x_RELEASE_V1.0.2/MSDK/plf/riscv/env\handlers.c ****             usart_flag_clear(LOG_UART, USART_FLAG_ORERR);
 1385              		.loc 1 510 9
 510:C:/Users/stapi/OneDrive/Desktop/GD32VW553/V1_MQTT_OK/GD32VW55X_Wifi_BLE_SDK/GD32VW55x_RELEASE_V1.0.2/MSDK/plf/riscv/env\handlers.c ****             usart_flag_clear(LOG_UART, USART_FLAG_ORERR);
 1386              		.loc 1 510 22 is_stmt 0
 1387 0244 93053070 		li	a1,1795
 1388 0248 5285     		mv	a0,s4
 1389 024a 97000000 		call	usart_flag_get
 1389      E7800000 
 1390              	.LVL154:
 510:C:/Users/stapi/OneDrive/Desktop/GD32VW553/V1_MQTT_OK/GD32VW55X_Wifi_BLE_SDK/GD32VW55x_RELEASE_V1.0.2/MSDK/plf/riscv/env\handlers.c ****             usart_flag_clear(LOG_UART, USART_FLAG_ORERR);
 1391              		.loc 1 510 12
 1392 0252 01C9     		beq	a0,zero,.L62
 511:C:/Users/stapi/OneDrive/Desktop/GD32VW553/V1_MQTT_OK/GD32VW55X_Wifi_BLE_SDK/GD32VW55x_RELEASE_V1.0.2/MSDK/plf/riscv/env\handlers.c ****         }
 1393              		.loc 1 511 13 is_stmt 1
 1394 0254 93053070 		li	a1,1795
 1395 0258 5285     		mv	a0,s4
 1396 025a 97000000 		call	usart_flag_clear
 1396      E7800000 
 1397              	.LVL155:
 1398              	.L62:
 514:C:/Users/stapi/OneDrive/Desktop/GD32VW553/V1_MQTT_OK/GD32VW55X_Wifi_BLE_SDK/GD32VW55x_RELEASE_V1.0.2/MSDK/plf/riscv/env\handlers.c ****             ch = (char)usart_data_receive(LOG_UART);
 1399              		.loc 1 514 9
 514:C:/Users/stapi/OneDrive/Desktop/GD32VW553/V1_MQTT_OK/GD32VW55X_Wifi_BLE_SDK/GD32VW55x_RELEASE_V1.0.2/MSDK/plf/riscv/env\handlers.c ****             ch = (char)usart_data_receive(LOG_UART);
 1400              		.loc 1 514 23 is_stmt 0
 1401 0262 93055070 		li	a1,1797
 1402 0266 5285     		mv	a0,s4
 1403 0268 97000000 		call	usart_flag_get
 1403      E7800000 
 1404              	.LVL156:
 514:C:/Users/stapi/OneDrive/Desktop/GD32VW553/V1_MQTT_OK/GD32VW55X_Wifi_BLE_SDK/GD32VW55x_RELEASE_V1.0.2/MSDK/plf/riscv/env\handlers.c ****             ch = (char)usart_data_receive(LOG_UART);
 1405              		.loc 1 514 12
 1406 0270 71D9     		beq	a0,zero,.L63
 515:C:/Users/stapi/OneDrive/Desktop/GD32VW553/V1_MQTT_OK/GD32VW55X_Wifi_BLE_SDK/GD32VW55x_RELEASE_V1.0.2/MSDK/plf/riscv/env\handlers.c ****         }
 1407              		.loc 1 515 13 is_stmt 1
 515:C:/Users/stapi/OneDrive/Desktop/GD32VW553/V1_MQTT_OK/GD32VW55X_Wifi_BLE_SDK/GD32VW55x_RELEASE_V1.0.2/MSDK/plf/riscv/env\handlers.c ****         }
 1408              		.loc 1 515 24 is_stmt 0
 1409 0272 13850C40 		addi	a0,s9,1024
 1410 0276 97000000 		call	usart_data_receive
 1410      E7800000 
 1411              	.LVL157:
 521:C:/Users/stapi/OneDrive/Desktop/GD32VW553/V1_MQTT_OK/GD32VW55X_Wifi_BLE_SDK/GD32VW55x_RELEASE_V1.0.2/MSDK/plf/riscv/env\handlers.c ****             log_uart_putc_noint('\r');
 1412              		.loc 1 521 12
 1413 027e 3547     		li	a4,13
 515:C:/Users/stapi/OneDrive/Desktop/GD32VW553/V1_MQTT_OK/GD32VW55X_Wifi_BLE_SDK/GD32VW55x_RELEASE_V1.0.2/MSDK/plf/riscv/env\handlers.c ****         }
 1414              		.loc 1 515 16
 1415 0280 93174560 		sext.b	a5,a0
 1416              	.LVL158:
 521:C:/Users/stapi/OneDrive/Desktop/GD32VW553/V1_MQTT_OK/GD32VW55X_Wifi_BLE_SDK/GD32VW55x_RELEASE_V1.0.2/MSDK/plf/riscv/env\handlers.c ****             log_uart_putc_noint('\r');
 1417              		.loc 1 521 9 is_stmt 1
 521:C:/Users/stapi/OneDrive/Desktop/GD32VW553/V1_MQTT_OK/GD32VW55X_Wifi_BLE_SDK/GD32VW55x_RELEASE_V1.0.2/MSDK/plf/riscv/env\handlers.c ****             log_uart_putc_noint('\r');
 1418              		.loc 1 521 12 is_stmt 0
 1419 0284 6385E700 		beq	a5,a4,.L64
 521:C:/Users/stapi/OneDrive/Desktop/GD32VW553/V1_MQTT_OK/GD32VW55X_Wifi_BLE_SDK/GD32VW55x_RELEASE_V1.0.2/MSDK/plf/riscv/env\handlers.c ****             log_uart_putc_noint('\r');
 1420              		.loc 1 521 24 discriminator 1
 1421 0288 2947     		li	a4,10
 1422 028a 639AE73E 		bne	a5,a4,.L65
 1423              	.L64:
 522:C:/Users/stapi/OneDrive/Desktop/GD32VW553/V1_MQTT_OK/GD32VW55X_Wifi_BLE_SDK/GD32VW55x_RELEASE_V1.0.2/MSDK/plf/riscv/env\handlers.c ****             log_uart_putc_noint('\n');
 1424              		.loc 1 522 13 is_stmt 1
 1425 028e 3545     		li	a0,13
 1426 0290 97000000 		call	log_uart_putc_noint
 1426      E7800000 
 1427              	.LVL159:
 523:C:/Users/stapi/OneDrive/Desktop/GD32VW553/V1_MQTT_OK/GD32VW55X_Wifi_BLE_SDK/GD32VW55x_RELEASE_V1.0.2/MSDK/plf/riscv/env\handlers.c **** 
 1428              		.loc 1 523 13
 1429 0298 2945     		li	a0,10
 1430 029a 97000000 		call	log_uart_putc_noint
 1430      E7800000 
 1431              	.LVL160:
 525:C:/Users/stapi/OneDrive/Desktop/GD32VW553/V1_MQTT_OK/GD32VW55X_Wifi_BLE_SDK/GD32VW55x_RELEASE_V1.0.2/MSDK/plf/riscv/env\handlers.c ****                 parseUartCmd(uart_buf, uart_index, sp);
 1432              		.loc 1 525 13
 525:C:/Users/stapi/OneDrive/Desktop/GD32VW553/V1_MQTT_OK/GD32VW55X_Wifi_BLE_SDK/GD32VW55x_RELEASE_V1.0.2/MSDK/plf/riscv/env\handlers.c ****                 parseUartCmd(uart_buf, uart_index, sp);
 1433              		.loc 1 525 16 is_stmt 0
 1434 02a2 63030424 		beq	s0,zero,.L66
 526:C:/Users/stapi/OneDrive/Desktop/GD32VW553/V1_MQTT_OK/GD32VW55X_Wifi_BLE_SDK/GD32VW55x_RELEASE_V1.0.2/MSDK/plf/riscv/env\handlers.c ****             }
 1435              		.loc 1 526 17 is_stmt 1
 1436              	.LVL161:
 1437              	.LBB78:
 1438              	.LBB73:
 210:C:/Users/stapi/OneDrive/Desktop/GD32VW553/V1_MQTT_OK/GD32VW55X_Wifi_BLE_SDK/GD32VW55x_RELEASE_V1.0.2/MSDK/plf/riscv/env\handlers.c ****     uint8_t state = 0;
 1439              		.loc 1 210 5
 211:C:/Users/stapi/OneDrive/Desktop/GD32VW553/V1_MQTT_OK/GD32VW55X_Wifi_BLE_SDK/GD32VW55x_RELEASE_V1.0.2/MSDK/plf/riscv/env\handlers.c ****     uint32_t start_addr = 0;
 1440              		.loc 1 211 5
 212:C:/Users/stapi/OneDrive/Desktop/GD32VW553/V1_MQTT_OK/GD32VW55X_Wifi_BLE_SDK/GD32VW55x_RELEASE_V1.0.2/MSDK/plf/riscv/env\handlers.c ****     uint8_t len = 0;
 1441              		.loc 1 212 5
 213:C:/Users/stapi/OneDrive/Desktop/GD32VW553/V1_MQTT_OK/GD32VW55X_Wifi_BLE_SDK/GD32VW55x_RELEASE_V1.0.2/MSDK/plf/riscv/env\handlers.c ****     int8_t i, j;
 1442              		.loc 1 213 5
 214:C:/Users/stapi/OneDrive/Desktop/GD32VW553/V1_MQTT_OK/GD32VW55X_Wifi_BLE_SDK/GD32VW55x_RELEASE_V1.0.2/MSDK/plf/riscv/env\handlers.c ****     char c;
 1443              		.loc 1 214 5
 215:C:/Users/stapi/OneDrive/Desktop/GD32VW553/V1_MQTT_OK/GD32VW55X_Wifi_BLE_SDK/GD32VW55x_RELEASE_V1.0.2/MSDK/plf/riscv/env\handlers.c ****     char cmdr[] = {'r', 'm', 'e', 'm', ' '};
 1444              		.loc 1 215 5
 216:C:/Users/stapi/OneDrive/Desktop/GD32VW553/V1_MQTT_OK/GD32VW55X_Wifi_BLE_SDK/GD32VW55x_RELEASE_V1.0.2/MSDK/plf/riscv/env\handlers.c ****     char cmdd[] = {'d', 'u', 'm', 'p'};
 1445              		.loc 1 216 5
 216:C:/Users/stapi/OneDrive/Desktop/GD32VW553/V1_MQTT_OK/GD32VW55X_Wifi_BLE_SDK/GD32VW55x_RELEASE_V1.0.2/MSDK/plf/riscv/env\handlers.c ****     char cmdd[] = {'d', 'u', 'm', 'p'};
 1446              		.loc 1 216 10 is_stmt 0
 1447 02a6 B247     		lw	a5,12(sp)
 217:C:/Users/stapi/OneDrive/Desktop/GD32VW553/V1_MQTT_OK/GD32VW55X_Wifi_BLE_SDK/GD32VW55x_RELEASE_V1.0.2/MSDK/plf/riscv/env\handlers.c ****     char cmdh[] = {'h', 'e', 'l', 'p'};
 1448              		.loc 1 217 10
 1449 02a8 5AC8     		sw	s6,16(sp)
 212:C:/Users/stapi/OneDrive/Desktop/GD32VW553/V1_MQTT_OK/GD32VW55X_Wifi_BLE_SDK/GD32VW55x_RELEASE_V1.0.2/MSDK/plf/riscv/env\handlers.c ****     uint8_t len = 0;
 1450              		.loc 1 212 14
 1451 02aa 814D     		li	s11,0
 216:C:/Users/stapi/OneDrive/Desktop/GD32VW553/V1_MQTT_OK/GD32VW55X_Wifi_BLE_SDK/GD32VW55x_RELEASE_V1.0.2/MSDK/plf/riscv/env\handlers.c ****     char cmdd[] = {'d', 'u', 'm', 'p'};
 1452              		.loc 1 216 10
 1453 02ac 3ECC     		sw	a5,24(sp)
 1454 02ae 93070002 		li	a5,32
 1455 02b2 230EF100 		sb	a5,28(sp)
 217:C:/Users/stapi/OneDrive/Desktop/GD32VW553/V1_MQTT_OK/GD32VW55X_Wifi_BLE_SDK/GD32VW55x_RELEASE_V1.0.2/MSDK/plf/riscv/env\handlers.c ****     char cmdh[] = {'h', 'e', 'l', 'p'};
 1456              		.loc 1 217 5 is_stmt 1
 218:C:/Users/stapi/OneDrive/Desktop/GD32VW553/V1_MQTT_OK/GD32VW55X_Wifi_BLE_SDK/GD32VW55x_RELEASE_V1.0.2/MSDK/plf/riscv/env\handlers.c **** 
 1457              		.loc 1 218 5
 218:C:/Users/stapi/OneDrive/Desktop/GD32VW553/V1_MQTT_OK/GD32VW55X_Wifi_BLE_SDK/GD32VW55x_RELEASE_V1.0.2/MSDK/plf/riscv/env\handlers.c **** 
 1458              		.loc 1 218 10 is_stmt 0
 1459 02b6 B7676C70 		li	a5,1886150656
 1460 02ba 93878756 		addi	a5,a5,1384
 1461 02be 3ECA     		sw	a5,20(sp)
 220:C:/Users/stapi/OneDrive/Desktop/GD32VW553/V1_MQTT_OK/GD32VW55X_Wifi_BLE_SDK/GD32VW55x_RELEASE_V1.0.2/MSDK/plf/riscv/env\handlers.c ****         switch (state) {
 1462              		.loc 1 220 5 is_stmt 1
 220:C:/Users/stapi/OneDrive/Desktop/GD32VW553/V1_MQTT_OK/GD32VW55X_Wifi_BLE_SDK/GD32VW55x_RELEASE_V1.0.2/MSDK/plf/riscv/env\handlers.c ****         switch (state) {
 1463              		.loc 1 220 10
 213:C:/Users/stapi/OneDrive/Desktop/GD32VW553/V1_MQTT_OK/GD32VW55X_Wifi_BLE_SDK/GD32VW55x_RELEASE_V1.0.2/MSDK/plf/riscv/env\handlers.c ****     int8_t i, j;
 1464              		.loc 1 213 13 is_stmt 0
 1465 02c0 014C     		li	s8,0
 210:C:/Users/stapi/OneDrive/Desktop/GD32VW553/V1_MQTT_OK/GD32VW55X_Wifi_BLE_SDK/GD32VW55x_RELEASE_V1.0.2/MSDK/plf/riscv/env\handlers.c ****     uint8_t state = 0;
 1466              		.loc 1 210 13
 1467 02c2 8147     		li	a5,0
 211:C:/Users/stapi/OneDrive/Desktop/GD32VW553/V1_MQTT_OK/GD32VW55X_Wifi_BLE_SDK/GD32VW55x_RELEASE_V1.0.2/MSDK/plf/riscv/env\handlers.c ****     uint32_t start_addr = 0;
 1468              		.loc 1 211 13
 1469 02c4 8142     		li	t0,0
 221:C:/Users/stapi/OneDrive/Desktop/GD32VW553/V1_MQTT_OK/GD32VW55X_Wifi_BLE_SDK/GD32VW55x_RELEASE_V1.0.2/MSDK/plf/riscv/env\handlers.c ****         case 0:
 1470              		.loc 1 221 9
 1471 02c6 0548     		li	a6,1
 283:C:/Users/stapi/OneDrive/Desktop/GD32VW553/V1_MQTT_OK/GD32VW55X_Wifi_BLE_SDK/GD32VW55x_RELEASE_V1.0.2/MSDK/plf/riscv/env\handlers.c ****                 break;
 1472              		.loc 1 283 16
 1473 02c8 93050002 		li	a1,32
 286:C:/Users/stapi/OneDrive/Desktop/GD32VW553/V1_MQTT_OK/GD32VW55X_Wifi_BLE_SDK/GD32VW55x_RELEASE_V1.0.2/MSDK/plf/riscv/env\handlers.c ****                 return false;
 1474              		.loc 1 286 21
 1475 02cc A546     		li	a3,9
 294:C:/Users/stapi/OneDrive/Desktop/GD32VW553/V1_MQTT_OK/GD32VW55X_Wifi_BLE_SDK/GD32VW55x_RELEASE_V1.0.2/MSDK/plf/riscv/env\handlers.c ****                     start_addr |= ((p_buf[idx] - 'a') + 10) << i;
 1476              		.loc 1 294 25
 1477 02ce 1546     		li	a2,5
 290:C:/Users/stapi/OneDrive/Desktop/GD32VW553/V1_MQTT_OK/GD32VW55X_Wifi_BLE_SDK/GD32VW55x_RELEASE_V1.0.2/MSDK/plf/riscv/env\handlers.c ****                 if (p_buf[idx] >= '0' && p_buf[idx] <= '9') {
 1478              		.loc 1 290 13
 1479 02d0 F158     		li	a7,-4
 306:C:/Users/stapi/OneDrive/Desktop/GD32VW553/V1_MQTT_OK/GD32VW55X_Wifi_BLE_SDK/GD32VW55x_RELEASE_V1.0.2/MSDK/plf/riscv/env\handlers.c ****             continue;
 1480              		.loc 1 306 19
 1481 02d2 0943     		li	t1,2
 315:C:/Users/stapi/OneDrive/Desktop/GD32VW553/V1_MQTT_OK/GD32VW55X_Wifi_BLE_SDK/GD32VW55x_RELEASE_V1.0.2/MSDK/plf/riscv/env\handlers.c ****             }
 1482              		.loc 1 315 32
 1483 02d4 294E     		li	t3,10
 223:C:/Users/stapi/OneDrive/Desktop/GD32VW553/V1_MQTT_OK/GD32VW55X_Wifi_BLE_SDK/GD32VW55x_RELEASE_V1.0.2/MSDK/plf/riscv/env\handlers.c ****                 for (i = 0; i < 5; i++) {
 1484              		.loc 1 223 16
 1485 02d6 930E2007 		li	t4,114
 234:C:/Users/stapi/OneDrive/Desktop/GD32VW553/V1_MQTT_OK/GD32VW55X_Wifi_BLE_SDK/GD32VW55x_RELEASE_V1.0.2/MSDK/plf/riscv/env\handlers.c ****                 for (i = 0; i < 4; i++) {
 1486              		.loc 1 234 21
 1487 02da 130F4006 		li	t5,100
 269:C:/Users/stapi/OneDrive/Desktop/GD32VW553/V1_MQTT_OK/GD32VW55X_Wifi_BLE_SDK/GD32VW55x_RELEASE_V1.0.2/MSDK/plf/riscv/env\handlers.c ****                 for (i = 0; i < 4; i++) {
 1488              		.loc 1 269 21
 1489 02de 930F8006 		li	t6,104
 269:C:/Users/stapi/OneDrive/Desktop/GD32VW553/V1_MQTT_OK/GD32VW55X_Wifi_BLE_SDK/GD32VW55x_RELEASE_V1.0.2/MSDK/plf/riscv/env\handlers.c ****                 for (i = 0; i < 4; i++) {
 1490              		.loc 1 269 40
 1491 02e2 0D45     		li	a0,3
 1492              	.LVL162:
 1493              	.L85:
 221:C:/Users/stapi/OneDrive/Desktop/GD32VW553/V1_MQTT_OK/GD32VW55X_Wifi_BLE_SDK/GD32VW55x_RELEASE_V1.0.2/MSDK/plf/riscv/env\handlers.c ****         case 0:
 1494              		.loc 1 221 9 is_stmt 1
 1495 02e4 6385022D 		beq	t0,a6,.L67
 1496 02e8 638C6232 		beq	t0,t1,.L68
 1497 02ec 639E0234 		bne	t0,zero,.L69
 1498              	.LVL163:
 223:C:/Users/stapi/OneDrive/Desktop/GD32VW553/V1_MQTT_OK/GD32VW55X_Wifi_BLE_SDK/GD32VW55x_RELEASE_V1.0.2/MSDK/plf/riscv/env\handlers.c ****                 for (i = 0; i < 5; i++) {
 1499              		.loc 1 223 13
 223:C:/Users/stapi/OneDrive/Desktop/GD32VW553/V1_MQTT_OK/GD32VW55X_Wifi_BLE_SDK/GD32VW55x_RELEASE_V1.0.2/MSDK/plf/riscv/env\handlers.c ****                 for (i = 0; i < 5; i++) {
 1500              		.loc 1 223 22 is_stmt 0
 1501 02f0 9810     		addi	a4,sp,96
 1502              	.LVL164:
 1503 02f2 3E97     		add	a4,a4,a5
 1504              	.LVL165:
 1505 02f4 030707FC 		lb	a4,-64(a4)
 223:C:/Users/stapi/OneDrive/Desktop/GD32VW553/V1_MQTT_OK/GD32VW55X_Wifi_BLE_SDK/GD32VW55x_RELEASE_V1.0.2/MSDK/plf/riscv/env\handlers.c ****                 for (i = 0; i < 5; i++) {
 1506              		.loc 1 223 16
 1507 02f8 631ED717 		bne	a4,t4,.L70
 223:C:/Users/stapi/OneDrive/Desktop/GD32VW553/V1_MQTT_OK/GD32VW55X_Wifi_BLE_SDK/GD32VW55x_RELEASE_V1.0.2/MSDK/plf/riscv/env\handlers.c ****                 for (i = 0; i < 5; i++) {
 1508              		.loc 1 223 47
 1509 02fc 3307F440 		sub	a4,s0,a5
 223:C:/Users/stapi/OneDrive/Desktop/GD32VW553/V1_MQTT_OK/GD32VW55X_Wifi_BLE_SDK/GD32VW55x_RELEASE_V1.0.2/MSDK/plf/riscv/env\handlers.c ****                 for (i = 0; i < 5; i++) {
 1510              		.loc 1 223 35
 1511 0300 6354E634 		ble	a4,a2,.L69
 1512 0304 13875700 		addi	a4,a5,5
 1513 0308 93028101 		addi	t0,sp,24
 1514 030c 1377F70F 		andi	a4,a4,0xff
 1515              	.L73:
 1516              	.LVL166:
 225:C:/Users/stapi/OneDrive/Desktop/GD32VW553/V1_MQTT_OK/GD32VW55X_Wifi_BLE_SDK/GD32VW55x_RELEASE_V1.0.2/MSDK/plf/riscv/env\handlers.c ****                         return false;
 1517              		.loc 1 225 21 is_stmt 1
 225:C:/Users/stapi/OneDrive/Desktop/GD32VW553/V1_MQTT_OK/GD32VW55X_Wifi_BLE_SDK/GD32VW55x_RELEASE_V1.0.2/MSDK/plf/riscv/env\handlers.c ****                         return false;
 1518              		.loc 1 225 30 is_stmt 0
 1519 0310 93030106 		addi	t2,sp,96
 1520              	.LVL167:
 1521 0314 BE93     		add	t2,t2,a5
 1522              	.LVL168:
 225:C:/Users/stapi/OneDrive/Desktop/GD32VW553/V1_MQTT_OK/GD32VW55X_Wifi_BLE_SDK/GD32VW55x_RELEASE_V1.0.2/MSDK/plf/riscv/env\handlers.c ****                         return false;
 1523              		.loc 1 225 24
 1524 0316 038D03FC 		lb	s10,-64(t2)
 1525 031a 83830200 		lb	t2,0(t0)
 1526 031e 63157D1C 		bne	s10,t2,.L66
 228:C:/Users/stapi/OneDrive/Desktop/GD32VW553/V1_MQTT_OK/GD32VW55X_Wifi_BLE_SDK/GD32VW55x_RELEASE_V1.0.2/MSDK/plf/riscv/env\handlers.c ****                 }
 1527              		.loc 1 228 21 is_stmt 1
 228:C:/Users/stapi/OneDrive/Desktop/GD32VW553/V1_MQTT_OK/GD32VW55X_Wifi_BLE_SDK/GD32VW55x_RELEASE_V1.0.2/MSDK/plf/riscv/env\handlers.c ****                 }
 1528              		.loc 1 228 24 is_stmt 0
 1529 0322 8507     		addi	a5,a5,1
 1530              	.LVL169:
 1531 0324 93F7F70F 		andi	a5,a5,0xff
 1532              	.LVL170:
 224:C:/Users/stapi/OneDrive/Desktop/GD32VW553/V1_MQTT_OK/GD32VW55X_Wifi_BLE_SDK/GD32VW55x_RELEASE_V1.0.2/MSDK/plf/riscv/env\handlers.c ****                     if (p_buf[idx] != cmdr[i]) {
 1533              		.loc 1 224 36 is_stmt 1
 224:C:/Users/stapi/OneDrive/Desktop/GD32VW553/V1_MQTT_OK/GD32VW55X_Wifi_BLE_SDK/GD32VW55x_RELEASE_V1.0.2/MSDK/plf/riscv/env\handlers.c ****                     if (p_buf[idx] != cmdr[i]) {
 1534              		.loc 1 224 29
 224:C:/Users/stapi/OneDrive/Desktop/GD32VW553/V1_MQTT_OK/GD32VW55X_Wifi_BLE_SDK/GD32VW55x_RELEASE_V1.0.2/MSDK/plf/riscv/env\handlers.c ****                     if (p_buf[idx] != cmdr[i]) {
 1535              		.loc 1 224 17 is_stmt 0
 1536 0328 8502     		addi	t0,t0,1
 1537 032a E313F7FE 		bne	a4,a5,.L73
 231:C:/Users/stapi/OneDrive/Desktop/GD32VW553/V1_MQTT_OK/GD32VW55X_Wifi_BLE_SDK/GD32VW55x_RELEASE_V1.0.2/MSDK/plf/riscv/env\handlers.c ****                 continue;
 1538              		.loc 1 231 23
 1539 032e 8542     		li	t0,1
 1540              	.LVL171:
 1541              	.L74:
 220:C:/Users/stapi/OneDrive/Desktop/GD32VW553/V1_MQTT_OK/GD32VW55X_Wifi_BLE_SDK/GD32VW55x_RELEASE_V1.0.2/MSDK/plf/riscv/env\handlers.c ****         switch (state) {
 1542              		.loc 1 220 10 is_stmt 1
 1543 0330 E3EA87FA 		bgtu	s0,a5,.L85
 328:C:/Users/stapi/OneDrive/Desktop/GD32VW553/V1_MQTT_OK/GD32VW55X_Wifi_BLE_SDK/GD32VW55x_RELEASE_V1.0.2/MSDK/plf/riscv/env\handlers.c ****         uint8_t val = *(uint8_t *)start_addr;
 1544              		.loc 1 328 12 is_stmt 0
 1545 0334 854A     		li	s5,1
 1546              	.LBB65:
 332:C:/Users/stapi/OneDrive/Desktop/GD32VW553/V1_MQTT_OK/GD32VW55X_Wifi_BLE_SDK/GD32VW55x_RELEASE_V1.0.2/MSDK/plf/riscv/env\handlers.c ****                 c += 'a' - 10;
 1547              		.loc 1 332 16
 1548 0336 254D     		li	s10,9
 1549              	.LVL172:
 1550              	.L86:
 1551              	.LBE65:
 328:C:/Users/stapi/OneDrive/Desktop/GD32VW553/V1_MQTT_OK/GD32VW55X_Wifi_BLE_SDK/GD32VW55x_RELEASE_V1.0.2/MSDK/plf/riscv/env\handlers.c ****         uint8_t val = *(uint8_t *)start_addr;
 1552              		.loc 1 328 17 is_stmt 1
 328:C:/Users/stapi/OneDrive/Desktop/GD32VW553/V1_MQTT_OK/GD32VW55X_Wifi_BLE_SDK/GD32VW55x_RELEASE_V1.0.2/MSDK/plf/riscv/env\handlers.c ****         uint8_t val = *(uint8_t *)start_addr;
 1553              		.loc 1 328 5 is_stmt 0
 1554 0338 63485C1B 		bgt	s5,s8,.L66
 1555              	.LBB66:
 329:C:/Users/stapi/OneDrive/Desktop/GD32VW553/V1_MQTT_OK/GD32VW55X_Wifi_BLE_SDK/GD32VW55x_RELEASE_V1.0.2/MSDK/plf/riscv/env\handlers.c ****         for (j = 4; j >= 0; j -= 4) {
 1556              		.loc 1 329 9 is_stmt 1
 329:C:/Users/stapi/OneDrive/Desktop/GD32VW553/V1_MQTT_OK/GD32VW55X_Wifi_BLE_SDK/GD32VW55x_RELEASE_V1.0.2/MSDK/plf/riscv/env\handlers.c ****         for (j = 4; j >= 0; j -= 4) {
 1557              		.loc 1 329 17 is_stmt 0
 1558 033c 03C40D00 		lbu	s0,0(s11)
 1559              	.LVL173:
 330:C:/Users/stapi/OneDrive/Desktop/GD32VW553/V1_MQTT_OK/GD32VW55X_Wifi_BLE_SDK/GD32VW55x_RELEASE_V1.0.2/MSDK/plf/riscv/env\handlers.c ****             c = ((val >> j ) & 0xF);
 1560              		.loc 1 330 9 is_stmt 1
 330:C:/Users/stapi/OneDrive/Desktop/GD32VW553/V1_MQTT_OK/GD32VW55X_Wifi_BLE_SDK/GD32VW55x_RELEASE_V1.0.2/MSDK/plf/riscv/env\handlers.c ****             c = ((val >> j ) & 0xF);
 1561              		.loc 1 330 21
 331:C:/Users/stapi/OneDrive/Desktop/GD32VW553/V1_MQTT_OK/GD32VW55X_Wifi_BLE_SDK/GD32VW55x_RELEASE_V1.0.2/MSDK/plf/riscv/env\handlers.c ****             if (c >= 10)
 1562              		.loc 1 331 13
 331:C:/Users/stapi/OneDrive/Desktop/GD32VW553/V1_MQTT_OK/GD32VW55X_Wifi_BLE_SDK/GD32VW55x_RELEASE_V1.0.2/MSDK/plf/riscv/env\handlers.c ****             if (c >= 10)
 1563              		.loc 1 331 23 is_stmt 0
 1564 0340 13574440 		srai	a4,s0,4
 1565              	.LVL174:
 332:C:/Users/stapi/OneDrive/Desktop/GD32VW553/V1_MQTT_OK/GD32VW55X_Wifi_BLE_SDK/GD32VW55x_RELEASE_V1.0.2/MSDK/plf/riscv/env\handlers.c ****                 c += 'a' - 10;
 1566              		.loc 1 332 13 is_stmt 1
 335:C:/Users/stapi/OneDrive/Desktop/GD32VW553/V1_MQTT_OK/GD32VW55X_Wifi_BLE_SDK/GD32VW55x_RELEASE_V1.0.2/MSDK/plf/riscv/env\handlers.c ****             log_uart_putc_noint(c);
 1567              		.loc 1 335 19 is_stmt 0
 1568 0344 13554400 		srli	a0,s0,4
 332:C:/Users/stapi/OneDrive/Desktop/GD32VW553/V1_MQTT_OK/GD32VW55X_Wifi_BLE_SDK/GD32VW55x_RELEASE_V1.0.2/MSDK/plf/riscv/env\handlers.c ****                 c += 'a' - 10;
 1569              		.loc 1 332 16
 1570 0348 6344ED30 		bgt	a4,s10,.L87
 335:C:/Users/stapi/OneDrive/Desktop/GD32VW553/V1_MQTT_OK/GD32VW55X_Wifi_BLE_SDK/GD32VW55x_RELEASE_V1.0.2/MSDK/plf/riscv/env\handlers.c ****             log_uart_putc_noint(c);
 1571              		.loc 1 335 17 is_stmt 1
 335:C:/Users/stapi/OneDrive/Desktop/GD32VW553/V1_MQTT_OK/GD32VW55X_Wifi_BLE_SDK/GD32VW55x_RELEASE_V1.0.2/MSDK/plf/riscv/env\handlers.c ****             log_uart_putc_noint(c);
 1572              		.loc 1 335 19 is_stmt 0
 1573 034c 13050503 		addi	a0,a0,48
 1574              	.LVL175:
 1575              	.L88:
 336:C:/Users/stapi/OneDrive/Desktop/GD32VW553/V1_MQTT_OK/GD32VW55X_Wifi_BLE_SDK/GD32VW55x_RELEASE_V1.0.2/MSDK/plf/riscv/env\handlers.c ****         }
 1576              		.loc 1 336 13 is_stmt 1
 1577 0350 1375F50F 		andi	a0,a0,0xff
 1578 0354 97000000 		call	log_uart_putc_noint
 1578      E7800000 
 1579              	.LVL176:
 330:C:/Users/stapi/OneDrive/Desktop/GD32VW553/V1_MQTT_OK/GD32VW55X_Wifi_BLE_SDK/GD32VW55x_RELEASE_V1.0.2/MSDK/plf/riscv/env\handlers.c ****             c = ((val >> j ) & 0xF);
 1580              		.loc 1 330 29
 330:C:/Users/stapi/OneDrive/Desktop/GD32VW553/V1_MQTT_OK/GD32VW55X_Wifi_BLE_SDK/GD32VW55x_RELEASE_V1.0.2/MSDK/plf/riscv/env\handlers.c ****             c = ((val >> j ) & 0xF);
 1581              		.loc 1 330 21
 331:C:/Users/stapi/OneDrive/Desktop/GD32VW553/V1_MQTT_OK/GD32VW55X_Wifi_BLE_SDK/GD32VW55x_RELEASE_V1.0.2/MSDK/plf/riscv/env\handlers.c ****             if (c >= 10)
 1582              		.loc 1 331 13
 331:C:/Users/stapi/OneDrive/Desktop/GD32VW553/V1_MQTT_OK/GD32VW55X_Wifi_BLE_SDK/GD32VW55x_RELEASE_V1.0.2/MSDK/plf/riscv/env\handlers.c ****             if (c >= 10)
 1583              		.loc 1 331 15 is_stmt 0
 1584 035c 1377F400 		andi	a4,s0,15
 1585              	.LVL177:
 332:C:/Users/stapi/OneDrive/Desktop/GD32VW553/V1_MQTT_OK/GD32VW55X_Wifi_BLE_SDK/GD32VW55x_RELEASE_V1.0.2/MSDK/plf/riscv/env\handlers.c ****                 c += 'a' - 10;
 1586              		.loc 1 332 13 is_stmt 1
 332:C:/Users/stapi/OneDrive/Desktop/GD32VW553/V1_MQTT_OK/GD32VW55X_Wifi_BLE_SDK/GD32VW55x_RELEASE_V1.0.2/MSDK/plf/riscv/env\handlers.c ****                 c += 'a' - 10;
 1587              		.loc 1 332 16 is_stmt 0
 1588 0360 634DED2E 		bgt	a4,s10,.L89
 335:C:/Users/stapi/OneDrive/Desktop/GD32VW553/V1_MQTT_OK/GD32VW55X_Wifi_BLE_SDK/GD32VW55x_RELEASE_V1.0.2/MSDK/plf/riscv/env\handlers.c ****             log_uart_putc_noint(c);
 1589              		.loc 1 335 17 is_stmt 1
 335:C:/Users/stapi/OneDrive/Desktop/GD32VW553/V1_MQTT_OK/GD32VW55X_Wifi_BLE_SDK/GD32VW55x_RELEASE_V1.0.2/MSDK/plf/riscv/env\handlers.c ****             log_uart_putc_noint(c);
 1590              		.loc 1 335 19 is_stmt 0
 1591 0364 13050703 		addi	a0,a4,48
 1592              	.LVL178:
 1593              	.L90:
 336:C:/Users/stapi/OneDrive/Desktop/GD32VW553/V1_MQTT_OK/GD32VW55X_Wifi_BLE_SDK/GD32VW55x_RELEASE_V1.0.2/MSDK/plf/riscv/env\handlers.c ****         }
 1594              		.loc 1 336 13 is_stmt 1
 1595 0368 1375F50F 		andi	a0,a0,0xff
 1596 036c 97000000 		call	log_uart_putc_noint
 1596      E7800000 
 1597              	.LVL179:
 330:C:/Users/stapi/OneDrive/Desktop/GD32VW553/V1_MQTT_OK/GD32VW55X_Wifi_BLE_SDK/GD32VW55x_RELEASE_V1.0.2/MSDK/plf/riscv/env\handlers.c ****             c = ((val >> j ) & 0xF);
 1598              		.loc 1 330 29
 330:C:/Users/stapi/OneDrive/Desktop/GD32VW553/V1_MQTT_OK/GD32VW55X_Wifi_BLE_SDK/GD32VW55x_RELEASE_V1.0.2/MSDK/plf/riscv/env\handlers.c ****             c = ((val >> j ) & 0xF);
 1599              		.loc 1 330 21
 339:C:/Users/stapi/OneDrive/Desktop/GD32VW553/V1_MQTT_OK/GD32VW55X_Wifi_BLE_SDK/GD32VW55x_RELEASE_V1.0.2/MSDK/plf/riscv/env\handlers.c ****         if ((i % 16) == 0) {
 1600              		.loc 1 339 9
 340:C:/Users/stapi/OneDrive/Desktop/GD32VW553/V1_MQTT_OK/GD32VW55X_Wifi_BLE_SDK/GD32VW55x_RELEASE_V1.0.2/MSDK/plf/riscv/env\handlers.c ****             log_uart_put_data((uint8_t *)"\r\n", strlen("\r\n"));
 1601              		.loc 1 340 12 is_stmt 0
 1602 0374 93F7FA00 		andi	a5,s5,15
 339:C:/Users/stapi/OneDrive/Desktop/GD32VW553/V1_MQTT_OK/GD32VW55X_Wifi_BLE_SDK/GD32VW55x_RELEASE_V1.0.2/MSDK/plf/riscv/env\handlers.c ****         if ((i % 16) == 0) {
 1603              		.loc 1 339 19
 1604 0378 850D     		addi	s11,s11,1
 1605              	.LVL180:
 340:C:/Users/stapi/OneDrive/Desktop/GD32VW553/V1_MQTT_OK/GD32VW55X_Wifi_BLE_SDK/GD32VW55x_RELEASE_V1.0.2/MSDK/plf/riscv/env\handlers.c ****             log_uart_put_data((uint8_t *)"\r\n", strlen("\r\n"));
 1606              		.loc 1 340 9 is_stmt 1
 1607 037a 13F4FA0F 		andi	s0,s5,0xff
 1608              	.LVL181:
 340:C:/Users/stapi/OneDrive/Desktop/GD32VW553/V1_MQTT_OK/GD32VW55X_Wifi_BLE_SDK/GD32VW55x_RELEASE_V1.0.2/MSDK/plf/riscv/env\handlers.c ****             log_uart_put_data((uint8_t *)"\r\n", strlen("\r\n"));
 1609              		.loc 1 340 12 is_stmt 0
 1610 037e 6393072E 		bne	a5,zero,.L91
 341:C:/Users/stapi/OneDrive/Desktop/GD32VW553/V1_MQTT_OK/GD32VW55X_Wifi_BLE_SDK/GD32VW55x_RELEASE_V1.0.2/MSDK/plf/riscv/env\handlers.c ****         }
 1611              		.loc 1 341 13 is_stmt 1
 1612 0382 8945     		li	a1,2
 1613 0384 13850900 		addi	a0,s3,%lo(.LC0)
 1614 0388 97000000 		call	log_uart_put_data
 1614      E7800000 
 1615              	.LVL182:
 1616              	.L92:
 1617              	.LBE66:
 328:C:/Users/stapi/OneDrive/Desktop/GD32VW553/V1_MQTT_OK/GD32VW55X_Wifi_BLE_SDK/GD32VW55x_RELEASE_V1.0.2/MSDK/plf/riscv/env\handlers.c ****         uint8_t val = *(uint8_t *)start_addr;
 1618              		.loc 1 328 27
 1619 0390 93071400 		addi	a5,s0,1
 1620 0394 939A4760 		sext.b	s5,a5
 1621              	.LVL183:
 1622 0398 45B7     		j	.L86
 1623              	.LVL184:
 1624              	.L53:
 1625              	.LBE73:
 1626              	.LBE78:
 480:C:/Users/stapi/OneDrive/Desktop/GD32VW553/V1_MQTT_OK/GD32VW55X_Wifi_BLE_SDK/GD32VW55x_RELEASE_V1.0.2/MSDK/plf/riscv/env\handlers.c ****         unsigned long int_sp = __RV_CSR_READ(CSR_MSCRATCH);
 1627              		.loc 1 480 10
 1628              	.LBB79:
 480:C:/Users/stapi/OneDrive/Desktop/GD32VW553/V1_MQTT_OK/GD32VW55X_Wifi_BLE_SDK/GD32VW55x_RELEASE_V1.0.2/MSDK/plf/riscv/env\handlers.c ****         unsigned long int_sp = __RV_CSR_READ(CSR_MSCRATCH);
 1629              		.loc 1 480 28
 480:C:/Users/stapi/OneDrive/Desktop/GD32VW553/V1_MQTT_OK/GD32VW55X_Wifi_BLE_SDK/GD32VW55x_RELEASE_V1.0.2/MSDK/plf/riscv/env\handlers.c ****         unsigned long int_sp = __RV_CSR_READ(CSR_MSCRATCH);
 1630              		.loc 1 480 28
 1631              	 #APP
 1632              	# 480 "C:/Users/stapi/OneDrive/Desktop/GD32VW553/V1_MQTT_OK/GD32VW55X_Wifi_BLE_SDK/GD32VW55x_RELEAS
 1633              		csrr a5, 0x7C4
 1634              	# 0 "" 2
 1635              	.LVL185:
 480:C:/Users/stapi/OneDrive/Desktop/GD32VW553/V1_MQTT_OK/GD32VW55X_Wifi_BLE_SDK/GD32VW55x_RELEASE_V1.0.2/MSDK/plf/riscv/env\handlers.c ****         unsigned long int_sp = __RV_CSR_READ(CSR_MSCRATCH);
 1636              		.loc 1 480 28
 1637              	 #NO_APP
 1638              	.LBE79:
 480:C:/Users/stapi/OneDrive/Desktop/GD32VW553/V1_MQTT_OK/GD32VW55X_Wifi_BLE_SDK/GD32VW55x_RELEASE_V1.0.2/MSDK/plf/riscv/env\handlers.c ****         unsigned long int_sp = __RV_CSR_READ(CSR_MSCRATCH);
 1639              		.loc 1 480 13 is_stmt 0
 1640 039e 13070010 		li	a4,256
 480:C:/Users/stapi/OneDrive/Desktop/GD32VW553/V1_MQTT_OK/GD32VW55X_Wifi_BLE_SDK/GD32VW55x_RELEASE_V1.0.2/MSDK/plf/riscv/env\handlers.c ****         unsigned long int_sp = __RV_CSR_READ(CSR_MSCRATCH);
 1641              		.loc 1 480 26
 1642 03a2 93F70730 		andi	a5,a5,768
 1643              	.LVL186:
 480:C:/Users/stapi/OneDrive/Desktop/GD32VW553/V1_MQTT_OK/GD32VW55X_Wifi_BLE_SDK/GD32VW55x_RELEASE_V1.0.2/MSDK/plf/riscv/env\handlers.c ****         unsigned long int_sp = __RV_CSR_READ(CSR_MSCRATCH);
 1644              		.loc 1 480 13
 1645 03a6 E39DE7D0 		bne	a5,a4,.L54
 1646              	.LBB80:
 481:C:/Users/stapi/OneDrive/Desktop/GD32VW553/V1_MQTT_OK/GD32VW55X_Wifi_BLE_SDK/GD32VW55x_RELEASE_V1.0.2/MSDK/plf/riscv/env\handlers.c ****         print_reg("SP     :      0x", 16, int_sp);
 1647              		.loc 1 481 9 is_stmt 1
 1648              	.LBB81:
 481:C:/Users/stapi/OneDrive/Desktop/GD32VW553/V1_MQTT_OK/GD32VW55X_Wifi_BLE_SDK/GD32VW55x_RELEASE_V1.0.2/MSDK/plf/riscv/env\handlers.c ****         print_reg("SP     :      0x", 16, int_sp);
 1649              		.loc 1 481 32
 481:C:/Users/stapi/OneDrive/Desktop/GD32VW553/V1_MQTT_OK/GD32VW55X_Wifi_BLE_SDK/GD32VW55x_RELEASE_V1.0.2/MSDK/plf/riscv/env\handlers.c ****         print_reg("SP     :      0x", 16, int_sp);
 1650              		.loc 1 481 32
 1651              	 #APP
 1652              	# 481 "C:/Users/stapi/OneDrive/Desktop/GD32VW553/V1_MQTT_OK/GD32VW55X_Wifi_BLE_SDK/GD32VW55x_RELEAS
 1653              		csrr s0, 0x340
 1654              	# 0 "" 2
 1655              	.LVL187:
 481:C:/Users/stapi/OneDrive/Desktop/GD32VW553/V1_MQTT_OK/GD32VW55X_Wifi_BLE_SDK/GD32VW55x_RELEASE_V1.0.2/MSDK/plf/riscv/env\handlers.c ****         print_reg("SP     :      0x", 16, int_sp);
 1656              		.loc 1 481 32
 1657              	 #NO_APP
 1658              	.LBE81:
 482:C:/Users/stapi/OneDrive/Desktop/GD32VW553/V1_MQTT_OK/GD32VW55X_Wifi_BLE_SDK/GD32VW55x_RELEASE_V1.0.2/MSDK/plf/riscv/env\handlers.c **** #ifndef __riscv_32e
 1659              		.loc 1 482 9
 1660 03ae 37050000 		lui	a0,%hi(.LC29)
 1661 03b2 2286     		mv	a2,s0
 1662 03b4 C145     		li	a1,16
 1663 03b6 13050500 		addi	a0,a0,%lo(.LC29)
 1664 03ba 97000000 		call	print_reg
 1664      E7800000 
 1665              	.LVL188:
 484:C:/Users/stapi/OneDrive/Desktop/GD32VW553/V1_MQTT_OK/GD32VW55X_Wifi_BLE_SDK/GD32VW55x_RELEASE_V1.0.2/MSDK/plf/riscv/env\handlers.c **** #else
 1666              		.loc 1 484 9
 490:C:/Users/stapi/OneDrive/Desktop/GD32VW553/V1_MQTT_OK/GD32VW55X_Wifi_BLE_SDK/GD32VW55x_RELEASE_V1.0.2/MSDK/plf/riscv/env\handlers.c **** #endif
 1667              		.loc 1 490 9
 492:C:/Users/stapi/OneDrive/Desktop/GD32VW553/V1_MQTT_OK/GD32VW55X_Wifi_BLE_SDK/GD32VW55x_RELEASE_V1.0.2/MSDK/plf/riscv/env\handlers.c ****         dumpStackInfo(sp, num);
 1668              		.loc 1 492 9
 1669 03c2 37050000 		lui	a0,%hi(.LC30)
 1670 03c6 DD45     		li	a1,23
 1671 03c8 13050500 		addi	a0,a0,%lo(.LC30)
 1672 03cc 97000000 		call	log_uart_put_data
 1672      E7800000 
 1673              	.LVL189:
 493:C:/Users/stapi/OneDrive/Desktop/GD32VW553/V1_MQTT_OK/GD32VW55X_Wifi_BLE_SDK/GD32VW55x_RELEASE_V1.0.2/MSDK/plf/riscv/env\handlers.c ****         num = (uint32_t)_sp - int_sp;
 1674              		.loc 1 493 9
 1675 03d4 2685     		mv	a0,s1
 1676 03d6 9305400A 		li	a1,164
 1677 03da 97000000 		call	dumpStackInfo
 1677      E7800000 
 1678              	.LVL190:
 494:C:/Users/stapi/OneDrive/Desktop/GD32VW553/V1_MQTT_OK/GD32VW55X_Wifi_BLE_SDK/GD32VW55x_RELEASE_V1.0.2/MSDK/plf/riscv/env\handlers.c ****         dumpStackInfo(int_sp, num);
 1679              		.loc 1 494 9
 495:C:/Users/stapi/OneDrive/Desktop/GD32VW553/V1_MQTT_OK/GD32VW55X_Wifi_BLE_SDK/GD32VW55x_RELEASE_V1.0.2/MSDK/plf/riscv/env\handlers.c ****     }
 1680              		.loc 1 495 9
 1681 03e2 B7050000 		lui	a1,%hi(_sp)
 1682 03e6 93850500 		addi	a1,a1,%lo(_sp)
 1683 03ea 818D     		sub	a1,a1,s0
 1684 03ec 2285     		mv	a0,s0
 1685 03ee 97000000 		call	dumpStackInfo
 1685      E7800000 
 1686              	.LVL191:
 1687 03f6 E9B1     		j	.L54
 1688              	.LVL192:
 1689              	.L57:
 1690              	.LBE80:
 1691              	.LBB82:
 1692              	.LBB59:
 407:C:/Users/stapi/OneDrive/Desktop/GD32VW553/V1_MQTT_OK/GD32VW55X_Wifi_BLE_SDK/GD32VW55x_RELEASE_V1.0.2/MSDK/plf/riscv/env\handlers.c ****           unsigned long int_sp = __RV_CSR_READ(CSR_MSCRATCH);
 1693              		.loc 1 407 10
 1694              	.LBB57:
 407:C:/Users/stapi/OneDrive/Desktop/GD32VW553/V1_MQTT_OK/GD32VW55X_Wifi_BLE_SDK/GD32VW55x_RELEASE_V1.0.2/MSDK/plf/riscv/env\handlers.c ****           unsigned long int_sp = __RV_CSR_READ(CSR_MSCRATCH);
 1695              		.loc 1 407 28
 407:C:/Users/stapi/OneDrive/Desktop/GD32VW553/V1_MQTT_OK/GD32VW55X_Wifi_BLE_SDK/GD32VW55x_RELEASE_V1.0.2/MSDK/plf/riscv/env\handlers.c ****           unsigned long int_sp = __RV_CSR_READ(CSR_MSCRATCH);
 1696              		.loc 1 407 28
 1697              	 #APP
 1698              	# 407 "C:/Users/stapi/OneDrive/Desktop/GD32VW553/V1_MQTT_OK/GD32VW55X_Wifi_BLE_SDK/GD32VW55x_RELEAS
 1699              		csrr a5, 0x7C4
 1700              	# 0 "" 2
 1701              	.LVL193:
 407:C:/Users/stapi/OneDrive/Desktop/GD32VW553/V1_MQTT_OK/GD32VW55X_Wifi_BLE_SDK/GD32VW55x_RELEASE_V1.0.2/MSDK/plf/riscv/env\handlers.c ****           unsigned long int_sp = __RV_CSR_READ(CSR_MSCRATCH);
 1702              		.loc 1 407 28
 1703              	 #NO_APP
 1704              	.LBE57:
 407:C:/Users/stapi/OneDrive/Desktop/GD32VW553/V1_MQTT_OK/GD32VW55X_Wifi_BLE_SDK/GD32VW55x_RELEASE_V1.0.2/MSDK/plf/riscv/env\handlers.c ****           unsigned long int_sp = __RV_CSR_READ(CSR_MSCRATCH);
 1705              		.loc 1 407 13 is_stmt 0
 1706 03fc 13070010 		li	a4,256
 407:C:/Users/stapi/OneDrive/Desktop/GD32VW553/V1_MQTT_OK/GD32VW55X_Wifi_BLE_SDK/GD32VW55x_RELEASE_V1.0.2/MSDK/plf/riscv/env\handlers.c ****           unsigned long int_sp = __RV_CSR_READ(CSR_MSCRATCH);
 1707              		.loc 1 407 26
 1708 0400 93F70730 		andi	a5,a5,768
 1709              	.LVL194:
 390:C:/Users/stapi/OneDrive/Desktop/GD32VW553/V1_MQTT_OK/GD32VW55X_Wifi_BLE_SDK/GD32VW55x_RELEASE_V1.0.2/MSDK/plf/riscv/env\handlers.c **** 
 1710              		.loc 1 390 12
 1711 0404 13857901 		addi	a0,s3,23
 407:C:/Users/stapi/OneDrive/Desktop/GD32VW553/V1_MQTT_OK/GD32VW55X_Wifi_BLE_SDK/GD32VW55x_RELEASE_V1.0.2/MSDK/plf/riscv/env\handlers.c ****           unsigned long int_sp = __RV_CSR_READ(CSR_MSCRATCH);
 1712              		.loc 1 407 13
 1713 0408 E394E7DC 		bne	a5,a4,.L59
 1714              	.LBB58:
 408:C:/Users/stapi/OneDrive/Desktop/GD32VW553/V1_MQTT_OK/GD32VW55X_Wifi_BLE_SDK/GD32VW55x_RELEASE_V1.0.2/MSDK/plf/riscv/env\handlers.c ****           int32_t sk_num = (uint32_t)_sp - int_sp;
 1715              		.loc 1 408 11 is_stmt 1
 1716              	.LBB56:
 408:C:/Users/stapi/OneDrive/Desktop/GD32VW553/V1_MQTT_OK/GD32VW55X_Wifi_BLE_SDK/GD32VW55x_RELEASE_V1.0.2/MSDK/plf/riscv/env\handlers.c ****           int32_t sk_num = (uint32_t)_sp - int_sp;
 1717              		.loc 1 408 34
 408:C:/Users/stapi/OneDrive/Desktop/GD32VW553/V1_MQTT_OK/GD32VW55X_Wifi_BLE_SDK/GD32VW55x_RELEASE_V1.0.2/MSDK/plf/riscv/env\handlers.c ****           int32_t sk_num = (uint32_t)_sp - int_sp;
 1718              		.loc 1 408 34
 1719              	 #APP
 1720              	# 408 "C:/Users/stapi/OneDrive/Desktop/GD32VW553/V1_MQTT_OK/GD32VW55X_Wifi_BLE_SDK/GD32VW55x_RELEAS
 1721              		csrr s4, 0x340
 1722              	# 0 "" 2
 1723              	.LVL195:
 408:C:/Users/stapi/OneDrive/Desktop/GD32VW553/V1_MQTT_OK/GD32VW55X_Wifi_BLE_SDK/GD32VW55x_RELEASE_V1.0.2/MSDK/plf/riscv/env\handlers.c ****           int32_t sk_num = (uint32_t)_sp - int_sp;
 1724              		.loc 1 408 34
 1725              	 #NO_APP
 1726              	.LBE56:
 409:C:/Users/stapi/OneDrive/Desktop/GD32VW553/V1_MQTT_OK/GD32VW55X_Wifi_BLE_SDK/GD32VW55x_RELEASE_V1.0.2/MSDK/plf/riscv/env\handlers.c **** #ifndef __riscv_32e
 1727              		.loc 1 409 11
 409:C:/Users/stapi/OneDrive/Desktop/GD32VW553/V1_MQTT_OK/GD32VW55X_Wifi_BLE_SDK/GD32VW55x_RELEASE_V1.0.2/MSDK/plf/riscv/env\handlers.c **** #ifndef __riscv_32e
 1728              		.loc 1 409 42 is_stmt 0
 1729 0410 37040000 		lui	s0,%hi(_sp)
 1730 0414 13040400 		addi	s0,s0,%lo(_sp)
 1731 0418 33044441 		sub	s0,s0,s4
 1732              	.LVL196:
 411:C:/Users/stapi/OneDrive/Desktop/GD32VW553/V1_MQTT_OK/GD32VW55X_Wifi_BLE_SDK/GD32VW55x_RELEASE_V1.0.2/MSDK/plf/riscv/env\handlers.c **** #else
 1733              		.loc 1 411 9 is_stmt 1
 417:C:/Users/stapi/OneDrive/Desktop/GD32VW553/V1_MQTT_OK/GD32VW55X_Wifi_BLE_SDK/GD32VW55x_RELEASE_V1.0.2/MSDK/plf/riscv/env\handlers.c **** #endif
 1734              		.loc 1 417 9
 420:C:/Users/stapi/OneDrive/Desktop/GD32VW553/V1_MQTT_OK/GD32VW55X_Wifi_BLE_SDK/GD32VW55x_RELEASE_V1.0.2/MSDK/plf/riscv/env\handlers.c ****             sk_num = WR_REGION_EPAGE - offset - 6 - num;
 1735              		.loc 1 420 9
 420:C:/Users/stapi/OneDrive/Desktop/GD32VW553/V1_MQTT_OK/GD32VW55X_Wifi_BLE_SDK/GD32VW55x_RELEASE_V1.0.2/MSDK/plf/riscv/env\handlers.c ****             sk_num = WR_REGION_EPAGE - offset - 6 - num;
 1736              		.loc 1 420 36 is_stmt 0
 1737 041c 9389D90B 		addi	s3,s3,189
 1738 0420 A299     		add	s3,s0,s3
 420:C:/Users/stapi/OneDrive/Desktop/GD32VW553/V1_MQTT_OK/GD32VW55X_Wifi_BLE_SDK/GD32VW55x_RELEASE_V1.0.2/MSDK/plf/riscv/env\handlers.c ****             sk_num = WR_REGION_EPAGE - offset - 6 - num;
 1739              		.loc 1 420 12
 1740 0422 B7F73F00 		li	a5,4190208
 1741 0426 63F53701 		bleu	s3,a5,.L60
 1742 042a 0564     		li	s0,4096
 1743              	.LVL197:
 1744 042c 130434F4 		addi	s0,s0,-189
 1745              	.L60:
 1746              	.LVL198:
 424:C:/Users/stapi/OneDrive/Desktop/GD32VW553/V1_MQTT_OK/GD32VW55X_Wifi_BLE_SDK/GD32VW55x_RELEASE_V1.0.2/MSDK/plf/riscv/env\handlers.c ****         prefix[0] = num & 0xFF;
 1747              		.loc 1 424 9 is_stmt 1
 425:C:/Users/stapi/OneDrive/Desktop/GD32VW553/V1_MQTT_OK/GD32VW55X_Wifi_BLE_SDK/GD32VW55x_RELEASE_V1.0.2/MSDK/plf/riscv/env\handlers.c ****         prefix[1] = (num >> 8) & 0xFF;
 1748              		.loc 1 425 9
 426:C:/Users/stapi/OneDrive/Desktop/GD32VW553/V1_MQTT_OK/GD32VW55X_Wifi_BLE_SDK/GD32VW55x_RELEASE_V1.0.2/MSDK/plf/riscv/env\handlers.c ****         raw_flash_write(offset, (void *)prefix, 3);
 1749              		.loc 1 426 9
 427:C:/Users/stapi/OneDrive/Desktop/GD32VW553/V1_MQTT_OK/GD32VW55X_Wifi_BLE_SDK/GD32VW55x_RELEASE_V1.0.2/MSDK/plf/riscv/env\handlers.c ****         offset += 3;
 1750              		.loc 1 427 9 is_stmt 0
 1751 0430 B7E93F00 		li	s3,4186112
 424:C:/Users/stapi/OneDrive/Desktop/GD32VW553/V1_MQTT_OK/GD32VW55X_Wifi_BLE_SDK/GD32VW55x_RELEASE_V1.0.2/MSDK/plf/riscv/env\handlers.c ****         prefix[0] = num & 0xFF;
 1752              		.loc 1 424 13
 1753 0434 9307040A 		addi	a5,s0,160
 1754              	.LVL199:
 427:C:/Users/stapi/OneDrive/Desktop/GD32VW553/V1_MQTT_OK/GD32VW55X_Wifi_BLE_SDK/GD32VW55x_RELEASE_V1.0.2/MSDK/plf/riscv/env\handlers.c ****         offset += 3;
 1755              		.loc 1 427 9
 1756 0438 0D46     		li	a2,3
 1757 043a 2C08     		addi	a1,sp,24
 1758 043c 13857901 		addi	a0,s3,23
 425:C:/Users/stapi/OneDrive/Desktop/GD32VW553/V1_MQTT_OK/GD32VW55X_Wifi_BLE_SDK/GD32VW55x_RELEASE_V1.0.2/MSDK/plf/riscv/env\handlers.c ****         prefix[1] = (num >> 8) & 0xFF;
 1759              		.loc 1 425 19
 1760 0440 231CF100 		sh	a5,24(sp)
 427:C:/Users/stapi/OneDrive/Desktop/GD32VW553/V1_MQTT_OK/GD32VW55X_Wifi_BLE_SDK/GD32VW55x_RELEASE_V1.0.2/MSDK/plf/riscv/env\handlers.c ****         offset += 3;
 1761              		.loc 1 427 9 is_stmt 1
 1762 0444 97000000 		call	raw_flash_write
 1762      E7800000 
 1763              	.LVL200:
 428:C:/Users/stapi/OneDrive/Desktop/GD32VW553/V1_MQTT_OK/GD32VW55X_Wifi_BLE_SDK/GD32VW55x_RELEASE_V1.0.2/MSDK/plf/riscv/env\handlers.c **** 
 1764              		.loc 1 428 9
 430:C:/Users/stapi/OneDrive/Desktop/GD32VW553/V1_MQTT_OK/GD32VW55X_Wifi_BLE_SDK/GD32VW55x_RELEASE_V1.0.2/MSDK/plf/riscv/env\handlers.c ****         raw_flash_write(offset, (void *)sp, num);
 1765              		.loc 1 430 9
 431:C:/Users/stapi/OneDrive/Desktop/GD32VW553/V1_MQTT_OK/GD32VW55X_Wifi_BLE_SDK/GD32VW55x_RELEASE_V1.0.2/MSDK/plf/riscv/env\handlers.c ****         offset += num;
 1766              		.loc 1 431 9
 1767 044c 1306000A 		li	a2,160
 1768 0450 A685     		mv	a1,s1
 1769 0452 1385A901 		addi	a0,s3,26
 1770 0456 97000000 		call	raw_flash_write
 1770      E7800000 
 1771              	.LVL201:
 432:C:/Users/stapi/OneDrive/Desktop/GD32VW553/V1_MQTT_OK/GD32VW55X_Wifi_BLE_SDK/GD32VW55x_RELEASE_V1.0.2/MSDK/plf/riscv/env\handlers.c **** 
 1772              		.loc 1 432 9
 434:C:/Users/stapi/OneDrive/Desktop/GD32VW553/V1_MQTT_OK/GD32VW55X_Wifi_BLE_SDK/GD32VW55x_RELEASE_V1.0.2/MSDK/plf/riscv/env\handlers.c ****         raw_flash_write(offset, (void *)int_sp, num);
 1773              		.loc 1 434 9
 435:C:/Users/stapi/OneDrive/Desktop/GD32VW553/V1_MQTT_OK/GD32VW55X_Wifi_BLE_SDK/GD32VW55x_RELEASE_V1.0.2/MSDK/plf/riscv/env\handlers.c ****         offset += num;
 1774              		.loc 1 435 9
 1775 045e 2286     		mv	a2,s0
 1776 0460 D285     		mv	a1,s4
 1777 0462 1385A90B 		addi	a0,s3,186
 1778 0466 97000000 		call	raw_flash_write
 1778      E7800000 
 1779              	.LVL202:
 436:C:/Users/stapi/OneDrive/Desktop/GD32VW553/V1_MQTT_OK/GD32VW55X_Wifi_BLE_SDK/GD32VW55x_RELEASE_V1.0.2/MSDK/plf/riscv/env\handlers.c ****     }
 1780              		.loc 1 436 9
 436:C:/Users/stapi/OneDrive/Desktop/GD32VW553/V1_MQTT_OK/GD32VW55X_Wifi_BLE_SDK/GD32VW55x_RELEASE_V1.0.2/MSDK/plf/riscv/env\handlers.c ****     }
 1781              		.loc 1 436 16 is_stmt 0
 1782 046e 1385A90B 		addi	a0,s3,186
 1783 0472 B1BB     		j	.L115
 1784              	.LVL203:
 1785              	.L70:
 1786              	.LBE58:
 1787              	.LBE59:
 1788              	.LBE82:
 1789              	.LBB83:
 1790              	.LBB74:
 234:C:/Users/stapi/OneDrive/Desktop/GD32VW553/V1_MQTT_OK/GD32VW55X_Wifi_BLE_SDK/GD32VW55x_RELEASE_V1.0.2/MSDK/plf/riscv/env\handlers.c ****                 for (i = 0; i < 4; i++) {
 1791              		.loc 1 234 18 is_stmt 1
 234:C:/Users/stapi/OneDrive/Desktop/GD32VW553/V1_MQTT_OK/GD32VW55X_Wifi_BLE_SDK/GD32VW55x_RELEASE_V1.0.2/MSDK/plf/riscv/env\handlers.c ****                 for (i = 0; i < 4; i++) {
 1792              		.loc 1 234 21 is_stmt 0
 1793 0474 6314E70F 		bne	a4,t5,.L75
 234:C:/Users/stapi/OneDrive/Desktop/GD32VW553/V1_MQTT_OK/GD32VW55X_Wifi_BLE_SDK/GD32VW55x_RELEASE_V1.0.2/MSDK/plf/riscv/env\handlers.c ****                 for (i = 0; i < 4; i++) {
 1794              		.loc 1 234 52
 1795 0478 3307F440 		sub	a4,s0,a5
 234:C:/Users/stapi/OneDrive/Desktop/GD32VW553/V1_MQTT_OK/GD32VW55X_Wifi_BLE_SDK/GD32VW55x_RELEASE_V1.0.2/MSDK/plf/riscv/env\handlers.c ****                 for (i = 0; i < 4; i++) {
 1796              		.loc 1 234 40
 1797 047c 6356E51C 		ble	a4,a0,.L69
 1798 0480 0147     		li	a4,0
 235:C:/Users/stapi/OneDrive/Desktop/GD32VW553/V1_MQTT_OK/GD32VW55X_Wifi_BLE_SDK/GD32VW55x_RELEASE_V1.0.2/MSDK/plf/riscv/env\handlers.c ****                     if (p_buf[idx] != cmdd[i]) {
 1799              		.loc 1 235 17
 1800 0482 1146     		li	a2,4
 1801              	.LVL204:
 1802              	.L77:
 236:C:/Users/stapi/OneDrive/Desktop/GD32VW553/V1_MQTT_OK/GD32VW55X_Wifi_BLE_SDK/GD32VW55x_RELEASE_V1.0.2/MSDK/plf/riscv/env\handlers.c ****                         return false;
 1803              		.loc 1 236 21 is_stmt 1
 236:C:/Users/stapi/OneDrive/Desktop/GD32VW553/V1_MQTT_OK/GD32VW55X_Wifi_BLE_SDK/GD32VW55x_RELEASE_V1.0.2/MSDK/plf/riscv/env\handlers.c ****                         return false;
 1804              		.loc 1 236 30 is_stmt 0
 1805 0484 B386E700 		add	a3,a5,a4
 1806 0488 8C10     		addi	a1,sp,96
 1807              	.LVL205:
 1808 048a 93F6F60F 		andi	a3,a3,0xff
 1809 048e AE96     		add	a3,a1,a3
 236:C:/Users/stapi/OneDrive/Desktop/GD32VW553/V1_MQTT_OK/GD32VW55X_Wifi_BLE_SDK/GD32VW55x_RELEASE_V1.0.2/MSDK/plf/riscv/env\handlers.c ****                         return false;
 1810              		.loc 1 236 24
 1811 0490 838506FC 		lb	a1,-64(a3)
 1812              	.LVL206:
 1813 0494 1408     		addi	a3,sp,16
 1814 0496 BA96     		add	a3,a3,a4
 1815 0498 83860600 		lb	a3,0(a3)
 1816 049c 6396D504 		bne	a1,a3,.L66
 239:C:/Users/stapi/OneDrive/Desktop/GD32VW553/V1_MQTT_OK/GD32VW55X_Wifi_BLE_SDK/GD32VW55x_RELEASE_V1.0.2/MSDK/plf/riscv/env\handlers.c ****                 }
 1817              		.loc 1 239 21 is_stmt 1
 1818              	.LVL207:
 235:C:/Users/stapi/OneDrive/Desktop/GD32VW553/V1_MQTT_OK/GD32VW55X_Wifi_BLE_SDK/GD32VW55x_RELEASE_V1.0.2/MSDK/plf/riscv/env\handlers.c ****                     if (p_buf[idx] != cmdd[i]) {
 1819              		.loc 1 235 36
 235:C:/Users/stapi/OneDrive/Desktop/GD32VW553/V1_MQTT_OK/GD32VW55X_Wifi_BLE_SDK/GD32VW55x_RELEASE_V1.0.2/MSDK/plf/riscv/env\handlers.c ****                     if (p_buf[idx] != cmdd[i]) {
 1820              		.loc 1 235 29
 235:C:/Users/stapi/OneDrive/Desktop/GD32VW553/V1_MQTT_OK/GD32VW55X_Wifi_BLE_SDK/GD32VW55x_RELEASE_V1.0.2/MSDK/plf/riscv/env\handlers.c ****                     if (p_buf[idx] != cmdd[i]) {
 1821              		.loc 1 235 17 is_stmt 0
 1822 04a0 0507     		addi	a4,a4,1
 1823              	.LVL208:
 1824 04a2 E311C7FE 		bne	a4,a2,.L77
 241:C:/Users/stapi/OneDrive/Desktop/GD32VW553/V1_MQTT_OK/GD32VW55X_Wifi_BLE_SDK/GD32VW55x_RELEASE_V1.0.2/MSDK/plf/riscv/env\handlers.c ****                 // Trap from task
 1825              		.loc 1 241 17 is_stmt 1
 1826 04a6 2685     		mv	a0,s1
 1827 04a8 97000000 		call	Exception_DumpFrame
 1827      E7800000 
 1828              	.LVL209:
 243:C:/Users/stapi/OneDrive/Desktop/GD32VW553/V1_MQTT_OK/GD32VW55X_Wifi_BLE_SDK/GD32VW55x_RELEASE_V1.0.2/MSDK/plf/riscv/env\handlers.c ****                     print_reg("SP     :      0x", 16, sp);
 1829              		.loc 1 243 17
 1830              	.LBB67:
 243:C:/Users/stapi/OneDrive/Desktop/GD32VW553/V1_MQTT_OK/GD32VW55X_Wifi_BLE_SDK/GD32VW55x_RELEASE_V1.0.2/MSDK/plf/riscv/env\handlers.c ****                     print_reg("SP     :      0x", 16, sp);
 1831              		.loc 1 243 35
 243:C:/Users/stapi/OneDrive/Desktop/GD32VW553/V1_MQTT_OK/GD32VW55X_Wifi_BLE_SDK/GD32VW55x_RELEASE_V1.0.2/MSDK/plf/riscv/env\handlers.c ****                     print_reg("SP     :      0x", 16, sp);
 1832              		.loc 1 243 35
 1833              	 #APP
 1834              	# 243 "C:/Users/stapi/OneDrive/Desktop/GD32VW553/V1_MQTT_OK/GD32VW55X_Wifi_BLE_SDK/GD32VW55x_RELEAS
 1835              		csrr a5, 0x7C4
 1836              	# 0 "" 2
 1837              	.LVL210:
 243:C:/Users/stapi/OneDrive/Desktop/GD32VW553/V1_MQTT_OK/GD32VW55X_Wifi_BLE_SDK/GD32VW55x_RELEASE_V1.0.2/MSDK/plf/riscv/env\handlers.c ****                     print_reg("SP     :      0x", 16, sp);
 1838              		.loc 1 243 35
 1839              	 #NO_APP
 1840              	.LBE67:
 243:C:/Users/stapi/OneDrive/Desktop/GD32VW553/V1_MQTT_OK/GD32VW55X_Wifi_BLE_SDK/GD32VW55x_RELEASE_V1.0.2/MSDK/plf/riscv/env\handlers.c ****                     print_reg("SP     :      0x", 16, sp);
 1841              		.loc 1 243 33 is_stmt 0
 1842 04b4 93F70730 		andi	a5,a5,768
 1843              	.LVL211:
 243:C:/Users/stapi/OneDrive/Desktop/GD32VW553/V1_MQTT_OK/GD32VW55X_Wifi_BLE_SDK/GD32VW55x_RELEASE_V1.0.2/MSDK/plf/riscv/env\handlers.c ****                     print_reg("SP     :      0x", 16, sp);
 1844              		.loc 1 243 20
 1845 04b8 B1E7     		bne	a5,zero,.L78
 244:C:/Users/stapi/OneDrive/Desktop/GD32VW553/V1_MQTT_OK/GD32VW55X_Wifi_BLE_SDK/GD32VW55x_RELEASE_V1.0.2/MSDK/plf/riscv/env\handlers.c ****                     xCurrentTaskDumpInfo(sp);
 1846              		.loc 1 244 21 is_stmt 1
 1847 04ba 37050000 		lui	a0,%hi(.LC29)
 1848 04be 13050500 		addi	a0,a0,%lo(.LC29)
 1849 04c2 2686     		mv	a2,s1
 1850 04c4 C145     		li	a1,16
 1851 04c6 97000000 		call	print_reg
 1851      E7800000 
 1852              	.LVL212:
 245:C:/Users/stapi/OneDrive/Desktop/GD32VW553/V1_MQTT_OK/GD32VW55X_Wifi_BLE_SDK/GD32VW55x_RELEASE_V1.0.2/MSDK/plf/riscv/env\handlers.c ****                 }
 1853              		.loc 1 245 21
 1854 04ce 2685     		mv	a0,s1
 1855 04d0 97000000 		call	xCurrentTaskDumpInfo
 1855      E7800000 
 1856              	.LVL213:
 1857              	.L79:
 266:C:/Users/stapi/OneDrive/Desktop/GD32VW553/V1_MQTT_OK/GD32VW55X_Wifi_BLE_SDK/GD32VW55x_RELEASE_V1.0.2/MSDK/plf/riscv/env\handlers.c ****                 return true;
 1858              		.loc 1 266 17
 1859 04d8 93050003 		li	a1,48
 1860 04dc 13050900 		addi	a0,s2,%lo(.LC31)
 1861              	.L117:
 277:C:/Users/stapi/OneDrive/Desktop/GD32VW553/V1_MQTT_OK/GD32VW55X_Wifi_BLE_SDK/GD32VW55x_RELEASE_V1.0.2/MSDK/plf/riscv/env\handlers.c **** 
 1862              		.loc 1 277 17 is_stmt 0
 1863 04e0 97000000 		call	log_uart_put_data
 1863      E7800000 
 1864              	.LVL214:
 279:C:/Users/stapi/OneDrive/Desktop/GD32VW553/V1_MQTT_OK/GD32VW55X_Wifi_BLE_SDK/GD32VW55x_RELEASE_V1.0.2/MSDK/plf/riscv/env\handlers.c ****             }
 1865              		.loc 1 279 17 is_stmt 1
 1866              	.L66:
 1867              	.LBE74:
 1868              	.LBE83:
 528:C:/Users/stapi/OneDrive/Desktop/GD32VW553/V1_MQTT_OK/GD32VW55X_Wifi_BLE_SDK/GD32VW55x_RELEASE_V1.0.2/MSDK/plf/riscv/env\handlers.c ****             log_uart_putc_noint(' ');
 1869              		.loc 1 528 13
 1870 04e8 13053002 		li	a0,35
 1871 04ec 97000000 		call	log_uart_putc_noint
 1871      E7800000 
 1872              	.LVL215:
 529:C:/Users/stapi/OneDrive/Desktop/GD32VW553/V1_MQTT_OK/GD32VW55X_Wifi_BLE_SDK/GD32VW55x_RELEASE_V1.0.2/MSDK/plf/riscv/env\handlers.c ****             uart_index = 0;
 1873              		.loc 1 529 13
 1874 04f4 13050002 		li	a0,32
 1875 04f8 97000000 		call	log_uart_putc_noint
 1875      E7800000 
 1876              	.LVL216:
 530:C:/Users/stapi/OneDrive/Desktop/GD32VW553/V1_MQTT_OK/GD32VW55X_Wifi_BLE_SDK/GD32VW55x_RELEASE_V1.0.2/MSDK/plf/riscv/env\handlers.c ****         } else if (ch == '\b') { /* non-destructive backspace */
 1877              		.loc 1 530 13
 530:C:/Users/stapi/OneDrive/Desktop/GD32VW553/V1_MQTT_OK/GD32VW55X_Wifi_BLE_SDK/GD32VW55x_RELEASE_V1.0.2/MSDK/plf/riscv/env\handlers.c ****         } else if (ch == '\b') { /* non-destructive backspace */
 1878              		.loc 1 530 24 is_stmt 0
 1879 0500 0144     		li	s0,0
 1880 0502 89B3     		j	.L63
 1881              	.LVL217:
 1882              	.L78:
 1883              	.LBB84:
 1884              	.LBB75:
 248:C:/Users/stapi/OneDrive/Desktop/GD32VW553/V1_MQTT_OK/GD32VW55X_Wifi_BLE_SDK/GD32VW55x_RELEASE_V1.0.2/MSDK/plf/riscv/env\handlers.c ****                     unsigned long int_sp = __RV_CSR_READ(CSR_MSCRATCH);
 1885              		.loc 1 248 22 is_stmt 1
 1886              	.LBB68:
 248:C:/Users/stapi/OneDrive/Desktop/GD32VW553/V1_MQTT_OK/GD32VW55X_Wifi_BLE_SDK/GD32VW55x_RELEASE_V1.0.2/MSDK/plf/riscv/env\handlers.c ****                     unsigned long int_sp = __RV_CSR_READ(CSR_MSCRATCH);
 1887              		.loc 1 248 40
 248:C:/Users/stapi/OneDrive/Desktop/GD32VW553/V1_MQTT_OK/GD32VW55X_Wifi_BLE_SDK/GD32VW55x_RELEASE_V1.0.2/MSDK/plf/riscv/env\handlers.c ****                     unsigned long int_sp = __RV_CSR_READ(CSR_MSCRATCH);
 1888              		.loc 1 248 40
 1889              	 #APP
 1890              	# 248 "C:/Users/stapi/OneDrive/Desktop/GD32VW553/V1_MQTT_OK/GD32VW55X_Wifi_BLE_SDK/GD32VW55x_RELEAS
 1891              		csrr a5, 0x7C4
 1892              	# 0 "" 2
 1893              	.LVL218:
 248:C:/Users/stapi/OneDrive/Desktop/GD32VW553/V1_MQTT_OK/GD32VW55X_Wifi_BLE_SDK/GD32VW55x_RELEASE_V1.0.2/MSDK/plf/riscv/env\handlers.c ****                     unsigned long int_sp = __RV_CSR_READ(CSR_MSCRATCH);
 1894              		.loc 1 248 40
 1895              	 #NO_APP
 1896              	.LBE68:
 248:C:/Users/stapi/OneDrive/Desktop/GD32VW553/V1_MQTT_OK/GD32VW55X_Wifi_BLE_SDK/GD32VW55x_RELEASE_V1.0.2/MSDK/plf/riscv/env\handlers.c ****                     unsigned long int_sp = __RV_CSR_READ(CSR_MSCRATCH);
 1897              		.loc 1 248 25 is_stmt 0
 1898 0508 13070010 		li	a4,256
 248:C:/Users/stapi/OneDrive/Desktop/GD32VW553/V1_MQTT_OK/GD32VW55X_Wifi_BLE_SDK/GD32VW55x_RELEASE_V1.0.2/MSDK/plf/riscv/env\handlers.c ****                     unsigned long int_sp = __RV_CSR_READ(CSR_MSCRATCH);
 1899              		.loc 1 248 38
 1900 050c 93F70730 		andi	a5,a5,768
 1901              	.LVL219:
 248:C:/Users/stapi/OneDrive/Desktop/GD32VW553/V1_MQTT_OK/GD32VW55X_Wifi_BLE_SDK/GD32VW55x_RELEASE_V1.0.2/MSDK/plf/riscv/env\handlers.c ****                     unsigned long int_sp = __RV_CSR_READ(CSR_MSCRATCH);
 1902              		.loc 1 248 25
 1903 0510 E394E7FC 		bne	a5,a4,.L79
 1904              	.LBB69:
 249:C:/Users/stapi/OneDrive/Desktop/GD32VW553/V1_MQTT_OK/GD32VW55X_Wifi_BLE_SDK/GD32VW55x_RELEASE_V1.0.2/MSDK/plf/riscv/env\handlers.c ****                     print_reg("SP     :      0x", 16, int_sp);
 1905              		.loc 1 249 21 is_stmt 1
 1906              	.LBB63:
 249:C:/Users/stapi/OneDrive/Desktop/GD32VW553/V1_MQTT_OK/GD32VW55X_Wifi_BLE_SDK/GD32VW55x_RELEASE_V1.0.2/MSDK/plf/riscv/env\handlers.c ****                     print_reg("SP     :      0x", 16, int_sp);
 1907              		.loc 1 249 44
 249:C:/Users/stapi/OneDrive/Desktop/GD32VW553/V1_MQTT_OK/GD32VW55X_Wifi_BLE_SDK/GD32VW55x_RELEASE_V1.0.2/MSDK/plf/riscv/env\handlers.c ****                     print_reg("SP     :      0x", 16, int_sp);
 1908              		.loc 1 249 44
 1909              	 #APP
 1910              	# 249 "C:/Users/stapi/OneDrive/Desktop/GD32VW553/V1_MQTT_OK/GD32VW55X_Wifi_BLE_SDK/GD32VW55x_RELEAS
 1911              		csrr s0, 0x340
 1912              	# 0 "" 2
 1913              	.LVL220:
 249:C:/Users/stapi/OneDrive/Desktop/GD32VW553/V1_MQTT_OK/GD32VW55X_Wifi_BLE_SDK/GD32VW55x_RELEASE_V1.0.2/MSDK/plf/riscv/env\handlers.c ****                     print_reg("SP     :      0x", 16, int_sp);
 1914              		.loc 1 249 44
 1915              	 #NO_APP
 1916              	.LBE63:
 250:C:/Users/stapi/OneDrive/Desktop/GD32VW553/V1_MQTT_OK/GD32VW55X_Wifi_BLE_SDK/GD32VW55x_RELEASE_V1.0.2/MSDK/plf/riscv/env\handlers.c **** #ifndef __riscv_32e
 1917              		.loc 1 250 21
 1918 0518 37050000 		lui	a0,%hi(.LC29)
 1919 051c 2286     		mv	a2,s0
 1920 051e C145     		li	a1,16
 1921 0520 13050500 		addi	a0,a0,%lo(.LC29)
 1922 0524 97000000 		call	print_reg
 1922      E7800000 
 1923              	.LVL221:
 252:C:/Users/stapi/OneDrive/Desktop/GD32VW553/V1_MQTT_OK/GD32VW55X_Wifi_BLE_SDK/GD32VW55x_RELEASE_V1.0.2/MSDK/plf/riscv/env\handlers.c **** #else
 1924              		.loc 1 252 21
 258:C:/Users/stapi/OneDrive/Desktop/GD32VW553/V1_MQTT_OK/GD32VW55X_Wifi_BLE_SDK/GD32VW55x_RELEASE_V1.0.2/MSDK/plf/riscv/env\handlers.c **** #endif
 1925              		.loc 1 258 21
 260:C:/Users/stapi/OneDrive/Desktop/GD32VW553/V1_MQTT_OK/GD32VW55X_Wifi_BLE_SDK/GD32VW55x_RELEASE_V1.0.2/MSDK/plf/riscv/env\handlers.c ****                     dumpStackInfo(sp, num);
 1926              		.loc 1 260 21
 1927 052c 37050000 		lui	a0,%hi(.LC30)
 1928 0530 DD45     		li	a1,23
 1929 0532 13050500 		addi	a0,a0,%lo(.LC30)
 1930 0536 97000000 		call	log_uart_put_data
 1930      E7800000 
 1931              	.LVL222:
 261:C:/Users/stapi/OneDrive/Desktop/GD32VW553/V1_MQTT_OK/GD32VW55X_Wifi_BLE_SDK/GD32VW55x_RELEASE_V1.0.2/MSDK/plf/riscv/env\handlers.c ****                     num = (uint32_t)_sp - int_sp;
 1932              		.loc 1 261 21
 1933 053e 2685     		mv	a0,s1
 1934 0540 9305000A 		li	a1,160
 1935 0544 97000000 		call	dumpStackInfo
 1935      E7800000 
 1936              	.LVL223:
 262:C:/Users/stapi/OneDrive/Desktop/GD32VW553/V1_MQTT_OK/GD32VW55X_Wifi_BLE_SDK/GD32VW55x_RELEASE_V1.0.2/MSDK/plf/riscv/env\handlers.c ****                     dumpStackInfo(int_sp, num);
 1937              		.loc 1 262 21
 263:C:/Users/stapi/OneDrive/Desktop/GD32VW553/V1_MQTT_OK/GD32VW55X_Wifi_BLE_SDK/GD32VW55x_RELEASE_V1.0.2/MSDK/plf/riscv/env\handlers.c ****                 }
 1938              		.loc 1 263 21
 1939 054c B3858B40 		sub	a1,s7,s0
 1940 0550 2285     		mv	a0,s0
 1941 0552 97000000 		call	dumpStackInfo
 1941      E7800000 
 1942              	.LVL224:
 1943 055a BDBF     		j	.L79
 1944              	.LVL225:
 1945              	.L75:
 1946              	.LBE69:
 269:C:/Users/stapi/OneDrive/Desktop/GD32VW553/V1_MQTT_OK/GD32VW55X_Wifi_BLE_SDK/GD32VW55x_RELEASE_V1.0.2/MSDK/plf/riscv/env\handlers.c ****                 for (i = 0; i < 4; i++) {
 1947              		.loc 1 269 18
 269:C:/Users/stapi/OneDrive/Desktop/GD32VW553/V1_MQTT_OK/GD32VW55X_Wifi_BLE_SDK/GD32VW55x_RELEASE_V1.0.2/MSDK/plf/riscv/env\handlers.c ****                 for (i = 0; i < 4; i++) {
 1948              		.loc 1 269 21 is_stmt 0
 1949 055c 6316F70F 		bne	a4,t6,.L69
 269:C:/Users/stapi/OneDrive/Desktop/GD32VW553/V1_MQTT_OK/GD32VW55X_Wifi_BLE_SDK/GD32VW55x_RELEASE_V1.0.2/MSDK/plf/riscv/env\handlers.c ****                 for (i = 0; i < 4; i++) {
 1950              		.loc 1 269 52
 1951 0560 3307F440 		sub	a4,s0,a5
 269:C:/Users/stapi/OneDrive/Desktop/GD32VW553/V1_MQTT_OK/GD32VW55X_Wifi_BLE_SDK/GD32VW55x_RELEASE_V1.0.2/MSDK/plf/riscv/env\handlers.c ****                 for (i = 0; i < 4; i++) {
 1952              		.loc 1 269 40
 1953 0564 6352E50E 		ble	a4,a0,.L69
 1954 0568 0147     		li	a4,0
 270:C:/Users/stapi/OneDrive/Desktop/GD32VW553/V1_MQTT_OK/GD32VW55X_Wifi_BLE_SDK/GD32VW55x_RELEASE_V1.0.2/MSDK/plf/riscv/env\handlers.c ****                     if (p_buf[idx] != cmdh[i]) {
 1955              		.loc 1 270 17
 1956 056a 1146     		li	a2,4
 1957              	.LVL226:
 1958              	.L80:
 271:C:/Users/stapi/OneDrive/Desktop/GD32VW553/V1_MQTT_OK/GD32VW55X_Wifi_BLE_SDK/GD32VW55x_RELEASE_V1.0.2/MSDK/plf/riscv/env\handlers.c ****                         return false;
 1959              		.loc 1 271 21 is_stmt 1
 271:C:/Users/stapi/OneDrive/Desktop/GD32VW553/V1_MQTT_OK/GD32VW55X_Wifi_BLE_SDK/GD32VW55x_RELEASE_V1.0.2/MSDK/plf/riscv/env\handlers.c ****                         return false;
 1960              		.loc 1 271 30 is_stmt 0
 1961 056c B386E700 		add	a3,a5,a4
 1962 0570 8C10     		addi	a1,sp,96
 1963              	.LVL227:
 1964 0572 93F6F60F 		andi	a3,a3,0xff
 1965 0576 AE96     		add	a3,a1,a3
 271:C:/Users/stapi/OneDrive/Desktop/GD32VW553/V1_MQTT_OK/GD32VW55X_Wifi_BLE_SDK/GD32VW55x_RELEASE_V1.0.2/MSDK/plf/riscv/env\handlers.c ****                         return false;
 1966              		.loc 1 271 24
 1967 0578 838506FC 		lb	a1,-64(a3)
 1968              	.LVL228:
 1969 057c 5408     		addi	a3,sp,20
 1970 057e BA96     		add	a3,a3,a4
 1971 0580 83860600 		lb	a3,0(a3)
 1972 0584 E392D5F6 		bne	a1,a3,.L66
 274:C:/Users/stapi/OneDrive/Desktop/GD32VW553/V1_MQTT_OK/GD32VW55X_Wifi_BLE_SDK/GD32VW55x_RELEASE_V1.0.2/MSDK/plf/riscv/env\handlers.c ****                 }
 1973              		.loc 1 274 21 is_stmt 1
 1974              	.LVL229:
 270:C:/Users/stapi/OneDrive/Desktop/GD32VW553/V1_MQTT_OK/GD32VW55X_Wifi_BLE_SDK/GD32VW55x_RELEASE_V1.0.2/MSDK/plf/riscv/env\handlers.c ****                     if (p_buf[idx] != cmdh[i]) {
 1975              		.loc 1 270 36
 270:C:/Users/stapi/OneDrive/Desktop/GD32VW553/V1_MQTT_OK/GD32VW55X_Wifi_BLE_SDK/GD32VW55x_RELEASE_V1.0.2/MSDK/plf/riscv/env\handlers.c ****                     if (p_buf[idx] != cmdh[i]) {
 1976              		.loc 1 270 29
 270:C:/Users/stapi/OneDrive/Desktop/GD32VW553/V1_MQTT_OK/GD32VW55X_Wifi_BLE_SDK/GD32VW55x_RELEASE_V1.0.2/MSDK/plf/riscv/env\handlers.c ****                     if (p_buf[idx] != cmdh[i]) {
 1977              		.loc 1 270 17 is_stmt 0
 1978 0588 0507     		addi	a4,a4,1
 1979              	.LVL230:
 1980 058a E311C7FE 		bne	a4,a2,.L80
 276:C:/Users/stapi/OneDrive/Desktop/GD32VW553/V1_MQTT_OK/GD32VW55X_Wifi_BLE_SDK/GD32VW55x_RELEASE_V1.0.2/MSDK/plf/riscv/env\handlers.c ****                 log_uart_put_data((uint8_t *)"dump\r\n", strlen("dump\r\n"));
 1981              		.loc 1 276 17 is_stmt 1
 1982 058e 37050000 		lui	a0,%hi(.LC33)
 1983 0592 93058002 		li	a1,40
 1984 0596 13050500 		addi	a0,a0,%lo(.LC33)
 1985 059a 97000000 		call	log_uart_put_data
 1985      E7800000 
 1986              	.LVL231:
 277:C:/Users/stapi/OneDrive/Desktop/GD32VW553/V1_MQTT_OK/GD32VW55X_Wifi_BLE_SDK/GD32VW55x_RELEASE_V1.0.2/MSDK/plf/riscv/env\handlers.c **** 
 1987              		.loc 1 277 17
 1988 05a2 37050000 		lui	a0,%hi(.LC34)
 1989 05a6 9945     		li	a1,6
 1990 05a8 13050500 		addi	a0,a0,%lo(.LC34)
 1991 05ac 15BF     		j	.L117
 1992              	.LVL232:
 1993              	.L67:
 283:C:/Users/stapi/OneDrive/Desktop/GD32VW553/V1_MQTT_OK/GD32VW55X_Wifi_BLE_SDK/GD32VW55x_RELEASE_V1.0.2/MSDK/plf/riscv/env\handlers.c ****                 break;
 1994              		.loc 1 283 13
 283:C:/Users/stapi/OneDrive/Desktop/GD32VW553/V1_MQTT_OK/GD32VW55X_Wifi_BLE_SDK/GD32VW55x_RELEASE_V1.0.2/MSDK/plf/riscv/env\handlers.c ****                 break;
 1995              		.loc 1 283 22 is_stmt 0
 1996 05ae 9810     		addi	a4,sp,96
 1997              	.LVL233:
 1998 05b0 3E97     		add	a4,a4,a5
 1999              	.LVL234:
 283:C:/Users/stapi/OneDrive/Desktop/GD32VW553/V1_MQTT_OK/GD32VW55X_Wifi_BLE_SDK/GD32VW55x_RELEASE_V1.0.2/MSDK/plf/riscv/env\handlers.c ****                 break;
 2000              		.loc 1 283 16
 2001 05b2 030707FC 		lb	a4,-64(a4)
 2002 05b6 6309B708 		beq	a4,a1,.L69
 286:C:/Users/stapi/OneDrive/Desktop/GD32VW553/V1_MQTT_OK/GD32VW55X_Wifi_BLE_SDK/GD32VW55x_RELEASE_V1.0.2/MSDK/plf/riscv/env\handlers.c ****                 return false;
 2003              		.loc 1 286 18 is_stmt 1
 286:C:/Users/stapi/OneDrive/Desktop/GD32VW553/V1_MQTT_OK/GD32VW55X_Wifi_BLE_SDK/GD32VW55x_RELEASE_V1.0.2/MSDK/plf/riscv/env\handlers.c ****                 return false;
 2004              		.loc 1 286 31 is_stmt 0
 2005 05ba 3307F440 		sub	a4,s0,a5
 286:C:/Users/stapi/OneDrive/Desktop/GD32VW553/V1_MQTT_OK/GD32VW55X_Wifi_BLE_SDK/GD32VW55x_RELEASE_V1.0.2/MSDK/plf/riscv/env\handlers.c ****                 return false;
 2006              		.loc 1 286 21
 2007 05be E3D5E6F2 		ble	a4,a3,.L66
 2008 05c2 F142     		li	t0,28
 2009              	.LVL235:
 2010              	.L84:
 291:C:/Users/stapi/OneDrive/Desktop/GD32VW553/V1_MQTT_OK/GD32VW55X_Wifi_BLE_SDK/GD32VW55x_RELEASE_V1.0.2/MSDK/plf/riscv/env\handlers.c ****                     start_addr |= ((p_buf[idx] - '0') << i);
 2011              		.loc 1 291 17 is_stmt 1
 291:C:/Users/stapi/OneDrive/Desktop/GD32VW553/V1_MQTT_OK/GD32VW55X_Wifi_BLE_SDK/GD32VW55x_RELEASE_V1.0.2/MSDK/plf/riscv/env\handlers.c ****                     start_addr |= ((p_buf[idx] - '0') << i);
 2012              		.loc 1 291 26 is_stmt 0
 2013 05c4 9810     		addi	a4,sp,96
 2014              	.LVL236:
 2015 05c6 3E97     		add	a4,a4,a5
 2016              	.LVL237:
 2017 05c8 030707FC 		lb	a4,-64(a4)
 291:C:/Users/stapi/OneDrive/Desktop/GD32VW553/V1_MQTT_OK/GD32VW55X_Wifi_BLE_SDK/GD32VW55x_RELEASE_V1.0.2/MSDK/plf/riscv/env\handlers.c ****                     start_addr |= ((p_buf[idx] - '0') << i);
 2018              		.loc 1 291 39
 2019 05cc 9373F70F 		andi	t2,a4,0xff
 2020 05d0 138D03FD 		addi	s10,t2,-48
 291:C:/Users/stapi/OneDrive/Desktop/GD32VW553/V1_MQTT_OK/GD32VW55X_Wifi_BLE_SDK/GD32VW55x_RELEASE_V1.0.2/MSDK/plf/riscv/env\handlers.c ****                     start_addr |= ((p_buf[idx] - '0') << i);
 2021              		.loc 1 291 20
 2022 05d4 137DFD0F 		andi	s10,s10,0xff
 2023 05d8 63E2A603 		bgtu	s10,a3,.L81
 292:C:/Users/stapi/OneDrive/Desktop/GD32VW553/V1_MQTT_OK/GD32VW55X_Wifi_BLE_SDK/GD32VW55x_RELEASE_V1.0.2/MSDK/plf/riscv/env\handlers.c ****                 }
 2024              		.loc 1 292 21 is_stmt 1
 292:C:/Users/stapi/OneDrive/Desktop/GD32VW553/V1_MQTT_OK/GD32VW55X_Wifi_BLE_SDK/GD32VW55x_RELEASE_V1.0.2/MSDK/plf/riscv/env\handlers.c ****                 }
 2025              		.loc 1 292 48 is_stmt 0
 2026 05dc 130707FD 		addi	a4,a4,-48
 2027              	.L116:
 303:C:/Users/stapi/OneDrive/Desktop/GD32VW553/V1_MQTT_OK/GD32VW55X_Wifi_BLE_SDK/GD32VW55x_RELEASE_V1.0.2/MSDK/plf/riscv/env\handlers.c ****             }
 2028              		.loc 1 303 20
 2029 05e0 8507     		addi	a5,a5,1
 2030              	.LVL238:
 298:C:/Users/stapi/OneDrive/Desktop/GD32VW553/V1_MQTT_OK/GD32VW55X_Wifi_BLE_SDK/GD32VW55x_RELEASE_V1.0.2/MSDK/plf/riscv/env\handlers.c ****                 }
 2031              		.loc 1 298 55
 2032 05e2 13174760 		sext.b	a4,a4
 298:C:/Users/stapi/OneDrive/Desktop/GD32VW553/V1_MQTT_OK/GD32VW55X_Wifi_BLE_SDK/GD32VW55x_RELEASE_V1.0.2/MSDK/plf/riscv/env\handlers.c ****                 }
 2033              		.loc 1 298 61
 2034 05e6 33175700 		sll	a4,a4,t0
 290:C:/Users/stapi/OneDrive/Desktop/GD32VW553/V1_MQTT_OK/GD32VW55X_Wifi_BLE_SDK/GD32VW55x_RELEASE_V1.0.2/MSDK/plf/riscv/env\handlers.c ****                 if (p_buf[idx] >= '0' && p_buf[idx] <= '9') {
 2035              		.loc 1 290 13
 2036 05ea F112     		addi	t0,t0,-4
 298:C:/Users/stapi/OneDrive/Desktop/GD32VW553/V1_MQTT_OK/GD32VW55X_Wifi_BLE_SDK/GD32VW55x_RELEASE_V1.0.2/MSDK/plf/riscv/env\handlers.c ****                 }
 2037              		.loc 1 298 32
 2038 05ec B3EDED00 		or	s11,s11,a4
 2039              	.LVL239:
 303:C:/Users/stapi/OneDrive/Desktop/GD32VW553/V1_MQTT_OK/GD32VW55X_Wifi_BLE_SDK/GD32VW55x_RELEASE_V1.0.2/MSDK/plf/riscv/env\handlers.c ****             }
 2040              		.loc 1 303 17 is_stmt 1
 303:C:/Users/stapi/OneDrive/Desktop/GD32VW553/V1_MQTT_OK/GD32VW55X_Wifi_BLE_SDK/GD32VW55x_RELEASE_V1.0.2/MSDK/plf/riscv/env\handlers.c ****             }
 2041              		.loc 1 303 20 is_stmt 0
 2042 05f0 93F7F70F 		andi	a5,a5,0xff
 2043              	.LVL240:
 290:C:/Users/stapi/OneDrive/Desktop/GD32VW553/V1_MQTT_OK/GD32VW55X_Wifi_BLE_SDK/GD32VW55x_RELEASE_V1.0.2/MSDK/plf/riscv/env\handlers.c ****                 if (p_buf[idx] >= '0' && p_buf[idx] <= '9') {
 2044              		.loc 1 290 34 is_stmt 1
 290:C:/Users/stapi/OneDrive/Desktop/GD32VW553/V1_MQTT_OK/GD32VW55X_Wifi_BLE_SDK/GD32VW55x_RELEASE_V1.0.2/MSDK/plf/riscv/env\handlers.c ****                 if (p_buf[idx] >= '0' && p_buf[idx] <= '9') {
 2045              		.loc 1 290 26
 290:C:/Users/stapi/OneDrive/Desktop/GD32VW553/V1_MQTT_OK/GD32VW55X_Wifi_BLE_SDK/GD32VW55x_RELEASE_V1.0.2/MSDK/plf/riscv/env\handlers.c ****                 if (p_buf[idx] >= '0' && p_buf[idx] <= '9') {
 2046              		.loc 1 290 13 is_stmt 0
 2047 05f4 E39812FD 		bne	t0,a7,.L84
 306:C:/Users/stapi/OneDrive/Desktop/GD32VW553/V1_MQTT_OK/GD32VW55X_Wifi_BLE_SDK/GD32VW55x_RELEASE_V1.0.2/MSDK/plf/riscv/env\handlers.c ****             continue;
 2048              		.loc 1 306 19
 2049 05f8 8942     		li	t0,2
 2050 05fa 1DBB     		j	.L74
 2051              	.L81:
 294:C:/Users/stapi/OneDrive/Desktop/GD32VW553/V1_MQTT_OK/GD32VW55X_Wifi_BLE_SDK/GD32VW55x_RELEASE_V1.0.2/MSDK/plf/riscv/env\handlers.c ****                     start_addr |= ((p_buf[idx] - 'a') + 10) << i;
 2052              		.loc 1 294 22 is_stmt 1
 294:C:/Users/stapi/OneDrive/Desktop/GD32VW553/V1_MQTT_OK/GD32VW55X_Wifi_BLE_SDK/GD32VW55x_RELEASE_V1.0.2/MSDK/plf/riscv/env\handlers.c ****                     start_addr |= ((p_buf[idx] - 'a') + 10) << i;
 2053              		.loc 1 294 44 is_stmt 0
 2054 05fc 138DF3F9 		addi	s10,t2,-97
 294:C:/Users/stapi/OneDrive/Desktop/GD32VW553/V1_MQTT_OK/GD32VW55X_Wifi_BLE_SDK/GD32VW55x_RELEASE_V1.0.2/MSDK/plf/riscv/env\handlers.c ****                     start_addr |= ((p_buf[idx] - 'a') + 10) << i;
 2055              		.loc 1 294 25
 2056 0600 137DFD0F 		andi	s10,s10,0xff
 2057 0604 6365A601 		bgtu	s10,a2,.L83
 295:C:/Users/stapi/OneDrive/Desktop/GD32VW553/V1_MQTT_OK/GD32VW55X_Wifi_BLE_SDK/GD32VW55x_RELEASE_V1.0.2/MSDK/plf/riscv/env\handlers.c ****                 }
 2058              		.loc 1 295 21 is_stmt 1
 295:C:/Users/stapi/OneDrive/Desktop/GD32VW553/V1_MQTT_OK/GD32VW55X_Wifi_BLE_SDK/GD32VW55x_RELEASE_V1.0.2/MSDK/plf/riscv/env\handlers.c ****                 }
 2059              		.loc 1 295 55 is_stmt 0
 2060 0608 130797FA 		addi	a4,a4,-87
 2061 060c D1BF     		j	.L116
 2062              	.L83:
 297:C:/Users/stapi/OneDrive/Desktop/GD32VW553/V1_MQTT_OK/GD32VW55X_Wifi_BLE_SDK/GD32VW55x_RELEASE_V1.0.2/MSDK/plf/riscv/env\handlers.c ****                     start_addr |= ((p_buf[idx] - 'A') + 10) << i;
 2063              		.loc 1 297 22 is_stmt 1
 297:C:/Users/stapi/OneDrive/Desktop/GD32VW553/V1_MQTT_OK/GD32VW55X_Wifi_BLE_SDK/GD32VW55x_RELEASE_V1.0.2/MSDK/plf/riscv/env\handlers.c ****                     start_addr |= ((p_buf[idx] - 'A') + 10) << i;
 2064              		.loc 1 297 44 is_stmt 0
 2065 060e 9383F3FB 		addi	t2,t2,-65
 297:C:/Users/stapi/OneDrive/Desktop/GD32VW553/V1_MQTT_OK/GD32VW55X_Wifi_BLE_SDK/GD32VW55x_RELEASE_V1.0.2/MSDK/plf/riscv/env\handlers.c ****                     start_addr |= ((p_buf[idx] - 'A') + 10) << i;
 2066              		.loc 1 297 25
 2067 0612 93F3F30F 		andi	t2,t2,0xff
 2068 0616 E36976EC 		bgtu	t2,a2,.L66
 298:C:/Users/stapi/OneDrive/Desktop/GD32VW553/V1_MQTT_OK/GD32VW55X_Wifi_BLE_SDK/GD32VW55x_RELEASE_V1.0.2/MSDK/plf/riscv/env\handlers.c ****                 }
 2069              		.loc 1 298 21 is_stmt 1
 298:C:/Users/stapi/OneDrive/Desktop/GD32VW553/V1_MQTT_OK/GD32VW55X_Wifi_BLE_SDK/GD32VW55x_RELEASE_V1.0.2/MSDK/plf/riscv/env\handlers.c ****                 }
 2070              		.loc 1 298 55 is_stmt 0
 2071 061a 130797FC 		addi	a4,a4,-55
 2072 061e C9B7     		j	.L116
 2073              	.LVL241:
 2074              	.L68:
 308:C:/Users/stapi/OneDrive/Desktop/GD32VW553/V1_MQTT_OK/GD32VW55X_Wifi_BLE_SDK/GD32VW55x_RELEASE_V1.0.2/MSDK/plf/riscv/env\handlers.c ****         case 2:
 2075              		.loc 1 308 13 is_stmt 1
 310:C:/Users/stapi/OneDrive/Desktop/GD32VW553/V1_MQTT_OK/GD32VW55X_Wifi_BLE_SDK/GD32VW55x_RELEASE_V1.0.2/MSDK/plf/riscv/env\handlers.c ****                 break;
 2076              		.loc 1 310 13
 310:C:/Users/stapi/OneDrive/Desktop/GD32VW553/V1_MQTT_OK/GD32VW55X_Wifi_BLE_SDK/GD32VW55x_RELEASE_V1.0.2/MSDK/plf/riscv/env\handlers.c ****                 break;
 2077              		.loc 1 310 22 is_stmt 0
 2078 0620 9810     		addi	a4,sp,96
 2079              	.LVL242:
 2080 0622 3E97     		add	a4,a4,a5
 2081              	.LVL243:
 2082 0624 030707FC 		lb	a4,-64(a4)
 310:C:/Users/stapi/OneDrive/Desktop/GD32VW553/V1_MQTT_OK/GD32VW55X_Wifi_BLE_SDK/GD32VW55x_RELEASE_V1.0.2/MSDK/plf/riscv/env\handlers.c ****                 break;
 2083              		.loc 1 310 16
 2084 0628 6300B702 		beq	a4,a1,.L69
 314:C:/Users/stapi/OneDrive/Desktop/GD32VW553/V1_MQTT_OK/GD32VW55X_Wifi_BLE_SDK/GD32VW55x_RELEASE_V1.0.2/MSDK/plf/riscv/env\handlers.c ****                 len = len * 10 + (p_buf[idx] - '0');
 2085              		.loc 1 314 13 is_stmt 1
 314:C:/Users/stapi/OneDrive/Desktop/GD32VW553/V1_MQTT_OK/GD32VW55X_Wifi_BLE_SDK/GD32VW55x_RELEASE_V1.0.2/MSDK/plf/riscv/env\handlers.c ****                 len = len * 10 + (p_buf[idx] - '0');
 2086              		.loc 1 314 35 is_stmt 0
 2087 062c 1377F70F 		andi	a4,a4,0xff
 2088 0630 930307FD 		addi	t2,a4,-48
 314:C:/Users/stapi/OneDrive/Desktop/GD32VW553/V1_MQTT_OK/GD32VW55X_Wifi_BLE_SDK/GD32VW55x_RELEASE_V1.0.2/MSDK/plf/riscv/env\handlers.c ****                 len = len * 10 + (p_buf[idx] - '0');
 2089              		.loc 1 314 16
 2090 0634 93F3F30F 		andi	t2,t2,0xff
 2091 0638 E3E876EA 		bgtu	t2,a3,.L66
 315:C:/Users/stapi/OneDrive/Desktop/GD32VW553/V1_MQTT_OK/GD32VW55X_Wifi_BLE_SDK/GD32VW55x_RELEASE_V1.0.2/MSDK/plf/riscv/env\handlers.c ****             }
 2092              		.loc 1 315 17 is_stmt 1
 2093 063c 7F17CCC5 		maddr32	a4, s8, t3
 315:C:/Users/stapi/OneDrive/Desktop/GD32VW553/V1_MQTT_OK/GD32VW55X_Wifi_BLE_SDK/GD32VW55x_RELEASE_V1.0.2/MSDK/plf/riscv/env\handlers.c ****             }
 2094              		.loc 1 315 21 is_stmt 0
 2095 0640 130C07FD 		addi	s8,a4,-48
 2096              	.LVL244:
 2097 0644 137CFC0F 		andi	s8,s8,0xff
 2098              	.LVL245:
 2099              	.L69:
 324:C:/Users/stapi/OneDrive/Desktop/GD32VW553/V1_MQTT_OK/GD32VW55X_Wifi_BLE_SDK/GD32VW55x_RELEASE_V1.0.2/MSDK/plf/riscv/env\handlers.c ****     }
 2100              		.loc 1 324 9 is_stmt 1
 324:C:/Users/stapi/OneDrive/Desktop/GD32VW553/V1_MQTT_OK/GD32VW55X_Wifi_BLE_SDK/GD32VW55x_RELEASE_V1.0.2/MSDK/plf/riscv/env\handlers.c ****     }
 2101              		.loc 1 324 12 is_stmt 0
 2102 0648 8507     		addi	a5,a5,1
 2103              	.LVL246:
 2104 064a 93F7F70F 		andi	a5,a5,0xff
 2105              	.LVL247:
 2106 064e CDB1     		j	.L74
 2107              	.LVL248:
 2108              	.L87:
 2109              	.LBB70:
 333:C:/Users/stapi/OneDrive/Desktop/GD32VW553/V1_MQTT_OK/GD32VW55X_Wifi_BLE_SDK/GD32VW55x_RELEASE_V1.0.2/MSDK/plf/riscv/env\handlers.c ****             else
 2110              		.loc 1 333 17 is_stmt 1
 333:C:/Users/stapi/OneDrive/Desktop/GD32VW553/V1_MQTT_OK/GD32VW55X_Wifi_BLE_SDK/GD32VW55x_RELEASE_V1.0.2/MSDK/plf/riscv/env\handlers.c ****             else
 2111              		.loc 1 333 19 is_stmt 0
 2112 0650 13057505 		addi	a0,a0,87
 2113 0654 13154560 		sext.b	a0,a0
 2114              	.LVL249:
 2115 0658 E5B9     		j	.L88
 2116              	.LVL250:
 2117              	.L89:
 333:C:/Users/stapi/OneDrive/Desktop/GD32VW553/V1_MQTT_OK/GD32VW55X_Wifi_BLE_SDK/GD32VW55x_RELEASE_V1.0.2/MSDK/plf/riscv/env\handlers.c ****             else
 2118              		.loc 1 333 17 is_stmt 1
 333:C:/Users/stapi/OneDrive/Desktop/GD32VW553/V1_MQTT_OK/GD32VW55X_Wifi_BLE_SDK/GD32VW55x_RELEASE_V1.0.2/MSDK/plf/riscv/env\handlers.c ****             else
 2119              		.loc 1 333 19 is_stmt 0
 2120 065a 13057705 		addi	a0,a4,87
 2121 065e 13154560 		sext.b	a0,a0
 2122              	.LVL251:
 2123 0662 19B3     		j	.L90
 2124              	.LVL252:
 2125              	.L91:
 344:C:/Users/stapi/OneDrive/Desktop/GD32VW553/V1_MQTT_OK/GD32VW55X_Wifi_BLE_SDK/GD32VW55x_RELEASE_V1.0.2/MSDK/plf/riscv/env\handlers.c ****             log_uart_putc_noint(' ');
 2126              		.loc 1 344 13 is_stmt 1
 2127 0664 1305C002 		li	a0,44
 2128 0668 97000000 		call	log_uart_putc_noint
 2128      E7800000 
 2129              	.LVL253:
 345:C:/Users/stapi/OneDrive/Desktop/GD32VW553/V1_MQTT_OK/GD32VW55X_Wifi_BLE_SDK/GD32VW55x_RELEASE_V1.0.2/MSDK/plf/riscv/env\handlers.c ****         }
 2130              		.loc 1 345 13
 2131 0670 13050002 		li	a0,32
 2132 0674 97000000 		call	log_uart_putc_noint
 2132      E7800000 
 2133              	.LVL254:
 2134 067c 11BB     		j	.L92
 2135              	.LVL255:
 2136              	.L65:
 2137              	.LBE70:
 2138              	.LBE75:
 2139              	.LBE84:
 531:C:/Users/stapi/OneDrive/Desktop/GD32VW553/V1_MQTT_OK/GD32VW55X_Wifi_BLE_SDK/GD32VW55x_RELEASE_V1.0.2/MSDK/plf/riscv/env\handlers.c ****             if (uart_index > 0) {
 2140              		.loc 1 531 16
 531:C:/Users/stapi/OneDrive/Desktop/GD32VW553/V1_MQTT_OK/GD32VW55X_Wifi_BLE_SDK/GD32VW55x_RELEASE_V1.0.2/MSDK/plf/riscv/env\handlers.c ****             if (uart_index > 0) {
 2141              		.loc 1 531 19 is_stmt 0
 2142 067e 2147     		li	a4,8
 2143 0680 639CE700 		bne	a5,a4,.L95
 532:C:/Users/stapi/OneDrive/Desktop/GD32VW553/V1_MQTT_OK/GD32VW55X_Wifi_BLE_SDK/GD32VW55x_RELEASE_V1.0.2/MSDK/plf/riscv/env\handlers.c ****                 uart_buf[--uart_index] = '\0';
 2144              		.loc 1 532 13 is_stmt 1
 532:C:/Users/stapi/OneDrive/Desktop/GD32VW553/V1_MQTT_OK/GD32VW55X_Wifi_BLE_SDK/GD32VW55x_RELEASE_V1.0.2/MSDK/plf/riscv/env\handlers.c ****                 uart_buf[--uart_index] = '\0';
 2145              		.loc 1 532 16 is_stmt 0
 2146 0684 E30004BC 		beq	s0,zero,.L63
 533:C:/Users/stapi/OneDrive/Desktop/GD32VW553/V1_MQTT_OK/GD32VW55X_Wifi_BLE_SDK/GD32VW55x_RELEASE_V1.0.2/MSDK/plf/riscv/env\handlers.c ****             }
 2147              		.loc 1 533 17 is_stmt 1
 533:C:/Users/stapi/OneDrive/Desktop/GD32VW553/V1_MQTT_OK/GD32VW55X_Wifi_BLE_SDK/GD32VW55x_RELEASE_V1.0.2/MSDK/plf/riscv/env\handlers.c ****             }
 2148              		.loc 1 533 40 is_stmt 0
 2149 0688 7D14     		addi	s0,s0,-1
 2150              	.LVL256:
 2151 068a 1374F40F 		andi	s0,s0,0xff
 2152              	.LVL257:
 2153 068e 9C10     		addi	a5,sp,96
 2154              	.LVL258:
 2155 0690 A297     		add	a5,a5,s0
 2156 0692 238007FC 		sb	zero,-64(a5)
 2157 0696 7DB6     		j	.L63
 2158              	.LVL259:
 2159              	.L95:
 537:C:/Users/stapi/OneDrive/Desktop/GD32VW553/V1_MQTT_OK/GD32VW55X_Wifi_BLE_SDK/GD32VW55x_RELEASE_V1.0.2/MSDK/plf/riscv/env\handlers.c ****             if (uart_index >= 64) {
 2160              		.loc 1 537 13 is_stmt 1
 537:C:/Users/stapi/OneDrive/Desktop/GD32VW553/V1_MQTT_OK/GD32VW55X_Wifi_BLE_SDK/GD32VW55x_RELEASE_V1.0.2/MSDK/plf/riscv/env\handlers.c ****             if (uart_index >= 64) {
 2161              		.loc 1 537 36 is_stmt 0
 2162 0698 9810     		addi	a4,sp,96
 537:C:/Users/stapi/OneDrive/Desktop/GD32VW553/V1_MQTT_OK/GD32VW55X_Wifi_BLE_SDK/GD32VW55x_RELEASE_V1.0.2/MSDK/plf/riscv/env\handlers.c ****             if (uart_index >= 64) {
 2163              		.loc 1 537 32
 2164 069a 130C1400 		addi	s8,s0,1
 537:C:/Users/stapi/OneDrive/Desktop/GD32VW553/V1_MQTT_OK/GD32VW55X_Wifi_BLE_SDK/GD32VW55x_RELEASE_V1.0.2/MSDK/plf/riscv/env\handlers.c ****             if (uart_index >= 64) {
 2165              		.loc 1 537 36
 2166 069e 3A94     		add	s0,a4,s0
 2167              	.LVL260:
 2168 06a0 2300F4FC 		sb	a5,-64(s0)
 537:C:/Users/stapi/OneDrive/Desktop/GD32VW553/V1_MQTT_OK/GD32VW55X_Wifi_BLE_SDK/GD32VW55x_RELEASE_V1.0.2/MSDK/plf/riscv/env\handlers.c ****             if (uart_index >= 64) {
 2169              		.loc 1 537 32
 2170 06a4 137CFC0F 		andi	s8,s8,0xff
 2171              	.LVL261:
 538:C:/Users/stapi/OneDrive/Desktop/GD32VW553/V1_MQTT_OK/GD32VW55X_Wifi_BLE_SDK/GD32VW55x_RELEASE_V1.0.2/MSDK/plf/riscv/env\handlers.c ****                 uart_index = 0;
 2172              		.loc 1 538 13 is_stmt 1
 538:C:/Users/stapi/OneDrive/Desktop/GD32VW553/V1_MQTT_OK/GD32VW55X_Wifi_BLE_SDK/GD32VW55x_RELEASE_V1.0.2/MSDK/plf/riscv/env\handlers.c ****                 uart_index = 0;
 2173              		.loc 1 538 16 is_stmt 0
 2174 06a8 9307F003 		li	a5,63
 2175              	.LVL262:
 2176 06ac 63F38701 		bleu	s8,a5,.L96
 539:C:/Users/stapi/OneDrive/Desktop/GD32VW553/V1_MQTT_OK/GD32VW55X_Wifi_BLE_SDK/GD32VW55x_RELEASE_V1.0.2/MSDK/plf/riscv/env\handlers.c ****             }
 2177              		.loc 1 539 28
 2178 06b0 014C     		li	s8,0
 2179              	.LVL263:
 2180              	.L96:
 541:C:/Users/stapi/OneDrive/Desktop/GD32VW553/V1_MQTT_OK/GD32VW55X_Wifi_BLE_SDK/GD32VW55x_RELEASE_V1.0.2/MSDK/plf/riscv/env\handlers.c ****         }
 2181              		.loc 1 541 13 is_stmt 1
 2182 06b2 1375F50F 		andi	a0,a0,0xff
 2183 06b6 97000000 		call	log_uart_putc_noint
 2183      E7800000 
 2184              	.LVL264:
 2185 06be 6284     		mv	s0,s8
 2186 06c0 51B6     		j	.L63
 2187              		.cfi_endproc
 2188              	.LFE370:
 2190              		.section	.bss.SystemExceptionHandlers,"aw",@nobits
 2191              		.align	2
 2192              		.set	.LANCHOR0,. + 0
 2195              	SystemExceptionHandlers:
 2196 0000 00000000 		.zero	52
 2196      00000000 
 2196      00000000 
 2196      00000000 
 2196      00000000 
 2197              		.text
 2198              	.Letext0:
 2199              		.file 2 "c:\\users\\stapi\\onedrive\\desktop\\gd32vw553\\embeddedbuilder_v1.4.7.26843\\tools\\nucl
 2200              		.file 3 "c:\\users\\stapi\\onedrive\\desktop\\gd32vw553\\embeddedbuilder_v1.4.7.26843\\tools\\nucl
 2201              		.file 4 "..\\..\\..\\..\\plf\\riscv\\NMSIS\\Core\\Include/core_feature_base.h"
 2202              		.file 5 "..\\..\\..\\..\\plf\\riscv\\gd32vw55x/gd32vw55x.h"
 2203              		.file 6 "..\\..\\..\\..\\plf\\GD32VW55x_standard_peripheral\\Include/gd32vw55x_usart.h"
 2204              		.file 7 "..\\..\\..\\..\\plf\\src\\uart/log_uart.h"
 2205              		.file 8 "..\\..\\..\\..\\rtos\\rtos_wrapper/wrapper_os.h"
 2206              		.file 9 "..\\..\\..\\..\\plf\\src\\raw_flash/raw_flash_api.h"
 2207              		.file 10 "..\\..\\..\\..\\plf\\src\\uart/uart.h"
DEFINED SYMBOLS
                            *ABS*:0000000000000000 handlers.c
C:\Users\stapi\AppData\Local\Temp\ccyJxrux.s:17     .text.print_reg:0000000000000000 print_reg
C:\Users\stapi\AppData\Local\Temp\ccyJxrux.s:21     .text.print_reg:0000000000000000 .L0 
C:\Users\stapi\AppData\Local\Temp\ccyJxrux.s:23     .text.print_reg:0000000000000000 .L0 
C:\Users\stapi\AppData\Local\Temp\ccyJxrux.s:24     .text.print_reg:0000000000000008 .L0 
C:\Users\stapi\AppData\Local\Temp\ccyJxrux.s:25     .text.print_reg:0000000000000008 .L0 
C:\Users\stapi\AppData\Local\Temp\ccyJxrux.s:26     .text.print_reg:0000000000000008 .L0 
C:\Users\stapi\AppData\Local\Temp\ccyJxrux.s:27     .text.print_reg:0000000000000008 .L0 
C:\Users\stapi\AppData\Local\Temp\ccyJxrux.s:28     .text.print_reg:0000000000000008 .L0 
C:\Users\stapi\AppData\Local\Temp\ccyJxrux.s:29     .text.print_reg:0000000000000008 .L0 
C:\Users\stapi\AppData\Local\Temp\ccyJxrux.s:31     .text.print_reg:0000000000000008 .L0 
C:\Users\stapi\AppData\Local\Temp\ccyJxrux.s:32     .text.print_reg:0000000000000008 .L0 
C:\Users\stapi\AppData\Local\Temp\ccyJxrux.s:33     .text.print_reg:0000000000000008 .L0 
C:\Users\stapi\AppData\Local\Temp\ccyJxrux.s:34     .text.print_reg:0000000000000008 .L0 
C:\Users\stapi\AppData\Local\Temp\ccyJxrux.s:36     .text.print_reg:000000000000000a .L0 
C:\Users\stapi\AppData\Local\Temp\ccyJxrux.s:38     .text.print_reg:000000000000000c .L0 
C:\Users\stapi\AppData\Local\Temp\ccyJxrux.s:41     .text.print_reg:0000000000000014 .L0 
C:\Users\stapi\AppData\Local\Temp\ccyJxrux.s:42     .text.print_reg:0000000000000014 .L0 
C:\Users\stapi\AppData\Local\Temp\ccyJxrux.s:43     .text.print_reg:0000000000000014 .L0 
C:\Users\stapi\AppData\Local\Temp\ccyJxrux.s:45     .text.print_reg:0000000000000016 .L0 
C:\Users\stapi\AppData\Local\Temp\ccyJxrux.s:49     .text.print_reg:0000000000000018 .L0 
C:\Users\stapi\AppData\Local\Temp\ccyJxrux.s:50     .text.print_reg:0000000000000018 .L0 
C:\Users\stapi\AppData\Local\Temp\ccyJxrux.s:52     .text.print_reg:000000000000001c .L0 
C:\Users\stapi\AppData\Local\Temp\ccyJxrux.s:55     .text.print_reg:0000000000000020 .L0 
C:\Users\stapi\AppData\Local\Temp\ccyJxrux.s:56     .text.print_reg:0000000000000020 .L0 
C:\Users\stapi\AppData\Local\Temp\ccyJxrux.s:58     .text.print_reg:0000000000000024 .L0 
C:\Users\stapi\AppData\Local\Temp\ccyJxrux.s:60     .text.print_reg:0000000000000028 .L0 
C:\Users\stapi\AppData\Local\Temp\ccyJxrux.s:61     .text.print_reg:0000000000000028 .L0 
C:\Users\stapi\AppData\Local\Temp\ccyJxrux.s:66     .text.print_reg:0000000000000030 .L0 
C:\Users\stapi\AppData\Local\Temp\ccyJxrux.s:68     .text.print_reg:0000000000000034 .L0 
C:\Users\stapi\AppData\Local\Temp\ccyJxrux.s:71     .text.print_reg:0000000000000036 .L0 
C:\Users\stapi\AppData\Local\Temp\ccyJxrux.s:74     .text.print_reg:000000000000003e .L0 
C:\Users\stapi\AppData\Local\Temp\ccyJxrux.s:75     .text.print_reg:000000000000003e .L0 
C:\Users\stapi\AppData\Local\Temp\ccyJxrux.s:76     .text.print_reg:000000000000003e .L0 
C:\Users\stapi\AppData\Local\Temp\ccyJxrux.s:78     .text.print_reg:0000000000000042 .L0 
C:\Users\stapi\AppData\Local\Temp\ccyJxrux.s:84     .text.print_reg:0000000000000054 .L0 
C:\Users\stapi\AppData\Local\Temp\ccyJxrux.s:85     .text.print_reg:000000000000005c .L0 
C:\Users\stapi\AppData\Local\Temp\ccyJxrux.s:86     .text.print_reg:000000000000005c .L0 
C:\Users\stapi\AppData\Local\Temp\ccyJxrux.s:87     .text.print_reg:000000000000005c .L0 
C:\Users\stapi\AppData\Local\Temp\ccyJxrux.s:88     .text.print_reg:000000000000005c .L0 
C:\Users\stapi\AppData\Local\Temp\ccyJxrux.s:89     .text.print_reg:000000000000005c .L0 
C:\Users\stapi\AppData\Local\Temp\ccyJxrux.s:90     .text.print_reg:000000000000005c .L0 
C:\Users\stapi\AppData\Local\Temp\ccyJxrux.s:91     .text.print_reg:000000000000005c .L0 
C:\Users\stapi\AppData\Local\Temp\ccyJxrux.s:98     .text.dumpStackInfo:0000000000000000 dumpStackInfo
C:\Users\stapi\AppData\Local\Temp\ccyJxrux.s:101    .text.dumpStackInfo:0000000000000000 .L0 
C:\Users\stapi\AppData\Local\Temp\ccyJxrux.s:103    .text.dumpStackInfo:0000000000000000 .L0 
C:\Users\stapi\AppData\Local\Temp\ccyJxrux.s:104    .text.dumpStackInfo:0000000000000008 .L0 
C:\Users\stapi\AppData\Local\Temp\ccyJxrux.s:105    .text.dumpStackInfo:0000000000000008 .L0 
C:\Users\stapi\AppData\Local\Temp\ccyJxrux.s:106    .text.dumpStackInfo:0000000000000008 .L0 
C:\Users\stapi\AppData\Local\Temp\ccyJxrux.s:107    .text.dumpStackInfo:0000000000000008 .L0 
C:\Users\stapi\AppData\Local\Temp\ccyJxrux.s:108    .text.dumpStackInfo:0000000000000008 .L0 
C:\Users\stapi\AppData\Local\Temp\ccyJxrux.s:109    .text.dumpStackInfo:0000000000000008 .L0 
C:\Users\stapi\AppData\Local\Temp\ccyJxrux.s:110    .text.dumpStackInfo:0000000000000008 .L0 
C:\Users\stapi\AppData\Local\Temp\ccyJxrux.s:111    .text.dumpStackInfo:0000000000000008 .L0 
C:\Users\stapi\AppData\Local\Temp\ccyJxrux.s:114    .text.dumpStackInfo:0000000000000008 .L0 
C:\Users\stapi\AppData\Local\Temp\ccyJxrux.s:115    .text.dumpStackInfo:0000000000000008 .L0 
C:\Users\stapi\AppData\Local\Temp\ccyJxrux.s:116    .text.dumpStackInfo:0000000000000008 .L0 
C:\Users\stapi\AppData\Local\Temp\ccyJxrux.s:117    .text.dumpStackInfo:0000000000000008 .L0 
C:\Users\stapi\AppData\Local\Temp\ccyJxrux.s:118    .text.dumpStackInfo:0000000000000008 .L0 
C:\Users\stapi\AppData\Local\Temp\ccyJxrux.s:121    .text.dumpStackInfo:000000000000000c .L0 
C:\Users\stapi\AppData\Local\Temp\ccyJxrux.s:124    .text.dumpStackInfo:000000000000000e .L0 
C:\Users\stapi\AppData\Local\Temp\ccyJxrux.s:126    .text.dumpStackInfo:0000000000000010 .L0 
C:\Users\stapi\AppData\Local\Temp\ccyJxrux.s:131    .text.dumpStackInfo:0000000000000014 .L0 
C:\Users\stapi\AppData\Local\Temp\ccyJxrux.s:135    .text.dumpStackInfo:000000000000001c .L0 
C:\Users\stapi\AppData\Local\Temp\ccyJxrux.s:136    .text.dumpStackInfo:0000000000000024 .L0 
C:\Users\stapi\AppData\Local\Temp\ccyJxrux.s:137    .text.dumpStackInfo:0000000000000024 .L0 
C:\Users\stapi\AppData\Local\Temp\ccyJxrux.s:138    .text.dumpStackInfo:0000000000000024 .L0 
C:\Users\stapi\AppData\Local\Temp\ccyJxrux.s:139    .text.dumpStackInfo:0000000000000024 .L0 
C:\Users\stapi\AppData\Local\Temp\ccyJxrux.s:140    .text.dumpStackInfo:0000000000000024 .L0 
C:\Users\stapi\AppData\Local\Temp\ccyJxrux.s:141    .text.dumpStackInfo:0000000000000024 .L0 
C:\Users\stapi\AppData\Local\Temp\ccyJxrux.s:142    .text.dumpStackInfo:0000000000000024 .L0 
C:\Users\stapi\AppData\Local\Temp\ccyJxrux.s:143    .text.dumpStackInfo:0000000000000024 .L0 
C:\Users\stapi\AppData\Local\Temp\ccyJxrux.s:144    .text.dumpStackInfo:0000000000000024 .L0 
C:\Users\stapi\AppData\Local\Temp\ccyJxrux.s:146    .text.dumpStackInfo:0000000000000024 .L0 
C:\Users\stapi\AppData\Local\Temp\ccyJxrux.s:149    .text.dumpStackInfo:0000000000000024 .L0 
C:\Users\stapi\AppData\Local\Temp\ccyJxrux.s:150    .text.dumpStackInfo:0000000000000024 .L0 
C:\Users\stapi\AppData\Local\Temp\ccyJxrux.s:155    .text.dumpStackInfo:000000000000002c .L0 
C:\Users\stapi\AppData\Local\Temp\ccyJxrux.s:156    .text.dumpStackInfo:000000000000002c .L0 
C:\Users\stapi\AppData\Local\Temp\ccyJxrux.s:157    .text.dumpStackInfo:000000000000002c .L0 
C:\Users\stapi\AppData\Local\Temp\ccyJxrux.s:158    .text.dumpStackInfo:000000000000002c .L0 
C:\Users\stapi\AppData\Local\Temp\ccyJxrux.s:161    .text.dumpStackInfo:0000000000000030 .L0 
C:\Users\stapi\AppData\Local\Temp\ccyJxrux.s:162    .text.dumpStackInfo:0000000000000030 .L0 
C:\Users\stapi\AppData\Local\Temp\ccyJxrux.s:164    .text.dumpStackInfo:0000000000000034 .L0 
C:\Users\stapi\AppData\Local\Temp\ccyJxrux.s:166    .text.dumpStackInfo:0000000000000038 .L0 
C:\Users\stapi\AppData\Local\Temp\ccyJxrux.s:167    .text.dumpStackInfo:0000000000000038 .L0 
C:\Users\stapi\AppData\Local\Temp\ccyJxrux.s:171    .text.dumpStackInfo:000000000000003c .L0 
C:\Users\stapi\AppData\Local\Temp\ccyJxrux.s:175    .text.dumpStackInfo:0000000000000048 .L0 
C:\Users\stapi\AppData\Local\Temp\ccyJxrux.s:176    .text.dumpStackInfo:0000000000000048 .L0 
C:\Users\stapi\AppData\Local\Temp\ccyJxrux.s:177    .text.dumpStackInfo:0000000000000048 .L0 
C:\Users\stapi\AppData\Local\Temp\ccyJxrux.s:178    .text.dumpStackInfo:0000000000000048 .L0 
C:\Users\stapi\AppData\Local\Temp\ccyJxrux.s:181    .text.dumpStackInfo:000000000000004c .L0 
C:\Users\stapi\AppData\Local\Temp\ccyJxrux.s:182    .text.dumpStackInfo:000000000000004c .L0 
C:\Users\stapi\AppData\Local\Temp\ccyJxrux.s:184    .text.dumpStackInfo:0000000000000050 .L0 
C:\Users\stapi\AppData\Local\Temp\ccyJxrux.s:185    .text.dumpStackInfo:0000000000000050 .L0 
C:\Users\stapi\AppData\Local\Temp\ccyJxrux.s:189    .text.dumpStackInfo:0000000000000054 .L0 
C:\Users\stapi\AppData\Local\Temp\ccyJxrux.s:193    .text.dumpStackInfo:0000000000000060 .L0 
C:\Users\stapi\AppData\Local\Temp\ccyJxrux.s:194    .text.dumpStackInfo:0000000000000060 .L0 
C:\Users\stapi\AppData\Local\Temp\ccyJxrux.s:195    .text.dumpStackInfo:0000000000000060 .L0 
C:\Users\stapi\AppData\Local\Temp\ccyJxrux.s:196    .text.dumpStackInfo:0000000000000060 .L0 
C:\Users\stapi\AppData\Local\Temp\ccyJxrux.s:199    .text.dumpStackInfo:0000000000000062 .L0 
C:\Users\stapi\AppData\Local\Temp\ccyJxrux.s:200    .text.dumpStackInfo:0000000000000062 .L0 
C:\Users\stapi\AppData\Local\Temp\ccyJxrux.s:201    .text.dumpStackInfo:0000000000000062 .L0 
C:\Users\stapi\AppData\Local\Temp\ccyJxrux.s:203    .text.dumpStackInfo:0000000000000066 .L0 
C:\Users\stapi\AppData\Local\Temp\ccyJxrux.s:205    .text.dumpStackInfo:0000000000000068 .L0 
C:\Users\stapi\AppData\Local\Temp\ccyJxrux.s:213    .text.dumpStackInfo:0000000000000078 .L0 
C:\Users\stapi\AppData\Local\Temp\ccyJxrux.s:214    .text.dumpStackInfo:0000000000000078 .L0 
C:\Users\stapi\AppData\Local\Temp\ccyJxrux.s:221    .text.dumpStackInfo:0000000000000082 .L0 
C:\Users\stapi\AppData\Local\Temp\ccyJxrux.s:222    .text.dumpStackInfo:0000000000000082 .L0 
C:\Users\stapi\AppData\Local\Temp\ccyJxrux.s:230    .text.dumpStackInfo:000000000000008c .L0 
C:\Users\stapi\AppData\Local\Temp\ccyJxrux.s:234    .text.dumpStackInfo:0000000000000098 .L0 
C:\Users\stapi\AppData\Local\Temp\ccyJxrux.s:238    .text.dumpStackInfo:00000000000000a4 .L0 
C:\Users\stapi\AppData\Local\Temp\ccyJxrux.s:240    .text.dumpStackInfo:00000000000000a6 .L0 
C:\Users\stapi\AppData\Local\Temp\ccyJxrux.s:254    .text.xCurrentTaskDumpInfo:0000000000000000 xCurrentTaskDumpInfo
C:\Users\stapi\AppData\Local\Temp\ccyJxrux.s:257    .text.xCurrentTaskDumpInfo:0000000000000000 .L0 
C:\Users\stapi\AppData\Local\Temp\ccyJxrux.s:259    .text.xCurrentTaskDumpInfo:0000000000000000 .L0 
C:\Users\stapi\AppData\Local\Temp\ccyJxrux.s:260    .text.xCurrentTaskDumpInfo:0000000000000008 .L0 
C:\Users\stapi\AppData\Local\Temp\ccyJxrux.s:261    .text.xCurrentTaskDumpInfo:0000000000000008 .L0 
C:\Users\stapi\AppData\Local\Temp\ccyJxrux.s:262    .text.xCurrentTaskDumpInfo:0000000000000008 .L0 
C:\Users\stapi\AppData\Local\Temp\ccyJxrux.s:263    .text.xCurrentTaskDumpInfo:0000000000000008 .L0 
C:\Users\stapi\AppData\Local\Temp\ccyJxrux.s:264    .text.xCurrentTaskDumpInfo:0000000000000008 .L0 
C:\Users\stapi\AppData\Local\Temp\ccyJxrux.s:265    .text.xCurrentTaskDumpInfo:0000000000000008 .L0 
C:\Users\stapi\AppData\Local\Temp\ccyJxrux.s:266    .text.xCurrentTaskDumpInfo:0000000000000008 .L0 
C:\Users\stapi\AppData\Local\Temp\ccyJxrux.s:269    .text.xCurrentTaskDumpInfo:0000000000000008 .L0 
C:\Users\stapi\AppData\Local\Temp\ccyJxrux.s:270    .text.xCurrentTaskDumpInfo:0000000000000008 .L0 
C:\Users\stapi\AppData\Local\Temp\ccyJxrux.s:271    .text.xCurrentTaskDumpInfo:0000000000000008 .L0 
C:\Users\stapi\AppData\Local\Temp\ccyJxrux.s:273    .text.xCurrentTaskDumpInfo:000000000000000a .L0 
C:\Users\stapi\AppData\Local\Temp\ccyJxrux.s:280    .text.xCurrentTaskDumpInfo:0000000000000016 .L0 
C:\Users\stapi\AppData\Local\Temp\ccyJxrux.s:281    .text.xCurrentTaskDumpInfo:0000000000000016 .L0 
C:\Users\stapi\AppData\Local\Temp\ccyJxrux.s:288    .text.xCurrentTaskDumpInfo:0000000000000022 .L0 
C:\Users\stapi\AppData\Local\Temp\ccyJxrux.s:295    .text.xCurrentTaskDumpInfo:0000000000000036 .L0 
C:\Users\stapi\AppData\Local\Temp\ccyJxrux.s:296    .text.xCurrentTaskDumpInfo:0000000000000036 .L0 
C:\Users\stapi\AppData\Local\Temp\ccyJxrux.s:297    .text.xCurrentTaskDumpInfo:0000000000000036 .L0 
C:\Users\stapi\AppData\Local\Temp\ccyJxrux.s:299    .text.xCurrentTaskDumpInfo:0000000000000038 .L0 
C:\Users\stapi\AppData\Local\Temp\ccyJxrux.s:303    .text.xCurrentTaskDumpInfo:000000000000003c .L0 
C:\Users\stapi\AppData\Local\Temp\ccyJxrux.s:304    .text.xCurrentTaskDumpInfo:000000000000003c .L0 
C:\Users\stapi\AppData\Local\Temp\ccyJxrux.s:307    .text.xCurrentTaskDumpInfo:0000000000000044 .L0 
C:\Users\stapi\AppData\Local\Temp\ccyJxrux.s:309    .text.xCurrentTaskDumpInfo:0000000000000046 .L0 
C:\Users\stapi\AppData\Local\Temp\ccyJxrux.s:311    .text.xCurrentTaskDumpInfo:000000000000004a .L0 
C:\Users\stapi\AppData\Local\Temp\ccyJxrux.s:314    .text.xCurrentTaskDumpInfo:000000000000004c .L0 
C:\Users\stapi\AppData\Local\Temp\ccyJxrux.s:317    .text.xCurrentTaskDumpInfo:0000000000000054 .L0 
C:\Users\stapi\AppData\Local\Temp\ccyJxrux.s:318    .text.xCurrentTaskDumpInfo:0000000000000054 .L0 
C:\Users\stapi\AppData\Local\Temp\ccyJxrux.s:319    .text.xCurrentTaskDumpInfo:0000000000000054 .L0 
C:\Users\stapi\AppData\Local\Temp\ccyJxrux.s:322    .text.xCurrentTaskDumpInfo:0000000000000058 .L0 
C:\Users\stapi\AppData\Local\Temp\ccyJxrux.s:328    .text.xCurrentTaskDumpInfo:000000000000006a .L0 
C:\Users\stapi\AppData\Local\Temp\ccyJxrux.s:333    .text.xCurrentTaskDumpInfo:0000000000000076 .L0 
C:\Users\stapi\AppData\Local\Temp\ccyJxrux.s:334    .text.xCurrentTaskDumpInfo:000000000000007e .L0 
C:\Users\stapi\AppData\Local\Temp\ccyJxrux.s:335    .text.xCurrentTaskDumpInfo:000000000000007e .L0 
C:\Users\stapi\AppData\Local\Temp\ccyJxrux.s:336    .text.xCurrentTaskDumpInfo:000000000000007e .L0 
C:\Users\stapi\AppData\Local\Temp\ccyJxrux.s:337    .text.xCurrentTaskDumpInfo:000000000000007e .L0 
C:\Users\stapi\AppData\Local\Temp\ccyJxrux.s:338    .text.xCurrentTaskDumpInfo:000000000000007e .L0 
C:\Users\stapi\AppData\Local\Temp\ccyJxrux.s:339    .text.xCurrentTaskDumpInfo:000000000000007e .L0 
C:\Users\stapi\AppData\Local\Temp\ccyJxrux.s:340    .text.xCurrentTaskDumpInfo:000000000000007e .L0 
C:\Users\stapi\AppData\Local\Temp\ccyJxrux.s:341    .text.xCurrentTaskDumpInfo:000000000000007e .L0 
C:\Users\stapi\AppData\Local\Temp\ccyJxrux.s:348    .text.Exception_Init:0000000000000000 Exception_Init
C:\Users\stapi\AppData\Local\Temp\ccyJxrux.s:351    .text.Exception_Init:0000000000000000 .L0 
C:\Users\stapi\AppData\Local\Temp\ccyJxrux.s:352    .text.Exception_Init:0000000000000000 .L0 
C:\Users\stapi\AppData\Local\Temp\ccyJxrux.s:354    .text.Exception_Init:0000000000000000 .L0 
C:\Users\stapi\AppData\Local\Temp\ccyJxrux.s:356    .text.Exception_Init:0000000000000000 .L0 
C:\Users\stapi\AppData\Local\Temp\ccyJxrux.s:357    .text.Exception_Init:0000000000000000 .L0 
C:\Users\stapi\AppData\Local\Temp\ccyJxrux.s:928    .text.system_default_exception_handler:0000000000000000 system_default_exception_handler
C:\Users\stapi\AppData\Local\Temp\ccyJxrux.s:360    .text.Exception_Init:0000000000000008 .L0 
C:\Users\stapi\AppData\Local\Temp\ccyJxrux.s:366    .text.Exception_Init:0000000000000014 .L0 
C:\Users\stapi\AppData\Local\Temp\ccyJxrux.s:367    .text.Exception_Init:0000000000000014 .L0 
C:\Users\stapi\AppData\Local\Temp\ccyJxrux.s:369    .text.Exception_Init:0000000000000016 .L0 
C:\Users\stapi\AppData\Local\Temp\ccyJxrux.s:370    .text.Exception_Init:0000000000000016 .L0 
C:\Users\stapi\AppData\Local\Temp\ccyJxrux.s:371    .text.Exception_Init:0000000000000016 .L0 
C:\Users\stapi\AppData\Local\Temp\ccyJxrux.s:375    .text.Exception_Init:000000000000001c .L0 
C:\Users\stapi\AppData\Local\Temp\ccyJxrux.s:376    .text.Exception_Init:000000000000001e .L0 
C:\Users\stapi\AppData\Local\Temp\ccyJxrux.s:383    .text.Exception_Register_EXC:0000000000000000 Exception_Register_EXC
C:\Users\stapi\AppData\Local\Temp\ccyJxrux.s:386    .text.Exception_Register_EXC:0000000000000000 .L0 
C:\Users\stapi\AppData\Local\Temp\ccyJxrux.s:388    .text.Exception_Register_EXC:0000000000000000 .L0 
C:\Users\stapi\AppData\Local\Temp\ccyJxrux.s:389    .text.Exception_Register_EXC:0000000000000000 .L0 
C:\Users\stapi\AppData\Local\Temp\ccyJxrux.s:390    .text.Exception_Register_EXC:0000000000000000 .L0 
C:\Users\stapi\AppData\Local\Temp\ccyJxrux.s:393    .text.Exception_Register_EXC:0000000000000006 .L0 
C:\Users\stapi\AppData\Local\Temp\ccyJxrux.s:394    .text.Exception_Register_EXC:0000000000000006 .L0 
C:\Users\stapi\AppData\Local\Temp\ccyJxrux.s:403    .text.Exception_Register_EXC:0000000000000016 .L0 
C:\Users\stapi\AppData\Local\Temp\ccyJxrux.s:404    .text.Exception_Register_EXC:0000000000000016 .L0 
C:\Users\stapi\AppData\Local\Temp\ccyJxrux.s:408    .text.Exception_Register_EXC:000000000000001e .L0 
C:\Users\stapi\AppData\Local\Temp\ccyJxrux.s:409    .text.Exception_Register_EXC:000000000000001e .L0 
C:\Users\stapi\AppData\Local\Temp\ccyJxrux.s:413    .text.Exception_Register_EXC:0000000000000026 .L0 
C:\Users\stapi\AppData\Local\Temp\ccyJxrux.s:414    .text.Exception_Register_EXC:0000000000000028 .L0 
C:\Users\stapi\AppData\Local\Temp\ccyJxrux.s:421    .text.Exception_Get_EXC:0000000000000000 Exception_Get_EXC
C:\Users\stapi\AppData\Local\Temp\ccyJxrux.s:424    .text.Exception_Get_EXC:0000000000000000 .L0 
C:\Users\stapi\AppData\Local\Temp\ccyJxrux.s:426    .text.Exception_Get_EXC:0000000000000000 .L0 
C:\Users\stapi\AppData\Local\Temp\ccyJxrux.s:427    .text.Exception_Get_EXC:0000000000000000 .L0 
C:\Users\stapi\AppData\Local\Temp\ccyJxrux.s:428    .text.Exception_Get_EXC:0000000000000000 .L0 
C:\Users\stapi\AppData\Local\Temp\ccyJxrux.s:430    .text.Exception_Get_EXC:0000000000000002 .L0 
C:\Users\stapi\AppData\Local\Temp\ccyJxrux.s:432    .text.Exception_Get_EXC:0000000000000004 .L0 
C:\Users\stapi\AppData\Local\Temp\ccyJxrux.s:434    .text.Exception_Get_EXC:0000000000000008 .L0 
C:\Users\stapi\AppData\Local\Temp\ccyJxrux.s:435    .text.Exception_Get_EXC:0000000000000008 .L0 
C:\Users\stapi\AppData\Local\Temp\ccyJxrux.s:445    .text.Exception_Get_EXC:0000000000000018 .L0 
C:\Users\stapi\AppData\Local\Temp\ccyJxrux.s:446    .text.Exception_Get_EXC:0000000000000018 .L0 
C:\Users\stapi\AppData\Local\Temp\ccyJxrux.s:449    .text.Exception_Get_EXC:000000000000001c .L0 
C:\Users\stapi\AppData\Local\Temp\ccyJxrux.s:452    .text.Exception_Get_EXC:000000000000001e .L0 
C:\Users\stapi\AppData\Local\Temp\ccyJxrux.s:454    .text.Exception_Get_EXC:0000000000000022 .L0 
C:\Users\stapi\AppData\Local\Temp\ccyJxrux.s:455    .text.Exception_Get_EXC:0000000000000022 .L0 
C:\Users\stapi\AppData\Local\Temp\ccyJxrux.s:460    .text.Exception_Get_EXC:000000000000002a .L0 
C:\Users\stapi\AppData\Local\Temp\ccyJxrux.s:461    .text.Exception_Get_EXC:000000000000002c .L0 
C:\Users\stapi\AppData\Local\Temp\ccyJxrux.s:468    .text.core_exception_handler:0000000000000000 core_exception_handler
C:\Users\stapi\AppData\Local\Temp\ccyJxrux.s:471    .text.core_exception_handler:0000000000000000 .L0 
C:\Users\stapi\AppData\Local\Temp\ccyJxrux.s:473    .text.core_exception_handler:0000000000000000 .L0 
C:\Users\stapi\AppData\Local\Temp\ccyJxrux.s:474    .text.core_exception_handler:0000000000000000 .L0 
C:\Users\stapi\AppData\Local\Temp\ccyJxrux.s:475    .text.core_exception_handler:0000000000000000 .L0 
C:\Users\stapi\AppData\Local\Temp\ccyJxrux.s:480    .text.core_exception_handler:0000000000000008 .L0 
C:\Users\stapi\AppData\Local\Temp\ccyJxrux.s:481    .text.core_exception_handler:0000000000000008 .L0 
C:\Users\stapi\AppData\Local\Temp\ccyJxrux.s:482    .text.core_exception_handler:0000000000000008 .L0 
C:\Users\stapi\AppData\Local\Temp\ccyJxrux.s:485    .text.core_exception_handler:000000000000000e .L0 
C:\Users\stapi\AppData\Local\Temp\ccyJxrux.s:486    .text.core_exception_handler:000000000000000e .L0 
C:\Users\stapi\AppData\Local\Temp\ccyJxrux.s:491    .text.core_exception_handler:000000000000001a .L0 
C:\Users\stapi\AppData\Local\Temp\ccyJxrux.s:495    .text.core_exception_handler:000000000000001c .L0 
C:\Users\stapi\AppData\Local\Temp\ccyJxrux.s:496    .text.core_exception_handler:000000000000001c .L0 
C:\Users\stapi\AppData\Local\Temp\ccyJxrux.s:498    .text.core_exception_handler:000000000000001e .L0 
C:\Users\stapi\AppData\Local\Temp\ccyJxrux.s:499    .text.core_exception_handler:000000000000001e .L0 
C:\Users\stapi\AppData\Local\Temp\ccyJxrux.s:505    .text.core_exception_handler:0000000000000022 .L0 
C:\Users\stapi\AppData\Local\Temp\ccyJxrux.s:506    .text.core_exception_handler:0000000000000022 .L0 
C:\Users\stapi\AppData\Local\Temp\ccyJxrux.s:508    .text.core_exception_handler:0000000000000026 .L0 
C:\Users\stapi\AppData\Local\Temp\ccyJxrux.s:509    .text.core_exception_handler:0000000000000026 .L0 
C:\Users\stapi\AppData\Local\Temp\ccyJxrux.s:512    .text.core_exception_handler:000000000000002a .L0 
C:\Users\stapi\AppData\Local\Temp\ccyJxrux.s:518    .text.core_exception_handler:0000000000000030 .L0 
C:\Users\stapi\AppData\Local\Temp\ccyJxrux.s:524    .text.core_exception_handler:0000000000000038 .L0 
C:\Users\stapi\AppData\Local\Temp\ccyJxrux.s:525    .text.core_exception_handler:0000000000000040 .L0 
C:\Users\stapi\AppData\Local\Temp\ccyJxrux.s:526    .text.core_exception_handler:0000000000000040 .L0 
C:\Users\stapi\AppData\Local\Temp\ccyJxrux.s:529    .text.core_exception_handler:0000000000000040 .L0 
C:\Users\stapi\AppData\Local\Temp\ccyJxrux.s:532    .text.core_exception_handler:0000000000000042 .L0 
C:\Users\stapi\AppData\Local\Temp\ccyJxrux.s:533    .text.core_exception_handler:0000000000000042 .L0 
C:\Users\stapi\AppData\Local\Temp\ccyJxrux.s:535    .text.core_exception_handler:000000000000004c .L0 
C:\Users\stapi\AppData\Local\Temp\ccyJxrux.s:536    .text.core_exception_handler:000000000000004c .L0 
C:\Users\stapi\AppData\Local\Temp\ccyJxrux.s:537    .text.core_exception_handler:000000000000004c .L0 
C:\Users\stapi\AppData\Local\Temp\ccyJxrux.s:602    .text.Exception_DumpFrame:0000000000000000 Exception_DumpFrame
C:\Users\stapi\AppData\Local\Temp\ccyJxrux.s:605    .text.Exception_DumpFrame:0000000000000000 .L0 
C:\Users\stapi\AppData\Local\Temp\ccyJxrux.s:607    .text.Exception_DumpFrame:0000000000000000 .L0 
C:\Users\stapi\AppData\Local\Temp\ccyJxrux.s:608    .text.Exception_DumpFrame:0000000000000008 .L0 
C:\Users\stapi\AppData\Local\Temp\ccyJxrux.s:609    .text.Exception_DumpFrame:0000000000000008 .L0 
C:\Users\stapi\AppData\Local\Temp\ccyJxrux.s:610    .text.Exception_DumpFrame:0000000000000008 .L0 
C:\Users\stapi\AppData\Local\Temp\ccyJxrux.s:611    .text.Exception_DumpFrame:0000000000000008 .L0 
C:\Users\stapi\AppData\Local\Temp\ccyJxrux.s:614    .text.Exception_DumpFrame:0000000000000008 .L0 
C:\Users\stapi\AppData\Local\Temp\ccyJxrux.s:615    .text.Exception_DumpFrame:0000000000000008 .L0 
C:\Users\stapi\AppData\Local\Temp\ccyJxrux.s:617    .text.Exception_DumpFrame:000000000000000a .L0 
C:\Users\stapi\AppData\Local\Temp\ccyJxrux.s:619    .text.Exception_DumpFrame:000000000000000c .L0 
C:\Users\stapi\AppData\Local\Temp\ccyJxrux.s:626    .text.Exception_DumpFrame:000000000000001e .L0 
C:\Users\stapi\AppData\Local\Temp\ccyJxrux.s:633    .text.Exception_DumpFrame:0000000000000032 .L0 
C:\Users\stapi\AppData\Local\Temp\ccyJxrux.s:640    .text.Exception_DumpFrame:0000000000000046 .L0 
C:\Users\stapi\AppData\Local\Temp\ccyJxrux.s:647    .text.Exception_DumpFrame:000000000000005a .L0 
C:\Users\stapi\AppData\Local\Temp\ccyJxrux.s:652    .text.Exception_DumpFrame:0000000000000066 .L0 
C:\Users\stapi\AppData\Local\Temp\ccyJxrux.s:654    .text.Exception_DumpFrame:000000000000006a .L0 
C:\Users\stapi\AppData\Local\Temp\ccyJxrux.s:657    .text.Exception_DumpFrame:0000000000000072 .L0 
C:\Users\stapi\AppData\Local\Temp\ccyJxrux.s:664    .text.Exception_DumpFrame:0000000000000086 .L0 
C:\Users\stapi\AppData\Local\Temp\ccyJxrux.s:671    .text.Exception_DumpFrame:000000000000009a .L0 
C:\Users\stapi\AppData\Local\Temp\ccyJxrux.s:678    .text.Exception_DumpFrame:00000000000000ae .L0 
C:\Users\stapi\AppData\Local\Temp\ccyJxrux.s:685    .text.Exception_DumpFrame:00000000000000c2 .L0 
C:\Users\stapi\AppData\Local\Temp\ccyJxrux.s:692    .text.Exception_DumpFrame:00000000000000d6 .L0 
C:\Users\stapi\AppData\Local\Temp\ccyJxrux.s:699    .text.Exception_DumpFrame:00000000000000ea .L0 
C:\Users\stapi\AppData\Local\Temp\ccyJxrux.s:706    .text.Exception_DumpFrame:00000000000000fe .L0 
C:\Users\stapi\AppData\Local\Temp\ccyJxrux.s:713    .text.Exception_DumpFrame:0000000000000112 .L0 
C:\Users\stapi\AppData\Local\Temp\ccyJxrux.s:720    .text.Exception_DumpFrame:0000000000000126 .L0 
C:\Users\stapi\AppData\Local\Temp\ccyJxrux.s:727    .text.Exception_DumpFrame:000000000000013a .L0 
C:\Users\stapi\AppData\Local\Temp\ccyJxrux.s:734    .text.Exception_DumpFrame:000000000000014e .L0 
C:\Users\stapi\AppData\Local\Temp\ccyJxrux.s:741    .text.Exception_DumpFrame:0000000000000162 .L0 
C:\Users\stapi\AppData\Local\Temp\ccyJxrux.s:748    .text.Exception_DumpFrame:0000000000000176 .L0 
C:\Users\stapi\AppData\Local\Temp\ccyJxrux.s:755    .text.Exception_DumpFrame:000000000000018a .L0 
C:\Users\stapi\AppData\Local\Temp\ccyJxrux.s:756    .text.Exception_DumpFrame:0000000000000192 .L0 
C:\Users\stapi\AppData\Local\Temp\ccyJxrux.s:757    .text.Exception_DumpFrame:0000000000000192 .L0 
C:\Users\stapi\AppData\Local\Temp\ccyJxrux.s:758    .text.Exception_DumpFrame:0000000000000192 .L0 
C:\Users\stapi\AppData\Local\Temp\ccyJxrux.s:759    .text.Exception_DumpFrame:0000000000000192 .L0 
C:\Users\stapi\AppData\Local\Temp\ccyJxrux.s:760    .text.Exception_DumpFrame:0000000000000192 .L0 
C:\Users\stapi\AppData\Local\Temp\ccyJxrux.s:786    .text.nmi_handler:0000000000000000 nmi_handler
C:\Users\stapi\AppData\Local\Temp\ccyJxrux.s:789    .text.nmi_handler:0000000000000000 .L0 
C:\Users\stapi\AppData\Local\Temp\ccyJxrux.s:791    .text.nmi_handler:0000000000000000 .L0 
C:\Users\stapi\AppData\Local\Temp\ccyJxrux.s:792    .text.nmi_handler:0000000000000008 .L0 
C:\Users\stapi\AppData\Local\Temp\ccyJxrux.s:793    .text.nmi_handler:0000000000000008 .L0 
C:\Users\stapi\AppData\Local\Temp\ccyJxrux.s:794    .text.nmi_handler:0000000000000008 .L0 
C:\Users\stapi\AppData\Local\Temp\ccyJxrux.s:796    .text.nmi_handler:0000000000000008 .L0 
C:\Users\stapi\AppData\Local\Temp\ccyJxrux.s:797    .text.nmi_handler:0000000000000008 .L0 
C:\Users\stapi\AppData\Local\Temp\ccyJxrux.s:798    .text.nmi_handler:000000000000000a .L0 
C:\Users\stapi\AppData\Local\Temp\ccyJxrux.s:800    .text.nmi_handler:000000000000000a .L0 
C:\Users\stapi\AppData\Local\Temp\ccyJxrux.s:802    .text.nmi_handler:000000000000000c .L0 
C:\Users\stapi\AppData\Local\Temp\ccyJxrux.s:805    .text.nmi_handler:0000000000000010 .L0 
C:\Users\stapi\AppData\Local\Temp\ccyJxrux.s:807    .text.nmi_handler:0000000000000012 .L0 
C:\Users\stapi\AppData\Local\Temp\ccyJxrux.s:813    .text.nmi_handler:0000000000000020 .L0 
C:\Users\stapi\AppData\Local\Temp\ccyJxrux.s:821    .text.nmi_handler:0000000000000034 .L0 
C:\Users\stapi\AppData\Local\Temp\ccyJxrux.s:822    .text.nmi_handler:0000000000000034 .L0 
C:/Users/stapi/OneDrive/Desktop/GD32VW553/V1_MQTT_OK/GD32VW55X_Wifi_BLE_SDK/GD32VW55x_RELEASE_V1.0.2/MSDK/plf/riscv/env\handlers.c:567    .text.nmi_handler:0000000000000034 .L0 
C:\Users\stapi\AppData\Local\Temp\ccyJxrux.s:831    .text.nmi_handler:0000000000000038 .L0 
C:\Users\stapi\AppData\Local\Temp\ccyJxrux.s:832    .text.nmi_handler:0000000000000038 .L0 
C:\Users\stapi\AppData\Local\Temp\ccyJxrux.s:839    .text.nmi_handler:000000000000004a .L0 
C:\Users\stapi\AppData\Local\Temp\ccyJxrux.s:840    .text.nmi_handler:000000000000004a .L0 
C:/Users/stapi/OneDrive/Desktop/GD32VW553/V1_MQTT_OK/GD32VW55X_Wifi_BLE_SDK/GD32VW55x_RELEASE_V1.0.2/MSDK/plf/riscv/env\handlers.c:568    .text.nmi_handler:000000000000004a .L0 
C:\Users\stapi\AppData\Local\Temp\ccyJxrux.s:849    .text.nmi_handler:000000000000004e .L0 
C:\Users\stapi\AppData\Local\Temp\ccyJxrux.s:850    .text.nmi_handler:000000000000004e .L0 
C:\Users\stapi\AppData\Local\Temp\ccyJxrux.s:857    .text.nmi_handler:0000000000000060 .L0 
C:\Users\stapi\AppData\Local\Temp\ccyJxrux.s:858    .text.nmi_handler:0000000000000060 .L0 
C:/Users/stapi/OneDrive/Desktop/GD32VW553/V1_MQTT_OK/GD32VW55X_Wifi_BLE_SDK/GD32VW55x_RELEASE_V1.0.2/MSDK/plf/riscv/env\handlers.c:569    .text.nmi_handler:0000000000000060 .L0 
C:\Users\stapi\AppData\Local\Temp\ccyJxrux.s:867    .text.nmi_handler:0000000000000064 .L0 
C:\Users\stapi\AppData\Local\Temp\ccyJxrux.s:868    .text.nmi_handler:0000000000000064 .L0 
C:\Users\stapi\AppData\Local\Temp\ccyJxrux.s:875    .text.nmi_handler:0000000000000076 .L0 
C:\Users\stapi\AppData\Local\Temp\ccyJxrux.s:876    .text.nmi_handler:0000000000000076 .L0 
C:/Users/stapi/OneDrive/Desktop/GD32VW553/V1_MQTT_OK/GD32VW55X_Wifi_BLE_SDK/GD32VW55x_RELEASE_V1.0.2/MSDK/plf/riscv/env\handlers.c:570    .text.nmi_handler:0000000000000076 .L0 
C:\Users\stapi\AppData\Local\Temp\ccyJxrux.s:885    .text.nmi_handler:000000000000007a .L0 
C:\Users\stapi\AppData\Local\Temp\ccyJxrux.s:886    .text.nmi_handler:000000000000007a .L0 
C:\Users\stapi\AppData\Local\Temp\ccyJxrux.s:892    .text.nmi_handler:000000000000008c .L0 
C:\Users\stapi\AppData\Local\Temp\ccyJxrux.s:897    .text.nmi_handler:0000000000000096 .L0 
C:\Users\stapi\AppData\Local\Temp\ccyJxrux.s:898    .text.nmi_handler:0000000000000096 .L0 
C:\Users\stapi\AppData\Local\Temp\ccyJxrux.s:899    .text.nmi_handler:0000000000000096 .L0 
C:\Users\stapi\AppData\Local\Temp\ccyJxrux.s:900    .text.nmi_handler:0000000000000098 .L0 
C:\Users\stapi\AppData\Local\Temp\ccyJxrux.s:931    .text.system_default_exception_handler:0000000000000000 .L0 
C:\Users\stapi\AppData\Local\Temp\ccyJxrux.s:933    .text.system_default_exception_handler:0000000000000000 .L0 
C:\Users\stapi\AppData\Local\Temp\ccyJxrux.s:934    .text.system_default_exception_handler:0000000000000008 .L0 
C:\Users\stapi\AppData\Local\Temp\ccyJxrux.s:935    .text.system_default_exception_handler:0000000000000008 .L0 
C:\Users\stapi\AppData\Local\Temp\ccyJxrux.s:936    .text.system_default_exception_handler:0000000000000008 .L0 
C:\Users\stapi\AppData\Local\Temp\ccyJxrux.s:937    .text.system_default_exception_handler:0000000000000008 .L0 
C:\Users\stapi\AppData\Local\Temp\ccyJxrux.s:938    .text.system_default_exception_handler:0000000000000008 .L0 
C:\Users\stapi\AppData\Local\Temp\ccyJxrux.s:939    .text.system_default_exception_handler:0000000000000008 .L0 
C:\Users\stapi\AppData\Local\Temp\ccyJxrux.s:940    .text.system_default_exception_handler:0000000000000008 .L0 
C:\Users\stapi\AppData\Local\Temp\ccyJxrux.s:941    .text.system_default_exception_handler:0000000000000008 .L0 
C:\Users\stapi\AppData\Local\Temp\ccyJxrux.s:942    .text.system_default_exception_handler:0000000000000008 .L0 
C:\Users\stapi\AppData\Local\Temp\ccyJxrux.s:943    .text.system_default_exception_handler:0000000000000008 .L0 
C:\Users\stapi\AppData\Local\Temp\ccyJxrux.s:944    .text.system_default_exception_handler:0000000000000008 .L0 
C:\Users\stapi\AppData\Local\Temp\ccyJxrux.s:945    .text.system_default_exception_handler:0000000000000008 .L0 
C:\Users\stapi\AppData\Local\Temp\ccyJxrux.s:946    .text.system_default_exception_handler:0000000000000008 .L0 
C:\Users\stapi\AppData\Local\Temp\ccyJxrux.s:947    .text.system_default_exception_handler:0000000000000008 .L0 
C:\Users\stapi\AppData\Local\Temp\ccyJxrux.s:949    .text.system_default_exception_handler:0000000000000008 .L0 
C:\Users\stapi\AppData\Local\Temp\ccyJxrux.s:950    .text.system_default_exception_handler:0000000000000008 .L0 
C:\Users\stapi\AppData\Local\Temp\ccyJxrux.s:952    .text.system_default_exception_handler:0000000000000008 .L0 
C:\Users\stapi\AppData\Local\Temp\ccyJxrux.s:953    .text.system_default_exception_handler:0000000000000008 .L0 
C:\Users\stapi\AppData\Local\Temp\ccyJxrux.s:954    .text.system_default_exception_handler:0000000000000008 .L0 
C:\Users\stapi\AppData\Local\Temp\ccyJxrux.s:955    .text.system_default_exception_handler:000000000000000a .L0 
C:\Users\stapi\AppData\Local\Temp\ccyJxrux.s:957    .text.system_default_exception_handler:000000000000000a .L0 
C:\Users\stapi\AppData\Local\Temp\ccyJxrux.s:959    .text.system_default_exception_handler:000000000000000c .L0 
C:\Users\stapi\AppData\Local\Temp\ccyJxrux.s:962    .text.system_default_exception_handler:0000000000000010 .L0 
C:\Users\stapi\AppData\Local\Temp\ccyJxrux.s:964    .text.system_default_exception_handler:0000000000000012 .L0 
C:\Users\stapi\AppData\Local\Temp\ccyJxrux.s:970    .text.system_default_exception_handler:0000000000000020 .L0 
C:\Users\stapi\AppData\Local\Temp\ccyJxrux.s:978    .text.system_default_exception_handler:0000000000000034 .L0 
C:\Users\stapi\AppData\Local\Temp\ccyJxrux.s:979    .text.system_default_exception_handler:0000000000000034 .L0 
C:/Users/stapi/OneDrive/Desktop/GD32VW553/V1_MQTT_OK/GD32VW55X_Wifi_BLE_SDK/GD32VW55x_RELEASE_V1.0.2/MSDK/plf/riscv/env\handlers.c:466    .text.system_default_exception_handler:0000000000000034 .L0 
C:\Users\stapi\AppData\Local\Temp\ccyJxrux.s:988    .text.system_default_exception_handler:0000000000000038 .L0 
C:\Users\stapi\AppData\Local\Temp\ccyJxrux.s:989    .text.system_default_exception_handler:0000000000000038 .L0 
C:\Users\stapi\AppData\Local\Temp\ccyJxrux.s:996    .text.system_default_exception_handler:000000000000004a .L0 
C:\Users\stapi\AppData\Local\Temp\ccyJxrux.s:997    .text.system_default_exception_handler:000000000000004a .L0 
C:/Users/stapi/OneDrive/Desktop/GD32VW553/V1_MQTT_OK/GD32VW55X_Wifi_BLE_SDK/GD32VW55x_RELEASE_V1.0.2/MSDK/plf/riscv/env\handlers.c:467    .text.system_default_exception_handler:000000000000004a .L0 
C:\Users\stapi\AppData\Local\Temp\ccyJxrux.s:1006   .text.system_default_exception_handler:000000000000004e .L0 
C:\Users\stapi\AppData\Local\Temp\ccyJxrux.s:1007   .text.system_default_exception_handler:000000000000004e .L0 
C:\Users\stapi\AppData\Local\Temp\ccyJxrux.s:1014   .text.system_default_exception_handler:0000000000000060 .L0 
C:\Users\stapi\AppData\Local\Temp\ccyJxrux.s:1015   .text.system_default_exception_handler:0000000000000060 .L0 
C:/Users/stapi/OneDrive/Desktop/GD32VW553/V1_MQTT_OK/GD32VW55X_Wifi_BLE_SDK/GD32VW55x_RELEASE_V1.0.2/MSDK/plf/riscv/env\handlers.c:468    .text.system_default_exception_handler:0000000000000060 .L0 
C:\Users\stapi\AppData\Local\Temp\ccyJxrux.s:1024   .text.system_default_exception_handler:0000000000000064 .L0 
C:\Users\stapi\AppData\Local\Temp\ccyJxrux.s:1025   .text.system_default_exception_handler:0000000000000064 .L0 
C:\Users\stapi\AppData\Local\Temp\ccyJxrux.s:1032   .text.system_default_exception_handler:0000000000000076 .L0 
C:\Users\stapi\AppData\Local\Temp\ccyJxrux.s:1033   .text.system_default_exception_handler:0000000000000076 .L0 
C:/Users/stapi/OneDrive/Desktop/GD32VW553/V1_MQTT_OK/GD32VW55X_Wifi_BLE_SDK/GD32VW55x_RELEASE_V1.0.2/MSDK/plf/riscv/env\handlers.c:469    .text.system_default_exception_handler:0000000000000076 .L0 
C:\Users\stapi\AppData\Local\Temp\ccyJxrux.s:1042   .text.system_default_exception_handler:000000000000007a .L0 
C:\Users\stapi\AppData\Local\Temp\ccyJxrux.s:1043   .text.system_default_exception_handler:000000000000007a .L0 
C:\Users\stapi\AppData\Local\Temp\ccyJxrux.s:1049   .text.system_default_exception_handler:000000000000008c .L0 
C:\Users\stapi\AppData\Local\Temp\ccyJxrux.s:1054   .text.system_default_exception_handler:0000000000000096 .L0 
C:\Users\stapi\AppData\Local\Temp\ccyJxrux.s:1055   .text.system_default_exception_handler:0000000000000096 .L0 
C:/Users/stapi/OneDrive/Desktop/GD32VW553/V1_MQTT_OK/GD32VW55X_Wifi_BLE_SDK/GD32VW55x_RELEASE_V1.0.2/MSDK/plf/riscv/env\handlers.c:475    .text.system_default_exception_handler:0000000000000096 .L0 
C:\Users\stapi\AppData\Local\Temp\ccyJxrux.s:1064   .text.system_default_exception_handler:000000000000009a .L0 
C:\Users\stapi\AppData\Local\Temp\ccyJxrux.s:1065   .text.system_default_exception_handler:000000000000009a .L0 
C:\Users\stapi\AppData\Local\Temp\ccyJxrux.s:1068   .text.system_default_exception_handler:000000000000009e .L0 
C:\Users\stapi\AppData\Local\Temp\ccyJxrux.s:1070   .text.system_default_exception_handler:00000000000000a2 .L0 
C:\Users\stapi\AppData\Local\Temp\ccyJxrux.s:1077   .text.system_default_exception_handler:00000000000000b6 .L0 
C:\Users\stapi\AppData\Local\Temp\ccyJxrux.s:1082   .text.system_default_exception_handler:00000000000000c0 .L0 
C:\Users\stapi\AppData\Local\Temp\ccyJxrux.s:1090   .text.system_default_exception_handler:00000000000000d4 .L0 
C:\Users\stapi\AppData\Local\Temp\ccyJxrux.s:1091   .text.system_default_exception_handler:00000000000000d4 .L0 
C:\Users\stapi\AppData\Local\Temp\ccyJxrux.s:1092   .text.system_default_exception_handler:00000000000000d4 .L0 
C:\Users\stapi\AppData\Local\Temp\ccyJxrux.s:1093   .text.system_default_exception_handler:00000000000000d4 .L0 
C:\Users\stapi\AppData\Local\Temp\ccyJxrux.s:1096   .text.system_default_exception_handler:00000000000000da .L0 
C:\Users\stapi\AppData\Local\Temp\ccyJxrux.s:1099   .text.system_default_exception_handler:00000000000000dc .L0 
C:\Users\stapi\AppData\Local\Temp\ccyJxrux.s:1100   .text.system_default_exception_handler:00000000000000dc .L0 
C:\Users\stapi\AppData\Local\Temp\ccyJxrux.s:1101   .text.system_default_exception_handler:00000000000000dc .L0 
C:\Users\stapi\AppData\Local\Temp\ccyJxrux.s:1104   .text.system_default_exception_handler:00000000000000e4 .L0 
C:\Users\stapi\AppData\Local\Temp\ccyJxrux.s:1106   .text.system_default_exception_handler:00000000000000e6 .L0 
C:\Users\stapi\AppData\Local\Temp\ccyJxrux.s:1107   .text.system_default_exception_handler:00000000000000e6 .L0 
C:\Users\stapi\AppData\Local\Temp\ccyJxrux.s:1108   .text.system_default_exception_handler:00000000000000e6 .L0 
C:\Users\stapi\AppData\Local\Temp\ccyJxrux.s:1109   .text.system_default_exception_handler:00000000000000e6 .L0 
C:\Users\stapi\AppData\Local\Temp\ccyJxrux.s:1112   .text.system_default_exception_handler:00000000000000ec .L0 
C:\Users\stapi\AppData\Local\Temp\ccyJxrux.s:1114   .text.system_default_exception_handler:00000000000000ee .L0 
C:\Users\stapi\AppData\Local\Temp\ccyJxrux.s:1116   .text.system_default_exception_handler:00000000000000f0 .L0 
C:\Users\stapi\AppData\Local\Temp\ccyJxrux.s:1119   .text.system_default_exception_handler:00000000000000f6 .L0 
C:\Users\stapi\AppData\Local\Temp\ccyJxrux.s:1121   .text.system_default_exception_handler:00000000000000fa .L0 
C:\Users\stapi\AppData\Local\Temp\ccyJxrux.s:1124   .text.system_default_exception_handler:0000000000000102 .L0 
C:\Users\stapi\AppData\Local\Temp\ccyJxrux.s:1126   .text.system_default_exception_handler:0000000000000102 .L0 
C:\Users\stapi\AppData\Local\Temp\ccyJxrux.s:1127   .text.system_default_exception_handler:0000000000000102 .L0 
C:/Users/stapi/OneDrive/Desktop/GD32VW553/V1_MQTT_OK/GD32VW55X_Wifi_BLE_SDK/GD32VW55x_RELEASE_V1.0.2/MSDK/plf/riscv/env\handlers.c:372    .text.system_default_exception_handler:0000000000000102 .L0 
C:\Users\stapi\AppData\Local\Temp\ccyJxrux.s:1136   .text.system_default_exception_handler:0000000000000106 .L0 
C:\Users\stapi\AppData\Local\Temp\ccyJxrux.s:1137   .text.system_default_exception_handler:0000000000000106 .L0 
C:\Users\stapi\AppData\Local\Temp\ccyJxrux.s:1142   .text.system_default_exception_handler:0000000000000112 .L0 
C:\Users\stapi\AppData\Local\Temp\ccyJxrux.s:1144   .text.system_default_exception_handler:0000000000000114 .L0 
C:\Users\stapi\AppData\Local\Temp\ccyJxrux.s:1147   .text.system_default_exception_handler:000000000000011c .L0 
C:\Users\stapi\AppData\Local\Temp\ccyJxrux.s:1149   .text.system_default_exception_handler:000000000000011c .L0 
C:\Users\stapi\AppData\Local\Temp\ccyJxrux.s:1150   .text.system_default_exception_handler:000000000000011c .L0 
C:/Users/stapi/OneDrive/Desktop/GD32VW553/V1_MQTT_OK/GD32VW55X_Wifi_BLE_SDK/GD32VW55x_RELEASE_V1.0.2/MSDK/plf/riscv/env\handlers.c:376    .text.system_default_exception_handler:000000000000011c .L0 
C:\Users\stapi\AppData\Local\Temp\ccyJxrux.s:1159   .text.system_default_exception_handler:0000000000000120 .L0 
C:\Users\stapi\AppData\Local\Temp\ccyJxrux.s:1160   .text.system_default_exception_handler:0000000000000120 .L0 
C:\Users\stapi\AppData\Local\Temp\ccyJxrux.s:1164   .text.system_default_exception_handler:0000000000000128 .L0 
C:\Users\stapi\AppData\Local\Temp\ccyJxrux.s:1166   .text.system_default_exception_handler:000000000000012a .L0 
C:\Users\stapi\AppData\Local\Temp\ccyJxrux.s:1169   .text.system_default_exception_handler:0000000000000132 .L0 
C:\Users\stapi\AppData\Local\Temp\ccyJxrux.s:1171   .text.system_default_exception_handler:0000000000000132 .L0 
C:\Users\stapi\AppData\Local\Temp\ccyJxrux.s:1172   .text.system_default_exception_handler:0000000000000132 .L0 
C:/Users/stapi/OneDrive/Desktop/GD32VW553/V1_MQTT_OK/GD32VW55X_Wifi_BLE_SDK/GD32VW55x_RELEASE_V1.0.2/MSDK/plf/riscv/env\handlers.c:380    .text.system_default_exception_handler:0000000000000132 .L0 
C:\Users\stapi\AppData\Local\Temp\ccyJxrux.s:1181   .text.system_default_exception_handler:0000000000000136 .L0 
C:\Users\stapi\AppData\Local\Temp\ccyJxrux.s:1182   .text.system_default_exception_handler:0000000000000136 .L0 
C:\Users\stapi\AppData\Local\Temp\ccyJxrux.s:1186   .text.system_default_exception_handler:000000000000013e .L0 
C:\Users\stapi\AppData\Local\Temp\ccyJxrux.s:1188   .text.system_default_exception_handler:0000000000000140 .L0 
C:\Users\stapi\AppData\Local\Temp\ccyJxrux.s:1191   .text.system_default_exception_handler:0000000000000148 .L0 
C:\Users\stapi\AppData\Local\Temp\ccyJxrux.s:1193   .text.system_default_exception_handler:0000000000000148 .L0 
C:\Users\stapi\AppData\Local\Temp\ccyJxrux.s:1194   .text.system_default_exception_handler:0000000000000148 .L0 
C:/Users/stapi/OneDrive/Desktop/GD32VW553/V1_MQTT_OK/GD32VW55X_Wifi_BLE_SDK/GD32VW55x_RELEASE_V1.0.2/MSDK/plf/riscv/env\handlers.c:384    .text.system_default_exception_handler:0000000000000148 .L0 
C:\Users\stapi\AppData\Local\Temp\ccyJxrux.s:1203   .text.system_default_exception_handler:000000000000014c .L0 
C:\Users\stapi\AppData\Local\Temp\ccyJxrux.s:1204   .text.system_default_exception_handler:000000000000014c .L0 
C:\Users\stapi\AppData\Local\Temp\ccyJxrux.s:1208   .text.system_default_exception_handler:0000000000000154 .L0 
C:\Users\stapi\AppData\Local\Temp\ccyJxrux.s:1210   .text.system_default_exception_handler:0000000000000156 .L0 
C:\Users\stapi\AppData\Local\Temp\ccyJxrux.s:1213   .text.system_default_exception_handler:000000000000015e .L0 
C:\Users\stapi\AppData\Local\Temp\ccyJxrux.s:1215   .text.system_default_exception_handler:000000000000015e .L0 
C:\Users\stapi\AppData\Local\Temp\ccyJxrux.s:1216   .text.system_default_exception_handler:000000000000015e .L0 
C:/Users/stapi/OneDrive/Desktop/GD32VW553/V1_MQTT_OK/GD32VW55X_Wifi_BLE_SDK/GD32VW55x_RELEASE_V1.0.2/MSDK/plf/riscv/env\handlers.c:388    .text.system_default_exception_handler:000000000000015e .L0 
C:\Users\stapi\AppData\Local\Temp\ccyJxrux.s:1225   .text.system_default_exception_handler:0000000000000162 .L0 
C:\Users\stapi\AppData\Local\Temp\ccyJxrux.s:1226   .text.system_default_exception_handler:0000000000000162 .L0 
C:\Users\stapi\AppData\Local\Temp\ccyJxrux.s:1230   .text.system_default_exception_handler:000000000000016a .L0 
C:\Users\stapi\AppData\Local\Temp\ccyJxrux.s:1232   .text.system_default_exception_handler:000000000000016c .L0 
C:\Users\stapi\AppData\Local\Temp\ccyJxrux.s:1235   .text.system_default_exception_handler:0000000000000174 .L0 
C:\Users\stapi\AppData\Local\Temp\ccyJxrux.s:1236   .text.system_default_exception_handler:0000000000000174 .L0 
C:\Users\stapi\AppData\Local\Temp\ccyJxrux.s:1237   .text.system_default_exception_handler:0000000000000174 .L0 
C:\Users\stapi\AppData\Local\Temp\ccyJxrux.s:1241   .text.system_default_exception_handler:000000000000017a .L0 
C:\Users\stapi\AppData\Local\Temp\ccyJxrux.s:1242   .text.system_default_exception_handler:000000000000017a .L0 
C:/Users/stapi/OneDrive/Desktop/GD32VW553/V1_MQTT_OK/GD32VW55X_Wifi_BLE_SDK/GD32VW55x_RELEASE_V1.0.2/MSDK/plf/riscv/env\handlers.c:394    .text.system_default_exception_handler:000000000000017a .L0 
C:\Users\stapi\AppData\Local\Temp\ccyJxrux.s:1251   .text.system_default_exception_handler:000000000000017e .L0 
C:\Users\stapi\AppData\Local\Temp\ccyJxrux.s:1252   .text.system_default_exception_handler:000000000000017e .L0 
C:\Users\stapi\AppData\Local\Temp\ccyJxrux.s:1255   .text.system_default_exception_handler:0000000000000182 .L0 
C:\Users\stapi\AppData\Local\Temp\ccyJxrux.s:1258   .text.system_default_exception_handler:0000000000000186 .L0 
C:\Users\stapi\AppData\Local\Temp\ccyJxrux.s:1259   .text.system_default_exception_handler:0000000000000186 .L0 
C:\Users\stapi\AppData\Local\Temp\ccyJxrux.s:1263   .text.system_default_exception_handler:0000000000000190 .L0 
C:\Users\stapi\AppData\Local\Temp\ccyJxrux.s:1266   .text.system_default_exception_handler:0000000000000194 .L0 
C:\Users\stapi\AppData\Local\Temp\ccyJxrux.s:1268   .text.system_default_exception_handler:0000000000000198 .L0 
C:\Users\stapi\AppData\Local\Temp\ccyJxrux.s:1271   .text.system_default_exception_handler:000000000000019a .L0 
C:\Users\stapi\AppData\Local\Temp\ccyJxrux.s:1272   .text.system_default_exception_handler:000000000000019a .L0 
C:\Users\stapi\AppData\Local\Temp\ccyJxrux.s:1274   .text.system_default_exception_handler:000000000000019e .L0 
C:\Users\stapi\AppData\Local\Temp\ccyJxrux.s:1280   .text.system_default_exception_handler:00000000000001a2 .L0 
C:\Users\stapi\AppData\Local\Temp\ccyJxrux.s:1281   .text.system_default_exception_handler:00000000000001a2 .L0 
C:\Users\stapi\AppData\Local\Temp\ccyJxrux.s:1282   .text.system_default_exception_handler:00000000000001a2 .L0 
C:\Users\stapi\AppData\Local\Temp\ccyJxrux.s:1287   .text.system_default_exception_handler:00000000000001ae .L0 
C:\Users\stapi\AppData\Local\Temp\ccyJxrux.s:1289   .text.system_default_exception_handler:00000000000001b2 .L0 
C:\Users\stapi\AppData\Local\Temp\ccyJxrux.s:1292   .text.system_default_exception_handler:00000000000001ba .L0 
C:\Users\stapi\AppData\Local\Temp\ccyJxrux.s:1293   .text.system_default_exception_handler:00000000000001ba .L0 
C:\Users\stapi\AppData\Local\Temp\ccyJxrux.s:1299   .text.system_default_exception_handler:00000000000001ca .L0 
C:\Users\stapi\AppData\Local\Temp\ccyJxrux.s:1300   .text.system_default_exception_handler:00000000000001ca .L0 
C:\Users\stapi\AppData\Local\Temp\ccyJxrux.s:1306   .text.system_default_exception_handler:00000000000001ce .L0 
C:\Users\stapi\AppData\Local\Temp\ccyJxrux.s:1311   .text.system_default_exception_handler:00000000000001d0 .L0 
C:\Users\stapi\AppData\Local\Temp\ccyJxrux.s:1312   .text.system_default_exception_handler:00000000000001d0 .L0 
C:\Users\stapi\AppData\Local\Temp\ccyJxrux.s:1313   .text.system_default_exception_handler:00000000000001d0 .L0 
C:\Users\stapi\AppData\Local\Temp\ccyJxrux.s:1316   .text.system_default_exception_handler:00000000000001d4 .L0 
C:\Users\stapi\AppData\Local\Temp\ccyJxrux.s:1318   .text.system_default_exception_handler:00000000000001d8 .L0 
C:\Users\stapi\AppData\Local\Temp\ccyJxrux.s:1324   .text.system_default_exception_handler:00000000000001e0 .L0 
C:\Users\stapi\AppData\Local\Temp\ccyJxrux.s:1334   .text.system_default_exception_handler:00000000000001fc .L0 
C:\Users\stapi\AppData\Local\Temp\ccyJxrux.s:1340   .text.system_default_exception_handler:000000000000020e .L0 
C:\Users\stapi\AppData\Local\Temp\ccyJxrux.s:1348   .text.system_default_exception_handler:0000000000000220 .L0 
C:\Users\stapi\AppData\Local\Temp\ccyJxrux.s:1352   .text.system_default_exception_handler:0000000000000224 .L0 
C:\Users\stapi\AppData\Local\Temp\ccyJxrux.s:1356   .text.system_default_exception_handler:0000000000000228 .L0 
C:\Users\stapi\AppData\Local\Temp\ccyJxrux.s:1358   .text.system_default_exception_handler:000000000000022c .L0 
C:\Users\stapi\AppData\Local\Temp\ccyJxrux.s:1361   .text.system_default_exception_handler:0000000000000230 .L0 
C:\Users\stapi\AppData\Local\Temp\ccyJxrux.s:1366   .text.system_default_exception_handler:0000000000000234 .L0 
C:\Users\stapi\AppData\Local\Temp\ccyJxrux.s:1368   .text.system_default_exception_handler:0000000000000236 .L0 
C:\Users\stapi\AppData\Local\Temp\ccyJxrux.s:1372   .text.system_default_exception_handler:000000000000023a .L0 
C:\Users\stapi\AppData\Local\Temp\ccyJxrux.s:1375   .text.system_default_exception_handler:000000000000023c .L0 
C:\Users\stapi\AppData\Local\Temp\ccyJxrux.s:1378   .text.system_default_exception_handler:0000000000000240 .L0 
C:\Users\stapi\AppData\Local\Temp\ccyJxrux.s:1385   .text.system_default_exception_handler:0000000000000244 .L0 
C:\Users\stapi\AppData\Local\Temp\ccyJxrux.s:1386   .text.system_default_exception_handler:0000000000000244 .L0 
C:\Users\stapi\AppData\Local\Temp\ccyJxrux.s:1387   .text.system_default_exception_handler:0000000000000244 .L0 
C:\Users\stapi\AppData\Local\Temp\ccyJxrux.s:1392   .text.system_default_exception_handler:0000000000000252 .L0 
C:\Users\stapi\AppData\Local\Temp\ccyJxrux.s:1394   .text.system_default_exception_handler:0000000000000254 .L0 
C:\Users\stapi\AppData\Local\Temp\ccyJxrux.s:1400   .text.system_default_exception_handler:0000000000000262 .L0 
C:\Users\stapi\AppData\Local\Temp\ccyJxrux.s:1401   .text.system_default_exception_handler:0000000000000262 .L0 
C:\Users\stapi\AppData\Local\Temp\ccyJxrux.s:1406   .text.system_default_exception_handler:0000000000000270 .L0 
C:\Users\stapi\AppData\Local\Temp\ccyJxrux.s:1408   .text.system_default_exception_handler:0000000000000272 .L0 
C:\Users\stapi\AppData\Local\Temp\ccyJxrux.s:1409   .text.system_default_exception_handler:0000000000000272 .L0 
C:\Users\stapi\AppData\Local\Temp\ccyJxrux.s:1413   .text.system_default_exception_handler:000000000000027e .L0 
C:\Users\stapi\AppData\Local\Temp\ccyJxrux.s:1415   .text.system_default_exception_handler:0000000000000280 .L0 
C:\Users\stapi\AppData\Local\Temp\ccyJxrux.s:1418   .text.system_default_exception_handler:0000000000000284 .L0 
C:\Users\stapi\AppData\Local\Temp\ccyJxrux.s:1419   .text.system_default_exception_handler:0000000000000284 .L0 
C:\Users\stapi\AppData\Local\Temp\ccyJxrux.s:1421   .text.system_default_exception_handler:0000000000000288 .L0 
C:\Users\stapi\AppData\Local\Temp\ccyJxrux.s:1425   .text.system_default_exception_handler:000000000000028e .L0 
C:\Users\stapi\AppData\Local\Temp\ccyJxrux.s:1429   .text.system_default_exception_handler:0000000000000298 .L0 
C:\Users\stapi\AppData\Local\Temp\ccyJxrux.s:1433   .text.system_default_exception_handler:00000000000002a2 .L0 
C:\Users\stapi\AppData\Local\Temp\ccyJxrux.s:1434   .text.system_default_exception_handler:00000000000002a2 .L0 
C:\Users\stapi\AppData\Local\Temp\ccyJxrux.s:1439   .text.system_default_exception_handler:00000000000002a6 .L0 
C:\Users\stapi\AppData\Local\Temp\ccyJxrux.s:1440   .text.system_default_exception_handler:00000000000002a6 .L0 
C:\Users\stapi\AppData\Local\Temp\ccyJxrux.s:1441   .text.system_default_exception_handler:00000000000002a6 .L0 
C:\Users\stapi\AppData\Local\Temp\ccyJxrux.s:1442   .text.system_default_exception_handler:00000000000002a6 .L0 
C:\Users\stapi\AppData\Local\Temp\ccyJxrux.s:1443   .text.system_default_exception_handler:00000000000002a6 .L0 
C:\Users\stapi\AppData\Local\Temp\ccyJxrux.s:1444   .text.system_default_exception_handler:00000000000002a6 .L0 
C:\Users\stapi\AppData\Local\Temp\ccyJxrux.s:1445   .text.system_default_exception_handler:00000000000002a6 .L0 
C:\Users\stapi\AppData\Local\Temp\ccyJxrux.s:1446   .text.system_default_exception_handler:00000000000002a6 .L0 
C:\Users\stapi\AppData\Local\Temp\ccyJxrux.s:1447   .text.system_default_exception_handler:00000000000002a6 .L0 
C:\Users\stapi\AppData\Local\Temp\ccyJxrux.s:1449   .text.system_default_exception_handler:00000000000002a8 .L0 
C:\Users\stapi\AppData\Local\Temp\ccyJxrux.s:1451   .text.system_default_exception_handler:00000000000002aa .L0 
C:\Users\stapi\AppData\Local\Temp\ccyJxrux.s:1453   .text.system_default_exception_handler:00000000000002ac .L0 
C:\Users\stapi\AppData\Local\Temp\ccyJxrux.s:1457   .text.system_default_exception_handler:00000000000002b6 .L0 
C:\Users\stapi\AppData\Local\Temp\ccyJxrux.s:1458   .text.system_default_exception_handler:00000000000002b6 .L0 
C:\Users\stapi\AppData\Local\Temp\ccyJxrux.s:1459   .text.system_default_exception_handler:00000000000002b6 .L0 
C:\Users\stapi\AppData\Local\Temp\ccyJxrux.s:1463   .text.system_default_exception_handler:00000000000002c0 .L0 
C:\Users\stapi\AppData\Local\Temp\ccyJxrux.s:1464   .text.system_default_exception_handler:00000000000002c0 .L0 
C:\Users\stapi\AppData\Local\Temp\ccyJxrux.s:1465   .text.system_default_exception_handler:00000000000002c0 .L0 
C:\Users\stapi\AppData\Local\Temp\ccyJxrux.s:1467   .text.system_default_exception_handler:00000000000002c2 .L0 
C:\Users\stapi\AppData\Local\Temp\ccyJxrux.s:1469   .text.system_default_exception_handler:00000000000002c4 .L0 
C:\Users\stapi\AppData\Local\Temp\ccyJxrux.s:1471   .text.system_default_exception_handler:00000000000002c6 .L0 
C:\Users\stapi\AppData\Local\Temp\ccyJxrux.s:1473   .text.system_default_exception_handler:00000000000002c8 .L0 
C:\Users\stapi\AppData\Local\Temp\ccyJxrux.s:1475   .text.system_default_exception_handler:00000000000002cc .L0 
C:\Users\stapi\AppData\Local\Temp\ccyJxrux.s:1477   .text.system_default_exception_handler:00000000000002ce .L0 
C:\Users\stapi\AppData\Local\Temp\ccyJxrux.s:1479   .text.system_default_exception_handler:00000000000002d0 .L0 
C:\Users\stapi\AppData\Local\Temp\ccyJxrux.s:1481   .text.system_default_exception_handler:00000000000002d2 .L0 
C:\Users\stapi\AppData\Local\Temp\ccyJxrux.s:1483   .text.system_default_exception_handler:00000000000002d4 .L0 
C:\Users\stapi\AppData\Local\Temp\ccyJxrux.s:1485   .text.system_default_exception_handler:00000000000002d6 .L0 
C:\Users\stapi\AppData\Local\Temp\ccyJxrux.s:1487   .text.system_default_exception_handler:00000000000002da .L0 
C:\Users\stapi\AppData\Local\Temp\ccyJxrux.s:1489   .text.system_default_exception_handler:00000000000002de .L0 
C:\Users\stapi\AppData\Local\Temp\ccyJxrux.s:1491   .text.system_default_exception_handler:00000000000002e2 .L0 
C:\Users\stapi\AppData\Local\Temp\ccyJxrux.s:1495   .text.system_default_exception_handler:00000000000002e4 .L0 
C:\Users\stapi\AppData\Local\Temp\ccyJxrux.s:1500   .text.system_default_exception_handler:00000000000002f0 .L0 
C:\Users\stapi\AppData\Local\Temp\ccyJxrux.s:1501   .text.system_default_exception_handler:00000000000002f0 .L0 
C:\Users\stapi\AppData\Local\Temp\ccyJxrux.s:1507   .text.system_default_exception_handler:00000000000002f8 .L0 
C:\Users\stapi\AppData\Local\Temp\ccyJxrux.s:1509   .text.system_default_exception_handler:00000000000002fc .L0 
C:\Users\stapi\AppData\Local\Temp\ccyJxrux.s:1511   .text.system_default_exception_handler:0000000000000300 .L0 
C:\Users\stapi\AppData\Local\Temp\ccyJxrux.s:1518   .text.system_default_exception_handler:0000000000000310 .L0 
C:\Users\stapi\AppData\Local\Temp\ccyJxrux.s:1519   .text.system_default_exception_handler:0000000000000310 .L0 
C:\Users\stapi\AppData\Local\Temp\ccyJxrux.s:1524   .text.system_default_exception_handler:0000000000000316 .L0 
C:\Users\stapi\AppData\Local\Temp\ccyJxrux.s:1528   .text.system_default_exception_handler:0000000000000322 .L0 
C:\Users\stapi\AppData\Local\Temp\ccyJxrux.s:1529   .text.system_default_exception_handler:0000000000000322 .L0 
C:\Users\stapi\AppData\Local\Temp\ccyJxrux.s:1534   .text.system_default_exception_handler:0000000000000328 .L0 
C:\Users\stapi\AppData\Local\Temp\ccyJxrux.s:1535   .text.system_default_exception_handler:0000000000000328 .L0 
C:\Users\stapi\AppData\Local\Temp\ccyJxrux.s:1536   .text.system_default_exception_handler:0000000000000328 .L0 
C:\Users\stapi\AppData\Local\Temp\ccyJxrux.s:1539   .text.system_default_exception_handler:000000000000032e .L0 
C:\Users\stapi\AppData\Local\Temp\ccyJxrux.s:1543   .text.system_default_exception_handler:0000000000000330 .L0 
C:\Users\stapi\AppData\Local\Temp\ccyJxrux.s:1545   .text.system_default_exception_handler:0000000000000334 .L0 
C:\Users\stapi\AppData\Local\Temp\ccyJxrux.s:1548   .text.system_default_exception_handler:0000000000000336 .L0 
C:\Users\stapi\AppData\Local\Temp\ccyJxrux.s:1553   .text.system_default_exception_handler:0000000000000338 .L0 
C:\Users\stapi\AppData\Local\Temp\ccyJxrux.s:1554   .text.system_default_exception_handler:0000000000000338 .L0 
C:\Users\stapi\AppData\Local\Temp\ccyJxrux.s:1557   .text.system_default_exception_handler:000000000000033c .L0 
C:\Users\stapi\AppData\Local\Temp\ccyJxrux.s:1558   .text.system_default_exception_handler:000000000000033c .L0 
C:\Users\stapi\AppData\Local\Temp\ccyJxrux.s:1561   .text.system_default_exception_handler:0000000000000340 .L0 
C:\Users\stapi\AppData\Local\Temp\ccyJxrux.s:1562   .text.system_default_exception_handler:0000000000000340 .L0 
C:\Users\stapi\AppData\Local\Temp\ccyJxrux.s:1563   .text.system_default_exception_handler:0000000000000340 .L0 
C:\Users\stapi\AppData\Local\Temp\ccyJxrux.s:1564   .text.system_default_exception_handler:0000000000000340 .L0 
C:\Users\stapi\AppData\Local\Temp\ccyJxrux.s:1567   .text.system_default_exception_handler:0000000000000344 .L0 
C:\Users\stapi\AppData\Local\Temp\ccyJxrux.s:1568   .text.system_default_exception_handler:0000000000000344 .L0 
C:\Users\stapi\AppData\Local\Temp\ccyJxrux.s:1570   .text.system_default_exception_handler:0000000000000348 .L0 
C:\Users\stapi\AppData\Local\Temp\ccyJxrux.s:1572   .text.system_default_exception_handler:000000000000034c .L0 
C:\Users\stapi\AppData\Local\Temp\ccyJxrux.s:1573   .text.system_default_exception_handler:000000000000034c .L0 
C:\Users\stapi\AppData\Local\Temp\ccyJxrux.s:1577   .text.system_default_exception_handler:0000000000000350 .L0 
C:\Users\stapi\AppData\Local\Temp\ccyJxrux.s:1581   .text.system_default_exception_handler:000000000000035c .L0 
C:\Users\stapi\AppData\Local\Temp\ccyJxrux.s:1582   .text.system_default_exception_handler:000000000000035c .L0 
C:\Users\stapi\AppData\Local\Temp\ccyJxrux.s:1583   .text.system_default_exception_handler:000000000000035c .L0 
C:\Users\stapi\AppData\Local\Temp\ccyJxrux.s:1584   .text.system_default_exception_handler:000000000000035c .L0 
C:\Users\stapi\AppData\Local\Temp\ccyJxrux.s:1587   .text.system_default_exception_handler:0000000000000360 .L0 
C:\Users\stapi\AppData\Local\Temp\ccyJxrux.s:1588   .text.system_default_exception_handler:0000000000000360 .L0 
C:\Users\stapi\AppData\Local\Temp\ccyJxrux.s:1590   .text.system_default_exception_handler:0000000000000364 .L0 
C:\Users\stapi\AppData\Local\Temp\ccyJxrux.s:1591   .text.system_default_exception_handler:0000000000000364 .L0 
C:\Users\stapi\AppData\Local\Temp\ccyJxrux.s:1595   .text.system_default_exception_handler:0000000000000368 .L0 
C:\Users\stapi\AppData\Local\Temp\ccyJxrux.s:1599   .text.system_default_exception_handler:0000000000000374 .L0 
C:\Users\stapi\AppData\Local\Temp\ccyJxrux.s:1600   .text.system_default_exception_handler:0000000000000374 .L0 
C:\Users\stapi\AppData\Local\Temp\ccyJxrux.s:1601   .text.system_default_exception_handler:0000000000000374 .L0 
C:\Users\stapi\AppData\Local\Temp\ccyJxrux.s:1602   .text.system_default_exception_handler:0000000000000374 .L0 
C:\Users\stapi\AppData\Local\Temp\ccyJxrux.s:1604   .text.system_default_exception_handler:0000000000000378 .L0 
C:\Users\stapi\AppData\Local\Temp\ccyJxrux.s:1607   .text.system_default_exception_handler:000000000000037a .L0 
C:\Users\stapi\AppData\Local\Temp\ccyJxrux.s:1610   .text.system_default_exception_handler:000000000000037e .L0 
C:\Users\stapi\AppData\Local\Temp\ccyJxrux.s:1612   .text.system_default_exception_handler:0000000000000382 .L0 
C:\Users\stapi\AppData\Local\Temp\ccyJxrux.s:1619   .text.system_default_exception_handler:0000000000000390 .L0 
C:\Users\stapi\AppData\Local\Temp\ccyJxrux.s:1629   .text.system_default_exception_handler:000000000000039a .L0 
C:\Users\stapi\AppData\Local\Temp\ccyJxrux.s:1630   .text.system_default_exception_handler:000000000000039a .L0 
C:/Users/stapi/OneDrive/Desktop/GD32VW553/V1_MQTT_OK/GD32VW55X_Wifi_BLE_SDK/GD32VW55x_RELEASE_V1.0.2/MSDK/plf/riscv/env\handlers.c:480    .text.system_default_exception_handler:000000000000039a .L0 
C:\Users\stapi\AppData\Local\Temp\ccyJxrux.s:1639   .text.system_default_exception_handler:000000000000039e .L0 
C:\Users\stapi\AppData\Local\Temp\ccyJxrux.s:1640   .text.system_default_exception_handler:000000000000039e .L0 
C:\Users\stapi\AppData\Local\Temp\ccyJxrux.s:1642   .text.system_default_exception_handler:00000000000003a2 .L0 
C:\Users\stapi\AppData\Local\Temp\ccyJxrux.s:1645   .text.system_default_exception_handler:00000000000003a6 .L0 
C:\Users\stapi\AppData\Local\Temp\ccyJxrux.s:1649   .text.system_default_exception_handler:00000000000003aa .L0 
C:\Users\stapi\AppData\Local\Temp\ccyJxrux.s:1650   .text.system_default_exception_handler:00000000000003aa .L0 
C:/Users/stapi/OneDrive/Desktop/GD32VW553/V1_MQTT_OK/GD32VW55X_Wifi_BLE_SDK/GD32VW55x_RELEASE_V1.0.2/MSDK/plf/riscv/env\handlers.c:481    .text.system_default_exception_handler:00000000000003aa .L0 
C:\Users\stapi\AppData\Local\Temp\ccyJxrux.s:1659   .text.system_default_exception_handler:00000000000003ae .L0 
C:\Users\stapi\AppData\Local\Temp\ccyJxrux.s:1660   .text.system_default_exception_handler:00000000000003ae .L0 
C:\Users\stapi\AppData\Local\Temp\ccyJxrux.s:1667   .text.system_default_exception_handler:00000000000003c2 .L0 
C:\Users\stapi\AppData\Local\Temp\ccyJxrux.s:1668   .text.system_default_exception_handler:00000000000003c2 .L0 
C:\Users\stapi\AppData\Local\Temp\ccyJxrux.s:1669   .text.system_default_exception_handler:00000000000003c2 .L0 
C:\Users\stapi\AppData\Local\Temp\ccyJxrux.s:1675   .text.system_default_exception_handler:00000000000003d4 .L0 
C:\Users\stapi\AppData\Local\Temp\ccyJxrux.s:1680   .text.system_default_exception_handler:00000000000003e2 .L0 
C:\Users\stapi\AppData\Local\Temp\ccyJxrux.s:1681   .text.system_default_exception_handler:00000000000003e2 .L0 
C:\Users\stapi\AppData\Local\Temp\ccyJxrux.s:1695   .text.system_default_exception_handler:00000000000003f8 .L0 
C:\Users\stapi\AppData\Local\Temp\ccyJxrux.s:1696   .text.system_default_exception_handler:00000000000003f8 .L0 
C:/Users/stapi/OneDrive/Desktop/GD32VW553/V1_MQTT_OK/GD32VW55X_Wifi_BLE_SDK/GD32VW55x_RELEASE_V1.0.2/MSDK/plf/riscv/env\handlers.c:407    .text.system_default_exception_handler:00000000000003f8 .L0 
C:\Users\stapi\AppData\Local\Temp\ccyJxrux.s:1705   .text.system_default_exception_handler:00000000000003fc .L0 
C:\Users\stapi\AppData\Local\Temp\ccyJxrux.s:1706   .text.system_default_exception_handler:00000000000003fc .L0 
C:\Users\stapi\AppData\Local\Temp\ccyJxrux.s:1708   .text.system_default_exception_handler:0000000000000400 .L0 
C:\Users\stapi\AppData\Local\Temp\ccyJxrux.s:1711   .text.system_default_exception_handler:0000000000000404 .L0 
C:\Users\stapi\AppData\Local\Temp\ccyJxrux.s:1713   .text.system_default_exception_handler:0000000000000408 .L0 
C:\Users\stapi\AppData\Local\Temp\ccyJxrux.s:1717   .text.system_default_exception_handler:000000000000040c .L0 
C:\Users\stapi\AppData\Local\Temp\ccyJxrux.s:1718   .text.system_default_exception_handler:000000000000040c .L0 
C:/Users/stapi/OneDrive/Desktop/GD32VW553/V1_MQTT_OK/GD32VW55X_Wifi_BLE_SDK/GD32VW55x_RELEASE_V1.0.2/MSDK/plf/riscv/env\handlers.c:408    .text.system_default_exception_handler:000000000000040c .L0 
C:\Users\stapi\AppData\Local\Temp\ccyJxrux.s:1727   .text.system_default_exception_handler:0000000000000410 .L0 
C:\Users\stapi\AppData\Local\Temp\ccyJxrux.s:1728   .text.system_default_exception_handler:0000000000000410 .L0 
C:\Users\stapi\AppData\Local\Temp\ccyJxrux.s:1729   .text.system_default_exception_handler:0000000000000410 .L0 
C:\Users\stapi\AppData\Local\Temp\ccyJxrux.s:1734   .text.system_default_exception_handler:000000000000041c .L0 
C:\Users\stapi\AppData\Local\Temp\ccyJxrux.s:1735   .text.system_default_exception_handler:000000000000041c .L0 
C:\Users\stapi\AppData\Local\Temp\ccyJxrux.s:1736   .text.system_default_exception_handler:000000000000041c .L0 
C:\Users\stapi\AppData\Local\Temp\ccyJxrux.s:1737   .text.system_default_exception_handler:000000000000041c .L0 
C:\Users\stapi\AppData\Local\Temp\ccyJxrux.s:1740   .text.system_default_exception_handler:0000000000000422 .L0 
C:\Users\stapi\AppData\Local\Temp\ccyJxrux.s:1748   .text.system_default_exception_handler:0000000000000430 .L0 
C:\Users\stapi\AppData\Local\Temp\ccyJxrux.s:1749   .text.system_default_exception_handler:0000000000000430 .L0 
C:\Users\stapi\AppData\Local\Temp\ccyJxrux.s:1750   .text.system_default_exception_handler:0000000000000430 .L0 
C:\Users\stapi\AppData\Local\Temp\ccyJxrux.s:1751   .text.system_default_exception_handler:0000000000000430 .L0 
C:\Users\stapi\AppData\Local\Temp\ccyJxrux.s:1753   .text.system_default_exception_handler:0000000000000434 .L0 
C:\Users\stapi\AppData\Local\Temp\ccyJxrux.s:1756   .text.system_default_exception_handler:0000000000000438 .L0 
C:\Users\stapi\AppData\Local\Temp\ccyJxrux.s:1760   .text.system_default_exception_handler:0000000000000440 .L0 
C:\Users\stapi\AppData\Local\Temp\ccyJxrux.s:1762   .text.system_default_exception_handler:0000000000000444 .L0 
C:\Users\stapi\AppData\Local\Temp\ccyJxrux.s:1765   .text.system_default_exception_handler:000000000000044c .L0 
C:\Users\stapi\AppData\Local\Temp\ccyJxrux.s:1766   .text.system_default_exception_handler:000000000000044c .L0 
C:\Users\stapi\AppData\Local\Temp\ccyJxrux.s:1767   .text.system_default_exception_handler:000000000000044c .L0 
C:\Users\stapi\AppData\Local\Temp\ccyJxrux.s:1773   .text.system_default_exception_handler:000000000000045e .L0 
C:\Users\stapi\AppData\Local\Temp\ccyJxrux.s:1774   .text.system_default_exception_handler:000000000000045e .L0 
C:\Users\stapi\AppData\Local\Temp\ccyJxrux.s:1775   .text.system_default_exception_handler:000000000000045e .L0 
C:\Users\stapi\AppData\Local\Temp\ccyJxrux.s:1781   .text.system_default_exception_handler:000000000000046e .L0 
C:\Users\stapi\AppData\Local\Temp\ccyJxrux.s:1782   .text.system_default_exception_handler:000000000000046e .L0 
C:\Users\stapi\AppData\Local\Temp\ccyJxrux.s:1792   .text.system_default_exception_handler:0000000000000474 .L0 
C:\Users\stapi\AppData\Local\Temp\ccyJxrux.s:1793   .text.system_default_exception_handler:0000000000000474 .L0 
C:\Users\stapi\AppData\Local\Temp\ccyJxrux.s:1795   .text.system_default_exception_handler:0000000000000478 .L0 
C:\Users\stapi\AppData\Local\Temp\ccyJxrux.s:1797   .text.system_default_exception_handler:000000000000047c .L0 
C:\Users\stapi\AppData\Local\Temp\ccyJxrux.s:1800   .text.system_default_exception_handler:0000000000000482 .L0 
C:\Users\stapi\AppData\Local\Temp\ccyJxrux.s:1804   .text.system_default_exception_handler:0000000000000484 .L0 
C:\Users\stapi\AppData\Local\Temp\ccyJxrux.s:1805   .text.system_default_exception_handler:0000000000000484 .L0 
C:\Users\stapi\AppData\Local\Temp\ccyJxrux.s:1811   .text.system_default_exception_handler:0000000000000490 .L0 
C:\Users\stapi\AppData\Local\Temp\ccyJxrux.s:1819   .text.system_default_exception_handler:00000000000004a0 .L0 
C:\Users\stapi\AppData\Local\Temp\ccyJxrux.s:1820   .text.system_default_exception_handler:00000000000004a0 .L0 
C:\Users\stapi\AppData\Local\Temp\ccyJxrux.s:1821   .text.system_default_exception_handler:00000000000004a0 .L0 
C:\Users\stapi\AppData\Local\Temp\ccyJxrux.s:1822   .text.system_default_exception_handler:00000000000004a0 .L0 
C:\Users\stapi\AppData\Local\Temp\ccyJxrux.s:1826   .text.system_default_exception_handler:00000000000004a6 .L0 
C:\Users\stapi\AppData\Local\Temp\ccyJxrux.s:1831   .text.system_default_exception_handler:00000000000004b0 .L0 
C:\Users\stapi\AppData\Local\Temp\ccyJxrux.s:1832   .text.system_default_exception_handler:00000000000004b0 .L0 
C:/Users/stapi/OneDrive/Desktop/GD32VW553/V1_MQTT_OK/GD32VW55X_Wifi_BLE_SDK/GD32VW55x_RELEASE_V1.0.2/MSDK/plf/riscv/env\handlers.c:243    .text.system_default_exception_handler:00000000000004b0 .L0 
C:\Users\stapi\AppData\Local\Temp\ccyJxrux.s:1841   .text.system_default_exception_handler:00000000000004b4 .L0 
C:\Users\stapi\AppData\Local\Temp\ccyJxrux.s:1842   .text.system_default_exception_handler:00000000000004b4 .L0 
C:\Users\stapi\AppData\Local\Temp\ccyJxrux.s:1845   .text.system_default_exception_handler:00000000000004b8 .L0 
C:\Users\stapi\AppData\Local\Temp\ccyJxrux.s:1847   .text.system_default_exception_handler:00000000000004ba .L0 
C:\Users\stapi\AppData\Local\Temp\ccyJxrux.s:1854   .text.system_default_exception_handler:00000000000004ce .L0 
C:\Users\stapi\AppData\Local\Temp\ccyJxrux.s:1859   .text.system_default_exception_handler:00000000000004d8 .L0 
C:\Users\stapi\AppData\Local\Temp\ccyJxrux.s:1863   .text.system_default_exception_handler:00000000000004e0 .L0 
C:\Users\stapi\AppData\Local\Temp\ccyJxrux.s:1869   .text.system_default_exception_handler:00000000000004e8 .L0 
C:\Users\stapi\AppData\Local\Temp\ccyJxrux.s:1870   .text.system_default_exception_handler:00000000000004e8 .L0 
C:\Users\stapi\AppData\Local\Temp\ccyJxrux.s:1874   .text.system_default_exception_handler:00000000000004f4 .L0 
C:\Users\stapi\AppData\Local\Temp\ccyJxrux.s:1878   .text.system_default_exception_handler:0000000000000500 .L0 
C:\Users\stapi\AppData\Local\Temp\ccyJxrux.s:1879   .text.system_default_exception_handler:0000000000000500 .L0 
C:\Users\stapi\AppData\Local\Temp\ccyJxrux.s:1887   .text.system_default_exception_handler:0000000000000504 .L0 
C:\Users\stapi\AppData\Local\Temp\ccyJxrux.s:1888   .text.system_default_exception_handler:0000000000000504 .L0 
C:/Users/stapi/OneDrive/Desktop/GD32VW553/V1_MQTT_OK/GD32VW55X_Wifi_BLE_SDK/GD32VW55x_RELEASE_V1.0.2/MSDK/plf/riscv/env\handlers.c:248    .text.system_default_exception_handler:0000000000000504 .L0 
C:\Users\stapi\AppData\Local\Temp\ccyJxrux.s:1897   .text.system_default_exception_handler:0000000000000508 .L0 
C:\Users\stapi\AppData\Local\Temp\ccyJxrux.s:1898   .text.system_default_exception_handler:0000000000000508 .L0 
C:\Users\stapi\AppData\Local\Temp\ccyJxrux.s:1900   .text.system_default_exception_handler:000000000000050c .L0 
C:\Users\stapi\AppData\Local\Temp\ccyJxrux.s:1903   .text.system_default_exception_handler:0000000000000510 .L0 
C:\Users\stapi\AppData\Local\Temp\ccyJxrux.s:1907   .text.system_default_exception_handler:0000000000000514 .L0 
C:\Users\stapi\AppData\Local\Temp\ccyJxrux.s:1908   .text.system_default_exception_handler:0000000000000514 .L0 
C:/Users/stapi/OneDrive/Desktop/GD32VW553/V1_MQTT_OK/GD32VW55X_Wifi_BLE_SDK/GD32VW55x_RELEASE_V1.0.2/MSDK/plf/riscv/env\handlers.c:249    .text.system_default_exception_handler:0000000000000514 .L0 
C:\Users\stapi\AppData\Local\Temp\ccyJxrux.s:1917   .text.system_default_exception_handler:0000000000000518 .L0 
C:\Users\stapi\AppData\Local\Temp\ccyJxrux.s:1918   .text.system_default_exception_handler:0000000000000518 .L0 
C:\Users\stapi\AppData\Local\Temp\ccyJxrux.s:1925   .text.system_default_exception_handler:000000000000052c .L0 
C:\Users\stapi\AppData\Local\Temp\ccyJxrux.s:1926   .text.system_default_exception_handler:000000000000052c .L0 
C:\Users\stapi\AppData\Local\Temp\ccyJxrux.s:1927   .text.system_default_exception_handler:000000000000052c .L0 
C:\Users\stapi\AppData\Local\Temp\ccyJxrux.s:1933   .text.system_default_exception_handler:000000000000053e .L0 
C:\Users\stapi\AppData\Local\Temp\ccyJxrux.s:1938   .text.system_default_exception_handler:000000000000054c .L0 
C:\Users\stapi\AppData\Local\Temp\ccyJxrux.s:1939   .text.system_default_exception_handler:000000000000054c .L0 
C:\Users\stapi\AppData\Local\Temp\ccyJxrux.s:1948   .text.system_default_exception_handler:000000000000055c .L0 
C:\Users\stapi\AppData\Local\Temp\ccyJxrux.s:1949   .text.system_default_exception_handler:000000000000055c .L0 
C:\Users\stapi\AppData\Local\Temp\ccyJxrux.s:1951   .text.system_default_exception_handler:0000000000000560 .L0 
C:\Users\stapi\AppData\Local\Temp\ccyJxrux.s:1953   .text.system_default_exception_handler:0000000000000564 .L0 
C:\Users\stapi\AppData\Local\Temp\ccyJxrux.s:1956   .text.system_default_exception_handler:000000000000056a .L0 
C:\Users\stapi\AppData\Local\Temp\ccyJxrux.s:1960   .text.system_default_exception_handler:000000000000056c .L0 
C:\Users\stapi\AppData\Local\Temp\ccyJxrux.s:1961   .text.system_default_exception_handler:000000000000056c .L0 
C:\Users\stapi\AppData\Local\Temp\ccyJxrux.s:1967   .text.system_default_exception_handler:0000000000000578 .L0 
C:\Users\stapi\AppData\Local\Temp\ccyJxrux.s:1975   .text.system_default_exception_handler:0000000000000588 .L0 
C:\Users\stapi\AppData\Local\Temp\ccyJxrux.s:1976   .text.system_default_exception_handler:0000000000000588 .L0 
C:\Users\stapi\AppData\Local\Temp\ccyJxrux.s:1977   .text.system_default_exception_handler:0000000000000588 .L0 
C:\Users\stapi\AppData\Local\Temp\ccyJxrux.s:1978   .text.system_default_exception_handler:0000000000000588 .L0 
C:\Users\stapi\AppData\Local\Temp\ccyJxrux.s:1982   .text.system_default_exception_handler:000000000000058e .L0 
C:\Users\stapi\AppData\Local\Temp\ccyJxrux.s:1988   .text.system_default_exception_handler:00000000000005a2 .L0 
C:\Users\stapi\AppData\Local\Temp\ccyJxrux.s:1995   .text.system_default_exception_handler:00000000000005ae .L0 
C:\Users\stapi\AppData\Local\Temp\ccyJxrux.s:1996   .text.system_default_exception_handler:00000000000005ae .L0 
C:\Users\stapi\AppData\Local\Temp\ccyJxrux.s:2001   .text.system_default_exception_handler:00000000000005b2 .L0 
C:\Users\stapi\AppData\Local\Temp\ccyJxrux.s:2004   .text.system_default_exception_handler:00000000000005ba .L0 
C:\Users\stapi\AppData\Local\Temp\ccyJxrux.s:2005   .text.system_default_exception_handler:00000000000005ba .L0 
C:\Users\stapi\AppData\Local\Temp\ccyJxrux.s:2007   .text.system_default_exception_handler:00000000000005be .L0 
C:\Users\stapi\AppData\Local\Temp\ccyJxrux.s:2012   .text.system_default_exception_handler:00000000000005c4 .L0 
C:\Users\stapi\AppData\Local\Temp\ccyJxrux.s:2013   .text.system_default_exception_handler:00000000000005c4 .L0 
C:\Users\stapi\AppData\Local\Temp\ccyJxrux.s:2019   .text.system_default_exception_handler:00000000000005cc .L0 
C:\Users\stapi\AppData\Local\Temp\ccyJxrux.s:2022   .text.system_default_exception_handler:00000000000005d4 .L0 
C:\Users\stapi\AppData\Local\Temp\ccyJxrux.s:2025   .text.system_default_exception_handler:00000000000005dc .L0 
C:\Users\stapi\AppData\Local\Temp\ccyJxrux.s:2026   .text.system_default_exception_handler:00000000000005dc .L0 
C:\Users\stapi\AppData\Local\Temp\ccyJxrux.s:2029   .text.system_default_exception_handler:00000000000005e0 .L0 
C:\Users\stapi\AppData\Local\Temp\ccyJxrux.s:2032   .text.system_default_exception_handler:00000000000005e2 .L0 
C:\Users\stapi\AppData\Local\Temp\ccyJxrux.s:2034   .text.system_default_exception_handler:00000000000005e6 .L0 
C:\Users\stapi\AppData\Local\Temp\ccyJxrux.s:2036   .text.system_default_exception_handler:00000000000005ea .L0 
C:\Users\stapi\AppData\Local\Temp\ccyJxrux.s:2038   .text.system_default_exception_handler:00000000000005ec .L0 
C:\Users\stapi\AppData\Local\Temp\ccyJxrux.s:2041   .text.system_default_exception_handler:00000000000005f0 .L0 
C:\Users\stapi\AppData\Local\Temp\ccyJxrux.s:2042   .text.system_default_exception_handler:00000000000005f0 .L0 
C:\Users\stapi\AppData\Local\Temp\ccyJxrux.s:2045   .text.system_default_exception_handler:00000000000005f4 .L0 
C:\Users\stapi\AppData\Local\Temp\ccyJxrux.s:2046   .text.system_default_exception_handler:00000000000005f4 .L0 
C:\Users\stapi\AppData\Local\Temp\ccyJxrux.s:2047   .text.system_default_exception_handler:00000000000005f4 .L0 
C:\Users\stapi\AppData\Local\Temp\ccyJxrux.s:2049   .text.system_default_exception_handler:00000000000005f8 .L0 
C:\Users\stapi\AppData\Local\Temp\ccyJxrux.s:2053   .text.system_default_exception_handler:00000000000005fc .L0 
C:\Users\stapi\AppData\Local\Temp\ccyJxrux.s:2054   .text.system_default_exception_handler:00000000000005fc .L0 
C:\Users\stapi\AppData\Local\Temp\ccyJxrux.s:2056   .text.system_default_exception_handler:0000000000000600 .L0 
C:\Users\stapi\AppData\Local\Temp\ccyJxrux.s:2059   .text.system_default_exception_handler:0000000000000608 .L0 
C:\Users\stapi\AppData\Local\Temp\ccyJxrux.s:2060   .text.system_default_exception_handler:0000000000000608 .L0 
C:\Users\stapi\AppData\Local\Temp\ccyJxrux.s:2064   .text.system_default_exception_handler:000000000000060e .L0 
C:\Users\stapi\AppData\Local\Temp\ccyJxrux.s:2065   .text.system_default_exception_handler:000000000000060e .L0 
C:\Users\stapi\AppData\Local\Temp\ccyJxrux.s:2067   .text.system_default_exception_handler:0000000000000612 .L0 
C:\Users\stapi\AppData\Local\Temp\ccyJxrux.s:2070   .text.system_default_exception_handler:000000000000061a .L0 
C:\Users\stapi\AppData\Local\Temp\ccyJxrux.s:2071   .text.system_default_exception_handler:000000000000061a .L0 
C:\Users\stapi\AppData\Local\Temp\ccyJxrux.s:2076   .text.system_default_exception_handler:0000000000000620 .L0 
C:\Users\stapi\AppData\Local\Temp\ccyJxrux.s:2077   .text.system_default_exception_handler:0000000000000620 .L0 
C:\Users\stapi\AppData\Local\Temp\ccyJxrux.s:2078   .text.system_default_exception_handler:0000000000000620 .L0 
C:\Users\stapi\AppData\Local\Temp\ccyJxrux.s:2084   .text.system_default_exception_handler:0000000000000628 .L0 
C:\Users\stapi\AppData\Local\Temp\ccyJxrux.s:2086   .text.system_default_exception_handler:000000000000062c .L0 
C:\Users\stapi\AppData\Local\Temp\ccyJxrux.s:2087   .text.system_default_exception_handler:000000000000062c .L0 
C:\Users\stapi\AppData\Local\Temp\ccyJxrux.s:2090   .text.system_default_exception_handler:0000000000000634 .L0 
C:\Users\stapi\AppData\Local\Temp\ccyJxrux.s:2093   .text.system_default_exception_handler:000000000000063c .L0 
C:\Users\stapi\AppData\Local\Temp\ccyJxrux.s:2095   .text.system_default_exception_handler:0000000000000640 .L0 
C:\Users\stapi\AppData\Local\Temp\ccyJxrux.s:2101   .text.system_default_exception_handler:0000000000000648 .L0 
C:\Users\stapi\AppData\Local\Temp\ccyJxrux.s:2102   .text.system_default_exception_handler:0000000000000648 .L0 
C:\Users\stapi\AppData\Local\Temp\ccyJxrux.s:2111   .text.system_default_exception_handler:0000000000000650 .L0 
C:\Users\stapi\AppData\Local\Temp\ccyJxrux.s:2112   .text.system_default_exception_handler:0000000000000650 .L0 
C:\Users\stapi\AppData\Local\Temp\ccyJxrux.s:2119   .text.system_default_exception_handler:000000000000065a .L0 
C:\Users\stapi\AppData\Local\Temp\ccyJxrux.s:2120   .text.system_default_exception_handler:000000000000065a .L0 
C:\Users\stapi\AppData\Local\Temp\ccyJxrux.s:2127   .text.system_default_exception_handler:0000000000000664 .L0 
C:\Users\stapi\AppData\Local\Temp\ccyJxrux.s:2131   .text.system_default_exception_handler:0000000000000670 .L0 
C:\Users\stapi\AppData\Local\Temp\ccyJxrux.s:2141   .text.system_default_exception_handler:000000000000067e .L0 
C:\Users\stapi\AppData\Local\Temp\ccyJxrux.s:2142   .text.system_default_exception_handler:000000000000067e .L0 
C:\Users\stapi\AppData\Local\Temp\ccyJxrux.s:2145   .text.system_default_exception_handler:0000000000000684 .L0 
C:\Users\stapi\AppData\Local\Temp\ccyJxrux.s:2146   .text.system_default_exception_handler:0000000000000684 .L0 
C:\Users\stapi\AppData\Local\Temp\ccyJxrux.s:2148   .text.system_default_exception_handler:0000000000000688 .L0 
C:\Users\stapi\AppData\Local\Temp\ccyJxrux.s:2149   .text.system_default_exception_handler:0000000000000688 .L0 
C:\Users\stapi\AppData\Local\Temp\ccyJxrux.s:2161   .text.system_default_exception_handler:0000000000000698 .L0 
C:\Users\stapi\AppData\Local\Temp\ccyJxrux.s:2162   .text.system_default_exception_handler:0000000000000698 .L0 
C:\Users\stapi\AppData\Local\Temp\ccyJxrux.s:2164   .text.system_default_exception_handler:000000000000069a .L0 
C:\Users\stapi\AppData\Local\Temp\ccyJxrux.s:2166   .text.system_default_exception_handler:000000000000069e .L0 
C:\Users\stapi\AppData\Local\Temp\ccyJxrux.s:2170   .text.system_default_exception_handler:00000000000006a4 .L0 
C:\Users\stapi\AppData\Local\Temp\ccyJxrux.s:2173   .text.system_default_exception_handler:00000000000006a8 .L0 
C:\Users\stapi\AppData\Local\Temp\ccyJxrux.s:2174   .text.system_default_exception_handler:00000000000006a8 .L0 
C:\Users\stapi\AppData\Local\Temp\ccyJxrux.s:2178   .text.system_default_exception_handler:00000000000006b0 .L0 
C:\Users\stapi\AppData\Local\Temp\ccyJxrux.s:2182   .text.system_default_exception_handler:00000000000006b2 .L0 
C:\Users\stapi\AppData\Local\Temp\ccyJxrux.s:2187   .text.system_default_exception_handler:00000000000006c2 .L0 
C:\Users\stapi\AppData\Local\Temp\ccyJxrux.s:2192   .bss.SystemExceptionHandlers:0000000000000000 .LANCHOR0
C:\Users\stapi\AppData\Local\Temp\ccyJxrux.s:2195   .bss.SystemExceptionHandlers:0000000000000000 SystemExceptionHandlers
C:\Users\stapi\AppData\Local\Temp\ccyJxrux.s:94     .text.print_reg:000000000000005c .L0 
C:\Users\stapi\AppData\Local\Temp\ccyJxrux.s:243    .text.dumpStackInfo:00000000000000a6 .L0 
C:\Users\stapi\AppData\Local\Temp\ccyJxrux.s:344    .text.xCurrentTaskDumpInfo:000000000000007e .L0 
C:\Users\stapi\AppData\Local\Temp\ccyJxrux.s:379    .text.Exception_Init:000000000000001e .L0 
C:\Users\stapi\AppData\Local\Temp\ccyJxrux.s:417    .text.Exception_Register_EXC:0000000000000028 .L0 
C:\Users\stapi\AppData\Local\Temp\ccyJxrux.s:464    .text.Exception_Get_EXC:000000000000002c .L0 
C:\Users\stapi\AppData\Local\Temp\ccyJxrux.s:540    .text.core_exception_handler:000000000000004c .L0 
C:\Users\stapi\AppData\Local\Temp\ccyJxrux.s:763    .text.Exception_DumpFrame:0000000000000192 .L0 
C:\Users\stapi\AppData\Local\Temp\ccyJxrux.s:903    .text.nmi_handler:0000000000000098 .L0 
C:\Users\stapi\AppData\Local\Temp\ccyJxrux.s:2190   .text.system_default_exception_handler:00000000000006c2 .L0 
                     .debug_frame:0000000000000000 .L0 
C:\Users\stapi\AppData\Local\Temp\ccyJxrux.s:11     .rodata.print_reg.str1.4:0000000000000000 .LC0
C:\Users\stapi\AppData\Local\Temp\ccyJxrux.s:64     .text.print_reg:0000000000000030 .L3
C:\Users\stapi\AppData\Local\Temp\ccyJxrux.s:47     .text.print_reg:0000000000000018 .L4
C:\Users\stapi\AppData\Local\Temp\ccyJxrux.s:145    .text.dumpStackInfo:0000000000000024 .L15
C:\Users\stapi\AppData\Local\Temp\ccyJxrux.s:211    .text.dumpStackInfo:0000000000000078 .L9
C:\Users\stapi\AppData\Local\Temp\ccyJxrux.s:219    .text.dumpStackInfo:0000000000000082 .L11
C:\Users\stapi\AppData\Local\Temp\ccyJxrux.s:228    .text.dumpStackInfo:000000000000008c .L13
C:\Users\stapi\AppData\Local\Temp\ccyJxrux.s:128    .text.dumpStackInfo:0000000000000014 .L8
C:\Users\stapi\AppData\Local\Temp\ccyJxrux.s:169    .text.dumpStackInfo:000000000000003c .L10
C:\Users\stapi\AppData\Local\Temp\ccyJxrux.s:187    .text.dumpStackInfo:0000000000000054 .L12
C:\Users\stapi\AppData\Local\Temp\ccyJxrux.s:245    .rodata.xCurrentTaskDumpInfo.str1.4:0000000000000000 .LC1
C:\Users\stapi\AppData\Local\Temp\ccyJxrux.s:248    .rodata.xCurrentTaskDumpInfo.str1.4:000000000000003c .LC2
C:\Users\stapi\AppData\Local\Temp\ccyJxrux.s:320    .text.xCurrentTaskDumpInfo:0000000000000058 .L18
C:\Users\stapi\AppData\Local\Temp\ccyJxrux.s:301    .text.xCurrentTaskDumpInfo:000000000000003c .L19
C:\Users\stapi\AppData\Local\Temp\ccyJxrux.s:364    .text.Exception_Init:0000000000000014 .L26
C:\Users\stapi\AppData\Local\Temp\ccyJxrux.s:401    .text.Exception_Register_EXC:0000000000000016 .L29
C:\Users\stapi\AppData\Local\Temp\ccyJxrux.s:411    .text.Exception_Register_EXC:0000000000000026 .L28
C:\Users\stapi\AppData\Local\Temp\ccyJxrux.s:443    .text.Exception_Get_EXC:0000000000000018 .L32
C:\Users\stapi\AppData\Local\Temp\ccyJxrux.s:458    .text.Exception_Get_EXC:000000000000002a .L31
C:\Users\stapi\AppData\Local\Temp\ccyJxrux.s:503    .text.core_exception_handler:0000000000000022 .L36
C:\Users\stapi\AppData\Local\Temp\ccyJxrux.s:522    .text.core_exception_handler:0000000000000038 .L38
C:\Users\stapi\AppData\Local\Temp\ccyJxrux.s:516    .text.core_exception_handler:0000000000000030 .L40
C:\Users\stapi\AppData\Local\Temp\ccyJxrux.s:493    .text.core_exception_handler:000000000000001c .L37
C:\Users\stapi\AppData\Local\Temp\ccyJxrux.s:542    .rodata.Exception_DumpFrame.str1.4:0000000000000000 .LC3
C:\Users\stapi\AppData\Local\Temp\ccyJxrux.s:545    .rodata.Exception_DumpFrame.str1.4:0000000000000014 .LC4
C:\Users\stapi\AppData\Local\Temp\ccyJxrux.s:548    .rodata.Exception_DumpFrame.str1.4:0000000000000028 .LC5
C:\Users\stapi\AppData\Local\Temp\ccyJxrux.s:551    .rodata.Exception_DumpFrame.str1.4:000000000000003c .LC6
C:\Users\stapi\AppData\Local\Temp\ccyJxrux.s:554    .rodata.Exception_DumpFrame.str1.4:0000000000000050 .LC7
C:\Users\stapi\AppData\Local\Temp\ccyJxrux.s:557    .rodata.Exception_DumpFrame.str1.4:0000000000000064 .LC8
C:\Users\stapi\AppData\Local\Temp\ccyJxrux.s:560    .rodata.Exception_DumpFrame.str1.4:0000000000000078 .LC9
C:\Users\stapi\AppData\Local\Temp\ccyJxrux.s:563    .rodata.Exception_DumpFrame.str1.4:000000000000008c .LC10
C:\Users\stapi\AppData\Local\Temp\ccyJxrux.s:566    .rodata.Exception_DumpFrame.str1.4:00000000000000a0 .LC11
C:\Users\stapi\AppData\Local\Temp\ccyJxrux.s:569    .rodata.Exception_DumpFrame.str1.4:00000000000000b4 .LC12
C:\Users\stapi\AppData\Local\Temp\ccyJxrux.s:572    .rodata.Exception_DumpFrame.str1.4:00000000000000c8 .LC13
C:\Users\stapi\AppData\Local\Temp\ccyJxrux.s:575    .rodata.Exception_DumpFrame.str1.4:00000000000000dc .LC14
C:\Users\stapi\AppData\Local\Temp\ccyJxrux.s:578    .rodata.Exception_DumpFrame.str1.4:00000000000000f0 .LC15
C:\Users\stapi\AppData\Local\Temp\ccyJxrux.s:581    .rodata.Exception_DumpFrame.str1.4:0000000000000104 .LC16
C:\Users\stapi\AppData\Local\Temp\ccyJxrux.s:584    .rodata.Exception_DumpFrame.str1.4:0000000000000118 .LC17
C:\Users\stapi\AppData\Local\Temp\ccyJxrux.s:587    .rodata.Exception_DumpFrame.str1.4:000000000000012c .LC18
C:\Users\stapi\AppData\Local\Temp\ccyJxrux.s:590    .rodata.Exception_DumpFrame.str1.4:0000000000000140 .LC19
C:\Users\stapi\AppData\Local\Temp\ccyJxrux.s:593    .rodata.Exception_DumpFrame.str1.4:0000000000000154 .LC20
C:\Users\stapi\AppData\Local\Temp\ccyJxrux.s:596    .rodata.Exception_DumpFrame.str1.4:0000000000000168 .LC21
C:\Users\stapi\AppData\Local\Temp\ccyJxrux.s:765    .rodata.nmi_handler.str1.4:0000000000000000 .LC22
C:\Users\stapi\AppData\Local\Temp\ccyJxrux.s:768    .rodata.nmi_handler.str1.4:0000000000000008 .LC23
C:\Users\stapi\AppData\Local\Temp\ccyJxrux.s:771    .rodata.nmi_handler.str1.4:000000000000001c .LC24
C:\Users\stapi\AppData\Local\Temp\ccyJxrux.s:774    .rodata.nmi_handler.str1.4:0000000000000030 .LC25
C:\Users\stapi\AppData\Local\Temp\ccyJxrux.s:777    .rodata.nmi_handler.str1.4:0000000000000044 .LC26
C:\Users\stapi\AppData\Local\Temp\ccyJxrux.s:780    .rodata.nmi_handler.str1.4:0000000000000058 .LC27
C:\Users\stapi\AppData\Local\Temp\ccyJxrux.s:895    .text.nmi_handler:0000000000000096 .L50
C:\Users\stapi\AppData\Local\Temp\ccyJxrux.s:905    .rodata.system_default_exception_handler.str1.4:0000000000000000 .LC28
C:\Users\stapi\AppData\Local\Temp\ccyJxrux.s:908    .rodata.system_default_exception_handler.str1.4:000000000000001c .LC29
C:\Users\stapi\AppData\Local\Temp\ccyJxrux.s:914    .rodata.system_default_exception_handler.str1.4:0000000000000048 .LC31
C:\Users\stapi\AppData\Local\Temp\ccyJxrux.s:917    .rodata.system_default_exception_handler.str1.4:000000000000007c .LC32
C:\Users\stapi\AppData\Local\Temp\ccyJxrux.s:911    .rodata.system_default_exception_handler.str1.4:0000000000000030 .LC30
C:\Users\stapi\AppData\Local\Temp\ccyJxrux.s:920    .rodata.system_default_exception_handler.str1.4:0000000000000094 .LC33
C:\Users\stapi\AppData\Local\Temp\ccyJxrux.s:923    .rodata.system_default_exception_handler.str1.4:00000000000000c0 .LC34
C:\Users\stapi\AppData\Local\Temp\ccyJxrux.s:1624   .text.system_default_exception_handler:000000000000039a .L53
C:\Users\stapi\AppData\Local\Temp\ccyJxrux.s:1320   .text.system_default_exception_handler:00000000000001e0 .L56
C:\Users\stapi\AppData\Local\Temp\ccyJxrux.s:1689   .text.system_default_exception_handler:00000000000003f8 .L57
C:\Users\stapi\AppData\Local\Temp\ccyJxrux.s:1277   .text.system_default_exception_handler:00000000000001a2 .L58
C:\Users\stapi\AppData\Local\Temp\ccyJxrux.s:1398   .text.system_default_exception_handler:0000000000000262 .L62
C:\Users\stapi\AppData\Local\Temp\ccyJxrux.s:1380   .text.system_default_exception_handler:0000000000000244 .L63
C:\Users\stapi\AppData\Local\Temp\ccyJxrux.s:1423   .text.system_default_exception_handler:000000000000028e .L64
C:\Users\stapi\AppData\Local\Temp\ccyJxrux.s:2136   .text.system_default_exception_handler:000000000000067e .L65
C:\Users\stapi\AppData\Local\Temp\ccyJxrux.s:1866   .text.system_default_exception_handler:00000000000004e8 .L66
C:\Users\stapi\AppData\Local\Temp\ccyJxrux.s:1993   .text.system_default_exception_handler:00000000000005ae .L67
C:\Users\stapi\AppData\Local\Temp\ccyJxrux.s:2074   .text.system_default_exception_handler:0000000000000620 .L68
C:\Users\stapi\AppData\Local\Temp\ccyJxrux.s:2099   .text.system_default_exception_handler:0000000000000648 .L69
C:\Users\stapi\AppData\Local\Temp\ccyJxrux.s:1785   .text.system_default_exception_handler:0000000000000474 .L70
C:\Users\stapi\AppData\Local\Temp\ccyJxrux.s:1515   .text.system_default_exception_handler:0000000000000310 .L73
C:\Users\stapi\AppData\Local\Temp\ccyJxrux.s:1493   .text.system_default_exception_handler:00000000000002e4 .L85
C:\Users\stapi\AppData\Local\Temp\ccyJxrux.s:2108   .text.system_default_exception_handler:0000000000000650 .L87
C:\Users\stapi\AppData\Local\Temp\ccyJxrux.s:2117   .text.system_default_exception_handler:000000000000065a .L89
C:\Users\stapi\AppData\Local\Temp\ccyJxrux.s:2125   .text.system_default_exception_handler:0000000000000664 .L91
C:\Users\stapi\AppData\Local\Temp\ccyJxrux.s:1550   .text.system_default_exception_handler:0000000000000338 .L86
C:\Users\stapi\AppData\Local\Temp\ccyJxrux.s:1080   .text.system_default_exception_handler:00000000000000c0 .L54
C:\Users\stapi\AppData\Local\Temp\ccyJxrux.s:1308   .text.system_default_exception_handler:00000000000001d0 .L59
C:\Users\stapi\AppData\Local\Temp\ccyJxrux.s:1745   .text.system_default_exception_handler:0000000000000430 .L60
C:\Users\stapi\AppData\Local\Temp\ccyJxrux.s:1302   .text.system_default_exception_handler:00000000000001ce .L115
C:\Users\stapi\AppData\Local\Temp\ccyJxrux.s:1945   .text.system_default_exception_handler:000000000000055c .L75
C:\Users\stapi\AppData\Local\Temp\ccyJxrux.s:1802   .text.system_default_exception_handler:0000000000000484 .L77
C:\Users\stapi\AppData\Local\Temp\ccyJxrux.s:1882   .text.system_default_exception_handler:0000000000000504 .L78
C:\Users\stapi\AppData\Local\Temp\ccyJxrux.s:1857   .text.system_default_exception_handler:00000000000004d8 .L79
C:\Users\stapi\AppData\Local\Temp\ccyJxrux.s:1958   .text.system_default_exception_handler:000000000000056c .L80
C:\Users\stapi\AppData\Local\Temp\ccyJxrux.s:1861   .text.system_default_exception_handler:00000000000004e0 .L117
C:\Users\stapi\AppData\Local\Temp\ccyJxrux.s:2051   .text.system_default_exception_handler:00000000000005fc .L81
C:\Users\stapi\AppData\Local\Temp\ccyJxrux.s:2010   .text.system_default_exception_handler:00000000000005c4 .L84
C:\Users\stapi\AppData\Local\Temp\ccyJxrux.s:1541   .text.system_default_exception_handler:0000000000000330 .L74
C:\Users\stapi\AppData\Local\Temp\ccyJxrux.s:2062   .text.system_default_exception_handler:000000000000060e .L83
C:\Users\stapi\AppData\Local\Temp\ccyJxrux.s:2027   .text.system_default_exception_handler:00000000000005e0 .L116
C:\Users\stapi\AppData\Local\Temp\ccyJxrux.s:1575   .text.system_default_exception_handler:0000000000000350 .L88
C:\Users\stapi\AppData\Local\Temp\ccyJxrux.s:1593   .text.system_default_exception_handler:0000000000000368 .L90
C:\Users\stapi\AppData\Local\Temp\ccyJxrux.s:1616   .text.system_default_exception_handler:0000000000000390 .L92
C:\Users\stapi\AppData\Local\Temp\ccyJxrux.s:2159   .text.system_default_exception_handler:0000000000000698 .L95
C:\Users\stapi\AppData\Local\Temp\ccyJxrux.s:2180   .text.system_default_exception_handler:00000000000006b2 .L96
C:\Users\stapi\AppData\Local\Temp\ccyJxrux.s:5339   .debug_abbrev:0000000000000000 .Ldebug_abbrev0
C:\Users\stapi\AppData\Local\Temp\ccyJxrux.s:7822   .debug_str:0000000000000315 .LASF102
C:\Users\stapi\AppData\Local\Temp\ccyJxrux.s:7770   .debug_str:00000000000000eb .LASF103
C:\Users\stapi\AppData\Local\Temp\ccyJxrux.s:7772   .debug_str:000000000000016e .LASF104
C:\Users\stapi\AppData\Local\Temp\ccyJxrux.s:7670   .debug_ranges:0000000000000000 .Ldebug_ranges0
C:\Users\stapi\AppData\Local\Temp\ccyJxrux.s:7742   .debug_line:0000000000000000 .Ldebug_line0
C:\Users\stapi\AppData\Local\Temp\ccyJxrux.s:7816   .debug_str:00000000000002e7 .LASF0
C:\Users\stapi\AppData\Local\Temp\ccyJxrux.s:7766   .debug_str:00000000000000d9 .LASF2
C:\Users\stapi\AppData\Local\Temp\ccyJxrux.s:7774   .debug_str:00000000000001f7 .LASF1
C:\Users\stapi\AppData\Local\Temp\ccyJxrux.s:7754   .debug_str:0000000000000071 .LASF3
C:\Users\stapi\AppData\Local\Temp\ccyJxrux.s:7892   .debug_str:00000000000005d1 .LASF4
C:\Users\stapi\AppData\Local\Temp\ccyJxrux.s:7898   .debug_str:00000000000005f4 .LASF5
C:\Users\stapi\AppData\Local\Temp\ccyJxrux.s:7830   .debug_str:0000000000000433 .LASF6
C:\Users\stapi\AppData\Local\Temp\ccyJxrux.s:7924   .debug_str:0000000000000692 .LASF7
C:\Users\stapi\AppData\Local\Temp\ccyJxrux.s:7788   .debug_str:0000000000000246 .LASF8
C:\Users\stapi\AppData\Local\Temp\ccyJxrux.s:7926   .debug_str:000000000000069c .LASF9
C:\Users\stapi\AppData\Local\Temp\ccyJxrux.s:7824   .debug_str:000000000000040e .LASF10
C:\Users\stapi\AppData\Local\Temp\ccyJxrux.s:7794   .debug_str:0000000000000262 .LASF11
C:\Users\stapi\AppData\Local\Temp\ccyJxrux.s:7780   .debug_str:0000000000000210 .LASF12
C:\Users\stapi\AppData\Local\Temp\ccyJxrux.s:7912   .debug_str:000000000000063d .LASF13
C:\Users\stapi\AppData\Local\Temp\ccyJxrux.s:7932   .debug_str:00000000000006c0 .LASF14
C:\Users\stapi\AppData\Local\Temp\ccyJxrux.s:7942   .debug_str:00000000000006fe .LASF15
C:\Users\stapi\AppData\Local\Temp\ccyJxrux.s:7890   .debug_str:00000000000005c9 .LASF16
C:\Users\stapi\AppData\Local\Temp\ccyJxrux.s:7910   .debug_str:0000000000000634 .LASF17
C:\Users\stapi\AppData\Local\Temp\ccyJxrux.s:7960   .debug_str:000000000000077d .LASF63
C:\Users\stapi\AppData\Local\Temp\ccyJxrux.s:7952   .debug_str:000000000000073b .LASF18
C:\Users\stapi\AppData\Local\Temp\ccyJxrux.s:7922   .debug_str:0000000000000681 .LASF19
C:\Users\stapi\AppData\Local\Temp\ccyJxrux.s:7908   .debug_str:0000000000000627 .LASF20
C:\Users\stapi\AppData\Local\Temp\ccyJxrux.s:7810   .debug_str:00000000000002be .LASF21
C:\Users\stapi\AppData\Local\Temp\ccyJxrux.s:7800   .debug_str:000000000000027a .LASF22
C:\Users\stapi\AppData\Local\Temp\ccyJxrux.s:7760   .debug_str:00000000000000a4 .LASF23
C:\Users\stapi\AppData\Local\Temp\ccyJxrux.s:7806   .debug_str:0000000000000299 .LASF24
C:\Users\stapi\AppData\Local\Temp\ccyJxrux.s:7954   .debug_str:000000000000074b .LASF25
C:\Users\stapi\AppData\Local\Temp\ccyJxrux.s:7856   .debug_str:00000000000004d6 .LASF26
C:\Users\stapi\AppData\Local\Temp\ccyJxrux.s:7886   .debug_str:00000000000005b3 .LASF27
C:\Users\stapi\AppData\Local\Temp\ccyJxrux.s:7768   .debug_str:00000000000000e2 .LASF28
C:\Users\stapi\AppData\Local\Temp\ccyJxrux.s:7902   .debug_str:0000000000000608 .LASF29
C:\Users\stapi\AppData\Local\Temp\ccyJxrux.s:7882   .debug_str:000000000000059f .LASF30
C:\Users\stapi\AppData\Local\Temp\ccyJxrux.s:7782   .debug_str:0000000000000227 .LASF31
C:\Users\stapi\AppData\Local\Temp\ccyJxrux.s:7836   .debug_str:0000000000000454 .LASF32
C:\Users\stapi\AppData\Local\Temp\ccyJxrux.s:7842   .debug_str:0000000000000484 .LASF33
C:\Users\stapi\AppData\Local\Temp\ccyJxrux.s:7946   .debug_str:0000000000000715 .LASF34
C:\Users\stapi\AppData\Local\Temp\ccyJxrux.s:7884   .debug_str:00000000000005a5 .LASF35
C:\Users\stapi\AppData\Local\Temp\ccyJxrux.s:7880   .debug_str:0000000000000591 .LASF36
C:\Users\stapi\AppData\Local\Temp\ccyJxrux.s:7956   .debug_str:000000000000075e .LASF37
C:\Users\stapi\AppData\Local\Temp\ccyJxrux.s:7920   .debug_str:0000000000000673 .LASF38
C:\Users\stapi\AppData\Local\Temp\ccyJxrux.s:7858   .debug_str:00000000000004e6 .LASF39
C:\Users\stapi\AppData\Local\Temp\ccyJxrux.s:7944   .debug_str:0000000000000706 .LASF40
C:\Users\stapi\AppData\Local\Temp\ccyJxrux.s:7864   .debug_str:0000000000000504 .LASF41
C:\Users\stapi\AppData\Local\Temp\ccyJxrux.s:7938   .debug_str:00000000000006e4 .LASF42
C:\Users\stapi\AppData\Local\Temp\ccyJxrux.s:7840   .debug_str:0000000000000475 .LASF43
C:\Users\stapi\AppData\Local\Temp\ccyJxrux.s:7916   .debug_str:0000000000000655 .LASF44
C:\Users\stapi\AppData\Local\Temp\ccyJxrux.s:7918   .debug_str:0000000000000663 .LASF45
C:\Users\stapi\AppData\Local\Temp\ccyJxrux.s:7744   .debug_str:0000000000000000 .LASF46
C:\Users\stapi\AppData\Local\Temp\ccyJxrux.s:7876   .debug_str:000000000000056b .LASF47
C:\Users\stapi\AppData\Local\Temp\ccyJxrux.s:7762   .debug_str:00000000000000b1 .LASF48
C:\Users\stapi\AppData\Local\Temp\ccyJxrux.s:7958   .debug_str:000000000000076d .LASF49
C:\Users\stapi\AppData\Local\Temp\ccyJxrux.s:7936   .debug_str:00000000000006d4 .LASF50
C:\Users\stapi\AppData\Local\Temp\ccyJxrux.s:7850   .debug_str:00000000000004b6 .LASF51
C:\Users\stapi\AppData\Local\Temp\ccyJxrux.s:7750   .debug_str:0000000000000048 .LASF52
C:\Users\stapi\AppData\Local\Temp\ccyJxrux.s:7814   .debug_str:00000000000002d8 .LASF53
C:\Users\stapi\AppData\Local\Temp\ccyJxrux.s:7812   .debug_str:00000000000002c9 .LASF54
C:\Users\stapi\AppData\Local\Temp\ccyJxrux.s:7900   .debug_str:00000000000005fe .LASF105
C:\Users\stapi\AppData\Local\Temp\ccyJxrux.s:7904   .debug_str:0000000000000611 .LASF55
C:\Users\stapi\AppData\Local\Temp\ccyJxrux.s:7828   .debug_str:000000000000042c .LASF56
C:\Users\stapi\AppData\Local\Temp\ccyJxrux.s:7776   .debug_str:0000000000000203 .LASF57
C:\Users\stapi\AppData\Local\Temp\ccyJxrux.s:7802   .debug_str:000000000000028d .LASF58
C:\Users\stapi\AppData\Local\Temp\ccyJxrux.s:7866   .debug_str:0000000000000514 .LASF59
C:\Users\stapi\AppData\Local\Temp\ccyJxrux.s:7764   .debug_str:00000000000000c1 .LASF61
C:\Users\stapi\AppData\Local\Temp\ccyJxrux.s:7948   .debug_str:0000000000000724 .LASF60
C:\Users\stapi\AppData\Local\Temp\ccyJxrux.s:7872   .debug_str:0000000000000543 .LASF67
C:\Users\stapi\AppData\Local\Temp\ccyJxrux.s:603    .text.Exception_DumpFrame:0000000000000000 .LFB376
C:\Users\stapi\AppData\Local\Temp\ccyJxrux.s:761    .text.Exception_DumpFrame:0000000000000192 .LFE376
C:\Users\stapi\AppData\Local\Temp\ccyJxrux.s:6238   .debug_loc:0000000000000000 .LLST22
C:\Users\stapi\AppData\Local\Temp\ccyJxrux.s:7786   .debug_str:000000000000023c .LASF62
C:\Users\stapi\AppData\Local\Temp\ccyJxrux.s:6249   .debug_loc:000000000000001e .LLST23
C:\Users\stapi\AppData\Local\Temp\ccyJxrux.s:624    .text.Exception_DumpFrame:000000000000001e .LVL72
C:\Users\stapi\AppData\Local\Temp\ccyJxrux.s:631    .text.Exception_DumpFrame:0000000000000032 .LVL73
C:\Users\stapi\AppData\Local\Temp\ccyJxrux.s:638    .text.Exception_DumpFrame:0000000000000046 .LVL74
C:\Users\stapi\AppData\Local\Temp\ccyJxrux.s:645    .text.Exception_DumpFrame:000000000000005a .LVL75
C:\Users\stapi\AppData\Local\Temp\ccyJxrux.s:655    .text.Exception_DumpFrame:0000000000000072 .LVL76
C:\Users\stapi\AppData\Local\Temp\ccyJxrux.s:662    .text.Exception_DumpFrame:0000000000000086 .LVL77
C:\Users\stapi\AppData\Local\Temp\ccyJxrux.s:669    .text.Exception_DumpFrame:000000000000009a .LVL78
C:\Users\stapi\AppData\Local\Temp\ccyJxrux.s:676    .text.Exception_DumpFrame:00000000000000ae .LVL79
C:\Users\stapi\AppData\Local\Temp\ccyJxrux.s:683    .text.Exception_DumpFrame:00000000000000c2 .LVL80
C:\Users\stapi\AppData\Local\Temp\ccyJxrux.s:690    .text.Exception_DumpFrame:00000000000000d6 .LVL81
C:\Users\stapi\AppData\Local\Temp\ccyJxrux.s:697    .text.Exception_DumpFrame:00000000000000ea .LVL82
C:\Users\stapi\AppData\Local\Temp\ccyJxrux.s:704    .text.Exception_DumpFrame:00000000000000fe .LVL83
C:\Users\stapi\AppData\Local\Temp\ccyJxrux.s:711    .text.Exception_DumpFrame:0000000000000112 .LVL84
C:\Users\stapi\AppData\Local\Temp\ccyJxrux.s:718    .text.Exception_DumpFrame:0000000000000126 .LVL85
C:\Users\stapi\AppData\Local\Temp\ccyJxrux.s:725    .text.Exception_DumpFrame:000000000000013a .LVL86
C:\Users\stapi\AppData\Local\Temp\ccyJxrux.s:732    .text.Exception_DumpFrame:000000000000014e .LVL87
C:\Users\stapi\AppData\Local\Temp\ccyJxrux.s:739    .text.Exception_DumpFrame:0000000000000162 .LVL88
C:\Users\stapi\AppData\Local\Temp\ccyJxrux.s:746    .text.Exception_DumpFrame:0000000000000176 .LVL89
C:\Users\stapi\AppData\Local\Temp\ccyJxrux.s:753    .text.Exception_DumpFrame:000000000000018a .LVL90
C:\Users\stapi\AppData\Local\Temp\ccyJxrux.s:7746   .debug_str:0000000000000010 .LASF65
C:\Users\stapi\AppData\Local\Temp\ccyJxrux.s:469    .text.core_exception_handler:0000000000000000 .LFB375
C:\Users\stapi\AppData\Local\Temp\ccyJxrux.s:538    .text.core_exception_handler:000000000000004c .LFE375
C:\Users\stapi\AppData\Local\Temp\ccyJxrux.s:6260   .debug_loc:000000000000003c .LLST18
C:\Users\stapi\AppData\Local\Temp\ccyJxrux.s:6285   .debug_loc:0000000000000076 .LLST19
C:\Users\stapi\AppData\Local\Temp\ccyJxrux.s:6299   .debug_loc:0000000000000097 .LLST20
C:\Users\stapi\AppData\Local\Temp\ccyJxrux.s:7826   .debug_str:0000000000000420 .LASF64
C:\Users\stapi\AppData\Local\Temp\ccyJxrux.s:6370   .debug_loc:0000000000000126 .LLST21
C:\Users\stapi\AppData\Local\Temp\ccyJxrux.s:7808   .debug_str:00000000000002ac .LASF66
C:\Users\stapi\AppData\Local\Temp\ccyJxrux.s:422    .text.Exception_Get_EXC:0000000000000000 .LFB374
C:\Users\stapi\AppData\Local\Temp\ccyJxrux.s:462    .text.Exception_Get_EXC:000000000000002c .LFE374
C:\Users\stapi\AppData\Local\Temp\ccyJxrux.s:6385   .debug_loc:000000000000014f .LLST17
C:\Users\stapi\AppData\Local\Temp\ccyJxrux.s:7752   .debug_str:000000000000005a .LASF68
C:\Users\stapi\AppData\Local\Temp\ccyJxrux.s:384    .text.Exception_Register_EXC:0000000000000000 .LFB373
C:\Users\stapi\AppData\Local\Temp\ccyJxrux.s:415    .text.Exception_Register_EXC:0000000000000028 .LFE373
C:\Users\stapi\AppData\Local\Temp\ccyJxrux.s:6418   .debug_loc:000000000000019f .LLST16
C:\Users\stapi\AppData\Local\Temp\ccyJxrux.s:7844   .debug_str:0000000000000492 .LASF69
C:\Users\stapi\AppData\Local\Temp\ccyJxrux.s:349    .text.Exception_Init:0000000000000000 .LFB372
C:\Users\stapi\AppData\Local\Temp\ccyJxrux.s:377    .text.Exception_Init:000000000000001e .LFE372
C:\Users\stapi\AppData\Local\Temp\ccyJxrux.s:353    .text.Exception_Init:0000000000000000 .LBB9
C:\Users\stapi\AppData\Local\Temp\ccyJxrux.s:373    .text.Exception_Init:000000000000001c .LBE9
C:\Users\stapi\AppData\Local\Temp\ccyJxrux.s:6436   .debug_loc:00000000000001cb .LLST15
C:\Users\stapi\AppData\Local\Temp\ccyJxrux.s:7848   .debug_str:00000000000004aa .LASF70
C:\Users\stapi\AppData\Local\Temp\ccyJxrux.s:787    .text.nmi_handler:0000000000000000 .LFB371
C:\Users\stapi\AppData\Local\Temp\ccyJxrux.s:901    .text.nmi_handler:0000000000000098 .LFE371
C:\Users\stapi\AppData\Local\Temp\ccyJxrux.s:6444   .debug_loc:00000000000001df .LLST24
C:\Users\stapi\AppData\Local\Temp\ccyJxrux.s:6456   .debug_loc:00000000000001fe .LLST25
C:\Users\stapi\AppData\Local\Temp\ccyJxrux.s:820    .text.nmi_handler:0000000000000034 .LBB10
C:\Users\stapi\AppData\Local\Temp\ccyJxrux.s:830    .text.nmi_handler:0000000000000038 .LBE10
C:\Users\stapi\AppData\Local\Temp\ccyJxrux.s:6467   .debug_loc:000000000000021c .LLST26
C:\Users\stapi\AppData\Local\Temp\ccyJxrux.s:838    .text.nmi_handler:000000000000004a .LBB11
C:\Users\stapi\AppData\Local\Temp\ccyJxrux.s:848    .text.nmi_handler:000000000000004e .LBE11
C:\Users\stapi\AppData\Local\Temp\ccyJxrux.s:6474   .debug_loc:000000000000022f .LLST27
C:\Users\stapi\AppData\Local\Temp\ccyJxrux.s:856    .text.nmi_handler:0000000000000060 .LBB12
C:\Users\stapi\AppData\Local\Temp\ccyJxrux.s:866    .text.nmi_handler:0000000000000064 .LBE12
C:\Users\stapi\AppData\Local\Temp\ccyJxrux.s:6481   .debug_loc:0000000000000242 .LLST28
C:\Users\stapi\AppData\Local\Temp\ccyJxrux.s:874    .text.nmi_handler:0000000000000076 .LBB13
C:\Users\stapi\AppData\Local\Temp\ccyJxrux.s:884    .text.nmi_handler:000000000000007a .LBE13
C:\Users\stapi\AppData\Local\Temp\ccyJxrux.s:6488   .debug_loc:0000000000000255 .LLST29
C:\Users\stapi\AppData\Local\Temp\ccyJxrux.s:811    .text.nmi_handler:0000000000000020 .LVL94
C:\Users\stapi\AppData\Local\Temp\ccyJxrux.s:818    .text.nmi_handler:0000000000000034 .LVL95
C:\Users\stapi\AppData\Local\Temp\ccyJxrux.s:836    .text.nmi_handler:000000000000004a .LVL97
C:\Users\stapi\AppData\Local\Temp\ccyJxrux.s:854    .text.nmi_handler:0000000000000060 .LVL99
C:\Users\stapi\AppData\Local\Temp\ccyJxrux.s:872    .text.nmi_handler:0000000000000076 .LVL101
C:\Users\stapi\AppData\Local\Temp\ccyJxrux.s:890    .text.nmi_handler:000000000000008c .LVL103
C:\Users\stapi\AppData\Local\Temp\ccyJxrux.s:894    .text.nmi_handler:0000000000000096 .LVL104
C:\Users\stapi\AppData\Local\Temp\ccyJxrux.s:7748   .debug_str:0000000000000027 .LASF106
C:\Users\stapi\AppData\Local\Temp\ccyJxrux.s:929    .text.system_default_exception_handler:0000000000000000 .LFB370
C:\Users\stapi\AppData\Local\Temp\ccyJxrux.s:2188   .text.system_default_exception_handler:00000000000006c2 .LFE370
C:\Users\stapi\AppData\Local\Temp\ccyJxrux.s:6495   .debug_loc:0000000000000268 .LLST30
C:\Users\stapi\AppData\Local\Temp\ccyJxrux.s:6526   .debug_loc:00000000000002b1 .LLST31
C:\Users\stapi\AppData\Local\Temp\ccyJxrux.s:6537   .debug_loc:00000000000002cf .LLST32
C:\Users\stapi\AppData\Local\Temp\ccyJxrux.s:7846   .debug_str:00000000000004a1 .LASF71
C:\Users\stapi\AppData\Local\Temp\ccyJxrux.s:7950   .debug_str:0000000000000730 .LASF72
C:\Users\stapi\AppData\Local\Temp\ccyJxrux.s:6561   .debug_loc:000000000000030f .LLST33
C:\Users\stapi\AppData\Local\Temp\ccyJxrux.s:977    .text.system_default_exception_handler:0000000000000034 .LBB41
C:\Users\stapi\AppData\Local\Temp\ccyJxrux.s:987    .text.system_default_exception_handler:0000000000000038 .LBE41
C:\Users\stapi\AppData\Local\Temp\ccyJxrux.s:6607   .debug_loc:0000000000000388 .LLST34
C:\Users\stapi\AppData\Local\Temp\ccyJxrux.s:995    .text.system_default_exception_handler:000000000000004a .LBB42
C:\Users\stapi\AppData\Local\Temp\ccyJxrux.s:1005   .text.system_default_exception_handler:000000000000004e .LBE42
C:\Users\stapi\AppData\Local\Temp\ccyJxrux.s:6614   .debug_loc:000000000000039b .LLST35
C:\Users\stapi\AppData\Local\Temp\ccyJxrux.s:1013   .text.system_default_exception_handler:0000000000000060 .LBB43
C:\Users\stapi\AppData\Local\Temp\ccyJxrux.s:1023   .text.system_default_exception_handler:0000000000000064 .LBE43
C:\Users\stapi\AppData\Local\Temp\ccyJxrux.s:6621   .debug_loc:00000000000003ae .LLST36
C:\Users\stapi\AppData\Local\Temp\ccyJxrux.s:1031   .text.system_default_exception_handler:0000000000000076 .LBB44
C:\Users\stapi\AppData\Local\Temp\ccyJxrux.s:1041   .text.system_default_exception_handler:000000000000007a .LBE44
C:\Users\stapi\AppData\Local\Temp\ccyJxrux.s:6628   .debug_loc:00000000000003c1 .LLST37
C:\Users\stapi\AppData\Local\Temp\ccyJxrux.s:1053   .text.system_default_exception_handler:0000000000000096 .LBB45
C:\Users\stapi\AppData\Local\Temp\ccyJxrux.s:1063   .text.system_default_exception_handler:000000000000009a .LBE45
C:\Users\stapi\AppData\Local\Temp\ccyJxrux.s:6635   .debug_loc:00000000000003d4 .LLST38
C:\Users\stapi\AppData\Local\Temp\ccyJxrux.s:1628   .text.system_default_exception_handler:000000000000039a .LBB79
C:\Users\stapi\AppData\Local\Temp\ccyJxrux.s:1638   .text.system_default_exception_handler:000000000000039e .LBE79
C:\Users\stapi\AppData\Local\Temp\ccyJxrux.s:6642   .debug_loc:00000000000003e7 .LLST69
C:\Users\stapi\AppData\Local\Temp\ccyJxrux.s:1646   .text.system_default_exception_handler:00000000000003aa .LBB80
C:\Users\stapi\AppData\Local\Temp\ccyJxrux.s:1690   .text.system_default_exception_handler:00000000000003f8 .LBE80
C:\Users\stapi\AppData\Local\Temp\ccyJxrux.s:7832   .debug_str:0000000000000446 .LASF73
C:\Users\stapi\AppData\Local\Temp\ccyJxrux.s:6649   .debug_loc:00000000000003fa .LLST70
C:\Users\stapi\AppData\Local\Temp\ccyJxrux.s:6656   .debug_loc:000000000000040d .LLST71
C:\Users\stapi\AppData\Local\Temp\ccyJxrux.s:1648   .text.system_default_exception_handler:00000000000003aa .LBB81
C:\Users\stapi\AppData\Local\Temp\ccyJxrux.s:1658   .text.system_default_exception_handler:00000000000003ae .LBE81
C:\Users\stapi\AppData\Local\Temp\ccyJxrux.s:1665   .text.system_default_exception_handler:00000000000003c2 .LVL188
C:\Users\stapi\AppData\Local\Temp\ccyJxrux.s:1673   .text.system_default_exception_handler:00000000000003d4 .LVL189
C:\Users\stapi\AppData\Local\Temp\ccyJxrux.s:1678   .text.system_default_exception_handler:00000000000003e2 .LVL190
C:\Users\stapi\AppData\Local\Temp\ccyJxrux.s:1686   .text.system_default_exception_handler:00000000000003f6 .LVL191
C:\Users\stapi\AppData\Local\Temp\ccyJxrux.s:1088   .text.system_default_exception_handler:00000000000000d4 .LBB46
C:\Users\stapi\AppData\Local\Temp\ccyJxrux.s:6665   .debug_loc:0000000000000422 .LLST39
C:\Users\stapi\AppData\Local\Temp\ccyJxrux.s:6676   .debug_loc:0000000000000440 .LLST40
C:\Users\stapi\AppData\Local\Temp\ccyJxrux.s:1125   .text.system_default_exception_handler:0000000000000102 .LBB48
C:\Users\stapi\AppData\Local\Temp\ccyJxrux.s:1135   .text.system_default_exception_handler:0000000000000106 .LBE48
C:\Users\stapi\AppData\Local\Temp\ccyJxrux.s:6749   .debug_loc:0000000000000503 .LLST41
C:\Users\stapi\AppData\Local\Temp\ccyJxrux.s:1148   .text.system_default_exception_handler:000000000000011c .LBB49
C:\Users\stapi\AppData\Local\Temp\ccyJxrux.s:1158   .text.system_default_exception_handler:0000000000000120 .LBE49
C:\Users\stapi\AppData\Local\Temp\ccyJxrux.s:6756   .debug_loc:0000000000000516 .LLST42
C:\Users\stapi\AppData\Local\Temp\ccyJxrux.s:1170   .text.system_default_exception_handler:0000000000000132 .LBB50
C:\Users\stapi\AppData\Local\Temp\ccyJxrux.s:1180   .text.system_default_exception_handler:0000000000000136 .LBE50
C:\Users\stapi\AppData\Local\Temp\ccyJxrux.s:6763   .debug_loc:0000000000000529 .LLST43
C:\Users\stapi\AppData\Local\Temp\ccyJxrux.s:1192   .text.system_default_exception_handler:0000000000000148 .LBB51
C:\Users\stapi\AppData\Local\Temp\ccyJxrux.s:1202   .text.system_default_exception_handler:000000000000014c .LBE51
C:\Users\stapi\AppData\Local\Temp\ccyJxrux.s:6770   .debug_loc:000000000000053c .LLST44
C:\Users\stapi\AppData\Local\Temp\ccyJxrux.s:1214   .text.system_default_exception_handler:000000000000015e .LBB52
C:\Users\stapi\AppData\Local\Temp\ccyJxrux.s:1224   .text.system_default_exception_handler:0000000000000162 .LBE52
C:\Users\stapi\AppData\Local\Temp\ccyJxrux.s:6777   .debug_loc:000000000000054f .LLST45
C:\Users\stapi\AppData\Local\Temp\ccyJxrux.s:1240   .text.system_default_exception_handler:000000000000017a .LBB53
C:\Users\stapi\AppData\Local\Temp\ccyJxrux.s:1250   .text.system_default_exception_handler:000000000000017e .LBE53
C:\Users\stapi\AppData\Local\Temp\ccyJxrux.s:6784   .debug_loc:0000000000000562 .LLST46
C:\Users\stapi\AppData\Local\Temp\ccyJxrux.s:1256   .text.system_default_exception_handler:0000000000000186 .LBB54
C:\Users\stapi\AppData\Local\Temp\ccyJxrux.s:1303   .text.system_default_exception_handler:00000000000001ce .LBE54
C:\Users\stapi\AppData\Local\Temp\ccyJxrux.s:6791   .debug_loc:0000000000000575 .LLST47
C:\Users\stapi\AppData\Local\Temp\ccyJxrux.s:1261   .text.system_default_exception_handler:0000000000000190 .LVL140
C:\Users\stapi\AppData\Local\Temp\ccyJxrux.s:1290   .text.system_default_exception_handler:00000000000001ba .LVL144
C:\Users\stapi\AppData\Local\Temp\ccyJxrux.s:1297   .text.system_default_exception_handler:00000000000001ca .LVL145
C:\Users\stapi\AppData\Local\Temp\ccyJxrux.s:6806   .debug_loc:000000000000059e .LLST48
C:\Users\stapi\AppData\Local\Temp\ccyJxrux.s:6813   .debug_loc:00000000000005b1 .LLST49
C:\Users\stapi\AppData\Local\Temp\ccyJxrux.s:6824   .debug_loc:00000000000005cf .LLST50
C:\Users\stapi\AppData\Local\Temp\ccyJxrux.s:1716   .text.system_default_exception_handler:000000000000040c .LBB56
C:\Users\stapi\AppData\Local\Temp\ccyJxrux.s:1726   .text.system_default_exception_handler:0000000000000410 .LBE56
C:\Users\stapi\AppData\Local\Temp\ccyJxrux.s:1763   .text.system_default_exception_handler:000000000000044c .LVL200
C:\Users\stapi\AppData\Local\Temp\ccyJxrux.s:1771   .text.system_default_exception_handler:000000000000045e .LVL201
C:\Users\stapi\AppData\Local\Temp\ccyJxrux.s:1779   .text.system_default_exception_handler:000000000000046e .LVL202
C:\Users\stapi\AppData\Local\Temp\ccyJxrux.s:1694   .text.system_default_exception_handler:00000000000003f8 .LBB57
C:\Users\stapi\AppData\Local\Temp\ccyJxrux.s:1704   .text.system_default_exception_handler:00000000000003fc .LBE57
C:\Users\stapi\AppData\Local\Temp\ccyJxrux.s:6859   .debug_loc:0000000000000623 .LLST52
C:\Users\stapi\AppData\Local\Temp\ccyJxrux.s:1102   .text.system_default_exception_handler:00000000000000e4 .LVL126
C:\Users\stapi\AppData\Local\Temp\ccyJxrux.s:1122   .text.system_default_exception_handler:0000000000000102 .LVL127
C:\Users\stapi\AppData\Local\Temp\ccyJxrux.s:1145   .text.system_default_exception_handler:000000000000011c .LVL129
C:\Users\stapi\AppData\Local\Temp\ccyJxrux.s:1167   .text.system_default_exception_handler:0000000000000132 .LVL131
C:\Users\stapi\AppData\Local\Temp\ccyJxrux.s:1189   .text.system_default_exception_handler:0000000000000148 .LVL133
C:\Users\stapi\AppData\Local\Temp\ccyJxrux.s:1211   .text.system_default_exception_handler:000000000000015e .LVL135
C:\Users\stapi\AppData\Local\Temp\ccyJxrux.s:1233   .text.system_default_exception_handler:0000000000000174 .LVL137
C:\Users\stapi\AppData\Local\Temp\ccyJxrux.s:1319   .text.system_default_exception_handler:00000000000001e0 .LVL148
C:\Users\stapi\AppData\Local\Temp\ccyJxrux.s:1345   .text.system_default_exception_handler:0000000000000220 .LBB60
C:\Users\stapi\AppData\Local\Temp\ccyJxrux.s:6866   .debug_loc:0000000000000636 .LLST53
C:\Users\stapi\AppData\Local\Temp\ccyJxrux.s:6881   .debug_loc:000000000000065f .LLST54
C:\Users\stapi\AppData\Local\Temp\ccyJxrux.s:6900   .debug_loc:0000000000000693 .LLST55
C:\Users\stapi\AppData\Local\Temp\ccyJxrux.s:7005   .debug_loc:0000000000000778 .LLST56
C:\Users\stapi\AppData\Local\Temp\ccyJxrux.s:7081   .debug_loc:000000000000081d .LLST57
C:\Users\stapi\AppData\Local\Temp\ccyJxrux.s:7120   .debug_loc:0000000000000881 .LLST58
C:\Users\stapi\AppData\Local\Temp\ccyJxrux.s:7140   .debug_loc:00000000000008b6 .LLST59
C:\Users\stapi\AppData\Local\Temp\ccyJxrux.s:7164   .debug_loc:00000000000008f6 .LLST60
C:\Users\stapi\AppData\Local\Temp\ccyJxrux.s:7205   .debug_loc:000000000000095c .LLST61
C:\Users\stapi\AppData\Local\Temp\ccyJxrux.s:7240   .debug_loc:00000000000009ae .LLST62
C:\Users\stapi\AppData\Local\Temp\ccyJxrux.s:7275   .debug_loc:0000000000000a0e .LLST63
C:\Users\stapi\AppData\Local\Temp\ccyJxrux.s:7282   .debug_loc:0000000000000a21 .LLST64
C:\Users\stapi\AppData\Local\Temp\ccyJxrux.s:1906   .text.system_default_exception_handler:0000000000000514 .LBB63
C:\Users\stapi\AppData\Local\Temp\ccyJxrux.s:1916   .text.system_default_exception_handler:0000000000000518 .LBE63
C:\Users\stapi\AppData\Local\Temp\ccyJxrux.s:1923   .text.system_default_exception_handler:000000000000052c .LVL221
C:\Users\stapi\AppData\Local\Temp\ccyJxrux.s:1931   .text.system_default_exception_handler:000000000000053e .LVL222
C:\Users\stapi\AppData\Local\Temp\ccyJxrux.s:1936   .text.system_default_exception_handler:000000000000054c .LVL223
C:\Users\stapi\AppData\Local\Temp\ccyJxrux.s:1942   .text.system_default_exception_handler:000000000000055a .LVL224
C:\Users\stapi\AppData\Local\Temp\ccyJxrux.s:7291   .debug_loc:0000000000000a36 .LLST66
C:\Users\stapi\AppData\Local\Temp\ccyJxrux.s:1579   .text.system_default_exception_handler:000000000000035c .LVL176
C:\Users\stapi\AppData\Local\Temp\ccyJxrux.s:1597   .text.system_default_exception_handler:0000000000000374 .LVL179
C:\Users\stapi\AppData\Local\Temp\ccyJxrux.s:1615   .text.system_default_exception_handler:0000000000000390 .LVL182
C:\Users\stapi\AppData\Local\Temp\ccyJxrux.s:2129   .text.system_default_exception_handler:0000000000000670 .LVL253
C:\Users\stapi\AppData\Local\Temp\ccyJxrux.s:2133   .text.system_default_exception_handler:000000000000067c .LVL254
C:\Users\stapi\AppData\Local\Temp\ccyJxrux.s:1830   .text.system_default_exception_handler:00000000000004b0 .LBB67
C:\Users\stapi\AppData\Local\Temp\ccyJxrux.s:1840   .text.system_default_exception_handler:00000000000004b4 .LBE67
C:\Users\stapi\AppData\Local\Temp\ccyJxrux.s:7302   .debug_loc:0000000000000a54 .LLST67
C:\Users\stapi\AppData\Local\Temp\ccyJxrux.s:1886   .text.system_default_exception_handler:0000000000000504 .LBB68
C:\Users\stapi\AppData\Local\Temp\ccyJxrux.s:1896   .text.system_default_exception_handler:0000000000000508 .LBE68
C:\Users\stapi\AppData\Local\Temp\ccyJxrux.s:7309   .debug_loc:0000000000000a67 .LLST68
C:\Users\stapi\AppData\Local\Temp\ccyJxrux.s:1828   .text.system_default_exception_handler:00000000000004b0 .LVL209
C:\Users\stapi\AppData\Local\Temp\ccyJxrux.s:1852   .text.system_default_exception_handler:00000000000004ce .LVL212
C:\Users\stapi\AppData\Local\Temp\ccyJxrux.s:1856   .text.system_default_exception_handler:00000000000004d8 .LVL213
C:\Users\stapi\AppData\Local\Temp\ccyJxrux.s:1864   .text.system_default_exception_handler:00000000000004e8 .LVL214
C:\Users\stapi\AppData\Local\Temp\ccyJxrux.s:1986   .text.system_default_exception_handler:00000000000005a2 .LVL231
C:\Users\stapi\AppData\Local\Temp\ccyJxrux.s:968    .text.system_default_exception_handler:0000000000000020 .LVL109
C:\Users\stapi\AppData\Local\Temp\ccyJxrux.s:975    .text.system_default_exception_handler:0000000000000034 .LVL110
C:\Users\stapi\AppData\Local\Temp\ccyJxrux.s:993    .text.system_default_exception_handler:000000000000004a .LVL112
C:\Users\stapi\AppData\Local\Temp\ccyJxrux.s:1011   .text.system_default_exception_handler:0000000000000060 .LVL114
C:\Users\stapi\AppData\Local\Temp\ccyJxrux.s:1029   .text.system_default_exception_handler:0000000000000076 .LVL116
C:\Users\stapi\AppData\Local\Temp\ccyJxrux.s:1047   .text.system_default_exception_handler:000000000000008c .LVL118
C:\Users\stapi\AppData\Local\Temp\ccyJxrux.s:1051   .text.system_default_exception_handler:0000000000000096 .LVL119
C:\Users\stapi\AppData\Local\Temp\ccyJxrux.s:1075   .text.system_default_exception_handler:00000000000000b6 .LVL122
C:\Users\stapi\AppData\Local\Temp\ccyJxrux.s:1079   .text.system_default_exception_handler:00000000000000c0 .LVL123
C:\Users\stapi\AppData\Local\Temp\ccyJxrux.s:1086   .text.system_default_exception_handler:00000000000000d4 .LVL124
C:\Users\stapi\AppData\Local\Temp\ccyJxrux.s:1332   .text.system_default_exception_handler:00000000000001fc .LVL149
C:\Users\stapi\AppData\Local\Temp\ccyJxrux.s:1338   .text.system_default_exception_handler:000000000000020e .LVL150
C:\Users\stapi\AppData\Local\Temp\ccyJxrux.s:1344   .text.system_default_exception_handler:0000000000000220 .LVL151
C:\Users\stapi\AppData\Local\Temp\ccyJxrux.s:1390   .text.system_default_exception_handler:0000000000000252 .LVL154
C:\Users\stapi\AppData\Local\Temp\ccyJxrux.s:1397   .text.system_default_exception_handler:0000000000000262 .LVL155
C:\Users\stapi\AppData\Local\Temp\ccyJxrux.s:1404   .text.system_default_exception_handler:0000000000000270 .LVL156
C:\Users\stapi\AppData\Local\Temp\ccyJxrux.s:1411   .text.system_default_exception_handler:000000000000027e .LVL157
C:\Users\stapi\AppData\Local\Temp\ccyJxrux.s:1427   .text.system_default_exception_handler:0000000000000298 .LVL159
C:\Users\stapi\AppData\Local\Temp\ccyJxrux.s:1431   .text.system_default_exception_handler:00000000000002a2 .LVL160
C:\Users\stapi\AppData\Local\Temp\ccyJxrux.s:1872   .text.system_default_exception_handler:00000000000004f4 .LVL215
C:\Users\stapi\AppData\Local\Temp\ccyJxrux.s:1876   .text.system_default_exception_handler:0000000000000500 .LVL216
C:\Users\stapi\AppData\Local\Temp\ccyJxrux.s:2184   .text.system_default_exception_handler:00000000000006be .LVL264
C:\Users\stapi\AppData\Local\Temp\ccyJxrux.s:7820   .debug_str:0000000000000303 .LASF107
C:\Users\stapi\AppData\Local\Temp\ccyJxrux.s:7834   .debug_str:000000000000044d .LASF74
C:\Users\stapi\AppData\Local\Temp\ccyJxrux.s:7854   .debug_str:00000000000004ce .LASF75
C:\Users\stapi\AppData\Local\Temp\ccyJxrux.s:7928   .debug_str:00000000000006a7 .LASF76
C:\Users\stapi\AppData\Local\Temp\ccyJxrux.s:7852   .debug_str:00000000000004c7 .LASF77
C:\Users\stapi\AppData\Local\Temp\ccyJxrux.s:7934   .debug_str:00000000000006c7 .LASF108
C:\Users\stapi\AppData\Local\Temp\ccyJxrux.s:7804   .debug_str:0000000000000293 .LASF78
C:\Users\stapi\AppData\Local\Temp\ccyJxrux.s:7778   .debug_str:0000000000000208 .LASF79
C:\Users\stapi\AppData\Local\Temp\ccyJxrux.s:7784   .debug_str:0000000000000236 .LASF80
C:\Users\stapi\AppData\Local\Temp\ccyJxrux.s:7896   .debug_str:00000000000005e9 .LASF81
C:\Users\stapi\AppData\Local\Temp\ccyJxrux.s:7798   .debug_str:0000000000000275 .LASF82
C:\Users\stapi\AppData\Local\Temp\ccyJxrux.s:7792   .debug_str:000000000000025d .LASF83
C:\Users\stapi\AppData\Local\Temp\ccyJxrux.s:7796   .debug_str:0000000000000270 .LASF84
C:\Users\stapi\AppData\Local\Temp\ccyJxrux.s:7888   .debug_str:00000000000005c3 .LASF85
C:\Users\stapi\AppData\Local\Temp\ccyJxrux.s:7878   .debug_str:000000000000057c .LASF86
C:\Users\stapi\AppData\Local\Temp\ccyJxrux.s:255    .text.xCurrentTaskDumpInfo:0000000000000000 .LFB367
C:\Users\stapi\AppData\Local\Temp\ccyJxrux.s:342    .text.xCurrentTaskDumpInfo:000000000000007e .LFE367
C:\Users\stapi\AppData\Local\Temp\ccyJxrux.s:7316   .debug_loc:0000000000000a7a .LLST11
C:\Users\stapi\AppData\Local\Temp\ccyJxrux.s:7327   .debug_loc:0000000000000a98 .LLST12
C:\Users\stapi\AppData\Local\Temp\ccyJxrux.s:7940   .debug_str:00000000000006f3 .LASF87
C:\Users\stapi\AppData\Local\Temp\ccyJxrux.s:7339   .debug_loc:0000000000000ab7 .LLST13
C:\Users\stapi\AppData\Local\Temp\ccyJxrux.s:7350   .debug_loc:0000000000000ad5 .LLST14
C:\Users\stapi\AppData\Local\Temp\ccyJxrux.s:276    .text.xCurrentTaskDumpInfo:0000000000000014 .LVL33
C:\Users\stapi\AppData\Local\Temp\ccyJxrux.s:284    .text.xCurrentTaskDumpInfo:0000000000000020 .LVL36
C:\Users\stapi\AppData\Local\Temp\ccyJxrux.s:293    .text.xCurrentTaskDumpInfo:0000000000000036 .LVL39
C:\Users\stapi\AppData\Local\Temp\ccyJxrux.s:315    .text.xCurrentTaskDumpInfo:0000000000000054 .LVL42
C:\Users\stapi\AppData\Local\Temp\ccyJxrux.s:326    .text.xCurrentTaskDumpInfo:000000000000006a .LVL43
C:\Users\stapi\AppData\Local\Temp\ccyJxrux.s:331    .text.xCurrentTaskDumpInfo:0000000000000076 .LVL44
C:\Users\stapi\AppData\Local\Temp\ccyJxrux.s:7790   .debug_str:000000000000024f .LASF88
C:\Users\stapi\AppData\Local\Temp\ccyJxrux.s:99     .text.dumpStackInfo:0000000000000000 .LFB366
C:\Users\stapi\AppData\Local\Temp\ccyJxrux.s:241    .text.dumpStackInfo:00000000000000a6 .LFE366
C:\Users\stapi\AppData\Local\Temp\ccyJxrux.s:7361   .debug_loc:0000000000000af3 .LLST5
C:\Users\stapi\AppData\Local\Temp\ccyJxrux.s:7404   .debug_loc:0000000000000b46 .LLST6
C:\Users\stapi\AppData\Local\Temp\ccyJxrux.s:7473   .debug_loc:0000000000000bc8 .LLST7
C:\Users\stapi\AppData\Local\Temp\ccyJxrux.s:7485   .debug_loc:0000000000000be7 .LLST8
C:\Users\stapi\AppData\Local\Temp\ccyJxrux.s:7525   .debug_loc:0000000000000c45 .LLST9
C:\Users\stapi\AppData\Local\Temp\ccyJxrux.s:7556   .debug_loc:0000000000000c9a .LLST10
C:\Users\stapi\AppData\Local\Temp\ccyJxrux.s:173    .text.dumpStackInfo:0000000000000048 .LVL16
C:\Users\stapi\AppData\Local\Temp\ccyJxrux.s:191    .text.dumpStackInfo:0000000000000060 .LVL19
C:\Users\stapi\AppData\Local\Temp\ccyJxrux.s:208    .text.dumpStackInfo:0000000000000076 .LVL21
C:\Users\stapi\AppData\Local\Temp\ccyJxrux.s:232    .text.dumpStackInfo:0000000000000098 .LVL28
C:\Users\stapi\AppData\Local\Temp\ccyJxrux.s:236    .text.dumpStackInfo:00000000000000a4 .LVL29
C:\Users\stapi\AppData\Local\Temp\ccyJxrux.s:7862   .debug_str:00000000000004fa .LASF89
C:\Users\stapi\AppData\Local\Temp\ccyJxrux.s:18     .text.print_reg:0000000000000000 .LFB365
C:\Users\stapi\AppData\Local\Temp\ccyJxrux.s:92     .text.print_reg:000000000000005c .LFE365
C:\Users\stapi\AppData\Local\Temp\ccyJxrux.s:7860   .debug_str:00000000000004f4 .LASF90
C:\Users\stapi\AppData\Local\Temp\ccyJxrux.s:7567   .debug_loc:0000000000000cb8 .LLST0
C:\Users\stapi\AppData\Local\Temp\ccyJxrux.s:7894   .debug_str:00000000000005df .LASF91
C:\Users\stapi\AppData\Local\Temp\ccyJxrux.s:7581   .debug_loc:0000000000000cd9 .LLST1
C:\Users\stapi\AppData\Local\Temp\ccyJxrux.s:7595   .debug_loc:0000000000000cfa .LLST2
C:\Users\stapi\AppData\Local\Temp\ccyJxrux.s:7606   .debug_loc:0000000000000d18 .LLST3
C:\Users\stapi\AppData\Local\Temp\ccyJxrux.s:7628   .debug_loc:0000000000000d4f .LLST4
C:\Users\stapi\AppData\Local\Temp\ccyJxrux.s:39     .text.print_reg:0000000000000014 .LVL1
C:\Users\stapi\AppData\Local\Temp\ccyJxrux.s:72     .text.print_reg:000000000000003e .LVL6
C:\Users\stapi\AppData\Local\Temp\ccyJxrux.s:82     .text.print_reg:0000000000000054 .LVL7
C:\Users\stapi\AppData\Local\Temp\ccyJxrux.s:7930   .debug_str:00000000000006ae .LASF92
C:\Users\stapi\AppData\Local\Temp\ccyJxrux.s:7756   .debug_str:000000000000007b .LASF93
C:\Users\stapi\AppData\Local\Temp\ccyJxrux.s:7870   .debug_str:0000000000000533 .LASF94
C:\Users\stapi\AppData\Local\Temp\ccyJxrux.s:7868   .debug_str:0000000000000523 .LASF95
C:\Users\stapi\AppData\Local\Temp\ccyJxrux.s:7874   .debug_str:0000000000000557 .LASF96
C:\Users\stapi\AppData\Local\Temp\ccyJxrux.s:7758   .debug_str:0000000000000098 .LASF97
C:\Users\stapi\AppData\Local\Temp\ccyJxrux.s:7818   .debug_str:00000000000002f4 .LASF98
C:\Users\stapi\AppData\Local\Temp\ccyJxrux.s:7906   .debug_str:0000000000000616 .LASF99
C:\Users\stapi\AppData\Local\Temp\ccyJxrux.s:7914   .debug_str:0000000000000642 .LASF100
C:\Users\stapi\AppData\Local\Temp\ccyJxrux.s:7838   .debug_str:0000000000000463 .LASF101
C:\Users\stapi\AppData\Local\Temp\ccyJxrux.s:606    .text.Exception_DumpFrame:0000000000000000 .LVL69
C:\Users\stapi\AppData\Local\Temp\ccyJxrux.s:620    .text.Exception_DumpFrame:0000000000000010 .LVL71
C:\Users\stapi\AppData\Local\Temp\ccyJxrux.s:613    .text.Exception_DumpFrame:0000000000000008 .LVL70
C:\Users\stapi\AppData\Local\Temp\ccyJxrux.s:472    .text.core_exception_handler:0000000000000000 .LVL56
C:\Users\stapi\AppData\Local\Temp\ccyJxrux.s:500    .text.core_exception_handler:0000000000000020 .LVL60
C:\Users\stapi\AppData\Local\Temp\ccyJxrux.s:502    .text.core_exception_handler:0000000000000022 .LVL61
C:\Users\stapi\AppData\Local\Temp\ccyJxrux.s:530    .text.core_exception_handler:0000000000000042 .LVL68
C:\Users\stapi\AppData\Local\Temp\ccyJxrux.s:478    .text.core_exception_handler:0000000000000008 .LVL57
C:\Users\stapi\AppData\Local\Temp\ccyJxrux.s:489    .text.core_exception_handler:000000000000001a .LVL58
C:\Users\stapi\AppData\Local\Temp\ccyJxrux.s:510    .text.core_exception_handler:000000000000002a .LVL62
C:\Users\stapi\AppData\Local\Temp\ccyJxrux.s:515    .text.core_exception_handler:0000000000000030 .LVL64
C:\Users\stapi\AppData\Local\Temp\ccyJxrux.s:519    .text.core_exception_handler:0000000000000034 .LVL65
C:\Users\stapi\AppData\Local\Temp\ccyJxrux.s:521    .text.core_exception_handler:0000000000000038 .LVL66
C:\Users\stapi\AppData\Local\Temp\ccyJxrux.s:492    .text.core_exception_handler:000000000000001c .LVL59
C:\Users\stapi\AppData\Local\Temp\ccyJxrux.s:513    .text.core_exception_handler:000000000000002e .LVL63
C:\Users\stapi\AppData\Local\Temp\ccyJxrux.s:527    .text.core_exception_handler:0000000000000040 .LVL67
C:\Users\stapi\AppData\Local\Temp\ccyJxrux.s:425    .text.Exception_Get_EXC:0000000000000000 .LVL50
C:\Users\stapi\AppData\Local\Temp\ccyJxrux.s:436    .text.Exception_Get_EXC:000000000000000c .LVL51
C:\Users\stapi\AppData\Local\Temp\ccyJxrux.s:439    .text.Exception_Get_EXC:0000000000000014 .LVL52
C:\Users\stapi\AppData\Local\Temp\ccyJxrux.s:442    .text.Exception_Get_EXC:0000000000000018 .LVL53
C:\Users\stapi\AppData\Local\Temp\ccyJxrux.s:450    .text.Exception_Get_EXC:000000000000001e .LVL54
C:\Users\stapi\AppData\Local\Temp\ccyJxrux.s:456    .text.Exception_Get_EXC:0000000000000026 .LVL55
C:\Users\stapi\AppData\Local\Temp\ccyJxrux.s:387    .text.Exception_Register_EXC:0000000000000000 .LVL47
C:\Users\stapi\AppData\Local\Temp\ccyJxrux.s:397    .text.Exception_Register_EXC:0000000000000012 .LVL48
C:\Users\stapi\AppData\Local\Temp\ccyJxrux.s:400    .text.Exception_Register_EXC:0000000000000016 .LVL49
C:\Users\stapi\AppData\Local\Temp\ccyJxrux.s:355    .text.Exception_Init:0000000000000000 .LVL45
C:\Users\stapi\AppData\Local\Temp\ccyJxrux.s:363    .text.Exception_Init:0000000000000014 .LVL46
C:\Users\stapi\AppData\Local\Temp\ccyJxrux.s:790    .text.nmi_handler:0000000000000000 .LVL91
C:\Users\stapi\AppData\Local\Temp\ccyJxrux.s:803    .text.nmi_handler:0000000000000010 .LVL92
C:\Users\stapi\AppData\Local\Temp\ccyJxrux.s:809    .text.nmi_handler:0000000000000018 .LVL93
C:\Users\stapi\AppData\Local\Temp\ccyJxrux.s:827    .text.nmi_handler:0000000000000038 .LVL96
C:\Users\stapi\AppData\Local\Temp\ccyJxrux.s:845    .text.nmi_handler:000000000000004e .LVL98
C:\Users\stapi\AppData\Local\Temp\ccyJxrux.s:863    .text.nmi_handler:0000000000000064 .LVL100
C:\Users\stapi\AppData\Local\Temp\ccyJxrux.s:881    .text.nmi_handler:000000000000007a .LVL102
C:\Users\stapi\AppData\Local\Temp\ccyJxrux.s:932    .text.system_default_exception_handler:0000000000000000 .LVL105
C:\Users\stapi\AppData\Local\Temp\ccyJxrux.s:960    .text.system_default_exception_handler:0000000000000010 .LVL107
C:\Users\stapi\AppData\Local\Temp\ccyJxrux.s:1373   .text.system_default_exception_handler:000000000000023c .LVL152
C:\Users\stapi\AppData\Local\Temp\ccyJxrux.s:1623   .text.system_default_exception_handler:000000000000039a .LVL184
C:\Users\stapi\AppData\Local\Temp\ccyJxrux.s:1784   .text.system_default_exception_handler:0000000000000474 .LVL203
C:\Users\stapi\AppData\Local\Temp\ccyJxrux.s:966    .text.system_default_exception_handler:0000000000000018 .LVL108
C:\Users\stapi\AppData\Local\Temp\ccyJxrux.s:1416   .text.system_default_exception_handler:0000000000000284 .LVL158
C:\Users\stapi\AppData\Local\Temp\ccyJxrux.s:2135   .text.system_default_exception_handler:000000000000067e .LVL255
C:\Users\stapi\AppData\Local\Temp\ccyJxrux.s:2154   .text.system_default_exception_handler:0000000000000690 .LVL258
C:\Users\stapi\AppData\Local\Temp\ccyJxrux.s:2158   .text.system_default_exception_handler:0000000000000698 .LVL259
C:\Users\stapi\AppData\Local\Temp\ccyJxrux.s:2175   .text.system_default_exception_handler:00000000000006ac .LVL262
C:\Users\stapi\AppData\Local\Temp\ccyJxrux.s:951    .text.system_default_exception_handler:0000000000000008 .LVL106
C:\Users\stapi\AppData\Local\Temp\ccyJxrux.s:1379   .text.system_default_exception_handler:0000000000000244 .LVL153
C:\Users\stapi\AppData\Local\Temp\ccyJxrux.s:1549   .text.system_default_exception_handler:0000000000000338 .LVL172
C:\Users\stapi\AppData\Local\Temp\ccyJxrux.s:1881   .text.system_default_exception_handler:0000000000000504 .LVL217
C:\Users\stapi\AppData\Local\Temp\ccyJxrux.s:1913   .text.system_default_exception_handler:0000000000000518 .LVL220
C:\Users\stapi\AppData\Local\Temp\ccyJxrux.s:1944   .text.system_default_exception_handler:000000000000055c .LVL225
C:\Users\stapi\AppData\Local\Temp\ccyJxrux.s:2107   .text.system_default_exception_handler:0000000000000650 .LVL248
C:\Users\stapi\AppData\Local\Temp\ccyJxrux.s:2150   .text.system_default_exception_handler:000000000000068a .LVL256
C:\Users\stapi\AppData\Local\Temp\ccyJxrux.s:2152   .text.system_default_exception_handler:000000000000068e .LVL257
C:\Users\stapi\AppData\Local\Temp\ccyJxrux.s:2167   .text.system_default_exception_handler:00000000000006a0 .LVL260
C:\Users\stapi\AppData\Local\Temp\ccyJxrux.s:2171   .text.system_default_exception_handler:00000000000006a8 .LVL261
C:\Users\stapi\AppData\Local\Temp\ccyJxrux.s:984    .text.system_default_exception_handler:0000000000000038 .LVL111
C:\Users\stapi\AppData\Local\Temp\ccyJxrux.s:1002   .text.system_default_exception_handler:000000000000004e .LVL113
C:\Users\stapi\AppData\Local\Temp\ccyJxrux.s:1020   .text.system_default_exception_handler:0000000000000064 .LVL115
C:\Users\stapi\AppData\Local\Temp\ccyJxrux.s:1038   .text.system_default_exception_handler:000000000000007a .LVL117
C:\Users\stapi\AppData\Local\Temp\ccyJxrux.s:1060   .text.system_default_exception_handler:000000000000009a .LVL120
C:\Users\stapi\AppData\Local\Temp\ccyJxrux.s:1066   .text.system_default_exception_handler:000000000000009e .LVL121
C:\Users\stapi\AppData\Local\Temp\ccyJxrux.s:1635   .text.system_default_exception_handler:000000000000039e .LVL185
C:\Users\stapi\AppData\Local\Temp\ccyJxrux.s:1643   .text.system_default_exception_handler:00000000000003a6 .LVL186
C:\Users\stapi\AppData\Local\Temp\ccyJxrux.s:1655   .text.system_default_exception_handler:00000000000003ae .LVL187
C:\Users\stapi\AppData\Local\Temp\ccyJxrux.s:1688   .text.system_default_exception_handler:00000000000003f8 .LVL192
C:\Users\stapi\AppData\Local\Temp\ccyJxrux.s:1098   .text.system_default_exception_handler:00000000000000dc .LVL125
C:\Users\stapi\AppData\Local\Temp\ccyJxrux.s:1301   .text.system_default_exception_handler:00000000000001ce .LVL146
C:\Users\stapi\AppData\Local\Temp\ccyJxrux.s:1307   .text.system_default_exception_handler:00000000000001d0 .LVL147
C:\Users\stapi\AppData\Local\Temp\ccyJxrux.s:1132   .text.system_default_exception_handler:0000000000000106 .LVL128
C:\Users\stapi\AppData\Local\Temp\ccyJxrux.s:1155   .text.system_default_exception_handler:0000000000000120 .LVL130
C:\Users\stapi\AppData\Local\Temp\ccyJxrux.s:1177   .text.system_default_exception_handler:0000000000000136 .LVL132
C:\Users\stapi\AppData\Local\Temp\ccyJxrux.s:1199   .text.system_default_exception_handler:000000000000014c .LVL134
C:\Users\stapi\AppData\Local\Temp\ccyJxrux.s:1221   .text.system_default_exception_handler:0000000000000162 .LVL136
C:\Users\stapi\AppData\Local\Temp\ccyJxrux.s:1247   .text.system_default_exception_handler:000000000000017e .LVL138
C:\Users\stapi\AppData\Local\Temp\ccyJxrux.s:1253   .text.system_default_exception_handler:0000000000000182 .LVL139
C:\Users\stapi\AppData\Local\Temp\ccyJxrux.s:1269   .text.system_default_exception_handler:000000000000019a .LVL141
C:\Users\stapi\AppData\Local\Temp\ccyJxrux.s:1275   .text.system_default_exception_handler:00000000000001a0 .LVL142
C:\Users\stapi\AppData\Local\Temp\ccyJxrux.s:1278   .text.system_default_exception_handler:00000000000001a2 .LVL143
C:\Users\stapi\AppData\Local\Temp\ccyJxrux.s:1723   .text.system_default_exception_handler:0000000000000410 .LVL195
C:\Users\stapi\AppData\Local\Temp\ccyJxrux.s:1732   .text.system_default_exception_handler:000000000000041c .LVL196
C:\Users\stapi\AppData\Local\Temp\ccyJxrux.s:1743   .text.system_default_exception_handler:000000000000042c .LVL197
C:\Users\stapi\AppData\Local\Temp\ccyJxrux.s:1746   .text.system_default_exception_handler:0000000000000430 .LVL198
C:\Users\stapi\AppData\Local\Temp\ccyJxrux.s:1754   .text.system_default_exception_handler:0000000000000438 .LVL199
C:\Users\stapi\AppData\Local\Temp\ccyJxrux.s:1701   .text.system_default_exception_handler:00000000000003fc .LVL193
C:\Users\stapi\AppData\Local\Temp\ccyJxrux.s:1709   .text.system_default_exception_handler:0000000000000404 .LVL194
C:\Users\stapi\AppData\Local\Temp\ccyJxrux.s:1436   .text.system_default_exception_handler:00000000000002a6 .LVL161
C:\Users\stapi\AppData\Local\Temp\ccyJxrux.s:1502   .text.system_default_exception_handler:00000000000002f2 .LVL164
C:\Users\stapi\AppData\Local\Temp\ccyJxrux.s:1504   .text.system_default_exception_handler:00000000000002f4 .LVL165
C:\Users\stapi\AppData\Local\Temp\ccyJxrux.s:1520   .text.system_default_exception_handler:0000000000000314 .LVL167
C:\Users\stapi\AppData\Local\Temp\ccyJxrux.s:1522   .text.system_default_exception_handler:0000000000000316 .LVL168
C:\Users\stapi\AppData\Local\Temp\ccyJxrux.s:1807   .text.system_default_exception_handler:000000000000048a .LVL205
C:\Users\stapi\AppData\Local\Temp\ccyJxrux.s:1812   .text.system_default_exception_handler:0000000000000494 .LVL206
C:\Users\stapi\AppData\Local\Temp\ccyJxrux.s:1963   .text.system_default_exception_handler:0000000000000572 .LVL227
C:\Users\stapi\AppData\Local\Temp\ccyJxrux.s:1968   .text.system_default_exception_handler:000000000000057c .LVL228
C:\Users\stapi\AppData\Local\Temp\ccyJxrux.s:1997   .text.system_default_exception_handler:00000000000005b0 .LVL233
C:\Users\stapi\AppData\Local\Temp\ccyJxrux.s:1999   .text.system_default_exception_handler:00000000000005b2 .LVL234
C:\Users\stapi\AppData\Local\Temp\ccyJxrux.s:2014   .text.system_default_exception_handler:00000000000005c6 .LVL236
C:\Users\stapi\AppData\Local\Temp\ccyJxrux.s:2016   .text.system_default_exception_handler:00000000000005c8 .LVL237
C:\Users\stapi\AppData\Local\Temp\ccyJxrux.s:2079   .text.system_default_exception_handler:0000000000000622 .LVL242
C:\Users\stapi\AppData\Local\Temp\ccyJxrux.s:2081   .text.system_default_exception_handler:0000000000000624 .LVL243
C:\Users\stapi\AppData\Local\Temp\ccyJxrux.s:1492   .text.system_default_exception_handler:00000000000002e4 .LVL162
C:\Users\stapi\AppData\Local\Temp\ccyJxrux.s:1530   .text.system_default_exception_handler:0000000000000324 .LVL169
C:\Users\stapi\AppData\Local\Temp\ccyJxrux.s:1532   .text.system_default_exception_handler:0000000000000328 .LVL170
C:\Users\stapi\AppData\Local\Temp\ccyJxrux.s:1801   .text.system_default_exception_handler:0000000000000484 .LVL204
C:\Users\stapi\AppData\Local\Temp\ccyJxrux.s:1818   .text.system_default_exception_handler:00000000000004a0 .LVL207
C:\Users\stapi\AppData\Local\Temp\ccyJxrux.s:1823   .text.system_default_exception_handler:00000000000004a2 .LVL208
C:\Users\stapi\AppData\Local\Temp\ccyJxrux.s:1957   .text.system_default_exception_handler:000000000000056c .LVL226
C:\Users\stapi\AppData\Local\Temp\ccyJxrux.s:1974   .text.system_default_exception_handler:0000000000000588 .LVL229
C:\Users\stapi\AppData\Local\Temp\ccyJxrux.s:1979   .text.system_default_exception_handler:000000000000058a .LVL230
C:\Users\stapi\AppData\Local\Temp\ccyJxrux.s:1992   .text.system_default_exception_handler:00000000000005ae .LVL232
C:\Users\stapi\AppData\Local\Temp\ccyJxrux.s:2030   .text.system_default_exception_handler:00000000000005e2 .LVL238
C:\Users\stapi\AppData\Local\Temp\ccyJxrux.s:2043   .text.system_default_exception_handler:00000000000005f4 .LVL240
C:\Users\stapi\AppData\Local\Temp\ccyJxrux.s:2103   .text.system_default_exception_handler:000000000000064a .LVL246
C:\Users\stapi\AppData\Local\Temp\ccyJxrux.s:2105   .text.system_default_exception_handler:000000000000064e .LVL247
C:\Users\stapi\AppData\Local\Temp\ccyJxrux.s:1498   .text.system_default_exception_handler:00000000000002f0 .LVL163
C:\Users\stapi\AppData\Local\Temp\ccyJxrux.s:1540   .text.system_default_exception_handler:0000000000000330 .LVL171
C:\Users\stapi\AppData\Local\Temp\ccyJxrux.s:2009   .text.system_default_exception_handler:00000000000005c4 .LVL235
C:\Users\stapi\AppData\Local\Temp\ccyJxrux.s:2073   .text.system_default_exception_handler:0000000000000620 .LVL241
C:\Users\stapi\AppData\Local\Temp\ccyJxrux.s:2098   .text.system_default_exception_handler:0000000000000648 .LVL245
C:\Users\stapi\AppData\Local\Temp\ccyJxrux.s:2096   .text.system_default_exception_handler:0000000000000644 .LVL244
C:\Users\stapi\AppData\Local\Temp\ccyJxrux.s:1516   .text.system_default_exception_handler:0000000000000310 .LVL166
C:\Users\stapi\AppData\Local\Temp\ccyJxrux.s:1559   .text.system_default_exception_handler:0000000000000340 .LVL173
C:\Users\stapi\AppData\Local\Temp\ccyJxrux.s:2116   .text.system_default_exception_handler:000000000000065a .LVL250
C:\Users\stapi\AppData\Local\Temp\ccyJxrux.s:2124   .text.system_default_exception_handler:0000000000000664 .LVL252
C:\Users\stapi\AppData\Local\Temp\ccyJxrux.s:1565   .text.system_default_exception_handler:0000000000000344 .LVL174
C:\Users\stapi\AppData\Local\Temp\ccyJxrux.s:1574   .text.system_default_exception_handler:0000000000000350 .LVL175
C:\Users\stapi\AppData\Local\Temp\ccyJxrux.s:1585   .text.system_default_exception_handler:0000000000000360 .LVL177
C:\Users\stapi\AppData\Local\Temp\ccyJxrux.s:1592   .text.system_default_exception_handler:0000000000000368 .LVL178
C:\Users\stapi\AppData\Local\Temp\ccyJxrux.s:2114   .text.system_default_exception_handler:0000000000000658 .LVL249
C:\Users\stapi\AppData\Local\Temp\ccyJxrux.s:2122   .text.system_default_exception_handler:0000000000000662 .LVL251
C:\Users\stapi\AppData\Local\Temp\ccyJxrux.s:1608   .text.system_default_exception_handler:000000000000037e .LVL181
C:\Users\stapi\AppData\Local\Temp\ccyJxrux.s:1837   .text.system_default_exception_handler:00000000000004b4 .LVL210
C:\Users\stapi\AppData\Local\Temp\ccyJxrux.s:1843   .text.system_default_exception_handler:00000000000004b8 .LVL211
C:\Users\stapi\AppData\Local\Temp\ccyJxrux.s:1893   .text.system_default_exception_handler:0000000000000508 .LVL218
C:\Users\stapi\AppData\Local\Temp\ccyJxrux.s:1901   .text.system_default_exception_handler:0000000000000510 .LVL219
C:\Users\stapi\AppData\Local\Temp\ccyJxrux.s:258    .text.xCurrentTaskDumpInfo:0000000000000000 .LVL30
C:\Users\stapi\AppData\Local\Temp\ccyJxrux.s:274    .text.xCurrentTaskDumpInfo:000000000000000c .LVL32
C:\Users\stapi\AppData\Local\Temp\ccyJxrux.s:268    .text.xCurrentTaskDumpInfo:0000000000000008 .LVL31
C:\Users\stapi\AppData\Local\Temp\ccyJxrux.s:300    .text.xCurrentTaskDumpInfo:000000000000003c .LVL40
C:\Users\stapi\AppData\Local\Temp\ccyJxrux.s:312    .text.xCurrentTaskDumpInfo:000000000000004c .LVL41
C:\Users\stapi\AppData\Local\Temp\ccyJxrux.s:278    .text.xCurrentTaskDumpInfo:0000000000000016 .LVL34
C:\Users\stapi\AppData\Local\Temp\ccyJxrux.s:282    .text.xCurrentTaskDumpInfo:0000000000000018 .LVL35
C:\Users\stapi\AppData\Local\Temp\ccyJxrux.s:286    .text.xCurrentTaskDumpInfo:0000000000000022 .LVL37
C:\Users\stapi\AppData\Local\Temp\ccyJxrux.s:289    .text.xCurrentTaskDumpInfo:0000000000000026 .LVL38
C:\Users\stapi\AppData\Local\Temp\ccyJxrux.s:102    .text.dumpStackInfo:0000000000000000 .LVL8
C:\Users\stapi\AppData\Local\Temp\ccyJxrux.s:127    .text.dumpStackInfo:0000000000000014 .LVL10
C:\Users\stapi\AppData\Local\Temp\ccyJxrux.s:197    .text.dumpStackInfo:0000000000000062 .LVL20
C:\Users\stapi\AppData\Local\Temp\ccyJxrux.s:210    .text.dumpStackInfo:0000000000000078 .LVL22
C:\Users\stapi\AppData\Local\Temp\ccyJxrux.s:227    .text.dumpStackInfo:000000000000008c .LVL27
C:\Users\stapi\AppData\Local\Temp\ccyJxrux.s:132    .text.dumpStackInfo:0000000000000018 .LVL11
C:\Users\stapi\AppData\Local\Temp\ccyJxrux.s:151    .text.dumpStackInfo:0000000000000028 .LVL12
C:\Users\stapi\AppData\Local\Temp\ccyJxrux.s:113    .text.dumpStackInfo:0000000000000008 .LVL9
C:\Users\stapi\AppData\Local\Temp\ccyJxrux.s:153    .text.dumpStackInfo:000000000000002c .LVL13
C:\Users\stapi\AppData\Local\Temp\ccyJxrux.s:218    .text.dumpStackInfo:0000000000000082 .LVL24
C:\Users\stapi\AppData\Local\Temp\ccyJxrux.s:159    .text.dumpStackInfo:0000000000000030 .LVL14
C:\Users\stapi\AppData\Local\Temp\ccyJxrux.s:168    .text.dumpStackInfo:000000000000003c .LVL15
C:\Users\stapi\AppData\Local\Temp\ccyJxrux.s:179    .text.dumpStackInfo:000000000000004c .LVL17
C:\Users\stapi\AppData\Local\Temp\ccyJxrux.s:186    .text.dumpStackInfo:0000000000000054 .LVL18
C:\Users\stapi\AppData\Local\Temp\ccyJxrux.s:216    .text.dumpStackInfo:0000000000000080 .LVL23
C:\Users\stapi\AppData\Local\Temp\ccyJxrux.s:225    .text.dumpStackInfo:000000000000008a .LVL26
C:\Users\stapi\AppData\Local\Temp\ccyJxrux.s:223    .text.dumpStackInfo:0000000000000086 .LVL25
C:\Users\stapi\AppData\Local\Temp\ccyJxrux.s:22     .text.print_reg:0000000000000000 .LVL0
C:\Users\stapi\AppData\Local\Temp\ccyJxrux.s:46     .text.print_reg:0000000000000018 .LVL2
C:\Users\stapi\AppData\Local\Temp\ccyJxrux.s:69     .text.print_reg:0000000000000036 .LVL5
C:\Users\stapi\AppData\Local\Temp\ccyJxrux.s:53     .text.print_reg:0000000000000020 .LVL3
C:\Users\stapi\AppData\Local\Temp\ccyJxrux.s:63     .text.print_reg:0000000000000030 .LVL4
C:\Users\stapi\AppData\Local\Temp\ccyJxrux.s:2209   .debug_info:0000000000000000 .Ldebug_info0
C:\Users\stapi\AppData\Local\Temp\ccyJxrux.s:122    .text.dumpStackInfo:000000000000000e .LBB7
C:\Users\stapi\AppData\Local\Temp\ccyJxrux.s:129    .text.dumpStackInfo:0000000000000014 .LBE7
C:\Users\stapi\AppData\Local\Temp\ccyJxrux.s:147    .text.dumpStackInfo:0000000000000024 .LBB8
C:\Users\stapi\AppData\Local\Temp\ccyJxrux.s:239    .text.dumpStackInfo:00000000000000a6 .LBE8
C:\Users\stapi\AppData\Local\Temp\ccyJxrux.s:1322   .text.system_default_exception_handler:00000000000001e0 .LBE46
C:\Users\stapi\AppData\Local\Temp\ccyJxrux.s:1691   .text.system_default_exception_handler:00000000000003f8 .LBB82
C:\Users\stapi\AppData\Local\Temp\ccyJxrux.s:1788   .text.system_default_exception_handler:0000000000000474 .LBE82
C:\Users\stapi\AppData\Local\Temp\ccyJxrux.s:1304   .text.system_default_exception_handler:00000000000001ce .LBB55
C:\Users\stapi\AppData\Local\Temp\ccyJxrux.s:1309   .text.system_default_exception_handler:00000000000001d0 .LBE55
C:\Users\stapi\AppData\Local\Temp\ccyJxrux.s:1714   .text.system_default_exception_handler:000000000000040c .LBB58
C:\Users\stapi\AppData\Local\Temp\ccyJxrux.s:1786   .text.system_default_exception_handler:0000000000000474 .LBE58
C:\Users\stapi\AppData\Local\Temp\ccyJxrux.s:1350   .text.system_default_exception_handler:0000000000000224 .LBE60
C:\Users\stapi\AppData\Local\Temp\ccyJxrux.s:1353   .text.system_default_exception_handler:0000000000000228 .LBB76
C:\Users\stapi\AppData\Local\Temp\ccyJxrux.s:1364   .text.system_default_exception_handler:0000000000000234 .LBE76
C:\Users\stapi\AppData\Local\Temp\ccyJxrux.s:1369   .text.system_default_exception_handler:000000000000023a .LBB77
C:\Users\stapi\AppData\Local\Temp\ccyJxrux.s:1383   .text.system_default_exception_handler:0000000000000244 .LBE77
C:\Users\stapi\AppData\Local\Temp\ccyJxrux.s:1437   .text.system_default_exception_handler:00000000000002a6 .LBB78
C:\Users\stapi\AppData\Local\Temp\ccyJxrux.s:1626   .text.system_default_exception_handler:000000000000039a .LBE78
C:\Users\stapi\AppData\Local\Temp\ccyJxrux.s:1789   .text.system_default_exception_handler:0000000000000474 .LBB83
C:\Users\stapi\AppData\Local\Temp\ccyJxrux.s:1868   .text.system_default_exception_handler:00000000000004e8 .LBE83
C:\Users\stapi\AppData\Local\Temp\ccyJxrux.s:1883   .text.system_default_exception_handler:0000000000000504 .LBB84
C:\Users\stapi\AppData\Local\Temp\ccyJxrux.s:2139   .text.system_default_exception_handler:000000000000067e .LBE84
C:\Users\stapi\AppData\Local\Temp\ccyJxrux.s:1359   .text.system_default_exception_handler:0000000000000230 .LBB62
C:\Users\stapi\AppData\Local\Temp\ccyJxrux.s:1362   .text.system_default_exception_handler:0000000000000234 .LBE62
C:\Users\stapi\AppData\Local\Temp\ccyJxrux.s:1376   .text.system_default_exception_handler:0000000000000240 .LBB64
C:\Users\stapi\AppData\Local\Temp\ccyJxrux.s:1381   .text.system_default_exception_handler:0000000000000244 .LBE64
C:\Users\stapi\AppData\Local\Temp\ccyJxrux.s:1904   .text.system_default_exception_handler:0000000000000514 .LBB69
C:\Users\stapi\AppData\Local\Temp\ccyJxrux.s:1946   .text.system_default_exception_handler:000000000000055c .LBE69
C:\Users\stapi\AppData\Local\Temp\ccyJxrux.s:1546   .text.system_default_exception_handler:0000000000000336 .LBB65
C:\Users\stapi\AppData\Local\Temp\ccyJxrux.s:1551   .text.system_default_exception_handler:0000000000000338 .LBE65
C:\Users\stapi\AppData\Local\Temp\ccyJxrux.s:1555   .text.system_default_exception_handler:000000000000033c .LBB66
C:\Users\stapi\AppData\Local\Temp\ccyJxrux.s:1617   .text.system_default_exception_handler:0000000000000390 .LBE66
C:\Users\stapi\AppData\Local\Temp\ccyJxrux.s:2109   .text.system_default_exception_handler:0000000000000650 .LBB70
C:\Users\stapi\AppData\Local\Temp\ccyJxrux.s:2137   .text.system_default_exception_handler:000000000000067e .LBE70

UNDEFINED SYMBOLS
__riscv_save_4
log_uart_put_data
log_uart_putc_noint
__riscv_restore_4
__riscv_save_6
__riscv_restore_6
__riscv_save_5
sys_task_name_get
sys_current_task_stack_depth
__riscv_restore_5
__riscv_save_0
__riscv_restore_0
__riscv_save_2
__riscv_restore_2
__riscv_save_1
__riscv_save_12
raw_flash_erase
raw_flash_write
uart_config
_sp
usart_flag_get
usart_flag_clear
usart_data_receive
