   1              		.file	"crypto_internal-cipher.c"
   2              		.option nopic
   3              		.attribute arch, "rv32i2p0_m2p0_a2p0_f2p0_c2p0_b_p0p94"
   4              		.attribute unaligned_access, 0
   5              		.attribute stack_align, 16
   6              		.text
   7              	.Ltext0:
   8              		.cfi_sections	.debug_frame
   9              		.section	.text.crypto_cipher_init,"ax",@progbits
  10              		.align	1
  11              		.globl	crypto_cipher_init
  13              	crypto_cipher_init:
  14              	.LFB71:
  15              		.file 1 "C:/Users/stapi/OneDrive/Desktop/GD32VW553/V1_MQTT_OK/GD32VW55X_Wifi_BLE_SDK/GD32VW55x_REL
   1:C:/Users/stapi/OneDrive/Desktop/GD32VW553/V1_MQTT_OK/GD32VW55X_Wifi_BLE_SDK/GD32VW55x_RELEASE_V1.0.2/MSDK/wpa_supplicant/src/crypto\crypto_internal-cipher.c **** /*
   2:C:/Users/stapi/OneDrive/Desktop/GD32VW553/V1_MQTT_OK/GD32VW55X_Wifi_BLE_SDK/GD32VW55x_RELEASE_V1.0.2/MSDK/wpa_supplicant/src/crypto\crypto_internal-cipher.c ****  * Crypto wrapper for internal crypto implementation - Cipher wrappers
   3:C:/Users/stapi/OneDrive/Desktop/GD32VW553/V1_MQTT_OK/GD32VW55X_Wifi_BLE_SDK/GD32VW55x_RELEASE_V1.0.2/MSDK/wpa_supplicant/src/crypto\crypto_internal-cipher.c ****  * Copyright (c) 2006-2009, Jouni Malinen <j@w1.fi>
   4:C:/Users/stapi/OneDrive/Desktop/GD32VW553/V1_MQTT_OK/GD32VW55X_Wifi_BLE_SDK/GD32VW55x_RELEASE_V1.0.2/MSDK/wpa_supplicant/src/crypto\crypto_internal-cipher.c ****  *
   5:C:/Users/stapi/OneDrive/Desktop/GD32VW553/V1_MQTT_OK/GD32VW55X_Wifi_BLE_SDK/GD32VW55x_RELEASE_V1.0.2/MSDK/wpa_supplicant/src/crypto\crypto_internal-cipher.c ****  * This software may be distributed under the terms of the BSD license.
   6:C:/Users/stapi/OneDrive/Desktop/GD32VW553/V1_MQTT_OK/GD32VW55X_Wifi_BLE_SDK/GD32VW55x_RELEASE_V1.0.2/MSDK/wpa_supplicant/src/crypto\crypto_internal-cipher.c ****  * See README for more details.
   7:C:/Users/stapi/OneDrive/Desktop/GD32VW553/V1_MQTT_OK/GD32VW55X_Wifi_BLE_SDK/GD32VW55x_RELEASE_V1.0.2/MSDK/wpa_supplicant/src/crypto\crypto_internal-cipher.c ****  */
   8:C:/Users/stapi/OneDrive/Desktop/GD32VW553/V1_MQTT_OK/GD32VW55X_Wifi_BLE_SDK/GD32VW55x_RELEASE_V1.0.2/MSDK/wpa_supplicant/src/crypto\crypto_internal-cipher.c **** 
   9:C:/Users/stapi/OneDrive/Desktop/GD32VW553/V1_MQTT_OK/GD32VW55X_Wifi_BLE_SDK/GD32VW55x_RELEASE_V1.0.2/MSDK/wpa_supplicant/src/crypto\crypto_internal-cipher.c **** #include "includes.h"
  10:C:/Users/stapi/OneDrive/Desktop/GD32VW553/V1_MQTT_OK/GD32VW55X_Wifi_BLE_SDK/GD32VW55x_RELEASE_V1.0.2/MSDK/wpa_supplicant/src/crypto\crypto_internal-cipher.c **** 
  11:C:/Users/stapi/OneDrive/Desktop/GD32VW553/V1_MQTT_OK/GD32VW55X_Wifi_BLE_SDK/GD32VW55x_RELEASE_V1.0.2/MSDK/wpa_supplicant/src/crypto\crypto_internal-cipher.c **** #include "common.h"
  12:C:/Users/stapi/OneDrive/Desktop/GD32VW553/V1_MQTT_OK/GD32VW55X_Wifi_BLE_SDK/GD32VW55x_RELEASE_V1.0.2/MSDK/wpa_supplicant/src/crypto\crypto_internal-cipher.c **** #include "crypto.h"
  13:C:/Users/stapi/OneDrive/Desktop/GD32VW553/V1_MQTT_OK/GD32VW55X_Wifi_BLE_SDK/GD32VW55x_RELEASE_V1.0.2/MSDK/wpa_supplicant/src/crypto\crypto_internal-cipher.c **** #include "aes.h"
  14:C:/Users/stapi/OneDrive/Desktop/GD32VW553/V1_MQTT_OK/GD32VW55X_Wifi_BLE_SDK/GD32VW55x_RELEASE_V1.0.2/MSDK/wpa_supplicant/src/crypto\crypto_internal-cipher.c **** #include "des_i.h"
  15:C:/Users/stapi/OneDrive/Desktop/GD32VW553/V1_MQTT_OK/GD32VW55X_Wifi_BLE_SDK/GD32VW55x_RELEASE_V1.0.2/MSDK/wpa_supplicant/src/crypto\crypto_internal-cipher.c **** 
  16:C:/Users/stapi/OneDrive/Desktop/GD32VW553/V1_MQTT_OK/GD32VW55X_Wifi_BLE_SDK/GD32VW55x_RELEASE_V1.0.2/MSDK/wpa_supplicant/src/crypto\crypto_internal-cipher.c **** 
  17:C:/Users/stapi/OneDrive/Desktop/GD32VW553/V1_MQTT_OK/GD32VW55X_Wifi_BLE_SDK/GD32VW55x_RELEASE_V1.0.2/MSDK/wpa_supplicant/src/crypto\crypto_internal-cipher.c **** struct crypto_cipher {
  18:C:/Users/stapi/OneDrive/Desktop/GD32VW553/V1_MQTT_OK/GD32VW55X_Wifi_BLE_SDK/GD32VW55x_RELEASE_V1.0.2/MSDK/wpa_supplicant/src/crypto\crypto_internal-cipher.c **** 	enum crypto_cipher_alg alg;
  19:C:/Users/stapi/OneDrive/Desktop/GD32VW553/V1_MQTT_OK/GD32VW55X_Wifi_BLE_SDK/GD32VW55x_RELEASE_V1.0.2/MSDK/wpa_supplicant/src/crypto\crypto_internal-cipher.c **** 	union {
  20:C:/Users/stapi/OneDrive/Desktop/GD32VW553/V1_MQTT_OK/GD32VW55X_Wifi_BLE_SDK/GD32VW55x_RELEASE_V1.0.2/MSDK/wpa_supplicant/src/crypto\crypto_internal-cipher.c **** 		struct {
  21:C:/Users/stapi/OneDrive/Desktop/GD32VW553/V1_MQTT_OK/GD32VW55X_Wifi_BLE_SDK/GD32VW55x_RELEASE_V1.0.2/MSDK/wpa_supplicant/src/crypto\crypto_internal-cipher.c **** 			size_t used_bytes;
  22:C:/Users/stapi/OneDrive/Desktop/GD32VW553/V1_MQTT_OK/GD32VW55X_Wifi_BLE_SDK/GD32VW55x_RELEASE_V1.0.2/MSDK/wpa_supplicant/src/crypto\crypto_internal-cipher.c **** 			u8 key[16];
  23:C:/Users/stapi/OneDrive/Desktop/GD32VW553/V1_MQTT_OK/GD32VW55X_Wifi_BLE_SDK/GD32VW55x_RELEASE_V1.0.2/MSDK/wpa_supplicant/src/crypto\crypto_internal-cipher.c **** 			size_t keylen;
  24:C:/Users/stapi/OneDrive/Desktop/GD32VW553/V1_MQTT_OK/GD32VW55X_Wifi_BLE_SDK/GD32VW55x_RELEASE_V1.0.2/MSDK/wpa_supplicant/src/crypto\crypto_internal-cipher.c **** 		} rc4;
  25:C:/Users/stapi/OneDrive/Desktop/GD32VW553/V1_MQTT_OK/GD32VW55X_Wifi_BLE_SDK/GD32VW55x_RELEASE_V1.0.2/MSDK/wpa_supplicant/src/crypto\crypto_internal-cipher.c **** 		struct {
  26:C:/Users/stapi/OneDrive/Desktop/GD32VW553/V1_MQTT_OK/GD32VW55X_Wifi_BLE_SDK/GD32VW55x_RELEASE_V1.0.2/MSDK/wpa_supplicant/src/crypto\crypto_internal-cipher.c **** 			u8 cbc[32];
  27:C:/Users/stapi/OneDrive/Desktop/GD32VW553/V1_MQTT_OK/GD32VW55X_Wifi_BLE_SDK/GD32VW55x_RELEASE_V1.0.2/MSDK/wpa_supplicant/src/crypto\crypto_internal-cipher.c **** 			void *ctx_enc;
  28:C:/Users/stapi/OneDrive/Desktop/GD32VW553/V1_MQTT_OK/GD32VW55X_Wifi_BLE_SDK/GD32VW55x_RELEASE_V1.0.2/MSDK/wpa_supplicant/src/crypto\crypto_internal-cipher.c **** 			void *ctx_dec;
  29:C:/Users/stapi/OneDrive/Desktop/GD32VW553/V1_MQTT_OK/GD32VW55X_Wifi_BLE_SDK/GD32VW55x_RELEASE_V1.0.2/MSDK/wpa_supplicant/src/crypto\crypto_internal-cipher.c **** 		} aes;
  30:C:/Users/stapi/OneDrive/Desktop/GD32VW553/V1_MQTT_OK/GD32VW55X_Wifi_BLE_SDK/GD32VW55x_RELEASE_V1.0.2/MSDK/wpa_supplicant/src/crypto\crypto_internal-cipher.c **** 		struct {
  31:C:/Users/stapi/OneDrive/Desktop/GD32VW553/V1_MQTT_OK/GD32VW55X_Wifi_BLE_SDK/GD32VW55x_RELEASE_V1.0.2/MSDK/wpa_supplicant/src/crypto\crypto_internal-cipher.c **** 			struct des3_key_s key;
  32:C:/Users/stapi/OneDrive/Desktop/GD32VW553/V1_MQTT_OK/GD32VW55X_Wifi_BLE_SDK/GD32VW55x_RELEASE_V1.0.2/MSDK/wpa_supplicant/src/crypto\crypto_internal-cipher.c **** 			u8 cbc[8];
  33:C:/Users/stapi/OneDrive/Desktop/GD32VW553/V1_MQTT_OK/GD32VW55X_Wifi_BLE_SDK/GD32VW55x_RELEASE_V1.0.2/MSDK/wpa_supplicant/src/crypto\crypto_internal-cipher.c **** 		} des3;
  34:C:/Users/stapi/OneDrive/Desktop/GD32VW553/V1_MQTT_OK/GD32VW55X_Wifi_BLE_SDK/GD32VW55x_RELEASE_V1.0.2/MSDK/wpa_supplicant/src/crypto\crypto_internal-cipher.c **** 		struct {
  35:C:/Users/stapi/OneDrive/Desktop/GD32VW553/V1_MQTT_OK/GD32VW55X_Wifi_BLE_SDK/GD32VW55x_RELEASE_V1.0.2/MSDK/wpa_supplicant/src/crypto\crypto_internal-cipher.c **** 			u32 ek[32];
  36:C:/Users/stapi/OneDrive/Desktop/GD32VW553/V1_MQTT_OK/GD32VW55X_Wifi_BLE_SDK/GD32VW55x_RELEASE_V1.0.2/MSDK/wpa_supplicant/src/crypto\crypto_internal-cipher.c **** 			u32 dk[32];
  37:C:/Users/stapi/OneDrive/Desktop/GD32VW553/V1_MQTT_OK/GD32VW55X_Wifi_BLE_SDK/GD32VW55x_RELEASE_V1.0.2/MSDK/wpa_supplicant/src/crypto\crypto_internal-cipher.c **** 			u8 cbc[8];
  38:C:/Users/stapi/OneDrive/Desktop/GD32VW553/V1_MQTT_OK/GD32VW55X_Wifi_BLE_SDK/GD32VW55x_RELEASE_V1.0.2/MSDK/wpa_supplicant/src/crypto\crypto_internal-cipher.c **** 		} des;
  39:C:/Users/stapi/OneDrive/Desktop/GD32VW553/V1_MQTT_OK/GD32VW55X_Wifi_BLE_SDK/GD32VW55x_RELEASE_V1.0.2/MSDK/wpa_supplicant/src/crypto\crypto_internal-cipher.c **** 	} u;
  40:C:/Users/stapi/OneDrive/Desktop/GD32VW553/V1_MQTT_OK/GD32VW55X_Wifi_BLE_SDK/GD32VW55x_RELEASE_V1.0.2/MSDK/wpa_supplicant/src/crypto\crypto_internal-cipher.c **** };
  41:C:/Users/stapi/OneDrive/Desktop/GD32VW553/V1_MQTT_OK/GD32VW55X_Wifi_BLE_SDK/GD32VW55x_RELEASE_V1.0.2/MSDK/wpa_supplicant/src/crypto\crypto_internal-cipher.c **** 
  42:C:/Users/stapi/OneDrive/Desktop/GD32VW553/V1_MQTT_OK/GD32VW55X_Wifi_BLE_SDK/GD32VW55x_RELEASE_V1.0.2/MSDK/wpa_supplicant/src/crypto\crypto_internal-cipher.c **** 
  43:C:/Users/stapi/OneDrive/Desktop/GD32VW553/V1_MQTT_OK/GD32VW55X_Wifi_BLE_SDK/GD32VW55x_RELEASE_V1.0.2/MSDK/wpa_supplicant/src/crypto\crypto_internal-cipher.c **** struct crypto_cipher * crypto_cipher_init(enum crypto_cipher_alg alg,
  44:C:/Users/stapi/OneDrive/Desktop/GD32VW553/V1_MQTT_OK/GD32VW55X_Wifi_BLE_SDK/GD32VW55x_RELEASE_V1.0.2/MSDK/wpa_supplicant/src/crypto\crypto_internal-cipher.c **** 					  const u8 *iv, const u8 *key,
  45:C:/Users/stapi/OneDrive/Desktop/GD32VW553/V1_MQTT_OK/GD32VW55X_Wifi_BLE_SDK/GD32VW55x_RELEASE_V1.0.2/MSDK/wpa_supplicant/src/crypto\crypto_internal-cipher.c **** 					  size_t key_len)
  46:C:/Users/stapi/OneDrive/Desktop/GD32VW553/V1_MQTT_OK/GD32VW55X_Wifi_BLE_SDK/GD32VW55x_RELEASE_V1.0.2/MSDK/wpa_supplicant/src/crypto\crypto_internal-cipher.c **** {
  16              		.loc 1 46 1
  17              		.cfi_startproc
  18              	.LVL0:
  19 0000 17030000 		call	t0,__riscv_save_5
  19      E7020300 
  20              		.cfi_offset 20, -24
  21              		.cfi_offset 19, -20
  22              		.cfi_offset 18, -16
  23              		.cfi_offset 9, -12
  24              		.cfi_offset 8, -8
  25              		.cfi_offset 1, -4
  26              		.cfi_def_cfa_offset 32
  47:C:/Users/stapi/OneDrive/Desktop/GD32VW553/V1_MQTT_OK/GD32VW55X_Wifi_BLE_SDK/GD32VW55x_RELEASE_V1.0.2/MSDK/wpa_supplicant/src/crypto\crypto_internal-cipher.c **** 	struct crypto_cipher *ctx;
  27              		.loc 1 47 2
  48:C:/Users/stapi/OneDrive/Desktop/GD32VW553/V1_MQTT_OK/GD32VW55X_Wifi_BLE_SDK/GD32VW55x_RELEASE_V1.0.2/MSDK/wpa_supplicant/src/crypto\crypto_internal-cipher.c **** 
  49:C:/Users/stapi/OneDrive/Desktop/GD32VW553/V1_MQTT_OK/GD32VW55X_Wifi_BLE_SDK/GD32VW55x_RELEASE_V1.0.2/MSDK/wpa_supplicant/src/crypto\crypto_internal-cipher.c **** 	ctx = os_zalloc(sizeof(*ctx));
  28              		.loc 1 49 2
  46:C:/Users/stapi/OneDrive/Desktop/GD32VW553/V1_MQTT_OK/GD32VW55X_Wifi_BLE_SDK/GD32VW55x_RELEASE_V1.0.2/MSDK/wpa_supplicant/src/crypto\crypto_internal-cipher.c **** 	struct crypto_cipher *ctx;
  29              		.loc 1 46 1 is_stmt 0
  30 0008 2A89     		mv	s2,a0
  31              		.loc 1 49 8
  32 000a 1305C030 		li	a0,780
  33              	.LVL1:
  46:C:/Users/stapi/OneDrive/Desktop/GD32VW553/V1_MQTT_OK/GD32VW55X_Wifi_BLE_SDK/GD32VW55x_RELEASE_V1.0.2/MSDK/wpa_supplicant/src/crypto\crypto_internal-cipher.c **** 	struct crypto_cipher *ctx;
  34              		.loc 1 46 1
  35 000e 2E8A     		mv	s4,a1
  36 0010 B289     		mv	s3,a2
  37 0012 B684     		mv	s1,a3
  38              		.loc 1 49 8
  39 0014 97000000 		call	os_zalloc
  39      E7800000 
  40              	.LVL2:
  41 001c 2A84     		mv	s0,a0
  42              	.LVL3:
  50:C:/Users/stapi/OneDrive/Desktop/GD32VW553/V1_MQTT_OK/GD32VW55X_Wifi_BLE_SDK/GD32VW55x_RELEASE_V1.0.2/MSDK/wpa_supplicant/src/crypto\crypto_internal-cipher.c **** 	if (ctx == NULL)
  43              		.loc 1 50 2 is_stmt 1
  44              		.loc 1 50 5 is_stmt 0
  45 001e 21C5     		beq	a0,zero,.L1
  51:C:/Users/stapi/OneDrive/Desktop/GD32VW553/V1_MQTT_OK/GD32VW55X_Wifi_BLE_SDK/GD32VW55x_RELEASE_V1.0.2/MSDK/wpa_supplicant/src/crypto\crypto_internal-cipher.c **** 		return NULL;
  52:C:/Users/stapi/OneDrive/Desktop/GD32VW553/V1_MQTT_OK/GD32VW55X_Wifi_BLE_SDK/GD32VW55x_RELEASE_V1.0.2/MSDK/wpa_supplicant/src/crypto\crypto_internal-cipher.c **** 
  53:C:/Users/stapi/OneDrive/Desktop/GD32VW553/V1_MQTT_OK/GD32VW55X_Wifi_BLE_SDK/GD32VW55x_RELEASE_V1.0.2/MSDK/wpa_supplicant/src/crypto\crypto_internal-cipher.c **** 	ctx->alg = alg;
  46              		.loc 1 53 2 is_stmt 1
  47              		.loc 1 53 11 is_stmt 0
  48 0020 23202501 		sw	s2,0(a0)
  54:C:/Users/stapi/OneDrive/Desktop/GD32VW553/V1_MQTT_OK/GD32VW55X_Wifi_BLE_SDK/GD32VW55x_RELEASE_V1.0.2/MSDK/wpa_supplicant/src/crypto\crypto_internal-cipher.c **** 
  55:C:/Users/stapi/OneDrive/Desktop/GD32VW553/V1_MQTT_OK/GD32VW55X_Wifi_BLE_SDK/GD32VW55x_RELEASE_V1.0.2/MSDK/wpa_supplicant/src/crypto\crypto_internal-cipher.c **** 	switch (alg) {
  49              		.loc 1 55 2 is_stmt 1
  50 0024 8D47     		li	a5,3
  51 0026 630FF908 		beq	s2,a5,.L3
  52 002a 63EA2701 		bgtu	s2,a5,.L4
  53 002e 8547     		li	a5,1
  54 0030 6300F904 		beq	s2,a5,.L5
  55 0034 8947     		li	a5,2
  56 0036 6308F906 		beq	s2,a5,.L6
  57              	.L7:
  56:C:/Users/stapi/OneDrive/Desktop/GD32VW553/V1_MQTT_OK/GD32VW55X_Wifi_BLE_SDK/GD32VW55x_RELEASE_V1.0.2/MSDK/wpa_supplicant/src/crypto\crypto_internal-cipher.c **** 	case CRYPTO_CIPHER_ALG_RC4:
  57:C:/Users/stapi/OneDrive/Desktop/GD32VW553/V1_MQTT_OK/GD32VW55X_Wifi_BLE_SDK/GD32VW55x_RELEASE_V1.0.2/MSDK/wpa_supplicant/src/crypto\crypto_internal-cipher.c **** 		if (key_len > sizeof(ctx->u.rc4.key)) {
  58:C:/Users/stapi/OneDrive/Desktop/GD32VW553/V1_MQTT_OK/GD32VW55X_Wifi_BLE_SDK/GD32VW55x_RELEASE_V1.0.2/MSDK/wpa_supplicant/src/crypto\crypto_internal-cipher.c **** 			os_free(ctx);
  59:C:/Users/stapi/OneDrive/Desktop/GD32VW553/V1_MQTT_OK/GD32VW55X_Wifi_BLE_SDK/GD32VW55x_RELEASE_V1.0.2/MSDK/wpa_supplicant/src/crypto\crypto_internal-cipher.c **** 			return NULL;
  60:C:/Users/stapi/OneDrive/Desktop/GD32VW553/V1_MQTT_OK/GD32VW55X_Wifi_BLE_SDK/GD32VW55x_RELEASE_V1.0.2/MSDK/wpa_supplicant/src/crypto\crypto_internal-cipher.c **** 		}
  61:C:/Users/stapi/OneDrive/Desktop/GD32VW553/V1_MQTT_OK/GD32VW55X_Wifi_BLE_SDK/GD32VW55x_RELEASE_V1.0.2/MSDK/wpa_supplicant/src/crypto\crypto_internal-cipher.c **** 		ctx->u.rc4.keylen = key_len;
  62:C:/Users/stapi/OneDrive/Desktop/GD32VW553/V1_MQTT_OK/GD32VW55X_Wifi_BLE_SDK/GD32VW55x_RELEASE_V1.0.2/MSDK/wpa_supplicant/src/crypto\crypto_internal-cipher.c **** 		os_memcpy(ctx->u.rc4.key, key, key_len);
  63:C:/Users/stapi/OneDrive/Desktop/GD32VW553/V1_MQTT_OK/GD32VW55X_Wifi_BLE_SDK/GD32VW55x_RELEASE_V1.0.2/MSDK/wpa_supplicant/src/crypto\crypto_internal-cipher.c **** 		break;
  64:C:/Users/stapi/OneDrive/Desktop/GD32VW553/V1_MQTT_OK/GD32VW55X_Wifi_BLE_SDK/GD32VW55x_RELEASE_V1.0.2/MSDK/wpa_supplicant/src/crypto\crypto_internal-cipher.c **** 	case CRYPTO_CIPHER_ALG_AES:
  65:C:/Users/stapi/OneDrive/Desktop/GD32VW553/V1_MQTT_OK/GD32VW55X_Wifi_BLE_SDK/GD32VW55x_RELEASE_V1.0.2/MSDK/wpa_supplicant/src/crypto\crypto_internal-cipher.c **** 		ctx->u.aes.ctx_enc = aes_encrypt_init(key, key_len);
  66:C:/Users/stapi/OneDrive/Desktop/GD32VW553/V1_MQTT_OK/GD32VW55X_Wifi_BLE_SDK/GD32VW55x_RELEASE_V1.0.2/MSDK/wpa_supplicant/src/crypto\crypto_internal-cipher.c **** 		if (ctx->u.aes.ctx_enc == NULL) {
  67:C:/Users/stapi/OneDrive/Desktop/GD32VW553/V1_MQTT_OK/GD32VW55X_Wifi_BLE_SDK/GD32VW55x_RELEASE_V1.0.2/MSDK/wpa_supplicant/src/crypto\crypto_internal-cipher.c **** 			os_free(ctx);
  68:C:/Users/stapi/OneDrive/Desktop/GD32VW553/V1_MQTT_OK/GD32VW55X_Wifi_BLE_SDK/GD32VW55x_RELEASE_V1.0.2/MSDK/wpa_supplicant/src/crypto\crypto_internal-cipher.c **** 			return NULL;
  69:C:/Users/stapi/OneDrive/Desktop/GD32VW553/V1_MQTT_OK/GD32VW55X_Wifi_BLE_SDK/GD32VW55x_RELEASE_V1.0.2/MSDK/wpa_supplicant/src/crypto\crypto_internal-cipher.c **** 		}
  70:C:/Users/stapi/OneDrive/Desktop/GD32VW553/V1_MQTT_OK/GD32VW55X_Wifi_BLE_SDK/GD32VW55x_RELEASE_V1.0.2/MSDK/wpa_supplicant/src/crypto\crypto_internal-cipher.c **** 		ctx->u.aes.ctx_dec = aes_decrypt_init(key, key_len);
  71:C:/Users/stapi/OneDrive/Desktop/GD32VW553/V1_MQTT_OK/GD32VW55X_Wifi_BLE_SDK/GD32VW55x_RELEASE_V1.0.2/MSDK/wpa_supplicant/src/crypto\crypto_internal-cipher.c **** 		if (ctx->u.aes.ctx_dec == NULL) {
  72:C:/Users/stapi/OneDrive/Desktop/GD32VW553/V1_MQTT_OK/GD32VW55X_Wifi_BLE_SDK/GD32VW55x_RELEASE_V1.0.2/MSDK/wpa_supplicant/src/crypto\crypto_internal-cipher.c **** 			aes_encrypt_deinit(ctx->u.aes.ctx_enc);
  73:C:/Users/stapi/OneDrive/Desktop/GD32VW553/V1_MQTT_OK/GD32VW55X_Wifi_BLE_SDK/GD32VW55x_RELEASE_V1.0.2/MSDK/wpa_supplicant/src/crypto\crypto_internal-cipher.c **** 			os_free(ctx);
  74:C:/Users/stapi/OneDrive/Desktop/GD32VW553/V1_MQTT_OK/GD32VW55X_Wifi_BLE_SDK/GD32VW55x_RELEASE_V1.0.2/MSDK/wpa_supplicant/src/crypto\crypto_internal-cipher.c **** 			return NULL;
  75:C:/Users/stapi/OneDrive/Desktop/GD32VW553/V1_MQTT_OK/GD32VW55X_Wifi_BLE_SDK/GD32VW55x_RELEASE_V1.0.2/MSDK/wpa_supplicant/src/crypto\crypto_internal-cipher.c **** 		}
  76:C:/Users/stapi/OneDrive/Desktop/GD32VW553/V1_MQTT_OK/GD32VW55X_Wifi_BLE_SDK/GD32VW55x_RELEASE_V1.0.2/MSDK/wpa_supplicant/src/crypto\crypto_internal-cipher.c **** 		os_memcpy(ctx->u.aes.cbc, iv, AES_BLOCK_SIZE);
  77:C:/Users/stapi/OneDrive/Desktop/GD32VW553/V1_MQTT_OK/GD32VW55X_Wifi_BLE_SDK/GD32VW55x_RELEASE_V1.0.2/MSDK/wpa_supplicant/src/crypto\crypto_internal-cipher.c **** 		break;
  78:C:/Users/stapi/OneDrive/Desktop/GD32VW553/V1_MQTT_OK/GD32VW55X_Wifi_BLE_SDK/GD32VW55x_RELEASE_V1.0.2/MSDK/wpa_supplicant/src/crypto\crypto_internal-cipher.c **** 	case CRYPTO_CIPHER_ALG_3DES:
  79:C:/Users/stapi/OneDrive/Desktop/GD32VW553/V1_MQTT_OK/GD32VW55X_Wifi_BLE_SDK/GD32VW55x_RELEASE_V1.0.2/MSDK/wpa_supplicant/src/crypto\crypto_internal-cipher.c **** 		if (key_len != 24) {
  80:C:/Users/stapi/OneDrive/Desktop/GD32VW553/V1_MQTT_OK/GD32VW55X_Wifi_BLE_SDK/GD32VW55x_RELEASE_V1.0.2/MSDK/wpa_supplicant/src/crypto\crypto_internal-cipher.c **** 			os_free(ctx);
  81:C:/Users/stapi/OneDrive/Desktop/GD32VW553/V1_MQTT_OK/GD32VW55X_Wifi_BLE_SDK/GD32VW55x_RELEASE_V1.0.2/MSDK/wpa_supplicant/src/crypto\crypto_internal-cipher.c **** 			return NULL;
  82:C:/Users/stapi/OneDrive/Desktop/GD32VW553/V1_MQTT_OK/GD32VW55X_Wifi_BLE_SDK/GD32VW55x_RELEASE_V1.0.2/MSDK/wpa_supplicant/src/crypto\crypto_internal-cipher.c **** 		}
  83:C:/Users/stapi/OneDrive/Desktop/GD32VW553/V1_MQTT_OK/GD32VW55X_Wifi_BLE_SDK/GD32VW55x_RELEASE_V1.0.2/MSDK/wpa_supplicant/src/crypto\crypto_internal-cipher.c **** 		des3_key_setup(key, &ctx->u.des3.key);
  84:C:/Users/stapi/OneDrive/Desktop/GD32VW553/V1_MQTT_OK/GD32VW55X_Wifi_BLE_SDK/GD32VW55x_RELEASE_V1.0.2/MSDK/wpa_supplicant/src/crypto\crypto_internal-cipher.c **** 		os_memcpy(ctx->u.des3.cbc, iv, 8);
  85:C:/Users/stapi/OneDrive/Desktop/GD32VW553/V1_MQTT_OK/GD32VW55X_Wifi_BLE_SDK/GD32VW55x_RELEASE_V1.0.2/MSDK/wpa_supplicant/src/crypto\crypto_internal-cipher.c **** 		break;
  86:C:/Users/stapi/OneDrive/Desktop/GD32VW553/V1_MQTT_OK/GD32VW55X_Wifi_BLE_SDK/GD32VW55x_RELEASE_V1.0.2/MSDK/wpa_supplicant/src/crypto\crypto_internal-cipher.c **** 	case CRYPTO_CIPHER_ALG_DES:
  87:C:/Users/stapi/OneDrive/Desktop/GD32VW553/V1_MQTT_OK/GD32VW55X_Wifi_BLE_SDK/GD32VW55x_RELEASE_V1.0.2/MSDK/wpa_supplicant/src/crypto\crypto_internal-cipher.c **** 		if (key_len != 8) {
  88:C:/Users/stapi/OneDrive/Desktop/GD32VW553/V1_MQTT_OK/GD32VW55X_Wifi_BLE_SDK/GD32VW55x_RELEASE_V1.0.2/MSDK/wpa_supplicant/src/crypto\crypto_internal-cipher.c **** 			os_free(ctx);
  89:C:/Users/stapi/OneDrive/Desktop/GD32VW553/V1_MQTT_OK/GD32VW55X_Wifi_BLE_SDK/GD32VW55x_RELEASE_V1.0.2/MSDK/wpa_supplicant/src/crypto\crypto_internal-cipher.c **** 			return NULL;
  90:C:/Users/stapi/OneDrive/Desktop/GD32VW553/V1_MQTT_OK/GD32VW55X_Wifi_BLE_SDK/GD32VW55x_RELEASE_V1.0.2/MSDK/wpa_supplicant/src/crypto\crypto_internal-cipher.c **** 		}
  91:C:/Users/stapi/OneDrive/Desktop/GD32VW553/V1_MQTT_OK/GD32VW55X_Wifi_BLE_SDK/GD32VW55x_RELEASE_V1.0.2/MSDK/wpa_supplicant/src/crypto\crypto_internal-cipher.c **** 		des_key_setup(key, ctx->u.des.ek, ctx->u.des.dk);
  92:C:/Users/stapi/OneDrive/Desktop/GD32VW553/V1_MQTT_OK/GD32VW55X_Wifi_BLE_SDK/GD32VW55x_RELEASE_V1.0.2/MSDK/wpa_supplicant/src/crypto\crypto_internal-cipher.c **** 		os_memcpy(ctx->u.des.cbc, iv, 8);
  93:C:/Users/stapi/OneDrive/Desktop/GD32VW553/V1_MQTT_OK/GD32VW55X_Wifi_BLE_SDK/GD32VW55x_RELEASE_V1.0.2/MSDK/wpa_supplicant/src/crypto\crypto_internal-cipher.c **** 		break;
  94:C:/Users/stapi/OneDrive/Desktop/GD32VW553/V1_MQTT_OK/GD32VW55X_Wifi_BLE_SDK/GD32VW55x_RELEASE_V1.0.2/MSDK/wpa_supplicant/src/crypto\crypto_internal-cipher.c **** 	default:
  95:C:/Users/stapi/OneDrive/Desktop/GD32VW553/V1_MQTT_OK/GD32VW55X_Wifi_BLE_SDK/GD32VW55x_RELEASE_V1.0.2/MSDK/wpa_supplicant/src/crypto\crypto_internal-cipher.c **** 		os_free(ctx);
  58              		.loc 1 95 3
  59 003a 2285     		mv	a0,s0
  60 003c 39A0     		j	.L17
  61              	.L4:
  55:C:/Users/stapi/OneDrive/Desktop/GD32VW553/V1_MQTT_OK/GD32VW55X_Wifi_BLE_SDK/GD32VW55x_RELEASE_V1.0.2/MSDK/wpa_supplicant/src/crypto\crypto_internal-cipher.c **** 	case CRYPTO_CIPHER_ALG_RC4:
  62              		.loc 1 55 2 is_stmt 0
  63 003e 9547     		li	a5,5
  64 0040 E31DF9FE 		bne	s2,a5,.L7
  57:C:/Users/stapi/OneDrive/Desktop/GD32VW553/V1_MQTT_OK/GD32VW55X_Wifi_BLE_SDK/GD32VW55x_RELEASE_V1.0.2/MSDK/wpa_supplicant/src/crypto\crypto_internal-cipher.c **** 			os_free(ctx);
  65              		.loc 1 57 3 is_stmt 1
  57:C:/Users/stapi/OneDrive/Desktop/GD32VW553/V1_MQTT_OK/GD32VW55X_Wifi_BLE_SDK/GD32VW55x_RELEASE_V1.0.2/MSDK/wpa_supplicant/src/crypto\crypto_internal-cipher.c **** 			os_free(ctx);
  66              		.loc 1 57 6 is_stmt 0
  67 0044 C147     		li	a5,16
  68 0046 63F89700 		bleu	s1,a5,.L8
  69              	.L17:
  70              		.loc 1 95 3
  71 004a 97000000 		call	os_free
  71      E7800000 
  72              	.LVL4:
  96:C:/Users/stapi/OneDrive/Desktop/GD32VW553/V1_MQTT_OK/GD32VW55X_Wifi_BLE_SDK/GD32VW55x_RELEASE_V1.0.2/MSDK/wpa_supplicant/src/crypto\crypto_internal-cipher.c **** 		return NULL;
  73              		.loc 1 96 3 is_stmt 1
  74              		.loc 1 96 10 is_stmt 0
  75 0052 0144     		li	s0,0
  76              	.LVL5:
  77 0054 09A8     		j	.L1
  78              	.LVL6:
  79              	.L8:
  61:C:/Users/stapi/OneDrive/Desktop/GD32VW553/V1_MQTT_OK/GD32VW55X_Wifi_BLE_SDK/GD32VW55x_RELEASE_V1.0.2/MSDK/wpa_supplicant/src/crypto\crypto_internal-cipher.c **** 		os_memcpy(ctx->u.rc4.key, key, key_len);
  80              		.loc 1 61 3 is_stmt 1
  61:C:/Users/stapi/OneDrive/Desktop/GD32VW553/V1_MQTT_OK/GD32VW55X_Wifi_BLE_SDK/GD32VW55x_RELEASE_V1.0.2/MSDK/wpa_supplicant/src/crypto\crypto_internal-cipher.c **** 		os_memcpy(ctx->u.rc4.key, key, key_len);
  81              		.loc 1 61 21 is_stmt 0
  82 0056 04CD     		sw	s1,24(a0)
  62:C:/Users/stapi/OneDrive/Desktop/GD32VW553/V1_MQTT_OK/GD32VW55X_Wifi_BLE_SDK/GD32VW55x_RELEASE_V1.0.2/MSDK/wpa_supplicant/src/crypto\crypto_internal-cipher.c **** 		break;
  83              		.loc 1 62 3 is_stmt 1
  84 0058 2686     		mv	a2,s1
  85 005a CE85     		mv	a1,s3
  86 005c 2105     		addi	a0,a0,8
  87              	.L18:
  92:C:/Users/stapi/OneDrive/Desktop/GD32VW553/V1_MQTT_OK/GD32VW55X_Wifi_BLE_SDK/GD32VW55x_RELEASE_V1.0.2/MSDK/wpa_supplicant/src/crypto\crypto_internal-cipher.c **** 		break;
  88              		.loc 1 92 3 is_stmt 0
  89 005e 97000000 		call	os_memcpy
  89      E7800000 
  90              	.LVL7:
  93:C:/Users/stapi/OneDrive/Desktop/GD32VW553/V1_MQTT_OK/GD32VW55X_Wifi_BLE_SDK/GD32VW55x_RELEASE_V1.0.2/MSDK/wpa_supplicant/src/crypto\crypto_internal-cipher.c **** 	default:
  91              		.loc 1 93 3 is_stmt 1
  92              	.L1:
  97:C:/Users/stapi/OneDrive/Desktop/GD32VW553/V1_MQTT_OK/GD32VW55X_Wifi_BLE_SDK/GD32VW55x_RELEASE_V1.0.2/MSDK/wpa_supplicant/src/crypto\crypto_internal-cipher.c **** 	}
  98:C:/Users/stapi/OneDrive/Desktop/GD32VW553/V1_MQTT_OK/GD32VW55X_Wifi_BLE_SDK/GD32VW55x_RELEASE_V1.0.2/MSDK/wpa_supplicant/src/crypto\crypto_internal-cipher.c **** 
  99:C:/Users/stapi/OneDrive/Desktop/GD32VW553/V1_MQTT_OK/GD32VW55X_Wifi_BLE_SDK/GD32VW55x_RELEASE_V1.0.2/MSDK/wpa_supplicant/src/crypto\crypto_internal-cipher.c **** 	return ctx;
 100:C:/Users/stapi/OneDrive/Desktop/GD32VW553/V1_MQTT_OK/GD32VW55X_Wifi_BLE_SDK/GD32VW55x_RELEASE_V1.0.2/MSDK/wpa_supplicant/src/crypto\crypto_internal-cipher.c **** }
  93              		.loc 1 100 1 is_stmt 0
  94 0066 2285     		mv	a0,s0
  95 0068 17030000 		tail	__riscv_restore_5
  95      67000300 
  96              		.cfi_remember_state
  97              		.cfi_restore 20
  98              		.cfi_restore 19
  99              		.cfi_restore 18
 100              		.cfi_restore 9
 101              		.cfi_restore 8
 102              		.cfi_restore 1
 103              		.cfi_def_cfa_offset 0
 104              	.LVL8:
 105              	.L5:
 106              		.cfi_restore_state
  65:C:/Users/stapi/OneDrive/Desktop/GD32VW553/V1_MQTT_OK/GD32VW55X_Wifi_BLE_SDK/GD32VW55x_RELEASE_V1.0.2/MSDK/wpa_supplicant/src/crypto\crypto_internal-cipher.c **** 		if (ctx->u.aes.ctx_enc == NULL) {
 107              		.loc 1 65 3 is_stmt 1
  65:C:/Users/stapi/OneDrive/Desktop/GD32VW553/V1_MQTT_OK/GD32VW55X_Wifi_BLE_SDK/GD32VW55x_RELEASE_V1.0.2/MSDK/wpa_supplicant/src/crypto\crypto_internal-cipher.c **** 		if (ctx->u.aes.ctx_enc == NULL) {
 108              		.loc 1 65 24 is_stmt 0
 109 0070 A685     		mv	a1,s1
 110 0072 4E85     		mv	a0,s3
 111 0074 97000000 		call	aes_encrypt_init
 111      E7800000 
 112              	.LVL9:
  65:C:/Users/stapi/OneDrive/Desktop/GD32VW553/V1_MQTT_OK/GD32VW55X_Wifi_BLE_SDK/GD32VW55x_RELEASE_V1.0.2/MSDK/wpa_supplicant/src/crypto\crypto_internal-cipher.c **** 		if (ctx->u.aes.ctx_enc == NULL) {
 113              		.loc 1 65 22
 114 007c 48D0     		sw	a0,36(s0)
  66:C:/Users/stapi/OneDrive/Desktop/GD32VW553/V1_MQTT_OK/GD32VW55X_Wifi_BLE_SDK/GD32VW55x_RELEASE_V1.0.2/MSDK/wpa_supplicant/src/crypto\crypto_internal-cipher.c **** 			os_free(ctx);
 115              		.loc 1 66 3 is_stmt 1
  66:C:/Users/stapi/OneDrive/Desktop/GD32VW553/V1_MQTT_OK/GD32VW55X_Wifi_BLE_SDK/GD32VW55x_RELEASE_V1.0.2/MSDK/wpa_supplicant/src/crypto\crypto_internal-cipher.c **** 			os_free(ctx);
 116              		.loc 1 66 6 is_stmt 0
 117 007e 55DD     		beq	a0,zero,.L7
  70:C:/Users/stapi/OneDrive/Desktop/GD32VW553/V1_MQTT_OK/GD32VW55X_Wifi_BLE_SDK/GD32VW55x_RELEASE_V1.0.2/MSDK/wpa_supplicant/src/crypto\crypto_internal-cipher.c **** 		if (ctx->u.aes.ctx_dec == NULL) {
 118              		.loc 1 70 3 is_stmt 1
  70:C:/Users/stapi/OneDrive/Desktop/GD32VW553/V1_MQTT_OK/GD32VW55X_Wifi_BLE_SDK/GD32VW55x_RELEASE_V1.0.2/MSDK/wpa_supplicant/src/crypto\crypto_internal-cipher.c **** 		if (ctx->u.aes.ctx_dec == NULL) {
 119              		.loc 1 70 24 is_stmt 0
 120 0080 A685     		mv	a1,s1
 121 0082 4E85     		mv	a0,s3
 122 0084 97000000 		call	aes_decrypt_init
 122      E7800000 
 123              	.LVL10:
  70:C:/Users/stapi/OneDrive/Desktop/GD32VW553/V1_MQTT_OK/GD32VW55X_Wifi_BLE_SDK/GD32VW55x_RELEASE_V1.0.2/MSDK/wpa_supplicant/src/crypto\crypto_internal-cipher.c **** 		if (ctx->u.aes.ctx_dec == NULL) {
 124              		.loc 1 70 22
 125 008c 08D4     		sw	a0,40(s0)
  71:C:/Users/stapi/OneDrive/Desktop/GD32VW553/V1_MQTT_OK/GD32VW55X_Wifi_BLE_SDK/GD32VW55x_RELEASE_V1.0.2/MSDK/wpa_supplicant/src/crypto\crypto_internal-cipher.c **** 			aes_encrypt_deinit(ctx->u.aes.ctx_enc);
 126              		.loc 1 71 3 is_stmt 1
  71:C:/Users/stapi/OneDrive/Desktop/GD32VW553/V1_MQTT_OK/GD32VW55X_Wifi_BLE_SDK/GD32VW55x_RELEASE_V1.0.2/MSDK/wpa_supplicant/src/crypto\crypto_internal-cipher.c **** 			aes_encrypt_deinit(ctx->u.aes.ctx_enc);
 127              		.loc 1 71 6 is_stmt 0
 128 008e 19E5     		bne	a0,zero,.L10
  72:C:/Users/stapi/OneDrive/Desktop/GD32VW553/V1_MQTT_OK/GD32VW55X_Wifi_BLE_SDK/GD32VW55x_RELEASE_V1.0.2/MSDK/wpa_supplicant/src/crypto\crypto_internal-cipher.c **** 			os_free(ctx);
 129              		.loc 1 72 4 is_stmt 1
 130 0090 4850     		lw	a0,36(s0)
 131 0092 97000000 		call	aes_encrypt_deinit
 131      E7800000 
 132              	.LVL11:
  73:C:/Users/stapi/OneDrive/Desktop/GD32VW553/V1_MQTT_OK/GD32VW55X_Wifi_BLE_SDK/GD32VW55x_RELEASE_V1.0.2/MSDK/wpa_supplicant/src/crypto\crypto_internal-cipher.c **** 			return NULL;
 133              		.loc 1 73 4
 134 009a 45B7     		j	.L7
 135              	.L10:
  76:C:/Users/stapi/OneDrive/Desktop/GD32VW553/V1_MQTT_OK/GD32VW55X_Wifi_BLE_SDK/GD32VW55x_RELEASE_V1.0.2/MSDK/wpa_supplicant/src/crypto\crypto_internal-cipher.c **** 		break;
 136              		.loc 1 76 3
 137 009c 4146     		li	a2,16
 138 009e D285     		mv	a1,s4
 139 00a0 13054400 		addi	a0,s0,4
 140 00a4 6DBF     		j	.L18
 141              	.L6:
  79:C:/Users/stapi/OneDrive/Desktop/GD32VW553/V1_MQTT_OK/GD32VW55X_Wifi_BLE_SDK/GD32VW55x_RELEASE_V1.0.2/MSDK/wpa_supplicant/src/crypto\crypto_internal-cipher.c **** 			os_free(ctx);
 142              		.loc 1 79 3
  79:C:/Users/stapi/OneDrive/Desktop/GD32VW553/V1_MQTT_OK/GD32VW55X_Wifi_BLE_SDK/GD32VW55x_RELEASE_V1.0.2/MSDK/wpa_supplicant/src/crypto\crypto_internal-cipher.c **** 			os_free(ctx);
 143              		.loc 1 79 6 is_stmt 0
 144 00a6 E147     		li	a5,24
 145 00a8 E391F4FA 		bne	s1,a5,.L17
  83:C:/Users/stapi/OneDrive/Desktop/GD32VW553/V1_MQTT_OK/GD32VW55X_Wifi_BLE_SDK/GD32VW55x_RELEASE_V1.0.2/MSDK/wpa_supplicant/src/crypto\crypto_internal-cipher.c **** 		os_memcpy(ctx->u.des3.cbc, iv, 8);
 146              		.loc 1 83 3 is_stmt 1
 147 00ac 93054500 		addi	a1,a0,4
 148 00b0 4E85     		mv	a0,s3
 149 00b2 97000000 		call	des3_key_setup
 149      E7800000 
 150              	.LVL12:
  84:C:/Users/stapi/OneDrive/Desktop/GD32VW553/V1_MQTT_OK/GD32VW55X_Wifi_BLE_SDK/GD32VW55x_RELEASE_V1.0.2/MSDK/wpa_supplicant/src/crypto\crypto_internal-cipher.c **** 		break;
 151              		.loc 1 84 3
 152 00ba 2146     		li	a2,8
 153 00bc D285     		mv	a1,s4
 154 00be 13054430 		addi	a0,s0,772
 155 00c2 71BF     		j	.L18
 156              	.L3:
  87:C:/Users/stapi/OneDrive/Desktop/GD32VW553/V1_MQTT_OK/GD32VW55X_Wifi_BLE_SDK/GD32VW55x_RELEASE_V1.0.2/MSDK/wpa_supplicant/src/crypto\crypto_internal-cipher.c **** 			os_free(ctx);
 157              		.loc 1 87 3
  87:C:/Users/stapi/OneDrive/Desktop/GD32VW553/V1_MQTT_OK/GD32VW55X_Wifi_BLE_SDK/GD32VW55x_RELEASE_V1.0.2/MSDK/wpa_supplicant/src/crypto\crypto_internal-cipher.c **** 			os_free(ctx);
 158              		.loc 1 87 6 is_stmt 0
 159 00c4 A147     		li	a5,8
 160 00c6 E392F4F8 		bne	s1,a5,.L17
  91:C:/Users/stapi/OneDrive/Desktop/GD32VW553/V1_MQTT_OK/GD32VW55X_Wifi_BLE_SDK/GD32VW55x_RELEASE_V1.0.2/MSDK/wpa_supplicant/src/crypto\crypto_internal-cipher.c **** 		os_memcpy(ctx->u.des.cbc, iv, 8);
 161              		.loc 1 91 3 is_stmt 1
 162 00ca 13064508 		addi	a2,a0,132
 163 00ce 93054500 		addi	a1,a0,4
 164 00d2 4E85     		mv	a0,s3
 165 00d4 97000000 		call	des_key_setup
 165      E7800000 
 166              	.LVL13:
  92:C:/Users/stapi/OneDrive/Desktop/GD32VW553/V1_MQTT_OK/GD32VW55X_Wifi_BLE_SDK/GD32VW55x_RELEASE_V1.0.2/MSDK/wpa_supplicant/src/crypto\crypto_internal-cipher.c **** 		break;
 167              		.loc 1 92 3
 168 00dc 2146     		li	a2,8
 169 00de D285     		mv	a1,s4
 170 00e0 13054410 		addi	a0,s0,260
 171 00e4 ADBF     		j	.L18
 172              		.cfi_endproc
 173              	.LFE71:
 175              		.section	.text.crypto_cipher_encrypt,"ax",@progbits
 176              		.align	1
 177              		.globl	crypto_cipher_encrypt
 179              	crypto_cipher_encrypt:
 180              	.LFB72:
 101:C:/Users/stapi/OneDrive/Desktop/GD32VW553/V1_MQTT_OK/GD32VW55X_Wifi_BLE_SDK/GD32VW55x_RELEASE_V1.0.2/MSDK/wpa_supplicant/src/crypto\crypto_internal-cipher.c **** 
 102:C:/Users/stapi/OneDrive/Desktop/GD32VW553/V1_MQTT_OK/GD32VW55X_Wifi_BLE_SDK/GD32VW55x_RELEASE_V1.0.2/MSDK/wpa_supplicant/src/crypto\crypto_internal-cipher.c **** 
 103:C:/Users/stapi/OneDrive/Desktop/GD32VW553/V1_MQTT_OK/GD32VW55X_Wifi_BLE_SDK/GD32VW55x_RELEASE_V1.0.2/MSDK/wpa_supplicant/src/crypto\crypto_internal-cipher.c **** int crypto_cipher_encrypt(struct crypto_cipher *ctx, const u8 *plain,
 104:C:/Users/stapi/OneDrive/Desktop/GD32VW553/V1_MQTT_OK/GD32VW55X_Wifi_BLE_SDK/GD32VW55x_RELEASE_V1.0.2/MSDK/wpa_supplicant/src/crypto\crypto_internal-cipher.c **** 			  u8 *crypt, size_t len)
 105:C:/Users/stapi/OneDrive/Desktop/GD32VW553/V1_MQTT_OK/GD32VW55X_Wifi_BLE_SDK/GD32VW55x_RELEASE_V1.0.2/MSDK/wpa_supplicant/src/crypto\crypto_internal-cipher.c **** {
 181              		.loc 1 105 1
 182              		.cfi_startproc
 183              	.LVL14:
 184 0000 17030000 		call	t0,__riscv_save_9
 184      E7020300 
 185              		.cfi_offset 24, -40
 186              		.cfi_offset 23, -36
 187              		.cfi_offset 22, -32
 188              		.cfi_offset 21, -28
 189              		.cfi_offset 20, -24
 190              		.cfi_offset 19, -20
 191              		.cfi_offset 18, -16
 192              		.cfi_offset 9, -12
 193              		.cfi_offset 8, -8
 194              		.cfi_offset 1, -4
 195              		.cfi_def_cfa_offset 48
 106:C:/Users/stapi/OneDrive/Desktop/GD32VW553/V1_MQTT_OK/GD32VW55X_Wifi_BLE_SDK/GD32VW55x_RELEASE_V1.0.2/MSDK/wpa_supplicant/src/crypto\crypto_internal-cipher.c **** 	size_t i, j, blocks;
 196              		.loc 1 106 2
 107:C:/Users/stapi/OneDrive/Desktop/GD32VW553/V1_MQTT_OK/GD32VW55X_Wifi_BLE_SDK/GD32VW55x_RELEASE_V1.0.2/MSDK/wpa_supplicant/src/crypto\crypto_internal-cipher.c **** 
 108:C:/Users/stapi/OneDrive/Desktop/GD32VW553/V1_MQTT_OK/GD32VW55X_Wifi_BLE_SDK/GD32VW55x_RELEASE_V1.0.2/MSDK/wpa_supplicant/src/crypto\crypto_internal-cipher.c **** 	switch (ctx->alg) {
 197              		.loc 1 108 2
 198              		.loc 1 108 13 is_stmt 0
 199 0008 1C41     		lw	a5,0(a0)
 200              		.loc 1 108 2
 201 000a 0D47     		li	a4,3
 105:C:/Users/stapi/OneDrive/Desktop/GD32VW553/V1_MQTT_OK/GD32VW55X_Wifi_BLE_SDK/GD32VW55x_RELEASE_V1.0.2/MSDK/wpa_supplicant/src/crypto\crypto_internal-cipher.c **** 	size_t i, j, blocks;
 202              		.loc 1 105 1
 203 000c 4111     		addi	sp,sp,-16
 204              		.cfi_def_cfa_offset 64
 105:C:/Users/stapi/OneDrive/Desktop/GD32VW553/V1_MQTT_OK/GD32VW55X_Wifi_BLE_SDK/GD32VW55x_RELEASE_V1.0.2/MSDK/wpa_supplicant/src/crypto\crypto_internal-cipher.c **** 	size_t i, j, blocks;
 205              		.loc 1 105 1
 206 000e AA84     		mv	s1,a0
 207 0010 AE89     		mv	s3,a1
 208 0012 3289     		mv	s2,a2
 209 0014 3684     		mv	s0,a3
 210              		.loc 1 108 2
 211 0016 638AE710 		beq	a5,a4,.L20
 212 001a 636AF706 		bgtu	a5,a4,.L21
 213 001e 0547     		li	a4,1
 214 0020 6386E70A 		beq	a5,a4,.L22
 215 0024 0947     		li	a4,2
 216 0026 7D55     		li	a0,-1
 217              	.LVL15:
 218 0028 639DE708 		bne	a5,a4,.L19
 109:C:/Users/stapi/OneDrive/Desktop/GD32VW553/V1_MQTT_OK/GD32VW55X_Wifi_BLE_SDK/GD32VW55x_RELEASE_V1.0.2/MSDK/wpa_supplicant/src/crypto\crypto_internal-cipher.c **** 	case CRYPTO_CIPHER_ALG_RC4:
 110:C:/Users/stapi/OneDrive/Desktop/GD32VW553/V1_MQTT_OK/GD32VW55X_Wifi_BLE_SDK/GD32VW55x_RELEASE_V1.0.2/MSDK/wpa_supplicant/src/crypto\crypto_internal-cipher.c **** 		if (plain != crypt)
 111:C:/Users/stapi/OneDrive/Desktop/GD32VW553/V1_MQTT_OK/GD32VW55X_Wifi_BLE_SDK/GD32VW55x_RELEASE_V1.0.2/MSDK/wpa_supplicant/src/crypto\crypto_internal-cipher.c **** 			os_memcpy(crypt, plain, len);
 112:C:/Users/stapi/OneDrive/Desktop/GD32VW553/V1_MQTT_OK/GD32VW55X_Wifi_BLE_SDK/GD32VW55x_RELEASE_V1.0.2/MSDK/wpa_supplicant/src/crypto\crypto_internal-cipher.c **** 		rc4_skip(ctx->u.rc4.key, ctx->u.rc4.keylen,
 113:C:/Users/stapi/OneDrive/Desktop/GD32VW553/V1_MQTT_OK/GD32VW55X_Wifi_BLE_SDK/GD32VW55x_RELEASE_V1.0.2/MSDK/wpa_supplicant/src/crypto\crypto_internal-cipher.c **** 			 ctx->u.rc4.used_bytes, crypt, len);
 114:C:/Users/stapi/OneDrive/Desktop/GD32VW553/V1_MQTT_OK/GD32VW55X_Wifi_BLE_SDK/GD32VW55x_RELEASE_V1.0.2/MSDK/wpa_supplicant/src/crypto\crypto_internal-cipher.c **** 		ctx->u.rc4.used_bytes += len;
 115:C:/Users/stapi/OneDrive/Desktop/GD32VW553/V1_MQTT_OK/GD32VW55X_Wifi_BLE_SDK/GD32VW55x_RELEASE_V1.0.2/MSDK/wpa_supplicant/src/crypto\crypto_internal-cipher.c **** 		break;
 116:C:/Users/stapi/OneDrive/Desktop/GD32VW553/V1_MQTT_OK/GD32VW55X_Wifi_BLE_SDK/GD32VW55x_RELEASE_V1.0.2/MSDK/wpa_supplicant/src/crypto\crypto_internal-cipher.c **** 	case CRYPTO_CIPHER_ALG_AES:
 117:C:/Users/stapi/OneDrive/Desktop/GD32VW553/V1_MQTT_OK/GD32VW55X_Wifi_BLE_SDK/GD32VW55x_RELEASE_V1.0.2/MSDK/wpa_supplicant/src/crypto\crypto_internal-cipher.c **** 		if (len % AES_BLOCK_SIZE)
 118:C:/Users/stapi/OneDrive/Desktop/GD32VW553/V1_MQTT_OK/GD32VW55X_Wifi_BLE_SDK/GD32VW55x_RELEASE_V1.0.2/MSDK/wpa_supplicant/src/crypto\crypto_internal-cipher.c **** 			return -1;
 119:C:/Users/stapi/OneDrive/Desktop/GD32VW553/V1_MQTT_OK/GD32VW55X_Wifi_BLE_SDK/GD32VW55x_RELEASE_V1.0.2/MSDK/wpa_supplicant/src/crypto\crypto_internal-cipher.c **** 		blocks = len / AES_BLOCK_SIZE;
 120:C:/Users/stapi/OneDrive/Desktop/GD32VW553/V1_MQTT_OK/GD32VW55X_Wifi_BLE_SDK/GD32VW55x_RELEASE_V1.0.2/MSDK/wpa_supplicant/src/crypto\crypto_internal-cipher.c **** 		for (i = 0; i < blocks; i++) {
 121:C:/Users/stapi/OneDrive/Desktop/GD32VW553/V1_MQTT_OK/GD32VW55X_Wifi_BLE_SDK/GD32VW55x_RELEASE_V1.0.2/MSDK/wpa_supplicant/src/crypto\crypto_internal-cipher.c **** 			for (j = 0; j < AES_BLOCK_SIZE; j++)
 122:C:/Users/stapi/OneDrive/Desktop/GD32VW553/V1_MQTT_OK/GD32VW55X_Wifi_BLE_SDK/GD32VW55x_RELEASE_V1.0.2/MSDK/wpa_supplicant/src/crypto\crypto_internal-cipher.c **** 				ctx->u.aes.cbc[j] ^= plain[j];
 123:C:/Users/stapi/OneDrive/Desktop/GD32VW553/V1_MQTT_OK/GD32VW55X_Wifi_BLE_SDK/GD32VW55x_RELEASE_V1.0.2/MSDK/wpa_supplicant/src/crypto\crypto_internal-cipher.c **** 			aes_encrypt(ctx->u.aes.ctx_enc, ctx->u.aes.cbc,
 124:C:/Users/stapi/OneDrive/Desktop/GD32VW553/V1_MQTT_OK/GD32VW55X_Wifi_BLE_SDK/GD32VW55x_RELEASE_V1.0.2/MSDK/wpa_supplicant/src/crypto\crypto_internal-cipher.c **** 				    ctx->u.aes.cbc);
 125:C:/Users/stapi/OneDrive/Desktop/GD32VW553/V1_MQTT_OK/GD32VW55X_Wifi_BLE_SDK/GD32VW55x_RELEASE_V1.0.2/MSDK/wpa_supplicant/src/crypto\crypto_internal-cipher.c **** 			os_memcpy(crypt, ctx->u.aes.cbc, AES_BLOCK_SIZE);
 126:C:/Users/stapi/OneDrive/Desktop/GD32VW553/V1_MQTT_OK/GD32VW55X_Wifi_BLE_SDK/GD32VW55x_RELEASE_V1.0.2/MSDK/wpa_supplicant/src/crypto\crypto_internal-cipher.c **** 			plain += AES_BLOCK_SIZE;
 127:C:/Users/stapi/OneDrive/Desktop/GD32VW553/V1_MQTT_OK/GD32VW55X_Wifi_BLE_SDK/GD32VW55x_RELEASE_V1.0.2/MSDK/wpa_supplicant/src/crypto\crypto_internal-cipher.c **** 			crypt += AES_BLOCK_SIZE;
 128:C:/Users/stapi/OneDrive/Desktop/GD32VW553/V1_MQTT_OK/GD32VW55X_Wifi_BLE_SDK/GD32VW55x_RELEASE_V1.0.2/MSDK/wpa_supplicant/src/crypto\crypto_internal-cipher.c **** 		}
 129:C:/Users/stapi/OneDrive/Desktop/GD32VW553/V1_MQTT_OK/GD32VW55X_Wifi_BLE_SDK/GD32VW55x_RELEASE_V1.0.2/MSDK/wpa_supplicant/src/crypto\crypto_internal-cipher.c **** 		break;
 130:C:/Users/stapi/OneDrive/Desktop/GD32VW553/V1_MQTT_OK/GD32VW55X_Wifi_BLE_SDK/GD32VW55x_RELEASE_V1.0.2/MSDK/wpa_supplicant/src/crypto\crypto_internal-cipher.c **** 	case CRYPTO_CIPHER_ALG_3DES:
 131:C:/Users/stapi/OneDrive/Desktop/GD32VW553/V1_MQTT_OK/GD32VW55X_Wifi_BLE_SDK/GD32VW55x_RELEASE_V1.0.2/MSDK/wpa_supplicant/src/crypto\crypto_internal-cipher.c **** 		if (len % 8)
 219              		.loc 1 131 3 is_stmt 1
 220              		.loc 1 131 11 is_stmt 0
 221 002c 93F77600 		andi	a5,a3,7
 118:C:/Users/stapi/OneDrive/Desktop/GD32VW553/V1_MQTT_OK/GD32VW55X_Wifi_BLE_SDK/GD32VW55x_RELEASE_V1.0.2/MSDK/wpa_supplicant/src/crypto\crypto_internal-cipher.c **** 		blocks = len / AES_BLOCK_SIZE;
 222              		.loc 1 118 11
 223 0030 7D55     		li	a0,-1
 224              		.loc 1 131 6
 225 0032 C1EB     		bne	a5,zero,.L19
 132:C:/Users/stapi/OneDrive/Desktop/GD32VW553/V1_MQTT_OK/GD32VW55X_Wifi_BLE_SDK/GD32VW55x_RELEASE_V1.0.2/MSDK/wpa_supplicant/src/crypto\crypto_internal-cipher.c **** 			return -1;
 133:C:/Users/stapi/OneDrive/Desktop/GD32VW553/V1_MQTT_OK/GD32VW55X_Wifi_BLE_SDK/GD32VW55x_RELEASE_V1.0.2/MSDK/wpa_supplicant/src/crypto\crypto_internal-cipher.c **** 		blocks = len / 8;
 226              		.loc 1 133 3 is_stmt 1
 227              	.LVL16:
 134:C:/Users/stapi/OneDrive/Desktop/GD32VW553/V1_MQTT_OK/GD32VW55X_Wifi_BLE_SDK/GD32VW55x_RELEASE_V1.0.2/MSDK/wpa_supplicant/src/crypto\crypto_internal-cipher.c **** 		for (i = 0; i < blocks; i++) {
 228              		.loc 1 134 3
 229 0034 13F486FF 		andi	s0,a3,-8
 230 0038 014A     		li	s4,0
 135:C:/Users/stapi/OneDrive/Desktop/GD32VW553/V1_MQTT_OK/GD32VW55X_Wifi_BLE_SDK/GD32VW55x_RELEASE_V1.0.2/MSDK/wpa_supplicant/src/crypto\crypto_internal-cipher.c **** 			for (j = 0; j < 8; j++)
 231              		.loc 1 135 4 is_stmt 0
 232 003a A14B     		li	s7,8
 136:C:/Users/stapi/OneDrive/Desktop/GD32VW553/V1_MQTT_OK/GD32VW55X_Wifi_BLE_SDK/GD32VW55x_RELEASE_V1.0.2/MSDK/wpa_supplicant/src/crypto\crypto_internal-cipher.c **** 				ctx->u.des3.cbc[j] ^= plain[j];
 137:C:/Users/stapi/OneDrive/Desktop/GD32VW553/V1_MQTT_OK/GD32VW55X_Wifi_BLE_SDK/GD32VW55x_RELEASE_V1.0.2/MSDK/wpa_supplicant/src/crypto\crypto_internal-cipher.c **** 			des3_encrypt(ctx->u.des3.cbc, &ctx->u.des3.key,
 233              		.loc 1 137 34
 234 003c 138C4400 		addi	s8,s1,4
 235              	.LVL17:
 236              	.L29:
 237 0040 33864901 		add	a2,s3,s4
 238 0044 330B4901 		add	s6,s2,s4
 239              	.LVL18:
 134:C:/Users/stapi/OneDrive/Desktop/GD32VW553/V1_MQTT_OK/GD32VW55X_Wifi_BLE_SDK/GD32VW55x_RELEASE_V1.0.2/MSDK/wpa_supplicant/src/crypto\crypto_internal-cipher.c **** 			for (j = 0; j < 8; j++)
 240              		.loc 1 134 15 is_stmt 1 discriminator 1
 134:C:/Users/stapi/OneDrive/Desktop/GD32VW553/V1_MQTT_OK/GD32VW55X_Wifi_BLE_SDK/GD32VW55x_RELEASE_V1.0.2/MSDK/wpa_supplicant/src/crypto\crypto_internal-cipher.c **** 			for (j = 0; j < 8; j++)
 241              		.loc 1 134 3 is_stmt 0 discriminator 1
 242 0048 630C8A06 		beq	s4,s0,.L32
 243 004c 93874430 		addi	a5,s1,772
 135:C:/Users/stapi/OneDrive/Desktop/GD32VW553/V1_MQTT_OK/GD32VW55X_Wifi_BLE_SDK/GD32VW55x_RELEASE_V1.0.2/MSDK/wpa_supplicant/src/crypto\crypto_internal-cipher.c **** 			for (j = 0; j < 8; j++)
 244              		.loc 1 135 11
 245 0050 0147     		li	a4,0
 246 0052 BE8A     		mv	s5,a5
 247              	.L30:
 248              	.LVL19:
 136:C:/Users/stapi/OneDrive/Desktop/GD32VW553/V1_MQTT_OK/GD32VW55X_Wifi_BLE_SDK/GD32VW55x_RELEASE_V1.0.2/MSDK/wpa_supplicant/src/crypto\crypto_internal-cipher.c **** 				ctx->u.des3.cbc[j] ^= plain[j];
 249              		.loc 1 136 5 is_stmt 1 discriminator 3
 136:C:/Users/stapi/OneDrive/Desktop/GD32VW553/V1_MQTT_OK/GD32VW55X_Wifi_BLE_SDK/GD32VW55x_RELEASE_V1.0.2/MSDK/wpa_supplicant/src/crypto\crypto_internal-cipher.c **** 				ctx->u.des3.cbc[j] ^= plain[j];
 250              		.loc 1 136 32 is_stmt 0 discriminator 3
 251 0054 B306E600 		add	a3,a2,a4
 136:C:/Users/stapi/OneDrive/Desktop/GD32VW553/V1_MQTT_OK/GD32VW55X_Wifi_BLE_SDK/GD32VW55x_RELEASE_V1.0.2/MSDK/wpa_supplicant/src/crypto\crypto_internal-cipher.c **** 				ctx->u.des3.cbc[j] ^= plain[j];
 252              		.loc 1 136 24 discriminator 3
 253 0058 83C50700 		lbu	a1,0(a5)
 254 005c 83C60600 		lbu	a3,0(a3)
 135:C:/Users/stapi/OneDrive/Desktop/GD32VW553/V1_MQTT_OK/GD32VW55X_Wifi_BLE_SDK/GD32VW55x_RELEASE_V1.0.2/MSDK/wpa_supplicant/src/crypto\crypto_internal-cipher.c **** 			for (j = 0; j < 8; j++)
 255              		.loc 1 135 24 discriminator 3
 256 0060 0507     		addi	a4,a4,1
 257              	.LVL20:
 135:C:/Users/stapi/OneDrive/Desktop/GD32VW553/V1_MQTT_OK/GD32VW55X_Wifi_BLE_SDK/GD32VW55x_RELEASE_V1.0.2/MSDK/wpa_supplicant/src/crypto\crypto_internal-cipher.c **** 			for (j = 0; j < 8; j++)
 258              		.loc 1 135 4 discriminator 3
 259 0062 8507     		addi	a5,a5,1
 136:C:/Users/stapi/OneDrive/Desktop/GD32VW553/V1_MQTT_OK/GD32VW55X_Wifi_BLE_SDK/GD32VW55x_RELEASE_V1.0.2/MSDK/wpa_supplicant/src/crypto\crypto_internal-cipher.c **** 				ctx->u.des3.cbc[j] ^= plain[j];
 260              		.loc 1 136 24 discriminator 3
 261 0064 AD8E     		xor	a3,a3,a1
 262 0066 A38FD7FE 		sb	a3,-1(a5)
 135:C:/Users/stapi/OneDrive/Desktop/GD32VW553/V1_MQTT_OK/GD32VW55X_Wifi_BLE_SDK/GD32VW55x_RELEASE_V1.0.2/MSDK/wpa_supplicant/src/crypto\crypto_internal-cipher.c **** 			for (j = 0; j < 8; j++)
 263              		.loc 1 135 23 is_stmt 1 discriminator 3
 264              	.LVL21:
 135:C:/Users/stapi/OneDrive/Desktop/GD32VW553/V1_MQTT_OK/GD32VW55X_Wifi_BLE_SDK/GD32VW55x_RELEASE_V1.0.2/MSDK/wpa_supplicant/src/crypto\crypto_internal-cipher.c **** 			for (j = 0; j < 8; j++)
 265              		.loc 1 135 16 discriminator 3
 135:C:/Users/stapi/OneDrive/Desktop/GD32VW553/V1_MQTT_OK/GD32VW55X_Wifi_BLE_SDK/GD32VW55x_RELEASE_V1.0.2/MSDK/wpa_supplicant/src/crypto\crypto_internal-cipher.c **** 			for (j = 0; j < 8; j++)
 266              		.loc 1 135 4 is_stmt 0 discriminator 3
 267 006a E31577FF 		bne	a4,s7,.L30
 268              		.loc 1 137 4 is_stmt 1 discriminator 2
 269 006e 5686     		mv	a2,s5
 270              	.LVL22:
 271 0070 E285     		mv	a1,s8
 272 0072 5685     		mv	a0,s5
 273 0074 97000000 		call	des3_encrypt
 273      E7800000 
 274              	.LVL23:
 138:C:/Users/stapi/OneDrive/Desktop/GD32VW553/V1_MQTT_OK/GD32VW55X_Wifi_BLE_SDK/GD32VW55x_RELEASE_V1.0.2/MSDK/wpa_supplicant/src/crypto\crypto_internal-cipher.c **** 				     ctx->u.des3.cbc);
 139:C:/Users/stapi/OneDrive/Desktop/GD32VW553/V1_MQTT_OK/GD32VW55X_Wifi_BLE_SDK/GD32VW55x_RELEASE_V1.0.2/MSDK/wpa_supplicant/src/crypto\crypto_internal-cipher.c **** 			os_memcpy(crypt, ctx->u.des3.cbc, 8);
 275              		.loc 1 139 4 discriminator 2
 276 007c 2146     		li	a2,8
 277 007e D685     		mv	a1,s5
 278 0080 5A85     		mv	a0,s6
 279 0082 97000000 		call	os_memcpy
 279      E7800000 
 280              	.LVL24:
 140:C:/Users/stapi/OneDrive/Desktop/GD32VW553/V1_MQTT_OK/GD32VW55X_Wifi_BLE_SDK/GD32VW55x_RELEASE_V1.0.2/MSDK/wpa_supplicant/src/crypto\crypto_internal-cipher.c **** 			plain += 8;
 281              		.loc 1 140 4 discriminator 2
 141:C:/Users/stapi/OneDrive/Desktop/GD32VW553/V1_MQTT_OK/GD32VW55X_Wifi_BLE_SDK/GD32VW55x_RELEASE_V1.0.2/MSDK/wpa_supplicant/src/crypto\crypto_internal-cipher.c **** 			crypt += 8;
 282              		.loc 1 141 4 discriminator 2
 134:C:/Users/stapi/OneDrive/Desktop/GD32VW553/V1_MQTT_OK/GD32VW55X_Wifi_BLE_SDK/GD32VW55x_RELEASE_V1.0.2/MSDK/wpa_supplicant/src/crypto\crypto_internal-cipher.c **** 			for (j = 0; j < 8; j++)
 283              		.loc 1 134 27 discriminator 2
 284 008a 210A     		addi	s4,s4,8
 285              	.LVL25:
 286 008c 55BF     		j	.L29
 287              	.LVL26:
 288              	.L21:
 108:C:/Users/stapi/OneDrive/Desktop/GD32VW553/V1_MQTT_OK/GD32VW55X_Wifi_BLE_SDK/GD32VW55x_RELEASE_V1.0.2/MSDK/wpa_supplicant/src/crypto\crypto_internal-cipher.c **** 	case CRYPTO_CIPHER_ALG_RC4:
 289              		.loc 1 108 2 is_stmt 0
 290 008e 1547     		li	a4,5
 291 0090 7D55     		li	a0,-1
 292 0092 6398E702 		bne	a5,a4,.L19
 110:C:/Users/stapi/OneDrive/Desktop/GD32VW553/V1_MQTT_OK/GD32VW55X_Wifi_BLE_SDK/GD32VW55x_RELEASE_V1.0.2/MSDK/wpa_supplicant/src/crypto\crypto_internal-cipher.c **** 			os_memcpy(crypt, plain, len);
 293              		.loc 1 110 3 is_stmt 1
 110:C:/Users/stapi/OneDrive/Desktop/GD32VW553/V1_MQTT_OK/GD32VW55X_Wifi_BLE_SDK/GD32VW55x_RELEASE_V1.0.2/MSDK/wpa_supplicant/src/crypto\crypto_internal-cipher.c **** 			os_memcpy(crypt, plain, len);
 294              		.loc 1 110 6 is_stmt 0
 295 0096 6388C500 		beq	a1,a2,.L25
 111:C:/Users/stapi/OneDrive/Desktop/GD32VW553/V1_MQTT_OK/GD32VW55X_Wifi_BLE_SDK/GD32VW55x_RELEASE_V1.0.2/MSDK/wpa_supplicant/src/crypto\crypto_internal-cipher.c **** 		rc4_skip(ctx->u.rc4.key, ctx->u.rc4.keylen,
 296              		.loc 1 111 4 is_stmt 1
 297 009a 3686     		mv	a2,a3
 298              	.LVL27:
 299 009c 4A85     		mv	a0,s2
 300 009e 97000000 		call	os_memcpy
 300      E7800000 
 301              	.LVL28:
 302              	.L25:
 112:C:/Users/stapi/OneDrive/Desktop/GD32VW553/V1_MQTT_OK/GD32VW55X_Wifi_BLE_SDK/GD32VW55x_RELEASE_V1.0.2/MSDK/wpa_supplicant/src/crypto\crypto_internal-cipher.c **** 			 ctx->u.rc4.used_bytes, crypt, len);
 303              		.loc 1 112 3
 304 00a6 D040     		lw	a2,4(s1)
 305 00a8 8C4C     		lw	a1,24(s1)
 306 00aa CA86     		mv	a3,s2
 307 00ac 2287     		mv	a4,s0
 308 00ae 13858400 		addi	a0,s1,8
 309 00b2 97000000 		call	rc4_skip
 309      E7800000 
 310              	.LVL29:
 114:C:/Users/stapi/OneDrive/Desktop/GD32VW553/V1_MQTT_OK/GD32VW55X_Wifi_BLE_SDK/GD32VW55x_RELEASE_V1.0.2/MSDK/wpa_supplicant/src/crypto\crypto_internal-cipher.c **** 		break;
 311              		.loc 1 114 3
 114:C:/Users/stapi/OneDrive/Desktop/GD32VW553/V1_MQTT_OK/GD32VW55X_Wifi_BLE_SDK/GD32VW55x_RELEASE_V1.0.2/MSDK/wpa_supplicant/src/crypto\crypto_internal-cipher.c **** 		break;
 312              		.loc 1 114 25 is_stmt 0
 313 00ba D440     		lw	a3,4(s1)
 314 00bc A296     		add	a3,a3,s0
 315 00be D4C0     		sw	a3,4(s1)
 115:C:/Users/stapi/OneDrive/Desktop/GD32VW553/V1_MQTT_OK/GD32VW55X_Wifi_BLE_SDK/GD32VW55x_RELEASE_V1.0.2/MSDK/wpa_supplicant/src/crypto\crypto_internal-cipher.c **** 	case CRYPTO_CIPHER_ALG_AES:
 316              		.loc 1 115 3 is_stmt 1
 317              	.LVL30:
 318              	.L32:
 142:C:/Users/stapi/OneDrive/Desktop/GD32VW553/V1_MQTT_OK/GD32VW55X_Wifi_BLE_SDK/GD32VW55x_RELEASE_V1.0.2/MSDK/wpa_supplicant/src/crypto\crypto_internal-cipher.c **** 		}
 143:C:/Users/stapi/OneDrive/Desktop/GD32VW553/V1_MQTT_OK/GD32VW55X_Wifi_BLE_SDK/GD32VW55x_RELEASE_V1.0.2/MSDK/wpa_supplicant/src/crypto\crypto_internal-cipher.c **** 		break;
 144:C:/Users/stapi/OneDrive/Desktop/GD32VW553/V1_MQTT_OK/GD32VW55X_Wifi_BLE_SDK/GD32VW55x_RELEASE_V1.0.2/MSDK/wpa_supplicant/src/crypto\crypto_internal-cipher.c **** 	case CRYPTO_CIPHER_ALG_DES:
 145:C:/Users/stapi/OneDrive/Desktop/GD32VW553/V1_MQTT_OK/GD32VW55X_Wifi_BLE_SDK/GD32VW55x_RELEASE_V1.0.2/MSDK/wpa_supplicant/src/crypto\crypto_internal-cipher.c **** 		if (len % 8)
 146:C:/Users/stapi/OneDrive/Desktop/GD32VW553/V1_MQTT_OK/GD32VW55X_Wifi_BLE_SDK/GD32VW55x_RELEASE_V1.0.2/MSDK/wpa_supplicant/src/crypto\crypto_internal-cipher.c **** 			return -1;
 147:C:/Users/stapi/OneDrive/Desktop/GD32VW553/V1_MQTT_OK/GD32VW55X_Wifi_BLE_SDK/GD32VW55x_RELEASE_V1.0.2/MSDK/wpa_supplicant/src/crypto\crypto_internal-cipher.c **** 		blocks = len / 8;
 148:C:/Users/stapi/OneDrive/Desktop/GD32VW553/V1_MQTT_OK/GD32VW55X_Wifi_BLE_SDK/GD32VW55x_RELEASE_V1.0.2/MSDK/wpa_supplicant/src/crypto\crypto_internal-cipher.c **** 		for (i = 0; i < blocks; i++) {
 149:C:/Users/stapi/OneDrive/Desktop/GD32VW553/V1_MQTT_OK/GD32VW55X_Wifi_BLE_SDK/GD32VW55x_RELEASE_V1.0.2/MSDK/wpa_supplicant/src/crypto\crypto_internal-cipher.c **** 			for (j = 0; j < 8; j++)
 150:C:/Users/stapi/OneDrive/Desktop/GD32VW553/V1_MQTT_OK/GD32VW55X_Wifi_BLE_SDK/GD32VW55x_RELEASE_V1.0.2/MSDK/wpa_supplicant/src/crypto\crypto_internal-cipher.c **** 				ctx->u.des3.cbc[j] ^= plain[j];
 151:C:/Users/stapi/OneDrive/Desktop/GD32VW553/V1_MQTT_OK/GD32VW55X_Wifi_BLE_SDK/GD32VW55x_RELEASE_V1.0.2/MSDK/wpa_supplicant/src/crypto\crypto_internal-cipher.c **** 			des_block_encrypt(ctx->u.des.cbc, ctx->u.des.ek,
 152:C:/Users/stapi/OneDrive/Desktop/GD32VW553/V1_MQTT_OK/GD32VW55X_Wifi_BLE_SDK/GD32VW55x_RELEASE_V1.0.2/MSDK/wpa_supplicant/src/crypto\crypto_internal-cipher.c **** 					  ctx->u.des.cbc);
 153:C:/Users/stapi/OneDrive/Desktop/GD32VW553/V1_MQTT_OK/GD32VW55X_Wifi_BLE_SDK/GD32VW55x_RELEASE_V1.0.2/MSDK/wpa_supplicant/src/crypto\crypto_internal-cipher.c **** 			os_memcpy(crypt, ctx->u.des.cbc, 8);
 154:C:/Users/stapi/OneDrive/Desktop/GD32VW553/V1_MQTT_OK/GD32VW55X_Wifi_BLE_SDK/GD32VW55x_RELEASE_V1.0.2/MSDK/wpa_supplicant/src/crypto\crypto_internal-cipher.c **** 			plain += 8;
 155:C:/Users/stapi/OneDrive/Desktop/GD32VW553/V1_MQTT_OK/GD32VW55X_Wifi_BLE_SDK/GD32VW55x_RELEASE_V1.0.2/MSDK/wpa_supplicant/src/crypto\crypto_internal-cipher.c **** 			crypt += 8;
 156:C:/Users/stapi/OneDrive/Desktop/GD32VW553/V1_MQTT_OK/GD32VW55X_Wifi_BLE_SDK/GD32VW55x_RELEASE_V1.0.2/MSDK/wpa_supplicant/src/crypto\crypto_internal-cipher.c **** 		}
 157:C:/Users/stapi/OneDrive/Desktop/GD32VW553/V1_MQTT_OK/GD32VW55X_Wifi_BLE_SDK/GD32VW55x_RELEASE_V1.0.2/MSDK/wpa_supplicant/src/crypto\crypto_internal-cipher.c **** 		break;
 158:C:/Users/stapi/OneDrive/Desktop/GD32VW553/V1_MQTT_OK/GD32VW55X_Wifi_BLE_SDK/GD32VW55x_RELEASE_V1.0.2/MSDK/wpa_supplicant/src/crypto\crypto_internal-cipher.c **** 	default:
 159:C:/Users/stapi/OneDrive/Desktop/GD32VW553/V1_MQTT_OK/GD32VW55X_Wifi_BLE_SDK/GD32VW55x_RELEASE_V1.0.2/MSDK/wpa_supplicant/src/crypto\crypto_internal-cipher.c **** 		return -1;
 160:C:/Users/stapi/OneDrive/Desktop/GD32VW553/V1_MQTT_OK/GD32VW55X_Wifi_BLE_SDK/GD32VW55x_RELEASE_V1.0.2/MSDK/wpa_supplicant/src/crypto\crypto_internal-cipher.c **** 	}
 161:C:/Users/stapi/OneDrive/Desktop/GD32VW553/V1_MQTT_OK/GD32VW55X_Wifi_BLE_SDK/GD32VW55x_RELEASE_V1.0.2/MSDK/wpa_supplicant/src/crypto\crypto_internal-cipher.c **** 
 162:C:/Users/stapi/OneDrive/Desktop/GD32VW553/V1_MQTT_OK/GD32VW55X_Wifi_BLE_SDK/GD32VW55x_RELEASE_V1.0.2/MSDK/wpa_supplicant/src/crypto\crypto_internal-cipher.c **** 	return 0;
 319              		.loc 1 162 9 is_stmt 0
 320 00c0 0145     		li	a0,0
 321              	.L19:
 163:C:/Users/stapi/OneDrive/Desktop/GD32VW553/V1_MQTT_OK/GD32VW55X_Wifi_BLE_SDK/GD32VW55x_RELEASE_V1.0.2/MSDK/wpa_supplicant/src/crypto\crypto_internal-cipher.c **** }
 322              		.loc 1 163 1
 323 00c2 4101     		addi	sp,sp,16
 324              		.cfi_remember_state
 325              		.cfi_def_cfa_offset 0
 326 00c4 17030000 		tail	__riscv_restore_9
 326      67000300 
 327              		.cfi_restore 24
 328              		.cfi_restore 23
 329              		.cfi_restore 22
 330              		.cfi_restore 21
 331              		.cfi_restore 20
 332              		.cfi_restore 19
 333              		.cfi_restore 18
 334              		.cfi_restore 9
 335              		.cfi_restore 8
 336              		.cfi_restore 1
 337              		.cfi_def_cfa_offset -48
 338              	.LVL31:
 339              	.L22:
 340              		.cfi_restore_state
 117:C:/Users/stapi/OneDrive/Desktop/GD32VW553/V1_MQTT_OK/GD32VW55X_Wifi_BLE_SDK/GD32VW55x_RELEASE_V1.0.2/MSDK/wpa_supplicant/src/crypto\crypto_internal-cipher.c **** 			return -1;
 341              		.loc 1 117 3 is_stmt 1
 117:C:/Users/stapi/OneDrive/Desktop/GD32VW553/V1_MQTT_OK/GD32VW55X_Wifi_BLE_SDK/GD32VW55x_RELEASE_V1.0.2/MSDK/wpa_supplicant/src/crypto\crypto_internal-cipher.c **** 			return -1;
 342              		.loc 1 117 11 is_stmt 0
 343 00cc 93F7F600 		andi	a5,a3,15
 118:C:/Users/stapi/OneDrive/Desktop/GD32VW553/V1_MQTT_OK/GD32VW55X_Wifi_BLE_SDK/GD32VW55x_RELEASE_V1.0.2/MSDK/wpa_supplicant/src/crypto\crypto_internal-cipher.c **** 		blocks = len / AES_BLOCK_SIZE;
 344              		.loc 1 118 11
 345 00d0 7D55     		li	a0,-1
 117:C:/Users/stapi/OneDrive/Desktop/GD32VW553/V1_MQTT_OK/GD32VW55X_Wifi_BLE_SDK/GD32VW55x_RELEASE_V1.0.2/MSDK/wpa_supplicant/src/crypto\crypto_internal-cipher.c **** 			return -1;
 346              		.loc 1 117 6
 347 00d2 E5FB     		bne	a5,zero,.L19
 119:C:/Users/stapi/OneDrive/Desktop/GD32VW553/V1_MQTT_OK/GD32VW55X_Wifi_BLE_SDK/GD32VW55x_RELEASE_V1.0.2/MSDK/wpa_supplicant/src/crypto\crypto_internal-cipher.c **** 		for (i = 0; i < blocks; i++) {
 348              		.loc 1 119 3 is_stmt 1
 349              	.LVL32:
 120:C:/Users/stapi/OneDrive/Desktop/GD32VW553/V1_MQTT_OK/GD32VW55X_Wifi_BLE_SDK/GD32VW55x_RELEASE_V1.0.2/MSDK/wpa_supplicant/src/crypto\crypto_internal-cipher.c **** 			for (j = 0; j < AES_BLOCK_SIZE; j++)
 350              		.loc 1 120 3
 351 00d4 13F406FF 		andi	s0,a3,-16
 352              	.LVL33:
 353 00d8 014A     		li	s4,0
 121:C:/Users/stapi/OneDrive/Desktop/GD32VW553/V1_MQTT_OK/GD32VW55X_Wifi_BLE_SDK/GD32VW55x_RELEASE_V1.0.2/MSDK/wpa_supplicant/src/crypto\crypto_internal-cipher.c **** 				ctx->u.aes.cbc[j] ^= plain[j];
 354              		.loc 1 121 4 is_stmt 0
 355 00da 414B     		li	s6,16
 356              	.LVL34:
 357              	.L26:
 358 00dc 33864901 		add	a2,s3,s4
 359 00e0 B30A4901 		add	s5,s2,s4
 360              	.LVL35:
 120:C:/Users/stapi/OneDrive/Desktop/GD32VW553/V1_MQTT_OK/GD32VW55X_Wifi_BLE_SDK/GD32VW55x_RELEASE_V1.0.2/MSDK/wpa_supplicant/src/crypto\crypto_internal-cipher.c **** 			for (j = 0; j < AES_BLOCK_SIZE; j++)
 361              		.loc 1 120 15 is_stmt 1 discriminator 1
 120:C:/Users/stapi/OneDrive/Desktop/GD32VW553/V1_MQTT_OK/GD32VW55X_Wifi_BLE_SDK/GD32VW55x_RELEASE_V1.0.2/MSDK/wpa_supplicant/src/crypto\crypto_internal-cipher.c **** 			for (j = 0; j < AES_BLOCK_SIZE; j++)
 362              		.loc 1 120 3 is_stmt 0 discriminator 1
 363 00e4 E30E8AFC 		beq	s4,s0,.L32
 364 00e8 93874400 		addi	a5,s1,4
 121:C:/Users/stapi/OneDrive/Desktop/GD32VW553/V1_MQTT_OK/GD32VW55X_Wifi_BLE_SDK/GD32VW55x_RELEASE_V1.0.2/MSDK/wpa_supplicant/src/crypto\crypto_internal-cipher.c **** 				ctx->u.aes.cbc[j] ^= plain[j];
 365              		.loc 1 121 11
 366 00ec 0147     		li	a4,0
 367 00ee BE85     		mv	a1,a5
 368              	.L27:
 369              	.LVL36:
 122:C:/Users/stapi/OneDrive/Desktop/GD32VW553/V1_MQTT_OK/GD32VW55X_Wifi_BLE_SDK/GD32VW55x_RELEASE_V1.0.2/MSDK/wpa_supplicant/src/crypto\crypto_internal-cipher.c **** 			aes_encrypt(ctx->u.aes.ctx_enc, ctx->u.aes.cbc,
 370              		.loc 1 122 5 is_stmt 1 discriminator 3
 122:C:/Users/stapi/OneDrive/Desktop/GD32VW553/V1_MQTT_OK/GD32VW55X_Wifi_BLE_SDK/GD32VW55x_RELEASE_V1.0.2/MSDK/wpa_supplicant/src/crypto\crypto_internal-cipher.c **** 			aes_encrypt(ctx->u.aes.ctx_enc, ctx->u.aes.cbc,
 371              		.loc 1 122 31 is_stmt 0 discriminator 3
 372 00f0 B306E600 		add	a3,a2,a4
 122:C:/Users/stapi/OneDrive/Desktop/GD32VW553/V1_MQTT_OK/GD32VW55X_Wifi_BLE_SDK/GD32VW55x_RELEASE_V1.0.2/MSDK/wpa_supplicant/src/crypto\crypto_internal-cipher.c **** 			aes_encrypt(ctx->u.aes.ctx_enc, ctx->u.aes.cbc,
 373              		.loc 1 122 23 discriminator 3
 374 00f4 03C50700 		lbu	a0,0(a5)
 375 00f8 83C60600 		lbu	a3,0(a3)
 121:C:/Users/stapi/OneDrive/Desktop/GD32VW553/V1_MQTT_OK/GD32VW55X_Wifi_BLE_SDK/GD32VW55x_RELEASE_V1.0.2/MSDK/wpa_supplicant/src/crypto\crypto_internal-cipher.c **** 				ctx->u.aes.cbc[j] ^= plain[j];
 376              		.loc 1 121 37 discriminator 3
 377 00fc 0507     		addi	a4,a4,1
 378              	.LVL37:
 121:C:/Users/stapi/OneDrive/Desktop/GD32VW553/V1_MQTT_OK/GD32VW55X_Wifi_BLE_SDK/GD32VW55x_RELEASE_V1.0.2/MSDK/wpa_supplicant/src/crypto\crypto_internal-cipher.c **** 				ctx->u.aes.cbc[j] ^= plain[j];
 379              		.loc 1 121 4 discriminator 3
 380 00fe 8507     		addi	a5,a5,1
 122:C:/Users/stapi/OneDrive/Desktop/GD32VW553/V1_MQTT_OK/GD32VW55X_Wifi_BLE_SDK/GD32VW55x_RELEASE_V1.0.2/MSDK/wpa_supplicant/src/crypto\crypto_internal-cipher.c **** 			aes_encrypt(ctx->u.aes.ctx_enc, ctx->u.aes.cbc,
 381              		.loc 1 122 23 discriminator 3
 382 0100 A98E     		xor	a3,a3,a0
 383 0102 A38FD7FE 		sb	a3,-1(a5)
 121:C:/Users/stapi/OneDrive/Desktop/GD32VW553/V1_MQTT_OK/GD32VW55X_Wifi_BLE_SDK/GD32VW55x_RELEASE_V1.0.2/MSDK/wpa_supplicant/src/crypto\crypto_internal-cipher.c **** 				ctx->u.aes.cbc[j] ^= plain[j];
 384              		.loc 1 121 36 is_stmt 1 discriminator 3
 385              	.LVL38:
 121:C:/Users/stapi/OneDrive/Desktop/GD32VW553/V1_MQTT_OK/GD32VW55X_Wifi_BLE_SDK/GD32VW55x_RELEASE_V1.0.2/MSDK/wpa_supplicant/src/crypto\crypto_internal-cipher.c **** 				ctx->u.aes.cbc[j] ^= plain[j];
 386              		.loc 1 121 16 discriminator 3
 121:C:/Users/stapi/OneDrive/Desktop/GD32VW553/V1_MQTT_OK/GD32VW55X_Wifi_BLE_SDK/GD32VW55x_RELEASE_V1.0.2/MSDK/wpa_supplicant/src/crypto\crypto_internal-cipher.c **** 				ctx->u.aes.cbc[j] ^= plain[j];
 387              		.loc 1 121 4 is_stmt 0 discriminator 3
 388 0106 E31567FF 		bne	a4,s6,.L27
 123:C:/Users/stapi/OneDrive/Desktop/GD32VW553/V1_MQTT_OK/GD32VW55X_Wifi_BLE_SDK/GD32VW55x_RELEASE_V1.0.2/MSDK/wpa_supplicant/src/crypto\crypto_internal-cipher.c **** 				    ctx->u.aes.cbc);
 389              		.loc 1 123 4 is_stmt 1 discriminator 2
 390 010a C850     		lw	a0,36(s1)
 391 010c 2E86     		mv	a2,a1
 392              	.LVL39:
 393 010e 2EC6     		sw	a1,12(sp)
 394 0110 97000000 		call	aes_encrypt
 394      E7800000 
 395              	.LVL40:
 125:C:/Users/stapi/OneDrive/Desktop/GD32VW553/V1_MQTT_OK/GD32VW55X_Wifi_BLE_SDK/GD32VW55x_RELEASE_V1.0.2/MSDK/wpa_supplicant/src/crypto\crypto_internal-cipher.c **** 			plain += AES_BLOCK_SIZE;
 396              		.loc 1 125 4 discriminator 2
 397 0118 B245     		lw	a1,12(sp)
 398 011a 4146     		li	a2,16
 399 011c 5685     		mv	a0,s5
 400 011e 97000000 		call	os_memcpy
 400      E7800000 
 401              	.LVL41:
 126:C:/Users/stapi/OneDrive/Desktop/GD32VW553/V1_MQTT_OK/GD32VW55X_Wifi_BLE_SDK/GD32VW55x_RELEASE_V1.0.2/MSDK/wpa_supplicant/src/crypto\crypto_internal-cipher.c **** 			crypt += AES_BLOCK_SIZE;
 402              		.loc 1 126 4 discriminator 2
 127:C:/Users/stapi/OneDrive/Desktop/GD32VW553/V1_MQTT_OK/GD32VW55X_Wifi_BLE_SDK/GD32VW55x_RELEASE_V1.0.2/MSDK/wpa_supplicant/src/crypto\crypto_internal-cipher.c **** 		}
 403              		.loc 1 127 4 discriminator 2
 120:C:/Users/stapi/OneDrive/Desktop/GD32VW553/V1_MQTT_OK/GD32VW55X_Wifi_BLE_SDK/GD32VW55x_RELEASE_V1.0.2/MSDK/wpa_supplicant/src/crypto\crypto_internal-cipher.c **** 			for (j = 0; j < AES_BLOCK_SIZE; j++)
 404              		.loc 1 120 27 discriminator 2
 405 0126 410A     		addi	s4,s4,16
 406              	.LVL42:
 407 0128 55BF     		j	.L26
 408              	.LVL43:
 409              	.L20:
 145:C:/Users/stapi/OneDrive/Desktop/GD32VW553/V1_MQTT_OK/GD32VW55X_Wifi_BLE_SDK/GD32VW55x_RELEASE_V1.0.2/MSDK/wpa_supplicant/src/crypto\crypto_internal-cipher.c **** 			return -1;
 410              		.loc 1 145 3
 145:C:/Users/stapi/OneDrive/Desktop/GD32VW553/V1_MQTT_OK/GD32VW55X_Wifi_BLE_SDK/GD32VW55x_RELEASE_V1.0.2/MSDK/wpa_supplicant/src/crypto\crypto_internal-cipher.c **** 			return -1;
 411              		.loc 1 145 11 is_stmt 0
 412 012a 93F77600 		andi	a5,a3,7
 118:C:/Users/stapi/OneDrive/Desktop/GD32VW553/V1_MQTT_OK/GD32VW55X_Wifi_BLE_SDK/GD32VW55x_RELEASE_V1.0.2/MSDK/wpa_supplicant/src/crypto\crypto_internal-cipher.c **** 		blocks = len / AES_BLOCK_SIZE;
 413              		.loc 1 118 11
 414 012e 7D55     		li	a0,-1
 145:C:/Users/stapi/OneDrive/Desktop/GD32VW553/V1_MQTT_OK/GD32VW55X_Wifi_BLE_SDK/GD32VW55x_RELEASE_V1.0.2/MSDK/wpa_supplicant/src/crypto\crypto_internal-cipher.c **** 			return -1;
 415              		.loc 1 145 6
 416 0130 C9FB     		bne	a5,zero,.L19
 147:C:/Users/stapi/OneDrive/Desktop/GD32VW553/V1_MQTT_OK/GD32VW55X_Wifi_BLE_SDK/GD32VW55x_RELEASE_V1.0.2/MSDK/wpa_supplicant/src/crypto\crypto_internal-cipher.c **** 		for (i = 0; i < blocks; i++) {
 417              		.loc 1 147 3 is_stmt 1
 418              	.LVL44:
 148:C:/Users/stapi/OneDrive/Desktop/GD32VW553/V1_MQTT_OK/GD32VW55X_Wifi_BLE_SDK/GD32VW55x_RELEASE_V1.0.2/MSDK/wpa_supplicant/src/crypto\crypto_internal-cipher.c **** 			for (j = 0; j < 8; j++)
 419              		.loc 1 148 3
 420 0132 13F486FF 		andi	s0,a3,-8
 421              	.LVL45:
 422 0136 014A     		li	s4,0
 149:C:/Users/stapi/OneDrive/Desktop/GD32VW553/V1_MQTT_OK/GD32VW55X_Wifi_BLE_SDK/GD32VW55x_RELEASE_V1.0.2/MSDK/wpa_supplicant/src/crypto\crypto_internal-cipher.c **** 				ctx->u.des3.cbc[j] ^= plain[j];
 423              		.loc 1 149 4 is_stmt 0
 424 0138 A14B     		li	s7,8
 151:C:/Users/stapi/OneDrive/Desktop/GD32VW553/V1_MQTT_OK/GD32VW55X_Wifi_BLE_SDK/GD32VW55x_RELEASE_V1.0.2/MSDK/wpa_supplicant/src/crypto\crypto_internal-cipher.c **** 					  ctx->u.des.cbc);
 425              		.loc 1 151 32
 426 013a 938A4410 		addi	s5,s1,260
 151:C:/Users/stapi/OneDrive/Desktop/GD32VW553/V1_MQTT_OK/GD32VW55X_Wifi_BLE_SDK/GD32VW55x_RELEASE_V1.0.2/MSDK/wpa_supplicant/src/crypto\crypto_internal-cipher.c **** 					  ctx->u.des.cbc);
 427              		.loc 1 151 48
 428 013e 138C4400 		addi	s8,s1,4
 429              	.LVL46:
 430              	.L33:
 431 0142 33864901 		add	a2,s3,s4
 432 0146 330B4901 		add	s6,s2,s4
 433              	.LVL47:
 148:C:/Users/stapi/OneDrive/Desktop/GD32VW553/V1_MQTT_OK/GD32VW55X_Wifi_BLE_SDK/GD32VW55x_RELEASE_V1.0.2/MSDK/wpa_supplicant/src/crypto\crypto_internal-cipher.c **** 			for (j = 0; j < 8; j++)
 434              		.loc 1 148 15 is_stmt 1 discriminator 1
 148:C:/Users/stapi/OneDrive/Desktop/GD32VW553/V1_MQTT_OK/GD32VW55X_Wifi_BLE_SDK/GD32VW55x_RELEASE_V1.0.2/MSDK/wpa_supplicant/src/crypto\crypto_internal-cipher.c **** 			for (j = 0; j < 8; j++)
 435              		.loc 1 148 3 is_stmt 0 discriminator 1
 436 014a E30B8AF6 		beq	s4,s0,.L32
 437 014e 13874430 		addi	a4,s1,772
 149:C:/Users/stapi/OneDrive/Desktop/GD32VW553/V1_MQTT_OK/GD32VW55X_Wifi_BLE_SDK/GD32VW55x_RELEASE_V1.0.2/MSDK/wpa_supplicant/src/crypto\crypto_internal-cipher.c **** 				ctx->u.des3.cbc[j] ^= plain[j];
 438              		.loc 1 149 11
 439 0152 8147     		li	a5,0
 440              	.L34:
 441              	.LVL48:
 150:C:/Users/stapi/OneDrive/Desktop/GD32VW553/V1_MQTT_OK/GD32VW55X_Wifi_BLE_SDK/GD32VW55x_RELEASE_V1.0.2/MSDK/wpa_supplicant/src/crypto\crypto_internal-cipher.c **** 			des_block_encrypt(ctx->u.des.cbc, ctx->u.des.ek,
 442              		.loc 1 150 5 is_stmt 1 discriminator 3
 150:C:/Users/stapi/OneDrive/Desktop/GD32VW553/V1_MQTT_OK/GD32VW55X_Wifi_BLE_SDK/GD32VW55x_RELEASE_V1.0.2/MSDK/wpa_supplicant/src/crypto\crypto_internal-cipher.c **** 			des_block_encrypt(ctx->u.des.cbc, ctx->u.des.ek,
 443              		.loc 1 150 32 is_stmt 0 discriminator 3
 444 0154 B306F600 		add	a3,a2,a5
 150:C:/Users/stapi/OneDrive/Desktop/GD32VW553/V1_MQTT_OK/GD32VW55X_Wifi_BLE_SDK/GD32VW55x_RELEASE_V1.0.2/MSDK/wpa_supplicant/src/crypto\crypto_internal-cipher.c **** 			des_block_encrypt(ctx->u.des.cbc, ctx->u.des.ek,
 445              		.loc 1 150 24 discriminator 3
 446 0158 83450700 		lbu	a1,0(a4)
 447 015c 83C60600 		lbu	a3,0(a3)
 149:C:/Users/stapi/OneDrive/Desktop/GD32VW553/V1_MQTT_OK/GD32VW55X_Wifi_BLE_SDK/GD32VW55x_RELEASE_V1.0.2/MSDK/wpa_supplicant/src/crypto\crypto_internal-cipher.c **** 				ctx->u.des3.cbc[j] ^= plain[j];
 448              		.loc 1 149 24 discriminator 3
 449 0160 8507     		addi	a5,a5,1
 450              	.LVL49:
 149:C:/Users/stapi/OneDrive/Desktop/GD32VW553/V1_MQTT_OK/GD32VW55X_Wifi_BLE_SDK/GD32VW55x_RELEASE_V1.0.2/MSDK/wpa_supplicant/src/crypto\crypto_internal-cipher.c **** 				ctx->u.des3.cbc[j] ^= plain[j];
 451              		.loc 1 149 4 discriminator 3
 452 0162 0507     		addi	a4,a4,1
 150:C:/Users/stapi/OneDrive/Desktop/GD32VW553/V1_MQTT_OK/GD32VW55X_Wifi_BLE_SDK/GD32VW55x_RELEASE_V1.0.2/MSDK/wpa_supplicant/src/crypto\crypto_internal-cipher.c **** 			des_block_encrypt(ctx->u.des.cbc, ctx->u.des.ek,
 453              		.loc 1 150 24 discriminator 3
 454 0164 AD8E     		xor	a3,a3,a1
 455 0166 A30FD7FE 		sb	a3,-1(a4)
 149:C:/Users/stapi/OneDrive/Desktop/GD32VW553/V1_MQTT_OK/GD32VW55X_Wifi_BLE_SDK/GD32VW55x_RELEASE_V1.0.2/MSDK/wpa_supplicant/src/crypto\crypto_internal-cipher.c **** 				ctx->u.des3.cbc[j] ^= plain[j];
 456              		.loc 1 149 23 is_stmt 1 discriminator 3
 457              	.LVL50:
 149:C:/Users/stapi/OneDrive/Desktop/GD32VW553/V1_MQTT_OK/GD32VW55X_Wifi_BLE_SDK/GD32VW55x_RELEASE_V1.0.2/MSDK/wpa_supplicant/src/crypto\crypto_internal-cipher.c **** 				ctx->u.des3.cbc[j] ^= plain[j];
 458              		.loc 1 149 16 discriminator 3
 149:C:/Users/stapi/OneDrive/Desktop/GD32VW553/V1_MQTT_OK/GD32VW55X_Wifi_BLE_SDK/GD32VW55x_RELEASE_V1.0.2/MSDK/wpa_supplicant/src/crypto\crypto_internal-cipher.c **** 				ctx->u.des3.cbc[j] ^= plain[j];
 459              		.loc 1 149 4 is_stmt 0 discriminator 3
 460 016a E39577FF 		bne	a5,s7,.L34
 151:C:/Users/stapi/OneDrive/Desktop/GD32VW553/V1_MQTT_OK/GD32VW55X_Wifi_BLE_SDK/GD32VW55x_RELEASE_V1.0.2/MSDK/wpa_supplicant/src/crypto\crypto_internal-cipher.c **** 					  ctx->u.des.cbc);
 461              		.loc 1 151 4 is_stmt 1 discriminator 2
 462 016e 5686     		mv	a2,s5
 463              	.LVL51:
 464 0170 E285     		mv	a1,s8
 465 0172 5685     		mv	a0,s5
 466 0174 97000000 		call	des_block_encrypt
 466      E7800000 
 467              	.LVL52:
 153:C:/Users/stapi/OneDrive/Desktop/GD32VW553/V1_MQTT_OK/GD32VW55X_Wifi_BLE_SDK/GD32VW55x_RELEASE_V1.0.2/MSDK/wpa_supplicant/src/crypto\crypto_internal-cipher.c **** 			plain += 8;
 468              		.loc 1 153 4 discriminator 2
 469 017c 2146     		li	a2,8
 470 017e D685     		mv	a1,s5
 471 0180 5A85     		mv	a0,s6
 472 0182 97000000 		call	os_memcpy
 472      E7800000 
 473              	.LVL53:
 154:C:/Users/stapi/OneDrive/Desktop/GD32VW553/V1_MQTT_OK/GD32VW55X_Wifi_BLE_SDK/GD32VW55x_RELEASE_V1.0.2/MSDK/wpa_supplicant/src/crypto\crypto_internal-cipher.c **** 			crypt += 8;
 474              		.loc 1 154 4 discriminator 2
 155:C:/Users/stapi/OneDrive/Desktop/GD32VW553/V1_MQTT_OK/GD32VW55X_Wifi_BLE_SDK/GD32VW55x_RELEASE_V1.0.2/MSDK/wpa_supplicant/src/crypto\crypto_internal-cipher.c **** 		}
 475              		.loc 1 155 4 discriminator 2
 148:C:/Users/stapi/OneDrive/Desktop/GD32VW553/V1_MQTT_OK/GD32VW55X_Wifi_BLE_SDK/GD32VW55x_RELEASE_V1.0.2/MSDK/wpa_supplicant/src/crypto\crypto_internal-cipher.c **** 			for (j = 0; j < 8; j++)
 476              		.loc 1 148 27 discriminator 2
 477 018a 210A     		addi	s4,s4,8
 478              	.LVL54:
 479 018c 5DBF     		j	.L33
 480              		.cfi_endproc
 481              	.LFE72:
 483              		.section	.text.crypto_cipher_decrypt,"ax",@progbits
 484              		.align	1
 485              		.globl	crypto_cipher_decrypt
 487              	crypto_cipher_decrypt:
 488              	.LFB73:
 164:C:/Users/stapi/OneDrive/Desktop/GD32VW553/V1_MQTT_OK/GD32VW55X_Wifi_BLE_SDK/GD32VW55x_RELEASE_V1.0.2/MSDK/wpa_supplicant/src/crypto\crypto_internal-cipher.c **** 
 165:C:/Users/stapi/OneDrive/Desktop/GD32VW553/V1_MQTT_OK/GD32VW55X_Wifi_BLE_SDK/GD32VW55x_RELEASE_V1.0.2/MSDK/wpa_supplicant/src/crypto\crypto_internal-cipher.c **** 
 166:C:/Users/stapi/OneDrive/Desktop/GD32VW553/V1_MQTT_OK/GD32VW55X_Wifi_BLE_SDK/GD32VW55x_RELEASE_V1.0.2/MSDK/wpa_supplicant/src/crypto\crypto_internal-cipher.c **** int crypto_cipher_decrypt(struct crypto_cipher *ctx, const u8 *crypt,
 167:C:/Users/stapi/OneDrive/Desktop/GD32VW553/V1_MQTT_OK/GD32VW55X_Wifi_BLE_SDK/GD32VW55x_RELEASE_V1.0.2/MSDK/wpa_supplicant/src/crypto\crypto_internal-cipher.c **** 			  u8 *plain, size_t len)
 168:C:/Users/stapi/OneDrive/Desktop/GD32VW553/V1_MQTT_OK/GD32VW55X_Wifi_BLE_SDK/GD32VW55x_RELEASE_V1.0.2/MSDK/wpa_supplicant/src/crypto\crypto_internal-cipher.c **** {
 489              		.loc 1 168 1
 490              		.cfi_startproc
 491              	.LVL55:
 492 0000 17030000 		call	t0,__riscv_save_5
 492      E7020300 
 493              		.cfi_offset 20, -24
 494              		.cfi_offset 19, -20
 495              		.cfi_offset 18, -16
 496              		.cfi_offset 9, -12
 497              		.cfi_offset 8, -8
 498              		.cfi_offset 1, -4
 499              		.cfi_def_cfa_offset 32
 169:C:/Users/stapi/OneDrive/Desktop/GD32VW553/V1_MQTT_OK/GD32VW55X_Wifi_BLE_SDK/GD32VW55x_RELEASE_V1.0.2/MSDK/wpa_supplicant/src/crypto\crypto_internal-cipher.c **** 	size_t i, j, blocks;
 170:C:/Users/stapi/OneDrive/Desktop/GD32VW553/V1_MQTT_OK/GD32VW55X_Wifi_BLE_SDK/GD32VW55x_RELEASE_V1.0.2/MSDK/wpa_supplicant/src/crypto\crypto_internal-cipher.c **** 	u8 tmp[32];
 171:C:/Users/stapi/OneDrive/Desktop/GD32VW553/V1_MQTT_OK/GD32VW55X_Wifi_BLE_SDK/GD32VW55x_RELEASE_V1.0.2/MSDK/wpa_supplicant/src/crypto\crypto_internal-cipher.c **** 
 172:C:/Users/stapi/OneDrive/Desktop/GD32VW553/V1_MQTT_OK/GD32VW55X_Wifi_BLE_SDK/GD32VW55x_RELEASE_V1.0.2/MSDK/wpa_supplicant/src/crypto\crypto_internal-cipher.c **** 	switch (ctx->alg) {
 500              		.loc 1 172 13 is_stmt 0
 501 0008 1C41     		lw	a5,0(a0)
 502              		.loc 1 172 2
 503 000a 0D47     		li	a4,3
 168:C:/Users/stapi/OneDrive/Desktop/GD32VW553/V1_MQTT_OK/GD32VW55X_Wifi_BLE_SDK/GD32VW55x_RELEASE_V1.0.2/MSDK/wpa_supplicant/src/crypto\crypto_internal-cipher.c **** 	size_t i, j, blocks;
 504              		.loc 1 168 1
 505 000c 0111     		addi	sp,sp,-32
 506              		.cfi_def_cfa_offset 64
 168:C:/Users/stapi/OneDrive/Desktop/GD32VW553/V1_MQTT_OK/GD32VW55X_Wifi_BLE_SDK/GD32VW55x_RELEASE_V1.0.2/MSDK/wpa_supplicant/src/crypto\crypto_internal-cipher.c **** 	size_t i, j, blocks;
 507              		.loc 1 168 1
 508 000e AA89     		mv	s3,a0
 509 0010 2E89     		mv	s2,a1
 169:C:/Users/stapi/OneDrive/Desktop/GD32VW553/V1_MQTT_OK/GD32VW55X_Wifi_BLE_SDK/GD32VW55x_RELEASE_V1.0.2/MSDK/wpa_supplicant/src/crypto\crypto_internal-cipher.c **** 	size_t i, j, blocks;
 510              		.loc 1 169 2 is_stmt 1
 170:C:/Users/stapi/OneDrive/Desktop/GD32VW553/V1_MQTT_OK/GD32VW55X_Wifi_BLE_SDK/GD32VW55x_RELEASE_V1.0.2/MSDK/wpa_supplicant/src/crypto\crypto_internal-cipher.c **** 
 511              		.loc 1 170 2
 512              		.loc 1 172 2
 168:C:/Users/stapi/OneDrive/Desktop/GD32VW553/V1_MQTT_OK/GD32VW55X_Wifi_BLE_SDK/GD32VW55x_RELEASE_V1.0.2/MSDK/wpa_supplicant/src/crypto\crypto_internal-cipher.c **** 	size_t i, j, blocks;
 513              		.loc 1 168 1 is_stmt 0
 514 0012 3284     		mv	s0,a2
 515 0014 B684     		mv	s1,a3
 516              		.loc 1 172 2
 517 0016 638FE710 		beq	a5,a4,.L45
 518 001a 636AF706 		bgtu	a5,a4,.L46
 519 001e 0547     		li	a4,1
 520 0020 638AE70A 		beq	a5,a4,.L47
 521 0024 0947     		li	a4,2
 522 0026 7D55     		li	a0,-1
 523              	.LVL56:
 524 0028 6391E70A 		bne	a5,a4,.L44
 173:C:/Users/stapi/OneDrive/Desktop/GD32VW553/V1_MQTT_OK/GD32VW55X_Wifi_BLE_SDK/GD32VW55x_RELEASE_V1.0.2/MSDK/wpa_supplicant/src/crypto\crypto_internal-cipher.c **** 	case CRYPTO_CIPHER_ALG_RC4:
 174:C:/Users/stapi/OneDrive/Desktop/GD32VW553/V1_MQTT_OK/GD32VW55X_Wifi_BLE_SDK/GD32VW55x_RELEASE_V1.0.2/MSDK/wpa_supplicant/src/crypto\crypto_internal-cipher.c **** 		if (plain != crypt)
 175:C:/Users/stapi/OneDrive/Desktop/GD32VW553/V1_MQTT_OK/GD32VW55X_Wifi_BLE_SDK/GD32VW55x_RELEASE_V1.0.2/MSDK/wpa_supplicant/src/crypto\crypto_internal-cipher.c **** 			os_memcpy(plain, crypt, len);
 176:C:/Users/stapi/OneDrive/Desktop/GD32VW553/V1_MQTT_OK/GD32VW55X_Wifi_BLE_SDK/GD32VW55x_RELEASE_V1.0.2/MSDK/wpa_supplicant/src/crypto\crypto_internal-cipher.c **** 		rc4_skip(ctx->u.rc4.key, ctx->u.rc4.keylen,
 177:C:/Users/stapi/OneDrive/Desktop/GD32VW553/V1_MQTT_OK/GD32VW55X_Wifi_BLE_SDK/GD32VW55x_RELEASE_V1.0.2/MSDK/wpa_supplicant/src/crypto\crypto_internal-cipher.c **** 			 ctx->u.rc4.used_bytes, plain, len);
 178:C:/Users/stapi/OneDrive/Desktop/GD32VW553/V1_MQTT_OK/GD32VW55X_Wifi_BLE_SDK/GD32VW55x_RELEASE_V1.0.2/MSDK/wpa_supplicant/src/crypto\crypto_internal-cipher.c **** 		ctx->u.rc4.used_bytes += len;
 179:C:/Users/stapi/OneDrive/Desktop/GD32VW553/V1_MQTT_OK/GD32VW55X_Wifi_BLE_SDK/GD32VW55x_RELEASE_V1.0.2/MSDK/wpa_supplicant/src/crypto\crypto_internal-cipher.c **** 		break;
 180:C:/Users/stapi/OneDrive/Desktop/GD32VW553/V1_MQTT_OK/GD32VW55X_Wifi_BLE_SDK/GD32VW55x_RELEASE_V1.0.2/MSDK/wpa_supplicant/src/crypto\crypto_internal-cipher.c **** 	case CRYPTO_CIPHER_ALG_AES:
 181:C:/Users/stapi/OneDrive/Desktop/GD32VW553/V1_MQTT_OK/GD32VW55X_Wifi_BLE_SDK/GD32VW55x_RELEASE_V1.0.2/MSDK/wpa_supplicant/src/crypto\crypto_internal-cipher.c **** 		if (len % AES_BLOCK_SIZE)
 182:C:/Users/stapi/OneDrive/Desktop/GD32VW553/V1_MQTT_OK/GD32VW55X_Wifi_BLE_SDK/GD32VW55x_RELEASE_V1.0.2/MSDK/wpa_supplicant/src/crypto\crypto_internal-cipher.c **** 			return -1;
 183:C:/Users/stapi/OneDrive/Desktop/GD32VW553/V1_MQTT_OK/GD32VW55X_Wifi_BLE_SDK/GD32VW55x_RELEASE_V1.0.2/MSDK/wpa_supplicant/src/crypto\crypto_internal-cipher.c **** 		blocks = len / AES_BLOCK_SIZE;
 184:C:/Users/stapi/OneDrive/Desktop/GD32VW553/V1_MQTT_OK/GD32VW55X_Wifi_BLE_SDK/GD32VW55x_RELEASE_V1.0.2/MSDK/wpa_supplicant/src/crypto\crypto_internal-cipher.c **** 		for (i = 0; i < blocks; i++) {
 185:C:/Users/stapi/OneDrive/Desktop/GD32VW553/V1_MQTT_OK/GD32VW55X_Wifi_BLE_SDK/GD32VW55x_RELEASE_V1.0.2/MSDK/wpa_supplicant/src/crypto\crypto_internal-cipher.c **** 			os_memcpy(tmp, crypt, AES_BLOCK_SIZE);
 186:C:/Users/stapi/OneDrive/Desktop/GD32VW553/V1_MQTT_OK/GD32VW55X_Wifi_BLE_SDK/GD32VW55x_RELEASE_V1.0.2/MSDK/wpa_supplicant/src/crypto\crypto_internal-cipher.c **** 			aes_decrypt(ctx->u.aes.ctx_dec, crypt, plain);
 187:C:/Users/stapi/OneDrive/Desktop/GD32VW553/V1_MQTT_OK/GD32VW55X_Wifi_BLE_SDK/GD32VW55x_RELEASE_V1.0.2/MSDK/wpa_supplicant/src/crypto\crypto_internal-cipher.c **** 			for (j = 0; j < AES_BLOCK_SIZE; j++)
 188:C:/Users/stapi/OneDrive/Desktop/GD32VW553/V1_MQTT_OK/GD32VW55X_Wifi_BLE_SDK/GD32VW55x_RELEASE_V1.0.2/MSDK/wpa_supplicant/src/crypto\crypto_internal-cipher.c **** 				plain[j] ^= ctx->u.aes.cbc[j];
 189:C:/Users/stapi/OneDrive/Desktop/GD32VW553/V1_MQTT_OK/GD32VW55X_Wifi_BLE_SDK/GD32VW55x_RELEASE_V1.0.2/MSDK/wpa_supplicant/src/crypto\crypto_internal-cipher.c **** 			os_memcpy(ctx->u.aes.cbc, tmp, AES_BLOCK_SIZE);
 190:C:/Users/stapi/OneDrive/Desktop/GD32VW553/V1_MQTT_OK/GD32VW55X_Wifi_BLE_SDK/GD32VW55x_RELEASE_V1.0.2/MSDK/wpa_supplicant/src/crypto\crypto_internal-cipher.c **** 			plain += AES_BLOCK_SIZE;
 191:C:/Users/stapi/OneDrive/Desktop/GD32VW553/V1_MQTT_OK/GD32VW55X_Wifi_BLE_SDK/GD32VW55x_RELEASE_V1.0.2/MSDK/wpa_supplicant/src/crypto\crypto_internal-cipher.c **** 			crypt += AES_BLOCK_SIZE;
 192:C:/Users/stapi/OneDrive/Desktop/GD32VW553/V1_MQTT_OK/GD32VW55X_Wifi_BLE_SDK/GD32VW55x_RELEASE_V1.0.2/MSDK/wpa_supplicant/src/crypto\crypto_internal-cipher.c **** 		}
 193:C:/Users/stapi/OneDrive/Desktop/GD32VW553/V1_MQTT_OK/GD32VW55X_Wifi_BLE_SDK/GD32VW55x_RELEASE_V1.0.2/MSDK/wpa_supplicant/src/crypto\crypto_internal-cipher.c **** 		break;
 194:C:/Users/stapi/OneDrive/Desktop/GD32VW553/V1_MQTT_OK/GD32VW55X_Wifi_BLE_SDK/GD32VW55x_RELEASE_V1.0.2/MSDK/wpa_supplicant/src/crypto\crypto_internal-cipher.c **** 	case CRYPTO_CIPHER_ALG_3DES:
 195:C:/Users/stapi/OneDrive/Desktop/GD32VW553/V1_MQTT_OK/GD32VW55X_Wifi_BLE_SDK/GD32VW55x_RELEASE_V1.0.2/MSDK/wpa_supplicant/src/crypto\crypto_internal-cipher.c **** 		if (len % 8)
 525              		.loc 1 195 3 is_stmt 1
 526              		.loc 1 195 11 is_stmt 0
 527 002c 93F77600 		andi	a5,a3,7
 182:C:/Users/stapi/OneDrive/Desktop/GD32VW553/V1_MQTT_OK/GD32VW55X_Wifi_BLE_SDK/GD32VW55x_RELEASE_V1.0.2/MSDK/wpa_supplicant/src/crypto\crypto_internal-cipher.c **** 		blocks = len / AES_BLOCK_SIZE;
 528              		.loc 1 182 11
 529 0030 7D55     		li	a0,-1
 530              		.loc 1 195 6
 531 0032 C1EF     		bne	a5,zero,.L44
 196:C:/Users/stapi/OneDrive/Desktop/GD32VW553/V1_MQTT_OK/GD32VW55X_Wifi_BLE_SDK/GD32VW55x_RELEASE_V1.0.2/MSDK/wpa_supplicant/src/crypto\crypto_internal-cipher.c **** 			return -1;
 197:C:/Users/stapi/OneDrive/Desktop/GD32VW553/V1_MQTT_OK/GD32VW55X_Wifi_BLE_SDK/GD32VW55x_RELEASE_V1.0.2/MSDK/wpa_supplicant/src/crypto\crypto_internal-cipher.c **** 		blocks = len / 8;
 532              		.loc 1 197 3 is_stmt 1
 533              	.LVL57:
 198:C:/Users/stapi/OneDrive/Desktop/GD32VW553/V1_MQTT_OK/GD32VW55X_Wifi_BLE_SDK/GD32VW55x_RELEASE_V1.0.2/MSDK/wpa_supplicant/src/crypto\crypto_internal-cipher.c **** 		for (i = 0; i < blocks; i++) {
 534              		.loc 1 198 3
 535 0034 93F486FF 		andi	s1,a3,-8
 536 0038 B294     		add	s1,a2,s1
 199:C:/Users/stapi/OneDrive/Desktop/GD32VW553/V1_MQTT_OK/GD32VW55X_Wifi_BLE_SDK/GD32VW55x_RELEASE_V1.0.2/MSDK/wpa_supplicant/src/crypto\crypto_internal-cipher.c **** 			os_memcpy(tmp, crypt, 8);
 200:C:/Users/stapi/OneDrive/Desktop/GD32VW553/V1_MQTT_OK/GD32VW55X_Wifi_BLE_SDK/GD32VW55x_RELEASE_V1.0.2/MSDK/wpa_supplicant/src/crypto\crypto_internal-cipher.c **** 			des3_decrypt(crypt, &ctx->u.des3.key, plain);
 537              		.loc 1 200 24 is_stmt 0
 538 003a 138A4900 		addi	s4,s3,4
 539              	.LVL58:
 540              	.L54:
 198:C:/Users/stapi/OneDrive/Desktop/GD32VW553/V1_MQTT_OK/GD32VW55X_Wifi_BLE_SDK/GD32VW55x_RELEASE_V1.0.2/MSDK/wpa_supplicant/src/crypto\crypto_internal-cipher.c **** 		for (i = 0; i < blocks; i++) {
 541              		.loc 1 198 15 is_stmt 1 discriminator 1
 198:C:/Users/stapi/OneDrive/Desktop/GD32VW553/V1_MQTT_OK/GD32VW55X_Wifi_BLE_SDK/GD32VW55x_RELEASE_V1.0.2/MSDK/wpa_supplicant/src/crypto\crypto_internal-cipher.c **** 		for (i = 0; i < blocks; i++) {
 542              		.loc 1 198 3 is_stmt 0 discriminator 1
 543 003e 63059408 		beq	s0,s1,.L57
 199:C:/Users/stapi/OneDrive/Desktop/GD32VW553/V1_MQTT_OK/GD32VW55X_Wifi_BLE_SDK/GD32VW55x_RELEASE_V1.0.2/MSDK/wpa_supplicant/src/crypto\crypto_internal-cipher.c **** 			os_memcpy(tmp, crypt, 8);
 544              		.loc 1 199 4 is_stmt 1
 545 0042 2146     		li	a2,8
 546 0044 CA85     		mv	a1,s2
 547 0046 0A85     		mv	a0,sp
 548 0048 97000000 		call	os_memcpy
 548      E7800000 
 549              	.LVL59:
 550              		.loc 1 200 4
 551 0050 4A85     		mv	a0,s2
 552 0052 2286     		mv	a2,s0
 553 0054 D285     		mv	a1,s4
 554 0056 97000000 		call	des3_decrypt
 554      E7800000 
 555              	.LVL60:
 201:C:/Users/stapi/OneDrive/Desktop/GD32VW553/V1_MQTT_OK/GD32VW55X_Wifi_BLE_SDK/GD32VW55x_RELEASE_V1.0.2/MSDK/wpa_supplicant/src/crypto\crypto_internal-cipher.c **** 			for (j = 0; j < 8; j++)
 556              		.loc 1 201 4
 557              		.loc 1 201 16
 558 005e 93874930 		addi	a5,s3,772
 559 0062 3E85     		mv	a0,a5
 560              		.loc 1 201 4 is_stmt 0
 561 0064 93068400 		addi	a3,s0,8
 562              	.LVL61:
 563              	.L55:
 202:C:/Users/stapi/OneDrive/Desktop/GD32VW553/V1_MQTT_OK/GD32VW55X_Wifi_BLE_SDK/GD32VW55x_RELEASE_V1.0.2/MSDK/wpa_supplicant/src/crypto\crypto_internal-cipher.c **** 				plain[j] ^= ctx->u.des3.cbc[j];
 564              		.loc 1 202 5 is_stmt 1 discriminator 3
 565              		.loc 1 202 14 is_stmt 0 discriminator 3
 566 0068 03470400 		lbu	a4,0(s0)
 567 006c 03C60700 		lbu	a2,0(a5)
 201:C:/Users/stapi/OneDrive/Desktop/GD32VW553/V1_MQTT_OK/GD32VW55X_Wifi_BLE_SDK/GD32VW55x_RELEASE_V1.0.2/MSDK/wpa_supplicant/src/crypto\crypto_internal-cipher.c **** 			for (j = 0; j < 8; j++)
 568              		.loc 1 201 4 discriminator 3
 569 0070 0504     		addi	s0,s0,1
 570              	.LVL62:
 571 0072 8507     		addi	a5,a5,1
 572              		.loc 1 202 14 discriminator 3
 573 0074 318F     		xor	a4,a4,a2
 574 0076 A30FE4FE 		sb	a4,-1(s0)
 201:C:/Users/stapi/OneDrive/Desktop/GD32VW553/V1_MQTT_OK/GD32VW55X_Wifi_BLE_SDK/GD32VW55x_RELEASE_V1.0.2/MSDK/wpa_supplicant/src/crypto\crypto_internal-cipher.c **** 			for (j = 0; j < 8; j++)
 575              		.loc 1 201 23 is_stmt 1 discriminator 3
 576              	.LVL63:
 201:C:/Users/stapi/OneDrive/Desktop/GD32VW553/V1_MQTT_OK/GD32VW55X_Wifi_BLE_SDK/GD32VW55x_RELEASE_V1.0.2/MSDK/wpa_supplicant/src/crypto\crypto_internal-cipher.c **** 			for (j = 0; j < 8; j++)
 577              		.loc 1 201 16 discriminator 3
 201:C:/Users/stapi/OneDrive/Desktop/GD32VW553/V1_MQTT_OK/GD32VW55X_Wifi_BLE_SDK/GD32VW55x_RELEASE_V1.0.2/MSDK/wpa_supplicant/src/crypto\crypto_internal-cipher.c **** 			for (j = 0; j < 8; j++)
 578              		.loc 1 201 4 is_stmt 0 discriminator 3
 579 007a E317D4FE 		bne	s0,a3,.L55
 203:C:/Users/stapi/OneDrive/Desktop/GD32VW553/V1_MQTT_OK/GD32VW55X_Wifi_BLE_SDK/GD32VW55x_RELEASE_V1.0.2/MSDK/wpa_supplicant/src/crypto\crypto_internal-cipher.c **** 			os_memcpy(ctx->u.des3.cbc, tmp, 8);
 580              		.loc 1 203 4 is_stmt 1 discriminator 2
 581 007e 2146     		li	a2,8
 582 0080 8A85     		mv	a1,sp
 583 0082 97000000 		call	os_memcpy
 583      E7800000 
 584              	.LVL64:
 204:C:/Users/stapi/OneDrive/Desktop/GD32VW553/V1_MQTT_OK/GD32VW55X_Wifi_BLE_SDK/GD32VW55x_RELEASE_V1.0.2/MSDK/wpa_supplicant/src/crypto\crypto_internal-cipher.c **** 			plain += 8;
 585              		.loc 1 204 4 discriminator 2
 205:C:/Users/stapi/OneDrive/Desktop/GD32VW553/V1_MQTT_OK/GD32VW55X_Wifi_BLE_SDK/GD32VW55x_RELEASE_V1.0.2/MSDK/wpa_supplicant/src/crypto\crypto_internal-cipher.c **** 			crypt += 8;
 586              		.loc 1 205 4 discriminator 2
 587              		.loc 1 205 10 is_stmt 0 discriminator 2
 588 008a 2109     		addi	s2,s2,8
 589              	.LVL65:
 198:C:/Users/stapi/OneDrive/Desktop/GD32VW553/V1_MQTT_OK/GD32VW55X_Wifi_BLE_SDK/GD32VW55x_RELEASE_V1.0.2/MSDK/wpa_supplicant/src/crypto\crypto_internal-cipher.c **** 			os_memcpy(tmp, crypt, 8);
 590              		.loc 1 198 27 is_stmt 1 discriminator 2
 591 008c 4DBF     		j	.L54
 592              	.LVL66:
 593              	.L46:
 172:C:/Users/stapi/OneDrive/Desktop/GD32VW553/V1_MQTT_OK/GD32VW55X_Wifi_BLE_SDK/GD32VW55x_RELEASE_V1.0.2/MSDK/wpa_supplicant/src/crypto\crypto_internal-cipher.c **** 	case CRYPTO_CIPHER_ALG_RC4:
 594              		.loc 1 172 2 is_stmt 0
 595 008e 1547     		li	a4,5
 596 0090 7D55     		li	a0,-1
 597              	.LVL67:
 598 0092 639CE702 		bne	a5,a4,.L44
 174:C:/Users/stapi/OneDrive/Desktop/GD32VW553/V1_MQTT_OK/GD32VW55X_Wifi_BLE_SDK/GD32VW55x_RELEASE_V1.0.2/MSDK/wpa_supplicant/src/crypto\crypto_internal-cipher.c **** 			os_memcpy(plain, crypt, len);
 599              		.loc 1 174 3 is_stmt 1
 174:C:/Users/stapi/OneDrive/Desktop/GD32VW553/V1_MQTT_OK/GD32VW55X_Wifi_BLE_SDK/GD32VW55x_RELEASE_V1.0.2/MSDK/wpa_supplicant/src/crypto\crypto_internal-cipher.c **** 			os_memcpy(plain, crypt, len);
 600              		.loc 1 174 6 is_stmt 0
 601 0096 6308B600 		beq	a2,a1,.L50
 175:C:/Users/stapi/OneDrive/Desktop/GD32VW553/V1_MQTT_OK/GD32VW55X_Wifi_BLE_SDK/GD32VW55x_RELEASE_V1.0.2/MSDK/wpa_supplicant/src/crypto\crypto_internal-cipher.c **** 		rc4_skip(ctx->u.rc4.key, ctx->u.rc4.keylen,
 602              		.loc 1 175 4 is_stmt 1
 603 009a 3686     		mv	a2,a3
 604 009c 2285     		mv	a0,s0
 605 009e 97000000 		call	os_memcpy
 605      E7800000 
 606              	.LVL68:
 607              	.L50:
 176:C:/Users/stapi/OneDrive/Desktop/GD32VW553/V1_MQTT_OK/GD32VW55X_Wifi_BLE_SDK/GD32VW55x_RELEASE_V1.0.2/MSDK/wpa_supplicant/src/crypto\crypto_internal-cipher.c **** 			 ctx->u.rc4.used_bytes, plain, len);
 608              		.loc 1 176 3
 609 00a6 03A64900 		lw	a2,4(s3)
 610 00aa 83A58901 		lw	a1,24(s3)
 611 00ae A286     		mv	a3,s0
 612 00b0 2687     		mv	a4,s1
 613 00b2 13858900 		addi	a0,s3,8
 614 00b6 97000000 		call	rc4_skip
 614      E7800000 
 615              	.LVL69:
 178:C:/Users/stapi/OneDrive/Desktop/GD32VW553/V1_MQTT_OK/GD32VW55X_Wifi_BLE_SDK/GD32VW55x_RELEASE_V1.0.2/MSDK/wpa_supplicant/src/crypto\crypto_internal-cipher.c **** 		break;
 616              		.loc 1 178 3
 178:C:/Users/stapi/OneDrive/Desktop/GD32VW553/V1_MQTT_OK/GD32VW55X_Wifi_BLE_SDK/GD32VW55x_RELEASE_V1.0.2/MSDK/wpa_supplicant/src/crypto\crypto_internal-cipher.c **** 		break;
 617              		.loc 1 178 25 is_stmt 0
 618 00be 83A64900 		lw	a3,4(s3)
 619 00c2 A696     		add	a3,a3,s1
 620 00c4 23A2D900 		sw	a3,4(s3)
 179:C:/Users/stapi/OneDrive/Desktop/GD32VW553/V1_MQTT_OK/GD32VW55X_Wifi_BLE_SDK/GD32VW55x_RELEASE_V1.0.2/MSDK/wpa_supplicant/src/crypto\crypto_internal-cipher.c **** 	case CRYPTO_CIPHER_ALG_AES:
 621              		.loc 1 179 3 is_stmt 1
 622              	.LVL70:
 623              	.L57:
 206:C:/Users/stapi/OneDrive/Desktop/GD32VW553/V1_MQTT_OK/GD32VW55X_Wifi_BLE_SDK/GD32VW55x_RELEASE_V1.0.2/MSDK/wpa_supplicant/src/crypto\crypto_internal-cipher.c **** 		}
 207:C:/Users/stapi/OneDrive/Desktop/GD32VW553/V1_MQTT_OK/GD32VW55X_Wifi_BLE_SDK/GD32VW55x_RELEASE_V1.0.2/MSDK/wpa_supplicant/src/crypto\crypto_internal-cipher.c **** 		break;
 208:C:/Users/stapi/OneDrive/Desktop/GD32VW553/V1_MQTT_OK/GD32VW55X_Wifi_BLE_SDK/GD32VW55x_RELEASE_V1.0.2/MSDK/wpa_supplicant/src/crypto\crypto_internal-cipher.c **** 	case CRYPTO_CIPHER_ALG_DES:
 209:C:/Users/stapi/OneDrive/Desktop/GD32VW553/V1_MQTT_OK/GD32VW55X_Wifi_BLE_SDK/GD32VW55x_RELEASE_V1.0.2/MSDK/wpa_supplicant/src/crypto\crypto_internal-cipher.c **** 		if (len % 8)
 210:C:/Users/stapi/OneDrive/Desktop/GD32VW553/V1_MQTT_OK/GD32VW55X_Wifi_BLE_SDK/GD32VW55x_RELEASE_V1.0.2/MSDK/wpa_supplicant/src/crypto\crypto_internal-cipher.c **** 			return -1;
 211:C:/Users/stapi/OneDrive/Desktop/GD32VW553/V1_MQTT_OK/GD32VW55X_Wifi_BLE_SDK/GD32VW55x_RELEASE_V1.0.2/MSDK/wpa_supplicant/src/crypto\crypto_internal-cipher.c **** 		blocks = len / 8;
 212:C:/Users/stapi/OneDrive/Desktop/GD32VW553/V1_MQTT_OK/GD32VW55X_Wifi_BLE_SDK/GD32VW55x_RELEASE_V1.0.2/MSDK/wpa_supplicant/src/crypto\crypto_internal-cipher.c **** 		for (i = 0; i < blocks; i++) {
 213:C:/Users/stapi/OneDrive/Desktop/GD32VW553/V1_MQTT_OK/GD32VW55X_Wifi_BLE_SDK/GD32VW55x_RELEASE_V1.0.2/MSDK/wpa_supplicant/src/crypto\crypto_internal-cipher.c **** 			os_memcpy(tmp, crypt, 8);
 214:C:/Users/stapi/OneDrive/Desktop/GD32VW553/V1_MQTT_OK/GD32VW55X_Wifi_BLE_SDK/GD32VW55x_RELEASE_V1.0.2/MSDK/wpa_supplicant/src/crypto\crypto_internal-cipher.c **** 			des_block_decrypt(crypt, ctx->u.des.dk, plain);
 215:C:/Users/stapi/OneDrive/Desktop/GD32VW553/V1_MQTT_OK/GD32VW55X_Wifi_BLE_SDK/GD32VW55x_RELEASE_V1.0.2/MSDK/wpa_supplicant/src/crypto\crypto_internal-cipher.c **** 			for (j = 0; j < 8; j++)
 216:C:/Users/stapi/OneDrive/Desktop/GD32VW553/V1_MQTT_OK/GD32VW55X_Wifi_BLE_SDK/GD32VW55x_RELEASE_V1.0.2/MSDK/wpa_supplicant/src/crypto\crypto_internal-cipher.c **** 				plain[j] ^= ctx->u.des.cbc[j];
 217:C:/Users/stapi/OneDrive/Desktop/GD32VW553/V1_MQTT_OK/GD32VW55X_Wifi_BLE_SDK/GD32VW55x_RELEASE_V1.0.2/MSDK/wpa_supplicant/src/crypto\crypto_internal-cipher.c **** 			os_memcpy(ctx->u.des.cbc, tmp, 8);
 218:C:/Users/stapi/OneDrive/Desktop/GD32VW553/V1_MQTT_OK/GD32VW55X_Wifi_BLE_SDK/GD32VW55x_RELEASE_V1.0.2/MSDK/wpa_supplicant/src/crypto\crypto_internal-cipher.c **** 			plain += 8;
 219:C:/Users/stapi/OneDrive/Desktop/GD32VW553/V1_MQTT_OK/GD32VW55X_Wifi_BLE_SDK/GD32VW55x_RELEASE_V1.0.2/MSDK/wpa_supplicant/src/crypto\crypto_internal-cipher.c **** 			crypt += 8;
 220:C:/Users/stapi/OneDrive/Desktop/GD32VW553/V1_MQTT_OK/GD32VW55X_Wifi_BLE_SDK/GD32VW55x_RELEASE_V1.0.2/MSDK/wpa_supplicant/src/crypto\crypto_internal-cipher.c **** 		}
 221:C:/Users/stapi/OneDrive/Desktop/GD32VW553/V1_MQTT_OK/GD32VW55X_Wifi_BLE_SDK/GD32VW55x_RELEASE_V1.0.2/MSDK/wpa_supplicant/src/crypto\crypto_internal-cipher.c **** 		break;
 222:C:/Users/stapi/OneDrive/Desktop/GD32VW553/V1_MQTT_OK/GD32VW55X_Wifi_BLE_SDK/GD32VW55x_RELEASE_V1.0.2/MSDK/wpa_supplicant/src/crypto\crypto_internal-cipher.c **** 	default:
 223:C:/Users/stapi/OneDrive/Desktop/GD32VW553/V1_MQTT_OK/GD32VW55X_Wifi_BLE_SDK/GD32VW55x_RELEASE_V1.0.2/MSDK/wpa_supplicant/src/crypto\crypto_internal-cipher.c **** 		return -1;
 224:C:/Users/stapi/OneDrive/Desktop/GD32VW553/V1_MQTT_OK/GD32VW55X_Wifi_BLE_SDK/GD32VW55x_RELEASE_V1.0.2/MSDK/wpa_supplicant/src/crypto\crypto_internal-cipher.c **** 	}
 225:C:/Users/stapi/OneDrive/Desktop/GD32VW553/V1_MQTT_OK/GD32VW55X_Wifi_BLE_SDK/GD32VW55x_RELEASE_V1.0.2/MSDK/wpa_supplicant/src/crypto\crypto_internal-cipher.c **** 
 226:C:/Users/stapi/OneDrive/Desktop/GD32VW553/V1_MQTT_OK/GD32VW55X_Wifi_BLE_SDK/GD32VW55x_RELEASE_V1.0.2/MSDK/wpa_supplicant/src/crypto\crypto_internal-cipher.c **** 	return 0;
 624              		.loc 1 226 9 is_stmt 0
 625 00c8 0145     		li	a0,0
 626              	.L44:
 227:C:/Users/stapi/OneDrive/Desktop/GD32VW553/V1_MQTT_OK/GD32VW55X_Wifi_BLE_SDK/GD32VW55x_RELEASE_V1.0.2/MSDK/wpa_supplicant/src/crypto\crypto_internal-cipher.c **** }
 627              		.loc 1 227 1
 628 00ca 0561     		addi	sp,sp,32
 629              		.cfi_remember_state
 630              		.cfi_def_cfa_offset 0
 631 00cc 17030000 		tail	__riscv_restore_5
 631      67000300 
 632              		.cfi_restore 20
 633              		.cfi_restore 19
 634              		.cfi_restore 18
 635              		.cfi_restore 9
 636              		.cfi_restore 8
 637              		.cfi_restore 1
 638              		.cfi_def_cfa_offset -32
 639              	.LVL71:
 640              	.L47:
 641              		.cfi_restore_state
 181:C:/Users/stapi/OneDrive/Desktop/GD32VW553/V1_MQTT_OK/GD32VW55X_Wifi_BLE_SDK/GD32VW55x_RELEASE_V1.0.2/MSDK/wpa_supplicant/src/crypto\crypto_internal-cipher.c **** 			return -1;
 642              		.loc 1 181 3 is_stmt 1
 181:C:/Users/stapi/OneDrive/Desktop/GD32VW553/V1_MQTT_OK/GD32VW55X_Wifi_BLE_SDK/GD32VW55x_RELEASE_V1.0.2/MSDK/wpa_supplicant/src/crypto\crypto_internal-cipher.c **** 			return -1;
 643              		.loc 1 181 11 is_stmt 0
 644 00d4 93F7F600 		andi	a5,a3,15
 182:C:/Users/stapi/OneDrive/Desktop/GD32VW553/V1_MQTT_OK/GD32VW55X_Wifi_BLE_SDK/GD32VW55x_RELEASE_V1.0.2/MSDK/wpa_supplicant/src/crypto\crypto_internal-cipher.c **** 		blocks = len / AES_BLOCK_SIZE;
 645              		.loc 1 182 11
 646 00d8 7D55     		li	a0,-1
 647              	.LVL72:
 181:C:/Users/stapi/OneDrive/Desktop/GD32VW553/V1_MQTT_OK/GD32VW55X_Wifi_BLE_SDK/GD32VW55x_RELEASE_V1.0.2/MSDK/wpa_supplicant/src/crypto\crypto_internal-cipher.c **** 			return -1;
 648              		.loc 1 181 6
 649 00da E5FB     		bne	a5,zero,.L44
 183:C:/Users/stapi/OneDrive/Desktop/GD32VW553/V1_MQTT_OK/GD32VW55X_Wifi_BLE_SDK/GD32VW55x_RELEASE_V1.0.2/MSDK/wpa_supplicant/src/crypto\crypto_internal-cipher.c **** 		for (i = 0; i < blocks; i++) {
 650              		.loc 1 183 3 is_stmt 1
 651              	.LVL73:
 184:C:/Users/stapi/OneDrive/Desktop/GD32VW553/V1_MQTT_OK/GD32VW55X_Wifi_BLE_SDK/GD32VW55x_RELEASE_V1.0.2/MSDK/wpa_supplicant/src/crypto\crypto_internal-cipher.c **** 			os_memcpy(tmp, crypt, AES_BLOCK_SIZE);
 652              		.loc 1 184 3
 653 00dc 93F406FF 		andi	s1,a3,-16
 654              	.LVL74:
 655 00e0 B294     		add	s1,a2,s1
 656              	.LVL75:
 657              	.L51:
 184:C:/Users/stapi/OneDrive/Desktop/GD32VW553/V1_MQTT_OK/GD32VW55X_Wifi_BLE_SDK/GD32VW55x_RELEASE_V1.0.2/MSDK/wpa_supplicant/src/crypto\crypto_internal-cipher.c **** 			os_memcpy(tmp, crypt, AES_BLOCK_SIZE);
 658              		.loc 1 184 15 discriminator 1
 184:C:/Users/stapi/OneDrive/Desktop/GD32VW553/V1_MQTT_OK/GD32VW55X_Wifi_BLE_SDK/GD32VW55x_RELEASE_V1.0.2/MSDK/wpa_supplicant/src/crypto\crypto_internal-cipher.c **** 			os_memcpy(tmp, crypt, AES_BLOCK_SIZE);
 659              		.loc 1 184 3 is_stmt 0 discriminator 1
 660 00e2 E30394FE 		beq	s0,s1,.L57
 185:C:/Users/stapi/OneDrive/Desktop/GD32VW553/V1_MQTT_OK/GD32VW55X_Wifi_BLE_SDK/GD32VW55x_RELEASE_V1.0.2/MSDK/wpa_supplicant/src/crypto\crypto_internal-cipher.c **** 			aes_decrypt(ctx->u.aes.ctx_dec, crypt, plain);
 661              		.loc 1 185 4 is_stmt 1
 662 00e6 4146     		li	a2,16
 663 00e8 CA85     		mv	a1,s2
 664 00ea 0A85     		mv	a0,sp
 665 00ec 97000000 		call	os_memcpy
 665      E7800000 
 666              	.LVL76:
 186:C:/Users/stapi/OneDrive/Desktop/GD32VW553/V1_MQTT_OK/GD32VW55X_Wifi_BLE_SDK/GD32VW55x_RELEASE_V1.0.2/MSDK/wpa_supplicant/src/crypto\crypto_internal-cipher.c **** 			for (j = 0; j < AES_BLOCK_SIZE; j++)
 667              		.loc 1 186 4
 668 00f4 03A58902 		lw	a0,40(s3)
 669 00f8 2286     		mv	a2,s0
 670 00fa CA85     		mv	a1,s2
 671 00fc 97000000 		call	aes_decrypt
 671      E7800000 
 672              	.LVL77:
 187:C:/Users/stapi/OneDrive/Desktop/GD32VW553/V1_MQTT_OK/GD32VW55X_Wifi_BLE_SDK/GD32VW55x_RELEASE_V1.0.2/MSDK/wpa_supplicant/src/crypto\crypto_internal-cipher.c **** 				plain[j] ^= ctx->u.aes.cbc[j];
 673              		.loc 1 187 4
 187:C:/Users/stapi/OneDrive/Desktop/GD32VW553/V1_MQTT_OK/GD32VW55X_Wifi_BLE_SDK/GD32VW55x_RELEASE_V1.0.2/MSDK/wpa_supplicant/src/crypto\crypto_internal-cipher.c **** 				plain[j] ^= ctx->u.aes.cbc[j];
 674              		.loc 1 187 16
 675 0104 93874900 		addi	a5,s3,4
 676 0108 3E85     		mv	a0,a5
 187:C:/Users/stapi/OneDrive/Desktop/GD32VW553/V1_MQTT_OK/GD32VW55X_Wifi_BLE_SDK/GD32VW55x_RELEASE_V1.0.2/MSDK/wpa_supplicant/src/crypto\crypto_internal-cipher.c **** 				plain[j] ^= ctx->u.aes.cbc[j];
 677              		.loc 1 187 4 is_stmt 0
 678 010a 93060401 		addi	a3,s0,16
 679              	.LVL78:
 680              	.L52:
 188:C:/Users/stapi/OneDrive/Desktop/GD32VW553/V1_MQTT_OK/GD32VW55X_Wifi_BLE_SDK/GD32VW55x_RELEASE_V1.0.2/MSDK/wpa_supplicant/src/crypto\crypto_internal-cipher.c **** 			os_memcpy(ctx->u.aes.cbc, tmp, AES_BLOCK_SIZE);
 681              		.loc 1 188 5 is_stmt 1 discriminator 3
 188:C:/Users/stapi/OneDrive/Desktop/GD32VW553/V1_MQTT_OK/GD32VW55X_Wifi_BLE_SDK/GD32VW55x_RELEASE_V1.0.2/MSDK/wpa_supplicant/src/crypto\crypto_internal-cipher.c **** 			os_memcpy(ctx->u.aes.cbc, tmp, AES_BLOCK_SIZE);
 682              		.loc 1 188 14 is_stmt 0 discriminator 3
 683 010e 03470400 		lbu	a4,0(s0)
 684 0112 03C60700 		lbu	a2,0(a5)
 187:C:/Users/stapi/OneDrive/Desktop/GD32VW553/V1_MQTT_OK/GD32VW55X_Wifi_BLE_SDK/GD32VW55x_RELEASE_V1.0.2/MSDK/wpa_supplicant/src/crypto\crypto_internal-cipher.c **** 				plain[j] ^= ctx->u.aes.cbc[j];
 685              		.loc 1 187 4 discriminator 3
 686 0116 0504     		addi	s0,s0,1
 687              	.LVL79:
 688 0118 8507     		addi	a5,a5,1
 188:C:/Users/stapi/OneDrive/Desktop/GD32VW553/V1_MQTT_OK/GD32VW55X_Wifi_BLE_SDK/GD32VW55x_RELEASE_V1.0.2/MSDK/wpa_supplicant/src/crypto\crypto_internal-cipher.c **** 			os_memcpy(ctx->u.aes.cbc, tmp, AES_BLOCK_SIZE);
 689              		.loc 1 188 14 discriminator 3
 690 011a 318F     		xor	a4,a4,a2
 691 011c A30FE4FE 		sb	a4,-1(s0)
 187:C:/Users/stapi/OneDrive/Desktop/GD32VW553/V1_MQTT_OK/GD32VW55X_Wifi_BLE_SDK/GD32VW55x_RELEASE_V1.0.2/MSDK/wpa_supplicant/src/crypto\crypto_internal-cipher.c **** 				plain[j] ^= ctx->u.aes.cbc[j];
 692              		.loc 1 187 36 is_stmt 1 discriminator 3
 693              	.LVL80:
 187:C:/Users/stapi/OneDrive/Desktop/GD32VW553/V1_MQTT_OK/GD32VW55X_Wifi_BLE_SDK/GD32VW55x_RELEASE_V1.0.2/MSDK/wpa_supplicant/src/crypto\crypto_internal-cipher.c **** 				plain[j] ^= ctx->u.aes.cbc[j];
 694              		.loc 1 187 16 discriminator 3
 187:C:/Users/stapi/OneDrive/Desktop/GD32VW553/V1_MQTT_OK/GD32VW55X_Wifi_BLE_SDK/GD32VW55x_RELEASE_V1.0.2/MSDK/wpa_supplicant/src/crypto\crypto_internal-cipher.c **** 				plain[j] ^= ctx->u.aes.cbc[j];
 695              		.loc 1 187 4 is_stmt 0 discriminator 3
 696 0120 E317D4FE 		bne	s0,a3,.L52
 189:C:/Users/stapi/OneDrive/Desktop/GD32VW553/V1_MQTT_OK/GD32VW55X_Wifi_BLE_SDK/GD32VW55x_RELEASE_V1.0.2/MSDK/wpa_supplicant/src/crypto\crypto_internal-cipher.c **** 			plain += AES_BLOCK_SIZE;
 697              		.loc 1 189 4 is_stmt 1 discriminator 2
 698 0124 4146     		li	a2,16
 699 0126 8A85     		mv	a1,sp
 700 0128 97000000 		call	os_memcpy
 700      E7800000 
 701              	.LVL81:
 190:C:/Users/stapi/OneDrive/Desktop/GD32VW553/V1_MQTT_OK/GD32VW55X_Wifi_BLE_SDK/GD32VW55x_RELEASE_V1.0.2/MSDK/wpa_supplicant/src/crypto\crypto_internal-cipher.c **** 			crypt += AES_BLOCK_SIZE;
 702              		.loc 1 190 4 discriminator 2
 191:C:/Users/stapi/OneDrive/Desktop/GD32VW553/V1_MQTT_OK/GD32VW55X_Wifi_BLE_SDK/GD32VW55x_RELEASE_V1.0.2/MSDK/wpa_supplicant/src/crypto\crypto_internal-cipher.c **** 		}
 703              		.loc 1 191 4 discriminator 2
 191:C:/Users/stapi/OneDrive/Desktop/GD32VW553/V1_MQTT_OK/GD32VW55X_Wifi_BLE_SDK/GD32VW55x_RELEASE_V1.0.2/MSDK/wpa_supplicant/src/crypto\crypto_internal-cipher.c **** 		}
 704              		.loc 1 191 10 is_stmt 0 discriminator 2
 705 0130 4109     		addi	s2,s2,16
 706              	.LVL82:
 184:C:/Users/stapi/OneDrive/Desktop/GD32VW553/V1_MQTT_OK/GD32VW55X_Wifi_BLE_SDK/GD32VW55x_RELEASE_V1.0.2/MSDK/wpa_supplicant/src/crypto\crypto_internal-cipher.c **** 			os_memcpy(tmp, crypt, AES_BLOCK_SIZE);
 707              		.loc 1 184 27 is_stmt 1 discriminator 2
 708 0132 45BF     		j	.L51
 709              	.LVL83:
 710              	.L45:
 209:C:/Users/stapi/OneDrive/Desktop/GD32VW553/V1_MQTT_OK/GD32VW55X_Wifi_BLE_SDK/GD32VW55x_RELEASE_V1.0.2/MSDK/wpa_supplicant/src/crypto\crypto_internal-cipher.c **** 			return -1;
 711              		.loc 1 209 3
 209:C:/Users/stapi/OneDrive/Desktop/GD32VW553/V1_MQTT_OK/GD32VW55X_Wifi_BLE_SDK/GD32VW55x_RELEASE_V1.0.2/MSDK/wpa_supplicant/src/crypto\crypto_internal-cipher.c **** 			return -1;
 712              		.loc 1 209 11 is_stmt 0
 713 0134 93F77600 		andi	a5,a3,7
 182:C:/Users/stapi/OneDrive/Desktop/GD32VW553/V1_MQTT_OK/GD32VW55X_Wifi_BLE_SDK/GD32VW55x_RELEASE_V1.0.2/MSDK/wpa_supplicant/src/crypto\crypto_internal-cipher.c **** 		blocks = len / AES_BLOCK_SIZE;
 714              		.loc 1 182 11
 715 0138 7D55     		li	a0,-1
 716              	.LVL84:
 209:C:/Users/stapi/OneDrive/Desktop/GD32VW553/V1_MQTT_OK/GD32VW55X_Wifi_BLE_SDK/GD32VW55x_RELEASE_V1.0.2/MSDK/wpa_supplicant/src/crypto\crypto_internal-cipher.c **** 			return -1;
 717              		.loc 1 209 6
 718 013a C1FB     		bne	a5,zero,.L44
 211:C:/Users/stapi/OneDrive/Desktop/GD32VW553/V1_MQTT_OK/GD32VW55X_Wifi_BLE_SDK/GD32VW55x_RELEASE_V1.0.2/MSDK/wpa_supplicant/src/crypto\crypto_internal-cipher.c **** 		for (i = 0; i < blocks; i++) {
 719              		.loc 1 211 3 is_stmt 1
 720              	.LVL85:
 212:C:/Users/stapi/OneDrive/Desktop/GD32VW553/V1_MQTT_OK/GD32VW55X_Wifi_BLE_SDK/GD32VW55x_RELEASE_V1.0.2/MSDK/wpa_supplicant/src/crypto\crypto_internal-cipher.c **** 			os_memcpy(tmp, crypt, 8);
 721              		.loc 1 212 3
 722 013c 93F486FF 		andi	s1,a3,-8
 723              	.LVL86:
 724 0140 B294     		add	s1,a2,s1
 214:C:/Users/stapi/OneDrive/Desktop/GD32VW553/V1_MQTT_OK/GD32VW55X_Wifi_BLE_SDK/GD32VW55x_RELEASE_V1.0.2/MSDK/wpa_supplicant/src/crypto\crypto_internal-cipher.c **** 			for (j = 0; j < 8; j++)
 725              		.loc 1 214 39 is_stmt 0
 726 0142 138A4908 		addi	s4,s3,132
 727              	.LVL87:
 728              	.L58:
 212:C:/Users/stapi/OneDrive/Desktop/GD32VW553/V1_MQTT_OK/GD32VW55X_Wifi_BLE_SDK/GD32VW55x_RELEASE_V1.0.2/MSDK/wpa_supplicant/src/crypto\crypto_internal-cipher.c **** 			os_memcpy(tmp, crypt, 8);
 729              		.loc 1 212 15 is_stmt 1 discriminator 1
 212:C:/Users/stapi/OneDrive/Desktop/GD32VW553/V1_MQTT_OK/GD32VW55X_Wifi_BLE_SDK/GD32VW55x_RELEASE_V1.0.2/MSDK/wpa_supplicant/src/crypto\crypto_internal-cipher.c **** 			os_memcpy(tmp, crypt, 8);
 730              		.loc 1 212 3 is_stmt 0 discriminator 1
 731 0146 E30194F8 		beq	s0,s1,.L57
 213:C:/Users/stapi/OneDrive/Desktop/GD32VW553/V1_MQTT_OK/GD32VW55X_Wifi_BLE_SDK/GD32VW55x_RELEASE_V1.0.2/MSDK/wpa_supplicant/src/crypto\crypto_internal-cipher.c **** 			des_block_decrypt(crypt, ctx->u.des.dk, plain);
 732              		.loc 1 213 4 is_stmt 1
 733 014a 2146     		li	a2,8
 734 014c CA85     		mv	a1,s2
 735 014e 0A85     		mv	a0,sp
 736 0150 97000000 		call	os_memcpy
 736      E7800000 
 737              	.LVL88:
 214:C:/Users/stapi/OneDrive/Desktop/GD32VW553/V1_MQTT_OK/GD32VW55X_Wifi_BLE_SDK/GD32VW55x_RELEASE_V1.0.2/MSDK/wpa_supplicant/src/crypto\crypto_internal-cipher.c **** 			for (j = 0; j < 8; j++)
 738              		.loc 1 214 4
 739 0158 4A85     		mv	a0,s2
 740 015a 2286     		mv	a2,s0
 741 015c D285     		mv	a1,s4
 742 015e 97000000 		call	des_block_decrypt
 742      E7800000 
 743              	.LVL89:
 215:C:/Users/stapi/OneDrive/Desktop/GD32VW553/V1_MQTT_OK/GD32VW55X_Wifi_BLE_SDK/GD32VW55x_RELEASE_V1.0.2/MSDK/wpa_supplicant/src/crypto\crypto_internal-cipher.c **** 				plain[j] ^= ctx->u.des.cbc[j];
 744              		.loc 1 215 4
 215:C:/Users/stapi/OneDrive/Desktop/GD32VW553/V1_MQTT_OK/GD32VW55X_Wifi_BLE_SDK/GD32VW55x_RELEASE_V1.0.2/MSDK/wpa_supplicant/src/crypto\crypto_internal-cipher.c **** 				plain[j] ^= ctx->u.des.cbc[j];
 745              		.loc 1 215 16
 746 0166 93874910 		addi	a5,s3,260
 747 016a 3E85     		mv	a0,a5
 215:C:/Users/stapi/OneDrive/Desktop/GD32VW553/V1_MQTT_OK/GD32VW55X_Wifi_BLE_SDK/GD32VW55x_RELEASE_V1.0.2/MSDK/wpa_supplicant/src/crypto\crypto_internal-cipher.c **** 				plain[j] ^= ctx->u.des.cbc[j];
 748              		.loc 1 215 4 is_stmt 0
 749 016c 93068400 		addi	a3,s0,8
 750              	.LVL90:
 751              	.L59:
 216:C:/Users/stapi/OneDrive/Desktop/GD32VW553/V1_MQTT_OK/GD32VW55X_Wifi_BLE_SDK/GD32VW55x_RELEASE_V1.0.2/MSDK/wpa_supplicant/src/crypto\crypto_internal-cipher.c **** 			os_memcpy(ctx->u.des.cbc, tmp, 8);
 752              		.loc 1 216 5 is_stmt 1 discriminator 3
 216:C:/Users/stapi/OneDrive/Desktop/GD32VW553/V1_MQTT_OK/GD32VW55X_Wifi_BLE_SDK/GD32VW55x_RELEASE_V1.0.2/MSDK/wpa_supplicant/src/crypto\crypto_internal-cipher.c **** 			os_memcpy(ctx->u.des.cbc, tmp, 8);
 753              		.loc 1 216 14 is_stmt 0 discriminator 3
 754 0170 03470400 		lbu	a4,0(s0)
 755 0174 03C60700 		lbu	a2,0(a5)
 215:C:/Users/stapi/OneDrive/Desktop/GD32VW553/V1_MQTT_OK/GD32VW55X_Wifi_BLE_SDK/GD32VW55x_RELEASE_V1.0.2/MSDK/wpa_supplicant/src/crypto\crypto_internal-cipher.c **** 				plain[j] ^= ctx->u.des.cbc[j];
 756              		.loc 1 215 4 discriminator 3
 757 0178 0504     		addi	s0,s0,1
 758              	.LVL91:
 759 017a 8507     		addi	a5,a5,1
 216:C:/Users/stapi/OneDrive/Desktop/GD32VW553/V1_MQTT_OK/GD32VW55X_Wifi_BLE_SDK/GD32VW55x_RELEASE_V1.0.2/MSDK/wpa_supplicant/src/crypto\crypto_internal-cipher.c **** 			os_memcpy(ctx->u.des.cbc, tmp, 8);
 760              		.loc 1 216 14 discriminator 3
 761 017c 318F     		xor	a4,a4,a2
 762 017e A30FE4FE 		sb	a4,-1(s0)
 215:C:/Users/stapi/OneDrive/Desktop/GD32VW553/V1_MQTT_OK/GD32VW55X_Wifi_BLE_SDK/GD32VW55x_RELEASE_V1.0.2/MSDK/wpa_supplicant/src/crypto\crypto_internal-cipher.c **** 				plain[j] ^= ctx->u.des.cbc[j];
 763              		.loc 1 215 23 is_stmt 1 discriminator 3
 764              	.LVL92:
 215:C:/Users/stapi/OneDrive/Desktop/GD32VW553/V1_MQTT_OK/GD32VW55X_Wifi_BLE_SDK/GD32VW55x_RELEASE_V1.0.2/MSDK/wpa_supplicant/src/crypto\crypto_internal-cipher.c **** 				plain[j] ^= ctx->u.des.cbc[j];
 765              		.loc 1 215 16 discriminator 3
 215:C:/Users/stapi/OneDrive/Desktop/GD32VW553/V1_MQTT_OK/GD32VW55X_Wifi_BLE_SDK/GD32VW55x_RELEASE_V1.0.2/MSDK/wpa_supplicant/src/crypto\crypto_internal-cipher.c **** 				plain[j] ^= ctx->u.des.cbc[j];
 766              		.loc 1 215 4 is_stmt 0 discriminator 3
 767 0182 E317D4FE 		bne	s0,a3,.L59
 217:C:/Users/stapi/OneDrive/Desktop/GD32VW553/V1_MQTT_OK/GD32VW55X_Wifi_BLE_SDK/GD32VW55x_RELEASE_V1.0.2/MSDK/wpa_supplicant/src/crypto\crypto_internal-cipher.c **** 			plain += 8;
 768              		.loc 1 217 4 is_stmt 1 discriminator 2
 769 0186 2146     		li	a2,8
 770 0188 8A85     		mv	a1,sp
 771 018a 97000000 		call	os_memcpy
 771      E7800000 
 772              	.LVL93:
 218:C:/Users/stapi/OneDrive/Desktop/GD32VW553/V1_MQTT_OK/GD32VW55X_Wifi_BLE_SDK/GD32VW55x_RELEASE_V1.0.2/MSDK/wpa_supplicant/src/crypto\crypto_internal-cipher.c **** 			crypt += 8;
 773              		.loc 1 218 4 discriminator 2
 219:C:/Users/stapi/OneDrive/Desktop/GD32VW553/V1_MQTT_OK/GD32VW55X_Wifi_BLE_SDK/GD32VW55x_RELEASE_V1.0.2/MSDK/wpa_supplicant/src/crypto\crypto_internal-cipher.c **** 		}
 774              		.loc 1 219 4 discriminator 2
 219:C:/Users/stapi/OneDrive/Desktop/GD32VW553/V1_MQTT_OK/GD32VW55X_Wifi_BLE_SDK/GD32VW55x_RELEASE_V1.0.2/MSDK/wpa_supplicant/src/crypto\crypto_internal-cipher.c **** 		}
 775              		.loc 1 219 10 is_stmt 0 discriminator 2
 776 0192 2109     		addi	s2,s2,8
 777              	.LVL94:
 212:C:/Users/stapi/OneDrive/Desktop/GD32VW553/V1_MQTT_OK/GD32VW55X_Wifi_BLE_SDK/GD32VW55x_RELEASE_V1.0.2/MSDK/wpa_supplicant/src/crypto\crypto_internal-cipher.c **** 			os_memcpy(tmp, crypt, 8);
 778              		.loc 1 212 27 is_stmt 1 discriminator 2
 779 0194 4DBF     		j	.L58
 780              		.cfi_endproc
 781              	.LFE73:
 783              		.section	.text.crypto_cipher_deinit,"ax",@progbits
 784              		.align	1
 785              		.globl	crypto_cipher_deinit
 787              	crypto_cipher_deinit:
 788              	.LFB74:
 228:C:/Users/stapi/OneDrive/Desktop/GD32VW553/V1_MQTT_OK/GD32VW55X_Wifi_BLE_SDK/GD32VW55x_RELEASE_V1.0.2/MSDK/wpa_supplicant/src/crypto\crypto_internal-cipher.c **** 
 229:C:/Users/stapi/OneDrive/Desktop/GD32VW553/V1_MQTT_OK/GD32VW55X_Wifi_BLE_SDK/GD32VW55x_RELEASE_V1.0.2/MSDK/wpa_supplicant/src/crypto\crypto_internal-cipher.c **** 
 230:C:/Users/stapi/OneDrive/Desktop/GD32VW553/V1_MQTT_OK/GD32VW55X_Wifi_BLE_SDK/GD32VW55x_RELEASE_V1.0.2/MSDK/wpa_supplicant/src/crypto\crypto_internal-cipher.c **** void crypto_cipher_deinit(struct crypto_cipher *ctx)
 231:C:/Users/stapi/OneDrive/Desktop/GD32VW553/V1_MQTT_OK/GD32VW55X_Wifi_BLE_SDK/GD32VW55x_RELEASE_V1.0.2/MSDK/wpa_supplicant/src/crypto\crypto_internal-cipher.c **** {
 789              		.loc 1 231 1
 790              		.cfi_startproc
 791              	.LVL95:
 792 0000 17030000 		call	t0,__riscv_save_1
 792      E7020300 
 793              		.cfi_offset 8, -8
 794              		.cfi_offset 1, -4
 795              		.cfi_def_cfa_offset 16
 232:C:/Users/stapi/OneDrive/Desktop/GD32VW553/V1_MQTT_OK/GD32VW55X_Wifi_BLE_SDK/GD32VW55x_RELEASE_V1.0.2/MSDK/wpa_supplicant/src/crypto\crypto_internal-cipher.c **** 	switch (ctx->alg) {
 796              		.loc 1 232 2
 797 0008 1841     		lw	a4,0(a0)
 798 000a 8547     		li	a5,1
 231:C:/Users/stapi/OneDrive/Desktop/GD32VW553/V1_MQTT_OK/GD32VW55X_Wifi_BLE_SDK/GD32VW55x_RELEASE_V1.0.2/MSDK/wpa_supplicant/src/crypto\crypto_internal-cipher.c **** 	switch (ctx->alg) {
 799              		.loc 1 231 1 is_stmt 0
 800 000c 2A84     		mv	s0,a0
 801              		.loc 1 232 2
 802 000e 631CF700 		bne	a4,a5,.L70
 233:C:/Users/stapi/OneDrive/Desktop/GD32VW553/V1_MQTT_OK/GD32VW55X_Wifi_BLE_SDK/GD32VW55x_RELEASE_V1.0.2/MSDK/wpa_supplicant/src/crypto\crypto_internal-cipher.c **** 	case CRYPTO_CIPHER_ALG_AES:
 234:C:/Users/stapi/OneDrive/Desktop/GD32VW553/V1_MQTT_OK/GD32VW55X_Wifi_BLE_SDK/GD32VW55x_RELEASE_V1.0.2/MSDK/wpa_supplicant/src/crypto\crypto_internal-cipher.c **** 		aes_encrypt_deinit(ctx->u.aes.ctx_enc);
 803              		.loc 1 234 3 is_stmt 1
 804 0012 4851     		lw	a0,36(a0)
 805              	.LVL96:
 806 0014 97000000 		call	aes_encrypt_deinit
 806      E7800000 
 807              	.LVL97:
 235:C:/Users/stapi/OneDrive/Desktop/GD32VW553/V1_MQTT_OK/GD32VW55X_Wifi_BLE_SDK/GD32VW55x_RELEASE_V1.0.2/MSDK/wpa_supplicant/src/crypto\crypto_internal-cipher.c **** 		aes_decrypt_deinit(ctx->u.aes.ctx_dec);
 808              		.loc 1 235 3
 809 001c 0854     		lw	a0,40(s0)
 810 001e 97000000 		call	aes_decrypt_deinit
 810      E7800000 
 811              	.LVL98:
 236:C:/Users/stapi/OneDrive/Desktop/GD32VW553/V1_MQTT_OK/GD32VW55X_Wifi_BLE_SDK/GD32VW55x_RELEASE_V1.0.2/MSDK/wpa_supplicant/src/crypto\crypto_internal-cipher.c **** 		break;
 812              		.loc 1 236 3
 813              	.L70:
 237:C:/Users/stapi/OneDrive/Desktop/GD32VW553/V1_MQTT_OK/GD32VW55X_Wifi_BLE_SDK/GD32VW55x_RELEASE_V1.0.2/MSDK/wpa_supplicant/src/crypto\crypto_internal-cipher.c **** 	case CRYPTO_CIPHER_ALG_3DES:
 238:C:/Users/stapi/OneDrive/Desktop/GD32VW553/V1_MQTT_OK/GD32VW55X_Wifi_BLE_SDK/GD32VW55x_RELEASE_V1.0.2/MSDK/wpa_supplicant/src/crypto\crypto_internal-cipher.c **** 		break;
 239:C:/Users/stapi/OneDrive/Desktop/GD32VW553/V1_MQTT_OK/GD32VW55X_Wifi_BLE_SDK/GD32VW55x_RELEASE_V1.0.2/MSDK/wpa_supplicant/src/crypto\crypto_internal-cipher.c **** 	default:
 240:C:/Users/stapi/OneDrive/Desktop/GD32VW553/V1_MQTT_OK/GD32VW55X_Wifi_BLE_SDK/GD32VW55x_RELEASE_V1.0.2/MSDK/wpa_supplicant/src/crypto\crypto_internal-cipher.c **** 		break;
 241:C:/Users/stapi/OneDrive/Desktop/GD32VW553/V1_MQTT_OK/GD32VW55X_Wifi_BLE_SDK/GD32VW55x_RELEASE_V1.0.2/MSDK/wpa_supplicant/src/crypto\crypto_internal-cipher.c **** 	}
 242:C:/Users/stapi/OneDrive/Desktop/GD32VW553/V1_MQTT_OK/GD32VW55X_Wifi_BLE_SDK/GD32VW55x_RELEASE_V1.0.2/MSDK/wpa_supplicant/src/crypto\crypto_internal-cipher.c **** 	os_free(ctx);
 814              		.loc 1 242 2
 815 0026 2285     		mv	a0,s0
 816 0028 97000000 		call	os_free
 816      E7800000 
 817              	.LVL99:
 243:C:/Users/stapi/OneDrive/Desktop/GD32VW553/V1_MQTT_OK/GD32VW55X_Wifi_BLE_SDK/GD32VW55x_RELEASE_V1.0.2/MSDK/wpa_supplicant/src/crypto\crypto_internal-cipher.c **** }
 818              		.loc 1 243 1 is_stmt 0
 819 0030 17030000 		tail	__riscv_restore_1
 819      67000300 
 820              		.cfi_restore 8
 821              		.cfi_restore 1
 822              		.cfi_def_cfa_offset 0
 823              		.cfi_endproc
 824              	.LFE74:
 826              		.text
 827              	.Letext0:
 828              		.file 2 "c:\\users\\stapi\\onedrive\\desktop\\gd32vw553\\embeddedbuilder_v1.4.7.26843\\tools\\nucl
 829              		.file 3 "c:\\users\\stapi\\onedrive\\desktop\\gd32vw553\\embeddedbuilder_v1.4.7.26843\\tools\\nucl
 830              		.file 4 "c:\\users\\stapi\\onedrive\\desktop\\gd32vw553\\embeddedbuilder_v1.4.7.26843\\tools\\nucl
 831              		.file 5 "..\\..\\..\\..\\wpa_supplicant\\src\\utils/common.h"
 832              		.file 6 "C:/Users/stapi/OneDrive/Desktop/GD32VW553/V1_MQTT_OK/GD32VW55X_Wifi_BLE_SDK/GD32VW55x_REL
 833              		.file 7 "C:/Users/stapi/OneDrive/Desktop/GD32VW553/V1_MQTT_OK/GD32VW55X_Wifi_BLE_SDK/GD32VW55x_REL
 834              		.file 8 "..\\..\\..\\..\\wpa_supplicant\\src\\utils/os.h"
 835              		.file 9 "C:/Users/stapi/OneDrive/Desktop/GD32VW553/V1_MQTT_OK/GD32VW55X_Wifi_BLE_SDK/GD32VW55x_REL
DEFINED SYMBOLS
                            *ABS*:0000000000000000 crypto_internal-cipher.c
C:\Users\stapi\AppData\Local\Temp\ccXXRulM.s:13     .text.crypto_cipher_init:0000000000000000 crypto_cipher_init
C:\Users\stapi\AppData\Local\Temp\ccXXRulM.s:17     .text.crypto_cipher_init:0000000000000000 .L0 
C:\Users\stapi\AppData\Local\Temp\ccXXRulM.s:19     .text.crypto_cipher_init:0000000000000000 .L0 
C:\Users\stapi\AppData\Local\Temp\ccXXRulM.s:20     .text.crypto_cipher_init:0000000000000008 .L0 
C:\Users\stapi\AppData\Local\Temp\ccXXRulM.s:21     .text.crypto_cipher_init:0000000000000008 .L0 
C:\Users\stapi\AppData\Local\Temp\ccXXRulM.s:22     .text.crypto_cipher_init:0000000000000008 .L0 
C:\Users\stapi\AppData\Local\Temp\ccXXRulM.s:23     .text.crypto_cipher_init:0000000000000008 .L0 
C:\Users\stapi\AppData\Local\Temp\ccXXRulM.s:24     .text.crypto_cipher_init:0000000000000008 .L0 
C:\Users\stapi\AppData\Local\Temp\ccXXRulM.s:25     .text.crypto_cipher_init:0000000000000008 .L0 
C:\Users\stapi\AppData\Local\Temp\ccXXRulM.s:26     .text.crypto_cipher_init:0000000000000008 .L0 
C:\Users\stapi\AppData\Local\Temp\ccXXRulM.s:28     .text.crypto_cipher_init:0000000000000008 .L0 
C:\Users\stapi\AppData\Local\Temp\ccXXRulM.s:29     .text.crypto_cipher_init:0000000000000008 .L0 
C:\Users\stapi\AppData\Local\Temp\ccXXRulM.s:30     .text.crypto_cipher_init:0000000000000008 .L0 
C:\Users\stapi\AppData\Local\Temp\ccXXRulM.s:32     .text.crypto_cipher_init:000000000000000a .L0 
C:\Users\stapi\AppData\Local\Temp\ccXXRulM.s:35     .text.crypto_cipher_init:000000000000000e .L0 
C:\Users\stapi\AppData\Local\Temp\ccXXRulM.s:39     .text.crypto_cipher_init:0000000000000014 .L0 
C:\Users\stapi\AppData\Local\Temp\ccXXRulM.s:44     .text.crypto_cipher_init:000000000000001e .L0 
C:\Users\stapi\AppData\Local\Temp\ccXXRulM.s:45     .text.crypto_cipher_init:000000000000001e .L0 
C:\Users\stapi\AppData\Local\Temp\ccXXRulM.s:47     .text.crypto_cipher_init:0000000000000020 .L0 
C:\Users\stapi\AppData\Local\Temp\ccXXRulM.s:48     .text.crypto_cipher_init:0000000000000020 .L0 
C:\Users\stapi\AppData\Local\Temp\ccXXRulM.s:50     .text.crypto_cipher_init:0000000000000024 .L0 
C:\Users\stapi\AppData\Local\Temp\ccXXRulM.s:59     .text.crypto_cipher_init:000000000000003a .L0 
C:\Users\stapi\AppData\Local\Temp\ccXXRulM.s:63     .text.crypto_cipher_init:000000000000003e .L0 
C:\Users\stapi\AppData\Local\Temp\ccXXRulM.s:66     .text.crypto_cipher_init:0000000000000044 .L0 
C:\Users\stapi\AppData\Local\Temp\ccXXRulM.s:67     .text.crypto_cipher_init:0000000000000044 .L0 
C:\Users\stapi\AppData\Local\Temp\ccXXRulM.s:71     .text.crypto_cipher_init:000000000000004a .L0 
C:\Users\stapi\AppData\Local\Temp\ccXXRulM.s:74     .text.crypto_cipher_init:0000000000000052 .L0 
C:\Users\stapi\AppData\Local\Temp\ccXXRulM.s:75     .text.crypto_cipher_init:0000000000000052 .L0 
C:\Users\stapi\AppData\Local\Temp\ccXXRulM.s:81     .text.crypto_cipher_init:0000000000000056 .L0 
C:\Users\stapi\AppData\Local\Temp\ccXXRulM.s:82     .text.crypto_cipher_init:0000000000000056 .L0 
C:\Users\stapi\AppData\Local\Temp\ccXXRulM.s:84     .text.crypto_cipher_init:0000000000000058 .L0 
C:\Users\stapi\AppData\Local\Temp\ccXXRulM.s:89     .text.crypto_cipher_init:000000000000005e .L0 
C:\Users\stapi\AppData\Local\Temp\ccXXRulM.s:93     .text.crypto_cipher_init:0000000000000066 .L0 
C:\Users\stapi\AppData\Local\Temp\ccXXRulM.s:94     .text.crypto_cipher_init:0000000000000066 .L0 
C:\Users\stapi\AppData\Local\Temp\ccXXRulM.s:96     .text.crypto_cipher_init:0000000000000070 .L0 
C:\Users\stapi\AppData\Local\Temp\ccXXRulM.s:97     .text.crypto_cipher_init:0000000000000070 .L0 
C:\Users\stapi\AppData\Local\Temp\ccXXRulM.s:98     .text.crypto_cipher_init:0000000000000070 .L0 
C:\Users\stapi\AppData\Local\Temp\ccXXRulM.s:99     .text.crypto_cipher_init:0000000000000070 .L0 
C:\Users\stapi\AppData\Local\Temp\ccXXRulM.s:100    .text.crypto_cipher_init:0000000000000070 .L0 
C:\Users\stapi\AppData\Local\Temp\ccXXRulM.s:101    .text.crypto_cipher_init:0000000000000070 .L0 
C:\Users\stapi\AppData\Local\Temp\ccXXRulM.s:102    .text.crypto_cipher_init:0000000000000070 .L0 
C:\Users\stapi\AppData\Local\Temp\ccXXRulM.s:103    .text.crypto_cipher_init:0000000000000070 .L0 
C:\Users\stapi\AppData\Local\Temp\ccXXRulM.s:106    .text.crypto_cipher_init:0000000000000070 .L0 
C:\Users\stapi\AppData\Local\Temp\ccXXRulM.s:108    .text.crypto_cipher_init:0000000000000070 .L0 
C:\Users\stapi\AppData\Local\Temp\ccXXRulM.s:109    .text.crypto_cipher_init:0000000000000070 .L0 
C:\Users\stapi\AppData\Local\Temp\ccXXRulM.s:114    .text.crypto_cipher_init:000000000000007c .L0 
C:\Users\stapi\AppData\Local\Temp\ccXXRulM.s:116    .text.crypto_cipher_init:000000000000007e .L0 
C:\Users\stapi\AppData\Local\Temp\ccXXRulM.s:117    .text.crypto_cipher_init:000000000000007e .L0 
C:\Users\stapi\AppData\Local\Temp\ccXXRulM.s:119    .text.crypto_cipher_init:0000000000000080 .L0 
C:\Users\stapi\AppData\Local\Temp\ccXXRulM.s:120    .text.crypto_cipher_init:0000000000000080 .L0 
C:\Users\stapi\AppData\Local\Temp\ccXXRulM.s:125    .text.crypto_cipher_init:000000000000008c .L0 
C:\Users\stapi\AppData\Local\Temp\ccXXRulM.s:127    .text.crypto_cipher_init:000000000000008e .L0 
C:\Users\stapi\AppData\Local\Temp\ccXXRulM.s:128    .text.crypto_cipher_init:000000000000008e .L0 
C:\Users\stapi\AppData\Local\Temp\ccXXRulM.s:130    .text.crypto_cipher_init:0000000000000090 .L0 
C:\Users\stapi\AppData\Local\Temp\ccXXRulM.s:134    .text.crypto_cipher_init:000000000000009a .L0 
C:\Users\stapi\AppData\Local\Temp\ccXXRulM.s:137    .text.crypto_cipher_init:000000000000009c .L0 
C:\Users\stapi\AppData\Local\Temp\ccXXRulM.s:143    .text.crypto_cipher_init:00000000000000a6 .L0 
C:\Users\stapi\AppData\Local\Temp\ccXXRulM.s:144    .text.crypto_cipher_init:00000000000000a6 .L0 
C:\Users\stapi\AppData\Local\Temp\ccXXRulM.s:147    .text.crypto_cipher_init:00000000000000ac .L0 
C:\Users\stapi\AppData\Local\Temp\ccXXRulM.s:152    .text.crypto_cipher_init:00000000000000ba .L0 
C:\Users\stapi\AppData\Local\Temp\ccXXRulM.s:158    .text.crypto_cipher_init:00000000000000c4 .L0 
C:\Users\stapi\AppData\Local\Temp\ccXXRulM.s:159    .text.crypto_cipher_init:00000000000000c4 .L0 
C:\Users\stapi\AppData\Local\Temp\ccXXRulM.s:162    .text.crypto_cipher_init:00000000000000ca .L0 
C:\Users\stapi\AppData\Local\Temp\ccXXRulM.s:168    .text.crypto_cipher_init:00000000000000dc .L0 
C:\Users\stapi\AppData\Local\Temp\ccXXRulM.s:172    .text.crypto_cipher_init:00000000000000e6 .L0 
C:\Users\stapi\AppData\Local\Temp\ccXXRulM.s:179    .text.crypto_cipher_encrypt:0000000000000000 crypto_cipher_encrypt
C:\Users\stapi\AppData\Local\Temp\ccXXRulM.s:182    .text.crypto_cipher_encrypt:0000000000000000 .L0 
C:\Users\stapi\AppData\Local\Temp\ccXXRulM.s:184    .text.crypto_cipher_encrypt:0000000000000000 .L0 
C:\Users\stapi\AppData\Local\Temp\ccXXRulM.s:185    .text.crypto_cipher_encrypt:0000000000000008 .L0 
C:\Users\stapi\AppData\Local\Temp\ccXXRulM.s:186    .text.crypto_cipher_encrypt:0000000000000008 .L0 
C:\Users\stapi\AppData\Local\Temp\ccXXRulM.s:187    .text.crypto_cipher_encrypt:0000000000000008 .L0 
C:\Users\stapi\AppData\Local\Temp\ccXXRulM.s:188    .text.crypto_cipher_encrypt:0000000000000008 .L0 
C:\Users\stapi\AppData\Local\Temp\ccXXRulM.s:189    .text.crypto_cipher_encrypt:0000000000000008 .L0 
C:\Users\stapi\AppData\Local\Temp\ccXXRulM.s:190    .text.crypto_cipher_encrypt:0000000000000008 .L0 
C:\Users\stapi\AppData\Local\Temp\ccXXRulM.s:191    .text.crypto_cipher_encrypt:0000000000000008 .L0 
C:\Users\stapi\AppData\Local\Temp\ccXXRulM.s:192    .text.crypto_cipher_encrypt:0000000000000008 .L0 
C:\Users\stapi\AppData\Local\Temp\ccXXRulM.s:193    .text.crypto_cipher_encrypt:0000000000000008 .L0 
C:\Users\stapi\AppData\Local\Temp\ccXXRulM.s:194    .text.crypto_cipher_encrypt:0000000000000008 .L0 
C:\Users\stapi\AppData\Local\Temp\ccXXRulM.s:195    .text.crypto_cipher_encrypt:0000000000000008 .L0 
C:\Users\stapi\AppData\Local\Temp\ccXXRulM.s:197    .text.crypto_cipher_encrypt:0000000000000008 .L0 
C:\Users\stapi\AppData\Local\Temp\ccXXRulM.s:198    .text.crypto_cipher_encrypt:0000000000000008 .L0 
C:\Users\stapi\AppData\Local\Temp\ccXXRulM.s:199    .text.crypto_cipher_encrypt:0000000000000008 .L0 
C:\Users\stapi\AppData\Local\Temp\ccXXRulM.s:201    .text.crypto_cipher_encrypt:000000000000000a .L0 
C:\Users\stapi\AppData\Local\Temp\ccXXRulM.s:203    .text.crypto_cipher_encrypt:000000000000000c .L0 
C:\Users\stapi\AppData\Local\Temp\ccXXRulM.s:204    .text.crypto_cipher_encrypt:000000000000000e .L0 
C:\Users\stapi\AppData\Local\Temp\ccXXRulM.s:206    .text.crypto_cipher_encrypt:000000000000000e .L0 
C:\Users\stapi\AppData\Local\Temp\ccXXRulM.s:211    .text.crypto_cipher_encrypt:0000000000000016 .L0 
C:\Users\stapi\AppData\Local\Temp\ccXXRulM.s:220    .text.crypto_cipher_encrypt:000000000000002c .L0 
C:\Users\stapi\AppData\Local\Temp\ccXXRulM.s:221    .text.crypto_cipher_encrypt:000000000000002c .L0 
C:\Users\stapi\AppData\Local\Temp\ccXXRulM.s:223    .text.crypto_cipher_encrypt:0000000000000030 .L0 
C:\Users\stapi\AppData\Local\Temp\ccXXRulM.s:225    .text.crypto_cipher_encrypt:0000000000000032 .L0 
C:\Users\stapi\AppData\Local\Temp\ccXXRulM.s:228    .text.crypto_cipher_encrypt:0000000000000034 .L0 
C:\Users\stapi\AppData\Local\Temp\ccXXRulM.s:229    .text.crypto_cipher_encrypt:0000000000000034 .L0 
C:\Users\stapi\AppData\Local\Temp\ccXXRulM.s:232    .text.crypto_cipher_encrypt:000000000000003a .L0 
C:\Users\stapi\AppData\Local\Temp\ccXXRulM.s:234    .text.crypto_cipher_encrypt:000000000000003c .L0 
C:\Users\stapi\AppData\Local\Temp\ccXXRulM.s:241    .text.crypto_cipher_encrypt:0000000000000048 .L0 
C:\Users\stapi\AppData\Local\Temp\ccXXRulM.s:242    .text.crypto_cipher_encrypt:0000000000000048 .L0 
C:\Users\stapi\AppData\Local\Temp\ccXXRulM.s:245    .text.crypto_cipher_encrypt:0000000000000050 .L0 
C:\Users\stapi\AppData\Local\Temp\ccXXRulM.s:250    .text.crypto_cipher_encrypt:0000000000000054 .L0 
C:\Users\stapi\AppData\Local\Temp\ccXXRulM.s:251    .text.crypto_cipher_encrypt:0000000000000054 .L0 
C:\Users\stapi\AppData\Local\Temp\ccXXRulM.s:253    .text.crypto_cipher_encrypt:0000000000000058 .L0 
C:\Users\stapi\AppData\Local\Temp\ccXXRulM.s:256    .text.crypto_cipher_encrypt:0000000000000060 .L0 
C:\Users\stapi\AppData\Local\Temp\ccXXRulM.s:259    .text.crypto_cipher_encrypt:0000000000000062 .L0 
C:\Users\stapi\AppData\Local\Temp\ccXXRulM.s:261    .text.crypto_cipher_encrypt:0000000000000064 .L0 
C:\Users\stapi\AppData\Local\Temp\ccXXRulM.s:265    .text.crypto_cipher_encrypt:000000000000006a .L0 
C:\Users\stapi\AppData\Local\Temp\ccXXRulM.s:266    .text.crypto_cipher_encrypt:000000000000006a .L0 
C:\Users\stapi\AppData\Local\Temp\ccXXRulM.s:267    .text.crypto_cipher_encrypt:000000000000006a .L0 
C:\Users\stapi\AppData\Local\Temp\ccXXRulM.s:269    .text.crypto_cipher_encrypt:000000000000006e .L0 
C:\Users\stapi\AppData\Local\Temp\ccXXRulM.s:276    .text.crypto_cipher_encrypt:000000000000007c .L0 
C:\Users\stapi\AppData\Local\Temp\ccXXRulM.s:282    .text.crypto_cipher_encrypt:000000000000008a .L0 
C:\Users\stapi\AppData\Local\Temp\ccXXRulM.s:283    .text.crypto_cipher_encrypt:000000000000008a .L0 
C:\Users\stapi\AppData\Local\Temp\ccXXRulM.s:284    .text.crypto_cipher_encrypt:000000000000008a .L0 
C:\Users\stapi\AppData\Local\Temp\ccXXRulM.s:290    .text.crypto_cipher_encrypt:000000000000008e .L0 
C:\Users\stapi\AppData\Local\Temp\ccXXRulM.s:294    .text.crypto_cipher_encrypt:0000000000000096 .L0 
C:\Users\stapi\AppData\Local\Temp\ccXXRulM.s:295    .text.crypto_cipher_encrypt:0000000000000096 .L0 
C:\Users\stapi\AppData\Local\Temp\ccXXRulM.s:297    .text.crypto_cipher_encrypt:000000000000009a .L0 
C:\Users\stapi\AppData\Local\Temp\ccXXRulM.s:304    .text.crypto_cipher_encrypt:00000000000000a6 .L0 
C:\Users\stapi\AppData\Local\Temp\ccXXRulM.s:312    .text.crypto_cipher_encrypt:00000000000000ba .L0 
C:\Users\stapi\AppData\Local\Temp\ccXXRulM.s:313    .text.crypto_cipher_encrypt:00000000000000ba .L0 
C:\Users\stapi\AppData\Local\Temp\ccXXRulM.s:319    .text.crypto_cipher_encrypt:00000000000000c0 .L0 
C:\Users\stapi\AppData\Local\Temp\ccXXRulM.s:320    .text.crypto_cipher_encrypt:00000000000000c0 .L0 
C:\Users\stapi\AppData\Local\Temp\ccXXRulM.s:323    .text.crypto_cipher_encrypt:00000000000000c2 .L0 
C:\Users\stapi\AppData\Local\Temp\ccXXRulM.s:324    .text.crypto_cipher_encrypt:00000000000000c4 .L0 
C:\Users\stapi\AppData\Local\Temp\ccXXRulM.s:325    .text.crypto_cipher_encrypt:00000000000000c4 .L0 
C:\Users\stapi\AppData\Local\Temp\ccXXRulM.s:327    .text.crypto_cipher_encrypt:00000000000000cc .L0 
C:\Users\stapi\AppData\Local\Temp\ccXXRulM.s:328    .text.crypto_cipher_encrypt:00000000000000cc .L0 
C:\Users\stapi\AppData\Local\Temp\ccXXRulM.s:329    .text.crypto_cipher_encrypt:00000000000000cc .L0 
C:\Users\stapi\AppData\Local\Temp\ccXXRulM.s:330    .text.crypto_cipher_encrypt:00000000000000cc .L0 
C:\Users\stapi\AppData\Local\Temp\ccXXRulM.s:331    .text.crypto_cipher_encrypt:00000000000000cc .L0 
C:\Users\stapi\AppData\Local\Temp\ccXXRulM.s:332    .text.crypto_cipher_encrypt:00000000000000cc .L0 
C:\Users\stapi\AppData\Local\Temp\ccXXRulM.s:333    .text.crypto_cipher_encrypt:00000000000000cc .L0 
C:\Users\stapi\AppData\Local\Temp\ccXXRulM.s:334    .text.crypto_cipher_encrypt:00000000000000cc .L0 
C:\Users\stapi\AppData\Local\Temp\ccXXRulM.s:335    .text.crypto_cipher_encrypt:00000000000000cc .L0 
C:\Users\stapi\AppData\Local\Temp\ccXXRulM.s:336    .text.crypto_cipher_encrypt:00000000000000cc .L0 
C:\Users\stapi\AppData\Local\Temp\ccXXRulM.s:337    .text.crypto_cipher_encrypt:00000000000000cc .L0 
C:\Users\stapi\AppData\Local\Temp\ccXXRulM.s:340    .text.crypto_cipher_encrypt:00000000000000cc .L0 
C:\Users\stapi\AppData\Local\Temp\ccXXRulM.s:342    .text.crypto_cipher_encrypt:00000000000000cc .L0 
C:\Users\stapi\AppData\Local\Temp\ccXXRulM.s:343    .text.crypto_cipher_encrypt:00000000000000cc .L0 
C:\Users\stapi\AppData\Local\Temp\ccXXRulM.s:345    .text.crypto_cipher_encrypt:00000000000000d0 .L0 
C:\Users\stapi\AppData\Local\Temp\ccXXRulM.s:347    .text.crypto_cipher_encrypt:00000000000000d2 .L0 
C:\Users\stapi\AppData\Local\Temp\ccXXRulM.s:350    .text.crypto_cipher_encrypt:00000000000000d4 .L0 
C:\Users\stapi\AppData\Local\Temp\ccXXRulM.s:351    .text.crypto_cipher_encrypt:00000000000000d4 .L0 
C:\Users\stapi\AppData\Local\Temp\ccXXRulM.s:355    .text.crypto_cipher_encrypt:00000000000000da .L0 
C:\Users\stapi\AppData\Local\Temp\ccXXRulM.s:362    .text.crypto_cipher_encrypt:00000000000000e4 .L0 
C:\Users\stapi\AppData\Local\Temp\ccXXRulM.s:363    .text.crypto_cipher_encrypt:00000000000000e4 .L0 
C:\Users\stapi\AppData\Local\Temp\ccXXRulM.s:366    .text.crypto_cipher_encrypt:00000000000000ec .L0 
C:\Users\stapi\AppData\Local\Temp\ccXXRulM.s:371    .text.crypto_cipher_encrypt:00000000000000f0 .L0 
C:\Users\stapi\AppData\Local\Temp\ccXXRulM.s:372    .text.crypto_cipher_encrypt:00000000000000f0 .L0 
C:\Users\stapi\AppData\Local\Temp\ccXXRulM.s:374    .text.crypto_cipher_encrypt:00000000000000f4 .L0 
C:\Users\stapi\AppData\Local\Temp\ccXXRulM.s:377    .text.crypto_cipher_encrypt:00000000000000fc .L0 
C:\Users\stapi\AppData\Local\Temp\ccXXRulM.s:380    .text.crypto_cipher_encrypt:00000000000000fe .L0 
C:\Users\stapi\AppData\Local\Temp\ccXXRulM.s:382    .text.crypto_cipher_encrypt:0000000000000100 .L0 
C:\Users\stapi\AppData\Local\Temp\ccXXRulM.s:386    .text.crypto_cipher_encrypt:0000000000000106 .L0 
C:\Users\stapi\AppData\Local\Temp\ccXXRulM.s:387    .text.crypto_cipher_encrypt:0000000000000106 .L0 
C:\Users\stapi\AppData\Local\Temp\ccXXRulM.s:388    .text.crypto_cipher_encrypt:0000000000000106 .L0 
C:\Users\stapi\AppData\Local\Temp\ccXXRulM.s:390    .text.crypto_cipher_encrypt:000000000000010a .L0 
C:\Users\stapi\AppData\Local\Temp\ccXXRulM.s:397    .text.crypto_cipher_encrypt:0000000000000118 .L0 
C:\Users\stapi\AppData\Local\Temp\ccXXRulM.s:403    .text.crypto_cipher_encrypt:0000000000000126 .L0 
C:\Users\stapi\AppData\Local\Temp\ccXXRulM.s:404    .text.crypto_cipher_encrypt:0000000000000126 .L0 
C:\Users\stapi\AppData\Local\Temp\ccXXRulM.s:405    .text.crypto_cipher_encrypt:0000000000000126 .L0 
C:\Users\stapi\AppData\Local\Temp\ccXXRulM.s:411    .text.crypto_cipher_encrypt:000000000000012a .L0 
C:\Users\stapi\AppData\Local\Temp\ccXXRulM.s:412    .text.crypto_cipher_encrypt:000000000000012a .L0 
C:\Users\stapi\AppData\Local\Temp\ccXXRulM.s:414    .text.crypto_cipher_encrypt:000000000000012e .L0 
C:\Users\stapi\AppData\Local\Temp\ccXXRulM.s:416    .text.crypto_cipher_encrypt:0000000000000130 .L0 
C:\Users\stapi\AppData\Local\Temp\ccXXRulM.s:419    .text.crypto_cipher_encrypt:0000000000000132 .L0 
C:\Users\stapi\AppData\Local\Temp\ccXXRulM.s:420    .text.crypto_cipher_encrypt:0000000000000132 .L0 
C:\Users\stapi\AppData\Local\Temp\ccXXRulM.s:424    .text.crypto_cipher_encrypt:0000000000000138 .L0 
C:\Users\stapi\AppData\Local\Temp\ccXXRulM.s:426    .text.crypto_cipher_encrypt:000000000000013a .L0 
C:\Users\stapi\AppData\Local\Temp\ccXXRulM.s:428    .text.crypto_cipher_encrypt:000000000000013e .L0 
C:\Users\stapi\AppData\Local\Temp\ccXXRulM.s:435    .text.crypto_cipher_encrypt:000000000000014a .L0 
C:\Users\stapi\AppData\Local\Temp\ccXXRulM.s:436    .text.crypto_cipher_encrypt:000000000000014a .L0 
C:\Users\stapi\AppData\Local\Temp\ccXXRulM.s:439    .text.crypto_cipher_encrypt:0000000000000152 .L0 
C:\Users\stapi\AppData\Local\Temp\ccXXRulM.s:443    .text.crypto_cipher_encrypt:0000000000000154 .L0 
C:\Users\stapi\AppData\Local\Temp\ccXXRulM.s:444    .text.crypto_cipher_encrypt:0000000000000154 .L0 
C:\Users\stapi\AppData\Local\Temp\ccXXRulM.s:446    .text.crypto_cipher_encrypt:0000000000000158 .L0 
C:\Users\stapi\AppData\Local\Temp\ccXXRulM.s:449    .text.crypto_cipher_encrypt:0000000000000160 .L0 
C:\Users\stapi\AppData\Local\Temp\ccXXRulM.s:452    .text.crypto_cipher_encrypt:0000000000000162 .L0 
C:\Users\stapi\AppData\Local\Temp\ccXXRulM.s:454    .text.crypto_cipher_encrypt:0000000000000164 .L0 
C:\Users\stapi\AppData\Local\Temp\ccXXRulM.s:458    .text.crypto_cipher_encrypt:000000000000016a .L0 
C:\Users\stapi\AppData\Local\Temp\ccXXRulM.s:459    .text.crypto_cipher_encrypt:000000000000016a .L0 
C:\Users\stapi\AppData\Local\Temp\ccXXRulM.s:460    .text.crypto_cipher_encrypt:000000000000016a .L0 
C:\Users\stapi\AppData\Local\Temp\ccXXRulM.s:462    .text.crypto_cipher_encrypt:000000000000016e .L0 
C:\Users\stapi\AppData\Local\Temp\ccXXRulM.s:469    .text.crypto_cipher_encrypt:000000000000017c .L0 
C:\Users\stapi\AppData\Local\Temp\ccXXRulM.s:475    .text.crypto_cipher_encrypt:000000000000018a .L0 
C:\Users\stapi\AppData\Local\Temp\ccXXRulM.s:476    .text.crypto_cipher_encrypt:000000000000018a .L0 
C:\Users\stapi\AppData\Local\Temp\ccXXRulM.s:477    .text.crypto_cipher_encrypt:000000000000018a .L0 
C:\Users\stapi\AppData\Local\Temp\ccXXRulM.s:480    .text.crypto_cipher_encrypt:000000000000018e .L0 
C:\Users\stapi\AppData\Local\Temp\ccXXRulM.s:487    .text.crypto_cipher_decrypt:0000000000000000 crypto_cipher_decrypt
C:\Users\stapi\AppData\Local\Temp\ccXXRulM.s:490    .text.crypto_cipher_decrypt:0000000000000000 .L0 
C:\Users\stapi\AppData\Local\Temp\ccXXRulM.s:492    .text.crypto_cipher_decrypt:0000000000000000 .L0 
C:\Users\stapi\AppData\Local\Temp\ccXXRulM.s:493    .text.crypto_cipher_decrypt:0000000000000008 .L0 
C:\Users\stapi\AppData\Local\Temp\ccXXRulM.s:494    .text.crypto_cipher_decrypt:0000000000000008 .L0 
C:\Users\stapi\AppData\Local\Temp\ccXXRulM.s:495    .text.crypto_cipher_decrypt:0000000000000008 .L0 
C:\Users\stapi\AppData\Local\Temp\ccXXRulM.s:496    .text.crypto_cipher_decrypt:0000000000000008 .L0 
C:\Users\stapi\AppData\Local\Temp\ccXXRulM.s:497    .text.crypto_cipher_decrypt:0000000000000008 .L0 
C:\Users\stapi\AppData\Local\Temp\ccXXRulM.s:498    .text.crypto_cipher_decrypt:0000000000000008 .L0 
C:\Users\stapi\AppData\Local\Temp\ccXXRulM.s:499    .text.crypto_cipher_decrypt:0000000000000008 .L0 
C:\Users\stapi\AppData\Local\Temp\ccXXRulM.s:501    .text.crypto_cipher_decrypt:0000000000000008 .L0 
C:\Users\stapi\AppData\Local\Temp\ccXXRulM.s:503    .text.crypto_cipher_decrypt:000000000000000a .L0 
C:\Users\stapi\AppData\Local\Temp\ccXXRulM.s:505    .text.crypto_cipher_decrypt:000000000000000c .L0 
C:\Users\stapi\AppData\Local\Temp\ccXXRulM.s:506    .text.crypto_cipher_decrypt:000000000000000e .L0 
C:\Users\stapi\AppData\Local\Temp\ccXXRulM.s:508    .text.crypto_cipher_decrypt:000000000000000e .L0 
C:\Users\stapi\AppData\Local\Temp\ccXXRulM.s:511    .text.crypto_cipher_decrypt:0000000000000012 .L0 
C:\Users\stapi\AppData\Local\Temp\ccXXRulM.s:512    .text.crypto_cipher_decrypt:0000000000000012 .L0 
C:\Users\stapi\AppData\Local\Temp\ccXXRulM.s:513    .text.crypto_cipher_decrypt:0000000000000012 .L0 
C:\Users\stapi\AppData\Local\Temp\ccXXRulM.s:514    .text.crypto_cipher_decrypt:0000000000000012 .L0 
C:\Users\stapi\AppData\Local\Temp\ccXXRulM.s:517    .text.crypto_cipher_decrypt:0000000000000016 .L0 
C:\Users\stapi\AppData\Local\Temp\ccXXRulM.s:526    .text.crypto_cipher_decrypt:000000000000002c .L0 
C:\Users\stapi\AppData\Local\Temp\ccXXRulM.s:527    .text.crypto_cipher_decrypt:000000000000002c .L0 
C:\Users\stapi\AppData\Local\Temp\ccXXRulM.s:529    .text.crypto_cipher_decrypt:0000000000000030 .L0 
C:\Users\stapi\AppData\Local\Temp\ccXXRulM.s:531    .text.crypto_cipher_decrypt:0000000000000032 .L0 
C:\Users\stapi\AppData\Local\Temp\ccXXRulM.s:534    .text.crypto_cipher_decrypt:0000000000000034 .L0 
C:\Users\stapi\AppData\Local\Temp\ccXXRulM.s:535    .text.crypto_cipher_decrypt:0000000000000034 .L0 
C:\Users\stapi\AppData\Local\Temp\ccXXRulM.s:538    .text.crypto_cipher_decrypt:000000000000003a .L0 
C:\Users\stapi\AppData\Local\Temp\ccXXRulM.s:542    .text.crypto_cipher_decrypt:000000000000003e .L0 
C:\Users\stapi\AppData\Local\Temp\ccXXRulM.s:543    .text.crypto_cipher_decrypt:000000000000003e .L0 
C:\Users\stapi\AppData\Local\Temp\ccXXRulM.s:545    .text.crypto_cipher_decrypt:0000000000000042 .L0 
C:\Users\stapi\AppData\Local\Temp\ccXXRulM.s:551    .text.crypto_cipher_decrypt:0000000000000050 .L0 
C:\Users\stapi\AppData\Local\Temp\ccXXRulM.s:557    .text.crypto_cipher_decrypt:000000000000005e .L0 
C:\Users\stapi\AppData\Local\Temp\ccXXRulM.s:558    .text.crypto_cipher_decrypt:000000000000005e .L0 
C:\Users\stapi\AppData\Local\Temp\ccXXRulM.s:561    .text.crypto_cipher_decrypt:0000000000000064 .L0 
C:\Users\stapi\AppData\Local\Temp\ccXXRulM.s:565    .text.crypto_cipher_decrypt:0000000000000068 .L0 
C:\Users\stapi\AppData\Local\Temp\ccXXRulM.s:566    .text.crypto_cipher_decrypt:0000000000000068 .L0 
C:\Users\stapi\AppData\Local\Temp\ccXXRulM.s:569    .text.crypto_cipher_decrypt:0000000000000070 .L0 
C:\Users\stapi\AppData\Local\Temp\ccXXRulM.s:573    .text.crypto_cipher_decrypt:0000000000000074 .L0 
C:\Users\stapi\AppData\Local\Temp\ccXXRulM.s:577    .text.crypto_cipher_decrypt:000000000000007a .L0 
C:\Users\stapi\AppData\Local\Temp\ccXXRulM.s:578    .text.crypto_cipher_decrypt:000000000000007a .L0 
C:\Users\stapi\AppData\Local\Temp\ccXXRulM.s:579    .text.crypto_cipher_decrypt:000000000000007a .L0 
C:\Users\stapi\AppData\Local\Temp\ccXXRulM.s:581    .text.crypto_cipher_decrypt:000000000000007e .L0 
C:\Users\stapi\AppData\Local\Temp\ccXXRulM.s:586    .text.crypto_cipher_decrypt:000000000000008a .L0 
C:\Users\stapi\AppData\Local\Temp\ccXXRulM.s:587    .text.crypto_cipher_decrypt:000000000000008a .L0 
C:\Users\stapi\AppData\Local\Temp\ccXXRulM.s:588    .text.crypto_cipher_decrypt:000000000000008a .L0 
C:\Users\stapi\AppData\Local\Temp\ccXXRulM.s:591    .text.crypto_cipher_decrypt:000000000000008c .L0 
C:\Users\stapi\AppData\Local\Temp\ccXXRulM.s:595    .text.crypto_cipher_decrypt:000000000000008e .L0 
C:\Users\stapi\AppData\Local\Temp\ccXXRulM.s:600    .text.crypto_cipher_decrypt:0000000000000096 .L0 
C:\Users\stapi\AppData\Local\Temp\ccXXRulM.s:601    .text.crypto_cipher_decrypt:0000000000000096 .L0 
C:\Users\stapi\AppData\Local\Temp\ccXXRulM.s:603    .text.crypto_cipher_decrypt:000000000000009a .L0 
C:\Users\stapi\AppData\Local\Temp\ccXXRulM.s:609    .text.crypto_cipher_decrypt:00000000000000a6 .L0 
C:\Users\stapi\AppData\Local\Temp\ccXXRulM.s:617    .text.crypto_cipher_decrypt:00000000000000be .L0 
C:\Users\stapi\AppData\Local\Temp\ccXXRulM.s:618    .text.crypto_cipher_decrypt:00000000000000be .L0 
C:\Users\stapi\AppData\Local\Temp\ccXXRulM.s:624    .text.crypto_cipher_decrypt:00000000000000c8 .L0 
C:\Users\stapi\AppData\Local\Temp\ccXXRulM.s:625    .text.crypto_cipher_decrypt:00000000000000c8 .L0 
C:\Users\stapi\AppData\Local\Temp\ccXXRulM.s:628    .text.crypto_cipher_decrypt:00000000000000ca .L0 
C:\Users\stapi\AppData\Local\Temp\ccXXRulM.s:629    .text.crypto_cipher_decrypt:00000000000000cc .L0 
C:\Users\stapi\AppData\Local\Temp\ccXXRulM.s:630    .text.crypto_cipher_decrypt:00000000000000cc .L0 
C:\Users\stapi\AppData\Local\Temp\ccXXRulM.s:632    .text.crypto_cipher_decrypt:00000000000000d4 .L0 
C:\Users\stapi\AppData\Local\Temp\ccXXRulM.s:633    .text.crypto_cipher_decrypt:00000000000000d4 .L0 
C:\Users\stapi\AppData\Local\Temp\ccXXRulM.s:634    .text.crypto_cipher_decrypt:00000000000000d4 .L0 
C:\Users\stapi\AppData\Local\Temp\ccXXRulM.s:635    .text.crypto_cipher_decrypt:00000000000000d4 .L0 
C:\Users\stapi\AppData\Local\Temp\ccXXRulM.s:636    .text.crypto_cipher_decrypt:00000000000000d4 .L0 
C:\Users\stapi\AppData\Local\Temp\ccXXRulM.s:637    .text.crypto_cipher_decrypt:00000000000000d4 .L0 
C:\Users\stapi\AppData\Local\Temp\ccXXRulM.s:638    .text.crypto_cipher_decrypt:00000000000000d4 .L0 
C:\Users\stapi\AppData\Local\Temp\ccXXRulM.s:641    .text.crypto_cipher_decrypt:00000000000000d4 .L0 
C:\Users\stapi\AppData\Local\Temp\ccXXRulM.s:643    .text.crypto_cipher_decrypt:00000000000000d4 .L0 
C:\Users\stapi\AppData\Local\Temp\ccXXRulM.s:644    .text.crypto_cipher_decrypt:00000000000000d4 .L0 
C:\Users\stapi\AppData\Local\Temp\ccXXRulM.s:646    .text.crypto_cipher_decrypt:00000000000000d8 .L0 
C:\Users\stapi\AppData\Local\Temp\ccXXRulM.s:649    .text.crypto_cipher_decrypt:00000000000000da .L0 
C:\Users\stapi\AppData\Local\Temp\ccXXRulM.s:652    .text.crypto_cipher_decrypt:00000000000000dc .L0 
C:\Users\stapi\AppData\Local\Temp\ccXXRulM.s:653    .text.crypto_cipher_decrypt:00000000000000dc .L0 
C:\Users\stapi\AppData\Local\Temp\ccXXRulM.s:659    .text.crypto_cipher_decrypt:00000000000000e2 .L0 
C:\Users\stapi\AppData\Local\Temp\ccXXRulM.s:660    .text.crypto_cipher_decrypt:00000000000000e2 .L0 
C:\Users\stapi\AppData\Local\Temp\ccXXRulM.s:662    .text.crypto_cipher_decrypt:00000000000000e6 .L0 
C:\Users\stapi\AppData\Local\Temp\ccXXRulM.s:668    .text.crypto_cipher_decrypt:00000000000000f4 .L0 
C:\Users\stapi\AppData\Local\Temp\ccXXRulM.s:674    .text.crypto_cipher_decrypt:0000000000000104 .L0 
C:\Users\stapi\AppData\Local\Temp\ccXXRulM.s:675    .text.crypto_cipher_decrypt:0000000000000104 .L0 
C:\Users\stapi\AppData\Local\Temp\ccXXRulM.s:678    .text.crypto_cipher_decrypt:000000000000010a .L0 
C:\Users\stapi\AppData\Local\Temp\ccXXRulM.s:682    .text.crypto_cipher_decrypt:000000000000010e .L0 
C:\Users\stapi\AppData\Local\Temp\ccXXRulM.s:683    .text.crypto_cipher_decrypt:000000000000010e .L0 
C:\Users\stapi\AppData\Local\Temp\ccXXRulM.s:686    .text.crypto_cipher_decrypt:0000000000000116 .L0 
C:\Users\stapi\AppData\Local\Temp\ccXXRulM.s:690    .text.crypto_cipher_decrypt:000000000000011a .L0 
C:\Users\stapi\AppData\Local\Temp\ccXXRulM.s:694    .text.crypto_cipher_decrypt:0000000000000120 .L0 
C:\Users\stapi\AppData\Local\Temp\ccXXRulM.s:695    .text.crypto_cipher_decrypt:0000000000000120 .L0 
C:\Users\stapi\AppData\Local\Temp\ccXXRulM.s:696    .text.crypto_cipher_decrypt:0000000000000120 .L0 
C:\Users\stapi\AppData\Local\Temp\ccXXRulM.s:698    .text.crypto_cipher_decrypt:0000000000000124 .L0 
C:\Users\stapi\AppData\Local\Temp\ccXXRulM.s:703    .text.crypto_cipher_decrypt:0000000000000130 .L0 
C:\Users\stapi\AppData\Local\Temp\ccXXRulM.s:704    .text.crypto_cipher_decrypt:0000000000000130 .L0 
C:\Users\stapi\AppData\Local\Temp\ccXXRulM.s:705    .text.crypto_cipher_decrypt:0000000000000130 .L0 
C:\Users\stapi\AppData\Local\Temp\ccXXRulM.s:708    .text.crypto_cipher_decrypt:0000000000000132 .L0 
C:\Users\stapi\AppData\Local\Temp\ccXXRulM.s:712    .text.crypto_cipher_decrypt:0000000000000134 .L0 
C:\Users\stapi\AppData\Local\Temp\ccXXRulM.s:713    .text.crypto_cipher_decrypt:0000000000000134 .L0 
C:\Users\stapi\AppData\Local\Temp\ccXXRulM.s:715    .text.crypto_cipher_decrypt:0000000000000138 .L0 
C:\Users\stapi\AppData\Local\Temp\ccXXRulM.s:718    .text.crypto_cipher_decrypt:000000000000013a .L0 
C:\Users\stapi\AppData\Local\Temp\ccXXRulM.s:721    .text.crypto_cipher_decrypt:000000000000013c .L0 
C:\Users\stapi\AppData\Local\Temp\ccXXRulM.s:722    .text.crypto_cipher_decrypt:000000000000013c .L0 
C:\Users\stapi\AppData\Local\Temp\ccXXRulM.s:726    .text.crypto_cipher_decrypt:0000000000000142 .L0 
C:\Users\stapi\AppData\Local\Temp\ccXXRulM.s:730    .text.crypto_cipher_decrypt:0000000000000146 .L0 
C:\Users\stapi\AppData\Local\Temp\ccXXRulM.s:731    .text.crypto_cipher_decrypt:0000000000000146 .L0 
C:\Users\stapi\AppData\Local\Temp\ccXXRulM.s:733    .text.crypto_cipher_decrypt:000000000000014a .L0 
C:\Users\stapi\AppData\Local\Temp\ccXXRulM.s:739    .text.crypto_cipher_decrypt:0000000000000158 .L0 
C:\Users\stapi\AppData\Local\Temp\ccXXRulM.s:745    .text.crypto_cipher_decrypt:0000000000000166 .L0 
C:\Users\stapi\AppData\Local\Temp\ccXXRulM.s:746    .text.crypto_cipher_decrypt:0000000000000166 .L0 
C:\Users\stapi\AppData\Local\Temp\ccXXRulM.s:749    .text.crypto_cipher_decrypt:000000000000016c .L0 
C:\Users\stapi\AppData\Local\Temp\ccXXRulM.s:753    .text.crypto_cipher_decrypt:0000000000000170 .L0 
C:\Users\stapi\AppData\Local\Temp\ccXXRulM.s:754    .text.crypto_cipher_decrypt:0000000000000170 .L0 
C:\Users\stapi\AppData\Local\Temp\ccXXRulM.s:757    .text.crypto_cipher_decrypt:0000000000000178 .L0 
C:\Users\stapi\AppData\Local\Temp\ccXXRulM.s:761    .text.crypto_cipher_decrypt:000000000000017c .L0 
C:\Users\stapi\AppData\Local\Temp\ccXXRulM.s:765    .text.crypto_cipher_decrypt:0000000000000182 .L0 
C:\Users\stapi\AppData\Local\Temp\ccXXRulM.s:766    .text.crypto_cipher_decrypt:0000000000000182 .L0 
C:\Users\stapi\AppData\Local\Temp\ccXXRulM.s:767    .text.crypto_cipher_decrypt:0000000000000182 .L0 
C:\Users\stapi\AppData\Local\Temp\ccXXRulM.s:769    .text.crypto_cipher_decrypt:0000000000000186 .L0 
C:\Users\stapi\AppData\Local\Temp\ccXXRulM.s:774    .text.crypto_cipher_decrypt:0000000000000192 .L0 
C:\Users\stapi\AppData\Local\Temp\ccXXRulM.s:775    .text.crypto_cipher_decrypt:0000000000000192 .L0 
C:\Users\stapi\AppData\Local\Temp\ccXXRulM.s:776    .text.crypto_cipher_decrypt:0000000000000192 .L0 
C:\Users\stapi\AppData\Local\Temp\ccXXRulM.s:779    .text.crypto_cipher_decrypt:0000000000000194 .L0 
C:\Users\stapi\AppData\Local\Temp\ccXXRulM.s:780    .text.crypto_cipher_decrypt:0000000000000196 .L0 
C:\Users\stapi\AppData\Local\Temp\ccXXRulM.s:787    .text.crypto_cipher_deinit:0000000000000000 crypto_cipher_deinit
C:\Users\stapi\AppData\Local\Temp\ccXXRulM.s:790    .text.crypto_cipher_deinit:0000000000000000 .L0 
C:\Users\stapi\AppData\Local\Temp\ccXXRulM.s:792    .text.crypto_cipher_deinit:0000000000000000 .L0 
C:\Users\stapi\AppData\Local\Temp\ccXXRulM.s:793    .text.crypto_cipher_deinit:0000000000000008 .L0 
C:\Users\stapi\AppData\Local\Temp\ccXXRulM.s:794    .text.crypto_cipher_deinit:0000000000000008 .L0 
C:\Users\stapi\AppData\Local\Temp\ccXXRulM.s:795    .text.crypto_cipher_deinit:0000000000000008 .L0 
C:\Users\stapi\AppData\Local\Temp\ccXXRulM.s:797    .text.crypto_cipher_deinit:0000000000000008 .L0 
C:\Users\stapi\AppData\Local\Temp\ccXXRulM.s:800    .text.crypto_cipher_deinit:000000000000000c .L0 
C:\Users\stapi\AppData\Local\Temp\ccXXRulM.s:802    .text.crypto_cipher_deinit:000000000000000e .L0 
C:\Users\stapi\AppData\Local\Temp\ccXXRulM.s:804    .text.crypto_cipher_deinit:0000000000000012 .L0 
C:\Users\stapi\AppData\Local\Temp\ccXXRulM.s:809    .text.crypto_cipher_deinit:000000000000001c .L0 
C:\Users\stapi\AppData\Local\Temp\ccXXRulM.s:814    .text.crypto_cipher_deinit:0000000000000026 .L0 
C:\Users\stapi\AppData\Local\Temp\ccXXRulM.s:815    .text.crypto_cipher_deinit:0000000000000026 .L0 
C:\Users\stapi\AppData\Local\Temp\ccXXRulM.s:819    .text.crypto_cipher_deinit:0000000000000030 .L0 
C:\Users\stapi\AppData\Local\Temp\ccXXRulM.s:820    .text.crypto_cipher_deinit:0000000000000038 .L0 
C:\Users\stapi\AppData\Local\Temp\ccXXRulM.s:821    .text.crypto_cipher_deinit:0000000000000038 .L0 
C:\Users\stapi\AppData\Local\Temp\ccXXRulM.s:822    .text.crypto_cipher_deinit:0000000000000038 .L0 
C:\Users\stapi\AppData\Local\Temp\ccXXRulM.s:823    .text.crypto_cipher_deinit:0000000000000038 .L0 
C:\Users\stapi\AppData\Local\Temp\ccXXRulM.s:175    .text.crypto_cipher_init:00000000000000e6 .L0 
C:\Users\stapi\AppData\Local\Temp\ccXXRulM.s:483    .text.crypto_cipher_encrypt:000000000000018e .L0 
C:\Users\stapi\AppData\Local\Temp\ccXXRulM.s:783    .text.crypto_cipher_decrypt:0000000000000196 .L0 
C:\Users\stapi\AppData\Local\Temp\ccXXRulM.s:826    .text.crypto_cipher_deinit:0000000000000038 .L0 
                     .debug_frame:0000000000000000 .L0 
C:\Users\stapi\AppData\Local\Temp\ccXXRulM.s:92     .text.crypto_cipher_init:0000000000000066 .L1
C:\Users\stapi\AppData\Local\Temp\ccXXRulM.s:156    .text.crypto_cipher_init:00000000000000c4 .L3
C:\Users\stapi\AppData\Local\Temp\ccXXRulM.s:61     .text.crypto_cipher_init:000000000000003e .L4
C:\Users\stapi\AppData\Local\Temp\ccXXRulM.s:105    .text.crypto_cipher_init:0000000000000070 .L5
C:\Users\stapi\AppData\Local\Temp\ccXXRulM.s:141    .text.crypto_cipher_init:00000000000000a6 .L6
C:\Users\stapi\AppData\Local\Temp\ccXXRulM.s:69     .text.crypto_cipher_init:000000000000004a .L17
C:\Users\stapi\AppData\Local\Temp\ccXXRulM.s:57     .text.crypto_cipher_init:000000000000003a .L7
C:\Users\stapi\AppData\Local\Temp\ccXXRulM.s:79     .text.crypto_cipher_init:0000000000000056 .L8
C:\Users\stapi\AppData\Local\Temp\ccXXRulM.s:135    .text.crypto_cipher_init:000000000000009c .L10
C:\Users\stapi\AppData\Local\Temp\ccXXRulM.s:87     .text.crypto_cipher_init:000000000000005e .L18
C:\Users\stapi\AppData\Local\Temp\ccXXRulM.s:409    .text.crypto_cipher_encrypt:000000000000012a .L20
C:\Users\stapi\AppData\Local\Temp\ccXXRulM.s:288    .text.crypto_cipher_encrypt:000000000000008e .L21
C:\Users\stapi\AppData\Local\Temp\ccXXRulM.s:339    .text.crypto_cipher_encrypt:00000000000000cc .L22
C:\Users\stapi\AppData\Local\Temp\ccXXRulM.s:321    .text.crypto_cipher_encrypt:00000000000000c2 .L19
C:\Users\stapi\AppData\Local\Temp\ccXXRulM.s:318    .text.crypto_cipher_encrypt:00000000000000c0 .L32
C:\Users\stapi\AppData\Local\Temp\ccXXRulM.s:247    .text.crypto_cipher_encrypt:0000000000000054 .L30
C:\Users\stapi\AppData\Local\Temp\ccXXRulM.s:236    .text.crypto_cipher_encrypt:0000000000000040 .L29
C:\Users\stapi\AppData\Local\Temp\ccXXRulM.s:302    .text.crypto_cipher_encrypt:00000000000000a6 .L25
C:\Users\stapi\AppData\Local\Temp\ccXXRulM.s:368    .text.crypto_cipher_encrypt:00000000000000f0 .L27
C:\Users\stapi\AppData\Local\Temp\ccXXRulM.s:357    .text.crypto_cipher_encrypt:00000000000000dc .L26
C:\Users\stapi\AppData\Local\Temp\ccXXRulM.s:440    .text.crypto_cipher_encrypt:0000000000000154 .L34
C:\Users\stapi\AppData\Local\Temp\ccXXRulM.s:430    .text.crypto_cipher_encrypt:0000000000000142 .L33
C:\Users\stapi\AppData\Local\Temp\ccXXRulM.s:710    .text.crypto_cipher_decrypt:0000000000000134 .L45
C:\Users\stapi\AppData\Local\Temp\ccXXRulM.s:593    .text.crypto_cipher_decrypt:000000000000008e .L46
C:\Users\stapi\AppData\Local\Temp\ccXXRulM.s:640    .text.crypto_cipher_decrypt:00000000000000d4 .L47
C:\Users\stapi\AppData\Local\Temp\ccXXRulM.s:626    .text.crypto_cipher_decrypt:00000000000000ca .L44
C:\Users\stapi\AppData\Local\Temp\ccXXRulM.s:623    .text.crypto_cipher_decrypt:00000000000000c8 .L57
C:\Users\stapi\AppData\Local\Temp\ccXXRulM.s:563    .text.crypto_cipher_decrypt:0000000000000068 .L55
C:\Users\stapi\AppData\Local\Temp\ccXXRulM.s:540    .text.crypto_cipher_decrypt:000000000000003e .L54
C:\Users\stapi\AppData\Local\Temp\ccXXRulM.s:607    .text.crypto_cipher_decrypt:00000000000000a6 .L50
C:\Users\stapi\AppData\Local\Temp\ccXXRulM.s:680    .text.crypto_cipher_decrypt:000000000000010e .L52
C:\Users\stapi\AppData\Local\Temp\ccXXRulM.s:657    .text.crypto_cipher_decrypt:00000000000000e2 .L51
C:\Users\stapi\AppData\Local\Temp\ccXXRulM.s:751    .text.crypto_cipher_decrypt:0000000000000170 .L59
C:\Users\stapi\AppData\Local\Temp\ccXXRulM.s:728    .text.crypto_cipher_decrypt:0000000000000146 .L58
C:\Users\stapi\AppData\Local\Temp\ccXXRulM.s:813    .text.crypto_cipher_deinit:0000000000000026 .L70
C:\Users\stapi\AppData\Local\Temp\ccXXRulM.s:1992   .debug_abbrev:0000000000000000 .Ldebug_abbrev0
C:\Users\stapi\AppData\Local\Temp\ccXXRulM.s:3413   .debug_str:000000000000019d .LASF52
C:\Users\stapi\AppData\Local\Temp\ccXXRulM.s:3427   .debug_str:00000000000002cf .LASF53
C:\Users\stapi\AppData\Local\Temp\ccXXRulM.s:3383   .debug_str:0000000000000043 .LASF54
C:\Users\stapi\AppData\Local\Temp\ccXXRulM.s:3359   .debug_ranges:0000000000000000 .Ldebug_ranges0
C:\Users\stapi\AppData\Local\Temp\ccXXRulM.s:3371   .debug_line:0000000000000000 .Ldebug_line0
C:\Users\stapi\AppData\Local\Temp\ccXXRulM.s:3381   .debug_str:000000000000003c .LASF2
C:\Users\stapi\AppData\Local\Temp\ccXXRulM.s:3449   .debug_str:00000000000003f9 .LASF0
C:\Users\stapi\AppData\Local\Temp\ccXXRulM.s:3439   .debug_str:00000000000003c0 .LASF1
C:\Users\stapi\AppData\Local\Temp\ccXXRulM.s:3425   .debug_str:00000000000002c5 .LASF3
C:\Users\stapi\AppData\Local\Temp\ccXXRulM.s:3435   .debug_str:00000000000003a8 .LASF4
C:\Users\stapi\AppData\Local\Temp\ccXXRulM.s:3379   .debug_str:0000000000000032 .LASF5
C:\Users\stapi\AppData\Local\Temp\ccXXRulM.s:3451   .debug_str:0000000000000406 .LASF6
C:\Users\stapi\AppData\Local\Temp\ccXXRulM.s:3419   .debug_str:00000000000002a9 .LASF7
C:\Users\stapi\AppData\Local\Temp\ccXXRulM.s:3387   .debug_str:00000000000000e3 .LASF8
C:\Users\stapi\AppData\Local\Temp\ccXXRulM.s:3465   .debug_str:0000000000000469 .LASF9
C:\Users\stapi\AppData\Local\Temp\ccXXRulM.s:3415   .debug_str:0000000000000296 .LASF10
C:\Users\stapi\AppData\Local\Temp\ccXXRulM.s:3441   .debug_str:00000000000003cc .LASF11
C:\Users\stapi\AppData\Local\Temp\ccXXRulM.s:3417   .debug_str:00000000000002a4 .LASF12
C:\Users\stapi\AppData\Local\Temp\ccXXRulM.s:3401   .debug_str:0000000000000152 .LASF13
C:\Users\stapi\AppData\Local\Temp\ccXXRulM.s:3443   .debug_str:00000000000003e3 .LASF14
C:\Users\stapi\AppData\Local\Temp\ccXXRulM.s:3459   .debug_str:000000000000043f .LASF15
C:\Users\stapi\AppData\Local\Temp\ccXXRulM.s:3399   .debug_str:0000000000000140 .LASF55
C:\Users\stapi\AppData\Local\Temp\ccXXRulM.s:3461   .debug_str:0000000000000445 .LASF16
C:\Users\stapi\AppData\Local\Temp\ccXXRulM.s:3473   .debug_str:00000000000004b3 .LASF17
C:\Users\stapi\AppData\Local\Temp\ccXXRulM.s:3469   .debug_str:0000000000000490 .LASF18
C:\Users\stapi\AppData\Local\Temp\ccXXRulM.s:3429   .debug_str:000000000000036c .LASF19
C:\Users\stapi\AppData\Local\Temp\ccXXRulM.s:3479   .debug_str:00000000000004db .LASF20
C:\Users\stapi\AppData\Local\Temp\ccXXRulM.s:3391   .debug_str:0000000000000100 .LASF21
C:\Users\stapi\AppData\Local\Temp\ccXXRulM.s:3377   .debug_str:0000000000000027 .LASF27
C:\Users\stapi\AppData\Local\Temp\ccXXRulM.s:3423   .debug_str:00000000000002ba .LASF22
C:\Users\stapi\AppData\Local\Temp\ccXXRulM.s:3403   .debug_str:000000000000015a .LASF23
C:\Users\stapi\AppData\Local\Temp\ccXXRulM.s:3395   .debug_str:0000000000000125 .LASF24
C:\Users\stapi\AppData\Local\Temp\ccXXRulM.s:3485   .debug_str:00000000000004ff .LASF25
C:\Users\stapi\AppData\Local\Temp\ccXXRulM.s:3481   .debug_str:00000000000004f1 .LASF26
C:\Users\stapi\AppData\Local\Temp\ccXXRulM.s:3385   .debug_str:00000000000000d5 .LASF28
C:\Users\stapi\AppData\Local\Temp\ccXXRulM.s:3467   .debug_str:000000000000047b .LASF56
C:\Users\stapi\AppData\Local\Temp\ccXXRulM.s:788    .text.crypto_cipher_deinit:0000000000000000 .LFB74
C:\Users\stapi\AppData\Local\Temp\ccXXRulM.s:824    .text.crypto_cipher_deinit:0000000000000038 .LFE74
C:\Users\stapi\AppData\Local\Temp\ccXXRulM.s:2498   .debug_loc:0000000000000000 .LLST19
C:\Users\stapi\AppData\Local\Temp\ccXXRulM.s:807    .text.crypto_cipher_deinit:000000000000001c .LVL97
C:\Users\stapi\AppData\Local\Temp\ccXXRulM.s:811    .text.crypto_cipher_deinit:0000000000000026 .LVL98
C:\Users\stapi\AppData\Local\Temp\ccXXRulM.s:817    .text.crypto_cipher_deinit:0000000000000030 .LVL99
C:\Users\stapi\AppData\Local\Temp\ccXXRulM.s:3407   .debug_str:000000000000016e .LASF32
C:\Users\stapi\AppData\Local\Temp\ccXXRulM.s:488    .text.crypto_cipher_decrypt:0000000000000000 .LFB73
C:\Users\stapi\AppData\Local\Temp\ccXXRulM.s:781    .text.crypto_cipher_decrypt:0000000000000196 .LFE73
C:\Users\stapi\AppData\Local\Temp\ccXXRulM.s:2509   .debug_loc:000000000000001e .LLST12
C:\Users\stapi\AppData\Local\Temp\ccXXRulM.s:3457   .debug_str:0000000000000439 .LASF29
C:\Users\stapi\AppData\Local\Temp\ccXXRulM.s:2544   .debug_loc:000000000000007e .LLST13
C:\Users\stapi\AppData\Local\Temp\ccXXRulM.s:3447   .debug_str:00000000000003f3 .LASF30
C:\Users\stapi\AppData\Local\Temp\ccXXRulM.s:2579   .debug_loc:00000000000000de .LLST14
C:\Users\stapi\AppData\Local\Temp\ccXXRulM.s:2638   .debug_loc:000000000000016b .LLST15
C:\Users\stapi\AppData\Local\Temp\ccXXRulM.s:2693   .debug_loc:00000000000001ed .LLST16
C:\Users\stapi\AppData\Local\Temp\ccXXRulM.s:2711   .debug_loc:0000000000000219 .LLST17
C:\Users\stapi\AppData\Local\Temp\ccXXRulM.s:3445   .debug_str:00000000000003ec .LASF31
C:\Users\stapi\AppData\Local\Temp\ccXXRulM.s:2795   .debug_loc:00000000000002b1 .LLST18
C:\Users\stapi\AppData\Local\Temp\ccXXRulM.s:549    .text.crypto_cipher_decrypt:0000000000000050 .LVL59
C:\Users\stapi\AppData\Local\Temp\ccXXRulM.s:555    .text.crypto_cipher_decrypt:000000000000005e .LVL60
C:\Users\stapi\AppData\Local\Temp\ccXXRulM.s:584    .text.crypto_cipher_decrypt:000000000000008a .LVL64
C:\Users\stapi\AppData\Local\Temp\ccXXRulM.s:606    .text.crypto_cipher_decrypt:00000000000000a6 .LVL68
C:\Users\stapi\AppData\Local\Temp\ccXXRulM.s:615    .text.crypto_cipher_decrypt:00000000000000be .LVL69
C:\Users\stapi\AppData\Local\Temp\ccXXRulM.s:666    .text.crypto_cipher_decrypt:00000000000000f4 .LVL76
C:\Users\stapi\AppData\Local\Temp\ccXXRulM.s:672    .text.crypto_cipher_decrypt:0000000000000104 .LVL77
C:\Users\stapi\AppData\Local\Temp\ccXXRulM.s:701    .text.crypto_cipher_decrypt:0000000000000130 .LVL81
C:\Users\stapi\AppData\Local\Temp\ccXXRulM.s:737    .text.crypto_cipher_decrypt:0000000000000158 .LVL88
C:\Users\stapi\AppData\Local\Temp\ccXXRulM.s:743    .text.crypto_cipher_decrypt:0000000000000166 .LVL89
C:\Users\stapi\AppData\Local\Temp\ccXXRulM.s:772    .text.crypto_cipher_decrypt:0000000000000192 .LVL93
C:\Users\stapi\AppData\Local\Temp\ccXXRulM.s:3375   .debug_str:0000000000000011 .LASF33
C:\Users\stapi\AppData\Local\Temp\ccXXRulM.s:180    .text.crypto_cipher_encrypt:0000000000000000 .LFB72
C:\Users\stapi\AppData\Local\Temp\ccXXRulM.s:481    .text.crypto_cipher_encrypt:000000000000018e .LFE72
C:\Users\stapi\AppData\Local\Temp\ccXXRulM.s:2865   .debug_loc:0000000000000334 .LLST5
C:\Users\stapi\AppData\Local\Temp\ccXXRulM.s:2876   .debug_loc:0000000000000352 .LLST6
C:\Users\stapi\AppData\Local\Temp\ccXXRulM.s:2998   .debug_loc:0000000000000448 .LLST7
C:\Users\stapi\AppData\Local\Temp\ccXXRulM.s:3093   .debug_loc:000000000000050e .LLST8
C:\Users\stapi\AppData\Local\Temp\ccXXRulM.s:3148   .debug_loc:0000000000000590 .LLST9
C:\Users\stapi\AppData\Local\Temp\ccXXRulM.s:3166   .debug_loc:00000000000005bc .LLST10
C:\Users\stapi\AppData\Local\Temp\ccXXRulM.s:3211   .debug_loc:000000000000062d .LLST11
C:\Users\stapi\AppData\Local\Temp\ccXXRulM.s:274    .text.crypto_cipher_encrypt:000000000000007c .LVL23
C:\Users\stapi\AppData\Local\Temp\ccXXRulM.s:280    .text.crypto_cipher_encrypt:000000000000008a .LVL24
C:\Users\stapi\AppData\Local\Temp\ccXXRulM.s:301    .text.crypto_cipher_encrypt:00000000000000a6 .LVL28
C:\Users\stapi\AppData\Local\Temp\ccXXRulM.s:310    .text.crypto_cipher_encrypt:00000000000000ba .LVL29
C:\Users\stapi\AppData\Local\Temp\ccXXRulM.s:395    .text.crypto_cipher_encrypt:0000000000000118 .LVL40
C:\Users\stapi\AppData\Local\Temp\ccXXRulM.s:401    .text.crypto_cipher_encrypt:0000000000000126 .LVL41
C:\Users\stapi\AppData\Local\Temp\ccXXRulM.s:467    .text.crypto_cipher_encrypt:000000000000017c .LVL52
C:\Users\stapi\AppData\Local\Temp\ccXXRulM.s:473    .text.crypto_cipher_encrypt:000000000000018a .LVL53
C:\Users\stapi\AppData\Local\Temp\ccXXRulM.s:3433   .debug_str:0000000000000395 .LASF34
C:\Users\stapi\AppData\Local\Temp\ccXXRulM.s:14     .text.crypto_cipher_init:0000000000000000 .LFB71
C:\Users\stapi\AppData\Local\Temp\ccXXRulM.s:173    .text.crypto_cipher_init:00000000000000e6 .LFE71
C:\Users\stapi\AppData\Local\Temp\ccXXRulM.s:3281   .debug_loc:00000000000006b0 .LLST0
C:\Users\stapi\AppData\Local\Temp\ccXXRulM.s:3292   .debug_loc:00000000000006ce .LLST1
C:\Users\stapi\AppData\Local\Temp\ccXXRulM.s:3303   .debug_loc:00000000000006ec .LLST2
C:\Users\stapi\AppData\Local\Temp\ccXXRulM.s:3475   .debug_str:00000000000004c9 .LASF35
C:\Users\stapi\AppData\Local\Temp\ccXXRulM.s:3314   .debug_loc:000000000000070a .LLST3
C:\Users\stapi\AppData\Local\Temp\ccXXRulM.s:3325   .debug_loc:0000000000000728 .LLST4
C:\Users\stapi\AppData\Local\Temp\ccXXRulM.s:40     .text.crypto_cipher_init:000000000000001c .LVL2
C:\Users\stapi\AppData\Local\Temp\ccXXRulM.s:72     .text.crypto_cipher_init:0000000000000052 .LVL4
C:\Users\stapi\AppData\Local\Temp\ccXXRulM.s:90     .text.crypto_cipher_init:0000000000000066 .LVL7
C:\Users\stapi\AppData\Local\Temp\ccXXRulM.s:112    .text.crypto_cipher_init:000000000000007c .LVL9
C:\Users\stapi\AppData\Local\Temp\ccXXRulM.s:123    .text.crypto_cipher_init:000000000000008c .LVL10
C:\Users\stapi\AppData\Local\Temp\ccXXRulM.s:132    .text.crypto_cipher_init:000000000000009a .LVL11
C:\Users\stapi\AppData\Local\Temp\ccXXRulM.s:150    .text.crypto_cipher_init:00000000000000ba .LVL12
C:\Users\stapi\AppData\Local\Temp\ccXXRulM.s:166    .text.crypto_cipher_init:00000000000000dc .LVL13
C:\Users\stapi\AppData\Local\Temp\ccXXRulM.s:3397   .debug_str:000000000000012d .LASF36
C:\Users\stapi\AppData\Local\Temp\ccXXRulM.s:3431   .debug_str:0000000000000382 .LASF37
C:\Users\stapi\AppData\Local\Temp\ccXXRulM.s:3421   .debug_str:00000000000002b2 .LASF38
C:\Users\stapi\AppData\Local\Temp\ccXXRulM.s:3437   .debug_str:00000000000003b6 .LASF39
C:\Users\stapi\AppData\Local\Temp\ccXXRulM.s:3411   .debug_str:0000000000000190 .LASF40
C:\Users\stapi\AppData\Local\Temp\ccXXRulM.s:3483   .debug_str:00000000000004f6 .LASF41
C:\Users\stapi\AppData\Local\Temp\ccXXRulM.s:3409   .debug_str:0000000000000184 .LASF42
C:\Users\stapi\AppData\Local\Temp\ccXXRulM.s:3389   .debug_str:00000000000000ee .LASF43
C:\Users\stapi\AppData\Local\Temp\ccXXRulM.s:3405   .debug_str:0000000000000161 .LASF44
C:\Users\stapi\AppData\Local\Temp\ccXXRulM.s:3471   .debug_str:00000000000004a7 .LASF45
C:\Users\stapi\AppData\Local\Temp\ccXXRulM.s:3455   .debug_str:0000000000000427 .LASF46
C:\Users\stapi\AppData\Local\Temp\ccXXRulM.s:3477   .debug_str:00000000000004d1 .LASF47
C:\Users\stapi\AppData\Local\Temp\ccXXRulM.s:3463   .debug_str:0000000000000458 .LASF48
C:\Users\stapi\AppData\Local\Temp\ccXXRulM.s:3373   .debug_str:0000000000000000 .LASF49
C:\Users\stapi\AppData\Local\Temp\ccXXRulM.s:3393   .debug_str:0000000000000116 .LASF50
C:\Users\stapi\AppData\Local\Temp\ccXXRulM.s:3453   .debug_str:0000000000000419 .LASF51
C:\Users\stapi\AppData\Local\Temp\ccXXRulM.s:791    .text.crypto_cipher_deinit:0000000000000000 .LVL95
C:\Users\stapi\AppData\Local\Temp\ccXXRulM.s:805    .text.crypto_cipher_deinit:0000000000000014 .LVL96
C:\Users\stapi\AppData\Local\Temp\ccXXRulM.s:491    .text.crypto_cipher_decrypt:0000000000000000 .LVL55
C:\Users\stapi\AppData\Local\Temp\ccXXRulM.s:523    .text.crypto_cipher_decrypt:0000000000000028 .LVL56
C:\Users\stapi\AppData\Local\Temp\ccXXRulM.s:592    .text.crypto_cipher_decrypt:000000000000008e .LVL66
C:\Users\stapi\AppData\Local\Temp\ccXXRulM.s:597    .text.crypto_cipher_decrypt:0000000000000092 .LVL67
C:\Users\stapi\AppData\Local\Temp\ccXXRulM.s:639    .text.crypto_cipher_decrypt:00000000000000d4 .LVL71
C:\Users\stapi\AppData\Local\Temp\ccXXRulM.s:647    .text.crypto_cipher_decrypt:00000000000000da .LVL72
C:\Users\stapi\AppData\Local\Temp\ccXXRulM.s:709    .text.crypto_cipher_decrypt:0000000000000134 .LVL83
C:\Users\stapi\AppData\Local\Temp\ccXXRulM.s:716    .text.crypto_cipher_decrypt:000000000000013a .LVL84
C:\Users\stapi\AppData\Local\Temp\ccXXRulM.s:539    .text.crypto_cipher_decrypt:000000000000003e .LVL58
C:\Users\stapi\AppData\Local\Temp\ccXXRulM.s:656    .text.crypto_cipher_decrypt:00000000000000e2 .LVL75
C:\Users\stapi\AppData\Local\Temp\ccXXRulM.s:727    .text.crypto_cipher_decrypt:0000000000000146 .LVL87
C:\Users\stapi\AppData\Local\Temp\ccXXRulM.s:562    .text.crypto_cipher_decrypt:0000000000000068 .LVL61
C:\Users\stapi\AppData\Local\Temp\ccXXRulM.s:622    .text.crypto_cipher_decrypt:00000000000000c8 .LVL70
C:\Users\stapi\AppData\Local\Temp\ccXXRulM.s:679    .text.crypto_cipher_decrypt:000000000000010e .LVL78
C:\Users\stapi\AppData\Local\Temp\ccXXRulM.s:750    .text.crypto_cipher_decrypt:0000000000000170 .LVL90
C:\Users\stapi\AppData\Local\Temp\ccXXRulM.s:654    .text.crypto_cipher_decrypt:00000000000000e0 .LVL74
C:\Users\stapi\AppData\Local\Temp\ccXXRulM.s:723    .text.crypto_cipher_decrypt:0000000000000140 .LVL86
C:\Users\stapi\AppData\Local\Temp\ccXXRulM.s:533    .text.crypto_cipher_decrypt:0000000000000034 .LVL57
C:\Users\stapi\AppData\Local\Temp\ccXXRulM.s:651    .text.crypto_cipher_decrypt:00000000000000dc .LVL73
C:\Users\stapi\AppData\Local\Temp\ccXXRulM.s:720    .text.crypto_cipher_decrypt:000000000000013c .LVL85
C:\Users\stapi\AppData\Local\Temp\ccXXRulM.s:570    .text.crypto_cipher_decrypt:0000000000000072 .LVL62
C:\Users\stapi\AppData\Local\Temp\ccXXRulM.s:576    .text.crypto_cipher_decrypt:000000000000007a .LVL63
C:\Users\stapi\AppData\Local\Temp\ccXXRulM.s:687    .text.crypto_cipher_decrypt:0000000000000118 .LVL79
C:\Users\stapi\AppData\Local\Temp\ccXXRulM.s:693    .text.crypto_cipher_decrypt:0000000000000120 .LVL80
C:\Users\stapi\AppData\Local\Temp\ccXXRulM.s:758    .text.crypto_cipher_decrypt:000000000000017a .LVL91
C:\Users\stapi\AppData\Local\Temp\ccXXRulM.s:764    .text.crypto_cipher_decrypt:0000000000000182 .LVL92
C:\Users\stapi\AppData\Local\Temp\ccXXRulM.s:183    .text.crypto_cipher_encrypt:0000000000000000 .LVL14
C:\Users\stapi\AppData\Local\Temp\ccXXRulM.s:217    .text.crypto_cipher_encrypt:0000000000000028 .LVL15
C:\Users\stapi\AppData\Local\Temp\ccXXRulM.s:235    .text.crypto_cipher_encrypt:0000000000000040 .LVL17
C:\Users\stapi\AppData\Local\Temp\ccXXRulM.s:239    .text.crypto_cipher_encrypt:0000000000000048 .LVL18
C:\Users\stapi\AppData\Local\Temp\ccXXRulM.s:270    .text.crypto_cipher_encrypt:0000000000000070 .LVL22
C:\Users\stapi\AppData\Local\Temp\ccXXRulM.s:285    .text.crypto_cipher_encrypt:000000000000008c .LVL25
C:\Users\stapi\AppData\Local\Temp\ccXXRulM.s:287    .text.crypto_cipher_encrypt:000000000000008e .LVL26
C:\Users\stapi\AppData\Local\Temp\ccXXRulM.s:317    .text.crypto_cipher_encrypt:00000000000000c0 .LVL30
C:\Users\stapi\AppData\Local\Temp\ccXXRulM.s:338    .text.crypto_cipher_encrypt:00000000000000cc .LVL31
C:\Users\stapi\AppData\Local\Temp\ccXXRulM.s:356    .text.crypto_cipher_encrypt:00000000000000dc .LVL34
C:\Users\stapi\AppData\Local\Temp\ccXXRulM.s:360    .text.crypto_cipher_encrypt:00000000000000e4 .LVL35
C:\Users\stapi\AppData\Local\Temp\ccXXRulM.s:392    .text.crypto_cipher_encrypt:000000000000010e .LVL39
C:\Users\stapi\AppData\Local\Temp\ccXXRulM.s:406    .text.crypto_cipher_encrypt:0000000000000128 .LVL42
C:\Users\stapi\AppData\Local\Temp\ccXXRulM.s:408    .text.crypto_cipher_encrypt:000000000000012a .LVL43
C:\Users\stapi\AppData\Local\Temp\ccXXRulM.s:429    .text.crypto_cipher_encrypt:0000000000000142 .LVL46
C:\Users\stapi\AppData\Local\Temp\ccXXRulM.s:433    .text.crypto_cipher_encrypt:000000000000014a .LVL47
C:\Users\stapi\AppData\Local\Temp\ccXXRulM.s:463    .text.crypto_cipher_encrypt:0000000000000170 .LVL51
C:\Users\stapi\AppData\Local\Temp\ccXXRulM.s:478    .text.crypto_cipher_encrypt:000000000000018c .LVL54
C:\Users\stapi\AppData\Local\Temp\ccXXRulM.s:298    .text.crypto_cipher_encrypt:000000000000009c .LVL27
C:\Users\stapi\AppData\Local\Temp\ccXXRulM.s:352    .text.crypto_cipher_encrypt:00000000000000d8 .LVL33
C:\Users\stapi\AppData\Local\Temp\ccXXRulM.s:421    .text.crypto_cipher_encrypt:0000000000000136 .LVL45
C:\Users\stapi\AppData\Local\Temp\ccXXRulM.s:227    .text.crypto_cipher_encrypt:0000000000000034 .LVL16
C:\Users\stapi\AppData\Local\Temp\ccXXRulM.s:349    .text.crypto_cipher_encrypt:00000000000000d4 .LVL32
C:\Users\stapi\AppData\Local\Temp\ccXXRulM.s:418    .text.crypto_cipher_encrypt:0000000000000132 .LVL44
C:\Users\stapi\AppData\Local\Temp\ccXXRulM.s:248    .text.crypto_cipher_encrypt:0000000000000054 .LVL19
C:\Users\stapi\AppData\Local\Temp\ccXXRulM.s:257    .text.crypto_cipher_encrypt:0000000000000062 .LVL20
C:\Users\stapi\AppData\Local\Temp\ccXXRulM.s:264    .text.crypto_cipher_encrypt:000000000000006a .LVL21
C:\Users\stapi\AppData\Local\Temp\ccXXRulM.s:369    .text.crypto_cipher_encrypt:00000000000000f0 .LVL36
C:\Users\stapi\AppData\Local\Temp\ccXXRulM.s:378    .text.crypto_cipher_encrypt:00000000000000fe .LVL37
C:\Users\stapi\AppData\Local\Temp\ccXXRulM.s:385    .text.crypto_cipher_encrypt:0000000000000106 .LVL38
C:\Users\stapi\AppData\Local\Temp\ccXXRulM.s:441    .text.crypto_cipher_encrypt:0000000000000154 .LVL48
C:\Users\stapi\AppData\Local\Temp\ccXXRulM.s:450    .text.crypto_cipher_encrypt:0000000000000162 .LVL49
C:\Users\stapi\AppData\Local\Temp\ccXXRulM.s:457    .text.crypto_cipher_encrypt:000000000000016a .LVL50
C:\Users\stapi\AppData\Local\Temp\ccXXRulM.s:18     .text.crypto_cipher_init:0000000000000000 .LVL0
C:\Users\stapi\AppData\Local\Temp\ccXXRulM.s:33     .text.crypto_cipher_init:000000000000000e .LVL1
C:\Users\stapi\AppData\Local\Temp\ccXXRulM.s:42     .text.crypto_cipher_init:000000000000001e .LVL3
C:\Users\stapi\AppData\Local\Temp\ccXXRulM.s:76     .text.crypto_cipher_init:0000000000000054 .LVL5
C:\Users\stapi\AppData\Local\Temp\ccXXRulM.s:78     .text.crypto_cipher_init:0000000000000056 .LVL6
C:\Users\stapi\AppData\Local\Temp\ccXXRulM.s:104    .text.crypto_cipher_init:0000000000000070 .LVL8
C:\Users\stapi\AppData\Local\Temp\ccXXRulM.s:837    .debug_info:0000000000000000 .Ldebug_info0

UNDEFINED SYMBOLS
__riscv_save_5
os_zalloc
os_free
os_memcpy
__riscv_restore_5
aes_encrypt_init
aes_decrypt_init
aes_encrypt_deinit
des3_key_setup
des_key_setup
__riscv_save_9
des3_encrypt
rc4_skip
__riscv_restore_9
aes_encrypt
des_block_encrypt
des3_decrypt
aes_decrypt
des_block_decrypt
__riscv_save_1
aes_decrypt_deinit
__riscv_restore_1
