   1              		.file	"crypto_internal.c"
   2              		.option nopic
   3              		.attribute arch, "rv32i2p0_m2p0_a2p0_f2p0_c2p0_b_p0p94"
   4              		.attribute unaligned_access, 0
   5              		.attribute stack_align, 16
   6              		.text
   7              	.Ltext0:
   8              		.cfi_sections	.debug_frame
   9              		.section	.text.crypto_hash_init,"ax",@progbits
  10              		.align	1
  11              		.globl	crypto_hash_init
  13              	crypto_hash_init:
  14              	.LFB71:
  15              		.file 1 "C:/Users/stapi/OneDrive/Desktop/GD32VW553/V1_MQTT_OK/GD32VW55X_Wifi_BLE_SDK/GD32VW55x_REL
   1:C:/Users/stapi/OneDrive/Desktop/GD32VW553/V1_MQTT_OK/GD32VW55X_Wifi_BLE_SDK/GD32VW55x_RELEASE_V1.0.2/MSDK/wpa_supplicant/src/crypto\crypto_internal.c **** /*
   2:C:/Users/stapi/OneDrive/Desktop/GD32VW553/V1_MQTT_OK/GD32VW55X_Wifi_BLE_SDK/GD32VW55x_RELEASE_V1.0.2/MSDK/wpa_supplicant/src/crypto\crypto_internal.c ****  * Crypto wrapper for internal crypto implementation
   3:C:/Users/stapi/OneDrive/Desktop/GD32VW553/V1_MQTT_OK/GD32VW55X_Wifi_BLE_SDK/GD32VW55x_RELEASE_V1.0.2/MSDK/wpa_supplicant/src/crypto\crypto_internal.c ****  * Copyright (c) 2006-2011, Jouni Malinen <j@w1.fi>
   4:C:/Users/stapi/OneDrive/Desktop/GD32VW553/V1_MQTT_OK/GD32VW55X_Wifi_BLE_SDK/GD32VW55x_RELEASE_V1.0.2/MSDK/wpa_supplicant/src/crypto\crypto_internal.c ****  *
   5:C:/Users/stapi/OneDrive/Desktop/GD32VW553/V1_MQTT_OK/GD32VW55X_Wifi_BLE_SDK/GD32VW55x_RELEASE_V1.0.2/MSDK/wpa_supplicant/src/crypto\crypto_internal.c ****  * This software may be distributed under the terms of the BSD license.
   6:C:/Users/stapi/OneDrive/Desktop/GD32VW553/V1_MQTT_OK/GD32VW55X_Wifi_BLE_SDK/GD32VW55x_RELEASE_V1.0.2/MSDK/wpa_supplicant/src/crypto\crypto_internal.c ****  * See README for more details.
   7:C:/Users/stapi/OneDrive/Desktop/GD32VW553/V1_MQTT_OK/GD32VW55X_Wifi_BLE_SDK/GD32VW55x_RELEASE_V1.0.2/MSDK/wpa_supplicant/src/crypto\crypto_internal.c ****  */
   8:C:/Users/stapi/OneDrive/Desktop/GD32VW553/V1_MQTT_OK/GD32VW55X_Wifi_BLE_SDK/GD32VW55x_RELEASE_V1.0.2/MSDK/wpa_supplicant/src/crypto\crypto_internal.c **** 
   9:C:/Users/stapi/OneDrive/Desktop/GD32VW553/V1_MQTT_OK/GD32VW55X_Wifi_BLE_SDK/GD32VW55x_RELEASE_V1.0.2/MSDK/wpa_supplicant/src/crypto\crypto_internal.c **** #include "includes.h"
  10:C:/Users/stapi/OneDrive/Desktop/GD32VW553/V1_MQTT_OK/GD32VW55X_Wifi_BLE_SDK/GD32VW55x_RELEASE_V1.0.2/MSDK/wpa_supplicant/src/crypto\crypto_internal.c **** 
  11:C:/Users/stapi/OneDrive/Desktop/GD32VW553/V1_MQTT_OK/GD32VW55X_Wifi_BLE_SDK/GD32VW55x_RELEASE_V1.0.2/MSDK/wpa_supplicant/src/crypto\crypto_internal.c **** #include "common.h"
  12:C:/Users/stapi/OneDrive/Desktop/GD32VW553/V1_MQTT_OK/GD32VW55X_Wifi_BLE_SDK/GD32VW55x_RELEASE_V1.0.2/MSDK/wpa_supplicant/src/crypto\crypto_internal.c **** #include "crypto.h"
  13:C:/Users/stapi/OneDrive/Desktop/GD32VW553/V1_MQTT_OK/GD32VW55X_Wifi_BLE_SDK/GD32VW55x_RELEASE_V1.0.2/MSDK/wpa_supplicant/src/crypto\crypto_internal.c **** #include "sha256_i.h"
  14:C:/Users/stapi/OneDrive/Desktop/GD32VW553/V1_MQTT_OK/GD32VW55X_Wifi_BLE_SDK/GD32VW55x_RELEASE_V1.0.2/MSDK/wpa_supplicant/src/crypto\crypto_internal.c **** #include "sha384_i.h"
  15:C:/Users/stapi/OneDrive/Desktop/GD32VW553/V1_MQTT_OK/GD32VW55X_Wifi_BLE_SDK/GD32VW55x_RELEASE_V1.0.2/MSDK/wpa_supplicant/src/crypto\crypto_internal.c **** #include "sha512_i.h"
  16:C:/Users/stapi/OneDrive/Desktop/GD32VW553/V1_MQTT_OK/GD32VW55X_Wifi_BLE_SDK/GD32VW55x_RELEASE_V1.0.2/MSDK/wpa_supplicant/src/crypto\crypto_internal.c **** #include "sha1_i.h"
  17:C:/Users/stapi/OneDrive/Desktop/GD32VW553/V1_MQTT_OK/GD32VW55X_Wifi_BLE_SDK/GD32VW55x_RELEASE_V1.0.2/MSDK/wpa_supplicant/src/crypto\crypto_internal.c **** #include "md5_i.h"
  18:C:/Users/stapi/OneDrive/Desktop/GD32VW553/V1_MQTT_OK/GD32VW55X_Wifi_BLE_SDK/GD32VW55x_RELEASE_V1.0.2/MSDK/wpa_supplicant/src/crypto\crypto_internal.c **** 
  19:C:/Users/stapi/OneDrive/Desktop/GD32VW553/V1_MQTT_OK/GD32VW55X_Wifi_BLE_SDK/GD32VW55x_RELEASE_V1.0.2/MSDK/wpa_supplicant/src/crypto\crypto_internal.c **** struct crypto_hash {
  20:C:/Users/stapi/OneDrive/Desktop/GD32VW553/V1_MQTT_OK/GD32VW55X_Wifi_BLE_SDK/GD32VW55x_RELEASE_V1.0.2/MSDK/wpa_supplicant/src/crypto\crypto_internal.c **** 	enum crypto_hash_alg alg;
  21:C:/Users/stapi/OneDrive/Desktop/GD32VW553/V1_MQTT_OK/GD32VW55X_Wifi_BLE_SDK/GD32VW55x_RELEASE_V1.0.2/MSDK/wpa_supplicant/src/crypto\crypto_internal.c **** 	union {
  22:C:/Users/stapi/OneDrive/Desktop/GD32VW553/V1_MQTT_OK/GD32VW55X_Wifi_BLE_SDK/GD32VW55x_RELEASE_V1.0.2/MSDK/wpa_supplicant/src/crypto\crypto_internal.c **** 		struct MD5Context md5;
  23:C:/Users/stapi/OneDrive/Desktop/GD32VW553/V1_MQTT_OK/GD32VW55X_Wifi_BLE_SDK/GD32VW55x_RELEASE_V1.0.2/MSDK/wpa_supplicant/src/crypto\crypto_internal.c **** 		struct SHA1Context sha1;
  24:C:/Users/stapi/OneDrive/Desktop/GD32VW553/V1_MQTT_OK/GD32VW55X_Wifi_BLE_SDK/GD32VW55x_RELEASE_V1.0.2/MSDK/wpa_supplicant/src/crypto\crypto_internal.c **** #ifdef CONFIG_SHA256
  25:C:/Users/stapi/OneDrive/Desktop/GD32VW553/V1_MQTT_OK/GD32VW55X_Wifi_BLE_SDK/GD32VW55x_RELEASE_V1.0.2/MSDK/wpa_supplicant/src/crypto\crypto_internal.c **** 		struct sha256_state sha256;
  26:C:/Users/stapi/OneDrive/Desktop/GD32VW553/V1_MQTT_OK/GD32VW55X_Wifi_BLE_SDK/GD32VW55x_RELEASE_V1.0.2/MSDK/wpa_supplicant/src/crypto\crypto_internal.c **** #endif /* CONFIG_SHA256 */
  27:C:/Users/stapi/OneDrive/Desktop/GD32VW553/V1_MQTT_OK/GD32VW55X_Wifi_BLE_SDK/GD32VW55x_RELEASE_V1.0.2/MSDK/wpa_supplicant/src/crypto\crypto_internal.c **** #ifdef CONFIG_INTERNAL_SHA384
  28:C:/Users/stapi/OneDrive/Desktop/GD32VW553/V1_MQTT_OK/GD32VW55X_Wifi_BLE_SDK/GD32VW55x_RELEASE_V1.0.2/MSDK/wpa_supplicant/src/crypto\crypto_internal.c **** 		struct sha384_state sha384;
  29:C:/Users/stapi/OneDrive/Desktop/GD32VW553/V1_MQTT_OK/GD32VW55X_Wifi_BLE_SDK/GD32VW55x_RELEASE_V1.0.2/MSDK/wpa_supplicant/src/crypto\crypto_internal.c **** #endif /* CONFIG_INTERNAL_SHA384 */
  30:C:/Users/stapi/OneDrive/Desktop/GD32VW553/V1_MQTT_OK/GD32VW55X_Wifi_BLE_SDK/GD32VW55x_RELEASE_V1.0.2/MSDK/wpa_supplicant/src/crypto\crypto_internal.c **** #ifdef CONFIG_INTERNAL_SHA512
  31:C:/Users/stapi/OneDrive/Desktop/GD32VW553/V1_MQTT_OK/GD32VW55X_Wifi_BLE_SDK/GD32VW55x_RELEASE_V1.0.2/MSDK/wpa_supplicant/src/crypto\crypto_internal.c **** 		struct sha512_state sha512;
  32:C:/Users/stapi/OneDrive/Desktop/GD32VW553/V1_MQTT_OK/GD32VW55X_Wifi_BLE_SDK/GD32VW55x_RELEASE_V1.0.2/MSDK/wpa_supplicant/src/crypto\crypto_internal.c **** #endif /* CONFIG_INTERNAL_SHA512 */
  33:C:/Users/stapi/OneDrive/Desktop/GD32VW553/V1_MQTT_OK/GD32VW55X_Wifi_BLE_SDK/GD32VW55x_RELEASE_V1.0.2/MSDK/wpa_supplicant/src/crypto\crypto_internal.c **** 	} u;
  34:C:/Users/stapi/OneDrive/Desktop/GD32VW553/V1_MQTT_OK/GD32VW55X_Wifi_BLE_SDK/GD32VW55x_RELEASE_V1.0.2/MSDK/wpa_supplicant/src/crypto\crypto_internal.c **** 	u8 key[64];
  35:C:/Users/stapi/OneDrive/Desktop/GD32VW553/V1_MQTT_OK/GD32VW55X_Wifi_BLE_SDK/GD32VW55x_RELEASE_V1.0.2/MSDK/wpa_supplicant/src/crypto\crypto_internal.c **** 	size_t key_len;
  36:C:/Users/stapi/OneDrive/Desktop/GD32VW553/V1_MQTT_OK/GD32VW55X_Wifi_BLE_SDK/GD32VW55x_RELEASE_V1.0.2/MSDK/wpa_supplicant/src/crypto\crypto_internal.c **** };
  37:C:/Users/stapi/OneDrive/Desktop/GD32VW553/V1_MQTT_OK/GD32VW55X_Wifi_BLE_SDK/GD32VW55x_RELEASE_V1.0.2/MSDK/wpa_supplicant/src/crypto\crypto_internal.c **** 
  38:C:/Users/stapi/OneDrive/Desktop/GD32VW553/V1_MQTT_OK/GD32VW55X_Wifi_BLE_SDK/GD32VW55x_RELEASE_V1.0.2/MSDK/wpa_supplicant/src/crypto\crypto_internal.c **** 
  39:C:/Users/stapi/OneDrive/Desktop/GD32VW553/V1_MQTT_OK/GD32VW55X_Wifi_BLE_SDK/GD32VW55x_RELEASE_V1.0.2/MSDK/wpa_supplicant/src/crypto\crypto_internal.c **** struct crypto_hash * crypto_hash_init(enum crypto_hash_alg alg, const u8 *key,
  40:C:/Users/stapi/OneDrive/Desktop/GD32VW553/V1_MQTT_OK/GD32VW55X_Wifi_BLE_SDK/GD32VW55x_RELEASE_V1.0.2/MSDK/wpa_supplicant/src/crypto\crypto_internal.c **** 				      size_t key_len)
  41:C:/Users/stapi/OneDrive/Desktop/GD32VW553/V1_MQTT_OK/GD32VW55X_Wifi_BLE_SDK/GD32VW55x_RELEASE_V1.0.2/MSDK/wpa_supplicant/src/crypto\crypto_internal.c **** {
  16              		.loc 1 41 1
  17              		.cfi_startproc
  18              	.LVL0:
  19 0000 17030000 		call	t0,__riscv_save_3
  19      E7020300 
  20              		.cfi_offset 18, -16
  21              		.cfi_offset 9, -12
  22              		.cfi_offset 8, -8
  23              		.cfi_offset 1, -4
  24              		.cfi_def_cfa_offset 16
  25 0008 5971     		addi	sp,sp,-112
  26              		.cfi_def_cfa_offset 128
  27              		.loc 1 41 1 is_stmt 0
  28 000a 2A89     		mv	s2,a0
  42:C:/Users/stapi/OneDrive/Desktop/GD32VW553/V1_MQTT_OK/GD32VW55X_Wifi_BLE_SDK/GD32VW55x_RELEASE_V1.0.2/MSDK/wpa_supplicant/src/crypto\crypto_internal.c **** 	struct crypto_hash *ctx;
  29              		.loc 1 42 2 is_stmt 1
  43:C:/Users/stapi/OneDrive/Desktop/GD32VW553/V1_MQTT_OK/GD32VW55X_Wifi_BLE_SDK/GD32VW55x_RELEASE_V1.0.2/MSDK/wpa_supplicant/src/crypto\crypto_internal.c **** 	u8 k_pad[64];
  30              		.loc 1 43 2
  44:C:/Users/stapi/OneDrive/Desktop/GD32VW553/V1_MQTT_OK/GD32VW55X_Wifi_BLE_SDK/GD32VW55x_RELEASE_V1.0.2/MSDK/wpa_supplicant/src/crypto\crypto_internal.c **** 	u8 tk[32];
  31              		.loc 1 44 2
  45:C:/Users/stapi/OneDrive/Desktop/GD32VW553/V1_MQTT_OK/GD32VW55X_Wifi_BLE_SDK/GD32VW55x_RELEASE_V1.0.2/MSDK/wpa_supplicant/src/crypto\crypto_internal.c **** 	size_t i;
  32              		.loc 1 45 2
  46:C:/Users/stapi/OneDrive/Desktop/GD32VW553/V1_MQTT_OK/GD32VW55X_Wifi_BLE_SDK/GD32VW55x_RELEASE_V1.0.2/MSDK/wpa_supplicant/src/crypto\crypto_internal.c **** 
  47:C:/Users/stapi/OneDrive/Desktop/GD32VW553/V1_MQTT_OK/GD32VW55X_Wifi_BLE_SDK/GD32VW55x_RELEASE_V1.0.2/MSDK/wpa_supplicant/src/crypto\crypto_internal.c **** 	ctx = os_zalloc(sizeof(*ctx));
  33              		.loc 1 47 2
  34              		.loc 1 47 8 is_stmt 0
  35 000c 1305400A 		li	a0,164
  36              	.LVL1:
  41:C:/Users/stapi/OneDrive/Desktop/GD32VW553/V1_MQTT_OK/GD32VW55X_Wifi_BLE_SDK/GD32VW55x_RELEASE_V1.0.2/MSDK/wpa_supplicant/src/crypto\crypto_internal.c **** 	struct crypto_hash *ctx;
  37              		.loc 1 41 1
  38 0010 2EC6     		sw	a1,12(sp)
  39 0012 3284     		mv	s0,a2
  40              		.loc 1 47 8
  41 0014 97000000 		call	os_zalloc
  41      E7800000 
  42              	.LVL2:
  43 001c AA84     		mv	s1,a0
  44              	.LVL3:
  48:C:/Users/stapi/OneDrive/Desktop/GD32VW553/V1_MQTT_OK/GD32VW55X_Wifi_BLE_SDK/GD32VW55x_RELEASE_V1.0.2/MSDK/wpa_supplicant/src/crypto\crypto_internal.c **** 	if (ctx == NULL)
  45              		.loc 1 48 2 is_stmt 1
  46              		.loc 1 48 5 is_stmt 0
  47 001e 05C1     		beq	a0,zero,.L1
  49:C:/Users/stapi/OneDrive/Desktop/GD32VW553/V1_MQTT_OK/GD32VW55X_Wifi_BLE_SDK/GD32VW55x_RELEASE_V1.0.2/MSDK/wpa_supplicant/src/crypto\crypto_internal.c **** 		return NULL;
  50:C:/Users/stapi/OneDrive/Desktop/GD32VW553/V1_MQTT_OK/GD32VW55X_Wifi_BLE_SDK/GD32VW55x_RELEASE_V1.0.2/MSDK/wpa_supplicant/src/crypto\crypto_internal.c **** 
  51:C:/Users/stapi/OneDrive/Desktop/GD32VW553/V1_MQTT_OK/GD32VW55X_Wifi_BLE_SDK/GD32VW55x_RELEASE_V1.0.2/MSDK/wpa_supplicant/src/crypto\crypto_internal.c **** 	ctx->alg = alg;
  48              		.loc 1 51 2 is_stmt 1
  49              		.loc 1 51 11 is_stmt 0
  50 0020 23202501 		sw	s2,0(a0)
  52:C:/Users/stapi/OneDrive/Desktop/GD32VW553/V1_MQTT_OK/GD32VW55X_Wifi_BLE_SDK/GD32VW55x_RELEASE_V1.0.2/MSDK/wpa_supplicant/src/crypto\crypto_internal.c **** 
  53:C:/Users/stapi/OneDrive/Desktop/GD32VW553/V1_MQTT_OK/GD32VW55X_Wifi_BLE_SDK/GD32VW55x_RELEASE_V1.0.2/MSDK/wpa_supplicant/src/crypto\crypto_internal.c **** 	switch (alg) {
  51              		.loc 1 53 2 is_stmt 1
  52 0024 8947     		li	a5,2
  53 0026 B245     		lw	a1,12(sp)
  54 0028 630FF902 		beq	s2,a5,.L3
  55 002c 63EF2701 		bgtu	s2,a5,.L4
  56 0030 1105     		addi	a0,a0,4
  57 0032 63150902 		bne	s2,zero,.L20
  54:C:/Users/stapi/OneDrive/Desktop/GD32VW553/V1_MQTT_OK/GD32VW55X_Wifi_BLE_SDK/GD32VW55x_RELEASE_V1.0.2/MSDK/wpa_supplicant/src/crypto\crypto_internal.c **** 	case CRYPTO_HASH_ALG_MD5:
  55:C:/Users/stapi/OneDrive/Desktop/GD32VW553/V1_MQTT_OK/GD32VW55X_Wifi_BLE_SDK/GD32VW55x_RELEASE_V1.0.2/MSDK/wpa_supplicant/src/crypto\crypto_internal.c **** 		MD5Init(&ctx->u.md5);
  58              		.loc 1 55 3
  59 0036 97000000 		call	MD5Init
  59      E7800000 
  60              	.LVL4:
  56:C:/Users/stapi/OneDrive/Desktop/GD32VW553/V1_MQTT_OK/GD32VW55X_Wifi_BLE_SDK/GD32VW55x_RELEASE_V1.0.2/MSDK/wpa_supplicant/src/crypto\crypto_internal.c **** 		break;
  61              		.loc 1 56 3
  62              	.L1:
  57:C:/Users/stapi/OneDrive/Desktop/GD32VW553/V1_MQTT_OK/GD32VW55X_Wifi_BLE_SDK/GD32VW55x_RELEASE_V1.0.2/MSDK/wpa_supplicant/src/crypto\crypto_internal.c **** 	case CRYPTO_HASH_ALG_SHA1:
  58:C:/Users/stapi/OneDrive/Desktop/GD32VW553/V1_MQTT_OK/GD32VW55X_Wifi_BLE_SDK/GD32VW55x_RELEASE_V1.0.2/MSDK/wpa_supplicant/src/crypto\crypto_internal.c **** 		SHA1Init(&ctx->u.sha1);
  59:C:/Users/stapi/OneDrive/Desktop/GD32VW553/V1_MQTT_OK/GD32VW55X_Wifi_BLE_SDK/GD32VW55x_RELEASE_V1.0.2/MSDK/wpa_supplicant/src/crypto\crypto_internal.c **** 		break;
  60:C:/Users/stapi/OneDrive/Desktop/GD32VW553/V1_MQTT_OK/GD32VW55X_Wifi_BLE_SDK/GD32VW55x_RELEASE_V1.0.2/MSDK/wpa_supplicant/src/crypto\crypto_internal.c **** #ifdef CONFIG_SHA256
  61:C:/Users/stapi/OneDrive/Desktop/GD32VW553/V1_MQTT_OK/GD32VW55X_Wifi_BLE_SDK/GD32VW55x_RELEASE_V1.0.2/MSDK/wpa_supplicant/src/crypto\crypto_internal.c **** 	case CRYPTO_HASH_ALG_SHA256:
  62:C:/Users/stapi/OneDrive/Desktop/GD32VW553/V1_MQTT_OK/GD32VW55X_Wifi_BLE_SDK/GD32VW55x_RELEASE_V1.0.2/MSDK/wpa_supplicant/src/crypto\crypto_internal.c **** 		sha256_init(&ctx->u.sha256);
  63:C:/Users/stapi/OneDrive/Desktop/GD32VW553/V1_MQTT_OK/GD32VW55X_Wifi_BLE_SDK/GD32VW55x_RELEASE_V1.0.2/MSDK/wpa_supplicant/src/crypto\crypto_internal.c **** 		break;
  64:C:/Users/stapi/OneDrive/Desktop/GD32VW553/V1_MQTT_OK/GD32VW55X_Wifi_BLE_SDK/GD32VW55x_RELEASE_V1.0.2/MSDK/wpa_supplicant/src/crypto\crypto_internal.c **** #endif /* CONFIG_SHA256 */
  65:C:/Users/stapi/OneDrive/Desktop/GD32VW553/V1_MQTT_OK/GD32VW55X_Wifi_BLE_SDK/GD32VW55x_RELEASE_V1.0.2/MSDK/wpa_supplicant/src/crypto\crypto_internal.c **** #ifdef CONFIG_INTERNAL_SHA384
  66:C:/Users/stapi/OneDrive/Desktop/GD32VW553/V1_MQTT_OK/GD32VW55X_Wifi_BLE_SDK/GD32VW55x_RELEASE_V1.0.2/MSDK/wpa_supplicant/src/crypto\crypto_internal.c **** 	case CRYPTO_HASH_ALG_SHA384:
  67:C:/Users/stapi/OneDrive/Desktop/GD32VW553/V1_MQTT_OK/GD32VW55X_Wifi_BLE_SDK/GD32VW55x_RELEASE_V1.0.2/MSDK/wpa_supplicant/src/crypto\crypto_internal.c **** 		sha384_init(&ctx->u.sha384);
  68:C:/Users/stapi/OneDrive/Desktop/GD32VW553/V1_MQTT_OK/GD32VW55X_Wifi_BLE_SDK/GD32VW55x_RELEASE_V1.0.2/MSDK/wpa_supplicant/src/crypto\crypto_internal.c **** 		break;
  69:C:/Users/stapi/OneDrive/Desktop/GD32VW553/V1_MQTT_OK/GD32VW55X_Wifi_BLE_SDK/GD32VW55x_RELEASE_V1.0.2/MSDK/wpa_supplicant/src/crypto\crypto_internal.c **** #endif /* CONFIG_INTERNAL_SHA384 */
  70:C:/Users/stapi/OneDrive/Desktop/GD32VW553/V1_MQTT_OK/GD32VW55X_Wifi_BLE_SDK/GD32VW55x_RELEASE_V1.0.2/MSDK/wpa_supplicant/src/crypto\crypto_internal.c **** #ifdef CONFIG_INTERNAL_SHA512
  71:C:/Users/stapi/OneDrive/Desktop/GD32VW553/V1_MQTT_OK/GD32VW55X_Wifi_BLE_SDK/GD32VW55x_RELEASE_V1.0.2/MSDK/wpa_supplicant/src/crypto\crypto_internal.c **** 	case CRYPTO_HASH_ALG_SHA512:
  72:C:/Users/stapi/OneDrive/Desktop/GD32VW553/V1_MQTT_OK/GD32VW55X_Wifi_BLE_SDK/GD32VW55x_RELEASE_V1.0.2/MSDK/wpa_supplicant/src/crypto\crypto_internal.c **** 		sha512_init(&ctx->u.sha512);
  73:C:/Users/stapi/OneDrive/Desktop/GD32VW553/V1_MQTT_OK/GD32VW55X_Wifi_BLE_SDK/GD32VW55x_RELEASE_V1.0.2/MSDK/wpa_supplicant/src/crypto\crypto_internal.c **** 		break;
  74:C:/Users/stapi/OneDrive/Desktop/GD32VW553/V1_MQTT_OK/GD32VW55X_Wifi_BLE_SDK/GD32VW55x_RELEASE_V1.0.2/MSDK/wpa_supplicant/src/crypto\crypto_internal.c **** #endif /* CONFIG_INTERNAL_SHA512 */
  75:C:/Users/stapi/OneDrive/Desktop/GD32VW553/V1_MQTT_OK/GD32VW55X_Wifi_BLE_SDK/GD32VW55x_RELEASE_V1.0.2/MSDK/wpa_supplicant/src/crypto\crypto_internal.c **** 	case CRYPTO_HASH_ALG_HMAC_MD5:
  76:C:/Users/stapi/OneDrive/Desktop/GD32VW553/V1_MQTT_OK/GD32VW55X_Wifi_BLE_SDK/GD32VW55x_RELEASE_V1.0.2/MSDK/wpa_supplicant/src/crypto\crypto_internal.c **** 		if (key_len > sizeof(k_pad)) {
  77:C:/Users/stapi/OneDrive/Desktop/GD32VW553/V1_MQTT_OK/GD32VW55X_Wifi_BLE_SDK/GD32VW55x_RELEASE_V1.0.2/MSDK/wpa_supplicant/src/crypto\crypto_internal.c **** 			MD5Init(&ctx->u.md5);
  78:C:/Users/stapi/OneDrive/Desktop/GD32VW553/V1_MQTT_OK/GD32VW55X_Wifi_BLE_SDK/GD32VW55x_RELEASE_V1.0.2/MSDK/wpa_supplicant/src/crypto\crypto_internal.c **** 			MD5Update(&ctx->u.md5, key, key_len);
  79:C:/Users/stapi/OneDrive/Desktop/GD32VW553/V1_MQTT_OK/GD32VW55X_Wifi_BLE_SDK/GD32VW55x_RELEASE_V1.0.2/MSDK/wpa_supplicant/src/crypto\crypto_internal.c **** 			MD5Final(tk, &ctx->u.md5);
  80:C:/Users/stapi/OneDrive/Desktop/GD32VW553/V1_MQTT_OK/GD32VW55X_Wifi_BLE_SDK/GD32VW55x_RELEASE_V1.0.2/MSDK/wpa_supplicant/src/crypto\crypto_internal.c **** 			key = tk;
  81:C:/Users/stapi/OneDrive/Desktop/GD32VW553/V1_MQTT_OK/GD32VW55X_Wifi_BLE_SDK/GD32VW55x_RELEASE_V1.0.2/MSDK/wpa_supplicant/src/crypto\crypto_internal.c **** 			key_len = 16;
  82:C:/Users/stapi/OneDrive/Desktop/GD32VW553/V1_MQTT_OK/GD32VW55X_Wifi_BLE_SDK/GD32VW55x_RELEASE_V1.0.2/MSDK/wpa_supplicant/src/crypto\crypto_internal.c **** 		}
  83:C:/Users/stapi/OneDrive/Desktop/GD32VW553/V1_MQTT_OK/GD32VW55X_Wifi_BLE_SDK/GD32VW55x_RELEASE_V1.0.2/MSDK/wpa_supplicant/src/crypto\crypto_internal.c **** 		os_memcpy(ctx->key, key, key_len);
  84:C:/Users/stapi/OneDrive/Desktop/GD32VW553/V1_MQTT_OK/GD32VW55X_Wifi_BLE_SDK/GD32VW55x_RELEASE_V1.0.2/MSDK/wpa_supplicant/src/crypto\crypto_internal.c **** 		ctx->key_len = key_len;
  85:C:/Users/stapi/OneDrive/Desktop/GD32VW553/V1_MQTT_OK/GD32VW55X_Wifi_BLE_SDK/GD32VW55x_RELEASE_V1.0.2/MSDK/wpa_supplicant/src/crypto\crypto_internal.c **** 
  86:C:/Users/stapi/OneDrive/Desktop/GD32VW553/V1_MQTT_OK/GD32VW55X_Wifi_BLE_SDK/GD32VW55x_RELEASE_V1.0.2/MSDK/wpa_supplicant/src/crypto\crypto_internal.c **** 		os_memcpy(k_pad, key, key_len);
  87:C:/Users/stapi/OneDrive/Desktop/GD32VW553/V1_MQTT_OK/GD32VW55X_Wifi_BLE_SDK/GD32VW55x_RELEASE_V1.0.2/MSDK/wpa_supplicant/src/crypto\crypto_internal.c **** 		if (key_len < sizeof(k_pad))
  88:C:/Users/stapi/OneDrive/Desktop/GD32VW553/V1_MQTT_OK/GD32VW55X_Wifi_BLE_SDK/GD32VW55x_RELEASE_V1.0.2/MSDK/wpa_supplicant/src/crypto\crypto_internal.c **** 			os_memset(k_pad + key_len, 0, sizeof(k_pad) - key_len);
  89:C:/Users/stapi/OneDrive/Desktop/GD32VW553/V1_MQTT_OK/GD32VW55X_Wifi_BLE_SDK/GD32VW55x_RELEASE_V1.0.2/MSDK/wpa_supplicant/src/crypto\crypto_internal.c **** 		for (i = 0; i < sizeof(k_pad); i++)
  90:C:/Users/stapi/OneDrive/Desktop/GD32VW553/V1_MQTT_OK/GD32VW55X_Wifi_BLE_SDK/GD32VW55x_RELEASE_V1.0.2/MSDK/wpa_supplicant/src/crypto\crypto_internal.c **** 			k_pad[i] ^= 0x36;
  91:C:/Users/stapi/OneDrive/Desktop/GD32VW553/V1_MQTT_OK/GD32VW55X_Wifi_BLE_SDK/GD32VW55x_RELEASE_V1.0.2/MSDK/wpa_supplicant/src/crypto\crypto_internal.c **** 		MD5Init(&ctx->u.md5);
  92:C:/Users/stapi/OneDrive/Desktop/GD32VW553/V1_MQTT_OK/GD32VW55X_Wifi_BLE_SDK/GD32VW55x_RELEASE_V1.0.2/MSDK/wpa_supplicant/src/crypto\crypto_internal.c **** 		MD5Update(&ctx->u.md5, k_pad, sizeof(k_pad));
  93:C:/Users/stapi/OneDrive/Desktop/GD32VW553/V1_MQTT_OK/GD32VW55X_Wifi_BLE_SDK/GD32VW55x_RELEASE_V1.0.2/MSDK/wpa_supplicant/src/crypto\crypto_internal.c **** 		break;
  94:C:/Users/stapi/OneDrive/Desktop/GD32VW553/V1_MQTT_OK/GD32VW55X_Wifi_BLE_SDK/GD32VW55x_RELEASE_V1.0.2/MSDK/wpa_supplicant/src/crypto\crypto_internal.c **** 	case CRYPTO_HASH_ALG_HMAC_SHA1:
  95:C:/Users/stapi/OneDrive/Desktop/GD32VW553/V1_MQTT_OK/GD32VW55X_Wifi_BLE_SDK/GD32VW55x_RELEASE_V1.0.2/MSDK/wpa_supplicant/src/crypto\crypto_internal.c **** 		if (key_len > sizeof(k_pad)) {
  96:C:/Users/stapi/OneDrive/Desktop/GD32VW553/V1_MQTT_OK/GD32VW55X_Wifi_BLE_SDK/GD32VW55x_RELEASE_V1.0.2/MSDK/wpa_supplicant/src/crypto\crypto_internal.c **** 			SHA1Init(&ctx->u.sha1);
  97:C:/Users/stapi/OneDrive/Desktop/GD32VW553/V1_MQTT_OK/GD32VW55X_Wifi_BLE_SDK/GD32VW55x_RELEASE_V1.0.2/MSDK/wpa_supplicant/src/crypto\crypto_internal.c **** 			SHA1Update(&ctx->u.sha1, key, key_len);
  98:C:/Users/stapi/OneDrive/Desktop/GD32VW553/V1_MQTT_OK/GD32VW55X_Wifi_BLE_SDK/GD32VW55x_RELEASE_V1.0.2/MSDK/wpa_supplicant/src/crypto\crypto_internal.c **** 			SHA1Final(tk, &ctx->u.sha1);
  99:C:/Users/stapi/OneDrive/Desktop/GD32VW553/V1_MQTT_OK/GD32VW55X_Wifi_BLE_SDK/GD32VW55x_RELEASE_V1.0.2/MSDK/wpa_supplicant/src/crypto\crypto_internal.c **** 			key = tk;
 100:C:/Users/stapi/OneDrive/Desktop/GD32VW553/V1_MQTT_OK/GD32VW55X_Wifi_BLE_SDK/GD32VW55x_RELEASE_V1.0.2/MSDK/wpa_supplicant/src/crypto\crypto_internal.c **** 			key_len = 20;
 101:C:/Users/stapi/OneDrive/Desktop/GD32VW553/V1_MQTT_OK/GD32VW55X_Wifi_BLE_SDK/GD32VW55x_RELEASE_V1.0.2/MSDK/wpa_supplicant/src/crypto\crypto_internal.c **** 		}
 102:C:/Users/stapi/OneDrive/Desktop/GD32VW553/V1_MQTT_OK/GD32VW55X_Wifi_BLE_SDK/GD32VW55x_RELEASE_V1.0.2/MSDK/wpa_supplicant/src/crypto\crypto_internal.c **** 		os_memcpy(ctx->key, key, key_len);
 103:C:/Users/stapi/OneDrive/Desktop/GD32VW553/V1_MQTT_OK/GD32VW55X_Wifi_BLE_SDK/GD32VW55x_RELEASE_V1.0.2/MSDK/wpa_supplicant/src/crypto\crypto_internal.c **** 		ctx->key_len = key_len;
 104:C:/Users/stapi/OneDrive/Desktop/GD32VW553/V1_MQTT_OK/GD32VW55X_Wifi_BLE_SDK/GD32VW55x_RELEASE_V1.0.2/MSDK/wpa_supplicant/src/crypto\crypto_internal.c **** 
 105:C:/Users/stapi/OneDrive/Desktop/GD32VW553/V1_MQTT_OK/GD32VW55X_Wifi_BLE_SDK/GD32VW55x_RELEASE_V1.0.2/MSDK/wpa_supplicant/src/crypto\crypto_internal.c **** 		os_memcpy(k_pad, key, key_len);
 106:C:/Users/stapi/OneDrive/Desktop/GD32VW553/V1_MQTT_OK/GD32VW55X_Wifi_BLE_SDK/GD32VW55x_RELEASE_V1.0.2/MSDK/wpa_supplicant/src/crypto\crypto_internal.c **** 		if (key_len < sizeof(k_pad))
 107:C:/Users/stapi/OneDrive/Desktop/GD32VW553/V1_MQTT_OK/GD32VW55X_Wifi_BLE_SDK/GD32VW55x_RELEASE_V1.0.2/MSDK/wpa_supplicant/src/crypto\crypto_internal.c **** 			os_memset(k_pad + key_len, 0, sizeof(k_pad) - key_len);
 108:C:/Users/stapi/OneDrive/Desktop/GD32VW553/V1_MQTT_OK/GD32VW55X_Wifi_BLE_SDK/GD32VW55x_RELEASE_V1.0.2/MSDK/wpa_supplicant/src/crypto\crypto_internal.c **** 		for (i = 0; i < sizeof(k_pad); i++)
 109:C:/Users/stapi/OneDrive/Desktop/GD32VW553/V1_MQTT_OK/GD32VW55X_Wifi_BLE_SDK/GD32VW55x_RELEASE_V1.0.2/MSDK/wpa_supplicant/src/crypto\crypto_internal.c **** 			k_pad[i] ^= 0x36;
 110:C:/Users/stapi/OneDrive/Desktop/GD32VW553/V1_MQTT_OK/GD32VW55X_Wifi_BLE_SDK/GD32VW55x_RELEASE_V1.0.2/MSDK/wpa_supplicant/src/crypto\crypto_internal.c **** 		SHA1Init(&ctx->u.sha1);
 111:C:/Users/stapi/OneDrive/Desktop/GD32VW553/V1_MQTT_OK/GD32VW55X_Wifi_BLE_SDK/GD32VW55x_RELEASE_V1.0.2/MSDK/wpa_supplicant/src/crypto\crypto_internal.c **** 		SHA1Update(&ctx->u.sha1, k_pad, sizeof(k_pad));
 112:C:/Users/stapi/OneDrive/Desktop/GD32VW553/V1_MQTT_OK/GD32VW55X_Wifi_BLE_SDK/GD32VW55x_RELEASE_V1.0.2/MSDK/wpa_supplicant/src/crypto\crypto_internal.c **** 		break;
 113:C:/Users/stapi/OneDrive/Desktop/GD32VW553/V1_MQTT_OK/GD32VW55X_Wifi_BLE_SDK/GD32VW55x_RELEASE_V1.0.2/MSDK/wpa_supplicant/src/crypto\crypto_internal.c **** #ifdef CONFIG_SHA256
 114:C:/Users/stapi/OneDrive/Desktop/GD32VW553/V1_MQTT_OK/GD32VW55X_Wifi_BLE_SDK/GD32VW55x_RELEASE_V1.0.2/MSDK/wpa_supplicant/src/crypto\crypto_internal.c **** 	case CRYPTO_HASH_ALG_HMAC_SHA256:
 115:C:/Users/stapi/OneDrive/Desktop/GD32VW553/V1_MQTT_OK/GD32VW55X_Wifi_BLE_SDK/GD32VW55x_RELEASE_V1.0.2/MSDK/wpa_supplicant/src/crypto\crypto_internal.c **** 		if (key_len > sizeof(k_pad)) {
 116:C:/Users/stapi/OneDrive/Desktop/GD32VW553/V1_MQTT_OK/GD32VW55X_Wifi_BLE_SDK/GD32VW55x_RELEASE_V1.0.2/MSDK/wpa_supplicant/src/crypto\crypto_internal.c **** 			sha256_init(&ctx->u.sha256);
 117:C:/Users/stapi/OneDrive/Desktop/GD32VW553/V1_MQTT_OK/GD32VW55X_Wifi_BLE_SDK/GD32VW55x_RELEASE_V1.0.2/MSDK/wpa_supplicant/src/crypto\crypto_internal.c **** 			sha256_process(&ctx->u.sha256, key, key_len);
 118:C:/Users/stapi/OneDrive/Desktop/GD32VW553/V1_MQTT_OK/GD32VW55X_Wifi_BLE_SDK/GD32VW55x_RELEASE_V1.0.2/MSDK/wpa_supplicant/src/crypto\crypto_internal.c **** 			sha256_done(&ctx->u.sha256, tk);
 119:C:/Users/stapi/OneDrive/Desktop/GD32VW553/V1_MQTT_OK/GD32VW55X_Wifi_BLE_SDK/GD32VW55x_RELEASE_V1.0.2/MSDK/wpa_supplicant/src/crypto\crypto_internal.c **** 			key = tk;
 120:C:/Users/stapi/OneDrive/Desktop/GD32VW553/V1_MQTT_OK/GD32VW55X_Wifi_BLE_SDK/GD32VW55x_RELEASE_V1.0.2/MSDK/wpa_supplicant/src/crypto\crypto_internal.c **** 			key_len = 32;
 121:C:/Users/stapi/OneDrive/Desktop/GD32VW553/V1_MQTT_OK/GD32VW55X_Wifi_BLE_SDK/GD32VW55x_RELEASE_V1.0.2/MSDK/wpa_supplicant/src/crypto\crypto_internal.c **** 		}
 122:C:/Users/stapi/OneDrive/Desktop/GD32VW553/V1_MQTT_OK/GD32VW55X_Wifi_BLE_SDK/GD32VW55x_RELEASE_V1.0.2/MSDK/wpa_supplicant/src/crypto\crypto_internal.c **** 		os_memcpy(ctx->key, key, key_len);
 123:C:/Users/stapi/OneDrive/Desktop/GD32VW553/V1_MQTT_OK/GD32VW55X_Wifi_BLE_SDK/GD32VW55x_RELEASE_V1.0.2/MSDK/wpa_supplicant/src/crypto\crypto_internal.c **** 		ctx->key_len = key_len;
 124:C:/Users/stapi/OneDrive/Desktop/GD32VW553/V1_MQTT_OK/GD32VW55X_Wifi_BLE_SDK/GD32VW55x_RELEASE_V1.0.2/MSDK/wpa_supplicant/src/crypto\crypto_internal.c **** 
 125:C:/Users/stapi/OneDrive/Desktop/GD32VW553/V1_MQTT_OK/GD32VW55X_Wifi_BLE_SDK/GD32VW55x_RELEASE_V1.0.2/MSDK/wpa_supplicant/src/crypto\crypto_internal.c **** 		os_memcpy(k_pad, key, key_len);
 126:C:/Users/stapi/OneDrive/Desktop/GD32VW553/V1_MQTT_OK/GD32VW55X_Wifi_BLE_SDK/GD32VW55x_RELEASE_V1.0.2/MSDK/wpa_supplicant/src/crypto\crypto_internal.c **** 		if (key_len < sizeof(k_pad))
 127:C:/Users/stapi/OneDrive/Desktop/GD32VW553/V1_MQTT_OK/GD32VW55X_Wifi_BLE_SDK/GD32VW55x_RELEASE_V1.0.2/MSDK/wpa_supplicant/src/crypto\crypto_internal.c **** 			os_memset(k_pad + key_len, 0, sizeof(k_pad) - key_len);
 128:C:/Users/stapi/OneDrive/Desktop/GD32VW553/V1_MQTT_OK/GD32VW55X_Wifi_BLE_SDK/GD32VW55x_RELEASE_V1.0.2/MSDK/wpa_supplicant/src/crypto\crypto_internal.c **** 		for (i = 0; i < sizeof(k_pad); i++)
 129:C:/Users/stapi/OneDrive/Desktop/GD32VW553/V1_MQTT_OK/GD32VW55X_Wifi_BLE_SDK/GD32VW55x_RELEASE_V1.0.2/MSDK/wpa_supplicant/src/crypto\crypto_internal.c **** 			k_pad[i] ^= 0x36;
 130:C:/Users/stapi/OneDrive/Desktop/GD32VW553/V1_MQTT_OK/GD32VW55X_Wifi_BLE_SDK/GD32VW55x_RELEASE_V1.0.2/MSDK/wpa_supplicant/src/crypto\crypto_internal.c **** 		sha256_init(&ctx->u.sha256);
 131:C:/Users/stapi/OneDrive/Desktop/GD32VW553/V1_MQTT_OK/GD32VW55X_Wifi_BLE_SDK/GD32VW55x_RELEASE_V1.0.2/MSDK/wpa_supplicant/src/crypto\crypto_internal.c **** 		sha256_process(&ctx->u.sha256, k_pad, sizeof(k_pad));
 132:C:/Users/stapi/OneDrive/Desktop/GD32VW553/V1_MQTT_OK/GD32VW55X_Wifi_BLE_SDK/GD32VW55x_RELEASE_V1.0.2/MSDK/wpa_supplicant/src/crypto\crypto_internal.c **** 		break;
 133:C:/Users/stapi/OneDrive/Desktop/GD32VW553/V1_MQTT_OK/GD32VW55X_Wifi_BLE_SDK/GD32VW55x_RELEASE_V1.0.2/MSDK/wpa_supplicant/src/crypto\crypto_internal.c **** #endif /* CONFIG_SHA256 */
 134:C:/Users/stapi/OneDrive/Desktop/GD32VW553/V1_MQTT_OK/GD32VW55X_Wifi_BLE_SDK/GD32VW55x_RELEASE_V1.0.2/MSDK/wpa_supplicant/src/crypto\crypto_internal.c **** 	default:
 135:C:/Users/stapi/OneDrive/Desktop/GD32VW553/V1_MQTT_OK/GD32VW55X_Wifi_BLE_SDK/GD32VW55x_RELEASE_V1.0.2/MSDK/wpa_supplicant/src/crypto\crypto_internal.c **** 		os_free(ctx);
 136:C:/Users/stapi/OneDrive/Desktop/GD32VW553/V1_MQTT_OK/GD32VW55X_Wifi_BLE_SDK/GD32VW55x_RELEASE_V1.0.2/MSDK/wpa_supplicant/src/crypto\crypto_internal.c **** 		return NULL;
 137:C:/Users/stapi/OneDrive/Desktop/GD32VW553/V1_MQTT_OK/GD32VW55X_Wifi_BLE_SDK/GD32VW55x_RELEASE_V1.0.2/MSDK/wpa_supplicant/src/crypto\crypto_internal.c **** 	}
 138:C:/Users/stapi/OneDrive/Desktop/GD32VW553/V1_MQTT_OK/GD32VW55X_Wifi_BLE_SDK/GD32VW55x_RELEASE_V1.0.2/MSDK/wpa_supplicant/src/crypto\crypto_internal.c **** 
 139:C:/Users/stapi/OneDrive/Desktop/GD32VW553/V1_MQTT_OK/GD32VW55X_Wifi_BLE_SDK/GD32VW55x_RELEASE_V1.0.2/MSDK/wpa_supplicant/src/crypto\crypto_internal.c **** 	return ctx;
 140:C:/Users/stapi/OneDrive/Desktop/GD32VW553/V1_MQTT_OK/GD32VW55X_Wifi_BLE_SDK/GD32VW55x_RELEASE_V1.0.2/MSDK/wpa_supplicant/src/crypto\crypto_internal.c **** }
  63              		.loc 1 140 1 is_stmt 0
  64 003e 2685     		mv	a0,s1
  65 0040 6561     		addi	sp,sp,112
  66              		.cfi_remember_state
  67              		.cfi_def_cfa_offset 0
  68 0042 17030000 		tail	__riscv_restore_3
  68      67000300 
  69              		.cfi_restore 18
  70              		.cfi_restore 9
  71              		.cfi_restore 8
  72              		.cfi_restore 1
  73              		.cfi_def_cfa_offset -16
  74              	.LVL5:
  75              	.L4:
  76              		.cfi_restore_state
  53:C:/Users/stapi/OneDrive/Desktop/GD32VW553/V1_MQTT_OK/GD32VW55X_Wifi_BLE_SDK/GD32VW55x_RELEASE_V1.0.2/MSDK/wpa_supplicant/src/crypto\crypto_internal.c **** 	case CRYPTO_HASH_ALG_MD5:
  77              		.loc 1 53 2
  78 004a 8D47     		li	a5,3
  79 004c 630FF90A 		beq	s2,a5,.L7
 135:C:/Users/stapi/OneDrive/Desktop/GD32VW553/V1_MQTT_OK/GD32VW55X_Wifi_BLE_SDK/GD32VW55x_RELEASE_V1.0.2/MSDK/wpa_supplicant/src/crypto\crypto_internal.c **** 		return NULL;
  80              		.loc 1 135 3 is_stmt 1
  81 0050 97000000 		call	os_free
  81      E7800000 
  82              	.LVL6:
 136:C:/Users/stapi/OneDrive/Desktop/GD32VW553/V1_MQTT_OK/GD32VW55X_Wifi_BLE_SDK/GD32VW55x_RELEASE_V1.0.2/MSDK/wpa_supplicant/src/crypto\crypto_internal.c **** 	}
  83              		.loc 1 136 3
 136:C:/Users/stapi/OneDrive/Desktop/GD32VW553/V1_MQTT_OK/GD32VW55X_Wifi_BLE_SDK/GD32VW55x_RELEASE_V1.0.2/MSDK/wpa_supplicant/src/crypto\crypto_internal.c **** 	}
  84              		.loc 1 136 10 is_stmt 0
  85 0058 8144     		li	s1,0
  86              	.LVL7:
  87 005a D5B7     		j	.L1
  88              	.LVL8:
  89              	.L20:
  58:C:/Users/stapi/OneDrive/Desktop/GD32VW553/V1_MQTT_OK/GD32VW55X_Wifi_BLE_SDK/GD32VW55x_RELEASE_V1.0.2/MSDK/wpa_supplicant/src/crypto\crypto_internal.c **** 		break;
  90              		.loc 1 58 3 is_stmt 1
  91 005c 97000000 		call	SHA1Init
  91      E7800000 
  92              	.LVL9:
  59:C:/Users/stapi/OneDrive/Desktop/GD32VW553/V1_MQTT_OK/GD32VW55X_Wifi_BLE_SDK/GD32VW55x_RELEASE_V1.0.2/MSDK/wpa_supplicant/src/crypto\crypto_internal.c **** #ifdef CONFIG_SHA256
  93              		.loc 1 59 3
  94 0064 E9BF     		j	.L1
  95              	.L3:
  76:C:/Users/stapi/OneDrive/Desktop/GD32VW553/V1_MQTT_OK/GD32VW55X_Wifi_BLE_SDK/GD32VW55x_RELEASE_V1.0.2/MSDK/wpa_supplicant/src/crypto\crypto_internal.c **** 			MD5Init(&ctx->u.md5);
  96              		.loc 1 76 3
  76:C:/Users/stapi/OneDrive/Desktop/GD32VW553/V1_MQTT_OK/GD32VW55X_Wifi_BLE_SDK/GD32VW55x_RELEASE_V1.0.2/MSDK/wpa_supplicant/src/crypto\crypto_internal.c **** 			MD5Init(&ctx->u.md5);
  97              		.loc 1 76 6 is_stmt 0
  98 0066 93070004 		li	a5,64
  55:C:/Users/stapi/OneDrive/Desktop/GD32VW553/V1_MQTT_OK/GD32VW55X_Wifi_BLE_SDK/GD32VW55x_RELEASE_V1.0.2/MSDK/wpa_supplicant/src/crypto\crypto_internal.c **** 		break;
  99              		.loc 1 55 3
 100 006a 13094500 		addi	s2,a0,4
 101              	.LVL10:
  76:C:/Users/stapi/OneDrive/Desktop/GD32VW553/V1_MQTT_OK/GD32VW55X_Wifi_BLE_SDK/GD32VW55x_RELEASE_V1.0.2/MSDK/wpa_supplicant/src/crypto\crypto_internal.c **** 			MD5Init(&ctx->u.md5);
 102              		.loc 1 76 6
 103 006e 63F78702 		bleu	s0,a5,.L9
  77:C:/Users/stapi/OneDrive/Desktop/GD32VW553/V1_MQTT_OK/GD32VW55X_Wifi_BLE_SDK/GD32VW55x_RELEASE_V1.0.2/MSDK/wpa_supplicant/src/crypto\crypto_internal.c **** 			MD5Update(&ctx->u.md5, key, key_len);
 104              		.loc 1 77 4
 105 0072 4A85     		mv	a0,s2
 106 0074 2EC6     		sw	a1,12(sp)
 107              	.LVL11:
  77:C:/Users/stapi/OneDrive/Desktop/GD32VW553/V1_MQTT_OK/GD32VW55X_Wifi_BLE_SDK/GD32VW55x_RELEASE_V1.0.2/MSDK/wpa_supplicant/src/crypto\crypto_internal.c **** 			MD5Update(&ctx->u.md5, key, key_len);
 108              		.loc 1 77 4 is_stmt 1
 109 0076 97000000 		call	MD5Init
 109      E7800000 
 110              	.LVL12:
  78:C:/Users/stapi/OneDrive/Desktop/GD32VW553/V1_MQTT_OK/GD32VW55X_Wifi_BLE_SDK/GD32VW55x_RELEASE_V1.0.2/MSDK/wpa_supplicant/src/crypto\crypto_internal.c **** 			MD5Final(tk, &ctx->u.md5);
 111              		.loc 1 78 4
 112 007e B245     		lw	a1,12(sp)
 113 0080 2286     		mv	a2,s0
 114 0082 4A85     		mv	a0,s2
 115 0084 97000000 		call	MD5Update
 115      E7800000 
 116              	.LVL13:
  79:C:/Users/stapi/OneDrive/Desktop/GD32VW553/V1_MQTT_OK/GD32VW55X_Wifi_BLE_SDK/GD32VW55x_RELEASE_V1.0.2/MSDK/wpa_supplicant/src/crypto\crypto_internal.c **** 			key = tk;
 117              		.loc 1 79 4
 118 008c CA85     		mv	a1,s2
 119 008e 0808     		addi	a0,sp,16
 120 0090 97000000 		call	MD5Final
 120      E7800000 
 121              	.LVL14:
  80:C:/Users/stapi/OneDrive/Desktop/GD32VW553/V1_MQTT_OK/GD32VW55X_Wifi_BLE_SDK/GD32VW55x_RELEASE_V1.0.2/MSDK/wpa_supplicant/src/crypto\crypto_internal.c **** 			key_len = 16;
 122              		.loc 1 80 4
  81:C:/Users/stapi/OneDrive/Desktop/GD32VW553/V1_MQTT_OK/GD32VW55X_Wifi_BLE_SDK/GD32VW55x_RELEASE_V1.0.2/MSDK/wpa_supplicant/src/crypto\crypto_internal.c **** 		}
 123              		.loc 1 81 4
  81:C:/Users/stapi/OneDrive/Desktop/GD32VW553/V1_MQTT_OK/GD32VW55X_Wifi_BLE_SDK/GD32VW55x_RELEASE_V1.0.2/MSDK/wpa_supplicant/src/crypto\crypto_internal.c **** 		}
 124              		.loc 1 81 12 is_stmt 0
 125 0098 4144     		li	s0,16
  80:C:/Users/stapi/OneDrive/Desktop/GD32VW553/V1_MQTT_OK/GD32VW55X_Wifi_BLE_SDK/GD32VW55x_RELEASE_V1.0.2/MSDK/wpa_supplicant/src/crypto\crypto_internal.c **** 			key_len = 16;
 126              		.loc 1 80 8
 127 009a 0C08     		addi	a1,sp,16
 128              	.LVL15:
 129              	.L9:
  83:C:/Users/stapi/OneDrive/Desktop/GD32VW553/V1_MQTT_OK/GD32VW55X_Wifi_BLE_SDK/GD32VW55x_RELEASE_V1.0.2/MSDK/wpa_supplicant/src/crypto\crypto_internal.c **** 		ctx->key_len = key_len;
 130              		.loc 1 83 3 is_stmt 1
 131 009c 2286     		mv	a2,s0
 132 009e 13850406 		addi	a0,s1,96
 133 00a2 2EC6     		sw	a1,12(sp)
 134 00a4 97000000 		call	os_memcpy
 134      E7800000 
 135              	.LVL16:
  84:C:/Users/stapi/OneDrive/Desktop/GD32VW553/V1_MQTT_OK/GD32VW55X_Wifi_BLE_SDK/GD32VW55x_RELEASE_V1.0.2/MSDK/wpa_supplicant/src/crypto\crypto_internal.c **** 
 136              		.loc 1 84 3
  86:C:/Users/stapi/OneDrive/Desktop/GD32VW553/V1_MQTT_OK/GD32VW55X_Wifi_BLE_SDK/GD32VW55x_RELEASE_V1.0.2/MSDK/wpa_supplicant/src/crypto\crypto_internal.c **** 		if (key_len < sizeof(k_pad))
 137              		.loc 1 86 3 is_stmt 0
 138 00ac B245     		lw	a1,12(sp)
 139 00ae 2286     		mv	a2,s0
  84:C:/Users/stapi/OneDrive/Desktop/GD32VW553/V1_MQTT_OK/GD32VW55X_Wifi_BLE_SDK/GD32VW55x_RELEASE_V1.0.2/MSDK/wpa_supplicant/src/crypto\crypto_internal.c **** 
 140              		.loc 1 84 16
 141 00b0 23A0840A 		sw	s0,160(s1)
  86:C:/Users/stapi/OneDrive/Desktop/GD32VW553/V1_MQTT_OK/GD32VW55X_Wifi_BLE_SDK/GD32VW55x_RELEASE_V1.0.2/MSDK/wpa_supplicant/src/crypto\crypto_internal.c **** 		if (key_len < sizeof(k_pad))
 142              		.loc 1 86 3 is_stmt 1
 143 00b4 0818     		addi	a0,sp,48
 144 00b6 97000000 		call	os_memcpy
 144      E7800000 
 145              	.LVL17:
  87:C:/Users/stapi/OneDrive/Desktop/GD32VW553/V1_MQTT_OK/GD32VW55X_Wifi_BLE_SDK/GD32VW55x_RELEASE_V1.0.2/MSDK/wpa_supplicant/src/crypto\crypto_internal.c **** 			os_memset(k_pad + key_len, 0, sizeof(k_pad) - key_len);
 146              		.loc 1 87 3
  87:C:/Users/stapi/OneDrive/Desktop/GD32VW553/V1_MQTT_OK/GD32VW55X_Wifi_BLE_SDK/GD32VW55x_RELEASE_V1.0.2/MSDK/wpa_supplicant/src/crypto\crypto_internal.c **** 			os_memset(k_pad + key_len, 0, sizeof(k_pad) - key_len);
 147              		.loc 1 87 6 is_stmt 0
 148 00be 13060004 		li	a2,64
 149 00c2 630BC400 		beq	s0,a2,.L10
  88:C:/Users/stapi/OneDrive/Desktop/GD32VW553/V1_MQTT_OK/GD32VW55X_Wifi_BLE_SDK/GD32VW55x_RELEASE_V1.0.2/MSDK/wpa_supplicant/src/crypto\crypto_internal.c **** 		for (i = 0; i < sizeof(k_pad); i++)
 150              		.loc 1 88 4 is_stmt 1
 151 00c6 1C18     		addi	a5,sp,48
 152 00c8 018E     		sub	a2,a2,s0
 153 00ca 8145     		li	a1,0
 154 00cc 33858700 		add	a0,a5,s0
 155 00d0 97000000 		call	os_memset
 155      E7800000 
 156              	.LVL18:
 157              	.L10:
 158 00d8 1C18     		addi	a5,sp,48
 159              	.L11:
 160              	.LVL19:
  90:C:/Users/stapi/OneDrive/Desktop/GD32VW553/V1_MQTT_OK/GD32VW55X_Wifi_BLE_SDK/GD32VW55x_RELEASE_V1.0.2/MSDK/wpa_supplicant/src/crypto\crypto_internal.c **** 		MD5Init(&ctx->u.md5);
 161              		.loc 1 90 4 discriminator 3
  90:C:/Users/stapi/OneDrive/Desktop/GD32VW553/V1_MQTT_OK/GD32VW55X_Wifi_BLE_SDK/GD32VW55x_RELEASE_V1.0.2/MSDK/wpa_supplicant/src/crypto\crypto_internal.c **** 		MD5Init(&ctx->u.md5);
 162              		.loc 1 90 13 is_stmt 0 discriminator 3
 163 00da 03C70700 		lbu	a4,0(a5)
  89:C:/Users/stapi/OneDrive/Desktop/GD32VW553/V1_MQTT_OK/GD32VW55X_Wifi_BLE_SDK/GD32VW55x_RELEASE_V1.0.2/MSDK/wpa_supplicant/src/crypto\crypto_internal.c **** 			k_pad[i] ^= 0x36;
 164              		.loc 1 89 3 discriminator 3
 165 00de 8507     		addi	a5,a5,1
 166              	.LVL20:
  90:C:/Users/stapi/OneDrive/Desktop/GD32VW553/V1_MQTT_OK/GD32VW55X_Wifi_BLE_SDK/GD32VW55x_RELEASE_V1.0.2/MSDK/wpa_supplicant/src/crypto\crypto_internal.c **** 		MD5Init(&ctx->u.md5);
 167              		.loc 1 90 13 discriminator 3
 168 00e0 13476703 		xori	a4,a4,54
 169 00e4 A38FE7FE 		sb	a4,-1(a5)
  89:C:/Users/stapi/OneDrive/Desktop/GD32VW553/V1_MQTT_OK/GD32VW55X_Wifi_BLE_SDK/GD32VW55x_RELEASE_V1.0.2/MSDK/wpa_supplicant/src/crypto\crypto_internal.c **** 			k_pad[i] ^= 0x36;
 170              		.loc 1 89 34 is_stmt 1 discriminator 3
 171              	.LVL21:
  89:C:/Users/stapi/OneDrive/Desktop/GD32VW553/V1_MQTT_OK/GD32VW55X_Wifi_BLE_SDK/GD32VW55x_RELEASE_V1.0.2/MSDK/wpa_supplicant/src/crypto\crypto_internal.c **** 			k_pad[i] ^= 0x36;
 172              		.loc 1 89 15 discriminator 3
  89:C:/Users/stapi/OneDrive/Desktop/GD32VW553/V1_MQTT_OK/GD32VW55X_Wifi_BLE_SDK/GD32VW55x_RELEASE_V1.0.2/MSDK/wpa_supplicant/src/crypto\crypto_internal.c **** 			k_pad[i] ^= 0x36;
 173              		.loc 1 89 3 is_stmt 0 discriminator 3
 174 00e8 9818     		addi	a4,sp,112
 175 00ea E318F7FE 		bne	a4,a5,.L11
  91:C:/Users/stapi/OneDrive/Desktop/GD32VW553/V1_MQTT_OK/GD32VW55X_Wifi_BLE_SDK/GD32VW55x_RELEASE_V1.0.2/MSDK/wpa_supplicant/src/crypto\crypto_internal.c **** 		MD5Update(&ctx->u.md5, k_pad, sizeof(k_pad));
 176              		.loc 1 91 3 is_stmt 1
 177 00ee 4A85     		mv	a0,s2
 178 00f0 97000000 		call	MD5Init
 178      E7800000 
 179              	.LVL22:
  92:C:/Users/stapi/OneDrive/Desktop/GD32VW553/V1_MQTT_OK/GD32VW55X_Wifi_BLE_SDK/GD32VW55x_RELEASE_V1.0.2/MSDK/wpa_supplicant/src/crypto\crypto_internal.c **** 		break;
 180              		.loc 1 92 3
 181 00f8 13060004 		li	a2,64
 182 00fc 0C18     		addi	a1,sp,48
 183 00fe 4A85     		mv	a0,s2
 184 0100 97000000 		call	MD5Update
 184      E7800000 
 185              	.LVL23:
  93:C:/Users/stapi/OneDrive/Desktop/GD32VW553/V1_MQTT_OK/GD32VW55X_Wifi_BLE_SDK/GD32VW55x_RELEASE_V1.0.2/MSDK/wpa_supplicant/src/crypto\crypto_internal.c **** 	case CRYPTO_HASH_ALG_HMAC_SHA1:
 186              		.loc 1 93 3
 187 0108 1DBF     		j	.L1
 188              	.LVL24:
 189              	.L7:
  95:C:/Users/stapi/OneDrive/Desktop/GD32VW553/V1_MQTT_OK/GD32VW55X_Wifi_BLE_SDK/GD32VW55x_RELEASE_V1.0.2/MSDK/wpa_supplicant/src/crypto\crypto_internal.c **** 			SHA1Init(&ctx->u.sha1);
 190              		.loc 1 95 3
  95:C:/Users/stapi/OneDrive/Desktop/GD32VW553/V1_MQTT_OK/GD32VW55X_Wifi_BLE_SDK/GD32VW55x_RELEASE_V1.0.2/MSDK/wpa_supplicant/src/crypto\crypto_internal.c **** 			SHA1Init(&ctx->u.sha1);
 191              		.loc 1 95 6 is_stmt 0
 192 010a 93070004 		li	a5,64
  55:C:/Users/stapi/OneDrive/Desktop/GD32VW553/V1_MQTT_OK/GD32VW55X_Wifi_BLE_SDK/GD32VW55x_RELEASE_V1.0.2/MSDK/wpa_supplicant/src/crypto\crypto_internal.c **** 		break;
 193              		.loc 1 55 3
 194 010e 13094500 		addi	s2,a0,4
 195              	.LVL25:
  95:C:/Users/stapi/OneDrive/Desktop/GD32VW553/V1_MQTT_OK/GD32VW55X_Wifi_BLE_SDK/GD32VW55x_RELEASE_V1.0.2/MSDK/wpa_supplicant/src/crypto\crypto_internal.c **** 			SHA1Init(&ctx->u.sha1);
 196              		.loc 1 95 6
 197 0112 63F78702 		bleu	s0,a5,.L12
  96:C:/Users/stapi/OneDrive/Desktop/GD32VW553/V1_MQTT_OK/GD32VW55X_Wifi_BLE_SDK/GD32VW55x_RELEASE_V1.0.2/MSDK/wpa_supplicant/src/crypto\crypto_internal.c **** 			SHA1Update(&ctx->u.sha1, key, key_len);
 198              		.loc 1 96 4
 199 0116 4A85     		mv	a0,s2
 200 0118 2EC6     		sw	a1,12(sp)
 201              	.LVL26:
  96:C:/Users/stapi/OneDrive/Desktop/GD32VW553/V1_MQTT_OK/GD32VW55X_Wifi_BLE_SDK/GD32VW55x_RELEASE_V1.0.2/MSDK/wpa_supplicant/src/crypto\crypto_internal.c **** 			SHA1Update(&ctx->u.sha1, key, key_len);
 202              		.loc 1 96 4 is_stmt 1
 203 011a 97000000 		call	SHA1Init
 203      E7800000 
 204              	.LVL27:
  97:C:/Users/stapi/OneDrive/Desktop/GD32VW553/V1_MQTT_OK/GD32VW55X_Wifi_BLE_SDK/GD32VW55x_RELEASE_V1.0.2/MSDK/wpa_supplicant/src/crypto\crypto_internal.c **** 			SHA1Final(tk, &ctx->u.sha1);
 205              		.loc 1 97 4
 206 0122 B245     		lw	a1,12(sp)
 207 0124 2286     		mv	a2,s0
 208 0126 4A85     		mv	a0,s2
 209 0128 97000000 		call	SHA1Update
 209      E7800000 
 210              	.LVL28:
  98:C:/Users/stapi/OneDrive/Desktop/GD32VW553/V1_MQTT_OK/GD32VW55X_Wifi_BLE_SDK/GD32VW55x_RELEASE_V1.0.2/MSDK/wpa_supplicant/src/crypto\crypto_internal.c **** 			key = tk;
 211              		.loc 1 98 4
 212 0130 CA85     		mv	a1,s2
 213 0132 0808     		addi	a0,sp,16
 214 0134 97000000 		call	SHA1Final
 214      E7800000 
 215              	.LVL29:
  99:C:/Users/stapi/OneDrive/Desktop/GD32VW553/V1_MQTT_OK/GD32VW55X_Wifi_BLE_SDK/GD32VW55x_RELEASE_V1.0.2/MSDK/wpa_supplicant/src/crypto\crypto_internal.c **** 			key_len = 20;
 216              		.loc 1 99 4
 100:C:/Users/stapi/OneDrive/Desktop/GD32VW553/V1_MQTT_OK/GD32VW55X_Wifi_BLE_SDK/GD32VW55x_RELEASE_V1.0.2/MSDK/wpa_supplicant/src/crypto\crypto_internal.c **** 		}
 217              		.loc 1 100 4
 100:C:/Users/stapi/OneDrive/Desktop/GD32VW553/V1_MQTT_OK/GD32VW55X_Wifi_BLE_SDK/GD32VW55x_RELEASE_V1.0.2/MSDK/wpa_supplicant/src/crypto\crypto_internal.c **** 		}
 218              		.loc 1 100 12 is_stmt 0
 219 013c 5144     		li	s0,20
  99:C:/Users/stapi/OneDrive/Desktop/GD32VW553/V1_MQTT_OK/GD32VW55X_Wifi_BLE_SDK/GD32VW55x_RELEASE_V1.0.2/MSDK/wpa_supplicant/src/crypto\crypto_internal.c **** 			key_len = 20;
 220              		.loc 1 99 8
 221 013e 0C08     		addi	a1,sp,16
 222              	.LVL30:
 223              	.L12:
 102:C:/Users/stapi/OneDrive/Desktop/GD32VW553/V1_MQTT_OK/GD32VW55X_Wifi_BLE_SDK/GD32VW55x_RELEASE_V1.0.2/MSDK/wpa_supplicant/src/crypto\crypto_internal.c **** 		ctx->key_len = key_len;
 224              		.loc 1 102 3 is_stmt 1
 225 0140 2286     		mv	a2,s0
 226 0142 13850406 		addi	a0,s1,96
 227 0146 2EC6     		sw	a1,12(sp)
 228 0148 97000000 		call	os_memcpy
 228      E7800000 
 229              	.LVL31:
 103:C:/Users/stapi/OneDrive/Desktop/GD32VW553/V1_MQTT_OK/GD32VW55X_Wifi_BLE_SDK/GD32VW55x_RELEASE_V1.0.2/MSDK/wpa_supplicant/src/crypto\crypto_internal.c **** 
 230              		.loc 1 103 3
 105:C:/Users/stapi/OneDrive/Desktop/GD32VW553/V1_MQTT_OK/GD32VW55X_Wifi_BLE_SDK/GD32VW55x_RELEASE_V1.0.2/MSDK/wpa_supplicant/src/crypto\crypto_internal.c **** 		if (key_len < sizeof(k_pad))
 231              		.loc 1 105 3 is_stmt 0
 232 0150 B245     		lw	a1,12(sp)
 233 0152 2286     		mv	a2,s0
 103:C:/Users/stapi/OneDrive/Desktop/GD32VW553/V1_MQTT_OK/GD32VW55X_Wifi_BLE_SDK/GD32VW55x_RELEASE_V1.0.2/MSDK/wpa_supplicant/src/crypto\crypto_internal.c **** 
 234              		.loc 1 103 16
 235 0154 23A0840A 		sw	s0,160(s1)
 105:C:/Users/stapi/OneDrive/Desktop/GD32VW553/V1_MQTT_OK/GD32VW55X_Wifi_BLE_SDK/GD32VW55x_RELEASE_V1.0.2/MSDK/wpa_supplicant/src/crypto\crypto_internal.c **** 		if (key_len < sizeof(k_pad))
 236              		.loc 1 105 3 is_stmt 1
 237 0158 0818     		addi	a0,sp,48
 238 015a 97000000 		call	os_memcpy
 238      E7800000 
 239              	.LVL32:
 106:C:/Users/stapi/OneDrive/Desktop/GD32VW553/V1_MQTT_OK/GD32VW55X_Wifi_BLE_SDK/GD32VW55x_RELEASE_V1.0.2/MSDK/wpa_supplicant/src/crypto\crypto_internal.c **** 			os_memset(k_pad + key_len, 0, sizeof(k_pad) - key_len);
 240              		.loc 1 106 3
 106:C:/Users/stapi/OneDrive/Desktop/GD32VW553/V1_MQTT_OK/GD32VW55X_Wifi_BLE_SDK/GD32VW55x_RELEASE_V1.0.2/MSDK/wpa_supplicant/src/crypto\crypto_internal.c **** 			os_memset(k_pad + key_len, 0, sizeof(k_pad) - key_len);
 241              		.loc 1 106 6 is_stmt 0
 242 0162 13060004 		li	a2,64
 243 0166 630BC400 		beq	s0,a2,.L13
 107:C:/Users/stapi/OneDrive/Desktop/GD32VW553/V1_MQTT_OK/GD32VW55X_Wifi_BLE_SDK/GD32VW55x_RELEASE_V1.0.2/MSDK/wpa_supplicant/src/crypto\crypto_internal.c **** 		for (i = 0; i < sizeof(k_pad); i++)
 244              		.loc 1 107 4 is_stmt 1
 245 016a 1C18     		addi	a5,sp,48
 246 016c 018E     		sub	a2,a2,s0
 247 016e 8145     		li	a1,0
 248 0170 33858700 		add	a0,a5,s0
 249 0174 97000000 		call	os_memset
 249      E7800000 
 250              	.LVL33:
 251              	.L13:
 252 017c 1C18     		addi	a5,sp,48
 253              	.L14:
 254              	.LVL34:
 109:C:/Users/stapi/OneDrive/Desktop/GD32VW553/V1_MQTT_OK/GD32VW55X_Wifi_BLE_SDK/GD32VW55x_RELEASE_V1.0.2/MSDK/wpa_supplicant/src/crypto\crypto_internal.c **** 		SHA1Init(&ctx->u.sha1);
 255              		.loc 1 109 4 discriminator 3
 109:C:/Users/stapi/OneDrive/Desktop/GD32VW553/V1_MQTT_OK/GD32VW55X_Wifi_BLE_SDK/GD32VW55x_RELEASE_V1.0.2/MSDK/wpa_supplicant/src/crypto\crypto_internal.c **** 		SHA1Init(&ctx->u.sha1);
 256              		.loc 1 109 13 is_stmt 0 discriminator 3
 257 017e 03C70700 		lbu	a4,0(a5)
 108:C:/Users/stapi/OneDrive/Desktop/GD32VW553/V1_MQTT_OK/GD32VW55X_Wifi_BLE_SDK/GD32VW55x_RELEASE_V1.0.2/MSDK/wpa_supplicant/src/crypto\crypto_internal.c **** 			k_pad[i] ^= 0x36;
 258              		.loc 1 108 3 discriminator 3
 259 0182 8507     		addi	a5,a5,1
 260              	.LVL35:
 109:C:/Users/stapi/OneDrive/Desktop/GD32VW553/V1_MQTT_OK/GD32VW55X_Wifi_BLE_SDK/GD32VW55x_RELEASE_V1.0.2/MSDK/wpa_supplicant/src/crypto\crypto_internal.c **** 		SHA1Init(&ctx->u.sha1);
 261              		.loc 1 109 13 discriminator 3
 262 0184 13476703 		xori	a4,a4,54
 263 0188 A38FE7FE 		sb	a4,-1(a5)
 108:C:/Users/stapi/OneDrive/Desktop/GD32VW553/V1_MQTT_OK/GD32VW55X_Wifi_BLE_SDK/GD32VW55x_RELEASE_V1.0.2/MSDK/wpa_supplicant/src/crypto\crypto_internal.c **** 			k_pad[i] ^= 0x36;
 264              		.loc 1 108 34 is_stmt 1 discriminator 3
 265              	.LVL36:
 108:C:/Users/stapi/OneDrive/Desktop/GD32VW553/V1_MQTT_OK/GD32VW55X_Wifi_BLE_SDK/GD32VW55x_RELEASE_V1.0.2/MSDK/wpa_supplicant/src/crypto\crypto_internal.c **** 			k_pad[i] ^= 0x36;
 266              		.loc 1 108 15 discriminator 3
 108:C:/Users/stapi/OneDrive/Desktop/GD32VW553/V1_MQTT_OK/GD32VW55X_Wifi_BLE_SDK/GD32VW55x_RELEASE_V1.0.2/MSDK/wpa_supplicant/src/crypto\crypto_internal.c **** 			k_pad[i] ^= 0x36;
 267              		.loc 1 108 3 is_stmt 0 discriminator 3
 268 018c 9818     		addi	a4,sp,112
 269 018e E398E7FE 		bne	a5,a4,.L14
 110:C:/Users/stapi/OneDrive/Desktop/GD32VW553/V1_MQTT_OK/GD32VW55X_Wifi_BLE_SDK/GD32VW55x_RELEASE_V1.0.2/MSDK/wpa_supplicant/src/crypto\crypto_internal.c **** 		SHA1Update(&ctx->u.sha1, k_pad, sizeof(k_pad));
 270              		.loc 1 110 3 is_stmt 1
 271 0192 4A85     		mv	a0,s2
 272 0194 97000000 		call	SHA1Init
 272      E7800000 
 273              	.LVL37:
 111:C:/Users/stapi/OneDrive/Desktop/GD32VW553/V1_MQTT_OK/GD32VW55X_Wifi_BLE_SDK/GD32VW55x_RELEASE_V1.0.2/MSDK/wpa_supplicant/src/crypto\crypto_internal.c **** 		break;
 274              		.loc 1 111 3
 275 019c 13060004 		li	a2,64
 276 01a0 0C18     		addi	a1,sp,48
 277 01a2 4A85     		mv	a0,s2
 278 01a4 97000000 		call	SHA1Update
 278      E7800000 
 279              	.LVL38:
 112:C:/Users/stapi/OneDrive/Desktop/GD32VW553/V1_MQTT_OK/GD32VW55X_Wifi_BLE_SDK/GD32VW55x_RELEASE_V1.0.2/MSDK/wpa_supplicant/src/crypto\crypto_internal.c **** #ifdef CONFIG_SHA256
 280              		.loc 1 112 3
 281 01ac 49BD     		j	.L1
 282              		.cfi_endproc
 283              	.LFE71:
 285              		.section	.text.crypto_hash_update,"ax",@progbits
 286              		.align	1
 287              		.globl	crypto_hash_update
 289              	crypto_hash_update:
 290              	.LFB72:
 141:C:/Users/stapi/OneDrive/Desktop/GD32VW553/V1_MQTT_OK/GD32VW55X_Wifi_BLE_SDK/GD32VW55x_RELEASE_V1.0.2/MSDK/wpa_supplicant/src/crypto\crypto_internal.c **** 
 142:C:/Users/stapi/OneDrive/Desktop/GD32VW553/V1_MQTT_OK/GD32VW55X_Wifi_BLE_SDK/GD32VW55x_RELEASE_V1.0.2/MSDK/wpa_supplicant/src/crypto\crypto_internal.c **** 
 143:C:/Users/stapi/OneDrive/Desktop/GD32VW553/V1_MQTT_OK/GD32VW55X_Wifi_BLE_SDK/GD32VW55x_RELEASE_V1.0.2/MSDK/wpa_supplicant/src/crypto\crypto_internal.c **** void crypto_hash_update(struct crypto_hash *ctx, const u8 *data, size_t len)
 144:C:/Users/stapi/OneDrive/Desktop/GD32VW553/V1_MQTT_OK/GD32VW55X_Wifi_BLE_SDK/GD32VW55x_RELEASE_V1.0.2/MSDK/wpa_supplicant/src/crypto\crypto_internal.c **** {
 291              		.loc 1 144 1
 292              		.cfi_startproc
 293              	.LVL39:
 145:C:/Users/stapi/OneDrive/Desktop/GD32VW553/V1_MQTT_OK/GD32VW55X_Wifi_BLE_SDK/GD32VW55x_RELEASE_V1.0.2/MSDK/wpa_supplicant/src/crypto\crypto_internal.c **** 	if (ctx == NULL)
 294              		.loc 1 145 2
 295              		.loc 1 145 5 is_stmt 0
 296 0000 1DCD     		beq	a0,zero,.L35
 144:C:/Users/stapi/OneDrive/Desktop/GD32VW553/V1_MQTT_OK/GD32VW55X_Wifi_BLE_SDK/GD32VW55x_RELEASE_V1.0.2/MSDK/wpa_supplicant/src/crypto\crypto_internal.c **** 	if (ctx == NULL)
 297              		.loc 1 144 1
 298 0002 17030000 		call	t0,__riscv_save_0
 298      E7020300 
 299              		.cfi_offset 1, -4
 300              		.cfi_def_cfa_offset 16
 146:C:/Users/stapi/OneDrive/Desktop/GD32VW553/V1_MQTT_OK/GD32VW55X_Wifi_BLE_SDK/GD32VW55x_RELEASE_V1.0.2/MSDK/wpa_supplicant/src/crypto\crypto_internal.c **** 		return;
 147:C:/Users/stapi/OneDrive/Desktop/GD32VW553/V1_MQTT_OK/GD32VW55X_Wifi_BLE_SDK/GD32VW55x_RELEASE_V1.0.2/MSDK/wpa_supplicant/src/crypto\crypto_internal.c **** 
 148:C:/Users/stapi/OneDrive/Desktop/GD32VW553/V1_MQTT_OK/GD32VW55X_Wifi_BLE_SDK/GD32VW55x_RELEASE_V1.0.2/MSDK/wpa_supplicant/src/crypto\crypto_internal.c **** 	switch (ctx->alg) {
 301              		.loc 1 148 2 is_stmt 1
 302              		.loc 1 148 13 is_stmt 0
 303 000a 1C41     		lw	a5,0(a0)
 304              		.loc 1 148 2
 305 000c 0947     		li	a4,2
 306 000e 6385E700 		beq	a5,a4,.L25
 307 0012 6369F700 		bgtu	a5,a4,.L26
 308 0016 91EF     		bne	a5,zero,.L27
 309              	.L25:
 149:C:/Users/stapi/OneDrive/Desktop/GD32VW553/V1_MQTT_OK/GD32VW55X_Wifi_BLE_SDK/GD32VW55x_RELEASE_V1.0.2/MSDK/wpa_supplicant/src/crypto\crypto_internal.c **** 	case CRYPTO_HASH_ALG_MD5:
 150:C:/Users/stapi/OneDrive/Desktop/GD32VW553/V1_MQTT_OK/GD32VW55X_Wifi_BLE_SDK/GD32VW55x_RELEASE_V1.0.2/MSDK/wpa_supplicant/src/crypto\crypto_internal.c **** 	case CRYPTO_HASH_ALG_HMAC_MD5:
 151:C:/Users/stapi/OneDrive/Desktop/GD32VW553/V1_MQTT_OK/GD32VW55X_Wifi_BLE_SDK/GD32VW55x_RELEASE_V1.0.2/MSDK/wpa_supplicant/src/crypto\crypto_internal.c **** 		MD5Update(&ctx->u.md5, data, len);
 310              		.loc 1 151 3 is_stmt 1
 311 0018 1105     		addi	a0,a0,4
 312              	.LVL40:
 313 001a 97000000 		call	MD5Update
 313      E7800000 
 314              	.LVL41:
 152:C:/Users/stapi/OneDrive/Desktop/GD32VW553/V1_MQTT_OK/GD32VW55X_Wifi_BLE_SDK/GD32VW55x_RELEASE_V1.0.2/MSDK/wpa_supplicant/src/crypto\crypto_internal.c **** 		break;
 315              		.loc 1 152 3
 316 0022 21A0     		j	.L23
 317              	.LVL42:
 318              	.L26:
 148:C:/Users/stapi/OneDrive/Desktop/GD32VW553/V1_MQTT_OK/GD32VW55X_Wifi_BLE_SDK/GD32VW55x_RELEASE_V1.0.2/MSDK/wpa_supplicant/src/crypto\crypto_internal.c **** 	case CRYPTO_HASH_ALG_MD5:
 319              		.loc 1 148 2 is_stmt 0
 320 0024 0D47     		li	a4,3
 321 0026 6386E700 		beq	a5,a4,.L27
 322              	.LVL43:
 323              	.L23:
 153:C:/Users/stapi/OneDrive/Desktop/GD32VW553/V1_MQTT_OK/GD32VW55X_Wifi_BLE_SDK/GD32VW55x_RELEASE_V1.0.2/MSDK/wpa_supplicant/src/crypto\crypto_internal.c **** 	case CRYPTO_HASH_ALG_SHA1:
 154:C:/Users/stapi/OneDrive/Desktop/GD32VW553/V1_MQTT_OK/GD32VW55X_Wifi_BLE_SDK/GD32VW55x_RELEASE_V1.0.2/MSDK/wpa_supplicant/src/crypto\crypto_internal.c **** 	case CRYPTO_HASH_ALG_HMAC_SHA1:
 155:C:/Users/stapi/OneDrive/Desktop/GD32VW553/V1_MQTT_OK/GD32VW55X_Wifi_BLE_SDK/GD32VW55x_RELEASE_V1.0.2/MSDK/wpa_supplicant/src/crypto\crypto_internal.c **** 		SHA1Update(&ctx->u.sha1, data, len);
 156:C:/Users/stapi/OneDrive/Desktop/GD32VW553/V1_MQTT_OK/GD32VW55X_Wifi_BLE_SDK/GD32VW55x_RELEASE_V1.0.2/MSDK/wpa_supplicant/src/crypto\crypto_internal.c **** 		break;
 157:C:/Users/stapi/OneDrive/Desktop/GD32VW553/V1_MQTT_OK/GD32VW55X_Wifi_BLE_SDK/GD32VW55x_RELEASE_V1.0.2/MSDK/wpa_supplicant/src/crypto\crypto_internal.c **** #ifdef CONFIG_SHA256
 158:C:/Users/stapi/OneDrive/Desktop/GD32VW553/V1_MQTT_OK/GD32VW55X_Wifi_BLE_SDK/GD32VW55x_RELEASE_V1.0.2/MSDK/wpa_supplicant/src/crypto\crypto_internal.c **** 	case CRYPTO_HASH_ALG_SHA256:
 159:C:/Users/stapi/OneDrive/Desktop/GD32VW553/V1_MQTT_OK/GD32VW55X_Wifi_BLE_SDK/GD32VW55x_RELEASE_V1.0.2/MSDK/wpa_supplicant/src/crypto\crypto_internal.c **** 	case CRYPTO_HASH_ALG_HMAC_SHA256:
 160:C:/Users/stapi/OneDrive/Desktop/GD32VW553/V1_MQTT_OK/GD32VW55X_Wifi_BLE_SDK/GD32VW55x_RELEASE_V1.0.2/MSDK/wpa_supplicant/src/crypto\crypto_internal.c **** 		sha256_process(&ctx->u.sha256, data, len);
 161:C:/Users/stapi/OneDrive/Desktop/GD32VW553/V1_MQTT_OK/GD32VW55X_Wifi_BLE_SDK/GD32VW55x_RELEASE_V1.0.2/MSDK/wpa_supplicant/src/crypto\crypto_internal.c **** 		break;
 162:C:/Users/stapi/OneDrive/Desktop/GD32VW553/V1_MQTT_OK/GD32VW55X_Wifi_BLE_SDK/GD32VW55x_RELEASE_V1.0.2/MSDK/wpa_supplicant/src/crypto\crypto_internal.c **** #endif /* CONFIG_SHA256 */
 163:C:/Users/stapi/OneDrive/Desktop/GD32VW553/V1_MQTT_OK/GD32VW55X_Wifi_BLE_SDK/GD32VW55x_RELEASE_V1.0.2/MSDK/wpa_supplicant/src/crypto\crypto_internal.c **** #ifdef CONFIG_INTERNAL_SHA384
 164:C:/Users/stapi/OneDrive/Desktop/GD32VW553/V1_MQTT_OK/GD32VW55X_Wifi_BLE_SDK/GD32VW55x_RELEASE_V1.0.2/MSDK/wpa_supplicant/src/crypto\crypto_internal.c **** 	case CRYPTO_HASH_ALG_SHA384:
 165:C:/Users/stapi/OneDrive/Desktop/GD32VW553/V1_MQTT_OK/GD32VW55X_Wifi_BLE_SDK/GD32VW55x_RELEASE_V1.0.2/MSDK/wpa_supplicant/src/crypto\crypto_internal.c **** 		sha384_process(&ctx->u.sha384, data, len);
 166:C:/Users/stapi/OneDrive/Desktop/GD32VW553/V1_MQTT_OK/GD32VW55X_Wifi_BLE_SDK/GD32VW55x_RELEASE_V1.0.2/MSDK/wpa_supplicant/src/crypto\crypto_internal.c **** 		break;
 167:C:/Users/stapi/OneDrive/Desktop/GD32VW553/V1_MQTT_OK/GD32VW55X_Wifi_BLE_SDK/GD32VW55x_RELEASE_V1.0.2/MSDK/wpa_supplicant/src/crypto\crypto_internal.c **** #endif /* CONFIG_INTERNAL_SHA384 */
 168:C:/Users/stapi/OneDrive/Desktop/GD32VW553/V1_MQTT_OK/GD32VW55X_Wifi_BLE_SDK/GD32VW55x_RELEASE_V1.0.2/MSDK/wpa_supplicant/src/crypto\crypto_internal.c **** #ifdef CONFIG_INTERNAL_SHA512
 169:C:/Users/stapi/OneDrive/Desktop/GD32VW553/V1_MQTT_OK/GD32VW55X_Wifi_BLE_SDK/GD32VW55x_RELEASE_V1.0.2/MSDK/wpa_supplicant/src/crypto\crypto_internal.c **** 	case CRYPTO_HASH_ALG_SHA512:
 170:C:/Users/stapi/OneDrive/Desktop/GD32VW553/V1_MQTT_OK/GD32VW55X_Wifi_BLE_SDK/GD32VW55x_RELEASE_V1.0.2/MSDK/wpa_supplicant/src/crypto\crypto_internal.c **** 		sha512_process(&ctx->u.sha512, data, len);
 171:C:/Users/stapi/OneDrive/Desktop/GD32VW553/V1_MQTT_OK/GD32VW55X_Wifi_BLE_SDK/GD32VW55x_RELEASE_V1.0.2/MSDK/wpa_supplicant/src/crypto\crypto_internal.c **** 		break;
 172:C:/Users/stapi/OneDrive/Desktop/GD32VW553/V1_MQTT_OK/GD32VW55X_Wifi_BLE_SDK/GD32VW55x_RELEASE_V1.0.2/MSDK/wpa_supplicant/src/crypto\crypto_internal.c **** #endif /* CONFIG_INTERNAL_SHA512 */
 173:C:/Users/stapi/OneDrive/Desktop/GD32VW553/V1_MQTT_OK/GD32VW55X_Wifi_BLE_SDK/GD32VW55x_RELEASE_V1.0.2/MSDK/wpa_supplicant/src/crypto\crypto_internal.c **** 	default:
 174:C:/Users/stapi/OneDrive/Desktop/GD32VW553/V1_MQTT_OK/GD32VW55X_Wifi_BLE_SDK/GD32VW55x_RELEASE_V1.0.2/MSDK/wpa_supplicant/src/crypto\crypto_internal.c **** 		break;
 175:C:/Users/stapi/OneDrive/Desktop/GD32VW553/V1_MQTT_OK/GD32VW55X_Wifi_BLE_SDK/GD32VW55x_RELEASE_V1.0.2/MSDK/wpa_supplicant/src/crypto\crypto_internal.c **** 	}
 176:C:/Users/stapi/OneDrive/Desktop/GD32VW553/V1_MQTT_OK/GD32VW55X_Wifi_BLE_SDK/GD32VW55x_RELEASE_V1.0.2/MSDK/wpa_supplicant/src/crypto\crypto_internal.c **** }
 324              		.loc 1 176 1
 325 002a 17030000 		tail	__riscv_restore_0
 325      67000300 
 326              		.cfi_remember_state
 327              		.cfi_restore 1
 328              		.cfi_def_cfa_offset 0
 329              	.LVL44:
 330              	.L27:
 331              		.cfi_restore_state
 155:C:/Users/stapi/OneDrive/Desktop/GD32VW553/V1_MQTT_OK/GD32VW55X_Wifi_BLE_SDK/GD32VW55x_RELEASE_V1.0.2/MSDK/wpa_supplicant/src/crypto\crypto_internal.c **** 		break;
 332              		.loc 1 155 3 is_stmt 1
 333 0032 1105     		addi	a0,a0,4
 334              	.LVL45:
 335 0034 97000000 		call	SHA1Update
 335      E7800000 
 336              	.LVL46:
 156:C:/Users/stapi/OneDrive/Desktop/GD32VW553/V1_MQTT_OK/GD32VW55X_Wifi_BLE_SDK/GD32VW55x_RELEASE_V1.0.2/MSDK/wpa_supplicant/src/crypto\crypto_internal.c **** #ifdef CONFIG_SHA256
 337              		.loc 1 156 3
 338 003c FDB7     		j	.L23
 339              	.LVL47:
 340              	.L35:
 341              		.cfi_def_cfa_offset 0
 342              		.cfi_restore 1
 343 003e 8280     		ret
 344              		.cfi_endproc
 345              	.LFE72:
 347              		.section	.text.crypto_hash_finish,"ax",@progbits
 348              		.align	1
 349              		.globl	crypto_hash_finish
 351              	crypto_hash_finish:
 352              	.LFB73:
 177:C:/Users/stapi/OneDrive/Desktop/GD32VW553/V1_MQTT_OK/GD32VW55X_Wifi_BLE_SDK/GD32VW55x_RELEASE_V1.0.2/MSDK/wpa_supplicant/src/crypto\crypto_internal.c **** 
 178:C:/Users/stapi/OneDrive/Desktop/GD32VW553/V1_MQTT_OK/GD32VW55X_Wifi_BLE_SDK/GD32VW55x_RELEASE_V1.0.2/MSDK/wpa_supplicant/src/crypto\crypto_internal.c **** 
 179:C:/Users/stapi/OneDrive/Desktop/GD32VW553/V1_MQTT_OK/GD32VW55X_Wifi_BLE_SDK/GD32VW55x_RELEASE_V1.0.2/MSDK/wpa_supplicant/src/crypto\crypto_internal.c **** int crypto_hash_finish(struct crypto_hash *ctx, u8 *mac, size_t *len)
 180:C:/Users/stapi/OneDrive/Desktop/GD32VW553/V1_MQTT_OK/GD32VW55X_Wifi_BLE_SDK/GD32VW55x_RELEASE_V1.0.2/MSDK/wpa_supplicant/src/crypto\crypto_internal.c **** {
 353              		.loc 1 180 1
 354              		.cfi_startproc
 355              	.LVL48:
 181:C:/Users/stapi/OneDrive/Desktop/GD32VW553/V1_MQTT_OK/GD32VW55X_Wifi_BLE_SDK/GD32VW55x_RELEASE_V1.0.2/MSDK/wpa_supplicant/src/crypto\crypto_internal.c **** 	u8 k_pad[64];
 356              		.loc 1 181 2
 182:C:/Users/stapi/OneDrive/Desktop/GD32VW553/V1_MQTT_OK/GD32VW55X_Wifi_BLE_SDK/GD32VW55x_RELEASE_V1.0.2/MSDK/wpa_supplicant/src/crypto\crypto_internal.c **** 	size_t i;
 357              		.loc 1 182 2
 183:C:/Users/stapi/OneDrive/Desktop/GD32VW553/V1_MQTT_OK/GD32VW55X_Wifi_BLE_SDK/GD32VW55x_RELEASE_V1.0.2/MSDK/wpa_supplicant/src/crypto\crypto_internal.c **** 
 184:C:/Users/stapi/OneDrive/Desktop/GD32VW553/V1_MQTT_OK/GD32VW55X_Wifi_BLE_SDK/GD32VW55x_RELEASE_V1.0.2/MSDK/wpa_supplicant/src/crypto\crypto_internal.c **** 	if (ctx == NULL)
 358              		.loc 1 184 2
 359              		.loc 1 184 5 is_stmt 0
 360 0000 630D0518 		beq	a0,zero,.L54
 180:C:/Users/stapi/OneDrive/Desktop/GD32VW553/V1_MQTT_OK/GD32VW55X_Wifi_BLE_SDK/GD32VW55x_RELEASE_V1.0.2/MSDK/wpa_supplicant/src/crypto\crypto_internal.c **** 	u8 k_pad[64];
 361              		.loc 1 180 1
 362 0004 17030000 		call	t0,__riscv_save_3
 362      E7020300 
 363              		.cfi_offset 18, -16
 364              		.cfi_offset 9, -12
 365              		.cfi_offset 8, -8
 366              		.cfi_offset 1, -4
 367              		.cfi_def_cfa_offset 16
 368 000c 3971     		addi	sp,sp,-64
 369              		.cfi_def_cfa_offset 80
 370 000e 2A84     		mv	s0,a0
 371 0010 AE84     		mv	s1,a1
 185:C:/Users/stapi/OneDrive/Desktop/GD32VW553/V1_MQTT_OK/GD32VW55X_Wifi_BLE_SDK/GD32VW55x_RELEASE_V1.0.2/MSDK/wpa_supplicant/src/crypto\crypto_internal.c **** 		return -2;
 186:C:/Users/stapi/OneDrive/Desktop/GD32VW553/V1_MQTT_OK/GD32VW55X_Wifi_BLE_SDK/GD32VW55x_RELEASE_V1.0.2/MSDK/wpa_supplicant/src/crypto\crypto_internal.c **** 
 187:C:/Users/stapi/OneDrive/Desktop/GD32VW553/V1_MQTT_OK/GD32VW55X_Wifi_BLE_SDK/GD32VW55x_RELEASE_V1.0.2/MSDK/wpa_supplicant/src/crypto\crypto_internal.c **** 	if (mac == NULL || len == NULL) {
 372              		.loc 1 187 2 is_stmt 1
 373              		.loc 1 187 5 is_stmt 0
 374 0012 91C1     		beq	a1,zero,.L40
 375              		.loc 1 187 18 discriminator 1
 376 0014 01EE     		bne	a2,zero,.L41
 377              	.LVL49:
 378              	.L40:
 188:C:/Users/stapi/OneDrive/Desktop/GD32VW553/V1_MQTT_OK/GD32VW55X_Wifi_BLE_SDK/GD32VW55x_RELEASE_V1.0.2/MSDK/wpa_supplicant/src/crypto\crypto_internal.c **** 		os_free(ctx);
 379              		.loc 1 188 3 is_stmt 1
 380 0016 2285     		mv	a0,s0
 381 0018 97000000 		call	os_free
 381      E7800000 
 382              	.LVL50:
 189:C:/Users/stapi/OneDrive/Desktop/GD32VW553/V1_MQTT_OK/GD32VW55X_Wifi_BLE_SDK/GD32VW55x_RELEASE_V1.0.2/MSDK/wpa_supplicant/src/crypto\crypto_internal.c **** 		return 0;
 383              		.loc 1 189 3
 384              		.loc 1 189 10 is_stmt 0
 385 0020 0145     		li	a0,0
 386              	.L38:
 190:C:/Users/stapi/OneDrive/Desktop/GD32VW553/V1_MQTT_OK/GD32VW55X_Wifi_BLE_SDK/GD32VW55x_RELEASE_V1.0.2/MSDK/wpa_supplicant/src/crypto\crypto_internal.c **** 	}
 191:C:/Users/stapi/OneDrive/Desktop/GD32VW553/V1_MQTT_OK/GD32VW55X_Wifi_BLE_SDK/GD32VW55x_RELEASE_V1.0.2/MSDK/wpa_supplicant/src/crypto\crypto_internal.c **** 
 192:C:/Users/stapi/OneDrive/Desktop/GD32VW553/V1_MQTT_OK/GD32VW55X_Wifi_BLE_SDK/GD32VW55x_RELEASE_V1.0.2/MSDK/wpa_supplicant/src/crypto\crypto_internal.c **** 	switch (ctx->alg) {
 193:C:/Users/stapi/OneDrive/Desktop/GD32VW553/V1_MQTT_OK/GD32VW55X_Wifi_BLE_SDK/GD32VW55x_RELEASE_V1.0.2/MSDK/wpa_supplicant/src/crypto\crypto_internal.c **** 	case CRYPTO_HASH_ALG_MD5:
 194:C:/Users/stapi/OneDrive/Desktop/GD32VW553/V1_MQTT_OK/GD32VW55X_Wifi_BLE_SDK/GD32VW55x_RELEASE_V1.0.2/MSDK/wpa_supplicant/src/crypto\crypto_internal.c **** 		if (*len < 16) {
 195:C:/Users/stapi/OneDrive/Desktop/GD32VW553/V1_MQTT_OK/GD32VW55X_Wifi_BLE_SDK/GD32VW55x_RELEASE_V1.0.2/MSDK/wpa_supplicant/src/crypto\crypto_internal.c **** 			*len = 16;
 196:C:/Users/stapi/OneDrive/Desktop/GD32VW553/V1_MQTT_OK/GD32VW55X_Wifi_BLE_SDK/GD32VW55x_RELEASE_V1.0.2/MSDK/wpa_supplicant/src/crypto\crypto_internal.c **** 			os_free(ctx);
 197:C:/Users/stapi/OneDrive/Desktop/GD32VW553/V1_MQTT_OK/GD32VW55X_Wifi_BLE_SDK/GD32VW55x_RELEASE_V1.0.2/MSDK/wpa_supplicant/src/crypto\crypto_internal.c **** 			return -1;
 198:C:/Users/stapi/OneDrive/Desktop/GD32VW553/V1_MQTT_OK/GD32VW55X_Wifi_BLE_SDK/GD32VW55x_RELEASE_V1.0.2/MSDK/wpa_supplicant/src/crypto\crypto_internal.c **** 		}
 199:C:/Users/stapi/OneDrive/Desktop/GD32VW553/V1_MQTT_OK/GD32VW55X_Wifi_BLE_SDK/GD32VW55x_RELEASE_V1.0.2/MSDK/wpa_supplicant/src/crypto\crypto_internal.c **** 		*len = 16;
 200:C:/Users/stapi/OneDrive/Desktop/GD32VW553/V1_MQTT_OK/GD32VW55X_Wifi_BLE_SDK/GD32VW55x_RELEASE_V1.0.2/MSDK/wpa_supplicant/src/crypto\crypto_internal.c **** 		MD5Final(mac, &ctx->u.md5);
 201:C:/Users/stapi/OneDrive/Desktop/GD32VW553/V1_MQTT_OK/GD32VW55X_Wifi_BLE_SDK/GD32VW55x_RELEASE_V1.0.2/MSDK/wpa_supplicant/src/crypto\crypto_internal.c **** 		break;
 202:C:/Users/stapi/OneDrive/Desktop/GD32VW553/V1_MQTT_OK/GD32VW55X_Wifi_BLE_SDK/GD32VW55x_RELEASE_V1.0.2/MSDK/wpa_supplicant/src/crypto\crypto_internal.c **** 	case CRYPTO_HASH_ALG_SHA1:
 203:C:/Users/stapi/OneDrive/Desktop/GD32VW553/V1_MQTT_OK/GD32VW55X_Wifi_BLE_SDK/GD32VW55x_RELEASE_V1.0.2/MSDK/wpa_supplicant/src/crypto\crypto_internal.c **** 		if (*len < 20) {
 204:C:/Users/stapi/OneDrive/Desktop/GD32VW553/V1_MQTT_OK/GD32VW55X_Wifi_BLE_SDK/GD32VW55x_RELEASE_V1.0.2/MSDK/wpa_supplicant/src/crypto\crypto_internal.c **** 			*len = 20;
 205:C:/Users/stapi/OneDrive/Desktop/GD32VW553/V1_MQTT_OK/GD32VW55X_Wifi_BLE_SDK/GD32VW55x_RELEASE_V1.0.2/MSDK/wpa_supplicant/src/crypto\crypto_internal.c **** 			os_free(ctx);
 206:C:/Users/stapi/OneDrive/Desktop/GD32VW553/V1_MQTT_OK/GD32VW55X_Wifi_BLE_SDK/GD32VW55x_RELEASE_V1.0.2/MSDK/wpa_supplicant/src/crypto\crypto_internal.c **** 			return -1;
 207:C:/Users/stapi/OneDrive/Desktop/GD32VW553/V1_MQTT_OK/GD32VW55X_Wifi_BLE_SDK/GD32VW55x_RELEASE_V1.0.2/MSDK/wpa_supplicant/src/crypto\crypto_internal.c **** 		}
 208:C:/Users/stapi/OneDrive/Desktop/GD32VW553/V1_MQTT_OK/GD32VW55X_Wifi_BLE_SDK/GD32VW55x_RELEASE_V1.0.2/MSDK/wpa_supplicant/src/crypto\crypto_internal.c **** 		*len = 20;
 209:C:/Users/stapi/OneDrive/Desktop/GD32VW553/V1_MQTT_OK/GD32VW55X_Wifi_BLE_SDK/GD32VW55x_RELEASE_V1.0.2/MSDK/wpa_supplicant/src/crypto\crypto_internal.c **** 		SHA1Final(mac, &ctx->u.sha1);
 210:C:/Users/stapi/OneDrive/Desktop/GD32VW553/V1_MQTT_OK/GD32VW55X_Wifi_BLE_SDK/GD32VW55x_RELEASE_V1.0.2/MSDK/wpa_supplicant/src/crypto\crypto_internal.c **** 		break;
 211:C:/Users/stapi/OneDrive/Desktop/GD32VW553/V1_MQTT_OK/GD32VW55X_Wifi_BLE_SDK/GD32VW55x_RELEASE_V1.0.2/MSDK/wpa_supplicant/src/crypto\crypto_internal.c **** #ifdef CONFIG_SHA256
 212:C:/Users/stapi/OneDrive/Desktop/GD32VW553/V1_MQTT_OK/GD32VW55X_Wifi_BLE_SDK/GD32VW55x_RELEASE_V1.0.2/MSDK/wpa_supplicant/src/crypto\crypto_internal.c **** 	case CRYPTO_HASH_ALG_SHA256:
 213:C:/Users/stapi/OneDrive/Desktop/GD32VW553/V1_MQTT_OK/GD32VW55X_Wifi_BLE_SDK/GD32VW55x_RELEASE_V1.0.2/MSDK/wpa_supplicant/src/crypto\crypto_internal.c **** 		if (*len < 32) {
 214:C:/Users/stapi/OneDrive/Desktop/GD32VW553/V1_MQTT_OK/GD32VW55X_Wifi_BLE_SDK/GD32VW55x_RELEASE_V1.0.2/MSDK/wpa_supplicant/src/crypto\crypto_internal.c **** 			*len = 32;
 215:C:/Users/stapi/OneDrive/Desktop/GD32VW553/V1_MQTT_OK/GD32VW55X_Wifi_BLE_SDK/GD32VW55x_RELEASE_V1.0.2/MSDK/wpa_supplicant/src/crypto\crypto_internal.c **** 			os_free(ctx);
 216:C:/Users/stapi/OneDrive/Desktop/GD32VW553/V1_MQTT_OK/GD32VW55X_Wifi_BLE_SDK/GD32VW55x_RELEASE_V1.0.2/MSDK/wpa_supplicant/src/crypto\crypto_internal.c **** 			return -1;
 217:C:/Users/stapi/OneDrive/Desktop/GD32VW553/V1_MQTT_OK/GD32VW55X_Wifi_BLE_SDK/GD32VW55x_RELEASE_V1.0.2/MSDK/wpa_supplicant/src/crypto\crypto_internal.c **** 		}
 218:C:/Users/stapi/OneDrive/Desktop/GD32VW553/V1_MQTT_OK/GD32VW55X_Wifi_BLE_SDK/GD32VW55x_RELEASE_V1.0.2/MSDK/wpa_supplicant/src/crypto\crypto_internal.c **** 		*len = 32;
 219:C:/Users/stapi/OneDrive/Desktop/GD32VW553/V1_MQTT_OK/GD32VW55X_Wifi_BLE_SDK/GD32VW55x_RELEASE_V1.0.2/MSDK/wpa_supplicant/src/crypto\crypto_internal.c **** 		sha256_done(&ctx->u.sha256, mac);
 220:C:/Users/stapi/OneDrive/Desktop/GD32VW553/V1_MQTT_OK/GD32VW55X_Wifi_BLE_SDK/GD32VW55x_RELEASE_V1.0.2/MSDK/wpa_supplicant/src/crypto\crypto_internal.c **** 		break;
 221:C:/Users/stapi/OneDrive/Desktop/GD32VW553/V1_MQTT_OK/GD32VW55X_Wifi_BLE_SDK/GD32VW55x_RELEASE_V1.0.2/MSDK/wpa_supplicant/src/crypto\crypto_internal.c **** #endif /* CONFIG_SHA256 */
 222:C:/Users/stapi/OneDrive/Desktop/GD32VW553/V1_MQTT_OK/GD32VW55X_Wifi_BLE_SDK/GD32VW55x_RELEASE_V1.0.2/MSDK/wpa_supplicant/src/crypto\crypto_internal.c **** #ifdef CONFIG_INTERNAL_SHA384
 223:C:/Users/stapi/OneDrive/Desktop/GD32VW553/V1_MQTT_OK/GD32VW55X_Wifi_BLE_SDK/GD32VW55x_RELEASE_V1.0.2/MSDK/wpa_supplicant/src/crypto\crypto_internal.c **** 	case CRYPTO_HASH_ALG_SHA384:
 224:C:/Users/stapi/OneDrive/Desktop/GD32VW553/V1_MQTT_OK/GD32VW55X_Wifi_BLE_SDK/GD32VW55x_RELEASE_V1.0.2/MSDK/wpa_supplicant/src/crypto\crypto_internal.c **** 		if (*len < 48) {
 225:C:/Users/stapi/OneDrive/Desktop/GD32VW553/V1_MQTT_OK/GD32VW55X_Wifi_BLE_SDK/GD32VW55x_RELEASE_V1.0.2/MSDK/wpa_supplicant/src/crypto\crypto_internal.c **** 			*len = 48;
 226:C:/Users/stapi/OneDrive/Desktop/GD32VW553/V1_MQTT_OK/GD32VW55X_Wifi_BLE_SDK/GD32VW55x_RELEASE_V1.0.2/MSDK/wpa_supplicant/src/crypto\crypto_internal.c **** 			os_free(ctx);
 227:C:/Users/stapi/OneDrive/Desktop/GD32VW553/V1_MQTT_OK/GD32VW55X_Wifi_BLE_SDK/GD32VW55x_RELEASE_V1.0.2/MSDK/wpa_supplicant/src/crypto\crypto_internal.c **** 			return -1;
 228:C:/Users/stapi/OneDrive/Desktop/GD32VW553/V1_MQTT_OK/GD32VW55X_Wifi_BLE_SDK/GD32VW55x_RELEASE_V1.0.2/MSDK/wpa_supplicant/src/crypto\crypto_internal.c **** 		}
 229:C:/Users/stapi/OneDrive/Desktop/GD32VW553/V1_MQTT_OK/GD32VW55X_Wifi_BLE_SDK/GD32VW55x_RELEASE_V1.0.2/MSDK/wpa_supplicant/src/crypto\crypto_internal.c **** 		*len = 48;
 230:C:/Users/stapi/OneDrive/Desktop/GD32VW553/V1_MQTT_OK/GD32VW55X_Wifi_BLE_SDK/GD32VW55x_RELEASE_V1.0.2/MSDK/wpa_supplicant/src/crypto\crypto_internal.c **** 		sha384_done(&ctx->u.sha384, mac);
 231:C:/Users/stapi/OneDrive/Desktop/GD32VW553/V1_MQTT_OK/GD32VW55X_Wifi_BLE_SDK/GD32VW55x_RELEASE_V1.0.2/MSDK/wpa_supplicant/src/crypto\crypto_internal.c **** 		break;
 232:C:/Users/stapi/OneDrive/Desktop/GD32VW553/V1_MQTT_OK/GD32VW55X_Wifi_BLE_SDK/GD32VW55x_RELEASE_V1.0.2/MSDK/wpa_supplicant/src/crypto\crypto_internal.c **** #endif /* CONFIG_INTERNAL_SHA384 */
 233:C:/Users/stapi/OneDrive/Desktop/GD32VW553/V1_MQTT_OK/GD32VW55X_Wifi_BLE_SDK/GD32VW55x_RELEASE_V1.0.2/MSDK/wpa_supplicant/src/crypto\crypto_internal.c **** #ifdef CONFIG_INTERNAL_SHA512
 234:C:/Users/stapi/OneDrive/Desktop/GD32VW553/V1_MQTT_OK/GD32VW55X_Wifi_BLE_SDK/GD32VW55x_RELEASE_V1.0.2/MSDK/wpa_supplicant/src/crypto\crypto_internal.c **** 	case CRYPTO_HASH_ALG_SHA512:
 235:C:/Users/stapi/OneDrive/Desktop/GD32VW553/V1_MQTT_OK/GD32VW55X_Wifi_BLE_SDK/GD32VW55x_RELEASE_V1.0.2/MSDK/wpa_supplicant/src/crypto\crypto_internal.c **** 		if (*len < 64) {
 236:C:/Users/stapi/OneDrive/Desktop/GD32VW553/V1_MQTT_OK/GD32VW55X_Wifi_BLE_SDK/GD32VW55x_RELEASE_V1.0.2/MSDK/wpa_supplicant/src/crypto\crypto_internal.c **** 			*len = 64;
 237:C:/Users/stapi/OneDrive/Desktop/GD32VW553/V1_MQTT_OK/GD32VW55X_Wifi_BLE_SDK/GD32VW55x_RELEASE_V1.0.2/MSDK/wpa_supplicant/src/crypto\crypto_internal.c **** 			os_free(ctx);
 238:C:/Users/stapi/OneDrive/Desktop/GD32VW553/V1_MQTT_OK/GD32VW55X_Wifi_BLE_SDK/GD32VW55x_RELEASE_V1.0.2/MSDK/wpa_supplicant/src/crypto\crypto_internal.c **** 			return -1;
 239:C:/Users/stapi/OneDrive/Desktop/GD32VW553/V1_MQTT_OK/GD32VW55X_Wifi_BLE_SDK/GD32VW55x_RELEASE_V1.0.2/MSDK/wpa_supplicant/src/crypto\crypto_internal.c **** 		}
 240:C:/Users/stapi/OneDrive/Desktop/GD32VW553/V1_MQTT_OK/GD32VW55X_Wifi_BLE_SDK/GD32VW55x_RELEASE_V1.0.2/MSDK/wpa_supplicant/src/crypto\crypto_internal.c **** 		*len = 64;
 241:C:/Users/stapi/OneDrive/Desktop/GD32VW553/V1_MQTT_OK/GD32VW55X_Wifi_BLE_SDK/GD32VW55x_RELEASE_V1.0.2/MSDK/wpa_supplicant/src/crypto\crypto_internal.c **** 		sha512_done(&ctx->u.sha512, mac);
 242:C:/Users/stapi/OneDrive/Desktop/GD32VW553/V1_MQTT_OK/GD32VW55X_Wifi_BLE_SDK/GD32VW55x_RELEASE_V1.0.2/MSDK/wpa_supplicant/src/crypto\crypto_internal.c **** 		break;
 243:C:/Users/stapi/OneDrive/Desktop/GD32VW553/V1_MQTT_OK/GD32VW55X_Wifi_BLE_SDK/GD32VW55x_RELEASE_V1.0.2/MSDK/wpa_supplicant/src/crypto\crypto_internal.c **** #endif /* CONFIG_INTERNAL_SHA512 */
 244:C:/Users/stapi/OneDrive/Desktop/GD32VW553/V1_MQTT_OK/GD32VW55X_Wifi_BLE_SDK/GD32VW55x_RELEASE_V1.0.2/MSDK/wpa_supplicant/src/crypto\crypto_internal.c **** 	case CRYPTO_HASH_ALG_HMAC_MD5:
 245:C:/Users/stapi/OneDrive/Desktop/GD32VW553/V1_MQTT_OK/GD32VW55X_Wifi_BLE_SDK/GD32VW55x_RELEASE_V1.0.2/MSDK/wpa_supplicant/src/crypto\crypto_internal.c **** 		if (*len < 16) {
 246:C:/Users/stapi/OneDrive/Desktop/GD32VW553/V1_MQTT_OK/GD32VW55X_Wifi_BLE_SDK/GD32VW55x_RELEASE_V1.0.2/MSDK/wpa_supplicant/src/crypto\crypto_internal.c **** 			*len = 16;
 247:C:/Users/stapi/OneDrive/Desktop/GD32VW553/V1_MQTT_OK/GD32VW55X_Wifi_BLE_SDK/GD32VW55x_RELEASE_V1.0.2/MSDK/wpa_supplicant/src/crypto\crypto_internal.c **** 			os_free(ctx);
 248:C:/Users/stapi/OneDrive/Desktop/GD32VW553/V1_MQTT_OK/GD32VW55X_Wifi_BLE_SDK/GD32VW55x_RELEASE_V1.0.2/MSDK/wpa_supplicant/src/crypto\crypto_internal.c **** 			return -1;
 249:C:/Users/stapi/OneDrive/Desktop/GD32VW553/V1_MQTT_OK/GD32VW55X_Wifi_BLE_SDK/GD32VW55x_RELEASE_V1.0.2/MSDK/wpa_supplicant/src/crypto\crypto_internal.c **** 		}
 250:C:/Users/stapi/OneDrive/Desktop/GD32VW553/V1_MQTT_OK/GD32VW55X_Wifi_BLE_SDK/GD32VW55x_RELEASE_V1.0.2/MSDK/wpa_supplicant/src/crypto\crypto_internal.c **** 		*len = 16;
 251:C:/Users/stapi/OneDrive/Desktop/GD32VW553/V1_MQTT_OK/GD32VW55X_Wifi_BLE_SDK/GD32VW55x_RELEASE_V1.0.2/MSDK/wpa_supplicant/src/crypto\crypto_internal.c **** 
 252:C:/Users/stapi/OneDrive/Desktop/GD32VW553/V1_MQTT_OK/GD32VW55X_Wifi_BLE_SDK/GD32VW55x_RELEASE_V1.0.2/MSDK/wpa_supplicant/src/crypto\crypto_internal.c **** 		MD5Final(mac, &ctx->u.md5);
 253:C:/Users/stapi/OneDrive/Desktop/GD32VW553/V1_MQTT_OK/GD32VW55X_Wifi_BLE_SDK/GD32VW55x_RELEASE_V1.0.2/MSDK/wpa_supplicant/src/crypto\crypto_internal.c **** 
 254:C:/Users/stapi/OneDrive/Desktop/GD32VW553/V1_MQTT_OK/GD32VW55X_Wifi_BLE_SDK/GD32VW55x_RELEASE_V1.0.2/MSDK/wpa_supplicant/src/crypto\crypto_internal.c **** 		os_memcpy(k_pad, ctx->key, ctx->key_len);
 255:C:/Users/stapi/OneDrive/Desktop/GD32VW553/V1_MQTT_OK/GD32VW55X_Wifi_BLE_SDK/GD32VW55x_RELEASE_V1.0.2/MSDK/wpa_supplicant/src/crypto\crypto_internal.c **** 		os_memset(k_pad + ctx->key_len, 0,
 256:C:/Users/stapi/OneDrive/Desktop/GD32VW553/V1_MQTT_OK/GD32VW55X_Wifi_BLE_SDK/GD32VW55x_RELEASE_V1.0.2/MSDK/wpa_supplicant/src/crypto\crypto_internal.c **** 			  sizeof(k_pad) - ctx->key_len);
 257:C:/Users/stapi/OneDrive/Desktop/GD32VW553/V1_MQTT_OK/GD32VW55X_Wifi_BLE_SDK/GD32VW55x_RELEASE_V1.0.2/MSDK/wpa_supplicant/src/crypto\crypto_internal.c **** 		for (i = 0; i < sizeof(k_pad); i++)
 258:C:/Users/stapi/OneDrive/Desktop/GD32VW553/V1_MQTT_OK/GD32VW55X_Wifi_BLE_SDK/GD32VW55x_RELEASE_V1.0.2/MSDK/wpa_supplicant/src/crypto\crypto_internal.c **** 			k_pad[i] ^= 0x5c;
 259:C:/Users/stapi/OneDrive/Desktop/GD32VW553/V1_MQTT_OK/GD32VW55X_Wifi_BLE_SDK/GD32VW55x_RELEASE_V1.0.2/MSDK/wpa_supplicant/src/crypto\crypto_internal.c **** 		MD5Init(&ctx->u.md5);
 260:C:/Users/stapi/OneDrive/Desktop/GD32VW553/V1_MQTT_OK/GD32VW55X_Wifi_BLE_SDK/GD32VW55x_RELEASE_V1.0.2/MSDK/wpa_supplicant/src/crypto\crypto_internal.c **** 		MD5Update(&ctx->u.md5, k_pad, sizeof(k_pad));
 261:C:/Users/stapi/OneDrive/Desktop/GD32VW553/V1_MQTT_OK/GD32VW55X_Wifi_BLE_SDK/GD32VW55x_RELEASE_V1.0.2/MSDK/wpa_supplicant/src/crypto\crypto_internal.c **** 		MD5Update(&ctx->u.md5, mac, 16);
 262:C:/Users/stapi/OneDrive/Desktop/GD32VW553/V1_MQTT_OK/GD32VW55X_Wifi_BLE_SDK/GD32VW55x_RELEASE_V1.0.2/MSDK/wpa_supplicant/src/crypto\crypto_internal.c **** 		MD5Final(mac, &ctx->u.md5);
 263:C:/Users/stapi/OneDrive/Desktop/GD32VW553/V1_MQTT_OK/GD32VW55X_Wifi_BLE_SDK/GD32VW55x_RELEASE_V1.0.2/MSDK/wpa_supplicant/src/crypto\crypto_internal.c **** 		break;
 264:C:/Users/stapi/OneDrive/Desktop/GD32VW553/V1_MQTT_OK/GD32VW55X_Wifi_BLE_SDK/GD32VW55x_RELEASE_V1.0.2/MSDK/wpa_supplicant/src/crypto\crypto_internal.c **** 	case CRYPTO_HASH_ALG_HMAC_SHA1:
 265:C:/Users/stapi/OneDrive/Desktop/GD32VW553/V1_MQTT_OK/GD32VW55X_Wifi_BLE_SDK/GD32VW55x_RELEASE_V1.0.2/MSDK/wpa_supplicant/src/crypto\crypto_internal.c **** 		if (*len < 20) {
 266:C:/Users/stapi/OneDrive/Desktop/GD32VW553/V1_MQTT_OK/GD32VW55X_Wifi_BLE_SDK/GD32VW55x_RELEASE_V1.0.2/MSDK/wpa_supplicant/src/crypto\crypto_internal.c **** 			*len = 20;
 267:C:/Users/stapi/OneDrive/Desktop/GD32VW553/V1_MQTT_OK/GD32VW55X_Wifi_BLE_SDK/GD32VW55x_RELEASE_V1.0.2/MSDK/wpa_supplicant/src/crypto\crypto_internal.c **** 			os_free(ctx);
 268:C:/Users/stapi/OneDrive/Desktop/GD32VW553/V1_MQTT_OK/GD32VW55X_Wifi_BLE_SDK/GD32VW55x_RELEASE_V1.0.2/MSDK/wpa_supplicant/src/crypto\crypto_internal.c **** 			return -1;
 269:C:/Users/stapi/OneDrive/Desktop/GD32VW553/V1_MQTT_OK/GD32VW55X_Wifi_BLE_SDK/GD32VW55x_RELEASE_V1.0.2/MSDK/wpa_supplicant/src/crypto\crypto_internal.c **** 		}
 270:C:/Users/stapi/OneDrive/Desktop/GD32VW553/V1_MQTT_OK/GD32VW55X_Wifi_BLE_SDK/GD32VW55x_RELEASE_V1.0.2/MSDK/wpa_supplicant/src/crypto\crypto_internal.c **** 		*len = 20;
 271:C:/Users/stapi/OneDrive/Desktop/GD32VW553/V1_MQTT_OK/GD32VW55X_Wifi_BLE_SDK/GD32VW55x_RELEASE_V1.0.2/MSDK/wpa_supplicant/src/crypto\crypto_internal.c **** 
 272:C:/Users/stapi/OneDrive/Desktop/GD32VW553/V1_MQTT_OK/GD32VW55X_Wifi_BLE_SDK/GD32VW55x_RELEASE_V1.0.2/MSDK/wpa_supplicant/src/crypto\crypto_internal.c **** 		SHA1Final(mac, &ctx->u.sha1);
 273:C:/Users/stapi/OneDrive/Desktop/GD32VW553/V1_MQTT_OK/GD32VW55X_Wifi_BLE_SDK/GD32VW55x_RELEASE_V1.0.2/MSDK/wpa_supplicant/src/crypto\crypto_internal.c **** 
 274:C:/Users/stapi/OneDrive/Desktop/GD32VW553/V1_MQTT_OK/GD32VW55X_Wifi_BLE_SDK/GD32VW55x_RELEASE_V1.0.2/MSDK/wpa_supplicant/src/crypto\crypto_internal.c **** 		os_memcpy(k_pad, ctx->key, ctx->key_len);
 275:C:/Users/stapi/OneDrive/Desktop/GD32VW553/V1_MQTT_OK/GD32VW55X_Wifi_BLE_SDK/GD32VW55x_RELEASE_V1.0.2/MSDK/wpa_supplicant/src/crypto\crypto_internal.c **** 		os_memset(k_pad + ctx->key_len, 0,
 276:C:/Users/stapi/OneDrive/Desktop/GD32VW553/V1_MQTT_OK/GD32VW55X_Wifi_BLE_SDK/GD32VW55x_RELEASE_V1.0.2/MSDK/wpa_supplicant/src/crypto\crypto_internal.c **** 			  sizeof(k_pad) - ctx->key_len);
 277:C:/Users/stapi/OneDrive/Desktop/GD32VW553/V1_MQTT_OK/GD32VW55X_Wifi_BLE_SDK/GD32VW55x_RELEASE_V1.0.2/MSDK/wpa_supplicant/src/crypto\crypto_internal.c **** 		for (i = 0; i < sizeof(k_pad); i++)
 278:C:/Users/stapi/OneDrive/Desktop/GD32VW553/V1_MQTT_OK/GD32VW55X_Wifi_BLE_SDK/GD32VW55x_RELEASE_V1.0.2/MSDK/wpa_supplicant/src/crypto\crypto_internal.c **** 			k_pad[i] ^= 0x5c;
 279:C:/Users/stapi/OneDrive/Desktop/GD32VW553/V1_MQTT_OK/GD32VW55X_Wifi_BLE_SDK/GD32VW55x_RELEASE_V1.0.2/MSDK/wpa_supplicant/src/crypto\crypto_internal.c **** 		SHA1Init(&ctx->u.sha1);
 280:C:/Users/stapi/OneDrive/Desktop/GD32VW553/V1_MQTT_OK/GD32VW55X_Wifi_BLE_SDK/GD32VW55x_RELEASE_V1.0.2/MSDK/wpa_supplicant/src/crypto\crypto_internal.c **** 		SHA1Update(&ctx->u.sha1, k_pad, sizeof(k_pad));
 281:C:/Users/stapi/OneDrive/Desktop/GD32VW553/V1_MQTT_OK/GD32VW55X_Wifi_BLE_SDK/GD32VW55x_RELEASE_V1.0.2/MSDK/wpa_supplicant/src/crypto\crypto_internal.c **** 		SHA1Update(&ctx->u.sha1, mac, 20);
 282:C:/Users/stapi/OneDrive/Desktop/GD32VW553/V1_MQTT_OK/GD32VW55X_Wifi_BLE_SDK/GD32VW55x_RELEASE_V1.0.2/MSDK/wpa_supplicant/src/crypto\crypto_internal.c **** 		SHA1Final(mac, &ctx->u.sha1);
 283:C:/Users/stapi/OneDrive/Desktop/GD32VW553/V1_MQTT_OK/GD32VW55X_Wifi_BLE_SDK/GD32VW55x_RELEASE_V1.0.2/MSDK/wpa_supplicant/src/crypto\crypto_internal.c **** 		break;
 284:C:/Users/stapi/OneDrive/Desktop/GD32VW553/V1_MQTT_OK/GD32VW55X_Wifi_BLE_SDK/GD32VW55x_RELEASE_V1.0.2/MSDK/wpa_supplicant/src/crypto\crypto_internal.c **** #ifdef CONFIG_SHA256
 285:C:/Users/stapi/OneDrive/Desktop/GD32VW553/V1_MQTT_OK/GD32VW55X_Wifi_BLE_SDK/GD32VW55x_RELEASE_V1.0.2/MSDK/wpa_supplicant/src/crypto\crypto_internal.c **** 	case CRYPTO_HASH_ALG_HMAC_SHA256:
 286:C:/Users/stapi/OneDrive/Desktop/GD32VW553/V1_MQTT_OK/GD32VW55X_Wifi_BLE_SDK/GD32VW55x_RELEASE_V1.0.2/MSDK/wpa_supplicant/src/crypto\crypto_internal.c **** 		if (*len < 32) {
 287:C:/Users/stapi/OneDrive/Desktop/GD32VW553/V1_MQTT_OK/GD32VW55X_Wifi_BLE_SDK/GD32VW55x_RELEASE_V1.0.2/MSDK/wpa_supplicant/src/crypto\crypto_internal.c **** 			*len = 32;
 288:C:/Users/stapi/OneDrive/Desktop/GD32VW553/V1_MQTT_OK/GD32VW55X_Wifi_BLE_SDK/GD32VW55x_RELEASE_V1.0.2/MSDK/wpa_supplicant/src/crypto\crypto_internal.c **** 			os_free(ctx);
 289:C:/Users/stapi/OneDrive/Desktop/GD32VW553/V1_MQTT_OK/GD32VW55X_Wifi_BLE_SDK/GD32VW55x_RELEASE_V1.0.2/MSDK/wpa_supplicant/src/crypto\crypto_internal.c **** 			return -1;
 290:C:/Users/stapi/OneDrive/Desktop/GD32VW553/V1_MQTT_OK/GD32VW55X_Wifi_BLE_SDK/GD32VW55x_RELEASE_V1.0.2/MSDK/wpa_supplicant/src/crypto\crypto_internal.c **** 		}
 291:C:/Users/stapi/OneDrive/Desktop/GD32VW553/V1_MQTT_OK/GD32VW55X_Wifi_BLE_SDK/GD32VW55x_RELEASE_V1.0.2/MSDK/wpa_supplicant/src/crypto\crypto_internal.c **** 		*len = 32;
 292:C:/Users/stapi/OneDrive/Desktop/GD32VW553/V1_MQTT_OK/GD32VW55X_Wifi_BLE_SDK/GD32VW55x_RELEASE_V1.0.2/MSDK/wpa_supplicant/src/crypto\crypto_internal.c **** 
 293:C:/Users/stapi/OneDrive/Desktop/GD32VW553/V1_MQTT_OK/GD32VW55X_Wifi_BLE_SDK/GD32VW55x_RELEASE_V1.0.2/MSDK/wpa_supplicant/src/crypto\crypto_internal.c **** 		sha256_done(&ctx->u.sha256, mac);
 294:C:/Users/stapi/OneDrive/Desktop/GD32VW553/V1_MQTT_OK/GD32VW55X_Wifi_BLE_SDK/GD32VW55x_RELEASE_V1.0.2/MSDK/wpa_supplicant/src/crypto\crypto_internal.c **** 
 295:C:/Users/stapi/OneDrive/Desktop/GD32VW553/V1_MQTT_OK/GD32VW55X_Wifi_BLE_SDK/GD32VW55x_RELEASE_V1.0.2/MSDK/wpa_supplicant/src/crypto\crypto_internal.c **** 		os_memcpy(k_pad, ctx->key, ctx->key_len);
 296:C:/Users/stapi/OneDrive/Desktop/GD32VW553/V1_MQTT_OK/GD32VW55X_Wifi_BLE_SDK/GD32VW55x_RELEASE_V1.0.2/MSDK/wpa_supplicant/src/crypto\crypto_internal.c **** 		os_memset(k_pad + ctx->key_len, 0,
 297:C:/Users/stapi/OneDrive/Desktop/GD32VW553/V1_MQTT_OK/GD32VW55X_Wifi_BLE_SDK/GD32VW55x_RELEASE_V1.0.2/MSDK/wpa_supplicant/src/crypto\crypto_internal.c **** 			  sizeof(k_pad) - ctx->key_len);
 298:C:/Users/stapi/OneDrive/Desktop/GD32VW553/V1_MQTT_OK/GD32VW55X_Wifi_BLE_SDK/GD32VW55x_RELEASE_V1.0.2/MSDK/wpa_supplicant/src/crypto\crypto_internal.c **** 		for (i = 0; i < sizeof(k_pad); i++)
 299:C:/Users/stapi/OneDrive/Desktop/GD32VW553/V1_MQTT_OK/GD32VW55X_Wifi_BLE_SDK/GD32VW55x_RELEASE_V1.0.2/MSDK/wpa_supplicant/src/crypto\crypto_internal.c **** 			k_pad[i] ^= 0x5c;
 300:C:/Users/stapi/OneDrive/Desktop/GD32VW553/V1_MQTT_OK/GD32VW55X_Wifi_BLE_SDK/GD32VW55x_RELEASE_V1.0.2/MSDK/wpa_supplicant/src/crypto\crypto_internal.c **** 		sha256_init(&ctx->u.sha256);
 301:C:/Users/stapi/OneDrive/Desktop/GD32VW553/V1_MQTT_OK/GD32VW55X_Wifi_BLE_SDK/GD32VW55x_RELEASE_V1.0.2/MSDK/wpa_supplicant/src/crypto\crypto_internal.c **** 		sha256_process(&ctx->u.sha256, k_pad, sizeof(k_pad));
 302:C:/Users/stapi/OneDrive/Desktop/GD32VW553/V1_MQTT_OK/GD32VW55X_Wifi_BLE_SDK/GD32VW55x_RELEASE_V1.0.2/MSDK/wpa_supplicant/src/crypto\crypto_internal.c **** 		sha256_process(&ctx->u.sha256, mac, 32);
 303:C:/Users/stapi/OneDrive/Desktop/GD32VW553/V1_MQTT_OK/GD32VW55X_Wifi_BLE_SDK/GD32VW55x_RELEASE_V1.0.2/MSDK/wpa_supplicant/src/crypto\crypto_internal.c **** 		sha256_done(&ctx->u.sha256, mac);
 304:C:/Users/stapi/OneDrive/Desktop/GD32VW553/V1_MQTT_OK/GD32VW55X_Wifi_BLE_SDK/GD32VW55x_RELEASE_V1.0.2/MSDK/wpa_supplicant/src/crypto\crypto_internal.c **** 		break;
 305:C:/Users/stapi/OneDrive/Desktop/GD32VW553/V1_MQTT_OK/GD32VW55X_Wifi_BLE_SDK/GD32VW55x_RELEASE_V1.0.2/MSDK/wpa_supplicant/src/crypto\crypto_internal.c **** #endif /* CONFIG_SHA256 */
 306:C:/Users/stapi/OneDrive/Desktop/GD32VW553/V1_MQTT_OK/GD32VW55X_Wifi_BLE_SDK/GD32VW55x_RELEASE_V1.0.2/MSDK/wpa_supplicant/src/crypto\crypto_internal.c **** 	default:
 307:C:/Users/stapi/OneDrive/Desktop/GD32VW553/V1_MQTT_OK/GD32VW55X_Wifi_BLE_SDK/GD32VW55x_RELEASE_V1.0.2/MSDK/wpa_supplicant/src/crypto\crypto_internal.c **** 		os_free(ctx);
 308:C:/Users/stapi/OneDrive/Desktop/GD32VW553/V1_MQTT_OK/GD32VW55X_Wifi_BLE_SDK/GD32VW55x_RELEASE_V1.0.2/MSDK/wpa_supplicant/src/crypto\crypto_internal.c **** 		return -1;
 309:C:/Users/stapi/OneDrive/Desktop/GD32VW553/V1_MQTT_OK/GD32VW55X_Wifi_BLE_SDK/GD32VW55x_RELEASE_V1.0.2/MSDK/wpa_supplicant/src/crypto\crypto_internal.c **** 	}
 310:C:/Users/stapi/OneDrive/Desktop/GD32VW553/V1_MQTT_OK/GD32VW55X_Wifi_BLE_SDK/GD32VW55x_RELEASE_V1.0.2/MSDK/wpa_supplicant/src/crypto\crypto_internal.c **** 
 311:C:/Users/stapi/OneDrive/Desktop/GD32VW553/V1_MQTT_OK/GD32VW55X_Wifi_BLE_SDK/GD32VW55x_RELEASE_V1.0.2/MSDK/wpa_supplicant/src/crypto\crypto_internal.c **** 	os_free(ctx);
 312:C:/Users/stapi/OneDrive/Desktop/GD32VW553/V1_MQTT_OK/GD32VW55X_Wifi_BLE_SDK/GD32VW55x_RELEASE_V1.0.2/MSDK/wpa_supplicant/src/crypto\crypto_internal.c **** 
 313:C:/Users/stapi/OneDrive/Desktop/GD32VW553/V1_MQTT_OK/GD32VW55X_Wifi_BLE_SDK/GD32VW55x_RELEASE_V1.0.2/MSDK/wpa_supplicant/src/crypto\crypto_internal.c **** 	if (TEST_FAIL())
 314:C:/Users/stapi/OneDrive/Desktop/GD32VW553/V1_MQTT_OK/GD32VW55X_Wifi_BLE_SDK/GD32VW55x_RELEASE_V1.0.2/MSDK/wpa_supplicant/src/crypto\crypto_internal.c **** 		return -1;
 315:C:/Users/stapi/OneDrive/Desktop/GD32VW553/V1_MQTT_OK/GD32VW55X_Wifi_BLE_SDK/GD32VW55x_RELEASE_V1.0.2/MSDK/wpa_supplicant/src/crypto\crypto_internal.c **** 
 316:C:/Users/stapi/OneDrive/Desktop/GD32VW553/V1_MQTT_OK/GD32VW55X_Wifi_BLE_SDK/GD32VW55x_RELEASE_V1.0.2/MSDK/wpa_supplicant/src/crypto\crypto_internal.c **** 	return 0;
 317:C:/Users/stapi/OneDrive/Desktop/GD32VW553/V1_MQTT_OK/GD32VW55X_Wifi_BLE_SDK/GD32VW55x_RELEASE_V1.0.2/MSDK/wpa_supplicant/src/crypto\crypto_internal.c **** }
 387              		.loc 1 317 1
 388 0022 2161     		addi	sp,sp,64
 389              		.cfi_remember_state
 390              		.cfi_def_cfa_offset 0
 391 0024 17030000 		tail	__riscv_restore_3
 391      67000300 
 392              		.cfi_restore 18
 393              		.cfi_restore 9
 394              		.cfi_restore 8
 395              		.cfi_restore 1
 396              		.cfi_def_cfa_offset -16
 397              	.LVL51:
 398              	.L41:
 399              		.cfi_restore_state
 192:C:/Users/stapi/OneDrive/Desktop/GD32VW553/V1_MQTT_OK/GD32VW55X_Wifi_BLE_SDK/GD32VW55x_RELEASE_V1.0.2/MSDK/wpa_supplicant/src/crypto\crypto_internal.c **** 	case CRYPTO_HASH_ALG_MD5:
 400              		.loc 1 192 2 is_stmt 1
 192:C:/Users/stapi/OneDrive/Desktop/GD32VW553/V1_MQTT_OK/GD32VW55X_Wifi_BLE_SDK/GD32VW55x_RELEASE_V1.0.2/MSDK/wpa_supplicant/src/crypto\crypto_internal.c **** 	case CRYPTO_HASH_ALG_MD5:
 401              		.loc 1 192 13 is_stmt 0
 402 002c 1C41     		lw	a5,0(a0)
 192:C:/Users/stapi/OneDrive/Desktop/GD32VW553/V1_MQTT_OK/GD32VW55X_Wifi_BLE_SDK/GD32VW55x_RELEASE_V1.0.2/MSDK/wpa_supplicant/src/crypto\crypto_internal.c **** 	case CRYPTO_HASH_ALG_MD5:
 403              		.loc 1 192 2
 404 002e 0947     		li	a4,2
 405 0030 638FE704 		beq	a5,a4,.L42
 406 0034 636BF700 		bgtu	a5,a4,.L43
 407 0038 1842     		lw	a4,0(a2)
 408 003a 9DEB     		bne	a5,zero,.L60
 194:C:/Users/stapi/OneDrive/Desktop/GD32VW553/V1_MQTT_OK/GD32VW55X_Wifi_BLE_SDK/GD32VW55x_RELEASE_V1.0.2/MSDK/wpa_supplicant/src/crypto\crypto_internal.c **** 			*len = 16;
 409              		.loc 1 194 3 is_stmt 1
 194:C:/Users/stapi/OneDrive/Desktop/GD32VW553/V1_MQTT_OK/GD32VW55X_Wifi_BLE_SDK/GD32VW55x_RELEASE_V1.0.2/MSDK/wpa_supplicant/src/crypto\crypto_internal.c **** 			*len = 16;
 410              		.loc 1 194 6 is_stmt 0
 411 003c BD47     		li	a5,15
 412 003e 63EFE700 		bgtu	a4,a5,.L48
 413              	.L50:
 195:C:/Users/stapi/OneDrive/Desktop/GD32VW553/V1_MQTT_OK/GD32VW55X_Wifi_BLE_SDK/GD32VW55x_RELEASE_V1.0.2/MSDK/wpa_supplicant/src/crypto\crypto_internal.c **** 			os_free(ctx);
 414              		.loc 1 195 4 is_stmt 1
 195:C:/Users/stapi/OneDrive/Desktop/GD32VW553/V1_MQTT_OK/GD32VW55X_Wifi_BLE_SDK/GD32VW55x_RELEASE_V1.0.2/MSDK/wpa_supplicant/src/crypto\crypto_internal.c **** 			os_free(ctx);
 415              		.loc 1 195 9 is_stmt 0
 416 0042 C147     		li	a5,16
 417              	.L68:
 204:C:/Users/stapi/OneDrive/Desktop/GD32VW553/V1_MQTT_OK/GD32VW55X_Wifi_BLE_SDK/GD32VW55x_RELEASE_V1.0.2/MSDK/wpa_supplicant/src/crypto\crypto_internal.c **** 			os_free(ctx);
 418              		.loc 1 204 9
 419 0044 1CC2     		sw	a5,0(a2)
 205:C:/Users/stapi/OneDrive/Desktop/GD32VW553/V1_MQTT_OK/GD32VW55X_Wifi_BLE_SDK/GD32VW55x_RELEASE_V1.0.2/MSDK/wpa_supplicant/src/crypto\crypto_internal.c **** 			return -1;
 420              		.loc 1 205 4 is_stmt 1
 421 0046 2285     		mv	a0,s0
 422 0048 21A0     		j	.L61
 423              	.L43:
 192:C:/Users/stapi/OneDrive/Desktop/GD32VW553/V1_MQTT_OK/GD32VW55X_Wifi_BLE_SDK/GD32VW55x_RELEASE_V1.0.2/MSDK/wpa_supplicant/src/crypto\crypto_internal.c **** 	case CRYPTO_HASH_ALG_MD5:
 424              		.loc 1 192 2 is_stmt 0
 425 004a 0D47     		li	a4,3
 426 004c 6384E70C 		beq	a5,a4,.L46
 427              	.L61:
 307:C:/Users/stapi/OneDrive/Desktop/GD32VW553/V1_MQTT_OK/GD32VW55X_Wifi_BLE_SDK/GD32VW55x_RELEASE_V1.0.2/MSDK/wpa_supplicant/src/crypto\crypto_internal.c **** 		return -1;
 428              		.loc 1 307 3 is_stmt 1
 429 0050 97000000 		call	os_free
 429      E7800000 
 430              	.LVL52:
 308:C:/Users/stapi/OneDrive/Desktop/GD32VW553/V1_MQTT_OK/GD32VW55X_Wifi_BLE_SDK/GD32VW55x_RELEASE_V1.0.2/MSDK/wpa_supplicant/src/crypto\crypto_internal.c **** 	}
 431              		.loc 1 308 3
 308:C:/Users/stapi/OneDrive/Desktop/GD32VW553/V1_MQTT_OK/GD32VW55X_Wifi_BLE_SDK/GD32VW55x_RELEASE_V1.0.2/MSDK/wpa_supplicant/src/crypto\crypto_internal.c **** 	}
 432              		.loc 1 308 10 is_stmt 0
 433 0058 7D55     		li	a0,-1
 434 005a E1B7     		j	.L38
 435              	.LVL53:
 436              	.L48:
 199:C:/Users/stapi/OneDrive/Desktop/GD32VW553/V1_MQTT_OK/GD32VW55X_Wifi_BLE_SDK/GD32VW55x_RELEASE_V1.0.2/MSDK/wpa_supplicant/src/crypto\crypto_internal.c **** 		MD5Final(mac, &ctx->u.md5);
 437              		.loc 1 199 3 is_stmt 1
 199:C:/Users/stapi/OneDrive/Desktop/GD32VW553/V1_MQTT_OK/GD32VW55X_Wifi_BLE_SDK/GD32VW55x_RELEASE_V1.0.2/MSDK/wpa_supplicant/src/crypto\crypto_internal.c **** 		MD5Final(mac, &ctx->u.md5);
 438              		.loc 1 199 8 is_stmt 0
 439 005c C147     		li	a5,16
 440 005e 1CC2     		sw	a5,0(a2)
 200:C:/Users/stapi/OneDrive/Desktop/GD32VW553/V1_MQTT_OK/GD32VW55X_Wifi_BLE_SDK/GD32VW55x_RELEASE_V1.0.2/MSDK/wpa_supplicant/src/crypto\crypto_internal.c **** 		break;
 441              		.loc 1 200 3 is_stmt 1
 442 0060 93054500 		addi	a1,a0,4
 443              	.LVL54:
 444              	.L67:
 262:C:/Users/stapi/OneDrive/Desktop/GD32VW553/V1_MQTT_OK/GD32VW55X_Wifi_BLE_SDK/GD32VW55x_RELEASE_V1.0.2/MSDK/wpa_supplicant/src/crypto\crypto_internal.c **** 		break;
 445              		.loc 1 262 3 is_stmt 0
 446 0064 2685     		mv	a0,s1
 447 0066 97000000 		call	MD5Final
 447      E7800000 
 448              	.LVL55:
 263:C:/Users/stapi/OneDrive/Desktop/GD32VW553/V1_MQTT_OK/GD32VW55X_Wifi_BLE_SDK/GD32VW55x_RELEASE_V1.0.2/MSDK/wpa_supplicant/src/crypto\crypto_internal.c **** 	case CRYPTO_HASH_ALG_HMAC_SHA1:
 449              		.loc 1 263 3 is_stmt 1
 450 006e 65B7     		j	.L40
 451              	.LVL56:
 452              	.L60:
 203:C:/Users/stapi/OneDrive/Desktop/GD32VW553/V1_MQTT_OK/GD32VW55X_Wifi_BLE_SDK/GD32VW55x_RELEASE_V1.0.2/MSDK/wpa_supplicant/src/crypto\crypto_internal.c **** 			*len = 20;
 453              		.loc 1 203 3
 203:C:/Users/stapi/OneDrive/Desktop/GD32VW553/V1_MQTT_OK/GD32VW55X_Wifi_BLE_SDK/GD32VW55x_RELEASE_V1.0.2/MSDK/wpa_supplicant/src/crypto\crypto_internal.c **** 			*len = 20;
 454              		.loc 1 203 6 is_stmt 0
 455 0070 CD47     		li	a5,19
 456 0072 63E4E700 		bgtu	a4,a5,.L49
 457              	.L52:
 204:C:/Users/stapi/OneDrive/Desktop/GD32VW553/V1_MQTT_OK/GD32VW55X_Wifi_BLE_SDK/GD32VW55x_RELEASE_V1.0.2/MSDK/wpa_supplicant/src/crypto\crypto_internal.c **** 			os_free(ctx);
 458              		.loc 1 204 4 is_stmt 1
 204:C:/Users/stapi/OneDrive/Desktop/GD32VW553/V1_MQTT_OK/GD32VW55X_Wifi_BLE_SDK/GD32VW55x_RELEASE_V1.0.2/MSDK/wpa_supplicant/src/crypto\crypto_internal.c **** 			os_free(ctx);
 459              		.loc 1 204 9 is_stmt 0
 460 0076 D147     		li	a5,20
 461 0078 F1B7     		j	.L68
 462              	.L49:
 208:C:/Users/stapi/OneDrive/Desktop/GD32VW553/V1_MQTT_OK/GD32VW55X_Wifi_BLE_SDK/GD32VW55x_RELEASE_V1.0.2/MSDK/wpa_supplicant/src/crypto\crypto_internal.c **** 		SHA1Final(mac, &ctx->u.sha1);
 463              		.loc 1 208 3 is_stmt 1
 208:C:/Users/stapi/OneDrive/Desktop/GD32VW553/V1_MQTT_OK/GD32VW55X_Wifi_BLE_SDK/GD32VW55x_RELEASE_V1.0.2/MSDK/wpa_supplicant/src/crypto\crypto_internal.c **** 		SHA1Final(mac, &ctx->u.sha1);
 464              		.loc 1 208 8 is_stmt 0
 465 007a D147     		li	a5,20
 466 007c 1CC2     		sw	a5,0(a2)
 209:C:/Users/stapi/OneDrive/Desktop/GD32VW553/V1_MQTT_OK/GD32VW55X_Wifi_BLE_SDK/GD32VW55x_RELEASE_V1.0.2/MSDK/wpa_supplicant/src/crypto\crypto_internal.c **** 		break;
 467              		.loc 1 209 3 is_stmt 1
 468 007e 93054500 		addi	a1,a0,4
 469              	.LVL57:
 470              	.L66:
 282:C:/Users/stapi/OneDrive/Desktop/GD32VW553/V1_MQTT_OK/GD32VW55X_Wifi_BLE_SDK/GD32VW55x_RELEASE_V1.0.2/MSDK/wpa_supplicant/src/crypto\crypto_internal.c **** 		break;
 471              		.loc 1 282 3 is_stmt 0
 472 0082 2685     		mv	a0,s1
 473 0084 97000000 		call	SHA1Final
 473      E7800000 
 474              	.LVL58:
 283:C:/Users/stapi/OneDrive/Desktop/GD32VW553/V1_MQTT_OK/GD32VW55X_Wifi_BLE_SDK/GD32VW55x_RELEASE_V1.0.2/MSDK/wpa_supplicant/src/crypto\crypto_internal.c **** #ifdef CONFIG_SHA256
 475              		.loc 1 283 3 is_stmt 1
 476 008c 69B7     		j	.L40
 477              	.LVL59:
 478              	.L42:
 245:C:/Users/stapi/OneDrive/Desktop/GD32VW553/V1_MQTT_OK/GD32VW55X_Wifi_BLE_SDK/GD32VW55x_RELEASE_V1.0.2/MSDK/wpa_supplicant/src/crypto\crypto_internal.c **** 			*len = 16;
 479              		.loc 1 245 3
 245:C:/Users/stapi/OneDrive/Desktop/GD32VW553/V1_MQTT_OK/GD32VW55X_Wifi_BLE_SDK/GD32VW55x_RELEASE_V1.0.2/MSDK/wpa_supplicant/src/crypto\crypto_internal.c **** 			*len = 16;
 480              		.loc 1 245 6 is_stmt 0
 481 008e 1842     		lw	a4,0(a2)
 482 0090 BD47     		li	a5,15
 483 0092 E3F8E7FA 		bleu	a4,a5,.L50
 250:C:/Users/stapi/OneDrive/Desktop/GD32VW553/V1_MQTT_OK/GD32VW55X_Wifi_BLE_SDK/GD32VW55x_RELEASE_V1.0.2/MSDK/wpa_supplicant/src/crypto\crypto_internal.c **** 
 484              		.loc 1 250 3 is_stmt 1
 250:C:/Users/stapi/OneDrive/Desktop/GD32VW553/V1_MQTT_OK/GD32VW55X_Wifi_BLE_SDK/GD32VW55x_RELEASE_V1.0.2/MSDK/wpa_supplicant/src/crypto\crypto_internal.c **** 
 485              		.loc 1 250 8 is_stmt 0
 486 0096 C147     		li	a5,16
 252:C:/Users/stapi/OneDrive/Desktop/GD32VW553/V1_MQTT_OK/GD32VW55X_Wifi_BLE_SDK/GD32VW55x_RELEASE_V1.0.2/MSDK/wpa_supplicant/src/crypto\crypto_internal.c **** 
 487              		.loc 1 252 3
 488 0098 13094500 		addi	s2,a0,4
 250:C:/Users/stapi/OneDrive/Desktop/GD32VW553/V1_MQTT_OK/GD32VW55X_Wifi_BLE_SDK/GD32VW55x_RELEASE_V1.0.2/MSDK/wpa_supplicant/src/crypto\crypto_internal.c **** 
 489              		.loc 1 250 8
 490 009c 1CC2     		sw	a5,0(a2)
 252:C:/Users/stapi/OneDrive/Desktop/GD32VW553/V1_MQTT_OK/GD32VW55X_Wifi_BLE_SDK/GD32VW55x_RELEASE_V1.0.2/MSDK/wpa_supplicant/src/crypto\crypto_internal.c **** 
 491              		.loc 1 252 3 is_stmt 1
 492 009e CA85     		mv	a1,s2
 493 00a0 2685     		mv	a0,s1
 494 00a2 97000000 		call	MD5Final
 494      E7800000 
 495              	.LVL60:
 254:C:/Users/stapi/OneDrive/Desktop/GD32VW553/V1_MQTT_OK/GD32VW55X_Wifi_BLE_SDK/GD32VW55x_RELEASE_V1.0.2/MSDK/wpa_supplicant/src/crypto\crypto_internal.c **** 		os_memset(k_pad + ctx->key_len, 0,
 496              		.loc 1 254 3
 497 00aa 0326040A 		lw	a2,160(s0)
 498 00ae 93050406 		addi	a1,s0,96
 499 00b2 0A85     		mv	a0,sp
 500 00b4 97000000 		call	os_memcpy
 500      E7800000 
 501              	.LVL61:
 255:C:/Users/stapi/OneDrive/Desktop/GD32VW553/V1_MQTT_OK/GD32VW55X_Wifi_BLE_SDK/GD32VW55x_RELEASE_V1.0.2/MSDK/wpa_supplicant/src/crypto\crypto_internal.c **** 			  sizeof(k_pad) - ctx->key_len);
 502              		.loc 1 255 3
 255:C:/Users/stapi/OneDrive/Desktop/GD32VW553/V1_MQTT_OK/GD32VW55X_Wifi_BLE_SDK/GD32VW55x_RELEASE_V1.0.2/MSDK/wpa_supplicant/src/crypto\crypto_internal.c **** 			  sizeof(k_pad) - ctx->key_len);
 503              		.loc 1 255 24 is_stmt 0
 504 00bc 0325040A 		lw	a0,160(s0)
 255:C:/Users/stapi/OneDrive/Desktop/GD32VW553/V1_MQTT_OK/GD32VW55X_Wifi_BLE_SDK/GD32VW55x_RELEASE_V1.0.2/MSDK/wpa_supplicant/src/crypto\crypto_internal.c **** 			  sizeof(k_pad) - ctx->key_len);
 505              		.loc 1 255 3
 506 00c0 13060004 		li	a2,64
 507 00c4 8145     		li	a1,0
 508 00c6 098E     		sub	a2,a2,a0
 509 00c8 0A95     		add	a0,sp,a0
 510 00ca 97000000 		call	os_memset
 510      E7800000 
 511              	.LVL62:
 257:C:/Users/stapi/OneDrive/Desktop/GD32VW553/V1_MQTT_OK/GD32VW55X_Wifi_BLE_SDK/GD32VW55x_RELEASE_V1.0.2/MSDK/wpa_supplicant/src/crypto\crypto_internal.c **** 			k_pad[i] ^= 0x5c;
 512              		.loc 1 257 3 is_stmt 1
 257:C:/Users/stapi/OneDrive/Desktop/GD32VW553/V1_MQTT_OK/GD32VW55X_Wifi_BLE_SDK/GD32VW55x_RELEASE_V1.0.2/MSDK/wpa_supplicant/src/crypto\crypto_internal.c **** 			k_pad[i] ^= 0x5c;
 513              		.loc 1 257 15
 514 00d2 8A87     		mv	a5,sp
 515              	.LVL63:
 516              	.L51:
 258:C:/Users/stapi/OneDrive/Desktop/GD32VW553/V1_MQTT_OK/GD32VW55X_Wifi_BLE_SDK/GD32VW55x_RELEASE_V1.0.2/MSDK/wpa_supplicant/src/crypto\crypto_internal.c **** 		MD5Init(&ctx->u.md5);
 517              		.loc 1 258 4 discriminator 3
 258:C:/Users/stapi/OneDrive/Desktop/GD32VW553/V1_MQTT_OK/GD32VW55X_Wifi_BLE_SDK/GD32VW55x_RELEASE_V1.0.2/MSDK/wpa_supplicant/src/crypto\crypto_internal.c **** 		MD5Init(&ctx->u.md5);
 518              		.loc 1 258 13 is_stmt 0 discriminator 3
 519 00d4 03C70700 		lbu	a4,0(a5)
 257:C:/Users/stapi/OneDrive/Desktop/GD32VW553/V1_MQTT_OK/GD32VW55X_Wifi_BLE_SDK/GD32VW55x_RELEASE_V1.0.2/MSDK/wpa_supplicant/src/crypto\crypto_internal.c **** 			k_pad[i] ^= 0x5c;
 520              		.loc 1 257 3 discriminator 3
 521 00d8 8507     		addi	a5,a5,1
 522              	.LVL64:
 258:C:/Users/stapi/OneDrive/Desktop/GD32VW553/V1_MQTT_OK/GD32VW55X_Wifi_BLE_SDK/GD32VW55x_RELEASE_V1.0.2/MSDK/wpa_supplicant/src/crypto\crypto_internal.c **** 		MD5Init(&ctx->u.md5);
 523              		.loc 1 258 13 discriminator 3
 524 00da 1347C705 		xori	a4,a4,92
 525 00de A38FE7FE 		sb	a4,-1(a5)
 257:C:/Users/stapi/OneDrive/Desktop/GD32VW553/V1_MQTT_OK/GD32VW55X_Wifi_BLE_SDK/GD32VW55x_RELEASE_V1.0.2/MSDK/wpa_supplicant/src/crypto\crypto_internal.c **** 			k_pad[i] ^= 0x5c;
 526              		.loc 1 257 34 is_stmt 1 discriminator 3
 527              	.LVL65:
 257:C:/Users/stapi/OneDrive/Desktop/GD32VW553/V1_MQTT_OK/GD32VW55X_Wifi_BLE_SDK/GD32VW55x_RELEASE_V1.0.2/MSDK/wpa_supplicant/src/crypto\crypto_internal.c **** 			k_pad[i] ^= 0x5c;
 528              		.loc 1 257 15 discriminator 3
 257:C:/Users/stapi/OneDrive/Desktop/GD32VW553/V1_MQTT_OK/GD32VW55X_Wifi_BLE_SDK/GD32VW55x_RELEASE_V1.0.2/MSDK/wpa_supplicant/src/crypto\crypto_internal.c **** 			k_pad[i] ^= 0x5c;
 529              		.loc 1 257 3 is_stmt 0 discriminator 3
 530 00e2 9800     		addi	a4,sp,64
 531 00e4 E398E7FE 		bne	a5,a4,.L51
 259:C:/Users/stapi/OneDrive/Desktop/GD32VW553/V1_MQTT_OK/GD32VW55X_Wifi_BLE_SDK/GD32VW55x_RELEASE_V1.0.2/MSDK/wpa_supplicant/src/crypto\crypto_internal.c **** 		MD5Update(&ctx->u.md5, k_pad, sizeof(k_pad));
 532              		.loc 1 259 3 is_stmt 1
 533 00e8 4A85     		mv	a0,s2
 534 00ea 97000000 		call	MD5Init
 534      E7800000 
 535              	.LVL66:
 260:C:/Users/stapi/OneDrive/Desktop/GD32VW553/V1_MQTT_OK/GD32VW55X_Wifi_BLE_SDK/GD32VW55x_RELEASE_V1.0.2/MSDK/wpa_supplicant/src/crypto\crypto_internal.c **** 		MD5Update(&ctx->u.md5, mac, 16);
 536              		.loc 1 260 3
 537 00f2 13060004 		li	a2,64
 538 00f6 8A85     		mv	a1,sp
 539 00f8 4A85     		mv	a0,s2
 540 00fa 97000000 		call	MD5Update
 540      E7800000 
 541              	.LVL67:
 261:C:/Users/stapi/OneDrive/Desktop/GD32VW553/V1_MQTT_OK/GD32VW55X_Wifi_BLE_SDK/GD32VW55x_RELEASE_V1.0.2/MSDK/wpa_supplicant/src/crypto\crypto_internal.c **** 		MD5Final(mac, &ctx->u.md5);
 542              		.loc 1 261 3
 543 0102 A685     		mv	a1,s1
 544 0104 4146     		li	a2,16
 545 0106 4A85     		mv	a0,s2
 546 0108 97000000 		call	MD5Update
 546      E7800000 
 547              	.LVL68:
 262:C:/Users/stapi/OneDrive/Desktop/GD32VW553/V1_MQTT_OK/GD32VW55X_Wifi_BLE_SDK/GD32VW55x_RELEASE_V1.0.2/MSDK/wpa_supplicant/src/crypto\crypto_internal.c **** 		break;
 548              		.loc 1 262 3
 549 0110 CA85     		mv	a1,s2
 550 0112 89BF     		j	.L67
 551              	.LVL69:
 552              	.L46:
 265:C:/Users/stapi/OneDrive/Desktop/GD32VW553/V1_MQTT_OK/GD32VW55X_Wifi_BLE_SDK/GD32VW55x_RELEASE_V1.0.2/MSDK/wpa_supplicant/src/crypto\crypto_internal.c **** 			*len = 20;
 553              		.loc 1 265 3
 265:C:/Users/stapi/OneDrive/Desktop/GD32VW553/V1_MQTT_OK/GD32VW55X_Wifi_BLE_SDK/GD32VW55x_RELEASE_V1.0.2/MSDK/wpa_supplicant/src/crypto\crypto_internal.c **** 			*len = 20;
 554              		.loc 1 265 6 is_stmt 0
 555 0114 1842     		lw	a4,0(a2)
 556 0116 CD47     		li	a5,19
 557 0118 E3FFE7F4 		bleu	a4,a5,.L52
 270:C:/Users/stapi/OneDrive/Desktop/GD32VW553/V1_MQTT_OK/GD32VW55X_Wifi_BLE_SDK/GD32VW55x_RELEASE_V1.0.2/MSDK/wpa_supplicant/src/crypto\crypto_internal.c **** 
 558              		.loc 1 270 3 is_stmt 1
 270:C:/Users/stapi/OneDrive/Desktop/GD32VW553/V1_MQTT_OK/GD32VW55X_Wifi_BLE_SDK/GD32VW55x_RELEASE_V1.0.2/MSDK/wpa_supplicant/src/crypto\crypto_internal.c **** 
 559              		.loc 1 270 8 is_stmt 0
 560 011c D147     		li	a5,20
 272:C:/Users/stapi/OneDrive/Desktop/GD32VW553/V1_MQTT_OK/GD32VW55X_Wifi_BLE_SDK/GD32VW55x_RELEASE_V1.0.2/MSDK/wpa_supplicant/src/crypto\crypto_internal.c **** 
 561              		.loc 1 272 3
 562 011e 13094500 		addi	s2,a0,4
 270:C:/Users/stapi/OneDrive/Desktop/GD32VW553/V1_MQTT_OK/GD32VW55X_Wifi_BLE_SDK/GD32VW55x_RELEASE_V1.0.2/MSDK/wpa_supplicant/src/crypto\crypto_internal.c **** 
 563              		.loc 1 270 8
 564 0122 1CC2     		sw	a5,0(a2)
 272:C:/Users/stapi/OneDrive/Desktop/GD32VW553/V1_MQTT_OK/GD32VW55X_Wifi_BLE_SDK/GD32VW55x_RELEASE_V1.0.2/MSDK/wpa_supplicant/src/crypto\crypto_internal.c **** 
 565              		.loc 1 272 3 is_stmt 1
 566 0124 CA85     		mv	a1,s2
 567 0126 2685     		mv	a0,s1
 568 0128 97000000 		call	SHA1Final
 568      E7800000 
 569              	.LVL70:
 274:C:/Users/stapi/OneDrive/Desktop/GD32VW553/V1_MQTT_OK/GD32VW55X_Wifi_BLE_SDK/GD32VW55x_RELEASE_V1.0.2/MSDK/wpa_supplicant/src/crypto\crypto_internal.c **** 		os_memset(k_pad + ctx->key_len, 0,
 570              		.loc 1 274 3
 571 0130 0326040A 		lw	a2,160(s0)
 572 0134 93050406 		addi	a1,s0,96
 573 0138 0A85     		mv	a0,sp
 574 013a 97000000 		call	os_memcpy
 574      E7800000 
 575              	.LVL71:
 275:C:/Users/stapi/OneDrive/Desktop/GD32VW553/V1_MQTT_OK/GD32VW55X_Wifi_BLE_SDK/GD32VW55x_RELEASE_V1.0.2/MSDK/wpa_supplicant/src/crypto\crypto_internal.c **** 			  sizeof(k_pad) - ctx->key_len);
 576              		.loc 1 275 3
 275:C:/Users/stapi/OneDrive/Desktop/GD32VW553/V1_MQTT_OK/GD32VW55X_Wifi_BLE_SDK/GD32VW55x_RELEASE_V1.0.2/MSDK/wpa_supplicant/src/crypto\crypto_internal.c **** 			  sizeof(k_pad) - ctx->key_len);
 577              		.loc 1 275 24 is_stmt 0
 578 0142 0325040A 		lw	a0,160(s0)
 275:C:/Users/stapi/OneDrive/Desktop/GD32VW553/V1_MQTT_OK/GD32VW55X_Wifi_BLE_SDK/GD32VW55x_RELEASE_V1.0.2/MSDK/wpa_supplicant/src/crypto\crypto_internal.c **** 			  sizeof(k_pad) - ctx->key_len);
 579              		.loc 1 275 3
 580 0146 13060004 		li	a2,64
 581 014a 8145     		li	a1,0
 582 014c 098E     		sub	a2,a2,a0
 583 014e 0A95     		add	a0,sp,a0
 584 0150 97000000 		call	os_memset
 584      E7800000 
 585              	.LVL72:
 277:C:/Users/stapi/OneDrive/Desktop/GD32VW553/V1_MQTT_OK/GD32VW55X_Wifi_BLE_SDK/GD32VW55x_RELEASE_V1.0.2/MSDK/wpa_supplicant/src/crypto\crypto_internal.c **** 			k_pad[i] ^= 0x5c;
 586              		.loc 1 277 3 is_stmt 1
 277:C:/Users/stapi/OneDrive/Desktop/GD32VW553/V1_MQTT_OK/GD32VW55X_Wifi_BLE_SDK/GD32VW55x_RELEASE_V1.0.2/MSDK/wpa_supplicant/src/crypto\crypto_internal.c **** 			k_pad[i] ^= 0x5c;
 587              		.loc 1 277 15
 588 0158 8A87     		mv	a5,sp
 589              	.LVL73:
 590              	.L53:
 278:C:/Users/stapi/OneDrive/Desktop/GD32VW553/V1_MQTT_OK/GD32VW55X_Wifi_BLE_SDK/GD32VW55x_RELEASE_V1.0.2/MSDK/wpa_supplicant/src/crypto\crypto_internal.c **** 		SHA1Init(&ctx->u.sha1);
 591              		.loc 1 278 4 discriminator 3
 278:C:/Users/stapi/OneDrive/Desktop/GD32VW553/V1_MQTT_OK/GD32VW55X_Wifi_BLE_SDK/GD32VW55x_RELEASE_V1.0.2/MSDK/wpa_supplicant/src/crypto\crypto_internal.c **** 		SHA1Init(&ctx->u.sha1);
 592              		.loc 1 278 13 is_stmt 0 discriminator 3
 593 015a 03C70700 		lbu	a4,0(a5)
 277:C:/Users/stapi/OneDrive/Desktop/GD32VW553/V1_MQTT_OK/GD32VW55X_Wifi_BLE_SDK/GD32VW55x_RELEASE_V1.0.2/MSDK/wpa_supplicant/src/crypto\crypto_internal.c **** 			k_pad[i] ^= 0x5c;
 594              		.loc 1 277 3 discriminator 3
 595 015e 8507     		addi	a5,a5,1
 596              	.LVL74:
 278:C:/Users/stapi/OneDrive/Desktop/GD32VW553/V1_MQTT_OK/GD32VW55X_Wifi_BLE_SDK/GD32VW55x_RELEASE_V1.0.2/MSDK/wpa_supplicant/src/crypto\crypto_internal.c **** 		SHA1Init(&ctx->u.sha1);
 597              		.loc 1 278 13 discriminator 3
 598 0160 1347C705 		xori	a4,a4,92
 599 0164 A38FE7FE 		sb	a4,-1(a5)
 277:C:/Users/stapi/OneDrive/Desktop/GD32VW553/V1_MQTT_OK/GD32VW55X_Wifi_BLE_SDK/GD32VW55x_RELEASE_V1.0.2/MSDK/wpa_supplicant/src/crypto\crypto_internal.c **** 			k_pad[i] ^= 0x5c;
 600              		.loc 1 277 34 is_stmt 1 discriminator 3
 601              	.LVL75:
 277:C:/Users/stapi/OneDrive/Desktop/GD32VW553/V1_MQTT_OK/GD32VW55X_Wifi_BLE_SDK/GD32VW55x_RELEASE_V1.0.2/MSDK/wpa_supplicant/src/crypto\crypto_internal.c **** 			k_pad[i] ^= 0x5c;
 602              		.loc 1 277 15 discriminator 3
 277:C:/Users/stapi/OneDrive/Desktop/GD32VW553/V1_MQTT_OK/GD32VW55X_Wifi_BLE_SDK/GD32VW55x_RELEASE_V1.0.2/MSDK/wpa_supplicant/src/crypto\crypto_internal.c **** 			k_pad[i] ^= 0x5c;
 603              		.loc 1 277 3 is_stmt 0 discriminator 3
 604 0168 9800     		addi	a4,sp,64
 605 016a E318F7FE 		bne	a4,a5,.L53
 279:C:/Users/stapi/OneDrive/Desktop/GD32VW553/V1_MQTT_OK/GD32VW55X_Wifi_BLE_SDK/GD32VW55x_RELEASE_V1.0.2/MSDK/wpa_supplicant/src/crypto\crypto_internal.c **** 		SHA1Update(&ctx->u.sha1, k_pad, sizeof(k_pad));
 606              		.loc 1 279 3 is_stmt 1
 607 016e 4A85     		mv	a0,s2
 608 0170 97000000 		call	SHA1Init
 608      E7800000 
 609              	.LVL76:
 280:C:/Users/stapi/OneDrive/Desktop/GD32VW553/V1_MQTT_OK/GD32VW55X_Wifi_BLE_SDK/GD32VW55x_RELEASE_V1.0.2/MSDK/wpa_supplicant/src/crypto\crypto_internal.c **** 		SHA1Update(&ctx->u.sha1, mac, 20);
 610              		.loc 1 280 3
 611 0178 13060004 		li	a2,64
 612 017c 8A85     		mv	a1,sp
 613 017e 4A85     		mv	a0,s2
 614 0180 97000000 		call	SHA1Update
 614      E7800000 
 615              	.LVL77:
 281:C:/Users/stapi/OneDrive/Desktop/GD32VW553/V1_MQTT_OK/GD32VW55X_Wifi_BLE_SDK/GD32VW55x_RELEASE_V1.0.2/MSDK/wpa_supplicant/src/crypto\crypto_internal.c **** 		SHA1Final(mac, &ctx->u.sha1);
 616              		.loc 1 281 3
 617 0188 A685     		mv	a1,s1
 618 018a 5146     		li	a2,20
 619 018c 4A85     		mv	a0,s2
 620 018e 97000000 		call	SHA1Update
 620      E7800000 
 621              	.LVL78:
 282:C:/Users/stapi/OneDrive/Desktop/GD32VW553/V1_MQTT_OK/GD32VW55X_Wifi_BLE_SDK/GD32VW55x_RELEASE_V1.0.2/MSDK/wpa_supplicant/src/crypto\crypto_internal.c **** 		break;
 622              		.loc 1 282 3
 623 0196 CA85     		mv	a1,s2
 624 0198 EDB5     		j	.L66
 625              	.LVL79:
 626              	.L54:
 627              		.cfi_def_cfa_offset 0
 628              		.cfi_restore 1
 629              		.cfi_restore 8
 630              		.cfi_restore 9
 631              		.cfi_restore 18
 185:C:/Users/stapi/OneDrive/Desktop/GD32VW553/V1_MQTT_OK/GD32VW55X_Wifi_BLE_SDK/GD32VW55x_RELEASE_V1.0.2/MSDK/wpa_supplicant/src/crypto\crypto_internal.c **** 
 632              		.loc 1 185 10 is_stmt 0
 633 019a 7955     		li	a0,-2
 634              	.LVL80:
 635              		.loc 1 317 1
 636 019c 8280     		ret
 637              		.cfi_endproc
 638              	.LFE73:
 640              		.section	.text.crypto_global_init,"ax",@progbits
 641              		.align	1
 642              		.globl	crypto_global_init
 644              	crypto_global_init:
 645              	.LFB74:
 318:C:/Users/stapi/OneDrive/Desktop/GD32VW553/V1_MQTT_OK/GD32VW55X_Wifi_BLE_SDK/GD32VW55x_RELEASE_V1.0.2/MSDK/wpa_supplicant/src/crypto\crypto_internal.c **** 
 319:C:/Users/stapi/OneDrive/Desktop/GD32VW553/V1_MQTT_OK/GD32VW55X_Wifi_BLE_SDK/GD32VW55x_RELEASE_V1.0.2/MSDK/wpa_supplicant/src/crypto\crypto_internal.c **** 
 320:C:/Users/stapi/OneDrive/Desktop/GD32VW553/V1_MQTT_OK/GD32VW55X_Wifi_BLE_SDK/GD32VW55x_RELEASE_V1.0.2/MSDK/wpa_supplicant/src/crypto\crypto_internal.c **** int crypto_global_init(void)
 321:C:/Users/stapi/OneDrive/Desktop/GD32VW553/V1_MQTT_OK/GD32VW55X_Wifi_BLE_SDK/GD32VW55x_RELEASE_V1.0.2/MSDK/wpa_supplicant/src/crypto\crypto_internal.c **** {
 646              		.loc 1 321 1 is_stmt 1
 647              		.cfi_startproc
 322:C:/Users/stapi/OneDrive/Desktop/GD32VW553/V1_MQTT_OK/GD32VW55X_Wifi_BLE_SDK/GD32VW55x_RELEASE_V1.0.2/MSDK/wpa_supplicant/src/crypto\crypto_internal.c **** 	return 0;
 648              		.loc 1 322 2
 323:C:/Users/stapi/OneDrive/Desktop/GD32VW553/V1_MQTT_OK/GD32VW55X_Wifi_BLE_SDK/GD32VW55x_RELEASE_V1.0.2/MSDK/wpa_supplicant/src/crypto\crypto_internal.c **** }
 649              		.loc 1 323 1 is_stmt 0
 650 0000 0145     		li	a0,0
 651 0002 8280     		ret
 652              		.cfi_endproc
 653              	.LFE74:
 655              		.section	.text.crypto_global_deinit,"ax",@progbits
 656              		.align	1
 657              		.globl	crypto_global_deinit
 659              	crypto_global_deinit:
 660              	.LFB75:
 324:C:/Users/stapi/OneDrive/Desktop/GD32VW553/V1_MQTT_OK/GD32VW55X_Wifi_BLE_SDK/GD32VW55x_RELEASE_V1.0.2/MSDK/wpa_supplicant/src/crypto\crypto_internal.c **** 
 325:C:/Users/stapi/OneDrive/Desktop/GD32VW553/V1_MQTT_OK/GD32VW55X_Wifi_BLE_SDK/GD32VW55x_RELEASE_V1.0.2/MSDK/wpa_supplicant/src/crypto\crypto_internal.c **** 
 326:C:/Users/stapi/OneDrive/Desktop/GD32VW553/V1_MQTT_OK/GD32VW55X_Wifi_BLE_SDK/GD32VW55x_RELEASE_V1.0.2/MSDK/wpa_supplicant/src/crypto\crypto_internal.c **** void crypto_global_deinit(void)
 327:C:/Users/stapi/OneDrive/Desktop/GD32VW553/V1_MQTT_OK/GD32VW55X_Wifi_BLE_SDK/GD32VW55x_RELEASE_V1.0.2/MSDK/wpa_supplicant/src/crypto\crypto_internal.c **** {
 661              		.loc 1 327 1 is_stmt 1
 662              		.cfi_startproc
 328:C:/Users/stapi/OneDrive/Desktop/GD32VW553/V1_MQTT_OK/GD32VW55X_Wifi_BLE_SDK/GD32VW55x_RELEASE_V1.0.2/MSDK/wpa_supplicant/src/crypto\crypto_internal.c **** }
 663              		.loc 1 328 1
 664 0000 8280     		ret
 665              		.cfi_endproc
 666              	.LFE75:
 668              		.text
 669              	.Letext0:
 670              		.file 2 "c:\\users\\stapi\\onedrive\\desktop\\gd32vw553\\embeddedbuilder_v1.4.7.26843\\tools\\nucl
 671              		.file 3 "c:\\users\\stapi\\onedrive\\desktop\\gd32vw553\\embeddedbuilder_v1.4.7.26843\\tools\\nucl
 672              		.file 4 "c:\\users\\stapi\\onedrive\\desktop\\gd32vw553\\embeddedbuilder_v1.4.7.26843\\tools\\nucl
 673              		.file 5 "..\\..\\..\\..\\wpa_supplicant\\src\\utils/common.h"
 674              		.file 6 "C:/Users/stapi/OneDrive/Desktop/GD32VW553/V1_MQTT_OK/GD32VW55X_Wifi_BLE_SDK/GD32VW55x_REL
 675              		.file 7 "C:/Users/stapi/OneDrive/Desktop/GD32VW553/V1_MQTT_OK/GD32VW55X_Wifi_BLE_SDK/GD32VW55x_REL
 676              		.file 8 "..\\..\\..\\..\\wpa_supplicant\\src\\utils/os.h"
 677              		.file 9 "C:/Users/stapi/OneDrive/Desktop/GD32VW553/V1_MQTT_OK/GD32VW55X_Wifi_BLE_SDK/GD32VW55x_REL