   1              		.file	"des-internal.c"
   2              		.option nopic
   3              		.attribute arch, "rv32i2p0_m2p0_a2p0_f2p0_c2p0_b_p0p94"
   4              		.attribute unaligned_access, 0
   5              		.attribute stack_align, 16
   6              		.text
   7              	.Ltext0:
   8              		.cfi_sections	.debug_frame
   9              		.section	.text.WPA_GET_BE32,"ax",@progbits
  10              		.align	1
  12              	WPA_GET_BE32:
  13              	.LFB34:
  14              		.file 1 "..\\..\\..\\..\\wpa_supplicant\\src\\utils/common.h"
   1:..\..\..\..\wpa_supplicant\src\utils/common.h **** /*
   2:..\..\..\..\wpa_supplicant\src\utils/common.h ****  * wpa_supplicant/hostapd / common helper functions, etc.
   3:..\..\..\..\wpa_supplicant\src\utils/common.h ****  * Copyright (c) 2002-2007, Jouni Malinen <j@w1.fi>
   4:..\..\..\..\wpa_supplicant\src\utils/common.h ****  *
   5:..\..\..\..\wpa_supplicant\src\utils/common.h ****  * This software may be distributed under the terms of the BSD license.
   6:..\..\..\..\wpa_supplicant\src\utils/common.h ****  * See README for more details.
   7:..\..\..\..\wpa_supplicant\src\utils/common.h ****  */
   8:..\..\..\..\wpa_supplicant\src\utils/common.h **** 
   9:..\..\..\..\wpa_supplicant\src\utils/common.h **** #ifndef COMMON_H
  10:..\..\..\..\wpa_supplicant\src\utils/common.h **** #define COMMON_H
  11:..\..\..\..\wpa_supplicant\src\utils/common.h **** 
  12:..\..\..\..\wpa_supplicant\src\utils/common.h **** #include "os.h"
  13:..\..\..\..\wpa_supplicant\src\utils/common.h **** 
  14:..\..\..\..\wpa_supplicant\src\utils/common.h **** #if defined(__linux__) || defined(__GLIBC__)
  15:..\..\..\..\wpa_supplicant\src\utils/common.h **** #include <endian.h>
  16:..\..\..\..\wpa_supplicant\src\utils/common.h **** #include <byteswap.h>
  17:..\..\..\..\wpa_supplicant\src\utils/common.h **** #endif /* __linux__ */
  18:..\..\..\..\wpa_supplicant\src\utils/common.h **** 
  19:..\..\..\..\wpa_supplicant\src\utils/common.h **** #if defined(__FreeBSD__) || defined(__NetBSD__) || defined(__DragonFly__) || \
  20:..\..\..\..\wpa_supplicant\src\utils/common.h ****     defined(__OpenBSD__)
  21:..\..\..\..\wpa_supplicant\src\utils/common.h **** #include <sys/types.h>
  22:..\..\..\..\wpa_supplicant\src\utils/common.h **** #include <sys/endian.h>
  23:..\..\..\..\wpa_supplicant\src\utils/common.h **** #define __BYTE_ORDER	_BYTE_ORDER
  24:..\..\..\..\wpa_supplicant\src\utils/common.h **** #define	__LITTLE_ENDIAN	_LITTLE_ENDIAN
  25:..\..\..\..\wpa_supplicant\src\utils/common.h **** #define	__BIG_ENDIAN	_BIG_ENDIAN
  26:..\..\..\..\wpa_supplicant\src\utils/common.h **** #ifdef __OpenBSD__
  27:..\..\..\..\wpa_supplicant\src\utils/common.h **** #define bswap_16 swap16
  28:..\..\..\..\wpa_supplicant\src\utils/common.h **** #define bswap_32 swap32
  29:..\..\..\..\wpa_supplicant\src\utils/common.h **** #define bswap_64 swap64
  30:..\..\..\..\wpa_supplicant\src\utils/common.h **** #else /* __OpenBSD__ */
  31:..\..\..\..\wpa_supplicant\src\utils/common.h **** #define bswap_16 bswap16
  32:..\..\..\..\wpa_supplicant\src\utils/common.h **** #define bswap_32 bswap32
  33:..\..\..\..\wpa_supplicant\src\utils/common.h **** #define bswap_64 bswap64
  34:..\..\..\..\wpa_supplicant\src\utils/common.h **** #endif /* __OpenBSD__ */
  35:..\..\..\..\wpa_supplicant\src\utils/common.h **** #endif /* defined(__FreeBSD__) || defined(__NetBSD__) ||
  36:..\..\..\..\wpa_supplicant\src\utils/common.h **** 	* defined(__DragonFly__) || defined(__OpenBSD__) */
  37:..\..\..\..\wpa_supplicant\src\utils/common.h **** 
  38:..\..\..\..\wpa_supplicant\src\utils/common.h **** #ifdef __APPLE__
  39:..\..\..\..\wpa_supplicant\src\utils/common.h **** #include <sys/types.h>
  40:..\..\..\..\wpa_supplicant\src\utils/common.h **** #include <machine/endian.h>
  41:..\..\..\..\wpa_supplicant\src\utils/common.h **** #define __BYTE_ORDER	_BYTE_ORDER
  42:..\..\..\..\wpa_supplicant\src\utils/common.h **** #define __LITTLE_ENDIAN	_LITTLE_ENDIAN
  43:..\..\..\..\wpa_supplicant\src\utils/common.h **** #define __BIG_ENDIAN	_BIG_ENDIAN
  44:..\..\..\..\wpa_supplicant\src\utils/common.h **** static inline unsigned short bswap_16(unsigned short v)
  45:..\..\..\..\wpa_supplicant\src\utils/common.h **** {
  46:..\..\..\..\wpa_supplicant\src\utils/common.h **** 	return ((v & 0xff) << 8) | (v >> 8);
  47:..\..\..\..\wpa_supplicant\src\utils/common.h **** }
  48:..\..\..\..\wpa_supplicant\src\utils/common.h **** 
  49:..\..\..\..\wpa_supplicant\src\utils/common.h **** static inline unsigned int bswap_32(unsigned int v)
  50:..\..\..\..\wpa_supplicant\src\utils/common.h **** {
  51:..\..\..\..\wpa_supplicant\src\utils/common.h **** 	return ((v & 0xff) << 24) | ((v & 0xff00) << 8) |
  52:..\..\..\..\wpa_supplicant\src\utils/common.h **** 		((v & 0xff0000) >> 8) | (v >> 24);
  53:..\..\..\..\wpa_supplicant\src\utils/common.h **** }
  54:..\..\..\..\wpa_supplicant\src\utils/common.h **** #endif /* __APPLE__ */
  55:..\..\..\..\wpa_supplicant\src\utils/common.h **** 
  56:..\..\..\..\wpa_supplicant\src\utils/common.h **** #ifdef CONFIG_GDWIFI
  57:..\..\..\..\wpa_supplicant\src\utils/common.h **** // #include <sys/types.h>
  58:..\..\..\..\wpa_supplicant\src\utils/common.h **** // #include <machine/endian.h>
  59:..\..\..\..\wpa_supplicant\src\utils/common.h **** #define __BYTE_ORDER	BYTE_ORDER
  60:..\..\..\..\wpa_supplicant\src\utils/common.h **** #define __LITTLE_ENDIAN	LITTLE_ENDIAN
  61:..\..\..\..\wpa_supplicant\src\utils/common.h **** #define __BIG_ENDIAN	BIG_ENDIAN
  62:..\..\..\..\wpa_supplicant\src\utils/common.h **** #define ETHER_ADDR_LEN	6
  63:..\..\..\..\wpa_supplicant\src\utils/common.h **** #define ETH_P_802_3	0x0001		/* Dummy type for 802.3 frames  */
  64:..\..\..\..\wpa_supplicant\src\utils/common.h **** 
  65:..\..\..\..\wpa_supplicant\src\utils/common.h **** static inline unsigned short bswap_16(unsigned short v)
  66:..\..\..\..\wpa_supplicant\src\utils/common.h **** {
  67:..\..\..\..\wpa_supplicant\src\utils/common.h **** 	return ((v & 0xff) << 8) | (v >> 8);
  68:..\..\..\..\wpa_supplicant\src\utils/common.h **** }
  69:..\..\..\..\wpa_supplicant\src\utils/common.h **** 
  70:..\..\..\..\wpa_supplicant\src\utils/common.h **** static inline unsigned int bswap_32(unsigned int v)
  71:..\..\..\..\wpa_supplicant\src\utils/common.h **** {
  72:..\..\..\..\wpa_supplicant\src\utils/common.h **** 	return ((v & 0xff) << 24) | ((v & 0xff00) << 8) |
  73:..\..\..\..\wpa_supplicant\src\utils/common.h **** 		((v & 0xff0000) >> 8) | (v >> 24);
  74:..\..\..\..\wpa_supplicant\src\utils/common.h **** }
  75:..\..\..\..\wpa_supplicant\src\utils/common.h **** 
  76:..\..\..\..\wpa_supplicant\src\utils/common.h **** struct ether_header
  77:..\..\..\..\wpa_supplicant\src\utils/common.h **** {
  78:..\..\..\..\wpa_supplicant\src\utils/common.h **** 	uint8_t  ether_dhost[ETHER_ADDR_LEN];
  79:..\..\..\..\wpa_supplicant\src\utils/common.h **** 	uint8_t  ether_shost[ETHER_ADDR_LEN];
  80:..\..\..\..\wpa_supplicant\src\utils/common.h **** 	uint16_t ether_type;
  81:..\..\..\..\wpa_supplicant\src\utils/common.h **** } __PACKED;
  82:..\..\..\..\wpa_supplicant\src\utils/common.h **** #endif /* CONFIG_GDWIFI */
  83:..\..\..\..\wpa_supplicant\src\utils/common.h **** #ifdef __rtems__
  84:..\..\..\..\wpa_supplicant\src\utils/common.h **** #include <rtems/endian.h>
  85:..\..\..\..\wpa_supplicant\src\utils/common.h **** #define __BYTE_ORDER BYTE_ORDER
  86:..\..\..\..\wpa_supplicant\src\utils/common.h **** #define __LITTLE_ENDIAN LITTLE_ENDIAN
  87:..\..\..\..\wpa_supplicant\src\utils/common.h **** #define __BIG_ENDIAN BIG_ENDIAN
  88:..\..\..\..\wpa_supplicant\src\utils/common.h **** #define bswap_16 CPU_swap_u16
  89:..\..\..\..\wpa_supplicant\src\utils/common.h **** #define bswap_32 CPU_swap_u32
  90:..\..\..\..\wpa_supplicant\src\utils/common.h **** #endif /* __rtems__ */
  91:..\..\..\..\wpa_supplicant\src\utils/common.h **** 
  92:..\..\..\..\wpa_supplicant\src\utils/common.h **** #ifdef CONFIG_NATIVE_WINDOWS
  93:..\..\..\..\wpa_supplicant\src\utils/common.h **** #include <winsock.h>
  94:..\..\..\..\wpa_supplicant\src\utils/common.h **** 
  95:..\..\..\..\wpa_supplicant\src\utils/common.h **** typedef int socklen_t;
  96:..\..\..\..\wpa_supplicant\src\utils/common.h **** 
  97:..\..\..\..\wpa_supplicant\src\utils/common.h **** #ifndef MSG_DONTWAIT
  98:..\..\..\..\wpa_supplicant\src\utils/common.h **** #define MSG_DONTWAIT 0 /* not supported */
  99:..\..\..\..\wpa_supplicant\src\utils/common.h **** #endif
 100:..\..\..\..\wpa_supplicant\src\utils/common.h **** 
 101:..\..\..\..\wpa_supplicant\src\utils/common.h **** #endif /* CONFIG_NATIVE_WINDOWS */
 102:..\..\..\..\wpa_supplicant\src\utils/common.h **** 
 103:..\..\..\..\wpa_supplicant\src\utils/common.h **** #ifdef _MSC_VER
 104:..\..\..\..\wpa_supplicant\src\utils/common.h **** #define inline __inline
 105:..\..\..\..\wpa_supplicant\src\utils/common.h **** 
 106:..\..\..\..\wpa_supplicant\src\utils/common.h **** #undef vsnprintf
 107:..\..\..\..\wpa_supplicant\src\utils/common.h **** #define vsnprintf _vsnprintf
 108:..\..\..\..\wpa_supplicant\src\utils/common.h **** #undef close
 109:..\..\..\..\wpa_supplicant\src\utils/common.h **** #define close closesocket
 110:..\..\..\..\wpa_supplicant\src\utils/common.h **** #endif /* _MSC_VER */
 111:..\..\..\..\wpa_supplicant\src\utils/common.h **** 
 112:..\..\..\..\wpa_supplicant\src\utils/common.h **** 
 113:..\..\..\..\wpa_supplicant\src\utils/common.h **** /* Define platform specific integer types */
 114:..\..\..\..\wpa_supplicant\src\utils/common.h **** 
 115:..\..\..\..\wpa_supplicant\src\utils/common.h **** #ifdef _MSC_VER
 116:..\..\..\..\wpa_supplicant\src\utils/common.h **** typedef UINT64 u64;
 117:..\..\..\..\wpa_supplicant\src\utils/common.h **** typedef UINT32 u32;
 118:..\..\..\..\wpa_supplicant\src\utils/common.h **** typedef UINT16 u16;
 119:..\..\..\..\wpa_supplicant\src\utils/common.h **** typedef UINT8 u8;
 120:..\..\..\..\wpa_supplicant\src\utils/common.h **** typedef INT64 s64;
 121:..\..\..\..\wpa_supplicant\src\utils/common.h **** typedef INT32 s32;
 122:..\..\..\..\wpa_supplicant\src\utils/common.h **** typedef INT16 s16;
 123:..\..\..\..\wpa_supplicant\src\utils/common.h **** typedef INT8 s8;
 124:..\..\..\..\wpa_supplicant\src\utils/common.h **** #define WPA_TYPES_DEFINED
 125:..\..\..\..\wpa_supplicant\src\utils/common.h **** #endif /* _MSC_VER */
 126:..\..\..\..\wpa_supplicant\src\utils/common.h **** 
 127:..\..\..\..\wpa_supplicant\src\utils/common.h **** #ifdef __vxworks
 128:..\..\..\..\wpa_supplicant\src\utils/common.h **** typedef unsigned long long u64;
 129:..\..\..\..\wpa_supplicant\src\utils/common.h **** typedef UINT32 u32;
 130:..\..\..\..\wpa_supplicant\src\utils/common.h **** typedef UINT16 u16;
 131:..\..\..\..\wpa_supplicant\src\utils/common.h **** typedef UINT8 u8;
 132:..\..\..\..\wpa_supplicant\src\utils/common.h **** typedef long long s64;
 133:..\..\..\..\wpa_supplicant\src\utils/common.h **** typedef INT32 s32;
 134:..\..\..\..\wpa_supplicant\src\utils/common.h **** typedef INT16 s16;
 135:..\..\..\..\wpa_supplicant\src\utils/common.h **** typedef INT8 s8;
 136:..\..\..\..\wpa_supplicant\src\utils/common.h **** #define WPA_TYPES_DEFINED
 137:..\..\..\..\wpa_supplicant\src\utils/common.h **** #endif /* __vxworks */
 138:..\..\..\..\wpa_supplicant\src\utils/common.h **** 
 139:..\..\..\..\wpa_supplicant\src\utils/common.h **** #ifndef WPA_TYPES_DEFINED
 140:..\..\..\..\wpa_supplicant\src\utils/common.h **** #ifdef CONFIG_USE_INTTYPES_H
 141:..\..\..\..\wpa_supplicant\src\utils/common.h **** #include <inttypes.h>
 142:..\..\..\..\wpa_supplicant\src\utils/common.h **** #else
 143:..\..\..\..\wpa_supplicant\src\utils/common.h **** #include <stdint.h>
 144:..\..\..\..\wpa_supplicant\src\utils/common.h **** #endif
 145:..\..\..\..\wpa_supplicant\src\utils/common.h **** typedef uint64_t u64;
 146:..\..\..\..\wpa_supplicant\src\utils/common.h **** typedef uint32_t u32;
 147:..\..\..\..\wpa_supplicant\src\utils/common.h **** typedef uint16_t u16;
 148:..\..\..\..\wpa_supplicant\src\utils/common.h **** typedef uint8_t u8;
 149:..\..\..\..\wpa_supplicant\src\utils/common.h **** typedef int64_t s64;
 150:..\..\..\..\wpa_supplicant\src\utils/common.h **** typedef int32_t s32;
 151:..\..\..\..\wpa_supplicant\src\utils/common.h **** typedef int16_t s16;
 152:..\..\..\..\wpa_supplicant\src\utils/common.h **** typedef int8_t s8;
 153:..\..\..\..\wpa_supplicant\src\utils/common.h **** #define WPA_TYPES_DEFINED
 154:..\..\..\..\wpa_supplicant\src\utils/common.h **** #endif /* !WPA_TYPES_DEFINED */
 155:..\..\..\..\wpa_supplicant\src\utils/common.h **** 
 156:..\..\..\..\wpa_supplicant\src\utils/common.h **** 
 157:..\..\..\..\wpa_supplicant\src\utils/common.h **** /* Define platform specific byte swapping macros */
 158:..\..\..\..\wpa_supplicant\src\utils/common.h **** 
 159:..\..\..\..\wpa_supplicant\src\utils/common.h **** #if defined(__CYGWIN__) || defined(CONFIG_NATIVE_WINDOWS)
 160:..\..\..\..\wpa_supplicant\src\utils/common.h **** 
 161:..\..\..\..\wpa_supplicant\src\utils/common.h **** static inline unsigned short wpa_swap_16(unsigned short v)
 162:..\..\..\..\wpa_supplicant\src\utils/common.h **** {
 163:..\..\..\..\wpa_supplicant\src\utils/common.h **** 	return ((v & 0xff) << 8) | (v >> 8);
 164:..\..\..\..\wpa_supplicant\src\utils/common.h **** }
 165:..\..\..\..\wpa_supplicant\src\utils/common.h **** 
 166:..\..\..\..\wpa_supplicant\src\utils/common.h **** static inline unsigned int wpa_swap_32(unsigned int v)
 167:..\..\..\..\wpa_supplicant\src\utils/common.h **** {
 168:..\..\..\..\wpa_supplicant\src\utils/common.h **** 	return ((v & 0xff) << 24) | ((v & 0xff00) << 8) |
 169:..\..\..\..\wpa_supplicant\src\utils/common.h **** 		((v & 0xff0000) >> 8) | (v >> 24);
 170:..\..\..\..\wpa_supplicant\src\utils/common.h **** }
 171:..\..\..\..\wpa_supplicant\src\utils/common.h **** 
 172:..\..\..\..\wpa_supplicant\src\utils/common.h **** #define le_to_host16(n) (n)
 173:..\..\..\..\wpa_supplicant\src\utils/common.h **** #define host_to_le16(n) (n)
 174:..\..\..\..\wpa_supplicant\src\utils/common.h **** #define be_to_host16(n) wpa_swap_16(n)
 175:..\..\..\..\wpa_supplicant\src\utils/common.h **** #define host_to_be16(n) wpa_swap_16(n)
 176:..\..\..\..\wpa_supplicant\src\utils/common.h **** #define le_to_host32(n) (n)
 177:..\..\..\..\wpa_supplicant\src\utils/common.h **** #define host_to_le32(n) (n)
 178:..\..\..\..\wpa_supplicant\src\utils/common.h **** #define be_to_host32(n) wpa_swap_32(n)
 179:..\..\..\..\wpa_supplicant\src\utils/common.h **** #define host_to_be32(n) wpa_swap_32(n)
 180:..\..\..\..\wpa_supplicant\src\utils/common.h **** #define host_to_le64(n) (n)
 181:..\..\..\..\wpa_supplicant\src\utils/common.h **** 
 182:..\..\..\..\wpa_supplicant\src\utils/common.h **** #define WPA_BYTE_SWAP_DEFINED
 183:..\..\..\..\wpa_supplicant\src\utils/common.h **** 
 184:..\..\..\..\wpa_supplicant\src\utils/common.h **** #endif /* __CYGWIN__ || CONFIG_NATIVE_WINDOWS */
 185:..\..\..\..\wpa_supplicant\src\utils/common.h **** 
 186:..\..\..\..\wpa_supplicant\src\utils/common.h **** 
 187:..\..\..\..\wpa_supplicant\src\utils/common.h **** #ifndef WPA_BYTE_SWAP_DEFINED
 188:..\..\..\..\wpa_supplicant\src\utils/common.h **** 
 189:..\..\..\..\wpa_supplicant\src\utils/common.h **** #ifndef __BYTE_ORDER
 190:..\..\..\..\wpa_supplicant\src\utils/common.h **** #ifndef __LITTLE_ENDIAN
 191:..\..\..\..\wpa_supplicant\src\utils/common.h **** #ifndef __BIG_ENDIAN
 192:..\..\..\..\wpa_supplicant\src\utils/common.h **** #define __LITTLE_ENDIAN 1234
 193:..\..\..\..\wpa_supplicant\src\utils/common.h **** #define __BIG_ENDIAN 4321
 194:..\..\..\..\wpa_supplicant\src\utils/common.h **** #if defined(sparc)
 195:..\..\..\..\wpa_supplicant\src\utils/common.h **** #define __BYTE_ORDER __BIG_ENDIAN
 196:..\..\..\..\wpa_supplicant\src\utils/common.h **** #endif
 197:..\..\..\..\wpa_supplicant\src\utils/common.h **** #endif /* __BIG_ENDIAN */
 198:..\..\..\..\wpa_supplicant\src\utils/common.h **** #endif /* __LITTLE_ENDIAN */
 199:..\..\..\..\wpa_supplicant\src\utils/common.h **** #endif /* __BYTE_ORDER */
 200:..\..\..\..\wpa_supplicant\src\utils/common.h **** 
 201:..\..\..\..\wpa_supplicant\src\utils/common.h **** #if __BYTE_ORDER == __LITTLE_ENDIAN
 202:..\..\..\..\wpa_supplicant\src\utils/common.h **** #define le_to_host16(n) ((__force u16) (le16) (n))
 203:..\..\..\..\wpa_supplicant\src\utils/common.h **** #define host_to_le16(n) ((__force le16) (u16) (n))
 204:..\..\..\..\wpa_supplicant\src\utils/common.h **** #define be_to_host16(n) bswap_16((__force u16) (be16) (n))
 205:..\..\..\..\wpa_supplicant\src\utils/common.h **** #define host_to_be16(n) ((__force be16) bswap_16((n)))
 206:..\..\..\..\wpa_supplicant\src\utils/common.h **** #define le_to_host32(n) ((__force u32) (le32) (n))
 207:..\..\..\..\wpa_supplicant\src\utils/common.h **** #define host_to_le32(n) ((__force le32) (u32) (n))
 208:..\..\..\..\wpa_supplicant\src\utils/common.h **** #define be_to_host32(n) bswap_32((__force u32) (be32) (n))
 209:..\..\..\..\wpa_supplicant\src\utils/common.h **** #define host_to_be32(n) ((__force be32) bswap_32((n)))
 210:..\..\..\..\wpa_supplicant\src\utils/common.h **** #define le_to_host64(n) ((__force u64) (le64) (n))
 211:..\..\..\..\wpa_supplicant\src\utils/common.h **** #define host_to_le64(n) ((__force le64) (u64) (n))
 212:..\..\..\..\wpa_supplicant\src\utils/common.h **** #define be_to_host64(n) bswap_64((__force u64) (be64) (n))
 213:..\..\..\..\wpa_supplicant\src\utils/common.h **** #define host_to_be64(n) ((__force be64) bswap_64((n)))
 214:..\..\..\..\wpa_supplicant\src\utils/common.h **** #elif __BYTE_ORDER == __BIG_ENDIAN
 215:..\..\..\..\wpa_supplicant\src\utils/common.h **** #define le_to_host16(n) bswap_16(n)
 216:..\..\..\..\wpa_supplicant\src\utils/common.h **** #define host_to_le16(n) bswap_16(n)
 217:..\..\..\..\wpa_supplicant\src\utils/common.h **** #define be_to_host16(n) (n)
 218:..\..\..\..\wpa_supplicant\src\utils/common.h **** #define host_to_be16(n) (n)
 219:..\..\..\..\wpa_supplicant\src\utils/common.h **** #define le_to_host32(n) bswap_32(n)
 220:..\..\..\..\wpa_supplicant\src\utils/common.h **** #define host_to_le32(n) bswap_32(n)
 221:..\..\..\..\wpa_supplicant\src\utils/common.h **** #define be_to_host32(n) (n)
 222:..\..\..\..\wpa_supplicant\src\utils/common.h **** #define host_to_be32(n) (n)
 223:..\..\..\..\wpa_supplicant\src\utils/common.h **** #define le_to_host64(n) bswap_64(n)
 224:..\..\..\..\wpa_supplicant\src\utils/common.h **** #define host_to_le64(n) bswap_64(n)
 225:..\..\..\..\wpa_supplicant\src\utils/common.h **** #define be_to_host64(n) (n)
 226:..\..\..\..\wpa_supplicant\src\utils/common.h **** #define host_to_be64(n) (n)
 227:..\..\..\..\wpa_supplicant\src\utils/common.h **** #ifndef WORDS_BIGENDIAN
 228:..\..\..\..\wpa_supplicant\src\utils/common.h **** #define WORDS_BIGENDIAN
 229:..\..\..\..\wpa_supplicant\src\utils/common.h **** #endif
 230:..\..\..\..\wpa_supplicant\src\utils/common.h **** #else
 231:..\..\..\..\wpa_supplicant\src\utils/common.h **** #error Could not determine CPU byte order
 232:..\..\..\..\wpa_supplicant\src\utils/common.h **** #endif
 233:..\..\..\..\wpa_supplicant\src\utils/common.h **** 
 234:..\..\..\..\wpa_supplicant\src\utils/common.h **** #define WPA_BYTE_SWAP_DEFINED
 235:..\..\..\..\wpa_supplicant\src\utils/common.h **** #endif /* !WPA_BYTE_SWAP_DEFINED */
 236:..\..\..\..\wpa_supplicant\src\utils/common.h **** 
 237:..\..\..\..\wpa_supplicant\src\utils/common.h **** 
 238:..\..\..\..\wpa_supplicant\src\utils/common.h **** /* Macros for handling unaligned memory accesses */
 239:..\..\..\..\wpa_supplicant\src\utils/common.h **** 
 240:..\..\..\..\wpa_supplicant\src\utils/common.h **** static inline u16 WPA_GET_BE16(const u8 *a)
 241:..\..\..\..\wpa_supplicant\src\utils/common.h **** {
 242:..\..\..\..\wpa_supplicant\src\utils/common.h **** 	return (a[0] << 8) | a[1];
 243:..\..\..\..\wpa_supplicant\src\utils/common.h **** }
 244:..\..\..\..\wpa_supplicant\src\utils/common.h **** 
 245:..\..\..\..\wpa_supplicant\src\utils/common.h **** static inline void WPA_PUT_BE16(u8 *a, u16 val)
 246:..\..\..\..\wpa_supplicant\src\utils/common.h **** {
 247:..\..\..\..\wpa_supplicant\src\utils/common.h **** 	a[0] = val >> 8;
 248:..\..\..\..\wpa_supplicant\src\utils/common.h **** 	a[1] = val & 0xff;
 249:..\..\..\..\wpa_supplicant\src\utils/common.h **** }
 250:..\..\..\..\wpa_supplicant\src\utils/common.h **** 
 251:..\..\..\..\wpa_supplicant\src\utils/common.h **** static inline u16 WPA_GET_LE16(const u8 *a)
 252:..\..\..\..\wpa_supplicant\src\utils/common.h **** {
 253:..\..\..\..\wpa_supplicant\src\utils/common.h **** 	return (a[1] << 8) | a[0];
 254:..\..\..\..\wpa_supplicant\src\utils/common.h **** }
 255:..\..\..\..\wpa_supplicant\src\utils/common.h **** 
 256:..\..\..\..\wpa_supplicant\src\utils/common.h **** static inline void WPA_PUT_LE16(u8 *a, u16 val)
 257:..\..\..\..\wpa_supplicant\src\utils/common.h **** {
 258:..\..\..\..\wpa_supplicant\src\utils/common.h **** 	a[1] = val >> 8;
 259:..\..\..\..\wpa_supplicant\src\utils/common.h **** 	a[0] = val & 0xff;
 260:..\..\..\..\wpa_supplicant\src\utils/common.h **** }
 261:..\..\..\..\wpa_supplicant\src\utils/common.h **** 
 262:..\..\..\..\wpa_supplicant\src\utils/common.h **** static inline u32 WPA_GET_BE24(const u8 *a)
 263:..\..\..\..\wpa_supplicant\src\utils/common.h **** {
 264:..\..\..\..\wpa_supplicant\src\utils/common.h **** 	return (a[0] << 16) | (a[1] << 8) | a[2];
 265:..\..\..\..\wpa_supplicant\src\utils/common.h **** }
 266:..\..\..\..\wpa_supplicant\src\utils/common.h **** 
 267:..\..\..\..\wpa_supplicant\src\utils/common.h **** static inline void WPA_PUT_BE24(u8 *a, u32 val)
 268:..\..\..\..\wpa_supplicant\src\utils/common.h **** {
 269:..\..\..\..\wpa_supplicant\src\utils/common.h **** 	a[0] = (val >> 16) & 0xff;
 270:..\..\..\..\wpa_supplicant\src\utils/common.h **** 	a[1] = (val >> 8) & 0xff;
 271:..\..\..\..\wpa_supplicant\src\utils/common.h **** 	a[2] = val & 0xff;
 272:..\..\..\..\wpa_supplicant\src\utils/common.h **** }
 273:..\..\..\..\wpa_supplicant\src\utils/common.h **** 
 274:..\..\..\..\wpa_supplicant\src\utils/common.h **** static inline u32 WPA_GET_BE32(const u8 *a)
 275:..\..\..\..\wpa_supplicant\src\utils/common.h **** {
  15              		.loc 1 275 1
  16              		.cfi_startproc
  17              	.LVL0:
 276:..\..\..\..\wpa_supplicant\src\utils/common.h **** 	return ((u32) a[0] << 24) | (a[1] << 16) | (a[2] << 8) | a[3];
  18              		.loc 1 276 2
  19 0000 83471500 		lbu	a5,1(a0)
  20 0004 03470500 		lbu	a4,0(a0)
  21 0008 A207     		slli	a5,a5,8
  22 000a 5D8F     		or	a4,a5,a4
  23 000c 83472500 		lbu	a5,2(a0)
  24 0010 03453500 		lbu	a0,3(a0)
  25              	.LVL1:
  26 0014 C207     		slli	a5,a5,16
  27 0016 D98F     		or	a5,a5,a4
  28 0018 6205     		slli	a0,a0,24
  29 001a 5D8D     		or	a0,a0,a5
 277:..\..\..\..\wpa_supplicant\src\utils/common.h **** }
  30              		.loc 1 277 1 is_stmt 0
  31 001c 13558569 		rev8	a0,a0
  32 0020 8280     		ret
  33              		.cfi_endproc
  34              	.LFE34:
  36              		.section	.text.WPA_PUT_BE32,"ax",@progbits
  37              		.align	1
  39              	WPA_PUT_BE32:
  40              	.LFB35:
 278:..\..\..\..\wpa_supplicant\src\utils/common.h **** 
 279:..\..\..\..\wpa_supplicant\src\utils/common.h **** static inline void WPA_PUT_BE32(u8 *a, u32 val)
 280:..\..\..\..\wpa_supplicant\src\utils/common.h **** {
  41              		.loc 1 280 1 is_stmt 1
  42              		.cfi_startproc
  43              	.LVL2:
 281:..\..\..\..\wpa_supplicant\src\utils/common.h **** 	a[0] = (val >> 24) & 0xff;
  44              		.loc 1 281 2
  45              		.loc 1 281 14 is_stmt 0
  46 0000 93D78501 		srli	a5,a1,24
  47              		.loc 1 281 7
  48 0004 2300F500 		sb	a5,0(a0)
 282:..\..\..\..\wpa_supplicant\src\utils/common.h **** 	a[1] = (val >> 16) & 0xff;
  49              		.loc 1 282 2 is_stmt 1
  50              		.loc 1 282 14 is_stmt 0
  51 0008 93D70501 		srli	a5,a1,16
  52              		.loc 1 282 7
  53 000c A300F500 		sb	a5,1(a0)
 283:..\..\..\..\wpa_supplicant\src\utils/common.h **** 	a[2] = (val >> 8) & 0xff;
  54              		.loc 1 283 2 is_stmt 1
  55              		.loc 1 283 14 is_stmt 0
  56 0010 93D78500 		srli	a5,a1,8
  57              		.loc 1 283 7
  58 0014 2301F500 		sb	a5,2(a0)
 284:..\..\..\..\wpa_supplicant\src\utils/common.h **** 	a[3] = val & 0xff;
  59              		.loc 1 284 2 is_stmt 1
  60              		.loc 1 284 7 is_stmt 0
  61 0018 A301B500 		sb	a1,3(a0)
 285:..\..\..\..\wpa_supplicant\src\utils/common.h **** }
  62              		.loc 1 285 1
  63 001c 8280     		ret
  64              		.cfi_endproc
  65              	.LFE35:
  67              		.section	.text.desfunc,"ax",@progbits
  68              		.align	1
  70              	desfunc:
  71              	.LFB73:
  72              		.file 2 "C:/Users/stapi/OneDrive/Desktop/GD32VW553/V1_MQTT_OK/GD32VW55X_Wifi_BLE_SDK/GD32VW55x_REL
   1:C:/Users/stapi/OneDrive/Desktop/GD32VW553/V1_MQTT_OK/GD32VW55X_Wifi_BLE_SDK/GD32VW55x_RELEASE_V1.0.2/MSDK/wpa_supplicant/src/crypto\des-internal.c **** /*
   2:C:/Users/stapi/OneDrive/Desktop/GD32VW553/V1_MQTT_OK/GD32VW55X_Wifi_BLE_SDK/GD32VW55x_RELEASE_V1.0.2/MSDK/wpa_supplicant/src/crypto\des-internal.c ****  * DES and 3DES-EDE ciphers
   3:C:/Users/stapi/OneDrive/Desktop/GD32VW553/V1_MQTT_OK/GD32VW55X_Wifi_BLE_SDK/GD32VW55x_RELEASE_V1.0.2/MSDK/wpa_supplicant/src/crypto\des-internal.c ****  *
   4:C:/Users/stapi/OneDrive/Desktop/GD32VW553/V1_MQTT_OK/GD32VW55X_Wifi_BLE_SDK/GD32VW55x_RELEASE_V1.0.2/MSDK/wpa_supplicant/src/crypto\des-internal.c ****  * Modifications to LibTomCrypt implementation:
   5:C:/Users/stapi/OneDrive/Desktop/GD32VW553/V1_MQTT_OK/GD32VW55X_Wifi_BLE_SDK/GD32VW55x_RELEASE_V1.0.2/MSDK/wpa_supplicant/src/crypto\des-internal.c ****  * Copyright (c) 2006-2009, Jouni Malinen <j@w1.fi>
   6:C:/Users/stapi/OneDrive/Desktop/GD32VW553/V1_MQTT_OK/GD32VW55X_Wifi_BLE_SDK/GD32VW55x_RELEASE_V1.0.2/MSDK/wpa_supplicant/src/crypto\des-internal.c ****  *
   7:C:/Users/stapi/OneDrive/Desktop/GD32VW553/V1_MQTT_OK/GD32VW55X_Wifi_BLE_SDK/GD32VW55x_RELEASE_V1.0.2/MSDK/wpa_supplicant/src/crypto\des-internal.c ****  * This software may be distributed under the terms of the BSD license.
   8:C:/Users/stapi/OneDrive/Desktop/GD32VW553/V1_MQTT_OK/GD32VW55X_Wifi_BLE_SDK/GD32VW55x_RELEASE_V1.0.2/MSDK/wpa_supplicant/src/crypto\des-internal.c ****  * See README for more details.
   9:C:/Users/stapi/OneDrive/Desktop/GD32VW553/V1_MQTT_OK/GD32VW55X_Wifi_BLE_SDK/GD32VW55x_RELEASE_V1.0.2/MSDK/wpa_supplicant/src/crypto\des-internal.c ****  */
  10:C:/Users/stapi/OneDrive/Desktop/GD32VW553/V1_MQTT_OK/GD32VW55X_Wifi_BLE_SDK/GD32VW55x_RELEASE_V1.0.2/MSDK/wpa_supplicant/src/crypto\des-internal.c **** 
  11:C:/Users/stapi/OneDrive/Desktop/GD32VW553/V1_MQTT_OK/GD32VW55X_Wifi_BLE_SDK/GD32VW55x_RELEASE_V1.0.2/MSDK/wpa_supplicant/src/crypto\des-internal.c **** #include "includes.h"
  12:C:/Users/stapi/OneDrive/Desktop/GD32VW553/V1_MQTT_OK/GD32VW55X_Wifi_BLE_SDK/GD32VW55x_RELEASE_V1.0.2/MSDK/wpa_supplicant/src/crypto\des-internal.c **** 
  13:C:/Users/stapi/OneDrive/Desktop/GD32VW553/V1_MQTT_OK/GD32VW55X_Wifi_BLE_SDK/GD32VW55x_RELEASE_V1.0.2/MSDK/wpa_supplicant/src/crypto\des-internal.c **** #include "common.h"
  14:C:/Users/stapi/OneDrive/Desktop/GD32VW553/V1_MQTT_OK/GD32VW55X_Wifi_BLE_SDK/GD32VW55x_RELEASE_V1.0.2/MSDK/wpa_supplicant/src/crypto\des-internal.c **** #include "crypto.h"
  15:C:/Users/stapi/OneDrive/Desktop/GD32VW553/V1_MQTT_OK/GD32VW55X_Wifi_BLE_SDK/GD32VW55x_RELEASE_V1.0.2/MSDK/wpa_supplicant/src/crypto\des-internal.c **** #include "des_i.h"
  16:C:/Users/stapi/OneDrive/Desktop/GD32VW553/V1_MQTT_OK/GD32VW55X_Wifi_BLE_SDK/GD32VW55x_RELEASE_V1.0.2/MSDK/wpa_supplicant/src/crypto\des-internal.c **** 
  17:C:/Users/stapi/OneDrive/Desktop/GD32VW553/V1_MQTT_OK/GD32VW55X_Wifi_BLE_SDK/GD32VW55x_RELEASE_V1.0.2/MSDK/wpa_supplicant/src/crypto\des-internal.c **** /*
  18:C:/Users/stapi/OneDrive/Desktop/GD32VW553/V1_MQTT_OK/GD32VW55X_Wifi_BLE_SDK/GD32VW55x_RELEASE_V1.0.2/MSDK/wpa_supplicant/src/crypto\des-internal.c ****  * This implementation is based on a DES implementation included in
  19:C:/Users/stapi/OneDrive/Desktop/GD32VW553/V1_MQTT_OK/GD32VW55X_Wifi_BLE_SDK/GD32VW55x_RELEASE_V1.0.2/MSDK/wpa_supplicant/src/crypto\des-internal.c ****  * LibTomCrypt. The version here is modified to fit in wpa_supplicant/hostapd
  20:C:/Users/stapi/OneDrive/Desktop/GD32VW553/V1_MQTT_OK/GD32VW55X_Wifi_BLE_SDK/GD32VW55x_RELEASE_V1.0.2/MSDK/wpa_supplicant/src/crypto\des-internal.c ****  * coding style.
  21:C:/Users/stapi/OneDrive/Desktop/GD32VW553/V1_MQTT_OK/GD32VW55X_Wifi_BLE_SDK/GD32VW55x_RELEASE_V1.0.2/MSDK/wpa_supplicant/src/crypto\des-internal.c ****  */
  22:C:/Users/stapi/OneDrive/Desktop/GD32VW553/V1_MQTT_OK/GD32VW55X_Wifi_BLE_SDK/GD32VW55x_RELEASE_V1.0.2/MSDK/wpa_supplicant/src/crypto\des-internal.c **** 
  23:C:/Users/stapi/OneDrive/Desktop/GD32VW553/V1_MQTT_OK/GD32VW55X_Wifi_BLE_SDK/GD32VW55x_RELEASE_V1.0.2/MSDK/wpa_supplicant/src/crypto\des-internal.c **** /* LibTomCrypt, modular cryptographic library -- Tom St Denis
  24:C:/Users/stapi/OneDrive/Desktop/GD32VW553/V1_MQTT_OK/GD32VW55X_Wifi_BLE_SDK/GD32VW55x_RELEASE_V1.0.2/MSDK/wpa_supplicant/src/crypto\des-internal.c ****  *
  25:C:/Users/stapi/OneDrive/Desktop/GD32VW553/V1_MQTT_OK/GD32VW55X_Wifi_BLE_SDK/GD32VW55x_RELEASE_V1.0.2/MSDK/wpa_supplicant/src/crypto\des-internal.c ****  * LibTomCrypt is a library that provides various cryptographic
  26:C:/Users/stapi/OneDrive/Desktop/GD32VW553/V1_MQTT_OK/GD32VW55X_Wifi_BLE_SDK/GD32VW55x_RELEASE_V1.0.2/MSDK/wpa_supplicant/src/crypto\des-internal.c ****  * algorithms in a highly modular and flexible manner.
  27:C:/Users/stapi/OneDrive/Desktop/GD32VW553/V1_MQTT_OK/GD32VW55X_Wifi_BLE_SDK/GD32VW55x_RELEASE_V1.0.2/MSDK/wpa_supplicant/src/crypto\des-internal.c ****  *
  28:C:/Users/stapi/OneDrive/Desktop/GD32VW553/V1_MQTT_OK/GD32VW55X_Wifi_BLE_SDK/GD32VW55x_RELEASE_V1.0.2/MSDK/wpa_supplicant/src/crypto\des-internal.c ****  * The library is free for all purposes without any express
  29:C:/Users/stapi/OneDrive/Desktop/GD32VW553/V1_MQTT_OK/GD32VW55X_Wifi_BLE_SDK/GD32VW55x_RELEASE_V1.0.2/MSDK/wpa_supplicant/src/crypto\des-internal.c ****  * guarantee it works.
  30:C:/Users/stapi/OneDrive/Desktop/GD32VW553/V1_MQTT_OK/GD32VW55X_Wifi_BLE_SDK/GD32VW55x_RELEASE_V1.0.2/MSDK/wpa_supplicant/src/crypto\des-internal.c ****  *
  31:C:/Users/stapi/OneDrive/Desktop/GD32VW553/V1_MQTT_OK/GD32VW55X_Wifi_BLE_SDK/GD32VW55x_RELEASE_V1.0.2/MSDK/wpa_supplicant/src/crypto\des-internal.c ****  * Tom St Denis, tomstdenis@gmail.com, http://libtomcrypt.com
  32:C:/Users/stapi/OneDrive/Desktop/GD32VW553/V1_MQTT_OK/GD32VW55X_Wifi_BLE_SDK/GD32VW55x_RELEASE_V1.0.2/MSDK/wpa_supplicant/src/crypto\des-internal.c ****  */
  33:C:/Users/stapi/OneDrive/Desktop/GD32VW553/V1_MQTT_OK/GD32VW55X_Wifi_BLE_SDK/GD32VW55x_RELEASE_V1.0.2/MSDK/wpa_supplicant/src/crypto\des-internal.c **** 
  34:C:/Users/stapi/OneDrive/Desktop/GD32VW553/V1_MQTT_OK/GD32VW55X_Wifi_BLE_SDK/GD32VW55x_RELEASE_V1.0.2/MSDK/wpa_supplicant/src/crypto\des-internal.c **** /**
  35:C:/Users/stapi/OneDrive/Desktop/GD32VW553/V1_MQTT_OK/GD32VW55X_Wifi_BLE_SDK/GD32VW55x_RELEASE_V1.0.2/MSDK/wpa_supplicant/src/crypto\des-internal.c ****   DES code submitted by Dobes Vandermeer
  36:C:/Users/stapi/OneDrive/Desktop/GD32VW553/V1_MQTT_OK/GD32VW55X_Wifi_BLE_SDK/GD32VW55x_RELEASE_V1.0.2/MSDK/wpa_supplicant/src/crypto\des-internal.c **** */
  37:C:/Users/stapi/OneDrive/Desktop/GD32VW553/V1_MQTT_OK/GD32VW55X_Wifi_BLE_SDK/GD32VW55x_RELEASE_V1.0.2/MSDK/wpa_supplicant/src/crypto\des-internal.c **** 
  38:C:/Users/stapi/OneDrive/Desktop/GD32VW553/V1_MQTT_OK/GD32VW55X_Wifi_BLE_SDK/GD32VW55x_RELEASE_V1.0.2/MSDK/wpa_supplicant/src/crypto\des-internal.c **** #define ROLc(x, y) \
  39:C:/Users/stapi/OneDrive/Desktop/GD32VW553/V1_MQTT_OK/GD32VW55X_Wifi_BLE_SDK/GD32VW55x_RELEASE_V1.0.2/MSDK/wpa_supplicant/src/crypto\des-internal.c **** 	((((unsigned long) (x) << (unsigned long) ((y) & 31)) | \
  40:C:/Users/stapi/OneDrive/Desktop/GD32VW553/V1_MQTT_OK/GD32VW55X_Wifi_BLE_SDK/GD32VW55x_RELEASE_V1.0.2/MSDK/wpa_supplicant/src/crypto\des-internal.c **** 	  (((unsigned long) (x) & 0xFFFFFFFFUL) >> \
  41:C:/Users/stapi/OneDrive/Desktop/GD32VW553/V1_MQTT_OK/GD32VW55X_Wifi_BLE_SDK/GD32VW55x_RELEASE_V1.0.2/MSDK/wpa_supplicant/src/crypto\des-internal.c **** 	   (unsigned long) (32 - ((y) & 31)))) & 0xFFFFFFFFUL)
  42:C:/Users/stapi/OneDrive/Desktop/GD32VW553/V1_MQTT_OK/GD32VW55X_Wifi_BLE_SDK/GD32VW55x_RELEASE_V1.0.2/MSDK/wpa_supplicant/src/crypto\des-internal.c **** #define RORc(x, y) \
  43:C:/Users/stapi/OneDrive/Desktop/GD32VW553/V1_MQTT_OK/GD32VW55X_Wifi_BLE_SDK/GD32VW55x_RELEASE_V1.0.2/MSDK/wpa_supplicant/src/crypto\des-internal.c **** 	(((((unsigned long) (x) & 0xFFFFFFFFUL) >> \
  44:C:/Users/stapi/OneDrive/Desktop/GD32VW553/V1_MQTT_OK/GD32VW55X_Wifi_BLE_SDK/GD32VW55x_RELEASE_V1.0.2/MSDK/wpa_supplicant/src/crypto\des-internal.c **** 	   (unsigned long) ((y) & 31)) | \
  45:C:/Users/stapi/OneDrive/Desktop/GD32VW553/V1_MQTT_OK/GD32VW55X_Wifi_BLE_SDK/GD32VW55x_RELEASE_V1.0.2/MSDK/wpa_supplicant/src/crypto\des-internal.c **** 	  ((unsigned long) (x) << (unsigned long) (32 - ((y) & 31)))) & \
  46:C:/Users/stapi/OneDrive/Desktop/GD32VW553/V1_MQTT_OK/GD32VW55X_Wifi_BLE_SDK/GD32VW55x_RELEASE_V1.0.2/MSDK/wpa_supplicant/src/crypto\des-internal.c **** 	 0xFFFFFFFFUL)
  47:C:/Users/stapi/OneDrive/Desktop/GD32VW553/V1_MQTT_OK/GD32VW55X_Wifi_BLE_SDK/GD32VW55x_RELEASE_V1.0.2/MSDK/wpa_supplicant/src/crypto\des-internal.c **** 
  48:C:/Users/stapi/OneDrive/Desktop/GD32VW553/V1_MQTT_OK/GD32VW55X_Wifi_BLE_SDK/GD32VW55x_RELEASE_V1.0.2/MSDK/wpa_supplicant/src/crypto\des-internal.c **** 
  49:C:/Users/stapi/OneDrive/Desktop/GD32VW553/V1_MQTT_OK/GD32VW55X_Wifi_BLE_SDK/GD32VW55x_RELEASE_V1.0.2/MSDK/wpa_supplicant/src/crypto\des-internal.c **** static const u32 bytebit[8] =
  50:C:/Users/stapi/OneDrive/Desktop/GD32VW553/V1_MQTT_OK/GD32VW55X_Wifi_BLE_SDK/GD32VW55x_RELEASE_V1.0.2/MSDK/wpa_supplicant/src/crypto\des-internal.c **** {
  51:C:/Users/stapi/OneDrive/Desktop/GD32VW553/V1_MQTT_OK/GD32VW55X_Wifi_BLE_SDK/GD32VW55x_RELEASE_V1.0.2/MSDK/wpa_supplicant/src/crypto\des-internal.c **** 	0200, 0100, 040, 020, 010, 04, 02, 01
  52:C:/Users/stapi/OneDrive/Desktop/GD32VW553/V1_MQTT_OK/GD32VW55X_Wifi_BLE_SDK/GD32VW55x_RELEASE_V1.0.2/MSDK/wpa_supplicant/src/crypto\des-internal.c **** };
  53:C:/Users/stapi/OneDrive/Desktop/GD32VW553/V1_MQTT_OK/GD32VW55X_Wifi_BLE_SDK/GD32VW55x_RELEASE_V1.0.2/MSDK/wpa_supplicant/src/crypto\des-internal.c **** 
  54:C:/Users/stapi/OneDrive/Desktop/GD32VW553/V1_MQTT_OK/GD32VW55X_Wifi_BLE_SDK/GD32VW55x_RELEASE_V1.0.2/MSDK/wpa_supplicant/src/crypto\des-internal.c **** static const u32 bigbyte[24] =
  55:C:/Users/stapi/OneDrive/Desktop/GD32VW553/V1_MQTT_OK/GD32VW55X_Wifi_BLE_SDK/GD32VW55x_RELEASE_V1.0.2/MSDK/wpa_supplicant/src/crypto\des-internal.c **** {
  56:C:/Users/stapi/OneDrive/Desktop/GD32VW553/V1_MQTT_OK/GD32VW55X_Wifi_BLE_SDK/GD32VW55x_RELEASE_V1.0.2/MSDK/wpa_supplicant/src/crypto\des-internal.c **** 	0x800000UL,  0x400000UL,  0x200000UL,  0x100000UL,
  57:C:/Users/stapi/OneDrive/Desktop/GD32VW553/V1_MQTT_OK/GD32VW55X_Wifi_BLE_SDK/GD32VW55x_RELEASE_V1.0.2/MSDK/wpa_supplicant/src/crypto\des-internal.c **** 	0x80000UL,   0x40000UL,   0x20000UL,   0x10000UL,
  58:C:/Users/stapi/OneDrive/Desktop/GD32VW553/V1_MQTT_OK/GD32VW55X_Wifi_BLE_SDK/GD32VW55x_RELEASE_V1.0.2/MSDK/wpa_supplicant/src/crypto\des-internal.c **** 	0x8000UL,    0x4000UL,    0x2000UL,    0x1000UL,
  59:C:/Users/stapi/OneDrive/Desktop/GD32VW553/V1_MQTT_OK/GD32VW55X_Wifi_BLE_SDK/GD32VW55x_RELEASE_V1.0.2/MSDK/wpa_supplicant/src/crypto\des-internal.c **** 	0x800UL,     0x400UL,     0x200UL,     0x100UL,
  60:C:/Users/stapi/OneDrive/Desktop/GD32VW553/V1_MQTT_OK/GD32VW55X_Wifi_BLE_SDK/GD32VW55x_RELEASE_V1.0.2/MSDK/wpa_supplicant/src/crypto\des-internal.c **** 	0x80UL,      0x40UL,      0x20UL,      0x10UL,
  61:C:/Users/stapi/OneDrive/Desktop/GD32VW553/V1_MQTT_OK/GD32VW55X_Wifi_BLE_SDK/GD32VW55x_RELEASE_V1.0.2/MSDK/wpa_supplicant/src/crypto\des-internal.c **** 	0x8UL,       0x4UL,       0x2UL,       0x1L
  62:C:/Users/stapi/OneDrive/Desktop/GD32VW553/V1_MQTT_OK/GD32VW55X_Wifi_BLE_SDK/GD32VW55x_RELEASE_V1.0.2/MSDK/wpa_supplicant/src/crypto\des-internal.c **** };
  63:C:/Users/stapi/OneDrive/Desktop/GD32VW553/V1_MQTT_OK/GD32VW55X_Wifi_BLE_SDK/GD32VW55x_RELEASE_V1.0.2/MSDK/wpa_supplicant/src/crypto\des-internal.c **** 
  64:C:/Users/stapi/OneDrive/Desktop/GD32VW553/V1_MQTT_OK/GD32VW55X_Wifi_BLE_SDK/GD32VW55x_RELEASE_V1.0.2/MSDK/wpa_supplicant/src/crypto\des-internal.c **** /* Use the key schedule specific in the standard (ANSI X3.92-1981) */
  65:C:/Users/stapi/OneDrive/Desktop/GD32VW553/V1_MQTT_OK/GD32VW55X_Wifi_BLE_SDK/GD32VW55x_RELEASE_V1.0.2/MSDK/wpa_supplicant/src/crypto\des-internal.c **** 
  66:C:/Users/stapi/OneDrive/Desktop/GD32VW553/V1_MQTT_OK/GD32VW55X_Wifi_BLE_SDK/GD32VW55x_RELEASE_V1.0.2/MSDK/wpa_supplicant/src/crypto\des-internal.c **** static const u8 pc1[56] = {
  67:C:/Users/stapi/OneDrive/Desktop/GD32VW553/V1_MQTT_OK/GD32VW55X_Wifi_BLE_SDK/GD32VW55x_RELEASE_V1.0.2/MSDK/wpa_supplicant/src/crypto\des-internal.c **** 	56, 48, 40, 32, 24, 16,  8,  0, 57, 49, 41, 33, 25, 17,
  68:C:/Users/stapi/OneDrive/Desktop/GD32VW553/V1_MQTT_OK/GD32VW55X_Wifi_BLE_SDK/GD32VW55x_RELEASE_V1.0.2/MSDK/wpa_supplicant/src/crypto\des-internal.c **** 	 9,  1, 58, 50, 42, 34, 26, 18, 10,  2, 59, 51, 43, 35,
  69:C:/Users/stapi/OneDrive/Desktop/GD32VW553/V1_MQTT_OK/GD32VW55X_Wifi_BLE_SDK/GD32VW55x_RELEASE_V1.0.2/MSDK/wpa_supplicant/src/crypto\des-internal.c **** 	62, 54, 46, 38, 30, 22, 14,  6, 61, 53, 45, 37, 29, 21,
  70:C:/Users/stapi/OneDrive/Desktop/GD32VW553/V1_MQTT_OK/GD32VW55X_Wifi_BLE_SDK/GD32VW55x_RELEASE_V1.0.2/MSDK/wpa_supplicant/src/crypto\des-internal.c **** 	13,  5, 60, 52, 44, 36, 28, 20, 12,  4, 27, 19, 11,  3
  71:C:/Users/stapi/OneDrive/Desktop/GD32VW553/V1_MQTT_OK/GD32VW55X_Wifi_BLE_SDK/GD32VW55x_RELEASE_V1.0.2/MSDK/wpa_supplicant/src/crypto\des-internal.c **** };
  72:C:/Users/stapi/OneDrive/Desktop/GD32VW553/V1_MQTT_OK/GD32VW55X_Wifi_BLE_SDK/GD32VW55x_RELEASE_V1.0.2/MSDK/wpa_supplicant/src/crypto\des-internal.c **** 
  73:C:/Users/stapi/OneDrive/Desktop/GD32VW553/V1_MQTT_OK/GD32VW55X_Wifi_BLE_SDK/GD32VW55x_RELEASE_V1.0.2/MSDK/wpa_supplicant/src/crypto\des-internal.c **** static const u8 totrot[16] = {
  74:C:/Users/stapi/OneDrive/Desktop/GD32VW553/V1_MQTT_OK/GD32VW55X_Wifi_BLE_SDK/GD32VW55x_RELEASE_V1.0.2/MSDK/wpa_supplicant/src/crypto\des-internal.c **** 	1,   2,  4,  6,
  75:C:/Users/stapi/OneDrive/Desktop/GD32VW553/V1_MQTT_OK/GD32VW55X_Wifi_BLE_SDK/GD32VW55x_RELEASE_V1.0.2/MSDK/wpa_supplicant/src/crypto\des-internal.c **** 	8,  10, 12, 14,
  76:C:/Users/stapi/OneDrive/Desktop/GD32VW553/V1_MQTT_OK/GD32VW55X_Wifi_BLE_SDK/GD32VW55x_RELEASE_V1.0.2/MSDK/wpa_supplicant/src/crypto\des-internal.c **** 	15, 17, 19, 21,
  77:C:/Users/stapi/OneDrive/Desktop/GD32VW553/V1_MQTT_OK/GD32VW55X_Wifi_BLE_SDK/GD32VW55x_RELEASE_V1.0.2/MSDK/wpa_supplicant/src/crypto\des-internal.c **** 	23, 25, 27, 28
  78:C:/Users/stapi/OneDrive/Desktop/GD32VW553/V1_MQTT_OK/GD32VW55X_Wifi_BLE_SDK/GD32VW55x_RELEASE_V1.0.2/MSDK/wpa_supplicant/src/crypto\des-internal.c **** };
  79:C:/Users/stapi/OneDrive/Desktop/GD32VW553/V1_MQTT_OK/GD32VW55X_Wifi_BLE_SDK/GD32VW55x_RELEASE_V1.0.2/MSDK/wpa_supplicant/src/crypto\des-internal.c **** 
  80:C:/Users/stapi/OneDrive/Desktop/GD32VW553/V1_MQTT_OK/GD32VW55X_Wifi_BLE_SDK/GD32VW55x_RELEASE_V1.0.2/MSDK/wpa_supplicant/src/crypto\des-internal.c **** static const u8 pc2[48] = {
  81:C:/Users/stapi/OneDrive/Desktop/GD32VW553/V1_MQTT_OK/GD32VW55X_Wifi_BLE_SDK/GD32VW55x_RELEASE_V1.0.2/MSDK/wpa_supplicant/src/crypto\des-internal.c **** 	13, 16, 10, 23,  0,  4,      2, 27, 14,  5, 20,  9,
  82:C:/Users/stapi/OneDrive/Desktop/GD32VW553/V1_MQTT_OK/GD32VW55X_Wifi_BLE_SDK/GD32VW55x_RELEASE_V1.0.2/MSDK/wpa_supplicant/src/crypto\des-internal.c **** 	22, 18, 11,  3, 25,  7,     15,  6, 26, 19, 12,  1,
  83:C:/Users/stapi/OneDrive/Desktop/GD32VW553/V1_MQTT_OK/GD32VW55X_Wifi_BLE_SDK/GD32VW55x_RELEASE_V1.0.2/MSDK/wpa_supplicant/src/crypto\des-internal.c **** 	40, 51, 30, 36, 46, 54,     29, 39, 50, 44, 32, 47,
  84:C:/Users/stapi/OneDrive/Desktop/GD32VW553/V1_MQTT_OK/GD32VW55X_Wifi_BLE_SDK/GD32VW55x_RELEASE_V1.0.2/MSDK/wpa_supplicant/src/crypto\des-internal.c **** 	43, 48, 38, 55, 33, 52,     45, 41, 49, 35, 28, 31
  85:C:/Users/stapi/OneDrive/Desktop/GD32VW553/V1_MQTT_OK/GD32VW55X_Wifi_BLE_SDK/GD32VW55x_RELEASE_V1.0.2/MSDK/wpa_supplicant/src/crypto\des-internal.c **** };
  86:C:/Users/stapi/OneDrive/Desktop/GD32VW553/V1_MQTT_OK/GD32VW55X_Wifi_BLE_SDK/GD32VW55x_RELEASE_V1.0.2/MSDK/wpa_supplicant/src/crypto\des-internal.c **** 
  87:C:/Users/stapi/OneDrive/Desktop/GD32VW553/V1_MQTT_OK/GD32VW55X_Wifi_BLE_SDK/GD32VW55x_RELEASE_V1.0.2/MSDK/wpa_supplicant/src/crypto\des-internal.c **** 
  88:C:/Users/stapi/OneDrive/Desktop/GD32VW553/V1_MQTT_OK/GD32VW55X_Wifi_BLE_SDK/GD32VW55x_RELEASE_V1.0.2/MSDK/wpa_supplicant/src/crypto\des-internal.c **** static const u32 SP1[64] =
  89:C:/Users/stapi/OneDrive/Desktop/GD32VW553/V1_MQTT_OK/GD32VW55X_Wifi_BLE_SDK/GD32VW55x_RELEASE_V1.0.2/MSDK/wpa_supplicant/src/crypto\des-internal.c **** {
  90:C:/Users/stapi/OneDrive/Desktop/GD32VW553/V1_MQTT_OK/GD32VW55X_Wifi_BLE_SDK/GD32VW55x_RELEASE_V1.0.2/MSDK/wpa_supplicant/src/crypto\des-internal.c **** 	0x01010400UL, 0x00000000UL, 0x00010000UL, 0x01010404UL,
  91:C:/Users/stapi/OneDrive/Desktop/GD32VW553/V1_MQTT_OK/GD32VW55X_Wifi_BLE_SDK/GD32VW55x_RELEASE_V1.0.2/MSDK/wpa_supplicant/src/crypto\des-internal.c **** 	0x01010004UL, 0x00010404UL, 0x00000004UL, 0x00010000UL,
  92:C:/Users/stapi/OneDrive/Desktop/GD32VW553/V1_MQTT_OK/GD32VW55X_Wifi_BLE_SDK/GD32VW55x_RELEASE_V1.0.2/MSDK/wpa_supplicant/src/crypto\des-internal.c **** 	0x00000400UL, 0x01010400UL, 0x01010404UL, 0x00000400UL,
  93:C:/Users/stapi/OneDrive/Desktop/GD32VW553/V1_MQTT_OK/GD32VW55X_Wifi_BLE_SDK/GD32VW55x_RELEASE_V1.0.2/MSDK/wpa_supplicant/src/crypto\des-internal.c **** 	0x01000404UL, 0x01010004UL, 0x01000000UL, 0x00000004UL,
  94:C:/Users/stapi/OneDrive/Desktop/GD32VW553/V1_MQTT_OK/GD32VW55X_Wifi_BLE_SDK/GD32VW55x_RELEASE_V1.0.2/MSDK/wpa_supplicant/src/crypto\des-internal.c **** 	0x00000404UL, 0x01000400UL, 0x01000400UL, 0x00010400UL,
  95:C:/Users/stapi/OneDrive/Desktop/GD32VW553/V1_MQTT_OK/GD32VW55X_Wifi_BLE_SDK/GD32VW55x_RELEASE_V1.0.2/MSDK/wpa_supplicant/src/crypto\des-internal.c **** 	0x00010400UL, 0x01010000UL, 0x01010000UL, 0x01000404UL,
  96:C:/Users/stapi/OneDrive/Desktop/GD32VW553/V1_MQTT_OK/GD32VW55X_Wifi_BLE_SDK/GD32VW55x_RELEASE_V1.0.2/MSDK/wpa_supplicant/src/crypto\des-internal.c **** 	0x00010004UL, 0x01000004UL, 0x01000004UL, 0x00010004UL,
  97:C:/Users/stapi/OneDrive/Desktop/GD32VW553/V1_MQTT_OK/GD32VW55X_Wifi_BLE_SDK/GD32VW55x_RELEASE_V1.0.2/MSDK/wpa_supplicant/src/crypto\des-internal.c **** 	0x00000000UL, 0x00000404UL, 0x00010404UL, 0x01000000UL,
  98:C:/Users/stapi/OneDrive/Desktop/GD32VW553/V1_MQTT_OK/GD32VW55X_Wifi_BLE_SDK/GD32VW55x_RELEASE_V1.0.2/MSDK/wpa_supplicant/src/crypto\des-internal.c **** 	0x00010000UL, 0x01010404UL, 0x00000004UL, 0x01010000UL,
  99:C:/Users/stapi/OneDrive/Desktop/GD32VW553/V1_MQTT_OK/GD32VW55X_Wifi_BLE_SDK/GD32VW55x_RELEASE_V1.0.2/MSDK/wpa_supplicant/src/crypto\des-internal.c **** 	0x01010400UL, 0x01000000UL, 0x01000000UL, 0x00000400UL,
 100:C:/Users/stapi/OneDrive/Desktop/GD32VW553/V1_MQTT_OK/GD32VW55X_Wifi_BLE_SDK/GD32VW55x_RELEASE_V1.0.2/MSDK/wpa_supplicant/src/crypto\des-internal.c **** 	0x01010004UL, 0x00010000UL, 0x00010400UL, 0x01000004UL,
 101:C:/Users/stapi/OneDrive/Desktop/GD32VW553/V1_MQTT_OK/GD32VW55X_Wifi_BLE_SDK/GD32VW55x_RELEASE_V1.0.2/MSDK/wpa_supplicant/src/crypto\des-internal.c **** 	0x00000400UL, 0x00000004UL, 0x01000404UL, 0x00010404UL,
 102:C:/Users/stapi/OneDrive/Desktop/GD32VW553/V1_MQTT_OK/GD32VW55X_Wifi_BLE_SDK/GD32VW55x_RELEASE_V1.0.2/MSDK/wpa_supplicant/src/crypto\des-internal.c **** 	0x01010404UL, 0x00010004UL, 0x01010000UL, 0x01000404UL,
 103:C:/Users/stapi/OneDrive/Desktop/GD32VW553/V1_MQTT_OK/GD32VW55X_Wifi_BLE_SDK/GD32VW55x_RELEASE_V1.0.2/MSDK/wpa_supplicant/src/crypto\des-internal.c **** 	0x01000004UL, 0x00000404UL, 0x00010404UL, 0x01010400UL,
 104:C:/Users/stapi/OneDrive/Desktop/GD32VW553/V1_MQTT_OK/GD32VW55X_Wifi_BLE_SDK/GD32VW55x_RELEASE_V1.0.2/MSDK/wpa_supplicant/src/crypto\des-internal.c **** 	0x00000404UL, 0x01000400UL, 0x01000400UL, 0x00000000UL,
 105:C:/Users/stapi/OneDrive/Desktop/GD32VW553/V1_MQTT_OK/GD32VW55X_Wifi_BLE_SDK/GD32VW55x_RELEASE_V1.0.2/MSDK/wpa_supplicant/src/crypto\des-internal.c **** 	0x00010004UL, 0x00010400UL, 0x00000000UL, 0x01010004UL
 106:C:/Users/stapi/OneDrive/Desktop/GD32VW553/V1_MQTT_OK/GD32VW55X_Wifi_BLE_SDK/GD32VW55x_RELEASE_V1.0.2/MSDK/wpa_supplicant/src/crypto\des-internal.c **** };
 107:C:/Users/stapi/OneDrive/Desktop/GD32VW553/V1_MQTT_OK/GD32VW55X_Wifi_BLE_SDK/GD32VW55x_RELEASE_V1.0.2/MSDK/wpa_supplicant/src/crypto\des-internal.c **** 
 108:C:/Users/stapi/OneDrive/Desktop/GD32VW553/V1_MQTT_OK/GD32VW55X_Wifi_BLE_SDK/GD32VW55x_RELEASE_V1.0.2/MSDK/wpa_supplicant/src/crypto\des-internal.c **** static const u32 SP2[64] =
 109:C:/Users/stapi/OneDrive/Desktop/GD32VW553/V1_MQTT_OK/GD32VW55X_Wifi_BLE_SDK/GD32VW55x_RELEASE_V1.0.2/MSDK/wpa_supplicant/src/crypto\des-internal.c **** {
 110:C:/Users/stapi/OneDrive/Desktop/GD32VW553/V1_MQTT_OK/GD32VW55X_Wifi_BLE_SDK/GD32VW55x_RELEASE_V1.0.2/MSDK/wpa_supplicant/src/crypto\des-internal.c **** 	0x80108020UL, 0x80008000UL, 0x00008000UL, 0x00108020UL,
 111:C:/Users/stapi/OneDrive/Desktop/GD32VW553/V1_MQTT_OK/GD32VW55X_Wifi_BLE_SDK/GD32VW55x_RELEASE_V1.0.2/MSDK/wpa_supplicant/src/crypto\des-internal.c **** 	0x00100000UL, 0x00000020UL, 0x80100020UL, 0x80008020UL,
 112:C:/Users/stapi/OneDrive/Desktop/GD32VW553/V1_MQTT_OK/GD32VW55X_Wifi_BLE_SDK/GD32VW55x_RELEASE_V1.0.2/MSDK/wpa_supplicant/src/crypto\des-internal.c **** 	0x80000020UL, 0x80108020UL, 0x80108000UL, 0x80000000UL,
 113:C:/Users/stapi/OneDrive/Desktop/GD32VW553/V1_MQTT_OK/GD32VW55X_Wifi_BLE_SDK/GD32VW55x_RELEASE_V1.0.2/MSDK/wpa_supplicant/src/crypto\des-internal.c **** 	0x80008000UL, 0x00100000UL, 0x00000020UL, 0x80100020UL,
 114:C:/Users/stapi/OneDrive/Desktop/GD32VW553/V1_MQTT_OK/GD32VW55X_Wifi_BLE_SDK/GD32VW55x_RELEASE_V1.0.2/MSDK/wpa_supplicant/src/crypto\des-internal.c **** 	0x00108000UL, 0x00100020UL, 0x80008020UL, 0x00000000UL,
 115:C:/Users/stapi/OneDrive/Desktop/GD32VW553/V1_MQTT_OK/GD32VW55X_Wifi_BLE_SDK/GD32VW55x_RELEASE_V1.0.2/MSDK/wpa_supplicant/src/crypto\des-internal.c **** 	0x80000000UL, 0x00008000UL, 0x00108020UL, 0x80100000UL,
 116:C:/Users/stapi/OneDrive/Desktop/GD32VW553/V1_MQTT_OK/GD32VW55X_Wifi_BLE_SDK/GD32VW55x_RELEASE_V1.0.2/MSDK/wpa_supplicant/src/crypto\des-internal.c **** 	0x00100020UL, 0x80000020UL, 0x00000000UL, 0x00108000UL,
 117:C:/Users/stapi/OneDrive/Desktop/GD32VW553/V1_MQTT_OK/GD32VW55X_Wifi_BLE_SDK/GD32VW55x_RELEASE_V1.0.2/MSDK/wpa_supplicant/src/crypto\des-internal.c **** 	0x00008020UL, 0x80108000UL, 0x80100000UL, 0x00008020UL,
 118:C:/Users/stapi/OneDrive/Desktop/GD32VW553/V1_MQTT_OK/GD32VW55X_Wifi_BLE_SDK/GD32VW55x_RELEASE_V1.0.2/MSDK/wpa_supplicant/src/crypto\des-internal.c **** 	0x00000000UL, 0x00108020UL, 0x80100020UL, 0x00100000UL,
 119:C:/Users/stapi/OneDrive/Desktop/GD32VW553/V1_MQTT_OK/GD32VW55X_Wifi_BLE_SDK/GD32VW55x_RELEASE_V1.0.2/MSDK/wpa_supplicant/src/crypto\des-internal.c **** 	0x80008020UL, 0x80100000UL, 0x80108000UL, 0x00008000UL,
 120:C:/Users/stapi/OneDrive/Desktop/GD32VW553/V1_MQTT_OK/GD32VW55X_Wifi_BLE_SDK/GD32VW55x_RELEASE_V1.0.2/MSDK/wpa_supplicant/src/crypto\des-internal.c **** 	0x80100000UL, 0x80008000UL, 0x00000020UL, 0x80108020UL,
 121:C:/Users/stapi/OneDrive/Desktop/GD32VW553/V1_MQTT_OK/GD32VW55X_Wifi_BLE_SDK/GD32VW55x_RELEASE_V1.0.2/MSDK/wpa_supplicant/src/crypto\des-internal.c **** 	0x00108020UL, 0x00000020UL, 0x00008000UL, 0x80000000UL,
 122:C:/Users/stapi/OneDrive/Desktop/GD32VW553/V1_MQTT_OK/GD32VW55X_Wifi_BLE_SDK/GD32VW55x_RELEASE_V1.0.2/MSDK/wpa_supplicant/src/crypto\des-internal.c **** 	0x00008020UL, 0x80108000UL, 0x00100000UL, 0x80000020UL,
 123:C:/Users/stapi/OneDrive/Desktop/GD32VW553/V1_MQTT_OK/GD32VW55X_Wifi_BLE_SDK/GD32VW55x_RELEASE_V1.0.2/MSDK/wpa_supplicant/src/crypto\des-internal.c **** 	0x00100020UL, 0x80008020UL, 0x80000020UL, 0x00100020UL,
 124:C:/Users/stapi/OneDrive/Desktop/GD32VW553/V1_MQTT_OK/GD32VW55X_Wifi_BLE_SDK/GD32VW55x_RELEASE_V1.0.2/MSDK/wpa_supplicant/src/crypto\des-internal.c **** 	0x00108000UL, 0x00000000UL, 0x80008000UL, 0x00008020UL,
 125:C:/Users/stapi/OneDrive/Desktop/GD32VW553/V1_MQTT_OK/GD32VW55X_Wifi_BLE_SDK/GD32VW55x_RELEASE_V1.0.2/MSDK/wpa_supplicant/src/crypto\des-internal.c **** 	0x80000000UL, 0x80100020UL, 0x80108020UL, 0x00108000UL
 126:C:/Users/stapi/OneDrive/Desktop/GD32VW553/V1_MQTT_OK/GD32VW55X_Wifi_BLE_SDK/GD32VW55x_RELEASE_V1.0.2/MSDK/wpa_supplicant/src/crypto\des-internal.c **** };
 127:C:/Users/stapi/OneDrive/Desktop/GD32VW553/V1_MQTT_OK/GD32VW55X_Wifi_BLE_SDK/GD32VW55x_RELEASE_V1.0.2/MSDK/wpa_supplicant/src/crypto\des-internal.c **** 
 128:C:/Users/stapi/OneDrive/Desktop/GD32VW553/V1_MQTT_OK/GD32VW55X_Wifi_BLE_SDK/GD32VW55x_RELEASE_V1.0.2/MSDK/wpa_supplicant/src/crypto\des-internal.c **** static const u32 SP3[64] =
 129:C:/Users/stapi/OneDrive/Desktop/GD32VW553/V1_MQTT_OK/GD32VW55X_Wifi_BLE_SDK/GD32VW55x_RELEASE_V1.0.2/MSDK/wpa_supplicant/src/crypto\des-internal.c **** {
 130:C:/Users/stapi/OneDrive/Desktop/GD32VW553/V1_MQTT_OK/GD32VW55X_Wifi_BLE_SDK/GD32VW55x_RELEASE_V1.0.2/MSDK/wpa_supplicant/src/crypto\des-internal.c **** 	0x00000208UL, 0x08020200UL, 0x00000000UL, 0x08020008UL,
 131:C:/Users/stapi/OneDrive/Desktop/GD32VW553/V1_MQTT_OK/GD32VW55X_Wifi_BLE_SDK/GD32VW55x_RELEASE_V1.0.2/MSDK/wpa_supplicant/src/crypto\des-internal.c **** 	0x08000200UL, 0x00000000UL, 0x00020208UL, 0x08000200UL,
 132:C:/Users/stapi/OneDrive/Desktop/GD32VW553/V1_MQTT_OK/GD32VW55X_Wifi_BLE_SDK/GD32VW55x_RELEASE_V1.0.2/MSDK/wpa_supplicant/src/crypto\des-internal.c **** 	0x00020008UL, 0x08000008UL, 0x08000008UL, 0x00020000UL,
 133:C:/Users/stapi/OneDrive/Desktop/GD32VW553/V1_MQTT_OK/GD32VW55X_Wifi_BLE_SDK/GD32VW55x_RELEASE_V1.0.2/MSDK/wpa_supplicant/src/crypto\des-internal.c **** 	0x08020208UL, 0x00020008UL, 0x08020000UL, 0x00000208UL,
 134:C:/Users/stapi/OneDrive/Desktop/GD32VW553/V1_MQTT_OK/GD32VW55X_Wifi_BLE_SDK/GD32VW55x_RELEASE_V1.0.2/MSDK/wpa_supplicant/src/crypto\des-internal.c **** 	0x08000000UL, 0x00000008UL, 0x08020200UL, 0x00000200UL,
 135:C:/Users/stapi/OneDrive/Desktop/GD32VW553/V1_MQTT_OK/GD32VW55X_Wifi_BLE_SDK/GD32VW55x_RELEASE_V1.0.2/MSDK/wpa_supplicant/src/crypto\des-internal.c **** 	0x00020200UL, 0x08020000UL, 0x08020008UL, 0x00020208UL,
 136:C:/Users/stapi/OneDrive/Desktop/GD32VW553/V1_MQTT_OK/GD32VW55X_Wifi_BLE_SDK/GD32VW55x_RELEASE_V1.0.2/MSDK/wpa_supplicant/src/crypto\des-internal.c **** 	0x08000208UL, 0x00020200UL, 0x00020000UL, 0x08000208UL,
 137:C:/Users/stapi/OneDrive/Desktop/GD32VW553/V1_MQTT_OK/GD32VW55X_Wifi_BLE_SDK/GD32VW55x_RELEASE_V1.0.2/MSDK/wpa_supplicant/src/crypto\des-internal.c **** 	0x00000008UL, 0x08020208UL, 0x00000200UL, 0x08000000UL,
 138:C:/Users/stapi/OneDrive/Desktop/GD32VW553/V1_MQTT_OK/GD32VW55X_Wifi_BLE_SDK/GD32VW55x_RELEASE_V1.0.2/MSDK/wpa_supplicant/src/crypto\des-internal.c **** 	0x08020200UL, 0x08000000UL, 0x00020008UL, 0x00000208UL,
 139:C:/Users/stapi/OneDrive/Desktop/GD32VW553/V1_MQTT_OK/GD32VW55X_Wifi_BLE_SDK/GD32VW55x_RELEASE_V1.0.2/MSDK/wpa_supplicant/src/crypto\des-internal.c **** 	0x00020000UL, 0x08020200UL, 0x08000200UL, 0x00000000UL,
 140:C:/Users/stapi/OneDrive/Desktop/GD32VW553/V1_MQTT_OK/GD32VW55X_Wifi_BLE_SDK/GD32VW55x_RELEASE_V1.0.2/MSDK/wpa_supplicant/src/crypto\des-internal.c **** 	0x00000200UL, 0x00020008UL, 0x08020208UL, 0x08000200UL,
 141:C:/Users/stapi/OneDrive/Desktop/GD32VW553/V1_MQTT_OK/GD32VW55X_Wifi_BLE_SDK/GD32VW55x_RELEASE_V1.0.2/MSDK/wpa_supplicant/src/crypto\des-internal.c **** 	0x08000008UL, 0x00000200UL, 0x00000000UL, 0x08020008UL,
 142:C:/Users/stapi/OneDrive/Desktop/GD32VW553/V1_MQTT_OK/GD32VW55X_Wifi_BLE_SDK/GD32VW55x_RELEASE_V1.0.2/MSDK/wpa_supplicant/src/crypto\des-internal.c **** 	0x08000208UL, 0x00020000UL, 0x08000000UL, 0x08020208UL,
 143:C:/Users/stapi/OneDrive/Desktop/GD32VW553/V1_MQTT_OK/GD32VW55X_Wifi_BLE_SDK/GD32VW55x_RELEASE_V1.0.2/MSDK/wpa_supplicant/src/crypto\des-internal.c **** 	0x00000008UL, 0x00020208UL, 0x00020200UL, 0x08000008UL,
 144:C:/Users/stapi/OneDrive/Desktop/GD32VW553/V1_MQTT_OK/GD32VW55X_Wifi_BLE_SDK/GD32VW55x_RELEASE_V1.0.2/MSDK/wpa_supplicant/src/crypto\des-internal.c **** 	0x08020000UL, 0x08000208UL, 0x00000208UL, 0x08020000UL,
 145:C:/Users/stapi/OneDrive/Desktop/GD32VW553/V1_MQTT_OK/GD32VW55X_Wifi_BLE_SDK/GD32VW55x_RELEASE_V1.0.2/MSDK/wpa_supplicant/src/crypto\des-internal.c **** 	0x00020208UL, 0x00000008UL, 0x08020008UL, 0x00020200UL
 146:C:/Users/stapi/OneDrive/Desktop/GD32VW553/V1_MQTT_OK/GD32VW55X_Wifi_BLE_SDK/GD32VW55x_RELEASE_V1.0.2/MSDK/wpa_supplicant/src/crypto\des-internal.c **** };
 147:C:/Users/stapi/OneDrive/Desktop/GD32VW553/V1_MQTT_OK/GD32VW55X_Wifi_BLE_SDK/GD32VW55x_RELEASE_V1.0.2/MSDK/wpa_supplicant/src/crypto\des-internal.c **** 
 148:C:/Users/stapi/OneDrive/Desktop/GD32VW553/V1_MQTT_OK/GD32VW55X_Wifi_BLE_SDK/GD32VW55x_RELEASE_V1.0.2/MSDK/wpa_supplicant/src/crypto\des-internal.c **** static const u32 SP4[64] =
 149:C:/Users/stapi/OneDrive/Desktop/GD32VW553/V1_MQTT_OK/GD32VW55X_Wifi_BLE_SDK/GD32VW55x_RELEASE_V1.0.2/MSDK/wpa_supplicant/src/crypto\des-internal.c **** {
 150:C:/Users/stapi/OneDrive/Desktop/GD32VW553/V1_MQTT_OK/GD32VW55X_Wifi_BLE_SDK/GD32VW55x_RELEASE_V1.0.2/MSDK/wpa_supplicant/src/crypto\des-internal.c **** 	0x00802001UL, 0x00002081UL, 0x00002081UL, 0x00000080UL,
 151:C:/Users/stapi/OneDrive/Desktop/GD32VW553/V1_MQTT_OK/GD32VW55X_Wifi_BLE_SDK/GD32VW55x_RELEASE_V1.0.2/MSDK/wpa_supplicant/src/crypto\des-internal.c **** 	0x00802080UL, 0x00800081UL, 0x00800001UL, 0x00002001UL,
 152:C:/Users/stapi/OneDrive/Desktop/GD32VW553/V1_MQTT_OK/GD32VW55X_Wifi_BLE_SDK/GD32VW55x_RELEASE_V1.0.2/MSDK/wpa_supplicant/src/crypto\des-internal.c **** 	0x00000000UL, 0x00802000UL, 0x00802000UL, 0x00802081UL,
 153:C:/Users/stapi/OneDrive/Desktop/GD32VW553/V1_MQTT_OK/GD32VW55X_Wifi_BLE_SDK/GD32VW55x_RELEASE_V1.0.2/MSDK/wpa_supplicant/src/crypto\des-internal.c **** 	0x00000081UL, 0x00000000UL, 0x00800080UL, 0x00800001UL,
 154:C:/Users/stapi/OneDrive/Desktop/GD32VW553/V1_MQTT_OK/GD32VW55X_Wifi_BLE_SDK/GD32VW55x_RELEASE_V1.0.2/MSDK/wpa_supplicant/src/crypto\des-internal.c **** 	0x00000001UL, 0x00002000UL, 0x00800000UL, 0x00802001UL,
 155:C:/Users/stapi/OneDrive/Desktop/GD32VW553/V1_MQTT_OK/GD32VW55X_Wifi_BLE_SDK/GD32VW55x_RELEASE_V1.0.2/MSDK/wpa_supplicant/src/crypto\des-internal.c **** 	0x00000080UL, 0x00800000UL, 0x00002001UL, 0x00002080UL,
 156:C:/Users/stapi/OneDrive/Desktop/GD32VW553/V1_MQTT_OK/GD32VW55X_Wifi_BLE_SDK/GD32VW55x_RELEASE_V1.0.2/MSDK/wpa_supplicant/src/crypto\des-internal.c **** 	0x00800081UL, 0x00000001UL, 0x00002080UL, 0x00800080UL,
 157:C:/Users/stapi/OneDrive/Desktop/GD32VW553/V1_MQTT_OK/GD32VW55X_Wifi_BLE_SDK/GD32VW55x_RELEASE_V1.0.2/MSDK/wpa_supplicant/src/crypto\des-internal.c **** 	0x00002000UL, 0x00802080UL, 0x00802081UL, 0x00000081UL,
 158:C:/Users/stapi/OneDrive/Desktop/GD32VW553/V1_MQTT_OK/GD32VW55X_Wifi_BLE_SDK/GD32VW55x_RELEASE_V1.0.2/MSDK/wpa_supplicant/src/crypto\des-internal.c **** 	0x00800080UL, 0x00800001UL, 0x00802000UL, 0x00802081UL,
 159:C:/Users/stapi/OneDrive/Desktop/GD32VW553/V1_MQTT_OK/GD32VW55X_Wifi_BLE_SDK/GD32VW55x_RELEASE_V1.0.2/MSDK/wpa_supplicant/src/crypto\des-internal.c **** 	0x00000081UL, 0x00000000UL, 0x00000000UL, 0x00802000UL,
 160:C:/Users/stapi/OneDrive/Desktop/GD32VW553/V1_MQTT_OK/GD32VW55X_Wifi_BLE_SDK/GD32VW55x_RELEASE_V1.0.2/MSDK/wpa_supplicant/src/crypto\des-internal.c **** 	0x00002080UL, 0x00800080UL, 0x00800081UL, 0x00000001UL,
 161:C:/Users/stapi/OneDrive/Desktop/GD32VW553/V1_MQTT_OK/GD32VW55X_Wifi_BLE_SDK/GD32VW55x_RELEASE_V1.0.2/MSDK/wpa_supplicant/src/crypto\des-internal.c **** 	0x00802001UL, 0x00002081UL, 0x00002081UL, 0x00000080UL,
 162:C:/Users/stapi/OneDrive/Desktop/GD32VW553/V1_MQTT_OK/GD32VW55X_Wifi_BLE_SDK/GD32VW55x_RELEASE_V1.0.2/MSDK/wpa_supplicant/src/crypto\des-internal.c **** 	0x00802081UL, 0x00000081UL, 0x00000001UL, 0x00002000UL,
 163:C:/Users/stapi/OneDrive/Desktop/GD32VW553/V1_MQTT_OK/GD32VW55X_Wifi_BLE_SDK/GD32VW55x_RELEASE_V1.0.2/MSDK/wpa_supplicant/src/crypto\des-internal.c **** 	0x00800001UL, 0x00002001UL, 0x00802080UL, 0x00800081UL,
 164:C:/Users/stapi/OneDrive/Desktop/GD32VW553/V1_MQTT_OK/GD32VW55X_Wifi_BLE_SDK/GD32VW55x_RELEASE_V1.0.2/MSDK/wpa_supplicant/src/crypto\des-internal.c **** 	0x00002001UL, 0x00002080UL, 0x00800000UL, 0x00802001UL,
 165:C:/Users/stapi/OneDrive/Desktop/GD32VW553/V1_MQTT_OK/GD32VW55X_Wifi_BLE_SDK/GD32VW55x_RELEASE_V1.0.2/MSDK/wpa_supplicant/src/crypto\des-internal.c **** 	0x00000080UL, 0x00800000UL, 0x00002000UL, 0x00802080UL
 166:C:/Users/stapi/OneDrive/Desktop/GD32VW553/V1_MQTT_OK/GD32VW55X_Wifi_BLE_SDK/GD32VW55x_RELEASE_V1.0.2/MSDK/wpa_supplicant/src/crypto\des-internal.c **** };
 167:C:/Users/stapi/OneDrive/Desktop/GD32VW553/V1_MQTT_OK/GD32VW55X_Wifi_BLE_SDK/GD32VW55x_RELEASE_V1.0.2/MSDK/wpa_supplicant/src/crypto\des-internal.c **** 
 168:C:/Users/stapi/OneDrive/Desktop/GD32VW553/V1_MQTT_OK/GD32VW55X_Wifi_BLE_SDK/GD32VW55x_RELEASE_V1.0.2/MSDK/wpa_supplicant/src/crypto\des-internal.c **** static const u32 SP5[64] =
 169:C:/Users/stapi/OneDrive/Desktop/GD32VW553/V1_MQTT_OK/GD32VW55X_Wifi_BLE_SDK/GD32VW55x_RELEASE_V1.0.2/MSDK/wpa_supplicant/src/crypto\des-internal.c **** {
 170:C:/Users/stapi/OneDrive/Desktop/GD32VW553/V1_MQTT_OK/GD32VW55X_Wifi_BLE_SDK/GD32VW55x_RELEASE_V1.0.2/MSDK/wpa_supplicant/src/crypto\des-internal.c **** 	0x00000100UL, 0x02080100UL, 0x02080000UL, 0x42000100UL,
 171:C:/Users/stapi/OneDrive/Desktop/GD32VW553/V1_MQTT_OK/GD32VW55X_Wifi_BLE_SDK/GD32VW55x_RELEASE_V1.0.2/MSDK/wpa_supplicant/src/crypto\des-internal.c **** 	0x00080000UL, 0x00000100UL, 0x40000000UL, 0x02080000UL,
 172:C:/Users/stapi/OneDrive/Desktop/GD32VW553/V1_MQTT_OK/GD32VW55X_Wifi_BLE_SDK/GD32VW55x_RELEASE_V1.0.2/MSDK/wpa_supplicant/src/crypto\des-internal.c **** 	0x40080100UL, 0x00080000UL, 0x02000100UL, 0x40080100UL,
 173:C:/Users/stapi/OneDrive/Desktop/GD32VW553/V1_MQTT_OK/GD32VW55X_Wifi_BLE_SDK/GD32VW55x_RELEASE_V1.0.2/MSDK/wpa_supplicant/src/crypto\des-internal.c **** 	0x42000100UL, 0x42080000UL, 0x00080100UL, 0x40000000UL,
 174:C:/Users/stapi/OneDrive/Desktop/GD32VW553/V1_MQTT_OK/GD32VW55X_Wifi_BLE_SDK/GD32VW55x_RELEASE_V1.0.2/MSDK/wpa_supplicant/src/crypto\des-internal.c **** 	0x02000000UL, 0x40080000UL, 0x40080000UL, 0x00000000UL,
 175:C:/Users/stapi/OneDrive/Desktop/GD32VW553/V1_MQTT_OK/GD32VW55X_Wifi_BLE_SDK/GD32VW55x_RELEASE_V1.0.2/MSDK/wpa_supplicant/src/crypto\des-internal.c **** 	0x40000100UL, 0x42080100UL, 0x42080100UL, 0x02000100UL,
 176:C:/Users/stapi/OneDrive/Desktop/GD32VW553/V1_MQTT_OK/GD32VW55X_Wifi_BLE_SDK/GD32VW55x_RELEASE_V1.0.2/MSDK/wpa_supplicant/src/crypto\des-internal.c **** 	0x42080000UL, 0x40000100UL, 0x00000000UL, 0x42000000UL,
 177:C:/Users/stapi/OneDrive/Desktop/GD32VW553/V1_MQTT_OK/GD32VW55X_Wifi_BLE_SDK/GD32VW55x_RELEASE_V1.0.2/MSDK/wpa_supplicant/src/crypto\des-internal.c **** 	0x02080100UL, 0x02000000UL, 0x42000000UL, 0x00080100UL,
 178:C:/Users/stapi/OneDrive/Desktop/GD32VW553/V1_MQTT_OK/GD32VW55X_Wifi_BLE_SDK/GD32VW55x_RELEASE_V1.0.2/MSDK/wpa_supplicant/src/crypto\des-internal.c **** 	0x00080000UL, 0x42000100UL, 0x00000100UL, 0x02000000UL,
 179:C:/Users/stapi/OneDrive/Desktop/GD32VW553/V1_MQTT_OK/GD32VW55X_Wifi_BLE_SDK/GD32VW55x_RELEASE_V1.0.2/MSDK/wpa_supplicant/src/crypto\des-internal.c **** 	0x40000000UL, 0x02080000UL, 0x42000100UL, 0x40080100UL,
 180:C:/Users/stapi/OneDrive/Desktop/GD32VW553/V1_MQTT_OK/GD32VW55X_Wifi_BLE_SDK/GD32VW55x_RELEASE_V1.0.2/MSDK/wpa_supplicant/src/crypto\des-internal.c **** 	0x02000100UL, 0x40000000UL, 0x42080000UL, 0x02080100UL,
 181:C:/Users/stapi/OneDrive/Desktop/GD32VW553/V1_MQTT_OK/GD32VW55X_Wifi_BLE_SDK/GD32VW55x_RELEASE_V1.0.2/MSDK/wpa_supplicant/src/crypto\des-internal.c **** 	0x40080100UL, 0x00000100UL, 0x02000000UL, 0x42080000UL,
 182:C:/Users/stapi/OneDrive/Desktop/GD32VW553/V1_MQTT_OK/GD32VW55X_Wifi_BLE_SDK/GD32VW55x_RELEASE_V1.0.2/MSDK/wpa_supplicant/src/crypto\des-internal.c **** 	0x42080100UL, 0x00080100UL, 0x42000000UL, 0x42080100UL,
 183:C:/Users/stapi/OneDrive/Desktop/GD32VW553/V1_MQTT_OK/GD32VW55X_Wifi_BLE_SDK/GD32VW55x_RELEASE_V1.0.2/MSDK/wpa_supplicant/src/crypto\des-internal.c **** 	0x02080000UL, 0x00000000UL, 0x40080000UL, 0x42000000UL,
 184:C:/Users/stapi/OneDrive/Desktop/GD32VW553/V1_MQTT_OK/GD32VW55X_Wifi_BLE_SDK/GD32VW55x_RELEASE_V1.0.2/MSDK/wpa_supplicant/src/crypto\des-internal.c **** 	0x00080100UL, 0x02000100UL, 0x40000100UL, 0x00080000UL,
 185:C:/Users/stapi/OneDrive/Desktop/GD32VW553/V1_MQTT_OK/GD32VW55X_Wifi_BLE_SDK/GD32VW55x_RELEASE_V1.0.2/MSDK/wpa_supplicant/src/crypto\des-internal.c **** 	0x00000000UL, 0x40080000UL, 0x02080100UL, 0x40000100UL
 186:C:/Users/stapi/OneDrive/Desktop/GD32VW553/V1_MQTT_OK/GD32VW55X_Wifi_BLE_SDK/GD32VW55x_RELEASE_V1.0.2/MSDK/wpa_supplicant/src/crypto\des-internal.c **** };
 187:C:/Users/stapi/OneDrive/Desktop/GD32VW553/V1_MQTT_OK/GD32VW55X_Wifi_BLE_SDK/GD32VW55x_RELEASE_V1.0.2/MSDK/wpa_supplicant/src/crypto\des-internal.c **** 
 188:C:/Users/stapi/OneDrive/Desktop/GD32VW553/V1_MQTT_OK/GD32VW55X_Wifi_BLE_SDK/GD32VW55x_RELEASE_V1.0.2/MSDK/wpa_supplicant/src/crypto\des-internal.c **** static const u32 SP6[64] =
 189:C:/Users/stapi/OneDrive/Desktop/GD32VW553/V1_MQTT_OK/GD32VW55X_Wifi_BLE_SDK/GD32VW55x_RELEASE_V1.0.2/MSDK/wpa_supplicant/src/crypto\des-internal.c **** {
 190:C:/Users/stapi/OneDrive/Desktop/GD32VW553/V1_MQTT_OK/GD32VW55X_Wifi_BLE_SDK/GD32VW55x_RELEASE_V1.0.2/MSDK/wpa_supplicant/src/crypto\des-internal.c **** 	0x20000010UL, 0x20400000UL, 0x00004000UL, 0x20404010UL,
 191:C:/Users/stapi/OneDrive/Desktop/GD32VW553/V1_MQTT_OK/GD32VW55X_Wifi_BLE_SDK/GD32VW55x_RELEASE_V1.0.2/MSDK/wpa_supplicant/src/crypto\des-internal.c **** 	0x20400000UL, 0x00000010UL, 0x20404010UL, 0x00400000UL,
 192:C:/Users/stapi/OneDrive/Desktop/GD32VW553/V1_MQTT_OK/GD32VW55X_Wifi_BLE_SDK/GD32VW55x_RELEASE_V1.0.2/MSDK/wpa_supplicant/src/crypto\des-internal.c **** 	0x20004000UL, 0x00404010UL, 0x00400000UL, 0x20000010UL,
 193:C:/Users/stapi/OneDrive/Desktop/GD32VW553/V1_MQTT_OK/GD32VW55X_Wifi_BLE_SDK/GD32VW55x_RELEASE_V1.0.2/MSDK/wpa_supplicant/src/crypto\des-internal.c **** 	0x00400010UL, 0x20004000UL, 0x20000000UL, 0x00004010UL,
 194:C:/Users/stapi/OneDrive/Desktop/GD32VW553/V1_MQTT_OK/GD32VW55X_Wifi_BLE_SDK/GD32VW55x_RELEASE_V1.0.2/MSDK/wpa_supplicant/src/crypto\des-internal.c **** 	0x00000000UL, 0x00400010UL, 0x20004010UL, 0x00004000UL,
 195:C:/Users/stapi/OneDrive/Desktop/GD32VW553/V1_MQTT_OK/GD32VW55X_Wifi_BLE_SDK/GD32VW55x_RELEASE_V1.0.2/MSDK/wpa_supplicant/src/crypto\des-internal.c **** 	0x00404000UL, 0x20004010UL, 0x00000010UL, 0x20400010UL,
 196:C:/Users/stapi/OneDrive/Desktop/GD32VW553/V1_MQTT_OK/GD32VW55X_Wifi_BLE_SDK/GD32VW55x_RELEASE_V1.0.2/MSDK/wpa_supplicant/src/crypto\des-internal.c **** 	0x20400010UL, 0x00000000UL, 0x00404010UL, 0x20404000UL,
 197:C:/Users/stapi/OneDrive/Desktop/GD32VW553/V1_MQTT_OK/GD32VW55X_Wifi_BLE_SDK/GD32VW55x_RELEASE_V1.0.2/MSDK/wpa_supplicant/src/crypto\des-internal.c **** 	0x00004010UL, 0x00404000UL, 0x20404000UL, 0x20000000UL,
 198:C:/Users/stapi/OneDrive/Desktop/GD32VW553/V1_MQTT_OK/GD32VW55X_Wifi_BLE_SDK/GD32VW55x_RELEASE_V1.0.2/MSDK/wpa_supplicant/src/crypto\des-internal.c **** 	0x20004000UL, 0x00000010UL, 0x20400010UL, 0x00404000UL,
 199:C:/Users/stapi/OneDrive/Desktop/GD32VW553/V1_MQTT_OK/GD32VW55X_Wifi_BLE_SDK/GD32VW55x_RELEASE_V1.0.2/MSDK/wpa_supplicant/src/crypto\des-internal.c **** 	0x20404010UL, 0x00400000UL, 0x00004010UL, 0x20000010UL,
 200:C:/Users/stapi/OneDrive/Desktop/GD32VW553/V1_MQTT_OK/GD32VW55X_Wifi_BLE_SDK/GD32VW55x_RELEASE_V1.0.2/MSDK/wpa_supplicant/src/crypto\des-internal.c **** 	0x00400000UL, 0x20004000UL, 0x20000000UL, 0x00004010UL,
 201:C:/Users/stapi/OneDrive/Desktop/GD32VW553/V1_MQTT_OK/GD32VW55X_Wifi_BLE_SDK/GD32VW55x_RELEASE_V1.0.2/MSDK/wpa_supplicant/src/crypto\des-internal.c **** 	0x20000010UL, 0x20404010UL, 0x00404000UL, 0x20400000UL,
 202:C:/Users/stapi/OneDrive/Desktop/GD32VW553/V1_MQTT_OK/GD32VW55X_Wifi_BLE_SDK/GD32VW55x_RELEASE_V1.0.2/MSDK/wpa_supplicant/src/crypto\des-internal.c **** 	0x00404010UL, 0x20404000UL, 0x00000000UL, 0x20400010UL,
 203:C:/Users/stapi/OneDrive/Desktop/GD32VW553/V1_MQTT_OK/GD32VW55X_Wifi_BLE_SDK/GD32VW55x_RELEASE_V1.0.2/MSDK/wpa_supplicant/src/crypto\des-internal.c **** 	0x00000010UL, 0x00004000UL, 0x20400000UL, 0x00404010UL,
 204:C:/Users/stapi/OneDrive/Desktop/GD32VW553/V1_MQTT_OK/GD32VW55X_Wifi_BLE_SDK/GD32VW55x_RELEASE_V1.0.2/MSDK/wpa_supplicant/src/crypto\des-internal.c **** 	0x00004000UL, 0x00400010UL, 0x20004010UL, 0x00000000UL,
 205:C:/Users/stapi/OneDrive/Desktop/GD32VW553/V1_MQTT_OK/GD32VW55X_Wifi_BLE_SDK/GD32VW55x_RELEASE_V1.0.2/MSDK/wpa_supplicant/src/crypto\des-internal.c **** 	0x20404000UL, 0x20000000UL, 0x00400010UL, 0x20004010UL
 206:C:/Users/stapi/OneDrive/Desktop/GD32VW553/V1_MQTT_OK/GD32VW55X_Wifi_BLE_SDK/GD32VW55x_RELEASE_V1.0.2/MSDK/wpa_supplicant/src/crypto\des-internal.c **** };
 207:C:/Users/stapi/OneDrive/Desktop/GD32VW553/V1_MQTT_OK/GD32VW55X_Wifi_BLE_SDK/GD32VW55x_RELEASE_V1.0.2/MSDK/wpa_supplicant/src/crypto\des-internal.c **** 
 208:C:/Users/stapi/OneDrive/Desktop/GD32VW553/V1_MQTT_OK/GD32VW55X_Wifi_BLE_SDK/GD32VW55x_RELEASE_V1.0.2/MSDK/wpa_supplicant/src/crypto\des-internal.c **** static const u32 SP7[64] =
 209:C:/Users/stapi/OneDrive/Desktop/GD32VW553/V1_MQTT_OK/GD32VW55X_Wifi_BLE_SDK/GD32VW55x_RELEASE_V1.0.2/MSDK/wpa_supplicant/src/crypto\des-internal.c **** {
 210:C:/Users/stapi/OneDrive/Desktop/GD32VW553/V1_MQTT_OK/GD32VW55X_Wifi_BLE_SDK/GD32VW55x_RELEASE_V1.0.2/MSDK/wpa_supplicant/src/crypto\des-internal.c **** 	0x00200000UL, 0x04200002UL, 0x04000802UL, 0x00000000UL,
 211:C:/Users/stapi/OneDrive/Desktop/GD32VW553/V1_MQTT_OK/GD32VW55X_Wifi_BLE_SDK/GD32VW55x_RELEASE_V1.0.2/MSDK/wpa_supplicant/src/crypto\des-internal.c **** 	0x00000800UL, 0x04000802UL, 0x00200802UL, 0x04200800UL,
 212:C:/Users/stapi/OneDrive/Desktop/GD32VW553/V1_MQTT_OK/GD32VW55X_Wifi_BLE_SDK/GD32VW55x_RELEASE_V1.0.2/MSDK/wpa_supplicant/src/crypto\des-internal.c **** 	0x04200802UL, 0x00200000UL, 0x00000000UL, 0x04000002UL,
 213:C:/Users/stapi/OneDrive/Desktop/GD32VW553/V1_MQTT_OK/GD32VW55X_Wifi_BLE_SDK/GD32VW55x_RELEASE_V1.0.2/MSDK/wpa_supplicant/src/crypto\des-internal.c **** 	0x00000002UL, 0x04000000UL, 0x04200002UL, 0x00000802UL,
 214:C:/Users/stapi/OneDrive/Desktop/GD32VW553/V1_MQTT_OK/GD32VW55X_Wifi_BLE_SDK/GD32VW55x_RELEASE_V1.0.2/MSDK/wpa_supplicant/src/crypto\des-internal.c **** 	0x04000800UL, 0x00200802UL, 0x00200002UL, 0x04000800UL,
 215:C:/Users/stapi/OneDrive/Desktop/GD32VW553/V1_MQTT_OK/GD32VW55X_Wifi_BLE_SDK/GD32VW55x_RELEASE_V1.0.2/MSDK/wpa_supplicant/src/crypto\des-internal.c **** 	0x04000002UL, 0x04200000UL, 0x04200800UL, 0x00200002UL,
 216:C:/Users/stapi/OneDrive/Desktop/GD32VW553/V1_MQTT_OK/GD32VW55X_Wifi_BLE_SDK/GD32VW55x_RELEASE_V1.0.2/MSDK/wpa_supplicant/src/crypto\des-internal.c **** 	0x04200000UL, 0x00000800UL, 0x00000802UL, 0x04200802UL,
 217:C:/Users/stapi/OneDrive/Desktop/GD32VW553/V1_MQTT_OK/GD32VW55X_Wifi_BLE_SDK/GD32VW55x_RELEASE_V1.0.2/MSDK/wpa_supplicant/src/crypto\des-internal.c **** 	0x00200800UL, 0x00000002UL, 0x04000000UL, 0x00200800UL,
 218:C:/Users/stapi/OneDrive/Desktop/GD32VW553/V1_MQTT_OK/GD32VW55X_Wifi_BLE_SDK/GD32VW55x_RELEASE_V1.0.2/MSDK/wpa_supplicant/src/crypto\des-internal.c **** 	0x04000000UL, 0x00200800UL, 0x00200000UL, 0x04000802UL,
 219:C:/Users/stapi/OneDrive/Desktop/GD32VW553/V1_MQTT_OK/GD32VW55X_Wifi_BLE_SDK/GD32VW55x_RELEASE_V1.0.2/MSDK/wpa_supplicant/src/crypto\des-internal.c **** 	0x04000802UL, 0x04200002UL, 0x04200002UL, 0x00000002UL,
 220:C:/Users/stapi/OneDrive/Desktop/GD32VW553/V1_MQTT_OK/GD32VW55X_Wifi_BLE_SDK/GD32VW55x_RELEASE_V1.0.2/MSDK/wpa_supplicant/src/crypto\des-internal.c **** 	0x00200002UL, 0x04000000UL, 0x04000800UL, 0x00200000UL,
 221:C:/Users/stapi/OneDrive/Desktop/GD32VW553/V1_MQTT_OK/GD32VW55X_Wifi_BLE_SDK/GD32VW55x_RELEASE_V1.0.2/MSDK/wpa_supplicant/src/crypto\des-internal.c **** 	0x04200800UL, 0x00000802UL, 0x00200802UL, 0x04200800UL,
 222:C:/Users/stapi/OneDrive/Desktop/GD32VW553/V1_MQTT_OK/GD32VW55X_Wifi_BLE_SDK/GD32VW55x_RELEASE_V1.0.2/MSDK/wpa_supplicant/src/crypto\des-internal.c **** 	0x00000802UL, 0x04000002UL, 0x04200802UL, 0x04200000UL,
 223:C:/Users/stapi/OneDrive/Desktop/GD32VW553/V1_MQTT_OK/GD32VW55X_Wifi_BLE_SDK/GD32VW55x_RELEASE_V1.0.2/MSDK/wpa_supplicant/src/crypto\des-internal.c **** 	0x00200800UL, 0x00000000UL, 0x00000002UL, 0x04200802UL,
 224:C:/Users/stapi/OneDrive/Desktop/GD32VW553/V1_MQTT_OK/GD32VW55X_Wifi_BLE_SDK/GD32VW55x_RELEASE_V1.0.2/MSDK/wpa_supplicant/src/crypto\des-internal.c **** 	0x00000000UL, 0x00200802UL, 0x04200000UL, 0x00000800UL,
 225:C:/Users/stapi/OneDrive/Desktop/GD32VW553/V1_MQTT_OK/GD32VW55X_Wifi_BLE_SDK/GD32VW55x_RELEASE_V1.0.2/MSDK/wpa_supplicant/src/crypto\des-internal.c **** 	0x04000002UL, 0x04000800UL, 0x00000800UL, 0x00200002UL
 226:C:/Users/stapi/OneDrive/Desktop/GD32VW553/V1_MQTT_OK/GD32VW55X_Wifi_BLE_SDK/GD32VW55x_RELEASE_V1.0.2/MSDK/wpa_supplicant/src/crypto\des-internal.c **** };
 227:C:/Users/stapi/OneDrive/Desktop/GD32VW553/V1_MQTT_OK/GD32VW55X_Wifi_BLE_SDK/GD32VW55x_RELEASE_V1.0.2/MSDK/wpa_supplicant/src/crypto\des-internal.c **** 
 228:C:/Users/stapi/OneDrive/Desktop/GD32VW553/V1_MQTT_OK/GD32VW55X_Wifi_BLE_SDK/GD32VW55x_RELEASE_V1.0.2/MSDK/wpa_supplicant/src/crypto\des-internal.c **** static const u32 SP8[64] =
 229:C:/Users/stapi/OneDrive/Desktop/GD32VW553/V1_MQTT_OK/GD32VW55X_Wifi_BLE_SDK/GD32VW55x_RELEASE_V1.0.2/MSDK/wpa_supplicant/src/crypto\des-internal.c **** {
 230:C:/Users/stapi/OneDrive/Desktop/GD32VW553/V1_MQTT_OK/GD32VW55X_Wifi_BLE_SDK/GD32VW55x_RELEASE_V1.0.2/MSDK/wpa_supplicant/src/crypto\des-internal.c **** 	0x10001040UL, 0x00001000UL, 0x00040000UL, 0x10041040UL,
 231:C:/Users/stapi/OneDrive/Desktop/GD32VW553/V1_MQTT_OK/GD32VW55X_Wifi_BLE_SDK/GD32VW55x_RELEASE_V1.0.2/MSDK/wpa_supplicant/src/crypto\des-internal.c **** 	0x10000000UL, 0x10001040UL, 0x00000040UL, 0x10000000UL,
 232:C:/Users/stapi/OneDrive/Desktop/GD32VW553/V1_MQTT_OK/GD32VW55X_Wifi_BLE_SDK/GD32VW55x_RELEASE_V1.0.2/MSDK/wpa_supplicant/src/crypto\des-internal.c **** 	0x00040040UL, 0x10040000UL, 0x10041040UL, 0x00041000UL,
 233:C:/Users/stapi/OneDrive/Desktop/GD32VW553/V1_MQTT_OK/GD32VW55X_Wifi_BLE_SDK/GD32VW55x_RELEASE_V1.0.2/MSDK/wpa_supplicant/src/crypto\des-internal.c **** 	0x10041000UL, 0x00041040UL, 0x00001000UL, 0x00000040UL,
 234:C:/Users/stapi/OneDrive/Desktop/GD32VW553/V1_MQTT_OK/GD32VW55X_Wifi_BLE_SDK/GD32VW55x_RELEASE_V1.0.2/MSDK/wpa_supplicant/src/crypto\des-internal.c **** 	0x10040000UL, 0x10000040UL, 0x10001000UL, 0x00001040UL,
 235:C:/Users/stapi/OneDrive/Desktop/GD32VW553/V1_MQTT_OK/GD32VW55X_Wifi_BLE_SDK/GD32VW55x_RELEASE_V1.0.2/MSDK/wpa_supplicant/src/crypto\des-internal.c **** 	0x00041000UL, 0x00040040UL, 0x10040040UL, 0x10041000UL,
 236:C:/Users/stapi/OneDrive/Desktop/GD32VW553/V1_MQTT_OK/GD32VW55X_Wifi_BLE_SDK/GD32VW55x_RELEASE_V1.0.2/MSDK/wpa_supplicant/src/crypto\des-internal.c **** 	0x00001040UL, 0x00000000UL, 0x00000000UL, 0x10040040UL,
 237:C:/Users/stapi/OneDrive/Desktop/GD32VW553/V1_MQTT_OK/GD32VW55X_Wifi_BLE_SDK/GD32VW55x_RELEASE_V1.0.2/MSDK/wpa_supplicant/src/crypto\des-internal.c **** 	0x10000040UL, 0x10001000UL, 0x00041040UL, 0x00040000UL,
 238:C:/Users/stapi/OneDrive/Desktop/GD32VW553/V1_MQTT_OK/GD32VW55X_Wifi_BLE_SDK/GD32VW55x_RELEASE_V1.0.2/MSDK/wpa_supplicant/src/crypto\des-internal.c **** 	0x00041040UL, 0x00040000UL, 0x10041000UL, 0x00001000UL,
 239:C:/Users/stapi/OneDrive/Desktop/GD32VW553/V1_MQTT_OK/GD32VW55X_Wifi_BLE_SDK/GD32VW55x_RELEASE_V1.0.2/MSDK/wpa_supplicant/src/crypto\des-internal.c **** 	0x00000040UL, 0x10040040UL, 0x00001000UL, 0x00041040UL,
 240:C:/Users/stapi/OneDrive/Desktop/GD32VW553/V1_MQTT_OK/GD32VW55X_Wifi_BLE_SDK/GD32VW55x_RELEASE_V1.0.2/MSDK/wpa_supplicant/src/crypto\des-internal.c **** 	0x10001000UL, 0x00000040UL, 0x10000040UL, 0x10040000UL,
 241:C:/Users/stapi/OneDrive/Desktop/GD32VW553/V1_MQTT_OK/GD32VW55X_Wifi_BLE_SDK/GD32VW55x_RELEASE_V1.0.2/MSDK/wpa_supplicant/src/crypto\des-internal.c **** 	0x10040040UL, 0x10000000UL, 0x00040000UL, 0x10001040UL,
 242:C:/Users/stapi/OneDrive/Desktop/GD32VW553/V1_MQTT_OK/GD32VW55X_Wifi_BLE_SDK/GD32VW55x_RELEASE_V1.0.2/MSDK/wpa_supplicant/src/crypto\des-internal.c **** 	0x00000000UL, 0x10041040UL, 0x00040040UL, 0x10000040UL,
 243:C:/Users/stapi/OneDrive/Desktop/GD32VW553/V1_MQTT_OK/GD32VW55X_Wifi_BLE_SDK/GD32VW55x_RELEASE_V1.0.2/MSDK/wpa_supplicant/src/crypto\des-internal.c **** 	0x10040000UL, 0x10001000UL, 0x10001040UL, 0x00000000UL,
 244:C:/Users/stapi/OneDrive/Desktop/GD32VW553/V1_MQTT_OK/GD32VW55X_Wifi_BLE_SDK/GD32VW55x_RELEASE_V1.0.2/MSDK/wpa_supplicant/src/crypto\des-internal.c **** 	0x10041040UL, 0x00041000UL, 0x00041000UL, 0x00001040UL,
 245:C:/Users/stapi/OneDrive/Desktop/GD32VW553/V1_MQTT_OK/GD32VW55X_Wifi_BLE_SDK/GD32VW55x_RELEASE_V1.0.2/MSDK/wpa_supplicant/src/crypto\des-internal.c **** 	0x00001040UL, 0x00040040UL, 0x10000000UL, 0x10041000UL
 246:C:/Users/stapi/OneDrive/Desktop/GD32VW553/V1_MQTT_OK/GD32VW55X_Wifi_BLE_SDK/GD32VW55x_RELEASE_V1.0.2/MSDK/wpa_supplicant/src/crypto\des-internal.c **** };
 247:C:/Users/stapi/OneDrive/Desktop/GD32VW553/V1_MQTT_OK/GD32VW55X_Wifi_BLE_SDK/GD32VW55x_RELEASE_V1.0.2/MSDK/wpa_supplicant/src/crypto\des-internal.c **** 
 248:C:/Users/stapi/OneDrive/Desktop/GD32VW553/V1_MQTT_OK/GD32VW55X_Wifi_BLE_SDK/GD32VW55x_RELEASE_V1.0.2/MSDK/wpa_supplicant/src/crypto\des-internal.c **** 
 249:C:/Users/stapi/OneDrive/Desktop/GD32VW553/V1_MQTT_OK/GD32VW55X_Wifi_BLE_SDK/GD32VW55x_RELEASE_V1.0.2/MSDK/wpa_supplicant/src/crypto\des-internal.c **** static void cookey(const u32 *raw1, u32 *keyout)
 250:C:/Users/stapi/OneDrive/Desktop/GD32VW553/V1_MQTT_OK/GD32VW55X_Wifi_BLE_SDK/GD32VW55x_RELEASE_V1.0.2/MSDK/wpa_supplicant/src/crypto\des-internal.c **** {
 251:C:/Users/stapi/OneDrive/Desktop/GD32VW553/V1_MQTT_OK/GD32VW55X_Wifi_BLE_SDK/GD32VW55x_RELEASE_V1.0.2/MSDK/wpa_supplicant/src/crypto\des-internal.c **** 	u32 *cook;
 252:C:/Users/stapi/OneDrive/Desktop/GD32VW553/V1_MQTT_OK/GD32VW55X_Wifi_BLE_SDK/GD32VW55x_RELEASE_V1.0.2/MSDK/wpa_supplicant/src/crypto\des-internal.c **** 	const u32 *raw0;
 253:C:/Users/stapi/OneDrive/Desktop/GD32VW553/V1_MQTT_OK/GD32VW55X_Wifi_BLE_SDK/GD32VW55x_RELEASE_V1.0.2/MSDK/wpa_supplicant/src/crypto\des-internal.c **** 	u32 dough[32];
 254:C:/Users/stapi/OneDrive/Desktop/GD32VW553/V1_MQTT_OK/GD32VW55X_Wifi_BLE_SDK/GD32VW55x_RELEASE_V1.0.2/MSDK/wpa_supplicant/src/crypto\des-internal.c **** 	int i;
 255:C:/Users/stapi/OneDrive/Desktop/GD32VW553/V1_MQTT_OK/GD32VW55X_Wifi_BLE_SDK/GD32VW55x_RELEASE_V1.0.2/MSDK/wpa_supplicant/src/crypto\des-internal.c **** 
 256:C:/Users/stapi/OneDrive/Desktop/GD32VW553/V1_MQTT_OK/GD32VW55X_Wifi_BLE_SDK/GD32VW55x_RELEASE_V1.0.2/MSDK/wpa_supplicant/src/crypto\des-internal.c **** 	cook = dough;
 257:C:/Users/stapi/OneDrive/Desktop/GD32VW553/V1_MQTT_OK/GD32VW55X_Wifi_BLE_SDK/GD32VW55x_RELEASE_V1.0.2/MSDK/wpa_supplicant/src/crypto\des-internal.c **** 	for (i = 0; i < 16; i++, raw1++) {
 258:C:/Users/stapi/OneDrive/Desktop/GD32VW553/V1_MQTT_OK/GD32VW55X_Wifi_BLE_SDK/GD32VW55x_RELEASE_V1.0.2/MSDK/wpa_supplicant/src/crypto\des-internal.c **** 		raw0 = raw1++;
 259:C:/Users/stapi/OneDrive/Desktop/GD32VW553/V1_MQTT_OK/GD32VW55X_Wifi_BLE_SDK/GD32VW55x_RELEASE_V1.0.2/MSDK/wpa_supplicant/src/crypto\des-internal.c **** 		*cook    = (*raw0 & 0x00fc0000L) << 6;
 260:C:/Users/stapi/OneDrive/Desktop/GD32VW553/V1_MQTT_OK/GD32VW55X_Wifi_BLE_SDK/GD32VW55x_RELEASE_V1.0.2/MSDK/wpa_supplicant/src/crypto\des-internal.c **** 		*cook   |= (*raw0 & 0x00000fc0L) << 10;
 261:C:/Users/stapi/OneDrive/Desktop/GD32VW553/V1_MQTT_OK/GD32VW55X_Wifi_BLE_SDK/GD32VW55x_RELEASE_V1.0.2/MSDK/wpa_supplicant/src/crypto\des-internal.c **** 		*cook   |= (*raw1 & 0x00fc0000L) >> 10;
 262:C:/Users/stapi/OneDrive/Desktop/GD32VW553/V1_MQTT_OK/GD32VW55X_Wifi_BLE_SDK/GD32VW55x_RELEASE_V1.0.2/MSDK/wpa_supplicant/src/crypto\des-internal.c **** 		*cook++ |= (*raw1 & 0x00000fc0L) >> 6;
 263:C:/Users/stapi/OneDrive/Desktop/GD32VW553/V1_MQTT_OK/GD32VW55X_Wifi_BLE_SDK/GD32VW55x_RELEASE_V1.0.2/MSDK/wpa_supplicant/src/crypto\des-internal.c **** 		*cook    = (*raw0 & 0x0003f000L) << 12;
 264:C:/Users/stapi/OneDrive/Desktop/GD32VW553/V1_MQTT_OK/GD32VW55X_Wifi_BLE_SDK/GD32VW55x_RELEASE_V1.0.2/MSDK/wpa_supplicant/src/crypto\des-internal.c **** 		*cook   |= (*raw0 & 0x0000003fL) << 16;
 265:C:/Users/stapi/OneDrive/Desktop/GD32VW553/V1_MQTT_OK/GD32VW55X_Wifi_BLE_SDK/GD32VW55x_RELEASE_V1.0.2/MSDK/wpa_supplicant/src/crypto\des-internal.c **** 		*cook   |= (*raw1 & 0x0003f000L) >> 4;
 266:C:/Users/stapi/OneDrive/Desktop/GD32VW553/V1_MQTT_OK/GD32VW55X_Wifi_BLE_SDK/GD32VW55x_RELEASE_V1.0.2/MSDK/wpa_supplicant/src/crypto\des-internal.c **** 		*cook++ |= (*raw1 & 0x0000003fL);
 267:C:/Users/stapi/OneDrive/Desktop/GD32VW553/V1_MQTT_OK/GD32VW55X_Wifi_BLE_SDK/GD32VW55x_RELEASE_V1.0.2/MSDK/wpa_supplicant/src/crypto\des-internal.c **** 	}
 268:C:/Users/stapi/OneDrive/Desktop/GD32VW553/V1_MQTT_OK/GD32VW55X_Wifi_BLE_SDK/GD32VW55x_RELEASE_V1.0.2/MSDK/wpa_supplicant/src/crypto\des-internal.c **** 
 269:C:/Users/stapi/OneDrive/Desktop/GD32VW553/V1_MQTT_OK/GD32VW55X_Wifi_BLE_SDK/GD32VW55x_RELEASE_V1.0.2/MSDK/wpa_supplicant/src/crypto\des-internal.c **** 	os_memcpy(keyout, dough, sizeof(dough));
 270:C:/Users/stapi/OneDrive/Desktop/GD32VW553/V1_MQTT_OK/GD32VW55X_Wifi_BLE_SDK/GD32VW55x_RELEASE_V1.0.2/MSDK/wpa_supplicant/src/crypto\des-internal.c **** }
 271:C:/Users/stapi/OneDrive/Desktop/GD32VW553/V1_MQTT_OK/GD32VW55X_Wifi_BLE_SDK/GD32VW55x_RELEASE_V1.0.2/MSDK/wpa_supplicant/src/crypto\des-internal.c **** 
 272:C:/Users/stapi/OneDrive/Desktop/GD32VW553/V1_MQTT_OK/GD32VW55X_Wifi_BLE_SDK/GD32VW55x_RELEASE_V1.0.2/MSDK/wpa_supplicant/src/crypto\des-internal.c **** 
 273:C:/Users/stapi/OneDrive/Desktop/GD32VW553/V1_MQTT_OK/GD32VW55X_Wifi_BLE_SDK/GD32VW55x_RELEASE_V1.0.2/MSDK/wpa_supplicant/src/crypto\des-internal.c **** static void deskey(const u8 *key, int decrypt, u32 *keyout)
 274:C:/Users/stapi/OneDrive/Desktop/GD32VW553/V1_MQTT_OK/GD32VW55X_Wifi_BLE_SDK/GD32VW55x_RELEASE_V1.0.2/MSDK/wpa_supplicant/src/crypto\des-internal.c **** {
 275:C:/Users/stapi/OneDrive/Desktop/GD32VW553/V1_MQTT_OK/GD32VW55X_Wifi_BLE_SDK/GD32VW55x_RELEASE_V1.0.2/MSDK/wpa_supplicant/src/crypto\des-internal.c **** 	u32 i, j, l, m, n, kn[32];
 276:C:/Users/stapi/OneDrive/Desktop/GD32VW553/V1_MQTT_OK/GD32VW55X_Wifi_BLE_SDK/GD32VW55x_RELEASE_V1.0.2/MSDK/wpa_supplicant/src/crypto\des-internal.c **** 	u8 pc1m[56], pcr[56];
 277:C:/Users/stapi/OneDrive/Desktop/GD32VW553/V1_MQTT_OK/GD32VW55X_Wifi_BLE_SDK/GD32VW55x_RELEASE_V1.0.2/MSDK/wpa_supplicant/src/crypto\des-internal.c **** 
 278:C:/Users/stapi/OneDrive/Desktop/GD32VW553/V1_MQTT_OK/GD32VW55X_Wifi_BLE_SDK/GD32VW55x_RELEASE_V1.0.2/MSDK/wpa_supplicant/src/crypto\des-internal.c **** 	for (j = 0; j < 56; j++) {
 279:C:/Users/stapi/OneDrive/Desktop/GD32VW553/V1_MQTT_OK/GD32VW55X_Wifi_BLE_SDK/GD32VW55x_RELEASE_V1.0.2/MSDK/wpa_supplicant/src/crypto\des-internal.c **** 		l = (u32) pc1[j];
 280:C:/Users/stapi/OneDrive/Desktop/GD32VW553/V1_MQTT_OK/GD32VW55X_Wifi_BLE_SDK/GD32VW55x_RELEASE_V1.0.2/MSDK/wpa_supplicant/src/crypto\des-internal.c **** 		m = l & 7;
 281:C:/Users/stapi/OneDrive/Desktop/GD32VW553/V1_MQTT_OK/GD32VW55X_Wifi_BLE_SDK/GD32VW55x_RELEASE_V1.0.2/MSDK/wpa_supplicant/src/crypto\des-internal.c **** 		pc1m[j] = (u8)
 282:C:/Users/stapi/OneDrive/Desktop/GD32VW553/V1_MQTT_OK/GD32VW55X_Wifi_BLE_SDK/GD32VW55x_RELEASE_V1.0.2/MSDK/wpa_supplicant/src/crypto\des-internal.c **** 			((key[l >> 3U] & bytebit[m]) == bytebit[m] ? 1 : 0);
 283:C:/Users/stapi/OneDrive/Desktop/GD32VW553/V1_MQTT_OK/GD32VW55X_Wifi_BLE_SDK/GD32VW55x_RELEASE_V1.0.2/MSDK/wpa_supplicant/src/crypto\des-internal.c **** 	}
 284:C:/Users/stapi/OneDrive/Desktop/GD32VW553/V1_MQTT_OK/GD32VW55X_Wifi_BLE_SDK/GD32VW55x_RELEASE_V1.0.2/MSDK/wpa_supplicant/src/crypto\des-internal.c **** 
 285:C:/Users/stapi/OneDrive/Desktop/GD32VW553/V1_MQTT_OK/GD32VW55X_Wifi_BLE_SDK/GD32VW55x_RELEASE_V1.0.2/MSDK/wpa_supplicant/src/crypto\des-internal.c **** 	for (i = 0; i < 16; i++) {
 286:C:/Users/stapi/OneDrive/Desktop/GD32VW553/V1_MQTT_OK/GD32VW55X_Wifi_BLE_SDK/GD32VW55x_RELEASE_V1.0.2/MSDK/wpa_supplicant/src/crypto\des-internal.c **** 		if (decrypt)
 287:C:/Users/stapi/OneDrive/Desktop/GD32VW553/V1_MQTT_OK/GD32VW55X_Wifi_BLE_SDK/GD32VW55x_RELEASE_V1.0.2/MSDK/wpa_supplicant/src/crypto\des-internal.c **** 			m = (15 - i) << 1;
 288:C:/Users/stapi/OneDrive/Desktop/GD32VW553/V1_MQTT_OK/GD32VW55X_Wifi_BLE_SDK/GD32VW55x_RELEASE_V1.0.2/MSDK/wpa_supplicant/src/crypto\des-internal.c **** 		else
 289:C:/Users/stapi/OneDrive/Desktop/GD32VW553/V1_MQTT_OK/GD32VW55X_Wifi_BLE_SDK/GD32VW55x_RELEASE_V1.0.2/MSDK/wpa_supplicant/src/crypto\des-internal.c **** 			m = i << 1;
 290:C:/Users/stapi/OneDrive/Desktop/GD32VW553/V1_MQTT_OK/GD32VW55X_Wifi_BLE_SDK/GD32VW55x_RELEASE_V1.0.2/MSDK/wpa_supplicant/src/crypto\des-internal.c **** 		n = m + 1;
 291:C:/Users/stapi/OneDrive/Desktop/GD32VW553/V1_MQTT_OK/GD32VW55X_Wifi_BLE_SDK/GD32VW55x_RELEASE_V1.0.2/MSDK/wpa_supplicant/src/crypto\des-internal.c **** 		kn[m] = kn[n] = 0L;
 292:C:/Users/stapi/OneDrive/Desktop/GD32VW553/V1_MQTT_OK/GD32VW55X_Wifi_BLE_SDK/GD32VW55x_RELEASE_V1.0.2/MSDK/wpa_supplicant/src/crypto\des-internal.c **** 		for (j = 0; j < 28; j++) {
 293:C:/Users/stapi/OneDrive/Desktop/GD32VW553/V1_MQTT_OK/GD32VW55X_Wifi_BLE_SDK/GD32VW55x_RELEASE_V1.0.2/MSDK/wpa_supplicant/src/crypto\des-internal.c **** 			l = j + (u32) totrot[i];
 294:C:/Users/stapi/OneDrive/Desktop/GD32VW553/V1_MQTT_OK/GD32VW55X_Wifi_BLE_SDK/GD32VW55x_RELEASE_V1.0.2/MSDK/wpa_supplicant/src/crypto\des-internal.c **** 			if (l < 28)
 295:C:/Users/stapi/OneDrive/Desktop/GD32VW553/V1_MQTT_OK/GD32VW55X_Wifi_BLE_SDK/GD32VW55x_RELEASE_V1.0.2/MSDK/wpa_supplicant/src/crypto\des-internal.c **** 				pcr[j] = pc1m[l];
 296:C:/Users/stapi/OneDrive/Desktop/GD32VW553/V1_MQTT_OK/GD32VW55X_Wifi_BLE_SDK/GD32VW55x_RELEASE_V1.0.2/MSDK/wpa_supplicant/src/crypto\des-internal.c **** 			else
 297:C:/Users/stapi/OneDrive/Desktop/GD32VW553/V1_MQTT_OK/GD32VW55X_Wifi_BLE_SDK/GD32VW55x_RELEASE_V1.0.2/MSDK/wpa_supplicant/src/crypto\des-internal.c **** 				pcr[j] = pc1m[l - 28];
 298:C:/Users/stapi/OneDrive/Desktop/GD32VW553/V1_MQTT_OK/GD32VW55X_Wifi_BLE_SDK/GD32VW55x_RELEASE_V1.0.2/MSDK/wpa_supplicant/src/crypto\des-internal.c **** 		}
 299:C:/Users/stapi/OneDrive/Desktop/GD32VW553/V1_MQTT_OK/GD32VW55X_Wifi_BLE_SDK/GD32VW55x_RELEASE_V1.0.2/MSDK/wpa_supplicant/src/crypto\des-internal.c **** 		for (/* j = 28 */; j < 56; j++) {
 300:C:/Users/stapi/OneDrive/Desktop/GD32VW553/V1_MQTT_OK/GD32VW55X_Wifi_BLE_SDK/GD32VW55x_RELEASE_V1.0.2/MSDK/wpa_supplicant/src/crypto\des-internal.c **** 			l = j + (u32) totrot[i];
 301:C:/Users/stapi/OneDrive/Desktop/GD32VW553/V1_MQTT_OK/GD32VW55X_Wifi_BLE_SDK/GD32VW55x_RELEASE_V1.0.2/MSDK/wpa_supplicant/src/crypto\des-internal.c **** 			if (l < 56)
 302:C:/Users/stapi/OneDrive/Desktop/GD32VW553/V1_MQTT_OK/GD32VW55X_Wifi_BLE_SDK/GD32VW55x_RELEASE_V1.0.2/MSDK/wpa_supplicant/src/crypto\des-internal.c **** 				pcr[j] = pc1m[l];
 303:C:/Users/stapi/OneDrive/Desktop/GD32VW553/V1_MQTT_OK/GD32VW55X_Wifi_BLE_SDK/GD32VW55x_RELEASE_V1.0.2/MSDK/wpa_supplicant/src/crypto\des-internal.c **** 			else
 304:C:/Users/stapi/OneDrive/Desktop/GD32VW553/V1_MQTT_OK/GD32VW55X_Wifi_BLE_SDK/GD32VW55x_RELEASE_V1.0.2/MSDK/wpa_supplicant/src/crypto\des-internal.c **** 				pcr[j] = pc1m[l - 28];
 305:C:/Users/stapi/OneDrive/Desktop/GD32VW553/V1_MQTT_OK/GD32VW55X_Wifi_BLE_SDK/GD32VW55x_RELEASE_V1.0.2/MSDK/wpa_supplicant/src/crypto\des-internal.c **** 		}
 306:C:/Users/stapi/OneDrive/Desktop/GD32VW553/V1_MQTT_OK/GD32VW55X_Wifi_BLE_SDK/GD32VW55x_RELEASE_V1.0.2/MSDK/wpa_supplicant/src/crypto\des-internal.c **** 		for (j = 0; j < 24; j++) {
 307:C:/Users/stapi/OneDrive/Desktop/GD32VW553/V1_MQTT_OK/GD32VW55X_Wifi_BLE_SDK/GD32VW55x_RELEASE_V1.0.2/MSDK/wpa_supplicant/src/crypto\des-internal.c **** 			if ((int) pcr[(int) pc2[j]] != 0)
 308:C:/Users/stapi/OneDrive/Desktop/GD32VW553/V1_MQTT_OK/GD32VW55X_Wifi_BLE_SDK/GD32VW55x_RELEASE_V1.0.2/MSDK/wpa_supplicant/src/crypto\des-internal.c **** 				kn[m] |= bigbyte[j];
 309:C:/Users/stapi/OneDrive/Desktop/GD32VW553/V1_MQTT_OK/GD32VW55X_Wifi_BLE_SDK/GD32VW55x_RELEASE_V1.0.2/MSDK/wpa_supplicant/src/crypto\des-internal.c **** 			if ((int) pcr[(int) pc2[j + 24]] != 0)
 310:C:/Users/stapi/OneDrive/Desktop/GD32VW553/V1_MQTT_OK/GD32VW55X_Wifi_BLE_SDK/GD32VW55x_RELEASE_V1.0.2/MSDK/wpa_supplicant/src/crypto\des-internal.c **** 				kn[n] |= bigbyte[j];
 311:C:/Users/stapi/OneDrive/Desktop/GD32VW553/V1_MQTT_OK/GD32VW55X_Wifi_BLE_SDK/GD32VW55x_RELEASE_V1.0.2/MSDK/wpa_supplicant/src/crypto\des-internal.c **** 		}
 312:C:/Users/stapi/OneDrive/Desktop/GD32VW553/V1_MQTT_OK/GD32VW55X_Wifi_BLE_SDK/GD32VW55x_RELEASE_V1.0.2/MSDK/wpa_supplicant/src/crypto\des-internal.c **** 	}
 313:C:/Users/stapi/OneDrive/Desktop/GD32VW553/V1_MQTT_OK/GD32VW55X_Wifi_BLE_SDK/GD32VW55x_RELEASE_V1.0.2/MSDK/wpa_supplicant/src/crypto\des-internal.c **** 
 314:C:/Users/stapi/OneDrive/Desktop/GD32VW553/V1_MQTT_OK/GD32VW55X_Wifi_BLE_SDK/GD32VW55x_RELEASE_V1.0.2/MSDK/wpa_supplicant/src/crypto\des-internal.c **** 	cookey(kn, keyout);
 315:C:/Users/stapi/OneDrive/Desktop/GD32VW553/V1_MQTT_OK/GD32VW55X_Wifi_BLE_SDK/GD32VW55x_RELEASE_V1.0.2/MSDK/wpa_supplicant/src/crypto\des-internal.c **** }
 316:C:/Users/stapi/OneDrive/Desktop/GD32VW553/V1_MQTT_OK/GD32VW55X_Wifi_BLE_SDK/GD32VW55x_RELEASE_V1.0.2/MSDK/wpa_supplicant/src/crypto\des-internal.c **** 
 317:C:/Users/stapi/OneDrive/Desktop/GD32VW553/V1_MQTT_OK/GD32VW55X_Wifi_BLE_SDK/GD32VW55x_RELEASE_V1.0.2/MSDK/wpa_supplicant/src/crypto\des-internal.c **** 
 318:C:/Users/stapi/OneDrive/Desktop/GD32VW553/V1_MQTT_OK/GD32VW55X_Wifi_BLE_SDK/GD32VW55x_RELEASE_V1.0.2/MSDK/wpa_supplicant/src/crypto\des-internal.c **** static void desfunc(u32 *block, const u32 *keys)
 319:C:/Users/stapi/OneDrive/Desktop/GD32VW553/V1_MQTT_OK/GD32VW55X_Wifi_BLE_SDK/GD32VW55x_RELEASE_V1.0.2/MSDK/wpa_supplicant/src/crypto\des-internal.c **** {
  73              		.loc 2 319 1 is_stmt 1
  74              		.cfi_startproc
  75              	.LVL3:
  76 0000 17030000 		call	t0,__riscv_save_2
  76      E7020300 
  77              		.cfi_offset 9, -12
  78              		.cfi_offset 8, -8
  79              		.cfi_def_cfa_offset 16
 320:C:/Users/stapi/OneDrive/Desktop/GD32VW553/V1_MQTT_OK/GD32VW55X_Wifi_BLE_SDK/GD32VW55x_RELEASE_V1.0.2/MSDK/wpa_supplicant/src/crypto\des-internal.c **** 	u32 work, right, leftt;
  80              		.loc 2 320 2
 321:C:/Users/stapi/OneDrive/Desktop/GD32VW553/V1_MQTT_OK/GD32VW55X_Wifi_BLE_SDK/GD32VW55x_RELEASE_V1.0.2/MSDK/wpa_supplicant/src/crypto\des-internal.c **** 	int cur_round;
  81              		.loc 2 321 2
 322:C:/Users/stapi/OneDrive/Desktop/GD32VW553/V1_MQTT_OK/GD32VW55X_Wifi_BLE_SDK/GD32VW55x_RELEASE_V1.0.2/MSDK/wpa_supplicant/src/crypto\des-internal.c **** 
 323:C:/Users/stapi/OneDrive/Desktop/GD32VW553/V1_MQTT_OK/GD32VW55X_Wifi_BLE_SDK/GD32VW55x_RELEASE_V1.0.2/MSDK/wpa_supplicant/src/crypto\des-internal.c **** 	leftt = block[0];
  82              		.loc 2 323 2
  83              		.loc 2 323 8 is_stmt 0
  84 0008 1841     		lw	a4,0(a0)
  85              	.LVL4:
 324:C:/Users/stapi/OneDrive/Desktop/GD32VW553/V1_MQTT_OK/GD32VW55X_Wifi_BLE_SDK/GD32VW55x_RELEASE_V1.0.2/MSDK/wpa_supplicant/src/crypto\des-internal.c **** 	right = block[1];
  86              		.loc 2 324 2 is_stmt 1
  87              		.loc 2 324 8 is_stmt 0
  88 000a 5041     		lw	a2,4(a0)
  89              	.LVL5:
 325:C:/Users/stapi/OneDrive/Desktop/GD32VW553/V1_MQTT_OK/GD32VW55X_Wifi_BLE_SDK/GD32VW55x_RELEASE_V1.0.2/MSDK/wpa_supplicant/src/crypto\des-internal.c **** 
 326:C:/Users/stapi/OneDrive/Desktop/GD32VW553/V1_MQTT_OK/GD32VW55X_Wifi_BLE_SDK/GD32VW55x_RELEASE_V1.0.2/MSDK/wpa_supplicant/src/crypto\des-internal.c **** 	work = ((leftt >> 4)  ^ right) & 0x0f0f0f0fL;
  90              		.loc 2 326 2 is_stmt 1
  91              		.loc 2 326 7 is_stmt 0
  92 000c B7170F0F 		li	a5,252645376
  93              		.loc 2 326 17
  94 0010 13584700 		srli	a6,a4,4
  95              		.loc 2 326 24
  96 0014 3348C800 		xor	a6,a6,a2
  97              		.loc 2 326 7
  98 0018 9387F7F0 		addi	a5,a5,-241
  99 001c 3378F800 		and	a6,a6,a5
 100              	.LVL6:
 327:C:/Users/stapi/OneDrive/Desktop/GD32VW553/V1_MQTT_OK/GD32VW55X_Wifi_BLE_SDK/GD32VW55x_RELEASE_V1.0.2/MSDK/wpa_supplicant/src/crypto\des-internal.c **** 	right ^= work;
 101              		.loc 2 327 2 is_stmt 1
 102              		.loc 2 327 8 is_stmt 0
 103 0020 33460601 		xor	a2,a2,a6
 104              	.LVL7:
 328:C:/Users/stapi/OneDrive/Desktop/GD32VW553/V1_MQTT_OK/GD32VW55X_Wifi_BLE_SDK/GD32VW55x_RELEASE_V1.0.2/MSDK/wpa_supplicant/src/crypto\des-internal.c **** 	leftt ^= (work << 4);
 105              		.loc 2 328 2 is_stmt 1
 106              		.loc 2 328 17 is_stmt 0
 107 0024 1208     		slli	a6,a6,4
 108              	.LVL8:
 109              		.loc 2 328 8
 110 0026 3348E800 		xor	a6,a6,a4
 111              	.LVL9:
 329:C:/Users/stapi/OneDrive/Desktop/GD32VW553/V1_MQTT_OK/GD32VW55X_Wifi_BLE_SDK/GD32VW55x_RELEASE_V1.0.2/MSDK/wpa_supplicant/src/crypto\des-internal.c **** 
 330:C:/Users/stapi/OneDrive/Desktop/GD32VW553/V1_MQTT_OK/GD32VW55X_Wifi_BLE_SDK/GD32VW55x_RELEASE_V1.0.2/MSDK/wpa_supplicant/src/crypto\des-internal.c **** 	work = ((leftt >> 16) ^ right) & 0x0000ffffL;
 112              		.loc 2 330 2 is_stmt 1
 113              		.loc 2 330 17 is_stmt 0
 114 002a 93570801 		srli	a5,a6,16
 115              	.LVL10:
 116              		.loc 2 330 24
 117 002e B18F     		xor	a5,a5,a2
 118              		.loc 2 330 7
 119 0030 B3C70708 		zext.h	a5,a5
 120              	.LVL11:
 331:C:/Users/stapi/OneDrive/Desktop/GD32VW553/V1_MQTT_OK/GD32VW55X_Wifi_BLE_SDK/GD32VW55x_RELEASE_V1.0.2/MSDK/wpa_supplicant/src/crypto\des-internal.c **** 	right ^= work;
 121              		.loc 2 331 2 is_stmt 1
 122              		.loc 2 331 8 is_stmt 0
 123 0034 B346F600 		xor	a3,a2,a5
 124              	.LVL12:
 332:C:/Users/stapi/OneDrive/Desktop/GD32VW553/V1_MQTT_OK/GD32VW55X_Wifi_BLE_SDK/GD32VW55x_RELEASE_V1.0.2/MSDK/wpa_supplicant/src/crypto\des-internal.c **** 	leftt ^= (work << 16);
 125              		.loc 2 332 2 is_stmt 1
 126              		.loc 2 332 17 is_stmt 0
 127 0038 13970701 		slli	a4,a5,16
 128              		.loc 2 332 8
 129 003c 33470701 		xor	a4,a4,a6
 130              	.LVL13:
 333:C:/Users/stapi/OneDrive/Desktop/GD32VW553/V1_MQTT_OK/GD32VW55X_Wifi_BLE_SDK/GD32VW55x_RELEASE_V1.0.2/MSDK/wpa_supplicant/src/crypto\des-internal.c **** 
 334:C:/Users/stapi/OneDrive/Desktop/GD32VW553/V1_MQTT_OK/GD32VW55X_Wifi_BLE_SDK/GD32VW55x_RELEASE_V1.0.2/MSDK/wpa_supplicant/src/crypto\des-internal.c **** 	work = ((right >> 2)  ^ leftt) & 0x33333333L;
 131              		.loc 2 334 2 is_stmt 1
 132              		.loc 2 334 17 is_stmt 0
 133 0040 13D62600 		srli	a2,a3,2
 134              		.loc 2 334 7
 135 0044 B7373333 		li	a5,858992640
 136              	.LVL14:
 137              		.loc 2 334 24
 138 0048 398E     		xor	a2,a2,a4
 139              		.loc 2 334 7
 140 004a 93873733 		addi	a5,a5,819
 141 004e 7D8E     		and	a2,a2,a5
 142              	.LVL15:
 335:C:/Users/stapi/OneDrive/Desktop/GD32VW553/V1_MQTT_OK/GD32VW55X_Wifi_BLE_SDK/GD32VW55x_RELEASE_V1.0.2/MSDK/wpa_supplicant/src/crypto\des-internal.c **** 	leftt ^= work;
 143              		.loc 2 335 2 is_stmt 1
 144              		.loc 2 335 8 is_stmt 0
 145 0050 318F     		xor	a4,a4,a2
 146              	.LVL16:
 336:C:/Users/stapi/OneDrive/Desktop/GD32VW553/V1_MQTT_OK/GD32VW55X_Wifi_BLE_SDK/GD32VW55x_RELEASE_V1.0.2/MSDK/wpa_supplicant/src/crypto\des-internal.c **** 	right ^= (work << 2);
 147              		.loc 2 336 2 is_stmt 1
 148              		.loc 2 336 17 is_stmt 0
 149 0052 0A06     		slli	a2,a2,2
 150              	.LVL17:
 151              		.loc 2 336 8
 152 0054 358E     		xor	a2,a2,a3
 153              	.LVL18:
 337:C:/Users/stapi/OneDrive/Desktop/GD32VW553/V1_MQTT_OK/GD32VW55X_Wifi_BLE_SDK/GD32VW55x_RELEASE_V1.0.2/MSDK/wpa_supplicant/src/crypto\des-internal.c **** 
 338:C:/Users/stapi/OneDrive/Desktop/GD32VW553/V1_MQTT_OK/GD32VW55X_Wifi_BLE_SDK/GD32VW55x_RELEASE_V1.0.2/MSDK/wpa_supplicant/src/crypto\des-internal.c **** 	work = ((right >> 8)  ^ leftt) & 0x00ff00ffL;
 154              		.loc 2 338 2 is_stmt 1
 155              		.loc 2 338 17 is_stmt 0
 156 0056 93568600 		srli	a3,a2,8
 157              	.LVL19:
 158              		.loc 2 338 7
 159 005a B707FF00 		li	a5,16711680
 160              	.LVL20:
 161              		.loc 2 338 24
 162 005e B98E     		xor	a3,a3,a4
 163              		.loc 2 338 7
 164 0060 9387F70F 		addi	a5,a5,255
 165 0064 FD8E     		and	a3,a3,a5
 166              	.LVL21:
 339:C:/Users/stapi/OneDrive/Desktop/GD32VW553/V1_MQTT_OK/GD32VW55X_Wifi_BLE_SDK/GD32VW55x_RELEASE_V1.0.2/MSDK/wpa_supplicant/src/crypto\des-internal.c **** 	leftt ^= work;
 167              		.loc 2 339 2 is_stmt 1
 340:C:/Users/stapi/OneDrive/Desktop/GD32VW553/V1_MQTT_OK/GD32VW55X_Wifi_BLE_SDK/GD32VW55x_RELEASE_V1.0.2/MSDK/wpa_supplicant/src/crypto\des-internal.c **** 	right ^= (work << 8);
 168              		.loc 2 340 17 is_stmt 0
 169 0066 93978600 		slli	a5,a3,8
 341:C:/Users/stapi/OneDrive/Desktop/GD32VW553/V1_MQTT_OK/GD32VW55X_Wifi_BLE_SDK/GD32VW55x_RELEASE_V1.0.2/MSDK/wpa_supplicant/src/crypto\des-internal.c **** 
 342:C:/Users/stapi/OneDrive/Desktop/GD32VW553/V1_MQTT_OK/GD32VW55X_Wifi_BLE_SDK/GD32VW55x_RELEASE_V1.0.2/MSDK/wpa_supplicant/src/crypto\des-internal.c **** 	right = ROLc(right, 1);
 170              		.loc 2 342 8
 171 006a 0548     		li	a6,1
 339:C:/Users/stapi/OneDrive/Desktop/GD32VW553/V1_MQTT_OK/GD32VW55X_Wifi_BLE_SDK/GD32VW55x_RELEASE_V1.0.2/MSDK/wpa_supplicant/src/crypto\des-internal.c **** 	right ^= (work << 8);
 172              		.loc 2 339 8
 173 006c 358F     		xor	a4,a4,a3
 174              	.LVL22:
 340:C:/Users/stapi/OneDrive/Desktop/GD32VW553/V1_MQTT_OK/GD32VW55X_Wifi_BLE_SDK/GD32VW55x_RELEASE_V1.0.2/MSDK/wpa_supplicant/src/crypto\des-internal.c **** 	right ^= (work << 8);
 175              		.loc 2 340 2 is_stmt 1
 340:C:/Users/stapi/OneDrive/Desktop/GD32VW553/V1_MQTT_OK/GD32VW55X_Wifi_BLE_SDK/GD32VW55x_RELEASE_V1.0.2/MSDK/wpa_supplicant/src/crypto\des-internal.c **** 	right ^= (work << 8);
 176              		.loc 2 340 8 is_stmt 0
 177 006e B18F     		xor	a5,a5,a2
 178              	.LVL23:
 179              		.loc 2 342 2 is_stmt 1
 343:C:/Users/stapi/OneDrive/Desktop/GD32VW553/V1_MQTT_OK/GD32VW55X_Wifi_BLE_SDK/GD32VW55x_RELEASE_V1.0.2/MSDK/wpa_supplicant/src/crypto\des-internal.c **** 	work = (leftt ^ right) & 0xaaaaaaaaL;
 180              		.loc 2 343 7 is_stmt 0
 181 0070 37B6AAAA 		li	a2,-1431654400
 342:C:/Users/stapi/OneDrive/Desktop/GD32VW553/V1_MQTT_OK/GD32VW55X_Wifi_BLE_SDK/GD32VW55x_RELEASE_V1.0.2/MSDK/wpa_supplicant/src/crypto\des-internal.c **** 	work = (leftt ^ right) & 0xaaaaaaaaL;
 182              		.loc 2 342 8
 183 0074 B3970761 		rol	a5,a5,a6
 184              	.LVL24:
 185              		.loc 2 343 2 is_stmt 1
 186              		.loc 2 343 7 is_stmt 0
 187 0078 1306A6AA 		addi	a2,a2,-1366
 188              		.loc 2 343 16
 189 007c B346F700 		xor	a3,a4,a5
 190              	.LVL25:
 191              		.loc 2 343 7
 192 0080 F18E     		and	a3,a3,a2
 193              	.LVL26:
 344:C:/Users/stapi/OneDrive/Desktop/GD32VW553/V1_MQTT_OK/GD32VW55X_Wifi_BLE_SDK/GD32VW55x_RELEASE_V1.0.2/MSDK/wpa_supplicant/src/crypto\des-internal.c **** 
 345:C:/Users/stapi/OneDrive/Desktop/GD32VW553/V1_MQTT_OK/GD32VW55X_Wifi_BLE_SDK/GD32VW55x_RELEASE_V1.0.2/MSDK/wpa_supplicant/src/crypto\des-internal.c **** 	leftt ^= work;
 194              		.loc 2 345 2 is_stmt 1
 195              		.loc 2 345 8 is_stmt 0
 196 0082 358F     		xor	a4,a4,a3
 197              	.LVL27:
 346:C:/Users/stapi/OneDrive/Desktop/GD32VW553/V1_MQTT_OK/GD32VW55X_Wifi_BLE_SDK/GD32VW55x_RELEASE_V1.0.2/MSDK/wpa_supplicant/src/crypto\des-internal.c **** 	right ^= work;
 198              		.loc 2 346 2 is_stmt 1
 347:C:/Users/stapi/OneDrive/Desktop/GD32VW553/V1_MQTT_OK/GD32VW55X_Wifi_BLE_SDK/GD32VW55x_RELEASE_V1.0.2/MSDK/wpa_supplicant/src/crypto\des-internal.c **** 	leftt = ROLc(leftt, 1);
 348:C:/Users/stapi/OneDrive/Desktop/GD32VW553/V1_MQTT_OK/GD32VW55X_Wifi_BLE_SDK/GD32VW55x_RELEASE_V1.0.2/MSDK/wpa_supplicant/src/crypto\des-internal.c **** 
 349:C:/Users/stapi/OneDrive/Desktop/GD32VW553/V1_MQTT_OK/GD32VW55X_Wifi_BLE_SDK/GD32VW55x_RELEASE_V1.0.2/MSDK/wpa_supplicant/src/crypto\des-internal.c **** 	for (cur_round = 0; cur_round < 8; cur_round++) {
 350:C:/Users/stapi/OneDrive/Desktop/GD32VW553/V1_MQTT_OK/GD32VW55X_Wifi_BLE_SDK/GD32VW55x_RELEASE_V1.0.2/MSDK/wpa_supplicant/src/crypto\des-internal.c **** 		work  = RORc(right, 4) ^ *keys++;
 351:C:/Users/stapi/OneDrive/Desktop/GD32VW553/V1_MQTT_OK/GD32VW55X_Wifi_BLE_SDK/GD32VW55x_RELEASE_V1.0.2/MSDK/wpa_supplicant/src/crypto\des-internal.c **** 		leftt ^= SP7[work        & 0x3fL]
 199              		.loc 2 351 15 is_stmt 0
 200 0084 B70F0000 		lui	t6,%hi(.LANCHOR0)
 352:C:/Users/stapi/OneDrive/Desktop/GD32VW553/V1_MQTT_OK/GD32VW55X_Wifi_BLE_SDK/GD32VW55x_RELEASE_V1.0.2/MSDK/wpa_supplicant/src/crypto\des-internal.c **** 			^ SP5[(work >>  8) & 0x3fL]
 353:C:/Users/stapi/OneDrive/Desktop/GD32VW553/V1_MQTT_OK/GD32VW55X_Wifi_BLE_SDK/GD32VW55x_RELEASE_V1.0.2/MSDK/wpa_supplicant/src/crypto\des-internal.c **** 			^ SP3[(work >> 16) & 0x3fL]
 354:C:/Users/stapi/OneDrive/Desktop/GD32VW553/V1_MQTT_OK/GD32VW55X_Wifi_BLE_SDK/GD32VW55x_RELEASE_V1.0.2/MSDK/wpa_supplicant/src/crypto\des-internal.c **** 			^ SP1[(work >> 24) & 0x3fL];
 355:C:/Users/stapi/OneDrive/Desktop/GD32VW553/V1_MQTT_OK/GD32VW55X_Wifi_BLE_SDK/GD32VW55x_RELEASE_V1.0.2/MSDK/wpa_supplicant/src/crypto\des-internal.c **** 		work  = right ^ *keys++;
 356:C:/Users/stapi/OneDrive/Desktop/GD32VW553/V1_MQTT_OK/GD32VW55X_Wifi_BLE_SDK/GD32VW55x_RELEASE_V1.0.2/MSDK/wpa_supplicant/src/crypto\des-internal.c **** 		leftt ^= SP8[ work        & 0x3fL]
 201              		.loc 2 356 15
 202 0088 370F0000 		lui	t5,%hi(.LANCHOR1)
 352:C:/Users/stapi/OneDrive/Desktop/GD32VW553/V1_MQTT_OK/GD32VW55X_Wifi_BLE_SDK/GD32VW55x_RELEASE_V1.0.2/MSDK/wpa_supplicant/src/crypto\des-internal.c **** 			^ SP5[(work >>  8) & 0x3fL]
 203              		.loc 2 352 9
 204 008c B7080000 		lui	a7,%hi(.LANCHOR2)
 354:C:/Users/stapi/OneDrive/Desktop/GD32VW553/V1_MQTT_OK/GD32VW55X_Wifi_BLE_SDK/GD32VW55x_RELEASE_V1.0.2/MSDK/wpa_supplicant/src/crypto\des-internal.c **** 		work  = right ^ *keys++;
 205              		.loc 2 354 9
 206 0090 37060000 		lui	a2,%hi(.LANCHOR4)
 357:C:/Users/stapi/OneDrive/Desktop/GD32VW553/V1_MQTT_OK/GD32VW55X_Wifi_BLE_SDK/GD32VW55x_RELEASE_V1.0.2/MSDK/wpa_supplicant/src/crypto\des-internal.c **** 			^  SP6[(work >>  8) & 0x3fL]
 207              		.loc 2 357 10
 208 0094 B70E0000 		lui	t4,%hi(.LANCHOR5)
 358:C:/Users/stapi/OneDrive/Desktop/GD32VW553/V1_MQTT_OK/GD32VW55X_Wifi_BLE_SDK/GD32VW55x_RELEASE_V1.0.2/MSDK/wpa_supplicant/src/crypto\des-internal.c **** 			^  SP4[(work >> 16) & 0x3fL]
 209              		.loc 2 358 10
 210 0098 370E0000 		lui	t3,%hi(.LANCHOR6)
 359:C:/Users/stapi/OneDrive/Desktop/GD32VW553/V1_MQTT_OK/GD32VW55X_Wifi_BLE_SDK/GD32VW55x_RELEASE_V1.0.2/MSDK/wpa_supplicant/src/crypto\des-internal.c **** 			^  SP2[(work >> 24) & 0x3fL];
 211              		.loc 2 359 10
 212 009c 37030000 		lui	t1,%hi(.LANCHOR7)
 347:C:/Users/stapi/OneDrive/Desktop/GD32VW553/V1_MQTT_OK/GD32VW55X_Wifi_BLE_SDK/GD32VW55x_RELEASE_V1.0.2/MSDK/wpa_supplicant/src/crypto\des-internal.c **** 
 213              		.loc 2 347 8
 214 00a0 33170761 		rol	a4,a4,a6
 215              	.LVL28:
 353:C:/Users/stapi/OneDrive/Desktop/GD32VW553/V1_MQTT_OK/GD32VW55X_Wifi_BLE_SDK/GD32VW55x_RELEASE_V1.0.2/MSDK/wpa_supplicant/src/crypto\des-internal.c **** 			^ SP1[(work >> 24) & 0x3fL];
 216              		.loc 2 353 9
 217 00a4 37080000 		lui	a6,%hi(.LANCHOR3)
 346:C:/Users/stapi/OneDrive/Desktop/GD32VW553/V1_MQTT_OK/GD32VW55X_Wifi_BLE_SDK/GD32VW55x_RELEASE_V1.0.2/MSDK/wpa_supplicant/src/crypto\des-internal.c **** 	leftt = ROLc(leftt, 1);
 218              		.loc 2 346 8
 219 00a8 B58F     		xor	a5,a5,a3
 220              	.LVL29:
 347:C:/Users/stapi/OneDrive/Desktop/GD32VW553/V1_MQTT_OK/GD32VW55X_Wifi_BLE_SDK/GD32VW55x_RELEASE_V1.0.2/MSDK/wpa_supplicant/src/crypto\des-internal.c **** 
 221              		.loc 2 347 2 is_stmt 1
 349:C:/Users/stapi/OneDrive/Desktop/GD32VW553/V1_MQTT_OK/GD32VW55X_Wifi_BLE_SDK/GD32VW55x_RELEASE_V1.0.2/MSDK/wpa_supplicant/src/crypto\des-internal.c **** 		work  = RORc(right, 4) ^ *keys++;
 222              		.loc 2 349 2
 349:C:/Users/stapi/OneDrive/Desktop/GD32VW553/V1_MQTT_OK/GD32VW55X_Wifi_BLE_SDK/GD32VW55x_RELEASE_V1.0.2/MSDK/wpa_supplicant/src/crypto\des-internal.c **** 		work  = RORc(right, 4) ^ *keys++;
 223              		.loc 2 349 22
 224 00aa 93820508 		addi	t0,a1,128
 351:C:/Users/stapi/OneDrive/Desktop/GD32VW553/V1_MQTT_OK/GD32VW55X_Wifi_BLE_SDK/GD32VW55x_RELEASE_V1.0.2/MSDK/wpa_supplicant/src/crypto\des-internal.c **** 			^ SP5[(work >>  8) & 0x3fL]
 225              		.loc 2 351 15 is_stmt 0
 226 00ae 938F0F00 		addi	t6,t6,%lo(.LANCHOR0)
 356:C:/Users/stapi/OneDrive/Desktop/GD32VW553/V1_MQTT_OK/GD32VW55X_Wifi_BLE_SDK/GD32VW55x_RELEASE_V1.0.2/MSDK/wpa_supplicant/src/crypto\des-internal.c **** 			^  SP6[(work >>  8) & 0x3fL]
 227              		.loc 2 356 15
 228 00b2 130F0F00 		addi	t5,t5,%lo(.LANCHOR1)
 352:C:/Users/stapi/OneDrive/Desktop/GD32VW553/V1_MQTT_OK/GD32VW55X_Wifi_BLE_SDK/GD32VW55x_RELEASE_V1.0.2/MSDK/wpa_supplicant/src/crypto\des-internal.c **** 			^ SP3[(work >> 16) & 0x3fL]
 229              		.loc 2 352 9
 230 00b6 93880800 		addi	a7,a7,%lo(.LANCHOR2)
 353:C:/Users/stapi/OneDrive/Desktop/GD32VW553/V1_MQTT_OK/GD32VW55X_Wifi_BLE_SDK/GD32VW55x_RELEASE_V1.0.2/MSDK/wpa_supplicant/src/crypto\des-internal.c **** 			^ SP1[(work >> 24) & 0x3fL];
 231              		.loc 2 353 9
 232 00ba 13080800 		addi	a6,a6,%lo(.LANCHOR3)
 354:C:/Users/stapi/OneDrive/Desktop/GD32VW553/V1_MQTT_OK/GD32VW55X_Wifi_BLE_SDK/GD32VW55x_RELEASE_V1.0.2/MSDK/wpa_supplicant/src/crypto\des-internal.c **** 		work  = right ^ *keys++;
 233              		.loc 2 354 9
 234 00be 13060600 		addi	a2,a2,%lo(.LANCHOR4)
 357:C:/Users/stapi/OneDrive/Desktop/GD32VW553/V1_MQTT_OK/GD32VW55X_Wifi_BLE_SDK/GD32VW55x_RELEASE_V1.0.2/MSDK/wpa_supplicant/src/crypto\des-internal.c **** 			^  SP4[(work >> 16) & 0x3fL]
 235              		.loc 2 357 10
 236 00c2 938E0E00 		addi	t4,t4,%lo(.LANCHOR5)
 358:C:/Users/stapi/OneDrive/Desktop/GD32VW553/V1_MQTT_OK/GD32VW55X_Wifi_BLE_SDK/GD32VW55x_RELEASE_V1.0.2/MSDK/wpa_supplicant/src/crypto\des-internal.c **** 			^  SP2[(work >> 24) & 0x3fL];
 237              		.loc 2 358 10
 238 00c6 130E0E00 		addi	t3,t3,%lo(.LANCHOR6)
 239              		.loc 2 359 10
 240 00ca 13030300 		addi	t1,t1,%lo(.LANCHOR7)
 241              	.LVL30:
 242              	.L4:
 350:C:/Users/stapi/OneDrive/Desktop/GD32VW553/V1_MQTT_OK/GD32VW55X_Wifi_BLE_SDK/GD32VW55x_RELEASE_V1.0.2/MSDK/wpa_supplicant/src/crypto\des-internal.c **** 		leftt ^= SP7[work        & 0x3fL]
 243              		.loc 2 350 3 is_stmt 1 discriminator 3
 350:C:/Users/stapi/OneDrive/Desktop/GD32VW553/V1_MQTT_OK/GD32VW55X_Wifi_BLE_SDK/GD32VW55x_RELEASE_V1.0.2/MSDK/wpa_supplicant/src/crypto\des-internal.c **** 		leftt ^= SP7[work        & 0x3fL]
 244              		.loc 2 350 9 is_stmt 0 discriminator 3
 245 00ce 9441     		lw	a3,0(a1)
 355:C:/Users/stapi/OneDrive/Desktop/GD32VW553/V1_MQTT_OK/GD32VW55X_Wifi_BLE_SDK/GD32VW55x_RELEASE_V1.0.2/MSDK/wpa_supplicant/src/crypto\des-internal.c **** 		leftt ^= SP8[ work        & 0x3fL]
 246              		.loc 2 355 9 discriminator 3
 247 00d0 C041     		lw	s0,4(a1)
 350:C:/Users/stapi/OneDrive/Desktop/GD32VW553/V1_MQTT_OK/GD32VW55X_Wifi_BLE_SDK/GD32VW55x_RELEASE_V1.0.2/MSDK/wpa_supplicant/src/crypto\des-internal.c **** 		leftt ^= SP7[work        & 0x3fL]
 248              		.loc 2 350 11 discriminator 3
 249 00d2 93D34760 		rori	t2,a5,4
 350:C:/Users/stapi/OneDrive/Desktop/GD32VW553/V1_MQTT_OK/GD32VW55X_Wifi_BLE_SDK/GD32VW55x_RELEASE_V1.0.2/MSDK/wpa_supplicant/src/crypto\des-internal.c **** 		leftt ^= SP7[work        & 0x3fL]
 250              		.loc 2 350 9 discriminator 3
 251 00d6 B3C3D300 		xor	t2,t2,a3
 252              	.LVL31:
 351:C:/Users/stapi/OneDrive/Desktop/GD32VW553/V1_MQTT_OK/GD32VW55X_Wifi_BLE_SDK/GD32VW55x_RELEASE_V1.0.2/MSDK/wpa_supplicant/src/crypto\des-internal.c **** 			^ SP5[(work >>  8) & 0x3fL]
 253              		.loc 2 351 3 is_stmt 1 discriminator 3
 355:C:/Users/stapi/OneDrive/Desktop/GD32VW553/V1_MQTT_OK/GD32VW55X_Wifi_BLE_SDK/GD32VW55x_RELEASE_V1.0.2/MSDK/wpa_supplicant/src/crypto\des-internal.c **** 		leftt ^= SP8[ work        & 0x3fL]
 254              		.loc 2 355 3 discriminator 3
 355:C:/Users/stapi/OneDrive/Desktop/GD32VW553/V1_MQTT_OK/GD32VW55X_Wifi_BLE_SDK/GD32VW55x_RELEASE_V1.0.2/MSDK/wpa_supplicant/src/crypto\des-internal.c **** 		leftt ^= SP8[ work        & 0x3fL]
 255              		.loc 2 355 9 is_stmt 0 discriminator 3
 256 00da 3D8C     		xor	s0,a5,s0
 257              	.LVL32:
 356:C:/Users/stapi/OneDrive/Desktop/GD32VW553/V1_MQTT_OK/GD32VW55X_Wifi_BLE_SDK/GD32VW55x_RELEASE_V1.0.2/MSDK/wpa_supplicant/src/crypto\des-internal.c **** 			^  SP6[(work >>  8) & 0x3fL]
 258              		.loc 2 356 3 is_stmt 1 discriminator 3
 351:C:/Users/stapi/OneDrive/Desktop/GD32VW553/V1_MQTT_OK/GD32VW55X_Wifi_BLE_SDK/GD32VW55x_RELEASE_V1.0.2/MSDK/wpa_supplicant/src/crypto\des-internal.c **** 			^ SP5[(work >>  8) & 0x3fL]
 259              		.loc 2 351 28 is_stmt 0 discriminator 3
 260 00dc 93F6F303 		andi	a3,t2,63
 261              	.LVL33:
 356:C:/Users/stapi/OneDrive/Desktop/GD32VW553/V1_MQTT_OK/GD32VW55X_Wifi_BLE_SDK/GD32VW55x_RELEASE_V1.0.2/MSDK/wpa_supplicant/src/crypto\des-internal.c **** 			^  SP6[(work >>  8) & 0x3fL]
 262              		.loc 2 356 29 discriminator 3
 263 00e0 9374F403 		andi	s1,s0,63
 351:C:/Users/stapi/OneDrive/Desktop/GD32VW553/V1_MQTT_OK/GD32VW55X_Wifi_BLE_SDK/GD32VW55x_RELEASE_V1.0.2/MSDK/wpa_supplicant/src/crypto\des-internal.c **** 			^ SP5[(work >>  8) & 0x3fL]
 264              		.loc 2 351 15 discriminator 3
 265 00e4 B3C6F621 		sh2add	a3,a3,t6
 266              	.LVL34:
 356:C:/Users/stapi/OneDrive/Desktop/GD32VW553/V1_MQTT_OK/GD32VW55X_Wifi_BLE_SDK/GD32VW55x_RELEASE_V1.0.2/MSDK/wpa_supplicant/src/crypto\des-internal.c **** 			^  SP6[(work >>  8) & 0x3fL]
 267              		.loc 2 356 15 discriminator 3
 268 00e8 B3C4E421 		sh2add	s1,s1,t5
 356:C:/Users/stapi/OneDrive/Desktop/GD32VW553/V1_MQTT_OK/GD32VW55X_Wifi_BLE_SDK/GD32VW55x_RELEASE_V1.0.2/MSDK/wpa_supplicant/src/crypto\des-internal.c **** 			^  SP6[(work >>  8) & 0x3fL]
 269              		.loc 2 356 9 discriminator 3
 270 00ec 9442     		lw	a3,0(a3)
 271 00ee 8440     		lw	s1,0(s1)
 272 00f0 A58E     		xor	a3,a3,s1
 352:C:/Users/stapi/OneDrive/Desktop/GD32VW553/V1_MQTT_OK/GD32VW55X_Wifi_BLE_SDK/GD32VW55x_RELEASE_V1.0.2/MSDK/wpa_supplicant/src/crypto\des-internal.c **** 			^ SP3[(work >> 16) & 0x3fL]
 273              		.loc 2 352 23 discriminator 3
 274 00f2 93D46300 		srli	s1,t2,6
 352:C:/Users/stapi/OneDrive/Desktop/GD32VW553/V1_MQTT_OK/GD32VW55X_Wifi_BLE_SDK/GD32VW55x_RELEASE_V1.0.2/MSDK/wpa_supplicant/src/crypto\des-internal.c **** 			^ SP3[(work >> 16) & 0x3fL]
 275              		.loc 2 352 9 discriminator 3
 276 00f6 93F4C40F 		andi	s1,s1,252
 277 00fa C694     		add	s1,a7,s1
 356:C:/Users/stapi/OneDrive/Desktop/GD32VW553/V1_MQTT_OK/GD32VW55X_Wifi_BLE_SDK/GD32VW55x_RELEASE_V1.0.2/MSDK/wpa_supplicant/src/crypto\des-internal.c **** 			^  SP6[(work >>  8) & 0x3fL]
 278              		.loc 2 356 9 discriminator 3
 279 00fc 8440     		lw	s1,0(s1)
 280 00fe A58E     		xor	a3,a3,s1
 353:C:/Users/stapi/OneDrive/Desktop/GD32VW553/V1_MQTT_OK/GD32VW55X_Wifi_BLE_SDK/GD32VW55x_RELEASE_V1.0.2/MSDK/wpa_supplicant/src/crypto\des-internal.c **** 			^ SP1[(work >> 24) & 0x3fL];
 281              		.loc 2 353 23 discriminator 3
 282 0100 93D4E300 		srli	s1,t2,14
 353:C:/Users/stapi/OneDrive/Desktop/GD32VW553/V1_MQTT_OK/GD32VW55X_Wifi_BLE_SDK/GD32VW55x_RELEASE_V1.0.2/MSDK/wpa_supplicant/src/crypto\des-internal.c **** 			^ SP1[(work >> 24) & 0x3fL];
 283              		.loc 2 353 9 discriminator 3
 284 0104 93F4C40F 		andi	s1,s1,252
 354:C:/Users/stapi/OneDrive/Desktop/GD32VW553/V1_MQTT_OK/GD32VW55X_Wifi_BLE_SDK/GD32VW55x_RELEASE_V1.0.2/MSDK/wpa_supplicant/src/crypto\des-internal.c **** 		work  = right ^ *keys++;
 285              		.loc 2 354 23 discriminator 3
 286 0108 93D36301 		srli	t2,t2,22
 287              	.LVL35:
 353:C:/Users/stapi/OneDrive/Desktop/GD32VW553/V1_MQTT_OK/GD32VW55X_Wifi_BLE_SDK/GD32VW55x_RELEASE_V1.0.2/MSDK/wpa_supplicant/src/crypto\des-internal.c **** 			^ SP1[(work >> 24) & 0x3fL];
 288              		.loc 2 353 9 discriminator 3
 289 010c C294     		add	s1,a6,s1
 354:C:/Users/stapi/OneDrive/Desktop/GD32VW553/V1_MQTT_OK/GD32VW55X_Wifi_BLE_SDK/GD32VW55x_RELEASE_V1.0.2/MSDK/wpa_supplicant/src/crypto\des-internal.c **** 		work  = right ^ *keys++;
 290              		.loc 2 354 9 discriminator 3
 291 010e 93F3C30F 		andi	t2,t2,252
 356:C:/Users/stapi/OneDrive/Desktop/GD32VW553/V1_MQTT_OK/GD32VW55X_Wifi_BLE_SDK/GD32VW55x_RELEASE_V1.0.2/MSDK/wpa_supplicant/src/crypto\des-internal.c **** 			^  SP6[(work >>  8) & 0x3fL]
 292              		.loc 2 356 9 discriminator 3
 293 0112 8440     		lw	s1,0(s1)
 354:C:/Users/stapi/OneDrive/Desktop/GD32VW553/V1_MQTT_OK/GD32VW55X_Wifi_BLE_SDK/GD32VW55x_RELEASE_V1.0.2/MSDK/wpa_supplicant/src/crypto\des-internal.c **** 		work  = right ^ *keys++;
 294              		.loc 2 354 9 discriminator 3
 295 0114 B293     		add	t2,a2,t2
 356:C:/Users/stapi/OneDrive/Desktop/GD32VW553/V1_MQTT_OK/GD32VW55X_Wifi_BLE_SDK/GD32VW55x_RELEASE_V1.0.2/MSDK/wpa_supplicant/src/crypto\des-internal.c **** 			^  SP6[(work >>  8) & 0x3fL]
 296              		.loc 2 356 9 discriminator 3
 297 0116 83A30300 		lw	t2,0(t2)
 298 011a A58E     		xor	a3,a3,s1
 299 011c B3C67600 		xor	a3,a3,t2
 357:C:/Users/stapi/OneDrive/Desktop/GD32VW553/V1_MQTT_OK/GD32VW55X_Wifi_BLE_SDK/GD32VW55x_RELEASE_V1.0.2/MSDK/wpa_supplicant/src/crypto\des-internal.c **** 			^  SP4[(work >> 16) & 0x3fL]
 300              		.loc 2 357 24 discriminator 3
 301 0120 93536400 		srli	t2,s0,6
 357:C:/Users/stapi/OneDrive/Desktop/GD32VW553/V1_MQTT_OK/GD32VW55X_Wifi_BLE_SDK/GD32VW55x_RELEASE_V1.0.2/MSDK/wpa_supplicant/src/crypto\des-internal.c **** 			^  SP4[(work >> 16) & 0x3fL]
 302              		.loc 2 357 10 discriminator 3
 303 0124 93F3C30F 		andi	t2,t2,252
 304 0128 F693     		add	t2,t4,t2
 356:C:/Users/stapi/OneDrive/Desktop/GD32VW553/V1_MQTT_OK/GD32VW55X_Wifi_BLE_SDK/GD32VW55x_RELEASE_V1.0.2/MSDK/wpa_supplicant/src/crypto\des-internal.c **** 			^  SP6[(work >>  8) & 0x3fL]
 305              		.loc 2 356 9 discriminator 3
 306 012a 83A30300 		lw	t2,0(t2)
 307 012e B3C67600 		xor	a3,a3,t2
 358:C:/Users/stapi/OneDrive/Desktop/GD32VW553/V1_MQTT_OK/GD32VW55X_Wifi_BLE_SDK/GD32VW55x_RELEASE_V1.0.2/MSDK/wpa_supplicant/src/crypto\des-internal.c **** 			^  SP2[(work >> 24) & 0x3fL];
 308              		.loc 2 358 24 discriminator 3
 309 0132 9353E400 		srli	t2,s0,14
 358:C:/Users/stapi/OneDrive/Desktop/GD32VW553/V1_MQTT_OK/GD32VW55X_Wifi_BLE_SDK/GD32VW55x_RELEASE_V1.0.2/MSDK/wpa_supplicant/src/crypto\des-internal.c **** 			^  SP2[(work >> 24) & 0x3fL];
 310              		.loc 2 358 10 discriminator 3
 311 0136 93F3C30F 		andi	t2,t2,252
 312 013a F293     		add	t2,t3,t2
 356:C:/Users/stapi/OneDrive/Desktop/GD32VW553/V1_MQTT_OK/GD32VW55X_Wifi_BLE_SDK/GD32VW55x_RELEASE_V1.0.2/MSDK/wpa_supplicant/src/crypto\des-internal.c **** 			^  SP6[(work >>  8) & 0x3fL]
 313              		.loc 2 356 9 discriminator 3
 314 013c 83A30300 		lw	t2,0(t2)
 315              		.loc 2 359 24 discriminator 3
 316 0140 5980     		srli	s0,s0,22
 317              	.LVL36:
 318              		.loc 2 359 10 discriminator 3
 319 0142 1374C40F 		andi	s0,s0,252
 320 0146 1A94     		add	s0,t1,s0
 356:C:/Users/stapi/OneDrive/Desktop/GD32VW553/V1_MQTT_OK/GD32VW55X_Wifi_BLE_SDK/GD32VW55x_RELEASE_V1.0.2/MSDK/wpa_supplicant/src/crypto\des-internal.c **** 			^  SP6[(work >>  8) & 0x3fL]
 321              		.loc 2 356 9 discriminator 3
 322 0148 B3C67600 		xor	a3,a3,t2
 323 014c 83230400 		lw	t2,0(s0)
 324 0150 B3C67600 		xor	a3,a3,t2
 325 0154 358F     		xor	a4,a4,a3
 326              	.LVL37:
 360:C:/Users/stapi/OneDrive/Desktop/GD32VW553/V1_MQTT_OK/GD32VW55X_Wifi_BLE_SDK/GD32VW55x_RELEASE_V1.0.2/MSDK/wpa_supplicant/src/crypto\des-internal.c **** 
 361:C:/Users/stapi/OneDrive/Desktop/GD32VW553/V1_MQTT_OK/GD32VW55X_Wifi_BLE_SDK/GD32VW55x_RELEASE_V1.0.2/MSDK/wpa_supplicant/src/crypto\des-internal.c **** 		work = RORc(leftt, 4) ^ *keys++;
 327              		.loc 2 361 3 is_stmt 1 discriminator 3
 328              		.loc 2 361 8 is_stmt 0 discriminator 3
 329 0156 9445     		lw	a3,8(a1)
 330              		.loc 2 361 10 discriminator 3
 331 0158 93534760 		rori	t2,a4,4
 332 015c C105     		addi	a1,a1,16
 333              	.LVL38:
 362:C:/Users/stapi/OneDrive/Desktop/GD32VW553/V1_MQTT_OK/GD32VW55X_Wifi_BLE_SDK/GD32VW55x_RELEASE_V1.0.2/MSDK/wpa_supplicant/src/crypto\des-internal.c **** 		right ^= SP7[ work        & 0x3fL]
 363:C:/Users/stapi/OneDrive/Desktop/GD32VW553/V1_MQTT_OK/GD32VW55X_Wifi_BLE_SDK/GD32VW55x_RELEASE_V1.0.2/MSDK/wpa_supplicant/src/crypto\des-internal.c **** 			^  SP5[(work >>  8) & 0x3fL]
 364:C:/Users/stapi/OneDrive/Desktop/GD32VW553/V1_MQTT_OK/GD32VW55X_Wifi_BLE_SDK/GD32VW55x_RELEASE_V1.0.2/MSDK/wpa_supplicant/src/crypto\des-internal.c **** 			^  SP3[(work >> 16) & 0x3fL]
 365:C:/Users/stapi/OneDrive/Desktop/GD32VW553/V1_MQTT_OK/GD32VW55X_Wifi_BLE_SDK/GD32VW55x_RELEASE_V1.0.2/MSDK/wpa_supplicant/src/crypto\des-internal.c **** 			^  SP1[(work >> 24) & 0x3fL];
 366:C:/Users/stapi/OneDrive/Desktop/GD32VW553/V1_MQTT_OK/GD32VW55X_Wifi_BLE_SDK/GD32VW55x_RELEASE_V1.0.2/MSDK/wpa_supplicant/src/crypto\des-internal.c **** 		work  = leftt ^ *keys++;
 334              		.loc 2 366 9 discriminator 3
 335 015e 03A4C5FF 		lw	s0,-4(a1)
 361:C:/Users/stapi/OneDrive/Desktop/GD32VW553/V1_MQTT_OK/GD32VW55X_Wifi_BLE_SDK/GD32VW55x_RELEASE_V1.0.2/MSDK/wpa_supplicant/src/crypto\des-internal.c **** 		right ^= SP7[ work        & 0x3fL]
 336              		.loc 2 361 8 discriminator 3
 337 0162 B3C3D300 		xor	t2,t2,a3
 338              	.LVL39:
 362:C:/Users/stapi/OneDrive/Desktop/GD32VW553/V1_MQTT_OK/GD32VW55X_Wifi_BLE_SDK/GD32VW55x_RELEASE_V1.0.2/MSDK/wpa_supplicant/src/crypto\des-internal.c **** 		right ^= SP7[ work        & 0x3fL]
 339              		.loc 2 362 3 is_stmt 1 discriminator 3
 340              		.loc 2 366 3 discriminator 3
 362:C:/Users/stapi/OneDrive/Desktop/GD32VW553/V1_MQTT_OK/GD32VW55X_Wifi_BLE_SDK/GD32VW55x_RELEASE_V1.0.2/MSDK/wpa_supplicant/src/crypto\des-internal.c **** 		right ^= SP7[ work        & 0x3fL]
 341              		.loc 2 362 29 is_stmt 0 discriminator 3
 342 0166 93F6F303 		andi	a3,t2,63
 343              	.LVL40:
 344              		.loc 2 366 9 discriminator 3
 345 016a 398C     		xor	s0,a4,s0
 346              	.LVL41:
 367:C:/Users/stapi/OneDrive/Desktop/GD32VW553/V1_MQTT_OK/GD32VW55X_Wifi_BLE_SDK/GD32VW55x_RELEASE_V1.0.2/MSDK/wpa_supplicant/src/crypto\des-internal.c **** 		right ^= SP8[ work        & 0x3fL]
 347              		.loc 2 367 3 is_stmt 1 discriminator 3
 348              		.loc 2 367 29 is_stmt 0 discriminator 3
 349 016c 9374F403 		andi	s1,s0,63
 362:C:/Users/stapi/OneDrive/Desktop/GD32VW553/V1_MQTT_OK/GD32VW55X_Wifi_BLE_SDK/GD32VW55x_RELEASE_V1.0.2/MSDK/wpa_supplicant/src/crypto\des-internal.c **** 		right ^= SP7[ work        & 0x3fL]
 350              		.loc 2 362 15 discriminator 3
 351 0170 B3C6F621 		sh2add	a3,a3,t6
 352              	.LVL42:
 353              		.loc 2 367 15 discriminator 3
 354 0174 B3C4E421 		sh2add	s1,s1,t5
 355 0178 9442     		lw	a3,0(a3)
 356 017a 8440     		lw	s1,0(s1)
 357 017c A58E     		xor	a3,a3,s1
 358 017e B58F     		xor	a5,a3,a5
 359              	.LVL43:
 368:C:/Users/stapi/OneDrive/Desktop/GD32VW553/V1_MQTT_OK/GD32VW55X_Wifi_BLE_SDK/GD32VW55x_RELEASE_V1.0.2/MSDK/wpa_supplicant/src/crypto\des-internal.c **** 			^  SP6[(work >>  8) & 0x3fL]
 360              		.loc 2 368 24 discriminator 3
 361 0180 93566400 		srli	a3,s0,6
 362              		.loc 2 368 10 discriminator 3
 363 0184 93F6C60F 		andi	a3,a3,252
 364 0188 F696     		add	a3,t4,a3
 365 018a 9442     		lw	a3,0(a3)
 366 018c B58F     		xor	a5,a5,a3
 369:C:/Users/stapi/OneDrive/Desktop/GD32VW553/V1_MQTT_OK/GD32VW55X_Wifi_BLE_SDK/GD32VW55x_RELEASE_V1.0.2/MSDK/wpa_supplicant/src/crypto\des-internal.c **** 			^  SP4[(work >> 16) & 0x3fL]
 367              		.loc 2 369 24 discriminator 3
 368 018e 9356E400 		srli	a3,s0,14
 369              		.loc 2 369 10 discriminator 3
 370 0192 93F6C60F 		andi	a3,a3,252
 371 0196 F296     		add	a3,t3,a3
 372 0198 9442     		lw	a3,0(a3)
 370:C:/Users/stapi/OneDrive/Desktop/GD32VW553/V1_MQTT_OK/GD32VW55X_Wifi_BLE_SDK/GD32VW55x_RELEASE_V1.0.2/MSDK/wpa_supplicant/src/crypto\des-internal.c **** 			^  SP2[(work >> 24) & 0x3fL];
 373              		.loc 2 370 24 discriminator 3
 374 019a 5980     		srli	s0,s0,22
 375              	.LVL44:
 376              		.loc 2 370 10 discriminator 3
 377 019c 1374C40F 		andi	s0,s0,252
 378 01a0 1A94     		add	s0,t1,s0
 379 01a2 B58F     		xor	a5,a5,a3
 380 01a4 1440     		lw	a3,0(s0)
 381 01a6 B58F     		xor	a5,a5,a3
 363:C:/Users/stapi/OneDrive/Desktop/GD32VW553/V1_MQTT_OK/GD32VW55X_Wifi_BLE_SDK/GD32VW55x_RELEASE_V1.0.2/MSDK/wpa_supplicant/src/crypto\des-internal.c **** 			^  SP3[(work >> 16) & 0x3fL]
 382              		.loc 2 363 24 discriminator 3
 383 01a8 93D66300 		srli	a3,t2,6
 363:C:/Users/stapi/OneDrive/Desktop/GD32VW553/V1_MQTT_OK/GD32VW55X_Wifi_BLE_SDK/GD32VW55x_RELEASE_V1.0.2/MSDK/wpa_supplicant/src/crypto\des-internal.c **** 			^  SP3[(work >> 16) & 0x3fL]
 384              		.loc 2 363 10 discriminator 3
 385 01ac 93F6C60F 		andi	a3,a3,252
 386 01b0 C696     		add	a3,a7,a3
 387 01b2 9442     		lw	a3,0(a3)
 388 01b4 B58F     		xor	a5,a5,a3
 364:C:/Users/stapi/OneDrive/Desktop/GD32VW553/V1_MQTT_OK/GD32VW55X_Wifi_BLE_SDK/GD32VW55x_RELEASE_V1.0.2/MSDK/wpa_supplicant/src/crypto\des-internal.c **** 			^  SP1[(work >> 24) & 0x3fL];
 389              		.loc 2 364 24 discriminator 3
 390 01b6 93D6E300 		srli	a3,t2,14
 364:C:/Users/stapi/OneDrive/Desktop/GD32VW553/V1_MQTT_OK/GD32VW55X_Wifi_BLE_SDK/GD32VW55x_RELEASE_V1.0.2/MSDK/wpa_supplicant/src/crypto\des-internal.c **** 			^  SP1[(work >> 24) & 0x3fL];
 391              		.loc 2 364 10 discriminator 3
 392 01ba 93F6C60F 		andi	a3,a3,252
 393 01be C296     		add	a3,a6,a3
 394 01c0 9442     		lw	a3,0(a3)
 365:C:/Users/stapi/OneDrive/Desktop/GD32VW553/V1_MQTT_OK/GD32VW55X_Wifi_BLE_SDK/GD32VW55x_RELEASE_V1.0.2/MSDK/wpa_supplicant/src/crypto\des-internal.c **** 		work  = leftt ^ *keys++;
 395              		.loc 2 365 24 discriminator 3
 396 01c2 93D36301 		srli	t2,t2,22
 365:C:/Users/stapi/OneDrive/Desktop/GD32VW553/V1_MQTT_OK/GD32VW55X_Wifi_BLE_SDK/GD32VW55x_RELEASE_V1.0.2/MSDK/wpa_supplicant/src/crypto\des-internal.c **** 		work  = leftt ^ *keys++;
 397              		.loc 2 365 10 discriminator 3
 398 01c6 93F3C30F 		andi	t2,t2,252
 399 01ca B293     		add	t2,a2,t2
 400 01cc B58F     		xor	a5,a5,a3
 367:C:/Users/stapi/OneDrive/Desktop/GD32VW553/V1_MQTT_OK/GD32VW55X_Wifi_BLE_SDK/GD32VW55x_RELEASE_V1.0.2/MSDK/wpa_supplicant/src/crypto\des-internal.c **** 			^  SP6[(work >>  8) & 0x3fL]
 401              		.loc 2 367 9 discriminator 3
 402 01ce 83A60300 		lw	a3,0(t2)
 403 01d2 B58F     		xor	a5,a5,a3
 404              	.LVL45:
 349:C:/Users/stapi/OneDrive/Desktop/GD32VW553/V1_MQTT_OK/GD32VW55X_Wifi_BLE_SDK/GD32VW55x_RELEASE_V1.0.2/MSDK/wpa_supplicant/src/crypto\des-internal.c **** 		work  = RORc(right, 4) ^ *keys++;
 405              		.loc 2 349 37 is_stmt 1 discriminator 3
 349:C:/Users/stapi/OneDrive/Desktop/GD32VW553/V1_MQTT_OK/GD32VW55X_Wifi_BLE_SDK/GD32VW55x_RELEASE_V1.0.2/MSDK/wpa_supplicant/src/crypto\des-internal.c **** 		work  = RORc(right, 4) ^ *keys++;
 406              		.loc 2 349 22 discriminator 3
 349:C:/Users/stapi/OneDrive/Desktop/GD32VW553/V1_MQTT_OK/GD32VW55X_Wifi_BLE_SDK/GD32VW55x_RELEASE_V1.0.2/MSDK/wpa_supplicant/src/crypto\des-internal.c **** 		work  = RORc(right, 4) ^ *keys++;
 407              		.loc 2 349 2 is_stmt 0 discriminator 3
 408 01d4 E39D55EE 		bne	a1,t0,.L4
 371:C:/Users/stapi/OneDrive/Desktop/GD32VW553/V1_MQTT_OK/GD32VW55X_Wifi_BLE_SDK/GD32VW55x_RELEASE_V1.0.2/MSDK/wpa_supplicant/src/crypto\des-internal.c **** 	}
 372:C:/Users/stapi/OneDrive/Desktop/GD32VW553/V1_MQTT_OK/GD32VW55X_Wifi_BLE_SDK/GD32VW55x_RELEASE_V1.0.2/MSDK/wpa_supplicant/src/crypto\des-internal.c **** 
 373:C:/Users/stapi/OneDrive/Desktop/GD32VW553/V1_MQTT_OK/GD32VW55X_Wifi_BLE_SDK/GD32VW55x_RELEASE_V1.0.2/MSDK/wpa_supplicant/src/crypto\des-internal.c **** 	right = RORc(right, 1);
 409              		.loc 2 373 2 is_stmt 1
 374:C:/Users/stapi/OneDrive/Desktop/GD32VW553/V1_MQTT_OK/GD32VW55X_Wifi_BLE_SDK/GD32VW55x_RELEASE_V1.0.2/MSDK/wpa_supplicant/src/crypto\des-internal.c **** 	work = (leftt ^ right) & 0xaaaaaaaaL;
 410              		.loc 2 374 7 is_stmt 0
 411 01d8 37B6AAAA 		li	a2,-1431654400
 412 01dc 1306A6AA 		addi	a2,a2,-1366
 373:C:/Users/stapi/OneDrive/Desktop/GD32VW553/V1_MQTT_OK/GD32VW55X_Wifi_BLE_SDK/GD32VW55x_RELEASE_V1.0.2/MSDK/wpa_supplicant/src/crypto\des-internal.c **** 	work = (leftt ^ right) & 0xaaaaaaaaL;
 413              		.loc 2 373 8
 414 01e0 93D71760 		rori	a5,a5,1
 415              	.LVL46:
 416              		.loc 2 374 2 is_stmt 1
 417              		.loc 2 374 16 is_stmt 0
 418 01e4 B3C6E700 		xor	a3,a5,a4
 419              		.loc 2 374 7
 420 01e8 F18E     		and	a3,a3,a2
 421              	.LVL47:
 375:C:/Users/stapi/OneDrive/Desktop/GD32VW553/V1_MQTT_OK/GD32VW55X_Wifi_BLE_SDK/GD32VW55x_RELEASE_V1.0.2/MSDK/wpa_supplicant/src/crypto\des-internal.c **** 	leftt ^= work;
 422              		.loc 2 375 2 is_stmt 1
 423              		.loc 2 375 8 is_stmt 0
 424 01ea 358F     		xor	a4,a3,a4
 425              	.LVL48:
 376:C:/Users/stapi/OneDrive/Desktop/GD32VW553/V1_MQTT_OK/GD32VW55X_Wifi_BLE_SDK/GD32VW55x_RELEASE_V1.0.2/MSDK/wpa_supplicant/src/crypto\des-internal.c **** 	right ^= work;
 426              		.loc 2 376 2 is_stmt 1
 427              		.loc 2 376 8 is_stmt 0
 428 01ec B58F     		xor	a5,a5,a3
 429              	.LVL49:
 377:C:/Users/stapi/OneDrive/Desktop/GD32VW553/V1_MQTT_OK/GD32VW55X_Wifi_BLE_SDK/GD32VW55x_RELEASE_V1.0.2/MSDK/wpa_supplicant/src/crypto\des-internal.c **** 	leftt = RORc(leftt, 1);
 430              		.loc 2 377 2 is_stmt 1
 431              		.loc 2 377 8 is_stmt 0
 432 01ee 13571760 		rori	a4,a4,1
 433              	.LVL50:
 378:C:/Users/stapi/OneDrive/Desktop/GD32VW553/V1_MQTT_OK/GD32VW55X_Wifi_BLE_SDK/GD32VW55x_RELEASE_V1.0.2/MSDK/wpa_supplicant/src/crypto\des-internal.c **** 	work = ((leftt >> 8) ^ right) & 0x00ff00ffL;
 434              		.loc 2 378 2 is_stmt 1
 435              		.loc 2 378 7 is_stmt 0
 436 01f2 B706FF00 		li	a3,16711680
 437              	.LVL51:
 438              		.loc 2 378 17
 439 01f6 13568700 		srli	a2,a4,8
 440              		.loc 2 378 23
 441 01fa 3D8E     		xor	a2,a2,a5
 442              		.loc 2 378 7
 443 01fc 9386F60F 		addi	a3,a3,255
 444 0200 758E     		and	a2,a2,a3
 445              	.LVL52:
 379:C:/Users/stapi/OneDrive/Desktop/GD32VW553/V1_MQTT_OK/GD32VW55X_Wifi_BLE_SDK/GD32VW55x_RELEASE_V1.0.2/MSDK/wpa_supplicant/src/crypto\des-internal.c **** 	right ^= work;
 446              		.loc 2 379 2 is_stmt 1
 447              		.loc 2 379 8 is_stmt 0
 448 0202 B18F     		xor	a5,a5,a2
 449              	.LVL53:
 380:C:/Users/stapi/OneDrive/Desktop/GD32VW553/V1_MQTT_OK/GD32VW55X_Wifi_BLE_SDK/GD32VW55x_RELEASE_V1.0.2/MSDK/wpa_supplicant/src/crypto\des-internal.c **** 	leftt ^= (work << 8);
 450              		.loc 2 380 2 is_stmt 1
 451              		.loc 2 380 17 is_stmt 0
 452 0204 2206     		slli	a2,a2,8
 453              	.LVL54:
 454              		.loc 2 380 8
 455 0206 398E     		xor	a2,a2,a4
 456              	.LVL55:
 381:C:/Users/stapi/OneDrive/Desktop/GD32VW553/V1_MQTT_OK/GD32VW55X_Wifi_BLE_SDK/GD32VW55x_RELEASE_V1.0.2/MSDK/wpa_supplicant/src/crypto\des-internal.c **** 	/* -- */
 382:C:/Users/stapi/OneDrive/Desktop/GD32VW553/V1_MQTT_OK/GD32VW55X_Wifi_BLE_SDK/GD32VW55x_RELEASE_V1.0.2/MSDK/wpa_supplicant/src/crypto\des-internal.c **** 	work = ((leftt >> 2) ^ right) & 0x33333333L;
 457              		.loc 2 382 2 is_stmt 1
 458              		.loc 2 382 17 is_stmt 0
 459 0208 93562600 		srli	a3,a2,2
 460              		.loc 2 382 7
 461 020c 37373333 		li	a4,858992640
 462              		.loc 2 382 23
 463 0210 BD8E     		xor	a3,a3,a5
 464              		.loc 2 382 7
 465 0212 13073733 		addi	a4,a4,819
 466 0216 F98E     		and	a3,a3,a4
 467              	.LVL56:
 383:C:/Users/stapi/OneDrive/Desktop/GD32VW553/V1_MQTT_OK/GD32VW55X_Wifi_BLE_SDK/GD32VW55x_RELEASE_V1.0.2/MSDK/wpa_supplicant/src/crypto\des-internal.c **** 	right ^= work;
 468              		.loc 2 383 2 is_stmt 1
 469              		.loc 2 383 8 is_stmt 0
 470 0218 B58F     		xor	a5,a5,a3
 471              	.LVL57:
 384:C:/Users/stapi/OneDrive/Desktop/GD32VW553/V1_MQTT_OK/GD32VW55X_Wifi_BLE_SDK/GD32VW55x_RELEASE_V1.0.2/MSDK/wpa_supplicant/src/crypto\des-internal.c **** 	leftt ^= (work << 2);
 472              		.loc 2 384 2 is_stmt 1
 473              		.loc 2 384 17 is_stmt 0
 474 021a 13972600 		slli	a4,a3,2
 475              		.loc 2 384 8
 476 021e 318F     		xor	a4,a4,a2
 477              	.LVL58:
 385:C:/Users/stapi/OneDrive/Desktop/GD32VW553/V1_MQTT_OK/GD32VW55X_Wifi_BLE_SDK/GD32VW55x_RELEASE_V1.0.2/MSDK/wpa_supplicant/src/crypto\des-internal.c **** 	work = ((right >> 16) ^ leftt) & 0x0000ffffL;
 478              		.loc 2 385 2 is_stmt 1
 479              		.loc 2 385 17 is_stmt 0
 480 0220 93D60701 		srli	a3,a5,16
 481              	.LVL59:
 482              		.loc 2 385 24
 483 0224 B98E     		xor	a3,a3,a4
 484              		.loc 2 385 7
 485 0226 B3C60608 		zext.h	a3,a3
 486              	.LVL60:
 386:C:/Users/stapi/OneDrive/Desktop/GD32VW553/V1_MQTT_OK/GD32VW55X_Wifi_BLE_SDK/GD32VW55x_RELEASE_V1.0.2/MSDK/wpa_supplicant/src/crypto\des-internal.c **** 	leftt ^= work;
 487              		.loc 2 386 2 is_stmt 1
 488              		.loc 2 386 8 is_stmt 0
 489 022a 358F     		xor	a4,a4,a3
 490              	.LVL61:
 387:C:/Users/stapi/OneDrive/Desktop/GD32VW553/V1_MQTT_OK/GD32VW55X_Wifi_BLE_SDK/GD32VW55x_RELEASE_V1.0.2/MSDK/wpa_supplicant/src/crypto\des-internal.c **** 	right ^= (work << 16);
 491              		.loc 2 387 2 is_stmt 1
 492              		.loc 2 387 17 is_stmt 0
 493 022c C206     		slli	a3,a3,16
 494              	.LVL62:
 495              		.loc 2 387 8
 496 022e B58F     		xor	a5,a3,a5
 497              	.LVL63:
 388:C:/Users/stapi/OneDrive/Desktop/GD32VW553/V1_MQTT_OK/GD32VW55X_Wifi_BLE_SDK/GD32VW55x_RELEASE_V1.0.2/MSDK/wpa_supplicant/src/crypto\des-internal.c **** 	work = ((right >> 4) ^ leftt) & 0x0f0f0f0fL;
 498              		.loc 2 388 2 is_stmt 1
 499              		.loc 2 388 17 is_stmt 0
 500 0230 93D64700 		srli	a3,a5,4
 501              		.loc 2 388 7
 502 0234 37160F0F 		li	a2,252645376
 503              		.loc 2 388 23
 504 0238 B98E     		xor	a3,a3,a4
 505              		.loc 2 388 7
 506 023a 1306F6F0 		addi	a2,a2,-241
 507 023e F18E     		and	a3,a3,a2
 508              	.LVL64:
 389:C:/Users/stapi/OneDrive/Desktop/GD32VW553/V1_MQTT_OK/GD32VW55X_Wifi_BLE_SDK/GD32VW55x_RELEASE_V1.0.2/MSDK/wpa_supplicant/src/crypto\des-internal.c **** 	leftt ^= work;
 509              		.loc 2 389 2 is_stmt 1
 390:C:/Users/stapi/OneDrive/Desktop/GD32VW553/V1_MQTT_OK/GD32VW55X_Wifi_BLE_SDK/GD32VW55x_RELEASE_V1.0.2/MSDK/wpa_supplicant/src/crypto\des-internal.c **** 	right ^= (work << 4);
 510              		.loc 2 390 2
 391:C:/Users/stapi/OneDrive/Desktop/GD32VW553/V1_MQTT_OK/GD32VW55X_Wifi_BLE_SDK/GD32VW55x_RELEASE_V1.0.2/MSDK/wpa_supplicant/src/crypto\des-internal.c **** 
 392:C:/Users/stapi/OneDrive/Desktop/GD32VW553/V1_MQTT_OK/GD32VW55X_Wifi_BLE_SDK/GD32VW55x_RELEASE_V1.0.2/MSDK/wpa_supplicant/src/crypto\des-internal.c **** 	block[0] = right;
 511              		.loc 2 392 2
 390:C:/Users/stapi/OneDrive/Desktop/GD32VW553/V1_MQTT_OK/GD32VW55X_Wifi_BLE_SDK/GD32VW55x_RELEASE_V1.0.2/MSDK/wpa_supplicant/src/crypto\des-internal.c **** 	right ^= (work << 4);
 512              		.loc 2 390 17 is_stmt 0
 513 0240 13964600 		slli	a2,a3,4
 390:C:/Users/stapi/OneDrive/Desktop/GD32VW553/V1_MQTT_OK/GD32VW55X_Wifi_BLE_SDK/GD32VW55x_RELEASE_V1.0.2/MSDK/wpa_supplicant/src/crypto\des-internal.c **** 	right ^= (work << 4);
 514              		.loc 2 390 8
 515 0244 B18F     		xor	a5,a2,a5
 516              	.LVL65:
 389:C:/Users/stapi/OneDrive/Desktop/GD32VW553/V1_MQTT_OK/GD32VW55X_Wifi_BLE_SDK/GD32VW55x_RELEASE_V1.0.2/MSDK/wpa_supplicant/src/crypto\des-internal.c **** 	right ^= (work << 4);
 517              		.loc 2 389 8
 518 0246 358F     		xor	a4,a4,a3
 519              	.LVL66:
 520              		.loc 2 392 11
 521 0248 1CC1     		sw	a5,0(a0)
 393:C:/Users/stapi/OneDrive/Desktop/GD32VW553/V1_MQTT_OK/GD32VW55X_Wifi_BLE_SDK/GD32VW55x_RELEASE_V1.0.2/MSDK/wpa_supplicant/src/crypto\des-internal.c **** 	block[1] = leftt;
 522              		.loc 2 393 2 is_stmt 1
 523              		.loc 2 393 11 is_stmt 0
 524 024a 58C1     		sw	a4,4(a0)
 394:C:/Users/stapi/OneDrive/Desktop/GD32VW553/V1_MQTT_OK/GD32VW55X_Wifi_BLE_SDK/GD32VW55x_RELEASE_V1.0.2/MSDK/wpa_supplicant/src/crypto\des-internal.c **** }
 525              		.loc 2 394 1
 526 024c 17030000 		tail	__riscv_restore_2
 526      67000300 
 527              		.cfi_restore 9
 528              		.cfi_restore 8
 529              		.cfi_def_cfa_offset 0
 530              		.cfi_endproc
 531              	.LFE73:
 533              		.section	.text.deskey,"ax",@progbits
 534              		.align	1
 536              	deskey:
 537              	.LFB72:
 274:C:/Users/stapi/OneDrive/Desktop/GD32VW553/V1_MQTT_OK/GD32VW55X_Wifi_BLE_SDK/GD32VW55x_RELEASE_V1.0.2/MSDK/wpa_supplicant/src/crypto\des-internal.c **** 	u32 i, j, l, m, n, kn[32];
 538              		.loc 2 274 1 is_stmt 1
 539              		.cfi_startproc
 540              	.LVL67:
 541 0000 17030000 		call	t0,__riscv_save_4
 541      E7020300 
 542              		.cfi_offset 19, -20
 543              		.cfi_offset 18, -16
 544              		.cfi_offset 9, -12
 545              		.cfi_offset 8, -8
 546              		.cfi_offset 1, -4
 547              		.cfi_def_cfa_offset 32
 275:C:/Users/stapi/OneDrive/Desktop/GD32VW553/V1_MQTT_OK/GD32VW55X_Wifi_BLE_SDK/GD32VW55x_RELEASE_V1.0.2/MSDK/wpa_supplicant/src/crypto\des-internal.c **** 	u8 pc1m[56], pcr[56];
 548              		.loc 2 275 2
 276:C:/Users/stapi/OneDrive/Desktop/GD32VW553/V1_MQTT_OK/GD32VW55X_Wifi_BLE_SDK/GD32VW55x_RELEASE_V1.0.2/MSDK/wpa_supplicant/src/crypto\des-internal.c **** 
 549              		.loc 2 276 2
 278:C:/Users/stapi/OneDrive/Desktop/GD32VW553/V1_MQTT_OK/GD32VW55X_Wifi_BLE_SDK/GD32VW55x_RELEASE_V1.0.2/MSDK/wpa_supplicant/src/crypto\des-internal.c **** 		l = (u32) pc1[j];
 550              		.loc 2 278 2
 551              	.LVL68:
 278:C:/Users/stapi/OneDrive/Desktop/GD32VW553/V1_MQTT_OK/GD32VW55X_Wifi_BLE_SDK/GD32VW55x_RELEASE_V1.0.2/MSDK/wpa_supplicant/src/crypto\des-internal.c **** 		l = (u32) pc1[j];
 552              		.loc 2 278 14
 279:C:/Users/stapi/OneDrive/Desktop/GD32VW553/V1_MQTT_OK/GD32VW55X_Wifi_BLE_SDK/GD32VW55x_RELEASE_V1.0.2/MSDK/wpa_supplicant/src/crypto\des-internal.c **** 		m = l & 7;
 553              		.loc 2 279 16 is_stmt 0
 554 0008 B7080000 		lui	a7,%hi(.LANCHOR8)
 282:C:/Users/stapi/OneDrive/Desktop/GD32VW553/V1_MQTT_OK/GD32VW55X_Wifi_BLE_SDK/GD32VW55x_RELEASE_V1.0.2/MSDK/wpa_supplicant/src/crypto\des-internal.c **** 	}
 555              		.loc 2 282 28
 556 000c 37080000 		lui	a6,%hi(.LANCHOR9)
 274:C:/Users/stapi/OneDrive/Desktop/GD32VW553/V1_MQTT_OK/GD32VW55X_Wifi_BLE_SDK/GD32VW55x_RELEASE_V1.0.2/MSDK/wpa_supplicant/src/crypto\des-internal.c **** 	u32 i, j, l, m, n, kn[32];
 557              		.loc 2 274 1
 558 0010 AA86     		mv	a3,a0
 559 0012 4971     		addi	sp,sp,-368
 560              		.cfi_def_cfa_offset 400
 274:C:/Users/stapi/OneDrive/Desktop/GD32VW553/V1_MQTT_OK/GD32VW55X_Wifi_BLE_SDK/GD32VW55x_RELEASE_V1.0.2/MSDK/wpa_supplicant/src/crypto\des-internal.c **** 	u32 i, j, l, m, n, kn[32];
 561              		.loc 2 274 1
 562 0014 3285     		mv	a0,a2
 563              	.LVL69:
 278:C:/Users/stapi/OneDrive/Desktop/GD32VW553/V1_MQTT_OK/GD32VW55X_Wifi_BLE_SDK/GD32VW55x_RELEASE_V1.0.2/MSDK/wpa_supplicant/src/crypto\des-internal.c **** 		l = (u32) pc1[j];
 564              		.loc 2 278 9
 565 0016 0147     		li	a4,0
 279:C:/Users/stapi/OneDrive/Desktop/GD32VW553/V1_MQTT_OK/GD32VW55X_Wifi_BLE_SDK/GD32VW55x_RELEASE_V1.0.2/MSDK/wpa_supplicant/src/crypto\des-internal.c **** 		m = l & 7;
 566              		.loc 2 279 16
 567 0018 93880800 		addi	a7,a7,%lo(.LANCHOR8)
 282:C:/Users/stapi/OneDrive/Desktop/GD32VW553/V1_MQTT_OK/GD32VW55X_Wifi_BLE_SDK/GD32VW55x_RELEASE_V1.0.2/MSDK/wpa_supplicant/src/crypto\des-internal.c **** 	}
 568              		.loc 2 282 28
 569 001c 13080800 		addi	a6,a6,%lo(.LANCHOR9)
 278:C:/Users/stapi/OneDrive/Desktop/GD32VW553/V1_MQTT_OK/GD32VW55X_Wifi_BLE_SDK/GD32VW55x_RELEASE_V1.0.2/MSDK/wpa_supplicant/src/crypto\des-internal.c **** 		l = (u32) pc1[j];
 570              		.loc 2 278 2
 571 0020 13038003 		li	t1,56
 572              	.LVL70:
 573              	.L8:
 279:C:/Users/stapi/OneDrive/Desktop/GD32VW553/V1_MQTT_OK/GD32VW55X_Wifi_BLE_SDK/GD32VW55x_RELEASE_V1.0.2/MSDK/wpa_supplicant/src/crypto\des-internal.c **** 		m = l & 7;
 574              		.loc 2 279 3 is_stmt 1
 279:C:/Users/stapi/OneDrive/Desktop/GD32VW553/V1_MQTT_OK/GD32VW55X_Wifi_BLE_SDK/GD32VW55x_RELEASE_V1.0.2/MSDK/wpa_supplicant/src/crypto\des-internal.c **** 		m = l & 7;
 575              		.loc 2 279 16 is_stmt 0
 576 0024 B387E800 		add	a5,a7,a4
 577 0028 83C70700 		lbu	a5,0(a5)
 578              	.LVL71:
 280:C:/Users/stapi/OneDrive/Desktop/GD32VW553/V1_MQTT_OK/GD32VW55X_Wifi_BLE_SDK/GD32VW55x_RELEASE_V1.0.2/MSDK/wpa_supplicant/src/crypto\des-internal.c **** 		pc1m[j] = (u8)
 579              		.loc 2 280 3 is_stmt 1
 281:C:/Users/stapi/OneDrive/Desktop/GD32VW553/V1_MQTT_OK/GD32VW55X_Wifi_BLE_SDK/GD32VW55x_RELEASE_V1.0.2/MSDK/wpa_supplicant/src/crypto\des-internal.c **** 			((key[l >> 3U] & bytebit[m]) == bytebit[m] ? 1 : 0);
 580              		.loc 2 281 3
 280:C:/Users/stapi/OneDrive/Desktop/GD32VW553/V1_MQTT_OK/GD32VW55X_Wifi_BLE_SDK/GD32VW55x_RELEASE_V1.0.2/MSDK/wpa_supplicant/src/crypto\des-internal.c **** 		pc1m[j] = (u8)
 581              		.loc 2 280 5 is_stmt 0
 582 002c 13F67700 		andi	a2,a5,7
 282:C:/Users/stapi/OneDrive/Desktop/GD32VW553/V1_MQTT_OK/GD32VW55X_Wifi_BLE_SDK/GD32VW55x_RELEASE_V1.0.2/MSDK/wpa_supplicant/src/crypto\des-internal.c **** 	}
 583              		.loc 2 282 12
 584 0030 8D83     		srli	a5,a5,3
 585              	.LVL72:
 282:C:/Users/stapi/OneDrive/Desktop/GD32VW553/V1_MQTT_OK/GD32VW55X_Wifi_BLE_SDK/GD32VW55x_RELEASE_V1.0.2/MSDK/wpa_supplicant/src/crypto\des-internal.c **** 	}
 586              		.loc 2 282 9
 587 0032 B697     		add	a5,a3,a5
 282:C:/Users/stapi/OneDrive/Desktop/GD32VW553/V1_MQTT_OK/GD32VW55X_Wifi_BLE_SDK/GD32VW55x_RELEASE_V1.0.2/MSDK/wpa_supplicant/src/crypto\des-internal.c **** 	}
 588              		.loc 2 282 28
 589 0034 33460621 		sh2add	a2,a2,a6
 282:C:/Users/stapi/OneDrive/Desktop/GD32VW553/V1_MQTT_OK/GD32VW55X_Wifi_BLE_SDK/GD32VW55x_RELEASE_V1.0.2/MSDK/wpa_supplicant/src/crypto\des-internal.c **** 	}
 590              		.loc 2 282 9
 591 0038 83C70700 		lbu	a5,0(a5)
 282:C:/Users/stapi/OneDrive/Desktop/GD32VW553/V1_MQTT_OK/GD32VW55X_Wifi_BLE_SDK/GD32VW55x_RELEASE_V1.0.2/MSDK/wpa_supplicant/src/crypto\des-internal.c **** 	}
 592              		.loc 2 282 28
 593 003c 032E0600 		lw	t3,0(a2)
 281:C:/Users/stapi/OneDrive/Desktop/GD32VW553/V1_MQTT_OK/GD32VW55X_Wifi_BLE_SDK/GD32VW55x_RELEASE_V1.0.2/MSDK/wpa_supplicant/src/crypto\des-internal.c **** 			((key[l >> 3U] & bytebit[m]) == bytebit[m] ? 1 : 0);
 594              		.loc 2 281 11
 595 0040 3306E100 		add	a2,sp,a4
 278:C:/Users/stapi/OneDrive/Desktop/GD32VW553/V1_MQTT_OK/GD32VW55X_Wifi_BLE_SDK/GD32VW55x_RELEASE_V1.0.2/MSDK/wpa_supplicant/src/crypto\des-internal.c **** 		l = (u32) pc1[j];
 596              		.loc 2 278 23
 597 0044 0507     		addi	a4,a4,1
 598              	.LVL73:
 281:C:/Users/stapi/OneDrive/Desktop/GD32VW553/V1_MQTT_OK/GD32VW55X_Wifi_BLE_SDK/GD32VW55x_RELEASE_V1.0.2/MSDK/wpa_supplicant/src/crypto\des-internal.c **** 			((key[l >> 3U] & bytebit[m]) == bytebit[m] ? 1 : 0);
 599              		.loc 2 281 13
 600 0046 B377FE40 		andn	a5,t3,a5
 601 004a 93B71700 		seqz	a5,a5
 602 004e 2300F600 		sb	a5,0(a2)
 278:C:/Users/stapi/OneDrive/Desktop/GD32VW553/V1_MQTT_OK/GD32VW55X_Wifi_BLE_SDK/GD32VW55x_RELEASE_V1.0.2/MSDK/wpa_supplicant/src/crypto\des-internal.c **** 		l = (u32) pc1[j];
 603              		.loc 2 278 22 is_stmt 1
 604              	.LVL74:
 278:C:/Users/stapi/OneDrive/Desktop/GD32VW553/V1_MQTT_OK/GD32VW55X_Wifi_BLE_SDK/GD32VW55x_RELEASE_V1.0.2/MSDK/wpa_supplicant/src/crypto\des-internal.c **** 		l = (u32) pc1[j];
 605              		.loc 2 278 14
 278:C:/Users/stapi/OneDrive/Desktop/GD32VW553/V1_MQTT_OK/GD32VW55X_Wifi_BLE_SDK/GD32VW55x_RELEASE_V1.0.2/MSDK/wpa_supplicant/src/crypto\des-internal.c **** 		l = (u32) pc1[j];
 606              		.loc 2 278 2 is_stmt 0
 607 0052 E31967FC 		bne	a4,t1,.L8
 608 0056 B7080000 		lui	a7,%hi(.LANCHOR10)
 609              	.LVL75:
 610 005a 93880800 		addi	a7,a7,%lo(.LANCHOR10)
 611 005e 7948     		li	a6,30
 612 0060 7944     		li	s0,30
 294:C:/Users/stapi/OneDrive/Desktop/GD32VW553/V1_MQTT_OK/GD32VW55X_Wifi_BLE_SDK/GD32VW55x_RELEASE_V1.0.2/MSDK/wpa_supplicant/src/crypto\des-internal.c **** 				pcr[j] = pc1m[l];
 613              		.loc 2 294 7
 614 0062 ED4E     		li	t4,27
 292:C:/Users/stapi/OneDrive/Desktop/GD32VW553/V1_MQTT_OK/GD32VW55X_Wifi_BLE_SDK/GD32VW55x_RELEASE_V1.0.2/MSDK/wpa_supplicant/src/crypto\des-internal.c **** 			l = j + (u32) totrot[i];
 615              		.loc 2 292 3
 616 0064 714F     		li	t5,28
 301:C:/Users/stapi/OneDrive/Desktop/GD32VW553/V1_MQTT_OK/GD32VW55X_Wifi_BLE_SDK/GD32VW55x_RELEASE_V1.0.2/MSDK/wpa_supplicant/src/crypto\des-internal.c **** 				pcr[j] = pc1m[l];
 617              		.loc 2 301 7
 618 0066 930F7003 		li	t6,55
 299:C:/Users/stapi/OneDrive/Desktop/GD32VW553/V1_MQTT_OK/GD32VW55X_Wifi_BLE_SDK/GD32VW55x_RELEASE_V1.0.2/MSDK/wpa_supplicant/src/crypto\des-internal.c **** 			l = j + (u32) totrot[i];
 619              		.loc 2 299 3
 620 006a 93028003 		li	t0,56
 621 006e B7030000 		lui	t2,%hi(.LANCHOR11)
 622 0072 B7000000 		lui	ra,%hi(.LANCHOR12)
 285:C:/Users/stapi/OneDrive/Desktop/GD32VW553/V1_MQTT_OK/GD32VW55X_Wifi_BLE_SDK/GD32VW55x_RELEASE_V1.0.2/MSDK/wpa_supplicant/src/crypto\des-internal.c **** 		if (decrypt)
 623              		.loc 2 285 2
 624 0076 795E     		li	t3,-2
 625              	.LVL76:
 626              	.L19:
 286:C:/Users/stapi/OneDrive/Desktop/GD32VW553/V1_MQTT_OK/GD32VW55X_Wifi_BLE_SDK/GD32VW55x_RELEASE_V1.0.2/MSDK/wpa_supplicant/src/crypto\des-internal.c **** 			m = (15 - i) << 1;
 627              		.loc 2 286 3 is_stmt 1
 287:C:/Users/stapi/OneDrive/Desktop/GD32VW553/V1_MQTT_OK/GD32VW55X_Wifi_BLE_SDK/GD32VW55x_RELEASE_V1.0.2/MSDK/wpa_supplicant/src/crypto\des-internal.c **** 		else
 628              		.loc 2 287 6 is_stmt 0
 629 0078 4287     		mv	a4,a6
 286:C:/Users/stapi/OneDrive/Desktop/GD32VW553/V1_MQTT_OK/GD32VW55X_Wifi_BLE_SDK/GD32VW55x_RELEASE_V1.0.2/MSDK/wpa_supplicant/src/crypto\des-internal.c **** 			m = (15 - i) << 1;
 630              		.loc 2 286 6
 631 007a 99E1     		bne	a1,zero,.L9
 289:C:/Users/stapi/OneDrive/Desktop/GD32VW553/V1_MQTT_OK/GD32VW55X_Wifi_BLE_SDK/GD32VW55x_RELEASE_V1.0.2/MSDK/wpa_supplicant/src/crypto\des-internal.c **** 		n = m + 1;
 632              		.loc 2 289 4 is_stmt 1
 633 007c 33070441 		sub	a4,s0,a6
 634              	.LVL77:
 635              	.L9:
 290:C:/Users/stapi/OneDrive/Desktop/GD32VW553/V1_MQTT_OK/GD32VW55X_Wifi_BLE_SDK/GD32VW55x_RELEASE_V1.0.2/MSDK/wpa_supplicant/src/crypto\des-internal.c **** 		kn[m] = kn[n] = 0L;
 636              		.loc 2 290 3
 290:C:/Users/stapi/OneDrive/Desktop/GD32VW553/V1_MQTT_OK/GD32VW55X_Wifi_BLE_SDK/GD32VW55x_RELEASE_V1.0.2/MSDK/wpa_supplicant/src/crypto\des-internal.c **** 		kn[m] = kn[n] = 0L;
 637              		.loc 2 290 5 is_stmt 0
 638 0080 93071700 		addi	a5,a4,1
 639              	.LVL78:
 291:C:/Users/stapi/OneDrive/Desktop/GD32VW553/V1_MQTT_OK/GD32VW55X_Wifi_BLE_SDK/GD32VW55x_RELEASE_V1.0.2/MSDK/wpa_supplicant/src/crypto\des-internal.c **** 		for (j = 0; j < 28; j++) {
 640              		.loc 2 291 3 is_stmt 1
 291:C:/Users/stapi/OneDrive/Desktop/GD32VW553/V1_MQTT_OK/GD32VW55X_Wifi_BLE_SDK/GD32VW55x_RELEASE_V1.0.2/MSDK/wpa_supplicant/src/crypto\des-internal.c **** 		for (j = 0; j < 28; j++) {
 641              		.loc 2 291 17 is_stmt 0
 642 0084 13962700 		slli	a2,a5,2
 293:C:/Users/stapi/OneDrive/Desktop/GD32VW553/V1_MQTT_OK/GD32VW55X_Wifi_BLE_SDK/GD32VW55x_RELEASE_V1.0.2/MSDK/wpa_supplicant/src/crypto\des-internal.c **** 			if (l < 28)
 643              		.loc 2 293 12
 644 0088 83C40800 		lbu	s1,0(a7)
 291:C:/Users/stapi/OneDrive/Desktop/GD32VW553/V1_MQTT_OK/GD32VW55X_Wifi_BLE_SDK/GD32VW55x_RELEASE_V1.0.2/MSDK/wpa_supplicant/src/crypto\des-internal.c **** 		for (j = 0; j < 28; j++) {
 645              		.loc 2 291 17
 646 008c 9C1A     		addi	a5,sp,368
 647              	.LVL79:
 648 008e B297     		add	a5,a5,a2
 649 0090 23A007F0 		sw	zero,-256(a5)
 291:C:/Users/stapi/OneDrive/Desktop/GD32VW553/V1_MQTT_OK/GD32VW55X_Wifi_BLE_SDK/GD32VW55x_RELEASE_V1.0.2/MSDK/wpa_supplicant/src/crypto\des-internal.c **** 		for (j = 0; j < 28; j++) {
 650              		.loc 2 291 9
 651 0094 0A07     		slli	a4,a4,2
 652              	.LVL80:
 653 0096 9C1A     		addi	a5,sp,368
 654 0098 BA97     		add	a5,a5,a4
 655 009a B3069100 		add	a3,sp,s1
 656 009e 23A007F0 		sw	zero,-256(a5)
 292:C:/Users/stapi/OneDrive/Desktop/GD32VW553/V1_MQTT_OK/GD32VW55X_Wifi_BLE_SDK/GD32VW55x_RELEASE_V1.0.2/MSDK/wpa_supplicant/src/crypto\des-internal.c **** 			l = j + (u32) totrot[i];
 657              		.loc 2 292 3 is_stmt 1
 658              	.LVL81:
 292:C:/Users/stapi/OneDrive/Desktop/GD32VW553/V1_MQTT_OK/GD32VW55X_Wifi_BLE_SDK/GD32VW55x_RELEASE_V1.0.2/MSDK/wpa_supplicant/src/crypto\des-internal.c **** 			l = j + (u32) totrot[i];
 659              		.loc 2 292 15
 293:C:/Users/stapi/OneDrive/Desktop/GD32VW553/V1_MQTT_OK/GD32VW55X_Wifi_BLE_SDK/GD32VW55x_RELEASE_V1.0.2/MSDK/wpa_supplicant/src/crypto\des-internal.c **** 			if (l < 28)
 660              		.loc 2 293 12 is_stmt 0
 661 00a2 3683     		mv	t1,a3
 292:C:/Users/stapi/OneDrive/Desktop/GD32VW553/V1_MQTT_OK/GD32VW55X_Wifi_BLE_SDK/GD32VW55x_RELEASE_V1.0.2/MSDK/wpa_supplicant/src/crypto\des-internal.c **** 			l = j + (u32) totrot[i];
 662              		.loc 2 292 10
 663 00a4 8147     		li	a5,0
 664              	.LVL82:
 665              	.L12:
 293:C:/Users/stapi/OneDrive/Desktop/GD32VW553/V1_MQTT_OK/GD32VW55X_Wifi_BLE_SDK/GD32VW55x_RELEASE_V1.0.2/MSDK/wpa_supplicant/src/crypto\des-internal.c **** 			if (l < 28)
 666              		.loc 2 293 4 is_stmt 1
 294:C:/Users/stapi/OneDrive/Desktop/GD32VW553/V1_MQTT_OK/GD32VW55X_Wifi_BLE_SDK/GD32VW55x_RELEASE_V1.0.2/MSDK/wpa_supplicant/src/crypto\des-internal.c **** 				pcr[j] = pc1m[l];
 667              		.loc 2 294 4
 294:C:/Users/stapi/OneDrive/Desktop/GD32VW553/V1_MQTT_OK/GD32VW55X_Wifi_BLE_SDK/GD32VW55x_RELEASE_V1.0.2/MSDK/wpa_supplicant/src/crypto\des-internal.c **** 				pcr[j] = pc1m[l];
 668              		.loc 2 294 7 is_stmt 0
 669 00a6 3389F400 		add	s2,s1,a5
 670 00aa 63EF2E11 		bgtu	s2,t4,.L10
 295:C:/Users/stapi/OneDrive/Desktop/GD32VW553/V1_MQTT_OK/GD32VW55X_Wifi_BLE_SDK/GD32VW55x_RELEASE_V1.0.2/MSDK/wpa_supplicant/src/crypto\des-internal.c **** 			else
 671              		.loc 2 295 5 is_stmt 1
 295:C:/Users/stapi/OneDrive/Desktop/GD32VW553/V1_MQTT_OK/GD32VW55X_Wifi_BLE_SDK/GD32VW55x_RELEASE_V1.0.2/MSDK/wpa_supplicant/src/crypto\des-internal.c **** 			else
 672              		.loc 2 295 18 is_stmt 0
 673 00ae 03490300 		lbu	s2,0(t1)
 674              	.L11:
 675 00b2 93098103 		addi	s3,sp,56
 676 00b6 BE99     		add	s3,s3,a5
 677 00b8 23802901 		sb	s2,0(s3)
 292:C:/Users/stapi/OneDrive/Desktop/GD32VW553/V1_MQTT_OK/GD32VW55X_Wifi_BLE_SDK/GD32VW55x_RELEASE_V1.0.2/MSDK/wpa_supplicant/src/crypto\des-internal.c **** 			l = j + (u32) totrot[i];
 678              		.loc 2 292 23 is_stmt 1 discriminator 2
 292:C:/Users/stapi/OneDrive/Desktop/GD32VW553/V1_MQTT_OK/GD32VW55X_Wifi_BLE_SDK/GD32VW55x_RELEASE_V1.0.2/MSDK/wpa_supplicant/src/crypto\des-internal.c **** 			l = j + (u32) totrot[i];
 679              		.loc 2 292 24 is_stmt 0 discriminator 2
 680 00bc 8507     		addi	a5,a5,1
 681              	.LVL83:
 292:C:/Users/stapi/OneDrive/Desktop/GD32VW553/V1_MQTT_OK/GD32VW55X_Wifi_BLE_SDK/GD32VW55x_RELEASE_V1.0.2/MSDK/wpa_supplicant/src/crypto\des-internal.c **** 			l = j + (u32) totrot[i];
 682              		.loc 2 292 15 is_stmt 1 discriminator 2
 292:C:/Users/stapi/OneDrive/Desktop/GD32VW553/V1_MQTT_OK/GD32VW55X_Wifi_BLE_SDK/GD32VW55x_RELEASE_V1.0.2/MSDK/wpa_supplicant/src/crypto\des-internal.c **** 			l = j + (u32) totrot[i];
 683              		.loc 2 292 3 is_stmt 0 discriminator 2
 684 00be 0503     		addi	t1,t1,1
 685 00c0 E393E7FF 		bne	a5,t5,.L12
 686              	.LVL84:
 687              	.L15:
 300:C:/Users/stapi/OneDrive/Desktop/GD32VW553/V1_MQTT_OK/GD32VW55X_Wifi_BLE_SDK/GD32VW55x_RELEASE_V1.0.2/MSDK/wpa_supplicant/src/crypto\des-internal.c **** 			if (l < 56)
 688              		.loc 2 300 4 is_stmt 1
 301:C:/Users/stapi/OneDrive/Desktop/GD32VW553/V1_MQTT_OK/GD32VW55X_Wifi_BLE_SDK/GD32VW55x_RELEASE_V1.0.2/MSDK/wpa_supplicant/src/crypto\des-internal.c **** 				pcr[j] = pc1m[l];
 689              		.loc 2 301 4
 301:C:/Users/stapi/OneDrive/Desktop/GD32VW553/V1_MQTT_OK/GD32VW55X_Wifi_BLE_SDK/GD32VW55x_RELEASE_V1.0.2/MSDK/wpa_supplicant/src/crypto\des-internal.c **** 				pcr[j] = pc1m[l];
 690              		.loc 2 301 7 is_stmt 0
 691 00c4 3383F400 		add	t1,s1,a5
 692 00c8 63E36F10 		bgtu	t1,t6,.L13
 302:C:/Users/stapi/OneDrive/Desktop/GD32VW553/V1_MQTT_OK/GD32VW55X_Wifi_BLE_SDK/GD32VW55x_RELEASE_V1.0.2/MSDK/wpa_supplicant/src/crypto\des-internal.c **** 			else
 693              		.loc 2 302 5 is_stmt 1
 302:C:/Users/stapi/OneDrive/Desktop/GD32VW553/V1_MQTT_OK/GD32VW55X_Wifi_BLE_SDK/GD32VW55x_RELEASE_V1.0.2/MSDK/wpa_supplicant/src/crypto\des-internal.c **** 			else
 694              		.loc 2 302 18 is_stmt 0
 695 00cc 03C3C601 		lbu	t1,28(a3)
 696              	.L14:
 697 00d0 13098103 		addi	s2,sp,56
 698 00d4 3E99     		add	s2,s2,a5
 699 00d6 23006900 		sb	t1,0(s2)
 299:C:/Users/stapi/OneDrive/Desktop/GD32VW553/V1_MQTT_OK/GD32VW55X_Wifi_BLE_SDK/GD32VW55x_RELEASE_V1.0.2/MSDK/wpa_supplicant/src/crypto\des-internal.c **** 			l = j + (u32) totrot[i];
 700              		.loc 2 299 30 is_stmt 1
 299:C:/Users/stapi/OneDrive/Desktop/GD32VW553/V1_MQTT_OK/GD32VW55X_Wifi_BLE_SDK/GD32VW55x_RELEASE_V1.0.2/MSDK/wpa_supplicant/src/crypto\des-internal.c **** 			l = j + (u32) totrot[i];
 701              		.loc 2 299 31 is_stmt 0
 702 00da 8507     		addi	a5,a5,1
 703              	.LVL85:
 299:C:/Users/stapi/OneDrive/Desktop/GD32VW553/V1_MQTT_OK/GD32VW55X_Wifi_BLE_SDK/GD32VW55x_RELEASE_V1.0.2/MSDK/wpa_supplicant/src/crypto\des-internal.c **** 			l = j + (u32) totrot[i];
 704              		.loc 2 299 22 is_stmt 1
 299:C:/Users/stapi/OneDrive/Desktop/GD32VW553/V1_MQTT_OK/GD32VW55X_Wifi_BLE_SDK/GD32VW55x_RELEASE_V1.0.2/MSDK/wpa_supplicant/src/crypto\des-internal.c **** 			l = j + (u32) totrot[i];
 705              		.loc 2 299 3 is_stmt 0
 706 00dc 8506     		addi	a3,a3,1
 707 00de E39357FE 		bne	a5,t0,.L15
 308:C:/Users/stapi/OneDrive/Desktop/GD32VW553/V1_MQTT_OK/GD32VW55X_Wifi_BLE_SDK/GD32VW55x_RELEASE_V1.0.2/MSDK/wpa_supplicant/src/crypto\des-internal.c **** 			if ((int) pcr[(int) pc2[j + 24]] != 0)
 708              		.loc 2 308 11
 709 00e2 9C1A     		addi	a5,sp,368
 710              	.LVL86:
 711 00e4 93860000 		addi	a3,ra,%lo(.LANCHOR12)
 712 00e8 3E97     		add	a4,a5,a4
 713 00ea 13830300 		addi	t1,t2,%lo(.LANCHOR11)
 714 00ee 93840606 		addi	s1,a3,96
 310:C:/Users/stapi/OneDrive/Desktop/GD32VW553/V1_MQTT_OK/GD32VW55X_Wifi_BLE_SDK/GD32VW55x_RELEASE_V1.0.2/MSDK/wpa_supplicant/src/crypto\des-internal.c **** 		}
 715              		.loc 2 310 11
 716 00f2 B297     		add	a5,a5,a2
 717              	.L18:
 718              	.LVL87:
 307:C:/Users/stapi/OneDrive/Desktop/GD32VW553/V1_MQTT_OK/GD32VW55X_Wifi_BLE_SDK/GD32VW55x_RELEASE_V1.0.2/MSDK/wpa_supplicant/src/crypto\des-internal.c **** 				kn[m] |= bigbyte[j];
 719              		.loc 2 307 4 is_stmt 1
 307:C:/Users/stapi/OneDrive/Desktop/GD32VW553/V1_MQTT_OK/GD32VW55X_Wifi_BLE_SDK/GD32VW55x_RELEASE_V1.0.2/MSDK/wpa_supplicant/src/crypto\des-internal.c **** 				kn[m] |= bigbyte[j];
 720              		.loc 2 307 18 is_stmt 0
 721 00f4 03460300 		lbu	a2,0(t1)
 307:C:/Users/stapi/OneDrive/Desktop/GD32VW553/V1_MQTT_OK/GD32VW55X_Wifi_BLE_SDK/GD32VW55x_RELEASE_V1.0.2/MSDK/wpa_supplicant/src/crypto\des-internal.c **** 				kn[m] |= bigbyte[j];
 722              		.loc 2 307 17
 723 00f8 13090117 		addi	s2,sp,368
 724 00fc 4A96     		add	a2,s2,a2
 307:C:/Users/stapi/OneDrive/Desktop/GD32VW553/V1_MQTT_OK/GD32VW55X_Wifi_BLE_SDK/GD32VW55x_RELEASE_V1.0.2/MSDK/wpa_supplicant/src/crypto\des-internal.c **** 				kn[m] |= bigbyte[j];
 725              		.loc 2 307 7
 726 00fe 034686EC 		lbu	a2,-312(a2)
 727 0102 09CA     		beq	a2,zero,.L16
 308:C:/Users/stapi/OneDrive/Desktop/GD32VW553/V1_MQTT_OK/GD32VW55X_Wifi_BLE_SDK/GD32VW55x_RELEASE_V1.0.2/MSDK/wpa_supplicant/src/crypto\des-internal.c **** 			if ((int) pcr[(int) pc2[j + 24]] != 0)
 728              		.loc 2 308 5 is_stmt 1
 308:C:/Users/stapi/OneDrive/Desktop/GD32VW553/V1_MQTT_OK/GD32VW55X_Wifi_BLE_SDK/GD32VW55x_RELEASE_V1.0.2/MSDK/wpa_supplicant/src/crypto\des-internal.c **** 			if ((int) pcr[(int) pc2[j + 24]] != 0)
 729              		.loc 2 308 11 is_stmt 0
 730 0104 032607F0 		lw	a2,-256(a4)
 731 0108 03A90600 		lw	s2,0(a3)
 732 010c 33662601 		or	a2,a2,s2
 733 0110 2320C7F0 		sw	a2,-256(a4)
 734              	.L16:
 309:C:/Users/stapi/OneDrive/Desktop/GD32VW553/V1_MQTT_OK/GD32VW55X_Wifi_BLE_SDK/GD32VW55x_RELEASE_V1.0.2/MSDK/wpa_supplicant/src/crypto\des-internal.c **** 				kn[n] |= bigbyte[j];
 735              		.loc 2 309 4 is_stmt 1
 309:C:/Users/stapi/OneDrive/Desktop/GD32VW553/V1_MQTT_OK/GD32VW55X_Wifi_BLE_SDK/GD32VW55x_RELEASE_V1.0.2/MSDK/wpa_supplicant/src/crypto\des-internal.c **** 				kn[n] |= bigbyte[j];
 736              		.loc 2 309 18 is_stmt 0
 737 0114 03468301 		lbu	a2,24(t1)
 309:C:/Users/stapi/OneDrive/Desktop/GD32VW553/V1_MQTT_OK/GD32VW55X_Wifi_BLE_SDK/GD32VW55x_RELEASE_V1.0.2/MSDK/wpa_supplicant/src/crypto\des-internal.c **** 				kn[n] |= bigbyte[j];
 738              		.loc 2 309 17
 739 0118 13090117 		addi	s2,sp,368
 740 011c 4A96     		add	a2,s2,a2
 309:C:/Users/stapi/OneDrive/Desktop/GD32VW553/V1_MQTT_OK/GD32VW55X_Wifi_BLE_SDK/GD32VW55x_RELEASE_V1.0.2/MSDK/wpa_supplicant/src/crypto\des-internal.c **** 				kn[n] |= bigbyte[j];
 741              		.loc 2 309 7
 742 011e 034686EC 		lbu	a2,-312(a2)
 743 0122 09CA     		beq	a2,zero,.L17
 310:C:/Users/stapi/OneDrive/Desktop/GD32VW553/V1_MQTT_OK/GD32VW55X_Wifi_BLE_SDK/GD32VW55x_RELEASE_V1.0.2/MSDK/wpa_supplicant/src/crypto\des-internal.c **** 		}
 744              		.loc 2 310 5 is_stmt 1
 310:C:/Users/stapi/OneDrive/Desktop/GD32VW553/V1_MQTT_OK/GD32VW55X_Wifi_BLE_SDK/GD32VW55x_RELEASE_V1.0.2/MSDK/wpa_supplicant/src/crypto\des-internal.c **** 		}
 745              		.loc 2 310 11 is_stmt 0
 746 0124 03A607F0 		lw	a2,-256(a5)
 747 0128 03A90600 		lw	s2,0(a3)
 748 012c 33662601 		or	a2,a2,s2
 749 0130 23A0C7F0 		sw	a2,-256(a5)
 750              	.L17:
 306:C:/Users/stapi/OneDrive/Desktop/GD32VW553/V1_MQTT_OK/GD32VW55X_Wifi_BLE_SDK/GD32VW55x_RELEASE_V1.0.2/MSDK/wpa_supplicant/src/crypto\des-internal.c **** 			if ((int) pcr[(int) pc2[j]] != 0)
 751              		.loc 2 306 23 is_stmt 1 discriminator 2
 752              	.LVL88:
 306:C:/Users/stapi/OneDrive/Desktop/GD32VW553/V1_MQTT_OK/GD32VW55X_Wifi_BLE_SDK/GD32VW55x_RELEASE_V1.0.2/MSDK/wpa_supplicant/src/crypto\des-internal.c **** 			if ((int) pcr[(int) pc2[j]] != 0)
 753              		.loc 2 306 15 discriminator 2
 306:C:/Users/stapi/OneDrive/Desktop/GD32VW553/V1_MQTT_OK/GD32VW55X_Wifi_BLE_SDK/GD32VW55x_RELEASE_V1.0.2/MSDK/wpa_supplicant/src/crypto\des-internal.c **** 			if ((int) pcr[(int) pc2[j]] != 0)
 754              		.loc 2 306 3 is_stmt 0 discriminator 2
 755 0134 9106     		addi	a3,a3,4
 756 0136 0503     		addi	t1,t1,1
 757              	.LVL89:
 758 0138 E39ED4FA 		bne	s1,a3,.L18
 285:C:/Users/stapi/OneDrive/Desktop/GD32VW553/V1_MQTT_OK/GD32VW55X_Wifi_BLE_SDK/GD32VW55x_RELEASE_V1.0.2/MSDK/wpa_supplicant/src/crypto\des-internal.c **** 		if (decrypt)
 759              		.loc 2 285 22 is_stmt 1 discriminator 2
 760              	.LVL90:
 285:C:/Users/stapi/OneDrive/Desktop/GD32VW553/V1_MQTT_OK/GD32VW55X_Wifi_BLE_SDK/GD32VW55x_RELEASE_V1.0.2/MSDK/wpa_supplicant/src/crypto\des-internal.c **** 		if (decrypt)
 761              		.loc 2 285 14 discriminator 2
 285:C:/Users/stapi/OneDrive/Desktop/GD32VW553/V1_MQTT_OK/GD32VW55X_Wifi_BLE_SDK/GD32VW55x_RELEASE_V1.0.2/MSDK/wpa_supplicant/src/crypto\des-internal.c **** 		if (decrypt)
 762              		.loc 2 285 2 is_stmt 0 discriminator 2
 763 013c 7918     		addi	a6,a6,-2
 764 013e 8508     		addi	a7,a7,1
 765              	.LVL91:
 766 0140 E31CC8F3 		bne	a6,t3,.L19
 767              	.LBB4:
 768              	.LBB5:
 256:C:/Users/stapi/OneDrive/Desktop/GD32VW553/V1_MQTT_OK/GD32VW55X_Wifi_BLE_SDK/GD32VW55x_RELEASE_V1.0.2/MSDK/wpa_supplicant/src/crypto\des-internal.c **** 	for (i = 0; i < 16; i++, raw1++) {
 769              		.loc 2 256 7
 770 0144 9019     		addi	a2,sp,240
 261:C:/Users/stapi/OneDrive/Desktop/GD32VW553/V1_MQTT_OK/GD32VW55X_Wifi_BLE_SDK/GD32VW55x_RELEASE_V1.0.2/MSDK/wpa_supplicant/src/crypto\des-internal.c **** 		*cook++ |= (*raw1 & 0x00000fc0L) >> 6;
 771              		.loc 2 261 36
 772 0146 9168     		li	a7,16384
 773              	.LVL92:
 774              	.LBE5:
 775              	.LBE4:
 776 0148 8C18     		addi	a1,sp,112
 777              	.LVL93:
 778 014a B28E     		mv	t4,a2
 779              	.LBB7:
 780              	.LBB6:
 259:C:/Users/stapi/OneDrive/Desktop/GD32VW553/V1_MQTT_OK/GD32VW55X_Wifi_BLE_SDK/GD32VW55x_RELEASE_V1.0.2/MSDK/wpa_supplicant/src/crypto\des-internal.c **** 		*cook   |= (*raw0 & 0x00000fc0L) << 10;
 781              		.loc 2 259 36
 782 014c 370E003F 		li	t3,1056964608
 260:C:/Users/stapi/OneDrive/Desktop/GD32VW553/V1_MQTT_OK/GD32VW55X_Wifi_BLE_SDK/GD32VW55x_RELEASE_V1.0.2/MSDK/wpa_supplicant/src/crypto\des-internal.c **** 		*cook   |= (*raw1 & 0x00fc0000L) >> 10;
 783              		.loc 2 260 36
 784 0150 37033F00 		li	t1,4128768
 785              	.LVL94:
 261:C:/Users/stapi/OneDrive/Desktop/GD32VW553/V1_MQTT_OK/GD32VW55X_Wifi_BLE_SDK/GD32VW55x_RELEASE_V1.0.2/MSDK/wpa_supplicant/src/crypto\des-internal.c **** 		*cook++ |= (*raw1 & 0x00000fc0L) >> 6;
 786              		.loc 2 261 36
 787 0154 938808F0 		addi	a7,a7,-256
 788              	.L20:
 789              	.LVL95:
 258:C:/Users/stapi/OneDrive/Desktop/GD32VW553/V1_MQTT_OK/GD32VW55X_Wifi_BLE_SDK/GD32VW55x_RELEASE_V1.0.2/MSDK/wpa_supplicant/src/crypto\des-internal.c **** 		*cook    = (*raw0 & 0x00fc0000L) << 6;
 790              		.loc 2 258 3 is_stmt 1
 259:C:/Users/stapi/OneDrive/Desktop/GD32VW553/V1_MQTT_OK/GD32VW55X_Wifi_BLE_SDK/GD32VW55x_RELEASE_V1.0.2/MSDK/wpa_supplicant/src/crypto\des-internal.c **** 		*cook   |= (*raw0 & 0x00000fc0L) << 10;
 791              		.loc 2 259 3
 259:C:/Users/stapi/OneDrive/Desktop/GD32VW553/V1_MQTT_OK/GD32VW55X_Wifi_BLE_SDK/GD32VW55x_RELEASE_V1.0.2/MSDK/wpa_supplicant/src/crypto\des-internal.c **** 		*cook   |= (*raw0 & 0x00000fc0L) << 10;
 792              		.loc 2 259 15 is_stmt 0
 793 0158 03A80500 		lw	a6,0(a1)
 260:C:/Users/stapi/OneDrive/Desktop/GD32VW553/V1_MQTT_OK/GD32VW55X_Wifi_BLE_SDK/GD32VW55x_RELEASE_V1.0.2/MSDK/wpa_supplicant/src/crypto\des-internal.c **** 		*cook   |= (*raw1 & 0x00fc0000L) >> 10;
 794              		.loc 2 260 3 is_stmt 1
 261:C:/Users/stapi/OneDrive/Desktop/GD32VW553/V1_MQTT_OK/GD32VW55X_Wifi_BLE_SDK/GD32VW55x_RELEASE_V1.0.2/MSDK/wpa_supplicant/src/crypto\des-internal.c **** 		*cook++ |= (*raw1 & 0x00000fc0L) >> 6;
 795              		.loc 2 261 3
 261:C:/Users/stapi/OneDrive/Desktop/GD32VW553/V1_MQTT_OK/GD32VW55X_Wifi_BLE_SDK/GD32VW55x_RELEASE_V1.0.2/MSDK/wpa_supplicant/src/crypto\des-internal.c **** 		*cook++ |= (*raw1 & 0x00000fc0L) >> 6;
 796              		.loc 2 261 15 is_stmt 0
 797 015c D441     		lw	a3,4(a1)
 262:C:/Users/stapi/OneDrive/Desktop/GD32VW553/V1_MQTT_OK/GD32VW55X_Wifi_BLE_SDK/GD32VW55x_RELEASE_V1.0.2/MSDK/wpa_supplicant/src/crypto\des-internal.c **** 		*cook    = (*raw0 & 0x0003f000L) << 12;
 798              		.loc 2 262 3 is_stmt 1
 799              	.LVL96:
 800 015e A105     		addi	a1,a1,8
 801              	.LVL97:
 259:C:/Users/stapi/OneDrive/Desktop/GD32VW553/V1_MQTT_OK/GD32VW55X_Wifi_BLE_SDK/GD32VW55x_RELEASE_V1.0.2/MSDK/wpa_supplicant/src/crypto\des-internal.c **** 		*cook   |= (*raw0 & 0x00000fc0L) << 10;
 802              		.loc 2 259 36 is_stmt 0
 803 0160 13176800 		slli	a4,a6,6
 260:C:/Users/stapi/OneDrive/Desktop/GD32VW553/V1_MQTT_OK/GD32VW55X_Wifi_BLE_SDK/GD32VW55x_RELEASE_V1.0.2/MSDK/wpa_supplicant/src/crypto\des-internal.c **** 		*cook   |= (*raw1 & 0x00fc0000L) >> 10;
 804              		.loc 2 260 36
 805 0164 9317A800 		slli	a5,a6,10
 806 0168 B3F76700 		and	a5,a5,t1
 259:C:/Users/stapi/OneDrive/Desktop/GD32VW553/V1_MQTT_OK/GD32VW55X_Wifi_BLE_SDK/GD32VW55x_RELEASE_V1.0.2/MSDK/wpa_supplicant/src/crypto\des-internal.c **** 		*cook   |= (*raw0 & 0x00000fc0L) << 10;
 807              		.loc 2 259 36
 808 016c 3377C701 		and	a4,a4,t3
 260:C:/Users/stapi/OneDrive/Desktop/GD32VW553/V1_MQTT_OK/GD32VW55X_Wifi_BLE_SDK/GD32VW55x_RELEASE_V1.0.2/MSDK/wpa_supplicant/src/crypto\des-internal.c **** 		*cook   |= (*raw1 & 0x00fc0000L) >> 10;
 809              		.loc 2 260 11
 810 0170 5D8F     		or	a4,a4,a5
 261:C:/Users/stapi/OneDrive/Desktop/GD32VW553/V1_MQTT_OK/GD32VW55X_Wifi_BLE_SDK/GD32VW55x_RELEASE_V1.0.2/MSDK/wpa_supplicant/src/crypto\des-internal.c **** 		*cook++ |= (*raw1 & 0x00000fc0L) >> 6;
 811              		.loc 2 261 36
 812 0172 93D7A600 		srli	a5,a3,10
 813 0176 B3F71701 		and	a5,a5,a7
 261:C:/Users/stapi/OneDrive/Desktop/GD32VW553/V1_MQTT_OK/GD32VW55X_Wifi_BLE_SDK/GD32VW55x_RELEASE_V1.0.2/MSDK/wpa_supplicant/src/crypto\des-internal.c **** 		*cook++ |= (*raw1 & 0x00000fc0L) >> 6;
 814              		.loc 2 261 11
 815 017a 5D8F     		or	a4,a4,a5
 262:C:/Users/stapi/OneDrive/Desktop/GD32VW553/V1_MQTT_OK/GD32VW55X_Wifi_BLE_SDK/GD32VW55x_RELEASE_V1.0.2/MSDK/wpa_supplicant/src/crypto\des-internal.c **** 		*cook    = (*raw0 & 0x0003f000L) << 12;
 816              		.loc 2 262 36
 817 017c 93D76600 		srli	a5,a3,6
 818 0180 93F7F703 		andi	a5,a5,63
 262:C:/Users/stapi/OneDrive/Desktop/GD32VW553/V1_MQTT_OK/GD32VW55X_Wifi_BLE_SDK/GD32VW55x_RELEASE_V1.0.2/MSDK/wpa_supplicant/src/crypto\des-internal.c **** 		*cook    = (*raw0 & 0x0003f000L) << 12;
 819              		.loc 2 262 11
 820 0184 5D8F     		or	a4,a4,a5
 263:C:/Users/stapi/OneDrive/Desktop/GD32VW553/V1_MQTT_OK/GD32VW55X_Wifi_BLE_SDK/GD32VW55x_RELEASE_V1.0.2/MSDK/wpa_supplicant/src/crypto\des-internal.c **** 		*cook   |= (*raw0 & 0x0000003fL) << 16;
 821              		.loc 2 263 36
 822 0186 9317C800 		slli	a5,a6,12
 264:C:/Users/stapi/OneDrive/Desktop/GD32VW553/V1_MQTT_OK/GD32VW55X_Wifi_BLE_SDK/GD32VW55x_RELEASE_V1.0.2/MSDK/wpa_supplicant/src/crypto\des-internal.c **** 		*cook   |= (*raw1 & 0x0003f000L) >> 4;
 823              		.loc 2 264 36
 824 018a 4208     		slli	a6,a6,16
 263:C:/Users/stapi/OneDrive/Desktop/GD32VW553/V1_MQTT_OK/GD32VW55X_Wifi_BLE_SDK/GD32VW55x_RELEASE_V1.0.2/MSDK/wpa_supplicant/src/crypto\des-internal.c **** 		*cook   |= (*raw0 & 0x0000003fL) << 16;
 825              		.loc 2 263 36
 826 018c B3F7C701 		and	a5,a5,t3
 264:C:/Users/stapi/OneDrive/Desktop/GD32VW553/V1_MQTT_OK/GD32VW55X_Wifi_BLE_SDK/GD32VW55x_RELEASE_V1.0.2/MSDK/wpa_supplicant/src/crypto\des-internal.c **** 		*cook   |= (*raw1 & 0x0003f000L) >> 4;
 827              		.loc 2 264 36
 828 0190 33786800 		and	a6,a6,t1
 262:C:/Users/stapi/OneDrive/Desktop/GD32VW553/V1_MQTT_OK/GD32VW55X_Wifi_BLE_SDK/GD32VW55x_RELEASE_V1.0.2/MSDK/wpa_supplicant/src/crypto\des-internal.c **** 		*cook    = (*raw0 & 0x0003f000L) << 12;
 829              		.loc 2 262 11
 830 0194 18C2     		sw	a4,0(a2)
 263:C:/Users/stapi/OneDrive/Desktop/GD32VW553/V1_MQTT_OK/GD32VW55X_Wifi_BLE_SDK/GD32VW55x_RELEASE_V1.0.2/MSDK/wpa_supplicant/src/crypto\des-internal.c **** 		*cook   |= (*raw0 & 0x0000003fL) << 16;
 831              		.loc 2 263 3 is_stmt 1
 264:C:/Users/stapi/OneDrive/Desktop/GD32VW553/V1_MQTT_OK/GD32VW55X_Wifi_BLE_SDK/GD32VW55x_RELEASE_V1.0.2/MSDK/wpa_supplicant/src/crypto\des-internal.c **** 		*cook   |= (*raw1 & 0x0003f000L) >> 4;
 832              		.loc 2 264 3
 265:C:/Users/stapi/OneDrive/Desktop/GD32VW553/V1_MQTT_OK/GD32VW55X_Wifi_BLE_SDK/GD32VW55x_RELEASE_V1.0.2/MSDK/wpa_supplicant/src/crypto\des-internal.c **** 		*cook++ |= (*raw1 & 0x0000003fL);
 833              		.loc 2 265 3
 266:C:/Users/stapi/OneDrive/Desktop/GD32VW553/V1_MQTT_OK/GD32VW55X_Wifi_BLE_SDK/GD32VW55x_RELEASE_V1.0.2/MSDK/wpa_supplicant/src/crypto\des-internal.c **** 	}
 834              		.loc 2 266 3
 264:C:/Users/stapi/OneDrive/Desktop/GD32VW553/V1_MQTT_OK/GD32VW55X_Wifi_BLE_SDK/GD32VW55x_RELEASE_V1.0.2/MSDK/wpa_supplicant/src/crypto\des-internal.c **** 		*cook   |= (*raw1 & 0x0003f000L) >> 4;
 835              		.loc 2 264 11 is_stmt 0
 836 0196 B3E70701 		or	a5,a5,a6
 266:C:/Users/stapi/OneDrive/Desktop/GD32VW553/V1_MQTT_OK/GD32VW55X_Wifi_BLE_SDK/GD32VW55x_RELEASE_V1.0.2/MSDK/wpa_supplicant/src/crypto\des-internal.c **** 	}
 837              		.loc 2 266 21
 838 019a 13F7F603 		andi	a4,a3,63
 265:C:/Users/stapi/OneDrive/Desktop/GD32VW553/V1_MQTT_OK/GD32VW55X_Wifi_BLE_SDK/GD32VW55x_RELEASE_V1.0.2/MSDK/wpa_supplicant/src/crypto\des-internal.c **** 		*cook++ |= (*raw1 & 0x0000003fL);
 839              		.loc 2 265 36
 840 019e 9182     		srli	a3,a3,4
 266:C:/Users/stapi/OneDrive/Desktop/GD32VW553/V1_MQTT_OK/GD32VW55X_Wifi_BLE_SDK/GD32VW55x_RELEASE_V1.0.2/MSDK/wpa_supplicant/src/crypto\des-internal.c **** 	}
 841              		.loc 2 266 11
 842 01a0 D98F     		or	a5,a5,a4
 265:C:/Users/stapi/OneDrive/Desktop/GD32VW553/V1_MQTT_OK/GD32VW55X_Wifi_BLE_SDK/GD32VW55x_RELEASE_V1.0.2/MSDK/wpa_supplicant/src/crypto\des-internal.c **** 		*cook++ |= (*raw1 & 0x0000003fL);
 843              		.loc 2 265 36
 844 01a2 B3F61601 		and	a3,a3,a7
 845 01a6 2106     		addi	a2,a2,8
 846              	.LVL98:
 266:C:/Users/stapi/OneDrive/Desktop/GD32VW553/V1_MQTT_OK/GD32VW55X_Wifi_BLE_SDK/GD32VW55x_RELEASE_V1.0.2/MSDK/wpa_supplicant/src/crypto\des-internal.c **** 	}
 847              		.loc 2 266 11
 848 01a8 D58F     		or	a5,a5,a3
 849 01aa 232EF6FE 		sw	a5,-4(a2)
 257:C:/Users/stapi/OneDrive/Desktop/GD32VW553/V1_MQTT_OK/GD32VW55X_Wifi_BLE_SDK/GD32VW55x_RELEASE_V1.0.2/MSDK/wpa_supplicant/src/crypto\des-internal.c **** 		raw0 = raw1++;
 850              		.loc 2 257 22 is_stmt 1
 851              	.LVL99:
 257:C:/Users/stapi/OneDrive/Desktop/GD32VW553/V1_MQTT_OK/GD32VW55X_Wifi_BLE_SDK/GD32VW55x_RELEASE_V1.0.2/MSDK/wpa_supplicant/src/crypto\des-internal.c **** 		raw0 = raw1++;
 852              		.loc 2 257 14
 257:C:/Users/stapi/OneDrive/Desktop/GD32VW553/V1_MQTT_OK/GD32VW55X_Wifi_BLE_SDK/GD32VW55x_RELEASE_V1.0.2/MSDK/wpa_supplicant/src/crypto\des-internal.c **** 		raw0 = raw1++;
 853              		.loc 2 257 2 is_stmt 0
 854 01ae E395D5FB 		bne	a1,t4,.L20
 269:C:/Users/stapi/OneDrive/Desktop/GD32VW553/V1_MQTT_OK/GD32VW55X_Wifi_BLE_SDK/GD32VW55x_RELEASE_V1.0.2/MSDK/wpa_supplicant/src/crypto\des-internal.c **** }
 855              		.loc 2 269 2 is_stmt 1
 856 01b2 13060008 		li	a2,128
 857              	.LVL100:
 858 01b6 97000000 		call	os_memcpy
 858      E7800000 
 859              	.LVL101:
 860              	.LBE6:
 861              	.LBE7:
 315:C:/Users/stapi/OneDrive/Desktop/GD32VW553/V1_MQTT_OK/GD32VW55X_Wifi_BLE_SDK/GD32VW55x_RELEASE_V1.0.2/MSDK/wpa_supplicant/src/crypto\des-internal.c **** 
 862              		.loc 2 315 1 is_stmt 0
 863 01be 7561     		addi	sp,sp,368
 864              		.cfi_remember_state
 865              		.cfi_def_cfa_offset 0
 866 01c0 17030000 		tail	__riscv_restore_4
 866      67000300 
 867              		.cfi_restore 19
 868              		.cfi_restore 18
 869              		.cfi_restore 9
 870              		.cfi_restore 8
 871              		.cfi_restore 1
 872              		.cfi_def_cfa_offset -32
 873              	.LVL102:
 874              	.L10:
 875              		.cfi_restore_state
 297:C:/Users/stapi/OneDrive/Desktop/GD32VW553/V1_MQTT_OK/GD32VW55X_Wifi_BLE_SDK/GD32VW55x_RELEASE_V1.0.2/MSDK/wpa_supplicant/src/crypto\des-internal.c **** 		}
 876              		.loc 2 297 5 is_stmt 1
 297:C:/Users/stapi/OneDrive/Desktop/GD32VW553/V1_MQTT_OK/GD32VW55X_Wifi_BLE_SDK/GD32VW55x_RELEASE_V1.0.2/MSDK/wpa_supplicant/src/crypto\des-internal.c **** 		}
 877              		.loc 2 297 18 is_stmt 0
 878 01c8 034943FE 		lbu	s2,-28(t1)
 879 01cc DDB5     		j	.L11
 880              	.L13:
 304:C:/Users/stapi/OneDrive/Desktop/GD32VW553/V1_MQTT_OK/GD32VW55X_Wifi_BLE_SDK/GD32VW55x_RELEASE_V1.0.2/MSDK/wpa_supplicant/src/crypto\des-internal.c **** 		}
 881              		.loc 2 304 5 is_stmt 1
 304:C:/Users/stapi/OneDrive/Desktop/GD32VW553/V1_MQTT_OK/GD32VW55X_Wifi_BLE_SDK/GD32VW55x_RELEASE_V1.0.2/MSDK/wpa_supplicant/src/crypto\des-internal.c **** 		}
 882              		.loc 2 304 18 is_stmt 0
 883 01ce 03C30600 		lbu	t1,0(a3)
 884 01d2 FDBD     		j	.L14
 885              		.cfi_endproc
 886              	.LFE72:
 888              		.section	.text.des_encrypt,"ax",@progbits
 889              		.align	1
 890              		.globl	des_encrypt
 892              	des_encrypt:
 893              	.LFB74:
 395:C:/Users/stapi/OneDrive/Desktop/GD32VW553/V1_MQTT_OK/GD32VW55X_Wifi_BLE_SDK/GD32VW55x_RELEASE_V1.0.2/MSDK/wpa_supplicant/src/crypto\des-internal.c **** 
 396:C:/Users/stapi/OneDrive/Desktop/GD32VW553/V1_MQTT_OK/GD32VW55X_Wifi_BLE_SDK/GD32VW55x_RELEASE_V1.0.2/MSDK/wpa_supplicant/src/crypto\des-internal.c **** 
 397:C:/Users/stapi/OneDrive/Desktop/GD32VW553/V1_MQTT_OK/GD32VW55X_Wifi_BLE_SDK/GD32VW55x_RELEASE_V1.0.2/MSDK/wpa_supplicant/src/crypto\des-internal.c **** /* wpa_supplicant/hostapd specific wrapper */
 398:C:/Users/stapi/OneDrive/Desktop/GD32VW553/V1_MQTT_OK/GD32VW55X_Wifi_BLE_SDK/GD32VW55x_RELEASE_V1.0.2/MSDK/wpa_supplicant/src/crypto\des-internal.c **** 
 399:C:/Users/stapi/OneDrive/Desktop/GD32VW553/V1_MQTT_OK/GD32VW55X_Wifi_BLE_SDK/GD32VW55x_RELEASE_V1.0.2/MSDK/wpa_supplicant/src/crypto\des-internal.c **** int des_encrypt(const u8 *clear, const u8 *key, u8 *cypher)
 400:C:/Users/stapi/OneDrive/Desktop/GD32VW553/V1_MQTT_OK/GD32VW55X_Wifi_BLE_SDK/GD32VW55x_RELEASE_V1.0.2/MSDK/wpa_supplicant/src/crypto\des-internal.c **** {
 894              		.loc 2 400 1 is_stmt 1
 895              		.cfi_startproc
 896              	.LVL103:
 897 0000 17030000 		call	t0,__riscv_save_2
 897      E7020300 
 898              		.cfi_offset 9, -12
 899              		.cfi_offset 8, -8
 900              		.cfi_offset 1, -4
 901              		.cfi_def_cfa_offset 16
 401:C:/Users/stapi/OneDrive/Desktop/GD32VW553/V1_MQTT_OK/GD32VW55X_Wifi_BLE_SDK/GD32VW55x_RELEASE_V1.0.2/MSDK/wpa_supplicant/src/crypto\des-internal.c **** 	u8 pkey[8], next, tmp;
 902              		.loc 2 401 2
 402:C:/Users/stapi/OneDrive/Desktop/GD32VW553/V1_MQTT_OK/GD32VW55X_Wifi_BLE_SDK/GD32VW55x_RELEASE_V1.0.2/MSDK/wpa_supplicant/src/crypto\des-internal.c **** 	int i;
 903              		.loc 2 402 2
 403:C:/Users/stapi/OneDrive/Desktop/GD32VW553/V1_MQTT_OK/GD32VW55X_Wifi_BLE_SDK/GD32VW55x_RELEASE_V1.0.2/MSDK/wpa_supplicant/src/crypto\des-internal.c **** 	u32 ek[32], work[2];
 904              		.loc 2 403 2
 404:C:/Users/stapi/OneDrive/Desktop/GD32VW553/V1_MQTT_OK/GD32VW55X_Wifi_BLE_SDK/GD32VW55x_RELEASE_V1.0.2/MSDK/wpa_supplicant/src/crypto\des-internal.c **** 
 405:C:/Users/stapi/OneDrive/Desktop/GD32VW553/V1_MQTT_OK/GD32VW55X_Wifi_BLE_SDK/GD32VW55x_RELEASE_V1.0.2/MSDK/wpa_supplicant/src/crypto\des-internal.c **** 	/* Add parity bits to the key */
 406:C:/Users/stapi/OneDrive/Desktop/GD32VW553/V1_MQTT_OK/GD32VW55X_Wifi_BLE_SDK/GD32VW55x_RELEASE_V1.0.2/MSDK/wpa_supplicant/src/crypto\des-internal.c **** 	next = 0;
 905              		.loc 2 406 2
 906              	.LVL104:
 407:C:/Users/stapi/OneDrive/Desktop/GD32VW553/V1_MQTT_OK/GD32VW55X_Wifi_BLE_SDK/GD32VW55x_RELEASE_V1.0.2/MSDK/wpa_supplicant/src/crypto\des-internal.c **** 	for (i = 0; i < 7; i++) {
 907              		.loc 2 407 2
 908              		.loc 2 407 14
 400:C:/Users/stapi/OneDrive/Desktop/GD32VW553/V1_MQTT_OK/GD32VW55X_Wifi_BLE_SDK/GD32VW55x_RELEASE_V1.0.2/MSDK/wpa_supplicant/src/crypto\des-internal.c **** 	u8 pkey[8], next, tmp;
 909              		.loc 2 400 1 is_stmt 0
 910 0008 AA84     		mv	s1,a0
 911 000a 7571     		addi	sp,sp,-144
 912              		.cfi_def_cfa_offset 160
 400:C:/Users/stapi/OneDrive/Desktop/GD32VW553/V1_MQTT_OK/GD32VW55X_Wifi_BLE_SDK/GD32VW55x_RELEASE_V1.0.2/MSDK/wpa_supplicant/src/crypto\des-internal.c **** 	u8 pkey[8], next, tmp;
 913              		.loc 2 400 1
 914 000c 3284     		mv	s0,a2
 915              		.loc 2 407 9
 916 000e 8147     		li	a5,0
 406:C:/Users/stapi/OneDrive/Desktop/GD32VW553/V1_MQTT_OK/GD32VW55X_Wifi_BLE_SDK/GD32VW55x_RELEASE_V1.0.2/MSDK/wpa_supplicant/src/crypto\des-internal.c **** 	for (i = 0; i < 7; i++) {
 917              		.loc 2 406 7
 918 0010 0147     		li	a4,0
 408:C:/Users/stapi/OneDrive/Desktop/GD32VW553/V1_MQTT_OK/GD32VW55X_Wifi_BLE_SDK/GD32VW55x_RELEASE_V1.0.2/MSDK/wpa_supplicant/src/crypto\des-internal.c **** 		tmp = key[i];
 409:C:/Users/stapi/OneDrive/Desktop/GD32VW553/V1_MQTT_OK/GD32VW55X_Wifi_BLE_SDK/GD32VW55x_RELEASE_V1.0.2/MSDK/wpa_supplicant/src/crypto\des-internal.c **** 		pkey[i] = (tmp >> i) | next | 1;
 410:C:/Users/stapi/OneDrive/Desktop/GD32VW553/V1_MQTT_OK/GD32VW55X_Wifi_BLE_SDK/GD32VW55x_RELEASE_V1.0.2/MSDK/wpa_supplicant/src/crypto\des-internal.c **** 		next = tmp << (7 - i);
 919              		.loc 2 410 14
 920 0012 1D45     		li	a0,7
 921              	.LVL105:
 922              	.L36:
 408:C:/Users/stapi/OneDrive/Desktop/GD32VW553/V1_MQTT_OK/GD32VW55X_Wifi_BLE_SDK/GD32VW55x_RELEASE_V1.0.2/MSDK/wpa_supplicant/src/crypto\des-internal.c **** 		tmp = key[i];
 923              		.loc 2 408 3 is_stmt 1 discriminator 3
 409:C:/Users/stapi/OneDrive/Desktop/GD32VW553/V1_MQTT_OK/GD32VW55X_Wifi_BLE_SDK/GD32VW55x_RELEASE_V1.0.2/MSDK/wpa_supplicant/src/crypto\des-internal.c **** 		next = tmp << (7 - i);
 924              		.loc 2 409 3 discriminator 3
 408:C:/Users/stapi/OneDrive/Desktop/GD32VW553/V1_MQTT_OK/GD32VW55X_Wifi_BLE_SDK/GD32VW55x_RELEASE_V1.0.2/MSDK/wpa_supplicant/src/crypto\des-internal.c **** 		tmp = key[i];
 925              		.loc 2 408 7 is_stmt 0 discriminator 3
 926 0014 B386F500 		add	a3,a1,a5
 927              	.LVL106:
 409:C:/Users/stapi/OneDrive/Desktop/GD32VW553/V1_MQTT_OK/GD32VW55X_Wifi_BLE_SDK/GD32VW55x_RELEASE_V1.0.2/MSDK/wpa_supplicant/src/crypto\des-internal.c **** 		next = tmp << (7 - i);
 928              		.loc 2 409 18 discriminator 3
 929 0018 03C60600 		lbu	a2,0(a3)
 409:C:/Users/stapi/OneDrive/Desktop/GD32VW553/V1_MQTT_OK/GD32VW55X_Wifi_BLE_SDK/GD32VW55x_RELEASE_V1.0.2/MSDK/wpa_supplicant/src/crypto\des-internal.c **** 		next = tmp << (7 - i);
 930              		.loc 2 409 11 discriminator 3
 931 001c 3308F100 		add	a6,sp,a5
 409:C:/Users/stapi/OneDrive/Desktop/GD32VW553/V1_MQTT_OK/GD32VW55X_Wifi_BLE_SDK/GD32VW55x_RELEASE_V1.0.2/MSDK/wpa_supplicant/src/crypto\des-internal.c **** 		next = tmp << (7 - i);
 932              		.loc 2 409 18 discriminator 3
 933 0020 B356F640 		sra	a3,a2,a5
 934              	.LVL107:
 409:C:/Users/stapi/OneDrive/Desktop/GD32VW553/V1_MQTT_OK/GD32VW55X_Wifi_BLE_SDK/GD32VW55x_RELEASE_V1.0.2/MSDK/wpa_supplicant/src/crypto\des-internal.c **** 		next = tmp << (7 - i);
 935              		.loc 2 409 24 discriminator 3
 936 0024 558F     		or	a4,a3,a4
 937              	.LVL108:
 409:C:/Users/stapi/OneDrive/Desktop/GD32VW553/V1_MQTT_OK/GD32VW55X_Wifi_BLE_SDK/GD32VW55x_RELEASE_V1.0.2/MSDK/wpa_supplicant/src/crypto\des-internal.c **** 		next = tmp << (7 - i);
 938              		.loc 2 409 31 discriminator 3
 939 0026 13671700 		ori	a4,a4,1
 409:C:/Users/stapi/OneDrive/Desktop/GD32VW553/V1_MQTT_OK/GD32VW55X_Wifi_BLE_SDK/GD32VW55x_RELEASE_V1.0.2/MSDK/wpa_supplicant/src/crypto\des-internal.c **** 		next = tmp << (7 - i);
 940              		.loc 2 409 11 discriminator 3
 941 002a 2300E800 		sb	a4,0(a6)
 942              		.loc 2 410 3 is_stmt 1 discriminator 3
 943              		.loc 2 410 14 is_stmt 0 discriminator 3
 944 002e 3307F540 		sub	a4,a0,a5
 945 0032 3317E600 		sll	a4,a2,a4
 407:C:/Users/stapi/OneDrive/Desktop/GD32VW553/V1_MQTT_OK/GD32VW55X_Wifi_BLE_SDK/GD32VW55x_RELEASE_V1.0.2/MSDK/wpa_supplicant/src/crypto\des-internal.c **** 		tmp = key[i];
 946              		.loc 2 407 22 discriminator 3
 947 0036 8507     		addi	a5,a5,1
 948              	.LVL109:
 949              		.loc 2 410 8 discriminator 3
 950 0038 1377F70F 		andi	a4,a4,0xff
 951              	.LVL110:
 407:C:/Users/stapi/OneDrive/Desktop/GD32VW553/V1_MQTT_OK/GD32VW55X_Wifi_BLE_SDK/GD32VW55x_RELEASE_V1.0.2/MSDK/wpa_supplicant/src/crypto\des-internal.c **** 		tmp = key[i];
 952              		.loc 2 407 21 is_stmt 1 discriminator 3
 407:C:/Users/stapi/OneDrive/Desktop/GD32VW553/V1_MQTT_OK/GD32VW55X_Wifi_BLE_SDK/GD32VW55x_RELEASE_V1.0.2/MSDK/wpa_supplicant/src/crypto\des-internal.c **** 		tmp = key[i];
 953              		.loc 2 407 14 discriminator 3
 407:C:/Users/stapi/OneDrive/Desktop/GD32VW553/V1_MQTT_OK/GD32VW55X_Wifi_BLE_SDK/GD32VW55x_RELEASE_V1.0.2/MSDK/wpa_supplicant/src/crypto\des-internal.c **** 		tmp = key[i];
 954              		.loc 2 407 2 is_stmt 0 discriminator 3
 955 003c E39CA7FC 		bne	a5,a0,.L36
 411:C:/Users/stapi/OneDrive/Desktop/GD32VW553/V1_MQTT_OK/GD32VW55X_Wifi_BLE_SDK/GD32VW55x_RELEASE_V1.0.2/MSDK/wpa_supplicant/src/crypto\des-internal.c **** 	}
 412:C:/Users/stapi/OneDrive/Desktop/GD32VW553/V1_MQTT_OK/GD32VW55X_Wifi_BLE_SDK/GD32VW55x_RELEASE_V1.0.2/MSDK/wpa_supplicant/src/crypto\des-internal.c **** 	pkey[i] = next | 1;
 956              		.loc 2 412 2 is_stmt 1
 957              		.loc 2 412 10 is_stmt 0
 958 0040 13671700 		ori	a4,a4,1
 959              	.LVL111:
 413:C:/Users/stapi/OneDrive/Desktop/GD32VW553/V1_MQTT_OK/GD32VW55X_Wifi_BLE_SDK/GD32VW55x_RELEASE_V1.0.2/MSDK/wpa_supplicant/src/crypto\des-internal.c **** 
 414:C:/Users/stapi/OneDrive/Desktop/GD32VW553/V1_MQTT_OK/GD32VW55X_Wifi_BLE_SDK/GD32VW55x_RELEASE_V1.0.2/MSDK/wpa_supplicant/src/crypto\des-internal.c **** 	deskey(pkey, 0, ek);
 960              		.loc 2 414 2
 961 0044 1008     		addi	a2,sp,16
 962              	.LVL112:
 963 0046 8145     		li	a1,0
 964              	.LVL113:
 965 0048 0A85     		mv	a0,sp
 966              	.LVL114:
 412:C:/Users/stapi/OneDrive/Desktop/GD32VW553/V1_MQTT_OK/GD32VW55X_Wifi_BLE_SDK/GD32VW55x_RELEASE_V1.0.2/MSDK/wpa_supplicant/src/crypto\des-internal.c **** 
 967              		.loc 2 412 10
 968 004a A303E100 		sb	a4,7(sp)
 969              		.loc 2 414 2 is_stmt 1
 970 004e 97000000 		call	deskey
 970      E7800000 
 971              	.LVL115:
 415:C:/Users/stapi/OneDrive/Desktop/GD32VW553/V1_MQTT_OK/GD32VW55X_Wifi_BLE_SDK/GD32VW55x_RELEASE_V1.0.2/MSDK/wpa_supplicant/src/crypto\des-internal.c **** 
 416:C:/Users/stapi/OneDrive/Desktop/GD32VW553/V1_MQTT_OK/GD32VW55X_Wifi_BLE_SDK/GD32VW55x_RELEASE_V1.0.2/MSDK/wpa_supplicant/src/crypto\des-internal.c **** 	work[0] = WPA_GET_BE32(clear);
 972              		.loc 2 416 2
 973              		.loc 2 416 12 is_stmt 0
 974 0056 2685     		mv	a0,s1
 975 0058 97000000 		call	WPA_GET_BE32
 975      E7800000 
 976              	.LVL116:
 977              		.loc 2 416 10
 978 0060 2AC4     		sw	a0,8(sp)
 417:C:/Users/stapi/OneDrive/Desktop/GD32VW553/V1_MQTT_OK/GD32VW55X_Wifi_BLE_SDK/GD32VW55x_RELEASE_V1.0.2/MSDK/wpa_supplicant/src/crypto\des-internal.c **** 	work[1] = WPA_GET_BE32(clear + 4);
 979              		.loc 2 417 2 is_stmt 1
 980              		.loc 2 417 12 is_stmt 0
 981 0062 13854400 		addi	a0,s1,4
 982 0066 97000000 		call	WPA_GET_BE32
 982      E7800000 
 983              	.LVL117:
 984              		.loc 2 417 10
 985 006e 2AC6     		sw	a0,12(sp)
 418:C:/Users/stapi/OneDrive/Desktop/GD32VW553/V1_MQTT_OK/GD32VW55X_Wifi_BLE_SDK/GD32VW55x_RELEASE_V1.0.2/MSDK/wpa_supplicant/src/crypto\des-internal.c **** 	desfunc(work, ek);
 986              		.loc 2 418 2 is_stmt 1
 987 0070 0C08     		addi	a1,sp,16
 988 0072 2800     		addi	a0,sp,8
 989 0074 97000000 		call	desfunc
 989      E7800000 
 990              	.LVL118:
 419:C:/Users/stapi/OneDrive/Desktop/GD32VW553/V1_MQTT_OK/GD32VW55X_Wifi_BLE_SDK/GD32VW55x_RELEASE_V1.0.2/MSDK/wpa_supplicant/src/crypto\des-internal.c **** 	WPA_PUT_BE32(cypher, work[0]);
 991              		.loc 2 419 2
 992 007c A245     		lw	a1,8(sp)
 993 007e 2285     		mv	a0,s0
 994 0080 97000000 		call	WPA_PUT_BE32
 994      E7800000 
 995              	.LVL119:
 420:C:/Users/stapi/OneDrive/Desktop/GD32VW553/V1_MQTT_OK/GD32VW55X_Wifi_BLE_SDK/GD32VW55x_RELEASE_V1.0.2/MSDK/wpa_supplicant/src/crypto\des-internal.c **** 	WPA_PUT_BE32(cypher + 4, work[1]);
 996              		.loc 2 420 2
 997 0088 B245     		lw	a1,12(sp)
 998 008a 13054400 		addi	a0,s0,4
 999 008e 97000000 		call	WPA_PUT_BE32
 999      E7800000 
 1000              	.LVL120:
 421:C:/Users/stapi/OneDrive/Desktop/GD32VW553/V1_MQTT_OK/GD32VW55X_Wifi_BLE_SDK/GD32VW55x_RELEASE_V1.0.2/MSDK/wpa_supplicant/src/crypto\des-internal.c **** 
 422:C:/Users/stapi/OneDrive/Desktop/GD32VW553/V1_MQTT_OK/GD32VW55X_Wifi_BLE_SDK/GD32VW55x_RELEASE_V1.0.2/MSDK/wpa_supplicant/src/crypto\des-internal.c **** 	os_memset(pkey, 0, sizeof(pkey));
 1001              		.loc 2 422 2
 1002 0096 2146     		li	a2,8
 1003 0098 8145     		li	a1,0
 1004 009a 0A85     		mv	a0,sp
 1005 009c 97000000 		call	os_memset
 1005      E7800000 
 1006              	.LVL121:
 423:C:/Users/stapi/OneDrive/Desktop/GD32VW553/V1_MQTT_OK/GD32VW55X_Wifi_BLE_SDK/GD32VW55x_RELEASE_V1.0.2/MSDK/wpa_supplicant/src/crypto\des-internal.c **** 	os_memset(ek, 0, sizeof(ek));
 1007              		.loc 2 423 2
 1008 00a4 13060008 		li	a2,128
 1009 00a8 8145     		li	a1,0
 1010 00aa 0808     		addi	a0,sp,16
 1011 00ac 97000000 		call	os_memset
 1011      E7800000 
 1012              	.LVL122:
 424:C:/Users/stapi/OneDrive/Desktop/GD32VW553/V1_MQTT_OK/GD32VW55X_Wifi_BLE_SDK/GD32VW55x_RELEASE_V1.0.2/MSDK/wpa_supplicant/src/crypto\des-internal.c **** 	return 0;
 1013              		.loc 2 424 2
 425:C:/Users/stapi/OneDrive/Desktop/GD32VW553/V1_MQTT_OK/GD32VW55X_Wifi_BLE_SDK/GD32VW55x_RELEASE_V1.0.2/MSDK/wpa_supplicant/src/crypto\des-internal.c **** }
 1014              		.loc 2 425 1 is_stmt 0
 1015 00b4 0145     		li	a0,0
 1016 00b6 4961     		addi	sp,sp,144
 1017              		.cfi_def_cfa_offset 0
 1018 00b8 17030000 		tail	__riscv_restore_2
 1018      67000300 
 1019              		.cfi_restore 9
 1020              		.cfi_restore 8
 1021              		.cfi_restore 1
 1022              		.cfi_def_cfa_offset -16
 1023              		.cfi_endproc
 1024              	.LFE74:
 1026              		.section	.text.des_key_setup,"ax",@progbits
 1027              		.align	1
 1028              		.globl	des_key_setup
 1030              	des_key_setup:
 1031              	.LFB75:
 426:C:/Users/stapi/OneDrive/Desktop/GD32VW553/V1_MQTT_OK/GD32VW55X_Wifi_BLE_SDK/GD32VW55x_RELEASE_V1.0.2/MSDK/wpa_supplicant/src/crypto\des-internal.c **** 
 427:C:/Users/stapi/OneDrive/Desktop/GD32VW553/V1_MQTT_OK/GD32VW55X_Wifi_BLE_SDK/GD32VW55x_RELEASE_V1.0.2/MSDK/wpa_supplicant/src/crypto\des-internal.c **** 
 428:C:/Users/stapi/OneDrive/Desktop/GD32VW553/V1_MQTT_OK/GD32VW55X_Wifi_BLE_SDK/GD32VW55x_RELEASE_V1.0.2/MSDK/wpa_supplicant/src/crypto\des-internal.c **** void des_key_setup(const u8 *key, u32 *ek, u32 *dk)
 429:C:/Users/stapi/OneDrive/Desktop/GD32VW553/V1_MQTT_OK/GD32VW55X_Wifi_BLE_SDK/GD32VW55x_RELEASE_V1.0.2/MSDK/wpa_supplicant/src/crypto\des-internal.c **** {
 1032              		.loc 2 429 1 is_stmt 1
 1033              		.cfi_startproc
 1034              	.LVL123:
 1035 0000 17030000 		call	t0,__riscv_save_2
 1035      E7020300 
 1036              		.cfi_offset 9, -12
 1037              		.cfi_offset 8, -8
 1038              		.cfi_offset 1, -4
 1039              		.cfi_def_cfa_offset 16
 430:C:/Users/stapi/OneDrive/Desktop/GD32VW553/V1_MQTT_OK/GD32VW55X_Wifi_BLE_SDK/GD32VW55x_RELEASE_V1.0.2/MSDK/wpa_supplicant/src/crypto\des-internal.c **** 	deskey(key, 0, ek);
 1040              		.loc 2 430 2
 429:C:/Users/stapi/OneDrive/Desktop/GD32VW553/V1_MQTT_OK/GD32VW55X_Wifi_BLE_SDK/GD32VW55x_RELEASE_V1.0.2/MSDK/wpa_supplicant/src/crypto\des-internal.c **** 	deskey(key, 0, ek);
 1041              		.loc 2 429 1 is_stmt 0
 1042 0008 B284     		mv	s1,a2
 1043              		.loc 2 430 2
 1044 000a 2E86     		mv	a2,a1
 1045              	.LVL124:
 1046 000c 8145     		li	a1,0
 1047              	.LVL125:
 429:C:/Users/stapi/OneDrive/Desktop/GD32VW553/V1_MQTT_OK/GD32VW55X_Wifi_BLE_SDK/GD32VW55x_RELEASE_V1.0.2/MSDK/wpa_supplicant/src/crypto\des-internal.c **** 	deskey(key, 0, ek);
 1048              		.loc 2 429 1
 1049 000e 2A84     		mv	s0,a0
 1050              		.loc 2 430 2
 1051 0010 97000000 		call	deskey
 1051      E7800000 
 1052              	.LVL126:
 431:C:/Users/stapi/OneDrive/Desktop/GD32VW553/V1_MQTT_OK/GD32VW55X_Wifi_BLE_SDK/GD32VW55x_RELEASE_V1.0.2/MSDK/wpa_supplicant/src/crypto\des-internal.c **** 	deskey(key, 1, dk);
 1053              		.loc 2 431 2 is_stmt 1
 1054 0018 2686     		mv	a2,s1
 1055 001a 8545     		li	a1,1
 1056 001c 2285     		mv	a0,s0
 1057 001e 97000000 		call	deskey
 1057      E7800000 
 1058              	.LVL127:
 432:C:/Users/stapi/OneDrive/Desktop/GD32VW553/V1_MQTT_OK/GD32VW55X_Wifi_BLE_SDK/GD32VW55x_RELEASE_V1.0.2/MSDK/wpa_supplicant/src/crypto\des-internal.c **** }
 1059              		.loc 2 432 1 is_stmt 0
 1060 0026 17030000 		tail	__riscv_restore_2
 1060      67000300 
 1061              		.cfi_restore 9
 1062              		.cfi_restore 8
 1063              		.cfi_restore 1
 1064              		.cfi_def_cfa_offset 0
 1065              		.cfi_endproc
 1066              	.LFE75:
 1068              		.section	.text.des_block_encrypt,"ax",@progbits
 1069              		.align	1
 1070              		.globl	des_block_encrypt
 1072              	des_block_encrypt:
 1073              	.LFB76:
 433:C:/Users/stapi/OneDrive/Desktop/GD32VW553/V1_MQTT_OK/GD32VW55X_Wifi_BLE_SDK/GD32VW55x_RELEASE_V1.0.2/MSDK/wpa_supplicant/src/crypto\des-internal.c **** 
 434:C:/Users/stapi/OneDrive/Desktop/GD32VW553/V1_MQTT_OK/GD32VW55X_Wifi_BLE_SDK/GD32VW55x_RELEASE_V1.0.2/MSDK/wpa_supplicant/src/crypto\des-internal.c **** 
 435:C:/Users/stapi/OneDrive/Desktop/GD32VW553/V1_MQTT_OK/GD32VW55X_Wifi_BLE_SDK/GD32VW55x_RELEASE_V1.0.2/MSDK/wpa_supplicant/src/crypto\des-internal.c **** void des_block_encrypt(const u8 *plain, const u32 *ek, u8 *crypt)
 436:C:/Users/stapi/OneDrive/Desktop/GD32VW553/V1_MQTT_OK/GD32VW55X_Wifi_BLE_SDK/GD32VW55x_RELEASE_V1.0.2/MSDK/wpa_supplicant/src/crypto\des-internal.c **** {
 1074              		.loc 2 436 1 is_stmt 1
 1075              		.cfi_startproc
 1076              	.LVL128:
 1077 0000 17030000 		call	t0,__riscv_save_2
 1077      E7020300 
 1078              		.cfi_offset 9, -12
 1079              		.cfi_offset 8, -8
 1080              		.cfi_offset 1, -4
 1081              		.cfi_def_cfa_offset 16
 437:C:/Users/stapi/OneDrive/Desktop/GD32VW553/V1_MQTT_OK/GD32VW55X_Wifi_BLE_SDK/GD32VW55x_RELEASE_V1.0.2/MSDK/wpa_supplicant/src/crypto\des-internal.c **** 	u32 work[2];
 1082              		.loc 2 437 2
 438:C:/Users/stapi/OneDrive/Desktop/GD32VW553/V1_MQTT_OK/GD32VW55X_Wifi_BLE_SDK/GD32VW55x_RELEASE_V1.0.2/MSDK/wpa_supplicant/src/crypto\des-internal.c **** 	work[0] = WPA_GET_BE32(plain);
 1083              		.loc 2 438 2
 436:C:/Users/stapi/OneDrive/Desktop/GD32VW553/V1_MQTT_OK/GD32VW55X_Wifi_BLE_SDK/GD32VW55x_RELEASE_V1.0.2/MSDK/wpa_supplicant/src/crypto\des-internal.c **** 	u32 work[2];
 1084              		.loc 2 436 1 is_stmt 0
 1085 0008 0111     		addi	sp,sp,-32
 1086              		.cfi_def_cfa_offset 48
 436:C:/Users/stapi/OneDrive/Desktop/GD32VW553/V1_MQTT_OK/GD32VW55X_Wifi_BLE_SDK/GD32VW55x_RELEASE_V1.0.2/MSDK/wpa_supplicant/src/crypto\des-internal.c **** 	u32 work[2];
 1087              		.loc 2 436 1
 1088 000a 3284     		mv	s0,a2
 1089 000c 2EC6     		sw	a1,12(sp)
 1090 000e AA84     		mv	s1,a0
 1091              		.loc 2 438 12
 1092 0010 97000000 		call	WPA_GET_BE32
 1092      E7800000 
 1093              	.LVL129:
 1094              		.loc 2 438 10
 1095 0018 2ACC     		sw	a0,24(sp)
 439:C:/Users/stapi/OneDrive/Desktop/GD32VW553/V1_MQTT_OK/GD32VW55X_Wifi_BLE_SDK/GD32VW55x_RELEASE_V1.0.2/MSDK/wpa_supplicant/src/crypto\des-internal.c **** 	work[1] = WPA_GET_BE32(plain + 4);
 1096              		.loc 2 439 2 is_stmt 1
 1097              		.loc 2 439 12 is_stmt 0
 1098 001a 13854400 		addi	a0,s1,4
 1099 001e 97000000 		call	WPA_GET_BE32
 1099      E7800000 
 1100              	.LVL130:
 440:C:/Users/stapi/OneDrive/Desktop/GD32VW553/V1_MQTT_OK/GD32VW55X_Wifi_BLE_SDK/GD32VW55x_RELEASE_V1.0.2/MSDK/wpa_supplicant/src/crypto\des-internal.c **** 	desfunc(work, ek);
 1101              		.loc 2 440 2
 1102 0026 B245     		lw	a1,12(sp)
 439:C:/Users/stapi/OneDrive/Desktop/GD32VW553/V1_MQTT_OK/GD32VW55X_Wifi_BLE_SDK/GD32VW55x_RELEASE_V1.0.2/MSDK/wpa_supplicant/src/crypto\des-internal.c **** 	work[1] = WPA_GET_BE32(plain + 4);
 1103              		.loc 2 439 10
 1104 0028 2ACE     		sw	a0,28(sp)
 1105              		.loc 2 440 2 is_stmt 1
 1106 002a 2808     		addi	a0,sp,24
 1107 002c 97000000 		call	desfunc
 1107      E7800000 
 1108              	.LVL131:
 441:C:/Users/stapi/OneDrive/Desktop/GD32VW553/V1_MQTT_OK/GD32VW55X_Wifi_BLE_SDK/GD32VW55x_RELEASE_V1.0.2/MSDK/wpa_supplicant/src/crypto\des-internal.c **** 	WPA_PUT_BE32(crypt, work[0]);
 1109              		.loc 2 441 2
 1110 0034 E245     		lw	a1,24(sp)
 1111 0036 2285     		mv	a0,s0
 1112 0038 97000000 		call	WPA_PUT_BE32
 1112      E7800000 
 1113              	.LVL132:
 442:C:/Users/stapi/OneDrive/Desktop/GD32VW553/V1_MQTT_OK/GD32VW55X_Wifi_BLE_SDK/GD32VW55x_RELEASE_V1.0.2/MSDK/wpa_supplicant/src/crypto\des-internal.c **** 	WPA_PUT_BE32(crypt + 4, work[1]);
 1114              		.loc 2 442 2
 1115 0040 F245     		lw	a1,28(sp)
 1116 0042 13054400 		addi	a0,s0,4
 1117 0046 97000000 		call	WPA_PUT_BE32
 1117      E7800000 
 1118              	.LVL133:
 443:C:/Users/stapi/OneDrive/Desktop/GD32VW553/V1_MQTT_OK/GD32VW55X_Wifi_BLE_SDK/GD32VW55x_RELEASE_V1.0.2/MSDK/wpa_supplicant/src/crypto\des-internal.c **** }
 1119              		.loc 2 443 1 is_stmt 0
 1120 004e 0561     		addi	sp,sp,32
 1121              		.cfi_def_cfa_offset 0
 1122              	.LVL134:
 1123 0050 17030000 		tail	__riscv_restore_2
 1123      67000300 
 1124              		.cfi_restore 9
 1125              		.cfi_restore 8
 1126              		.cfi_restore 1
 1127              		.cfi_def_cfa_offset -16
 1128              		.cfi_endproc
 1129              	.LFE76:
 1131              		.section	.text.des_block_decrypt,"ax",@progbits
 1132              		.align	1
 1133              		.globl	des_block_decrypt
 1135              	des_block_decrypt:
 1136              	.LFB82:
 1137              		.cfi_startproc
 1138 0000 17030000 		tail	des_block_encrypt
 1138      67000300 
 1139              		.cfi_endproc
 1140              	.LFE82:
 1142              		.section	.text.des3_key_setup,"ax",@progbits
 1143              		.align	1
 1144              		.globl	des3_key_setup
 1146              	des3_key_setup:
 1147              	.LFB78:
 444:C:/Users/stapi/OneDrive/Desktop/GD32VW553/V1_MQTT_OK/GD32VW55X_Wifi_BLE_SDK/GD32VW55x_RELEASE_V1.0.2/MSDK/wpa_supplicant/src/crypto\des-internal.c **** 
 445:C:/Users/stapi/OneDrive/Desktop/GD32VW553/V1_MQTT_OK/GD32VW55X_Wifi_BLE_SDK/GD32VW55x_RELEASE_V1.0.2/MSDK/wpa_supplicant/src/crypto\des-internal.c **** 
 446:C:/Users/stapi/OneDrive/Desktop/GD32VW553/V1_MQTT_OK/GD32VW55X_Wifi_BLE_SDK/GD32VW55x_RELEASE_V1.0.2/MSDK/wpa_supplicant/src/crypto\des-internal.c **** void des_block_decrypt(const u8 *crypt, const u32 *dk, u8 *plain)
 447:C:/Users/stapi/OneDrive/Desktop/GD32VW553/V1_MQTT_OK/GD32VW55X_Wifi_BLE_SDK/GD32VW55x_RELEASE_V1.0.2/MSDK/wpa_supplicant/src/crypto\des-internal.c **** {
 448:C:/Users/stapi/OneDrive/Desktop/GD32VW553/V1_MQTT_OK/GD32VW55X_Wifi_BLE_SDK/GD32VW55x_RELEASE_V1.0.2/MSDK/wpa_supplicant/src/crypto\des-internal.c **** 	u32 work[2];
 449:C:/Users/stapi/OneDrive/Desktop/GD32VW553/V1_MQTT_OK/GD32VW55X_Wifi_BLE_SDK/GD32VW55x_RELEASE_V1.0.2/MSDK/wpa_supplicant/src/crypto\des-internal.c **** 	work[0] = WPA_GET_BE32(crypt);
 450:C:/Users/stapi/OneDrive/Desktop/GD32VW553/V1_MQTT_OK/GD32VW55X_Wifi_BLE_SDK/GD32VW55x_RELEASE_V1.0.2/MSDK/wpa_supplicant/src/crypto\des-internal.c **** 	work[1] = WPA_GET_BE32(crypt + 4);
 451:C:/Users/stapi/OneDrive/Desktop/GD32VW553/V1_MQTT_OK/GD32VW55X_Wifi_BLE_SDK/GD32VW55x_RELEASE_V1.0.2/MSDK/wpa_supplicant/src/crypto\des-internal.c **** 	desfunc(work, dk);
 452:C:/Users/stapi/OneDrive/Desktop/GD32VW553/V1_MQTT_OK/GD32VW55X_Wifi_BLE_SDK/GD32VW55x_RELEASE_V1.0.2/MSDK/wpa_supplicant/src/crypto\des-internal.c **** 	WPA_PUT_BE32(plain, work[0]);
 453:C:/Users/stapi/OneDrive/Desktop/GD32VW553/V1_MQTT_OK/GD32VW55X_Wifi_BLE_SDK/GD32VW55x_RELEASE_V1.0.2/MSDK/wpa_supplicant/src/crypto\des-internal.c **** 	WPA_PUT_BE32(plain + 4, work[1]);
 454:C:/Users/stapi/OneDrive/Desktop/GD32VW553/V1_MQTT_OK/GD32VW55X_Wifi_BLE_SDK/GD32VW55x_RELEASE_V1.0.2/MSDK/wpa_supplicant/src/crypto\des-internal.c **** }
 455:C:/Users/stapi/OneDrive/Desktop/GD32VW553/V1_MQTT_OK/GD32VW55X_Wifi_BLE_SDK/GD32VW55x_RELEASE_V1.0.2/MSDK/wpa_supplicant/src/crypto\des-internal.c **** 
 456:C:/Users/stapi/OneDrive/Desktop/GD32VW553/V1_MQTT_OK/GD32VW55X_Wifi_BLE_SDK/GD32VW55x_RELEASE_V1.0.2/MSDK/wpa_supplicant/src/crypto\des-internal.c **** 
 457:C:/Users/stapi/OneDrive/Desktop/GD32VW553/V1_MQTT_OK/GD32VW55X_Wifi_BLE_SDK/GD32VW55x_RELEASE_V1.0.2/MSDK/wpa_supplicant/src/crypto\des-internal.c **** void des3_key_setup(const u8 *key, struct des3_key_s *dkey)
 458:C:/Users/stapi/OneDrive/Desktop/GD32VW553/V1_MQTT_OK/GD32VW55X_Wifi_BLE_SDK/GD32VW55x_RELEASE_V1.0.2/MSDK/wpa_supplicant/src/crypto\des-internal.c **** {
 1148              		.loc 2 458 1 is_stmt 1
 1149              		.cfi_startproc
 1150              	.LVL135:
 1151              		.loc 2 458 1 is_stmt 0
 1152 0000 17030000 		call	t0,__riscv_save_4
 1152      E7020300 
 1153              		.cfi_offset 19, -20
 1154              		.cfi_offset 18, -16
 1155              		.cfi_offset 9, -12
 1156              		.cfi_offset 8, -8
 1157              		.cfi_offset 1, -4
 1158              		.cfi_def_cfa_offset 32
 459:C:/Users/stapi/OneDrive/Desktop/GD32VW553/V1_MQTT_OK/GD32VW55X_Wifi_BLE_SDK/GD32VW55x_RELEASE_V1.0.2/MSDK/wpa_supplicant/src/crypto\des-internal.c **** 	deskey(key, 0, dkey->ek[0]);
 1159              		.loc 2 459 2 is_stmt 1
 458:C:/Users/stapi/OneDrive/Desktop/GD32VW553/V1_MQTT_OK/GD32VW55X_Wifi_BLE_SDK/GD32VW55x_RELEASE_V1.0.2/MSDK/wpa_supplicant/src/crypto\des-internal.c **** 	deskey(key, 0, dkey->ek[0]);
 1160              		.loc 2 458 1 is_stmt 0
 1161 0008 2E84     		mv	s0,a1
 1162 000a AA84     		mv	s1,a0
 1163              		.loc 2 459 2
 1164 000c 2E86     		mv	a2,a1
 1165 000e 8145     		li	a1,0
 1166              	.LVL136:
 1167 0010 97000000 		call	deskey
 1167      E7800000 
 1168              	.LVL137:
 460:C:/Users/stapi/OneDrive/Desktop/GD32VW553/V1_MQTT_OK/GD32VW55X_Wifi_BLE_SDK/GD32VW55x_RELEASE_V1.0.2/MSDK/wpa_supplicant/src/crypto\des-internal.c **** 	deskey(key + 8, 1, dkey->ek[1]);
 1169              		.loc 2 460 2 is_stmt 1
 1170 0018 93898400 		addi	s3,s1,8
 1171 001c 13060408 		addi	a2,s0,128
 1172 0020 4E85     		mv	a0,s3
 1173 0022 8545     		li	a1,1
 1174 0024 97000000 		call	deskey
 1174      E7800000 
 1175              	.LVL138:
 461:C:/Users/stapi/OneDrive/Desktop/GD32VW553/V1_MQTT_OK/GD32VW55X_Wifi_BLE_SDK/GD32VW55x_RELEASE_V1.0.2/MSDK/wpa_supplicant/src/crypto\des-internal.c **** 	deskey(key + 16, 0, dkey->ek[2]);
 1176              		.loc 2 461 2
 1177 002c 13890401 		addi	s2,s1,16
 1178 0030 13060410 		addi	a2,s0,256
 1179 0034 4A85     		mv	a0,s2
 1180 0036 8145     		li	a1,0
 1181 0038 97000000 		call	deskey
 1181      E7800000 
 1182              	.LVL139:
 462:C:/Users/stapi/OneDrive/Desktop/GD32VW553/V1_MQTT_OK/GD32VW55X_Wifi_BLE_SDK/GD32VW55x_RELEASE_V1.0.2/MSDK/wpa_supplicant/src/crypto\des-internal.c **** 
 463:C:/Users/stapi/OneDrive/Desktop/GD32VW553/V1_MQTT_OK/GD32VW55X_Wifi_BLE_SDK/GD32VW55x_RELEASE_V1.0.2/MSDK/wpa_supplicant/src/crypto\des-internal.c **** 	deskey(key, 1, dkey->dk[2]);
 1183              		.loc 2 463 2
 1184 0040 13060428 		addi	a2,s0,640
 1185 0044 2685     		mv	a0,s1
 1186 0046 8545     		li	a1,1
 1187 0048 97000000 		call	deskey
 1187      E7800000 
 1188              	.LVL140:
 464:C:/Users/stapi/OneDrive/Desktop/GD32VW553/V1_MQTT_OK/GD32VW55X_Wifi_BLE_SDK/GD32VW55x_RELEASE_V1.0.2/MSDK/wpa_supplicant/src/crypto\des-internal.c **** 	deskey(key + 8, 0, dkey->dk[1]);
 1189              		.loc 2 464 2
 1190 0050 13060420 		addi	a2,s0,512
 1191 0054 4E85     		mv	a0,s3
 1192 0056 8145     		li	a1,0
 1193 0058 97000000 		call	deskey
 1193      E7800000 
 1194              	.LVL141:
 465:C:/Users/stapi/OneDrive/Desktop/GD32VW553/V1_MQTT_OK/GD32VW55X_Wifi_BLE_SDK/GD32VW55x_RELEASE_V1.0.2/MSDK/wpa_supplicant/src/crypto\des-internal.c **** 	deskey(key + 16, 1, dkey->dk[0]);
 1195              		.loc 2 465 2
 1196 0060 13060418 		addi	a2,s0,384
 1197 0064 8545     		li	a1,1
 1198 0066 4A85     		mv	a0,s2
 1199 0068 97000000 		call	deskey
 1199      E7800000 
 1200              	.LVL142:
 466:C:/Users/stapi/OneDrive/Desktop/GD32VW553/V1_MQTT_OK/GD32VW55X_Wifi_BLE_SDK/GD32VW55x_RELEASE_V1.0.2/MSDK/wpa_supplicant/src/crypto\des-internal.c **** }
 1201              		.loc 2 466 1 is_stmt 0
 1202 0070 17030000 		tail	__riscv_restore_4
 1202      67000300 
 1203              		.cfi_restore 19
 1204              		.cfi_restore 18
 1205              		.cfi_restore 9
 1206              		.cfi_restore 8
 1207              		.cfi_restore 1
 1208              		.cfi_def_cfa_offset 0
 1209              		.cfi_endproc
 1210              	.LFE78:
 1212              		.section	.text.des3_encrypt,"ax",@progbits
 1213              		.align	1
 1214              		.globl	des3_encrypt
 1216              	des3_encrypt:
 1217              	.LFB79:
 467:C:/Users/stapi/OneDrive/Desktop/GD32VW553/V1_MQTT_OK/GD32VW55X_Wifi_BLE_SDK/GD32VW55x_RELEASE_V1.0.2/MSDK/wpa_supplicant/src/crypto\des-internal.c **** 
 468:C:/Users/stapi/OneDrive/Desktop/GD32VW553/V1_MQTT_OK/GD32VW55X_Wifi_BLE_SDK/GD32VW55x_RELEASE_V1.0.2/MSDK/wpa_supplicant/src/crypto\des-internal.c **** 
 469:C:/Users/stapi/OneDrive/Desktop/GD32VW553/V1_MQTT_OK/GD32VW55X_Wifi_BLE_SDK/GD32VW55x_RELEASE_V1.0.2/MSDK/wpa_supplicant/src/crypto\des-internal.c **** void des3_encrypt(const u8 *plain, const struct des3_key_s *key, u8 *crypt)
 470:C:/Users/stapi/OneDrive/Desktop/GD32VW553/V1_MQTT_OK/GD32VW55X_Wifi_BLE_SDK/GD32VW55x_RELEASE_V1.0.2/MSDK/wpa_supplicant/src/crypto\des-internal.c **** {
 1218              		.loc 2 470 1 is_stmt 1
 1219              		.cfi_startproc
 1220              	.LVL143:
 1221 0000 17030000 		call	t0,__riscv_save_3
 1221      E7020300 
 1222              		.cfi_offset 18, -16
 1223              		.cfi_offset 9, -12
 1224              		.cfi_offset 8, -8
 1225              		.cfi_offset 1, -4
 1226              		.cfi_def_cfa_offset 16
 471:C:/Users/stapi/OneDrive/Desktop/GD32VW553/V1_MQTT_OK/GD32VW55X_Wifi_BLE_SDK/GD32VW55x_RELEASE_V1.0.2/MSDK/wpa_supplicant/src/crypto\des-internal.c **** 	u32 work[2];
 1227              		.loc 2 471 2
 472:C:/Users/stapi/OneDrive/Desktop/GD32VW553/V1_MQTT_OK/GD32VW55X_Wifi_BLE_SDK/GD32VW55x_RELEASE_V1.0.2/MSDK/wpa_supplicant/src/crypto\des-internal.c **** 
 473:C:/Users/stapi/OneDrive/Desktop/GD32VW553/V1_MQTT_OK/GD32VW55X_Wifi_BLE_SDK/GD32VW55x_RELEASE_V1.0.2/MSDK/wpa_supplicant/src/crypto\des-internal.c **** 	work[0] = WPA_GET_BE32(plain);
 1228              		.loc 2 473 2
 470:C:/Users/stapi/OneDrive/Desktop/GD32VW553/V1_MQTT_OK/GD32VW55X_Wifi_BLE_SDK/GD32VW55x_RELEASE_V1.0.2/MSDK/wpa_supplicant/src/crypto\des-internal.c **** 	u32 work[2];
 1229              		.loc 2 470 1 is_stmt 0
 1230 0008 4111     		addi	sp,sp,-16
 1231              		.cfi_def_cfa_offset 32
 470:C:/Users/stapi/OneDrive/Desktop/GD32VW553/V1_MQTT_OK/GD32VW55X_Wifi_BLE_SDK/GD32VW55x_RELEASE_V1.0.2/MSDK/wpa_supplicant/src/crypto\des-internal.c **** 	u32 work[2];
 1232              		.loc 2 470 1
 1233 000a B284     		mv	s1,a2
 1234 000c 2E84     		mv	s0,a1
 1235 000e 2A89     		mv	s2,a0
 1236              		.loc 2 473 12
 1237 0010 97000000 		call	WPA_GET_BE32
 1237      E7800000 
 1238              	.LVL144:
 1239              		.loc 2 473 10
 1240 0018 2AC4     		sw	a0,8(sp)
 474:C:/Users/stapi/OneDrive/Desktop/GD32VW553/V1_MQTT_OK/GD32VW55X_Wifi_BLE_SDK/GD32VW55x_RELEASE_V1.0.2/MSDK/wpa_supplicant/src/crypto\des-internal.c **** 	work[1] = WPA_GET_BE32(plain + 4);
 1241              		.loc 2 474 2 is_stmt 1
 1242              		.loc 2 474 12 is_stmt 0
 1243 001a 13054900 		addi	a0,s2,4
 1244 001e 97000000 		call	WPA_GET_BE32
 1244      E7800000 
 1245              	.LVL145:
 1246              		.loc 2 474 10
 1247 0026 2AC6     		sw	a0,12(sp)
 475:C:/Users/stapi/OneDrive/Desktop/GD32VW553/V1_MQTT_OK/GD32VW55X_Wifi_BLE_SDK/GD32VW55x_RELEASE_V1.0.2/MSDK/wpa_supplicant/src/crypto\des-internal.c **** 	desfunc(work, key->ek[0]);
 1248              		.loc 2 475 2 is_stmt 1
 1249 0028 A285     		mv	a1,s0
 1250 002a 2800     		addi	a0,sp,8
 1251 002c 97000000 		call	desfunc
 1251      E7800000 
 1252              	.LVL146:
 476:C:/Users/stapi/OneDrive/Desktop/GD32VW553/V1_MQTT_OK/GD32VW55X_Wifi_BLE_SDK/GD32VW55x_RELEASE_V1.0.2/MSDK/wpa_supplicant/src/crypto\des-internal.c **** 	desfunc(work, key->ek[1]);
 1253              		.loc 2 476 2
 1254 0034 93050408 		addi	a1,s0,128
 1255 0038 2800     		addi	a0,sp,8
 1256 003a 97000000 		call	desfunc
 1256      E7800000 
 1257              	.LVL147:
 477:C:/Users/stapi/OneDrive/Desktop/GD32VW553/V1_MQTT_OK/GD32VW55X_Wifi_BLE_SDK/GD32VW55x_RELEASE_V1.0.2/MSDK/wpa_supplicant/src/crypto\des-internal.c **** 	desfunc(work, key->ek[2]);
 1258              		.loc 2 477 2
 1259 0042 93050410 		addi	a1,s0,256
 1260 0046 2800     		addi	a0,sp,8
 1261 0048 97000000 		call	desfunc
 1261      E7800000 
 1262              	.LVL148:
 478:C:/Users/stapi/OneDrive/Desktop/GD32VW553/V1_MQTT_OK/GD32VW55X_Wifi_BLE_SDK/GD32VW55x_RELEASE_V1.0.2/MSDK/wpa_supplicant/src/crypto\des-internal.c **** 	WPA_PUT_BE32(crypt, work[0]);
 1263              		.loc 2 478 2
 1264 0050 A245     		lw	a1,8(sp)
 1265 0052 2685     		mv	a0,s1
 1266 0054 97000000 		call	WPA_PUT_BE32
 1266      E7800000 
 1267              	.LVL149:
 479:C:/Users/stapi/OneDrive/Desktop/GD32VW553/V1_MQTT_OK/GD32VW55X_Wifi_BLE_SDK/GD32VW55x_RELEASE_V1.0.2/MSDK/wpa_supplicant/src/crypto\des-internal.c **** 	WPA_PUT_BE32(crypt + 4, work[1]);
 1268              		.loc 2 479 2
 1269 005c B245     		lw	a1,12(sp)
 1270 005e 13854400 		addi	a0,s1,4
 1271 0062 97000000 		call	WPA_PUT_BE32
 1271      E7800000 
 1272              	.LVL150:
 480:C:/Users/stapi/OneDrive/Desktop/GD32VW553/V1_MQTT_OK/GD32VW55X_Wifi_BLE_SDK/GD32VW55x_RELEASE_V1.0.2/MSDK/wpa_supplicant/src/crypto\des-internal.c **** }
 1273              		.loc 2 480 1 is_stmt 0
 1274 006a 4101     		addi	sp,sp,16
 1275              		.cfi_def_cfa_offset 0
 1276 006c 17030000 		tail	__riscv_restore_3
 1276      67000300 
 1277              		.cfi_restore 18
 1278              		.cfi_restore 9
 1279              		.cfi_restore 8
 1280              		.cfi_restore 1
 1281              		.cfi_def_cfa_offset -16
 1282              		.cfi_endproc
 1283              	.LFE79:
 1285              		.section	.text.des3_decrypt,"ax",@progbits
 1286              		.align	1
 1287              		.globl	des3_decrypt
 1289              	des3_decrypt:
 1290              	.LFB80:
 481:C:/Users/stapi/OneDrive/Desktop/GD32VW553/V1_MQTT_OK/GD32VW55X_Wifi_BLE_SDK/GD32VW55x_RELEASE_V1.0.2/MSDK/wpa_supplicant/src/crypto\des-internal.c **** 
 482:C:/Users/stapi/OneDrive/Desktop/GD32VW553/V1_MQTT_OK/GD32VW55X_Wifi_BLE_SDK/GD32VW55x_RELEASE_V1.0.2/MSDK/wpa_supplicant/src/crypto\des-internal.c **** 
 483:C:/Users/stapi/OneDrive/Desktop/GD32VW553/V1_MQTT_OK/GD32VW55X_Wifi_BLE_SDK/GD32VW55x_RELEASE_V1.0.2/MSDK/wpa_supplicant/src/crypto\des-internal.c **** void des3_decrypt(const u8 *crypt, const struct des3_key_s *key, u8 *plain)
 484:C:/Users/stapi/OneDrive/Desktop/GD32VW553/V1_MQTT_OK/GD32VW55X_Wifi_BLE_SDK/GD32VW55x_RELEASE_V1.0.2/MSDK/wpa_supplicant/src/crypto\des-internal.c **** {
 1291              		.loc 2 484 1 is_stmt 1
 1292              		.cfi_startproc
 1293              	.LVL151:
 1294 0000 17030000 		call	t0,__riscv_save_3
 1294      E7020300 
 1295              		.cfi_offset 18, -16
 1296              		.cfi_offset 9, -12
 1297              		.cfi_offset 8, -8
 1298              		.cfi_offset 1, -4
 1299              		.cfi_def_cfa_offset 16
 485:C:/Users/stapi/OneDrive/Desktop/GD32VW553/V1_MQTT_OK/GD32VW55X_Wifi_BLE_SDK/GD32VW55x_RELEASE_V1.0.2/MSDK/wpa_supplicant/src/crypto\des-internal.c **** 	u32 work[2];
 1300              		.loc 2 485 2
 486:C:/Users/stapi/OneDrive/Desktop/GD32VW553/V1_MQTT_OK/GD32VW55X_Wifi_BLE_SDK/GD32VW55x_RELEASE_V1.0.2/MSDK/wpa_supplicant/src/crypto\des-internal.c **** 
 487:C:/Users/stapi/OneDrive/Desktop/GD32VW553/V1_MQTT_OK/GD32VW55X_Wifi_BLE_SDK/GD32VW55x_RELEASE_V1.0.2/MSDK/wpa_supplicant/src/crypto\des-internal.c **** 	work[0] = WPA_GET_BE32(crypt);
 1301              		.loc 2 487 2
 484:C:/Users/stapi/OneDrive/Desktop/GD32VW553/V1_MQTT_OK/GD32VW55X_Wifi_BLE_SDK/GD32VW55x_RELEASE_V1.0.2/MSDK/wpa_supplicant/src/crypto\des-internal.c **** 	u32 work[2];
 1302              		.loc 2 484 1 is_stmt 0
 1303 0008 4111     		addi	sp,sp,-16
 1304              		.cfi_def_cfa_offset 32
 484:C:/Users/stapi/OneDrive/Desktop/GD32VW553/V1_MQTT_OK/GD32VW55X_Wifi_BLE_SDK/GD32VW55x_RELEASE_V1.0.2/MSDK/wpa_supplicant/src/crypto\des-internal.c **** 	u32 work[2];
 1305              		.loc 2 484 1
 1306 000a B284     		mv	s1,a2
 1307 000c 2E84     		mv	s0,a1
 1308 000e 2A89     		mv	s2,a0
 1309              		.loc 2 487 12
 1310 0010 97000000 		call	WPA_GET_BE32
 1310      E7800000 
 1311              	.LVL152:
 1312              		.loc 2 487 10
 1313 0018 2AC4     		sw	a0,8(sp)
 488:C:/Users/stapi/OneDrive/Desktop/GD32VW553/V1_MQTT_OK/GD32VW55X_Wifi_BLE_SDK/GD32VW55x_RELEASE_V1.0.2/MSDK/wpa_supplicant/src/crypto\des-internal.c **** 	work[1] = WPA_GET_BE32(crypt + 4);
 1314              		.loc 2 488 2 is_stmt 1
 1315              		.loc 2 488 12 is_stmt 0
 1316 001a 13054900 		addi	a0,s2,4
 1317 001e 97000000 		call	WPA_GET_BE32
 1317      E7800000 
 1318              	.LVL153:
 1319              		.loc 2 488 10
 1320 0026 2AC6     		sw	a0,12(sp)
 489:C:/Users/stapi/OneDrive/Desktop/GD32VW553/V1_MQTT_OK/GD32VW55X_Wifi_BLE_SDK/GD32VW55x_RELEASE_V1.0.2/MSDK/wpa_supplicant/src/crypto\des-internal.c **** 	desfunc(work, key->dk[0]);
 1321              		.loc 2 489 2 is_stmt 1
 1322 0028 93050418 		addi	a1,s0,384
 1323 002c 2800     		addi	a0,sp,8
 1324 002e 97000000 		call	desfunc
 1324      E7800000 
 1325              	.LVL154:
 490:C:/Users/stapi/OneDrive/Desktop/GD32VW553/V1_MQTT_OK/GD32VW55X_Wifi_BLE_SDK/GD32VW55x_RELEASE_V1.0.2/MSDK/wpa_supplicant/src/crypto\des-internal.c **** 	desfunc(work, key->dk[1]);
 1326              		.loc 2 490 2
 1327 0036 93050420 		addi	a1,s0,512
 1328 003a 2800     		addi	a0,sp,8
 1329 003c 97000000 		call	desfunc
 1329      E7800000 
 1330              	.LVL155:
 491:C:/Users/stapi/OneDrive/Desktop/GD32VW553/V1_MQTT_OK/GD32VW55X_Wifi_BLE_SDK/GD32VW55x_RELEASE_V1.0.2/MSDK/wpa_supplicant/src/crypto\des-internal.c **** 	desfunc(work, key->dk[2]);
 1331              		.loc 2 491 2
 1332 0044 93050428 		addi	a1,s0,640
 1333 0048 2800     		addi	a0,sp,8
 1334 004a 97000000 		call	desfunc
 1334      E7800000 
 1335              	.LVL156:
 492:C:/Users/stapi/OneDrive/Desktop/GD32VW553/V1_MQTT_OK/GD32VW55X_Wifi_BLE_SDK/GD32VW55x_RELEASE_V1.0.2/MSDK/wpa_supplicant/src/crypto\des-internal.c **** 	WPA_PUT_BE32(plain, work[0]);
 1336              		.loc 2 492 2
 1337 0052 A245     		lw	a1,8(sp)
 1338 0054 2685     		mv	a0,s1
 1339 0056 97000000 		call	WPA_PUT_BE32
 1339      E7800000 
 1340              	.LVL157:
 493:C:/Users/stapi/OneDrive/Desktop/GD32VW553/V1_MQTT_OK/GD32VW55X_Wifi_BLE_SDK/GD32VW55x_RELEASE_V1.0.2/MSDK/wpa_supplicant/src/crypto\des-internal.c **** 	WPA_PUT_BE32(plain + 4, work[1]);
 1341              		.loc 2 493 2
 1342 005e B245     		lw	a1,12(sp)
 1343 0060 13854400 		addi	a0,s1,4
 1344 0064 97000000 		call	WPA_PUT_BE32
 1344      E7800000 
 1345              	.LVL158:
 494:C:/Users/stapi/OneDrive/Desktop/GD32VW553/V1_MQTT_OK/GD32VW55X_Wifi_BLE_SDK/GD32VW55x_RELEASE_V1.0.2/MSDK/wpa_supplicant/src/crypto\des-internal.c **** }
 1346              		.loc 2 494 1 is_stmt 0
 1347 006c 4101     		addi	sp,sp,16
 1348              		.cfi_def_cfa_offset 0
 1349 006e 17030000 		tail	__riscv_restore_3
 1349      67000300 
 1350              		.cfi_restore 18
 1351              		.cfi_restore 9
 1352              		.cfi_restore 8
 1353              		.cfi_restore 1
 1354              		.cfi_def_cfa_offset -16
 1355              		.cfi_endproc
 1356              	.LFE80:
 1358              		.section	.rodata.SP1,"a"
 1359              		.align	2
 1360              		.set	.LANCHOR4,. + 0
 1363              	SP1:
 1364 0000 00040101 		.word	16843776
 1365 0004 00000000 		.word	0
 1366 0008 00000100 		.word	65536
 1367 000c 04040101 		.word	16843780
 1368 0010 04000101 		.word	16842756
 1369 0014 04040100 		.word	66564
 1370 0018 04000000 		.word	4
 1371 001c 00000100 		.word	65536
 1372 0020 00040000 		.word	1024
 1373 0024 00040101 		.word	16843776
 1374 0028 04040101 		.word	16843780
 1375 002c 00040000 		.word	1024
 1376 0030 04040001 		.word	16778244
 1377 0034 04000101 		.word	16842756
 1378 0038 00000001 		.word	16777216
 1379 003c 04000000 		.word	4
 1380 0040 04040000 		.word	1028
 1381 0044 00040001 		.word	16778240
 1382 0048 00040001 		.word	16778240
 1383 004c 00040100 		.word	66560
 1384 0050 00040100 		.word	66560
 1385 0054 00000101 		.word	16842752
 1386 0058 00000101 		.word	16842752
 1387 005c 04040001 		.word	16778244
 1388 0060 04000100 		.word	65540
 1389 0064 04000001 		.word	16777220
 1390 0068 04000001 		.word	16777220
 1391 006c 04000100 		.word	65540
 1392 0070 00000000 		.word	0
 1393 0074 04040000 		.word	1028
 1394 0078 04040100 		.word	66564
 1395 007c 00000001 		.word	16777216
 1396 0080 00000100 		.word	65536
 1397 0084 04040101 		.word	16843780
 1398 0088 04000000 		.word	4
 1399 008c 00000101 		.word	16842752
 1400 0090 00040101 		.word	16843776
 1401 0094 00000001 		.word	16777216
 1402 0098 00000001 		.word	16777216
 1403 009c 00040000 		.word	1024
 1404 00a0 04000101 		.word	16842756
 1405 00a4 00000100 		.word	65536
 1406 00a8 00040100 		.word	66560
 1407 00ac 04000001 		.word	16777220
 1408 00b0 00040000 		.word	1024
 1409 00b4 04000000 		.word	4
 1410 00b8 04040001 		.word	16778244
 1411 00bc 04040100 		.word	66564
 1412 00c0 04040101 		.word	16843780
 1413 00c4 04000100 		.word	65540
 1414 00c8 00000101 		.word	16842752
 1415 00cc 04040001 		.word	16778244
 1416 00d0 04000001 		.word	16777220
 1417 00d4 04040000 		.word	1028
 1418 00d8 04040100 		.word	66564
 1419 00dc 00040101 		.word	16843776
 1420 00e0 04040000 		.word	1028
 1421 00e4 00040001 		.word	16778240
 1422 00e8 00040001 		.word	16778240
 1423 00ec 00000000 		.word	0
 1424 00f0 04000100 		.word	65540
 1425 00f4 00040100 		.word	66560
 1426 00f8 00000000 		.word	0
 1427 00fc 04000101 		.word	16842756
 1428              		.section	.rodata.SP2,"a"
 1429              		.align	2
 1430              		.set	.LANCHOR7,. + 0
 1433              	SP2:
 1434 0000 20801080 		.word	-2146402272
 1435 0004 00800080 		.word	-2147450880
 1436 0008 00800000 		.word	32768
 1437 000c 20801000 		.word	1081376
 1438 0010 00001000 		.word	1048576
 1439 0014 20000000 		.word	32
 1440 0018 20001080 		.word	-2146435040
 1441 001c 20800080 		.word	-2147450848
 1442 0020 20000080 		.word	-2147483616
 1443 0024 20801080 		.word	-2146402272
 1444 0028 00801080 		.word	-2146402304
 1445 002c 00000080 		.word	-2147483648
 1446 0030 00800080 		.word	-2147450880
 1447 0034 00001000 		.word	1048576
 1448 0038 20000000 		.word	32
 1449 003c 20001080 		.word	-2146435040
 1450 0040 00801000 		.word	1081344
 1451 0044 20001000 		.word	1048608
 1452 0048 20800080 		.word	-2147450848
 1453 004c 00000000 		.word	0
 1454 0050 00000080 		.word	-2147483648
 1455 0054 00800000 		.word	32768
 1456 0058 20801000 		.word	1081376
 1457 005c 00001080 		.word	-2146435072
 1458 0060 20001000 		.word	1048608
 1459 0064 20000080 		.word	-2147483616
 1460 0068 00000000 		.word	0
 1461 006c 00801000 		.word	1081344
 1462 0070 20800000 		.word	32800
 1463 0074 00801080 		.word	-2146402304
 1464 0078 00001080 		.word	-2146435072
 1465 007c 20800000 		.word	32800
 1466 0080 00000000 		.word	0
 1467 0084 20801000 		.word	1081376
 1468 0088 20001080 		.word	-2146435040
 1469 008c 00001000 		.word	1048576
 1470 0090 20800080 		.word	-2147450848
 1471 0094 00001080 		.word	-2146435072
 1472 0098 00801080 		.word	-2146402304
 1473 009c 00800000 		.word	32768
 1474 00a0 00001080 		.word	-2146435072
 1475 00a4 00800080 		.word	-2147450880
 1476 00a8 20000000 		.word	32
 1477 00ac 20801080 		.word	-2146402272
 1478 00b0 20801000 		.word	1081376
 1479 00b4 20000000 		.word	32
 1480 00b8 00800000 		.word	32768
 1481 00bc 00000080 		.word	-2147483648
 1482 00c0 20800000 		.word	32800
 1483 00c4 00801080 		.word	-2146402304
 1484 00c8 00001000 		.word	1048576
 1485 00cc 20000080 		.word	-2147483616
 1486 00d0 20001000 		.word	1048608
 1487 00d4 20800080 		.word	-2147450848
 1488 00d8 20000080 		.word	-2147483616
 1489 00dc 20001000 		.word	1048608
 1490 00e0 00801000 		.word	1081344
 1491 00e4 00000000 		.word	0
 1492 00e8 00800080 		.word	-2147450880
 1493 00ec 20800000 		.word	32800
 1494 00f0 00000080 		.word	-2147483648
 1495 00f4 20001080 		.word	-2146435040
 1496 00f8 20801080 		.word	-2146402272
 1497 00fc 00801000 		.word	1081344
 1498              		.section	.rodata.SP3,"a"
 1499              		.align	2
 1500              		.set	.LANCHOR3,. + 0
 1503              	SP3:
 1504 0000 08020000 		.word	520
 1505 0004 00020208 		.word	134349312
 1506 0008 00000000 		.word	0
 1507 000c 08000208 		.word	134348808
 1508 0010 00020008 		.word	134218240
 1509 0014 00000000 		.word	0
 1510 0018 08020200 		.word	131592
 1511 001c 00020008 		.word	134218240
 1512 0020 08000200 		.word	131080
 1513 0024 08000008 		.word	134217736
 1514 0028 08000008 		.word	134217736
 1515 002c 00000200 		.word	131072
 1516 0030 08020208 		.word	134349320
 1517 0034 08000200 		.word	131080
 1518 0038 00000208 		.word	134348800
 1519 003c 08020000 		.word	520
 1520 0040 00000008 		.word	134217728
 1521 0044 08000000 		.word	8
 1522 0048 00020208 		.word	134349312
 1523 004c 00020000 		.word	512
 1524 0050 00020200 		.word	131584
 1525 0054 00000208 		.word	134348800
 1526 0058 08000208 		.word	134348808
 1527 005c 08020200 		.word	131592
 1528 0060 08020008 		.word	134218248
 1529 0064 00020200 		.word	131584
 1530 0068 00000200 		.word	131072
 1531 006c 08020008 		.word	134218248
 1532 0070 08000000 		.word	8
 1533 0074 08020208 		.word	134349320
 1534 0078 00020000 		.word	512
 1535 007c 00000008 		.word	134217728
 1536 0080 00020208 		.word	134349312
 1537 0084 00000008 		.word	134217728
 1538 0088 08000200 		.word	131080
 1539 008c 08020000 		.word	520
 1540 0090 00000200 		.word	131072
 1541 0094 00020208 		.word	134349312
 1542 0098 00020008 		.word	134218240
 1543 009c 00000000 		.word	0
 1544 00a0 00020000 		.word	512
 1545 00a4 08000200 		.word	131080
 1546 00a8 08020208 		.word	134349320
 1547 00ac 00020008 		.word	134218240
 1548 00b0 08000008 		.word	134217736
 1549 00b4 00020000 		.word	512
 1550 00b8 00000000 		.word	0
 1551 00bc 08000208 		.word	134348808
 1552 00c0 08020008 		.word	134218248
 1553 00c4 00000200 		.word	131072
 1554 00c8 00000008 		.word	134217728
 1555 00cc 08020208 		.word	134349320
 1556 00d0 08000000 		.word	8
 1557 00d4 08020200 		.word	131592
 1558 00d8 00020200 		.word	131584
 1559 00dc 08000008 		.word	134217736
 1560 00e0 00000208 		.word	134348800
 1561 00e4 08020008 		.word	134218248
 1562 00e8 08020000 		.word	520
 1563 00ec 00000208 		.word	134348800
 1564 00f0 08020200 		.word	131592
 1565 00f4 08000000 		.word	8
 1566 00f8 08000208 		.word	134348808
 1567 00fc 00020200 		.word	131584
 1568              		.section	.rodata.SP4,"a"
 1569              		.align	2
 1570              		.set	.LANCHOR6,. + 0
 1573              	SP4:
 1574 0000 01208000 		.word	8396801
 1575 0004 81200000 		.word	8321
 1576 0008 81200000 		.word	8321
 1577 000c 80000000 		.word	128
 1578 0010 80208000 		.word	8396928
 1579 0014 81008000 		.word	8388737
 1580 0018 01008000 		.word	8388609
 1581 001c 01200000 		.word	8193
 1582 0020 00000000 		.word	0
 1583 0024 00208000 		.word	8396800
 1584 0028 00208000 		.word	8396800
 1585 002c 81208000 		.word	8396929
 1586 0030 81000000 		.word	129
 1587 0034 00000000 		.word	0
 1588 0038 80008000 		.word	8388736
 1589 003c 01008000 		.word	8388609
 1590 0040 01000000 		.word	1
 1591 0044 00200000 		.word	8192
 1592 0048 00008000 		.word	8388608
 1593 004c 01208000 		.word	8396801
 1594 0050 80000000 		.word	128
 1595 0054 00008000 		.word	8388608
 1596 0058 01200000 		.word	8193
 1597 005c 80200000 		.word	8320
 1598 0060 81008000 		.word	8388737
 1599 0064 01000000 		.word	1
 1600 0068 80200000 		.word	8320
 1601 006c 80008000 		.word	8388736
 1602 0070 00200000 		.word	8192
 1603 0074 80208000 		.word	8396928
 1604 0078 81208000 		.word	8396929
 1605 007c 81000000 		.word	129
 1606 0080 80008000 		.word	8388736
 1607 0084 01008000 		.word	8388609
 1608 0088 00208000 		.word	8396800
 1609 008c 81208000 		.word	8396929
 1610 0090 81000000 		.word	129
 1611 0094 00000000 		.word	0
 1612 0098 00000000 		.word	0
 1613 009c 00208000 		.word	8396800
 1614 00a0 80200000 		.word	8320
 1615 00a4 80008000 		.word	8388736
 1616 00a8 81008000 		.word	8388737
 1617 00ac 01000000 		.word	1
 1618 00b0 01208000 		.word	8396801
 1619 00b4 81200000 		.word	8321
 1620 00b8 81200000 		.word	8321
 1621 00bc 80000000 		.word	128
 1622 00c0 81208000 		.word	8396929
 1623 00c4 81000000 		.word	129
 1624 00c8 01000000 		.word	1
 1625 00cc 00200000 		.word	8192
 1626 00d0 01008000 		.word	8388609
 1627 00d4 01200000 		.word	8193
 1628 00d8 80208000 		.word	8396928
 1629 00dc 81008000 		.word	8388737
 1630 00e0 01200000 		.word	8193
 1631 00e4 80200000 		.word	8320
 1632 00e8 00008000 		.word	8388608
 1633 00ec 01208000 		.word	8396801
 1634 00f0 80000000 		.word	128
 1635 00f4 00008000 		.word	8388608
 1636 00f8 00200000 		.word	8192
 1637 00fc 80208000 		.word	8396928
 1638              		.section	.rodata.SP5,"a"
 1639              		.align	2
 1640              		.set	.LANCHOR2,. + 0
 1643              	SP5:
 1644 0000 00010000 		.word	256
 1645 0004 00010802 		.word	34078976
 1646 0008 00000802 		.word	34078720
 1647 000c 00010042 		.word	1107296512
 1648 0010 00000800 		.word	524288
 1649 0014 00010000 		.word	256
 1650 0018 00000040 		.word	1073741824
 1651 001c 00000802 		.word	34078720
 1652 0020 00010840 		.word	1074266368
 1653 0024 00000800 		.word	524288
 1654 0028 00010002 		.word	33554688
 1655 002c 00010840 		.word	1074266368
 1656 0030 00010042 		.word	1107296512
 1657 0034 00000842 		.word	1107820544
 1658 0038 00010800 		.word	524544
 1659 003c 00000040 		.word	1073741824
 1660 0040 00000002 		.word	33554432
 1661 0044 00000840 		.word	1074266112
 1662 0048 00000840 		.word	1074266112
 1663 004c 00000000 		.word	0
 1664 0050 00010040 		.word	1073742080
 1665 0054 00010842 		.word	1107820800
 1666 0058 00010842 		.word	1107820800
 1667 005c 00010002 		.word	33554688
 1668 0060 00000842 		.word	1107820544
 1669 0064 00010040 		.word	1073742080
 1670 0068 00000000 		.word	0
 1671 006c 00000042 		.word	1107296256
 1672 0070 00010802 		.word	34078976
 1673 0074 00000002 		.word	33554432
 1674 0078 00000042 		.word	1107296256
 1675 007c 00010800 		.word	524544
 1676 0080 00000800 		.word	524288
 1677 0084 00010042 		.word	1107296512
 1678 0088 00010000 		.word	256
 1679 008c 00000002 		.word	33554432
 1680 0090 00000040 		.word	1073741824
 1681 0094 00000802 		.word	34078720
 1682 0098 00010042 		.word	1107296512
 1683 009c 00010840 		.word	1074266368
 1684 00a0 00010002 		.word	33554688
 1685 00a4 00000040 		.word	1073741824
 1686 00a8 00000842 		.word	1107820544
 1687 00ac 00010802 		.word	34078976
 1688 00b0 00010840 		.word	1074266368
 1689 00b4 00010000 		.word	256
 1690 00b8 00000002 		.word	33554432
 1691 00bc 00000842 		.word	1107820544
 1692 00c0 00010842 		.word	1107820800
 1693 00c4 00010800 		.word	524544
 1694 00c8 00000042 		.word	1107296256
 1695 00cc 00010842 		.word	1107820800
 1696 00d0 00000802 		.word	34078720
 1697 00d4 00000000 		.word	0
 1698 00d8 00000840 		.word	1074266112
 1699 00dc 00000042 		.word	1107296256
 1700 00e0 00010800 		.word	524544
 1701 00e4 00010002 		.word	33554688
 1702 00e8 00010040 		.word	1073742080
 1703 00ec 00000800 		.word	524288
 1704 00f0 00000000 		.word	0
 1705 00f4 00000840 		.word	1074266112
 1706 00f8 00010802 		.word	34078976
 1707 00fc 00010040 		.word	1073742080
 1708              		.section	.rodata.SP6,"a"
 1709              		.align	2
 1710              		.set	.LANCHOR5,. + 0
 1713              	SP6:
 1714 0000 10000020 		.word	536870928
 1715 0004 00004020 		.word	541065216
 1716 0008 00400000 		.word	16384
 1717 000c 10404020 		.word	541081616
 1718 0010 00004020 		.word	541065216
 1719 0014 10000000 		.word	16
 1720 0018 10404020 		.word	541081616
 1721 001c 00004000 		.word	4194304
 1722 0020 00400020 		.word	536887296
 1723 0024 10404000 		.word	4210704
 1724 0028 00004000 		.word	4194304
 1725 002c 10000020 		.word	536870928
 1726 0030 10004000 		.word	4194320
 1727 0034 00400020 		.word	536887296
 1728 0038 00000020 		.word	536870912
 1729 003c 10400000 		.word	16400
 1730 0040 00000000 		.word	0
 1731 0044 10004000 		.word	4194320
 1732 0048 10400020 		.word	536887312
 1733 004c 00400000 		.word	16384
 1734 0050 00404000 		.word	4210688
 1735 0054 10400020 		.word	536887312
 1736 0058 10000000 		.word	16
 1737 005c 10004020 		.word	541065232
 1738 0060 10004020 		.word	541065232
 1739 0064 00000000 		.word	0
 1740 0068 10404000 		.word	4210704
 1741 006c 00404020 		.word	541081600
 1742 0070 10400000 		.word	16400
 1743 0074 00404000 		.word	4210688
 1744 0078 00404020 		.word	541081600
 1745 007c 00000020 		.word	536870912
 1746 0080 00400020 		.word	536887296
 1747 0084 10000000 		.word	16
 1748 0088 10004020 		.word	541065232
 1749 008c 00404000 		.word	4210688
 1750 0090 10404020 		.word	541081616
 1751 0094 00004000 		.word	4194304
 1752 0098 10400000 		.word	16400
 1753 009c 10000020 		.word	536870928
 1754 00a0 00004000 		.word	4194304
 1755 00a4 00400020 		.word	536887296
 1756 00a8 00000020 		.word	536870912
 1757 00ac 10400000 		.word	16400
 1758 00b0 10000020 		.word	536870928
 1759 00b4 10404020 		.word	541081616
 1760 00b8 00404000 		.word	4210688
 1761 00bc 00004020 		.word	541065216
 1762 00c0 10404000 		.word	4210704
 1763 00c4 00404020 		.word	541081600
 1764 00c8 00000000 		.word	0
 1765 00cc 10004020 		.word	541065232
 1766 00d0 10000000 		.word	16
 1767 00d4 00400000 		.word	16384
 1768 00d8 00004020 		.word	541065216
 1769 00dc 10404000 		.word	4210704
 1770 00e0 00400000 		.word	16384
 1771 00e4 10004000 		.word	4194320
 1772 00e8 10400020 		.word	536887312
 1773 00ec 00000000 		.word	0
 1774 00f0 00404020 		.word	541081600
 1775 00f4 00000020 		.word	536870912
 1776 00f8 10004000 		.word	4194320
 1777 00fc 10400020 		.word	536887312
 1778              		.section	.rodata.SP7,"a"
 1779              		.align	2
 1780              		.set	.LANCHOR0,. + 0
 1783              	SP7:
 1784 0000 00002000 		.word	2097152
 1785 0004 02002004 		.word	69206018
 1786 0008 02080004 		.word	67110914
 1787 000c 00000000 		.word	0
 1788 0010 00080000 		.word	2048
 1789 0014 02080004 		.word	67110914
 1790 0018 02082000 		.word	2099202
 1791 001c 00082004 		.word	69208064
 1792 0020 02082004 		.word	69208066
 1793 0024 00002000 		.word	2097152
 1794 0028 00000000 		.word	0
 1795 002c 02000004 		.word	67108866
 1796 0030 02000000 		.word	2
 1797 0034 00000004 		.word	67108864
 1798 0038 02002004 		.word	69206018
 1799 003c 02080000 		.word	2050
 1800 0040 00080004 		.word	67110912
 1801 0044 02082000 		.word	2099202
 1802 0048 02002000 		.word	2097154
 1803 004c 00080004 		.word	67110912
 1804 0050 02000004 		.word	67108866
 1805 0054 00002004 		.word	69206016
 1806 0058 00082004 		.word	69208064
 1807 005c 02002000 		.word	2097154
 1808 0060 00002004 		.word	69206016
 1809 0064 00080000 		.word	2048
 1810 0068 02080000 		.word	2050
 1811 006c 02082004 		.word	69208066
 1812 0070 00082000 		.word	2099200
 1813 0074 02000000 		.word	2
 1814 0078 00000004 		.word	67108864
 1815 007c 00082000 		.word	2099200
 1816 0080 00000004 		.word	67108864
 1817 0084 00082000 		.word	2099200
 1818 0088 00002000 		.word	2097152
 1819 008c 02080004 		.word	67110914
 1820 0090 02080004 		.word	67110914
 1821 0094 02002004 		.word	69206018
 1822 0098 02002004 		.word	69206018
 1823 009c 02000000 		.word	2
 1824 00a0 02002000 		.word	2097154
 1825 00a4 00000004 		.word	67108864
 1826 00a8 00080004 		.word	67110912
 1827 00ac 00002000 		.word	2097152
 1828 00b0 00082004 		.word	69208064
 1829 00b4 02080000 		.word	2050
 1830 00b8 02082000 		.word	2099202
 1831 00bc 00082004 		.word	69208064
 1832 00c0 02080000 		.word	2050
 1833 00c4 02000004 		.word	67108866
 1834 00c8 02082004 		.word	69208066
 1835 00cc 00002004 		.word	69206016
 1836 00d0 00082000 		.word	2099200
 1837 00d4 00000000 		.word	0
 1838 00d8 02000000 		.word	2
 1839 00dc 02082004 		.word	69208066
 1840 00e0 00000000 		.word	0
 1841 00e4 02082000 		.word	2099202
 1842 00e8 00002004 		.word	69206016
 1843 00ec 00080000 		.word	2048
 1844 00f0 02000004 		.word	67108866
 1845 00f4 00080004 		.word	67110912
 1846 00f8 00080000 		.word	2048
 1847 00fc 02002000 		.word	2097154
 1848              		.section	.rodata.SP8,"a"
 1849              		.align	2
 1850              		.set	.LANCHOR1,. + 0
 1853              	SP8:
 1854 0000 40100010 		.word	268439616
 1855 0004 00100000 		.word	4096
 1856 0008 00000400 		.word	262144
 1857 000c 40100410 		.word	268701760
 1858 0010 00000010 		.word	268435456
 1859 0014 40100010 		.word	268439616
 1860 0018 40000000 		.word	64
 1861 001c 00000010 		.word	268435456
 1862 0020 40000400 		.word	262208
 1863 0024 00000410 		.word	268697600
 1864 0028 40100410 		.word	268701760
 1865 002c 00100400 		.word	266240
 1866 0030 00100410 		.word	268701696
 1867 0034 40100400 		.word	266304
 1868 0038 00100000 		.word	4096
 1869 003c 40000000 		.word	64
 1870 0040 00000410 		.word	268697600
 1871 0044 40000010 		.word	268435520
 1872 0048 00100010 		.word	268439552
 1873 004c 40100000 		.word	4160
 1874 0050 00100400 		.word	266240
 1875 0054 40000400 		.word	262208
 1876 0058 40000410 		.word	268697664
 1877 005c 00100410 		.word	268701696
 1878 0060 40100000 		.word	4160
 1879 0064 00000000 		.word	0
 1880 0068 00000000 		.word	0
 1881 006c 40000410 		.word	268697664
 1882 0070 40000010 		.word	268435520
 1883 0074 00100010 		.word	268439552
 1884 0078 40100400 		.word	266304
 1885 007c 00000400 		.word	262144
 1886 0080 40100400 		.word	266304
 1887 0084 00000400 		.word	262144
 1888 0088 00100410 		.word	268701696
 1889 008c 00100000 		.word	4096
 1890 0090 40000000 		.word	64
 1891 0094 40000410 		.word	268697664
 1892 0098 00100000 		.word	4096
 1893 009c 40100400 		.word	266304
 1894 00a0 00100010 		.word	268439552
 1895 00a4 40000000 		.word	64
 1896 00a8 40000010 		.word	268435520
 1897 00ac 00000410 		.word	268697600
 1898 00b0 40000410 		.word	268697664
 1899 00b4 00000010 		.word	268435456
 1900 00b8 00000400 		.word	262144
 1901 00bc 40100010 		.word	268439616
 1902 00c0 00000000 		.word	0
 1903 00c4 40100410 		.word	268701760
 1904 00c8 40000400 		.word	262208
 1905 00cc 40000010 		.word	268435520
 1906 00d0 00000410 		.word	268697600
 1907 00d4 00100010 		.word	268439552
 1908 00d8 40100010 		.word	268439616
 1909 00dc 00000000 		.word	0
 1910 00e0 40100410 		.word	268701760
 1911 00e4 00100400 		.word	266240
 1912 00e8 00100400 		.word	266240
 1913 00ec 40100000 		.word	4160
 1914 00f0 40100000 		.word	4160
 1915 00f4 40000400 		.word	262208
 1916 00f8 00000010 		.word	268435456
 1917 00fc 00100410 		.word	268701696
 1918              		.section	.rodata.bigbyte,"a"
 1919              		.align	2
 1920              		.set	.LANCHOR12,. + 0
 1923              	bigbyte:
 1924 0000 00008000 		.word	8388608
 1925 0004 00004000 		.word	4194304
 1926 0008 00002000 		.word	2097152
 1927 000c 00001000 		.word	1048576
 1928 0010 00000800 		.word	524288
 1929 0014 00000400 		.word	262144
 1930 0018 00000200 		.word	131072
 1931 001c 00000100 		.word	65536
 1932 0020 00800000 		.word	32768
 1933 0024 00400000 		.word	16384
 1934 0028 00200000 		.word	8192
 1935 002c 00100000 		.word	4096
 1936 0030 00080000 		.word	2048
 1937 0034 00040000 		.word	1024
 1938 0038 00020000 		.word	512
 1939 003c 00010000 		.word	256
 1940 0040 80000000 		.word	128
 1941 0044 40000000 		.word	64
 1942 0048 20000000 		.word	32
 1943 004c 10000000 		.word	16
 1944 0050 08000000 		.word	8
 1945 0054 04000000 		.word	4
 1946 0058 02000000 		.word	2
 1947 005c 01000000 		.word	1
 1948              		.section	.rodata.bytebit,"a"
 1949              		.align	2
 1950              		.set	.LANCHOR9,. + 0
 1953              	bytebit:
 1954 0000 80000000 		.word	128
 1955 0004 40000000 		.word	64
 1956 0008 20000000 		.word	32
 1957 000c 10000000 		.word	16
 1958 0010 08000000 		.word	8
 1959 0014 04000000 		.word	4
 1960 0018 02000000 		.word	2
 1961 001c 01000000 		.word	1
 1962              		.section	.rodata.pc1,"a"
 1963              		.align	2
 1964              		.set	.LANCHOR8,. + 0
 1967              	pc1:
 1968 0000 38302820 		.string	"80( \030\020\b"
 1968      18100800 
 1969 0008 39312921 		.ascii	"91)!\031\021\t\001:2*\"\032\022\n\002;3+#>6.&\036\026\016\006"
 1969      19110901 
 1969      3A322A22 
 1969      1A120A02 
 1969      3B332B23 
 1970 0024 3D352D25 		.ascii	"=5-%\035\025\r\005<4,$\034\024\f\004\033\023\013\003"
 1970      1D150D05 
 1970      3C342C24 
 1970      1C140C04 
 1970      1B130B03 
 1971              		.section	.rodata.pc2,"a"
 1972              		.align	2
 1973              		.set	.LANCHOR11,. + 0
 1976              	pc2:
 1977 0000 0D100A17 		.string	"\r\020\n\027"
 1977      00
 1978 0005 04021B0E 		.ascii	"\004\002\033\016\005\024\t\026\022\013\003\031\007\017\006\032"
 1978      05140916 
 1978      120B0319 
 1978      070F061A 
 1979 0015 130C0128 		.ascii	"\023\f\001(3\036$.6\035'2, /+0&7!4-)1#\034\037"
 1979      331E242E 
 1979      361D2732 
 1979      2C202F2B 
 1979      30263721 
 1980              		.section	.rodata.totrot,"a"
 1981              		.align	2
 1982              		.set	.LANCHOR10,. + 0
 1985              	totrot:
 1986 0000 01020406 		.ascii	"\001\002\004\006\b\n\f\016\017\021\023\025\027\031\033\034"
 1986      080A0C0E 
 1986      0F111315 
 1986      17191B1C 
 1987              		.text
 1988              	.Letext0:
 1989              		.file 3 "c:\\users\\stapi\\onedrive\\desktop\\gd32vw553\\embeddedbuilder_v1.4.7.26843\\tools\\nucl
 1990              		.file 4 "c:\\users\\stapi\\onedrive\\desktop\\gd32vw553\\embeddedbuilder_v1.4.7.26843\\tools\\nucl
 1991              		.file 5 "C:/Users/stapi/OneDrive/Desktop/GD32VW553/V1_MQTT_OK/GD32VW55X_Wifi_BLE_SDK/GD32VW55x_REL
 1992              		.file 6 "..\\..\\..\\..\\wpa_supplicant\\src\\utils/os.h"
 1993              		.file 7 "..\\..\\..\\..\\lwip\\lwip-2.1.2\\src\\include/lwip/memp.h"
 1994              		.file 8 "..\\..\\..\\..\\lwip\\lwip-2.1.2\\src\\include/lwip/netif.h"
DEFINED SYMBOLS
                            *ABS*:0000000000000000 des-internal.c
C:\Users\stapi\AppData\Local\Temp\ccNUz4ge.s:12     .text.WPA_GET_BE32:0000000000000000 WPA_GET_BE32
C:\Users\stapi\AppData\Local\Temp\ccNUz4ge.s:16     .text.WPA_GET_BE32:0000000000000000 .L0 
C:\Users\stapi\AppData\Local\Temp\ccNUz4ge.s:18     .text.WPA_GET_BE32:0000000000000000 .L0 
C:\Users\stapi\AppData\Local\Temp\ccNUz4ge.s:19     .text.WPA_GET_BE32:0000000000000000 .L0 
C:\Users\stapi\AppData\Local\Temp\ccNUz4ge.s:31     .text.WPA_GET_BE32:000000000000001c .L0 
C:\Users\stapi\AppData\Local\Temp\ccNUz4ge.s:33     .text.WPA_GET_BE32:0000000000000022 .L0 
C:\Users\stapi\AppData\Local\Temp\ccNUz4ge.s:39     .text.WPA_PUT_BE32:0000000000000000 WPA_PUT_BE32
C:\Users\stapi\AppData\Local\Temp\ccNUz4ge.s:42     .text.WPA_PUT_BE32:0000000000000000 .L0 
C:\Users\stapi\AppData\Local\Temp\ccNUz4ge.s:44     .text.WPA_PUT_BE32:0000000000000000 .L0 
C:\Users\stapi\AppData\Local\Temp\ccNUz4ge.s:45     .text.WPA_PUT_BE32:0000000000000000 .L0 
C:\Users\stapi\AppData\Local\Temp\ccNUz4ge.s:46     .text.WPA_PUT_BE32:0000000000000000 .L0 
C:\Users\stapi\AppData\Local\Temp\ccNUz4ge.s:48     .text.WPA_PUT_BE32:0000000000000004 .L0 
C:\Users\stapi\AppData\Local\Temp\ccNUz4ge.s:50     .text.WPA_PUT_BE32:0000000000000008 .L0 
C:\Users\stapi\AppData\Local\Temp\ccNUz4ge.s:51     .text.WPA_PUT_BE32:0000000000000008 .L0 
C:\Users\stapi\AppData\Local\Temp\ccNUz4ge.s:53     .text.WPA_PUT_BE32:000000000000000c .L0 
C:\Users\stapi\AppData\Local\Temp\ccNUz4ge.s:55     .text.WPA_PUT_BE32:0000000000000010 .L0 
C:\Users\stapi\AppData\Local\Temp\ccNUz4ge.s:56     .text.WPA_PUT_BE32:0000000000000010 .L0 
C:\Users\stapi\AppData\Local\Temp\ccNUz4ge.s:58     .text.WPA_PUT_BE32:0000000000000014 .L0 
C:\Users\stapi\AppData\Local\Temp\ccNUz4ge.s:60     .text.WPA_PUT_BE32:0000000000000018 .L0 
C:\Users\stapi\AppData\Local\Temp\ccNUz4ge.s:61     .text.WPA_PUT_BE32:0000000000000018 .L0 
C:\Users\stapi\AppData\Local\Temp\ccNUz4ge.s:63     .text.WPA_PUT_BE32:000000000000001c .L0 
C:\Users\stapi\AppData\Local\Temp\ccNUz4ge.s:64     .text.WPA_PUT_BE32:000000000000001e .L0 
C:\Users\stapi\AppData\Local\Temp\ccNUz4ge.s:70     .text.desfunc:0000000000000000 desfunc
C:\Users\stapi\AppData\Local\Temp\ccNUz4ge.s:74     .text.desfunc:0000000000000000 .L0 
C:\Users\stapi\AppData\Local\Temp\ccNUz4ge.s:76     .text.desfunc:0000000000000000 .L0 
C:\Users\stapi\AppData\Local\Temp\ccNUz4ge.s:77     .text.desfunc:0000000000000008 .L0 
C:\Users\stapi\AppData\Local\Temp\ccNUz4ge.s:78     .text.desfunc:0000000000000008 .L0 
C:\Users\stapi\AppData\Local\Temp\ccNUz4ge.s:79     .text.desfunc:0000000000000008 .L0 
C:\Users\stapi\AppData\Local\Temp\ccNUz4ge.s:81     .text.desfunc:0000000000000008 .L0 
C:\Users\stapi\AppData\Local\Temp\ccNUz4ge.s:82     .text.desfunc:0000000000000008 .L0 
C:\Users\stapi\AppData\Local\Temp\ccNUz4ge.s:83     .text.desfunc:0000000000000008 .L0 
C:\Users\stapi\AppData\Local\Temp\ccNUz4ge.s:84     .text.desfunc:0000000000000008 .L0 
C:\Users\stapi\AppData\Local\Temp\ccNUz4ge.s:87     .text.desfunc:000000000000000a .L0 
C:\Users\stapi\AppData\Local\Temp\ccNUz4ge.s:88     .text.desfunc:000000000000000a .L0 
C:\Users\stapi\AppData\Local\Temp\ccNUz4ge.s:91     .text.desfunc:000000000000000c .L0 
C:\Users\stapi\AppData\Local\Temp\ccNUz4ge.s:92     .text.desfunc:000000000000000c .L0 
C:\Users\stapi\AppData\Local\Temp\ccNUz4ge.s:94     .text.desfunc:0000000000000010 .L0 
C:\Users\stapi\AppData\Local\Temp\ccNUz4ge.s:96     .text.desfunc:0000000000000014 .L0 
C:\Users\stapi\AppData\Local\Temp\ccNUz4ge.s:98     .text.desfunc:0000000000000018 .L0 
C:\Users\stapi\AppData\Local\Temp\ccNUz4ge.s:102    .text.desfunc:0000000000000020 .L0 
C:\Users\stapi\AppData\Local\Temp\ccNUz4ge.s:103    .text.desfunc:0000000000000020 .L0 
C:\Users\stapi\AppData\Local\Temp\ccNUz4ge.s:106    .text.desfunc:0000000000000024 .L0 
C:\Users\stapi\AppData\Local\Temp\ccNUz4ge.s:107    .text.desfunc:0000000000000024 .L0 
C:\Users\stapi\AppData\Local\Temp\ccNUz4ge.s:110    .text.desfunc:0000000000000026 .L0 
C:\Users\stapi\AppData\Local\Temp\ccNUz4ge.s:113    .text.desfunc:000000000000002a .L0 
C:\Users\stapi\AppData\Local\Temp\ccNUz4ge.s:114    .text.desfunc:000000000000002a .L0 
C:\Users\stapi\AppData\Local\Temp\ccNUz4ge.s:117    .text.desfunc:000000000000002e .L0 
C:\Users\stapi\AppData\Local\Temp\ccNUz4ge.s:119    .text.desfunc:0000000000000030 .L0 
C:\Users\stapi\AppData\Local\Temp\ccNUz4ge.s:122    .text.desfunc:0000000000000034 .L0 
C:\Users\stapi\AppData\Local\Temp\ccNUz4ge.s:123    .text.desfunc:0000000000000034 .L0 
C:\Users\stapi\AppData\Local\Temp\ccNUz4ge.s:126    .text.desfunc:0000000000000038 .L0 
C:\Users\stapi\AppData\Local\Temp\ccNUz4ge.s:127    .text.desfunc:0000000000000038 .L0 
C:\Users\stapi\AppData\Local\Temp\ccNUz4ge.s:129    .text.desfunc:000000000000003c .L0 
C:\Users\stapi\AppData\Local\Temp\ccNUz4ge.s:132    .text.desfunc:0000000000000040 .L0 
C:\Users\stapi\AppData\Local\Temp\ccNUz4ge.s:133    .text.desfunc:0000000000000040 .L0 
C:\Users\stapi\AppData\Local\Temp\ccNUz4ge.s:135    .text.desfunc:0000000000000044 .L0 
C:\Users\stapi\AppData\Local\Temp\ccNUz4ge.s:138    .text.desfunc:0000000000000048 .L0 
C:\Users\stapi\AppData\Local\Temp\ccNUz4ge.s:140    .text.desfunc:000000000000004a .L0 
C:\Users\stapi\AppData\Local\Temp\ccNUz4ge.s:144    .text.desfunc:0000000000000050 .L0 
C:\Users\stapi\AppData\Local\Temp\ccNUz4ge.s:145    .text.desfunc:0000000000000050 .L0 
C:\Users\stapi\AppData\Local\Temp\ccNUz4ge.s:148    .text.desfunc:0000000000000052 .L0 
C:\Users\stapi\AppData\Local\Temp\ccNUz4ge.s:149    .text.desfunc:0000000000000052 .L0 
C:\Users\stapi\AppData\Local\Temp\ccNUz4ge.s:152    .text.desfunc:0000000000000054 .L0 
C:\Users\stapi\AppData\Local\Temp\ccNUz4ge.s:155    .text.desfunc:0000000000000056 .L0 
C:\Users\stapi\AppData\Local\Temp\ccNUz4ge.s:156    .text.desfunc:0000000000000056 .L0 
C:\Users\stapi\AppData\Local\Temp\ccNUz4ge.s:159    .text.desfunc:000000000000005a .L0 
C:\Users\stapi\AppData\Local\Temp\ccNUz4ge.s:162    .text.desfunc:000000000000005e .L0 
C:\Users\stapi\AppData\Local\Temp\ccNUz4ge.s:164    .text.desfunc:0000000000000060 .L0 
C:\Users\stapi\AppData\Local\Temp\ccNUz4ge.s:168    .text.desfunc:0000000000000066 .L0 
C:\Users\stapi\AppData\Local\Temp\ccNUz4ge.s:169    .text.desfunc:0000000000000066 .L0 
C:\Users\stapi\AppData\Local\Temp\ccNUz4ge.s:171    .text.desfunc:000000000000006a .L0 
C:\Users\stapi\AppData\Local\Temp\ccNUz4ge.s:173    .text.desfunc:000000000000006c .L0 
C:\Users\stapi\AppData\Local\Temp\ccNUz4ge.s:176    .text.desfunc:000000000000006e .L0 
C:\Users\stapi\AppData\Local\Temp\ccNUz4ge.s:177    .text.desfunc:000000000000006e .L0 
C:\Users\stapi\AppData\Local\Temp\ccNUz4ge.s:180    .text.desfunc:0000000000000070 .L0 
C:\Users\stapi\AppData\Local\Temp\ccNUz4ge.s:181    .text.desfunc:0000000000000070 .L0 
C:\Users\stapi\AppData\Local\Temp\ccNUz4ge.s:183    .text.desfunc:0000000000000074 .L0 
C:\Users\stapi\AppData\Local\Temp\ccNUz4ge.s:186    .text.desfunc:0000000000000078 .L0 
C:\Users\stapi\AppData\Local\Temp\ccNUz4ge.s:187    .text.desfunc:0000000000000078 .L0 
C:\Users\stapi\AppData\Local\Temp\ccNUz4ge.s:189    .text.desfunc:000000000000007c .L0 
C:\Users\stapi\AppData\Local\Temp\ccNUz4ge.s:192    .text.desfunc:0000000000000080 .L0 
C:\Users\stapi\AppData\Local\Temp\ccNUz4ge.s:195    .text.desfunc:0000000000000082 .L0 
C:\Users\stapi\AppData\Local\Temp\ccNUz4ge.s:196    .text.desfunc:0000000000000082 .L0 
C:\Users\stapi\AppData\Local\Temp\ccNUz4ge.s:199    .text.desfunc:0000000000000084 .L0 
C:\Users\stapi\AppData\Local\Temp\ccNUz4ge.s:200    .text.desfunc:0000000000000084 .L0 
C:\Users\stapi\AppData\Local\Temp\ccNUz4ge.s:202    .text.desfunc:0000000000000088 .L0 
C:\Users\stapi\AppData\Local\Temp\ccNUz4ge.s:204    .text.desfunc:000000000000008c .L0 
C:\Users\stapi\AppData\Local\Temp\ccNUz4ge.s:206    .text.desfunc:0000000000000090 .L0 
C:\Users\stapi\AppData\Local\Temp\ccNUz4ge.s:208    .text.desfunc:0000000000000094 .L0 
C:\Users\stapi\AppData\Local\Temp\ccNUz4ge.s:210    .text.desfunc:0000000000000098 .L0 
C:\Users\stapi\AppData\Local\Temp\ccNUz4ge.s:212    .text.desfunc:000000000000009c .L0 
C:\Users\stapi\AppData\Local\Temp\ccNUz4ge.s:214    .text.desfunc:00000000000000a0 .L0 
C:\Users\stapi\AppData\Local\Temp\ccNUz4ge.s:217    .text.desfunc:00000000000000a4 .L0 
C:\Users\stapi\AppData\Local\Temp\ccNUz4ge.s:219    .text.desfunc:00000000000000a8 .L0 
C:\Users\stapi\AppData\Local\Temp\ccNUz4ge.s:222    .text.desfunc:00000000000000aa .L0 
C:\Users\stapi\AppData\Local\Temp\ccNUz4ge.s:223    .text.desfunc:00000000000000aa .L0 
C:\Users\stapi\AppData\Local\Temp\ccNUz4ge.s:224    .text.desfunc:00000000000000aa .L0 
C:\Users\stapi\AppData\Local\Temp\ccNUz4ge.s:226    .text.desfunc:00000000000000ae .L0 
C:\Users\stapi\AppData\Local\Temp\ccNUz4ge.s:228    .text.desfunc:00000000000000b2 .L0 
C:\Users\stapi\AppData\Local\Temp\ccNUz4ge.s:230    .text.desfunc:00000000000000b6 .L0 
C:\Users\stapi\AppData\Local\Temp\ccNUz4ge.s:232    .text.desfunc:00000000000000ba .L0 
C:\Users\stapi\AppData\Local\Temp\ccNUz4ge.s:234    .text.desfunc:00000000000000be .L0 
C:\Users\stapi\AppData\Local\Temp\ccNUz4ge.s:236    .text.desfunc:00000000000000c2 .L0 
C:\Users\stapi\AppData\Local\Temp\ccNUz4ge.s:238    .text.desfunc:00000000000000c6 .L0 
C:\Users\stapi\AppData\Local\Temp\ccNUz4ge.s:240    .text.desfunc:00000000000000ca .L0 
C:\Users\stapi\AppData\Local\Temp\ccNUz4ge.s:244    .text.desfunc:00000000000000ce .L0 
C:\Users\stapi\AppData\Local\Temp\ccNUz4ge.s:245    .text.desfunc:00000000000000ce .L0 
C:\Users\stapi\AppData\Local\Temp\ccNUz4ge.s:247    .text.desfunc:00000000000000d0 .L0 
C:\Users\stapi\AppData\Local\Temp\ccNUz4ge.s:249    .text.desfunc:00000000000000d2 .L0 
C:\Users\stapi\AppData\Local\Temp\ccNUz4ge.s:251    .text.desfunc:00000000000000d6 .L0 
C:\Users\stapi\AppData\Local\Temp\ccNUz4ge.s:254    .text.desfunc:00000000000000da .L0 
C:\Users\stapi\AppData\Local\Temp\ccNUz4ge.s:255    .text.desfunc:00000000000000da .L0 
C:\Users\stapi\AppData\Local\Temp\ccNUz4ge.s:256    .text.desfunc:00000000000000da .L0 
C:\Users\stapi\AppData\Local\Temp\ccNUz4ge.s:259    .text.desfunc:00000000000000dc .L0 
C:\Users\stapi\AppData\Local\Temp\ccNUz4ge.s:260    .text.desfunc:00000000000000dc .L0 
C:\Users\stapi\AppData\Local\Temp\ccNUz4ge.s:263    .text.desfunc:00000000000000e0 .L0 
C:\Users\stapi\AppData\Local\Temp\ccNUz4ge.s:265    .text.desfunc:00000000000000e4 .L0 
C:\Users\stapi\AppData\Local\Temp\ccNUz4ge.s:268    .text.desfunc:00000000000000e8 .L0 
C:\Users\stapi\AppData\Local\Temp\ccNUz4ge.s:270    .text.desfunc:00000000000000ec .L0 
C:\Users\stapi\AppData\Local\Temp\ccNUz4ge.s:274    .text.desfunc:00000000000000f2 .L0 
C:\Users\stapi\AppData\Local\Temp\ccNUz4ge.s:276    .text.desfunc:00000000000000f6 .L0 
C:\Users\stapi\AppData\Local\Temp\ccNUz4ge.s:279    .text.desfunc:00000000000000fc .L0 
C:\Users\stapi\AppData\Local\Temp\ccNUz4ge.s:282    .text.desfunc:0000000000000100 .L0 
C:\Users\stapi\AppData\Local\Temp\ccNUz4ge.s:284    .text.desfunc:0000000000000104 .L0 
C:\Users\stapi\AppData\Local\Temp\ccNUz4ge.s:286    .text.desfunc:0000000000000108 .L0 
C:\Users\stapi\AppData\Local\Temp\ccNUz4ge.s:289    .text.desfunc:000000000000010c .L0 
C:\Users\stapi\AppData\Local\Temp\ccNUz4ge.s:291    .text.desfunc:000000000000010e .L0 
C:\Users\stapi\AppData\Local\Temp\ccNUz4ge.s:293    .text.desfunc:0000000000000112 .L0 
C:\Users\stapi\AppData\Local\Temp\ccNUz4ge.s:295    .text.desfunc:0000000000000114 .L0 
C:\Users\stapi\AppData\Local\Temp\ccNUz4ge.s:297    .text.desfunc:0000000000000116 .L0 
C:\Users\stapi\AppData\Local\Temp\ccNUz4ge.s:301    .text.desfunc:0000000000000120 .L0 
C:\Users\stapi\AppData\Local\Temp\ccNUz4ge.s:303    .text.desfunc:0000000000000124 .L0 
C:\Users\stapi\AppData\Local\Temp\ccNUz4ge.s:306    .text.desfunc:000000000000012a .L0 
C:\Users\stapi\AppData\Local\Temp\ccNUz4ge.s:309    .text.desfunc:0000000000000132 .L0 
C:\Users\stapi\AppData\Local\Temp\ccNUz4ge.s:311    .text.desfunc:0000000000000136 .L0 
C:\Users\stapi\AppData\Local\Temp\ccNUz4ge.s:314    .text.desfunc:000000000000013c .L0 
C:\Users\stapi\AppData\Local\Temp\ccNUz4ge.s:316    .text.desfunc:0000000000000140 .L0 
C:\Users\stapi\AppData\Local\Temp\ccNUz4ge.s:319    .text.desfunc:0000000000000142 .L0 
C:\Users\stapi\AppData\Local\Temp\ccNUz4ge.s:322    .text.desfunc:0000000000000148 .L0 
C:\Users\stapi\AppData\Local\Temp\ccNUz4ge.s:328    .text.desfunc:0000000000000156 .L0 
C:\Users\stapi\AppData\Local\Temp\ccNUz4ge.s:329    .text.desfunc:0000000000000156 .L0 
C:\Users\stapi\AppData\Local\Temp\ccNUz4ge.s:331    .text.desfunc:0000000000000158 .L0 
C:\Users\stapi\AppData\Local\Temp\ccNUz4ge.s:335    .text.desfunc:000000000000015e .L0 
C:\Users\stapi\AppData\Local\Temp\ccNUz4ge.s:337    .text.desfunc:0000000000000162 .L0 
C:\Users\stapi\AppData\Local\Temp\ccNUz4ge.s:340    .text.desfunc:0000000000000166 .L0 
C:\Users\stapi\AppData\Local\Temp\ccNUz4ge.s:341    .text.desfunc:0000000000000166 .L0 
C:\Users\stapi\AppData\Local\Temp\ccNUz4ge.s:342    .text.desfunc:0000000000000166 .L0 
C:\Users\stapi\AppData\Local\Temp\ccNUz4ge.s:345    .text.desfunc:000000000000016a .L0 
C:\Users\stapi\AppData\Local\Temp\ccNUz4ge.s:348    .text.desfunc:000000000000016c .L0 
C:\Users\stapi\AppData\Local\Temp\ccNUz4ge.s:349    .text.desfunc:000000000000016c .L0 
C:\Users\stapi\AppData\Local\Temp\ccNUz4ge.s:351    .text.desfunc:0000000000000170 .L0 
C:\Users\stapi\AppData\Local\Temp\ccNUz4ge.s:354    .text.desfunc:0000000000000174 .L0 
C:\Users\stapi\AppData\Local\Temp\ccNUz4ge.s:361    .text.desfunc:0000000000000180 .L0 
C:\Users\stapi\AppData\Local\Temp\ccNUz4ge.s:363    .text.desfunc:0000000000000184 .L0 
C:\Users\stapi\AppData\Local\Temp\ccNUz4ge.s:368    .text.desfunc:000000000000018e .L0 
C:\Users\stapi\AppData\Local\Temp\ccNUz4ge.s:370    .text.desfunc:0000000000000192 .L0 
C:\Users\stapi\AppData\Local\Temp\ccNUz4ge.s:374    .text.desfunc:000000000000019a .L0 
C:\Users\stapi\AppData\Local\Temp\ccNUz4ge.s:377    .text.desfunc:000000000000019c .L0 
C:\Users\stapi\AppData\Local\Temp\ccNUz4ge.s:383    .text.desfunc:00000000000001a8 .L0 
C:\Users\stapi\AppData\Local\Temp\ccNUz4ge.s:385    .text.desfunc:00000000000001ac .L0 
C:\Users\stapi\AppData\Local\Temp\ccNUz4ge.s:390    .text.desfunc:00000000000001b6 .L0 
C:\Users\stapi\AppData\Local\Temp\ccNUz4ge.s:392    .text.desfunc:00000000000001ba .L0 
C:\Users\stapi\AppData\Local\Temp\ccNUz4ge.s:396    .text.desfunc:00000000000001c2 .L0 
C:\Users\stapi\AppData\Local\Temp\ccNUz4ge.s:398    .text.desfunc:00000000000001c6 .L0 
C:\Users\stapi\AppData\Local\Temp\ccNUz4ge.s:402    .text.desfunc:00000000000001ce .L0 
C:\Users\stapi\AppData\Local\Temp\ccNUz4ge.s:406    .text.desfunc:00000000000001d4 .L0 
C:\Users\stapi\AppData\Local\Temp\ccNUz4ge.s:407    .text.desfunc:00000000000001d4 .L0 
C:\Users\stapi\AppData\Local\Temp\ccNUz4ge.s:408    .text.desfunc:00000000000001d4 .L0 
C:\Users\stapi\AppData\Local\Temp\ccNUz4ge.s:410    .text.desfunc:00000000000001d8 .L0 
C:\Users\stapi\AppData\Local\Temp\ccNUz4ge.s:411    .text.desfunc:00000000000001d8 .L0 
C:\Users\stapi\AppData\Local\Temp\ccNUz4ge.s:414    .text.desfunc:00000000000001e0 .L0 
C:\Users\stapi\AppData\Local\Temp\ccNUz4ge.s:417    .text.desfunc:00000000000001e4 .L0 
C:\Users\stapi\AppData\Local\Temp\ccNUz4ge.s:418    .text.desfunc:00000000000001e4 .L0 
C:\Users\stapi\AppData\Local\Temp\ccNUz4ge.s:420    .text.desfunc:00000000000001e8 .L0 
C:\Users\stapi\AppData\Local\Temp\ccNUz4ge.s:423    .text.desfunc:00000000000001ea .L0 
C:\Users\stapi\AppData\Local\Temp\ccNUz4ge.s:424    .text.desfunc:00000000000001ea .L0 
C:\Users\stapi\AppData\Local\Temp\ccNUz4ge.s:427    .text.desfunc:00000000000001ec .L0 
C:\Users\stapi\AppData\Local\Temp\ccNUz4ge.s:428    .text.desfunc:00000000000001ec .L0 
C:\Users\stapi\AppData\Local\Temp\ccNUz4ge.s:431    .text.desfunc:00000000000001ee .L0 
C:\Users\stapi\AppData\Local\Temp\ccNUz4ge.s:432    .text.desfunc:00000000000001ee .L0 
C:\Users\stapi\AppData\Local\Temp\ccNUz4ge.s:435    .text.desfunc:00000000000001f2 .L0 
C:\Users\stapi\AppData\Local\Temp\ccNUz4ge.s:436    .text.desfunc:00000000000001f2 .L0 
C:\Users\stapi\AppData\Local\Temp\ccNUz4ge.s:439    .text.desfunc:00000000000001f6 .L0 
C:\Users\stapi\AppData\Local\Temp\ccNUz4ge.s:441    .text.desfunc:00000000000001fa .L0 
C:\Users\stapi\AppData\Local\Temp\ccNUz4ge.s:443    .text.desfunc:00000000000001fc .L0 
C:\Users\stapi\AppData\Local\Temp\ccNUz4ge.s:447    .text.desfunc:0000000000000202 .L0 
C:\Users\stapi\AppData\Local\Temp\ccNUz4ge.s:448    .text.desfunc:0000000000000202 .L0 
C:\Users\stapi\AppData\Local\Temp\ccNUz4ge.s:451    .text.desfunc:0000000000000204 .L0 
C:\Users\stapi\AppData\Local\Temp\ccNUz4ge.s:452    .text.desfunc:0000000000000204 .L0 
C:\Users\stapi\AppData\Local\Temp\ccNUz4ge.s:455    .text.desfunc:0000000000000206 .L0 
C:\Users\stapi\AppData\Local\Temp\ccNUz4ge.s:458    .text.desfunc:0000000000000208 .L0 
C:\Users\stapi\AppData\Local\Temp\ccNUz4ge.s:459    .text.desfunc:0000000000000208 .L0 
C:\Users\stapi\AppData\Local\Temp\ccNUz4ge.s:461    .text.desfunc:000000000000020c .L0 
C:\Users\stapi\AppData\Local\Temp\ccNUz4ge.s:463    .text.desfunc:0000000000000210 .L0 
C:\Users\stapi\AppData\Local\Temp\ccNUz4ge.s:465    .text.desfunc:0000000000000212 .L0 
C:\Users\stapi\AppData\Local\Temp\ccNUz4ge.s:469    .text.desfunc:0000000000000218 .L0 
C:\Users\stapi\AppData\Local\Temp\ccNUz4ge.s:470    .text.desfunc:0000000000000218 .L0 
C:\Users\stapi\AppData\Local\Temp\ccNUz4ge.s:473    .text.desfunc:000000000000021a .L0 
C:\Users\stapi\AppData\Local\Temp\ccNUz4ge.s:474    .text.desfunc:000000000000021a .L0 
C:\Users\stapi\AppData\Local\Temp\ccNUz4ge.s:476    .text.desfunc:000000000000021e .L0 
C:\Users\stapi\AppData\Local\Temp\ccNUz4ge.s:479    .text.desfunc:0000000000000220 .L0 
C:\Users\stapi\AppData\Local\Temp\ccNUz4ge.s:480    .text.desfunc:0000000000000220 .L0 
C:\Users\stapi\AppData\Local\Temp\ccNUz4ge.s:483    .text.desfunc:0000000000000224 .L0 
C:\Users\stapi\AppData\Local\Temp\ccNUz4ge.s:485    .text.desfunc:0000000000000226 .L0 
C:\Users\stapi\AppData\Local\Temp\ccNUz4ge.s:488    .text.desfunc:000000000000022a .L0 
C:\Users\stapi\AppData\Local\Temp\ccNUz4ge.s:489    .text.desfunc:000000000000022a .L0 
C:\Users\stapi\AppData\Local\Temp\ccNUz4ge.s:492    .text.desfunc:000000000000022c .L0 
C:\Users\stapi\AppData\Local\Temp\ccNUz4ge.s:493    .text.desfunc:000000000000022c .L0 
C:\Users\stapi\AppData\Local\Temp\ccNUz4ge.s:496    .text.desfunc:000000000000022e .L0 
C:\Users\stapi\AppData\Local\Temp\ccNUz4ge.s:499    .text.desfunc:0000000000000230 .L0 
C:\Users\stapi\AppData\Local\Temp\ccNUz4ge.s:500    .text.desfunc:0000000000000230 .L0 
C:\Users\stapi\AppData\Local\Temp\ccNUz4ge.s:502    .text.desfunc:0000000000000234 .L0 
C:\Users\stapi\AppData\Local\Temp\ccNUz4ge.s:504    .text.desfunc:0000000000000238 .L0 
C:\Users\stapi\AppData\Local\Temp\ccNUz4ge.s:506    .text.desfunc:000000000000023a .L0 
C:\Users\stapi\AppData\Local\Temp\ccNUz4ge.s:510    .text.desfunc:0000000000000240 .L0 
C:\Users\stapi\AppData\Local\Temp\ccNUz4ge.s:511    .text.desfunc:0000000000000240 .L0 
C:\Users\stapi\AppData\Local\Temp\ccNUz4ge.s:512    .text.desfunc:0000000000000240 .L0 
C:\Users\stapi\AppData\Local\Temp\ccNUz4ge.s:513    .text.desfunc:0000000000000240 .L0 
C:\Users\stapi\AppData\Local\Temp\ccNUz4ge.s:515    .text.desfunc:0000000000000244 .L0 
C:\Users\stapi\AppData\Local\Temp\ccNUz4ge.s:518    .text.desfunc:0000000000000246 .L0 
C:\Users\stapi\AppData\Local\Temp\ccNUz4ge.s:521    .text.desfunc:0000000000000248 .L0 
C:\Users\stapi\AppData\Local\Temp\ccNUz4ge.s:523    .text.desfunc:000000000000024a .L0 
C:\Users\stapi\AppData\Local\Temp\ccNUz4ge.s:524    .text.desfunc:000000000000024a .L0 
C:\Users\stapi\AppData\Local\Temp\ccNUz4ge.s:526    .text.desfunc:000000000000024c .L0 
C:\Users\stapi\AppData\Local\Temp\ccNUz4ge.s:527    .text.desfunc:0000000000000254 .L0 
C:\Users\stapi\AppData\Local\Temp\ccNUz4ge.s:528    .text.desfunc:0000000000000254 .L0 
C:\Users\stapi\AppData\Local\Temp\ccNUz4ge.s:529    .text.desfunc:0000000000000254 .L0 
C:\Users\stapi\AppData\Local\Temp\ccNUz4ge.s:530    .text.desfunc:0000000000000254 .L0 
C:\Users\stapi\AppData\Local\Temp\ccNUz4ge.s:536    .text.deskey:0000000000000000 deskey
C:\Users\stapi\AppData\Local\Temp\ccNUz4ge.s:539    .text.deskey:0000000000000000 .L0 
C:\Users\stapi\AppData\Local\Temp\ccNUz4ge.s:541    .text.deskey:0000000000000000 .L0 
C:\Users\stapi\AppData\Local\Temp\ccNUz4ge.s:542    .text.deskey:0000000000000008 .L0 
C:\Users\stapi\AppData\Local\Temp\ccNUz4ge.s:543    .text.deskey:0000000000000008 .L0 
C:\Users\stapi\AppData\Local\Temp\ccNUz4ge.s:544    .text.deskey:0000000000000008 .L0 
C:\Users\stapi\AppData\Local\Temp\ccNUz4ge.s:545    .text.deskey:0000000000000008 .L0 
C:\Users\stapi\AppData\Local\Temp\ccNUz4ge.s:546    .text.deskey:0000000000000008 .L0 
C:\Users\stapi\AppData\Local\Temp\ccNUz4ge.s:547    .text.deskey:0000000000000008 .L0 
C:\Users\stapi\AppData\Local\Temp\ccNUz4ge.s:549    .text.deskey:0000000000000008 .L0 
C:\Users\stapi\AppData\Local\Temp\ccNUz4ge.s:550    .text.deskey:0000000000000008 .L0 
C:\Users\stapi\AppData\Local\Temp\ccNUz4ge.s:552    .text.deskey:0000000000000008 .L0 
C:\Users\stapi\AppData\Local\Temp\ccNUz4ge.s:553    .text.deskey:0000000000000008 .L0 
C:\Users\stapi\AppData\Local\Temp\ccNUz4ge.s:554    .text.deskey:0000000000000008 .L0 
C:\Users\stapi\AppData\Local\Temp\ccNUz4ge.s:556    .text.deskey:000000000000000c .L0 
C:\Users\stapi\AppData\Local\Temp\ccNUz4ge.s:558    .text.deskey:0000000000000010 .L0 
C:\Users\stapi\AppData\Local\Temp\ccNUz4ge.s:560    .text.deskey:0000000000000014 .L0 
C:\Users\stapi\AppData\Local\Temp\ccNUz4ge.s:562    .text.deskey:0000000000000014 .L0 
C:\Users\stapi\AppData\Local\Temp\ccNUz4ge.s:565    .text.deskey:0000000000000016 .L0 
C:\Users\stapi\AppData\Local\Temp\ccNUz4ge.s:567    .text.deskey:0000000000000018 .L0 
C:\Users\stapi\AppData\Local\Temp\ccNUz4ge.s:569    .text.deskey:000000000000001c .L0 
C:\Users\stapi\AppData\Local\Temp\ccNUz4ge.s:571    .text.deskey:0000000000000020 .L0 
C:\Users\stapi\AppData\Local\Temp\ccNUz4ge.s:575    .text.deskey:0000000000000024 .L0 
C:\Users\stapi\AppData\Local\Temp\ccNUz4ge.s:576    .text.deskey:0000000000000024 .L0 
C:\Users\stapi\AppData\Local\Temp\ccNUz4ge.s:580    .text.deskey:000000000000002c .L0 
C:\Users\stapi\AppData\Local\Temp\ccNUz4ge.s:581    .text.deskey:000000000000002c .L0 
C:\Users\stapi\AppData\Local\Temp\ccNUz4ge.s:582    .text.deskey:000000000000002c .L0 
C:\Users\stapi\AppData\Local\Temp\ccNUz4ge.s:584    .text.deskey:0000000000000030 .L0 
C:\Users\stapi\AppData\Local\Temp\ccNUz4ge.s:587    .text.deskey:0000000000000032 .L0 
C:\Users\stapi\AppData\Local\Temp\ccNUz4ge.s:589    .text.deskey:0000000000000034 .L0 
C:\Users\stapi\AppData\Local\Temp\ccNUz4ge.s:591    .text.deskey:0000000000000038 .L0 
C:\Users\stapi\AppData\Local\Temp\ccNUz4ge.s:593    .text.deskey:000000000000003c .L0 
C:\Users\stapi\AppData\Local\Temp\ccNUz4ge.s:595    .text.deskey:0000000000000040 .L0 
C:\Users\stapi\AppData\Local\Temp\ccNUz4ge.s:597    .text.deskey:0000000000000044 .L0 
C:\Users\stapi\AppData\Local\Temp\ccNUz4ge.s:600    .text.deskey:0000000000000046 .L0 
C:\Users\stapi\AppData\Local\Temp\ccNUz4ge.s:605    .text.deskey:0000000000000052 .L0 
C:\Users\stapi\AppData\Local\Temp\ccNUz4ge.s:606    .text.deskey:0000000000000052 .L0 
C:\Users\stapi\AppData\Local\Temp\ccNUz4ge.s:607    .text.deskey:0000000000000052 .L0 
C:\Users\stapi\AppData\Local\Temp\ccNUz4ge.s:614    .text.deskey:0000000000000062 .L0 
C:\Users\stapi\AppData\Local\Temp\ccNUz4ge.s:616    .text.deskey:0000000000000064 .L0 
C:\Users\stapi\AppData\Local\Temp\ccNUz4ge.s:618    .text.deskey:0000000000000066 .L0 
C:\Users\stapi\AppData\Local\Temp\ccNUz4ge.s:620    .text.deskey:000000000000006a .L0 
C:\Users\stapi\AppData\Local\Temp\ccNUz4ge.s:624    .text.deskey:0000000000000076 .L0 
C:\Users\stapi\AppData\Local\Temp\ccNUz4ge.s:628    .text.deskey:0000000000000078 .L0 
C:\Users\stapi\AppData\Local\Temp\ccNUz4ge.s:629    .text.deskey:0000000000000078 .L0 
C:\Users\stapi\AppData\Local\Temp\ccNUz4ge.s:631    .text.deskey:000000000000007a .L0 
C:\Users\stapi\AppData\Local\Temp\ccNUz4ge.s:633    .text.deskey:000000000000007c .L0 
C:\Users\stapi\AppData\Local\Temp\ccNUz4ge.s:637    .text.deskey:0000000000000080 .L0 
C:\Users\stapi\AppData\Local\Temp\ccNUz4ge.s:638    .text.deskey:0000000000000080 .L0 
C:\Users\stapi\AppData\Local\Temp\ccNUz4ge.s:641    .text.deskey:0000000000000084 .L0 
C:\Users\stapi\AppData\Local\Temp\ccNUz4ge.s:642    .text.deskey:0000000000000084 .L0 
C:\Users\stapi\AppData\Local\Temp\ccNUz4ge.s:644    .text.deskey:0000000000000088 .L0 
C:\Users\stapi\AppData\Local\Temp\ccNUz4ge.s:646    .text.deskey:000000000000008c .L0 
C:\Users\stapi\AppData\Local\Temp\ccNUz4ge.s:651    .text.deskey:0000000000000094 .L0 
C:\Users\stapi\AppData\Local\Temp\ccNUz4ge.s:659    .text.deskey:00000000000000a2 .L0 
C:\Users\stapi\AppData\Local\Temp\ccNUz4ge.s:660    .text.deskey:00000000000000a2 .L0 
C:\Users\stapi\AppData\Local\Temp\ccNUz4ge.s:661    .text.deskey:00000000000000a2 .L0 
C:\Users\stapi\AppData\Local\Temp\ccNUz4ge.s:663    .text.deskey:00000000000000a4 .L0 
C:\Users\stapi\AppData\Local\Temp\ccNUz4ge.s:667    .text.deskey:00000000000000a6 .L0 
C:\Users\stapi\AppData\Local\Temp\ccNUz4ge.s:668    .text.deskey:00000000000000a6 .L0 
C:\Users\stapi\AppData\Local\Temp\ccNUz4ge.s:669    .text.deskey:00000000000000a6 .L0 
C:\Users\stapi\AppData\Local\Temp\ccNUz4ge.s:672    .text.deskey:00000000000000ae .L0 
C:\Users\stapi\AppData\Local\Temp\ccNUz4ge.s:673    .text.deskey:00000000000000ae .L0 
C:\Users\stapi\AppData\Local\Temp\ccNUz4ge.s:679    .text.deskey:00000000000000bc .L0 
C:\Users\stapi\AppData\Local\Temp\ccNUz4ge.s:680    .text.deskey:00000000000000bc .L0 
C:\Users\stapi\AppData\Local\Temp\ccNUz4ge.s:683    .text.deskey:00000000000000be .L0 
C:\Users\stapi\AppData\Local\Temp\ccNUz4ge.s:684    .text.deskey:00000000000000be .L0 
C:\Users\stapi\AppData\Local\Temp\ccNUz4ge.s:689    .text.deskey:00000000000000c4 .L0 
C:\Users\stapi\AppData\Local\Temp\ccNUz4ge.s:690    .text.deskey:00000000000000c4 .L0 
C:\Users\stapi\AppData\Local\Temp\ccNUz4ge.s:691    .text.deskey:00000000000000c4 .L0 
C:\Users\stapi\AppData\Local\Temp\ccNUz4ge.s:694    .text.deskey:00000000000000cc .L0 
C:\Users\stapi\AppData\Local\Temp\ccNUz4ge.s:695    .text.deskey:00000000000000cc .L0 
C:\Users\stapi\AppData\Local\Temp\ccNUz4ge.s:701    .text.deskey:00000000000000da .L0 
C:\Users\stapi\AppData\Local\Temp\ccNUz4ge.s:702    .text.deskey:00000000000000da .L0 
C:\Users\stapi\AppData\Local\Temp\ccNUz4ge.s:705    .text.deskey:00000000000000dc .L0 
C:\Users\stapi\AppData\Local\Temp\ccNUz4ge.s:706    .text.deskey:00000000000000dc .L0 
C:\Users\stapi\AppData\Local\Temp\ccNUz4ge.s:709    .text.deskey:00000000000000e2 .L0 
C:\Users\stapi\AppData\Local\Temp\ccNUz4ge.s:716    .text.deskey:00000000000000f2 .L0 
C:\Users\stapi\AppData\Local\Temp\ccNUz4ge.s:720    .text.deskey:00000000000000f4 .L0 
C:\Users\stapi\AppData\Local\Temp\ccNUz4ge.s:721    .text.deskey:00000000000000f4 .L0 
C:\Users\stapi\AppData\Local\Temp\ccNUz4ge.s:723    .text.deskey:00000000000000f8 .L0 
C:\Users\stapi\AppData\Local\Temp\ccNUz4ge.s:726    .text.deskey:00000000000000fe .L0 
C:\Users\stapi\AppData\Local\Temp\ccNUz4ge.s:729    .text.deskey:0000000000000104 .L0 
C:\Users\stapi\AppData\Local\Temp\ccNUz4ge.s:730    .text.deskey:0000000000000104 .L0 
C:\Users\stapi\AppData\Local\Temp\ccNUz4ge.s:736    .text.deskey:0000000000000114 .L0 
C:\Users\stapi\AppData\Local\Temp\ccNUz4ge.s:737    .text.deskey:0000000000000114 .L0 
C:\Users\stapi\AppData\Local\Temp\ccNUz4ge.s:739    .text.deskey:0000000000000118 .L0 
C:\Users\stapi\AppData\Local\Temp\ccNUz4ge.s:742    .text.deskey:000000000000011e .L0 
C:\Users\stapi\AppData\Local\Temp\ccNUz4ge.s:745    .text.deskey:0000000000000124 .L0 
C:\Users\stapi\AppData\Local\Temp\ccNUz4ge.s:746    .text.deskey:0000000000000124 .L0 
C:\Users\stapi\AppData\Local\Temp\ccNUz4ge.s:753    .text.deskey:0000000000000134 .L0 
C:\Users\stapi\AppData\Local\Temp\ccNUz4ge.s:754    .text.deskey:0000000000000134 .L0 
C:\Users\stapi\AppData\Local\Temp\ccNUz4ge.s:755    .text.deskey:0000000000000134 .L0 
C:\Users\stapi\AppData\Local\Temp\ccNUz4ge.s:761    .text.deskey:000000000000013c .L0 
C:\Users\stapi\AppData\Local\Temp\ccNUz4ge.s:762    .text.deskey:000000000000013c .L0 
C:\Users\stapi\AppData\Local\Temp\ccNUz4ge.s:763    .text.deskey:000000000000013c .L0 
C:\Users\stapi\AppData\Local\Temp\ccNUz4ge.s:770    .text.deskey:0000000000000144 .L0 
C:\Users\stapi\AppData\Local\Temp\ccNUz4ge.s:772    .text.deskey:0000000000000146 .L0 
C:\Users\stapi\AppData\Local\Temp\ccNUz4ge.s:782    .text.deskey:000000000000014c .L0 
C:\Users\stapi\AppData\Local\Temp\ccNUz4ge.s:784    .text.deskey:0000000000000150 .L0 
C:\Users\stapi\AppData\Local\Temp\ccNUz4ge.s:787    .text.deskey:0000000000000154 .L0 
C:\Users\stapi\AppData\Local\Temp\ccNUz4ge.s:791    .text.deskey:0000000000000158 .L0 
C:\Users\stapi\AppData\Local\Temp\ccNUz4ge.s:792    .text.deskey:0000000000000158 .L0 
C:\Users\stapi\AppData\Local\Temp\ccNUz4ge.s:793    .text.deskey:0000000000000158 .L0 
C:\Users\stapi\AppData\Local\Temp\ccNUz4ge.s:795    .text.deskey:000000000000015c .L0 
C:\Users\stapi\AppData\Local\Temp\ccNUz4ge.s:796    .text.deskey:000000000000015c .L0 
C:\Users\stapi\AppData\Local\Temp\ccNUz4ge.s:797    .text.deskey:000000000000015c .L0 
C:\Users\stapi\AppData\Local\Temp\ccNUz4ge.s:800    .text.deskey:000000000000015e .L0 
C:\Users\stapi\AppData\Local\Temp\ccNUz4ge.s:803    .text.deskey:0000000000000160 .L0 
C:\Users\stapi\AppData\Local\Temp\ccNUz4ge.s:805    .text.deskey:0000000000000164 .L0 
C:\Users\stapi\AppData\Local\Temp\ccNUz4ge.s:808    .text.deskey:000000000000016c .L0 
C:\Users\stapi\AppData\Local\Temp\ccNUz4ge.s:810    .text.deskey:0000000000000170 .L0 
C:\Users\stapi\AppData\Local\Temp\ccNUz4ge.s:812    .text.deskey:0000000000000172 .L0 
C:\Users\stapi\AppData\Local\Temp\ccNUz4ge.s:815    .text.deskey:000000000000017a .L0 
C:\Users\stapi\AppData\Local\Temp\ccNUz4ge.s:817    .text.deskey:000000000000017c .L0 
C:\Users\stapi\AppData\Local\Temp\ccNUz4ge.s:820    .text.deskey:0000000000000184 .L0 
C:\Users\stapi\AppData\Local\Temp\ccNUz4ge.s:822    .text.deskey:0000000000000186 .L0 
C:\Users\stapi\AppData\Local\Temp\ccNUz4ge.s:824    .text.deskey:000000000000018a .L0 
C:\Users\stapi\AppData\Local\Temp\ccNUz4ge.s:826    .text.deskey:000000000000018c .L0 
C:\Users\stapi\AppData\Local\Temp\ccNUz4ge.s:828    .text.deskey:0000000000000190 .L0 
C:\Users\stapi\AppData\Local\Temp\ccNUz4ge.s:830    .text.deskey:0000000000000194 .L0 
C:\Users\stapi\AppData\Local\Temp\ccNUz4ge.s:832    .text.deskey:0000000000000196 .L0 
C:\Users\stapi\AppData\Local\Temp\ccNUz4ge.s:833    .text.deskey:0000000000000196 .L0 
C:\Users\stapi\AppData\Local\Temp\ccNUz4ge.s:834    .text.deskey:0000000000000196 .L0 
C:\Users\stapi\AppData\Local\Temp\ccNUz4ge.s:835    .text.deskey:0000000000000196 .L0 
C:\Users\stapi\AppData\Local\Temp\ccNUz4ge.s:836    .text.deskey:0000000000000196 .L0 
C:\Users\stapi\AppData\Local\Temp\ccNUz4ge.s:838    .text.deskey:000000000000019a .L0 
C:\Users\stapi\AppData\Local\Temp\ccNUz4ge.s:840    .text.deskey:000000000000019e .L0 
C:\Users\stapi\AppData\Local\Temp\ccNUz4ge.s:842    .text.deskey:00000000000001a0 .L0 
C:\Users\stapi\AppData\Local\Temp\ccNUz4ge.s:844    .text.deskey:00000000000001a2 .L0 
C:\Users\stapi\AppData\Local\Temp\ccNUz4ge.s:848    .text.deskey:00000000000001a8 .L0 
C:\Users\stapi\AppData\Local\Temp\ccNUz4ge.s:852    .text.deskey:00000000000001ae .L0 
C:\Users\stapi\AppData\Local\Temp\ccNUz4ge.s:853    .text.deskey:00000000000001ae .L0 
C:\Users\stapi\AppData\Local\Temp\ccNUz4ge.s:854    .text.deskey:00000000000001ae .L0 
C:\Users\stapi\AppData\Local\Temp\ccNUz4ge.s:856    .text.deskey:00000000000001b2 .L0 
C:\Users\stapi\AppData\Local\Temp\ccNUz4ge.s:863    .text.deskey:00000000000001be .L0 
C:\Users\stapi\AppData\Local\Temp\ccNUz4ge.s:864    .text.deskey:00000000000001c0 .L0 
C:\Users\stapi\AppData\Local\Temp\ccNUz4ge.s:865    .text.deskey:00000000000001c0 .L0 
C:\Users\stapi\AppData\Local\Temp\ccNUz4ge.s:867    .text.deskey:00000000000001c8 .L0 
C:\Users\stapi\AppData\Local\Temp\ccNUz4ge.s:868    .text.deskey:00000000000001c8 .L0 
C:\Users\stapi\AppData\Local\Temp\ccNUz4ge.s:869    .text.deskey:00000000000001c8 .L0 
C:\Users\stapi\AppData\Local\Temp\ccNUz4ge.s:870    .text.deskey:00000000000001c8 .L0 
C:\Users\stapi\AppData\Local\Temp\ccNUz4ge.s:871    .text.deskey:00000000000001c8 .L0 
C:\Users\stapi\AppData\Local\Temp\ccNUz4ge.s:872    .text.deskey:00000000000001c8 .L0 
C:\Users\stapi\AppData\Local\Temp\ccNUz4ge.s:875    .text.deskey:00000000000001c8 .L0 
C:\Users\stapi\AppData\Local\Temp\ccNUz4ge.s:877    .text.deskey:00000000000001c8 .L0 
C:\Users\stapi\AppData\Local\Temp\ccNUz4ge.s:878    .text.deskey:00000000000001c8 .L0 
C:\Users\stapi\AppData\Local\Temp\ccNUz4ge.s:882    .text.deskey:00000000000001ce .L0 
C:\Users\stapi\AppData\Local\Temp\ccNUz4ge.s:883    .text.deskey:00000000000001ce .L0 
C:\Users\stapi\AppData\Local\Temp\ccNUz4ge.s:885    .text.deskey:00000000000001d4 .L0 
C:\Users\stapi\AppData\Local\Temp\ccNUz4ge.s:892    .text.des_encrypt:0000000000000000 des_encrypt
C:\Users\stapi\AppData\Local\Temp\ccNUz4ge.s:895    .text.des_encrypt:0000000000000000 .L0 
C:\Users\stapi\AppData\Local\Temp\ccNUz4ge.s:897    .text.des_encrypt:0000000000000000 .L0 
C:\Users\stapi\AppData\Local\Temp\ccNUz4ge.s:898    .text.des_encrypt:0000000000000008 .L0 
C:\Users\stapi\AppData\Local\Temp\ccNUz4ge.s:899    .text.des_encrypt:0000000000000008 .L0 
C:\Users\stapi\AppData\Local\Temp\ccNUz4ge.s:900    .text.des_encrypt:0000000000000008 .L0 
C:\Users\stapi\AppData\Local\Temp\ccNUz4ge.s:901    .text.des_encrypt:0000000000000008 .L0 
C:\Users\stapi\AppData\Local\Temp\ccNUz4ge.s:903    .text.des_encrypt:0000000000000008 .L0 
C:\Users\stapi\AppData\Local\Temp\ccNUz4ge.s:904    .text.des_encrypt:0000000000000008 .L0 
C:\Users\stapi\AppData\Local\Temp\ccNUz4ge.s:905    .text.des_encrypt:0000000000000008 .L0 
C:\Users\stapi\AppData\Local\Temp\ccNUz4ge.s:907    .text.des_encrypt:0000000000000008 .L0 
C:\Users\stapi\AppData\Local\Temp\ccNUz4ge.s:908    .text.des_encrypt:0000000000000008 .L0 
C:\Users\stapi\AppData\Local\Temp\ccNUz4ge.s:909    .text.des_encrypt:0000000000000008 .L0 
C:\Users\stapi\AppData\Local\Temp\ccNUz4ge.s:910    .text.des_encrypt:0000000000000008 .L0 
C:\Users\stapi\AppData\Local\Temp\ccNUz4ge.s:912    .text.des_encrypt:000000000000000c .L0 
C:\Users\stapi\AppData\Local\Temp\ccNUz4ge.s:914    .text.des_encrypt:000000000000000c .L0 
C:\Users\stapi\AppData\Local\Temp\ccNUz4ge.s:916    .text.des_encrypt:000000000000000e .L0 
C:\Users\stapi\AppData\Local\Temp\ccNUz4ge.s:918    .text.des_encrypt:0000000000000010 .L0 
C:\Users\stapi\AppData\Local\Temp\ccNUz4ge.s:920    .text.des_encrypt:0000000000000012 .L0 
C:\Users\stapi\AppData\Local\Temp\ccNUz4ge.s:924    .text.des_encrypt:0000000000000014 .L0 
C:\Users\stapi\AppData\Local\Temp\ccNUz4ge.s:925    .text.des_encrypt:0000000000000014 .L0 
C:\Users\stapi\AppData\Local\Temp\ccNUz4ge.s:926    .text.des_encrypt:0000000000000014 .L0 
C:\Users\stapi\AppData\Local\Temp\ccNUz4ge.s:929    .text.des_encrypt:0000000000000018 .L0 
C:\Users\stapi\AppData\Local\Temp\ccNUz4ge.s:931    .text.des_encrypt:000000000000001c .L0 
C:\Users\stapi\AppData\Local\Temp\ccNUz4ge.s:933    .text.des_encrypt:0000000000000020 .L0 
C:\Users\stapi\AppData\Local\Temp\ccNUz4ge.s:936    .text.des_encrypt:0000000000000024 .L0 
C:\Users\stapi\AppData\Local\Temp\ccNUz4ge.s:939    .text.des_encrypt:0000000000000026 .L0 
C:\Users\stapi\AppData\Local\Temp\ccNUz4ge.s:941    .text.des_encrypt:000000000000002a .L0 
C:\Users\stapi\AppData\Local\Temp\ccNUz4ge.s:943    .text.des_encrypt:000000000000002e .L0 
C:\Users\stapi\AppData\Local\Temp\ccNUz4ge.s:944    .text.des_encrypt:000000000000002e .L0 
C:\Users\stapi\AppData\Local\Temp\ccNUz4ge.s:947    .text.des_encrypt:0000000000000036 .L0 
C:\Users\stapi\AppData\Local\Temp\ccNUz4ge.s:950    .text.des_encrypt:0000000000000038 .L0 
C:\Users\stapi\AppData\Local\Temp\ccNUz4ge.s:953    .text.des_encrypt:000000000000003c .L0 
C:\Users\stapi\AppData\Local\Temp\ccNUz4ge.s:954    .text.des_encrypt:000000000000003c .L0 
C:\Users\stapi\AppData\Local\Temp\ccNUz4ge.s:955    .text.des_encrypt:000000000000003c .L0 
C:\Users\stapi\AppData\Local\Temp\ccNUz4ge.s:957    .text.des_encrypt:0000000000000040 .L0 
C:\Users\stapi\AppData\Local\Temp\ccNUz4ge.s:958    .text.des_encrypt:0000000000000040 .L0 
C:\Users\stapi\AppData\Local\Temp\ccNUz4ge.s:961    .text.des_encrypt:0000000000000044 .L0 
C:\Users\stapi\AppData\Local\Temp\ccNUz4ge.s:968    .text.des_encrypt:000000000000004a .L0 
C:\Users\stapi\AppData\Local\Temp\ccNUz4ge.s:970    .text.des_encrypt:000000000000004e .L0 
C:\Users\stapi\AppData\Local\Temp\ccNUz4ge.s:973    .text.des_encrypt:0000000000000056 .L0 
C:\Users\stapi\AppData\Local\Temp\ccNUz4ge.s:974    .text.des_encrypt:0000000000000056 .L0 
C:\Users\stapi\AppData\Local\Temp\ccNUz4ge.s:978    .text.des_encrypt:0000000000000060 .L0 
C:\Users\stapi\AppData\Local\Temp\ccNUz4ge.s:980    .text.des_encrypt:0000000000000062 .L0 
C:\Users\stapi\AppData\Local\Temp\ccNUz4ge.s:981    .text.des_encrypt:0000000000000062 .L0 
C:\Users\stapi\AppData\Local\Temp\ccNUz4ge.s:985    .text.des_encrypt:000000000000006e .L0 
C:\Users\stapi\AppData\Local\Temp\ccNUz4ge.s:987    .text.des_encrypt:0000000000000070 .L0 
C:\Users\stapi\AppData\Local\Temp\ccNUz4ge.s:992    .text.des_encrypt:000000000000007c .L0 
C:\Users\stapi\AppData\Local\Temp\ccNUz4ge.s:997    .text.des_encrypt:0000000000000088 .L0 
C:\Users\stapi\AppData\Local\Temp\ccNUz4ge.s:1002   .text.des_encrypt:0000000000000096 .L0 
C:\Users\stapi\AppData\Local\Temp\ccNUz4ge.s:1008   .text.des_encrypt:00000000000000a4 .L0 
C:\Users\stapi\AppData\Local\Temp\ccNUz4ge.s:1014   .text.des_encrypt:00000000000000b4 .L0 
C:\Users\stapi\AppData\Local\Temp\ccNUz4ge.s:1015   .text.des_encrypt:00000000000000b4 .L0 
C:\Users\stapi\AppData\Local\Temp\ccNUz4ge.s:1017   .text.des_encrypt:00000000000000b8 .L0 
C:\Users\stapi\AppData\Local\Temp\ccNUz4ge.s:1019   .text.des_encrypt:00000000000000c0 .L0 
C:\Users\stapi\AppData\Local\Temp\ccNUz4ge.s:1020   .text.des_encrypt:00000000000000c0 .L0 
C:\Users\stapi\AppData\Local\Temp\ccNUz4ge.s:1021   .text.des_encrypt:00000000000000c0 .L0 
C:\Users\stapi\AppData\Local\Temp\ccNUz4ge.s:1022   .text.des_encrypt:00000000000000c0 .L0 
C:\Users\stapi\AppData\Local\Temp\ccNUz4ge.s:1023   .text.des_encrypt:00000000000000c0 .L0 
C:\Users\stapi\AppData\Local\Temp\ccNUz4ge.s:1030   .text.des_key_setup:0000000000000000 des_key_setup
C:\Users\stapi\AppData\Local\Temp\ccNUz4ge.s:1033   .text.des_key_setup:0000000000000000 .L0 
C:\Users\stapi\AppData\Local\Temp\ccNUz4ge.s:1035   .text.des_key_setup:0000000000000000 .L0 
C:\Users\stapi\AppData\Local\Temp\ccNUz4ge.s:1036   .text.des_key_setup:0000000000000008 .L0 
C:\Users\stapi\AppData\Local\Temp\ccNUz4ge.s:1037   .text.des_key_setup:0000000000000008 .L0 
C:\Users\stapi\AppData\Local\Temp\ccNUz4ge.s:1038   .text.des_key_setup:0000000000000008 .L0 
C:\Users\stapi\AppData\Local\Temp\ccNUz4ge.s:1039   .text.des_key_setup:0000000000000008 .L0 
C:\Users\stapi\AppData\Local\Temp\ccNUz4ge.s:1041   .text.des_key_setup:0000000000000008 .L0 
C:\Users\stapi\AppData\Local\Temp\ccNUz4ge.s:1042   .text.des_key_setup:0000000000000008 .L0 
C:\Users\stapi\AppData\Local\Temp\ccNUz4ge.s:1044   .text.des_key_setup:000000000000000a .L0 
C:\Users\stapi\AppData\Local\Temp\ccNUz4ge.s:1049   .text.des_key_setup:000000000000000e .L0 
C:\Users\stapi\AppData\Local\Temp\ccNUz4ge.s:1051   .text.des_key_setup:0000000000000010 .L0 
C:\Users\stapi\AppData\Local\Temp\ccNUz4ge.s:1054   .text.des_key_setup:0000000000000018 .L0 
C:\Users\stapi\AppData\Local\Temp\ccNUz4ge.s:1060   .text.des_key_setup:0000000000000026 .L0 
C:\Users\stapi\AppData\Local\Temp\ccNUz4ge.s:1061   .text.des_key_setup:000000000000002e .L0 
C:\Users\stapi\AppData\Local\Temp\ccNUz4ge.s:1062   .text.des_key_setup:000000000000002e .L0 
C:\Users\stapi\AppData\Local\Temp\ccNUz4ge.s:1063   .text.des_key_setup:000000000000002e .L0 
C:\Users\stapi\AppData\Local\Temp\ccNUz4ge.s:1064   .text.des_key_setup:000000000000002e .L0 
C:\Users\stapi\AppData\Local\Temp\ccNUz4ge.s:1065   .text.des_key_setup:000000000000002e .L0 
C:\Users\stapi\AppData\Local\Temp\ccNUz4ge.s:1072   .text.des_block_encrypt:0000000000000000 des_block_encrypt
C:\Users\stapi\AppData\Local\Temp\ccNUz4ge.s:1075   .text.des_block_encrypt:0000000000000000 .L0 
C:\Users\stapi\AppData\Local\Temp\ccNUz4ge.s:1077   .text.des_block_encrypt:0000000000000000 .L0 
C:\Users\stapi\AppData\Local\Temp\ccNUz4ge.s:1078   .text.des_block_encrypt:0000000000000008 .L0 
C:\Users\stapi\AppData\Local\Temp\ccNUz4ge.s:1079   .text.des_block_encrypt:0000000000000008 .L0 
C:\Users\stapi\AppData\Local\Temp\ccNUz4ge.s:1080   .text.des_block_encrypt:0000000000000008 .L0 
C:\Users\stapi\AppData\Local\Temp\ccNUz4ge.s:1081   .text.des_block_encrypt:0000000000000008 .L0 
C:\Users\stapi\AppData\Local\Temp\ccNUz4ge.s:1083   .text.des_block_encrypt:0000000000000008 .L0 
C:\Users\stapi\AppData\Local\Temp\ccNUz4ge.s:1084   .text.des_block_encrypt:0000000000000008 .L0 
C:\Users\stapi\AppData\Local\Temp\ccNUz4ge.s:1085   .text.des_block_encrypt:0000000000000008 .L0 
C:\Users\stapi\AppData\Local\Temp\ccNUz4ge.s:1086   .text.des_block_encrypt:000000000000000a .L0 
C:\Users\stapi\AppData\Local\Temp\ccNUz4ge.s:1088   .text.des_block_encrypt:000000000000000a .L0 
C:\Users\stapi\AppData\Local\Temp\ccNUz4ge.s:1092   .text.des_block_encrypt:0000000000000010 .L0 
C:\Users\stapi\AppData\Local\Temp\ccNUz4ge.s:1095   .text.des_block_encrypt:0000000000000018 .L0 
C:\Users\stapi\AppData\Local\Temp\ccNUz4ge.s:1097   .text.des_block_encrypt:000000000000001a .L0 
C:\Users\stapi\AppData\Local\Temp\ccNUz4ge.s:1098   .text.des_block_encrypt:000000000000001a .L0 
C:\Users\stapi\AppData\Local\Temp\ccNUz4ge.s:1102   .text.des_block_encrypt:0000000000000026 .L0 
C:\Users\stapi\AppData\Local\Temp\ccNUz4ge.s:1104   .text.des_block_encrypt:0000000000000028 .L0 
C:\Users\stapi\AppData\Local\Temp\ccNUz4ge.s:1106   .text.des_block_encrypt:000000000000002a .L0 
C:\Users\stapi\AppData\Local\Temp\ccNUz4ge.s:1110   .text.des_block_encrypt:0000000000000034 .L0 
C:\Users\stapi\AppData\Local\Temp\ccNUz4ge.s:1115   .text.des_block_encrypt:0000000000000040 .L0 
C:\Users\stapi\AppData\Local\Temp\ccNUz4ge.s:1120   .text.des_block_encrypt:000000000000004e .L0 
C:\Users\stapi\AppData\Local\Temp\ccNUz4ge.s:1121   .text.des_block_encrypt:0000000000000050 .L0 
C:\Users\stapi\AppData\Local\Temp\ccNUz4ge.s:1124   .text.des_block_encrypt:0000000000000058 .L0 
C:\Users\stapi\AppData\Local\Temp\ccNUz4ge.s:1125   .text.des_block_encrypt:0000000000000058 .L0 
C:\Users\stapi\AppData\Local\Temp\ccNUz4ge.s:1126   .text.des_block_encrypt:0000000000000058 .L0 
C:\Users\stapi\AppData\Local\Temp\ccNUz4ge.s:1127   .text.des_block_encrypt:0000000000000058 .L0 
C:\Users\stapi\AppData\Local\Temp\ccNUz4ge.s:1128   .text.des_block_encrypt:0000000000000058 .L0 
C:\Users\stapi\AppData\Local\Temp\ccNUz4ge.s:1135   .text.des_block_decrypt:0000000000000000 des_block_decrypt
C:\Users\stapi\AppData\Local\Temp\ccNUz4ge.s:1137   .text.des_block_decrypt:0000000000000000 .L0 
C:\Users\stapi\AppData\Local\Temp\ccNUz4ge.s:1139   .text.des_block_decrypt:0000000000000008 .L0 
C:\Users\stapi\AppData\Local\Temp\ccNUz4ge.s:1146   .text.des3_key_setup:0000000000000000 des3_key_setup
C:\Users\stapi\AppData\Local\Temp\ccNUz4ge.s:1149   .text.des3_key_setup:0000000000000000 .L0 
C:\Users\stapi\AppData\Local\Temp\ccNUz4ge.s:1151   .text.des3_key_setup:0000000000000000 .L0 
C:\Users\stapi\AppData\Local\Temp\ccNUz4ge.s:1152   .text.des3_key_setup:0000000000000000 .L0 
C:\Users\stapi\AppData\Local\Temp\ccNUz4ge.s:1153   .text.des3_key_setup:0000000000000008 .L0 
C:\Users\stapi\AppData\Local\Temp\ccNUz4ge.s:1154   .text.des3_key_setup:0000000000000008 .L0 
C:\Users\stapi\AppData\Local\Temp\ccNUz4ge.s:1155   .text.des3_key_setup:0000000000000008 .L0 
C:\Users\stapi\AppData\Local\Temp\ccNUz4ge.s:1156   .text.des3_key_setup:0000000000000008 .L0 
C:\Users\stapi\AppData\Local\Temp\ccNUz4ge.s:1157   .text.des3_key_setup:0000000000000008 .L0 
C:\Users\stapi\AppData\Local\Temp\ccNUz4ge.s:1158   .text.des3_key_setup:0000000000000008 .L0 
C:\Users\stapi\AppData\Local\Temp\ccNUz4ge.s:1160   .text.des3_key_setup:0000000000000008 .L0 
C:\Users\stapi\AppData\Local\Temp\ccNUz4ge.s:1161   .text.des3_key_setup:0000000000000008 .L0 
C:\Users\stapi\AppData\Local\Temp\ccNUz4ge.s:1164   .text.des3_key_setup:000000000000000c .L0 
C:\Users\stapi\AppData\Local\Temp\ccNUz4ge.s:1170   .text.des3_key_setup:0000000000000018 .L0 
C:\Users\stapi\AppData\Local\Temp\ccNUz4ge.s:1177   .text.des3_key_setup:000000000000002c .L0 
C:\Users\stapi\AppData\Local\Temp\ccNUz4ge.s:1184   .text.des3_key_setup:0000000000000040 .L0 
C:\Users\stapi\AppData\Local\Temp\ccNUz4ge.s:1190   .text.des3_key_setup:0000000000000050 .L0 
C:\Users\stapi\AppData\Local\Temp\ccNUz4ge.s:1196   .text.des3_key_setup:0000000000000060 .L0 
C:\Users\stapi\AppData\Local\Temp\ccNUz4ge.s:1202   .text.des3_key_setup:0000000000000070 .L0 
C:\Users\stapi\AppData\Local\Temp\ccNUz4ge.s:1203   .text.des3_key_setup:0000000000000078 .L0 
C:\Users\stapi\AppData\Local\Temp\ccNUz4ge.s:1204   .text.des3_key_setup:0000000000000078 .L0 
C:\Users\stapi\AppData\Local\Temp\ccNUz4ge.s:1205   .text.des3_key_setup:0000000000000078 .L0 
C:\Users\stapi\AppData\Local\Temp\ccNUz4ge.s:1206   .text.des3_key_setup:0000000000000078 .L0 
C:\Users\stapi\AppData\Local\Temp\ccNUz4ge.s:1207   .text.des3_key_setup:0000000000000078 .L0 
C:\Users\stapi\AppData\Local\Temp\ccNUz4ge.s:1208   .text.des3_key_setup:0000000000000078 .L0 
C:\Users\stapi\AppData\Local\Temp\ccNUz4ge.s:1209   .text.des3_key_setup:0000000000000078 .L0 
C:\Users\stapi\AppData\Local\Temp\ccNUz4ge.s:1216   .text.des3_encrypt:0000000000000000 des3_encrypt
C:\Users\stapi\AppData\Local\Temp\ccNUz4ge.s:1219   .text.des3_encrypt:0000000000000000 .L0 
C:\Users\stapi\AppData\Local\Temp\ccNUz4ge.s:1221   .text.des3_encrypt:0000000000000000 .L0 
C:\Users\stapi\AppData\Local\Temp\ccNUz4ge.s:1222   .text.des3_encrypt:0000000000000008 .L0 
C:\Users\stapi\AppData\Local\Temp\ccNUz4ge.s:1223   .text.des3_encrypt:0000000000000008 .L0 
C:\Users\stapi\AppData\Local\Temp\ccNUz4ge.s:1224   .text.des3_encrypt:0000000000000008 .L0 
C:\Users\stapi\AppData\Local\Temp\ccNUz4ge.s:1225   .text.des3_encrypt:0000000000000008 .L0 
C:\Users\stapi\AppData\Local\Temp\ccNUz4ge.s:1226   .text.des3_encrypt:0000000000000008 .L0 
C:\Users\stapi\AppData\Local\Temp\ccNUz4ge.s:1228   .text.des3_encrypt:0000000000000008 .L0 
C:\Users\stapi\AppData\Local\Temp\ccNUz4ge.s:1229   .text.des3_encrypt:0000000000000008 .L0 
C:\Users\stapi\AppData\Local\Temp\ccNUz4ge.s:1230   .text.des3_encrypt:0000000000000008 .L0 
C:\Users\stapi\AppData\Local\Temp\ccNUz4ge.s:1231   .text.des3_encrypt:000000000000000a .L0 
C:\Users\stapi\AppData\Local\Temp\ccNUz4ge.s:1233   .text.des3_encrypt:000000000000000a .L0 
C:\Users\stapi\AppData\Local\Temp\ccNUz4ge.s:1237   .text.des3_encrypt:0000000000000010 .L0 
C:\Users\stapi\AppData\Local\Temp\ccNUz4ge.s:1240   .text.des3_encrypt:0000000000000018 .L0 
C:\Users\stapi\AppData\Local\Temp\ccNUz4ge.s:1242   .text.des3_encrypt:000000000000001a .L0 
C:\Users\stapi\AppData\Local\Temp\ccNUz4ge.s:1243   .text.des3_encrypt:000000000000001a .L0 
C:\Users\stapi\AppData\Local\Temp\ccNUz4ge.s:1247   .text.des3_encrypt:0000000000000026 .L0 
C:\Users\stapi\AppData\Local\Temp\ccNUz4ge.s:1249   .text.des3_encrypt:0000000000000028 .L0 
C:\Users\stapi\AppData\Local\Temp\ccNUz4ge.s:1254   .text.des3_encrypt:0000000000000034 .L0 
C:\Users\stapi\AppData\Local\Temp\ccNUz4ge.s:1259   .text.des3_encrypt:0000000000000042 .L0 
C:\Users\stapi\AppData\Local\Temp\ccNUz4ge.s:1264   .text.des3_encrypt:0000000000000050 .L0 
C:\Users\stapi\AppData\Local\Temp\ccNUz4ge.s:1269   .text.des3_encrypt:000000000000005c .L0 
C:\Users\stapi\AppData\Local\Temp\ccNUz4ge.s:1274   .text.des3_encrypt:000000000000006a .L0 
C:\Users\stapi\AppData\Local\Temp\ccNUz4ge.s:1275   .text.des3_encrypt:000000000000006c .L0 
C:\Users\stapi\AppData\Local\Temp\ccNUz4ge.s:1277   .text.des3_encrypt:0000000000000074 .L0 
C:\Users\stapi\AppData\Local\Temp\ccNUz4ge.s:1278   .text.des3_encrypt:0000000000000074 .L0 
C:\Users\stapi\AppData\Local\Temp\ccNUz4ge.s:1279   .text.des3_encrypt:0000000000000074 .L0 
C:\Users\stapi\AppData\Local\Temp\ccNUz4ge.s:1280   .text.des3_encrypt:0000000000000074 .L0 
C:\Users\stapi\AppData\Local\Temp\ccNUz4ge.s:1281   .text.des3_encrypt:0000000000000074 .L0 
C:\Users\stapi\AppData\Local\Temp\ccNUz4ge.s:1282   .text.des3_encrypt:0000000000000074 .L0 
C:\Users\stapi\AppData\Local\Temp\ccNUz4ge.s:1289   .text.des3_decrypt:0000000000000000 des3_decrypt
C:\Users\stapi\AppData\Local\Temp\ccNUz4ge.s:1292   .text.des3_decrypt:0000000000000000 .L0 
C:\Users\stapi\AppData\Local\Temp\ccNUz4ge.s:1294   .text.des3_decrypt:0000000000000000 .L0 
C:\Users\stapi\AppData\Local\Temp\ccNUz4ge.s:1295   .text.des3_decrypt:0000000000000008 .L0 
C:\Users\stapi\AppData\Local\Temp\ccNUz4ge.s:1296   .text.des3_decrypt:0000000000000008 .L0 
C:\Users\stapi\AppData\Local\Temp\ccNUz4ge.s:1297   .text.des3_decrypt:0000000000000008 .L0 
C:\Users\stapi\AppData\Local\Temp\ccNUz4ge.s:1298   .text.des3_decrypt:0000000000000008 .L0 
C:\Users\stapi\AppData\Local\Temp\ccNUz4ge.s:1299   .text.des3_decrypt:0000000000000008 .L0 
C:\Users\stapi\AppData\Local\Temp\ccNUz4ge.s:1301   .text.des3_decrypt:0000000000000008 .L0 
C:\Users\stapi\AppData\Local\Temp\ccNUz4ge.s:1302   .text.des3_decrypt:0000000000000008 .L0 
C:\Users\stapi\AppData\Local\Temp\ccNUz4ge.s:1303   .text.des3_decrypt:0000000000000008 .L0 
C:\Users\stapi\AppData\Local\Temp\ccNUz4ge.s:1304   .text.des3_decrypt:000000000000000a .L0 
C:\Users\stapi\AppData\Local\Temp\ccNUz4ge.s:1306   .text.des3_decrypt:000000000000000a .L0 
C:\Users\stapi\AppData\Local\Temp\ccNUz4ge.s:1310   .text.des3_decrypt:0000000000000010 .L0 
C:\Users\stapi\AppData\Local\Temp\ccNUz4ge.s:1313   .text.des3_decrypt:0000000000000018 .L0 
C:\Users\stapi\AppData\Local\Temp\ccNUz4ge.s:1315   .text.des3_decrypt:000000000000001a .L0 
C:\Users\stapi\AppData\Local\Temp\ccNUz4ge.s:1316   .text.des3_decrypt:000000000000001a .L0 
C:\Users\stapi\AppData\Local\Temp\ccNUz4ge.s:1320   .text.des3_decrypt:0000000000000026 .L0 
C:\Users\stapi\AppData\Local\Temp\ccNUz4ge.s:1322   .text.des3_decrypt:0000000000000028 .L0 
C:\Users\stapi\AppData\Local\Temp\ccNUz4ge.s:1327   .text.des3_decrypt:0000000000000036 .L0 
C:\Users\stapi\AppData\Local\Temp\ccNUz4ge.s:1332   .text.des3_decrypt:0000000000000044 .L0 
C:\Users\stapi\AppData\Local\Temp\ccNUz4ge.s:1337   .text.des3_decrypt:0000000000000052 .L0 
C:\Users\stapi\AppData\Local\Temp\ccNUz4ge.s:1342   .text.des3_decrypt:000000000000005e .L0 
C:\Users\stapi\AppData\Local\Temp\ccNUz4ge.s:1347   .text.des3_decrypt:000000000000006c .L0 
C:\Users\stapi\AppData\Local\Temp\ccNUz4ge.s:1348   .text.des3_decrypt:000000000000006e .L0 
C:\Users\stapi\AppData\Local\Temp\ccNUz4ge.s:1350   .text.des3_decrypt:0000000000000076 .L0 
C:\Users\stapi\AppData\Local\Temp\ccNUz4ge.s:1351   .text.des3_decrypt:0000000000000076 .L0 
C:\Users\stapi\AppData\Local\Temp\ccNUz4ge.s:1352   .text.des3_decrypt:0000000000000076 .L0 
C:\Users\stapi\AppData\Local\Temp\ccNUz4ge.s:1353   .text.des3_decrypt:0000000000000076 .L0 
C:\Users\stapi\AppData\Local\Temp\ccNUz4ge.s:1354   .text.des3_decrypt:0000000000000076 .L0 
C:\Users\stapi\AppData\Local\Temp\ccNUz4ge.s:1355   .text.des3_decrypt:0000000000000076 .L0 
C:\Users\stapi\AppData\Local\Temp\ccNUz4ge.s:1360   .rodata.SP1:0000000000000000 .LANCHOR4
C:\Users\stapi\AppData\Local\Temp\ccNUz4ge.s:1363   .rodata.SP1:0000000000000000 SP1
C:\Users\stapi\AppData\Local\Temp\ccNUz4ge.s:1430   .rodata.SP2:0000000000000000 .LANCHOR7
C:\Users\stapi\AppData\Local\Temp\ccNUz4ge.s:1433   .rodata.SP2:0000000000000000 SP2
C:\Users\stapi\AppData\Local\Temp\ccNUz4ge.s:1500   .rodata.SP3:0000000000000000 .LANCHOR3
C:\Users\stapi\AppData\Local\Temp\ccNUz4ge.s:1503   .rodata.SP3:0000000000000000 SP3
C:\Users\stapi\AppData\Local\Temp\ccNUz4ge.s:1570   .rodata.SP4:0000000000000000 .LANCHOR6
C:\Users\stapi\AppData\Local\Temp\ccNUz4ge.s:1573   .rodata.SP4:0000000000000000 SP4
C:\Users\stapi\AppData\Local\Temp\ccNUz4ge.s:1640   .rodata.SP5:0000000000000000 .LANCHOR2
C:\Users\stapi\AppData\Local\Temp\ccNUz4ge.s:1643   .rodata.SP5:0000000000000000 SP5
C:\Users\stapi\AppData\Local\Temp\ccNUz4ge.s:1710   .rodata.SP6:0000000000000000 .LANCHOR5
C:\Users\stapi\AppData\Local\Temp\ccNUz4ge.s:1713   .rodata.SP6:0000000000000000 SP6
C:\Users\stapi\AppData\Local\Temp\ccNUz4ge.s:1780   .rodata.SP7:0000000000000000 .LANCHOR0
C:\Users\stapi\AppData\Local\Temp\ccNUz4ge.s:1783   .rodata.SP7:0000000000000000 SP7
C:\Users\stapi\AppData\Local\Temp\ccNUz4ge.s:1850   .rodata.SP8:0000000000000000 .LANCHOR1
C:\Users\stapi\AppData\Local\Temp\ccNUz4ge.s:1853   .rodata.SP8:0000000000000000 SP8
C:\Users\stapi\AppData\Local\Temp\ccNUz4ge.s:1920   .rodata.bigbyte:0000000000000000 .LANCHOR12
C:\Users\stapi\AppData\Local\Temp\ccNUz4ge.s:1923   .rodata.bigbyte:0000000000000000 bigbyte
C:\Users\stapi\AppData\Local\Temp\ccNUz4ge.s:1950   .rodata.bytebit:0000000000000000 .LANCHOR9
C:\Users\stapi\AppData\Local\Temp\ccNUz4ge.s:1953   .rodata.bytebit:0000000000000000 bytebit
C:\Users\stapi\AppData\Local\Temp\ccNUz4ge.s:1964   .rodata.pc1:0000000000000000 .LANCHOR8
C:\Users\stapi\AppData\Local\Temp\ccNUz4ge.s:1967   .rodata.pc1:0000000000000000 pc1
C:\Users\stapi\AppData\Local\Temp\ccNUz4ge.s:1973   .rodata.pc2:0000000000000000 .LANCHOR11
C:\Users\stapi\AppData\Local\Temp\ccNUz4ge.s:1976   .rodata.pc2:0000000000000000 pc2
C:\Users\stapi\AppData\Local\Temp\ccNUz4ge.s:1982   .rodata.totrot:0000000000000000 .LANCHOR10
C:\Users\stapi\AppData\Local\Temp\ccNUz4ge.s:1985   .rodata.totrot:0000000000000000 totrot
C:\Users\stapi\AppData\Local\Temp\ccNUz4ge.s:36     .text.WPA_GET_BE32:0000000000000022 .L0 
C:\Users\stapi\AppData\Local\Temp\ccNUz4ge.s:67     .text.WPA_PUT_BE32:000000000000001e .L0 
C:\Users\stapi\AppData\Local\Temp\ccNUz4ge.s:533    .text.desfunc:0000000000000254 .L0 
C:\Users\stapi\AppData\Local\Temp\ccNUz4ge.s:888    .text.deskey:00000000000001d4 .L0 
C:\Users\stapi\AppData\Local\Temp\ccNUz4ge.s:1026   .text.des_encrypt:00000000000000c0 .L0 
C:\Users\stapi\AppData\Local\Temp\ccNUz4ge.s:1068   .text.des_key_setup:000000000000002e .L0 
C:\Users\stapi\AppData\Local\Temp\ccNUz4ge.s:1131   .text.des_block_encrypt:0000000000000058 .L0 
C:\Users\stapi\AppData\Local\Temp\ccNUz4ge.s:1212   .text.des3_key_setup:0000000000000078 .L0 
C:\Users\stapi\AppData\Local\Temp\ccNUz4ge.s:1285   .text.des3_encrypt:0000000000000074 .L0 
C:\Users\stapi\AppData\Local\Temp\ccNUz4ge.s:1358   .text.des3_decrypt:0000000000000076 .L0 
                     .debug_frame:0000000000000000 .L0 
C:\Users\stapi\AppData\Local\Temp\ccNUz4ge.s:242    .text.desfunc:00000000000000ce .L4
C:\Users\stapi\AppData\Local\Temp\ccNUz4ge.s:573    .text.deskey:0000000000000024 .L8
C:\Users\stapi\AppData\Local\Temp\ccNUz4ge.s:635    .text.deskey:0000000000000080 .L9
C:\Users\stapi\AppData\Local\Temp\ccNUz4ge.s:874    .text.deskey:00000000000001c8 .L10
C:\Users\stapi\AppData\Local\Temp\ccNUz4ge.s:665    .text.deskey:00000000000000a6 .L12
C:\Users\stapi\AppData\Local\Temp\ccNUz4ge.s:880    .text.deskey:00000000000001ce .L13
C:\Users\stapi\AppData\Local\Temp\ccNUz4ge.s:687    .text.deskey:00000000000000c4 .L15
C:\Users\stapi\AppData\Local\Temp\ccNUz4ge.s:734    .text.deskey:0000000000000114 .L16
C:\Users\stapi\AppData\Local\Temp\ccNUz4ge.s:750    .text.deskey:0000000000000134 .L17
C:\Users\stapi\AppData\Local\Temp\ccNUz4ge.s:717    .text.deskey:00000000000000f4 .L18
C:\Users\stapi\AppData\Local\Temp\ccNUz4ge.s:626    .text.deskey:0000000000000078 .L19
C:\Users\stapi\AppData\Local\Temp\ccNUz4ge.s:788    .text.deskey:0000000000000158 .L20
C:\Users\stapi\AppData\Local\Temp\ccNUz4ge.s:674    .text.deskey:00000000000000b2 .L11
C:\Users\stapi\AppData\Local\Temp\ccNUz4ge.s:696    .text.deskey:00000000000000d0 .L14
C:\Users\stapi\AppData\Local\Temp\ccNUz4ge.s:922    .text.des_encrypt:0000000000000014 .L36
C:\Users\stapi\AppData\Local\Temp\ccNUz4ge.s:3562   .debug_abbrev:0000000000000000 .Ldebug_abbrev0
C:\Users\stapi\AppData\Local\Temp\ccNUz4ge.s:6534   .debug_str:000000000000022e .LASF69
C:\Users\stapi\AppData\Local\Temp\ccNUz4ge.s:6608   .debug_str:00000000000004ae .LASF70
C:\Users\stapi\AppData\Local\Temp\ccNUz4ge.s:6500   .debug_str:00000000000000b1 .LASF71
C:\Users\stapi\AppData\Local\Temp\ccNUz4ge.s:6442   .debug_ranges:0000000000000000 .Ldebug_ranges0
C:\Users\stapi\AppData\Local\Temp\ccNUz4ge.s:6472   .debug_line:0000000000000000 .Ldebug_line0
C:\Users\stapi\AppData\Local\Temp\ccNUz4ge.s:6574   .debug_str:00000000000003f6 .LASF0
C:\Users\stapi\AppData\Local\Temp\ccNUz4ge.s:6566   .debug_str:00000000000003bd .LASF1
C:\Users\stapi\AppData\Local\Temp\ccNUz4ge.s:6548   .debug_str:0000000000000370 .LASF6
C:\Users\stapi\AppData\Local\Temp\ccNUz4ge.s:6560   .debug_str:000000000000039e .LASF2
C:\Users\stapi\AppData\Local\Temp\ccNUz4ge.s:6496   .debug_str:00000000000000a0 .LASF3
C:\Users\stapi\AppData\Local\Temp\ccNUz4ge.s:6580   .debug_str:0000000000000422 .LASF4
C:\Users\stapi\AppData\Local\Temp\ccNUz4ge.s:6544   .debug_str:0000000000000361 .LASF5
C:\Users\stapi\AppData\Local\Temp\ccNUz4ge.s:6502   .debug_str:0000000000000143 .LASF7
C:\Users\stapi\AppData\Local\Temp\ccNUz4ge.s:6576   .debug_str:0000000000000403 .LASF8
C:\Users\stapi\AppData\Local\Temp\ccNUz4ge.s:6536   .debug_str:0000000000000327 .LASF9
C:\Users\stapi\AppData\Local\Temp\ccNUz4ge.s:6538   .debug_str:0000000000000335 .LASF10
C:\Users\stapi\AppData\Local\Temp\ccNUz4ge.s:6582   .debug_str:0000000000000435 .LASF11
C:\Users\stapi\AppData\Local\Temp\ccNUz4ge.s:6610   .debug_str:0000000000000541 .LASF12
C:\Users\stapi\AppData\Local\Temp\ccNUz4ge.s:6526   .debug_str:0000000000000200 .LASF13
C:\Users\stapi\AppData\Local\Temp\ccNUz4ge.s:6590   .debug_str:0000000000000464 .LASF14
C:\Users\stapi\AppData\Local\Temp\ccNUz4ge.s:6606   .debug_str:00000000000004a1 .LASF15
C:\Users\stapi\AppData\Local\Temp\ccNUz4ge.s:6622   .debug_str:0000000000000581 .LASF16
C:\Users\stapi\AppData\Local\Temp\ccNUz4ge.s:6478   .debug_str:0000000000000019 .LASF17
C:\Users\stapi\AppData\Local\Temp\ccNUz4ge.s:6524   .debug_str:00000000000001ec .LASF18
C:\Users\stapi\AppData\Local\Temp\ccNUz4ge.s:6616   .debug_str:000000000000055f .LASF19
C:\Users\stapi\AppData\Local\Temp\ccNUz4ge.s:6474   .debug_str:0000000000000000 .LASF20
C:\Users\stapi\AppData\Local\Temp\ccNUz4ge.s:6512   .debug_str:000000000000018f .LASF21
C:\Users\stapi\AppData\Local\Temp\ccNUz4ge.s:6518   .debug_str:00000000000001b6 .LASF22
C:\Users\stapi\AppData\Local\Temp\ccNUz4ge.s:6628   .debug_str:000000000000059a .LASF23
C:\Users\stapi\AppData\Local\Temp\ccNUz4ge.s:6620   .debug_str:0000000000000574 .LASF24
C:\Users\stapi\AppData\Local\Temp\ccNUz4ge.s:6588   .debug_str:0000000000000451 .LASF25
C:\Users\stapi\AppData\Local\Temp\ccNUz4ge.s:6506   .debug_str:0000000000000160 .LASF26
C:\Users\stapi\AppData\Local\Temp\ccNUz4ge.s:6508   .debug_str:0000000000000175 .LASF27
C:\Users\stapi\AppData\Local\Temp\ccNUz4ge.s:6514   .debug_str:000000000000019e .LASF28
C:\Users\stapi\AppData\Local\Temp\ccNUz4ge.s:6530   .debug_str:0000000000000216 .LASF29
C:\Users\stapi\AppData\Local\Temp\ccNUz4ge.s:6476   .debug_str:000000000000000f .LASF30
C:\Users\stapi\AppData\Local\Temp\ccNUz4ge.s:6614   .debug_str:0000000000000550 .LASF31
C:\Users\stapi\AppData\Local\Temp\ccNUz4ge.s:6564   .debug_str:00000000000003b4 .LASF32
C:\Users\stapi\AppData\Local\Temp\ccNUz4ge.s:6486   .debug_str:000000000000003b .LASF72
C:\Users\stapi\AppData\Local\Temp\ccNUz4ge.s:6488   .debug_str:0000000000000061 .LASF33
C:\Users\stapi\AppData\Local\Temp\ccNUz4ge.s:6568   .debug_str:00000000000003c9 .LASF34
C:\Users\stapi\AppData\Local\Temp\ccNUz4ge.s:6520   .debug_str:00000000000001c5 .LASF35
C:\Users\stapi\AppData\Local\Temp\ccNUz4ge.s:6494   .debug_str:0000000000000095 .LASF73
C:\Users\stapi\AppData\Local\Temp\ccNUz4ge.s:6618   .debug_str:000000000000056c .LASF36
C:\Users\stapi\AppData\Local\Temp\ccNUz4ge.s:6542   .debug_str:0000000000000359 .LASF37
C:\Users\stapi\AppData\Local\Temp\ccNUz4ge.s:6612   .debug_str:0000000000000549 .LASF38
C:\Users\stapi\AppData\Local\Temp\ccNUz4ge.s:6532   .debug_str:0000000000000221 .LASF42
C:\Users\stapi\AppData\Local\Temp\ccNUz4ge.s:1290   .text.des3_decrypt:0000000000000000 .LFB80
C:\Users\stapi\AppData\Local\Temp\ccNUz4ge.s:1356   .text.des3_decrypt:0000000000000076 .LFE80
C:\Users\stapi\AppData\Local\Temp\ccNUz4ge.s:6546   .debug_str:000000000000036a .LASF39
C:\Users\stapi\AppData\Local\Temp\ccNUz4ge.s:4290   .debug_loc:0000000000000000 .LLST34
C:\Users\stapi\AppData\Local\Temp\ccNUz4ge.s:4301   .debug_loc:000000000000001e .LLST35
C:\Users\stapi\AppData\Local\Temp\ccNUz4ge.s:6572   .debug_str:00000000000003f0 .LASF40
C:\Users\stapi\AppData\Local\Temp\ccNUz4ge.s:4312   .debug_loc:000000000000003c .LLST36
C:\Users\stapi\AppData\Local\Temp\ccNUz4ge.s:6480   .debug_str:0000000000000026 .LASF41
C:\Users\stapi\AppData\Local\Temp\ccNUz4ge.s:1311   .text.des3_decrypt:0000000000000018 .LVL152
C:\Users\stapi\AppData\Local\Temp\ccNUz4ge.s:1318   .text.des3_decrypt:0000000000000026 .LVL153
C:\Users\stapi\AppData\Local\Temp\ccNUz4ge.s:1325   .text.des3_decrypt:0000000000000036 .LVL154
C:\Users\stapi\AppData\Local\Temp\ccNUz4ge.s:1330   .text.des3_decrypt:0000000000000044 .LVL155
C:\Users\stapi\AppData\Local\Temp\ccNUz4ge.s:1335   .text.des3_decrypt:0000000000000052 .LVL156
C:\Users\stapi\AppData\Local\Temp\ccNUz4ge.s:1340   .text.des3_decrypt:000000000000005e .LVL157
C:\Users\stapi\AppData\Local\Temp\ccNUz4ge.s:1345   .text.des3_decrypt:000000000000006c .LVL158
C:\Users\stapi\AppData\Local\Temp\ccNUz4ge.s:6528   .debug_str:0000000000000209 .LASF43
C:\Users\stapi\AppData\Local\Temp\ccNUz4ge.s:1217   .text.des3_encrypt:0000000000000000 .LFB79
C:\Users\stapi\AppData\Local\Temp\ccNUz4ge.s:1283   .text.des3_encrypt:0000000000000074 .LFE79
C:\Users\stapi\AppData\Local\Temp\ccNUz4ge.s:4323   .debug_loc:000000000000005a .LLST31
C:\Users\stapi\AppData\Local\Temp\ccNUz4ge.s:4334   .debug_loc:0000000000000078 .LLST32
C:\Users\stapi\AppData\Local\Temp\ccNUz4ge.s:4345   .debug_loc:0000000000000096 .LLST33
C:\Users\stapi\AppData\Local\Temp\ccNUz4ge.s:1238   .text.des3_encrypt:0000000000000018 .LVL144
C:\Users\stapi\AppData\Local\Temp\ccNUz4ge.s:1245   .text.des3_encrypt:0000000000000026 .LVL145
C:\Users\stapi\AppData\Local\Temp\ccNUz4ge.s:1252   .text.des3_encrypt:0000000000000034 .LVL146
C:\Users\stapi\AppData\Local\Temp\ccNUz4ge.s:1257   .text.des3_encrypt:0000000000000042 .LVL147
C:\Users\stapi\AppData\Local\Temp\ccNUz4ge.s:1262   .text.des3_encrypt:0000000000000050 .LVL148
C:\Users\stapi\AppData\Local\Temp\ccNUz4ge.s:1267   .text.des3_encrypt:000000000000005c .LVL149
C:\Users\stapi\AppData\Local\Temp\ccNUz4ge.s:1272   .text.des3_encrypt:000000000000006a .LVL150
C:\Users\stapi\AppData\Local\Temp\ccNUz4ge.s:6552   .debug_str:0000000000000380 .LASF44
C:\Users\stapi\AppData\Local\Temp\ccNUz4ge.s:1147   .text.des3_key_setup:0000000000000000 .LFB78
C:\Users\stapi\AppData\Local\Temp\ccNUz4ge.s:1210   .text.des3_key_setup:0000000000000078 .LFE78
C:\Users\stapi\AppData\Local\Temp\ccNUz4ge.s:4356   .debug_loc:00000000000000b4 .LLST29
C:\Users\stapi\AppData\Local\Temp\ccNUz4ge.s:6584   .debug_str:000000000000043a .LASF45
C:\Users\stapi\AppData\Local\Temp\ccNUz4ge.s:4367   .debug_loc:00000000000000d2 .LLST30
C:\Users\stapi\AppData\Local\Temp\ccNUz4ge.s:1168   .text.des3_key_setup:0000000000000018 .LVL137
C:\Users\stapi\AppData\Local\Temp\ccNUz4ge.s:1175   .text.des3_key_setup:000000000000002c .LVL138
C:\Users\stapi\AppData\Local\Temp\ccNUz4ge.s:1182   .text.des3_key_setup:0000000000000040 .LVL139
C:\Users\stapi\AppData\Local\Temp\ccNUz4ge.s:1188   .text.des3_key_setup:0000000000000050 .LVL140
C:\Users\stapi\AppData\Local\Temp\ccNUz4ge.s:1194   .text.des3_key_setup:0000000000000060 .LVL141
C:\Users\stapi\AppData\Local\Temp\ccNUz4ge.s:1200   .text.des3_key_setup:0000000000000070 .LVL142
C:\Users\stapi\AppData\Local\Temp\ccNUz4ge.s:6504   .debug_str:000000000000014e .LASF74
C:\Users\stapi\AppData\Local\Temp\ccNUz4ge.s:6586   .debug_str:000000000000043f .LASF46
C:\Users\stapi\AppData\Local\Temp\ccNUz4ge.s:1073   .text.des_block_encrypt:0000000000000000 .LFB76
C:\Users\stapi\AppData\Local\Temp\ccNUz4ge.s:1129   .text.des_block_encrypt:0000000000000058 .LFE76
C:\Users\stapi\AppData\Local\Temp\ccNUz4ge.s:4378   .debug_loc:00000000000000f0 .LLST26
C:\Users\stapi\AppData\Local\Temp\ccNUz4ge.s:4389   .debug_loc:000000000000010e .LLST27
C:\Users\stapi\AppData\Local\Temp\ccNUz4ge.s:4406   .debug_loc:0000000000000139 .LLST28
C:\Users\stapi\AppData\Local\Temp\ccNUz4ge.s:1093   .text.des_block_encrypt:0000000000000018 .LVL129
C:\Users\stapi\AppData\Local\Temp\ccNUz4ge.s:1100   .text.des_block_encrypt:0000000000000026 .LVL130
C:\Users\stapi\AppData\Local\Temp\ccNUz4ge.s:1108   .text.des_block_encrypt:0000000000000034 .LVL131
C:\Users\stapi\AppData\Local\Temp\ccNUz4ge.s:1113   .text.des_block_encrypt:0000000000000040 .LVL132
C:\Users\stapi\AppData\Local\Temp\ccNUz4ge.s:1118   .text.des_block_encrypt:000000000000004e .LVL133
C:\Users\stapi\AppData\Local\Temp\ccNUz4ge.s:6604   .debug_str:0000000000000493 .LASF47
C:\Users\stapi\AppData\Local\Temp\ccNUz4ge.s:1031   .text.des_key_setup:0000000000000000 .LFB75
C:\Users\stapi\AppData\Local\Temp\ccNUz4ge.s:1066   .text.des_key_setup:000000000000002e .LFE75
C:\Users\stapi\AppData\Local\Temp\ccNUz4ge.s:4417   .debug_loc:0000000000000157 .LLST23
C:\Users\stapi\AppData\Local\Temp\ccNUz4ge.s:4428   .debug_loc:0000000000000175 .LLST24
C:\Users\stapi\AppData\Local\Temp\ccNUz4ge.s:4446   .debug_loc:00000000000001a1 .LLST25
C:\Users\stapi\AppData\Local\Temp\ccNUz4ge.s:1052   .text.des_key_setup:0000000000000018 .LVL126
C:\Users\stapi\AppData\Local\Temp\ccNUz4ge.s:1058   .text.des_key_setup:0000000000000026 .LVL127
C:\Users\stapi\AppData\Local\Temp\ccNUz4ge.s:6492   .debug_str:0000000000000089 .LASF75
C:\Users\stapi\AppData\Local\Temp\ccNUz4ge.s:893    .text.des_encrypt:0000000000000000 .LFB74
C:\Users\stapi\AppData\Local\Temp\ccNUz4ge.s:1024   .text.des_encrypt:00000000000000c0 .LFE74
C:\Users\stapi\AppData\Local\Temp\ccNUz4ge.s:6490   .debug_str:0000000000000083 .LASF48
C:\Users\stapi\AppData\Local\Temp\ccNUz4ge.s:4457   .debug_loc:00000000000001bf .LLST17
C:\Users\stapi\AppData\Local\Temp\ccNUz4ge.s:4468   .debug_loc:00000000000001dd .LLST18
C:\Users\stapi\AppData\Local\Temp\ccNUz4ge.s:6624   .debug_str:000000000000058e .LASF49
C:\Users\stapi\AppData\Local\Temp\ccNUz4ge.s:4482   .debug_loc:00000000000001fe .LLST19
C:\Users\stapi\AppData\Local\Temp\ccNUz4ge.s:6600   .debug_str:0000000000000487 .LASF50
C:\Users\stapi\AppData\Local\Temp\ccNUz4ge.s:6626   .debug_str:0000000000000595 .LASF51
C:\Users\stapi\AppData\Local\Temp\ccNUz4ge.s:4493   .debug_loc:000000000000021c .LLST20
C:\Users\stapi\AppData\Local\Temp\ccNUz4ge.s:4606   .debug_loc:00000000000002c3 .LLST21
C:\Users\stapi\AppData\Local\Temp\ccNUz4ge.s:4651   .debug_loc:0000000000000318 .LLST22
C:\Users\stapi\AppData\Local\Temp\ccNUz4ge.s:971    .text.des_encrypt:0000000000000056 .LVL115
C:\Users\stapi\AppData\Local\Temp\ccNUz4ge.s:976    .text.des_encrypt:0000000000000060 .LVL116
C:\Users\stapi\AppData\Local\Temp\ccNUz4ge.s:983    .text.des_encrypt:000000000000006e .LVL117
C:\Users\stapi\AppData\Local\Temp\ccNUz4ge.s:990    .text.des_encrypt:000000000000007c .LVL118
C:\Users\stapi\AppData\Local\Temp\ccNUz4ge.s:995    .text.des_encrypt:0000000000000088 .LVL119
C:\Users\stapi\AppData\Local\Temp\ccNUz4ge.s:1000   .text.des_encrypt:0000000000000096 .LVL120
C:\Users\stapi\AppData\Local\Temp\ccNUz4ge.s:1006   .text.des_encrypt:00000000000000a4 .LVL121
C:\Users\stapi\AppData\Local\Temp\ccNUz4ge.s:1012   .text.des_encrypt:00000000000000b4 .LVL122
C:\Users\stapi\AppData\Local\Temp\ccNUz4ge.s:6562   .debug_str:00000000000003ac .LASF57
C:\Users\stapi\AppData\Local\Temp\ccNUz4ge.s:71     .text.desfunc:0000000000000000 .LFB73
C:\Users\stapi\AppData\Local\Temp\ccNUz4ge.s:531    .text.desfunc:0000000000000254 .LFE73
C:\Users\stapi\AppData\Local\Temp\ccNUz4ge.s:6550   .debug_str:000000000000037a .LASF52
C:\Users\stapi\AppData\Local\Temp\ccNUz4ge.s:6558   .debug_str:0000000000000399 .LASF53
C:\Users\stapi\AppData\Local\Temp\ccNUz4ge.s:4673   .debug_loc:000000000000034f .LLST1
C:\Users\stapi\AppData\Local\Temp\ccNUz4ge.s:4708   .debug_loc:00000000000003a1 .LLST2
C:\Users\stapi\AppData\Local\Temp\ccNUz4ge.s:6482   .debug_str:000000000000002b .LASF54
C:\Users\stapi\AppData\Local\Temp\ccNUz4ge.s:5418   .debug_loc:00000000000007c5 .LLST3
C:\Users\stapi\AppData\Local\Temp\ccNUz4ge.s:6596   .debug_str:000000000000047c .LASF55
C:\Users\stapi\AppData\Local\Temp\ccNUz4ge.s:5633   .debug_loc:000000000000090b .LLST4
C:\Users\stapi\AppData\Local\Temp\ccNUz4ge.s:6484   .debug_str:0000000000000031 .LASF56
C:\Users\stapi\AppData\Local\Temp\ccNUz4ge.s:5970   .debug_loc:0000000000000aec .LLST5
C:\Users\stapi\AppData\Local\Temp\ccNUz4ge.s:6602   .debug_str:000000000000048c .LASF58
C:\Users\stapi\AppData\Local\Temp\ccNUz4ge.s:537    .text.deskey:0000000000000000 .LFB72
C:\Users\stapi\AppData\Local\Temp\ccNUz4ge.s:886    .text.deskey:00000000000001d4 .LFE72
C:\Users\stapi\AppData\Local\Temp\ccNUz4ge.s:5978   .debug_loc:0000000000000b00 .LLST6
C:\Users\stapi\AppData\Local\Temp\ccNUz4ge.s:6592   .debug_str:000000000000046a .LASF59
C:\Users\stapi\AppData\Local\Temp\ccNUz4ge.s:5996   .debug_loc:0000000000000b2c .LLST7
C:\Users\stapi\AppData\Local\Temp\ccNUz4ge.s:6516   .debug_str:00000000000001af .LASF60
C:\Users\stapi\AppData\Local\Temp\ccNUz4ge.s:6014   .debug_loc:0000000000000b58 .LLST8
C:\Users\stapi\AppData\Local\Temp\ccNUz4ge.s:6036   .debug_loc:0000000000000b8f .LLST9
C:\Users\stapi\AppData\Local\Temp\ccNUz4ge.s:6075   .debug_loc:0000000000000be3 .LLST10
C:\Users\stapi\AppData\Local\Temp\ccNUz4ge.s:6137   .debug_loc:0000000000000c75 .LLST11
C:\Users\stapi\AppData\Local\Temp\ccNUz4ge.s:6267   .debug_loc:0000000000000d3e .LLST12
C:\Users\stapi\AppData\Local\Temp\ccNUz4ge.s:6335   .debug_loc:0000000000000dad .LLST13
C:\Users\stapi\AppData\Local\Temp\ccNUz4ge.s:6598   .debug_str:0000000000000482 .LASF61
C:\Users\stapi\AppData\Local\Temp\ccNUz4ge.s:767    .text.deskey:0000000000000144 .LBB4
C:\Users\stapi\AppData\Local\Temp\ccNUz4ge.s:6348   .debug_loc:0000000000000dcd .LLST14
C:\Users\stapi\AppData\Local\Temp\ccNUz4ge.s:6367   .debug_loc:0000000000000dfa .LLST15
C:\Users\stapi\AppData\Local\Temp\ccNUz4ge.s:6384   .debug_loc:0000000000000e25 .LLST16
C:\Users\stapi\AppData\Local\Temp\ccNUz4ge.s:859    .text.deskey:00000000000001be .LVL101
C:\Users\stapi\AppData\Local\Temp\ccNUz4ge.s:6498   .debug_str:00000000000000aa .LASF76
C:\Users\stapi\AppData\Local\Temp\ccNUz4ge.s:6556   .debug_str:0000000000000394 .LASF62
C:\Users\stapi\AppData\Local\Temp\ccNUz4ge.s:6570   .debug_str:00000000000003eb .LASF63
C:\Users\stapi\AppData\Local\Temp\ccNUz4ge.s:6554   .debug_str:000000000000038f .LASF64
C:\Users\stapi\AppData\Local\Temp\ccNUz4ge.s:6522   .debug_str:00000000000001e6 .LASF65
C:\Users\stapi\AppData\Local\Temp\ccNUz4ge.s:6540   .debug_str:000000000000034c .LASF66
C:\Users\stapi\AppData\Local\Temp\ccNUz4ge.s:40     .text.WPA_PUT_BE32:0000000000000000 .LFB35
C:\Users\stapi\AppData\Local\Temp\ccNUz4ge.s:65     .text.WPA_PUT_BE32:000000000000001e .LFE35
C:\Users\stapi\AppData\Local\Temp\ccNUz4ge.s:6578   .debug_str:0000000000000415 .LASF77
C:\Users\stapi\AppData\Local\Temp\ccNUz4ge.s:13     .text.WPA_GET_BE32:0000000000000000 .LFB34
C:\Users\stapi\AppData\Local\Temp\ccNUz4ge.s:34     .text.WPA_GET_BE32:0000000000000022 .LFE34
C:\Users\stapi\AppData\Local\Temp\ccNUz4ge.s:6397   .debug_loc:0000000000000e45 .LLST0
C:\Users\stapi\AppData\Local\Temp\ccNUz4ge.s:6594   .debug_str:0000000000000472 .LASF67
C:\Users\stapi\AppData\Local\Temp\ccNUz4ge.s:6510   .debug_str:0000000000000185 .LASF68
C:\Users\stapi\AppData\Local\Temp\ccNUz4ge.s:1293   .text.des3_decrypt:0000000000000000 .LVL151
C:\Users\stapi\AppData\Local\Temp\ccNUz4ge.s:1220   .text.des3_encrypt:0000000000000000 .LVL143
C:\Users\stapi\AppData\Local\Temp\ccNUz4ge.s:1150   .text.des3_key_setup:0000000000000000 .LVL135
C:\Users\stapi\AppData\Local\Temp\ccNUz4ge.s:1166   .text.des3_key_setup:0000000000000010 .LVL136
C:\Users\stapi\AppData\Local\Temp\ccNUz4ge.s:1076   .text.des_block_encrypt:0000000000000000 .LVL128
C:\Users\stapi\AppData\Local\Temp\ccNUz4ge.s:1122   .text.des_block_encrypt:0000000000000050 .LVL134
C:\Users\stapi\AppData\Local\Temp\ccNUz4ge.s:1034   .text.des_key_setup:0000000000000000 .LVL123
C:\Users\stapi\AppData\Local\Temp\ccNUz4ge.s:1047   .text.des_key_setup:000000000000000e .LVL125
C:\Users\stapi\AppData\Local\Temp\ccNUz4ge.s:1045   .text.des_key_setup:000000000000000c .LVL124
C:\Users\stapi\AppData\Local\Temp\ccNUz4ge.s:896    .text.des_encrypt:0000000000000000 .LVL103
C:\Users\stapi\AppData\Local\Temp\ccNUz4ge.s:921    .text.des_encrypt:0000000000000014 .LVL105
C:\Users\stapi\AppData\Local\Temp\ccNUz4ge.s:964    .text.des_encrypt:0000000000000048 .LVL113
C:\Users\stapi\AppData\Local\Temp\ccNUz4ge.s:906    .text.des_encrypt:0000000000000008 .LVL104
C:\Users\stapi\AppData\Local\Temp\ccNUz4ge.s:937    .text.des_encrypt:0000000000000026 .LVL108
C:\Users\stapi\AppData\Local\Temp\ccNUz4ge.s:951    .text.des_encrypt:000000000000003c .LVL110
C:\Users\stapi\AppData\Local\Temp\ccNUz4ge.s:959    .text.des_encrypt:0000000000000044 .LVL111
C:\Users\stapi\AppData\Local\Temp\ccNUz4ge.s:962    .text.des_encrypt:0000000000000046 .LVL112
C:\Users\stapi\AppData\Local\Temp\ccNUz4ge.s:966    .text.des_encrypt:000000000000004a .LVL114
C:\Users\stapi\AppData\Local\Temp\ccNUz4ge.s:927    .text.des_encrypt:0000000000000018 .LVL106
C:\Users\stapi\AppData\Local\Temp\ccNUz4ge.s:934    .text.des_encrypt:0000000000000024 .LVL107
C:\Users\stapi\AppData\Local\Temp\ccNUz4ge.s:948    .text.des_encrypt:0000000000000038 .LVL109
C:\Users\stapi\AppData\Local\Temp\ccNUz4ge.s:75     .text.desfunc:0000000000000000 .LVL3
C:\Users\stapi\AppData\Local\Temp\ccNUz4ge.s:241    .text.desfunc:00000000000000ce .LVL30
C:\Users\stapi\AppData\Local\Temp\ccNUz4ge.s:252    .text.desfunc:00000000000000da .LVL31
C:\Users\stapi\AppData\Local\Temp\ccNUz4ge.s:326    .text.desfunc:0000000000000156 .LVL37
C:\Users\stapi\AppData\Local\Temp\ccNUz4ge.s:333    .text.desfunc:000000000000015e .LVL38
C:\Users\stapi\AppData\Local\Temp\ccNUz4ge.s:338    .text.desfunc:0000000000000166 .LVL39
C:\Users\stapi\AppData\Local\Temp\ccNUz4ge.s:100    .text.desfunc:0000000000000020 .LVL6
C:\Users\stapi\AppData\Local\Temp\ccNUz4ge.s:108    .text.desfunc:0000000000000026 .LVL8
C:\Users\stapi\AppData\Local\Temp\ccNUz4ge.s:115    .text.desfunc:000000000000002e .LVL10
C:\Users\stapi\AppData\Local\Temp\ccNUz4ge.s:120    .text.desfunc:0000000000000034 .LVL11
C:\Users\stapi\AppData\Local\Temp\ccNUz4ge.s:136    .text.desfunc:0000000000000048 .LVL14
C:\Users\stapi\AppData\Local\Temp\ccNUz4ge.s:142    .text.desfunc:0000000000000050 .LVL15
C:\Users\stapi\AppData\Local\Temp\ccNUz4ge.s:150    .text.desfunc:0000000000000054 .LVL17
C:\Users\stapi\AppData\Local\Temp\ccNUz4ge.s:157    .text.desfunc:000000000000005a .LVL19
C:\Users\stapi\AppData\Local\Temp\ccNUz4ge.s:160    .text.desfunc:000000000000005e .LVL20
C:\Users\stapi\AppData\Local\Temp\ccNUz4ge.s:166    .text.desfunc:0000000000000066 .LVL21
C:\Users\stapi\AppData\Local\Temp\ccNUz4ge.s:190    .text.desfunc:0000000000000080 .LVL25
C:\Users\stapi\AppData\Local\Temp\ccNUz4ge.s:193    .text.desfunc:0000000000000082 .LVL26
C:\Users\stapi\AppData\Local\Temp\ccNUz4ge.s:257    .text.desfunc:00000000000000dc .LVL32
C:\Users\stapi\AppData\Local\Temp\ccNUz4ge.s:317    .text.desfunc:0000000000000142 .LVL36
C:\Users\stapi\AppData\Local\Temp\ccNUz4ge.s:346    .text.desfunc:000000000000016c .LVL41
C:\Users\stapi\AppData\Local\Temp\ccNUz4ge.s:375    .text.desfunc:000000000000019c .LVL44
C:\Users\stapi\AppData\Local\Temp\ccNUz4ge.s:421    .text.desfunc:00000000000001ea .LVL47
C:\Users\stapi\AppData\Local\Temp\ccNUz4ge.s:437    .text.desfunc:00000000000001f6 .LVL51
C:\Users\stapi\AppData\Local\Temp\ccNUz4ge.s:445    .text.desfunc:0000000000000202 .LVL52
C:\Users\stapi\AppData\Local\Temp\ccNUz4ge.s:453    .text.desfunc:0000000000000206 .LVL54
C:\Users\stapi\AppData\Local\Temp\ccNUz4ge.s:467    .text.desfunc:0000000000000218 .LVL56
C:\Users\stapi\AppData\Local\Temp\ccNUz4ge.s:481    .text.desfunc:0000000000000224 .LVL59
C:\Users\stapi\AppData\Local\Temp\ccNUz4ge.s:486    .text.desfunc:000000000000022a .LVL60
C:\Users\stapi\AppData\Local\Temp\ccNUz4ge.s:494    .text.desfunc:000000000000022e .LVL62
C:\Users\stapi\AppData\Local\Temp\ccNUz4ge.s:508    .text.desfunc:0000000000000240 .LVL64
C:\Users\stapi\AppData\Local\Temp\ccNUz4ge.s:89     .text.desfunc:000000000000000c .LVL5
C:\Users\stapi\AppData\Local\Temp\ccNUz4ge.s:124    .text.desfunc:0000000000000038 .LVL12
C:\Users\stapi\AppData\Local\Temp\ccNUz4ge.s:153    .text.desfunc:0000000000000056 .LVL18
C:\Users\stapi\AppData\Local\Temp\ccNUz4ge.s:178    .text.desfunc:0000000000000070 .LVL23
C:\Users\stapi\AppData\Local\Temp\ccNUz4ge.s:343    .text.desfunc:000000000000016a .LVL40
C:\Users\stapi\AppData\Local\Temp\ccNUz4ge.s:352    .text.desfunc:0000000000000174 .LVL42
C:\Users\stapi\AppData\Local\Temp\ccNUz4ge.s:359    .text.desfunc:0000000000000180 .LVL43
C:\Users\stapi\AppData\Local\Temp\ccNUz4ge.s:404    .text.desfunc:00000000000001d4 .LVL45
C:\Users\stapi\AppData\Local\Temp\ccNUz4ge.s:516    .text.desfunc:0000000000000246 .LVL65
C:\Users\stapi\AppData\Local\Temp\ccNUz4ge.s:85     .text.desfunc:000000000000000a .LVL4
C:\Users\stapi\AppData\Local\Temp\ccNUz4ge.s:111    .text.desfunc:000000000000002a .LVL9
C:\Users\stapi\AppData\Local\Temp\ccNUz4ge.s:130    .text.desfunc:0000000000000040 .LVL13
C:\Users\stapi\AppData\Local\Temp\ccNUz4ge.s:215    .text.desfunc:00000000000000a4 .LVL28
C:\Users\stapi\AppData\Local\Temp\ccNUz4ge.s:220    .text.desfunc:00000000000000aa .LVL29
C:\Users\stapi\AppData\Local\Temp\ccNUz4ge.s:261    .text.desfunc:00000000000000e0 .LVL33
C:\Users\stapi\AppData\Local\Temp\ccNUz4ge.s:266    .text.desfunc:00000000000000e8 .LVL34
C:\Users\stapi\AppData\Local\Temp\ccNUz4ge.s:287    .text.desfunc:000000000000010c .LVL35
C:\Users\stapi\AppData\Local\Temp\ccNUz4ge.s:456    .text.desfunc:0000000000000208 .LVL55
C:\Users\stapi\AppData\Local\Temp\ccNUz4ge.s:477    .text.desfunc:0000000000000220 .LVL58
C:\Users\stapi\AppData\Local\Temp\ccNUz4ge.s:519    .text.desfunc:0000000000000248 .LVL66
C:\Users\stapi\AppData\Local\Temp\ccNUz4ge.s:540    .text.deskey:0000000000000000 .LVL67
C:\Users\stapi\AppData\Local\Temp\ccNUz4ge.s:563    .text.deskey:0000000000000016 .LVL69
C:\Users\stapi\AppData\Local\Temp\ccNUz4ge.s:625    .text.deskey:0000000000000078 .LVL76
C:\Users\stapi\AppData\Local\Temp\ccNUz4ge.s:777    .text.deskey:000000000000014a .LVL93
C:\Users\stapi\AppData\Local\Temp\ccNUz4ge.s:873    .text.deskey:00000000000001c8 .LVL102
C:\Users\stapi\AppData\Local\Temp\ccNUz4ge.s:572    .text.deskey:0000000000000024 .LVL70
C:\Users\stapi\AppData\Local\Temp\ccNUz4ge.s:760    .text.deskey:000000000000013c .LVL90
C:\Users\stapi\AppData\Local\Temp\ccNUz4ge.s:765    .text.deskey:0000000000000140 .LVL91
C:\Users\stapi\AppData\Local\Temp\ccNUz4ge.s:773    .text.deskey:0000000000000148 .LVL92
C:\Users\stapi\AppData\Local\Temp\ccNUz4ge.s:551    .text.deskey:0000000000000008 .LVL68
C:\Users\stapi\AppData\Local\Temp\ccNUz4ge.s:598    .text.deskey:0000000000000046 .LVL73
C:\Users\stapi\AppData\Local\Temp\ccNUz4ge.s:604    .text.deskey:0000000000000052 .LVL74
C:\Users\stapi\AppData\Local\Temp\ccNUz4ge.s:658    .text.deskey:00000000000000a2 .LVL81
C:\Users\stapi\AppData\Local\Temp\ccNUz4ge.s:664    .text.deskey:00000000000000a6 .LVL82
C:\Users\stapi\AppData\Local\Temp\ccNUz4ge.s:710    .text.deskey:00000000000000e4 .LVL86
C:\Users\stapi\AppData\Local\Temp\ccNUz4ge.s:718    .text.deskey:00000000000000f4 .LVL87
C:\Users\stapi\AppData\Local\Temp\ccNUz4ge.s:752    .text.deskey:0000000000000134 .LVL88
C:\Users\stapi\AppData\Local\Temp\ccNUz4ge.s:757    .text.deskey:0000000000000138 .LVL89
C:\Users\stapi\AppData\Local\Temp\ccNUz4ge.s:785    .text.deskey:0000000000000154 .LVL94
C:\Users\stapi\AppData\Local\Temp\ccNUz4ge.s:578    .text.deskey:000000000000002c .LVL71
C:\Users\stapi\AppData\Local\Temp\ccNUz4ge.s:585    .text.deskey:0000000000000032 .LVL72
C:\Users\stapi\AppData\Local\Temp\ccNUz4ge.s:609    .text.deskey:000000000000005a .LVL75
C:\Users\stapi\AppData\Local\Temp\ccNUz4ge.s:681    .text.deskey:00000000000000be .LVL83
C:\Users\stapi\AppData\Local\Temp\ccNUz4ge.s:686    .text.deskey:00000000000000c4 .LVL84
C:\Users\stapi\AppData\Local\Temp\ccNUz4ge.s:703    .text.deskey:00000000000000dc .LVL85
C:\Users\stapi\AppData\Local\Temp\ccNUz4ge.s:634    .text.deskey:0000000000000080 .LVL77
C:\Users\stapi\AppData\Local\Temp\ccNUz4ge.s:652    .text.deskey:0000000000000096 .LVL80
C:\Users\stapi\AppData\Local\Temp\ccNUz4ge.s:639    .text.deskey:0000000000000084 .LVL78
C:\Users\stapi\AppData\Local\Temp\ccNUz4ge.s:647    .text.deskey:000000000000008e .LVL79
C:\Users\stapi\AppData\Local\Temp\ccNUz4ge.s:789    .text.deskey:0000000000000158 .LVL95
C:\Users\stapi\AppData\Local\Temp\ccNUz4ge.s:801    .text.deskey:0000000000000160 .LVL97
C:\Users\stapi\AppData\Local\Temp\ccNUz4ge.s:851    .text.deskey:00000000000001ae .LVL99
C:\Users\stapi\AppData\Local\Temp\ccNUz4ge.s:799    .text.deskey:000000000000015e .LVL96
C:\Users\stapi\AppData\Local\Temp\ccNUz4ge.s:846    .text.deskey:00000000000001a8 .LVL98
C:\Users\stapi\AppData\Local\Temp\ccNUz4ge.s:857    .text.deskey:00000000000001b6 .LVL100
C:\Users\stapi\AppData\Local\Temp\ccNUz4ge.s:17     .text.WPA_GET_BE32:0000000000000000 .LVL0
C:\Users\stapi\AppData\Local\Temp\ccNUz4ge.s:25     .text.WPA_GET_BE32:0000000000000014 .LVL1
C:\Users\stapi\AppData\Local\Temp\ccNUz4ge.s:1996   .debug_info:0000000000000000 .Ldebug_info0
C:\Users\stapi\AppData\Local\Temp\ccNUz4ge.s:775    .text.deskey:0000000000000148 .LBE4
C:\Users\stapi\AppData\Local\Temp\ccNUz4ge.s:779    .text.deskey:000000000000014c .LBB7
C:\Users\stapi\AppData\Local\Temp\ccNUz4ge.s:861    .text.deskey:00000000000001be .LBE7

UNDEFINED SYMBOLS
__riscv_save_2
__riscv_restore_2
__riscv_save_4
os_memcpy
__riscv_restore_4
os_memset
__riscv_save_3
__riscv_restore_3
