   1              		.file	"pkcs1.c"
   2              		.option nopic
   3              		.attribute arch, "rv32i2p0_m2p0_a2p0_f2p0_c2p0_b_p0p94"
   4              		.attribute unaligned_access, 0
   5              		.attribute stack_align, 16
   6              		.text
   7              	.Ltext0:
   8              		.cfi_sections	.debug_frame
   9              		.section	.rodata.pkcs1_encrypt.str1.4,"aMS",@progbits,1
  10              		.align	2
  11              	.LC0:
  12 0000 504B4353 		.string	"PKCS #1: %s - Invalid buffer lengths (modlen=%lu outlen=%lu inlen=%lu)"
  12      2023313A 
  12      20257320 
  12      2D20496E 
  12      76616C69 
  13 0047 00       		.align	2
  14              	.LC1:
  15 0048 504B4353 		.string	"PKCS #1: %s - Failed to get random data for PS"
  15      2023313A 
  15      20257320 
  15      2D204661 
  15      696C6564 
  16 0077 00       		.align	2
  17              	.LC2:
  18 0078 504B4353 		.string	"PKCS #1: %s - Unsupported block type %d"
  18      2023313A 
  18      20257320 
  18      2D20556E 
  18      73757070 
  19              		.section	.text.pkcs1_encrypt,"ax",@progbits
  20              		.align	1
  21              		.globl	pkcs1_encrypt
  23              	pkcs1_encrypt:
  24              	.LFB87:
  25              		.file 1 "C:/Users/stapi/OneDrive/Desktop/GD32VW553/V1_MQTT_OK/GD32VW55X_Wifi_BLE_SDK/GD32VW55x_REL
   1:C:/Users/stapi/OneDrive/Desktop/GD32VW553/V1_MQTT_OK/GD32VW55X_Wifi_BLE_SDK/GD32VW55x_RELEASE_V1.0.2/MSDK/wpa_supplicant/src/tls\pkcs1.c **** /*
   2:C:/Users/stapi/OneDrive/Desktop/GD32VW553/V1_MQTT_OK/GD32VW55X_Wifi_BLE_SDK/GD32VW55x_RELEASE_V1.0.2/MSDK/wpa_supplicant/src/tls\pkcs1.c ****  * PKCS #1 (RSA Encryption)
   3:C:/Users/stapi/OneDrive/Desktop/GD32VW553/V1_MQTT_OK/GD32VW55X_Wifi_BLE_SDK/GD32VW55x_RELEASE_V1.0.2/MSDK/wpa_supplicant/src/tls\pkcs1.c ****  * Copyright (c) 2006-2014, Jouni Malinen <j@w1.fi>
   4:C:/Users/stapi/OneDrive/Desktop/GD32VW553/V1_MQTT_OK/GD32VW55X_Wifi_BLE_SDK/GD32VW55x_RELEASE_V1.0.2/MSDK/wpa_supplicant/src/tls\pkcs1.c ****  *
   5:C:/Users/stapi/OneDrive/Desktop/GD32VW553/V1_MQTT_OK/GD32VW55X_Wifi_BLE_SDK/GD32VW55x_RELEASE_V1.0.2/MSDK/wpa_supplicant/src/tls\pkcs1.c ****  * This software may be distributed under the terms of the BSD license.
   6:C:/Users/stapi/OneDrive/Desktop/GD32VW553/V1_MQTT_OK/GD32VW55X_Wifi_BLE_SDK/GD32VW55x_RELEASE_V1.0.2/MSDK/wpa_supplicant/src/tls\pkcs1.c ****  * See README for more details.
   7:C:/Users/stapi/OneDrive/Desktop/GD32VW553/V1_MQTT_OK/GD32VW55X_Wifi_BLE_SDK/GD32VW55x_RELEASE_V1.0.2/MSDK/wpa_supplicant/src/tls\pkcs1.c ****  */
   8:C:/Users/stapi/OneDrive/Desktop/GD32VW553/V1_MQTT_OK/GD32VW55X_Wifi_BLE_SDK/GD32VW55x_RELEASE_V1.0.2/MSDK/wpa_supplicant/src/tls\pkcs1.c **** 
   9:C:/Users/stapi/OneDrive/Desktop/GD32VW553/V1_MQTT_OK/GD32VW55X_Wifi_BLE_SDK/GD32VW55x_RELEASE_V1.0.2/MSDK/wpa_supplicant/src/tls\pkcs1.c **** #include "includes.h"
  10:C:/Users/stapi/OneDrive/Desktop/GD32VW553/V1_MQTT_OK/GD32VW55X_Wifi_BLE_SDK/GD32VW55x_RELEASE_V1.0.2/MSDK/wpa_supplicant/src/tls\pkcs1.c **** 
  11:C:/Users/stapi/OneDrive/Desktop/GD32VW553/V1_MQTT_OK/GD32VW55X_Wifi_BLE_SDK/GD32VW55x_RELEASE_V1.0.2/MSDK/wpa_supplicant/src/tls\pkcs1.c **** #include "common.h"
  12:C:/Users/stapi/OneDrive/Desktop/GD32VW553/V1_MQTT_OK/GD32VW55X_Wifi_BLE_SDK/GD32VW55x_RELEASE_V1.0.2/MSDK/wpa_supplicant/src/tls\pkcs1.c **** #include "crypto/crypto.h"
  13:C:/Users/stapi/OneDrive/Desktop/GD32VW553/V1_MQTT_OK/GD32VW55X_Wifi_BLE_SDK/GD32VW55x_RELEASE_V1.0.2/MSDK/wpa_supplicant/src/tls\pkcs1.c **** #include "rsa.h"
  14:C:/Users/stapi/OneDrive/Desktop/GD32VW553/V1_MQTT_OK/GD32VW55X_Wifi_BLE_SDK/GD32VW55x_RELEASE_V1.0.2/MSDK/wpa_supplicant/src/tls\pkcs1.c **** #include "asn1.h"
  15:C:/Users/stapi/OneDrive/Desktop/GD32VW553/V1_MQTT_OK/GD32VW55X_Wifi_BLE_SDK/GD32VW55x_RELEASE_V1.0.2/MSDK/wpa_supplicant/src/tls\pkcs1.c **** #include "pkcs1.h"
  16:C:/Users/stapi/OneDrive/Desktop/GD32VW553/V1_MQTT_OK/GD32VW55X_Wifi_BLE_SDK/GD32VW55x_RELEASE_V1.0.2/MSDK/wpa_supplicant/src/tls\pkcs1.c **** 
  17:C:/Users/stapi/OneDrive/Desktop/GD32VW553/V1_MQTT_OK/GD32VW55X_Wifi_BLE_SDK/GD32VW55x_RELEASE_V1.0.2/MSDK/wpa_supplicant/src/tls\pkcs1.c **** 
  18:C:/Users/stapi/OneDrive/Desktop/GD32VW553/V1_MQTT_OK/GD32VW55X_Wifi_BLE_SDK/GD32VW55x_RELEASE_V1.0.2/MSDK/wpa_supplicant/src/tls\pkcs1.c **** static int pkcs1_generate_encryption_block(u8 block_type, size_t modlen,
  19:C:/Users/stapi/OneDrive/Desktop/GD32VW553/V1_MQTT_OK/GD32VW55X_Wifi_BLE_SDK/GD32VW55x_RELEASE_V1.0.2/MSDK/wpa_supplicant/src/tls\pkcs1.c **** 					   const u8 *in, size_t inlen,
  20:C:/Users/stapi/OneDrive/Desktop/GD32VW553/V1_MQTT_OK/GD32VW55X_Wifi_BLE_SDK/GD32VW55x_RELEASE_V1.0.2/MSDK/wpa_supplicant/src/tls\pkcs1.c **** 					   u8 *out, size_t *outlen)
  21:C:/Users/stapi/OneDrive/Desktop/GD32VW553/V1_MQTT_OK/GD32VW55X_Wifi_BLE_SDK/GD32VW55x_RELEASE_V1.0.2/MSDK/wpa_supplicant/src/tls\pkcs1.c **** {
  22:C:/Users/stapi/OneDrive/Desktop/GD32VW553/V1_MQTT_OK/GD32VW55X_Wifi_BLE_SDK/GD32VW55x_RELEASE_V1.0.2/MSDK/wpa_supplicant/src/tls\pkcs1.c **** 	size_t ps_len;
  23:C:/Users/stapi/OneDrive/Desktop/GD32VW553/V1_MQTT_OK/GD32VW55X_Wifi_BLE_SDK/GD32VW55x_RELEASE_V1.0.2/MSDK/wpa_supplicant/src/tls\pkcs1.c **** 	u8 *pos;
  24:C:/Users/stapi/OneDrive/Desktop/GD32VW553/V1_MQTT_OK/GD32VW55X_Wifi_BLE_SDK/GD32VW55x_RELEASE_V1.0.2/MSDK/wpa_supplicant/src/tls\pkcs1.c **** 
  25:C:/Users/stapi/OneDrive/Desktop/GD32VW553/V1_MQTT_OK/GD32VW55X_Wifi_BLE_SDK/GD32VW55x_RELEASE_V1.0.2/MSDK/wpa_supplicant/src/tls\pkcs1.c **** 	/*
  26:C:/Users/stapi/OneDrive/Desktop/GD32VW553/V1_MQTT_OK/GD32VW55X_Wifi_BLE_SDK/GD32VW55x_RELEASE_V1.0.2/MSDK/wpa_supplicant/src/tls\pkcs1.c **** 	 * PKCS #1 v1.5, 8.1:
  27:C:/Users/stapi/OneDrive/Desktop/GD32VW553/V1_MQTT_OK/GD32VW55X_Wifi_BLE_SDK/GD32VW55x_RELEASE_V1.0.2/MSDK/wpa_supplicant/src/tls\pkcs1.c **** 	 *
  28:C:/Users/stapi/OneDrive/Desktop/GD32VW553/V1_MQTT_OK/GD32VW55X_Wifi_BLE_SDK/GD32VW55x_RELEASE_V1.0.2/MSDK/wpa_supplicant/src/tls\pkcs1.c **** 	 * EB = 00 || BT || PS || 00 || D
  29:C:/Users/stapi/OneDrive/Desktop/GD32VW553/V1_MQTT_OK/GD32VW55X_Wifi_BLE_SDK/GD32VW55x_RELEASE_V1.0.2/MSDK/wpa_supplicant/src/tls\pkcs1.c **** 	 * BT = 00 or 01 for private-key operation; 02 for public-key operation
  30:C:/Users/stapi/OneDrive/Desktop/GD32VW553/V1_MQTT_OK/GD32VW55X_Wifi_BLE_SDK/GD32VW55x_RELEASE_V1.0.2/MSDK/wpa_supplicant/src/tls\pkcs1.c **** 	 * PS = k-3-||D||; at least eight octets
  31:C:/Users/stapi/OneDrive/Desktop/GD32VW553/V1_MQTT_OK/GD32VW55X_Wifi_BLE_SDK/GD32VW55x_RELEASE_V1.0.2/MSDK/wpa_supplicant/src/tls\pkcs1.c **** 	 * (BT=0: PS=0x00, BT=1: PS=0xff, BT=2: PS=pseudorandom non-zero)
  32:C:/Users/stapi/OneDrive/Desktop/GD32VW553/V1_MQTT_OK/GD32VW55X_Wifi_BLE_SDK/GD32VW55x_RELEASE_V1.0.2/MSDK/wpa_supplicant/src/tls\pkcs1.c **** 	 * k = length of modulus in octets (modlen)
  33:C:/Users/stapi/OneDrive/Desktop/GD32VW553/V1_MQTT_OK/GD32VW55X_Wifi_BLE_SDK/GD32VW55x_RELEASE_V1.0.2/MSDK/wpa_supplicant/src/tls\pkcs1.c **** 	 */
  34:C:/Users/stapi/OneDrive/Desktop/GD32VW553/V1_MQTT_OK/GD32VW55X_Wifi_BLE_SDK/GD32VW55x_RELEASE_V1.0.2/MSDK/wpa_supplicant/src/tls\pkcs1.c **** 
  35:C:/Users/stapi/OneDrive/Desktop/GD32VW553/V1_MQTT_OK/GD32VW55X_Wifi_BLE_SDK/GD32VW55x_RELEASE_V1.0.2/MSDK/wpa_supplicant/src/tls\pkcs1.c **** 	if (modlen < 12 || modlen > *outlen || inlen > modlen - 11) {
  36:C:/Users/stapi/OneDrive/Desktop/GD32VW553/V1_MQTT_OK/GD32VW55X_Wifi_BLE_SDK/GD32VW55x_RELEASE_V1.0.2/MSDK/wpa_supplicant/src/tls\pkcs1.c **** 		wpa_printf(MSG_DEBUG, "PKCS #1: %s - Invalid buffer "
  37:C:/Users/stapi/OneDrive/Desktop/GD32VW553/V1_MQTT_OK/GD32VW55X_Wifi_BLE_SDK/GD32VW55x_RELEASE_V1.0.2/MSDK/wpa_supplicant/src/tls\pkcs1.c **** 			   "lengths (modlen=%lu outlen=%lu inlen=%lu)",
  38:C:/Users/stapi/OneDrive/Desktop/GD32VW553/V1_MQTT_OK/GD32VW55X_Wifi_BLE_SDK/GD32VW55x_RELEASE_V1.0.2/MSDK/wpa_supplicant/src/tls\pkcs1.c **** 			   __func__, (unsigned long) modlen,
  39:C:/Users/stapi/OneDrive/Desktop/GD32VW553/V1_MQTT_OK/GD32VW55X_Wifi_BLE_SDK/GD32VW55x_RELEASE_V1.0.2/MSDK/wpa_supplicant/src/tls\pkcs1.c **** 			   (unsigned long) *outlen,
  40:C:/Users/stapi/OneDrive/Desktop/GD32VW553/V1_MQTT_OK/GD32VW55X_Wifi_BLE_SDK/GD32VW55x_RELEASE_V1.0.2/MSDK/wpa_supplicant/src/tls\pkcs1.c **** 			   (unsigned long) inlen);
  41:C:/Users/stapi/OneDrive/Desktop/GD32VW553/V1_MQTT_OK/GD32VW55X_Wifi_BLE_SDK/GD32VW55x_RELEASE_V1.0.2/MSDK/wpa_supplicant/src/tls\pkcs1.c **** 		return -1;
  42:C:/Users/stapi/OneDrive/Desktop/GD32VW553/V1_MQTT_OK/GD32VW55X_Wifi_BLE_SDK/GD32VW55x_RELEASE_V1.0.2/MSDK/wpa_supplicant/src/tls\pkcs1.c **** 	}
  43:C:/Users/stapi/OneDrive/Desktop/GD32VW553/V1_MQTT_OK/GD32VW55X_Wifi_BLE_SDK/GD32VW55x_RELEASE_V1.0.2/MSDK/wpa_supplicant/src/tls\pkcs1.c **** 
  44:C:/Users/stapi/OneDrive/Desktop/GD32VW553/V1_MQTT_OK/GD32VW55X_Wifi_BLE_SDK/GD32VW55x_RELEASE_V1.0.2/MSDK/wpa_supplicant/src/tls\pkcs1.c **** 	pos = out;
  45:C:/Users/stapi/OneDrive/Desktop/GD32VW553/V1_MQTT_OK/GD32VW55X_Wifi_BLE_SDK/GD32VW55x_RELEASE_V1.0.2/MSDK/wpa_supplicant/src/tls\pkcs1.c **** 	*pos++ = 0x00;
  46:C:/Users/stapi/OneDrive/Desktop/GD32VW553/V1_MQTT_OK/GD32VW55X_Wifi_BLE_SDK/GD32VW55x_RELEASE_V1.0.2/MSDK/wpa_supplicant/src/tls\pkcs1.c **** 	*pos++ = block_type; /* BT */
  47:C:/Users/stapi/OneDrive/Desktop/GD32VW553/V1_MQTT_OK/GD32VW55X_Wifi_BLE_SDK/GD32VW55x_RELEASE_V1.0.2/MSDK/wpa_supplicant/src/tls\pkcs1.c **** 	ps_len = modlen - inlen - 3;
  48:C:/Users/stapi/OneDrive/Desktop/GD32VW553/V1_MQTT_OK/GD32VW55X_Wifi_BLE_SDK/GD32VW55x_RELEASE_V1.0.2/MSDK/wpa_supplicant/src/tls\pkcs1.c **** 	switch (block_type) {
  49:C:/Users/stapi/OneDrive/Desktop/GD32VW553/V1_MQTT_OK/GD32VW55X_Wifi_BLE_SDK/GD32VW55x_RELEASE_V1.0.2/MSDK/wpa_supplicant/src/tls\pkcs1.c **** 	case 0:
  50:C:/Users/stapi/OneDrive/Desktop/GD32VW553/V1_MQTT_OK/GD32VW55X_Wifi_BLE_SDK/GD32VW55x_RELEASE_V1.0.2/MSDK/wpa_supplicant/src/tls\pkcs1.c **** 		os_memset(pos, 0x00, ps_len);
  51:C:/Users/stapi/OneDrive/Desktop/GD32VW553/V1_MQTT_OK/GD32VW55X_Wifi_BLE_SDK/GD32VW55x_RELEASE_V1.0.2/MSDK/wpa_supplicant/src/tls\pkcs1.c **** 		pos += ps_len;
  52:C:/Users/stapi/OneDrive/Desktop/GD32VW553/V1_MQTT_OK/GD32VW55X_Wifi_BLE_SDK/GD32VW55x_RELEASE_V1.0.2/MSDK/wpa_supplicant/src/tls\pkcs1.c **** 		break;
  53:C:/Users/stapi/OneDrive/Desktop/GD32VW553/V1_MQTT_OK/GD32VW55X_Wifi_BLE_SDK/GD32VW55x_RELEASE_V1.0.2/MSDK/wpa_supplicant/src/tls\pkcs1.c **** 	case 1:
  54:C:/Users/stapi/OneDrive/Desktop/GD32VW553/V1_MQTT_OK/GD32VW55X_Wifi_BLE_SDK/GD32VW55x_RELEASE_V1.0.2/MSDK/wpa_supplicant/src/tls\pkcs1.c **** 		os_memset(pos, 0xff, ps_len);
  55:C:/Users/stapi/OneDrive/Desktop/GD32VW553/V1_MQTT_OK/GD32VW55X_Wifi_BLE_SDK/GD32VW55x_RELEASE_V1.0.2/MSDK/wpa_supplicant/src/tls\pkcs1.c **** 		pos += ps_len;
  56:C:/Users/stapi/OneDrive/Desktop/GD32VW553/V1_MQTT_OK/GD32VW55X_Wifi_BLE_SDK/GD32VW55x_RELEASE_V1.0.2/MSDK/wpa_supplicant/src/tls\pkcs1.c **** 		break;
  57:C:/Users/stapi/OneDrive/Desktop/GD32VW553/V1_MQTT_OK/GD32VW55X_Wifi_BLE_SDK/GD32VW55x_RELEASE_V1.0.2/MSDK/wpa_supplicant/src/tls\pkcs1.c **** 	case 2:
  58:C:/Users/stapi/OneDrive/Desktop/GD32VW553/V1_MQTT_OK/GD32VW55X_Wifi_BLE_SDK/GD32VW55x_RELEASE_V1.0.2/MSDK/wpa_supplicant/src/tls\pkcs1.c **** 		if (os_get_random(pos, ps_len) < 0) {
  59:C:/Users/stapi/OneDrive/Desktop/GD32VW553/V1_MQTT_OK/GD32VW55X_Wifi_BLE_SDK/GD32VW55x_RELEASE_V1.0.2/MSDK/wpa_supplicant/src/tls\pkcs1.c **** 			wpa_printf(MSG_DEBUG, "PKCS #1: %s - Failed to get "
  60:C:/Users/stapi/OneDrive/Desktop/GD32VW553/V1_MQTT_OK/GD32VW55X_Wifi_BLE_SDK/GD32VW55x_RELEASE_V1.0.2/MSDK/wpa_supplicant/src/tls\pkcs1.c **** 				   "random data for PS", __func__);
  61:C:/Users/stapi/OneDrive/Desktop/GD32VW553/V1_MQTT_OK/GD32VW55X_Wifi_BLE_SDK/GD32VW55x_RELEASE_V1.0.2/MSDK/wpa_supplicant/src/tls\pkcs1.c **** 			return -1;
  62:C:/Users/stapi/OneDrive/Desktop/GD32VW553/V1_MQTT_OK/GD32VW55X_Wifi_BLE_SDK/GD32VW55x_RELEASE_V1.0.2/MSDK/wpa_supplicant/src/tls\pkcs1.c **** 		}
  63:C:/Users/stapi/OneDrive/Desktop/GD32VW553/V1_MQTT_OK/GD32VW55X_Wifi_BLE_SDK/GD32VW55x_RELEASE_V1.0.2/MSDK/wpa_supplicant/src/tls\pkcs1.c **** 		while (ps_len--) {
  64:C:/Users/stapi/OneDrive/Desktop/GD32VW553/V1_MQTT_OK/GD32VW55X_Wifi_BLE_SDK/GD32VW55x_RELEASE_V1.0.2/MSDK/wpa_supplicant/src/tls\pkcs1.c **** 			if (*pos == 0x00)
  65:C:/Users/stapi/OneDrive/Desktop/GD32VW553/V1_MQTT_OK/GD32VW55X_Wifi_BLE_SDK/GD32VW55x_RELEASE_V1.0.2/MSDK/wpa_supplicant/src/tls\pkcs1.c **** 				*pos = 0x01;
  66:C:/Users/stapi/OneDrive/Desktop/GD32VW553/V1_MQTT_OK/GD32VW55X_Wifi_BLE_SDK/GD32VW55x_RELEASE_V1.0.2/MSDK/wpa_supplicant/src/tls\pkcs1.c **** 			pos++;
  67:C:/Users/stapi/OneDrive/Desktop/GD32VW553/V1_MQTT_OK/GD32VW55X_Wifi_BLE_SDK/GD32VW55x_RELEASE_V1.0.2/MSDK/wpa_supplicant/src/tls\pkcs1.c **** 		}
  68:C:/Users/stapi/OneDrive/Desktop/GD32VW553/V1_MQTT_OK/GD32VW55X_Wifi_BLE_SDK/GD32VW55x_RELEASE_V1.0.2/MSDK/wpa_supplicant/src/tls\pkcs1.c **** 		break;
  69:C:/Users/stapi/OneDrive/Desktop/GD32VW553/V1_MQTT_OK/GD32VW55X_Wifi_BLE_SDK/GD32VW55x_RELEASE_V1.0.2/MSDK/wpa_supplicant/src/tls\pkcs1.c **** 	default:
  70:C:/Users/stapi/OneDrive/Desktop/GD32VW553/V1_MQTT_OK/GD32VW55X_Wifi_BLE_SDK/GD32VW55x_RELEASE_V1.0.2/MSDK/wpa_supplicant/src/tls\pkcs1.c **** 		wpa_printf(MSG_DEBUG, "PKCS #1: %s - Unsupported block type "
  71:C:/Users/stapi/OneDrive/Desktop/GD32VW553/V1_MQTT_OK/GD32VW55X_Wifi_BLE_SDK/GD32VW55x_RELEASE_V1.0.2/MSDK/wpa_supplicant/src/tls\pkcs1.c **** 			   "%d", __func__, block_type);
  72:C:/Users/stapi/OneDrive/Desktop/GD32VW553/V1_MQTT_OK/GD32VW55X_Wifi_BLE_SDK/GD32VW55x_RELEASE_V1.0.2/MSDK/wpa_supplicant/src/tls\pkcs1.c **** 		return -1;
  73:C:/Users/stapi/OneDrive/Desktop/GD32VW553/V1_MQTT_OK/GD32VW55X_Wifi_BLE_SDK/GD32VW55x_RELEASE_V1.0.2/MSDK/wpa_supplicant/src/tls\pkcs1.c **** 	}
  74:C:/Users/stapi/OneDrive/Desktop/GD32VW553/V1_MQTT_OK/GD32VW55X_Wifi_BLE_SDK/GD32VW55x_RELEASE_V1.0.2/MSDK/wpa_supplicant/src/tls\pkcs1.c **** 	*pos++ = 0x00;
  75:C:/Users/stapi/OneDrive/Desktop/GD32VW553/V1_MQTT_OK/GD32VW55X_Wifi_BLE_SDK/GD32VW55x_RELEASE_V1.0.2/MSDK/wpa_supplicant/src/tls\pkcs1.c **** 	os_memcpy(pos, in, inlen); /* D */
  76:C:/Users/stapi/OneDrive/Desktop/GD32VW553/V1_MQTT_OK/GD32VW55X_Wifi_BLE_SDK/GD32VW55x_RELEASE_V1.0.2/MSDK/wpa_supplicant/src/tls\pkcs1.c **** 
  77:C:/Users/stapi/OneDrive/Desktop/GD32VW553/V1_MQTT_OK/GD32VW55X_Wifi_BLE_SDK/GD32VW55x_RELEASE_V1.0.2/MSDK/wpa_supplicant/src/tls\pkcs1.c **** 	return 0;
  78:C:/Users/stapi/OneDrive/Desktop/GD32VW553/V1_MQTT_OK/GD32VW55X_Wifi_BLE_SDK/GD32VW55x_RELEASE_V1.0.2/MSDK/wpa_supplicant/src/tls\pkcs1.c **** }
  79:C:/Users/stapi/OneDrive/Desktop/GD32VW553/V1_MQTT_OK/GD32VW55X_Wifi_BLE_SDK/GD32VW55x_RELEASE_V1.0.2/MSDK/wpa_supplicant/src/tls\pkcs1.c **** 
  80:C:/Users/stapi/OneDrive/Desktop/GD32VW553/V1_MQTT_OK/GD32VW55X_Wifi_BLE_SDK/GD32VW55x_RELEASE_V1.0.2/MSDK/wpa_supplicant/src/tls\pkcs1.c **** 
  81:C:/Users/stapi/OneDrive/Desktop/GD32VW553/V1_MQTT_OK/GD32VW55X_Wifi_BLE_SDK/GD32VW55x_RELEASE_V1.0.2/MSDK/wpa_supplicant/src/tls\pkcs1.c **** int pkcs1_encrypt(int block_type, struct crypto_rsa_key *key,
  82:C:/Users/stapi/OneDrive/Desktop/GD32VW553/V1_MQTT_OK/GD32VW55X_Wifi_BLE_SDK/GD32VW55x_RELEASE_V1.0.2/MSDK/wpa_supplicant/src/tls\pkcs1.c **** 		  int use_private, const u8 *in, size_t inlen,
  83:C:/Users/stapi/OneDrive/Desktop/GD32VW553/V1_MQTT_OK/GD32VW55X_Wifi_BLE_SDK/GD32VW55x_RELEASE_V1.0.2/MSDK/wpa_supplicant/src/tls\pkcs1.c **** 		  u8 *out, size_t *outlen)
  84:C:/Users/stapi/OneDrive/Desktop/GD32VW553/V1_MQTT_OK/GD32VW55X_Wifi_BLE_SDK/GD32VW55x_RELEASE_V1.0.2/MSDK/wpa_supplicant/src/tls\pkcs1.c **** {
  26              		.loc 1 84 1
  27              		.cfi_startproc
  28              	.LVL0:
  29 0000 17030000 		call	t0,__riscv_save_10
  29      E7020300 
  30              		.cfi_offset 25, -44
  31              		.cfi_offset 24, -40
  32              		.cfi_offset 23, -36
  33              		.cfi_offset 22, -32
  34              		.cfi_offset 21, -28
  35              		.cfi_offset 20, -24
  36              		.cfi_offset 19, -20
  37              		.cfi_offset 18, -16
  38              		.cfi_offset 9, -12
  39              		.cfi_offset 8, -8
  40              		.cfi_offset 1, -4
  41              		.cfi_def_cfa_offset 48
  85:C:/Users/stapi/OneDrive/Desktop/GD32VW553/V1_MQTT_OK/GD32VW55X_Wifi_BLE_SDK/GD32VW55x_RELEASE_V1.0.2/MSDK/wpa_supplicant/src/tls\pkcs1.c **** 	size_t modlen;
  42              		.loc 1 85 2
  86:C:/Users/stapi/OneDrive/Desktop/GD32VW553/V1_MQTT_OK/GD32VW55X_Wifi_BLE_SDK/GD32VW55x_RELEASE_V1.0.2/MSDK/wpa_supplicant/src/tls\pkcs1.c **** 
  87:C:/Users/stapi/OneDrive/Desktop/GD32VW553/V1_MQTT_OK/GD32VW55X_Wifi_BLE_SDK/GD32VW55x_RELEASE_V1.0.2/MSDK/wpa_supplicant/src/tls\pkcs1.c **** 	modlen = crypto_rsa_get_modulus_len(key);
  43              		.loc 1 87 2
  84:C:/Users/stapi/OneDrive/Desktop/GD32VW553/V1_MQTT_OK/GD32VW55X_Wifi_BLE_SDK/GD32VW55x_RELEASE_V1.0.2/MSDK/wpa_supplicant/src/tls\pkcs1.c **** 	size_t modlen;
  44              		.loc 1 84 1 is_stmt 0
  45 0008 AA8C     		mv	s9,a0
  46              		.loc 1 87 11
  47 000a 2E85     		mv	a0,a1
  48              	.LVL1:
  84:C:/Users/stapi/OneDrive/Desktop/GD32VW553/V1_MQTT_OK/GD32VW55X_Wifi_BLE_SDK/GD32VW55x_RELEASE_V1.0.2/MSDK/wpa_supplicant/src/tls\pkcs1.c **** 	size_t modlen;
  49              		.loc 1 84 1
  50 000c 368C     		mv	s8,a3
  51 000e 3A8A     		mv	s4,a4
  52 0010 C28A     		mv	s5,a6
  53 0012 2E8B     		mv	s6,a1
  54 0014 B28B     		mv	s7,a2
  55 0016 BE89     		mv	s3,a5
  56              		.loc 1 87 11
  57 0018 97000000 		call	crypto_rsa_get_modulus_len
  57      E7800000 
  58              	.LVL2:
  59              	.LBB4:
  60              	.LBB5:
  35:C:/Users/stapi/OneDrive/Desktop/GD32VW553/V1_MQTT_OK/GD32VW55X_Wifi_BLE_SDK/GD32VW55x_RELEASE_V1.0.2/MSDK/wpa_supplicant/src/tls\pkcs1.c **** 		wpa_printf(MSG_DEBUG, "PKCS #1: %s - Invalid buffer "
  61              		.loc 1 35 5
  62 0020 AD46     		li	a3,11
  63 0022 03A70A00 		lw	a4,0(s5)
  64              	.LBE5:
  65              	.LBE4:
  66              		.loc 1 87 11
  67 0026 2A89     		mv	s2,a0
  68              	.LVL3:
  88:C:/Users/stapi/OneDrive/Desktop/GD32VW553/V1_MQTT_OK/GD32VW55X_Wifi_BLE_SDK/GD32VW55x_RELEASE_V1.0.2/MSDK/wpa_supplicant/src/tls\pkcs1.c **** 
  89:C:/Users/stapi/OneDrive/Desktop/GD32VW553/V1_MQTT_OK/GD32VW55X_Wifi_BLE_SDK/GD32VW55x_RELEASE_V1.0.2/MSDK/wpa_supplicant/src/tls\pkcs1.c **** 	if (pkcs1_generate_encryption_block(block_type, modlen, in, inlen,
  69              		.loc 1 89 2 is_stmt 1
  70              	.LBB9:
  71              	.LBB6:
  22:C:/Users/stapi/OneDrive/Desktop/GD32VW553/V1_MQTT_OK/GD32VW55X_Wifi_BLE_SDK/GD32VW55x_RELEASE_V1.0.2/MSDK/wpa_supplicant/src/tls\pkcs1.c **** 	u8 *pos;
  72              		.loc 1 22 2
  23:C:/Users/stapi/OneDrive/Desktop/GD32VW553/V1_MQTT_OK/GD32VW55X_Wifi_BLE_SDK/GD32VW55x_RELEASE_V1.0.2/MSDK/wpa_supplicant/src/tls\pkcs1.c **** 
  73              		.loc 1 23 2
  35:C:/Users/stapi/OneDrive/Desktop/GD32VW553/V1_MQTT_OK/GD32VW55X_Wifi_BLE_SDK/GD32VW55x_RELEASE_V1.0.2/MSDK/wpa_supplicant/src/tls\pkcs1.c **** 		wpa_printf(MSG_DEBUG, "PKCS #1: %s - Invalid buffer "
  74              		.loc 1 35 2
  35:C:/Users/stapi/OneDrive/Desktop/GD32VW553/V1_MQTT_OK/GD32VW55X_Wifi_BLE_SDK/GD32VW55x_RELEASE_V1.0.2/MSDK/wpa_supplicant/src/tls\pkcs1.c **** 		wpa_printf(MSG_DEBUG, "PKCS #1: %s - Invalid buffer "
  75              		.loc 1 35 5 is_stmt 0
  76 0028 63F8A600 		bleu	a0,a3,.L2
  35:C:/Users/stapi/OneDrive/Desktop/GD32VW553/V1_MQTT_OK/GD32VW55X_Wifi_BLE_SDK/GD32VW55x_RELEASE_V1.0.2/MSDK/wpa_supplicant/src/tls\pkcs1.c **** 		wpa_printf(MSG_DEBUG, "PKCS #1: %s - Invalid buffer "
  77              		.loc 1 35 18
  78 002c 6366A700 		bgtu	a0,a4,.L2
  35:C:/Users/stapi/OneDrive/Desktop/GD32VW553/V1_MQTT_OK/GD32VW55X_Wifi_BLE_SDK/GD32VW55x_RELEASE_V1.0.2/MSDK/wpa_supplicant/src/tls\pkcs1.c **** 		wpa_printf(MSG_DEBUG, "PKCS #1: %s - Invalid buffer "
  79              		.loc 1 35 56
  80 0030 930655FF 		addi	a3,a0,-11
  35:C:/Users/stapi/OneDrive/Desktop/GD32VW553/V1_MQTT_OK/GD32VW55X_Wifi_BLE_SDK/GD32VW55x_RELEASE_V1.0.2/MSDK/wpa_supplicant/src/tls\pkcs1.c **** 		wpa_printf(MSG_DEBUG, "PKCS #1: %s - Invalid buffer "
  81              		.loc 1 35 38
  82 0034 63F64603 		bleu	s4,a3,.L3
  83              	.L2:
  36:C:/Users/stapi/OneDrive/Desktop/GD32VW553/V1_MQTT_OK/GD32VW55X_Wifi_BLE_SDK/GD32VW55x_RELEASE_V1.0.2/MSDK/wpa_supplicant/src/tls\pkcs1.c **** 			   "lengths (modlen=%lu outlen=%lu inlen=%lu)",
  84              		.loc 1 36 3 is_stmt 1
  85 0038 37060000 		lui	a2,%hi(.LANCHOR0)
  86 003c B7050000 		lui	a1,%hi(.LC0)
  87 0040 D287     		mv	a5,s4
  88 0042 CA86     		mv	a3,s2
  89 0044 13060600 		addi	a2,a2,%lo(.LANCHOR0)
  90 0048 93850500 		addi	a1,a1,%lo(.LC0)
  91 004c 0945     		li	a0,2
  92              	.LVL4:
  93 004e 97000000 		call	wpa_printf
  93      E7800000 
  94              	.LVL5:
  41:C:/Users/stapi/OneDrive/Desktop/GD32VW553/V1_MQTT_OK/GD32VW55X_Wifi_BLE_SDK/GD32VW55x_RELEASE_V1.0.2/MSDK/wpa_supplicant/src/tls\pkcs1.c **** 	}
  95              		.loc 1 41 3
  96              	.L16:
  72:C:/Users/stapi/OneDrive/Desktop/GD32VW553/V1_MQTT_OK/GD32VW55X_Wifi_BLE_SDK/GD32VW55x_RELEASE_V1.0.2/MSDK/wpa_supplicant/src/tls\pkcs1.c **** 	}
  97              		.loc 1 72 3
  98              	.LBE6:
  99              	.LBE9:
  90:C:/Users/stapi/OneDrive/Desktop/GD32VW553/V1_MQTT_OK/GD32VW55X_Wifi_BLE_SDK/GD32VW55x_RELEASE_V1.0.2/MSDK/wpa_supplicant/src/tls\pkcs1.c **** 					    out, outlen) < 0)
  91:C:/Users/stapi/OneDrive/Desktop/GD32VW553/V1_MQTT_OK/GD32VW55X_Wifi_BLE_SDK/GD32VW55x_RELEASE_V1.0.2/MSDK/wpa_supplicant/src/tls\pkcs1.c **** 		return -1;
 100              		.loc 1 91 10 is_stmt 0
 101 0056 7D55     		li	a0,-1
 102              	.L1:
  92:C:/Users/stapi/OneDrive/Desktop/GD32VW553/V1_MQTT_OK/GD32VW55X_Wifi_BLE_SDK/GD32VW55x_RELEASE_V1.0.2/MSDK/wpa_supplicant/src/tls\pkcs1.c **** 
  93:C:/Users/stapi/OneDrive/Desktop/GD32VW553/V1_MQTT_OK/GD32VW55X_Wifi_BLE_SDK/GD32VW55x_RELEASE_V1.0.2/MSDK/wpa_supplicant/src/tls\pkcs1.c **** 	return crypto_rsa_exptmod(out, modlen, out, outlen, key, use_private);
  94:C:/Users/stapi/OneDrive/Desktop/GD32VW553/V1_MQTT_OK/GD32VW55X_Wifi_BLE_SDK/GD32VW55x_RELEASE_V1.0.2/MSDK/wpa_supplicant/src/tls\pkcs1.c **** }
 103              		.loc 1 94 1
 104 0058 17030000 		tail	__riscv_restore_10
 104      67000300 
 105              		.cfi_remember_state
 106              		.cfi_restore 25
 107              		.cfi_restore 24
 108              		.cfi_restore 23
 109              		.cfi_restore 22
 110              		.cfi_restore 21
 111              		.cfi_restore 20
 112              		.cfi_restore 19
 113              		.cfi_restore 18
 114              		.cfi_restore 9
 115              		.cfi_restore 8
 116              		.cfi_restore 1
 117              		.cfi_def_cfa_offset 0
 118              	.LVL6:
 119              	.L3:
 120              		.cfi_restore_state
 121 0060 93F7FC0F 		andi	a5,s9,0xff
 122              	.LBB10:
 123              	.LBB7:
  44:C:/Users/stapi/OneDrive/Desktop/GD32VW553/V1_MQTT_OK/GD32VW55X_Wifi_BLE_SDK/GD32VW55x_RELEASE_V1.0.2/MSDK/wpa_supplicant/src/tls\pkcs1.c **** 	*pos++ = 0x00;
 124              		.loc 1 44 2 is_stmt 1
 125              	.LVL7:
  45:C:/Users/stapi/OneDrive/Desktop/GD32VW553/V1_MQTT_OK/GD32VW55X_Wifi_BLE_SDK/GD32VW55x_RELEASE_V1.0.2/MSDK/wpa_supplicant/src/tls\pkcs1.c **** 	*pos++ = block_type; /* BT */
 126              		.loc 1 45 2
  47:C:/Users/stapi/OneDrive/Desktop/GD32VW553/V1_MQTT_OK/GD32VW55X_Wifi_BLE_SDK/GD32VW55x_RELEASE_V1.0.2/MSDK/wpa_supplicant/src/tls\pkcs1.c **** 	switch (block_type) {
 127              		.loc 1 47 9 is_stmt 0
 128 0064 B3044541 		sub	s1,a0,s4
  45:C:/Users/stapi/OneDrive/Desktop/GD32VW553/V1_MQTT_OK/GD32VW55X_Wifi_BLE_SDK/GD32VW55x_RELEASE_V1.0.2/MSDK/wpa_supplicant/src/tls\pkcs1.c **** 	*pos++ = block_type; /* BT */
 129              		.loc 1 45 9
 130 0068 23800900 		sb	zero,0(s3)
  46:C:/Users/stapi/OneDrive/Desktop/GD32VW553/V1_MQTT_OK/GD32VW55X_Wifi_BLE_SDK/GD32VW55x_RELEASE_V1.0.2/MSDK/wpa_supplicant/src/tls\pkcs1.c **** 	ps_len = modlen - inlen - 3;
 131              		.loc 1 46 2 is_stmt 1
  46:C:/Users/stapi/OneDrive/Desktop/GD32VW553/V1_MQTT_OK/GD32VW55X_Wifi_BLE_SDK/GD32VW55x_RELEASE_V1.0.2/MSDK/wpa_supplicant/src/tls\pkcs1.c **** 	ps_len = modlen - inlen - 3;
 132              		.loc 1 46 9 is_stmt 0
 133 006c A380F900 		sb	a5,1(s3)
  48:C:/Users/stapi/OneDrive/Desktop/GD32VW553/V1_MQTT_OK/GD32VW55X_Wifi_BLE_SDK/GD32VW55x_RELEASE_V1.0.2/MSDK/wpa_supplicant/src/tls\pkcs1.c **** 	case 0:
 134              		.loc 1 48 2
 135 0070 0547     		li	a4,1
  46:C:/Users/stapi/OneDrive/Desktop/GD32VW553/V1_MQTT_OK/GD32VW55X_Wifi_BLE_SDK/GD32VW55x_RELEASE_V1.0.2/MSDK/wpa_supplicant/src/tls\pkcs1.c **** 	ps_len = modlen - inlen - 3;
 136              		.loc 1 46 6
 137 0072 13842900 		addi	s0,s3,2
 138              	.LVL8:
  47:C:/Users/stapi/OneDrive/Desktop/GD32VW553/V1_MQTT_OK/GD32VW55X_Wifi_BLE_SDK/GD32VW55x_RELEASE_V1.0.2/MSDK/wpa_supplicant/src/tls\pkcs1.c **** 	switch (block_type) {
 139              		.loc 1 47 2 is_stmt 1
  47:C:/Users/stapi/OneDrive/Desktop/GD32VW553/V1_MQTT_OK/GD32VW55X_Wifi_BLE_SDK/GD32VW55x_RELEASE_V1.0.2/MSDK/wpa_supplicant/src/tls\pkcs1.c **** 	switch (block_type) {
 140              		.loc 1 47 9 is_stmt 0
 141 0076 F514     		addi	s1,s1,-3
 142              	.LVL9:
  48:C:/Users/stapi/OneDrive/Desktop/GD32VW553/V1_MQTT_OK/GD32VW55X_Wifi_BLE_SDK/GD32VW55x_RELEASE_V1.0.2/MSDK/wpa_supplicant/src/tls\pkcs1.c **** 	case 0:
 143              		.loc 1 48 2 is_stmt 1
 144 0078 6383E704 		beq	a5,a4,.L5
 145 007c 0947     		li	a4,2
 146 007e 6384E704 		beq	a5,a4,.L6
 147 0082 C9E7     		bne	a5,zero,.L7
  50:C:/Users/stapi/OneDrive/Desktop/GD32VW553/V1_MQTT_OK/GD32VW55X_Wifi_BLE_SDK/GD32VW55x_RELEASE_V1.0.2/MSDK/wpa_supplicant/src/tls\pkcs1.c **** 		pos += ps_len;
 148              		.loc 1 50 3
 149 0084 2686     		mv	a2,s1
 150 0086 8145     		li	a1,0
 151              	.L17:
  54:C:/Users/stapi/OneDrive/Desktop/GD32VW553/V1_MQTT_OK/GD32VW55X_Wifi_BLE_SDK/GD32VW55x_RELEASE_V1.0.2/MSDK/wpa_supplicant/src/tls\pkcs1.c **** 		pos += ps_len;
 152              		.loc 1 54 3 is_stmt 0
 153 0088 2285     		mv	a0,s0
 154              	.LVL10:
 155 008a 97000000 		call	os_memset
 155      E7800000 
 156              	.LVL11:
  55:C:/Users/stapi/OneDrive/Desktop/GD32VW553/V1_MQTT_OK/GD32VW55X_Wifi_BLE_SDK/GD32VW55x_RELEASE_V1.0.2/MSDK/wpa_supplicant/src/tls\pkcs1.c **** 		break;
 157              		.loc 1 55 3 is_stmt 1
 158              	.L14:
 159 0092 2694     		add	s0,s0,s1
 160              	.LVL12:
  74:C:/Users/stapi/OneDrive/Desktop/GD32VW553/V1_MQTT_OK/GD32VW55X_Wifi_BLE_SDK/GD32VW55x_RELEASE_V1.0.2/MSDK/wpa_supplicant/src/tls\pkcs1.c **** 	os_memcpy(pos, in, inlen); /* D */
 161              		.loc 1 74 2
  75:C:/Users/stapi/OneDrive/Desktop/GD32VW553/V1_MQTT_OK/GD32VW55X_Wifi_BLE_SDK/GD32VW55x_RELEASE_V1.0.2/MSDK/wpa_supplicant/src/tls\pkcs1.c **** 
 162              		.loc 1 75 2 is_stmt 0
 163 0094 5286     		mv	a2,s4
 164 0096 E285     		mv	a1,s8
  74:C:/Users/stapi/OneDrive/Desktop/GD32VW553/V1_MQTT_OK/GD32VW55X_Wifi_BLE_SDK/GD32VW55x_RELEASE_V1.0.2/MSDK/wpa_supplicant/src/tls\pkcs1.c **** 	os_memcpy(pos, in, inlen); /* D */
 165              		.loc 1 74 9
 166 0098 23000400 		sb	zero,0(s0)
  75:C:/Users/stapi/OneDrive/Desktop/GD32VW553/V1_MQTT_OK/GD32VW55X_Wifi_BLE_SDK/GD32VW55x_RELEASE_V1.0.2/MSDK/wpa_supplicant/src/tls\pkcs1.c **** 
 167              		.loc 1 75 2 is_stmt 1
 168 009c 13051400 		addi	a0,s0,1
 169              	.LVL13:
 170 00a0 97000000 		call	os_memcpy
 170      E7800000 
 171              	.LVL14:
  77:C:/Users/stapi/OneDrive/Desktop/GD32VW553/V1_MQTT_OK/GD32VW55X_Wifi_BLE_SDK/GD32VW55x_RELEASE_V1.0.2/MSDK/wpa_supplicant/src/tls\pkcs1.c **** }
 172              		.loc 1 77 2
 173              	.LBE7:
 174              	.LBE10:
  93:C:/Users/stapi/OneDrive/Desktop/GD32VW553/V1_MQTT_OK/GD32VW55X_Wifi_BLE_SDK/GD32VW55x_RELEASE_V1.0.2/MSDK/wpa_supplicant/src/tls\pkcs1.c **** }
 175              		.loc 1 93 2
  93:C:/Users/stapi/OneDrive/Desktop/GD32VW553/V1_MQTT_OK/GD32VW55X_Wifi_BLE_SDK/GD32VW55x_RELEASE_V1.0.2/MSDK/wpa_supplicant/src/tls\pkcs1.c **** }
 176              		.loc 1 93 9 is_stmt 0
 177 00a8 DE87     		mv	a5,s7
 178 00aa 5A87     		mv	a4,s6
 179 00ac D686     		mv	a3,s5
 180 00ae 4E86     		mv	a2,s3
 181 00b0 CA85     		mv	a1,s2
 182 00b2 4E85     		mv	a0,s3
 183 00b4 97000000 		call	crypto_rsa_exptmod
 183      E7800000 
 184              	.LVL15:
 185 00bc 71BF     		j	.L1
 186              	.LVL16:
 187              	.L5:
 188              	.LBB11:
 189              	.LBB8:
  54:C:/Users/stapi/OneDrive/Desktop/GD32VW553/V1_MQTT_OK/GD32VW55X_Wifi_BLE_SDK/GD32VW55x_RELEASE_V1.0.2/MSDK/wpa_supplicant/src/tls\pkcs1.c **** 		pos += ps_len;
 190              		.loc 1 54 3 is_stmt 1
 191 00be 2686     		mv	a2,s1
 192 00c0 9305F00F 		li	a1,255
 193 00c4 D1B7     		j	.L17
 194              	.L6:
  58:C:/Users/stapi/OneDrive/Desktop/GD32VW553/V1_MQTT_OK/GD32VW55X_Wifi_BLE_SDK/GD32VW55x_RELEASE_V1.0.2/MSDK/wpa_supplicant/src/tls\pkcs1.c **** 			wpa_printf(MSG_DEBUG, "PKCS #1: %s - Failed to get "
 195              		.loc 1 58 3
  58:C:/Users/stapi/OneDrive/Desktop/GD32VW553/V1_MQTT_OK/GD32VW55X_Wifi_BLE_SDK/GD32VW55x_RELEASE_V1.0.2/MSDK/wpa_supplicant/src/tls\pkcs1.c **** 			wpa_printf(MSG_DEBUG, "PKCS #1: %s - Failed to get "
 196              		.loc 1 58 7 is_stmt 0
 197 00c6 A685     		mv	a1,s1
 198 00c8 2285     		mv	a0,s0
 199              	.LVL17:
 200 00ca 97000000 		call	os_get_random
 200      E7800000 
 201              	.LVL18:
  58:C:/Users/stapi/OneDrive/Desktop/GD32VW553/V1_MQTT_OK/GD32VW55X_Wifi_BLE_SDK/GD32VW55x_RELEASE_V1.0.2/MSDK/wpa_supplicant/src/tls\pkcs1.c **** 			wpa_printf(MSG_DEBUG, "PKCS #1: %s - Failed to get "
 202              		.loc 1 58 6
 203 00d2 634F0500 		blt	a0,zero,.L9
 204 00d6 CE88     		mv	a7,s3
 205 00d8 B3873401 		add	a5,s1,s3
  65:C:/Users/stapi/OneDrive/Desktop/GD32VW553/V1_MQTT_OK/GD32VW55X_Wifi_BLE_SDK/GD32VW55x_RELEASE_V1.0.2/MSDK/wpa_supplicant/src/tls\pkcs1.c **** 			pos++;
 206              		.loc 1 65 10
 207 00dc 0547     		li	a4,1
 208              	.LVL19:
 209              	.L10:
  63:C:/Users/stapi/OneDrive/Desktop/GD32VW553/V1_MQTT_OK/GD32VW55X_Wifi_BLE_SDK/GD32VW55x_RELEASE_V1.0.2/MSDK/wpa_supplicant/src/tls\pkcs1.c **** 			if (*pos == 0x00)
 210              		.loc 1 63 9 is_stmt 1
 211 00de E38AF8FA 		beq	a7,a5,.L14
  64:C:/Users/stapi/OneDrive/Desktop/GD32VW553/V1_MQTT_OK/GD32VW55X_Wifi_BLE_SDK/GD32VW55x_RELEASE_V1.0.2/MSDK/wpa_supplicant/src/tls\pkcs1.c **** 				*pos = 0x01;
 212              		.loc 1 64 4
  64:C:/Users/stapi/OneDrive/Desktop/GD32VW553/V1_MQTT_OK/GD32VW55X_Wifi_BLE_SDK/GD32VW55x_RELEASE_V1.0.2/MSDK/wpa_supplicant/src/tls\pkcs1.c **** 				*pos = 0x01;
 213              		.loc 1 64 7 is_stmt 0
 214 00e2 83C62800 		lbu	a3,2(a7)
 215 00e6 99E2     		bne	a3,zero,.L11
  65:C:/Users/stapi/OneDrive/Desktop/GD32VW553/V1_MQTT_OK/GD32VW55X_Wifi_BLE_SDK/GD32VW55x_RELEASE_V1.0.2/MSDK/wpa_supplicant/src/tls\pkcs1.c **** 			pos++;
 216              		.loc 1 65 5 is_stmt 1
  65:C:/Users/stapi/OneDrive/Desktop/GD32VW553/V1_MQTT_OK/GD32VW55X_Wifi_BLE_SDK/GD32VW55x_RELEASE_V1.0.2/MSDK/wpa_supplicant/src/tls\pkcs1.c **** 			pos++;
 217              		.loc 1 65 10 is_stmt 0
 218 00e8 2381E800 		sb	a4,2(a7)
 219              	.L11:
  66:C:/Users/stapi/OneDrive/Desktop/GD32VW553/V1_MQTT_OK/GD32VW55X_Wifi_BLE_SDK/GD32VW55x_RELEASE_V1.0.2/MSDK/wpa_supplicant/src/tls\pkcs1.c **** 		}
 220              		.loc 1 66 4 is_stmt 1
 221              	.LVL20:
 222 00ec 8508     		addi	a7,a7,1
 223              	.LVL21:
 224 00ee C5BF     		j	.L10
 225              	.LVL22:
 226              	.L9:
  59:C:/Users/stapi/OneDrive/Desktop/GD32VW553/V1_MQTT_OK/GD32VW55X_Wifi_BLE_SDK/GD32VW55x_RELEASE_V1.0.2/MSDK/wpa_supplicant/src/tls\pkcs1.c **** 				   "random data for PS", __func__);
 227              		.loc 1 59 4
 228 00f0 37060000 		lui	a2,%hi(.LANCHOR0)
 229 00f4 B7050000 		lui	a1,%hi(.LC1)
 230 00f8 13060600 		addi	a2,a2,%lo(.LANCHOR0)
 231 00fc 93850500 		addi	a1,a1,%lo(.LC1)
 232 0100 0945     		li	a0,2
 233 0102 97000000 		call	wpa_printf
 233      E7800000 
 234              	.LVL23:
  61:C:/Users/stapi/OneDrive/Desktop/GD32VW553/V1_MQTT_OK/GD32VW55X_Wifi_BLE_SDK/GD32VW55x_RELEASE_V1.0.2/MSDK/wpa_supplicant/src/tls\pkcs1.c **** 		}
 235              		.loc 1 61 4
 236 010a B1B7     		j	.L16
 237              	.LVL24:
 238              	.L7:
  70:C:/Users/stapi/OneDrive/Desktop/GD32VW553/V1_MQTT_OK/GD32VW55X_Wifi_BLE_SDK/GD32VW55x_RELEASE_V1.0.2/MSDK/wpa_supplicant/src/tls\pkcs1.c **** 			   "%d", __func__, block_type);
 239              		.loc 1 70 3
 240 010c 37060000 		lui	a2,%hi(.LANCHOR0)
 241 0110 B7050000 		lui	a1,%hi(.LC2)
 242 0114 93F6FC0F 		andi	a3,s9,0xff
 243 0118 13060600 		addi	a2,a2,%lo(.LANCHOR0)
 244 011c 93850500 		addi	a1,a1,%lo(.LC2)
 245 0120 0945     		li	a0,2
 246              	.LVL25:
 247 0122 97000000 		call	wpa_printf
 247      E7800000 
 248              	.LVL26:
 249 012a 35B7     		j	.L16
 250              	.LBE8:
 251              	.LBE11:
 252              		.cfi_endproc
 253              	.LFE87:
 255              		.section	.rodata.pkcs1_v15_private_key_decrypt.str1.4,"aMS",@progbits,1
 256              		.align	2
 257              	.LC3:
 258 0000 4C696254 		.string	"LibTomCrypt: Too short padding"
 258      6F6D4372 
 258      7970743A 
 258      20546F6F 
 258      2073686F 
 259              		.section	.text.pkcs1_v15_private_key_decrypt,"ax",@progbits
 260              		.align	1
 261              		.globl	pkcs1_v15_private_key_decrypt
 263              	pkcs1_v15_private_key_decrypt:
 264              	.LFB88:
  95:C:/Users/stapi/OneDrive/Desktop/GD32VW553/V1_MQTT_OK/GD32VW55X_Wifi_BLE_SDK/GD32VW55x_RELEASE_V1.0.2/MSDK/wpa_supplicant/src/tls\pkcs1.c **** 
  96:C:/Users/stapi/OneDrive/Desktop/GD32VW553/V1_MQTT_OK/GD32VW55X_Wifi_BLE_SDK/GD32VW55x_RELEASE_V1.0.2/MSDK/wpa_supplicant/src/tls\pkcs1.c **** 
  97:C:/Users/stapi/OneDrive/Desktop/GD32VW553/V1_MQTT_OK/GD32VW55X_Wifi_BLE_SDK/GD32VW55x_RELEASE_V1.0.2/MSDK/wpa_supplicant/src/tls\pkcs1.c **** int pkcs1_v15_private_key_decrypt(struct crypto_rsa_key *key,
  98:C:/Users/stapi/OneDrive/Desktop/GD32VW553/V1_MQTT_OK/GD32VW55X_Wifi_BLE_SDK/GD32VW55x_RELEASE_V1.0.2/MSDK/wpa_supplicant/src/tls\pkcs1.c **** 				  const u8 *in, size_t inlen,
  99:C:/Users/stapi/OneDrive/Desktop/GD32VW553/V1_MQTT_OK/GD32VW55X_Wifi_BLE_SDK/GD32VW55x_RELEASE_V1.0.2/MSDK/wpa_supplicant/src/tls\pkcs1.c **** 				  u8 *out, size_t *outlen)
 100:C:/Users/stapi/OneDrive/Desktop/GD32VW553/V1_MQTT_OK/GD32VW55X_Wifi_BLE_SDK/GD32VW55x_RELEASE_V1.0.2/MSDK/wpa_supplicant/src/tls\pkcs1.c **** {
 265              		.loc 1 100 1
 266              		.cfi_startproc
 267              	.LVL27:
 268 0000 17030000 		call	t0,__riscv_save_3
 268      E7020300 
 269              		.cfi_offset 18, -16
 270              		.cfi_offset 9, -12
 271              		.cfi_offset 8, -8
 272              		.cfi_offset 1, -4
 273              		.cfi_def_cfa_offset 16
 101:C:/Users/stapi/OneDrive/Desktop/GD32VW553/V1_MQTT_OK/GD32VW55X_Wifi_BLE_SDK/GD32VW55x_RELEASE_V1.0.2/MSDK/wpa_supplicant/src/tls\pkcs1.c **** 	int res;
 274              		.loc 1 101 2
 102:C:/Users/stapi/OneDrive/Desktop/GD32VW553/V1_MQTT_OK/GD32VW55X_Wifi_BLE_SDK/GD32VW55x_RELEASE_V1.0.2/MSDK/wpa_supplicant/src/tls\pkcs1.c **** 	u8 *pos, *end;
 275              		.loc 1 102 2
 103:C:/Users/stapi/OneDrive/Desktop/GD32VW553/V1_MQTT_OK/GD32VW55X_Wifi_BLE_SDK/GD32VW55x_RELEASE_V1.0.2/MSDK/wpa_supplicant/src/tls\pkcs1.c **** 
 104:C:/Users/stapi/OneDrive/Desktop/GD32VW553/V1_MQTT_OK/GD32VW55X_Wifi_BLE_SDK/GD32VW55x_RELEASE_V1.0.2/MSDK/wpa_supplicant/src/tls\pkcs1.c **** 	res = crypto_rsa_exptmod(in, inlen, out, outlen, key, 1);
 276              		.loc 1 104 2
 100:C:/Users/stapi/OneDrive/Desktop/GD32VW553/V1_MQTT_OK/GD32VW55X_Wifi_BLE_SDK/GD32VW55x_RELEASE_V1.0.2/MSDK/wpa_supplicant/src/tls\pkcs1.c **** 	int res;
 277              		.loc 1 100 1 is_stmt 0
 278 0008 2A88     		mv	a6,a0
 279 000a 3684     		mv	s0,a3
 280 000c 3A89     		mv	s2,a4
 281 000e 2E85     		mv	a0,a1
 282              	.LVL28:
 283              		.loc 1 104 8
 284 0010 8547     		li	a5,1
 100:C:/Users/stapi/OneDrive/Desktop/GD32VW553/V1_MQTT_OK/GD32VW55X_Wifi_BLE_SDK/GD32VW55x_RELEASE_V1.0.2/MSDK/wpa_supplicant/src/tls\pkcs1.c **** 	int res;
 285              		.loc 1 100 1
 286 0012 B285     		mv	a1,a2
 287              	.LVL29:
 288              		.loc 1 104 8
 289 0014 4287     		mv	a4,a6
 290              	.LVL30:
 291 0016 CA86     		mv	a3,s2
 292              	.LVL31:
 293 0018 2286     		mv	a2,s0
 294              	.LVL32:
 295 001a 97000000 		call	crypto_rsa_exptmod
 295      E7800000 
 296              	.LVL33:
 297 0022 AA84     		mv	s1,a0
 298              	.LVL34:
 105:C:/Users/stapi/OneDrive/Desktop/GD32VW553/V1_MQTT_OK/GD32VW55X_Wifi_BLE_SDK/GD32VW55x_RELEASE_V1.0.2/MSDK/wpa_supplicant/src/tls\pkcs1.c **** 	if (res)
 299              		.loc 1 105 2 is_stmt 1
 300              		.loc 1 105 5 is_stmt 0
 301 0024 3DE5     		bne	a0,zero,.L18
 106:C:/Users/stapi/OneDrive/Desktop/GD32VW553/V1_MQTT_OK/GD32VW55X_Wifi_BLE_SDK/GD32VW55x_RELEASE_V1.0.2/MSDK/wpa_supplicant/src/tls\pkcs1.c **** 		return res;
 107:C:/Users/stapi/OneDrive/Desktop/GD32VW553/V1_MQTT_OK/GD32VW55X_Wifi_BLE_SDK/GD32VW55x_RELEASE_V1.0.2/MSDK/wpa_supplicant/src/tls\pkcs1.c **** 
 108:C:/Users/stapi/OneDrive/Desktop/GD32VW553/V1_MQTT_OK/GD32VW55X_Wifi_BLE_SDK/GD32VW55x_RELEASE_V1.0.2/MSDK/wpa_supplicant/src/tls\pkcs1.c **** 	if (*outlen < 2 || out[0] != 0 || out[1] != 2)
 302              		.loc 1 108 2 is_stmt 1
 303              		.loc 1 108 6 is_stmt 0
 304 0026 03260900 		lw	a2,0(s2)
 305              		.loc 1 108 5
 306 002a 8547     		li	a5,1
 307 002c 63F3C702 		bleu	a2,a5,.L29
 308              		.loc 1 108 18 discriminator 1
 309 0030 83470400 		lbu	a5,0(s0)
 310 0034 99EF     		bne	a5,zero,.L29
 311              		.loc 1 108 33 discriminator 2
 312 0036 03471400 		lbu	a4,1(s0)
 313 003a 8947     		li	a5,2
 314 003c 631BF700 		bne	a4,a5,.L29
 109:C:/Users/stapi/OneDrive/Desktop/GD32VW553/V1_MQTT_OK/GD32VW55X_Wifi_BLE_SDK/GD32VW55x_RELEASE_V1.0.2/MSDK/wpa_supplicant/src/tls\pkcs1.c **** 		return -1;
 110:C:/Users/stapi/OneDrive/Desktop/GD32VW553/V1_MQTT_OK/GD32VW55X_Wifi_BLE_SDK/GD32VW55x_RELEASE_V1.0.2/MSDK/wpa_supplicant/src/tls\pkcs1.c **** 
 111:C:/Users/stapi/OneDrive/Desktop/GD32VW553/V1_MQTT_OK/GD32VW55X_Wifi_BLE_SDK/GD32VW55x_RELEASE_V1.0.2/MSDK/wpa_supplicant/src/tls\pkcs1.c **** 	/* Skip PS (pseudorandom non-zero octets) */
 112:C:/Users/stapi/OneDrive/Desktop/GD32VW553/V1_MQTT_OK/GD32VW55X_Wifi_BLE_SDK/GD32VW55x_RELEASE_V1.0.2/MSDK/wpa_supplicant/src/tls\pkcs1.c **** 	pos = out + 2;
 315              		.loc 1 112 2 is_stmt 1
 316              		.loc 1 112 6 is_stmt 0
 317 0040 93052400 		addi	a1,s0,2
 318              	.LVL35:
 113:C:/Users/stapi/OneDrive/Desktop/GD32VW553/V1_MQTT_OK/GD32VW55X_Wifi_BLE_SDK/GD32VW55x_RELEASE_V1.0.2/MSDK/wpa_supplicant/src/tls\pkcs1.c **** 	end = out + *outlen;
 319              		.loc 1 113 2 is_stmt 1
 320              		.loc 1 113 6 is_stmt 0
 321 0044 B307C400 		add	a5,s0,a2
 322              	.LVL36:
 114:C:/Users/stapi/OneDrive/Desktop/GD32VW553/V1_MQTT_OK/GD32VW55X_Wifi_BLE_SDK/GD32VW55x_RELEASE_V1.0.2/MSDK/wpa_supplicant/src/tls\pkcs1.c **** 	while (*pos && pos < end)
 323              		.loc 1 114 2 is_stmt 1
 324              	.L20:
 325              		.loc 1 114 8
 326 0048 03C70500 		lbu	a4,0(a1)
 327 004c 09E7     		bne	a4,zero,.L21
 328              	.L24:
 115:C:/Users/stapi/OneDrive/Desktop/GD32VW553/V1_MQTT_OK/GD32VW55X_Wifi_BLE_SDK/GD32VW55x_RELEASE_V1.0.2/MSDK/wpa_supplicant/src/tls\pkcs1.c **** 		pos++;
 116:C:/Users/stapi/OneDrive/Desktop/GD32VW553/V1_MQTT_OK/GD32VW55X_Wifi_BLE_SDK/GD32VW55x_RELEASE_V1.0.2/MSDK/wpa_supplicant/src/tls\pkcs1.c **** 	if (pos == end)
 329              		.loc 1 116 2
 330              		.loc 1 116 5 is_stmt 0
 331 004e 6398F500 		bne	a1,a5,.L30
 332              	.LVL37:
 333              	.L29:
 109:C:/Users/stapi/OneDrive/Desktop/GD32VW553/V1_MQTT_OK/GD32VW55X_Wifi_BLE_SDK/GD32VW55x_RELEASE_V1.0.2/MSDK/wpa_supplicant/src/tls\pkcs1.c **** 
 334              		.loc 1 109 10
 335 0052 FD54     		li	s1,-1
 336              	.LVL38:
 337 0054 3DA8     		j	.L18
 338              	.LVL39:
 339              	.L21:
 114:C:/Users/stapi/OneDrive/Desktop/GD32VW553/V1_MQTT_OK/GD32VW55X_Wifi_BLE_SDK/GD32VW55x_RELEASE_V1.0.2/MSDK/wpa_supplicant/src/tls\pkcs1.c **** 	while (*pos && pos < end)
 340              		.loc 1 114 14 discriminator 1
 341 0056 E3FCF5FE 		bgeu	a1,a5,.L24
 115:C:/Users/stapi/OneDrive/Desktop/GD32VW553/V1_MQTT_OK/GD32VW55X_Wifi_BLE_SDK/GD32VW55x_RELEASE_V1.0.2/MSDK/wpa_supplicant/src/tls\pkcs1.c **** 		pos++;
 342              		.loc 1 115 3 is_stmt 1
 115:C:/Users/stapi/OneDrive/Desktop/GD32VW553/V1_MQTT_OK/GD32VW55X_Wifi_BLE_SDK/GD32VW55x_RELEASE_V1.0.2/MSDK/wpa_supplicant/src/tls\pkcs1.c **** 		pos++;
 343              		.loc 1 115 6 is_stmt 0
 344 005a 8505     		addi	a1,a1,1
 345              	.LVL40:
 346 005c F5B7     		j	.L20
 347              	.L30:
 117:C:/Users/stapi/OneDrive/Desktop/GD32VW553/V1_MQTT_OK/GD32VW55X_Wifi_BLE_SDK/GD32VW55x_RELEASE_V1.0.2/MSDK/wpa_supplicant/src/tls\pkcs1.c **** 		return -1;
 118:C:/Users/stapi/OneDrive/Desktop/GD32VW553/V1_MQTT_OK/GD32VW55X_Wifi_BLE_SDK/GD32VW55x_RELEASE_V1.0.2/MSDK/wpa_supplicant/src/tls\pkcs1.c **** 	if (pos - out - 2 < 8) {
 348              		.loc 1 118 2 is_stmt 1
 349              		.loc 1 118 10 is_stmt 0
 350 005e B3878540 		sub	a5,a1,s0
 351              	.LVL41:
 352              		.loc 1 118 5
 353 0062 2547     		li	a4,9
 354 0064 634CF700 		bgt	a5,a4,.L25
 119:C:/Users/stapi/OneDrive/Desktop/GD32VW553/V1_MQTT_OK/GD32VW55X_Wifi_BLE_SDK/GD32VW55x_RELEASE_V1.0.2/MSDK/wpa_supplicant/src/tls\pkcs1.c **** 		/* PKCS #1 v1.5, 8.1: At least eight octets long PS */
 120:C:/Users/stapi/OneDrive/Desktop/GD32VW553/V1_MQTT_OK/GD32VW55X_Wifi_BLE_SDK/GD32VW55x_RELEASE_V1.0.2/MSDK/wpa_supplicant/src/tls\pkcs1.c **** 		wpa_printf(MSG_INFO, "LibTomCrypt: Too short padding");
 355              		.loc 1 120 3 is_stmt 1
 356 0068 B7050000 		lui	a1,%hi(.LC3)
 357              	.LVL42:
 358 006c 93850500 		addi	a1,a1,%lo(.LC3)
 359 0070 0D45     		li	a0,3
 360 0072 97000000 		call	wpa_printf
 360      E7800000 
 361              	.LVL43:
 121:C:/Users/stapi/OneDrive/Desktop/GD32VW553/V1_MQTT_OK/GD32VW55X_Wifi_BLE_SDK/GD32VW55x_RELEASE_V1.0.2/MSDK/wpa_supplicant/src/tls\pkcs1.c **** 		return -1;
 362              		.loc 1 121 3
 363 007a E1BF     		j	.L29
 364              	.LVL44:
 365              	.L25:
 122:C:/Users/stapi/OneDrive/Desktop/GD32VW553/V1_MQTT_OK/GD32VW55X_Wifi_BLE_SDK/GD32VW55x_RELEASE_V1.0.2/MSDK/wpa_supplicant/src/tls\pkcs1.c **** 	}
 123:C:/Users/stapi/OneDrive/Desktop/GD32VW553/V1_MQTT_OK/GD32VW55X_Wifi_BLE_SDK/GD32VW55x_RELEASE_V1.0.2/MSDK/wpa_supplicant/src/tls\pkcs1.c **** 	pos++;
 366              		.loc 1 123 2
 367              		.loc 1 123 5 is_stmt 0
 368 007c 8505     		addi	a1,a1,1
 369              	.LVL45:
 124:C:/Users/stapi/OneDrive/Desktop/GD32VW553/V1_MQTT_OK/GD32VW55X_Wifi_BLE_SDK/GD32VW55x_RELEASE_V1.0.2/MSDK/wpa_supplicant/src/tls\pkcs1.c **** 
 125:C:/Users/stapi/OneDrive/Desktop/GD32VW553/V1_MQTT_OK/GD32VW55X_Wifi_BLE_SDK/GD32VW55x_RELEASE_V1.0.2/MSDK/wpa_supplicant/src/tls\pkcs1.c **** 	*outlen -= pos - out;
 370              		.loc 1 125 2 is_stmt 1
 371              		.loc 1 125 17 is_stmt 0
 372 007e B3878540 		sub	a5,a1,s0
 373              		.loc 1 125 10
 374 0082 1D8E     		sub	a2,a2,a5
 375              	.LVL46:
 376 0084 2320C900 		sw	a2,0(s2)
 377              	.LVL47:
 126:C:/Users/stapi/OneDrive/Desktop/GD32VW553/V1_MQTT_OK/GD32VW55X_Wifi_BLE_SDK/GD32VW55x_RELEASE_V1.0.2/MSDK/wpa_supplicant/src/tls\pkcs1.c **** 
 127:C:/Users/stapi/OneDrive/Desktop/GD32VW553/V1_MQTT_OK/GD32VW55X_Wifi_BLE_SDK/GD32VW55x_RELEASE_V1.0.2/MSDK/wpa_supplicant/src/tls\pkcs1.c **** 	/* Strip PKCS #1 header */
 128:C:/Users/stapi/OneDrive/Desktop/GD32VW553/V1_MQTT_OK/GD32VW55X_Wifi_BLE_SDK/GD32VW55x_RELEASE_V1.0.2/MSDK/wpa_supplicant/src/tls\pkcs1.c **** 	os_memmove(out, pos, *outlen);
 378              		.loc 1 128 2 is_stmt 1
 379 0088 2285     		mv	a0,s0
 380 008a 97000000 		call	os_memmove
 380      E7800000 
 381              	.LVL48:
 129:C:/Users/stapi/OneDrive/Desktop/GD32VW553/V1_MQTT_OK/GD32VW55X_Wifi_BLE_SDK/GD32VW55x_RELEASE_V1.0.2/MSDK/wpa_supplicant/src/tls\pkcs1.c **** 
 130:C:/Users/stapi/OneDrive/Desktop/GD32VW553/V1_MQTT_OK/GD32VW55X_Wifi_BLE_SDK/GD32VW55x_RELEASE_V1.0.2/MSDK/wpa_supplicant/src/tls\pkcs1.c **** 	return 0;
 382              		.loc 1 130 2
 383              	.L18:
 131:C:/Users/stapi/OneDrive/Desktop/GD32VW553/V1_MQTT_OK/GD32VW55X_Wifi_BLE_SDK/GD32VW55x_RELEASE_V1.0.2/MSDK/wpa_supplicant/src/tls\pkcs1.c **** }
 384              		.loc 1 131 1 is_stmt 0
 385 0092 2685     		mv	a0,s1
 386 0094 17030000 		tail	__riscv_restore_3
 386      67000300 
 387              		.cfi_restore 18
 388              		.cfi_restore 9
 389              		.cfi_restore 8
 390              		.cfi_restore 1
 391              		.cfi_def_cfa_offset 0
 392              		.cfi_endproc
 393              	.LFE88:
 395              		.section	.rodata.pkcs1_decrypt_public_key.str1.4,"aMS",@progbits,1
 396              		.align	2
 397              	.LC4:
 398 0000 4C696254 		.string	"LibTomCrypt: Invalid signature EB structure"
 398      6F6D4372 
 398      7970743A 
 398      20496E76 
 398      616C6964 
 399              		.align	2
 400              	.LC5:
 401 002c 5369676E 		.string	"Signature EB"
 401      61747572 
 401      65204542 
 401      00
 402 0039 000000   		.align	2
 403              	.LC6:
 404 003c 4C696254 		.string	"LibTomCrypt: Invalid signature PS (BT=01)"
 404      6F6D4372 
 404      7970743A 
 404      20496E76 
 404      616C6964 
 405 0066 0000     		.align	2
 406              	.LC7:
 407 0068 4C696254 		.string	"LibTomCrypt: Too short signature padding"
 407      6F6D4372 
 407      7970743A 
 407      20546F6F 
 407      2073686F 
 408 0091 000000   		.align	2
 409              	.LC8:
 410 0094 4C696254 		.string	"LibTomCrypt: Invalid signature EB structure (2)"
 410      6F6D4372 
 410      7970743A 
 410      20496E76 
 410      616C6964 
 411              		.section	.text.pkcs1_decrypt_public_key,"ax",@progbits
 412              		.align	1
 413              		.globl	pkcs1_decrypt_public_key
 415              	pkcs1_decrypt_public_key:
 416              	.LFB89:
 132:C:/Users/stapi/OneDrive/Desktop/GD32VW553/V1_MQTT_OK/GD32VW55X_Wifi_BLE_SDK/GD32VW55x_RELEASE_V1.0.2/MSDK/wpa_supplicant/src/tls\pkcs1.c **** 
 133:C:/Users/stapi/OneDrive/Desktop/GD32VW553/V1_MQTT_OK/GD32VW55X_Wifi_BLE_SDK/GD32VW55x_RELEASE_V1.0.2/MSDK/wpa_supplicant/src/tls\pkcs1.c **** 
 134:C:/Users/stapi/OneDrive/Desktop/GD32VW553/V1_MQTT_OK/GD32VW55X_Wifi_BLE_SDK/GD32VW55x_RELEASE_V1.0.2/MSDK/wpa_supplicant/src/tls\pkcs1.c **** int pkcs1_decrypt_public_key(struct crypto_rsa_key *key,
 135:C:/Users/stapi/OneDrive/Desktop/GD32VW553/V1_MQTT_OK/GD32VW55X_Wifi_BLE_SDK/GD32VW55x_RELEASE_V1.0.2/MSDK/wpa_supplicant/src/tls\pkcs1.c **** 			     const u8 *crypt, size_t crypt_len,
 136:C:/Users/stapi/OneDrive/Desktop/GD32VW553/V1_MQTT_OK/GD32VW55X_Wifi_BLE_SDK/GD32VW55x_RELEASE_V1.0.2/MSDK/wpa_supplicant/src/tls\pkcs1.c **** 			     u8 *plain, size_t *plain_len)
 137:C:/Users/stapi/OneDrive/Desktop/GD32VW553/V1_MQTT_OK/GD32VW55X_Wifi_BLE_SDK/GD32VW55x_RELEASE_V1.0.2/MSDK/wpa_supplicant/src/tls\pkcs1.c **** {
 417              		.loc 1 137 1 is_stmt 1
 418              		.cfi_startproc
 419              	.LVL49:
 420 0000 17030000 		call	t0,__riscv_save_2
 420      E7020300 
 421              		.cfi_offset 9, -12
 422              		.cfi_offset 8, -8
 423              		.cfi_offset 1, -4
 424              		.cfi_def_cfa_offset 16
 138:C:/Users/stapi/OneDrive/Desktop/GD32VW553/V1_MQTT_OK/GD32VW55X_Wifi_BLE_SDK/GD32VW55x_RELEASE_V1.0.2/MSDK/wpa_supplicant/src/tls\pkcs1.c **** 	size_t len;
 425              		.loc 1 138 2
 139:C:/Users/stapi/OneDrive/Desktop/GD32VW553/V1_MQTT_OK/GD32VW55X_Wifi_BLE_SDK/GD32VW55x_RELEASE_V1.0.2/MSDK/wpa_supplicant/src/tls\pkcs1.c **** 	u8 *pos;
 426              		.loc 1 139 2
 140:C:/Users/stapi/OneDrive/Desktop/GD32VW553/V1_MQTT_OK/GD32VW55X_Wifi_BLE_SDK/GD32VW55x_RELEASE_V1.0.2/MSDK/wpa_supplicant/src/tls\pkcs1.c **** 
 141:C:/Users/stapi/OneDrive/Desktop/GD32VW553/V1_MQTT_OK/GD32VW55X_Wifi_BLE_SDK/GD32VW55x_RELEASE_V1.0.2/MSDK/wpa_supplicant/src/tls\pkcs1.c **** 	len = *plain_len;
 427              		.loc 1 141 2
 428              		.loc 1 141 6 is_stmt 0
 429 0008 1C43     		lw	a5,0(a4)
 137:C:/Users/stapi/OneDrive/Desktop/GD32VW553/V1_MQTT_OK/GD32VW55X_Wifi_BLE_SDK/GD32VW55x_RELEASE_V1.0.2/MSDK/wpa_supplicant/src/tls\pkcs1.c **** 	size_t len;
 430              		.loc 1 137 1
 431 000a 4111     		addi	sp,sp,-16
 432              		.cfi_def_cfa_offset 32
 137:C:/Users/stapi/OneDrive/Desktop/GD32VW553/V1_MQTT_OK/GD32VW55X_Wifi_BLE_SDK/GD32VW55x_RELEASE_V1.0.2/MSDK/wpa_supplicant/src/tls\pkcs1.c **** 	size_t len;
 433              		.loc 1 137 1
 434 000c 2A88     		mv	a6,a0
 435 000e 3684     		mv	s0,a3
 436 0010 2E85     		mv	a0,a1
 437              	.LVL50:
 438 0012 BA84     		mv	s1,a4
 439 0014 B285     		mv	a1,a2
 440              	.LVL51:
 441              		.loc 1 141 6
 442 0016 3EC6     		sw	a5,12(sp)
 142:C:/Users/stapi/OneDrive/Desktop/GD32VW553/V1_MQTT_OK/GD32VW55X_Wifi_BLE_SDK/GD32VW55x_RELEASE_V1.0.2/MSDK/wpa_supplicant/src/tls\pkcs1.c **** 	if (crypto_rsa_exptmod(crypt, crypt_len, plain, &len, key, 0) < 0)
 443              		.loc 1 142 2 is_stmt 1
 444              		.loc 1 142 6 is_stmt 0
 445 0018 4287     		mv	a4,a6
 446              	.LVL52:
 447 001a 8147     		li	a5,0
 448 001c 7400     		addi	a3,sp,12
 449              	.LVL53:
 450 001e 2286     		mv	a2,s0
 451              	.LVL54:
 452 0020 97000000 		call	crypto_rsa_exptmod
 452      E7800000 
 453              	.LVL55:
 454              		.loc 1 142 5
 455 0028 63420504 		blt	a0,zero,.L44
 143:C:/Users/stapi/OneDrive/Desktop/GD32VW553/V1_MQTT_OK/GD32VW55X_Wifi_BLE_SDK/GD32VW55x_RELEASE_V1.0.2/MSDK/wpa_supplicant/src/tls\pkcs1.c **** 		return -1;
 144:C:/Users/stapi/OneDrive/Desktop/GD32VW553/V1_MQTT_OK/GD32VW55X_Wifi_BLE_SDK/GD32VW55x_RELEASE_V1.0.2/MSDK/wpa_supplicant/src/tls\pkcs1.c **** 
 145:C:/Users/stapi/OneDrive/Desktop/GD32VW553/V1_MQTT_OK/GD32VW55X_Wifi_BLE_SDK/GD32VW55x_RELEASE_V1.0.2/MSDK/wpa_supplicant/src/tls\pkcs1.c **** 	/*
 146:C:/Users/stapi/OneDrive/Desktop/GD32VW553/V1_MQTT_OK/GD32VW55X_Wifi_BLE_SDK/GD32VW55x_RELEASE_V1.0.2/MSDK/wpa_supplicant/src/tls\pkcs1.c **** 	 * PKCS #1 v1.5, 8.1:
 147:C:/Users/stapi/OneDrive/Desktop/GD32VW553/V1_MQTT_OK/GD32VW55X_Wifi_BLE_SDK/GD32VW55x_RELEASE_V1.0.2/MSDK/wpa_supplicant/src/tls\pkcs1.c **** 	 *
 148:C:/Users/stapi/OneDrive/Desktop/GD32VW553/V1_MQTT_OK/GD32VW55X_Wifi_BLE_SDK/GD32VW55x_RELEASE_V1.0.2/MSDK/wpa_supplicant/src/tls\pkcs1.c **** 	 * EB = 00 || BT || PS || 00 || D
 149:C:/Users/stapi/OneDrive/Desktop/GD32VW553/V1_MQTT_OK/GD32VW55X_Wifi_BLE_SDK/GD32VW55x_RELEASE_V1.0.2/MSDK/wpa_supplicant/src/tls\pkcs1.c **** 	 * BT = 00 or 01
 150:C:/Users/stapi/OneDrive/Desktop/GD32VW553/V1_MQTT_OK/GD32VW55X_Wifi_BLE_SDK/GD32VW55x_RELEASE_V1.0.2/MSDK/wpa_supplicant/src/tls\pkcs1.c **** 	 * PS = k-3-||D|| times (00 if BT=00) or (FF if BT=01)
 151:C:/Users/stapi/OneDrive/Desktop/GD32VW553/V1_MQTT_OK/GD32VW55X_Wifi_BLE_SDK/GD32VW55x_RELEASE_V1.0.2/MSDK/wpa_supplicant/src/tls\pkcs1.c **** 	 * k = length of modulus in octets
 152:C:/Users/stapi/OneDrive/Desktop/GD32VW553/V1_MQTT_OK/GD32VW55X_Wifi_BLE_SDK/GD32VW55x_RELEASE_V1.0.2/MSDK/wpa_supplicant/src/tls\pkcs1.c **** 	 *
 153:C:/Users/stapi/OneDrive/Desktop/GD32VW553/V1_MQTT_OK/GD32VW55X_Wifi_BLE_SDK/GD32VW55x_RELEASE_V1.0.2/MSDK/wpa_supplicant/src/tls\pkcs1.c **** 	 * Based on 10.1.3, "The block type shall be 01" for a signature.
 154:C:/Users/stapi/OneDrive/Desktop/GD32VW553/V1_MQTT_OK/GD32VW55X_Wifi_BLE_SDK/GD32VW55x_RELEASE_V1.0.2/MSDK/wpa_supplicant/src/tls\pkcs1.c **** 	 */
 155:C:/Users/stapi/OneDrive/Desktop/GD32VW553/V1_MQTT_OK/GD32VW55X_Wifi_BLE_SDK/GD32VW55x_RELEASE_V1.0.2/MSDK/wpa_supplicant/src/tls\pkcs1.c **** 
 156:C:/Users/stapi/OneDrive/Desktop/GD32VW553/V1_MQTT_OK/GD32VW55X_Wifi_BLE_SDK/GD32VW55x_RELEASE_V1.0.2/MSDK/wpa_supplicant/src/tls\pkcs1.c **** 	if (len < 3 + 8 + 16 /* min hash len */ ||
 456              		.loc 1 156 2 is_stmt 1
 457              		.loc 1 156 10 is_stmt 0
 458 002c 3246     		lw	a2,12(sp)
 459              		.loc 1 156 5
 460 002e E947     		li	a5,26
 461 0030 63FAC700 		bleu	a2,a5,.L34
 462              		.loc 1 156 42 discriminator 1
 463 0034 83470400 		lbu	a5,0(s0)
 464 0038 91E7     		bne	a5,zero,.L34
 157:C:/Users/stapi/OneDrive/Desktop/GD32VW553/V1_MQTT_OK/GD32VW55X_Wifi_BLE_SDK/GD32VW55x_RELEASE_V1.0.2/MSDK/wpa_supplicant/src/tls\pkcs1.c **** 	    plain[0] != 0x00 || plain[1] != 0x01) {
 465              		.loc 1 157 23
 466 003a 03471400 		lbu	a4,1(s0)
 467 003e 8547     		li	a5,1
 468 0040 6308F702 		beq	a4,a5,.L35
 469              	.L34:
 158:C:/Users/stapi/OneDrive/Desktop/GD32VW553/V1_MQTT_OK/GD32VW55X_Wifi_BLE_SDK/GD32VW55x_RELEASE_V1.0.2/MSDK/wpa_supplicant/src/tls\pkcs1.c **** 		wpa_printf(MSG_INFO, "LibTomCrypt: Invalid signature EB "
 470              		.loc 1 158 3 is_stmt 1
 471 0044 B7050000 		lui	a1,%hi(.LC4)
 472 0048 93850500 		addi	a1,a1,%lo(.LC4)
 473              	.L49:
 159:C:/Users/stapi/OneDrive/Desktop/GD32VW553/V1_MQTT_OK/GD32VW55X_Wifi_BLE_SDK/GD32VW55x_RELEASE_V1.0.2/MSDK/wpa_supplicant/src/tls\pkcs1.c **** 			   "structure");
 160:C:/Users/stapi/OneDrive/Desktop/GD32VW553/V1_MQTT_OK/GD32VW55X_Wifi_BLE_SDK/GD32VW55x_RELEASE_V1.0.2/MSDK/wpa_supplicant/src/tls\pkcs1.c **** 		wpa_hexdump_key(MSG_DEBUG, "Signature EB", plain, len);
 161:C:/Users/stapi/OneDrive/Desktop/GD32VW553/V1_MQTT_OK/GD32VW55X_Wifi_BLE_SDK/GD32VW55x_RELEASE_V1.0.2/MSDK/wpa_supplicant/src/tls\pkcs1.c **** 		return -1;
 162:C:/Users/stapi/OneDrive/Desktop/GD32VW553/V1_MQTT_OK/GD32VW55X_Wifi_BLE_SDK/GD32VW55x_RELEASE_V1.0.2/MSDK/wpa_supplicant/src/tls\pkcs1.c **** 	}
 163:C:/Users/stapi/OneDrive/Desktop/GD32VW553/V1_MQTT_OK/GD32VW55X_Wifi_BLE_SDK/GD32VW55x_RELEASE_V1.0.2/MSDK/wpa_supplicant/src/tls\pkcs1.c **** 
 164:C:/Users/stapi/OneDrive/Desktop/GD32VW553/V1_MQTT_OK/GD32VW55X_Wifi_BLE_SDK/GD32VW55x_RELEASE_V1.0.2/MSDK/wpa_supplicant/src/tls\pkcs1.c **** 	pos = plain + 3;
 165:C:/Users/stapi/OneDrive/Desktop/GD32VW553/V1_MQTT_OK/GD32VW55X_Wifi_BLE_SDK/GD32VW55x_RELEASE_V1.0.2/MSDK/wpa_supplicant/src/tls\pkcs1.c **** 	/* BT = 01 */
 166:C:/Users/stapi/OneDrive/Desktop/GD32VW553/V1_MQTT_OK/GD32VW55X_Wifi_BLE_SDK/GD32VW55x_RELEASE_V1.0.2/MSDK/wpa_supplicant/src/tls\pkcs1.c **** 	if (plain[2] != 0xff) {
 167:C:/Users/stapi/OneDrive/Desktop/GD32VW553/V1_MQTT_OK/GD32VW55X_Wifi_BLE_SDK/GD32VW55x_RELEASE_V1.0.2/MSDK/wpa_supplicant/src/tls\pkcs1.c **** 		wpa_printf(MSG_INFO, "LibTomCrypt: Invalid signature "
 168:C:/Users/stapi/OneDrive/Desktop/GD32VW553/V1_MQTT_OK/GD32VW55X_Wifi_BLE_SDK/GD32VW55x_RELEASE_V1.0.2/MSDK/wpa_supplicant/src/tls\pkcs1.c **** 			   "PS (BT=01)");
 169:C:/Users/stapi/OneDrive/Desktop/GD32VW553/V1_MQTT_OK/GD32VW55X_Wifi_BLE_SDK/GD32VW55x_RELEASE_V1.0.2/MSDK/wpa_supplicant/src/tls\pkcs1.c **** 		wpa_hexdump_key(MSG_DEBUG, "Signature EB", plain, len);
 170:C:/Users/stapi/OneDrive/Desktop/GD32VW553/V1_MQTT_OK/GD32VW55X_Wifi_BLE_SDK/GD32VW55x_RELEASE_V1.0.2/MSDK/wpa_supplicant/src/tls\pkcs1.c **** 		return -1;
 171:C:/Users/stapi/OneDrive/Desktop/GD32VW553/V1_MQTT_OK/GD32VW55X_Wifi_BLE_SDK/GD32VW55x_RELEASE_V1.0.2/MSDK/wpa_supplicant/src/tls\pkcs1.c **** 	}
 172:C:/Users/stapi/OneDrive/Desktop/GD32VW553/V1_MQTT_OK/GD32VW55X_Wifi_BLE_SDK/GD32VW55x_RELEASE_V1.0.2/MSDK/wpa_supplicant/src/tls\pkcs1.c **** 	while (pos < plain + len && *pos == 0xff)
 173:C:/Users/stapi/OneDrive/Desktop/GD32VW553/V1_MQTT_OK/GD32VW55X_Wifi_BLE_SDK/GD32VW55x_RELEASE_V1.0.2/MSDK/wpa_supplicant/src/tls\pkcs1.c **** 		pos++;
 174:C:/Users/stapi/OneDrive/Desktop/GD32VW553/V1_MQTT_OK/GD32VW55X_Wifi_BLE_SDK/GD32VW55x_RELEASE_V1.0.2/MSDK/wpa_supplicant/src/tls\pkcs1.c **** 
 175:C:/Users/stapi/OneDrive/Desktop/GD32VW553/V1_MQTT_OK/GD32VW55X_Wifi_BLE_SDK/GD32VW55x_RELEASE_V1.0.2/MSDK/wpa_supplicant/src/tls\pkcs1.c **** 	if (pos - plain - 2 < 8) {
 176:C:/Users/stapi/OneDrive/Desktop/GD32VW553/V1_MQTT_OK/GD32VW55X_Wifi_BLE_SDK/GD32VW55x_RELEASE_V1.0.2/MSDK/wpa_supplicant/src/tls\pkcs1.c **** 		/* PKCS #1 v1.5, 8.1: At least eight octets long PS */
 177:C:/Users/stapi/OneDrive/Desktop/GD32VW553/V1_MQTT_OK/GD32VW55X_Wifi_BLE_SDK/GD32VW55x_RELEASE_V1.0.2/MSDK/wpa_supplicant/src/tls\pkcs1.c **** 		wpa_printf(MSG_INFO, "LibTomCrypt: Too short signature "
 178:C:/Users/stapi/OneDrive/Desktop/GD32VW553/V1_MQTT_OK/GD32VW55X_Wifi_BLE_SDK/GD32VW55x_RELEASE_V1.0.2/MSDK/wpa_supplicant/src/tls\pkcs1.c **** 			   "padding");
 179:C:/Users/stapi/OneDrive/Desktop/GD32VW553/V1_MQTT_OK/GD32VW55X_Wifi_BLE_SDK/GD32VW55x_RELEASE_V1.0.2/MSDK/wpa_supplicant/src/tls\pkcs1.c **** 		wpa_hexdump_key(MSG_DEBUG, "Signature EB", plain, len);
 180:C:/Users/stapi/OneDrive/Desktop/GD32VW553/V1_MQTT_OK/GD32VW55X_Wifi_BLE_SDK/GD32VW55x_RELEASE_V1.0.2/MSDK/wpa_supplicant/src/tls\pkcs1.c **** 		return -1;
 181:C:/Users/stapi/OneDrive/Desktop/GD32VW553/V1_MQTT_OK/GD32VW55X_Wifi_BLE_SDK/GD32VW55x_RELEASE_V1.0.2/MSDK/wpa_supplicant/src/tls\pkcs1.c **** 	}
 182:C:/Users/stapi/OneDrive/Desktop/GD32VW553/V1_MQTT_OK/GD32VW55X_Wifi_BLE_SDK/GD32VW55x_RELEASE_V1.0.2/MSDK/wpa_supplicant/src/tls\pkcs1.c **** 
 183:C:/Users/stapi/OneDrive/Desktop/GD32VW553/V1_MQTT_OK/GD32VW55X_Wifi_BLE_SDK/GD32VW55x_RELEASE_V1.0.2/MSDK/wpa_supplicant/src/tls\pkcs1.c **** 	if (pos + 16 /* min hash len */ >= plain + len || *pos != 0x00) {
 184:C:/Users/stapi/OneDrive/Desktop/GD32VW553/V1_MQTT_OK/GD32VW55X_Wifi_BLE_SDK/GD32VW55x_RELEASE_V1.0.2/MSDK/wpa_supplicant/src/tls\pkcs1.c **** 		wpa_printf(MSG_INFO, "LibTomCrypt: Invalid signature EB "
 474              		.loc 1 184 3 is_stmt 0
 475 004c 0D45     		li	a0,3
 476 004e 97000000 		call	wpa_printf
 476      E7800000 
 477              	.LVL56:
 185:C:/Users/stapi/OneDrive/Desktop/GD32VW553/V1_MQTT_OK/GD32VW55X_Wifi_BLE_SDK/GD32VW55x_RELEASE_V1.0.2/MSDK/wpa_supplicant/src/tls\pkcs1.c **** 			   "structure (2)");
 186:C:/Users/stapi/OneDrive/Desktop/GD32VW553/V1_MQTT_OK/GD32VW55X_Wifi_BLE_SDK/GD32VW55x_RELEASE_V1.0.2/MSDK/wpa_supplicant/src/tls\pkcs1.c **** 		wpa_hexdump_key(MSG_DEBUG, "Signature EB", plain, len);
 478              		.loc 1 186 3 is_stmt 1
 479 0056 B246     		lw	a3,12(sp)
 480 0058 B7050000 		lui	a1,%hi(.LC5)
 481 005c 2286     		mv	a2,s0
 482 005e 93850500 		addi	a1,a1,%lo(.LC5)
 483 0062 0945     		li	a0,2
 484 0064 97000000 		call	wpa_hexdump_key
 484      E7800000 
 485              	.LVL57:
 187:C:/Users/stapi/OneDrive/Desktop/GD32VW553/V1_MQTT_OK/GD32VW55X_Wifi_BLE_SDK/GD32VW55x_RELEASE_V1.0.2/MSDK/wpa_supplicant/src/tls\pkcs1.c **** 		return -1;
 486              		.loc 1 187 3
 487              	.L44:
 143:C:/Users/stapi/OneDrive/Desktop/GD32VW553/V1_MQTT_OK/GD32VW55X_Wifi_BLE_SDK/GD32VW55x_RELEASE_V1.0.2/MSDK/wpa_supplicant/src/tls\pkcs1.c **** 
 488              		.loc 1 143 10 is_stmt 0
 489 006c 7D55     		li	a0,-1
 490 006e 9DA8     		j	.L32
 491              	.L35:
 164:C:/Users/stapi/OneDrive/Desktop/GD32VW553/V1_MQTT_OK/GD32VW55X_Wifi_BLE_SDK/GD32VW55x_RELEASE_V1.0.2/MSDK/wpa_supplicant/src/tls\pkcs1.c **** 	/* BT = 01 */
 492              		.loc 1 164 2 is_stmt 1
 166:C:/Users/stapi/OneDrive/Desktop/GD32VW553/V1_MQTT_OK/GD32VW55X_Wifi_BLE_SDK/GD32VW55x_RELEASE_V1.0.2/MSDK/wpa_supplicant/src/tls\pkcs1.c **** 		wpa_printf(MSG_INFO, "LibTomCrypt: Invalid signature "
 493              		.loc 1 166 5 is_stmt 0
 494 0070 03472400 		lbu	a4,2(s0)
 495 0074 9307F00F 		li	a5,255
 164:C:/Users/stapi/OneDrive/Desktop/GD32VW553/V1_MQTT_OK/GD32VW55X_Wifi_BLE_SDK/GD32VW55x_RELEASE_V1.0.2/MSDK/wpa_supplicant/src/tls\pkcs1.c **** 	/* BT = 01 */
 496              		.loc 1 164 6
 497 0078 93053400 		addi	a1,s0,3
 498              	.LVL58:
 166:C:/Users/stapi/OneDrive/Desktop/GD32VW553/V1_MQTT_OK/GD32VW55X_Wifi_BLE_SDK/GD32VW55x_RELEASE_V1.0.2/MSDK/wpa_supplicant/src/tls\pkcs1.c **** 		wpa_printf(MSG_INFO, "LibTomCrypt: Invalid signature "
 499              		.loc 1 166 2 is_stmt 1
 166:C:/Users/stapi/OneDrive/Desktop/GD32VW553/V1_MQTT_OK/GD32VW55X_Wifi_BLE_SDK/GD32VW55x_RELEASE_V1.0.2/MSDK/wpa_supplicant/src/tls\pkcs1.c **** 		wpa_printf(MSG_INFO, "LibTomCrypt: Invalid signature "
 500              		.loc 1 166 5 is_stmt 0
 501 007c 6310F702 		bne	a4,a5,.L46
 172:C:/Users/stapi/OneDrive/Desktop/GD32VW553/V1_MQTT_OK/GD32VW55X_Wifi_BLE_SDK/GD32VW55x_RELEASE_V1.0.2/MSDK/wpa_supplicant/src/tls\pkcs1.c **** 		pos++;
 502              		.loc 1 172 21
 503 0080 3307C400 		add	a4,s0,a2
 504              	.L36:
 172:C:/Users/stapi/OneDrive/Desktop/GD32VW553/V1_MQTT_OK/GD32VW55X_Wifi_BLE_SDK/GD32VW55x_RELEASE_V1.0.2/MSDK/wpa_supplicant/src/tls\pkcs1.c **** 		pos++;
 505              		.loc 1 172 8 is_stmt 1
 506 0084 63E1E502 		bgtu	a4,a1,.L37
 507              	.L41:
 175:C:/Users/stapi/OneDrive/Desktop/GD32VW553/V1_MQTT_OK/GD32VW55X_Wifi_BLE_SDK/GD32VW55x_RELEASE_V1.0.2/MSDK/wpa_supplicant/src/tls\pkcs1.c **** 		/* PKCS #1 v1.5, 8.1: At least eight octets long PS */
 508              		.loc 1 175 2
 175:C:/Users/stapi/OneDrive/Desktop/GD32VW553/V1_MQTT_OK/GD32VW55X_Wifi_BLE_SDK/GD32VW55x_RELEASE_V1.0.2/MSDK/wpa_supplicant/src/tls\pkcs1.c **** 		/* PKCS #1 v1.5, 8.1: At least eight octets long PS */
 509              		.loc 1 175 10 is_stmt 0
 510 0088 B3878540 		sub	a5,a1,s0
 175:C:/Users/stapi/OneDrive/Desktop/GD32VW553/V1_MQTT_OK/GD32VW55X_Wifi_BLE_SDK/GD32VW55x_RELEASE_V1.0.2/MSDK/wpa_supplicant/src/tls\pkcs1.c **** 		/* PKCS #1 v1.5, 8.1: At least eight octets long PS */
 511              		.loc 1 175 5
 512 008c A546     		li	a3,9
 513 008e 63C2F602 		bgt	a5,a3,.L47
 177:C:/Users/stapi/OneDrive/Desktop/GD32VW553/V1_MQTT_OK/GD32VW55X_Wifi_BLE_SDK/GD32VW55x_RELEASE_V1.0.2/MSDK/wpa_supplicant/src/tls\pkcs1.c **** 			   "padding");
 514              		.loc 1 177 3 is_stmt 1
 515 0092 B7050000 		lui	a1,%hi(.LC7)
 516              	.LVL59:
 517 0096 93850500 		addi	a1,a1,%lo(.LC7)
 518 009a 4DBF     		j	.L49
 519              	.LVL60:
 520              	.L46:
 167:C:/Users/stapi/OneDrive/Desktop/GD32VW553/V1_MQTT_OK/GD32VW55X_Wifi_BLE_SDK/GD32VW55x_RELEASE_V1.0.2/MSDK/wpa_supplicant/src/tls\pkcs1.c **** 			   "PS (BT=01)");
 521              		.loc 1 167 3
 522 009c B7050000 		lui	a1,%hi(.LC6)
 523              	.LVL61:
 524 00a0 93850500 		addi	a1,a1,%lo(.LC6)
 525 00a4 65B7     		j	.L49
 526              	.LVL62:
 527              	.L37:
 172:C:/Users/stapi/OneDrive/Desktop/GD32VW553/V1_MQTT_OK/GD32VW55X_Wifi_BLE_SDK/GD32VW55x_RELEASE_V1.0.2/MSDK/wpa_supplicant/src/tls\pkcs1.c **** 		pos++;
 528              		.loc 1 172 27 is_stmt 0 discriminator 1
 529 00a6 83C60500 		lbu	a3,0(a1)
 530 00aa E39FF6FC 		bne	a3,a5,.L41
 173:C:/Users/stapi/OneDrive/Desktop/GD32VW553/V1_MQTT_OK/GD32VW55X_Wifi_BLE_SDK/GD32VW55x_RELEASE_V1.0.2/MSDK/wpa_supplicant/src/tls\pkcs1.c **** 
 531              		.loc 1 173 3 is_stmt 1
 173:C:/Users/stapi/OneDrive/Desktop/GD32VW553/V1_MQTT_OK/GD32VW55X_Wifi_BLE_SDK/GD32VW55x_RELEASE_V1.0.2/MSDK/wpa_supplicant/src/tls\pkcs1.c **** 
 532              		.loc 1 173 6 is_stmt 0
 533 00ae 8505     		addi	a1,a1,1
 534              	.LVL63:
 535 00b0 D1BF     		j	.L36
 536              	.L47:
 183:C:/Users/stapi/OneDrive/Desktop/GD32VW553/V1_MQTT_OK/GD32VW55X_Wifi_BLE_SDK/GD32VW55x_RELEASE_V1.0.2/MSDK/wpa_supplicant/src/tls\pkcs1.c **** 		wpa_printf(MSG_INFO, "LibTomCrypt: Invalid signature EB "
 537              		.loc 1 183 2 is_stmt 1
 183:C:/Users/stapi/OneDrive/Desktop/GD32VW553/V1_MQTT_OK/GD32VW55X_Wifi_BLE_SDK/GD32VW55x_RELEASE_V1.0.2/MSDK/wpa_supplicant/src/tls\pkcs1.c **** 		wpa_printf(MSG_INFO, "LibTomCrypt: Invalid signature EB "
 538              		.loc 1 183 10 is_stmt 0
 539 00b2 93870501 		addi	a5,a1,16
 183:C:/Users/stapi/OneDrive/Desktop/GD32VW553/V1_MQTT_OK/GD32VW55X_Wifi_BLE_SDK/GD32VW55x_RELEASE_V1.0.2/MSDK/wpa_supplicant/src/tls\pkcs1.c **** 		wpa_printf(MSG_INFO, "LibTomCrypt: Invalid signature EB "
 540              		.loc 1 183 5
 541 00b6 63F5E700 		bleu	a4,a5,.L42
 183:C:/Users/stapi/OneDrive/Desktop/GD32VW553/V1_MQTT_OK/GD32VW55X_Wifi_BLE_SDK/GD32VW55x_RELEASE_V1.0.2/MSDK/wpa_supplicant/src/tls\pkcs1.c **** 		wpa_printf(MSG_INFO, "LibTomCrypt: Invalid signature EB "
 542              		.loc 1 183 49 discriminator 1
 543 00ba 83C70500 		lbu	a5,0(a1)
 544 00be 91C7     		beq	a5,zero,.L43
 545              	.L42:
 184:C:/Users/stapi/OneDrive/Desktop/GD32VW553/V1_MQTT_OK/GD32VW55X_Wifi_BLE_SDK/GD32VW55x_RELEASE_V1.0.2/MSDK/wpa_supplicant/src/tls\pkcs1.c **** 			   "structure (2)");
 546              		.loc 1 184 3 is_stmt 1
 547 00c0 B7050000 		lui	a1,%hi(.LC8)
 548              	.LVL64:
 549 00c4 93850500 		addi	a1,a1,%lo(.LC8)
 550 00c8 51B7     		j	.L49
 551              	.LVL65:
 552              	.L43:
 188:C:/Users/stapi/OneDrive/Desktop/GD32VW553/V1_MQTT_OK/GD32VW55X_Wifi_BLE_SDK/GD32VW55x_RELEASE_V1.0.2/MSDK/wpa_supplicant/src/tls\pkcs1.c **** 	}
 189:C:/Users/stapi/OneDrive/Desktop/GD32VW553/V1_MQTT_OK/GD32VW55X_Wifi_BLE_SDK/GD32VW55x_RELEASE_V1.0.2/MSDK/wpa_supplicant/src/tls\pkcs1.c **** 	pos++;
 553              		.loc 1 189 2
 554              		.loc 1 189 5 is_stmt 0
 555 00ca 8505     		addi	a1,a1,1
 556              	.LVL66:
 190:C:/Users/stapi/OneDrive/Desktop/GD32VW553/V1_MQTT_OK/GD32VW55X_Wifi_BLE_SDK/GD32VW55x_RELEASE_V1.0.2/MSDK/wpa_supplicant/src/tls\pkcs1.c **** 	len -= pos - plain;
 557              		.loc 1 190 2 is_stmt 1
 558              		.loc 1 190 13 is_stmt 0
 559 00cc B3878540 		sub	a5,a1,s0
 560              		.loc 1 190 6
 561 00d0 1D8E     		sub	a2,a2,a5
 191:C:/Users/stapi/OneDrive/Desktop/GD32VW553/V1_MQTT_OK/GD32VW55X_Wifi_BLE_SDK/GD32VW55x_RELEASE_V1.0.2/MSDK/wpa_supplicant/src/tls\pkcs1.c **** 
 192:C:/Users/stapi/OneDrive/Desktop/GD32VW553/V1_MQTT_OK/GD32VW55X_Wifi_BLE_SDK/GD32VW55x_RELEASE_V1.0.2/MSDK/wpa_supplicant/src/tls\pkcs1.c **** 	/* Strip PKCS #1 header */
 193:C:/Users/stapi/OneDrive/Desktop/GD32VW553/V1_MQTT_OK/GD32VW55X_Wifi_BLE_SDK/GD32VW55x_RELEASE_V1.0.2/MSDK/wpa_supplicant/src/tls\pkcs1.c **** 	os_memmove(plain, pos, len);
 562              		.loc 1 193 2
 563 00d2 2285     		mv	a0,s0
 190:C:/Users/stapi/OneDrive/Desktop/GD32VW553/V1_MQTT_OK/GD32VW55X_Wifi_BLE_SDK/GD32VW55x_RELEASE_V1.0.2/MSDK/wpa_supplicant/src/tls\pkcs1.c **** 	len -= pos - plain;
 564              		.loc 1 190 6
 565 00d4 32C6     		sw	a2,12(sp)
 566              		.loc 1 193 2 is_stmt 1
 567 00d6 97000000 		call	os_memmove
 567      E7800000 
 568              	.LVL67:
 194:C:/Users/stapi/OneDrive/Desktop/GD32VW553/V1_MQTT_OK/GD32VW55X_Wifi_BLE_SDK/GD32VW55x_RELEASE_V1.0.2/MSDK/wpa_supplicant/src/tls\pkcs1.c **** 	*plain_len = len;
 569              		.loc 1 194 2
 570              		.loc 1 194 13 is_stmt 0
 571 00de B247     		lw	a5,12(sp)
 195:C:/Users/stapi/OneDrive/Desktop/GD32VW553/V1_MQTT_OK/GD32VW55X_Wifi_BLE_SDK/GD32VW55x_RELEASE_V1.0.2/MSDK/wpa_supplicant/src/tls\pkcs1.c **** 
 196:C:/Users/stapi/OneDrive/Desktop/GD32VW553/V1_MQTT_OK/GD32VW55X_Wifi_BLE_SDK/GD32VW55x_RELEASE_V1.0.2/MSDK/wpa_supplicant/src/tls\pkcs1.c **** 	return 0;
 572              		.loc 1 196 9
 573 00e0 0145     		li	a0,0
 194:C:/Users/stapi/OneDrive/Desktop/GD32VW553/V1_MQTT_OK/GD32VW55X_Wifi_BLE_SDK/GD32VW55x_RELEASE_V1.0.2/MSDK/wpa_supplicant/src/tls\pkcs1.c **** 	*plain_len = len;
 574              		.loc 1 194 13
 575 00e2 9CC0     		sw	a5,0(s1)
 576              		.loc 1 196 2 is_stmt 1
 577              	.L32:
 197:C:/Users/stapi/OneDrive/Desktop/GD32VW553/V1_MQTT_OK/GD32VW55X_Wifi_BLE_SDK/GD32VW55x_RELEASE_V1.0.2/MSDK/wpa_supplicant/src/tls\pkcs1.c **** }
 578              		.loc 1 197 1 is_stmt 0
 579 00e4 4101     		addi	sp,sp,16
 580              		.cfi_def_cfa_offset 0
 581 00e6 17030000 		tail	__riscv_restore_2
 581      67000300 
 582              		.cfi_restore 9
 583              		.cfi_restore 8
 584              		.cfi_restore 1
 585              		.cfi_def_cfa_offset -16
 586              		.cfi_endproc
 587              	.LFE89:
 589              		.section	.rodata.pkcs1_v15_sig_ver.str1.4,"aMS",@progbits,1
 590              		.align	2
 591              	.LC9:
 592 0000 504B4353 		.string	"PKCS #1: RSA decrypt failed"
 592      2023313A 
 592      20525341 
 592      20646563 
 592      72797074 
 593              		.align	2
 594              	.LC10:
 595 001c 44656372 		.string	"Decrypted(S)"
 595      79707465 
 595      64285329 
 595      00
 596 0029 000000   		.align	2
 597              	.LC11:
 598 002c 504B4353 		.string	"PKCS #1: DigestInfo"
 598      2023313A 
 598      20446967 
 598      65737449 
 598      6E666F00 
 599              		.align	2
 600              	.LC12:
 601 0040 504B4353 		.string	"PKCS #1: Expected SEQUENCE (DigestInfo)"
 601      2023313A 
 601      20457870 
 601      65637465 
 601      64205345 
 602              		.align	2
 603              	.LC13:
 604 0068 504B4353 		.string	"PKCS #1: DigestAlgorithmIdentifier"
 604      2023313A 
 604      20446967 
 604      65737441 
 604      6C676F72 
 605 008b 00       		.align	2
 606              	.LC14:
 607 008c 504B4353 		.string	"PKCS #1: Expected SEQUENCE (AlgorithmIdentifier)"
 607      2023313A 
 607      20457870 
 607      65637465 
 607      64205345 
 608 00bd 000000   		.align	2
 609              	.LC15:
 610 00c0 504B4353 		.string	"PKCS #1: Failed to parse digestAlgorithm"
 610      2023313A 
 610      20466169 
 610      6C656420 
 610      746F2070 
 611 00e9 000000   		.align	2
 612              	.LC16:
 613 00ec 504B4353 		.string	"PKCS #1: Digest algorithm parameters"
 613      2023313A 
 613      20446967 
 613      65737420 
 613      616C676F 
 614 0111 000000   		.align	2
 615              	.LC17:
 616 0114 504B4353 		.string	"PKCS #1: Unexpected digest algorithm parameters"
 616      2023313A 
 616      20556E65 
 616      78706563 
 616      74656420 
 617              		.align	2
 618              	.LC18:
 619 0144 504B4353 		.string	"PKCS #1: Hash alg OID mismatch: was %s, expected %s"
 619      2023313A 
 619      20486173 
 619      6820616C 
 619      67204F49 
 620              		.align	2
 621              	.LC19:
 622 0178 504B4353 		.string	"PKCS #1: Decrypted Digest"
 622      2023313A 
 622      20446563 
 622      72797074 
 622      65642044 
 623 0192 0000     		.align	2
 624              	.LC20:
 625 0194 504B4353 		.string	"PKCS #1: Digest value does not match calculated hash"
 625      2023313A 
 625      20446967 
 625      65737420 
 625      76616C75 
 626 01c9 000000   		.align	2
 627              	.LC21:
 628 01cc 504B4353 		.string	"PKCS #1: Expected OCTETSTRING (Digest)"
 628      2023313A 
 628      20457870 
 628      65637465 
 628      64204F43 
 629 01f3 00       		.align	2
 630              	.LC22:
 631 01f4 504B4353 		.string	"PKCS #1: Extra data after signature - reject"
 631      2023313A 
 631      20457874 
 631      72612064 
 631      61746120 
 632 0221 000000   		.align	2
 633              	.LC23:
 634 0224 504B4353 		.string	"PKCS #1: Extra data"
 634      2023313A 
 634      20457874 
 634      72612064 
 634      61746100 
 635              		.section	.text.pkcs1_v15_sig_ver,"ax",@progbits
 636              		.align	1
 637              		.globl	pkcs1_v15_sig_ver
 639              	pkcs1_v15_sig_ver:
 640              	.LFB90:
 198:C:/Users/stapi/OneDrive/Desktop/GD32VW553/V1_MQTT_OK/GD32VW55X_Wifi_BLE_SDK/GD32VW55x_RELEASE_V1.0.2/MSDK/wpa_supplicant/src/tls\pkcs1.c **** 
 199:C:/Users/stapi/OneDrive/Desktop/GD32VW553/V1_MQTT_OK/GD32VW55X_Wifi_BLE_SDK/GD32VW55x_RELEASE_V1.0.2/MSDK/wpa_supplicant/src/tls\pkcs1.c **** 
 200:C:/Users/stapi/OneDrive/Desktop/GD32VW553/V1_MQTT_OK/GD32VW55X_Wifi_BLE_SDK/GD32VW55x_RELEASE_V1.0.2/MSDK/wpa_supplicant/src/tls\pkcs1.c **** int pkcs1_v15_sig_ver(struct crypto_public_key *pk,
 201:C:/Users/stapi/OneDrive/Desktop/GD32VW553/V1_MQTT_OK/GD32VW55X_Wifi_BLE_SDK/GD32VW55x_RELEASE_V1.0.2/MSDK/wpa_supplicant/src/tls\pkcs1.c **** 		      const u8 *s, size_t s_len,
 202:C:/Users/stapi/OneDrive/Desktop/GD32VW553/V1_MQTT_OK/GD32VW55X_Wifi_BLE_SDK/GD32VW55x_RELEASE_V1.0.2/MSDK/wpa_supplicant/src/tls\pkcs1.c **** 		      const struct asn1_oid *hash_alg,
 203:C:/Users/stapi/OneDrive/Desktop/GD32VW553/V1_MQTT_OK/GD32VW55X_Wifi_BLE_SDK/GD32VW55x_RELEASE_V1.0.2/MSDK/wpa_supplicant/src/tls\pkcs1.c **** 		      const u8 *hash, size_t hash_len)
 204:C:/Users/stapi/OneDrive/Desktop/GD32VW553/V1_MQTT_OK/GD32VW55X_Wifi_BLE_SDK/GD32VW55x_RELEASE_V1.0.2/MSDK/wpa_supplicant/src/tls\pkcs1.c **** {
 641              		.loc 1 204 1 is_stmt 1
 642              		.cfi_startproc
 643              	.LVL68:
 644 0000 17030000 		call	t0,__riscv_save_6
 644      E7020300 
 645              		.cfi_offset 21, -28
 646              		.cfi_offset 20, -24
 647              		.cfi_offset 19, -20
 648              		.cfi_offset 18, -16
 649              		.cfi_offset 9, -12
 650              		.cfi_offset 8, -8
 651              		.cfi_offset 1, -4
 652              		.cfi_def_cfa_offset 32
 205:C:/Users/stapi/OneDrive/Desktop/GD32VW553/V1_MQTT_OK/GD32VW55X_Wifi_BLE_SDK/GD32VW55x_RELEASE_V1.0.2/MSDK/wpa_supplicant/src/tls\pkcs1.c **** 	int res;
 653              		.loc 1 205 2
 206:C:/Users/stapi/OneDrive/Desktop/GD32VW553/V1_MQTT_OK/GD32VW55X_Wifi_BLE_SDK/GD32VW55x_RELEASE_V1.0.2/MSDK/wpa_supplicant/src/tls\pkcs1.c **** 	u8 *decrypted;
 654              		.loc 1 206 2
 207:C:/Users/stapi/OneDrive/Desktop/GD32VW553/V1_MQTT_OK/GD32VW55X_Wifi_BLE_SDK/GD32VW55x_RELEASE_V1.0.2/MSDK/wpa_supplicant/src/tls\pkcs1.c **** 	size_t decrypted_len;
 655              		.loc 1 207 2
 208:C:/Users/stapi/OneDrive/Desktop/GD32VW553/V1_MQTT_OK/GD32VW55X_Wifi_BLE_SDK/GD32VW55x_RELEASE_V1.0.2/MSDK/wpa_supplicant/src/tls\pkcs1.c **** 	const u8 *pos, *end, *next, *da_end;
 656              		.loc 1 208 2
 209:C:/Users/stapi/OneDrive/Desktop/GD32VW553/V1_MQTT_OK/GD32VW55X_Wifi_BLE_SDK/GD32VW55x_RELEASE_V1.0.2/MSDK/wpa_supplicant/src/tls\pkcs1.c **** 	struct asn1_hdr hdr;
 657              		.loc 1 209 2
 210:C:/Users/stapi/OneDrive/Desktop/GD32VW553/V1_MQTT_OK/GD32VW55X_Wifi_BLE_SDK/GD32VW55x_RELEASE_V1.0.2/MSDK/wpa_supplicant/src/tls\pkcs1.c **** 	struct asn1_oid oid;
 658              		.loc 1 210 2
 211:C:/Users/stapi/OneDrive/Desktop/GD32VW553/V1_MQTT_OK/GD32VW55X_Wifi_BLE_SDK/GD32VW55x_RELEASE_V1.0.2/MSDK/wpa_supplicant/src/tls\pkcs1.c **** 
 212:C:/Users/stapi/OneDrive/Desktop/GD32VW553/V1_MQTT_OK/GD32VW55X_Wifi_BLE_SDK/GD32VW55x_RELEASE_V1.0.2/MSDK/wpa_supplicant/src/tls\pkcs1.c **** 	decrypted = os_malloc(s_len);
 659              		.loc 1 212 2
 204:C:/Users/stapi/OneDrive/Desktop/GD32VW553/V1_MQTT_OK/GD32VW55X_Wifi_BLE_SDK/GD32VW55x_RELEASE_V1.0.2/MSDK/wpa_supplicant/src/tls\pkcs1.c **** 	int res;
 660              		.loc 1 204 1 is_stmt 0
 661 0008 4D71     		addi	sp,sp,-336
 662              		.cfi_def_cfa_offset 368
 204:C:/Users/stapi/OneDrive/Desktop/GD32VW553/V1_MQTT_OK/GD32VW55X_Wifi_BLE_SDK/GD32VW55x_RELEASE_V1.0.2/MSDK/wpa_supplicant/src/tls\pkcs1.c **** 	int res;
 663              		.loc 1 204 1
 664 000a AA84     		mv	s1,a0
 665              		.loc 1 212 14
 666 000c 3285     		mv	a0,a2
 667              	.LVL69:
 204:C:/Users/stapi/OneDrive/Desktop/GD32VW553/V1_MQTT_OK/GD32VW55X_Wifi_BLE_SDK/GD32VW55x_RELEASE_V1.0.2/MSDK/wpa_supplicant/src/tls\pkcs1.c **** 	int res;
 668              		.loc 1 204 1
 669 000e 2EC6     		sw	a1,12(sp)
 670 0010 B689     		mv	s3,a3
 671 0012 3A8A     		mv	s4,a4
 672 0014 3E89     		mv	s2,a5
 673              		.loc 1 212 14
 674 0016 32C4     		sw	a2,8(sp)
 675 0018 97000000 		call	os_malloc
 675      E7800000 
 676              	.LVL70:
 213:C:/Users/stapi/OneDrive/Desktop/GD32VW553/V1_MQTT_OK/GD32VW55X_Wifi_BLE_SDK/GD32VW55x_RELEASE_V1.0.2/MSDK/wpa_supplicant/src/tls\pkcs1.c **** 	if (decrypted == NULL)
 677              		.loc 1 213 2 is_stmt 1
 678              		.loc 1 213 5 is_stmt 0
 679 0020 75CD     		beq	a0,zero,.L64
 214:C:/Users/stapi/OneDrive/Desktop/GD32VW553/V1_MQTT_OK/GD32VW55X_Wifi_BLE_SDK/GD32VW55x_RELEASE_V1.0.2/MSDK/wpa_supplicant/src/tls\pkcs1.c **** 		return -1;
 215:C:/Users/stapi/OneDrive/Desktop/GD32VW553/V1_MQTT_OK/GD32VW55X_Wifi_BLE_SDK/GD32VW55x_RELEASE_V1.0.2/MSDK/wpa_supplicant/src/tls\pkcs1.c **** 	decrypted_len = s_len;
 680              		.loc 1 215 16
 681 0022 2246     		lw	a2,8(sp)
 216:C:/Users/stapi/OneDrive/Desktop/GD32VW553/V1_MQTT_OK/GD32VW55X_Wifi_BLE_SDK/GD32VW55x_RELEASE_V1.0.2/MSDK/wpa_supplicant/src/tls\pkcs1.c **** 	res = crypto_public_key_decrypt_pkcs1(pk, s, s_len, decrypted,
 682              		.loc 1 216 8
 683 0024 B245     		lw	a1,12(sp)
 684 0026 2A84     		mv	s0,a0
 215:C:/Users/stapi/OneDrive/Desktop/GD32VW553/V1_MQTT_OK/GD32VW55X_Wifi_BLE_SDK/GD32VW55x_RELEASE_V1.0.2/MSDK/wpa_supplicant/src/tls\pkcs1.c **** 	res = crypto_public_key_decrypt_pkcs1(pk, s, s_len, decrypted,
 685              		.loc 1 215 2 is_stmt 1
 686              		.loc 1 216 8 is_stmt 0
 687 0028 AA86     		mv	a3,a0
 688 002a 7808     		addi	a4,sp,28
 689 002c 2685     		mv	a0,s1
 690              	.LVL71:
 215:C:/Users/stapi/OneDrive/Desktop/GD32VW553/V1_MQTT_OK/GD32VW55X_Wifi_BLE_SDK/GD32VW55x_RELEASE_V1.0.2/MSDK/wpa_supplicant/src/tls\pkcs1.c **** 	res = crypto_public_key_decrypt_pkcs1(pk, s, s_len, decrypted,
 691              		.loc 1 215 16
 692 002e 32CE     		sw	a2,28(sp)
 693              		.loc 1 216 2 is_stmt 1
 694              		.loc 1 216 8 is_stmt 0
 695 0030 97000000 		call	crypto_public_key_decrypt_pkcs1
 695      E7800000 
 696              	.LVL72:
 217:C:/Users/stapi/OneDrive/Desktop/GD32VW553/V1_MQTT_OK/GD32VW55X_Wifi_BLE_SDK/GD32VW55x_RELEASE_V1.0.2/MSDK/wpa_supplicant/src/tls\pkcs1.c **** 					      &decrypted_len);
 218:C:/Users/stapi/OneDrive/Desktop/GD32VW553/V1_MQTT_OK/GD32VW55X_Wifi_BLE_SDK/GD32VW55x_RELEASE_V1.0.2/MSDK/wpa_supplicant/src/tls\pkcs1.c **** 	if (res < 0) {
 697              		.loc 1 218 2 is_stmt 1
 698              		.loc 1 218 5 is_stmt 0
 699 0038 63580500 		bge	a0,zero,.L52
 219:C:/Users/stapi/OneDrive/Desktop/GD32VW553/V1_MQTT_OK/GD32VW55X_Wifi_BLE_SDK/GD32VW55x_RELEASE_V1.0.2/MSDK/wpa_supplicant/src/tls\pkcs1.c **** 		wpa_printf(MSG_INFO, "PKCS #1: RSA decrypt failed");
 700              		.loc 1 219 3 is_stmt 1
 701 003c B7050000 		lui	a1,%hi(.LC9)
 702 0040 93850500 		addi	a1,a1,%lo(.LC9)
 703              	.LVL73:
 704              	.L72:
 220:C:/Users/stapi/OneDrive/Desktop/GD32VW553/V1_MQTT_OK/GD32VW55X_Wifi_BLE_SDK/GD32VW55x_RELEASE_V1.0.2/MSDK/wpa_supplicant/src/tls\pkcs1.c **** 		os_free(decrypted);
 221:C:/Users/stapi/OneDrive/Desktop/GD32VW553/V1_MQTT_OK/GD32VW55X_Wifi_BLE_SDK/GD32VW55x_RELEASE_V1.0.2/MSDK/wpa_supplicant/src/tls\pkcs1.c **** 		return -1;
 222:C:/Users/stapi/OneDrive/Desktop/GD32VW553/V1_MQTT_OK/GD32VW55X_Wifi_BLE_SDK/GD32VW55x_RELEASE_V1.0.2/MSDK/wpa_supplicant/src/tls\pkcs1.c **** 	}
 223:C:/Users/stapi/OneDrive/Desktop/GD32VW553/V1_MQTT_OK/GD32VW55X_Wifi_BLE_SDK/GD32VW55x_RELEASE_V1.0.2/MSDK/wpa_supplicant/src/tls\pkcs1.c **** 	wpa_hexdump(MSG_DEBUG, "Decrypted(S)", decrypted, decrypted_len);
 224:C:/Users/stapi/OneDrive/Desktop/GD32VW553/V1_MQTT_OK/GD32VW55X_Wifi_BLE_SDK/GD32VW55x_RELEASE_V1.0.2/MSDK/wpa_supplicant/src/tls\pkcs1.c **** 
 225:C:/Users/stapi/OneDrive/Desktop/GD32VW553/V1_MQTT_OK/GD32VW55X_Wifi_BLE_SDK/GD32VW55x_RELEASE_V1.0.2/MSDK/wpa_supplicant/src/tls\pkcs1.c **** 	/*
 226:C:/Users/stapi/OneDrive/Desktop/GD32VW553/V1_MQTT_OK/GD32VW55X_Wifi_BLE_SDK/GD32VW55x_RELEASE_V1.0.2/MSDK/wpa_supplicant/src/tls\pkcs1.c **** 	 * PKCS #1 v1.5, 10.1.2:
 227:C:/Users/stapi/OneDrive/Desktop/GD32VW553/V1_MQTT_OK/GD32VW55X_Wifi_BLE_SDK/GD32VW55x_RELEASE_V1.0.2/MSDK/wpa_supplicant/src/tls\pkcs1.c **** 	 *
 228:C:/Users/stapi/OneDrive/Desktop/GD32VW553/V1_MQTT_OK/GD32VW55X_Wifi_BLE_SDK/GD32VW55x_RELEASE_V1.0.2/MSDK/wpa_supplicant/src/tls\pkcs1.c **** 	 * DigestInfo ::= SEQUENCE {
 229:C:/Users/stapi/OneDrive/Desktop/GD32VW553/V1_MQTT_OK/GD32VW55X_Wifi_BLE_SDK/GD32VW55x_RELEASE_V1.0.2/MSDK/wpa_supplicant/src/tls\pkcs1.c **** 	 *     digestAlgorithm DigestAlgorithmIdentifier,
 230:C:/Users/stapi/OneDrive/Desktop/GD32VW553/V1_MQTT_OK/GD32VW55X_Wifi_BLE_SDK/GD32VW55x_RELEASE_V1.0.2/MSDK/wpa_supplicant/src/tls\pkcs1.c **** 	 *     digest Digest
 231:C:/Users/stapi/OneDrive/Desktop/GD32VW553/V1_MQTT_OK/GD32VW55X_Wifi_BLE_SDK/GD32VW55x_RELEASE_V1.0.2/MSDK/wpa_supplicant/src/tls\pkcs1.c **** 	 * }
 232:C:/Users/stapi/OneDrive/Desktop/GD32VW553/V1_MQTT_OK/GD32VW55X_Wifi_BLE_SDK/GD32VW55x_RELEASE_V1.0.2/MSDK/wpa_supplicant/src/tls\pkcs1.c **** 	 *
 233:C:/Users/stapi/OneDrive/Desktop/GD32VW553/V1_MQTT_OK/GD32VW55X_Wifi_BLE_SDK/GD32VW55x_RELEASE_V1.0.2/MSDK/wpa_supplicant/src/tls\pkcs1.c **** 	 * DigestAlgorithmIdentifier ::= AlgorithmIdentifier
 234:C:/Users/stapi/OneDrive/Desktop/GD32VW553/V1_MQTT_OK/GD32VW55X_Wifi_BLE_SDK/GD32VW55x_RELEASE_V1.0.2/MSDK/wpa_supplicant/src/tls\pkcs1.c **** 	 *
 235:C:/Users/stapi/OneDrive/Desktop/GD32VW553/V1_MQTT_OK/GD32VW55X_Wifi_BLE_SDK/GD32VW55x_RELEASE_V1.0.2/MSDK/wpa_supplicant/src/tls\pkcs1.c **** 	 * Digest ::= OCTET STRING
 236:C:/Users/stapi/OneDrive/Desktop/GD32VW553/V1_MQTT_OK/GD32VW55X_Wifi_BLE_SDK/GD32VW55x_RELEASE_V1.0.2/MSDK/wpa_supplicant/src/tls\pkcs1.c **** 	 *
 237:C:/Users/stapi/OneDrive/Desktop/GD32VW553/V1_MQTT_OK/GD32VW55X_Wifi_BLE_SDK/GD32VW55x_RELEASE_V1.0.2/MSDK/wpa_supplicant/src/tls\pkcs1.c **** 	 */
 238:C:/Users/stapi/OneDrive/Desktop/GD32VW553/V1_MQTT_OK/GD32VW55X_Wifi_BLE_SDK/GD32VW55x_RELEASE_V1.0.2/MSDK/wpa_supplicant/src/tls\pkcs1.c **** 	if (asn1_get_next(decrypted, decrypted_len, &hdr) < 0 ||
 239:C:/Users/stapi/OneDrive/Desktop/GD32VW553/V1_MQTT_OK/GD32VW55X_Wifi_BLE_SDK/GD32VW55x_RELEASE_V1.0.2/MSDK/wpa_supplicant/src/tls\pkcs1.c **** 	    !asn1_is_sequence(&hdr)) {
 240:C:/Users/stapi/OneDrive/Desktop/GD32VW553/V1_MQTT_OK/GD32VW55X_Wifi_BLE_SDK/GD32VW55x_RELEASE_V1.0.2/MSDK/wpa_supplicant/src/tls\pkcs1.c **** 		asn1_unexpected(&hdr,
 241:C:/Users/stapi/OneDrive/Desktop/GD32VW553/V1_MQTT_OK/GD32VW55X_Wifi_BLE_SDK/GD32VW55x_RELEASE_V1.0.2/MSDK/wpa_supplicant/src/tls\pkcs1.c **** 				"PKCS #1: Expected SEQUENCE (DigestInfo)");
 242:C:/Users/stapi/OneDrive/Desktop/GD32VW553/V1_MQTT_OK/GD32VW55X_Wifi_BLE_SDK/GD32VW55x_RELEASE_V1.0.2/MSDK/wpa_supplicant/src/tls\pkcs1.c **** 		os_free(decrypted);
 243:C:/Users/stapi/OneDrive/Desktop/GD32VW553/V1_MQTT_OK/GD32VW55X_Wifi_BLE_SDK/GD32VW55x_RELEASE_V1.0.2/MSDK/wpa_supplicant/src/tls\pkcs1.c **** 		return -1;
 244:C:/Users/stapi/OneDrive/Desktop/GD32VW553/V1_MQTT_OK/GD32VW55X_Wifi_BLE_SDK/GD32VW55x_RELEASE_V1.0.2/MSDK/wpa_supplicant/src/tls\pkcs1.c **** 	}
 245:C:/Users/stapi/OneDrive/Desktop/GD32VW553/V1_MQTT_OK/GD32VW55X_Wifi_BLE_SDK/GD32VW55x_RELEASE_V1.0.2/MSDK/wpa_supplicant/src/tls\pkcs1.c **** 	wpa_hexdump(MSG_MSGDUMP, "PKCS #1: DigestInfo",
 246:C:/Users/stapi/OneDrive/Desktop/GD32VW553/V1_MQTT_OK/GD32VW55X_Wifi_BLE_SDK/GD32VW55x_RELEASE_V1.0.2/MSDK/wpa_supplicant/src/tls\pkcs1.c **** 		    hdr.payload, hdr.length);
 247:C:/Users/stapi/OneDrive/Desktop/GD32VW553/V1_MQTT_OK/GD32VW55X_Wifi_BLE_SDK/GD32VW55x_RELEASE_V1.0.2/MSDK/wpa_supplicant/src/tls\pkcs1.c **** 
 248:C:/Users/stapi/OneDrive/Desktop/GD32VW553/V1_MQTT_OK/GD32VW55X_Wifi_BLE_SDK/GD32VW55x_RELEASE_V1.0.2/MSDK/wpa_supplicant/src/tls\pkcs1.c **** 	pos = hdr.payload;
 249:C:/Users/stapi/OneDrive/Desktop/GD32VW553/V1_MQTT_OK/GD32VW55X_Wifi_BLE_SDK/GD32VW55x_RELEASE_V1.0.2/MSDK/wpa_supplicant/src/tls\pkcs1.c **** 	end = pos + hdr.length;
 250:C:/Users/stapi/OneDrive/Desktop/GD32VW553/V1_MQTT_OK/GD32VW55X_Wifi_BLE_SDK/GD32VW55x_RELEASE_V1.0.2/MSDK/wpa_supplicant/src/tls\pkcs1.c **** 
 251:C:/Users/stapi/OneDrive/Desktop/GD32VW553/V1_MQTT_OK/GD32VW55X_Wifi_BLE_SDK/GD32VW55x_RELEASE_V1.0.2/MSDK/wpa_supplicant/src/tls\pkcs1.c **** 	/*
 252:C:/Users/stapi/OneDrive/Desktop/GD32VW553/V1_MQTT_OK/GD32VW55X_Wifi_BLE_SDK/GD32VW55x_RELEASE_V1.0.2/MSDK/wpa_supplicant/src/tls\pkcs1.c **** 	 * X.509:
 253:C:/Users/stapi/OneDrive/Desktop/GD32VW553/V1_MQTT_OK/GD32VW55X_Wifi_BLE_SDK/GD32VW55x_RELEASE_V1.0.2/MSDK/wpa_supplicant/src/tls\pkcs1.c **** 	 * AlgorithmIdentifier ::= SEQUENCE {
 254:C:/Users/stapi/OneDrive/Desktop/GD32VW553/V1_MQTT_OK/GD32VW55X_Wifi_BLE_SDK/GD32VW55x_RELEASE_V1.0.2/MSDK/wpa_supplicant/src/tls\pkcs1.c **** 	 *     algorithm            OBJECT IDENTIFIER,
 255:C:/Users/stapi/OneDrive/Desktop/GD32VW553/V1_MQTT_OK/GD32VW55X_Wifi_BLE_SDK/GD32VW55x_RELEASE_V1.0.2/MSDK/wpa_supplicant/src/tls\pkcs1.c **** 	 *     parameters           ANY DEFINED BY algorithm OPTIONAL
 256:C:/Users/stapi/OneDrive/Desktop/GD32VW553/V1_MQTT_OK/GD32VW55X_Wifi_BLE_SDK/GD32VW55x_RELEASE_V1.0.2/MSDK/wpa_supplicant/src/tls\pkcs1.c **** 	 * }
 257:C:/Users/stapi/OneDrive/Desktop/GD32VW553/V1_MQTT_OK/GD32VW55X_Wifi_BLE_SDK/GD32VW55x_RELEASE_V1.0.2/MSDK/wpa_supplicant/src/tls\pkcs1.c **** 	 */
 258:C:/Users/stapi/OneDrive/Desktop/GD32VW553/V1_MQTT_OK/GD32VW55X_Wifi_BLE_SDK/GD32VW55x_RELEASE_V1.0.2/MSDK/wpa_supplicant/src/tls\pkcs1.c **** 
 259:C:/Users/stapi/OneDrive/Desktop/GD32VW553/V1_MQTT_OK/GD32VW55X_Wifi_BLE_SDK/GD32VW55x_RELEASE_V1.0.2/MSDK/wpa_supplicant/src/tls\pkcs1.c **** 	if (asn1_get_next(pos, end - pos, &hdr) < 0 ||
 260:C:/Users/stapi/OneDrive/Desktop/GD32VW553/V1_MQTT_OK/GD32VW55X_Wifi_BLE_SDK/GD32VW55x_RELEASE_V1.0.2/MSDK/wpa_supplicant/src/tls\pkcs1.c **** 	    !asn1_is_sequence(&hdr)) {
 261:C:/Users/stapi/OneDrive/Desktop/GD32VW553/V1_MQTT_OK/GD32VW55X_Wifi_BLE_SDK/GD32VW55x_RELEASE_V1.0.2/MSDK/wpa_supplicant/src/tls\pkcs1.c **** 		asn1_unexpected(&hdr,
 262:C:/Users/stapi/OneDrive/Desktop/GD32VW553/V1_MQTT_OK/GD32VW55X_Wifi_BLE_SDK/GD32VW55x_RELEASE_V1.0.2/MSDK/wpa_supplicant/src/tls\pkcs1.c **** 				"PKCS #1: Expected SEQUENCE (AlgorithmIdentifier)");
 263:C:/Users/stapi/OneDrive/Desktop/GD32VW553/V1_MQTT_OK/GD32VW55X_Wifi_BLE_SDK/GD32VW55x_RELEASE_V1.0.2/MSDK/wpa_supplicant/src/tls\pkcs1.c **** 		os_free(decrypted);
 264:C:/Users/stapi/OneDrive/Desktop/GD32VW553/V1_MQTT_OK/GD32VW55X_Wifi_BLE_SDK/GD32VW55x_RELEASE_V1.0.2/MSDK/wpa_supplicant/src/tls\pkcs1.c **** 		return -1;
 265:C:/Users/stapi/OneDrive/Desktop/GD32VW553/V1_MQTT_OK/GD32VW55X_Wifi_BLE_SDK/GD32VW55x_RELEASE_V1.0.2/MSDK/wpa_supplicant/src/tls\pkcs1.c **** 	}
 266:C:/Users/stapi/OneDrive/Desktop/GD32VW553/V1_MQTT_OK/GD32VW55X_Wifi_BLE_SDK/GD32VW55x_RELEASE_V1.0.2/MSDK/wpa_supplicant/src/tls\pkcs1.c **** 	wpa_hexdump(MSG_MSGDUMP, "PKCS #1: DigestAlgorithmIdentifier",
 267:C:/Users/stapi/OneDrive/Desktop/GD32VW553/V1_MQTT_OK/GD32VW55X_Wifi_BLE_SDK/GD32VW55x_RELEASE_V1.0.2/MSDK/wpa_supplicant/src/tls\pkcs1.c **** 		    hdr.payload, hdr.length);
 268:C:/Users/stapi/OneDrive/Desktop/GD32VW553/V1_MQTT_OK/GD32VW55X_Wifi_BLE_SDK/GD32VW55x_RELEASE_V1.0.2/MSDK/wpa_supplicant/src/tls\pkcs1.c **** 	da_end = hdr.payload + hdr.length;
 269:C:/Users/stapi/OneDrive/Desktop/GD32VW553/V1_MQTT_OK/GD32VW55X_Wifi_BLE_SDK/GD32VW55x_RELEASE_V1.0.2/MSDK/wpa_supplicant/src/tls\pkcs1.c **** 
 270:C:/Users/stapi/OneDrive/Desktop/GD32VW553/V1_MQTT_OK/GD32VW55X_Wifi_BLE_SDK/GD32VW55x_RELEASE_V1.0.2/MSDK/wpa_supplicant/src/tls\pkcs1.c **** 	if (asn1_get_oid(hdr.payload, hdr.length, &oid, &next)) {
 271:C:/Users/stapi/OneDrive/Desktop/GD32VW553/V1_MQTT_OK/GD32VW55X_Wifi_BLE_SDK/GD32VW55x_RELEASE_V1.0.2/MSDK/wpa_supplicant/src/tls\pkcs1.c **** 		wpa_printf(MSG_DEBUG,
 272:C:/Users/stapi/OneDrive/Desktop/GD32VW553/V1_MQTT_OK/GD32VW55X_Wifi_BLE_SDK/GD32VW55x_RELEASE_V1.0.2/MSDK/wpa_supplicant/src/tls\pkcs1.c **** 			   "PKCS #1: Failed to parse digestAlgorithm");
 273:C:/Users/stapi/OneDrive/Desktop/GD32VW553/V1_MQTT_OK/GD32VW55X_Wifi_BLE_SDK/GD32VW55x_RELEASE_V1.0.2/MSDK/wpa_supplicant/src/tls\pkcs1.c **** 		os_free(decrypted);
 274:C:/Users/stapi/OneDrive/Desktop/GD32VW553/V1_MQTT_OK/GD32VW55X_Wifi_BLE_SDK/GD32VW55x_RELEASE_V1.0.2/MSDK/wpa_supplicant/src/tls\pkcs1.c **** 		return -1;
 275:C:/Users/stapi/OneDrive/Desktop/GD32VW553/V1_MQTT_OK/GD32VW55X_Wifi_BLE_SDK/GD32VW55x_RELEASE_V1.0.2/MSDK/wpa_supplicant/src/tls\pkcs1.c **** 	}
 276:C:/Users/stapi/OneDrive/Desktop/GD32VW553/V1_MQTT_OK/GD32VW55X_Wifi_BLE_SDK/GD32VW55x_RELEASE_V1.0.2/MSDK/wpa_supplicant/src/tls\pkcs1.c **** 	wpa_hexdump(MSG_MSGDUMP, "PKCS #1: Digest algorithm parameters",
 277:C:/Users/stapi/OneDrive/Desktop/GD32VW553/V1_MQTT_OK/GD32VW55X_Wifi_BLE_SDK/GD32VW55x_RELEASE_V1.0.2/MSDK/wpa_supplicant/src/tls\pkcs1.c **** 		    next, da_end - next);
 278:C:/Users/stapi/OneDrive/Desktop/GD32VW553/V1_MQTT_OK/GD32VW55X_Wifi_BLE_SDK/GD32VW55x_RELEASE_V1.0.2/MSDK/wpa_supplicant/src/tls\pkcs1.c **** 
 279:C:/Users/stapi/OneDrive/Desktop/GD32VW553/V1_MQTT_OK/GD32VW55X_Wifi_BLE_SDK/GD32VW55x_RELEASE_V1.0.2/MSDK/wpa_supplicant/src/tls\pkcs1.c **** 	/*
 280:C:/Users/stapi/OneDrive/Desktop/GD32VW553/V1_MQTT_OK/GD32VW55X_Wifi_BLE_SDK/GD32VW55x_RELEASE_V1.0.2/MSDK/wpa_supplicant/src/tls\pkcs1.c **** 	 * RFC 5754: The correct encoding for the SHA2 algorithms would be to
 281:C:/Users/stapi/OneDrive/Desktop/GD32VW553/V1_MQTT_OK/GD32VW55X_Wifi_BLE_SDK/GD32VW55x_RELEASE_V1.0.2/MSDK/wpa_supplicant/src/tls\pkcs1.c **** 	 * omit the parameters, but there are implementation that encode these
 282:C:/Users/stapi/OneDrive/Desktop/GD32VW553/V1_MQTT_OK/GD32VW55X_Wifi_BLE_SDK/GD32VW55x_RELEASE_V1.0.2/MSDK/wpa_supplicant/src/tls\pkcs1.c **** 	 * as a NULL element. Allow these two cases and reject anything else.
 283:C:/Users/stapi/OneDrive/Desktop/GD32VW553/V1_MQTT_OK/GD32VW55X_Wifi_BLE_SDK/GD32VW55x_RELEASE_V1.0.2/MSDK/wpa_supplicant/src/tls\pkcs1.c **** 	 */
 284:C:/Users/stapi/OneDrive/Desktop/GD32VW553/V1_MQTT_OK/GD32VW55X_Wifi_BLE_SDK/GD32VW55x_RELEASE_V1.0.2/MSDK/wpa_supplicant/src/tls\pkcs1.c **** 	if (da_end > next &&
 285:C:/Users/stapi/OneDrive/Desktop/GD32VW553/V1_MQTT_OK/GD32VW55X_Wifi_BLE_SDK/GD32VW55x_RELEASE_V1.0.2/MSDK/wpa_supplicant/src/tls\pkcs1.c **** 	    (asn1_get_next(next, da_end - next, &hdr) < 0 ||
 286:C:/Users/stapi/OneDrive/Desktop/GD32VW553/V1_MQTT_OK/GD32VW55X_Wifi_BLE_SDK/GD32VW55x_RELEASE_V1.0.2/MSDK/wpa_supplicant/src/tls\pkcs1.c **** 	     !asn1_is_null(&hdr) ||
 287:C:/Users/stapi/OneDrive/Desktop/GD32VW553/V1_MQTT_OK/GD32VW55X_Wifi_BLE_SDK/GD32VW55x_RELEASE_V1.0.2/MSDK/wpa_supplicant/src/tls\pkcs1.c **** 	     hdr.payload + hdr.length != da_end)) {
 288:C:/Users/stapi/OneDrive/Desktop/GD32VW553/V1_MQTT_OK/GD32VW55X_Wifi_BLE_SDK/GD32VW55x_RELEASE_V1.0.2/MSDK/wpa_supplicant/src/tls\pkcs1.c **** 		wpa_printf(MSG_DEBUG,
 289:C:/Users/stapi/OneDrive/Desktop/GD32VW553/V1_MQTT_OK/GD32VW55X_Wifi_BLE_SDK/GD32VW55x_RELEASE_V1.0.2/MSDK/wpa_supplicant/src/tls\pkcs1.c **** 			   "PKCS #1: Unexpected digest algorithm parameters");
 290:C:/Users/stapi/OneDrive/Desktop/GD32VW553/V1_MQTT_OK/GD32VW55X_Wifi_BLE_SDK/GD32VW55x_RELEASE_V1.0.2/MSDK/wpa_supplicant/src/tls\pkcs1.c **** 		os_free(decrypted);
 291:C:/Users/stapi/OneDrive/Desktop/GD32VW553/V1_MQTT_OK/GD32VW55X_Wifi_BLE_SDK/GD32VW55x_RELEASE_V1.0.2/MSDK/wpa_supplicant/src/tls\pkcs1.c **** 		return -1;
 292:C:/Users/stapi/OneDrive/Desktop/GD32VW553/V1_MQTT_OK/GD32VW55X_Wifi_BLE_SDK/GD32VW55x_RELEASE_V1.0.2/MSDK/wpa_supplicant/src/tls\pkcs1.c **** 	}
 293:C:/Users/stapi/OneDrive/Desktop/GD32VW553/V1_MQTT_OK/GD32VW55X_Wifi_BLE_SDK/GD32VW55x_RELEASE_V1.0.2/MSDK/wpa_supplicant/src/tls\pkcs1.c **** 
 294:C:/Users/stapi/OneDrive/Desktop/GD32VW553/V1_MQTT_OK/GD32VW55X_Wifi_BLE_SDK/GD32VW55x_RELEASE_V1.0.2/MSDK/wpa_supplicant/src/tls\pkcs1.c **** 	if (!asn1_oid_equal(&oid, hash_alg)) {
 295:C:/Users/stapi/OneDrive/Desktop/GD32VW553/V1_MQTT_OK/GD32VW55X_Wifi_BLE_SDK/GD32VW55x_RELEASE_V1.0.2/MSDK/wpa_supplicant/src/tls\pkcs1.c **** 		char txt[100], txt2[100];
 296:C:/Users/stapi/OneDrive/Desktop/GD32VW553/V1_MQTT_OK/GD32VW55X_Wifi_BLE_SDK/GD32VW55x_RELEASE_V1.0.2/MSDK/wpa_supplicant/src/tls\pkcs1.c **** 		asn1_oid_to_str(&oid, txt, sizeof(txt));
 297:C:/Users/stapi/OneDrive/Desktop/GD32VW553/V1_MQTT_OK/GD32VW55X_Wifi_BLE_SDK/GD32VW55x_RELEASE_V1.0.2/MSDK/wpa_supplicant/src/tls\pkcs1.c **** 		asn1_oid_to_str(hash_alg, txt2, sizeof(txt2));
 298:C:/Users/stapi/OneDrive/Desktop/GD32VW553/V1_MQTT_OK/GD32VW55X_Wifi_BLE_SDK/GD32VW55x_RELEASE_V1.0.2/MSDK/wpa_supplicant/src/tls\pkcs1.c **** 		wpa_printf(MSG_DEBUG,
 299:C:/Users/stapi/OneDrive/Desktop/GD32VW553/V1_MQTT_OK/GD32VW55X_Wifi_BLE_SDK/GD32VW55x_RELEASE_V1.0.2/MSDK/wpa_supplicant/src/tls\pkcs1.c **** 			   "PKCS #1: Hash alg OID mismatch: was %s, expected %s",
 300:C:/Users/stapi/OneDrive/Desktop/GD32VW553/V1_MQTT_OK/GD32VW55X_Wifi_BLE_SDK/GD32VW55x_RELEASE_V1.0.2/MSDK/wpa_supplicant/src/tls\pkcs1.c **** 			   txt, txt2);
 301:C:/Users/stapi/OneDrive/Desktop/GD32VW553/V1_MQTT_OK/GD32VW55X_Wifi_BLE_SDK/GD32VW55x_RELEASE_V1.0.2/MSDK/wpa_supplicant/src/tls\pkcs1.c **** 		os_free(decrypted);
 302:C:/Users/stapi/OneDrive/Desktop/GD32VW553/V1_MQTT_OK/GD32VW55X_Wifi_BLE_SDK/GD32VW55x_RELEASE_V1.0.2/MSDK/wpa_supplicant/src/tls\pkcs1.c **** 		return -1;
 303:C:/Users/stapi/OneDrive/Desktop/GD32VW553/V1_MQTT_OK/GD32VW55X_Wifi_BLE_SDK/GD32VW55x_RELEASE_V1.0.2/MSDK/wpa_supplicant/src/tls\pkcs1.c **** 	}
 304:C:/Users/stapi/OneDrive/Desktop/GD32VW553/V1_MQTT_OK/GD32VW55X_Wifi_BLE_SDK/GD32VW55x_RELEASE_V1.0.2/MSDK/wpa_supplicant/src/tls\pkcs1.c **** 
 305:C:/Users/stapi/OneDrive/Desktop/GD32VW553/V1_MQTT_OK/GD32VW55X_Wifi_BLE_SDK/GD32VW55x_RELEASE_V1.0.2/MSDK/wpa_supplicant/src/tls\pkcs1.c **** 	/* Digest ::= OCTET STRING */
 306:C:/Users/stapi/OneDrive/Desktop/GD32VW553/V1_MQTT_OK/GD32VW55X_Wifi_BLE_SDK/GD32VW55x_RELEASE_V1.0.2/MSDK/wpa_supplicant/src/tls\pkcs1.c **** 	pos = da_end;
 307:C:/Users/stapi/OneDrive/Desktop/GD32VW553/V1_MQTT_OK/GD32VW55X_Wifi_BLE_SDK/GD32VW55x_RELEASE_V1.0.2/MSDK/wpa_supplicant/src/tls\pkcs1.c **** 
 308:C:/Users/stapi/OneDrive/Desktop/GD32VW553/V1_MQTT_OK/GD32VW55X_Wifi_BLE_SDK/GD32VW55x_RELEASE_V1.0.2/MSDK/wpa_supplicant/src/tls\pkcs1.c **** 	if (asn1_get_next(pos, end - pos, &hdr) < 0 ||
 309:C:/Users/stapi/OneDrive/Desktop/GD32VW553/V1_MQTT_OK/GD32VW55X_Wifi_BLE_SDK/GD32VW55x_RELEASE_V1.0.2/MSDK/wpa_supplicant/src/tls\pkcs1.c **** 	    !asn1_is_octetstring(&hdr)) {
 310:C:/Users/stapi/OneDrive/Desktop/GD32VW553/V1_MQTT_OK/GD32VW55X_Wifi_BLE_SDK/GD32VW55x_RELEASE_V1.0.2/MSDK/wpa_supplicant/src/tls\pkcs1.c **** 		asn1_unexpected(&hdr,
 311:C:/Users/stapi/OneDrive/Desktop/GD32VW553/V1_MQTT_OK/GD32VW55X_Wifi_BLE_SDK/GD32VW55x_RELEASE_V1.0.2/MSDK/wpa_supplicant/src/tls\pkcs1.c **** 				"PKCS #1: Expected OCTETSTRING (Digest)");
 312:C:/Users/stapi/OneDrive/Desktop/GD32VW553/V1_MQTT_OK/GD32VW55X_Wifi_BLE_SDK/GD32VW55x_RELEASE_V1.0.2/MSDK/wpa_supplicant/src/tls\pkcs1.c **** 		os_free(decrypted);
 313:C:/Users/stapi/OneDrive/Desktop/GD32VW553/V1_MQTT_OK/GD32VW55X_Wifi_BLE_SDK/GD32VW55x_RELEASE_V1.0.2/MSDK/wpa_supplicant/src/tls\pkcs1.c **** 		return -1;
 314:C:/Users/stapi/OneDrive/Desktop/GD32VW553/V1_MQTT_OK/GD32VW55X_Wifi_BLE_SDK/GD32VW55x_RELEASE_V1.0.2/MSDK/wpa_supplicant/src/tls\pkcs1.c **** 	}
 315:C:/Users/stapi/OneDrive/Desktop/GD32VW553/V1_MQTT_OK/GD32VW55X_Wifi_BLE_SDK/GD32VW55x_RELEASE_V1.0.2/MSDK/wpa_supplicant/src/tls\pkcs1.c **** 	wpa_hexdump(MSG_MSGDUMP, "PKCS #1: Decrypted Digest",
 316:C:/Users/stapi/OneDrive/Desktop/GD32VW553/V1_MQTT_OK/GD32VW55X_Wifi_BLE_SDK/GD32VW55x_RELEASE_V1.0.2/MSDK/wpa_supplicant/src/tls\pkcs1.c **** 		    hdr.payload, hdr.length);
 317:C:/Users/stapi/OneDrive/Desktop/GD32VW553/V1_MQTT_OK/GD32VW55X_Wifi_BLE_SDK/GD32VW55x_RELEASE_V1.0.2/MSDK/wpa_supplicant/src/tls\pkcs1.c **** 
 318:C:/Users/stapi/OneDrive/Desktop/GD32VW553/V1_MQTT_OK/GD32VW55X_Wifi_BLE_SDK/GD32VW55x_RELEASE_V1.0.2/MSDK/wpa_supplicant/src/tls\pkcs1.c **** 	if (hdr.length != hash_len ||
 319:C:/Users/stapi/OneDrive/Desktop/GD32VW553/V1_MQTT_OK/GD32VW55X_Wifi_BLE_SDK/GD32VW55x_RELEASE_V1.0.2/MSDK/wpa_supplicant/src/tls\pkcs1.c **** 	    os_memcmp_const(hdr.payload, hash, hdr.length) != 0) {
 320:C:/Users/stapi/OneDrive/Desktop/GD32VW553/V1_MQTT_OK/GD32VW55X_Wifi_BLE_SDK/GD32VW55x_RELEASE_V1.0.2/MSDK/wpa_supplicant/src/tls\pkcs1.c **** 		wpa_printf(MSG_INFO, "PKCS #1: Digest value does not match calculated hash");
 705              		.loc 1 320 3 is_stmt 0
 706 0044 0D45     		li	a0,3
 707 0046 D1A0     		j	.L70
 708              	.LVL74:
 709              	.L52:
 223:C:/Users/stapi/OneDrive/Desktop/GD32VW553/V1_MQTT_OK/GD32VW55X_Wifi_BLE_SDK/GD32VW55x_RELEASE_V1.0.2/MSDK/wpa_supplicant/src/tls\pkcs1.c **** 
 710              		.loc 1 223 2 is_stmt 1
 711 0048 F246     		lw	a3,28(sp)
 712 004a B7050000 		lui	a1,%hi(.LC10)
 713 004e 2286     		mv	a2,s0
 714 0050 93850500 		addi	a1,a1,%lo(.LC10)
 715 0054 0945     		li	a0,2
 716              	.LVL75:
 717 0056 97000000 		call	wpa_hexdump
 717      E7800000 
 718              	.LVL76:
 238:C:/Users/stapi/OneDrive/Desktop/GD32VW553/V1_MQTT_OK/GD32VW55X_Wifi_BLE_SDK/GD32VW55x_RELEASE_V1.0.2/MSDK/wpa_supplicant/src/tls\pkcs1.c **** 	    !asn1_is_sequence(&hdr)) {
 719              		.loc 1 238 2
 238:C:/Users/stapi/OneDrive/Desktop/GD32VW553/V1_MQTT_OK/GD32VW55X_Wifi_BLE_SDK/GD32VW55x_RELEASE_V1.0.2/MSDK/wpa_supplicant/src/tls\pkcs1.c **** 	    !asn1_is_sequence(&hdr)) {
 720              		.loc 1 238 6 is_stmt 0
 721 005e F245     		lw	a1,28(sp)
 722 0060 5010     		addi	a2,sp,36
 723 0062 2285     		mv	a0,s0
 724 0064 97000000 		call	asn1_get_next
 724      E7800000 
 725              	.LVL77:
 238:C:/Users/stapi/OneDrive/Desktop/GD32VW553/V1_MQTT_OK/GD32VW55X_Wifi_BLE_SDK/GD32VW55x_RELEASE_V1.0.2/MSDK/wpa_supplicant/src/tls\pkcs1.c **** 	    !asn1_is_sequence(&hdr)) {
 726              		.loc 1 238 5
 727 006c 63440504 		blt	a0,zero,.L53
 728              	.LVL78:
 729              	.LBB21:
 730              	.LBB22:
 731              		.file 2 "C:/Users/stapi/OneDrive/Desktop/GD32VW553/V1_MQTT_OK/GD32VW55X_Wifi_BLE_SDK/GD32VW55x_REL
   1:C:/Users/stapi/OneDrive/Desktop/GD32VW553/V1_MQTT_OK/GD32VW55X_Wifi_BLE_SDK/GD32VW55x_RELEASE_V1.0.2/MSDK/wpa_supplicant/src/tls\asn1.h **** /*
   2:C:/Users/stapi/OneDrive/Desktop/GD32VW553/V1_MQTT_OK/GD32VW55X_Wifi_BLE_SDK/GD32VW55x_RELEASE_V1.0.2/MSDK/wpa_supplicant/src/tls\asn1.h ****  * ASN.1 DER parsing
   3:C:/Users/stapi/OneDrive/Desktop/GD32VW553/V1_MQTT_OK/GD32VW55X_Wifi_BLE_SDK/GD32VW55x_RELEASE_V1.0.2/MSDK/wpa_supplicant/src/tls\asn1.h ****  * Copyright (c) 2006, Jouni Malinen <j@w1.fi>
   4:C:/Users/stapi/OneDrive/Desktop/GD32VW553/V1_MQTT_OK/GD32VW55X_Wifi_BLE_SDK/GD32VW55x_RELEASE_V1.0.2/MSDK/wpa_supplicant/src/tls\asn1.h ****  *
   5:C:/Users/stapi/OneDrive/Desktop/GD32VW553/V1_MQTT_OK/GD32VW55X_Wifi_BLE_SDK/GD32VW55x_RELEASE_V1.0.2/MSDK/wpa_supplicant/src/tls\asn1.h ****  * This software may be distributed under the terms of the BSD license.
   6:C:/Users/stapi/OneDrive/Desktop/GD32VW553/V1_MQTT_OK/GD32VW55X_Wifi_BLE_SDK/GD32VW55x_RELEASE_V1.0.2/MSDK/wpa_supplicant/src/tls\asn1.h ****  * See README for more details.
   7:C:/Users/stapi/OneDrive/Desktop/GD32VW553/V1_MQTT_OK/GD32VW55X_Wifi_BLE_SDK/GD32VW55x_RELEASE_V1.0.2/MSDK/wpa_supplicant/src/tls\asn1.h ****  */
   8:C:/Users/stapi/OneDrive/Desktop/GD32VW553/V1_MQTT_OK/GD32VW55X_Wifi_BLE_SDK/GD32VW55x_RELEASE_V1.0.2/MSDK/wpa_supplicant/src/tls\asn1.h **** 
   9:C:/Users/stapi/OneDrive/Desktop/GD32VW553/V1_MQTT_OK/GD32VW55X_Wifi_BLE_SDK/GD32VW55x_RELEASE_V1.0.2/MSDK/wpa_supplicant/src/tls\asn1.h **** #ifndef ASN1_H
  10:C:/Users/stapi/OneDrive/Desktop/GD32VW553/V1_MQTT_OK/GD32VW55X_Wifi_BLE_SDK/GD32VW55x_RELEASE_V1.0.2/MSDK/wpa_supplicant/src/tls\asn1.h **** #define ASN1_H
  11:C:/Users/stapi/OneDrive/Desktop/GD32VW553/V1_MQTT_OK/GD32VW55X_Wifi_BLE_SDK/GD32VW55x_RELEASE_V1.0.2/MSDK/wpa_supplicant/src/tls\asn1.h **** 
  12:C:/Users/stapi/OneDrive/Desktop/GD32VW553/V1_MQTT_OK/GD32VW55X_Wifi_BLE_SDK/GD32VW55x_RELEASE_V1.0.2/MSDK/wpa_supplicant/src/tls\asn1.h **** #define ASN1_TAG_EOC		0x00 /* not used with DER */
  13:C:/Users/stapi/OneDrive/Desktop/GD32VW553/V1_MQTT_OK/GD32VW55X_Wifi_BLE_SDK/GD32VW55x_RELEASE_V1.0.2/MSDK/wpa_supplicant/src/tls\asn1.h **** #define ASN1_TAG_BOOLEAN	0x01
  14:C:/Users/stapi/OneDrive/Desktop/GD32VW553/V1_MQTT_OK/GD32VW55X_Wifi_BLE_SDK/GD32VW55x_RELEASE_V1.0.2/MSDK/wpa_supplicant/src/tls\asn1.h **** #define ASN1_TAG_INTEGER	0x02
  15:C:/Users/stapi/OneDrive/Desktop/GD32VW553/V1_MQTT_OK/GD32VW55X_Wifi_BLE_SDK/GD32VW55x_RELEASE_V1.0.2/MSDK/wpa_supplicant/src/tls\asn1.h **** #define ASN1_TAG_BITSTRING	0x03
  16:C:/Users/stapi/OneDrive/Desktop/GD32VW553/V1_MQTT_OK/GD32VW55X_Wifi_BLE_SDK/GD32VW55x_RELEASE_V1.0.2/MSDK/wpa_supplicant/src/tls\asn1.h **** #define ASN1_TAG_OCTETSTRING	0x04
  17:C:/Users/stapi/OneDrive/Desktop/GD32VW553/V1_MQTT_OK/GD32VW55X_Wifi_BLE_SDK/GD32VW55x_RELEASE_V1.0.2/MSDK/wpa_supplicant/src/tls\asn1.h **** #define ASN1_TAG_NULL		0x05
  18:C:/Users/stapi/OneDrive/Desktop/GD32VW553/V1_MQTT_OK/GD32VW55X_Wifi_BLE_SDK/GD32VW55x_RELEASE_V1.0.2/MSDK/wpa_supplicant/src/tls\asn1.h **** #define ASN1_TAG_OID		0x06
  19:C:/Users/stapi/OneDrive/Desktop/GD32VW553/V1_MQTT_OK/GD32VW55X_Wifi_BLE_SDK/GD32VW55x_RELEASE_V1.0.2/MSDK/wpa_supplicant/src/tls\asn1.h **** #define ASN1_TAG_OBJECT_DESCRIPTOR	0x07 /* not yet parsed */
  20:C:/Users/stapi/OneDrive/Desktop/GD32VW553/V1_MQTT_OK/GD32VW55X_Wifi_BLE_SDK/GD32VW55x_RELEASE_V1.0.2/MSDK/wpa_supplicant/src/tls\asn1.h **** #define ASN1_TAG_EXTERNAL	0x08 /* not yet parsed */
  21:C:/Users/stapi/OneDrive/Desktop/GD32VW553/V1_MQTT_OK/GD32VW55X_Wifi_BLE_SDK/GD32VW55x_RELEASE_V1.0.2/MSDK/wpa_supplicant/src/tls\asn1.h **** #define ASN1_TAG_REAL		0x09 /* not yet parsed */
  22:C:/Users/stapi/OneDrive/Desktop/GD32VW553/V1_MQTT_OK/GD32VW55X_Wifi_BLE_SDK/GD32VW55x_RELEASE_V1.0.2/MSDK/wpa_supplicant/src/tls\asn1.h **** #define ASN1_TAG_ENUMERATED	0x0A /* not yet parsed */
  23:C:/Users/stapi/OneDrive/Desktop/GD32VW553/V1_MQTT_OK/GD32VW55X_Wifi_BLE_SDK/GD32VW55x_RELEASE_V1.0.2/MSDK/wpa_supplicant/src/tls\asn1.h **** #define ASN1_TAG_EMBEDDED_PDV	0x0B /* not yet parsed */
  24:C:/Users/stapi/OneDrive/Desktop/GD32VW553/V1_MQTT_OK/GD32VW55X_Wifi_BLE_SDK/GD32VW55x_RELEASE_V1.0.2/MSDK/wpa_supplicant/src/tls\asn1.h **** #define ASN1_TAG_UTF8STRING	0x0C /* not yet parsed */
  25:C:/Users/stapi/OneDrive/Desktop/GD32VW553/V1_MQTT_OK/GD32VW55X_Wifi_BLE_SDK/GD32VW55x_RELEASE_V1.0.2/MSDK/wpa_supplicant/src/tls\asn1.h **** #define ANS1_TAG_RELATIVE_OID	0x0D
  26:C:/Users/stapi/OneDrive/Desktop/GD32VW553/V1_MQTT_OK/GD32VW55X_Wifi_BLE_SDK/GD32VW55x_RELEASE_V1.0.2/MSDK/wpa_supplicant/src/tls\asn1.h **** #define ASN1_TAG_TIME		0x0E
  27:C:/Users/stapi/OneDrive/Desktop/GD32VW553/V1_MQTT_OK/GD32VW55X_Wifi_BLE_SDK/GD32VW55x_RELEASE_V1.0.2/MSDK/wpa_supplicant/src/tls\asn1.h **** #define ASN1_TAG_SEQUENCE	0x10 /* shall be constructed */
  28:C:/Users/stapi/OneDrive/Desktop/GD32VW553/V1_MQTT_OK/GD32VW55X_Wifi_BLE_SDK/GD32VW55x_RELEASE_V1.0.2/MSDK/wpa_supplicant/src/tls\asn1.h **** #define ASN1_TAG_SET		0x11
  29:C:/Users/stapi/OneDrive/Desktop/GD32VW553/V1_MQTT_OK/GD32VW55X_Wifi_BLE_SDK/GD32VW55x_RELEASE_V1.0.2/MSDK/wpa_supplicant/src/tls\asn1.h **** #define ASN1_TAG_NUMERICSTRING	0x12 /* not yet parsed */
  30:C:/Users/stapi/OneDrive/Desktop/GD32VW553/V1_MQTT_OK/GD32VW55X_Wifi_BLE_SDK/GD32VW55x_RELEASE_V1.0.2/MSDK/wpa_supplicant/src/tls\asn1.h **** #define ASN1_TAG_PRINTABLESTRING	0x13
  31:C:/Users/stapi/OneDrive/Desktop/GD32VW553/V1_MQTT_OK/GD32VW55X_Wifi_BLE_SDK/GD32VW55x_RELEASE_V1.0.2/MSDK/wpa_supplicant/src/tls\asn1.h **** #define ASN1_TAG_T61STRING	0x14 /* not yet parsed */
  32:C:/Users/stapi/OneDrive/Desktop/GD32VW553/V1_MQTT_OK/GD32VW55X_Wifi_BLE_SDK/GD32VW55x_RELEASE_V1.0.2/MSDK/wpa_supplicant/src/tls\asn1.h **** #define ASN1_TAG_VIDEOTEXSTRING	0x15 /* not yet parsed */
  33:C:/Users/stapi/OneDrive/Desktop/GD32VW553/V1_MQTT_OK/GD32VW55X_Wifi_BLE_SDK/GD32VW55x_RELEASE_V1.0.2/MSDK/wpa_supplicant/src/tls\asn1.h **** #define ASN1_TAG_IA5STRING	0x16
  34:C:/Users/stapi/OneDrive/Desktop/GD32VW553/V1_MQTT_OK/GD32VW55X_Wifi_BLE_SDK/GD32VW55x_RELEASE_V1.0.2/MSDK/wpa_supplicant/src/tls\asn1.h **** #define ASN1_TAG_UTCTIME	0x17
  35:C:/Users/stapi/OneDrive/Desktop/GD32VW553/V1_MQTT_OK/GD32VW55X_Wifi_BLE_SDK/GD32VW55x_RELEASE_V1.0.2/MSDK/wpa_supplicant/src/tls\asn1.h **** #define ASN1_TAG_GENERALIZEDTIME	0x18 /* not yet parsed */
  36:C:/Users/stapi/OneDrive/Desktop/GD32VW553/V1_MQTT_OK/GD32VW55X_Wifi_BLE_SDK/GD32VW55x_RELEASE_V1.0.2/MSDK/wpa_supplicant/src/tls\asn1.h **** #define ASN1_TAG_GRAPHICSTRING	0x19 /* not yet parsed */
  37:C:/Users/stapi/OneDrive/Desktop/GD32VW553/V1_MQTT_OK/GD32VW55X_Wifi_BLE_SDK/GD32VW55x_RELEASE_V1.0.2/MSDK/wpa_supplicant/src/tls\asn1.h **** #define ASN1_TAG_VISIBLESTRING	0x1A
  38:C:/Users/stapi/OneDrive/Desktop/GD32VW553/V1_MQTT_OK/GD32VW55X_Wifi_BLE_SDK/GD32VW55x_RELEASE_V1.0.2/MSDK/wpa_supplicant/src/tls\asn1.h **** #define ASN1_TAG_GENERALSTRING	0x1B /* not yet parsed */
  39:C:/Users/stapi/OneDrive/Desktop/GD32VW553/V1_MQTT_OK/GD32VW55X_Wifi_BLE_SDK/GD32VW55x_RELEASE_V1.0.2/MSDK/wpa_supplicant/src/tls\asn1.h **** #define ASN1_TAG_UNIVERSALSTRING	0x1C /* not yet parsed */
  40:C:/Users/stapi/OneDrive/Desktop/GD32VW553/V1_MQTT_OK/GD32VW55X_Wifi_BLE_SDK/GD32VW55x_RELEASE_V1.0.2/MSDK/wpa_supplicant/src/tls\asn1.h **** #define ASN1_TAG_CHARACTERSTRING	0x1D /* not yet parsed */
  41:C:/Users/stapi/OneDrive/Desktop/GD32VW553/V1_MQTT_OK/GD32VW55X_Wifi_BLE_SDK/GD32VW55x_RELEASE_V1.0.2/MSDK/wpa_supplicant/src/tls\asn1.h **** #define ASN1_TAG_BMPSTRING	0x1E /* not yet parsed */
  42:C:/Users/stapi/OneDrive/Desktop/GD32VW553/V1_MQTT_OK/GD32VW55X_Wifi_BLE_SDK/GD32VW55x_RELEASE_V1.0.2/MSDK/wpa_supplicant/src/tls\asn1.h **** 
  43:C:/Users/stapi/OneDrive/Desktop/GD32VW553/V1_MQTT_OK/GD32VW55X_Wifi_BLE_SDK/GD32VW55x_RELEASE_V1.0.2/MSDK/wpa_supplicant/src/tls\asn1.h **** #define ASN1_CLASS_UNIVERSAL		0
  44:C:/Users/stapi/OneDrive/Desktop/GD32VW553/V1_MQTT_OK/GD32VW55X_Wifi_BLE_SDK/GD32VW55x_RELEASE_V1.0.2/MSDK/wpa_supplicant/src/tls\asn1.h **** #define ASN1_CLASS_APPLICATION		1
  45:C:/Users/stapi/OneDrive/Desktop/GD32VW553/V1_MQTT_OK/GD32VW55X_Wifi_BLE_SDK/GD32VW55x_RELEASE_V1.0.2/MSDK/wpa_supplicant/src/tls\asn1.h **** #define ASN1_CLASS_CONTEXT_SPECIFIC	2
  46:C:/Users/stapi/OneDrive/Desktop/GD32VW553/V1_MQTT_OK/GD32VW55X_Wifi_BLE_SDK/GD32VW55x_RELEASE_V1.0.2/MSDK/wpa_supplicant/src/tls\asn1.h **** #define ASN1_CLASS_PRIVATE		3
  47:C:/Users/stapi/OneDrive/Desktop/GD32VW553/V1_MQTT_OK/GD32VW55X_Wifi_BLE_SDK/GD32VW55x_RELEASE_V1.0.2/MSDK/wpa_supplicant/src/tls\asn1.h **** 
  48:C:/Users/stapi/OneDrive/Desktop/GD32VW553/V1_MQTT_OK/GD32VW55X_Wifi_BLE_SDK/GD32VW55x_RELEASE_V1.0.2/MSDK/wpa_supplicant/src/tls\asn1.h **** 
  49:C:/Users/stapi/OneDrive/Desktop/GD32VW553/V1_MQTT_OK/GD32VW55X_Wifi_BLE_SDK/GD32VW55x_RELEASE_V1.0.2/MSDK/wpa_supplicant/src/tls\asn1.h **** struct asn1_hdr {
  50:C:/Users/stapi/OneDrive/Desktop/GD32VW553/V1_MQTT_OK/GD32VW55X_Wifi_BLE_SDK/GD32VW55x_RELEASE_V1.0.2/MSDK/wpa_supplicant/src/tls\asn1.h **** 	const u8 *payload;
  51:C:/Users/stapi/OneDrive/Desktop/GD32VW553/V1_MQTT_OK/GD32VW55X_Wifi_BLE_SDK/GD32VW55x_RELEASE_V1.0.2/MSDK/wpa_supplicant/src/tls\asn1.h **** 	u8 identifier, class, constructed;
  52:C:/Users/stapi/OneDrive/Desktop/GD32VW553/V1_MQTT_OK/GD32VW55X_Wifi_BLE_SDK/GD32VW55x_RELEASE_V1.0.2/MSDK/wpa_supplicant/src/tls\asn1.h **** 	unsigned int tag, length;
  53:C:/Users/stapi/OneDrive/Desktop/GD32VW553/V1_MQTT_OK/GD32VW55X_Wifi_BLE_SDK/GD32VW55x_RELEASE_V1.0.2/MSDK/wpa_supplicant/src/tls\asn1.h **** };
  54:C:/Users/stapi/OneDrive/Desktop/GD32VW553/V1_MQTT_OK/GD32VW55X_Wifi_BLE_SDK/GD32VW55x_RELEASE_V1.0.2/MSDK/wpa_supplicant/src/tls\asn1.h **** 
  55:C:/Users/stapi/OneDrive/Desktop/GD32VW553/V1_MQTT_OK/GD32VW55X_Wifi_BLE_SDK/GD32VW55x_RELEASE_V1.0.2/MSDK/wpa_supplicant/src/tls\asn1.h **** #define ASN1_MAX_OID_LEN 20
  56:C:/Users/stapi/OneDrive/Desktop/GD32VW553/V1_MQTT_OK/GD32VW55X_Wifi_BLE_SDK/GD32VW55x_RELEASE_V1.0.2/MSDK/wpa_supplicant/src/tls\asn1.h **** struct asn1_oid {
  57:C:/Users/stapi/OneDrive/Desktop/GD32VW553/V1_MQTT_OK/GD32VW55X_Wifi_BLE_SDK/GD32VW55x_RELEASE_V1.0.2/MSDK/wpa_supplicant/src/tls\asn1.h **** 	unsigned long oid[ASN1_MAX_OID_LEN];
  58:C:/Users/stapi/OneDrive/Desktop/GD32VW553/V1_MQTT_OK/GD32VW55X_Wifi_BLE_SDK/GD32VW55x_RELEASE_V1.0.2/MSDK/wpa_supplicant/src/tls\asn1.h **** 	size_t len;
  59:C:/Users/stapi/OneDrive/Desktop/GD32VW553/V1_MQTT_OK/GD32VW55X_Wifi_BLE_SDK/GD32VW55x_RELEASE_V1.0.2/MSDK/wpa_supplicant/src/tls\asn1.h **** };
  60:C:/Users/stapi/OneDrive/Desktop/GD32VW553/V1_MQTT_OK/GD32VW55X_Wifi_BLE_SDK/GD32VW55x_RELEASE_V1.0.2/MSDK/wpa_supplicant/src/tls\asn1.h **** 
  61:C:/Users/stapi/OneDrive/Desktop/GD32VW553/V1_MQTT_OK/GD32VW55X_Wifi_BLE_SDK/GD32VW55x_RELEASE_V1.0.2/MSDK/wpa_supplicant/src/tls\asn1.h **** 
  62:C:/Users/stapi/OneDrive/Desktop/GD32VW553/V1_MQTT_OK/GD32VW55X_Wifi_BLE_SDK/GD32VW55x_RELEASE_V1.0.2/MSDK/wpa_supplicant/src/tls\asn1.h **** int asn1_get_next(const u8 *buf, size_t len, struct asn1_hdr *hdr);
  63:C:/Users/stapi/OneDrive/Desktop/GD32VW553/V1_MQTT_OK/GD32VW55X_Wifi_BLE_SDK/GD32VW55x_RELEASE_V1.0.2/MSDK/wpa_supplicant/src/tls\asn1.h **** void asn1_print_hdr(const struct asn1_hdr *hdr, const char *title);
  64:C:/Users/stapi/OneDrive/Desktop/GD32VW553/V1_MQTT_OK/GD32VW55X_Wifi_BLE_SDK/GD32VW55x_RELEASE_V1.0.2/MSDK/wpa_supplicant/src/tls\asn1.h **** void asn1_unexpected(const struct asn1_hdr *hdr, const char *title);
  65:C:/Users/stapi/OneDrive/Desktop/GD32VW553/V1_MQTT_OK/GD32VW55X_Wifi_BLE_SDK/GD32VW55x_RELEASE_V1.0.2/MSDK/wpa_supplicant/src/tls\asn1.h **** int asn1_parse_oid(const u8 *buf, size_t len, struct asn1_oid *oid);
  66:C:/Users/stapi/OneDrive/Desktop/GD32VW553/V1_MQTT_OK/GD32VW55X_Wifi_BLE_SDK/GD32VW55x_RELEASE_V1.0.2/MSDK/wpa_supplicant/src/tls\asn1.h **** int asn1_get_oid(const u8 *buf, size_t len, struct asn1_oid *oid,
  67:C:/Users/stapi/OneDrive/Desktop/GD32VW553/V1_MQTT_OK/GD32VW55X_Wifi_BLE_SDK/GD32VW55x_RELEASE_V1.0.2/MSDK/wpa_supplicant/src/tls\asn1.h **** 		 const u8 **next);
  68:C:/Users/stapi/OneDrive/Desktop/GD32VW553/V1_MQTT_OK/GD32VW55X_Wifi_BLE_SDK/GD32VW55x_RELEASE_V1.0.2/MSDK/wpa_supplicant/src/tls\asn1.h **** void asn1_oid_to_str(const struct asn1_oid *oid, char *buf, size_t len);
  69:C:/Users/stapi/OneDrive/Desktop/GD32VW553/V1_MQTT_OK/GD32VW55X_Wifi_BLE_SDK/GD32VW55x_RELEASE_V1.0.2/MSDK/wpa_supplicant/src/tls\asn1.h **** unsigned long asn1_bit_string_to_long(const u8 *buf, size_t len);
  70:C:/Users/stapi/OneDrive/Desktop/GD32VW553/V1_MQTT_OK/GD32VW55X_Wifi_BLE_SDK/GD32VW55x_RELEASE_V1.0.2/MSDK/wpa_supplicant/src/tls\asn1.h **** int asn1_oid_equal(const struct asn1_oid *a, const struct asn1_oid *b);
  71:C:/Users/stapi/OneDrive/Desktop/GD32VW553/V1_MQTT_OK/GD32VW55X_Wifi_BLE_SDK/GD32VW55x_RELEASE_V1.0.2/MSDK/wpa_supplicant/src/tls\asn1.h **** int asn1_get_integer(const u8 *buf, size_t len, int *integer, const u8 **next);
  72:C:/Users/stapi/OneDrive/Desktop/GD32VW553/V1_MQTT_OK/GD32VW55X_Wifi_BLE_SDK/GD32VW55x_RELEASE_V1.0.2/MSDK/wpa_supplicant/src/tls\asn1.h **** int asn1_get_sequence(const u8 *buf, size_t len, struct asn1_hdr *hdr,
  73:C:/Users/stapi/OneDrive/Desktop/GD32VW553/V1_MQTT_OK/GD32VW55X_Wifi_BLE_SDK/GD32VW55x_RELEASE_V1.0.2/MSDK/wpa_supplicant/src/tls\asn1.h **** 		      const u8 **next);
  74:C:/Users/stapi/OneDrive/Desktop/GD32VW553/V1_MQTT_OK/GD32VW55X_Wifi_BLE_SDK/GD32VW55x_RELEASE_V1.0.2/MSDK/wpa_supplicant/src/tls\asn1.h **** int asn1_get_alg_id(const u8 *buf, size_t len, struct asn1_oid *oid,
  75:C:/Users/stapi/OneDrive/Desktop/GD32VW553/V1_MQTT_OK/GD32VW55X_Wifi_BLE_SDK/GD32VW55x_RELEASE_V1.0.2/MSDK/wpa_supplicant/src/tls\asn1.h **** 		    const u8 **params, size_t *params_len, const u8 **next);
  76:C:/Users/stapi/OneDrive/Desktop/GD32VW553/V1_MQTT_OK/GD32VW55X_Wifi_BLE_SDK/GD32VW55x_RELEASE_V1.0.2/MSDK/wpa_supplicant/src/tls\asn1.h **** void asn1_put_integer(struct wpabuf *buf, int val);
  77:C:/Users/stapi/OneDrive/Desktop/GD32VW553/V1_MQTT_OK/GD32VW55X_Wifi_BLE_SDK/GD32VW55x_RELEASE_V1.0.2/MSDK/wpa_supplicant/src/tls\asn1.h **** void asn1_put_octet_string(struct wpabuf *buf, const struct wpabuf *val);
  78:C:/Users/stapi/OneDrive/Desktop/GD32VW553/V1_MQTT_OK/GD32VW55X_Wifi_BLE_SDK/GD32VW55x_RELEASE_V1.0.2/MSDK/wpa_supplicant/src/tls\asn1.h **** void asn1_put_oid(struct wpabuf *buf, const struct asn1_oid *oid);
  79:C:/Users/stapi/OneDrive/Desktop/GD32VW553/V1_MQTT_OK/GD32VW55X_Wifi_BLE_SDK/GD32VW55x_RELEASE_V1.0.2/MSDK/wpa_supplicant/src/tls\asn1.h **** void asn1_put_hdr(struct wpabuf *buf, u8 class, int constructed, u8 tag,
  80:C:/Users/stapi/OneDrive/Desktop/GD32VW553/V1_MQTT_OK/GD32VW55X_Wifi_BLE_SDK/GD32VW55x_RELEASE_V1.0.2/MSDK/wpa_supplicant/src/tls\asn1.h **** 		  size_t len);
  81:C:/Users/stapi/OneDrive/Desktop/GD32VW553/V1_MQTT_OK/GD32VW55X_Wifi_BLE_SDK/GD32VW55x_RELEASE_V1.0.2/MSDK/wpa_supplicant/src/tls\asn1.h **** void asn1_put_sequence(struct wpabuf *buf, const struct wpabuf *payload);
  82:C:/Users/stapi/OneDrive/Desktop/GD32VW553/V1_MQTT_OK/GD32VW55X_Wifi_BLE_SDK/GD32VW55x_RELEASE_V1.0.2/MSDK/wpa_supplicant/src/tls\asn1.h **** void asn1_put_set(struct wpabuf *buf, const struct wpabuf *payload);
  83:C:/Users/stapi/OneDrive/Desktop/GD32VW553/V1_MQTT_OK/GD32VW55X_Wifi_BLE_SDK/GD32VW55x_RELEASE_V1.0.2/MSDK/wpa_supplicant/src/tls\asn1.h **** void asn1_put_utf8string(struct wpabuf *buf, const char *val);
  84:C:/Users/stapi/OneDrive/Desktop/GD32VW553/V1_MQTT_OK/GD32VW55X_Wifi_BLE_SDK/GD32VW55x_RELEASE_V1.0.2/MSDK/wpa_supplicant/src/tls\asn1.h **** struct wpabuf * asn1_build_alg_id(const struct asn1_oid *oid,
  85:C:/Users/stapi/OneDrive/Desktop/GD32VW553/V1_MQTT_OK/GD32VW55X_Wifi_BLE_SDK/GD32VW55x_RELEASE_V1.0.2/MSDK/wpa_supplicant/src/tls\asn1.h **** 				  const struct wpabuf *params);
  86:C:/Users/stapi/OneDrive/Desktop/GD32VW553/V1_MQTT_OK/GD32VW55X_Wifi_BLE_SDK/GD32VW55x_RELEASE_V1.0.2/MSDK/wpa_supplicant/src/tls\asn1.h **** struct wpabuf * asn1_encaps(struct wpabuf *buf, u8 class, u8 tag);
  87:C:/Users/stapi/OneDrive/Desktop/GD32VW553/V1_MQTT_OK/GD32VW55X_Wifi_BLE_SDK/GD32VW55x_RELEASE_V1.0.2/MSDK/wpa_supplicant/src/tls\asn1.h **** 
  88:C:/Users/stapi/OneDrive/Desktop/GD32VW553/V1_MQTT_OK/GD32VW55X_Wifi_BLE_SDK/GD32VW55x_RELEASE_V1.0.2/MSDK/wpa_supplicant/src/tls\asn1.h **** static inline bool asn1_is_oid(const struct asn1_hdr *hdr)
  89:C:/Users/stapi/OneDrive/Desktop/GD32VW553/V1_MQTT_OK/GD32VW55X_Wifi_BLE_SDK/GD32VW55x_RELEASE_V1.0.2/MSDK/wpa_supplicant/src/tls\asn1.h **** {
  90:C:/Users/stapi/OneDrive/Desktop/GD32VW553/V1_MQTT_OK/GD32VW55X_Wifi_BLE_SDK/GD32VW55x_RELEASE_V1.0.2/MSDK/wpa_supplicant/src/tls\asn1.h **** 	return hdr->class == ASN1_CLASS_UNIVERSAL &&
  91:C:/Users/stapi/OneDrive/Desktop/GD32VW553/V1_MQTT_OK/GD32VW55X_Wifi_BLE_SDK/GD32VW55x_RELEASE_V1.0.2/MSDK/wpa_supplicant/src/tls\asn1.h **** 		hdr->tag == ASN1_TAG_OID;
  92:C:/Users/stapi/OneDrive/Desktop/GD32VW553/V1_MQTT_OK/GD32VW55X_Wifi_BLE_SDK/GD32VW55x_RELEASE_V1.0.2/MSDK/wpa_supplicant/src/tls\asn1.h **** }
  93:C:/Users/stapi/OneDrive/Desktop/GD32VW553/V1_MQTT_OK/GD32VW55X_Wifi_BLE_SDK/GD32VW55x_RELEASE_V1.0.2/MSDK/wpa_supplicant/src/tls\asn1.h **** 
  94:C:/Users/stapi/OneDrive/Desktop/GD32VW553/V1_MQTT_OK/GD32VW55X_Wifi_BLE_SDK/GD32VW55x_RELEASE_V1.0.2/MSDK/wpa_supplicant/src/tls\asn1.h **** static inline bool asn1_is_boolean(const struct asn1_hdr *hdr)
  95:C:/Users/stapi/OneDrive/Desktop/GD32VW553/V1_MQTT_OK/GD32VW55X_Wifi_BLE_SDK/GD32VW55x_RELEASE_V1.0.2/MSDK/wpa_supplicant/src/tls\asn1.h **** {
  96:C:/Users/stapi/OneDrive/Desktop/GD32VW553/V1_MQTT_OK/GD32VW55X_Wifi_BLE_SDK/GD32VW55x_RELEASE_V1.0.2/MSDK/wpa_supplicant/src/tls\asn1.h **** 	return hdr->class == ASN1_CLASS_UNIVERSAL &&
  97:C:/Users/stapi/OneDrive/Desktop/GD32VW553/V1_MQTT_OK/GD32VW55X_Wifi_BLE_SDK/GD32VW55x_RELEASE_V1.0.2/MSDK/wpa_supplicant/src/tls\asn1.h **** 		hdr->tag == ASN1_TAG_BOOLEAN;
  98:C:/Users/stapi/OneDrive/Desktop/GD32VW553/V1_MQTT_OK/GD32VW55X_Wifi_BLE_SDK/GD32VW55x_RELEASE_V1.0.2/MSDK/wpa_supplicant/src/tls\asn1.h **** }
  99:C:/Users/stapi/OneDrive/Desktop/GD32VW553/V1_MQTT_OK/GD32VW55X_Wifi_BLE_SDK/GD32VW55x_RELEASE_V1.0.2/MSDK/wpa_supplicant/src/tls\asn1.h **** 
 100:C:/Users/stapi/OneDrive/Desktop/GD32VW553/V1_MQTT_OK/GD32VW55X_Wifi_BLE_SDK/GD32VW55x_RELEASE_V1.0.2/MSDK/wpa_supplicant/src/tls\asn1.h **** static inline bool asn1_is_integer(const struct asn1_hdr *hdr)
 101:C:/Users/stapi/OneDrive/Desktop/GD32VW553/V1_MQTT_OK/GD32VW55X_Wifi_BLE_SDK/GD32VW55x_RELEASE_V1.0.2/MSDK/wpa_supplicant/src/tls\asn1.h **** {
 102:C:/Users/stapi/OneDrive/Desktop/GD32VW553/V1_MQTT_OK/GD32VW55X_Wifi_BLE_SDK/GD32VW55x_RELEASE_V1.0.2/MSDK/wpa_supplicant/src/tls\asn1.h **** 	return hdr->class == ASN1_CLASS_UNIVERSAL &&
 103:C:/Users/stapi/OneDrive/Desktop/GD32VW553/V1_MQTT_OK/GD32VW55X_Wifi_BLE_SDK/GD32VW55x_RELEASE_V1.0.2/MSDK/wpa_supplicant/src/tls\asn1.h **** 		hdr->tag == ASN1_TAG_INTEGER;
 104:C:/Users/stapi/OneDrive/Desktop/GD32VW553/V1_MQTT_OK/GD32VW55X_Wifi_BLE_SDK/GD32VW55x_RELEASE_V1.0.2/MSDK/wpa_supplicant/src/tls\asn1.h **** }
 105:C:/Users/stapi/OneDrive/Desktop/GD32VW553/V1_MQTT_OK/GD32VW55X_Wifi_BLE_SDK/GD32VW55x_RELEASE_V1.0.2/MSDK/wpa_supplicant/src/tls\asn1.h **** 
 106:C:/Users/stapi/OneDrive/Desktop/GD32VW553/V1_MQTT_OK/GD32VW55X_Wifi_BLE_SDK/GD32VW55x_RELEASE_V1.0.2/MSDK/wpa_supplicant/src/tls\asn1.h **** static inline bool asn1_is_enumerated(const struct asn1_hdr *hdr)
 107:C:/Users/stapi/OneDrive/Desktop/GD32VW553/V1_MQTT_OK/GD32VW55X_Wifi_BLE_SDK/GD32VW55x_RELEASE_V1.0.2/MSDK/wpa_supplicant/src/tls\asn1.h **** {
 108:C:/Users/stapi/OneDrive/Desktop/GD32VW553/V1_MQTT_OK/GD32VW55X_Wifi_BLE_SDK/GD32VW55x_RELEASE_V1.0.2/MSDK/wpa_supplicant/src/tls\asn1.h **** 	return hdr->class == ASN1_CLASS_UNIVERSAL &&
 109:C:/Users/stapi/OneDrive/Desktop/GD32VW553/V1_MQTT_OK/GD32VW55X_Wifi_BLE_SDK/GD32VW55x_RELEASE_V1.0.2/MSDK/wpa_supplicant/src/tls\asn1.h **** 		hdr->tag == ASN1_TAG_ENUMERATED;
 110:C:/Users/stapi/OneDrive/Desktop/GD32VW553/V1_MQTT_OK/GD32VW55X_Wifi_BLE_SDK/GD32VW55x_RELEASE_V1.0.2/MSDK/wpa_supplicant/src/tls\asn1.h **** }
 111:C:/Users/stapi/OneDrive/Desktop/GD32VW553/V1_MQTT_OK/GD32VW55X_Wifi_BLE_SDK/GD32VW55x_RELEASE_V1.0.2/MSDK/wpa_supplicant/src/tls\asn1.h **** 
 112:C:/Users/stapi/OneDrive/Desktop/GD32VW553/V1_MQTT_OK/GD32VW55X_Wifi_BLE_SDK/GD32VW55x_RELEASE_V1.0.2/MSDK/wpa_supplicant/src/tls\asn1.h **** static inline bool asn1_is_sequence(const struct asn1_hdr *hdr)
 113:C:/Users/stapi/OneDrive/Desktop/GD32VW553/V1_MQTT_OK/GD32VW55X_Wifi_BLE_SDK/GD32VW55x_RELEASE_V1.0.2/MSDK/wpa_supplicant/src/tls\asn1.h **** {
 114:C:/Users/stapi/OneDrive/Desktop/GD32VW553/V1_MQTT_OK/GD32VW55X_Wifi_BLE_SDK/GD32VW55x_RELEASE_V1.0.2/MSDK/wpa_supplicant/src/tls\asn1.h **** 	return hdr->class == ASN1_CLASS_UNIVERSAL &&
 732              		.loc 2 114 2 is_stmt 1
 733              		.loc 2 114 44 is_stmt 0
 734 0070 83479102 		lbu	a5,41(sp)
 735 0074 A1E3     		bne	a5,zero,.L53
 736 0076 B254     		lw	s1,44(sp)
 737              	.LVL79:
 738 0078 C147     		li	a5,16
 739 007a 639DF402 		bne	s1,a5,.L53
 740              	.LVL80:
 741              	.LBE22:
 742              	.LBE21:
 245:C:/Users/stapi/OneDrive/Desktop/GD32VW553/V1_MQTT_OK/GD32VW55X_Wifi_BLE_SDK/GD32VW55x_RELEASE_V1.0.2/MSDK/wpa_supplicant/src/tls\pkcs1.c **** 		    hdr.payload, hdr.length);
 743              		.loc 1 245 2 is_stmt 1
 744 007e 1256     		lw	a2,36(sp)
 745 0080 C256     		lw	a3,48(sp)
 746 0082 B7050000 		lui	a1,%hi(.LC11)
 747 0086 93850500 		addi	a1,a1,%lo(.LC11)
 748 008a 0545     		li	a0,1
 749 008c 97000000 		call	wpa_hexdump
 749      E7800000 
 750              	.LVL81:
 248:C:/Users/stapi/OneDrive/Desktop/GD32VW553/V1_MQTT_OK/GD32VW55X_Wifi_BLE_SDK/GD32VW55x_RELEASE_V1.0.2/MSDK/wpa_supplicant/src/tls\pkcs1.c **** 	end = pos + hdr.length;
 751              		.loc 1 248 2
 248:C:/Users/stapi/OneDrive/Desktop/GD32VW553/V1_MQTT_OK/GD32VW55X_Wifi_BLE_SDK/GD32VW55x_RELEASE_V1.0.2/MSDK/wpa_supplicant/src/tls\pkcs1.c **** 	end = pos + hdr.length;
 752              		.loc 1 248 6 is_stmt 0
 753 0094 1255     		lw	a0,36(sp)
 754              	.LVL82:
 249:C:/Users/stapi/OneDrive/Desktop/GD32VW553/V1_MQTT_OK/GD32VW55X_Wifi_BLE_SDK/GD32VW55x_RELEASE_V1.0.2/MSDK/wpa_supplicant/src/tls\pkcs1.c **** 
 755              		.loc 1 249 2 is_stmt 1
 249:C:/Users/stapi/OneDrive/Desktop/GD32VW553/V1_MQTT_OK/GD32VW55X_Wifi_BLE_SDK/GD32VW55x_RELEASE_V1.0.2/MSDK/wpa_supplicant/src/tls\pkcs1.c **** 
 756              		.loc 1 249 17 is_stmt 0
 757 0096 C255     		lw	a1,48(sp)
 259:C:/Users/stapi/OneDrive/Desktop/GD32VW553/V1_MQTT_OK/GD32VW55X_Wifi_BLE_SDK/GD32VW55x_RELEASE_V1.0.2/MSDK/wpa_supplicant/src/tls\pkcs1.c **** 	    !asn1_is_sequence(&hdr)) {
 758              		.loc 1 259 6
 759 0098 5010     		addi	a2,sp,36
 249:C:/Users/stapi/OneDrive/Desktop/GD32VW553/V1_MQTT_OK/GD32VW55X_Wifi_BLE_SDK/GD32VW55x_RELEASE_V1.0.2/MSDK/wpa_supplicant/src/tls\pkcs1.c **** 
 760              		.loc 1 249 6
 761 009a B30AB500 		add	s5,a0,a1
 762              	.LVL83:
 259:C:/Users/stapi/OneDrive/Desktop/GD32VW553/V1_MQTT_OK/GD32VW55X_Wifi_BLE_SDK/GD32VW55x_RELEASE_V1.0.2/MSDK/wpa_supplicant/src/tls\pkcs1.c **** 	    !asn1_is_sequence(&hdr)) {
 763              		.loc 1 259 2 is_stmt 1
 259:C:/Users/stapi/OneDrive/Desktop/GD32VW553/V1_MQTT_OK/GD32VW55X_Wifi_BLE_SDK/GD32VW55x_RELEASE_V1.0.2/MSDK/wpa_supplicant/src/tls\pkcs1.c **** 	    !asn1_is_sequence(&hdr)) {
 764              		.loc 1 259 6 is_stmt 0
 765 009e 97000000 		call	asn1_get_next
 765      E7800000 
 766              	.LVL84:
 259:C:/Users/stapi/OneDrive/Desktop/GD32VW553/V1_MQTT_OK/GD32VW55X_Wifi_BLE_SDK/GD32VW55x_RELEASE_V1.0.2/MSDK/wpa_supplicant/src/tls\pkcs1.c **** 	    !asn1_is_sequence(&hdr)) {
 767              		.loc 1 259 5
 768 00a6 63510502 		bge	a0,zero,.L65
 769              	.L54:
 261:C:/Users/stapi/OneDrive/Desktop/GD32VW553/V1_MQTT_OK/GD32VW55X_Wifi_BLE_SDK/GD32VW55x_RELEASE_V1.0.2/MSDK/wpa_supplicant/src/tls\pkcs1.c **** 				"PKCS #1: Expected SEQUENCE (AlgorithmIdentifier)");
 770              		.loc 1 261 3 is_stmt 1
 771 00aa B7050000 		lui	a1,%hi(.LC14)
 772 00ae 93850500 		addi	a1,a1,%lo(.LC14)
 773 00b2 29A0     		j	.L69
 774              	.LVL85:
 775              	.L53:
 240:C:/Users/stapi/OneDrive/Desktop/GD32VW553/V1_MQTT_OK/GD32VW55X_Wifi_BLE_SDK/GD32VW55x_RELEASE_V1.0.2/MSDK/wpa_supplicant/src/tls\pkcs1.c **** 				"PKCS #1: Expected SEQUENCE (DigestInfo)");
 776              		.loc 1 240 3
 777 00b4 B7050000 		lui	a1,%hi(.LC12)
 778 00b8 93850500 		addi	a1,a1,%lo(.LC12)
 779              	.L69:
 310:C:/Users/stapi/OneDrive/Desktop/GD32VW553/V1_MQTT_OK/GD32VW55X_Wifi_BLE_SDK/GD32VW55x_RELEASE_V1.0.2/MSDK/wpa_supplicant/src/tls\pkcs1.c **** 				"PKCS #1: Expected OCTETSTRING (Digest)");
 780              		.loc 1 310 3 is_stmt 0
 781 00bc 4810     		addi	a0,sp,36
 782 00be 97000000 		call	asn1_unexpected
 782      E7800000 
 783              	.LVL86:
 784 00c6 B1A0     		j	.L68
 785              	.LVL87:
 786              	.L65:
 787              	.LBB23:
 788              	.LBB24:
 789              		.loc 2 114 2 is_stmt 1
 790              		.loc 2 114 44 is_stmt 0
 791 00c8 83479102 		lbu	a5,41(sp)
 792 00cc F9FF     		bne	a5,zero,.L54
 793 00ce B257     		lw	a5,44(sp)
 794 00d0 E39D97FC 		bne	a5,s1,.L54
 795              	.LVL88:
 796              	.LBE24:
 797              	.LBE23:
 266:C:/Users/stapi/OneDrive/Desktop/GD32VW553/V1_MQTT_OK/GD32VW55X_Wifi_BLE_SDK/GD32VW55x_RELEASE_V1.0.2/MSDK/wpa_supplicant/src/tls\pkcs1.c **** 		    hdr.payload, hdr.length);
 798              		.loc 1 266 2 is_stmt 1
 799 00d4 C256     		lw	a3,48(sp)
 800 00d6 1256     		lw	a2,36(sp)
 801 00d8 B7050000 		lui	a1,%hi(.LC13)
 802 00dc 93850500 		addi	a1,a1,%lo(.LC13)
 803 00e0 0545     		li	a0,1
 804 00e2 97000000 		call	wpa_hexdump
 804      E7800000 
 805              	.LVL89:
 268:C:/Users/stapi/OneDrive/Desktop/GD32VW553/V1_MQTT_OK/GD32VW55X_Wifi_BLE_SDK/GD32VW55x_RELEASE_V1.0.2/MSDK/wpa_supplicant/src/tls\pkcs1.c **** 
 806              		.loc 1 268 2
 268:C:/Users/stapi/OneDrive/Desktop/GD32VW553/V1_MQTT_OK/GD32VW55X_Wifi_BLE_SDK/GD32VW55x_RELEASE_V1.0.2/MSDK/wpa_supplicant/src/tls\pkcs1.c **** 
 807              		.loc 1 268 14 is_stmt 0
 808 00ea 1255     		lw	a0,36(sp)
 268:C:/Users/stapi/OneDrive/Desktop/GD32VW553/V1_MQTT_OK/GD32VW55X_Wifi_BLE_SDK/GD32VW55x_RELEASE_V1.0.2/MSDK/wpa_supplicant/src/tls\pkcs1.c **** 
 809              		.loc 1 268 28
 810 00ec C255     		lw	a1,48(sp)
 270:C:/Users/stapi/OneDrive/Desktop/GD32VW553/V1_MQTT_OK/GD32VW55X_Wifi_BLE_SDK/GD32VW55x_RELEASE_V1.0.2/MSDK/wpa_supplicant/src/tls\pkcs1.c **** 		wpa_printf(MSG_DEBUG,
 811              		.loc 1 270 6
 812 00ee 1410     		addi	a3,sp,32
 813 00f0 5018     		addi	a2,sp,52
 268:C:/Users/stapi/OneDrive/Desktop/GD32VW553/V1_MQTT_OK/GD32VW55X_Wifi_BLE_SDK/GD32VW55x_RELEASE_V1.0.2/MSDK/wpa_supplicant/src/tls\pkcs1.c **** 
 814              		.loc 1 268 9
 815 00f2 B304B500 		add	s1,a0,a1
 816              	.LVL90:
 270:C:/Users/stapi/OneDrive/Desktop/GD32VW553/V1_MQTT_OK/GD32VW55X_Wifi_BLE_SDK/GD32VW55x_RELEASE_V1.0.2/MSDK/wpa_supplicant/src/tls\pkcs1.c **** 		wpa_printf(MSG_DEBUG,
 817              		.loc 1 270 2 is_stmt 1
 270:C:/Users/stapi/OneDrive/Desktop/GD32VW553/V1_MQTT_OK/GD32VW55X_Wifi_BLE_SDK/GD32VW55x_RELEASE_V1.0.2/MSDK/wpa_supplicant/src/tls\pkcs1.c **** 		wpa_printf(MSG_DEBUG,
 818              		.loc 1 270 6 is_stmt 0
 819 00f6 97000000 		call	asn1_get_oid
 819      E7800000 
 820              	.LVL91:
 270:C:/Users/stapi/OneDrive/Desktop/GD32VW553/V1_MQTT_OK/GD32VW55X_Wifi_BLE_SDK/GD32VW55x_RELEASE_V1.0.2/MSDK/wpa_supplicant/src/tls\pkcs1.c **** 		wpa_printf(MSG_DEBUG,
 821              		.loc 1 270 5
 822 00fe 15C5     		beq	a0,zero,.L66
 271:C:/Users/stapi/OneDrive/Desktop/GD32VW553/V1_MQTT_OK/GD32VW55X_Wifi_BLE_SDK/GD32VW55x_RELEASE_V1.0.2/MSDK/wpa_supplicant/src/tls\pkcs1.c **** 			   "PKCS #1: Failed to parse digestAlgorithm");
 823              		.loc 1 271 3 is_stmt 1
 824 0100 B7050000 		lui	a1,%hi(.LC15)
 825 0104 93850500 		addi	a1,a1,%lo(.LC15)
 826              	.L71:
 827 0108 0945     		li	a0,2
 828              	.LVL92:
 829              	.L70:
 830 010a 97000000 		call	wpa_printf
 830      E7800000 
 831              	.LVL93:
 273:C:/Users/stapi/OneDrive/Desktop/GD32VW553/V1_MQTT_OK/GD32VW55X_Wifi_BLE_SDK/GD32VW55x_RELEASE_V1.0.2/MSDK/wpa_supplicant/src/tls\pkcs1.c **** 		return -1;
 832              		.loc 1 273 3
 833              	.L68:
 312:C:/Users/stapi/OneDrive/Desktop/GD32VW553/V1_MQTT_OK/GD32VW55X_Wifi_BLE_SDK/GD32VW55x_RELEASE_V1.0.2/MSDK/wpa_supplicant/src/tls\pkcs1.c **** 		return -1;
 834              		.loc 1 312 3
 835 0112 2285     		mv	a0,s0
 836 0114 97000000 		call	os_free
 836      E7800000 
 837              	.LVL94:
 313:C:/Users/stapi/OneDrive/Desktop/GD32VW553/V1_MQTT_OK/GD32VW55X_Wifi_BLE_SDK/GD32VW55x_RELEASE_V1.0.2/MSDK/wpa_supplicant/src/tls\pkcs1.c **** 	}
 838              		.loc 1 313 3
 839              	.L64:
 214:C:/Users/stapi/OneDrive/Desktop/GD32VW553/V1_MQTT_OK/GD32VW55X_Wifi_BLE_SDK/GD32VW55x_RELEASE_V1.0.2/MSDK/wpa_supplicant/src/tls\pkcs1.c **** 	decrypted_len = s_len;
 840              		.loc 1 214 10 is_stmt 0
 841 011c FD54     		li	s1,-1
 842              	.L50:
 321:C:/Users/stapi/OneDrive/Desktop/GD32VW553/V1_MQTT_OK/GD32VW55X_Wifi_BLE_SDK/GD32VW55x_RELEASE_V1.0.2/MSDK/wpa_supplicant/src/tls\pkcs1.c **** 		os_free(decrypted);
 322:C:/Users/stapi/OneDrive/Desktop/GD32VW553/V1_MQTT_OK/GD32VW55X_Wifi_BLE_SDK/GD32VW55x_RELEASE_V1.0.2/MSDK/wpa_supplicant/src/tls\pkcs1.c **** 		return -1;
 323:C:/Users/stapi/OneDrive/Desktop/GD32VW553/V1_MQTT_OK/GD32VW55X_Wifi_BLE_SDK/GD32VW55x_RELEASE_V1.0.2/MSDK/wpa_supplicant/src/tls\pkcs1.c **** 	}
 324:C:/Users/stapi/OneDrive/Desktop/GD32VW553/V1_MQTT_OK/GD32VW55X_Wifi_BLE_SDK/GD32VW55x_RELEASE_V1.0.2/MSDK/wpa_supplicant/src/tls\pkcs1.c **** 
 325:C:/Users/stapi/OneDrive/Desktop/GD32VW553/V1_MQTT_OK/GD32VW55X_Wifi_BLE_SDK/GD32VW55x_RELEASE_V1.0.2/MSDK/wpa_supplicant/src/tls\pkcs1.c **** 	os_free(decrypted);
 326:C:/Users/stapi/OneDrive/Desktop/GD32VW553/V1_MQTT_OK/GD32VW55X_Wifi_BLE_SDK/GD32VW55x_RELEASE_V1.0.2/MSDK/wpa_supplicant/src/tls\pkcs1.c **** 
 327:C:/Users/stapi/OneDrive/Desktop/GD32VW553/V1_MQTT_OK/GD32VW55X_Wifi_BLE_SDK/GD32VW55x_RELEASE_V1.0.2/MSDK/wpa_supplicant/src/tls\pkcs1.c **** 	if (hdr.payload + hdr.length != decrypted + decrypted_len) {
 328:C:/Users/stapi/OneDrive/Desktop/GD32VW553/V1_MQTT_OK/GD32VW55X_Wifi_BLE_SDK/GD32VW55x_RELEASE_V1.0.2/MSDK/wpa_supplicant/src/tls\pkcs1.c **** 		wpa_printf(MSG_INFO,
 329:C:/Users/stapi/OneDrive/Desktop/GD32VW553/V1_MQTT_OK/GD32VW55X_Wifi_BLE_SDK/GD32VW55x_RELEASE_V1.0.2/MSDK/wpa_supplicant/src/tls\pkcs1.c **** 			   "PKCS #1: Extra data after signature - reject");
 330:C:/Users/stapi/OneDrive/Desktop/GD32VW553/V1_MQTT_OK/GD32VW55X_Wifi_BLE_SDK/GD32VW55x_RELEASE_V1.0.2/MSDK/wpa_supplicant/src/tls\pkcs1.c **** 
 331:C:/Users/stapi/OneDrive/Desktop/GD32VW553/V1_MQTT_OK/GD32VW55X_Wifi_BLE_SDK/GD32VW55x_RELEASE_V1.0.2/MSDK/wpa_supplicant/src/tls\pkcs1.c **** 		wpa_hexdump(MSG_DEBUG, "PKCS #1: Extra data",
 332:C:/Users/stapi/OneDrive/Desktop/GD32VW553/V1_MQTT_OK/GD32VW55X_Wifi_BLE_SDK/GD32VW55x_RELEASE_V1.0.2/MSDK/wpa_supplicant/src/tls\pkcs1.c **** 			    hdr.payload + hdr.length,
 333:C:/Users/stapi/OneDrive/Desktop/GD32VW553/V1_MQTT_OK/GD32VW55X_Wifi_BLE_SDK/GD32VW55x_RELEASE_V1.0.2/MSDK/wpa_supplicant/src/tls\pkcs1.c **** 			    decrypted + decrypted_len - hdr.payload -
 334:C:/Users/stapi/OneDrive/Desktop/GD32VW553/V1_MQTT_OK/GD32VW55X_Wifi_BLE_SDK/GD32VW55x_RELEASE_V1.0.2/MSDK/wpa_supplicant/src/tls\pkcs1.c **** 			    hdr.length);
 335:C:/Users/stapi/OneDrive/Desktop/GD32VW553/V1_MQTT_OK/GD32VW55X_Wifi_BLE_SDK/GD32VW55x_RELEASE_V1.0.2/MSDK/wpa_supplicant/src/tls\pkcs1.c **** 		return -1;
 336:C:/Users/stapi/OneDrive/Desktop/GD32VW553/V1_MQTT_OK/GD32VW55X_Wifi_BLE_SDK/GD32VW55x_RELEASE_V1.0.2/MSDK/wpa_supplicant/src/tls\pkcs1.c **** 	}
 337:C:/Users/stapi/OneDrive/Desktop/GD32VW553/V1_MQTT_OK/GD32VW55X_Wifi_BLE_SDK/GD32VW55x_RELEASE_V1.0.2/MSDK/wpa_supplicant/src/tls\pkcs1.c **** 
 338:C:/Users/stapi/OneDrive/Desktop/GD32VW553/V1_MQTT_OK/GD32VW55X_Wifi_BLE_SDK/GD32VW55x_RELEASE_V1.0.2/MSDK/wpa_supplicant/src/tls\pkcs1.c **** 	return 0;
 339:C:/Users/stapi/OneDrive/Desktop/GD32VW553/V1_MQTT_OK/GD32VW55X_Wifi_BLE_SDK/GD32VW55x_RELEASE_V1.0.2/MSDK/wpa_supplicant/src/tls\pkcs1.c **** }
 843              		.loc 1 339 1
 844 011e 2685     		mv	a0,s1
 845 0120 7161     		addi	sp,sp,336
 846              		.cfi_remember_state
 847              		.cfi_def_cfa_offset 0
 848              	.LVL95:
 849 0122 17030000 		tail	__riscv_restore_6
 849      67000300 
 850              		.cfi_restore 21
 851              		.cfi_restore 20
 852              		.cfi_restore 19
 853              		.cfi_restore 18
 854              		.cfi_restore 9
 855              		.cfi_restore 8
 856              		.cfi_restore 1
 857              		.cfi_def_cfa_offset -32
 858              	.LVL96:
 859              	.L66:
 860              		.cfi_restore_state
 276:C:/Users/stapi/OneDrive/Desktop/GD32VW553/V1_MQTT_OK/GD32VW55X_Wifi_BLE_SDK/GD32VW55x_RELEASE_V1.0.2/MSDK/wpa_supplicant/src/tls\pkcs1.c **** 		    next, da_end - next);
 861              		.loc 1 276 2 is_stmt 1
 862 012a 0256     		lw	a2,32(sp)
 863 012c B7050000 		lui	a1,%hi(.LC16)
 864 0130 0545     		li	a0,1
 865 0132 B386C440 		sub	a3,s1,a2
 866 0136 93850500 		addi	a1,a1,%lo(.LC16)
 867 013a 97000000 		call	wpa_hexdump
 867      E7800000 
 868              	.LVL97:
 284:C:/Users/stapi/OneDrive/Desktop/GD32VW553/V1_MQTT_OK/GD32VW55X_Wifi_BLE_SDK/GD32VW55x_RELEASE_V1.0.2/MSDK/wpa_supplicant/src/tls\pkcs1.c **** 	    (asn1_get_next(next, da_end - next, &hdr) < 0 ||
 869              		.loc 1 284 2
 284:C:/Users/stapi/OneDrive/Desktop/GD32VW553/V1_MQTT_OK/GD32VW55X_Wifi_BLE_SDK/GD32VW55x_RELEASE_V1.0.2/MSDK/wpa_supplicant/src/tls\pkcs1.c **** 	    (asn1_get_next(next, da_end - next, &hdr) < 0 ||
 870              		.loc 1 284 13 is_stmt 0
 871 0142 0255     		lw	a0,32(sp)
 284:C:/Users/stapi/OneDrive/Desktop/GD32VW553/V1_MQTT_OK/GD32VW55X_Wifi_BLE_SDK/GD32VW55x_RELEASE_V1.0.2/MSDK/wpa_supplicant/src/tls\pkcs1.c **** 	    (asn1_get_next(next, da_end - next, &hdr) < 0 ||
 872              		.loc 1 284 5
 873 0144 637C9502 		bgeu	a0,s1,.L58
 285:C:/Users/stapi/OneDrive/Desktop/GD32VW553/V1_MQTT_OK/GD32VW55X_Wifi_BLE_SDK/GD32VW55x_RELEASE_V1.0.2/MSDK/wpa_supplicant/src/tls\pkcs1.c **** 	     !asn1_is_null(&hdr) ||
 874              		.loc 1 285 7 discriminator 1
 875 0148 5010     		addi	a2,sp,36
 876 014a B385A440 		sub	a1,s1,a0
 877 014e 97000000 		call	asn1_get_next
 877      E7800000 
 878              	.LVL98:
 284:C:/Users/stapi/OneDrive/Desktop/GD32VW553/V1_MQTT_OK/GD32VW55X_Wifi_BLE_SDK/GD32VW55x_RELEASE_V1.0.2/MSDK/wpa_supplicant/src/tls\pkcs1.c **** 	    (asn1_get_next(next, da_end - next, &hdr) < 0 ||
 879              		.loc 1 284 20 discriminator 1
 880 0156 634E0500 		blt	a0,zero,.L59
 881              	.LVL99:
 882              	.LBB25:
 883              	.LBB26:
 115:C:/Users/stapi/OneDrive/Desktop/GD32VW553/V1_MQTT_OK/GD32VW55X_Wifi_BLE_SDK/GD32VW55x_RELEASE_V1.0.2/MSDK/wpa_supplicant/src/tls\asn1.h **** 		hdr->tag == ASN1_TAG_SEQUENCE;
 116:C:/Users/stapi/OneDrive/Desktop/GD32VW553/V1_MQTT_OK/GD32VW55X_Wifi_BLE_SDK/GD32VW55x_RELEASE_V1.0.2/MSDK/wpa_supplicant/src/tls\asn1.h **** }
 117:C:/Users/stapi/OneDrive/Desktop/GD32VW553/V1_MQTT_OK/GD32VW55X_Wifi_BLE_SDK/GD32VW55x_RELEASE_V1.0.2/MSDK/wpa_supplicant/src/tls\asn1.h **** 
 118:C:/Users/stapi/OneDrive/Desktop/GD32VW553/V1_MQTT_OK/GD32VW55X_Wifi_BLE_SDK/GD32VW55x_RELEASE_V1.0.2/MSDK/wpa_supplicant/src/tls\asn1.h **** static inline bool asn1_is_set(const struct asn1_hdr *hdr)
 119:C:/Users/stapi/OneDrive/Desktop/GD32VW553/V1_MQTT_OK/GD32VW55X_Wifi_BLE_SDK/GD32VW55x_RELEASE_V1.0.2/MSDK/wpa_supplicant/src/tls\asn1.h **** {
 120:C:/Users/stapi/OneDrive/Desktop/GD32VW553/V1_MQTT_OK/GD32VW55X_Wifi_BLE_SDK/GD32VW55x_RELEASE_V1.0.2/MSDK/wpa_supplicant/src/tls\asn1.h **** 	return hdr->class == ASN1_CLASS_UNIVERSAL &&
 121:C:/Users/stapi/OneDrive/Desktop/GD32VW553/V1_MQTT_OK/GD32VW55X_Wifi_BLE_SDK/GD32VW55x_RELEASE_V1.0.2/MSDK/wpa_supplicant/src/tls\asn1.h **** 		hdr->tag == ASN1_TAG_SET;
 122:C:/Users/stapi/OneDrive/Desktop/GD32VW553/V1_MQTT_OK/GD32VW55X_Wifi_BLE_SDK/GD32VW55x_RELEASE_V1.0.2/MSDK/wpa_supplicant/src/tls\asn1.h **** }
 123:C:/Users/stapi/OneDrive/Desktop/GD32VW553/V1_MQTT_OK/GD32VW55X_Wifi_BLE_SDK/GD32VW55x_RELEASE_V1.0.2/MSDK/wpa_supplicant/src/tls\asn1.h **** 
 124:C:/Users/stapi/OneDrive/Desktop/GD32VW553/V1_MQTT_OK/GD32VW55X_Wifi_BLE_SDK/GD32VW55x_RELEASE_V1.0.2/MSDK/wpa_supplicant/src/tls\asn1.h **** static inline bool asn1_is_octetstring(const struct asn1_hdr *hdr)
 125:C:/Users/stapi/OneDrive/Desktop/GD32VW553/V1_MQTT_OK/GD32VW55X_Wifi_BLE_SDK/GD32VW55x_RELEASE_V1.0.2/MSDK/wpa_supplicant/src/tls\asn1.h **** {
 126:C:/Users/stapi/OneDrive/Desktop/GD32VW553/V1_MQTT_OK/GD32VW55X_Wifi_BLE_SDK/GD32VW55x_RELEASE_V1.0.2/MSDK/wpa_supplicant/src/tls\asn1.h **** 	return hdr->class == ASN1_CLASS_UNIVERSAL &&
 127:C:/Users/stapi/OneDrive/Desktop/GD32VW553/V1_MQTT_OK/GD32VW55X_Wifi_BLE_SDK/GD32VW55x_RELEASE_V1.0.2/MSDK/wpa_supplicant/src/tls\asn1.h **** 		hdr->tag == ASN1_TAG_OCTETSTRING;
 128:C:/Users/stapi/OneDrive/Desktop/GD32VW553/V1_MQTT_OK/GD32VW55X_Wifi_BLE_SDK/GD32VW55x_RELEASE_V1.0.2/MSDK/wpa_supplicant/src/tls\asn1.h **** }
 129:C:/Users/stapi/OneDrive/Desktop/GD32VW553/V1_MQTT_OK/GD32VW55X_Wifi_BLE_SDK/GD32VW55x_RELEASE_V1.0.2/MSDK/wpa_supplicant/src/tls\asn1.h **** 
 130:C:/Users/stapi/OneDrive/Desktop/GD32VW553/V1_MQTT_OK/GD32VW55X_Wifi_BLE_SDK/GD32VW55x_RELEASE_V1.0.2/MSDK/wpa_supplicant/src/tls\asn1.h **** static inline bool asn1_is_bitstring(const struct asn1_hdr *hdr)
 131:C:/Users/stapi/OneDrive/Desktop/GD32VW553/V1_MQTT_OK/GD32VW55X_Wifi_BLE_SDK/GD32VW55x_RELEASE_V1.0.2/MSDK/wpa_supplicant/src/tls\asn1.h **** {
 132:C:/Users/stapi/OneDrive/Desktop/GD32VW553/V1_MQTT_OK/GD32VW55X_Wifi_BLE_SDK/GD32VW55x_RELEASE_V1.0.2/MSDK/wpa_supplicant/src/tls\asn1.h **** 	return hdr->class == ASN1_CLASS_UNIVERSAL &&
 133:C:/Users/stapi/OneDrive/Desktop/GD32VW553/V1_MQTT_OK/GD32VW55X_Wifi_BLE_SDK/GD32VW55x_RELEASE_V1.0.2/MSDK/wpa_supplicant/src/tls\asn1.h **** 		hdr->tag == ASN1_TAG_BITSTRING;
 134:C:/Users/stapi/OneDrive/Desktop/GD32VW553/V1_MQTT_OK/GD32VW55X_Wifi_BLE_SDK/GD32VW55x_RELEASE_V1.0.2/MSDK/wpa_supplicant/src/tls\asn1.h **** }
 135:C:/Users/stapi/OneDrive/Desktop/GD32VW553/V1_MQTT_OK/GD32VW55X_Wifi_BLE_SDK/GD32VW55x_RELEASE_V1.0.2/MSDK/wpa_supplicant/src/tls\asn1.h **** 
 136:C:/Users/stapi/OneDrive/Desktop/GD32VW553/V1_MQTT_OK/GD32VW55X_Wifi_BLE_SDK/GD32VW55x_RELEASE_V1.0.2/MSDK/wpa_supplicant/src/tls\asn1.h **** static inline bool asn1_is_utctime(const struct asn1_hdr *hdr)
 137:C:/Users/stapi/OneDrive/Desktop/GD32VW553/V1_MQTT_OK/GD32VW55X_Wifi_BLE_SDK/GD32VW55x_RELEASE_V1.0.2/MSDK/wpa_supplicant/src/tls\asn1.h **** {
 138:C:/Users/stapi/OneDrive/Desktop/GD32VW553/V1_MQTT_OK/GD32VW55X_Wifi_BLE_SDK/GD32VW55x_RELEASE_V1.0.2/MSDK/wpa_supplicant/src/tls\asn1.h **** 	return hdr->class == ASN1_CLASS_UNIVERSAL &&
 139:C:/Users/stapi/OneDrive/Desktop/GD32VW553/V1_MQTT_OK/GD32VW55X_Wifi_BLE_SDK/GD32VW55x_RELEASE_V1.0.2/MSDK/wpa_supplicant/src/tls\asn1.h **** 		hdr->tag == ASN1_TAG_UTCTIME;
 140:C:/Users/stapi/OneDrive/Desktop/GD32VW553/V1_MQTT_OK/GD32VW55X_Wifi_BLE_SDK/GD32VW55x_RELEASE_V1.0.2/MSDK/wpa_supplicant/src/tls\asn1.h **** }
 141:C:/Users/stapi/OneDrive/Desktop/GD32VW553/V1_MQTT_OK/GD32VW55X_Wifi_BLE_SDK/GD32VW55x_RELEASE_V1.0.2/MSDK/wpa_supplicant/src/tls\asn1.h **** 
 142:C:/Users/stapi/OneDrive/Desktop/GD32VW553/V1_MQTT_OK/GD32VW55X_Wifi_BLE_SDK/GD32VW55x_RELEASE_V1.0.2/MSDK/wpa_supplicant/src/tls\asn1.h **** static inline bool asn1_is_generalizedtime(const struct asn1_hdr *hdr)
 143:C:/Users/stapi/OneDrive/Desktop/GD32VW553/V1_MQTT_OK/GD32VW55X_Wifi_BLE_SDK/GD32VW55x_RELEASE_V1.0.2/MSDK/wpa_supplicant/src/tls\asn1.h **** {
 144:C:/Users/stapi/OneDrive/Desktop/GD32VW553/V1_MQTT_OK/GD32VW55X_Wifi_BLE_SDK/GD32VW55x_RELEASE_V1.0.2/MSDK/wpa_supplicant/src/tls\asn1.h **** 	return hdr->class == ASN1_CLASS_UNIVERSAL &&
 145:C:/Users/stapi/OneDrive/Desktop/GD32VW553/V1_MQTT_OK/GD32VW55X_Wifi_BLE_SDK/GD32VW55x_RELEASE_V1.0.2/MSDK/wpa_supplicant/src/tls\asn1.h **** 		hdr->tag == ASN1_TAG_GENERALIZEDTIME;
 146:C:/Users/stapi/OneDrive/Desktop/GD32VW553/V1_MQTT_OK/GD32VW55X_Wifi_BLE_SDK/GD32VW55x_RELEASE_V1.0.2/MSDK/wpa_supplicant/src/tls\asn1.h **** }
 147:C:/Users/stapi/OneDrive/Desktop/GD32VW553/V1_MQTT_OK/GD32VW55X_Wifi_BLE_SDK/GD32VW55x_RELEASE_V1.0.2/MSDK/wpa_supplicant/src/tls\asn1.h **** 
 148:C:/Users/stapi/OneDrive/Desktop/GD32VW553/V1_MQTT_OK/GD32VW55X_Wifi_BLE_SDK/GD32VW55x_RELEASE_V1.0.2/MSDK/wpa_supplicant/src/tls\asn1.h **** static inline bool asn1_is_string_type(const struct asn1_hdr *hdr)
 149:C:/Users/stapi/OneDrive/Desktop/GD32VW553/V1_MQTT_OK/GD32VW55X_Wifi_BLE_SDK/GD32VW55x_RELEASE_V1.0.2/MSDK/wpa_supplicant/src/tls\asn1.h **** {
 150:C:/Users/stapi/OneDrive/Desktop/GD32VW553/V1_MQTT_OK/GD32VW55X_Wifi_BLE_SDK/GD32VW55x_RELEASE_V1.0.2/MSDK/wpa_supplicant/src/tls\asn1.h **** 	if (hdr->class != ASN1_CLASS_UNIVERSAL || hdr->constructed)
 151:C:/Users/stapi/OneDrive/Desktop/GD32VW553/V1_MQTT_OK/GD32VW55X_Wifi_BLE_SDK/GD32VW55x_RELEASE_V1.0.2/MSDK/wpa_supplicant/src/tls\asn1.h **** 		return false;
 152:C:/Users/stapi/OneDrive/Desktop/GD32VW553/V1_MQTT_OK/GD32VW55X_Wifi_BLE_SDK/GD32VW55x_RELEASE_V1.0.2/MSDK/wpa_supplicant/src/tls\asn1.h **** 	return hdr->tag == ASN1_TAG_UTF8STRING ||
 153:C:/Users/stapi/OneDrive/Desktop/GD32VW553/V1_MQTT_OK/GD32VW55X_Wifi_BLE_SDK/GD32VW55x_RELEASE_V1.0.2/MSDK/wpa_supplicant/src/tls\asn1.h **** 		hdr->tag == ASN1_TAG_NUMERICSTRING ||
 154:C:/Users/stapi/OneDrive/Desktop/GD32VW553/V1_MQTT_OK/GD32VW55X_Wifi_BLE_SDK/GD32VW55x_RELEASE_V1.0.2/MSDK/wpa_supplicant/src/tls\asn1.h **** 		hdr->tag == ASN1_TAG_PRINTABLESTRING ||
 155:C:/Users/stapi/OneDrive/Desktop/GD32VW553/V1_MQTT_OK/GD32VW55X_Wifi_BLE_SDK/GD32VW55x_RELEASE_V1.0.2/MSDK/wpa_supplicant/src/tls\asn1.h **** 		hdr->tag == ASN1_TAG_T61STRING ||
 156:C:/Users/stapi/OneDrive/Desktop/GD32VW553/V1_MQTT_OK/GD32VW55X_Wifi_BLE_SDK/GD32VW55x_RELEASE_V1.0.2/MSDK/wpa_supplicant/src/tls\asn1.h **** 		hdr->tag == ASN1_TAG_VIDEOTEXSTRING ||
 157:C:/Users/stapi/OneDrive/Desktop/GD32VW553/V1_MQTT_OK/GD32VW55X_Wifi_BLE_SDK/GD32VW55x_RELEASE_V1.0.2/MSDK/wpa_supplicant/src/tls\asn1.h **** 		hdr->tag == ASN1_TAG_IA5STRING ||
 158:C:/Users/stapi/OneDrive/Desktop/GD32VW553/V1_MQTT_OK/GD32VW55X_Wifi_BLE_SDK/GD32VW55x_RELEASE_V1.0.2/MSDK/wpa_supplicant/src/tls\asn1.h **** 		hdr->tag == ASN1_TAG_GRAPHICSTRING ||
 159:C:/Users/stapi/OneDrive/Desktop/GD32VW553/V1_MQTT_OK/GD32VW55X_Wifi_BLE_SDK/GD32VW55x_RELEASE_V1.0.2/MSDK/wpa_supplicant/src/tls\asn1.h **** 		hdr->tag == ASN1_TAG_VISIBLESTRING ||
 160:C:/Users/stapi/OneDrive/Desktop/GD32VW553/V1_MQTT_OK/GD32VW55X_Wifi_BLE_SDK/GD32VW55x_RELEASE_V1.0.2/MSDK/wpa_supplicant/src/tls\asn1.h **** 		hdr->tag == ASN1_TAG_GENERALSTRING ||
 161:C:/Users/stapi/OneDrive/Desktop/GD32VW553/V1_MQTT_OK/GD32VW55X_Wifi_BLE_SDK/GD32VW55x_RELEASE_V1.0.2/MSDK/wpa_supplicant/src/tls\asn1.h **** 		hdr->tag == ASN1_TAG_UNIVERSALSTRING ||
 162:C:/Users/stapi/OneDrive/Desktop/GD32VW553/V1_MQTT_OK/GD32VW55X_Wifi_BLE_SDK/GD32VW55x_RELEASE_V1.0.2/MSDK/wpa_supplicant/src/tls\asn1.h **** 		hdr->tag == ASN1_TAG_CHARACTERSTRING ||
 163:C:/Users/stapi/OneDrive/Desktop/GD32VW553/V1_MQTT_OK/GD32VW55X_Wifi_BLE_SDK/GD32VW55x_RELEASE_V1.0.2/MSDK/wpa_supplicant/src/tls\asn1.h **** 		hdr->tag == ASN1_TAG_BMPSTRING;
 164:C:/Users/stapi/OneDrive/Desktop/GD32VW553/V1_MQTT_OK/GD32VW55X_Wifi_BLE_SDK/GD32VW55x_RELEASE_V1.0.2/MSDK/wpa_supplicant/src/tls\asn1.h **** }
 165:C:/Users/stapi/OneDrive/Desktop/GD32VW553/V1_MQTT_OK/GD32VW55X_Wifi_BLE_SDK/GD32VW55x_RELEASE_V1.0.2/MSDK/wpa_supplicant/src/tls\asn1.h **** 
 166:C:/Users/stapi/OneDrive/Desktop/GD32VW553/V1_MQTT_OK/GD32VW55X_Wifi_BLE_SDK/GD32VW55x_RELEASE_V1.0.2/MSDK/wpa_supplicant/src/tls\asn1.h **** static inline bool asn1_is_bmpstring(const struct asn1_hdr *hdr)
 167:C:/Users/stapi/OneDrive/Desktop/GD32VW553/V1_MQTT_OK/GD32VW55X_Wifi_BLE_SDK/GD32VW55x_RELEASE_V1.0.2/MSDK/wpa_supplicant/src/tls\asn1.h **** {
 168:C:/Users/stapi/OneDrive/Desktop/GD32VW553/V1_MQTT_OK/GD32VW55X_Wifi_BLE_SDK/GD32VW55x_RELEASE_V1.0.2/MSDK/wpa_supplicant/src/tls\asn1.h **** 	return hdr->class == ASN1_CLASS_UNIVERSAL &&
 169:C:/Users/stapi/OneDrive/Desktop/GD32VW553/V1_MQTT_OK/GD32VW55X_Wifi_BLE_SDK/GD32VW55x_RELEASE_V1.0.2/MSDK/wpa_supplicant/src/tls\asn1.h **** 		hdr->tag == ASN1_TAG_BMPSTRING;
 170:C:/Users/stapi/OneDrive/Desktop/GD32VW553/V1_MQTT_OK/GD32VW55X_Wifi_BLE_SDK/GD32VW55x_RELEASE_V1.0.2/MSDK/wpa_supplicant/src/tls\asn1.h **** }
 171:C:/Users/stapi/OneDrive/Desktop/GD32VW553/V1_MQTT_OK/GD32VW55X_Wifi_BLE_SDK/GD32VW55x_RELEASE_V1.0.2/MSDK/wpa_supplicant/src/tls\asn1.h **** 
 172:C:/Users/stapi/OneDrive/Desktop/GD32VW553/V1_MQTT_OK/GD32VW55X_Wifi_BLE_SDK/GD32VW55x_RELEASE_V1.0.2/MSDK/wpa_supplicant/src/tls\asn1.h **** static inline bool asn1_is_utf8string(const struct asn1_hdr *hdr)
 173:C:/Users/stapi/OneDrive/Desktop/GD32VW553/V1_MQTT_OK/GD32VW55X_Wifi_BLE_SDK/GD32VW55x_RELEASE_V1.0.2/MSDK/wpa_supplicant/src/tls\asn1.h **** {
 174:C:/Users/stapi/OneDrive/Desktop/GD32VW553/V1_MQTT_OK/GD32VW55X_Wifi_BLE_SDK/GD32VW55x_RELEASE_V1.0.2/MSDK/wpa_supplicant/src/tls\asn1.h **** 	return hdr->class == ASN1_CLASS_UNIVERSAL &&
 175:C:/Users/stapi/OneDrive/Desktop/GD32VW553/V1_MQTT_OK/GD32VW55X_Wifi_BLE_SDK/GD32VW55x_RELEASE_V1.0.2/MSDK/wpa_supplicant/src/tls\asn1.h **** 		hdr->tag == ASN1_TAG_UTF8STRING;
 176:C:/Users/stapi/OneDrive/Desktop/GD32VW553/V1_MQTT_OK/GD32VW55X_Wifi_BLE_SDK/GD32VW55x_RELEASE_V1.0.2/MSDK/wpa_supplicant/src/tls\asn1.h **** }
 177:C:/Users/stapi/OneDrive/Desktop/GD32VW553/V1_MQTT_OK/GD32VW55X_Wifi_BLE_SDK/GD32VW55x_RELEASE_V1.0.2/MSDK/wpa_supplicant/src/tls\asn1.h **** 
 178:C:/Users/stapi/OneDrive/Desktop/GD32VW553/V1_MQTT_OK/GD32VW55X_Wifi_BLE_SDK/GD32VW55x_RELEASE_V1.0.2/MSDK/wpa_supplicant/src/tls\asn1.h **** static inline bool asn1_is_null(const struct asn1_hdr *hdr)
 179:C:/Users/stapi/OneDrive/Desktop/GD32VW553/V1_MQTT_OK/GD32VW55X_Wifi_BLE_SDK/GD32VW55x_RELEASE_V1.0.2/MSDK/wpa_supplicant/src/tls\asn1.h **** {
 180:C:/Users/stapi/OneDrive/Desktop/GD32VW553/V1_MQTT_OK/GD32VW55X_Wifi_BLE_SDK/GD32VW55x_RELEASE_V1.0.2/MSDK/wpa_supplicant/src/tls\asn1.h **** 	return hdr->class == ASN1_CLASS_UNIVERSAL &&
 884              		.loc 2 180 2 is_stmt 1
 885              		.loc 2 180 44 is_stmt 0
 886 015a 83479102 		lbu	a5,41(sp)
 887 015e 91EB     		bne	a5,zero,.L59
 888 0160 3257     		lw	a4,44(sp)
 889 0162 9547     		li	a5,5
 890 0164 6317F700 		bne	a4,a5,.L59
 891              	.LVL100:
 892              	.LBE26:
 893              	.LBE25:
 287:C:/Users/stapi/OneDrive/Desktop/GD32VW553/V1_MQTT_OK/GD32VW55X_Wifi_BLE_SDK/GD32VW55x_RELEASE_V1.0.2/MSDK/wpa_supplicant/src/tls\pkcs1.c **** 		wpa_printf(MSG_DEBUG,
 894              		.loc 1 287 19
 895 0168 9257     		lw	a5,36(sp)
 896 016a 4257     		lw	a4,48(sp)
 897 016c BA97     		add	a5,a5,a4
 286:C:/Users/stapi/OneDrive/Desktop/GD32VW553/V1_MQTT_OK/GD32VW55X_Wifi_BLE_SDK/GD32VW55x_RELEASE_V1.0.2/MSDK/wpa_supplicant/src/tls\pkcs1.c **** 	     hdr.payload + hdr.length != da_end)) {
 898              		.loc 1 286 27
 899 016e 6387F400 		beq	s1,a5,.L58
 900              	.L59:
 288:C:/Users/stapi/OneDrive/Desktop/GD32VW553/V1_MQTT_OK/GD32VW55X_Wifi_BLE_SDK/GD32VW55x_RELEASE_V1.0.2/MSDK/wpa_supplicant/src/tls\pkcs1.c **** 			   "PKCS #1: Unexpected digest algorithm parameters");
 901              		.loc 1 288 3 is_stmt 1
 902 0172 B7050000 		lui	a1,%hi(.LC17)
 903 0176 93850500 		addi	a1,a1,%lo(.LC17)
 904 017a 79B7     		j	.L71
 905              	.L58:
 294:C:/Users/stapi/OneDrive/Desktop/GD32VW553/V1_MQTT_OK/GD32VW55X_Wifi_BLE_SDK/GD32VW55x_RELEASE_V1.0.2/MSDK/wpa_supplicant/src/tls\pkcs1.c **** 		char txt[100], txt2[100];
 906              		.loc 1 294 2
 294:C:/Users/stapi/OneDrive/Desktop/GD32VW553/V1_MQTT_OK/GD32VW55X_Wifi_BLE_SDK/GD32VW55x_RELEASE_V1.0.2/MSDK/wpa_supplicant/src/tls\pkcs1.c **** 		char txt[100], txt2[100];
 907              		.loc 1 294 7 is_stmt 0
 908 017c CE85     		mv	a1,s3
 909 017e 4818     		addi	a0,sp,52
 910 0180 97000000 		call	asn1_oid_equal
 910      E7800000 
 911              	.LVL101:
 294:C:/Users/stapi/OneDrive/Desktop/GD32VW553/V1_MQTT_OK/GD32VW55X_Wifi_BLE_SDK/GD32VW55x_RELEASE_V1.0.2/MSDK/wpa_supplicant/src/tls\pkcs1.c **** 		char txt[100], txt2[100];
 912              		.loc 1 294 5
 913 0188 0DED     		bne	a0,zero,.L60
 914              	.LBB27:
 295:C:/Users/stapi/OneDrive/Desktop/GD32VW553/V1_MQTT_OK/GD32VW55X_Wifi_BLE_SDK/GD32VW55x_RELEASE_V1.0.2/MSDK/wpa_supplicant/src/tls\pkcs1.c **** 		asn1_oid_to_str(&oid, txt, sizeof(txt));
 915              		.loc 1 295 3 is_stmt 1
 296:C:/Users/stapi/OneDrive/Desktop/GD32VW553/V1_MQTT_OK/GD32VW55X_Wifi_BLE_SDK/GD32VW55x_RELEASE_V1.0.2/MSDK/wpa_supplicant/src/tls\pkcs1.c **** 		asn1_oid_to_str(hash_alg, txt2, sizeof(txt2));
 916              		.loc 1 296 3
 917 018a 2C01     		addi	a1,sp,136
 918 018c 4818     		addi	a0,sp,52
 919 018e 13064006 		li	a2,100
 920 0192 97000000 		call	asn1_oid_to_str
 920      E7800000 
 921              	.LVL102:
 297:C:/Users/stapi/OneDrive/Desktop/GD32VW553/V1_MQTT_OK/GD32VW55X_Wifi_BLE_SDK/GD32VW55x_RELEASE_V1.0.2/MSDK/wpa_supplicant/src/tls\pkcs1.c **** 		wpa_printf(MSG_DEBUG,
 922              		.loc 1 297 3
 923 019a EC11     		addi	a1,sp,236
 924 019c 4E85     		mv	a0,s3
 925 019e 13064006 		li	a2,100
 926 01a2 97000000 		call	asn1_oid_to_str
 926      E7800000 
 927              	.LVL103:
 298:C:/Users/stapi/OneDrive/Desktop/GD32VW553/V1_MQTT_OK/GD32VW55X_Wifi_BLE_SDK/GD32VW55x_RELEASE_V1.0.2/MSDK/wpa_supplicant/src/tls\pkcs1.c **** 			   "PKCS #1: Hash alg OID mismatch: was %s, expected %s",
 928              		.loc 1 298 3
 929 01aa B7050000 		lui	a1,%hi(.LC18)
 930 01ae F411     		addi	a3,sp,236
 931 01b0 3001     		addi	a2,sp,136
 932 01b2 93850500 		addi	a1,a1,%lo(.LC18)
 933 01b6 0945     		li	a0,2
 934 01b8 97000000 		call	wpa_printf
 934      E7800000 
 935              	.LVL104:
 301:C:/Users/stapi/OneDrive/Desktop/GD32VW553/V1_MQTT_OK/GD32VW55X_Wifi_BLE_SDK/GD32VW55x_RELEASE_V1.0.2/MSDK/wpa_supplicant/src/tls\pkcs1.c **** 		return -1;
 936              		.loc 1 301 3
 937 01c0 89BF     		j	.L68
 938              	.L60:
 939              	.LBE27:
 306:C:/Users/stapi/OneDrive/Desktop/GD32VW553/V1_MQTT_OK/GD32VW55X_Wifi_BLE_SDK/GD32VW55x_RELEASE_V1.0.2/MSDK/wpa_supplicant/src/tls\pkcs1.c **** 
 940              		.loc 1 306 2
 941              	.LVL105:
 308:C:/Users/stapi/OneDrive/Desktop/GD32VW553/V1_MQTT_OK/GD32VW55X_Wifi_BLE_SDK/GD32VW55x_RELEASE_V1.0.2/MSDK/wpa_supplicant/src/tls\pkcs1.c **** 	    !asn1_is_octetstring(&hdr)) {
 942              		.loc 1 308 2
 308:C:/Users/stapi/OneDrive/Desktop/GD32VW553/V1_MQTT_OK/GD32VW55X_Wifi_BLE_SDK/GD32VW55x_RELEASE_V1.0.2/MSDK/wpa_supplicant/src/tls\pkcs1.c **** 	    !asn1_is_octetstring(&hdr)) {
 943              		.loc 1 308 6 is_stmt 0
 944 01c2 5010     		addi	a2,sp,36
 945 01c4 B3859A40 		sub	a1,s5,s1
 946 01c8 2685     		mv	a0,s1
 947 01ca 97000000 		call	asn1_get_next
 947      E7800000 
 948              	.LVL106:
 308:C:/Users/stapi/OneDrive/Desktop/GD32VW553/V1_MQTT_OK/GD32VW55X_Wifi_BLE_SDK/GD32VW55x_RELEASE_V1.0.2/MSDK/wpa_supplicant/src/tls\pkcs1.c **** 	    !asn1_is_octetstring(&hdr)) {
 949              		.loc 1 308 5
 950 01d2 634C0502 		blt	a0,zero,.L61
 951              	.LVL107:
 952              	.LBB28:
 953              	.LBB29:
 126:C:/Users/stapi/OneDrive/Desktop/GD32VW553/V1_MQTT_OK/GD32VW55X_Wifi_BLE_SDK/GD32VW55x_RELEASE_V1.0.2/MSDK/wpa_supplicant/src/tls\asn1.h **** 		hdr->tag == ASN1_TAG_OCTETSTRING;
 954              		.loc 2 126 2 is_stmt 1
 126:C:/Users/stapi/OneDrive/Desktop/GD32VW553/V1_MQTT_OK/GD32VW55X_Wifi_BLE_SDK/GD32VW55x_RELEASE_V1.0.2/MSDK/wpa_supplicant/src/tls\asn1.h **** 		hdr->tag == ASN1_TAG_OCTETSTRING;
 955              		.loc 2 126 44 is_stmt 0
 956 01d6 83479102 		lbu	a5,41(sp)
 957 01da 85EB     		bne	a5,zero,.L61
 958 01dc 3257     		lw	a4,44(sp)
 959 01de 9147     		li	a5,4
 960 01e0 6315F702 		bne	a4,a5,.L61
 961              	.LVL108:
 962              	.LBE29:
 963              	.LBE28:
 315:C:/Users/stapi/OneDrive/Desktop/GD32VW553/V1_MQTT_OK/GD32VW55X_Wifi_BLE_SDK/GD32VW55x_RELEASE_V1.0.2/MSDK/wpa_supplicant/src/tls\pkcs1.c **** 		    hdr.payload, hdr.length);
 964              		.loc 1 315 2 is_stmt 1
 965 01e4 C256     		lw	a3,48(sp)
 966 01e6 1256     		lw	a2,36(sp)
 967 01e8 B7050000 		lui	a1,%hi(.LC19)
 968 01ec 93850500 		addi	a1,a1,%lo(.LC19)
 969 01f0 0545     		li	a0,1
 970 01f2 97000000 		call	wpa_hexdump
 970      E7800000 
 971              	.LVL109:
 318:C:/Users/stapi/OneDrive/Desktop/GD32VW553/V1_MQTT_OK/GD32VW55X_Wifi_BLE_SDK/GD32VW55x_RELEASE_V1.0.2/MSDK/wpa_supplicant/src/tls\pkcs1.c **** 	    os_memcmp_const(hdr.payload, hash, hdr.length) != 0) {
 972              		.loc 1 318 2
 318:C:/Users/stapi/OneDrive/Desktop/GD32VW553/V1_MQTT_OK/GD32VW55X_Wifi_BLE_SDK/GD32VW55x_RELEASE_V1.0.2/MSDK/wpa_supplicant/src/tls\pkcs1.c **** 	    os_memcmp_const(hdr.payload, hash, hdr.length) != 0) {
 973              		.loc 1 318 9 is_stmt 0
 974 01fa C257     		lw	a5,48(sp)
 318:C:/Users/stapi/OneDrive/Desktop/GD32VW553/V1_MQTT_OK/GD32VW55X_Wifi_BLE_SDK/GD32VW55x_RELEASE_V1.0.2/MSDK/wpa_supplicant/src/tls\pkcs1.c **** 	    os_memcmp_const(hdr.payload, hash, hdr.length) != 0) {
 975              		.loc 1 318 5
 976 01fc 638C2701 		beq	a5,s2,.L62
 977              	.LVL110:
 978              	.L63:
 320:C:/Users/stapi/OneDrive/Desktop/GD32VW553/V1_MQTT_OK/GD32VW55X_Wifi_BLE_SDK/GD32VW55x_RELEASE_V1.0.2/MSDK/wpa_supplicant/src/tls\pkcs1.c **** 		os_free(decrypted);
 979              		.loc 1 320 3 is_stmt 1
 980 0200 B7050000 		lui	a1,%hi(.LC20)
 981 0204 93850500 		addi	a1,a1,%lo(.LC20)
 982 0208 35BD     		j	.L72
 983              	.LVL111:
 984              	.L61:
 310:C:/Users/stapi/OneDrive/Desktop/GD32VW553/V1_MQTT_OK/GD32VW55X_Wifi_BLE_SDK/GD32VW55x_RELEASE_V1.0.2/MSDK/wpa_supplicant/src/tls\pkcs1.c **** 				"PKCS #1: Expected OCTETSTRING (Digest)");
 985              		.loc 1 310 3
 986 020a B7050000 		lui	a1,%hi(.LC21)
 987 020e 93850500 		addi	a1,a1,%lo(.LC21)
 988 0212 6DB5     		j	.L69
 989              	.L62:
 319:C:/Users/stapi/OneDrive/Desktop/GD32VW553/V1_MQTT_OK/GD32VW55X_Wifi_BLE_SDK/GD32VW55x_RELEASE_V1.0.2/MSDK/wpa_supplicant/src/tls\pkcs1.c **** 		wpa_printf(MSG_INFO, "PKCS #1: Digest value does not match calculated hash");
 990              		.loc 1 319 6 is_stmt 0 discriminator 1
 991 0214 1255     		lw	a0,36(sp)
 992 0216 4A86     		mv	a2,s2
 993 0218 D285     		mv	a1,s4
 994 021a 97000000 		call	os_memcmp_const
 994      E7800000 
 995              	.LVL112:
 996 0222 AA84     		mv	s1,a0
 997              	.LVL113:
 318:C:/Users/stapi/OneDrive/Desktop/GD32VW553/V1_MQTT_OK/GD32VW55X_Wifi_BLE_SDK/GD32VW55x_RELEASE_V1.0.2/MSDK/wpa_supplicant/src/tls\pkcs1.c **** 	    os_memcmp_const(hdr.payload, hash, hdr.length) != 0) {
 998              		.loc 1 318 29 discriminator 1
 999 0224 71FD     		bne	a0,zero,.L63
 325:C:/Users/stapi/OneDrive/Desktop/GD32VW553/V1_MQTT_OK/GD32VW55X_Wifi_BLE_SDK/GD32VW55x_RELEASE_V1.0.2/MSDK/wpa_supplicant/src/tls\pkcs1.c **** 
 1000              		.loc 1 325 2 is_stmt 1
 1001 0226 2285     		mv	a0,s0
 1002 0228 97000000 		call	os_free
 1002      E7800000 
 1003              	.LVL114:
 327:C:/Users/stapi/OneDrive/Desktop/GD32VW553/V1_MQTT_OK/GD32VW55X_Wifi_BLE_SDK/GD32VW55x_RELEASE_V1.0.2/MSDK/wpa_supplicant/src/tls\pkcs1.c **** 		wpa_printf(MSG_INFO,
 1004              		.loc 1 327 2
 327:C:/Users/stapi/OneDrive/Desktop/GD32VW553/V1_MQTT_OK/GD32VW55X_Wifi_BLE_SDK/GD32VW55x_RELEASE_V1.0.2/MSDK/wpa_supplicant/src/tls\pkcs1.c **** 		wpa_printf(MSG_INFO,
 1005              		.loc 1 327 18 is_stmt 0
 1006 0230 C257     		lw	a5,48(sp)
 1007 0232 1257     		lw	a4,36(sp)
 1008 0234 3E97     		add	a4,a4,a5
 327:C:/Users/stapi/OneDrive/Desktop/GD32VW553/V1_MQTT_OK/GD32VW55X_Wifi_BLE_SDK/GD32VW55x_RELEASE_V1.0.2/MSDK/wpa_supplicant/src/tls\pkcs1.c **** 		wpa_printf(MSG_INFO,
 1009              		.loc 1 327 44
 1010 0236 F247     		lw	a5,28(sp)
 1011 0238 A297     		add	a5,s0,a5
 327:C:/Users/stapi/OneDrive/Desktop/GD32VW553/V1_MQTT_OK/GD32VW55X_Wifi_BLE_SDK/GD32VW55x_RELEASE_V1.0.2/MSDK/wpa_supplicant/src/tls\pkcs1.c **** 		wpa_printf(MSG_INFO,
 1012              		.loc 1 327 5
 1013 023a E302F7EE 		beq	a4,a5,.L50
 328:C:/Users/stapi/OneDrive/Desktop/GD32VW553/V1_MQTT_OK/GD32VW55X_Wifi_BLE_SDK/GD32VW55x_RELEASE_V1.0.2/MSDK/wpa_supplicant/src/tls\pkcs1.c **** 			   "PKCS #1: Extra data after signature - reject");
 1014              		.loc 1 328 3 is_stmt 1
 1015 023e B7050000 		lui	a1,%hi(.LC22)
 1016 0242 93850500 		addi	a1,a1,%lo(.LC22)
 1017 0246 0D45     		li	a0,3
 1018 0248 97000000 		call	wpa_printf
 1018      E7800000 
 1019              	.LVL115:
 331:C:/Users/stapi/OneDrive/Desktop/GD32VW553/V1_MQTT_OK/GD32VW55X_Wifi_BLE_SDK/GD32VW55x_RELEASE_V1.0.2/MSDK/wpa_supplicant/src/tls\pkcs1.c **** 			    hdr.payload + hdr.length,
 1020              		.loc 1 331 3
 333:C:/Users/stapi/OneDrive/Desktop/GD32VW553/V1_MQTT_OK/GD32VW55X_Wifi_BLE_SDK/GD32VW55x_RELEASE_V1.0.2/MSDK/wpa_supplicant/src/tls\pkcs1.c **** 			    hdr.length);
 1021              		.loc 1 333 18 is_stmt 0
 1022 0250 F246     		lw	a3,28(sp)
 332:C:/Users/stapi/OneDrive/Desktop/GD32VW553/V1_MQTT_OK/GD32VW55X_Wifi_BLE_SDK/GD32VW55x_RELEASE_V1.0.2/MSDK/wpa_supplicant/src/tls\pkcs1.c **** 			    decrypted + decrypted_len - hdr.payload -
 1023              		.loc 1 332 11
 1024 0252 1256     		lw	a2,36(sp)
 332:C:/Users/stapi/OneDrive/Desktop/GD32VW553/V1_MQTT_OK/GD32VW55X_Wifi_BLE_SDK/GD32VW55x_RELEASE_V1.0.2/MSDK/wpa_supplicant/src/tls\pkcs1.c **** 			    decrypted + decrypted_len - hdr.payload -
 1025              		.loc 1 332 25
 1026 0254 C257     		lw	a5,48(sp)
 333:C:/Users/stapi/OneDrive/Desktop/GD32VW553/V1_MQTT_OK/GD32VW55X_Wifi_BLE_SDK/GD32VW55x_RELEASE_V1.0.2/MSDK/wpa_supplicant/src/tls\pkcs1.c **** 			    hdr.length);
 1027              		.loc 1 333 18
 1028 0256 A296     		add	a3,s0,a3
 333:C:/Users/stapi/OneDrive/Desktop/GD32VW553/V1_MQTT_OK/GD32VW55X_Wifi_BLE_SDK/GD32VW55x_RELEASE_V1.0.2/MSDK/wpa_supplicant/src/tls\pkcs1.c **** 			    hdr.length);
 1029              		.loc 1 333 34
 1030 0258 918E     		sub	a3,a3,a2
 331:C:/Users/stapi/OneDrive/Desktop/GD32VW553/V1_MQTT_OK/GD32VW55X_Wifi_BLE_SDK/GD32VW55x_RELEASE_V1.0.2/MSDK/wpa_supplicant/src/tls\pkcs1.c **** 			    hdr.payload + hdr.length,
 1031              		.loc 1 331 3
 1032 025a B7050000 		lui	a1,%hi(.LC23)
 1033 025e 9D8E     		sub	a3,a3,a5
 1034 0260 3E96     		add	a2,a2,a5
 1035 0262 93850500 		addi	a1,a1,%lo(.LC23)
 1036 0266 0945     		li	a0,2
 1037 0268 97000000 		call	wpa_hexdump
 1037      E7800000 
 1038              	.LVL116:
 335:C:/Users/stapi/OneDrive/Desktop/GD32VW553/V1_MQTT_OK/GD32VW55X_Wifi_BLE_SDK/GD32VW55x_RELEASE_V1.0.2/MSDK/wpa_supplicant/src/tls\pkcs1.c **** 	}
 1039              		.loc 1 335 3 is_stmt 1
 1040 0270 75B5     		j	.L64
 1041              		.cfi_endproc
 1042              	.LFE90:
 1044              		.section	.rodata.__func__.0,"a"
 1045              		.align	2
 1046              		.set	.LANCHOR0,. + 0
 1049              	__func__.0:
 1050 0000 706B6373 		.string	"pkcs1_generate_encryption_block"
 1050      315F6765 
 1050      6E657261 
 1050      74655F65 
 1050      6E637279 
 1051              		.text
 1052              	.Letext0:
 1053              		.file 3 "c:\\users\\stapi\\onedrive\\desktop\\gd32vw553\\embeddedbuilder_v1.4.7.26843\\tools\\nucl
 1054              		.file 4 "c:\\users\\stapi\\onedrive\\desktop\\gd32vw553\\embeddedbuilder_v1.4.7.26843\\tools\\nucl
 1055              		.file 5 "c:\\users\\stapi\\onedrive\\desktop\\gd32vw553\\embeddedbuilder_v1.4.7.26843\\tools\\nucl
 1056              		.file 6 "..\\..\\..\\..\\wpa_supplicant\\src\\utils/wpa_debug.h"
 1057              		.file 7 "..\\..\\..\\..\\wpa_supplicant\\src\\utils/os.h"
 1058              		.file 8 "..\\..\\..\\..\\wpa_supplicant\\src/crypto/crypto.h"
 1059              		.file 9 "C:/Users/stapi/OneDrive/Desktop/GD32VW553/V1_MQTT_OK/GD32VW55X_Wifi_BLE_SDK/GD32VW55x_REL
 1060              		.file 10 "..\\..\\..\\..\\wpa_supplicant\\src\\utils/common.h"