   1              		.file	"pkcs5.c"
   2              		.option nopic
   3              		.attribute arch, "rv32i2p0_m2p0_a2p0_f2p0_c2p0_b_p0p94"
   4              		.attribute unaligned_access, 0
   5              		.attribute stack_align, 16
   6              		.text
   7              	.Ltext0:
   8              		.cfi_sections	.debug_frame
   9              		.section	.text.asn1_is_sequence,"ax",@progbits
  10              		.align	1
  12              	asn1_is_sequence:
  13              	.LFB75:
  14              		.file 1 "C:/Users/stapi/OneDrive/Desktop/GD32VW553/V1_MQTT_OK/GD32VW55X_Wifi_BLE_SDK/GD32VW55x_REL
   1:C:/Users/stapi/OneDrive/Desktop/GD32VW553/V1_MQTT_OK/GD32VW55X_Wifi_BLE_SDK/GD32VW55x_RELEASE_V1.0.2/MSDK/wpa_supplicant/src/tls\asn1.h **** /*
   2:C:/Users/stapi/OneDrive/Desktop/GD32VW553/V1_MQTT_OK/GD32VW55X_Wifi_BLE_SDK/GD32VW55x_RELEASE_V1.0.2/MSDK/wpa_supplicant/src/tls\asn1.h ****  * ASN.1 DER parsing
   3:C:/Users/stapi/OneDrive/Desktop/GD32VW553/V1_MQTT_OK/GD32VW55X_Wifi_BLE_SDK/GD32VW55x_RELEASE_V1.0.2/MSDK/wpa_supplicant/src/tls\asn1.h ****  * Copyright (c) 2006, Jouni Malinen <j@w1.fi>
   4:C:/Users/stapi/OneDrive/Desktop/GD32VW553/V1_MQTT_OK/GD32VW55X_Wifi_BLE_SDK/GD32VW55x_RELEASE_V1.0.2/MSDK/wpa_supplicant/src/tls\asn1.h ****  *
   5:C:/Users/stapi/OneDrive/Desktop/GD32VW553/V1_MQTT_OK/GD32VW55X_Wifi_BLE_SDK/GD32VW55x_RELEASE_V1.0.2/MSDK/wpa_supplicant/src/tls\asn1.h ****  * This software may be distributed under the terms of the BSD license.
   6:C:/Users/stapi/OneDrive/Desktop/GD32VW553/V1_MQTT_OK/GD32VW55X_Wifi_BLE_SDK/GD32VW55x_RELEASE_V1.0.2/MSDK/wpa_supplicant/src/tls\asn1.h ****  * See README for more details.
   7:C:/Users/stapi/OneDrive/Desktop/GD32VW553/V1_MQTT_OK/GD32VW55X_Wifi_BLE_SDK/GD32VW55x_RELEASE_V1.0.2/MSDK/wpa_supplicant/src/tls\asn1.h ****  */
   8:C:/Users/stapi/OneDrive/Desktop/GD32VW553/V1_MQTT_OK/GD32VW55X_Wifi_BLE_SDK/GD32VW55x_RELEASE_V1.0.2/MSDK/wpa_supplicant/src/tls\asn1.h **** 
   9:C:/Users/stapi/OneDrive/Desktop/GD32VW553/V1_MQTT_OK/GD32VW55X_Wifi_BLE_SDK/GD32VW55x_RELEASE_V1.0.2/MSDK/wpa_supplicant/src/tls\asn1.h **** #ifndef ASN1_H
  10:C:/Users/stapi/OneDrive/Desktop/GD32VW553/V1_MQTT_OK/GD32VW55X_Wifi_BLE_SDK/GD32VW55x_RELEASE_V1.0.2/MSDK/wpa_supplicant/src/tls\asn1.h **** #define ASN1_H
  11:C:/Users/stapi/OneDrive/Desktop/GD32VW553/V1_MQTT_OK/GD32VW55X_Wifi_BLE_SDK/GD32VW55x_RELEASE_V1.0.2/MSDK/wpa_supplicant/src/tls\asn1.h **** 
  12:C:/Users/stapi/OneDrive/Desktop/GD32VW553/V1_MQTT_OK/GD32VW55X_Wifi_BLE_SDK/GD32VW55x_RELEASE_V1.0.2/MSDK/wpa_supplicant/src/tls\asn1.h **** #define ASN1_TAG_EOC		0x00 /* not used with DER */
  13:C:/Users/stapi/OneDrive/Desktop/GD32VW553/V1_MQTT_OK/GD32VW55X_Wifi_BLE_SDK/GD32VW55x_RELEASE_V1.0.2/MSDK/wpa_supplicant/src/tls\asn1.h **** #define ASN1_TAG_BOOLEAN	0x01
  14:C:/Users/stapi/OneDrive/Desktop/GD32VW553/V1_MQTT_OK/GD32VW55X_Wifi_BLE_SDK/GD32VW55x_RELEASE_V1.0.2/MSDK/wpa_supplicant/src/tls\asn1.h **** #define ASN1_TAG_INTEGER	0x02
  15:C:/Users/stapi/OneDrive/Desktop/GD32VW553/V1_MQTT_OK/GD32VW55X_Wifi_BLE_SDK/GD32VW55x_RELEASE_V1.0.2/MSDK/wpa_supplicant/src/tls\asn1.h **** #define ASN1_TAG_BITSTRING	0x03
  16:C:/Users/stapi/OneDrive/Desktop/GD32VW553/V1_MQTT_OK/GD32VW55X_Wifi_BLE_SDK/GD32VW55x_RELEASE_V1.0.2/MSDK/wpa_supplicant/src/tls\asn1.h **** #define ASN1_TAG_OCTETSTRING	0x04
  17:C:/Users/stapi/OneDrive/Desktop/GD32VW553/V1_MQTT_OK/GD32VW55X_Wifi_BLE_SDK/GD32VW55x_RELEASE_V1.0.2/MSDK/wpa_supplicant/src/tls\asn1.h **** #define ASN1_TAG_NULL		0x05
  18:C:/Users/stapi/OneDrive/Desktop/GD32VW553/V1_MQTT_OK/GD32VW55X_Wifi_BLE_SDK/GD32VW55x_RELEASE_V1.0.2/MSDK/wpa_supplicant/src/tls\asn1.h **** #define ASN1_TAG_OID		0x06
  19:C:/Users/stapi/OneDrive/Desktop/GD32VW553/V1_MQTT_OK/GD32VW55X_Wifi_BLE_SDK/GD32VW55x_RELEASE_V1.0.2/MSDK/wpa_supplicant/src/tls\asn1.h **** #define ASN1_TAG_OBJECT_DESCRIPTOR	0x07 /* not yet parsed */
  20:C:/Users/stapi/OneDrive/Desktop/GD32VW553/V1_MQTT_OK/GD32VW55X_Wifi_BLE_SDK/GD32VW55x_RELEASE_V1.0.2/MSDK/wpa_supplicant/src/tls\asn1.h **** #define ASN1_TAG_EXTERNAL	0x08 /* not yet parsed */
  21:C:/Users/stapi/OneDrive/Desktop/GD32VW553/V1_MQTT_OK/GD32VW55X_Wifi_BLE_SDK/GD32VW55x_RELEASE_V1.0.2/MSDK/wpa_supplicant/src/tls\asn1.h **** #define ASN1_TAG_REAL		0x09 /* not yet parsed */
  22:C:/Users/stapi/OneDrive/Desktop/GD32VW553/V1_MQTT_OK/GD32VW55X_Wifi_BLE_SDK/GD32VW55x_RELEASE_V1.0.2/MSDK/wpa_supplicant/src/tls\asn1.h **** #define ASN1_TAG_ENUMERATED	0x0A /* not yet parsed */
  23:C:/Users/stapi/OneDrive/Desktop/GD32VW553/V1_MQTT_OK/GD32VW55X_Wifi_BLE_SDK/GD32VW55x_RELEASE_V1.0.2/MSDK/wpa_supplicant/src/tls\asn1.h **** #define ASN1_TAG_EMBEDDED_PDV	0x0B /* not yet parsed */
  24:C:/Users/stapi/OneDrive/Desktop/GD32VW553/V1_MQTT_OK/GD32VW55X_Wifi_BLE_SDK/GD32VW55x_RELEASE_V1.0.2/MSDK/wpa_supplicant/src/tls\asn1.h **** #define ASN1_TAG_UTF8STRING	0x0C /* not yet parsed */
  25:C:/Users/stapi/OneDrive/Desktop/GD32VW553/V1_MQTT_OK/GD32VW55X_Wifi_BLE_SDK/GD32VW55x_RELEASE_V1.0.2/MSDK/wpa_supplicant/src/tls\asn1.h **** #define ANS1_TAG_RELATIVE_OID	0x0D
  26:C:/Users/stapi/OneDrive/Desktop/GD32VW553/V1_MQTT_OK/GD32VW55X_Wifi_BLE_SDK/GD32VW55x_RELEASE_V1.0.2/MSDK/wpa_supplicant/src/tls\asn1.h **** #define ASN1_TAG_TIME		0x0E
  27:C:/Users/stapi/OneDrive/Desktop/GD32VW553/V1_MQTT_OK/GD32VW55X_Wifi_BLE_SDK/GD32VW55x_RELEASE_V1.0.2/MSDK/wpa_supplicant/src/tls\asn1.h **** #define ASN1_TAG_SEQUENCE	0x10 /* shall be constructed */
  28:C:/Users/stapi/OneDrive/Desktop/GD32VW553/V1_MQTT_OK/GD32VW55X_Wifi_BLE_SDK/GD32VW55x_RELEASE_V1.0.2/MSDK/wpa_supplicant/src/tls\asn1.h **** #define ASN1_TAG_SET		0x11
  29:C:/Users/stapi/OneDrive/Desktop/GD32VW553/V1_MQTT_OK/GD32VW55X_Wifi_BLE_SDK/GD32VW55x_RELEASE_V1.0.2/MSDK/wpa_supplicant/src/tls\asn1.h **** #define ASN1_TAG_NUMERICSTRING	0x12 /* not yet parsed */
  30:C:/Users/stapi/OneDrive/Desktop/GD32VW553/V1_MQTT_OK/GD32VW55X_Wifi_BLE_SDK/GD32VW55x_RELEASE_V1.0.2/MSDK/wpa_supplicant/src/tls\asn1.h **** #define ASN1_TAG_PRINTABLESTRING	0x13
  31:C:/Users/stapi/OneDrive/Desktop/GD32VW553/V1_MQTT_OK/GD32VW55X_Wifi_BLE_SDK/GD32VW55x_RELEASE_V1.0.2/MSDK/wpa_supplicant/src/tls\asn1.h **** #define ASN1_TAG_T61STRING	0x14 /* not yet parsed */
  32:C:/Users/stapi/OneDrive/Desktop/GD32VW553/V1_MQTT_OK/GD32VW55X_Wifi_BLE_SDK/GD32VW55x_RELEASE_V1.0.2/MSDK/wpa_supplicant/src/tls\asn1.h **** #define ASN1_TAG_VIDEOTEXSTRING	0x15 /* not yet parsed */
  33:C:/Users/stapi/OneDrive/Desktop/GD32VW553/V1_MQTT_OK/GD32VW55X_Wifi_BLE_SDK/GD32VW55x_RELEASE_V1.0.2/MSDK/wpa_supplicant/src/tls\asn1.h **** #define ASN1_TAG_IA5STRING	0x16
  34:C:/Users/stapi/OneDrive/Desktop/GD32VW553/V1_MQTT_OK/GD32VW55X_Wifi_BLE_SDK/GD32VW55x_RELEASE_V1.0.2/MSDK/wpa_supplicant/src/tls\asn1.h **** #define ASN1_TAG_UTCTIME	0x17
  35:C:/Users/stapi/OneDrive/Desktop/GD32VW553/V1_MQTT_OK/GD32VW55X_Wifi_BLE_SDK/GD32VW55x_RELEASE_V1.0.2/MSDK/wpa_supplicant/src/tls\asn1.h **** #define ASN1_TAG_GENERALIZEDTIME	0x18 /* not yet parsed */
  36:C:/Users/stapi/OneDrive/Desktop/GD32VW553/V1_MQTT_OK/GD32VW55X_Wifi_BLE_SDK/GD32VW55x_RELEASE_V1.0.2/MSDK/wpa_supplicant/src/tls\asn1.h **** #define ASN1_TAG_GRAPHICSTRING	0x19 /* not yet parsed */
  37:C:/Users/stapi/OneDrive/Desktop/GD32VW553/V1_MQTT_OK/GD32VW55X_Wifi_BLE_SDK/GD32VW55x_RELEASE_V1.0.2/MSDK/wpa_supplicant/src/tls\asn1.h **** #define ASN1_TAG_VISIBLESTRING	0x1A
  38:C:/Users/stapi/OneDrive/Desktop/GD32VW553/V1_MQTT_OK/GD32VW55X_Wifi_BLE_SDK/GD32VW55x_RELEASE_V1.0.2/MSDK/wpa_supplicant/src/tls\asn1.h **** #define ASN1_TAG_GENERALSTRING	0x1B /* not yet parsed */
  39:C:/Users/stapi/OneDrive/Desktop/GD32VW553/V1_MQTT_OK/GD32VW55X_Wifi_BLE_SDK/GD32VW55x_RELEASE_V1.0.2/MSDK/wpa_supplicant/src/tls\asn1.h **** #define ASN1_TAG_UNIVERSALSTRING	0x1C /* not yet parsed */
  40:C:/Users/stapi/OneDrive/Desktop/GD32VW553/V1_MQTT_OK/GD32VW55X_Wifi_BLE_SDK/GD32VW55x_RELEASE_V1.0.2/MSDK/wpa_supplicant/src/tls\asn1.h **** #define ASN1_TAG_CHARACTERSTRING	0x1D /* not yet parsed */
  41:C:/Users/stapi/OneDrive/Desktop/GD32VW553/V1_MQTT_OK/GD32VW55X_Wifi_BLE_SDK/GD32VW55x_RELEASE_V1.0.2/MSDK/wpa_supplicant/src/tls\asn1.h **** #define ASN1_TAG_BMPSTRING	0x1E /* not yet parsed */
  42:C:/Users/stapi/OneDrive/Desktop/GD32VW553/V1_MQTT_OK/GD32VW55X_Wifi_BLE_SDK/GD32VW55x_RELEASE_V1.0.2/MSDK/wpa_supplicant/src/tls\asn1.h **** 
  43:C:/Users/stapi/OneDrive/Desktop/GD32VW553/V1_MQTT_OK/GD32VW55X_Wifi_BLE_SDK/GD32VW55x_RELEASE_V1.0.2/MSDK/wpa_supplicant/src/tls\asn1.h **** #define ASN1_CLASS_UNIVERSAL		0
  44:C:/Users/stapi/OneDrive/Desktop/GD32VW553/V1_MQTT_OK/GD32VW55X_Wifi_BLE_SDK/GD32VW55x_RELEASE_V1.0.2/MSDK/wpa_supplicant/src/tls\asn1.h **** #define ASN1_CLASS_APPLICATION		1
  45:C:/Users/stapi/OneDrive/Desktop/GD32VW553/V1_MQTT_OK/GD32VW55X_Wifi_BLE_SDK/GD32VW55x_RELEASE_V1.0.2/MSDK/wpa_supplicant/src/tls\asn1.h **** #define ASN1_CLASS_CONTEXT_SPECIFIC	2
  46:C:/Users/stapi/OneDrive/Desktop/GD32VW553/V1_MQTT_OK/GD32VW55X_Wifi_BLE_SDK/GD32VW55x_RELEASE_V1.0.2/MSDK/wpa_supplicant/src/tls\asn1.h **** #define ASN1_CLASS_PRIVATE		3
  47:C:/Users/stapi/OneDrive/Desktop/GD32VW553/V1_MQTT_OK/GD32VW55X_Wifi_BLE_SDK/GD32VW55x_RELEASE_V1.0.2/MSDK/wpa_supplicant/src/tls\asn1.h **** 
  48:C:/Users/stapi/OneDrive/Desktop/GD32VW553/V1_MQTT_OK/GD32VW55X_Wifi_BLE_SDK/GD32VW55x_RELEASE_V1.0.2/MSDK/wpa_supplicant/src/tls\asn1.h **** 
  49:C:/Users/stapi/OneDrive/Desktop/GD32VW553/V1_MQTT_OK/GD32VW55X_Wifi_BLE_SDK/GD32VW55x_RELEASE_V1.0.2/MSDK/wpa_supplicant/src/tls\asn1.h **** struct asn1_hdr {
  50:C:/Users/stapi/OneDrive/Desktop/GD32VW553/V1_MQTT_OK/GD32VW55X_Wifi_BLE_SDK/GD32VW55x_RELEASE_V1.0.2/MSDK/wpa_supplicant/src/tls\asn1.h **** 	const u8 *payload;
  51:C:/Users/stapi/OneDrive/Desktop/GD32VW553/V1_MQTT_OK/GD32VW55X_Wifi_BLE_SDK/GD32VW55x_RELEASE_V1.0.2/MSDK/wpa_supplicant/src/tls\asn1.h **** 	u8 identifier, class, constructed;
  52:C:/Users/stapi/OneDrive/Desktop/GD32VW553/V1_MQTT_OK/GD32VW55X_Wifi_BLE_SDK/GD32VW55x_RELEASE_V1.0.2/MSDK/wpa_supplicant/src/tls\asn1.h **** 	unsigned int tag, length;
  53:C:/Users/stapi/OneDrive/Desktop/GD32VW553/V1_MQTT_OK/GD32VW55X_Wifi_BLE_SDK/GD32VW55x_RELEASE_V1.0.2/MSDK/wpa_supplicant/src/tls\asn1.h **** };
  54:C:/Users/stapi/OneDrive/Desktop/GD32VW553/V1_MQTT_OK/GD32VW55X_Wifi_BLE_SDK/GD32VW55x_RELEASE_V1.0.2/MSDK/wpa_supplicant/src/tls\asn1.h **** 
  55:C:/Users/stapi/OneDrive/Desktop/GD32VW553/V1_MQTT_OK/GD32VW55X_Wifi_BLE_SDK/GD32VW55x_RELEASE_V1.0.2/MSDK/wpa_supplicant/src/tls\asn1.h **** #define ASN1_MAX_OID_LEN 20
  56:C:/Users/stapi/OneDrive/Desktop/GD32VW553/V1_MQTT_OK/GD32VW55X_Wifi_BLE_SDK/GD32VW55x_RELEASE_V1.0.2/MSDK/wpa_supplicant/src/tls\asn1.h **** struct asn1_oid {
  57:C:/Users/stapi/OneDrive/Desktop/GD32VW553/V1_MQTT_OK/GD32VW55X_Wifi_BLE_SDK/GD32VW55x_RELEASE_V1.0.2/MSDK/wpa_supplicant/src/tls\asn1.h **** 	unsigned long oid[ASN1_MAX_OID_LEN];
  58:C:/Users/stapi/OneDrive/Desktop/GD32VW553/V1_MQTT_OK/GD32VW55X_Wifi_BLE_SDK/GD32VW55x_RELEASE_V1.0.2/MSDK/wpa_supplicant/src/tls\asn1.h **** 	size_t len;
  59:C:/Users/stapi/OneDrive/Desktop/GD32VW553/V1_MQTT_OK/GD32VW55X_Wifi_BLE_SDK/GD32VW55x_RELEASE_V1.0.2/MSDK/wpa_supplicant/src/tls\asn1.h **** };
  60:C:/Users/stapi/OneDrive/Desktop/GD32VW553/V1_MQTT_OK/GD32VW55X_Wifi_BLE_SDK/GD32VW55x_RELEASE_V1.0.2/MSDK/wpa_supplicant/src/tls\asn1.h **** 
  61:C:/Users/stapi/OneDrive/Desktop/GD32VW553/V1_MQTT_OK/GD32VW55X_Wifi_BLE_SDK/GD32VW55x_RELEASE_V1.0.2/MSDK/wpa_supplicant/src/tls\asn1.h **** 
  62:C:/Users/stapi/OneDrive/Desktop/GD32VW553/V1_MQTT_OK/GD32VW55X_Wifi_BLE_SDK/GD32VW55x_RELEASE_V1.0.2/MSDK/wpa_supplicant/src/tls\asn1.h **** int asn1_get_next(const u8 *buf, size_t len, struct asn1_hdr *hdr);
  63:C:/Users/stapi/OneDrive/Desktop/GD32VW553/V1_MQTT_OK/GD32VW55X_Wifi_BLE_SDK/GD32VW55x_RELEASE_V1.0.2/MSDK/wpa_supplicant/src/tls\asn1.h **** void asn1_print_hdr(const struct asn1_hdr *hdr, const char *title);
  64:C:/Users/stapi/OneDrive/Desktop/GD32VW553/V1_MQTT_OK/GD32VW55X_Wifi_BLE_SDK/GD32VW55x_RELEASE_V1.0.2/MSDK/wpa_supplicant/src/tls\asn1.h **** void asn1_unexpected(const struct asn1_hdr *hdr, const char *title);
  65:C:/Users/stapi/OneDrive/Desktop/GD32VW553/V1_MQTT_OK/GD32VW55X_Wifi_BLE_SDK/GD32VW55x_RELEASE_V1.0.2/MSDK/wpa_supplicant/src/tls\asn1.h **** int asn1_parse_oid(const u8 *buf, size_t len, struct asn1_oid *oid);
  66:C:/Users/stapi/OneDrive/Desktop/GD32VW553/V1_MQTT_OK/GD32VW55X_Wifi_BLE_SDK/GD32VW55x_RELEASE_V1.0.2/MSDK/wpa_supplicant/src/tls\asn1.h **** int asn1_get_oid(const u8 *buf, size_t len, struct asn1_oid *oid,
  67:C:/Users/stapi/OneDrive/Desktop/GD32VW553/V1_MQTT_OK/GD32VW55X_Wifi_BLE_SDK/GD32VW55x_RELEASE_V1.0.2/MSDK/wpa_supplicant/src/tls\asn1.h **** 		 const u8 **next);
  68:C:/Users/stapi/OneDrive/Desktop/GD32VW553/V1_MQTT_OK/GD32VW55X_Wifi_BLE_SDK/GD32VW55x_RELEASE_V1.0.2/MSDK/wpa_supplicant/src/tls\asn1.h **** void asn1_oid_to_str(const struct asn1_oid *oid, char *buf, size_t len);
  69:C:/Users/stapi/OneDrive/Desktop/GD32VW553/V1_MQTT_OK/GD32VW55X_Wifi_BLE_SDK/GD32VW55x_RELEASE_V1.0.2/MSDK/wpa_supplicant/src/tls\asn1.h **** unsigned long asn1_bit_string_to_long(const u8 *buf, size_t len);
  70:C:/Users/stapi/OneDrive/Desktop/GD32VW553/V1_MQTT_OK/GD32VW55X_Wifi_BLE_SDK/GD32VW55x_RELEASE_V1.0.2/MSDK/wpa_supplicant/src/tls\asn1.h **** int asn1_oid_equal(const struct asn1_oid *a, const struct asn1_oid *b);
  71:C:/Users/stapi/OneDrive/Desktop/GD32VW553/V1_MQTT_OK/GD32VW55X_Wifi_BLE_SDK/GD32VW55x_RELEASE_V1.0.2/MSDK/wpa_supplicant/src/tls\asn1.h **** int asn1_get_integer(const u8 *buf, size_t len, int *integer, const u8 **next);
  72:C:/Users/stapi/OneDrive/Desktop/GD32VW553/V1_MQTT_OK/GD32VW55X_Wifi_BLE_SDK/GD32VW55x_RELEASE_V1.0.2/MSDK/wpa_supplicant/src/tls\asn1.h **** int asn1_get_sequence(const u8 *buf, size_t len, struct asn1_hdr *hdr,
  73:C:/Users/stapi/OneDrive/Desktop/GD32VW553/V1_MQTT_OK/GD32VW55X_Wifi_BLE_SDK/GD32VW55x_RELEASE_V1.0.2/MSDK/wpa_supplicant/src/tls\asn1.h **** 		      const u8 **next);
  74:C:/Users/stapi/OneDrive/Desktop/GD32VW553/V1_MQTT_OK/GD32VW55X_Wifi_BLE_SDK/GD32VW55x_RELEASE_V1.0.2/MSDK/wpa_supplicant/src/tls\asn1.h **** int asn1_get_alg_id(const u8 *buf, size_t len, struct asn1_oid *oid,
  75:C:/Users/stapi/OneDrive/Desktop/GD32VW553/V1_MQTT_OK/GD32VW55X_Wifi_BLE_SDK/GD32VW55x_RELEASE_V1.0.2/MSDK/wpa_supplicant/src/tls\asn1.h **** 		    const u8 **params, size_t *params_len, const u8 **next);
  76:C:/Users/stapi/OneDrive/Desktop/GD32VW553/V1_MQTT_OK/GD32VW55X_Wifi_BLE_SDK/GD32VW55x_RELEASE_V1.0.2/MSDK/wpa_supplicant/src/tls\asn1.h **** void asn1_put_integer(struct wpabuf *buf, int val);
  77:C:/Users/stapi/OneDrive/Desktop/GD32VW553/V1_MQTT_OK/GD32VW55X_Wifi_BLE_SDK/GD32VW55x_RELEASE_V1.0.2/MSDK/wpa_supplicant/src/tls\asn1.h **** void asn1_put_octet_string(struct wpabuf *buf, const struct wpabuf *val);
  78:C:/Users/stapi/OneDrive/Desktop/GD32VW553/V1_MQTT_OK/GD32VW55X_Wifi_BLE_SDK/GD32VW55x_RELEASE_V1.0.2/MSDK/wpa_supplicant/src/tls\asn1.h **** void asn1_put_oid(struct wpabuf *buf, const struct asn1_oid *oid);
  79:C:/Users/stapi/OneDrive/Desktop/GD32VW553/V1_MQTT_OK/GD32VW55X_Wifi_BLE_SDK/GD32VW55x_RELEASE_V1.0.2/MSDK/wpa_supplicant/src/tls\asn1.h **** void asn1_put_hdr(struct wpabuf *buf, u8 class, int constructed, u8 tag,
  80:C:/Users/stapi/OneDrive/Desktop/GD32VW553/V1_MQTT_OK/GD32VW55X_Wifi_BLE_SDK/GD32VW55x_RELEASE_V1.0.2/MSDK/wpa_supplicant/src/tls\asn1.h **** 		  size_t len);
  81:C:/Users/stapi/OneDrive/Desktop/GD32VW553/V1_MQTT_OK/GD32VW55X_Wifi_BLE_SDK/GD32VW55x_RELEASE_V1.0.2/MSDK/wpa_supplicant/src/tls\asn1.h **** void asn1_put_sequence(struct wpabuf *buf, const struct wpabuf *payload);
  82:C:/Users/stapi/OneDrive/Desktop/GD32VW553/V1_MQTT_OK/GD32VW55X_Wifi_BLE_SDK/GD32VW55x_RELEASE_V1.0.2/MSDK/wpa_supplicant/src/tls\asn1.h **** void asn1_put_set(struct wpabuf *buf, const struct wpabuf *payload);
  83:C:/Users/stapi/OneDrive/Desktop/GD32VW553/V1_MQTT_OK/GD32VW55X_Wifi_BLE_SDK/GD32VW55x_RELEASE_V1.0.2/MSDK/wpa_supplicant/src/tls\asn1.h **** void asn1_put_utf8string(struct wpabuf *buf, const char *val);
  84:C:/Users/stapi/OneDrive/Desktop/GD32VW553/V1_MQTT_OK/GD32VW55X_Wifi_BLE_SDK/GD32VW55x_RELEASE_V1.0.2/MSDK/wpa_supplicant/src/tls\asn1.h **** struct wpabuf * asn1_build_alg_id(const struct asn1_oid *oid,
  85:C:/Users/stapi/OneDrive/Desktop/GD32VW553/V1_MQTT_OK/GD32VW55X_Wifi_BLE_SDK/GD32VW55x_RELEASE_V1.0.2/MSDK/wpa_supplicant/src/tls\asn1.h **** 				  const struct wpabuf *params);
  86:C:/Users/stapi/OneDrive/Desktop/GD32VW553/V1_MQTT_OK/GD32VW55X_Wifi_BLE_SDK/GD32VW55x_RELEASE_V1.0.2/MSDK/wpa_supplicant/src/tls\asn1.h **** struct wpabuf * asn1_encaps(struct wpabuf *buf, u8 class, u8 tag);
  87:C:/Users/stapi/OneDrive/Desktop/GD32VW553/V1_MQTT_OK/GD32VW55X_Wifi_BLE_SDK/GD32VW55x_RELEASE_V1.0.2/MSDK/wpa_supplicant/src/tls\asn1.h **** 
  88:C:/Users/stapi/OneDrive/Desktop/GD32VW553/V1_MQTT_OK/GD32VW55X_Wifi_BLE_SDK/GD32VW55x_RELEASE_V1.0.2/MSDK/wpa_supplicant/src/tls\asn1.h **** static inline bool asn1_is_oid(const struct asn1_hdr *hdr)
  89:C:/Users/stapi/OneDrive/Desktop/GD32VW553/V1_MQTT_OK/GD32VW55X_Wifi_BLE_SDK/GD32VW55x_RELEASE_V1.0.2/MSDK/wpa_supplicant/src/tls\asn1.h **** {
  90:C:/Users/stapi/OneDrive/Desktop/GD32VW553/V1_MQTT_OK/GD32VW55X_Wifi_BLE_SDK/GD32VW55x_RELEASE_V1.0.2/MSDK/wpa_supplicant/src/tls\asn1.h **** 	return hdr->class == ASN1_CLASS_UNIVERSAL &&
  91:C:/Users/stapi/OneDrive/Desktop/GD32VW553/V1_MQTT_OK/GD32VW55X_Wifi_BLE_SDK/GD32VW55x_RELEASE_V1.0.2/MSDK/wpa_supplicant/src/tls\asn1.h **** 		hdr->tag == ASN1_TAG_OID;
  92:C:/Users/stapi/OneDrive/Desktop/GD32VW553/V1_MQTT_OK/GD32VW55X_Wifi_BLE_SDK/GD32VW55x_RELEASE_V1.0.2/MSDK/wpa_supplicant/src/tls\asn1.h **** }
  93:C:/Users/stapi/OneDrive/Desktop/GD32VW553/V1_MQTT_OK/GD32VW55X_Wifi_BLE_SDK/GD32VW55x_RELEASE_V1.0.2/MSDK/wpa_supplicant/src/tls\asn1.h **** 
  94:C:/Users/stapi/OneDrive/Desktop/GD32VW553/V1_MQTT_OK/GD32VW55X_Wifi_BLE_SDK/GD32VW55x_RELEASE_V1.0.2/MSDK/wpa_supplicant/src/tls\asn1.h **** static inline bool asn1_is_boolean(const struct asn1_hdr *hdr)
  95:C:/Users/stapi/OneDrive/Desktop/GD32VW553/V1_MQTT_OK/GD32VW55X_Wifi_BLE_SDK/GD32VW55x_RELEASE_V1.0.2/MSDK/wpa_supplicant/src/tls\asn1.h **** {
  96:C:/Users/stapi/OneDrive/Desktop/GD32VW553/V1_MQTT_OK/GD32VW55X_Wifi_BLE_SDK/GD32VW55x_RELEASE_V1.0.2/MSDK/wpa_supplicant/src/tls\asn1.h **** 	return hdr->class == ASN1_CLASS_UNIVERSAL &&
  97:C:/Users/stapi/OneDrive/Desktop/GD32VW553/V1_MQTT_OK/GD32VW55X_Wifi_BLE_SDK/GD32VW55x_RELEASE_V1.0.2/MSDK/wpa_supplicant/src/tls\asn1.h **** 		hdr->tag == ASN1_TAG_BOOLEAN;
  98:C:/Users/stapi/OneDrive/Desktop/GD32VW553/V1_MQTT_OK/GD32VW55X_Wifi_BLE_SDK/GD32VW55x_RELEASE_V1.0.2/MSDK/wpa_supplicant/src/tls\asn1.h **** }
  99:C:/Users/stapi/OneDrive/Desktop/GD32VW553/V1_MQTT_OK/GD32VW55X_Wifi_BLE_SDK/GD32VW55x_RELEASE_V1.0.2/MSDK/wpa_supplicant/src/tls\asn1.h **** 
 100:C:/Users/stapi/OneDrive/Desktop/GD32VW553/V1_MQTT_OK/GD32VW55X_Wifi_BLE_SDK/GD32VW55x_RELEASE_V1.0.2/MSDK/wpa_supplicant/src/tls\asn1.h **** static inline bool asn1_is_integer(const struct asn1_hdr *hdr)
 101:C:/Users/stapi/OneDrive/Desktop/GD32VW553/V1_MQTT_OK/GD32VW55X_Wifi_BLE_SDK/GD32VW55x_RELEASE_V1.0.2/MSDK/wpa_supplicant/src/tls\asn1.h **** {
 102:C:/Users/stapi/OneDrive/Desktop/GD32VW553/V1_MQTT_OK/GD32VW55X_Wifi_BLE_SDK/GD32VW55x_RELEASE_V1.0.2/MSDK/wpa_supplicant/src/tls\asn1.h **** 	return hdr->class == ASN1_CLASS_UNIVERSAL &&
 103:C:/Users/stapi/OneDrive/Desktop/GD32VW553/V1_MQTT_OK/GD32VW55X_Wifi_BLE_SDK/GD32VW55x_RELEASE_V1.0.2/MSDK/wpa_supplicant/src/tls\asn1.h **** 		hdr->tag == ASN1_TAG_INTEGER;
 104:C:/Users/stapi/OneDrive/Desktop/GD32VW553/V1_MQTT_OK/GD32VW55X_Wifi_BLE_SDK/GD32VW55x_RELEASE_V1.0.2/MSDK/wpa_supplicant/src/tls\asn1.h **** }
 105:C:/Users/stapi/OneDrive/Desktop/GD32VW553/V1_MQTT_OK/GD32VW55X_Wifi_BLE_SDK/GD32VW55x_RELEASE_V1.0.2/MSDK/wpa_supplicant/src/tls\asn1.h **** 
 106:C:/Users/stapi/OneDrive/Desktop/GD32VW553/V1_MQTT_OK/GD32VW55X_Wifi_BLE_SDK/GD32VW55x_RELEASE_V1.0.2/MSDK/wpa_supplicant/src/tls\asn1.h **** static inline bool asn1_is_enumerated(const struct asn1_hdr *hdr)
 107:C:/Users/stapi/OneDrive/Desktop/GD32VW553/V1_MQTT_OK/GD32VW55X_Wifi_BLE_SDK/GD32VW55x_RELEASE_V1.0.2/MSDK/wpa_supplicant/src/tls\asn1.h **** {
 108:C:/Users/stapi/OneDrive/Desktop/GD32VW553/V1_MQTT_OK/GD32VW55X_Wifi_BLE_SDK/GD32VW55x_RELEASE_V1.0.2/MSDK/wpa_supplicant/src/tls\asn1.h **** 	return hdr->class == ASN1_CLASS_UNIVERSAL &&
 109:C:/Users/stapi/OneDrive/Desktop/GD32VW553/V1_MQTT_OK/GD32VW55X_Wifi_BLE_SDK/GD32VW55x_RELEASE_V1.0.2/MSDK/wpa_supplicant/src/tls\asn1.h **** 		hdr->tag == ASN1_TAG_ENUMERATED;
 110:C:/Users/stapi/OneDrive/Desktop/GD32VW553/V1_MQTT_OK/GD32VW55X_Wifi_BLE_SDK/GD32VW55x_RELEASE_V1.0.2/MSDK/wpa_supplicant/src/tls\asn1.h **** }
 111:C:/Users/stapi/OneDrive/Desktop/GD32VW553/V1_MQTT_OK/GD32VW55X_Wifi_BLE_SDK/GD32VW55x_RELEASE_V1.0.2/MSDK/wpa_supplicant/src/tls\asn1.h **** 
 112:C:/Users/stapi/OneDrive/Desktop/GD32VW553/V1_MQTT_OK/GD32VW55X_Wifi_BLE_SDK/GD32VW55x_RELEASE_V1.0.2/MSDK/wpa_supplicant/src/tls\asn1.h **** static inline bool asn1_is_sequence(const struct asn1_hdr *hdr)
 113:C:/Users/stapi/OneDrive/Desktop/GD32VW553/V1_MQTT_OK/GD32VW55X_Wifi_BLE_SDK/GD32VW55x_RELEASE_V1.0.2/MSDK/wpa_supplicant/src/tls\asn1.h **** {
  15              		.loc 1 113 1
  16              		.cfi_startproc
  17              	.LVL0:
 114:C:/Users/stapi/OneDrive/Desktop/GD32VW553/V1_MQTT_OK/GD32VW55X_Wifi_BLE_SDK/GD32VW55x_RELEASE_V1.0.2/MSDK/wpa_supplicant/src/tls\asn1.h **** 	return hdr->class == ASN1_CLASS_UNIVERSAL &&
  18              		.loc 1 114 2
  19              		.loc 1 114 44 is_stmt 0
  20 0000 83475500 		lbu	a5,5(a0)
  21 0004 91E7     		bne	a5,zero,.L3
  22              		.loc 1 114 44 discriminator 1
  23 0006 0845     		lw	a0,8(a0)
  24              	.LVL1:
  25 0008 4115     		addi	a0,a0,-16
  26 000a 13351500 		seqz	a0,a0
  27 000e 8280     		ret
  28              	.LVL2:
  29              	.L3:
  30              		.loc 1 114 44
  31 0010 0145     		li	a0,0
  32              	.LVL3:
 115:C:/Users/stapi/OneDrive/Desktop/GD32VW553/V1_MQTT_OK/GD32VW55X_Wifi_BLE_SDK/GD32VW55x_RELEASE_V1.0.2/MSDK/wpa_supplicant/src/tls\asn1.h **** 		hdr->tag == ASN1_TAG_SEQUENCE;
 116:C:/Users/stapi/OneDrive/Desktop/GD32VW553/V1_MQTT_OK/GD32VW55X_Wifi_BLE_SDK/GD32VW55x_RELEASE_V1.0.2/MSDK/wpa_supplicant/src/tls\asn1.h **** }
  33              		.loc 1 116 1
  34 0012 8280     		ret
  35              		.cfi_endproc
  36              	.LFE75:
  38              		.section	.text.oid_is_rsadsi,"ax",@progbits
  39              		.align	1
  41              	oid_is_rsadsi:
  42              	.LFB447:
  43              		.file 2 "C:/Users/stapi/OneDrive/Desktop/GD32VW553/V1_MQTT_OK/GD32VW55X_Wifi_BLE_SDK/GD32VW55x_REL
   1:C:/Users/stapi/OneDrive/Desktop/GD32VW553/V1_MQTT_OK/GD32VW55X_Wifi_BLE_SDK/GD32VW55x_RELEASE_V1.0.2/MSDK/wpa_supplicant/src/tls\pkcs5.c **** /*
   2:C:/Users/stapi/OneDrive/Desktop/GD32VW553/V1_MQTT_OK/GD32VW55X_Wifi_BLE_SDK/GD32VW55x_RELEASE_V1.0.2/MSDK/wpa_supplicant/src/tls\pkcs5.c ****  * PKCS #5 (Password-based Encryption)
   3:C:/Users/stapi/OneDrive/Desktop/GD32VW553/V1_MQTT_OK/GD32VW55X_Wifi_BLE_SDK/GD32VW55x_RELEASE_V1.0.2/MSDK/wpa_supplicant/src/tls\pkcs5.c ****  * Copyright (c) 2009-2015, Jouni Malinen <j@w1.fi>
   4:C:/Users/stapi/OneDrive/Desktop/GD32VW553/V1_MQTT_OK/GD32VW55X_Wifi_BLE_SDK/GD32VW55x_RELEASE_V1.0.2/MSDK/wpa_supplicant/src/tls\pkcs5.c ****  *
   5:C:/Users/stapi/OneDrive/Desktop/GD32VW553/V1_MQTT_OK/GD32VW55X_Wifi_BLE_SDK/GD32VW55x_RELEASE_V1.0.2/MSDK/wpa_supplicant/src/tls\pkcs5.c ****  * This software may be distributed under the terms of the BSD license.
   6:C:/Users/stapi/OneDrive/Desktop/GD32VW553/V1_MQTT_OK/GD32VW55X_Wifi_BLE_SDK/GD32VW55x_RELEASE_V1.0.2/MSDK/wpa_supplicant/src/tls\pkcs5.c ****  * See README for more details.
   7:C:/Users/stapi/OneDrive/Desktop/GD32VW553/V1_MQTT_OK/GD32VW55X_Wifi_BLE_SDK/GD32VW55x_RELEASE_V1.0.2/MSDK/wpa_supplicant/src/tls\pkcs5.c ****  */
   8:C:/Users/stapi/OneDrive/Desktop/GD32VW553/V1_MQTT_OK/GD32VW55X_Wifi_BLE_SDK/GD32VW55x_RELEASE_V1.0.2/MSDK/wpa_supplicant/src/tls\pkcs5.c **** 
   9:C:/Users/stapi/OneDrive/Desktop/GD32VW553/V1_MQTT_OK/GD32VW55X_Wifi_BLE_SDK/GD32VW55x_RELEASE_V1.0.2/MSDK/wpa_supplicant/src/tls\pkcs5.c **** #include "includes.h"
  10:C:/Users/stapi/OneDrive/Desktop/GD32VW553/V1_MQTT_OK/GD32VW55X_Wifi_BLE_SDK/GD32VW55x_RELEASE_V1.0.2/MSDK/wpa_supplicant/src/tls\pkcs5.c **** 
  11:C:/Users/stapi/OneDrive/Desktop/GD32VW553/V1_MQTT_OK/GD32VW55X_Wifi_BLE_SDK/GD32VW55x_RELEASE_V1.0.2/MSDK/wpa_supplicant/src/tls\pkcs5.c **** #include "common.h"
  12:C:/Users/stapi/OneDrive/Desktop/GD32VW553/V1_MQTT_OK/GD32VW55X_Wifi_BLE_SDK/GD32VW55x_RELEASE_V1.0.2/MSDK/wpa_supplicant/src/tls\pkcs5.c **** #include "crypto/crypto.h"
  13:C:/Users/stapi/OneDrive/Desktop/GD32VW553/V1_MQTT_OK/GD32VW55X_Wifi_BLE_SDK/GD32VW55x_RELEASE_V1.0.2/MSDK/wpa_supplicant/src/tls\pkcs5.c **** #include "crypto/md5.h"
  14:C:/Users/stapi/OneDrive/Desktop/GD32VW553/V1_MQTT_OK/GD32VW55X_Wifi_BLE_SDK/GD32VW55x_RELEASE_V1.0.2/MSDK/wpa_supplicant/src/tls\pkcs5.c **** #include "crypto/sha1.h"
  15:C:/Users/stapi/OneDrive/Desktop/GD32VW553/V1_MQTT_OK/GD32VW55X_Wifi_BLE_SDK/GD32VW55x_RELEASE_V1.0.2/MSDK/wpa_supplicant/src/tls\pkcs5.c **** #include "asn1.h"
  16:C:/Users/stapi/OneDrive/Desktop/GD32VW553/V1_MQTT_OK/GD32VW55X_Wifi_BLE_SDK/GD32VW55x_RELEASE_V1.0.2/MSDK/wpa_supplicant/src/tls\pkcs5.c **** #include "pkcs5.h"
  17:C:/Users/stapi/OneDrive/Desktop/GD32VW553/V1_MQTT_OK/GD32VW55X_Wifi_BLE_SDK/GD32VW55x_RELEASE_V1.0.2/MSDK/wpa_supplicant/src/tls\pkcs5.c **** 
  18:C:/Users/stapi/OneDrive/Desktop/GD32VW553/V1_MQTT_OK/GD32VW55X_Wifi_BLE_SDK/GD32VW55x_RELEASE_V1.0.2/MSDK/wpa_supplicant/src/tls\pkcs5.c **** #ifdef CONFIG_GDWIFI
  19:C:/Users/stapi/OneDrive/Desktop/GD32VW553/V1_MQTT_OK/GD32VW55X_Wifi_BLE_SDK/GD32VW55x_RELEASE_V1.0.2/MSDK/wpa_supplicant/src/tls\pkcs5.c **** #include "mbedtls/pkcs5.h"
  20:C:/Users/stapi/OneDrive/Desktop/GD32VW553/V1_MQTT_OK/GD32VW55X_Wifi_BLE_SDK/GD32VW55x_RELEASE_V1.0.2/MSDK/wpa_supplicant/src/tls\pkcs5.c **** #endif
  21:C:/Users/stapi/OneDrive/Desktop/GD32VW553/V1_MQTT_OK/GD32VW55X_Wifi_BLE_SDK/GD32VW55x_RELEASE_V1.0.2/MSDK/wpa_supplicant/src/tls\pkcs5.c **** 
  22:C:/Users/stapi/OneDrive/Desktop/GD32VW553/V1_MQTT_OK/GD32VW55X_Wifi_BLE_SDK/GD32VW55x_RELEASE_V1.0.2/MSDK/wpa_supplicant/src/tls\pkcs5.c **** struct pkcs5_params {
  23:C:/Users/stapi/OneDrive/Desktop/GD32VW553/V1_MQTT_OK/GD32VW55X_Wifi_BLE_SDK/GD32VW55x_RELEASE_V1.0.2/MSDK/wpa_supplicant/src/tls\pkcs5.c **** 	enum pkcs5_alg {
  24:C:/Users/stapi/OneDrive/Desktop/GD32VW553/V1_MQTT_OK/GD32VW55X_Wifi_BLE_SDK/GD32VW55x_RELEASE_V1.0.2/MSDK/wpa_supplicant/src/tls\pkcs5.c **** 		PKCS5_ALG_UNKNOWN,
  25:C:/Users/stapi/OneDrive/Desktop/GD32VW553/V1_MQTT_OK/GD32VW55X_Wifi_BLE_SDK/GD32VW55x_RELEASE_V1.0.2/MSDK/wpa_supplicant/src/tls\pkcs5.c **** 		PKCS5_ALG_MD5_DES_CBC,
  26:C:/Users/stapi/OneDrive/Desktop/GD32VW553/V1_MQTT_OK/GD32VW55X_Wifi_BLE_SDK/GD32VW55x_RELEASE_V1.0.2/MSDK/wpa_supplicant/src/tls\pkcs5.c **** 		PKCS5_ALG_PBES2,
  27:C:/Users/stapi/OneDrive/Desktop/GD32VW553/V1_MQTT_OK/GD32VW55X_Wifi_BLE_SDK/GD32VW55x_RELEASE_V1.0.2/MSDK/wpa_supplicant/src/tls\pkcs5.c **** 		PKCS5_ALG_SHA1_3DES_CBC,
  28:C:/Users/stapi/OneDrive/Desktop/GD32VW553/V1_MQTT_OK/GD32VW55X_Wifi_BLE_SDK/GD32VW55x_RELEASE_V1.0.2/MSDK/wpa_supplicant/src/tls\pkcs5.c **** 	} alg;
  29:C:/Users/stapi/OneDrive/Desktop/GD32VW553/V1_MQTT_OK/GD32VW55X_Wifi_BLE_SDK/GD32VW55x_RELEASE_V1.0.2/MSDK/wpa_supplicant/src/tls\pkcs5.c **** 	u8 salt[64];
  30:C:/Users/stapi/OneDrive/Desktop/GD32VW553/V1_MQTT_OK/GD32VW55X_Wifi_BLE_SDK/GD32VW55x_RELEASE_V1.0.2/MSDK/wpa_supplicant/src/tls\pkcs5.c **** 	size_t salt_len;
  31:C:/Users/stapi/OneDrive/Desktop/GD32VW553/V1_MQTT_OK/GD32VW55X_Wifi_BLE_SDK/GD32VW55x_RELEASE_V1.0.2/MSDK/wpa_supplicant/src/tls\pkcs5.c **** 	unsigned int iter_count;
  32:C:/Users/stapi/OneDrive/Desktop/GD32VW553/V1_MQTT_OK/GD32VW55X_Wifi_BLE_SDK/GD32VW55x_RELEASE_V1.0.2/MSDK/wpa_supplicant/src/tls\pkcs5.c **** 	enum pbes2_enc_alg {
  33:C:/Users/stapi/OneDrive/Desktop/GD32VW553/V1_MQTT_OK/GD32VW55X_Wifi_BLE_SDK/GD32VW55x_RELEASE_V1.0.2/MSDK/wpa_supplicant/src/tls\pkcs5.c **** 		PBES2_ENC_ALG_UNKNOWN,
  34:C:/Users/stapi/OneDrive/Desktop/GD32VW553/V1_MQTT_OK/GD32VW55X_Wifi_BLE_SDK/GD32VW55x_RELEASE_V1.0.2/MSDK/wpa_supplicant/src/tls\pkcs5.c **** 		PBES2_ENC_ALG_DES_EDE3_CBC,
  35:C:/Users/stapi/OneDrive/Desktop/GD32VW553/V1_MQTT_OK/GD32VW55X_Wifi_BLE_SDK/GD32VW55x_RELEASE_V1.0.2/MSDK/wpa_supplicant/src/tls\pkcs5.c **** 	} enc_alg;
  36:C:/Users/stapi/OneDrive/Desktop/GD32VW553/V1_MQTT_OK/GD32VW55X_Wifi_BLE_SDK/GD32VW55x_RELEASE_V1.0.2/MSDK/wpa_supplicant/src/tls\pkcs5.c **** #ifdef CONFIG_GDWIFI
  37:C:/Users/stapi/OneDrive/Desktop/GD32VW553/V1_MQTT_OK/GD32VW55X_Wifi_BLE_SDK/GD32VW55x_RELEASE_V1.0.2/MSDK/wpa_supplicant/src/tls\pkcs5.c **** 	enum pbkdf2_digest_alg {
  38:C:/Users/stapi/OneDrive/Desktop/GD32VW553/V1_MQTT_OK/GD32VW55X_Wifi_BLE_SDK/GD32VW55x_RELEASE_V1.0.2/MSDK/wpa_supplicant/src/tls\pkcs5.c **** 		PBKDF2_DIG_ALG_UNKNOWN,
  39:C:/Users/stapi/OneDrive/Desktop/GD32VW553/V1_MQTT_OK/GD32VW55X_Wifi_BLE_SDK/GD32VW55x_RELEASE_V1.0.2/MSDK/wpa_supplicant/src/tls\pkcs5.c **** 		PBKDF2_DIG_ALG_MD5,
  40:C:/Users/stapi/OneDrive/Desktop/GD32VW553/V1_MQTT_OK/GD32VW55X_Wifi_BLE_SDK/GD32VW55x_RELEASE_V1.0.2/MSDK/wpa_supplicant/src/tls\pkcs5.c **** 		PBKDF2_DIG_ALG_SHA1,
  41:C:/Users/stapi/OneDrive/Desktop/GD32VW553/V1_MQTT_OK/GD32VW55X_Wifi_BLE_SDK/GD32VW55x_RELEASE_V1.0.2/MSDK/wpa_supplicant/src/tls\pkcs5.c **** 		PBKDF2_DIG_ALG_SHA224,
  42:C:/Users/stapi/OneDrive/Desktop/GD32VW553/V1_MQTT_OK/GD32VW55X_Wifi_BLE_SDK/GD32VW55x_RELEASE_V1.0.2/MSDK/wpa_supplicant/src/tls\pkcs5.c **** 		PBKDF2_DIG_ALG_SHA256,
  43:C:/Users/stapi/OneDrive/Desktop/GD32VW553/V1_MQTT_OK/GD32VW55X_Wifi_BLE_SDK/GD32VW55x_RELEASE_V1.0.2/MSDK/wpa_supplicant/src/tls\pkcs5.c **** 		PBKDF2_DIG_ALG_SHA384,
  44:C:/Users/stapi/OneDrive/Desktop/GD32VW553/V1_MQTT_OK/GD32VW55X_Wifi_BLE_SDK/GD32VW55x_RELEASE_V1.0.2/MSDK/wpa_supplicant/src/tls\pkcs5.c **** 		PBKDF2_DIG_ALG_SHA512,
  45:C:/Users/stapi/OneDrive/Desktop/GD32VW553/V1_MQTT_OK/GD32VW55X_Wifi_BLE_SDK/GD32VW55x_RELEASE_V1.0.2/MSDK/wpa_supplicant/src/tls\pkcs5.c **** 	} dig_alg;
  46:C:/Users/stapi/OneDrive/Desktop/GD32VW553/V1_MQTT_OK/GD32VW55X_Wifi_BLE_SDK/GD32VW55x_RELEASE_V1.0.2/MSDK/wpa_supplicant/src/tls\pkcs5.c **** #endif /* CONFIG_GDWIFI */
  47:C:/Users/stapi/OneDrive/Desktop/GD32VW553/V1_MQTT_OK/GD32VW55X_Wifi_BLE_SDK/GD32VW55x_RELEASE_V1.0.2/MSDK/wpa_supplicant/src/tls\pkcs5.c **** 	u8 iv[8];
  48:C:/Users/stapi/OneDrive/Desktop/GD32VW553/V1_MQTT_OK/GD32VW55X_Wifi_BLE_SDK/GD32VW55x_RELEASE_V1.0.2/MSDK/wpa_supplicant/src/tls\pkcs5.c **** 	size_t iv_len;
  49:C:/Users/stapi/OneDrive/Desktop/GD32VW553/V1_MQTT_OK/GD32VW55X_Wifi_BLE_SDK/GD32VW55x_RELEASE_V1.0.2/MSDK/wpa_supplicant/src/tls\pkcs5.c **** };
  50:C:/Users/stapi/OneDrive/Desktop/GD32VW553/V1_MQTT_OK/GD32VW55X_Wifi_BLE_SDK/GD32VW55x_RELEASE_V1.0.2/MSDK/wpa_supplicant/src/tls\pkcs5.c **** 
  51:C:/Users/stapi/OneDrive/Desktop/GD32VW553/V1_MQTT_OK/GD32VW55X_Wifi_BLE_SDK/GD32VW55x_RELEASE_V1.0.2/MSDK/wpa_supplicant/src/tls\pkcs5.c **** 
  52:C:/Users/stapi/OneDrive/Desktop/GD32VW553/V1_MQTT_OK/GD32VW55X_Wifi_BLE_SDK/GD32VW55x_RELEASE_V1.0.2/MSDK/wpa_supplicant/src/tls\pkcs5.c **** static int oid_is_rsadsi(struct asn1_oid *oid)
  53:C:/Users/stapi/OneDrive/Desktop/GD32VW553/V1_MQTT_OK/GD32VW55X_Wifi_BLE_SDK/GD32VW55x_RELEASE_V1.0.2/MSDK/wpa_supplicant/src/tls\pkcs5.c **** {
  44              		.loc 2 53 1 is_stmt 1
  45              		.cfi_startproc
  46              	.LVL4:
  54:C:/Users/stapi/OneDrive/Desktop/GD32VW553/V1_MQTT_OK/GD32VW55X_Wifi_BLE_SDK/GD32VW55x_RELEASE_V1.0.2/MSDK/wpa_supplicant/src/tls\pkcs5.c **** 	return oid->len >= 4 &&
  47              		.loc 2 54 2
  55:C:/Users/stapi/OneDrive/Desktop/GD32VW553/V1_MQTT_OK/GD32VW55X_Wifi_BLE_SDK/GD32VW55x_RELEASE_V1.0.2/MSDK/wpa_supplicant/src/tls\pkcs5.c **** 		oid->oid[0] == 1 /* iso */ &&
  56:C:/Users/stapi/OneDrive/Desktop/GD32VW553/V1_MQTT_OK/GD32VW55X_Wifi_BLE_SDK/GD32VW55x_RELEASE_V1.0.2/MSDK/wpa_supplicant/src/tls\pkcs5.c **** 		oid->oid[1] == 2 /* member-body */ &&
  57:C:/Users/stapi/OneDrive/Desktop/GD32VW553/V1_MQTT_OK/GD32VW55X_Wifi_BLE_SDK/GD32VW55x_RELEASE_V1.0.2/MSDK/wpa_supplicant/src/tls\pkcs5.c **** 		oid->oid[2] == 840 /* us */ &&
  48              		.loc 2 57 31 is_stmt 0
  49 0000 3449     		lw	a3,80(a0)
  50 0002 0D47     		li	a4,3
  53:C:/Users/stapi/OneDrive/Desktop/GD32VW553/V1_MQTT_OK/GD32VW55X_Wifi_BLE_SDK/GD32VW55x_RELEASE_V1.0.2/MSDK/wpa_supplicant/src/tls\pkcs5.c **** 	return oid->len >= 4 &&
  51              		.loc 2 53 1
  52 0004 AA87     		mv	a5,a0
  53              		.loc 2 57 31
  54 0006 6378D702 		bleu	a3,a4,.L6
  54:C:/Users/stapi/OneDrive/Desktop/GD32VW553/V1_MQTT_OK/GD32VW55X_Wifi_BLE_SDK/GD32VW55x_RELEASE_V1.0.2/MSDK/wpa_supplicant/src/tls\pkcs5.c **** 	return oid->len >= 4 &&
  55              		.loc 2 54 23
  56 000a 1441     		lw	a3,0(a0)
  57 000c 0547     		li	a4,1
  58              		.loc 2 57 31
  59 000e 0145     		li	a0,0
  60              	.LVL5:
  54:C:/Users/stapi/OneDrive/Desktop/GD32VW553/V1_MQTT_OK/GD32VW55X_Wifi_BLE_SDK/GD32VW55x_RELEASE_V1.0.2/MSDK/wpa_supplicant/src/tls\pkcs5.c **** 	return oid->len >= 4 &&
  61              		.loc 2 54 23
  62 0010 6394E602 		bne	a3,a4,.L4
  55:C:/Users/stapi/OneDrive/Desktop/GD32VW553/V1_MQTT_OK/GD32VW55X_Wifi_BLE_SDK/GD32VW55x_RELEASE_V1.0.2/MSDK/wpa_supplicant/src/tls\pkcs5.c **** 		oid->oid[0] == 1 /* iso */ &&
  63              		.loc 2 55 30
  64 0014 D443     		lw	a3,4(a5)
  65 0016 0947     		li	a4,2
  66 0018 6390E602 		bne	a3,a4,.L4
  56:C:/Users/stapi/OneDrive/Desktop/GD32VW553/V1_MQTT_OK/GD32VW55X_Wifi_BLE_SDK/GD32VW55x_RELEASE_V1.0.2/MSDK/wpa_supplicant/src/tls\pkcs5.c **** 		oid->oid[2] == 840 /* us */ &&
  67              		.loc 2 56 38
  68 001c 9447     		lw	a3,8(a5)
  69 001e 13078034 		li	a4,840
  70 0022 639BE600 		bne	a3,a4,.L4
  71              		.loc 2 57 31 discriminator 3
  72 0026 C847     		lw	a0,12(a5)
  73 0028 9177     		li	a5,-114688
  74              	.LVL6:
  75 002a 93873747 		addi	a5,a5,1139
  76 002e 3E95     		add	a0,a0,a5
  77 0030 13351500 		seqz	a0,a0
  78 0034 8280     		ret
  79              	.LVL7:
  80              	.L6:
  81              		.loc 2 57 31
  82 0036 0145     		li	a0,0
  83              	.LVL8:
  84              	.L4:
  58:C:/Users/stapi/OneDrive/Desktop/GD32VW553/V1_MQTT_OK/GD32VW55X_Wifi_BLE_SDK/GD32VW55x_RELEASE_V1.0.2/MSDK/wpa_supplicant/src/tls\pkcs5.c **** 		oid->oid[3] == 113549 /* rsadsi */;
  59:C:/Users/stapi/OneDrive/Desktop/GD32VW553/V1_MQTT_OK/GD32VW55X_Wifi_BLE_SDK/GD32VW55x_RELEASE_V1.0.2/MSDK/wpa_supplicant/src/tls\pkcs5.c **** }
  85              		.loc 2 59 1
  86 0038 8280     		ret
  87              		.cfi_endproc
  88              	.LFE447:
  90              		.section	.text.pkcs5_is_oid,"ax",@progbits
  91              		.align	1
  93              	pkcs5_is_oid:
  94              	.LFB448:
  60:C:/Users/stapi/OneDrive/Desktop/GD32VW553/V1_MQTT_OK/GD32VW55X_Wifi_BLE_SDK/GD32VW55x_RELEASE_V1.0.2/MSDK/wpa_supplicant/src/tls\pkcs5.c **** 
  61:C:/Users/stapi/OneDrive/Desktop/GD32VW553/V1_MQTT_OK/GD32VW55X_Wifi_BLE_SDK/GD32VW55x_RELEASE_V1.0.2/MSDK/wpa_supplicant/src/tls\pkcs5.c **** 
  62:C:/Users/stapi/OneDrive/Desktop/GD32VW553/V1_MQTT_OK/GD32VW55X_Wifi_BLE_SDK/GD32VW55x_RELEASE_V1.0.2/MSDK/wpa_supplicant/src/tls\pkcs5.c **** static int pkcs5_is_oid(struct asn1_oid *oid, unsigned long alg)
  63:C:/Users/stapi/OneDrive/Desktop/GD32VW553/V1_MQTT_OK/GD32VW55X_Wifi_BLE_SDK/GD32VW55x_RELEASE_V1.0.2/MSDK/wpa_supplicant/src/tls\pkcs5.c **** {
  95              		.loc 2 63 1 is_stmt 1
  96              		.cfi_startproc
  97              	.LVL9:
  64:C:/Users/stapi/OneDrive/Desktop/GD32VW553/V1_MQTT_OK/GD32VW55X_Wifi_BLE_SDK/GD32VW55x_RELEASE_V1.0.2/MSDK/wpa_supplicant/src/tls\pkcs5.c **** 	return oid->len == 7 &&
  98              		.loc 2 64 2
  65:C:/Users/stapi/OneDrive/Desktop/GD32VW553/V1_MQTT_OK/GD32VW55X_Wifi_BLE_SDK/GD32VW55x_RELEASE_V1.0.2/MSDK/wpa_supplicant/src/tls\pkcs5.c **** 		oid_is_rsadsi(oid) &&
  66:C:/Users/stapi/OneDrive/Desktop/GD32VW553/V1_MQTT_OK/GD32VW55X_Wifi_BLE_SDK/GD32VW55x_RELEASE_V1.0.2/MSDK/wpa_supplicant/src/tls\pkcs5.c **** 		oid->oid[4] == 1 /* pkcs */ &&
  67:C:/Users/stapi/OneDrive/Desktop/GD32VW553/V1_MQTT_OK/GD32VW55X_Wifi_BLE_SDK/GD32VW55x_RELEASE_V1.0.2/MSDK/wpa_supplicant/src/tls\pkcs5.c **** 		oid->oid[5] == 5 /* pkcs-5 */ &&
  99              		.loc 2 67 33 is_stmt 0
 100 0000 3849     		lw	a4,80(a0)
 101 0002 9D47     		li	a5,7
 102 0004 631EF702 		bne	a4,a5,.L12
  63:C:/Users/stapi/OneDrive/Desktop/GD32VW553/V1_MQTT_OK/GD32VW55X_Wifi_BLE_SDK/GD32VW55x_RELEASE_V1.0.2/MSDK/wpa_supplicant/src/tls\pkcs5.c **** 	return oid->len == 7 &&
 103              		.loc 2 63 1
 104 0008 17030000 		call	t0,__riscv_save_2
 104      E7020300 
 105              		.cfi_offset 9, -12
 106              		.cfi_offset 8, -8
 107              		.cfi_offset 1, -4
 108              		.cfi_def_cfa_offset 16
 109 0010 2A84     		mv	s0,a0
 110 0012 AE84     		mv	s1,a1
  65:C:/Users/stapi/OneDrive/Desktop/GD32VW553/V1_MQTT_OK/GD32VW55X_Wifi_BLE_SDK/GD32VW55x_RELEASE_V1.0.2/MSDK/wpa_supplicant/src/tls\pkcs5.c **** 		oid_is_rsadsi(oid) &&
 111              		.loc 2 65 3
 112 0014 97000000 		call	oid_is_rsadsi
 112      E7800000 
 113              	.LVL10:
  64:C:/Users/stapi/OneDrive/Desktop/GD32VW553/V1_MQTT_OK/GD32VW55X_Wifi_BLE_SDK/GD32VW55x_RELEASE_V1.0.2/MSDK/wpa_supplicant/src/tls\pkcs5.c **** 	return oid->len == 7 &&
 114              		.loc 2 64 23
 115 001c 11CD     		beq	a0,zero,.L10
  65:C:/Users/stapi/OneDrive/Desktop/GD32VW553/V1_MQTT_OK/GD32VW55X_Wifi_BLE_SDK/GD32VW55x_RELEASE_V1.0.2/MSDK/wpa_supplicant/src/tls\pkcs5.c **** 		oid_is_rsadsi(oid) &&
 116              		.loc 2 65 22
 117 001e 1848     		lw	a4,16(s0)
 118 0020 8547     		li	a5,1
 119              		.loc 2 67 33
 120 0022 0145     		li	a0,0
  65:C:/Users/stapi/OneDrive/Desktop/GD32VW553/V1_MQTT_OK/GD32VW55X_Wifi_BLE_SDK/GD32VW55x_RELEASE_V1.0.2/MSDK/wpa_supplicant/src/tls\pkcs5.c **** 		oid_is_rsadsi(oid) &&
 121              		.loc 2 65 22
 122 0024 631AF700 		bne	a4,a5,.L10
 123              	.LVL11:
 124              	.LBB10:
 125              	.LBB11:
  66:C:/Users/stapi/OneDrive/Desktop/GD32VW553/V1_MQTT_OK/GD32VW55X_Wifi_BLE_SDK/GD32VW55x_RELEASE_V1.0.2/MSDK/wpa_supplicant/src/tls\pkcs5.c **** 		oid->oid[5] == 5 /* pkcs-5 */ &&
 126              		.loc 2 66 31
 127 0028 5848     		lw	a4,20(s0)
 128 002a 9547     		li	a5,5
 129 002c 6316F700 		bne	a4,a5,.L10
 130              		.loc 2 67 33
 131 0030 084C     		lw	a0,24(s0)
 132 0032 058D     		sub	a0,a0,s1
 133 0034 13351500 		seqz	a0,a0
 134              	.LVL12:
 135              	.L10:
 136              	.LBE11:
 137              	.LBE10:
  68:C:/Users/stapi/OneDrive/Desktop/GD32VW553/V1_MQTT_OK/GD32VW55X_Wifi_BLE_SDK/GD32VW55x_RELEASE_V1.0.2/MSDK/wpa_supplicant/src/tls\pkcs5.c **** 		oid->oid[6] == alg;
  69:C:/Users/stapi/OneDrive/Desktop/GD32VW553/V1_MQTT_OK/GD32VW55X_Wifi_BLE_SDK/GD32VW55x_RELEASE_V1.0.2/MSDK/wpa_supplicant/src/tls\pkcs5.c **** }
 138              		.loc 2 69 1
 139 0038 17030000 		tail	__riscv_restore_2
 139      67000300 
 140              		.cfi_restore 9
 141              		.cfi_restore 8
 142              		.cfi_restore 1
 143              		.cfi_def_cfa_offset 0
 144              	.LVL13:
 145              	.L12:
  67:C:/Users/stapi/OneDrive/Desktop/GD32VW553/V1_MQTT_OK/GD32VW55X_Wifi_BLE_SDK/GD32VW55x_RELEASE_V1.0.2/MSDK/wpa_supplicant/src/tls\pkcs5.c **** 		oid->oid[6] == alg;
 146              		.loc 2 67 33
 147 0040 0145     		li	a0,0
 148              	.LVL14:
 149              		.loc 2 69 1
 150 0042 8280     		ret
 151              		.cfi_endproc
 152              	.LFE448:
 154              		.section	.text.digest_alg_is_oid,"ax",@progbits
 155              		.align	1
 157              	digest_alg_is_oid:
 158              	.LFB450:
  70:C:/Users/stapi/OneDrive/Desktop/GD32VW553/V1_MQTT_OK/GD32VW55X_Wifi_BLE_SDK/GD32VW55x_RELEASE_V1.0.2/MSDK/wpa_supplicant/src/tls\pkcs5.c **** 
  71:C:/Users/stapi/OneDrive/Desktop/GD32VW553/V1_MQTT_OK/GD32VW55X_Wifi_BLE_SDK/GD32VW55x_RELEASE_V1.0.2/MSDK/wpa_supplicant/src/tls\pkcs5.c **** 
  72:C:/Users/stapi/OneDrive/Desktop/GD32VW553/V1_MQTT_OK/GD32VW55X_Wifi_BLE_SDK/GD32VW55x_RELEASE_V1.0.2/MSDK/wpa_supplicant/src/tls\pkcs5.c **** static int enc_alg_is_oid(struct asn1_oid *oid, unsigned long alg)
  73:C:/Users/stapi/OneDrive/Desktop/GD32VW553/V1_MQTT_OK/GD32VW55X_Wifi_BLE_SDK/GD32VW55x_RELEASE_V1.0.2/MSDK/wpa_supplicant/src/tls\pkcs5.c **** {
  74:C:/Users/stapi/OneDrive/Desktop/GD32VW553/V1_MQTT_OK/GD32VW55X_Wifi_BLE_SDK/GD32VW55x_RELEASE_V1.0.2/MSDK/wpa_supplicant/src/tls\pkcs5.c **** 	return oid->len == 6 &&
  75:C:/Users/stapi/OneDrive/Desktop/GD32VW553/V1_MQTT_OK/GD32VW55X_Wifi_BLE_SDK/GD32VW55x_RELEASE_V1.0.2/MSDK/wpa_supplicant/src/tls\pkcs5.c **** 		oid_is_rsadsi(oid) &&
  76:C:/Users/stapi/OneDrive/Desktop/GD32VW553/V1_MQTT_OK/GD32VW55X_Wifi_BLE_SDK/GD32VW55x_RELEASE_V1.0.2/MSDK/wpa_supplicant/src/tls\pkcs5.c **** 		oid->oid[4] == 3 /* encryptionAlgorithm */ &&
  77:C:/Users/stapi/OneDrive/Desktop/GD32VW553/V1_MQTT_OK/GD32VW55X_Wifi_BLE_SDK/GD32VW55x_RELEASE_V1.0.2/MSDK/wpa_supplicant/src/tls\pkcs5.c **** 		oid->oid[5] == alg;
  78:C:/Users/stapi/OneDrive/Desktop/GD32VW553/V1_MQTT_OK/GD32VW55X_Wifi_BLE_SDK/GD32VW55x_RELEASE_V1.0.2/MSDK/wpa_supplicant/src/tls\pkcs5.c **** }
  79:C:/Users/stapi/OneDrive/Desktop/GD32VW553/V1_MQTT_OK/GD32VW55X_Wifi_BLE_SDK/GD32VW55x_RELEASE_V1.0.2/MSDK/wpa_supplicant/src/tls\pkcs5.c **** 
  80:C:/Users/stapi/OneDrive/Desktop/GD32VW553/V1_MQTT_OK/GD32VW55X_Wifi_BLE_SDK/GD32VW55x_RELEASE_V1.0.2/MSDK/wpa_supplicant/src/tls\pkcs5.c **** #ifdef CONFIG_GDWIFI
  81:C:/Users/stapi/OneDrive/Desktop/GD32VW553/V1_MQTT_OK/GD32VW55X_Wifi_BLE_SDK/GD32VW55x_RELEASE_V1.0.2/MSDK/wpa_supplicant/src/tls\pkcs5.c **** static int digest_alg_is_oid(struct asn1_oid *oid, unsigned long alg)
  82:C:/Users/stapi/OneDrive/Desktop/GD32VW553/V1_MQTT_OK/GD32VW55X_Wifi_BLE_SDK/GD32VW55x_RELEASE_V1.0.2/MSDK/wpa_supplicant/src/tls\pkcs5.c **** {
 159              		.loc 2 82 1 is_stmt 1
 160              		.cfi_startproc
 161              	.LVL15:
  83:C:/Users/stapi/OneDrive/Desktop/GD32VW553/V1_MQTT_OK/GD32VW55X_Wifi_BLE_SDK/GD32VW55x_RELEASE_V1.0.2/MSDK/wpa_supplicant/src/tls\pkcs5.c **** 	return oid->len == 6 &&
 162              		.loc 2 83 2
  84:C:/Users/stapi/OneDrive/Desktop/GD32VW553/V1_MQTT_OK/GD32VW55X_Wifi_BLE_SDK/GD32VW55x_RELEASE_V1.0.2/MSDK/wpa_supplicant/src/tls\pkcs5.c **** 		oid_is_rsadsi(oid) &&
  85:C:/Users/stapi/OneDrive/Desktop/GD32VW553/V1_MQTT_OK/GD32VW55X_Wifi_BLE_SDK/GD32VW55x_RELEASE_V1.0.2/MSDK/wpa_supplicant/src/tls\pkcs5.c **** 		oid->oid[4] == 2 /* PKCS#2 */ &&
 163              		.loc 2 85 33 is_stmt 0
 164 0000 3849     		lw	a4,80(a0)
 165 0002 9947     		li	a5,6
 166 0004 631AF702 		bne	a4,a5,.L24
  82:C:/Users/stapi/OneDrive/Desktop/GD32VW553/V1_MQTT_OK/GD32VW55X_Wifi_BLE_SDK/GD32VW55x_RELEASE_V1.0.2/MSDK/wpa_supplicant/src/tls\pkcs5.c **** 	return oid->len == 6 &&
 167              		.loc 2 82 1
 168 0008 17030000 		call	t0,__riscv_save_2
 168      E7020300 
 169              		.cfi_offset 9, -12
 170              		.cfi_offset 8, -8
 171              		.cfi_offset 1, -4
 172              		.cfi_def_cfa_offset 16
 173 0010 2A84     		mv	s0,a0
 174 0012 AE84     		mv	s1,a1
  84:C:/Users/stapi/OneDrive/Desktop/GD32VW553/V1_MQTT_OK/GD32VW55X_Wifi_BLE_SDK/GD32VW55x_RELEASE_V1.0.2/MSDK/wpa_supplicant/src/tls\pkcs5.c **** 		oid_is_rsadsi(oid) &&
 175              		.loc 2 84 3
 176 0014 97000000 		call	oid_is_rsadsi
 176      E7800000 
 177              	.LVL16:
  83:C:/Users/stapi/OneDrive/Desktop/GD32VW553/V1_MQTT_OK/GD32VW55X_Wifi_BLE_SDK/GD32VW55x_RELEASE_V1.0.2/MSDK/wpa_supplicant/src/tls\pkcs5.c **** 	return oid->len == 6 &&
 178              		.loc 2 83 23
 179 001c 11C9     		beq	a0,zero,.L22
 180              	.LVL17:
 181              	.LBB14:
 182              	.LBB15:
  84:C:/Users/stapi/OneDrive/Desktop/GD32VW553/V1_MQTT_OK/GD32VW55X_Wifi_BLE_SDK/GD32VW55x_RELEASE_V1.0.2/MSDK/wpa_supplicant/src/tls\pkcs5.c **** 		oid_is_rsadsi(oid) &&
 183              		.loc 2 84 22
 184 001e 1848     		lw	a4,16(s0)
 185 0020 8947     		li	a5,2
 186              	.LBE15:
 187              	.LBE14:
 188              		.loc 2 85 33
 189 0022 0145     		li	a0,0
 190              	.LBB17:
 191              	.LBB16:
  84:C:/Users/stapi/OneDrive/Desktop/GD32VW553/V1_MQTT_OK/GD32VW55X_Wifi_BLE_SDK/GD32VW55x_RELEASE_V1.0.2/MSDK/wpa_supplicant/src/tls\pkcs5.c **** 		oid_is_rsadsi(oid) &&
 192              		.loc 2 84 22
 193 0024 6316F700 		bne	a4,a5,.L22
 194              		.loc 2 85 33
 195 0028 4848     		lw	a0,20(s0)
 196 002a 058D     		sub	a0,a0,s1
 197 002c 13351500 		seqz	a0,a0
 198              	.LVL18:
 199              	.L22:
 200              	.LBE16:
 201              	.LBE17:
  86:C:/Users/stapi/OneDrive/Desktop/GD32VW553/V1_MQTT_OK/GD32VW55X_Wifi_BLE_SDK/GD32VW55x_RELEASE_V1.0.2/MSDK/wpa_supplicant/src/tls\pkcs5.c **** 		oid->oid[5] == alg;
  87:C:/Users/stapi/OneDrive/Desktop/GD32VW553/V1_MQTT_OK/GD32VW55X_Wifi_BLE_SDK/GD32VW55x_RELEASE_V1.0.2/MSDK/wpa_supplicant/src/tls\pkcs5.c **** }
 202              		.loc 2 87 1
 203 0030 17030000 		tail	__riscv_restore_2
 203      67000300 
 204              		.cfi_restore 9
 205              		.cfi_restore 8
 206              		.cfi_restore 1
 207              		.cfi_def_cfa_offset 0
 208              	.LVL19:
 209              	.L24:
  85:C:/Users/stapi/OneDrive/Desktop/GD32VW553/V1_MQTT_OK/GD32VW55X_Wifi_BLE_SDK/GD32VW55x_RELEASE_V1.0.2/MSDK/wpa_supplicant/src/tls\pkcs5.c **** 		oid->oid[5] == alg;
 210              		.loc 2 85 33
 211 0038 0145     		li	a0,0
 212              	.LVL20:
 213              		.loc 2 87 1
 214 003a 8280     		ret
 215              		.cfi_endproc
 216              	.LFE450:
 218              		.section	.text.pkcs12_key_gen,"ax",@progbits
 219              		.align	1
 221              	pkcs12_key_gen:
 222              	.LFB457:
  88:C:/Users/stapi/OneDrive/Desktop/GD32VW553/V1_MQTT_OK/GD32VW55X_Wifi_BLE_SDK/GD32VW55x_RELEASE_V1.0.2/MSDK/wpa_supplicant/src/tls\pkcs5.c **** #endif /* CONFIG_GDWIFI */
  89:C:/Users/stapi/OneDrive/Desktop/GD32VW553/V1_MQTT_OK/GD32VW55X_Wifi_BLE_SDK/GD32VW55x_RELEASE_V1.0.2/MSDK/wpa_supplicant/src/tls\pkcs5.c **** 
  90:C:/Users/stapi/OneDrive/Desktop/GD32VW553/V1_MQTT_OK/GD32VW55X_Wifi_BLE_SDK/GD32VW55x_RELEASE_V1.0.2/MSDK/wpa_supplicant/src/tls\pkcs5.c **** static int pkcs12_is_pbe_oid(struct asn1_oid *oid, unsigned long alg)
  91:C:/Users/stapi/OneDrive/Desktop/GD32VW553/V1_MQTT_OK/GD32VW55X_Wifi_BLE_SDK/GD32VW55x_RELEASE_V1.0.2/MSDK/wpa_supplicant/src/tls\pkcs5.c **** {
  92:C:/Users/stapi/OneDrive/Desktop/GD32VW553/V1_MQTT_OK/GD32VW55X_Wifi_BLE_SDK/GD32VW55x_RELEASE_V1.0.2/MSDK/wpa_supplicant/src/tls\pkcs5.c **** 	return oid->len == 8 &&
  93:C:/Users/stapi/OneDrive/Desktop/GD32VW553/V1_MQTT_OK/GD32VW55X_Wifi_BLE_SDK/GD32VW55x_RELEASE_V1.0.2/MSDK/wpa_supplicant/src/tls\pkcs5.c **** 		oid_is_rsadsi(oid) &&
  94:C:/Users/stapi/OneDrive/Desktop/GD32VW553/V1_MQTT_OK/GD32VW55X_Wifi_BLE_SDK/GD32VW55x_RELEASE_V1.0.2/MSDK/wpa_supplicant/src/tls\pkcs5.c **** 		oid->oid[4] == 1 /* pkcs */ &&
  95:C:/Users/stapi/OneDrive/Desktop/GD32VW553/V1_MQTT_OK/GD32VW55X_Wifi_BLE_SDK/GD32VW55x_RELEASE_V1.0.2/MSDK/wpa_supplicant/src/tls\pkcs5.c **** 		oid->oid[5] == 12 /* pkcs-12 */ &&
  96:C:/Users/stapi/OneDrive/Desktop/GD32VW553/V1_MQTT_OK/GD32VW55X_Wifi_BLE_SDK/GD32VW55x_RELEASE_V1.0.2/MSDK/wpa_supplicant/src/tls\pkcs5.c **** 		oid->oid[6] == 1 /* pkcs-12PbeIds */ &&
  97:C:/Users/stapi/OneDrive/Desktop/GD32VW553/V1_MQTT_OK/GD32VW55X_Wifi_BLE_SDK/GD32VW55x_RELEASE_V1.0.2/MSDK/wpa_supplicant/src/tls\pkcs5.c **** 		oid->oid[7] == alg;
  98:C:/Users/stapi/OneDrive/Desktop/GD32VW553/V1_MQTT_OK/GD32VW55X_Wifi_BLE_SDK/GD32VW55x_RELEASE_V1.0.2/MSDK/wpa_supplicant/src/tls\pkcs5.c **** }
  99:C:/Users/stapi/OneDrive/Desktop/GD32VW553/V1_MQTT_OK/GD32VW55X_Wifi_BLE_SDK/GD32VW55x_RELEASE_V1.0.2/MSDK/wpa_supplicant/src/tls\pkcs5.c **** 
 100:C:/Users/stapi/OneDrive/Desktop/GD32VW553/V1_MQTT_OK/GD32VW55X_Wifi_BLE_SDK/GD32VW55x_RELEASE_V1.0.2/MSDK/wpa_supplicant/src/tls\pkcs5.c **** 
 101:C:/Users/stapi/OneDrive/Desktop/GD32VW553/V1_MQTT_OK/GD32VW55X_Wifi_BLE_SDK/GD32VW55x_RELEASE_V1.0.2/MSDK/wpa_supplicant/src/tls\pkcs5.c **** static enum pkcs5_alg pkcs5_get_alg(struct asn1_oid *oid)
 102:C:/Users/stapi/OneDrive/Desktop/GD32VW553/V1_MQTT_OK/GD32VW55X_Wifi_BLE_SDK/GD32VW55x_RELEASE_V1.0.2/MSDK/wpa_supplicant/src/tls\pkcs5.c **** {
 103:C:/Users/stapi/OneDrive/Desktop/GD32VW553/V1_MQTT_OK/GD32VW55X_Wifi_BLE_SDK/GD32VW55x_RELEASE_V1.0.2/MSDK/wpa_supplicant/src/tls\pkcs5.c **** 	if (pkcs5_is_oid(oid, 3)) /* pbeWithMD5AndDES-CBC (PBES1) */
 104:C:/Users/stapi/OneDrive/Desktop/GD32VW553/V1_MQTT_OK/GD32VW55X_Wifi_BLE_SDK/GD32VW55x_RELEASE_V1.0.2/MSDK/wpa_supplicant/src/tls\pkcs5.c **** 		return PKCS5_ALG_MD5_DES_CBC;
 105:C:/Users/stapi/OneDrive/Desktop/GD32VW553/V1_MQTT_OK/GD32VW55X_Wifi_BLE_SDK/GD32VW55x_RELEASE_V1.0.2/MSDK/wpa_supplicant/src/tls\pkcs5.c **** 	if (pkcs12_is_pbe_oid(oid, 3)) /* pbeWithSHAAnd3-KeyTripleDES-CBC */
 106:C:/Users/stapi/OneDrive/Desktop/GD32VW553/V1_MQTT_OK/GD32VW55X_Wifi_BLE_SDK/GD32VW55x_RELEASE_V1.0.2/MSDK/wpa_supplicant/src/tls\pkcs5.c **** 		return PKCS5_ALG_SHA1_3DES_CBC;
 107:C:/Users/stapi/OneDrive/Desktop/GD32VW553/V1_MQTT_OK/GD32VW55X_Wifi_BLE_SDK/GD32VW55x_RELEASE_V1.0.2/MSDK/wpa_supplicant/src/tls\pkcs5.c **** 	if (pkcs5_is_oid(oid, 13)) /* id-PBES2 (PBES2) */
 108:C:/Users/stapi/OneDrive/Desktop/GD32VW553/V1_MQTT_OK/GD32VW55X_Wifi_BLE_SDK/GD32VW55x_RELEASE_V1.0.2/MSDK/wpa_supplicant/src/tls\pkcs5.c **** 		return PKCS5_ALG_PBES2;
 109:C:/Users/stapi/OneDrive/Desktop/GD32VW553/V1_MQTT_OK/GD32VW55X_Wifi_BLE_SDK/GD32VW55x_RELEASE_V1.0.2/MSDK/wpa_supplicant/src/tls\pkcs5.c **** 	return PKCS5_ALG_UNKNOWN;
 110:C:/Users/stapi/OneDrive/Desktop/GD32VW553/V1_MQTT_OK/GD32VW55X_Wifi_BLE_SDK/GD32VW55x_RELEASE_V1.0.2/MSDK/wpa_supplicant/src/tls\pkcs5.c **** }
 111:C:/Users/stapi/OneDrive/Desktop/GD32VW553/V1_MQTT_OK/GD32VW55X_Wifi_BLE_SDK/GD32VW55x_RELEASE_V1.0.2/MSDK/wpa_supplicant/src/tls\pkcs5.c **** 
 112:C:/Users/stapi/OneDrive/Desktop/GD32VW553/V1_MQTT_OK/GD32VW55X_Wifi_BLE_SDK/GD32VW55x_RELEASE_V1.0.2/MSDK/wpa_supplicant/src/tls\pkcs5.c **** 
 113:C:/Users/stapi/OneDrive/Desktop/GD32VW553/V1_MQTT_OK/GD32VW55X_Wifi_BLE_SDK/GD32VW55x_RELEASE_V1.0.2/MSDK/wpa_supplicant/src/tls\pkcs5.c **** static int pkcs5_get_params_pbes2(struct pkcs5_params *params, const u8 *pos,
 114:C:/Users/stapi/OneDrive/Desktop/GD32VW553/V1_MQTT_OK/GD32VW55X_Wifi_BLE_SDK/GD32VW55x_RELEASE_V1.0.2/MSDK/wpa_supplicant/src/tls\pkcs5.c **** 				  const u8 *enc_alg_end)
 115:C:/Users/stapi/OneDrive/Desktop/GD32VW553/V1_MQTT_OK/GD32VW55X_Wifi_BLE_SDK/GD32VW55x_RELEASE_V1.0.2/MSDK/wpa_supplicant/src/tls\pkcs5.c **** {
 116:C:/Users/stapi/OneDrive/Desktop/GD32VW553/V1_MQTT_OK/GD32VW55X_Wifi_BLE_SDK/GD32VW55x_RELEASE_V1.0.2/MSDK/wpa_supplicant/src/tls\pkcs5.c **** 	struct asn1_hdr hdr;
 117:C:/Users/stapi/OneDrive/Desktop/GD32VW553/V1_MQTT_OK/GD32VW55X_Wifi_BLE_SDK/GD32VW55x_RELEASE_V1.0.2/MSDK/wpa_supplicant/src/tls\pkcs5.c **** 	const u8 *end, *kdf_end;
 118:C:/Users/stapi/OneDrive/Desktop/GD32VW553/V1_MQTT_OK/GD32VW55X_Wifi_BLE_SDK/GD32VW55x_RELEASE_V1.0.2/MSDK/wpa_supplicant/src/tls\pkcs5.c **** 	struct asn1_oid oid;
 119:C:/Users/stapi/OneDrive/Desktop/GD32VW553/V1_MQTT_OK/GD32VW55X_Wifi_BLE_SDK/GD32VW55x_RELEASE_V1.0.2/MSDK/wpa_supplicant/src/tls\pkcs5.c **** 	char obuf[80];
 120:C:/Users/stapi/OneDrive/Desktop/GD32VW553/V1_MQTT_OK/GD32VW55X_Wifi_BLE_SDK/GD32VW55x_RELEASE_V1.0.2/MSDK/wpa_supplicant/src/tls\pkcs5.c **** 
 121:C:/Users/stapi/OneDrive/Desktop/GD32VW553/V1_MQTT_OK/GD32VW55X_Wifi_BLE_SDK/GD32VW55x_RELEASE_V1.0.2/MSDK/wpa_supplicant/src/tls\pkcs5.c **** 	/*
 122:C:/Users/stapi/OneDrive/Desktop/GD32VW553/V1_MQTT_OK/GD32VW55X_Wifi_BLE_SDK/GD32VW55x_RELEASE_V1.0.2/MSDK/wpa_supplicant/src/tls\pkcs5.c **** 	 * RFC 2898, Ch. A.4
 123:C:/Users/stapi/OneDrive/Desktop/GD32VW553/V1_MQTT_OK/GD32VW55X_Wifi_BLE_SDK/GD32VW55x_RELEASE_V1.0.2/MSDK/wpa_supplicant/src/tls\pkcs5.c **** 	 *
 124:C:/Users/stapi/OneDrive/Desktop/GD32VW553/V1_MQTT_OK/GD32VW55X_Wifi_BLE_SDK/GD32VW55x_RELEASE_V1.0.2/MSDK/wpa_supplicant/src/tls\pkcs5.c **** 	 * PBES2-params ::= SEQUENCE {
 125:C:/Users/stapi/OneDrive/Desktop/GD32VW553/V1_MQTT_OK/GD32VW55X_Wifi_BLE_SDK/GD32VW55x_RELEASE_V1.0.2/MSDK/wpa_supplicant/src/tls\pkcs5.c **** 	 *     keyDerivationFunc AlgorithmIdentifier {{PBES2-KDFs}},
 126:C:/Users/stapi/OneDrive/Desktop/GD32VW553/V1_MQTT_OK/GD32VW55X_Wifi_BLE_SDK/GD32VW55x_RELEASE_V1.0.2/MSDK/wpa_supplicant/src/tls\pkcs5.c **** 	 *     encryptionScheme AlgorithmIdentifier {{PBES2-Encs}} }
 127:C:/Users/stapi/OneDrive/Desktop/GD32VW553/V1_MQTT_OK/GD32VW55X_Wifi_BLE_SDK/GD32VW55x_RELEASE_V1.0.2/MSDK/wpa_supplicant/src/tls\pkcs5.c **** 	 *
 128:C:/Users/stapi/OneDrive/Desktop/GD32VW553/V1_MQTT_OK/GD32VW55X_Wifi_BLE_SDK/GD32VW55x_RELEASE_V1.0.2/MSDK/wpa_supplicant/src/tls\pkcs5.c **** 	 * PBES2-KDFs ALGORITHM-IDENTIFIER ::=
 129:C:/Users/stapi/OneDrive/Desktop/GD32VW553/V1_MQTT_OK/GD32VW55X_Wifi_BLE_SDK/GD32VW55x_RELEASE_V1.0.2/MSDK/wpa_supplicant/src/tls\pkcs5.c **** 	 *     { {PBKDF2-params IDENTIFIED BY id-PBKDF2}, ... }
 130:C:/Users/stapi/OneDrive/Desktop/GD32VW553/V1_MQTT_OK/GD32VW55X_Wifi_BLE_SDK/GD32VW55x_RELEASE_V1.0.2/MSDK/wpa_supplicant/src/tls\pkcs5.c **** 	 */
 131:C:/Users/stapi/OneDrive/Desktop/GD32VW553/V1_MQTT_OK/GD32VW55X_Wifi_BLE_SDK/GD32VW55x_RELEASE_V1.0.2/MSDK/wpa_supplicant/src/tls\pkcs5.c **** 
 132:C:/Users/stapi/OneDrive/Desktop/GD32VW553/V1_MQTT_OK/GD32VW55X_Wifi_BLE_SDK/GD32VW55x_RELEASE_V1.0.2/MSDK/wpa_supplicant/src/tls\pkcs5.c **** 	if (asn1_get_next(pos, enc_alg_end - pos, &hdr) < 0 ||
 133:C:/Users/stapi/OneDrive/Desktop/GD32VW553/V1_MQTT_OK/GD32VW55X_Wifi_BLE_SDK/GD32VW55x_RELEASE_V1.0.2/MSDK/wpa_supplicant/src/tls\pkcs5.c **** 	    !asn1_is_sequence(&hdr)) {
 134:C:/Users/stapi/OneDrive/Desktop/GD32VW553/V1_MQTT_OK/GD32VW55X_Wifi_BLE_SDK/GD32VW55x_RELEASE_V1.0.2/MSDK/wpa_supplicant/src/tls\pkcs5.c **** 		asn1_unexpected(&hdr,
 135:C:/Users/stapi/OneDrive/Desktop/GD32VW553/V1_MQTT_OK/GD32VW55X_Wifi_BLE_SDK/GD32VW55x_RELEASE_V1.0.2/MSDK/wpa_supplicant/src/tls\pkcs5.c **** 				"PKCS #5: Expected SEQUENCE (PBES2-params)");
 136:C:/Users/stapi/OneDrive/Desktop/GD32VW553/V1_MQTT_OK/GD32VW55X_Wifi_BLE_SDK/GD32VW55x_RELEASE_V1.0.2/MSDK/wpa_supplicant/src/tls\pkcs5.c **** 		return -1;
 137:C:/Users/stapi/OneDrive/Desktop/GD32VW553/V1_MQTT_OK/GD32VW55X_Wifi_BLE_SDK/GD32VW55x_RELEASE_V1.0.2/MSDK/wpa_supplicant/src/tls\pkcs5.c **** 	}
 138:C:/Users/stapi/OneDrive/Desktop/GD32VW553/V1_MQTT_OK/GD32VW55X_Wifi_BLE_SDK/GD32VW55x_RELEASE_V1.0.2/MSDK/wpa_supplicant/src/tls\pkcs5.c **** 	pos = hdr.payload;
 139:C:/Users/stapi/OneDrive/Desktop/GD32VW553/V1_MQTT_OK/GD32VW55X_Wifi_BLE_SDK/GD32VW55x_RELEASE_V1.0.2/MSDK/wpa_supplicant/src/tls\pkcs5.c **** 	end = hdr.payload + hdr.length;
 140:C:/Users/stapi/OneDrive/Desktop/GD32VW553/V1_MQTT_OK/GD32VW55X_Wifi_BLE_SDK/GD32VW55x_RELEASE_V1.0.2/MSDK/wpa_supplicant/src/tls\pkcs5.c **** 
 141:C:/Users/stapi/OneDrive/Desktop/GD32VW553/V1_MQTT_OK/GD32VW55X_Wifi_BLE_SDK/GD32VW55x_RELEASE_V1.0.2/MSDK/wpa_supplicant/src/tls\pkcs5.c **** 	if (asn1_get_next(pos, end - pos, &hdr) < 0 ||
 142:C:/Users/stapi/OneDrive/Desktop/GD32VW553/V1_MQTT_OK/GD32VW55X_Wifi_BLE_SDK/GD32VW55x_RELEASE_V1.0.2/MSDK/wpa_supplicant/src/tls\pkcs5.c **** 	    !asn1_is_sequence(&hdr)) {
 143:C:/Users/stapi/OneDrive/Desktop/GD32VW553/V1_MQTT_OK/GD32VW55X_Wifi_BLE_SDK/GD32VW55x_RELEASE_V1.0.2/MSDK/wpa_supplicant/src/tls\pkcs5.c **** 		asn1_unexpected(&hdr,
 144:C:/Users/stapi/OneDrive/Desktop/GD32VW553/V1_MQTT_OK/GD32VW55X_Wifi_BLE_SDK/GD32VW55x_RELEASE_V1.0.2/MSDK/wpa_supplicant/src/tls\pkcs5.c **** 				"PKCS #5: Expected SEQUENCE (keyDerivationFunc)");
 145:C:/Users/stapi/OneDrive/Desktop/GD32VW553/V1_MQTT_OK/GD32VW55X_Wifi_BLE_SDK/GD32VW55x_RELEASE_V1.0.2/MSDK/wpa_supplicant/src/tls\pkcs5.c **** 		return -1;
 146:C:/Users/stapi/OneDrive/Desktop/GD32VW553/V1_MQTT_OK/GD32VW55X_Wifi_BLE_SDK/GD32VW55x_RELEASE_V1.0.2/MSDK/wpa_supplicant/src/tls\pkcs5.c **** 	}
 147:C:/Users/stapi/OneDrive/Desktop/GD32VW553/V1_MQTT_OK/GD32VW55X_Wifi_BLE_SDK/GD32VW55x_RELEASE_V1.0.2/MSDK/wpa_supplicant/src/tls\pkcs5.c **** 
 148:C:/Users/stapi/OneDrive/Desktop/GD32VW553/V1_MQTT_OK/GD32VW55X_Wifi_BLE_SDK/GD32VW55x_RELEASE_V1.0.2/MSDK/wpa_supplicant/src/tls\pkcs5.c **** 	pos = hdr.payload;
 149:C:/Users/stapi/OneDrive/Desktop/GD32VW553/V1_MQTT_OK/GD32VW55X_Wifi_BLE_SDK/GD32VW55x_RELEASE_V1.0.2/MSDK/wpa_supplicant/src/tls\pkcs5.c **** 	kdf_end = end = hdr.payload + hdr.length;
 150:C:/Users/stapi/OneDrive/Desktop/GD32VW553/V1_MQTT_OK/GD32VW55X_Wifi_BLE_SDK/GD32VW55x_RELEASE_V1.0.2/MSDK/wpa_supplicant/src/tls\pkcs5.c **** 
 151:C:/Users/stapi/OneDrive/Desktop/GD32VW553/V1_MQTT_OK/GD32VW55X_Wifi_BLE_SDK/GD32VW55x_RELEASE_V1.0.2/MSDK/wpa_supplicant/src/tls\pkcs5.c **** 	if (asn1_get_oid(pos, end - pos, &oid, &pos)) {
 152:C:/Users/stapi/OneDrive/Desktop/GD32VW553/V1_MQTT_OK/GD32VW55X_Wifi_BLE_SDK/GD32VW55x_RELEASE_V1.0.2/MSDK/wpa_supplicant/src/tls\pkcs5.c **** 		wpa_printf(MSG_DEBUG,
 153:C:/Users/stapi/OneDrive/Desktop/GD32VW553/V1_MQTT_OK/GD32VW55X_Wifi_BLE_SDK/GD32VW55x_RELEASE_V1.0.2/MSDK/wpa_supplicant/src/tls\pkcs5.c **** 			   "PKCS #5: Failed to parse OID (keyDerivationFunc algorithm)");
 154:C:/Users/stapi/OneDrive/Desktop/GD32VW553/V1_MQTT_OK/GD32VW55X_Wifi_BLE_SDK/GD32VW55x_RELEASE_V1.0.2/MSDK/wpa_supplicant/src/tls\pkcs5.c **** 		return -1;
 155:C:/Users/stapi/OneDrive/Desktop/GD32VW553/V1_MQTT_OK/GD32VW55X_Wifi_BLE_SDK/GD32VW55x_RELEASE_V1.0.2/MSDK/wpa_supplicant/src/tls\pkcs5.c **** 	}
 156:C:/Users/stapi/OneDrive/Desktop/GD32VW553/V1_MQTT_OK/GD32VW55X_Wifi_BLE_SDK/GD32VW55x_RELEASE_V1.0.2/MSDK/wpa_supplicant/src/tls\pkcs5.c **** 
 157:C:/Users/stapi/OneDrive/Desktop/GD32VW553/V1_MQTT_OK/GD32VW55X_Wifi_BLE_SDK/GD32VW55x_RELEASE_V1.0.2/MSDK/wpa_supplicant/src/tls\pkcs5.c **** 	asn1_oid_to_str(&oid, obuf, sizeof(obuf));
 158:C:/Users/stapi/OneDrive/Desktop/GD32VW553/V1_MQTT_OK/GD32VW55X_Wifi_BLE_SDK/GD32VW55x_RELEASE_V1.0.2/MSDK/wpa_supplicant/src/tls\pkcs5.c **** 	wpa_printf(MSG_DEBUG, "PKCS #5: PBES2 keyDerivationFunc algorithm %s",
 159:C:/Users/stapi/OneDrive/Desktop/GD32VW553/V1_MQTT_OK/GD32VW55X_Wifi_BLE_SDK/GD32VW55x_RELEASE_V1.0.2/MSDK/wpa_supplicant/src/tls\pkcs5.c **** 		   obuf);
 160:C:/Users/stapi/OneDrive/Desktop/GD32VW553/V1_MQTT_OK/GD32VW55X_Wifi_BLE_SDK/GD32VW55x_RELEASE_V1.0.2/MSDK/wpa_supplicant/src/tls\pkcs5.c **** 	if (!pkcs5_is_oid(&oid, 12)) /* id-PBKDF2 */ {
 161:C:/Users/stapi/OneDrive/Desktop/GD32VW553/V1_MQTT_OK/GD32VW55X_Wifi_BLE_SDK/GD32VW55x_RELEASE_V1.0.2/MSDK/wpa_supplicant/src/tls\pkcs5.c **** 		wpa_printf(MSG_DEBUG,
 162:C:/Users/stapi/OneDrive/Desktop/GD32VW553/V1_MQTT_OK/GD32VW55X_Wifi_BLE_SDK/GD32VW55x_RELEASE_V1.0.2/MSDK/wpa_supplicant/src/tls\pkcs5.c **** 			   "PKCS #5: Unsupported PBES2 keyDerivationFunc algorithm %s",
 163:C:/Users/stapi/OneDrive/Desktop/GD32VW553/V1_MQTT_OK/GD32VW55X_Wifi_BLE_SDK/GD32VW55x_RELEASE_V1.0.2/MSDK/wpa_supplicant/src/tls\pkcs5.c **** 			   obuf);
 164:C:/Users/stapi/OneDrive/Desktop/GD32VW553/V1_MQTT_OK/GD32VW55X_Wifi_BLE_SDK/GD32VW55x_RELEASE_V1.0.2/MSDK/wpa_supplicant/src/tls\pkcs5.c **** 		return -1;
 165:C:/Users/stapi/OneDrive/Desktop/GD32VW553/V1_MQTT_OK/GD32VW55X_Wifi_BLE_SDK/GD32VW55x_RELEASE_V1.0.2/MSDK/wpa_supplicant/src/tls\pkcs5.c **** 	}
 166:C:/Users/stapi/OneDrive/Desktop/GD32VW553/V1_MQTT_OK/GD32VW55X_Wifi_BLE_SDK/GD32VW55x_RELEASE_V1.0.2/MSDK/wpa_supplicant/src/tls\pkcs5.c **** 
 167:C:/Users/stapi/OneDrive/Desktop/GD32VW553/V1_MQTT_OK/GD32VW55X_Wifi_BLE_SDK/GD32VW55x_RELEASE_V1.0.2/MSDK/wpa_supplicant/src/tls\pkcs5.c **** 	/*
 168:C:/Users/stapi/OneDrive/Desktop/GD32VW553/V1_MQTT_OK/GD32VW55X_Wifi_BLE_SDK/GD32VW55x_RELEASE_V1.0.2/MSDK/wpa_supplicant/src/tls\pkcs5.c **** 	 * RFC 2898, C.
 169:C:/Users/stapi/OneDrive/Desktop/GD32VW553/V1_MQTT_OK/GD32VW55X_Wifi_BLE_SDK/GD32VW55x_RELEASE_V1.0.2/MSDK/wpa_supplicant/src/tls\pkcs5.c **** 	 *
 170:C:/Users/stapi/OneDrive/Desktop/GD32VW553/V1_MQTT_OK/GD32VW55X_Wifi_BLE_SDK/GD32VW55x_RELEASE_V1.0.2/MSDK/wpa_supplicant/src/tls\pkcs5.c **** 	 * PBKDF2-params ::= SEQUENCE {
 171:C:/Users/stapi/OneDrive/Desktop/GD32VW553/V1_MQTT_OK/GD32VW55X_Wifi_BLE_SDK/GD32VW55x_RELEASE_V1.0.2/MSDK/wpa_supplicant/src/tls\pkcs5.c **** 	 *     salt CHOICE {
 172:C:/Users/stapi/OneDrive/Desktop/GD32VW553/V1_MQTT_OK/GD32VW55X_Wifi_BLE_SDK/GD32VW55x_RELEASE_V1.0.2/MSDK/wpa_supplicant/src/tls\pkcs5.c **** 	 *       specified OCTET STRING,
 173:C:/Users/stapi/OneDrive/Desktop/GD32VW553/V1_MQTT_OK/GD32VW55X_Wifi_BLE_SDK/GD32VW55x_RELEASE_V1.0.2/MSDK/wpa_supplicant/src/tls\pkcs5.c **** 	 *       otherSource AlgorithmIdentifier {{PBKDF2-SaltSources}}
 174:C:/Users/stapi/OneDrive/Desktop/GD32VW553/V1_MQTT_OK/GD32VW55X_Wifi_BLE_SDK/GD32VW55x_RELEASE_V1.0.2/MSDK/wpa_supplicant/src/tls\pkcs5.c **** 	 *     },
 175:C:/Users/stapi/OneDrive/Desktop/GD32VW553/V1_MQTT_OK/GD32VW55X_Wifi_BLE_SDK/GD32VW55x_RELEASE_V1.0.2/MSDK/wpa_supplicant/src/tls\pkcs5.c **** 	 *     iterationCount INTEGER (1..MAX),
 176:C:/Users/stapi/OneDrive/Desktop/GD32VW553/V1_MQTT_OK/GD32VW55X_Wifi_BLE_SDK/GD32VW55x_RELEASE_V1.0.2/MSDK/wpa_supplicant/src/tls\pkcs5.c **** 	 *     keyLength INTEGER (1..MAX) OPTIONAL,
 177:C:/Users/stapi/OneDrive/Desktop/GD32VW553/V1_MQTT_OK/GD32VW55X_Wifi_BLE_SDK/GD32VW55x_RELEASE_V1.0.2/MSDK/wpa_supplicant/src/tls\pkcs5.c **** 	 *     prf AlgorithmIdentifier {{PBKDF2-PRFs}} DEFAULT
 178:C:/Users/stapi/OneDrive/Desktop/GD32VW553/V1_MQTT_OK/GD32VW55X_Wifi_BLE_SDK/GD32VW55x_RELEASE_V1.0.2/MSDK/wpa_supplicant/src/tls\pkcs5.c **** 	 *     algid-hmacWithSHA1
 179:C:/Users/stapi/OneDrive/Desktop/GD32VW553/V1_MQTT_OK/GD32VW55X_Wifi_BLE_SDK/GD32VW55x_RELEASE_V1.0.2/MSDK/wpa_supplicant/src/tls\pkcs5.c **** 	 * }
 180:C:/Users/stapi/OneDrive/Desktop/GD32VW553/V1_MQTT_OK/GD32VW55X_Wifi_BLE_SDK/GD32VW55x_RELEASE_V1.0.2/MSDK/wpa_supplicant/src/tls\pkcs5.c **** 	 */
 181:C:/Users/stapi/OneDrive/Desktop/GD32VW553/V1_MQTT_OK/GD32VW55X_Wifi_BLE_SDK/GD32VW55x_RELEASE_V1.0.2/MSDK/wpa_supplicant/src/tls\pkcs5.c **** 
 182:C:/Users/stapi/OneDrive/Desktop/GD32VW553/V1_MQTT_OK/GD32VW55X_Wifi_BLE_SDK/GD32VW55x_RELEASE_V1.0.2/MSDK/wpa_supplicant/src/tls\pkcs5.c **** 	if (asn1_get_next(pos, end - pos, &hdr) < 0 ||
 183:C:/Users/stapi/OneDrive/Desktop/GD32VW553/V1_MQTT_OK/GD32VW55X_Wifi_BLE_SDK/GD32VW55x_RELEASE_V1.0.2/MSDK/wpa_supplicant/src/tls\pkcs5.c **** 	    !asn1_is_sequence(&hdr)) {
 184:C:/Users/stapi/OneDrive/Desktop/GD32VW553/V1_MQTT_OK/GD32VW55X_Wifi_BLE_SDK/GD32VW55x_RELEASE_V1.0.2/MSDK/wpa_supplicant/src/tls\pkcs5.c **** 		asn1_unexpected(&hdr,
 185:C:/Users/stapi/OneDrive/Desktop/GD32VW553/V1_MQTT_OK/GD32VW55X_Wifi_BLE_SDK/GD32VW55x_RELEASE_V1.0.2/MSDK/wpa_supplicant/src/tls\pkcs5.c **** 				"PKCS #5: Expected SEQUENCE (PBKDF2-params)");
 186:C:/Users/stapi/OneDrive/Desktop/GD32VW553/V1_MQTT_OK/GD32VW55X_Wifi_BLE_SDK/GD32VW55x_RELEASE_V1.0.2/MSDK/wpa_supplicant/src/tls\pkcs5.c **** 		return -1;
 187:C:/Users/stapi/OneDrive/Desktop/GD32VW553/V1_MQTT_OK/GD32VW55X_Wifi_BLE_SDK/GD32VW55x_RELEASE_V1.0.2/MSDK/wpa_supplicant/src/tls\pkcs5.c **** 	}
 188:C:/Users/stapi/OneDrive/Desktop/GD32VW553/V1_MQTT_OK/GD32VW55X_Wifi_BLE_SDK/GD32VW55x_RELEASE_V1.0.2/MSDK/wpa_supplicant/src/tls\pkcs5.c **** 
 189:C:/Users/stapi/OneDrive/Desktop/GD32VW553/V1_MQTT_OK/GD32VW55X_Wifi_BLE_SDK/GD32VW55x_RELEASE_V1.0.2/MSDK/wpa_supplicant/src/tls\pkcs5.c **** 	pos = hdr.payload;
 190:C:/Users/stapi/OneDrive/Desktop/GD32VW553/V1_MQTT_OK/GD32VW55X_Wifi_BLE_SDK/GD32VW55x_RELEASE_V1.0.2/MSDK/wpa_supplicant/src/tls\pkcs5.c **** 	end = hdr.payload + hdr.length;
 191:C:/Users/stapi/OneDrive/Desktop/GD32VW553/V1_MQTT_OK/GD32VW55X_Wifi_BLE_SDK/GD32VW55x_RELEASE_V1.0.2/MSDK/wpa_supplicant/src/tls\pkcs5.c **** 
 192:C:/Users/stapi/OneDrive/Desktop/GD32VW553/V1_MQTT_OK/GD32VW55X_Wifi_BLE_SDK/GD32VW55x_RELEASE_V1.0.2/MSDK/wpa_supplicant/src/tls\pkcs5.c **** 	/* For now, only support the salt CHOICE specified (OCTET STRING) */
 193:C:/Users/stapi/OneDrive/Desktop/GD32VW553/V1_MQTT_OK/GD32VW55X_Wifi_BLE_SDK/GD32VW55x_RELEASE_V1.0.2/MSDK/wpa_supplicant/src/tls\pkcs5.c **** 	if (asn1_get_next(pos, end - pos, &hdr) < 0 ||
 194:C:/Users/stapi/OneDrive/Desktop/GD32VW553/V1_MQTT_OK/GD32VW55X_Wifi_BLE_SDK/GD32VW55x_RELEASE_V1.0.2/MSDK/wpa_supplicant/src/tls\pkcs5.c **** 	    !asn1_is_octetstring(&hdr) ||
 195:C:/Users/stapi/OneDrive/Desktop/GD32VW553/V1_MQTT_OK/GD32VW55X_Wifi_BLE_SDK/GD32VW55x_RELEASE_V1.0.2/MSDK/wpa_supplicant/src/tls\pkcs5.c **** 	    hdr.length > sizeof(params->salt)) {
 196:C:/Users/stapi/OneDrive/Desktop/GD32VW553/V1_MQTT_OK/GD32VW55X_Wifi_BLE_SDK/GD32VW55x_RELEASE_V1.0.2/MSDK/wpa_supplicant/src/tls\pkcs5.c **** 		asn1_unexpected(&hdr,
 197:C:/Users/stapi/OneDrive/Desktop/GD32VW553/V1_MQTT_OK/GD32VW55X_Wifi_BLE_SDK/GD32VW55x_RELEASE_V1.0.2/MSDK/wpa_supplicant/src/tls\pkcs5.c **** 				"PKCS #5: Expected OCTET STRING (salt.specified)");
 198:C:/Users/stapi/OneDrive/Desktop/GD32VW553/V1_MQTT_OK/GD32VW55X_Wifi_BLE_SDK/GD32VW55x_RELEASE_V1.0.2/MSDK/wpa_supplicant/src/tls\pkcs5.c **** 		return -1;
 199:C:/Users/stapi/OneDrive/Desktop/GD32VW553/V1_MQTT_OK/GD32VW55X_Wifi_BLE_SDK/GD32VW55x_RELEASE_V1.0.2/MSDK/wpa_supplicant/src/tls\pkcs5.c **** 	}
 200:C:/Users/stapi/OneDrive/Desktop/GD32VW553/V1_MQTT_OK/GD32VW55X_Wifi_BLE_SDK/GD32VW55x_RELEASE_V1.0.2/MSDK/wpa_supplicant/src/tls\pkcs5.c **** 	pos = hdr.payload + hdr.length;
 201:C:/Users/stapi/OneDrive/Desktop/GD32VW553/V1_MQTT_OK/GD32VW55X_Wifi_BLE_SDK/GD32VW55x_RELEASE_V1.0.2/MSDK/wpa_supplicant/src/tls\pkcs5.c **** 	os_memcpy(params->salt, hdr.payload, hdr.length);
 202:C:/Users/stapi/OneDrive/Desktop/GD32VW553/V1_MQTT_OK/GD32VW55X_Wifi_BLE_SDK/GD32VW55x_RELEASE_V1.0.2/MSDK/wpa_supplicant/src/tls\pkcs5.c **** 	params->salt_len = hdr.length;
 203:C:/Users/stapi/OneDrive/Desktop/GD32VW553/V1_MQTT_OK/GD32VW55X_Wifi_BLE_SDK/GD32VW55x_RELEASE_V1.0.2/MSDK/wpa_supplicant/src/tls\pkcs5.c **** 	wpa_hexdump(MSG_DEBUG, "PKCS #5: salt", params->salt, params->salt_len);
 204:C:/Users/stapi/OneDrive/Desktop/GD32VW553/V1_MQTT_OK/GD32VW55X_Wifi_BLE_SDK/GD32VW55x_RELEASE_V1.0.2/MSDK/wpa_supplicant/src/tls\pkcs5.c **** 
 205:C:/Users/stapi/OneDrive/Desktop/GD32VW553/V1_MQTT_OK/GD32VW55X_Wifi_BLE_SDK/GD32VW55x_RELEASE_V1.0.2/MSDK/wpa_supplicant/src/tls\pkcs5.c **** 	/* iterationCount INTEGER */
 206:C:/Users/stapi/OneDrive/Desktop/GD32VW553/V1_MQTT_OK/GD32VW55X_Wifi_BLE_SDK/GD32VW55x_RELEASE_V1.0.2/MSDK/wpa_supplicant/src/tls\pkcs5.c **** 	if (asn1_get_next(pos, end - pos, &hdr) < 0 || !asn1_is_integer(&hdr)) {
 207:C:/Users/stapi/OneDrive/Desktop/GD32VW553/V1_MQTT_OK/GD32VW55X_Wifi_BLE_SDK/GD32VW55x_RELEASE_V1.0.2/MSDK/wpa_supplicant/src/tls\pkcs5.c **** 		asn1_unexpected(&hdr, "PKCS #5: Expected INTEGER");
 208:C:/Users/stapi/OneDrive/Desktop/GD32VW553/V1_MQTT_OK/GD32VW55X_Wifi_BLE_SDK/GD32VW55x_RELEASE_V1.0.2/MSDK/wpa_supplicant/src/tls\pkcs5.c **** 		return -1;
 209:C:/Users/stapi/OneDrive/Desktop/GD32VW553/V1_MQTT_OK/GD32VW55X_Wifi_BLE_SDK/GD32VW55x_RELEASE_V1.0.2/MSDK/wpa_supplicant/src/tls\pkcs5.c **** 	}
 210:C:/Users/stapi/OneDrive/Desktop/GD32VW553/V1_MQTT_OK/GD32VW55X_Wifi_BLE_SDK/GD32VW55x_RELEASE_V1.0.2/MSDK/wpa_supplicant/src/tls\pkcs5.c **** 	if (hdr.length == 1) {
 211:C:/Users/stapi/OneDrive/Desktop/GD32VW553/V1_MQTT_OK/GD32VW55X_Wifi_BLE_SDK/GD32VW55x_RELEASE_V1.0.2/MSDK/wpa_supplicant/src/tls\pkcs5.c **** 		params->iter_count = *hdr.payload;
 212:C:/Users/stapi/OneDrive/Desktop/GD32VW553/V1_MQTT_OK/GD32VW55X_Wifi_BLE_SDK/GD32VW55x_RELEASE_V1.0.2/MSDK/wpa_supplicant/src/tls\pkcs5.c **** 	} else if (hdr.length == 2) {
 213:C:/Users/stapi/OneDrive/Desktop/GD32VW553/V1_MQTT_OK/GD32VW55X_Wifi_BLE_SDK/GD32VW55x_RELEASE_V1.0.2/MSDK/wpa_supplicant/src/tls\pkcs5.c **** 		params->iter_count = WPA_GET_BE16(hdr.payload);
 214:C:/Users/stapi/OneDrive/Desktop/GD32VW553/V1_MQTT_OK/GD32VW55X_Wifi_BLE_SDK/GD32VW55x_RELEASE_V1.0.2/MSDK/wpa_supplicant/src/tls\pkcs5.c **** 	} else if (hdr.length == 4) {
 215:C:/Users/stapi/OneDrive/Desktop/GD32VW553/V1_MQTT_OK/GD32VW55X_Wifi_BLE_SDK/GD32VW55x_RELEASE_V1.0.2/MSDK/wpa_supplicant/src/tls\pkcs5.c **** 		params->iter_count = WPA_GET_BE32(hdr.payload);
 216:C:/Users/stapi/OneDrive/Desktop/GD32VW553/V1_MQTT_OK/GD32VW55X_Wifi_BLE_SDK/GD32VW55x_RELEASE_V1.0.2/MSDK/wpa_supplicant/src/tls\pkcs5.c **** 	} else {
 217:C:/Users/stapi/OneDrive/Desktop/GD32VW553/V1_MQTT_OK/GD32VW55X_Wifi_BLE_SDK/GD32VW55x_RELEASE_V1.0.2/MSDK/wpa_supplicant/src/tls\pkcs5.c **** 		wpa_hexdump(MSG_DEBUG,
 218:C:/Users/stapi/OneDrive/Desktop/GD32VW553/V1_MQTT_OK/GD32VW55X_Wifi_BLE_SDK/GD32VW55x_RELEASE_V1.0.2/MSDK/wpa_supplicant/src/tls\pkcs5.c **** 			    "PKCS #5: Unsupported INTEGER value (iterationCount)",
 219:C:/Users/stapi/OneDrive/Desktop/GD32VW553/V1_MQTT_OK/GD32VW55X_Wifi_BLE_SDK/GD32VW55x_RELEASE_V1.0.2/MSDK/wpa_supplicant/src/tls\pkcs5.c **** 			    hdr.payload, hdr.length);
 220:C:/Users/stapi/OneDrive/Desktop/GD32VW553/V1_MQTT_OK/GD32VW55X_Wifi_BLE_SDK/GD32VW55x_RELEASE_V1.0.2/MSDK/wpa_supplicant/src/tls\pkcs5.c **** 		return -1;
 221:C:/Users/stapi/OneDrive/Desktop/GD32VW553/V1_MQTT_OK/GD32VW55X_Wifi_BLE_SDK/GD32VW55x_RELEASE_V1.0.2/MSDK/wpa_supplicant/src/tls\pkcs5.c **** 	}
 222:C:/Users/stapi/OneDrive/Desktop/GD32VW553/V1_MQTT_OK/GD32VW55X_Wifi_BLE_SDK/GD32VW55x_RELEASE_V1.0.2/MSDK/wpa_supplicant/src/tls\pkcs5.c **** 	wpa_printf(MSG_DEBUG, "PKCS #5: iterationCount=0x%x",
 223:C:/Users/stapi/OneDrive/Desktop/GD32VW553/V1_MQTT_OK/GD32VW55X_Wifi_BLE_SDK/GD32VW55x_RELEASE_V1.0.2/MSDK/wpa_supplicant/src/tls\pkcs5.c **** 		   params->iter_count);
 224:C:/Users/stapi/OneDrive/Desktop/GD32VW553/V1_MQTT_OK/GD32VW55X_Wifi_BLE_SDK/GD32VW55x_RELEASE_V1.0.2/MSDK/wpa_supplicant/src/tls\pkcs5.c **** 	if (params->iter_count == 0 || params->iter_count > 0xffff) {
 225:C:/Users/stapi/OneDrive/Desktop/GD32VW553/V1_MQTT_OK/GD32VW55X_Wifi_BLE_SDK/GD32VW55x_RELEASE_V1.0.2/MSDK/wpa_supplicant/src/tls\pkcs5.c **** 		wpa_printf(MSG_INFO, "PKCS #5: Unsupported iterationCount=0x%x",
 226:C:/Users/stapi/OneDrive/Desktop/GD32VW553/V1_MQTT_OK/GD32VW55X_Wifi_BLE_SDK/GD32VW55x_RELEASE_V1.0.2/MSDK/wpa_supplicant/src/tls\pkcs5.c **** 			   params->iter_count);
 227:C:/Users/stapi/OneDrive/Desktop/GD32VW553/V1_MQTT_OK/GD32VW55X_Wifi_BLE_SDK/GD32VW55x_RELEASE_V1.0.2/MSDK/wpa_supplicant/src/tls\pkcs5.c **** 		return -1;
 228:C:/Users/stapi/OneDrive/Desktop/GD32VW553/V1_MQTT_OK/GD32VW55X_Wifi_BLE_SDK/GD32VW55x_RELEASE_V1.0.2/MSDK/wpa_supplicant/src/tls\pkcs5.c **** 	}
 229:C:/Users/stapi/OneDrive/Desktop/GD32VW553/V1_MQTT_OK/GD32VW55X_Wifi_BLE_SDK/GD32VW55x_RELEASE_V1.0.2/MSDK/wpa_supplicant/src/tls\pkcs5.c **** 
 230:C:/Users/stapi/OneDrive/Desktop/GD32VW553/V1_MQTT_OK/GD32VW55X_Wifi_BLE_SDK/GD32VW55x_RELEASE_V1.0.2/MSDK/wpa_supplicant/src/tls\pkcs5.c **** #ifdef CONFIG_GDWIFI
 231:C:/Users/stapi/OneDrive/Desktop/GD32VW553/V1_MQTT_OK/GD32VW55X_Wifi_BLE_SDK/GD32VW55x_RELEASE_V1.0.2/MSDK/wpa_supplicant/src/tls\pkcs5.c **** 	pos = hdr.payload + hdr.length;
 232:C:/Users/stapi/OneDrive/Desktop/GD32VW553/V1_MQTT_OK/GD32VW55X_Wifi_BLE_SDK/GD32VW55x_RELEASE_V1.0.2/MSDK/wpa_supplicant/src/tls\pkcs5.c **** 
 233:C:/Users/stapi/OneDrive/Desktop/GD32VW553/V1_MQTT_OK/GD32VW55X_Wifi_BLE_SDK/GD32VW55x_RELEASE_V1.0.2/MSDK/wpa_supplicant/src/tls\pkcs5.c **** 	if (pos != kdf_end) {
 234:C:/Users/stapi/OneDrive/Desktop/GD32VW553/V1_MQTT_OK/GD32VW55X_Wifi_BLE_SDK/GD32VW55x_RELEASE_V1.0.2/MSDK/wpa_supplicant/src/tls\pkcs5.c **** 		if (asn1_get_next(pos, kdf_end - pos, &hdr) < 0 ||
 235:C:/Users/stapi/OneDrive/Desktop/GD32VW553/V1_MQTT_OK/GD32VW55X_Wifi_BLE_SDK/GD32VW55x_RELEASE_V1.0.2/MSDK/wpa_supplicant/src/tls\pkcs5.c **** 			!asn1_is_sequence(&hdr)) {
 236:C:/Users/stapi/OneDrive/Desktop/GD32VW553/V1_MQTT_OK/GD32VW55X_Wifi_BLE_SDK/GD32VW55x_RELEASE_V1.0.2/MSDK/wpa_supplicant/src/tls\pkcs5.c **** 			asn1_unexpected(&hdr,
 237:C:/Users/stapi/OneDrive/Desktop/GD32VW553/V1_MQTT_OK/GD32VW55X_Wifi_BLE_SDK/GD32VW55x_RELEASE_V1.0.2/MSDK/wpa_supplicant/src/tls\pkcs5.c **** 				"PKCS #5: Expected SEQUENCE (digestAlgorithm)");
 238:C:/Users/stapi/OneDrive/Desktop/GD32VW553/V1_MQTT_OK/GD32VW55X_Wifi_BLE_SDK/GD32VW55x_RELEASE_V1.0.2/MSDK/wpa_supplicant/src/tls\pkcs5.c **** 			return -1;
 239:C:/Users/stapi/OneDrive/Desktop/GD32VW553/V1_MQTT_OK/GD32VW55X_Wifi_BLE_SDK/GD32VW55x_RELEASE_V1.0.2/MSDK/wpa_supplicant/src/tls\pkcs5.c **** 		}
 240:C:/Users/stapi/OneDrive/Desktop/GD32VW553/V1_MQTT_OK/GD32VW55X_Wifi_BLE_SDK/GD32VW55x_RELEASE_V1.0.2/MSDK/wpa_supplicant/src/tls\pkcs5.c **** 
 241:C:/Users/stapi/OneDrive/Desktop/GD32VW553/V1_MQTT_OK/GD32VW55X_Wifi_BLE_SDK/GD32VW55x_RELEASE_V1.0.2/MSDK/wpa_supplicant/src/tls\pkcs5.c **** 		pos = hdr.payload;
 242:C:/Users/stapi/OneDrive/Desktop/GD32VW553/V1_MQTT_OK/GD32VW55X_Wifi_BLE_SDK/GD32VW55x_RELEASE_V1.0.2/MSDK/wpa_supplicant/src/tls\pkcs5.c **** 		end = hdr.payload + hdr.length;
 243:C:/Users/stapi/OneDrive/Desktop/GD32VW553/V1_MQTT_OK/GD32VW55X_Wifi_BLE_SDK/GD32VW55x_RELEASE_V1.0.2/MSDK/wpa_supplicant/src/tls\pkcs5.c **** 
 244:C:/Users/stapi/OneDrive/Desktop/GD32VW553/V1_MQTT_OK/GD32VW55X_Wifi_BLE_SDK/GD32VW55x_RELEASE_V1.0.2/MSDK/wpa_supplicant/src/tls\pkcs5.c **** 		if (asn1_get_oid(pos, end - pos, &oid, &pos)) {
 245:C:/Users/stapi/OneDrive/Desktop/GD32VW553/V1_MQTT_OK/GD32VW55X_Wifi_BLE_SDK/GD32VW55x_RELEASE_V1.0.2/MSDK/wpa_supplicant/src/tls\pkcs5.c **** 			wpa_printf(MSG_DEBUG,
 246:C:/Users/stapi/OneDrive/Desktop/GD32VW553/V1_MQTT_OK/GD32VW55X_Wifi_BLE_SDK/GD32VW55x_RELEASE_V1.0.2/MSDK/wpa_supplicant/src/tls\pkcs5.c **** 				"PKCS #5: Failed to parse OID (digest algorithm)");
 247:C:/Users/stapi/OneDrive/Desktop/GD32VW553/V1_MQTT_OK/GD32VW55X_Wifi_BLE_SDK/GD32VW55x_RELEASE_V1.0.2/MSDK/wpa_supplicant/src/tls\pkcs5.c **** 			return -1;
 248:C:/Users/stapi/OneDrive/Desktop/GD32VW553/V1_MQTT_OK/GD32VW55X_Wifi_BLE_SDK/GD32VW55x_RELEASE_V1.0.2/MSDK/wpa_supplicant/src/tls\pkcs5.c **** 		}
 249:C:/Users/stapi/OneDrive/Desktop/GD32VW553/V1_MQTT_OK/GD32VW55X_Wifi_BLE_SDK/GD32VW55x_RELEASE_V1.0.2/MSDK/wpa_supplicant/src/tls\pkcs5.c **** 
 250:C:/Users/stapi/OneDrive/Desktop/GD32VW553/V1_MQTT_OK/GD32VW55X_Wifi_BLE_SDK/GD32VW55x_RELEASE_V1.0.2/MSDK/wpa_supplicant/src/tls\pkcs5.c **** 		asn1_oid_to_str(&oid, obuf, sizeof(obuf));
 251:C:/Users/stapi/OneDrive/Desktop/GD32VW553/V1_MQTT_OK/GD32VW55X_Wifi_BLE_SDK/GD32VW55x_RELEASE_V1.0.2/MSDK/wpa_supplicant/src/tls\pkcs5.c **** 		wpa_printf(MSG_DEBUG, "PKCS #5: PBES2 digest algorithm %s",
 252:C:/Users/stapi/OneDrive/Desktop/GD32VW553/V1_MQTT_OK/GD32VW55X_Wifi_BLE_SDK/GD32VW55x_RELEASE_V1.0.2/MSDK/wpa_supplicant/src/tls\pkcs5.c **** 			obuf);
 253:C:/Users/stapi/OneDrive/Desktop/GD32VW553/V1_MQTT_OK/GD32VW55X_Wifi_BLE_SDK/GD32VW55x_RELEASE_V1.0.2/MSDK/wpa_supplicant/src/tls\pkcs5.c **** 
 254:C:/Users/stapi/OneDrive/Desktop/GD32VW553/V1_MQTT_OK/GD32VW55X_Wifi_BLE_SDK/GD32VW55x_RELEASE_V1.0.2/MSDK/wpa_supplicant/src/tls\pkcs5.c **** 		if (digest_alg_is_oid(&oid, 5)) {
 255:C:/Users/stapi/OneDrive/Desktop/GD32VW553/V1_MQTT_OK/GD32VW55X_Wifi_BLE_SDK/GD32VW55x_RELEASE_V1.0.2/MSDK/wpa_supplicant/src/tls\pkcs5.c **** 			params->dig_alg = PBKDF2_DIG_ALG_MD5;
 256:C:/Users/stapi/OneDrive/Desktop/GD32VW553/V1_MQTT_OK/GD32VW55X_Wifi_BLE_SDK/GD32VW55x_RELEASE_V1.0.2/MSDK/wpa_supplicant/src/tls\pkcs5.c **** 		} else if (digest_alg_is_oid(&oid, 7)) {
 257:C:/Users/stapi/OneDrive/Desktop/GD32VW553/V1_MQTT_OK/GD32VW55X_Wifi_BLE_SDK/GD32VW55x_RELEASE_V1.0.2/MSDK/wpa_supplicant/src/tls\pkcs5.c **** 			params->dig_alg = PBKDF2_DIG_ALG_SHA1;
 258:C:/Users/stapi/OneDrive/Desktop/GD32VW553/V1_MQTT_OK/GD32VW55X_Wifi_BLE_SDK/GD32VW55x_RELEASE_V1.0.2/MSDK/wpa_supplicant/src/tls\pkcs5.c **** 		} else if (digest_alg_is_oid(&oid, 8)) {
 259:C:/Users/stapi/OneDrive/Desktop/GD32VW553/V1_MQTT_OK/GD32VW55X_Wifi_BLE_SDK/GD32VW55x_RELEASE_V1.0.2/MSDK/wpa_supplicant/src/tls\pkcs5.c **** 			params->dig_alg = PBKDF2_DIG_ALG_SHA224;
 260:C:/Users/stapi/OneDrive/Desktop/GD32VW553/V1_MQTT_OK/GD32VW55X_Wifi_BLE_SDK/GD32VW55x_RELEASE_V1.0.2/MSDK/wpa_supplicant/src/tls\pkcs5.c **** 		} else if (digest_alg_is_oid(&oid, 9)) {
 261:C:/Users/stapi/OneDrive/Desktop/GD32VW553/V1_MQTT_OK/GD32VW55X_Wifi_BLE_SDK/GD32VW55x_RELEASE_V1.0.2/MSDK/wpa_supplicant/src/tls\pkcs5.c **** 			params->dig_alg = PBKDF2_DIG_ALG_SHA256;
 262:C:/Users/stapi/OneDrive/Desktop/GD32VW553/V1_MQTT_OK/GD32VW55X_Wifi_BLE_SDK/GD32VW55x_RELEASE_V1.0.2/MSDK/wpa_supplicant/src/tls\pkcs5.c **** 		} else if (digest_alg_is_oid(&oid, 10)) {
 263:C:/Users/stapi/OneDrive/Desktop/GD32VW553/V1_MQTT_OK/GD32VW55X_Wifi_BLE_SDK/GD32VW55x_RELEASE_V1.0.2/MSDK/wpa_supplicant/src/tls\pkcs5.c **** 			params->dig_alg = PBKDF2_DIG_ALG_SHA384;
 264:C:/Users/stapi/OneDrive/Desktop/GD32VW553/V1_MQTT_OK/GD32VW55X_Wifi_BLE_SDK/GD32VW55x_RELEASE_V1.0.2/MSDK/wpa_supplicant/src/tls\pkcs5.c **** 		} else if (digest_alg_is_oid(&oid, 11)) {
 265:C:/Users/stapi/OneDrive/Desktop/GD32VW553/V1_MQTT_OK/GD32VW55X_Wifi_BLE_SDK/GD32VW55x_RELEASE_V1.0.2/MSDK/wpa_supplicant/src/tls\pkcs5.c **** 			params->dig_alg = PBKDF2_DIG_ALG_SHA512;
 266:C:/Users/stapi/OneDrive/Desktop/GD32VW553/V1_MQTT_OK/GD32VW55X_Wifi_BLE_SDK/GD32VW55x_RELEASE_V1.0.2/MSDK/wpa_supplicant/src/tls\pkcs5.c **** 		} else {
 267:C:/Users/stapi/OneDrive/Desktop/GD32VW553/V1_MQTT_OK/GD32VW55X_Wifi_BLE_SDK/GD32VW55x_RELEASE_V1.0.2/MSDK/wpa_supplicant/src/tls\pkcs5.c **** 			wpa_printf(MSG_DEBUG,
 268:C:/Users/stapi/OneDrive/Desktop/GD32VW553/V1_MQTT_OK/GD32VW55X_Wifi_BLE_SDK/GD32VW55x_RELEASE_V1.0.2/MSDK/wpa_supplicant/src/tls\pkcs5.c **** 				"PKCS #5: Unsupported PBES2 digest algorithm %s",
 269:C:/Users/stapi/OneDrive/Desktop/GD32VW553/V1_MQTT_OK/GD32VW55X_Wifi_BLE_SDK/GD32VW55x_RELEASE_V1.0.2/MSDK/wpa_supplicant/src/tls\pkcs5.c **** 				obuf);
 270:C:/Users/stapi/OneDrive/Desktop/GD32VW553/V1_MQTT_OK/GD32VW55X_Wifi_BLE_SDK/GD32VW55x_RELEASE_V1.0.2/MSDK/wpa_supplicant/src/tls\pkcs5.c **** 			return -1;
 271:C:/Users/stapi/OneDrive/Desktop/GD32VW553/V1_MQTT_OK/GD32VW55X_Wifi_BLE_SDK/GD32VW55x_RELEASE_V1.0.2/MSDK/wpa_supplicant/src/tls\pkcs5.c **** 		}
 272:C:/Users/stapi/OneDrive/Desktop/GD32VW553/V1_MQTT_OK/GD32VW55X_Wifi_BLE_SDK/GD32VW55x_RELEASE_V1.0.2/MSDK/wpa_supplicant/src/tls\pkcs5.c **** 	}
 273:C:/Users/stapi/OneDrive/Desktop/GD32VW553/V1_MQTT_OK/GD32VW55X_Wifi_BLE_SDK/GD32VW55x_RELEASE_V1.0.2/MSDK/wpa_supplicant/src/tls\pkcs5.c **** #endif /* CONFIG_GDWIFI */
 274:C:/Users/stapi/OneDrive/Desktop/GD32VW553/V1_MQTT_OK/GD32VW55X_Wifi_BLE_SDK/GD32VW55x_RELEASE_V1.0.2/MSDK/wpa_supplicant/src/tls\pkcs5.c **** 
 275:C:/Users/stapi/OneDrive/Desktop/GD32VW553/V1_MQTT_OK/GD32VW55X_Wifi_BLE_SDK/GD32VW55x_RELEASE_V1.0.2/MSDK/wpa_supplicant/src/tls\pkcs5.c **** 	/* For now, ignore optional keyLength and prf */
 276:C:/Users/stapi/OneDrive/Desktop/GD32VW553/V1_MQTT_OK/GD32VW55X_Wifi_BLE_SDK/GD32VW55x_RELEASE_V1.0.2/MSDK/wpa_supplicant/src/tls\pkcs5.c **** 
 277:C:/Users/stapi/OneDrive/Desktop/GD32VW553/V1_MQTT_OK/GD32VW55X_Wifi_BLE_SDK/GD32VW55x_RELEASE_V1.0.2/MSDK/wpa_supplicant/src/tls\pkcs5.c **** 	pos = kdf_end;
 278:C:/Users/stapi/OneDrive/Desktop/GD32VW553/V1_MQTT_OK/GD32VW55X_Wifi_BLE_SDK/GD32VW55x_RELEASE_V1.0.2/MSDK/wpa_supplicant/src/tls\pkcs5.c **** 
 279:C:/Users/stapi/OneDrive/Desktop/GD32VW553/V1_MQTT_OK/GD32VW55X_Wifi_BLE_SDK/GD32VW55x_RELEASE_V1.0.2/MSDK/wpa_supplicant/src/tls\pkcs5.c **** 	/* encryptionScheme AlgorithmIdentifier {{PBES2-Encs}} */
 280:C:/Users/stapi/OneDrive/Desktop/GD32VW553/V1_MQTT_OK/GD32VW55X_Wifi_BLE_SDK/GD32VW55x_RELEASE_V1.0.2/MSDK/wpa_supplicant/src/tls\pkcs5.c **** 
 281:C:/Users/stapi/OneDrive/Desktop/GD32VW553/V1_MQTT_OK/GD32VW55X_Wifi_BLE_SDK/GD32VW55x_RELEASE_V1.0.2/MSDK/wpa_supplicant/src/tls\pkcs5.c **** 	if (asn1_get_next(pos, enc_alg_end - pos, &hdr) < 0 ||
 282:C:/Users/stapi/OneDrive/Desktop/GD32VW553/V1_MQTT_OK/GD32VW55X_Wifi_BLE_SDK/GD32VW55x_RELEASE_V1.0.2/MSDK/wpa_supplicant/src/tls\pkcs5.c **** 	    !asn1_is_sequence(&hdr)) {
 283:C:/Users/stapi/OneDrive/Desktop/GD32VW553/V1_MQTT_OK/GD32VW55X_Wifi_BLE_SDK/GD32VW55x_RELEASE_V1.0.2/MSDK/wpa_supplicant/src/tls\pkcs5.c **** 		asn1_unexpected(&hdr,
 284:C:/Users/stapi/OneDrive/Desktop/GD32VW553/V1_MQTT_OK/GD32VW55X_Wifi_BLE_SDK/GD32VW55x_RELEASE_V1.0.2/MSDK/wpa_supplicant/src/tls\pkcs5.c **** 				"PKCS #5: Expected SEQUENCE (encryptionScheme)");
 285:C:/Users/stapi/OneDrive/Desktop/GD32VW553/V1_MQTT_OK/GD32VW55X_Wifi_BLE_SDK/GD32VW55x_RELEASE_V1.0.2/MSDK/wpa_supplicant/src/tls\pkcs5.c **** 		return -1;
 286:C:/Users/stapi/OneDrive/Desktop/GD32VW553/V1_MQTT_OK/GD32VW55X_Wifi_BLE_SDK/GD32VW55x_RELEASE_V1.0.2/MSDK/wpa_supplicant/src/tls\pkcs5.c **** 	}
 287:C:/Users/stapi/OneDrive/Desktop/GD32VW553/V1_MQTT_OK/GD32VW55X_Wifi_BLE_SDK/GD32VW55x_RELEASE_V1.0.2/MSDK/wpa_supplicant/src/tls\pkcs5.c **** 
 288:C:/Users/stapi/OneDrive/Desktop/GD32VW553/V1_MQTT_OK/GD32VW55X_Wifi_BLE_SDK/GD32VW55x_RELEASE_V1.0.2/MSDK/wpa_supplicant/src/tls\pkcs5.c **** 	pos = hdr.payload;
 289:C:/Users/stapi/OneDrive/Desktop/GD32VW553/V1_MQTT_OK/GD32VW55X_Wifi_BLE_SDK/GD32VW55x_RELEASE_V1.0.2/MSDK/wpa_supplicant/src/tls\pkcs5.c **** 	end = hdr.payload + hdr.length;
 290:C:/Users/stapi/OneDrive/Desktop/GD32VW553/V1_MQTT_OK/GD32VW55X_Wifi_BLE_SDK/GD32VW55x_RELEASE_V1.0.2/MSDK/wpa_supplicant/src/tls\pkcs5.c **** 
 291:C:/Users/stapi/OneDrive/Desktop/GD32VW553/V1_MQTT_OK/GD32VW55X_Wifi_BLE_SDK/GD32VW55x_RELEASE_V1.0.2/MSDK/wpa_supplicant/src/tls\pkcs5.c **** 	if (asn1_get_oid(pos, end - pos, &oid, &pos)) {
 292:C:/Users/stapi/OneDrive/Desktop/GD32VW553/V1_MQTT_OK/GD32VW55X_Wifi_BLE_SDK/GD32VW55x_RELEASE_V1.0.2/MSDK/wpa_supplicant/src/tls\pkcs5.c **** 		wpa_printf(MSG_DEBUG,
 293:C:/Users/stapi/OneDrive/Desktop/GD32VW553/V1_MQTT_OK/GD32VW55X_Wifi_BLE_SDK/GD32VW55x_RELEASE_V1.0.2/MSDK/wpa_supplicant/src/tls\pkcs5.c **** 			   "PKCS #5: Failed to parse OID (encryptionScheme algorithm)");
 294:C:/Users/stapi/OneDrive/Desktop/GD32VW553/V1_MQTT_OK/GD32VW55X_Wifi_BLE_SDK/GD32VW55x_RELEASE_V1.0.2/MSDK/wpa_supplicant/src/tls\pkcs5.c **** 		return -1;
 295:C:/Users/stapi/OneDrive/Desktop/GD32VW553/V1_MQTT_OK/GD32VW55X_Wifi_BLE_SDK/GD32VW55x_RELEASE_V1.0.2/MSDK/wpa_supplicant/src/tls\pkcs5.c **** 	}
 296:C:/Users/stapi/OneDrive/Desktop/GD32VW553/V1_MQTT_OK/GD32VW55X_Wifi_BLE_SDK/GD32VW55x_RELEASE_V1.0.2/MSDK/wpa_supplicant/src/tls\pkcs5.c **** 
 297:C:/Users/stapi/OneDrive/Desktop/GD32VW553/V1_MQTT_OK/GD32VW55X_Wifi_BLE_SDK/GD32VW55x_RELEASE_V1.0.2/MSDK/wpa_supplicant/src/tls\pkcs5.c **** 	asn1_oid_to_str(&oid, obuf, sizeof(obuf));
 298:C:/Users/stapi/OneDrive/Desktop/GD32VW553/V1_MQTT_OK/GD32VW55X_Wifi_BLE_SDK/GD32VW55x_RELEASE_V1.0.2/MSDK/wpa_supplicant/src/tls\pkcs5.c **** 	wpa_printf(MSG_DEBUG, "PKCS #5: PBES2 encryptionScheme algorithm %s",
 299:C:/Users/stapi/OneDrive/Desktop/GD32VW553/V1_MQTT_OK/GD32VW55X_Wifi_BLE_SDK/GD32VW55x_RELEASE_V1.0.2/MSDK/wpa_supplicant/src/tls\pkcs5.c **** 		   obuf);
 300:C:/Users/stapi/OneDrive/Desktop/GD32VW553/V1_MQTT_OK/GD32VW55X_Wifi_BLE_SDK/GD32VW55x_RELEASE_V1.0.2/MSDK/wpa_supplicant/src/tls\pkcs5.c **** 	if (enc_alg_is_oid(&oid, 7)) {
 301:C:/Users/stapi/OneDrive/Desktop/GD32VW553/V1_MQTT_OK/GD32VW55X_Wifi_BLE_SDK/GD32VW55x_RELEASE_V1.0.2/MSDK/wpa_supplicant/src/tls\pkcs5.c **** 		params->enc_alg = PBES2_ENC_ALG_DES_EDE3_CBC;
 302:C:/Users/stapi/OneDrive/Desktop/GD32VW553/V1_MQTT_OK/GD32VW55X_Wifi_BLE_SDK/GD32VW55x_RELEASE_V1.0.2/MSDK/wpa_supplicant/src/tls\pkcs5.c **** 	} else {
 303:C:/Users/stapi/OneDrive/Desktop/GD32VW553/V1_MQTT_OK/GD32VW55X_Wifi_BLE_SDK/GD32VW55x_RELEASE_V1.0.2/MSDK/wpa_supplicant/src/tls\pkcs5.c **** 		wpa_printf(MSG_DEBUG,
 304:C:/Users/stapi/OneDrive/Desktop/GD32VW553/V1_MQTT_OK/GD32VW55X_Wifi_BLE_SDK/GD32VW55x_RELEASE_V1.0.2/MSDK/wpa_supplicant/src/tls\pkcs5.c **** 			   "PKCS #5: Unsupported PBES2 encryptionScheme algorithm %s",
 305:C:/Users/stapi/OneDrive/Desktop/GD32VW553/V1_MQTT_OK/GD32VW55X_Wifi_BLE_SDK/GD32VW55x_RELEASE_V1.0.2/MSDK/wpa_supplicant/src/tls\pkcs5.c **** 			   obuf);
 306:C:/Users/stapi/OneDrive/Desktop/GD32VW553/V1_MQTT_OK/GD32VW55X_Wifi_BLE_SDK/GD32VW55x_RELEASE_V1.0.2/MSDK/wpa_supplicant/src/tls\pkcs5.c **** 		return -1;
 307:C:/Users/stapi/OneDrive/Desktop/GD32VW553/V1_MQTT_OK/GD32VW55X_Wifi_BLE_SDK/GD32VW55x_RELEASE_V1.0.2/MSDK/wpa_supplicant/src/tls\pkcs5.c **** 	}
 308:C:/Users/stapi/OneDrive/Desktop/GD32VW553/V1_MQTT_OK/GD32VW55X_Wifi_BLE_SDK/GD32VW55x_RELEASE_V1.0.2/MSDK/wpa_supplicant/src/tls\pkcs5.c **** 
 309:C:/Users/stapi/OneDrive/Desktop/GD32VW553/V1_MQTT_OK/GD32VW55X_Wifi_BLE_SDK/GD32VW55x_RELEASE_V1.0.2/MSDK/wpa_supplicant/src/tls\pkcs5.c **** 	/*
 310:C:/Users/stapi/OneDrive/Desktop/GD32VW553/V1_MQTT_OK/GD32VW55X_Wifi_BLE_SDK/GD32VW55x_RELEASE_V1.0.2/MSDK/wpa_supplicant/src/tls\pkcs5.c **** 	 * RFC 2898, B.2.2:
 311:C:/Users/stapi/OneDrive/Desktop/GD32VW553/V1_MQTT_OK/GD32VW55X_Wifi_BLE_SDK/GD32VW55x_RELEASE_V1.0.2/MSDK/wpa_supplicant/src/tls\pkcs5.c **** 	 * The parameters field associated with this OID in an
 312:C:/Users/stapi/OneDrive/Desktop/GD32VW553/V1_MQTT_OK/GD32VW55X_Wifi_BLE_SDK/GD32VW55x_RELEASE_V1.0.2/MSDK/wpa_supplicant/src/tls\pkcs5.c **** 	 * AlgorithmIdentifier shall have type OCTET STRING (SIZE(8)),
 313:C:/Users/stapi/OneDrive/Desktop/GD32VW553/V1_MQTT_OK/GD32VW55X_Wifi_BLE_SDK/GD32VW55x_RELEASE_V1.0.2/MSDK/wpa_supplicant/src/tls\pkcs5.c **** 	 * specifying the initialization vector for CBC mode.
 314:C:/Users/stapi/OneDrive/Desktop/GD32VW553/V1_MQTT_OK/GD32VW55X_Wifi_BLE_SDK/GD32VW55x_RELEASE_V1.0.2/MSDK/wpa_supplicant/src/tls\pkcs5.c **** 	 */
 315:C:/Users/stapi/OneDrive/Desktop/GD32VW553/V1_MQTT_OK/GD32VW55X_Wifi_BLE_SDK/GD32VW55x_RELEASE_V1.0.2/MSDK/wpa_supplicant/src/tls\pkcs5.c **** 	if (asn1_get_next(pos, end - pos, &hdr) < 0 ||
 316:C:/Users/stapi/OneDrive/Desktop/GD32VW553/V1_MQTT_OK/GD32VW55X_Wifi_BLE_SDK/GD32VW55x_RELEASE_V1.0.2/MSDK/wpa_supplicant/src/tls\pkcs5.c **** 	    !asn1_is_octetstring(&hdr) || hdr.length != 8) {
 317:C:/Users/stapi/OneDrive/Desktop/GD32VW553/V1_MQTT_OK/GD32VW55X_Wifi_BLE_SDK/GD32VW55x_RELEASE_V1.0.2/MSDK/wpa_supplicant/src/tls\pkcs5.c **** 		asn1_unexpected(&hdr,
 318:C:/Users/stapi/OneDrive/Desktop/GD32VW553/V1_MQTT_OK/GD32VW55X_Wifi_BLE_SDK/GD32VW55x_RELEASE_V1.0.2/MSDK/wpa_supplicant/src/tls\pkcs5.c **** 				"PKCS #5: Expected OCTET STRING (SIZE(8)) (IV)");
 319:C:/Users/stapi/OneDrive/Desktop/GD32VW553/V1_MQTT_OK/GD32VW55X_Wifi_BLE_SDK/GD32VW55x_RELEASE_V1.0.2/MSDK/wpa_supplicant/src/tls\pkcs5.c **** 		return -1;
 320:C:/Users/stapi/OneDrive/Desktop/GD32VW553/V1_MQTT_OK/GD32VW55X_Wifi_BLE_SDK/GD32VW55x_RELEASE_V1.0.2/MSDK/wpa_supplicant/src/tls\pkcs5.c **** 	}
 321:C:/Users/stapi/OneDrive/Desktop/GD32VW553/V1_MQTT_OK/GD32VW55X_Wifi_BLE_SDK/GD32VW55x_RELEASE_V1.0.2/MSDK/wpa_supplicant/src/tls\pkcs5.c **** 	os_memcpy(params->iv, hdr.payload, hdr.length);
 322:C:/Users/stapi/OneDrive/Desktop/GD32VW553/V1_MQTT_OK/GD32VW55X_Wifi_BLE_SDK/GD32VW55x_RELEASE_V1.0.2/MSDK/wpa_supplicant/src/tls\pkcs5.c **** 	params->iv_len = hdr.length;
 323:C:/Users/stapi/OneDrive/Desktop/GD32VW553/V1_MQTT_OK/GD32VW55X_Wifi_BLE_SDK/GD32VW55x_RELEASE_V1.0.2/MSDK/wpa_supplicant/src/tls\pkcs5.c **** 	wpa_hexdump(MSG_DEBUG, "PKCS #5: IV", params->iv, params->iv_len);
 324:C:/Users/stapi/OneDrive/Desktop/GD32VW553/V1_MQTT_OK/GD32VW55X_Wifi_BLE_SDK/GD32VW55x_RELEASE_V1.0.2/MSDK/wpa_supplicant/src/tls\pkcs5.c **** 
 325:C:/Users/stapi/OneDrive/Desktop/GD32VW553/V1_MQTT_OK/GD32VW55X_Wifi_BLE_SDK/GD32VW55x_RELEASE_V1.0.2/MSDK/wpa_supplicant/src/tls\pkcs5.c **** 	return 0;
 326:C:/Users/stapi/OneDrive/Desktop/GD32VW553/V1_MQTT_OK/GD32VW55X_Wifi_BLE_SDK/GD32VW55x_RELEASE_V1.0.2/MSDK/wpa_supplicant/src/tls\pkcs5.c **** }
 327:C:/Users/stapi/OneDrive/Desktop/GD32VW553/V1_MQTT_OK/GD32VW55X_Wifi_BLE_SDK/GD32VW55x_RELEASE_V1.0.2/MSDK/wpa_supplicant/src/tls\pkcs5.c **** 
 328:C:/Users/stapi/OneDrive/Desktop/GD32VW553/V1_MQTT_OK/GD32VW55X_Wifi_BLE_SDK/GD32VW55x_RELEASE_V1.0.2/MSDK/wpa_supplicant/src/tls\pkcs5.c **** 
 329:C:/Users/stapi/OneDrive/Desktop/GD32VW553/V1_MQTT_OK/GD32VW55X_Wifi_BLE_SDK/GD32VW55x_RELEASE_V1.0.2/MSDK/wpa_supplicant/src/tls\pkcs5.c **** static int pkcs5_get_params(const u8 *enc_alg, size_t enc_alg_len,
 330:C:/Users/stapi/OneDrive/Desktop/GD32VW553/V1_MQTT_OK/GD32VW55X_Wifi_BLE_SDK/GD32VW55x_RELEASE_V1.0.2/MSDK/wpa_supplicant/src/tls\pkcs5.c **** 			    struct pkcs5_params *params)
 331:C:/Users/stapi/OneDrive/Desktop/GD32VW553/V1_MQTT_OK/GD32VW55X_Wifi_BLE_SDK/GD32VW55x_RELEASE_V1.0.2/MSDK/wpa_supplicant/src/tls\pkcs5.c **** {
 332:C:/Users/stapi/OneDrive/Desktop/GD32VW553/V1_MQTT_OK/GD32VW55X_Wifi_BLE_SDK/GD32VW55x_RELEASE_V1.0.2/MSDK/wpa_supplicant/src/tls\pkcs5.c **** 	struct asn1_hdr hdr;
 333:C:/Users/stapi/OneDrive/Desktop/GD32VW553/V1_MQTT_OK/GD32VW55X_Wifi_BLE_SDK/GD32VW55x_RELEASE_V1.0.2/MSDK/wpa_supplicant/src/tls\pkcs5.c **** 	const u8 *enc_alg_end, *pos, *end;
 334:C:/Users/stapi/OneDrive/Desktop/GD32VW553/V1_MQTT_OK/GD32VW55X_Wifi_BLE_SDK/GD32VW55x_RELEASE_V1.0.2/MSDK/wpa_supplicant/src/tls\pkcs5.c **** 	struct asn1_oid oid;
 335:C:/Users/stapi/OneDrive/Desktop/GD32VW553/V1_MQTT_OK/GD32VW55X_Wifi_BLE_SDK/GD32VW55x_RELEASE_V1.0.2/MSDK/wpa_supplicant/src/tls\pkcs5.c **** 	char obuf[80];
 336:C:/Users/stapi/OneDrive/Desktop/GD32VW553/V1_MQTT_OK/GD32VW55X_Wifi_BLE_SDK/GD32VW55x_RELEASE_V1.0.2/MSDK/wpa_supplicant/src/tls\pkcs5.c **** 
 337:C:/Users/stapi/OneDrive/Desktop/GD32VW553/V1_MQTT_OK/GD32VW55X_Wifi_BLE_SDK/GD32VW55x_RELEASE_V1.0.2/MSDK/wpa_supplicant/src/tls\pkcs5.c **** 	/* AlgorithmIdentifier */
 338:C:/Users/stapi/OneDrive/Desktop/GD32VW553/V1_MQTT_OK/GD32VW55X_Wifi_BLE_SDK/GD32VW55x_RELEASE_V1.0.2/MSDK/wpa_supplicant/src/tls\pkcs5.c **** 
 339:C:/Users/stapi/OneDrive/Desktop/GD32VW553/V1_MQTT_OK/GD32VW55X_Wifi_BLE_SDK/GD32VW55x_RELEASE_V1.0.2/MSDK/wpa_supplicant/src/tls\pkcs5.c **** 	enc_alg_end = enc_alg + enc_alg_len;
 340:C:/Users/stapi/OneDrive/Desktop/GD32VW553/V1_MQTT_OK/GD32VW55X_Wifi_BLE_SDK/GD32VW55x_RELEASE_V1.0.2/MSDK/wpa_supplicant/src/tls\pkcs5.c **** 
 341:C:/Users/stapi/OneDrive/Desktop/GD32VW553/V1_MQTT_OK/GD32VW55X_Wifi_BLE_SDK/GD32VW55x_RELEASE_V1.0.2/MSDK/wpa_supplicant/src/tls\pkcs5.c **** 	os_memset(params, 0, sizeof(*params));
 342:C:/Users/stapi/OneDrive/Desktop/GD32VW553/V1_MQTT_OK/GD32VW55X_Wifi_BLE_SDK/GD32VW55x_RELEASE_V1.0.2/MSDK/wpa_supplicant/src/tls\pkcs5.c **** 
 343:C:/Users/stapi/OneDrive/Desktop/GD32VW553/V1_MQTT_OK/GD32VW55X_Wifi_BLE_SDK/GD32VW55x_RELEASE_V1.0.2/MSDK/wpa_supplicant/src/tls\pkcs5.c **** 	if (asn1_get_oid(enc_alg, enc_alg_end - enc_alg, &oid, &pos)) {
 344:C:/Users/stapi/OneDrive/Desktop/GD32VW553/V1_MQTT_OK/GD32VW55X_Wifi_BLE_SDK/GD32VW55x_RELEASE_V1.0.2/MSDK/wpa_supplicant/src/tls\pkcs5.c **** 		wpa_printf(MSG_DEBUG, "PKCS #5: Failed to parse OID "
 345:C:/Users/stapi/OneDrive/Desktop/GD32VW553/V1_MQTT_OK/GD32VW55X_Wifi_BLE_SDK/GD32VW55x_RELEASE_V1.0.2/MSDK/wpa_supplicant/src/tls\pkcs5.c **** 			   "(algorithm)");
 346:C:/Users/stapi/OneDrive/Desktop/GD32VW553/V1_MQTT_OK/GD32VW55X_Wifi_BLE_SDK/GD32VW55x_RELEASE_V1.0.2/MSDK/wpa_supplicant/src/tls\pkcs5.c **** 		return -1;
 347:C:/Users/stapi/OneDrive/Desktop/GD32VW553/V1_MQTT_OK/GD32VW55X_Wifi_BLE_SDK/GD32VW55x_RELEASE_V1.0.2/MSDK/wpa_supplicant/src/tls\pkcs5.c **** 	}
 348:C:/Users/stapi/OneDrive/Desktop/GD32VW553/V1_MQTT_OK/GD32VW55X_Wifi_BLE_SDK/GD32VW55x_RELEASE_V1.0.2/MSDK/wpa_supplicant/src/tls\pkcs5.c **** 
 349:C:/Users/stapi/OneDrive/Desktop/GD32VW553/V1_MQTT_OK/GD32VW55X_Wifi_BLE_SDK/GD32VW55x_RELEASE_V1.0.2/MSDK/wpa_supplicant/src/tls\pkcs5.c **** 	asn1_oid_to_str(&oid, obuf, sizeof(obuf));
 350:C:/Users/stapi/OneDrive/Desktop/GD32VW553/V1_MQTT_OK/GD32VW55X_Wifi_BLE_SDK/GD32VW55x_RELEASE_V1.0.2/MSDK/wpa_supplicant/src/tls\pkcs5.c **** 	wpa_printf(MSG_DEBUG, "PKCS #5: encryption algorithm %s", obuf);
 351:C:/Users/stapi/OneDrive/Desktop/GD32VW553/V1_MQTT_OK/GD32VW55X_Wifi_BLE_SDK/GD32VW55x_RELEASE_V1.0.2/MSDK/wpa_supplicant/src/tls\pkcs5.c **** 	params->alg = pkcs5_get_alg(&oid);
 352:C:/Users/stapi/OneDrive/Desktop/GD32VW553/V1_MQTT_OK/GD32VW55X_Wifi_BLE_SDK/GD32VW55x_RELEASE_V1.0.2/MSDK/wpa_supplicant/src/tls\pkcs5.c **** 	if (params->alg == PKCS5_ALG_UNKNOWN) {
 353:C:/Users/stapi/OneDrive/Desktop/GD32VW553/V1_MQTT_OK/GD32VW55X_Wifi_BLE_SDK/GD32VW55x_RELEASE_V1.0.2/MSDK/wpa_supplicant/src/tls\pkcs5.c **** 		wpa_printf(MSG_INFO, "PKCS #5: unsupported encryption "
 354:C:/Users/stapi/OneDrive/Desktop/GD32VW553/V1_MQTT_OK/GD32VW55X_Wifi_BLE_SDK/GD32VW55x_RELEASE_V1.0.2/MSDK/wpa_supplicant/src/tls\pkcs5.c **** 			   "algorithm %s", obuf);
 355:C:/Users/stapi/OneDrive/Desktop/GD32VW553/V1_MQTT_OK/GD32VW55X_Wifi_BLE_SDK/GD32VW55x_RELEASE_V1.0.2/MSDK/wpa_supplicant/src/tls\pkcs5.c **** 		return -1;
 356:C:/Users/stapi/OneDrive/Desktop/GD32VW553/V1_MQTT_OK/GD32VW55X_Wifi_BLE_SDK/GD32VW55x_RELEASE_V1.0.2/MSDK/wpa_supplicant/src/tls\pkcs5.c **** 	}
 357:C:/Users/stapi/OneDrive/Desktop/GD32VW553/V1_MQTT_OK/GD32VW55X_Wifi_BLE_SDK/GD32VW55x_RELEASE_V1.0.2/MSDK/wpa_supplicant/src/tls\pkcs5.c **** 
 358:C:/Users/stapi/OneDrive/Desktop/GD32VW553/V1_MQTT_OK/GD32VW55X_Wifi_BLE_SDK/GD32VW55x_RELEASE_V1.0.2/MSDK/wpa_supplicant/src/tls\pkcs5.c **** 	if (params->alg == PKCS5_ALG_PBES2)
 359:C:/Users/stapi/OneDrive/Desktop/GD32VW553/V1_MQTT_OK/GD32VW55X_Wifi_BLE_SDK/GD32VW55x_RELEASE_V1.0.2/MSDK/wpa_supplicant/src/tls\pkcs5.c **** 		return pkcs5_get_params_pbes2(params, pos, enc_alg_end);
 360:C:/Users/stapi/OneDrive/Desktop/GD32VW553/V1_MQTT_OK/GD32VW55X_Wifi_BLE_SDK/GD32VW55x_RELEASE_V1.0.2/MSDK/wpa_supplicant/src/tls\pkcs5.c **** 
 361:C:/Users/stapi/OneDrive/Desktop/GD32VW553/V1_MQTT_OK/GD32VW55X_Wifi_BLE_SDK/GD32VW55x_RELEASE_V1.0.2/MSDK/wpa_supplicant/src/tls\pkcs5.c **** 	/* PBES1 */
 362:C:/Users/stapi/OneDrive/Desktop/GD32VW553/V1_MQTT_OK/GD32VW55X_Wifi_BLE_SDK/GD32VW55x_RELEASE_V1.0.2/MSDK/wpa_supplicant/src/tls\pkcs5.c **** 
 363:C:/Users/stapi/OneDrive/Desktop/GD32VW553/V1_MQTT_OK/GD32VW55X_Wifi_BLE_SDK/GD32VW55x_RELEASE_V1.0.2/MSDK/wpa_supplicant/src/tls\pkcs5.c **** 	/*
 364:C:/Users/stapi/OneDrive/Desktop/GD32VW553/V1_MQTT_OK/GD32VW55X_Wifi_BLE_SDK/GD32VW55x_RELEASE_V1.0.2/MSDK/wpa_supplicant/src/tls\pkcs5.c **** 	 * PKCS#5, Section 8
 365:C:/Users/stapi/OneDrive/Desktop/GD32VW553/V1_MQTT_OK/GD32VW55X_Wifi_BLE_SDK/GD32VW55x_RELEASE_V1.0.2/MSDK/wpa_supplicant/src/tls\pkcs5.c **** 	 * PBEParameter ::= SEQUENCE {
 366:C:/Users/stapi/OneDrive/Desktop/GD32VW553/V1_MQTT_OK/GD32VW55X_Wifi_BLE_SDK/GD32VW55x_RELEASE_V1.0.2/MSDK/wpa_supplicant/src/tls\pkcs5.c **** 	 *   salt OCTET STRING SIZE(8),
 367:C:/Users/stapi/OneDrive/Desktop/GD32VW553/V1_MQTT_OK/GD32VW55X_Wifi_BLE_SDK/GD32VW55x_RELEASE_V1.0.2/MSDK/wpa_supplicant/src/tls\pkcs5.c **** 	 *   iterationCount INTEGER }
 368:C:/Users/stapi/OneDrive/Desktop/GD32VW553/V1_MQTT_OK/GD32VW55X_Wifi_BLE_SDK/GD32VW55x_RELEASE_V1.0.2/MSDK/wpa_supplicant/src/tls\pkcs5.c **** 	 *
 369:C:/Users/stapi/OneDrive/Desktop/GD32VW553/V1_MQTT_OK/GD32VW55X_Wifi_BLE_SDK/GD32VW55x_RELEASE_V1.0.2/MSDK/wpa_supplicant/src/tls\pkcs5.c **** 	 * Note: The same implementation can be used to parse the PKCS #12
 370:C:/Users/stapi/OneDrive/Desktop/GD32VW553/V1_MQTT_OK/GD32VW55X_Wifi_BLE_SDK/GD32VW55x_RELEASE_V1.0.2/MSDK/wpa_supplicant/src/tls\pkcs5.c **** 	 * version described in RFC 7292, C:
 371:C:/Users/stapi/OneDrive/Desktop/GD32VW553/V1_MQTT_OK/GD32VW55X_Wifi_BLE_SDK/GD32VW55x_RELEASE_V1.0.2/MSDK/wpa_supplicant/src/tls\pkcs5.c **** 	 * pkcs-12PbeParams ::= SEQUENCE {
 372:C:/Users/stapi/OneDrive/Desktop/GD32VW553/V1_MQTT_OK/GD32VW55X_Wifi_BLE_SDK/GD32VW55x_RELEASE_V1.0.2/MSDK/wpa_supplicant/src/tls\pkcs5.c **** 	 *     salt        OCTET STRING,
 373:C:/Users/stapi/OneDrive/Desktop/GD32VW553/V1_MQTT_OK/GD32VW55X_Wifi_BLE_SDK/GD32VW55x_RELEASE_V1.0.2/MSDK/wpa_supplicant/src/tls\pkcs5.c **** 	 *     iterations  INTEGER
 374:C:/Users/stapi/OneDrive/Desktop/GD32VW553/V1_MQTT_OK/GD32VW55X_Wifi_BLE_SDK/GD32VW55x_RELEASE_V1.0.2/MSDK/wpa_supplicant/src/tls\pkcs5.c **** 	 * }
 375:C:/Users/stapi/OneDrive/Desktop/GD32VW553/V1_MQTT_OK/GD32VW55X_Wifi_BLE_SDK/GD32VW55x_RELEASE_V1.0.2/MSDK/wpa_supplicant/src/tls\pkcs5.c **** 	 */
 376:C:/Users/stapi/OneDrive/Desktop/GD32VW553/V1_MQTT_OK/GD32VW55X_Wifi_BLE_SDK/GD32VW55x_RELEASE_V1.0.2/MSDK/wpa_supplicant/src/tls\pkcs5.c **** 
 377:C:/Users/stapi/OneDrive/Desktop/GD32VW553/V1_MQTT_OK/GD32VW55X_Wifi_BLE_SDK/GD32VW55x_RELEASE_V1.0.2/MSDK/wpa_supplicant/src/tls\pkcs5.c **** 	if (asn1_get_next(pos, enc_alg_end - pos, &hdr) < 0 ||
 378:C:/Users/stapi/OneDrive/Desktop/GD32VW553/V1_MQTT_OK/GD32VW55X_Wifi_BLE_SDK/GD32VW55x_RELEASE_V1.0.2/MSDK/wpa_supplicant/src/tls\pkcs5.c **** 	    !asn1_is_sequence(&hdr)) {
 379:C:/Users/stapi/OneDrive/Desktop/GD32VW553/V1_MQTT_OK/GD32VW55X_Wifi_BLE_SDK/GD32VW55x_RELEASE_V1.0.2/MSDK/wpa_supplicant/src/tls\pkcs5.c **** 		asn1_unexpected(&hdr,
 380:C:/Users/stapi/OneDrive/Desktop/GD32VW553/V1_MQTT_OK/GD32VW55X_Wifi_BLE_SDK/GD32VW55x_RELEASE_V1.0.2/MSDK/wpa_supplicant/src/tls\pkcs5.c **** 				"PKCS #5: Expected SEQUENCE (PBEParameter)");
 381:C:/Users/stapi/OneDrive/Desktop/GD32VW553/V1_MQTT_OK/GD32VW55X_Wifi_BLE_SDK/GD32VW55x_RELEASE_V1.0.2/MSDK/wpa_supplicant/src/tls\pkcs5.c **** 		return -1;
 382:C:/Users/stapi/OneDrive/Desktop/GD32VW553/V1_MQTT_OK/GD32VW55X_Wifi_BLE_SDK/GD32VW55x_RELEASE_V1.0.2/MSDK/wpa_supplicant/src/tls\pkcs5.c **** 	}
 383:C:/Users/stapi/OneDrive/Desktop/GD32VW553/V1_MQTT_OK/GD32VW55X_Wifi_BLE_SDK/GD32VW55x_RELEASE_V1.0.2/MSDK/wpa_supplicant/src/tls\pkcs5.c **** 	pos = hdr.payload;
 384:C:/Users/stapi/OneDrive/Desktop/GD32VW553/V1_MQTT_OK/GD32VW55X_Wifi_BLE_SDK/GD32VW55x_RELEASE_V1.0.2/MSDK/wpa_supplicant/src/tls\pkcs5.c **** 	end = hdr.payload + hdr.length;
 385:C:/Users/stapi/OneDrive/Desktop/GD32VW553/V1_MQTT_OK/GD32VW55X_Wifi_BLE_SDK/GD32VW55x_RELEASE_V1.0.2/MSDK/wpa_supplicant/src/tls\pkcs5.c **** 
 386:C:/Users/stapi/OneDrive/Desktop/GD32VW553/V1_MQTT_OK/GD32VW55X_Wifi_BLE_SDK/GD32VW55x_RELEASE_V1.0.2/MSDK/wpa_supplicant/src/tls\pkcs5.c **** 	/* salt OCTET STRING SIZE(8) (PKCS #5) or OCTET STRING (PKCS #12) */
 387:C:/Users/stapi/OneDrive/Desktop/GD32VW553/V1_MQTT_OK/GD32VW55X_Wifi_BLE_SDK/GD32VW55x_RELEASE_V1.0.2/MSDK/wpa_supplicant/src/tls\pkcs5.c **** 	if (asn1_get_next(pos, end - pos, &hdr) < 0 ||
 388:C:/Users/stapi/OneDrive/Desktop/GD32VW553/V1_MQTT_OK/GD32VW55X_Wifi_BLE_SDK/GD32VW55x_RELEASE_V1.0.2/MSDK/wpa_supplicant/src/tls\pkcs5.c **** 	    !asn1_is_octetstring(&hdr) || hdr.length > sizeof(params->salt)) {
 389:C:/Users/stapi/OneDrive/Desktop/GD32VW553/V1_MQTT_OK/GD32VW55X_Wifi_BLE_SDK/GD32VW55x_RELEASE_V1.0.2/MSDK/wpa_supplicant/src/tls\pkcs5.c **** 		asn1_unexpected(&hdr,
 390:C:/Users/stapi/OneDrive/Desktop/GD32VW553/V1_MQTT_OK/GD32VW55X_Wifi_BLE_SDK/GD32VW55x_RELEASE_V1.0.2/MSDK/wpa_supplicant/src/tls\pkcs5.c **** 				"PKCS #5: Expected OCTETSTRING SIZE(8) (salt)");
 391:C:/Users/stapi/OneDrive/Desktop/GD32VW553/V1_MQTT_OK/GD32VW55X_Wifi_BLE_SDK/GD32VW55x_RELEASE_V1.0.2/MSDK/wpa_supplicant/src/tls\pkcs5.c **** 		return -1;
 392:C:/Users/stapi/OneDrive/Desktop/GD32VW553/V1_MQTT_OK/GD32VW55X_Wifi_BLE_SDK/GD32VW55x_RELEASE_V1.0.2/MSDK/wpa_supplicant/src/tls\pkcs5.c **** 	}
 393:C:/Users/stapi/OneDrive/Desktop/GD32VW553/V1_MQTT_OK/GD32VW55X_Wifi_BLE_SDK/GD32VW55x_RELEASE_V1.0.2/MSDK/wpa_supplicant/src/tls\pkcs5.c **** 	pos = hdr.payload + hdr.length;
 394:C:/Users/stapi/OneDrive/Desktop/GD32VW553/V1_MQTT_OK/GD32VW55X_Wifi_BLE_SDK/GD32VW55x_RELEASE_V1.0.2/MSDK/wpa_supplicant/src/tls\pkcs5.c **** 	os_memcpy(params->salt, hdr.payload, hdr.length);
 395:C:/Users/stapi/OneDrive/Desktop/GD32VW553/V1_MQTT_OK/GD32VW55X_Wifi_BLE_SDK/GD32VW55x_RELEASE_V1.0.2/MSDK/wpa_supplicant/src/tls\pkcs5.c **** 	params->salt_len = hdr.length;
 396:C:/Users/stapi/OneDrive/Desktop/GD32VW553/V1_MQTT_OK/GD32VW55X_Wifi_BLE_SDK/GD32VW55x_RELEASE_V1.0.2/MSDK/wpa_supplicant/src/tls\pkcs5.c **** 	wpa_hexdump(MSG_DEBUG, "PKCS #5: salt",
 397:C:/Users/stapi/OneDrive/Desktop/GD32VW553/V1_MQTT_OK/GD32VW55X_Wifi_BLE_SDK/GD32VW55x_RELEASE_V1.0.2/MSDK/wpa_supplicant/src/tls\pkcs5.c **** 		    params->salt, params->salt_len);
 398:C:/Users/stapi/OneDrive/Desktop/GD32VW553/V1_MQTT_OK/GD32VW55X_Wifi_BLE_SDK/GD32VW55x_RELEASE_V1.0.2/MSDK/wpa_supplicant/src/tls\pkcs5.c **** 
 399:C:/Users/stapi/OneDrive/Desktop/GD32VW553/V1_MQTT_OK/GD32VW55X_Wifi_BLE_SDK/GD32VW55x_RELEASE_V1.0.2/MSDK/wpa_supplicant/src/tls\pkcs5.c **** 	/* iterationCount INTEGER */
 400:C:/Users/stapi/OneDrive/Desktop/GD32VW553/V1_MQTT_OK/GD32VW55X_Wifi_BLE_SDK/GD32VW55x_RELEASE_V1.0.2/MSDK/wpa_supplicant/src/tls\pkcs5.c **** 	if (asn1_get_next(pos, end - pos, &hdr) < 0 ||
 401:C:/Users/stapi/OneDrive/Desktop/GD32VW553/V1_MQTT_OK/GD32VW55X_Wifi_BLE_SDK/GD32VW55x_RELEASE_V1.0.2/MSDK/wpa_supplicant/src/tls\pkcs5.c **** 	    !asn1_is_integer(&hdr)) {
 402:C:/Users/stapi/OneDrive/Desktop/GD32VW553/V1_MQTT_OK/GD32VW55X_Wifi_BLE_SDK/GD32VW55x_RELEASE_V1.0.2/MSDK/wpa_supplicant/src/tls\pkcs5.c **** 		asn1_unexpected(&hdr, "PKCS #5: Expected INTEGER");
 403:C:/Users/stapi/OneDrive/Desktop/GD32VW553/V1_MQTT_OK/GD32VW55X_Wifi_BLE_SDK/GD32VW55x_RELEASE_V1.0.2/MSDK/wpa_supplicant/src/tls\pkcs5.c **** 		return -1;
 404:C:/Users/stapi/OneDrive/Desktop/GD32VW553/V1_MQTT_OK/GD32VW55X_Wifi_BLE_SDK/GD32VW55x_RELEASE_V1.0.2/MSDK/wpa_supplicant/src/tls\pkcs5.c **** 	}
 405:C:/Users/stapi/OneDrive/Desktop/GD32VW553/V1_MQTT_OK/GD32VW55X_Wifi_BLE_SDK/GD32VW55x_RELEASE_V1.0.2/MSDK/wpa_supplicant/src/tls\pkcs5.c **** 	if (hdr.length == 1)
 406:C:/Users/stapi/OneDrive/Desktop/GD32VW553/V1_MQTT_OK/GD32VW55X_Wifi_BLE_SDK/GD32VW55x_RELEASE_V1.0.2/MSDK/wpa_supplicant/src/tls\pkcs5.c **** 		params->iter_count = *hdr.payload;
 407:C:/Users/stapi/OneDrive/Desktop/GD32VW553/V1_MQTT_OK/GD32VW55X_Wifi_BLE_SDK/GD32VW55x_RELEASE_V1.0.2/MSDK/wpa_supplicant/src/tls\pkcs5.c **** 	else if (hdr.length == 2)
 408:C:/Users/stapi/OneDrive/Desktop/GD32VW553/V1_MQTT_OK/GD32VW55X_Wifi_BLE_SDK/GD32VW55x_RELEASE_V1.0.2/MSDK/wpa_supplicant/src/tls\pkcs5.c **** 		params->iter_count = WPA_GET_BE16(hdr.payload);
 409:C:/Users/stapi/OneDrive/Desktop/GD32VW553/V1_MQTT_OK/GD32VW55X_Wifi_BLE_SDK/GD32VW55x_RELEASE_V1.0.2/MSDK/wpa_supplicant/src/tls\pkcs5.c **** 	else if (hdr.length == 4)
 410:C:/Users/stapi/OneDrive/Desktop/GD32VW553/V1_MQTT_OK/GD32VW55X_Wifi_BLE_SDK/GD32VW55x_RELEASE_V1.0.2/MSDK/wpa_supplicant/src/tls\pkcs5.c **** 		params->iter_count = WPA_GET_BE32(hdr.payload);
 411:C:/Users/stapi/OneDrive/Desktop/GD32VW553/V1_MQTT_OK/GD32VW55X_Wifi_BLE_SDK/GD32VW55x_RELEASE_V1.0.2/MSDK/wpa_supplicant/src/tls\pkcs5.c **** 	else {
 412:C:/Users/stapi/OneDrive/Desktop/GD32VW553/V1_MQTT_OK/GD32VW55X_Wifi_BLE_SDK/GD32VW55x_RELEASE_V1.0.2/MSDK/wpa_supplicant/src/tls\pkcs5.c **** 		wpa_hexdump(MSG_DEBUG, "PKCS #5: Unsupported INTEGER value "
 413:C:/Users/stapi/OneDrive/Desktop/GD32VW553/V1_MQTT_OK/GD32VW55X_Wifi_BLE_SDK/GD32VW55x_RELEASE_V1.0.2/MSDK/wpa_supplicant/src/tls\pkcs5.c **** 			    " (iterationCount)",
 414:C:/Users/stapi/OneDrive/Desktop/GD32VW553/V1_MQTT_OK/GD32VW55X_Wifi_BLE_SDK/GD32VW55x_RELEASE_V1.0.2/MSDK/wpa_supplicant/src/tls\pkcs5.c **** 			    hdr.payload, hdr.length);
 415:C:/Users/stapi/OneDrive/Desktop/GD32VW553/V1_MQTT_OK/GD32VW55X_Wifi_BLE_SDK/GD32VW55x_RELEASE_V1.0.2/MSDK/wpa_supplicant/src/tls\pkcs5.c **** 		return -1;
 416:C:/Users/stapi/OneDrive/Desktop/GD32VW553/V1_MQTT_OK/GD32VW55X_Wifi_BLE_SDK/GD32VW55x_RELEASE_V1.0.2/MSDK/wpa_supplicant/src/tls\pkcs5.c **** 	}
 417:C:/Users/stapi/OneDrive/Desktop/GD32VW553/V1_MQTT_OK/GD32VW55X_Wifi_BLE_SDK/GD32VW55x_RELEASE_V1.0.2/MSDK/wpa_supplicant/src/tls\pkcs5.c **** 	wpa_printf(MSG_DEBUG, "PKCS #5: iterationCount=0x%x",
 418:C:/Users/stapi/OneDrive/Desktop/GD32VW553/V1_MQTT_OK/GD32VW55X_Wifi_BLE_SDK/GD32VW55x_RELEASE_V1.0.2/MSDK/wpa_supplicant/src/tls\pkcs5.c **** 		   params->iter_count);
 419:C:/Users/stapi/OneDrive/Desktop/GD32VW553/V1_MQTT_OK/GD32VW55X_Wifi_BLE_SDK/GD32VW55x_RELEASE_V1.0.2/MSDK/wpa_supplicant/src/tls\pkcs5.c **** 	if (params->iter_count == 0 || params->iter_count > 0xffff) {
 420:C:/Users/stapi/OneDrive/Desktop/GD32VW553/V1_MQTT_OK/GD32VW55X_Wifi_BLE_SDK/GD32VW55x_RELEASE_V1.0.2/MSDK/wpa_supplicant/src/tls\pkcs5.c **** 		wpa_printf(MSG_INFO, "PKCS #5: Unsupported "
 421:C:/Users/stapi/OneDrive/Desktop/GD32VW553/V1_MQTT_OK/GD32VW55X_Wifi_BLE_SDK/GD32VW55x_RELEASE_V1.0.2/MSDK/wpa_supplicant/src/tls\pkcs5.c **** 			   "iterationCount=0x%x", params->iter_count);
 422:C:/Users/stapi/OneDrive/Desktop/GD32VW553/V1_MQTT_OK/GD32VW55X_Wifi_BLE_SDK/GD32VW55x_RELEASE_V1.0.2/MSDK/wpa_supplicant/src/tls\pkcs5.c **** 		return -1;
 423:C:/Users/stapi/OneDrive/Desktop/GD32VW553/V1_MQTT_OK/GD32VW55X_Wifi_BLE_SDK/GD32VW55x_RELEASE_V1.0.2/MSDK/wpa_supplicant/src/tls\pkcs5.c **** 	}
 424:C:/Users/stapi/OneDrive/Desktop/GD32VW553/V1_MQTT_OK/GD32VW55X_Wifi_BLE_SDK/GD32VW55x_RELEASE_V1.0.2/MSDK/wpa_supplicant/src/tls\pkcs5.c **** 
 425:C:/Users/stapi/OneDrive/Desktop/GD32VW553/V1_MQTT_OK/GD32VW55X_Wifi_BLE_SDK/GD32VW55x_RELEASE_V1.0.2/MSDK/wpa_supplicant/src/tls\pkcs5.c **** 	return 0;
 426:C:/Users/stapi/OneDrive/Desktop/GD32VW553/V1_MQTT_OK/GD32VW55X_Wifi_BLE_SDK/GD32VW55x_RELEASE_V1.0.2/MSDK/wpa_supplicant/src/tls\pkcs5.c **** }
 427:C:/Users/stapi/OneDrive/Desktop/GD32VW553/V1_MQTT_OK/GD32VW55X_Wifi_BLE_SDK/GD32VW55x_RELEASE_V1.0.2/MSDK/wpa_supplicant/src/tls\pkcs5.c **** 
 428:C:/Users/stapi/OneDrive/Desktop/GD32VW553/V1_MQTT_OK/GD32VW55X_Wifi_BLE_SDK/GD32VW55x_RELEASE_V1.0.2/MSDK/wpa_supplicant/src/tls\pkcs5.c **** 
 429:C:/Users/stapi/OneDrive/Desktop/GD32VW553/V1_MQTT_OK/GD32VW55X_Wifi_BLE_SDK/GD32VW55x_RELEASE_V1.0.2/MSDK/wpa_supplicant/src/tls\pkcs5.c **** static struct crypto_cipher *
 430:C:/Users/stapi/OneDrive/Desktop/GD32VW553/V1_MQTT_OK/GD32VW55X_Wifi_BLE_SDK/GD32VW55x_RELEASE_V1.0.2/MSDK/wpa_supplicant/src/tls\pkcs5.c **** pkcs5_crypto_init_pbes2(struct pkcs5_params *params, const char *passwd)
 431:C:/Users/stapi/OneDrive/Desktop/GD32VW553/V1_MQTT_OK/GD32VW55X_Wifi_BLE_SDK/GD32VW55x_RELEASE_V1.0.2/MSDK/wpa_supplicant/src/tls\pkcs5.c **** {
 432:C:/Users/stapi/OneDrive/Desktop/GD32VW553/V1_MQTT_OK/GD32VW55X_Wifi_BLE_SDK/GD32VW55x_RELEASE_V1.0.2/MSDK/wpa_supplicant/src/tls\pkcs5.c **** 	u8 key[24];
 433:C:/Users/stapi/OneDrive/Desktop/GD32VW553/V1_MQTT_OK/GD32VW55X_Wifi_BLE_SDK/GD32VW55x_RELEASE_V1.0.2/MSDK/wpa_supplicant/src/tls\pkcs5.c **** 
 434:C:/Users/stapi/OneDrive/Desktop/GD32VW553/V1_MQTT_OK/GD32VW55X_Wifi_BLE_SDK/GD32VW55x_RELEASE_V1.0.2/MSDK/wpa_supplicant/src/tls\pkcs5.c **** 	if (params->enc_alg != PBES2_ENC_ALG_DES_EDE3_CBC ||
 435:C:/Users/stapi/OneDrive/Desktop/GD32VW553/V1_MQTT_OK/GD32VW55X_Wifi_BLE_SDK/GD32VW55x_RELEASE_V1.0.2/MSDK/wpa_supplicant/src/tls\pkcs5.c **** 	    params->iv_len != 8)
 436:C:/Users/stapi/OneDrive/Desktop/GD32VW553/V1_MQTT_OK/GD32VW55X_Wifi_BLE_SDK/GD32VW55x_RELEASE_V1.0.2/MSDK/wpa_supplicant/src/tls\pkcs5.c **** 		return NULL;
 437:C:/Users/stapi/OneDrive/Desktop/GD32VW553/V1_MQTT_OK/GD32VW55X_Wifi_BLE_SDK/GD32VW55x_RELEASE_V1.0.2/MSDK/wpa_supplicant/src/tls\pkcs5.c **** 
 438:C:/Users/stapi/OneDrive/Desktop/GD32VW553/V1_MQTT_OK/GD32VW55X_Wifi_BLE_SDK/GD32VW55x_RELEASE_V1.0.2/MSDK/wpa_supplicant/src/tls\pkcs5.c **** 	wpa_hexdump_ascii_key(MSG_DEBUG, "PKCS #5: PBES2 password for PBKDF2",
 439:C:/Users/stapi/OneDrive/Desktop/GD32VW553/V1_MQTT_OK/GD32VW55X_Wifi_BLE_SDK/GD32VW55x_RELEASE_V1.0.2/MSDK/wpa_supplicant/src/tls\pkcs5.c **** 			      passwd, os_strlen(passwd));
 440:C:/Users/stapi/OneDrive/Desktop/GD32VW553/V1_MQTT_OK/GD32VW55X_Wifi_BLE_SDK/GD32VW55x_RELEASE_V1.0.2/MSDK/wpa_supplicant/src/tls\pkcs5.c **** 	wpa_hexdump(MSG_DEBUG, "PKCS #5: PBES2 salt for PBKDF2",
 441:C:/Users/stapi/OneDrive/Desktop/GD32VW553/V1_MQTT_OK/GD32VW55X_Wifi_BLE_SDK/GD32VW55x_RELEASE_V1.0.2/MSDK/wpa_supplicant/src/tls\pkcs5.c **** 		    params->salt, params->salt_len);
 442:C:/Users/stapi/OneDrive/Desktop/GD32VW553/V1_MQTT_OK/GD32VW55X_Wifi_BLE_SDK/GD32VW55x_RELEASE_V1.0.2/MSDK/wpa_supplicant/src/tls\pkcs5.c **** 	wpa_printf(MSG_DEBUG, "PKCS #5: PBES2 PBKDF2 iterations: %u",
 443:C:/Users/stapi/OneDrive/Desktop/GD32VW553/V1_MQTT_OK/GD32VW55X_Wifi_BLE_SDK/GD32VW55x_RELEASE_V1.0.2/MSDK/wpa_supplicant/src/tls\pkcs5.c **** 		   params->iter_count);
 444:C:/Users/stapi/OneDrive/Desktop/GD32VW553/V1_MQTT_OK/GD32VW55X_Wifi_BLE_SDK/GD32VW55x_RELEASE_V1.0.2/MSDK/wpa_supplicant/src/tls\pkcs5.c **** #ifndef CONFIG_GDWIFI
 445:C:/Users/stapi/OneDrive/Desktop/GD32VW553/V1_MQTT_OK/GD32VW55X_Wifi_BLE_SDK/GD32VW55x_RELEASE_V1.0.2/MSDK/wpa_supplicant/src/tls\pkcs5.c **** 	if (pbkdf2_sha1(passwd, params->salt, params->salt_len,
 446:C:/Users/stapi/OneDrive/Desktop/GD32VW553/V1_MQTT_OK/GD32VW55X_Wifi_BLE_SDK/GD32VW55x_RELEASE_V1.0.2/MSDK/wpa_supplicant/src/tls\pkcs5.c **** 			params->iter_count, key, sizeof(key)) < 0)
 447:C:/Users/stapi/OneDrive/Desktop/GD32VW553/V1_MQTT_OK/GD32VW55X_Wifi_BLE_SDK/GD32VW55x_RELEASE_V1.0.2/MSDK/wpa_supplicant/src/tls\pkcs5.c **** 		return NULL;
 448:C:/Users/stapi/OneDrive/Desktop/GD32VW553/V1_MQTT_OK/GD32VW55X_Wifi_BLE_SDK/GD32VW55x_RELEASE_V1.0.2/MSDK/wpa_supplicant/src/tls\pkcs5.c **** #else
 449:C:/Users/stapi/OneDrive/Desktop/GD32VW553/V1_MQTT_OK/GD32VW55X_Wifi_BLE_SDK/GD32VW55x_RELEASE_V1.0.2/MSDK/wpa_supplicant/src/tls\pkcs5.c **** 	const mbedtls_md_info_t *md_info;
 450:C:/Users/stapi/OneDrive/Desktop/GD32VW553/V1_MQTT_OK/GD32VW55X_Wifi_BLE_SDK/GD32VW55x_RELEASE_V1.0.2/MSDK/wpa_supplicant/src/tls\pkcs5.c **** 	mbedtls_md_type_t md_type;
 451:C:/Users/stapi/OneDrive/Desktop/GD32VW553/V1_MQTT_OK/GD32VW55X_Wifi_BLE_SDK/GD32VW55x_RELEASE_V1.0.2/MSDK/wpa_supplicant/src/tls\pkcs5.c **** 	mbedtls_md_context_t md_ctx;
 452:C:/Users/stapi/OneDrive/Desktop/GD32VW553/V1_MQTT_OK/GD32VW55X_Wifi_BLE_SDK/GD32VW55x_RELEASE_V1.0.2/MSDK/wpa_supplicant/src/tls\pkcs5.c **** 
 453:C:/Users/stapi/OneDrive/Desktop/GD32VW553/V1_MQTT_OK/GD32VW55X_Wifi_BLE_SDK/GD32VW55x_RELEASE_V1.0.2/MSDK/wpa_supplicant/src/tls\pkcs5.c **** 	switch (params->dig_alg) {
 454:C:/Users/stapi/OneDrive/Desktop/GD32VW553/V1_MQTT_OK/GD32VW55X_Wifi_BLE_SDK/GD32VW55x_RELEASE_V1.0.2/MSDK/wpa_supplicant/src/tls\pkcs5.c **** 	case PBKDF2_DIG_ALG_MD5:
 455:C:/Users/stapi/OneDrive/Desktop/GD32VW553/V1_MQTT_OK/GD32VW55X_Wifi_BLE_SDK/GD32VW55x_RELEASE_V1.0.2/MSDK/wpa_supplicant/src/tls\pkcs5.c **** 		md_type = MBEDTLS_MD_MD5;
 456:C:/Users/stapi/OneDrive/Desktop/GD32VW553/V1_MQTT_OK/GD32VW55X_Wifi_BLE_SDK/GD32VW55x_RELEASE_V1.0.2/MSDK/wpa_supplicant/src/tls\pkcs5.c **** 		break;
 457:C:/Users/stapi/OneDrive/Desktop/GD32VW553/V1_MQTT_OK/GD32VW55X_Wifi_BLE_SDK/GD32VW55x_RELEASE_V1.0.2/MSDK/wpa_supplicant/src/tls\pkcs5.c **** 	case PBKDF2_DIG_ALG_SHA1:
 458:C:/Users/stapi/OneDrive/Desktop/GD32VW553/V1_MQTT_OK/GD32VW55X_Wifi_BLE_SDK/GD32VW55x_RELEASE_V1.0.2/MSDK/wpa_supplicant/src/tls\pkcs5.c **** 		md_type = MBEDTLS_MD_SHA1;
 459:C:/Users/stapi/OneDrive/Desktop/GD32VW553/V1_MQTT_OK/GD32VW55X_Wifi_BLE_SDK/GD32VW55x_RELEASE_V1.0.2/MSDK/wpa_supplicant/src/tls\pkcs5.c **** 		break;
 460:C:/Users/stapi/OneDrive/Desktop/GD32VW553/V1_MQTT_OK/GD32VW55X_Wifi_BLE_SDK/GD32VW55x_RELEASE_V1.0.2/MSDK/wpa_supplicant/src/tls\pkcs5.c **** 	case PBKDF2_DIG_ALG_SHA224:
 461:C:/Users/stapi/OneDrive/Desktop/GD32VW553/V1_MQTT_OK/GD32VW55X_Wifi_BLE_SDK/GD32VW55x_RELEASE_V1.0.2/MSDK/wpa_supplicant/src/tls\pkcs5.c **** 		md_type = MBEDTLS_MD_SHA224;
 462:C:/Users/stapi/OneDrive/Desktop/GD32VW553/V1_MQTT_OK/GD32VW55X_Wifi_BLE_SDK/GD32VW55x_RELEASE_V1.0.2/MSDK/wpa_supplicant/src/tls\pkcs5.c **** 		break;
 463:C:/Users/stapi/OneDrive/Desktop/GD32VW553/V1_MQTT_OK/GD32VW55X_Wifi_BLE_SDK/GD32VW55x_RELEASE_V1.0.2/MSDK/wpa_supplicant/src/tls\pkcs5.c **** 	case PBKDF2_DIG_ALG_SHA256:
 464:C:/Users/stapi/OneDrive/Desktop/GD32VW553/V1_MQTT_OK/GD32VW55X_Wifi_BLE_SDK/GD32VW55x_RELEASE_V1.0.2/MSDK/wpa_supplicant/src/tls\pkcs5.c **** 		md_type = MBEDTLS_MD_SHA256;
 465:C:/Users/stapi/OneDrive/Desktop/GD32VW553/V1_MQTT_OK/GD32VW55X_Wifi_BLE_SDK/GD32VW55x_RELEASE_V1.0.2/MSDK/wpa_supplicant/src/tls\pkcs5.c **** 		break;
 466:C:/Users/stapi/OneDrive/Desktop/GD32VW553/V1_MQTT_OK/GD32VW55X_Wifi_BLE_SDK/GD32VW55x_RELEASE_V1.0.2/MSDK/wpa_supplicant/src/tls\pkcs5.c **** 	case PBKDF2_DIG_ALG_SHA384:
 467:C:/Users/stapi/OneDrive/Desktop/GD32VW553/V1_MQTT_OK/GD32VW55X_Wifi_BLE_SDK/GD32VW55x_RELEASE_V1.0.2/MSDK/wpa_supplicant/src/tls\pkcs5.c **** 		md_type = MBEDTLS_MD_SHA384;
 468:C:/Users/stapi/OneDrive/Desktop/GD32VW553/V1_MQTT_OK/GD32VW55X_Wifi_BLE_SDK/GD32VW55x_RELEASE_V1.0.2/MSDK/wpa_supplicant/src/tls\pkcs5.c **** 		break;
 469:C:/Users/stapi/OneDrive/Desktop/GD32VW553/V1_MQTT_OK/GD32VW55X_Wifi_BLE_SDK/GD32VW55x_RELEASE_V1.0.2/MSDK/wpa_supplicant/src/tls\pkcs5.c **** 	case PBKDF2_DIG_ALG_SHA512:
 470:C:/Users/stapi/OneDrive/Desktop/GD32VW553/V1_MQTT_OK/GD32VW55X_Wifi_BLE_SDK/GD32VW55x_RELEASE_V1.0.2/MSDK/wpa_supplicant/src/tls\pkcs5.c **** 		md_type = MBEDTLS_MD_SHA512;
 471:C:/Users/stapi/OneDrive/Desktop/GD32VW553/V1_MQTT_OK/GD32VW55X_Wifi_BLE_SDK/GD32VW55x_RELEASE_V1.0.2/MSDK/wpa_supplicant/src/tls\pkcs5.c **** 		break;
 472:C:/Users/stapi/OneDrive/Desktop/GD32VW553/V1_MQTT_OK/GD32VW55X_Wifi_BLE_SDK/GD32VW55x_RELEASE_V1.0.2/MSDK/wpa_supplicant/src/tls\pkcs5.c **** 	default:
 473:C:/Users/stapi/OneDrive/Desktop/GD32VW553/V1_MQTT_OK/GD32VW55X_Wifi_BLE_SDK/GD32VW55x_RELEASE_V1.0.2/MSDK/wpa_supplicant/src/tls\pkcs5.c **** 		md_type = MBEDTLS_MD_NONE;
 474:C:/Users/stapi/OneDrive/Desktop/GD32VW553/V1_MQTT_OK/GD32VW55X_Wifi_BLE_SDK/GD32VW55x_RELEASE_V1.0.2/MSDK/wpa_supplicant/src/tls\pkcs5.c **** 		break;
 475:C:/Users/stapi/OneDrive/Desktop/GD32VW553/V1_MQTT_OK/GD32VW55X_Wifi_BLE_SDK/GD32VW55x_RELEASE_V1.0.2/MSDK/wpa_supplicant/src/tls\pkcs5.c **** 	}
 476:C:/Users/stapi/OneDrive/Desktop/GD32VW553/V1_MQTT_OK/GD32VW55X_Wifi_BLE_SDK/GD32VW55x_RELEASE_V1.0.2/MSDK/wpa_supplicant/src/tls\pkcs5.c **** 
 477:C:/Users/stapi/OneDrive/Desktop/GD32VW553/V1_MQTT_OK/GD32VW55X_Wifi_BLE_SDK/GD32VW55x_RELEASE_V1.0.2/MSDK/wpa_supplicant/src/tls\pkcs5.c **** 	mbedtls_md_init(&md_ctx);
 478:C:/Users/stapi/OneDrive/Desktop/GD32VW553/V1_MQTT_OK/GD32VW55X_Wifi_BLE_SDK/GD32VW55x_RELEASE_V1.0.2/MSDK/wpa_supplicant/src/tls\pkcs5.c **** 
 479:C:/Users/stapi/OneDrive/Desktop/GD32VW553/V1_MQTT_OK/GD32VW55X_Wifi_BLE_SDK/GD32VW55x_RELEASE_V1.0.2/MSDK/wpa_supplicant/src/tls\pkcs5.c **** 	md_info = mbedtls_md_info_from_type(md_type);
 480:C:/Users/stapi/OneDrive/Desktop/GD32VW553/V1_MQTT_OK/GD32VW55X_Wifi_BLE_SDK/GD32VW55x_RELEASE_V1.0.2/MSDK/wpa_supplicant/src/tls\pkcs5.c **** 	if(md_info == NULL)
 481:C:/Users/stapi/OneDrive/Desktop/GD32VW553/V1_MQTT_OK/GD32VW55X_Wifi_BLE_SDK/GD32VW55x_RELEASE_V1.0.2/MSDK/wpa_supplicant/src/tls\pkcs5.c **** 		return NULL;
 482:C:/Users/stapi/OneDrive/Desktop/GD32VW553/V1_MQTT_OK/GD32VW55X_Wifi_BLE_SDK/GD32VW55x_RELEASE_V1.0.2/MSDK/wpa_supplicant/src/tls\pkcs5.c **** 
 483:C:/Users/stapi/OneDrive/Desktop/GD32VW553/V1_MQTT_OK/GD32VW55X_Wifi_BLE_SDK/GD32VW55x_RELEASE_V1.0.2/MSDK/wpa_supplicant/src/tls\pkcs5.c **** 	if (mbedtls_md_setup(&md_ctx, md_info, 1) != 0)
 484:C:/Users/stapi/OneDrive/Desktop/GD32VW553/V1_MQTT_OK/GD32VW55X_Wifi_BLE_SDK/GD32VW55x_RELEASE_V1.0.2/MSDK/wpa_supplicant/src/tls\pkcs5.c **** 		return NULL;
 485:C:/Users/stapi/OneDrive/Desktop/GD32VW553/V1_MQTT_OK/GD32VW55X_Wifi_BLE_SDK/GD32VW55x_RELEASE_V1.0.2/MSDK/wpa_supplicant/src/tls\pkcs5.c **** 	if (mbedtls_pkcs5_pbkdf2_hmac(&md_ctx, (const unsigned char *)passwd,
 486:C:/Users/stapi/OneDrive/Desktop/GD32VW553/V1_MQTT_OK/GD32VW55X_Wifi_BLE_SDK/GD32VW55x_RELEASE_V1.0.2/MSDK/wpa_supplicant/src/tls\pkcs5.c **** 							strlen(passwd), params->salt, params->salt_len,
 487:C:/Users/stapi/OneDrive/Desktop/GD32VW553/V1_MQTT_OK/GD32VW55X_Wifi_BLE_SDK/GD32VW55x_RELEASE_V1.0.2/MSDK/wpa_supplicant/src/tls\pkcs5.c **** 							params->iter_count, sizeof(key), key) != 0) {
 488:C:/Users/stapi/OneDrive/Desktop/GD32VW553/V1_MQTT_OK/GD32VW55X_Wifi_BLE_SDK/GD32VW55x_RELEASE_V1.0.2/MSDK/wpa_supplicant/src/tls\pkcs5.c **** 
 489:C:/Users/stapi/OneDrive/Desktop/GD32VW553/V1_MQTT_OK/GD32VW55X_Wifi_BLE_SDK/GD32VW55x_RELEASE_V1.0.2/MSDK/wpa_supplicant/src/tls\pkcs5.c **** 		return NULL;
 490:C:/Users/stapi/OneDrive/Desktop/GD32VW553/V1_MQTT_OK/GD32VW55X_Wifi_BLE_SDK/GD32VW55x_RELEASE_V1.0.2/MSDK/wpa_supplicant/src/tls\pkcs5.c **** 	}
 491:C:/Users/stapi/OneDrive/Desktop/GD32VW553/V1_MQTT_OK/GD32VW55X_Wifi_BLE_SDK/GD32VW55x_RELEASE_V1.0.2/MSDK/wpa_supplicant/src/tls\pkcs5.c **** #endif /* CONFIG_GDWIFI */
 492:C:/Users/stapi/OneDrive/Desktop/GD32VW553/V1_MQTT_OK/GD32VW55X_Wifi_BLE_SDK/GD32VW55x_RELEASE_V1.0.2/MSDK/wpa_supplicant/src/tls\pkcs5.c **** 	wpa_hexdump_key(MSG_DEBUG, "PKCS #5: DES EDE3 key", key, sizeof(key));
 493:C:/Users/stapi/OneDrive/Desktop/GD32VW553/V1_MQTT_OK/GD32VW55X_Wifi_BLE_SDK/GD32VW55x_RELEASE_V1.0.2/MSDK/wpa_supplicant/src/tls\pkcs5.c **** 	wpa_hexdump(MSG_DEBUG, "PKCS #5: DES IV", params->iv, params->iv_len);
 494:C:/Users/stapi/OneDrive/Desktop/GD32VW553/V1_MQTT_OK/GD32VW55X_Wifi_BLE_SDK/GD32VW55x_RELEASE_V1.0.2/MSDK/wpa_supplicant/src/tls\pkcs5.c **** 
 495:C:/Users/stapi/OneDrive/Desktop/GD32VW553/V1_MQTT_OK/GD32VW55X_Wifi_BLE_SDK/GD32VW55x_RELEASE_V1.0.2/MSDK/wpa_supplicant/src/tls\pkcs5.c **** 	return crypto_cipher_init(CRYPTO_CIPHER_ALG_3DES, params->iv,
 496:C:/Users/stapi/OneDrive/Desktop/GD32VW553/V1_MQTT_OK/GD32VW55X_Wifi_BLE_SDK/GD32VW55x_RELEASE_V1.0.2/MSDK/wpa_supplicant/src/tls\pkcs5.c **** 				  key, sizeof(key));
 497:C:/Users/stapi/OneDrive/Desktop/GD32VW553/V1_MQTT_OK/GD32VW55X_Wifi_BLE_SDK/GD32VW55x_RELEASE_V1.0.2/MSDK/wpa_supplicant/src/tls\pkcs5.c **** }
 498:C:/Users/stapi/OneDrive/Desktop/GD32VW553/V1_MQTT_OK/GD32VW55X_Wifi_BLE_SDK/GD32VW55x_RELEASE_V1.0.2/MSDK/wpa_supplicant/src/tls\pkcs5.c **** 
 499:C:/Users/stapi/OneDrive/Desktop/GD32VW553/V1_MQTT_OK/GD32VW55X_Wifi_BLE_SDK/GD32VW55x_RELEASE_V1.0.2/MSDK/wpa_supplicant/src/tls\pkcs5.c **** 
 500:C:/Users/stapi/OneDrive/Desktop/GD32VW553/V1_MQTT_OK/GD32VW55X_Wifi_BLE_SDK/GD32VW55x_RELEASE_V1.0.2/MSDK/wpa_supplicant/src/tls\pkcs5.c **** static void add_byte_array_mod(u8 *a, const u8 *b, size_t len)
 501:C:/Users/stapi/OneDrive/Desktop/GD32VW553/V1_MQTT_OK/GD32VW55X_Wifi_BLE_SDK/GD32VW55x_RELEASE_V1.0.2/MSDK/wpa_supplicant/src/tls\pkcs5.c **** {
 502:C:/Users/stapi/OneDrive/Desktop/GD32VW553/V1_MQTT_OK/GD32VW55X_Wifi_BLE_SDK/GD32VW55x_RELEASE_V1.0.2/MSDK/wpa_supplicant/src/tls\pkcs5.c **** 	size_t i;
 503:C:/Users/stapi/OneDrive/Desktop/GD32VW553/V1_MQTT_OK/GD32VW55X_Wifi_BLE_SDK/GD32VW55x_RELEASE_V1.0.2/MSDK/wpa_supplicant/src/tls\pkcs5.c **** 	unsigned int carry = 0;
 504:C:/Users/stapi/OneDrive/Desktop/GD32VW553/V1_MQTT_OK/GD32VW55X_Wifi_BLE_SDK/GD32VW55x_RELEASE_V1.0.2/MSDK/wpa_supplicant/src/tls\pkcs5.c **** 
 505:C:/Users/stapi/OneDrive/Desktop/GD32VW553/V1_MQTT_OK/GD32VW55X_Wifi_BLE_SDK/GD32VW55x_RELEASE_V1.0.2/MSDK/wpa_supplicant/src/tls\pkcs5.c **** 	for (i = len - 1; i < len; i--) {
 506:C:/Users/stapi/OneDrive/Desktop/GD32VW553/V1_MQTT_OK/GD32VW55X_Wifi_BLE_SDK/GD32VW55x_RELEASE_V1.0.2/MSDK/wpa_supplicant/src/tls\pkcs5.c **** 		carry = carry + a[i] + b[i];
 507:C:/Users/stapi/OneDrive/Desktop/GD32VW553/V1_MQTT_OK/GD32VW55X_Wifi_BLE_SDK/GD32VW55x_RELEASE_V1.0.2/MSDK/wpa_supplicant/src/tls\pkcs5.c **** 		a[i] = carry & 0xff;
 508:C:/Users/stapi/OneDrive/Desktop/GD32VW553/V1_MQTT_OK/GD32VW55X_Wifi_BLE_SDK/GD32VW55x_RELEASE_V1.0.2/MSDK/wpa_supplicant/src/tls\pkcs5.c **** 		carry >>= 8;
 509:C:/Users/stapi/OneDrive/Desktop/GD32VW553/V1_MQTT_OK/GD32VW55X_Wifi_BLE_SDK/GD32VW55x_RELEASE_V1.0.2/MSDK/wpa_supplicant/src/tls\pkcs5.c **** 	}
 510:C:/Users/stapi/OneDrive/Desktop/GD32VW553/V1_MQTT_OK/GD32VW55X_Wifi_BLE_SDK/GD32VW55x_RELEASE_V1.0.2/MSDK/wpa_supplicant/src/tls\pkcs5.c **** }
 511:C:/Users/stapi/OneDrive/Desktop/GD32VW553/V1_MQTT_OK/GD32VW55X_Wifi_BLE_SDK/GD32VW55x_RELEASE_V1.0.2/MSDK/wpa_supplicant/src/tls\pkcs5.c **** 
 512:C:/Users/stapi/OneDrive/Desktop/GD32VW553/V1_MQTT_OK/GD32VW55X_Wifi_BLE_SDK/GD32VW55x_RELEASE_V1.0.2/MSDK/wpa_supplicant/src/tls\pkcs5.c **** 
 513:C:/Users/stapi/OneDrive/Desktop/GD32VW553/V1_MQTT_OK/GD32VW55X_Wifi_BLE_SDK/GD32VW55x_RELEASE_V1.0.2/MSDK/wpa_supplicant/src/tls\pkcs5.c **** static int pkcs12_key_gen(const u8 *pw, size_t pw_len, const u8 *salt,
 514:C:/Users/stapi/OneDrive/Desktop/GD32VW553/V1_MQTT_OK/GD32VW55X_Wifi_BLE_SDK/GD32VW55x_RELEASE_V1.0.2/MSDK/wpa_supplicant/src/tls\pkcs5.c **** 			  size_t salt_len, u8 id, unsigned int iter,
 515:C:/Users/stapi/OneDrive/Desktop/GD32VW553/V1_MQTT_OK/GD32VW55X_Wifi_BLE_SDK/GD32VW55x_RELEASE_V1.0.2/MSDK/wpa_supplicant/src/tls\pkcs5.c **** 			  size_t out_len, u8 *out)
 516:C:/Users/stapi/OneDrive/Desktop/GD32VW553/V1_MQTT_OK/GD32VW55X_Wifi_BLE_SDK/GD32VW55x_RELEASE_V1.0.2/MSDK/wpa_supplicant/src/tls\pkcs5.c **** {
 223              		.loc 2 516 1 is_stmt 1
 224              		.cfi_startproc
 225              	.LVL21:
 226 0000 17030000 		call	t0,__riscv_save_12
 226      E7020300 
 227              		.cfi_offset 27, -52
 228              		.cfi_offset 26, -48
 229              		.cfi_offset 25, -44
 230              		.cfi_offset 24, -40
 231              		.cfi_offset 23, -36
 232              		.cfi_offset 22, -32
 233              		.cfi_offset 21, -28
 234              		.cfi_offset 20, -24
 235              		.cfi_offset 19, -20
 236              		.cfi_offset 18, -16
 237              		.cfi_offset 9, -12
 238              		.cfi_offset 8, -8
 239              		.cfi_offset 1, -4
 240              		.cfi_def_cfa_offset 64
 241 0008 3971     		addi	sp,sp,-64
 242              		.cfi_def_cfa_offset 128
 243              		.loc 2 516 1 is_stmt 0
 244 000a AA8A     		mv	s5,a0
 517:C:/Users/stapi/OneDrive/Desktop/GD32VW553/V1_MQTT_OK/GD32VW55X_Wifi_BLE_SDK/GD32VW55x_RELEASE_V1.0.2/MSDK/wpa_supplicant/src/tls\pkcs5.c **** 	unsigned int u, v, S_len, P_len, i;
 518:C:/Users/stapi/OneDrive/Desktop/GD32VW553/V1_MQTT_OK/GD32VW55X_Wifi_BLE_SDK/GD32VW55x_RELEASE_V1.0.2/MSDK/wpa_supplicant/src/tls\pkcs5.c **** 	u8 *D = NULL, *I = NULL, *B = NULL, *pos;
 519:C:/Users/stapi/OneDrive/Desktop/GD32VW553/V1_MQTT_OK/GD32VW55X_Wifi_BLE_SDK/GD32VW55x_RELEASE_V1.0.2/MSDK/wpa_supplicant/src/tls\pkcs5.c **** 	int res = -1;
 520:C:/Users/stapi/OneDrive/Desktop/GD32VW553/V1_MQTT_OK/GD32VW55X_Wifi_BLE_SDK/GD32VW55x_RELEASE_V1.0.2/MSDK/wpa_supplicant/src/tls\pkcs5.c **** 
 521:C:/Users/stapi/OneDrive/Desktop/GD32VW553/V1_MQTT_OK/GD32VW55X_Wifi_BLE_SDK/GD32VW55x_RELEASE_V1.0.2/MSDK/wpa_supplicant/src/tls\pkcs5.c **** 	/* RFC 7292, B.2 */
 522:C:/Users/stapi/OneDrive/Desktop/GD32VW553/V1_MQTT_OK/GD32VW55X_Wifi_BLE_SDK/GD32VW55x_RELEASE_V1.0.2/MSDK/wpa_supplicant/src/tls\pkcs5.c **** 	u = SHA1_MAC_LEN;
 523:C:/Users/stapi/OneDrive/Desktop/GD32VW553/V1_MQTT_OK/GD32VW55X_Wifi_BLE_SDK/GD32VW55x_RELEASE_V1.0.2/MSDK/wpa_supplicant/src/tls\pkcs5.c **** 	v = 64;
 524:C:/Users/stapi/OneDrive/Desktop/GD32VW553/V1_MQTT_OK/GD32VW55X_Wifi_BLE_SDK/GD32VW55x_RELEASE_V1.0.2/MSDK/wpa_supplicant/src/tls\pkcs5.c **** 
 525:C:/Users/stapi/OneDrive/Desktop/GD32VW553/V1_MQTT_OK/GD32VW55X_Wifi_BLE_SDK/GD32VW55x_RELEASE_V1.0.2/MSDK/wpa_supplicant/src/tls\pkcs5.c **** 	/* D = copies of ID */
 526:C:/Users/stapi/OneDrive/Desktop/GD32VW553/V1_MQTT_OK/GD32VW55X_Wifi_BLE_SDK/GD32VW55x_RELEASE_V1.0.2/MSDK/wpa_supplicant/src/tls\pkcs5.c **** 	D = os_malloc(v);
 245              		.loc 2 526 6
 246 000c 13050004 		li	a0,64
 247              	.LVL22:
 516:C:/Users/stapi/OneDrive/Desktop/GD32VW553/V1_MQTT_OK/GD32VW55X_Wifi_BLE_SDK/GD32VW55x_RELEASE_V1.0.2/MSDK/wpa_supplicant/src/tls\pkcs5.c **** 	unsigned int u, v, S_len, P_len, i;
 248              		.loc 2 516 1
 249 0010 2E84     		mv	s0,a1
 250 0012 B28C     		mv	s9,a2
 251 0014 368C     		mv	s8,a3
 252 0016 3AC6     		sw	a4,12(sp)
 253 0018 BE8B     		mv	s7,a5
 254 001a C284     		mv	s1,a6
 517:C:/Users/stapi/OneDrive/Desktop/GD32VW553/V1_MQTT_OK/GD32VW55X_Wifi_BLE_SDK/GD32VW55x_RELEASE_V1.0.2/MSDK/wpa_supplicant/src/tls\pkcs5.c **** 	unsigned int u, v, S_len, P_len, i;
 255              		.loc 2 517 2 is_stmt 1
 518:C:/Users/stapi/OneDrive/Desktop/GD32VW553/V1_MQTT_OK/GD32VW55X_Wifi_BLE_SDK/GD32VW55x_RELEASE_V1.0.2/MSDK/wpa_supplicant/src/tls\pkcs5.c **** 	int res = -1;
 256              		.loc 2 518 2
 257              	.LVL23:
 519:C:/Users/stapi/OneDrive/Desktop/GD32VW553/V1_MQTT_OK/GD32VW55X_Wifi_BLE_SDK/GD32VW55x_RELEASE_V1.0.2/MSDK/wpa_supplicant/src/tls\pkcs5.c **** 
 258              		.loc 2 519 2
 522:C:/Users/stapi/OneDrive/Desktop/GD32VW553/V1_MQTT_OK/GD32VW55X_Wifi_BLE_SDK/GD32VW55x_RELEASE_V1.0.2/MSDK/wpa_supplicant/src/tls\pkcs5.c **** 	v = 64;
 259              		.loc 2 522 2
 523:C:/Users/stapi/OneDrive/Desktop/GD32VW553/V1_MQTT_OK/GD32VW55X_Wifi_BLE_SDK/GD32VW55x_RELEASE_V1.0.2/MSDK/wpa_supplicant/src/tls\pkcs5.c **** 
 260              		.loc 2 523 2
 261              		.loc 2 526 2
 516:C:/Users/stapi/OneDrive/Desktop/GD32VW553/V1_MQTT_OK/GD32VW55X_Wifi_BLE_SDK/GD32VW55x_RELEASE_V1.0.2/MSDK/wpa_supplicant/src/tls\pkcs5.c **** 	unsigned int u, v, S_len, P_len, i;
 262              		.loc 2 516 1 is_stmt 0
 263 001c 468A     		mv	s4,a7
 264              		.loc 2 526 6
 265 001e 97000000 		call	os_malloc
 265      E7800000 
 266              	.LVL24:
 527:C:/Users/stapi/OneDrive/Desktop/GD32VW553/V1_MQTT_OK/GD32VW55X_Wifi_BLE_SDK/GD32VW55x_RELEASE_V1.0.2/MSDK/wpa_supplicant/src/tls\pkcs5.c **** 	if (!D)
 267              		.loc 2 527 5
 268 0026 B245     		lw	a1,12(sp)
 526:C:/Users/stapi/OneDrive/Desktop/GD32VW553/V1_MQTT_OK/GD32VW55X_Wifi_BLE_SDK/GD32VW55x_RELEASE_V1.0.2/MSDK/wpa_supplicant/src/tls\pkcs5.c **** 	if (!D)
 269              		.loc 2 526 6
 270 0028 AA89     		mv	s3,a0
 271              	.LVL25:
 272              		.loc 2 527 2 is_stmt 1
 273              		.loc 2 527 5 is_stmt 0
 274 002a 0DE9     		bne	a0,zero,.L34
 275              	.LVL26:
 276              	.L36:
 519:C:/Users/stapi/OneDrive/Desktop/GD32VW553/V1_MQTT_OK/GD32VW55X_Wifi_BLE_SDK/GD32VW55x_RELEASE_V1.0.2/MSDK/wpa_supplicant/src/tls\pkcs5.c **** 
 277              		.loc 2 519 6
 278 002c FD5A     		li	s5,-1
 279              	.LVL27:
 518:C:/Users/stapi/OneDrive/Desktop/GD32VW553/V1_MQTT_OK/GD32VW55X_Wifi_BLE_SDK/GD32VW55x_RELEASE_V1.0.2/MSDK/wpa_supplicant/src/tls\pkcs5.c **** 	int res = -1;
 280              		.loc 2 518 28
 281 002e 0144     		li	s0,0
 282              	.LVL28:
 518:C:/Users/stapi/OneDrive/Desktop/GD32VW553/V1_MQTT_OK/GD32VW55X_Wifi_BLE_SDK/GD32VW55x_RELEASE_V1.0.2/MSDK/wpa_supplicant/src/tls\pkcs5.c **** 	int res = -1;
 283              		.loc 2 518 17
 284 0030 0149     		li	s2,0
 285              	.LVL29:
 286              	.L35:
 528:C:/Users/stapi/OneDrive/Desktop/GD32VW553/V1_MQTT_OK/GD32VW55X_Wifi_BLE_SDK/GD32VW55x_RELEASE_V1.0.2/MSDK/wpa_supplicant/src/tls\pkcs5.c **** 		goto done;
 529:C:/Users/stapi/OneDrive/Desktop/GD32VW553/V1_MQTT_OK/GD32VW55X_Wifi_BLE_SDK/GD32VW55x_RELEASE_V1.0.2/MSDK/wpa_supplicant/src/tls\pkcs5.c **** 	os_memset(D, id, v);
 530:C:/Users/stapi/OneDrive/Desktop/GD32VW553/V1_MQTT_OK/GD32VW55X_Wifi_BLE_SDK/GD32VW55x_RELEASE_V1.0.2/MSDK/wpa_supplicant/src/tls\pkcs5.c **** 
 531:C:/Users/stapi/OneDrive/Desktop/GD32VW553/V1_MQTT_OK/GD32VW55X_Wifi_BLE_SDK/GD32VW55x_RELEASE_V1.0.2/MSDK/wpa_supplicant/src/tls\pkcs5.c **** 	/* S = copies of salt; P = copies of password, I = S || P */
 532:C:/Users/stapi/OneDrive/Desktop/GD32VW553/V1_MQTT_OK/GD32VW55X_Wifi_BLE_SDK/GD32VW55x_RELEASE_V1.0.2/MSDK/wpa_supplicant/src/tls\pkcs5.c **** 	S_len = v * ((salt_len + v - 1) / v);
 533:C:/Users/stapi/OneDrive/Desktop/GD32VW553/V1_MQTT_OK/GD32VW55X_Wifi_BLE_SDK/GD32VW55x_RELEASE_V1.0.2/MSDK/wpa_supplicant/src/tls\pkcs5.c **** 	P_len = v * ((pw_len + v - 1) / v);
 534:C:/Users/stapi/OneDrive/Desktop/GD32VW553/V1_MQTT_OK/GD32VW55X_Wifi_BLE_SDK/GD32VW55x_RELEASE_V1.0.2/MSDK/wpa_supplicant/src/tls\pkcs5.c **** 	I = os_malloc(S_len + P_len);
 535:C:/Users/stapi/OneDrive/Desktop/GD32VW553/V1_MQTT_OK/GD32VW55X_Wifi_BLE_SDK/GD32VW55x_RELEASE_V1.0.2/MSDK/wpa_supplicant/src/tls\pkcs5.c **** 	if (!I)
 536:C:/Users/stapi/OneDrive/Desktop/GD32VW553/V1_MQTT_OK/GD32VW55X_Wifi_BLE_SDK/GD32VW55x_RELEASE_V1.0.2/MSDK/wpa_supplicant/src/tls\pkcs5.c **** 		goto done;
 537:C:/Users/stapi/OneDrive/Desktop/GD32VW553/V1_MQTT_OK/GD32VW55X_Wifi_BLE_SDK/GD32VW55x_RELEASE_V1.0.2/MSDK/wpa_supplicant/src/tls\pkcs5.c **** 	pos = I;
 538:C:/Users/stapi/OneDrive/Desktop/GD32VW553/V1_MQTT_OK/GD32VW55X_Wifi_BLE_SDK/GD32VW55x_RELEASE_V1.0.2/MSDK/wpa_supplicant/src/tls\pkcs5.c **** 	if (salt_len) {
 539:C:/Users/stapi/OneDrive/Desktop/GD32VW553/V1_MQTT_OK/GD32VW55X_Wifi_BLE_SDK/GD32VW55x_RELEASE_V1.0.2/MSDK/wpa_supplicant/src/tls\pkcs5.c **** 		for (i = 0; i < S_len; i++)
 540:C:/Users/stapi/OneDrive/Desktop/GD32VW553/V1_MQTT_OK/GD32VW55X_Wifi_BLE_SDK/GD32VW55x_RELEASE_V1.0.2/MSDK/wpa_supplicant/src/tls\pkcs5.c **** 			*pos++ = salt[i % salt_len];
 541:C:/Users/stapi/OneDrive/Desktop/GD32VW553/V1_MQTT_OK/GD32VW55X_Wifi_BLE_SDK/GD32VW55x_RELEASE_V1.0.2/MSDK/wpa_supplicant/src/tls\pkcs5.c **** 	}
 542:C:/Users/stapi/OneDrive/Desktop/GD32VW553/V1_MQTT_OK/GD32VW55X_Wifi_BLE_SDK/GD32VW55x_RELEASE_V1.0.2/MSDK/wpa_supplicant/src/tls\pkcs5.c **** 	if (pw_len) {
 543:C:/Users/stapi/OneDrive/Desktop/GD32VW553/V1_MQTT_OK/GD32VW55X_Wifi_BLE_SDK/GD32VW55x_RELEASE_V1.0.2/MSDK/wpa_supplicant/src/tls\pkcs5.c **** 		for (i = 0; i < P_len; i++)
 544:C:/Users/stapi/OneDrive/Desktop/GD32VW553/V1_MQTT_OK/GD32VW55X_Wifi_BLE_SDK/GD32VW55x_RELEASE_V1.0.2/MSDK/wpa_supplicant/src/tls\pkcs5.c **** 			*pos++ = pw[i % pw_len];
 545:C:/Users/stapi/OneDrive/Desktop/GD32VW553/V1_MQTT_OK/GD32VW55X_Wifi_BLE_SDK/GD32VW55x_RELEASE_V1.0.2/MSDK/wpa_supplicant/src/tls\pkcs5.c **** 	}
 546:C:/Users/stapi/OneDrive/Desktop/GD32VW553/V1_MQTT_OK/GD32VW55X_Wifi_BLE_SDK/GD32VW55x_RELEASE_V1.0.2/MSDK/wpa_supplicant/src/tls\pkcs5.c **** 
 547:C:/Users/stapi/OneDrive/Desktop/GD32VW553/V1_MQTT_OK/GD32VW55X_Wifi_BLE_SDK/GD32VW55x_RELEASE_V1.0.2/MSDK/wpa_supplicant/src/tls\pkcs5.c **** 	B = os_malloc(v);
 548:C:/Users/stapi/OneDrive/Desktop/GD32VW553/V1_MQTT_OK/GD32VW55X_Wifi_BLE_SDK/GD32VW55x_RELEASE_V1.0.2/MSDK/wpa_supplicant/src/tls\pkcs5.c **** 	if (!B)
 549:C:/Users/stapi/OneDrive/Desktop/GD32VW553/V1_MQTT_OK/GD32VW55X_Wifi_BLE_SDK/GD32VW55x_RELEASE_V1.0.2/MSDK/wpa_supplicant/src/tls\pkcs5.c **** 		goto done;
 550:C:/Users/stapi/OneDrive/Desktop/GD32VW553/V1_MQTT_OK/GD32VW55X_Wifi_BLE_SDK/GD32VW55x_RELEASE_V1.0.2/MSDK/wpa_supplicant/src/tls\pkcs5.c **** 
 551:C:/Users/stapi/OneDrive/Desktop/GD32VW553/V1_MQTT_OK/GD32VW55X_Wifi_BLE_SDK/GD32VW55x_RELEASE_V1.0.2/MSDK/wpa_supplicant/src/tls\pkcs5.c **** 	for (;;) {
 552:C:/Users/stapi/OneDrive/Desktop/GD32VW553/V1_MQTT_OK/GD32VW55X_Wifi_BLE_SDK/GD32VW55x_RELEASE_V1.0.2/MSDK/wpa_supplicant/src/tls\pkcs5.c **** 		u8 hash[SHA1_MAC_LEN];
 553:C:/Users/stapi/OneDrive/Desktop/GD32VW553/V1_MQTT_OK/GD32VW55X_Wifi_BLE_SDK/GD32VW55x_RELEASE_V1.0.2/MSDK/wpa_supplicant/src/tls\pkcs5.c **** 		const u8 *addr[2];
 554:C:/Users/stapi/OneDrive/Desktop/GD32VW553/V1_MQTT_OK/GD32VW55X_Wifi_BLE_SDK/GD32VW55x_RELEASE_V1.0.2/MSDK/wpa_supplicant/src/tls\pkcs5.c **** 		size_t len[2];
 555:C:/Users/stapi/OneDrive/Desktop/GD32VW553/V1_MQTT_OK/GD32VW55X_Wifi_BLE_SDK/GD32VW55x_RELEASE_V1.0.2/MSDK/wpa_supplicant/src/tls\pkcs5.c **** 
 556:C:/Users/stapi/OneDrive/Desktop/GD32VW553/V1_MQTT_OK/GD32VW55X_Wifi_BLE_SDK/GD32VW55x_RELEASE_V1.0.2/MSDK/wpa_supplicant/src/tls\pkcs5.c **** 		addr[0] = D;
 557:C:/Users/stapi/OneDrive/Desktop/GD32VW553/V1_MQTT_OK/GD32VW55X_Wifi_BLE_SDK/GD32VW55x_RELEASE_V1.0.2/MSDK/wpa_supplicant/src/tls\pkcs5.c **** 		len[0] = v;
 558:C:/Users/stapi/OneDrive/Desktop/GD32VW553/V1_MQTT_OK/GD32VW55X_Wifi_BLE_SDK/GD32VW55x_RELEASE_V1.0.2/MSDK/wpa_supplicant/src/tls\pkcs5.c **** 		addr[1] = I;
 559:C:/Users/stapi/OneDrive/Desktop/GD32VW553/V1_MQTT_OK/GD32VW55X_Wifi_BLE_SDK/GD32VW55x_RELEASE_V1.0.2/MSDK/wpa_supplicant/src/tls\pkcs5.c **** 		len[1] = S_len + P_len;
 560:C:/Users/stapi/OneDrive/Desktop/GD32VW553/V1_MQTT_OK/GD32VW55X_Wifi_BLE_SDK/GD32VW55x_RELEASE_V1.0.2/MSDK/wpa_supplicant/src/tls\pkcs5.c **** 		if (sha1_vector(2, addr, len, hash) < 0)
 561:C:/Users/stapi/OneDrive/Desktop/GD32VW553/V1_MQTT_OK/GD32VW55X_Wifi_BLE_SDK/GD32VW55x_RELEASE_V1.0.2/MSDK/wpa_supplicant/src/tls\pkcs5.c **** 			goto done;
 562:C:/Users/stapi/OneDrive/Desktop/GD32VW553/V1_MQTT_OK/GD32VW55X_Wifi_BLE_SDK/GD32VW55x_RELEASE_V1.0.2/MSDK/wpa_supplicant/src/tls\pkcs5.c **** 
 563:C:/Users/stapi/OneDrive/Desktop/GD32VW553/V1_MQTT_OK/GD32VW55X_Wifi_BLE_SDK/GD32VW55x_RELEASE_V1.0.2/MSDK/wpa_supplicant/src/tls\pkcs5.c **** 		addr[0] = hash;
 564:C:/Users/stapi/OneDrive/Desktop/GD32VW553/V1_MQTT_OK/GD32VW55X_Wifi_BLE_SDK/GD32VW55x_RELEASE_V1.0.2/MSDK/wpa_supplicant/src/tls\pkcs5.c **** 		len[0] = SHA1_MAC_LEN;
 565:C:/Users/stapi/OneDrive/Desktop/GD32VW553/V1_MQTT_OK/GD32VW55X_Wifi_BLE_SDK/GD32VW55x_RELEASE_V1.0.2/MSDK/wpa_supplicant/src/tls\pkcs5.c **** 		for (i = 1; i < iter; i++) {
 566:C:/Users/stapi/OneDrive/Desktop/GD32VW553/V1_MQTT_OK/GD32VW55X_Wifi_BLE_SDK/GD32VW55x_RELEASE_V1.0.2/MSDK/wpa_supplicant/src/tls\pkcs5.c **** 			if (sha1_vector(1, addr, len, hash) < 0)
 567:C:/Users/stapi/OneDrive/Desktop/GD32VW553/V1_MQTT_OK/GD32VW55X_Wifi_BLE_SDK/GD32VW55x_RELEASE_V1.0.2/MSDK/wpa_supplicant/src/tls\pkcs5.c **** 				goto done;
 568:C:/Users/stapi/OneDrive/Desktop/GD32VW553/V1_MQTT_OK/GD32VW55X_Wifi_BLE_SDK/GD32VW55x_RELEASE_V1.0.2/MSDK/wpa_supplicant/src/tls\pkcs5.c **** 		}
 569:C:/Users/stapi/OneDrive/Desktop/GD32VW553/V1_MQTT_OK/GD32VW55X_Wifi_BLE_SDK/GD32VW55x_RELEASE_V1.0.2/MSDK/wpa_supplicant/src/tls\pkcs5.c **** 
 570:C:/Users/stapi/OneDrive/Desktop/GD32VW553/V1_MQTT_OK/GD32VW55X_Wifi_BLE_SDK/GD32VW55x_RELEASE_V1.0.2/MSDK/wpa_supplicant/src/tls\pkcs5.c **** 		if (out_len <= u) {
 571:C:/Users/stapi/OneDrive/Desktop/GD32VW553/V1_MQTT_OK/GD32VW55X_Wifi_BLE_SDK/GD32VW55x_RELEASE_V1.0.2/MSDK/wpa_supplicant/src/tls\pkcs5.c **** 			os_memcpy(out, hash, out_len);
 572:C:/Users/stapi/OneDrive/Desktop/GD32VW553/V1_MQTT_OK/GD32VW55X_Wifi_BLE_SDK/GD32VW55x_RELEASE_V1.0.2/MSDK/wpa_supplicant/src/tls\pkcs5.c **** 			res = 0;
 573:C:/Users/stapi/OneDrive/Desktop/GD32VW553/V1_MQTT_OK/GD32VW55X_Wifi_BLE_SDK/GD32VW55x_RELEASE_V1.0.2/MSDK/wpa_supplicant/src/tls\pkcs5.c **** 			goto done;
 574:C:/Users/stapi/OneDrive/Desktop/GD32VW553/V1_MQTT_OK/GD32VW55X_Wifi_BLE_SDK/GD32VW55x_RELEASE_V1.0.2/MSDK/wpa_supplicant/src/tls\pkcs5.c **** 		}
 575:C:/Users/stapi/OneDrive/Desktop/GD32VW553/V1_MQTT_OK/GD32VW55X_Wifi_BLE_SDK/GD32VW55x_RELEASE_V1.0.2/MSDK/wpa_supplicant/src/tls\pkcs5.c **** 
 576:C:/Users/stapi/OneDrive/Desktop/GD32VW553/V1_MQTT_OK/GD32VW55X_Wifi_BLE_SDK/GD32VW55x_RELEASE_V1.0.2/MSDK/wpa_supplicant/src/tls\pkcs5.c **** 		os_memcpy(out, hash, u);
 577:C:/Users/stapi/OneDrive/Desktop/GD32VW553/V1_MQTT_OK/GD32VW55X_Wifi_BLE_SDK/GD32VW55x_RELEASE_V1.0.2/MSDK/wpa_supplicant/src/tls\pkcs5.c **** 		out += u;
 578:C:/Users/stapi/OneDrive/Desktop/GD32VW553/V1_MQTT_OK/GD32VW55X_Wifi_BLE_SDK/GD32VW55x_RELEASE_V1.0.2/MSDK/wpa_supplicant/src/tls\pkcs5.c **** 		out_len -= u;
 579:C:/Users/stapi/OneDrive/Desktop/GD32VW553/V1_MQTT_OK/GD32VW55X_Wifi_BLE_SDK/GD32VW55x_RELEASE_V1.0.2/MSDK/wpa_supplicant/src/tls\pkcs5.c **** 
 580:C:/Users/stapi/OneDrive/Desktop/GD32VW553/V1_MQTT_OK/GD32VW55X_Wifi_BLE_SDK/GD32VW55x_RELEASE_V1.0.2/MSDK/wpa_supplicant/src/tls\pkcs5.c **** 		/* I_j = (I_j + B + 1) mod 2^(v*8) */
 581:C:/Users/stapi/OneDrive/Desktop/GD32VW553/V1_MQTT_OK/GD32VW55X_Wifi_BLE_SDK/GD32VW55x_RELEASE_V1.0.2/MSDK/wpa_supplicant/src/tls\pkcs5.c **** 		/* B = copies of Ai (final hash value) */
 582:C:/Users/stapi/OneDrive/Desktop/GD32VW553/V1_MQTT_OK/GD32VW55X_Wifi_BLE_SDK/GD32VW55x_RELEASE_V1.0.2/MSDK/wpa_supplicant/src/tls\pkcs5.c **** 		for (i = 0; i < v; i++)
 583:C:/Users/stapi/OneDrive/Desktop/GD32VW553/V1_MQTT_OK/GD32VW55X_Wifi_BLE_SDK/GD32VW55x_RELEASE_V1.0.2/MSDK/wpa_supplicant/src/tls\pkcs5.c **** 			B[i] = hash[i % u];
 584:C:/Users/stapi/OneDrive/Desktop/GD32VW553/V1_MQTT_OK/GD32VW55X_Wifi_BLE_SDK/GD32VW55x_RELEASE_V1.0.2/MSDK/wpa_supplicant/src/tls\pkcs5.c **** 		inc_byte_array(B, v);
 585:C:/Users/stapi/OneDrive/Desktop/GD32VW553/V1_MQTT_OK/GD32VW55X_Wifi_BLE_SDK/GD32VW55x_RELEASE_V1.0.2/MSDK/wpa_supplicant/src/tls\pkcs5.c **** 		for (i = 0; i < S_len + P_len; i += v)
 586:C:/Users/stapi/OneDrive/Desktop/GD32VW553/V1_MQTT_OK/GD32VW55X_Wifi_BLE_SDK/GD32VW55x_RELEASE_V1.0.2/MSDK/wpa_supplicant/src/tls\pkcs5.c **** 			add_byte_array_mod(&I[i], B, v);
 587:C:/Users/stapi/OneDrive/Desktop/GD32VW553/V1_MQTT_OK/GD32VW55X_Wifi_BLE_SDK/GD32VW55x_RELEASE_V1.0.2/MSDK/wpa_supplicant/src/tls\pkcs5.c **** 	}
 588:C:/Users/stapi/OneDrive/Desktop/GD32VW553/V1_MQTT_OK/GD32VW55X_Wifi_BLE_SDK/GD32VW55x_RELEASE_V1.0.2/MSDK/wpa_supplicant/src/tls\pkcs5.c **** 
 589:C:/Users/stapi/OneDrive/Desktop/GD32VW553/V1_MQTT_OK/GD32VW55X_Wifi_BLE_SDK/GD32VW55x_RELEASE_V1.0.2/MSDK/wpa_supplicant/src/tls\pkcs5.c **** done:
 590:C:/Users/stapi/OneDrive/Desktop/GD32VW553/V1_MQTT_OK/GD32VW55X_Wifi_BLE_SDK/GD32VW55x_RELEASE_V1.0.2/MSDK/wpa_supplicant/src/tls\pkcs5.c **** 	os_free(B);
 287              		.loc 2 590 2 is_stmt 1
 288 0032 2285     		mv	a0,s0
 289 0034 97000000 		call	os_free
 289      E7800000 
 290              	.LVL30:
 591:C:/Users/stapi/OneDrive/Desktop/GD32VW553/V1_MQTT_OK/GD32VW55X_Wifi_BLE_SDK/GD32VW55x_RELEASE_V1.0.2/MSDK/wpa_supplicant/src/tls\pkcs5.c **** 	os_free(I);
 291              		.loc 2 591 2
 292 003c 4A85     		mv	a0,s2
 293 003e 97000000 		call	os_free
 293      E7800000 
 294              	.LVL31:
 592:C:/Users/stapi/OneDrive/Desktop/GD32VW553/V1_MQTT_OK/GD32VW55X_Wifi_BLE_SDK/GD32VW55x_RELEASE_V1.0.2/MSDK/wpa_supplicant/src/tls\pkcs5.c **** 	os_free(D);
 295              		.loc 2 592 2
 296 0046 4E85     		mv	a0,s3
 297 0048 97000000 		call	os_free
 297      E7800000 
 298              	.LVL32:
 593:C:/Users/stapi/OneDrive/Desktop/GD32VW553/V1_MQTT_OK/GD32VW55X_Wifi_BLE_SDK/GD32VW55x_RELEASE_V1.0.2/MSDK/wpa_supplicant/src/tls\pkcs5.c **** 	return res;
 299              		.loc 2 593 2
 594:C:/Users/stapi/OneDrive/Desktop/GD32VW553/V1_MQTT_OK/GD32VW55X_Wifi_BLE_SDK/GD32VW55x_RELEASE_V1.0.2/MSDK/wpa_supplicant/src/tls\pkcs5.c **** }
 300              		.loc 2 594 1 is_stmt 0
 301 0050 5685     		mv	a0,s5
 302 0052 2161     		addi	sp,sp,64
 303              		.cfi_remember_state
 304              		.cfi_def_cfa_offset 0
 305 0054 17030000 		tail	__riscv_restore_12
 305      67000300 
 306              		.cfi_restore 27
 307              		.cfi_restore 26
 308              		.cfi_restore 25
 309              		.cfi_restore 24
 310              		.cfi_restore 23
 311              		.cfi_restore 22
 312              		.cfi_restore 21
 313              		.cfi_restore 20
 314              		.cfi_restore 19
 315              		.cfi_restore 18
 316              		.cfi_restore 9
 317              		.cfi_restore 8
 318              		.cfi_restore 1
 319              		.cfi_def_cfa_offset -64
 320              	.LVL33:
 321              	.L34:
 322              		.cfi_restore_state
 529:C:/Users/stapi/OneDrive/Desktop/GD32VW553/V1_MQTT_OK/GD32VW55X_Wifi_BLE_SDK/GD32VW55x_RELEASE_V1.0.2/MSDK/wpa_supplicant/src/tls\pkcs5.c **** 
 323              		.loc 2 529 2 is_stmt 1
 532:C:/Users/stapi/OneDrive/Desktop/GD32VW553/V1_MQTT_OK/GD32VW55X_Wifi_BLE_SDK/GD32VW55x_RELEASE_V1.0.2/MSDK/wpa_supplicant/src/tls\pkcs5.c **** 	P_len = v * ((pw_len + v - 1) / v);
 324              		.loc 2 532 29 is_stmt 0
 325 005c 930DFC03 		addi	s11,s8,63
 533:C:/Users/stapi/OneDrive/Desktop/GD32VW553/V1_MQTT_OK/GD32VW55X_Wifi_BLE_SDK/GD32VW55x_RELEASE_V1.0.2/MSDK/wpa_supplicant/src/tls\pkcs5.c **** 	I = os_malloc(S_len + P_len);
 326              		.loc 2 533 27
 327 0060 130DF403 		addi	s10,s0,63
 529:C:/Users/stapi/OneDrive/Desktop/GD32VW553/V1_MQTT_OK/GD32VW55X_Wifi_BLE_SDK/GD32VW55x_RELEASE_V1.0.2/MSDK/wpa_supplicant/src/tls\pkcs5.c **** 
 328              		.loc 2 529 2
 329 0064 13060004 		li	a2,64
 532:C:/Users/stapi/OneDrive/Desktop/GD32VW553/V1_MQTT_OK/GD32VW55X_Wifi_BLE_SDK/GD32VW55x_RELEASE_V1.0.2/MSDK/wpa_supplicant/src/tls\pkcs5.c **** 	P_len = v * ((pw_len + v - 1) / v);
 330              		.loc 2 532 8
 331 0068 93FD0DFC 		andi	s11,s11,-64
 533:C:/Users/stapi/OneDrive/Desktop/GD32VW553/V1_MQTT_OK/GD32VW55X_Wifi_BLE_SDK/GD32VW55x_RELEASE_V1.0.2/MSDK/wpa_supplicant/src/tls\pkcs5.c **** 	I = os_malloc(S_len + P_len);
 332              		.loc 2 533 8
 333 006c 137D0DFC 		andi	s10,s10,-64
 529:C:/Users/stapi/OneDrive/Desktop/GD32VW553/V1_MQTT_OK/GD32VW55X_Wifi_BLE_SDK/GD32VW55x_RELEASE_V1.0.2/MSDK/wpa_supplicant/src/tls\pkcs5.c **** 
 334              		.loc 2 529 2
 335 0070 97000000 		call	os_memset
 335      E7800000 
 336              	.LVL34:
 532:C:/Users/stapi/OneDrive/Desktop/GD32VW553/V1_MQTT_OK/GD32VW55X_Wifi_BLE_SDK/GD32VW55x_RELEASE_V1.0.2/MSDK/wpa_supplicant/src/tls\pkcs5.c **** 	P_len = v * ((pw_len + v - 1) / v);
 337              		.loc 2 532 2 is_stmt 1
 533:C:/Users/stapi/OneDrive/Desktop/GD32VW553/V1_MQTT_OK/GD32VW55X_Wifi_BLE_SDK/GD32VW55x_RELEASE_V1.0.2/MSDK/wpa_supplicant/src/tls\pkcs5.c **** 	I = os_malloc(S_len + P_len);
 338              		.loc 2 533 2
 534:C:/Users/stapi/OneDrive/Desktop/GD32VW553/V1_MQTT_OK/GD32VW55X_Wifi_BLE_SDK/GD32VW55x_RELEASE_V1.0.2/MSDK/wpa_supplicant/src/tls\pkcs5.c **** 	if (!I)
 339              		.loc 2 534 2
 534:C:/Users/stapi/OneDrive/Desktop/GD32VW553/V1_MQTT_OK/GD32VW55X_Wifi_BLE_SDK/GD32VW55x_RELEASE_V1.0.2/MSDK/wpa_supplicant/src/tls\pkcs5.c **** 	if (!I)
 340              		.loc 2 534 6 is_stmt 0
 341 0078 338BAD01 		add	s6,s11,s10
 342 007c 5A85     		mv	a0,s6
 343 007e 97000000 		call	os_malloc
 343      E7800000 
 344              	.LVL35:
 345 0086 2A89     		mv	s2,a0
 346              	.LVL36:
 535:C:/Users/stapi/OneDrive/Desktop/GD32VW553/V1_MQTT_OK/GD32VW55X_Wifi_BLE_SDK/GD32VW55x_RELEASE_V1.0.2/MSDK/wpa_supplicant/src/tls\pkcs5.c **** 		goto done;
 347              		.loc 2 535 2 is_stmt 1
 535:C:/Users/stapi/OneDrive/Desktop/GD32VW553/V1_MQTT_OK/GD32VW55X_Wifi_BLE_SDK/GD32VW55x_RELEASE_V1.0.2/MSDK/wpa_supplicant/src/tls\pkcs5.c **** 		goto done;
 348              		.loc 2 535 5 is_stmt 0
 349 0088 55D1     		beq	a0,zero,.L36
 537:C:/Users/stapi/OneDrive/Desktop/GD32VW553/V1_MQTT_OK/GD32VW55X_Wifi_BLE_SDK/GD32VW55x_RELEASE_V1.0.2/MSDK/wpa_supplicant/src/tls\pkcs5.c **** 	if (salt_len) {
 350              		.loc 2 537 2 is_stmt 1
 351              	.LVL37:
 538:C:/Users/stapi/OneDrive/Desktop/GD32VW553/V1_MQTT_OK/GD32VW55X_Wifi_BLE_SDK/GD32VW55x_RELEASE_V1.0.2/MSDK/wpa_supplicant/src/tls\pkcs5.c **** 		for (i = 0; i < S_len; i++)
 352              		.loc 2 538 2
 353 008a 2A87     		mv	a4,a0
 538:C:/Users/stapi/OneDrive/Desktop/GD32VW553/V1_MQTT_OK/GD32VW55X_Wifi_BLE_SDK/GD32VW55x_RELEASE_V1.0.2/MSDK/wpa_supplicant/src/tls\pkcs5.c **** 		for (i = 0; i < S_len; i++)
 354              		.loc 2 538 5 is_stmt 0
 355 008c 63000C02 		beq	s8,zero,.L38
 539:C:/Users/stapi/OneDrive/Desktop/GD32VW553/V1_MQTT_OK/GD32VW55X_Wifi_BLE_SDK/GD32VW55x_RELEASE_V1.0.2/MSDK/wpa_supplicant/src/tls\pkcs5.c **** 			*pos++ = salt[i % salt_len];
 356              		.loc 2 539 10
 357 0090 8147     		li	a5,0
 358 0092 09A8     		j	.L37
 359              	.LVL38:
 360              	.L39:
 540:C:/Users/stapi/OneDrive/Desktop/GD32VW553/V1_MQTT_OK/GD32VW55X_Wifi_BLE_SDK/GD32VW55x_RELEASE_V1.0.2/MSDK/wpa_supplicant/src/tls\pkcs5.c **** 	}
 361              		.loc 2 540 4 is_stmt 1 discriminator 3
 540:C:/Users/stapi/OneDrive/Desktop/GD32VW553/V1_MQTT_OK/GD32VW55X_Wifi_BLE_SDK/GD32VW55x_RELEASE_V1.0.2/MSDK/wpa_supplicant/src/tls\pkcs5.c **** 	}
 362              		.loc 2 540 20 is_stmt 0 discriminator 3
 363 0094 B3F68703 		remu	a3,a5,s8
 539:C:/Users/stapi/OneDrive/Desktop/GD32VW553/V1_MQTT_OK/GD32VW55X_Wifi_BLE_SDK/GD32VW55x_RELEASE_V1.0.2/MSDK/wpa_supplicant/src/tls\pkcs5.c **** 			*pos++ = salt[i % salt_len];
 364              		.loc 2 539 27 discriminator 3
 365 0098 8507     		addi	a5,a5,1
 366              	.LVL39:
 540:C:/Users/stapi/OneDrive/Desktop/GD32VW553/V1_MQTT_OK/GD32VW55X_Wifi_BLE_SDK/GD32VW55x_RELEASE_V1.0.2/MSDK/wpa_supplicant/src/tls\pkcs5.c **** 	}
 367              		.loc 2 540 17 discriminator 3
 368 009a E696     		add	a3,s9,a3
 369 009c 83C60600 		lbu	a3,0(a3)
 540:C:/Users/stapi/OneDrive/Desktop/GD32VW553/V1_MQTT_OK/GD32VW55X_Wifi_BLE_SDK/GD32VW55x_RELEASE_V1.0.2/MSDK/wpa_supplicant/src/tls\pkcs5.c **** 	}
 370              		.loc 2 540 11 discriminator 3
 371 00a0 2300D700 		sb	a3,0(a4)
 539:C:/Users/stapi/OneDrive/Desktop/GD32VW553/V1_MQTT_OK/GD32VW55X_Wifi_BLE_SDK/GD32VW55x_RELEASE_V1.0.2/MSDK/wpa_supplicant/src/tls\pkcs5.c **** 			*pos++ = salt[i % salt_len];
 372              		.loc 2 539 26 is_stmt 1 discriminator 3
 373              	.LVL40:
 374              	.L37:
 539:C:/Users/stapi/OneDrive/Desktop/GD32VW553/V1_MQTT_OK/GD32VW55X_Wifi_BLE_SDK/GD32VW55x_RELEASE_V1.0.2/MSDK/wpa_supplicant/src/tls\pkcs5.c **** 			*pos++ = salt[i % salt_len];
 375              		.loc 2 539 15 discriminator 1
 376 00a4 3307F900 		add	a4,s2,a5
 377              	.LVL41:
 539:C:/Users/stapi/OneDrive/Desktop/GD32VW553/V1_MQTT_OK/GD32VW55X_Wifi_BLE_SDK/GD32VW55x_RELEASE_V1.0.2/MSDK/wpa_supplicant/src/tls\pkcs5.c **** 			*pos++ = salt[i % salt_len];
 378              		.loc 2 539 3 is_stmt 0 discriminator 1
 379 00a8 E396B7FF 		bne	a5,s11,.L39
 380              	.LVL42:
 381              	.L38:
 542:C:/Users/stapi/OneDrive/Desktop/GD32VW553/V1_MQTT_OK/GD32VW55X_Wifi_BLE_SDK/GD32VW55x_RELEASE_V1.0.2/MSDK/wpa_supplicant/src/tls\pkcs5.c **** 		for (i = 0; i < P_len; i++)
 382              		.loc 2 542 2 is_stmt 1
 542:C:/Users/stapi/OneDrive/Desktop/GD32VW553/V1_MQTT_OK/GD32VW55X_Wifi_BLE_SDK/GD32VW55x_RELEASE_V1.0.2/MSDK/wpa_supplicant/src/tls\pkcs5.c **** 		for (i = 0; i < P_len; i++)
 383              		.loc 2 542 5 is_stmt 0
 384 00ac 3DEC     		bne	s0,zero,.L54
 385              	.LVL43:
 386              	.L43:
 547:C:/Users/stapi/OneDrive/Desktop/GD32VW553/V1_MQTT_OK/GD32VW55X_Wifi_BLE_SDK/GD32VW55x_RELEASE_V1.0.2/MSDK/wpa_supplicant/src/tls\pkcs5.c **** 	if (!B)
 387              		.loc 2 547 2 is_stmt 1
 547:C:/Users/stapi/OneDrive/Desktop/GD32VW553/V1_MQTT_OK/GD32VW55X_Wifi_BLE_SDK/GD32VW55x_RELEASE_V1.0.2/MSDK/wpa_supplicant/src/tls\pkcs5.c **** 	if (!B)
 388              		.loc 2 547 6 is_stmt 0
 389 00ae 13050004 		li	a0,64
 390              	.LVL44:
 391 00b2 97000000 		call	os_malloc
 391      E7800000 
 392              	.LVL45:
 393 00ba 2A84     		mv	s0,a0
 394              	.LVL46:
 548:C:/Users/stapi/OneDrive/Desktop/GD32VW553/V1_MQTT_OK/GD32VW55X_Wifi_BLE_SDK/GD32VW55x_RELEASE_V1.0.2/MSDK/wpa_supplicant/src/tls\pkcs5.c **** 		goto done;
 395              		.loc 2 548 2 is_stmt 1
 519:C:/Users/stapi/OneDrive/Desktop/GD32VW553/V1_MQTT_OK/GD32VW55X_Wifi_BLE_SDK/GD32VW55x_RELEASE_V1.0.2/MSDK/wpa_supplicant/src/tls\pkcs5.c **** 
 396              		.loc 2 519 6 is_stmt 0
 397 00bc FD5A     		li	s5,-1
 398              	.LVL47:
 548:C:/Users/stapi/OneDrive/Desktop/GD32VW553/V1_MQTT_OK/GD32VW55X_Wifi_BLE_SDK/GD32VW55x_RELEASE_V1.0.2/MSDK/wpa_supplicant/src/tls\pkcs5.c **** 		goto done;
 399              		.loc 2 548 5
 400 00be 35D9     		beq	a0,zero,.L35
 401 00c0 269A     		add	s4,s4,s1
 402              	.LVL48:
 403              	.LBB21:
 560:C:/Users/stapi/OneDrive/Desktop/GD32VW553/V1_MQTT_OK/GD32VW55X_Wifi_BLE_SDK/GD32VW55x_RELEASE_V1.0.2/MSDK/wpa_supplicant/src/tls\pkcs5.c **** 			goto done;
 404              		.loc 2 560 7
 405 00c2 930AC102 		addi	s5,sp,44
 406              	.LBB22:
 407              	.LBB23:
 505:C:/Users/stapi/OneDrive/Desktop/GD32VW553/V1_MQTT_OK/GD32VW55X_Wifi_BLE_SDK/GD32VW55x_RELEASE_V1.0.2/MSDK/wpa_supplicant/src/tls\pkcs5.c **** 		carry = carry + a[i] + b[i];
 408              		.loc 2 505 2
 409 00c6 7D5C     		li	s8,-1
 410              	.LVL49:
 411              	.L41:
 412              	.LBE23:
 413              	.LBE22:
 557:C:/Users/stapi/OneDrive/Desktop/GD32VW553/V1_MQTT_OK/GD32VW55X_Wifi_BLE_SDK/GD32VW55x_RELEASE_V1.0.2/MSDK/wpa_supplicant/src/tls\pkcs5.c **** 		addr[1] = I;
 414              		.loc 2 557 10
 415 00c8 93070004 		li	a5,64
 560:C:/Users/stapi/OneDrive/Desktop/GD32VW553/V1_MQTT_OK/GD32VW55X_Wifi_BLE_SDK/GD32VW55x_RELEASE_V1.0.2/MSDK/wpa_supplicant/src/tls\pkcs5.c **** 			goto done;
 416              		.loc 2 560 7
 417 00cc D686     		mv	a3,s5
 418 00ce 5010     		addi	a2,sp,36
 419 00d0 6C08     		addi	a1,sp,28
 420 00d2 0945     		li	a0,2
 421 00d4 330D9A40 		sub	s10,s4,s1
 422              	.LVL50:
 423              	.LBE21:
 551:C:/Users/stapi/OneDrive/Desktop/GD32VW553/V1_MQTT_OK/GD32VW55X_Wifi_BLE_SDK/GD32VW55x_RELEASE_V1.0.2/MSDK/wpa_supplicant/src/tls\pkcs5.c **** 		u8 hash[SHA1_MAC_LEN];
 424              		.loc 2 551 2 is_stmt 1
 425              	.LBB26:
 552:C:/Users/stapi/OneDrive/Desktop/GD32VW553/V1_MQTT_OK/GD32VW55X_Wifi_BLE_SDK/GD32VW55x_RELEASE_V1.0.2/MSDK/wpa_supplicant/src/tls\pkcs5.c **** 		const u8 *addr[2];
 426              		.loc 2 552 3
 553:C:/Users/stapi/OneDrive/Desktop/GD32VW553/V1_MQTT_OK/GD32VW55X_Wifi_BLE_SDK/GD32VW55x_RELEASE_V1.0.2/MSDK/wpa_supplicant/src/tls\pkcs5.c **** 		size_t len[2];
 427              		.loc 2 553 3
 554:C:/Users/stapi/OneDrive/Desktop/GD32VW553/V1_MQTT_OK/GD32VW55X_Wifi_BLE_SDK/GD32VW55x_RELEASE_V1.0.2/MSDK/wpa_supplicant/src/tls\pkcs5.c **** 
 428              		.loc 2 554 3
 556:C:/Users/stapi/OneDrive/Desktop/GD32VW553/V1_MQTT_OK/GD32VW55X_Wifi_BLE_SDK/GD32VW55x_RELEASE_V1.0.2/MSDK/wpa_supplicant/src/tls\pkcs5.c **** 		len[0] = v;
 429              		.loc 2 556 3
 556:C:/Users/stapi/OneDrive/Desktop/GD32VW553/V1_MQTT_OK/GD32VW55X_Wifi_BLE_SDK/GD32VW55x_RELEASE_V1.0.2/MSDK/wpa_supplicant/src/tls\pkcs5.c **** 		len[0] = v;
 430              		.loc 2 556 11 is_stmt 0
 431 00d8 4ECE     		sw	s3,28(sp)
 557:C:/Users/stapi/OneDrive/Desktop/GD32VW553/V1_MQTT_OK/GD32VW55X_Wifi_BLE_SDK/GD32VW55x_RELEASE_V1.0.2/MSDK/wpa_supplicant/src/tls\pkcs5.c **** 		addr[1] = I;
 432              		.loc 2 557 3 is_stmt 1
 557:C:/Users/stapi/OneDrive/Desktop/GD32VW553/V1_MQTT_OK/GD32VW55X_Wifi_BLE_SDK/GD32VW55x_RELEASE_V1.0.2/MSDK/wpa_supplicant/src/tls\pkcs5.c **** 		addr[1] = I;
 433              		.loc 2 557 10 is_stmt 0
 434 00da 3ED2     		sw	a5,36(sp)
 558:C:/Users/stapi/OneDrive/Desktop/GD32VW553/V1_MQTT_OK/GD32VW55X_Wifi_BLE_SDK/GD32VW55x_RELEASE_V1.0.2/MSDK/wpa_supplicant/src/tls\pkcs5.c **** 		len[1] = S_len + P_len;
 435              		.loc 2 558 3 is_stmt 1
 558:C:/Users/stapi/OneDrive/Desktop/GD32VW553/V1_MQTT_OK/GD32VW55X_Wifi_BLE_SDK/GD32VW55x_RELEASE_V1.0.2/MSDK/wpa_supplicant/src/tls\pkcs5.c **** 		len[1] = S_len + P_len;
 436              		.loc 2 558 11 is_stmt 0
 437 00dc 4AD0     		sw	s2,32(sp)
 559:C:/Users/stapi/OneDrive/Desktop/GD32VW553/V1_MQTT_OK/GD32VW55X_Wifi_BLE_SDK/GD32VW55x_RELEASE_V1.0.2/MSDK/wpa_supplicant/src/tls\pkcs5.c **** 		if (sha1_vector(2, addr, len, hash) < 0)
 438              		.loc 2 559 3 is_stmt 1
 559:C:/Users/stapi/OneDrive/Desktop/GD32VW553/V1_MQTT_OK/GD32VW55X_Wifi_BLE_SDK/GD32VW55x_RELEASE_V1.0.2/MSDK/wpa_supplicant/src/tls\pkcs5.c **** 		if (sha1_vector(2, addr, len, hash) < 0)
 439              		.loc 2 559 10 is_stmt 0
 440 00de 5AD4     		sw	s6,40(sp)
 560:C:/Users/stapi/OneDrive/Desktop/GD32VW553/V1_MQTT_OK/GD32VW55X_Wifi_BLE_SDK/GD32VW55x_RELEASE_V1.0.2/MSDK/wpa_supplicant/src/tls\pkcs5.c **** 			goto done;
 441              		.loc 2 560 3 is_stmt 1
 560:C:/Users/stapi/OneDrive/Desktop/GD32VW553/V1_MQTT_OK/GD32VW55X_Wifi_BLE_SDK/GD32VW55x_RELEASE_V1.0.2/MSDK/wpa_supplicant/src/tls\pkcs5.c **** 			goto done;
 442              		.loc 2 560 7 is_stmt 0
 443 00e0 97000000 		call	sha1_vector
 443      E7800000 
 444              	.LVL51:
 560:C:/Users/stapi/OneDrive/Desktop/GD32VW553/V1_MQTT_OK/GD32VW55X_Wifi_BLE_SDK/GD32VW55x_RELEASE_V1.0.2/MSDK/wpa_supplicant/src/tls\pkcs5.c **** 			goto done;
 445              		.loc 2 560 6
 446 00e8 6349050C 		blt	a0,zero,.L44
 563:C:/Users/stapi/OneDrive/Desktop/GD32VW553/V1_MQTT_OK/GD32VW55X_Wifi_BLE_SDK/GD32VW55x_RELEASE_V1.0.2/MSDK/wpa_supplicant/src/tls\pkcs5.c **** 		len[0] = SHA1_MAC_LEN;
 447              		.loc 2 563 3 is_stmt 1
 564:C:/Users/stapi/OneDrive/Desktop/GD32VW553/V1_MQTT_OK/GD32VW55X_Wifi_BLE_SDK/GD32VW55x_RELEASE_V1.0.2/MSDK/wpa_supplicant/src/tls\pkcs5.c **** 		for (i = 1; i < iter; i++) {
 448              		.loc 2 564 10 is_stmt 0
 449 00ec D147     		li	a5,20
 563:C:/Users/stapi/OneDrive/Desktop/GD32VW553/V1_MQTT_OK/GD32VW55X_Wifi_BLE_SDK/GD32VW55x_RELEASE_V1.0.2/MSDK/wpa_supplicant/src/tls\pkcs5.c **** 		len[0] = SHA1_MAC_LEN;
 450              		.loc 2 563 11
 451 00ee 56CE     		sw	s5,28(sp)
 564:C:/Users/stapi/OneDrive/Desktop/GD32VW553/V1_MQTT_OK/GD32VW55X_Wifi_BLE_SDK/GD32VW55x_RELEASE_V1.0.2/MSDK/wpa_supplicant/src/tls\pkcs5.c **** 		for (i = 1; i < iter; i++) {
 452              		.loc 2 564 3 is_stmt 1
 564:C:/Users/stapi/OneDrive/Desktop/GD32VW553/V1_MQTT_OK/GD32VW55X_Wifi_BLE_SDK/GD32VW55x_RELEASE_V1.0.2/MSDK/wpa_supplicant/src/tls\pkcs5.c **** 		for (i = 1; i < iter; i++) {
 453              		.loc 2 564 10 is_stmt 0
 454 00f0 3ED2     		sw	a5,36(sp)
 565:C:/Users/stapi/OneDrive/Desktop/GD32VW553/V1_MQTT_OK/GD32VW55X_Wifi_BLE_SDK/GD32VW55x_RELEASE_V1.0.2/MSDK/wpa_supplicant/src/tls\pkcs5.c **** 			if (sha1_vector(1, addr, len, hash) < 0)
 455              		.loc 2 565 3 is_stmt 1
 456              	.LVL52:
 565:C:/Users/stapi/OneDrive/Desktop/GD32VW553/V1_MQTT_OK/GD32VW55X_Wifi_BLE_SDK/GD32VW55x_RELEASE_V1.0.2/MSDK/wpa_supplicant/src/tls\pkcs5.c **** 			if (sha1_vector(1, addr, len, hash) < 0)
 457              		.loc 2 565 10 is_stmt 0
 458 00f2 854C     		li	s9,1
 459              	.LVL53:
 460              	.L45:
 565:C:/Users/stapi/OneDrive/Desktop/GD32VW553/V1_MQTT_OK/GD32VW55X_Wifi_BLE_SDK/GD32VW55x_RELEASE_V1.0.2/MSDK/wpa_supplicant/src/tls\pkcs5.c **** 			if (sha1_vector(1, addr, len, hash) < 0)
 461              		.loc 2 565 15 is_stmt 1 discriminator 1
 565:C:/Users/stapi/OneDrive/Desktop/GD32VW553/V1_MQTT_OK/GD32VW55X_Wifi_BLE_SDK/GD32VW55x_RELEASE_V1.0.2/MSDK/wpa_supplicant/src/tls\pkcs5.c **** 			if (sha1_vector(1, addr, len, hash) < 0)
 462              		.loc 2 565 3 is_stmt 0 discriminator 1
 463 00f4 63ED7C03 		bltu	s9,s7,.L46
 570:C:/Users/stapi/OneDrive/Desktop/GD32VW553/V1_MQTT_OK/GD32VW55X_Wifi_BLE_SDK/GD32VW55x_RELEASE_V1.0.2/MSDK/wpa_supplicant/src/tls\pkcs5.c **** 			os_memcpy(out, hash, out_len);
 464              		.loc 2 570 3 is_stmt 1
 570:C:/Users/stapi/OneDrive/Desktop/GD32VW553/V1_MQTT_OK/GD32VW55X_Wifi_BLE_SDK/GD32VW55x_RELEASE_V1.0.2/MSDK/wpa_supplicant/src/tls\pkcs5.c **** 			os_memcpy(out, hash, out_len);
 465              		.loc 2 570 6 is_stmt 0
 466 00f8 D147     		li	a5,20
 467 00fa 63E69704 		bgtu	s1,a5,.L47
 571:C:/Users/stapi/OneDrive/Desktop/GD32VW553/V1_MQTT_OK/GD32VW55X_Wifi_BLE_SDK/GD32VW55x_RELEASE_V1.0.2/MSDK/wpa_supplicant/src/tls\pkcs5.c **** 			res = 0;
 468              		.loc 2 571 4 is_stmt 1
 469 00fe D685     		mv	a1,s5
 470 0100 2686     		mv	a2,s1
 471 0102 6A85     		mv	a0,s10
 472 0104 97000000 		call	os_memcpy
 472      E7800000 
 473              	.LVL54:
 572:C:/Users/stapi/OneDrive/Desktop/GD32VW553/V1_MQTT_OK/GD32VW55X_Wifi_BLE_SDK/GD32VW55x_RELEASE_V1.0.2/MSDK/wpa_supplicant/src/tls\pkcs5.c **** 			goto done;
 474              		.loc 2 572 4
 573:C:/Users/stapi/OneDrive/Desktop/GD32VW553/V1_MQTT_OK/GD32VW55X_Wifi_BLE_SDK/GD32VW55x_RELEASE_V1.0.2/MSDK/wpa_supplicant/src/tls\pkcs5.c **** 		}
 475              		.loc 2 573 4
 572:C:/Users/stapi/OneDrive/Desktop/GD32VW553/V1_MQTT_OK/GD32VW55X_Wifi_BLE_SDK/GD32VW55x_RELEASE_V1.0.2/MSDK/wpa_supplicant/src/tls\pkcs5.c **** 			goto done;
 476              		.loc 2 572 8 is_stmt 0
 477 010c 814A     		li	s5,0
 573:C:/Users/stapi/OneDrive/Desktop/GD32VW553/V1_MQTT_OK/GD32VW55X_Wifi_BLE_SDK/GD32VW55x_RELEASE_V1.0.2/MSDK/wpa_supplicant/src/tls\pkcs5.c **** 		}
 478              		.loc 2 573 4
 479 010e 15B7     		j	.L35
 480              	.LVL55:
 481              	.L42:
 482              	.LBE26:
 544:C:/Users/stapi/OneDrive/Desktop/GD32VW553/V1_MQTT_OK/GD32VW55X_Wifi_BLE_SDK/GD32VW55x_RELEASE_V1.0.2/MSDK/wpa_supplicant/src/tls\pkcs5.c **** 	}
 483              		.loc 2 544 4 is_stmt 1 discriminator 3
 544:C:/Users/stapi/OneDrive/Desktop/GD32VW553/V1_MQTT_OK/GD32VW55X_Wifi_BLE_SDK/GD32VW55x_RELEASE_V1.0.2/MSDK/wpa_supplicant/src/tls\pkcs5.c **** 	}
 484              		.loc 2 544 18 is_stmt 0 discriminator 3
 485 0110 B3F68702 		remu	a3,a5,s0
 544:C:/Users/stapi/OneDrive/Desktop/GD32VW553/V1_MQTT_OK/GD32VW55X_Wifi_BLE_SDK/GD32VW55x_RELEASE_V1.0.2/MSDK/wpa_supplicant/src/tls\pkcs5.c **** 	}
 486              		.loc 2 544 15 discriminator 3
 487 0114 D696     		add	a3,s5,a3
 488 0116 03C60600 		lbu	a2,0(a3)
 544:C:/Users/stapi/OneDrive/Desktop/GD32VW553/V1_MQTT_OK/GD32VW55X_Wifi_BLE_SDK/GD32VW55x_RELEASE_V1.0.2/MSDK/wpa_supplicant/src/tls\pkcs5.c **** 	}
 489              		.loc 2 544 11 discriminator 3
 490 011a B306F700 		add	a3,a4,a5
 543:C:/Users/stapi/OneDrive/Desktop/GD32VW553/V1_MQTT_OK/GD32VW55X_Wifi_BLE_SDK/GD32VW55x_RELEASE_V1.0.2/MSDK/wpa_supplicant/src/tls\pkcs5.c **** 			*pos++ = pw[i % pw_len];
 491              		.loc 2 543 27 discriminator 3
 492 011e 8507     		addi	a5,a5,1
 493              	.LVL56:
 544:C:/Users/stapi/OneDrive/Desktop/GD32VW553/V1_MQTT_OK/GD32VW55X_Wifi_BLE_SDK/GD32VW55x_RELEASE_V1.0.2/MSDK/wpa_supplicant/src/tls\pkcs5.c **** 	}
 494              		.loc 2 544 11 discriminator 3
 495 0120 2380C600 		sb	a2,0(a3)
 543:C:/Users/stapi/OneDrive/Desktop/GD32VW553/V1_MQTT_OK/GD32VW55X_Wifi_BLE_SDK/GD32VW55x_RELEASE_V1.0.2/MSDK/wpa_supplicant/src/tls\pkcs5.c **** 			*pos++ = pw[i % pw_len];
 496              		.loc 2 543 26 is_stmt 1 discriminator 3
 497              	.LVL57:
 498              	.L40:
 543:C:/Users/stapi/OneDrive/Desktop/GD32VW553/V1_MQTT_OK/GD32VW55X_Wifi_BLE_SDK/GD32VW55x_RELEASE_V1.0.2/MSDK/wpa_supplicant/src/tls\pkcs5.c **** 			*pos++ = pw[i % pw_len];
 499              		.loc 2 543 15 discriminator 1
 543:C:/Users/stapi/OneDrive/Desktop/GD32VW553/V1_MQTT_OK/GD32VW55X_Wifi_BLE_SDK/GD32VW55x_RELEASE_V1.0.2/MSDK/wpa_supplicant/src/tls\pkcs5.c **** 			*pos++ = pw[i % pw_len];
 500              		.loc 2 543 3 is_stmt 0 discriminator 1
 501 0124 E396A7FF 		bne	a5,s10,.L42
 502 0128 59B7     		j	.L43
 503              	.LVL58:
 504              	.L54:
 543:C:/Users/stapi/OneDrive/Desktop/GD32VW553/V1_MQTT_OK/GD32VW55X_Wifi_BLE_SDK/GD32VW55x_RELEASE_V1.0.2/MSDK/wpa_supplicant/src/tls\pkcs5.c **** 			*pos++ = pw[i % pw_len];
 505              		.loc 2 543 10
 506 012a 8147     		li	a5,0
 507 012c E5BF     		j	.L40
 508              	.LVL59:
 509              	.L46:
 510              	.LBB27:
 566:C:/Users/stapi/OneDrive/Desktop/GD32VW553/V1_MQTT_OK/GD32VW55X_Wifi_BLE_SDK/GD32VW55x_RELEASE_V1.0.2/MSDK/wpa_supplicant/src/tls\pkcs5.c **** 				goto done;
 511              		.loc 2 566 4 is_stmt 1
 566:C:/Users/stapi/OneDrive/Desktop/GD32VW553/V1_MQTT_OK/GD32VW55X_Wifi_BLE_SDK/GD32VW55x_RELEASE_V1.0.2/MSDK/wpa_supplicant/src/tls\pkcs5.c **** 				goto done;
 512              		.loc 2 566 8 is_stmt 0
 513 012e D686     		mv	a3,s5
 514 0130 5010     		addi	a2,sp,36
 515 0132 6C08     		addi	a1,sp,28
 516 0134 0545     		li	a0,1
 517 0136 97000000 		call	sha1_vector
 517      E7800000 
 518              	.LVL60:
 566:C:/Users/stapi/OneDrive/Desktop/GD32VW553/V1_MQTT_OK/GD32VW55X_Wifi_BLE_SDK/GD32VW55x_RELEASE_V1.0.2/MSDK/wpa_supplicant/src/tls\pkcs5.c **** 				goto done;
 519              		.loc 2 566 7
 520 013e 634E0506 		blt	a0,zero,.L44
 565:C:/Users/stapi/OneDrive/Desktop/GD32VW553/V1_MQTT_OK/GD32VW55X_Wifi_BLE_SDK/GD32VW55x_RELEASE_V1.0.2/MSDK/wpa_supplicant/src/tls\pkcs5.c **** 			if (sha1_vector(1, addr, len, hash) < 0)
 521              		.loc 2 565 25 is_stmt 1 discriminator 2
 565:C:/Users/stapi/OneDrive/Desktop/GD32VW553/V1_MQTT_OK/GD32VW55X_Wifi_BLE_SDK/GD32VW55x_RELEASE_V1.0.2/MSDK/wpa_supplicant/src/tls\pkcs5.c **** 			if (sha1_vector(1, addr, len, hash) < 0)
 522              		.loc 2 565 26 is_stmt 0 discriminator 2
 523 0142 850C     		addi	s9,s9,1
 524              	.LVL61:
 525 0144 45BF     		j	.L45
 526              	.L47:
 576:C:/Users/stapi/OneDrive/Desktop/GD32VW553/V1_MQTT_OK/GD32VW55X_Wifi_BLE_SDK/GD32VW55x_RELEASE_V1.0.2/MSDK/wpa_supplicant/src/tls\pkcs5.c **** 		out += u;
 527              		.loc 2 576 3 is_stmt 1
 528 0146 D685     		mv	a1,s5
 529 0148 5146     		li	a2,20
 530 014a 6A85     		mv	a0,s10
 531 014c 97000000 		call	os_memcpy
 531      E7800000 
 532              	.LVL62:
 577:C:/Users/stapi/OneDrive/Desktop/GD32VW553/V1_MQTT_OK/GD32VW55X_Wifi_BLE_SDK/GD32VW55x_RELEASE_V1.0.2/MSDK/wpa_supplicant/src/tls\pkcs5.c **** 		out_len -= u;
 533              		.loc 2 577 3
 578:C:/Users/stapi/OneDrive/Desktop/GD32VW553/V1_MQTT_OK/GD32VW55X_Wifi_BLE_SDK/GD32VW55x_RELEASE_V1.0.2/MSDK/wpa_supplicant/src/tls\pkcs5.c **** 
 534              		.loc 2 578 3
 578:C:/Users/stapi/OneDrive/Desktop/GD32VW553/V1_MQTT_OK/GD32VW55X_Wifi_BLE_SDK/GD32VW55x_RELEASE_V1.0.2/MSDK/wpa_supplicant/src/tls\pkcs5.c **** 
 535              		.loc 2 578 11 is_stmt 0
 536 0154 B114     		addi	s1,s1,-20
 537              	.LVL63:
 582:C:/Users/stapi/OneDrive/Desktop/GD32VW553/V1_MQTT_OK/GD32VW55X_Wifi_BLE_SDK/GD32VW55x_RELEASE_V1.0.2/MSDK/wpa_supplicant/src/tls\pkcs5.c **** 			B[i] = hash[i % u];
 538              		.loc 2 582 3 is_stmt 1
 582:C:/Users/stapi/OneDrive/Desktop/GD32VW553/V1_MQTT_OK/GD32VW55X_Wifi_BLE_SDK/GD32VW55x_RELEASE_V1.0.2/MSDK/wpa_supplicant/src/tls\pkcs5.c **** 			B[i] = hash[i % u];
 539              		.loc 2 582 15
 582:C:/Users/stapi/OneDrive/Desktop/GD32VW553/V1_MQTT_OK/GD32VW55X_Wifi_BLE_SDK/GD32VW55x_RELEASE_V1.0.2/MSDK/wpa_supplicant/src/tls\pkcs5.c **** 			B[i] = hash[i % u];
 540              		.loc 2 582 10 is_stmt 0
 541 0156 0147     		li	a4,0
 583:C:/Users/stapi/OneDrive/Desktop/GD32VW553/V1_MQTT_OK/GD32VW55X_Wifi_BLE_SDK/GD32VW55x_RELEASE_V1.0.2/MSDK/wpa_supplicant/src/tls\pkcs5.c **** 		inc_byte_array(B, v);
 542              		.loc 2 583 18
 543 0158 D145     		li	a1,20
 582:C:/Users/stapi/OneDrive/Desktop/GD32VW553/V1_MQTT_OK/GD32VW55X_Wifi_BLE_SDK/GD32VW55x_RELEASE_V1.0.2/MSDK/wpa_supplicant/src/tls\pkcs5.c **** 			B[i] = hash[i % u];
 544              		.loc 2 582 3
 545 015a 93060004 		li	a3,64
 546              	.LVL64:
 547              	.L49:
 583:C:/Users/stapi/OneDrive/Desktop/GD32VW553/V1_MQTT_OK/GD32VW55X_Wifi_BLE_SDK/GD32VW55x_RELEASE_V1.0.2/MSDK/wpa_supplicant/src/tls\pkcs5.c **** 		inc_byte_array(B, v);
 548              		.loc 2 583 4 is_stmt 1 discriminator 3
 583:C:/Users/stapi/OneDrive/Desktop/GD32VW553/V1_MQTT_OK/GD32VW55X_Wifi_BLE_SDK/GD32VW55x_RELEASE_V1.0.2/MSDK/wpa_supplicant/src/tls\pkcs5.c **** 		inc_byte_array(B, v);
 549              		.loc 2 583 18 is_stmt 0 discriminator 3
 550 015e B377B702 		remu	a5,a4,a1
 583:C:/Users/stapi/OneDrive/Desktop/GD32VW553/V1_MQTT_OK/GD32VW55X_Wifi_BLE_SDK/GD32VW55x_RELEASE_V1.0.2/MSDK/wpa_supplicant/src/tls\pkcs5.c **** 		inc_byte_array(B, v);
 551              		.loc 2 583 15 discriminator 3
 552 0162 9000     		addi	a2,sp,64
 553 0164 B297     		add	a5,a2,a5
 554 0166 03C6C7FE 		lbu	a2,-20(a5)
 583:C:/Users/stapi/OneDrive/Desktop/GD32VW553/V1_MQTT_OK/GD32VW55X_Wifi_BLE_SDK/GD32VW55x_RELEASE_V1.0.2/MSDK/wpa_supplicant/src/tls\pkcs5.c **** 		inc_byte_array(B, v);
 555              		.loc 2 583 9 discriminator 3
 556 016a B307E400 		add	a5,s0,a4
 582:C:/Users/stapi/OneDrive/Desktop/GD32VW553/V1_MQTT_OK/GD32VW55X_Wifi_BLE_SDK/GD32VW55x_RELEASE_V1.0.2/MSDK/wpa_supplicant/src/tls\pkcs5.c **** 			B[i] = hash[i % u];
 557              		.loc 2 582 23 discriminator 3
 558 016e 0507     		addi	a4,a4,1
 559              	.LVL65:
 583:C:/Users/stapi/OneDrive/Desktop/GD32VW553/V1_MQTT_OK/GD32VW55X_Wifi_BLE_SDK/GD32VW55x_RELEASE_V1.0.2/MSDK/wpa_supplicant/src/tls\pkcs5.c **** 		inc_byte_array(B, v);
 560              		.loc 2 583 9 discriminator 3
 561 0170 2380C700 		sb	a2,0(a5)
 582:C:/Users/stapi/OneDrive/Desktop/GD32VW553/V1_MQTT_OK/GD32VW55X_Wifi_BLE_SDK/GD32VW55x_RELEASE_V1.0.2/MSDK/wpa_supplicant/src/tls\pkcs5.c **** 			B[i] = hash[i % u];
 562              		.loc 2 582 22 is_stmt 1 discriminator 3
 563              	.LVL66:
 582:C:/Users/stapi/OneDrive/Desktop/GD32VW553/V1_MQTT_OK/GD32VW55X_Wifi_BLE_SDK/GD32VW55x_RELEASE_V1.0.2/MSDK/wpa_supplicant/src/tls\pkcs5.c **** 			B[i] = hash[i % u];
 564              		.loc 2 582 15 discriminator 3
 582:C:/Users/stapi/OneDrive/Desktop/GD32VW553/V1_MQTT_OK/GD32VW55X_Wifi_BLE_SDK/GD32VW55x_RELEASE_V1.0.2/MSDK/wpa_supplicant/src/tls\pkcs5.c **** 			B[i] = hash[i % u];
 565              		.loc 2 582 3 is_stmt 0 discriminator 3
 566 0174 E315D7FE 		bne	a4,a3,.L49
 584:C:/Users/stapi/OneDrive/Desktop/GD32VW553/V1_MQTT_OK/GD32VW55X_Wifi_BLE_SDK/GD32VW55x_RELEASE_V1.0.2/MSDK/wpa_supplicant/src/tls\pkcs5.c **** 		for (i = 0; i < S_len + P_len; i += v)
 567              		.loc 2 584 3 is_stmt 1
 568 0178 93050004 		li	a1,64
 569 017c 2285     		mv	a0,s0
 570 017e 97000000 		call	inc_byte_array
 570      E7800000 
 571              	.LVL67:
 585:C:/Users/stapi/OneDrive/Desktop/GD32VW553/V1_MQTT_OK/GD32VW55X_Wifi_BLE_SDK/GD32VW55x_RELEASE_V1.0.2/MSDK/wpa_supplicant/src/tls\pkcs5.c **** 			add_byte_array_mod(&I[i], B, v);
 572              		.loc 2 585 3
 585:C:/Users/stapi/OneDrive/Desktop/GD32VW553/V1_MQTT_OK/GD32VW55X_Wifi_BLE_SDK/GD32VW55x_RELEASE_V1.0.2/MSDK/wpa_supplicant/src/tls\pkcs5.c **** 			add_byte_array_mod(&I[i], B, v);
 573              		.loc 2 585 10 is_stmt 0
 574 0186 8147     		li	a5,0
 575              	.LVL68:
 576              	.L50:
 585:C:/Users/stapi/OneDrive/Desktop/GD32VW553/V1_MQTT_OK/GD32VW55X_Wifi_BLE_SDK/GD32VW55x_RELEASE_V1.0.2/MSDK/wpa_supplicant/src/tls\pkcs5.c **** 			add_byte_array_mod(&I[i], B, v);
 577              		.loc 2 585 15 is_stmt 1 discriminator 1
 585:C:/Users/stapi/OneDrive/Desktop/GD32VW553/V1_MQTT_OK/GD32VW55X_Wifi_BLE_SDK/GD32VW55x_RELEASE_V1.0.2/MSDK/wpa_supplicant/src/tls\pkcs5.c **** 			add_byte_array_mod(&I[i], B, v);
 578              		.loc 2 585 3 is_stmt 0 discriminator 1
 579 0188 E3F067F5 		bleu	s6,a5,.L41
 580 018c 3306F900 		add	a2,s2,a5
 581              	.LBB25:
 582              	.LBB24:
 503:C:/Users/stapi/OneDrive/Desktop/GD32VW553/V1_MQTT_OK/GD32VW55X_Wifi_BLE_SDK/GD32VW55x_RELEASE_V1.0.2/MSDK/wpa_supplicant/src/tls\pkcs5.c **** 
 583              		.loc 2 503 15
 584 0190 0147     		li	a4,0
 505:C:/Users/stapi/OneDrive/Desktop/GD32VW553/V1_MQTT_OK/GD32VW55X_Wifi_BLE_SDK/GD32VW55x_RELEASE_V1.0.2/MSDK/wpa_supplicant/src/tls\pkcs5.c **** 		carry = carry + a[i] + b[i];
 585              		.loc 2 505 9
 586 0192 9306F003 		li	a3,63
 587              	.L51:
 588              	.LVL69:
 506:C:/Users/stapi/OneDrive/Desktop/GD32VW553/V1_MQTT_OK/GD32VW55X_Wifi_BLE_SDK/GD32VW55x_RELEASE_V1.0.2/MSDK/wpa_supplicant/src/tls\pkcs5.c **** 		a[i] = carry & 0xff;
 589              		.loc 2 506 3 is_stmt 1
 506:C:/Users/stapi/OneDrive/Desktop/GD32VW553/V1_MQTT_OK/GD32VW55X_Wifi_BLE_SDK/GD32VW55x_RELEASE_V1.0.2/MSDK/wpa_supplicant/src/tls\pkcs5.c **** 		a[i] = carry & 0xff;
 590              		.loc 2 506 27 is_stmt 0
 591 0196 B305D400 		add	a1,s0,a3
 506:C:/Users/stapi/OneDrive/Desktop/GD32VW553/V1_MQTT_OK/GD32VW55X_Wifi_BLE_SDK/GD32VW55x_RELEASE_V1.0.2/MSDK/wpa_supplicant/src/tls\pkcs5.c **** 		a[i] = carry & 0xff;
 592              		.loc 2 506 20
 593 019a 0345F603 		lbu	a0,63(a2)
 506:C:/Users/stapi/OneDrive/Desktop/GD32VW553/V1_MQTT_OK/GD32VW55X_Wifi_BLE_SDK/GD32VW55x_RELEASE_V1.0.2/MSDK/wpa_supplicant/src/tls\pkcs5.c **** 		a[i] = carry & 0xff;
 594              		.loc 2 506 27
 595 019e 83C50500 		lbu	a1,0(a1)
 505:C:/Users/stapi/OneDrive/Desktop/GD32VW553/V1_MQTT_OK/GD32VW55X_Wifi_BLE_SDK/GD32VW55x_RELEASE_V1.0.2/MSDK/wpa_supplicant/src/tls\pkcs5.c **** 		carry = carry + a[i] + b[i];
 596              		.loc 2 505 30
 597 01a2 FD16     		addi	a3,a3,-1
 598              	.LVL70:
 505:C:/Users/stapi/OneDrive/Desktop/GD32VW553/V1_MQTT_OK/GD32VW55X_Wifi_BLE_SDK/GD32VW55x_RELEASE_V1.0.2/MSDK/wpa_supplicant/src/tls\pkcs5.c **** 		carry = carry + a[i] + b[i];
 599              		.loc 2 505 2
 600 01a4 7D16     		addi	a2,a2,-1
 506:C:/Users/stapi/OneDrive/Desktop/GD32VW553/V1_MQTT_OK/GD32VW55X_Wifi_BLE_SDK/GD32VW55x_RELEASE_V1.0.2/MSDK/wpa_supplicant/src/tls\pkcs5.c **** 		a[i] = carry & 0xff;
 601              		.loc 2 506 9
 602 01a6 AA95     		add	a1,a1,a0
 603 01a8 2E97     		add	a4,a1,a4
 604              	.LVL71:
 507:C:/Users/stapi/OneDrive/Desktop/GD32VW553/V1_MQTT_OK/GD32VW55X_Wifi_BLE_SDK/GD32VW55x_RELEASE_V1.0.2/MSDK/wpa_supplicant/src/tls\pkcs5.c **** 		carry >>= 8;
 605              		.loc 2 507 3 is_stmt 1
 507:C:/Users/stapi/OneDrive/Desktop/GD32VW553/V1_MQTT_OK/GD32VW55X_Wifi_BLE_SDK/GD32VW55x_RELEASE_V1.0.2/MSDK/wpa_supplicant/src/tls\pkcs5.c **** 		carry >>= 8;
 606              		.loc 2 507 8 is_stmt 0
 607 01aa 2300E604 		sb	a4,64(a2)
 508:C:/Users/stapi/OneDrive/Desktop/GD32VW553/V1_MQTT_OK/GD32VW55X_Wifi_BLE_SDK/GD32VW55x_RELEASE_V1.0.2/MSDK/wpa_supplicant/src/tls\pkcs5.c **** 	}
 608              		.loc 2 508 3 is_stmt 1
 508:C:/Users/stapi/OneDrive/Desktop/GD32VW553/V1_MQTT_OK/GD32VW55X_Wifi_BLE_SDK/GD32VW55x_RELEASE_V1.0.2/MSDK/wpa_supplicant/src/tls\pkcs5.c **** 	}
 609              		.loc 2 508 9 is_stmt 0
 610 01ae 2183     		srli	a4,a4,8
 611              	.LVL72:
 505:C:/Users/stapi/OneDrive/Desktop/GD32VW553/V1_MQTT_OK/GD32VW55X_Wifi_BLE_SDK/GD32VW55x_RELEASE_V1.0.2/MSDK/wpa_supplicant/src/tls\pkcs5.c **** 		carry = carry + a[i] + b[i];
 612              		.loc 2 505 29 is_stmt 1
 505:C:/Users/stapi/OneDrive/Desktop/GD32VW553/V1_MQTT_OK/GD32VW55X_Wifi_BLE_SDK/GD32VW55x_RELEASE_V1.0.2/MSDK/wpa_supplicant/src/tls\pkcs5.c **** 		carry = carry + a[i] + b[i];
 613              		.loc 2 505 20
 505:C:/Users/stapi/OneDrive/Desktop/GD32VW553/V1_MQTT_OK/GD32VW55X_Wifi_BLE_SDK/GD32VW55x_RELEASE_V1.0.2/MSDK/wpa_supplicant/src/tls\pkcs5.c **** 		carry = carry + a[i] + b[i];
 614              		.loc 2 505 2 is_stmt 0
 615 01b0 E39386FF 		bne	a3,s8,.L51
 616              	.LVL73:
 617              	.LBE24:
 618              	.LBE25:
 585:C:/Users/stapi/OneDrive/Desktop/GD32VW553/V1_MQTT_OK/GD32VW55X_Wifi_BLE_SDK/GD32VW55x_RELEASE_V1.0.2/MSDK/wpa_supplicant/src/tls\pkcs5.c **** 			add_byte_array_mod(&I[i], B, v);
 619              		.loc 2 585 34 is_stmt 1 discriminator 3
 585:C:/Users/stapi/OneDrive/Desktop/GD32VW553/V1_MQTT_OK/GD32VW55X_Wifi_BLE_SDK/GD32VW55x_RELEASE_V1.0.2/MSDK/wpa_supplicant/src/tls\pkcs5.c **** 			add_byte_array_mod(&I[i], B, v);
 620              		.loc 2 585 36 is_stmt 0 discriminator 3
 621 01b4 93870704 		addi	a5,a5,64
 622              	.LVL74:
 623 01b8 C1BF     		j	.L50
 624              	.LVL75:
 625              	.L44:
 626              	.LBE27:
 519:C:/Users/stapi/OneDrive/Desktop/GD32VW553/V1_MQTT_OK/GD32VW55X_Wifi_BLE_SDK/GD32VW55x_RELEASE_V1.0.2/MSDK/wpa_supplicant/src/tls\pkcs5.c **** 
 627              		.loc 2 519 6
 628 01ba FD5A     		li	s5,-1
 629 01bc 9DBD     		j	.L35
 630              		.cfi_endproc
 631              	.LFE457:
 633              		.section	.rodata.pkcs5_decrypt.str1.4,"aMS",@progbits,1
 634              		.align	2
 635              	.LC0:
 636 0000 504B4353 		.string	"PKCS #5: Failed to parse OID (algorithm)"
 636      2023353A 
 636      20466169 
 636      6C656420 
 636      746F2070 
 637 0029 000000   		.align	2
 638              	.LC1:
 639 002c 504B4353 		.string	"PKCS #5: encryption algorithm %s"
 639      2023353A 
 639      20656E63 
 639      72797074 
 639      696F6E20 
 640 004d 000000   		.align	2
 641              	.LC2:
 642 0050 504B4353 		.string	"PKCS #5: unsupported encryption algorithm %s"
 642      2023353A 
 642      20756E73 
 642      7570706F 
 642      72746564 
 643 007d 000000   		.align	2
 644              	.LC3:
 645 0080 504B4353 		.string	"PKCS #5: Expected SEQUENCE (PBES2-params)"
 645      2023353A 
 645      20457870 
 645      65637465 
 645      64205345 
 646 00aa 0000     		.align	2
 647              	.LC4:
 648 00ac 504B4353 		.string	"PKCS #5: Expected SEQUENCE (keyDerivationFunc)"
 648      2023353A 
 648      20457870 
 648      65637465 
 648      64205345 
 649 00db 00       		.align	2
 650              	.LC5:
 651 00dc 504B4353 		.string	"PKCS #5: Failed to parse OID (keyDerivationFunc algorithm)"
 651      2023353A 
 651      20466169 
 651      6C656420 
 651      746F2070 
 652 0117 00       		.align	2
 653              	.LC6:
 654 0118 504B4353 		.string	"PKCS #5: PBES2 keyDerivationFunc algorithm %s"
 654      2023353A 
 654      20504245 
 654      5332206B 
 654      65794465 
 655 0146 0000     		.align	2
 656              	.LC7:
 657 0148 504B4353 		.string	"PKCS #5: Unsupported PBES2 keyDerivationFunc algorithm %s"
 657      2023353A 
 657      20556E73 
 657      7570706F 
 657      72746564 
 658 0182 0000     		.align	2
 659              	.LC8:
 660 0184 504B4353 		.string	"PKCS #5: Expected SEQUENCE (PBKDF2-params)"
 660      2023353A 
 660      20457870 
 660      65637465 
 660      64205345 
 661 01af 00       		.align	2
 662              	.LC9:
 663 01b0 504B4353 		.string	"PKCS #5: Expected OCTET STRING (salt.specified)"
 663      2023353A 
 663      20457870 
 663      65637465 
 663      64204F43 
 664              		.align	2
 665              	.LC10:
 666 01e0 504B4353 		.string	"PKCS #5: salt"
 666      2023353A 
 666      2073616C 
 666      7400
 667 01ee 0000     		.align	2
 668              	.LC11:
 669 01f0 504B4353 		.string	"PKCS #5: Expected INTEGER"
 669      2023353A 
 669      20457870 
 669      65637465 
 669      6420494E 
 670 020a 0000     		.align	2
 671              	.LC12:
 672 020c 504B4353 		.string	"PKCS #5: Unsupported INTEGER value (iterationCount)"
 672      2023353A 
 672      20556E73 
 672      7570706F 
 672      72746564 
 673              		.align	2
 674              	.LC13:
 675 0240 504B4353 		.string	"PKCS #5: iterationCount=0x%x"
 675      2023353A 
 675      20697465 
 675      72617469 
 675      6F6E436F 
 676 025d 000000   		.align	2
 677              	.LC14:
 678 0260 504B4353 		.string	"PKCS #5: Unsupported iterationCount=0x%x"
 678      2023353A 
 678      20556E73 
 678      7570706F 
 678      72746564 
 679 0289 000000   		.align	2
 680              	.LC15:
 681 028c 504B4353 		.string	"PKCS #5: Expected SEQUENCE (digestAlgorithm)"
 681      2023353A 
 681      20457870 
 681      65637465 
 681      64205345 
 682 02b9 000000   		.align	2
 683              	.LC16:
 684 02bc 504B4353 		.string	"PKCS #5: Failed to parse OID (digest algorithm)"
 684      2023353A 
 684      20466169 
 684      6C656420 
 684      746F2070 
 685              		.align	2
 686              	.LC17:
 687 02ec 504B4353 		.string	"PKCS #5: PBES2 digest algorithm %s"
 687      2023353A 
 687      20504245 
 687      53322064 
 687      69676573 
 688 030f 00       		.align	2
 689              	.LC18:
 690 0310 504B4353 		.string	"PKCS #5: Unsupported PBES2 digest algorithm %s"
 690      2023353A 
 690      20556E73 
 690      7570706F 
 690      72746564 
 691 033f 00       		.align	2
 692              	.LC19:
 693 0340 504B4353 		.string	"PKCS #5: Expected SEQUENCE (encryptionScheme)"
 693      2023353A 
 693      20457870 
 693      65637465 
 693      64205345 
 694 036e 0000     		.align	2
 695              	.LC20:
 696 0370 504B4353 		.string	"PKCS #5: Failed to parse OID (encryptionScheme algorithm)"
 696      2023353A 
 696      20466169 
 696      6C656420 
 696      746F2070 
 697 03aa 0000     		.align	2
 698              	.LC21:
 699 03ac 504B4353 		.string	"PKCS #5: PBES2 encryptionScheme algorithm %s"
 699      2023353A 
 699      20504245 
 699      53322065 
 699      6E637279 
 700 03d9 000000   		.align	2
 701              	.LC22:
 702 03dc 504B4353 		.string	"PKCS #5: Unsupported PBES2 encryptionScheme algorithm %s"
 702      2023353A 
 702      20556E73 
 702      7570706F 
 702      72746564 
 703 0415 000000   		.align	2
 704              	.LC23:
 705 0418 504B4353 		.string	"PKCS #5: Expected OCTET STRING (SIZE(8)) (IV)"
 705      2023353A 
 705      20457870 
 705      65637465 
 705      64204F43 
 706 0446 0000     		.align	2
 707              	.LC24:
 708 0448 504B4353 		.string	"PKCS #5: IV"
 708      2023353A 
 708      20495600 
 709              		.align	2
 710              	.LC25:
 711 0454 504B4353 		.string	"PKCS #5: Expected SEQUENCE (PBEParameter)"
 711      2023353A 
 711      20457870 
 711      65637465 
 711      64205345 
 712 047e 0000     		.align	2
 713              	.LC26:
 714 0480 504B4353 		.string	"PKCS #5: Expected OCTETSTRING SIZE(8) (salt)"
 714      2023353A 
 714      20457870 
 714      65637465 
 714      64204F43 
 715 04ad 000000   		.align	2
 716              	.LC27:
 717 04b0 504B4353 		.string	"PKCS #5: Unsupported INTEGER value  (iterationCount)"
 717      2023353A 
 717      20556E73 
 717      7570706F 
 717      72746564 
 718 04e5 000000   		.align	2
 719              	.LC28:
 720 04e8 504B4353 		.string	"PKCS #5: Unsupported parameters"
 720      2023353A 
 720      20556E73 
 720      7570706F 
 720      72746564 
 721              		.align	2
 722              	.LC29:
 723 0508 504B4353 		.string	"PKCS #5: PBES2 password for PBKDF2"
 723      2023353A 
 723      20504245 
 723      53322070 
 723      61737377 
 724 052b 00       		.align	2
 725              	.LC30:
 726 052c 504B4353 		.string	"PKCS #5: PBES2 salt for PBKDF2"
 726      2023353A 
 726      20504245 
 726      53322073 
 726      616C7420 
 727 054b 00       		.align	2
 728              	.LC31:
 729 054c 504B4353 		.string	"PKCS #5: PBES2 PBKDF2 iterations: %u"
 729      2023353A 
 729      20504245 
 729      53322050 
 729      424B4446 
 730 0571 000000   		.align	2
 731              	.LC32:
 732 0574 504B4353 		.string	"PKCS #5: DES EDE3 key"
 732      2023353A 
 732      20444553 
 732      20454445 
 732      33206B65 
 733 058a 0000     		.align	2
 734              	.LC33:
 735 058c 504B4353 		.string	"PKCS #5: DES IV"
 735      2023353A 
 735      20444553 
 735      20495600 
 736              		.align	2
 737              	.LC34:
 738 059c 504B4353 		.string	"PKCS #12: DES key"
 738      20233132 
 738      3A204445 
 738      53206B65 
 738      7900
 739 05ae 0000     		.align	2
 740              	.LC35:
 741 05b0 504B4353 		.string	"PKCS #12: DES IV"
 741      20233132 
 741      3A204445 
 741      53204956 
 741      00
 742 05c1 000000   		.align	2
 743              	.LC36:
 744 05c4 504B4353 		.string	"PKCS #5: DES key"
 744      2023353A 
 744      20444553 
 744      206B6579 
 744      00
 745 05d5 000000   		.align	2
 746              	.LC37:
 747 05d8 504B4353 		.string	"PKCS #5: Failed to initialize crypto"
 747      2023353A 
 747      20466169 
 747      6C656420 
 747      746F2069 
 748 05fd 000000   		.align	2
 749              	.LC38:
 750 0600 504B4353 		.string	"PKCS #5: invalid length of ciphertext %d"
 750      2023353A 
 750      20696E76 
 750      616C6964 
 750      206C656E 
 751 0629 000000   		.align	2
 752              	.LC39:
 753 062c 504B4353 		.string	"PKCS #5: Failed to decrypt EB"
 753      2023353A 
 753      20466169 
 753      6C656420 
 753      746F2064 
 754 064a 0000     		.align	2
 755              	.LC40:
 756 064c 504B4353 		.string	"PKCS #5: Invalid PS octet 0x%x"
 756      2023353A 
 756      20496E76 
 756      616C6964 
 756      20505320 
 757 066b 00       		.align	2
 758              	.LC41:
 759 066c 504B4353 		.string	"PKCS #5: Invalid PS"
 759      2023353A 
 759      20496E76 
 759      616C6964 
 759      20505300 
 760              		.align	2
 761              	.LC42:
 762 0680 504B4353 		.string	"PKCS #5: message M (encrypted key)"
 762      2023353A 
 762      206D6573 
 762      73616765 
 762      204D2028 
 763              		.section	.text.pkcs5_decrypt,"ax",@progbits
 764              		.align	1
 765              		.globl	pkcs5_decrypt
 767              	pkcs5_decrypt:
 768              	.LFB460:
 595:C:/Users/stapi/OneDrive/Desktop/GD32VW553/V1_MQTT_OK/GD32VW55X_Wifi_BLE_SDK/GD32VW55x_RELEASE_V1.0.2/MSDK/wpa_supplicant/src/tls\pkcs5.c **** 
 596:C:/Users/stapi/OneDrive/Desktop/GD32VW553/V1_MQTT_OK/GD32VW55X_Wifi_BLE_SDK/GD32VW55x_RELEASE_V1.0.2/MSDK/wpa_supplicant/src/tls\pkcs5.c **** 
 597:C:/Users/stapi/OneDrive/Desktop/GD32VW553/V1_MQTT_OK/GD32VW55X_Wifi_BLE_SDK/GD32VW55x_RELEASE_V1.0.2/MSDK/wpa_supplicant/src/tls\pkcs5.c **** #define PKCS12_ID_ENC 1
 598:C:/Users/stapi/OneDrive/Desktop/GD32VW553/V1_MQTT_OK/GD32VW55X_Wifi_BLE_SDK/GD32VW55x_RELEASE_V1.0.2/MSDK/wpa_supplicant/src/tls\pkcs5.c **** #define PKCS12_ID_IV 2
 599:C:/Users/stapi/OneDrive/Desktop/GD32VW553/V1_MQTT_OK/GD32VW55X_Wifi_BLE_SDK/GD32VW55x_RELEASE_V1.0.2/MSDK/wpa_supplicant/src/tls\pkcs5.c **** #define PKCS12_ID_MAC 3
 600:C:/Users/stapi/OneDrive/Desktop/GD32VW553/V1_MQTT_OK/GD32VW55X_Wifi_BLE_SDK/GD32VW55x_RELEASE_V1.0.2/MSDK/wpa_supplicant/src/tls\pkcs5.c **** 
 601:C:/Users/stapi/OneDrive/Desktop/GD32VW553/V1_MQTT_OK/GD32VW55X_Wifi_BLE_SDK/GD32VW55x_RELEASE_V1.0.2/MSDK/wpa_supplicant/src/tls\pkcs5.c **** static struct crypto_cipher *
 602:C:/Users/stapi/OneDrive/Desktop/GD32VW553/V1_MQTT_OK/GD32VW55X_Wifi_BLE_SDK/GD32VW55x_RELEASE_V1.0.2/MSDK/wpa_supplicant/src/tls\pkcs5.c **** pkcs12_crypto_init_sha1(struct pkcs5_params *params, const char *passwd)
 603:C:/Users/stapi/OneDrive/Desktop/GD32VW553/V1_MQTT_OK/GD32VW55X_Wifi_BLE_SDK/GD32VW55x_RELEASE_V1.0.2/MSDK/wpa_supplicant/src/tls\pkcs5.c **** {
 604:C:/Users/stapi/OneDrive/Desktop/GD32VW553/V1_MQTT_OK/GD32VW55X_Wifi_BLE_SDK/GD32VW55x_RELEASE_V1.0.2/MSDK/wpa_supplicant/src/tls\pkcs5.c **** 	unsigned int i;
 605:C:/Users/stapi/OneDrive/Desktop/GD32VW553/V1_MQTT_OK/GD32VW55X_Wifi_BLE_SDK/GD32VW55x_RELEASE_V1.0.2/MSDK/wpa_supplicant/src/tls\pkcs5.c **** 	u8 *pw;
 606:C:/Users/stapi/OneDrive/Desktop/GD32VW553/V1_MQTT_OK/GD32VW55X_Wifi_BLE_SDK/GD32VW55x_RELEASE_V1.0.2/MSDK/wpa_supplicant/src/tls\pkcs5.c **** 	size_t pw_len;
 607:C:/Users/stapi/OneDrive/Desktop/GD32VW553/V1_MQTT_OK/GD32VW55X_Wifi_BLE_SDK/GD32VW55x_RELEASE_V1.0.2/MSDK/wpa_supplicant/src/tls\pkcs5.c **** 	u8 key[24];
 608:C:/Users/stapi/OneDrive/Desktop/GD32VW553/V1_MQTT_OK/GD32VW55X_Wifi_BLE_SDK/GD32VW55x_RELEASE_V1.0.2/MSDK/wpa_supplicant/src/tls\pkcs5.c **** 	u8 iv[8];
 609:C:/Users/stapi/OneDrive/Desktop/GD32VW553/V1_MQTT_OK/GD32VW55X_Wifi_BLE_SDK/GD32VW55x_RELEASE_V1.0.2/MSDK/wpa_supplicant/src/tls\pkcs5.c **** 
 610:C:/Users/stapi/OneDrive/Desktop/GD32VW553/V1_MQTT_OK/GD32VW55X_Wifi_BLE_SDK/GD32VW55x_RELEASE_V1.0.2/MSDK/wpa_supplicant/src/tls\pkcs5.c **** 	if (params->alg != PKCS5_ALG_SHA1_3DES_CBC)
 611:C:/Users/stapi/OneDrive/Desktop/GD32VW553/V1_MQTT_OK/GD32VW55X_Wifi_BLE_SDK/GD32VW55x_RELEASE_V1.0.2/MSDK/wpa_supplicant/src/tls\pkcs5.c **** 		return NULL;
 612:C:/Users/stapi/OneDrive/Desktop/GD32VW553/V1_MQTT_OK/GD32VW55X_Wifi_BLE_SDK/GD32VW55x_RELEASE_V1.0.2/MSDK/wpa_supplicant/src/tls\pkcs5.c **** 
 613:C:/Users/stapi/OneDrive/Desktop/GD32VW553/V1_MQTT_OK/GD32VW55X_Wifi_BLE_SDK/GD32VW55x_RELEASE_V1.0.2/MSDK/wpa_supplicant/src/tls\pkcs5.c **** 	pw_len = passwd ? os_strlen(passwd) : 0;
 614:C:/Users/stapi/OneDrive/Desktop/GD32VW553/V1_MQTT_OK/GD32VW55X_Wifi_BLE_SDK/GD32VW55x_RELEASE_V1.0.2/MSDK/wpa_supplicant/src/tls\pkcs5.c **** 	pw = os_malloc(2 * (pw_len + 1));
 615:C:/Users/stapi/OneDrive/Desktop/GD32VW553/V1_MQTT_OK/GD32VW55X_Wifi_BLE_SDK/GD32VW55x_RELEASE_V1.0.2/MSDK/wpa_supplicant/src/tls\pkcs5.c **** 	if (!pw)
 616:C:/Users/stapi/OneDrive/Desktop/GD32VW553/V1_MQTT_OK/GD32VW55X_Wifi_BLE_SDK/GD32VW55x_RELEASE_V1.0.2/MSDK/wpa_supplicant/src/tls\pkcs5.c **** 		return NULL;
 617:C:/Users/stapi/OneDrive/Desktop/GD32VW553/V1_MQTT_OK/GD32VW55X_Wifi_BLE_SDK/GD32VW55x_RELEASE_V1.0.2/MSDK/wpa_supplicant/src/tls\pkcs5.c **** 	if (pw_len) {
 618:C:/Users/stapi/OneDrive/Desktop/GD32VW553/V1_MQTT_OK/GD32VW55X_Wifi_BLE_SDK/GD32VW55x_RELEASE_V1.0.2/MSDK/wpa_supplicant/src/tls\pkcs5.c **** 		for (i = 0; i <= pw_len; i++)
 619:C:/Users/stapi/OneDrive/Desktop/GD32VW553/V1_MQTT_OK/GD32VW55X_Wifi_BLE_SDK/GD32VW55x_RELEASE_V1.0.2/MSDK/wpa_supplicant/src/tls\pkcs5.c **** 			WPA_PUT_BE16(&pw[2 * i], passwd[i]);
 620:C:/Users/stapi/OneDrive/Desktop/GD32VW553/V1_MQTT_OK/GD32VW55X_Wifi_BLE_SDK/GD32VW55x_RELEASE_V1.0.2/MSDK/wpa_supplicant/src/tls\pkcs5.c **** 		pw_len = 2 * (pw_len + 1);
 621:C:/Users/stapi/OneDrive/Desktop/GD32VW553/V1_MQTT_OK/GD32VW55X_Wifi_BLE_SDK/GD32VW55x_RELEASE_V1.0.2/MSDK/wpa_supplicant/src/tls\pkcs5.c **** 	}
 622:C:/Users/stapi/OneDrive/Desktop/GD32VW553/V1_MQTT_OK/GD32VW55X_Wifi_BLE_SDK/GD32VW55x_RELEASE_V1.0.2/MSDK/wpa_supplicant/src/tls\pkcs5.c **** 
 623:C:/Users/stapi/OneDrive/Desktop/GD32VW553/V1_MQTT_OK/GD32VW55X_Wifi_BLE_SDK/GD32VW55x_RELEASE_V1.0.2/MSDK/wpa_supplicant/src/tls\pkcs5.c **** 	if (pkcs12_key_gen(pw, pw_len, params->salt, params->salt_len,
 624:C:/Users/stapi/OneDrive/Desktop/GD32VW553/V1_MQTT_OK/GD32VW55X_Wifi_BLE_SDK/GD32VW55x_RELEASE_V1.0.2/MSDK/wpa_supplicant/src/tls\pkcs5.c **** 			   PKCS12_ID_ENC, params->iter_count,
 625:C:/Users/stapi/OneDrive/Desktop/GD32VW553/V1_MQTT_OK/GD32VW55X_Wifi_BLE_SDK/GD32VW55x_RELEASE_V1.0.2/MSDK/wpa_supplicant/src/tls\pkcs5.c **** 			   sizeof(key), key) < 0 ||
 626:C:/Users/stapi/OneDrive/Desktop/GD32VW553/V1_MQTT_OK/GD32VW55X_Wifi_BLE_SDK/GD32VW55x_RELEASE_V1.0.2/MSDK/wpa_supplicant/src/tls\pkcs5.c **** 	    pkcs12_key_gen(pw, pw_len, params->salt, params->salt_len,
 627:C:/Users/stapi/OneDrive/Desktop/GD32VW553/V1_MQTT_OK/GD32VW55X_Wifi_BLE_SDK/GD32VW55x_RELEASE_V1.0.2/MSDK/wpa_supplicant/src/tls\pkcs5.c **** 			   PKCS12_ID_IV, params->iter_count,
 628:C:/Users/stapi/OneDrive/Desktop/GD32VW553/V1_MQTT_OK/GD32VW55X_Wifi_BLE_SDK/GD32VW55x_RELEASE_V1.0.2/MSDK/wpa_supplicant/src/tls\pkcs5.c **** 			   sizeof(iv), iv) < 0) {
 629:C:/Users/stapi/OneDrive/Desktop/GD32VW553/V1_MQTT_OK/GD32VW55X_Wifi_BLE_SDK/GD32VW55x_RELEASE_V1.0.2/MSDK/wpa_supplicant/src/tls\pkcs5.c **** 		os_free(pw);
 630:C:/Users/stapi/OneDrive/Desktop/GD32VW553/V1_MQTT_OK/GD32VW55X_Wifi_BLE_SDK/GD32VW55x_RELEASE_V1.0.2/MSDK/wpa_supplicant/src/tls\pkcs5.c **** 		return NULL;
 631:C:/Users/stapi/OneDrive/Desktop/GD32VW553/V1_MQTT_OK/GD32VW55X_Wifi_BLE_SDK/GD32VW55x_RELEASE_V1.0.2/MSDK/wpa_supplicant/src/tls\pkcs5.c **** 	}
 632:C:/Users/stapi/OneDrive/Desktop/GD32VW553/V1_MQTT_OK/GD32VW55X_Wifi_BLE_SDK/GD32VW55x_RELEASE_V1.0.2/MSDK/wpa_supplicant/src/tls\pkcs5.c **** 
 633:C:/Users/stapi/OneDrive/Desktop/GD32VW553/V1_MQTT_OK/GD32VW55X_Wifi_BLE_SDK/GD32VW55x_RELEASE_V1.0.2/MSDK/wpa_supplicant/src/tls\pkcs5.c **** 	os_free(pw);
 634:C:/Users/stapi/OneDrive/Desktop/GD32VW553/V1_MQTT_OK/GD32VW55X_Wifi_BLE_SDK/GD32VW55x_RELEASE_V1.0.2/MSDK/wpa_supplicant/src/tls\pkcs5.c **** 
 635:C:/Users/stapi/OneDrive/Desktop/GD32VW553/V1_MQTT_OK/GD32VW55X_Wifi_BLE_SDK/GD32VW55x_RELEASE_V1.0.2/MSDK/wpa_supplicant/src/tls\pkcs5.c **** 	wpa_hexdump_key(MSG_DEBUG, "PKCS #12: DES key", key, sizeof(key));
 636:C:/Users/stapi/OneDrive/Desktop/GD32VW553/V1_MQTT_OK/GD32VW55X_Wifi_BLE_SDK/GD32VW55x_RELEASE_V1.0.2/MSDK/wpa_supplicant/src/tls\pkcs5.c **** 	wpa_hexdump_key(MSG_DEBUG, "PKCS #12: DES IV", iv, sizeof(iv));
 637:C:/Users/stapi/OneDrive/Desktop/GD32VW553/V1_MQTT_OK/GD32VW55X_Wifi_BLE_SDK/GD32VW55x_RELEASE_V1.0.2/MSDK/wpa_supplicant/src/tls\pkcs5.c **** 
 638:C:/Users/stapi/OneDrive/Desktop/GD32VW553/V1_MQTT_OK/GD32VW55X_Wifi_BLE_SDK/GD32VW55x_RELEASE_V1.0.2/MSDK/wpa_supplicant/src/tls\pkcs5.c **** 	return crypto_cipher_init(CRYPTO_CIPHER_ALG_3DES, iv, key, sizeof(key));
 639:C:/Users/stapi/OneDrive/Desktop/GD32VW553/V1_MQTT_OK/GD32VW55X_Wifi_BLE_SDK/GD32VW55x_RELEASE_V1.0.2/MSDK/wpa_supplicant/src/tls\pkcs5.c **** }
 640:C:/Users/stapi/OneDrive/Desktop/GD32VW553/V1_MQTT_OK/GD32VW55X_Wifi_BLE_SDK/GD32VW55x_RELEASE_V1.0.2/MSDK/wpa_supplicant/src/tls\pkcs5.c **** 
 641:C:/Users/stapi/OneDrive/Desktop/GD32VW553/V1_MQTT_OK/GD32VW55X_Wifi_BLE_SDK/GD32VW55x_RELEASE_V1.0.2/MSDK/wpa_supplicant/src/tls\pkcs5.c **** 
 642:C:/Users/stapi/OneDrive/Desktop/GD32VW553/V1_MQTT_OK/GD32VW55X_Wifi_BLE_SDK/GD32VW55x_RELEASE_V1.0.2/MSDK/wpa_supplicant/src/tls\pkcs5.c **** static struct crypto_cipher * pkcs5_crypto_init(struct pkcs5_params *params,
 643:C:/Users/stapi/OneDrive/Desktop/GD32VW553/V1_MQTT_OK/GD32VW55X_Wifi_BLE_SDK/GD32VW55x_RELEASE_V1.0.2/MSDK/wpa_supplicant/src/tls\pkcs5.c **** 						const char *passwd)
 644:C:/Users/stapi/OneDrive/Desktop/GD32VW553/V1_MQTT_OK/GD32VW55X_Wifi_BLE_SDK/GD32VW55x_RELEASE_V1.0.2/MSDK/wpa_supplicant/src/tls\pkcs5.c **** {
 645:C:/Users/stapi/OneDrive/Desktop/GD32VW553/V1_MQTT_OK/GD32VW55X_Wifi_BLE_SDK/GD32VW55x_RELEASE_V1.0.2/MSDK/wpa_supplicant/src/tls\pkcs5.c **** 	unsigned int i;
 646:C:/Users/stapi/OneDrive/Desktop/GD32VW553/V1_MQTT_OK/GD32VW55X_Wifi_BLE_SDK/GD32VW55x_RELEASE_V1.0.2/MSDK/wpa_supplicant/src/tls\pkcs5.c **** 	u8 hash[MD5_MAC_LEN];
 647:C:/Users/stapi/OneDrive/Desktop/GD32VW553/V1_MQTT_OK/GD32VW55X_Wifi_BLE_SDK/GD32VW55x_RELEASE_V1.0.2/MSDK/wpa_supplicant/src/tls\pkcs5.c **** 	const u8 *addr[2];
 648:C:/Users/stapi/OneDrive/Desktop/GD32VW553/V1_MQTT_OK/GD32VW55X_Wifi_BLE_SDK/GD32VW55x_RELEASE_V1.0.2/MSDK/wpa_supplicant/src/tls\pkcs5.c **** 	size_t len[2];
 649:C:/Users/stapi/OneDrive/Desktop/GD32VW553/V1_MQTT_OK/GD32VW55X_Wifi_BLE_SDK/GD32VW55x_RELEASE_V1.0.2/MSDK/wpa_supplicant/src/tls\pkcs5.c **** 
 650:C:/Users/stapi/OneDrive/Desktop/GD32VW553/V1_MQTT_OK/GD32VW55X_Wifi_BLE_SDK/GD32VW55x_RELEASE_V1.0.2/MSDK/wpa_supplicant/src/tls\pkcs5.c **** 	if (params->alg == PKCS5_ALG_PBES2)
 651:C:/Users/stapi/OneDrive/Desktop/GD32VW553/V1_MQTT_OK/GD32VW55X_Wifi_BLE_SDK/GD32VW55x_RELEASE_V1.0.2/MSDK/wpa_supplicant/src/tls\pkcs5.c **** 		return pkcs5_crypto_init_pbes2(params, passwd);
 652:C:/Users/stapi/OneDrive/Desktop/GD32VW553/V1_MQTT_OK/GD32VW55X_Wifi_BLE_SDK/GD32VW55x_RELEASE_V1.0.2/MSDK/wpa_supplicant/src/tls\pkcs5.c **** 
 653:C:/Users/stapi/OneDrive/Desktop/GD32VW553/V1_MQTT_OK/GD32VW55X_Wifi_BLE_SDK/GD32VW55x_RELEASE_V1.0.2/MSDK/wpa_supplicant/src/tls\pkcs5.c **** 	if (params->alg == PKCS5_ALG_SHA1_3DES_CBC)
 654:C:/Users/stapi/OneDrive/Desktop/GD32VW553/V1_MQTT_OK/GD32VW55X_Wifi_BLE_SDK/GD32VW55x_RELEASE_V1.0.2/MSDK/wpa_supplicant/src/tls\pkcs5.c **** 		return pkcs12_crypto_init_sha1(params, passwd);
 655:C:/Users/stapi/OneDrive/Desktop/GD32VW553/V1_MQTT_OK/GD32VW55X_Wifi_BLE_SDK/GD32VW55x_RELEASE_V1.0.2/MSDK/wpa_supplicant/src/tls\pkcs5.c **** 
 656:C:/Users/stapi/OneDrive/Desktop/GD32VW553/V1_MQTT_OK/GD32VW55X_Wifi_BLE_SDK/GD32VW55x_RELEASE_V1.0.2/MSDK/wpa_supplicant/src/tls\pkcs5.c **** 	if (params->alg != PKCS5_ALG_MD5_DES_CBC)
 657:C:/Users/stapi/OneDrive/Desktop/GD32VW553/V1_MQTT_OK/GD32VW55X_Wifi_BLE_SDK/GD32VW55x_RELEASE_V1.0.2/MSDK/wpa_supplicant/src/tls\pkcs5.c **** 		return NULL;
 658:C:/Users/stapi/OneDrive/Desktop/GD32VW553/V1_MQTT_OK/GD32VW55X_Wifi_BLE_SDK/GD32VW55x_RELEASE_V1.0.2/MSDK/wpa_supplicant/src/tls\pkcs5.c **** 
 659:C:/Users/stapi/OneDrive/Desktop/GD32VW553/V1_MQTT_OK/GD32VW55X_Wifi_BLE_SDK/GD32VW55x_RELEASE_V1.0.2/MSDK/wpa_supplicant/src/tls\pkcs5.c **** 	addr[0] = (const u8 *) passwd;
 660:C:/Users/stapi/OneDrive/Desktop/GD32VW553/V1_MQTT_OK/GD32VW55X_Wifi_BLE_SDK/GD32VW55x_RELEASE_V1.0.2/MSDK/wpa_supplicant/src/tls\pkcs5.c **** 	len[0] = os_strlen(passwd);
 661:C:/Users/stapi/OneDrive/Desktop/GD32VW553/V1_MQTT_OK/GD32VW55X_Wifi_BLE_SDK/GD32VW55x_RELEASE_V1.0.2/MSDK/wpa_supplicant/src/tls\pkcs5.c **** 	addr[1] = params->salt;
 662:C:/Users/stapi/OneDrive/Desktop/GD32VW553/V1_MQTT_OK/GD32VW55X_Wifi_BLE_SDK/GD32VW55x_RELEASE_V1.0.2/MSDK/wpa_supplicant/src/tls\pkcs5.c **** 	len[1] = params->salt_len;
 663:C:/Users/stapi/OneDrive/Desktop/GD32VW553/V1_MQTT_OK/GD32VW55X_Wifi_BLE_SDK/GD32VW55x_RELEASE_V1.0.2/MSDK/wpa_supplicant/src/tls\pkcs5.c **** 	if (md5_vector(2, addr, len, hash) < 0)
 664:C:/Users/stapi/OneDrive/Desktop/GD32VW553/V1_MQTT_OK/GD32VW55X_Wifi_BLE_SDK/GD32VW55x_RELEASE_V1.0.2/MSDK/wpa_supplicant/src/tls\pkcs5.c **** 		return NULL;
 665:C:/Users/stapi/OneDrive/Desktop/GD32VW553/V1_MQTT_OK/GD32VW55X_Wifi_BLE_SDK/GD32VW55x_RELEASE_V1.0.2/MSDK/wpa_supplicant/src/tls\pkcs5.c **** 	addr[0] = hash;
 666:C:/Users/stapi/OneDrive/Desktop/GD32VW553/V1_MQTT_OK/GD32VW55X_Wifi_BLE_SDK/GD32VW55x_RELEASE_V1.0.2/MSDK/wpa_supplicant/src/tls\pkcs5.c **** 	len[0] = MD5_MAC_LEN;
 667:C:/Users/stapi/OneDrive/Desktop/GD32VW553/V1_MQTT_OK/GD32VW55X_Wifi_BLE_SDK/GD32VW55x_RELEASE_V1.0.2/MSDK/wpa_supplicant/src/tls\pkcs5.c **** 	for (i = 1; i < params->iter_count; i++) {
 668:C:/Users/stapi/OneDrive/Desktop/GD32VW553/V1_MQTT_OK/GD32VW55X_Wifi_BLE_SDK/GD32VW55x_RELEASE_V1.0.2/MSDK/wpa_supplicant/src/tls\pkcs5.c **** 		if (md5_vector(1, addr, len, hash) < 0)
 669:C:/Users/stapi/OneDrive/Desktop/GD32VW553/V1_MQTT_OK/GD32VW55X_Wifi_BLE_SDK/GD32VW55x_RELEASE_V1.0.2/MSDK/wpa_supplicant/src/tls\pkcs5.c **** 			return NULL;
 670:C:/Users/stapi/OneDrive/Desktop/GD32VW553/V1_MQTT_OK/GD32VW55X_Wifi_BLE_SDK/GD32VW55x_RELEASE_V1.0.2/MSDK/wpa_supplicant/src/tls\pkcs5.c **** 	}
 671:C:/Users/stapi/OneDrive/Desktop/GD32VW553/V1_MQTT_OK/GD32VW55X_Wifi_BLE_SDK/GD32VW55x_RELEASE_V1.0.2/MSDK/wpa_supplicant/src/tls\pkcs5.c **** 	/* TODO: DES key parity bits(?) */
 672:C:/Users/stapi/OneDrive/Desktop/GD32VW553/V1_MQTT_OK/GD32VW55X_Wifi_BLE_SDK/GD32VW55x_RELEASE_V1.0.2/MSDK/wpa_supplicant/src/tls\pkcs5.c **** 	wpa_hexdump_key(MSG_DEBUG, "PKCS #5: DES key", hash, 8);
 673:C:/Users/stapi/OneDrive/Desktop/GD32VW553/V1_MQTT_OK/GD32VW55X_Wifi_BLE_SDK/GD32VW55x_RELEASE_V1.0.2/MSDK/wpa_supplicant/src/tls\pkcs5.c **** 	wpa_hexdump_key(MSG_DEBUG, "PKCS #5: DES IV", hash + 8, 8);
 674:C:/Users/stapi/OneDrive/Desktop/GD32VW553/V1_MQTT_OK/GD32VW55X_Wifi_BLE_SDK/GD32VW55x_RELEASE_V1.0.2/MSDK/wpa_supplicant/src/tls\pkcs5.c **** 
 675:C:/Users/stapi/OneDrive/Desktop/GD32VW553/V1_MQTT_OK/GD32VW55X_Wifi_BLE_SDK/GD32VW55x_RELEASE_V1.0.2/MSDK/wpa_supplicant/src/tls\pkcs5.c **** 	return crypto_cipher_init(CRYPTO_CIPHER_ALG_DES, hash + 8, hash, 8);
 676:C:/Users/stapi/OneDrive/Desktop/GD32VW553/V1_MQTT_OK/GD32VW55X_Wifi_BLE_SDK/GD32VW55x_RELEASE_V1.0.2/MSDK/wpa_supplicant/src/tls\pkcs5.c **** }
 677:C:/Users/stapi/OneDrive/Desktop/GD32VW553/V1_MQTT_OK/GD32VW55X_Wifi_BLE_SDK/GD32VW55x_RELEASE_V1.0.2/MSDK/wpa_supplicant/src/tls\pkcs5.c **** 
 678:C:/Users/stapi/OneDrive/Desktop/GD32VW553/V1_MQTT_OK/GD32VW55X_Wifi_BLE_SDK/GD32VW55x_RELEASE_V1.0.2/MSDK/wpa_supplicant/src/tls\pkcs5.c **** 
 679:C:/Users/stapi/OneDrive/Desktop/GD32VW553/V1_MQTT_OK/GD32VW55X_Wifi_BLE_SDK/GD32VW55x_RELEASE_V1.0.2/MSDK/wpa_supplicant/src/tls\pkcs5.c **** u8 * pkcs5_decrypt(const u8 *enc_alg, size_t enc_alg_len,
 680:C:/Users/stapi/OneDrive/Desktop/GD32VW553/V1_MQTT_OK/GD32VW55X_Wifi_BLE_SDK/GD32VW55x_RELEASE_V1.0.2/MSDK/wpa_supplicant/src/tls\pkcs5.c **** 		   const u8 *enc_data, size_t enc_data_len,
 681:C:/Users/stapi/OneDrive/Desktop/GD32VW553/V1_MQTT_OK/GD32VW55X_Wifi_BLE_SDK/GD32VW55x_RELEASE_V1.0.2/MSDK/wpa_supplicant/src/tls\pkcs5.c **** 		   const char *passwd, size_t *data_len)
 682:C:/Users/stapi/OneDrive/Desktop/GD32VW553/V1_MQTT_OK/GD32VW55X_Wifi_BLE_SDK/GD32VW55x_RELEASE_V1.0.2/MSDK/wpa_supplicant/src/tls\pkcs5.c **** {
 769              		.loc 2 682 1 is_stmt 1
 770              		.cfi_startproc
 771              	.LVL76:
 772 0000 17030000 		call	t0,__riscv_save_8
 772      E7020300 
 773              		.cfi_offset 23, -36
 774              		.cfi_offset 22, -32
 775              		.cfi_offset 21, -28
 776              		.cfi_offset 20, -24
 777              		.cfi_offset 19, -20
 778              		.cfi_offset 18, -16
 779              		.cfi_offset 9, -12
 780              		.cfi_offset 8, -8
 781              		.cfi_offset 1, -4
 782              		.cfi_def_cfa_offset 48
 683:C:/Users/stapi/OneDrive/Desktop/GD32VW553/V1_MQTT_OK/GD32VW55X_Wifi_BLE_SDK/GD32VW55x_RELEASE_V1.0.2/MSDK/wpa_supplicant/src/tls\pkcs5.c **** 	struct crypto_cipher *ctx;
 783              		.loc 2 683 2
 684:C:/Users/stapi/OneDrive/Desktop/GD32VW553/V1_MQTT_OK/GD32VW55X_Wifi_BLE_SDK/GD32VW55x_RELEASE_V1.0.2/MSDK/wpa_supplicant/src/tls\pkcs5.c **** 	u8 *eb, pad;
 784              		.loc 2 684 2
 685:C:/Users/stapi/OneDrive/Desktop/GD32VW553/V1_MQTT_OK/GD32VW55X_Wifi_BLE_SDK/GD32VW55x_RELEASE_V1.0.2/MSDK/wpa_supplicant/src/tls\pkcs5.c **** 	struct pkcs5_params params;
 785              		.loc 2 685 2
 686:C:/Users/stapi/OneDrive/Desktop/GD32VW553/V1_MQTT_OK/GD32VW55X_Wifi_BLE_SDK/GD32VW55x_RELEASE_V1.0.2/MSDK/wpa_supplicant/src/tls\pkcs5.c **** 	unsigned int i;
 786              		.loc 2 686 2
 687:C:/Users/stapi/OneDrive/Desktop/GD32VW553/V1_MQTT_OK/GD32VW55X_Wifi_BLE_SDK/GD32VW55x_RELEASE_V1.0.2/MSDK/wpa_supplicant/src/tls\pkcs5.c **** 
 688:C:/Users/stapi/OneDrive/Desktop/GD32VW553/V1_MQTT_OK/GD32VW55X_Wifi_BLE_SDK/GD32VW55x_RELEASE_V1.0.2/MSDK/wpa_supplicant/src/tls\pkcs5.c **** 	if (pkcs5_get_params(enc_alg, enc_alg_len, &params) < 0) {
 787              		.loc 2 688 2
 788              	.LVL77:
 682:C:/Users/stapi/OneDrive/Desktop/GD32VW553/V1_MQTT_OK/GD32VW55X_Wifi_BLE_SDK/GD32VW55x_RELEASE_V1.0.2/MSDK/wpa_supplicant/src/tls\pkcs5.c **** 	struct crypto_cipher *ctx;
 789              		.loc 2 682 1 is_stmt 0
 790 0008 2171     		addi	sp,sp,-448
 791              		.cfi_def_cfa_offset 496
 792              	.LVL78:
 793              	.LBB64:
 794              	.LBB65:
 332:C:/Users/stapi/OneDrive/Desktop/GD32VW553/V1_MQTT_OK/GD32VW55X_Wifi_BLE_SDK/GD32VW55x_RELEASE_V1.0.2/MSDK/wpa_supplicant/src/tls\pkcs5.c **** 	const u8 *enc_alg_end, *pos, *end;
 795              		.loc 2 332 2 is_stmt 1
 333:C:/Users/stapi/OneDrive/Desktop/GD32VW553/V1_MQTT_OK/GD32VW55X_Wifi_BLE_SDK/GD32VW55x_RELEASE_V1.0.2/MSDK/wpa_supplicant/src/tls\pkcs5.c **** 	struct asn1_oid oid;
 796              		.loc 2 333 2
 334:C:/Users/stapi/OneDrive/Desktop/GD32VW553/V1_MQTT_OK/GD32VW55X_Wifi_BLE_SDK/GD32VW55x_RELEASE_V1.0.2/MSDK/wpa_supplicant/src/tls\pkcs5.c **** 	char obuf[80];
 797              		.loc 2 334 2
 335:C:/Users/stapi/OneDrive/Desktop/GD32VW553/V1_MQTT_OK/GD32VW55X_Wifi_BLE_SDK/GD32VW55x_RELEASE_V1.0.2/MSDK/wpa_supplicant/src/tls\pkcs5.c **** 
 798              		.loc 2 335 2
 339:C:/Users/stapi/OneDrive/Desktop/GD32VW553/V1_MQTT_OK/GD32VW55X_Wifi_BLE_SDK/GD32VW55x_RELEASE_V1.0.2/MSDK/wpa_supplicant/src/tls\pkcs5.c **** 
 799              		.loc 2 339 2
 800              	.LBE65:
 801              	.LBE64:
 682:C:/Users/stapi/OneDrive/Desktop/GD32VW553/V1_MQTT_OK/GD32VW55X_Wifi_BLE_SDK/GD32VW55x_RELEASE_V1.0.2/MSDK/wpa_supplicant/src/tls\pkcs5.c **** 	struct crypto_cipher *ctx;
 802              		.loc 2 682 1 is_stmt 0
 803 000a AA84     		mv	s1,a0
 804 000c 2E8B     		mv	s6,a1
 805              	.LBB111:
 806              	.LBB102:
 339:C:/Users/stapi/OneDrive/Desktop/GD32VW553/V1_MQTT_OK/GD32VW55X_Wifi_BLE_SDK/GD32VW55x_RELEASE_V1.0.2/MSDK/wpa_supplicant/src/tls\pkcs5.c **** 
 807              		.loc 2 339 14
 808 000e B30AB500 		add	s5,a0,a1
 809              	.LVL79:
 341:C:/Users/stapi/OneDrive/Desktop/GD32VW553/V1_MQTT_OK/GD32VW55X_Wifi_BLE_SDK/GD32VW55x_RELEASE_V1.0.2/MSDK/wpa_supplicant/src/tls\pkcs5.c **** 
 810              		.loc 2 341 2 is_stmt 1
 811              	.LBE102:
 812              	.LBE111:
 682:C:/Users/stapi/OneDrive/Desktop/GD32VW553/V1_MQTT_OK/GD32VW55X_Wifi_BLE_SDK/GD32VW55x_RELEASE_V1.0.2/MSDK/wpa_supplicant/src/tls\pkcs5.c **** 	struct crypto_cipher *ctx;
 813              		.loc 2 682 1 is_stmt 0
 814 0012 B289     		mv	s3,a2
 815              	.LBB112:
 816              	.LBB103:
 341:C:/Users/stapi/OneDrive/Desktop/GD32VW553/V1_MQTT_OK/GD32VW55X_Wifi_BLE_SDK/GD32VW55x_RELEASE_V1.0.2/MSDK/wpa_supplicant/src/tls\pkcs5.c **** 
 817              		.loc 2 341 2
 818 0014 8145     		li	a1,0
 819              	.LVL80:
 820 0016 13060006 		li	a2,96
 821              	.LVL81:
 822 001a 8812     		addi	a0,sp,352
 823              	.LVL82:
 824              	.LBE103:
 825              	.LBE112:
 682:C:/Users/stapi/OneDrive/Desktop/GD32VW553/V1_MQTT_OK/GD32VW55X_Wifi_BLE_SDK/GD32VW55x_RELEASE_V1.0.2/MSDK/wpa_supplicant/src/tls\pkcs5.c **** 	struct crypto_cipher *ctx;
 826              		.loc 2 682 1
 827 001c 3689     		mv	s2,a3
 828 001e 3A84     		mv	s0,a4
 829 0020 3E8A     		mv	s4,a5
 830              	.LBB113:
 831              	.LBB104:
 341:C:/Users/stapi/OneDrive/Desktop/GD32VW553/V1_MQTT_OK/GD32VW55X_Wifi_BLE_SDK/GD32VW55x_RELEASE_V1.0.2/MSDK/wpa_supplicant/src/tls\pkcs5.c **** 
 832              		.loc 2 341 2
 833 0022 97000000 		call	os_memset
 833      E7800000 
 834              	.LVL83:
 343:C:/Users/stapi/OneDrive/Desktop/GD32VW553/V1_MQTT_OK/GD32VW55X_Wifi_BLE_SDK/GD32VW55x_RELEASE_V1.0.2/MSDK/wpa_supplicant/src/tls\pkcs5.c **** 		wpa_printf(MSG_DEBUG, "PKCS #5: Failed to parse OID "
 835              		.loc 2 343 2 is_stmt 1
 343:C:/Users/stapi/OneDrive/Desktop/GD32VW553/V1_MQTT_OK/GD32VW55X_Wifi_BLE_SDK/GD32VW55x_RELEASE_V1.0.2/MSDK/wpa_supplicant/src/tls\pkcs5.c **** 		wpa_printf(MSG_DEBUG, "PKCS #5: Failed to parse OID "
 836              		.loc 2 343 6 is_stmt 0
 837 002a 8A86     		mv	a3,sp
 838 002c 3019     		addi	a2,sp,184
 839 002e DA85     		mv	a1,s6
 840 0030 2685     		mv	a0,s1
 841 0032 97000000 		call	asn1_get_oid
 841      E7800000 
 842              	.LVL84:
 343:C:/Users/stapi/OneDrive/Desktop/GD32VW553/V1_MQTT_OK/GD32VW55X_Wifi_BLE_SDK/GD32VW55x_RELEASE_V1.0.2/MSDK/wpa_supplicant/src/tls\pkcs5.c **** 		wpa_printf(MSG_DEBUG, "PKCS #5: Failed to parse OID "
 843              		.loc 2 343 5
 844 003a 15C5     		beq	a0,zero,.L63
 344:C:/Users/stapi/OneDrive/Desktop/GD32VW553/V1_MQTT_OK/GD32VW55X_Wifi_BLE_SDK/GD32VW55x_RELEASE_V1.0.2/MSDK/wpa_supplicant/src/tls\pkcs5.c **** 			   "(algorithm)");
 845              		.loc 2 344 3 is_stmt 1
 846 003c B7050000 		lui	a1,%hi(.LC0)
 847 0040 93850500 		addi	a1,a1,%lo(.LC0)
 848              	.LVL85:
 849              	.L170:
 850              	.LBB66:
 851              	.LBB67:
 292:C:/Users/stapi/OneDrive/Desktop/GD32VW553/V1_MQTT_OK/GD32VW55X_Wifi_BLE_SDK/GD32VW55x_RELEASE_V1.0.2/MSDK/wpa_supplicant/src/tls\pkcs5.c **** 			   "PKCS #5: Failed to parse OID (encryptionScheme algorithm)");
 852              		.loc 2 292 3 is_stmt 0
 853 0044 0945     		li	a0,2
 854 0046 97000000 		call	wpa_printf
 854      E7800000 
 855              	.LVL86:
 294:C:/Users/stapi/OneDrive/Desktop/GD32VW553/V1_MQTT_OK/GD32VW55X_Wifi_BLE_SDK/GD32VW55x_RELEASE_V1.0.2/MSDK/wpa_supplicant/src/tls\pkcs5.c **** 	}
 856              		.loc 2 294 3 is_stmt 1
 857              	.L64:
 858              	.LBE67:
 859              	.LBE66:
 860              	.LBE104:
 861              	.LBE113:
 689:C:/Users/stapi/OneDrive/Desktop/GD32VW553/V1_MQTT_OK/GD32VW55X_Wifi_BLE_SDK/GD32VW55x_RELEASE_V1.0.2/MSDK/wpa_supplicant/src/tls\pkcs5.c **** 		wpa_printf(MSG_DEBUG, "PKCS #5: Unsupported parameters");
 862              		.loc 2 689 3
 863 004e B7050000 		lui	a1,%hi(.LC28)
 864 0052 93850500 		addi	a1,a1,%lo(.LC28)
 865              	.LVL87:
 866              	.L184:
 690:C:/Users/stapi/OneDrive/Desktop/GD32VW553/V1_MQTT_OK/GD32VW55X_Wifi_BLE_SDK/GD32VW55x_RELEASE_V1.0.2/MSDK/wpa_supplicant/src/tls\pkcs5.c **** 		return NULL;
 691:C:/Users/stapi/OneDrive/Desktop/GD32VW553/V1_MQTT_OK/GD32VW55X_Wifi_BLE_SDK/GD32VW55x_RELEASE_V1.0.2/MSDK/wpa_supplicant/src/tls\pkcs5.c **** 	}
 692:C:/Users/stapi/OneDrive/Desktop/GD32VW553/V1_MQTT_OK/GD32VW55X_Wifi_BLE_SDK/GD32VW55x_RELEASE_V1.0.2/MSDK/wpa_supplicant/src/tls\pkcs5.c **** 
 693:C:/Users/stapi/OneDrive/Desktop/GD32VW553/V1_MQTT_OK/GD32VW55X_Wifi_BLE_SDK/GD32VW55x_RELEASE_V1.0.2/MSDK/wpa_supplicant/src/tls\pkcs5.c **** 	ctx = pkcs5_crypto_init(&params, passwd);
 694:C:/Users/stapi/OneDrive/Desktop/GD32VW553/V1_MQTT_OK/GD32VW55X_Wifi_BLE_SDK/GD32VW55x_RELEASE_V1.0.2/MSDK/wpa_supplicant/src/tls\pkcs5.c **** 	if (ctx == NULL) {
 695:C:/Users/stapi/OneDrive/Desktop/GD32VW553/V1_MQTT_OK/GD32VW55X_Wifi_BLE_SDK/GD32VW55x_RELEASE_V1.0.2/MSDK/wpa_supplicant/src/tls\pkcs5.c **** 		wpa_printf(MSG_DEBUG, "PKCS #5: Failed to initialize crypto");
 867              		.loc 2 695 3 is_stmt 0
 868 0056 0945     		li	a0,2
 869 0058 97000000 		call	wpa_printf
 869      E7800000 
 870              	.LVL88:
 696:C:/Users/stapi/OneDrive/Desktop/GD32VW553/V1_MQTT_OK/GD32VW55X_Wifi_BLE_SDK/GD32VW55x_RELEASE_V1.0.2/MSDK/wpa_supplicant/src/tls\pkcs5.c **** 		return NULL;
 871              		.loc 2 696 3 is_stmt 1
 872              	.L180:
 697:C:/Users/stapi/OneDrive/Desktop/GD32VW553/V1_MQTT_OK/GD32VW55X_Wifi_BLE_SDK/GD32VW55x_RELEASE_V1.0.2/MSDK/wpa_supplicant/src/tls\pkcs5.c **** 	}
 698:C:/Users/stapi/OneDrive/Desktop/GD32VW553/V1_MQTT_OK/GD32VW55X_Wifi_BLE_SDK/GD32VW55x_RELEASE_V1.0.2/MSDK/wpa_supplicant/src/tls\pkcs5.c **** 
 699:C:/Users/stapi/OneDrive/Desktop/GD32VW553/V1_MQTT_OK/GD32VW55X_Wifi_BLE_SDK/GD32VW55x_RELEASE_V1.0.2/MSDK/wpa_supplicant/src/tls\pkcs5.c **** 	/* PKCS #5, Section 7 - Decryption process */
 700:C:/Users/stapi/OneDrive/Desktop/GD32VW553/V1_MQTT_OK/GD32VW55X_Wifi_BLE_SDK/GD32VW55x_RELEASE_V1.0.2/MSDK/wpa_supplicant/src/tls\pkcs5.c **** 	if (enc_data_len < 16 || enc_data_len % 8) {
 701:C:/Users/stapi/OneDrive/Desktop/GD32VW553/V1_MQTT_OK/GD32VW55X_Wifi_BLE_SDK/GD32VW55x_RELEASE_V1.0.2/MSDK/wpa_supplicant/src/tls\pkcs5.c **** 		wpa_printf(MSG_INFO, "PKCS #5: invalid length of ciphertext "
 702:C:/Users/stapi/OneDrive/Desktop/GD32VW553/V1_MQTT_OK/GD32VW55X_Wifi_BLE_SDK/GD32VW55x_RELEASE_V1.0.2/MSDK/wpa_supplicant/src/tls\pkcs5.c **** 			   "%d", (int) enc_data_len);
 703:C:/Users/stapi/OneDrive/Desktop/GD32VW553/V1_MQTT_OK/GD32VW55X_Wifi_BLE_SDK/GD32VW55x_RELEASE_V1.0.2/MSDK/wpa_supplicant/src/tls\pkcs5.c **** 		crypto_cipher_deinit(ctx);
 704:C:/Users/stapi/OneDrive/Desktop/GD32VW553/V1_MQTT_OK/GD32VW55X_Wifi_BLE_SDK/GD32VW55x_RELEASE_V1.0.2/MSDK/wpa_supplicant/src/tls\pkcs5.c **** 		return NULL;
 705:C:/Users/stapi/OneDrive/Desktop/GD32VW553/V1_MQTT_OK/GD32VW55X_Wifi_BLE_SDK/GD32VW55x_RELEASE_V1.0.2/MSDK/wpa_supplicant/src/tls\pkcs5.c **** 	}
 706:C:/Users/stapi/OneDrive/Desktop/GD32VW553/V1_MQTT_OK/GD32VW55X_Wifi_BLE_SDK/GD32VW55x_RELEASE_V1.0.2/MSDK/wpa_supplicant/src/tls\pkcs5.c **** 
 707:C:/Users/stapi/OneDrive/Desktop/GD32VW553/V1_MQTT_OK/GD32VW55X_Wifi_BLE_SDK/GD32VW55x_RELEASE_V1.0.2/MSDK/wpa_supplicant/src/tls\pkcs5.c **** 	eb = os_malloc(enc_data_len);
 708:C:/Users/stapi/OneDrive/Desktop/GD32VW553/V1_MQTT_OK/GD32VW55X_Wifi_BLE_SDK/GD32VW55x_RELEASE_V1.0.2/MSDK/wpa_supplicant/src/tls\pkcs5.c **** 	if (eb == NULL) {
 709:C:/Users/stapi/OneDrive/Desktop/GD32VW553/V1_MQTT_OK/GD32VW55X_Wifi_BLE_SDK/GD32VW55x_RELEASE_V1.0.2/MSDK/wpa_supplicant/src/tls\pkcs5.c **** 		crypto_cipher_deinit(ctx);
 710:C:/Users/stapi/OneDrive/Desktop/GD32VW553/V1_MQTT_OK/GD32VW55X_Wifi_BLE_SDK/GD32VW55x_RELEASE_V1.0.2/MSDK/wpa_supplicant/src/tls\pkcs5.c **** 		return NULL;
 711:C:/Users/stapi/OneDrive/Desktop/GD32VW553/V1_MQTT_OK/GD32VW55X_Wifi_BLE_SDK/GD32VW55x_RELEASE_V1.0.2/MSDK/wpa_supplicant/src/tls\pkcs5.c **** 	}
 712:C:/Users/stapi/OneDrive/Desktop/GD32VW553/V1_MQTT_OK/GD32VW55X_Wifi_BLE_SDK/GD32VW55x_RELEASE_V1.0.2/MSDK/wpa_supplicant/src/tls\pkcs5.c **** 
 713:C:/Users/stapi/OneDrive/Desktop/GD32VW553/V1_MQTT_OK/GD32VW55X_Wifi_BLE_SDK/GD32VW55x_RELEASE_V1.0.2/MSDK/wpa_supplicant/src/tls\pkcs5.c **** 	if (crypto_cipher_decrypt(ctx, enc_data, eb, enc_data_len) < 0) {
 714:C:/Users/stapi/OneDrive/Desktop/GD32VW553/V1_MQTT_OK/GD32VW55X_Wifi_BLE_SDK/GD32VW55x_RELEASE_V1.0.2/MSDK/wpa_supplicant/src/tls\pkcs5.c **** 		wpa_printf(MSG_DEBUG, "PKCS #5: Failed to decrypt EB");
 715:C:/Users/stapi/OneDrive/Desktop/GD32VW553/V1_MQTT_OK/GD32VW55X_Wifi_BLE_SDK/GD32VW55x_RELEASE_V1.0.2/MSDK/wpa_supplicant/src/tls\pkcs5.c **** 		crypto_cipher_deinit(ctx);
 716:C:/Users/stapi/OneDrive/Desktop/GD32VW553/V1_MQTT_OK/GD32VW55X_Wifi_BLE_SDK/GD32VW55x_RELEASE_V1.0.2/MSDK/wpa_supplicant/src/tls\pkcs5.c **** 		os_free(eb);
 717:C:/Users/stapi/OneDrive/Desktop/GD32VW553/V1_MQTT_OK/GD32VW55X_Wifi_BLE_SDK/GD32VW55x_RELEASE_V1.0.2/MSDK/wpa_supplicant/src/tls\pkcs5.c **** 		return NULL;
 718:C:/Users/stapi/OneDrive/Desktop/GD32VW553/V1_MQTT_OK/GD32VW55X_Wifi_BLE_SDK/GD32VW55x_RELEASE_V1.0.2/MSDK/wpa_supplicant/src/tls\pkcs5.c **** 	}
 719:C:/Users/stapi/OneDrive/Desktop/GD32VW553/V1_MQTT_OK/GD32VW55X_Wifi_BLE_SDK/GD32VW55x_RELEASE_V1.0.2/MSDK/wpa_supplicant/src/tls\pkcs5.c **** 	crypto_cipher_deinit(ctx);
 720:C:/Users/stapi/OneDrive/Desktop/GD32VW553/V1_MQTT_OK/GD32VW55X_Wifi_BLE_SDK/GD32VW55x_RELEASE_V1.0.2/MSDK/wpa_supplicant/src/tls\pkcs5.c **** 
 721:C:/Users/stapi/OneDrive/Desktop/GD32VW553/V1_MQTT_OK/GD32VW55X_Wifi_BLE_SDK/GD32VW55x_RELEASE_V1.0.2/MSDK/wpa_supplicant/src/tls\pkcs5.c **** 	pad = eb[enc_data_len - 1];
 722:C:/Users/stapi/OneDrive/Desktop/GD32VW553/V1_MQTT_OK/GD32VW55X_Wifi_BLE_SDK/GD32VW55x_RELEASE_V1.0.2/MSDK/wpa_supplicant/src/tls\pkcs5.c **** 	if (pad > 8) {
 723:C:/Users/stapi/OneDrive/Desktop/GD32VW553/V1_MQTT_OK/GD32VW55X_Wifi_BLE_SDK/GD32VW55x_RELEASE_V1.0.2/MSDK/wpa_supplicant/src/tls\pkcs5.c **** 		wpa_printf(MSG_INFO, "PKCS #5: Invalid PS octet 0x%x", pad);
 724:C:/Users/stapi/OneDrive/Desktop/GD32VW553/V1_MQTT_OK/GD32VW55X_Wifi_BLE_SDK/GD32VW55x_RELEASE_V1.0.2/MSDK/wpa_supplicant/src/tls\pkcs5.c **** 		os_free(eb);
 725:C:/Users/stapi/OneDrive/Desktop/GD32VW553/V1_MQTT_OK/GD32VW55X_Wifi_BLE_SDK/GD32VW55x_RELEASE_V1.0.2/MSDK/wpa_supplicant/src/tls\pkcs5.c **** 		return NULL;
 726:C:/Users/stapi/OneDrive/Desktop/GD32VW553/V1_MQTT_OK/GD32VW55X_Wifi_BLE_SDK/GD32VW55x_RELEASE_V1.0.2/MSDK/wpa_supplicant/src/tls\pkcs5.c **** 	}
 727:C:/Users/stapi/OneDrive/Desktop/GD32VW553/V1_MQTT_OK/GD32VW55X_Wifi_BLE_SDK/GD32VW55x_RELEASE_V1.0.2/MSDK/wpa_supplicant/src/tls\pkcs5.c **** 	for (i = enc_data_len - pad; i < enc_data_len; i++) {
 728:C:/Users/stapi/OneDrive/Desktop/GD32VW553/V1_MQTT_OK/GD32VW55X_Wifi_BLE_SDK/GD32VW55x_RELEASE_V1.0.2/MSDK/wpa_supplicant/src/tls\pkcs5.c **** 		if (eb[i] != pad) {
 729:C:/Users/stapi/OneDrive/Desktop/GD32VW553/V1_MQTT_OK/GD32VW55X_Wifi_BLE_SDK/GD32VW55x_RELEASE_V1.0.2/MSDK/wpa_supplicant/src/tls\pkcs5.c **** 			wpa_hexdump(MSG_INFO, "PKCS #5: Invalid PS",
 730:C:/Users/stapi/OneDrive/Desktop/GD32VW553/V1_MQTT_OK/GD32VW55X_Wifi_BLE_SDK/GD32VW55x_RELEASE_V1.0.2/MSDK/wpa_supplicant/src/tls\pkcs5.c **** 				    eb + enc_data_len - pad, pad);
 731:C:/Users/stapi/OneDrive/Desktop/GD32VW553/V1_MQTT_OK/GD32VW55X_Wifi_BLE_SDK/GD32VW55x_RELEASE_V1.0.2/MSDK/wpa_supplicant/src/tls\pkcs5.c **** 			os_free(eb);
 732:C:/Users/stapi/OneDrive/Desktop/GD32VW553/V1_MQTT_OK/GD32VW55X_Wifi_BLE_SDK/GD32VW55x_RELEASE_V1.0.2/MSDK/wpa_supplicant/src/tls\pkcs5.c **** 			return NULL;
 873              		.loc 2 732 4
 874              		.loc 2 732 11 is_stmt 0
 875 0060 0144     		li	s0,0
 876 0062 6F00B00D 		j	.L62
 877              	.LVL89:
 878              	.L63:
 879              	.LBB114:
 880              	.LBB105:
 349:C:/Users/stapi/OneDrive/Desktop/GD32VW553/V1_MQTT_OK/GD32VW55X_Wifi_BLE_SDK/GD32VW55x_RELEASE_V1.0.2/MSDK/wpa_supplicant/src/tls\pkcs5.c **** 	wpa_printf(MSG_DEBUG, "PKCS #5: encryption algorithm %s", obuf);
 881              		.loc 2 349 2 is_stmt 1
 882 0066 13060005 		li	a2,80
 883 006a 2C08     		addi	a1,sp,24
 884 006c 2819     		addi	a0,sp,184
 885 006e 97000000 		call	asn1_oid_to_str
 885      E7800000 
 886              	.LVL90:
 350:C:/Users/stapi/OneDrive/Desktop/GD32VW553/V1_MQTT_OK/GD32VW55X_Wifi_BLE_SDK/GD32VW55x_RELEASE_V1.0.2/MSDK/wpa_supplicant/src/tls\pkcs5.c **** 	params->alg = pkcs5_get_alg(&oid);
 887              		.loc 2 350 2
 888 0076 B7050000 		lui	a1,%hi(.LC1)
 889 007a 93850500 		addi	a1,a1,%lo(.LC1)
 890 007e 0945     		li	a0,2
 891 0080 3008     		addi	a2,sp,24
 892 0082 97000000 		call	wpa_printf
 892      E7800000 
 893              	.LVL91:
 351:C:/Users/stapi/OneDrive/Desktop/GD32VW553/V1_MQTT_OK/GD32VW55X_Wifi_BLE_SDK/GD32VW55x_RELEASE_V1.0.2/MSDK/wpa_supplicant/src/tls\pkcs5.c **** 	if (params->alg == PKCS5_ALG_UNKNOWN) {
 894              		.loc 2 351 2
 895              	.LBB84:
 896              	.LBB85:
 103:C:/Users/stapi/OneDrive/Desktop/GD32VW553/V1_MQTT_OK/GD32VW55X_Wifi_BLE_SDK/GD32VW55x_RELEASE_V1.0.2/MSDK/wpa_supplicant/src/tls\pkcs5.c **** 		return PKCS5_ALG_MD5_DES_CBC;
 897              		.loc 2 103 2
 103:C:/Users/stapi/OneDrive/Desktop/GD32VW553/V1_MQTT_OK/GD32VW55X_Wifi_BLE_SDK/GD32VW55x_RELEASE_V1.0.2/MSDK/wpa_supplicant/src/tls\pkcs5.c **** 		return PKCS5_ALG_MD5_DES_CBC;
 898              		.loc 2 103 6 is_stmt 0
 899 008a 8D45     		li	a1,3
 900 008c 2819     		addi	a0,sp,184
 901              	.LVL92:
 902 008e 97000000 		call	pkcs5_is_oid
 902      E7800000 
 903              	.LVL93:
 103:C:/Users/stapi/OneDrive/Desktop/GD32VW553/V1_MQTT_OK/GD32VW55X_Wifi_BLE_SDK/GD32VW55x_RELEASE_V1.0.2/MSDK/wpa_supplicant/src/tls\pkcs5.c **** 		return PKCS5_ALG_MD5_DES_CBC;
 904              		.loc 2 103 5
 905 0096 4DE5     		bne	a0,zero,.L65
 105:C:/Users/stapi/OneDrive/Desktop/GD32VW553/V1_MQTT_OK/GD32VW55X_Wifi_BLE_SDK/GD32VW55x_RELEASE_V1.0.2/MSDK/wpa_supplicant/src/tls\pkcs5.c **** 		return PKCS5_ALG_SHA1_3DES_CBC;
 906              		.loc 2 105 2 is_stmt 1
 907              	.LVL94:
 908              	.LBB86:
 909              	.LBB87:
  92:C:/Users/stapi/OneDrive/Desktop/GD32VW553/V1_MQTT_OK/GD32VW55X_Wifi_BLE_SDK/GD32VW55x_RELEASE_V1.0.2/MSDK/wpa_supplicant/src/tls\pkcs5.c **** 		oid_is_rsadsi(oid) &&
 910              		.loc 2 92 2
  96:C:/Users/stapi/OneDrive/Desktop/GD32VW553/V1_MQTT_OK/GD32VW55X_Wifi_BLE_SDK/GD32VW55x_RELEASE_V1.0.2/MSDK/wpa_supplicant/src/tls\pkcs5.c **** 		oid->oid[7] == alg;
 911              		.loc 2 96 40 is_stmt 0
 912 0098 03278110 		lw	a4,264(sp)
 913 009c A147     		li	a5,8
 914 009e 6319F704 		bne	a4,a5,.L66
  93:C:/Users/stapi/OneDrive/Desktop/GD32VW553/V1_MQTT_OK/GD32VW55X_Wifi_BLE_SDK/GD32VW55x_RELEASE_V1.0.2/MSDK/wpa_supplicant/src/tls\pkcs5.c **** 		oid->oid[4] == 1 /* pkcs */ &&
 915              		.loc 2 93 3
 916 00a2 2819     		addi	a0,sp,184
 917              	.LVL95:
 918 00a4 97000000 		call	oid_is_rsadsi
 918      E7800000 
 919              	.LVL96:
  92:C:/Users/stapi/OneDrive/Desktop/GD32VW553/V1_MQTT_OK/GD32VW55X_Wifi_BLE_SDK/GD32VW55x_RELEASE_V1.0.2/MSDK/wpa_supplicant/src/tls\pkcs5.c **** 		oid_is_rsadsi(oid) &&
 920              		.loc 2 92 23
 921 00ac 31C1     		beq	a0,zero,.L66
  93:C:/Users/stapi/OneDrive/Desktop/GD32VW553/V1_MQTT_OK/GD32VW55X_Wifi_BLE_SDK/GD32VW55x_RELEASE_V1.0.2/MSDK/wpa_supplicant/src/tls\pkcs5.c **** 		oid->oid[4] == 1 /* pkcs */ &&
 922              		.loc 2 93 22
 923 00ae AE47     		lw	a5,200(sp)
 924 00b0 0547     		li	a4,1
 925 00b2 639FE702 		bne	a5,a4,.L66
  94:C:/Users/stapi/OneDrive/Desktop/GD32VW553/V1_MQTT_OK/GD32VW55X_Wifi_BLE_SDK/GD32VW55x_RELEASE_V1.0.2/MSDK/wpa_supplicant/src/tls\pkcs5.c **** 		oid->oid[5] == 12 /* pkcs-12 */ &&
 926              		.loc 2 94 31
 927 00b6 BE46     		lw	a3,204(sp)
 928 00b8 3147     		li	a4,12
 929 00ba 639BE602 		bne	a3,a4,.L66
  95:C:/Users/stapi/OneDrive/Desktop/GD32VW553/V1_MQTT_OK/GD32VW55X_Wifi_BLE_SDK/GD32VW55x_RELEASE_V1.0.2/MSDK/wpa_supplicant/src/tls\pkcs5.c **** 		oid->oid[6] == 1 /* pkcs-12PbeIds */ &&
 930              		.loc 2 95 35
 931 00be 4E47     		lw	a4,208(sp)
 932 00c0 6318F702 		bne	a4,a5,.L66
  96:C:/Users/stapi/OneDrive/Desktop/GD32VW553/V1_MQTT_OK/GD32VW55X_Wifi_BLE_SDK/GD32VW55x_RELEASE_V1.0.2/MSDK/wpa_supplicant/src/tls\pkcs5.c **** 		oid->oid[7] == alg;
 933              		.loc 2 96 40
 934 00c4 DE47     		lw	a5,212(sp)
 935 00c6 0D47     		li	a4,3
 936 00c8 6394E702 		bne	a5,a4,.L66
 937              	.LVL97:
 938              	.L178:
 939              	.LBE87:
 940              	.LBE86:
 941              	.LBE85:
 942              	.LBE84:
 377:C:/Users/stapi/OneDrive/Desktop/GD32VW553/V1_MQTT_OK/GD32VW55X_Wifi_BLE_SDK/GD32VW55x_RELEASE_V1.0.2/MSDK/wpa_supplicant/src/tls\pkcs5.c **** 	    !asn1_is_sequence(&hdr)) {
 943              		.loc 2 377 6
 944 00cc 0245     		lw	a0,0(sp)
 945 00ce 7002     		addi	a2,sp,268
 351:C:/Users/stapi/OneDrive/Desktop/GD32VW553/V1_MQTT_OK/GD32VW55X_Wifi_BLE_SDK/GD32VW55x_RELEASE_V1.0.2/MSDK/wpa_supplicant/src/tls\pkcs5.c **** 	if (params->alg == PKCS5_ALG_UNKNOWN) {
 946              		.loc 2 351 14
 947 00d0 2320F116 		sw	a5,352(sp)
 352:C:/Users/stapi/OneDrive/Desktop/GD32VW553/V1_MQTT_OK/GD32VW55X_Wifi_BLE_SDK/GD32VW55x_RELEASE_V1.0.2/MSDK/wpa_supplicant/src/tls\pkcs5.c **** 		wpa_printf(MSG_INFO, "PKCS #5: unsupported encryption "
 948              		.loc 2 352 2 is_stmt 1
 358:C:/Users/stapi/OneDrive/Desktop/GD32VW553/V1_MQTT_OK/GD32VW55X_Wifi_BLE_SDK/GD32VW55x_RELEASE_V1.0.2/MSDK/wpa_supplicant/src/tls\pkcs5.c **** 		return pkcs5_get_params_pbes2(params, pos, enc_alg_end);
 949              		.loc 2 358 2
 377:C:/Users/stapi/OneDrive/Desktop/GD32VW553/V1_MQTT_OK/GD32VW55X_Wifi_BLE_SDK/GD32VW55x_RELEASE_V1.0.2/MSDK/wpa_supplicant/src/tls\pkcs5.c **** 	    !asn1_is_sequence(&hdr)) {
 950              		.loc 2 377 2
 377:C:/Users/stapi/OneDrive/Desktop/GD32VW553/V1_MQTT_OK/GD32VW55X_Wifi_BLE_SDK/GD32VW55x_RELEASE_V1.0.2/MSDK/wpa_supplicant/src/tls\pkcs5.c **** 	    !asn1_is_sequence(&hdr)) {
 951              		.loc 2 377 6 is_stmt 0
 952 00d4 B385AA40 		sub	a1,s5,a0
 953 00d8 97000000 		call	asn1_get_next
 953      E7800000 
 954              	.LVL98:
 377:C:/Users/stapi/OneDrive/Desktop/GD32VW553/V1_MQTT_OK/GD32VW55X_Wifi_BLE_SDK/GD32VW55x_RELEASE_V1.0.2/MSDK/wpa_supplicant/src/tls\pkcs5.c **** 	    !asn1_is_sequence(&hdr)) {
 955              		.loc 2 377 5
 956 00e0 63590558 		bge	a0,zero,.L165
 957              	.L142:
 379:C:/Users/stapi/OneDrive/Desktop/GD32VW553/V1_MQTT_OK/GD32VW55X_Wifi_BLE_SDK/GD32VW55x_RELEASE_V1.0.2/MSDK/wpa_supplicant/src/tls\pkcs5.c **** 				"PKCS #5: Expected SEQUENCE (PBEParameter)");
 958              		.loc 2 379 3 is_stmt 1
 959 00e4 B7050000 		lui	a1,%hi(.LC25)
 960 00e8 93850500 		addi	a1,a1,%lo(.LC25)
 961              	.LVL99:
 962              	.L171:
 402:C:/Users/stapi/OneDrive/Desktop/GD32VW553/V1_MQTT_OK/GD32VW55X_Wifi_BLE_SDK/GD32VW55x_RELEASE_V1.0.2/MSDK/wpa_supplicant/src/tls\pkcs5.c **** 		return -1;
 963              		.loc 2 402 3 is_stmt 0
 964 00ec 6802     		addi	a0,sp,268
 965 00ee 1DA8     		j	.L173
 966              	.LVL100:
 967              	.L66:
 968              	.LBB89:
 969              	.LBB88:
 107:C:/Users/stapi/OneDrive/Desktop/GD32VW553/V1_MQTT_OK/GD32VW55X_Wifi_BLE_SDK/GD32VW55x_RELEASE_V1.0.2/MSDK/wpa_supplicant/src/tls\pkcs5.c **** 		return PKCS5_ALG_PBES2;
 970              		.loc 2 107 2 is_stmt 1
 107:C:/Users/stapi/OneDrive/Desktop/GD32VW553/V1_MQTT_OK/GD32VW55X_Wifi_BLE_SDK/GD32VW55x_RELEASE_V1.0.2/MSDK/wpa_supplicant/src/tls\pkcs5.c **** 		return PKCS5_ALG_PBES2;
 971              		.loc 2 107 6 is_stmt 0
 972 00f0 B545     		li	a1,13
 973 00f2 2819     		addi	a0,sp,184
 974              	.LVL101:
 975 00f4 97000000 		call	pkcs5_is_oid
 975      E7800000 
 976              	.LVL102:
 107:C:/Users/stapi/OneDrive/Desktop/GD32VW553/V1_MQTT_OK/GD32VW55X_Wifi_BLE_SDK/GD32VW55x_RELEASE_V1.0.2/MSDK/wpa_supplicant/src/tls\pkcs5.c **** 		return PKCS5_ALG_PBES2;
 977              		.loc 2 107 5
 978 00fc 0DC9     		beq	a0,zero,.L68
 108:C:/Users/stapi/OneDrive/Desktop/GD32VW553/V1_MQTT_OK/GD32VW55X_Wifi_BLE_SDK/GD32VW55x_RELEASE_V1.0.2/MSDK/wpa_supplicant/src/tls\pkcs5.c **** 	return PKCS5_ALG_UNKNOWN;
 979              		.loc 2 108 3 is_stmt 1
 980              	.LVL103:
 981              	.LBE88:
 982              	.LBE89:
 359:C:/Users/stapi/OneDrive/Desktop/GD32VW553/V1_MQTT_OK/GD32VW55X_Wifi_BLE_SDK/GD32VW55x_RELEASE_V1.0.2/MSDK/wpa_supplicant/src/tls\pkcs5.c **** 
 983              		.loc 2 359 10 is_stmt 0
 984 00fe 0245     		lw	a0,0(sp)
 351:C:/Users/stapi/OneDrive/Desktop/GD32VW553/V1_MQTT_OK/GD32VW55X_Wifi_BLE_SDK/GD32VW55x_RELEASE_V1.0.2/MSDK/wpa_supplicant/src/tls\pkcs5.c **** 	if (params->alg == PKCS5_ALG_UNKNOWN) {
 985              		.loc 2 351 14
 986 0100 8947     		li	a5,2
 987              	.LBB90:
 988              	.LBB76:
 132:C:/Users/stapi/OneDrive/Desktop/GD32VW553/V1_MQTT_OK/GD32VW55X_Wifi_BLE_SDK/GD32VW55x_RELEASE_V1.0.2/MSDK/wpa_supplicant/src/tls\pkcs5.c **** 	    !asn1_is_sequence(&hdr)) {
 989              		.loc 2 132 6
 990 0102 3000     		addi	a2,sp,8
 991 0104 B385AA40 		sub	a1,s5,a0
 992              	.LBE76:
 993              	.LBE90:
 351:C:/Users/stapi/OneDrive/Desktop/GD32VW553/V1_MQTT_OK/GD32VW55X_Wifi_BLE_SDK/GD32VW55x_RELEASE_V1.0.2/MSDK/wpa_supplicant/src/tls\pkcs5.c **** 	if (params->alg == PKCS5_ALG_UNKNOWN) {
 994              		.loc 2 351 14
 995 0108 2320F116 		sw	a5,352(sp)
 352:C:/Users/stapi/OneDrive/Desktop/GD32VW553/V1_MQTT_OK/GD32VW55X_Wifi_BLE_SDK/GD32VW55x_RELEASE_V1.0.2/MSDK/wpa_supplicant/src/tls\pkcs5.c **** 		wpa_printf(MSG_INFO, "PKCS #5: unsupported encryption "
 996              		.loc 2 352 2 is_stmt 1
 358:C:/Users/stapi/OneDrive/Desktop/GD32VW553/V1_MQTT_OK/GD32VW55X_Wifi_BLE_SDK/GD32VW55x_RELEASE_V1.0.2/MSDK/wpa_supplicant/src/tls\pkcs5.c **** 		return pkcs5_get_params_pbes2(params, pos, enc_alg_end);
 997              		.loc 2 358 2
 359:C:/Users/stapi/OneDrive/Desktop/GD32VW553/V1_MQTT_OK/GD32VW55X_Wifi_BLE_SDK/GD32VW55x_RELEASE_V1.0.2/MSDK/wpa_supplicant/src/tls\pkcs5.c **** 
 998              		.loc 2 359 3
 999              	.LVL104:
 1000 010c 2AC2     		sw	a0,4(sp)
 1001              	.LVL105:
 1002              	.LBB91:
 1003              	.LBB77:
 116:C:/Users/stapi/OneDrive/Desktop/GD32VW553/V1_MQTT_OK/GD32VW55X_Wifi_BLE_SDK/GD32VW55x_RELEASE_V1.0.2/MSDK/wpa_supplicant/src/tls\pkcs5.c **** 	const u8 *end, *kdf_end;
 1004              		.loc 2 116 2
 117:C:/Users/stapi/OneDrive/Desktop/GD32VW553/V1_MQTT_OK/GD32VW55X_Wifi_BLE_SDK/GD32VW55x_RELEASE_V1.0.2/MSDK/wpa_supplicant/src/tls\pkcs5.c **** 	struct asn1_oid oid;
 1005              		.loc 2 117 2
 118:C:/Users/stapi/OneDrive/Desktop/GD32VW553/V1_MQTT_OK/GD32VW55X_Wifi_BLE_SDK/GD32VW55x_RELEASE_V1.0.2/MSDK/wpa_supplicant/src/tls\pkcs5.c **** 	char obuf[80];
 1006              		.loc 2 118 2
 119:C:/Users/stapi/OneDrive/Desktop/GD32VW553/V1_MQTT_OK/GD32VW55X_Wifi_BLE_SDK/GD32VW55x_RELEASE_V1.0.2/MSDK/wpa_supplicant/src/tls\pkcs5.c **** 
 1007              		.loc 2 119 2
 132:C:/Users/stapi/OneDrive/Desktop/GD32VW553/V1_MQTT_OK/GD32VW55X_Wifi_BLE_SDK/GD32VW55x_RELEASE_V1.0.2/MSDK/wpa_supplicant/src/tls\pkcs5.c **** 	    !asn1_is_sequence(&hdr)) {
 1008              		.loc 2 132 2
 132:C:/Users/stapi/OneDrive/Desktop/GD32VW553/V1_MQTT_OK/GD32VW55X_Wifi_BLE_SDK/GD32VW55x_RELEASE_V1.0.2/MSDK/wpa_supplicant/src/tls\pkcs5.c **** 	    !asn1_is_sequence(&hdr)) {
 1009              		.loc 2 132 6 is_stmt 0
 1010 010e 97000000 		call	asn1_get_next
 1010      E7800000 
 1011              	.LVL106:
 132:C:/Users/stapi/OneDrive/Desktop/GD32VW553/V1_MQTT_OK/GD32VW55X_Wifi_BLE_SDK/GD32VW55x_RELEASE_V1.0.2/MSDK/wpa_supplicant/src/tls\pkcs5.c **** 	    !asn1_is_sequence(&hdr)) {
 1012              		.loc 2 132 5
 1013 0116 63570502 		bge	a0,zero,.L161
 1014              	.L69:
 134:C:/Users/stapi/OneDrive/Desktop/GD32VW553/V1_MQTT_OK/GD32VW55X_Wifi_BLE_SDK/GD32VW55x_RELEASE_V1.0.2/MSDK/wpa_supplicant/src/tls\pkcs5.c **** 				"PKCS #5: Expected SEQUENCE (PBES2-params)");
 1015              		.loc 2 134 3 is_stmt 1
 1016 011a B7050000 		lui	a1,%hi(.LC3)
 1017 011e 93850500 		addi	a1,a1,%lo(.LC3)
 1018              	.LVL107:
 1019              	.L181:
 143:C:/Users/stapi/OneDrive/Desktop/GD32VW553/V1_MQTT_OK/GD32VW55X_Wifi_BLE_SDK/GD32VW55x_RELEASE_V1.0.2/MSDK/wpa_supplicant/src/tls\pkcs5.c **** 				"PKCS #5: Expected SEQUENCE (keyDerivationFunc)");
 1020              		.loc 2 143 3 is_stmt 0
 1021 0122 2800     		addi	a0,sp,8
 1022              	.LVL108:
 1023              	.L173:
 1024              	.LBE77:
 1025              	.LBE91:
 402:C:/Users/stapi/OneDrive/Desktop/GD32VW553/V1_MQTT_OK/GD32VW55X_Wifi_BLE_SDK/GD32VW55x_RELEASE_V1.0.2/MSDK/wpa_supplicant/src/tls\pkcs5.c **** 		return -1;
 1026              		.loc 2 402 3
 1027 0124 97000000 		call	asn1_unexpected
 1027      E7800000 
 1028              	.LVL109:
 403:C:/Users/stapi/OneDrive/Desktop/GD32VW553/V1_MQTT_OK/GD32VW55X_Wifi_BLE_SDK/GD32VW55x_RELEASE_V1.0.2/MSDK/wpa_supplicant/src/tls\pkcs5.c **** 	}
 1029              		.loc 2 403 3 is_stmt 1
 1030 012c 0DB7     		j	.L64
 1031              	.LVL110:
 1032              	.L68:
 353:C:/Users/stapi/OneDrive/Desktop/GD32VW553/V1_MQTT_OK/GD32VW55X_Wifi_BLE_SDK/GD32VW55x_RELEASE_V1.0.2/MSDK/wpa_supplicant/src/tls\pkcs5.c **** 			   "algorithm %s", obuf);
 1033              		.loc 2 353 3 is_stmt 0
 1034 012e B7050000 		lui	a1,%hi(.LC2)
 351:C:/Users/stapi/OneDrive/Desktop/GD32VW553/V1_MQTT_OK/GD32VW55X_Wifi_BLE_SDK/GD32VW55x_RELEASE_V1.0.2/MSDK/wpa_supplicant/src/tls\pkcs5.c **** 	if (params->alg == PKCS5_ALG_UNKNOWN) {
 1035              		.loc 2 351 14
 1036 0132 23200116 		sw	zero,352(sp)
 352:C:/Users/stapi/OneDrive/Desktop/GD32VW553/V1_MQTT_OK/GD32VW55X_Wifi_BLE_SDK/GD32VW55x_RELEASE_V1.0.2/MSDK/wpa_supplicant/src/tls\pkcs5.c **** 		wpa_printf(MSG_INFO, "PKCS #5: unsupported encryption "
 1037              		.loc 2 352 2 is_stmt 1
 353:C:/Users/stapi/OneDrive/Desktop/GD32VW553/V1_MQTT_OK/GD32VW55X_Wifi_BLE_SDK/GD32VW55x_RELEASE_V1.0.2/MSDK/wpa_supplicant/src/tls\pkcs5.c **** 			   "algorithm %s", obuf);
 1038              		.loc 2 353 3
 1039 0136 3008     		addi	a2,sp,24
 1040 0138 93850500 		addi	a1,a1,%lo(.LC2)
 1041              	.LVL111:
 1042              	.L172:
 420:C:/Users/stapi/OneDrive/Desktop/GD32VW553/V1_MQTT_OK/GD32VW55X_Wifi_BLE_SDK/GD32VW55x_RELEASE_V1.0.2/MSDK/wpa_supplicant/src/tls\pkcs5.c **** 			   "iterationCount=0x%x", params->iter_count);
 1043              		.loc 2 420 3 is_stmt 0
 1044 013c 0D45     		li	a0,3
 1045 013e 71A8     		j	.L174
 1046              	.LVL112:
 1047              	.L65:
 351:C:/Users/stapi/OneDrive/Desktop/GD32VW553/V1_MQTT_OK/GD32VW55X_Wifi_BLE_SDK/GD32VW55x_RELEASE_V1.0.2/MSDK/wpa_supplicant/src/tls\pkcs5.c **** 	if (params->alg == PKCS5_ALG_UNKNOWN) {
 1048              		.loc 2 351 14
 1049 0140 8547     		li	a5,1
 1050 0142 69B7     		j	.L178
 1051              	.LVL113:
 1052              	.L161:
 1053              	.LBB92:
 1054              	.LBB78:
 133:C:/Users/stapi/OneDrive/Desktop/GD32VW553/V1_MQTT_OK/GD32VW55X_Wifi_BLE_SDK/GD32VW55x_RELEASE_V1.0.2/MSDK/wpa_supplicant/src/tls\pkcs5.c **** 		asn1_unexpected(&hdr,
 1055              		.loc 2 133 7
 1056 0144 2800     		addi	a0,sp,8
 1057 0146 97000000 		call	asn1_is_sequence
 1057      E7800000 
 1058              	.LVL114:
 132:C:/Users/stapi/OneDrive/Desktop/GD32VW553/V1_MQTT_OK/GD32VW55X_Wifi_BLE_SDK/GD32VW55x_RELEASE_V1.0.2/MSDK/wpa_supplicant/src/tls\pkcs5.c **** 	    !asn1_is_sequence(&hdr)) {
 1059              		.loc 2 132 54
 1060 014e 71D5     		beq	a0,zero,.L69
 138:C:/Users/stapi/OneDrive/Desktop/GD32VW553/V1_MQTT_OK/GD32VW55X_Wifi_BLE_SDK/GD32VW55x_RELEASE_V1.0.2/MSDK/wpa_supplicant/src/tls\pkcs5.c **** 	end = hdr.payload + hdr.length;
 1061              		.loc 2 138 2 is_stmt 1
 138:C:/Users/stapi/OneDrive/Desktop/GD32VW553/V1_MQTT_OK/GD32VW55X_Wifi_BLE_SDK/GD32VW55x_RELEASE_V1.0.2/MSDK/wpa_supplicant/src/tls\pkcs5.c **** 	end = hdr.payload + hdr.length;
 1062              		.loc 2 138 11 is_stmt 0
 1063 0150 2245     		lw	a0,8(sp)
 141:C:/Users/stapi/OneDrive/Desktop/GD32VW553/V1_MQTT_OK/GD32VW55X_Wifi_BLE_SDK/GD32VW55x_RELEASE_V1.0.2/MSDK/wpa_supplicant/src/tls\pkcs5.c **** 	    !asn1_is_sequence(&hdr)) {
 1064              		.loc 2 141 6
 1065 0152 D245     		lw	a1,20(sp)
 1066 0154 3000     		addi	a2,sp,8
 138:C:/Users/stapi/OneDrive/Desktop/GD32VW553/V1_MQTT_OK/GD32VW55X_Wifi_BLE_SDK/GD32VW55x_RELEASE_V1.0.2/MSDK/wpa_supplicant/src/tls\pkcs5.c **** 	end = hdr.payload + hdr.length;
 1067              		.loc 2 138 6
 1068 0156 2AC2     		sw	a0,4(sp)
 139:C:/Users/stapi/OneDrive/Desktop/GD32VW553/V1_MQTT_OK/GD32VW55X_Wifi_BLE_SDK/GD32VW55x_RELEASE_V1.0.2/MSDK/wpa_supplicant/src/tls\pkcs5.c **** 
 1069              		.loc 2 139 2 is_stmt 1
 1070              	.LVL115:
 141:C:/Users/stapi/OneDrive/Desktop/GD32VW553/V1_MQTT_OK/GD32VW55X_Wifi_BLE_SDK/GD32VW55x_RELEASE_V1.0.2/MSDK/wpa_supplicant/src/tls\pkcs5.c **** 	    !asn1_is_sequence(&hdr)) {
 1071              		.loc 2 141 2
 141:C:/Users/stapi/OneDrive/Desktop/GD32VW553/V1_MQTT_OK/GD32VW55X_Wifi_BLE_SDK/GD32VW55x_RELEASE_V1.0.2/MSDK/wpa_supplicant/src/tls\pkcs5.c **** 	    !asn1_is_sequence(&hdr)) {
 1072              		.loc 2 141 6 is_stmt 0
 1073 0158 97000000 		call	asn1_get_next
 1073      E7800000 
 1074              	.LVL116:
 141:C:/Users/stapi/OneDrive/Desktop/GD32VW553/V1_MQTT_OK/GD32VW55X_Wifi_BLE_SDK/GD32VW55x_RELEASE_V1.0.2/MSDK/wpa_supplicant/src/tls\pkcs5.c **** 	    !asn1_is_sequence(&hdr)) {
 1075              		.loc 2 141 5
 1076 0160 63480500 		blt	a0,zero,.L72
 142:C:/Users/stapi/OneDrive/Desktop/GD32VW553/V1_MQTT_OK/GD32VW55X_Wifi_BLE_SDK/GD32VW55x_RELEASE_V1.0.2/MSDK/wpa_supplicant/src/tls\pkcs5.c **** 		asn1_unexpected(&hdr,
 1077              		.loc 2 142 7
 1078 0164 2800     		addi	a0,sp,8
 1079 0166 97000000 		call	asn1_is_sequence
 1079      E7800000 
 1080              	.LVL117:
 141:C:/Users/stapi/OneDrive/Desktop/GD32VW553/V1_MQTT_OK/GD32VW55X_Wifi_BLE_SDK/GD32VW55x_RELEASE_V1.0.2/MSDK/wpa_supplicant/src/tls\pkcs5.c **** 	    !asn1_is_sequence(&hdr)) {
 1081              		.loc 2 141 46
 1082 016e 11E5     		bne	a0,zero,.L73
 1083              	.L72:
 143:C:/Users/stapi/OneDrive/Desktop/GD32VW553/V1_MQTT_OK/GD32VW55X_Wifi_BLE_SDK/GD32VW55x_RELEASE_V1.0.2/MSDK/wpa_supplicant/src/tls\pkcs5.c **** 				"PKCS #5: Expected SEQUENCE (keyDerivationFunc)");
 1084              		.loc 2 143 3 is_stmt 1
 1085 0170 B7050000 		lui	a1,%hi(.LC4)
 1086 0174 93850500 		addi	a1,a1,%lo(.LC4)
 1087 0178 6DB7     		j	.L181
 1088              	.L73:
 148:C:/Users/stapi/OneDrive/Desktop/GD32VW553/V1_MQTT_OK/GD32VW55X_Wifi_BLE_SDK/GD32VW55x_RELEASE_V1.0.2/MSDK/wpa_supplicant/src/tls\pkcs5.c **** 	kdf_end = end = hdr.payload + hdr.length;
 1089              		.loc 2 148 2
 148:C:/Users/stapi/OneDrive/Desktop/GD32VW553/V1_MQTT_OK/GD32VW55X_Wifi_BLE_SDK/GD32VW55x_RELEASE_V1.0.2/MSDK/wpa_supplicant/src/tls\pkcs5.c **** 	kdf_end = end = hdr.payload + hdr.length;
 1090              		.loc 2 148 11 is_stmt 0
 1091 017a 2245     		lw	a0,8(sp)
 149:C:/Users/stapi/OneDrive/Desktop/GD32VW553/V1_MQTT_OK/GD32VW55X_Wifi_BLE_SDK/GD32VW55x_RELEASE_V1.0.2/MSDK/wpa_supplicant/src/tls\pkcs5.c **** 
 1092              		.loc 2 149 35
 1093 017c D245     		lw	a1,20(sp)
 151:C:/Users/stapi/OneDrive/Desktop/GD32VW553/V1_MQTT_OK/GD32VW55X_Wifi_BLE_SDK/GD32VW55x_RELEASE_V1.0.2/MSDK/wpa_supplicant/src/tls\pkcs5.c **** 		wpa_printf(MSG_DEBUG,
 1094              		.loc 2 151 6
 1095 017e 5400     		addi	a3,sp,4
 1096 0180 7002     		addi	a2,sp,268
 148:C:/Users/stapi/OneDrive/Desktop/GD32VW553/V1_MQTT_OK/GD32VW55X_Wifi_BLE_SDK/GD32VW55x_RELEASE_V1.0.2/MSDK/wpa_supplicant/src/tls\pkcs5.c **** 	kdf_end = end = hdr.payload + hdr.length;
 1097              		.loc 2 148 6
 1098 0182 2AC2     		sw	a0,4(sp)
 149:C:/Users/stapi/OneDrive/Desktop/GD32VW553/V1_MQTT_OK/GD32VW55X_Wifi_BLE_SDK/GD32VW55x_RELEASE_V1.0.2/MSDK/wpa_supplicant/src/tls\pkcs5.c **** 
 1099              		.loc 2 149 2 is_stmt 1
 149:C:/Users/stapi/OneDrive/Desktop/GD32VW553/V1_MQTT_OK/GD32VW55X_Wifi_BLE_SDK/GD32VW55x_RELEASE_V1.0.2/MSDK/wpa_supplicant/src/tls\pkcs5.c **** 
 1100              		.loc 2 149 16 is_stmt 0
 1101 0184 B304B500 		add	s1,a0,a1
 1102              	.LVL118:
 151:C:/Users/stapi/OneDrive/Desktop/GD32VW553/V1_MQTT_OK/GD32VW55X_Wifi_BLE_SDK/GD32VW55x_RELEASE_V1.0.2/MSDK/wpa_supplicant/src/tls\pkcs5.c **** 		wpa_printf(MSG_DEBUG,
 1103              		.loc 2 151 2 is_stmt 1
 151:C:/Users/stapi/OneDrive/Desktop/GD32VW553/V1_MQTT_OK/GD32VW55X_Wifi_BLE_SDK/GD32VW55x_RELEASE_V1.0.2/MSDK/wpa_supplicant/src/tls\pkcs5.c **** 		wpa_printf(MSG_DEBUG,
 1104              		.loc 2 151 6 is_stmt 0
 1105 0188 97000000 		call	asn1_get_oid
 1105      E7800000 
 1106              	.LVL119:
 151:C:/Users/stapi/OneDrive/Desktop/GD32VW553/V1_MQTT_OK/GD32VW55X_Wifi_BLE_SDK/GD32VW55x_RELEASE_V1.0.2/MSDK/wpa_supplicant/src/tls\pkcs5.c **** 		wpa_printf(MSG_DEBUG,
 1107              		.loc 2 151 5
 1108 0190 11C5     		beq	a0,zero,.L74
 152:C:/Users/stapi/OneDrive/Desktop/GD32VW553/V1_MQTT_OK/GD32VW55X_Wifi_BLE_SDK/GD32VW55x_RELEASE_V1.0.2/MSDK/wpa_supplicant/src/tls\pkcs5.c **** 			   "PKCS #5: Failed to parse OID (keyDerivationFunc algorithm)");
 1109              		.loc 2 152 3 is_stmt 1
 1110 0192 B7050000 		lui	a1,%hi(.LC5)
 1111 0196 93850500 		addi	a1,a1,%lo(.LC5)
 1112 019a 6DB5     		j	.L170
 1113              	.L74:
 157:C:/Users/stapi/OneDrive/Desktop/GD32VW553/V1_MQTT_OK/GD32VW55X_Wifi_BLE_SDK/GD32VW55x_RELEASE_V1.0.2/MSDK/wpa_supplicant/src/tls\pkcs5.c **** 	wpa_printf(MSG_DEBUG, "PKCS #5: PBES2 keyDerivationFunc algorithm %s",
 1114              		.loc 2 157 2
 1115 019c 13060005 		li	a2,80
 1116 01a0 AC10     		addi	a1,sp,104
 1117 01a2 6802     		addi	a0,sp,268
 1118 01a4 97000000 		call	asn1_oid_to_str
 1118      E7800000 
 1119              	.LVL120:
 158:C:/Users/stapi/OneDrive/Desktop/GD32VW553/V1_MQTT_OK/GD32VW55X_Wifi_BLE_SDK/GD32VW55x_RELEASE_V1.0.2/MSDK/wpa_supplicant/src/tls\pkcs5.c **** 		   obuf);
 1120              		.loc 2 158 2
 1121 01ac B7050000 		lui	a1,%hi(.LC6)
 1122 01b0 93850500 		addi	a1,a1,%lo(.LC6)
 1123 01b4 0945     		li	a0,2
 1124 01b6 B010     		addi	a2,sp,104
 1125 01b8 97000000 		call	wpa_printf
 1125      E7800000 
 1126              	.LVL121:
 160:C:/Users/stapi/OneDrive/Desktop/GD32VW553/V1_MQTT_OK/GD32VW55X_Wifi_BLE_SDK/GD32VW55x_RELEASE_V1.0.2/MSDK/wpa_supplicant/src/tls\pkcs5.c **** 		wpa_printf(MSG_DEBUG,
 1127              		.loc 2 160 2
 160:C:/Users/stapi/OneDrive/Desktop/GD32VW553/V1_MQTT_OK/GD32VW55X_Wifi_BLE_SDK/GD32VW55x_RELEASE_V1.0.2/MSDK/wpa_supplicant/src/tls\pkcs5.c **** 		wpa_printf(MSG_DEBUG,
 1128              		.loc 2 160 7 is_stmt 0
 1129 01c0 B145     		li	a1,12
 1130 01c2 6802     		addi	a0,sp,268
 1131 01c4 97000000 		call	pkcs5_is_oid
 1131      E7800000 
 1132              	.LVL122:
 160:C:/Users/stapi/OneDrive/Desktop/GD32VW553/V1_MQTT_OK/GD32VW55X_Wifi_BLE_SDK/GD32VW55x_RELEASE_V1.0.2/MSDK/wpa_supplicant/src/tls\pkcs5.c **** 		wpa_printf(MSG_DEBUG,
 1133              		.loc 2 160 5
 1134 01cc 01ED     		bne	a0,zero,.L75
 161:C:/Users/stapi/OneDrive/Desktop/GD32VW553/V1_MQTT_OK/GD32VW55X_Wifi_BLE_SDK/GD32VW55x_RELEASE_V1.0.2/MSDK/wpa_supplicant/src/tls\pkcs5.c **** 			   "PKCS #5: Unsupported PBES2 keyDerivationFunc algorithm %s",
 1135              		.loc 2 161 3 is_stmt 1
 1136 01ce B7050000 		lui	a1,%hi(.LC7)
 1137 01d2 B010     		addi	a2,sp,104
 1138 01d4 93850500 		addi	a1,a1,%lo(.LC7)
 1139              	.LVL123:
 1140              	.L182:
 267:C:/Users/stapi/OneDrive/Desktop/GD32VW553/V1_MQTT_OK/GD32VW55X_Wifi_BLE_SDK/GD32VW55x_RELEASE_V1.0.2/MSDK/wpa_supplicant/src/tls\pkcs5.c **** 				"PKCS #5: Unsupported PBES2 digest algorithm %s",
 1141              		.loc 2 267 4 is_stmt 0
 1142 01d8 0945     		li	a0,2
 1143              	.LVL124:
 1144              	.L174:
 1145              	.LBE78:
 1146              	.LBE92:
 420:C:/Users/stapi/OneDrive/Desktop/GD32VW553/V1_MQTT_OK/GD32VW55X_Wifi_BLE_SDK/GD32VW55x_RELEASE_V1.0.2/MSDK/wpa_supplicant/src/tls\pkcs5.c **** 			   "iterationCount=0x%x", params->iter_count);
 1147              		.loc 2 420 3
 1148 01da 97000000 		call	wpa_printf
 1148      E7800000 
 1149              	.LVL125:
 422:C:/Users/stapi/OneDrive/Desktop/GD32VW553/V1_MQTT_OK/GD32VW55X_Wifi_BLE_SDK/GD32VW55x_RELEASE_V1.0.2/MSDK/wpa_supplicant/src/tls\pkcs5.c **** 	}
 1150              		.loc 2 422 3 is_stmt 1
 1151 01e2 B5B5     		j	.L64
 1152              	.LVL126:
 1153              	.L75:
 1154              	.LBB93:
 1155              	.LBB79:
 182:C:/Users/stapi/OneDrive/Desktop/GD32VW553/V1_MQTT_OK/GD32VW55X_Wifi_BLE_SDK/GD32VW55x_RELEASE_V1.0.2/MSDK/wpa_supplicant/src/tls\pkcs5.c **** 	    !asn1_is_sequence(&hdr)) {
 1156              		.loc 2 182 2
 182:C:/Users/stapi/OneDrive/Desktop/GD32VW553/V1_MQTT_OK/GD32VW55X_Wifi_BLE_SDK/GD32VW55x_RELEASE_V1.0.2/MSDK/wpa_supplicant/src/tls\pkcs5.c **** 	    !asn1_is_sequence(&hdr)) {
 1157              		.loc 2 182 6 is_stmt 0
 1158 01e4 1245     		lw	a0,4(sp)
 1159 01e6 3000     		addi	a2,sp,8
 1160 01e8 B385A440 		sub	a1,s1,a0
 1161 01ec 97000000 		call	asn1_get_next
 1161      E7800000 
 1162              	.LVL127:
 182:C:/Users/stapi/OneDrive/Desktop/GD32VW553/V1_MQTT_OK/GD32VW55X_Wifi_BLE_SDK/GD32VW55x_RELEASE_V1.0.2/MSDK/wpa_supplicant/src/tls\pkcs5.c **** 	    !asn1_is_sequence(&hdr)) {
 1163              		.loc 2 182 5
 1164 01f4 63480500 		blt	a0,zero,.L76
 183:C:/Users/stapi/OneDrive/Desktop/GD32VW553/V1_MQTT_OK/GD32VW55X_Wifi_BLE_SDK/GD32VW55x_RELEASE_V1.0.2/MSDK/wpa_supplicant/src/tls\pkcs5.c **** 		asn1_unexpected(&hdr,
 1165              		.loc 2 183 7
 1166 01f8 2800     		addi	a0,sp,8
 1167 01fa 97000000 		call	asn1_is_sequence
 1167      E7800000 
 1168              	.LVL128:
 182:C:/Users/stapi/OneDrive/Desktop/GD32VW553/V1_MQTT_OK/GD32VW55X_Wifi_BLE_SDK/GD32VW55x_RELEASE_V1.0.2/MSDK/wpa_supplicant/src/tls\pkcs5.c **** 	    !asn1_is_sequence(&hdr)) {
 1169              		.loc 2 182 46
 1170 0202 11E5     		bne	a0,zero,.L77
 1171              	.L76:
 184:C:/Users/stapi/OneDrive/Desktop/GD32VW553/V1_MQTT_OK/GD32VW55X_Wifi_BLE_SDK/GD32VW55x_RELEASE_V1.0.2/MSDK/wpa_supplicant/src/tls\pkcs5.c **** 				"PKCS #5: Expected SEQUENCE (PBKDF2-params)");
 1172              		.loc 2 184 3 is_stmt 1
 1173 0204 B7050000 		lui	a1,%hi(.LC8)
 1174 0208 93850500 		addi	a1,a1,%lo(.LC8)
 1175 020c 19BF     		j	.L181
 1176              	.L77:
 189:C:/Users/stapi/OneDrive/Desktop/GD32VW553/V1_MQTT_OK/GD32VW55X_Wifi_BLE_SDK/GD32VW55x_RELEASE_V1.0.2/MSDK/wpa_supplicant/src/tls\pkcs5.c **** 	end = hdr.payload + hdr.length;
 1177              		.loc 2 189 2
 189:C:/Users/stapi/OneDrive/Desktop/GD32VW553/V1_MQTT_OK/GD32VW55X_Wifi_BLE_SDK/GD32VW55x_RELEASE_V1.0.2/MSDK/wpa_supplicant/src/tls\pkcs5.c **** 	end = hdr.payload + hdr.length;
 1178              		.loc 2 189 11 is_stmt 0
 1179 020e 2245     		lw	a0,8(sp)
 190:C:/Users/stapi/OneDrive/Desktop/GD32VW553/V1_MQTT_OK/GD32VW55X_Wifi_BLE_SDK/GD32VW55x_RELEASE_V1.0.2/MSDK/wpa_supplicant/src/tls\pkcs5.c **** 
 1180              		.loc 2 190 25
 1181 0210 D245     		lw	a1,20(sp)
 193:C:/Users/stapi/OneDrive/Desktop/GD32VW553/V1_MQTT_OK/GD32VW55X_Wifi_BLE_SDK/GD32VW55x_RELEASE_V1.0.2/MSDK/wpa_supplicant/src/tls\pkcs5.c **** 	    !asn1_is_octetstring(&hdr) ||
 1182              		.loc 2 193 6
 1183 0212 3000     		addi	a2,sp,8
 189:C:/Users/stapi/OneDrive/Desktop/GD32VW553/V1_MQTT_OK/GD32VW55X_Wifi_BLE_SDK/GD32VW55x_RELEASE_V1.0.2/MSDK/wpa_supplicant/src/tls\pkcs5.c **** 	end = hdr.payload + hdr.length;
 1184              		.loc 2 189 6
 1185 0214 2AC2     		sw	a0,4(sp)
 190:C:/Users/stapi/OneDrive/Desktop/GD32VW553/V1_MQTT_OK/GD32VW55X_Wifi_BLE_SDK/GD32VW55x_RELEASE_V1.0.2/MSDK/wpa_supplicant/src/tls\pkcs5.c **** 
 1186              		.loc 2 190 2 is_stmt 1
 190:C:/Users/stapi/OneDrive/Desktop/GD32VW553/V1_MQTT_OK/GD32VW55X_Wifi_BLE_SDK/GD32VW55x_RELEASE_V1.0.2/MSDK/wpa_supplicant/src/tls\pkcs5.c **** 
 1187              		.loc 2 190 6 is_stmt 0
 1188 0216 B30BB500 		add	s7,a0,a1
 1189              	.LVL129:
 193:C:/Users/stapi/OneDrive/Desktop/GD32VW553/V1_MQTT_OK/GD32VW55X_Wifi_BLE_SDK/GD32VW55x_RELEASE_V1.0.2/MSDK/wpa_supplicant/src/tls\pkcs5.c **** 	    !asn1_is_octetstring(&hdr) ||
 1190              		.loc 2 193 2 is_stmt 1
 193:C:/Users/stapi/OneDrive/Desktop/GD32VW553/V1_MQTT_OK/GD32VW55X_Wifi_BLE_SDK/GD32VW55x_RELEASE_V1.0.2/MSDK/wpa_supplicant/src/tls\pkcs5.c **** 	    !asn1_is_octetstring(&hdr) ||
 1191              		.loc 2 193 6 is_stmt 0
 1192 021a 97000000 		call	asn1_get_next
 1192      E7800000 
 1193              	.LVL130:
 193:C:/Users/stapi/OneDrive/Desktop/GD32VW553/V1_MQTT_OK/GD32VW55X_Wifi_BLE_SDK/GD32VW55x_RELEASE_V1.0.2/MSDK/wpa_supplicant/src/tls\pkcs5.c **** 	    !asn1_is_octetstring(&hdr) ||
 1194              		.loc 2 193 5
 1195 0222 634E0500 		blt	a0,zero,.L78
 1196              	.LVL131:
 1197              	.LBB68:
 1198              	.LBB69:
 117:C:/Users/stapi/OneDrive/Desktop/GD32VW553/V1_MQTT_OK/GD32VW55X_Wifi_BLE_SDK/GD32VW55x_RELEASE_V1.0.2/MSDK/wpa_supplicant/src/tls\asn1.h **** 
 118:C:/Users/stapi/OneDrive/Desktop/GD32VW553/V1_MQTT_OK/GD32VW55X_Wifi_BLE_SDK/GD32VW55x_RELEASE_V1.0.2/MSDK/wpa_supplicant/src/tls\asn1.h **** static inline bool asn1_is_set(const struct asn1_hdr *hdr)
 119:C:/Users/stapi/OneDrive/Desktop/GD32VW553/V1_MQTT_OK/GD32VW55X_Wifi_BLE_SDK/GD32VW55x_RELEASE_V1.0.2/MSDK/wpa_supplicant/src/tls\asn1.h **** {
 120:C:/Users/stapi/OneDrive/Desktop/GD32VW553/V1_MQTT_OK/GD32VW55X_Wifi_BLE_SDK/GD32VW55x_RELEASE_V1.0.2/MSDK/wpa_supplicant/src/tls\asn1.h **** 	return hdr->class == ASN1_CLASS_UNIVERSAL &&
 121:C:/Users/stapi/OneDrive/Desktop/GD32VW553/V1_MQTT_OK/GD32VW55X_Wifi_BLE_SDK/GD32VW55x_RELEASE_V1.0.2/MSDK/wpa_supplicant/src/tls\asn1.h **** 		hdr->tag == ASN1_TAG_SET;
 122:C:/Users/stapi/OneDrive/Desktop/GD32VW553/V1_MQTT_OK/GD32VW55X_Wifi_BLE_SDK/GD32VW55x_RELEASE_V1.0.2/MSDK/wpa_supplicant/src/tls\asn1.h **** }
 123:C:/Users/stapi/OneDrive/Desktop/GD32VW553/V1_MQTT_OK/GD32VW55X_Wifi_BLE_SDK/GD32VW55x_RELEASE_V1.0.2/MSDK/wpa_supplicant/src/tls\asn1.h **** 
 124:C:/Users/stapi/OneDrive/Desktop/GD32VW553/V1_MQTT_OK/GD32VW55X_Wifi_BLE_SDK/GD32VW55x_RELEASE_V1.0.2/MSDK/wpa_supplicant/src/tls\asn1.h **** static inline bool asn1_is_octetstring(const struct asn1_hdr *hdr)
 125:C:/Users/stapi/OneDrive/Desktop/GD32VW553/V1_MQTT_OK/GD32VW55X_Wifi_BLE_SDK/GD32VW55x_RELEASE_V1.0.2/MSDK/wpa_supplicant/src/tls\asn1.h **** {
 126:C:/Users/stapi/OneDrive/Desktop/GD32VW553/V1_MQTT_OK/GD32VW55X_Wifi_BLE_SDK/GD32VW55x_RELEASE_V1.0.2/MSDK/wpa_supplicant/src/tls\asn1.h **** 	return hdr->class == ASN1_CLASS_UNIVERSAL &&
 1199              		.loc 1 126 2 is_stmt 1
 1200              		.loc 1 126 44 is_stmt 0
 1201 0226 8347D100 		lbu	a5,13(sp)
 1202 022a 91EB     		bne	a5,zero,.L78
 1203 022c 424B     		lw	s6,16(sp)
 1204              	.LVL132:
 1205 022e 9147     		li	a5,4
 1206 0230 6317FB00 		bne	s6,a5,.L78
 1207              	.LVL133:
 1208              	.LBE69:
 1209              	.LBE68:
 195:C:/Users/stapi/OneDrive/Desktop/GD32VW553/V1_MQTT_OK/GD32VW55X_Wifi_BLE_SDK/GD32VW55x_RELEASE_V1.0.2/MSDK/wpa_supplicant/src/tls\pkcs5.c **** 		asn1_unexpected(&hdr,
 1210              		.loc 2 195 9
 1211 0234 5246     		lw	a2,20(sp)
 194:C:/Users/stapi/OneDrive/Desktop/GD32VW553/V1_MQTT_OK/GD32VW55X_Wifi_BLE_SDK/GD32VW55x_RELEASE_V1.0.2/MSDK/wpa_supplicant/src/tls\pkcs5.c **** 	    hdr.length > sizeof(params->salt)) {
 1212              		.loc 2 194 33
 1213 0236 93070004 		li	a5,64
 1214 023a 63F7C700 		bleu	a2,a5,.L79
 1215              	.L78:
 196:C:/Users/stapi/OneDrive/Desktop/GD32VW553/V1_MQTT_OK/GD32VW55X_Wifi_BLE_SDK/GD32VW55x_RELEASE_V1.0.2/MSDK/wpa_supplicant/src/tls\pkcs5.c **** 				"PKCS #5: Expected OCTET STRING (salt.specified)");
 1216              		.loc 2 196 3 is_stmt 1
 1217 023e B7050000 		lui	a1,%hi(.LC9)
 1218 0242 93850500 		addi	a1,a1,%lo(.LC9)
 1219 0246 F1BD     		j	.L181
 1220              	.L79:
 200:C:/Users/stapi/OneDrive/Desktop/GD32VW553/V1_MQTT_OK/GD32VW55X_Wifi_BLE_SDK/GD32VW55x_RELEASE_V1.0.2/MSDK/wpa_supplicant/src/tls\pkcs5.c **** 	os_memcpy(params->salt, hdr.payload, hdr.length);
 1221              		.loc 2 200 2
 200:C:/Users/stapi/OneDrive/Desktop/GD32VW553/V1_MQTT_OK/GD32VW55X_Wifi_BLE_SDK/GD32VW55x_RELEASE_V1.0.2/MSDK/wpa_supplicant/src/tls\pkcs5.c **** 	os_memcpy(params->salt, hdr.payload, hdr.length);
 1222              		.loc 2 200 11 is_stmt 0
 1223 0248 A245     		lw	a1,8(sp)
 201:C:/Users/stapi/OneDrive/Desktop/GD32VW553/V1_MQTT_OK/GD32VW55X_Wifi_BLE_SDK/GD32VW55x_RELEASE_V1.0.2/MSDK/wpa_supplicant/src/tls\pkcs5.c **** 	params->salt_len = hdr.length;
 1224              		.loc 2 201 2
 1225 024a C812     		addi	a0,sp,356
 200:C:/Users/stapi/OneDrive/Desktop/GD32VW553/V1_MQTT_OK/GD32VW55X_Wifi_BLE_SDK/GD32VW55x_RELEASE_V1.0.2/MSDK/wpa_supplicant/src/tls\pkcs5.c **** 	os_memcpy(params->salt, hdr.payload, hdr.length);
 1226              		.loc 2 200 20
 1227 024c B387C500 		add	a5,a1,a2
 200:C:/Users/stapi/OneDrive/Desktop/GD32VW553/V1_MQTT_OK/GD32VW55X_Wifi_BLE_SDK/GD32VW55x_RELEASE_V1.0.2/MSDK/wpa_supplicant/src/tls\pkcs5.c **** 	os_memcpy(params->salt, hdr.payload, hdr.length);
 1228              		.loc 2 200 6
 1229 0250 3EC2     		sw	a5,4(sp)
 201:C:/Users/stapi/OneDrive/Desktop/GD32VW553/V1_MQTT_OK/GD32VW55X_Wifi_BLE_SDK/GD32VW55x_RELEASE_V1.0.2/MSDK/wpa_supplicant/src/tls\pkcs5.c **** 	params->salt_len = hdr.length;
 1230              		.loc 2 201 2 is_stmt 1
 1231 0252 97000000 		call	os_memcpy
 1231      E7800000 
 1232              	.LVL134:
 202:C:/Users/stapi/OneDrive/Desktop/GD32VW553/V1_MQTT_OK/GD32VW55X_Wifi_BLE_SDK/GD32VW55x_RELEASE_V1.0.2/MSDK/wpa_supplicant/src/tls\pkcs5.c **** 	wpa_hexdump(MSG_DEBUG, "PKCS #5: salt", params->salt, params->salt_len);
 1233              		.loc 2 202 2
 202:C:/Users/stapi/OneDrive/Desktop/GD32VW553/V1_MQTT_OK/GD32VW55X_Wifi_BLE_SDK/GD32VW55x_RELEASE_V1.0.2/MSDK/wpa_supplicant/src/tls\pkcs5.c **** 	wpa_hexdump(MSG_DEBUG, "PKCS #5: salt", params->salt, params->salt_len);
 1234              		.loc 2 202 24 is_stmt 0
 1235 025a D246     		lw	a3,20(sp)
 203:C:/Users/stapi/OneDrive/Desktop/GD32VW553/V1_MQTT_OK/GD32VW55X_Wifi_BLE_SDK/GD32VW55x_RELEASE_V1.0.2/MSDK/wpa_supplicant/src/tls\pkcs5.c **** 
 1236              		.loc 2 203 2
 1237 025c B7050000 		lui	a1,%hi(.LC10)
 1238 0260 D012     		addi	a2,sp,356
 1239 0262 93850500 		addi	a1,a1,%lo(.LC10)
 1240 0266 0945     		li	a0,2
 202:C:/Users/stapi/OneDrive/Desktop/GD32VW553/V1_MQTT_OK/GD32VW55X_Wifi_BLE_SDK/GD32VW55x_RELEASE_V1.0.2/MSDK/wpa_supplicant/src/tls\pkcs5.c **** 	wpa_hexdump(MSG_DEBUG, "PKCS #5: salt", params->salt, params->salt_len);
 1241              		.loc 2 202 19
 1242 0268 2322D11A 		sw	a3,420(sp)
 203:C:/Users/stapi/OneDrive/Desktop/GD32VW553/V1_MQTT_OK/GD32VW55X_Wifi_BLE_SDK/GD32VW55x_RELEASE_V1.0.2/MSDK/wpa_supplicant/src/tls\pkcs5.c **** 
 1243              		.loc 2 203 2 is_stmt 1
 1244 026c 97000000 		call	wpa_hexdump
 1244      E7800000 
 1245              	.LVL135:
 206:C:/Users/stapi/OneDrive/Desktop/GD32VW553/V1_MQTT_OK/GD32VW55X_Wifi_BLE_SDK/GD32VW55x_RELEASE_V1.0.2/MSDK/wpa_supplicant/src/tls\pkcs5.c **** 		asn1_unexpected(&hdr, "PKCS #5: Expected INTEGER");
 1246              		.loc 2 206 2
 206:C:/Users/stapi/OneDrive/Desktop/GD32VW553/V1_MQTT_OK/GD32VW55X_Wifi_BLE_SDK/GD32VW55x_RELEASE_V1.0.2/MSDK/wpa_supplicant/src/tls\pkcs5.c **** 		asn1_unexpected(&hdr, "PKCS #5: Expected INTEGER");
 1247              		.loc 2 206 6 is_stmt 0
 1248 0274 1245     		lw	a0,4(sp)
 1249 0276 3000     		addi	a2,sp,8
 1250 0278 B385AB40 		sub	a1,s7,a0
 1251 027c 97000000 		call	asn1_get_next
 1251      E7800000 
 1252              	.LVL136:
 206:C:/Users/stapi/OneDrive/Desktop/GD32VW553/V1_MQTT_OK/GD32VW55X_Wifi_BLE_SDK/GD32VW55x_RELEASE_V1.0.2/MSDK/wpa_supplicant/src/tls\pkcs5.c **** 		asn1_unexpected(&hdr, "PKCS #5: Expected INTEGER");
 1253              		.loc 2 206 5
 1254 0284 634A0504 		blt	a0,zero,.L80
 1255              	.LVL137:
 1256              	.LBB70:
 1257              	.LBB71:
 102:C:/Users/stapi/OneDrive/Desktop/GD32VW553/V1_MQTT_OK/GD32VW55X_Wifi_BLE_SDK/GD32VW55x_RELEASE_V1.0.2/MSDK/wpa_supplicant/src/tls\asn1.h **** 		hdr->tag == ASN1_TAG_INTEGER;
 1258              		.loc 1 102 2 is_stmt 1
 102:C:/Users/stapi/OneDrive/Desktop/GD32VW553/V1_MQTT_OK/GD32VW55X_Wifi_BLE_SDK/GD32VW55x_RELEASE_V1.0.2/MSDK/wpa_supplicant/src/tls\asn1.h **** 		hdr->tag == ASN1_TAG_INTEGER;
 1259              		.loc 1 102 44 is_stmt 0
 1260 0288 8347D100 		lbu	a5,13(sp)
 1261 028c B1E7     		bne	a5,zero,.L80
 1262 028e C247     		lw	a5,16(sp)
 1263 0290 0947     		li	a4,2
 1264 0292 6393E704 		bne	a5,a4,.L80
 1265              	.LVL138:
 1266              	.LBE71:
 1267              	.LBE70:
 210:C:/Users/stapi/OneDrive/Desktop/GD32VW553/V1_MQTT_OK/GD32VW55X_Wifi_BLE_SDK/GD32VW55x_RELEASE_V1.0.2/MSDK/wpa_supplicant/src/tls\pkcs5.c **** 		params->iter_count = *hdr.payload;
 1268              		.loc 2 210 2 is_stmt 1
 210:C:/Users/stapi/OneDrive/Desktop/GD32VW553/V1_MQTT_OK/GD32VW55X_Wifi_BLE_SDK/GD32VW55x_RELEASE_V1.0.2/MSDK/wpa_supplicant/src/tls\pkcs5.c **** 		params->iter_count = *hdr.payload;
 1269              		.loc 2 210 9 is_stmt 0
 1270 0296 D246     		lw	a3,20(sp)
 210:C:/Users/stapi/OneDrive/Desktop/GD32VW553/V1_MQTT_OK/GD32VW55X_Wifi_BLE_SDK/GD32VW55x_RELEASE_V1.0.2/MSDK/wpa_supplicant/src/tls\pkcs5.c **** 		params->iter_count = *hdr.payload;
 1271              		.loc 2 210 5
 1272 0298 0547     		li	a4,1
 211:C:/Users/stapi/OneDrive/Desktop/GD32VW553/V1_MQTT_OK/GD32VW55X_Wifi_BLE_SDK/GD32VW55x_RELEASE_V1.0.2/MSDK/wpa_supplicant/src/tls\pkcs5.c **** 	} else if (hdr.length == 2) {
 1273              		.loc 2 211 28
 1274 029a 2246     		lw	a2,8(sp)
 210:C:/Users/stapi/OneDrive/Desktop/GD32VW553/V1_MQTT_OK/GD32VW55X_Wifi_BLE_SDK/GD32VW55x_RELEASE_V1.0.2/MSDK/wpa_supplicant/src/tls\pkcs5.c **** 		params->iter_count = *hdr.payload;
 1275              		.loc 2 210 5
 1276 029c 6393E604 		bne	a3,a4,.L162
 211:C:/Users/stapi/OneDrive/Desktop/GD32VW553/V1_MQTT_OK/GD32VW55X_Wifi_BLE_SDK/GD32VW55x_RELEASE_V1.0.2/MSDK/wpa_supplicant/src/tls\pkcs5.c **** 	} else if (hdr.length == 2) {
 1277              		.loc 2 211 3 is_stmt 1
 211:C:/Users/stapi/OneDrive/Desktop/GD32VW553/V1_MQTT_OK/GD32VW55X_Wifi_BLE_SDK/GD32VW55x_RELEASE_V1.0.2/MSDK/wpa_supplicant/src/tls\pkcs5.c **** 	} else if (hdr.length == 2) {
 1278              		.loc 2 211 24 is_stmt 0
 1279 02a0 83470600 		lbu	a5,0(a2)
 1280              	.L167:
 215:C:/Users/stapi/OneDrive/Desktop/GD32VW553/V1_MQTT_OK/GD32VW55X_Wifi_BLE_SDK/GD32VW55x_RELEASE_V1.0.2/MSDK/wpa_supplicant/src/tls\pkcs5.c **** 	} else {
 1281              		.loc 2 215 22
 1282 02a4 2324F11A 		sw	a5,424(sp)
 222:C:/Users/stapi/OneDrive/Desktop/GD32VW553/V1_MQTT_OK/GD32VW55X_Wifi_BLE_SDK/GD32VW55x_RELEASE_V1.0.2/MSDK/wpa_supplicant/src/tls\pkcs5.c **** 		   params->iter_count);
 1283              		.loc 2 222 2 is_stmt 1
 1284 02a8 0326811A 		lw	a2,424(sp)
 1285 02ac B7050000 		lui	a1,%hi(.LC13)
 1286 02b0 93850500 		addi	a1,a1,%lo(.LC13)
 1287 02b4 0945     		li	a0,2
 1288 02b6 97000000 		call	wpa_printf
 1288      E7800000 
 1289              	.LVL139:
 224:C:/Users/stapi/OneDrive/Desktop/GD32VW553/V1_MQTT_OK/GD32VW55X_Wifi_BLE_SDK/GD32VW55x_RELEASE_V1.0.2/MSDK/wpa_supplicant/src/tls\pkcs5.c **** 		wpa_printf(MSG_INFO, "PKCS #5: Unsupported iterationCount=0x%x",
 1290              		.loc 2 224 2
 224:C:/Users/stapi/OneDrive/Desktop/GD32VW553/V1_MQTT_OK/GD32VW55X_Wifi_BLE_SDK/GD32VW55x_RELEASE_V1.0.2/MSDK/wpa_supplicant/src/tls\pkcs5.c **** 		wpa_printf(MSG_INFO, "PKCS #5: Unsupported iterationCount=0x%x",
 1291              		.loc 2 224 12 is_stmt 0
 1292 02be 0326811A 		lw	a2,424(sp)
 224:C:/Users/stapi/OneDrive/Desktop/GD32VW553/V1_MQTT_OK/GD32VW55X_Wifi_BLE_SDK/GD32VW55x_RELEASE_V1.0.2/MSDK/wpa_supplicant/src/tls\pkcs5.c **** 		wpa_printf(MSG_INFO, "PKCS #5: Unsupported iterationCount=0x%x",
 1293              		.loc 2 224 5
 1294 02c2 C167     		li	a5,65536
 1295 02c4 F917     		addi	a5,a5,-2
 224:C:/Users/stapi/OneDrive/Desktop/GD32VW553/V1_MQTT_OK/GD32VW55X_Wifi_BLE_SDK/GD32VW55x_RELEASE_V1.0.2/MSDK/wpa_supplicant/src/tls\pkcs5.c **** 		wpa_printf(MSG_INFO, "PKCS #5: Unsupported iterationCount=0x%x",
 1296              		.loc 2 224 30
 1297 02c6 1307F6FF 		addi	a4,a2,-1
 224:C:/Users/stapi/OneDrive/Desktop/GD32VW553/V1_MQTT_OK/GD32VW55X_Wifi_BLE_SDK/GD32VW55x_RELEASE_V1.0.2/MSDK/wpa_supplicant/src/tls\pkcs5.c **** 		wpa_printf(MSG_INFO, "PKCS #5: Unsupported iterationCount=0x%x",
 1298              		.loc 2 224 5
 1299 02ca 63F8E706 		bleu	a4,a5,.L86
 1300              	.LVL140:
 1301              	.L176:
 1302              	.LBE79:
 1303              	.LBE93:
 420:C:/Users/stapi/OneDrive/Desktop/GD32VW553/V1_MQTT_OK/GD32VW55X_Wifi_BLE_SDK/GD32VW55x_RELEASE_V1.0.2/MSDK/wpa_supplicant/src/tls\pkcs5.c **** 			   "iterationCount=0x%x", params->iter_count);
 1304              		.loc 2 420 3 is_stmt 1
 1305 02ce B7050000 		lui	a1,%hi(.LC14)
 1306 02d2 93850500 		addi	a1,a1,%lo(.LC14)
 1307 02d6 9DB5     		j	.L172
 1308              	.LVL141:
 1309              	.L80:
 1310              	.LBB94:
 1311              	.LBB80:
 207:C:/Users/stapi/OneDrive/Desktop/GD32VW553/V1_MQTT_OK/GD32VW55X_Wifi_BLE_SDK/GD32VW55x_RELEASE_V1.0.2/MSDK/wpa_supplicant/src/tls\pkcs5.c **** 		return -1;
 1312              		.loc 2 207 3
 1313 02d8 B7050000 		lui	a1,%hi(.LC11)
 1314 02dc 93850500 		addi	a1,a1,%lo(.LC11)
 1315 02e0 89B5     		j	.L181
 1316              	.L162:
 212:C:/Users/stapi/OneDrive/Desktop/GD32VW553/V1_MQTT_OK/GD32VW55X_Wifi_BLE_SDK/GD32VW55x_RELEASE_V1.0.2/MSDK/wpa_supplicant/src/tls\pkcs5.c **** 		params->iter_count = WPA_GET_BE16(hdr.payload);
 1317              		.loc 2 212 9
 212:C:/Users/stapi/OneDrive/Desktop/GD32VW553/V1_MQTT_OK/GD32VW55X_Wifi_BLE_SDK/GD32VW55x_RELEASE_V1.0.2/MSDK/wpa_supplicant/src/tls\pkcs5.c **** 		params->iter_count = WPA_GET_BE16(hdr.payload);
 1318              		.loc 2 212 12 is_stmt 0
 1319 02e2 639FF600 		bne	a3,a5,.L84
 213:C:/Users/stapi/OneDrive/Desktop/GD32VW553/V1_MQTT_OK/GD32VW55X_Wifi_BLE_SDK/GD32VW55x_RELEASE_V1.0.2/MSDK/wpa_supplicant/src/tls\pkcs5.c **** 	} else if (hdr.length == 4) {
 1320              		.loc 2 213 3 is_stmt 1
 1321              	.LVL142:
 1322              	.LBE80:
 1323              	.LBE94:
 1324              	.LBE105:
 1325              	.LBE114:
 1326              		.file 3 "..\\..\\..\\..\\wpa_supplicant\\src\\utils/common.h"
   1:..\..\..\..\wpa_supplicant\src\utils/common.h **** /*
   2:..\..\..\..\wpa_supplicant\src\utils/common.h ****  * wpa_supplicant/hostapd / common helper functions, etc.
   3:..\..\..\..\wpa_supplicant\src\utils/common.h ****  * Copyright (c) 2002-2007, Jouni Malinen <j@w1.fi>
   4:..\..\..\..\wpa_supplicant\src\utils/common.h ****  *
   5:..\..\..\..\wpa_supplicant\src\utils/common.h ****  * This software may be distributed under the terms of the BSD license.
   6:..\..\..\..\wpa_supplicant\src\utils/common.h ****  * See README for more details.
   7:..\..\..\..\wpa_supplicant\src\utils/common.h ****  */
   8:..\..\..\..\wpa_supplicant\src\utils/common.h **** 
   9:..\..\..\..\wpa_supplicant\src\utils/common.h **** #ifndef COMMON_H
  10:..\..\..\..\wpa_supplicant\src\utils/common.h **** #define COMMON_H
  11:..\..\..\..\wpa_supplicant\src\utils/common.h **** 
  12:..\..\..\..\wpa_supplicant\src\utils/common.h **** #include "os.h"
  13:..\..\..\..\wpa_supplicant\src\utils/common.h **** 
  14:..\..\..\..\wpa_supplicant\src\utils/common.h **** #if defined(__linux__) || defined(__GLIBC__)
  15:..\..\..\..\wpa_supplicant\src\utils/common.h **** #include <endian.h>
  16:..\..\..\..\wpa_supplicant\src\utils/common.h **** #include <byteswap.h>
  17:..\..\..\..\wpa_supplicant\src\utils/common.h **** #endif /* __linux__ */
  18:..\..\..\..\wpa_supplicant\src\utils/common.h **** 
  19:..\..\..\..\wpa_supplicant\src\utils/common.h **** #if defined(__FreeBSD__) || defined(__NetBSD__) || defined(__DragonFly__) || \
  20:..\..\..\..\wpa_supplicant\src\utils/common.h ****     defined(__OpenBSD__)
  21:..\..\..\..\wpa_supplicant\src\utils/common.h **** #include <sys/types.h>
  22:..\..\..\..\wpa_supplicant\src\utils/common.h **** #include <sys/endian.h>
  23:..\..\..\..\wpa_supplicant\src\utils/common.h **** #define __BYTE_ORDER	_BYTE_ORDER
  24:..\..\..\..\wpa_supplicant\src\utils/common.h **** #define	__LITTLE_ENDIAN	_LITTLE_ENDIAN
  25:..\..\..\..\wpa_supplicant\src\utils/common.h **** #define	__BIG_ENDIAN	_BIG_ENDIAN
  26:..\..\..\..\wpa_supplicant\src\utils/common.h **** #ifdef __OpenBSD__
  27:..\..\..\..\wpa_supplicant\src\utils/common.h **** #define bswap_16 swap16
  28:..\..\..\..\wpa_supplicant\src\utils/common.h **** #define bswap_32 swap32
  29:..\..\..\..\wpa_supplicant\src\utils/common.h **** #define bswap_64 swap64
  30:..\..\..\..\wpa_supplicant\src\utils/common.h **** #else /* __OpenBSD__ */
  31:..\..\..\..\wpa_supplicant\src\utils/common.h **** #define bswap_16 bswap16
  32:..\..\..\..\wpa_supplicant\src\utils/common.h **** #define bswap_32 bswap32
  33:..\..\..\..\wpa_supplicant\src\utils/common.h **** #define bswap_64 bswap64
  34:..\..\..\..\wpa_supplicant\src\utils/common.h **** #endif /* __OpenBSD__ */
  35:..\..\..\..\wpa_supplicant\src\utils/common.h **** #endif /* defined(__FreeBSD__) || defined(__NetBSD__) ||
  36:..\..\..\..\wpa_supplicant\src\utils/common.h **** 	* defined(__DragonFly__) || defined(__OpenBSD__) */
  37:..\..\..\..\wpa_supplicant\src\utils/common.h **** 
  38:..\..\..\..\wpa_supplicant\src\utils/common.h **** #ifdef __APPLE__
  39:..\..\..\..\wpa_supplicant\src\utils/common.h **** #include <sys/types.h>
  40:..\..\..\..\wpa_supplicant\src\utils/common.h **** #include <machine/endian.h>
  41:..\..\..\..\wpa_supplicant\src\utils/common.h **** #define __BYTE_ORDER	_BYTE_ORDER
  42:..\..\..\..\wpa_supplicant\src\utils/common.h **** #define __LITTLE_ENDIAN	_LITTLE_ENDIAN
  43:..\..\..\..\wpa_supplicant\src\utils/common.h **** #define __BIG_ENDIAN	_BIG_ENDIAN
  44:..\..\..\..\wpa_supplicant\src\utils/common.h **** static inline unsigned short bswap_16(unsigned short v)
  45:..\..\..\..\wpa_supplicant\src\utils/common.h **** {
  46:..\..\..\..\wpa_supplicant\src\utils/common.h **** 	return ((v & 0xff) << 8) | (v >> 8);
  47:..\..\..\..\wpa_supplicant\src\utils/common.h **** }
  48:..\..\..\..\wpa_supplicant\src\utils/common.h **** 
  49:..\..\..\..\wpa_supplicant\src\utils/common.h **** static inline unsigned int bswap_32(unsigned int v)
  50:..\..\..\..\wpa_supplicant\src\utils/common.h **** {
  51:..\..\..\..\wpa_supplicant\src\utils/common.h **** 	return ((v & 0xff) << 24) | ((v & 0xff00) << 8) |
  52:..\..\..\..\wpa_supplicant\src\utils/common.h **** 		((v & 0xff0000) >> 8) | (v >> 24);
  53:..\..\..\..\wpa_supplicant\src\utils/common.h **** }
  54:..\..\..\..\wpa_supplicant\src\utils/common.h **** #endif /* __APPLE__ */
  55:..\..\..\..\wpa_supplicant\src\utils/common.h **** 
  56:..\..\..\..\wpa_supplicant\src\utils/common.h **** #ifdef CONFIG_GDWIFI
  57:..\..\..\..\wpa_supplicant\src\utils/common.h **** // #include <sys/types.h>
  58:..\..\..\..\wpa_supplicant\src\utils/common.h **** // #include <machine/endian.h>
  59:..\..\..\..\wpa_supplicant\src\utils/common.h **** #define __BYTE_ORDER	BYTE_ORDER
  60:..\..\..\..\wpa_supplicant\src\utils/common.h **** #define __LITTLE_ENDIAN	LITTLE_ENDIAN
  61:..\..\..\..\wpa_supplicant\src\utils/common.h **** #define __BIG_ENDIAN	BIG_ENDIAN
  62:..\..\..\..\wpa_supplicant\src\utils/common.h **** #define ETHER_ADDR_LEN	6
  63:..\..\..\..\wpa_supplicant\src\utils/common.h **** #define ETH_P_802_3	0x0001		/* Dummy type for 802.3 frames  */
  64:..\..\..\..\wpa_supplicant\src\utils/common.h **** 
  65:..\..\..\..\wpa_supplicant\src\utils/common.h **** static inline unsigned short bswap_16(unsigned short v)
  66:..\..\..\..\wpa_supplicant\src\utils/common.h **** {
  67:..\..\..\..\wpa_supplicant\src\utils/common.h **** 	return ((v & 0xff) << 8) | (v >> 8);
  68:..\..\..\..\wpa_supplicant\src\utils/common.h **** }
  69:..\..\..\..\wpa_supplicant\src\utils/common.h **** 
  70:..\..\..\..\wpa_supplicant\src\utils/common.h **** static inline unsigned int bswap_32(unsigned int v)
  71:..\..\..\..\wpa_supplicant\src\utils/common.h **** {
  72:..\..\..\..\wpa_supplicant\src\utils/common.h **** 	return ((v & 0xff) << 24) | ((v & 0xff00) << 8) |
  73:..\..\..\..\wpa_supplicant\src\utils/common.h **** 		((v & 0xff0000) >> 8) | (v >> 24);
  74:..\..\..\..\wpa_supplicant\src\utils/common.h **** }
  75:..\..\..\..\wpa_supplicant\src\utils/common.h **** 
  76:..\..\..\..\wpa_supplicant\src\utils/common.h **** struct ether_header
  77:..\..\..\..\wpa_supplicant\src\utils/common.h **** {
  78:..\..\..\..\wpa_supplicant\src\utils/common.h **** 	uint8_t  ether_dhost[ETHER_ADDR_LEN];
  79:..\..\..\..\wpa_supplicant\src\utils/common.h **** 	uint8_t  ether_shost[ETHER_ADDR_LEN];
  80:..\..\..\..\wpa_supplicant\src\utils/common.h **** 	uint16_t ether_type;
  81:..\..\..\..\wpa_supplicant\src\utils/common.h **** } __PACKED;
  82:..\..\..\..\wpa_supplicant\src\utils/common.h **** #endif /* CONFIG_GDWIFI */
  83:..\..\..\..\wpa_supplicant\src\utils/common.h **** #ifdef __rtems__
  84:..\..\..\..\wpa_supplicant\src\utils/common.h **** #include <rtems/endian.h>
  85:..\..\..\..\wpa_supplicant\src\utils/common.h **** #define __BYTE_ORDER BYTE_ORDER
  86:..\..\..\..\wpa_supplicant\src\utils/common.h **** #define __LITTLE_ENDIAN LITTLE_ENDIAN
  87:..\..\..\..\wpa_supplicant\src\utils/common.h **** #define __BIG_ENDIAN BIG_ENDIAN
  88:..\..\..\..\wpa_supplicant\src\utils/common.h **** #define bswap_16 CPU_swap_u16
  89:..\..\..\..\wpa_supplicant\src\utils/common.h **** #define bswap_32 CPU_swap_u32
  90:..\..\..\..\wpa_supplicant\src\utils/common.h **** #endif /* __rtems__ */
  91:..\..\..\..\wpa_supplicant\src\utils/common.h **** 
  92:..\..\..\..\wpa_supplicant\src\utils/common.h **** #ifdef CONFIG_NATIVE_WINDOWS
  93:..\..\..\..\wpa_supplicant\src\utils/common.h **** #include <winsock.h>
  94:..\..\..\..\wpa_supplicant\src\utils/common.h **** 
  95:..\..\..\..\wpa_supplicant\src\utils/common.h **** typedef int socklen_t;
  96:..\..\..\..\wpa_supplicant\src\utils/common.h **** 
  97:..\..\..\..\wpa_supplicant\src\utils/common.h **** #ifndef MSG_DONTWAIT
  98:..\..\..\..\wpa_supplicant\src\utils/common.h **** #define MSG_DONTWAIT 0 /* not supported */
  99:..\..\..\..\wpa_supplicant\src\utils/common.h **** #endif
 100:..\..\..\..\wpa_supplicant\src\utils/common.h **** 
 101:..\..\..\..\wpa_supplicant\src\utils/common.h **** #endif /* CONFIG_NATIVE_WINDOWS */
 102:..\..\..\..\wpa_supplicant\src\utils/common.h **** 
 103:..\..\..\..\wpa_supplicant\src\utils/common.h **** #ifdef _MSC_VER
 104:..\..\..\..\wpa_supplicant\src\utils/common.h **** #define inline __inline
 105:..\..\..\..\wpa_supplicant\src\utils/common.h **** 
 106:..\..\..\..\wpa_supplicant\src\utils/common.h **** #undef vsnprintf
 107:..\..\..\..\wpa_supplicant\src\utils/common.h **** #define vsnprintf _vsnprintf
 108:..\..\..\..\wpa_supplicant\src\utils/common.h **** #undef close
 109:..\..\..\..\wpa_supplicant\src\utils/common.h **** #define close closesocket
 110:..\..\..\..\wpa_supplicant\src\utils/common.h **** #endif /* _MSC_VER */
 111:..\..\..\..\wpa_supplicant\src\utils/common.h **** 
 112:..\..\..\..\wpa_supplicant\src\utils/common.h **** 
 113:..\..\..\..\wpa_supplicant\src\utils/common.h **** /* Define platform specific integer types */
 114:..\..\..\..\wpa_supplicant\src\utils/common.h **** 
 115:..\..\..\..\wpa_supplicant\src\utils/common.h **** #ifdef _MSC_VER
 116:..\..\..\..\wpa_supplicant\src\utils/common.h **** typedef UINT64 u64;
 117:..\..\..\..\wpa_supplicant\src\utils/common.h **** typedef UINT32 u32;
 118:..\..\..\..\wpa_supplicant\src\utils/common.h **** typedef UINT16 u16;
 119:..\..\..\..\wpa_supplicant\src\utils/common.h **** typedef UINT8 u8;
 120:..\..\..\..\wpa_supplicant\src\utils/common.h **** typedef INT64 s64;
 121:..\..\..\..\wpa_supplicant\src\utils/common.h **** typedef INT32 s32;
 122:..\..\..\..\wpa_supplicant\src\utils/common.h **** typedef INT16 s16;
 123:..\..\..\..\wpa_supplicant\src\utils/common.h **** typedef INT8 s8;
 124:..\..\..\..\wpa_supplicant\src\utils/common.h **** #define WPA_TYPES_DEFINED
 125:..\..\..\..\wpa_supplicant\src\utils/common.h **** #endif /* _MSC_VER */
 126:..\..\..\..\wpa_supplicant\src\utils/common.h **** 
 127:..\..\..\..\wpa_supplicant\src\utils/common.h **** #ifdef __vxworks
 128:..\..\..\..\wpa_supplicant\src\utils/common.h **** typedef unsigned long long u64;
 129:..\..\..\..\wpa_supplicant\src\utils/common.h **** typedef UINT32 u32;
 130:..\..\..\..\wpa_supplicant\src\utils/common.h **** typedef UINT16 u16;
 131:..\..\..\..\wpa_supplicant\src\utils/common.h **** typedef UINT8 u8;
 132:..\..\..\..\wpa_supplicant\src\utils/common.h **** typedef long long s64;
 133:..\..\..\..\wpa_supplicant\src\utils/common.h **** typedef INT32 s32;
 134:..\..\..\..\wpa_supplicant\src\utils/common.h **** typedef INT16 s16;
 135:..\..\..\..\wpa_supplicant\src\utils/common.h **** typedef INT8 s8;
 136:..\..\..\..\wpa_supplicant\src\utils/common.h **** #define WPA_TYPES_DEFINED
 137:..\..\..\..\wpa_supplicant\src\utils/common.h **** #endif /* __vxworks */
 138:..\..\..\..\wpa_supplicant\src\utils/common.h **** 
 139:..\..\..\..\wpa_supplicant\src\utils/common.h **** #ifndef WPA_TYPES_DEFINED
 140:..\..\..\..\wpa_supplicant\src\utils/common.h **** #ifdef CONFIG_USE_INTTYPES_H
 141:..\..\..\..\wpa_supplicant\src\utils/common.h **** #include <inttypes.h>
 142:..\..\..\..\wpa_supplicant\src\utils/common.h **** #else
 143:..\..\..\..\wpa_supplicant\src\utils/common.h **** #include <stdint.h>
 144:..\..\..\..\wpa_supplicant\src\utils/common.h **** #endif
 145:..\..\..\..\wpa_supplicant\src\utils/common.h **** typedef uint64_t u64;
 146:..\..\..\..\wpa_supplicant\src\utils/common.h **** typedef uint32_t u32;
 147:..\..\..\..\wpa_supplicant\src\utils/common.h **** typedef uint16_t u16;
 148:..\..\..\..\wpa_supplicant\src\utils/common.h **** typedef uint8_t u8;
 149:..\..\..\..\wpa_supplicant\src\utils/common.h **** typedef int64_t s64;
 150:..\..\..\..\wpa_supplicant\src\utils/common.h **** typedef int32_t s32;
 151:..\..\..\..\wpa_supplicant\src\utils/common.h **** typedef int16_t s16;
 152:..\..\..\..\wpa_supplicant\src\utils/common.h **** typedef int8_t s8;
 153:..\..\..\..\wpa_supplicant\src\utils/common.h **** #define WPA_TYPES_DEFINED
 154:..\..\..\..\wpa_supplicant\src\utils/common.h **** #endif /* !WPA_TYPES_DEFINED */
 155:..\..\..\..\wpa_supplicant\src\utils/common.h **** 
 156:..\..\..\..\wpa_supplicant\src\utils/common.h **** 
 157:..\..\..\..\wpa_supplicant\src\utils/common.h **** /* Define platform specific byte swapping macros */
 158:..\..\..\..\wpa_supplicant\src\utils/common.h **** 
 159:..\..\..\..\wpa_supplicant\src\utils/common.h **** #if defined(__CYGWIN__) || defined(CONFIG_NATIVE_WINDOWS)
 160:..\..\..\..\wpa_supplicant\src\utils/common.h **** 
 161:..\..\..\..\wpa_supplicant\src\utils/common.h **** static inline unsigned short wpa_swap_16(unsigned short v)
 162:..\..\..\..\wpa_supplicant\src\utils/common.h **** {
 163:..\..\..\..\wpa_supplicant\src\utils/common.h **** 	return ((v & 0xff) << 8) | (v >> 8);
 164:..\..\..\..\wpa_supplicant\src\utils/common.h **** }
 165:..\..\..\..\wpa_supplicant\src\utils/common.h **** 
 166:..\..\..\..\wpa_supplicant\src\utils/common.h **** static inline unsigned int wpa_swap_32(unsigned int v)
 167:..\..\..\..\wpa_supplicant\src\utils/common.h **** {
 168:..\..\..\..\wpa_supplicant\src\utils/common.h **** 	return ((v & 0xff) << 24) | ((v & 0xff00) << 8) |
 169:..\..\..\..\wpa_supplicant\src\utils/common.h **** 		((v & 0xff0000) >> 8) | (v >> 24);
 170:..\..\..\..\wpa_supplicant\src\utils/common.h **** }
 171:..\..\..\..\wpa_supplicant\src\utils/common.h **** 
 172:..\..\..\..\wpa_supplicant\src\utils/common.h **** #define le_to_host16(n) (n)
 173:..\..\..\..\wpa_supplicant\src\utils/common.h **** #define host_to_le16(n) (n)
 174:..\..\..\..\wpa_supplicant\src\utils/common.h **** #define be_to_host16(n) wpa_swap_16(n)
 175:..\..\..\..\wpa_supplicant\src\utils/common.h **** #define host_to_be16(n) wpa_swap_16(n)
 176:..\..\..\..\wpa_supplicant\src\utils/common.h **** #define le_to_host32(n) (n)
 177:..\..\..\..\wpa_supplicant\src\utils/common.h **** #define host_to_le32(n) (n)
 178:..\..\..\..\wpa_supplicant\src\utils/common.h **** #define be_to_host32(n) wpa_swap_32(n)
 179:..\..\..\..\wpa_supplicant\src\utils/common.h **** #define host_to_be32(n) wpa_swap_32(n)
 180:..\..\..\..\wpa_supplicant\src\utils/common.h **** #define host_to_le64(n) (n)
 181:..\..\..\..\wpa_supplicant\src\utils/common.h **** 
 182:..\..\..\..\wpa_supplicant\src\utils/common.h **** #define WPA_BYTE_SWAP_DEFINED
 183:..\..\..\..\wpa_supplicant\src\utils/common.h **** 
 184:..\..\..\..\wpa_supplicant\src\utils/common.h **** #endif /* __CYGWIN__ || CONFIG_NATIVE_WINDOWS */
 185:..\..\..\..\wpa_supplicant\src\utils/common.h **** 
 186:..\..\..\..\wpa_supplicant\src\utils/common.h **** 
 187:..\..\..\..\wpa_supplicant\src\utils/common.h **** #ifndef WPA_BYTE_SWAP_DEFINED
 188:..\..\..\..\wpa_supplicant\src\utils/common.h **** 
 189:..\..\..\..\wpa_supplicant\src\utils/common.h **** #ifndef __BYTE_ORDER
 190:..\..\..\..\wpa_supplicant\src\utils/common.h **** #ifndef __LITTLE_ENDIAN
 191:..\..\..\..\wpa_supplicant\src\utils/common.h **** #ifndef __BIG_ENDIAN
 192:..\..\..\..\wpa_supplicant\src\utils/common.h **** #define __LITTLE_ENDIAN 1234
 193:..\..\..\..\wpa_supplicant\src\utils/common.h **** #define __BIG_ENDIAN 4321
 194:..\..\..\..\wpa_supplicant\src\utils/common.h **** #if defined(sparc)
 195:..\..\..\..\wpa_supplicant\src\utils/common.h **** #define __BYTE_ORDER __BIG_ENDIAN
 196:..\..\..\..\wpa_supplicant\src\utils/common.h **** #endif
 197:..\..\..\..\wpa_supplicant\src\utils/common.h **** #endif /* __BIG_ENDIAN */
 198:..\..\..\..\wpa_supplicant\src\utils/common.h **** #endif /* __LITTLE_ENDIAN */
 199:..\..\..\..\wpa_supplicant\src\utils/common.h **** #endif /* __BYTE_ORDER */
 200:..\..\..\..\wpa_supplicant\src\utils/common.h **** 
 201:..\..\..\..\wpa_supplicant\src\utils/common.h **** #if __BYTE_ORDER == __LITTLE_ENDIAN
 202:..\..\..\..\wpa_supplicant\src\utils/common.h **** #define le_to_host16(n) ((__force u16) (le16) (n))
 203:..\..\..\..\wpa_supplicant\src\utils/common.h **** #define host_to_le16(n) ((__force le16) (u16) (n))
 204:..\..\..\..\wpa_supplicant\src\utils/common.h **** #define be_to_host16(n) bswap_16((__force u16) (be16) (n))
 205:..\..\..\..\wpa_supplicant\src\utils/common.h **** #define host_to_be16(n) ((__force be16) bswap_16((n)))
 206:..\..\..\..\wpa_supplicant\src\utils/common.h **** #define le_to_host32(n) ((__force u32) (le32) (n))
 207:..\..\..\..\wpa_supplicant\src\utils/common.h **** #define host_to_le32(n) ((__force le32) (u32) (n))
 208:..\..\..\..\wpa_supplicant\src\utils/common.h **** #define be_to_host32(n) bswap_32((__force u32) (be32) (n))
 209:..\..\..\..\wpa_supplicant\src\utils/common.h **** #define host_to_be32(n) ((__force be32) bswap_32((n)))
 210:..\..\..\..\wpa_supplicant\src\utils/common.h **** #define le_to_host64(n) ((__force u64) (le64) (n))
 211:..\..\..\..\wpa_supplicant\src\utils/common.h **** #define host_to_le64(n) ((__force le64) (u64) (n))
 212:..\..\..\..\wpa_supplicant\src\utils/common.h **** #define be_to_host64(n) bswap_64((__force u64) (be64) (n))
 213:..\..\..\..\wpa_supplicant\src\utils/common.h **** #define host_to_be64(n) ((__force be64) bswap_64((n)))
 214:..\..\..\..\wpa_supplicant\src\utils/common.h **** #elif __BYTE_ORDER == __BIG_ENDIAN
 215:..\..\..\..\wpa_supplicant\src\utils/common.h **** #define le_to_host16(n) bswap_16(n)
 216:..\..\..\..\wpa_supplicant\src\utils/common.h **** #define host_to_le16(n) bswap_16(n)
 217:..\..\..\..\wpa_supplicant\src\utils/common.h **** #define be_to_host16(n) (n)
 218:..\..\..\..\wpa_supplicant\src\utils/common.h **** #define host_to_be16(n) (n)
 219:..\..\..\..\wpa_supplicant\src\utils/common.h **** #define le_to_host32(n) bswap_32(n)
 220:..\..\..\..\wpa_supplicant\src\utils/common.h **** #define host_to_le32(n) bswap_32(n)
 221:..\..\..\..\wpa_supplicant\src\utils/common.h **** #define be_to_host32(n) (n)
 222:..\..\..\..\wpa_supplicant\src\utils/common.h **** #define host_to_be32(n) (n)
 223:..\..\..\..\wpa_supplicant\src\utils/common.h **** #define le_to_host64(n) bswap_64(n)
 224:..\..\..\..\wpa_supplicant\src\utils/common.h **** #define host_to_le64(n) bswap_64(n)
 225:..\..\..\..\wpa_supplicant\src\utils/common.h **** #define be_to_host64(n) (n)
 226:..\..\..\..\wpa_supplicant\src\utils/common.h **** #define host_to_be64(n) (n)
 227:..\..\..\..\wpa_supplicant\src\utils/common.h **** #ifndef WORDS_BIGENDIAN
 228:..\..\..\..\wpa_supplicant\src\utils/common.h **** #define WORDS_BIGENDIAN
 229:..\..\..\..\wpa_supplicant\src\utils/common.h **** #endif
 230:..\..\..\..\wpa_supplicant\src\utils/common.h **** #else
 231:..\..\..\..\wpa_supplicant\src\utils/common.h **** #error Could not determine CPU byte order
 232:..\..\..\..\wpa_supplicant\src\utils/common.h **** #endif
 233:..\..\..\..\wpa_supplicant\src\utils/common.h **** 
 234:..\..\..\..\wpa_supplicant\src\utils/common.h **** #define WPA_BYTE_SWAP_DEFINED
 235:..\..\..\..\wpa_supplicant\src\utils/common.h **** #endif /* !WPA_BYTE_SWAP_DEFINED */
 236:..\..\..\..\wpa_supplicant\src\utils/common.h **** 
 237:..\..\..\..\wpa_supplicant\src\utils/common.h **** 
 238:..\..\..\..\wpa_supplicant\src\utils/common.h **** /* Macros for handling unaligned memory accesses */
 239:..\..\..\..\wpa_supplicant\src\utils/common.h **** 
 240:..\..\..\..\wpa_supplicant\src\utils/common.h **** static inline u16 WPA_GET_BE16(const u8 *a)
 241:..\..\..\..\wpa_supplicant\src\utils/common.h **** {
 242:..\..\..\..\wpa_supplicant\src\utils/common.h **** 	return (a[0] << 8) | a[1];
 1327              		.loc 3 242 2
 1328              	.LBB115:
 1329              	.LBB106:
 1330              	.LBB95:
 1331              	.LBB81:
 213:C:/Users/stapi/OneDrive/Desktop/GD32VW553/V1_MQTT_OK/GD32VW55X_Wifi_BLE_SDK/GD32VW55x_RELEASE_V1.0.2/MSDK/wpa_supplicant/src/tls\pkcs5.c **** 	} else if (hdr.length == 4) {
 1332              		.loc 2 213 24 is_stmt 0
 1333 02e6 83471600 		lbu	a5,1(a2)
 1334 02ea 03470600 		lbu	a4,0(a2)
 1335 02ee A207     		slli	a5,a5,8
 1336 02f0 D98F     		or	a5,a5,a4
 1337 02f2 13978700 		slli	a4,a5,8
 1338 02f6 A183     		srli	a5,a5,8
 1339 02f8 D98F     		or	a5,a4,a5
 1340 02fa B3C70708 		zext.h	a5,a5
 1341 02fe 5DB7     		j	.L167
 1342              	.L84:
 214:C:/Users/stapi/OneDrive/Desktop/GD32VW553/V1_MQTT_OK/GD32VW55X_Wifi_BLE_SDK/GD32VW55x_RELEASE_V1.0.2/MSDK/wpa_supplicant/src/tls\pkcs5.c **** 		params->iter_count = WPA_GET_BE32(hdr.payload);
 1343              		.loc 2 214 9 is_stmt 1
 214:C:/Users/stapi/OneDrive/Desktop/GD32VW553/V1_MQTT_OK/GD32VW55X_Wifi_BLE_SDK/GD32VW55x_RELEASE_V1.0.2/MSDK/wpa_supplicant/src/tls\pkcs5.c **** 		params->iter_count = WPA_GET_BE32(hdr.payload);
 1344              		.loc 2 214 12 is_stmt 0
 1345 0300 63936603 		bne	a3,s6,.L85
 215:C:/Users/stapi/OneDrive/Desktop/GD32VW553/V1_MQTT_OK/GD32VW55X_Wifi_BLE_SDK/GD32VW55x_RELEASE_V1.0.2/MSDK/wpa_supplicant/src/tls\pkcs5.c **** 	} else {
 1346              		.loc 2 215 3 is_stmt 1
 1347              	.LVL143:
 1348              	.LBE81:
 1349              	.LBE95:
 1350              	.LBE106:
 1351              	.LBE115:
 243:..\..\..\..\wpa_supplicant\src\utils/common.h **** }
 244:..\..\..\..\wpa_supplicant\src\utils/common.h **** 
 245:..\..\..\..\wpa_supplicant\src\utils/common.h **** static inline void WPA_PUT_BE16(u8 *a, u16 val)
 246:..\..\..\..\wpa_supplicant\src\utils/common.h **** {
 247:..\..\..\..\wpa_supplicant\src\utils/common.h **** 	a[0] = val >> 8;
 248:..\..\..\..\wpa_supplicant\src\utils/common.h **** 	a[1] = val & 0xff;
 249:..\..\..\..\wpa_supplicant\src\utils/common.h **** }
 250:..\..\..\..\wpa_supplicant\src\utils/common.h **** 
 251:..\..\..\..\wpa_supplicant\src\utils/common.h **** static inline u16 WPA_GET_LE16(const u8 *a)
 252:..\..\..\..\wpa_supplicant\src\utils/common.h **** {
 253:..\..\..\..\wpa_supplicant\src\utils/common.h **** 	return (a[1] << 8) | a[0];
 254:..\..\..\..\wpa_supplicant\src\utils/common.h **** }
 255:..\..\..\..\wpa_supplicant\src\utils/common.h **** 
 256:..\..\..\..\wpa_supplicant\src\utils/common.h **** static inline void WPA_PUT_LE16(u8 *a, u16 val)
 257:..\..\..\..\wpa_supplicant\src\utils/common.h **** {
 258:..\..\..\..\wpa_supplicant\src\utils/common.h **** 	a[1] = val >> 8;
 259:..\..\..\..\wpa_supplicant\src\utils/common.h **** 	a[0] = val & 0xff;
 260:..\..\..\..\wpa_supplicant\src\utils/common.h **** }
 261:..\..\..\..\wpa_supplicant\src\utils/common.h **** 
 262:..\..\..\..\wpa_supplicant\src\utils/common.h **** static inline u32 WPA_GET_BE24(const u8 *a)
 263:..\..\..\..\wpa_supplicant\src\utils/common.h **** {
 264:..\..\..\..\wpa_supplicant\src\utils/common.h **** 	return (a[0] << 16) | (a[1] << 8) | a[2];
 265:..\..\..\..\wpa_supplicant\src\utils/common.h **** }
 266:..\..\..\..\wpa_supplicant\src\utils/common.h **** 
 267:..\..\..\..\wpa_supplicant\src\utils/common.h **** static inline void WPA_PUT_BE24(u8 *a, u32 val)
 268:..\..\..\..\wpa_supplicant\src\utils/common.h **** {
 269:..\..\..\..\wpa_supplicant\src\utils/common.h **** 	a[0] = (val >> 16) & 0xff;
 270:..\..\..\..\wpa_supplicant\src\utils/common.h **** 	a[1] = (val >> 8) & 0xff;
 271:..\..\..\..\wpa_supplicant\src\utils/common.h **** 	a[2] = val & 0xff;
 272:..\..\..\..\wpa_supplicant\src\utils/common.h **** }
 273:..\..\..\..\wpa_supplicant\src\utils/common.h **** 
 274:..\..\..\..\wpa_supplicant\src\utils/common.h **** static inline u32 WPA_GET_BE32(const u8 *a)
 275:..\..\..\..\wpa_supplicant\src\utils/common.h **** {
 276:..\..\..\..\wpa_supplicant\src\utils/common.h **** 	return ((u32) a[0] << 24) | (a[1] << 16) | (a[2] << 8) | a[3];
 1352              		.loc 3 276 2
 1353 0304 03471600 		lbu	a4,1(a2)
 1354 0308 83470600 		lbu	a5,0(a2)
 1355 030c 2207     		slli	a4,a4,8
 1356 030e 5D8F     		or	a4,a4,a5
 1357 0310 83472600 		lbu	a5,2(a2)
 1358 0314 C207     		slli	a5,a5,16
 1359 0316 5D8F     		or	a4,a5,a4
 1360 0318 83473600 		lbu	a5,3(a2)
 1361 031c E207     		slli	a5,a5,24
 1362 031e D98F     		or	a5,a5,a4
 1363 0320 93D78769 		rev8	a5,a5
 1364 0324 41B7     		j	.L167
 1365              	.LVL144:
 1366              	.L85:
 1367              	.LBB116:
 1368              	.LBB107:
 1369              	.LBB96:
 1370              	.LBB82:
 217:C:/Users/stapi/OneDrive/Desktop/GD32VW553/V1_MQTT_OK/GD32VW55X_Wifi_BLE_SDK/GD32VW55x_RELEASE_V1.0.2/MSDK/wpa_supplicant/src/tls\pkcs5.c **** 			    "PKCS #5: Unsupported INTEGER value (iterationCount)",
 1371              		.loc 2 217 3
 1372 0326 B7050000 		lui	a1,%hi(.LC12)
 1373 032a 93850500 		addi	a1,a1,%lo(.LC12)
 1374              	.LVL145:
 1375              	.L175:
 1376              	.LBE82:
 1377              	.LBE96:
 412:C:/Users/stapi/OneDrive/Desktop/GD32VW553/V1_MQTT_OK/GD32VW55X_Wifi_BLE_SDK/GD32VW55x_RELEASE_V1.0.2/MSDK/wpa_supplicant/src/tls\pkcs5.c **** 			    " (iterationCount)",
 1378              		.loc 2 412 3 is_stmt 0
 1379 032e 0945     		li	a0,2
 1380 0330 97000000 		call	wpa_hexdump
 1380      E7800000 
 1381              	.LVL146:
 415:C:/Users/stapi/OneDrive/Desktop/GD32VW553/V1_MQTT_OK/GD32VW55X_Wifi_BLE_SDK/GD32VW55x_RELEASE_V1.0.2/MSDK/wpa_supplicant/src/tls\pkcs5.c **** 	}
 1382              		.loc 2 415 3 is_stmt 1
 1383 0338 19BB     		j	.L64
 1384              	.LVL147:
 1385              	.L86:
 1386              	.LBB97:
 1387              	.LBB83:
 231:C:/Users/stapi/OneDrive/Desktop/GD32VW553/V1_MQTT_OK/GD32VW55X_Wifi_BLE_SDK/GD32VW55x_RELEASE_V1.0.2/MSDK/wpa_supplicant/src/tls\pkcs5.c **** 
 1388              		.loc 2 231 2
 231:C:/Users/stapi/OneDrive/Desktop/GD32VW553/V1_MQTT_OK/GD32VW55X_Wifi_BLE_SDK/GD32VW55x_RELEASE_V1.0.2/MSDK/wpa_supplicant/src/tls\pkcs5.c **** 
 1389              		.loc 2 231 20 is_stmt 0
 1390 033a 2245     		lw	a0,8(sp)
 1391 033c D247     		lw	a5,20(sp)
 1392 033e 3E95     		add	a0,a0,a5
 231:C:/Users/stapi/OneDrive/Desktop/GD32VW553/V1_MQTT_OK/GD32VW55X_Wifi_BLE_SDK/GD32VW55x_RELEASE_V1.0.2/MSDK/wpa_supplicant/src/tls\pkcs5.c **** 
 1393              		.loc 2 231 6
 1394 0340 2AC2     		sw	a0,4(sp)
 233:C:/Users/stapi/OneDrive/Desktop/GD32VW553/V1_MQTT_OK/GD32VW55X_Wifi_BLE_SDK/GD32VW55x_RELEASE_V1.0.2/MSDK/wpa_supplicant/src/tls\pkcs5.c **** 		if (asn1_get_next(pos, kdf_end - pos, &hdr) < 0 ||
 1395              		.loc 2 233 2 is_stmt 1
 233:C:/Users/stapi/OneDrive/Desktop/GD32VW553/V1_MQTT_OK/GD32VW55X_Wifi_BLE_SDK/GD32VW55x_RELEASE_V1.0.2/MSDK/wpa_supplicant/src/tls\pkcs5.c **** 		if (asn1_get_next(pos, kdf_end - pos, &hdr) < 0 ||
 1396              		.loc 2 233 5 is_stmt 0
 1397 0342 6389A40C 		beq	s1,a0,.L87
 234:C:/Users/stapi/OneDrive/Desktop/GD32VW553/V1_MQTT_OK/GD32VW55X_Wifi_BLE_SDK/GD32VW55x_RELEASE_V1.0.2/MSDK/wpa_supplicant/src/tls\pkcs5.c **** 			!asn1_is_sequence(&hdr)) {
 1398              		.loc 2 234 3 is_stmt 1
 234:C:/Users/stapi/OneDrive/Desktop/GD32VW553/V1_MQTT_OK/GD32VW55X_Wifi_BLE_SDK/GD32VW55x_RELEASE_V1.0.2/MSDK/wpa_supplicant/src/tls\pkcs5.c **** 			!asn1_is_sequence(&hdr)) {
 1399              		.loc 2 234 7 is_stmt 0
 1400 0346 3000     		addi	a2,sp,8
 1401 0348 B385A440 		sub	a1,s1,a0
 1402 034c 97000000 		call	asn1_get_next
 1402      E7800000 
 1403              	.LVL148:
 234:C:/Users/stapi/OneDrive/Desktop/GD32VW553/V1_MQTT_OK/GD32VW55X_Wifi_BLE_SDK/GD32VW55x_RELEASE_V1.0.2/MSDK/wpa_supplicant/src/tls\pkcs5.c **** 			!asn1_is_sequence(&hdr)) {
 1404              		.loc 2 234 6
 1405 0354 63480500 		blt	a0,zero,.L88
 235:C:/Users/stapi/OneDrive/Desktop/GD32VW553/V1_MQTT_OK/GD32VW55X_Wifi_BLE_SDK/GD32VW55x_RELEASE_V1.0.2/MSDK/wpa_supplicant/src/tls\pkcs5.c **** 			asn1_unexpected(&hdr,
 1406              		.loc 2 235 5
 1407 0358 2800     		addi	a0,sp,8
 1408 035a 97000000 		call	asn1_is_sequence
 1408      E7800000 
 1409              	.LVL149:
 234:C:/Users/stapi/OneDrive/Desktop/GD32VW553/V1_MQTT_OK/GD32VW55X_Wifi_BLE_SDK/GD32VW55x_RELEASE_V1.0.2/MSDK/wpa_supplicant/src/tls\pkcs5.c **** 			!asn1_is_sequence(&hdr)) {
 1410              		.loc 2 234 51
 1411 0362 11E5     		bne	a0,zero,.L89
 1412              	.L88:
 236:C:/Users/stapi/OneDrive/Desktop/GD32VW553/V1_MQTT_OK/GD32VW55X_Wifi_BLE_SDK/GD32VW55x_RELEASE_V1.0.2/MSDK/wpa_supplicant/src/tls\pkcs5.c **** 				"PKCS #5: Expected SEQUENCE (digestAlgorithm)");
 1413              		.loc 2 236 4 is_stmt 1
 1414 0364 B7050000 		lui	a1,%hi(.LC15)
 1415 0368 93850500 		addi	a1,a1,%lo(.LC15)
 1416 036c 5DBB     		j	.L181
 1417              	.L89:
 241:C:/Users/stapi/OneDrive/Desktop/GD32VW553/V1_MQTT_OK/GD32VW55X_Wifi_BLE_SDK/GD32VW55x_RELEASE_V1.0.2/MSDK/wpa_supplicant/src/tls\pkcs5.c **** 		end = hdr.payload + hdr.length;
 1418              		.loc 2 241 3
 241:C:/Users/stapi/OneDrive/Desktop/GD32VW553/V1_MQTT_OK/GD32VW55X_Wifi_BLE_SDK/GD32VW55x_RELEASE_V1.0.2/MSDK/wpa_supplicant/src/tls\pkcs5.c **** 		end = hdr.payload + hdr.length;
 1419              		.loc 2 241 12 is_stmt 0
 1420 036e 2245     		lw	a0,8(sp)
 244:C:/Users/stapi/OneDrive/Desktop/GD32VW553/V1_MQTT_OK/GD32VW55X_Wifi_BLE_SDK/GD32VW55x_RELEASE_V1.0.2/MSDK/wpa_supplicant/src/tls\pkcs5.c **** 			wpa_printf(MSG_DEBUG,
 1421              		.loc 2 244 7
 1422 0370 D245     		lw	a1,20(sp)
 1423 0372 5400     		addi	a3,sp,4
 1424 0374 7002     		addi	a2,sp,268
 241:C:/Users/stapi/OneDrive/Desktop/GD32VW553/V1_MQTT_OK/GD32VW55X_Wifi_BLE_SDK/GD32VW55x_RELEASE_V1.0.2/MSDK/wpa_supplicant/src/tls\pkcs5.c **** 		end = hdr.payload + hdr.length;
 1425              		.loc 2 241 7
 1426 0376 2AC2     		sw	a0,4(sp)
 242:C:/Users/stapi/OneDrive/Desktop/GD32VW553/V1_MQTT_OK/GD32VW55X_Wifi_BLE_SDK/GD32VW55x_RELEASE_V1.0.2/MSDK/wpa_supplicant/src/tls\pkcs5.c **** 
 1427              		.loc 2 242 3 is_stmt 1
 1428              	.LVL150:
 244:C:/Users/stapi/OneDrive/Desktop/GD32VW553/V1_MQTT_OK/GD32VW55X_Wifi_BLE_SDK/GD32VW55x_RELEASE_V1.0.2/MSDK/wpa_supplicant/src/tls\pkcs5.c **** 			wpa_printf(MSG_DEBUG,
 1429              		.loc 2 244 3
 244:C:/Users/stapi/OneDrive/Desktop/GD32VW553/V1_MQTT_OK/GD32VW55X_Wifi_BLE_SDK/GD32VW55x_RELEASE_V1.0.2/MSDK/wpa_supplicant/src/tls\pkcs5.c **** 			wpa_printf(MSG_DEBUG,
 1430              		.loc 2 244 7 is_stmt 0
 1431 0378 97000000 		call	asn1_get_oid
 1431      E7800000 
 1432              	.LVL151:
 244:C:/Users/stapi/OneDrive/Desktop/GD32VW553/V1_MQTT_OK/GD32VW55X_Wifi_BLE_SDK/GD32VW55x_RELEASE_V1.0.2/MSDK/wpa_supplicant/src/tls\pkcs5.c **** 			wpa_printf(MSG_DEBUG,
 1433              		.loc 2 244 6
 1434 0380 11C5     		beq	a0,zero,.L90
 245:C:/Users/stapi/OneDrive/Desktop/GD32VW553/V1_MQTT_OK/GD32VW55X_Wifi_BLE_SDK/GD32VW55x_RELEASE_V1.0.2/MSDK/wpa_supplicant/src/tls\pkcs5.c **** 				"PKCS #5: Failed to parse OID (digest algorithm)");
 1435              		.loc 2 245 4 is_stmt 1
 1436 0382 B7050000 		lui	a1,%hi(.LC16)
 1437 0386 93850500 		addi	a1,a1,%lo(.LC16)
 1438 038a 6DB9     		j	.L170
 1439              	.L90:
 250:C:/Users/stapi/OneDrive/Desktop/GD32VW553/V1_MQTT_OK/GD32VW55X_Wifi_BLE_SDK/GD32VW55x_RELEASE_V1.0.2/MSDK/wpa_supplicant/src/tls\pkcs5.c **** 		wpa_printf(MSG_DEBUG, "PKCS #5: PBES2 digest algorithm %s",
 1440              		.loc 2 250 3
 1441 038c 13060005 		li	a2,80
 1442 0390 AC10     		addi	a1,sp,104
 1443 0392 6802     		addi	a0,sp,268
 1444 0394 97000000 		call	asn1_oid_to_str
 1444      E7800000 
 1445              	.LVL152:
 251:C:/Users/stapi/OneDrive/Desktop/GD32VW553/V1_MQTT_OK/GD32VW55X_Wifi_BLE_SDK/GD32VW55x_RELEASE_V1.0.2/MSDK/wpa_supplicant/src/tls\pkcs5.c **** 			obuf);
 1446              		.loc 2 251 3
 1447 039c B7050000 		lui	a1,%hi(.LC17)
 1448 03a0 B010     		addi	a2,sp,104
 1449 03a2 93850500 		addi	a1,a1,%lo(.LC17)
 1450 03a6 0945     		li	a0,2
 1451 03a8 97000000 		call	wpa_printf
 1451      E7800000 
 1452              	.LVL153:
 254:C:/Users/stapi/OneDrive/Desktop/GD32VW553/V1_MQTT_OK/GD32VW55X_Wifi_BLE_SDK/GD32VW55x_RELEASE_V1.0.2/MSDK/wpa_supplicant/src/tls\pkcs5.c **** 			params->dig_alg = PBKDF2_DIG_ALG_MD5;
 1453              		.loc 2 254 3
 254:C:/Users/stapi/OneDrive/Desktop/GD32VW553/V1_MQTT_OK/GD32VW55X_Wifi_BLE_SDK/GD32VW55x_RELEASE_V1.0.2/MSDK/wpa_supplicant/src/tls\pkcs5.c **** 			params->dig_alg = PBKDF2_DIG_ALG_MD5;
 1454              		.loc 2 254 7 is_stmt 0
 1455 03b0 9545     		li	a1,5
 1456 03b2 6802     		addi	a0,sp,268
 1457 03b4 97000000 		call	digest_alg_is_oid
 1457      E7800000 
 1458              	.LVL154:
 255:C:/Users/stapi/OneDrive/Desktop/GD32VW553/V1_MQTT_OK/GD32VW55X_Wifi_BLE_SDK/GD32VW55x_RELEASE_V1.0.2/MSDK/wpa_supplicant/src/tls\pkcs5.c **** 		} else if (digest_alg_is_oid(&oid, 7)) {
 1459              		.loc 2 255 20
 1460 03bc 8547     		li	a5,1
 254:C:/Users/stapi/OneDrive/Desktop/GD32VW553/V1_MQTT_OK/GD32VW55X_Wifi_BLE_SDK/GD32VW55x_RELEASE_V1.0.2/MSDK/wpa_supplicant/src/tls\pkcs5.c **** 			params->dig_alg = PBKDF2_DIG_ALG_MD5;
 1461              		.loc 2 254 6
 1462 03be 29E9     		bne	a0,zero,.L168
 256:C:/Users/stapi/OneDrive/Desktop/GD32VW553/V1_MQTT_OK/GD32VW55X_Wifi_BLE_SDK/GD32VW55x_RELEASE_V1.0.2/MSDK/wpa_supplicant/src/tls\pkcs5.c **** 			params->dig_alg = PBKDF2_DIG_ALG_SHA1;
 1463              		.loc 2 256 10 is_stmt 1
 256:C:/Users/stapi/OneDrive/Desktop/GD32VW553/V1_MQTT_OK/GD32VW55X_Wifi_BLE_SDK/GD32VW55x_RELEASE_V1.0.2/MSDK/wpa_supplicant/src/tls\pkcs5.c **** 			params->dig_alg = PBKDF2_DIG_ALG_SHA1;
 1464              		.loc 2 256 14 is_stmt 0
 1465 03c0 9D45     		li	a1,7
 1466 03c2 6802     		addi	a0,sp,268
 1467 03c4 97000000 		call	digest_alg_is_oid
 1467      E7800000 
 1468              	.LVL155:
 257:C:/Users/stapi/OneDrive/Desktop/GD32VW553/V1_MQTT_OK/GD32VW55X_Wifi_BLE_SDK/GD32VW55x_RELEASE_V1.0.2/MSDK/wpa_supplicant/src/tls\pkcs5.c **** 		} else if (digest_alg_is_oid(&oid, 8)) {
 1469              		.loc 2 257 20
 1470 03cc 8947     		li	a5,2
 256:C:/Users/stapi/OneDrive/Desktop/GD32VW553/V1_MQTT_OK/GD32VW55X_Wifi_BLE_SDK/GD32VW55x_RELEASE_V1.0.2/MSDK/wpa_supplicant/src/tls\pkcs5.c **** 			params->dig_alg = PBKDF2_DIG_ALG_SHA1;
 1471              		.loc 2 256 13
 1472 03ce 29E1     		bne	a0,zero,.L168
 258:C:/Users/stapi/OneDrive/Desktop/GD32VW553/V1_MQTT_OK/GD32VW55X_Wifi_BLE_SDK/GD32VW55x_RELEASE_V1.0.2/MSDK/wpa_supplicant/src/tls\pkcs5.c **** 			params->dig_alg = PBKDF2_DIG_ALG_SHA224;
 1473              		.loc 2 258 10 is_stmt 1
 258:C:/Users/stapi/OneDrive/Desktop/GD32VW553/V1_MQTT_OK/GD32VW55X_Wifi_BLE_SDK/GD32VW55x_RELEASE_V1.0.2/MSDK/wpa_supplicant/src/tls\pkcs5.c **** 			params->dig_alg = PBKDF2_DIG_ALG_SHA224;
 1474              		.loc 2 258 14 is_stmt 0
 1475 03d0 A145     		li	a1,8
 1476 03d2 6802     		addi	a0,sp,268
 1477 03d4 97000000 		call	digest_alg_is_oid
 1477      E7800000 
 1478              	.LVL156:
 259:C:/Users/stapi/OneDrive/Desktop/GD32VW553/V1_MQTT_OK/GD32VW55X_Wifi_BLE_SDK/GD32VW55x_RELEASE_V1.0.2/MSDK/wpa_supplicant/src/tls\pkcs5.c **** 		} else if (digest_alg_is_oid(&oid, 9)) {
 1479              		.loc 2 259 20
 1480 03dc 8D47     		li	a5,3
 258:C:/Users/stapi/OneDrive/Desktop/GD32VW553/V1_MQTT_OK/GD32VW55X_Wifi_BLE_SDK/GD32VW55x_RELEASE_V1.0.2/MSDK/wpa_supplicant/src/tls\pkcs5.c **** 			params->dig_alg = PBKDF2_DIG_ALG_SHA224;
 1481              		.loc 2 258 13
 1482 03de 0DE9     		bne	a0,zero,.L168
 260:C:/Users/stapi/OneDrive/Desktop/GD32VW553/V1_MQTT_OK/GD32VW55X_Wifi_BLE_SDK/GD32VW55x_RELEASE_V1.0.2/MSDK/wpa_supplicant/src/tls\pkcs5.c **** 			params->dig_alg = PBKDF2_DIG_ALG_SHA256;
 1483              		.loc 2 260 10 is_stmt 1
 260:C:/Users/stapi/OneDrive/Desktop/GD32VW553/V1_MQTT_OK/GD32VW55X_Wifi_BLE_SDK/GD32VW55x_RELEASE_V1.0.2/MSDK/wpa_supplicant/src/tls\pkcs5.c **** 			params->dig_alg = PBKDF2_DIG_ALG_SHA256;
 1484              		.loc 2 260 14 is_stmt 0
 1485 03e0 A545     		li	a1,9
 1486 03e2 6802     		addi	a0,sp,268
 1487 03e4 97000000 		call	digest_alg_is_oid
 1487      E7800000 
 1488              	.LVL157:
 261:C:/Users/stapi/OneDrive/Desktop/GD32VW553/V1_MQTT_OK/GD32VW55X_Wifi_BLE_SDK/GD32VW55x_RELEASE_V1.0.2/MSDK/wpa_supplicant/src/tls\pkcs5.c **** 		} else if (digest_alg_is_oid(&oid, 10)) {
 1489              		.loc 2 261 20
 1490 03ec 9147     		li	a5,4
 260:C:/Users/stapi/OneDrive/Desktop/GD32VW553/V1_MQTT_OK/GD32VW55X_Wifi_BLE_SDK/GD32VW55x_RELEASE_V1.0.2/MSDK/wpa_supplicant/src/tls\pkcs5.c **** 			params->dig_alg = PBKDF2_DIG_ALG_SHA256;
 1491              		.loc 2 260 13
 1492 03ee 0DE1     		bne	a0,zero,.L168
 262:C:/Users/stapi/OneDrive/Desktop/GD32VW553/V1_MQTT_OK/GD32VW55X_Wifi_BLE_SDK/GD32VW55x_RELEASE_V1.0.2/MSDK/wpa_supplicant/src/tls\pkcs5.c **** 			params->dig_alg = PBKDF2_DIG_ALG_SHA384;
 1493              		.loc 2 262 10 is_stmt 1
 262:C:/Users/stapi/OneDrive/Desktop/GD32VW553/V1_MQTT_OK/GD32VW55X_Wifi_BLE_SDK/GD32VW55x_RELEASE_V1.0.2/MSDK/wpa_supplicant/src/tls\pkcs5.c **** 			params->dig_alg = PBKDF2_DIG_ALG_SHA384;
 1494              		.loc 2 262 14 is_stmt 0
 1495 03f0 A945     		li	a1,10
 1496 03f2 6802     		addi	a0,sp,268
 1497 03f4 97000000 		call	digest_alg_is_oid
 1497      E7800000 
 1498              	.LVL158:
 263:C:/Users/stapi/OneDrive/Desktop/GD32VW553/V1_MQTT_OK/GD32VW55X_Wifi_BLE_SDK/GD32VW55x_RELEASE_V1.0.2/MSDK/wpa_supplicant/src/tls\pkcs5.c **** 		} else if (digest_alg_is_oid(&oid, 11)) {
 1499              		.loc 2 263 20
 1500 03fc 9547     		li	a5,5
 262:C:/Users/stapi/OneDrive/Desktop/GD32VW553/V1_MQTT_OK/GD32VW55X_Wifi_BLE_SDK/GD32VW55x_RELEASE_V1.0.2/MSDK/wpa_supplicant/src/tls\pkcs5.c **** 			params->dig_alg = PBKDF2_DIG_ALG_SHA384;
 1501              		.loc 2 262 13
 1502 03fe 09E9     		bne	a0,zero,.L168
 264:C:/Users/stapi/OneDrive/Desktop/GD32VW553/V1_MQTT_OK/GD32VW55X_Wifi_BLE_SDK/GD32VW55x_RELEASE_V1.0.2/MSDK/wpa_supplicant/src/tls\pkcs5.c **** 			params->dig_alg = PBKDF2_DIG_ALG_SHA512;
 1503              		.loc 2 264 10 is_stmt 1
 264:C:/Users/stapi/OneDrive/Desktop/GD32VW553/V1_MQTT_OK/GD32VW55X_Wifi_BLE_SDK/GD32VW55x_RELEASE_V1.0.2/MSDK/wpa_supplicant/src/tls\pkcs5.c **** 			params->dig_alg = PBKDF2_DIG_ALG_SHA512;
 1504              		.loc 2 264 14 is_stmt 0
 1505 0400 AD45     		li	a1,11
 1506 0402 6802     		addi	a0,sp,268
 1507 0404 97000000 		call	digest_alg_is_oid
 1507      E7800000 
 1508              	.LVL159:
 264:C:/Users/stapi/OneDrive/Desktop/GD32VW553/V1_MQTT_OK/GD32VW55X_Wifi_BLE_SDK/GD32VW55x_RELEASE_V1.0.2/MSDK/wpa_supplicant/src/tls\pkcs5.c **** 			params->dig_alg = PBKDF2_DIG_ALG_SHA512;
 1509              		.loc 2 264 13
 1510 040c 15C9     		beq	a0,zero,.L96
 265:C:/Users/stapi/OneDrive/Desktop/GD32VW553/V1_MQTT_OK/GD32VW55X_Wifi_BLE_SDK/GD32VW55x_RELEASE_V1.0.2/MSDK/wpa_supplicant/src/tls\pkcs5.c **** 		} else {
 1511              		.loc 2 265 4 is_stmt 1
 265:C:/Users/stapi/OneDrive/Desktop/GD32VW553/V1_MQTT_OK/GD32VW55X_Wifi_BLE_SDK/GD32VW55x_RELEASE_V1.0.2/MSDK/wpa_supplicant/src/tls\pkcs5.c **** 		} else {
 1512              		.loc 2 265 20 is_stmt 0
 1513 040e 9947     		li	a5,6
 1514              	.L168:
 1515 0410 2328F11A 		sw	a5,432(sp)
 1516              	.L87:
 277:C:/Users/stapi/OneDrive/Desktop/GD32VW553/V1_MQTT_OK/GD32VW55X_Wifi_BLE_SDK/GD32VW55x_RELEASE_V1.0.2/MSDK/wpa_supplicant/src/tls\pkcs5.c **** 
 1517              		.loc 2 277 2 is_stmt 1
 281:C:/Users/stapi/OneDrive/Desktop/GD32VW553/V1_MQTT_OK/GD32VW55X_Wifi_BLE_SDK/GD32VW55x_RELEASE_V1.0.2/MSDK/wpa_supplicant/src/tls\pkcs5.c **** 	    !asn1_is_sequence(&hdr)) {
 1518              		.loc 2 281 6 is_stmt 0
 1519 0414 3000     		addi	a2,sp,8
 1520 0416 B3859A40 		sub	a1,s5,s1
 1521 041a 2685     		mv	a0,s1
 277:C:/Users/stapi/OneDrive/Desktop/GD32VW553/V1_MQTT_OK/GD32VW55X_Wifi_BLE_SDK/GD32VW55x_RELEASE_V1.0.2/MSDK/wpa_supplicant/src/tls\pkcs5.c **** 
 1522              		.loc 2 277 6
 1523 041c 26C2     		sw	s1,4(sp)
 281:C:/Users/stapi/OneDrive/Desktop/GD32VW553/V1_MQTT_OK/GD32VW55X_Wifi_BLE_SDK/GD32VW55x_RELEASE_V1.0.2/MSDK/wpa_supplicant/src/tls\pkcs5.c **** 	    !asn1_is_sequence(&hdr)) {
 1524              		.loc 2 281 2 is_stmt 1
 281:C:/Users/stapi/OneDrive/Desktop/GD32VW553/V1_MQTT_OK/GD32VW55X_Wifi_BLE_SDK/GD32VW55x_RELEASE_V1.0.2/MSDK/wpa_supplicant/src/tls\pkcs5.c **** 	    !asn1_is_sequence(&hdr)) {
 1525              		.loc 2 281 6 is_stmt 0
 1526 041e 97000000 		call	asn1_get_next
 1526      E7800000 
 1527              	.LVL160:
 281:C:/Users/stapi/OneDrive/Desktop/GD32VW553/V1_MQTT_OK/GD32VW55X_Wifi_BLE_SDK/GD32VW55x_RELEASE_V1.0.2/MSDK/wpa_supplicant/src/tls\pkcs5.c **** 	    !asn1_is_sequence(&hdr)) {
 1528              		.loc 2 281 5
 1529 0426 63480500 		blt	a0,zero,.L97
 282:C:/Users/stapi/OneDrive/Desktop/GD32VW553/V1_MQTT_OK/GD32VW55X_Wifi_BLE_SDK/GD32VW55x_RELEASE_V1.0.2/MSDK/wpa_supplicant/src/tls\pkcs5.c **** 		asn1_unexpected(&hdr,
 1530              		.loc 2 282 7
 1531 042a 2800     		addi	a0,sp,8
 1532 042c 97000000 		call	asn1_is_sequence
 1532      E7800000 
 1533              	.LVL161:
 281:C:/Users/stapi/OneDrive/Desktop/GD32VW553/V1_MQTT_OK/GD32VW55X_Wifi_BLE_SDK/GD32VW55x_RELEASE_V1.0.2/MSDK/wpa_supplicant/src/tls\pkcs5.c **** 	    !asn1_is_sequence(&hdr)) {
 1534              		.loc 2 281 54
 1535 0434 01ED     		bne	a0,zero,.L98
 1536              	.L97:
 283:C:/Users/stapi/OneDrive/Desktop/GD32VW553/V1_MQTT_OK/GD32VW55X_Wifi_BLE_SDK/GD32VW55x_RELEASE_V1.0.2/MSDK/wpa_supplicant/src/tls\pkcs5.c **** 				"PKCS #5: Expected SEQUENCE (encryptionScheme)");
 1537              		.loc 2 283 3 is_stmt 1
 1538 0436 B7050000 		lui	a1,%hi(.LC19)
 1539 043a 93850500 		addi	a1,a1,%lo(.LC19)
 1540 043e D5B1     		j	.L181
 1541              	.L96:
 267:C:/Users/stapi/OneDrive/Desktop/GD32VW553/V1_MQTT_OK/GD32VW55X_Wifi_BLE_SDK/GD32VW55x_RELEASE_V1.0.2/MSDK/wpa_supplicant/src/tls\pkcs5.c **** 				"PKCS #5: Unsupported PBES2 digest algorithm %s",
 1542              		.loc 2 267 4
 1543 0440 B7050000 		lui	a1,%hi(.LC18)
 1544 0444 B010     		addi	a2,sp,104
 1545 0446 93850500 		addi	a1,a1,%lo(.LC18)
 1546 044a 79B3     		j	.L182
 1547              	.L98:
 288:C:/Users/stapi/OneDrive/Desktop/GD32VW553/V1_MQTT_OK/GD32VW55X_Wifi_BLE_SDK/GD32VW55x_RELEASE_V1.0.2/MSDK/wpa_supplicant/src/tls\pkcs5.c **** 	end = hdr.payload + hdr.length;
 1548              		.loc 2 288 2
 288:C:/Users/stapi/OneDrive/Desktop/GD32VW553/V1_MQTT_OK/GD32VW55X_Wifi_BLE_SDK/GD32VW55x_RELEASE_V1.0.2/MSDK/wpa_supplicant/src/tls\pkcs5.c **** 	end = hdr.payload + hdr.length;
 1549              		.loc 2 288 11 is_stmt 0
 1550 044c 2245     		lw	a0,8(sp)
 289:C:/Users/stapi/OneDrive/Desktop/GD32VW553/V1_MQTT_OK/GD32VW55X_Wifi_BLE_SDK/GD32VW55x_RELEASE_V1.0.2/MSDK/wpa_supplicant/src/tls\pkcs5.c **** 
 1551              		.loc 2 289 25
 1552 044e D245     		lw	a1,20(sp)
 291:C:/Users/stapi/OneDrive/Desktop/GD32VW553/V1_MQTT_OK/GD32VW55X_Wifi_BLE_SDK/GD32VW55x_RELEASE_V1.0.2/MSDK/wpa_supplicant/src/tls\pkcs5.c **** 		wpa_printf(MSG_DEBUG,
 1553              		.loc 2 291 6
 1554 0450 5400     		addi	a3,sp,4
 1555 0452 7002     		addi	a2,sp,268
 288:C:/Users/stapi/OneDrive/Desktop/GD32VW553/V1_MQTT_OK/GD32VW55X_Wifi_BLE_SDK/GD32VW55x_RELEASE_V1.0.2/MSDK/wpa_supplicant/src/tls\pkcs5.c **** 	end = hdr.payload + hdr.length;
 1556              		.loc 2 288 6
 1557 0454 2AC2     		sw	a0,4(sp)
 289:C:/Users/stapi/OneDrive/Desktop/GD32VW553/V1_MQTT_OK/GD32VW55X_Wifi_BLE_SDK/GD32VW55x_RELEASE_V1.0.2/MSDK/wpa_supplicant/src/tls\pkcs5.c **** 
 1558              		.loc 2 289 2 is_stmt 1
 289:C:/Users/stapi/OneDrive/Desktop/GD32VW553/V1_MQTT_OK/GD32VW55X_Wifi_BLE_SDK/GD32VW55x_RELEASE_V1.0.2/MSDK/wpa_supplicant/src/tls\pkcs5.c **** 
 1559              		.loc 2 289 6 is_stmt 0
 1560 0456 B304B500 		add	s1,a0,a1
 1561              	.LVL162:
 291:C:/Users/stapi/OneDrive/Desktop/GD32VW553/V1_MQTT_OK/GD32VW55X_Wifi_BLE_SDK/GD32VW55x_RELEASE_V1.0.2/MSDK/wpa_supplicant/src/tls\pkcs5.c **** 		wpa_printf(MSG_DEBUG,
 1562              		.loc 2 291 2 is_stmt 1
 291:C:/Users/stapi/OneDrive/Desktop/GD32VW553/V1_MQTT_OK/GD32VW55X_Wifi_BLE_SDK/GD32VW55x_RELEASE_V1.0.2/MSDK/wpa_supplicant/src/tls\pkcs5.c **** 		wpa_printf(MSG_DEBUG,
 1563              		.loc 2 291 6 is_stmt 0
 1564 045a 97000000 		call	asn1_get_oid
 1564      E7800000 
 1565              	.LVL163:
 291:C:/Users/stapi/OneDrive/Desktop/GD32VW553/V1_MQTT_OK/GD32VW55X_Wifi_BLE_SDK/GD32VW55x_RELEASE_V1.0.2/MSDK/wpa_supplicant/src/tls\pkcs5.c **** 		wpa_printf(MSG_DEBUG,
 1566              		.loc 2 291 5
 1567 0462 11C5     		beq	a0,zero,.L99
 292:C:/Users/stapi/OneDrive/Desktop/GD32VW553/V1_MQTT_OK/GD32VW55X_Wifi_BLE_SDK/GD32VW55x_RELEASE_V1.0.2/MSDK/wpa_supplicant/src/tls\pkcs5.c **** 			   "PKCS #5: Failed to parse OID (encryptionScheme algorithm)");
 1568              		.loc 2 292 3 is_stmt 1
 1569 0464 B7050000 		lui	a1,%hi(.LC20)
 1570 0468 93850500 		addi	a1,a1,%lo(.LC20)
 1571 046c E1BE     		j	.L170
 1572              	.L99:
 297:C:/Users/stapi/OneDrive/Desktop/GD32VW553/V1_MQTT_OK/GD32VW55X_Wifi_BLE_SDK/GD32VW55x_RELEASE_V1.0.2/MSDK/wpa_supplicant/src/tls\pkcs5.c **** 	wpa_printf(MSG_DEBUG, "PKCS #5: PBES2 encryptionScheme algorithm %s",
 1573              		.loc 2 297 2
 1574 046e 13060005 		li	a2,80
 1575 0472 AC10     		addi	a1,sp,104
 1576 0474 6802     		addi	a0,sp,268
 1577 0476 97000000 		call	asn1_oid_to_str
 1577      E7800000 
 1578              	.LVL164:
 298:C:/Users/stapi/OneDrive/Desktop/GD32VW553/V1_MQTT_OK/GD32VW55X_Wifi_BLE_SDK/GD32VW55x_RELEASE_V1.0.2/MSDK/wpa_supplicant/src/tls\pkcs5.c **** 		   obuf);
 1579              		.loc 2 298 2
 1580 047e B7050000 		lui	a1,%hi(.LC21)
 1581 0482 B010     		addi	a2,sp,104
 1582 0484 93850500 		addi	a1,a1,%lo(.LC21)
 1583 0488 0945     		li	a0,2
 1584 048a 97000000 		call	wpa_printf
 1584      E7800000 
 1585              	.LVL165:
 300:C:/Users/stapi/OneDrive/Desktop/GD32VW553/V1_MQTT_OK/GD32VW55X_Wifi_BLE_SDK/GD32VW55x_RELEASE_V1.0.2/MSDK/wpa_supplicant/src/tls\pkcs5.c **** 		params->enc_alg = PBES2_ENC_ALG_DES_EDE3_CBC;
 1586              		.loc 2 300 2
 1587              	.LBB72:
 1588              	.LBB73:
  74:C:/Users/stapi/OneDrive/Desktop/GD32VW553/V1_MQTT_OK/GD32VW55X_Wifi_BLE_SDK/GD32VW55x_RELEASE_V1.0.2/MSDK/wpa_supplicant/src/tls\pkcs5.c **** 		oid_is_rsadsi(oid) &&
 1589              		.loc 2 74 2
  76:C:/Users/stapi/OneDrive/Desktop/GD32VW553/V1_MQTT_OK/GD32VW55X_Wifi_BLE_SDK/GD32VW55x_RELEASE_V1.0.2/MSDK/wpa_supplicant/src/tls\pkcs5.c **** 		oid->oid[5] == alg;
 1590              		.loc 2 76 46 is_stmt 0
 1591 0492 0327C115 		lw	a4,348(sp)
 1592 0496 9947     		li	a5,6
 1593 0498 6314F704 		bne	a4,a5,.L100
  75:C:/Users/stapi/OneDrive/Desktop/GD32VW553/V1_MQTT_OK/GD32VW55X_Wifi_BLE_SDK/GD32VW55x_RELEASE_V1.0.2/MSDK/wpa_supplicant/src/tls\pkcs5.c **** 		oid->oid[4] == 3 /* encryptionAlgorithm */ &&
 1594              		.loc 2 75 3
 1595 049c 6802     		addi	a0,sp,268
 1596              	.LVL166:
 1597 049e 97000000 		call	oid_is_rsadsi
 1597      E7800000 
 1598              	.LVL167:
  74:C:/Users/stapi/OneDrive/Desktop/GD32VW553/V1_MQTT_OK/GD32VW55X_Wifi_BLE_SDK/GD32VW55x_RELEASE_V1.0.2/MSDK/wpa_supplicant/src/tls\pkcs5.c **** 		oid_is_rsadsi(oid) &&
 1599              		.loc 2 74 23
 1600 04a6 0DCD     		beq	a0,zero,.L100
  75:C:/Users/stapi/OneDrive/Desktop/GD32VW553/V1_MQTT_OK/GD32VW55X_Wifi_BLE_SDK/GD32VW55x_RELEASE_V1.0.2/MSDK/wpa_supplicant/src/tls\pkcs5.c **** 		oid->oid[4] == 3 /* encryptionAlgorithm */ &&
 1601              		.loc 2 75 22
 1602 04a8 0327C111 		lw	a4,284(sp)
 1603 04ac 8D47     		li	a5,3
 1604 04ae 6319F702 		bne	a4,a5,.L100
  76:C:/Users/stapi/OneDrive/Desktop/GD32VW553/V1_MQTT_OK/GD32VW55X_Wifi_BLE_SDK/GD32VW55x_RELEASE_V1.0.2/MSDK/wpa_supplicant/src/tls\pkcs5.c **** 		oid->oid[5] == alg;
 1605              		.loc 2 76 46
 1606 04b2 03270112 		lw	a4,288(sp)
 1607 04b6 9D47     		li	a5,7
 1608 04b8 6314F702 		bne	a4,a5,.L100
 1609              	.LVL168:
 1610              	.LBE73:
 1611              	.LBE72:
 301:C:/Users/stapi/OneDrive/Desktop/GD32VW553/V1_MQTT_OK/GD32VW55X_Wifi_BLE_SDK/GD32VW55x_RELEASE_V1.0.2/MSDK/wpa_supplicant/src/tls\pkcs5.c **** 	} else {
 1612              		.loc 2 301 3 is_stmt 1
 315:C:/Users/stapi/OneDrive/Desktop/GD32VW553/V1_MQTT_OK/GD32VW55X_Wifi_BLE_SDK/GD32VW55x_RELEASE_V1.0.2/MSDK/wpa_supplicant/src/tls\pkcs5.c **** 	    !asn1_is_octetstring(&hdr) || hdr.length != 8) {
 1613              		.loc 2 315 6 is_stmt 0
 1614 04bc 1245     		lw	a0,4(sp)
 301:C:/Users/stapi/OneDrive/Desktop/GD32VW553/V1_MQTT_OK/GD32VW55X_Wifi_BLE_SDK/GD32VW55x_RELEASE_V1.0.2/MSDK/wpa_supplicant/src/tls\pkcs5.c **** 	} else {
 1615              		.loc 2 301 19
 1616 04be 8547     		li	a5,1
 315:C:/Users/stapi/OneDrive/Desktop/GD32VW553/V1_MQTT_OK/GD32VW55X_Wifi_BLE_SDK/GD32VW55x_RELEASE_V1.0.2/MSDK/wpa_supplicant/src/tls\pkcs5.c **** 	    !asn1_is_octetstring(&hdr) || hdr.length != 8) {
 1617              		.loc 2 315 6
 1618 04c0 3000     		addi	a2,sp,8
 1619 04c2 B385A440 		sub	a1,s1,a0
 301:C:/Users/stapi/OneDrive/Desktop/GD32VW553/V1_MQTT_OK/GD32VW55X_Wifi_BLE_SDK/GD32VW55x_RELEASE_V1.0.2/MSDK/wpa_supplicant/src/tls\pkcs5.c **** 	} else {
 1620              		.loc 2 301 19
 1621 04c6 2326F11A 		sw	a5,428(sp)
 315:C:/Users/stapi/OneDrive/Desktop/GD32VW553/V1_MQTT_OK/GD32VW55X_Wifi_BLE_SDK/GD32VW55x_RELEASE_V1.0.2/MSDK/wpa_supplicant/src/tls\pkcs5.c **** 	    !asn1_is_octetstring(&hdr) || hdr.length != 8) {
 1622              		.loc 2 315 2 is_stmt 1
 315:C:/Users/stapi/OneDrive/Desktop/GD32VW553/V1_MQTT_OK/GD32VW55X_Wifi_BLE_SDK/GD32VW55x_RELEASE_V1.0.2/MSDK/wpa_supplicant/src/tls\pkcs5.c **** 	    !asn1_is_octetstring(&hdr) || hdr.length != 8) {
 1623              		.loc 2 315 6 is_stmt 0
 1624 04ca 97000000 		call	asn1_get_next
 1624      E7800000 
 1625              	.LVL169:
 315:C:/Users/stapi/OneDrive/Desktop/GD32VW553/V1_MQTT_OK/GD32VW55X_Wifi_BLE_SDK/GD32VW55x_RELEASE_V1.0.2/MSDK/wpa_supplicant/src/tls\pkcs5.c **** 	    !asn1_is_octetstring(&hdr) || hdr.length != 8) {
 1626              		.loc 2 315 5
 1627 04d2 635D0500 		bge	a0,zero,.L163
 1628              	.L101:
 317:C:/Users/stapi/OneDrive/Desktop/GD32VW553/V1_MQTT_OK/GD32VW55X_Wifi_BLE_SDK/GD32VW55x_RELEASE_V1.0.2/MSDK/wpa_supplicant/src/tls\pkcs5.c **** 				"PKCS #5: Expected OCTET STRING (SIZE(8)) (IV)");
 1629              		.loc 2 317 3 is_stmt 1
 1630 04d6 B7050000 		lui	a1,%hi(.LC23)
 1631 04da 93850500 		addi	a1,a1,%lo(.LC23)
 1632 04de 91B1     		j	.L181
 1633              	.LVL170:
 1634              	.L100:
 303:C:/Users/stapi/OneDrive/Desktop/GD32VW553/V1_MQTT_OK/GD32VW55X_Wifi_BLE_SDK/GD32VW55x_RELEASE_V1.0.2/MSDK/wpa_supplicant/src/tls\pkcs5.c **** 			   "PKCS #5: Unsupported PBES2 encryptionScheme algorithm %s",
 1635              		.loc 2 303 3
 1636 04e0 B7050000 		lui	a1,%hi(.LC22)
 1637 04e4 B010     		addi	a2,sp,104
 1638 04e6 93850500 		addi	a1,a1,%lo(.LC22)
 1639 04ea FDB1     		j	.L182
 1640              	.L163:
 1641              	.LVL171:
 1642              	.LBB74:
 1643              	.LBB75:
 1644              		.loc 1 126 2
 1645              		.loc 1 126 44 is_stmt 0
 1646 04ec 8347D100 		lbu	a5,13(sp)
 1647 04f0 FDF3     		bne	a5,zero,.L101
 1648 04f2 4247     		lw	a4,16(sp)
 1649 04f4 9147     		li	a5,4
 1650 04f6 E310F7FE 		bne	a4,a5,.L101
 1651              	.LVL172:
 1652              	.LBE75:
 1653              	.LBE74:
 316:C:/Users/stapi/OneDrive/Desktop/GD32VW553/V1_MQTT_OK/GD32VW55X_Wifi_BLE_SDK/GD32VW55x_RELEASE_V1.0.2/MSDK/wpa_supplicant/src/tls\pkcs5.c **** 		asn1_unexpected(&hdr,
 1654              		.loc 2 316 33
 1655 04fa 5247     		lw	a4,20(sp)
 1656 04fc A147     		li	a5,8
 1657 04fe E31CF7FC 		bne	a4,a5,.L101
 321:C:/Users/stapi/OneDrive/Desktop/GD32VW553/V1_MQTT_OK/GD32VW55X_Wifi_BLE_SDK/GD32VW55x_RELEASE_V1.0.2/MSDK/wpa_supplicant/src/tls\pkcs5.c **** 	params->iv_len = hdr.length;
 1658              		.loc 2 321 2 is_stmt 1
 1659 0502 A245     		lw	a1,8(sp)
 1660 0504 2146     		li	a2,8
 1661 0506 481B     		addi	a0,sp,436
 1662 0508 97000000 		call	os_memcpy
 1662      E7800000 
 1663              	.LVL173:
 322:C:/Users/stapi/OneDrive/Desktop/GD32VW553/V1_MQTT_OK/GD32VW55X_Wifi_BLE_SDK/GD32VW55x_RELEASE_V1.0.2/MSDK/wpa_supplicant/src/tls\pkcs5.c **** 	wpa_hexdump(MSG_DEBUG, "PKCS #5: IV", params->iv, params->iv_len);
 1664              		.loc 2 322 2
 322:C:/Users/stapi/OneDrive/Desktop/GD32VW553/V1_MQTT_OK/GD32VW55X_Wifi_BLE_SDK/GD32VW55x_RELEASE_V1.0.2/MSDK/wpa_supplicant/src/tls\pkcs5.c **** 	wpa_hexdump(MSG_DEBUG, "PKCS #5: IV", params->iv, params->iv_len);
 1665              		.loc 2 322 22 is_stmt 0
 1666 0510 D246     		lw	a3,20(sp)
 323:C:/Users/stapi/OneDrive/Desktop/GD32VW553/V1_MQTT_OK/GD32VW55X_Wifi_BLE_SDK/GD32VW55x_RELEASE_V1.0.2/MSDK/wpa_supplicant/src/tls\pkcs5.c **** 
 1667              		.loc 2 323 2
 1668 0512 B7050000 		lui	a1,%hi(.LC24)
 1669 0516 501B     		addi	a2,sp,436
 1670 0518 93850500 		addi	a1,a1,%lo(.LC24)
 1671 051c 0945     		li	a0,2
 322:C:/Users/stapi/OneDrive/Desktop/GD32VW553/V1_MQTT_OK/GD32VW55X_Wifi_BLE_SDK/GD32VW55x_RELEASE_V1.0.2/MSDK/wpa_supplicant/src/tls\pkcs5.c **** 	wpa_hexdump(MSG_DEBUG, "PKCS #5: IV", params->iv, params->iv_len);
 1672              		.loc 2 322 17
 1673 051e 232ED11A 		sw	a3,444(sp)
 323:C:/Users/stapi/OneDrive/Desktop/GD32VW553/V1_MQTT_OK/GD32VW55X_Wifi_BLE_SDK/GD32VW55x_RELEASE_V1.0.2/MSDK/wpa_supplicant/src/tls\pkcs5.c **** 
 1674              		.loc 2 323 2 is_stmt 1
 1675 0522 97000000 		call	wpa_hexdump
 1675      E7800000 
 1676              	.LVL174:
 325:C:/Users/stapi/OneDrive/Desktop/GD32VW553/V1_MQTT_OK/GD32VW55X_Wifi_BLE_SDK/GD32VW55x_RELEASE_V1.0.2/MSDK/wpa_supplicant/src/tls\pkcs5.c **** }
 1677              		.loc 2 325 2
 1678              	.L104:
 1679              	.LBE83:
 1680              	.LBE97:
 1681              	.LBE107:
 1682              	.LBE116:
 693:C:/Users/stapi/OneDrive/Desktop/GD32VW553/V1_MQTT_OK/GD32VW55X_Wifi_BLE_SDK/GD32VW55x_RELEASE_V1.0.2/MSDK/wpa_supplicant/src/tls\pkcs5.c **** 	if (ctx == NULL) {
 1683              		.loc 2 693 2
 1684              	.LBB117:
 1685              	.LBB118:
 645:C:/Users/stapi/OneDrive/Desktop/GD32VW553/V1_MQTT_OK/GD32VW55X_Wifi_BLE_SDK/GD32VW55x_RELEASE_V1.0.2/MSDK/wpa_supplicant/src/tls\pkcs5.c **** 	u8 hash[MD5_MAC_LEN];
 1686              		.loc 2 645 2
 646:C:/Users/stapi/OneDrive/Desktop/GD32VW553/V1_MQTT_OK/GD32VW55X_Wifi_BLE_SDK/GD32VW55x_RELEASE_V1.0.2/MSDK/wpa_supplicant/src/tls\pkcs5.c **** 	const u8 *addr[2];
 1687              		.loc 2 646 2
 647:C:/Users/stapi/OneDrive/Desktop/GD32VW553/V1_MQTT_OK/GD32VW55X_Wifi_BLE_SDK/GD32VW55x_RELEASE_V1.0.2/MSDK/wpa_supplicant/src/tls\pkcs5.c **** 	size_t len[2];
 1688              		.loc 2 647 2
 648:C:/Users/stapi/OneDrive/Desktop/GD32VW553/V1_MQTT_OK/GD32VW55X_Wifi_BLE_SDK/GD32VW55x_RELEASE_V1.0.2/MSDK/wpa_supplicant/src/tls\pkcs5.c **** 
 1689              		.loc 2 648 2
 650:C:/Users/stapi/OneDrive/Desktop/GD32VW553/V1_MQTT_OK/GD32VW55X_Wifi_BLE_SDK/GD32VW55x_RELEASE_V1.0.2/MSDK/wpa_supplicant/src/tls\pkcs5.c **** 		return pkcs5_crypto_init_pbes2(params, passwd);
 1690              		.loc 2 650 2
 650:C:/Users/stapi/OneDrive/Desktop/GD32VW553/V1_MQTT_OK/GD32VW55X_Wifi_BLE_SDK/GD32VW55x_RELEASE_V1.0.2/MSDK/wpa_supplicant/src/tls\pkcs5.c **** 		return pkcs5_crypto_init_pbes2(params, passwd);
 1691              		.loc 2 650 12 is_stmt 0
 1692 052a 83240116 		lw	s1,352(sp)
 650:C:/Users/stapi/OneDrive/Desktop/GD32VW553/V1_MQTT_OK/GD32VW55X_Wifi_BLE_SDK/GD32VW55x_RELEASE_V1.0.2/MSDK/wpa_supplicant/src/tls\pkcs5.c **** 		return pkcs5_crypto_init_pbes2(params, passwd);
 1693              		.loc 2 650 5
 1694 052e 8947     		li	a5,2
 1695 0530 6390F428 		bne	s1,a5,.L116
 651:C:/Users/stapi/OneDrive/Desktop/GD32VW553/V1_MQTT_OK/GD32VW55X_Wifi_BLE_SDK/GD32VW55x_RELEASE_V1.0.2/MSDK/wpa_supplicant/src/tls\pkcs5.c **** 
 1696              		.loc 2 651 3 is_stmt 1
 1697              	.LVL175:
 1698              	.LBB119:
 1699              	.LBB120:
 432:C:/Users/stapi/OneDrive/Desktop/GD32VW553/V1_MQTT_OK/GD32VW55X_Wifi_BLE_SDK/GD32VW55x_RELEASE_V1.0.2/MSDK/wpa_supplicant/src/tls\pkcs5.c **** 
 1700              		.loc 2 432 2
 434:C:/Users/stapi/OneDrive/Desktop/GD32VW553/V1_MQTT_OK/GD32VW55X_Wifi_BLE_SDK/GD32VW55x_RELEASE_V1.0.2/MSDK/wpa_supplicant/src/tls\pkcs5.c **** 	    params->iv_len != 8)
 1701              		.loc 2 434 2
 434:C:/Users/stapi/OneDrive/Desktop/GD32VW553/V1_MQTT_OK/GD32VW55X_Wifi_BLE_SDK/GD32VW55x_RELEASE_V1.0.2/MSDK/wpa_supplicant/src/tls\pkcs5.c **** 	    params->iv_len != 8)
 1702              		.loc 2 434 5 is_stmt 0
 1703 0534 0327C11A 		lw	a4,428(sp)
 1704 0538 8547     		li	a5,1
 1705 053a 6318F72E 		bne	a4,a5,.L118
 434:C:/Users/stapi/OneDrive/Desktop/GD32VW553/V1_MQTT_OK/GD32VW55X_Wifi_BLE_SDK/GD32VW55x_RELEASE_V1.0.2/MSDK/wpa_supplicant/src/tls\pkcs5.c **** 	    params->iv_len != 8)
 1706              		.loc 2 434 52
 1707 053e 0327C11B 		lw	a4,444(sp)
 1708 0542 A147     		li	a5,8
 1709 0544 6313F72E 		bne	a4,a5,.L118
 438:C:/Users/stapi/OneDrive/Desktop/GD32VW553/V1_MQTT_OK/GD32VW55X_Wifi_BLE_SDK/GD32VW55x_RELEASE_V1.0.2/MSDK/wpa_supplicant/src/tls\pkcs5.c **** 			      passwd, os_strlen(passwd));
 1710              		.loc 2 438 2 is_stmt 1
 1711 0548 2285     		mv	a0,s0
 1712 054a 97000000 		call	os_strlen
 1712      E7800000 
 1713              	.LVL176:
 1714 0552 B7050000 		lui	a1,%hi(.LC29)
 1715 0556 AA86     		mv	a3,a0
 1716 0558 2286     		mv	a2,s0
 1717 055a 93850500 		addi	a1,a1,%lo(.LC29)
 1718 055e 0945     		li	a0,2
 1719 0560 97000000 		call	wpa_hexdump_ascii_key
 1719      E7800000 
 1720              	.LVL177:
 440:C:/Users/stapi/OneDrive/Desktop/GD32VW553/V1_MQTT_OK/GD32VW55X_Wifi_BLE_SDK/GD32VW55x_RELEASE_V1.0.2/MSDK/wpa_supplicant/src/tls\pkcs5.c **** 		    params->salt, params->salt_len);
 1721              		.loc 2 440 2
 1722 0568 8326411A 		lw	a3,420(sp)
 1723 056c B7050000 		lui	a1,%hi(.LC30)
 1724 0570 D012     		addi	a2,sp,356
 1725 0572 93850500 		addi	a1,a1,%lo(.LC30)
 1726 0576 0945     		li	a0,2
 1727 0578 97000000 		call	wpa_hexdump
 1727      E7800000 
 1728              	.LVL178:
 442:C:/Users/stapi/OneDrive/Desktop/GD32VW553/V1_MQTT_OK/GD32VW55X_Wifi_BLE_SDK/GD32VW55x_RELEASE_V1.0.2/MSDK/wpa_supplicant/src/tls\pkcs5.c **** 		   params->iter_count);
 1729              		.loc 2 442 2
 1730 0580 0326811A 		lw	a2,424(sp)
 1731 0584 B7050000 		lui	a1,%hi(.LC31)
 1732 0588 93850500 		addi	a1,a1,%lo(.LC31)
 1733 058c 0945     		li	a0,2
 1734 058e 97000000 		call	wpa_printf
 1734      E7800000 
 1735              	.LVL179:
 449:C:/Users/stapi/OneDrive/Desktop/GD32VW553/V1_MQTT_OK/GD32VW55X_Wifi_BLE_SDK/GD32VW55x_RELEASE_V1.0.2/MSDK/wpa_supplicant/src/tls\pkcs5.c **** 	mbedtls_md_type_t md_type;
 1736              		.loc 2 449 2
 450:C:/Users/stapi/OneDrive/Desktop/GD32VW553/V1_MQTT_OK/GD32VW55X_Wifi_BLE_SDK/GD32VW55x_RELEASE_V1.0.2/MSDK/wpa_supplicant/src/tls\pkcs5.c **** 	mbedtls_md_context_t md_ctx;
 1737              		.loc 2 450 2
 451:C:/Users/stapi/OneDrive/Desktop/GD32VW553/V1_MQTT_OK/GD32VW55X_Wifi_BLE_SDK/GD32VW55x_RELEASE_V1.0.2/MSDK/wpa_supplicant/src/tls\pkcs5.c **** 
 1738              		.loc 2 451 2
 453:C:/Users/stapi/OneDrive/Desktop/GD32VW553/V1_MQTT_OK/GD32VW55X_Wifi_BLE_SDK/GD32VW55x_RELEASE_V1.0.2/MSDK/wpa_supplicant/src/tls\pkcs5.c **** 	case PBKDF2_DIG_ALG_MD5:
 1739              		.loc 2 453 2
 453:C:/Users/stapi/OneDrive/Desktop/GD32VW553/V1_MQTT_OK/GD32VW55X_Wifi_BLE_SDK/GD32VW55x_RELEASE_V1.0.2/MSDK/wpa_supplicant/src/tls\pkcs5.c **** 	case PBKDF2_DIG_ALG_MD5:
 1740              		.loc 2 453 16 is_stmt 0
 1741 0596 8327011B 		lw	a5,432(sp)
 1742 059a 1547     		li	a4,5
 1743 059c 8144     		li	s1,0
 1744 059e 9386F7FF 		addi	a3,a5,-1
 1745 05a2 6364D700 		bgtu	a3,a4,.L120
 1746 05a6 93842700 		addi	s1,a5,2
 1747              	.L120:
 1748              	.LVL180:
 477:C:/Users/stapi/OneDrive/Desktop/GD32VW553/V1_MQTT_OK/GD32VW55X_Wifi_BLE_SDK/GD32VW55x_RELEASE_V1.0.2/MSDK/wpa_supplicant/src/tls\pkcs5.c **** 
 1749              		.loc 2 477 2 is_stmt 1
 1750 05aa 2819     		addi	a0,sp,184
 1751 05ac 97000000 		call	mbedtls_md_init
 1751      E7800000 
 1752              	.LVL181:
 479:C:/Users/stapi/OneDrive/Desktop/GD32VW553/V1_MQTT_OK/GD32VW55X_Wifi_BLE_SDK/GD32VW55x_RELEASE_V1.0.2/MSDK/wpa_supplicant/src/tls\pkcs5.c **** 	if(md_info == NULL)
 1753              		.loc 2 479 2
 479:C:/Users/stapi/OneDrive/Desktop/GD32VW553/V1_MQTT_OK/GD32VW55X_Wifi_BLE_SDK/GD32VW55x_RELEASE_V1.0.2/MSDK/wpa_supplicant/src/tls\pkcs5.c **** 	if(md_info == NULL)
 1754              		.loc 2 479 12 is_stmt 0
 1755 05b4 2685     		mv	a0,s1
 1756 05b6 97000000 		call	mbedtls_md_info_from_type
 1756      E7800000 
 1757              	.LVL182:
 1758 05be AA85     		mv	a1,a0
 1759              	.LVL183:
 480:C:/Users/stapi/OneDrive/Desktop/GD32VW553/V1_MQTT_OK/GD32VW55X_Wifi_BLE_SDK/GD32VW55x_RELEASE_V1.0.2/MSDK/wpa_supplicant/src/tls\pkcs5.c **** 		return NULL;
 1760              		.loc 2 480 2 is_stmt 1
 480:C:/Users/stapi/OneDrive/Desktop/GD32VW553/V1_MQTT_OK/GD32VW55X_Wifi_BLE_SDK/GD32VW55x_RELEASE_V1.0.2/MSDK/wpa_supplicant/src/tls\pkcs5.c **** 		return NULL;
 1761              		.loc 2 480 4 is_stmt 0
 1762 05c0 63050526 		beq	a0,zero,.L118
 483:C:/Users/stapi/OneDrive/Desktop/GD32VW553/V1_MQTT_OK/GD32VW55X_Wifi_BLE_SDK/GD32VW55x_RELEASE_V1.0.2/MSDK/wpa_supplicant/src/tls\pkcs5.c **** 		return NULL;
 1763              		.loc 2 483 2 is_stmt 1
 483:C:/Users/stapi/OneDrive/Desktop/GD32VW553/V1_MQTT_OK/GD32VW55X_Wifi_BLE_SDK/GD32VW55x_RELEASE_V1.0.2/MSDK/wpa_supplicant/src/tls\pkcs5.c **** 		return NULL;
 1764              		.loc 2 483 6 is_stmt 0
 1765 05c4 0546     		li	a2,1
 1766 05c6 2819     		addi	a0,sp,184
 1767              	.LVL184:
 1768 05c8 97000000 		call	mbedtls_md_setup
 1768      E7800000 
 1769              	.LVL185:
 483:C:/Users/stapi/OneDrive/Desktop/GD32VW553/V1_MQTT_OK/GD32VW55X_Wifi_BLE_SDK/GD32VW55x_RELEASE_V1.0.2/MSDK/wpa_supplicant/src/tls\pkcs5.c **** 		return NULL;
 1770              		.loc 2 483 5
 1771 05d0 631D0524 		bne	a0,zero,.L118
 485:C:/Users/stapi/OneDrive/Desktop/GD32VW553/V1_MQTT_OK/GD32VW55X_Wifi_BLE_SDK/GD32VW55x_RELEASE_V1.0.2/MSDK/wpa_supplicant/src/tls\pkcs5.c **** 							strlen(passwd), params->salt, params->salt_len,
 1772              		.loc 2 485 2 is_stmt 1
 485:C:/Users/stapi/OneDrive/Desktop/GD32VW553/V1_MQTT_OK/GD32VW55X_Wifi_BLE_SDK/GD32VW55x_RELEASE_V1.0.2/MSDK/wpa_supplicant/src/tls\pkcs5.c **** 							strlen(passwd), params->salt, params->salt_len,
 1773              		.loc 2 485 6 is_stmt 0
 1774 05d4 2285     		mv	a0,s0
 1775 05d6 97000000 		call	strlen
 1775      E7800000 
 1776              	.LVL186:
 1777 05de 8327811A 		lw	a5,424(sp)
 1778 05e2 0327411A 		lw	a4,420(sp)
 1779 05e6 2A86     		mv	a2,a0
 1780 05e8 9308C110 		addi	a7,sp,268
 1781 05ec 6148     		li	a6,24
 1782 05ee D412     		addi	a3,sp,356
 1783 05f0 A285     		mv	a1,s0
 1784 05f2 2819     		addi	a0,sp,184
 1785 05f4 97000000 		call	mbedtls_pkcs5_pbkdf2_hmac
 1785      E7800000 
 1786              	.LVL187:
 485:C:/Users/stapi/OneDrive/Desktop/GD32VW553/V1_MQTT_OK/GD32VW55X_Wifi_BLE_SDK/GD32VW55x_RELEASE_V1.0.2/MSDK/wpa_supplicant/src/tls\pkcs5.c **** 							strlen(passwd), params->salt, params->salt_len,
 1787              		.loc 2 485 5
 1788 05fc 63170522 		bne	a0,zero,.L118
 492:C:/Users/stapi/OneDrive/Desktop/GD32VW553/V1_MQTT_OK/GD32VW55X_Wifi_BLE_SDK/GD32VW55x_RELEASE_V1.0.2/MSDK/wpa_supplicant/src/tls\pkcs5.c **** 	wpa_hexdump(MSG_DEBUG, "PKCS #5: DES IV", params->iv, params->iv_len);
 1789              		.loc 2 492 2 is_stmt 1
 1790 0600 B7050000 		lui	a1,%hi(.LC32)
 1791 0604 E146     		li	a3,24
 1792 0606 7002     		addi	a2,sp,268
 1793 0608 93850500 		addi	a1,a1,%lo(.LC32)
 1794 060c 0945     		li	a0,2
 1795 060e 97000000 		call	wpa_hexdump_key
 1795      E7800000 
 1796              	.LVL188:
 493:C:/Users/stapi/OneDrive/Desktop/GD32VW553/V1_MQTT_OK/GD32VW55X_Wifi_BLE_SDK/GD32VW55x_RELEASE_V1.0.2/MSDK/wpa_supplicant/src/tls\pkcs5.c **** 
 1797              		.loc 2 493 2
 1798 0616 8326C11B 		lw	a3,444(sp)
 1799 061a B7050000 		lui	a1,%hi(.LC33)
 1800 061e 501B     		addi	a2,sp,436
 1801 0620 93850500 		addi	a1,a1,%lo(.LC33)
 1802 0624 0945     		li	a0,2
 1803 0626 97000000 		call	wpa_hexdump
 1803      E7800000 
 1804              	.LVL189:
 495:C:/Users/stapi/OneDrive/Desktop/GD32VW553/V1_MQTT_OK/GD32VW55X_Wifi_BLE_SDK/GD32VW55x_RELEASE_V1.0.2/MSDK/wpa_supplicant/src/tls\pkcs5.c **** 				  key, sizeof(key));
 1805              		.loc 2 495 2
 495:C:/Users/stapi/OneDrive/Desktop/GD32VW553/V1_MQTT_OK/GD32VW55X_Wifi_BLE_SDK/GD32VW55x_RELEASE_V1.0.2/MSDK/wpa_supplicant/src/tls\pkcs5.c **** 				  key, sizeof(key));
 1806              		.loc 2 495 9 is_stmt 0
 1807 062e E146     		li	a3,24
 1808 0630 7002     		addi	a2,sp,268
 1809 0632 4C1B     		addi	a1,sp,436
 1810              	.LVL190:
 1811              	.L183:
 1812              	.LBE120:
 1813              	.LBE119:
 1814              	.LBB121:
 1815              	.LBB122:
 638:C:/Users/stapi/OneDrive/Desktop/GD32VW553/V1_MQTT_OK/GD32VW55X_Wifi_BLE_SDK/GD32VW55x_RELEASE_V1.0.2/MSDK/wpa_supplicant/src/tls\pkcs5.c **** }
 1816              		.loc 2 638 9
 1817 0634 0945     		li	a0,2
 1818              	.LVL191:
 1819              	.L177:
 1820              	.LBE122:
 1821              	.LBE121:
 675:C:/Users/stapi/OneDrive/Desktop/GD32VW553/V1_MQTT_OK/GD32VW55X_Wifi_BLE_SDK/GD32VW55x_RELEASE_V1.0.2/MSDK/wpa_supplicant/src/tls\pkcs5.c **** }
 1822              		.loc 2 675 9
 1823 0636 97000000 		call	crypto_cipher_init
 1823      E7800000 
 1824              	.LVL192:
 1825 063e AA84     		mv	s1,a0
 1826              	.LVL193:
 1827              	.LBE118:
 1828              	.LBE117:
 694:C:/Users/stapi/OneDrive/Desktop/GD32VW553/V1_MQTT_OK/GD32VW55X_Wifi_BLE_SDK/GD32VW55x_RELEASE_V1.0.2/MSDK/wpa_supplicant/src/tls\pkcs5.c **** 		wpa_printf(MSG_DEBUG, "PKCS #5: Failed to initialize crypto");
 1829              		.loc 2 694 2 is_stmt 1
 694:C:/Users/stapi/OneDrive/Desktop/GD32VW553/V1_MQTT_OK/GD32VW55X_Wifi_BLE_SDK/GD32VW55x_RELEASE_V1.0.2/MSDK/wpa_supplicant/src/tls\pkcs5.c **** 		wpa_printf(MSG_DEBUG, "PKCS #5: Failed to initialize crypto");
 1830              		.loc 2 694 5 is_stmt 0
 1831 0640 6305051E 		beq	a0,zero,.L118
 700:C:/Users/stapi/OneDrive/Desktop/GD32VW553/V1_MQTT_OK/GD32VW55X_Wifi_BLE_SDK/GD32VW55x_RELEASE_V1.0.2/MSDK/wpa_supplicant/src/tls\pkcs5.c **** 		wpa_printf(MSG_INFO, "PKCS #5: invalid length of ciphertext "
 1832              		.loc 2 700 2 is_stmt 1
 700:C:/Users/stapi/OneDrive/Desktop/GD32VW553/V1_MQTT_OK/GD32VW55X_Wifi_BLE_SDK/GD32VW55x_RELEASE_V1.0.2/MSDK/wpa_supplicant/src/tls\pkcs5.c **** 		wpa_printf(MSG_INFO, "PKCS #5: invalid length of ciphertext "
 1833              		.loc 2 700 5 is_stmt 0
 1834 0644 BD47     		li	a5,15
 1835 0646 63F62701 		bleu	s2,a5,.L134
 700:C:/Users/stapi/OneDrive/Desktop/GD32VW553/V1_MQTT_OK/GD32VW55X_Wifi_BLE_SDK/GD32VW55x_RELEASE_V1.0.2/MSDK/wpa_supplicant/src/tls\pkcs5.c **** 		wpa_printf(MSG_INFO, "PKCS #5: invalid length of ciphertext "
 1836              		.loc 2 700 40 discriminator 1
 1837 064a 93777900 		andi	a5,s2,7
 700:C:/Users/stapi/OneDrive/Desktop/GD32VW553/V1_MQTT_OK/GD32VW55X_Wifi_BLE_SDK/GD32VW55x_RELEASE_V1.0.2/MSDK/wpa_supplicant/src/tls\pkcs5.c **** 		wpa_printf(MSG_INFO, "PKCS #5: invalid length of ciphertext "
 1838              		.loc 2 700 24 discriminator 1
 1839 064e 638B072C 		beq	a5,zero,.L135
 1840              	.L134:
 701:C:/Users/stapi/OneDrive/Desktop/GD32VW553/V1_MQTT_OK/GD32VW55X_Wifi_BLE_SDK/GD32VW55x_RELEASE_V1.0.2/MSDK/wpa_supplicant/src/tls\pkcs5.c **** 			   "%d", (int) enc_data_len);
 1841              		.loc 2 701 3 is_stmt 1
 1842 0652 B7050000 		lui	a1,%hi(.LC38)
 1843 0656 4A86     		mv	a2,s2
 1844 0658 93850500 		addi	a1,a1,%lo(.LC38)
 1845 065c 0D45     		li	a0,3
 1846 065e 97000000 		call	wpa_printf
 1846      E7800000 
 1847              	.LVL194:
 703:C:/Users/stapi/OneDrive/Desktop/GD32VW553/V1_MQTT_OK/GD32VW55X_Wifi_BLE_SDK/GD32VW55x_RELEASE_V1.0.2/MSDK/wpa_supplicant/src/tls\pkcs5.c **** 		return NULL;
 1848              		.loc 2 703 3
 1849 0666 2685     		mv	a0,s1
 1850 0668 97000000 		call	crypto_cipher_deinit
 1850      E7800000 
 1851              	.LVL195:
 704:C:/Users/stapi/OneDrive/Desktop/GD32VW553/V1_MQTT_OK/GD32VW55X_Wifi_BLE_SDK/GD32VW55x_RELEASE_V1.0.2/MSDK/wpa_supplicant/src/tls\pkcs5.c **** 	}
 1852              		.loc 2 704 3
 1853 0670 C5BA     		j	.L180
 1854              	.LVL196:
 1855              	.L165:
 1856              	.LBB131:
 1857              	.LBB108:
 378:C:/Users/stapi/OneDrive/Desktop/GD32VW553/V1_MQTT_OK/GD32VW55X_Wifi_BLE_SDK/GD32VW55x_RELEASE_V1.0.2/MSDK/wpa_supplicant/src/tls\pkcs5.c **** 		asn1_unexpected(&hdr,
 1858              		.loc 2 378 7 is_stmt 0
 1859 0672 6802     		addi	a0,sp,268
 1860 0674 97000000 		call	asn1_is_sequence
 1860      E7800000 
 1861              	.LVL197:
 377:C:/Users/stapi/OneDrive/Desktop/GD32VW553/V1_MQTT_OK/GD32VW55X_Wifi_BLE_SDK/GD32VW55x_RELEASE_V1.0.2/MSDK/wpa_supplicant/src/tls\pkcs5.c **** 	    !asn1_is_sequence(&hdr)) {
 1862              		.loc 2 377 54
 1863 067c E30405A6 		beq	a0,zero,.L142
 383:C:/Users/stapi/OneDrive/Desktop/GD32VW553/V1_MQTT_OK/GD32VW55X_Wifi_BLE_SDK/GD32VW55x_RELEASE_V1.0.2/MSDK/wpa_supplicant/src/tls\pkcs5.c **** 	end = hdr.payload + hdr.length;
 1864              		.loc 2 383 2 is_stmt 1
 383:C:/Users/stapi/OneDrive/Desktop/GD32VW553/V1_MQTT_OK/GD32VW55X_Wifi_BLE_SDK/GD32VW55x_RELEASE_V1.0.2/MSDK/wpa_supplicant/src/tls\pkcs5.c **** 	end = hdr.payload + hdr.length;
 1865              		.loc 2 383 11 is_stmt 0
 1866 0680 0325C110 		lw	a0,268(sp)
 384:C:/Users/stapi/OneDrive/Desktop/GD32VW553/V1_MQTT_OK/GD32VW55X_Wifi_BLE_SDK/GD32VW55x_RELEASE_V1.0.2/MSDK/wpa_supplicant/src/tls\pkcs5.c **** 
 1867              		.loc 2 384 25
 1868 0684 83258111 		lw	a1,280(sp)
 387:C:/Users/stapi/OneDrive/Desktop/GD32VW553/V1_MQTT_OK/GD32VW55X_Wifi_BLE_SDK/GD32VW55x_RELEASE_V1.0.2/MSDK/wpa_supplicant/src/tls\pkcs5.c **** 	    !asn1_is_octetstring(&hdr) || hdr.length > sizeof(params->salt)) {
 1869              		.loc 2 387 6
 1870 0688 7002     		addi	a2,sp,268
 383:C:/Users/stapi/OneDrive/Desktop/GD32VW553/V1_MQTT_OK/GD32VW55X_Wifi_BLE_SDK/GD32VW55x_RELEASE_V1.0.2/MSDK/wpa_supplicant/src/tls\pkcs5.c **** 	end = hdr.payload + hdr.length;
 1871              		.loc 2 383 6
 1872 068a 2AC0     		sw	a0,0(sp)
 384:C:/Users/stapi/OneDrive/Desktop/GD32VW553/V1_MQTT_OK/GD32VW55X_Wifi_BLE_SDK/GD32VW55x_RELEASE_V1.0.2/MSDK/wpa_supplicant/src/tls\pkcs5.c **** 
 1873              		.loc 2 384 2 is_stmt 1
 384:C:/Users/stapi/OneDrive/Desktop/GD32VW553/V1_MQTT_OK/GD32VW55X_Wifi_BLE_SDK/GD32VW55x_RELEASE_V1.0.2/MSDK/wpa_supplicant/src/tls\pkcs5.c **** 
 1874              		.loc 2 384 6 is_stmt 0
 1875 068c B304B500 		add	s1,a0,a1
 1876              	.LVL198:
 387:C:/Users/stapi/OneDrive/Desktop/GD32VW553/V1_MQTT_OK/GD32VW55X_Wifi_BLE_SDK/GD32VW55x_RELEASE_V1.0.2/MSDK/wpa_supplicant/src/tls\pkcs5.c **** 	    !asn1_is_octetstring(&hdr) || hdr.length > sizeof(params->salt)) {
 1877              		.loc 2 387 2 is_stmt 1
 387:C:/Users/stapi/OneDrive/Desktop/GD32VW553/V1_MQTT_OK/GD32VW55X_Wifi_BLE_SDK/GD32VW55x_RELEASE_V1.0.2/MSDK/wpa_supplicant/src/tls\pkcs5.c **** 	    !asn1_is_octetstring(&hdr) || hdr.length > sizeof(params->salt)) {
 1878              		.loc 2 387 6 is_stmt 0
 1879 0690 97000000 		call	asn1_get_next
 1879      E7800000 
 1880              	.LVL199:
 387:C:/Users/stapi/OneDrive/Desktop/GD32VW553/V1_MQTT_OK/GD32VW55X_Wifi_BLE_SDK/GD32VW55x_RELEASE_V1.0.2/MSDK/wpa_supplicant/src/tls\pkcs5.c **** 	    !asn1_is_octetstring(&hdr) || hdr.length > sizeof(params->salt)) {
 1881              		.loc 2 387 5
 1882 0698 63400502 		blt	a0,zero,.L106
 1883              	.LVL200:
 1884              	.LBB98:
 1885              	.LBB99:
 1886              		.loc 1 126 2 is_stmt 1
 1887              		.loc 1 126 44 is_stmt 0
 1888 069c 83471111 		lbu	a5,273(sp)
 1889 06a0 81EF     		bne	a5,zero,.L106
 1890 06a2 03274111 		lw	a4,276(sp)
 1891 06a6 9147     		li	a5,4
 1892 06a8 6318F700 		bne	a4,a5,.L106
 1893              	.LVL201:
 1894              	.LBE99:
 1895              	.LBE98:
 388:C:/Users/stapi/OneDrive/Desktop/GD32VW553/V1_MQTT_OK/GD32VW55X_Wifi_BLE_SDK/GD32VW55x_RELEASE_V1.0.2/MSDK/wpa_supplicant/src/tls\pkcs5.c **** 		asn1_unexpected(&hdr,
 1896              		.loc 2 388 39
 1897 06ac 03268111 		lw	a2,280(sp)
 388:C:/Users/stapi/OneDrive/Desktop/GD32VW553/V1_MQTT_OK/GD32VW55X_Wifi_BLE_SDK/GD32VW55x_RELEASE_V1.0.2/MSDK/wpa_supplicant/src/tls\pkcs5.c **** 		asn1_unexpected(&hdr,
 1898              		.loc 2 388 33
 1899 06b0 93070004 		li	a5,64
 1900 06b4 63F7C700 		bleu	a2,a5,.L107
 1901              	.L106:
 389:C:/Users/stapi/OneDrive/Desktop/GD32VW553/V1_MQTT_OK/GD32VW55X_Wifi_BLE_SDK/GD32VW55x_RELEASE_V1.0.2/MSDK/wpa_supplicant/src/tls\pkcs5.c **** 				"PKCS #5: Expected OCTETSTRING SIZE(8) (salt)");
 1902              		.loc 2 389 3 is_stmt 1
 1903 06b8 B7050000 		lui	a1,%hi(.LC26)
 1904 06bc 93850500 		addi	a1,a1,%lo(.LC26)
 1905 06c0 35B4     		j	.L171
 1906              	.L107:
 393:C:/Users/stapi/OneDrive/Desktop/GD32VW553/V1_MQTT_OK/GD32VW55X_Wifi_BLE_SDK/GD32VW55x_RELEASE_V1.0.2/MSDK/wpa_supplicant/src/tls\pkcs5.c **** 	os_memcpy(params->salt, hdr.payload, hdr.length);
 1907              		.loc 2 393 2
 393:C:/Users/stapi/OneDrive/Desktop/GD32VW553/V1_MQTT_OK/GD32VW55X_Wifi_BLE_SDK/GD32VW55x_RELEASE_V1.0.2/MSDK/wpa_supplicant/src/tls\pkcs5.c **** 	os_memcpy(params->salt, hdr.payload, hdr.length);
 1908              		.loc 2 393 11 is_stmt 0
 1909 06c2 8325C110 		lw	a1,268(sp)
 394:C:/Users/stapi/OneDrive/Desktop/GD32VW553/V1_MQTT_OK/GD32VW55X_Wifi_BLE_SDK/GD32VW55x_RELEASE_V1.0.2/MSDK/wpa_supplicant/src/tls\pkcs5.c **** 	params->salt_len = hdr.length;
 1910              		.loc 2 394 2
 1911 06c6 C812     		addi	a0,sp,356
 393:C:/Users/stapi/OneDrive/Desktop/GD32VW553/V1_MQTT_OK/GD32VW55X_Wifi_BLE_SDK/GD32VW55x_RELEASE_V1.0.2/MSDK/wpa_supplicant/src/tls\pkcs5.c **** 	os_memcpy(params->salt, hdr.payload, hdr.length);
 1912              		.loc 2 393 20
 1913 06c8 B387C500 		add	a5,a1,a2
 393:C:/Users/stapi/OneDrive/Desktop/GD32VW553/V1_MQTT_OK/GD32VW55X_Wifi_BLE_SDK/GD32VW55x_RELEASE_V1.0.2/MSDK/wpa_supplicant/src/tls\pkcs5.c **** 	os_memcpy(params->salt, hdr.payload, hdr.length);
 1914              		.loc 2 393 6
 1915 06cc 3EC0     		sw	a5,0(sp)
 394:C:/Users/stapi/OneDrive/Desktop/GD32VW553/V1_MQTT_OK/GD32VW55X_Wifi_BLE_SDK/GD32VW55x_RELEASE_V1.0.2/MSDK/wpa_supplicant/src/tls\pkcs5.c **** 	params->salt_len = hdr.length;
 1916              		.loc 2 394 2 is_stmt 1
 1917 06ce 97000000 		call	os_memcpy
 1917      E7800000 
 1918              	.LVL202:
 395:C:/Users/stapi/OneDrive/Desktop/GD32VW553/V1_MQTT_OK/GD32VW55X_Wifi_BLE_SDK/GD32VW55x_RELEASE_V1.0.2/MSDK/wpa_supplicant/src/tls\pkcs5.c **** 	wpa_hexdump(MSG_DEBUG, "PKCS #5: salt",
 1919              		.loc 2 395 2
 395:C:/Users/stapi/OneDrive/Desktop/GD32VW553/V1_MQTT_OK/GD32VW55X_Wifi_BLE_SDK/GD32VW55x_RELEASE_V1.0.2/MSDK/wpa_supplicant/src/tls\pkcs5.c **** 	wpa_hexdump(MSG_DEBUG, "PKCS #5: salt",
 1920              		.loc 2 395 24 is_stmt 0
 1921 06d6 83268111 		lw	a3,280(sp)
 396:C:/Users/stapi/OneDrive/Desktop/GD32VW553/V1_MQTT_OK/GD32VW55X_Wifi_BLE_SDK/GD32VW55x_RELEASE_V1.0.2/MSDK/wpa_supplicant/src/tls\pkcs5.c **** 		    params->salt, params->salt_len);
 1922              		.loc 2 396 2
 1923 06da B7050000 		lui	a1,%hi(.LC10)
 1924 06de D012     		addi	a2,sp,356
 1925 06e0 93850500 		addi	a1,a1,%lo(.LC10)
 1926 06e4 0945     		li	a0,2
 395:C:/Users/stapi/OneDrive/Desktop/GD32VW553/V1_MQTT_OK/GD32VW55X_Wifi_BLE_SDK/GD32VW55x_RELEASE_V1.0.2/MSDK/wpa_supplicant/src/tls\pkcs5.c **** 	wpa_hexdump(MSG_DEBUG, "PKCS #5: salt",
 1927              		.loc 2 395 19
 1928 06e6 2322D11A 		sw	a3,420(sp)
 396:C:/Users/stapi/OneDrive/Desktop/GD32VW553/V1_MQTT_OK/GD32VW55X_Wifi_BLE_SDK/GD32VW55x_RELEASE_V1.0.2/MSDK/wpa_supplicant/src/tls\pkcs5.c **** 		    params->salt, params->salt_len);
 1929              		.loc 2 396 2 is_stmt 1
 1930 06ea 97000000 		call	wpa_hexdump
 1930      E7800000 
 1931              	.LVL203:
 400:C:/Users/stapi/OneDrive/Desktop/GD32VW553/V1_MQTT_OK/GD32VW55X_Wifi_BLE_SDK/GD32VW55x_RELEASE_V1.0.2/MSDK/wpa_supplicant/src/tls\pkcs5.c **** 	    !asn1_is_integer(&hdr)) {
 1932              		.loc 2 400 2
 400:C:/Users/stapi/OneDrive/Desktop/GD32VW553/V1_MQTT_OK/GD32VW55X_Wifi_BLE_SDK/GD32VW55x_RELEASE_V1.0.2/MSDK/wpa_supplicant/src/tls\pkcs5.c **** 	    !asn1_is_integer(&hdr)) {
 1933              		.loc 2 400 6 is_stmt 0
 1934 06f2 0245     		lw	a0,0(sp)
 1935 06f4 7002     		addi	a2,sp,268
 1936 06f6 B385A440 		sub	a1,s1,a0
 1937 06fa 97000000 		call	asn1_get_next
 1937      E7800000 
 1938              	.LVL204:
 400:C:/Users/stapi/OneDrive/Desktop/GD32VW553/V1_MQTT_OK/GD32VW55X_Wifi_BLE_SDK/GD32VW55x_RELEASE_V1.0.2/MSDK/wpa_supplicant/src/tls\pkcs5.c **** 	    !asn1_is_integer(&hdr)) {
 1939              		.loc 2 400 5
 1940 0702 63490504 		blt	a0,zero,.L108
 1941              	.LVL205:
 1942              	.LBB100:
 1943              	.LBB101:
 102:C:/Users/stapi/OneDrive/Desktop/GD32VW553/V1_MQTT_OK/GD32VW55X_Wifi_BLE_SDK/GD32VW55x_RELEASE_V1.0.2/MSDK/wpa_supplicant/src/tls\asn1.h **** 		hdr->tag == ASN1_TAG_INTEGER;
 1944              		.loc 1 102 2 is_stmt 1
 102:C:/Users/stapi/OneDrive/Desktop/GD32VW553/V1_MQTT_OK/GD32VW55X_Wifi_BLE_SDK/GD32VW55x_RELEASE_V1.0.2/MSDK/wpa_supplicant/src/tls\asn1.h **** 		hdr->tag == ASN1_TAG_INTEGER;
 1945              		.loc 1 102 44 is_stmt 0
 1946 0706 83471111 		lbu	a5,273(sp)
 1947 070a A9E7     		bne	a5,zero,.L108
 1948 070c 03274111 		lw	a4,276(sp)
 1949 0710 8947     		li	a5,2
 1950 0712 6311F704 		bne	a4,a5,.L108
 1951              	.LVL206:
 1952              	.LBE101:
 1953              	.LBE100:
 405:C:/Users/stapi/OneDrive/Desktop/GD32VW553/V1_MQTT_OK/GD32VW55X_Wifi_BLE_SDK/GD32VW55x_RELEASE_V1.0.2/MSDK/wpa_supplicant/src/tls\pkcs5.c **** 		params->iter_count = *hdr.payload;
 1954              		.loc 2 405 2 is_stmt 1
 405:C:/Users/stapi/OneDrive/Desktop/GD32VW553/V1_MQTT_OK/GD32VW55X_Wifi_BLE_SDK/GD32VW55x_RELEASE_V1.0.2/MSDK/wpa_supplicant/src/tls\pkcs5.c **** 		params->iter_count = *hdr.payload;
 1955              		.loc 2 405 9 is_stmt 0
 1956 0716 83268111 		lw	a3,280(sp)
 405:C:/Users/stapi/OneDrive/Desktop/GD32VW553/V1_MQTT_OK/GD32VW55X_Wifi_BLE_SDK/GD32VW55x_RELEASE_V1.0.2/MSDK/wpa_supplicant/src/tls\pkcs5.c **** 		params->iter_count = *hdr.payload;
 1957              		.loc 2 405 5
 1958 071a 8547     		li	a5,1
 406:C:/Users/stapi/OneDrive/Desktop/GD32VW553/V1_MQTT_OK/GD32VW55X_Wifi_BLE_SDK/GD32VW55x_RELEASE_V1.0.2/MSDK/wpa_supplicant/src/tls\pkcs5.c **** 	else if (hdr.length == 2)
 1959              		.loc 2 406 28
 1960 071c 0326C110 		lw	a2,268(sp)
 405:C:/Users/stapi/OneDrive/Desktop/GD32VW553/V1_MQTT_OK/GD32VW55X_Wifi_BLE_SDK/GD32VW55x_RELEASE_V1.0.2/MSDK/wpa_supplicant/src/tls\pkcs5.c **** 		params->iter_count = *hdr.payload;
 1961              		.loc 2 405 5
 1962 0720 639FF602 		bne	a3,a5,.L164
 406:C:/Users/stapi/OneDrive/Desktop/GD32VW553/V1_MQTT_OK/GD32VW55X_Wifi_BLE_SDK/GD32VW55x_RELEASE_V1.0.2/MSDK/wpa_supplicant/src/tls\pkcs5.c **** 	else if (hdr.length == 2)
 1963              		.loc 2 406 3 is_stmt 1
 406:C:/Users/stapi/OneDrive/Desktop/GD32VW553/V1_MQTT_OK/GD32VW55X_Wifi_BLE_SDK/GD32VW55x_RELEASE_V1.0.2/MSDK/wpa_supplicant/src/tls\pkcs5.c **** 	else if (hdr.length == 2)
 1964              		.loc 2 406 24 is_stmt 0
 1965 0724 83470600 		lbu	a5,0(a2)
 1966              	.L169:
 410:C:/Users/stapi/OneDrive/Desktop/GD32VW553/V1_MQTT_OK/GD32VW55X_Wifi_BLE_SDK/GD32VW55x_RELEASE_V1.0.2/MSDK/wpa_supplicant/src/tls\pkcs5.c **** 	else {
 1967              		.loc 2 410 22
 1968 0728 2324F11A 		sw	a5,424(sp)
 417:C:/Users/stapi/OneDrive/Desktop/GD32VW553/V1_MQTT_OK/GD32VW55X_Wifi_BLE_SDK/GD32VW55x_RELEASE_V1.0.2/MSDK/wpa_supplicant/src/tls\pkcs5.c **** 		   params->iter_count);
 1969              		.loc 2 417 2 is_stmt 1
 1970 072c 0326811A 		lw	a2,424(sp)
 1971 0730 B7050000 		lui	a1,%hi(.LC13)
 1972 0734 93850500 		addi	a1,a1,%lo(.LC13)
 1973 0738 0945     		li	a0,2
 1974 073a 97000000 		call	wpa_printf
 1974      E7800000 
 1975              	.LVL207:
 419:C:/Users/stapi/OneDrive/Desktop/GD32VW553/V1_MQTT_OK/GD32VW55X_Wifi_BLE_SDK/GD32VW55x_RELEASE_V1.0.2/MSDK/wpa_supplicant/src/tls\pkcs5.c **** 		wpa_printf(MSG_INFO, "PKCS #5: Unsupported "
 1976              		.loc 2 419 2
 419:C:/Users/stapi/OneDrive/Desktop/GD32VW553/V1_MQTT_OK/GD32VW55X_Wifi_BLE_SDK/GD32VW55x_RELEASE_V1.0.2/MSDK/wpa_supplicant/src/tls\pkcs5.c **** 		wpa_printf(MSG_INFO, "PKCS #5: Unsupported "
 1977              		.loc 2 419 12 is_stmt 0
 1978 0742 0326811A 		lw	a2,424(sp)
 419:C:/Users/stapi/OneDrive/Desktop/GD32VW553/V1_MQTT_OK/GD32VW55X_Wifi_BLE_SDK/GD32VW55x_RELEASE_V1.0.2/MSDK/wpa_supplicant/src/tls\pkcs5.c **** 		wpa_printf(MSG_INFO, "PKCS #5: Unsupported "
 1979              		.loc 2 419 5
 1980 0746 C167     		li	a5,65536
 1981 0748 F917     		addi	a5,a5,-2
 419:C:/Users/stapi/OneDrive/Desktop/GD32VW553/V1_MQTT_OK/GD32VW55X_Wifi_BLE_SDK/GD32VW55x_RELEASE_V1.0.2/MSDK/wpa_supplicant/src/tls\pkcs5.c **** 		wpa_printf(MSG_INFO, "PKCS #5: Unsupported "
 1982              		.loc 2 419 30
 1983 074a 1307F6FF 		addi	a4,a2,-1
 419:C:/Users/stapi/OneDrive/Desktop/GD32VW553/V1_MQTT_OK/GD32VW55X_Wifi_BLE_SDK/GD32VW55x_RELEASE_V1.0.2/MSDK/wpa_supplicant/src/tls\pkcs5.c **** 		wpa_printf(MSG_INFO, "PKCS #5: Unsupported "
 1984              		.loc 2 419 5
 1985 074e E3FEE7DC 		bleu	a4,a5,.L104
 1986 0752 B5BE     		j	.L176
 1987              	.L108:
 402:C:/Users/stapi/OneDrive/Desktop/GD32VW553/V1_MQTT_OK/GD32VW55X_Wifi_BLE_SDK/GD32VW55x_RELEASE_V1.0.2/MSDK/wpa_supplicant/src/tls\pkcs5.c **** 		return -1;
 1988              		.loc 2 402 3 is_stmt 1
 1989 0754 B7050000 		lui	a1,%hi(.LC11)
 1990 0758 93850500 		addi	a1,a1,%lo(.LC11)
 1991 075c 41BA     		j	.L171
 1992              	.L164:
 407:C:/Users/stapi/OneDrive/Desktop/GD32VW553/V1_MQTT_OK/GD32VW55X_Wifi_BLE_SDK/GD32VW55x_RELEASE_V1.0.2/MSDK/wpa_supplicant/src/tls\pkcs5.c **** 		params->iter_count = WPA_GET_BE16(hdr.payload);
 1993              		.loc 2 407 7
 407:C:/Users/stapi/OneDrive/Desktop/GD32VW553/V1_MQTT_OK/GD32VW55X_Wifi_BLE_SDK/GD32VW55x_RELEASE_V1.0.2/MSDK/wpa_supplicant/src/tls\pkcs5.c **** 		params->iter_count = WPA_GET_BE16(hdr.payload);
 1994              		.loc 2 407 10 is_stmt 0
 1995 075e 8947     		li	a5,2
 1996 0760 639FF600 		bne	a3,a5,.L112
 408:C:/Users/stapi/OneDrive/Desktop/GD32VW553/V1_MQTT_OK/GD32VW55X_Wifi_BLE_SDK/GD32VW55x_RELEASE_V1.0.2/MSDK/wpa_supplicant/src/tls\pkcs5.c **** 	else if (hdr.length == 4)
 1997              		.loc 2 408 3 is_stmt 1
 1998              	.LVL208:
 1999              	.LBE108:
 2000              	.LBE131:
 242:..\..\..\..\wpa_supplicant\src\utils/common.h **** }
 2001              		.loc 3 242 2
 2002              	.LBB132:
 2003              	.LBB109:
 408:C:/Users/stapi/OneDrive/Desktop/GD32VW553/V1_MQTT_OK/GD32VW55X_Wifi_BLE_SDK/GD32VW55x_RELEASE_V1.0.2/MSDK/wpa_supplicant/src/tls\pkcs5.c **** 	else if (hdr.length == 4)
 2004              		.loc 2 408 24 is_stmt 0
 2005 0764 83471600 		lbu	a5,1(a2)
 2006 0768 03470600 		lbu	a4,0(a2)
 2007 076c A207     		slli	a5,a5,8
 2008 076e D98F     		or	a5,a5,a4
 2009 0770 13978700 		slli	a4,a5,8
 2010 0774 A183     		srli	a5,a5,8
 2011 0776 D98F     		or	a5,a4,a5
 2012 0778 B3C70708 		zext.h	a5,a5
 2013 077c 75B7     		j	.L169
 2014              	.L112:
 409:C:/Users/stapi/OneDrive/Desktop/GD32VW553/V1_MQTT_OK/GD32VW55X_Wifi_BLE_SDK/GD32VW55x_RELEASE_V1.0.2/MSDK/wpa_supplicant/src/tls\pkcs5.c **** 		params->iter_count = WPA_GET_BE32(hdr.payload);
 2015              		.loc 2 409 7 is_stmt 1
 409:C:/Users/stapi/OneDrive/Desktop/GD32VW553/V1_MQTT_OK/GD32VW55X_Wifi_BLE_SDK/GD32VW55x_RELEASE_V1.0.2/MSDK/wpa_supplicant/src/tls\pkcs5.c **** 		params->iter_count = WPA_GET_BE32(hdr.payload);
 2016              		.loc 2 409 10 is_stmt 0
 2017 077e 9147     		li	a5,4
 2018 0780 6393F602 		bne	a3,a5,.L113
 410:C:/Users/stapi/OneDrive/Desktop/GD32VW553/V1_MQTT_OK/GD32VW55X_Wifi_BLE_SDK/GD32VW55x_RELEASE_V1.0.2/MSDK/wpa_supplicant/src/tls\pkcs5.c **** 	else {
 2019              		.loc 2 410 3 is_stmt 1
 2020              	.LVL209:
 2021              	.LBE109:
 2022              	.LBE132:
 2023              		.loc 3 276 2
 2024 0784 03471600 		lbu	a4,1(a2)
 2025 0788 83470600 		lbu	a5,0(a2)
 2026 078c 2207     		slli	a4,a4,8
 2027 078e 5D8F     		or	a4,a4,a5
 2028 0790 83472600 		lbu	a5,2(a2)
 2029 0794 C207     		slli	a5,a5,16
 2030 0796 5D8F     		or	a4,a5,a4
 2031 0798 83473600 		lbu	a5,3(a2)
 2032 079c E207     		slli	a5,a5,24
 2033 079e D98F     		or	a5,a5,a4
 2034 07a0 93D78769 		rev8	a5,a5
 2035 07a4 51B7     		j	.L169
 2036              	.LVL210:
 2037              	.L113:
 2038              	.LBB133:
 2039              	.LBB110:
 412:C:/Users/stapi/OneDrive/Desktop/GD32VW553/V1_MQTT_OK/GD32VW55X_Wifi_BLE_SDK/GD32VW55x_RELEASE_V1.0.2/MSDK/wpa_supplicant/src/tls\pkcs5.c **** 			    " (iterationCount)",
 2040              		.loc 2 412 3
 2041 07a6 B7050000 		lui	a1,%hi(.LC27)
 2042 07aa 93850500 		addi	a1,a1,%lo(.LC27)
 2043 07ae 41B6     		j	.L175
 2044              	.LVL211:
 2045              	.L116:
 2046              	.LBE110:
 2047              	.LBE133:
 2048              	.LBB134:
 2049              	.LBB129:
 653:C:/Users/stapi/OneDrive/Desktop/GD32VW553/V1_MQTT_OK/GD32VW55X_Wifi_BLE_SDK/GD32VW55x_RELEASE_V1.0.2/MSDK/wpa_supplicant/src/tls\pkcs5.c **** 		return pkcs12_crypto_init_sha1(params, passwd);
 2050              		.loc 2 653 2
 653:C:/Users/stapi/OneDrive/Desktop/GD32VW553/V1_MQTT_OK/GD32VW55X_Wifi_BLE_SDK/GD32VW55x_RELEASE_V1.0.2/MSDK/wpa_supplicant/src/tls\pkcs5.c **** 		return pkcs12_crypto_init_sha1(params, passwd);
 2051              		.loc 2 653 5 is_stmt 0
 2052 07b0 8D47     		li	a5,3
 2053 07b2 6391F40E 		bne	s1,a5,.L122
 654:C:/Users/stapi/OneDrive/Desktop/GD32VW553/V1_MQTT_OK/GD32VW55X_Wifi_BLE_SDK/GD32VW55x_RELEASE_V1.0.2/MSDK/wpa_supplicant/src/tls\pkcs5.c **** 
 2054              		.loc 2 654 3 is_stmt 1
 2055              	.LVL212:
 2056              	.LBB127:
 2057              	.LBB125:
 604:C:/Users/stapi/OneDrive/Desktop/GD32VW553/V1_MQTT_OK/GD32VW55X_Wifi_BLE_SDK/GD32VW55x_RELEASE_V1.0.2/MSDK/wpa_supplicant/src/tls\pkcs5.c **** 	u8 *pw;
 2058              		.loc 2 604 2
 605:C:/Users/stapi/OneDrive/Desktop/GD32VW553/V1_MQTT_OK/GD32VW55X_Wifi_BLE_SDK/GD32VW55x_RELEASE_V1.0.2/MSDK/wpa_supplicant/src/tls\pkcs5.c **** 	size_t pw_len;
 2059              		.loc 2 605 2
 606:C:/Users/stapi/OneDrive/Desktop/GD32VW553/V1_MQTT_OK/GD32VW55X_Wifi_BLE_SDK/GD32VW55x_RELEASE_V1.0.2/MSDK/wpa_supplicant/src/tls\pkcs5.c **** 	u8 key[24];
 2060              		.loc 2 606 2
 607:C:/Users/stapi/OneDrive/Desktop/GD32VW553/V1_MQTT_OK/GD32VW55X_Wifi_BLE_SDK/GD32VW55x_RELEASE_V1.0.2/MSDK/wpa_supplicant/src/tls\pkcs5.c **** 	u8 iv[8];
 2061              		.loc 2 607 2
 608:C:/Users/stapi/OneDrive/Desktop/GD32VW553/V1_MQTT_OK/GD32VW55X_Wifi_BLE_SDK/GD32VW55x_RELEASE_V1.0.2/MSDK/wpa_supplicant/src/tls\pkcs5.c **** 
 2062              		.loc 2 608 2
 610:C:/Users/stapi/OneDrive/Desktop/GD32VW553/V1_MQTT_OK/GD32VW55X_Wifi_BLE_SDK/GD32VW55x_RELEASE_V1.0.2/MSDK/wpa_supplicant/src/tls\pkcs5.c **** 		return NULL;
 2063              		.loc 2 610 2
 613:C:/Users/stapi/OneDrive/Desktop/GD32VW553/V1_MQTT_OK/GD32VW55X_Wifi_BLE_SDK/GD32VW55x_RELEASE_V1.0.2/MSDK/wpa_supplicant/src/tls\pkcs5.c **** 	pw = os_malloc(2 * (pw_len + 1));
 2064              		.loc 2 613 2
 613:C:/Users/stapi/OneDrive/Desktop/GD32VW553/V1_MQTT_OK/GD32VW55X_Wifi_BLE_SDK/GD32VW55x_RELEASE_V1.0.2/MSDK/wpa_supplicant/src/tls\pkcs5.c **** 	pw = os_malloc(2 * (pw_len + 1));
 2065              		.loc 2 613 38 is_stmt 0
 2066 07b6 8144     		li	s1,0
 2067 07b8 19C4     		beq	s0,zero,.L123
 613:C:/Users/stapi/OneDrive/Desktop/GD32VW553/V1_MQTT_OK/GD32VW55X_Wifi_BLE_SDK/GD32VW55x_RELEASE_V1.0.2/MSDK/wpa_supplicant/src/tls\pkcs5.c **** 	pw = os_malloc(2 * (pw_len + 1));
 2068              		.loc 2 613 20
 2069 07ba 2285     		mv	a0,s0
 2070 07bc 97000000 		call	os_strlen
 2070      E7800000 
 2071              	.LVL213:
 2072 07c4 AA84     		mv	s1,a0
 2073              	.L123:
 2074              	.LVL214:
 614:C:/Users/stapi/OneDrive/Desktop/GD32VW553/V1_MQTT_OK/GD32VW55X_Wifi_BLE_SDK/GD32VW55x_RELEASE_V1.0.2/MSDK/wpa_supplicant/src/tls\pkcs5.c **** 	if (!pw)
 2075              		.loc 2 614 2 is_stmt 1
 614:C:/Users/stapi/OneDrive/Desktop/GD32VW553/V1_MQTT_OK/GD32VW55X_Wifi_BLE_SDK/GD32VW55x_RELEASE_V1.0.2/MSDK/wpa_supplicant/src/tls\pkcs5.c **** 	if (!pw)
 2076              		.loc 2 614 29 is_stmt 0
 2077 07c6 138B1400 		addi	s6,s1,1
 614:C:/Users/stapi/OneDrive/Desktop/GD32VW553/V1_MQTT_OK/GD32VW55X_Wifi_BLE_SDK/GD32VW55x_RELEASE_V1.0.2/MSDK/wpa_supplicant/src/tls\pkcs5.c **** 	if (!pw)
 2078              		.loc 2 614 7
 2079 07ca 060B     		slli	s6,s6,1
 2080 07cc 5A85     		mv	a0,s6
 2081 07ce 97000000 		call	os_malloc
 2081      E7800000 
 2082              	.LVL215:
 2083 07d6 AA8A     		mv	s5,a0
 2084              	.LVL216:
 615:C:/Users/stapi/OneDrive/Desktop/GD32VW553/V1_MQTT_OK/GD32VW55X_Wifi_BLE_SDK/GD32VW55x_RELEASE_V1.0.2/MSDK/wpa_supplicant/src/tls\pkcs5.c **** 		return NULL;
 2085              		.loc 2 615 2 is_stmt 1
 615:C:/Users/stapi/OneDrive/Desktop/GD32VW553/V1_MQTT_OK/GD32VW55X_Wifi_BLE_SDK/GD32VW55x_RELEASE_V1.0.2/MSDK/wpa_supplicant/src/tls\pkcs5.c **** 		return NULL;
 2086              		.loc 2 615 5 is_stmt 0
 2087 07d8 29C9     		beq	a0,zero,.L118
 617:C:/Users/stapi/OneDrive/Desktop/GD32VW553/V1_MQTT_OK/GD32VW55X_Wifi_BLE_SDK/GD32VW55x_RELEASE_V1.0.2/MSDK/wpa_supplicant/src/tls\pkcs5.c **** 		for (i = 0; i <= pw_len; i++)
 2088              		.loc 2 617 2 is_stmt 1
 617:C:/Users/stapi/OneDrive/Desktop/GD32VW553/V1_MQTT_OK/GD32VW55X_Wifi_BLE_SDK/GD32VW55x_RELEASE_V1.0.2/MSDK/wpa_supplicant/src/tls\pkcs5.c **** 		for (i = 0; i <= pw_len; i++)
 2089              		.loc 2 617 5 is_stmt 0
 2090 07da 95C0     		beq	s1,zero,.L125
 2091 07dc 2A87     		mv	a4,a0
 618:C:/Users/stapi/OneDrive/Desktop/GD32VW553/V1_MQTT_OK/GD32VW55X_Wifi_BLE_SDK/GD32VW55x_RELEASE_V1.0.2/MSDK/wpa_supplicant/src/tls\pkcs5.c **** 			WPA_PUT_BE16(&pw[2 * i], passwd[i]);
 2092              		.loc 2 618 10
 2093 07de 8147     		li	a5,0
 2094              	.L126:
 2095              	.LVL217:
 619:C:/Users/stapi/OneDrive/Desktop/GD32VW553/V1_MQTT_OK/GD32VW55X_Wifi_BLE_SDK/GD32VW55x_RELEASE_V1.0.2/MSDK/wpa_supplicant/src/tls\pkcs5.c **** 		pw_len = 2 * (pw_len + 1);
 2096              		.loc 2 619 4 is_stmt 1
 619:C:/Users/stapi/OneDrive/Desktop/GD32VW553/V1_MQTT_OK/GD32VW55X_Wifi_BLE_SDK/GD32VW55x_RELEASE_V1.0.2/MSDK/wpa_supplicant/src/tls\pkcs5.c **** 		pw_len = 2 * (pw_len + 1);
 2097              		.loc 2 619 35 is_stmt 0
 2098 07e0 B306F400 		add	a3,s0,a5
 619:C:/Users/stapi/OneDrive/Desktop/GD32VW553/V1_MQTT_OK/GD32VW55X_Wifi_BLE_SDK/GD32VW55x_RELEASE_V1.0.2/MSDK/wpa_supplicant/src/tls\pkcs5.c **** 		pw_len = 2 * (pw_len + 1);
 2099              		.loc 2 619 4
 2100 07e4 83860600 		lb	a3,0(a3)
 2101              	.LVL218:
 2102              	.LBB123:
 2103              	.LBB124:
 247:..\..\..\..\wpa_supplicant\src\utils/common.h **** 	a[1] = val & 0xff;
 2104              		.loc 3 247 2 is_stmt 1
 247:..\..\..\..\wpa_supplicant\src\utils/common.h **** 	a[1] = val & 0xff;
 2105              		.loc 3 247 7 is_stmt 0
 2106 07e8 13D68601 		srli	a2,a3,24
 2107 07ec 2300C700 		sb	a2,0(a4)
 248:..\..\..\..\wpa_supplicant\src\utils/common.h **** }
 2108              		.loc 3 248 2 is_stmt 1
 248:..\..\..\..\wpa_supplicant\src\utils/common.h **** }
 2109              		.loc 3 248 7 is_stmt 0
 2110 07f0 A300D700 		sb	a3,1(a4)
 2111              	.LVL219:
 2112              	.LBE124:
 2113              	.LBE123:
 618:C:/Users/stapi/OneDrive/Desktop/GD32VW553/V1_MQTT_OK/GD32VW55X_Wifi_BLE_SDK/GD32VW55x_RELEASE_V1.0.2/MSDK/wpa_supplicant/src/tls\pkcs5.c **** 			WPA_PUT_BE16(&pw[2 * i], passwd[i]);
 2114              		.loc 2 618 28 is_stmt 1
 618:C:/Users/stapi/OneDrive/Desktop/GD32VW553/V1_MQTT_OK/GD32VW55X_Wifi_BLE_SDK/GD32VW55x_RELEASE_V1.0.2/MSDK/wpa_supplicant/src/tls\pkcs5.c **** 			WPA_PUT_BE16(&pw[2 * i], passwd[i]);
 2115              		.loc 2 618 29 is_stmt 0
 2116 07f4 8507     		addi	a5,a5,1
 2117              	.LVL220:
 618:C:/Users/stapi/OneDrive/Desktop/GD32VW553/V1_MQTT_OK/GD32VW55X_Wifi_BLE_SDK/GD32VW55x_RELEASE_V1.0.2/MSDK/wpa_supplicant/src/tls\pkcs5.c **** 			WPA_PUT_BE16(&pw[2 * i], passwd[i]);
 2118              		.loc 2 618 15 is_stmt 1
 618:C:/Users/stapi/OneDrive/Desktop/GD32VW553/V1_MQTT_OK/GD32VW55X_Wifi_BLE_SDK/GD32VW55x_RELEASE_V1.0.2/MSDK/wpa_supplicant/src/tls\pkcs5.c **** 			WPA_PUT_BE16(&pw[2 * i], passwd[i]);
 2119              		.loc 2 618 3 is_stmt 0
 2120 07f6 0907     		addi	a4,a4,2
 2121 07f8 E3F4F4FE 		bgeu	s1,a5,.L126
 620:C:/Users/stapi/OneDrive/Desktop/GD32VW553/V1_MQTT_OK/GD32VW55X_Wifi_BLE_SDK/GD32VW55x_RELEASE_V1.0.2/MSDK/wpa_supplicant/src/tls\pkcs5.c **** 	}
 2122              		.loc 2 620 10
 2123 07fc DA84     		mv	s1,s6
 2124              	.LVL221:
 2125              	.L125:
 623:C:/Users/stapi/OneDrive/Desktop/GD32VW553/V1_MQTT_OK/GD32VW55X_Wifi_BLE_SDK/GD32VW55x_RELEASE_V1.0.2/MSDK/wpa_supplicant/src/tls\pkcs5.c **** 			   PKCS12_ID_ENC, params->iter_count,
 2126              		.loc 2 623 2 is_stmt 1
 623:C:/Users/stapi/OneDrive/Desktop/GD32VW553/V1_MQTT_OK/GD32VW55X_Wifi_BLE_SDK/GD32VW55x_RELEASE_V1.0.2/MSDK/wpa_supplicant/src/tls\pkcs5.c **** 			   PKCS12_ID_ENC, params->iter_count,
 2127              		.loc 2 623 6 is_stmt 0
 2128 07fe 8327811A 		lw	a5,424(sp)
 2129 0802 8326411A 		lw	a3,420(sp)
 2130 0806 9308C110 		addi	a7,sp,268
 2131 080a 6148     		li	a6,24
 2132 080c 0547     		li	a4,1
 2133 080e D012     		addi	a2,sp,356
 2134 0810 A685     		mv	a1,s1
 2135 0812 5685     		mv	a0,s5
 2136              	.LVL222:
 2137 0814 97000000 		call	pkcs12_key_gen
 2137      E7800000 
 2138              	.LVL223:
 623:C:/Users/stapi/OneDrive/Desktop/GD32VW553/V1_MQTT_OK/GD32VW55X_Wifi_BLE_SDK/GD32VW55x_RELEASE_V1.0.2/MSDK/wpa_supplicant/src/tls\pkcs5.c **** 			   PKCS12_ID_ENC, params->iter_count,
 2139              		.loc 2 623 5
 2140 081c 635C0500 		bge	a0,zero,.L127
 2141              	.L128:
 629:C:/Users/stapi/OneDrive/Desktop/GD32VW553/V1_MQTT_OK/GD32VW55X_Wifi_BLE_SDK/GD32VW55x_RELEASE_V1.0.2/MSDK/wpa_supplicant/src/tls\pkcs5.c **** 		return NULL;
 2142              		.loc 2 629 3 is_stmt 1
 2143 0820 5685     		mv	a0,s5
 2144 0822 97000000 		call	os_free
 2144      E7800000 
 2145              	.LVL224:
 630:C:/Users/stapi/OneDrive/Desktop/GD32VW553/V1_MQTT_OK/GD32VW55X_Wifi_BLE_SDK/GD32VW55x_RELEASE_V1.0.2/MSDK/wpa_supplicant/src/tls\pkcs5.c **** 	}
 2146              		.loc 2 630 3
 2147              	.LBE125:
 2148              	.LBE127:
 2149              	.LBE129:
 2150              	.LBE134:
 694:C:/Users/stapi/OneDrive/Desktop/GD32VW553/V1_MQTT_OK/GD32VW55X_Wifi_BLE_SDK/GD32VW55x_RELEASE_V1.0.2/MSDK/wpa_supplicant/src/tls\pkcs5.c **** 		wpa_printf(MSG_DEBUG, "PKCS #5: Failed to initialize crypto");
 2151              		.loc 2 694 2
 2152              	.L118:
 695:C:/Users/stapi/OneDrive/Desktop/GD32VW553/V1_MQTT_OK/GD32VW55X_Wifi_BLE_SDK/GD32VW55x_RELEASE_V1.0.2/MSDK/wpa_supplicant/src/tls\pkcs5.c **** 		return NULL;
 2153              		.loc 2 695 3
 2154 082a B7050000 		lui	a1,%hi(.LC37)
 2155 082e 93850500 		addi	a1,a1,%lo(.LC37)
 2156 0832 15B0     		j	.L184
 2157              	.LVL225:
 2158              	.L127:
 2159              	.LBB135:
 2160              	.LBB130:
 2161              	.LBB128:
 2162              	.LBB126:
 626:C:/Users/stapi/OneDrive/Desktop/GD32VW553/V1_MQTT_OK/GD32VW55X_Wifi_BLE_SDK/GD32VW55x_RELEASE_V1.0.2/MSDK/wpa_supplicant/src/tls\pkcs5.c **** 			   PKCS12_ID_IV, params->iter_count,
 2163              		.loc 2 626 6 is_stmt 0
 2164 0834 8327811A 		lw	a5,424(sp)
 2165 0838 8326411A 		lw	a3,420(sp)
 2166 083c 9308810B 		addi	a7,sp,184
 2167 0840 2148     		li	a6,8
 2168 0842 0947     		li	a4,2
 2169 0844 D012     		addi	a2,sp,356
 2170 0846 A685     		mv	a1,s1
 2171 0848 5685     		mv	a0,s5
 2172 084a 97000000 		call	pkcs12_key_gen
 2172      E7800000 
 2173              	.LVL226:
 625:C:/Users/stapi/OneDrive/Desktop/GD32VW553/V1_MQTT_OK/GD32VW55X_Wifi_BLE_SDK/GD32VW55x_RELEASE_V1.0.2/MSDK/wpa_supplicant/src/tls\pkcs5.c **** 	    pkcs12_key_gen(pw, pw_len, params->salt, params->salt_len,
 2174              		.loc 2 625 29
 2175 0852 E34705FC 		blt	a0,zero,.L128
 633:C:/Users/stapi/OneDrive/Desktop/GD32VW553/V1_MQTT_OK/GD32VW55X_Wifi_BLE_SDK/GD32VW55x_RELEASE_V1.0.2/MSDK/wpa_supplicant/src/tls\pkcs5.c **** 
 2176              		.loc 2 633 2 is_stmt 1
 2177 0856 5685     		mv	a0,s5
 2178 0858 97000000 		call	os_free
 2178      E7800000 
 2179              	.LVL227:
 635:C:/Users/stapi/OneDrive/Desktop/GD32VW553/V1_MQTT_OK/GD32VW55X_Wifi_BLE_SDK/GD32VW55x_RELEASE_V1.0.2/MSDK/wpa_supplicant/src/tls\pkcs5.c **** 	wpa_hexdump_key(MSG_DEBUG, "PKCS #12: DES IV", iv, sizeof(iv));
 2180              		.loc 2 635 2
 2181 0860 B7050000 		lui	a1,%hi(.LC34)
 2182 0864 E146     		li	a3,24
 2183 0866 7002     		addi	a2,sp,268
 2184 0868 93850500 		addi	a1,a1,%lo(.LC34)
 2185 086c 0945     		li	a0,2
 2186 086e 97000000 		call	wpa_hexdump_key
 2186      E7800000 
 2187              	.LVL228:
 636:C:/Users/stapi/OneDrive/Desktop/GD32VW553/V1_MQTT_OK/GD32VW55X_Wifi_BLE_SDK/GD32VW55x_RELEASE_V1.0.2/MSDK/wpa_supplicant/src/tls\pkcs5.c **** 
 2188              		.loc 2 636 2
 2189 0876 B7050000 		lui	a1,%hi(.LC35)
 2190 087a A146     		li	a3,8
 2191 087c 3019     		addi	a2,sp,184
 2192 087e 93850500 		addi	a1,a1,%lo(.LC35)
 2193 0882 0945     		li	a0,2
 2194 0884 97000000 		call	wpa_hexdump_key
 2194      E7800000 
 2195              	.LVL229:
 638:C:/Users/stapi/OneDrive/Desktop/GD32VW553/V1_MQTT_OK/GD32VW55X_Wifi_BLE_SDK/GD32VW55x_RELEASE_V1.0.2/MSDK/wpa_supplicant/src/tls\pkcs5.c **** }
 2196              		.loc 2 638 2
 638:C:/Users/stapi/OneDrive/Desktop/GD32VW553/V1_MQTT_OK/GD32VW55X_Wifi_BLE_SDK/GD32VW55x_RELEASE_V1.0.2/MSDK/wpa_supplicant/src/tls\pkcs5.c **** }
 2197              		.loc 2 638 9 is_stmt 0
 2198 088c E146     		li	a3,24
 2199 088e 7002     		addi	a2,sp,268
 2200 0890 2C19     		addi	a1,sp,184
 2201 0892 4DB3     		j	.L183
 2202              	.LVL230:
 2203              	.L122:
 2204              	.LBE126:
 2205              	.LBE128:
 656:C:/Users/stapi/OneDrive/Desktop/GD32VW553/V1_MQTT_OK/GD32VW55X_Wifi_BLE_SDK/GD32VW55x_RELEASE_V1.0.2/MSDK/wpa_supplicant/src/tls\pkcs5.c **** 		return NULL;
 2206              		.loc 2 656 2 is_stmt 1
 656:C:/Users/stapi/OneDrive/Desktop/GD32VW553/V1_MQTT_OK/GD32VW55X_Wifi_BLE_SDK/GD32VW55x_RELEASE_V1.0.2/MSDK/wpa_supplicant/src/tls\pkcs5.c **** 		return NULL;
 2207              		.loc 2 656 5 is_stmt 0
 2208 0894 8547     		li	a5,1
 2209 0896 E39AF4F8 		bne	s1,a5,.L118
 659:C:/Users/stapi/OneDrive/Desktop/GD32VW553/V1_MQTT_OK/GD32VW55X_Wifi_BLE_SDK/GD32VW55x_RELEASE_V1.0.2/MSDK/wpa_supplicant/src/tls\pkcs5.c **** 	len[0] = os_strlen(passwd);
 2210              		.loc 2 659 2 is_stmt 1
 660:C:/Users/stapi/OneDrive/Desktop/GD32VW553/V1_MQTT_OK/GD32VW55X_Wifi_BLE_SDK/GD32VW55x_RELEASE_V1.0.2/MSDK/wpa_supplicant/src/tls\pkcs5.c **** 	addr[1] = params->salt;
 2211              		.loc 2 660 11 is_stmt 0
 2212 089a 2285     		mv	a0,s0
 659:C:/Users/stapi/OneDrive/Desktop/GD32VW553/V1_MQTT_OK/GD32VW55X_Wifi_BLE_SDK/GD32VW55x_RELEASE_V1.0.2/MSDK/wpa_supplicant/src/tls\pkcs5.c **** 	len[0] = os_strlen(passwd);
 2213              		.loc 2 659 10
 2214 089c A2D4     		sw	s0,104(sp)
 660:C:/Users/stapi/OneDrive/Desktop/GD32VW553/V1_MQTT_OK/GD32VW55X_Wifi_BLE_SDK/GD32VW55x_RELEASE_V1.0.2/MSDK/wpa_supplicant/src/tls\pkcs5.c **** 	addr[1] = params->salt;
 2215              		.loc 2 660 2 is_stmt 1
 660:C:/Users/stapi/OneDrive/Desktop/GD32VW553/V1_MQTT_OK/GD32VW55X_Wifi_BLE_SDK/GD32VW55x_RELEASE_V1.0.2/MSDK/wpa_supplicant/src/tls\pkcs5.c **** 	addr[1] = params->salt;
 2216              		.loc 2 660 11 is_stmt 0
 2217 089e 97000000 		call	os_strlen
 2217      E7800000 
 2218              	.LVL231:
 661:C:/Users/stapi/OneDrive/Desktop/GD32VW553/V1_MQTT_OK/GD32VW55X_Wifi_BLE_SDK/GD32VW55x_RELEASE_V1.0.2/MSDK/wpa_supplicant/src/tls\pkcs5.c **** 	len[1] = params->salt_len;
 2219              		.loc 2 661 10
 2220 08a6 DC12     		addi	a5,sp,356
 2221 08a8 BED6     		sw	a5,108(sp)
 662:C:/Users/stapi/OneDrive/Desktop/GD32VW553/V1_MQTT_OK/GD32VW55X_Wifi_BLE_SDK/GD32VW55x_RELEASE_V1.0.2/MSDK/wpa_supplicant/src/tls\pkcs5.c **** 	if (md5_vector(2, addr, len, hash) < 0)
 2222              		.loc 2 662 9
 2223 08aa 8327411A 		lw	a5,420(sp)
 663:C:/Users/stapi/OneDrive/Desktop/GD32VW553/V1_MQTT_OK/GD32VW55X_Wifi_BLE_SDK/GD32VW55x_RELEASE_V1.0.2/MSDK/wpa_supplicant/src/tls\pkcs5.c **** 		return NULL;
 2224              		.loc 2 663 6
 2225 08ae 6002     		addi	s0,sp,268
 2226              	.LVL232:
 660:C:/Users/stapi/OneDrive/Desktop/GD32VW553/V1_MQTT_OK/GD32VW55X_Wifi_BLE_SDK/GD32VW55x_RELEASE_V1.0.2/MSDK/wpa_supplicant/src/tls\pkcs5.c **** 	addr[1] = params->salt;
 2227              		.loc 2 660 9
 2228 08b0 2ADD     		sw	a0,184(sp)
 661:C:/Users/stapi/OneDrive/Desktop/GD32VW553/V1_MQTT_OK/GD32VW55X_Wifi_BLE_SDK/GD32VW55x_RELEASE_V1.0.2/MSDK/wpa_supplicant/src/tls\pkcs5.c **** 	len[1] = params->salt_len;
 2229              		.loc 2 661 2 is_stmt 1
 662:C:/Users/stapi/OneDrive/Desktop/GD32VW553/V1_MQTT_OK/GD32VW55X_Wifi_BLE_SDK/GD32VW55x_RELEASE_V1.0.2/MSDK/wpa_supplicant/src/tls\pkcs5.c **** 	if (md5_vector(2, addr, len, hash) < 0)
 2230              		.loc 2 662 2
 663:C:/Users/stapi/OneDrive/Desktop/GD32VW553/V1_MQTT_OK/GD32VW55X_Wifi_BLE_SDK/GD32VW55x_RELEASE_V1.0.2/MSDK/wpa_supplicant/src/tls\pkcs5.c **** 		return NULL;
 2231              		.loc 2 663 6 is_stmt 0
 2232 08b2 A286     		mv	a3,s0
 2233 08b4 3019     		addi	a2,sp,184
 2234 08b6 AC10     		addi	a1,sp,104
 2235 08b8 0945     		li	a0,2
 662:C:/Users/stapi/OneDrive/Desktop/GD32VW553/V1_MQTT_OK/GD32VW55X_Wifi_BLE_SDK/GD32VW55x_RELEASE_V1.0.2/MSDK/wpa_supplicant/src/tls\pkcs5.c **** 	if (md5_vector(2, addr, len, hash) < 0)
 2236              		.loc 2 662 9
 2237 08ba 3EDF     		sw	a5,188(sp)
 663:C:/Users/stapi/OneDrive/Desktop/GD32VW553/V1_MQTT_OK/GD32VW55X_Wifi_BLE_SDK/GD32VW55x_RELEASE_V1.0.2/MSDK/wpa_supplicant/src/tls\pkcs5.c **** 		return NULL;
 2238              		.loc 2 663 2 is_stmt 1
 663:C:/Users/stapi/OneDrive/Desktop/GD32VW553/V1_MQTT_OK/GD32VW55X_Wifi_BLE_SDK/GD32VW55x_RELEASE_V1.0.2/MSDK/wpa_supplicant/src/tls\pkcs5.c **** 		return NULL;
 2239              		.loc 2 663 6 is_stmt 0
 2240 08bc 97000000 		call	md5_vector
 2240      E7800000 
 2241              	.LVL233:
 663:C:/Users/stapi/OneDrive/Desktop/GD32VW553/V1_MQTT_OK/GD32VW55X_Wifi_BLE_SDK/GD32VW55x_RELEASE_V1.0.2/MSDK/wpa_supplicant/src/tls\pkcs5.c **** 		return NULL;
 2242              		.loc 2 663 5
 2243 08c4 E34305F6 		blt	a0,zero,.L118
 665:C:/Users/stapi/OneDrive/Desktop/GD32VW553/V1_MQTT_OK/GD32VW55X_Wifi_BLE_SDK/GD32VW55x_RELEASE_V1.0.2/MSDK/wpa_supplicant/src/tls\pkcs5.c **** 	len[0] = MD5_MAC_LEN;
 2244              		.loc 2 665 2 is_stmt 1
 666:C:/Users/stapi/OneDrive/Desktop/GD32VW553/V1_MQTT_OK/GD32VW55X_Wifi_BLE_SDK/GD32VW55x_RELEASE_V1.0.2/MSDK/wpa_supplicant/src/tls\pkcs5.c **** 	for (i = 1; i < params->iter_count; i++) {
 2245              		.loc 2 666 9 is_stmt 0
 2246 08c8 C147     		li	a5,16
 665:C:/Users/stapi/OneDrive/Desktop/GD32VW553/V1_MQTT_OK/GD32VW55X_Wifi_BLE_SDK/GD32VW55x_RELEASE_V1.0.2/MSDK/wpa_supplicant/src/tls\pkcs5.c **** 	len[0] = MD5_MAC_LEN;
 2247              		.loc 2 665 10
 2248 08ca A2D4     		sw	s0,104(sp)
 666:C:/Users/stapi/OneDrive/Desktop/GD32VW553/V1_MQTT_OK/GD32VW55X_Wifi_BLE_SDK/GD32VW55x_RELEASE_V1.0.2/MSDK/wpa_supplicant/src/tls\pkcs5.c **** 	for (i = 1; i < params->iter_count; i++) {
 2249              		.loc 2 666 2 is_stmt 1
 666:C:/Users/stapi/OneDrive/Desktop/GD32VW553/V1_MQTT_OK/GD32VW55X_Wifi_BLE_SDK/GD32VW55x_RELEASE_V1.0.2/MSDK/wpa_supplicant/src/tls\pkcs5.c **** 	for (i = 1; i < params->iter_count; i++) {
 2250              		.loc 2 666 9 is_stmt 0
 2251 08cc 3EDD     		sw	a5,184(sp)
 667:C:/Users/stapi/OneDrive/Desktop/GD32VW553/V1_MQTT_OK/GD32VW55X_Wifi_BLE_SDK/GD32VW55x_RELEASE_V1.0.2/MSDK/wpa_supplicant/src/tls\pkcs5.c **** 		if (md5_vector(1, addr, len, hash) < 0)
 2252              		.loc 2 667 2 is_stmt 1
 2253              	.LVL234:
 2254              	.L131:
 667:C:/Users/stapi/OneDrive/Desktop/GD32VW553/V1_MQTT_OK/GD32VW55X_Wifi_BLE_SDK/GD32VW55x_RELEASE_V1.0.2/MSDK/wpa_supplicant/src/tls\pkcs5.c **** 		if (md5_vector(1, addr, len, hash) < 0)
 2255              		.loc 2 667 14
 667:C:/Users/stapi/OneDrive/Desktop/GD32VW553/V1_MQTT_OK/GD32VW55X_Wifi_BLE_SDK/GD32VW55x_RELEASE_V1.0.2/MSDK/wpa_supplicant/src/tls\pkcs5.c **** 		if (md5_vector(1, addr, len, hash) < 0)
 2256              		.loc 2 667 2 is_stmt 0
 2257 08ce 8327811A 		lw	a5,424(sp)
 2258 08d2 63EDF402 		bltu	s1,a5,.L132
 672:C:/Users/stapi/OneDrive/Desktop/GD32VW553/V1_MQTT_OK/GD32VW55X_Wifi_BLE_SDK/GD32VW55x_RELEASE_V1.0.2/MSDK/wpa_supplicant/src/tls\pkcs5.c **** 	wpa_hexdump_key(MSG_DEBUG, "PKCS #5: DES IV", hash + 8, 8);
 2259              		.loc 2 672 2 is_stmt 1
 2260 08d6 B7050000 		lui	a1,%hi(.LC36)
 2261 08da A146     		li	a3,8
 2262 08dc 2286     		mv	a2,s0
 2263 08de 93850500 		addi	a1,a1,%lo(.LC36)
 2264 08e2 0945     		li	a0,2
 2265 08e4 97000000 		call	wpa_hexdump_key
 2265      E7800000 
 2266              	.LVL235:
 673:C:/Users/stapi/OneDrive/Desktop/GD32VW553/V1_MQTT_OK/GD32VW55X_Wifi_BLE_SDK/GD32VW55x_RELEASE_V1.0.2/MSDK/wpa_supplicant/src/tls\pkcs5.c **** 
 2267              		.loc 2 673 2
 2268 08ec B7050000 		lui	a1,%hi(.LC33)
 2269 08f0 A146     		li	a3,8
 2270 08f2 500A     		addi	a2,sp,276
 2271 08f4 93850500 		addi	a1,a1,%lo(.LC33)
 2272 08f8 0945     		li	a0,2
 2273 08fa 97000000 		call	wpa_hexdump_key
 2273      E7800000 
 2274              	.LVL236:
 675:C:/Users/stapi/OneDrive/Desktop/GD32VW553/V1_MQTT_OK/GD32VW55X_Wifi_BLE_SDK/GD32VW55x_RELEASE_V1.0.2/MSDK/wpa_supplicant/src/tls\pkcs5.c **** }
 2275              		.loc 2 675 2
 675:C:/Users/stapi/OneDrive/Desktop/GD32VW553/V1_MQTT_OK/GD32VW55X_Wifi_BLE_SDK/GD32VW55x_RELEASE_V1.0.2/MSDK/wpa_supplicant/src/tls\pkcs5.c **** }
 2276              		.loc 2 675 9 is_stmt 0
 2277 0902 A146     		li	a3,8
 2278 0904 2286     		mv	a2,s0
 2279 0906 4C0A     		addi	a1,sp,276
 2280 0908 0D45     		li	a0,3
 2281 090a 35B3     		j	.L177
 2282              	.L132:
 668:C:/Users/stapi/OneDrive/Desktop/GD32VW553/V1_MQTT_OK/GD32VW55X_Wifi_BLE_SDK/GD32VW55x_RELEASE_V1.0.2/MSDK/wpa_supplicant/src/tls\pkcs5.c **** 			return NULL;
 2283              		.loc 2 668 3 is_stmt 1
 668:C:/Users/stapi/OneDrive/Desktop/GD32VW553/V1_MQTT_OK/GD32VW55X_Wifi_BLE_SDK/GD32VW55x_RELEASE_V1.0.2/MSDK/wpa_supplicant/src/tls\pkcs5.c **** 			return NULL;
 2284              		.loc 2 668 7 is_stmt 0
 2285 090c A286     		mv	a3,s0
 2286 090e 3019     		addi	a2,sp,184
 2287 0910 AC10     		addi	a1,sp,104
 2288 0912 0545     		li	a0,1
 2289 0914 97000000 		call	md5_vector
 2289      E7800000 
 2290              	.LVL237:
 668:C:/Users/stapi/OneDrive/Desktop/GD32VW553/V1_MQTT_OK/GD32VW55X_Wifi_BLE_SDK/GD32VW55x_RELEASE_V1.0.2/MSDK/wpa_supplicant/src/tls\pkcs5.c **** 			return NULL;
 2291              		.loc 2 668 6
 2292 091c E34705F0 		blt	a0,zero,.L118
 667:C:/Users/stapi/OneDrive/Desktop/GD32VW553/V1_MQTT_OK/GD32VW55X_Wifi_BLE_SDK/GD32VW55x_RELEASE_V1.0.2/MSDK/wpa_supplicant/src/tls\pkcs5.c **** 		if (md5_vector(1, addr, len, hash) < 0)
 2293              		.loc 2 667 38 is_stmt 1
 667:C:/Users/stapi/OneDrive/Desktop/GD32VW553/V1_MQTT_OK/GD32VW55X_Wifi_BLE_SDK/GD32VW55x_RELEASE_V1.0.2/MSDK/wpa_supplicant/src/tls\pkcs5.c **** 		if (md5_vector(1, addr, len, hash) < 0)
 2294              		.loc 2 667 39 is_stmt 0
 2295 0920 8504     		addi	s1,s1,1
 2296              	.LVL238:
 2297 0922 75B7     		j	.L131
 2298              	.LVL239:
 2299              	.L135:
 2300              	.LBE130:
 2301              	.LBE135:
 707:C:/Users/stapi/OneDrive/Desktop/GD32VW553/V1_MQTT_OK/GD32VW55X_Wifi_BLE_SDK/GD32VW55x_RELEASE_V1.0.2/MSDK/wpa_supplicant/src/tls\pkcs5.c **** 	if (eb == NULL) {
 2302              		.loc 2 707 2 is_stmt 1
 707:C:/Users/stapi/OneDrive/Desktop/GD32VW553/V1_MQTT_OK/GD32VW55X_Wifi_BLE_SDK/GD32VW55x_RELEASE_V1.0.2/MSDK/wpa_supplicant/src/tls\pkcs5.c **** 	if (eb == NULL) {
 2303              		.loc 2 707 7 is_stmt 0
 2304 0924 4A85     		mv	a0,s2
 2305 0926 97000000 		call	os_malloc
 2305      E7800000 
 2306              	.LVL240:
 2307 092e 2A84     		mv	s0,a0
 2308              	.LVL241:
 708:C:/Users/stapi/OneDrive/Desktop/GD32VW553/V1_MQTT_OK/GD32VW55X_Wifi_BLE_SDK/GD32VW55x_RELEASE_V1.0.2/MSDK/wpa_supplicant/src/tls\pkcs5.c **** 		crypto_cipher_deinit(ctx);
 2309              		.loc 2 708 2 is_stmt 1
 708:C:/Users/stapi/OneDrive/Desktop/GD32VW553/V1_MQTT_OK/GD32VW55X_Wifi_BLE_SDK/GD32VW55x_RELEASE_V1.0.2/MSDK/wpa_supplicant/src/tls\pkcs5.c **** 		crypto_cipher_deinit(ctx);
 2310              		.loc 2 708 5 is_stmt 0
 2311 0930 01ED     		bne	a0,zero,.L136
 709:C:/Users/stapi/OneDrive/Desktop/GD32VW553/V1_MQTT_OK/GD32VW55X_Wifi_BLE_SDK/GD32VW55x_RELEASE_V1.0.2/MSDK/wpa_supplicant/src/tls\pkcs5.c **** 		return NULL;
 2312              		.loc 2 709 3 is_stmt 1
 2313 0932 2685     		mv	a0,s1
 2314 0934 97000000 		call	crypto_cipher_deinit
 2314      E7800000 
 2315              	.LVL242:
 710:C:/Users/stapi/OneDrive/Desktop/GD32VW553/V1_MQTT_OK/GD32VW55X_Wifi_BLE_SDK/GD32VW55x_RELEASE_V1.0.2/MSDK/wpa_supplicant/src/tls\pkcs5.c **** 	}
 2316              		.loc 2 710 3
 2317              	.L62:
 733:C:/Users/stapi/OneDrive/Desktop/GD32VW553/V1_MQTT_OK/GD32VW55X_Wifi_BLE_SDK/GD32VW55x_RELEASE_V1.0.2/MSDK/wpa_supplicant/src/tls\pkcs5.c **** 		}
 734:C:/Users/stapi/OneDrive/Desktop/GD32VW553/V1_MQTT_OK/GD32VW55X_Wifi_BLE_SDK/GD32VW55x_RELEASE_V1.0.2/MSDK/wpa_supplicant/src/tls\pkcs5.c **** 	}
 735:C:/Users/stapi/OneDrive/Desktop/GD32VW553/V1_MQTT_OK/GD32VW55X_Wifi_BLE_SDK/GD32VW55x_RELEASE_V1.0.2/MSDK/wpa_supplicant/src/tls\pkcs5.c **** 
 736:C:/Users/stapi/OneDrive/Desktop/GD32VW553/V1_MQTT_OK/GD32VW55X_Wifi_BLE_SDK/GD32VW55x_RELEASE_V1.0.2/MSDK/wpa_supplicant/src/tls\pkcs5.c **** 	wpa_hexdump_key(MSG_MSGDUMP, "PKCS #5: message M (encrypted key)",
 737:C:/Users/stapi/OneDrive/Desktop/GD32VW553/V1_MQTT_OK/GD32VW55X_Wifi_BLE_SDK/GD32VW55x_RELEASE_V1.0.2/MSDK/wpa_supplicant/src/tls\pkcs5.c **** 			eb, enc_data_len - pad);
 738:C:/Users/stapi/OneDrive/Desktop/GD32VW553/V1_MQTT_OK/GD32VW55X_Wifi_BLE_SDK/GD32VW55x_RELEASE_V1.0.2/MSDK/wpa_supplicant/src/tls\pkcs5.c **** 
 739:C:/Users/stapi/OneDrive/Desktop/GD32VW553/V1_MQTT_OK/GD32VW55X_Wifi_BLE_SDK/GD32VW55x_RELEASE_V1.0.2/MSDK/wpa_supplicant/src/tls\pkcs5.c **** 	*data_len = enc_data_len - pad;
 740:C:/Users/stapi/OneDrive/Desktop/GD32VW553/V1_MQTT_OK/GD32VW55X_Wifi_BLE_SDK/GD32VW55x_RELEASE_V1.0.2/MSDK/wpa_supplicant/src/tls\pkcs5.c **** 	return eb;
 741:C:/Users/stapi/OneDrive/Desktop/GD32VW553/V1_MQTT_OK/GD32VW55X_Wifi_BLE_SDK/GD32VW55x_RELEASE_V1.0.2/MSDK/wpa_supplicant/src/tls\pkcs5.c **** }
 2318              		.loc 2 741 1 is_stmt 0
 2319 093c 2285     		mv	a0,s0
 2320 093e 3961     		addi	sp,sp,448
 2321              		.cfi_remember_state
 2322              		.cfi_def_cfa_offset 0
 2323 0940 17030000 		tail	__riscv_restore_8
 2323      67000300 
 2324              		.cfi_restore 23
 2325              		.cfi_restore 22
 2326              		.cfi_restore 21
 2327              		.cfi_restore 20
 2328              		.cfi_restore 19
 2329              		.cfi_restore 18
 2330              		.cfi_restore 9
 2331              		.cfi_restore 8
 2332              		.cfi_restore 1
 2333              		.cfi_def_cfa_offset -48
 2334              	.LVL243:
 2335              	.L136:
 2336              		.cfi_restore_state
 713:C:/Users/stapi/OneDrive/Desktop/GD32VW553/V1_MQTT_OK/GD32VW55X_Wifi_BLE_SDK/GD32VW55x_RELEASE_V1.0.2/MSDK/wpa_supplicant/src/tls\pkcs5.c **** 		wpa_printf(MSG_DEBUG, "PKCS #5: Failed to decrypt EB");
 2337              		.loc 2 713 2 is_stmt 1
 713:C:/Users/stapi/OneDrive/Desktop/GD32VW553/V1_MQTT_OK/GD32VW55X_Wifi_BLE_SDK/GD32VW55x_RELEASE_V1.0.2/MSDK/wpa_supplicant/src/tls\pkcs5.c **** 		wpa_printf(MSG_DEBUG, "PKCS #5: Failed to decrypt EB");
 2338              		.loc 2 713 6 is_stmt 0
 2339 0948 2A86     		mv	a2,a0
 2340 094a CA86     		mv	a3,s2
 2341 094c CE85     		mv	a1,s3
 2342 094e 2685     		mv	a0,s1
 2343 0950 97000000 		call	crypto_cipher_decrypt
 2343      E7800000 
 2344              	.LVL244:
 713:C:/Users/stapi/OneDrive/Desktop/GD32VW553/V1_MQTT_OK/GD32VW55X_Wifi_BLE_SDK/GD32VW55x_RELEASE_V1.0.2/MSDK/wpa_supplicant/src/tls\pkcs5.c **** 		wpa_printf(MSG_DEBUG, "PKCS #5: Failed to decrypt EB");
 2345              		.loc 2 713 5
 2346 0958 63570502 		bge	a0,zero,.L137
 714:C:/Users/stapi/OneDrive/Desktop/GD32VW553/V1_MQTT_OK/GD32VW55X_Wifi_BLE_SDK/GD32VW55x_RELEASE_V1.0.2/MSDK/wpa_supplicant/src/tls\pkcs5.c **** 		crypto_cipher_deinit(ctx);
 2347              		.loc 2 714 3 is_stmt 1
 2348 095c B7050000 		lui	a1,%hi(.LC39)
 2349 0960 0945     		li	a0,2
 2350 0962 93850500 		addi	a1,a1,%lo(.LC39)
 2351 0966 97000000 		call	wpa_printf
 2351      E7800000 
 2352              	.LVL245:
 715:C:/Users/stapi/OneDrive/Desktop/GD32VW553/V1_MQTT_OK/GD32VW55X_Wifi_BLE_SDK/GD32VW55x_RELEASE_V1.0.2/MSDK/wpa_supplicant/src/tls\pkcs5.c **** 		os_free(eb);
 2353              		.loc 2 715 3
 2354 096e 2685     		mv	a0,s1
 2355 0970 97000000 		call	crypto_cipher_deinit
 2355      E7800000 
 2356              	.LVL246:
 716:C:/Users/stapi/OneDrive/Desktop/GD32VW553/V1_MQTT_OK/GD32VW55X_Wifi_BLE_SDK/GD32VW55x_RELEASE_V1.0.2/MSDK/wpa_supplicant/src/tls\pkcs5.c **** 		return NULL;
 2357              		.loc 2 716 3
 2358              	.L179:
 731:C:/Users/stapi/OneDrive/Desktop/GD32VW553/V1_MQTT_OK/GD32VW55X_Wifi_BLE_SDK/GD32VW55x_RELEASE_V1.0.2/MSDK/wpa_supplicant/src/tls\pkcs5.c **** 			return NULL;
 2359              		.loc 2 731 4
 2360 0978 2285     		mv	a0,s0
 2361 097a 97000000 		call	os_free
 2361      E7800000 
 2362              	.LVL247:
 2363 0982 6FF0EFED 		j	.L180
 2364              	.LVL248:
 2365              	.L137:
 719:C:/Users/stapi/OneDrive/Desktop/GD32VW553/V1_MQTT_OK/GD32VW55X_Wifi_BLE_SDK/GD32VW55x_RELEASE_V1.0.2/MSDK/wpa_supplicant/src/tls\pkcs5.c **** 
 2366              		.loc 2 719 2
 2367 0986 2685     		mv	a0,s1
 2368 0988 97000000 		call	crypto_cipher_deinit
 2368      E7800000 
 2369              	.LVL249:
 721:C:/Users/stapi/OneDrive/Desktop/GD32VW553/V1_MQTT_OK/GD32VW55X_Wifi_BLE_SDK/GD32VW55x_RELEASE_V1.0.2/MSDK/wpa_supplicant/src/tls\pkcs5.c **** 	if (pad > 8) {
 2370              		.loc 2 721 2
 721:C:/Users/stapi/OneDrive/Desktop/GD32VW553/V1_MQTT_OK/GD32VW55X_Wifi_BLE_SDK/GD32VW55x_RELEASE_V1.0.2/MSDK/wpa_supplicant/src/tls\pkcs5.c **** 	if (pad > 8) {
 2371              		.loc 2 721 6 is_stmt 0
 2372 0990 B3072401 		add	a5,s0,s2
 2373 0994 83C6F7FF 		lbu	a3,-1(a5)
 2374              	.LVL250:
 722:C:/Users/stapi/OneDrive/Desktop/GD32VW553/V1_MQTT_OK/GD32VW55X_Wifi_BLE_SDK/GD32VW55x_RELEASE_V1.0.2/MSDK/wpa_supplicant/src/tls\pkcs5.c **** 		wpa_printf(MSG_INFO, "PKCS #5: Invalid PS octet 0x%x", pad);
 2375              		.loc 2 722 2 is_stmt 1
 722:C:/Users/stapi/OneDrive/Desktop/GD32VW553/V1_MQTT_OK/GD32VW55X_Wifi_BLE_SDK/GD32VW55x_RELEASE_V1.0.2/MSDK/wpa_supplicant/src/tls\pkcs5.c **** 		wpa_printf(MSG_INFO, "PKCS #5: Invalid PS octet 0x%x", pad);
 2376              		.loc 2 722 5 is_stmt 0
 2377 0998 2147     		li	a4,8
 727:C:/Users/stapi/OneDrive/Desktop/GD32VW553/V1_MQTT_OK/GD32VW55X_Wifi_BLE_SDK/GD32VW55x_RELEASE_V1.0.2/MSDK/wpa_supplicant/src/tls\pkcs5.c **** 		if (eb[i] != pad) {
 2378              		.loc 2 727 9
 2379 099a B304D940 		sub	s1,s2,a3
 2380              	.LVL251:
 2381 099e A687     		mv	a5,s1
 722:C:/Users/stapi/OneDrive/Desktop/GD32VW553/V1_MQTT_OK/GD32VW55X_Wifi_BLE_SDK/GD32VW55x_RELEASE_V1.0.2/MSDK/wpa_supplicant/src/tls\pkcs5.c **** 		wpa_printf(MSG_INFO, "PKCS #5: Invalid PS octet 0x%x", pad);
 2382              		.loc 2 722 5
 2383 09a0 6370D704 		bleu	a3,a4,.L139
 723:C:/Users/stapi/OneDrive/Desktop/GD32VW553/V1_MQTT_OK/GD32VW55X_Wifi_BLE_SDK/GD32VW55x_RELEASE_V1.0.2/MSDK/wpa_supplicant/src/tls\pkcs5.c **** 		os_free(eb);
 2384              		.loc 2 723 3 is_stmt 1
 2385 09a4 B7050000 		lui	a1,%hi(.LC40)
 2386 09a8 3686     		mv	a2,a3
 2387 09aa 93850500 		addi	a1,a1,%lo(.LC40)
 2388 09ae 0D45     		li	a0,3
 2389 09b0 97000000 		call	wpa_printf
 2389      E7800000 
 2390              	.LVL252:
 724:C:/Users/stapi/OneDrive/Desktop/GD32VW553/V1_MQTT_OK/GD32VW55X_Wifi_BLE_SDK/GD32VW55x_RELEASE_V1.0.2/MSDK/wpa_supplicant/src/tls\pkcs5.c **** 		return NULL;
 2391              		.loc 2 724 3
 2392 09b8 C1B7     		j	.L179
 2393              	.LVL253:
 2394              	.L141:
 728:C:/Users/stapi/OneDrive/Desktop/GD32VW553/V1_MQTT_OK/GD32VW55X_Wifi_BLE_SDK/GD32VW55x_RELEASE_V1.0.2/MSDK/wpa_supplicant/src/tls\pkcs5.c **** 			wpa_hexdump(MSG_INFO, "PKCS #5: Invalid PS",
 2395              		.loc 2 728 3
 728:C:/Users/stapi/OneDrive/Desktop/GD32VW553/V1_MQTT_OK/GD32VW55X_Wifi_BLE_SDK/GD32VW55x_RELEASE_V1.0.2/MSDK/wpa_supplicant/src/tls\pkcs5.c **** 			wpa_hexdump(MSG_INFO, "PKCS #5: Invalid PS",
 2396              		.loc 2 728 9 is_stmt 0
 2397 09ba 3307F400 		add	a4,s0,a5
 728:C:/Users/stapi/OneDrive/Desktop/GD32VW553/V1_MQTT_OK/GD32VW55X_Wifi_BLE_SDK/GD32VW55x_RELEASE_V1.0.2/MSDK/wpa_supplicant/src/tls\pkcs5.c **** 			wpa_hexdump(MSG_INFO, "PKCS #5: Invalid PS",
 2398              		.loc 2 728 6
 2399 09be 03470700 		lbu	a4,0(a4)
 2400 09c2 630ED700 		beq	a4,a3,.L140
 729:C:/Users/stapi/OneDrive/Desktop/GD32VW553/V1_MQTT_OK/GD32VW55X_Wifi_BLE_SDK/GD32VW55x_RELEASE_V1.0.2/MSDK/wpa_supplicant/src/tls\pkcs5.c **** 				    eb + enc_data_len - pad, pad);
 2401              		.loc 2 729 4 is_stmt 1
 2402 09c6 B7050000 		lui	a1,%hi(.LC41)
 2403 09ca 33069400 		add	a2,s0,s1
 2404 09ce 93850500 		addi	a1,a1,%lo(.LC41)
 2405 09d2 0D45     		li	a0,3
 2406 09d4 97000000 		call	wpa_hexdump
 2406      E7800000 
 2407              	.LVL254:
 2408 09dc 71BF     		j	.L179
 2409              	.LVL255:
 2410              	.L140:
 727:C:/Users/stapi/OneDrive/Desktop/GD32VW553/V1_MQTT_OK/GD32VW55X_Wifi_BLE_SDK/GD32VW55x_RELEASE_V1.0.2/MSDK/wpa_supplicant/src/tls\pkcs5.c **** 		if (eb[i] != pad) {
 2411              		.loc 2 727 49 discriminator 2
 727:C:/Users/stapi/OneDrive/Desktop/GD32VW553/V1_MQTT_OK/GD32VW55X_Wifi_BLE_SDK/GD32VW55x_RELEASE_V1.0.2/MSDK/wpa_supplicant/src/tls\pkcs5.c **** 		if (eb[i] != pad) {
 2412              		.loc 2 727 50 is_stmt 0 discriminator 2
 2413 09de 8507     		addi	a5,a5,1
 2414              	.LVL256:
 2415              	.L139:
 727:C:/Users/stapi/OneDrive/Desktop/GD32VW553/V1_MQTT_OK/GD32VW55X_Wifi_BLE_SDK/GD32VW55x_RELEASE_V1.0.2/MSDK/wpa_supplicant/src/tls\pkcs5.c **** 		if (eb[i] != pad) {
 2416              		.loc 2 727 31 is_stmt 1 discriminator 1
 727:C:/Users/stapi/OneDrive/Desktop/GD32VW553/V1_MQTT_OK/GD32VW55X_Wifi_BLE_SDK/GD32VW55x_RELEASE_V1.0.2/MSDK/wpa_supplicant/src/tls\pkcs5.c **** 		if (eb[i] != pad) {
 2417              		.loc 2 727 2 is_stmt 0 discriminator 1
 2418 09e0 E3ED27FD 		bltu	a5,s2,.L141
 736:C:/Users/stapi/OneDrive/Desktop/GD32VW553/V1_MQTT_OK/GD32VW55X_Wifi_BLE_SDK/GD32VW55x_RELEASE_V1.0.2/MSDK/wpa_supplicant/src/tls\pkcs5.c **** 			eb, enc_data_len - pad);
 2419              		.loc 2 736 2 is_stmt 1
 2420 09e4 B7050000 		lui	a1,%hi(.LC42)
 2421 09e8 A686     		mv	a3,s1
 2422              	.LVL257:
 2423 09ea 2286     		mv	a2,s0
 2424 09ec 93850500 		addi	a1,a1,%lo(.LC42)
 2425 09f0 0545     		li	a0,1
 2426 09f2 97000000 		call	wpa_hexdump_key
 2426      E7800000 
 2427              	.LVL258:
 739:C:/Users/stapi/OneDrive/Desktop/GD32VW553/V1_MQTT_OK/GD32VW55X_Wifi_BLE_SDK/GD32VW55x_RELEASE_V1.0.2/MSDK/wpa_supplicant/src/tls\pkcs5.c **** 	return eb;
 2428              		.loc 2 739 2
 739:C:/Users/stapi/OneDrive/Desktop/GD32VW553/V1_MQTT_OK/GD32VW55X_Wifi_BLE_SDK/GD32VW55x_RELEASE_V1.0.2/MSDK/wpa_supplicant/src/tls\pkcs5.c **** 	return eb;
 2429              		.loc 2 739 12 is_stmt 0
 2430 09fa 23209A00 		sw	s1,0(s4)
 740:C:/Users/stapi/OneDrive/Desktop/GD32VW553/V1_MQTT_OK/GD32VW55X_Wifi_BLE_SDK/GD32VW55x_RELEASE_V1.0.2/MSDK/wpa_supplicant/src/tls\pkcs5.c **** }
 2431              		.loc 2 740 2 is_stmt 1
 740:C:/Users/stapi/OneDrive/Desktop/GD32VW553/V1_MQTT_OK/GD32VW55X_Wifi_BLE_SDK/GD32VW55x_RELEASE_V1.0.2/MSDK/wpa_supplicant/src/tls\pkcs5.c **** }
 2432              		.loc 2 740 9 is_stmt 0
 2433 09fe 3DBF     		j	.L62
 2434              		.cfi_endproc
 2435              	.LFE460:
 2437              		.text
 2438              	.Letext0:
 2439              		.file 4 "c:\\users\\stapi\\onedrive\\desktop\\gd32vw553\\embeddedbuilder_v1.4.7.26843\\tools\\nucl
 2440              		.file 5 "c:\\users\\stapi\\onedrive\\desktop\\gd32vw553\\embeddedbuilder_v1.4.7.26843\\tools\\nucl
 2441              		.file 6 "c:\\users\\stapi\\onedrive\\desktop\\gd32vw553\\embeddedbuilder_v1.4.7.26843\\tools\\nucl
 2442              		.file 7 "..\\..\\..\\..\\wpa_supplicant\\src\\utils/wpa_debug.h"
 2443              		.file 8 "..\\..\\..\\..\\..\\ROM-EXPORT\\mbedtls-2.17.0-rom\\include/mbedtls/md.h"
 2444              		.file 9 "..\\..\\..\\..\\wpa_supplicant\\src/crypto/crypto.h"
 2445              		.file 10 "..\\..\\..\\..\\wpa_supplicant\\src\\utils/os.h"
 2446              		.file 11 "c:\\users\\stapi\\onedrive\\desktop\\gd32vw553\\embeddedbuilder_v1.4.7.26843\\tools\\nuc
 2447              		.file 12 "..\\..\\..\\..\\..\\ROM-EXPORT\\mbedtls-2.17.0-rom\\include/mbedtls/pkcs5.h"
DEFINED SYMBOLS
                            *ABS*:0000000000000000 pkcs5.c
C:\Users\stapi\AppData\Local\Temp\ccemRRQg.s:12     .text.asn1_is_sequence:0000000000000000 asn1_is_sequence
C:\Users\stapi\AppData\Local\Temp\ccemRRQg.s:16     .text.asn1_is_sequence:0000000000000000 .L0 
C:\Users\stapi\AppData\Local\Temp\ccemRRQg.s:18     .text.asn1_is_sequence:0000000000000000 .L0 
C:\Users\stapi\AppData\Local\Temp\ccemRRQg.s:19     .text.asn1_is_sequence:0000000000000000 .L0 
C:\Users\stapi\AppData\Local\Temp\ccemRRQg.s:20     .text.asn1_is_sequence:0000000000000000 .L0 
C:\Users\stapi\AppData\Local\Temp\ccemRRQg.s:23     .text.asn1_is_sequence:0000000000000006 .L0 
C:\Users\stapi\AppData\Local\Temp\ccemRRQg.s:31     .text.asn1_is_sequence:0000000000000010 .L0 
C:\Users\stapi\AppData\Local\Temp\ccemRRQg.s:34     .text.asn1_is_sequence:0000000000000012 .L0 
C:\Users\stapi\AppData\Local\Temp\ccemRRQg.s:35     .text.asn1_is_sequence:0000000000000014 .L0 
C:\Users\stapi\AppData\Local\Temp\ccemRRQg.s:41     .text.oid_is_rsadsi:0000000000000000 oid_is_rsadsi
C:\Users\stapi\AppData\Local\Temp\ccemRRQg.s:45     .text.oid_is_rsadsi:0000000000000000 .L0 
C:\Users\stapi\AppData\Local\Temp\ccemRRQg.s:47     .text.oid_is_rsadsi:0000000000000000 .L0 
C:\Users\stapi\AppData\Local\Temp\ccemRRQg.s:48     .text.oid_is_rsadsi:0000000000000000 .L0 
C:\Users\stapi\AppData\Local\Temp\ccemRRQg.s:49     .text.oid_is_rsadsi:0000000000000000 .L0 
C:\Users\stapi\AppData\Local\Temp\ccemRRQg.s:52     .text.oid_is_rsadsi:0000000000000004 .L0 
C:\Users\stapi\AppData\Local\Temp\ccemRRQg.s:54     .text.oid_is_rsadsi:0000000000000006 .L0 
C:\Users\stapi\AppData\Local\Temp\ccemRRQg.s:56     .text.oid_is_rsadsi:000000000000000a .L0 
C:\Users\stapi\AppData\Local\Temp\ccemRRQg.s:59     .text.oid_is_rsadsi:000000000000000e .L0 
C:\Users\stapi\AppData\Local\Temp\ccemRRQg.s:62     .text.oid_is_rsadsi:0000000000000010 .L0 
C:\Users\stapi\AppData\Local\Temp\ccemRRQg.s:64     .text.oid_is_rsadsi:0000000000000014 .L0 
C:\Users\stapi\AppData\Local\Temp\ccemRRQg.s:68     .text.oid_is_rsadsi:000000000000001c .L0 
C:\Users\stapi\AppData\Local\Temp\ccemRRQg.s:72     .text.oid_is_rsadsi:0000000000000026 .L0 
C:\Users\stapi\AppData\Local\Temp\ccemRRQg.s:82     .text.oid_is_rsadsi:0000000000000036 .L0 
C:\Users\stapi\AppData\Local\Temp\ccemRRQg.s:86     .text.oid_is_rsadsi:0000000000000038 .L0 
C:\Users\stapi\AppData\Local\Temp\ccemRRQg.s:87     .text.oid_is_rsadsi:000000000000003a .L0 
C:\Users\stapi\AppData\Local\Temp\ccemRRQg.s:93     .text.pkcs5_is_oid:0000000000000000 pkcs5_is_oid
C:\Users\stapi\AppData\Local\Temp\ccemRRQg.s:96     .text.pkcs5_is_oid:0000000000000000 .L0 
C:\Users\stapi\AppData\Local\Temp\ccemRRQg.s:98     .text.pkcs5_is_oid:0000000000000000 .L0 
C:\Users\stapi\AppData\Local\Temp\ccemRRQg.s:99     .text.pkcs5_is_oid:0000000000000000 .L0 
C:\Users\stapi\AppData\Local\Temp\ccemRRQg.s:100    .text.pkcs5_is_oid:0000000000000000 .L0 
C:\Users\stapi\AppData\Local\Temp\ccemRRQg.s:104    .text.pkcs5_is_oid:0000000000000008 .L0 
C:\Users\stapi\AppData\Local\Temp\ccemRRQg.s:105    .text.pkcs5_is_oid:0000000000000010 .L0 
C:\Users\stapi\AppData\Local\Temp\ccemRRQg.s:106    .text.pkcs5_is_oid:0000000000000010 .L0 
C:\Users\stapi\AppData\Local\Temp\ccemRRQg.s:107    .text.pkcs5_is_oid:0000000000000010 .L0 
C:\Users\stapi\AppData\Local\Temp\ccemRRQg.s:108    .text.pkcs5_is_oid:0000000000000010 .L0 
C:\Users\stapi\AppData\Local\Temp\ccemRRQg.s:112    .text.pkcs5_is_oid:0000000000000014 .L0 
C:\Users\stapi\AppData\Local\Temp\ccemRRQg.s:115    .text.pkcs5_is_oid:000000000000001c .L0 
C:\Users\stapi\AppData\Local\Temp\ccemRRQg.s:117    .text.pkcs5_is_oid:000000000000001e .L0 
C:\Users\stapi\AppData\Local\Temp\ccemRRQg.s:120    .text.pkcs5_is_oid:0000000000000022 .L0 
C:\Users\stapi\AppData\Local\Temp\ccemRRQg.s:122    .text.pkcs5_is_oid:0000000000000024 .L0 
C:\Users\stapi\AppData\Local\Temp\ccemRRQg.s:127    .text.pkcs5_is_oid:0000000000000028 .L0 
C:\Users\stapi\AppData\Local\Temp\ccemRRQg.s:131    .text.pkcs5_is_oid:0000000000000030 .L0 
C:\Users\stapi\AppData\Local\Temp\ccemRRQg.s:139    .text.pkcs5_is_oid:0000000000000038 .L0 
C:\Users\stapi\AppData\Local\Temp\ccemRRQg.s:140    .text.pkcs5_is_oid:0000000000000040 .L0 
C:\Users\stapi\AppData\Local\Temp\ccemRRQg.s:141    .text.pkcs5_is_oid:0000000000000040 .L0 
C:\Users\stapi\AppData\Local\Temp\ccemRRQg.s:142    .text.pkcs5_is_oid:0000000000000040 .L0 
C:\Users\stapi\AppData\Local\Temp\ccemRRQg.s:143    .text.pkcs5_is_oid:0000000000000040 .L0 
C:\Users\stapi\AppData\Local\Temp\ccemRRQg.s:147    .text.pkcs5_is_oid:0000000000000040 .L0 
C:\Users\stapi\AppData\Local\Temp\ccemRRQg.s:150    .text.pkcs5_is_oid:0000000000000042 .L0 
C:\Users\stapi\AppData\Local\Temp\ccemRRQg.s:151    .text.pkcs5_is_oid:0000000000000044 .L0 
C:\Users\stapi\AppData\Local\Temp\ccemRRQg.s:157    .text.digest_alg_is_oid:0000000000000000 digest_alg_is_oid
C:\Users\stapi\AppData\Local\Temp\ccemRRQg.s:160    .text.digest_alg_is_oid:0000000000000000 .L0 
C:\Users\stapi\AppData\Local\Temp\ccemRRQg.s:162    .text.digest_alg_is_oid:0000000000000000 .L0 
C:\Users\stapi\AppData\Local\Temp\ccemRRQg.s:163    .text.digest_alg_is_oid:0000000000000000 .L0 
C:\Users\stapi\AppData\Local\Temp\ccemRRQg.s:164    .text.digest_alg_is_oid:0000000000000000 .L0 
C:\Users\stapi\AppData\Local\Temp\ccemRRQg.s:168    .text.digest_alg_is_oid:0000000000000008 .L0 
C:\Users\stapi\AppData\Local\Temp\ccemRRQg.s:169    .text.digest_alg_is_oid:0000000000000010 .L0 
C:\Users\stapi\AppData\Local\Temp\ccemRRQg.s:170    .text.digest_alg_is_oid:0000000000000010 .L0 
C:\Users\stapi\AppData\Local\Temp\ccemRRQg.s:171    .text.digest_alg_is_oid:0000000000000010 .L0 
C:\Users\stapi\AppData\Local\Temp\ccemRRQg.s:172    .text.digest_alg_is_oid:0000000000000010 .L0 
C:\Users\stapi\AppData\Local\Temp\ccemRRQg.s:176    .text.digest_alg_is_oid:0000000000000014 .L0 
C:\Users\stapi\AppData\Local\Temp\ccemRRQg.s:179    .text.digest_alg_is_oid:000000000000001c .L0 
C:\Users\stapi\AppData\Local\Temp\ccemRRQg.s:184    .text.digest_alg_is_oid:000000000000001e .L0 
C:\Users\stapi\AppData\Local\Temp\ccemRRQg.s:189    .text.digest_alg_is_oid:0000000000000022 .L0 
C:\Users\stapi\AppData\Local\Temp\ccemRRQg.s:193    .text.digest_alg_is_oid:0000000000000024 .L0 
C:\Users\stapi\AppData\Local\Temp\ccemRRQg.s:195    .text.digest_alg_is_oid:0000000000000028 .L0 
C:\Users\stapi\AppData\Local\Temp\ccemRRQg.s:203    .text.digest_alg_is_oid:0000000000000030 .L0 
C:\Users\stapi\AppData\Local\Temp\ccemRRQg.s:204    .text.digest_alg_is_oid:0000000000000038 .L0 
C:\Users\stapi\AppData\Local\Temp\ccemRRQg.s:205    .text.digest_alg_is_oid:0000000000000038 .L0 
C:\Users\stapi\AppData\Local\Temp\ccemRRQg.s:206    .text.digest_alg_is_oid:0000000000000038 .L0 
C:\Users\stapi\AppData\Local\Temp\ccemRRQg.s:207    .text.digest_alg_is_oid:0000000000000038 .L0 
C:\Users\stapi\AppData\Local\Temp\ccemRRQg.s:211    .text.digest_alg_is_oid:0000000000000038 .L0 
C:\Users\stapi\AppData\Local\Temp\ccemRRQg.s:214    .text.digest_alg_is_oid:000000000000003a .L0 
C:\Users\stapi\AppData\Local\Temp\ccemRRQg.s:215    .text.digest_alg_is_oid:000000000000003c .L0 
C:\Users\stapi\AppData\Local\Temp\ccemRRQg.s:221    .text.pkcs12_key_gen:0000000000000000 pkcs12_key_gen
C:\Users\stapi\AppData\Local\Temp\ccemRRQg.s:224    .text.pkcs12_key_gen:0000000000000000 .L0 
C:\Users\stapi\AppData\Local\Temp\ccemRRQg.s:226    .text.pkcs12_key_gen:0000000000000000 .L0 
C:\Users\stapi\AppData\Local\Temp\ccemRRQg.s:227    .text.pkcs12_key_gen:0000000000000008 .L0 
C:\Users\stapi\AppData\Local\Temp\ccemRRQg.s:228    .text.pkcs12_key_gen:0000000000000008 .L0 
C:\Users\stapi\AppData\Local\Temp\ccemRRQg.s:229    .text.pkcs12_key_gen:0000000000000008 .L0 
C:\Users\stapi\AppData\Local\Temp\ccemRRQg.s:230    .text.pkcs12_key_gen:0000000000000008 .L0 
C:\Users\stapi\AppData\Local\Temp\ccemRRQg.s:231    .text.pkcs12_key_gen:0000000000000008 .L0 
C:\Users\stapi\AppData\Local\Temp\ccemRRQg.s:232    .text.pkcs12_key_gen:0000000000000008 .L0 
C:\Users\stapi\AppData\Local\Temp\ccemRRQg.s:233    .text.pkcs12_key_gen:0000000000000008 .L0 
C:\Users\stapi\AppData\Local\Temp\ccemRRQg.s:234    .text.pkcs12_key_gen:0000000000000008 .L0 
C:\Users\stapi\AppData\Local\Temp\ccemRRQg.s:235    .text.pkcs12_key_gen:0000000000000008 .L0 
C:\Users\stapi\AppData\Local\Temp\ccemRRQg.s:236    .text.pkcs12_key_gen:0000000000000008 .L0 
C:\Users\stapi\AppData\Local\Temp\ccemRRQg.s:237    .text.pkcs12_key_gen:0000000000000008 .L0 
C:\Users\stapi\AppData\Local\Temp\ccemRRQg.s:238    .text.pkcs12_key_gen:0000000000000008 .L0 
C:\Users\stapi\AppData\Local\Temp\ccemRRQg.s:239    .text.pkcs12_key_gen:0000000000000008 .L0 
C:\Users\stapi\AppData\Local\Temp\ccemRRQg.s:240    .text.pkcs12_key_gen:0000000000000008 .L0 
C:\Users\stapi\AppData\Local\Temp\ccemRRQg.s:242    .text.pkcs12_key_gen:000000000000000a .L0 
C:\Users\stapi\AppData\Local\Temp\ccemRRQg.s:244    .text.pkcs12_key_gen:000000000000000a .L0 
C:\Users\stapi\AppData\Local\Temp\ccemRRQg.s:246    .text.pkcs12_key_gen:000000000000000c .L0 
C:\Users\stapi\AppData\Local\Temp\ccemRRQg.s:249    .text.pkcs12_key_gen:0000000000000010 .L0 
C:\Users\stapi\AppData\Local\Temp\ccemRRQg.s:256    .text.pkcs12_key_gen:000000000000001c .L0 
C:\Users\stapi\AppData\Local\Temp\ccemRRQg.s:258    .text.pkcs12_key_gen:000000000000001c .L0 
C:\Users\stapi\AppData\Local\Temp\ccemRRQg.s:259    .text.pkcs12_key_gen:000000000000001c .L0 
C:\Users\stapi\AppData\Local\Temp\ccemRRQg.s:260    .text.pkcs12_key_gen:000000000000001c .L0 
C:\Users\stapi\AppData\Local\Temp\ccemRRQg.s:261    .text.pkcs12_key_gen:000000000000001c .L0 
C:\Users\stapi\AppData\Local\Temp\ccemRRQg.s:262    .text.pkcs12_key_gen:000000000000001c .L0 
C:\Users\stapi\AppData\Local\Temp\ccemRRQg.s:263    .text.pkcs12_key_gen:000000000000001c .L0 
C:\Users\stapi\AppData\Local\Temp\ccemRRQg.s:265    .text.pkcs12_key_gen:000000000000001e .L0 
C:\Users\stapi\AppData\Local\Temp\ccemRRQg.s:268    .text.pkcs12_key_gen:0000000000000026 .L0 
C:\Users\stapi\AppData\Local\Temp\ccemRRQg.s:270    .text.pkcs12_key_gen:0000000000000028 .L0 
C:\Users\stapi\AppData\Local\Temp\ccemRRQg.s:273    .text.pkcs12_key_gen:000000000000002a .L0 
C:\Users\stapi\AppData\Local\Temp\ccemRRQg.s:274    .text.pkcs12_key_gen:000000000000002a .L0 
C:\Users\stapi\AppData\Local\Temp\ccemRRQg.s:278    .text.pkcs12_key_gen:000000000000002c .L0 
C:\Users\stapi\AppData\Local\Temp\ccemRRQg.s:281    .text.pkcs12_key_gen:000000000000002e .L0 
C:\Users\stapi\AppData\Local\Temp\ccemRRQg.s:284    .text.pkcs12_key_gen:0000000000000030 .L0 
C:\Users\stapi\AppData\Local\Temp\ccemRRQg.s:288    .text.pkcs12_key_gen:0000000000000032 .L0 
C:\Users\stapi\AppData\Local\Temp\ccemRRQg.s:292    .text.pkcs12_key_gen:000000000000003c .L0 
C:\Users\stapi\AppData\Local\Temp\ccemRRQg.s:296    .text.pkcs12_key_gen:0000000000000046 .L0 
C:\Users\stapi\AppData\Local\Temp\ccemRRQg.s:300    .text.pkcs12_key_gen:0000000000000050 .L0 
C:\Users\stapi\AppData\Local\Temp\ccemRRQg.s:301    .text.pkcs12_key_gen:0000000000000050 .L0 
C:\Users\stapi\AppData\Local\Temp\ccemRRQg.s:303    .text.pkcs12_key_gen:0000000000000054 .L0 
C:\Users\stapi\AppData\Local\Temp\ccemRRQg.s:304    .text.pkcs12_key_gen:0000000000000054 .L0 
C:\Users\stapi\AppData\Local\Temp\ccemRRQg.s:306    .text.pkcs12_key_gen:000000000000005c .L0 
C:\Users\stapi\AppData\Local\Temp\ccemRRQg.s:307    .text.pkcs12_key_gen:000000000000005c .L0 
C:\Users\stapi\AppData\Local\Temp\ccemRRQg.s:308    .text.pkcs12_key_gen:000000000000005c .L0 
C:\Users\stapi\AppData\Local\Temp\ccemRRQg.s:309    .text.pkcs12_key_gen:000000000000005c .L0 
C:\Users\stapi\AppData\Local\Temp\ccemRRQg.s:310    .text.pkcs12_key_gen:000000000000005c .L0 
C:\Users\stapi\AppData\Local\Temp\ccemRRQg.s:311    .text.pkcs12_key_gen:000000000000005c .L0 
C:\Users\stapi\AppData\Local\Temp\ccemRRQg.s:312    .text.pkcs12_key_gen:000000000000005c .L0 
C:\Users\stapi\AppData\Local\Temp\ccemRRQg.s:313    .text.pkcs12_key_gen:000000000000005c .L0 
C:\Users\stapi\AppData\Local\Temp\ccemRRQg.s:314    .text.pkcs12_key_gen:000000000000005c .L0 
C:\Users\stapi\AppData\Local\Temp\ccemRRQg.s:315    .text.pkcs12_key_gen:000000000000005c .L0 
C:\Users\stapi\AppData\Local\Temp\ccemRRQg.s:316    .text.pkcs12_key_gen:000000000000005c .L0 
C:\Users\stapi\AppData\Local\Temp\ccemRRQg.s:317    .text.pkcs12_key_gen:000000000000005c .L0 
C:\Users\stapi\AppData\Local\Temp\ccemRRQg.s:318    .text.pkcs12_key_gen:000000000000005c .L0 
C:\Users\stapi\AppData\Local\Temp\ccemRRQg.s:319    .text.pkcs12_key_gen:000000000000005c .L0 
C:\Users\stapi\AppData\Local\Temp\ccemRRQg.s:322    .text.pkcs12_key_gen:000000000000005c .L0 
C:\Users\stapi\AppData\Local\Temp\ccemRRQg.s:324    .text.pkcs12_key_gen:000000000000005c .L0 
C:\Users\stapi\AppData\Local\Temp\ccemRRQg.s:325    .text.pkcs12_key_gen:000000000000005c .L0 
C:\Users\stapi\AppData\Local\Temp\ccemRRQg.s:327    .text.pkcs12_key_gen:0000000000000060 .L0 
C:\Users\stapi\AppData\Local\Temp\ccemRRQg.s:329    .text.pkcs12_key_gen:0000000000000064 .L0 
C:\Users\stapi\AppData\Local\Temp\ccemRRQg.s:331    .text.pkcs12_key_gen:0000000000000068 .L0 
C:\Users\stapi\AppData\Local\Temp\ccemRRQg.s:333    .text.pkcs12_key_gen:000000000000006c .L0 
C:\Users\stapi\AppData\Local\Temp\ccemRRQg.s:335    .text.pkcs12_key_gen:0000000000000070 .L0 
C:\Users\stapi\AppData\Local\Temp\ccemRRQg.s:338    .text.pkcs12_key_gen:0000000000000078 .L0 
C:\Users\stapi\AppData\Local\Temp\ccemRRQg.s:339    .text.pkcs12_key_gen:0000000000000078 .L0 
C:\Users\stapi\AppData\Local\Temp\ccemRRQg.s:340    .text.pkcs12_key_gen:0000000000000078 .L0 
C:\Users\stapi\AppData\Local\Temp\ccemRRQg.s:341    .text.pkcs12_key_gen:0000000000000078 .L0 
C:\Users\stapi\AppData\Local\Temp\ccemRRQg.s:348    .text.pkcs12_key_gen:0000000000000088 .L0 
C:\Users\stapi\AppData\Local\Temp\ccemRRQg.s:349    .text.pkcs12_key_gen:0000000000000088 .L0 
C:\Users\stapi\AppData\Local\Temp\ccemRRQg.s:352    .text.pkcs12_key_gen:000000000000008a .L0 
C:\Users\stapi\AppData\Local\Temp\ccemRRQg.s:353    .text.pkcs12_key_gen:000000000000008a .L0 
C:\Users\stapi\AppData\Local\Temp\ccemRRQg.s:355    .text.pkcs12_key_gen:000000000000008c .L0 
C:\Users\stapi\AppData\Local\Temp\ccemRRQg.s:357    .text.pkcs12_key_gen:0000000000000090 .L0 
C:\Users\stapi\AppData\Local\Temp\ccemRRQg.s:362    .text.pkcs12_key_gen:0000000000000094 .L0 
C:\Users\stapi\AppData\Local\Temp\ccemRRQg.s:363    .text.pkcs12_key_gen:0000000000000094 .L0 
C:\Users\stapi\AppData\Local\Temp\ccemRRQg.s:365    .text.pkcs12_key_gen:0000000000000098 .L0 
C:\Users\stapi\AppData\Local\Temp\ccemRRQg.s:368    .text.pkcs12_key_gen:000000000000009a .L0 
C:\Users\stapi\AppData\Local\Temp\ccemRRQg.s:371    .text.pkcs12_key_gen:00000000000000a0 .L0 
C:\Users\stapi\AppData\Local\Temp\ccemRRQg.s:375    .text.pkcs12_key_gen:00000000000000a4 .L0 
C:\Users\stapi\AppData\Local\Temp\ccemRRQg.s:376    .text.pkcs12_key_gen:00000000000000a4 .L0 
C:\Users\stapi\AppData\Local\Temp\ccemRRQg.s:379    .text.pkcs12_key_gen:00000000000000a8 .L0 
C:\Users\stapi\AppData\Local\Temp\ccemRRQg.s:383    .text.pkcs12_key_gen:00000000000000ac .L0 
C:\Users\stapi\AppData\Local\Temp\ccemRRQg.s:384    .text.pkcs12_key_gen:00000000000000ac .L0 
C:\Users\stapi\AppData\Local\Temp\ccemRRQg.s:388    .text.pkcs12_key_gen:00000000000000ae .L0 
C:\Users\stapi\AppData\Local\Temp\ccemRRQg.s:389    .text.pkcs12_key_gen:00000000000000ae .L0 
C:\Users\stapi\AppData\Local\Temp\ccemRRQg.s:396    .text.pkcs12_key_gen:00000000000000bc .L0 
C:\Users\stapi\AppData\Local\Temp\ccemRRQg.s:397    .text.pkcs12_key_gen:00000000000000bc .L0 
C:\Users\stapi\AppData\Local\Temp\ccemRRQg.s:400    .text.pkcs12_key_gen:00000000000000be .L0 
C:\Users\stapi\AppData\Local\Temp\ccemRRQg.s:405    .text.pkcs12_key_gen:00000000000000c2 .L0 
C:\Users\stapi\AppData\Local\Temp\ccemRRQg.s:409    .text.pkcs12_key_gen:00000000000000c6 .L0 
C:\Users\stapi\AppData\Local\Temp\ccemRRQg.s:415    .text.pkcs12_key_gen:00000000000000c8 .L0 
C:\Users\stapi\AppData\Local\Temp\ccemRRQg.s:417    .text.pkcs12_key_gen:00000000000000cc .L0 
C:\Users\stapi\AppData\Local\Temp\ccemRRQg.s:426    .text.pkcs12_key_gen:00000000000000d8 .L0 
C:\Users\stapi\AppData\Local\Temp\ccemRRQg.s:427    .text.pkcs12_key_gen:00000000000000d8 .L0 
C:\Users\stapi\AppData\Local\Temp\ccemRRQg.s:428    .text.pkcs12_key_gen:00000000000000d8 .L0 
C:\Users\stapi\AppData\Local\Temp\ccemRRQg.s:429    .text.pkcs12_key_gen:00000000000000d8 .L0 
C:\Users\stapi\AppData\Local\Temp\ccemRRQg.s:430    .text.pkcs12_key_gen:00000000000000d8 .L0 
C:\Users\stapi\AppData\Local\Temp\ccemRRQg.s:431    .text.pkcs12_key_gen:00000000000000d8 .L0 
C:\Users\stapi\AppData\Local\Temp\ccemRRQg.s:433    .text.pkcs12_key_gen:00000000000000da .L0 
C:\Users\stapi\AppData\Local\Temp\ccemRRQg.s:434    .text.pkcs12_key_gen:00000000000000da .L0 
C:\Users\stapi\AppData\Local\Temp\ccemRRQg.s:436    .text.pkcs12_key_gen:00000000000000dc .L0 
C:\Users\stapi\AppData\Local\Temp\ccemRRQg.s:437    .text.pkcs12_key_gen:00000000000000dc .L0 
C:\Users\stapi\AppData\Local\Temp\ccemRRQg.s:439    .text.pkcs12_key_gen:00000000000000de .L0 
C:\Users\stapi\AppData\Local\Temp\ccemRRQg.s:440    .text.pkcs12_key_gen:00000000000000de .L0 
C:\Users\stapi\AppData\Local\Temp\ccemRRQg.s:442    .text.pkcs12_key_gen:00000000000000e0 .L0 
C:\Users\stapi\AppData\Local\Temp\ccemRRQg.s:443    .text.pkcs12_key_gen:00000000000000e0 .L0 
C:\Users\stapi\AppData\Local\Temp\ccemRRQg.s:446    .text.pkcs12_key_gen:00000000000000e8 .L0 
C:\Users\stapi\AppData\Local\Temp\ccemRRQg.s:448    .text.pkcs12_key_gen:00000000000000ec .L0 
C:\Users\stapi\AppData\Local\Temp\ccemRRQg.s:449    .text.pkcs12_key_gen:00000000000000ec .L0 
C:\Users\stapi\AppData\Local\Temp\ccemRRQg.s:451    .text.pkcs12_key_gen:00000000000000ee .L0 
C:\Users\stapi\AppData\Local\Temp\ccemRRQg.s:453    .text.pkcs12_key_gen:00000000000000f0 .L0 
C:\Users\stapi\AppData\Local\Temp\ccemRRQg.s:454    .text.pkcs12_key_gen:00000000000000f0 .L0 
C:\Users\stapi\AppData\Local\Temp\ccemRRQg.s:457    .text.pkcs12_key_gen:00000000000000f2 .L0 
C:\Users\stapi\AppData\Local\Temp\ccemRRQg.s:458    .text.pkcs12_key_gen:00000000000000f2 .L0 
C:\Users\stapi\AppData\Local\Temp\ccemRRQg.s:462    .text.pkcs12_key_gen:00000000000000f4 .L0 
C:\Users\stapi\AppData\Local\Temp\ccemRRQg.s:463    .text.pkcs12_key_gen:00000000000000f4 .L0 
C:\Users\stapi\AppData\Local\Temp\ccemRRQg.s:465    .text.pkcs12_key_gen:00000000000000f8 .L0 
C:\Users\stapi\AppData\Local\Temp\ccemRRQg.s:466    .text.pkcs12_key_gen:00000000000000f8 .L0 
C:\Users\stapi\AppData\Local\Temp\ccemRRQg.s:469    .text.pkcs12_key_gen:00000000000000fe .L0 
C:\Users\stapi\AppData\Local\Temp\ccemRRQg.s:475    .text.pkcs12_key_gen:000000000000010c .L0 
C:\Users\stapi\AppData\Local\Temp\ccemRRQg.s:476    .text.pkcs12_key_gen:000000000000010c .L0 
C:\Users\stapi\AppData\Local\Temp\ccemRRQg.s:477    .text.pkcs12_key_gen:000000000000010c .L0 
C:\Users\stapi\AppData\Local\Temp\ccemRRQg.s:479    .text.pkcs12_key_gen:000000000000010e .L0 
C:\Users\stapi\AppData\Local\Temp\ccemRRQg.s:484    .text.pkcs12_key_gen:0000000000000110 .L0 
C:\Users\stapi\AppData\Local\Temp\ccemRRQg.s:485    .text.pkcs12_key_gen:0000000000000110 .L0 
C:\Users\stapi\AppData\Local\Temp\ccemRRQg.s:487    .text.pkcs12_key_gen:0000000000000114 .L0 
C:\Users\stapi\AppData\Local\Temp\ccemRRQg.s:490    .text.pkcs12_key_gen:000000000000011a .L0 
C:\Users\stapi\AppData\Local\Temp\ccemRRQg.s:492    .text.pkcs12_key_gen:000000000000011e .L0 
C:\Users\stapi\AppData\Local\Temp\ccemRRQg.s:495    .text.pkcs12_key_gen:0000000000000120 .L0 
C:\Users\stapi\AppData\Local\Temp\ccemRRQg.s:499    .text.pkcs12_key_gen:0000000000000124 .L0 
C:\Users\stapi\AppData\Local\Temp\ccemRRQg.s:500    .text.pkcs12_key_gen:0000000000000124 .L0 
C:\Users\stapi\AppData\Local\Temp\ccemRRQg.s:501    .text.pkcs12_key_gen:0000000000000124 .L0 
C:\Users\stapi\AppData\Local\Temp\ccemRRQg.s:506    .text.pkcs12_key_gen:000000000000012a .L0 
C:\Users\stapi\AppData\Local\Temp\ccemRRQg.s:512    .text.pkcs12_key_gen:000000000000012e .L0 
C:\Users\stapi\AppData\Local\Temp\ccemRRQg.s:513    .text.pkcs12_key_gen:000000000000012e .L0 
C:\Users\stapi\AppData\Local\Temp\ccemRRQg.s:520    .text.pkcs12_key_gen:000000000000013e .L0 
C:\Users\stapi\AppData\Local\Temp\ccemRRQg.s:522    .text.pkcs12_key_gen:0000000000000142 .L0 
C:\Users\stapi\AppData\Local\Temp\ccemRRQg.s:523    .text.pkcs12_key_gen:0000000000000142 .L0 
C:\Users\stapi\AppData\Local\Temp\ccemRRQg.s:528    .text.pkcs12_key_gen:0000000000000146 .L0 
C:\Users\stapi\AppData\Local\Temp\ccemRRQg.s:534    .text.pkcs12_key_gen:0000000000000154 .L0 
C:\Users\stapi\AppData\Local\Temp\ccemRRQg.s:535    .text.pkcs12_key_gen:0000000000000154 .L0 
C:\Users\stapi\AppData\Local\Temp\ccemRRQg.s:536    .text.pkcs12_key_gen:0000000000000154 .L0 
C:\Users\stapi\AppData\Local\Temp\ccemRRQg.s:539    .text.pkcs12_key_gen:0000000000000156 .L0 
C:\Users\stapi\AppData\Local\Temp\ccemRRQg.s:540    .text.pkcs12_key_gen:0000000000000156 .L0 
C:\Users\stapi\AppData\Local\Temp\ccemRRQg.s:541    .text.pkcs12_key_gen:0000000000000156 .L0 
C:\Users\stapi\AppData\Local\Temp\ccemRRQg.s:543    .text.pkcs12_key_gen:0000000000000158 .L0 
C:\Users\stapi\AppData\Local\Temp\ccemRRQg.s:545    .text.pkcs12_key_gen:000000000000015a .L0 
C:\Users\stapi\AppData\Local\Temp\ccemRRQg.s:549    .text.pkcs12_key_gen:000000000000015e .L0 
C:\Users\stapi\AppData\Local\Temp\ccemRRQg.s:550    .text.pkcs12_key_gen:000000000000015e .L0 
C:\Users\stapi\AppData\Local\Temp\ccemRRQg.s:552    .text.pkcs12_key_gen:0000000000000162 .L0 
C:\Users\stapi\AppData\Local\Temp\ccemRRQg.s:556    .text.pkcs12_key_gen:000000000000016a .L0 
C:\Users\stapi\AppData\Local\Temp\ccemRRQg.s:558    .text.pkcs12_key_gen:000000000000016e .L0 
C:\Users\stapi\AppData\Local\Temp\ccemRRQg.s:561    .text.pkcs12_key_gen:0000000000000170 .L0 
C:\Users\stapi\AppData\Local\Temp\ccemRRQg.s:564    .text.pkcs12_key_gen:0000000000000174 .L0 
C:\Users\stapi\AppData\Local\Temp\ccemRRQg.s:565    .text.pkcs12_key_gen:0000000000000174 .L0 
C:\Users\stapi\AppData\Local\Temp\ccemRRQg.s:566    .text.pkcs12_key_gen:0000000000000174 .L0 
C:\Users\stapi\AppData\Local\Temp\ccemRRQg.s:568    .text.pkcs12_key_gen:0000000000000178 .L0 
C:\Users\stapi\AppData\Local\Temp\ccemRRQg.s:573    .text.pkcs12_key_gen:0000000000000186 .L0 
C:\Users\stapi\AppData\Local\Temp\ccemRRQg.s:574    .text.pkcs12_key_gen:0000000000000186 .L0 
C:\Users\stapi\AppData\Local\Temp\ccemRRQg.s:578    .text.pkcs12_key_gen:0000000000000188 .L0 
C:\Users\stapi\AppData\Local\Temp\ccemRRQg.s:579    .text.pkcs12_key_gen:0000000000000188 .L0 
C:\Users\stapi\AppData\Local\Temp\ccemRRQg.s:584    .text.pkcs12_key_gen:0000000000000190 .L0 
C:\Users\stapi\AppData\Local\Temp\ccemRRQg.s:586    .text.pkcs12_key_gen:0000000000000192 .L0 
C:\Users\stapi\AppData\Local\Temp\ccemRRQg.s:590    .text.pkcs12_key_gen:0000000000000196 .L0 
C:\Users\stapi\AppData\Local\Temp\ccemRRQg.s:591    .text.pkcs12_key_gen:0000000000000196 .L0 
C:\Users\stapi\AppData\Local\Temp\ccemRRQg.s:593    .text.pkcs12_key_gen:000000000000019a .L0 
C:\Users\stapi\AppData\Local\Temp\ccemRRQg.s:595    .text.pkcs12_key_gen:000000000000019e .L0 
C:\Users\stapi\AppData\Local\Temp\ccemRRQg.s:597    .text.pkcs12_key_gen:00000000000001a2 .L0 
C:\Users\stapi\AppData\Local\Temp\ccemRRQg.s:600    .text.pkcs12_key_gen:00000000000001a4 .L0 
C:\Users\stapi\AppData\Local\Temp\ccemRRQg.s:602    .text.pkcs12_key_gen:00000000000001a6 .L0 
C:\Users\stapi\AppData\Local\Temp\ccemRRQg.s:606    .text.pkcs12_key_gen:00000000000001aa .L0 
C:\Users\stapi\AppData\Local\Temp\ccemRRQg.s:607    .text.pkcs12_key_gen:00000000000001aa .L0 
C:\Users\stapi\AppData\Local\Temp\ccemRRQg.s:609    .text.pkcs12_key_gen:00000000000001ae .L0 
C:\Users\stapi\AppData\Local\Temp\ccemRRQg.s:610    .text.pkcs12_key_gen:00000000000001ae .L0 
C:\Users\stapi\AppData\Local\Temp\ccemRRQg.s:613    .text.pkcs12_key_gen:00000000000001b0 .L0 
C:\Users\stapi\AppData\Local\Temp\ccemRRQg.s:614    .text.pkcs12_key_gen:00000000000001b0 .L0 
C:\Users\stapi\AppData\Local\Temp\ccemRRQg.s:615    .text.pkcs12_key_gen:00000000000001b0 .L0 
C:\Users\stapi\AppData\Local\Temp\ccemRRQg.s:620    .text.pkcs12_key_gen:00000000000001b4 .L0 
C:\Users\stapi\AppData\Local\Temp\ccemRRQg.s:621    .text.pkcs12_key_gen:00000000000001b4 .L0 
C:\Users\stapi\AppData\Local\Temp\ccemRRQg.s:628    .text.pkcs12_key_gen:00000000000001ba .L0 
C:\Users\stapi\AppData\Local\Temp\ccemRRQg.s:630    .text.pkcs12_key_gen:00000000000001be .L0 
C:\Users\stapi\AppData\Local\Temp\ccemRRQg.s:767    .text.pkcs5_decrypt:0000000000000000 pkcs5_decrypt
C:\Users\stapi\AppData\Local\Temp\ccemRRQg.s:770    .text.pkcs5_decrypt:0000000000000000 .L0 
C:\Users\stapi\AppData\Local\Temp\ccemRRQg.s:772    .text.pkcs5_decrypt:0000000000000000 .L0 
C:\Users\stapi\AppData\Local\Temp\ccemRRQg.s:773    .text.pkcs5_decrypt:0000000000000008 .L0 
C:\Users\stapi\AppData\Local\Temp\ccemRRQg.s:774    .text.pkcs5_decrypt:0000000000000008 .L0 
C:\Users\stapi\AppData\Local\Temp\ccemRRQg.s:775    .text.pkcs5_decrypt:0000000000000008 .L0 
C:\Users\stapi\AppData\Local\Temp\ccemRRQg.s:776    .text.pkcs5_decrypt:0000000000000008 .L0 
C:\Users\stapi\AppData\Local\Temp\ccemRRQg.s:777    .text.pkcs5_decrypt:0000000000000008 .L0 
C:\Users\stapi\AppData\Local\Temp\ccemRRQg.s:778    .text.pkcs5_decrypt:0000000000000008 .L0 
C:\Users\stapi\AppData\Local\Temp\ccemRRQg.s:779    .text.pkcs5_decrypt:0000000000000008 .L0 
C:\Users\stapi\AppData\Local\Temp\ccemRRQg.s:780    .text.pkcs5_decrypt:0000000000000008 .L0 
C:\Users\stapi\AppData\Local\Temp\ccemRRQg.s:781    .text.pkcs5_decrypt:0000000000000008 .L0 
C:\Users\stapi\AppData\Local\Temp\ccemRRQg.s:782    .text.pkcs5_decrypt:0000000000000008 .L0 
C:\Users\stapi\AppData\Local\Temp\ccemRRQg.s:784    .text.pkcs5_decrypt:0000000000000008 .L0 
C:\Users\stapi\AppData\Local\Temp\ccemRRQg.s:785    .text.pkcs5_decrypt:0000000000000008 .L0 
C:\Users\stapi\AppData\Local\Temp\ccemRRQg.s:786    .text.pkcs5_decrypt:0000000000000008 .L0 
C:\Users\stapi\AppData\Local\Temp\ccemRRQg.s:787    .text.pkcs5_decrypt:0000000000000008 .L0 
C:\Users\stapi\AppData\Local\Temp\ccemRRQg.s:789    .text.pkcs5_decrypt:0000000000000008 .L0 
C:\Users\stapi\AppData\Local\Temp\ccemRRQg.s:790    .text.pkcs5_decrypt:0000000000000008 .L0 
C:\Users\stapi\AppData\Local\Temp\ccemRRQg.s:791    .text.pkcs5_decrypt:000000000000000a .L0 
C:\Users\stapi\AppData\Local\Temp\ccemRRQg.s:796    .text.pkcs5_decrypt:000000000000000a .L0 
C:\Users\stapi\AppData\Local\Temp\ccemRRQg.s:797    .text.pkcs5_decrypt:000000000000000a .L0 
C:\Users\stapi\AppData\Local\Temp\ccemRRQg.s:798    .text.pkcs5_decrypt:000000000000000a .L0 
C:\Users\stapi\AppData\Local\Temp\ccemRRQg.s:799    .text.pkcs5_decrypt:000000000000000a .L0 
C:\Users\stapi\AppData\Local\Temp\ccemRRQg.s:802    .text.pkcs5_decrypt:000000000000000a .L0 
C:\Users\stapi\AppData\Local\Temp\ccemRRQg.s:803    .text.pkcs5_decrypt:000000000000000a .L0 
C:\Users\stapi\AppData\Local\Temp\ccemRRQg.s:808    .text.pkcs5_decrypt:000000000000000e .L0 
C:\Users\stapi\AppData\Local\Temp\ccemRRQg.s:813    .text.pkcs5_decrypt:0000000000000012 .L0 
C:\Users\stapi\AppData\Local\Temp\ccemRRQg.s:814    .text.pkcs5_decrypt:0000000000000012 .L0 
C:\Users\stapi\AppData\Local\Temp\ccemRRQg.s:818    .text.pkcs5_decrypt:0000000000000014 .L0 
C:\Users\stapi\AppData\Local\Temp\ccemRRQg.s:827    .text.pkcs5_decrypt:000000000000001c .L0 
C:\Users\stapi\AppData\Local\Temp\ccemRRQg.s:833    .text.pkcs5_decrypt:0000000000000022 .L0 
C:\Users\stapi\AppData\Local\Temp\ccemRRQg.s:836    .text.pkcs5_decrypt:000000000000002a .L0 
C:\Users\stapi\AppData\Local\Temp\ccemRRQg.s:837    .text.pkcs5_decrypt:000000000000002a .L0 
C:\Users\stapi\AppData\Local\Temp\ccemRRQg.s:844    .text.pkcs5_decrypt:000000000000003a .L0 
C:\Users\stapi\AppData\Local\Temp\ccemRRQg.s:846    .text.pkcs5_decrypt:000000000000003c .L0 
C:\Users\stapi\AppData\Local\Temp\ccemRRQg.s:853    .text.pkcs5_decrypt:0000000000000044 .L0 
C:\Users\stapi\AppData\Local\Temp\ccemRRQg.s:862    .text.pkcs5_decrypt:000000000000004e .L0 
C:\Users\stapi\AppData\Local\Temp\ccemRRQg.s:863    .text.pkcs5_decrypt:000000000000004e .L0 
C:\Users\stapi\AppData\Local\Temp\ccemRRQg.s:868    .text.pkcs5_decrypt:0000000000000056 .L0 
C:\Users\stapi\AppData\Local\Temp\ccemRRQg.s:873    .text.pkcs5_decrypt:0000000000000060 .L0 
C:\Users\stapi\AppData\Local\Temp\ccemRRQg.s:874    .text.pkcs5_decrypt:0000000000000060 .L0 
C:\Users\stapi\AppData\Local\Temp\ccemRRQg.s:875    .text.pkcs5_decrypt:0000000000000060 .L0 
C:\Users\stapi\AppData\Local\Temp\ccemRRQg.s:882    .text.pkcs5_decrypt:0000000000000066 .L0 
C:\Users\stapi\AppData\Local\Temp\ccemRRQg.s:888    .text.pkcs5_decrypt:0000000000000076 .L0 
C:\Users\stapi\AppData\Local\Temp\ccemRRQg.s:897    .text.pkcs5_decrypt:000000000000008a .L0 
C:\Users\stapi\AppData\Local\Temp\ccemRRQg.s:898    .text.pkcs5_decrypt:000000000000008a .L0 
C:\Users\stapi\AppData\Local\Temp\ccemRRQg.s:899    .text.pkcs5_decrypt:000000000000008a .L0 
C:\Users\stapi\AppData\Local\Temp\ccemRRQg.s:905    .text.pkcs5_decrypt:0000000000000096 .L0 
C:\Users\stapi\AppData\Local\Temp\ccemRRQg.s:910    .text.pkcs5_decrypt:0000000000000098 .L0 
C:\Users\stapi\AppData\Local\Temp\ccemRRQg.s:911    .text.pkcs5_decrypt:0000000000000098 .L0 
C:\Users\stapi\AppData\Local\Temp\ccemRRQg.s:912    .text.pkcs5_decrypt:0000000000000098 .L0 
C:\Users\stapi\AppData\Local\Temp\ccemRRQg.s:916    .text.pkcs5_decrypt:00000000000000a2 .L0 
C:\Users\stapi\AppData\Local\Temp\ccemRRQg.s:921    .text.pkcs5_decrypt:00000000000000ac .L0 
C:\Users\stapi\AppData\Local\Temp\ccemRRQg.s:923    .text.pkcs5_decrypt:00000000000000ae .L0 
C:\Users\stapi\AppData\Local\Temp\ccemRRQg.s:927    .text.pkcs5_decrypt:00000000000000b6 .L0 
C:\Users\stapi\AppData\Local\Temp\ccemRRQg.s:931    .text.pkcs5_decrypt:00000000000000be .L0 
C:\Users\stapi\AppData\Local\Temp\ccemRRQg.s:934    .text.pkcs5_decrypt:00000000000000c4 .L0 
C:\Users\stapi\AppData\Local\Temp\ccemRRQg.s:944    .text.pkcs5_decrypt:00000000000000cc .L0 
C:\Users\stapi\AppData\Local\Temp\ccemRRQg.s:947    .text.pkcs5_decrypt:00000000000000d0 .L0 
C:\Users\stapi\AppData\Local\Temp\ccemRRQg.s:949    .text.pkcs5_decrypt:00000000000000d4 .L0 
C:\Users\stapi\AppData\Local\Temp\ccemRRQg.s:950    .text.pkcs5_decrypt:00000000000000d4 .L0 
C:\Users\stapi\AppData\Local\Temp\ccemRRQg.s:951    .text.pkcs5_decrypt:00000000000000d4 .L0 
C:\Users\stapi\AppData\Local\Temp\ccemRRQg.s:952    .text.pkcs5_decrypt:00000000000000d4 .L0 
C:\Users\stapi\AppData\Local\Temp\ccemRRQg.s:956    .text.pkcs5_decrypt:00000000000000e0 .L0 
C:\Users\stapi\AppData\Local\Temp\ccemRRQg.s:959    .text.pkcs5_decrypt:00000000000000e4 .L0 
C:\Users\stapi\AppData\Local\Temp\ccemRRQg.s:964    .text.pkcs5_decrypt:00000000000000ec .L0 
C:\Users\stapi\AppData\Local\Temp\ccemRRQg.s:971    .text.pkcs5_decrypt:00000000000000f0 .L0 
C:\Users\stapi\AppData\Local\Temp\ccemRRQg.s:972    .text.pkcs5_decrypt:00000000000000f0 .L0 
C:\Users\stapi\AppData\Local\Temp\ccemRRQg.s:978    .text.pkcs5_decrypt:00000000000000fc .L0 
C:\Users\stapi\AppData\Local\Temp\ccemRRQg.s:983    .text.pkcs5_decrypt:00000000000000fe .L0 
C:\Users\stapi\AppData\Local\Temp\ccemRRQg.s:984    .text.pkcs5_decrypt:00000000000000fe .L0 
C:\Users\stapi\AppData\Local\Temp\ccemRRQg.s:986    .text.pkcs5_decrypt:0000000000000100 .L0 
C:\Users\stapi\AppData\Local\Temp\ccemRRQg.s:990    .text.pkcs5_decrypt:0000000000000102 .L0 
C:\Users\stapi\AppData\Local\Temp\ccemRRQg.s:995    .text.pkcs5_decrypt:0000000000000108 .L0 
C:\Users\stapi\AppData\Local\Temp\ccemRRQg.s:997    .text.pkcs5_decrypt:000000000000010c .L0 
C:\Users\stapi\AppData\Local\Temp\ccemRRQg.s:998    .text.pkcs5_decrypt:000000000000010c .L0 
C:\Users\stapi\AppData\Local\Temp\ccemRRQg.s:1000   .text.pkcs5_decrypt:000000000000010c .L0 
C:\Users\stapi\AppData\Local\Temp\ccemRRQg.s:1005   .text.pkcs5_decrypt:000000000000010e .L0 
C:\Users\stapi\AppData\Local\Temp\ccemRRQg.s:1006   .text.pkcs5_decrypt:000000000000010e .L0 
C:\Users\stapi\AppData\Local\Temp\ccemRRQg.s:1007   .text.pkcs5_decrypt:000000000000010e .L0 
C:\Users\stapi\AppData\Local\Temp\ccemRRQg.s:1008   .text.pkcs5_decrypt:000000000000010e .L0 
C:\Users\stapi\AppData\Local\Temp\ccemRRQg.s:1009   .text.pkcs5_decrypt:000000000000010e .L0 
C:\Users\stapi\AppData\Local\Temp\ccemRRQg.s:1010   .text.pkcs5_decrypt:000000000000010e .L0 
C:\Users\stapi\AppData\Local\Temp\ccemRRQg.s:1013   .text.pkcs5_decrypt:0000000000000116 .L0 
C:\Users\stapi\AppData\Local\Temp\ccemRRQg.s:1016   .text.pkcs5_decrypt:000000000000011a .L0 
C:\Users\stapi\AppData\Local\Temp\ccemRRQg.s:1021   .text.pkcs5_decrypt:0000000000000122 .L0 
C:\Users\stapi\AppData\Local\Temp\ccemRRQg.s:1027   .text.pkcs5_decrypt:0000000000000124 .L0 
C:\Users\stapi\AppData\Local\Temp\ccemRRQg.s:1030   .text.pkcs5_decrypt:000000000000012c .L0 
C:\Users\stapi\AppData\Local\Temp\ccemRRQg.s:1034   .text.pkcs5_decrypt:000000000000012e .L0 
C:\Users\stapi\AppData\Local\Temp\ccemRRQg.s:1036   .text.pkcs5_decrypt:0000000000000132 .L0 
C:\Users\stapi\AppData\Local\Temp\ccemRRQg.s:1038   .text.pkcs5_decrypt:0000000000000136 .L0 
C:\Users\stapi\AppData\Local\Temp\ccemRRQg.s:1039   .text.pkcs5_decrypt:0000000000000136 .L0 
C:\Users\stapi\AppData\Local\Temp\ccemRRQg.s:1044   .text.pkcs5_decrypt:000000000000013c .L0 
C:\Users\stapi\AppData\Local\Temp\ccemRRQg.s:1049   .text.pkcs5_decrypt:0000000000000140 .L0 
C:\Users\stapi\AppData\Local\Temp\ccemRRQg.s:1056   .text.pkcs5_decrypt:0000000000000144 .L0 
C:\Users\stapi\AppData\Local\Temp\ccemRRQg.s:1060   .text.pkcs5_decrypt:000000000000014e .L0 
C:\Users\stapi\AppData\Local\Temp\ccemRRQg.s:1062   .text.pkcs5_decrypt:0000000000000150 .L0 
C:\Users\stapi\AppData\Local\Temp\ccemRRQg.s:1063   .text.pkcs5_decrypt:0000000000000150 .L0 
C:\Users\stapi\AppData\Local\Temp\ccemRRQg.s:1065   .text.pkcs5_decrypt:0000000000000152 .L0 
C:\Users\stapi\AppData\Local\Temp\ccemRRQg.s:1068   .text.pkcs5_decrypt:0000000000000156 .L0 
C:\Users\stapi\AppData\Local\Temp\ccemRRQg.s:1071   .text.pkcs5_decrypt:0000000000000158 .L0 
C:\Users\stapi\AppData\Local\Temp\ccemRRQg.s:1072   .text.pkcs5_decrypt:0000000000000158 .L0 
C:\Users\stapi\AppData\Local\Temp\ccemRRQg.s:1073   .text.pkcs5_decrypt:0000000000000158 .L0 
C:\Users\stapi\AppData\Local\Temp\ccemRRQg.s:1076   .text.pkcs5_decrypt:0000000000000160 .L0 
C:\Users\stapi\AppData\Local\Temp\ccemRRQg.s:1078   .text.pkcs5_decrypt:0000000000000164 .L0 
C:\Users\stapi\AppData\Local\Temp\ccemRRQg.s:1082   .text.pkcs5_decrypt:000000000000016e .L0 
C:\Users\stapi\AppData\Local\Temp\ccemRRQg.s:1085   .text.pkcs5_decrypt:0000000000000170 .L0 
C:\Users\stapi\AppData\Local\Temp\ccemRRQg.s:1090   .text.pkcs5_decrypt:000000000000017a .L0 
C:\Users\stapi\AppData\Local\Temp\ccemRRQg.s:1091   .text.pkcs5_decrypt:000000000000017a .L0 
C:\Users\stapi\AppData\Local\Temp\ccemRRQg.s:1093   .text.pkcs5_decrypt:000000000000017c .L0 
C:\Users\stapi\AppData\Local\Temp\ccemRRQg.s:1095   .text.pkcs5_decrypt:000000000000017e .L0 
C:\Users\stapi\AppData\Local\Temp\ccemRRQg.s:1098   .text.pkcs5_decrypt:0000000000000182 .L0 
C:\Users\stapi\AppData\Local\Temp\ccemRRQg.s:1100   .text.pkcs5_decrypt:0000000000000184 .L0 
C:\Users\stapi\AppData\Local\Temp\ccemRRQg.s:1101   .text.pkcs5_decrypt:0000000000000184 .L0 
C:\Users\stapi\AppData\Local\Temp\ccemRRQg.s:1104   .text.pkcs5_decrypt:0000000000000188 .L0 
C:\Users\stapi\AppData\Local\Temp\ccemRRQg.s:1105   .text.pkcs5_decrypt:0000000000000188 .L0 
C:\Users\stapi\AppData\Local\Temp\ccemRRQg.s:1108   .text.pkcs5_decrypt:0000000000000190 .L0 
C:\Users\stapi\AppData\Local\Temp\ccemRRQg.s:1110   .text.pkcs5_decrypt:0000000000000192 .L0 
C:\Users\stapi\AppData\Local\Temp\ccemRRQg.s:1115   .text.pkcs5_decrypt:000000000000019c .L0 
C:\Users\stapi\AppData\Local\Temp\ccemRRQg.s:1121   .text.pkcs5_decrypt:00000000000001ac .L0 
C:\Users\stapi\AppData\Local\Temp\ccemRRQg.s:1128   .text.pkcs5_decrypt:00000000000001c0 .L0 
C:\Users\stapi\AppData\Local\Temp\ccemRRQg.s:1129   .text.pkcs5_decrypt:00000000000001c0 .L0 
C:\Users\stapi\AppData\Local\Temp\ccemRRQg.s:1134   .text.pkcs5_decrypt:00000000000001cc .L0 
C:\Users\stapi\AppData\Local\Temp\ccemRRQg.s:1136   .text.pkcs5_decrypt:00000000000001ce .L0 
C:\Users\stapi\AppData\Local\Temp\ccemRRQg.s:1142   .text.pkcs5_decrypt:00000000000001d8 .L0 
C:\Users\stapi\AppData\Local\Temp\ccemRRQg.s:1148   .text.pkcs5_decrypt:00000000000001da .L0 
C:\Users\stapi\AppData\Local\Temp\ccemRRQg.s:1151   .text.pkcs5_decrypt:00000000000001e2 .L0 
C:\Users\stapi\AppData\Local\Temp\ccemRRQg.s:1157   .text.pkcs5_decrypt:00000000000001e4 .L0 
C:\Users\stapi\AppData\Local\Temp\ccemRRQg.s:1158   .text.pkcs5_decrypt:00000000000001e4 .L0 
C:\Users\stapi\AppData\Local\Temp\ccemRRQg.s:1164   .text.pkcs5_decrypt:00000000000001f4 .L0 
C:\Users\stapi\AppData\Local\Temp\ccemRRQg.s:1166   .text.pkcs5_decrypt:00000000000001f8 .L0 
C:\Users\stapi\AppData\Local\Temp\ccemRRQg.s:1170   .text.pkcs5_decrypt:0000000000000202 .L0 
C:\Users\stapi\AppData\Local\Temp\ccemRRQg.s:1173   .text.pkcs5_decrypt:0000000000000204 .L0 
C:\Users\stapi\AppData\Local\Temp\ccemRRQg.s:1178   .text.pkcs5_decrypt:000000000000020e .L0 
C:\Users\stapi\AppData\Local\Temp\ccemRRQg.s:1179   .text.pkcs5_decrypt:000000000000020e .L0 
C:\Users\stapi\AppData\Local\Temp\ccemRRQg.s:1181   .text.pkcs5_decrypt:0000000000000210 .L0 
C:\Users\stapi\AppData\Local\Temp\ccemRRQg.s:1183   .text.pkcs5_decrypt:0000000000000212 .L0 
C:\Users\stapi\AppData\Local\Temp\ccemRRQg.s:1185   .text.pkcs5_decrypt:0000000000000214 .L0 
C:\Users\stapi\AppData\Local\Temp\ccemRRQg.s:1187   .text.pkcs5_decrypt:0000000000000216 .L0 
C:\Users\stapi\AppData\Local\Temp\ccemRRQg.s:1188   .text.pkcs5_decrypt:0000000000000216 .L0 
C:\Users\stapi\AppData\Local\Temp\ccemRRQg.s:1191   .text.pkcs5_decrypt:000000000000021a .L0 
C:\Users\stapi\AppData\Local\Temp\ccemRRQg.s:1192   .text.pkcs5_decrypt:000000000000021a .L0 
C:\Users\stapi\AppData\Local\Temp\ccemRRQg.s:1195   .text.pkcs5_decrypt:0000000000000222 .L0 
C:\Users\stapi\AppData\Local\Temp\ccemRRQg.s:1200   .text.pkcs5_decrypt:0000000000000226 .L0 
C:\Users\stapi\AppData\Local\Temp\ccemRRQg.s:1201   .text.pkcs5_decrypt:0000000000000226 .L0 
C:\Users\stapi\AppData\Local\Temp\ccemRRQg.s:1211   .text.pkcs5_decrypt:0000000000000234 .L0 
C:\Users\stapi\AppData\Local\Temp\ccemRRQg.s:1213   .text.pkcs5_decrypt:0000000000000236 .L0 
C:\Users\stapi\AppData\Local\Temp\ccemRRQg.s:1217   .text.pkcs5_decrypt:000000000000023e .L0 
C:\Users\stapi\AppData\Local\Temp\ccemRRQg.s:1222   .text.pkcs5_decrypt:0000000000000248 .L0 
C:\Users\stapi\AppData\Local\Temp\ccemRRQg.s:1223   .text.pkcs5_decrypt:0000000000000248 .L0 
C:\Users\stapi\AppData\Local\Temp\ccemRRQg.s:1225   .text.pkcs5_decrypt:000000000000024a .L0 
C:\Users\stapi\AppData\Local\Temp\ccemRRQg.s:1227   .text.pkcs5_decrypt:000000000000024c .L0 
C:\Users\stapi\AppData\Local\Temp\ccemRRQg.s:1229   .text.pkcs5_decrypt:0000000000000250 .L0 
C:\Users\stapi\AppData\Local\Temp\ccemRRQg.s:1231   .text.pkcs5_decrypt:0000000000000252 .L0 
C:\Users\stapi\AppData\Local\Temp\ccemRRQg.s:1234   .text.pkcs5_decrypt:000000000000025a .L0 
C:\Users\stapi\AppData\Local\Temp\ccemRRQg.s:1235   .text.pkcs5_decrypt:000000000000025a .L0 
C:\Users\stapi\AppData\Local\Temp\ccemRRQg.s:1237   .text.pkcs5_decrypt:000000000000025c .L0 
C:\Users\stapi\AppData\Local\Temp\ccemRRQg.s:1242   .text.pkcs5_decrypt:0000000000000268 .L0 
C:\Users\stapi\AppData\Local\Temp\ccemRRQg.s:1244   .text.pkcs5_decrypt:000000000000026c .L0 
C:\Users\stapi\AppData\Local\Temp\ccemRRQg.s:1247   .text.pkcs5_decrypt:0000000000000274 .L0 
C:\Users\stapi\AppData\Local\Temp\ccemRRQg.s:1248   .text.pkcs5_decrypt:0000000000000274 .L0 
C:\Users\stapi\AppData\Local\Temp\ccemRRQg.s:1254   .text.pkcs5_decrypt:0000000000000284 .L0 
C:\Users\stapi\AppData\Local\Temp\ccemRRQg.s:1259   .text.pkcs5_decrypt:0000000000000288 .L0 
C:\Users\stapi\AppData\Local\Temp\ccemRRQg.s:1260   .text.pkcs5_decrypt:0000000000000288 .L0 
C:\Users\stapi\AppData\Local\Temp\ccemRRQg.s:1269   .text.pkcs5_decrypt:0000000000000296 .L0 
C:\Users\stapi\AppData\Local\Temp\ccemRRQg.s:1270   .text.pkcs5_decrypt:0000000000000296 .L0 
C:\Users\stapi\AppData\Local\Temp\ccemRRQg.s:1272   .text.pkcs5_decrypt:0000000000000298 .L0 
C:\Users\stapi\AppData\Local\Temp\ccemRRQg.s:1274   .text.pkcs5_decrypt:000000000000029a .L0 
C:\Users\stapi\AppData\Local\Temp\ccemRRQg.s:1276   .text.pkcs5_decrypt:000000000000029c .L0 
C:\Users\stapi\AppData\Local\Temp\ccemRRQg.s:1278   .text.pkcs5_decrypt:00000000000002a0 .L0 
C:\Users\stapi\AppData\Local\Temp\ccemRRQg.s:1279   .text.pkcs5_decrypt:00000000000002a0 .L0 
C:\Users\stapi\AppData\Local\Temp\ccemRRQg.s:1282   .text.pkcs5_decrypt:00000000000002a4 .L0 
C:\Users\stapi\AppData\Local\Temp\ccemRRQg.s:1284   .text.pkcs5_decrypt:00000000000002a8 .L0 
C:\Users\stapi\AppData\Local\Temp\ccemRRQg.s:1291   .text.pkcs5_decrypt:00000000000002be .L0 
C:\Users\stapi\AppData\Local\Temp\ccemRRQg.s:1292   .text.pkcs5_decrypt:00000000000002be .L0 
C:\Users\stapi\AppData\Local\Temp\ccemRRQg.s:1294   .text.pkcs5_decrypt:00000000000002c2 .L0 
C:\Users\stapi\AppData\Local\Temp\ccemRRQg.s:1297   .text.pkcs5_decrypt:00000000000002c6 .L0 
C:\Users\stapi\AppData\Local\Temp\ccemRRQg.s:1299   .text.pkcs5_decrypt:00000000000002ca .L0 
C:\Users\stapi\AppData\Local\Temp\ccemRRQg.s:1305   .text.pkcs5_decrypt:00000000000002ce .L0 
C:\Users\stapi\AppData\Local\Temp\ccemRRQg.s:1313   .text.pkcs5_decrypt:00000000000002d8 .L0 
C:\Users\stapi\AppData\Local\Temp\ccemRRQg.s:1318   .text.pkcs5_decrypt:00000000000002e2 .L0 
C:\Users\stapi\AppData\Local\Temp\ccemRRQg.s:1319   .text.pkcs5_decrypt:00000000000002e2 .L0 
C:\Users\stapi\AppData\Local\Temp\ccemRRQg.s:1327   .text.pkcs5_decrypt:00000000000002e6 .L0 
C:\Users\stapi\AppData\Local\Temp\ccemRRQg.s:1332   .text.pkcs5_decrypt:00000000000002e6 .L0 
C:\Users\stapi\AppData\Local\Temp\ccemRRQg.s:1333   .text.pkcs5_decrypt:00000000000002e6 .L0 
C:\Users\stapi\AppData\Local\Temp\ccemRRQg.s:1344   .text.pkcs5_decrypt:0000000000000300 .L0 
C:\Users\stapi\AppData\Local\Temp\ccemRRQg.s:1345   .text.pkcs5_decrypt:0000000000000300 .L0 
C:\Users\stapi\AppData\Local\Temp\ccemRRQg.s:1352   .text.pkcs5_decrypt:0000000000000304 .L0 
C:\Users\stapi\AppData\Local\Temp\ccemRRQg.s:1353   .text.pkcs5_decrypt:0000000000000304 .L0 
C:\Users\stapi\AppData\Local\Temp\ccemRRQg.s:1372   .text.pkcs5_decrypt:0000000000000326 .L0 
C:\Users\stapi\AppData\Local\Temp\ccemRRQg.s:1379   .text.pkcs5_decrypt:000000000000032e .L0 
C:\Users\stapi\AppData\Local\Temp\ccemRRQg.s:1383   .text.pkcs5_decrypt:0000000000000338 .L0 
C:\Users\stapi\AppData\Local\Temp\ccemRRQg.s:1389   .text.pkcs5_decrypt:000000000000033a .L0 
C:\Users\stapi\AppData\Local\Temp\ccemRRQg.s:1390   .text.pkcs5_decrypt:000000000000033a .L0 
C:\Users\stapi\AppData\Local\Temp\ccemRRQg.s:1394   .text.pkcs5_decrypt:0000000000000340 .L0 
C:\Users\stapi\AppData\Local\Temp\ccemRRQg.s:1396   .text.pkcs5_decrypt:0000000000000342 .L0 
C:\Users\stapi\AppData\Local\Temp\ccemRRQg.s:1397   .text.pkcs5_decrypt:0000000000000342 .L0 
C:\Users\stapi\AppData\Local\Temp\ccemRRQg.s:1399   .text.pkcs5_decrypt:0000000000000346 .L0 
C:\Users\stapi\AppData\Local\Temp\ccemRRQg.s:1400   .text.pkcs5_decrypt:0000000000000346 .L0 
C:\Users\stapi\AppData\Local\Temp\ccemRRQg.s:1405   .text.pkcs5_decrypt:0000000000000354 .L0 
C:\Users\stapi\AppData\Local\Temp\ccemRRQg.s:1407   .text.pkcs5_decrypt:0000000000000358 .L0 
C:\Users\stapi\AppData\Local\Temp\ccemRRQg.s:1411   .text.pkcs5_decrypt:0000000000000362 .L0 
C:\Users\stapi\AppData\Local\Temp\ccemRRQg.s:1414   .text.pkcs5_decrypt:0000000000000364 .L0 
C:\Users\stapi\AppData\Local\Temp\ccemRRQg.s:1419   .text.pkcs5_decrypt:000000000000036e .L0 
C:\Users\stapi\AppData\Local\Temp\ccemRRQg.s:1420   .text.pkcs5_decrypt:000000000000036e .L0 
C:\Users\stapi\AppData\Local\Temp\ccemRRQg.s:1422   .text.pkcs5_decrypt:0000000000000370 .L0 
C:\Users\stapi\AppData\Local\Temp\ccemRRQg.s:1426   .text.pkcs5_decrypt:0000000000000376 .L0 
C:\Users\stapi\AppData\Local\Temp\ccemRRQg.s:1429   .text.pkcs5_decrypt:0000000000000378 .L0 
C:\Users\stapi\AppData\Local\Temp\ccemRRQg.s:1430   .text.pkcs5_decrypt:0000000000000378 .L0 
C:\Users\stapi\AppData\Local\Temp\ccemRRQg.s:1431   .text.pkcs5_decrypt:0000000000000378 .L0 
C:\Users\stapi\AppData\Local\Temp\ccemRRQg.s:1434   .text.pkcs5_decrypt:0000000000000380 .L0 
C:\Users\stapi\AppData\Local\Temp\ccemRRQg.s:1436   .text.pkcs5_decrypt:0000000000000382 .L0 
C:\Users\stapi\AppData\Local\Temp\ccemRRQg.s:1441   .text.pkcs5_decrypt:000000000000038c .L0 
C:\Users\stapi\AppData\Local\Temp\ccemRRQg.s:1447   .text.pkcs5_decrypt:000000000000039c .L0 
C:\Users\stapi\AppData\Local\Temp\ccemRRQg.s:1454   .text.pkcs5_decrypt:00000000000003b0 .L0 
C:\Users\stapi\AppData\Local\Temp\ccemRRQg.s:1455   .text.pkcs5_decrypt:00000000000003b0 .L0 
C:\Users\stapi\AppData\Local\Temp\ccemRRQg.s:1460   .text.pkcs5_decrypt:00000000000003bc .L0 
C:\Users\stapi\AppData\Local\Temp\ccemRRQg.s:1462   .text.pkcs5_decrypt:00000000000003be .L0 
C:\Users\stapi\AppData\Local\Temp\ccemRRQg.s:1464   .text.pkcs5_decrypt:00000000000003c0 .L0 
C:\Users\stapi\AppData\Local\Temp\ccemRRQg.s:1465   .text.pkcs5_decrypt:00000000000003c0 .L0 
C:\Users\stapi\AppData\Local\Temp\ccemRRQg.s:1470   .text.pkcs5_decrypt:00000000000003cc .L0 
C:\Users\stapi\AppData\Local\Temp\ccemRRQg.s:1472   .text.pkcs5_decrypt:00000000000003ce .L0 
C:\Users\stapi\AppData\Local\Temp\ccemRRQg.s:1474   .text.pkcs5_decrypt:00000000000003d0 .L0 
C:\Users\stapi\AppData\Local\Temp\ccemRRQg.s:1475   .text.pkcs5_decrypt:00000000000003d0 .L0 
C:\Users\stapi\AppData\Local\Temp\ccemRRQg.s:1480   .text.pkcs5_decrypt:00000000000003dc .L0 
C:\Users\stapi\AppData\Local\Temp\ccemRRQg.s:1482   .text.pkcs5_decrypt:00000000000003de .L0 
C:\Users\stapi\AppData\Local\Temp\ccemRRQg.s:1484   .text.pkcs5_decrypt:00000000000003e0 .L0 
C:\Users\stapi\AppData\Local\Temp\ccemRRQg.s:1485   .text.pkcs5_decrypt:00000000000003e0 .L0 
C:\Users\stapi\AppData\Local\Temp\ccemRRQg.s:1490   .text.pkcs5_decrypt:00000000000003ec .L0 
C:\Users\stapi\AppData\Local\Temp\ccemRRQg.s:1492   .text.pkcs5_decrypt:00000000000003ee .L0 
C:\Users\stapi\AppData\Local\Temp\ccemRRQg.s:1494   .text.pkcs5_decrypt:00000000000003f0 .L0 
C:\Users\stapi\AppData\Local\Temp\ccemRRQg.s:1495   .text.pkcs5_decrypt:00000000000003f0 .L0 
C:\Users\stapi\AppData\Local\Temp\ccemRRQg.s:1500   .text.pkcs5_decrypt:00000000000003fc .L0 
C:\Users\stapi\AppData\Local\Temp\ccemRRQg.s:1502   .text.pkcs5_decrypt:00000000000003fe .L0 
C:\Users\stapi\AppData\Local\Temp\ccemRRQg.s:1504   .text.pkcs5_decrypt:0000000000000400 .L0 
C:\Users\stapi\AppData\Local\Temp\ccemRRQg.s:1505   .text.pkcs5_decrypt:0000000000000400 .L0 
C:\Users\stapi\AppData\Local\Temp\ccemRRQg.s:1510   .text.pkcs5_decrypt:000000000000040c .L0 
C:\Users\stapi\AppData\Local\Temp\ccemRRQg.s:1512   .text.pkcs5_decrypt:000000000000040e .L0 
C:\Users\stapi\AppData\Local\Temp\ccemRRQg.s:1513   .text.pkcs5_decrypt:000000000000040e .L0 
C:\Users\stapi\AppData\Local\Temp\ccemRRQg.s:1518   .text.pkcs5_decrypt:0000000000000414 .L0 
C:\Users\stapi\AppData\Local\Temp\ccemRRQg.s:1519   .text.pkcs5_decrypt:0000000000000414 .L0 
C:\Users\stapi\AppData\Local\Temp\ccemRRQg.s:1523   .text.pkcs5_decrypt:000000000000041c .L0 
C:\Users\stapi\AppData\Local\Temp\ccemRRQg.s:1525   .text.pkcs5_decrypt:000000000000041e .L0 
C:\Users\stapi\AppData\Local\Temp\ccemRRQg.s:1526   .text.pkcs5_decrypt:000000000000041e .L0 
C:\Users\stapi\AppData\Local\Temp\ccemRRQg.s:1529   .text.pkcs5_decrypt:0000000000000426 .L0 
C:\Users\stapi\AppData\Local\Temp\ccemRRQg.s:1531   .text.pkcs5_decrypt:000000000000042a .L0 
C:\Users\stapi\AppData\Local\Temp\ccemRRQg.s:1535   .text.pkcs5_decrypt:0000000000000434 .L0 
C:\Users\stapi\AppData\Local\Temp\ccemRRQg.s:1538   .text.pkcs5_decrypt:0000000000000436 .L0 
C:\Users\stapi\AppData\Local\Temp\ccemRRQg.s:1543   .text.pkcs5_decrypt:0000000000000440 .L0 
C:\Users\stapi\AppData\Local\Temp\ccemRRQg.s:1549   .text.pkcs5_decrypt:000000000000044c .L0 
C:\Users\stapi\AppData\Local\Temp\ccemRRQg.s:1550   .text.pkcs5_decrypt:000000000000044c .L0 
C:\Users\stapi\AppData\Local\Temp\ccemRRQg.s:1552   .text.pkcs5_decrypt:000000000000044e .L0 
C:\Users\stapi\AppData\Local\Temp\ccemRRQg.s:1554   .text.pkcs5_decrypt:0000000000000450 .L0 
C:\Users\stapi\AppData\Local\Temp\ccemRRQg.s:1557   .text.pkcs5_decrypt:0000000000000454 .L0 
C:\Users\stapi\AppData\Local\Temp\ccemRRQg.s:1559   .text.pkcs5_decrypt:0000000000000456 .L0 
C:\Users\stapi\AppData\Local\Temp\ccemRRQg.s:1560   .text.pkcs5_decrypt:0000000000000456 .L0 
C:\Users\stapi\AppData\Local\Temp\ccemRRQg.s:1563   .text.pkcs5_decrypt:000000000000045a .L0 
C:\Users\stapi\AppData\Local\Temp\ccemRRQg.s:1564   .text.pkcs5_decrypt:000000000000045a .L0 
C:\Users\stapi\AppData\Local\Temp\ccemRRQg.s:1567   .text.pkcs5_decrypt:0000000000000462 .L0 
C:\Users\stapi\AppData\Local\Temp\ccemRRQg.s:1569   .text.pkcs5_decrypt:0000000000000464 .L0 
C:\Users\stapi\AppData\Local\Temp\ccemRRQg.s:1574   .text.pkcs5_decrypt:000000000000046e .L0 
C:\Users\stapi\AppData\Local\Temp\ccemRRQg.s:1580   .text.pkcs5_decrypt:000000000000047e .L0 
C:\Users\stapi\AppData\Local\Temp\ccemRRQg.s:1589   .text.pkcs5_decrypt:0000000000000492 .L0 
C:\Users\stapi\AppData\Local\Temp\ccemRRQg.s:1590   .text.pkcs5_decrypt:0000000000000492 .L0 
C:\Users\stapi\AppData\Local\Temp\ccemRRQg.s:1591   .text.pkcs5_decrypt:0000000000000492 .L0 
C:\Users\stapi\AppData\Local\Temp\ccemRRQg.s:1595   .text.pkcs5_decrypt:000000000000049c .L0 
C:\Users\stapi\AppData\Local\Temp\ccemRRQg.s:1600   .text.pkcs5_decrypt:00000000000004a6 .L0 
C:\Users\stapi\AppData\Local\Temp\ccemRRQg.s:1602   .text.pkcs5_decrypt:00000000000004a8 .L0 
C:\Users\stapi\AppData\Local\Temp\ccemRRQg.s:1606   .text.pkcs5_decrypt:00000000000004b2 .L0 
C:\Users\stapi\AppData\Local\Temp\ccemRRQg.s:1613   .text.pkcs5_decrypt:00000000000004bc .L0 
C:\Users\stapi\AppData\Local\Temp\ccemRRQg.s:1614   .text.pkcs5_decrypt:00000000000004bc .L0 
C:\Users\stapi\AppData\Local\Temp\ccemRRQg.s:1616   .text.pkcs5_decrypt:00000000000004be .L0 
C:\Users\stapi\AppData\Local\Temp\ccemRRQg.s:1618   .text.pkcs5_decrypt:00000000000004c0 .L0 
C:\Users\stapi\AppData\Local\Temp\ccemRRQg.s:1621   .text.pkcs5_decrypt:00000000000004c6 .L0 
C:\Users\stapi\AppData\Local\Temp\ccemRRQg.s:1623   .text.pkcs5_decrypt:00000000000004ca .L0 
C:\Users\stapi\AppData\Local\Temp\ccemRRQg.s:1624   .text.pkcs5_decrypt:00000000000004ca .L0 
C:\Users\stapi\AppData\Local\Temp\ccemRRQg.s:1627   .text.pkcs5_decrypt:00000000000004d2 .L0 
C:\Users\stapi\AppData\Local\Temp\ccemRRQg.s:1630   .text.pkcs5_decrypt:00000000000004d6 .L0 
C:\Users\stapi\AppData\Local\Temp\ccemRRQg.s:1636   .text.pkcs5_decrypt:00000000000004e0 .L0 
C:\Users\stapi\AppData\Local\Temp\ccemRRQg.s:1645   .text.pkcs5_decrypt:00000000000004ec .L0 
C:\Users\stapi\AppData\Local\Temp\ccemRRQg.s:1646   .text.pkcs5_decrypt:00000000000004ec .L0 
C:\Users\stapi\AppData\Local\Temp\ccemRRQg.s:1655   .text.pkcs5_decrypt:00000000000004fa .L0 
C:\Users\stapi\AppData\Local\Temp\ccemRRQg.s:1659   .text.pkcs5_decrypt:0000000000000502 .L0 
C:\Users\stapi\AppData\Local\Temp\ccemRRQg.s:1665   .text.pkcs5_decrypt:0000000000000510 .L0 
C:\Users\stapi\AppData\Local\Temp\ccemRRQg.s:1666   .text.pkcs5_decrypt:0000000000000510 .L0 
C:\Users\stapi\AppData\Local\Temp\ccemRRQg.s:1668   .text.pkcs5_decrypt:0000000000000512 .L0 
C:\Users\stapi\AppData\Local\Temp\ccemRRQg.s:1673   .text.pkcs5_decrypt:000000000000051e .L0 
C:\Users\stapi\AppData\Local\Temp\ccemRRQg.s:1675   .text.pkcs5_decrypt:0000000000000522 .L0 
C:\Users\stapi\AppData\Local\Temp\ccemRRQg.s:1683   .text.pkcs5_decrypt:000000000000052a .L0 
C:\Users\stapi\AppData\Local\Temp\ccemRRQg.s:1686   .text.pkcs5_decrypt:000000000000052a .L0 
C:\Users\stapi\AppData\Local\Temp\ccemRRQg.s:1687   .text.pkcs5_decrypt:000000000000052a .L0 
C:\Users\stapi\AppData\Local\Temp\ccemRRQg.s:1688   .text.pkcs5_decrypt:000000000000052a .L0 
C:\Users\stapi\AppData\Local\Temp\ccemRRQg.s:1689   .text.pkcs5_decrypt:000000000000052a .L0 
C:\Users\stapi\AppData\Local\Temp\ccemRRQg.s:1690   .text.pkcs5_decrypt:000000000000052a .L0 
C:\Users\stapi\AppData\Local\Temp\ccemRRQg.s:1691   .text.pkcs5_decrypt:000000000000052a .L0 
C:\Users\stapi\AppData\Local\Temp\ccemRRQg.s:1692   .text.pkcs5_decrypt:000000000000052a .L0 
C:\Users\stapi\AppData\Local\Temp\ccemRRQg.s:1694   .text.pkcs5_decrypt:000000000000052e .L0 
C:\Users\stapi\AppData\Local\Temp\ccemRRQg.s:1700   .text.pkcs5_decrypt:0000000000000534 .L0 
C:\Users\stapi\AppData\Local\Temp\ccemRRQg.s:1701   .text.pkcs5_decrypt:0000000000000534 .L0 
C:\Users\stapi\AppData\Local\Temp\ccemRRQg.s:1702   .text.pkcs5_decrypt:0000000000000534 .L0 
C:\Users\stapi\AppData\Local\Temp\ccemRRQg.s:1703   .text.pkcs5_decrypt:0000000000000534 .L0 
C:\Users\stapi\AppData\Local\Temp\ccemRRQg.s:1707   .text.pkcs5_decrypt:000000000000053e .L0 
C:\Users\stapi\AppData\Local\Temp\ccemRRQg.s:1711   .text.pkcs5_decrypt:0000000000000548 .L0 
C:\Users\stapi\AppData\Local\Temp\ccemRRQg.s:1722   .text.pkcs5_decrypt:0000000000000568 .L0 
C:\Users\stapi\AppData\Local\Temp\ccemRRQg.s:1730   .text.pkcs5_decrypt:0000000000000580 .L0 
C:\Users\stapi\AppData\Local\Temp\ccemRRQg.s:1737   .text.pkcs5_decrypt:0000000000000596 .L0 
C:\Users\stapi\AppData\Local\Temp\ccemRRQg.s:1738   .text.pkcs5_decrypt:0000000000000596 .L0 
C:\Users\stapi\AppData\Local\Temp\ccemRRQg.s:1739   .text.pkcs5_decrypt:0000000000000596 .L0 
C:\Users\stapi\AppData\Local\Temp\ccemRRQg.s:1740   .text.pkcs5_decrypt:0000000000000596 .L0 
C:\Users\stapi\AppData\Local\Temp\ccemRRQg.s:1741   .text.pkcs5_decrypt:0000000000000596 .L0 
C:\Users\stapi\AppData\Local\Temp\ccemRRQg.s:1750   .text.pkcs5_decrypt:00000000000005aa .L0 
C:\Users\stapi\AppData\Local\Temp\ccemRRQg.s:1754   .text.pkcs5_decrypt:00000000000005b4 .L0 
C:\Users\stapi\AppData\Local\Temp\ccemRRQg.s:1755   .text.pkcs5_decrypt:00000000000005b4 .L0 
C:\Users\stapi\AppData\Local\Temp\ccemRRQg.s:1761   .text.pkcs5_decrypt:00000000000005c0 .L0 
C:\Users\stapi\AppData\Local\Temp\ccemRRQg.s:1762   .text.pkcs5_decrypt:00000000000005c0 .L0 
C:\Users\stapi\AppData\Local\Temp\ccemRRQg.s:1764   .text.pkcs5_decrypt:00000000000005c4 .L0 
C:\Users\stapi\AppData\Local\Temp\ccemRRQg.s:1765   .text.pkcs5_decrypt:00000000000005c4 .L0 
C:\Users\stapi\AppData\Local\Temp\ccemRRQg.s:1771   .text.pkcs5_decrypt:00000000000005d0 .L0 
C:\Users\stapi\AppData\Local\Temp\ccemRRQg.s:1773   .text.pkcs5_decrypt:00000000000005d4 .L0 
C:\Users\stapi\AppData\Local\Temp\ccemRRQg.s:1774   .text.pkcs5_decrypt:00000000000005d4 .L0 
C:\Users\stapi\AppData\Local\Temp\ccemRRQg.s:1788   .text.pkcs5_decrypt:00000000000005fc .L0 
C:\Users\stapi\AppData\Local\Temp\ccemRRQg.s:1790   .text.pkcs5_decrypt:0000000000000600 .L0 
C:\Users\stapi\AppData\Local\Temp\ccemRRQg.s:1798   .text.pkcs5_decrypt:0000000000000616 .L0 
C:\Users\stapi\AppData\Local\Temp\ccemRRQg.s:1806   .text.pkcs5_decrypt:000000000000062e .L0 
C:\Users\stapi\AppData\Local\Temp\ccemRRQg.s:1807   .text.pkcs5_decrypt:000000000000062e .L0 
C:\Users\stapi\AppData\Local\Temp\ccemRRQg.s:1817   .text.pkcs5_decrypt:0000000000000634 .L0 
C:\Users\stapi\AppData\Local\Temp\ccemRRQg.s:1823   .text.pkcs5_decrypt:0000000000000636 .L0 
C:\Users\stapi\AppData\Local\Temp\ccemRRQg.s:1830   .text.pkcs5_decrypt:0000000000000640 .L0 
C:\Users\stapi\AppData\Local\Temp\ccemRRQg.s:1831   .text.pkcs5_decrypt:0000000000000640 .L0 
C:\Users\stapi\AppData\Local\Temp\ccemRRQg.s:1833   .text.pkcs5_decrypt:0000000000000644 .L0 
C:\Users\stapi\AppData\Local\Temp\ccemRRQg.s:1834   .text.pkcs5_decrypt:0000000000000644 .L0 
C:\Users\stapi\AppData\Local\Temp\ccemRRQg.s:1837   .text.pkcs5_decrypt:000000000000064a .L0 
C:\Users\stapi\AppData\Local\Temp\ccemRRQg.s:1839   .text.pkcs5_decrypt:000000000000064e .L0 
C:\Users\stapi\AppData\Local\Temp\ccemRRQg.s:1842   .text.pkcs5_decrypt:0000000000000652 .L0 
C:\Users\stapi\AppData\Local\Temp\ccemRRQg.s:1849   .text.pkcs5_decrypt:0000000000000666 .L0 
C:\Users\stapi\AppData\Local\Temp\ccemRRQg.s:1853   .text.pkcs5_decrypt:0000000000000670 .L0 
C:\Users\stapi\AppData\Local\Temp\ccemRRQg.s:1859   .text.pkcs5_decrypt:0000000000000672 .L0 
C:\Users\stapi\AppData\Local\Temp\ccemRRQg.s:1863   .text.pkcs5_decrypt:000000000000067c .L0 
C:\Users\stapi\AppData\Local\Temp\ccemRRQg.s:1865   .text.pkcs5_decrypt:0000000000000680 .L0 
C:\Users\stapi\AppData\Local\Temp\ccemRRQg.s:1866   .text.pkcs5_decrypt:0000000000000680 .L0 
C:\Users\stapi\AppData\Local\Temp\ccemRRQg.s:1868   .text.pkcs5_decrypt:0000000000000684 .L0 
C:\Users\stapi\AppData\Local\Temp\ccemRRQg.s:1870   .text.pkcs5_decrypt:0000000000000688 .L0 
C:\Users\stapi\AppData\Local\Temp\ccemRRQg.s:1872   .text.pkcs5_decrypt:000000000000068a .L0 
C:\Users\stapi\AppData\Local\Temp\ccemRRQg.s:1874   .text.pkcs5_decrypt:000000000000068c .L0 
C:\Users\stapi\AppData\Local\Temp\ccemRRQg.s:1875   .text.pkcs5_decrypt:000000000000068c .L0 
C:\Users\stapi\AppData\Local\Temp\ccemRRQg.s:1878   .text.pkcs5_decrypt:0000000000000690 .L0 
C:\Users\stapi\AppData\Local\Temp\ccemRRQg.s:1879   .text.pkcs5_decrypt:0000000000000690 .L0 
C:\Users\stapi\AppData\Local\Temp\ccemRRQg.s:1882   .text.pkcs5_decrypt:0000000000000698 .L0 
C:\Users\stapi\AppData\Local\Temp\ccemRRQg.s:1887   .text.pkcs5_decrypt:000000000000069c .L0 
C:\Users\stapi\AppData\Local\Temp\ccemRRQg.s:1888   .text.pkcs5_decrypt:000000000000069c .L0 
C:\Users\stapi\AppData\Local\Temp\ccemRRQg.s:1897   .text.pkcs5_decrypt:00000000000006ac .L0 
C:\Users\stapi\AppData\Local\Temp\ccemRRQg.s:1899   .text.pkcs5_decrypt:00000000000006b0 .L0 
C:\Users\stapi\AppData\Local\Temp\ccemRRQg.s:1903   .text.pkcs5_decrypt:00000000000006b8 .L0 
C:\Users\stapi\AppData\Local\Temp\ccemRRQg.s:1908   .text.pkcs5_decrypt:00000000000006c2 .L0 
C:\Users\stapi\AppData\Local\Temp\ccemRRQg.s:1909   .text.pkcs5_decrypt:00000000000006c2 .L0 
C:\Users\stapi\AppData\Local\Temp\ccemRRQg.s:1911   .text.pkcs5_decrypt:00000000000006c6 .L0 
C:\Users\stapi\AppData\Local\Temp\ccemRRQg.s:1913   .text.pkcs5_decrypt:00000000000006c8 .L0 
C:\Users\stapi\AppData\Local\Temp\ccemRRQg.s:1915   .text.pkcs5_decrypt:00000000000006cc .L0 
C:\Users\stapi\AppData\Local\Temp\ccemRRQg.s:1917   .text.pkcs5_decrypt:00000000000006ce .L0 
C:\Users\stapi\AppData\Local\Temp\ccemRRQg.s:1920   .text.pkcs5_decrypt:00000000000006d6 .L0 
C:\Users\stapi\AppData\Local\Temp\ccemRRQg.s:1921   .text.pkcs5_decrypt:00000000000006d6 .L0 
C:\Users\stapi\AppData\Local\Temp\ccemRRQg.s:1923   .text.pkcs5_decrypt:00000000000006da .L0 
C:\Users\stapi\AppData\Local\Temp\ccemRRQg.s:1928   .text.pkcs5_decrypt:00000000000006e6 .L0 
C:\Users\stapi\AppData\Local\Temp\ccemRRQg.s:1930   .text.pkcs5_decrypt:00000000000006ea .L0 
C:\Users\stapi\AppData\Local\Temp\ccemRRQg.s:1933   .text.pkcs5_decrypt:00000000000006f2 .L0 
C:\Users\stapi\AppData\Local\Temp\ccemRRQg.s:1934   .text.pkcs5_decrypt:00000000000006f2 .L0 
C:\Users\stapi\AppData\Local\Temp\ccemRRQg.s:1940   .text.pkcs5_decrypt:0000000000000702 .L0 
C:\Users\stapi\AppData\Local\Temp\ccemRRQg.s:1945   .text.pkcs5_decrypt:0000000000000706 .L0 
C:\Users\stapi\AppData\Local\Temp\ccemRRQg.s:1946   .text.pkcs5_decrypt:0000000000000706 .L0 
C:\Users\stapi\AppData\Local\Temp\ccemRRQg.s:1955   .text.pkcs5_decrypt:0000000000000716 .L0 
C:\Users\stapi\AppData\Local\Temp\ccemRRQg.s:1956   .text.pkcs5_decrypt:0000000000000716 .L0 
C:\Users\stapi\AppData\Local\Temp\ccemRRQg.s:1958   .text.pkcs5_decrypt:000000000000071a .L0 
C:\Users\stapi\AppData\Local\Temp\ccemRRQg.s:1960   .text.pkcs5_decrypt:000000000000071c .L0 
C:\Users\stapi\AppData\Local\Temp\ccemRRQg.s:1962   .text.pkcs5_decrypt:0000000000000720 .L0 
C:\Users\stapi\AppData\Local\Temp\ccemRRQg.s:1964   .text.pkcs5_decrypt:0000000000000724 .L0 
C:\Users\stapi\AppData\Local\Temp\ccemRRQg.s:1965   .text.pkcs5_decrypt:0000000000000724 .L0 
C:\Users\stapi\AppData\Local\Temp\ccemRRQg.s:1968   .text.pkcs5_decrypt:0000000000000728 .L0 
C:\Users\stapi\AppData\Local\Temp\ccemRRQg.s:1970   .text.pkcs5_decrypt:000000000000072c .L0 
C:\Users\stapi\AppData\Local\Temp\ccemRRQg.s:1977   .text.pkcs5_decrypt:0000000000000742 .L0 
C:\Users\stapi\AppData\Local\Temp\ccemRRQg.s:1978   .text.pkcs5_decrypt:0000000000000742 .L0 
C:\Users\stapi\AppData\Local\Temp\ccemRRQg.s:1980   .text.pkcs5_decrypt:0000000000000746 .L0 
C:\Users\stapi\AppData\Local\Temp\ccemRRQg.s:1983   .text.pkcs5_decrypt:000000000000074a .L0 
C:\Users\stapi\AppData\Local\Temp\ccemRRQg.s:1985   .text.pkcs5_decrypt:000000000000074e .L0 
C:\Users\stapi\AppData\Local\Temp\ccemRRQg.s:1989   .text.pkcs5_decrypt:0000000000000754 .L0 
C:\Users\stapi\AppData\Local\Temp\ccemRRQg.s:1994   .text.pkcs5_decrypt:000000000000075e .L0 
C:\Users\stapi\AppData\Local\Temp\ccemRRQg.s:1995   .text.pkcs5_decrypt:000000000000075e .L0 
C:\Users\stapi\AppData\Local\Temp\ccemRRQg.s:2001   .text.pkcs5_decrypt:0000000000000764 .L0 
C:\Users\stapi\AppData\Local\Temp\ccemRRQg.s:2004   .text.pkcs5_decrypt:0000000000000764 .L0 
C:\Users\stapi\AppData\Local\Temp\ccemRRQg.s:2005   .text.pkcs5_decrypt:0000000000000764 .L0 
C:\Users\stapi\AppData\Local\Temp\ccemRRQg.s:2016   .text.pkcs5_decrypt:000000000000077e .L0 
C:\Users\stapi\AppData\Local\Temp\ccemRRQg.s:2017   .text.pkcs5_decrypt:000000000000077e .L0 
C:\Users\stapi\AppData\Local\Temp\ccemRRQg.s:2023   .text.pkcs5_decrypt:0000000000000784 .L0 
C:\Users\stapi\AppData\Local\Temp\ccemRRQg.s:2024   .text.pkcs5_decrypt:0000000000000784 .L0 
C:\Users\stapi\AppData\Local\Temp\ccemRRQg.s:2041   .text.pkcs5_decrypt:00000000000007a6 .L0 
C:\Users\stapi\AppData\Local\Temp\ccemRRQg.s:2051   .text.pkcs5_decrypt:00000000000007b0 .L0 
C:\Users\stapi\AppData\Local\Temp\ccemRRQg.s:2052   .text.pkcs5_decrypt:00000000000007b0 .L0 
C:\Users\stapi\AppData\Local\Temp\ccemRRQg.s:2058   .text.pkcs5_decrypt:00000000000007b6 .L0 
C:\Users\stapi\AppData\Local\Temp\ccemRRQg.s:2059   .text.pkcs5_decrypt:00000000000007b6 .L0 
C:\Users\stapi\AppData\Local\Temp\ccemRRQg.s:2060   .text.pkcs5_decrypt:00000000000007b6 .L0 
C:\Users\stapi\AppData\Local\Temp\ccemRRQg.s:2061   .text.pkcs5_decrypt:00000000000007b6 .L0 
C:\Users\stapi\AppData\Local\Temp\ccemRRQg.s:2062   .text.pkcs5_decrypt:00000000000007b6 .L0 
C:\Users\stapi\AppData\Local\Temp\ccemRRQg.s:2063   .text.pkcs5_decrypt:00000000000007b6 .L0 
C:\Users\stapi\AppData\Local\Temp\ccemRRQg.s:2064   .text.pkcs5_decrypt:00000000000007b6 .L0 
C:\Users\stapi\AppData\Local\Temp\ccemRRQg.s:2065   .text.pkcs5_decrypt:00000000000007b6 .L0 
C:\Users\stapi\AppData\Local\Temp\ccemRRQg.s:2066   .text.pkcs5_decrypt:00000000000007b6 .L0 
C:\Users\stapi\AppData\Local\Temp\ccemRRQg.s:2069   .text.pkcs5_decrypt:00000000000007ba .L0 
C:\Users\stapi\AppData\Local\Temp\ccemRRQg.s:2076   .text.pkcs5_decrypt:00000000000007c6 .L0 
C:\Users\stapi\AppData\Local\Temp\ccemRRQg.s:2077   .text.pkcs5_decrypt:00000000000007c6 .L0 
C:\Users\stapi\AppData\Local\Temp\ccemRRQg.s:2079   .text.pkcs5_decrypt:00000000000007ca .L0 
C:\Users\stapi\AppData\Local\Temp\ccemRRQg.s:2086   .text.pkcs5_decrypt:00000000000007d8 .L0 
C:\Users\stapi\AppData\Local\Temp\ccemRRQg.s:2087   .text.pkcs5_decrypt:00000000000007d8 .L0 
C:\Users\stapi\AppData\Local\Temp\ccemRRQg.s:2089   .text.pkcs5_decrypt:00000000000007da .L0 
C:\Users\stapi\AppData\Local\Temp\ccemRRQg.s:2090   .text.pkcs5_decrypt:00000000000007da .L0 
C:\Users\stapi\AppData\Local\Temp\ccemRRQg.s:2093   .text.pkcs5_decrypt:00000000000007de .L0 
C:\Users\stapi\AppData\Local\Temp\ccemRRQg.s:2097   .text.pkcs5_decrypt:00000000000007e0 .L0 
C:\Users\stapi\AppData\Local\Temp\ccemRRQg.s:2098   .text.pkcs5_decrypt:00000000000007e0 .L0 
C:\Users\stapi\AppData\Local\Temp\ccemRRQg.s:2100   .text.pkcs5_decrypt:00000000000007e4 .L0 
C:\Users\stapi\AppData\Local\Temp\ccemRRQg.s:2105   .text.pkcs5_decrypt:00000000000007e8 .L0 
C:\Users\stapi\AppData\Local\Temp\ccemRRQg.s:2106   .text.pkcs5_decrypt:00000000000007e8 .L0 
C:\Users\stapi\AppData\Local\Temp\ccemRRQg.s:2109   .text.pkcs5_decrypt:00000000000007f0 .L0 
C:\Users\stapi\AppData\Local\Temp\ccemRRQg.s:2110   .text.pkcs5_decrypt:00000000000007f0 .L0 
C:\Users\stapi\AppData\Local\Temp\ccemRRQg.s:2115   .text.pkcs5_decrypt:00000000000007f4 .L0 
C:\Users\stapi\AppData\Local\Temp\ccemRRQg.s:2116   .text.pkcs5_decrypt:00000000000007f4 .L0 
C:\Users\stapi\AppData\Local\Temp\ccemRRQg.s:2119   .text.pkcs5_decrypt:00000000000007f6 .L0 
C:\Users\stapi\AppData\Local\Temp\ccemRRQg.s:2120   .text.pkcs5_decrypt:00000000000007f6 .L0 
C:\Users\stapi\AppData\Local\Temp\ccemRRQg.s:2123   .text.pkcs5_decrypt:00000000000007fc .L0 
C:\Users\stapi\AppData\Local\Temp\ccemRRQg.s:2127   .text.pkcs5_decrypt:00000000000007fe .L0 
C:\Users\stapi\AppData\Local\Temp\ccemRRQg.s:2128   .text.pkcs5_decrypt:00000000000007fe .L0 
C:\Users\stapi\AppData\Local\Temp\ccemRRQg.s:2140   .text.pkcs5_decrypt:000000000000081c .L0 
C:\Users\stapi\AppData\Local\Temp\ccemRRQg.s:2143   .text.pkcs5_decrypt:0000000000000820 .L0 
C:\Users\stapi\AppData\Local\Temp\ccemRRQg.s:2151   .text.pkcs5_decrypt:000000000000082a .L0 
C:\Users\stapi\AppData\Local\Temp\ccemRRQg.s:2153   .text.pkcs5_decrypt:000000000000082a .L0 
C:\Users\stapi\AppData\Local\Temp\ccemRRQg.s:2154   .text.pkcs5_decrypt:000000000000082a .L0 
C:\Users\stapi\AppData\Local\Temp\ccemRRQg.s:2164   .text.pkcs5_decrypt:0000000000000834 .L0 
C:\Users\stapi\AppData\Local\Temp\ccemRRQg.s:2175   .text.pkcs5_decrypt:0000000000000852 .L0 
C:\Users\stapi\AppData\Local\Temp\ccemRRQg.s:2177   .text.pkcs5_decrypt:0000000000000856 .L0 
C:\Users\stapi\AppData\Local\Temp\ccemRRQg.s:2181   .text.pkcs5_decrypt:0000000000000860 .L0 
C:\Users\stapi\AppData\Local\Temp\ccemRRQg.s:2189   .text.pkcs5_decrypt:0000000000000876 .L0 
C:\Users\stapi\AppData\Local\Temp\ccemRRQg.s:2197   .text.pkcs5_decrypt:000000000000088c .L0 
C:\Users\stapi\AppData\Local\Temp\ccemRRQg.s:2198   .text.pkcs5_decrypt:000000000000088c .L0 
C:\Users\stapi\AppData\Local\Temp\ccemRRQg.s:2207   .text.pkcs5_decrypt:0000000000000894 .L0 
C:\Users\stapi\AppData\Local\Temp\ccemRRQg.s:2208   .text.pkcs5_decrypt:0000000000000894 .L0 
C:\Users\stapi\AppData\Local\Temp\ccemRRQg.s:2211   .text.pkcs5_decrypt:000000000000089a .L0 
C:\Users\stapi\AppData\Local\Temp\ccemRRQg.s:2212   .text.pkcs5_decrypt:000000000000089a .L0 
C:\Users\stapi\AppData\Local\Temp\ccemRRQg.s:2214   .text.pkcs5_decrypt:000000000000089c .L0 
C:\Users\stapi\AppData\Local\Temp\ccemRRQg.s:2216   .text.pkcs5_decrypt:000000000000089e .L0 
C:\Users\stapi\AppData\Local\Temp\ccemRRQg.s:2217   .text.pkcs5_decrypt:000000000000089e .L0 
C:\Users\stapi\AppData\Local\Temp\ccemRRQg.s:2220   .text.pkcs5_decrypt:00000000000008a6 .L0 
C:\Users\stapi\AppData\Local\Temp\ccemRRQg.s:2223   .text.pkcs5_decrypt:00000000000008aa .L0 
C:\Users\stapi\AppData\Local\Temp\ccemRRQg.s:2225   .text.pkcs5_decrypt:00000000000008ae .L0 
C:\Users\stapi\AppData\Local\Temp\ccemRRQg.s:2228   .text.pkcs5_decrypt:00000000000008b0 .L0 
C:\Users\stapi\AppData\Local\Temp\ccemRRQg.s:2230   .text.pkcs5_decrypt:00000000000008b2 .L0 
C:\Users\stapi\AppData\Local\Temp\ccemRRQg.s:2231   .text.pkcs5_decrypt:00000000000008b2 .L0 
C:\Users\stapi\AppData\Local\Temp\ccemRRQg.s:2232   .text.pkcs5_decrypt:00000000000008b2 .L0 
C:\Users\stapi\AppData\Local\Temp\ccemRRQg.s:2237   .text.pkcs5_decrypt:00000000000008ba .L0 
C:\Users\stapi\AppData\Local\Temp\ccemRRQg.s:2239   .text.pkcs5_decrypt:00000000000008bc .L0 
C:\Users\stapi\AppData\Local\Temp\ccemRRQg.s:2240   .text.pkcs5_decrypt:00000000000008bc .L0 
C:\Users\stapi\AppData\Local\Temp\ccemRRQg.s:2243   .text.pkcs5_decrypt:00000000000008c4 .L0 
C:\Users\stapi\AppData\Local\Temp\ccemRRQg.s:2245   .text.pkcs5_decrypt:00000000000008c8 .L0 
C:\Users\stapi\AppData\Local\Temp\ccemRRQg.s:2246   .text.pkcs5_decrypt:00000000000008c8 .L0 
C:\Users\stapi\AppData\Local\Temp\ccemRRQg.s:2248   .text.pkcs5_decrypt:00000000000008ca .L0 
C:\Users\stapi\AppData\Local\Temp\ccemRRQg.s:2250   .text.pkcs5_decrypt:00000000000008cc .L0 
C:\Users\stapi\AppData\Local\Temp\ccemRRQg.s:2251   .text.pkcs5_decrypt:00000000000008cc .L0 
C:\Users\stapi\AppData\Local\Temp\ccemRRQg.s:2255   .text.pkcs5_decrypt:00000000000008ce .L0 
C:\Users\stapi\AppData\Local\Temp\ccemRRQg.s:2256   .text.pkcs5_decrypt:00000000000008ce .L0 
C:\Users\stapi\AppData\Local\Temp\ccemRRQg.s:2257   .text.pkcs5_decrypt:00000000000008ce .L0 
C:\Users\stapi\AppData\Local\Temp\ccemRRQg.s:2260   .text.pkcs5_decrypt:00000000000008d6 .L0 
C:\Users\stapi\AppData\Local\Temp\ccemRRQg.s:2268   .text.pkcs5_decrypt:00000000000008ec .L0 
C:\Users\stapi\AppData\Local\Temp\ccemRRQg.s:2276   .text.pkcs5_decrypt:0000000000000902 .L0 
C:\Users\stapi\AppData\Local\Temp\ccemRRQg.s:2277   .text.pkcs5_decrypt:0000000000000902 .L0 
C:\Users\stapi\AppData\Local\Temp\ccemRRQg.s:2284   .text.pkcs5_decrypt:000000000000090c .L0 
C:\Users\stapi\AppData\Local\Temp\ccemRRQg.s:2285   .text.pkcs5_decrypt:000000000000090c .L0 
C:\Users\stapi\AppData\Local\Temp\ccemRRQg.s:2292   .text.pkcs5_decrypt:000000000000091c .L0 
C:\Users\stapi\AppData\Local\Temp\ccemRRQg.s:2294   .text.pkcs5_decrypt:0000000000000920 .L0 
C:\Users\stapi\AppData\Local\Temp\ccemRRQg.s:2295   .text.pkcs5_decrypt:0000000000000920 .L0 
C:\Users\stapi\AppData\Local\Temp\ccemRRQg.s:2303   .text.pkcs5_decrypt:0000000000000924 .L0 
C:\Users\stapi\AppData\Local\Temp\ccemRRQg.s:2304   .text.pkcs5_decrypt:0000000000000924 .L0 
C:\Users\stapi\AppData\Local\Temp\ccemRRQg.s:2310   .text.pkcs5_decrypt:0000000000000930 .L0 
C:\Users\stapi\AppData\Local\Temp\ccemRRQg.s:2311   .text.pkcs5_decrypt:0000000000000930 .L0 
C:\Users\stapi\AppData\Local\Temp\ccemRRQg.s:2313   .text.pkcs5_decrypt:0000000000000932 .L0 
C:\Users\stapi\AppData\Local\Temp\ccemRRQg.s:2318   .text.pkcs5_decrypt:000000000000093c .L0 
C:\Users\stapi\AppData\Local\Temp\ccemRRQg.s:2319   .text.pkcs5_decrypt:000000000000093c .L0 
C:\Users\stapi\AppData\Local\Temp\ccemRRQg.s:2321   .text.pkcs5_decrypt:0000000000000940 .L0 
C:\Users\stapi\AppData\Local\Temp\ccemRRQg.s:2322   .text.pkcs5_decrypt:0000000000000940 .L0 
C:\Users\stapi\AppData\Local\Temp\ccemRRQg.s:2324   .text.pkcs5_decrypt:0000000000000948 .L0 
C:\Users\stapi\AppData\Local\Temp\ccemRRQg.s:2325   .text.pkcs5_decrypt:0000000000000948 .L0 
C:\Users\stapi\AppData\Local\Temp\ccemRRQg.s:2326   .text.pkcs5_decrypt:0000000000000948 .L0 
C:\Users\stapi\AppData\Local\Temp\ccemRRQg.s:2327   .text.pkcs5_decrypt:0000000000000948 .L0 
C:\Users\stapi\AppData\Local\Temp\ccemRRQg.s:2328   .text.pkcs5_decrypt:0000000000000948 .L0 
C:\Users\stapi\AppData\Local\Temp\ccemRRQg.s:2329   .text.pkcs5_decrypt:0000000000000948 .L0 
C:\Users\stapi\AppData\Local\Temp\ccemRRQg.s:2330   .text.pkcs5_decrypt:0000000000000948 .L0 
C:\Users\stapi\AppData\Local\Temp\ccemRRQg.s:2331   .text.pkcs5_decrypt:0000000000000948 .L0 
C:\Users\stapi\AppData\Local\Temp\ccemRRQg.s:2332   .text.pkcs5_decrypt:0000000000000948 .L0 
C:\Users\stapi\AppData\Local\Temp\ccemRRQg.s:2333   .text.pkcs5_decrypt:0000000000000948 .L0 
C:\Users\stapi\AppData\Local\Temp\ccemRRQg.s:2336   .text.pkcs5_decrypt:0000000000000948 .L0 
C:\Users\stapi\AppData\Local\Temp\ccemRRQg.s:2338   .text.pkcs5_decrypt:0000000000000948 .L0 
C:\Users\stapi\AppData\Local\Temp\ccemRRQg.s:2339   .text.pkcs5_decrypt:0000000000000948 .L0 
C:\Users\stapi\AppData\Local\Temp\ccemRRQg.s:2346   .text.pkcs5_decrypt:0000000000000958 .L0 
C:\Users\stapi\AppData\Local\Temp\ccemRRQg.s:2348   .text.pkcs5_decrypt:000000000000095c .L0 
C:\Users\stapi\AppData\Local\Temp\ccemRRQg.s:2354   .text.pkcs5_decrypt:000000000000096e .L0 
C:\Users\stapi\AppData\Local\Temp\ccemRRQg.s:2359   .text.pkcs5_decrypt:0000000000000978 .L0 
C:\Users\stapi\AppData\Local\Temp\ccemRRQg.s:2360   .text.pkcs5_decrypt:0000000000000978 .L0 
C:\Users\stapi\AppData\Local\Temp\ccemRRQg.s:2367   .text.pkcs5_decrypt:0000000000000986 .L0 
C:\Users\stapi\AppData\Local\Temp\ccemRRQg.s:2371   .text.pkcs5_decrypt:0000000000000990 .L0 
C:\Users\stapi\AppData\Local\Temp\ccemRRQg.s:2372   .text.pkcs5_decrypt:0000000000000990 .L0 
C:\Users\stapi\AppData\Local\Temp\ccemRRQg.s:2376   .text.pkcs5_decrypt:0000000000000998 .L0 
C:\Users\stapi\AppData\Local\Temp\ccemRRQg.s:2377   .text.pkcs5_decrypt:0000000000000998 .L0 
C:\Users\stapi\AppData\Local\Temp\ccemRRQg.s:2379   .text.pkcs5_decrypt:000000000000099a .L0 
C:\Users\stapi\AppData\Local\Temp\ccemRRQg.s:2383   .text.pkcs5_decrypt:00000000000009a0 .L0 
C:\Users\stapi\AppData\Local\Temp\ccemRRQg.s:2385   .text.pkcs5_decrypt:00000000000009a4 .L0 
C:\Users\stapi\AppData\Local\Temp\ccemRRQg.s:2392   .text.pkcs5_decrypt:00000000000009b8 .L0 
C:\Users\stapi\AppData\Local\Temp\ccemRRQg.s:2396   .text.pkcs5_decrypt:00000000000009ba .L0 
C:\Users\stapi\AppData\Local\Temp\ccemRRQg.s:2397   .text.pkcs5_decrypt:00000000000009ba .L0 
C:\Users\stapi\AppData\Local\Temp\ccemRRQg.s:2399   .text.pkcs5_decrypt:00000000000009be .L0 
C:\Users\stapi\AppData\Local\Temp\ccemRRQg.s:2402   .text.pkcs5_decrypt:00000000000009c6 .L0 
C:\Users\stapi\AppData\Local\Temp\ccemRRQg.s:2412   .text.pkcs5_decrypt:00000000000009de .L0 
C:\Users\stapi\AppData\Local\Temp\ccemRRQg.s:2413   .text.pkcs5_decrypt:00000000000009de .L0 
C:\Users\stapi\AppData\Local\Temp\ccemRRQg.s:2417   .text.pkcs5_decrypt:00000000000009e0 .L0 
C:\Users\stapi\AppData\Local\Temp\ccemRRQg.s:2418   .text.pkcs5_decrypt:00000000000009e0 .L0 
C:\Users\stapi\AppData\Local\Temp\ccemRRQg.s:2420   .text.pkcs5_decrypt:00000000000009e4 .L0 
C:\Users\stapi\AppData\Local\Temp\ccemRRQg.s:2429   .text.pkcs5_decrypt:00000000000009fa .L0 
C:\Users\stapi\AppData\Local\Temp\ccemRRQg.s:2430   .text.pkcs5_decrypt:00000000000009fa .L0 
C:\Users\stapi\AppData\Local\Temp\ccemRRQg.s:2432   .text.pkcs5_decrypt:00000000000009fe .L0 
C:\Users\stapi\AppData\Local\Temp\ccemRRQg.s:2433   .text.pkcs5_decrypt:00000000000009fe .L0 
C:\Users\stapi\AppData\Local\Temp\ccemRRQg.s:2434   .text.pkcs5_decrypt:0000000000000a00 .L0 
C:\Users\stapi\AppData\Local\Temp\ccemRRQg.s:38     .text.asn1_is_sequence:0000000000000014 .L0 
C:\Users\stapi\AppData\Local\Temp\ccemRRQg.s:90     .text.oid_is_rsadsi:000000000000003a .L0 
C:\Users\stapi\AppData\Local\Temp\ccemRRQg.s:154    .text.pkcs5_is_oid:0000000000000044 .L0 
C:\Users\stapi\AppData\Local\Temp\ccemRRQg.s:218    .text.digest_alg_is_oid:000000000000003c .L0 
C:\Users\stapi\AppData\Local\Temp\ccemRRQg.s:633    .text.pkcs12_key_gen:00000000000001be .L0 
C:\Users\stapi\AppData\Local\Temp\ccemRRQg.s:2437   .text.pkcs5_decrypt:0000000000000a00 .L0 
                     .debug_frame:0000000000000000 .L0 
C:\Users\stapi\AppData\Local\Temp\ccemRRQg.s:29     .text.asn1_is_sequence:0000000000000010 .L3
C:\Users\stapi\AppData\Local\Temp\ccemRRQg.s:80     .text.oid_is_rsadsi:0000000000000036 .L6
C:\Users\stapi\AppData\Local\Temp\ccemRRQg.s:84     .text.oid_is_rsadsi:0000000000000038 .L4
C:\Users\stapi\AppData\Local\Temp\ccemRRQg.s:145    .text.pkcs5_is_oid:0000000000000040 .L12
C:\Users\stapi\AppData\Local\Temp\ccemRRQg.s:135    .text.pkcs5_is_oid:0000000000000038 .L10
C:\Users\stapi\AppData\Local\Temp\ccemRRQg.s:209    .text.digest_alg_is_oid:0000000000000038 .L24
C:\Users\stapi\AppData\Local\Temp\ccemRRQg.s:199    .text.digest_alg_is_oid:0000000000000030 .L22
C:\Users\stapi\AppData\Local\Temp\ccemRRQg.s:321    .text.pkcs12_key_gen:000000000000005c .L34
C:\Users\stapi\AppData\Local\Temp\ccemRRQg.s:276    .text.pkcs12_key_gen:000000000000002c .L36
C:\Users\stapi\AppData\Local\Temp\ccemRRQg.s:381    .text.pkcs12_key_gen:00000000000000ac .L38
C:\Users\stapi\AppData\Local\Temp\ccemRRQg.s:374    .text.pkcs12_key_gen:00000000000000a4 .L37
C:\Users\stapi\AppData\Local\Temp\ccemRRQg.s:360    .text.pkcs12_key_gen:0000000000000094 .L39
C:\Users\stapi\AppData\Local\Temp\ccemRRQg.s:504    .text.pkcs12_key_gen:000000000000012a .L54
C:\Users\stapi\AppData\Local\Temp\ccemRRQg.s:286    .text.pkcs12_key_gen:0000000000000032 .L35
C:\Users\stapi\AppData\Local\Temp\ccemRRQg.s:625    .text.pkcs12_key_gen:00000000000001ba .L44
C:\Users\stapi\AppData\Local\Temp\ccemRRQg.s:509    .text.pkcs12_key_gen:000000000000012e .L46
C:\Users\stapi\AppData\Local\Temp\ccemRRQg.s:526    .text.pkcs12_key_gen:0000000000000146 .L47
C:\Users\stapi\AppData\Local\Temp\ccemRRQg.s:481    .text.pkcs12_key_gen:0000000000000110 .L42
C:\Users\stapi\AppData\Local\Temp\ccemRRQg.s:386    .text.pkcs12_key_gen:00000000000000ae .L43
C:\Users\stapi\AppData\Local\Temp\ccemRRQg.s:498    .text.pkcs12_key_gen:0000000000000124 .L40
C:\Users\stapi\AppData\Local\Temp\ccemRRQg.s:460    .text.pkcs12_key_gen:00000000000000f4 .L45
C:\Users\stapi\AppData\Local\Temp\ccemRRQg.s:547    .text.pkcs12_key_gen:000000000000015e .L49
C:\Users\stapi\AppData\Local\Temp\ccemRRQg.s:411    .text.pkcs12_key_gen:00000000000000c8 .L41
C:\Users\stapi\AppData\Local\Temp\ccemRRQg.s:587    .text.pkcs12_key_gen:0000000000000196 .L51
C:\Users\stapi\AppData\Local\Temp\ccemRRQg.s:576    .text.pkcs12_key_gen:0000000000000188 .L50
C:\Users\stapi\AppData\Local\Temp\ccemRRQg.s:635    .rodata.pkcs5_decrypt.str1.4:0000000000000000 .LC0
C:\Users\stapi\AppData\Local\Temp\ccemRRQg.s:719    .rodata.pkcs5_decrypt.str1.4:00000000000004e8 .LC28
C:\Users\stapi\AppData\Local\Temp\ccemRRQg.s:638    .rodata.pkcs5_decrypt.str1.4:000000000000002c .LC1
C:\Users\stapi\AppData\Local\Temp\ccemRRQg.s:710    .rodata.pkcs5_decrypt.str1.4:0000000000000454 .LC25
C:\Users\stapi\AppData\Local\Temp\ccemRRQg.s:644    .rodata.pkcs5_decrypt.str1.4:0000000000000080 .LC3
C:\Users\stapi\AppData\Local\Temp\ccemRRQg.s:641    .rodata.pkcs5_decrypt.str1.4:0000000000000050 .LC2
C:\Users\stapi\AppData\Local\Temp\ccemRRQg.s:647    .rodata.pkcs5_decrypt.str1.4:00000000000000ac .LC4
C:\Users\stapi\AppData\Local\Temp\ccemRRQg.s:650    .rodata.pkcs5_decrypt.str1.4:00000000000000dc .LC5
C:\Users\stapi\AppData\Local\Temp\ccemRRQg.s:653    .rodata.pkcs5_decrypt.str1.4:0000000000000118 .LC6
C:\Users\stapi\AppData\Local\Temp\ccemRRQg.s:656    .rodata.pkcs5_decrypt.str1.4:0000000000000148 .LC7
C:\Users\stapi\AppData\Local\Temp\ccemRRQg.s:659    .rodata.pkcs5_decrypt.str1.4:0000000000000184 .LC8
C:\Users\stapi\AppData\Local\Temp\ccemRRQg.s:662    .rodata.pkcs5_decrypt.str1.4:00000000000001b0 .LC9
C:\Users\stapi\AppData\Local\Temp\ccemRRQg.s:665    .rodata.pkcs5_decrypt.str1.4:00000000000001e0 .LC10
C:\Users\stapi\AppData\Local\Temp\ccemRRQg.s:674    .rodata.pkcs5_decrypt.str1.4:0000000000000240 .LC13
C:\Users\stapi\AppData\Local\Temp\ccemRRQg.s:677    .rodata.pkcs5_decrypt.str1.4:0000000000000260 .LC14
C:\Users\stapi\AppData\Local\Temp\ccemRRQg.s:668    .rodata.pkcs5_decrypt.str1.4:00000000000001f0 .LC11
C:\Users\stapi\AppData\Local\Temp\ccemRRQg.s:671    .rodata.pkcs5_decrypt.str1.4:000000000000020c .LC12
C:\Users\stapi\AppData\Local\Temp\ccemRRQg.s:680    .rodata.pkcs5_decrypt.str1.4:000000000000028c .LC15
C:\Users\stapi\AppData\Local\Temp\ccemRRQg.s:683    .rodata.pkcs5_decrypt.str1.4:00000000000002bc .LC16
C:\Users\stapi\AppData\Local\Temp\ccemRRQg.s:686    .rodata.pkcs5_decrypt.str1.4:00000000000002ec .LC17
C:\Users\stapi\AppData\Local\Temp\ccemRRQg.s:692    .rodata.pkcs5_decrypt.str1.4:0000000000000340 .LC19
C:\Users\stapi\AppData\Local\Temp\ccemRRQg.s:689    .rodata.pkcs5_decrypt.str1.4:0000000000000310 .LC18
C:\Users\stapi\AppData\Local\Temp\ccemRRQg.s:695    .rodata.pkcs5_decrypt.str1.4:0000000000000370 .LC20
C:\Users\stapi\AppData\Local\Temp\ccemRRQg.s:698    .rodata.pkcs5_decrypt.str1.4:00000000000003ac .LC21
C:\Users\stapi\AppData\Local\Temp\ccemRRQg.s:704    .rodata.pkcs5_decrypt.str1.4:0000000000000418 .LC23
C:\Users\stapi\AppData\Local\Temp\ccemRRQg.s:701    .rodata.pkcs5_decrypt.str1.4:00000000000003dc .LC22
C:\Users\stapi\AppData\Local\Temp\ccemRRQg.s:707    .rodata.pkcs5_decrypt.str1.4:0000000000000448 .LC24
C:\Users\stapi\AppData\Local\Temp\ccemRRQg.s:722    .rodata.pkcs5_decrypt.str1.4:0000000000000508 .LC29
C:\Users\stapi\AppData\Local\Temp\ccemRRQg.s:725    .rodata.pkcs5_decrypt.str1.4:000000000000052c .LC30
C:\Users\stapi\AppData\Local\Temp\ccemRRQg.s:728    .rodata.pkcs5_decrypt.str1.4:000000000000054c .LC31
C:\Users\stapi\AppData\Local\Temp\ccemRRQg.s:731    .rodata.pkcs5_decrypt.str1.4:0000000000000574 .LC32
C:\Users\stapi\AppData\Local\Temp\ccemRRQg.s:734    .rodata.pkcs5_decrypt.str1.4:000000000000058c .LC33
C:\Users\stapi\AppData\Local\Temp\ccemRRQg.s:749    .rodata.pkcs5_decrypt.str1.4:0000000000000600 .LC38
C:\Users\stapi\AppData\Local\Temp\ccemRRQg.s:713    .rodata.pkcs5_decrypt.str1.4:0000000000000480 .LC26
C:\Users\stapi\AppData\Local\Temp\ccemRRQg.s:716    .rodata.pkcs5_decrypt.str1.4:00000000000004b0 .LC27
C:\Users\stapi\AppData\Local\Temp\ccemRRQg.s:746    .rodata.pkcs5_decrypt.str1.4:00000000000005d8 .LC37
C:\Users\stapi\AppData\Local\Temp\ccemRRQg.s:737    .rodata.pkcs5_decrypt.str1.4:000000000000059c .LC34
C:\Users\stapi\AppData\Local\Temp\ccemRRQg.s:740    .rodata.pkcs5_decrypt.str1.4:00000000000005b0 .LC35
C:\Users\stapi\AppData\Local\Temp\ccemRRQg.s:743    .rodata.pkcs5_decrypt.str1.4:00000000000005c4 .LC36
C:\Users\stapi\AppData\Local\Temp\ccemRRQg.s:752    .rodata.pkcs5_decrypt.str1.4:000000000000062c .LC39
C:\Users\stapi\AppData\Local\Temp\ccemRRQg.s:755    .rodata.pkcs5_decrypt.str1.4:000000000000064c .LC40
C:\Users\stapi\AppData\Local\Temp\ccemRRQg.s:758    .rodata.pkcs5_decrypt.str1.4:000000000000066c .LC41
C:\Users\stapi\AppData\Local\Temp\ccemRRQg.s:761    .rodata.pkcs5_decrypt.str1.4:0000000000000680 .LC42
C:\Users\stapi\AppData\Local\Temp\ccemRRQg.s:878    .text.pkcs5_decrypt:0000000000000066 .L63
C:\Users\stapi\AppData\Local\Temp\ccemRRQg.s:2317   .text.pkcs5_decrypt:000000000000093c .L62
C:\Users\stapi\AppData\Local\Temp\ccemRRQg.s:1047   .text.pkcs5_decrypt:0000000000000140 .L65
C:\Users\stapi\AppData\Local\Temp\ccemRRQg.s:967    .text.pkcs5_decrypt:00000000000000f0 .L66
C:\Users\stapi\AppData\Local\Temp\ccemRRQg.s:1855   .text.pkcs5_decrypt:0000000000000672 .L165
C:\Users\stapi\AppData\Local\Temp\ccemRRQg.s:1023   .text.pkcs5_decrypt:0000000000000124 .L173
C:\Users\stapi\AppData\Local\Temp\ccemRRQg.s:1032   .text.pkcs5_decrypt:000000000000012e .L68
C:\Users\stapi\AppData\Local\Temp\ccemRRQg.s:1052   .text.pkcs5_decrypt:0000000000000144 .L161
C:\Users\stapi\AppData\Local\Temp\ccemRRQg.s:857    .text.pkcs5_decrypt:000000000000004e .L64
C:\Users\stapi\AppData\Local\Temp\ccemRRQg.s:1144   .text.pkcs5_decrypt:00000000000001da .L174
C:\Users\stapi\AppData\Local\Temp\ccemRRQg.s:938    .text.pkcs5_decrypt:00000000000000cc .L178
C:\Users\stapi\AppData\Local\Temp\ccemRRQg.s:1014   .text.pkcs5_decrypt:000000000000011a .L69
C:\Users\stapi\AppData\Local\Temp\ccemRRQg.s:1083   .text.pkcs5_decrypt:0000000000000170 .L72
C:\Users\stapi\AppData\Local\Temp\ccemRRQg.s:1088   .text.pkcs5_decrypt:000000000000017a .L73
C:\Users\stapi\AppData\Local\Temp\ccemRRQg.s:1019   .text.pkcs5_decrypt:0000000000000122 .L181
C:\Users\stapi\AppData\Local\Temp\ccemRRQg.s:1113   .text.pkcs5_decrypt:000000000000019c .L74
C:\Users\stapi\AppData\Local\Temp\ccemRRQg.s:849    .text.pkcs5_decrypt:0000000000000044 .L170
C:\Users\stapi\AppData\Local\Temp\ccemRRQg.s:1153   .text.pkcs5_decrypt:00000000000001e4 .L75
C:\Users\stapi\AppData\Local\Temp\ccemRRQg.s:1171   .text.pkcs5_decrypt:0000000000000204 .L76
C:\Users\stapi\AppData\Local\Temp\ccemRRQg.s:1176   .text.pkcs5_decrypt:000000000000020e .L77
C:\Users\stapi\AppData\Local\Temp\ccemRRQg.s:1215   .text.pkcs5_decrypt:000000000000023e .L78
C:\Users\stapi\AppData\Local\Temp\ccemRRQg.s:1220   .text.pkcs5_decrypt:0000000000000248 .L79
C:\Users\stapi\AppData\Local\Temp\ccemRRQg.s:1309   .text.pkcs5_decrypt:00000000000002d8 .L80
C:\Users\stapi\AppData\Local\Temp\ccemRRQg.s:1316   .text.pkcs5_decrypt:00000000000002e2 .L162
C:\Users\stapi\AppData\Local\Temp\ccemRRQg.s:1385   .text.pkcs5_decrypt:000000000000033a .L86
C:\Users\stapi\AppData\Local\Temp\ccemRRQg.s:1042   .text.pkcs5_decrypt:000000000000013c .L172
C:\Users\stapi\AppData\Local\Temp\ccemRRQg.s:1342   .text.pkcs5_decrypt:0000000000000300 .L84
C:\Users\stapi\AppData\Local\Temp\ccemRRQg.s:1280   .text.pkcs5_decrypt:00000000000002a4 .L167
C:\Users\stapi\AppData\Local\Temp\ccemRRQg.s:1366   .text.pkcs5_decrypt:0000000000000326 .L85
C:\Users\stapi\AppData\Local\Temp\ccemRRQg.s:1516   .text.pkcs5_decrypt:0000000000000414 .L87
C:\Users\stapi\AppData\Local\Temp\ccemRRQg.s:1412   .text.pkcs5_decrypt:0000000000000364 .L88
C:\Users\stapi\AppData\Local\Temp\ccemRRQg.s:1417   .text.pkcs5_decrypt:000000000000036e .L89
C:\Users\stapi\AppData\Local\Temp\ccemRRQg.s:1439   .text.pkcs5_decrypt:000000000000038c .L90
C:\Users\stapi\AppData\Local\Temp\ccemRRQg.s:1514   .text.pkcs5_decrypt:0000000000000410 .L168
C:\Users\stapi\AppData\Local\Temp\ccemRRQg.s:1541   .text.pkcs5_decrypt:0000000000000440 .L96
C:\Users\stapi\AppData\Local\Temp\ccemRRQg.s:1536   .text.pkcs5_decrypt:0000000000000436 .L97
C:\Users\stapi\AppData\Local\Temp\ccemRRQg.s:1547   .text.pkcs5_decrypt:000000000000044c .L98
C:\Users\stapi\AppData\Local\Temp\ccemRRQg.s:1140   .text.pkcs5_decrypt:00000000000001d8 .L182
C:\Users\stapi\AppData\Local\Temp\ccemRRQg.s:1572   .text.pkcs5_decrypt:000000000000046e .L99
C:\Users\stapi\AppData\Local\Temp\ccemRRQg.s:1634   .text.pkcs5_decrypt:00000000000004e0 .L100
C:\Users\stapi\AppData\Local\Temp\ccemRRQg.s:1640   .text.pkcs5_decrypt:00000000000004ec .L163
C:\Users\stapi\AppData\Local\Temp\ccemRRQg.s:1628   .text.pkcs5_decrypt:00000000000004d6 .L101
C:\Users\stapi\AppData\Local\Temp\ccemRRQg.s:2045   .text.pkcs5_decrypt:00000000000007b0 .L116
C:\Users\stapi\AppData\Local\Temp\ccemRRQg.s:2152   .text.pkcs5_decrypt:000000000000082a .L118
C:\Users\stapi\AppData\Local\Temp\ccemRRQg.s:1747   .text.pkcs5_decrypt:00000000000005aa .L120
C:\Users\stapi\AppData\Local\Temp\ccemRRQg.s:1840   .text.pkcs5_decrypt:0000000000000652 .L134
C:\Users\stapi\AppData\Local\Temp\ccemRRQg.s:2299   .text.pkcs5_decrypt:0000000000000924 .L135
C:\Users\stapi\AppData\Local\Temp\ccemRRQg.s:872    .text.pkcs5_decrypt:0000000000000060 .L180
C:\Users\stapi\AppData\Local\Temp\ccemRRQg.s:957    .text.pkcs5_decrypt:00000000000000e4 .L142
C:\Users\stapi\AppData\Local\Temp\ccemRRQg.s:1901   .text.pkcs5_decrypt:00000000000006b8 .L106
C:\Users\stapi\AppData\Local\Temp\ccemRRQg.s:1906   .text.pkcs5_decrypt:00000000000006c2 .L107
C:\Users\stapi\AppData\Local\Temp\ccemRRQg.s:962    .text.pkcs5_decrypt:00000000000000ec .L171
C:\Users\stapi\AppData\Local\Temp\ccemRRQg.s:1987   .text.pkcs5_decrypt:0000000000000754 .L108
C:\Users\stapi\AppData\Local\Temp\ccemRRQg.s:1992   .text.pkcs5_decrypt:000000000000075e .L164
C:\Users\stapi\AppData\Local\Temp\ccemRRQg.s:1678   .text.pkcs5_decrypt:000000000000052a .L104
C:\Users\stapi\AppData\Local\Temp\ccemRRQg.s:1301   .text.pkcs5_decrypt:00000000000002ce .L176
C:\Users\stapi\AppData\Local\Temp\ccemRRQg.s:2014   .text.pkcs5_decrypt:000000000000077e .L112
C:\Users\stapi\AppData\Local\Temp\ccemRRQg.s:1966   .text.pkcs5_decrypt:0000000000000728 .L169
C:\Users\stapi\AppData\Local\Temp\ccemRRQg.s:2037   .text.pkcs5_decrypt:00000000000007a6 .L113
C:\Users\stapi\AppData\Local\Temp\ccemRRQg.s:1375   .text.pkcs5_decrypt:000000000000032e .L175
C:\Users\stapi\AppData\Local\Temp\ccemRRQg.s:2203   .text.pkcs5_decrypt:0000000000000894 .L122
C:\Users\stapi\AppData\Local\Temp\ccemRRQg.s:2073   .text.pkcs5_decrypt:00000000000007c6 .L123
C:\Users\stapi\AppData\Local\Temp\ccemRRQg.s:2125   .text.pkcs5_decrypt:00000000000007fe .L125
C:\Users\stapi\AppData\Local\Temp\ccemRRQg.s:2094   .text.pkcs5_decrypt:00000000000007e0 .L126
C:\Users\stapi\AppData\Local\Temp\ccemRRQg.s:2158   .text.pkcs5_decrypt:0000000000000834 .L127
C:\Users\stapi\AppData\Local\Temp\ccemRRQg.s:866    .text.pkcs5_decrypt:0000000000000056 .L184
C:\Users\stapi\AppData\Local\Temp\ccemRRQg.s:2141   .text.pkcs5_decrypt:0000000000000820 .L128
C:\Users\stapi\AppData\Local\Temp\ccemRRQg.s:1811   .text.pkcs5_decrypt:0000000000000634 .L183
C:\Users\stapi\AppData\Local\Temp\ccemRRQg.s:2282   .text.pkcs5_decrypt:000000000000090c .L132
C:\Users\stapi\AppData\Local\Temp\ccemRRQg.s:1819   .text.pkcs5_decrypt:0000000000000636 .L177
C:\Users\stapi\AppData\Local\Temp\ccemRRQg.s:2254   .text.pkcs5_decrypt:00000000000008ce .L131
C:\Users\stapi\AppData\Local\Temp\ccemRRQg.s:2335   .text.pkcs5_decrypt:0000000000000948 .L136
C:\Users\stapi\AppData\Local\Temp\ccemRRQg.s:2365   .text.pkcs5_decrypt:0000000000000986 .L137
C:\Users\stapi\AppData\Local\Temp\ccemRRQg.s:2415   .text.pkcs5_decrypt:00000000000009e0 .L139
C:\Users\stapi\AppData\Local\Temp\ccemRRQg.s:2358   .text.pkcs5_decrypt:0000000000000978 .L179
C:\Users\stapi\AppData\Local\Temp\ccemRRQg.s:2410   .text.pkcs5_decrypt:00000000000009de .L140
C:\Users\stapi\AppData\Local\Temp\ccemRRQg.s:2394   .text.pkcs5_decrypt:00000000000009ba .L141
C:\Users\stapi\AppData\Local\Temp\ccemRRQg.s:6072   .debug_abbrev:0000000000000000 .Ldebug_abbrev0
C:\Users\stapi\AppData\Local\Temp\ccemRRQg.s:8871   .debug_str:000000000000031b .LASF139
C:\Users\stapi\AppData\Local\Temp\ccemRRQg.s:8797   .debug_str:0000000000000090 .LASF140
C:\Users\stapi\AppData\Local\Temp\ccemRRQg.s:8883   .debug_str:0000000000000475 .LASF141
C:\Users\stapi\AppData\Local\Temp\ccemRRQg.s:8671   .debug_ranges:0000000000000000 .Ldebug_ranges0
C:\Users\stapi\AppData\Local\Temp\ccemRRQg.s:8771   .debug_line:0000000000000000 .Ldebug_line0
C:\Users\stapi\AppData\Local\Temp\ccemRRQg.s:8779   .debug_str:000000000000001f .LASF2
C:\Users\stapi\AppData\Local\Temp\ccemRRQg.s:8869   .debug_str:000000000000030e .LASF0
C:\Users\stapi\AppData\Local\Temp\ccemRRQg.s:8817   .debug_str:0000000000000194 .LASF1
C:\Users\stapi\AppData\Local\Temp\ccemRRQg.s:8787   .debug_str:0000000000000055 .LASF3
C:\Users\stapi\AppData\Local\Temp\ccemRRQg.s:8963   .debug_str:0000000000000727 .LASF4
C:\Users\stapi\AppData\Local\Temp\ccemRRQg.s:8775   .debug_str:0000000000000010 .LASF5
C:\Users\stapi\AppData\Local\Temp\ccemRRQg.s:9003   .debug_str:0000000000000820 .LASF6
C:\Users\stapi\AppData\Local\Temp\ccemRRQg.s:8891   .debug_str:000000000000053f .LASF7
C:\Users\stapi\AppData\Local\Temp\ccemRRQg.s:8831   .debug_str:000000000000020d .LASF8
C:\Users\stapi\AppData\Local\Temp\ccemRRQg.s:9005   .debug_str:000000000000082b .LASF9
C:\Users\stapi\AppData\Local\Temp\ccemRRQg.s:8995   .debug_str:00000000000007ec .LASF10
C:\Users\stapi\AppData\Local\Temp\ccemRRQg.s:8815   .debug_str:0000000000000186 .LASF11
C:\Users\stapi\AppData\Local\Temp\ccemRRQg.s:8821   .debug_str:00000000000001b2 .LASF12
C:\Users\stapi\AppData\Local\Temp\ccemRRQg.s:8999   .debug_str:0000000000000805 .LASF13
C:\Users\stapi\AppData\Local\Temp\ccemRRQg.s:9033   .debug_str:0000000000000902 .LASF14
C:\Users\stapi\AppData\Local\Temp\ccemRRQg.s:8839   .debug_str:0000000000000243 .LASF15
C:\Users\stapi\AppData\Local\Temp\ccemRRQg.s:8991   .debug_str:00000000000007d0 .LASF16
C:\Users\stapi\AppData\Local\Temp\ccemRRQg.s:8961   .debug_str:0000000000000721 .LASF17
C:\Users\stapi\AppData\Local\Temp\ccemRRQg.s:8925   .debug_str:0000000000000646 .LASF18
C:\Users\stapi\AppData\Local\Temp\ccemRRQg.s:8879   .debug_str:0000000000000454 .LASF19
C:\Users\stapi\AppData\Local\Temp\ccemRRQg.s:8927   .debug_str:0000000000000654 .LASF20
C:\Users\stapi\AppData\Local\Temp\ccemRRQg.s:9053   .debug_str:0000000000000997 .LASF21
C:\Users\stapi\AppData\Local\Temp\ccemRRQg.s:8809   .debug_str:0000000000000167 .LASF22
C:\Users\stapi\AppData\Local\Temp\ccemRRQg.s:8803   .debug_str:0000000000000140 .LASF23
C:\Users\stapi\AppData\Local\Temp\ccemRRQg.s:8785   .debug_str:0000000000000043 .LASF53
C:\Users\stapi\AppData\Local\Temp\ccemRRQg.s:8973   .debug_str:0000000000000759 .LASF24
C:\Users\stapi\AppData\Local\Temp\ccemRRQg.s:8875   .debug_str:0000000000000427 .LASF25
C:\Users\stapi\AppData\Local\Temp\ccemRRQg.s:8877   .debug_str:000000000000043d .LASF26
C:\Users\stapi\AppData\Local\Temp\ccemRRQg.s:9009   .debug_str:0000000000000850 .LASF27
C:\Users\stapi\AppData\Local\Temp\ccemRRQg.s:9047   .debug_str:0000000000000962 .LASF28
C:\Users\stapi\AppData\Local\Temp\ccemRRQg.s:9049   .debug_str:0000000000000978 .LASF29
C:\Users\stapi\AppData\Local\Temp\ccemRRQg.s:9051   .debug_str:000000000000098e .LASF35
C:\Users\stapi\AppData\Local\Temp\ccemRRQg.s:8923   .debug_str:000000000000063e .LASF30
C:\Users\stapi\AppData\Local\Temp\ccemRRQg.s:8835   .debug_str:0000000000000228 .LASF31
C:\Users\stapi\AppData\Local\Temp\ccemRRQg.s:8953   .debug_str:0000000000000704 .LASF32
C:\Users\stapi\AppData\Local\Temp\ccemRRQg.s:8795   .debug_str:0000000000000084 .LASF33
C:\Users\stapi\AppData\Local\Temp\ccemRRQg.s:8997   .debug_str:00000000000007fe .LASF34
C:\Users\stapi\AppData\Local\Temp\ccemRRQg.s:8865   .debug_str:00000000000002fd .LASF36
C:\Users\stapi\AppData\Local\Temp\ccemRRQg.s:8945   .debug_str:00000000000006c6 .LASF37
C:\Users\stapi\AppData\Local\Temp\ccemRRQg.s:9011   .debug_str:0000000000000866 .LASF38
C:\Users\stapi\AppData\Local\Temp\ccemRRQg.s:8969   .debug_str:0000000000000743 .LASF39
C:\Users\stapi\AppData\Local\Temp\ccemRRQg.s:9015   .debug_str:0000000000000887 .LASF40
C:\Users\stapi\AppData\Local\Temp\ccemRRQg.s:8933   .debug_str:0000000000000673 .LASF41
C:\Users\stapi\AppData\Local\Temp\ccemRRQg.s:8833   .debug_str:0000000000000216 .LASF42
C:\Users\stapi\AppData\Local\Temp\ccemRRQg.s:8951   .debug_str:00000000000006f2 .LASF43
C:\Users\stapi\AppData\Local\Temp\ccemRRQg.s:9013   .debug_str:0000000000000875 .LASF44
C:\Users\stapi\AppData\Local\Temp\ccemRRQg.s:8921   .debug_str:000000000000062c .LASF45
C:\Users\stapi\AppData\Local\Temp\ccemRRQg.s:8881   .debug_str:0000000000000460 .LASF46
C:\Users\stapi\AppData\Local\Temp\ccemRRQg.s:8909   .debug_str:00000000000005d3 .LASF47
C:\Users\stapi\AppData\Local\Temp\ccemRRQg.s:8919   .debug_str:000000000000061a .LASF48
C:\Users\stapi\AppData\Local\Temp\ccemRRQg.s:8843   .debug_str:0000000000000262 .LASF49
C:\Users\stapi\AppData\Local\Temp\ccemRRQg.s:8917   .debug_str:0000000000000612 .LASF50
C:\Users\stapi\AppData\Local\Temp\ccemRRQg.s:8967   .debug_str:000000000000073c .LASF51
C:\Users\stapi\AppData\Local\Temp\ccemRRQg.s:8983   .debug_str:0000000000000795 .LASF52
C:\Users\stapi\AppData\Local\Temp\ccemRRQg.s:8943   .debug_str:00000000000006bc .LASF54
C:\Users\stapi\AppData\Local\Temp\ccemRRQg.s:8819   .debug_str:00000000000001a0 .LASF55
C:\Users\stapi\AppData\Local\Temp\ccemRRQg.s:8913   .debug_str:00000000000005ea .LASF56
C:\Users\stapi\AppData\Local\Temp\ccemRRQg.s:8987   .debug_str:00000000000007b0 .LASF57
C:\Users\stapi\AppData\Local\Temp\ccemRRQg.s:8899   .debug_str:000000000000056f .LASF58
C:\Users\stapi\AppData\Local\Temp\ccemRRQg.s:9057   .debug_str:00000000000009ae .LASF59
C:\Users\stapi\AppData\Local\Temp\ccemRRQg.s:8885   .debug_str:0000000000000507 .LASF60
C:\Users\stapi\AppData\Local\Temp\ccemRRQg.s:8941   .debug_str:00000000000006a1 .LASF61
C:\Users\stapi\AppData\Local\Temp\ccemRRQg.s:9029   .debug_str:00000000000008de .LASF62
C:\Users\stapi\AppData\Local\Temp\ccemRRQg.s:8889   .debug_str:0000000000000528 .LASF63
C:\Users\stapi\AppData\Local\Temp\ccemRRQg.s:8789   .debug_str:000000000000005f .LASF64
C:\Users\stapi\AppData\Local\Temp\ccemRRQg.s:8947   .debug_str:00000000000006d6 .LASF65
C:\Users\stapi\AppData\Local\Temp\ccemRRQg.s:9001   .debug_str:000000000000080a .LASF66
C:\Users\stapi\AppData\Local\Temp\ccemRRQg.s:8823   .debug_str:00000000000001c9 .LASF67
C:\Users\stapi\AppData\Local\Temp\ccemRRQg.s:8841   .debug_str:000000000000024c .LASF68
C:\Users\stapi\AppData\Local\Temp\ccemRRQg.s:8801   .debug_str:000000000000012a .LASF69
C:\Users\stapi\AppData\Local\Temp\ccemRRQg.s:8791   .debug_str:0000000000000072 .LASF70
C:\Users\stapi\AppData\Local\Temp\ccemRRQg.s:8777   .debug_str:000000000000001a .LASF71
C:\Users\stapi\AppData\Local\Temp\ccemRRQg.s:9021   .debug_str:00000000000008a9 .LASF72
C:\Users\stapi\AppData\Local\Temp\ccemRRQg.s:8937   .debug_str:000000000000068f .LASF73
C:\Users\stapi\AppData\Local\Temp\ccemRRQg.s:8845   .debug_str:0000000000000277 .LASF74
C:\Users\stapi\AppData\Local\Temp\ccemRRQg.s:8781   .debug_str:0000000000000026 .LASF75
C:\Users\stapi\AppData\Local\Temp\ccemRRQg.s:8939   .debug_str:000000000000069a .LASF76
C:\Users\stapi\AppData\Local\Temp\ccemRRQg.s:9017   .debug_str:0000000000000896 .LASF142
C:\Users\stapi\AppData\Local\Temp\ccemRRQg.s:768    .text.pkcs5_decrypt:0000000000000000 .LFB460
C:\Users\stapi\AppData\Local\Temp\ccemRRQg.s:2435   .text.pkcs5_decrypt:0000000000000a00 .LFE460
C:\Users\stapi\AppData\Local\Temp\ccemRRQg.s:6950   .debug_loc:0000000000000000 .LLST27
C:\Users\stapi\AppData\Local\Temp\ccemRRQg.s:8897   .debug_str:0000000000000563 .LASF77
C:\Users\stapi\AppData\Local\Temp\ccemRRQg.s:7023   .debug_loc:00000000000000a9 .LLST28
C:\Users\stapi\AppData\Local\Temp\ccemRRQg.s:8959   .debug_str:0000000000000718 .LASF78
C:\Users\stapi\AppData\Local\Temp\ccemRRQg.s:7096   .debug_loc:0000000000000152 .LLST29
C:\Users\stapi\AppData\Local\Temp\ccemRRQg.s:8811   .debug_str:0000000000000173 .LASF79
C:\Users\stapi\AppData\Local\Temp\ccemRRQg.s:7107   .debug_loc:0000000000000170 .LLST30
C:\Users\stapi\AppData\Local\Temp\ccemRRQg.s:8977   .debug_str:0000000000000775 .LASF80
C:\Users\stapi\AppData\Local\Temp\ccemRRQg.s:7118   .debug_loc:000000000000018e .LLST31
C:\Users\stapi\AppData\Local\Temp\ccemRRQg.s:8975   .debug_str:000000000000076c .LASF81
C:\Users\stapi\AppData\Local\Temp\ccemRRQg.s:7169   .debug_loc:0000000000000205 .LLST32
C:\Users\stapi\AppData\Local\Temp\ccemRRQg.s:7180   .debug_loc:0000000000000223 .LLST33
C:\Users\stapi\AppData\Local\Temp\ccemRRQg.s:7199   .debug_loc:0000000000000257 .LLST34
C:\Users\stapi\AppData\Local\Temp\ccemRRQg.s:7210   .debug_loc:0000000000000275 .LLST35
C:\Users\stapi\AppData\Local\Temp\ccemRRQg.s:8971   .debug_str:0000000000000752 .LASF82
C:\Users\stapi\AppData\Local\Temp\ccemRRQg.s:7235   .debug_loc:00000000000002af .LLST36
C:\Users\stapi\AppData\Local\Temp\ccemRRQg.s:793    .text.pkcs5_decrypt:000000000000000a .LBB64
C:\Users\stapi\AppData\Local\Temp\ccemRRQg.s:7250   .debug_loc:00000000000002d8 .LLST37
C:\Users\stapi\AppData\Local\Temp\ccemRRQg.s:7299   .debug_loc:000000000000034d .LLST38
C:\Users\stapi\AppData\Local\Temp\ccemRRQg.s:7372   .debug_loc:00000000000003f6 .LLST39
C:\Users\stapi\AppData\Local\Temp\ccemRRQg.s:7459   .debug_loc:00000000000004bb .LLST40
C:\Users\stapi\AppData\Local\Temp\ccemRRQg.s:7486   .debug_loc:0000000000000505 .LLST41
C:\Users\stapi\AppData\Local\Temp\ccemRRQg.s:850    .text.pkcs5_decrypt:0000000000000044 .LBB66
C:\Users\stapi\AppData\Local\Temp\ccemRRQg.s:7493   .debug_loc:0000000000000518 .LLST42
C:\Users\stapi\AppData\Local\Temp\ccemRRQg.s:7516   .debug_loc:0000000000000557 .LLST43
C:\Users\stapi\AppData\Local\Temp\ccemRRQg.s:7523   .debug_loc:000000000000056a .LLST44
C:\Users\stapi\AppData\Local\Temp\ccemRRQg.s:7556   .debug_loc:00000000000005b8 .LLST45
C:\Users\stapi\AppData\Local\Temp\ccemRRQg.s:7601   .debug_loc:0000000000000622 .LLST46
C:\Users\stapi\AppData\Local\Temp\ccemRRQg.s:1197   .text.pkcs5_decrypt:0000000000000226 .LBB68
C:\Users\stapi\AppData\Local\Temp\ccemRRQg.s:1209   .text.pkcs5_decrypt:0000000000000234 .LBE68
C:\Users\stapi\AppData\Local\Temp\ccemRRQg.s:7620   .debug_loc:0000000000000656 .LLST47
C:\Users\stapi\AppData\Local\Temp\ccemRRQg.s:1256   .text.pkcs5_decrypt:0000000000000288 .LBB70
C:\Users\stapi\AppData\Local\Temp\ccemRRQg.s:1267   .text.pkcs5_decrypt:0000000000000296 .LBE70
C:\Users\stapi\AppData\Local\Temp\ccemRRQg.s:7629   .debug_loc:000000000000066c .LLST48
C:\Users\stapi\AppData\Local\Temp\ccemRRQg.s:1587   .text.pkcs5_decrypt:0000000000000492 .LBB72
C:\Users\stapi\AppData\Local\Temp\ccemRRQg.s:1611   .text.pkcs5_decrypt:00000000000004bc .LBE72
C:\Users\stapi\AppData\Local\Temp\ccemRRQg.s:7638   .debug_loc:0000000000000682 .LLST49
C:\Users\stapi\AppData\Local\Temp\ccemRRQg.s:7646   .debug_loc:0000000000000696 .LLST50
C:\Users\stapi\AppData\Local\Temp\ccemRRQg.s:1598   .text.pkcs5_decrypt:00000000000004a6 .LVL167
C:\Users\stapi\AppData\Local\Temp\ccemRRQg.s:1642   .text.pkcs5_decrypt:00000000000004ec .LBB74
C:\Users\stapi\AppData\Local\Temp\ccemRRQg.s:1653   .text.pkcs5_decrypt:00000000000004fa .LBE74
C:\Users\stapi\AppData\Local\Temp\ccemRRQg.s:7665   .debug_loc:00000000000006c5 .LLST51
C:\Users\stapi\AppData\Local\Temp\ccemRRQg.s:855    .text.pkcs5_decrypt:000000000000004e .LVL86
C:\Users\stapi\AppData\Local\Temp\ccemRRQg.s:1011   .text.pkcs5_decrypt:0000000000000116 .LVL106
C:\Users\stapi\AppData\Local\Temp\ccemRRQg.s:1058   .text.pkcs5_decrypt:000000000000014e .LVL114
C:\Users\stapi\AppData\Local\Temp\ccemRRQg.s:1074   .text.pkcs5_decrypt:0000000000000160 .LVL116
C:\Users\stapi\AppData\Local\Temp\ccemRRQg.s:1080   .text.pkcs5_decrypt:000000000000016e .LVL117
C:\Users\stapi\AppData\Local\Temp\ccemRRQg.s:1106   .text.pkcs5_decrypt:0000000000000190 .LVL119
C:\Users\stapi\AppData\Local\Temp\ccemRRQg.s:1119   .text.pkcs5_decrypt:00000000000001ac .LVL120
C:\Users\stapi\AppData\Local\Temp\ccemRRQg.s:1126   .text.pkcs5_decrypt:00000000000001c0 .LVL121
C:\Users\stapi\AppData\Local\Temp\ccemRRQg.s:1132   .text.pkcs5_decrypt:00000000000001cc .LVL122
C:\Users\stapi\AppData\Local\Temp\ccemRRQg.s:1162   .text.pkcs5_decrypt:00000000000001f4 .LVL127
C:\Users\stapi\AppData\Local\Temp\ccemRRQg.s:1168   .text.pkcs5_decrypt:0000000000000202 .LVL128
C:\Users\stapi\AppData\Local\Temp\ccemRRQg.s:1193   .text.pkcs5_decrypt:0000000000000222 .LVL130
C:\Users\stapi\AppData\Local\Temp\ccemRRQg.s:1232   .text.pkcs5_decrypt:000000000000025a .LVL134
C:\Users\stapi\AppData\Local\Temp\ccemRRQg.s:1245   .text.pkcs5_decrypt:0000000000000274 .LVL135
C:\Users\stapi\AppData\Local\Temp\ccemRRQg.s:1252   .text.pkcs5_decrypt:0000000000000284 .LVL136
C:\Users\stapi\AppData\Local\Temp\ccemRRQg.s:1289   .text.pkcs5_decrypt:00000000000002be .LVL139
C:\Users\stapi\AppData\Local\Temp\ccemRRQg.s:1403   .text.pkcs5_decrypt:0000000000000354 .LVL148
C:\Users\stapi\AppData\Local\Temp\ccemRRQg.s:1409   .text.pkcs5_decrypt:0000000000000362 .LVL149
C:\Users\stapi\AppData\Local\Temp\ccemRRQg.s:1432   .text.pkcs5_decrypt:0000000000000380 .LVL151
C:\Users\stapi\AppData\Local\Temp\ccemRRQg.s:1445   .text.pkcs5_decrypt:000000000000039c .LVL152
C:\Users\stapi\AppData\Local\Temp\ccemRRQg.s:1452   .text.pkcs5_decrypt:00000000000003b0 .LVL153
C:\Users\stapi\AppData\Local\Temp\ccemRRQg.s:1458   .text.pkcs5_decrypt:00000000000003bc .LVL154
C:\Users\stapi\AppData\Local\Temp\ccemRRQg.s:1468   .text.pkcs5_decrypt:00000000000003cc .LVL155
C:\Users\stapi\AppData\Local\Temp\ccemRRQg.s:1478   .text.pkcs5_decrypt:00000000000003dc .LVL156
C:\Users\stapi\AppData\Local\Temp\ccemRRQg.s:1488   .text.pkcs5_decrypt:00000000000003ec .LVL157
C:\Users\stapi\AppData\Local\Temp\ccemRRQg.s:1498   .text.pkcs5_decrypt:00000000000003fc .LVL158
C:\Users\stapi\AppData\Local\Temp\ccemRRQg.s:1508   .text.pkcs5_decrypt:000000000000040c .LVL159
C:\Users\stapi\AppData\Local\Temp\ccemRRQg.s:1527   .text.pkcs5_decrypt:0000000000000426 .LVL160
C:\Users\stapi\AppData\Local\Temp\ccemRRQg.s:1533   .text.pkcs5_decrypt:0000000000000434 .LVL161
C:\Users\stapi\AppData\Local\Temp\ccemRRQg.s:1565   .text.pkcs5_decrypt:0000000000000462 .LVL163
C:\Users\stapi\AppData\Local\Temp\ccemRRQg.s:1578   .text.pkcs5_decrypt:000000000000047e .LVL164
C:\Users\stapi\AppData\Local\Temp\ccemRRQg.s:1585   .text.pkcs5_decrypt:0000000000000492 .LVL165
C:\Users\stapi\AppData\Local\Temp\ccemRRQg.s:1625   .text.pkcs5_decrypt:00000000000004d2 .LVL169
C:\Users\stapi\AppData\Local\Temp\ccemRRQg.s:1663   .text.pkcs5_decrypt:0000000000000510 .LVL173
C:\Users\stapi\AppData\Local\Temp\ccemRRQg.s:1676   .text.pkcs5_decrypt:000000000000052a .LVL174
C:\Users\stapi\AppData\Local\Temp\ccemRRQg.s:895    .text.pkcs5_decrypt:000000000000008a .LBB84
C:\Users\stapi\AppData\Local\Temp\ccemRRQg.s:7674   .debug_loc:00000000000006db .LLST52
C:\Users\stapi\AppData\Local\Temp\ccemRRQg.s:908    .text.pkcs5_decrypt:0000000000000098 .LBB86
C:\Users\stapi\AppData\Local\Temp\ccemRRQg.s:940    .text.pkcs5_decrypt:00000000000000cc .LBE86
C:\Users\stapi\AppData\Local\Temp\ccemRRQg.s:7719   .debug_loc:000000000000074a .LLST53
C:\Users\stapi\AppData\Local\Temp\ccemRRQg.s:7727   .debug_loc:000000000000075e .LLST54
C:\Users\stapi\AppData\Local\Temp\ccemRRQg.s:919    .text.pkcs5_decrypt:00000000000000ac .LVL96
C:\Users\stapi\AppData\Local\Temp\ccemRRQg.s:903    .text.pkcs5_decrypt:0000000000000096 .LVL93
C:\Users\stapi\AppData\Local\Temp\ccemRRQg.s:976    .text.pkcs5_decrypt:00000000000000fc .LVL102
C:\Users\stapi\AppData\Local\Temp\ccemRRQg.s:1884   .text.pkcs5_decrypt:000000000000069c .LBB98
C:\Users\stapi\AppData\Local\Temp\ccemRRQg.s:1895   .text.pkcs5_decrypt:00000000000006ac .LBE98
C:\Users\stapi\AppData\Local\Temp\ccemRRQg.s:7746   .debug_loc:000000000000078d .LLST55
C:\Users\stapi\AppData\Local\Temp\ccemRRQg.s:1942   .text.pkcs5_decrypt:0000000000000706 .LBB100
C:\Users\stapi\AppData\Local\Temp\ccemRRQg.s:1953   .text.pkcs5_decrypt:0000000000000716 .LBE100
C:\Users\stapi\AppData\Local\Temp\ccemRRQg.s:7755   .debug_loc:00000000000007a3 .LLST56
C:\Users\stapi\AppData\Local\Temp\ccemRRQg.s:834    .text.pkcs5_decrypt:000000000000002a .LVL83
C:\Users\stapi\AppData\Local\Temp\ccemRRQg.s:842    .text.pkcs5_decrypt:000000000000003a .LVL84
C:\Users\stapi\AppData\Local\Temp\ccemRRQg.s:886    .text.pkcs5_decrypt:0000000000000076 .LVL90
C:\Users\stapi\AppData\Local\Temp\ccemRRQg.s:893    .text.pkcs5_decrypt:000000000000008a .LVL91
C:\Users\stapi\AppData\Local\Temp\ccemRRQg.s:954    .text.pkcs5_decrypt:00000000000000e0 .LVL98
C:\Users\stapi\AppData\Local\Temp\ccemRRQg.s:1028   .text.pkcs5_decrypt:000000000000012c .LVL109
C:\Users\stapi\AppData\Local\Temp\ccemRRQg.s:1149   .text.pkcs5_decrypt:00000000000001e2 .LVL125
C:\Users\stapi\AppData\Local\Temp\ccemRRQg.s:1381   .text.pkcs5_decrypt:0000000000000338 .LVL146
C:\Users\stapi\AppData\Local\Temp\ccemRRQg.s:1861   .text.pkcs5_decrypt:000000000000067c .LVL197
C:\Users\stapi\AppData\Local\Temp\ccemRRQg.s:1880   .text.pkcs5_decrypt:0000000000000698 .LVL199
C:\Users\stapi\AppData\Local\Temp\ccemRRQg.s:1918   .text.pkcs5_decrypt:00000000000006d6 .LVL202
C:\Users\stapi\AppData\Local\Temp\ccemRRQg.s:1931   .text.pkcs5_decrypt:00000000000006f2 .LVL203
C:\Users\stapi\AppData\Local\Temp\ccemRRQg.s:1938   .text.pkcs5_decrypt:0000000000000702 .LVL204
C:\Users\stapi\AppData\Local\Temp\ccemRRQg.s:1975   .text.pkcs5_decrypt:0000000000000742 .LVL207
C:\Users\stapi\AppData\Local\Temp\ccemRRQg.s:1684   .text.pkcs5_decrypt:000000000000052a .LBB117
C:\Users\stapi\AppData\Local\Temp\ccemRRQg.s:7764   .debug_loc:00000000000007b9 .LLST57
C:\Users\stapi\AppData\Local\Temp\ccemRRQg.s:7793   .debug_loc:00000000000007fe .LLST58
C:\Users\stapi\AppData\Local\Temp\ccemRRQg.s:7814   .debug_loc:0000000000000830 .LLST59
C:\Users\stapi\AppData\Local\Temp\ccemRRQg.s:1698   .text.pkcs5_decrypt:0000000000000534 .LBB119
C:\Users\stapi\AppData\Local\Temp\ccemRRQg.s:1813   .text.pkcs5_decrypt:0000000000000634 .LBE119
C:\Users\stapi\AppData\Local\Temp\ccemRRQg.s:7821   .debug_loc:0000000000000843 .LLST60
C:\Users\stapi\AppData\Local\Temp\ccemRRQg.s:7828   .debug_loc:0000000000000856 .LLST61
C:\Users\stapi\AppData\Local\Temp\ccemRRQg.s:7837   .debug_loc:000000000000086c .LLST62
C:\Users\stapi\AppData\Local\Temp\ccemRRQg.s:7848   .debug_loc:000000000000088a .LLST63
C:\Users\stapi\AppData\Local\Temp\ccemRRQg.s:1713   .text.pkcs5_decrypt:0000000000000552 .LVL176
C:\Users\stapi\AppData\Local\Temp\ccemRRQg.s:1720   .text.pkcs5_decrypt:0000000000000568 .LVL177
C:\Users\stapi\AppData\Local\Temp\ccemRRQg.s:1728   .text.pkcs5_decrypt:0000000000000580 .LVL178
C:\Users\stapi\AppData\Local\Temp\ccemRRQg.s:1735   .text.pkcs5_decrypt:0000000000000596 .LVL179
C:\Users\stapi\AppData\Local\Temp\ccemRRQg.s:1752   .text.pkcs5_decrypt:00000000000005b4 .LVL181
C:\Users\stapi\AppData\Local\Temp\ccemRRQg.s:1757   .text.pkcs5_decrypt:00000000000005be .LVL182
C:\Users\stapi\AppData\Local\Temp\ccemRRQg.s:1769   .text.pkcs5_decrypt:00000000000005d0 .LVL185
C:\Users\stapi\AppData\Local\Temp\ccemRRQg.s:1776   .text.pkcs5_decrypt:00000000000005de .LVL186
C:\Users\stapi\AppData\Local\Temp\ccemRRQg.s:1786   .text.pkcs5_decrypt:00000000000005fc .LVL187
C:\Users\stapi\AppData\Local\Temp\ccemRRQg.s:1796   .text.pkcs5_decrypt:0000000000000616 .LVL188
C:\Users\stapi\AppData\Local\Temp\ccemRRQg.s:1804   .text.pkcs5_decrypt:000000000000062e .LVL189
C:\Users\stapi\AppData\Local\Temp\ccemRRQg.s:1814   .text.pkcs5_decrypt:0000000000000634 .LBB121
C:\Users\stapi\AppData\Local\Temp\ccemRRQg.s:7855   .debug_loc:000000000000089d .LLST64
C:\Users\stapi\AppData\Local\Temp\ccemRRQg.s:7866   .debug_loc:00000000000008bb .LLST65
C:\Users\stapi\AppData\Local\Temp\ccemRRQg.s:7881   .debug_loc:00000000000008df .LLST66
C:\Users\stapi\AppData\Local\Temp\ccemRRQg.s:7888   .debug_loc:00000000000008f2 .LLST67
C:\Users\stapi\AppData\Local\Temp\ccemRRQg.s:7903   .debug_loc:000000000000091b .LLST68
C:\Users\stapi\AppData\Local\Temp\ccemRRQg.s:2102   .text.pkcs5_decrypt:00000000000007e8 .LBB123
C:\Users\stapi\AppData\Local\Temp\ccemRRQg.s:2113   .text.pkcs5_decrypt:00000000000007f4 .LBE123
C:\Users\stapi\AppData\Local\Temp\ccemRRQg.s:7914   .debug_loc:0000000000000939 .LLST69
C:\Users\stapi\AppData\Local\Temp\ccemRRQg.s:7921   .debug_loc:000000000000094c .LLST70
C:\Users\stapi\AppData\Local\Temp\ccemRRQg.s:2071   .text.pkcs5_decrypt:00000000000007c4 .LVL213
C:\Users\stapi\AppData\Local\Temp\ccemRRQg.s:2082   .text.pkcs5_decrypt:00000000000007d6 .LVL215
C:\Users\stapi\AppData\Local\Temp\ccemRRQg.s:2138   .text.pkcs5_decrypt:000000000000081c .LVL223
C:\Users\stapi\AppData\Local\Temp\ccemRRQg.s:2145   .text.pkcs5_decrypt:000000000000082a .LVL224
C:\Users\stapi\AppData\Local\Temp\ccemRRQg.s:2173   .text.pkcs5_decrypt:0000000000000852 .LVL226
C:\Users\stapi\AppData\Local\Temp\ccemRRQg.s:2179   .text.pkcs5_decrypt:0000000000000860 .LVL227
C:\Users\stapi\AppData\Local\Temp\ccemRRQg.s:2187   .text.pkcs5_decrypt:0000000000000876 .LVL228
C:\Users\stapi\AppData\Local\Temp\ccemRRQg.s:2195   .text.pkcs5_decrypt:000000000000088c .LVL229
C:\Users\stapi\AppData\Local\Temp\ccemRRQg.s:1824   .text.pkcs5_decrypt:000000000000063e .LVL192
C:\Users\stapi\AppData\Local\Temp\ccemRRQg.s:2218   .text.pkcs5_decrypt:00000000000008a6 .LVL231
C:\Users\stapi\AppData\Local\Temp\ccemRRQg.s:2241   .text.pkcs5_decrypt:00000000000008c4 .LVL233
C:\Users\stapi\AppData\Local\Temp\ccemRRQg.s:2266   .text.pkcs5_decrypt:00000000000008ec .LVL235
C:\Users\stapi\AppData\Local\Temp\ccemRRQg.s:2274   .text.pkcs5_decrypt:0000000000000902 .LVL236
C:\Users\stapi\AppData\Local\Temp\ccemRRQg.s:2290   .text.pkcs5_decrypt:000000000000091c .LVL237
C:\Users\stapi\AppData\Local\Temp\ccemRRQg.s:870    .text.pkcs5_decrypt:0000000000000060 .LVL88
C:\Users\stapi\AppData\Local\Temp\ccemRRQg.s:1847   .text.pkcs5_decrypt:0000000000000666 .LVL194
C:\Users\stapi\AppData\Local\Temp\ccemRRQg.s:1851   .text.pkcs5_decrypt:0000000000000670 .LVL195
C:\Users\stapi\AppData\Local\Temp\ccemRRQg.s:2306   .text.pkcs5_decrypt:000000000000092e .LVL240
C:\Users\stapi\AppData\Local\Temp\ccemRRQg.s:2315   .text.pkcs5_decrypt:000000000000093c .LVL242
C:\Users\stapi\AppData\Local\Temp\ccemRRQg.s:2344   .text.pkcs5_decrypt:0000000000000958 .LVL244
C:\Users\stapi\AppData\Local\Temp\ccemRRQg.s:2352   .text.pkcs5_decrypt:000000000000096e .LVL245
C:\Users\stapi\AppData\Local\Temp\ccemRRQg.s:2356   .text.pkcs5_decrypt:0000000000000978 .LVL246
C:\Users\stapi\AppData\Local\Temp\ccemRRQg.s:2362   .text.pkcs5_decrypt:0000000000000982 .LVL247
C:\Users\stapi\AppData\Local\Temp\ccemRRQg.s:2369   .text.pkcs5_decrypt:0000000000000990 .LVL249
C:\Users\stapi\AppData\Local\Temp\ccemRRQg.s:2390   .text.pkcs5_decrypt:00000000000009b8 .LVL252
C:\Users\stapi\AppData\Local\Temp\ccemRRQg.s:2407   .text.pkcs5_decrypt:00000000000009dc .LVL254
C:\Users\stapi\AppData\Local\Temp\ccemRRQg.s:2427   .text.pkcs5_decrypt:00000000000009fa .LVL258
C:\Users\stapi\AppData\Local\Temp\ccemRRQg.s:9055   .debug_str:00000000000009a0 .LASF83
C:\Users\stapi\AppData\Local\Temp\ccemRRQg.s:9031   .debug_str:00000000000008f0 .LASF86
C:\Users\stapi\AppData\Local\Temp\ccemRRQg.s:9019   .debug_str:00000000000008a4 .LASF84
C:\Users\stapi\AppData\Local\Temp\ccemRRQg.s:8805   .debug_str:000000000000014a .LASF85
C:\Users\stapi\AppData\Local\Temp\ccemRRQg.s:8807   .debug_str:000000000000014f .LASF87
C:\Users\stapi\AppData\Local\Temp\ccemRRQg.s:8965   .debug_str:0000000000000735 .LASF88
C:\Users\stapi\AppData\Local\Temp\ccemRRQg.s:9041   .debug_str:000000000000093d .LASF106
C:\Users\stapi\AppData\Local\Temp\ccemRRQg.s:222    .text.pkcs12_key_gen:0000000000000000 .LFB457
C:\Users\stapi\AppData\Local\Temp\ccemRRQg.s:631    .text.pkcs12_key_gen:00000000000001be .LFE457
C:\Users\stapi\AppData\Local\Temp\ccemRRQg.s:7928   .debug_loc:000000000000095f .LLST10
C:\Users\stapi\AppData\Local\Temp\ccemRRQg.s:7968   .debug_loc:00000000000009bd .LLST11
C:\Users\stapi\AppData\Local\Temp\ccemRRQg.s:8008   .debug_loc:0000000000000a1b .LLST12
C:\Users\stapi\AppData\Local\Temp\ccemRRQg.s:8048   .debug_loc:0000000000000a79 .LLST13
C:\Users\stapi\AppData\Local\Temp\ccemRRQg.s:8088   .debug_loc:0000000000000ad7 .LLST14
C:\Users\stapi\AppData\Local\Temp\ccemRRQg.s:8911   .debug_str:00000000000005e5 .LASF89
C:\Users\stapi\AppData\Local\Temp\ccemRRQg.s:8102   .debug_loc:0000000000000af8 .LLST15
C:\Users\stapi\AppData\Local\Temp\ccemRRQg.s:9045   .debug_str:000000000000095a .LASF90
C:\Users\stapi\AppData\Local\Temp\ccemRRQg.s:8113   .debug_loc:0000000000000b16 .LLST16
C:\Users\stapi\AppData\Local\Temp\ccemRRQg.s:8124   .debug_loc:0000000000000b34 .LLST17
C:\Users\stapi\AppData\Local\Temp\ccemRRQg.s:8813   .debug_str:0000000000000180 .LASF91
C:\Users\stapi\AppData\Local\Temp\ccemRRQg.s:8847   .debug_str:000000000000027f .LASF92
C:\Users\stapi\AppData\Local\Temp\ccemRRQg.s:8192   .debug_loc:0000000000000bc3 .LLST18
C:\Users\stapi\AppData\Local\Temp\ccemRRQg.s:8227   .debug_loc:0000000000000c07 .LLST19
C:\Users\stapi\AppData\Local\Temp\ccemRRQg.s:8299   .debug_loc:0000000000000cbd .LLST20
C:\Users\stapi\AppData\Local\Temp\ccemRRQg.s:8323   .debug_loc:0000000000000cfd .LLST21
C:\Users\stapi\AppData\Local\Temp\ccemRRQg.s:8356   .debug_loc:0000000000000d54 .LLST22
C:\Users\stapi\AppData\Local\Temp\ccemRRQg.s:8386   .debug_loc:0000000000000da1 .LLST23
C:\Users\stapi\AppData\Local\Temp\ccemRRQg.s:8441   .debug_loc:0000000000000e0e .LLST24
C:\Users\stapi\AppData\Local\Temp\ccemRRQg.s:8793   .debug_str:000000000000007f .LASF143
C:\Users\stapi\AppData\Local\Temp\ccemRRQg.s:406    .text.pkcs12_key_gen:00000000000000c6 .LBB22
C:\Users\stapi\AppData\Local\Temp\ccemRRQg.s:8471   .debug_loc:0000000000000e54 .LLST25
C:\Users\stapi\AppData\Local\Temp\ccemRRQg.s:8488   .debug_loc:0000000000000e7f .LLST26
C:\Users\stapi\AppData\Local\Temp\ccemRRQg.s:444    .text.pkcs12_key_gen:00000000000000e8 .LVL51
C:\Users\stapi\AppData\Local\Temp\ccemRRQg.s:473    .text.pkcs12_key_gen:000000000000010c .LVL54
C:\Users\stapi\AppData\Local\Temp\ccemRRQg.s:518    .text.pkcs12_key_gen:000000000000013e .LVL60
C:\Users\stapi\AppData\Local\Temp\ccemRRQg.s:532    .text.pkcs12_key_gen:0000000000000154 .LVL62
C:\Users\stapi\AppData\Local\Temp\ccemRRQg.s:571    .text.pkcs12_key_gen:0000000000000186 .LVL67
C:\Users\stapi\AppData\Local\Temp\ccemRRQg.s:266    .text.pkcs12_key_gen:0000000000000026 .LVL24
C:\Users\stapi\AppData\Local\Temp\ccemRRQg.s:290    .text.pkcs12_key_gen:000000000000003c .LVL30
C:\Users\stapi\AppData\Local\Temp\ccemRRQg.s:294    .text.pkcs12_key_gen:0000000000000046 .LVL31
C:\Users\stapi\AppData\Local\Temp\ccemRRQg.s:298    .text.pkcs12_key_gen:0000000000000050 .LVL32
C:\Users\stapi\AppData\Local\Temp\ccemRRQg.s:336    .text.pkcs12_key_gen:0000000000000078 .LVL34
C:\Users\stapi\AppData\Local\Temp\ccemRRQg.s:344    .text.pkcs12_key_gen:0000000000000086 .LVL35
C:\Users\stapi\AppData\Local\Temp\ccemRRQg.s:392    .text.pkcs12_key_gen:00000000000000ba .LVL45
C:\Users\stapi\AppData\Local\Temp\ccemRRQg.s:8993   .debug_str:00000000000007d9 .LASF112
C:\Users\stapi\AppData\Local\Temp\ccemRRQg.s:8955   .debug_str:000000000000070a .LASF93
C:\Users\stapi\AppData\Local\Temp\ccemRRQg.s:8849   .debug_str:0000000000000285 .LASF94
C:\Users\stapi\AppData\Local\Temp\ccemRRQg.s:8949   .debug_str:00000000000006ea .LASF95
C:\Users\stapi\AppData\Local\Temp\ccemRRQg.s:8799   .debug_str:0000000000000119 .LASF96
C:\Users\stapi\AppData\Local\Temp\ccemRRQg.s:9023   .debug_str:00000000000008b2 .LASF97
C:\Users\stapi\AppData\Local\Temp\ccemRRQg.s:8853   .debug_str:00000000000002ad .LASF98
C:\Users\stapi\AppData\Local\Temp\ccemRRQg.s:8901   .debug_str:0000000000000587 .LASF99
C:\Users\stapi\AppData\Local\Temp\ccemRRQg.s:8957   .debug_str:0000000000000710 .LASF100
C:\Users\stapi\AppData\Local\Temp\ccemRRQg.s:9043   .debug_str:000000000000094c .LASF101
C:\Users\stapi\AppData\Local\Temp\ccemRRQg.s:8985   .debug_str:000000000000079e .LASF102
C:\Users\stapi\AppData\Local\Temp\ccemRRQg.s:8915   .debug_str:0000000000000600 .LASF103
C:\Users\stapi\AppData\Local\Temp\ccemRRQg.s:9035   .debug_str:000000000000090a .LASF104
C:\Users\stapi\AppData\Local\Temp\ccemRRQg.s:9059   .debug_str:00000000000009bc .LASF105
C:\Users\stapi\AppData\Local\Temp\ccemRRQg.s:8907   .debug_str:00000000000005c5 .LASF107
C:\Users\stapi\AppData\Local\Temp\ccemRRQg.s:42     .text.oid_is_rsadsi:0000000000000000 .LFB447
C:\Users\stapi\AppData\Local\Temp\ccemRRQg.s:88     .text.oid_is_rsadsi:000000000000003a .LFE447
C:\Users\stapi\AppData\Local\Temp\ccemRRQg.s:8495   .debug_loc:0000000000000e92 .LLST1
C:\Users\stapi\AppData\Local\Temp\ccemRRQg.s:8855   .debug_str:00000000000002b2 .LASF108
C:\Users\stapi\AppData\Local\Temp\ccemRRQg.s:8827   .debug_str:00000000000001ef .LASF109
C:\Users\stapi\AppData\Local\Temp\ccemRRQg.s:13     .text.asn1_is_sequence:0000000000000000 .LFB75
C:\Users\stapi\AppData\Local\Temp\ccemRRQg.s:36     .text.asn1_is_sequence:0000000000000014 .LFE75
C:\Users\stapi\AppData\Local\Temp\ccemRRQg.s:8521   .debug_loc:0000000000000ed4 .LLST0
C:\Users\stapi\AppData\Local\Temp\ccemRRQg.s:8773   .debug_str:0000000000000000 .LASF110
C:\Users\stapi\AppData\Local\Temp\ccemRRQg.s:8905   .debug_str:00000000000005b8 .LASF111
C:\Users\stapi\AppData\Local\Temp\ccemRRQg.s:8863   .debug_str:00000000000002f0 .LASF113
C:\Users\stapi\AppData\Local\Temp\ccemRRQg.s:8829   .debug_str:0000000000000200 .LASF114
C:\Users\stapi\AppData\Local\Temp\ccemRRQg.s:94     .text.pkcs5_is_oid:0000000000000000 .LFB448
C:\Users\stapi\AppData\Local\Temp\ccemRRQg.s:152    .text.pkcs5_is_oid:0000000000000044 .LFE448
C:\Users\stapi\AppData\Local\Temp\ccemRRQg.s:8546   .debug_loc:0000000000000f0e .LLST2
C:\Users\stapi\AppData\Local\Temp\ccemRRQg.s:8568   .debug_loc:0000000000000f45 .LLST3
C:\Users\stapi\AppData\Local\Temp\ccemRRQg.s:124    .text.pkcs5_is_oid:0000000000000028 .LBB10
C:\Users\stapi\AppData\Local\Temp\ccemRRQg.s:137    .text.pkcs5_is_oid:0000000000000038 .LBE10
C:\Users\stapi\AppData\Local\Temp\ccemRRQg.s:8583   .debug_loc:0000000000000f6e .LLST4
C:\Users\stapi\AppData\Local\Temp\ccemRRQg.s:8590   .debug_loc:0000000000000f81 .LLST5
C:\Users\stapi\AppData\Local\Temp\ccemRRQg.s:113    .text.pkcs5_is_oid:000000000000001c .LVL10
C:\Users\stapi\AppData\Local\Temp\ccemRRQg.s:158    .text.digest_alg_is_oid:0000000000000000 .LFB450
C:\Users\stapi\AppData\Local\Temp\ccemRRQg.s:216    .text.digest_alg_is_oid:000000000000003c .LFE450
C:\Users\stapi\AppData\Local\Temp\ccemRRQg.s:8597   .debug_loc:0000000000000f94 .LLST6
C:\Users\stapi\AppData\Local\Temp\ccemRRQg.s:8619   .debug_loc:0000000000000fcb .LLST7
C:\Users\stapi\AppData\Local\Temp\ccemRRQg.s:181    .text.digest_alg_is_oid:000000000000001e .LBB14
C:\Users\stapi\AppData\Local\Temp\ccemRRQg.s:8634   .debug_loc:0000000000000ff4 .LLST8
C:\Users\stapi\AppData\Local\Temp\ccemRRQg.s:8641   .debug_loc:0000000000001007 .LLST9
C:\Users\stapi\AppData\Local\Temp\ccemRRQg.s:177    .text.digest_alg_is_oid:000000000000001c .LVL16
C:\Users\stapi\AppData\Local\Temp\ccemRRQg.s:8931   .debug_str:0000000000000668 .LASF115
C:\Users\stapi\AppData\Local\Temp\ccemRRQg.s:9037   .debug_str:0000000000000919 .LASF116
C:\Users\stapi\AppData\Local\Temp\ccemRRQg.s:8979   .debug_str:000000000000077c .LASF117
C:\Users\stapi\AppData\Local\Temp\ccemRRQg.s:8837   .debug_str:0000000000000233 .LASF118
C:\Users\stapi\AppData\Local\Temp\ccemRRQg.s:8859   .debug_str:00000000000002d7 .LASF119
C:\Users\stapi\AppData\Local\Temp\ccemRRQg.s:8981   .debug_str:0000000000000789 .LASF120
C:\Users\stapi\AppData\Local\Temp\ccemRRQg.s:8893   .debug_str:0000000000000552 .LASF121
C:\Users\stapi\AppData\Local\Temp\ccemRRQg.s:8825   .debug_str:00000000000001df .LASF122
C:\Users\stapi\AppData\Local\Temp\ccemRRQg.s:9027   .debug_str:00000000000008d4 .LASF123
C:\Users\stapi\AppData\Local\Temp\ccemRRQg.s:9025   .debug_str:00000000000008be .LASF124
C:\Users\stapi\AppData\Local\Temp\ccemRRQg.s:8851   .debug_str:000000000000029d .LASF125
C:\Users\stapi\AppData\Local\Temp\ccemRRQg.s:9007   .debug_str:0000000000000836 .LASF126
C:\Users\stapi\AppData\Local\Temp\ccemRRQg.s:8857   .debug_str:00000000000002c6 .LASF127
C:\Users\stapi\AppData\Local\Temp\ccemRRQg.s:8895   .debug_str:000000000000055c .LASF128
C:\Users\stapi\AppData\Local\Temp\ccemRRQg.s:8903   .debug_str:000000000000059e .LASF129
C:\Users\stapi\AppData\Local\Temp\ccemRRQg.s:8989   .debug_str:00000000000007c0 .LASF130
C:\Users\stapi\AppData\Local\Temp\ccemRRQg.s:8929   .debug_str:000000000000065e .LASF131
C:\Users\stapi\AppData\Local\Temp\ccemRRQg.s:8867   .debug_str:0000000000000306 .LASF132
C:\Users\stapi\AppData\Local\Temp\ccemRRQg.s:8873   .debug_str:0000000000000414 .LASF133
C:\Users\stapi\AppData\Local\Temp\ccemRRQg.s:8887   .debug_str:000000000000051d .LASF134
C:\Users\stapi\AppData\Local\Temp\ccemRRQg.s:8783   .debug_str:000000000000002e .LASF135
C:\Users\stapi\AppData\Local\Temp\ccemRRQg.s:9039   .debug_str:0000000000000927 .LASF136
C:\Users\stapi\AppData\Local\Temp\ccemRRQg.s:8935   .debug_str:0000000000000683 .LASF137
C:\Users\stapi\AppData\Local\Temp\ccemRRQg.s:8861   .debug_str:00000000000002e1 .LASF138
C:\Users\stapi\AppData\Local\Temp\ccemRRQg.s:771    .text.pkcs5_decrypt:0000000000000000 .LVL76
C:\Users\stapi\AppData\Local\Temp\ccemRRQg.s:823    .text.pkcs5_decrypt:000000000000001c .LVL82
C:\Users\stapi\AppData\Local\Temp\ccemRRQg.s:848    .text.pkcs5_decrypt:0000000000000044 .LVL85
C:\Users\stapi\AppData\Local\Temp\ccemRRQg.s:877    .text.pkcs5_decrypt:0000000000000066 .LVL89
C:\Users\stapi\AppData\Local\Temp\ccemRRQg.s:961    .text.pkcs5_decrypt:00000000000000ec .LVL99
C:\Users\stapi\AppData\Local\Temp\ccemRRQg.s:966    .text.pkcs5_decrypt:00000000000000f0 .LVL100
C:\Users\stapi\AppData\Local\Temp\ccemRRQg.s:1018   .text.pkcs5_decrypt:0000000000000122 .LVL107
C:\Users\stapi\AppData\Local\Temp\ccemRRQg.s:1031   .text.pkcs5_decrypt:000000000000012e .LVL110
C:\Users\stapi\AppData\Local\Temp\ccemRRQg.s:1041   .text.pkcs5_decrypt:000000000000013c .LVL111
C:\Users\stapi\AppData\Local\Temp\ccemRRQg.s:1046   .text.pkcs5_decrypt:0000000000000140 .LVL112
C:\Users\stapi\AppData\Local\Temp\ccemRRQg.s:1102   .text.pkcs5_decrypt:0000000000000188 .LVL118
C:\Users\stapi\AppData\Local\Temp\ccemRRQg.s:1854   .text.pkcs5_decrypt:0000000000000672 .LVL196
C:\Users\stapi\AppData\Local\Temp\ccemRRQg.s:1876   .text.pkcs5_decrypt:0000000000000690 .LVL198
C:\Users\stapi\AppData\Local\Temp\ccemRRQg.s:819    .text.pkcs5_decrypt:0000000000000016 .LVL80
C:\Users\stapi\AppData\Local\Temp\ccemRRQg.s:1139   .text.pkcs5_decrypt:00000000000001d8 .LVL123
C:\Users\stapi\AppData\Local\Temp\ccemRRQg.s:1152   .text.pkcs5_decrypt:00000000000001e4 .LVL126
C:\Users\stapi\AppData\Local\Temp\ccemRRQg.s:1204   .text.pkcs5_decrypt:000000000000022e .LVL132
C:\Users\stapi\AppData\Local\Temp\ccemRRQg.s:2044   .text.pkcs5_decrypt:00000000000007b0 .LVL211
C:\Users\stapi\AppData\Local\Temp\ccemRRQg.s:821    .text.pkcs5_decrypt:000000000000001a .LVL81
C:\Users\stapi\AppData\Local\Temp\ccemRRQg.s:865    .text.pkcs5_decrypt:0000000000000056 .LVL87
C:\Users\stapi\AppData\Local\Temp\ccemRRQg.s:1818   .text.pkcs5_decrypt:0000000000000636 .LVL191
C:\Users\stapi\AppData\Local\Temp\ccemRRQg.s:2157   .text.pkcs5_decrypt:0000000000000834 .LVL225
C:\Users\stapi\AppData\Local\Temp\ccemRRQg.s:2226   .text.pkcs5_decrypt:00000000000008b0 .LVL232
C:\Users\stapi\AppData\Local\Temp\ccemRRQg.s:1826   .text.pkcs5_decrypt:0000000000000640 .LVL193
C:\Users\stapi\AppData\Local\Temp\ccemRRQg.s:2298   .text.pkcs5_decrypt:0000000000000924 .LVL239
C:\Users\stapi\AppData\Local\Temp\ccemRRQg.s:2334   .text.pkcs5_decrypt:0000000000000948 .LVL243
C:\Users\stapi\AppData\Local\Temp\ccemRRQg.s:2364   .text.pkcs5_decrypt:0000000000000986 .LVL248
C:\Users\stapi\AppData\Local\Temp\ccemRRQg.s:2380   .text.pkcs5_decrypt:000000000000099e .LVL251
C:\Users\stapi\AppData\Local\Temp\ccemRRQg.s:2308   .text.pkcs5_decrypt:0000000000000930 .LVL241
C:\Users\stapi\AppData\Local\Temp\ccemRRQg.s:2374   .text.pkcs5_decrypt:0000000000000998 .LVL250
C:\Users\stapi\AppData\Local\Temp\ccemRRQg.s:2393   .text.pkcs5_decrypt:00000000000009ba .LVL253
C:\Users\stapi\AppData\Local\Temp\ccemRRQg.s:2409   .text.pkcs5_decrypt:00000000000009de .LVL255
C:\Users\stapi\AppData\Local\Temp\ccemRRQg.s:2422   .text.pkcs5_decrypt:00000000000009ea .LVL257
C:\Users\stapi\AppData\Local\Temp\ccemRRQg.s:792    .text.pkcs5_decrypt:000000000000000a .LVL78
C:\Users\stapi\AppData\Local\Temp\ccemRRQg.s:1384   .text.pkcs5_decrypt:000000000000033a .LVL147
C:\Users\stapi\AppData\Local\Temp\ccemRRQg.s:788    .text.pkcs5_decrypt:0000000000000008 .LVL77
C:\Users\stapi\AppData\Local\Temp\ccemRRQg.s:809    .text.pkcs5_decrypt:0000000000000012 .LVL79
C:\Users\stapi\AppData\Local\Temp\ccemRRQg.s:1001   .text.pkcs5_decrypt:000000000000010e .LVL105
C:\Users\stapi\AppData\Local\Temp\ccemRRQg.s:1022   .text.pkcs5_decrypt:0000000000000124 .LVL108
C:\Users\stapi\AppData\Local\Temp\ccemRRQg.s:1051   .text.pkcs5_decrypt:0000000000000144 .LVL113
C:\Users\stapi\AppData\Local\Temp\ccemRRQg.s:1143   .text.pkcs5_decrypt:00000000000001da .LVL124
C:\Users\stapi\AppData\Local\Temp\ccemRRQg.s:1300   .text.pkcs5_decrypt:00000000000002ce .LVL140
C:\Users\stapi\AppData\Local\Temp\ccemRRQg.s:1308   .text.pkcs5_decrypt:00000000000002d8 .LVL141
C:\Users\stapi\AppData\Local\Temp\ccemRRQg.s:1374   .text.pkcs5_decrypt:000000000000032e .LVL145
C:\Users\stapi\AppData\Local\Temp\ccemRRQg.s:999    .text.pkcs5_decrypt:000000000000010c .LVL104
C:\Users\stapi\AppData\Local\Temp\ccemRRQg.s:1070   .text.pkcs5_decrypt:0000000000000158 .LVL115
C:\Users\stapi\AppData\Local\Temp\ccemRRQg.s:1189   .text.pkcs5_decrypt:000000000000021a .LVL129
C:\Users\stapi\AppData\Local\Temp\ccemRRQg.s:1428   .text.pkcs5_decrypt:0000000000000378 .LVL150
C:\Users\stapi\AppData\Local\Temp\ccemRRQg.s:1561   .text.pkcs5_decrypt:000000000000045a .LVL162
C:\Users\stapi\AppData\Local\Temp\ccemRRQg.s:1196   .text.pkcs5_decrypt:0000000000000226 .LVL131
C:\Users\stapi\AppData\Local\Temp\ccemRRQg.s:1207   .text.pkcs5_decrypt:0000000000000234 .LVL133
C:\Users\stapi\AppData\Local\Temp\ccemRRQg.s:1255   .text.pkcs5_decrypt:0000000000000288 .LVL137
C:\Users\stapi\AppData\Local\Temp\ccemRRQg.s:1265   .text.pkcs5_decrypt:0000000000000296 .LVL138
C:\Users\stapi\AppData\Local\Temp\ccemRRQg.s:1609   .text.pkcs5_decrypt:00000000000004bc .LVL168
C:\Users\stapi\AppData\Local\Temp\ccemRRQg.s:1596   .text.pkcs5_decrypt:000000000000049e .LVL166
C:\Users\stapi\AppData\Local\Temp\ccemRRQg.s:1641   .text.pkcs5_decrypt:00000000000004ec .LVL171
C:\Users\stapi\AppData\Local\Temp\ccemRRQg.s:1651   .text.pkcs5_decrypt:00000000000004fa .LVL172
C:\Users\stapi\AppData\Local\Temp\ccemRRQg.s:901    .text.pkcs5_decrypt:000000000000008e .LVL92
C:\Users\stapi\AppData\Local\Temp\ccemRRQg.s:917    .text.pkcs5_decrypt:00000000000000a4 .LVL95
C:\Users\stapi\AppData\Local\Temp\ccemRRQg.s:937    .text.pkcs5_decrypt:00000000000000cc .LVL97
C:\Users\stapi\AppData\Local\Temp\ccemRRQg.s:974    .text.pkcs5_decrypt:00000000000000f4 .LVL101
C:\Users\stapi\AppData\Local\Temp\ccemRRQg.s:980    .text.pkcs5_decrypt:00000000000000fe .LVL103
C:\Users\stapi\AppData\Local\Temp\ccemRRQg.s:907    .text.pkcs5_decrypt:0000000000000098 .LVL94
C:\Users\stapi\AppData\Local\Temp\ccemRRQg.s:1883   .text.pkcs5_decrypt:000000000000069c .LVL200
C:\Users\stapi\AppData\Local\Temp\ccemRRQg.s:1893   .text.pkcs5_decrypt:00000000000006ac .LVL201
C:\Users\stapi\AppData\Local\Temp\ccemRRQg.s:1941   .text.pkcs5_decrypt:0000000000000706 .LVL205
C:\Users\stapi\AppData\Local\Temp\ccemRRQg.s:1951   .text.pkcs5_decrypt:0000000000000716 .LVL206
C:\Users\stapi\AppData\Local\Temp\ccemRRQg.s:2253   .text.pkcs5_decrypt:00000000000008ce .LVL234
C:\Users\stapi\AppData\Local\Temp\ccemRRQg.s:1697   .text.pkcs5_decrypt:0000000000000534 .LVL175
C:\Users\stapi\AppData\Local\Temp\ccemRRQg.s:1810   .text.pkcs5_decrypt:0000000000000634 .LVL190
C:\Users\stapi\AppData\Local\Temp\ccemRRQg.s:1759   .text.pkcs5_decrypt:00000000000005c0 .LVL183
C:\Users\stapi\AppData\Local\Temp\ccemRRQg.s:1767   .text.pkcs5_decrypt:00000000000005c8 .LVL184
C:\Users\stapi\AppData\Local\Temp\ccemRRQg.s:1748   .text.pkcs5_decrypt:00000000000005aa .LVL180
C:\Users\stapi\AppData\Local\Temp\ccemRRQg.s:2055   .text.pkcs5_decrypt:00000000000007b6 .LVL212
C:\Users\stapi\AppData\Local\Temp\ccemRRQg.s:2202   .text.pkcs5_decrypt:0000000000000894 .LVL230
C:\Users\stapi\AppData\Local\Temp\ccemRRQg.s:2095   .text.pkcs5_decrypt:00000000000007e0 .LVL217
C:\Users\stapi\AppData\Local\Temp\ccemRRQg.s:2124   .text.pkcs5_decrypt:00000000000007fe .LVL221
C:\Users\stapi\AppData\Local\Temp\ccemRRQg.s:2084   .text.pkcs5_decrypt:00000000000007d8 .LVL216
C:\Users\stapi\AppData\Local\Temp\ccemRRQg.s:2136   .text.pkcs5_decrypt:0000000000000814 .LVL222
C:\Users\stapi\AppData\Local\Temp\ccemRRQg.s:2074   .text.pkcs5_decrypt:00000000000007c6 .LVL214
C:\Users\stapi\AppData\Local\Temp\ccemRRQg.s:2101   .text.pkcs5_decrypt:00000000000007e8 .LVL218
C:\Users\stapi\AppData\Local\Temp\ccemRRQg.s:2111   .text.pkcs5_decrypt:00000000000007f4 .LVL219
C:\Users\stapi\AppData\Local\Temp\ccemRRQg.s:225    .text.pkcs12_key_gen:0000000000000000 .LVL21
C:\Users\stapi\AppData\Local\Temp\ccemRRQg.s:247    .text.pkcs12_key_gen:0000000000000010 .LVL22
C:\Users\stapi\AppData\Local\Temp\ccemRRQg.s:279    .text.pkcs12_key_gen:000000000000002e .LVL27
C:\Users\stapi\AppData\Local\Temp\ccemRRQg.s:320    .text.pkcs12_key_gen:000000000000005c .LVL33
C:\Users\stapi\AppData\Local\Temp\ccemRRQg.s:398    .text.pkcs12_key_gen:00000000000000be .LVL47
C:\Users\stapi\AppData\Local\Temp\ccemRRQg.s:480    .text.pkcs12_key_gen:0000000000000110 .LVL55
C:\Users\stapi\AppData\Local\Temp\ccemRRQg.s:508    .text.pkcs12_key_gen:000000000000012e .LVL59
C:\Users\stapi\AppData\Local\Temp\ccemRRQg.s:282    .text.pkcs12_key_gen:0000000000000030 .LVL28
C:\Users\stapi\AppData\Local\Temp\ccemRRQg.s:394    .text.pkcs12_key_gen:00000000000000bc .LVL46
C:\Users\stapi\AppData\Local\Temp\ccemRRQg.s:285    .text.pkcs12_key_gen:0000000000000032 .LVL29
C:\Users\stapi\AppData\Local\Temp\ccemRRQg.s:410    .text.pkcs12_key_gen:00000000000000c8 .LVL49
C:\Users\stapi\AppData\Local\Temp\ccemRRQg.s:402    .text.pkcs12_key_gen:00000000000000c2 .LVL48
C:\Users\stapi\AppData\Local\Temp\ccemRRQg.s:422    .text.pkcs12_key_gen:00000000000000d8 .LVL50
C:\Users\stapi\AppData\Local\Temp\ccemRRQg.s:537    .text.pkcs12_key_gen:0000000000000156 .LVL63
C:\Users\stapi\AppData\Local\Temp\ccemRRQg.s:624    .text.pkcs12_key_gen:00000000000001ba .LVL75
C:\Users\stapi\AppData\Local\Temp\ccemRRQg.s:359    .text.pkcs12_key_gen:0000000000000094 .LVL38
C:\Users\stapi\AppData\Local\Temp\ccemRRQg.s:366    .text.pkcs12_key_gen:000000000000009a .LVL39
C:\Users\stapi\AppData\Local\Temp\ccemRRQg.s:373    .text.pkcs12_key_gen:00000000000000a4 .LVL40
C:\Users\stapi\AppData\Local\Temp\ccemRRQg.s:380    .text.pkcs12_key_gen:00000000000000ac .LVL42
C:\Users\stapi\AppData\Local\Temp\ccemRRQg.s:456    .text.pkcs12_key_gen:00000000000000f2 .LVL52
C:\Users\stapi\AppData\Local\Temp\ccemRRQg.s:459    .text.pkcs12_key_gen:00000000000000f4 .LVL53
C:\Users\stapi\AppData\Local\Temp\ccemRRQg.s:493    .text.pkcs12_key_gen:0000000000000120 .LVL56
C:\Users\stapi\AppData\Local\Temp\ccemRRQg.s:497    .text.pkcs12_key_gen:0000000000000124 .LVL57
C:\Users\stapi\AppData\Local\Temp\ccemRRQg.s:503    .text.pkcs12_key_gen:000000000000012a .LVL58
C:\Users\stapi\AppData\Local\Temp\ccemRRQg.s:546    .text.pkcs12_key_gen:000000000000015e .LVL64
C:\Users\stapi\AppData\Local\Temp\ccemRRQg.s:559    .text.pkcs12_key_gen:0000000000000170 .LVL65
C:\Users\stapi\AppData\Local\Temp\ccemRRQg.s:563    .text.pkcs12_key_gen:0000000000000174 .LVL66
C:\Users\stapi\AppData\Local\Temp\ccemRRQg.s:575    .text.pkcs12_key_gen:0000000000000188 .LVL68
C:\Users\stapi\AppData\Local\Temp\ccemRRQg.s:257    .text.pkcs12_key_gen:000000000000001c .LVL23
C:\Users\stapi\AppData\Local\Temp\ccemRRQg.s:271    .text.pkcs12_key_gen:000000000000002a .LVL25
C:\Users\stapi\AppData\Local\Temp\ccemRRQg.s:275    .text.pkcs12_key_gen:000000000000002c .LVL26
C:\Users\stapi\AppData\Local\Temp\ccemRRQg.s:346    .text.pkcs12_key_gen:0000000000000088 .LVL36
C:\Users\stapi\AppData\Local\Temp\ccemRRQg.s:390    .text.pkcs12_key_gen:00000000000000b2 .LVL44
C:\Users\stapi\AppData\Local\Temp\ccemRRQg.s:351    .text.pkcs12_key_gen:000000000000008a .LVL37
C:\Users\stapi\AppData\Local\Temp\ccemRRQg.s:377    .text.pkcs12_key_gen:00000000000000a8 .LVL41
C:\Users\stapi\AppData\Local\Temp\ccemRRQg.s:385    .text.pkcs12_key_gen:00000000000000ae .LVL43
C:\Users\stapi\AppData\Local\Temp\ccemRRQg.s:588    .text.pkcs12_key_gen:0000000000000196 .LVL69
C:\Users\stapi\AppData\Local\Temp\ccemRRQg.s:598    .text.pkcs12_key_gen:00000000000001a4 .LVL70
C:\Users\stapi\AppData\Local\Temp\ccemRRQg.s:611    .text.pkcs12_key_gen:00000000000001b0 .LVL72
C:\Users\stapi\AppData\Local\Temp\ccemRRQg.s:616    .text.pkcs12_key_gen:00000000000001b4 .LVL73
C:\Users\stapi\AppData\Local\Temp\ccemRRQg.s:46     .text.oid_is_rsadsi:0000000000000000 .LVL4
C:\Users\stapi\AppData\Local\Temp\ccemRRQg.s:60     .text.oid_is_rsadsi:0000000000000010 .LVL5
C:\Users\stapi\AppData\Local\Temp\ccemRRQg.s:74     .text.oid_is_rsadsi:000000000000002a .LVL6
C:\Users\stapi\AppData\Local\Temp\ccemRRQg.s:79     .text.oid_is_rsadsi:0000000000000036 .LVL7
C:\Users\stapi\AppData\Local\Temp\ccemRRQg.s:83     .text.oid_is_rsadsi:0000000000000038 .LVL8
C:\Users\stapi\AppData\Local\Temp\ccemRRQg.s:17     .text.asn1_is_sequence:0000000000000000 .LVL0
C:\Users\stapi\AppData\Local\Temp\ccemRRQg.s:24     .text.asn1_is_sequence:0000000000000008 .LVL1
C:\Users\stapi\AppData\Local\Temp\ccemRRQg.s:28     .text.asn1_is_sequence:0000000000000010 .LVL2
C:\Users\stapi\AppData\Local\Temp\ccemRRQg.s:32     .text.asn1_is_sequence:0000000000000012 .LVL3
C:\Users\stapi\AppData\Local\Temp\ccemRRQg.s:97     .text.pkcs5_is_oid:0000000000000000 .LVL9
C:\Users\stapi\AppData\Local\Temp\ccemRRQg.s:144    .text.pkcs5_is_oid:0000000000000040 .LVL13
C:\Users\stapi\AppData\Local\Temp\ccemRRQg.s:148    .text.pkcs5_is_oid:0000000000000042 .LVL14
C:\Users\stapi\AppData\Local\Temp\ccemRRQg.s:123    .text.pkcs5_is_oid:0000000000000028 .LVL11
C:\Users\stapi\AppData\Local\Temp\ccemRRQg.s:134    .text.pkcs5_is_oid:0000000000000038 .LVL12
C:\Users\stapi\AppData\Local\Temp\ccemRRQg.s:161    .text.digest_alg_is_oid:0000000000000000 .LVL15
C:\Users\stapi\AppData\Local\Temp\ccemRRQg.s:208    .text.digest_alg_is_oid:0000000000000038 .LVL19
C:\Users\stapi\AppData\Local\Temp\ccemRRQg.s:212    .text.digest_alg_is_oid:000000000000003a .LVL20
C:\Users\stapi\AppData\Local\Temp\ccemRRQg.s:180    .text.digest_alg_is_oid:000000000000001e .LVL17
C:\Users\stapi\AppData\Local\Temp\ccemRRQg.s:198    .text.digest_alg_is_oid:0000000000000030 .LVL18
C:\Users\stapi\AppData\Local\Temp\ccemRRQg.s:2449   .debug_info:0000000000000000 .Ldebug_info0
C:\Users\stapi\AppData\Local\Temp\ccemRRQg.s:187    .text.digest_alg_is_oid:0000000000000022 .LBE14
C:\Users\stapi\AppData\Local\Temp\ccemRRQg.s:190    .text.digest_alg_is_oid:0000000000000024 .LBB17
C:\Users\stapi\AppData\Local\Temp\ccemRRQg.s:201    .text.digest_alg_is_oid:0000000000000030 .LBE17
C:\Users\stapi\AppData\Local\Temp\ccemRRQg.s:403    .text.pkcs12_key_gen:00000000000000c2 .LBB21
C:\Users\stapi\AppData\Local\Temp\ccemRRQg.s:423    .text.pkcs12_key_gen:00000000000000d8 .LBE21
C:\Users\stapi\AppData\Local\Temp\ccemRRQg.s:425    .text.pkcs12_key_gen:00000000000000d8 .LBB26
C:\Users\stapi\AppData\Local\Temp\ccemRRQg.s:482    .text.pkcs12_key_gen:0000000000000110 .LBE26
C:\Users\stapi\AppData\Local\Temp\ccemRRQg.s:510    .text.pkcs12_key_gen:000000000000012e .LBB27
C:\Users\stapi\AppData\Local\Temp\ccemRRQg.s:626    .text.pkcs12_key_gen:00000000000001ba .LBE27
C:\Users\stapi\AppData\Local\Temp\ccemRRQg.s:413    .text.pkcs12_key_gen:00000000000000c8 .LBE22
C:\Users\stapi\AppData\Local\Temp\ccemRRQg.s:581    .text.pkcs12_key_gen:0000000000000190 .LBB25
C:\Users\stapi\AppData\Local\Temp\ccemRRQg.s:618    .text.pkcs12_key_gen:00000000000001b4 .LBE25
C:\Users\stapi\AppData\Local\Temp\ccemRRQg.s:801    .text.pkcs5_decrypt:000000000000000a .LBE64
C:\Users\stapi\AppData\Local\Temp\ccemRRQg.s:805    .text.pkcs5_decrypt:000000000000000e .LBB111
C:\Users\stapi\AppData\Local\Temp\ccemRRQg.s:812    .text.pkcs5_decrypt:0000000000000012 .LBE111
C:\Users\stapi\AppData\Local\Temp\ccemRRQg.s:815    .text.pkcs5_decrypt:0000000000000014 .LBB112
C:\Users\stapi\AppData\Local\Temp\ccemRRQg.s:825    .text.pkcs5_decrypt:000000000000001c .LBE112
C:\Users\stapi\AppData\Local\Temp\ccemRRQg.s:830    .text.pkcs5_decrypt:0000000000000022 .LBB113
C:\Users\stapi\AppData\Local\Temp\ccemRRQg.s:861    .text.pkcs5_decrypt:000000000000004e .LBE113
C:\Users\stapi\AppData\Local\Temp\ccemRRQg.s:879    .text.pkcs5_decrypt:0000000000000066 .LBB114
C:\Users\stapi\AppData\Local\Temp\ccemRRQg.s:1325   .text.pkcs5_decrypt:00000000000002e6 .LBE114
C:\Users\stapi\AppData\Local\Temp\ccemRRQg.s:1328   .text.pkcs5_decrypt:00000000000002e6 .LBB115
C:\Users\stapi\AppData\Local\Temp\ccemRRQg.s:1351   .text.pkcs5_decrypt:0000000000000304 .LBE115
C:\Users\stapi\AppData\Local\Temp\ccemRRQg.s:1367   .text.pkcs5_decrypt:0000000000000326 .LBB116
C:\Users\stapi\AppData\Local\Temp\ccemRRQg.s:1682   .text.pkcs5_decrypt:000000000000052a .LBE116
C:\Users\stapi\AppData\Local\Temp\ccemRRQg.s:1856   .text.pkcs5_decrypt:0000000000000672 .LBB131
C:\Users\stapi\AppData\Local\Temp\ccemRRQg.s:2000   .text.pkcs5_decrypt:0000000000000764 .LBE131
C:\Users\stapi\AppData\Local\Temp\ccemRRQg.s:2002   .text.pkcs5_decrypt:0000000000000764 .LBB132
C:\Users\stapi\AppData\Local\Temp\ccemRRQg.s:2022   .text.pkcs5_decrypt:0000000000000784 .LBE132
C:\Users\stapi\AppData\Local\Temp\ccemRRQg.s:2038   .text.pkcs5_decrypt:00000000000007a6 .LBB133
C:\Users\stapi\AppData\Local\Temp\ccemRRQg.s:2047   .text.pkcs5_decrypt:00000000000007b0 .LBE133
C:\Users\stapi\AppData\Local\Temp\ccemRRQg.s:859    .text.pkcs5_decrypt:000000000000004e .LBE66
C:\Users\stapi\AppData\Local\Temp\ccemRRQg.s:987    .text.pkcs5_decrypt:0000000000000102 .LBB90
C:\Users\stapi\AppData\Local\Temp\ccemRRQg.s:993    .text.pkcs5_decrypt:0000000000000108 .LBE90
C:\Users\stapi\AppData\Local\Temp\ccemRRQg.s:1002   .text.pkcs5_decrypt:000000000000010e .LBB91
C:\Users\stapi\AppData\Local\Temp\ccemRRQg.s:1025   .text.pkcs5_decrypt:0000000000000124 .LBE91
C:\Users\stapi\AppData\Local\Temp\ccemRRQg.s:1053   .text.pkcs5_decrypt:0000000000000144 .LBB92
C:\Users\stapi\AppData\Local\Temp\ccemRRQg.s:1146   .text.pkcs5_decrypt:00000000000001da .LBE92
C:\Users\stapi\AppData\Local\Temp\ccemRRQg.s:1154   .text.pkcs5_decrypt:00000000000001e4 .LBB93
C:\Users\stapi\AppData\Local\Temp\ccemRRQg.s:1303   .text.pkcs5_decrypt:00000000000002ce .LBE93
C:\Users\stapi\AppData\Local\Temp\ccemRRQg.s:1310   .text.pkcs5_decrypt:00000000000002d8 .LBB94
C:\Users\stapi\AppData\Local\Temp\ccemRRQg.s:1323   .text.pkcs5_decrypt:00000000000002e6 .LBE94
C:\Users\stapi\AppData\Local\Temp\ccemRRQg.s:1330   .text.pkcs5_decrypt:00000000000002e6 .LBB95
C:\Users\stapi\AppData\Local\Temp\ccemRRQg.s:1349   .text.pkcs5_decrypt:0000000000000304 .LBE95
C:\Users\stapi\AppData\Local\Temp\ccemRRQg.s:1369   .text.pkcs5_decrypt:0000000000000326 .LBB96
C:\Users\stapi\AppData\Local\Temp\ccemRRQg.s:1377   .text.pkcs5_decrypt:000000000000032e .LBE96
C:\Users\stapi\AppData\Local\Temp\ccemRRQg.s:1386   .text.pkcs5_decrypt:000000000000033a .LBB97
C:\Users\stapi\AppData\Local\Temp\ccemRRQg.s:1680   .text.pkcs5_decrypt:000000000000052a .LBE97
C:\Users\stapi\AppData\Local\Temp\ccemRRQg.s:942    .text.pkcs5_decrypt:00000000000000cc .LBE84
C:\Users\stapi\AppData\Local\Temp\ccemRRQg.s:968    .text.pkcs5_decrypt:00000000000000f0 .LBB89
C:\Users\stapi\AppData\Local\Temp\ccemRRQg.s:982    .text.pkcs5_decrypt:00000000000000fe .LBE89
C:\Users\stapi\AppData\Local\Temp\ccemRRQg.s:1828   .text.pkcs5_decrypt:0000000000000640 .LBE117
C:\Users\stapi\AppData\Local\Temp\ccemRRQg.s:2048   .text.pkcs5_decrypt:00000000000007b0 .LBB134
C:\Users\stapi\AppData\Local\Temp\ccemRRQg.s:2150   .text.pkcs5_decrypt:000000000000082a .LBE134
C:\Users\stapi\AppData\Local\Temp\ccemRRQg.s:2159   .text.pkcs5_decrypt:0000000000000834 .LBB135
C:\Users\stapi\AppData\Local\Temp\ccemRRQg.s:2301   .text.pkcs5_decrypt:0000000000000924 .LBE135
C:\Users\stapi\AppData\Local\Temp\ccemRRQg.s:1821   .text.pkcs5_decrypt:0000000000000636 .LBE121
C:\Users\stapi\AppData\Local\Temp\ccemRRQg.s:2056   .text.pkcs5_decrypt:00000000000007b6 .LBB127
C:\Users\stapi\AppData\Local\Temp\ccemRRQg.s:2148   .text.pkcs5_decrypt:000000000000082a .LBE127
C:\Users\stapi\AppData\Local\Temp\ccemRRQg.s:2161   .text.pkcs5_decrypt:0000000000000834 .LBB128
C:\Users\stapi\AppData\Local\Temp\ccemRRQg.s:2205   .text.pkcs5_decrypt:0000000000000894 .LBE128

UNDEFINED SYMBOLS
__riscv_save_2
__riscv_restore_2
__riscv_save_12
os_malloc
os_free
__riscv_restore_12
os_memset
sha1_vector
os_memcpy
inc_byte_array
__riscv_save_8
asn1_get_oid
wpa_printf
asn1_oid_to_str
asn1_get_next
asn1_unexpected
wpa_hexdump
os_strlen
wpa_hexdump_ascii_key
mbedtls_md_init
mbedtls_md_info_from_type
mbedtls_md_setup
strlen
mbedtls_pkcs5_pbkdf2_hmac
wpa_hexdump_key
crypto_cipher_init
crypto_cipher_deinit
md5_vector
__riscv_restore_8
crypto_cipher_decrypt
