   1              		.file	"pkcs8.c"
   2              		.option nopic
   3              		.attribute arch, "rv32i2p0_m2p0_a2p0_f2p0_c2p0_b_p0p94"
   4              		.attribute unaligned_access, 0
   5              		.attribute stack_align, 16
   6              		.text
   7              	.Ltext0:
   8              		.cfi_sections	.debug_frame
   9              		.section	.rodata.pkcs8_key_import.str1.4,"aMS",@progbits,1
  10              		.align	2
  11              	.LC0:
  12 0000 504B4353 		.string	"PKCS #8: Does not start with PKCS #8 header (SEQUENCE)"
  12      2023383A 
  12      20446F65 
  12      73206E6F 
  12      74207374 
  13 0037 00       		.align	2
  14              	.LC1:
  15 0038 504B4353 		.string	"PKCS #8: Expected INTEGER"
  15      2023383A 
  15      20457870 
  15      65637465 
  15      6420494E 
  16 0052 0000     		.align	2
  17              	.LC2:
  18 0054 504B4353 		.string	"PKCS #8: Failed to parse INTEGER"
  18      2023383A 
  18      20466169 
  18      6C656420 
  18      746F2070 
  19 0075 000000   		.align	2
  20              	.LC3:
  21 0078 504B4353 		.string	"PKCS #8: Expected zero INTEGER in the beginning of private key; not found; assume PKCS #8
  21      2023383A 
  21      20457870 
  21      65637465 
  21      64207A65 
  22 00db 00       		.align	2
  23              	.LC4:
  24 00dc 504B4353 		.string	"PKCS #8: Expected SEQUENCE (AlgorithmIdentifier); assume PKCS #8 not used"
  24      2023383A 
  24      20457870 
  24      65637465 
  24      64205345 
  25 0126 0000     		.align	2
  26              	.LC5:
  27 0128 504B4353 		.string	"PKCS #8: Failed to parse OID (algorithm); assume PKCS #8 not used"
  27      2023383A 
  27      20466169 
  27      6C656420 
  27      746F2070 
  28 016a 0000     		.align	2
  29              	.LC6:
  30 016c 504B4353 		.string	"PKCS #8: algorithm=%s"
  30      2023383A 
  30      20616C67 
  30      6F726974 
  30      686D3D25 
  31 0182 0000     		.align	2
  32              	.LC7:
  33 0184 504B4353 		.string	"PKCS #8: Unsupported private key algorithm %s"
  33      2023383A 
  33      20556E73 
  33      7570706F 
  33      72746564 
  34 01b2 0000     		.align	2
  35              	.LC8:
  36 01b4 504B4353 		.string	"PKCS #8: Try to parse RSAPrivateKey"
  36      2023383A 
  36      20547279 
  36      20746F20 
  36      70617273 
  37              		.align	2
  38              	.LC9:
  39 01d8 504B4353 		.string	"PKCS #8: Expected OCTETSTRING (privateKey)"
  39      2023383A 
  39      20457870 
  39      65637465 
  39      64204F43 
  40              		.section	.text.pkcs8_key_import,"ax",@progbits
  41              		.align	1
  42              		.globl	pkcs8_key_import
  44              	pkcs8_key_import:
  45              	.LFB86:
  46              		.file 1 "C:/Users/stapi/OneDrive/Desktop/GD32VW553/V1_MQTT_OK/GD32VW55X_Wifi_BLE_SDK/GD32VW55x_REL
   1:C:/Users/stapi/OneDrive/Desktop/GD32VW553/V1_MQTT_OK/GD32VW55X_Wifi_BLE_SDK/GD32VW55x_RELEASE_V1.0.2/MSDK/wpa_supplicant/src/tls\pkcs8.c **** /*
   2:C:/Users/stapi/OneDrive/Desktop/GD32VW553/V1_MQTT_OK/GD32VW55X_Wifi_BLE_SDK/GD32VW55x_RELEASE_V1.0.2/MSDK/wpa_supplicant/src/tls\pkcs8.c ****  * PKCS #8 (Private-key information syntax)
   3:C:/Users/stapi/OneDrive/Desktop/GD32VW553/V1_MQTT_OK/GD32VW55X_Wifi_BLE_SDK/GD32VW55x_RELEASE_V1.0.2/MSDK/wpa_supplicant/src/tls\pkcs8.c ****  * Copyright (c) 2006-2009, Jouni Malinen <j@w1.fi>
   4:C:/Users/stapi/OneDrive/Desktop/GD32VW553/V1_MQTT_OK/GD32VW55X_Wifi_BLE_SDK/GD32VW55x_RELEASE_V1.0.2/MSDK/wpa_supplicant/src/tls\pkcs8.c ****  *
   5:C:/Users/stapi/OneDrive/Desktop/GD32VW553/V1_MQTT_OK/GD32VW55X_Wifi_BLE_SDK/GD32VW55x_RELEASE_V1.0.2/MSDK/wpa_supplicant/src/tls\pkcs8.c ****  * This software may be distributed under the terms of the BSD license.
   6:C:/Users/stapi/OneDrive/Desktop/GD32VW553/V1_MQTT_OK/GD32VW55X_Wifi_BLE_SDK/GD32VW55x_RELEASE_V1.0.2/MSDK/wpa_supplicant/src/tls\pkcs8.c ****  * See README for more details.
   7:C:/Users/stapi/OneDrive/Desktop/GD32VW553/V1_MQTT_OK/GD32VW55X_Wifi_BLE_SDK/GD32VW55x_RELEASE_V1.0.2/MSDK/wpa_supplicant/src/tls\pkcs8.c ****  */
   8:C:/Users/stapi/OneDrive/Desktop/GD32VW553/V1_MQTT_OK/GD32VW55X_Wifi_BLE_SDK/GD32VW55x_RELEASE_V1.0.2/MSDK/wpa_supplicant/src/tls\pkcs8.c **** 
   9:C:/Users/stapi/OneDrive/Desktop/GD32VW553/V1_MQTT_OK/GD32VW55X_Wifi_BLE_SDK/GD32VW55x_RELEASE_V1.0.2/MSDK/wpa_supplicant/src/tls\pkcs8.c **** #include "includes.h"
  10:C:/Users/stapi/OneDrive/Desktop/GD32VW553/V1_MQTT_OK/GD32VW55X_Wifi_BLE_SDK/GD32VW55x_RELEASE_V1.0.2/MSDK/wpa_supplicant/src/tls\pkcs8.c **** 
  11:C:/Users/stapi/OneDrive/Desktop/GD32VW553/V1_MQTT_OK/GD32VW55X_Wifi_BLE_SDK/GD32VW55x_RELEASE_V1.0.2/MSDK/wpa_supplicant/src/tls\pkcs8.c **** #include "common.h"
  12:C:/Users/stapi/OneDrive/Desktop/GD32VW553/V1_MQTT_OK/GD32VW55X_Wifi_BLE_SDK/GD32VW55x_RELEASE_V1.0.2/MSDK/wpa_supplicant/src/tls\pkcs8.c **** #include "asn1.h"
  13:C:/Users/stapi/OneDrive/Desktop/GD32VW553/V1_MQTT_OK/GD32VW55X_Wifi_BLE_SDK/GD32VW55x_RELEASE_V1.0.2/MSDK/wpa_supplicant/src/tls\pkcs8.c **** #include "bignum.h"
  14:C:/Users/stapi/OneDrive/Desktop/GD32VW553/V1_MQTT_OK/GD32VW55X_Wifi_BLE_SDK/GD32VW55x_RELEASE_V1.0.2/MSDK/wpa_supplicant/src/tls\pkcs8.c **** #include "rsa.h"
  15:C:/Users/stapi/OneDrive/Desktop/GD32VW553/V1_MQTT_OK/GD32VW55X_Wifi_BLE_SDK/GD32VW55x_RELEASE_V1.0.2/MSDK/wpa_supplicant/src/tls\pkcs8.c **** #include "pkcs5.h"
  16:C:/Users/stapi/OneDrive/Desktop/GD32VW553/V1_MQTT_OK/GD32VW55X_Wifi_BLE_SDK/GD32VW55x_RELEASE_V1.0.2/MSDK/wpa_supplicant/src/tls\pkcs8.c **** #include "pkcs8.h"
  17:C:/Users/stapi/OneDrive/Desktop/GD32VW553/V1_MQTT_OK/GD32VW55X_Wifi_BLE_SDK/GD32VW55x_RELEASE_V1.0.2/MSDK/wpa_supplicant/src/tls\pkcs8.c **** 
  18:C:/Users/stapi/OneDrive/Desktop/GD32VW553/V1_MQTT_OK/GD32VW55X_Wifi_BLE_SDK/GD32VW55x_RELEASE_V1.0.2/MSDK/wpa_supplicant/src/tls\pkcs8.c **** 
  19:C:/Users/stapi/OneDrive/Desktop/GD32VW553/V1_MQTT_OK/GD32VW55X_Wifi_BLE_SDK/GD32VW55x_RELEASE_V1.0.2/MSDK/wpa_supplicant/src/tls\pkcs8.c **** struct crypto_private_key * pkcs8_key_import(const u8 *buf, size_t len)
  20:C:/Users/stapi/OneDrive/Desktop/GD32VW553/V1_MQTT_OK/GD32VW55X_Wifi_BLE_SDK/GD32VW55x_RELEASE_V1.0.2/MSDK/wpa_supplicant/src/tls\pkcs8.c **** {
  47              		.loc 1 20 1
  48              		.cfi_startproc
  49              	.LVL0:
  50 0000 17030000 		call	t0,__riscv_save_4
  50      E7020300 
  51              		.cfi_offset 19, -20
  52              		.cfi_offset 18, -16
  53              		.cfi_offset 9, -12
  54              		.cfi_offset 8, -8
  55              		.cfi_offset 1, -4
  56              		.cfi_def_cfa_offset 32
  21:C:/Users/stapi/OneDrive/Desktop/GD32VW553/V1_MQTT_OK/GD32VW55X_Wifi_BLE_SDK/GD32VW55x_RELEASE_V1.0.2/MSDK/wpa_supplicant/src/tls\pkcs8.c **** 	struct asn1_hdr hdr;
  57              		.loc 1 21 2
  22:C:/Users/stapi/OneDrive/Desktop/GD32VW553/V1_MQTT_OK/GD32VW55X_Wifi_BLE_SDK/GD32VW55x_RELEASE_V1.0.2/MSDK/wpa_supplicant/src/tls\pkcs8.c **** 	const u8 *pos, *end;
  58              		.loc 1 22 2
  23:C:/Users/stapi/OneDrive/Desktop/GD32VW553/V1_MQTT_OK/GD32VW55X_Wifi_BLE_SDK/GD32VW55x_RELEASE_V1.0.2/MSDK/wpa_supplicant/src/tls\pkcs8.c **** 	struct bignum *zero;
  59              		.loc 1 23 2
  24:C:/Users/stapi/OneDrive/Desktop/GD32VW553/V1_MQTT_OK/GD32VW55X_Wifi_BLE_SDK/GD32VW55x_RELEASE_V1.0.2/MSDK/wpa_supplicant/src/tls\pkcs8.c **** 	struct asn1_oid oid;
  60              		.loc 1 24 2
  25:C:/Users/stapi/OneDrive/Desktop/GD32VW553/V1_MQTT_OK/GD32VW55X_Wifi_BLE_SDK/GD32VW55x_RELEASE_V1.0.2/MSDK/wpa_supplicant/src/tls\pkcs8.c **** 	char obuf[80];
  61              		.loc 1 25 2
  26:C:/Users/stapi/OneDrive/Desktop/GD32VW553/V1_MQTT_OK/GD32VW55X_Wifi_BLE_SDK/GD32VW55x_RELEASE_V1.0.2/MSDK/wpa_supplicant/src/tls\pkcs8.c **** 
  27:C:/Users/stapi/OneDrive/Desktop/GD32VW553/V1_MQTT_OK/GD32VW55X_Wifi_BLE_SDK/GD32VW55x_RELEASE_V1.0.2/MSDK/wpa_supplicant/src/tls\pkcs8.c **** 	/* PKCS #8, Chapter 6 */
  28:C:/Users/stapi/OneDrive/Desktop/GD32VW553/V1_MQTT_OK/GD32VW55X_Wifi_BLE_SDK/GD32VW55x_RELEASE_V1.0.2/MSDK/wpa_supplicant/src/tls\pkcs8.c **** 
  29:C:/Users/stapi/OneDrive/Desktop/GD32VW553/V1_MQTT_OK/GD32VW55X_Wifi_BLE_SDK/GD32VW55x_RELEASE_V1.0.2/MSDK/wpa_supplicant/src/tls\pkcs8.c **** 	/* PrivateKeyInfo ::= SEQUENCE */
  30:C:/Users/stapi/OneDrive/Desktop/GD32VW553/V1_MQTT_OK/GD32VW55X_Wifi_BLE_SDK/GD32VW55x_RELEASE_V1.0.2/MSDK/wpa_supplicant/src/tls\pkcs8.c **** 	if (asn1_get_next(buf, len, &hdr) < 0 || !asn1_is_sequence(&hdr)) {
  62              		.loc 1 30 2
  20:C:/Users/stapi/OneDrive/Desktop/GD32VW553/V1_MQTT_OK/GD32VW55X_Wifi_BLE_SDK/GD32VW55x_RELEASE_V1.0.2/MSDK/wpa_supplicant/src/tls\pkcs8.c **** 	struct asn1_hdr hdr;
  63              		.loc 1 20 1 is_stmt 0
  64 0008 3171     		addi	sp,sp,-192
  65              		.cfi_def_cfa_offset 224
  66              		.loc 1 30 6
  67 000a 7000     		addi	a2,sp,12
  20:C:/Users/stapi/OneDrive/Desktop/GD32VW553/V1_MQTT_OK/GD32VW55X_Wifi_BLE_SDK/GD32VW55x_RELEASE_V1.0.2/MSDK/wpa_supplicant/src/tls\pkcs8.c **** 	struct asn1_hdr hdr;
  68              		.loc 1 20 1
  69 000c 2E89     		mv	s2,a1
  70              		.loc 1 30 6
  71 000e 97000000 		call	asn1_get_next
  71      E7800000 
  72              	.LVL1:
  73              		.loc 1 30 5
  74 0016 634A0502 		blt	a0,zero,.L2
  75              	.LVL2:
  76              	.LBB10:
  77              	.LBB11:
  78              		.file 2 "C:/Users/stapi/OneDrive/Desktop/GD32VW553/V1_MQTT_OK/GD32VW55X_Wifi_BLE_SDK/GD32VW55x_REL
   1:C:/Users/stapi/OneDrive/Desktop/GD32VW553/V1_MQTT_OK/GD32VW55X_Wifi_BLE_SDK/GD32VW55x_RELEASE_V1.0.2/MSDK/wpa_supplicant/src/tls\asn1.h **** /*
   2:C:/Users/stapi/OneDrive/Desktop/GD32VW553/V1_MQTT_OK/GD32VW55X_Wifi_BLE_SDK/GD32VW55x_RELEASE_V1.0.2/MSDK/wpa_supplicant/src/tls\asn1.h ****  * ASN.1 DER parsing
   3:C:/Users/stapi/OneDrive/Desktop/GD32VW553/V1_MQTT_OK/GD32VW55X_Wifi_BLE_SDK/GD32VW55x_RELEASE_V1.0.2/MSDK/wpa_supplicant/src/tls\asn1.h ****  * Copyright (c) 2006, Jouni Malinen <j@w1.fi>
   4:C:/Users/stapi/OneDrive/Desktop/GD32VW553/V1_MQTT_OK/GD32VW55X_Wifi_BLE_SDK/GD32VW55x_RELEASE_V1.0.2/MSDK/wpa_supplicant/src/tls\asn1.h ****  *
   5:C:/Users/stapi/OneDrive/Desktop/GD32VW553/V1_MQTT_OK/GD32VW55X_Wifi_BLE_SDK/GD32VW55x_RELEASE_V1.0.2/MSDK/wpa_supplicant/src/tls\asn1.h ****  * This software may be distributed under the terms of the BSD license.
   6:C:/Users/stapi/OneDrive/Desktop/GD32VW553/V1_MQTT_OK/GD32VW55X_Wifi_BLE_SDK/GD32VW55x_RELEASE_V1.0.2/MSDK/wpa_supplicant/src/tls\asn1.h ****  * See README for more details.
   7:C:/Users/stapi/OneDrive/Desktop/GD32VW553/V1_MQTT_OK/GD32VW55X_Wifi_BLE_SDK/GD32VW55x_RELEASE_V1.0.2/MSDK/wpa_supplicant/src/tls\asn1.h ****  */
   8:C:/Users/stapi/OneDrive/Desktop/GD32VW553/V1_MQTT_OK/GD32VW55X_Wifi_BLE_SDK/GD32VW55x_RELEASE_V1.0.2/MSDK/wpa_supplicant/src/tls\asn1.h **** 
   9:C:/Users/stapi/OneDrive/Desktop/GD32VW553/V1_MQTT_OK/GD32VW55X_Wifi_BLE_SDK/GD32VW55x_RELEASE_V1.0.2/MSDK/wpa_supplicant/src/tls\asn1.h **** #ifndef ASN1_H
  10:C:/Users/stapi/OneDrive/Desktop/GD32VW553/V1_MQTT_OK/GD32VW55X_Wifi_BLE_SDK/GD32VW55x_RELEASE_V1.0.2/MSDK/wpa_supplicant/src/tls\asn1.h **** #define ASN1_H
  11:C:/Users/stapi/OneDrive/Desktop/GD32VW553/V1_MQTT_OK/GD32VW55X_Wifi_BLE_SDK/GD32VW55x_RELEASE_V1.0.2/MSDK/wpa_supplicant/src/tls\asn1.h **** 
  12:C:/Users/stapi/OneDrive/Desktop/GD32VW553/V1_MQTT_OK/GD32VW55X_Wifi_BLE_SDK/GD32VW55x_RELEASE_V1.0.2/MSDK/wpa_supplicant/src/tls\asn1.h **** #define ASN1_TAG_EOC		0x00 /* not used with DER */
  13:C:/Users/stapi/OneDrive/Desktop/GD32VW553/V1_MQTT_OK/GD32VW55X_Wifi_BLE_SDK/GD32VW55x_RELEASE_V1.0.2/MSDK/wpa_supplicant/src/tls\asn1.h **** #define ASN1_TAG_BOOLEAN	0x01
  14:C:/Users/stapi/OneDrive/Desktop/GD32VW553/V1_MQTT_OK/GD32VW55X_Wifi_BLE_SDK/GD32VW55x_RELEASE_V1.0.2/MSDK/wpa_supplicant/src/tls\asn1.h **** #define ASN1_TAG_INTEGER	0x02
  15:C:/Users/stapi/OneDrive/Desktop/GD32VW553/V1_MQTT_OK/GD32VW55X_Wifi_BLE_SDK/GD32VW55x_RELEASE_V1.0.2/MSDK/wpa_supplicant/src/tls\asn1.h **** #define ASN1_TAG_BITSTRING	0x03
  16:C:/Users/stapi/OneDrive/Desktop/GD32VW553/V1_MQTT_OK/GD32VW55X_Wifi_BLE_SDK/GD32VW55x_RELEASE_V1.0.2/MSDK/wpa_supplicant/src/tls\asn1.h **** #define ASN1_TAG_OCTETSTRING	0x04
  17:C:/Users/stapi/OneDrive/Desktop/GD32VW553/V1_MQTT_OK/GD32VW55X_Wifi_BLE_SDK/GD32VW55x_RELEASE_V1.0.2/MSDK/wpa_supplicant/src/tls\asn1.h **** #define ASN1_TAG_NULL		0x05
  18:C:/Users/stapi/OneDrive/Desktop/GD32VW553/V1_MQTT_OK/GD32VW55X_Wifi_BLE_SDK/GD32VW55x_RELEASE_V1.0.2/MSDK/wpa_supplicant/src/tls\asn1.h **** #define ASN1_TAG_OID		0x06
  19:C:/Users/stapi/OneDrive/Desktop/GD32VW553/V1_MQTT_OK/GD32VW55X_Wifi_BLE_SDK/GD32VW55x_RELEASE_V1.0.2/MSDK/wpa_supplicant/src/tls\asn1.h **** #define ASN1_TAG_OBJECT_DESCRIPTOR	0x07 /* not yet parsed */
  20:C:/Users/stapi/OneDrive/Desktop/GD32VW553/V1_MQTT_OK/GD32VW55X_Wifi_BLE_SDK/GD32VW55x_RELEASE_V1.0.2/MSDK/wpa_supplicant/src/tls\asn1.h **** #define ASN1_TAG_EXTERNAL	0x08 /* not yet parsed */
  21:C:/Users/stapi/OneDrive/Desktop/GD32VW553/V1_MQTT_OK/GD32VW55X_Wifi_BLE_SDK/GD32VW55x_RELEASE_V1.0.2/MSDK/wpa_supplicant/src/tls\asn1.h **** #define ASN1_TAG_REAL		0x09 /* not yet parsed */
  22:C:/Users/stapi/OneDrive/Desktop/GD32VW553/V1_MQTT_OK/GD32VW55X_Wifi_BLE_SDK/GD32VW55x_RELEASE_V1.0.2/MSDK/wpa_supplicant/src/tls\asn1.h **** #define ASN1_TAG_ENUMERATED	0x0A /* not yet parsed */
  23:C:/Users/stapi/OneDrive/Desktop/GD32VW553/V1_MQTT_OK/GD32VW55X_Wifi_BLE_SDK/GD32VW55x_RELEASE_V1.0.2/MSDK/wpa_supplicant/src/tls\asn1.h **** #define ASN1_TAG_EMBEDDED_PDV	0x0B /* not yet parsed */
  24:C:/Users/stapi/OneDrive/Desktop/GD32VW553/V1_MQTT_OK/GD32VW55X_Wifi_BLE_SDK/GD32VW55x_RELEASE_V1.0.2/MSDK/wpa_supplicant/src/tls\asn1.h **** #define ASN1_TAG_UTF8STRING	0x0C /* not yet parsed */
  25:C:/Users/stapi/OneDrive/Desktop/GD32VW553/V1_MQTT_OK/GD32VW55X_Wifi_BLE_SDK/GD32VW55x_RELEASE_V1.0.2/MSDK/wpa_supplicant/src/tls\asn1.h **** #define ANS1_TAG_RELATIVE_OID	0x0D
  26:C:/Users/stapi/OneDrive/Desktop/GD32VW553/V1_MQTT_OK/GD32VW55X_Wifi_BLE_SDK/GD32VW55x_RELEASE_V1.0.2/MSDK/wpa_supplicant/src/tls\asn1.h **** #define ASN1_TAG_TIME		0x0E
  27:C:/Users/stapi/OneDrive/Desktop/GD32VW553/V1_MQTT_OK/GD32VW55X_Wifi_BLE_SDK/GD32VW55x_RELEASE_V1.0.2/MSDK/wpa_supplicant/src/tls\asn1.h **** #define ASN1_TAG_SEQUENCE	0x10 /* shall be constructed */
  28:C:/Users/stapi/OneDrive/Desktop/GD32VW553/V1_MQTT_OK/GD32VW55X_Wifi_BLE_SDK/GD32VW55x_RELEASE_V1.0.2/MSDK/wpa_supplicant/src/tls\asn1.h **** #define ASN1_TAG_SET		0x11
  29:C:/Users/stapi/OneDrive/Desktop/GD32VW553/V1_MQTT_OK/GD32VW55X_Wifi_BLE_SDK/GD32VW55x_RELEASE_V1.0.2/MSDK/wpa_supplicant/src/tls\asn1.h **** #define ASN1_TAG_NUMERICSTRING	0x12 /* not yet parsed */
  30:C:/Users/stapi/OneDrive/Desktop/GD32VW553/V1_MQTT_OK/GD32VW55X_Wifi_BLE_SDK/GD32VW55x_RELEASE_V1.0.2/MSDK/wpa_supplicant/src/tls\asn1.h **** #define ASN1_TAG_PRINTABLESTRING	0x13
  31:C:/Users/stapi/OneDrive/Desktop/GD32VW553/V1_MQTT_OK/GD32VW55X_Wifi_BLE_SDK/GD32VW55x_RELEASE_V1.0.2/MSDK/wpa_supplicant/src/tls\asn1.h **** #define ASN1_TAG_T61STRING	0x14 /* not yet parsed */
  32:C:/Users/stapi/OneDrive/Desktop/GD32VW553/V1_MQTT_OK/GD32VW55X_Wifi_BLE_SDK/GD32VW55x_RELEASE_V1.0.2/MSDK/wpa_supplicant/src/tls\asn1.h **** #define ASN1_TAG_VIDEOTEXSTRING	0x15 /* not yet parsed */
  33:C:/Users/stapi/OneDrive/Desktop/GD32VW553/V1_MQTT_OK/GD32VW55X_Wifi_BLE_SDK/GD32VW55x_RELEASE_V1.0.2/MSDK/wpa_supplicant/src/tls\asn1.h **** #define ASN1_TAG_IA5STRING	0x16
  34:C:/Users/stapi/OneDrive/Desktop/GD32VW553/V1_MQTT_OK/GD32VW55X_Wifi_BLE_SDK/GD32VW55x_RELEASE_V1.0.2/MSDK/wpa_supplicant/src/tls\asn1.h **** #define ASN1_TAG_UTCTIME	0x17
  35:C:/Users/stapi/OneDrive/Desktop/GD32VW553/V1_MQTT_OK/GD32VW55X_Wifi_BLE_SDK/GD32VW55x_RELEASE_V1.0.2/MSDK/wpa_supplicant/src/tls\asn1.h **** #define ASN1_TAG_GENERALIZEDTIME	0x18 /* not yet parsed */
  36:C:/Users/stapi/OneDrive/Desktop/GD32VW553/V1_MQTT_OK/GD32VW55X_Wifi_BLE_SDK/GD32VW55x_RELEASE_V1.0.2/MSDK/wpa_supplicant/src/tls\asn1.h **** #define ASN1_TAG_GRAPHICSTRING	0x19 /* not yet parsed */
  37:C:/Users/stapi/OneDrive/Desktop/GD32VW553/V1_MQTT_OK/GD32VW55X_Wifi_BLE_SDK/GD32VW55x_RELEASE_V1.0.2/MSDK/wpa_supplicant/src/tls\asn1.h **** #define ASN1_TAG_VISIBLESTRING	0x1A
  38:C:/Users/stapi/OneDrive/Desktop/GD32VW553/V1_MQTT_OK/GD32VW55X_Wifi_BLE_SDK/GD32VW55x_RELEASE_V1.0.2/MSDK/wpa_supplicant/src/tls\asn1.h **** #define ASN1_TAG_GENERALSTRING	0x1B /* not yet parsed */
  39:C:/Users/stapi/OneDrive/Desktop/GD32VW553/V1_MQTT_OK/GD32VW55X_Wifi_BLE_SDK/GD32VW55x_RELEASE_V1.0.2/MSDK/wpa_supplicant/src/tls\asn1.h **** #define ASN1_TAG_UNIVERSALSTRING	0x1C /* not yet parsed */
  40:C:/Users/stapi/OneDrive/Desktop/GD32VW553/V1_MQTT_OK/GD32VW55X_Wifi_BLE_SDK/GD32VW55x_RELEASE_V1.0.2/MSDK/wpa_supplicant/src/tls\asn1.h **** #define ASN1_TAG_CHARACTERSTRING	0x1D /* not yet parsed */
  41:C:/Users/stapi/OneDrive/Desktop/GD32VW553/V1_MQTT_OK/GD32VW55X_Wifi_BLE_SDK/GD32VW55x_RELEASE_V1.0.2/MSDK/wpa_supplicant/src/tls\asn1.h **** #define ASN1_TAG_BMPSTRING	0x1E /* not yet parsed */
  42:C:/Users/stapi/OneDrive/Desktop/GD32VW553/V1_MQTT_OK/GD32VW55X_Wifi_BLE_SDK/GD32VW55x_RELEASE_V1.0.2/MSDK/wpa_supplicant/src/tls\asn1.h **** 
  43:C:/Users/stapi/OneDrive/Desktop/GD32VW553/V1_MQTT_OK/GD32VW55X_Wifi_BLE_SDK/GD32VW55x_RELEASE_V1.0.2/MSDK/wpa_supplicant/src/tls\asn1.h **** #define ASN1_CLASS_UNIVERSAL		0
  44:C:/Users/stapi/OneDrive/Desktop/GD32VW553/V1_MQTT_OK/GD32VW55X_Wifi_BLE_SDK/GD32VW55x_RELEASE_V1.0.2/MSDK/wpa_supplicant/src/tls\asn1.h **** #define ASN1_CLASS_APPLICATION		1
  45:C:/Users/stapi/OneDrive/Desktop/GD32VW553/V1_MQTT_OK/GD32VW55X_Wifi_BLE_SDK/GD32VW55x_RELEASE_V1.0.2/MSDK/wpa_supplicant/src/tls\asn1.h **** #define ASN1_CLASS_CONTEXT_SPECIFIC	2
  46:C:/Users/stapi/OneDrive/Desktop/GD32VW553/V1_MQTT_OK/GD32VW55X_Wifi_BLE_SDK/GD32VW55x_RELEASE_V1.0.2/MSDK/wpa_supplicant/src/tls\asn1.h **** #define ASN1_CLASS_PRIVATE		3
  47:C:/Users/stapi/OneDrive/Desktop/GD32VW553/V1_MQTT_OK/GD32VW55X_Wifi_BLE_SDK/GD32VW55x_RELEASE_V1.0.2/MSDK/wpa_supplicant/src/tls\asn1.h **** 
  48:C:/Users/stapi/OneDrive/Desktop/GD32VW553/V1_MQTT_OK/GD32VW55X_Wifi_BLE_SDK/GD32VW55x_RELEASE_V1.0.2/MSDK/wpa_supplicant/src/tls\asn1.h **** 
  49:C:/Users/stapi/OneDrive/Desktop/GD32VW553/V1_MQTT_OK/GD32VW55X_Wifi_BLE_SDK/GD32VW55x_RELEASE_V1.0.2/MSDK/wpa_supplicant/src/tls\asn1.h **** struct asn1_hdr {
  50:C:/Users/stapi/OneDrive/Desktop/GD32VW553/V1_MQTT_OK/GD32VW55X_Wifi_BLE_SDK/GD32VW55x_RELEASE_V1.0.2/MSDK/wpa_supplicant/src/tls\asn1.h **** 	const u8 *payload;
  51:C:/Users/stapi/OneDrive/Desktop/GD32VW553/V1_MQTT_OK/GD32VW55X_Wifi_BLE_SDK/GD32VW55x_RELEASE_V1.0.2/MSDK/wpa_supplicant/src/tls\asn1.h **** 	u8 identifier, class, constructed;
  52:C:/Users/stapi/OneDrive/Desktop/GD32VW553/V1_MQTT_OK/GD32VW55X_Wifi_BLE_SDK/GD32VW55x_RELEASE_V1.0.2/MSDK/wpa_supplicant/src/tls\asn1.h **** 	unsigned int tag, length;
  53:C:/Users/stapi/OneDrive/Desktop/GD32VW553/V1_MQTT_OK/GD32VW55X_Wifi_BLE_SDK/GD32VW55x_RELEASE_V1.0.2/MSDK/wpa_supplicant/src/tls\asn1.h **** };
  54:C:/Users/stapi/OneDrive/Desktop/GD32VW553/V1_MQTT_OK/GD32VW55X_Wifi_BLE_SDK/GD32VW55x_RELEASE_V1.0.2/MSDK/wpa_supplicant/src/tls\asn1.h **** 
  55:C:/Users/stapi/OneDrive/Desktop/GD32VW553/V1_MQTT_OK/GD32VW55X_Wifi_BLE_SDK/GD32VW55x_RELEASE_V1.0.2/MSDK/wpa_supplicant/src/tls\asn1.h **** #define ASN1_MAX_OID_LEN 20
  56:C:/Users/stapi/OneDrive/Desktop/GD32VW553/V1_MQTT_OK/GD32VW55X_Wifi_BLE_SDK/GD32VW55x_RELEASE_V1.0.2/MSDK/wpa_supplicant/src/tls\asn1.h **** struct asn1_oid {
  57:C:/Users/stapi/OneDrive/Desktop/GD32VW553/V1_MQTT_OK/GD32VW55X_Wifi_BLE_SDK/GD32VW55x_RELEASE_V1.0.2/MSDK/wpa_supplicant/src/tls\asn1.h **** 	unsigned long oid[ASN1_MAX_OID_LEN];
  58:C:/Users/stapi/OneDrive/Desktop/GD32VW553/V1_MQTT_OK/GD32VW55X_Wifi_BLE_SDK/GD32VW55x_RELEASE_V1.0.2/MSDK/wpa_supplicant/src/tls\asn1.h **** 	size_t len;
  59:C:/Users/stapi/OneDrive/Desktop/GD32VW553/V1_MQTT_OK/GD32VW55X_Wifi_BLE_SDK/GD32VW55x_RELEASE_V1.0.2/MSDK/wpa_supplicant/src/tls\asn1.h **** };
  60:C:/Users/stapi/OneDrive/Desktop/GD32VW553/V1_MQTT_OK/GD32VW55X_Wifi_BLE_SDK/GD32VW55x_RELEASE_V1.0.2/MSDK/wpa_supplicant/src/tls\asn1.h **** 
  61:C:/Users/stapi/OneDrive/Desktop/GD32VW553/V1_MQTT_OK/GD32VW55X_Wifi_BLE_SDK/GD32VW55x_RELEASE_V1.0.2/MSDK/wpa_supplicant/src/tls\asn1.h **** 
  62:C:/Users/stapi/OneDrive/Desktop/GD32VW553/V1_MQTT_OK/GD32VW55X_Wifi_BLE_SDK/GD32VW55x_RELEASE_V1.0.2/MSDK/wpa_supplicant/src/tls\asn1.h **** int asn1_get_next(const u8 *buf, size_t len, struct asn1_hdr *hdr);
  63:C:/Users/stapi/OneDrive/Desktop/GD32VW553/V1_MQTT_OK/GD32VW55X_Wifi_BLE_SDK/GD32VW55x_RELEASE_V1.0.2/MSDK/wpa_supplicant/src/tls\asn1.h **** void asn1_print_hdr(const struct asn1_hdr *hdr, const char *title);
  64:C:/Users/stapi/OneDrive/Desktop/GD32VW553/V1_MQTT_OK/GD32VW55X_Wifi_BLE_SDK/GD32VW55x_RELEASE_V1.0.2/MSDK/wpa_supplicant/src/tls\asn1.h **** void asn1_unexpected(const struct asn1_hdr *hdr, const char *title);
  65:C:/Users/stapi/OneDrive/Desktop/GD32VW553/V1_MQTT_OK/GD32VW55X_Wifi_BLE_SDK/GD32VW55x_RELEASE_V1.0.2/MSDK/wpa_supplicant/src/tls\asn1.h **** int asn1_parse_oid(const u8 *buf, size_t len, struct asn1_oid *oid);
  66:C:/Users/stapi/OneDrive/Desktop/GD32VW553/V1_MQTT_OK/GD32VW55X_Wifi_BLE_SDK/GD32VW55x_RELEASE_V1.0.2/MSDK/wpa_supplicant/src/tls\asn1.h **** int asn1_get_oid(const u8 *buf, size_t len, struct asn1_oid *oid,
  67:C:/Users/stapi/OneDrive/Desktop/GD32VW553/V1_MQTT_OK/GD32VW55X_Wifi_BLE_SDK/GD32VW55x_RELEASE_V1.0.2/MSDK/wpa_supplicant/src/tls\asn1.h **** 		 const u8 **next);
  68:C:/Users/stapi/OneDrive/Desktop/GD32VW553/V1_MQTT_OK/GD32VW55X_Wifi_BLE_SDK/GD32VW55x_RELEASE_V1.0.2/MSDK/wpa_supplicant/src/tls\asn1.h **** void asn1_oid_to_str(const struct asn1_oid *oid, char *buf, size_t len);
  69:C:/Users/stapi/OneDrive/Desktop/GD32VW553/V1_MQTT_OK/GD32VW55X_Wifi_BLE_SDK/GD32VW55x_RELEASE_V1.0.2/MSDK/wpa_supplicant/src/tls\asn1.h **** unsigned long asn1_bit_string_to_long(const u8 *buf, size_t len);
  70:C:/Users/stapi/OneDrive/Desktop/GD32VW553/V1_MQTT_OK/GD32VW55X_Wifi_BLE_SDK/GD32VW55x_RELEASE_V1.0.2/MSDK/wpa_supplicant/src/tls\asn1.h **** int asn1_oid_equal(const struct asn1_oid *a, const struct asn1_oid *b);
  71:C:/Users/stapi/OneDrive/Desktop/GD32VW553/V1_MQTT_OK/GD32VW55X_Wifi_BLE_SDK/GD32VW55x_RELEASE_V1.0.2/MSDK/wpa_supplicant/src/tls\asn1.h **** int asn1_get_integer(const u8 *buf, size_t len, int *integer, const u8 **next);
  72:C:/Users/stapi/OneDrive/Desktop/GD32VW553/V1_MQTT_OK/GD32VW55X_Wifi_BLE_SDK/GD32VW55x_RELEASE_V1.0.2/MSDK/wpa_supplicant/src/tls\asn1.h **** int asn1_get_sequence(const u8 *buf, size_t len, struct asn1_hdr *hdr,
  73:C:/Users/stapi/OneDrive/Desktop/GD32VW553/V1_MQTT_OK/GD32VW55X_Wifi_BLE_SDK/GD32VW55x_RELEASE_V1.0.2/MSDK/wpa_supplicant/src/tls\asn1.h **** 		      const u8 **next);
  74:C:/Users/stapi/OneDrive/Desktop/GD32VW553/V1_MQTT_OK/GD32VW55X_Wifi_BLE_SDK/GD32VW55x_RELEASE_V1.0.2/MSDK/wpa_supplicant/src/tls\asn1.h **** int asn1_get_alg_id(const u8 *buf, size_t len, struct asn1_oid *oid,
  75:C:/Users/stapi/OneDrive/Desktop/GD32VW553/V1_MQTT_OK/GD32VW55X_Wifi_BLE_SDK/GD32VW55x_RELEASE_V1.0.2/MSDK/wpa_supplicant/src/tls\asn1.h **** 		    const u8 **params, size_t *params_len, const u8 **next);
  76:C:/Users/stapi/OneDrive/Desktop/GD32VW553/V1_MQTT_OK/GD32VW55X_Wifi_BLE_SDK/GD32VW55x_RELEASE_V1.0.2/MSDK/wpa_supplicant/src/tls\asn1.h **** void asn1_put_integer(struct wpabuf *buf, int val);
  77:C:/Users/stapi/OneDrive/Desktop/GD32VW553/V1_MQTT_OK/GD32VW55X_Wifi_BLE_SDK/GD32VW55x_RELEASE_V1.0.2/MSDK/wpa_supplicant/src/tls\asn1.h **** void asn1_put_octet_string(struct wpabuf *buf, const struct wpabuf *val);
  78:C:/Users/stapi/OneDrive/Desktop/GD32VW553/V1_MQTT_OK/GD32VW55X_Wifi_BLE_SDK/GD32VW55x_RELEASE_V1.0.2/MSDK/wpa_supplicant/src/tls\asn1.h **** void asn1_put_oid(struct wpabuf *buf, const struct asn1_oid *oid);
  79:C:/Users/stapi/OneDrive/Desktop/GD32VW553/V1_MQTT_OK/GD32VW55X_Wifi_BLE_SDK/GD32VW55x_RELEASE_V1.0.2/MSDK/wpa_supplicant/src/tls\asn1.h **** void asn1_put_hdr(struct wpabuf *buf, u8 class, int constructed, u8 tag,
  80:C:/Users/stapi/OneDrive/Desktop/GD32VW553/V1_MQTT_OK/GD32VW55X_Wifi_BLE_SDK/GD32VW55x_RELEASE_V1.0.2/MSDK/wpa_supplicant/src/tls\asn1.h **** 		  size_t len);
  81:C:/Users/stapi/OneDrive/Desktop/GD32VW553/V1_MQTT_OK/GD32VW55X_Wifi_BLE_SDK/GD32VW55x_RELEASE_V1.0.2/MSDK/wpa_supplicant/src/tls\asn1.h **** void asn1_put_sequence(struct wpabuf *buf, const struct wpabuf *payload);
  82:C:/Users/stapi/OneDrive/Desktop/GD32VW553/V1_MQTT_OK/GD32VW55X_Wifi_BLE_SDK/GD32VW55x_RELEASE_V1.0.2/MSDK/wpa_supplicant/src/tls\asn1.h **** void asn1_put_set(struct wpabuf *buf, const struct wpabuf *payload);
  83:C:/Users/stapi/OneDrive/Desktop/GD32VW553/V1_MQTT_OK/GD32VW55X_Wifi_BLE_SDK/GD32VW55x_RELEASE_V1.0.2/MSDK/wpa_supplicant/src/tls\asn1.h **** void asn1_put_utf8string(struct wpabuf *buf, const char *val);
  84:C:/Users/stapi/OneDrive/Desktop/GD32VW553/V1_MQTT_OK/GD32VW55X_Wifi_BLE_SDK/GD32VW55x_RELEASE_V1.0.2/MSDK/wpa_supplicant/src/tls\asn1.h **** struct wpabuf * asn1_build_alg_id(const struct asn1_oid *oid,
  85:C:/Users/stapi/OneDrive/Desktop/GD32VW553/V1_MQTT_OK/GD32VW55X_Wifi_BLE_SDK/GD32VW55x_RELEASE_V1.0.2/MSDK/wpa_supplicant/src/tls\asn1.h **** 				  const struct wpabuf *params);
  86:C:/Users/stapi/OneDrive/Desktop/GD32VW553/V1_MQTT_OK/GD32VW55X_Wifi_BLE_SDK/GD32VW55x_RELEASE_V1.0.2/MSDK/wpa_supplicant/src/tls\asn1.h **** struct wpabuf * asn1_encaps(struct wpabuf *buf, u8 class, u8 tag);
  87:C:/Users/stapi/OneDrive/Desktop/GD32VW553/V1_MQTT_OK/GD32VW55X_Wifi_BLE_SDK/GD32VW55x_RELEASE_V1.0.2/MSDK/wpa_supplicant/src/tls\asn1.h **** 
  88:C:/Users/stapi/OneDrive/Desktop/GD32VW553/V1_MQTT_OK/GD32VW55X_Wifi_BLE_SDK/GD32VW55x_RELEASE_V1.0.2/MSDK/wpa_supplicant/src/tls\asn1.h **** static inline bool asn1_is_oid(const struct asn1_hdr *hdr)
  89:C:/Users/stapi/OneDrive/Desktop/GD32VW553/V1_MQTT_OK/GD32VW55X_Wifi_BLE_SDK/GD32VW55x_RELEASE_V1.0.2/MSDK/wpa_supplicant/src/tls\asn1.h **** {
  90:C:/Users/stapi/OneDrive/Desktop/GD32VW553/V1_MQTT_OK/GD32VW55X_Wifi_BLE_SDK/GD32VW55x_RELEASE_V1.0.2/MSDK/wpa_supplicant/src/tls\asn1.h **** 	return hdr->class == ASN1_CLASS_UNIVERSAL &&
  91:C:/Users/stapi/OneDrive/Desktop/GD32VW553/V1_MQTT_OK/GD32VW55X_Wifi_BLE_SDK/GD32VW55x_RELEASE_V1.0.2/MSDK/wpa_supplicant/src/tls\asn1.h **** 		hdr->tag == ASN1_TAG_OID;
  92:C:/Users/stapi/OneDrive/Desktop/GD32VW553/V1_MQTT_OK/GD32VW55X_Wifi_BLE_SDK/GD32VW55x_RELEASE_V1.0.2/MSDK/wpa_supplicant/src/tls\asn1.h **** }
  93:C:/Users/stapi/OneDrive/Desktop/GD32VW553/V1_MQTT_OK/GD32VW55X_Wifi_BLE_SDK/GD32VW55x_RELEASE_V1.0.2/MSDK/wpa_supplicant/src/tls\asn1.h **** 
  94:C:/Users/stapi/OneDrive/Desktop/GD32VW553/V1_MQTT_OK/GD32VW55X_Wifi_BLE_SDK/GD32VW55x_RELEASE_V1.0.2/MSDK/wpa_supplicant/src/tls\asn1.h **** static inline bool asn1_is_boolean(const struct asn1_hdr *hdr)
  95:C:/Users/stapi/OneDrive/Desktop/GD32VW553/V1_MQTT_OK/GD32VW55X_Wifi_BLE_SDK/GD32VW55x_RELEASE_V1.0.2/MSDK/wpa_supplicant/src/tls\asn1.h **** {
  96:C:/Users/stapi/OneDrive/Desktop/GD32VW553/V1_MQTT_OK/GD32VW55X_Wifi_BLE_SDK/GD32VW55x_RELEASE_V1.0.2/MSDK/wpa_supplicant/src/tls\asn1.h **** 	return hdr->class == ASN1_CLASS_UNIVERSAL &&
  97:C:/Users/stapi/OneDrive/Desktop/GD32VW553/V1_MQTT_OK/GD32VW55X_Wifi_BLE_SDK/GD32VW55x_RELEASE_V1.0.2/MSDK/wpa_supplicant/src/tls\asn1.h **** 		hdr->tag == ASN1_TAG_BOOLEAN;
  98:C:/Users/stapi/OneDrive/Desktop/GD32VW553/V1_MQTT_OK/GD32VW55X_Wifi_BLE_SDK/GD32VW55x_RELEASE_V1.0.2/MSDK/wpa_supplicant/src/tls\asn1.h **** }
  99:C:/Users/stapi/OneDrive/Desktop/GD32VW553/V1_MQTT_OK/GD32VW55X_Wifi_BLE_SDK/GD32VW55x_RELEASE_V1.0.2/MSDK/wpa_supplicant/src/tls\asn1.h **** 
 100:C:/Users/stapi/OneDrive/Desktop/GD32VW553/V1_MQTT_OK/GD32VW55X_Wifi_BLE_SDK/GD32VW55x_RELEASE_V1.0.2/MSDK/wpa_supplicant/src/tls\asn1.h **** static inline bool asn1_is_integer(const struct asn1_hdr *hdr)
 101:C:/Users/stapi/OneDrive/Desktop/GD32VW553/V1_MQTT_OK/GD32VW55X_Wifi_BLE_SDK/GD32VW55x_RELEASE_V1.0.2/MSDK/wpa_supplicant/src/tls\asn1.h **** {
 102:C:/Users/stapi/OneDrive/Desktop/GD32VW553/V1_MQTT_OK/GD32VW55X_Wifi_BLE_SDK/GD32VW55x_RELEASE_V1.0.2/MSDK/wpa_supplicant/src/tls\asn1.h **** 	return hdr->class == ASN1_CLASS_UNIVERSAL &&
 103:C:/Users/stapi/OneDrive/Desktop/GD32VW553/V1_MQTT_OK/GD32VW55X_Wifi_BLE_SDK/GD32VW55x_RELEASE_V1.0.2/MSDK/wpa_supplicant/src/tls\asn1.h **** 		hdr->tag == ASN1_TAG_INTEGER;
 104:C:/Users/stapi/OneDrive/Desktop/GD32VW553/V1_MQTT_OK/GD32VW55X_Wifi_BLE_SDK/GD32VW55x_RELEASE_V1.0.2/MSDK/wpa_supplicant/src/tls\asn1.h **** }
 105:C:/Users/stapi/OneDrive/Desktop/GD32VW553/V1_MQTT_OK/GD32VW55X_Wifi_BLE_SDK/GD32VW55x_RELEASE_V1.0.2/MSDK/wpa_supplicant/src/tls\asn1.h **** 
 106:C:/Users/stapi/OneDrive/Desktop/GD32VW553/V1_MQTT_OK/GD32VW55X_Wifi_BLE_SDK/GD32VW55x_RELEASE_V1.0.2/MSDK/wpa_supplicant/src/tls\asn1.h **** static inline bool asn1_is_enumerated(const struct asn1_hdr *hdr)
 107:C:/Users/stapi/OneDrive/Desktop/GD32VW553/V1_MQTT_OK/GD32VW55X_Wifi_BLE_SDK/GD32VW55x_RELEASE_V1.0.2/MSDK/wpa_supplicant/src/tls\asn1.h **** {
 108:C:/Users/stapi/OneDrive/Desktop/GD32VW553/V1_MQTT_OK/GD32VW55X_Wifi_BLE_SDK/GD32VW55x_RELEASE_V1.0.2/MSDK/wpa_supplicant/src/tls\asn1.h **** 	return hdr->class == ASN1_CLASS_UNIVERSAL &&
 109:C:/Users/stapi/OneDrive/Desktop/GD32VW553/V1_MQTT_OK/GD32VW55X_Wifi_BLE_SDK/GD32VW55x_RELEASE_V1.0.2/MSDK/wpa_supplicant/src/tls\asn1.h **** 		hdr->tag == ASN1_TAG_ENUMERATED;
 110:C:/Users/stapi/OneDrive/Desktop/GD32VW553/V1_MQTT_OK/GD32VW55X_Wifi_BLE_SDK/GD32VW55x_RELEASE_V1.0.2/MSDK/wpa_supplicant/src/tls\asn1.h **** }
 111:C:/Users/stapi/OneDrive/Desktop/GD32VW553/V1_MQTT_OK/GD32VW55X_Wifi_BLE_SDK/GD32VW55x_RELEASE_V1.0.2/MSDK/wpa_supplicant/src/tls\asn1.h **** 
 112:C:/Users/stapi/OneDrive/Desktop/GD32VW553/V1_MQTT_OK/GD32VW55X_Wifi_BLE_SDK/GD32VW55x_RELEASE_V1.0.2/MSDK/wpa_supplicant/src/tls\asn1.h **** static inline bool asn1_is_sequence(const struct asn1_hdr *hdr)
 113:C:/Users/stapi/OneDrive/Desktop/GD32VW553/V1_MQTT_OK/GD32VW55X_Wifi_BLE_SDK/GD32VW55x_RELEASE_V1.0.2/MSDK/wpa_supplicant/src/tls\asn1.h **** {
 114:C:/Users/stapi/OneDrive/Desktop/GD32VW553/V1_MQTT_OK/GD32VW55X_Wifi_BLE_SDK/GD32VW55x_RELEASE_V1.0.2/MSDK/wpa_supplicant/src/tls\asn1.h **** 	return hdr->class == ASN1_CLASS_UNIVERSAL &&
  79              		.loc 2 114 2 is_stmt 1
  80              		.loc 2 114 44 is_stmt 0
  81 001a 83471101 		lbu	a5,17(sp)
  82 001e 95E7     		bne	a5,zero,.L2
  83 0020 5247     		lw	a4,20(sp)
  84 0022 C147     		li	a5,16
  85 0024 6313F702 		bne	a4,a5,.L2
  86              	.LVL3:
  87              	.LBE11:
  88              	.LBE10:
  31:C:/Users/stapi/OneDrive/Desktop/GD32VW553/V1_MQTT_OK/GD32VW55X_Wifi_BLE_SDK/GD32VW55x_RELEASE_V1.0.2/MSDK/wpa_supplicant/src/tls\pkcs8.c **** 		asn1_unexpected(&hdr,
  32:C:/Users/stapi/OneDrive/Desktop/GD32VW553/V1_MQTT_OK/GD32VW55X_Wifi_BLE_SDK/GD32VW55x_RELEASE_V1.0.2/MSDK/wpa_supplicant/src/tls\pkcs8.c **** 				"PKCS #8: Does not start with PKCS #8 header (SEQUENCE)");
  33:C:/Users/stapi/OneDrive/Desktop/GD32VW553/V1_MQTT_OK/GD32VW55X_Wifi_BLE_SDK/GD32VW55x_RELEASE_V1.0.2/MSDK/wpa_supplicant/src/tls\pkcs8.c **** 		return NULL;
  34:C:/Users/stapi/OneDrive/Desktop/GD32VW553/V1_MQTT_OK/GD32VW55X_Wifi_BLE_SDK/GD32VW55x_RELEASE_V1.0.2/MSDK/wpa_supplicant/src/tls\pkcs8.c **** 	}
  35:C:/Users/stapi/OneDrive/Desktop/GD32VW553/V1_MQTT_OK/GD32VW55X_Wifi_BLE_SDK/GD32VW55x_RELEASE_V1.0.2/MSDK/wpa_supplicant/src/tls\pkcs8.c **** 	pos = hdr.payload;
  89              		.loc 1 35 2 is_stmt 1
  90              		.loc 1 35 11 is_stmt 0
  91 0028 B244     		lw	s1,12(sp)
  36:C:/Users/stapi/OneDrive/Desktop/GD32VW553/V1_MQTT_OK/GD32VW55X_Wifi_BLE_SDK/GD32VW55x_RELEASE_V1.0.2/MSDK/wpa_supplicant/src/tls\pkcs8.c **** 	end = pos + hdr.length;
  92              		.loc 1 36 17
  93 002a E249     		lw	s3,24(sp)
  37:C:/Users/stapi/OneDrive/Desktop/GD32VW553/V1_MQTT_OK/GD32VW55X_Wifi_BLE_SDK/GD32VW55x_RELEASE_V1.0.2/MSDK/wpa_supplicant/src/tls\pkcs8.c **** 
  38:C:/Users/stapi/OneDrive/Desktop/GD32VW553/V1_MQTT_OK/GD32VW55X_Wifi_BLE_SDK/GD32VW55x_RELEASE_V1.0.2/MSDK/wpa_supplicant/src/tls\pkcs8.c **** 	/* version Version (Version ::= INTEGER) */
  39:C:/Users/stapi/OneDrive/Desktop/GD32VW553/V1_MQTT_OK/GD32VW55X_Wifi_BLE_SDK/GD32VW55x_RELEASE_V1.0.2/MSDK/wpa_supplicant/src/tls\pkcs8.c **** 	if (asn1_get_next(pos, end - pos, &hdr) < 0 || !asn1_is_integer(&hdr)) {
  94              		.loc 1 39 6
  95 002c 7000     		addi	a2,sp,12
  96 002e 2685     		mv	a0,s1
  97 0030 CE85     		mv	a1,s3
  35:C:/Users/stapi/OneDrive/Desktop/GD32VW553/V1_MQTT_OK/GD32VW55X_Wifi_BLE_SDK/GD32VW55x_RELEASE_V1.0.2/MSDK/wpa_supplicant/src/tls\pkcs8.c **** 	end = pos + hdr.length;
  98              		.loc 1 35 6
  99 0032 26C4     		sw	s1,8(sp)
  36:C:/Users/stapi/OneDrive/Desktop/GD32VW553/V1_MQTT_OK/GD32VW55X_Wifi_BLE_SDK/GD32VW55x_RELEASE_V1.0.2/MSDK/wpa_supplicant/src/tls\pkcs8.c **** 	end = pos + hdr.length;
 100              		.loc 1 36 2 is_stmt 1
 101              	.LVL4:
 102              		.loc 1 39 2
 103              		.loc 1 39 6 is_stmt 0
 104 0034 97000000 		call	asn1_get_next
 104      E7800000 
 105              	.LVL5:
 106              		.loc 1 39 5
 107 003c 63510502 		bge	a0,zero,.L18
 108              	.L3:
  40:C:/Users/stapi/OneDrive/Desktop/GD32VW553/V1_MQTT_OK/GD32VW55X_Wifi_BLE_SDK/GD32VW55x_RELEASE_V1.0.2/MSDK/wpa_supplicant/src/tls\pkcs8.c **** 		asn1_unexpected(&hdr, "PKCS #8: Expected INTEGER");
 109              		.loc 1 40 3 is_stmt 1
 110 0040 B7050000 		lui	a1,%hi(.LC1)
 111 0044 93850500 		addi	a1,a1,%lo(.LC1)
 112 0048 29A0     		j	.L23
 113              	.LVL6:
 114              	.L2:
  31:C:/Users/stapi/OneDrive/Desktop/GD32VW553/V1_MQTT_OK/GD32VW55X_Wifi_BLE_SDK/GD32VW55x_RELEASE_V1.0.2/MSDK/wpa_supplicant/src/tls\pkcs8.c **** 				"PKCS #8: Does not start with PKCS #8 header (SEQUENCE)");
 115              		.loc 1 31 3
 116 004a B7050000 		lui	a1,%hi(.LC0)
 117 004e 93850500 		addi	a1,a1,%lo(.LC0)
 118              	.L23:
  41:C:/Users/stapi/OneDrive/Desktop/GD32VW553/V1_MQTT_OK/GD32VW55X_Wifi_BLE_SDK/GD32VW55x_RELEASE_V1.0.2/MSDK/wpa_supplicant/src/tls\pkcs8.c **** 		return NULL;
  42:C:/Users/stapi/OneDrive/Desktop/GD32VW553/V1_MQTT_OK/GD32VW55X_Wifi_BLE_SDK/GD32VW55x_RELEASE_V1.0.2/MSDK/wpa_supplicant/src/tls\pkcs8.c **** 	}
  43:C:/Users/stapi/OneDrive/Desktop/GD32VW553/V1_MQTT_OK/GD32VW55X_Wifi_BLE_SDK/GD32VW55x_RELEASE_V1.0.2/MSDK/wpa_supplicant/src/tls\pkcs8.c **** 
  44:C:/Users/stapi/OneDrive/Desktop/GD32VW553/V1_MQTT_OK/GD32VW55X_Wifi_BLE_SDK/GD32VW55x_RELEASE_V1.0.2/MSDK/wpa_supplicant/src/tls\pkcs8.c **** 	zero = bignum_init();
  45:C:/Users/stapi/OneDrive/Desktop/GD32VW553/V1_MQTT_OK/GD32VW55X_Wifi_BLE_SDK/GD32VW55x_RELEASE_V1.0.2/MSDK/wpa_supplicant/src/tls\pkcs8.c **** 	if (zero == NULL)
  46:C:/Users/stapi/OneDrive/Desktop/GD32VW553/V1_MQTT_OK/GD32VW55X_Wifi_BLE_SDK/GD32VW55x_RELEASE_V1.0.2/MSDK/wpa_supplicant/src/tls\pkcs8.c **** 		return NULL;
  47:C:/Users/stapi/OneDrive/Desktop/GD32VW553/V1_MQTT_OK/GD32VW55X_Wifi_BLE_SDK/GD32VW55x_RELEASE_V1.0.2/MSDK/wpa_supplicant/src/tls\pkcs8.c **** 
  48:C:/Users/stapi/OneDrive/Desktop/GD32VW553/V1_MQTT_OK/GD32VW55X_Wifi_BLE_SDK/GD32VW55x_RELEASE_V1.0.2/MSDK/wpa_supplicant/src/tls\pkcs8.c **** 	if (bignum_set_unsigned_bin(zero, hdr.payload, hdr.length) < 0) {
  49:C:/Users/stapi/OneDrive/Desktop/GD32VW553/V1_MQTT_OK/GD32VW55X_Wifi_BLE_SDK/GD32VW55x_RELEASE_V1.0.2/MSDK/wpa_supplicant/src/tls\pkcs8.c **** 		wpa_printf(MSG_DEBUG, "PKCS #8: Failed to parse INTEGER");
  50:C:/Users/stapi/OneDrive/Desktop/GD32VW553/V1_MQTT_OK/GD32VW55X_Wifi_BLE_SDK/GD32VW55x_RELEASE_V1.0.2/MSDK/wpa_supplicant/src/tls\pkcs8.c **** 		bignum_deinit(zero);
  51:C:/Users/stapi/OneDrive/Desktop/GD32VW553/V1_MQTT_OK/GD32VW55X_Wifi_BLE_SDK/GD32VW55x_RELEASE_V1.0.2/MSDK/wpa_supplicant/src/tls\pkcs8.c **** 		return NULL;
  52:C:/Users/stapi/OneDrive/Desktop/GD32VW553/V1_MQTT_OK/GD32VW55X_Wifi_BLE_SDK/GD32VW55x_RELEASE_V1.0.2/MSDK/wpa_supplicant/src/tls\pkcs8.c **** 	}
  53:C:/Users/stapi/OneDrive/Desktop/GD32VW553/V1_MQTT_OK/GD32VW55X_Wifi_BLE_SDK/GD32VW55x_RELEASE_V1.0.2/MSDK/wpa_supplicant/src/tls\pkcs8.c **** 	pos = hdr.payload + hdr.length;
  54:C:/Users/stapi/OneDrive/Desktop/GD32VW553/V1_MQTT_OK/GD32VW55X_Wifi_BLE_SDK/GD32VW55x_RELEASE_V1.0.2/MSDK/wpa_supplicant/src/tls\pkcs8.c **** 
  55:C:/Users/stapi/OneDrive/Desktop/GD32VW553/V1_MQTT_OK/GD32VW55X_Wifi_BLE_SDK/GD32VW55x_RELEASE_V1.0.2/MSDK/wpa_supplicant/src/tls\pkcs8.c **** 	if (bignum_cmp_d(zero, 0) != 0) {
  56:C:/Users/stapi/OneDrive/Desktop/GD32VW553/V1_MQTT_OK/GD32VW55X_Wifi_BLE_SDK/GD32VW55x_RELEASE_V1.0.2/MSDK/wpa_supplicant/src/tls\pkcs8.c **** 		wpa_printf(MSG_DEBUG, "PKCS #8: Expected zero INTEGER in the "
  57:C:/Users/stapi/OneDrive/Desktop/GD32VW553/V1_MQTT_OK/GD32VW55X_Wifi_BLE_SDK/GD32VW55x_RELEASE_V1.0.2/MSDK/wpa_supplicant/src/tls\pkcs8.c **** 			   "beginning of private key; not found; assume "
  58:C:/Users/stapi/OneDrive/Desktop/GD32VW553/V1_MQTT_OK/GD32VW55X_Wifi_BLE_SDK/GD32VW55x_RELEASE_V1.0.2/MSDK/wpa_supplicant/src/tls\pkcs8.c **** 			   "PKCS #8 not used");
  59:C:/Users/stapi/OneDrive/Desktop/GD32VW553/V1_MQTT_OK/GD32VW55X_Wifi_BLE_SDK/GD32VW55x_RELEASE_V1.0.2/MSDK/wpa_supplicant/src/tls\pkcs8.c **** 		bignum_deinit(zero);
  60:C:/Users/stapi/OneDrive/Desktop/GD32VW553/V1_MQTT_OK/GD32VW55X_Wifi_BLE_SDK/GD32VW55x_RELEASE_V1.0.2/MSDK/wpa_supplicant/src/tls\pkcs8.c **** 		return NULL;
  61:C:/Users/stapi/OneDrive/Desktop/GD32VW553/V1_MQTT_OK/GD32VW55X_Wifi_BLE_SDK/GD32VW55x_RELEASE_V1.0.2/MSDK/wpa_supplicant/src/tls\pkcs8.c **** 	}
  62:C:/Users/stapi/OneDrive/Desktop/GD32VW553/V1_MQTT_OK/GD32VW55X_Wifi_BLE_SDK/GD32VW55x_RELEASE_V1.0.2/MSDK/wpa_supplicant/src/tls\pkcs8.c **** 	bignum_deinit(zero);
  63:C:/Users/stapi/OneDrive/Desktop/GD32VW553/V1_MQTT_OK/GD32VW55X_Wifi_BLE_SDK/GD32VW55x_RELEASE_V1.0.2/MSDK/wpa_supplicant/src/tls\pkcs8.c **** 
  64:C:/Users/stapi/OneDrive/Desktop/GD32VW553/V1_MQTT_OK/GD32VW55X_Wifi_BLE_SDK/GD32VW55x_RELEASE_V1.0.2/MSDK/wpa_supplicant/src/tls\pkcs8.c **** 	/* privateKeyAlgorithm PrivateKeyAlgorithmIdentifier
  65:C:/Users/stapi/OneDrive/Desktop/GD32VW553/V1_MQTT_OK/GD32VW55X_Wifi_BLE_SDK/GD32VW55x_RELEASE_V1.0.2/MSDK/wpa_supplicant/src/tls\pkcs8.c **** 	 * (PrivateKeyAlgorithmIdentifier ::= AlgorithmIdentifier) */
  66:C:/Users/stapi/OneDrive/Desktop/GD32VW553/V1_MQTT_OK/GD32VW55X_Wifi_BLE_SDK/GD32VW55x_RELEASE_V1.0.2/MSDK/wpa_supplicant/src/tls\pkcs8.c **** 	if (asn1_get_next(pos, len, &hdr) < 0 || !asn1_is_sequence(&hdr)) {
  67:C:/Users/stapi/OneDrive/Desktop/GD32VW553/V1_MQTT_OK/GD32VW55X_Wifi_BLE_SDK/GD32VW55x_RELEASE_V1.0.2/MSDK/wpa_supplicant/src/tls\pkcs8.c **** 		asn1_unexpected(&hdr,
  68:C:/Users/stapi/OneDrive/Desktop/GD32VW553/V1_MQTT_OK/GD32VW55X_Wifi_BLE_SDK/GD32VW55x_RELEASE_V1.0.2/MSDK/wpa_supplicant/src/tls\pkcs8.c **** 				"PKCS #8: Expected SEQUENCE (AlgorithmIdentifier); assume PKCS #8 not used");
  69:C:/Users/stapi/OneDrive/Desktop/GD32VW553/V1_MQTT_OK/GD32VW55X_Wifi_BLE_SDK/GD32VW55x_RELEASE_V1.0.2/MSDK/wpa_supplicant/src/tls\pkcs8.c **** 		return NULL;
  70:C:/Users/stapi/OneDrive/Desktop/GD32VW553/V1_MQTT_OK/GD32VW55X_Wifi_BLE_SDK/GD32VW55x_RELEASE_V1.0.2/MSDK/wpa_supplicant/src/tls\pkcs8.c **** 	}
  71:C:/Users/stapi/OneDrive/Desktop/GD32VW553/V1_MQTT_OK/GD32VW55X_Wifi_BLE_SDK/GD32VW55x_RELEASE_V1.0.2/MSDK/wpa_supplicant/src/tls\pkcs8.c **** 
  72:C:/Users/stapi/OneDrive/Desktop/GD32VW553/V1_MQTT_OK/GD32VW55X_Wifi_BLE_SDK/GD32VW55x_RELEASE_V1.0.2/MSDK/wpa_supplicant/src/tls\pkcs8.c **** 	if (asn1_get_oid(hdr.payload, hdr.length, &oid, &pos)) {
  73:C:/Users/stapi/OneDrive/Desktop/GD32VW553/V1_MQTT_OK/GD32VW55X_Wifi_BLE_SDK/GD32VW55x_RELEASE_V1.0.2/MSDK/wpa_supplicant/src/tls\pkcs8.c **** 		wpa_printf(MSG_DEBUG, "PKCS #8: Failed to parse OID "
  74:C:/Users/stapi/OneDrive/Desktop/GD32VW553/V1_MQTT_OK/GD32VW55X_Wifi_BLE_SDK/GD32VW55x_RELEASE_V1.0.2/MSDK/wpa_supplicant/src/tls\pkcs8.c **** 			   "(algorithm); assume PKCS #8 not used");
  75:C:/Users/stapi/OneDrive/Desktop/GD32VW553/V1_MQTT_OK/GD32VW55X_Wifi_BLE_SDK/GD32VW55x_RELEASE_V1.0.2/MSDK/wpa_supplicant/src/tls\pkcs8.c **** 		return NULL;
  76:C:/Users/stapi/OneDrive/Desktop/GD32VW553/V1_MQTT_OK/GD32VW55X_Wifi_BLE_SDK/GD32VW55x_RELEASE_V1.0.2/MSDK/wpa_supplicant/src/tls\pkcs8.c **** 	}
  77:C:/Users/stapi/OneDrive/Desktop/GD32VW553/V1_MQTT_OK/GD32VW55X_Wifi_BLE_SDK/GD32VW55x_RELEASE_V1.0.2/MSDK/wpa_supplicant/src/tls\pkcs8.c **** 
  78:C:/Users/stapi/OneDrive/Desktop/GD32VW553/V1_MQTT_OK/GD32VW55X_Wifi_BLE_SDK/GD32VW55x_RELEASE_V1.0.2/MSDK/wpa_supplicant/src/tls\pkcs8.c **** 	asn1_oid_to_str(&oid, obuf, sizeof(obuf));
  79:C:/Users/stapi/OneDrive/Desktop/GD32VW553/V1_MQTT_OK/GD32VW55X_Wifi_BLE_SDK/GD32VW55x_RELEASE_V1.0.2/MSDK/wpa_supplicant/src/tls\pkcs8.c **** 	wpa_printf(MSG_DEBUG, "PKCS #8: algorithm=%s", obuf);
  80:C:/Users/stapi/OneDrive/Desktop/GD32VW553/V1_MQTT_OK/GD32VW55X_Wifi_BLE_SDK/GD32VW55x_RELEASE_V1.0.2/MSDK/wpa_supplicant/src/tls\pkcs8.c **** 
  81:C:/Users/stapi/OneDrive/Desktop/GD32VW553/V1_MQTT_OK/GD32VW55X_Wifi_BLE_SDK/GD32VW55x_RELEASE_V1.0.2/MSDK/wpa_supplicant/src/tls\pkcs8.c **** 	if (oid.len != 7 ||
  82:C:/Users/stapi/OneDrive/Desktop/GD32VW553/V1_MQTT_OK/GD32VW55X_Wifi_BLE_SDK/GD32VW55x_RELEASE_V1.0.2/MSDK/wpa_supplicant/src/tls\pkcs8.c **** 	    oid.oid[0] != 1 /* iso */ ||
  83:C:/Users/stapi/OneDrive/Desktop/GD32VW553/V1_MQTT_OK/GD32VW55X_Wifi_BLE_SDK/GD32VW55x_RELEASE_V1.0.2/MSDK/wpa_supplicant/src/tls\pkcs8.c **** 	    oid.oid[1] != 2 /* member-body */ ||
  84:C:/Users/stapi/OneDrive/Desktop/GD32VW553/V1_MQTT_OK/GD32VW55X_Wifi_BLE_SDK/GD32VW55x_RELEASE_V1.0.2/MSDK/wpa_supplicant/src/tls\pkcs8.c **** 	    oid.oid[2] != 840 /* us */ ||
  85:C:/Users/stapi/OneDrive/Desktop/GD32VW553/V1_MQTT_OK/GD32VW55X_Wifi_BLE_SDK/GD32VW55x_RELEASE_V1.0.2/MSDK/wpa_supplicant/src/tls\pkcs8.c **** 	    oid.oid[3] != 113549 /* rsadsi */ ||
  86:C:/Users/stapi/OneDrive/Desktop/GD32VW553/V1_MQTT_OK/GD32VW55X_Wifi_BLE_SDK/GD32VW55x_RELEASE_V1.0.2/MSDK/wpa_supplicant/src/tls\pkcs8.c **** 	    oid.oid[4] != 1 /* pkcs */ ||
  87:C:/Users/stapi/OneDrive/Desktop/GD32VW553/V1_MQTT_OK/GD32VW55X_Wifi_BLE_SDK/GD32VW55x_RELEASE_V1.0.2/MSDK/wpa_supplicant/src/tls\pkcs8.c **** 	    oid.oid[5] != 1 /* pkcs-1 */ ||
  88:C:/Users/stapi/OneDrive/Desktop/GD32VW553/V1_MQTT_OK/GD32VW55X_Wifi_BLE_SDK/GD32VW55x_RELEASE_V1.0.2/MSDK/wpa_supplicant/src/tls\pkcs8.c **** 	    oid.oid[6] != 1 /* rsaEncryption */) {
  89:C:/Users/stapi/OneDrive/Desktop/GD32VW553/V1_MQTT_OK/GD32VW55X_Wifi_BLE_SDK/GD32VW55x_RELEASE_V1.0.2/MSDK/wpa_supplicant/src/tls\pkcs8.c **** 		wpa_printf(MSG_DEBUG, "PKCS #8: Unsupported private key "
  90:C:/Users/stapi/OneDrive/Desktop/GD32VW553/V1_MQTT_OK/GD32VW55X_Wifi_BLE_SDK/GD32VW55x_RELEASE_V1.0.2/MSDK/wpa_supplicant/src/tls\pkcs8.c **** 			   "algorithm %s", obuf);
  91:C:/Users/stapi/OneDrive/Desktop/GD32VW553/V1_MQTT_OK/GD32VW55X_Wifi_BLE_SDK/GD32VW55x_RELEASE_V1.0.2/MSDK/wpa_supplicant/src/tls\pkcs8.c **** 		return NULL;
  92:C:/Users/stapi/OneDrive/Desktop/GD32VW553/V1_MQTT_OK/GD32VW55X_Wifi_BLE_SDK/GD32VW55x_RELEASE_V1.0.2/MSDK/wpa_supplicant/src/tls\pkcs8.c **** 	}
  93:C:/Users/stapi/OneDrive/Desktop/GD32VW553/V1_MQTT_OK/GD32VW55X_Wifi_BLE_SDK/GD32VW55x_RELEASE_V1.0.2/MSDK/wpa_supplicant/src/tls\pkcs8.c **** 
  94:C:/Users/stapi/OneDrive/Desktop/GD32VW553/V1_MQTT_OK/GD32VW55X_Wifi_BLE_SDK/GD32VW55x_RELEASE_V1.0.2/MSDK/wpa_supplicant/src/tls\pkcs8.c **** 	pos = hdr.payload + hdr.length;
  95:C:/Users/stapi/OneDrive/Desktop/GD32VW553/V1_MQTT_OK/GD32VW55X_Wifi_BLE_SDK/GD32VW55x_RELEASE_V1.0.2/MSDK/wpa_supplicant/src/tls\pkcs8.c **** 
  96:C:/Users/stapi/OneDrive/Desktop/GD32VW553/V1_MQTT_OK/GD32VW55X_Wifi_BLE_SDK/GD32VW55x_RELEASE_V1.0.2/MSDK/wpa_supplicant/src/tls\pkcs8.c **** 	/* privateKey PrivateKey (PrivateKey ::= OCTET STRING) */
  97:C:/Users/stapi/OneDrive/Desktop/GD32VW553/V1_MQTT_OK/GD32VW55X_Wifi_BLE_SDK/GD32VW55x_RELEASE_V1.0.2/MSDK/wpa_supplicant/src/tls\pkcs8.c **** 	if (asn1_get_next(pos, end - pos, &hdr) < 0 ||
  98:C:/Users/stapi/OneDrive/Desktop/GD32VW553/V1_MQTT_OK/GD32VW55X_Wifi_BLE_SDK/GD32VW55x_RELEASE_V1.0.2/MSDK/wpa_supplicant/src/tls\pkcs8.c **** 	    !asn1_is_octetstring(&hdr)) {
  99:C:/Users/stapi/OneDrive/Desktop/GD32VW553/V1_MQTT_OK/GD32VW55X_Wifi_BLE_SDK/GD32VW55x_RELEASE_V1.0.2/MSDK/wpa_supplicant/src/tls\pkcs8.c **** 		asn1_unexpected(&hdr,
 119              		.loc 1 99 3 is_stmt 0
 120 0052 6800     		addi	a0,sp,12
 121 0054 97000000 		call	asn1_unexpected
 121      E7800000 
 122              	.LVL7:
 123 005c 91A8     		j	.L22
 124              	.LVL8:
 125              	.L18:
 126              	.LBB12:
 127              	.LBB13:
 102:C:/Users/stapi/OneDrive/Desktop/GD32VW553/V1_MQTT_OK/GD32VW55X_Wifi_BLE_SDK/GD32VW55x_RELEASE_V1.0.2/MSDK/wpa_supplicant/src/tls\asn1.h **** 		hdr->tag == ASN1_TAG_INTEGER;
 128              		.loc 2 102 2 is_stmt 1
 102:C:/Users/stapi/OneDrive/Desktop/GD32VW553/V1_MQTT_OK/GD32VW55X_Wifi_BLE_SDK/GD32VW55x_RELEASE_V1.0.2/MSDK/wpa_supplicant/src/tls\asn1.h **** 		hdr->tag == ASN1_TAG_INTEGER;
 129              		.loc 2 102 44 is_stmt 0
 130 005e 83471101 		lbu	a5,17(sp)
 131 0062 F9FF     		bne	a5,zero,.L3
 132 0064 5247     		lw	a4,20(sp)
 133 0066 8947     		li	a5,2
 134 0068 E31CF7FC 		bne	a4,a5,.L3
 135              	.LVL9:
 136              	.LBE13:
 137              	.LBE12:
  44:C:/Users/stapi/OneDrive/Desktop/GD32VW553/V1_MQTT_OK/GD32VW55X_Wifi_BLE_SDK/GD32VW55x_RELEASE_V1.0.2/MSDK/wpa_supplicant/src/tls\pkcs8.c **** 	if (zero == NULL)
 138              		.loc 1 44 2 is_stmt 1
  44:C:/Users/stapi/OneDrive/Desktop/GD32VW553/V1_MQTT_OK/GD32VW55X_Wifi_BLE_SDK/GD32VW55x_RELEASE_V1.0.2/MSDK/wpa_supplicant/src/tls\pkcs8.c **** 	if (zero == NULL)
 139              		.loc 1 44 9 is_stmt 0
 140 006c 97000000 		call	bignum_init
 140      E7800000 
 141              	.LVL10:
 142 0074 2A84     		mv	s0,a0
 143              	.LVL11:
  45:C:/Users/stapi/OneDrive/Desktop/GD32VW553/V1_MQTT_OK/GD32VW55X_Wifi_BLE_SDK/GD32VW55x_RELEASE_V1.0.2/MSDK/wpa_supplicant/src/tls\pkcs8.c **** 		return NULL;
 144              		.loc 1 45 2 is_stmt 1
  45:C:/Users/stapi/OneDrive/Desktop/GD32VW553/V1_MQTT_OK/GD32VW55X_Wifi_BLE_SDK/GD32VW55x_RELEASE_V1.0.2/MSDK/wpa_supplicant/src/tls\pkcs8.c **** 		return NULL;
 145              		.loc 1 45 5 is_stmt 0
 146 0076 19E5     		bne	a0,zero,.L19
 147              	.LVL12:
 148              	.L1:
 100:C:/Users/stapi/OneDrive/Desktop/GD32VW553/V1_MQTT_OK/GD32VW55X_Wifi_BLE_SDK/GD32VW55x_RELEASE_V1.0.2/MSDK/wpa_supplicant/src/tls\pkcs8.c **** 				"PKCS #8: Expected OCTETSTRING (privateKey)");
 101:C:/Users/stapi/OneDrive/Desktop/GD32VW553/V1_MQTT_OK/GD32VW55X_Wifi_BLE_SDK/GD32VW55x_RELEASE_V1.0.2/MSDK/wpa_supplicant/src/tls\pkcs8.c **** 		return NULL;
 102:C:/Users/stapi/OneDrive/Desktop/GD32VW553/V1_MQTT_OK/GD32VW55X_Wifi_BLE_SDK/GD32VW55x_RELEASE_V1.0.2/MSDK/wpa_supplicant/src/tls\pkcs8.c **** 	}
 103:C:/Users/stapi/OneDrive/Desktop/GD32VW553/V1_MQTT_OK/GD32VW55X_Wifi_BLE_SDK/GD32VW55x_RELEASE_V1.0.2/MSDK/wpa_supplicant/src/tls\pkcs8.c **** 	wpa_printf(MSG_DEBUG, "PKCS #8: Try to parse RSAPrivateKey");
 104:C:/Users/stapi/OneDrive/Desktop/GD32VW553/V1_MQTT_OK/GD32VW55X_Wifi_BLE_SDK/GD32VW55x_RELEASE_V1.0.2/MSDK/wpa_supplicant/src/tls\pkcs8.c **** 
 105:C:/Users/stapi/OneDrive/Desktop/GD32VW553/V1_MQTT_OK/GD32VW55X_Wifi_BLE_SDK/GD32VW55x_RELEASE_V1.0.2/MSDK/wpa_supplicant/src/tls\pkcs8.c **** 	return (struct crypto_private_key *)
 106:C:/Users/stapi/OneDrive/Desktop/GD32VW553/V1_MQTT_OK/GD32VW55X_Wifi_BLE_SDK/GD32VW55x_RELEASE_V1.0.2/MSDK/wpa_supplicant/src/tls\pkcs8.c **** 		crypto_rsa_import_private_key(hdr.payload, hdr.length);
 107:C:/Users/stapi/OneDrive/Desktop/GD32VW553/V1_MQTT_OK/GD32VW55X_Wifi_BLE_SDK/GD32VW55x_RELEASE_V1.0.2/MSDK/wpa_supplicant/src/tls\pkcs8.c **** }
 149              		.loc 1 107 1
 150 0078 2285     		mv	a0,s0
 151 007a 2961     		addi	sp,sp,192
 152              		.cfi_remember_state
 153              		.cfi_def_cfa_offset 0
 154 007c 17030000 		tail	__riscv_restore_4
 154      67000300 
 155              		.cfi_restore 19
 156              		.cfi_restore 18
 157              		.cfi_restore 9
 158              		.cfi_restore 8
 159              		.cfi_restore 1
 160              		.cfi_def_cfa_offset -32
 161              	.LVL13:
 162              	.L19:
 163              		.cfi_restore_state
  48:C:/Users/stapi/OneDrive/Desktop/GD32VW553/V1_MQTT_OK/GD32VW55X_Wifi_BLE_SDK/GD32VW55x_RELEASE_V1.0.2/MSDK/wpa_supplicant/src/tls\pkcs8.c **** 		wpa_printf(MSG_DEBUG, "PKCS #8: Failed to parse INTEGER");
 164              		.loc 1 48 2 is_stmt 1
  48:C:/Users/stapi/OneDrive/Desktop/GD32VW553/V1_MQTT_OK/GD32VW55X_Wifi_BLE_SDK/GD32VW55x_RELEASE_V1.0.2/MSDK/wpa_supplicant/src/tls\pkcs8.c **** 		wpa_printf(MSG_DEBUG, "PKCS #8: Failed to parse INTEGER");
 165              		.loc 1 48 6 is_stmt 0
 166 0084 6246     		lw	a2,24(sp)
 167 0086 B245     		lw	a1,12(sp)
 168 0088 97000000 		call	bignum_set_unsigned_bin
 168      E7800000 
 169              	.LVL14:
  48:C:/Users/stapi/OneDrive/Desktop/GD32VW553/V1_MQTT_OK/GD32VW55X_Wifi_BLE_SDK/GD32VW55x_RELEASE_V1.0.2/MSDK/wpa_supplicant/src/tls\pkcs8.c **** 		wpa_printf(MSG_DEBUG, "PKCS #8: Failed to parse INTEGER");
 170              		.loc 1 48 5
 171 0090 63520502 		bge	a0,zero,.L7
  49:C:/Users/stapi/OneDrive/Desktop/GD32VW553/V1_MQTT_OK/GD32VW55X_Wifi_BLE_SDK/GD32VW55x_RELEASE_V1.0.2/MSDK/wpa_supplicant/src/tls\pkcs8.c **** 		bignum_deinit(zero);
 172              		.loc 1 49 3 is_stmt 1
 173 0094 B7050000 		lui	a1,%hi(.LC2)
 174 0098 93850500 		addi	a1,a1,%lo(.LC2)
 175              	.L24:
  56:C:/Users/stapi/OneDrive/Desktop/GD32VW553/V1_MQTT_OK/GD32VW55X_Wifi_BLE_SDK/GD32VW55x_RELEASE_V1.0.2/MSDK/wpa_supplicant/src/tls\pkcs8.c **** 			   "beginning of private key; not found; assume "
 176              		.loc 1 56 3 is_stmt 0
 177 009c 0945     		li	a0,2
 178 009e 97000000 		call	wpa_printf
 178      E7800000 
 179              	.LVL15:
  59:C:/Users/stapi/OneDrive/Desktop/GD32VW553/V1_MQTT_OK/GD32VW55X_Wifi_BLE_SDK/GD32VW55x_RELEASE_V1.0.2/MSDK/wpa_supplicant/src/tls\pkcs8.c **** 		return NULL;
 180              		.loc 1 59 3 is_stmt 1
 181 00a6 2285     		mv	a0,s0
 182 00a8 97000000 		call	bignum_deinit
 182      E7800000 
 183              	.LVL16:
  60:C:/Users/stapi/OneDrive/Desktop/GD32VW553/V1_MQTT_OK/GD32VW55X_Wifi_BLE_SDK/GD32VW55x_RELEASE_V1.0.2/MSDK/wpa_supplicant/src/tls\pkcs8.c **** 	}
 184              		.loc 1 60 3
 185              	.L22:
 101:C:/Users/stapi/OneDrive/Desktop/GD32VW553/V1_MQTT_OK/GD32VW55X_Wifi_BLE_SDK/GD32VW55x_RELEASE_V1.0.2/MSDK/wpa_supplicant/src/tls\pkcs8.c **** 	}
 186              		.loc 1 101 3
 101:C:/Users/stapi/OneDrive/Desktop/GD32VW553/V1_MQTT_OK/GD32VW55X_Wifi_BLE_SDK/GD32VW55x_RELEASE_V1.0.2/MSDK/wpa_supplicant/src/tls\pkcs8.c **** 	}
 187              		.loc 1 101 10 is_stmt 0
 188 00b0 0144     		li	s0,0
 189 00b2 D9B7     		j	.L1
 190              	.LVL17:
 191              	.L7:
  53:C:/Users/stapi/OneDrive/Desktop/GD32VW553/V1_MQTT_OK/GD32VW55X_Wifi_BLE_SDK/GD32VW55x_RELEASE_V1.0.2/MSDK/wpa_supplicant/src/tls\pkcs8.c **** 
 192              		.loc 1 53 2 is_stmt 1
  53:C:/Users/stapi/OneDrive/Desktop/GD32VW553/V1_MQTT_OK/GD32VW55X_Wifi_BLE_SDK/GD32VW55x_RELEASE_V1.0.2/MSDK/wpa_supplicant/src/tls\pkcs8.c **** 
 193              		.loc 1 53 20 is_stmt 0
 194 00b4 B247     		lw	a5,12(sp)
 195 00b6 6247     		lw	a4,24(sp)
  55:C:/Users/stapi/OneDrive/Desktop/GD32VW553/V1_MQTT_OK/GD32VW55X_Wifi_BLE_SDK/GD32VW55x_RELEASE_V1.0.2/MSDK/wpa_supplicant/src/tls\pkcs8.c **** 		wpa_printf(MSG_DEBUG, "PKCS #8: Expected zero INTEGER in the "
 196              		.loc 1 55 6
 197 00b8 8145     		li	a1,0
 198 00ba 2285     		mv	a0,s0
  53:C:/Users/stapi/OneDrive/Desktop/GD32VW553/V1_MQTT_OK/GD32VW55X_Wifi_BLE_SDK/GD32VW55x_RELEASE_V1.0.2/MSDK/wpa_supplicant/src/tls\pkcs8.c **** 
 199              		.loc 1 53 20
 200 00bc BA97     		add	a5,a5,a4
  53:C:/Users/stapi/OneDrive/Desktop/GD32VW553/V1_MQTT_OK/GD32VW55X_Wifi_BLE_SDK/GD32VW55x_RELEASE_V1.0.2/MSDK/wpa_supplicant/src/tls\pkcs8.c **** 
 201              		.loc 1 53 6
 202 00be 3EC4     		sw	a5,8(sp)
  55:C:/Users/stapi/OneDrive/Desktop/GD32VW553/V1_MQTT_OK/GD32VW55X_Wifi_BLE_SDK/GD32VW55x_RELEASE_V1.0.2/MSDK/wpa_supplicant/src/tls\pkcs8.c **** 		wpa_printf(MSG_DEBUG, "PKCS #8: Expected zero INTEGER in the "
 203              		.loc 1 55 2 is_stmt 1
  55:C:/Users/stapi/OneDrive/Desktop/GD32VW553/V1_MQTT_OK/GD32VW55X_Wifi_BLE_SDK/GD32VW55x_RELEASE_V1.0.2/MSDK/wpa_supplicant/src/tls\pkcs8.c **** 		wpa_printf(MSG_DEBUG, "PKCS #8: Expected zero INTEGER in the "
 204              		.loc 1 55 6 is_stmt 0
 205 00c0 97000000 		call	bignum_cmp_d
 205      E7800000 
 206              	.LVL18:
  55:C:/Users/stapi/OneDrive/Desktop/GD32VW553/V1_MQTT_OK/GD32VW55X_Wifi_BLE_SDK/GD32VW55x_RELEASE_V1.0.2/MSDK/wpa_supplicant/src/tls\pkcs8.c **** 		wpa_printf(MSG_DEBUG, "PKCS #8: Expected zero INTEGER in the "
 207              		.loc 1 55 5
 208 00c8 11C5     		beq	a0,zero,.L8
  56:C:/Users/stapi/OneDrive/Desktop/GD32VW553/V1_MQTT_OK/GD32VW55X_Wifi_BLE_SDK/GD32VW55x_RELEASE_V1.0.2/MSDK/wpa_supplicant/src/tls\pkcs8.c **** 			   "beginning of private key; not found; assume "
 209              		.loc 1 56 3 is_stmt 1
 210 00ca B7050000 		lui	a1,%hi(.LC3)
 211 00ce 93850500 		addi	a1,a1,%lo(.LC3)
 212 00d2 E9B7     		j	.L24
 213              	.L8:
  62:C:/Users/stapi/OneDrive/Desktop/GD32VW553/V1_MQTT_OK/GD32VW55X_Wifi_BLE_SDK/GD32VW55x_RELEASE_V1.0.2/MSDK/wpa_supplicant/src/tls\pkcs8.c **** 
 214              		.loc 1 62 2
 215 00d4 2285     		mv	a0,s0
 216 00d6 97000000 		call	bignum_deinit
 216      E7800000 
 217              	.LVL19:
  66:C:/Users/stapi/OneDrive/Desktop/GD32VW553/V1_MQTT_OK/GD32VW55X_Wifi_BLE_SDK/GD32VW55x_RELEASE_V1.0.2/MSDK/wpa_supplicant/src/tls\pkcs8.c **** 		asn1_unexpected(&hdr,
 218              		.loc 1 66 2
  66:C:/Users/stapi/OneDrive/Desktop/GD32VW553/V1_MQTT_OK/GD32VW55X_Wifi_BLE_SDK/GD32VW55x_RELEASE_V1.0.2/MSDK/wpa_supplicant/src/tls\pkcs8.c **** 		asn1_unexpected(&hdr,
 219              		.loc 1 66 6 is_stmt 0
 220 00de 2245     		lw	a0,8(sp)
 221 00e0 7000     		addi	a2,sp,12
 222 00e2 CA85     		mv	a1,s2
 223 00e4 97000000 		call	asn1_get_next
 223      E7800000 
 224              	.LVL20:
  66:C:/Users/stapi/OneDrive/Desktop/GD32VW553/V1_MQTT_OK/GD32VW55X_Wifi_BLE_SDK/GD32VW55x_RELEASE_V1.0.2/MSDK/wpa_supplicant/src/tls\pkcs8.c **** 		asn1_unexpected(&hdr,
 225              		.loc 1 66 5
 226 00ec 634C0502 		blt	a0,zero,.L9
 227              	.LVL21:
 228              	.LBB14:
 229              	.LBB15:
 230              		.loc 2 114 2 is_stmt 1
 231              		.loc 2 114 44 is_stmt 0
 232 00f0 83471101 		lbu	a5,17(sp)
 233 00f4 85EB     		bne	a5,zero,.L9
 234 00f6 5247     		lw	a4,20(sp)
 235 00f8 C147     		li	a5,16
 236 00fa 6315F702 		bne	a4,a5,.L9
 237              	.LVL22:
 238              	.LBE15:
 239              	.LBE14:
  72:C:/Users/stapi/OneDrive/Desktop/GD32VW553/V1_MQTT_OK/GD32VW55X_Wifi_BLE_SDK/GD32VW55x_RELEASE_V1.0.2/MSDK/wpa_supplicant/src/tls\pkcs8.c **** 		wpa_printf(MSG_DEBUG, "PKCS #8: Failed to parse OID "
 240              		.loc 1 72 2 is_stmt 1
  72:C:/Users/stapi/OneDrive/Desktop/GD32VW553/V1_MQTT_OK/GD32VW55X_Wifi_BLE_SDK/GD32VW55x_RELEASE_V1.0.2/MSDK/wpa_supplicant/src/tls\pkcs8.c **** 		wpa_printf(MSG_DEBUG, "PKCS #8: Failed to parse OID "
 241              		.loc 1 72 6 is_stmt 0
 242 00fe E245     		lw	a1,24(sp)
 243 0100 3245     		lw	a0,12(sp)
 244 0102 3400     		addi	a3,sp,8
 245 0104 F010     		addi	a2,sp,108
 246 0106 97000000 		call	asn1_get_oid
 246      E7800000 
 247              	.LVL23:
  72:C:/Users/stapi/OneDrive/Desktop/GD32VW553/V1_MQTT_OK/GD32VW55X_Wifi_BLE_SDK/GD32VW55x_RELEASE_V1.0.2/MSDK/wpa_supplicant/src/tls\pkcs8.c **** 		wpa_printf(MSG_DEBUG, "PKCS #8: Failed to parse OID "
 248              		.loc 1 72 5
 249 010e 05C1     		beq	a0,zero,.L20
  73:C:/Users/stapi/OneDrive/Desktop/GD32VW553/V1_MQTT_OK/GD32VW55X_Wifi_BLE_SDK/GD32VW55x_RELEASE_V1.0.2/MSDK/wpa_supplicant/src/tls\pkcs8.c **** 			   "(algorithm); assume PKCS #8 not used");
 250              		.loc 1 73 3 is_stmt 1
 251 0110 B7050000 		lui	a1,%hi(.LC5)
 252 0114 93850500 		addi	a1,a1,%lo(.LC5)
 253 0118 0945     		li	a0,2
 254 011a 97000000 		call	wpa_printf
 254      E7800000 
 255              	.LVL24:
  75:C:/Users/stapi/OneDrive/Desktop/GD32VW553/V1_MQTT_OK/GD32VW55X_Wifi_BLE_SDK/GD32VW55x_RELEASE_V1.0.2/MSDK/wpa_supplicant/src/tls\pkcs8.c **** 	}
 256              		.loc 1 75 3
 257 0122 79B7     		j	.L22
 258              	.L9:
  67:C:/Users/stapi/OneDrive/Desktop/GD32VW553/V1_MQTT_OK/GD32VW55X_Wifi_BLE_SDK/GD32VW55x_RELEASE_V1.0.2/MSDK/wpa_supplicant/src/tls\pkcs8.c **** 				"PKCS #8: Expected SEQUENCE (AlgorithmIdentifier); assume PKCS #8 not used");
 259              		.loc 1 67 3
 260 0124 B7050000 		lui	a1,%hi(.LC4)
 261 0128 93850500 		addi	a1,a1,%lo(.LC4)
 262 012c 1DB7     		j	.L23
 263              	.L20:
  78:C:/Users/stapi/OneDrive/Desktop/GD32VW553/V1_MQTT_OK/GD32VW55X_Wifi_BLE_SDK/GD32VW55x_RELEASE_V1.0.2/MSDK/wpa_supplicant/src/tls\pkcs8.c **** 	wpa_printf(MSG_DEBUG, "PKCS #8: algorithm=%s", obuf);
 264              		.loc 1 78 2
 265 012e 13060005 		li	a2,80
 266 0132 6C08     		addi	a1,sp,28
 267 0134 E810     		addi	a0,sp,108
 268 0136 97000000 		call	asn1_oid_to_str
 268      E7800000 
 269              	.LVL25:
  79:C:/Users/stapi/OneDrive/Desktop/GD32VW553/V1_MQTT_OK/GD32VW55X_Wifi_BLE_SDK/GD32VW55x_RELEASE_V1.0.2/MSDK/wpa_supplicant/src/tls\pkcs8.c **** 
 270              		.loc 1 79 2
 271 013e B7050000 		lui	a1,%hi(.LC6)
 272 0142 7008     		addi	a2,sp,28
 273 0144 93850500 		addi	a1,a1,%lo(.LC6)
 274 0148 0945     		li	a0,2
 275 014a 97000000 		call	wpa_printf
 275      E7800000 
 276              	.LVL26:
  81:C:/Users/stapi/OneDrive/Desktop/GD32VW553/V1_MQTT_OK/GD32VW55X_Wifi_BLE_SDK/GD32VW55x_RELEASE_V1.0.2/MSDK/wpa_supplicant/src/tls\pkcs8.c **** 	    oid.oid[0] != 1 /* iso */ ||
 277              		.loc 1 81 2
  81:C:/Users/stapi/OneDrive/Desktop/GD32VW553/V1_MQTT_OK/GD32VW55X_Wifi_BLE_SDK/GD32VW55x_RELEASE_V1.0.2/MSDK/wpa_supplicant/src/tls\pkcs8.c **** 	    oid.oid[0] != 1 /* iso */ ||
 278              		.loc 1 81 5 is_stmt 0
 279 0152 7A57     		lw	a4,188(sp)
 280 0154 9D47     		li	a5,7
 281 0156 631FF702 		bne	a4,a5,.L12
  81:C:/Users/stapi/OneDrive/Desktop/GD32VW553/V1_MQTT_OK/GD32VW55X_Wifi_BLE_SDK/GD32VW55x_RELEASE_V1.0.2/MSDK/wpa_supplicant/src/tls\pkcs8.c **** 	    oid.oid[0] != 1 /* iso */ ||
 282              		.loc 1 81 19 discriminator 1
 283 015a 3657     		lw	a4,108(sp)
 284 015c 8547     		li	a5,1
 285 015e 631BF702 		bne	a4,a5,.L12
  82:C:/Users/stapi/OneDrive/Desktop/GD32VW553/V1_MQTT_OK/GD32VW55X_Wifi_BLE_SDK/GD32VW55x_RELEASE_V1.0.2/MSDK/wpa_supplicant/src/tls\pkcs8.c **** 	    oid.oid[1] != 2 /* member-body */ ||
 286              		.loc 1 82 32
 287 0162 C656     		lw	a3,112(sp)
 288 0164 8947     		li	a5,2
 289 0166 6397F602 		bne	a3,a5,.L12
  83:C:/Users/stapi/OneDrive/Desktop/GD32VW553/V1_MQTT_OK/GD32VW55X_Wifi_BLE_SDK/GD32VW55x_RELEASE_V1.0.2/MSDK/wpa_supplicant/src/tls\pkcs8.c **** 	    oid.oid[2] != 840 /* us */ ||
 290              		.loc 1 83 40
 291 016a D656     		lw	a3,116(sp)
 292 016c 93078034 		li	a5,840
 293 0170 6392F602 		bne	a3,a5,.L12
  84:C:/Users/stapi/OneDrive/Desktop/GD32VW553/V1_MQTT_OK/GD32VW55X_Wifi_BLE_SDK/GD32VW55x_RELEASE_V1.0.2/MSDK/wpa_supplicant/src/tls\pkcs8.c **** 	    oid.oid[3] != 113549 /* rsadsi */ ||
 294              		.loc 1 84 33
 295 0174 E656     		lw	a3,120(sp)
 296 0176 F167     		li	a5,114688
 297 0178 9387D7B8 		addi	a5,a5,-1139
 298 017c 639CF600 		bne	a3,a5,.L12
  85:C:/Users/stapi/OneDrive/Desktop/GD32VW553/V1_MQTT_OK/GD32VW55X_Wifi_BLE_SDK/GD32VW55x_RELEASE_V1.0.2/MSDK/wpa_supplicant/src/tls\pkcs8.c **** 	    oid.oid[4] != 1 /* pkcs */ ||
 299              		.loc 1 85 40
 300 0180 F657     		lw	a5,124(sp)
 301 0182 6399E700 		bne	a5,a4,.L12
  86:C:/Users/stapi/OneDrive/Desktop/GD32VW553/V1_MQTT_OK/GD32VW55X_Wifi_BLE_SDK/GD32VW55x_RELEASE_V1.0.2/MSDK/wpa_supplicant/src/tls\pkcs8.c **** 	    oid.oid[5] != 1 /* pkcs-1 */ ||
 302              		.loc 1 86 33
 303 0186 0A47     		lw	a4,128(sp)
 304 0188 6316F700 		bne	a4,a5,.L12
  87:C:/Users/stapi/OneDrive/Desktop/GD32VW553/V1_MQTT_OK/GD32VW55X_Wifi_BLE_SDK/GD32VW55x_RELEASE_V1.0.2/MSDK/wpa_supplicant/src/tls\pkcs8.c **** 	    oid.oid[6] != 1 /* rsaEncryption */) {
 305              		.loc 1 87 35
 306 018c 1A47     		lw	a4,132(sp)
 307 018e 8547     		li	a5,1
 308 0190 630DF700 		beq	a4,a5,.L13
 309              	.L12:
  89:C:/Users/stapi/OneDrive/Desktop/GD32VW553/V1_MQTT_OK/GD32VW55X_Wifi_BLE_SDK/GD32VW55x_RELEASE_V1.0.2/MSDK/wpa_supplicant/src/tls\pkcs8.c **** 			   "algorithm %s", obuf);
 310              		.loc 1 89 3 is_stmt 1
 311 0194 B7050000 		lui	a1,%hi(.LC7)
 312 0198 7008     		addi	a2,sp,28
 313 019a 93850500 		addi	a1,a1,%lo(.LC7)
 314 019e 0945     		li	a0,2
 315 01a0 97000000 		call	wpa_printf
 315      E7800000 
 316              	.LVL27:
  91:C:/Users/stapi/OneDrive/Desktop/GD32VW553/V1_MQTT_OK/GD32VW55X_Wifi_BLE_SDK/GD32VW55x_RELEASE_V1.0.2/MSDK/wpa_supplicant/src/tls\pkcs8.c **** 	}
 317              		.loc 1 91 3
 318 01a8 21B7     		j	.L22
 319              	.L13:
  94:C:/Users/stapi/OneDrive/Desktop/GD32VW553/V1_MQTT_OK/GD32VW55X_Wifi_BLE_SDK/GD32VW55x_RELEASE_V1.0.2/MSDK/wpa_supplicant/src/tls\pkcs8.c **** 
 320              		.loc 1 94 2
  94:C:/Users/stapi/OneDrive/Desktop/GD32VW553/V1_MQTT_OK/GD32VW55X_Wifi_BLE_SDK/GD32VW55x_RELEASE_V1.0.2/MSDK/wpa_supplicant/src/tls\pkcs8.c **** 
 321              		.loc 1 94 20 is_stmt 0
 322 01aa 3245     		lw	a0,12(sp)
 323 01ac E247     		lw	a5,24(sp)
  36:C:/Users/stapi/OneDrive/Desktop/GD32VW553/V1_MQTT_OK/GD32VW55X_Wifi_BLE_SDK/GD32VW55x_RELEASE_V1.0.2/MSDK/wpa_supplicant/src/tls\pkcs8.c **** 
 324              		.loc 1 36 6
 325 01ae B3853401 		add	a1,s1,s3
  97:C:/Users/stapi/OneDrive/Desktop/GD32VW553/V1_MQTT_OK/GD32VW55X_Wifi_BLE_SDK/GD32VW55x_RELEASE_V1.0.2/MSDK/wpa_supplicant/src/tls\pkcs8.c **** 	    !asn1_is_octetstring(&hdr)) {
 326              		.loc 1 97 6
 327 01b2 7000     		addi	a2,sp,12
  94:C:/Users/stapi/OneDrive/Desktop/GD32VW553/V1_MQTT_OK/GD32VW55X_Wifi_BLE_SDK/GD32VW55x_RELEASE_V1.0.2/MSDK/wpa_supplicant/src/tls\pkcs8.c **** 
 328              		.loc 1 94 20
 329 01b4 3E95     		add	a0,a0,a5
  97:C:/Users/stapi/OneDrive/Desktop/GD32VW553/V1_MQTT_OK/GD32VW55X_Wifi_BLE_SDK/GD32VW55x_RELEASE_V1.0.2/MSDK/wpa_supplicant/src/tls\pkcs8.c **** 	    !asn1_is_octetstring(&hdr)) {
 330              		.loc 1 97 6
 331 01b6 898D     		sub	a1,a1,a0
  94:C:/Users/stapi/OneDrive/Desktop/GD32VW553/V1_MQTT_OK/GD32VW55X_Wifi_BLE_SDK/GD32VW55x_RELEASE_V1.0.2/MSDK/wpa_supplicant/src/tls\pkcs8.c **** 
 332              		.loc 1 94 6
 333 01b8 2AC4     		sw	a0,8(sp)
  97:C:/Users/stapi/OneDrive/Desktop/GD32VW553/V1_MQTT_OK/GD32VW55X_Wifi_BLE_SDK/GD32VW55x_RELEASE_V1.0.2/MSDK/wpa_supplicant/src/tls\pkcs8.c **** 	    !asn1_is_octetstring(&hdr)) {
 334              		.loc 1 97 2 is_stmt 1
  97:C:/Users/stapi/OneDrive/Desktop/GD32VW553/V1_MQTT_OK/GD32VW55X_Wifi_BLE_SDK/GD32VW55x_RELEASE_V1.0.2/MSDK/wpa_supplicant/src/tls\pkcs8.c **** 	    !asn1_is_octetstring(&hdr)) {
 335              		.loc 1 97 6 is_stmt 0
 336 01ba 97000000 		call	asn1_get_next
 336      E7800000 
 337              	.LVL28:
  97:C:/Users/stapi/OneDrive/Desktop/GD32VW553/V1_MQTT_OK/GD32VW55X_Wifi_BLE_SDK/GD32VW55x_RELEASE_V1.0.2/MSDK/wpa_supplicant/src/tls\pkcs8.c **** 	    !asn1_is_octetstring(&hdr)) {
 338              		.loc 1 97 5
 339 01c2 634A0502 		blt	a0,zero,.L14
 340              	.LVL29:
 341              	.LBB16:
 342              	.LBB17:
 115:C:/Users/stapi/OneDrive/Desktop/GD32VW553/V1_MQTT_OK/GD32VW55X_Wifi_BLE_SDK/GD32VW55x_RELEASE_V1.0.2/MSDK/wpa_supplicant/src/tls\asn1.h **** 		hdr->tag == ASN1_TAG_SEQUENCE;
 116:C:/Users/stapi/OneDrive/Desktop/GD32VW553/V1_MQTT_OK/GD32VW55X_Wifi_BLE_SDK/GD32VW55x_RELEASE_V1.0.2/MSDK/wpa_supplicant/src/tls\asn1.h **** }
 117:C:/Users/stapi/OneDrive/Desktop/GD32VW553/V1_MQTT_OK/GD32VW55X_Wifi_BLE_SDK/GD32VW55x_RELEASE_V1.0.2/MSDK/wpa_supplicant/src/tls\asn1.h **** 
 118:C:/Users/stapi/OneDrive/Desktop/GD32VW553/V1_MQTT_OK/GD32VW55X_Wifi_BLE_SDK/GD32VW55x_RELEASE_V1.0.2/MSDK/wpa_supplicant/src/tls\asn1.h **** static inline bool asn1_is_set(const struct asn1_hdr *hdr)
 119:C:/Users/stapi/OneDrive/Desktop/GD32VW553/V1_MQTT_OK/GD32VW55X_Wifi_BLE_SDK/GD32VW55x_RELEASE_V1.0.2/MSDK/wpa_supplicant/src/tls\asn1.h **** {
 120:C:/Users/stapi/OneDrive/Desktop/GD32VW553/V1_MQTT_OK/GD32VW55X_Wifi_BLE_SDK/GD32VW55x_RELEASE_V1.0.2/MSDK/wpa_supplicant/src/tls\asn1.h **** 	return hdr->class == ASN1_CLASS_UNIVERSAL &&
 121:C:/Users/stapi/OneDrive/Desktop/GD32VW553/V1_MQTT_OK/GD32VW55X_Wifi_BLE_SDK/GD32VW55x_RELEASE_V1.0.2/MSDK/wpa_supplicant/src/tls\asn1.h **** 		hdr->tag == ASN1_TAG_SET;
 122:C:/Users/stapi/OneDrive/Desktop/GD32VW553/V1_MQTT_OK/GD32VW55X_Wifi_BLE_SDK/GD32VW55x_RELEASE_V1.0.2/MSDK/wpa_supplicant/src/tls\asn1.h **** }
 123:C:/Users/stapi/OneDrive/Desktop/GD32VW553/V1_MQTT_OK/GD32VW55X_Wifi_BLE_SDK/GD32VW55x_RELEASE_V1.0.2/MSDK/wpa_supplicant/src/tls\asn1.h **** 
 124:C:/Users/stapi/OneDrive/Desktop/GD32VW553/V1_MQTT_OK/GD32VW55X_Wifi_BLE_SDK/GD32VW55x_RELEASE_V1.0.2/MSDK/wpa_supplicant/src/tls\asn1.h **** static inline bool asn1_is_octetstring(const struct asn1_hdr *hdr)
 125:C:/Users/stapi/OneDrive/Desktop/GD32VW553/V1_MQTT_OK/GD32VW55X_Wifi_BLE_SDK/GD32VW55x_RELEASE_V1.0.2/MSDK/wpa_supplicant/src/tls\asn1.h **** {
 126:C:/Users/stapi/OneDrive/Desktop/GD32VW553/V1_MQTT_OK/GD32VW55X_Wifi_BLE_SDK/GD32VW55x_RELEASE_V1.0.2/MSDK/wpa_supplicant/src/tls\asn1.h **** 	return hdr->class == ASN1_CLASS_UNIVERSAL &&
 343              		.loc 2 126 2 is_stmt 1
 344              		.loc 2 126 44 is_stmt 0
 345 01c6 83471101 		lbu	a5,17(sp)
 346 01ca 95E7     		bne	a5,zero,.L14
 347 01cc 5247     		lw	a4,20(sp)
 348 01ce 9147     		li	a5,4
 349 01d0 6313F702 		bne	a4,a5,.L14
 350              	.LVL30:
 351              	.LBE17:
 352              	.LBE16:
 103:C:/Users/stapi/OneDrive/Desktop/GD32VW553/V1_MQTT_OK/GD32VW55X_Wifi_BLE_SDK/GD32VW55x_RELEASE_V1.0.2/MSDK/wpa_supplicant/src/tls\pkcs8.c **** 
 353              		.loc 1 103 2 is_stmt 1
 354 01d4 B7050000 		lui	a1,%hi(.LC8)
 355 01d8 93850500 		addi	a1,a1,%lo(.LC8)
 356 01dc 0945     		li	a0,2
 357 01de 97000000 		call	wpa_printf
 357      E7800000 
 358              	.LVL31:
 105:C:/Users/stapi/OneDrive/Desktop/GD32VW553/V1_MQTT_OK/GD32VW55X_Wifi_BLE_SDK/GD32VW55x_RELEASE_V1.0.2/MSDK/wpa_supplicant/src/tls\pkcs8.c **** 		crypto_rsa_import_private_key(hdr.payload, hdr.length);
 359              		.loc 1 105 2
 106:C:/Users/stapi/OneDrive/Desktop/GD32VW553/V1_MQTT_OK/GD32VW55X_Wifi_BLE_SDK/GD32VW55x_RELEASE_V1.0.2/MSDK/wpa_supplicant/src/tls\pkcs8.c **** }
 360              		.loc 1 106 3 is_stmt 0
 361 01e6 E245     		lw	a1,24(sp)
 362 01e8 3245     		lw	a0,12(sp)
 363 01ea 97000000 		call	crypto_rsa_import_private_key
 363      E7800000 
 364              	.LVL32:
 365 01f2 2A84     		mv	s0,a0
 366              	.LVL33:
 105:C:/Users/stapi/OneDrive/Desktop/GD32VW553/V1_MQTT_OK/GD32VW55X_Wifi_BLE_SDK/GD32VW55x_RELEASE_V1.0.2/MSDK/wpa_supplicant/src/tls\pkcs8.c **** 		crypto_rsa_import_private_key(hdr.payload, hdr.length);
 367              		.loc 1 105 9
 368 01f4 51B5     		j	.L1
 369              	.LVL34:
 370              	.L14:
  99:C:/Users/stapi/OneDrive/Desktop/GD32VW553/V1_MQTT_OK/GD32VW55X_Wifi_BLE_SDK/GD32VW55x_RELEASE_V1.0.2/MSDK/wpa_supplicant/src/tls\pkcs8.c **** 				"PKCS #8: Expected OCTETSTRING (privateKey)");
 371              		.loc 1 99 3 is_stmt 1
 372 01f6 B7050000 		lui	a1,%hi(.LC9)
 373 01fa 93850500 		addi	a1,a1,%lo(.LC9)
 374 01fe 91BD     		j	.L23
 375              		.cfi_endproc
 376              	.LFE86:
 378              		.section	.rodata.pkcs8_enc_key_import.str1.4,"aMS",@progbits,1
 379              		.align	2
 380              	.LC10:
 381 0000 504B4353 		.string	"PKCS #8: Does not start with PKCS #8 header (SEQUENCE); assume encrypted PKCS #8 not used
 381      2023383A 
 381      20446F65 
 381      73206E6F 
 381      74207374 
 382 005a 0000     		.align	2
 383              	.LC11:
 384 005c 504B4353 		.string	"PKCS #8: Expected SEQUENCE (AlgorithmIdentifier); assume encrypted PKCS #8 not used"
 384      2023383A 
 384      20457870 
 384      65637465 
 384      64205345 
 385              		.align	2
 386              	.LC12:
 387 00b0 504B4353 		.string	"PKCS #8: Expected OCTETSTRING (encryptedData)"
 387      2023383A 
 387      20457870 
 387      65637465 
 387      64204F43 
 388              		.section	.text.pkcs8_enc_key_import,"ax",@progbits
 389              		.align	1
 390              		.globl	pkcs8_enc_key_import
 392              	pkcs8_enc_key_import:
 393              	.LFB87:
 108:C:/Users/stapi/OneDrive/Desktop/GD32VW553/V1_MQTT_OK/GD32VW55X_Wifi_BLE_SDK/GD32VW55x_RELEASE_V1.0.2/MSDK/wpa_supplicant/src/tls\pkcs8.c **** 
 109:C:/Users/stapi/OneDrive/Desktop/GD32VW553/V1_MQTT_OK/GD32VW55X_Wifi_BLE_SDK/GD32VW55x_RELEASE_V1.0.2/MSDK/wpa_supplicant/src/tls\pkcs8.c **** 
 110:C:/Users/stapi/OneDrive/Desktop/GD32VW553/V1_MQTT_OK/GD32VW55X_Wifi_BLE_SDK/GD32VW55x_RELEASE_V1.0.2/MSDK/wpa_supplicant/src/tls\pkcs8.c **** struct crypto_private_key *
 111:C:/Users/stapi/OneDrive/Desktop/GD32VW553/V1_MQTT_OK/GD32VW55X_Wifi_BLE_SDK/GD32VW55x_RELEASE_V1.0.2/MSDK/wpa_supplicant/src/tls\pkcs8.c **** pkcs8_enc_key_import(const u8 *buf, size_t len, const char *passwd)
 112:C:/Users/stapi/OneDrive/Desktop/GD32VW553/V1_MQTT_OK/GD32VW55X_Wifi_BLE_SDK/GD32VW55x_RELEASE_V1.0.2/MSDK/wpa_supplicant/src/tls\pkcs8.c **** {
 394              		.loc 1 112 1
 395              		.cfi_startproc
 396              	.LVL35:
 397 0000 17030000 		call	t0,__riscv_save_5
 397      E7020300 
 398              		.cfi_offset 20, -24
 399              		.cfi_offset 19, -20
 400              		.cfi_offset 18, -16
 401              		.cfi_offset 9, -12
 402              		.cfi_offset 8, -8
 403              		.cfi_offset 1, -4
 404              		.cfi_def_cfa_offset 32
 113:C:/Users/stapi/OneDrive/Desktop/GD32VW553/V1_MQTT_OK/GD32VW55X_Wifi_BLE_SDK/GD32VW55x_RELEASE_V1.0.2/MSDK/wpa_supplicant/src/tls\pkcs8.c **** 	struct asn1_hdr hdr;
 405              		.loc 1 113 2
 114:C:/Users/stapi/OneDrive/Desktop/GD32VW553/V1_MQTT_OK/GD32VW55X_Wifi_BLE_SDK/GD32VW55x_RELEASE_V1.0.2/MSDK/wpa_supplicant/src/tls\pkcs8.c **** 	const u8 *pos, *end, *enc_alg;
 406              		.loc 1 114 2
 115:C:/Users/stapi/OneDrive/Desktop/GD32VW553/V1_MQTT_OK/GD32VW55X_Wifi_BLE_SDK/GD32VW55x_RELEASE_V1.0.2/MSDK/wpa_supplicant/src/tls\pkcs8.c **** 	size_t enc_alg_len;
 407              		.loc 1 115 2
 116:C:/Users/stapi/OneDrive/Desktop/GD32VW553/V1_MQTT_OK/GD32VW55X_Wifi_BLE_SDK/GD32VW55x_RELEASE_V1.0.2/MSDK/wpa_supplicant/src/tls\pkcs8.c **** 	u8 *data;
 408              		.loc 1 116 2
 117:C:/Users/stapi/OneDrive/Desktop/GD32VW553/V1_MQTT_OK/GD32VW55X_Wifi_BLE_SDK/GD32VW55x_RELEASE_V1.0.2/MSDK/wpa_supplicant/src/tls\pkcs8.c **** 	size_t data_len;
 409              		.loc 1 117 2
 118:C:/Users/stapi/OneDrive/Desktop/GD32VW553/V1_MQTT_OK/GD32VW55X_Wifi_BLE_SDK/GD32VW55x_RELEASE_V1.0.2/MSDK/wpa_supplicant/src/tls\pkcs8.c **** 
 119:C:/Users/stapi/OneDrive/Desktop/GD32VW553/V1_MQTT_OK/GD32VW55X_Wifi_BLE_SDK/GD32VW55x_RELEASE_V1.0.2/MSDK/wpa_supplicant/src/tls\pkcs8.c **** 	if (passwd == NULL)
 410              		.loc 1 119 2
 112:C:/Users/stapi/OneDrive/Desktop/GD32VW553/V1_MQTT_OK/GD32VW55X_Wifi_BLE_SDK/GD32VW55x_RELEASE_V1.0.2/MSDK/wpa_supplicant/src/tls\pkcs8.c **** 	struct asn1_hdr hdr;
 411              		.loc 1 112 1 is_stmt 0
 412 0008 0111     		addi	sp,sp,-32
 413              		.cfi_def_cfa_offset 64
 414              		.loc 1 119 5
 415 000a 01EA     		bne	a2,zero,.L26
 416              	.LVL36:
 417              	.L39:
 120:C:/Users/stapi/OneDrive/Desktop/GD32VW553/V1_MQTT_OK/GD32VW55X_Wifi_BLE_SDK/GD32VW55x_RELEASE_V1.0.2/MSDK/wpa_supplicant/src/tls\pkcs8.c **** 		return NULL;
 121:C:/Users/stapi/OneDrive/Desktop/GD32VW553/V1_MQTT_OK/GD32VW55X_Wifi_BLE_SDK/GD32VW55x_RELEASE_V1.0.2/MSDK/wpa_supplicant/src/tls\pkcs8.c **** 
 122:C:/Users/stapi/OneDrive/Desktop/GD32VW553/V1_MQTT_OK/GD32VW55X_Wifi_BLE_SDK/GD32VW55x_RELEASE_V1.0.2/MSDK/wpa_supplicant/src/tls\pkcs8.c **** 	/*
 123:C:/Users/stapi/OneDrive/Desktop/GD32VW553/V1_MQTT_OK/GD32VW55X_Wifi_BLE_SDK/GD32VW55x_RELEASE_V1.0.2/MSDK/wpa_supplicant/src/tls\pkcs8.c **** 	 * PKCS #8, Chapter 7
 124:C:/Users/stapi/OneDrive/Desktop/GD32VW553/V1_MQTT_OK/GD32VW55X_Wifi_BLE_SDK/GD32VW55x_RELEASE_V1.0.2/MSDK/wpa_supplicant/src/tls\pkcs8.c **** 	 * EncryptedPrivateKeyInfo ::= SEQUENCE {
 125:C:/Users/stapi/OneDrive/Desktop/GD32VW553/V1_MQTT_OK/GD32VW55X_Wifi_BLE_SDK/GD32VW55x_RELEASE_V1.0.2/MSDK/wpa_supplicant/src/tls\pkcs8.c **** 	 *   encryptionAlgorithm EncryptionAlgorithmIdentifier,
 126:C:/Users/stapi/OneDrive/Desktop/GD32VW553/V1_MQTT_OK/GD32VW55X_Wifi_BLE_SDK/GD32VW55x_RELEASE_V1.0.2/MSDK/wpa_supplicant/src/tls\pkcs8.c **** 	 *   encryptedData EncryptedData }
 127:C:/Users/stapi/OneDrive/Desktop/GD32VW553/V1_MQTT_OK/GD32VW55X_Wifi_BLE_SDK/GD32VW55x_RELEASE_V1.0.2/MSDK/wpa_supplicant/src/tls\pkcs8.c **** 	 * EncryptionAlgorithmIdentifier ::= AlgorithmIdentifier
 128:C:/Users/stapi/OneDrive/Desktop/GD32VW553/V1_MQTT_OK/GD32VW55X_Wifi_BLE_SDK/GD32VW55x_RELEASE_V1.0.2/MSDK/wpa_supplicant/src/tls\pkcs8.c **** 	 * EncryptedData ::= OCTET STRING
 129:C:/Users/stapi/OneDrive/Desktop/GD32VW553/V1_MQTT_OK/GD32VW55X_Wifi_BLE_SDK/GD32VW55x_RELEASE_V1.0.2/MSDK/wpa_supplicant/src/tls\pkcs8.c **** 	 */
 130:C:/Users/stapi/OneDrive/Desktop/GD32VW553/V1_MQTT_OK/GD32VW55X_Wifi_BLE_SDK/GD32VW55x_RELEASE_V1.0.2/MSDK/wpa_supplicant/src/tls\pkcs8.c **** 
 131:C:/Users/stapi/OneDrive/Desktop/GD32VW553/V1_MQTT_OK/GD32VW55X_Wifi_BLE_SDK/GD32VW55x_RELEASE_V1.0.2/MSDK/wpa_supplicant/src/tls\pkcs8.c **** 	if (asn1_get_next(buf, len, &hdr) < 0 || !asn1_is_sequence(&hdr)) {
 132:C:/Users/stapi/OneDrive/Desktop/GD32VW553/V1_MQTT_OK/GD32VW55X_Wifi_BLE_SDK/GD32VW55x_RELEASE_V1.0.2/MSDK/wpa_supplicant/src/tls\pkcs8.c **** 		asn1_unexpected(&hdr,
 133:C:/Users/stapi/OneDrive/Desktop/GD32VW553/V1_MQTT_OK/GD32VW55X_Wifi_BLE_SDK/GD32VW55x_RELEASE_V1.0.2/MSDK/wpa_supplicant/src/tls\pkcs8.c **** 				"PKCS #8: Does not start with PKCS #8 header (SEQUENCE); assume encrypted PKCS #8 not used");
 134:C:/Users/stapi/OneDrive/Desktop/GD32VW553/V1_MQTT_OK/GD32VW55X_Wifi_BLE_SDK/GD32VW55x_RELEASE_V1.0.2/MSDK/wpa_supplicant/src/tls\pkcs8.c **** 		return NULL;
 135:C:/Users/stapi/OneDrive/Desktop/GD32VW553/V1_MQTT_OK/GD32VW55X_Wifi_BLE_SDK/GD32VW55x_RELEASE_V1.0.2/MSDK/wpa_supplicant/src/tls\pkcs8.c **** 	}
 136:C:/Users/stapi/OneDrive/Desktop/GD32VW553/V1_MQTT_OK/GD32VW55X_Wifi_BLE_SDK/GD32VW55x_RELEASE_V1.0.2/MSDK/wpa_supplicant/src/tls\pkcs8.c **** 	pos = hdr.payload;
 137:C:/Users/stapi/OneDrive/Desktop/GD32VW553/V1_MQTT_OK/GD32VW55X_Wifi_BLE_SDK/GD32VW55x_RELEASE_V1.0.2/MSDK/wpa_supplicant/src/tls\pkcs8.c **** 	end = pos + hdr.length;
 138:C:/Users/stapi/OneDrive/Desktop/GD32VW553/V1_MQTT_OK/GD32VW55X_Wifi_BLE_SDK/GD32VW55x_RELEASE_V1.0.2/MSDK/wpa_supplicant/src/tls\pkcs8.c **** 
 139:C:/Users/stapi/OneDrive/Desktop/GD32VW553/V1_MQTT_OK/GD32VW55X_Wifi_BLE_SDK/GD32VW55x_RELEASE_V1.0.2/MSDK/wpa_supplicant/src/tls\pkcs8.c **** 	/* encryptionAlgorithm EncryptionAlgorithmIdentifier */
 140:C:/Users/stapi/OneDrive/Desktop/GD32VW553/V1_MQTT_OK/GD32VW55X_Wifi_BLE_SDK/GD32VW55x_RELEASE_V1.0.2/MSDK/wpa_supplicant/src/tls\pkcs8.c **** 	if (asn1_get_next(pos, end - pos, &hdr) < 0 ||
 141:C:/Users/stapi/OneDrive/Desktop/GD32VW553/V1_MQTT_OK/GD32VW55X_Wifi_BLE_SDK/GD32VW55x_RELEASE_V1.0.2/MSDK/wpa_supplicant/src/tls\pkcs8.c **** 	    !asn1_is_sequence(&hdr)) {
 142:C:/Users/stapi/OneDrive/Desktop/GD32VW553/V1_MQTT_OK/GD32VW55X_Wifi_BLE_SDK/GD32VW55x_RELEASE_V1.0.2/MSDK/wpa_supplicant/src/tls\pkcs8.c **** 		asn1_unexpected(&hdr,
 143:C:/Users/stapi/OneDrive/Desktop/GD32VW553/V1_MQTT_OK/GD32VW55X_Wifi_BLE_SDK/GD32VW55x_RELEASE_V1.0.2/MSDK/wpa_supplicant/src/tls\pkcs8.c **** 				"PKCS #8: Expected SEQUENCE (AlgorithmIdentifier); assume encrypted PKCS #8 not used");
 144:C:/Users/stapi/OneDrive/Desktop/GD32VW553/V1_MQTT_OK/GD32VW55X_Wifi_BLE_SDK/GD32VW55x_RELEASE_V1.0.2/MSDK/wpa_supplicant/src/tls\pkcs8.c **** 		return NULL;
 145:C:/Users/stapi/OneDrive/Desktop/GD32VW553/V1_MQTT_OK/GD32VW55X_Wifi_BLE_SDK/GD32VW55x_RELEASE_V1.0.2/MSDK/wpa_supplicant/src/tls\pkcs8.c **** 	}
 146:C:/Users/stapi/OneDrive/Desktop/GD32VW553/V1_MQTT_OK/GD32VW55X_Wifi_BLE_SDK/GD32VW55x_RELEASE_V1.0.2/MSDK/wpa_supplicant/src/tls\pkcs8.c **** 	enc_alg = hdr.payload;
 147:C:/Users/stapi/OneDrive/Desktop/GD32VW553/V1_MQTT_OK/GD32VW55X_Wifi_BLE_SDK/GD32VW55x_RELEASE_V1.0.2/MSDK/wpa_supplicant/src/tls\pkcs8.c **** 	enc_alg_len = hdr.length;
 148:C:/Users/stapi/OneDrive/Desktop/GD32VW553/V1_MQTT_OK/GD32VW55X_Wifi_BLE_SDK/GD32VW55x_RELEASE_V1.0.2/MSDK/wpa_supplicant/src/tls\pkcs8.c **** 	pos = hdr.payload + hdr.length;
 149:C:/Users/stapi/OneDrive/Desktop/GD32VW553/V1_MQTT_OK/GD32VW55X_Wifi_BLE_SDK/GD32VW55x_RELEASE_V1.0.2/MSDK/wpa_supplicant/src/tls\pkcs8.c **** 
 150:C:/Users/stapi/OneDrive/Desktop/GD32VW553/V1_MQTT_OK/GD32VW55X_Wifi_BLE_SDK/GD32VW55x_RELEASE_V1.0.2/MSDK/wpa_supplicant/src/tls\pkcs8.c **** 	/* encryptedData EncryptedData */
 151:C:/Users/stapi/OneDrive/Desktop/GD32VW553/V1_MQTT_OK/GD32VW55X_Wifi_BLE_SDK/GD32VW55x_RELEASE_V1.0.2/MSDK/wpa_supplicant/src/tls\pkcs8.c **** 	if (asn1_get_next(pos, end - pos, &hdr) < 0 ||
 152:C:/Users/stapi/OneDrive/Desktop/GD32VW553/V1_MQTT_OK/GD32VW55X_Wifi_BLE_SDK/GD32VW55x_RELEASE_V1.0.2/MSDK/wpa_supplicant/src/tls\pkcs8.c **** 	    !asn1_is_octetstring(&hdr)) {
 153:C:/Users/stapi/OneDrive/Desktop/GD32VW553/V1_MQTT_OK/GD32VW55X_Wifi_BLE_SDK/GD32VW55x_RELEASE_V1.0.2/MSDK/wpa_supplicant/src/tls\pkcs8.c **** 		asn1_unexpected(&hdr,
 154:C:/Users/stapi/OneDrive/Desktop/GD32VW553/V1_MQTT_OK/GD32VW55X_Wifi_BLE_SDK/GD32VW55x_RELEASE_V1.0.2/MSDK/wpa_supplicant/src/tls\pkcs8.c **** 				"PKCS #8: Expected OCTETSTRING (encryptedData)");
 155:C:/Users/stapi/OneDrive/Desktop/GD32VW553/V1_MQTT_OK/GD32VW55X_Wifi_BLE_SDK/GD32VW55x_RELEASE_V1.0.2/MSDK/wpa_supplicant/src/tls\pkcs8.c **** 		return NULL;
 418              		.loc 1 155 3 is_stmt 1
 419              		.loc 1 155 10 is_stmt 0
 420 000c 0144     		li	s0,0
 421              	.L25:
 156:C:/Users/stapi/OneDrive/Desktop/GD32VW553/V1_MQTT_OK/GD32VW55X_Wifi_BLE_SDK/GD32VW55x_RELEASE_V1.0.2/MSDK/wpa_supplicant/src/tls\pkcs8.c **** 	}
 157:C:/Users/stapi/OneDrive/Desktop/GD32VW553/V1_MQTT_OK/GD32VW55X_Wifi_BLE_SDK/GD32VW55x_RELEASE_V1.0.2/MSDK/wpa_supplicant/src/tls\pkcs8.c **** 
 158:C:/Users/stapi/OneDrive/Desktop/GD32VW553/V1_MQTT_OK/GD32VW55X_Wifi_BLE_SDK/GD32VW55x_RELEASE_V1.0.2/MSDK/wpa_supplicant/src/tls\pkcs8.c **** 	data = pkcs5_decrypt(enc_alg, enc_alg_len, hdr.payload, hdr.length,
 159:C:/Users/stapi/OneDrive/Desktop/GD32VW553/V1_MQTT_OK/GD32VW55X_Wifi_BLE_SDK/GD32VW55x_RELEASE_V1.0.2/MSDK/wpa_supplicant/src/tls\pkcs8.c **** 			     passwd, &data_len);
 160:C:/Users/stapi/OneDrive/Desktop/GD32VW553/V1_MQTT_OK/GD32VW55X_Wifi_BLE_SDK/GD32VW55x_RELEASE_V1.0.2/MSDK/wpa_supplicant/src/tls\pkcs8.c **** 	if (data) {
 161:C:/Users/stapi/OneDrive/Desktop/GD32VW553/V1_MQTT_OK/GD32VW55X_Wifi_BLE_SDK/GD32VW55x_RELEASE_V1.0.2/MSDK/wpa_supplicant/src/tls\pkcs8.c **** 		struct crypto_private_key *key;
 162:C:/Users/stapi/OneDrive/Desktop/GD32VW553/V1_MQTT_OK/GD32VW55X_Wifi_BLE_SDK/GD32VW55x_RELEASE_V1.0.2/MSDK/wpa_supplicant/src/tls\pkcs8.c **** 		key = pkcs8_key_import(data, data_len);
 163:C:/Users/stapi/OneDrive/Desktop/GD32VW553/V1_MQTT_OK/GD32VW55X_Wifi_BLE_SDK/GD32VW55x_RELEASE_V1.0.2/MSDK/wpa_supplicant/src/tls\pkcs8.c **** 		os_free(data);
 164:C:/Users/stapi/OneDrive/Desktop/GD32VW553/V1_MQTT_OK/GD32VW55X_Wifi_BLE_SDK/GD32VW55x_RELEASE_V1.0.2/MSDK/wpa_supplicant/src/tls\pkcs8.c **** 		return key;
 165:C:/Users/stapi/OneDrive/Desktop/GD32VW553/V1_MQTT_OK/GD32VW55X_Wifi_BLE_SDK/GD32VW55x_RELEASE_V1.0.2/MSDK/wpa_supplicant/src/tls\pkcs8.c **** 	}
 166:C:/Users/stapi/OneDrive/Desktop/GD32VW553/V1_MQTT_OK/GD32VW55X_Wifi_BLE_SDK/GD32VW55x_RELEASE_V1.0.2/MSDK/wpa_supplicant/src/tls\pkcs8.c **** 
 167:C:/Users/stapi/OneDrive/Desktop/GD32VW553/V1_MQTT_OK/GD32VW55X_Wifi_BLE_SDK/GD32VW55x_RELEASE_V1.0.2/MSDK/wpa_supplicant/src/tls\pkcs8.c **** 	return NULL;
 168:C:/Users/stapi/OneDrive/Desktop/GD32VW553/V1_MQTT_OK/GD32VW55X_Wifi_BLE_SDK/GD32VW55x_RELEASE_V1.0.2/MSDK/wpa_supplicant/src/tls\pkcs8.c **** }
 422              		.loc 1 168 1
 423 000e 2285     		mv	a0,s0
 424 0010 0561     		addi	sp,sp,32
 425              		.cfi_remember_state
 426              		.cfi_def_cfa_offset 0
 427 0012 17030000 		tail	__riscv_restore_5
 427      67000300 
 428              		.cfi_restore 20
 429              		.cfi_restore 19
 430              		.cfi_restore 18
 431              		.cfi_restore 9
 432              		.cfi_restore 8
 433              		.cfi_restore 1
 434              		.cfi_def_cfa_offset -32
 435              	.LVL37:
 436              	.L26:
 437              		.cfi_restore_state
 438 001a 3284     		mv	s0,a2
 131:C:/Users/stapi/OneDrive/Desktop/GD32VW553/V1_MQTT_OK/GD32VW55X_Wifi_BLE_SDK/GD32VW55x_RELEASE_V1.0.2/MSDK/wpa_supplicant/src/tls\pkcs8.c **** 		asn1_unexpected(&hdr,
 439              		.loc 1 131 2 is_stmt 1
 131:C:/Users/stapi/OneDrive/Desktop/GD32VW553/V1_MQTT_OK/GD32VW55X_Wifi_BLE_SDK/GD32VW55x_RELEASE_V1.0.2/MSDK/wpa_supplicant/src/tls\pkcs8.c **** 		asn1_unexpected(&hdr,
 440              		.loc 1 131 6 is_stmt 0
 441 001c 1008     		addi	a2,sp,16
 442              	.LVL38:
 443 001e 97000000 		call	asn1_get_next
 443      E7800000 
 444              	.LVL39:
 131:C:/Users/stapi/OneDrive/Desktop/GD32VW553/V1_MQTT_OK/GD32VW55X_Wifi_BLE_SDK/GD32VW55x_RELEASE_V1.0.2/MSDK/wpa_supplicant/src/tls\pkcs8.c **** 		asn1_unexpected(&hdr,
 445              		.loc 1 131 5
 446 0026 63490502 		blt	a0,zero,.L28
 447              	.LVL40:
 448              	.LBB25:
 449              	.LBB26:
 114:C:/Users/stapi/OneDrive/Desktop/GD32VW553/V1_MQTT_OK/GD32VW55X_Wifi_BLE_SDK/GD32VW55x_RELEASE_V1.0.2/MSDK/wpa_supplicant/src/tls\asn1.h **** 		hdr->tag == ASN1_TAG_SEQUENCE;
 450              		.loc 2 114 2 is_stmt 1
 114:C:/Users/stapi/OneDrive/Desktop/GD32VW553/V1_MQTT_OK/GD32VW55X_Wifi_BLE_SDK/GD32VW55x_RELEASE_V1.0.2/MSDK/wpa_supplicant/src/tls\asn1.h **** 		hdr->tag == ASN1_TAG_SEQUENCE;
 451              		.loc 2 114 44 is_stmt 0
 452 002a 83475101 		lbu	a5,21(sp)
 453 002e 8DE7     		bne	a5,zero,.L28
 454 0030 6249     		lw	s2,24(sp)
 455 0032 C147     		li	a5,16
 456 0034 6312F902 		bne	s2,a5,.L28
 457              	.LVL41:
 458              	.LBE26:
 459              	.LBE25:
 136:C:/Users/stapi/OneDrive/Desktop/GD32VW553/V1_MQTT_OK/GD32VW55X_Wifi_BLE_SDK/GD32VW55x_RELEASE_V1.0.2/MSDK/wpa_supplicant/src/tls\pkcs8.c **** 	end = pos + hdr.length;
 460              		.loc 1 136 2 is_stmt 1
 136:C:/Users/stapi/OneDrive/Desktop/GD32VW553/V1_MQTT_OK/GD32VW55X_Wifi_BLE_SDK/GD32VW55x_RELEASE_V1.0.2/MSDK/wpa_supplicant/src/tls\pkcs8.c **** 	end = pos + hdr.length;
 461              		.loc 1 136 6 is_stmt 0
 462 0038 C244     		lw	s1,16(sp)
 463              	.LVL42:
 137:C:/Users/stapi/OneDrive/Desktop/GD32VW553/V1_MQTT_OK/GD32VW55X_Wifi_BLE_SDK/GD32VW55x_RELEASE_V1.0.2/MSDK/wpa_supplicant/src/tls\pkcs8.c **** 
 464              		.loc 1 137 2 is_stmt 1
 137:C:/Users/stapi/OneDrive/Desktop/GD32VW553/V1_MQTT_OK/GD32VW55X_Wifi_BLE_SDK/GD32VW55x_RELEASE_V1.0.2/MSDK/wpa_supplicant/src/tls\pkcs8.c **** 
 465              		.loc 1 137 17 is_stmt 0
 466 003a 724A     		lw	s4,28(sp)
 467              	.LVL43:
 140:C:/Users/stapi/OneDrive/Desktop/GD32VW553/V1_MQTT_OK/GD32VW55X_Wifi_BLE_SDK/GD32VW55x_RELEASE_V1.0.2/MSDK/wpa_supplicant/src/tls\pkcs8.c **** 	    !asn1_is_sequence(&hdr)) {
 468              		.loc 1 140 2 is_stmt 1
 140:C:/Users/stapi/OneDrive/Desktop/GD32VW553/V1_MQTT_OK/GD32VW55X_Wifi_BLE_SDK/GD32VW55x_RELEASE_V1.0.2/MSDK/wpa_supplicant/src/tls\pkcs8.c **** 	    !asn1_is_sequence(&hdr)) {
 469              		.loc 1 140 6 is_stmt 0
 470 003c 1008     		addi	a2,sp,16
 471 003e 2685     		mv	a0,s1
 472 0040 D285     		mv	a1,s4
 473 0042 97000000 		call	asn1_get_next
 473      E7800000 
 474              	.LVL44:
 140:C:/Users/stapi/OneDrive/Desktop/GD32VW553/V1_MQTT_OK/GD32VW55X_Wifi_BLE_SDK/GD32VW55x_RELEASE_V1.0.2/MSDK/wpa_supplicant/src/tls\pkcs8.c **** 	    !asn1_is_sequence(&hdr)) {
 475              		.loc 1 140 5
 476 004a 63510502 		bge	a0,zero,.L35
 477              	.L29:
 142:C:/Users/stapi/OneDrive/Desktop/GD32VW553/V1_MQTT_OK/GD32VW55X_Wifi_BLE_SDK/GD32VW55x_RELEASE_V1.0.2/MSDK/wpa_supplicant/src/tls\pkcs8.c **** 				"PKCS #8: Expected SEQUENCE (AlgorithmIdentifier); assume encrypted PKCS #8 not used");
 478              		.loc 1 142 3 is_stmt 1
 479 004e B7050000 		lui	a1,%hi(.LC11)
 480 0052 93850500 		addi	a1,a1,%lo(.LC11)
 481 0056 29A0     		j	.L38
 482              	.LVL45:
 483              	.L28:
 132:C:/Users/stapi/OneDrive/Desktop/GD32VW553/V1_MQTT_OK/GD32VW55X_Wifi_BLE_SDK/GD32VW55x_RELEASE_V1.0.2/MSDK/wpa_supplicant/src/tls\pkcs8.c **** 				"PKCS #8: Does not start with PKCS #8 header (SEQUENCE); assume encrypted PKCS #8 not used");
 484              		.loc 1 132 3
 485 0058 B7050000 		lui	a1,%hi(.LC10)
 486 005c 93850500 		addi	a1,a1,%lo(.LC10)
 487              	.L38:
 153:C:/Users/stapi/OneDrive/Desktop/GD32VW553/V1_MQTT_OK/GD32VW55X_Wifi_BLE_SDK/GD32VW55x_RELEASE_V1.0.2/MSDK/wpa_supplicant/src/tls\pkcs8.c **** 				"PKCS #8: Expected OCTETSTRING (encryptedData)");
 488              		.loc 1 153 3 is_stmt 0
 489 0060 0808     		addi	a0,sp,16
 490 0062 97000000 		call	asn1_unexpected
 490      E7800000 
 491              	.LVL46:
 492 006a 4DB7     		j	.L39
 493              	.LVL47:
 494              	.L35:
 495              	.LBB27:
 496              	.LBB28:
 114:C:/Users/stapi/OneDrive/Desktop/GD32VW553/V1_MQTT_OK/GD32VW55X_Wifi_BLE_SDK/GD32VW55x_RELEASE_V1.0.2/MSDK/wpa_supplicant/src/tls\asn1.h **** 		hdr->tag == ASN1_TAG_SEQUENCE;
 497              		.loc 2 114 2 is_stmt 1
 114:C:/Users/stapi/OneDrive/Desktop/GD32VW553/V1_MQTT_OK/GD32VW55X_Wifi_BLE_SDK/GD32VW55x_RELEASE_V1.0.2/MSDK/wpa_supplicant/src/tls\asn1.h **** 		hdr->tag == ASN1_TAG_SEQUENCE;
 498              		.loc 2 114 44 is_stmt 0
 499 006c 83475101 		lbu	a5,21(sp)
 500 0070 F9FF     		bne	a5,zero,.L29
 501 0072 E247     		lw	a5,24(sp)
 502 0074 E39D27FD 		bne	a5,s2,.L29
 503              	.LVL48:
 504              	.LBE28:
 505              	.LBE27:
 146:C:/Users/stapi/OneDrive/Desktop/GD32VW553/V1_MQTT_OK/GD32VW55X_Wifi_BLE_SDK/GD32VW55x_RELEASE_V1.0.2/MSDK/wpa_supplicant/src/tls\pkcs8.c **** 	enc_alg_len = hdr.length;
 506              		.loc 1 146 2 is_stmt 1
 146:C:/Users/stapi/OneDrive/Desktop/GD32VW553/V1_MQTT_OK/GD32VW55X_Wifi_BLE_SDK/GD32VW55x_RELEASE_V1.0.2/MSDK/wpa_supplicant/src/tls\pkcs8.c **** 	enc_alg_len = hdr.length;
 507              		.loc 1 146 10 is_stmt 0
 508 0078 4249     		lw	s2,16(sp)
 509              	.LVL49:
 147:C:/Users/stapi/OneDrive/Desktop/GD32VW553/V1_MQTT_OK/GD32VW55X_Wifi_BLE_SDK/GD32VW55x_RELEASE_V1.0.2/MSDK/wpa_supplicant/src/tls\pkcs8.c **** 	pos = hdr.payload + hdr.length;
 510              		.loc 1 147 2 is_stmt 1
 147:C:/Users/stapi/OneDrive/Desktop/GD32VW553/V1_MQTT_OK/GD32VW55X_Wifi_BLE_SDK/GD32VW55x_RELEASE_V1.0.2/MSDK/wpa_supplicant/src/tls\pkcs8.c **** 	pos = hdr.payload + hdr.length;
 511              		.loc 1 147 14 is_stmt 0
 512 007a F249     		lw	s3,28(sp)
 513              	.LVL50:
 148:C:/Users/stapi/OneDrive/Desktop/GD32VW553/V1_MQTT_OK/GD32VW55X_Wifi_BLE_SDK/GD32VW55x_RELEASE_V1.0.2/MSDK/wpa_supplicant/src/tls\pkcs8.c **** 
 514              		.loc 1 148 2 is_stmt 1
 137:C:/Users/stapi/OneDrive/Desktop/GD32VW553/V1_MQTT_OK/GD32VW55X_Wifi_BLE_SDK/GD32VW55x_RELEASE_V1.0.2/MSDK/wpa_supplicant/src/tls\pkcs8.c **** 
 515              		.loc 1 137 6 is_stmt 0
 516 007c B3854401 		add	a1,s1,s4
 151:C:/Users/stapi/OneDrive/Desktop/GD32VW553/V1_MQTT_OK/GD32VW55X_Wifi_BLE_SDK/GD32VW55x_RELEASE_V1.0.2/MSDK/wpa_supplicant/src/tls\pkcs8.c **** 	    !asn1_is_octetstring(&hdr)) {
 517              		.loc 1 151 6
 518 0080 1008     		addi	a2,sp,16
 148:C:/Users/stapi/OneDrive/Desktop/GD32VW553/V1_MQTT_OK/GD32VW55X_Wifi_BLE_SDK/GD32VW55x_RELEASE_V1.0.2/MSDK/wpa_supplicant/src/tls\pkcs8.c **** 
 519              		.loc 1 148 6
 520 0082 33053901 		add	a0,s2,s3
 521              	.LVL51:
 151:C:/Users/stapi/OneDrive/Desktop/GD32VW553/V1_MQTT_OK/GD32VW55X_Wifi_BLE_SDK/GD32VW55x_RELEASE_V1.0.2/MSDK/wpa_supplicant/src/tls\pkcs8.c **** 	    !asn1_is_octetstring(&hdr)) {
 522              		.loc 1 151 2 is_stmt 1
 151:C:/Users/stapi/OneDrive/Desktop/GD32VW553/V1_MQTT_OK/GD32VW55X_Wifi_BLE_SDK/GD32VW55x_RELEASE_V1.0.2/MSDK/wpa_supplicant/src/tls\pkcs8.c **** 	    !asn1_is_octetstring(&hdr)) {
 523              		.loc 1 151 6 is_stmt 0
 524 0086 898D     		sub	a1,a1,a0
 525 0088 97000000 		call	asn1_get_next
 525      E7800000 
 526              	.LVL52:
 151:C:/Users/stapi/OneDrive/Desktop/GD32VW553/V1_MQTT_OK/GD32VW55X_Wifi_BLE_SDK/GD32VW55x_RELEASE_V1.0.2/MSDK/wpa_supplicant/src/tls\pkcs8.c **** 	    !asn1_is_octetstring(&hdr)) {
 527              		.loc 1 151 5
 528 0090 63570500 		bge	a0,zero,.L36
 529              	.L31:
 153:C:/Users/stapi/OneDrive/Desktop/GD32VW553/V1_MQTT_OK/GD32VW55X_Wifi_BLE_SDK/GD32VW55x_RELEASE_V1.0.2/MSDK/wpa_supplicant/src/tls\pkcs8.c **** 				"PKCS #8: Expected OCTETSTRING (encryptedData)");
 530              		.loc 1 153 3 is_stmt 1
 531 0094 B7050000 		lui	a1,%hi(.LC12)
 532 0098 93850500 		addi	a1,a1,%lo(.LC12)
 533 009c D1B7     		j	.L38
 534              	.L36:
 535              	.LVL53:
 536              	.LBB29:
 537              	.LBB30:
 538              		.loc 2 126 2
 539              		.loc 2 126 44 is_stmt 0
 540 009e 83475101 		lbu	a5,21(sp)
 541 00a2 EDFB     		bne	a5,zero,.L31
 542 00a4 6247     		lw	a4,24(sp)
 543 00a6 9147     		li	a5,4
 544 00a8 E316F7FE 		bne	a4,a5,.L31
 545              	.LVL54:
 546              	.LBE30:
 547              	.LBE29:
 158:C:/Users/stapi/OneDrive/Desktop/GD32VW553/V1_MQTT_OK/GD32VW55X_Wifi_BLE_SDK/GD32VW55x_RELEASE_V1.0.2/MSDK/wpa_supplicant/src/tls\pkcs8.c **** 			     passwd, &data_len);
 548              		.loc 1 158 2 is_stmt 1
 158:C:/Users/stapi/OneDrive/Desktop/GD32VW553/V1_MQTT_OK/GD32VW55X_Wifi_BLE_SDK/GD32VW55x_RELEASE_V1.0.2/MSDK/wpa_supplicant/src/tls\pkcs8.c **** 			     passwd, &data_len);
 549              		.loc 1 158 9 is_stmt 0
 550 00ac F246     		lw	a3,28(sp)
 551 00ae 4246     		lw	a2,16(sp)
 552 00b0 7C00     		addi	a5,sp,12
 553 00b2 2287     		mv	a4,s0
 554 00b4 CE85     		mv	a1,s3
 555 00b6 4A85     		mv	a0,s2
 556 00b8 97000000 		call	pkcs5_decrypt
 556      E7800000 
 557              	.LVL55:
 558 00c0 AA84     		mv	s1,a0
 559              	.LVL56:
 160:C:/Users/stapi/OneDrive/Desktop/GD32VW553/V1_MQTT_OK/GD32VW55X_Wifi_BLE_SDK/GD32VW55x_RELEASE_V1.0.2/MSDK/wpa_supplicant/src/tls\pkcs8.c **** 		struct crypto_private_key *key;
 560              		.loc 1 160 2 is_stmt 1
 160:C:/Users/stapi/OneDrive/Desktop/GD32VW553/V1_MQTT_OK/GD32VW55X_Wifi_BLE_SDK/GD32VW55x_RELEASE_V1.0.2/MSDK/wpa_supplicant/src/tls\pkcs8.c **** 		struct crypto_private_key *key;
 561              		.loc 1 160 5 is_stmt 0
 562 00c2 29D5     		beq	a0,zero,.L39
 563              	.LBB31:
 161:C:/Users/stapi/OneDrive/Desktop/GD32VW553/V1_MQTT_OK/GD32VW55X_Wifi_BLE_SDK/GD32VW55x_RELEASE_V1.0.2/MSDK/wpa_supplicant/src/tls\pkcs8.c **** 		key = pkcs8_key_import(data, data_len);
 564              		.loc 1 161 3 is_stmt 1
 162:C:/Users/stapi/OneDrive/Desktop/GD32VW553/V1_MQTT_OK/GD32VW55X_Wifi_BLE_SDK/GD32VW55x_RELEASE_V1.0.2/MSDK/wpa_supplicant/src/tls\pkcs8.c **** 		os_free(data);
 565              		.loc 1 162 3
 162:C:/Users/stapi/OneDrive/Desktop/GD32VW553/V1_MQTT_OK/GD32VW55X_Wifi_BLE_SDK/GD32VW55x_RELEASE_V1.0.2/MSDK/wpa_supplicant/src/tls\pkcs8.c **** 		os_free(data);
 566              		.loc 1 162 9 is_stmt 0
 567 00c4 B245     		lw	a1,12(sp)
 568 00c6 97000000 		call	pkcs8_key_import
 568      E7800000 
 569              	.LVL57:
 570 00ce 2A84     		mv	s0,a0
 571              	.LVL58:
 163:C:/Users/stapi/OneDrive/Desktop/GD32VW553/V1_MQTT_OK/GD32VW55X_Wifi_BLE_SDK/GD32VW55x_RELEASE_V1.0.2/MSDK/wpa_supplicant/src/tls\pkcs8.c **** 		return key;
 572              		.loc 1 163 3 is_stmt 1
 573 00d0 2685     		mv	a0,s1
 574 00d2 97000000 		call	os_free
 574      E7800000 
 575              	.LVL59:
 164:C:/Users/stapi/OneDrive/Desktop/GD32VW553/V1_MQTT_OK/GD32VW55X_Wifi_BLE_SDK/GD32VW55x_RELEASE_V1.0.2/MSDK/wpa_supplicant/src/tls\pkcs8.c **** 	}
 576              		.loc 1 164 3
 164:C:/Users/stapi/OneDrive/Desktop/GD32VW553/V1_MQTT_OK/GD32VW55X_Wifi_BLE_SDK/GD32VW55x_RELEASE_V1.0.2/MSDK/wpa_supplicant/src/tls\pkcs8.c **** 	}
 577              		.loc 1 164 10 is_stmt 0
 578 00da 15BF     		j	.L25
 579              	.LBE31:
 580              		.cfi_endproc
 581              	.LFE87:
 583              		.text
 584              	.Letext0:
 585              		.file 3 "c:\\users\\stapi\\onedrive\\desktop\\gd32vw553\\embeddedbuilder_v1.4.7.26843\\tools\\nucl
 586              		.file 4 "c:\\users\\stapi\\onedrive\\desktop\\gd32vw553\\embeddedbuilder_v1.4.7.26843\\tools\\nucl
 587              		.file 5 "c:\\users\\stapi\\onedrive\\desktop\\gd32vw553\\embeddedbuilder_v1.4.7.26843\\tools\\nucl
 588              		.file 6 "..\\..\\..\\..\\wpa_supplicant\\src\\utils/os.h"
 589              		.file 7 "C:/Users/stapi/OneDrive/Desktop/GD32VW553/V1_MQTT_OK/GD32VW55X_Wifi_BLE_SDK/GD32VW55x_REL
 590              		.file 8 "C:/Users/stapi/OneDrive/Desktop/GD32VW553/V1_MQTT_OK/GD32VW55X_Wifi_BLE_SDK/GD32VW55x_REL
 591              		.file 9 "..\\..\\..\\..\\wpa_supplicant\\src\\utils/wpa_debug.h"
 592              		.file 10 "C:/Users/stapi/OneDrive/Desktop/GD32VW553/V1_MQTT_OK/GD32VW55X_Wifi_BLE_SDK/GD32VW55x_RE
 593              		.file 11 "..\\..\\..\\..\\wpa_supplicant\\src\\utils/common.h"
DEFINED SYMBOLS
                            *ABS*:0000000000000000 pkcs8.c
C:\Users\stapi\AppData\Local\Temp\cckPc6sh.s:44     .text.pkcs8_key_import:0000000000000000 pkcs8_key_import
C:\Users\stapi\AppData\Local\Temp\cckPc6sh.s:48     .text.pkcs8_key_import:0000000000000000 .L0 
C:\Users\stapi\AppData\Local\Temp\cckPc6sh.s:50     .text.pkcs8_key_import:0000000000000000 .L0 
C:\Users\stapi\AppData\Local\Temp\cckPc6sh.s:51     .text.pkcs8_key_import:0000000000000008 .L0 
C:\Users\stapi\AppData\Local\Temp\cckPc6sh.s:52     .text.pkcs8_key_import:0000000000000008 .L0 
C:\Users\stapi\AppData\Local\Temp\cckPc6sh.s:53     .text.pkcs8_key_import:0000000000000008 .L0 
C:\Users\stapi\AppData\Local\Temp\cckPc6sh.s:54     .text.pkcs8_key_import:0000000000000008 .L0 
C:\Users\stapi\AppData\Local\Temp\cckPc6sh.s:55     .text.pkcs8_key_import:0000000000000008 .L0 
C:\Users\stapi\AppData\Local\Temp\cckPc6sh.s:56     .text.pkcs8_key_import:0000000000000008 .L0 
C:\Users\stapi\AppData\Local\Temp\cckPc6sh.s:58     .text.pkcs8_key_import:0000000000000008 .L0 
C:\Users\stapi\AppData\Local\Temp\cckPc6sh.s:59     .text.pkcs8_key_import:0000000000000008 .L0 
C:\Users\stapi\AppData\Local\Temp\cckPc6sh.s:60     .text.pkcs8_key_import:0000000000000008 .L0 
C:\Users\stapi\AppData\Local\Temp\cckPc6sh.s:61     .text.pkcs8_key_import:0000000000000008 .L0 
C:\Users\stapi\AppData\Local\Temp\cckPc6sh.s:62     .text.pkcs8_key_import:0000000000000008 .L0 
C:\Users\stapi\AppData\Local\Temp\cckPc6sh.s:63     .text.pkcs8_key_import:0000000000000008 .L0 
C:\Users\stapi\AppData\Local\Temp\cckPc6sh.s:64     .text.pkcs8_key_import:0000000000000008 .L0 
C:\Users\stapi\AppData\Local\Temp\cckPc6sh.s:65     .text.pkcs8_key_import:000000000000000a .L0 
C:\Users\stapi\AppData\Local\Temp\cckPc6sh.s:67     .text.pkcs8_key_import:000000000000000a .L0 
C:\Users\stapi\AppData\Local\Temp\cckPc6sh.s:69     .text.pkcs8_key_import:000000000000000c .L0 
C:\Users\stapi\AppData\Local\Temp\cckPc6sh.s:71     .text.pkcs8_key_import:000000000000000e .L0 
C:\Users\stapi\AppData\Local\Temp\cckPc6sh.s:74     .text.pkcs8_key_import:0000000000000016 .L0 
C:\Users\stapi\AppData\Local\Temp\cckPc6sh.s:80     .text.pkcs8_key_import:000000000000001a .L0 
C:\Users\stapi\AppData\Local\Temp\cckPc6sh.s:81     .text.pkcs8_key_import:000000000000001a .L0 
C:\Users\stapi\AppData\Local\Temp\cckPc6sh.s:90     .text.pkcs8_key_import:0000000000000028 .L0 
C:\Users\stapi\AppData\Local\Temp\cckPc6sh.s:91     .text.pkcs8_key_import:0000000000000028 .L0 
C:\Users\stapi\AppData\Local\Temp\cckPc6sh.s:93     .text.pkcs8_key_import:000000000000002a .L0 
C:\Users\stapi\AppData\Local\Temp\cckPc6sh.s:95     .text.pkcs8_key_import:000000000000002c .L0 
C:\Users\stapi\AppData\Local\Temp\cckPc6sh.s:99     .text.pkcs8_key_import:0000000000000032 .L0 
C:\Users\stapi\AppData\Local\Temp\cckPc6sh.s:102    .text.pkcs8_key_import:0000000000000034 .L0 
C:\Users\stapi\AppData\Local\Temp\cckPc6sh.s:103    .text.pkcs8_key_import:0000000000000034 .L0 
C:\Users\stapi\AppData\Local\Temp\cckPc6sh.s:104    .text.pkcs8_key_import:0000000000000034 .L0 
C:\Users\stapi\AppData\Local\Temp\cckPc6sh.s:107    .text.pkcs8_key_import:000000000000003c .L0 
C:\Users\stapi\AppData\Local\Temp\cckPc6sh.s:110    .text.pkcs8_key_import:0000000000000040 .L0 
C:\Users\stapi\AppData\Local\Temp\cckPc6sh.s:116    .text.pkcs8_key_import:000000000000004a .L0 
C:\Users\stapi\AppData\Local\Temp\cckPc6sh.s:120    .text.pkcs8_key_import:0000000000000052 .L0 
C:\Users\stapi\AppData\Local\Temp\cckPc6sh.s:129    .text.pkcs8_key_import:000000000000005e .L0 
C:\Users\stapi\AppData\Local\Temp\cckPc6sh.s:130    .text.pkcs8_key_import:000000000000005e .L0 
C:\Users\stapi\AppData\Local\Temp\cckPc6sh.s:139    .text.pkcs8_key_import:000000000000006c .L0 
C:\Users\stapi\AppData\Local\Temp\cckPc6sh.s:140    .text.pkcs8_key_import:000000000000006c .L0 
C:\Users\stapi\AppData\Local\Temp\cckPc6sh.s:145    .text.pkcs8_key_import:0000000000000076 .L0 
C:\Users\stapi\AppData\Local\Temp\cckPc6sh.s:146    .text.pkcs8_key_import:0000000000000076 .L0 
C:\Users\stapi\AppData\Local\Temp\cckPc6sh.s:150    .text.pkcs8_key_import:0000000000000078 .L0 
C:\Users\stapi\AppData\Local\Temp\cckPc6sh.s:152    .text.pkcs8_key_import:000000000000007c .L0 
C:\Users\stapi\AppData\Local\Temp\cckPc6sh.s:153    .text.pkcs8_key_import:000000000000007c .L0 
C:\Users\stapi\AppData\Local\Temp\cckPc6sh.s:155    .text.pkcs8_key_import:0000000000000084 .L0 
C:\Users\stapi\AppData\Local\Temp\cckPc6sh.s:156    .text.pkcs8_key_import:0000000000000084 .L0 
C:\Users\stapi\AppData\Local\Temp\cckPc6sh.s:157    .text.pkcs8_key_import:0000000000000084 .L0 
C:\Users\stapi\AppData\Local\Temp\cckPc6sh.s:158    .text.pkcs8_key_import:0000000000000084 .L0 
C:\Users\stapi\AppData\Local\Temp\cckPc6sh.s:159    .text.pkcs8_key_import:0000000000000084 .L0 
C:\Users\stapi\AppData\Local\Temp\cckPc6sh.s:160    .text.pkcs8_key_import:0000000000000084 .L0 
C:\Users\stapi\AppData\Local\Temp\cckPc6sh.s:163    .text.pkcs8_key_import:0000000000000084 .L0 
C:\Users\stapi\AppData\Local\Temp\cckPc6sh.s:165    .text.pkcs8_key_import:0000000000000084 .L0 
C:\Users\stapi\AppData\Local\Temp\cckPc6sh.s:166    .text.pkcs8_key_import:0000000000000084 .L0 
C:\Users\stapi\AppData\Local\Temp\cckPc6sh.s:171    .text.pkcs8_key_import:0000000000000090 .L0 
C:\Users\stapi\AppData\Local\Temp\cckPc6sh.s:173    .text.pkcs8_key_import:0000000000000094 .L0 
C:\Users\stapi\AppData\Local\Temp\cckPc6sh.s:177    .text.pkcs8_key_import:000000000000009c .L0 
C:\Users\stapi\AppData\Local\Temp\cckPc6sh.s:181    .text.pkcs8_key_import:00000000000000a6 .L0 
C:\Users\stapi\AppData\Local\Temp\cckPc6sh.s:186    .text.pkcs8_key_import:00000000000000b0 .L0 
C:\Users\stapi\AppData\Local\Temp\cckPc6sh.s:187    .text.pkcs8_key_import:00000000000000b0 .L0 
C:\Users\stapi\AppData\Local\Temp\cckPc6sh.s:188    .text.pkcs8_key_import:00000000000000b0 .L0 
C:\Users\stapi\AppData\Local\Temp\cckPc6sh.s:193    .text.pkcs8_key_import:00000000000000b4 .L0 
C:\Users\stapi\AppData\Local\Temp\cckPc6sh.s:194    .text.pkcs8_key_import:00000000000000b4 .L0 
C:\Users\stapi\AppData\Local\Temp\cckPc6sh.s:197    .text.pkcs8_key_import:00000000000000b8 .L0 
C:\Users\stapi\AppData\Local\Temp\cckPc6sh.s:200    .text.pkcs8_key_import:00000000000000bc .L0 
C:\Users\stapi\AppData\Local\Temp\cckPc6sh.s:202    .text.pkcs8_key_import:00000000000000be .L0 
C:\Users\stapi\AppData\Local\Temp\cckPc6sh.s:204    .text.pkcs8_key_import:00000000000000c0 .L0 
C:\Users\stapi\AppData\Local\Temp\cckPc6sh.s:205    .text.pkcs8_key_import:00000000000000c0 .L0 
C:\Users\stapi\AppData\Local\Temp\cckPc6sh.s:208    .text.pkcs8_key_import:00000000000000c8 .L0 
C:\Users\stapi\AppData\Local\Temp\cckPc6sh.s:210    .text.pkcs8_key_import:00000000000000ca .L0 
C:\Users\stapi\AppData\Local\Temp\cckPc6sh.s:215    .text.pkcs8_key_import:00000000000000d4 .L0 
C:\Users\stapi\AppData\Local\Temp\cckPc6sh.s:219    .text.pkcs8_key_import:00000000000000de .L0 
C:\Users\stapi\AppData\Local\Temp\cckPc6sh.s:220    .text.pkcs8_key_import:00000000000000de .L0 
C:\Users\stapi\AppData\Local\Temp\cckPc6sh.s:226    .text.pkcs8_key_import:00000000000000ec .L0 
C:\Users\stapi\AppData\Local\Temp\cckPc6sh.s:231    .text.pkcs8_key_import:00000000000000f0 .L0 
C:\Users\stapi\AppData\Local\Temp\cckPc6sh.s:232    .text.pkcs8_key_import:00000000000000f0 .L0 
C:\Users\stapi\AppData\Local\Temp\cckPc6sh.s:241    .text.pkcs8_key_import:00000000000000fe .L0 
C:\Users\stapi\AppData\Local\Temp\cckPc6sh.s:242    .text.pkcs8_key_import:00000000000000fe .L0 
C:\Users\stapi\AppData\Local\Temp\cckPc6sh.s:249    .text.pkcs8_key_import:000000000000010e .L0 
C:\Users\stapi\AppData\Local\Temp\cckPc6sh.s:251    .text.pkcs8_key_import:0000000000000110 .L0 
C:\Users\stapi\AppData\Local\Temp\cckPc6sh.s:257    .text.pkcs8_key_import:0000000000000122 .L0 
C:\Users\stapi\AppData\Local\Temp\cckPc6sh.s:260    .text.pkcs8_key_import:0000000000000124 .L0 
C:\Users\stapi\AppData\Local\Temp\cckPc6sh.s:265    .text.pkcs8_key_import:000000000000012e .L0 
C:\Users\stapi\AppData\Local\Temp\cckPc6sh.s:271    .text.pkcs8_key_import:000000000000013e .L0 
C:\Users\stapi\AppData\Local\Temp\cckPc6sh.s:278    .text.pkcs8_key_import:0000000000000152 .L0 
C:\Users\stapi\AppData\Local\Temp\cckPc6sh.s:279    .text.pkcs8_key_import:0000000000000152 .L0 
C:\Users\stapi\AppData\Local\Temp\cckPc6sh.s:283    .text.pkcs8_key_import:000000000000015a .L0 
C:\Users\stapi\AppData\Local\Temp\cckPc6sh.s:287    .text.pkcs8_key_import:0000000000000162 .L0 
C:\Users\stapi\AppData\Local\Temp\cckPc6sh.s:291    .text.pkcs8_key_import:000000000000016a .L0 
C:\Users\stapi\AppData\Local\Temp\cckPc6sh.s:295    .text.pkcs8_key_import:0000000000000174 .L0 
C:\Users\stapi\AppData\Local\Temp\cckPc6sh.s:300    .text.pkcs8_key_import:0000000000000180 .L0 
C:\Users\stapi\AppData\Local\Temp\cckPc6sh.s:303    .text.pkcs8_key_import:0000000000000186 .L0 
C:\Users\stapi\AppData\Local\Temp\cckPc6sh.s:306    .text.pkcs8_key_import:000000000000018c .L0 
C:\Users\stapi\AppData\Local\Temp\cckPc6sh.s:311    .text.pkcs8_key_import:0000000000000194 .L0 
C:\Users\stapi\AppData\Local\Temp\cckPc6sh.s:318    .text.pkcs8_key_import:00000000000001a8 .L0 
C:\Users\stapi\AppData\Local\Temp\cckPc6sh.s:321    .text.pkcs8_key_import:00000000000001aa .L0 
C:\Users\stapi\AppData\Local\Temp\cckPc6sh.s:322    .text.pkcs8_key_import:00000000000001aa .L0 
C:\Users\stapi\AppData\Local\Temp\cckPc6sh.s:325    .text.pkcs8_key_import:00000000000001ae .L0 
C:\Users\stapi\AppData\Local\Temp\cckPc6sh.s:327    .text.pkcs8_key_import:00000000000001b2 .L0 
C:\Users\stapi\AppData\Local\Temp\cckPc6sh.s:329    .text.pkcs8_key_import:00000000000001b4 .L0 
C:\Users\stapi\AppData\Local\Temp\cckPc6sh.s:331    .text.pkcs8_key_import:00000000000001b6 .L0 
C:\Users\stapi\AppData\Local\Temp\cckPc6sh.s:333    .text.pkcs8_key_import:00000000000001b8 .L0 
C:\Users\stapi\AppData\Local\Temp\cckPc6sh.s:335    .text.pkcs8_key_import:00000000000001ba .L0 
C:\Users\stapi\AppData\Local\Temp\cckPc6sh.s:336    .text.pkcs8_key_import:00000000000001ba .L0 
C:\Users\stapi\AppData\Local\Temp\cckPc6sh.s:339    .text.pkcs8_key_import:00000000000001c2 .L0 
C:\Users\stapi\AppData\Local\Temp\cckPc6sh.s:344    .text.pkcs8_key_import:00000000000001c6 .L0 
C:\Users\stapi\AppData\Local\Temp\cckPc6sh.s:345    .text.pkcs8_key_import:00000000000001c6 .L0 
C:\Users\stapi\AppData\Local\Temp\cckPc6sh.s:354    .text.pkcs8_key_import:00000000000001d4 .L0 
C:\Users\stapi\AppData\Local\Temp\cckPc6sh.s:360    .text.pkcs8_key_import:00000000000001e6 .L0 
C:\Users\stapi\AppData\Local\Temp\cckPc6sh.s:361    .text.pkcs8_key_import:00000000000001e6 .L0 
C:\Users\stapi\AppData\Local\Temp\cckPc6sh.s:368    .text.pkcs8_key_import:00000000000001f4 .L0 
C:\Users\stapi\AppData\Local\Temp\cckPc6sh.s:372    .text.pkcs8_key_import:00000000000001f6 .L0 
C:\Users\stapi\AppData\Local\Temp\cckPc6sh.s:375    .text.pkcs8_key_import:0000000000000200 .L0 
C:\Users\stapi\AppData\Local\Temp\cckPc6sh.s:392    .text.pkcs8_enc_key_import:0000000000000000 pkcs8_enc_key_import
C:\Users\stapi\AppData\Local\Temp\cckPc6sh.s:395    .text.pkcs8_enc_key_import:0000000000000000 .L0 
C:\Users\stapi\AppData\Local\Temp\cckPc6sh.s:397    .text.pkcs8_enc_key_import:0000000000000000 .L0 
C:\Users\stapi\AppData\Local\Temp\cckPc6sh.s:398    .text.pkcs8_enc_key_import:0000000000000008 .L0 
C:\Users\stapi\AppData\Local\Temp\cckPc6sh.s:399    .text.pkcs8_enc_key_import:0000000000000008 .L0 
C:\Users\stapi\AppData\Local\Temp\cckPc6sh.s:400    .text.pkcs8_enc_key_import:0000000000000008 .L0 
C:\Users\stapi\AppData\Local\Temp\cckPc6sh.s:401    .text.pkcs8_enc_key_import:0000000000000008 .L0 
C:\Users\stapi\AppData\Local\Temp\cckPc6sh.s:402    .text.pkcs8_enc_key_import:0000000000000008 .L0 
C:\Users\stapi\AppData\Local\Temp\cckPc6sh.s:403    .text.pkcs8_enc_key_import:0000000000000008 .L0 
C:\Users\stapi\AppData\Local\Temp\cckPc6sh.s:404    .text.pkcs8_enc_key_import:0000000000000008 .L0 
C:\Users\stapi\AppData\Local\Temp\cckPc6sh.s:406    .text.pkcs8_enc_key_import:0000000000000008 .L0 
C:\Users\stapi\AppData\Local\Temp\cckPc6sh.s:407    .text.pkcs8_enc_key_import:0000000000000008 .L0 
C:\Users\stapi\AppData\Local\Temp\cckPc6sh.s:408    .text.pkcs8_enc_key_import:0000000000000008 .L0 
C:\Users\stapi\AppData\Local\Temp\cckPc6sh.s:409    .text.pkcs8_enc_key_import:0000000000000008 .L0 
C:\Users\stapi\AppData\Local\Temp\cckPc6sh.s:410    .text.pkcs8_enc_key_import:0000000000000008 .L0 
C:\Users\stapi\AppData\Local\Temp\cckPc6sh.s:411    .text.pkcs8_enc_key_import:0000000000000008 .L0 
C:\Users\stapi\AppData\Local\Temp\cckPc6sh.s:412    .text.pkcs8_enc_key_import:0000000000000008 .L0 
C:\Users\stapi\AppData\Local\Temp\cckPc6sh.s:413    .text.pkcs8_enc_key_import:000000000000000a .L0 
C:\Users\stapi\AppData\Local\Temp\cckPc6sh.s:415    .text.pkcs8_enc_key_import:000000000000000a .L0 
C:\Users\stapi\AppData\Local\Temp\cckPc6sh.s:419    .text.pkcs8_enc_key_import:000000000000000c .L0 
C:\Users\stapi\AppData\Local\Temp\cckPc6sh.s:420    .text.pkcs8_enc_key_import:000000000000000c .L0 
C:\Users\stapi\AppData\Local\Temp\cckPc6sh.s:423    .text.pkcs8_enc_key_import:000000000000000e .L0 
C:\Users\stapi\AppData\Local\Temp\cckPc6sh.s:425    .text.pkcs8_enc_key_import:0000000000000012 .L0 
C:\Users\stapi\AppData\Local\Temp\cckPc6sh.s:426    .text.pkcs8_enc_key_import:0000000000000012 .L0 
C:\Users\stapi\AppData\Local\Temp\cckPc6sh.s:428    .text.pkcs8_enc_key_import:000000000000001a .L0 
C:\Users\stapi\AppData\Local\Temp\cckPc6sh.s:429    .text.pkcs8_enc_key_import:000000000000001a .L0 
C:\Users\stapi\AppData\Local\Temp\cckPc6sh.s:430    .text.pkcs8_enc_key_import:000000000000001a .L0 
C:\Users\stapi\AppData\Local\Temp\cckPc6sh.s:431    .text.pkcs8_enc_key_import:000000000000001a .L0 
C:\Users\stapi\AppData\Local\Temp\cckPc6sh.s:432    .text.pkcs8_enc_key_import:000000000000001a .L0 
C:\Users\stapi\AppData\Local\Temp\cckPc6sh.s:433    .text.pkcs8_enc_key_import:000000000000001a .L0 
C:\Users\stapi\AppData\Local\Temp\cckPc6sh.s:434    .text.pkcs8_enc_key_import:000000000000001a .L0 
C:\Users\stapi\AppData\Local\Temp\cckPc6sh.s:437    .text.pkcs8_enc_key_import:000000000000001a .L0 
C:\Users\stapi\AppData\Local\Temp\cckPc6sh.s:440    .text.pkcs8_enc_key_import:000000000000001c .L0 
C:\Users\stapi\AppData\Local\Temp\cckPc6sh.s:441    .text.pkcs8_enc_key_import:000000000000001c .L0 
C:\Users\stapi\AppData\Local\Temp\cckPc6sh.s:446    .text.pkcs8_enc_key_import:0000000000000026 .L0 
C:\Users\stapi\AppData\Local\Temp\cckPc6sh.s:451    .text.pkcs8_enc_key_import:000000000000002a .L0 
C:\Users\stapi\AppData\Local\Temp\cckPc6sh.s:452    .text.pkcs8_enc_key_import:000000000000002a .L0 
C:\Users\stapi\AppData\Local\Temp\cckPc6sh.s:461    .text.pkcs8_enc_key_import:0000000000000038 .L0 
C:\Users\stapi\AppData\Local\Temp\cckPc6sh.s:462    .text.pkcs8_enc_key_import:0000000000000038 .L0 
C:\Users\stapi\AppData\Local\Temp\cckPc6sh.s:465    .text.pkcs8_enc_key_import:000000000000003a .L0 
C:\Users\stapi\AppData\Local\Temp\cckPc6sh.s:466    .text.pkcs8_enc_key_import:000000000000003a .L0 
C:\Users\stapi\AppData\Local\Temp\cckPc6sh.s:469    .text.pkcs8_enc_key_import:000000000000003c .L0 
C:\Users\stapi\AppData\Local\Temp\cckPc6sh.s:470    .text.pkcs8_enc_key_import:000000000000003c .L0 
C:\Users\stapi\AppData\Local\Temp\cckPc6sh.s:476    .text.pkcs8_enc_key_import:000000000000004a .L0 
C:\Users\stapi\AppData\Local\Temp\cckPc6sh.s:479    .text.pkcs8_enc_key_import:000000000000004e .L0 
C:\Users\stapi\AppData\Local\Temp\cckPc6sh.s:485    .text.pkcs8_enc_key_import:0000000000000058 .L0 
C:\Users\stapi\AppData\Local\Temp\cckPc6sh.s:489    .text.pkcs8_enc_key_import:0000000000000060 .L0 
C:\Users\stapi\AppData\Local\Temp\cckPc6sh.s:498    .text.pkcs8_enc_key_import:000000000000006c .L0 
C:\Users\stapi\AppData\Local\Temp\cckPc6sh.s:499    .text.pkcs8_enc_key_import:000000000000006c .L0 
C:\Users\stapi\AppData\Local\Temp\cckPc6sh.s:507    .text.pkcs8_enc_key_import:0000000000000078 .L0 
C:\Users\stapi\AppData\Local\Temp\cckPc6sh.s:508    .text.pkcs8_enc_key_import:0000000000000078 .L0 
C:\Users\stapi\AppData\Local\Temp\cckPc6sh.s:511    .text.pkcs8_enc_key_import:000000000000007a .L0 
C:\Users\stapi\AppData\Local\Temp\cckPc6sh.s:512    .text.pkcs8_enc_key_import:000000000000007a .L0 
C:\Users\stapi\AppData\Local\Temp\cckPc6sh.s:515    .text.pkcs8_enc_key_import:000000000000007c .L0 
C:\Users\stapi\AppData\Local\Temp\cckPc6sh.s:516    .text.pkcs8_enc_key_import:000000000000007c .L0 
C:\Users\stapi\AppData\Local\Temp\cckPc6sh.s:518    .text.pkcs8_enc_key_import:0000000000000080 .L0 
C:\Users\stapi\AppData\Local\Temp\cckPc6sh.s:520    .text.pkcs8_enc_key_import:0000000000000082 .L0 
C:\Users\stapi\AppData\Local\Temp\cckPc6sh.s:523    .text.pkcs8_enc_key_import:0000000000000086 .L0 
C:\Users\stapi\AppData\Local\Temp\cckPc6sh.s:524    .text.pkcs8_enc_key_import:0000000000000086 .L0 
C:\Users\stapi\AppData\Local\Temp\cckPc6sh.s:528    .text.pkcs8_enc_key_import:0000000000000090 .L0 
C:\Users\stapi\AppData\Local\Temp\cckPc6sh.s:531    .text.pkcs8_enc_key_import:0000000000000094 .L0 
C:\Users\stapi\AppData\Local\Temp\cckPc6sh.s:539    .text.pkcs8_enc_key_import:000000000000009e .L0 
C:\Users\stapi\AppData\Local\Temp\cckPc6sh.s:540    .text.pkcs8_enc_key_import:000000000000009e .L0 
C:\Users\stapi\AppData\Local\Temp\cckPc6sh.s:549    .text.pkcs8_enc_key_import:00000000000000ac .L0 
C:\Users\stapi\AppData\Local\Temp\cckPc6sh.s:550    .text.pkcs8_enc_key_import:00000000000000ac .L0 
C:\Users\stapi\AppData\Local\Temp\cckPc6sh.s:561    .text.pkcs8_enc_key_import:00000000000000c2 .L0 
C:\Users\stapi\AppData\Local\Temp\cckPc6sh.s:562    .text.pkcs8_enc_key_import:00000000000000c2 .L0 
C:\Users\stapi\AppData\Local\Temp\cckPc6sh.s:565    .text.pkcs8_enc_key_import:00000000000000c4 .L0 
C:\Users\stapi\AppData\Local\Temp\cckPc6sh.s:566    .text.pkcs8_enc_key_import:00000000000000c4 .L0 
C:\Users\stapi\AppData\Local\Temp\cckPc6sh.s:567    .text.pkcs8_enc_key_import:00000000000000c4 .L0 
C:\Users\stapi\AppData\Local\Temp\cckPc6sh.s:573    .text.pkcs8_enc_key_import:00000000000000d0 .L0 
C:\Users\stapi\AppData\Local\Temp\cckPc6sh.s:577    .text.pkcs8_enc_key_import:00000000000000da .L0 
C:\Users\stapi\AppData\Local\Temp\cckPc6sh.s:578    .text.pkcs8_enc_key_import:00000000000000da .L0 
C:\Users\stapi\AppData\Local\Temp\cckPc6sh.s:580    .text.pkcs8_enc_key_import:00000000000000dc .L0 
C:\Users\stapi\AppData\Local\Temp\cckPc6sh.s:378    .text.pkcs8_key_import:0000000000000200 .L0 
C:\Users\stapi\AppData\Local\Temp\cckPc6sh.s:583    .text.pkcs8_enc_key_import:00000000000000dc .L0 
                     .debug_frame:0000000000000000 .L0 
C:\Users\stapi\AppData\Local\Temp\cckPc6sh.s:14     .rodata.pkcs8_key_import.str1.4:0000000000000038 .LC1
C:\Users\stapi\AppData\Local\Temp\cckPc6sh.s:11     .rodata.pkcs8_key_import.str1.4:0000000000000000 .LC0
C:\Users\stapi\AppData\Local\Temp\cckPc6sh.s:17     .rodata.pkcs8_key_import.str1.4:0000000000000054 .LC2
C:\Users\stapi\AppData\Local\Temp\cckPc6sh.s:20     .rodata.pkcs8_key_import.str1.4:0000000000000078 .LC3
C:\Users\stapi\AppData\Local\Temp\cckPc6sh.s:26     .rodata.pkcs8_key_import.str1.4:0000000000000128 .LC5
C:\Users\stapi\AppData\Local\Temp\cckPc6sh.s:23     .rodata.pkcs8_key_import.str1.4:00000000000000dc .LC4
C:\Users\stapi\AppData\Local\Temp\cckPc6sh.s:29     .rodata.pkcs8_key_import.str1.4:000000000000016c .LC6
C:\Users\stapi\AppData\Local\Temp\cckPc6sh.s:32     .rodata.pkcs8_key_import.str1.4:0000000000000184 .LC7
C:\Users\stapi\AppData\Local\Temp\cckPc6sh.s:35     .rodata.pkcs8_key_import.str1.4:00000000000001b4 .LC8
C:\Users\stapi\AppData\Local\Temp\cckPc6sh.s:38     .rodata.pkcs8_key_import.str1.4:00000000000001d8 .LC9
C:\Users\stapi\AppData\Local\Temp\cckPc6sh.s:114    .text.pkcs8_key_import:000000000000004a .L2
C:\Users\stapi\AppData\Local\Temp\cckPc6sh.s:125    .text.pkcs8_key_import:000000000000005e .L18
C:\Users\stapi\AppData\Local\Temp\cckPc6sh.s:118    .text.pkcs8_key_import:0000000000000052 .L23
C:\Users\stapi\AppData\Local\Temp\cckPc6sh.s:185    .text.pkcs8_key_import:00000000000000b0 .L22
C:\Users\stapi\AppData\Local\Temp\cckPc6sh.s:108    .text.pkcs8_key_import:0000000000000040 .L3
C:\Users\stapi\AppData\Local\Temp\cckPc6sh.s:162    .text.pkcs8_key_import:0000000000000084 .L19
C:\Users\stapi\AppData\Local\Temp\cckPc6sh.s:191    .text.pkcs8_key_import:00000000000000b4 .L7
C:\Users\stapi\AppData\Local\Temp\cckPc6sh.s:148    .text.pkcs8_key_import:0000000000000078 .L1
C:\Users\stapi\AppData\Local\Temp\cckPc6sh.s:213    .text.pkcs8_key_import:00000000000000d4 .L8
C:\Users\stapi\AppData\Local\Temp\cckPc6sh.s:175    .text.pkcs8_key_import:000000000000009c .L24
C:\Users\stapi\AppData\Local\Temp\cckPc6sh.s:258    .text.pkcs8_key_import:0000000000000124 .L9
C:\Users\stapi\AppData\Local\Temp\cckPc6sh.s:263    .text.pkcs8_key_import:000000000000012e .L20
C:\Users\stapi\AppData\Local\Temp\cckPc6sh.s:309    .text.pkcs8_key_import:0000000000000194 .L12
C:\Users\stapi\AppData\Local\Temp\cckPc6sh.s:319    .text.pkcs8_key_import:00000000000001aa .L13
C:\Users\stapi\AppData\Local\Temp\cckPc6sh.s:370    .text.pkcs8_key_import:00000000000001f6 .L14
C:\Users\stapi\AppData\Local\Temp\cckPc6sh.s:383    .rodata.pkcs8_enc_key_import.str1.4:000000000000005c .LC11
C:\Users\stapi\AppData\Local\Temp\cckPc6sh.s:380    .rodata.pkcs8_enc_key_import.str1.4:0000000000000000 .LC10
C:\Users\stapi\AppData\Local\Temp\cckPc6sh.s:386    .rodata.pkcs8_enc_key_import.str1.4:00000000000000b0 .LC12
C:\Users\stapi\AppData\Local\Temp\cckPc6sh.s:436    .text.pkcs8_enc_key_import:000000000000001a .L26
C:\Users\stapi\AppData\Local\Temp\cckPc6sh.s:483    .text.pkcs8_enc_key_import:0000000000000058 .L28
C:\Users\stapi\AppData\Local\Temp\cckPc6sh.s:494    .text.pkcs8_enc_key_import:000000000000006c .L35
C:\Users\stapi\AppData\Local\Temp\cckPc6sh.s:487    .text.pkcs8_enc_key_import:0000000000000060 .L38
C:\Users\stapi\AppData\Local\Temp\cckPc6sh.s:417    .text.pkcs8_enc_key_import:000000000000000c .L39
C:\Users\stapi\AppData\Local\Temp\cckPc6sh.s:477    .text.pkcs8_enc_key_import:000000000000004e .L29
C:\Users\stapi\AppData\Local\Temp\cckPc6sh.s:534    .text.pkcs8_enc_key_import:000000000000009e .L36
C:\Users\stapi\AppData\Local\Temp\cckPc6sh.s:529    .text.pkcs8_enc_key_import:0000000000000094 .L31
C:\Users\stapi\AppData\Local\Temp\cckPc6sh.s:421    .text.pkcs8_enc_key_import:000000000000000e .L25
C:\Users\stapi\AppData\Local\Temp\cckPc6sh.s:1590   .debug_abbrev:0000000000000000 .Ldebug_abbrev0
C:\Users\stapi\AppData\Local\Temp\cckPc6sh.s:2421   .debug_str:0000000000000237 .LASF53
C:\Users\stapi\AppData\Local\Temp\cckPc6sh.s:2383   .debug_str:000000000000003b .LASF54
C:\Users\stapi\AppData\Local\Temp\cckPc6sh.s:2389   .debug_str:00000000000000d5 .LASF55
C:\Users\stapi\AppData\Local\Temp\cckPc6sh.s:2363   .debug_ranges:0000000000000000 .Ldebug_ranges0
C:\Users\stapi\AppData\Local\Temp\cckPc6sh.s:2371   .debug_line:0000000000000000 .Ldebug_line0
C:\Users\stapi\AppData\Local\Temp\cckPc6sh.s:2387   .debug_str:00000000000000ce .LASF2
C:\Users\stapi\AppData\Local\Temp\cckPc6sh.s:2447   .debug_str:00000000000003bd .LASF0
C:\Users\stapi\AppData\Local\Temp\cckPc6sh.s:2381   .debug_str:000000000000002f .LASF1
C:\Users\stapi\AppData\Local\Temp\cckPc6sh.s:2435   .debug_str:0000000000000370 .LASF3
C:\Users\stapi\AppData\Local\Temp\cckPc6sh.s:2441   .debug_str:000000000000038a .LASF4
C:\Users\stapi\AppData\Local\Temp\cckPc6sh.s:2385   .debug_str:00000000000000c4 .LASF5
C:\Users\stapi\AppData\Local\Temp\cckPc6sh.s:2451   .debug_str:00000000000003d3 .LASF6
C:\Users\stapi\AppData\Local\Temp\cckPc6sh.s:2429   .debug_str:0000000000000356 .LASF7
C:\Users\stapi\AppData\Local\Temp\cckPc6sh.s:2467   .debug_str:0000000000000423 .LASF8
C:\Users\stapi\AppData\Local\Temp\cckPc6sh.s:2425   .debug_str:000000000000033e .LASF9
C:\Users\stapi\AppData\Local\Temp\cckPc6sh.s:2445   .debug_str:00000000000003a6 .LASF10
C:\Users\stapi\AppData\Local\Temp\cckPc6sh.s:2453   .debug_str:00000000000003e6 .LASF11
C:\Users\stapi\AppData\Local\Temp\cckPc6sh.s:2407   .debug_str:00000000000001d1 .LASF12
C:\Users\stapi\AppData\Local\Temp\cckPc6sh.s:2459   .debug_str:00000000000003fb .LASF13
C:\Users\stapi\AppData\Local\Temp\cckPc6sh.s:2423   .debug_str:0000000000000330 .LASF14
C:\Users\stapi\AppData\Local\Temp\cckPc6sh.s:2375   .debug_str:000000000000000c .LASF15
C:\Users\stapi\AppData\Local\Temp\cckPc6sh.s:2427   .debug_str:000000000000034c .LASF16
C:\Users\stapi\AppData\Local\Temp\cckPc6sh.s:2433   .debug_str:0000000000000367 .LASF17
C:\Users\stapi\AppData\Local\Temp\cckPc6sh.s:2393   .debug_str:000000000000016e .LASF18
C:\Users\stapi\AppData\Local\Temp\cckPc6sh.s:2455   .debug_str:00000000000003eb .LASF19
C:\Users\stapi\AppData\Local\Temp\cckPc6sh.s:2449   .debug_str:00000000000003ca .LASF25
C:\Users\stapi\AppData\Local\Temp\cckPc6sh.s:2465   .debug_str:000000000000041b .LASF20
C:\Users\stapi\AppData\Local\Temp\cckPc6sh.s:2415   .debug_str:000000000000020a .LASF21
C:\Users\stapi\AppData\Local\Temp\cckPc6sh.s:2457   .debug_str:00000000000003f5 .LASF22
C:\Users\stapi\AppData\Local\Temp\cckPc6sh.s:2373   .debug_str:0000000000000000 .LASF23
C:\Users\stapi\AppData\Local\Temp\cckPc6sh.s:2439   .debug_str:0000000000000383 .LASF24
C:\Users\stapi\AppData\Local\Temp\cckPc6sh.s:2377   .debug_str:0000000000000018 .LASF26
C:\Users\stapi\AppData\Local\Temp\cckPc6sh.s:2473   .debug_str:0000000000000459 .LASF36
C:\Users\stapi\AppData\Local\Temp\cckPc6sh.s:2463   .debug_str:0000000000000406 .LASF32
C:\Users\stapi\AppData\Local\Temp\cckPc6sh.s:393    .text.pkcs8_enc_key_import:0000000000000000 .LFB87
C:\Users\stapi\AppData\Local\Temp\cckPc6sh.s:581    .text.pkcs8_enc_key_import:00000000000000dc .LFE87
C:\Users\stapi\AppData\Local\Temp\cckPc6sh.s:2069   .debug_loc:0000000000000000 .LLST8
C:\Users\stapi\AppData\Local\Temp\cckPc6sh.s:2094   .debug_loc:000000000000003a .LLST9
C:\Users\stapi\AppData\Local\Temp\cckPc6sh.s:2405   .debug_str:00000000000001ca .LASF27
C:\Users\stapi\AppData\Local\Temp\cckPc6sh.s:2119   .debug_loc:0000000000000074 .LLST10
C:\Users\stapi\AppData\Local\Temp\cckPc6sh.s:2148   .debug_loc:00000000000000b9 .LLST11
C:\Users\stapi\AppData\Local\Temp\cckPc6sh.s:2172   .debug_loc:00000000000000f2 .LLST12
C:\Users\stapi\AppData\Local\Temp\cckPc6sh.s:2477   .debug_str:0000000000000478 .LASF28
C:\Users\stapi\AppData\Local\Temp\cckPc6sh.s:2471   .debug_str:000000000000044d .LASF29
C:\Users\stapi\AppData\Local\Temp\cckPc6sh.s:2461   .debug_str:0000000000000401 .LASF30
C:\Users\stapi\AppData\Local\Temp\cckPc6sh.s:2437   .debug_str:000000000000037a .LASF31
C:\Users\stapi\AppData\Local\Temp\cckPc6sh.s:563    .text.pkcs8_enc_key_import:00000000000000c4 .LBB31
C:\Users\stapi\AppData\Local\Temp\cckPc6sh.s:579    .text.pkcs8_enc_key_import:00000000000000dc .LBE31
C:\Users\stapi\AppData\Local\Temp\cckPc6sh.s:569    .text.pkcs8_enc_key_import:00000000000000ce .LVL57
C:\Users\stapi\AppData\Local\Temp\cckPc6sh.s:575    .text.pkcs8_enc_key_import:00000000000000da .LVL59
C:\Users\stapi\AppData\Local\Temp\cckPc6sh.s:448    .text.pkcs8_enc_key_import:000000000000002a .LBB25
C:\Users\stapi\AppData\Local\Temp\cckPc6sh.s:459    .text.pkcs8_enc_key_import:0000000000000038 .LBE25
C:\Users\stapi\AppData\Local\Temp\cckPc6sh.s:2193   .debug_loc:000000000000011a .LLST13
C:\Users\stapi\AppData\Local\Temp\cckPc6sh.s:495    .text.pkcs8_enc_key_import:000000000000006c .LBB27
C:\Users\stapi\AppData\Local\Temp\cckPc6sh.s:505    .text.pkcs8_enc_key_import:0000000000000078 .LBE27
C:\Users\stapi\AppData\Local\Temp\cckPc6sh.s:2202   .debug_loc:000000000000012f .LLST14
C:\Users\stapi\AppData\Local\Temp\cckPc6sh.s:536    .text.pkcs8_enc_key_import:000000000000009e .LBB29
C:\Users\stapi\AppData\Local\Temp\cckPc6sh.s:547    .text.pkcs8_enc_key_import:00000000000000ac .LBE29
C:\Users\stapi\AppData\Local\Temp\cckPc6sh.s:2211   .debug_loc:0000000000000144 .LLST15
C:\Users\stapi\AppData\Local\Temp\cckPc6sh.s:444    .text.pkcs8_enc_key_import:0000000000000026 .LVL39
C:\Users\stapi\AppData\Local\Temp\cckPc6sh.s:474    .text.pkcs8_enc_key_import:000000000000004a .LVL44
C:\Users\stapi\AppData\Local\Temp\cckPc6sh.s:491    .text.pkcs8_enc_key_import:000000000000006a .LVL46
C:\Users\stapi\AppData\Local\Temp\cckPc6sh.s:526    .text.pkcs8_enc_key_import:0000000000000090 .LVL52
C:\Users\stapi\AppData\Local\Temp\cckPc6sh.s:557    .text.pkcs8_enc_key_import:00000000000000c0 .LVL55
C:\Users\stapi\AppData\Local\Temp\cckPc6sh.s:2419   .debug_str:0000000000000226 .LASF33
C:\Users\stapi\AppData\Local\Temp\cckPc6sh.s:45     .text.pkcs8_key_import:0000000000000000 .LFB86
C:\Users\stapi\AppData\Local\Temp\cckPc6sh.s:376    .text.pkcs8_key_import:0000000000000200 .LFE86
C:\Users\stapi\AppData\Local\Temp\cckPc6sh.s:2220   .debug_loc:0000000000000159 .LLST0
C:\Users\stapi\AppData\Local\Temp\cckPc6sh.s:2234   .debug_loc:000000000000017a .LLST1
C:\Users\stapi\AppData\Local\Temp\cckPc6sh.s:2245   .debug_loc:0000000000000198 .LLST2
C:\Users\stapi\AppData\Local\Temp\cckPc6sh.s:2481   .debug_str:000000000000048e .LASF34
C:\Users\stapi\AppData\Local\Temp\cckPc6sh.s:2293   .debug_loc:00000000000001f0 .LLST3
C:\Users\stapi\AppData\Local\Temp\cckPc6sh.s:2403   .debug_str:00000000000001c5 .LASF35
C:\Users\stapi\AppData\Local\Temp\cckPc6sh.s:76     .text.pkcs8_key_import:000000000000001a .LBB10
C:\Users\stapi\AppData\Local\Temp\cckPc6sh.s:88     .text.pkcs8_key_import:0000000000000028 .LBE10
C:\Users\stapi\AppData\Local\Temp\cckPc6sh.s:2312   .debug_loc:0000000000000224 .LLST4
C:\Users\stapi\AppData\Local\Temp\cckPc6sh.s:126    .text.pkcs8_key_import:000000000000005e .LBB12
C:\Users\stapi\AppData\Local\Temp\cckPc6sh.s:137    .text.pkcs8_key_import:000000000000006c .LBE12
C:\Users\stapi\AppData\Local\Temp\cckPc6sh.s:2321   .debug_loc:000000000000023a .LLST5
C:\Users\stapi\AppData\Local\Temp\cckPc6sh.s:228    .text.pkcs8_key_import:00000000000000f0 .LBB14
C:\Users\stapi\AppData\Local\Temp\cckPc6sh.s:239    .text.pkcs8_key_import:00000000000000fe .LBE14
C:\Users\stapi\AppData\Local\Temp\cckPc6sh.s:2330   .debug_loc:0000000000000250 .LLST6
C:\Users\stapi\AppData\Local\Temp\cckPc6sh.s:341    .text.pkcs8_key_import:00000000000001c6 .LBB16
C:\Users\stapi\AppData\Local\Temp\cckPc6sh.s:352    .text.pkcs8_key_import:00000000000001d4 .LBE16
C:\Users\stapi\AppData\Local\Temp\cckPc6sh.s:2339   .debug_loc:0000000000000266 .LLST7
C:\Users\stapi\AppData\Local\Temp\cckPc6sh.s:72     .text.pkcs8_key_import:0000000000000016 .LVL1
C:\Users\stapi\AppData\Local\Temp\cckPc6sh.s:105    .text.pkcs8_key_import:000000000000003c .LVL5
C:\Users\stapi\AppData\Local\Temp\cckPc6sh.s:122    .text.pkcs8_key_import:000000000000005c .LVL7
C:\Users\stapi\AppData\Local\Temp\cckPc6sh.s:141    .text.pkcs8_key_import:0000000000000074 .LVL10
C:\Users\stapi\AppData\Local\Temp\cckPc6sh.s:169    .text.pkcs8_key_import:0000000000000090 .LVL14
C:\Users\stapi\AppData\Local\Temp\cckPc6sh.s:179    .text.pkcs8_key_import:00000000000000a6 .LVL15
C:\Users\stapi\AppData\Local\Temp\cckPc6sh.s:183    .text.pkcs8_key_import:00000000000000b0 .LVL16
C:\Users\stapi\AppData\Local\Temp\cckPc6sh.s:206    .text.pkcs8_key_import:00000000000000c8 .LVL18
C:\Users\stapi\AppData\Local\Temp\cckPc6sh.s:217    .text.pkcs8_key_import:00000000000000de .LVL19
C:\Users\stapi\AppData\Local\Temp\cckPc6sh.s:224    .text.pkcs8_key_import:00000000000000ec .LVL20
C:\Users\stapi\AppData\Local\Temp\cckPc6sh.s:247    .text.pkcs8_key_import:000000000000010e .LVL23
C:\Users\stapi\AppData\Local\Temp\cckPc6sh.s:255    .text.pkcs8_key_import:0000000000000122 .LVL24
C:\Users\stapi\AppData\Local\Temp\cckPc6sh.s:269    .text.pkcs8_key_import:000000000000013e .LVL25
C:\Users\stapi\AppData\Local\Temp\cckPc6sh.s:276    .text.pkcs8_key_import:0000000000000152 .LVL26
C:\Users\stapi\AppData\Local\Temp\cckPc6sh.s:316    .text.pkcs8_key_import:00000000000001a8 .LVL27
C:\Users\stapi\AppData\Local\Temp\cckPc6sh.s:337    .text.pkcs8_key_import:00000000000001c2 .LVL28
C:\Users\stapi\AppData\Local\Temp\cckPc6sh.s:358    .text.pkcs8_key_import:00000000000001e6 .LVL31
C:\Users\stapi\AppData\Local\Temp\cckPc6sh.s:364    .text.pkcs8_key_import:00000000000001f2 .LVL32
C:\Users\stapi\AppData\Local\Temp\cckPc6sh.s:2391   .debug_str:0000000000000167 .LASF37
C:\Users\stapi\AppData\Local\Temp\cckPc6sh.s:2411   .debug_str:00000000000001e9 .LASF38
C:\Users\stapi\AppData\Local\Temp\cckPc6sh.s:2417   .debug_str:0000000000000215 .LASF39
C:\Users\stapi\AppData\Local\Temp\cckPc6sh.s:2397   .debug_str:000000000000018a .LASF40
C:\Users\stapi\AppData\Local\Temp\cckPc6sh.s:2431   .debug_str:000000000000035f .LASF41
C:\Users\stapi\AppData\Local\Temp\cckPc6sh.s:2479   .debug_str:0000000000000480 .LASF42
C:\Users\stapi\AppData\Local\Temp\cckPc6sh.s:2395   .debug_str:000000000000017a .LASF43
C:\Users\stapi\AppData\Local\Temp\cckPc6sh.s:2379   .debug_str:0000000000000021 .LASF44
C:\Users\stapi\AppData\Local\Temp\cckPc6sh.s:2475   .debug_str:000000000000046c .LASF45
C:\Users\stapi\AppData\Local\Temp\cckPc6sh.s:2469   .debug_str:0000000000000435 .LASF46
C:\Users\stapi\AppData\Local\Temp\cckPc6sh.s:2483   .debug_str:0000000000000493 .LASF47
C:\Users\stapi\AppData\Local\Temp\cckPc6sh.s:2443   .debug_str:0000000000000398 .LASF48
C:\Users\stapi\AppData\Local\Temp\cckPc6sh.s:2413   .debug_str:00000000000001fd .LASF49
C:\Users\stapi\AppData\Local\Temp\cckPc6sh.s:2399   .debug_str:000000000000019a .LASF50
C:\Users\stapi\AppData\Local\Temp\cckPc6sh.s:2409   .debug_str:00000000000001d9 .LASF51
C:\Users\stapi\AppData\Local\Temp\cckPc6sh.s:2401   .debug_str:00000000000001a7 .LASF52
C:\Users\stapi\AppData\Local\Temp\cckPc6sh.s:396    .text.pkcs8_enc_key_import:0000000000000000 .LVL35
C:\Users\stapi\AppData\Local\Temp\cckPc6sh.s:416    .text.pkcs8_enc_key_import:000000000000000c .LVL36
C:\Users\stapi\AppData\Local\Temp\cckPc6sh.s:435    .text.pkcs8_enc_key_import:000000000000001a .LVL37
C:\Users\stapi\AppData\Local\Temp\cckPc6sh.s:442    .text.pkcs8_enc_key_import:000000000000001e .LVL38
C:\Users\stapi\AppData\Local\Temp\cckPc6sh.s:571    .text.pkcs8_enc_key_import:00000000000000d0 .LVL58
C:\Users\stapi\AppData\Local\Temp\cckPc6sh.s:463    .text.pkcs8_enc_key_import:000000000000003a .LVL42
C:\Users\stapi\AppData\Local\Temp\cckPc6sh.s:482    .text.pkcs8_enc_key_import:0000000000000058 .LVL45
C:\Users\stapi\AppData\Local\Temp\cckPc6sh.s:493    .text.pkcs8_enc_key_import:000000000000006c .LVL47
C:\Users\stapi\AppData\Local\Temp\cckPc6sh.s:521    .text.pkcs8_enc_key_import:0000000000000086 .LVL51
C:\Users\stapi\AppData\Local\Temp\cckPc6sh.s:467    .text.pkcs8_enc_key_import:000000000000003c .LVL43
C:\Users\stapi\AppData\Local\Temp\cckPc6sh.s:559    .text.pkcs8_enc_key_import:00000000000000c2 .LVL56
C:\Users\stapi\AppData\Local\Temp\cckPc6sh.s:447    .text.pkcs8_enc_key_import:000000000000002a .LVL40
C:\Users\stapi\AppData\Local\Temp\cckPc6sh.s:457    .text.pkcs8_enc_key_import:0000000000000038 .LVL41
C:\Users\stapi\AppData\Local\Temp\cckPc6sh.s:503    .text.pkcs8_enc_key_import:0000000000000078 .LVL48
C:\Users\stapi\AppData\Local\Temp\cckPc6sh.s:535    .text.pkcs8_enc_key_import:000000000000009e .LVL53
C:\Users\stapi\AppData\Local\Temp\cckPc6sh.s:545    .text.pkcs8_enc_key_import:00000000000000ac .LVL54
C:\Users\stapi\AppData\Local\Temp\cckPc6sh.s:49     .text.pkcs8_key_import:0000000000000000 .LVL0
C:\Users\stapi\AppData\Local\Temp\cckPc6sh.s:101    .text.pkcs8_key_import:0000000000000034 .LVL4
C:\Users\stapi\AppData\Local\Temp\cckPc6sh.s:113    .text.pkcs8_key_import:000000000000004a .LVL6
C:\Users\stapi\AppData\Local\Temp\cckPc6sh.s:124    .text.pkcs8_key_import:000000000000005e .LVL8
C:\Users\stapi\AppData\Local\Temp\cckPc6sh.s:147    .text.pkcs8_key_import:0000000000000078 .LVL12
C:\Users\stapi\AppData\Local\Temp\cckPc6sh.s:161    .text.pkcs8_key_import:0000000000000084 .LVL13
C:\Users\stapi\AppData\Local\Temp\cckPc6sh.s:190    .text.pkcs8_key_import:00000000000000b4 .LVL17
C:\Users\stapi\AppData\Local\Temp\cckPc6sh.s:143    .text.pkcs8_key_import:0000000000000076 .LVL11
C:\Users\stapi\AppData\Local\Temp\cckPc6sh.s:366    .text.pkcs8_key_import:00000000000001f4 .LVL33
C:\Users\stapi\AppData\Local\Temp\cckPc6sh.s:369    .text.pkcs8_key_import:00000000000001f6 .LVL34
C:\Users\stapi\AppData\Local\Temp\cckPc6sh.s:75     .text.pkcs8_key_import:000000000000001a .LVL2
C:\Users\stapi\AppData\Local\Temp\cckPc6sh.s:86     .text.pkcs8_key_import:0000000000000028 .LVL3
C:\Users\stapi\AppData\Local\Temp\cckPc6sh.s:135    .text.pkcs8_key_import:000000000000006c .LVL9
C:\Users\stapi\AppData\Local\Temp\cckPc6sh.s:227    .text.pkcs8_key_import:00000000000000f0 .LVL21
C:\Users\stapi\AppData\Local\Temp\cckPc6sh.s:237    .text.pkcs8_key_import:00000000000000fe .LVL22
C:\Users\stapi\AppData\Local\Temp\cckPc6sh.s:340    .text.pkcs8_key_import:00000000000001c6 .LVL29
C:\Users\stapi\AppData\Local\Temp\cckPc6sh.s:350    .text.pkcs8_key_import:00000000000001d4 .LVL30
C:\Users\stapi\AppData\Local\Temp\cckPc6sh.s:595    .debug_info:0000000000000000 .Ldebug_info0

UNDEFINED SYMBOLS
__riscv_save_4
asn1_get_next
asn1_unexpected
bignum_init
__riscv_restore_4
bignum_set_unsigned_bin
wpa_printf
bignum_deinit
bignum_cmp_d
asn1_get_oid
asn1_oid_to_str
crypto_rsa_import_private_key
__riscv_save_5
__riscv_restore_5
pkcs5_decrypt
os_free
