   1              		.file	"rsa.c"
   2              		.option nopic
   3              		.attribute arch, "rv32i2p0_m2p0_a2p0_f2p0_c2p0_b_p0p94"
   4              		.attribute unaligned_access, 0
   5              		.attribute stack_align, 16
   6              		.text
   7              	.Ltext0:
   8              		.cfi_sections	.debug_frame
   9              		.section	.rodata.crypto_rsa_parse_integer.str1.4,"aMS",@progbits,1
  10              		.align	2
  11              	.LC0:
  12 0000 5253413A 		.string	"RSA: Expected INTEGER"
  12      20457870 
  12      65637465 
  12      6420494E 
  12      54454745 
  13 0016 0000     		.align	2
  14              	.LC1:
  15 0018 5253413A 		.string	"RSA: Failed to parse INTEGER"
  15      20466169 
  15      6C656420 
  15      746F2070 
  15      61727365 
  16              		.section	.text.crypto_rsa_parse_integer,"ax",@progbits
  17              		.align	1
  19              	crypto_rsa_parse_integer:
  20              	.LFB86:
  21              		.file 1 "C:/Users/stapi/OneDrive/Desktop/GD32VW553/V1_MQTT_OK/GD32VW55X_Wifi_BLE_SDK/GD32VW55x_REL
   1:C:/Users/stapi/OneDrive/Desktop/GD32VW553/V1_MQTT_OK/GD32VW55X_Wifi_BLE_SDK/GD32VW55x_RELEASE_V1.0.2/MSDK/wpa_supplicant/src/tls\rsa.c **** /*
   2:C:/Users/stapi/OneDrive/Desktop/GD32VW553/V1_MQTT_OK/GD32VW55X_Wifi_BLE_SDK/GD32VW55x_RELEASE_V1.0.2/MSDK/wpa_supplicant/src/tls\rsa.c ****  * RSA
   3:C:/Users/stapi/OneDrive/Desktop/GD32VW553/V1_MQTT_OK/GD32VW55X_Wifi_BLE_SDK/GD32VW55x_RELEASE_V1.0.2/MSDK/wpa_supplicant/src/tls\rsa.c ****  * Copyright (c) 2006-2014, Jouni Malinen <j@w1.fi>
   4:C:/Users/stapi/OneDrive/Desktop/GD32VW553/V1_MQTT_OK/GD32VW55X_Wifi_BLE_SDK/GD32VW55x_RELEASE_V1.0.2/MSDK/wpa_supplicant/src/tls\rsa.c ****  *
   5:C:/Users/stapi/OneDrive/Desktop/GD32VW553/V1_MQTT_OK/GD32VW55X_Wifi_BLE_SDK/GD32VW55x_RELEASE_V1.0.2/MSDK/wpa_supplicant/src/tls\rsa.c ****  * This software may be distributed under the terms of the BSD license.
   6:C:/Users/stapi/OneDrive/Desktop/GD32VW553/V1_MQTT_OK/GD32VW55X_Wifi_BLE_SDK/GD32VW55x_RELEASE_V1.0.2/MSDK/wpa_supplicant/src/tls\rsa.c ****  * See README for more details.
   7:C:/Users/stapi/OneDrive/Desktop/GD32VW553/V1_MQTT_OK/GD32VW55X_Wifi_BLE_SDK/GD32VW55x_RELEASE_V1.0.2/MSDK/wpa_supplicant/src/tls\rsa.c ****  */
   8:C:/Users/stapi/OneDrive/Desktop/GD32VW553/V1_MQTT_OK/GD32VW55X_Wifi_BLE_SDK/GD32VW55x_RELEASE_V1.0.2/MSDK/wpa_supplicant/src/tls\rsa.c **** 
   9:C:/Users/stapi/OneDrive/Desktop/GD32VW553/V1_MQTT_OK/GD32VW55X_Wifi_BLE_SDK/GD32VW55x_RELEASE_V1.0.2/MSDK/wpa_supplicant/src/tls\rsa.c **** #include "includes.h"
  10:C:/Users/stapi/OneDrive/Desktop/GD32VW553/V1_MQTT_OK/GD32VW55X_Wifi_BLE_SDK/GD32VW55x_RELEASE_V1.0.2/MSDK/wpa_supplicant/src/tls\rsa.c **** 
  11:C:/Users/stapi/OneDrive/Desktop/GD32VW553/V1_MQTT_OK/GD32VW55X_Wifi_BLE_SDK/GD32VW55x_RELEASE_V1.0.2/MSDK/wpa_supplicant/src/tls\rsa.c **** #include "common.h"
  12:C:/Users/stapi/OneDrive/Desktop/GD32VW553/V1_MQTT_OK/GD32VW55X_Wifi_BLE_SDK/GD32VW55x_RELEASE_V1.0.2/MSDK/wpa_supplicant/src/tls\rsa.c **** #include "asn1.h"
  13:C:/Users/stapi/OneDrive/Desktop/GD32VW553/V1_MQTT_OK/GD32VW55X_Wifi_BLE_SDK/GD32VW55x_RELEASE_V1.0.2/MSDK/wpa_supplicant/src/tls\rsa.c **** #include "bignum.h"
  14:C:/Users/stapi/OneDrive/Desktop/GD32VW553/V1_MQTT_OK/GD32VW55X_Wifi_BLE_SDK/GD32VW55x_RELEASE_V1.0.2/MSDK/wpa_supplicant/src/tls\rsa.c **** #include "rsa.h"
  15:C:/Users/stapi/OneDrive/Desktop/GD32VW553/V1_MQTT_OK/GD32VW55X_Wifi_BLE_SDK/GD32VW55x_RELEASE_V1.0.2/MSDK/wpa_supplicant/src/tls\rsa.c **** 
  16:C:/Users/stapi/OneDrive/Desktop/GD32VW553/V1_MQTT_OK/GD32VW55X_Wifi_BLE_SDK/GD32VW55x_RELEASE_V1.0.2/MSDK/wpa_supplicant/src/tls\rsa.c **** 
  17:C:/Users/stapi/OneDrive/Desktop/GD32VW553/V1_MQTT_OK/GD32VW55X_Wifi_BLE_SDK/GD32VW55x_RELEASE_V1.0.2/MSDK/wpa_supplicant/src/tls\rsa.c **** struct crypto_rsa_key {
  18:C:/Users/stapi/OneDrive/Desktop/GD32VW553/V1_MQTT_OK/GD32VW55X_Wifi_BLE_SDK/GD32VW55x_RELEASE_V1.0.2/MSDK/wpa_supplicant/src/tls\rsa.c **** 	int private_key; /* whether private key is set */
  19:C:/Users/stapi/OneDrive/Desktop/GD32VW553/V1_MQTT_OK/GD32VW55X_Wifi_BLE_SDK/GD32VW55x_RELEASE_V1.0.2/MSDK/wpa_supplicant/src/tls\rsa.c **** 	struct bignum *n; /* modulus (p * q) */
  20:C:/Users/stapi/OneDrive/Desktop/GD32VW553/V1_MQTT_OK/GD32VW55X_Wifi_BLE_SDK/GD32VW55x_RELEASE_V1.0.2/MSDK/wpa_supplicant/src/tls\rsa.c **** 	struct bignum *e; /* public exponent */
  21:C:/Users/stapi/OneDrive/Desktop/GD32VW553/V1_MQTT_OK/GD32VW55X_Wifi_BLE_SDK/GD32VW55x_RELEASE_V1.0.2/MSDK/wpa_supplicant/src/tls\rsa.c **** 	/* The following parameters are available only if private_key is set */
  22:C:/Users/stapi/OneDrive/Desktop/GD32VW553/V1_MQTT_OK/GD32VW55X_Wifi_BLE_SDK/GD32VW55x_RELEASE_V1.0.2/MSDK/wpa_supplicant/src/tls\rsa.c **** 	struct bignum *d; /* private exponent */
  23:C:/Users/stapi/OneDrive/Desktop/GD32VW553/V1_MQTT_OK/GD32VW55X_Wifi_BLE_SDK/GD32VW55x_RELEASE_V1.0.2/MSDK/wpa_supplicant/src/tls\rsa.c **** 	struct bignum *p; /* prime p (factor of n) */
  24:C:/Users/stapi/OneDrive/Desktop/GD32VW553/V1_MQTT_OK/GD32VW55X_Wifi_BLE_SDK/GD32VW55x_RELEASE_V1.0.2/MSDK/wpa_supplicant/src/tls\rsa.c **** 	struct bignum *q; /* prime q (factor of n) */
  25:C:/Users/stapi/OneDrive/Desktop/GD32VW553/V1_MQTT_OK/GD32VW55X_Wifi_BLE_SDK/GD32VW55x_RELEASE_V1.0.2/MSDK/wpa_supplicant/src/tls\rsa.c **** 	struct bignum *dmp1; /* d mod (p - 1); CRT exponent */
  26:C:/Users/stapi/OneDrive/Desktop/GD32VW553/V1_MQTT_OK/GD32VW55X_Wifi_BLE_SDK/GD32VW55x_RELEASE_V1.0.2/MSDK/wpa_supplicant/src/tls\rsa.c **** 	struct bignum *dmq1; /* d mod (q - 1); CRT exponent */
  27:C:/Users/stapi/OneDrive/Desktop/GD32VW553/V1_MQTT_OK/GD32VW55X_Wifi_BLE_SDK/GD32VW55x_RELEASE_V1.0.2/MSDK/wpa_supplicant/src/tls\rsa.c **** 	struct bignum *iqmp; /* 1 / q mod p; CRT coefficient */
  28:C:/Users/stapi/OneDrive/Desktop/GD32VW553/V1_MQTT_OK/GD32VW55X_Wifi_BLE_SDK/GD32VW55x_RELEASE_V1.0.2/MSDK/wpa_supplicant/src/tls\rsa.c **** };
  29:C:/Users/stapi/OneDrive/Desktop/GD32VW553/V1_MQTT_OK/GD32VW55X_Wifi_BLE_SDK/GD32VW55x_RELEASE_V1.0.2/MSDK/wpa_supplicant/src/tls\rsa.c **** 
  30:C:/Users/stapi/OneDrive/Desktop/GD32VW553/V1_MQTT_OK/GD32VW55X_Wifi_BLE_SDK/GD32VW55x_RELEASE_V1.0.2/MSDK/wpa_supplicant/src/tls\rsa.c **** 
  31:C:/Users/stapi/OneDrive/Desktop/GD32VW553/V1_MQTT_OK/GD32VW55X_Wifi_BLE_SDK/GD32VW55x_RELEASE_V1.0.2/MSDK/wpa_supplicant/src/tls\rsa.c **** static const u8 * crypto_rsa_parse_integer(const u8 *pos, const u8 *end,
  32:C:/Users/stapi/OneDrive/Desktop/GD32VW553/V1_MQTT_OK/GD32VW55X_Wifi_BLE_SDK/GD32VW55x_RELEASE_V1.0.2/MSDK/wpa_supplicant/src/tls\rsa.c **** 					   struct bignum *num)
  33:C:/Users/stapi/OneDrive/Desktop/GD32VW553/V1_MQTT_OK/GD32VW55X_Wifi_BLE_SDK/GD32VW55x_RELEASE_V1.0.2/MSDK/wpa_supplicant/src/tls\rsa.c **** {
  22              		.loc 1 33 1
  23              		.cfi_startproc
  24              	.LVL0:
  34:C:/Users/stapi/OneDrive/Desktop/GD32VW553/V1_MQTT_OK/GD32VW55X_Wifi_BLE_SDK/GD32VW55x_RELEASE_V1.0.2/MSDK/wpa_supplicant/src/tls\rsa.c **** 	struct asn1_hdr hdr;
  25              		.loc 1 34 2
  35:C:/Users/stapi/OneDrive/Desktop/GD32VW553/V1_MQTT_OK/GD32VW55X_Wifi_BLE_SDK/GD32VW55x_RELEASE_V1.0.2/MSDK/wpa_supplicant/src/tls\rsa.c **** 
  36:C:/Users/stapi/OneDrive/Desktop/GD32VW553/V1_MQTT_OK/GD32VW55X_Wifi_BLE_SDK/GD32VW55x_RELEASE_V1.0.2/MSDK/wpa_supplicant/src/tls\rsa.c **** 	if (pos == NULL)
  26              		.loc 1 36 2
  27              		.loc 1 36 5 is_stmt 0
  28 0000 2DCD     		beq	a0,zero,.L11
  33:C:/Users/stapi/OneDrive/Desktop/GD32VW553/V1_MQTT_OK/GD32VW55X_Wifi_BLE_SDK/GD32VW55x_RELEASE_V1.0.2/MSDK/wpa_supplicant/src/tls\rsa.c **** 	struct asn1_hdr hdr;
  29              		.loc 1 33 1
  30 0002 17030000 		call	t0,__riscv_save_1
  30      E7020300 
  31              		.cfi_offset 8, -8
  32              		.cfi_offset 1, -4
  33              		.cfi_def_cfa_offset 16
  34 000a 4111     		addi	sp,sp,-16
  35              		.cfi_def_cfa_offset 32
  36 000c 3284     		mv	s0,a2
  37:C:/Users/stapi/OneDrive/Desktop/GD32VW553/V1_MQTT_OK/GD32VW55X_Wifi_BLE_SDK/GD32VW55x_RELEASE_V1.0.2/MSDK/wpa_supplicant/src/tls\rsa.c **** 		return NULL;
  38:C:/Users/stapi/OneDrive/Desktop/GD32VW553/V1_MQTT_OK/GD32VW55X_Wifi_BLE_SDK/GD32VW55x_RELEASE_V1.0.2/MSDK/wpa_supplicant/src/tls\rsa.c **** 
  39:C:/Users/stapi/OneDrive/Desktop/GD32VW553/V1_MQTT_OK/GD32VW55X_Wifi_BLE_SDK/GD32VW55x_RELEASE_V1.0.2/MSDK/wpa_supplicant/src/tls\rsa.c **** 	if (asn1_get_next(pos, end - pos, &hdr) < 0 ||
  37              		.loc 1 39 2 is_stmt 1
  38              		.loc 1 39 6 is_stmt 0
  39 000e 898D     		sub	a1,a1,a0
  40              	.LVL1:
  41 0010 0A86     		mv	a2,sp
  42              	.LVL2:
  43 0012 97000000 		call	asn1_get_next
  43      E7800000 
  44              	.LVL3:
  45              		.loc 1 39 5
  46 001a 634C0502 		blt	a0,zero,.L3
  47              	.LVL4:
  48              	.LBB4:
  49              	.LBB5:
  50              		.file 2 "C:/Users/stapi/OneDrive/Desktop/GD32VW553/V1_MQTT_OK/GD32VW55X_Wifi_BLE_SDK/GD32VW55x_REL
   1:C:/Users/stapi/OneDrive/Desktop/GD32VW553/V1_MQTT_OK/GD32VW55X_Wifi_BLE_SDK/GD32VW55x_RELEASE_V1.0.2/MSDK/wpa_supplicant/src/tls\asn1.h **** /*
   2:C:/Users/stapi/OneDrive/Desktop/GD32VW553/V1_MQTT_OK/GD32VW55X_Wifi_BLE_SDK/GD32VW55x_RELEASE_V1.0.2/MSDK/wpa_supplicant/src/tls\asn1.h ****  * ASN.1 DER parsing
   3:C:/Users/stapi/OneDrive/Desktop/GD32VW553/V1_MQTT_OK/GD32VW55X_Wifi_BLE_SDK/GD32VW55x_RELEASE_V1.0.2/MSDK/wpa_supplicant/src/tls\asn1.h ****  * Copyright (c) 2006, Jouni Malinen <j@w1.fi>
   4:C:/Users/stapi/OneDrive/Desktop/GD32VW553/V1_MQTT_OK/GD32VW55X_Wifi_BLE_SDK/GD32VW55x_RELEASE_V1.0.2/MSDK/wpa_supplicant/src/tls\asn1.h ****  *
   5:C:/Users/stapi/OneDrive/Desktop/GD32VW553/V1_MQTT_OK/GD32VW55X_Wifi_BLE_SDK/GD32VW55x_RELEASE_V1.0.2/MSDK/wpa_supplicant/src/tls\asn1.h ****  * This software may be distributed under the terms of the BSD license.
   6:C:/Users/stapi/OneDrive/Desktop/GD32VW553/V1_MQTT_OK/GD32VW55X_Wifi_BLE_SDK/GD32VW55x_RELEASE_V1.0.2/MSDK/wpa_supplicant/src/tls\asn1.h ****  * See README for more details.
   7:C:/Users/stapi/OneDrive/Desktop/GD32VW553/V1_MQTT_OK/GD32VW55X_Wifi_BLE_SDK/GD32VW55x_RELEASE_V1.0.2/MSDK/wpa_supplicant/src/tls\asn1.h ****  */
   8:C:/Users/stapi/OneDrive/Desktop/GD32VW553/V1_MQTT_OK/GD32VW55X_Wifi_BLE_SDK/GD32VW55x_RELEASE_V1.0.2/MSDK/wpa_supplicant/src/tls\asn1.h **** 
   9:C:/Users/stapi/OneDrive/Desktop/GD32VW553/V1_MQTT_OK/GD32VW55X_Wifi_BLE_SDK/GD32VW55x_RELEASE_V1.0.2/MSDK/wpa_supplicant/src/tls\asn1.h **** #ifndef ASN1_H
  10:C:/Users/stapi/OneDrive/Desktop/GD32VW553/V1_MQTT_OK/GD32VW55X_Wifi_BLE_SDK/GD32VW55x_RELEASE_V1.0.2/MSDK/wpa_supplicant/src/tls\asn1.h **** #define ASN1_H
  11:C:/Users/stapi/OneDrive/Desktop/GD32VW553/V1_MQTT_OK/GD32VW55X_Wifi_BLE_SDK/GD32VW55x_RELEASE_V1.0.2/MSDK/wpa_supplicant/src/tls\asn1.h **** 
  12:C:/Users/stapi/OneDrive/Desktop/GD32VW553/V1_MQTT_OK/GD32VW55X_Wifi_BLE_SDK/GD32VW55x_RELEASE_V1.0.2/MSDK/wpa_supplicant/src/tls\asn1.h **** #define ASN1_TAG_EOC		0x00 /* not used with DER */
  13:C:/Users/stapi/OneDrive/Desktop/GD32VW553/V1_MQTT_OK/GD32VW55X_Wifi_BLE_SDK/GD32VW55x_RELEASE_V1.0.2/MSDK/wpa_supplicant/src/tls\asn1.h **** #define ASN1_TAG_BOOLEAN	0x01
  14:C:/Users/stapi/OneDrive/Desktop/GD32VW553/V1_MQTT_OK/GD32VW55X_Wifi_BLE_SDK/GD32VW55x_RELEASE_V1.0.2/MSDK/wpa_supplicant/src/tls\asn1.h **** #define ASN1_TAG_INTEGER	0x02
  15:C:/Users/stapi/OneDrive/Desktop/GD32VW553/V1_MQTT_OK/GD32VW55X_Wifi_BLE_SDK/GD32VW55x_RELEASE_V1.0.2/MSDK/wpa_supplicant/src/tls\asn1.h **** #define ASN1_TAG_BITSTRING	0x03
  16:C:/Users/stapi/OneDrive/Desktop/GD32VW553/V1_MQTT_OK/GD32VW55X_Wifi_BLE_SDK/GD32VW55x_RELEASE_V1.0.2/MSDK/wpa_supplicant/src/tls\asn1.h **** #define ASN1_TAG_OCTETSTRING	0x04
  17:C:/Users/stapi/OneDrive/Desktop/GD32VW553/V1_MQTT_OK/GD32VW55X_Wifi_BLE_SDK/GD32VW55x_RELEASE_V1.0.2/MSDK/wpa_supplicant/src/tls\asn1.h **** #define ASN1_TAG_NULL		0x05
  18:C:/Users/stapi/OneDrive/Desktop/GD32VW553/V1_MQTT_OK/GD32VW55X_Wifi_BLE_SDK/GD32VW55x_RELEASE_V1.0.2/MSDK/wpa_supplicant/src/tls\asn1.h **** #define ASN1_TAG_OID		0x06
  19:C:/Users/stapi/OneDrive/Desktop/GD32VW553/V1_MQTT_OK/GD32VW55X_Wifi_BLE_SDK/GD32VW55x_RELEASE_V1.0.2/MSDK/wpa_supplicant/src/tls\asn1.h **** #define ASN1_TAG_OBJECT_DESCRIPTOR	0x07 /* not yet parsed */
  20:C:/Users/stapi/OneDrive/Desktop/GD32VW553/V1_MQTT_OK/GD32VW55X_Wifi_BLE_SDK/GD32VW55x_RELEASE_V1.0.2/MSDK/wpa_supplicant/src/tls\asn1.h **** #define ASN1_TAG_EXTERNAL	0x08 /* not yet parsed */
  21:C:/Users/stapi/OneDrive/Desktop/GD32VW553/V1_MQTT_OK/GD32VW55X_Wifi_BLE_SDK/GD32VW55x_RELEASE_V1.0.2/MSDK/wpa_supplicant/src/tls\asn1.h **** #define ASN1_TAG_REAL		0x09 /* not yet parsed */
  22:C:/Users/stapi/OneDrive/Desktop/GD32VW553/V1_MQTT_OK/GD32VW55X_Wifi_BLE_SDK/GD32VW55x_RELEASE_V1.0.2/MSDK/wpa_supplicant/src/tls\asn1.h **** #define ASN1_TAG_ENUMERATED	0x0A /* not yet parsed */
  23:C:/Users/stapi/OneDrive/Desktop/GD32VW553/V1_MQTT_OK/GD32VW55X_Wifi_BLE_SDK/GD32VW55x_RELEASE_V1.0.2/MSDK/wpa_supplicant/src/tls\asn1.h **** #define ASN1_TAG_EMBEDDED_PDV	0x0B /* not yet parsed */
  24:C:/Users/stapi/OneDrive/Desktop/GD32VW553/V1_MQTT_OK/GD32VW55X_Wifi_BLE_SDK/GD32VW55x_RELEASE_V1.0.2/MSDK/wpa_supplicant/src/tls\asn1.h **** #define ASN1_TAG_UTF8STRING	0x0C /* not yet parsed */
  25:C:/Users/stapi/OneDrive/Desktop/GD32VW553/V1_MQTT_OK/GD32VW55X_Wifi_BLE_SDK/GD32VW55x_RELEASE_V1.0.2/MSDK/wpa_supplicant/src/tls\asn1.h **** #define ANS1_TAG_RELATIVE_OID	0x0D
  26:C:/Users/stapi/OneDrive/Desktop/GD32VW553/V1_MQTT_OK/GD32VW55X_Wifi_BLE_SDK/GD32VW55x_RELEASE_V1.0.2/MSDK/wpa_supplicant/src/tls\asn1.h **** #define ASN1_TAG_TIME		0x0E
  27:C:/Users/stapi/OneDrive/Desktop/GD32VW553/V1_MQTT_OK/GD32VW55X_Wifi_BLE_SDK/GD32VW55x_RELEASE_V1.0.2/MSDK/wpa_supplicant/src/tls\asn1.h **** #define ASN1_TAG_SEQUENCE	0x10 /* shall be constructed */
  28:C:/Users/stapi/OneDrive/Desktop/GD32VW553/V1_MQTT_OK/GD32VW55X_Wifi_BLE_SDK/GD32VW55x_RELEASE_V1.0.2/MSDK/wpa_supplicant/src/tls\asn1.h **** #define ASN1_TAG_SET		0x11
  29:C:/Users/stapi/OneDrive/Desktop/GD32VW553/V1_MQTT_OK/GD32VW55X_Wifi_BLE_SDK/GD32VW55x_RELEASE_V1.0.2/MSDK/wpa_supplicant/src/tls\asn1.h **** #define ASN1_TAG_NUMERICSTRING	0x12 /* not yet parsed */
  30:C:/Users/stapi/OneDrive/Desktop/GD32VW553/V1_MQTT_OK/GD32VW55X_Wifi_BLE_SDK/GD32VW55x_RELEASE_V1.0.2/MSDK/wpa_supplicant/src/tls\asn1.h **** #define ASN1_TAG_PRINTABLESTRING	0x13
  31:C:/Users/stapi/OneDrive/Desktop/GD32VW553/V1_MQTT_OK/GD32VW55X_Wifi_BLE_SDK/GD32VW55x_RELEASE_V1.0.2/MSDK/wpa_supplicant/src/tls\asn1.h **** #define ASN1_TAG_T61STRING	0x14 /* not yet parsed */
  32:C:/Users/stapi/OneDrive/Desktop/GD32VW553/V1_MQTT_OK/GD32VW55X_Wifi_BLE_SDK/GD32VW55x_RELEASE_V1.0.2/MSDK/wpa_supplicant/src/tls\asn1.h **** #define ASN1_TAG_VIDEOTEXSTRING	0x15 /* not yet parsed */
  33:C:/Users/stapi/OneDrive/Desktop/GD32VW553/V1_MQTT_OK/GD32VW55X_Wifi_BLE_SDK/GD32VW55x_RELEASE_V1.0.2/MSDK/wpa_supplicant/src/tls\asn1.h **** #define ASN1_TAG_IA5STRING	0x16
  34:C:/Users/stapi/OneDrive/Desktop/GD32VW553/V1_MQTT_OK/GD32VW55X_Wifi_BLE_SDK/GD32VW55x_RELEASE_V1.0.2/MSDK/wpa_supplicant/src/tls\asn1.h **** #define ASN1_TAG_UTCTIME	0x17
  35:C:/Users/stapi/OneDrive/Desktop/GD32VW553/V1_MQTT_OK/GD32VW55X_Wifi_BLE_SDK/GD32VW55x_RELEASE_V1.0.2/MSDK/wpa_supplicant/src/tls\asn1.h **** #define ASN1_TAG_GENERALIZEDTIME	0x18 /* not yet parsed */
  36:C:/Users/stapi/OneDrive/Desktop/GD32VW553/V1_MQTT_OK/GD32VW55X_Wifi_BLE_SDK/GD32VW55x_RELEASE_V1.0.2/MSDK/wpa_supplicant/src/tls\asn1.h **** #define ASN1_TAG_GRAPHICSTRING	0x19 /* not yet parsed */
  37:C:/Users/stapi/OneDrive/Desktop/GD32VW553/V1_MQTT_OK/GD32VW55X_Wifi_BLE_SDK/GD32VW55x_RELEASE_V1.0.2/MSDK/wpa_supplicant/src/tls\asn1.h **** #define ASN1_TAG_VISIBLESTRING	0x1A
  38:C:/Users/stapi/OneDrive/Desktop/GD32VW553/V1_MQTT_OK/GD32VW55X_Wifi_BLE_SDK/GD32VW55x_RELEASE_V1.0.2/MSDK/wpa_supplicant/src/tls\asn1.h **** #define ASN1_TAG_GENERALSTRING	0x1B /* not yet parsed */
  39:C:/Users/stapi/OneDrive/Desktop/GD32VW553/V1_MQTT_OK/GD32VW55X_Wifi_BLE_SDK/GD32VW55x_RELEASE_V1.0.2/MSDK/wpa_supplicant/src/tls\asn1.h **** #define ASN1_TAG_UNIVERSALSTRING	0x1C /* not yet parsed */
  40:C:/Users/stapi/OneDrive/Desktop/GD32VW553/V1_MQTT_OK/GD32VW55X_Wifi_BLE_SDK/GD32VW55x_RELEASE_V1.0.2/MSDK/wpa_supplicant/src/tls\asn1.h **** #define ASN1_TAG_CHARACTERSTRING	0x1D /* not yet parsed */
  41:C:/Users/stapi/OneDrive/Desktop/GD32VW553/V1_MQTT_OK/GD32VW55X_Wifi_BLE_SDK/GD32VW55x_RELEASE_V1.0.2/MSDK/wpa_supplicant/src/tls\asn1.h **** #define ASN1_TAG_BMPSTRING	0x1E /* not yet parsed */
  42:C:/Users/stapi/OneDrive/Desktop/GD32VW553/V1_MQTT_OK/GD32VW55X_Wifi_BLE_SDK/GD32VW55x_RELEASE_V1.0.2/MSDK/wpa_supplicant/src/tls\asn1.h **** 
  43:C:/Users/stapi/OneDrive/Desktop/GD32VW553/V1_MQTT_OK/GD32VW55X_Wifi_BLE_SDK/GD32VW55x_RELEASE_V1.0.2/MSDK/wpa_supplicant/src/tls\asn1.h **** #define ASN1_CLASS_UNIVERSAL		0
  44:C:/Users/stapi/OneDrive/Desktop/GD32VW553/V1_MQTT_OK/GD32VW55X_Wifi_BLE_SDK/GD32VW55x_RELEASE_V1.0.2/MSDK/wpa_supplicant/src/tls\asn1.h **** #define ASN1_CLASS_APPLICATION		1
  45:C:/Users/stapi/OneDrive/Desktop/GD32VW553/V1_MQTT_OK/GD32VW55X_Wifi_BLE_SDK/GD32VW55x_RELEASE_V1.0.2/MSDK/wpa_supplicant/src/tls\asn1.h **** #define ASN1_CLASS_CONTEXT_SPECIFIC	2
  46:C:/Users/stapi/OneDrive/Desktop/GD32VW553/V1_MQTT_OK/GD32VW55X_Wifi_BLE_SDK/GD32VW55x_RELEASE_V1.0.2/MSDK/wpa_supplicant/src/tls\asn1.h **** #define ASN1_CLASS_PRIVATE		3
  47:C:/Users/stapi/OneDrive/Desktop/GD32VW553/V1_MQTT_OK/GD32VW55X_Wifi_BLE_SDK/GD32VW55x_RELEASE_V1.0.2/MSDK/wpa_supplicant/src/tls\asn1.h **** 
  48:C:/Users/stapi/OneDrive/Desktop/GD32VW553/V1_MQTT_OK/GD32VW55X_Wifi_BLE_SDK/GD32VW55x_RELEASE_V1.0.2/MSDK/wpa_supplicant/src/tls\asn1.h **** 
  49:C:/Users/stapi/OneDrive/Desktop/GD32VW553/V1_MQTT_OK/GD32VW55X_Wifi_BLE_SDK/GD32VW55x_RELEASE_V1.0.2/MSDK/wpa_supplicant/src/tls\asn1.h **** struct asn1_hdr {
  50:C:/Users/stapi/OneDrive/Desktop/GD32VW553/V1_MQTT_OK/GD32VW55X_Wifi_BLE_SDK/GD32VW55x_RELEASE_V1.0.2/MSDK/wpa_supplicant/src/tls\asn1.h **** 	const u8 *payload;
  51:C:/Users/stapi/OneDrive/Desktop/GD32VW553/V1_MQTT_OK/GD32VW55X_Wifi_BLE_SDK/GD32VW55x_RELEASE_V1.0.2/MSDK/wpa_supplicant/src/tls\asn1.h **** 	u8 identifier, class, constructed;
  52:C:/Users/stapi/OneDrive/Desktop/GD32VW553/V1_MQTT_OK/GD32VW55X_Wifi_BLE_SDK/GD32VW55x_RELEASE_V1.0.2/MSDK/wpa_supplicant/src/tls\asn1.h **** 	unsigned int tag, length;
  53:C:/Users/stapi/OneDrive/Desktop/GD32VW553/V1_MQTT_OK/GD32VW55X_Wifi_BLE_SDK/GD32VW55x_RELEASE_V1.0.2/MSDK/wpa_supplicant/src/tls\asn1.h **** };
  54:C:/Users/stapi/OneDrive/Desktop/GD32VW553/V1_MQTT_OK/GD32VW55X_Wifi_BLE_SDK/GD32VW55x_RELEASE_V1.0.2/MSDK/wpa_supplicant/src/tls\asn1.h **** 
  55:C:/Users/stapi/OneDrive/Desktop/GD32VW553/V1_MQTT_OK/GD32VW55X_Wifi_BLE_SDK/GD32VW55x_RELEASE_V1.0.2/MSDK/wpa_supplicant/src/tls\asn1.h **** #define ASN1_MAX_OID_LEN 20
  56:C:/Users/stapi/OneDrive/Desktop/GD32VW553/V1_MQTT_OK/GD32VW55X_Wifi_BLE_SDK/GD32VW55x_RELEASE_V1.0.2/MSDK/wpa_supplicant/src/tls\asn1.h **** struct asn1_oid {
  57:C:/Users/stapi/OneDrive/Desktop/GD32VW553/V1_MQTT_OK/GD32VW55X_Wifi_BLE_SDK/GD32VW55x_RELEASE_V1.0.2/MSDK/wpa_supplicant/src/tls\asn1.h **** 	unsigned long oid[ASN1_MAX_OID_LEN];
  58:C:/Users/stapi/OneDrive/Desktop/GD32VW553/V1_MQTT_OK/GD32VW55X_Wifi_BLE_SDK/GD32VW55x_RELEASE_V1.0.2/MSDK/wpa_supplicant/src/tls\asn1.h **** 	size_t len;
  59:C:/Users/stapi/OneDrive/Desktop/GD32VW553/V1_MQTT_OK/GD32VW55X_Wifi_BLE_SDK/GD32VW55x_RELEASE_V1.0.2/MSDK/wpa_supplicant/src/tls\asn1.h **** };
  60:C:/Users/stapi/OneDrive/Desktop/GD32VW553/V1_MQTT_OK/GD32VW55X_Wifi_BLE_SDK/GD32VW55x_RELEASE_V1.0.2/MSDK/wpa_supplicant/src/tls\asn1.h **** 
  61:C:/Users/stapi/OneDrive/Desktop/GD32VW553/V1_MQTT_OK/GD32VW55X_Wifi_BLE_SDK/GD32VW55x_RELEASE_V1.0.2/MSDK/wpa_supplicant/src/tls\asn1.h **** 
  62:C:/Users/stapi/OneDrive/Desktop/GD32VW553/V1_MQTT_OK/GD32VW55X_Wifi_BLE_SDK/GD32VW55x_RELEASE_V1.0.2/MSDK/wpa_supplicant/src/tls\asn1.h **** int asn1_get_next(const u8 *buf, size_t len, struct asn1_hdr *hdr);
  63:C:/Users/stapi/OneDrive/Desktop/GD32VW553/V1_MQTT_OK/GD32VW55X_Wifi_BLE_SDK/GD32VW55x_RELEASE_V1.0.2/MSDK/wpa_supplicant/src/tls\asn1.h **** void asn1_print_hdr(const struct asn1_hdr *hdr, const char *title);
  64:C:/Users/stapi/OneDrive/Desktop/GD32VW553/V1_MQTT_OK/GD32VW55X_Wifi_BLE_SDK/GD32VW55x_RELEASE_V1.0.2/MSDK/wpa_supplicant/src/tls\asn1.h **** void asn1_unexpected(const struct asn1_hdr *hdr, const char *title);
  65:C:/Users/stapi/OneDrive/Desktop/GD32VW553/V1_MQTT_OK/GD32VW55X_Wifi_BLE_SDK/GD32VW55x_RELEASE_V1.0.2/MSDK/wpa_supplicant/src/tls\asn1.h **** int asn1_parse_oid(const u8 *buf, size_t len, struct asn1_oid *oid);
  66:C:/Users/stapi/OneDrive/Desktop/GD32VW553/V1_MQTT_OK/GD32VW55X_Wifi_BLE_SDK/GD32VW55x_RELEASE_V1.0.2/MSDK/wpa_supplicant/src/tls\asn1.h **** int asn1_get_oid(const u8 *buf, size_t len, struct asn1_oid *oid,
  67:C:/Users/stapi/OneDrive/Desktop/GD32VW553/V1_MQTT_OK/GD32VW55X_Wifi_BLE_SDK/GD32VW55x_RELEASE_V1.0.2/MSDK/wpa_supplicant/src/tls\asn1.h **** 		 const u8 **next);
  68:C:/Users/stapi/OneDrive/Desktop/GD32VW553/V1_MQTT_OK/GD32VW55X_Wifi_BLE_SDK/GD32VW55x_RELEASE_V1.0.2/MSDK/wpa_supplicant/src/tls\asn1.h **** void asn1_oid_to_str(const struct asn1_oid *oid, char *buf, size_t len);
  69:C:/Users/stapi/OneDrive/Desktop/GD32VW553/V1_MQTT_OK/GD32VW55X_Wifi_BLE_SDK/GD32VW55x_RELEASE_V1.0.2/MSDK/wpa_supplicant/src/tls\asn1.h **** unsigned long asn1_bit_string_to_long(const u8 *buf, size_t len);
  70:C:/Users/stapi/OneDrive/Desktop/GD32VW553/V1_MQTT_OK/GD32VW55X_Wifi_BLE_SDK/GD32VW55x_RELEASE_V1.0.2/MSDK/wpa_supplicant/src/tls\asn1.h **** int asn1_oid_equal(const struct asn1_oid *a, const struct asn1_oid *b);
  71:C:/Users/stapi/OneDrive/Desktop/GD32VW553/V1_MQTT_OK/GD32VW55X_Wifi_BLE_SDK/GD32VW55x_RELEASE_V1.0.2/MSDK/wpa_supplicant/src/tls\asn1.h **** int asn1_get_integer(const u8 *buf, size_t len, int *integer, const u8 **next);
  72:C:/Users/stapi/OneDrive/Desktop/GD32VW553/V1_MQTT_OK/GD32VW55X_Wifi_BLE_SDK/GD32VW55x_RELEASE_V1.0.2/MSDK/wpa_supplicant/src/tls\asn1.h **** int asn1_get_sequence(const u8 *buf, size_t len, struct asn1_hdr *hdr,
  73:C:/Users/stapi/OneDrive/Desktop/GD32VW553/V1_MQTT_OK/GD32VW55X_Wifi_BLE_SDK/GD32VW55x_RELEASE_V1.0.2/MSDK/wpa_supplicant/src/tls\asn1.h **** 		      const u8 **next);
  74:C:/Users/stapi/OneDrive/Desktop/GD32VW553/V1_MQTT_OK/GD32VW55X_Wifi_BLE_SDK/GD32VW55x_RELEASE_V1.0.2/MSDK/wpa_supplicant/src/tls\asn1.h **** int asn1_get_alg_id(const u8 *buf, size_t len, struct asn1_oid *oid,
  75:C:/Users/stapi/OneDrive/Desktop/GD32VW553/V1_MQTT_OK/GD32VW55X_Wifi_BLE_SDK/GD32VW55x_RELEASE_V1.0.2/MSDK/wpa_supplicant/src/tls\asn1.h **** 		    const u8 **params, size_t *params_len, const u8 **next);
  76:C:/Users/stapi/OneDrive/Desktop/GD32VW553/V1_MQTT_OK/GD32VW55X_Wifi_BLE_SDK/GD32VW55x_RELEASE_V1.0.2/MSDK/wpa_supplicant/src/tls\asn1.h **** void asn1_put_integer(struct wpabuf *buf, int val);
  77:C:/Users/stapi/OneDrive/Desktop/GD32VW553/V1_MQTT_OK/GD32VW55X_Wifi_BLE_SDK/GD32VW55x_RELEASE_V1.0.2/MSDK/wpa_supplicant/src/tls\asn1.h **** void asn1_put_octet_string(struct wpabuf *buf, const struct wpabuf *val);
  78:C:/Users/stapi/OneDrive/Desktop/GD32VW553/V1_MQTT_OK/GD32VW55X_Wifi_BLE_SDK/GD32VW55x_RELEASE_V1.0.2/MSDK/wpa_supplicant/src/tls\asn1.h **** void asn1_put_oid(struct wpabuf *buf, const struct asn1_oid *oid);
  79:C:/Users/stapi/OneDrive/Desktop/GD32VW553/V1_MQTT_OK/GD32VW55X_Wifi_BLE_SDK/GD32VW55x_RELEASE_V1.0.2/MSDK/wpa_supplicant/src/tls\asn1.h **** void asn1_put_hdr(struct wpabuf *buf, u8 class, int constructed, u8 tag,
  80:C:/Users/stapi/OneDrive/Desktop/GD32VW553/V1_MQTT_OK/GD32VW55X_Wifi_BLE_SDK/GD32VW55x_RELEASE_V1.0.2/MSDK/wpa_supplicant/src/tls\asn1.h **** 		  size_t len);
  81:C:/Users/stapi/OneDrive/Desktop/GD32VW553/V1_MQTT_OK/GD32VW55X_Wifi_BLE_SDK/GD32VW55x_RELEASE_V1.0.2/MSDK/wpa_supplicant/src/tls\asn1.h **** void asn1_put_sequence(struct wpabuf *buf, const struct wpabuf *payload);
  82:C:/Users/stapi/OneDrive/Desktop/GD32VW553/V1_MQTT_OK/GD32VW55X_Wifi_BLE_SDK/GD32VW55x_RELEASE_V1.0.2/MSDK/wpa_supplicant/src/tls\asn1.h **** void asn1_put_set(struct wpabuf *buf, const struct wpabuf *payload);
  83:C:/Users/stapi/OneDrive/Desktop/GD32VW553/V1_MQTT_OK/GD32VW55X_Wifi_BLE_SDK/GD32VW55x_RELEASE_V1.0.2/MSDK/wpa_supplicant/src/tls\asn1.h **** void asn1_put_utf8string(struct wpabuf *buf, const char *val);
  84:C:/Users/stapi/OneDrive/Desktop/GD32VW553/V1_MQTT_OK/GD32VW55X_Wifi_BLE_SDK/GD32VW55x_RELEASE_V1.0.2/MSDK/wpa_supplicant/src/tls\asn1.h **** struct wpabuf * asn1_build_alg_id(const struct asn1_oid *oid,
  85:C:/Users/stapi/OneDrive/Desktop/GD32VW553/V1_MQTT_OK/GD32VW55X_Wifi_BLE_SDK/GD32VW55x_RELEASE_V1.0.2/MSDK/wpa_supplicant/src/tls\asn1.h **** 				  const struct wpabuf *params);
  86:C:/Users/stapi/OneDrive/Desktop/GD32VW553/V1_MQTT_OK/GD32VW55X_Wifi_BLE_SDK/GD32VW55x_RELEASE_V1.0.2/MSDK/wpa_supplicant/src/tls\asn1.h **** struct wpabuf * asn1_encaps(struct wpabuf *buf, u8 class, u8 tag);
  87:C:/Users/stapi/OneDrive/Desktop/GD32VW553/V1_MQTT_OK/GD32VW55X_Wifi_BLE_SDK/GD32VW55x_RELEASE_V1.0.2/MSDK/wpa_supplicant/src/tls\asn1.h **** 
  88:C:/Users/stapi/OneDrive/Desktop/GD32VW553/V1_MQTT_OK/GD32VW55X_Wifi_BLE_SDK/GD32VW55x_RELEASE_V1.0.2/MSDK/wpa_supplicant/src/tls\asn1.h **** static inline bool asn1_is_oid(const struct asn1_hdr *hdr)
  89:C:/Users/stapi/OneDrive/Desktop/GD32VW553/V1_MQTT_OK/GD32VW55X_Wifi_BLE_SDK/GD32VW55x_RELEASE_V1.0.2/MSDK/wpa_supplicant/src/tls\asn1.h **** {
  90:C:/Users/stapi/OneDrive/Desktop/GD32VW553/V1_MQTT_OK/GD32VW55X_Wifi_BLE_SDK/GD32VW55x_RELEASE_V1.0.2/MSDK/wpa_supplicant/src/tls\asn1.h **** 	return hdr->class == ASN1_CLASS_UNIVERSAL &&
  91:C:/Users/stapi/OneDrive/Desktop/GD32VW553/V1_MQTT_OK/GD32VW55X_Wifi_BLE_SDK/GD32VW55x_RELEASE_V1.0.2/MSDK/wpa_supplicant/src/tls\asn1.h **** 		hdr->tag == ASN1_TAG_OID;
  92:C:/Users/stapi/OneDrive/Desktop/GD32VW553/V1_MQTT_OK/GD32VW55X_Wifi_BLE_SDK/GD32VW55x_RELEASE_V1.0.2/MSDK/wpa_supplicant/src/tls\asn1.h **** }
  93:C:/Users/stapi/OneDrive/Desktop/GD32VW553/V1_MQTT_OK/GD32VW55X_Wifi_BLE_SDK/GD32VW55x_RELEASE_V1.0.2/MSDK/wpa_supplicant/src/tls\asn1.h **** 
  94:C:/Users/stapi/OneDrive/Desktop/GD32VW553/V1_MQTT_OK/GD32VW55X_Wifi_BLE_SDK/GD32VW55x_RELEASE_V1.0.2/MSDK/wpa_supplicant/src/tls\asn1.h **** static inline bool asn1_is_boolean(const struct asn1_hdr *hdr)
  95:C:/Users/stapi/OneDrive/Desktop/GD32VW553/V1_MQTT_OK/GD32VW55X_Wifi_BLE_SDK/GD32VW55x_RELEASE_V1.0.2/MSDK/wpa_supplicant/src/tls\asn1.h **** {
  96:C:/Users/stapi/OneDrive/Desktop/GD32VW553/V1_MQTT_OK/GD32VW55X_Wifi_BLE_SDK/GD32VW55x_RELEASE_V1.0.2/MSDK/wpa_supplicant/src/tls\asn1.h **** 	return hdr->class == ASN1_CLASS_UNIVERSAL &&
  97:C:/Users/stapi/OneDrive/Desktop/GD32VW553/V1_MQTT_OK/GD32VW55X_Wifi_BLE_SDK/GD32VW55x_RELEASE_V1.0.2/MSDK/wpa_supplicant/src/tls\asn1.h **** 		hdr->tag == ASN1_TAG_BOOLEAN;
  98:C:/Users/stapi/OneDrive/Desktop/GD32VW553/V1_MQTT_OK/GD32VW55X_Wifi_BLE_SDK/GD32VW55x_RELEASE_V1.0.2/MSDK/wpa_supplicant/src/tls\asn1.h **** }
  99:C:/Users/stapi/OneDrive/Desktop/GD32VW553/V1_MQTT_OK/GD32VW55X_Wifi_BLE_SDK/GD32VW55x_RELEASE_V1.0.2/MSDK/wpa_supplicant/src/tls\asn1.h **** 
 100:C:/Users/stapi/OneDrive/Desktop/GD32VW553/V1_MQTT_OK/GD32VW55X_Wifi_BLE_SDK/GD32VW55x_RELEASE_V1.0.2/MSDK/wpa_supplicant/src/tls\asn1.h **** static inline bool asn1_is_integer(const struct asn1_hdr *hdr)
 101:C:/Users/stapi/OneDrive/Desktop/GD32VW553/V1_MQTT_OK/GD32VW55X_Wifi_BLE_SDK/GD32VW55x_RELEASE_V1.0.2/MSDK/wpa_supplicant/src/tls\asn1.h **** {
 102:C:/Users/stapi/OneDrive/Desktop/GD32VW553/V1_MQTT_OK/GD32VW55X_Wifi_BLE_SDK/GD32VW55x_RELEASE_V1.0.2/MSDK/wpa_supplicant/src/tls\asn1.h **** 	return hdr->class == ASN1_CLASS_UNIVERSAL &&
  51              		.loc 2 102 2 is_stmt 1
  52              		.loc 2 102 44 is_stmt 0
  53 001e 83475100 		lbu	a5,5(sp)
  54 0022 85EB     		bne	a5,zero,.L3
  55 0024 2247     		lw	a4,8(sp)
  56 0026 8947     		li	a5,2
  57 0028 6315F702 		bne	a4,a5,.L3
  58              	.LVL5:
  59              	.LBE5:
  60              	.LBE4:
  40:C:/Users/stapi/OneDrive/Desktop/GD32VW553/V1_MQTT_OK/GD32VW55X_Wifi_BLE_SDK/GD32VW55x_RELEASE_V1.0.2/MSDK/wpa_supplicant/src/tls\rsa.c **** 	    !asn1_is_integer(&hdr)) {
  41:C:/Users/stapi/OneDrive/Desktop/GD32VW553/V1_MQTT_OK/GD32VW55X_Wifi_BLE_SDK/GD32VW55x_RELEASE_V1.0.2/MSDK/wpa_supplicant/src/tls\rsa.c **** 		asn1_unexpected(&hdr, "RSA: Expected INTEGER");
  42:C:/Users/stapi/OneDrive/Desktop/GD32VW553/V1_MQTT_OK/GD32VW55X_Wifi_BLE_SDK/GD32VW55x_RELEASE_V1.0.2/MSDK/wpa_supplicant/src/tls\rsa.c **** 		return NULL;
  43:C:/Users/stapi/OneDrive/Desktop/GD32VW553/V1_MQTT_OK/GD32VW55X_Wifi_BLE_SDK/GD32VW55x_RELEASE_V1.0.2/MSDK/wpa_supplicant/src/tls\rsa.c **** 	}
  44:C:/Users/stapi/OneDrive/Desktop/GD32VW553/V1_MQTT_OK/GD32VW55X_Wifi_BLE_SDK/GD32VW55x_RELEASE_V1.0.2/MSDK/wpa_supplicant/src/tls\rsa.c **** 
  45:C:/Users/stapi/OneDrive/Desktop/GD32VW553/V1_MQTT_OK/GD32VW55X_Wifi_BLE_SDK/GD32VW55x_RELEASE_V1.0.2/MSDK/wpa_supplicant/src/tls\rsa.c **** 	if (bignum_set_unsigned_bin(num, hdr.payload, hdr.length) < 0) {
  61              		.loc 1 45 2 is_stmt 1
  62              		.loc 1 45 6 is_stmt 0
  63 002c 3246     		lw	a2,12(sp)
  64 002e 8245     		lw	a1,0(sp)
  65 0030 2285     		mv	a0,s0
  66 0032 97000000 		call	bignum_set_unsigned_bin
  66      E7800000 
  67              	.LVL6:
  68              		.loc 1 45 5
  69 003a 635C0502 		bge	a0,zero,.L9
  46:C:/Users/stapi/OneDrive/Desktop/GD32VW553/V1_MQTT_OK/GD32VW55X_Wifi_BLE_SDK/GD32VW55x_RELEASE_V1.0.2/MSDK/wpa_supplicant/src/tls\rsa.c **** 		wpa_printf(MSG_DEBUG, "RSA: Failed to parse INTEGER");
  70              		.loc 1 46 3 is_stmt 1
  71 003e B7050000 		lui	a1,%hi(.LC1)
  72 0042 93850500 		addi	a1,a1,%lo(.LC1)
  73 0046 0945     		li	a0,2
  74 0048 97000000 		call	wpa_printf
  74      E7800000 
  75              	.LVL7:
  76 0050 11A8     		j	.L14
  77              	.L3:
  41:C:/Users/stapi/OneDrive/Desktop/GD32VW553/V1_MQTT_OK/GD32VW55X_Wifi_BLE_SDK/GD32VW55x_RELEASE_V1.0.2/MSDK/wpa_supplicant/src/tls\rsa.c **** 		return NULL;
  78              		.loc 1 41 3
  79 0052 B7050000 		lui	a1,%hi(.LC0)
  80 0056 93850500 		addi	a1,a1,%lo(.LC0)
  81 005a 0A85     		mv	a0,sp
  82 005c 97000000 		call	asn1_unexpected
  82      E7800000 
  83              	.LVL8:
  42:C:/Users/stapi/OneDrive/Desktop/GD32VW553/V1_MQTT_OK/GD32VW55X_Wifi_BLE_SDK/GD32VW55x_RELEASE_V1.0.2/MSDK/wpa_supplicant/src/tls\rsa.c **** 	}
  84              		.loc 1 42 3
  85              	.L14:
  47:C:/Users/stapi/OneDrive/Desktop/GD32VW553/V1_MQTT_OK/GD32VW55X_Wifi_BLE_SDK/GD32VW55x_RELEASE_V1.0.2/MSDK/wpa_supplicant/src/tls\rsa.c **** 		return NULL;
  86              		.loc 1 47 3
  87              		.loc 1 47 10 is_stmt 0
  88 0064 8147     		li	a5,0
  89              	.L2:
  48:C:/Users/stapi/OneDrive/Desktop/GD32VW553/V1_MQTT_OK/GD32VW55X_Wifi_BLE_SDK/GD32VW55x_RELEASE_V1.0.2/MSDK/wpa_supplicant/src/tls\rsa.c **** 	}
  49:C:/Users/stapi/OneDrive/Desktop/GD32VW553/V1_MQTT_OK/GD32VW55X_Wifi_BLE_SDK/GD32VW55x_RELEASE_V1.0.2/MSDK/wpa_supplicant/src/tls\rsa.c **** 
  50:C:/Users/stapi/OneDrive/Desktop/GD32VW553/V1_MQTT_OK/GD32VW55X_Wifi_BLE_SDK/GD32VW55x_RELEASE_V1.0.2/MSDK/wpa_supplicant/src/tls\rsa.c **** 	return hdr.payload + hdr.length;
  51:C:/Users/stapi/OneDrive/Desktop/GD32VW553/V1_MQTT_OK/GD32VW55X_Wifi_BLE_SDK/GD32VW55x_RELEASE_V1.0.2/MSDK/wpa_supplicant/src/tls\rsa.c **** }
  90              		.loc 1 51 1
  91 0066 3E85     		mv	a0,a5
  92 0068 4101     		addi	sp,sp,16
  93              		.cfi_remember_state
  94              		.cfi_def_cfa_offset 0
  95 006a 17030000 		tail	__riscv_restore_1
  95      67000300 
  96              		.cfi_restore 8
  97              		.cfi_restore 1
  98              		.cfi_def_cfa_offset -16
  99              	.L9:
 100              		.cfi_restore_state
  50:C:/Users/stapi/OneDrive/Desktop/GD32VW553/V1_MQTT_OK/GD32VW55X_Wifi_BLE_SDK/GD32VW55x_RELEASE_V1.0.2/MSDK/wpa_supplicant/src/tls\rsa.c **** }
 101              		.loc 1 50 2 is_stmt 1
  50:C:/Users/stapi/OneDrive/Desktop/GD32VW553/V1_MQTT_OK/GD32VW55X_Wifi_BLE_SDK/GD32VW55x_RELEASE_V1.0.2/MSDK/wpa_supplicant/src/tls\rsa.c **** }
 102              		.loc 1 50 21 is_stmt 0
 103 0072 8247     		lw	a5,0(sp)
 104 0074 3245     		lw	a0,12(sp)
 105 0076 AA97     		add	a5,a5,a0
 106 0078 FDB7     		j	.L2
 107              	.LVL9:
 108              	.L11:
 109              		.cfi_def_cfa_offset 0
 110              		.cfi_restore 1
 111              		.cfi_restore 8
 112              		.loc 1 51 1
 113 007a 8280     		ret
 114              		.cfi_endproc
 115              	.LFE86:
 117              		.section	.text.crypto_rsa_get_modulus_len,"ax",@progbits
 118              		.align	1
 119              		.globl	crypto_rsa_get_modulus_len
 121              	crypto_rsa_get_modulus_len:
 122              	.LFB90:
  52:C:/Users/stapi/OneDrive/Desktop/GD32VW553/V1_MQTT_OK/GD32VW55X_Wifi_BLE_SDK/GD32VW55x_RELEASE_V1.0.2/MSDK/wpa_supplicant/src/tls\rsa.c **** 
  53:C:/Users/stapi/OneDrive/Desktop/GD32VW553/V1_MQTT_OK/GD32VW55X_Wifi_BLE_SDK/GD32VW55x_RELEASE_V1.0.2/MSDK/wpa_supplicant/src/tls\rsa.c **** 
  54:C:/Users/stapi/OneDrive/Desktop/GD32VW553/V1_MQTT_OK/GD32VW55X_Wifi_BLE_SDK/GD32VW55x_RELEASE_V1.0.2/MSDK/wpa_supplicant/src/tls\rsa.c **** /**
  55:C:/Users/stapi/OneDrive/Desktop/GD32VW553/V1_MQTT_OK/GD32VW55X_Wifi_BLE_SDK/GD32VW55x_RELEASE_V1.0.2/MSDK/wpa_supplicant/src/tls\rsa.c ****  * crypto_rsa_import_public_key - Import an RSA public key
  56:C:/Users/stapi/OneDrive/Desktop/GD32VW553/V1_MQTT_OK/GD32VW55X_Wifi_BLE_SDK/GD32VW55x_RELEASE_V1.0.2/MSDK/wpa_supplicant/src/tls\rsa.c ****  * @buf: Key buffer (DER encoded RSA public key)
  57:C:/Users/stapi/OneDrive/Desktop/GD32VW553/V1_MQTT_OK/GD32VW55X_Wifi_BLE_SDK/GD32VW55x_RELEASE_V1.0.2/MSDK/wpa_supplicant/src/tls\rsa.c ****  * @len: Key buffer length in bytes
  58:C:/Users/stapi/OneDrive/Desktop/GD32VW553/V1_MQTT_OK/GD32VW55X_Wifi_BLE_SDK/GD32VW55x_RELEASE_V1.0.2/MSDK/wpa_supplicant/src/tls\rsa.c ****  * Returns: Pointer to the public key or %NULL on failure
  59:C:/Users/stapi/OneDrive/Desktop/GD32VW553/V1_MQTT_OK/GD32VW55X_Wifi_BLE_SDK/GD32VW55x_RELEASE_V1.0.2/MSDK/wpa_supplicant/src/tls\rsa.c ****  */
  60:C:/Users/stapi/OneDrive/Desktop/GD32VW553/V1_MQTT_OK/GD32VW55X_Wifi_BLE_SDK/GD32VW55x_RELEASE_V1.0.2/MSDK/wpa_supplicant/src/tls\rsa.c **** struct crypto_rsa_key *
  61:C:/Users/stapi/OneDrive/Desktop/GD32VW553/V1_MQTT_OK/GD32VW55X_Wifi_BLE_SDK/GD32VW55x_RELEASE_V1.0.2/MSDK/wpa_supplicant/src/tls\rsa.c **** crypto_rsa_import_public_key(const u8 *buf, size_t len)
  62:C:/Users/stapi/OneDrive/Desktop/GD32VW553/V1_MQTT_OK/GD32VW55X_Wifi_BLE_SDK/GD32VW55x_RELEASE_V1.0.2/MSDK/wpa_supplicant/src/tls\rsa.c **** {
  63:C:/Users/stapi/OneDrive/Desktop/GD32VW553/V1_MQTT_OK/GD32VW55X_Wifi_BLE_SDK/GD32VW55x_RELEASE_V1.0.2/MSDK/wpa_supplicant/src/tls\rsa.c **** 	struct crypto_rsa_key *key;
  64:C:/Users/stapi/OneDrive/Desktop/GD32VW553/V1_MQTT_OK/GD32VW55X_Wifi_BLE_SDK/GD32VW55x_RELEASE_V1.0.2/MSDK/wpa_supplicant/src/tls\rsa.c **** 	struct asn1_hdr hdr;
  65:C:/Users/stapi/OneDrive/Desktop/GD32VW553/V1_MQTT_OK/GD32VW55X_Wifi_BLE_SDK/GD32VW55x_RELEASE_V1.0.2/MSDK/wpa_supplicant/src/tls\rsa.c **** 	const u8 *pos, *end;
  66:C:/Users/stapi/OneDrive/Desktop/GD32VW553/V1_MQTT_OK/GD32VW55X_Wifi_BLE_SDK/GD32VW55x_RELEASE_V1.0.2/MSDK/wpa_supplicant/src/tls\rsa.c **** 
  67:C:/Users/stapi/OneDrive/Desktop/GD32VW553/V1_MQTT_OK/GD32VW55X_Wifi_BLE_SDK/GD32VW55x_RELEASE_V1.0.2/MSDK/wpa_supplicant/src/tls\rsa.c **** 	key = os_zalloc(sizeof(*key));
  68:C:/Users/stapi/OneDrive/Desktop/GD32VW553/V1_MQTT_OK/GD32VW55X_Wifi_BLE_SDK/GD32VW55x_RELEASE_V1.0.2/MSDK/wpa_supplicant/src/tls\rsa.c **** 	if (key == NULL)
  69:C:/Users/stapi/OneDrive/Desktop/GD32VW553/V1_MQTT_OK/GD32VW55X_Wifi_BLE_SDK/GD32VW55x_RELEASE_V1.0.2/MSDK/wpa_supplicant/src/tls\rsa.c **** 		return NULL;
  70:C:/Users/stapi/OneDrive/Desktop/GD32VW553/V1_MQTT_OK/GD32VW55X_Wifi_BLE_SDK/GD32VW55x_RELEASE_V1.0.2/MSDK/wpa_supplicant/src/tls\rsa.c **** 
  71:C:/Users/stapi/OneDrive/Desktop/GD32VW553/V1_MQTT_OK/GD32VW55X_Wifi_BLE_SDK/GD32VW55x_RELEASE_V1.0.2/MSDK/wpa_supplicant/src/tls\rsa.c **** 	key->n = bignum_init();
  72:C:/Users/stapi/OneDrive/Desktop/GD32VW553/V1_MQTT_OK/GD32VW55X_Wifi_BLE_SDK/GD32VW55x_RELEASE_V1.0.2/MSDK/wpa_supplicant/src/tls\rsa.c **** 	key->e = bignum_init();
  73:C:/Users/stapi/OneDrive/Desktop/GD32VW553/V1_MQTT_OK/GD32VW55X_Wifi_BLE_SDK/GD32VW55x_RELEASE_V1.0.2/MSDK/wpa_supplicant/src/tls\rsa.c **** 	if (key->n == NULL || key->e == NULL) {
  74:C:/Users/stapi/OneDrive/Desktop/GD32VW553/V1_MQTT_OK/GD32VW55X_Wifi_BLE_SDK/GD32VW55x_RELEASE_V1.0.2/MSDK/wpa_supplicant/src/tls\rsa.c **** 		crypto_rsa_free(key);
  75:C:/Users/stapi/OneDrive/Desktop/GD32VW553/V1_MQTT_OK/GD32VW55X_Wifi_BLE_SDK/GD32VW55x_RELEASE_V1.0.2/MSDK/wpa_supplicant/src/tls\rsa.c **** 		return NULL;
  76:C:/Users/stapi/OneDrive/Desktop/GD32VW553/V1_MQTT_OK/GD32VW55X_Wifi_BLE_SDK/GD32VW55x_RELEASE_V1.0.2/MSDK/wpa_supplicant/src/tls\rsa.c **** 	}
  77:C:/Users/stapi/OneDrive/Desktop/GD32VW553/V1_MQTT_OK/GD32VW55X_Wifi_BLE_SDK/GD32VW55x_RELEASE_V1.0.2/MSDK/wpa_supplicant/src/tls\rsa.c **** 
  78:C:/Users/stapi/OneDrive/Desktop/GD32VW553/V1_MQTT_OK/GD32VW55X_Wifi_BLE_SDK/GD32VW55x_RELEASE_V1.0.2/MSDK/wpa_supplicant/src/tls\rsa.c **** 	/*
  79:C:/Users/stapi/OneDrive/Desktop/GD32VW553/V1_MQTT_OK/GD32VW55X_Wifi_BLE_SDK/GD32VW55x_RELEASE_V1.0.2/MSDK/wpa_supplicant/src/tls\rsa.c **** 	 * PKCS #1, 7.1:
  80:C:/Users/stapi/OneDrive/Desktop/GD32VW553/V1_MQTT_OK/GD32VW55X_Wifi_BLE_SDK/GD32VW55x_RELEASE_V1.0.2/MSDK/wpa_supplicant/src/tls\rsa.c **** 	 * RSAPublicKey ::= SEQUENCE {
  81:C:/Users/stapi/OneDrive/Desktop/GD32VW553/V1_MQTT_OK/GD32VW55X_Wifi_BLE_SDK/GD32VW55x_RELEASE_V1.0.2/MSDK/wpa_supplicant/src/tls\rsa.c **** 	 *     modulus INTEGER, -- n
  82:C:/Users/stapi/OneDrive/Desktop/GD32VW553/V1_MQTT_OK/GD32VW55X_Wifi_BLE_SDK/GD32VW55x_RELEASE_V1.0.2/MSDK/wpa_supplicant/src/tls\rsa.c **** 	 *     publicExponent INTEGER -- e
  83:C:/Users/stapi/OneDrive/Desktop/GD32VW553/V1_MQTT_OK/GD32VW55X_Wifi_BLE_SDK/GD32VW55x_RELEASE_V1.0.2/MSDK/wpa_supplicant/src/tls\rsa.c **** 	 * }
  84:C:/Users/stapi/OneDrive/Desktop/GD32VW553/V1_MQTT_OK/GD32VW55X_Wifi_BLE_SDK/GD32VW55x_RELEASE_V1.0.2/MSDK/wpa_supplicant/src/tls\rsa.c **** 	 */
  85:C:/Users/stapi/OneDrive/Desktop/GD32VW553/V1_MQTT_OK/GD32VW55X_Wifi_BLE_SDK/GD32VW55x_RELEASE_V1.0.2/MSDK/wpa_supplicant/src/tls\rsa.c **** 
  86:C:/Users/stapi/OneDrive/Desktop/GD32VW553/V1_MQTT_OK/GD32VW55X_Wifi_BLE_SDK/GD32VW55x_RELEASE_V1.0.2/MSDK/wpa_supplicant/src/tls\rsa.c **** 	if (asn1_get_next(buf, len, &hdr) < 0 || !asn1_is_sequence(&hdr)) {
  87:C:/Users/stapi/OneDrive/Desktop/GD32VW553/V1_MQTT_OK/GD32VW55X_Wifi_BLE_SDK/GD32VW55x_RELEASE_V1.0.2/MSDK/wpa_supplicant/src/tls\rsa.c **** 		asn1_unexpected(&hdr, "RSA: Expected SEQUENCE (public key)");
  88:C:/Users/stapi/OneDrive/Desktop/GD32VW553/V1_MQTT_OK/GD32VW55X_Wifi_BLE_SDK/GD32VW55x_RELEASE_V1.0.2/MSDK/wpa_supplicant/src/tls\rsa.c **** 		goto error;
  89:C:/Users/stapi/OneDrive/Desktop/GD32VW553/V1_MQTT_OK/GD32VW55X_Wifi_BLE_SDK/GD32VW55x_RELEASE_V1.0.2/MSDK/wpa_supplicant/src/tls\rsa.c **** 	}
  90:C:/Users/stapi/OneDrive/Desktop/GD32VW553/V1_MQTT_OK/GD32VW55X_Wifi_BLE_SDK/GD32VW55x_RELEASE_V1.0.2/MSDK/wpa_supplicant/src/tls\rsa.c **** 	pos = hdr.payload;
  91:C:/Users/stapi/OneDrive/Desktop/GD32VW553/V1_MQTT_OK/GD32VW55X_Wifi_BLE_SDK/GD32VW55x_RELEASE_V1.0.2/MSDK/wpa_supplicant/src/tls\rsa.c **** 	end = pos + hdr.length;
  92:C:/Users/stapi/OneDrive/Desktop/GD32VW553/V1_MQTT_OK/GD32VW55X_Wifi_BLE_SDK/GD32VW55x_RELEASE_V1.0.2/MSDK/wpa_supplicant/src/tls\rsa.c **** 
  93:C:/Users/stapi/OneDrive/Desktop/GD32VW553/V1_MQTT_OK/GD32VW55X_Wifi_BLE_SDK/GD32VW55x_RELEASE_V1.0.2/MSDK/wpa_supplicant/src/tls\rsa.c **** 	pos = crypto_rsa_parse_integer(pos, end, key->n);
  94:C:/Users/stapi/OneDrive/Desktop/GD32VW553/V1_MQTT_OK/GD32VW55X_Wifi_BLE_SDK/GD32VW55x_RELEASE_V1.0.2/MSDK/wpa_supplicant/src/tls\rsa.c **** 	pos = crypto_rsa_parse_integer(pos, end, key->e);
  95:C:/Users/stapi/OneDrive/Desktop/GD32VW553/V1_MQTT_OK/GD32VW55X_Wifi_BLE_SDK/GD32VW55x_RELEASE_V1.0.2/MSDK/wpa_supplicant/src/tls\rsa.c **** 
  96:C:/Users/stapi/OneDrive/Desktop/GD32VW553/V1_MQTT_OK/GD32VW55X_Wifi_BLE_SDK/GD32VW55x_RELEASE_V1.0.2/MSDK/wpa_supplicant/src/tls\rsa.c **** 	if (pos == NULL)
  97:C:/Users/stapi/OneDrive/Desktop/GD32VW553/V1_MQTT_OK/GD32VW55X_Wifi_BLE_SDK/GD32VW55x_RELEASE_V1.0.2/MSDK/wpa_supplicant/src/tls\rsa.c **** 		goto error;
  98:C:/Users/stapi/OneDrive/Desktop/GD32VW553/V1_MQTT_OK/GD32VW55X_Wifi_BLE_SDK/GD32VW55x_RELEASE_V1.0.2/MSDK/wpa_supplicant/src/tls\rsa.c **** 
  99:C:/Users/stapi/OneDrive/Desktop/GD32VW553/V1_MQTT_OK/GD32VW55X_Wifi_BLE_SDK/GD32VW55x_RELEASE_V1.0.2/MSDK/wpa_supplicant/src/tls\rsa.c **** 	if (pos != end) {
 100:C:/Users/stapi/OneDrive/Desktop/GD32VW553/V1_MQTT_OK/GD32VW55X_Wifi_BLE_SDK/GD32VW55x_RELEASE_V1.0.2/MSDK/wpa_supplicant/src/tls\rsa.c **** 		wpa_hexdump(MSG_DEBUG,
 101:C:/Users/stapi/OneDrive/Desktop/GD32VW553/V1_MQTT_OK/GD32VW55X_Wifi_BLE_SDK/GD32VW55x_RELEASE_V1.0.2/MSDK/wpa_supplicant/src/tls\rsa.c **** 			    "RSA: Extra data in public key SEQUENCE",
 102:C:/Users/stapi/OneDrive/Desktop/GD32VW553/V1_MQTT_OK/GD32VW55X_Wifi_BLE_SDK/GD32VW55x_RELEASE_V1.0.2/MSDK/wpa_supplicant/src/tls\rsa.c **** 			    pos, end - pos);
 103:C:/Users/stapi/OneDrive/Desktop/GD32VW553/V1_MQTT_OK/GD32VW55X_Wifi_BLE_SDK/GD32VW55x_RELEASE_V1.0.2/MSDK/wpa_supplicant/src/tls\rsa.c **** 		goto error;
 104:C:/Users/stapi/OneDrive/Desktop/GD32VW553/V1_MQTT_OK/GD32VW55X_Wifi_BLE_SDK/GD32VW55x_RELEASE_V1.0.2/MSDK/wpa_supplicant/src/tls\rsa.c **** 	}
 105:C:/Users/stapi/OneDrive/Desktop/GD32VW553/V1_MQTT_OK/GD32VW55X_Wifi_BLE_SDK/GD32VW55x_RELEASE_V1.0.2/MSDK/wpa_supplicant/src/tls\rsa.c **** 
 106:C:/Users/stapi/OneDrive/Desktop/GD32VW553/V1_MQTT_OK/GD32VW55X_Wifi_BLE_SDK/GD32VW55x_RELEASE_V1.0.2/MSDK/wpa_supplicant/src/tls\rsa.c **** 	return key;
 107:C:/Users/stapi/OneDrive/Desktop/GD32VW553/V1_MQTT_OK/GD32VW55X_Wifi_BLE_SDK/GD32VW55x_RELEASE_V1.0.2/MSDK/wpa_supplicant/src/tls\rsa.c **** 
 108:C:/Users/stapi/OneDrive/Desktop/GD32VW553/V1_MQTT_OK/GD32VW55X_Wifi_BLE_SDK/GD32VW55x_RELEASE_V1.0.2/MSDK/wpa_supplicant/src/tls\rsa.c **** error:
 109:C:/Users/stapi/OneDrive/Desktop/GD32VW553/V1_MQTT_OK/GD32VW55X_Wifi_BLE_SDK/GD32VW55x_RELEASE_V1.0.2/MSDK/wpa_supplicant/src/tls\rsa.c **** 	crypto_rsa_free(key);
 110:C:/Users/stapi/OneDrive/Desktop/GD32VW553/V1_MQTT_OK/GD32VW55X_Wifi_BLE_SDK/GD32VW55x_RELEASE_V1.0.2/MSDK/wpa_supplicant/src/tls\rsa.c **** 	return NULL;
 111:C:/Users/stapi/OneDrive/Desktop/GD32VW553/V1_MQTT_OK/GD32VW55X_Wifi_BLE_SDK/GD32VW55x_RELEASE_V1.0.2/MSDK/wpa_supplicant/src/tls\rsa.c **** }
 112:C:/Users/stapi/OneDrive/Desktop/GD32VW553/V1_MQTT_OK/GD32VW55X_Wifi_BLE_SDK/GD32VW55x_RELEASE_V1.0.2/MSDK/wpa_supplicant/src/tls\rsa.c **** 
 113:C:/Users/stapi/OneDrive/Desktop/GD32VW553/V1_MQTT_OK/GD32VW55X_Wifi_BLE_SDK/GD32VW55x_RELEASE_V1.0.2/MSDK/wpa_supplicant/src/tls\rsa.c **** 
 114:C:/Users/stapi/OneDrive/Desktop/GD32VW553/V1_MQTT_OK/GD32VW55X_Wifi_BLE_SDK/GD32VW55x_RELEASE_V1.0.2/MSDK/wpa_supplicant/src/tls\rsa.c **** struct crypto_rsa_key *
 115:C:/Users/stapi/OneDrive/Desktop/GD32VW553/V1_MQTT_OK/GD32VW55X_Wifi_BLE_SDK/GD32VW55x_RELEASE_V1.0.2/MSDK/wpa_supplicant/src/tls\rsa.c **** crypto_rsa_import_public_key_parts(const u8 *n, size_t n_len,
 116:C:/Users/stapi/OneDrive/Desktop/GD32VW553/V1_MQTT_OK/GD32VW55X_Wifi_BLE_SDK/GD32VW55x_RELEASE_V1.0.2/MSDK/wpa_supplicant/src/tls\rsa.c **** 				   const u8 *e, size_t e_len)
 117:C:/Users/stapi/OneDrive/Desktop/GD32VW553/V1_MQTT_OK/GD32VW55X_Wifi_BLE_SDK/GD32VW55x_RELEASE_V1.0.2/MSDK/wpa_supplicant/src/tls\rsa.c **** {
 118:C:/Users/stapi/OneDrive/Desktop/GD32VW553/V1_MQTT_OK/GD32VW55X_Wifi_BLE_SDK/GD32VW55x_RELEASE_V1.0.2/MSDK/wpa_supplicant/src/tls\rsa.c **** 	struct crypto_rsa_key *key;
 119:C:/Users/stapi/OneDrive/Desktop/GD32VW553/V1_MQTT_OK/GD32VW55X_Wifi_BLE_SDK/GD32VW55x_RELEASE_V1.0.2/MSDK/wpa_supplicant/src/tls\rsa.c **** 
 120:C:/Users/stapi/OneDrive/Desktop/GD32VW553/V1_MQTT_OK/GD32VW55X_Wifi_BLE_SDK/GD32VW55x_RELEASE_V1.0.2/MSDK/wpa_supplicant/src/tls\rsa.c **** 	key = os_zalloc(sizeof(*key));
 121:C:/Users/stapi/OneDrive/Desktop/GD32VW553/V1_MQTT_OK/GD32VW55X_Wifi_BLE_SDK/GD32VW55x_RELEASE_V1.0.2/MSDK/wpa_supplicant/src/tls\rsa.c **** 	if (key == NULL)
 122:C:/Users/stapi/OneDrive/Desktop/GD32VW553/V1_MQTT_OK/GD32VW55X_Wifi_BLE_SDK/GD32VW55x_RELEASE_V1.0.2/MSDK/wpa_supplicant/src/tls\rsa.c **** 		return NULL;
 123:C:/Users/stapi/OneDrive/Desktop/GD32VW553/V1_MQTT_OK/GD32VW55X_Wifi_BLE_SDK/GD32VW55x_RELEASE_V1.0.2/MSDK/wpa_supplicant/src/tls\rsa.c **** 
 124:C:/Users/stapi/OneDrive/Desktop/GD32VW553/V1_MQTT_OK/GD32VW55X_Wifi_BLE_SDK/GD32VW55x_RELEASE_V1.0.2/MSDK/wpa_supplicant/src/tls\rsa.c **** 	key->n = bignum_init();
 125:C:/Users/stapi/OneDrive/Desktop/GD32VW553/V1_MQTT_OK/GD32VW55X_Wifi_BLE_SDK/GD32VW55x_RELEASE_V1.0.2/MSDK/wpa_supplicant/src/tls\rsa.c **** 	key->e = bignum_init();
 126:C:/Users/stapi/OneDrive/Desktop/GD32VW553/V1_MQTT_OK/GD32VW55X_Wifi_BLE_SDK/GD32VW55x_RELEASE_V1.0.2/MSDK/wpa_supplicant/src/tls\rsa.c **** 	if (key->n == NULL || key->e == NULL ||
 127:C:/Users/stapi/OneDrive/Desktop/GD32VW553/V1_MQTT_OK/GD32VW55X_Wifi_BLE_SDK/GD32VW55x_RELEASE_V1.0.2/MSDK/wpa_supplicant/src/tls\rsa.c **** 	    bignum_set_unsigned_bin(key->n, n, n_len) < 0 ||
 128:C:/Users/stapi/OneDrive/Desktop/GD32VW553/V1_MQTT_OK/GD32VW55X_Wifi_BLE_SDK/GD32VW55x_RELEASE_V1.0.2/MSDK/wpa_supplicant/src/tls\rsa.c **** 	    bignum_set_unsigned_bin(key->e, e, e_len) < 0) {
 129:C:/Users/stapi/OneDrive/Desktop/GD32VW553/V1_MQTT_OK/GD32VW55X_Wifi_BLE_SDK/GD32VW55x_RELEASE_V1.0.2/MSDK/wpa_supplicant/src/tls\rsa.c **** 		crypto_rsa_free(key);
 130:C:/Users/stapi/OneDrive/Desktop/GD32VW553/V1_MQTT_OK/GD32VW55X_Wifi_BLE_SDK/GD32VW55x_RELEASE_V1.0.2/MSDK/wpa_supplicant/src/tls\rsa.c **** 		return NULL;
 131:C:/Users/stapi/OneDrive/Desktop/GD32VW553/V1_MQTT_OK/GD32VW55X_Wifi_BLE_SDK/GD32VW55x_RELEASE_V1.0.2/MSDK/wpa_supplicant/src/tls\rsa.c **** 	}
 132:C:/Users/stapi/OneDrive/Desktop/GD32VW553/V1_MQTT_OK/GD32VW55X_Wifi_BLE_SDK/GD32VW55x_RELEASE_V1.0.2/MSDK/wpa_supplicant/src/tls\rsa.c **** 
 133:C:/Users/stapi/OneDrive/Desktop/GD32VW553/V1_MQTT_OK/GD32VW55X_Wifi_BLE_SDK/GD32VW55x_RELEASE_V1.0.2/MSDK/wpa_supplicant/src/tls\rsa.c **** 	return key;
 134:C:/Users/stapi/OneDrive/Desktop/GD32VW553/V1_MQTT_OK/GD32VW55X_Wifi_BLE_SDK/GD32VW55x_RELEASE_V1.0.2/MSDK/wpa_supplicant/src/tls\rsa.c **** }
 135:C:/Users/stapi/OneDrive/Desktop/GD32VW553/V1_MQTT_OK/GD32VW55X_Wifi_BLE_SDK/GD32VW55x_RELEASE_V1.0.2/MSDK/wpa_supplicant/src/tls\rsa.c **** 
 136:C:/Users/stapi/OneDrive/Desktop/GD32VW553/V1_MQTT_OK/GD32VW55X_Wifi_BLE_SDK/GD32VW55x_RELEASE_V1.0.2/MSDK/wpa_supplicant/src/tls\rsa.c **** 
 137:C:/Users/stapi/OneDrive/Desktop/GD32VW553/V1_MQTT_OK/GD32VW55X_Wifi_BLE_SDK/GD32VW55x_RELEASE_V1.0.2/MSDK/wpa_supplicant/src/tls\rsa.c **** /**
 138:C:/Users/stapi/OneDrive/Desktop/GD32VW553/V1_MQTT_OK/GD32VW55X_Wifi_BLE_SDK/GD32VW55x_RELEASE_V1.0.2/MSDK/wpa_supplicant/src/tls\rsa.c ****  * crypto_rsa_import_private_key - Import an RSA private key
 139:C:/Users/stapi/OneDrive/Desktop/GD32VW553/V1_MQTT_OK/GD32VW55X_Wifi_BLE_SDK/GD32VW55x_RELEASE_V1.0.2/MSDK/wpa_supplicant/src/tls\rsa.c ****  * @buf: Key buffer (DER encoded RSA private key)
 140:C:/Users/stapi/OneDrive/Desktop/GD32VW553/V1_MQTT_OK/GD32VW55X_Wifi_BLE_SDK/GD32VW55x_RELEASE_V1.0.2/MSDK/wpa_supplicant/src/tls\rsa.c ****  * @len: Key buffer length in bytes
 141:C:/Users/stapi/OneDrive/Desktop/GD32VW553/V1_MQTT_OK/GD32VW55X_Wifi_BLE_SDK/GD32VW55x_RELEASE_V1.0.2/MSDK/wpa_supplicant/src/tls\rsa.c ****  * Returns: Pointer to the private key or %NULL on failure
 142:C:/Users/stapi/OneDrive/Desktop/GD32VW553/V1_MQTT_OK/GD32VW55X_Wifi_BLE_SDK/GD32VW55x_RELEASE_V1.0.2/MSDK/wpa_supplicant/src/tls\rsa.c ****  */
 143:C:/Users/stapi/OneDrive/Desktop/GD32VW553/V1_MQTT_OK/GD32VW55X_Wifi_BLE_SDK/GD32VW55x_RELEASE_V1.0.2/MSDK/wpa_supplicant/src/tls\rsa.c **** struct crypto_rsa_key *
 144:C:/Users/stapi/OneDrive/Desktop/GD32VW553/V1_MQTT_OK/GD32VW55X_Wifi_BLE_SDK/GD32VW55x_RELEASE_V1.0.2/MSDK/wpa_supplicant/src/tls\rsa.c **** crypto_rsa_import_private_key(const u8 *buf, size_t len)
 145:C:/Users/stapi/OneDrive/Desktop/GD32VW553/V1_MQTT_OK/GD32VW55X_Wifi_BLE_SDK/GD32VW55x_RELEASE_V1.0.2/MSDK/wpa_supplicant/src/tls\rsa.c **** {
 146:C:/Users/stapi/OneDrive/Desktop/GD32VW553/V1_MQTT_OK/GD32VW55X_Wifi_BLE_SDK/GD32VW55x_RELEASE_V1.0.2/MSDK/wpa_supplicant/src/tls\rsa.c **** 	struct crypto_rsa_key *key;
 147:C:/Users/stapi/OneDrive/Desktop/GD32VW553/V1_MQTT_OK/GD32VW55X_Wifi_BLE_SDK/GD32VW55x_RELEASE_V1.0.2/MSDK/wpa_supplicant/src/tls\rsa.c **** 	struct bignum *zero;
 148:C:/Users/stapi/OneDrive/Desktop/GD32VW553/V1_MQTT_OK/GD32VW55X_Wifi_BLE_SDK/GD32VW55x_RELEASE_V1.0.2/MSDK/wpa_supplicant/src/tls\rsa.c **** 	struct asn1_hdr hdr;
 149:C:/Users/stapi/OneDrive/Desktop/GD32VW553/V1_MQTT_OK/GD32VW55X_Wifi_BLE_SDK/GD32VW55x_RELEASE_V1.0.2/MSDK/wpa_supplicant/src/tls\rsa.c **** 	const u8 *pos, *end;
 150:C:/Users/stapi/OneDrive/Desktop/GD32VW553/V1_MQTT_OK/GD32VW55X_Wifi_BLE_SDK/GD32VW55x_RELEASE_V1.0.2/MSDK/wpa_supplicant/src/tls\rsa.c **** 
 151:C:/Users/stapi/OneDrive/Desktop/GD32VW553/V1_MQTT_OK/GD32VW55X_Wifi_BLE_SDK/GD32VW55x_RELEASE_V1.0.2/MSDK/wpa_supplicant/src/tls\rsa.c **** 	key = os_zalloc(sizeof(*key));
 152:C:/Users/stapi/OneDrive/Desktop/GD32VW553/V1_MQTT_OK/GD32VW55X_Wifi_BLE_SDK/GD32VW55x_RELEASE_V1.0.2/MSDK/wpa_supplicant/src/tls\rsa.c **** 	if (key == NULL)
 153:C:/Users/stapi/OneDrive/Desktop/GD32VW553/V1_MQTT_OK/GD32VW55X_Wifi_BLE_SDK/GD32VW55x_RELEASE_V1.0.2/MSDK/wpa_supplicant/src/tls\rsa.c **** 		return NULL;
 154:C:/Users/stapi/OneDrive/Desktop/GD32VW553/V1_MQTT_OK/GD32VW55X_Wifi_BLE_SDK/GD32VW55x_RELEASE_V1.0.2/MSDK/wpa_supplicant/src/tls\rsa.c **** 
 155:C:/Users/stapi/OneDrive/Desktop/GD32VW553/V1_MQTT_OK/GD32VW55X_Wifi_BLE_SDK/GD32VW55x_RELEASE_V1.0.2/MSDK/wpa_supplicant/src/tls\rsa.c **** 	key->private_key = 1;
 156:C:/Users/stapi/OneDrive/Desktop/GD32VW553/V1_MQTT_OK/GD32VW55X_Wifi_BLE_SDK/GD32VW55x_RELEASE_V1.0.2/MSDK/wpa_supplicant/src/tls\rsa.c **** 
 157:C:/Users/stapi/OneDrive/Desktop/GD32VW553/V1_MQTT_OK/GD32VW55X_Wifi_BLE_SDK/GD32VW55x_RELEASE_V1.0.2/MSDK/wpa_supplicant/src/tls\rsa.c **** 	key->n = bignum_init();
 158:C:/Users/stapi/OneDrive/Desktop/GD32VW553/V1_MQTT_OK/GD32VW55X_Wifi_BLE_SDK/GD32VW55x_RELEASE_V1.0.2/MSDK/wpa_supplicant/src/tls\rsa.c **** 	key->e = bignum_init();
 159:C:/Users/stapi/OneDrive/Desktop/GD32VW553/V1_MQTT_OK/GD32VW55X_Wifi_BLE_SDK/GD32VW55x_RELEASE_V1.0.2/MSDK/wpa_supplicant/src/tls\rsa.c **** 	key->d = bignum_init();
 160:C:/Users/stapi/OneDrive/Desktop/GD32VW553/V1_MQTT_OK/GD32VW55X_Wifi_BLE_SDK/GD32VW55x_RELEASE_V1.0.2/MSDK/wpa_supplicant/src/tls\rsa.c **** 	key->p = bignum_init();
 161:C:/Users/stapi/OneDrive/Desktop/GD32VW553/V1_MQTT_OK/GD32VW55X_Wifi_BLE_SDK/GD32VW55x_RELEASE_V1.0.2/MSDK/wpa_supplicant/src/tls\rsa.c **** 	key->q = bignum_init();
 162:C:/Users/stapi/OneDrive/Desktop/GD32VW553/V1_MQTT_OK/GD32VW55X_Wifi_BLE_SDK/GD32VW55x_RELEASE_V1.0.2/MSDK/wpa_supplicant/src/tls\rsa.c **** 	key->dmp1 = bignum_init();
 163:C:/Users/stapi/OneDrive/Desktop/GD32VW553/V1_MQTT_OK/GD32VW55X_Wifi_BLE_SDK/GD32VW55x_RELEASE_V1.0.2/MSDK/wpa_supplicant/src/tls\rsa.c **** 	key->dmq1 = bignum_init();
 164:C:/Users/stapi/OneDrive/Desktop/GD32VW553/V1_MQTT_OK/GD32VW55X_Wifi_BLE_SDK/GD32VW55x_RELEASE_V1.0.2/MSDK/wpa_supplicant/src/tls\rsa.c **** 	key->iqmp = bignum_init();
 165:C:/Users/stapi/OneDrive/Desktop/GD32VW553/V1_MQTT_OK/GD32VW55X_Wifi_BLE_SDK/GD32VW55x_RELEASE_V1.0.2/MSDK/wpa_supplicant/src/tls\rsa.c **** 
 166:C:/Users/stapi/OneDrive/Desktop/GD32VW553/V1_MQTT_OK/GD32VW55X_Wifi_BLE_SDK/GD32VW55x_RELEASE_V1.0.2/MSDK/wpa_supplicant/src/tls\rsa.c **** 	if (key->n == NULL || key->e == NULL || key->d == NULL ||
 167:C:/Users/stapi/OneDrive/Desktop/GD32VW553/V1_MQTT_OK/GD32VW55X_Wifi_BLE_SDK/GD32VW55x_RELEASE_V1.0.2/MSDK/wpa_supplicant/src/tls\rsa.c **** 	    key->p == NULL || key->q == NULL || key->dmp1 == NULL ||
 168:C:/Users/stapi/OneDrive/Desktop/GD32VW553/V1_MQTT_OK/GD32VW55X_Wifi_BLE_SDK/GD32VW55x_RELEASE_V1.0.2/MSDK/wpa_supplicant/src/tls\rsa.c **** 	    key->dmq1 == NULL || key->iqmp == NULL) {
 169:C:/Users/stapi/OneDrive/Desktop/GD32VW553/V1_MQTT_OK/GD32VW55X_Wifi_BLE_SDK/GD32VW55x_RELEASE_V1.0.2/MSDK/wpa_supplicant/src/tls\rsa.c **** 		crypto_rsa_free(key);
 170:C:/Users/stapi/OneDrive/Desktop/GD32VW553/V1_MQTT_OK/GD32VW55X_Wifi_BLE_SDK/GD32VW55x_RELEASE_V1.0.2/MSDK/wpa_supplicant/src/tls\rsa.c **** 		return NULL;
 171:C:/Users/stapi/OneDrive/Desktop/GD32VW553/V1_MQTT_OK/GD32VW55X_Wifi_BLE_SDK/GD32VW55x_RELEASE_V1.0.2/MSDK/wpa_supplicant/src/tls\rsa.c **** 	}
 172:C:/Users/stapi/OneDrive/Desktop/GD32VW553/V1_MQTT_OK/GD32VW55X_Wifi_BLE_SDK/GD32VW55x_RELEASE_V1.0.2/MSDK/wpa_supplicant/src/tls\rsa.c **** 
 173:C:/Users/stapi/OneDrive/Desktop/GD32VW553/V1_MQTT_OK/GD32VW55X_Wifi_BLE_SDK/GD32VW55x_RELEASE_V1.0.2/MSDK/wpa_supplicant/src/tls\rsa.c **** 	/*
 174:C:/Users/stapi/OneDrive/Desktop/GD32VW553/V1_MQTT_OK/GD32VW55X_Wifi_BLE_SDK/GD32VW55x_RELEASE_V1.0.2/MSDK/wpa_supplicant/src/tls\rsa.c **** 	 * PKCS #1, 7.2:
 175:C:/Users/stapi/OneDrive/Desktop/GD32VW553/V1_MQTT_OK/GD32VW55X_Wifi_BLE_SDK/GD32VW55x_RELEASE_V1.0.2/MSDK/wpa_supplicant/src/tls\rsa.c **** 	 * RSAPrivateKey ::= SEQUENCE {
 176:C:/Users/stapi/OneDrive/Desktop/GD32VW553/V1_MQTT_OK/GD32VW55X_Wifi_BLE_SDK/GD32VW55x_RELEASE_V1.0.2/MSDK/wpa_supplicant/src/tls\rsa.c **** 	 *    version Version,
 177:C:/Users/stapi/OneDrive/Desktop/GD32VW553/V1_MQTT_OK/GD32VW55X_Wifi_BLE_SDK/GD32VW55x_RELEASE_V1.0.2/MSDK/wpa_supplicant/src/tls\rsa.c **** 	 *    modulus INTEGER, -- n
 178:C:/Users/stapi/OneDrive/Desktop/GD32VW553/V1_MQTT_OK/GD32VW55X_Wifi_BLE_SDK/GD32VW55x_RELEASE_V1.0.2/MSDK/wpa_supplicant/src/tls\rsa.c **** 	 *    publicExponent INTEGER, -- e
 179:C:/Users/stapi/OneDrive/Desktop/GD32VW553/V1_MQTT_OK/GD32VW55X_Wifi_BLE_SDK/GD32VW55x_RELEASE_V1.0.2/MSDK/wpa_supplicant/src/tls\rsa.c **** 	 *    privateExponent INTEGER, -- d
 180:C:/Users/stapi/OneDrive/Desktop/GD32VW553/V1_MQTT_OK/GD32VW55X_Wifi_BLE_SDK/GD32VW55x_RELEASE_V1.0.2/MSDK/wpa_supplicant/src/tls\rsa.c **** 	 *    prime1 INTEGER, -- p
 181:C:/Users/stapi/OneDrive/Desktop/GD32VW553/V1_MQTT_OK/GD32VW55X_Wifi_BLE_SDK/GD32VW55x_RELEASE_V1.0.2/MSDK/wpa_supplicant/src/tls\rsa.c **** 	 *    prime2 INTEGER, -- q
 182:C:/Users/stapi/OneDrive/Desktop/GD32VW553/V1_MQTT_OK/GD32VW55X_Wifi_BLE_SDK/GD32VW55x_RELEASE_V1.0.2/MSDK/wpa_supplicant/src/tls\rsa.c **** 	 *    exponent1 INTEGER, -- d mod (p-1)
 183:C:/Users/stapi/OneDrive/Desktop/GD32VW553/V1_MQTT_OK/GD32VW55X_Wifi_BLE_SDK/GD32VW55x_RELEASE_V1.0.2/MSDK/wpa_supplicant/src/tls\rsa.c **** 	 *    exponent2 INTEGER, -- d mod (q-1)
 184:C:/Users/stapi/OneDrive/Desktop/GD32VW553/V1_MQTT_OK/GD32VW55X_Wifi_BLE_SDK/GD32VW55x_RELEASE_V1.0.2/MSDK/wpa_supplicant/src/tls\rsa.c **** 	 *    coefficient INTEGER -- (inverse of q) mod p
 185:C:/Users/stapi/OneDrive/Desktop/GD32VW553/V1_MQTT_OK/GD32VW55X_Wifi_BLE_SDK/GD32VW55x_RELEASE_V1.0.2/MSDK/wpa_supplicant/src/tls\rsa.c **** 	 * }
 186:C:/Users/stapi/OneDrive/Desktop/GD32VW553/V1_MQTT_OK/GD32VW55X_Wifi_BLE_SDK/GD32VW55x_RELEASE_V1.0.2/MSDK/wpa_supplicant/src/tls\rsa.c **** 	 *
 187:C:/Users/stapi/OneDrive/Desktop/GD32VW553/V1_MQTT_OK/GD32VW55X_Wifi_BLE_SDK/GD32VW55x_RELEASE_V1.0.2/MSDK/wpa_supplicant/src/tls\rsa.c **** 	 * Version ::= INTEGER -- shall be 0 for this version of the standard
 188:C:/Users/stapi/OneDrive/Desktop/GD32VW553/V1_MQTT_OK/GD32VW55X_Wifi_BLE_SDK/GD32VW55x_RELEASE_V1.0.2/MSDK/wpa_supplicant/src/tls\rsa.c **** 	 */
 189:C:/Users/stapi/OneDrive/Desktop/GD32VW553/V1_MQTT_OK/GD32VW55X_Wifi_BLE_SDK/GD32VW55x_RELEASE_V1.0.2/MSDK/wpa_supplicant/src/tls\rsa.c **** 	if (asn1_get_next(buf, len, &hdr) < 0 || !asn1_is_sequence(&hdr)) {
 190:C:/Users/stapi/OneDrive/Desktop/GD32VW553/V1_MQTT_OK/GD32VW55X_Wifi_BLE_SDK/GD32VW55x_RELEASE_V1.0.2/MSDK/wpa_supplicant/src/tls\rsa.c **** 		asn1_unexpected(&hdr, "RSA: Expected SEQUENCE (public key)");
 191:C:/Users/stapi/OneDrive/Desktop/GD32VW553/V1_MQTT_OK/GD32VW55X_Wifi_BLE_SDK/GD32VW55x_RELEASE_V1.0.2/MSDK/wpa_supplicant/src/tls\rsa.c **** 		goto error;
 192:C:/Users/stapi/OneDrive/Desktop/GD32VW553/V1_MQTT_OK/GD32VW55X_Wifi_BLE_SDK/GD32VW55x_RELEASE_V1.0.2/MSDK/wpa_supplicant/src/tls\rsa.c **** 	}
 193:C:/Users/stapi/OneDrive/Desktop/GD32VW553/V1_MQTT_OK/GD32VW55X_Wifi_BLE_SDK/GD32VW55x_RELEASE_V1.0.2/MSDK/wpa_supplicant/src/tls\rsa.c **** 	pos = hdr.payload;
 194:C:/Users/stapi/OneDrive/Desktop/GD32VW553/V1_MQTT_OK/GD32VW55X_Wifi_BLE_SDK/GD32VW55x_RELEASE_V1.0.2/MSDK/wpa_supplicant/src/tls\rsa.c **** 	end = pos + hdr.length;
 195:C:/Users/stapi/OneDrive/Desktop/GD32VW553/V1_MQTT_OK/GD32VW55X_Wifi_BLE_SDK/GD32VW55x_RELEASE_V1.0.2/MSDK/wpa_supplicant/src/tls\rsa.c **** 
 196:C:/Users/stapi/OneDrive/Desktop/GD32VW553/V1_MQTT_OK/GD32VW55X_Wifi_BLE_SDK/GD32VW55x_RELEASE_V1.0.2/MSDK/wpa_supplicant/src/tls\rsa.c **** 	zero = bignum_init();
 197:C:/Users/stapi/OneDrive/Desktop/GD32VW553/V1_MQTT_OK/GD32VW55X_Wifi_BLE_SDK/GD32VW55x_RELEASE_V1.0.2/MSDK/wpa_supplicant/src/tls\rsa.c **** 	if (zero == NULL)
 198:C:/Users/stapi/OneDrive/Desktop/GD32VW553/V1_MQTT_OK/GD32VW55X_Wifi_BLE_SDK/GD32VW55x_RELEASE_V1.0.2/MSDK/wpa_supplicant/src/tls\rsa.c **** 		goto error;
 199:C:/Users/stapi/OneDrive/Desktop/GD32VW553/V1_MQTT_OK/GD32VW55X_Wifi_BLE_SDK/GD32VW55x_RELEASE_V1.0.2/MSDK/wpa_supplicant/src/tls\rsa.c **** 	pos = crypto_rsa_parse_integer(pos, end, zero);
 200:C:/Users/stapi/OneDrive/Desktop/GD32VW553/V1_MQTT_OK/GD32VW55X_Wifi_BLE_SDK/GD32VW55x_RELEASE_V1.0.2/MSDK/wpa_supplicant/src/tls\rsa.c **** 	if (pos == NULL || bignum_cmp_d(zero, 0) != 0) {
 201:C:/Users/stapi/OneDrive/Desktop/GD32VW553/V1_MQTT_OK/GD32VW55X_Wifi_BLE_SDK/GD32VW55x_RELEASE_V1.0.2/MSDK/wpa_supplicant/src/tls\rsa.c **** 		wpa_printf(MSG_DEBUG, "RSA: Expected zero INTEGER in the "
 202:C:/Users/stapi/OneDrive/Desktop/GD32VW553/V1_MQTT_OK/GD32VW55X_Wifi_BLE_SDK/GD32VW55x_RELEASE_V1.0.2/MSDK/wpa_supplicant/src/tls\rsa.c **** 			   "beginning of private key; not found");
 203:C:/Users/stapi/OneDrive/Desktop/GD32VW553/V1_MQTT_OK/GD32VW55X_Wifi_BLE_SDK/GD32VW55x_RELEASE_V1.0.2/MSDK/wpa_supplicant/src/tls\rsa.c **** 		bignum_deinit(zero);
 204:C:/Users/stapi/OneDrive/Desktop/GD32VW553/V1_MQTT_OK/GD32VW55X_Wifi_BLE_SDK/GD32VW55x_RELEASE_V1.0.2/MSDK/wpa_supplicant/src/tls\rsa.c **** 		goto error;
 205:C:/Users/stapi/OneDrive/Desktop/GD32VW553/V1_MQTT_OK/GD32VW55X_Wifi_BLE_SDK/GD32VW55x_RELEASE_V1.0.2/MSDK/wpa_supplicant/src/tls\rsa.c **** 	}
 206:C:/Users/stapi/OneDrive/Desktop/GD32VW553/V1_MQTT_OK/GD32VW55X_Wifi_BLE_SDK/GD32VW55x_RELEASE_V1.0.2/MSDK/wpa_supplicant/src/tls\rsa.c **** 	bignum_deinit(zero);
 207:C:/Users/stapi/OneDrive/Desktop/GD32VW553/V1_MQTT_OK/GD32VW55X_Wifi_BLE_SDK/GD32VW55x_RELEASE_V1.0.2/MSDK/wpa_supplicant/src/tls\rsa.c **** 
 208:C:/Users/stapi/OneDrive/Desktop/GD32VW553/V1_MQTT_OK/GD32VW55X_Wifi_BLE_SDK/GD32VW55x_RELEASE_V1.0.2/MSDK/wpa_supplicant/src/tls\rsa.c **** 	pos = crypto_rsa_parse_integer(pos, end, key->n);
 209:C:/Users/stapi/OneDrive/Desktop/GD32VW553/V1_MQTT_OK/GD32VW55X_Wifi_BLE_SDK/GD32VW55x_RELEASE_V1.0.2/MSDK/wpa_supplicant/src/tls\rsa.c **** 	pos = crypto_rsa_parse_integer(pos, end, key->e);
 210:C:/Users/stapi/OneDrive/Desktop/GD32VW553/V1_MQTT_OK/GD32VW55X_Wifi_BLE_SDK/GD32VW55x_RELEASE_V1.0.2/MSDK/wpa_supplicant/src/tls\rsa.c **** 	pos = crypto_rsa_parse_integer(pos, end, key->d);
 211:C:/Users/stapi/OneDrive/Desktop/GD32VW553/V1_MQTT_OK/GD32VW55X_Wifi_BLE_SDK/GD32VW55x_RELEASE_V1.0.2/MSDK/wpa_supplicant/src/tls\rsa.c **** 	pos = crypto_rsa_parse_integer(pos, end, key->p);
 212:C:/Users/stapi/OneDrive/Desktop/GD32VW553/V1_MQTT_OK/GD32VW55X_Wifi_BLE_SDK/GD32VW55x_RELEASE_V1.0.2/MSDK/wpa_supplicant/src/tls\rsa.c **** 	pos = crypto_rsa_parse_integer(pos, end, key->q);
 213:C:/Users/stapi/OneDrive/Desktop/GD32VW553/V1_MQTT_OK/GD32VW55X_Wifi_BLE_SDK/GD32VW55x_RELEASE_V1.0.2/MSDK/wpa_supplicant/src/tls\rsa.c **** 	pos = crypto_rsa_parse_integer(pos, end, key->dmp1);
 214:C:/Users/stapi/OneDrive/Desktop/GD32VW553/V1_MQTT_OK/GD32VW55X_Wifi_BLE_SDK/GD32VW55x_RELEASE_V1.0.2/MSDK/wpa_supplicant/src/tls\rsa.c **** 	pos = crypto_rsa_parse_integer(pos, end, key->dmq1);
 215:C:/Users/stapi/OneDrive/Desktop/GD32VW553/V1_MQTT_OK/GD32VW55X_Wifi_BLE_SDK/GD32VW55x_RELEASE_V1.0.2/MSDK/wpa_supplicant/src/tls\rsa.c **** 	pos = crypto_rsa_parse_integer(pos, end, key->iqmp);
 216:C:/Users/stapi/OneDrive/Desktop/GD32VW553/V1_MQTT_OK/GD32VW55X_Wifi_BLE_SDK/GD32VW55x_RELEASE_V1.0.2/MSDK/wpa_supplicant/src/tls\rsa.c **** 
 217:C:/Users/stapi/OneDrive/Desktop/GD32VW553/V1_MQTT_OK/GD32VW55X_Wifi_BLE_SDK/GD32VW55x_RELEASE_V1.0.2/MSDK/wpa_supplicant/src/tls\rsa.c **** 	if (pos == NULL)
 218:C:/Users/stapi/OneDrive/Desktop/GD32VW553/V1_MQTT_OK/GD32VW55X_Wifi_BLE_SDK/GD32VW55x_RELEASE_V1.0.2/MSDK/wpa_supplicant/src/tls\rsa.c **** 		goto error;
 219:C:/Users/stapi/OneDrive/Desktop/GD32VW553/V1_MQTT_OK/GD32VW55X_Wifi_BLE_SDK/GD32VW55x_RELEASE_V1.0.2/MSDK/wpa_supplicant/src/tls\rsa.c **** 
 220:C:/Users/stapi/OneDrive/Desktop/GD32VW553/V1_MQTT_OK/GD32VW55X_Wifi_BLE_SDK/GD32VW55x_RELEASE_V1.0.2/MSDK/wpa_supplicant/src/tls\rsa.c **** 	if (pos != end) {
 221:C:/Users/stapi/OneDrive/Desktop/GD32VW553/V1_MQTT_OK/GD32VW55X_Wifi_BLE_SDK/GD32VW55x_RELEASE_V1.0.2/MSDK/wpa_supplicant/src/tls\rsa.c **** 		wpa_hexdump(MSG_DEBUG,
 222:C:/Users/stapi/OneDrive/Desktop/GD32VW553/V1_MQTT_OK/GD32VW55X_Wifi_BLE_SDK/GD32VW55x_RELEASE_V1.0.2/MSDK/wpa_supplicant/src/tls\rsa.c **** 			    "RSA: Extra data in public key SEQUENCE",
 223:C:/Users/stapi/OneDrive/Desktop/GD32VW553/V1_MQTT_OK/GD32VW55X_Wifi_BLE_SDK/GD32VW55x_RELEASE_V1.0.2/MSDK/wpa_supplicant/src/tls\rsa.c **** 			    pos, end - pos);
 224:C:/Users/stapi/OneDrive/Desktop/GD32VW553/V1_MQTT_OK/GD32VW55X_Wifi_BLE_SDK/GD32VW55x_RELEASE_V1.0.2/MSDK/wpa_supplicant/src/tls\rsa.c **** 		goto error;
 225:C:/Users/stapi/OneDrive/Desktop/GD32VW553/V1_MQTT_OK/GD32VW55X_Wifi_BLE_SDK/GD32VW55x_RELEASE_V1.0.2/MSDK/wpa_supplicant/src/tls\rsa.c **** 	}
 226:C:/Users/stapi/OneDrive/Desktop/GD32VW553/V1_MQTT_OK/GD32VW55X_Wifi_BLE_SDK/GD32VW55x_RELEASE_V1.0.2/MSDK/wpa_supplicant/src/tls\rsa.c **** 
 227:C:/Users/stapi/OneDrive/Desktop/GD32VW553/V1_MQTT_OK/GD32VW55X_Wifi_BLE_SDK/GD32VW55x_RELEASE_V1.0.2/MSDK/wpa_supplicant/src/tls\rsa.c **** 	return key;
 228:C:/Users/stapi/OneDrive/Desktop/GD32VW553/V1_MQTT_OK/GD32VW55X_Wifi_BLE_SDK/GD32VW55x_RELEASE_V1.0.2/MSDK/wpa_supplicant/src/tls\rsa.c **** 
 229:C:/Users/stapi/OneDrive/Desktop/GD32VW553/V1_MQTT_OK/GD32VW55X_Wifi_BLE_SDK/GD32VW55x_RELEASE_V1.0.2/MSDK/wpa_supplicant/src/tls\rsa.c **** error:
 230:C:/Users/stapi/OneDrive/Desktop/GD32VW553/V1_MQTT_OK/GD32VW55X_Wifi_BLE_SDK/GD32VW55x_RELEASE_V1.0.2/MSDK/wpa_supplicant/src/tls\rsa.c **** 	crypto_rsa_free(key);
 231:C:/Users/stapi/OneDrive/Desktop/GD32VW553/V1_MQTT_OK/GD32VW55X_Wifi_BLE_SDK/GD32VW55x_RELEASE_V1.0.2/MSDK/wpa_supplicant/src/tls\rsa.c **** 	return NULL;
 232:C:/Users/stapi/OneDrive/Desktop/GD32VW553/V1_MQTT_OK/GD32VW55X_Wifi_BLE_SDK/GD32VW55x_RELEASE_V1.0.2/MSDK/wpa_supplicant/src/tls\rsa.c **** }
 233:C:/Users/stapi/OneDrive/Desktop/GD32VW553/V1_MQTT_OK/GD32VW55X_Wifi_BLE_SDK/GD32VW55x_RELEASE_V1.0.2/MSDK/wpa_supplicant/src/tls\rsa.c **** 
 234:C:/Users/stapi/OneDrive/Desktop/GD32VW553/V1_MQTT_OK/GD32VW55X_Wifi_BLE_SDK/GD32VW55x_RELEASE_V1.0.2/MSDK/wpa_supplicant/src/tls\rsa.c **** 
 235:C:/Users/stapi/OneDrive/Desktop/GD32VW553/V1_MQTT_OK/GD32VW55X_Wifi_BLE_SDK/GD32VW55x_RELEASE_V1.0.2/MSDK/wpa_supplicant/src/tls\rsa.c **** /**
 236:C:/Users/stapi/OneDrive/Desktop/GD32VW553/V1_MQTT_OK/GD32VW55X_Wifi_BLE_SDK/GD32VW55x_RELEASE_V1.0.2/MSDK/wpa_supplicant/src/tls\rsa.c ****  * crypto_rsa_get_modulus_len - Get the modulus length of the RSA key
 237:C:/Users/stapi/OneDrive/Desktop/GD32VW553/V1_MQTT_OK/GD32VW55X_Wifi_BLE_SDK/GD32VW55x_RELEASE_V1.0.2/MSDK/wpa_supplicant/src/tls\rsa.c ****  * @key: RSA key
 238:C:/Users/stapi/OneDrive/Desktop/GD32VW553/V1_MQTT_OK/GD32VW55X_Wifi_BLE_SDK/GD32VW55x_RELEASE_V1.0.2/MSDK/wpa_supplicant/src/tls\rsa.c ****  * Returns: Modulus length of the key
 239:C:/Users/stapi/OneDrive/Desktop/GD32VW553/V1_MQTT_OK/GD32VW55X_Wifi_BLE_SDK/GD32VW55x_RELEASE_V1.0.2/MSDK/wpa_supplicant/src/tls\rsa.c ****  */
 240:C:/Users/stapi/OneDrive/Desktop/GD32VW553/V1_MQTT_OK/GD32VW55X_Wifi_BLE_SDK/GD32VW55x_RELEASE_V1.0.2/MSDK/wpa_supplicant/src/tls\rsa.c **** size_t crypto_rsa_get_modulus_len(struct crypto_rsa_key *key)
 241:C:/Users/stapi/OneDrive/Desktop/GD32VW553/V1_MQTT_OK/GD32VW55X_Wifi_BLE_SDK/GD32VW55x_RELEASE_V1.0.2/MSDK/wpa_supplicant/src/tls\rsa.c **** {
 123              		.loc 1 241 1 is_stmt 1
 124              		.cfi_startproc
 125              	.LVL10:
 242:C:/Users/stapi/OneDrive/Desktop/GD32VW553/V1_MQTT_OK/GD32VW55X_Wifi_BLE_SDK/GD32VW55x_RELEASE_V1.0.2/MSDK/wpa_supplicant/src/tls\rsa.c **** 	return bignum_get_unsigned_bin_len(key->n);
 126              		.loc 1 242 2
 127              		.loc 1 242 9 is_stmt 0
 128 0000 4841     		lw	a0,4(a0)
 129              	.LVL11:
 130 0002 17030000 		tail	bignum_get_unsigned_bin_len
 130      67000300 
 131              	.LVL12:
 132              		.cfi_endproc
 133              	.LFE90:
 135              		.section	.text.crypto_rsa_exptmod,"ax",@progbits
 136              		.align	1
 137              		.globl	crypto_rsa_exptmod
 139              	crypto_rsa_exptmod:
 140              	.LFB91:
 243:C:/Users/stapi/OneDrive/Desktop/GD32VW553/V1_MQTT_OK/GD32VW55X_Wifi_BLE_SDK/GD32VW55x_RELEASE_V1.0.2/MSDK/wpa_supplicant/src/tls\rsa.c **** }
 244:C:/Users/stapi/OneDrive/Desktop/GD32VW553/V1_MQTT_OK/GD32VW55X_Wifi_BLE_SDK/GD32VW55x_RELEASE_V1.0.2/MSDK/wpa_supplicant/src/tls\rsa.c **** 
 245:C:/Users/stapi/OneDrive/Desktop/GD32VW553/V1_MQTT_OK/GD32VW55X_Wifi_BLE_SDK/GD32VW55x_RELEASE_V1.0.2/MSDK/wpa_supplicant/src/tls\rsa.c **** 
 246:C:/Users/stapi/OneDrive/Desktop/GD32VW553/V1_MQTT_OK/GD32VW55X_Wifi_BLE_SDK/GD32VW55x_RELEASE_V1.0.2/MSDK/wpa_supplicant/src/tls\rsa.c **** /**
 247:C:/Users/stapi/OneDrive/Desktop/GD32VW553/V1_MQTT_OK/GD32VW55X_Wifi_BLE_SDK/GD32VW55x_RELEASE_V1.0.2/MSDK/wpa_supplicant/src/tls\rsa.c ****  * crypto_rsa_exptmod - RSA modular exponentiation
 248:C:/Users/stapi/OneDrive/Desktop/GD32VW553/V1_MQTT_OK/GD32VW55X_Wifi_BLE_SDK/GD32VW55x_RELEASE_V1.0.2/MSDK/wpa_supplicant/src/tls\rsa.c ****  * @in: Input data
 249:C:/Users/stapi/OneDrive/Desktop/GD32VW553/V1_MQTT_OK/GD32VW55X_Wifi_BLE_SDK/GD32VW55x_RELEASE_V1.0.2/MSDK/wpa_supplicant/src/tls\rsa.c ****  * @inlen: Input data length
 250:C:/Users/stapi/OneDrive/Desktop/GD32VW553/V1_MQTT_OK/GD32VW55X_Wifi_BLE_SDK/GD32VW55x_RELEASE_V1.0.2/MSDK/wpa_supplicant/src/tls\rsa.c ****  * @out: Buffer for output data
 251:C:/Users/stapi/OneDrive/Desktop/GD32VW553/V1_MQTT_OK/GD32VW55X_Wifi_BLE_SDK/GD32VW55x_RELEASE_V1.0.2/MSDK/wpa_supplicant/src/tls\rsa.c ****  * @outlen: Maximum size of the output buffer and used size on success
 252:C:/Users/stapi/OneDrive/Desktop/GD32VW553/V1_MQTT_OK/GD32VW55X_Wifi_BLE_SDK/GD32VW55x_RELEASE_V1.0.2/MSDK/wpa_supplicant/src/tls\rsa.c ****  * @key: RSA key
 253:C:/Users/stapi/OneDrive/Desktop/GD32VW553/V1_MQTT_OK/GD32VW55X_Wifi_BLE_SDK/GD32VW55x_RELEASE_V1.0.2/MSDK/wpa_supplicant/src/tls\rsa.c ****  * @use_private: 1 = Use RSA private key, 0 = Use RSA public key
 254:C:/Users/stapi/OneDrive/Desktop/GD32VW553/V1_MQTT_OK/GD32VW55X_Wifi_BLE_SDK/GD32VW55x_RELEASE_V1.0.2/MSDK/wpa_supplicant/src/tls\rsa.c ****  * Returns: 0 on success, -1 on failure
 255:C:/Users/stapi/OneDrive/Desktop/GD32VW553/V1_MQTT_OK/GD32VW55X_Wifi_BLE_SDK/GD32VW55x_RELEASE_V1.0.2/MSDK/wpa_supplicant/src/tls\rsa.c ****  */
 256:C:/Users/stapi/OneDrive/Desktop/GD32VW553/V1_MQTT_OK/GD32VW55X_Wifi_BLE_SDK/GD32VW55x_RELEASE_V1.0.2/MSDK/wpa_supplicant/src/tls\rsa.c **** int crypto_rsa_exptmod(const u8 *in, size_t inlen, u8 *out, size_t *outlen,
 257:C:/Users/stapi/OneDrive/Desktop/GD32VW553/V1_MQTT_OK/GD32VW55X_Wifi_BLE_SDK/GD32VW55x_RELEASE_V1.0.2/MSDK/wpa_supplicant/src/tls\rsa.c **** 		       struct crypto_rsa_key *key, int use_private)
 258:C:/Users/stapi/OneDrive/Desktop/GD32VW553/V1_MQTT_OK/GD32VW55X_Wifi_BLE_SDK/GD32VW55x_RELEASE_V1.0.2/MSDK/wpa_supplicant/src/tls\rsa.c **** {
 141              		.loc 1 258 1 is_stmt 1
 142              		.cfi_startproc
 143              	.LVL13:
 144 0000 17030000 		call	t0,__riscv_save_7
 144      E7020300 
 145              		.cfi_offset 22, -32
 146              		.cfi_offset 21, -28
 147              		.cfi_offset 20, -24
 148              		.cfi_offset 19, -20
 149              		.cfi_offset 18, -16
 150              		.cfi_offset 9, -12
 151              		.cfi_offset 8, -8
 152              		.cfi_offset 1, -4
 153              		.cfi_def_cfa_offset 32
 259:C:/Users/stapi/OneDrive/Desktop/GD32VW553/V1_MQTT_OK/GD32VW55X_Wifi_BLE_SDK/GD32VW55x_RELEASE_V1.0.2/MSDK/wpa_supplicant/src/tls\rsa.c **** 	struct bignum *tmp, *a = NULL, *b = NULL;
 154              		.loc 1 259 2
 155              	.LVL14:
 260:C:/Users/stapi/OneDrive/Desktop/GD32VW553/V1_MQTT_OK/GD32VW55X_Wifi_BLE_SDK/GD32VW55x_RELEASE_V1.0.2/MSDK/wpa_supplicant/src/tls\rsa.c **** 	int ret = -1;
 156              		.loc 1 260 2
 261:C:/Users/stapi/OneDrive/Desktop/GD32VW553/V1_MQTT_OK/GD32VW55X_Wifi_BLE_SDK/GD32VW55x_RELEASE_V1.0.2/MSDK/wpa_supplicant/src/tls\rsa.c **** 	size_t modlen;
 157              		.loc 1 261 2
 262:C:/Users/stapi/OneDrive/Desktop/GD32VW553/V1_MQTT_OK/GD32VW55X_Wifi_BLE_SDK/GD32VW55x_RELEASE_V1.0.2/MSDK/wpa_supplicant/src/tls\rsa.c **** 
 263:C:/Users/stapi/OneDrive/Desktop/GD32VW553/V1_MQTT_OK/GD32VW55X_Wifi_BLE_SDK/GD32VW55x_RELEASE_V1.0.2/MSDK/wpa_supplicant/src/tls\rsa.c **** 	if (use_private && !key->private_key)
 158              		.loc 1 263 2
 258:C:/Users/stapi/OneDrive/Desktop/GD32VW553/V1_MQTT_OK/GD32VW55X_Wifi_BLE_SDK/GD32VW55x_RELEASE_V1.0.2/MSDK/wpa_supplicant/src/tls\rsa.c **** 	struct bignum *tmp, *a = NULL, *b = NULL;
 159              		.loc 1 258 1 is_stmt 0
 160 0008 AA89     		mv	s3,a0
 161 000a 2E8A     		mv	s4,a1
 162 000c 328B     		mv	s6,a2
 163 000e B68A     		mv	s5,a3
 164 0010 BA84     		mv	s1,a4
 165 0012 3E89     		mv	s2,a5
 166              		.loc 1 263 5
 167 0014 89CB     		beq	a5,zero,.L18
 168              		.loc 1 263 18 discriminator 1
 169 0016 1C43     		lw	a5,0(a4)
 170              	.LVL15:
 171 0018 99E7     		bne	a5,zero,.L18
 172              	.LVL16:
 173              	.L20:
 264:C:/Users/stapi/OneDrive/Desktop/GD32VW553/V1_MQTT_OK/GD32VW55X_Wifi_BLE_SDK/GD32VW55x_RELEASE_V1.0.2/MSDK/wpa_supplicant/src/tls\rsa.c **** 		return -1;
 174              		.loc 1 264 10
 175 001a 7D59     		li	s2,-1
 176              	.LVL17:
 177              	.L17:
 265:C:/Users/stapi/OneDrive/Desktop/GD32VW553/V1_MQTT_OK/GD32VW55X_Wifi_BLE_SDK/GD32VW55x_RELEASE_V1.0.2/MSDK/wpa_supplicant/src/tls\rsa.c **** 
 266:C:/Users/stapi/OneDrive/Desktop/GD32VW553/V1_MQTT_OK/GD32VW55X_Wifi_BLE_SDK/GD32VW55x_RELEASE_V1.0.2/MSDK/wpa_supplicant/src/tls\rsa.c **** 	tmp = bignum_init();
 267:C:/Users/stapi/OneDrive/Desktop/GD32VW553/V1_MQTT_OK/GD32VW55X_Wifi_BLE_SDK/GD32VW55x_RELEASE_V1.0.2/MSDK/wpa_supplicant/src/tls\rsa.c **** 	if (tmp == NULL)
 268:C:/Users/stapi/OneDrive/Desktop/GD32VW553/V1_MQTT_OK/GD32VW55X_Wifi_BLE_SDK/GD32VW55x_RELEASE_V1.0.2/MSDK/wpa_supplicant/src/tls\rsa.c **** 		return -1;
 269:C:/Users/stapi/OneDrive/Desktop/GD32VW553/V1_MQTT_OK/GD32VW55X_Wifi_BLE_SDK/GD32VW55x_RELEASE_V1.0.2/MSDK/wpa_supplicant/src/tls\rsa.c **** 
 270:C:/Users/stapi/OneDrive/Desktop/GD32VW553/V1_MQTT_OK/GD32VW55X_Wifi_BLE_SDK/GD32VW55x_RELEASE_V1.0.2/MSDK/wpa_supplicant/src/tls\rsa.c **** 	if (bignum_set_unsigned_bin(tmp, in, inlen) < 0)
 271:C:/Users/stapi/OneDrive/Desktop/GD32VW553/V1_MQTT_OK/GD32VW55X_Wifi_BLE_SDK/GD32VW55x_RELEASE_V1.0.2/MSDK/wpa_supplicant/src/tls\rsa.c **** 		goto error;
 272:C:/Users/stapi/OneDrive/Desktop/GD32VW553/V1_MQTT_OK/GD32VW55X_Wifi_BLE_SDK/GD32VW55x_RELEASE_V1.0.2/MSDK/wpa_supplicant/src/tls\rsa.c **** 	if (bignum_cmp(key->n, tmp) < 0) {
 273:C:/Users/stapi/OneDrive/Desktop/GD32VW553/V1_MQTT_OK/GD32VW55X_Wifi_BLE_SDK/GD32VW55x_RELEASE_V1.0.2/MSDK/wpa_supplicant/src/tls\rsa.c **** 		/* Too large input value for the RSA key modulus */
 274:C:/Users/stapi/OneDrive/Desktop/GD32VW553/V1_MQTT_OK/GD32VW55X_Wifi_BLE_SDK/GD32VW55x_RELEASE_V1.0.2/MSDK/wpa_supplicant/src/tls\rsa.c **** 		goto error;
 275:C:/Users/stapi/OneDrive/Desktop/GD32VW553/V1_MQTT_OK/GD32VW55X_Wifi_BLE_SDK/GD32VW55x_RELEASE_V1.0.2/MSDK/wpa_supplicant/src/tls\rsa.c **** 	}
 276:C:/Users/stapi/OneDrive/Desktop/GD32VW553/V1_MQTT_OK/GD32VW55X_Wifi_BLE_SDK/GD32VW55x_RELEASE_V1.0.2/MSDK/wpa_supplicant/src/tls\rsa.c **** 
 277:C:/Users/stapi/OneDrive/Desktop/GD32VW553/V1_MQTT_OK/GD32VW55X_Wifi_BLE_SDK/GD32VW55x_RELEASE_V1.0.2/MSDK/wpa_supplicant/src/tls\rsa.c **** 	if (use_private) {
 278:C:/Users/stapi/OneDrive/Desktop/GD32VW553/V1_MQTT_OK/GD32VW55X_Wifi_BLE_SDK/GD32VW55x_RELEASE_V1.0.2/MSDK/wpa_supplicant/src/tls\rsa.c **** 		/*
 279:C:/Users/stapi/OneDrive/Desktop/GD32VW553/V1_MQTT_OK/GD32VW55X_Wifi_BLE_SDK/GD32VW55x_RELEASE_V1.0.2/MSDK/wpa_supplicant/src/tls\rsa.c **** 		 * Decrypt (or sign) using Chinese remainder theorem to speed
 280:C:/Users/stapi/OneDrive/Desktop/GD32VW553/V1_MQTT_OK/GD32VW55X_Wifi_BLE_SDK/GD32VW55x_RELEASE_V1.0.2/MSDK/wpa_supplicant/src/tls\rsa.c **** 		 * up calculation. This is equivalent to tmp = tmp^d mod n
 281:C:/Users/stapi/OneDrive/Desktop/GD32VW553/V1_MQTT_OK/GD32VW55X_Wifi_BLE_SDK/GD32VW55x_RELEASE_V1.0.2/MSDK/wpa_supplicant/src/tls\rsa.c **** 		 * (which would require more CPU to calculate directly).
 282:C:/Users/stapi/OneDrive/Desktop/GD32VW553/V1_MQTT_OK/GD32VW55X_Wifi_BLE_SDK/GD32VW55x_RELEASE_V1.0.2/MSDK/wpa_supplicant/src/tls\rsa.c **** 		 *
 283:C:/Users/stapi/OneDrive/Desktop/GD32VW553/V1_MQTT_OK/GD32VW55X_Wifi_BLE_SDK/GD32VW55x_RELEASE_V1.0.2/MSDK/wpa_supplicant/src/tls\rsa.c **** 		 * dmp1 = (1/e) mod (p-1)
 284:C:/Users/stapi/OneDrive/Desktop/GD32VW553/V1_MQTT_OK/GD32VW55X_Wifi_BLE_SDK/GD32VW55x_RELEASE_V1.0.2/MSDK/wpa_supplicant/src/tls\rsa.c **** 		 * dmq1 = (1/e) mod (q-1)
 285:C:/Users/stapi/OneDrive/Desktop/GD32VW553/V1_MQTT_OK/GD32VW55X_Wifi_BLE_SDK/GD32VW55x_RELEASE_V1.0.2/MSDK/wpa_supplicant/src/tls\rsa.c **** 		 * iqmp = (1/q) mod p, where p > q
 286:C:/Users/stapi/OneDrive/Desktop/GD32VW553/V1_MQTT_OK/GD32VW55X_Wifi_BLE_SDK/GD32VW55x_RELEASE_V1.0.2/MSDK/wpa_supplicant/src/tls\rsa.c **** 		 * m1 = c^dmp1 mod p
 287:C:/Users/stapi/OneDrive/Desktop/GD32VW553/V1_MQTT_OK/GD32VW55X_Wifi_BLE_SDK/GD32VW55x_RELEASE_V1.0.2/MSDK/wpa_supplicant/src/tls\rsa.c **** 		 * m2 = c^dmq1 mod q
 288:C:/Users/stapi/OneDrive/Desktop/GD32VW553/V1_MQTT_OK/GD32VW55X_Wifi_BLE_SDK/GD32VW55x_RELEASE_V1.0.2/MSDK/wpa_supplicant/src/tls\rsa.c **** 		 * h = q^-1 (m1 - m2) mod p
 289:C:/Users/stapi/OneDrive/Desktop/GD32VW553/V1_MQTT_OK/GD32VW55X_Wifi_BLE_SDK/GD32VW55x_RELEASE_V1.0.2/MSDK/wpa_supplicant/src/tls\rsa.c **** 		 * m = m2 + hq
 290:C:/Users/stapi/OneDrive/Desktop/GD32VW553/V1_MQTT_OK/GD32VW55X_Wifi_BLE_SDK/GD32VW55x_RELEASE_V1.0.2/MSDK/wpa_supplicant/src/tls\rsa.c **** 		 */
 291:C:/Users/stapi/OneDrive/Desktop/GD32VW553/V1_MQTT_OK/GD32VW55X_Wifi_BLE_SDK/GD32VW55x_RELEASE_V1.0.2/MSDK/wpa_supplicant/src/tls\rsa.c **** 		a = bignum_init();
 292:C:/Users/stapi/OneDrive/Desktop/GD32VW553/V1_MQTT_OK/GD32VW55X_Wifi_BLE_SDK/GD32VW55x_RELEASE_V1.0.2/MSDK/wpa_supplicant/src/tls\rsa.c **** 		b = bignum_init();
 293:C:/Users/stapi/OneDrive/Desktop/GD32VW553/V1_MQTT_OK/GD32VW55X_Wifi_BLE_SDK/GD32VW55x_RELEASE_V1.0.2/MSDK/wpa_supplicant/src/tls\rsa.c **** 		if (a == NULL || b == NULL)
 294:C:/Users/stapi/OneDrive/Desktop/GD32VW553/V1_MQTT_OK/GD32VW55X_Wifi_BLE_SDK/GD32VW55x_RELEASE_V1.0.2/MSDK/wpa_supplicant/src/tls\rsa.c **** 			goto error;
 295:C:/Users/stapi/OneDrive/Desktop/GD32VW553/V1_MQTT_OK/GD32VW55X_Wifi_BLE_SDK/GD32VW55x_RELEASE_V1.0.2/MSDK/wpa_supplicant/src/tls\rsa.c **** 
 296:C:/Users/stapi/OneDrive/Desktop/GD32VW553/V1_MQTT_OK/GD32VW55X_Wifi_BLE_SDK/GD32VW55x_RELEASE_V1.0.2/MSDK/wpa_supplicant/src/tls\rsa.c **** 		/* a = tmp^dmp1 mod p */
 297:C:/Users/stapi/OneDrive/Desktop/GD32VW553/V1_MQTT_OK/GD32VW55X_Wifi_BLE_SDK/GD32VW55x_RELEASE_V1.0.2/MSDK/wpa_supplicant/src/tls\rsa.c **** 		if (bignum_exptmod(tmp, key->dmp1, key->p, a) < 0)
 298:C:/Users/stapi/OneDrive/Desktop/GD32VW553/V1_MQTT_OK/GD32VW55X_Wifi_BLE_SDK/GD32VW55x_RELEASE_V1.0.2/MSDK/wpa_supplicant/src/tls\rsa.c **** 			goto error;
 299:C:/Users/stapi/OneDrive/Desktop/GD32VW553/V1_MQTT_OK/GD32VW55X_Wifi_BLE_SDK/GD32VW55x_RELEASE_V1.0.2/MSDK/wpa_supplicant/src/tls\rsa.c **** 
 300:C:/Users/stapi/OneDrive/Desktop/GD32VW553/V1_MQTT_OK/GD32VW55X_Wifi_BLE_SDK/GD32VW55x_RELEASE_V1.0.2/MSDK/wpa_supplicant/src/tls\rsa.c **** 		/* b = tmp^dmq1 mod q */
 301:C:/Users/stapi/OneDrive/Desktop/GD32VW553/V1_MQTT_OK/GD32VW55X_Wifi_BLE_SDK/GD32VW55x_RELEASE_V1.0.2/MSDK/wpa_supplicant/src/tls\rsa.c **** 		if (bignum_exptmod(tmp, key->dmq1, key->q, b) < 0)
 302:C:/Users/stapi/OneDrive/Desktop/GD32VW553/V1_MQTT_OK/GD32VW55X_Wifi_BLE_SDK/GD32VW55x_RELEASE_V1.0.2/MSDK/wpa_supplicant/src/tls\rsa.c **** 			goto error;
 303:C:/Users/stapi/OneDrive/Desktop/GD32VW553/V1_MQTT_OK/GD32VW55X_Wifi_BLE_SDK/GD32VW55x_RELEASE_V1.0.2/MSDK/wpa_supplicant/src/tls\rsa.c **** 
 304:C:/Users/stapi/OneDrive/Desktop/GD32VW553/V1_MQTT_OK/GD32VW55X_Wifi_BLE_SDK/GD32VW55x_RELEASE_V1.0.2/MSDK/wpa_supplicant/src/tls\rsa.c **** 		/* tmp = (a - b) * (1/q mod p) (mod p) */
 305:C:/Users/stapi/OneDrive/Desktop/GD32VW553/V1_MQTT_OK/GD32VW55X_Wifi_BLE_SDK/GD32VW55x_RELEASE_V1.0.2/MSDK/wpa_supplicant/src/tls\rsa.c **** 		if (bignum_sub(a, b, tmp) < 0 ||
 306:C:/Users/stapi/OneDrive/Desktop/GD32VW553/V1_MQTT_OK/GD32VW55X_Wifi_BLE_SDK/GD32VW55x_RELEASE_V1.0.2/MSDK/wpa_supplicant/src/tls\rsa.c **** 		    bignum_mulmod(tmp, key->iqmp, key->p, tmp) < 0)
 307:C:/Users/stapi/OneDrive/Desktop/GD32VW553/V1_MQTT_OK/GD32VW55X_Wifi_BLE_SDK/GD32VW55x_RELEASE_V1.0.2/MSDK/wpa_supplicant/src/tls\rsa.c **** 			goto error;
 308:C:/Users/stapi/OneDrive/Desktop/GD32VW553/V1_MQTT_OK/GD32VW55X_Wifi_BLE_SDK/GD32VW55x_RELEASE_V1.0.2/MSDK/wpa_supplicant/src/tls\rsa.c **** 
 309:C:/Users/stapi/OneDrive/Desktop/GD32VW553/V1_MQTT_OK/GD32VW55X_Wifi_BLE_SDK/GD32VW55x_RELEASE_V1.0.2/MSDK/wpa_supplicant/src/tls\rsa.c **** 		/* tmp = b + q * tmp */
 310:C:/Users/stapi/OneDrive/Desktop/GD32VW553/V1_MQTT_OK/GD32VW55X_Wifi_BLE_SDK/GD32VW55x_RELEASE_V1.0.2/MSDK/wpa_supplicant/src/tls\rsa.c **** 		if (bignum_mul(tmp, key->q, tmp) < 0 ||
 311:C:/Users/stapi/OneDrive/Desktop/GD32VW553/V1_MQTT_OK/GD32VW55X_Wifi_BLE_SDK/GD32VW55x_RELEASE_V1.0.2/MSDK/wpa_supplicant/src/tls\rsa.c **** 		    bignum_add(tmp, b, tmp) < 0)
 312:C:/Users/stapi/OneDrive/Desktop/GD32VW553/V1_MQTT_OK/GD32VW55X_Wifi_BLE_SDK/GD32VW55x_RELEASE_V1.0.2/MSDK/wpa_supplicant/src/tls\rsa.c **** 			goto error;
 313:C:/Users/stapi/OneDrive/Desktop/GD32VW553/V1_MQTT_OK/GD32VW55X_Wifi_BLE_SDK/GD32VW55x_RELEASE_V1.0.2/MSDK/wpa_supplicant/src/tls\rsa.c **** 	} else {
 314:C:/Users/stapi/OneDrive/Desktop/GD32VW553/V1_MQTT_OK/GD32VW55X_Wifi_BLE_SDK/GD32VW55x_RELEASE_V1.0.2/MSDK/wpa_supplicant/src/tls\rsa.c **** 		/* Encrypt (or verify signature) */
 315:C:/Users/stapi/OneDrive/Desktop/GD32VW553/V1_MQTT_OK/GD32VW55X_Wifi_BLE_SDK/GD32VW55x_RELEASE_V1.0.2/MSDK/wpa_supplicant/src/tls\rsa.c **** 		/* tmp = tmp^e mod N */
 316:C:/Users/stapi/OneDrive/Desktop/GD32VW553/V1_MQTT_OK/GD32VW55X_Wifi_BLE_SDK/GD32VW55x_RELEASE_V1.0.2/MSDK/wpa_supplicant/src/tls\rsa.c **** 		if (bignum_exptmod(tmp, key->e, key->n, tmp) < 0)
 317:C:/Users/stapi/OneDrive/Desktop/GD32VW553/V1_MQTT_OK/GD32VW55X_Wifi_BLE_SDK/GD32VW55x_RELEASE_V1.0.2/MSDK/wpa_supplicant/src/tls\rsa.c **** 			goto error;
 318:C:/Users/stapi/OneDrive/Desktop/GD32VW553/V1_MQTT_OK/GD32VW55X_Wifi_BLE_SDK/GD32VW55x_RELEASE_V1.0.2/MSDK/wpa_supplicant/src/tls\rsa.c **** 	}
 319:C:/Users/stapi/OneDrive/Desktop/GD32VW553/V1_MQTT_OK/GD32VW55X_Wifi_BLE_SDK/GD32VW55x_RELEASE_V1.0.2/MSDK/wpa_supplicant/src/tls\rsa.c **** 
 320:C:/Users/stapi/OneDrive/Desktop/GD32VW553/V1_MQTT_OK/GD32VW55X_Wifi_BLE_SDK/GD32VW55x_RELEASE_V1.0.2/MSDK/wpa_supplicant/src/tls\rsa.c **** 	modlen = crypto_rsa_get_modulus_len(key);
 321:C:/Users/stapi/OneDrive/Desktop/GD32VW553/V1_MQTT_OK/GD32VW55X_Wifi_BLE_SDK/GD32VW55x_RELEASE_V1.0.2/MSDK/wpa_supplicant/src/tls\rsa.c **** 	if (modlen > *outlen) {
 322:C:/Users/stapi/OneDrive/Desktop/GD32VW553/V1_MQTT_OK/GD32VW55X_Wifi_BLE_SDK/GD32VW55x_RELEASE_V1.0.2/MSDK/wpa_supplicant/src/tls\rsa.c **** 		*outlen = modlen;
 323:C:/Users/stapi/OneDrive/Desktop/GD32VW553/V1_MQTT_OK/GD32VW55X_Wifi_BLE_SDK/GD32VW55x_RELEASE_V1.0.2/MSDK/wpa_supplicant/src/tls\rsa.c **** 		goto error;
 324:C:/Users/stapi/OneDrive/Desktop/GD32VW553/V1_MQTT_OK/GD32VW55X_Wifi_BLE_SDK/GD32VW55x_RELEASE_V1.0.2/MSDK/wpa_supplicant/src/tls\rsa.c **** 	}
 325:C:/Users/stapi/OneDrive/Desktop/GD32VW553/V1_MQTT_OK/GD32VW55X_Wifi_BLE_SDK/GD32VW55x_RELEASE_V1.0.2/MSDK/wpa_supplicant/src/tls\rsa.c **** 
 326:C:/Users/stapi/OneDrive/Desktop/GD32VW553/V1_MQTT_OK/GD32VW55X_Wifi_BLE_SDK/GD32VW55x_RELEASE_V1.0.2/MSDK/wpa_supplicant/src/tls\rsa.c **** 	if (bignum_get_unsigned_bin_len(tmp) > modlen)
 327:C:/Users/stapi/OneDrive/Desktop/GD32VW553/V1_MQTT_OK/GD32VW55X_Wifi_BLE_SDK/GD32VW55x_RELEASE_V1.0.2/MSDK/wpa_supplicant/src/tls\rsa.c **** 		goto error; /* should never happen */
 328:C:/Users/stapi/OneDrive/Desktop/GD32VW553/V1_MQTT_OK/GD32VW55X_Wifi_BLE_SDK/GD32VW55x_RELEASE_V1.0.2/MSDK/wpa_supplicant/src/tls\rsa.c **** 
 329:C:/Users/stapi/OneDrive/Desktop/GD32VW553/V1_MQTT_OK/GD32VW55X_Wifi_BLE_SDK/GD32VW55x_RELEASE_V1.0.2/MSDK/wpa_supplicant/src/tls\rsa.c **** 	*outlen = modlen;
 330:C:/Users/stapi/OneDrive/Desktop/GD32VW553/V1_MQTT_OK/GD32VW55X_Wifi_BLE_SDK/GD32VW55x_RELEASE_V1.0.2/MSDK/wpa_supplicant/src/tls\rsa.c **** 	os_memset(out, 0, modlen);
 331:C:/Users/stapi/OneDrive/Desktop/GD32VW553/V1_MQTT_OK/GD32VW55X_Wifi_BLE_SDK/GD32VW55x_RELEASE_V1.0.2/MSDK/wpa_supplicant/src/tls\rsa.c **** 	if (bignum_get_unsigned_bin(
 332:C:/Users/stapi/OneDrive/Desktop/GD32VW553/V1_MQTT_OK/GD32VW55X_Wifi_BLE_SDK/GD32VW55x_RELEASE_V1.0.2/MSDK/wpa_supplicant/src/tls\rsa.c **** 		    tmp, out +
 333:C:/Users/stapi/OneDrive/Desktop/GD32VW553/V1_MQTT_OK/GD32VW55X_Wifi_BLE_SDK/GD32VW55x_RELEASE_V1.0.2/MSDK/wpa_supplicant/src/tls\rsa.c **** 		    (modlen - bignum_get_unsigned_bin_len(tmp)), NULL) < 0)
 334:C:/Users/stapi/OneDrive/Desktop/GD32VW553/V1_MQTT_OK/GD32VW55X_Wifi_BLE_SDK/GD32VW55x_RELEASE_V1.0.2/MSDK/wpa_supplicant/src/tls\rsa.c **** 		goto error;
 335:C:/Users/stapi/OneDrive/Desktop/GD32VW553/V1_MQTT_OK/GD32VW55X_Wifi_BLE_SDK/GD32VW55x_RELEASE_V1.0.2/MSDK/wpa_supplicant/src/tls\rsa.c **** 
 336:C:/Users/stapi/OneDrive/Desktop/GD32VW553/V1_MQTT_OK/GD32VW55X_Wifi_BLE_SDK/GD32VW55x_RELEASE_V1.0.2/MSDK/wpa_supplicant/src/tls\rsa.c **** 	ret = 0;
 337:C:/Users/stapi/OneDrive/Desktop/GD32VW553/V1_MQTT_OK/GD32VW55X_Wifi_BLE_SDK/GD32VW55x_RELEASE_V1.0.2/MSDK/wpa_supplicant/src/tls\rsa.c **** 
 338:C:/Users/stapi/OneDrive/Desktop/GD32VW553/V1_MQTT_OK/GD32VW55X_Wifi_BLE_SDK/GD32VW55x_RELEASE_V1.0.2/MSDK/wpa_supplicant/src/tls\rsa.c **** error:
 339:C:/Users/stapi/OneDrive/Desktop/GD32VW553/V1_MQTT_OK/GD32VW55X_Wifi_BLE_SDK/GD32VW55x_RELEASE_V1.0.2/MSDK/wpa_supplicant/src/tls\rsa.c **** 	bignum_deinit(tmp);
 340:C:/Users/stapi/OneDrive/Desktop/GD32VW553/V1_MQTT_OK/GD32VW55X_Wifi_BLE_SDK/GD32VW55x_RELEASE_V1.0.2/MSDK/wpa_supplicant/src/tls\rsa.c **** 	bignum_deinit(a);
 341:C:/Users/stapi/OneDrive/Desktop/GD32VW553/V1_MQTT_OK/GD32VW55X_Wifi_BLE_SDK/GD32VW55x_RELEASE_V1.0.2/MSDK/wpa_supplicant/src/tls\rsa.c **** 	bignum_deinit(b);
 342:C:/Users/stapi/OneDrive/Desktop/GD32VW553/V1_MQTT_OK/GD32VW55X_Wifi_BLE_SDK/GD32VW55x_RELEASE_V1.0.2/MSDK/wpa_supplicant/src/tls\rsa.c **** 	return ret;
 343:C:/Users/stapi/OneDrive/Desktop/GD32VW553/V1_MQTT_OK/GD32VW55X_Wifi_BLE_SDK/GD32VW55x_RELEASE_V1.0.2/MSDK/wpa_supplicant/src/tls\rsa.c **** }
 178              		.loc 1 343 1
 179 001c 4A85     		mv	a0,s2
 180 001e 17030000 		tail	__riscv_restore_7
 180      67000300 
 181              		.cfi_remember_state
 182              		.cfi_restore 22
 183              		.cfi_restore 21
 184              		.cfi_restore 20
 185              		.cfi_restore 19
 186              		.cfi_restore 18
 187              		.cfi_restore 9
 188              		.cfi_restore 8
 189              		.cfi_restore 1
 190              		.cfi_def_cfa_offset 0
 191              	.LVL18:
 192              	.L18:
 193              		.cfi_restore_state
 266:C:/Users/stapi/OneDrive/Desktop/GD32VW553/V1_MQTT_OK/GD32VW55X_Wifi_BLE_SDK/GD32VW55x_RELEASE_V1.0.2/MSDK/wpa_supplicant/src/tls\rsa.c **** 	if (tmp == NULL)
 194              		.loc 1 266 2 is_stmt 1
 266:C:/Users/stapi/OneDrive/Desktop/GD32VW553/V1_MQTT_OK/GD32VW55X_Wifi_BLE_SDK/GD32VW55x_RELEASE_V1.0.2/MSDK/wpa_supplicant/src/tls\rsa.c **** 	if (tmp == NULL)
 195              		.loc 1 266 8 is_stmt 0
 196 0026 97000000 		call	bignum_init
 196      E7800000 
 197              	.LVL19:
 198 002e 2A84     		mv	s0,a0
 199              	.LVL20:
 267:C:/Users/stapi/OneDrive/Desktop/GD32VW553/V1_MQTT_OK/GD32VW55X_Wifi_BLE_SDK/GD32VW55x_RELEASE_V1.0.2/MSDK/wpa_supplicant/src/tls\rsa.c **** 		return -1;
 200              		.loc 1 267 2 is_stmt 1
 267:C:/Users/stapi/OneDrive/Desktop/GD32VW553/V1_MQTT_OK/GD32VW55X_Wifi_BLE_SDK/GD32VW55x_RELEASE_V1.0.2/MSDK/wpa_supplicant/src/tls\rsa.c **** 		return -1;
 201              		.loc 1 267 5 is_stmt 0
 202 0030 6DD5     		beq	a0,zero,.L20
 270:C:/Users/stapi/OneDrive/Desktop/GD32VW553/V1_MQTT_OK/GD32VW55X_Wifi_BLE_SDK/GD32VW55x_RELEASE_V1.0.2/MSDK/wpa_supplicant/src/tls\rsa.c **** 		goto error;
 203              		.loc 1 270 2 is_stmt 1
 270:C:/Users/stapi/OneDrive/Desktop/GD32VW553/V1_MQTT_OK/GD32VW55X_Wifi_BLE_SDK/GD32VW55x_RELEASE_V1.0.2/MSDK/wpa_supplicant/src/tls\rsa.c **** 		goto error;
 204              		.loc 1 270 6 is_stmt 0
 205 0032 5286     		mv	a2,s4
 206 0034 CE85     		mv	a1,s3
 207 0036 97000000 		call	bignum_set_unsigned_bin
 207      E7800000 
 208              	.LVL21:
 270:C:/Users/stapi/OneDrive/Desktop/GD32VW553/V1_MQTT_OK/GD32VW55X_Wifi_BLE_SDK/GD32VW55x_RELEASE_V1.0.2/MSDK/wpa_supplicant/src/tls\rsa.c **** 		goto error;
 209              		.loc 1 270 5
 210 003e 63550502 		bge	a0,zero,.L21
 211              	.L23:
 260:C:/Users/stapi/OneDrive/Desktop/GD32VW553/V1_MQTT_OK/GD32VW55X_Wifi_BLE_SDK/GD32VW55x_RELEASE_V1.0.2/MSDK/wpa_supplicant/src/tls\rsa.c **** 	size_t modlen;
 212              		.loc 1 260 6
 213 0042 7D59     		li	s2,-1
 214              	.LVL22:
 259:C:/Users/stapi/OneDrive/Desktop/GD32VW553/V1_MQTT_OK/GD32VW55X_Wifi_BLE_SDK/GD32VW55x_RELEASE_V1.0.2/MSDK/wpa_supplicant/src/tls\rsa.c **** 	int ret = -1;
 215              		.loc 1 259 34
 216 0044 8149     		li	s3,0
 217              	.LVL23:
 259:C:/Users/stapi/OneDrive/Desktop/GD32VW553/V1_MQTT_OK/GD32VW55X_Wifi_BLE_SDK/GD32VW55x_RELEASE_V1.0.2/MSDK/wpa_supplicant/src/tls\rsa.c **** 	int ret = -1;
 218              		.loc 1 259 23
 219 0046 014A     		li	s4,0
 220              	.LVL24:
 221              	.L22:
 339:C:/Users/stapi/OneDrive/Desktop/GD32VW553/V1_MQTT_OK/GD32VW55X_Wifi_BLE_SDK/GD32VW55x_RELEASE_V1.0.2/MSDK/wpa_supplicant/src/tls\rsa.c **** 	bignum_deinit(a);
 222              		.loc 1 339 2 is_stmt 1
 223 0048 2285     		mv	a0,s0
 224 004a 97000000 		call	bignum_deinit
 224      E7800000 
 225              	.LVL25:
 340:C:/Users/stapi/OneDrive/Desktop/GD32VW553/V1_MQTT_OK/GD32VW55X_Wifi_BLE_SDK/GD32VW55x_RELEASE_V1.0.2/MSDK/wpa_supplicant/src/tls\rsa.c **** 	bignum_deinit(b);
 226              		.loc 1 340 2
 227 0052 5285     		mv	a0,s4
 228 0054 97000000 		call	bignum_deinit
 228      E7800000 
 229              	.LVL26:
 341:C:/Users/stapi/OneDrive/Desktop/GD32VW553/V1_MQTT_OK/GD32VW55X_Wifi_BLE_SDK/GD32VW55x_RELEASE_V1.0.2/MSDK/wpa_supplicant/src/tls\rsa.c **** 	return ret;
 230              		.loc 1 341 2
 231 005c 4E85     		mv	a0,s3
 232 005e 97000000 		call	bignum_deinit
 232      E7800000 
 233              	.LVL27:
 342:C:/Users/stapi/OneDrive/Desktop/GD32VW553/V1_MQTT_OK/GD32VW55X_Wifi_BLE_SDK/GD32VW55x_RELEASE_V1.0.2/MSDK/wpa_supplicant/src/tls\rsa.c **** }
 234              		.loc 1 342 2
 342:C:/Users/stapi/OneDrive/Desktop/GD32VW553/V1_MQTT_OK/GD32VW55X_Wifi_BLE_SDK/GD32VW55x_RELEASE_V1.0.2/MSDK/wpa_supplicant/src/tls\rsa.c **** }
 235              		.loc 1 342 9 is_stmt 0
 236 0066 5DBF     		j	.L17
 237              	.LVL28:
 238              	.L21:
 272:C:/Users/stapi/OneDrive/Desktop/GD32VW553/V1_MQTT_OK/GD32VW55X_Wifi_BLE_SDK/GD32VW55x_RELEASE_V1.0.2/MSDK/wpa_supplicant/src/tls\rsa.c **** 		/* Too large input value for the RSA key modulus */
 239              		.loc 1 272 2 is_stmt 1
 272:C:/Users/stapi/OneDrive/Desktop/GD32VW553/V1_MQTT_OK/GD32VW55X_Wifi_BLE_SDK/GD32VW55x_RELEASE_V1.0.2/MSDK/wpa_supplicant/src/tls\rsa.c **** 		/* Too large input value for the RSA key modulus */
 240              		.loc 1 272 6 is_stmt 0
 241 0068 C840     		lw	a0,4(s1)
 242 006a A285     		mv	a1,s0
 243 006c 97000000 		call	bignum_cmp
 243      E7800000 
 244              	.LVL29:
 272:C:/Users/stapi/OneDrive/Desktop/GD32VW553/V1_MQTT_OK/GD32VW55X_Wifi_BLE_SDK/GD32VW55x_RELEASE_V1.0.2/MSDK/wpa_supplicant/src/tls\rsa.c **** 		/* Too large input value for the RSA key modulus */
 245              		.loc 1 272 5
 246 0074 E34705FC 		blt	a0,zero,.L23
 277:C:/Users/stapi/OneDrive/Desktop/GD32VW553/V1_MQTT_OK/GD32VW55X_Wifi_BLE_SDK/GD32VW55x_RELEASE_V1.0.2/MSDK/wpa_supplicant/src/tls\rsa.c **** 		/*
 247              		.loc 1 277 2 is_stmt 1
 277:C:/Users/stapi/OneDrive/Desktop/GD32VW553/V1_MQTT_OK/GD32VW55X_Wifi_BLE_SDK/GD32VW55x_RELEASE_V1.0.2/MSDK/wpa_supplicant/src/tls\rsa.c **** 		/*
 248              		.loc 1 277 5 is_stmt 0
 249 0078 6307090A 		beq	s2,zero,.L24
 291:C:/Users/stapi/OneDrive/Desktop/GD32VW553/V1_MQTT_OK/GD32VW55X_Wifi_BLE_SDK/GD32VW55x_RELEASE_V1.0.2/MSDK/wpa_supplicant/src/tls\rsa.c **** 		b = bignum_init();
 250              		.loc 1 291 3 is_stmt 1
 291:C:/Users/stapi/OneDrive/Desktop/GD32VW553/V1_MQTT_OK/GD32VW55X_Wifi_BLE_SDK/GD32VW55x_RELEASE_V1.0.2/MSDK/wpa_supplicant/src/tls\rsa.c **** 		b = bignum_init();
 251              		.loc 1 291 7 is_stmt 0
 252 007c 97000000 		call	bignum_init
 252      E7800000 
 253              	.LVL30:
 254 0084 2A8A     		mv	s4,a0
 255              	.LVL31:
 292:C:/Users/stapi/OneDrive/Desktop/GD32VW553/V1_MQTT_OK/GD32VW55X_Wifi_BLE_SDK/GD32VW55x_RELEASE_V1.0.2/MSDK/wpa_supplicant/src/tls\rsa.c **** 		if (a == NULL || b == NULL)
 256              		.loc 1 292 3 is_stmt 1
 292:C:/Users/stapi/OneDrive/Desktop/GD32VW553/V1_MQTT_OK/GD32VW55X_Wifi_BLE_SDK/GD32VW55x_RELEASE_V1.0.2/MSDK/wpa_supplicant/src/tls\rsa.c **** 		if (a == NULL || b == NULL)
 257              		.loc 1 292 7 is_stmt 0
 258 0086 97000000 		call	bignum_init
 258      E7800000 
 259              	.LVL32:
 260 008e AA89     		mv	s3,a0
 261              	.LVL33:
 293:C:/Users/stapi/OneDrive/Desktop/GD32VW553/V1_MQTT_OK/GD32VW55X_Wifi_BLE_SDK/GD32VW55x_RELEASE_V1.0.2/MSDK/wpa_supplicant/src/tls\rsa.c **** 			goto error;
 262              		.loc 1 293 3 is_stmt 1
 260:C:/Users/stapi/OneDrive/Desktop/GD32VW553/V1_MQTT_OK/GD32VW55X_Wifi_BLE_SDK/GD32VW55x_RELEASE_V1.0.2/MSDK/wpa_supplicant/src/tls\rsa.c **** 	size_t modlen;
 263              		.loc 1 260 6 is_stmt 0
 264 0090 7D59     		li	s2,-1
 265              	.LVL34:
 293:C:/Users/stapi/OneDrive/Desktop/GD32VW553/V1_MQTT_OK/GD32VW55X_Wifi_BLE_SDK/GD32VW55x_RELEASE_V1.0.2/MSDK/wpa_supplicant/src/tls\rsa.c **** 			goto error;
 266              		.loc 1 293 6
 267 0092 E30B0AFA 		beq	s4,zero,.L22
 293:C:/Users/stapi/OneDrive/Desktop/GD32VW553/V1_MQTT_OK/GD32VW55X_Wifi_BLE_SDK/GD32VW55x_RELEASE_V1.0.2/MSDK/wpa_supplicant/src/tls\rsa.c **** 			goto error;
 268              		.loc 1 293 17 discriminator 1
 269 0096 4DD9     		beq	a0,zero,.L22
 297:C:/Users/stapi/OneDrive/Desktop/GD32VW553/V1_MQTT_OK/GD32VW55X_Wifi_BLE_SDK/GD32VW55x_RELEASE_V1.0.2/MSDK/wpa_supplicant/src/tls\rsa.c **** 			goto error;
 270              		.loc 1 297 3 is_stmt 1
 297:C:/Users/stapi/OneDrive/Desktop/GD32VW553/V1_MQTT_OK/GD32VW55X_Wifi_BLE_SDK/GD32VW55x_RELEASE_V1.0.2/MSDK/wpa_supplicant/src/tls\rsa.c **** 			goto error;
 271              		.loc 1 297 7 is_stmt 0
 272 0098 9048     		lw	a2,16(s1)
 273 009a 8C4C     		lw	a1,24(s1)
 274 009c D286     		mv	a3,s4
 275 009e 2285     		mv	a0,s0
 276              	.LVL35:
 277 00a0 97000000 		call	bignum_exptmod
 277      E7800000 
 278              	.LVL36:
 297:C:/Users/stapi/OneDrive/Desktop/GD32VW553/V1_MQTT_OK/GD32VW55X_Wifi_BLE_SDK/GD32VW55x_RELEASE_V1.0.2/MSDK/wpa_supplicant/src/tls\rsa.c **** 			goto error;
 279              		.loc 1 297 6
 280 00a8 E34005FA 		blt	a0,zero,.L22
 301:C:/Users/stapi/OneDrive/Desktop/GD32VW553/V1_MQTT_OK/GD32VW55X_Wifi_BLE_SDK/GD32VW55x_RELEASE_V1.0.2/MSDK/wpa_supplicant/src/tls\rsa.c **** 			goto error;
 281              		.loc 1 301 3 is_stmt 1
 301:C:/Users/stapi/OneDrive/Desktop/GD32VW553/V1_MQTT_OK/GD32VW55X_Wifi_BLE_SDK/GD32VW55x_RELEASE_V1.0.2/MSDK/wpa_supplicant/src/tls\rsa.c **** 			goto error;
 282              		.loc 1 301 7 is_stmt 0
 283 00ac D048     		lw	a2,20(s1)
 284 00ae CC4C     		lw	a1,28(s1)
 285 00b0 CE86     		mv	a3,s3
 286 00b2 2285     		mv	a0,s0
 287 00b4 97000000 		call	bignum_exptmod
 287      E7800000 
 288              	.LVL37:
 301:C:/Users/stapi/OneDrive/Desktop/GD32VW553/V1_MQTT_OK/GD32VW55X_Wifi_BLE_SDK/GD32VW55x_RELEASE_V1.0.2/MSDK/wpa_supplicant/src/tls\rsa.c **** 			goto error;
 289              		.loc 1 301 6
 290 00bc E34605F8 		blt	a0,zero,.L22
 305:C:/Users/stapi/OneDrive/Desktop/GD32VW553/V1_MQTT_OK/GD32VW55X_Wifi_BLE_SDK/GD32VW55x_RELEASE_V1.0.2/MSDK/wpa_supplicant/src/tls\rsa.c **** 		    bignum_mulmod(tmp, key->iqmp, key->p, tmp) < 0)
 291              		.loc 1 305 3 is_stmt 1
 305:C:/Users/stapi/OneDrive/Desktop/GD32VW553/V1_MQTT_OK/GD32VW55X_Wifi_BLE_SDK/GD32VW55x_RELEASE_V1.0.2/MSDK/wpa_supplicant/src/tls\rsa.c **** 		    bignum_mulmod(tmp, key->iqmp, key->p, tmp) < 0)
 292              		.loc 1 305 7 is_stmt 0
 293 00c0 2286     		mv	a2,s0
 294 00c2 CE85     		mv	a1,s3
 295 00c4 5285     		mv	a0,s4
 296 00c6 97000000 		call	bignum_sub
 296      E7800000 
 297              	.LVL38:
 305:C:/Users/stapi/OneDrive/Desktop/GD32VW553/V1_MQTT_OK/GD32VW55X_Wifi_BLE_SDK/GD32VW55x_RELEASE_V1.0.2/MSDK/wpa_supplicant/src/tls\rsa.c **** 		    bignum_mulmod(tmp, key->iqmp, key->p, tmp) < 0)
 298              		.loc 1 305 6
 299 00ce E34D05F6 		blt	a0,zero,.L22
 306:C:/Users/stapi/OneDrive/Desktop/GD32VW553/V1_MQTT_OK/GD32VW55X_Wifi_BLE_SDK/GD32VW55x_RELEASE_V1.0.2/MSDK/wpa_supplicant/src/tls\rsa.c **** 			goto error;
 300              		.loc 1 306 7 discriminator 1
 301 00d2 9048     		lw	a2,16(s1)
 302 00d4 8C50     		lw	a1,32(s1)
 303 00d6 A286     		mv	a3,s0
 304 00d8 2285     		mv	a0,s0
 305 00da 97000000 		call	bignum_mulmod
 305      E7800000 
 306              	.LVL39:
 305:C:/Users/stapi/OneDrive/Desktop/GD32VW553/V1_MQTT_OK/GD32VW55X_Wifi_BLE_SDK/GD32VW55x_RELEASE_V1.0.2/MSDK/wpa_supplicant/src/tls\rsa.c **** 		    bignum_mulmod(tmp, key->iqmp, key->p, tmp) < 0)
 307              		.loc 1 305 33 discriminator 1
 308 00e2 E34305F6 		blt	a0,zero,.L22
 310:C:/Users/stapi/OneDrive/Desktop/GD32VW553/V1_MQTT_OK/GD32VW55X_Wifi_BLE_SDK/GD32VW55x_RELEASE_V1.0.2/MSDK/wpa_supplicant/src/tls\rsa.c **** 		    bignum_add(tmp, b, tmp) < 0)
 309              		.loc 1 310 3 is_stmt 1
 310:C:/Users/stapi/OneDrive/Desktop/GD32VW553/V1_MQTT_OK/GD32VW55X_Wifi_BLE_SDK/GD32VW55x_RELEASE_V1.0.2/MSDK/wpa_supplicant/src/tls\rsa.c **** 		    bignum_add(tmp, b, tmp) < 0)
 310              		.loc 1 310 7 is_stmt 0
 311 00e6 CC48     		lw	a1,20(s1)
 312 00e8 2286     		mv	a2,s0
 313 00ea 2285     		mv	a0,s0
 314 00ec 97000000 		call	bignum_mul
 314      E7800000 
 315              	.LVL40:
 310:C:/Users/stapi/OneDrive/Desktop/GD32VW553/V1_MQTT_OK/GD32VW55X_Wifi_BLE_SDK/GD32VW55x_RELEASE_V1.0.2/MSDK/wpa_supplicant/src/tls\rsa.c **** 		    bignum_add(tmp, b, tmp) < 0)
 316              		.loc 1 310 6
 317 00f4 E34A05F4 		blt	a0,zero,.L22
 311:C:/Users/stapi/OneDrive/Desktop/GD32VW553/V1_MQTT_OK/GD32VW55X_Wifi_BLE_SDK/GD32VW55x_RELEASE_V1.0.2/MSDK/wpa_supplicant/src/tls\rsa.c **** 			goto error;
 318              		.loc 1 311 7 discriminator 1
 319 00f8 2286     		mv	a2,s0
 320 00fa CE85     		mv	a1,s3
 321 00fc 2285     		mv	a0,s0
 322 00fe 97000000 		call	bignum_add
 322      E7800000 
 323              	.LVL41:
 310:C:/Users/stapi/OneDrive/Desktop/GD32VW553/V1_MQTT_OK/GD32VW55X_Wifi_BLE_SDK/GD32VW55x_RELEASE_V1.0.2/MSDK/wpa_supplicant/src/tls\rsa.c **** 		    bignum_add(tmp, b, tmp) < 0)
 324              		.loc 1 310 40 discriminator 1
 325 0106 E34105F4 		blt	a0,zero,.L22
 326              	.LVL42:
 327              	.L25:
 320:C:/Users/stapi/OneDrive/Desktop/GD32VW553/V1_MQTT_OK/GD32VW55X_Wifi_BLE_SDK/GD32VW55x_RELEASE_V1.0.2/MSDK/wpa_supplicant/src/tls\rsa.c **** 	if (modlen > *outlen) {
 328              		.loc 1 320 2 is_stmt 1
 320:C:/Users/stapi/OneDrive/Desktop/GD32VW553/V1_MQTT_OK/GD32VW55X_Wifi_BLE_SDK/GD32VW55x_RELEASE_V1.0.2/MSDK/wpa_supplicant/src/tls\rsa.c **** 	if (modlen > *outlen) {
 329              		.loc 1 320 11 is_stmt 0
 330 010a 2685     		mv	a0,s1
 331 010c 97000000 		call	crypto_rsa_get_modulus_len
 331      E7800000 
 332              	.LVL43:
 321:C:/Users/stapi/OneDrive/Desktop/GD32VW553/V1_MQTT_OK/GD32VW55X_Wifi_BLE_SDK/GD32VW55x_RELEASE_V1.0.2/MSDK/wpa_supplicant/src/tls\rsa.c **** 		*outlen = modlen;
 333              		.loc 1 321 5
 334 0114 83A70A00 		lw	a5,0(s5)
 320:C:/Users/stapi/OneDrive/Desktop/GD32VW553/V1_MQTT_OK/GD32VW55X_Wifi_BLE_SDK/GD32VW55x_RELEASE_V1.0.2/MSDK/wpa_supplicant/src/tls\rsa.c **** 	if (modlen > *outlen) {
 335              		.loc 1 320 11
 336 0118 AA84     		mv	s1,a0
 337              	.LVL44:
 321:C:/Users/stapi/OneDrive/Desktop/GD32VW553/V1_MQTT_OK/GD32VW55X_Wifi_BLE_SDK/GD32VW55x_RELEASE_V1.0.2/MSDK/wpa_supplicant/src/tls\rsa.c **** 		*outlen = modlen;
 338              		.loc 1 321 2 is_stmt 1
 321:C:/Users/stapi/OneDrive/Desktop/GD32VW553/V1_MQTT_OK/GD32VW55X_Wifi_BLE_SDK/GD32VW55x_RELEASE_V1.0.2/MSDK/wpa_supplicant/src/tls\rsa.c **** 		*outlen = modlen;
 339              		.loc 1 321 5 is_stmt 0
 340 011a 63F3A702 		bgeu	a5,a0,.L26
 322:C:/Users/stapi/OneDrive/Desktop/GD32VW553/V1_MQTT_OK/GD32VW55X_Wifi_BLE_SDK/GD32VW55x_RELEASE_V1.0.2/MSDK/wpa_supplicant/src/tls\rsa.c **** 		goto error;
 341              		.loc 1 322 3 is_stmt 1
 322:C:/Users/stapi/OneDrive/Desktop/GD32VW553/V1_MQTT_OK/GD32VW55X_Wifi_BLE_SDK/GD32VW55x_RELEASE_V1.0.2/MSDK/wpa_supplicant/src/tls\rsa.c **** 		goto error;
 342              		.loc 1 322 11 is_stmt 0
 343 011e 23A0AA00 		sw	a0,0(s5)
 323:C:/Users/stapi/OneDrive/Desktop/GD32VW553/V1_MQTT_OK/GD32VW55X_Wifi_BLE_SDK/GD32VW55x_RELEASE_V1.0.2/MSDK/wpa_supplicant/src/tls\rsa.c **** 	}
 344              		.loc 1 323 3 is_stmt 1
 260:C:/Users/stapi/OneDrive/Desktop/GD32VW553/V1_MQTT_OK/GD32VW55X_Wifi_BLE_SDK/GD32VW55x_RELEASE_V1.0.2/MSDK/wpa_supplicant/src/tls\rsa.c **** 	size_t modlen;
 345              		.loc 1 260 6 is_stmt 0
 346 0122 7D59     		li	s2,-1
 323:C:/Users/stapi/OneDrive/Desktop/GD32VW553/V1_MQTT_OK/GD32VW55X_Wifi_BLE_SDK/GD32VW55x_RELEASE_V1.0.2/MSDK/wpa_supplicant/src/tls\rsa.c **** 	}
 347              		.loc 1 323 3
 348 0124 15B7     		j	.L22
 349              	.LVL45:
 350              	.L24:
 316:C:/Users/stapi/OneDrive/Desktop/GD32VW553/V1_MQTT_OK/GD32VW55X_Wifi_BLE_SDK/GD32VW55x_RELEASE_V1.0.2/MSDK/wpa_supplicant/src/tls\rsa.c **** 			goto error;
 351              		.loc 1 316 3 is_stmt 1
 316:C:/Users/stapi/OneDrive/Desktop/GD32VW553/V1_MQTT_OK/GD32VW55X_Wifi_BLE_SDK/GD32VW55x_RELEASE_V1.0.2/MSDK/wpa_supplicant/src/tls\rsa.c **** 			goto error;
 352              		.loc 1 316 7 is_stmt 0
 353 0126 D040     		lw	a2,4(s1)
 354 0128 8C44     		lw	a1,8(s1)
 355 012a A286     		mv	a3,s0
 356 012c 2285     		mv	a0,s0
 357 012e 97000000 		call	bignum_exptmod
 357      E7800000 
 358              	.LVL46:
 316:C:/Users/stapi/OneDrive/Desktop/GD32VW553/V1_MQTT_OK/GD32VW55X_Wifi_BLE_SDK/GD32VW55x_RELEASE_V1.0.2/MSDK/wpa_supplicant/src/tls\rsa.c **** 			goto error;
 359              		.loc 1 316 6
 360 0136 E34605F0 		blt	a0,zero,.L23
 259:C:/Users/stapi/OneDrive/Desktop/GD32VW553/V1_MQTT_OK/GD32VW55X_Wifi_BLE_SDK/GD32VW55x_RELEASE_V1.0.2/MSDK/wpa_supplicant/src/tls\rsa.c **** 	int ret = -1;
 361              		.loc 1 259 34
 362 013a 8149     		li	s3,0
 363              	.LVL47:
 259:C:/Users/stapi/OneDrive/Desktop/GD32VW553/V1_MQTT_OK/GD32VW55X_Wifi_BLE_SDK/GD32VW55x_RELEASE_V1.0.2/MSDK/wpa_supplicant/src/tls\rsa.c **** 	int ret = -1;
 364              		.loc 1 259 23
 365 013c 014A     		li	s4,0
 366              	.LVL48:
 367 013e F1B7     		j	.L25
 368              	.LVL49:
 369              	.L26:
 326:C:/Users/stapi/OneDrive/Desktop/GD32VW553/V1_MQTT_OK/GD32VW55X_Wifi_BLE_SDK/GD32VW55x_RELEASE_V1.0.2/MSDK/wpa_supplicant/src/tls\rsa.c **** 		goto error; /* should never happen */
 370              		.loc 1 326 2 is_stmt 1
 326:C:/Users/stapi/OneDrive/Desktop/GD32VW553/V1_MQTT_OK/GD32VW55X_Wifi_BLE_SDK/GD32VW55x_RELEASE_V1.0.2/MSDK/wpa_supplicant/src/tls\rsa.c **** 		goto error; /* should never happen */
 371              		.loc 1 326 6 is_stmt 0
 372 0140 2285     		mv	a0,s0
 373 0142 97000000 		call	bignum_get_unsigned_bin_len
 373      E7800000 
 374              	.LVL50:
 260:C:/Users/stapi/OneDrive/Desktop/GD32VW553/V1_MQTT_OK/GD32VW55X_Wifi_BLE_SDK/GD32VW55x_RELEASE_V1.0.2/MSDK/wpa_supplicant/src/tls\rsa.c **** 	size_t modlen;
 375              		.loc 1 260 6
 376 014a 7D59     		li	s2,-1
 326:C:/Users/stapi/OneDrive/Desktop/GD32VW553/V1_MQTT_OK/GD32VW55X_Wifi_BLE_SDK/GD32VW55x_RELEASE_V1.0.2/MSDK/wpa_supplicant/src/tls\rsa.c **** 		goto error; /* should never happen */
 377              		.loc 1 326 5
 378 014c E3EEA4EE 		bgtu	a0,s1,.L22
 329:C:/Users/stapi/OneDrive/Desktop/GD32VW553/V1_MQTT_OK/GD32VW55X_Wifi_BLE_SDK/GD32VW55x_RELEASE_V1.0.2/MSDK/wpa_supplicant/src/tls\rsa.c **** 	os_memset(out, 0, modlen);
 379              		.loc 1 329 2 is_stmt 1
 330:C:/Users/stapi/OneDrive/Desktop/GD32VW553/V1_MQTT_OK/GD32VW55X_Wifi_BLE_SDK/GD32VW55x_RELEASE_V1.0.2/MSDK/wpa_supplicant/src/tls\rsa.c **** 	if (bignum_get_unsigned_bin(
 380              		.loc 1 330 2 is_stmt 0
 381 0150 2686     		mv	a2,s1
 382 0152 8145     		li	a1,0
 329:C:/Users/stapi/OneDrive/Desktop/GD32VW553/V1_MQTT_OK/GD32VW55X_Wifi_BLE_SDK/GD32VW55x_RELEASE_V1.0.2/MSDK/wpa_supplicant/src/tls\rsa.c **** 	os_memset(out, 0, modlen);
 383              		.loc 1 329 10
 384 0154 23A09A00 		sw	s1,0(s5)
 330:C:/Users/stapi/OneDrive/Desktop/GD32VW553/V1_MQTT_OK/GD32VW55X_Wifi_BLE_SDK/GD32VW55x_RELEASE_V1.0.2/MSDK/wpa_supplicant/src/tls\rsa.c **** 	if (bignum_get_unsigned_bin(
 385              		.loc 1 330 2 is_stmt 1
 386 0158 5A85     		mv	a0,s6
 387 015a 97000000 		call	os_memset
 387      E7800000 
 388              	.LVL51:
 331:C:/Users/stapi/OneDrive/Desktop/GD32VW553/V1_MQTT_OK/GD32VW55X_Wifi_BLE_SDK/GD32VW55x_RELEASE_V1.0.2/MSDK/wpa_supplicant/src/tls\rsa.c **** 		    tmp, out +
 389              		.loc 1 331 2
 333:C:/Users/stapi/OneDrive/Desktop/GD32VW553/V1_MQTT_OK/GD32VW55X_Wifi_BLE_SDK/GD32VW55x_RELEASE_V1.0.2/MSDK/wpa_supplicant/src/tls\rsa.c **** 		goto error;
 390              		.loc 1 333 17 is_stmt 0
 391 0162 2285     		mv	a0,s0
 392 0164 97000000 		call	bignum_get_unsigned_bin_len
 392      E7800000 
 393              	.LVL52:
 333:C:/Users/stapi/OneDrive/Desktop/GD32VW553/V1_MQTT_OK/GD32VW55X_Wifi_BLE_SDK/GD32VW55x_RELEASE_V1.0.2/MSDK/wpa_supplicant/src/tls\rsa.c **** 		goto error;
 394              		.loc 1 333 15
 395 016c B385A440 		sub	a1,s1,a0
 331:C:/Users/stapi/OneDrive/Desktop/GD32VW553/V1_MQTT_OK/GD32VW55X_Wifi_BLE_SDK/GD32VW55x_RELEASE_V1.0.2/MSDK/wpa_supplicant/src/tls\rsa.c **** 		    tmp, out +
 396              		.loc 1 331 6
 397 0170 0146     		li	a2,0
 398 0172 DA95     		add	a1,s6,a1
 399 0174 2285     		mv	a0,s0
 400 0176 97000000 		call	bignum_get_unsigned_bin
 400      E7800000 
 401              	.LVL53:
 331:C:/Users/stapi/OneDrive/Desktop/GD32VW553/V1_MQTT_OK/GD32VW55X_Wifi_BLE_SDK/GD32VW55x_RELEASE_V1.0.2/MSDK/wpa_supplicant/src/tls\rsa.c **** 		    tmp, out +
 402              		.loc 1 331 5
 403 017e 1359F541 		srai	s2,a0,31
 404 0182 D9B5     		j	.L22
 405              		.cfi_endproc
 406              	.LFE91:
 408              		.section	.text.crypto_rsa_free,"ax",@progbits
 409              		.align	1
 410              		.globl	crypto_rsa_free
 412              	crypto_rsa_free:
 413              	.LFB92:
 344:C:/Users/stapi/OneDrive/Desktop/GD32VW553/V1_MQTT_OK/GD32VW55X_Wifi_BLE_SDK/GD32VW55x_RELEASE_V1.0.2/MSDK/wpa_supplicant/src/tls\rsa.c **** 
 345:C:/Users/stapi/OneDrive/Desktop/GD32VW553/V1_MQTT_OK/GD32VW55X_Wifi_BLE_SDK/GD32VW55x_RELEASE_V1.0.2/MSDK/wpa_supplicant/src/tls\rsa.c **** 
 346:C:/Users/stapi/OneDrive/Desktop/GD32VW553/V1_MQTT_OK/GD32VW55X_Wifi_BLE_SDK/GD32VW55x_RELEASE_V1.0.2/MSDK/wpa_supplicant/src/tls\rsa.c **** /**
 347:C:/Users/stapi/OneDrive/Desktop/GD32VW553/V1_MQTT_OK/GD32VW55X_Wifi_BLE_SDK/GD32VW55x_RELEASE_V1.0.2/MSDK/wpa_supplicant/src/tls\rsa.c ****  * crypto_rsa_free - Free RSA key
 348:C:/Users/stapi/OneDrive/Desktop/GD32VW553/V1_MQTT_OK/GD32VW55X_Wifi_BLE_SDK/GD32VW55x_RELEASE_V1.0.2/MSDK/wpa_supplicant/src/tls\rsa.c ****  * @key: RSA key to be freed
 349:C:/Users/stapi/OneDrive/Desktop/GD32VW553/V1_MQTT_OK/GD32VW55X_Wifi_BLE_SDK/GD32VW55x_RELEASE_V1.0.2/MSDK/wpa_supplicant/src/tls\rsa.c ****  *
 350:C:/Users/stapi/OneDrive/Desktop/GD32VW553/V1_MQTT_OK/GD32VW55X_Wifi_BLE_SDK/GD32VW55x_RELEASE_V1.0.2/MSDK/wpa_supplicant/src/tls\rsa.c ****  * This function frees an RSA key imported with either
 351:C:/Users/stapi/OneDrive/Desktop/GD32VW553/V1_MQTT_OK/GD32VW55X_Wifi_BLE_SDK/GD32VW55x_RELEASE_V1.0.2/MSDK/wpa_supplicant/src/tls\rsa.c ****  * crypto_rsa_import_public_key() or crypto_rsa_import_private_key().
 352:C:/Users/stapi/OneDrive/Desktop/GD32VW553/V1_MQTT_OK/GD32VW55X_Wifi_BLE_SDK/GD32VW55x_RELEASE_V1.0.2/MSDK/wpa_supplicant/src/tls\rsa.c ****  */
 353:C:/Users/stapi/OneDrive/Desktop/GD32VW553/V1_MQTT_OK/GD32VW55X_Wifi_BLE_SDK/GD32VW55x_RELEASE_V1.0.2/MSDK/wpa_supplicant/src/tls\rsa.c **** void crypto_rsa_free(struct crypto_rsa_key *key)
 354:C:/Users/stapi/OneDrive/Desktop/GD32VW553/V1_MQTT_OK/GD32VW55X_Wifi_BLE_SDK/GD32VW55x_RELEASE_V1.0.2/MSDK/wpa_supplicant/src/tls\rsa.c **** {
 414              		.loc 1 354 1 is_stmt 1
 415              		.cfi_startproc
 416              	.LVL54:
 355:C:/Users/stapi/OneDrive/Desktop/GD32VW553/V1_MQTT_OK/GD32VW55X_Wifi_BLE_SDK/GD32VW55x_RELEASE_V1.0.2/MSDK/wpa_supplicant/src/tls\rsa.c **** 	if (key) {
 417              		.loc 1 355 2
 418              		.loc 1 355 5 is_stmt 0
 419 0000 3DC5     		beq	a0,zero,.L49
 354:C:/Users/stapi/OneDrive/Desktop/GD32VW553/V1_MQTT_OK/GD32VW55X_Wifi_BLE_SDK/GD32VW55x_RELEASE_V1.0.2/MSDK/wpa_supplicant/src/tls\rsa.c **** 	if (key) {
 420              		.loc 1 354 1
 421 0002 17030000 		call	t0,__riscv_save_1
 421      E7020300 
 422              		.cfi_offset 8, -8
 423              		.cfi_offset 1, -4
 424              		.cfi_def_cfa_offset 16
 425 000a 2A84     		mv	s0,a0
 426              	.LVL55:
 427              	.LBB8:
 428              	.LBB9:
 356:C:/Users/stapi/OneDrive/Desktop/GD32VW553/V1_MQTT_OK/GD32VW55X_Wifi_BLE_SDK/GD32VW55x_RELEASE_V1.0.2/MSDK/wpa_supplicant/src/tls\rsa.c **** 		bignum_deinit(key->n);
 429              		.loc 1 356 3 is_stmt 1
 430 000c 4841     		lw	a0,4(a0)
 431              	.LVL56:
 432 000e 97000000 		call	bignum_deinit
 432      E7800000 
 433              	.LVL57:
 357:C:/Users/stapi/OneDrive/Desktop/GD32VW553/V1_MQTT_OK/GD32VW55X_Wifi_BLE_SDK/GD32VW55x_RELEASE_V1.0.2/MSDK/wpa_supplicant/src/tls\rsa.c **** 		bignum_deinit(key->e);
 434              		.loc 1 357 3
 435 0016 0844     		lw	a0,8(s0)
 436 0018 97000000 		call	bignum_deinit
 436      E7800000 
 437              	.LVL58:
 358:C:/Users/stapi/OneDrive/Desktop/GD32VW553/V1_MQTT_OK/GD32VW55X_Wifi_BLE_SDK/GD32VW55x_RELEASE_V1.0.2/MSDK/wpa_supplicant/src/tls\rsa.c **** 		bignum_deinit(key->d);
 438              		.loc 1 358 3
 439 0020 4844     		lw	a0,12(s0)
 440 0022 97000000 		call	bignum_deinit
 440      E7800000 
 441              	.LVL59:
 359:C:/Users/stapi/OneDrive/Desktop/GD32VW553/V1_MQTT_OK/GD32VW55X_Wifi_BLE_SDK/GD32VW55x_RELEASE_V1.0.2/MSDK/wpa_supplicant/src/tls\rsa.c **** 		bignum_deinit(key->p);
 442              		.loc 1 359 3
 443 002a 0848     		lw	a0,16(s0)
 444 002c 97000000 		call	bignum_deinit
 444      E7800000 
 445              	.LVL60:
 360:C:/Users/stapi/OneDrive/Desktop/GD32VW553/V1_MQTT_OK/GD32VW55X_Wifi_BLE_SDK/GD32VW55x_RELEASE_V1.0.2/MSDK/wpa_supplicant/src/tls\rsa.c **** 		bignum_deinit(key->q);
 446              		.loc 1 360 3
 447 0034 4848     		lw	a0,20(s0)
 448 0036 97000000 		call	bignum_deinit
 448      E7800000 
 449              	.LVL61:
 361:C:/Users/stapi/OneDrive/Desktop/GD32VW553/V1_MQTT_OK/GD32VW55X_Wifi_BLE_SDK/GD32VW55x_RELEASE_V1.0.2/MSDK/wpa_supplicant/src/tls\rsa.c **** 		bignum_deinit(key->dmp1);
 450              		.loc 1 361 3
 451 003e 084C     		lw	a0,24(s0)
 452 0040 97000000 		call	bignum_deinit
 452      E7800000 
 453              	.LVL62:
 362:C:/Users/stapi/OneDrive/Desktop/GD32VW553/V1_MQTT_OK/GD32VW55X_Wifi_BLE_SDK/GD32VW55x_RELEASE_V1.0.2/MSDK/wpa_supplicant/src/tls\rsa.c **** 		bignum_deinit(key->dmq1);
 454              		.loc 1 362 3
 455 0048 484C     		lw	a0,28(s0)
 456 004a 97000000 		call	bignum_deinit
 456      E7800000 
 457              	.LVL63:
 363:C:/Users/stapi/OneDrive/Desktop/GD32VW553/V1_MQTT_OK/GD32VW55X_Wifi_BLE_SDK/GD32VW55x_RELEASE_V1.0.2/MSDK/wpa_supplicant/src/tls\rsa.c **** 		bignum_deinit(key->iqmp);
 458              		.loc 1 363 3
 459 0052 0850     		lw	a0,32(s0)
 460 0054 97000000 		call	bignum_deinit
 460      E7800000 
 461              	.LVL64:
 364:C:/Users/stapi/OneDrive/Desktop/GD32VW553/V1_MQTT_OK/GD32VW55X_Wifi_BLE_SDK/GD32VW55x_RELEASE_V1.0.2/MSDK/wpa_supplicant/src/tls\rsa.c **** 		os_free(key);
 462              		.loc 1 364 3
 463 005c 2285     		mv	a0,s0
 464 005e 97000000 		call	os_free
 464      E7800000 
 465              	.LVL65:
 466              	.LBE9:
 467              	.LBE8:
 365:C:/Users/stapi/OneDrive/Desktop/GD32VW553/V1_MQTT_OK/GD32VW55X_Wifi_BLE_SDK/GD32VW55x_RELEASE_V1.0.2/MSDK/wpa_supplicant/src/tls\rsa.c **** 	}
 366:C:/Users/stapi/OneDrive/Desktop/GD32VW553/V1_MQTT_OK/GD32VW55X_Wifi_BLE_SDK/GD32VW55x_RELEASE_V1.0.2/MSDK/wpa_supplicant/src/tls\rsa.c **** }
 468              		.loc 1 366 1 is_stmt 0
 469 0066 17030000 		tail	__riscv_restore_1
 469      67000300 
 470              		.cfi_restore 8
 471              		.cfi_restore 1
 472              		.cfi_def_cfa_offset 0
 473              	.LVL66:
 474              	.L49:
 475 006e 8280     		ret
 476              		.cfi_endproc
 477              	.LFE92:
 479              		.section	.rodata.crypto_rsa_import_public_key.str1.4,"aMS",@progbits,1
 480              		.align	2
 481              	.LC2:
 482 0000 5253413A 		.string	"RSA: Expected SEQUENCE (public key)"
 482      20457870 
 482      65637465 
 482      64205345 
 482      5155454E 
 483              		.align	2
 484              	.LC3:
 485 0024 5253413A 		.string	"RSA: Extra data in public key SEQUENCE"
 485      20457874 
 485      72612064 
 485      61746120 
 485      696E2070 
 486              		.section	.text.crypto_rsa_import_public_key,"ax",@progbits
 487              		.align	1
 488              		.globl	crypto_rsa_import_public_key
 490              	crypto_rsa_import_public_key:
 491              	.LFB87:
  62:C:/Users/stapi/OneDrive/Desktop/GD32VW553/V1_MQTT_OK/GD32VW55X_Wifi_BLE_SDK/GD32VW55x_RELEASE_V1.0.2/MSDK/wpa_supplicant/src/tls\rsa.c **** 	struct crypto_rsa_key *key;
 492              		.loc 1 62 1 is_stmt 1
 493              		.cfi_startproc
 494              	.LVL67:
 495 0000 17030000 		call	t0,__riscv_save_3
 495      E7020300 
 496              		.cfi_offset 18, -16
 497              		.cfi_offset 9, -12
 498              		.cfi_offset 8, -8
 499              		.cfi_offset 1, -4
 500              		.cfi_def_cfa_offset 16
  63:C:/Users/stapi/OneDrive/Desktop/GD32VW553/V1_MQTT_OK/GD32VW55X_Wifi_BLE_SDK/GD32VW55x_RELEASE_V1.0.2/MSDK/wpa_supplicant/src/tls\rsa.c **** 	struct asn1_hdr hdr;
 501              		.loc 1 63 2
  64:C:/Users/stapi/OneDrive/Desktop/GD32VW553/V1_MQTT_OK/GD32VW55X_Wifi_BLE_SDK/GD32VW55x_RELEASE_V1.0.2/MSDK/wpa_supplicant/src/tls\rsa.c **** 	const u8 *pos, *end;
 502              		.loc 1 64 2
  65:C:/Users/stapi/OneDrive/Desktop/GD32VW553/V1_MQTT_OK/GD32VW55X_Wifi_BLE_SDK/GD32VW55x_RELEASE_V1.0.2/MSDK/wpa_supplicant/src/tls\rsa.c **** 
 503              		.loc 1 65 2
  67:C:/Users/stapi/OneDrive/Desktop/GD32VW553/V1_MQTT_OK/GD32VW55X_Wifi_BLE_SDK/GD32VW55x_RELEASE_V1.0.2/MSDK/wpa_supplicant/src/tls\rsa.c **** 	if (key == NULL)
 504              		.loc 1 67 2
  62:C:/Users/stapi/OneDrive/Desktop/GD32VW553/V1_MQTT_OK/GD32VW55X_Wifi_BLE_SDK/GD32VW55x_RELEASE_V1.0.2/MSDK/wpa_supplicant/src/tls\rsa.c **** 	struct crypto_rsa_key *key;
 505              		.loc 1 62 1 is_stmt 0
 506 0008 4111     		addi	sp,sp,-16
 507              		.cfi_def_cfa_offset 32
  62:C:/Users/stapi/OneDrive/Desktop/GD32VW553/V1_MQTT_OK/GD32VW55X_Wifi_BLE_SDK/GD32VW55x_RELEASE_V1.0.2/MSDK/wpa_supplicant/src/tls\rsa.c **** 	struct crypto_rsa_key *key;
 508              		.loc 1 62 1
 509 000a AA84     		mv	s1,a0
  67:C:/Users/stapi/OneDrive/Desktop/GD32VW553/V1_MQTT_OK/GD32VW55X_Wifi_BLE_SDK/GD32VW55x_RELEASE_V1.0.2/MSDK/wpa_supplicant/src/tls\rsa.c **** 	if (key == NULL)
 510              		.loc 1 67 8
 511 000c 13054002 		li	a0,36
 512              	.LVL68:
  62:C:/Users/stapi/OneDrive/Desktop/GD32VW553/V1_MQTT_OK/GD32VW55X_Wifi_BLE_SDK/GD32VW55x_RELEASE_V1.0.2/MSDK/wpa_supplicant/src/tls\rsa.c **** 	struct crypto_rsa_key *key;
 513              		.loc 1 62 1
 514 0010 2E89     		mv	s2,a1
  67:C:/Users/stapi/OneDrive/Desktop/GD32VW553/V1_MQTT_OK/GD32VW55X_Wifi_BLE_SDK/GD32VW55x_RELEASE_V1.0.2/MSDK/wpa_supplicant/src/tls\rsa.c **** 	if (key == NULL)
 515              		.loc 1 67 8
 516 0012 97000000 		call	os_zalloc
 516      E7800000 
 517              	.LVL69:
 518 001a 2A84     		mv	s0,a0
 519              	.LVL70:
  68:C:/Users/stapi/OneDrive/Desktop/GD32VW553/V1_MQTT_OK/GD32VW55X_Wifi_BLE_SDK/GD32VW55x_RELEASE_V1.0.2/MSDK/wpa_supplicant/src/tls\rsa.c **** 		return NULL;
 520              		.loc 1 68 2 is_stmt 1
  68:C:/Users/stapi/OneDrive/Desktop/GD32VW553/V1_MQTT_OK/GD32VW55X_Wifi_BLE_SDK/GD32VW55x_RELEASE_V1.0.2/MSDK/wpa_supplicant/src/tls\rsa.c **** 		return NULL;
 521              		.loc 1 68 5 is_stmt 0
 522 001c 05C5     		beq	a0,zero,.L52
  71:C:/Users/stapi/OneDrive/Desktop/GD32VW553/V1_MQTT_OK/GD32VW55X_Wifi_BLE_SDK/GD32VW55x_RELEASE_V1.0.2/MSDK/wpa_supplicant/src/tls\rsa.c **** 	key->e = bignum_init();
 523              		.loc 1 71 2 is_stmt 1
  71:C:/Users/stapi/OneDrive/Desktop/GD32VW553/V1_MQTT_OK/GD32VW55X_Wifi_BLE_SDK/GD32VW55x_RELEASE_V1.0.2/MSDK/wpa_supplicant/src/tls\rsa.c **** 	key->e = bignum_init();
 524              		.loc 1 71 11 is_stmt 0
 525 001e 97000000 		call	bignum_init
 525      E7800000 
 526              	.LVL71:
  71:C:/Users/stapi/OneDrive/Desktop/GD32VW553/V1_MQTT_OK/GD32VW55X_Wifi_BLE_SDK/GD32VW55x_RELEASE_V1.0.2/MSDK/wpa_supplicant/src/tls\rsa.c **** 	key->e = bignum_init();
 527              		.loc 1 71 9
 528 0026 48C0     		sw	a0,4(s0)
  72:C:/Users/stapi/OneDrive/Desktop/GD32VW553/V1_MQTT_OK/GD32VW55X_Wifi_BLE_SDK/GD32VW55x_RELEASE_V1.0.2/MSDK/wpa_supplicant/src/tls\rsa.c **** 	if (key->n == NULL || key->e == NULL) {
 529              		.loc 1 72 2 is_stmt 1
  72:C:/Users/stapi/OneDrive/Desktop/GD32VW553/V1_MQTT_OK/GD32VW55X_Wifi_BLE_SDK/GD32VW55x_RELEASE_V1.0.2/MSDK/wpa_supplicant/src/tls\rsa.c **** 	if (key->n == NULL || key->e == NULL) {
 530              		.loc 1 72 11 is_stmt 0
 531 0028 97000000 		call	bignum_init
 531      E7800000 
 532              	.LVL72:
  73:C:/Users/stapi/OneDrive/Desktop/GD32VW553/V1_MQTT_OK/GD32VW55X_Wifi_BLE_SDK/GD32VW55x_RELEASE_V1.0.2/MSDK/wpa_supplicant/src/tls\rsa.c **** 		crypto_rsa_free(key);
 533              		.loc 1 73 5
 534 0030 5C40     		lw	a5,4(s0)
  72:C:/Users/stapi/OneDrive/Desktop/GD32VW553/V1_MQTT_OK/GD32VW55X_Wifi_BLE_SDK/GD32VW55x_RELEASE_V1.0.2/MSDK/wpa_supplicant/src/tls\rsa.c **** 	if (key->n == NULL || key->e == NULL) {
 535              		.loc 1 72 9
 536 0032 08C4     		sw	a0,8(s0)
  73:C:/Users/stapi/OneDrive/Desktop/GD32VW553/V1_MQTT_OK/GD32VW55X_Wifi_BLE_SDK/GD32VW55x_RELEASE_V1.0.2/MSDK/wpa_supplicant/src/tls\rsa.c **** 		crypto_rsa_free(key);
 537              		.loc 1 73 2 is_stmt 1
  73:C:/Users/stapi/OneDrive/Desktop/GD32VW553/V1_MQTT_OK/GD32VW55X_Wifi_BLE_SDK/GD32VW55x_RELEASE_V1.0.2/MSDK/wpa_supplicant/src/tls\rsa.c **** 		crypto_rsa_free(key);
 538              		.loc 1 73 5 is_stmt 0
 539 0034 91C3     		beq	a5,zero,.L57
  73:C:/Users/stapi/OneDrive/Desktop/GD32VW553/V1_MQTT_OK/GD32VW55X_Wifi_BLE_SDK/GD32VW55x_RELEASE_V1.0.2/MSDK/wpa_supplicant/src/tls\rsa.c **** 		crypto_rsa_free(key);
 540              		.loc 1 73 21 discriminator 1
 541 0036 09ED     		bne	a0,zero,.L55
 542              	.LVL73:
 543              	.L57:
 109:C:/Users/stapi/OneDrive/Desktop/GD32VW553/V1_MQTT_OK/GD32VW55X_Wifi_BLE_SDK/GD32VW55x_RELEASE_V1.0.2/MSDK/wpa_supplicant/src/tls\rsa.c **** 	return NULL;
 544              		.loc 1 109 2 is_stmt 1
 545 0038 2285     		mv	a0,s0
 546 003a 97000000 		call	crypto_rsa_free
 546      E7800000 
 547              	.LVL74:
 110:C:/Users/stapi/OneDrive/Desktop/GD32VW553/V1_MQTT_OK/GD32VW55X_Wifi_BLE_SDK/GD32VW55x_RELEASE_V1.0.2/MSDK/wpa_supplicant/src/tls\rsa.c **** }
 548              		.loc 1 110 2
 110:C:/Users/stapi/OneDrive/Desktop/GD32VW553/V1_MQTT_OK/GD32VW55X_Wifi_BLE_SDK/GD32VW55x_RELEASE_V1.0.2/MSDK/wpa_supplicant/src/tls\rsa.c **** }
 549              		.loc 1 110 9 is_stmt 0
 550 0042 0144     		li	s0,0
 551              	.LVL75:
 552              	.L52:
 111:C:/Users/stapi/OneDrive/Desktop/GD32VW553/V1_MQTT_OK/GD32VW55X_Wifi_BLE_SDK/GD32VW55x_RELEASE_V1.0.2/MSDK/wpa_supplicant/src/tls\rsa.c **** 
 553              		.loc 1 111 1
 554 0044 2285     		mv	a0,s0
 555 0046 4101     		addi	sp,sp,16
 556              		.cfi_remember_state
 557              		.cfi_def_cfa_offset 0
 558 0048 17030000 		tail	__riscv_restore_3
 558      67000300 
 559              		.cfi_restore 18
 560              		.cfi_restore 9
 561              		.cfi_restore 8
 562              		.cfi_restore 1
 563              		.cfi_def_cfa_offset -16
 564              	.LVL76:
 565              	.L55:
 566              		.cfi_restore_state
  86:C:/Users/stapi/OneDrive/Desktop/GD32VW553/V1_MQTT_OK/GD32VW55X_Wifi_BLE_SDK/GD32VW55x_RELEASE_V1.0.2/MSDK/wpa_supplicant/src/tls\rsa.c **** 		asn1_unexpected(&hdr, "RSA: Expected SEQUENCE (public key)");
 567              		.loc 1 86 2 is_stmt 1
  86:C:/Users/stapi/OneDrive/Desktop/GD32VW553/V1_MQTT_OK/GD32VW55X_Wifi_BLE_SDK/GD32VW55x_RELEASE_V1.0.2/MSDK/wpa_supplicant/src/tls\rsa.c **** 		asn1_unexpected(&hdr, "RSA: Expected SEQUENCE (public key)");
 568              		.loc 1 86 6 is_stmt 0
 569 0050 0A86     		mv	a2,sp
 570 0052 CA85     		mv	a1,s2
 571 0054 2685     		mv	a0,s1
 572 0056 97000000 		call	asn1_get_next
 572      E7800000 
 573              	.LVL77:
  86:C:/Users/stapi/OneDrive/Desktop/GD32VW553/V1_MQTT_OK/GD32VW55X_Wifi_BLE_SDK/GD32VW55x_RELEASE_V1.0.2/MSDK/wpa_supplicant/src/tls\rsa.c **** 		asn1_unexpected(&hdr, "RSA: Expected SEQUENCE (public key)");
 574              		.loc 1 86 5
 575 005e 63480504 		blt	a0,zero,.L56
 576              	.LVL78:
 577              	.LBB12:
 578              	.LBB13:
 103:C:/Users/stapi/OneDrive/Desktop/GD32VW553/V1_MQTT_OK/GD32VW55X_Wifi_BLE_SDK/GD32VW55x_RELEASE_V1.0.2/MSDK/wpa_supplicant/src/tls\asn1.h **** 		hdr->tag == ASN1_TAG_INTEGER;
 104:C:/Users/stapi/OneDrive/Desktop/GD32VW553/V1_MQTT_OK/GD32VW55X_Wifi_BLE_SDK/GD32VW55x_RELEASE_V1.0.2/MSDK/wpa_supplicant/src/tls\asn1.h **** }
 105:C:/Users/stapi/OneDrive/Desktop/GD32VW553/V1_MQTT_OK/GD32VW55X_Wifi_BLE_SDK/GD32VW55x_RELEASE_V1.0.2/MSDK/wpa_supplicant/src/tls\asn1.h **** 
 106:C:/Users/stapi/OneDrive/Desktop/GD32VW553/V1_MQTT_OK/GD32VW55X_Wifi_BLE_SDK/GD32VW55x_RELEASE_V1.0.2/MSDK/wpa_supplicant/src/tls\asn1.h **** static inline bool asn1_is_enumerated(const struct asn1_hdr *hdr)
 107:C:/Users/stapi/OneDrive/Desktop/GD32VW553/V1_MQTT_OK/GD32VW55X_Wifi_BLE_SDK/GD32VW55x_RELEASE_V1.0.2/MSDK/wpa_supplicant/src/tls\asn1.h **** {
 108:C:/Users/stapi/OneDrive/Desktop/GD32VW553/V1_MQTT_OK/GD32VW55X_Wifi_BLE_SDK/GD32VW55x_RELEASE_V1.0.2/MSDK/wpa_supplicant/src/tls\asn1.h **** 	return hdr->class == ASN1_CLASS_UNIVERSAL &&
 109:C:/Users/stapi/OneDrive/Desktop/GD32VW553/V1_MQTT_OK/GD32VW55X_Wifi_BLE_SDK/GD32VW55x_RELEASE_V1.0.2/MSDK/wpa_supplicant/src/tls\asn1.h **** 		hdr->tag == ASN1_TAG_ENUMERATED;
 110:C:/Users/stapi/OneDrive/Desktop/GD32VW553/V1_MQTT_OK/GD32VW55X_Wifi_BLE_SDK/GD32VW55x_RELEASE_V1.0.2/MSDK/wpa_supplicant/src/tls\asn1.h **** }
 111:C:/Users/stapi/OneDrive/Desktop/GD32VW553/V1_MQTT_OK/GD32VW55X_Wifi_BLE_SDK/GD32VW55x_RELEASE_V1.0.2/MSDK/wpa_supplicant/src/tls\asn1.h **** 
 112:C:/Users/stapi/OneDrive/Desktop/GD32VW553/V1_MQTT_OK/GD32VW55X_Wifi_BLE_SDK/GD32VW55x_RELEASE_V1.0.2/MSDK/wpa_supplicant/src/tls\asn1.h **** static inline bool asn1_is_sequence(const struct asn1_hdr *hdr)
 113:C:/Users/stapi/OneDrive/Desktop/GD32VW553/V1_MQTT_OK/GD32VW55X_Wifi_BLE_SDK/GD32VW55x_RELEASE_V1.0.2/MSDK/wpa_supplicant/src/tls\asn1.h **** {
 114:C:/Users/stapi/OneDrive/Desktop/GD32VW553/V1_MQTT_OK/GD32VW55X_Wifi_BLE_SDK/GD32VW55x_RELEASE_V1.0.2/MSDK/wpa_supplicant/src/tls\asn1.h **** 	return hdr->class == ASN1_CLASS_UNIVERSAL &&
 579              		.loc 2 114 2 is_stmt 1
 580              		.loc 2 114 44 is_stmt 0
 581 0062 83475100 		lbu	a5,5(sp)
 582 0066 A1E7     		bne	a5,zero,.L56
 583 0068 2247     		lw	a4,8(sp)
 584 006a C147     		li	a5,16
 585 006c 6311F704 		bne	a4,a5,.L56
 586              	.LVL79:
 587              	.LBE13:
 588              	.LBE12:
  90:C:/Users/stapi/OneDrive/Desktop/GD32VW553/V1_MQTT_OK/GD32VW55X_Wifi_BLE_SDK/GD32VW55x_RELEASE_V1.0.2/MSDK/wpa_supplicant/src/tls\rsa.c **** 	end = pos + hdr.length;
 589              		.loc 1 90 2 is_stmt 1
  90:C:/Users/stapi/OneDrive/Desktop/GD32VW553/V1_MQTT_OK/GD32VW55X_Wifi_BLE_SDK/GD32VW55x_RELEASE_V1.0.2/MSDK/wpa_supplicant/src/tls\rsa.c **** 	end = pos + hdr.length;
 590              		.loc 1 90 6 is_stmt 0
 591 0070 0245     		lw	a0,0(sp)
 592              	.LVL80:
  91:C:/Users/stapi/OneDrive/Desktop/GD32VW553/V1_MQTT_OK/GD32VW55X_Wifi_BLE_SDK/GD32VW55x_RELEASE_V1.0.2/MSDK/wpa_supplicant/src/tls\rsa.c **** 
 593              		.loc 1 91 2 is_stmt 1
  91:C:/Users/stapi/OneDrive/Desktop/GD32VW553/V1_MQTT_OK/GD32VW55X_Wifi_BLE_SDK/GD32VW55x_RELEASE_V1.0.2/MSDK/wpa_supplicant/src/tls\rsa.c **** 
 594              		.loc 1 91 6 is_stmt 0
 595 0072 B244     		lw	s1,12(sp)
 596              	.LVL81:
  93:C:/Users/stapi/OneDrive/Desktop/GD32VW553/V1_MQTT_OK/GD32VW55X_Wifi_BLE_SDK/GD32VW55x_RELEASE_V1.0.2/MSDK/wpa_supplicant/src/tls\rsa.c **** 	pos = crypto_rsa_parse_integer(pos, end, key->e);
 597              		.loc 1 93 8
 598 0074 5040     		lw	a2,4(s0)
  91:C:/Users/stapi/OneDrive/Desktop/GD32VW553/V1_MQTT_OK/GD32VW55X_Wifi_BLE_SDK/GD32VW55x_RELEASE_V1.0.2/MSDK/wpa_supplicant/src/tls\rsa.c **** 
 599              		.loc 1 91 6
 600 0076 AA94     		add	s1,a0,s1
 601              	.LVL82:
  93:C:/Users/stapi/OneDrive/Desktop/GD32VW553/V1_MQTT_OK/GD32VW55X_Wifi_BLE_SDK/GD32VW55x_RELEASE_V1.0.2/MSDK/wpa_supplicant/src/tls\rsa.c **** 	pos = crypto_rsa_parse_integer(pos, end, key->e);
 602              		.loc 1 93 2 is_stmt 1
  93:C:/Users/stapi/OneDrive/Desktop/GD32VW553/V1_MQTT_OK/GD32VW55X_Wifi_BLE_SDK/GD32VW55x_RELEASE_V1.0.2/MSDK/wpa_supplicant/src/tls\rsa.c **** 	pos = crypto_rsa_parse_integer(pos, end, key->e);
 603              		.loc 1 93 8 is_stmt 0
 604 0078 A685     		mv	a1,s1
 605 007a 97000000 		call	crypto_rsa_parse_integer
 605      E7800000 
 606              	.LVL83:
  94:C:/Users/stapi/OneDrive/Desktop/GD32VW553/V1_MQTT_OK/GD32VW55X_Wifi_BLE_SDK/GD32VW55x_RELEASE_V1.0.2/MSDK/wpa_supplicant/src/tls\rsa.c **** 
 607              		.loc 1 94 2 is_stmt 1
  94:C:/Users/stapi/OneDrive/Desktop/GD32VW553/V1_MQTT_OK/GD32VW55X_Wifi_BLE_SDK/GD32VW55x_RELEASE_V1.0.2/MSDK/wpa_supplicant/src/tls\rsa.c **** 
 608              		.loc 1 94 8 is_stmt 0
 609 0082 1044     		lw	a2,8(s0)
 610 0084 A685     		mv	a1,s1
 611 0086 97000000 		call	crypto_rsa_parse_integer
 611      E7800000 
 612              	.LVL84:
 613 008e 2A86     		mv	a2,a0
 614              	.LVL85:
  96:C:/Users/stapi/OneDrive/Desktop/GD32VW553/V1_MQTT_OK/GD32VW55X_Wifi_BLE_SDK/GD32VW55x_RELEASE_V1.0.2/MSDK/wpa_supplicant/src/tls\rsa.c **** 		goto error;
 615              		.loc 1 96 2 is_stmt 1
  96:C:/Users/stapi/OneDrive/Desktop/GD32VW553/V1_MQTT_OK/GD32VW55X_Wifi_BLE_SDK/GD32VW55x_RELEASE_V1.0.2/MSDK/wpa_supplicant/src/tls\rsa.c **** 		goto error;
 616              		.loc 1 96 5 is_stmt 0
 617 0090 45D5     		beq	a0,zero,.L57
  99:C:/Users/stapi/OneDrive/Desktop/GD32VW553/V1_MQTT_OK/GD32VW55X_Wifi_BLE_SDK/GD32VW55x_RELEASE_V1.0.2/MSDK/wpa_supplicant/src/tls\rsa.c **** 		wpa_hexdump(MSG_DEBUG,
 618              		.loc 1 99 2 is_stmt 1
  99:C:/Users/stapi/OneDrive/Desktop/GD32VW553/V1_MQTT_OK/GD32VW55X_Wifi_BLE_SDK/GD32VW55x_RELEASE_V1.0.2/MSDK/wpa_supplicant/src/tls\rsa.c **** 		wpa_hexdump(MSG_DEBUG,
 619              		.loc 1 99 5 is_stmt 0
 620 0092 E389A4FA 		beq	s1,a0,.L52
 100:C:/Users/stapi/OneDrive/Desktop/GD32VW553/V1_MQTT_OK/GD32VW55X_Wifi_BLE_SDK/GD32VW55x_RELEASE_V1.0.2/MSDK/wpa_supplicant/src/tls\rsa.c **** 			    "RSA: Extra data in public key SEQUENCE",
 621              		.loc 1 100 3 is_stmt 1
 622 0096 B7050000 		lui	a1,%hi(.LC3)
 623 009a B386A440 		sub	a3,s1,a0
 624 009e 93850500 		addi	a1,a1,%lo(.LC3)
 625 00a2 0945     		li	a0,2
 626              	.LVL86:
 627 00a4 97000000 		call	wpa_hexdump
 627      E7800000 
 628              	.LVL87:
 103:C:/Users/stapi/OneDrive/Desktop/GD32VW553/V1_MQTT_OK/GD32VW55X_Wifi_BLE_SDK/GD32VW55x_RELEASE_V1.0.2/MSDK/wpa_supplicant/src/tls\rsa.c **** 	}
 629              		.loc 1 103 3
 630 00ac 71B7     		j	.L57
 631              	.LVL88:
 632              	.L56:
  87:C:/Users/stapi/OneDrive/Desktop/GD32VW553/V1_MQTT_OK/GD32VW55X_Wifi_BLE_SDK/GD32VW55x_RELEASE_V1.0.2/MSDK/wpa_supplicant/src/tls\rsa.c **** 		goto error;
 633              		.loc 1 87 3
 634 00ae B7050000 		lui	a1,%hi(.LC2)
 635 00b2 93850500 		addi	a1,a1,%lo(.LC2)
 636 00b6 0A85     		mv	a0,sp
 637 00b8 97000000 		call	asn1_unexpected
 637      E7800000 
 638              	.LVL89:
  88:C:/Users/stapi/OneDrive/Desktop/GD32VW553/V1_MQTT_OK/GD32VW55X_Wifi_BLE_SDK/GD32VW55x_RELEASE_V1.0.2/MSDK/wpa_supplicant/src/tls\rsa.c **** 	}
 639              		.loc 1 88 3
 640 00c0 A5BF     		j	.L57
 641              		.cfi_endproc
 642              	.LFE87:
 644              		.section	.text.crypto_rsa_import_public_key_parts,"ax",@progbits
 645              		.align	1
 646              		.globl	crypto_rsa_import_public_key_parts
 648              	crypto_rsa_import_public_key_parts:
 649              	.LFB88:
 117:C:/Users/stapi/OneDrive/Desktop/GD32VW553/V1_MQTT_OK/GD32VW55X_Wifi_BLE_SDK/GD32VW55x_RELEASE_V1.0.2/MSDK/wpa_supplicant/src/tls\rsa.c **** 	struct crypto_rsa_key *key;
 650              		.loc 1 117 1
 651              		.cfi_startproc
 652              	.LVL90:
 653 0000 17030000 		call	t0,__riscv_save_5
 653      E7020300 
 654              		.cfi_offset 20, -24
 655              		.cfi_offset 19, -20
 656              		.cfi_offset 18, -16
 657              		.cfi_offset 9, -12
 658              		.cfi_offset 8, -8
 659              		.cfi_offset 1, -4
 660              		.cfi_def_cfa_offset 32
 118:C:/Users/stapi/OneDrive/Desktop/GD32VW553/V1_MQTT_OK/GD32VW55X_Wifi_BLE_SDK/GD32VW55x_RELEASE_V1.0.2/MSDK/wpa_supplicant/src/tls\rsa.c **** 
 661              		.loc 1 118 2
 120:C:/Users/stapi/OneDrive/Desktop/GD32VW553/V1_MQTT_OK/GD32VW55X_Wifi_BLE_SDK/GD32VW55x_RELEASE_V1.0.2/MSDK/wpa_supplicant/src/tls\rsa.c **** 	if (key == NULL)
 662              		.loc 1 120 2
 117:C:/Users/stapi/OneDrive/Desktop/GD32VW553/V1_MQTT_OK/GD32VW55X_Wifi_BLE_SDK/GD32VW55x_RELEASE_V1.0.2/MSDK/wpa_supplicant/src/tls\rsa.c **** 	struct crypto_rsa_key *key;
 663              		.loc 1 117 1 is_stmt 0
 664 0008 AA89     		mv	s3,a0
 120:C:/Users/stapi/OneDrive/Desktop/GD32VW553/V1_MQTT_OK/GD32VW55X_Wifi_BLE_SDK/GD32VW55x_RELEASE_V1.0.2/MSDK/wpa_supplicant/src/tls\rsa.c **** 	if (key == NULL)
 665              		.loc 1 120 8
 666 000a 13054002 		li	a0,36
 667              	.LVL91:
 117:C:/Users/stapi/OneDrive/Desktop/GD32VW553/V1_MQTT_OK/GD32VW55X_Wifi_BLE_SDK/GD32VW55x_RELEASE_V1.0.2/MSDK/wpa_supplicant/src/tls\rsa.c **** 	struct crypto_rsa_key *key;
 668              		.loc 1 117 1
 669 000e 2E8A     		mv	s4,a1
 670 0010 B284     		mv	s1,a2
 671 0012 3689     		mv	s2,a3
 120:C:/Users/stapi/OneDrive/Desktop/GD32VW553/V1_MQTT_OK/GD32VW55X_Wifi_BLE_SDK/GD32VW55x_RELEASE_V1.0.2/MSDK/wpa_supplicant/src/tls\rsa.c **** 	if (key == NULL)
 672              		.loc 1 120 8
 673 0014 97000000 		call	os_zalloc
 673      E7800000 
 674              	.LVL92:
 675 001c 2A84     		mv	s0,a0
 676              	.LVL93:
 121:C:/Users/stapi/OneDrive/Desktop/GD32VW553/V1_MQTT_OK/GD32VW55X_Wifi_BLE_SDK/GD32VW55x_RELEASE_V1.0.2/MSDK/wpa_supplicant/src/tls\rsa.c **** 		return NULL;
 677              		.loc 1 121 2 is_stmt 1
 121:C:/Users/stapi/OneDrive/Desktop/GD32VW553/V1_MQTT_OK/GD32VW55X_Wifi_BLE_SDK/GD32VW55x_RELEASE_V1.0.2/MSDK/wpa_supplicant/src/tls\rsa.c **** 		return NULL;
 678              		.loc 1 121 5 is_stmt 0
 679 001e 05C5     		beq	a0,zero,.L70
 124:C:/Users/stapi/OneDrive/Desktop/GD32VW553/V1_MQTT_OK/GD32VW55X_Wifi_BLE_SDK/GD32VW55x_RELEASE_V1.0.2/MSDK/wpa_supplicant/src/tls\rsa.c **** 	key->e = bignum_init();
 680              		.loc 1 124 2 is_stmt 1
 124:C:/Users/stapi/OneDrive/Desktop/GD32VW553/V1_MQTT_OK/GD32VW55X_Wifi_BLE_SDK/GD32VW55x_RELEASE_V1.0.2/MSDK/wpa_supplicant/src/tls\rsa.c **** 	key->e = bignum_init();
 681              		.loc 1 124 11 is_stmt 0
 682 0020 97000000 		call	bignum_init
 682      E7800000 
 683              	.LVL94:
 124:C:/Users/stapi/OneDrive/Desktop/GD32VW553/V1_MQTT_OK/GD32VW55X_Wifi_BLE_SDK/GD32VW55x_RELEASE_V1.0.2/MSDK/wpa_supplicant/src/tls\rsa.c **** 	key->e = bignum_init();
 684              		.loc 1 124 9
 685 0028 48C0     		sw	a0,4(s0)
 125:C:/Users/stapi/OneDrive/Desktop/GD32VW553/V1_MQTT_OK/GD32VW55X_Wifi_BLE_SDK/GD32VW55x_RELEASE_V1.0.2/MSDK/wpa_supplicant/src/tls\rsa.c **** 	if (key->n == NULL || key->e == NULL ||
 686              		.loc 1 125 2 is_stmt 1
 125:C:/Users/stapi/OneDrive/Desktop/GD32VW553/V1_MQTT_OK/GD32VW55X_Wifi_BLE_SDK/GD32VW55x_RELEASE_V1.0.2/MSDK/wpa_supplicant/src/tls\rsa.c **** 	if (key->n == NULL || key->e == NULL ||
 687              		.loc 1 125 11 is_stmt 0
 688 002a 97000000 		call	bignum_init
 688      E7800000 
 689              	.LVL95:
 690 0032 AA87     		mv	a5,a0
 125:C:/Users/stapi/OneDrive/Desktop/GD32VW553/V1_MQTT_OK/GD32VW55X_Wifi_BLE_SDK/GD32VW55x_RELEASE_V1.0.2/MSDK/wpa_supplicant/src/tls\rsa.c **** 	if (key->n == NULL || key->e == NULL ||
 691              		.loc 1 125 9
 692 0034 08C4     		sw	a0,8(s0)
 126:C:/Users/stapi/OneDrive/Desktop/GD32VW553/V1_MQTT_OK/GD32VW55X_Wifi_BLE_SDK/GD32VW55x_RELEASE_V1.0.2/MSDK/wpa_supplicant/src/tls\rsa.c **** 	    bignum_set_unsigned_bin(key->n, n, n_len) < 0 ||
 693              		.loc 1 126 2 is_stmt 1
 126:C:/Users/stapi/OneDrive/Desktop/GD32VW553/V1_MQTT_OK/GD32VW55X_Wifi_BLE_SDK/GD32VW55x_RELEASE_V1.0.2/MSDK/wpa_supplicant/src/tls\rsa.c **** 	    bignum_set_unsigned_bin(key->n, n, n_len) < 0 ||
 694              		.loc 1 126 9 is_stmt 0
 695 0036 4840     		lw	a0,4(s0)
 126:C:/Users/stapi/OneDrive/Desktop/GD32VW553/V1_MQTT_OK/GD32VW55X_Wifi_BLE_SDK/GD32VW55x_RELEASE_V1.0.2/MSDK/wpa_supplicant/src/tls\rsa.c **** 	    bignum_set_unsigned_bin(key->n, n, n_len) < 0 ||
 696              		.loc 1 126 5
 697 0038 01ED     		bne	a0,zero,.L72
 698              	.L73:
 129:C:/Users/stapi/OneDrive/Desktop/GD32VW553/V1_MQTT_OK/GD32VW55X_Wifi_BLE_SDK/GD32VW55x_RELEASE_V1.0.2/MSDK/wpa_supplicant/src/tls\rsa.c **** 		return NULL;
 699              		.loc 1 129 3 is_stmt 1
 700 003a 2285     		mv	a0,s0
 701 003c 97000000 		call	crypto_rsa_free
 701      E7800000 
 702              	.LVL96:
 130:C:/Users/stapi/OneDrive/Desktop/GD32VW553/V1_MQTT_OK/GD32VW55X_Wifi_BLE_SDK/GD32VW55x_RELEASE_V1.0.2/MSDK/wpa_supplicant/src/tls\rsa.c **** 	}
 703              		.loc 1 130 3
 130:C:/Users/stapi/OneDrive/Desktop/GD32VW553/V1_MQTT_OK/GD32VW55X_Wifi_BLE_SDK/GD32VW55x_RELEASE_V1.0.2/MSDK/wpa_supplicant/src/tls\rsa.c **** 	}
 704              		.loc 1 130 10 is_stmt 0
 705 0044 0144     		li	s0,0
 706              	.LVL97:
 707              	.L70:
 134:C:/Users/stapi/OneDrive/Desktop/GD32VW553/V1_MQTT_OK/GD32VW55X_Wifi_BLE_SDK/GD32VW55x_RELEASE_V1.0.2/MSDK/wpa_supplicant/src/tls\rsa.c **** 
 708              		.loc 1 134 1
 709 0046 2285     		mv	a0,s0
 710 0048 17030000 		tail	__riscv_restore_5
 710      67000300 
 711              		.cfi_remember_state
 712              		.cfi_restore 20
 713              		.cfi_restore 19
 714              		.cfi_restore 18
 715              		.cfi_restore 9
 716              		.cfi_restore 8
 717              		.cfi_restore 1
 718              		.cfi_def_cfa_offset 0
 719              	.LVL98:
 720              	.L72:
 721              		.cfi_restore_state
 126:C:/Users/stapi/OneDrive/Desktop/GD32VW553/V1_MQTT_OK/GD32VW55X_Wifi_BLE_SDK/GD32VW55x_RELEASE_V1.0.2/MSDK/wpa_supplicant/src/tls\rsa.c **** 	    bignum_set_unsigned_bin(key->n, n, n_len) < 0 ||
 722              		.loc 1 126 21 discriminator 1
 723 0050 EDD7     		beq	a5,zero,.L73
 127:C:/Users/stapi/OneDrive/Desktop/GD32VW553/V1_MQTT_OK/GD32VW55X_Wifi_BLE_SDK/GD32VW55x_RELEASE_V1.0.2/MSDK/wpa_supplicant/src/tls\rsa.c **** 	    bignum_set_unsigned_bin(key->e, e, e_len) < 0) {
 724              		.loc 1 127 6 discriminator 2
 725 0052 5286     		mv	a2,s4
 726 0054 CE85     		mv	a1,s3
 727 0056 97000000 		call	bignum_set_unsigned_bin
 727      E7800000 
 728              	.LVL99:
 126:C:/Users/stapi/OneDrive/Desktop/GD32VW553/V1_MQTT_OK/GD32VW55X_Wifi_BLE_SDK/GD32VW55x_RELEASE_V1.0.2/MSDK/wpa_supplicant/src/tls\rsa.c **** 	    bignum_set_unsigned_bin(key->n, n, n_len) < 0 ||
 729              		.loc 1 126 39 discriminator 2
 730 005e E34E05FC 		blt	a0,zero,.L73
 128:C:/Users/stapi/OneDrive/Desktop/GD32VW553/V1_MQTT_OK/GD32VW55X_Wifi_BLE_SDK/GD32VW55x_RELEASE_V1.0.2/MSDK/wpa_supplicant/src/tls\rsa.c **** 		crypto_rsa_free(key);
 731              		.loc 1 128 6
 732 0062 0844     		lw	a0,8(s0)
 733 0064 4A86     		mv	a2,s2
 734 0066 A685     		mv	a1,s1
 735 0068 97000000 		call	bignum_set_unsigned_bin
 735      E7800000 
 736              	.LVL100:
 127:C:/Users/stapi/OneDrive/Desktop/GD32VW553/V1_MQTT_OK/GD32VW55X_Wifi_BLE_SDK/GD32VW55x_RELEASE_V1.0.2/MSDK/wpa_supplicant/src/tls\rsa.c **** 	    bignum_set_unsigned_bin(key->e, e, e_len) < 0) {
 737              		.loc 1 127 52
 738 0070 E35B05FC 		bge	a0,zero,.L70
 739 0074 D9B7     		j	.L73
 740              		.cfi_endproc
 741              	.LFE88:
 743              		.section	.rodata.crypto_rsa_import_private_key.str1.4,"aMS",@progbits,1
 744              		.align	2
 745              	.LC4:
 746 0000 5253413A 		.string	"RSA: Expected zero INTEGER in the beginning of private key; not found"
 746      20457870 
 746      65637465 
 746      64207A65 
 746      726F2049 
 747              		.section	.text.crypto_rsa_import_private_key,"ax",@progbits
 748              		.align	1
 749              		.globl	crypto_rsa_import_private_key
 751              	crypto_rsa_import_private_key:
 752              	.LFB89:
 145:C:/Users/stapi/OneDrive/Desktop/GD32VW553/V1_MQTT_OK/GD32VW55X_Wifi_BLE_SDK/GD32VW55x_RELEASE_V1.0.2/MSDK/wpa_supplicant/src/tls\rsa.c **** 	struct crypto_rsa_key *key;
 753              		.loc 1 145 1 is_stmt 1
 754              		.cfi_startproc
 755              	.LVL101:
 756 0000 17030000 		call	t0,__riscv_save_4
 756      E7020300 
 757              		.cfi_offset 19, -20
 758              		.cfi_offset 18, -16
 759              		.cfi_offset 9, -12
 760              		.cfi_offset 8, -8
 761              		.cfi_offset 1, -4
 762              		.cfi_def_cfa_offset 32
 146:C:/Users/stapi/OneDrive/Desktop/GD32VW553/V1_MQTT_OK/GD32VW55X_Wifi_BLE_SDK/GD32VW55x_RELEASE_V1.0.2/MSDK/wpa_supplicant/src/tls\rsa.c **** 	struct bignum *zero;
 763              		.loc 1 146 2
 147:C:/Users/stapi/OneDrive/Desktop/GD32VW553/V1_MQTT_OK/GD32VW55X_Wifi_BLE_SDK/GD32VW55x_RELEASE_V1.0.2/MSDK/wpa_supplicant/src/tls\rsa.c **** 	struct asn1_hdr hdr;
 764              		.loc 1 147 2
 148:C:/Users/stapi/OneDrive/Desktop/GD32VW553/V1_MQTT_OK/GD32VW55X_Wifi_BLE_SDK/GD32VW55x_RELEASE_V1.0.2/MSDK/wpa_supplicant/src/tls\rsa.c **** 	const u8 *pos, *end;
 765              		.loc 1 148 2
 149:C:/Users/stapi/OneDrive/Desktop/GD32VW553/V1_MQTT_OK/GD32VW55X_Wifi_BLE_SDK/GD32VW55x_RELEASE_V1.0.2/MSDK/wpa_supplicant/src/tls\rsa.c **** 
 766              		.loc 1 149 2
 151:C:/Users/stapi/OneDrive/Desktop/GD32VW553/V1_MQTT_OK/GD32VW55X_Wifi_BLE_SDK/GD32VW55x_RELEASE_V1.0.2/MSDK/wpa_supplicant/src/tls\rsa.c **** 	if (key == NULL)
 767              		.loc 1 151 2
 145:C:/Users/stapi/OneDrive/Desktop/GD32VW553/V1_MQTT_OK/GD32VW55X_Wifi_BLE_SDK/GD32VW55x_RELEASE_V1.0.2/MSDK/wpa_supplicant/src/tls\rsa.c **** 	struct crypto_rsa_key *key;
 768              		.loc 1 145 1 is_stmt 0
 769 0008 4111     		addi	sp,sp,-16
 770              		.cfi_def_cfa_offset 48
 145:C:/Users/stapi/OneDrive/Desktop/GD32VW553/V1_MQTT_OK/GD32VW55X_Wifi_BLE_SDK/GD32VW55x_RELEASE_V1.0.2/MSDK/wpa_supplicant/src/tls\rsa.c **** 	struct crypto_rsa_key *key;
 771              		.loc 1 145 1
 772 000a AA84     		mv	s1,a0
 151:C:/Users/stapi/OneDrive/Desktop/GD32VW553/V1_MQTT_OK/GD32VW55X_Wifi_BLE_SDK/GD32VW55x_RELEASE_V1.0.2/MSDK/wpa_supplicant/src/tls\rsa.c **** 	if (key == NULL)
 773              		.loc 1 151 8
 774 000c 13054002 		li	a0,36
 775              	.LVL102:
 145:C:/Users/stapi/OneDrive/Desktop/GD32VW553/V1_MQTT_OK/GD32VW55X_Wifi_BLE_SDK/GD32VW55x_RELEASE_V1.0.2/MSDK/wpa_supplicant/src/tls\rsa.c **** 	struct crypto_rsa_key *key;
 776              		.loc 1 145 1
 777 0010 2E89     		mv	s2,a1
 151:C:/Users/stapi/OneDrive/Desktop/GD32VW553/V1_MQTT_OK/GD32VW55X_Wifi_BLE_SDK/GD32VW55x_RELEASE_V1.0.2/MSDK/wpa_supplicant/src/tls\rsa.c **** 	if (key == NULL)
 778              		.loc 1 151 8
 779 0012 97000000 		call	os_zalloc
 779      E7800000 
 780              	.LVL103:
 781 001a 2A84     		mv	s0,a0
 782              	.LVL104:
 152:C:/Users/stapi/OneDrive/Desktop/GD32VW553/V1_MQTT_OK/GD32VW55X_Wifi_BLE_SDK/GD32VW55x_RELEASE_V1.0.2/MSDK/wpa_supplicant/src/tls\rsa.c **** 		return NULL;
 783              		.loc 1 152 2 is_stmt 1
 152:C:/Users/stapi/OneDrive/Desktop/GD32VW553/V1_MQTT_OK/GD32VW55X_Wifi_BLE_SDK/GD32VW55x_RELEASE_V1.0.2/MSDK/wpa_supplicant/src/tls\rsa.c **** 		return NULL;
 784              		.loc 1 152 5 is_stmt 0
 785 001c 41C1     		beq	a0,zero,.L81
 155:C:/Users/stapi/OneDrive/Desktop/GD32VW553/V1_MQTT_OK/GD32VW55X_Wifi_BLE_SDK/GD32VW55x_RELEASE_V1.0.2/MSDK/wpa_supplicant/src/tls\rsa.c **** 
 786              		.loc 1 155 2 is_stmt 1
 155:C:/Users/stapi/OneDrive/Desktop/GD32VW553/V1_MQTT_OK/GD32VW55X_Wifi_BLE_SDK/GD32VW55x_RELEASE_V1.0.2/MSDK/wpa_supplicant/src/tls\rsa.c **** 
 787              		.loc 1 155 19 is_stmt 0
 788 001e 8547     		li	a5,1
 789 0020 1CC1     		sw	a5,0(a0)
 157:C:/Users/stapi/OneDrive/Desktop/GD32VW553/V1_MQTT_OK/GD32VW55X_Wifi_BLE_SDK/GD32VW55x_RELEASE_V1.0.2/MSDK/wpa_supplicant/src/tls\rsa.c **** 	key->e = bignum_init();
 790              		.loc 1 157 2 is_stmt 1
 157:C:/Users/stapi/OneDrive/Desktop/GD32VW553/V1_MQTT_OK/GD32VW55X_Wifi_BLE_SDK/GD32VW55x_RELEASE_V1.0.2/MSDK/wpa_supplicant/src/tls\rsa.c **** 	key->e = bignum_init();
 791              		.loc 1 157 11 is_stmt 0
 792 0022 97000000 		call	bignum_init
 792      E7800000 
 793              	.LVL105:
 157:C:/Users/stapi/OneDrive/Desktop/GD32VW553/V1_MQTT_OK/GD32VW55X_Wifi_BLE_SDK/GD32VW55x_RELEASE_V1.0.2/MSDK/wpa_supplicant/src/tls\rsa.c **** 	key->e = bignum_init();
 794              		.loc 1 157 9
 795 002a 48C0     		sw	a0,4(s0)
 158:C:/Users/stapi/OneDrive/Desktop/GD32VW553/V1_MQTT_OK/GD32VW55X_Wifi_BLE_SDK/GD32VW55x_RELEASE_V1.0.2/MSDK/wpa_supplicant/src/tls\rsa.c **** 	key->d = bignum_init();
 796              		.loc 1 158 2 is_stmt 1
 158:C:/Users/stapi/OneDrive/Desktop/GD32VW553/V1_MQTT_OK/GD32VW55X_Wifi_BLE_SDK/GD32VW55x_RELEASE_V1.0.2/MSDK/wpa_supplicant/src/tls\rsa.c **** 	key->d = bignum_init();
 797              		.loc 1 158 11 is_stmt 0
 798 002c 97000000 		call	bignum_init
 798      E7800000 
 799              	.LVL106:
 158:C:/Users/stapi/OneDrive/Desktop/GD32VW553/V1_MQTT_OK/GD32VW55X_Wifi_BLE_SDK/GD32VW55x_RELEASE_V1.0.2/MSDK/wpa_supplicant/src/tls\rsa.c **** 	key->d = bignum_init();
 800              		.loc 1 158 9
 801 0034 08C4     		sw	a0,8(s0)
 159:C:/Users/stapi/OneDrive/Desktop/GD32VW553/V1_MQTT_OK/GD32VW55X_Wifi_BLE_SDK/GD32VW55x_RELEASE_V1.0.2/MSDK/wpa_supplicant/src/tls\rsa.c **** 	key->p = bignum_init();
 802              		.loc 1 159 2 is_stmt 1
 159:C:/Users/stapi/OneDrive/Desktop/GD32VW553/V1_MQTT_OK/GD32VW55X_Wifi_BLE_SDK/GD32VW55x_RELEASE_V1.0.2/MSDK/wpa_supplicant/src/tls\rsa.c **** 	key->p = bignum_init();
 803              		.loc 1 159 11 is_stmt 0
 804 0036 97000000 		call	bignum_init
 804      E7800000 
 805              	.LVL107:
 159:C:/Users/stapi/OneDrive/Desktop/GD32VW553/V1_MQTT_OK/GD32VW55X_Wifi_BLE_SDK/GD32VW55x_RELEASE_V1.0.2/MSDK/wpa_supplicant/src/tls\rsa.c **** 	key->p = bignum_init();
 806              		.loc 1 159 9
 807 003e 48C4     		sw	a0,12(s0)
 160:C:/Users/stapi/OneDrive/Desktop/GD32VW553/V1_MQTT_OK/GD32VW55X_Wifi_BLE_SDK/GD32VW55x_RELEASE_V1.0.2/MSDK/wpa_supplicant/src/tls\rsa.c **** 	key->q = bignum_init();
 808              		.loc 1 160 2 is_stmt 1
 160:C:/Users/stapi/OneDrive/Desktop/GD32VW553/V1_MQTT_OK/GD32VW55X_Wifi_BLE_SDK/GD32VW55x_RELEASE_V1.0.2/MSDK/wpa_supplicant/src/tls\rsa.c **** 	key->q = bignum_init();
 809              		.loc 1 160 11 is_stmt 0
 810 0040 97000000 		call	bignum_init
 810      E7800000 
 811              	.LVL108:
 160:C:/Users/stapi/OneDrive/Desktop/GD32VW553/V1_MQTT_OK/GD32VW55X_Wifi_BLE_SDK/GD32VW55x_RELEASE_V1.0.2/MSDK/wpa_supplicant/src/tls\rsa.c **** 	key->q = bignum_init();
 812              		.loc 1 160 9
 813 0048 08C8     		sw	a0,16(s0)
 161:C:/Users/stapi/OneDrive/Desktop/GD32VW553/V1_MQTT_OK/GD32VW55X_Wifi_BLE_SDK/GD32VW55x_RELEASE_V1.0.2/MSDK/wpa_supplicant/src/tls\rsa.c **** 	key->dmp1 = bignum_init();
 814              		.loc 1 161 2 is_stmt 1
 161:C:/Users/stapi/OneDrive/Desktop/GD32VW553/V1_MQTT_OK/GD32VW55X_Wifi_BLE_SDK/GD32VW55x_RELEASE_V1.0.2/MSDK/wpa_supplicant/src/tls\rsa.c **** 	key->dmp1 = bignum_init();
 815              		.loc 1 161 11 is_stmt 0
 816 004a 97000000 		call	bignum_init
 816      E7800000 
 817              	.LVL109:
 161:C:/Users/stapi/OneDrive/Desktop/GD32VW553/V1_MQTT_OK/GD32VW55X_Wifi_BLE_SDK/GD32VW55x_RELEASE_V1.0.2/MSDK/wpa_supplicant/src/tls\rsa.c **** 	key->dmp1 = bignum_init();
 818              		.loc 1 161 9
 819 0052 48C8     		sw	a0,20(s0)
 162:C:/Users/stapi/OneDrive/Desktop/GD32VW553/V1_MQTT_OK/GD32VW55X_Wifi_BLE_SDK/GD32VW55x_RELEASE_V1.0.2/MSDK/wpa_supplicant/src/tls\rsa.c **** 	key->dmq1 = bignum_init();
 820              		.loc 1 162 2 is_stmt 1
 162:C:/Users/stapi/OneDrive/Desktop/GD32VW553/V1_MQTT_OK/GD32VW55X_Wifi_BLE_SDK/GD32VW55x_RELEASE_V1.0.2/MSDK/wpa_supplicant/src/tls\rsa.c **** 	key->dmq1 = bignum_init();
 821              		.loc 1 162 14 is_stmt 0
 822 0054 97000000 		call	bignum_init
 822      E7800000 
 823              	.LVL110:
 162:C:/Users/stapi/OneDrive/Desktop/GD32VW553/V1_MQTT_OK/GD32VW55X_Wifi_BLE_SDK/GD32VW55x_RELEASE_V1.0.2/MSDK/wpa_supplicant/src/tls\rsa.c **** 	key->dmq1 = bignum_init();
 824              		.loc 1 162 12
 825 005c 08CC     		sw	a0,24(s0)
 163:C:/Users/stapi/OneDrive/Desktop/GD32VW553/V1_MQTT_OK/GD32VW55X_Wifi_BLE_SDK/GD32VW55x_RELEASE_V1.0.2/MSDK/wpa_supplicant/src/tls\rsa.c **** 	key->iqmp = bignum_init();
 826              		.loc 1 163 2 is_stmt 1
 163:C:/Users/stapi/OneDrive/Desktop/GD32VW553/V1_MQTT_OK/GD32VW55X_Wifi_BLE_SDK/GD32VW55x_RELEASE_V1.0.2/MSDK/wpa_supplicant/src/tls\rsa.c **** 	key->iqmp = bignum_init();
 827              		.loc 1 163 14 is_stmt 0
 828 005e 97000000 		call	bignum_init
 828      E7800000 
 829              	.LVL111:
 163:C:/Users/stapi/OneDrive/Desktop/GD32VW553/V1_MQTT_OK/GD32VW55X_Wifi_BLE_SDK/GD32VW55x_RELEASE_V1.0.2/MSDK/wpa_supplicant/src/tls\rsa.c **** 	key->iqmp = bignum_init();
 830              		.loc 1 163 12
 831 0066 48CC     		sw	a0,28(s0)
 164:C:/Users/stapi/OneDrive/Desktop/GD32VW553/V1_MQTT_OK/GD32VW55X_Wifi_BLE_SDK/GD32VW55x_RELEASE_V1.0.2/MSDK/wpa_supplicant/src/tls\rsa.c **** 
 832              		.loc 1 164 2 is_stmt 1
 164:C:/Users/stapi/OneDrive/Desktop/GD32VW553/V1_MQTT_OK/GD32VW55X_Wifi_BLE_SDK/GD32VW55x_RELEASE_V1.0.2/MSDK/wpa_supplicant/src/tls\rsa.c **** 
 833              		.loc 1 164 14 is_stmt 0
 834 0068 97000000 		call	bignum_init
 834      E7800000 
 835              	.LVL112:
 166:C:/Users/stapi/OneDrive/Desktop/GD32VW553/V1_MQTT_OK/GD32VW55X_Wifi_BLE_SDK/GD32VW55x_RELEASE_V1.0.2/MSDK/wpa_supplicant/src/tls\rsa.c **** 	    key->p == NULL || key->q == NULL || key->dmp1 == NULL ||
 836              		.loc 1 166 5
 837 0070 5C40     		lw	a5,4(s0)
 164:C:/Users/stapi/OneDrive/Desktop/GD32VW553/V1_MQTT_OK/GD32VW55X_Wifi_BLE_SDK/GD32VW55x_RELEASE_V1.0.2/MSDK/wpa_supplicant/src/tls\rsa.c **** 
 838              		.loc 1 164 12
 839 0072 08D0     		sw	a0,32(s0)
 166:C:/Users/stapi/OneDrive/Desktop/GD32VW553/V1_MQTT_OK/GD32VW55X_Wifi_BLE_SDK/GD32VW55x_RELEASE_V1.0.2/MSDK/wpa_supplicant/src/tls\rsa.c **** 	    key->p == NULL || key->q == NULL || key->dmp1 == NULL ||
 840              		.loc 1 166 2 is_stmt 1
 166:C:/Users/stapi/OneDrive/Desktop/GD32VW553/V1_MQTT_OK/GD32VW55X_Wifi_BLE_SDK/GD32VW55x_RELEASE_V1.0.2/MSDK/wpa_supplicant/src/tls\rsa.c **** 	    key->p == NULL || key->q == NULL || key->dmp1 == NULL ||
 841              		.loc 1 166 5 is_stmt 0
 842 0074 91CF     		beq	a5,zero,.L87
 166:C:/Users/stapi/OneDrive/Desktop/GD32VW553/V1_MQTT_OK/GD32VW55X_Wifi_BLE_SDK/GD32VW55x_RELEASE_V1.0.2/MSDK/wpa_supplicant/src/tls\rsa.c **** 	    key->p == NULL || key->q == NULL || key->dmp1 == NULL ||
 843              		.loc 1 166 21 discriminator 1
 844 0076 1C44     		lw	a5,8(s0)
 845 0078 81CF     		beq	a5,zero,.L87
 166:C:/Users/stapi/OneDrive/Desktop/GD32VW553/V1_MQTT_OK/GD32VW55X_Wifi_BLE_SDK/GD32VW55x_RELEASE_V1.0.2/MSDK/wpa_supplicant/src/tls\rsa.c **** 	    key->p == NULL || key->q == NULL || key->dmp1 == NULL ||
 846              		.loc 1 166 39 discriminator 2
 847 007a 5C44     		lw	a5,12(s0)
 848 007c 91CB     		beq	a5,zero,.L87
 166:C:/Users/stapi/OneDrive/Desktop/GD32VW553/V1_MQTT_OK/GD32VW55X_Wifi_BLE_SDK/GD32VW55x_RELEASE_V1.0.2/MSDK/wpa_supplicant/src/tls\rsa.c **** 	    key->p == NULL || key->q == NULL || key->dmp1 == NULL ||
 849              		.loc 1 166 57 discriminator 3
 850 007e 1C48     		lw	a5,16(s0)
 851 0080 81CB     		beq	a5,zero,.L87
 167:C:/Users/stapi/OneDrive/Desktop/GD32VW553/V1_MQTT_OK/GD32VW55X_Wifi_BLE_SDK/GD32VW55x_RELEASE_V1.0.2/MSDK/wpa_supplicant/src/tls\rsa.c **** 	    key->dmq1 == NULL || key->iqmp == NULL) {
 852              		.loc 1 167 21
 853 0082 5C48     		lw	a5,20(s0)
 854 0084 91C7     		beq	a5,zero,.L87
 167:C:/Users/stapi/OneDrive/Desktop/GD32VW553/V1_MQTT_OK/GD32VW55X_Wifi_BLE_SDK/GD32VW55x_RELEASE_V1.0.2/MSDK/wpa_supplicant/src/tls\rsa.c **** 	    key->dmq1 == NULL || key->iqmp == NULL) {
 855              		.loc 1 167 39 discriminator 1
 856 0086 1C4C     		lw	a5,24(s0)
 857 0088 81C7     		beq	a5,zero,.L87
 167:C:/Users/stapi/OneDrive/Desktop/GD32VW553/V1_MQTT_OK/GD32VW55X_Wifi_BLE_SDK/GD32VW55x_RELEASE_V1.0.2/MSDK/wpa_supplicant/src/tls\rsa.c **** 	    key->dmq1 == NULL || key->iqmp == NULL) {
 858              		.loc 1 167 60 discriminator 2
 859 008a 5C4C     		lw	a5,28(s0)
 860 008c 91C3     		beq	a5,zero,.L87
 168:C:/Users/stapi/OneDrive/Desktop/GD32VW553/V1_MQTT_OK/GD32VW55X_Wifi_BLE_SDK/GD32VW55x_RELEASE_V1.0.2/MSDK/wpa_supplicant/src/tls\rsa.c **** 		crypto_rsa_free(key);
 861              		.loc 1 168 24
 862 008e 09ED     		bne	a0,zero,.L84
 863              	.LVL113:
 864              	.L87:
 230:C:/Users/stapi/OneDrive/Desktop/GD32VW553/V1_MQTT_OK/GD32VW55X_Wifi_BLE_SDK/GD32VW55x_RELEASE_V1.0.2/MSDK/wpa_supplicant/src/tls\rsa.c **** 	return NULL;
 865              		.loc 1 230 2 is_stmt 1
 866 0090 2285     		mv	a0,s0
 867 0092 97000000 		call	crypto_rsa_free
 867      E7800000 
 868              	.LVL114:
 231:C:/Users/stapi/OneDrive/Desktop/GD32VW553/V1_MQTT_OK/GD32VW55X_Wifi_BLE_SDK/GD32VW55x_RELEASE_V1.0.2/MSDK/wpa_supplicant/src/tls\rsa.c **** }
 869              		.loc 1 231 2
 231:C:/Users/stapi/OneDrive/Desktop/GD32VW553/V1_MQTT_OK/GD32VW55X_Wifi_BLE_SDK/GD32VW55x_RELEASE_V1.0.2/MSDK/wpa_supplicant/src/tls\rsa.c **** }
 870              		.loc 1 231 9 is_stmt 0
 871 009a 0144     		li	s0,0
 872              	.LVL115:
 873              	.L81:
 232:C:/Users/stapi/OneDrive/Desktop/GD32VW553/V1_MQTT_OK/GD32VW55X_Wifi_BLE_SDK/GD32VW55x_RELEASE_V1.0.2/MSDK/wpa_supplicant/src/tls\rsa.c **** 
 874              		.loc 1 232 1
 875 009c 2285     		mv	a0,s0
 876 009e 4101     		addi	sp,sp,16
 877              		.cfi_remember_state
 878              		.cfi_def_cfa_offset 0
 879 00a0 17030000 		tail	__riscv_restore_4
 879      67000300 
 880              		.cfi_restore 19
 881              		.cfi_restore 18
 882              		.cfi_restore 9
 883              		.cfi_restore 8
 884              		.cfi_restore 1
 885              		.cfi_def_cfa_offset -32
 886              	.LVL116:
 887              	.L84:
 888              		.cfi_restore_state
 189:C:/Users/stapi/OneDrive/Desktop/GD32VW553/V1_MQTT_OK/GD32VW55X_Wifi_BLE_SDK/GD32VW55x_RELEASE_V1.0.2/MSDK/wpa_supplicant/src/tls\rsa.c **** 		asn1_unexpected(&hdr, "RSA: Expected SEQUENCE (public key)");
 889              		.loc 1 189 2 is_stmt 1
 189:C:/Users/stapi/OneDrive/Desktop/GD32VW553/V1_MQTT_OK/GD32VW55X_Wifi_BLE_SDK/GD32VW55x_RELEASE_V1.0.2/MSDK/wpa_supplicant/src/tls\rsa.c **** 		asn1_unexpected(&hdr, "RSA: Expected SEQUENCE (public key)");
 890              		.loc 1 189 6 is_stmt 0
 891 00a8 0A86     		mv	a2,sp
 892 00aa CA85     		mv	a1,s2
 893 00ac 2685     		mv	a0,s1
 894 00ae 97000000 		call	asn1_get_next
 894      E7800000 
 895              	.LVL117:
 189:C:/Users/stapi/OneDrive/Desktop/GD32VW553/V1_MQTT_OK/GD32VW55X_Wifi_BLE_SDK/GD32VW55x_RELEASE_V1.0.2/MSDK/wpa_supplicant/src/tls\rsa.c **** 		asn1_unexpected(&hdr, "RSA: Expected SEQUENCE (public key)");
 896              		.loc 1 189 5
 897 00b6 634A0504 		blt	a0,zero,.L85
 898              	.LVL118:
 899              	.LBB16:
 900              	.LBB17:
 901              		.loc 2 114 2 is_stmt 1
 902              		.loc 2 114 44 is_stmt 0
 903 00ba 83475100 		lbu	a5,5(sp)
 904 00be B1E7     		bne	a5,zero,.L85
 905 00c0 2247     		lw	a4,8(sp)
 906 00c2 C147     		li	a5,16
 907 00c4 6313F704 		bne	a4,a5,.L85
 908              	.LVL119:
 909              	.LBE17:
 910              	.LBE16:
 193:C:/Users/stapi/OneDrive/Desktop/GD32VW553/V1_MQTT_OK/GD32VW55X_Wifi_BLE_SDK/GD32VW55x_RELEASE_V1.0.2/MSDK/wpa_supplicant/src/tls\rsa.c **** 	end = pos + hdr.length;
 911              		.loc 1 193 2 is_stmt 1
 193:C:/Users/stapi/OneDrive/Desktop/GD32VW553/V1_MQTT_OK/GD32VW55X_Wifi_BLE_SDK/GD32VW55x_RELEASE_V1.0.2/MSDK/wpa_supplicant/src/tls\rsa.c **** 	end = pos + hdr.length;
 912              		.loc 1 193 6 is_stmt 0
 913 00c8 8249     		lw	s3,0(sp)
 914              	.LVL120:
 194:C:/Users/stapi/OneDrive/Desktop/GD32VW553/V1_MQTT_OK/GD32VW55X_Wifi_BLE_SDK/GD32VW55x_RELEASE_V1.0.2/MSDK/wpa_supplicant/src/tls\rsa.c **** 
 915              		.loc 1 194 2 is_stmt 1
 194:C:/Users/stapi/OneDrive/Desktop/GD32VW553/V1_MQTT_OK/GD32VW55X_Wifi_BLE_SDK/GD32VW55x_RELEASE_V1.0.2/MSDK/wpa_supplicant/src/tls\rsa.c **** 
 916              		.loc 1 194 6 is_stmt 0
 917 00ca B244     		lw	s1,12(sp)
 918              	.LVL121:
 196:C:/Users/stapi/OneDrive/Desktop/GD32VW553/V1_MQTT_OK/GD32VW55X_Wifi_BLE_SDK/GD32VW55x_RELEASE_V1.0.2/MSDK/wpa_supplicant/src/tls\rsa.c **** 	if (zero == NULL)
 919              		.loc 1 196 9
 920 00cc 97000000 		call	bignum_init
 920      E7800000 
 921              	.LVL122:
 922 00d4 2A89     		mv	s2,a0
 923              	.LVL123:
 194:C:/Users/stapi/OneDrive/Desktop/GD32VW553/V1_MQTT_OK/GD32VW55X_Wifi_BLE_SDK/GD32VW55x_RELEASE_V1.0.2/MSDK/wpa_supplicant/src/tls\rsa.c **** 
 924              		.loc 1 194 6
 925 00d6 CE94     		add	s1,s3,s1
 926              	.LVL124:
 196:C:/Users/stapi/OneDrive/Desktop/GD32VW553/V1_MQTT_OK/GD32VW55X_Wifi_BLE_SDK/GD32VW55x_RELEASE_V1.0.2/MSDK/wpa_supplicant/src/tls\rsa.c **** 	if (zero == NULL)
 927              		.loc 1 196 2 is_stmt 1
 197:C:/Users/stapi/OneDrive/Desktop/GD32VW553/V1_MQTT_OK/GD32VW55X_Wifi_BLE_SDK/GD32VW55x_RELEASE_V1.0.2/MSDK/wpa_supplicant/src/tls\rsa.c **** 		goto error;
 928              		.loc 1 197 2
 197:C:/Users/stapi/OneDrive/Desktop/GD32VW553/V1_MQTT_OK/GD32VW55X_Wifi_BLE_SDK/GD32VW55x_RELEASE_V1.0.2/MSDK/wpa_supplicant/src/tls\rsa.c **** 		goto error;
 929              		.loc 1 197 5 is_stmt 0
 930 00d8 45DD     		beq	a0,zero,.L87
 199:C:/Users/stapi/OneDrive/Desktop/GD32VW553/V1_MQTT_OK/GD32VW55X_Wifi_BLE_SDK/GD32VW55x_RELEASE_V1.0.2/MSDK/wpa_supplicant/src/tls\rsa.c **** 	if (pos == NULL || bignum_cmp_d(zero, 0) != 0) {
 931              		.loc 1 199 2 is_stmt 1
 199:C:/Users/stapi/OneDrive/Desktop/GD32VW553/V1_MQTT_OK/GD32VW55X_Wifi_BLE_SDK/GD32VW55x_RELEASE_V1.0.2/MSDK/wpa_supplicant/src/tls\rsa.c **** 	if (pos == NULL || bignum_cmp_d(zero, 0) != 0) {
 932              		.loc 1 199 8 is_stmt 0
 933 00da 2A86     		mv	a2,a0
 934 00dc A685     		mv	a1,s1
 935 00de 4E85     		mv	a0,s3
 936              	.LVL125:
 937 00e0 97000000 		call	crypto_rsa_parse_integer
 937      E7800000 
 938              	.LVL126:
 939 00e8 AA89     		mv	s3,a0
 940              	.LVL127:
 200:C:/Users/stapi/OneDrive/Desktop/GD32VW553/V1_MQTT_OK/GD32VW55X_Wifi_BLE_SDK/GD32VW55x_RELEASE_V1.0.2/MSDK/wpa_supplicant/src/tls\rsa.c **** 		wpa_printf(MSG_DEBUG, "RSA: Expected zero INTEGER in the "
 941              		.loc 1 200 2 is_stmt 1
 200:C:/Users/stapi/OneDrive/Desktop/GD32VW553/V1_MQTT_OK/GD32VW55X_Wifi_BLE_SDK/GD32VW55x_RELEASE_V1.0.2/MSDK/wpa_supplicant/src/tls\rsa.c **** 		wpa_printf(MSG_DEBUG, "RSA: Expected zero INTEGER in the "
 942              		.loc 1 200 5 is_stmt 0
 943 00ea 15E9     		bne	a0,zero,.L88
 944              	.LVL128:
 945              	.L89:
 201:C:/Users/stapi/OneDrive/Desktop/GD32VW553/V1_MQTT_OK/GD32VW55X_Wifi_BLE_SDK/GD32VW55x_RELEASE_V1.0.2/MSDK/wpa_supplicant/src/tls\rsa.c **** 			   "beginning of private key; not found");
 946              		.loc 1 201 3 is_stmt 1
 947 00ec B7050000 		lui	a1,%hi(.LC4)
 948 00f0 93850500 		addi	a1,a1,%lo(.LC4)
 949 00f4 0945     		li	a0,2
 950 00f6 97000000 		call	wpa_printf
 950      E7800000 
 951              	.LVL129:
 203:C:/Users/stapi/OneDrive/Desktop/GD32VW553/V1_MQTT_OK/GD32VW55X_Wifi_BLE_SDK/GD32VW55x_RELEASE_V1.0.2/MSDK/wpa_supplicant/src/tls\rsa.c **** 		goto error;
 952              		.loc 1 203 3
 953 00fe 4A85     		mv	a0,s2
 954 0100 97000000 		call	bignum_deinit
 954      E7800000 
 955              	.LVL130:
 204:C:/Users/stapi/OneDrive/Desktop/GD32VW553/V1_MQTT_OK/GD32VW55X_Wifi_BLE_SDK/GD32VW55x_RELEASE_V1.0.2/MSDK/wpa_supplicant/src/tls\rsa.c **** 	}
 956              		.loc 1 204 3
 957 0108 61B7     		j	.L87
 958              	.LVL131:
 959              	.L85:
 190:C:/Users/stapi/OneDrive/Desktop/GD32VW553/V1_MQTT_OK/GD32VW55X_Wifi_BLE_SDK/GD32VW55x_RELEASE_V1.0.2/MSDK/wpa_supplicant/src/tls\rsa.c **** 		goto error;
 960              		.loc 1 190 3
 961 010a B7050000 		lui	a1,%hi(.LC2)
 962 010e 93850500 		addi	a1,a1,%lo(.LC2)
 963 0112 0A85     		mv	a0,sp
 964 0114 97000000 		call	asn1_unexpected
 964      E7800000 
 965              	.LVL132:
 191:C:/Users/stapi/OneDrive/Desktop/GD32VW553/V1_MQTT_OK/GD32VW55X_Wifi_BLE_SDK/GD32VW55x_RELEASE_V1.0.2/MSDK/wpa_supplicant/src/tls\rsa.c **** 	}
 966              		.loc 1 191 3
 967 011c 95BF     		j	.L87
 968              	.LVL133:
 969              	.L88:
 200:C:/Users/stapi/OneDrive/Desktop/GD32VW553/V1_MQTT_OK/GD32VW55X_Wifi_BLE_SDK/GD32VW55x_RELEASE_V1.0.2/MSDK/wpa_supplicant/src/tls\rsa.c **** 		wpa_printf(MSG_DEBUG, "RSA: Expected zero INTEGER in the "
 970              		.loc 1 200 21 is_stmt 0 discriminator 1
 971 011e 8145     		li	a1,0
 972 0120 4A85     		mv	a0,s2
 973              	.LVL134:
 974 0122 97000000 		call	bignum_cmp_d
 974      E7800000 
 975              	.LVL135:
 200:C:/Users/stapi/OneDrive/Desktop/GD32VW553/V1_MQTT_OK/GD32VW55X_Wifi_BLE_SDK/GD32VW55x_RELEASE_V1.0.2/MSDK/wpa_supplicant/src/tls\rsa.c **** 		wpa_printf(MSG_DEBUG, "RSA: Expected zero INTEGER in the "
 976              		.loc 1 200 18 discriminator 1
 977 012a 69F1     		bne	a0,zero,.L89
 206:C:/Users/stapi/OneDrive/Desktop/GD32VW553/V1_MQTT_OK/GD32VW55X_Wifi_BLE_SDK/GD32VW55x_RELEASE_V1.0.2/MSDK/wpa_supplicant/src/tls\rsa.c **** 
 978              		.loc 1 206 2 is_stmt 1
 979 012c 4A85     		mv	a0,s2
 980 012e 97000000 		call	bignum_deinit
 980      E7800000 
 981              	.LVL136:
 208:C:/Users/stapi/OneDrive/Desktop/GD32VW553/V1_MQTT_OK/GD32VW55X_Wifi_BLE_SDK/GD32VW55x_RELEASE_V1.0.2/MSDK/wpa_supplicant/src/tls\rsa.c **** 	pos = crypto_rsa_parse_integer(pos, end, key->e);
 982              		.loc 1 208 2
 208:C:/Users/stapi/OneDrive/Desktop/GD32VW553/V1_MQTT_OK/GD32VW55X_Wifi_BLE_SDK/GD32VW55x_RELEASE_V1.0.2/MSDK/wpa_supplicant/src/tls\rsa.c **** 	pos = crypto_rsa_parse_integer(pos, end, key->e);
 983              		.loc 1 208 8 is_stmt 0
 984 0136 5040     		lw	a2,4(s0)
 985 0138 A685     		mv	a1,s1
 986 013a 4E85     		mv	a0,s3
 987 013c 97000000 		call	crypto_rsa_parse_integer
 987      E7800000 
 988              	.LVL137:
 209:C:/Users/stapi/OneDrive/Desktop/GD32VW553/V1_MQTT_OK/GD32VW55X_Wifi_BLE_SDK/GD32VW55x_RELEASE_V1.0.2/MSDK/wpa_supplicant/src/tls\rsa.c **** 	pos = crypto_rsa_parse_integer(pos, end, key->d);
 989              		.loc 1 209 2 is_stmt 1
 209:C:/Users/stapi/OneDrive/Desktop/GD32VW553/V1_MQTT_OK/GD32VW55X_Wifi_BLE_SDK/GD32VW55x_RELEASE_V1.0.2/MSDK/wpa_supplicant/src/tls\rsa.c **** 	pos = crypto_rsa_parse_integer(pos, end, key->d);
 990              		.loc 1 209 8 is_stmt 0
 991 0144 1044     		lw	a2,8(s0)
 992 0146 A685     		mv	a1,s1
 993 0148 97000000 		call	crypto_rsa_parse_integer
 993      E7800000 
 994              	.LVL138:
 210:C:/Users/stapi/OneDrive/Desktop/GD32VW553/V1_MQTT_OK/GD32VW55X_Wifi_BLE_SDK/GD32VW55x_RELEASE_V1.0.2/MSDK/wpa_supplicant/src/tls\rsa.c **** 	pos = crypto_rsa_parse_integer(pos, end, key->p);
 995              		.loc 1 210 2 is_stmt 1
 210:C:/Users/stapi/OneDrive/Desktop/GD32VW553/V1_MQTT_OK/GD32VW55X_Wifi_BLE_SDK/GD32VW55x_RELEASE_V1.0.2/MSDK/wpa_supplicant/src/tls\rsa.c **** 	pos = crypto_rsa_parse_integer(pos, end, key->p);
 996              		.loc 1 210 8 is_stmt 0
 997 0150 5044     		lw	a2,12(s0)
 998 0152 A685     		mv	a1,s1
 999 0154 97000000 		call	crypto_rsa_parse_integer
 999      E7800000 
 1000              	.LVL139:
 211:C:/Users/stapi/OneDrive/Desktop/GD32VW553/V1_MQTT_OK/GD32VW55X_Wifi_BLE_SDK/GD32VW55x_RELEASE_V1.0.2/MSDK/wpa_supplicant/src/tls\rsa.c **** 	pos = crypto_rsa_parse_integer(pos, end, key->q);
 1001              		.loc 1 211 2 is_stmt 1
 211:C:/Users/stapi/OneDrive/Desktop/GD32VW553/V1_MQTT_OK/GD32VW55X_Wifi_BLE_SDK/GD32VW55x_RELEASE_V1.0.2/MSDK/wpa_supplicant/src/tls\rsa.c **** 	pos = crypto_rsa_parse_integer(pos, end, key->q);
 1002              		.loc 1 211 8 is_stmt 0
 1003 015c 1048     		lw	a2,16(s0)
 1004 015e A685     		mv	a1,s1
 1005 0160 97000000 		call	crypto_rsa_parse_integer
 1005      E7800000 
 1006              	.LVL140:
 212:C:/Users/stapi/OneDrive/Desktop/GD32VW553/V1_MQTT_OK/GD32VW55X_Wifi_BLE_SDK/GD32VW55x_RELEASE_V1.0.2/MSDK/wpa_supplicant/src/tls\rsa.c **** 	pos = crypto_rsa_parse_integer(pos, end, key->dmp1);
 1007              		.loc 1 212 2 is_stmt 1
 212:C:/Users/stapi/OneDrive/Desktop/GD32VW553/V1_MQTT_OK/GD32VW55X_Wifi_BLE_SDK/GD32VW55x_RELEASE_V1.0.2/MSDK/wpa_supplicant/src/tls\rsa.c **** 	pos = crypto_rsa_parse_integer(pos, end, key->dmp1);
 1008              		.loc 1 212 8 is_stmt 0
 1009 0168 5048     		lw	a2,20(s0)
 1010 016a A685     		mv	a1,s1
 1011 016c 97000000 		call	crypto_rsa_parse_integer
 1011      E7800000 
 1012              	.LVL141:
 213:C:/Users/stapi/OneDrive/Desktop/GD32VW553/V1_MQTT_OK/GD32VW55X_Wifi_BLE_SDK/GD32VW55x_RELEASE_V1.0.2/MSDK/wpa_supplicant/src/tls\rsa.c **** 	pos = crypto_rsa_parse_integer(pos, end, key->dmq1);
 1013              		.loc 1 213 2 is_stmt 1
 213:C:/Users/stapi/OneDrive/Desktop/GD32VW553/V1_MQTT_OK/GD32VW55X_Wifi_BLE_SDK/GD32VW55x_RELEASE_V1.0.2/MSDK/wpa_supplicant/src/tls\rsa.c **** 	pos = crypto_rsa_parse_integer(pos, end, key->dmq1);
 1014              		.loc 1 213 8 is_stmt 0
 1015 0174 104C     		lw	a2,24(s0)
 1016 0176 A685     		mv	a1,s1
 1017 0178 97000000 		call	crypto_rsa_parse_integer
 1017      E7800000 
 1018              	.LVL142:
 214:C:/Users/stapi/OneDrive/Desktop/GD32VW553/V1_MQTT_OK/GD32VW55X_Wifi_BLE_SDK/GD32VW55x_RELEASE_V1.0.2/MSDK/wpa_supplicant/src/tls\rsa.c **** 	pos = crypto_rsa_parse_integer(pos, end, key->iqmp);
 1019              		.loc 1 214 2 is_stmt 1
 214:C:/Users/stapi/OneDrive/Desktop/GD32VW553/V1_MQTT_OK/GD32VW55X_Wifi_BLE_SDK/GD32VW55x_RELEASE_V1.0.2/MSDK/wpa_supplicant/src/tls\rsa.c **** 	pos = crypto_rsa_parse_integer(pos, end, key->iqmp);
 1020              		.loc 1 214 8 is_stmt 0
 1021 0180 504C     		lw	a2,28(s0)
 1022 0182 A685     		mv	a1,s1
 1023 0184 97000000 		call	crypto_rsa_parse_integer
 1023      E7800000 
 1024              	.LVL143:
 215:C:/Users/stapi/OneDrive/Desktop/GD32VW553/V1_MQTT_OK/GD32VW55X_Wifi_BLE_SDK/GD32VW55x_RELEASE_V1.0.2/MSDK/wpa_supplicant/src/tls\rsa.c **** 
 1025              		.loc 1 215 2 is_stmt 1
 215:C:/Users/stapi/OneDrive/Desktop/GD32VW553/V1_MQTT_OK/GD32VW55X_Wifi_BLE_SDK/GD32VW55x_RELEASE_V1.0.2/MSDK/wpa_supplicant/src/tls\rsa.c **** 
 1026              		.loc 1 215 8 is_stmt 0
 1027 018c 1050     		lw	a2,32(s0)
 1028 018e A685     		mv	a1,s1
 1029 0190 97000000 		call	crypto_rsa_parse_integer
 1029      E7800000 
 1030              	.LVL144:
 1031 0198 2A86     		mv	a2,a0
 1032              	.LVL145:
 217:C:/Users/stapi/OneDrive/Desktop/GD32VW553/V1_MQTT_OK/GD32VW55X_Wifi_BLE_SDK/GD32VW55x_RELEASE_V1.0.2/MSDK/wpa_supplicant/src/tls\rsa.c **** 		goto error;
 1033              		.loc 1 217 2 is_stmt 1
 217:C:/Users/stapi/OneDrive/Desktop/GD32VW553/V1_MQTT_OK/GD32VW55X_Wifi_BLE_SDK/GD32VW55x_RELEASE_V1.0.2/MSDK/wpa_supplicant/src/tls\rsa.c **** 		goto error;
 1034              		.loc 1 217 5 is_stmt 0
 1035 019a E30B05EE 		beq	a0,zero,.L87
 220:C:/Users/stapi/OneDrive/Desktop/GD32VW553/V1_MQTT_OK/GD32VW55X_Wifi_BLE_SDK/GD32VW55x_RELEASE_V1.0.2/MSDK/wpa_supplicant/src/tls\rsa.c **** 		wpa_hexdump(MSG_DEBUG,
 1036              		.loc 1 220 2 is_stmt 1
 220:C:/Users/stapi/OneDrive/Desktop/GD32VW553/V1_MQTT_OK/GD32VW55X_Wifi_BLE_SDK/GD32VW55x_RELEASE_V1.0.2/MSDK/wpa_supplicant/src/tls\rsa.c **** 		wpa_hexdump(MSG_DEBUG,
 1037              		.loc 1 220 5 is_stmt 0
 1038 019e E38FA4EE 		beq	s1,a0,.L81
 221:C:/Users/stapi/OneDrive/Desktop/GD32VW553/V1_MQTT_OK/GD32VW55X_Wifi_BLE_SDK/GD32VW55x_RELEASE_V1.0.2/MSDK/wpa_supplicant/src/tls\rsa.c **** 			    "RSA: Extra data in public key SEQUENCE",
 1039              		.loc 1 221 3 is_stmt 1
 1040 01a2 B7050000 		lui	a1,%hi(.LC3)
 1041 01a6 B386A440 		sub	a3,s1,a0
 1042 01aa 93850500 		addi	a1,a1,%lo(.LC3)
 1043 01ae 0945     		li	a0,2
 1044              	.LVL146:
 1045 01b0 97000000 		call	wpa_hexdump
 1045      E7800000 
 1046              	.LVL147:
 224:C:/Users/stapi/OneDrive/Desktop/GD32VW553/V1_MQTT_OK/GD32VW55X_Wifi_BLE_SDK/GD32VW55x_RELEASE_V1.0.2/MSDK/wpa_supplicant/src/tls\rsa.c **** 	}
 1047              		.loc 1 224 3
 1048 01b8 E1BD     		j	.L87
 1049              		.cfi_endproc
 1050              	.LFE89:
 1052              		.text
 1053              	.Letext0:
 1054              		.file 3 "c:\\users\\stapi\\onedrive\\desktop\\gd32vw553\\embeddedbuilder_v1.4.7.26843\\tools\\nucl
 1055              		.file 4 "c:\\users\\stapi\\onedrive\\desktop\\gd32vw553\\embeddedbuilder_v1.4.7.26843\\tools\\nucl
 1056              		.file 5 "c:\\users\\stapi\\onedrive\\desktop\\gd32vw553\\embeddedbuilder_v1.4.7.26843\\tools\\nucl
 1057              		.file 6 "C:/Users/stapi/OneDrive/Desktop/GD32VW553/V1_MQTT_OK/GD32VW55X_Wifi_BLE_SDK/GD32VW55x_REL
 1058              		.file 7 "..\\..\\..\\..\\wpa_supplicant\\src\\utils/os.h"
 1059              		.file 8 "..\\..\\..\\..\\wpa_supplicant\\src\\utils/wpa_debug.h"
 1060              		.file 9 "..\\..\\..\\..\\wpa_supplicant\\src\\utils/common.h"
DEFINED SYMBOLS
                            *ABS*:0000000000000000 rsa.c
C:\Users\stapi\AppData\Local\Temp\cc4uEmAj.s:19     .text.crypto_rsa_parse_integer:0000000000000000 crypto_rsa_parse_integer
C:\Users\stapi\AppData\Local\Temp\cc4uEmAj.s:23     .text.crypto_rsa_parse_integer:0000000000000000 .L0 
C:\Users\stapi\AppData\Local\Temp\cc4uEmAj.s:25     .text.crypto_rsa_parse_integer:0000000000000000 .L0 
C:\Users\stapi\AppData\Local\Temp\cc4uEmAj.s:26     .text.crypto_rsa_parse_integer:0000000000000000 .L0 
C:\Users\stapi\AppData\Local\Temp\cc4uEmAj.s:27     .text.crypto_rsa_parse_integer:0000000000000000 .L0 
C:\Users\stapi\AppData\Local\Temp\cc4uEmAj.s:28     .text.crypto_rsa_parse_integer:0000000000000000 .L0 
C:\Users\stapi\AppData\Local\Temp\cc4uEmAj.s:30     .text.crypto_rsa_parse_integer:0000000000000002 .L0 
C:\Users\stapi\AppData\Local\Temp\cc4uEmAj.s:31     .text.crypto_rsa_parse_integer:000000000000000a .L0 
C:\Users\stapi\AppData\Local\Temp\cc4uEmAj.s:32     .text.crypto_rsa_parse_integer:000000000000000a .L0 
C:\Users\stapi\AppData\Local\Temp\cc4uEmAj.s:33     .text.crypto_rsa_parse_integer:000000000000000a .L0 
C:\Users\stapi\AppData\Local\Temp\cc4uEmAj.s:35     .text.crypto_rsa_parse_integer:000000000000000c .L0 
C:\Users\stapi\AppData\Local\Temp\cc4uEmAj.s:38     .text.crypto_rsa_parse_integer:000000000000000e .L0 
C:\Users\stapi\AppData\Local\Temp\cc4uEmAj.s:39     .text.crypto_rsa_parse_integer:000000000000000e .L0 
C:\Users\stapi\AppData\Local\Temp\cc4uEmAj.s:46     .text.crypto_rsa_parse_integer:000000000000001a .L0 
C:\Users\stapi\AppData\Local\Temp\cc4uEmAj.s:52     .text.crypto_rsa_parse_integer:000000000000001e .L0 
C:\Users\stapi\AppData\Local\Temp\cc4uEmAj.s:53     .text.crypto_rsa_parse_integer:000000000000001e .L0 
C:\Users\stapi\AppData\Local\Temp\cc4uEmAj.s:62     .text.crypto_rsa_parse_integer:000000000000002c .L0 
C:\Users\stapi\AppData\Local\Temp\cc4uEmAj.s:63     .text.crypto_rsa_parse_integer:000000000000002c .L0 
C:\Users\stapi\AppData\Local\Temp\cc4uEmAj.s:69     .text.crypto_rsa_parse_integer:000000000000003a .L0 
C:\Users\stapi\AppData\Local\Temp\cc4uEmAj.s:71     .text.crypto_rsa_parse_integer:000000000000003e .L0 
C:\Users\stapi\AppData\Local\Temp\cc4uEmAj.s:79     .text.crypto_rsa_parse_integer:0000000000000052 .L0 
C:\Users\stapi\AppData\Local\Temp\cc4uEmAj.s:86     .text.crypto_rsa_parse_integer:0000000000000064 .L0 
C:\Users\stapi\AppData\Local\Temp\cc4uEmAj.s:87     .text.crypto_rsa_parse_integer:0000000000000064 .L0 
C:\Users\stapi\AppData\Local\Temp\cc4uEmAj.s:88     .text.crypto_rsa_parse_integer:0000000000000064 .L0 
C:\Users\stapi\AppData\Local\Temp\cc4uEmAj.s:91     .text.crypto_rsa_parse_integer:0000000000000066 .L0 
C:\Users\stapi\AppData\Local\Temp\cc4uEmAj.s:93     .text.crypto_rsa_parse_integer:000000000000006a .L0 
C:\Users\stapi\AppData\Local\Temp\cc4uEmAj.s:94     .text.crypto_rsa_parse_integer:000000000000006a .L0 
C:\Users\stapi\AppData\Local\Temp\cc4uEmAj.s:96     .text.crypto_rsa_parse_integer:0000000000000072 .L0 
C:\Users\stapi\AppData\Local\Temp\cc4uEmAj.s:97     .text.crypto_rsa_parse_integer:0000000000000072 .L0 
C:\Users\stapi\AppData\Local\Temp\cc4uEmAj.s:98     .text.crypto_rsa_parse_integer:0000000000000072 .L0 
C:\Users\stapi\AppData\Local\Temp\cc4uEmAj.s:100    .text.crypto_rsa_parse_integer:0000000000000072 .L0 
C:\Users\stapi\AppData\Local\Temp\cc4uEmAj.s:102    .text.crypto_rsa_parse_integer:0000000000000072 .L0 
C:\Users\stapi\AppData\Local\Temp\cc4uEmAj.s:103    .text.crypto_rsa_parse_integer:0000000000000072 .L0 
C:\Users\stapi\AppData\Local\Temp\cc4uEmAj.s:109    .text.crypto_rsa_parse_integer:000000000000007a .L0 
C:\Users\stapi\AppData\Local\Temp\cc4uEmAj.s:110    .text.crypto_rsa_parse_integer:000000000000007a .L0 
C:\Users\stapi\AppData\Local\Temp\cc4uEmAj.s:111    .text.crypto_rsa_parse_integer:000000000000007a .L0 
C:\Users\stapi\AppData\Local\Temp\cc4uEmAj.s:113    .text.crypto_rsa_parse_integer:000000000000007a .L0 
C:\Users\stapi\AppData\Local\Temp\cc4uEmAj.s:114    .text.crypto_rsa_parse_integer:000000000000007c .L0 
C:\Users\stapi\AppData\Local\Temp\cc4uEmAj.s:121    .text.crypto_rsa_get_modulus_len:0000000000000000 crypto_rsa_get_modulus_len
C:\Users\stapi\AppData\Local\Temp\cc4uEmAj.s:124    .text.crypto_rsa_get_modulus_len:0000000000000000 .L0 
C:\Users\stapi\AppData\Local\Temp\cc4uEmAj.s:126    .text.crypto_rsa_get_modulus_len:0000000000000000 .L0 
C:\Users\stapi\AppData\Local\Temp\cc4uEmAj.s:127    .text.crypto_rsa_get_modulus_len:0000000000000000 .L0 
C:\Users\stapi\AppData\Local\Temp\cc4uEmAj.s:128    .text.crypto_rsa_get_modulus_len:0000000000000000 .L0 
C:\Users\stapi\AppData\Local\Temp\cc4uEmAj.s:132    .text.crypto_rsa_get_modulus_len:000000000000000a .L0 
C:\Users\stapi\AppData\Local\Temp\cc4uEmAj.s:139    .text.crypto_rsa_exptmod:0000000000000000 crypto_rsa_exptmod
C:\Users\stapi\AppData\Local\Temp\cc4uEmAj.s:142    .text.crypto_rsa_exptmod:0000000000000000 .L0 
C:\Users\stapi\AppData\Local\Temp\cc4uEmAj.s:144    .text.crypto_rsa_exptmod:0000000000000000 .L0 
C:\Users\stapi\AppData\Local\Temp\cc4uEmAj.s:145    .text.crypto_rsa_exptmod:0000000000000008 .L0 
C:\Users\stapi\AppData\Local\Temp\cc4uEmAj.s:146    .text.crypto_rsa_exptmod:0000000000000008 .L0 
C:\Users\stapi\AppData\Local\Temp\cc4uEmAj.s:147    .text.crypto_rsa_exptmod:0000000000000008 .L0 
C:\Users\stapi\AppData\Local\Temp\cc4uEmAj.s:148    .text.crypto_rsa_exptmod:0000000000000008 .L0 
C:\Users\stapi\AppData\Local\Temp\cc4uEmAj.s:149    .text.crypto_rsa_exptmod:0000000000000008 .L0 
C:\Users\stapi\AppData\Local\Temp\cc4uEmAj.s:150    .text.crypto_rsa_exptmod:0000000000000008 .L0 
C:\Users\stapi\AppData\Local\Temp\cc4uEmAj.s:151    .text.crypto_rsa_exptmod:0000000000000008 .L0 
C:\Users\stapi\AppData\Local\Temp\cc4uEmAj.s:152    .text.crypto_rsa_exptmod:0000000000000008 .L0 
C:\Users\stapi\AppData\Local\Temp\cc4uEmAj.s:153    .text.crypto_rsa_exptmod:0000000000000008 .L0 
C:\Users\stapi\AppData\Local\Temp\cc4uEmAj.s:156    .text.crypto_rsa_exptmod:0000000000000008 .L0 
C:\Users\stapi\AppData\Local\Temp\cc4uEmAj.s:157    .text.crypto_rsa_exptmod:0000000000000008 .L0 
C:\Users\stapi\AppData\Local\Temp\cc4uEmAj.s:158    .text.crypto_rsa_exptmod:0000000000000008 .L0 
C:\Users\stapi\AppData\Local\Temp\cc4uEmAj.s:159    .text.crypto_rsa_exptmod:0000000000000008 .L0 
C:\Users\stapi\AppData\Local\Temp\cc4uEmAj.s:160    .text.crypto_rsa_exptmod:0000000000000008 .L0 
C:\Users\stapi\AppData\Local\Temp\cc4uEmAj.s:167    .text.crypto_rsa_exptmod:0000000000000014 .L0 
C:\Users\stapi\AppData\Local\Temp\cc4uEmAj.s:169    .text.crypto_rsa_exptmod:0000000000000016 .L0 
C:\Users\stapi\AppData\Local\Temp\cc4uEmAj.s:175    .text.crypto_rsa_exptmod:000000000000001a .L0 
C:\Users\stapi\AppData\Local\Temp\cc4uEmAj.s:179    .text.crypto_rsa_exptmod:000000000000001c .L0 
C:\Users\stapi\AppData\Local\Temp\cc4uEmAj.s:181    .text.crypto_rsa_exptmod:0000000000000026 .L0 
C:\Users\stapi\AppData\Local\Temp\cc4uEmAj.s:182    .text.crypto_rsa_exptmod:0000000000000026 .L0 
C:\Users\stapi\AppData\Local\Temp\cc4uEmAj.s:183    .text.crypto_rsa_exptmod:0000000000000026 .L0 
C:\Users\stapi\AppData\Local\Temp\cc4uEmAj.s:184    .text.crypto_rsa_exptmod:0000000000000026 .L0 
C:\Users\stapi\AppData\Local\Temp\cc4uEmAj.s:185    .text.crypto_rsa_exptmod:0000000000000026 .L0 
C:\Users\stapi\AppData\Local\Temp\cc4uEmAj.s:186    .text.crypto_rsa_exptmod:0000000000000026 .L0 
C:\Users\stapi\AppData\Local\Temp\cc4uEmAj.s:187    .text.crypto_rsa_exptmod:0000000000000026 .L0 
C:\Users\stapi\AppData\Local\Temp\cc4uEmAj.s:188    .text.crypto_rsa_exptmod:0000000000000026 .L0 
C:\Users\stapi\AppData\Local\Temp\cc4uEmAj.s:189    .text.crypto_rsa_exptmod:0000000000000026 .L0 
C:\Users\stapi\AppData\Local\Temp\cc4uEmAj.s:190    .text.crypto_rsa_exptmod:0000000000000026 .L0 
C:\Users\stapi\AppData\Local\Temp\cc4uEmAj.s:193    .text.crypto_rsa_exptmod:0000000000000026 .L0 
C:\Users\stapi\AppData\Local\Temp\cc4uEmAj.s:195    .text.crypto_rsa_exptmod:0000000000000026 .L0 
C:\Users\stapi\AppData\Local\Temp\cc4uEmAj.s:196    .text.crypto_rsa_exptmod:0000000000000026 .L0 
C:\Users\stapi\AppData\Local\Temp\cc4uEmAj.s:201    .text.crypto_rsa_exptmod:0000000000000030 .L0 
C:\Users\stapi\AppData\Local\Temp\cc4uEmAj.s:202    .text.crypto_rsa_exptmod:0000000000000030 .L0 
C:\Users\stapi\AppData\Local\Temp\cc4uEmAj.s:204    .text.crypto_rsa_exptmod:0000000000000032 .L0 
C:\Users\stapi\AppData\Local\Temp\cc4uEmAj.s:205    .text.crypto_rsa_exptmod:0000000000000032 .L0 
C:\Users\stapi\AppData\Local\Temp\cc4uEmAj.s:210    .text.crypto_rsa_exptmod:000000000000003e .L0 
C:\Users\stapi\AppData\Local\Temp\cc4uEmAj.s:213    .text.crypto_rsa_exptmod:0000000000000042 .L0 
C:\Users\stapi\AppData\Local\Temp\cc4uEmAj.s:216    .text.crypto_rsa_exptmod:0000000000000044 .L0 
C:\Users\stapi\AppData\Local\Temp\cc4uEmAj.s:219    .text.crypto_rsa_exptmod:0000000000000046 .L0 
C:\Users\stapi\AppData\Local\Temp\cc4uEmAj.s:223    .text.crypto_rsa_exptmod:0000000000000048 .L0 
C:\Users\stapi\AppData\Local\Temp\cc4uEmAj.s:227    .text.crypto_rsa_exptmod:0000000000000052 .L0 
C:\Users\stapi\AppData\Local\Temp\cc4uEmAj.s:231    .text.crypto_rsa_exptmod:000000000000005c .L0 
C:\Users\stapi\AppData\Local\Temp\cc4uEmAj.s:235    .text.crypto_rsa_exptmod:0000000000000066 .L0 
C:\Users\stapi\AppData\Local\Temp\cc4uEmAj.s:236    .text.crypto_rsa_exptmod:0000000000000066 .L0 
C:\Users\stapi\AppData\Local\Temp\cc4uEmAj.s:240    .text.crypto_rsa_exptmod:0000000000000068 .L0 
C:\Users\stapi\AppData\Local\Temp\cc4uEmAj.s:241    .text.crypto_rsa_exptmod:0000000000000068 .L0 
C:\Users\stapi\AppData\Local\Temp\cc4uEmAj.s:246    .text.crypto_rsa_exptmod:0000000000000074 .L0 
C:\Users\stapi\AppData\Local\Temp\cc4uEmAj.s:248    .text.crypto_rsa_exptmod:0000000000000078 .L0 
C:\Users\stapi\AppData\Local\Temp\cc4uEmAj.s:249    .text.crypto_rsa_exptmod:0000000000000078 .L0 
C:\Users\stapi\AppData\Local\Temp\cc4uEmAj.s:251    .text.crypto_rsa_exptmod:000000000000007c .L0 
C:\Users\stapi\AppData\Local\Temp\cc4uEmAj.s:252    .text.crypto_rsa_exptmod:000000000000007c .L0 
C:\Users\stapi\AppData\Local\Temp\cc4uEmAj.s:257    .text.crypto_rsa_exptmod:0000000000000086 .L0 
C:\Users\stapi\AppData\Local\Temp\cc4uEmAj.s:258    .text.crypto_rsa_exptmod:0000000000000086 .L0 
C:\Users\stapi\AppData\Local\Temp\cc4uEmAj.s:263    .text.crypto_rsa_exptmod:0000000000000090 .L0 
C:\Users\stapi\AppData\Local\Temp\cc4uEmAj.s:264    .text.crypto_rsa_exptmod:0000000000000090 .L0 
C:\Users\stapi\AppData\Local\Temp\cc4uEmAj.s:267    .text.crypto_rsa_exptmod:0000000000000092 .L0 
C:\Users\stapi\AppData\Local\Temp\cc4uEmAj.s:269    .text.crypto_rsa_exptmod:0000000000000096 .L0 
C:\Users\stapi\AppData\Local\Temp\cc4uEmAj.s:271    .text.crypto_rsa_exptmod:0000000000000098 .L0 
C:\Users\stapi\AppData\Local\Temp\cc4uEmAj.s:272    .text.crypto_rsa_exptmod:0000000000000098 .L0 
C:\Users\stapi\AppData\Local\Temp\cc4uEmAj.s:280    .text.crypto_rsa_exptmod:00000000000000a8 .L0 
C:\Users\stapi\AppData\Local\Temp\cc4uEmAj.s:282    .text.crypto_rsa_exptmod:00000000000000ac .L0 
C:\Users\stapi\AppData\Local\Temp\cc4uEmAj.s:283    .text.crypto_rsa_exptmod:00000000000000ac .L0 
C:\Users\stapi\AppData\Local\Temp\cc4uEmAj.s:290    .text.crypto_rsa_exptmod:00000000000000bc .L0 
C:\Users\stapi\AppData\Local\Temp\cc4uEmAj.s:292    .text.crypto_rsa_exptmod:00000000000000c0 .L0 
C:\Users\stapi\AppData\Local\Temp\cc4uEmAj.s:293    .text.crypto_rsa_exptmod:00000000000000c0 .L0 
C:\Users\stapi\AppData\Local\Temp\cc4uEmAj.s:299    .text.crypto_rsa_exptmod:00000000000000ce .L0 
C:\Users\stapi\AppData\Local\Temp\cc4uEmAj.s:301    .text.crypto_rsa_exptmod:00000000000000d2 .L0 
C:\Users\stapi\AppData\Local\Temp\cc4uEmAj.s:308    .text.crypto_rsa_exptmod:00000000000000e2 .L0 
C:\Users\stapi\AppData\Local\Temp\cc4uEmAj.s:310    .text.crypto_rsa_exptmod:00000000000000e6 .L0 
C:\Users\stapi\AppData\Local\Temp\cc4uEmAj.s:311    .text.crypto_rsa_exptmod:00000000000000e6 .L0 
C:\Users\stapi\AppData\Local\Temp\cc4uEmAj.s:317    .text.crypto_rsa_exptmod:00000000000000f4 .L0 
C:\Users\stapi\AppData\Local\Temp\cc4uEmAj.s:319    .text.crypto_rsa_exptmod:00000000000000f8 .L0 
C:\Users\stapi\AppData\Local\Temp\cc4uEmAj.s:325    .text.crypto_rsa_exptmod:0000000000000106 .L0 
C:\Users\stapi\AppData\Local\Temp\cc4uEmAj.s:329    .text.crypto_rsa_exptmod:000000000000010a .L0 
C:\Users\stapi\AppData\Local\Temp\cc4uEmAj.s:330    .text.crypto_rsa_exptmod:000000000000010a .L0 
C:\Users\stapi\AppData\Local\Temp\cc4uEmAj.s:334    .text.crypto_rsa_exptmod:0000000000000114 .L0 
C:\Users\stapi\AppData\Local\Temp\cc4uEmAj.s:336    .text.crypto_rsa_exptmod:0000000000000118 .L0 
C:\Users\stapi\AppData\Local\Temp\cc4uEmAj.s:339    .text.crypto_rsa_exptmod:000000000000011a .L0 
C:\Users\stapi\AppData\Local\Temp\cc4uEmAj.s:340    .text.crypto_rsa_exptmod:000000000000011a .L0 
C:\Users\stapi\AppData\Local\Temp\cc4uEmAj.s:342    .text.crypto_rsa_exptmod:000000000000011e .L0 
C:\Users\stapi\AppData\Local\Temp\cc4uEmAj.s:343    .text.crypto_rsa_exptmod:000000000000011e .L0 
C:\Users\stapi\AppData\Local\Temp\cc4uEmAj.s:345    .text.crypto_rsa_exptmod:0000000000000122 .L0 
C:\Users\stapi\AppData\Local\Temp\cc4uEmAj.s:346    .text.crypto_rsa_exptmod:0000000000000122 .L0 
C:\Users\stapi\AppData\Local\Temp\cc4uEmAj.s:348    .text.crypto_rsa_exptmod:0000000000000124 .L0 
C:\Users\stapi\AppData\Local\Temp\cc4uEmAj.s:352    .text.crypto_rsa_exptmod:0000000000000126 .L0 
C:\Users\stapi\AppData\Local\Temp\cc4uEmAj.s:353    .text.crypto_rsa_exptmod:0000000000000126 .L0 
C:\Users\stapi\AppData\Local\Temp\cc4uEmAj.s:360    .text.crypto_rsa_exptmod:0000000000000136 .L0 
C:\Users\stapi\AppData\Local\Temp\cc4uEmAj.s:362    .text.crypto_rsa_exptmod:000000000000013a .L0 
C:\Users\stapi\AppData\Local\Temp\cc4uEmAj.s:365    .text.crypto_rsa_exptmod:000000000000013c .L0 
C:\Users\stapi\AppData\Local\Temp\cc4uEmAj.s:371    .text.crypto_rsa_exptmod:0000000000000140 .L0 
C:\Users\stapi\AppData\Local\Temp\cc4uEmAj.s:372    .text.crypto_rsa_exptmod:0000000000000140 .L0 
C:\Users\stapi\AppData\Local\Temp\cc4uEmAj.s:376    .text.crypto_rsa_exptmod:000000000000014a .L0 
C:\Users\stapi\AppData\Local\Temp\cc4uEmAj.s:378    .text.crypto_rsa_exptmod:000000000000014c .L0 
C:\Users\stapi\AppData\Local\Temp\cc4uEmAj.s:380    .text.crypto_rsa_exptmod:0000000000000150 .L0 
C:\Users\stapi\AppData\Local\Temp\cc4uEmAj.s:381    .text.crypto_rsa_exptmod:0000000000000150 .L0 
C:\Users\stapi\AppData\Local\Temp\cc4uEmAj.s:384    .text.crypto_rsa_exptmod:0000000000000154 .L0 
C:\Users\stapi\AppData\Local\Temp\cc4uEmAj.s:386    .text.crypto_rsa_exptmod:0000000000000158 .L0 
C:\Users\stapi\AppData\Local\Temp\cc4uEmAj.s:390    .text.crypto_rsa_exptmod:0000000000000162 .L0 
C:\Users\stapi\AppData\Local\Temp\cc4uEmAj.s:391    .text.crypto_rsa_exptmod:0000000000000162 .L0 
C:\Users\stapi\AppData\Local\Temp\cc4uEmAj.s:395    .text.crypto_rsa_exptmod:000000000000016c .L0 
C:\Users\stapi\AppData\Local\Temp\cc4uEmAj.s:397    .text.crypto_rsa_exptmod:0000000000000170 .L0 
C:\Users\stapi\AppData\Local\Temp\cc4uEmAj.s:403    .text.crypto_rsa_exptmod:000000000000017e .L0 
C:\Users\stapi\AppData\Local\Temp\cc4uEmAj.s:405    .text.crypto_rsa_exptmod:0000000000000184 .L0 
C:\Users\stapi\AppData\Local\Temp\cc4uEmAj.s:412    .text.crypto_rsa_free:0000000000000000 crypto_rsa_free
C:\Users\stapi\AppData\Local\Temp\cc4uEmAj.s:415    .text.crypto_rsa_free:0000000000000000 .L0 
C:\Users\stapi\AppData\Local\Temp\cc4uEmAj.s:417    .text.crypto_rsa_free:0000000000000000 .L0 
C:\Users\stapi\AppData\Local\Temp\cc4uEmAj.s:418    .text.crypto_rsa_free:0000000000000000 .L0 
C:\Users\stapi\AppData\Local\Temp\cc4uEmAj.s:419    .text.crypto_rsa_free:0000000000000000 .L0 
C:\Users\stapi\AppData\Local\Temp\cc4uEmAj.s:421    .text.crypto_rsa_free:0000000000000002 .L0 
C:\Users\stapi\AppData\Local\Temp\cc4uEmAj.s:422    .text.crypto_rsa_free:000000000000000a .L0 
C:\Users\stapi\AppData\Local\Temp\cc4uEmAj.s:423    .text.crypto_rsa_free:000000000000000a .L0 
C:\Users\stapi\AppData\Local\Temp\cc4uEmAj.s:424    .text.crypto_rsa_free:000000000000000a .L0 
C:\Users\stapi\AppData\Local\Temp\cc4uEmAj.s:430    .text.crypto_rsa_free:000000000000000c .L0 
C:\Users\stapi\AppData\Local\Temp\cc4uEmAj.s:435    .text.crypto_rsa_free:0000000000000016 .L0 
C:\Users\stapi\AppData\Local\Temp\cc4uEmAj.s:439    .text.crypto_rsa_free:0000000000000020 .L0 
C:\Users\stapi\AppData\Local\Temp\cc4uEmAj.s:443    .text.crypto_rsa_free:000000000000002a .L0 
C:\Users\stapi\AppData\Local\Temp\cc4uEmAj.s:447    .text.crypto_rsa_free:0000000000000034 .L0 
C:\Users\stapi\AppData\Local\Temp\cc4uEmAj.s:451    .text.crypto_rsa_free:000000000000003e .L0 
C:\Users\stapi\AppData\Local\Temp\cc4uEmAj.s:455    .text.crypto_rsa_free:0000000000000048 .L0 
C:\Users\stapi\AppData\Local\Temp\cc4uEmAj.s:459    .text.crypto_rsa_free:0000000000000052 .L0 
C:\Users\stapi\AppData\Local\Temp\cc4uEmAj.s:463    .text.crypto_rsa_free:000000000000005c .L0 
C:\Users\stapi\AppData\Local\Temp\cc4uEmAj.s:469    .text.crypto_rsa_free:0000000000000066 .L0 
C:\Users\stapi\AppData\Local\Temp\cc4uEmAj.s:470    .text.crypto_rsa_free:000000000000006e .L0 
C:\Users\stapi\AppData\Local\Temp\cc4uEmAj.s:471    .text.crypto_rsa_free:000000000000006e .L0 
C:\Users\stapi\AppData\Local\Temp\cc4uEmAj.s:472    .text.crypto_rsa_free:000000000000006e .L0 
C:\Users\stapi\AppData\Local\Temp\cc4uEmAj.s:476    .text.crypto_rsa_free:0000000000000070 .L0 
C:\Users\stapi\AppData\Local\Temp\cc4uEmAj.s:490    .text.crypto_rsa_import_public_key:0000000000000000 crypto_rsa_import_public_key
C:\Users\stapi\AppData\Local\Temp\cc4uEmAj.s:493    .text.crypto_rsa_import_public_key:0000000000000000 .L0 
C:\Users\stapi\AppData\Local\Temp\cc4uEmAj.s:495    .text.crypto_rsa_import_public_key:0000000000000000 .L0 
C:\Users\stapi\AppData\Local\Temp\cc4uEmAj.s:496    .text.crypto_rsa_import_public_key:0000000000000008 .L0 
C:\Users\stapi\AppData\Local\Temp\cc4uEmAj.s:497    .text.crypto_rsa_import_public_key:0000000000000008 .L0 
C:\Users\stapi\AppData\Local\Temp\cc4uEmAj.s:498    .text.crypto_rsa_import_public_key:0000000000000008 .L0 
C:\Users\stapi\AppData\Local\Temp\cc4uEmAj.s:499    .text.crypto_rsa_import_public_key:0000000000000008 .L0 
C:\Users\stapi\AppData\Local\Temp\cc4uEmAj.s:500    .text.crypto_rsa_import_public_key:0000000000000008 .L0 
C:\Users\stapi\AppData\Local\Temp\cc4uEmAj.s:502    .text.crypto_rsa_import_public_key:0000000000000008 .L0 
C:\Users\stapi\AppData\Local\Temp\cc4uEmAj.s:503    .text.crypto_rsa_import_public_key:0000000000000008 .L0 
C:\Users\stapi\AppData\Local\Temp\cc4uEmAj.s:504    .text.crypto_rsa_import_public_key:0000000000000008 .L0 
C:\Users\stapi\AppData\Local\Temp\cc4uEmAj.s:505    .text.crypto_rsa_import_public_key:0000000000000008 .L0 
C:\Users\stapi\AppData\Local\Temp\cc4uEmAj.s:506    .text.crypto_rsa_import_public_key:0000000000000008 .L0 
C:\Users\stapi\AppData\Local\Temp\cc4uEmAj.s:507    .text.crypto_rsa_import_public_key:000000000000000a .L0 
C:\Users\stapi\AppData\Local\Temp\cc4uEmAj.s:509    .text.crypto_rsa_import_public_key:000000000000000a .L0 
C:\Users\stapi\AppData\Local\Temp\cc4uEmAj.s:511    .text.crypto_rsa_import_public_key:000000000000000c .L0 
C:\Users\stapi\AppData\Local\Temp\cc4uEmAj.s:514    .text.crypto_rsa_import_public_key:0000000000000010 .L0 
C:\Users\stapi\AppData\Local\Temp\cc4uEmAj.s:516    .text.crypto_rsa_import_public_key:0000000000000012 .L0 
C:\Users\stapi\AppData\Local\Temp\cc4uEmAj.s:521    .text.crypto_rsa_import_public_key:000000000000001c .L0 
C:\Users\stapi\AppData\Local\Temp\cc4uEmAj.s:522    .text.crypto_rsa_import_public_key:000000000000001c .L0 
C:\Users\stapi\AppData\Local\Temp\cc4uEmAj.s:524    .text.crypto_rsa_import_public_key:000000000000001e .L0 
C:\Users\stapi\AppData\Local\Temp\cc4uEmAj.s:525    .text.crypto_rsa_import_public_key:000000000000001e .L0 
C:\Users\stapi\AppData\Local\Temp\cc4uEmAj.s:528    .text.crypto_rsa_import_public_key:0000000000000026 .L0 
C:\Users\stapi\AppData\Local\Temp\cc4uEmAj.s:530    .text.crypto_rsa_import_public_key:0000000000000028 .L0 
C:\Users\stapi\AppData\Local\Temp\cc4uEmAj.s:531    .text.crypto_rsa_import_public_key:0000000000000028 .L0 
C:\Users\stapi\AppData\Local\Temp\cc4uEmAj.s:534    .text.crypto_rsa_import_public_key:0000000000000030 .L0 
C:\Users\stapi\AppData\Local\Temp\cc4uEmAj.s:536    .text.crypto_rsa_import_public_key:0000000000000032 .L0 
C:\Users\stapi\AppData\Local\Temp\cc4uEmAj.s:538    .text.crypto_rsa_import_public_key:0000000000000034 .L0 
C:\Users\stapi\AppData\Local\Temp\cc4uEmAj.s:539    .text.crypto_rsa_import_public_key:0000000000000034 .L0 
C:\Users\stapi\AppData\Local\Temp\cc4uEmAj.s:541    .text.crypto_rsa_import_public_key:0000000000000036 .L0 
C:\Users\stapi\AppData\Local\Temp\cc4uEmAj.s:545    .text.crypto_rsa_import_public_key:0000000000000038 .L0 
C:\Users\stapi\AppData\Local\Temp\cc4uEmAj.s:549    .text.crypto_rsa_import_public_key:0000000000000042 .L0 
C:\Users\stapi\AppData\Local\Temp\cc4uEmAj.s:550    .text.crypto_rsa_import_public_key:0000000000000042 .L0 
C:\Users\stapi\AppData\Local\Temp\cc4uEmAj.s:554    .text.crypto_rsa_import_public_key:0000000000000044 .L0 
C:\Users\stapi\AppData\Local\Temp\cc4uEmAj.s:556    .text.crypto_rsa_import_public_key:0000000000000048 .L0 
C:\Users\stapi\AppData\Local\Temp\cc4uEmAj.s:557    .text.crypto_rsa_import_public_key:0000000000000048 .L0 
C:\Users\stapi\AppData\Local\Temp\cc4uEmAj.s:559    .text.crypto_rsa_import_public_key:0000000000000050 .L0 
C:\Users\stapi\AppData\Local\Temp\cc4uEmAj.s:560    .text.crypto_rsa_import_public_key:0000000000000050 .L0 
C:\Users\stapi\AppData\Local\Temp\cc4uEmAj.s:561    .text.crypto_rsa_import_public_key:0000000000000050 .L0 
C:\Users\stapi\AppData\Local\Temp\cc4uEmAj.s:562    .text.crypto_rsa_import_public_key:0000000000000050 .L0 
C:\Users\stapi\AppData\Local\Temp\cc4uEmAj.s:563    .text.crypto_rsa_import_public_key:0000000000000050 .L0 
C:\Users\stapi\AppData\Local\Temp\cc4uEmAj.s:566    .text.crypto_rsa_import_public_key:0000000000000050 .L0 
C:\Users\stapi\AppData\Local\Temp\cc4uEmAj.s:568    .text.crypto_rsa_import_public_key:0000000000000050 .L0 
C:\Users\stapi\AppData\Local\Temp\cc4uEmAj.s:569    .text.crypto_rsa_import_public_key:0000000000000050 .L0 
C:\Users\stapi\AppData\Local\Temp\cc4uEmAj.s:575    .text.crypto_rsa_import_public_key:000000000000005e .L0 
C:\Users\stapi\AppData\Local\Temp\cc4uEmAj.s:580    .text.crypto_rsa_import_public_key:0000000000000062 .L0 
C:\Users\stapi\AppData\Local\Temp\cc4uEmAj.s:581    .text.crypto_rsa_import_public_key:0000000000000062 .L0 
C:\Users\stapi\AppData\Local\Temp\cc4uEmAj.s:590    .text.crypto_rsa_import_public_key:0000000000000070 .L0 
C:\Users\stapi\AppData\Local\Temp\cc4uEmAj.s:591    .text.crypto_rsa_import_public_key:0000000000000070 .L0 
C:\Users\stapi\AppData\Local\Temp\cc4uEmAj.s:594    .text.crypto_rsa_import_public_key:0000000000000072 .L0 
C:\Users\stapi\AppData\Local\Temp\cc4uEmAj.s:595    .text.crypto_rsa_import_public_key:0000000000000072 .L0 
C:\Users\stapi\AppData\Local\Temp\cc4uEmAj.s:598    .text.crypto_rsa_import_public_key:0000000000000074 .L0 
C:\Users\stapi\AppData\Local\Temp\cc4uEmAj.s:600    .text.crypto_rsa_import_public_key:0000000000000076 .L0 
C:\Users\stapi\AppData\Local\Temp\cc4uEmAj.s:603    .text.crypto_rsa_import_public_key:0000000000000078 .L0 
C:\Users\stapi\AppData\Local\Temp\cc4uEmAj.s:604    .text.crypto_rsa_import_public_key:0000000000000078 .L0 
C:\Users\stapi\AppData\Local\Temp\cc4uEmAj.s:608    .text.crypto_rsa_import_public_key:0000000000000082 .L0 
C:\Users\stapi\AppData\Local\Temp\cc4uEmAj.s:609    .text.crypto_rsa_import_public_key:0000000000000082 .L0 
C:\Users\stapi\AppData\Local\Temp\cc4uEmAj.s:616    .text.crypto_rsa_import_public_key:0000000000000090 .L0 
C:\Users\stapi\AppData\Local\Temp\cc4uEmAj.s:617    .text.crypto_rsa_import_public_key:0000000000000090 .L0 
C:\Users\stapi\AppData\Local\Temp\cc4uEmAj.s:619    .text.crypto_rsa_import_public_key:0000000000000092 .L0 
C:\Users\stapi\AppData\Local\Temp\cc4uEmAj.s:620    .text.crypto_rsa_import_public_key:0000000000000092 .L0 
C:\Users\stapi\AppData\Local\Temp\cc4uEmAj.s:622    .text.crypto_rsa_import_public_key:0000000000000096 .L0 
C:\Users\stapi\AppData\Local\Temp\cc4uEmAj.s:630    .text.crypto_rsa_import_public_key:00000000000000ac .L0 
C:\Users\stapi\AppData\Local\Temp\cc4uEmAj.s:634    .text.crypto_rsa_import_public_key:00000000000000ae .L0 
C:\Users\stapi\AppData\Local\Temp\cc4uEmAj.s:640    .text.crypto_rsa_import_public_key:00000000000000c0 .L0 
C:\Users\stapi\AppData\Local\Temp\cc4uEmAj.s:641    .text.crypto_rsa_import_public_key:00000000000000c2 .L0 
C:\Users\stapi\AppData\Local\Temp\cc4uEmAj.s:648    .text.crypto_rsa_import_public_key_parts:0000000000000000 crypto_rsa_import_public_key_parts
C:\Users\stapi\AppData\Local\Temp\cc4uEmAj.s:651    .text.crypto_rsa_import_public_key_parts:0000000000000000 .L0 
C:\Users\stapi\AppData\Local\Temp\cc4uEmAj.s:653    .text.crypto_rsa_import_public_key_parts:0000000000000000 .L0 
C:\Users\stapi\AppData\Local\Temp\cc4uEmAj.s:654    .text.crypto_rsa_import_public_key_parts:0000000000000008 .L0 
C:\Users\stapi\AppData\Local\Temp\cc4uEmAj.s:655    .text.crypto_rsa_import_public_key_parts:0000000000000008 .L0 
C:\Users\stapi\AppData\Local\Temp\cc4uEmAj.s:656    .text.crypto_rsa_import_public_key_parts:0000000000000008 .L0 
C:\Users\stapi\AppData\Local\Temp\cc4uEmAj.s:657    .text.crypto_rsa_import_public_key_parts:0000000000000008 .L0 
C:\Users\stapi\AppData\Local\Temp\cc4uEmAj.s:658    .text.crypto_rsa_import_public_key_parts:0000000000000008 .L0 
C:\Users\stapi\AppData\Local\Temp\cc4uEmAj.s:659    .text.crypto_rsa_import_public_key_parts:0000000000000008 .L0 
C:\Users\stapi\AppData\Local\Temp\cc4uEmAj.s:660    .text.crypto_rsa_import_public_key_parts:0000000000000008 .L0 
C:\Users\stapi\AppData\Local\Temp\cc4uEmAj.s:662    .text.crypto_rsa_import_public_key_parts:0000000000000008 .L0 
C:\Users\stapi\AppData\Local\Temp\cc4uEmAj.s:663    .text.crypto_rsa_import_public_key_parts:0000000000000008 .L0 
C:\Users\stapi\AppData\Local\Temp\cc4uEmAj.s:664    .text.crypto_rsa_import_public_key_parts:0000000000000008 .L0 
C:\Users\stapi\AppData\Local\Temp\cc4uEmAj.s:666    .text.crypto_rsa_import_public_key_parts:000000000000000a .L0 
C:\Users\stapi\AppData\Local\Temp\cc4uEmAj.s:669    .text.crypto_rsa_import_public_key_parts:000000000000000e .L0 
C:\Users\stapi\AppData\Local\Temp\cc4uEmAj.s:673    .text.crypto_rsa_import_public_key_parts:0000000000000014 .L0 
C:\Users\stapi\AppData\Local\Temp\cc4uEmAj.s:678    .text.crypto_rsa_import_public_key_parts:000000000000001e .L0 
C:\Users\stapi\AppData\Local\Temp\cc4uEmAj.s:679    .text.crypto_rsa_import_public_key_parts:000000000000001e .L0 
C:\Users\stapi\AppData\Local\Temp\cc4uEmAj.s:681    .text.crypto_rsa_import_public_key_parts:0000000000000020 .L0 
C:\Users\stapi\AppData\Local\Temp\cc4uEmAj.s:682    .text.crypto_rsa_import_public_key_parts:0000000000000020 .L0 
C:\Users\stapi\AppData\Local\Temp\cc4uEmAj.s:685    .text.crypto_rsa_import_public_key_parts:0000000000000028 .L0 
C:\Users\stapi\AppData\Local\Temp\cc4uEmAj.s:687    .text.crypto_rsa_import_public_key_parts:000000000000002a .L0 
C:\Users\stapi\AppData\Local\Temp\cc4uEmAj.s:688    .text.crypto_rsa_import_public_key_parts:000000000000002a .L0 
C:\Users\stapi\AppData\Local\Temp\cc4uEmAj.s:692    .text.crypto_rsa_import_public_key_parts:0000000000000034 .L0 
C:\Users\stapi\AppData\Local\Temp\cc4uEmAj.s:694    .text.crypto_rsa_import_public_key_parts:0000000000000036 .L0 
C:\Users\stapi\AppData\Local\Temp\cc4uEmAj.s:695    .text.crypto_rsa_import_public_key_parts:0000000000000036 .L0 
C:\Users\stapi\AppData\Local\Temp\cc4uEmAj.s:697    .text.crypto_rsa_import_public_key_parts:0000000000000038 .L0 
C:\Users\stapi\AppData\Local\Temp\cc4uEmAj.s:700    .text.crypto_rsa_import_public_key_parts:000000000000003a .L0 
C:\Users\stapi\AppData\Local\Temp\cc4uEmAj.s:704    .text.crypto_rsa_import_public_key_parts:0000000000000044 .L0 
C:\Users\stapi\AppData\Local\Temp\cc4uEmAj.s:705    .text.crypto_rsa_import_public_key_parts:0000000000000044 .L0 
C:\Users\stapi\AppData\Local\Temp\cc4uEmAj.s:709    .text.crypto_rsa_import_public_key_parts:0000000000000046 .L0 
C:\Users\stapi\AppData\Local\Temp\cc4uEmAj.s:711    .text.crypto_rsa_import_public_key_parts:0000000000000050 .L0 
C:\Users\stapi\AppData\Local\Temp\cc4uEmAj.s:712    .text.crypto_rsa_import_public_key_parts:0000000000000050 .L0 
C:\Users\stapi\AppData\Local\Temp\cc4uEmAj.s:713    .text.crypto_rsa_import_public_key_parts:0000000000000050 .L0 
C:\Users\stapi\AppData\Local\Temp\cc4uEmAj.s:714    .text.crypto_rsa_import_public_key_parts:0000000000000050 .L0 
C:\Users\stapi\AppData\Local\Temp\cc4uEmAj.s:715    .text.crypto_rsa_import_public_key_parts:0000000000000050 .L0 
C:\Users\stapi\AppData\Local\Temp\cc4uEmAj.s:716    .text.crypto_rsa_import_public_key_parts:0000000000000050 .L0 
C:\Users\stapi\AppData\Local\Temp\cc4uEmAj.s:717    .text.crypto_rsa_import_public_key_parts:0000000000000050 .L0 
C:\Users\stapi\AppData\Local\Temp\cc4uEmAj.s:718    .text.crypto_rsa_import_public_key_parts:0000000000000050 .L0 
C:\Users\stapi\AppData\Local\Temp\cc4uEmAj.s:721    .text.crypto_rsa_import_public_key_parts:0000000000000050 .L0 
C:\Users\stapi\AppData\Local\Temp\cc4uEmAj.s:723    .text.crypto_rsa_import_public_key_parts:0000000000000050 .L0 
C:\Users\stapi\AppData\Local\Temp\cc4uEmAj.s:725    .text.crypto_rsa_import_public_key_parts:0000000000000052 .L0 
C:\Users\stapi\AppData\Local\Temp\cc4uEmAj.s:730    .text.crypto_rsa_import_public_key_parts:000000000000005e .L0 
C:\Users\stapi\AppData\Local\Temp\cc4uEmAj.s:732    .text.crypto_rsa_import_public_key_parts:0000000000000062 .L0 
C:\Users\stapi\AppData\Local\Temp\cc4uEmAj.s:738    .text.crypto_rsa_import_public_key_parts:0000000000000070 .L0 
C:\Users\stapi\AppData\Local\Temp\cc4uEmAj.s:740    .text.crypto_rsa_import_public_key_parts:0000000000000076 .L0 
C:\Users\stapi\AppData\Local\Temp\cc4uEmAj.s:751    .text.crypto_rsa_import_private_key:0000000000000000 crypto_rsa_import_private_key
C:\Users\stapi\AppData\Local\Temp\cc4uEmAj.s:754    .text.crypto_rsa_import_private_key:0000000000000000 .L0 
C:\Users\stapi\AppData\Local\Temp\cc4uEmAj.s:756    .text.crypto_rsa_import_private_key:0000000000000000 .L0 
C:\Users\stapi\AppData\Local\Temp\cc4uEmAj.s:757    .text.crypto_rsa_import_private_key:0000000000000008 .L0 
C:\Users\stapi\AppData\Local\Temp\cc4uEmAj.s:758    .text.crypto_rsa_import_private_key:0000000000000008 .L0 
C:\Users\stapi\AppData\Local\Temp\cc4uEmAj.s:759    .text.crypto_rsa_import_private_key:0000000000000008 .L0 
C:\Users\stapi\AppData\Local\Temp\cc4uEmAj.s:760    .text.crypto_rsa_import_private_key:0000000000000008 .L0 
C:\Users\stapi\AppData\Local\Temp\cc4uEmAj.s:761    .text.crypto_rsa_import_private_key:0000000000000008 .L0 
C:\Users\stapi\AppData\Local\Temp\cc4uEmAj.s:762    .text.crypto_rsa_import_private_key:0000000000000008 .L0 
C:\Users\stapi\AppData\Local\Temp\cc4uEmAj.s:764    .text.crypto_rsa_import_private_key:0000000000000008 .L0 
C:\Users\stapi\AppData\Local\Temp\cc4uEmAj.s:765    .text.crypto_rsa_import_private_key:0000000000000008 .L0 
C:\Users\stapi\AppData\Local\Temp\cc4uEmAj.s:766    .text.crypto_rsa_import_private_key:0000000000000008 .L0 
C:\Users\stapi\AppData\Local\Temp\cc4uEmAj.s:767    .text.crypto_rsa_import_private_key:0000000000000008 .L0 
C:\Users\stapi\AppData\Local\Temp\cc4uEmAj.s:768    .text.crypto_rsa_import_private_key:0000000000000008 .L0 
C:\Users\stapi\AppData\Local\Temp\cc4uEmAj.s:769    .text.crypto_rsa_import_private_key:0000000000000008 .L0 
C:\Users\stapi\AppData\Local\Temp\cc4uEmAj.s:770    .text.crypto_rsa_import_private_key:000000000000000a .L0 
C:\Users\stapi\AppData\Local\Temp\cc4uEmAj.s:772    .text.crypto_rsa_import_private_key:000000000000000a .L0 
C:\Users\stapi\AppData\Local\Temp\cc4uEmAj.s:774    .text.crypto_rsa_import_private_key:000000000000000c .L0 
C:\Users\stapi\AppData\Local\Temp\cc4uEmAj.s:777    .text.crypto_rsa_import_private_key:0000000000000010 .L0 
C:\Users\stapi\AppData\Local\Temp\cc4uEmAj.s:779    .text.crypto_rsa_import_private_key:0000000000000012 .L0 
C:\Users\stapi\AppData\Local\Temp\cc4uEmAj.s:784    .text.crypto_rsa_import_private_key:000000000000001c .L0 
C:\Users\stapi\AppData\Local\Temp\cc4uEmAj.s:785    .text.crypto_rsa_import_private_key:000000000000001c .L0 
C:\Users\stapi\AppData\Local\Temp\cc4uEmAj.s:787    .text.crypto_rsa_import_private_key:000000000000001e .L0 
C:\Users\stapi\AppData\Local\Temp\cc4uEmAj.s:788    .text.crypto_rsa_import_private_key:000000000000001e .L0 
C:\Users\stapi\AppData\Local\Temp\cc4uEmAj.s:791    .text.crypto_rsa_import_private_key:0000000000000022 .L0 
C:\Users\stapi\AppData\Local\Temp\cc4uEmAj.s:792    .text.crypto_rsa_import_private_key:0000000000000022 .L0 
C:\Users\stapi\AppData\Local\Temp\cc4uEmAj.s:795    .text.crypto_rsa_import_private_key:000000000000002a .L0 
C:\Users\stapi\AppData\Local\Temp\cc4uEmAj.s:797    .text.crypto_rsa_import_private_key:000000000000002c .L0 
C:\Users\stapi\AppData\Local\Temp\cc4uEmAj.s:798    .text.crypto_rsa_import_private_key:000000000000002c .L0 
C:\Users\stapi\AppData\Local\Temp\cc4uEmAj.s:801    .text.crypto_rsa_import_private_key:0000000000000034 .L0 
C:\Users\stapi\AppData\Local\Temp\cc4uEmAj.s:803    .text.crypto_rsa_import_private_key:0000000000000036 .L0 
C:\Users\stapi\AppData\Local\Temp\cc4uEmAj.s:804    .text.crypto_rsa_import_private_key:0000000000000036 .L0 
C:\Users\stapi\AppData\Local\Temp\cc4uEmAj.s:807    .text.crypto_rsa_import_private_key:000000000000003e .L0 
C:\Users\stapi\AppData\Local\Temp\cc4uEmAj.s:809    .text.crypto_rsa_import_private_key:0000000000000040 .L0 
C:\Users\stapi\AppData\Local\Temp\cc4uEmAj.s:810    .text.crypto_rsa_import_private_key:0000000000000040 .L0 
C:\Users\stapi\AppData\Local\Temp\cc4uEmAj.s:813    .text.crypto_rsa_import_private_key:0000000000000048 .L0 
C:\Users\stapi\AppData\Local\Temp\cc4uEmAj.s:815    .text.crypto_rsa_import_private_key:000000000000004a .L0 
C:\Users\stapi\AppData\Local\Temp\cc4uEmAj.s:816    .text.crypto_rsa_import_private_key:000000000000004a .L0 
C:\Users\stapi\AppData\Local\Temp\cc4uEmAj.s:819    .text.crypto_rsa_import_private_key:0000000000000052 .L0 
C:\Users\stapi\AppData\Local\Temp\cc4uEmAj.s:821    .text.crypto_rsa_import_private_key:0000000000000054 .L0 
C:\Users\stapi\AppData\Local\Temp\cc4uEmAj.s:822    .text.crypto_rsa_import_private_key:0000000000000054 .L0 
C:\Users\stapi\AppData\Local\Temp\cc4uEmAj.s:825    .text.crypto_rsa_import_private_key:000000000000005c .L0 
C:\Users\stapi\AppData\Local\Temp\cc4uEmAj.s:827    .text.crypto_rsa_import_private_key:000000000000005e .L0 
C:\Users\stapi\AppData\Local\Temp\cc4uEmAj.s:828    .text.crypto_rsa_import_private_key:000000000000005e .L0 
C:\Users\stapi\AppData\Local\Temp\cc4uEmAj.s:831    .text.crypto_rsa_import_private_key:0000000000000066 .L0 
C:\Users\stapi\AppData\Local\Temp\cc4uEmAj.s:833    .text.crypto_rsa_import_private_key:0000000000000068 .L0 
C:\Users\stapi\AppData\Local\Temp\cc4uEmAj.s:834    .text.crypto_rsa_import_private_key:0000000000000068 .L0 
C:\Users\stapi\AppData\Local\Temp\cc4uEmAj.s:837    .text.crypto_rsa_import_private_key:0000000000000070 .L0 
C:\Users\stapi\AppData\Local\Temp\cc4uEmAj.s:839    .text.crypto_rsa_import_private_key:0000000000000072 .L0 
C:\Users\stapi\AppData\Local\Temp\cc4uEmAj.s:841    .text.crypto_rsa_import_private_key:0000000000000074 .L0 
C:\Users\stapi\AppData\Local\Temp\cc4uEmAj.s:842    .text.crypto_rsa_import_private_key:0000000000000074 .L0 
C:\Users\stapi\AppData\Local\Temp\cc4uEmAj.s:844    .text.crypto_rsa_import_private_key:0000000000000076 .L0 
C:\Users\stapi\AppData\Local\Temp\cc4uEmAj.s:847    .text.crypto_rsa_import_private_key:000000000000007a .L0 
C:\Users\stapi\AppData\Local\Temp\cc4uEmAj.s:850    .text.crypto_rsa_import_private_key:000000000000007e .L0 
C:\Users\stapi\AppData\Local\Temp\cc4uEmAj.s:853    .text.crypto_rsa_import_private_key:0000000000000082 .L0 
C:\Users\stapi\AppData\Local\Temp\cc4uEmAj.s:856    .text.crypto_rsa_import_private_key:0000000000000086 .L0 
C:\Users\stapi\AppData\Local\Temp\cc4uEmAj.s:859    .text.crypto_rsa_import_private_key:000000000000008a .L0 
C:\Users\stapi\AppData\Local\Temp\cc4uEmAj.s:862    .text.crypto_rsa_import_private_key:000000000000008e .L0 
C:\Users\stapi\AppData\Local\Temp\cc4uEmAj.s:866    .text.crypto_rsa_import_private_key:0000000000000090 .L0 
C:\Users\stapi\AppData\Local\Temp\cc4uEmAj.s:870    .text.crypto_rsa_import_private_key:000000000000009a .L0 
C:\Users\stapi\AppData\Local\Temp\cc4uEmAj.s:871    .text.crypto_rsa_import_private_key:000000000000009a .L0 
C:\Users\stapi\AppData\Local\Temp\cc4uEmAj.s:875    .text.crypto_rsa_import_private_key:000000000000009c .L0 
C:\Users\stapi\AppData\Local\Temp\cc4uEmAj.s:877    .text.crypto_rsa_import_private_key:00000000000000a0 .L0 
C:\Users\stapi\AppData\Local\Temp\cc4uEmAj.s:878    .text.crypto_rsa_import_private_key:00000000000000a0 .L0 
C:\Users\stapi\AppData\Local\Temp\cc4uEmAj.s:880    .text.crypto_rsa_import_private_key:00000000000000a8 .L0 
C:\Users\stapi\AppData\Local\Temp\cc4uEmAj.s:881    .text.crypto_rsa_import_private_key:00000000000000a8 .L0 
C:\Users\stapi\AppData\Local\Temp\cc4uEmAj.s:882    .text.crypto_rsa_import_private_key:00000000000000a8 .L0 
C:\Users\stapi\AppData\Local\Temp\cc4uEmAj.s:883    .text.crypto_rsa_import_private_key:00000000000000a8 .L0 
C:\Users\stapi\AppData\Local\Temp\cc4uEmAj.s:884    .text.crypto_rsa_import_private_key:00000000000000a8 .L0 
C:\Users\stapi\AppData\Local\Temp\cc4uEmAj.s:885    .text.crypto_rsa_import_private_key:00000000000000a8 .L0 
C:\Users\stapi\AppData\Local\Temp\cc4uEmAj.s:888    .text.crypto_rsa_import_private_key:00000000000000a8 .L0 
C:\Users\stapi\AppData\Local\Temp\cc4uEmAj.s:890    .text.crypto_rsa_import_private_key:00000000000000a8 .L0 
C:\Users\stapi\AppData\Local\Temp\cc4uEmAj.s:891    .text.crypto_rsa_import_private_key:00000000000000a8 .L0 
C:\Users\stapi\AppData\Local\Temp\cc4uEmAj.s:897    .text.crypto_rsa_import_private_key:00000000000000b6 .L0 
C:\Users\stapi\AppData\Local\Temp\cc4uEmAj.s:902    .text.crypto_rsa_import_private_key:00000000000000ba .L0 
C:\Users\stapi\AppData\Local\Temp\cc4uEmAj.s:903    .text.crypto_rsa_import_private_key:00000000000000ba .L0 
C:\Users\stapi\AppData\Local\Temp\cc4uEmAj.s:912    .text.crypto_rsa_import_private_key:00000000000000c8 .L0 
C:\Users\stapi\AppData\Local\Temp\cc4uEmAj.s:913    .text.crypto_rsa_import_private_key:00000000000000c8 .L0 
C:\Users\stapi\AppData\Local\Temp\cc4uEmAj.s:916    .text.crypto_rsa_import_private_key:00000000000000ca .L0 
C:\Users\stapi\AppData\Local\Temp\cc4uEmAj.s:917    .text.crypto_rsa_import_private_key:00000000000000ca .L0 
C:\Users\stapi\AppData\Local\Temp\cc4uEmAj.s:920    .text.crypto_rsa_import_private_key:00000000000000cc .L0 
C:\Users\stapi\AppData\Local\Temp\cc4uEmAj.s:925    .text.crypto_rsa_import_private_key:00000000000000d6 .L0 
C:\Users\stapi\AppData\Local\Temp\cc4uEmAj.s:928    .text.crypto_rsa_import_private_key:00000000000000d8 .L0 
C:\Users\stapi\AppData\Local\Temp\cc4uEmAj.s:929    .text.crypto_rsa_import_private_key:00000000000000d8 .L0 
C:\Users\stapi\AppData\Local\Temp\cc4uEmAj.s:930    .text.crypto_rsa_import_private_key:00000000000000d8 .L0 
C:\Users\stapi\AppData\Local\Temp\cc4uEmAj.s:932    .text.crypto_rsa_import_private_key:00000000000000da .L0 
C:\Users\stapi\AppData\Local\Temp\cc4uEmAj.s:933    .text.crypto_rsa_import_private_key:00000000000000da .L0 
C:\Users\stapi\AppData\Local\Temp\cc4uEmAj.s:942    .text.crypto_rsa_import_private_key:00000000000000ea .L0 
C:\Users\stapi\AppData\Local\Temp\cc4uEmAj.s:943    .text.crypto_rsa_import_private_key:00000000000000ea .L0 
C:\Users\stapi\AppData\Local\Temp\cc4uEmAj.s:947    .text.crypto_rsa_import_private_key:00000000000000ec .L0 
C:\Users\stapi\AppData\Local\Temp\cc4uEmAj.s:953    .text.crypto_rsa_import_private_key:00000000000000fe .L0 
C:\Users\stapi\AppData\Local\Temp\cc4uEmAj.s:957    .text.crypto_rsa_import_private_key:0000000000000108 .L0 
C:\Users\stapi\AppData\Local\Temp\cc4uEmAj.s:961    .text.crypto_rsa_import_private_key:000000000000010a .L0 
C:\Users\stapi\AppData\Local\Temp\cc4uEmAj.s:967    .text.crypto_rsa_import_private_key:000000000000011c .L0 
C:\Users\stapi\AppData\Local\Temp\cc4uEmAj.s:971    .text.crypto_rsa_import_private_key:000000000000011e .L0 
C:\Users\stapi\AppData\Local\Temp\cc4uEmAj.s:977    .text.crypto_rsa_import_private_key:000000000000012a .L0 
C:\Users\stapi\AppData\Local\Temp\cc4uEmAj.s:979    .text.crypto_rsa_import_private_key:000000000000012c .L0 
C:\Users\stapi\AppData\Local\Temp\cc4uEmAj.s:983    .text.crypto_rsa_import_private_key:0000000000000136 .L0 
C:\Users\stapi\AppData\Local\Temp\cc4uEmAj.s:984    .text.crypto_rsa_import_private_key:0000000000000136 .L0 
C:\Users\stapi\AppData\Local\Temp\cc4uEmAj.s:990    .text.crypto_rsa_import_private_key:0000000000000144 .L0 
C:\Users\stapi\AppData\Local\Temp\cc4uEmAj.s:991    .text.crypto_rsa_import_private_key:0000000000000144 .L0 
C:\Users\stapi\AppData\Local\Temp\cc4uEmAj.s:996    .text.crypto_rsa_import_private_key:0000000000000150 .L0 
C:\Users\stapi\AppData\Local\Temp\cc4uEmAj.s:997    .text.crypto_rsa_import_private_key:0000000000000150 .L0 
C:\Users\stapi\AppData\Local\Temp\cc4uEmAj.s:1002   .text.crypto_rsa_import_private_key:000000000000015c .L0 
C:\Users\stapi\AppData\Local\Temp\cc4uEmAj.s:1003   .text.crypto_rsa_import_private_key:000000000000015c .L0 
C:\Users\stapi\AppData\Local\Temp\cc4uEmAj.s:1008   .text.crypto_rsa_import_private_key:0000000000000168 .L0 
C:\Users\stapi\AppData\Local\Temp\cc4uEmAj.s:1009   .text.crypto_rsa_import_private_key:0000000000000168 .L0 
C:\Users\stapi\AppData\Local\Temp\cc4uEmAj.s:1014   .text.crypto_rsa_import_private_key:0000000000000174 .L0 
C:\Users\stapi\AppData\Local\Temp\cc4uEmAj.s:1015   .text.crypto_rsa_import_private_key:0000000000000174 .L0 
C:\Users\stapi\AppData\Local\Temp\cc4uEmAj.s:1020   .text.crypto_rsa_import_private_key:0000000000000180 .L0 
C:\Users\stapi\AppData\Local\Temp\cc4uEmAj.s:1021   .text.crypto_rsa_import_private_key:0000000000000180 .L0 
C:\Users\stapi\AppData\Local\Temp\cc4uEmAj.s:1026   .text.crypto_rsa_import_private_key:000000000000018c .L0 
C:\Users\stapi\AppData\Local\Temp\cc4uEmAj.s:1027   .text.crypto_rsa_import_private_key:000000000000018c .L0 
C:\Users\stapi\AppData\Local\Temp\cc4uEmAj.s:1034   .text.crypto_rsa_import_private_key:000000000000019a .L0 
C:\Users\stapi\AppData\Local\Temp\cc4uEmAj.s:1035   .text.crypto_rsa_import_private_key:000000000000019a .L0 
C:\Users\stapi\AppData\Local\Temp\cc4uEmAj.s:1037   .text.crypto_rsa_import_private_key:000000000000019e .L0 
C:\Users\stapi\AppData\Local\Temp\cc4uEmAj.s:1038   .text.crypto_rsa_import_private_key:000000000000019e .L0 
C:\Users\stapi\AppData\Local\Temp\cc4uEmAj.s:1040   .text.crypto_rsa_import_private_key:00000000000001a2 .L0 
C:\Users\stapi\AppData\Local\Temp\cc4uEmAj.s:1048   .text.crypto_rsa_import_private_key:00000000000001b8 .L0 
C:\Users\stapi\AppData\Local\Temp\cc4uEmAj.s:1049   .text.crypto_rsa_import_private_key:00000000000001ba .L0 
C:\Users\stapi\AppData\Local\Temp\cc4uEmAj.s:117    .text.crypto_rsa_parse_integer:000000000000007c .L0 
C:\Users\stapi\AppData\Local\Temp\cc4uEmAj.s:135    .text.crypto_rsa_get_modulus_len:000000000000000a .L0 
C:\Users\stapi\AppData\Local\Temp\cc4uEmAj.s:408    .text.crypto_rsa_exptmod:0000000000000184 .L0 
C:\Users\stapi\AppData\Local\Temp\cc4uEmAj.s:479    .text.crypto_rsa_free:0000000000000070 .L0 
C:\Users\stapi\AppData\Local\Temp\cc4uEmAj.s:644    .text.crypto_rsa_import_public_key:00000000000000c2 .L0 
C:\Users\stapi\AppData\Local\Temp\cc4uEmAj.s:743    .text.crypto_rsa_import_public_key_parts:0000000000000076 .L0 
C:\Users\stapi\AppData\Local\Temp\cc4uEmAj.s:1052   .text.crypto_rsa_import_private_key:00000000000001ba .L0 
                     .debug_frame:0000000000000000 .L0 
C:\Users\stapi\AppData\Local\Temp\cc4uEmAj.s:14     .rodata.crypto_rsa_parse_integer.str1.4:0000000000000018 .LC1
C:\Users\stapi\AppData\Local\Temp\cc4uEmAj.s:11     .rodata.crypto_rsa_parse_integer.str1.4:0000000000000000 .LC0
C:\Users\stapi\AppData\Local\Temp\cc4uEmAj.s:108    .text.crypto_rsa_parse_integer:000000000000007a .L11
C:\Users\stapi\AppData\Local\Temp\cc4uEmAj.s:77     .text.crypto_rsa_parse_integer:0000000000000052 .L3
C:\Users\stapi\AppData\Local\Temp\cc4uEmAj.s:99     .text.crypto_rsa_parse_integer:0000000000000072 .L9
C:\Users\stapi\AppData\Local\Temp\cc4uEmAj.s:85     .text.crypto_rsa_parse_integer:0000000000000064 .L14
C:\Users\stapi\AppData\Local\Temp\cc4uEmAj.s:89     .text.crypto_rsa_parse_integer:0000000000000066 .L2
C:\Users\stapi\AppData\Local\Temp\cc4uEmAj.s:192    .text.crypto_rsa_exptmod:0000000000000026 .L18
C:\Users\stapi\AppData\Local\Temp\cc4uEmAj.s:173    .text.crypto_rsa_exptmod:000000000000001a .L20
C:\Users\stapi\AppData\Local\Temp\cc4uEmAj.s:238    .text.crypto_rsa_exptmod:0000000000000068 .L21
C:\Users\stapi\AppData\Local\Temp\cc4uEmAj.s:177    .text.crypto_rsa_exptmod:000000000000001c .L17
C:\Users\stapi\AppData\Local\Temp\cc4uEmAj.s:211    .text.crypto_rsa_exptmod:0000000000000042 .L23
C:\Users\stapi\AppData\Local\Temp\cc4uEmAj.s:350    .text.crypto_rsa_exptmod:0000000000000126 .L24
C:\Users\stapi\AppData\Local\Temp\cc4uEmAj.s:221    .text.crypto_rsa_exptmod:0000000000000048 .L22
C:\Users\stapi\AppData\Local\Temp\cc4uEmAj.s:369    .text.crypto_rsa_exptmod:0000000000000140 .L26
C:\Users\stapi\AppData\Local\Temp\cc4uEmAj.s:327    .text.crypto_rsa_exptmod:000000000000010a .L25
C:\Users\stapi\AppData\Local\Temp\cc4uEmAj.s:474    .text.crypto_rsa_free:000000000000006e .L49
C:\Users\stapi\AppData\Local\Temp\cc4uEmAj.s:484    .rodata.crypto_rsa_import_public_key.str1.4:0000000000000024 .LC3
C:\Users\stapi\AppData\Local\Temp\cc4uEmAj.s:481    .rodata.crypto_rsa_import_public_key.str1.4:0000000000000000 .LC2
C:\Users\stapi\AppData\Local\Temp\cc4uEmAj.s:552    .text.crypto_rsa_import_public_key:0000000000000044 .L52
C:\Users\stapi\AppData\Local\Temp\cc4uEmAj.s:543    .text.crypto_rsa_import_public_key:0000000000000038 .L57
C:\Users\stapi\AppData\Local\Temp\cc4uEmAj.s:565    .text.crypto_rsa_import_public_key:0000000000000050 .L55
C:\Users\stapi\AppData\Local\Temp\cc4uEmAj.s:632    .text.crypto_rsa_import_public_key:00000000000000ae .L56
C:\Users\stapi\AppData\Local\Temp\cc4uEmAj.s:707    .text.crypto_rsa_import_public_key_parts:0000000000000046 .L70
C:\Users\stapi\AppData\Local\Temp\cc4uEmAj.s:720    .text.crypto_rsa_import_public_key_parts:0000000000000050 .L72
C:\Users\stapi\AppData\Local\Temp\cc4uEmAj.s:698    .text.crypto_rsa_import_public_key_parts:000000000000003a .L73
C:\Users\stapi\AppData\Local\Temp\cc4uEmAj.s:745    .rodata.crypto_rsa_import_private_key.str1.4:0000000000000000 .LC4
C:\Users\stapi\AppData\Local\Temp\cc4uEmAj.s:873    .text.crypto_rsa_import_private_key:000000000000009c .L81
C:\Users\stapi\AppData\Local\Temp\cc4uEmAj.s:864    .text.crypto_rsa_import_private_key:0000000000000090 .L87
C:\Users\stapi\AppData\Local\Temp\cc4uEmAj.s:887    .text.crypto_rsa_import_private_key:00000000000000a8 .L84
C:\Users\stapi\AppData\Local\Temp\cc4uEmAj.s:959    .text.crypto_rsa_import_private_key:000000000000010a .L85
C:\Users\stapi\AppData\Local\Temp\cc4uEmAj.s:969    .text.crypto_rsa_import_private_key:000000000000011e .L88
C:\Users\stapi\AppData\Local\Temp\cc4uEmAj.s:945    .text.crypto_rsa_import_private_key:00000000000000ec .L89
C:\Users\stapi\AppData\Local\Temp\cc4uEmAj.s:2699   .debug_abbrev:0000000000000000 .Ldebug_abbrev0
C:\Users\stapi\AppData\Local\Temp\cc4uEmAj.s:4269   .debug_str:00000000000001cc .LASF65
C:\Users\stapi\AppData\Local\Temp\cc4uEmAj.s:4345   .debug_str:000000000000049b .LASF66
C:\Users\stapi\AppData\Local\Temp\cc4uEmAj.s:4235   .debug_str:0000000000000048 .LASF67
C:\Users\stapi\AppData\Local\Temp\cc4uEmAj.s:4201   .debug_ranges:0000000000000000 .Ldebug_ranges0
C:\Users\stapi\AppData\Local\Temp\cc4uEmAj.s:4219   .debug_line:0000000000000000 .Ldebug_line0
C:\Users\stapi\AppData\Local\Temp\cc4uEmAj.s:4233   .debug_str:0000000000000041 .LASF2
C:\Users\stapi\AppData\Local\Temp\cc4uEmAj.s:4315   .debug_str:00000000000003de .LASF0
C:\Users\stapi\AppData\Local\Temp\cc4uEmAj.s:4227   .debug_str:0000000000000018 .LASF1
C:\Users\stapi\AppData\Local\Temp\cc4uEmAj.s:4291   .debug_str:0000000000000324 .LASF3
C:\Users\stapi\AppData\Local\Temp\cc4uEmAj.s:4301   .debug_str:0000000000000377 .LASF4
C:\Users\stapi\AppData\Local\Temp\cc4uEmAj.s:4231   .debug_str:0000000000000037 .LASF5
C:\Users\stapi\AppData\Local\Temp\cc4uEmAj.s:4321   .debug_str:00000000000003ff .LASF6
C:\Users\stapi\AppData\Local\Temp\cc4uEmAj.s:4283   .debug_str:00000000000002fe .LASF7
C:\Users\stapi\AppData\Local\Temp\cc4uEmAj.s:4339   .debug_str:0000000000000466 .LASF8
C:\Users\stapi\AppData\Local\Temp\cc4uEmAj.s:4249   .debug_str:0000000000000123 .LASF9
C:\Users\stapi\AppData\Local\Temp\cc4uEmAj.s:4311   .debug_str:00000000000003bc .LASF10
C:\Users\stapi\AppData\Local\Temp\cc4uEmAj.s:4325   .debug_str:0000000000000421 .LASF11
C:\Users\stapi\AppData\Local\Temp\cc4uEmAj.s:4253   .debug_str:000000000000014f .LASF12
C:\Users\stapi\AppData\Local\Temp\cc4uEmAj.s:4333   .debug_str:000000000000044e .LASF13
C:\Users\stapi\AppData\Local\Temp\cc4uEmAj.s:4271   .debug_str:00000000000002c5 .LASF14
C:\Users\stapi\AppData\Local\Temp\cc4uEmAj.s:4221   .debug_str:0000000000000000 .LASF15
C:\Users\stapi\AppData\Local\Temp\cc4uEmAj.s:4279   .debug_str:00000000000002e9 .LASF16
C:\Users\stapi\AppData\Local\Temp\cc4uEmAj.s:4289   .debug_str:000000000000031b .LASF17
C:\Users\stapi\AppData\Local\Temp\cc4uEmAj.s:4239   .debug_str:00000000000000e1 .LASF18
C:\Users\stapi\AppData\Local\Temp\cc4uEmAj.s:4327   .debug_str:0000000000000426 .LASF19
C:\Users\stapi\AppData\Local\Temp\cc4uEmAj.s:4317   .debug_str:00000000000003eb .LASF25
C:\Users\stapi\AppData\Local\Temp\cc4uEmAj.s:4337   .debug_str:000000000000045e .LASF20
C:\Users\stapi\AppData\Local\Temp\cc4uEmAj.s:4261   .debug_str:0000000000000186 .LASF21
C:\Users\stapi\AppData\Local\Temp\cc4uEmAj.s:4331   .debug_str:0000000000000448 .LASF22
C:\Users\stapi\AppData\Local\Temp\cc4uEmAj.s:4293   .debug_str:000000000000032e .LASF23
C:\Users\stapi\AppData\Local\Temp\cc4uEmAj.s:4299   .debug_str:0000000000000370 .LASF24
C:\Users\stapi\AppData\Local\Temp\cc4uEmAj.s:4323   .debug_str:0000000000000412 .LASF26
C:\Users\stapi\AppData\Local\Temp\cc4uEmAj.s:4287   .debug_str:000000000000030f .LASF27
C:\Users\stapi\AppData\Local\Temp\cc4uEmAj.s:4225   .debug_str:0000000000000013 .LASF28
C:\Users\stapi\AppData\Local\Temp\cc4uEmAj.s:4273   .debug_str:00000000000002d3 .LASF29
C:\Users\stapi\AppData\Local\Temp\cc4uEmAj.s:4277   .debug_str:00000000000002e4 .LASF30
C:\Users\stapi\AppData\Local\Temp\cc4uEmAj.s:4237   .debug_str:00000000000000da .LASF68
C:\Users\stapi\AppData\Local\Temp\cc4uEmAj.s:4247   .debug_str:0000000000000113 .LASF69
C:\Users\stapi\AppData\Local\Temp\cc4uEmAj.s:4229   .debug_str:0000000000000024 .LASF35
C:\Users\stapi\AppData\Local\Temp\cc4uEmAj.s:140    .text.crypto_rsa_exptmod:0000000000000000 .LFB91
C:\Users\stapi\AppData\Local\Temp\cc4uEmAj.s:406    .text.crypto_rsa_exptmod:0000000000000184 .LFE91
C:\Users\stapi\AppData\Local\Temp\cc4uEmAj.s:3384   .debug_loc:0000000000000000 .LLST5
C:\Users\stapi\AppData\Local\Temp\cc4uEmAj.s:4255   .debug_str:0000000000000157 .LASF31
C:\Users\stapi\AppData\Local\Temp\cc4uEmAj.s:3439   .debug_loc:0000000000000082 .LLST6
C:\Users\stapi\AppData\Local\Temp\cc4uEmAj.s:3494   .debug_loc:0000000000000104 .LLST7
C:\Users\stapi\AppData\Local\Temp\cc4uEmAj.s:4223   .debug_str:000000000000000c .LASF32
C:\Users\stapi\AppData\Local\Temp\cc4uEmAj.s:3513   .debug_loc:0000000000000138 .LLST8
C:\Users\stapi\AppData\Local\Temp\cc4uEmAj.s:3532   .debug_loc:000000000000016c .LLST9
C:\Users\stapi\AppData\Local\Temp\cc4uEmAj.s:4275   .debug_str:00000000000002d8 .LASF33
C:\Users\stapi\AppData\Local\Temp\cc4uEmAj.s:3583   .debug_loc:00000000000001e3 .LLST10
C:\Users\stapi\AppData\Local\Temp\cc4uEmAj.s:3634   .debug_loc:000000000000025a .LLST11
C:\Users\stapi\AppData\Local\Temp\cc4uEmAj.s:3673   .debug_loc:00000000000002be .LLST12
C:\Users\stapi\AppData\Local\Temp\cc4uEmAj.s:3712   .debug_loc:0000000000000322 .LLST13
C:\Users\stapi\AppData\Local\Temp\cc4uEmAj.s:4267   .debug_str:00000000000001c5 .LASF34
C:\Users\stapi\AppData\Local\Temp\cc4uEmAj.s:3737   .debug_loc:000000000000035c .LLST14
C:\Users\stapi\AppData\Local\Temp\cc4uEmAj.s:4351   .debug_str:0000000000000538 .LASF39
C:\Users\stapi\AppData\Local\Temp\cc4uEmAj.s:197    .text.crypto_rsa_exptmod:000000000000002e .LVL19
C:\Users\stapi\AppData\Local\Temp\cc4uEmAj.s:208    .text.crypto_rsa_exptmod:000000000000003e .LVL21
C:\Users\stapi\AppData\Local\Temp\cc4uEmAj.s:225    .text.crypto_rsa_exptmod:0000000000000052 .LVL25
C:\Users\stapi\AppData\Local\Temp\cc4uEmAj.s:229    .text.crypto_rsa_exptmod:000000000000005c .LVL26
C:\Users\stapi\AppData\Local\Temp\cc4uEmAj.s:233    .text.crypto_rsa_exptmod:0000000000000066 .LVL27
C:\Users\stapi\AppData\Local\Temp\cc4uEmAj.s:244    .text.crypto_rsa_exptmod:0000000000000074 .LVL29
C:\Users\stapi\AppData\Local\Temp\cc4uEmAj.s:253    .text.crypto_rsa_exptmod:0000000000000084 .LVL30
C:\Users\stapi\AppData\Local\Temp\cc4uEmAj.s:259    .text.crypto_rsa_exptmod:000000000000008e .LVL32
C:\Users\stapi\AppData\Local\Temp\cc4uEmAj.s:278    .text.crypto_rsa_exptmod:00000000000000a8 .LVL36
C:\Users\stapi\AppData\Local\Temp\cc4uEmAj.s:288    .text.crypto_rsa_exptmod:00000000000000bc .LVL37
C:\Users\stapi\AppData\Local\Temp\cc4uEmAj.s:297    .text.crypto_rsa_exptmod:00000000000000ce .LVL38
C:\Users\stapi\AppData\Local\Temp\cc4uEmAj.s:306    .text.crypto_rsa_exptmod:00000000000000e2 .LVL39
C:\Users\stapi\AppData\Local\Temp\cc4uEmAj.s:315    .text.crypto_rsa_exptmod:00000000000000f4 .LVL40
C:\Users\stapi\AppData\Local\Temp\cc4uEmAj.s:323    .text.crypto_rsa_exptmod:0000000000000106 .LVL41
C:\Users\stapi\AppData\Local\Temp\cc4uEmAj.s:332    .text.crypto_rsa_exptmod:0000000000000114 .LVL43
C:\Users\stapi\AppData\Local\Temp\cc4uEmAj.s:358    .text.crypto_rsa_exptmod:0000000000000136 .LVL46
C:\Users\stapi\AppData\Local\Temp\cc4uEmAj.s:374    .text.crypto_rsa_exptmod:000000000000014a .LVL50
C:\Users\stapi\AppData\Local\Temp\cc4uEmAj.s:388    .text.crypto_rsa_exptmod:0000000000000162 .LVL51
C:\Users\stapi\AppData\Local\Temp\cc4uEmAj.s:393    .text.crypto_rsa_exptmod:000000000000016c .LVL52
C:\Users\stapi\AppData\Local\Temp\cc4uEmAj.s:401    .text.crypto_rsa_exptmod:000000000000017e .LVL53
C:\Users\stapi\AppData\Local\Temp\cc4uEmAj.s:4355   .debug_str:000000000000054c .LASF36
C:\Users\stapi\AppData\Local\Temp\cc4uEmAj.s:122    .text.crypto_rsa_get_modulus_len:0000000000000000 .LFB90
C:\Users\stapi\AppData\Local\Temp\cc4uEmAj.s:133    .text.crypto_rsa_get_modulus_len:000000000000000a .LFE90
C:\Users\stapi\AppData\Local\Temp\cc4uEmAj.s:3748   .debug_loc:000000000000037a .LLST4
C:\Users\stapi\AppData\Local\Temp\cc4uEmAj.s:131    .text.crypto_rsa_get_modulus_len:000000000000000a .LVL12
C:\Users\stapi\AppData\Local\Temp\cc4uEmAj.s:4251   .debug_str:0000000000000131 .LASF37
C:\Users\stapi\AppData\Local\Temp\cc4uEmAj.s:752    .text.crypto_rsa_import_private_key:0000000000000000 .LFB89
C:\Users\stapi\AppData\Local\Temp\cc4uEmAj.s:1050   .text.crypto_rsa_import_private_key:00000000000001ba .LFE89
C:\Users\stapi\AppData\Local\Temp\cc4uEmAj.s:3762   .debug_loc:000000000000039b .LLST28
C:\Users\stapi\AppData\Local\Temp\cc4uEmAj.s:3802   .debug_loc:00000000000003f9 .LLST29
C:\Users\stapi\AppData\Local\Temp\cc4uEmAj.s:3842   .debug_loc:0000000000000457 .LLST30
C:\Users\stapi\AppData\Local\Temp\cc4uEmAj.s:4357   .debug_str:0000000000000567 .LASF38
C:\Users\stapi\AppData\Local\Temp\cc4uEmAj.s:3853   .debug_loc:0000000000000475 .LLST31
C:\Users\stapi\AppData\Local\Temp\cc4uEmAj.s:3872   .debug_loc:00000000000004a9 .LLST32
C:\Users\stapi\AppData\Local\Temp\cc4uEmAj.s:3931   .debug_loc:000000000000054b .LLST33
C:\Users\stapi\AppData\Local\Temp\cc4uEmAj.s:899    .text.crypto_rsa_import_private_key:00000000000000ba .LBB16
C:\Users\stapi\AppData\Local\Temp\cc4uEmAj.s:910    .text.crypto_rsa_import_private_key:00000000000000c8 .LBE16
C:\Users\stapi\AppData\Local\Temp\cc4uEmAj.s:3942   .debug_loc:0000000000000569 .LLST34
C:\Users\stapi\AppData\Local\Temp\cc4uEmAj.s:780    .text.crypto_rsa_import_private_key:000000000000001a .LVL103
C:\Users\stapi\AppData\Local\Temp\cc4uEmAj.s:793    .text.crypto_rsa_import_private_key:000000000000002a .LVL105
C:\Users\stapi\AppData\Local\Temp\cc4uEmAj.s:799    .text.crypto_rsa_import_private_key:0000000000000034 .LVL106
C:\Users\stapi\AppData\Local\Temp\cc4uEmAj.s:805    .text.crypto_rsa_import_private_key:000000000000003e .LVL107
C:\Users\stapi\AppData\Local\Temp\cc4uEmAj.s:811    .text.crypto_rsa_import_private_key:0000000000000048 .LVL108
C:\Users\stapi\AppData\Local\Temp\cc4uEmAj.s:817    .text.crypto_rsa_import_private_key:0000000000000052 .LVL109
C:\Users\stapi\AppData\Local\Temp\cc4uEmAj.s:823    .text.crypto_rsa_import_private_key:000000000000005c .LVL110
C:\Users\stapi\AppData\Local\Temp\cc4uEmAj.s:829    .text.crypto_rsa_import_private_key:0000000000000066 .LVL111
C:\Users\stapi\AppData\Local\Temp\cc4uEmAj.s:835    .text.crypto_rsa_import_private_key:0000000000000070 .LVL112
C:\Users\stapi\AppData\Local\Temp\cc4uEmAj.s:868    .text.crypto_rsa_import_private_key:000000000000009a .LVL114
C:\Users\stapi\AppData\Local\Temp\cc4uEmAj.s:895    .text.crypto_rsa_import_private_key:00000000000000b6 .LVL117
C:\Users\stapi\AppData\Local\Temp\cc4uEmAj.s:921    .text.crypto_rsa_import_private_key:00000000000000d4 .LVL122
C:\Users\stapi\AppData\Local\Temp\cc4uEmAj.s:938    .text.crypto_rsa_import_private_key:00000000000000e8 .LVL126
C:\Users\stapi\AppData\Local\Temp\cc4uEmAj.s:951    .text.crypto_rsa_import_private_key:00000000000000fe .LVL129
C:\Users\stapi\AppData\Local\Temp\cc4uEmAj.s:955    .text.crypto_rsa_import_private_key:0000000000000108 .LVL130
C:\Users\stapi\AppData\Local\Temp\cc4uEmAj.s:965    .text.crypto_rsa_import_private_key:000000000000011c .LVL132
C:\Users\stapi\AppData\Local\Temp\cc4uEmAj.s:975    .text.crypto_rsa_import_private_key:000000000000012a .LVL135
C:\Users\stapi\AppData\Local\Temp\cc4uEmAj.s:981    .text.crypto_rsa_import_private_key:0000000000000136 .LVL136
C:\Users\stapi\AppData\Local\Temp\cc4uEmAj.s:988    .text.crypto_rsa_import_private_key:0000000000000144 .LVL137
C:\Users\stapi\AppData\Local\Temp\cc4uEmAj.s:994    .text.crypto_rsa_import_private_key:0000000000000150 .LVL138
C:\Users\stapi\AppData\Local\Temp\cc4uEmAj.s:1000   .text.crypto_rsa_import_private_key:000000000000015c .LVL139
C:\Users\stapi\AppData\Local\Temp\cc4uEmAj.s:1006   .text.crypto_rsa_import_private_key:0000000000000168 .LVL140
C:\Users\stapi\AppData\Local\Temp\cc4uEmAj.s:1012   .text.crypto_rsa_import_private_key:0000000000000174 .LVL141
C:\Users\stapi\AppData\Local\Temp\cc4uEmAj.s:1018   .text.crypto_rsa_import_private_key:0000000000000180 .LVL142
C:\Users\stapi\AppData\Local\Temp\cc4uEmAj.s:1024   .text.crypto_rsa_import_private_key:000000000000018c .LVL143
C:\Users\stapi\AppData\Local\Temp\cc4uEmAj.s:1030   .text.crypto_rsa_import_private_key:0000000000000198 .LVL144
C:\Users\stapi\AppData\Local\Temp\cc4uEmAj.s:1046   .text.crypto_rsa_import_private_key:00000000000001b8 .LVL147
C:\Users\stapi\AppData\Local\Temp\cc4uEmAj.s:4265   .debug_str:00000000000001a2 .LASF40
C:\Users\stapi\AppData\Local\Temp\cc4uEmAj.s:649    .text.crypto_rsa_import_public_key_parts:0000000000000000 .LFB88
C:\Users\stapi\AppData\Local\Temp\cc4uEmAj.s:741    .text.crypto_rsa_import_public_key_parts:0000000000000076 .LFE88
C:\Users\stapi\AppData\Local\Temp\cc4uEmAj.s:3949   .debug_loc:000000000000057c .LLST23
C:\Users\stapi\AppData\Local\Temp\cc4uEmAj.s:4243   .debug_str:00000000000000fd .LASF41
C:\Users\stapi\AppData\Local\Temp\cc4uEmAj.s:3960   .debug_loc:000000000000059a .LLST24
C:\Users\stapi\AppData\Local\Temp\cc4uEmAj.s:3971   .debug_loc:00000000000005b8 .LLST25
C:\Users\stapi\AppData\Local\Temp\cc4uEmAj.s:4359   .debug_str:000000000000056c .LASF42
C:\Users\stapi\AppData\Local\Temp\cc4uEmAj.s:3982   .debug_loc:00000000000005d6 .LLST26
C:\Users\stapi\AppData\Local\Temp\cc4uEmAj.s:3993   .debug_loc:00000000000005f4 .LLST27
C:\Users\stapi\AppData\Local\Temp\cc4uEmAj.s:674    .text.crypto_rsa_import_public_key_parts:000000000000001c .LVL92
C:\Users\stapi\AppData\Local\Temp\cc4uEmAj.s:683    .text.crypto_rsa_import_public_key_parts:0000000000000028 .LVL94
C:\Users\stapi\AppData\Local\Temp\cc4uEmAj.s:689    .text.crypto_rsa_import_public_key_parts:0000000000000032 .LVL95
C:\Users\stapi\AppData\Local\Temp\cc4uEmAj.s:702    .text.crypto_rsa_import_public_key_parts:0000000000000044 .LVL96
C:\Users\stapi\AppData\Local\Temp\cc4uEmAj.s:728    .text.crypto_rsa_import_public_key_parts:000000000000005e .LVL99
C:\Users\stapi\AppData\Local\Temp\cc4uEmAj.s:736    .text.crypto_rsa_import_public_key_parts:0000000000000070 .LVL100
C:\Users\stapi\AppData\Local\Temp\cc4uEmAj.s:4297   .debug_str:0000000000000353 .LASF43
C:\Users\stapi\AppData\Local\Temp\cc4uEmAj.s:491    .text.crypto_rsa_import_public_key:0000000000000000 .LFB87
C:\Users\stapi\AppData\Local\Temp\cc4uEmAj.s:642    .text.crypto_rsa_import_public_key:00000000000000c2 .LFE87
C:\Users\stapi\AppData\Local\Temp\cc4uEmAj.s:4004   .debug_loc:0000000000000612 .LLST17
C:\Users\stapi\AppData\Local\Temp\cc4uEmAj.s:4037   .debug_loc:0000000000000662 .LLST18
C:\Users\stapi\AppData\Local\Temp\cc4uEmAj.s:4048   .debug_loc:0000000000000680 .LLST19
C:\Users\stapi\AppData\Local\Temp\cc4uEmAj.s:4059   .debug_loc:000000000000069e .LLST20
C:\Users\stapi\AppData\Local\Temp\cc4uEmAj.s:4078   .debug_loc:00000000000006d2 .LLST21
C:\Users\stapi\AppData\Local\Temp\cc4uEmAj.s:577    .text.crypto_rsa_import_public_key:0000000000000062 .LBB12
C:\Users\stapi\AppData\Local\Temp\cc4uEmAj.s:588    .text.crypto_rsa_import_public_key:0000000000000070 .LBE12
C:\Users\stapi\AppData\Local\Temp\cc4uEmAj.s:4085   .debug_loc:00000000000006e5 .LLST22
C:\Users\stapi\AppData\Local\Temp\cc4uEmAj.s:517    .text.crypto_rsa_import_public_key:000000000000001a .LVL69
C:\Users\stapi\AppData\Local\Temp\cc4uEmAj.s:526    .text.crypto_rsa_import_public_key:0000000000000026 .LVL71
C:\Users\stapi\AppData\Local\Temp\cc4uEmAj.s:532    .text.crypto_rsa_import_public_key:0000000000000030 .LVL72
C:\Users\stapi\AppData\Local\Temp\cc4uEmAj.s:547    .text.crypto_rsa_import_public_key:0000000000000042 .LVL74
C:\Users\stapi\AppData\Local\Temp\cc4uEmAj.s:573    .text.crypto_rsa_import_public_key:000000000000005e .LVL77
C:\Users\stapi\AppData\Local\Temp\cc4uEmAj.s:606    .text.crypto_rsa_import_public_key:0000000000000082 .LVL83
C:\Users\stapi\AppData\Local\Temp\cc4uEmAj.s:612    .text.crypto_rsa_import_public_key:000000000000008e .LVL84
C:\Users\stapi\AppData\Local\Temp\cc4uEmAj.s:628    .text.crypto_rsa_import_public_key:00000000000000ac .LVL87
C:\Users\stapi\AppData\Local\Temp\cc4uEmAj.s:638    .text.crypto_rsa_import_public_key:00000000000000c0 .LVL89
C:\Users\stapi\AppData\Local\Temp\cc4uEmAj.s:4295   .debug_str:000000000000033a .LASF70
C:\Users\stapi\AppData\Local\Temp\cc4uEmAj.s:20     .text.crypto_rsa_parse_integer:0000000000000000 .LFB86
C:\Users\stapi\AppData\Local\Temp\cc4uEmAj.s:115    .text.crypto_rsa_parse_integer:000000000000007c .LFE86
C:\Users\stapi\AppData\Local\Temp\cc4uEmAj.s:4092   .debug_loc:00000000000006f8 .LLST0
C:\Users\stapi\AppData\Local\Temp\cc4uEmAj.s:4110   .debug_loc:0000000000000724 .LLST1
C:\Users\stapi\AppData\Local\Temp\cc4uEmAj.s:4128   .debug_loc:0000000000000750 .LLST2
C:\Users\stapi\AppData\Local\Temp\cc4uEmAj.s:48     .text.crypto_rsa_parse_integer:000000000000001e .LBB4
C:\Users\stapi\AppData\Local\Temp\cc4uEmAj.s:60     .text.crypto_rsa_parse_integer:000000000000002c .LBE4
C:\Users\stapi\AppData\Local\Temp\cc4uEmAj.s:4143   .debug_loc:0000000000000779 .LLST3
C:\Users\stapi\AppData\Local\Temp\cc4uEmAj.s:44     .text.crypto_rsa_parse_integer:000000000000001a .LVL3
C:\Users\stapi\AppData\Local\Temp\cc4uEmAj.s:67     .text.crypto_rsa_parse_integer:000000000000003a .LVL6
C:\Users\stapi\AppData\Local\Temp\cc4uEmAj.s:75     .text.crypto_rsa_parse_integer:0000000000000050 .LVL7
C:\Users\stapi\AppData\Local\Temp\cc4uEmAj.s:83     .text.crypto_rsa_parse_integer:0000000000000064 .LVL8
C:\Users\stapi\AppData\Local\Temp\cc4uEmAj.s:4263   .debug_str:0000000000000191 .LASF44
C:\Users\stapi\AppData\Local\Temp\cc4uEmAj.s:4245   .debug_str:0000000000000103 .LASF45
C:\Users\stapi\AppData\Local\Temp\cc4uEmAj.s:413    .text.crypto_rsa_free:0000000000000000 .LFB92
C:\Users\stapi\AppData\Local\Temp\cc4uEmAj.s:477    .text.crypto_rsa_free:0000000000000070 .LFE92
C:\Users\stapi\AppData\Local\Temp\cc4uEmAj.s:4150   .debug_loc:000000000000078c .LLST15
C:\Users\stapi\AppData\Local\Temp\cc4uEmAj.s:427    .text.crypto_rsa_free:000000000000000c .LBB8
C:\Users\stapi\AppData\Local\Temp\cc4uEmAj.s:467    .text.crypto_rsa_free:0000000000000066 .LBE8
C:\Users\stapi\AppData\Local\Temp\cc4uEmAj.s:4165   .debug_loc:00000000000007b5 .LLST16
C:\Users\stapi\AppData\Local\Temp\cc4uEmAj.s:433    .text.crypto_rsa_free:0000000000000016 .LVL57
C:\Users\stapi\AppData\Local\Temp\cc4uEmAj.s:437    .text.crypto_rsa_free:0000000000000020 .LVL58
C:\Users\stapi\AppData\Local\Temp\cc4uEmAj.s:441    .text.crypto_rsa_free:000000000000002a .LVL59
C:\Users\stapi\AppData\Local\Temp\cc4uEmAj.s:445    .text.crypto_rsa_free:0000000000000034 .LVL60
C:\Users\stapi\AppData\Local\Temp\cc4uEmAj.s:449    .text.crypto_rsa_free:000000000000003e .LVL61
C:\Users\stapi\AppData\Local\Temp\cc4uEmAj.s:453    .text.crypto_rsa_free:0000000000000048 .LVL62
C:\Users\stapi\AppData\Local\Temp\cc4uEmAj.s:457    .text.crypto_rsa_free:0000000000000052 .LVL63
C:\Users\stapi\AppData\Local\Temp\cc4uEmAj.s:461    .text.crypto_rsa_free:000000000000005c .LVL64
C:\Users\stapi\AppData\Local\Temp\cc4uEmAj.s:465    .text.crypto_rsa_free:0000000000000066 .LVL65
C:\Users\stapi\AppData\Local\Temp\cc4uEmAj.s:4349   .debug_str:000000000000052c .LASF46
C:\Users\stapi\AppData\Local\Temp\cc4uEmAj.s:4341   .debug_str:0000000000000478 .LASF47
C:\Users\stapi\AppData\Local\Temp\cc4uEmAj.s:4309   .debug_str:00000000000003ae .LASF48
C:\Users\stapi\AppData\Local\Temp\cc4uEmAj.s:4319   .debug_str:00000000000003f4 .LASF49
C:\Users\stapi\AppData\Local\Temp\cc4uEmAj.s:4307   .debug_str:000000000000039f .LASF50
C:\Users\stapi\AppData\Local\Temp\cc4uEmAj.s:4343   .debug_str:0000000000000490 .LASF51
C:\Users\stapi\AppData\Local\Temp\cc4uEmAj.s:4303   .debug_str:0000000000000385 .LASF52
C:\Users\stapi\AppData\Local\Temp\cc4uEmAj.s:4313   .debug_str:00000000000003d3 .LASF53
C:\Users\stapi\AppData\Local\Temp\cc4uEmAj.s:4281   .debug_str:00000000000002f3 .LASF54
C:\Users\stapi\AppData\Local\Temp\cc4uEmAj.s:4259   .debug_str:000000000000016a .LASF55
C:\Users\stapi\AppData\Local\Temp\cc4uEmAj.s:4335   .debug_str:0000000000000454 .LASF56
C:\Users\stapi\AppData\Local\Temp\cc4uEmAj.s:4329   .debug_str:0000000000000430 .LASF57
C:\Users\stapi\AppData\Local\Temp\cc4uEmAj.s:4347   .debug_str:0000000000000522 .LASF58
C:\Users\stapi\AppData\Local\Temp\cc4uEmAj.s:4353   .debug_str:000000000000053e .LASF59
C:\Users\stapi\AppData\Local\Temp\cc4uEmAj.s:4361   .debug_str:0000000000000572 .LASF60
C:\Users\stapi\AppData\Local\Temp\cc4uEmAj.s:4241   .debug_str:00000000000000ed .LASF61
C:\Users\stapi\AppData\Local\Temp\cc4uEmAj.s:4257   .debug_str:000000000000015d .LASF62
C:\Users\stapi\AppData\Local\Temp\cc4uEmAj.s:4305   .debug_str:0000000000000393 .LASF63
C:\Users\stapi\AppData\Local\Temp\cc4uEmAj.s:4285   .debug_str:0000000000000307 .LASF64
C:\Users\stapi\AppData\Local\Temp\cc4uEmAj.s:143    .text.crypto_rsa_exptmod:0000000000000000 .LVL13
C:\Users\stapi\AppData\Local\Temp\cc4uEmAj.s:172    .text.crypto_rsa_exptmod:000000000000001a .LVL16
C:\Users\stapi\AppData\Local\Temp\cc4uEmAj.s:176    .text.crypto_rsa_exptmod:000000000000001c .LVL17
C:\Users\stapi\AppData\Local\Temp\cc4uEmAj.s:191    .text.crypto_rsa_exptmod:0000000000000026 .LVL18
C:\Users\stapi\AppData\Local\Temp\cc4uEmAj.s:217    .text.crypto_rsa_exptmod:0000000000000046 .LVL23
C:\Users\stapi\AppData\Local\Temp\cc4uEmAj.s:237    .text.crypto_rsa_exptmod:0000000000000068 .LVL28
C:\Users\stapi\AppData\Local\Temp\cc4uEmAj.s:261    .text.crypto_rsa_exptmod:0000000000000090 .LVL33
C:\Users\stapi\AppData\Local\Temp\cc4uEmAj.s:349    .text.crypto_rsa_exptmod:0000000000000126 .LVL45
C:\Users\stapi\AppData\Local\Temp\cc4uEmAj.s:363    .text.crypto_rsa_exptmod:000000000000013c .LVL47
C:\Users\stapi\AppData\Local\Temp\cc4uEmAj.s:220    .text.crypto_rsa_exptmod:0000000000000048 .LVL24
C:\Users\stapi\AppData\Local\Temp\cc4uEmAj.s:255    .text.crypto_rsa_exptmod:0000000000000086 .LVL31
C:\Users\stapi\AppData\Local\Temp\cc4uEmAj.s:366    .text.crypto_rsa_exptmod:000000000000013e .LVL48
C:\Users\stapi\AppData\Local\Temp\cc4uEmAj.s:337    .text.crypto_rsa_exptmod:000000000000011a .LVL44
C:\Users\stapi\AppData\Local\Temp\cc4uEmAj.s:368    .text.crypto_rsa_exptmod:0000000000000140 .LVL49
C:\Users\stapi\AppData\Local\Temp\cc4uEmAj.s:170    .text.crypto_rsa_exptmod:0000000000000018 .LVL15
C:\Users\stapi\AppData\Local\Temp\cc4uEmAj.s:214    .text.crypto_rsa_exptmod:0000000000000044 .LVL22
C:\Users\stapi\AppData\Local\Temp\cc4uEmAj.s:265    .text.crypto_rsa_exptmod:0000000000000092 .LVL34
C:\Users\stapi\AppData\Local\Temp\cc4uEmAj.s:155    .text.crypto_rsa_exptmod:0000000000000008 .LVL14
C:\Users\stapi\AppData\Local\Temp\cc4uEmAj.s:276    .text.crypto_rsa_exptmod:00000000000000a0 .LVL35
C:\Users\stapi\AppData\Local\Temp\cc4uEmAj.s:125    .text.crypto_rsa_get_modulus_len:0000000000000000 .LVL10
C:\Users\stapi\AppData\Local\Temp\cc4uEmAj.s:129    .text.crypto_rsa_get_modulus_len:0000000000000002 .LVL11
C:\Users\stapi\AppData\Local\Temp\cc4uEmAj.s:755    .text.crypto_rsa_import_private_key:0000000000000000 .LVL101
C:\Users\stapi\AppData\Local\Temp\cc4uEmAj.s:775    .text.crypto_rsa_import_private_key:0000000000000010 .LVL102
C:\Users\stapi\AppData\Local\Temp\cc4uEmAj.s:863    .text.crypto_rsa_import_private_key:0000000000000090 .LVL113
C:\Users\stapi\AppData\Local\Temp\cc4uEmAj.s:886    .text.crypto_rsa_import_private_key:00000000000000a8 .LVL116
C:\Users\stapi\AppData\Local\Temp\cc4uEmAj.s:918    .text.crypto_rsa_import_private_key:00000000000000cc .LVL121
C:\Users\stapi\AppData\Local\Temp\cc4uEmAj.s:958    .text.crypto_rsa_import_private_key:000000000000010a .LVL131
C:\Users\stapi\AppData\Local\Temp\cc4uEmAj.s:968    .text.crypto_rsa_import_private_key:000000000000011e .LVL133
C:\Users\stapi\AppData\Local\Temp\cc4uEmAj.s:923    .text.crypto_rsa_import_private_key:00000000000000d6 .LVL123
C:\Users\stapi\AppData\Local\Temp\cc4uEmAj.s:782    .text.crypto_rsa_import_private_key:000000000000001c .LVL104
C:\Users\stapi\AppData\Local\Temp\cc4uEmAj.s:872    .text.crypto_rsa_import_private_key:000000000000009c .LVL115
C:\Users\stapi\AppData\Local\Temp\cc4uEmAj.s:926    .text.crypto_rsa_import_private_key:00000000000000d8 .LVL124
C:\Users\stapi\AppData\Local\Temp\cc4uEmAj.s:936    .text.crypto_rsa_import_private_key:00000000000000e0 .LVL125
C:\Users\stapi\AppData\Local\Temp\cc4uEmAj.s:914    .text.crypto_rsa_import_private_key:00000000000000ca .LVL120
C:\Users\stapi\AppData\Local\Temp\cc4uEmAj.s:940    .text.crypto_rsa_import_private_key:00000000000000ea .LVL127
C:\Users\stapi\AppData\Local\Temp\cc4uEmAj.s:944    .text.crypto_rsa_import_private_key:00000000000000ec .LVL128
C:\Users\stapi\AppData\Local\Temp\cc4uEmAj.s:973    .text.crypto_rsa_import_private_key:0000000000000122 .LVL134
C:\Users\stapi\AppData\Local\Temp\cc4uEmAj.s:1032   .text.crypto_rsa_import_private_key:000000000000019a .LVL145
C:\Users\stapi\AppData\Local\Temp\cc4uEmAj.s:1044   .text.crypto_rsa_import_private_key:00000000000001b0 .LVL146
C:\Users\stapi\AppData\Local\Temp\cc4uEmAj.s:898    .text.crypto_rsa_import_private_key:00000000000000ba .LVL118
C:\Users\stapi\AppData\Local\Temp\cc4uEmAj.s:908    .text.crypto_rsa_import_private_key:00000000000000c8 .LVL119
C:\Users\stapi\AppData\Local\Temp\cc4uEmAj.s:652    .text.crypto_rsa_import_public_key_parts:0000000000000000 .LVL90
C:\Users\stapi\AppData\Local\Temp\cc4uEmAj.s:667    .text.crypto_rsa_import_public_key_parts:000000000000000e .LVL91
C:\Users\stapi\AppData\Local\Temp\cc4uEmAj.s:676    .text.crypto_rsa_import_public_key_parts:000000000000001e .LVL93
C:\Users\stapi\AppData\Local\Temp\cc4uEmAj.s:706    .text.crypto_rsa_import_public_key_parts:0000000000000046 .LVL97
C:\Users\stapi\AppData\Local\Temp\cc4uEmAj.s:719    .text.crypto_rsa_import_public_key_parts:0000000000000050 .LVL98
C:\Users\stapi\AppData\Local\Temp\cc4uEmAj.s:494    .text.crypto_rsa_import_public_key:0000000000000000 .LVL67
C:\Users\stapi\AppData\Local\Temp\cc4uEmAj.s:512    .text.crypto_rsa_import_public_key:0000000000000010 .LVL68
C:\Users\stapi\AppData\Local\Temp\cc4uEmAj.s:542    .text.crypto_rsa_import_public_key:0000000000000038 .LVL73
C:\Users\stapi\AppData\Local\Temp\cc4uEmAj.s:564    .text.crypto_rsa_import_public_key:0000000000000050 .LVL76
C:\Users\stapi\AppData\Local\Temp\cc4uEmAj.s:596    .text.crypto_rsa_import_public_key:0000000000000074 .LVL81
C:\Users\stapi\AppData\Local\Temp\cc4uEmAj.s:631    .text.crypto_rsa_import_public_key:00000000000000ae .LVL88
C:\Users\stapi\AppData\Local\Temp\cc4uEmAj.s:519    .text.crypto_rsa_import_public_key:000000000000001c .LVL70
C:\Users\stapi\AppData\Local\Temp\cc4uEmAj.s:551    .text.crypto_rsa_import_public_key:0000000000000044 .LVL75
C:\Users\stapi\AppData\Local\Temp\cc4uEmAj.s:592    .text.crypto_rsa_import_public_key:0000000000000072 .LVL80
C:\Users\stapi\AppData\Local\Temp\cc4uEmAj.s:614    .text.crypto_rsa_import_public_key:0000000000000090 .LVL85
C:\Users\stapi\AppData\Local\Temp\cc4uEmAj.s:626    .text.crypto_rsa_import_public_key:00000000000000a4 .LVL86
C:\Users\stapi\AppData\Local\Temp\cc4uEmAj.s:601    .text.crypto_rsa_import_public_key:0000000000000078 .LVL82
C:\Users\stapi\AppData\Local\Temp\cc4uEmAj.s:576    .text.crypto_rsa_import_public_key:0000000000000062 .LVL78
C:\Users\stapi\AppData\Local\Temp\cc4uEmAj.s:586    .text.crypto_rsa_import_public_key:0000000000000070 .LVL79
C:\Users\stapi\AppData\Local\Temp\cc4uEmAj.s:24     .text.crypto_rsa_parse_integer:0000000000000000 .LVL0
C:\Users\stapi\AppData\Local\Temp\cc4uEmAj.s:107    .text.crypto_rsa_parse_integer:000000000000007a .LVL9
C:\Users\stapi\AppData\Local\Temp\cc4uEmAj.s:40     .text.crypto_rsa_parse_integer:0000000000000010 .LVL1
C:\Users\stapi\AppData\Local\Temp\cc4uEmAj.s:42     .text.crypto_rsa_parse_integer:0000000000000012 .LVL2
C:\Users\stapi\AppData\Local\Temp\cc4uEmAj.s:47     .text.crypto_rsa_parse_integer:000000000000001e .LVL4
C:\Users\stapi\AppData\Local\Temp\cc4uEmAj.s:58     .text.crypto_rsa_parse_integer:000000000000002c .LVL5
C:\Users\stapi\AppData\Local\Temp\cc4uEmAj.s:416    .text.crypto_rsa_free:0000000000000000 .LVL54
C:\Users\stapi\AppData\Local\Temp\cc4uEmAj.s:431    .text.crypto_rsa_free:000000000000000e .LVL56
C:\Users\stapi\AppData\Local\Temp\cc4uEmAj.s:473    .text.crypto_rsa_free:000000000000006e .LVL66
C:\Users\stapi\AppData\Local\Temp\cc4uEmAj.s:426    .text.crypto_rsa_free:000000000000000c .LVL55
C:\Users\stapi\AppData\Local\Temp\cc4uEmAj.s:1062   .debug_info:0000000000000000 .Ldebug_info0

UNDEFINED SYMBOLS
__riscv_save_1
asn1_get_next
bignum_set_unsigned_bin
wpa_printf
asn1_unexpected
__riscv_restore_1
bignum_get_unsigned_bin_len
__riscv_save_7
__riscv_restore_7
bignum_init
bignum_deinit
bignum_cmp
bignum_exptmod
bignum_sub
bignum_mulmod
bignum_mul
bignum_add
os_memset
bignum_get_unsigned_bin
os_free
__riscv_save_3
os_zalloc
__riscv_restore_3
wpa_hexdump
__riscv_save_5
__riscv_restore_5
__riscv_save_4
__riscv_restore_4
bignum_cmp_d
