   1              		.file	"tlsv1_client_write.c"
   2              		.option nopic
   3              		.attribute arch, "rv32i2p0_m2p0_a2p0_f2p0_c2p0_b_p0p94"
   4              		.attribute unaligned_access, 0
   5              		.attribute stack_align, 16
   6              		.text
   7              	.Ltext0:
   8              		.cfi_sections	.debug_frame
   9              		.section	.rodata.tls_write_client_change_cipher_spec.str1.4,"aMS",@progbits,1
  10              		.align	2
  11              	.LC0:
  12 0000 544C5376 		.string	"TLSv1: Send ChangeCipherSpec"
  12      313A2053 
  12      656E6420 
  12      4368616E 
  12      67654369 
  13 001d 000000   		.align	2
  14              	.LC1:
  15 0020 544C5376 		.string	"TLSv1: Failed to create a record"
  15      313A2046 
  15      61696C65 
  15      6420746F 
  15      20637265 
  16 0041 000000   		.align	2
  17              	.LC2:
  18 0044 544C5376 		.string	"TLSv1: Failed to set write cipher for record layer"
  18      313A2046 
  18      61696C65 
  18      6420746F 
  18      20736574 
  19              		.section	.text.tls_write_client_change_cipher_spec,"ax",@progbits
  20              		.align	1
  22              	tls_write_client_change_cipher_spec:
  23              	.LFB93:
  24              		.file 1 "C:/Users/stapi/OneDrive/Desktop/GD32VW553/V1_MQTT_OK/GD32VW55X_Wifi_BLE_SDK/GD32VW55x_REL
   1:C:/Users/stapi/OneDrive/Desktop/GD32VW553/V1_MQTT_OK/GD32VW55X_Wifi_BLE_SDK/GD32VW55x_RELEASE_V1.0.2/MSDK/wpa_supplicant/src/tls\tlsv1_client_write.c **** /*
   2:C:/Users/stapi/OneDrive/Desktop/GD32VW553/V1_MQTT_OK/GD32VW55X_Wifi_BLE_SDK/GD32VW55x_RELEASE_V1.0.2/MSDK/wpa_supplicant/src/tls\tlsv1_client_write.c ****  * TLSv1 client - write handshake message
   3:C:/Users/stapi/OneDrive/Desktop/GD32VW553/V1_MQTT_OK/GD32VW55X_Wifi_BLE_SDK/GD32VW55x_RELEASE_V1.0.2/MSDK/wpa_supplicant/src/tls\tlsv1_client_write.c ****  * Copyright (c) 2006-2015, Jouni Malinen <j@w1.fi>
   4:C:/Users/stapi/OneDrive/Desktop/GD32VW553/V1_MQTT_OK/GD32VW55X_Wifi_BLE_SDK/GD32VW55x_RELEASE_V1.0.2/MSDK/wpa_supplicant/src/tls\tlsv1_client_write.c ****  *
   5:C:/Users/stapi/OneDrive/Desktop/GD32VW553/V1_MQTT_OK/GD32VW55X_Wifi_BLE_SDK/GD32VW55x_RELEASE_V1.0.2/MSDK/wpa_supplicant/src/tls\tlsv1_client_write.c ****  * This software may be distributed under the terms of the BSD license.
   6:C:/Users/stapi/OneDrive/Desktop/GD32VW553/V1_MQTT_OK/GD32VW55X_Wifi_BLE_SDK/GD32VW55x_RELEASE_V1.0.2/MSDK/wpa_supplicant/src/tls\tlsv1_client_write.c ****  * See README for more details.
   7:C:/Users/stapi/OneDrive/Desktop/GD32VW553/V1_MQTT_OK/GD32VW55X_Wifi_BLE_SDK/GD32VW55x_RELEASE_V1.0.2/MSDK/wpa_supplicant/src/tls\tlsv1_client_write.c ****  */
   8:C:/Users/stapi/OneDrive/Desktop/GD32VW553/V1_MQTT_OK/GD32VW55X_Wifi_BLE_SDK/GD32VW55x_RELEASE_V1.0.2/MSDK/wpa_supplicant/src/tls\tlsv1_client_write.c **** 
   9:C:/Users/stapi/OneDrive/Desktop/GD32VW553/V1_MQTT_OK/GD32VW55X_Wifi_BLE_SDK/GD32VW55x_RELEASE_V1.0.2/MSDK/wpa_supplicant/src/tls\tlsv1_client_write.c **** #include "includes.h"
  10:C:/Users/stapi/OneDrive/Desktop/GD32VW553/V1_MQTT_OK/GD32VW55X_Wifi_BLE_SDK/GD32VW55x_RELEASE_V1.0.2/MSDK/wpa_supplicant/src/tls\tlsv1_client_write.c **** 
  11:C:/Users/stapi/OneDrive/Desktop/GD32VW553/V1_MQTT_OK/GD32VW55X_Wifi_BLE_SDK/GD32VW55x_RELEASE_V1.0.2/MSDK/wpa_supplicant/src/tls\tlsv1_client_write.c **** #include "common.h"
  12:C:/Users/stapi/OneDrive/Desktop/GD32VW553/V1_MQTT_OK/GD32VW55X_Wifi_BLE_SDK/GD32VW55x_RELEASE_V1.0.2/MSDK/wpa_supplicant/src/tls\tlsv1_client_write.c **** #include "crypto/md5.h"
  13:C:/Users/stapi/OneDrive/Desktop/GD32VW553/V1_MQTT_OK/GD32VW55X_Wifi_BLE_SDK/GD32VW55x_RELEASE_V1.0.2/MSDK/wpa_supplicant/src/tls\tlsv1_client_write.c **** #include "crypto/sha1.h"
  14:C:/Users/stapi/OneDrive/Desktop/GD32VW553/V1_MQTT_OK/GD32VW55X_Wifi_BLE_SDK/GD32VW55x_RELEASE_V1.0.2/MSDK/wpa_supplicant/src/tls\tlsv1_client_write.c **** #include "crypto/sha256.h"
  15:C:/Users/stapi/OneDrive/Desktop/GD32VW553/V1_MQTT_OK/GD32VW55X_Wifi_BLE_SDK/GD32VW55x_RELEASE_V1.0.2/MSDK/wpa_supplicant/src/tls\tlsv1_client_write.c **** #include "crypto/tls.h"
  16:C:/Users/stapi/OneDrive/Desktop/GD32VW553/V1_MQTT_OK/GD32VW55X_Wifi_BLE_SDK/GD32VW55x_RELEASE_V1.0.2/MSDK/wpa_supplicant/src/tls\tlsv1_client_write.c **** #include "crypto/random.h"
  17:C:/Users/stapi/OneDrive/Desktop/GD32VW553/V1_MQTT_OK/GD32VW55X_Wifi_BLE_SDK/GD32VW55x_RELEASE_V1.0.2/MSDK/wpa_supplicant/src/tls\tlsv1_client_write.c **** #include "x509v3.h"
  18:C:/Users/stapi/OneDrive/Desktop/GD32VW553/V1_MQTT_OK/GD32VW55X_Wifi_BLE_SDK/GD32VW55x_RELEASE_V1.0.2/MSDK/wpa_supplicant/src/tls\tlsv1_client_write.c **** #include "tlsv1_common.h"
  19:C:/Users/stapi/OneDrive/Desktop/GD32VW553/V1_MQTT_OK/GD32VW55X_Wifi_BLE_SDK/GD32VW55x_RELEASE_V1.0.2/MSDK/wpa_supplicant/src/tls\tlsv1_client_write.c **** #include "tlsv1_record.h"
  20:C:/Users/stapi/OneDrive/Desktop/GD32VW553/V1_MQTT_OK/GD32VW55X_Wifi_BLE_SDK/GD32VW55x_RELEASE_V1.0.2/MSDK/wpa_supplicant/src/tls\tlsv1_client_write.c **** #include "tlsv1_client.h"
  21:C:/Users/stapi/OneDrive/Desktop/GD32VW553/V1_MQTT_OK/GD32VW55X_Wifi_BLE_SDK/GD32VW55x_RELEASE_V1.0.2/MSDK/wpa_supplicant/src/tls\tlsv1_client_write.c **** #include "tlsv1_client_i.h"
  22:C:/Users/stapi/OneDrive/Desktop/GD32VW553/V1_MQTT_OK/GD32VW55X_Wifi_BLE_SDK/GD32VW55x_RELEASE_V1.0.2/MSDK/wpa_supplicant/src/tls\tlsv1_client_write.c **** 
  23:C:/Users/stapi/OneDrive/Desktop/GD32VW553/V1_MQTT_OK/GD32VW55X_Wifi_BLE_SDK/GD32VW55x_RELEASE_V1.0.2/MSDK/wpa_supplicant/src/tls\tlsv1_client_write.c **** 
  24:C:/Users/stapi/OneDrive/Desktop/GD32VW553/V1_MQTT_OK/GD32VW55X_Wifi_BLE_SDK/GD32VW55x_RELEASE_V1.0.2/MSDK/wpa_supplicant/src/tls\tlsv1_client_write.c **** static size_t tls_client_cert_chain_der_len(struct tlsv1_client *conn)
  25:C:/Users/stapi/OneDrive/Desktop/GD32VW553/V1_MQTT_OK/GD32VW55X_Wifi_BLE_SDK/GD32VW55x_RELEASE_V1.0.2/MSDK/wpa_supplicant/src/tls\tlsv1_client_write.c **** {
  26:C:/Users/stapi/OneDrive/Desktop/GD32VW553/V1_MQTT_OK/GD32VW55X_Wifi_BLE_SDK/GD32VW55x_RELEASE_V1.0.2/MSDK/wpa_supplicant/src/tls\tlsv1_client_write.c **** 	size_t len = 0;
  27:C:/Users/stapi/OneDrive/Desktop/GD32VW553/V1_MQTT_OK/GD32VW55X_Wifi_BLE_SDK/GD32VW55x_RELEASE_V1.0.2/MSDK/wpa_supplicant/src/tls\tlsv1_client_write.c **** 	struct x509_certificate *cert;
  28:C:/Users/stapi/OneDrive/Desktop/GD32VW553/V1_MQTT_OK/GD32VW55X_Wifi_BLE_SDK/GD32VW55x_RELEASE_V1.0.2/MSDK/wpa_supplicant/src/tls\tlsv1_client_write.c **** 
  29:C:/Users/stapi/OneDrive/Desktop/GD32VW553/V1_MQTT_OK/GD32VW55X_Wifi_BLE_SDK/GD32VW55x_RELEASE_V1.0.2/MSDK/wpa_supplicant/src/tls\tlsv1_client_write.c **** 	if (conn->cred == NULL)
  30:C:/Users/stapi/OneDrive/Desktop/GD32VW553/V1_MQTT_OK/GD32VW55X_Wifi_BLE_SDK/GD32VW55x_RELEASE_V1.0.2/MSDK/wpa_supplicant/src/tls\tlsv1_client_write.c **** 		return 0;
  31:C:/Users/stapi/OneDrive/Desktop/GD32VW553/V1_MQTT_OK/GD32VW55X_Wifi_BLE_SDK/GD32VW55x_RELEASE_V1.0.2/MSDK/wpa_supplicant/src/tls\tlsv1_client_write.c **** 
  32:C:/Users/stapi/OneDrive/Desktop/GD32VW553/V1_MQTT_OK/GD32VW55X_Wifi_BLE_SDK/GD32VW55x_RELEASE_V1.0.2/MSDK/wpa_supplicant/src/tls\tlsv1_client_write.c **** 	cert = conn->cred->cert;
  33:C:/Users/stapi/OneDrive/Desktop/GD32VW553/V1_MQTT_OK/GD32VW55X_Wifi_BLE_SDK/GD32VW55x_RELEASE_V1.0.2/MSDK/wpa_supplicant/src/tls\tlsv1_client_write.c **** 	while (cert) {
  34:C:/Users/stapi/OneDrive/Desktop/GD32VW553/V1_MQTT_OK/GD32VW55X_Wifi_BLE_SDK/GD32VW55x_RELEASE_V1.0.2/MSDK/wpa_supplicant/src/tls\tlsv1_client_write.c **** 		len += 3 + cert->cert_len;
  35:C:/Users/stapi/OneDrive/Desktop/GD32VW553/V1_MQTT_OK/GD32VW55X_Wifi_BLE_SDK/GD32VW55x_RELEASE_V1.0.2/MSDK/wpa_supplicant/src/tls\tlsv1_client_write.c **** 		if (x509_certificate_self_signed(cert))
  36:C:/Users/stapi/OneDrive/Desktop/GD32VW553/V1_MQTT_OK/GD32VW55X_Wifi_BLE_SDK/GD32VW55x_RELEASE_V1.0.2/MSDK/wpa_supplicant/src/tls\tlsv1_client_write.c **** 			break;
  37:C:/Users/stapi/OneDrive/Desktop/GD32VW553/V1_MQTT_OK/GD32VW55X_Wifi_BLE_SDK/GD32VW55x_RELEASE_V1.0.2/MSDK/wpa_supplicant/src/tls\tlsv1_client_write.c **** 		cert = x509_certificate_get_subject(conn->cred->trusted_certs,
  38:C:/Users/stapi/OneDrive/Desktop/GD32VW553/V1_MQTT_OK/GD32VW55X_Wifi_BLE_SDK/GD32VW55x_RELEASE_V1.0.2/MSDK/wpa_supplicant/src/tls\tlsv1_client_write.c **** 						    &cert->issuer);
  39:C:/Users/stapi/OneDrive/Desktop/GD32VW553/V1_MQTT_OK/GD32VW55X_Wifi_BLE_SDK/GD32VW55x_RELEASE_V1.0.2/MSDK/wpa_supplicant/src/tls\tlsv1_client_write.c **** 	}
  40:C:/Users/stapi/OneDrive/Desktop/GD32VW553/V1_MQTT_OK/GD32VW55X_Wifi_BLE_SDK/GD32VW55x_RELEASE_V1.0.2/MSDK/wpa_supplicant/src/tls\tlsv1_client_write.c **** 
  41:C:/Users/stapi/OneDrive/Desktop/GD32VW553/V1_MQTT_OK/GD32VW55X_Wifi_BLE_SDK/GD32VW55x_RELEASE_V1.0.2/MSDK/wpa_supplicant/src/tls\tlsv1_client_write.c **** 	return len;
  42:C:/Users/stapi/OneDrive/Desktop/GD32VW553/V1_MQTT_OK/GD32VW55X_Wifi_BLE_SDK/GD32VW55x_RELEASE_V1.0.2/MSDK/wpa_supplicant/src/tls\tlsv1_client_write.c **** }
  43:C:/Users/stapi/OneDrive/Desktop/GD32VW553/V1_MQTT_OK/GD32VW55X_Wifi_BLE_SDK/GD32VW55x_RELEASE_V1.0.2/MSDK/wpa_supplicant/src/tls\tlsv1_client_write.c **** 
  44:C:/Users/stapi/OneDrive/Desktop/GD32VW553/V1_MQTT_OK/GD32VW55X_Wifi_BLE_SDK/GD32VW55x_RELEASE_V1.0.2/MSDK/wpa_supplicant/src/tls\tlsv1_client_write.c **** 
  45:C:/Users/stapi/OneDrive/Desktop/GD32VW553/V1_MQTT_OK/GD32VW55X_Wifi_BLE_SDK/GD32VW55x_RELEASE_V1.0.2/MSDK/wpa_supplicant/src/tls\tlsv1_client_write.c **** u8 * tls_send_client_hello(struct tlsv1_client *conn, size_t *out_len)
  46:C:/Users/stapi/OneDrive/Desktop/GD32VW553/V1_MQTT_OK/GD32VW55X_Wifi_BLE_SDK/GD32VW55x_RELEASE_V1.0.2/MSDK/wpa_supplicant/src/tls\tlsv1_client_write.c **** {
  47:C:/Users/stapi/OneDrive/Desktop/GD32VW553/V1_MQTT_OK/GD32VW55X_Wifi_BLE_SDK/GD32VW55x_RELEASE_V1.0.2/MSDK/wpa_supplicant/src/tls\tlsv1_client_write.c **** 	u8 *hello, *end, *pos, *hs_length, *hs_start, *rhdr;
  48:C:/Users/stapi/OneDrive/Desktop/GD32VW553/V1_MQTT_OK/GD32VW55X_Wifi_BLE_SDK/GD32VW55x_RELEASE_V1.0.2/MSDK/wpa_supplicant/src/tls\tlsv1_client_write.c **** 	struct os_time now;
  49:C:/Users/stapi/OneDrive/Desktop/GD32VW553/V1_MQTT_OK/GD32VW55X_Wifi_BLE_SDK/GD32VW55x_RELEASE_V1.0.2/MSDK/wpa_supplicant/src/tls\tlsv1_client_write.c **** 	size_t len, i;
  50:C:/Users/stapi/OneDrive/Desktop/GD32VW553/V1_MQTT_OK/GD32VW55X_Wifi_BLE_SDK/GD32VW55x_RELEASE_V1.0.2/MSDK/wpa_supplicant/src/tls\tlsv1_client_write.c **** 	u8 *ext_start;
  51:C:/Users/stapi/OneDrive/Desktop/GD32VW553/V1_MQTT_OK/GD32VW55X_Wifi_BLE_SDK/GD32VW55x_RELEASE_V1.0.2/MSDK/wpa_supplicant/src/tls\tlsv1_client_write.c **** 	u16 tls_version = tls_client_highest_ver(conn);
  52:C:/Users/stapi/OneDrive/Desktop/GD32VW553/V1_MQTT_OK/GD32VW55X_Wifi_BLE_SDK/GD32VW55x_RELEASE_V1.0.2/MSDK/wpa_supplicant/src/tls\tlsv1_client_write.c **** 
  53:C:/Users/stapi/OneDrive/Desktop/GD32VW553/V1_MQTT_OK/GD32VW55X_Wifi_BLE_SDK/GD32VW55x_RELEASE_V1.0.2/MSDK/wpa_supplicant/src/tls\tlsv1_client_write.c **** 	if (!tls_version) {
  54:C:/Users/stapi/OneDrive/Desktop/GD32VW553/V1_MQTT_OK/GD32VW55X_Wifi_BLE_SDK/GD32VW55x_RELEASE_V1.0.2/MSDK/wpa_supplicant/src/tls\tlsv1_client_write.c **** 		wpa_printf(MSG_INFO, "TLSv1: No TLS version allowed");
  55:C:/Users/stapi/OneDrive/Desktop/GD32VW553/V1_MQTT_OK/GD32VW55X_Wifi_BLE_SDK/GD32VW55x_RELEASE_V1.0.2/MSDK/wpa_supplicant/src/tls\tlsv1_client_write.c **** 		return NULL;
  56:C:/Users/stapi/OneDrive/Desktop/GD32VW553/V1_MQTT_OK/GD32VW55X_Wifi_BLE_SDK/GD32VW55x_RELEASE_V1.0.2/MSDK/wpa_supplicant/src/tls\tlsv1_client_write.c **** 	}
  57:C:/Users/stapi/OneDrive/Desktop/GD32VW553/V1_MQTT_OK/GD32VW55X_Wifi_BLE_SDK/GD32VW55x_RELEASE_V1.0.2/MSDK/wpa_supplicant/src/tls\tlsv1_client_write.c **** 
  58:C:/Users/stapi/OneDrive/Desktop/GD32VW553/V1_MQTT_OK/GD32VW55X_Wifi_BLE_SDK/GD32VW55x_RELEASE_V1.0.2/MSDK/wpa_supplicant/src/tls\tlsv1_client_write.c **** 	wpa_printf(MSG_DEBUG, "TLSv1: Send ClientHello (ver %s)",
  59:C:/Users/stapi/OneDrive/Desktop/GD32VW553/V1_MQTT_OK/GD32VW55X_Wifi_BLE_SDK/GD32VW55x_RELEASE_V1.0.2/MSDK/wpa_supplicant/src/tls\tlsv1_client_write.c **** 		   tls_version_str(tls_version));
  60:C:/Users/stapi/OneDrive/Desktop/GD32VW553/V1_MQTT_OK/GD32VW55X_Wifi_BLE_SDK/GD32VW55x_RELEASE_V1.0.2/MSDK/wpa_supplicant/src/tls\tlsv1_client_write.c **** 	*out_len = 0;
  61:C:/Users/stapi/OneDrive/Desktop/GD32VW553/V1_MQTT_OK/GD32VW55X_Wifi_BLE_SDK/GD32VW55x_RELEASE_V1.0.2/MSDK/wpa_supplicant/src/tls\tlsv1_client_write.c **** 
  62:C:/Users/stapi/OneDrive/Desktop/GD32VW553/V1_MQTT_OK/GD32VW55X_Wifi_BLE_SDK/GD32VW55x_RELEASE_V1.0.2/MSDK/wpa_supplicant/src/tls\tlsv1_client_write.c **** 	os_get_time(&now);
  63:C:/Users/stapi/OneDrive/Desktop/GD32VW553/V1_MQTT_OK/GD32VW55X_Wifi_BLE_SDK/GD32VW55x_RELEASE_V1.0.2/MSDK/wpa_supplicant/src/tls\tlsv1_client_write.c **** #ifdef TEST_FUZZ
  64:C:/Users/stapi/OneDrive/Desktop/GD32VW553/V1_MQTT_OK/GD32VW55X_Wifi_BLE_SDK/GD32VW55x_RELEASE_V1.0.2/MSDK/wpa_supplicant/src/tls\tlsv1_client_write.c **** 	now.sec = 0xfffefdfc;
  65:C:/Users/stapi/OneDrive/Desktop/GD32VW553/V1_MQTT_OK/GD32VW55X_Wifi_BLE_SDK/GD32VW55x_RELEASE_V1.0.2/MSDK/wpa_supplicant/src/tls\tlsv1_client_write.c **** #endif /* TEST_FUZZ */
  66:C:/Users/stapi/OneDrive/Desktop/GD32VW553/V1_MQTT_OK/GD32VW55X_Wifi_BLE_SDK/GD32VW55x_RELEASE_V1.0.2/MSDK/wpa_supplicant/src/tls\tlsv1_client_write.c **** 	WPA_PUT_BE32(conn->client_random, now.sec);
  67:C:/Users/stapi/OneDrive/Desktop/GD32VW553/V1_MQTT_OK/GD32VW55X_Wifi_BLE_SDK/GD32VW55x_RELEASE_V1.0.2/MSDK/wpa_supplicant/src/tls\tlsv1_client_write.c **** 	if (random_get_bytes(conn->client_random + 4, TLS_RANDOM_LEN - 4)) {
  68:C:/Users/stapi/OneDrive/Desktop/GD32VW553/V1_MQTT_OK/GD32VW55X_Wifi_BLE_SDK/GD32VW55x_RELEASE_V1.0.2/MSDK/wpa_supplicant/src/tls\tlsv1_client_write.c **** 		wpa_printf(MSG_ERROR, "TLSv1: Could not generate "
  69:C:/Users/stapi/OneDrive/Desktop/GD32VW553/V1_MQTT_OK/GD32VW55X_Wifi_BLE_SDK/GD32VW55x_RELEASE_V1.0.2/MSDK/wpa_supplicant/src/tls\tlsv1_client_write.c **** 			   "client_random");
  70:C:/Users/stapi/OneDrive/Desktop/GD32VW553/V1_MQTT_OK/GD32VW55X_Wifi_BLE_SDK/GD32VW55x_RELEASE_V1.0.2/MSDK/wpa_supplicant/src/tls\tlsv1_client_write.c **** 		return NULL;
  71:C:/Users/stapi/OneDrive/Desktop/GD32VW553/V1_MQTT_OK/GD32VW55X_Wifi_BLE_SDK/GD32VW55x_RELEASE_V1.0.2/MSDK/wpa_supplicant/src/tls\tlsv1_client_write.c **** 	}
  72:C:/Users/stapi/OneDrive/Desktop/GD32VW553/V1_MQTT_OK/GD32VW55X_Wifi_BLE_SDK/GD32VW55x_RELEASE_V1.0.2/MSDK/wpa_supplicant/src/tls\tlsv1_client_write.c **** 	wpa_hexdump(MSG_MSGDUMP, "TLSv1: client_random",
  73:C:/Users/stapi/OneDrive/Desktop/GD32VW553/V1_MQTT_OK/GD32VW55X_Wifi_BLE_SDK/GD32VW55x_RELEASE_V1.0.2/MSDK/wpa_supplicant/src/tls\tlsv1_client_write.c **** 		    conn->client_random, TLS_RANDOM_LEN);
  74:C:/Users/stapi/OneDrive/Desktop/GD32VW553/V1_MQTT_OK/GD32VW55X_Wifi_BLE_SDK/GD32VW55x_RELEASE_V1.0.2/MSDK/wpa_supplicant/src/tls\tlsv1_client_write.c **** 
  75:C:/Users/stapi/OneDrive/Desktop/GD32VW553/V1_MQTT_OK/GD32VW55X_Wifi_BLE_SDK/GD32VW55x_RELEASE_V1.0.2/MSDK/wpa_supplicant/src/tls\tlsv1_client_write.c **** 	len = 150 + conn->num_cipher_suites * 2 + conn->client_hello_ext_len;
  76:C:/Users/stapi/OneDrive/Desktop/GD32VW553/V1_MQTT_OK/GD32VW55X_Wifi_BLE_SDK/GD32VW55x_RELEASE_V1.0.2/MSDK/wpa_supplicant/src/tls\tlsv1_client_write.c **** 	hello = os_malloc(len);
  77:C:/Users/stapi/OneDrive/Desktop/GD32VW553/V1_MQTT_OK/GD32VW55X_Wifi_BLE_SDK/GD32VW55x_RELEASE_V1.0.2/MSDK/wpa_supplicant/src/tls\tlsv1_client_write.c **** 	if (hello == NULL)
  78:C:/Users/stapi/OneDrive/Desktop/GD32VW553/V1_MQTT_OK/GD32VW55X_Wifi_BLE_SDK/GD32VW55x_RELEASE_V1.0.2/MSDK/wpa_supplicant/src/tls\tlsv1_client_write.c **** 		return NULL;
  79:C:/Users/stapi/OneDrive/Desktop/GD32VW553/V1_MQTT_OK/GD32VW55X_Wifi_BLE_SDK/GD32VW55x_RELEASE_V1.0.2/MSDK/wpa_supplicant/src/tls\tlsv1_client_write.c **** 	end = hello + len;
  80:C:/Users/stapi/OneDrive/Desktop/GD32VW553/V1_MQTT_OK/GD32VW55X_Wifi_BLE_SDK/GD32VW55x_RELEASE_V1.0.2/MSDK/wpa_supplicant/src/tls\tlsv1_client_write.c **** 
  81:C:/Users/stapi/OneDrive/Desktop/GD32VW553/V1_MQTT_OK/GD32VW55X_Wifi_BLE_SDK/GD32VW55x_RELEASE_V1.0.2/MSDK/wpa_supplicant/src/tls\tlsv1_client_write.c **** 	rhdr = hello;
  82:C:/Users/stapi/OneDrive/Desktop/GD32VW553/V1_MQTT_OK/GD32VW55X_Wifi_BLE_SDK/GD32VW55x_RELEASE_V1.0.2/MSDK/wpa_supplicant/src/tls\tlsv1_client_write.c **** 	pos = rhdr + TLS_RECORD_HEADER_LEN;
  83:C:/Users/stapi/OneDrive/Desktop/GD32VW553/V1_MQTT_OK/GD32VW55X_Wifi_BLE_SDK/GD32VW55x_RELEASE_V1.0.2/MSDK/wpa_supplicant/src/tls\tlsv1_client_write.c **** 
  84:C:/Users/stapi/OneDrive/Desktop/GD32VW553/V1_MQTT_OK/GD32VW55X_Wifi_BLE_SDK/GD32VW55x_RELEASE_V1.0.2/MSDK/wpa_supplicant/src/tls\tlsv1_client_write.c **** 	/* opaque fragment[TLSPlaintext.length] */
  85:C:/Users/stapi/OneDrive/Desktop/GD32VW553/V1_MQTT_OK/GD32VW55X_Wifi_BLE_SDK/GD32VW55x_RELEASE_V1.0.2/MSDK/wpa_supplicant/src/tls\tlsv1_client_write.c **** 
  86:C:/Users/stapi/OneDrive/Desktop/GD32VW553/V1_MQTT_OK/GD32VW55X_Wifi_BLE_SDK/GD32VW55x_RELEASE_V1.0.2/MSDK/wpa_supplicant/src/tls\tlsv1_client_write.c **** 	/* Handshake */
  87:C:/Users/stapi/OneDrive/Desktop/GD32VW553/V1_MQTT_OK/GD32VW55X_Wifi_BLE_SDK/GD32VW55x_RELEASE_V1.0.2/MSDK/wpa_supplicant/src/tls\tlsv1_client_write.c **** 	hs_start = pos;
  88:C:/Users/stapi/OneDrive/Desktop/GD32VW553/V1_MQTT_OK/GD32VW55X_Wifi_BLE_SDK/GD32VW55x_RELEASE_V1.0.2/MSDK/wpa_supplicant/src/tls\tlsv1_client_write.c **** 	/* HandshakeType msg_type */
  89:C:/Users/stapi/OneDrive/Desktop/GD32VW553/V1_MQTT_OK/GD32VW55X_Wifi_BLE_SDK/GD32VW55x_RELEASE_V1.0.2/MSDK/wpa_supplicant/src/tls\tlsv1_client_write.c **** 	*pos++ = TLS_HANDSHAKE_TYPE_CLIENT_HELLO;
  90:C:/Users/stapi/OneDrive/Desktop/GD32VW553/V1_MQTT_OK/GD32VW55X_Wifi_BLE_SDK/GD32VW55x_RELEASE_V1.0.2/MSDK/wpa_supplicant/src/tls\tlsv1_client_write.c **** 	/* uint24 length (to be filled) */
  91:C:/Users/stapi/OneDrive/Desktop/GD32VW553/V1_MQTT_OK/GD32VW55X_Wifi_BLE_SDK/GD32VW55x_RELEASE_V1.0.2/MSDK/wpa_supplicant/src/tls\tlsv1_client_write.c **** 	hs_length = pos;
  92:C:/Users/stapi/OneDrive/Desktop/GD32VW553/V1_MQTT_OK/GD32VW55X_Wifi_BLE_SDK/GD32VW55x_RELEASE_V1.0.2/MSDK/wpa_supplicant/src/tls\tlsv1_client_write.c **** 	pos += 3;
  93:C:/Users/stapi/OneDrive/Desktop/GD32VW553/V1_MQTT_OK/GD32VW55X_Wifi_BLE_SDK/GD32VW55x_RELEASE_V1.0.2/MSDK/wpa_supplicant/src/tls\tlsv1_client_write.c **** 	/* body - ClientHello */
  94:C:/Users/stapi/OneDrive/Desktop/GD32VW553/V1_MQTT_OK/GD32VW55X_Wifi_BLE_SDK/GD32VW55x_RELEASE_V1.0.2/MSDK/wpa_supplicant/src/tls\tlsv1_client_write.c **** 	/* ProtocolVersion client_version */
  95:C:/Users/stapi/OneDrive/Desktop/GD32VW553/V1_MQTT_OK/GD32VW55X_Wifi_BLE_SDK/GD32VW55x_RELEASE_V1.0.2/MSDK/wpa_supplicant/src/tls\tlsv1_client_write.c **** 	WPA_PUT_BE16(pos, tls_version);
  96:C:/Users/stapi/OneDrive/Desktop/GD32VW553/V1_MQTT_OK/GD32VW55X_Wifi_BLE_SDK/GD32VW55x_RELEASE_V1.0.2/MSDK/wpa_supplicant/src/tls\tlsv1_client_write.c **** 	pos += 2;
  97:C:/Users/stapi/OneDrive/Desktop/GD32VW553/V1_MQTT_OK/GD32VW55X_Wifi_BLE_SDK/GD32VW55x_RELEASE_V1.0.2/MSDK/wpa_supplicant/src/tls\tlsv1_client_write.c **** 	/* Random random: uint32 gmt_unix_time, opaque random_bytes */
  98:C:/Users/stapi/OneDrive/Desktop/GD32VW553/V1_MQTT_OK/GD32VW55X_Wifi_BLE_SDK/GD32VW55x_RELEASE_V1.0.2/MSDK/wpa_supplicant/src/tls\tlsv1_client_write.c **** 	os_memcpy(pos, conn->client_random, TLS_RANDOM_LEN);
  99:C:/Users/stapi/OneDrive/Desktop/GD32VW553/V1_MQTT_OK/GD32VW55X_Wifi_BLE_SDK/GD32VW55x_RELEASE_V1.0.2/MSDK/wpa_supplicant/src/tls\tlsv1_client_write.c **** 	pos += TLS_RANDOM_LEN;
 100:C:/Users/stapi/OneDrive/Desktop/GD32VW553/V1_MQTT_OK/GD32VW55X_Wifi_BLE_SDK/GD32VW55x_RELEASE_V1.0.2/MSDK/wpa_supplicant/src/tls\tlsv1_client_write.c **** 	/* SessionID session_id */
 101:C:/Users/stapi/OneDrive/Desktop/GD32VW553/V1_MQTT_OK/GD32VW55X_Wifi_BLE_SDK/GD32VW55x_RELEASE_V1.0.2/MSDK/wpa_supplicant/src/tls\tlsv1_client_write.c **** 	*pos++ = conn->session_id_len;
 102:C:/Users/stapi/OneDrive/Desktop/GD32VW553/V1_MQTT_OK/GD32VW55X_Wifi_BLE_SDK/GD32VW55x_RELEASE_V1.0.2/MSDK/wpa_supplicant/src/tls\tlsv1_client_write.c **** 	os_memcpy(pos, conn->session_id, conn->session_id_len);
 103:C:/Users/stapi/OneDrive/Desktop/GD32VW553/V1_MQTT_OK/GD32VW55X_Wifi_BLE_SDK/GD32VW55x_RELEASE_V1.0.2/MSDK/wpa_supplicant/src/tls\tlsv1_client_write.c **** 	pos += conn->session_id_len;
 104:C:/Users/stapi/OneDrive/Desktop/GD32VW553/V1_MQTT_OK/GD32VW55X_Wifi_BLE_SDK/GD32VW55x_RELEASE_V1.0.2/MSDK/wpa_supplicant/src/tls\tlsv1_client_write.c **** 	/* CipherSuite cipher_suites<2..2^16-1> */
 105:C:/Users/stapi/OneDrive/Desktop/GD32VW553/V1_MQTT_OK/GD32VW55X_Wifi_BLE_SDK/GD32VW55x_RELEASE_V1.0.2/MSDK/wpa_supplicant/src/tls\tlsv1_client_write.c **** 	WPA_PUT_BE16(pos, 2 * conn->num_cipher_suites);
 106:C:/Users/stapi/OneDrive/Desktop/GD32VW553/V1_MQTT_OK/GD32VW55X_Wifi_BLE_SDK/GD32VW55x_RELEASE_V1.0.2/MSDK/wpa_supplicant/src/tls\tlsv1_client_write.c **** 	pos += 2;
 107:C:/Users/stapi/OneDrive/Desktop/GD32VW553/V1_MQTT_OK/GD32VW55X_Wifi_BLE_SDK/GD32VW55x_RELEASE_V1.0.2/MSDK/wpa_supplicant/src/tls\tlsv1_client_write.c **** 	for (i = 0; i < conn->num_cipher_suites; i++) {
 108:C:/Users/stapi/OneDrive/Desktop/GD32VW553/V1_MQTT_OK/GD32VW55X_Wifi_BLE_SDK/GD32VW55x_RELEASE_V1.0.2/MSDK/wpa_supplicant/src/tls\tlsv1_client_write.c **** 		WPA_PUT_BE16(pos, conn->cipher_suites[i]);
 109:C:/Users/stapi/OneDrive/Desktop/GD32VW553/V1_MQTT_OK/GD32VW55X_Wifi_BLE_SDK/GD32VW55x_RELEASE_V1.0.2/MSDK/wpa_supplicant/src/tls\tlsv1_client_write.c **** 		pos += 2;
 110:C:/Users/stapi/OneDrive/Desktop/GD32VW553/V1_MQTT_OK/GD32VW55X_Wifi_BLE_SDK/GD32VW55x_RELEASE_V1.0.2/MSDK/wpa_supplicant/src/tls\tlsv1_client_write.c **** 	}
 111:C:/Users/stapi/OneDrive/Desktop/GD32VW553/V1_MQTT_OK/GD32VW55X_Wifi_BLE_SDK/GD32VW55x_RELEASE_V1.0.2/MSDK/wpa_supplicant/src/tls\tlsv1_client_write.c **** 	/* CompressionMethod compression_methods<1..2^8-1> */
 112:C:/Users/stapi/OneDrive/Desktop/GD32VW553/V1_MQTT_OK/GD32VW55X_Wifi_BLE_SDK/GD32VW55x_RELEASE_V1.0.2/MSDK/wpa_supplicant/src/tls\tlsv1_client_write.c **** 	*pos++ = 1;
 113:C:/Users/stapi/OneDrive/Desktop/GD32VW553/V1_MQTT_OK/GD32VW55X_Wifi_BLE_SDK/GD32VW55x_RELEASE_V1.0.2/MSDK/wpa_supplicant/src/tls\tlsv1_client_write.c **** 	*pos++ = TLS_COMPRESSION_NULL;
 114:C:/Users/stapi/OneDrive/Desktop/GD32VW553/V1_MQTT_OK/GD32VW55X_Wifi_BLE_SDK/GD32VW55x_RELEASE_V1.0.2/MSDK/wpa_supplicant/src/tls\tlsv1_client_write.c **** 
 115:C:/Users/stapi/OneDrive/Desktop/GD32VW553/V1_MQTT_OK/GD32VW55X_Wifi_BLE_SDK/GD32VW55x_RELEASE_V1.0.2/MSDK/wpa_supplicant/src/tls\tlsv1_client_write.c **** 	/* Extension */
 116:C:/Users/stapi/OneDrive/Desktop/GD32VW553/V1_MQTT_OK/GD32VW55X_Wifi_BLE_SDK/GD32VW55x_RELEASE_V1.0.2/MSDK/wpa_supplicant/src/tls\tlsv1_client_write.c **** 	ext_start = pos;
 117:C:/Users/stapi/OneDrive/Desktop/GD32VW553/V1_MQTT_OK/GD32VW55X_Wifi_BLE_SDK/GD32VW55x_RELEASE_V1.0.2/MSDK/wpa_supplicant/src/tls\tlsv1_client_write.c **** 	pos += 2;
 118:C:/Users/stapi/OneDrive/Desktop/GD32VW553/V1_MQTT_OK/GD32VW55X_Wifi_BLE_SDK/GD32VW55x_RELEASE_V1.0.2/MSDK/wpa_supplicant/src/tls\tlsv1_client_write.c **** 
 119:C:/Users/stapi/OneDrive/Desktop/GD32VW553/V1_MQTT_OK/GD32VW55X_Wifi_BLE_SDK/GD32VW55x_RELEASE_V1.0.2/MSDK/wpa_supplicant/src/tls\tlsv1_client_write.c **** #ifdef CONFIG_TLSV12
 120:C:/Users/stapi/OneDrive/Desktop/GD32VW553/V1_MQTT_OK/GD32VW55X_Wifi_BLE_SDK/GD32VW55x_RELEASE_V1.0.2/MSDK/wpa_supplicant/src/tls\tlsv1_client_write.c **** 	if (conn->rl.tls_version >= TLS_VERSION_1_2) {
 121:C:/Users/stapi/OneDrive/Desktop/GD32VW553/V1_MQTT_OK/GD32VW55X_Wifi_BLE_SDK/GD32VW55x_RELEASE_V1.0.2/MSDK/wpa_supplicant/src/tls\tlsv1_client_write.c **** 		/*
 122:C:/Users/stapi/OneDrive/Desktop/GD32VW553/V1_MQTT_OK/GD32VW55X_Wifi_BLE_SDK/GD32VW55x_RELEASE_V1.0.2/MSDK/wpa_supplicant/src/tls\tlsv1_client_write.c **** 		 * Add signature_algorithms extension since we support only
 123:C:/Users/stapi/OneDrive/Desktop/GD32VW553/V1_MQTT_OK/GD32VW55X_Wifi_BLE_SDK/GD32VW55x_RELEASE_V1.0.2/MSDK/wpa_supplicant/src/tls\tlsv1_client_write.c **** 		 * SHA256 (and not the default SHA1) with TLSv1.2.
 124:C:/Users/stapi/OneDrive/Desktop/GD32VW553/V1_MQTT_OK/GD32VW55X_Wifi_BLE_SDK/GD32VW55x_RELEASE_V1.0.2/MSDK/wpa_supplicant/src/tls\tlsv1_client_write.c **** 		 */
 125:C:/Users/stapi/OneDrive/Desktop/GD32VW553/V1_MQTT_OK/GD32VW55X_Wifi_BLE_SDK/GD32VW55x_RELEASE_V1.0.2/MSDK/wpa_supplicant/src/tls\tlsv1_client_write.c **** 		/* ExtensionsType extension_type = signature_algorithms(13) */
 126:C:/Users/stapi/OneDrive/Desktop/GD32VW553/V1_MQTT_OK/GD32VW55X_Wifi_BLE_SDK/GD32VW55x_RELEASE_V1.0.2/MSDK/wpa_supplicant/src/tls\tlsv1_client_write.c **** 		WPA_PUT_BE16(pos, TLS_EXT_SIGNATURE_ALGORITHMS);
 127:C:/Users/stapi/OneDrive/Desktop/GD32VW553/V1_MQTT_OK/GD32VW55X_Wifi_BLE_SDK/GD32VW55x_RELEASE_V1.0.2/MSDK/wpa_supplicant/src/tls\tlsv1_client_write.c **** 		pos += 2;
 128:C:/Users/stapi/OneDrive/Desktop/GD32VW553/V1_MQTT_OK/GD32VW55X_Wifi_BLE_SDK/GD32VW55x_RELEASE_V1.0.2/MSDK/wpa_supplicant/src/tls\tlsv1_client_write.c **** 		/* opaque extension_data<0..2^16-1> length */
 129:C:/Users/stapi/OneDrive/Desktop/GD32VW553/V1_MQTT_OK/GD32VW55X_Wifi_BLE_SDK/GD32VW55x_RELEASE_V1.0.2/MSDK/wpa_supplicant/src/tls\tlsv1_client_write.c **** 		WPA_PUT_BE16(pos, 8);
 130:C:/Users/stapi/OneDrive/Desktop/GD32VW553/V1_MQTT_OK/GD32VW55X_Wifi_BLE_SDK/GD32VW55x_RELEASE_V1.0.2/MSDK/wpa_supplicant/src/tls\tlsv1_client_write.c **** 		pos += 2;
 131:C:/Users/stapi/OneDrive/Desktop/GD32VW553/V1_MQTT_OK/GD32VW55X_Wifi_BLE_SDK/GD32VW55x_RELEASE_V1.0.2/MSDK/wpa_supplicant/src/tls\tlsv1_client_write.c **** 		/* supported_signature_algorithms<2..2^16-2> length */
 132:C:/Users/stapi/OneDrive/Desktop/GD32VW553/V1_MQTT_OK/GD32VW55X_Wifi_BLE_SDK/GD32VW55x_RELEASE_V1.0.2/MSDK/wpa_supplicant/src/tls\tlsv1_client_write.c **** 		WPA_PUT_BE16(pos, 6);
 133:C:/Users/stapi/OneDrive/Desktop/GD32VW553/V1_MQTT_OK/GD32VW55X_Wifi_BLE_SDK/GD32VW55x_RELEASE_V1.0.2/MSDK/wpa_supplicant/src/tls\tlsv1_client_write.c **** 		pos += 2;
 134:C:/Users/stapi/OneDrive/Desktop/GD32VW553/V1_MQTT_OK/GD32VW55X_Wifi_BLE_SDK/GD32VW55x_RELEASE_V1.0.2/MSDK/wpa_supplicant/src/tls\tlsv1_client_write.c **** 		/* supported_signature_algorithms */
 135:C:/Users/stapi/OneDrive/Desktop/GD32VW553/V1_MQTT_OK/GD32VW55X_Wifi_BLE_SDK/GD32VW55x_RELEASE_V1.0.2/MSDK/wpa_supplicant/src/tls\tlsv1_client_write.c **** 		*pos++ = TLS_HASH_ALG_SHA512;
 136:C:/Users/stapi/OneDrive/Desktop/GD32VW553/V1_MQTT_OK/GD32VW55X_Wifi_BLE_SDK/GD32VW55x_RELEASE_V1.0.2/MSDK/wpa_supplicant/src/tls\tlsv1_client_write.c **** 		*pos++ = TLS_SIGN_ALG_RSA;
 137:C:/Users/stapi/OneDrive/Desktop/GD32VW553/V1_MQTT_OK/GD32VW55X_Wifi_BLE_SDK/GD32VW55x_RELEASE_V1.0.2/MSDK/wpa_supplicant/src/tls\tlsv1_client_write.c **** 		*pos++ = TLS_HASH_ALG_SHA384;
 138:C:/Users/stapi/OneDrive/Desktop/GD32VW553/V1_MQTT_OK/GD32VW55X_Wifi_BLE_SDK/GD32VW55x_RELEASE_V1.0.2/MSDK/wpa_supplicant/src/tls\tlsv1_client_write.c **** 		*pos++ = TLS_SIGN_ALG_RSA;
 139:C:/Users/stapi/OneDrive/Desktop/GD32VW553/V1_MQTT_OK/GD32VW55X_Wifi_BLE_SDK/GD32VW55x_RELEASE_V1.0.2/MSDK/wpa_supplicant/src/tls\tlsv1_client_write.c **** 		*pos++ = TLS_HASH_ALG_SHA256;
 140:C:/Users/stapi/OneDrive/Desktop/GD32VW553/V1_MQTT_OK/GD32VW55X_Wifi_BLE_SDK/GD32VW55x_RELEASE_V1.0.2/MSDK/wpa_supplicant/src/tls\tlsv1_client_write.c **** 		*pos++ = TLS_SIGN_ALG_RSA;
 141:C:/Users/stapi/OneDrive/Desktop/GD32VW553/V1_MQTT_OK/GD32VW55X_Wifi_BLE_SDK/GD32VW55x_RELEASE_V1.0.2/MSDK/wpa_supplicant/src/tls\tlsv1_client_write.c **** 	}
 142:C:/Users/stapi/OneDrive/Desktop/GD32VW553/V1_MQTT_OK/GD32VW55X_Wifi_BLE_SDK/GD32VW55x_RELEASE_V1.0.2/MSDK/wpa_supplicant/src/tls\tlsv1_client_write.c **** #endif /* CONFIG_TLSV12 */
 143:C:/Users/stapi/OneDrive/Desktop/GD32VW553/V1_MQTT_OK/GD32VW55X_Wifi_BLE_SDK/GD32VW55x_RELEASE_V1.0.2/MSDK/wpa_supplicant/src/tls\tlsv1_client_write.c **** 
 144:C:/Users/stapi/OneDrive/Desktop/GD32VW553/V1_MQTT_OK/GD32VW55X_Wifi_BLE_SDK/GD32VW55x_RELEASE_V1.0.2/MSDK/wpa_supplicant/src/tls\tlsv1_client_write.c **** 	if (conn->client_hello_ext) {
 145:C:/Users/stapi/OneDrive/Desktop/GD32VW553/V1_MQTT_OK/GD32VW55X_Wifi_BLE_SDK/GD32VW55x_RELEASE_V1.0.2/MSDK/wpa_supplicant/src/tls\tlsv1_client_write.c **** 		os_memcpy(pos, conn->client_hello_ext,
 146:C:/Users/stapi/OneDrive/Desktop/GD32VW553/V1_MQTT_OK/GD32VW55X_Wifi_BLE_SDK/GD32VW55x_RELEASE_V1.0.2/MSDK/wpa_supplicant/src/tls\tlsv1_client_write.c **** 			  conn->client_hello_ext_len);
 147:C:/Users/stapi/OneDrive/Desktop/GD32VW553/V1_MQTT_OK/GD32VW55X_Wifi_BLE_SDK/GD32VW55x_RELEASE_V1.0.2/MSDK/wpa_supplicant/src/tls\tlsv1_client_write.c **** 		pos += conn->client_hello_ext_len;
 148:C:/Users/stapi/OneDrive/Desktop/GD32VW553/V1_MQTT_OK/GD32VW55X_Wifi_BLE_SDK/GD32VW55x_RELEASE_V1.0.2/MSDK/wpa_supplicant/src/tls\tlsv1_client_write.c **** 	}
 149:C:/Users/stapi/OneDrive/Desktop/GD32VW553/V1_MQTT_OK/GD32VW55X_Wifi_BLE_SDK/GD32VW55x_RELEASE_V1.0.2/MSDK/wpa_supplicant/src/tls\tlsv1_client_write.c **** 
 150:C:/Users/stapi/OneDrive/Desktop/GD32VW553/V1_MQTT_OK/GD32VW55X_Wifi_BLE_SDK/GD32VW55x_RELEASE_V1.0.2/MSDK/wpa_supplicant/src/tls\tlsv1_client_write.c **** 	if (conn->flags & TLS_CONN_REQUEST_OCSP) {
 151:C:/Users/stapi/OneDrive/Desktop/GD32VW553/V1_MQTT_OK/GD32VW55X_Wifi_BLE_SDK/GD32VW55x_RELEASE_V1.0.2/MSDK/wpa_supplicant/src/tls\tlsv1_client_write.c **** 		wpa_printf(MSG_DEBUG,
 152:C:/Users/stapi/OneDrive/Desktop/GD32VW553/V1_MQTT_OK/GD32VW55X_Wifi_BLE_SDK/GD32VW55x_RELEASE_V1.0.2/MSDK/wpa_supplicant/src/tls\tlsv1_client_write.c **** 			   "TLSv1: Add status_request extension for OCSP stapling");
 153:C:/Users/stapi/OneDrive/Desktop/GD32VW553/V1_MQTT_OK/GD32VW55X_Wifi_BLE_SDK/GD32VW55x_RELEASE_V1.0.2/MSDK/wpa_supplicant/src/tls\tlsv1_client_write.c **** 		/* ExtensionsType extension_type = status_request(5) */
 154:C:/Users/stapi/OneDrive/Desktop/GD32VW553/V1_MQTT_OK/GD32VW55X_Wifi_BLE_SDK/GD32VW55x_RELEASE_V1.0.2/MSDK/wpa_supplicant/src/tls\tlsv1_client_write.c **** 		WPA_PUT_BE16(pos, TLS_EXT_STATUS_REQUEST);
 155:C:/Users/stapi/OneDrive/Desktop/GD32VW553/V1_MQTT_OK/GD32VW55X_Wifi_BLE_SDK/GD32VW55x_RELEASE_V1.0.2/MSDK/wpa_supplicant/src/tls\tlsv1_client_write.c **** 		pos += 2;
 156:C:/Users/stapi/OneDrive/Desktop/GD32VW553/V1_MQTT_OK/GD32VW55X_Wifi_BLE_SDK/GD32VW55x_RELEASE_V1.0.2/MSDK/wpa_supplicant/src/tls\tlsv1_client_write.c **** 		/* opaque extension_data<0..2^16-1> length */
 157:C:/Users/stapi/OneDrive/Desktop/GD32VW553/V1_MQTT_OK/GD32VW55X_Wifi_BLE_SDK/GD32VW55x_RELEASE_V1.0.2/MSDK/wpa_supplicant/src/tls\tlsv1_client_write.c **** 		WPA_PUT_BE16(pos, 5);
 158:C:/Users/stapi/OneDrive/Desktop/GD32VW553/V1_MQTT_OK/GD32VW55X_Wifi_BLE_SDK/GD32VW55x_RELEASE_V1.0.2/MSDK/wpa_supplicant/src/tls\tlsv1_client_write.c **** 		pos += 2;
 159:C:/Users/stapi/OneDrive/Desktop/GD32VW553/V1_MQTT_OK/GD32VW55X_Wifi_BLE_SDK/GD32VW55x_RELEASE_V1.0.2/MSDK/wpa_supplicant/src/tls\tlsv1_client_write.c **** 
 160:C:/Users/stapi/OneDrive/Desktop/GD32VW553/V1_MQTT_OK/GD32VW55X_Wifi_BLE_SDK/GD32VW55x_RELEASE_V1.0.2/MSDK/wpa_supplicant/src/tls\tlsv1_client_write.c **** 		/*
 161:C:/Users/stapi/OneDrive/Desktop/GD32VW553/V1_MQTT_OK/GD32VW55X_Wifi_BLE_SDK/GD32VW55x_RELEASE_V1.0.2/MSDK/wpa_supplicant/src/tls\tlsv1_client_write.c **** 		 * RFC 6066, 8:
 162:C:/Users/stapi/OneDrive/Desktop/GD32VW553/V1_MQTT_OK/GD32VW55X_Wifi_BLE_SDK/GD32VW55x_RELEASE_V1.0.2/MSDK/wpa_supplicant/src/tls\tlsv1_client_write.c **** 		 * struct {
 163:C:/Users/stapi/OneDrive/Desktop/GD32VW553/V1_MQTT_OK/GD32VW55X_Wifi_BLE_SDK/GD32VW55x_RELEASE_V1.0.2/MSDK/wpa_supplicant/src/tls\tlsv1_client_write.c **** 		 *     CertificateStatusType status_type;
 164:C:/Users/stapi/OneDrive/Desktop/GD32VW553/V1_MQTT_OK/GD32VW55X_Wifi_BLE_SDK/GD32VW55x_RELEASE_V1.0.2/MSDK/wpa_supplicant/src/tls\tlsv1_client_write.c **** 		 *     select (status_type) {
 165:C:/Users/stapi/OneDrive/Desktop/GD32VW553/V1_MQTT_OK/GD32VW55X_Wifi_BLE_SDK/GD32VW55x_RELEASE_V1.0.2/MSDK/wpa_supplicant/src/tls\tlsv1_client_write.c **** 		 *         case ocsp: OCSPStatusRequest;
 166:C:/Users/stapi/OneDrive/Desktop/GD32VW553/V1_MQTT_OK/GD32VW55X_Wifi_BLE_SDK/GD32VW55x_RELEASE_V1.0.2/MSDK/wpa_supplicant/src/tls\tlsv1_client_write.c **** 		 *     } request;
 167:C:/Users/stapi/OneDrive/Desktop/GD32VW553/V1_MQTT_OK/GD32VW55X_Wifi_BLE_SDK/GD32VW55x_RELEASE_V1.0.2/MSDK/wpa_supplicant/src/tls\tlsv1_client_write.c **** 		 * } CertificateStatusRequest;
 168:C:/Users/stapi/OneDrive/Desktop/GD32VW553/V1_MQTT_OK/GD32VW55X_Wifi_BLE_SDK/GD32VW55x_RELEASE_V1.0.2/MSDK/wpa_supplicant/src/tls\tlsv1_client_write.c **** 		 *
 169:C:/Users/stapi/OneDrive/Desktop/GD32VW553/V1_MQTT_OK/GD32VW55X_Wifi_BLE_SDK/GD32VW55x_RELEASE_V1.0.2/MSDK/wpa_supplicant/src/tls\tlsv1_client_write.c **** 		 * enum { ocsp(1), (255) } CertificateStatusType;
 170:C:/Users/stapi/OneDrive/Desktop/GD32VW553/V1_MQTT_OK/GD32VW55X_Wifi_BLE_SDK/GD32VW55x_RELEASE_V1.0.2/MSDK/wpa_supplicant/src/tls\tlsv1_client_write.c **** 		 */
 171:C:/Users/stapi/OneDrive/Desktop/GD32VW553/V1_MQTT_OK/GD32VW55X_Wifi_BLE_SDK/GD32VW55x_RELEASE_V1.0.2/MSDK/wpa_supplicant/src/tls\tlsv1_client_write.c **** 		*pos++ = 1; /* status_type = ocsp(1) */
 172:C:/Users/stapi/OneDrive/Desktop/GD32VW553/V1_MQTT_OK/GD32VW55X_Wifi_BLE_SDK/GD32VW55x_RELEASE_V1.0.2/MSDK/wpa_supplicant/src/tls\tlsv1_client_write.c **** 
 173:C:/Users/stapi/OneDrive/Desktop/GD32VW553/V1_MQTT_OK/GD32VW55X_Wifi_BLE_SDK/GD32VW55x_RELEASE_V1.0.2/MSDK/wpa_supplicant/src/tls\tlsv1_client_write.c **** 		/*
 174:C:/Users/stapi/OneDrive/Desktop/GD32VW553/V1_MQTT_OK/GD32VW55X_Wifi_BLE_SDK/GD32VW55x_RELEASE_V1.0.2/MSDK/wpa_supplicant/src/tls\tlsv1_client_write.c **** 		 * struct {
 175:C:/Users/stapi/OneDrive/Desktop/GD32VW553/V1_MQTT_OK/GD32VW55X_Wifi_BLE_SDK/GD32VW55x_RELEASE_V1.0.2/MSDK/wpa_supplicant/src/tls\tlsv1_client_write.c **** 		 *     ResponderID responder_id_list<0..2^16-1>;
 176:C:/Users/stapi/OneDrive/Desktop/GD32VW553/V1_MQTT_OK/GD32VW55X_Wifi_BLE_SDK/GD32VW55x_RELEASE_V1.0.2/MSDK/wpa_supplicant/src/tls\tlsv1_client_write.c **** 		 *     Extensions  request_extensions;
 177:C:/Users/stapi/OneDrive/Desktop/GD32VW553/V1_MQTT_OK/GD32VW55X_Wifi_BLE_SDK/GD32VW55x_RELEASE_V1.0.2/MSDK/wpa_supplicant/src/tls\tlsv1_client_write.c **** 		 * } OCSPStatusRequest;
 178:C:/Users/stapi/OneDrive/Desktop/GD32VW553/V1_MQTT_OK/GD32VW55X_Wifi_BLE_SDK/GD32VW55x_RELEASE_V1.0.2/MSDK/wpa_supplicant/src/tls\tlsv1_client_write.c **** 		 *
 179:C:/Users/stapi/OneDrive/Desktop/GD32VW553/V1_MQTT_OK/GD32VW55X_Wifi_BLE_SDK/GD32VW55x_RELEASE_V1.0.2/MSDK/wpa_supplicant/src/tls\tlsv1_client_write.c **** 		 * opaque ResponderID<1..2^16-1>;
 180:C:/Users/stapi/OneDrive/Desktop/GD32VW553/V1_MQTT_OK/GD32VW55X_Wifi_BLE_SDK/GD32VW55x_RELEASE_V1.0.2/MSDK/wpa_supplicant/src/tls\tlsv1_client_write.c **** 		 * opaque Extensions<0..2^16-1>;
 181:C:/Users/stapi/OneDrive/Desktop/GD32VW553/V1_MQTT_OK/GD32VW55X_Wifi_BLE_SDK/GD32VW55x_RELEASE_V1.0.2/MSDK/wpa_supplicant/src/tls\tlsv1_client_write.c **** 		 */
 182:C:/Users/stapi/OneDrive/Desktop/GD32VW553/V1_MQTT_OK/GD32VW55X_Wifi_BLE_SDK/GD32VW55x_RELEASE_V1.0.2/MSDK/wpa_supplicant/src/tls\tlsv1_client_write.c **** 		WPA_PUT_BE16(pos, 0); /* responder_id_list(empty) */
 183:C:/Users/stapi/OneDrive/Desktop/GD32VW553/V1_MQTT_OK/GD32VW55X_Wifi_BLE_SDK/GD32VW55x_RELEASE_V1.0.2/MSDK/wpa_supplicant/src/tls\tlsv1_client_write.c **** 		pos += 2;
 184:C:/Users/stapi/OneDrive/Desktop/GD32VW553/V1_MQTT_OK/GD32VW55X_Wifi_BLE_SDK/GD32VW55x_RELEASE_V1.0.2/MSDK/wpa_supplicant/src/tls\tlsv1_client_write.c **** 		WPA_PUT_BE16(pos, 0); /* request_extensions(empty) */
 185:C:/Users/stapi/OneDrive/Desktop/GD32VW553/V1_MQTT_OK/GD32VW55X_Wifi_BLE_SDK/GD32VW55x_RELEASE_V1.0.2/MSDK/wpa_supplicant/src/tls\tlsv1_client_write.c **** 		pos += 2;
 186:C:/Users/stapi/OneDrive/Desktop/GD32VW553/V1_MQTT_OK/GD32VW55X_Wifi_BLE_SDK/GD32VW55x_RELEASE_V1.0.2/MSDK/wpa_supplicant/src/tls\tlsv1_client_write.c **** 
 187:C:/Users/stapi/OneDrive/Desktop/GD32VW553/V1_MQTT_OK/GD32VW55X_Wifi_BLE_SDK/GD32VW55x_RELEASE_V1.0.2/MSDK/wpa_supplicant/src/tls\tlsv1_client_write.c **** 		wpa_printf(MSG_DEBUG,
 188:C:/Users/stapi/OneDrive/Desktop/GD32VW553/V1_MQTT_OK/GD32VW55X_Wifi_BLE_SDK/GD32VW55x_RELEASE_V1.0.2/MSDK/wpa_supplicant/src/tls\tlsv1_client_write.c **** 			   "TLSv1: Add status_request_v2 extension for OCSP stapling");
 189:C:/Users/stapi/OneDrive/Desktop/GD32VW553/V1_MQTT_OK/GD32VW55X_Wifi_BLE_SDK/GD32VW55x_RELEASE_V1.0.2/MSDK/wpa_supplicant/src/tls\tlsv1_client_write.c **** 		/* ExtensionsType extension_type = status_request_v2(17) */
 190:C:/Users/stapi/OneDrive/Desktop/GD32VW553/V1_MQTT_OK/GD32VW55X_Wifi_BLE_SDK/GD32VW55x_RELEASE_V1.0.2/MSDK/wpa_supplicant/src/tls\tlsv1_client_write.c **** 		WPA_PUT_BE16(pos, TLS_EXT_STATUS_REQUEST_V2);
 191:C:/Users/stapi/OneDrive/Desktop/GD32VW553/V1_MQTT_OK/GD32VW55X_Wifi_BLE_SDK/GD32VW55x_RELEASE_V1.0.2/MSDK/wpa_supplicant/src/tls\tlsv1_client_write.c **** 		pos += 2;
 192:C:/Users/stapi/OneDrive/Desktop/GD32VW553/V1_MQTT_OK/GD32VW55X_Wifi_BLE_SDK/GD32VW55x_RELEASE_V1.0.2/MSDK/wpa_supplicant/src/tls\tlsv1_client_write.c **** 		/* opaque extension_data<0..2^16-1> length */
 193:C:/Users/stapi/OneDrive/Desktop/GD32VW553/V1_MQTT_OK/GD32VW55X_Wifi_BLE_SDK/GD32VW55x_RELEASE_V1.0.2/MSDK/wpa_supplicant/src/tls\tlsv1_client_write.c **** 		WPA_PUT_BE16(pos, 7);
 194:C:/Users/stapi/OneDrive/Desktop/GD32VW553/V1_MQTT_OK/GD32VW55X_Wifi_BLE_SDK/GD32VW55x_RELEASE_V1.0.2/MSDK/wpa_supplicant/src/tls\tlsv1_client_write.c **** 		pos += 2;
 195:C:/Users/stapi/OneDrive/Desktop/GD32VW553/V1_MQTT_OK/GD32VW55X_Wifi_BLE_SDK/GD32VW55x_RELEASE_V1.0.2/MSDK/wpa_supplicant/src/tls\tlsv1_client_write.c **** 
 196:C:/Users/stapi/OneDrive/Desktop/GD32VW553/V1_MQTT_OK/GD32VW55X_Wifi_BLE_SDK/GD32VW55x_RELEASE_V1.0.2/MSDK/wpa_supplicant/src/tls\tlsv1_client_write.c **** 		/*
 197:C:/Users/stapi/OneDrive/Desktop/GD32VW553/V1_MQTT_OK/GD32VW55X_Wifi_BLE_SDK/GD32VW55x_RELEASE_V1.0.2/MSDK/wpa_supplicant/src/tls\tlsv1_client_write.c **** 		 * RFC 6961, 2.2:
 198:C:/Users/stapi/OneDrive/Desktop/GD32VW553/V1_MQTT_OK/GD32VW55X_Wifi_BLE_SDK/GD32VW55x_RELEASE_V1.0.2/MSDK/wpa_supplicant/src/tls\tlsv1_client_write.c **** 		 * struct {
 199:C:/Users/stapi/OneDrive/Desktop/GD32VW553/V1_MQTT_OK/GD32VW55X_Wifi_BLE_SDK/GD32VW55x_RELEASE_V1.0.2/MSDK/wpa_supplicant/src/tls\tlsv1_client_write.c **** 		 *     CertificateStatusType status_type;
 200:C:/Users/stapi/OneDrive/Desktop/GD32VW553/V1_MQTT_OK/GD32VW55X_Wifi_BLE_SDK/GD32VW55x_RELEASE_V1.0.2/MSDK/wpa_supplicant/src/tls\tlsv1_client_write.c **** 		 *     uint16 request_length;
 201:C:/Users/stapi/OneDrive/Desktop/GD32VW553/V1_MQTT_OK/GD32VW55X_Wifi_BLE_SDK/GD32VW55x_RELEASE_V1.0.2/MSDK/wpa_supplicant/src/tls\tlsv1_client_write.c **** 		 *     select (status_type) {
 202:C:/Users/stapi/OneDrive/Desktop/GD32VW553/V1_MQTT_OK/GD32VW55X_Wifi_BLE_SDK/GD32VW55x_RELEASE_V1.0.2/MSDK/wpa_supplicant/src/tls\tlsv1_client_write.c **** 		 *         case ocsp: OCSPStatusRequest;
 203:C:/Users/stapi/OneDrive/Desktop/GD32VW553/V1_MQTT_OK/GD32VW55X_Wifi_BLE_SDK/GD32VW55x_RELEASE_V1.0.2/MSDK/wpa_supplicant/src/tls\tlsv1_client_write.c **** 		 *         case ocsp_multi: OCSPStatusRequest;
 204:C:/Users/stapi/OneDrive/Desktop/GD32VW553/V1_MQTT_OK/GD32VW55X_Wifi_BLE_SDK/GD32VW55x_RELEASE_V1.0.2/MSDK/wpa_supplicant/src/tls\tlsv1_client_write.c **** 		 *     } request;
 205:C:/Users/stapi/OneDrive/Desktop/GD32VW553/V1_MQTT_OK/GD32VW55X_Wifi_BLE_SDK/GD32VW55x_RELEASE_V1.0.2/MSDK/wpa_supplicant/src/tls\tlsv1_client_write.c **** 		 * } CertificateStatusRequestItemV2;
 206:C:/Users/stapi/OneDrive/Desktop/GD32VW553/V1_MQTT_OK/GD32VW55X_Wifi_BLE_SDK/GD32VW55x_RELEASE_V1.0.2/MSDK/wpa_supplicant/src/tls\tlsv1_client_write.c **** 		 *
 207:C:/Users/stapi/OneDrive/Desktop/GD32VW553/V1_MQTT_OK/GD32VW55X_Wifi_BLE_SDK/GD32VW55x_RELEASE_V1.0.2/MSDK/wpa_supplicant/src/tls\tlsv1_client_write.c **** 		 * enum { ocsp(1), ocsp_multi(2), (255) } CertificateStatusType;
 208:C:/Users/stapi/OneDrive/Desktop/GD32VW553/V1_MQTT_OK/GD32VW55X_Wifi_BLE_SDK/GD32VW55x_RELEASE_V1.0.2/MSDK/wpa_supplicant/src/tls\tlsv1_client_write.c **** 		 *
 209:C:/Users/stapi/OneDrive/Desktop/GD32VW553/V1_MQTT_OK/GD32VW55X_Wifi_BLE_SDK/GD32VW55x_RELEASE_V1.0.2/MSDK/wpa_supplicant/src/tls\tlsv1_client_write.c **** 		 * struct {
 210:C:/Users/stapi/OneDrive/Desktop/GD32VW553/V1_MQTT_OK/GD32VW55X_Wifi_BLE_SDK/GD32VW55x_RELEASE_V1.0.2/MSDK/wpa_supplicant/src/tls\tlsv1_client_write.c **** 		 * CertificateStatusRequestItemV2
 211:C:/Users/stapi/OneDrive/Desktop/GD32VW553/V1_MQTT_OK/GD32VW55X_Wifi_BLE_SDK/GD32VW55x_RELEASE_V1.0.2/MSDK/wpa_supplicant/src/tls\tlsv1_client_write.c **** 		 *     certificate_status_req_list<1..2^16-1>;
 212:C:/Users/stapi/OneDrive/Desktop/GD32VW553/V1_MQTT_OK/GD32VW55X_Wifi_BLE_SDK/GD32VW55x_RELEASE_V1.0.2/MSDK/wpa_supplicant/src/tls\tlsv1_client_write.c **** 		 * } CertificateStatusRequestListV2;
 213:C:/Users/stapi/OneDrive/Desktop/GD32VW553/V1_MQTT_OK/GD32VW55X_Wifi_BLE_SDK/GD32VW55x_RELEASE_V1.0.2/MSDK/wpa_supplicant/src/tls\tlsv1_client_write.c **** 		 */
 214:C:/Users/stapi/OneDrive/Desktop/GD32VW553/V1_MQTT_OK/GD32VW55X_Wifi_BLE_SDK/GD32VW55x_RELEASE_V1.0.2/MSDK/wpa_supplicant/src/tls\tlsv1_client_write.c **** 
 215:C:/Users/stapi/OneDrive/Desktop/GD32VW553/V1_MQTT_OK/GD32VW55X_Wifi_BLE_SDK/GD32VW55x_RELEASE_V1.0.2/MSDK/wpa_supplicant/src/tls\tlsv1_client_write.c **** 		/* certificate_status_req_list<1..2^16-1> */
 216:C:/Users/stapi/OneDrive/Desktop/GD32VW553/V1_MQTT_OK/GD32VW55X_Wifi_BLE_SDK/GD32VW55x_RELEASE_V1.0.2/MSDK/wpa_supplicant/src/tls\tlsv1_client_write.c **** 		WPA_PUT_BE16(pos, 5);
 217:C:/Users/stapi/OneDrive/Desktop/GD32VW553/V1_MQTT_OK/GD32VW55X_Wifi_BLE_SDK/GD32VW55x_RELEASE_V1.0.2/MSDK/wpa_supplicant/src/tls\tlsv1_client_write.c **** 		pos += 2;
 218:C:/Users/stapi/OneDrive/Desktop/GD32VW553/V1_MQTT_OK/GD32VW55X_Wifi_BLE_SDK/GD32VW55x_RELEASE_V1.0.2/MSDK/wpa_supplicant/src/tls\tlsv1_client_write.c **** 
 219:C:/Users/stapi/OneDrive/Desktop/GD32VW553/V1_MQTT_OK/GD32VW55X_Wifi_BLE_SDK/GD32VW55x_RELEASE_V1.0.2/MSDK/wpa_supplicant/src/tls\tlsv1_client_write.c **** 		/* CertificateStatusRequestItemV2 */
 220:C:/Users/stapi/OneDrive/Desktop/GD32VW553/V1_MQTT_OK/GD32VW55X_Wifi_BLE_SDK/GD32VW55x_RELEASE_V1.0.2/MSDK/wpa_supplicant/src/tls\tlsv1_client_write.c **** 		*pos++ = 2; /* status_type = ocsp_multi(2) */
 221:C:/Users/stapi/OneDrive/Desktop/GD32VW553/V1_MQTT_OK/GD32VW55X_Wifi_BLE_SDK/GD32VW55x_RELEASE_V1.0.2/MSDK/wpa_supplicant/src/tls\tlsv1_client_write.c **** 		/* OCSPStatusRequest as shown above for v1 */
 222:C:/Users/stapi/OneDrive/Desktop/GD32VW553/V1_MQTT_OK/GD32VW55X_Wifi_BLE_SDK/GD32VW55x_RELEASE_V1.0.2/MSDK/wpa_supplicant/src/tls\tlsv1_client_write.c **** 		WPA_PUT_BE16(pos, 0); /* responder_id_list(empty) */
 223:C:/Users/stapi/OneDrive/Desktop/GD32VW553/V1_MQTT_OK/GD32VW55X_Wifi_BLE_SDK/GD32VW55x_RELEASE_V1.0.2/MSDK/wpa_supplicant/src/tls\tlsv1_client_write.c **** 		pos += 2;
 224:C:/Users/stapi/OneDrive/Desktop/GD32VW553/V1_MQTT_OK/GD32VW55X_Wifi_BLE_SDK/GD32VW55x_RELEASE_V1.0.2/MSDK/wpa_supplicant/src/tls\tlsv1_client_write.c **** 		WPA_PUT_BE16(pos, 0); /* request_extensions(empty) */
 225:C:/Users/stapi/OneDrive/Desktop/GD32VW553/V1_MQTT_OK/GD32VW55X_Wifi_BLE_SDK/GD32VW55x_RELEASE_V1.0.2/MSDK/wpa_supplicant/src/tls\tlsv1_client_write.c **** 		pos += 2;
 226:C:/Users/stapi/OneDrive/Desktop/GD32VW553/V1_MQTT_OK/GD32VW55X_Wifi_BLE_SDK/GD32VW55x_RELEASE_V1.0.2/MSDK/wpa_supplicant/src/tls\tlsv1_client_write.c **** 	}
 227:C:/Users/stapi/OneDrive/Desktop/GD32VW553/V1_MQTT_OK/GD32VW55X_Wifi_BLE_SDK/GD32VW55x_RELEASE_V1.0.2/MSDK/wpa_supplicant/src/tls\tlsv1_client_write.c **** 
 228:C:/Users/stapi/OneDrive/Desktop/GD32VW553/V1_MQTT_OK/GD32VW55X_Wifi_BLE_SDK/GD32VW55x_RELEASE_V1.0.2/MSDK/wpa_supplicant/src/tls\tlsv1_client_write.c **** 	if (pos == ext_start + 2)
 229:C:/Users/stapi/OneDrive/Desktop/GD32VW553/V1_MQTT_OK/GD32VW55X_Wifi_BLE_SDK/GD32VW55x_RELEASE_V1.0.2/MSDK/wpa_supplicant/src/tls\tlsv1_client_write.c **** 		pos -= 2; /* no extensions */
 230:C:/Users/stapi/OneDrive/Desktop/GD32VW553/V1_MQTT_OK/GD32VW55X_Wifi_BLE_SDK/GD32VW55x_RELEASE_V1.0.2/MSDK/wpa_supplicant/src/tls\tlsv1_client_write.c **** 	else
 231:C:/Users/stapi/OneDrive/Desktop/GD32VW553/V1_MQTT_OK/GD32VW55X_Wifi_BLE_SDK/GD32VW55x_RELEASE_V1.0.2/MSDK/wpa_supplicant/src/tls\tlsv1_client_write.c **** 		WPA_PUT_BE16(ext_start, pos - ext_start - 2);
 232:C:/Users/stapi/OneDrive/Desktop/GD32VW553/V1_MQTT_OK/GD32VW55X_Wifi_BLE_SDK/GD32VW55x_RELEASE_V1.0.2/MSDK/wpa_supplicant/src/tls\tlsv1_client_write.c **** 
 233:C:/Users/stapi/OneDrive/Desktop/GD32VW553/V1_MQTT_OK/GD32VW55X_Wifi_BLE_SDK/GD32VW55x_RELEASE_V1.0.2/MSDK/wpa_supplicant/src/tls\tlsv1_client_write.c **** 	WPA_PUT_BE24(hs_length, pos - hs_length - 3);
 234:C:/Users/stapi/OneDrive/Desktop/GD32VW553/V1_MQTT_OK/GD32VW55X_Wifi_BLE_SDK/GD32VW55x_RELEASE_V1.0.2/MSDK/wpa_supplicant/src/tls\tlsv1_client_write.c **** 	tls_verify_hash_add(&conn->verify, hs_start, pos - hs_start);
 235:C:/Users/stapi/OneDrive/Desktop/GD32VW553/V1_MQTT_OK/GD32VW55X_Wifi_BLE_SDK/GD32VW55x_RELEASE_V1.0.2/MSDK/wpa_supplicant/src/tls\tlsv1_client_write.c **** 
 236:C:/Users/stapi/OneDrive/Desktop/GD32VW553/V1_MQTT_OK/GD32VW55X_Wifi_BLE_SDK/GD32VW55x_RELEASE_V1.0.2/MSDK/wpa_supplicant/src/tls\tlsv1_client_write.c **** 	if (tlsv1_record_send(&conn->rl, TLS_CONTENT_TYPE_HANDSHAKE,
 237:C:/Users/stapi/OneDrive/Desktop/GD32VW553/V1_MQTT_OK/GD32VW55X_Wifi_BLE_SDK/GD32VW55x_RELEASE_V1.0.2/MSDK/wpa_supplicant/src/tls\tlsv1_client_write.c **** 			      rhdr, end - rhdr, hs_start, pos - hs_start,
 238:C:/Users/stapi/OneDrive/Desktop/GD32VW553/V1_MQTT_OK/GD32VW55X_Wifi_BLE_SDK/GD32VW55x_RELEASE_V1.0.2/MSDK/wpa_supplicant/src/tls\tlsv1_client_write.c **** 			      out_len) < 0) {
 239:C:/Users/stapi/OneDrive/Desktop/GD32VW553/V1_MQTT_OK/GD32VW55X_Wifi_BLE_SDK/GD32VW55x_RELEASE_V1.0.2/MSDK/wpa_supplicant/src/tls\tlsv1_client_write.c **** 		wpa_printf(MSG_DEBUG, "TLSv1: Failed to create TLS record");
 240:C:/Users/stapi/OneDrive/Desktop/GD32VW553/V1_MQTT_OK/GD32VW55X_Wifi_BLE_SDK/GD32VW55x_RELEASE_V1.0.2/MSDK/wpa_supplicant/src/tls\tlsv1_client_write.c **** 		tls_alert(conn, TLS_ALERT_LEVEL_FATAL,
 241:C:/Users/stapi/OneDrive/Desktop/GD32VW553/V1_MQTT_OK/GD32VW55X_Wifi_BLE_SDK/GD32VW55x_RELEASE_V1.0.2/MSDK/wpa_supplicant/src/tls\tlsv1_client_write.c **** 			  TLS_ALERT_INTERNAL_ERROR);
 242:C:/Users/stapi/OneDrive/Desktop/GD32VW553/V1_MQTT_OK/GD32VW55X_Wifi_BLE_SDK/GD32VW55x_RELEASE_V1.0.2/MSDK/wpa_supplicant/src/tls\tlsv1_client_write.c **** 		os_free(hello);
 243:C:/Users/stapi/OneDrive/Desktop/GD32VW553/V1_MQTT_OK/GD32VW55X_Wifi_BLE_SDK/GD32VW55x_RELEASE_V1.0.2/MSDK/wpa_supplicant/src/tls\tlsv1_client_write.c **** 		return NULL;
 244:C:/Users/stapi/OneDrive/Desktop/GD32VW553/V1_MQTT_OK/GD32VW55X_Wifi_BLE_SDK/GD32VW55x_RELEASE_V1.0.2/MSDK/wpa_supplicant/src/tls\tlsv1_client_write.c **** 	}
 245:C:/Users/stapi/OneDrive/Desktop/GD32VW553/V1_MQTT_OK/GD32VW55X_Wifi_BLE_SDK/GD32VW55x_RELEASE_V1.0.2/MSDK/wpa_supplicant/src/tls\tlsv1_client_write.c **** 
 246:C:/Users/stapi/OneDrive/Desktop/GD32VW553/V1_MQTT_OK/GD32VW55X_Wifi_BLE_SDK/GD32VW55x_RELEASE_V1.0.2/MSDK/wpa_supplicant/src/tls\tlsv1_client_write.c **** 	conn->state = SERVER_HELLO;
 247:C:/Users/stapi/OneDrive/Desktop/GD32VW553/V1_MQTT_OK/GD32VW55X_Wifi_BLE_SDK/GD32VW55x_RELEASE_V1.0.2/MSDK/wpa_supplicant/src/tls\tlsv1_client_write.c **** 
 248:C:/Users/stapi/OneDrive/Desktop/GD32VW553/V1_MQTT_OK/GD32VW55X_Wifi_BLE_SDK/GD32VW55x_RELEASE_V1.0.2/MSDK/wpa_supplicant/src/tls\tlsv1_client_write.c **** 	return hello;
 249:C:/Users/stapi/OneDrive/Desktop/GD32VW553/V1_MQTT_OK/GD32VW55X_Wifi_BLE_SDK/GD32VW55x_RELEASE_V1.0.2/MSDK/wpa_supplicant/src/tls\tlsv1_client_write.c **** }
 250:C:/Users/stapi/OneDrive/Desktop/GD32VW553/V1_MQTT_OK/GD32VW55X_Wifi_BLE_SDK/GD32VW55x_RELEASE_V1.0.2/MSDK/wpa_supplicant/src/tls\tlsv1_client_write.c **** 
 251:C:/Users/stapi/OneDrive/Desktop/GD32VW553/V1_MQTT_OK/GD32VW55X_Wifi_BLE_SDK/GD32VW55x_RELEASE_V1.0.2/MSDK/wpa_supplicant/src/tls\tlsv1_client_write.c **** 
 252:C:/Users/stapi/OneDrive/Desktop/GD32VW553/V1_MQTT_OK/GD32VW55X_Wifi_BLE_SDK/GD32VW55x_RELEASE_V1.0.2/MSDK/wpa_supplicant/src/tls\tlsv1_client_write.c **** static int tls_write_client_certificate(struct tlsv1_client *conn,
 253:C:/Users/stapi/OneDrive/Desktop/GD32VW553/V1_MQTT_OK/GD32VW55X_Wifi_BLE_SDK/GD32VW55x_RELEASE_V1.0.2/MSDK/wpa_supplicant/src/tls\tlsv1_client_write.c **** 					u8 **msgpos, u8 *end)
 254:C:/Users/stapi/OneDrive/Desktop/GD32VW553/V1_MQTT_OK/GD32VW55X_Wifi_BLE_SDK/GD32VW55x_RELEASE_V1.0.2/MSDK/wpa_supplicant/src/tls\tlsv1_client_write.c **** {
 255:C:/Users/stapi/OneDrive/Desktop/GD32VW553/V1_MQTT_OK/GD32VW55X_Wifi_BLE_SDK/GD32VW55x_RELEASE_V1.0.2/MSDK/wpa_supplicant/src/tls\tlsv1_client_write.c **** 	u8 *pos, *rhdr, *hs_start, *hs_length, *cert_start;
 256:C:/Users/stapi/OneDrive/Desktop/GD32VW553/V1_MQTT_OK/GD32VW55X_Wifi_BLE_SDK/GD32VW55x_RELEASE_V1.0.2/MSDK/wpa_supplicant/src/tls\tlsv1_client_write.c **** 	size_t rlen;
 257:C:/Users/stapi/OneDrive/Desktop/GD32VW553/V1_MQTT_OK/GD32VW55X_Wifi_BLE_SDK/GD32VW55x_RELEASE_V1.0.2/MSDK/wpa_supplicant/src/tls\tlsv1_client_write.c **** 	struct x509_certificate *cert;
 258:C:/Users/stapi/OneDrive/Desktop/GD32VW553/V1_MQTT_OK/GD32VW55X_Wifi_BLE_SDK/GD32VW55x_RELEASE_V1.0.2/MSDK/wpa_supplicant/src/tls\tlsv1_client_write.c **** 
 259:C:/Users/stapi/OneDrive/Desktop/GD32VW553/V1_MQTT_OK/GD32VW55X_Wifi_BLE_SDK/GD32VW55x_RELEASE_V1.0.2/MSDK/wpa_supplicant/src/tls\tlsv1_client_write.c **** 	pos = *msgpos;
 260:C:/Users/stapi/OneDrive/Desktop/GD32VW553/V1_MQTT_OK/GD32VW55X_Wifi_BLE_SDK/GD32VW55x_RELEASE_V1.0.2/MSDK/wpa_supplicant/src/tls\tlsv1_client_write.c **** 	if (TLS_RECORD_HEADER_LEN + 1 + 3 + 3 > end - pos) {
 261:C:/Users/stapi/OneDrive/Desktop/GD32VW553/V1_MQTT_OK/GD32VW55X_Wifi_BLE_SDK/GD32VW55x_RELEASE_V1.0.2/MSDK/wpa_supplicant/src/tls\tlsv1_client_write.c **** 		tls_alert(conn, TLS_ALERT_LEVEL_FATAL,
 262:C:/Users/stapi/OneDrive/Desktop/GD32VW553/V1_MQTT_OK/GD32VW55X_Wifi_BLE_SDK/GD32VW55x_RELEASE_V1.0.2/MSDK/wpa_supplicant/src/tls\tlsv1_client_write.c **** 			  TLS_ALERT_INTERNAL_ERROR);
 263:C:/Users/stapi/OneDrive/Desktop/GD32VW553/V1_MQTT_OK/GD32VW55X_Wifi_BLE_SDK/GD32VW55x_RELEASE_V1.0.2/MSDK/wpa_supplicant/src/tls\tlsv1_client_write.c **** 		return -1;
 264:C:/Users/stapi/OneDrive/Desktop/GD32VW553/V1_MQTT_OK/GD32VW55X_Wifi_BLE_SDK/GD32VW55x_RELEASE_V1.0.2/MSDK/wpa_supplicant/src/tls\tlsv1_client_write.c **** 	}
 265:C:/Users/stapi/OneDrive/Desktop/GD32VW553/V1_MQTT_OK/GD32VW55X_Wifi_BLE_SDK/GD32VW55x_RELEASE_V1.0.2/MSDK/wpa_supplicant/src/tls\tlsv1_client_write.c **** 
 266:C:/Users/stapi/OneDrive/Desktop/GD32VW553/V1_MQTT_OK/GD32VW55X_Wifi_BLE_SDK/GD32VW55x_RELEASE_V1.0.2/MSDK/wpa_supplicant/src/tls\tlsv1_client_write.c **** 	wpa_printf(MSG_DEBUG, "TLSv1: Send Certificate");
 267:C:/Users/stapi/OneDrive/Desktop/GD32VW553/V1_MQTT_OK/GD32VW55X_Wifi_BLE_SDK/GD32VW55x_RELEASE_V1.0.2/MSDK/wpa_supplicant/src/tls\tlsv1_client_write.c **** 	rhdr = pos;
 268:C:/Users/stapi/OneDrive/Desktop/GD32VW553/V1_MQTT_OK/GD32VW55X_Wifi_BLE_SDK/GD32VW55x_RELEASE_V1.0.2/MSDK/wpa_supplicant/src/tls\tlsv1_client_write.c **** 	pos += TLS_RECORD_HEADER_LEN;
 269:C:/Users/stapi/OneDrive/Desktop/GD32VW553/V1_MQTT_OK/GD32VW55X_Wifi_BLE_SDK/GD32VW55x_RELEASE_V1.0.2/MSDK/wpa_supplicant/src/tls\tlsv1_client_write.c **** 
 270:C:/Users/stapi/OneDrive/Desktop/GD32VW553/V1_MQTT_OK/GD32VW55X_Wifi_BLE_SDK/GD32VW55x_RELEASE_V1.0.2/MSDK/wpa_supplicant/src/tls\tlsv1_client_write.c **** 	/* opaque fragment[TLSPlaintext.length] */
 271:C:/Users/stapi/OneDrive/Desktop/GD32VW553/V1_MQTT_OK/GD32VW55X_Wifi_BLE_SDK/GD32VW55x_RELEASE_V1.0.2/MSDK/wpa_supplicant/src/tls\tlsv1_client_write.c **** 
 272:C:/Users/stapi/OneDrive/Desktop/GD32VW553/V1_MQTT_OK/GD32VW55X_Wifi_BLE_SDK/GD32VW55x_RELEASE_V1.0.2/MSDK/wpa_supplicant/src/tls\tlsv1_client_write.c **** 	/* Handshake */
 273:C:/Users/stapi/OneDrive/Desktop/GD32VW553/V1_MQTT_OK/GD32VW55X_Wifi_BLE_SDK/GD32VW55x_RELEASE_V1.0.2/MSDK/wpa_supplicant/src/tls\tlsv1_client_write.c **** 	hs_start = pos;
 274:C:/Users/stapi/OneDrive/Desktop/GD32VW553/V1_MQTT_OK/GD32VW55X_Wifi_BLE_SDK/GD32VW55x_RELEASE_V1.0.2/MSDK/wpa_supplicant/src/tls\tlsv1_client_write.c **** 	/* HandshakeType msg_type */
 275:C:/Users/stapi/OneDrive/Desktop/GD32VW553/V1_MQTT_OK/GD32VW55X_Wifi_BLE_SDK/GD32VW55x_RELEASE_V1.0.2/MSDK/wpa_supplicant/src/tls\tlsv1_client_write.c **** 	*pos++ = TLS_HANDSHAKE_TYPE_CERTIFICATE;
 276:C:/Users/stapi/OneDrive/Desktop/GD32VW553/V1_MQTT_OK/GD32VW55X_Wifi_BLE_SDK/GD32VW55x_RELEASE_V1.0.2/MSDK/wpa_supplicant/src/tls\tlsv1_client_write.c **** 	/* uint24 length (to be filled) */
 277:C:/Users/stapi/OneDrive/Desktop/GD32VW553/V1_MQTT_OK/GD32VW55X_Wifi_BLE_SDK/GD32VW55x_RELEASE_V1.0.2/MSDK/wpa_supplicant/src/tls\tlsv1_client_write.c **** 	hs_length = pos;
 278:C:/Users/stapi/OneDrive/Desktop/GD32VW553/V1_MQTT_OK/GD32VW55X_Wifi_BLE_SDK/GD32VW55x_RELEASE_V1.0.2/MSDK/wpa_supplicant/src/tls\tlsv1_client_write.c **** 	pos += 3;
 279:C:/Users/stapi/OneDrive/Desktop/GD32VW553/V1_MQTT_OK/GD32VW55X_Wifi_BLE_SDK/GD32VW55x_RELEASE_V1.0.2/MSDK/wpa_supplicant/src/tls\tlsv1_client_write.c **** 	/* body - Certificate */
 280:C:/Users/stapi/OneDrive/Desktop/GD32VW553/V1_MQTT_OK/GD32VW55X_Wifi_BLE_SDK/GD32VW55x_RELEASE_V1.0.2/MSDK/wpa_supplicant/src/tls\tlsv1_client_write.c **** 	/* uint24 length (to be filled) */
 281:C:/Users/stapi/OneDrive/Desktop/GD32VW553/V1_MQTT_OK/GD32VW55X_Wifi_BLE_SDK/GD32VW55x_RELEASE_V1.0.2/MSDK/wpa_supplicant/src/tls\tlsv1_client_write.c **** 	cert_start = pos;
 282:C:/Users/stapi/OneDrive/Desktop/GD32VW553/V1_MQTT_OK/GD32VW55X_Wifi_BLE_SDK/GD32VW55x_RELEASE_V1.0.2/MSDK/wpa_supplicant/src/tls\tlsv1_client_write.c **** 	pos += 3;
 283:C:/Users/stapi/OneDrive/Desktop/GD32VW553/V1_MQTT_OK/GD32VW55X_Wifi_BLE_SDK/GD32VW55x_RELEASE_V1.0.2/MSDK/wpa_supplicant/src/tls\tlsv1_client_write.c **** 	cert = conn->cred ? conn->cred->cert : NULL;
 284:C:/Users/stapi/OneDrive/Desktop/GD32VW553/V1_MQTT_OK/GD32VW55X_Wifi_BLE_SDK/GD32VW55x_RELEASE_V1.0.2/MSDK/wpa_supplicant/src/tls\tlsv1_client_write.c **** 	while (cert) {
 285:C:/Users/stapi/OneDrive/Desktop/GD32VW553/V1_MQTT_OK/GD32VW55X_Wifi_BLE_SDK/GD32VW55x_RELEASE_V1.0.2/MSDK/wpa_supplicant/src/tls\tlsv1_client_write.c **** 		if (3 + cert->cert_len > (size_t) (end - pos)) {
 286:C:/Users/stapi/OneDrive/Desktop/GD32VW553/V1_MQTT_OK/GD32VW55X_Wifi_BLE_SDK/GD32VW55x_RELEASE_V1.0.2/MSDK/wpa_supplicant/src/tls\tlsv1_client_write.c **** 			wpa_printf(MSG_DEBUG, "TLSv1: Not enough buffer space "
 287:C:/Users/stapi/OneDrive/Desktop/GD32VW553/V1_MQTT_OK/GD32VW55X_Wifi_BLE_SDK/GD32VW55x_RELEASE_V1.0.2/MSDK/wpa_supplicant/src/tls\tlsv1_client_write.c **** 				   "for Certificate (cert_len=%lu left=%lu)",
 288:C:/Users/stapi/OneDrive/Desktop/GD32VW553/V1_MQTT_OK/GD32VW55X_Wifi_BLE_SDK/GD32VW55x_RELEASE_V1.0.2/MSDK/wpa_supplicant/src/tls\tlsv1_client_write.c **** 				   (unsigned long) cert->cert_len,
 289:C:/Users/stapi/OneDrive/Desktop/GD32VW553/V1_MQTT_OK/GD32VW55X_Wifi_BLE_SDK/GD32VW55x_RELEASE_V1.0.2/MSDK/wpa_supplicant/src/tls\tlsv1_client_write.c **** 				   (unsigned long) (end - pos));
 290:C:/Users/stapi/OneDrive/Desktop/GD32VW553/V1_MQTT_OK/GD32VW55X_Wifi_BLE_SDK/GD32VW55x_RELEASE_V1.0.2/MSDK/wpa_supplicant/src/tls\tlsv1_client_write.c **** 			tls_alert(conn, TLS_ALERT_LEVEL_FATAL,
 291:C:/Users/stapi/OneDrive/Desktop/GD32VW553/V1_MQTT_OK/GD32VW55X_Wifi_BLE_SDK/GD32VW55x_RELEASE_V1.0.2/MSDK/wpa_supplicant/src/tls\tlsv1_client_write.c **** 				  TLS_ALERT_INTERNAL_ERROR);
 292:C:/Users/stapi/OneDrive/Desktop/GD32VW553/V1_MQTT_OK/GD32VW55X_Wifi_BLE_SDK/GD32VW55x_RELEASE_V1.0.2/MSDK/wpa_supplicant/src/tls\tlsv1_client_write.c **** 			return -1;
 293:C:/Users/stapi/OneDrive/Desktop/GD32VW553/V1_MQTT_OK/GD32VW55X_Wifi_BLE_SDK/GD32VW55x_RELEASE_V1.0.2/MSDK/wpa_supplicant/src/tls\tlsv1_client_write.c **** 		}
 294:C:/Users/stapi/OneDrive/Desktop/GD32VW553/V1_MQTT_OK/GD32VW55X_Wifi_BLE_SDK/GD32VW55x_RELEASE_V1.0.2/MSDK/wpa_supplicant/src/tls\tlsv1_client_write.c **** 		WPA_PUT_BE24(pos, cert->cert_len);
 295:C:/Users/stapi/OneDrive/Desktop/GD32VW553/V1_MQTT_OK/GD32VW55X_Wifi_BLE_SDK/GD32VW55x_RELEASE_V1.0.2/MSDK/wpa_supplicant/src/tls\tlsv1_client_write.c **** 		pos += 3;
 296:C:/Users/stapi/OneDrive/Desktop/GD32VW553/V1_MQTT_OK/GD32VW55X_Wifi_BLE_SDK/GD32VW55x_RELEASE_V1.0.2/MSDK/wpa_supplicant/src/tls\tlsv1_client_write.c **** 		os_memcpy(pos, cert->cert_start, cert->cert_len);
 297:C:/Users/stapi/OneDrive/Desktop/GD32VW553/V1_MQTT_OK/GD32VW55X_Wifi_BLE_SDK/GD32VW55x_RELEASE_V1.0.2/MSDK/wpa_supplicant/src/tls\tlsv1_client_write.c **** 		pos += cert->cert_len;
 298:C:/Users/stapi/OneDrive/Desktop/GD32VW553/V1_MQTT_OK/GD32VW55X_Wifi_BLE_SDK/GD32VW55x_RELEASE_V1.0.2/MSDK/wpa_supplicant/src/tls\tlsv1_client_write.c **** 
 299:C:/Users/stapi/OneDrive/Desktop/GD32VW553/V1_MQTT_OK/GD32VW55X_Wifi_BLE_SDK/GD32VW55x_RELEASE_V1.0.2/MSDK/wpa_supplicant/src/tls\tlsv1_client_write.c **** 		if (x509_certificate_self_signed(cert))
 300:C:/Users/stapi/OneDrive/Desktop/GD32VW553/V1_MQTT_OK/GD32VW55X_Wifi_BLE_SDK/GD32VW55x_RELEASE_V1.0.2/MSDK/wpa_supplicant/src/tls\tlsv1_client_write.c **** 			break;
 301:C:/Users/stapi/OneDrive/Desktop/GD32VW553/V1_MQTT_OK/GD32VW55X_Wifi_BLE_SDK/GD32VW55x_RELEASE_V1.0.2/MSDK/wpa_supplicant/src/tls\tlsv1_client_write.c **** 		cert = x509_certificate_get_subject(conn->cred->trusted_certs,
 302:C:/Users/stapi/OneDrive/Desktop/GD32VW553/V1_MQTT_OK/GD32VW55X_Wifi_BLE_SDK/GD32VW55x_RELEASE_V1.0.2/MSDK/wpa_supplicant/src/tls\tlsv1_client_write.c **** 						    &cert->issuer);
 303:C:/Users/stapi/OneDrive/Desktop/GD32VW553/V1_MQTT_OK/GD32VW55X_Wifi_BLE_SDK/GD32VW55x_RELEASE_V1.0.2/MSDK/wpa_supplicant/src/tls\tlsv1_client_write.c **** 	}
 304:C:/Users/stapi/OneDrive/Desktop/GD32VW553/V1_MQTT_OK/GD32VW55X_Wifi_BLE_SDK/GD32VW55x_RELEASE_V1.0.2/MSDK/wpa_supplicant/src/tls\tlsv1_client_write.c **** 	if (conn->cred == NULL || cert == conn->cred->cert || cert == NULL) {
 305:C:/Users/stapi/OneDrive/Desktop/GD32VW553/V1_MQTT_OK/GD32VW55X_Wifi_BLE_SDK/GD32VW55x_RELEASE_V1.0.2/MSDK/wpa_supplicant/src/tls\tlsv1_client_write.c **** 		/*
 306:C:/Users/stapi/OneDrive/Desktop/GD32VW553/V1_MQTT_OK/GD32VW55X_Wifi_BLE_SDK/GD32VW55x_RELEASE_V1.0.2/MSDK/wpa_supplicant/src/tls\tlsv1_client_write.c **** 		 * Client was not configured with all the needed certificates
 307:C:/Users/stapi/OneDrive/Desktop/GD32VW553/V1_MQTT_OK/GD32VW55X_Wifi_BLE_SDK/GD32VW55x_RELEASE_V1.0.2/MSDK/wpa_supplicant/src/tls\tlsv1_client_write.c **** 		 * to form a full certificate chain. The server may fail to
 308:C:/Users/stapi/OneDrive/Desktop/GD32VW553/V1_MQTT_OK/GD32VW55X_Wifi_BLE_SDK/GD32VW55x_RELEASE_V1.0.2/MSDK/wpa_supplicant/src/tls\tlsv1_client_write.c **** 		 * validate the chain unless it is configured with all the
 309:C:/Users/stapi/OneDrive/Desktop/GD32VW553/V1_MQTT_OK/GD32VW55X_Wifi_BLE_SDK/GD32VW55x_RELEASE_V1.0.2/MSDK/wpa_supplicant/src/tls\tlsv1_client_write.c **** 		 * missing CA certificates.
 310:C:/Users/stapi/OneDrive/Desktop/GD32VW553/V1_MQTT_OK/GD32VW55X_Wifi_BLE_SDK/GD32VW55x_RELEASE_V1.0.2/MSDK/wpa_supplicant/src/tls\tlsv1_client_write.c **** 		 */
 311:C:/Users/stapi/OneDrive/Desktop/GD32VW553/V1_MQTT_OK/GD32VW55X_Wifi_BLE_SDK/GD32VW55x_RELEASE_V1.0.2/MSDK/wpa_supplicant/src/tls\tlsv1_client_write.c **** 		wpa_printf(MSG_DEBUG, "TLSv1: Full client certificate chain "
 312:C:/Users/stapi/OneDrive/Desktop/GD32VW553/V1_MQTT_OK/GD32VW55X_Wifi_BLE_SDK/GD32VW55x_RELEASE_V1.0.2/MSDK/wpa_supplicant/src/tls\tlsv1_client_write.c **** 			   "not configured - validation may fail");
 313:C:/Users/stapi/OneDrive/Desktop/GD32VW553/V1_MQTT_OK/GD32VW55X_Wifi_BLE_SDK/GD32VW55x_RELEASE_V1.0.2/MSDK/wpa_supplicant/src/tls\tlsv1_client_write.c **** 	}
 314:C:/Users/stapi/OneDrive/Desktop/GD32VW553/V1_MQTT_OK/GD32VW55X_Wifi_BLE_SDK/GD32VW55x_RELEASE_V1.0.2/MSDK/wpa_supplicant/src/tls\tlsv1_client_write.c **** 	WPA_PUT_BE24(cert_start, pos - cert_start - 3);
 315:C:/Users/stapi/OneDrive/Desktop/GD32VW553/V1_MQTT_OK/GD32VW55X_Wifi_BLE_SDK/GD32VW55x_RELEASE_V1.0.2/MSDK/wpa_supplicant/src/tls\tlsv1_client_write.c **** 
 316:C:/Users/stapi/OneDrive/Desktop/GD32VW553/V1_MQTT_OK/GD32VW55X_Wifi_BLE_SDK/GD32VW55x_RELEASE_V1.0.2/MSDK/wpa_supplicant/src/tls\tlsv1_client_write.c **** 	WPA_PUT_BE24(hs_length, pos - hs_length - 3);
 317:C:/Users/stapi/OneDrive/Desktop/GD32VW553/V1_MQTT_OK/GD32VW55X_Wifi_BLE_SDK/GD32VW55x_RELEASE_V1.0.2/MSDK/wpa_supplicant/src/tls\tlsv1_client_write.c **** 
 318:C:/Users/stapi/OneDrive/Desktop/GD32VW553/V1_MQTT_OK/GD32VW55X_Wifi_BLE_SDK/GD32VW55x_RELEASE_V1.0.2/MSDK/wpa_supplicant/src/tls\tlsv1_client_write.c **** 	if (tlsv1_record_send(&conn->rl, TLS_CONTENT_TYPE_HANDSHAKE,
 319:C:/Users/stapi/OneDrive/Desktop/GD32VW553/V1_MQTT_OK/GD32VW55X_Wifi_BLE_SDK/GD32VW55x_RELEASE_V1.0.2/MSDK/wpa_supplicant/src/tls\tlsv1_client_write.c **** 			      rhdr, end - rhdr, hs_start, pos - hs_start,
 320:C:/Users/stapi/OneDrive/Desktop/GD32VW553/V1_MQTT_OK/GD32VW55X_Wifi_BLE_SDK/GD32VW55x_RELEASE_V1.0.2/MSDK/wpa_supplicant/src/tls\tlsv1_client_write.c **** 			      &rlen) < 0) {
 321:C:/Users/stapi/OneDrive/Desktop/GD32VW553/V1_MQTT_OK/GD32VW55X_Wifi_BLE_SDK/GD32VW55x_RELEASE_V1.0.2/MSDK/wpa_supplicant/src/tls\tlsv1_client_write.c **** 		wpa_printf(MSG_DEBUG, "TLSv1: Failed to generate a record");
 322:C:/Users/stapi/OneDrive/Desktop/GD32VW553/V1_MQTT_OK/GD32VW55X_Wifi_BLE_SDK/GD32VW55x_RELEASE_V1.0.2/MSDK/wpa_supplicant/src/tls\tlsv1_client_write.c **** 		tls_alert(conn, TLS_ALERT_LEVEL_FATAL,
 323:C:/Users/stapi/OneDrive/Desktop/GD32VW553/V1_MQTT_OK/GD32VW55X_Wifi_BLE_SDK/GD32VW55x_RELEASE_V1.0.2/MSDK/wpa_supplicant/src/tls\tlsv1_client_write.c **** 			  TLS_ALERT_INTERNAL_ERROR);
 324:C:/Users/stapi/OneDrive/Desktop/GD32VW553/V1_MQTT_OK/GD32VW55X_Wifi_BLE_SDK/GD32VW55x_RELEASE_V1.0.2/MSDK/wpa_supplicant/src/tls\tlsv1_client_write.c **** 		return -1;
 325:C:/Users/stapi/OneDrive/Desktop/GD32VW553/V1_MQTT_OK/GD32VW55X_Wifi_BLE_SDK/GD32VW55x_RELEASE_V1.0.2/MSDK/wpa_supplicant/src/tls\tlsv1_client_write.c **** 	}
 326:C:/Users/stapi/OneDrive/Desktop/GD32VW553/V1_MQTT_OK/GD32VW55X_Wifi_BLE_SDK/GD32VW55x_RELEASE_V1.0.2/MSDK/wpa_supplicant/src/tls\tlsv1_client_write.c **** 	pos = rhdr + rlen;
 327:C:/Users/stapi/OneDrive/Desktop/GD32VW553/V1_MQTT_OK/GD32VW55X_Wifi_BLE_SDK/GD32VW55x_RELEASE_V1.0.2/MSDK/wpa_supplicant/src/tls\tlsv1_client_write.c **** 
 328:C:/Users/stapi/OneDrive/Desktop/GD32VW553/V1_MQTT_OK/GD32VW55X_Wifi_BLE_SDK/GD32VW55x_RELEASE_V1.0.2/MSDK/wpa_supplicant/src/tls\tlsv1_client_write.c **** 	tls_verify_hash_add(&conn->verify, hs_start, pos - hs_start);
 329:C:/Users/stapi/OneDrive/Desktop/GD32VW553/V1_MQTT_OK/GD32VW55X_Wifi_BLE_SDK/GD32VW55x_RELEASE_V1.0.2/MSDK/wpa_supplicant/src/tls\tlsv1_client_write.c **** 
 330:C:/Users/stapi/OneDrive/Desktop/GD32VW553/V1_MQTT_OK/GD32VW55X_Wifi_BLE_SDK/GD32VW55x_RELEASE_V1.0.2/MSDK/wpa_supplicant/src/tls\tlsv1_client_write.c **** 	*msgpos = pos;
 331:C:/Users/stapi/OneDrive/Desktop/GD32VW553/V1_MQTT_OK/GD32VW55X_Wifi_BLE_SDK/GD32VW55x_RELEASE_V1.0.2/MSDK/wpa_supplicant/src/tls\tlsv1_client_write.c **** 
 332:C:/Users/stapi/OneDrive/Desktop/GD32VW553/V1_MQTT_OK/GD32VW55X_Wifi_BLE_SDK/GD32VW55x_RELEASE_V1.0.2/MSDK/wpa_supplicant/src/tls\tlsv1_client_write.c **** 	return 0;
 333:C:/Users/stapi/OneDrive/Desktop/GD32VW553/V1_MQTT_OK/GD32VW55X_Wifi_BLE_SDK/GD32VW55x_RELEASE_V1.0.2/MSDK/wpa_supplicant/src/tls\tlsv1_client_write.c **** }
 334:C:/Users/stapi/OneDrive/Desktop/GD32VW553/V1_MQTT_OK/GD32VW55X_Wifi_BLE_SDK/GD32VW55x_RELEASE_V1.0.2/MSDK/wpa_supplicant/src/tls\tlsv1_client_write.c **** 
 335:C:/Users/stapi/OneDrive/Desktop/GD32VW553/V1_MQTT_OK/GD32VW55X_Wifi_BLE_SDK/GD32VW55x_RELEASE_V1.0.2/MSDK/wpa_supplicant/src/tls\tlsv1_client_write.c **** 
 336:C:/Users/stapi/OneDrive/Desktop/GD32VW553/V1_MQTT_OK/GD32VW55X_Wifi_BLE_SDK/GD32VW55x_RELEASE_V1.0.2/MSDK/wpa_supplicant/src/tls\tlsv1_client_write.c **** static int tlsv1_key_x_dh(struct tlsv1_client *conn, u8 **pos, u8 *end)
 337:C:/Users/stapi/OneDrive/Desktop/GD32VW553/V1_MQTT_OK/GD32VW55X_Wifi_BLE_SDK/GD32VW55x_RELEASE_V1.0.2/MSDK/wpa_supplicant/src/tls\tlsv1_client_write.c **** {
 338:C:/Users/stapi/OneDrive/Desktop/GD32VW553/V1_MQTT_OK/GD32VW55X_Wifi_BLE_SDK/GD32VW55x_RELEASE_V1.0.2/MSDK/wpa_supplicant/src/tls\tlsv1_client_write.c **** 	/* ClientDiffieHellmanPublic */
 339:C:/Users/stapi/OneDrive/Desktop/GD32VW553/V1_MQTT_OK/GD32VW55X_Wifi_BLE_SDK/GD32VW55x_RELEASE_V1.0.2/MSDK/wpa_supplicant/src/tls\tlsv1_client_write.c **** 	u8 *csecret, *csecret_start, *dh_yc, *shared;
 340:C:/Users/stapi/OneDrive/Desktop/GD32VW553/V1_MQTT_OK/GD32VW55X_Wifi_BLE_SDK/GD32VW55x_RELEASE_V1.0.2/MSDK/wpa_supplicant/src/tls\tlsv1_client_write.c **** 	size_t csecret_len, dh_yc_len, shared_len;
 341:C:/Users/stapi/OneDrive/Desktop/GD32VW553/V1_MQTT_OK/GD32VW55X_Wifi_BLE_SDK/GD32VW55x_RELEASE_V1.0.2/MSDK/wpa_supplicant/src/tls\tlsv1_client_write.c **** 
 342:C:/Users/stapi/OneDrive/Desktop/GD32VW553/V1_MQTT_OK/GD32VW55X_Wifi_BLE_SDK/GD32VW55x_RELEASE_V1.0.2/MSDK/wpa_supplicant/src/tls\tlsv1_client_write.c **** 	csecret_len = conn->dh_p_len;
 343:C:/Users/stapi/OneDrive/Desktop/GD32VW553/V1_MQTT_OK/GD32VW55X_Wifi_BLE_SDK/GD32VW55x_RELEASE_V1.0.2/MSDK/wpa_supplicant/src/tls\tlsv1_client_write.c **** 	csecret = os_malloc(csecret_len);
 344:C:/Users/stapi/OneDrive/Desktop/GD32VW553/V1_MQTT_OK/GD32VW55X_Wifi_BLE_SDK/GD32VW55x_RELEASE_V1.0.2/MSDK/wpa_supplicant/src/tls\tlsv1_client_write.c **** 	if (csecret == NULL) {
 345:C:/Users/stapi/OneDrive/Desktop/GD32VW553/V1_MQTT_OK/GD32VW55X_Wifi_BLE_SDK/GD32VW55x_RELEASE_V1.0.2/MSDK/wpa_supplicant/src/tls\tlsv1_client_write.c **** 		wpa_printf(MSG_DEBUG, "TLSv1: Failed to allocate "
 346:C:/Users/stapi/OneDrive/Desktop/GD32VW553/V1_MQTT_OK/GD32VW55X_Wifi_BLE_SDK/GD32VW55x_RELEASE_V1.0.2/MSDK/wpa_supplicant/src/tls\tlsv1_client_write.c **** 			   "memory for Yc (Diffie-Hellman)");
 347:C:/Users/stapi/OneDrive/Desktop/GD32VW553/V1_MQTT_OK/GD32VW55X_Wifi_BLE_SDK/GD32VW55x_RELEASE_V1.0.2/MSDK/wpa_supplicant/src/tls\tlsv1_client_write.c **** 		tls_alert(conn, TLS_ALERT_LEVEL_FATAL,
 348:C:/Users/stapi/OneDrive/Desktop/GD32VW553/V1_MQTT_OK/GD32VW55X_Wifi_BLE_SDK/GD32VW55x_RELEASE_V1.0.2/MSDK/wpa_supplicant/src/tls\tlsv1_client_write.c **** 			  TLS_ALERT_INTERNAL_ERROR);
 349:C:/Users/stapi/OneDrive/Desktop/GD32VW553/V1_MQTT_OK/GD32VW55X_Wifi_BLE_SDK/GD32VW55x_RELEASE_V1.0.2/MSDK/wpa_supplicant/src/tls\tlsv1_client_write.c **** 		return -1;
 350:C:/Users/stapi/OneDrive/Desktop/GD32VW553/V1_MQTT_OK/GD32VW55X_Wifi_BLE_SDK/GD32VW55x_RELEASE_V1.0.2/MSDK/wpa_supplicant/src/tls\tlsv1_client_write.c **** 	}
 351:C:/Users/stapi/OneDrive/Desktop/GD32VW553/V1_MQTT_OK/GD32VW55X_Wifi_BLE_SDK/GD32VW55x_RELEASE_V1.0.2/MSDK/wpa_supplicant/src/tls\tlsv1_client_write.c **** 	if (random_get_bytes(csecret, csecret_len)) {
 352:C:/Users/stapi/OneDrive/Desktop/GD32VW553/V1_MQTT_OK/GD32VW55X_Wifi_BLE_SDK/GD32VW55x_RELEASE_V1.0.2/MSDK/wpa_supplicant/src/tls\tlsv1_client_write.c **** 		wpa_printf(MSG_DEBUG, "TLSv1: Failed to get random "
 353:C:/Users/stapi/OneDrive/Desktop/GD32VW553/V1_MQTT_OK/GD32VW55X_Wifi_BLE_SDK/GD32VW55x_RELEASE_V1.0.2/MSDK/wpa_supplicant/src/tls\tlsv1_client_write.c **** 			   "data for Diffie-Hellman");
 354:C:/Users/stapi/OneDrive/Desktop/GD32VW553/V1_MQTT_OK/GD32VW55X_Wifi_BLE_SDK/GD32VW55x_RELEASE_V1.0.2/MSDK/wpa_supplicant/src/tls\tlsv1_client_write.c **** 		tls_alert(conn, TLS_ALERT_LEVEL_FATAL,
 355:C:/Users/stapi/OneDrive/Desktop/GD32VW553/V1_MQTT_OK/GD32VW55X_Wifi_BLE_SDK/GD32VW55x_RELEASE_V1.0.2/MSDK/wpa_supplicant/src/tls\tlsv1_client_write.c **** 			  TLS_ALERT_INTERNAL_ERROR);
 356:C:/Users/stapi/OneDrive/Desktop/GD32VW553/V1_MQTT_OK/GD32VW55X_Wifi_BLE_SDK/GD32VW55x_RELEASE_V1.0.2/MSDK/wpa_supplicant/src/tls\tlsv1_client_write.c **** 		os_free(csecret);
 357:C:/Users/stapi/OneDrive/Desktop/GD32VW553/V1_MQTT_OK/GD32VW55X_Wifi_BLE_SDK/GD32VW55x_RELEASE_V1.0.2/MSDK/wpa_supplicant/src/tls\tlsv1_client_write.c **** 		return -1;
 358:C:/Users/stapi/OneDrive/Desktop/GD32VW553/V1_MQTT_OK/GD32VW55X_Wifi_BLE_SDK/GD32VW55x_RELEASE_V1.0.2/MSDK/wpa_supplicant/src/tls\tlsv1_client_write.c **** 	}
 359:C:/Users/stapi/OneDrive/Desktop/GD32VW553/V1_MQTT_OK/GD32VW55X_Wifi_BLE_SDK/GD32VW55x_RELEASE_V1.0.2/MSDK/wpa_supplicant/src/tls\tlsv1_client_write.c **** 
 360:C:/Users/stapi/OneDrive/Desktop/GD32VW553/V1_MQTT_OK/GD32VW55X_Wifi_BLE_SDK/GD32VW55x_RELEASE_V1.0.2/MSDK/wpa_supplicant/src/tls\tlsv1_client_write.c **** 	if (os_memcmp(csecret, conn->dh_p, csecret_len) > 0)
 361:C:/Users/stapi/OneDrive/Desktop/GD32VW553/V1_MQTT_OK/GD32VW55X_Wifi_BLE_SDK/GD32VW55x_RELEASE_V1.0.2/MSDK/wpa_supplicant/src/tls\tlsv1_client_write.c **** 		csecret[0] = 0; /* make sure Yc < p */
 362:C:/Users/stapi/OneDrive/Desktop/GD32VW553/V1_MQTT_OK/GD32VW55X_Wifi_BLE_SDK/GD32VW55x_RELEASE_V1.0.2/MSDK/wpa_supplicant/src/tls\tlsv1_client_write.c **** 
 363:C:/Users/stapi/OneDrive/Desktop/GD32VW553/V1_MQTT_OK/GD32VW55X_Wifi_BLE_SDK/GD32VW55x_RELEASE_V1.0.2/MSDK/wpa_supplicant/src/tls\tlsv1_client_write.c **** 	csecret_start = csecret;
 364:C:/Users/stapi/OneDrive/Desktop/GD32VW553/V1_MQTT_OK/GD32VW55X_Wifi_BLE_SDK/GD32VW55x_RELEASE_V1.0.2/MSDK/wpa_supplicant/src/tls\tlsv1_client_write.c **** 	while (csecret_len > 1 && *csecret_start == 0) {
 365:C:/Users/stapi/OneDrive/Desktop/GD32VW553/V1_MQTT_OK/GD32VW55X_Wifi_BLE_SDK/GD32VW55x_RELEASE_V1.0.2/MSDK/wpa_supplicant/src/tls\tlsv1_client_write.c **** 		csecret_start++;
 366:C:/Users/stapi/OneDrive/Desktop/GD32VW553/V1_MQTT_OK/GD32VW55X_Wifi_BLE_SDK/GD32VW55x_RELEASE_V1.0.2/MSDK/wpa_supplicant/src/tls\tlsv1_client_write.c **** 		csecret_len--;
 367:C:/Users/stapi/OneDrive/Desktop/GD32VW553/V1_MQTT_OK/GD32VW55X_Wifi_BLE_SDK/GD32VW55x_RELEASE_V1.0.2/MSDK/wpa_supplicant/src/tls\tlsv1_client_write.c **** 	}
 368:C:/Users/stapi/OneDrive/Desktop/GD32VW553/V1_MQTT_OK/GD32VW55X_Wifi_BLE_SDK/GD32VW55x_RELEASE_V1.0.2/MSDK/wpa_supplicant/src/tls\tlsv1_client_write.c **** 	wpa_hexdump_key(MSG_DEBUG, "TLSv1: DH client's secret value",
 369:C:/Users/stapi/OneDrive/Desktop/GD32VW553/V1_MQTT_OK/GD32VW55X_Wifi_BLE_SDK/GD32VW55x_RELEASE_V1.0.2/MSDK/wpa_supplicant/src/tls\tlsv1_client_write.c **** 			csecret_start, csecret_len);
 370:C:/Users/stapi/OneDrive/Desktop/GD32VW553/V1_MQTT_OK/GD32VW55X_Wifi_BLE_SDK/GD32VW55x_RELEASE_V1.0.2/MSDK/wpa_supplicant/src/tls\tlsv1_client_write.c **** 
 371:C:/Users/stapi/OneDrive/Desktop/GD32VW553/V1_MQTT_OK/GD32VW55X_Wifi_BLE_SDK/GD32VW55x_RELEASE_V1.0.2/MSDK/wpa_supplicant/src/tls\tlsv1_client_write.c **** 	/* Yc = g^csecret mod p */
 372:C:/Users/stapi/OneDrive/Desktop/GD32VW553/V1_MQTT_OK/GD32VW55X_Wifi_BLE_SDK/GD32VW55x_RELEASE_V1.0.2/MSDK/wpa_supplicant/src/tls\tlsv1_client_write.c **** 	dh_yc_len = conn->dh_p_len;
 373:C:/Users/stapi/OneDrive/Desktop/GD32VW553/V1_MQTT_OK/GD32VW55X_Wifi_BLE_SDK/GD32VW55x_RELEASE_V1.0.2/MSDK/wpa_supplicant/src/tls\tlsv1_client_write.c **** 	dh_yc = os_malloc(dh_yc_len);
 374:C:/Users/stapi/OneDrive/Desktop/GD32VW553/V1_MQTT_OK/GD32VW55X_Wifi_BLE_SDK/GD32VW55x_RELEASE_V1.0.2/MSDK/wpa_supplicant/src/tls\tlsv1_client_write.c **** 	if (dh_yc == NULL) {
 375:C:/Users/stapi/OneDrive/Desktop/GD32VW553/V1_MQTT_OK/GD32VW55X_Wifi_BLE_SDK/GD32VW55x_RELEASE_V1.0.2/MSDK/wpa_supplicant/src/tls\tlsv1_client_write.c **** 		wpa_printf(MSG_DEBUG, "TLSv1: Failed to allocate "
 376:C:/Users/stapi/OneDrive/Desktop/GD32VW553/V1_MQTT_OK/GD32VW55X_Wifi_BLE_SDK/GD32VW55x_RELEASE_V1.0.2/MSDK/wpa_supplicant/src/tls\tlsv1_client_write.c **** 			   "memory for Diffie-Hellman");
 377:C:/Users/stapi/OneDrive/Desktop/GD32VW553/V1_MQTT_OK/GD32VW55X_Wifi_BLE_SDK/GD32VW55x_RELEASE_V1.0.2/MSDK/wpa_supplicant/src/tls\tlsv1_client_write.c **** 		tls_alert(conn, TLS_ALERT_LEVEL_FATAL,
 378:C:/Users/stapi/OneDrive/Desktop/GD32VW553/V1_MQTT_OK/GD32VW55X_Wifi_BLE_SDK/GD32VW55x_RELEASE_V1.0.2/MSDK/wpa_supplicant/src/tls\tlsv1_client_write.c **** 			  TLS_ALERT_INTERNAL_ERROR);
 379:C:/Users/stapi/OneDrive/Desktop/GD32VW553/V1_MQTT_OK/GD32VW55X_Wifi_BLE_SDK/GD32VW55x_RELEASE_V1.0.2/MSDK/wpa_supplicant/src/tls\tlsv1_client_write.c **** 		os_free(csecret);
 380:C:/Users/stapi/OneDrive/Desktop/GD32VW553/V1_MQTT_OK/GD32VW55X_Wifi_BLE_SDK/GD32VW55x_RELEASE_V1.0.2/MSDK/wpa_supplicant/src/tls\tlsv1_client_write.c **** 		return -1;
 381:C:/Users/stapi/OneDrive/Desktop/GD32VW553/V1_MQTT_OK/GD32VW55X_Wifi_BLE_SDK/GD32VW55x_RELEASE_V1.0.2/MSDK/wpa_supplicant/src/tls\tlsv1_client_write.c **** 	}
 382:C:/Users/stapi/OneDrive/Desktop/GD32VW553/V1_MQTT_OK/GD32VW55X_Wifi_BLE_SDK/GD32VW55x_RELEASE_V1.0.2/MSDK/wpa_supplicant/src/tls\tlsv1_client_write.c **** 	if (crypto_mod_exp(conn->dh_g, conn->dh_g_len,
 383:C:/Users/stapi/OneDrive/Desktop/GD32VW553/V1_MQTT_OK/GD32VW55X_Wifi_BLE_SDK/GD32VW55x_RELEASE_V1.0.2/MSDK/wpa_supplicant/src/tls\tlsv1_client_write.c **** 			   csecret_start, csecret_len,
 384:C:/Users/stapi/OneDrive/Desktop/GD32VW553/V1_MQTT_OK/GD32VW55X_Wifi_BLE_SDK/GD32VW55x_RELEASE_V1.0.2/MSDK/wpa_supplicant/src/tls\tlsv1_client_write.c **** 			   conn->dh_p, conn->dh_p_len,
 385:C:/Users/stapi/OneDrive/Desktop/GD32VW553/V1_MQTT_OK/GD32VW55X_Wifi_BLE_SDK/GD32VW55x_RELEASE_V1.0.2/MSDK/wpa_supplicant/src/tls\tlsv1_client_write.c **** 			   dh_yc, &dh_yc_len)) {
 386:C:/Users/stapi/OneDrive/Desktop/GD32VW553/V1_MQTT_OK/GD32VW55X_Wifi_BLE_SDK/GD32VW55x_RELEASE_V1.0.2/MSDK/wpa_supplicant/src/tls\tlsv1_client_write.c **** 		tls_alert(conn, TLS_ALERT_LEVEL_FATAL,
 387:C:/Users/stapi/OneDrive/Desktop/GD32VW553/V1_MQTT_OK/GD32VW55X_Wifi_BLE_SDK/GD32VW55x_RELEASE_V1.0.2/MSDK/wpa_supplicant/src/tls\tlsv1_client_write.c **** 			  TLS_ALERT_INTERNAL_ERROR);
 388:C:/Users/stapi/OneDrive/Desktop/GD32VW553/V1_MQTT_OK/GD32VW55X_Wifi_BLE_SDK/GD32VW55x_RELEASE_V1.0.2/MSDK/wpa_supplicant/src/tls\tlsv1_client_write.c **** 		os_free(csecret);
 389:C:/Users/stapi/OneDrive/Desktop/GD32VW553/V1_MQTT_OK/GD32VW55X_Wifi_BLE_SDK/GD32VW55x_RELEASE_V1.0.2/MSDK/wpa_supplicant/src/tls\tlsv1_client_write.c **** 		os_free(dh_yc);
 390:C:/Users/stapi/OneDrive/Desktop/GD32VW553/V1_MQTT_OK/GD32VW55X_Wifi_BLE_SDK/GD32VW55x_RELEASE_V1.0.2/MSDK/wpa_supplicant/src/tls\tlsv1_client_write.c **** 		return -1;
 391:C:/Users/stapi/OneDrive/Desktop/GD32VW553/V1_MQTT_OK/GD32VW55X_Wifi_BLE_SDK/GD32VW55x_RELEASE_V1.0.2/MSDK/wpa_supplicant/src/tls\tlsv1_client_write.c **** 	}
 392:C:/Users/stapi/OneDrive/Desktop/GD32VW553/V1_MQTT_OK/GD32VW55X_Wifi_BLE_SDK/GD32VW55x_RELEASE_V1.0.2/MSDK/wpa_supplicant/src/tls\tlsv1_client_write.c **** 
 393:C:/Users/stapi/OneDrive/Desktop/GD32VW553/V1_MQTT_OK/GD32VW55X_Wifi_BLE_SDK/GD32VW55x_RELEASE_V1.0.2/MSDK/wpa_supplicant/src/tls\tlsv1_client_write.c **** 	wpa_hexdump(MSG_DEBUG, "TLSv1: DH Yc (client's public value)",
 394:C:/Users/stapi/OneDrive/Desktop/GD32VW553/V1_MQTT_OK/GD32VW55X_Wifi_BLE_SDK/GD32VW55x_RELEASE_V1.0.2/MSDK/wpa_supplicant/src/tls\tlsv1_client_write.c **** 		    dh_yc, dh_yc_len);
 395:C:/Users/stapi/OneDrive/Desktop/GD32VW553/V1_MQTT_OK/GD32VW55X_Wifi_BLE_SDK/GD32VW55x_RELEASE_V1.0.2/MSDK/wpa_supplicant/src/tls\tlsv1_client_write.c **** 
 396:C:/Users/stapi/OneDrive/Desktop/GD32VW553/V1_MQTT_OK/GD32VW55X_Wifi_BLE_SDK/GD32VW55x_RELEASE_V1.0.2/MSDK/wpa_supplicant/src/tls\tlsv1_client_write.c **** 	if (end - *pos < 2) {
 397:C:/Users/stapi/OneDrive/Desktop/GD32VW553/V1_MQTT_OK/GD32VW55X_Wifi_BLE_SDK/GD32VW55x_RELEASE_V1.0.2/MSDK/wpa_supplicant/src/tls\tlsv1_client_write.c **** 		tls_alert(conn, TLS_ALERT_LEVEL_FATAL,
 398:C:/Users/stapi/OneDrive/Desktop/GD32VW553/V1_MQTT_OK/GD32VW55X_Wifi_BLE_SDK/GD32VW55x_RELEASE_V1.0.2/MSDK/wpa_supplicant/src/tls\tlsv1_client_write.c **** 			  TLS_ALERT_INTERNAL_ERROR);
 399:C:/Users/stapi/OneDrive/Desktop/GD32VW553/V1_MQTT_OK/GD32VW55X_Wifi_BLE_SDK/GD32VW55x_RELEASE_V1.0.2/MSDK/wpa_supplicant/src/tls\tlsv1_client_write.c **** 		os_free(csecret);
 400:C:/Users/stapi/OneDrive/Desktop/GD32VW553/V1_MQTT_OK/GD32VW55X_Wifi_BLE_SDK/GD32VW55x_RELEASE_V1.0.2/MSDK/wpa_supplicant/src/tls\tlsv1_client_write.c **** 		os_free(dh_yc);
 401:C:/Users/stapi/OneDrive/Desktop/GD32VW553/V1_MQTT_OK/GD32VW55X_Wifi_BLE_SDK/GD32VW55x_RELEASE_V1.0.2/MSDK/wpa_supplicant/src/tls\tlsv1_client_write.c **** 		return -1;
 402:C:/Users/stapi/OneDrive/Desktop/GD32VW553/V1_MQTT_OK/GD32VW55X_Wifi_BLE_SDK/GD32VW55x_RELEASE_V1.0.2/MSDK/wpa_supplicant/src/tls\tlsv1_client_write.c **** 	}
 403:C:/Users/stapi/OneDrive/Desktop/GD32VW553/V1_MQTT_OK/GD32VW55X_Wifi_BLE_SDK/GD32VW55x_RELEASE_V1.0.2/MSDK/wpa_supplicant/src/tls\tlsv1_client_write.c **** 	WPA_PUT_BE16(*pos, dh_yc_len);
 404:C:/Users/stapi/OneDrive/Desktop/GD32VW553/V1_MQTT_OK/GD32VW55X_Wifi_BLE_SDK/GD32VW55x_RELEASE_V1.0.2/MSDK/wpa_supplicant/src/tls\tlsv1_client_write.c **** 	*pos += 2;
 405:C:/Users/stapi/OneDrive/Desktop/GD32VW553/V1_MQTT_OK/GD32VW55X_Wifi_BLE_SDK/GD32VW55x_RELEASE_V1.0.2/MSDK/wpa_supplicant/src/tls\tlsv1_client_write.c **** 	if (dh_yc_len > (size_t) (end - *pos)) {
 406:C:/Users/stapi/OneDrive/Desktop/GD32VW553/V1_MQTT_OK/GD32VW55X_Wifi_BLE_SDK/GD32VW55x_RELEASE_V1.0.2/MSDK/wpa_supplicant/src/tls\tlsv1_client_write.c **** 		wpa_printf(MSG_DEBUG, "TLSv1: Not enough room in the "
 407:C:/Users/stapi/OneDrive/Desktop/GD32VW553/V1_MQTT_OK/GD32VW55X_Wifi_BLE_SDK/GD32VW55x_RELEASE_V1.0.2/MSDK/wpa_supplicant/src/tls\tlsv1_client_write.c **** 			   "message buffer for Yc");
 408:C:/Users/stapi/OneDrive/Desktop/GD32VW553/V1_MQTT_OK/GD32VW55X_Wifi_BLE_SDK/GD32VW55x_RELEASE_V1.0.2/MSDK/wpa_supplicant/src/tls\tlsv1_client_write.c **** 		tls_alert(conn, TLS_ALERT_LEVEL_FATAL,
 409:C:/Users/stapi/OneDrive/Desktop/GD32VW553/V1_MQTT_OK/GD32VW55X_Wifi_BLE_SDK/GD32VW55x_RELEASE_V1.0.2/MSDK/wpa_supplicant/src/tls\tlsv1_client_write.c **** 			  TLS_ALERT_INTERNAL_ERROR);
 410:C:/Users/stapi/OneDrive/Desktop/GD32VW553/V1_MQTT_OK/GD32VW55X_Wifi_BLE_SDK/GD32VW55x_RELEASE_V1.0.2/MSDK/wpa_supplicant/src/tls\tlsv1_client_write.c **** 		os_free(csecret);
 411:C:/Users/stapi/OneDrive/Desktop/GD32VW553/V1_MQTT_OK/GD32VW55X_Wifi_BLE_SDK/GD32VW55x_RELEASE_V1.0.2/MSDK/wpa_supplicant/src/tls\tlsv1_client_write.c **** 		os_free(dh_yc);
 412:C:/Users/stapi/OneDrive/Desktop/GD32VW553/V1_MQTT_OK/GD32VW55X_Wifi_BLE_SDK/GD32VW55x_RELEASE_V1.0.2/MSDK/wpa_supplicant/src/tls\tlsv1_client_write.c **** 		return -1;
 413:C:/Users/stapi/OneDrive/Desktop/GD32VW553/V1_MQTT_OK/GD32VW55X_Wifi_BLE_SDK/GD32VW55x_RELEASE_V1.0.2/MSDK/wpa_supplicant/src/tls\tlsv1_client_write.c **** 	}
 414:C:/Users/stapi/OneDrive/Desktop/GD32VW553/V1_MQTT_OK/GD32VW55X_Wifi_BLE_SDK/GD32VW55x_RELEASE_V1.0.2/MSDK/wpa_supplicant/src/tls\tlsv1_client_write.c **** 	os_memcpy(*pos, dh_yc, dh_yc_len);
 415:C:/Users/stapi/OneDrive/Desktop/GD32VW553/V1_MQTT_OK/GD32VW55X_Wifi_BLE_SDK/GD32VW55x_RELEASE_V1.0.2/MSDK/wpa_supplicant/src/tls\tlsv1_client_write.c **** 	*pos += dh_yc_len;
 416:C:/Users/stapi/OneDrive/Desktop/GD32VW553/V1_MQTT_OK/GD32VW55X_Wifi_BLE_SDK/GD32VW55x_RELEASE_V1.0.2/MSDK/wpa_supplicant/src/tls\tlsv1_client_write.c **** 	os_free(dh_yc);
 417:C:/Users/stapi/OneDrive/Desktop/GD32VW553/V1_MQTT_OK/GD32VW55X_Wifi_BLE_SDK/GD32VW55x_RELEASE_V1.0.2/MSDK/wpa_supplicant/src/tls\tlsv1_client_write.c **** 
 418:C:/Users/stapi/OneDrive/Desktop/GD32VW553/V1_MQTT_OK/GD32VW55X_Wifi_BLE_SDK/GD32VW55x_RELEASE_V1.0.2/MSDK/wpa_supplicant/src/tls\tlsv1_client_write.c **** 	shared_len = conn->dh_p_len;
 419:C:/Users/stapi/OneDrive/Desktop/GD32VW553/V1_MQTT_OK/GD32VW55X_Wifi_BLE_SDK/GD32VW55x_RELEASE_V1.0.2/MSDK/wpa_supplicant/src/tls\tlsv1_client_write.c **** 	shared = os_malloc(shared_len);
 420:C:/Users/stapi/OneDrive/Desktop/GD32VW553/V1_MQTT_OK/GD32VW55X_Wifi_BLE_SDK/GD32VW55x_RELEASE_V1.0.2/MSDK/wpa_supplicant/src/tls\tlsv1_client_write.c **** 	if (shared == NULL) {
 421:C:/Users/stapi/OneDrive/Desktop/GD32VW553/V1_MQTT_OK/GD32VW55X_Wifi_BLE_SDK/GD32VW55x_RELEASE_V1.0.2/MSDK/wpa_supplicant/src/tls\tlsv1_client_write.c **** 		wpa_printf(MSG_DEBUG, "TLSv1: Could not allocate memory for "
 422:C:/Users/stapi/OneDrive/Desktop/GD32VW553/V1_MQTT_OK/GD32VW55X_Wifi_BLE_SDK/GD32VW55x_RELEASE_V1.0.2/MSDK/wpa_supplicant/src/tls\tlsv1_client_write.c **** 			   "DH");
 423:C:/Users/stapi/OneDrive/Desktop/GD32VW553/V1_MQTT_OK/GD32VW55X_Wifi_BLE_SDK/GD32VW55x_RELEASE_V1.0.2/MSDK/wpa_supplicant/src/tls\tlsv1_client_write.c **** 		tls_alert(conn, TLS_ALERT_LEVEL_FATAL,
 424:C:/Users/stapi/OneDrive/Desktop/GD32VW553/V1_MQTT_OK/GD32VW55X_Wifi_BLE_SDK/GD32VW55x_RELEASE_V1.0.2/MSDK/wpa_supplicant/src/tls\tlsv1_client_write.c **** 			  TLS_ALERT_INTERNAL_ERROR);
 425:C:/Users/stapi/OneDrive/Desktop/GD32VW553/V1_MQTT_OK/GD32VW55X_Wifi_BLE_SDK/GD32VW55x_RELEASE_V1.0.2/MSDK/wpa_supplicant/src/tls\tlsv1_client_write.c **** 		os_free(csecret);
 426:C:/Users/stapi/OneDrive/Desktop/GD32VW553/V1_MQTT_OK/GD32VW55X_Wifi_BLE_SDK/GD32VW55x_RELEASE_V1.0.2/MSDK/wpa_supplicant/src/tls\tlsv1_client_write.c **** 		return -1;
 427:C:/Users/stapi/OneDrive/Desktop/GD32VW553/V1_MQTT_OK/GD32VW55X_Wifi_BLE_SDK/GD32VW55x_RELEASE_V1.0.2/MSDK/wpa_supplicant/src/tls\tlsv1_client_write.c **** 	}
 428:C:/Users/stapi/OneDrive/Desktop/GD32VW553/V1_MQTT_OK/GD32VW55X_Wifi_BLE_SDK/GD32VW55x_RELEASE_V1.0.2/MSDK/wpa_supplicant/src/tls\tlsv1_client_write.c **** 
 429:C:/Users/stapi/OneDrive/Desktop/GD32VW553/V1_MQTT_OK/GD32VW55X_Wifi_BLE_SDK/GD32VW55x_RELEASE_V1.0.2/MSDK/wpa_supplicant/src/tls\tlsv1_client_write.c **** 	/* shared = Ys^csecret mod p */
 430:C:/Users/stapi/OneDrive/Desktop/GD32VW553/V1_MQTT_OK/GD32VW55X_Wifi_BLE_SDK/GD32VW55x_RELEASE_V1.0.2/MSDK/wpa_supplicant/src/tls\tlsv1_client_write.c **** 	if (crypto_mod_exp(conn->dh_ys, conn->dh_ys_len,
 431:C:/Users/stapi/OneDrive/Desktop/GD32VW553/V1_MQTT_OK/GD32VW55X_Wifi_BLE_SDK/GD32VW55x_RELEASE_V1.0.2/MSDK/wpa_supplicant/src/tls\tlsv1_client_write.c **** 			   csecret_start, csecret_len,
 432:C:/Users/stapi/OneDrive/Desktop/GD32VW553/V1_MQTT_OK/GD32VW55X_Wifi_BLE_SDK/GD32VW55x_RELEASE_V1.0.2/MSDK/wpa_supplicant/src/tls\tlsv1_client_write.c **** 			   conn->dh_p, conn->dh_p_len,
 433:C:/Users/stapi/OneDrive/Desktop/GD32VW553/V1_MQTT_OK/GD32VW55X_Wifi_BLE_SDK/GD32VW55x_RELEASE_V1.0.2/MSDK/wpa_supplicant/src/tls\tlsv1_client_write.c **** 			   shared, &shared_len)) {
 434:C:/Users/stapi/OneDrive/Desktop/GD32VW553/V1_MQTT_OK/GD32VW55X_Wifi_BLE_SDK/GD32VW55x_RELEASE_V1.0.2/MSDK/wpa_supplicant/src/tls\tlsv1_client_write.c **** 		tls_alert(conn, TLS_ALERT_LEVEL_FATAL,
 435:C:/Users/stapi/OneDrive/Desktop/GD32VW553/V1_MQTT_OK/GD32VW55X_Wifi_BLE_SDK/GD32VW55x_RELEASE_V1.0.2/MSDK/wpa_supplicant/src/tls\tlsv1_client_write.c **** 			  TLS_ALERT_INTERNAL_ERROR);
 436:C:/Users/stapi/OneDrive/Desktop/GD32VW553/V1_MQTT_OK/GD32VW55X_Wifi_BLE_SDK/GD32VW55x_RELEASE_V1.0.2/MSDK/wpa_supplicant/src/tls\tlsv1_client_write.c **** 		os_free(csecret);
 437:C:/Users/stapi/OneDrive/Desktop/GD32VW553/V1_MQTT_OK/GD32VW55X_Wifi_BLE_SDK/GD32VW55x_RELEASE_V1.0.2/MSDK/wpa_supplicant/src/tls\tlsv1_client_write.c **** 		os_free(shared);
 438:C:/Users/stapi/OneDrive/Desktop/GD32VW553/V1_MQTT_OK/GD32VW55X_Wifi_BLE_SDK/GD32VW55x_RELEASE_V1.0.2/MSDK/wpa_supplicant/src/tls\tlsv1_client_write.c **** 		return -1;
 439:C:/Users/stapi/OneDrive/Desktop/GD32VW553/V1_MQTT_OK/GD32VW55X_Wifi_BLE_SDK/GD32VW55x_RELEASE_V1.0.2/MSDK/wpa_supplicant/src/tls\tlsv1_client_write.c **** 	}
 440:C:/Users/stapi/OneDrive/Desktop/GD32VW553/V1_MQTT_OK/GD32VW55X_Wifi_BLE_SDK/GD32VW55x_RELEASE_V1.0.2/MSDK/wpa_supplicant/src/tls\tlsv1_client_write.c **** 	wpa_hexdump_key(MSG_DEBUG, "TLSv1: Shared secret from DH key exchange",
 441:C:/Users/stapi/OneDrive/Desktop/GD32VW553/V1_MQTT_OK/GD32VW55X_Wifi_BLE_SDK/GD32VW55x_RELEASE_V1.0.2/MSDK/wpa_supplicant/src/tls\tlsv1_client_write.c **** 			shared, shared_len);
 442:C:/Users/stapi/OneDrive/Desktop/GD32VW553/V1_MQTT_OK/GD32VW55X_Wifi_BLE_SDK/GD32VW55x_RELEASE_V1.0.2/MSDK/wpa_supplicant/src/tls\tlsv1_client_write.c **** 
 443:C:/Users/stapi/OneDrive/Desktop/GD32VW553/V1_MQTT_OK/GD32VW55X_Wifi_BLE_SDK/GD32VW55x_RELEASE_V1.0.2/MSDK/wpa_supplicant/src/tls\tlsv1_client_write.c **** 	os_memset(csecret_start, 0, csecret_len);
 444:C:/Users/stapi/OneDrive/Desktop/GD32VW553/V1_MQTT_OK/GD32VW55X_Wifi_BLE_SDK/GD32VW55x_RELEASE_V1.0.2/MSDK/wpa_supplicant/src/tls\tlsv1_client_write.c **** 	os_free(csecret);
 445:C:/Users/stapi/OneDrive/Desktop/GD32VW553/V1_MQTT_OK/GD32VW55X_Wifi_BLE_SDK/GD32VW55x_RELEASE_V1.0.2/MSDK/wpa_supplicant/src/tls\tlsv1_client_write.c **** 	if (tls_derive_keys(conn, shared, shared_len)) {
 446:C:/Users/stapi/OneDrive/Desktop/GD32VW553/V1_MQTT_OK/GD32VW55X_Wifi_BLE_SDK/GD32VW55x_RELEASE_V1.0.2/MSDK/wpa_supplicant/src/tls\tlsv1_client_write.c **** 		wpa_printf(MSG_DEBUG, "TLSv1: Failed to derive keys");
 447:C:/Users/stapi/OneDrive/Desktop/GD32VW553/V1_MQTT_OK/GD32VW55X_Wifi_BLE_SDK/GD32VW55x_RELEASE_V1.0.2/MSDK/wpa_supplicant/src/tls\tlsv1_client_write.c **** 		tls_alert(conn, TLS_ALERT_LEVEL_FATAL,
 448:C:/Users/stapi/OneDrive/Desktop/GD32VW553/V1_MQTT_OK/GD32VW55X_Wifi_BLE_SDK/GD32VW55x_RELEASE_V1.0.2/MSDK/wpa_supplicant/src/tls\tlsv1_client_write.c **** 			  TLS_ALERT_INTERNAL_ERROR);
 449:C:/Users/stapi/OneDrive/Desktop/GD32VW553/V1_MQTT_OK/GD32VW55X_Wifi_BLE_SDK/GD32VW55x_RELEASE_V1.0.2/MSDK/wpa_supplicant/src/tls\tlsv1_client_write.c **** 		os_free(shared);
 450:C:/Users/stapi/OneDrive/Desktop/GD32VW553/V1_MQTT_OK/GD32VW55X_Wifi_BLE_SDK/GD32VW55x_RELEASE_V1.0.2/MSDK/wpa_supplicant/src/tls\tlsv1_client_write.c **** 		return -1;
 451:C:/Users/stapi/OneDrive/Desktop/GD32VW553/V1_MQTT_OK/GD32VW55X_Wifi_BLE_SDK/GD32VW55x_RELEASE_V1.0.2/MSDK/wpa_supplicant/src/tls\tlsv1_client_write.c **** 	}
 452:C:/Users/stapi/OneDrive/Desktop/GD32VW553/V1_MQTT_OK/GD32VW55X_Wifi_BLE_SDK/GD32VW55x_RELEASE_V1.0.2/MSDK/wpa_supplicant/src/tls\tlsv1_client_write.c **** 	os_memset(shared, 0, shared_len);
 453:C:/Users/stapi/OneDrive/Desktop/GD32VW553/V1_MQTT_OK/GD32VW55X_Wifi_BLE_SDK/GD32VW55x_RELEASE_V1.0.2/MSDK/wpa_supplicant/src/tls\tlsv1_client_write.c **** 	os_free(shared);
 454:C:/Users/stapi/OneDrive/Desktop/GD32VW553/V1_MQTT_OK/GD32VW55X_Wifi_BLE_SDK/GD32VW55x_RELEASE_V1.0.2/MSDK/wpa_supplicant/src/tls\tlsv1_client_write.c **** 	tlsv1_client_free_dh(conn);
 455:C:/Users/stapi/OneDrive/Desktop/GD32VW553/V1_MQTT_OK/GD32VW55X_Wifi_BLE_SDK/GD32VW55x_RELEASE_V1.0.2/MSDK/wpa_supplicant/src/tls\tlsv1_client_write.c **** 	return 0;
 456:C:/Users/stapi/OneDrive/Desktop/GD32VW553/V1_MQTT_OK/GD32VW55X_Wifi_BLE_SDK/GD32VW55x_RELEASE_V1.0.2/MSDK/wpa_supplicant/src/tls\tlsv1_client_write.c **** }
 457:C:/Users/stapi/OneDrive/Desktop/GD32VW553/V1_MQTT_OK/GD32VW55X_Wifi_BLE_SDK/GD32VW55x_RELEASE_V1.0.2/MSDK/wpa_supplicant/src/tls\tlsv1_client_write.c **** 
 458:C:/Users/stapi/OneDrive/Desktop/GD32VW553/V1_MQTT_OK/GD32VW55X_Wifi_BLE_SDK/GD32VW55x_RELEASE_V1.0.2/MSDK/wpa_supplicant/src/tls\tlsv1_client_write.c **** 
 459:C:/Users/stapi/OneDrive/Desktop/GD32VW553/V1_MQTT_OK/GD32VW55X_Wifi_BLE_SDK/GD32VW55x_RELEASE_V1.0.2/MSDK/wpa_supplicant/src/tls\tlsv1_client_write.c **** static int tlsv1_key_x_rsa(struct tlsv1_client *conn, u8 **pos, u8 *end)
 460:C:/Users/stapi/OneDrive/Desktop/GD32VW553/V1_MQTT_OK/GD32VW55X_Wifi_BLE_SDK/GD32VW55x_RELEASE_V1.0.2/MSDK/wpa_supplicant/src/tls\tlsv1_client_write.c **** {
 461:C:/Users/stapi/OneDrive/Desktop/GD32VW553/V1_MQTT_OK/GD32VW55X_Wifi_BLE_SDK/GD32VW55x_RELEASE_V1.0.2/MSDK/wpa_supplicant/src/tls\tlsv1_client_write.c **** 	u8 pre_master_secret[TLS_PRE_MASTER_SECRET_LEN];
 462:C:/Users/stapi/OneDrive/Desktop/GD32VW553/V1_MQTT_OK/GD32VW55X_Wifi_BLE_SDK/GD32VW55x_RELEASE_V1.0.2/MSDK/wpa_supplicant/src/tls\tlsv1_client_write.c **** 	size_t clen;
 463:C:/Users/stapi/OneDrive/Desktop/GD32VW553/V1_MQTT_OK/GD32VW55X_Wifi_BLE_SDK/GD32VW55x_RELEASE_V1.0.2/MSDK/wpa_supplicant/src/tls\tlsv1_client_write.c **** 	int res;
 464:C:/Users/stapi/OneDrive/Desktop/GD32VW553/V1_MQTT_OK/GD32VW55X_Wifi_BLE_SDK/GD32VW55x_RELEASE_V1.0.2/MSDK/wpa_supplicant/src/tls\tlsv1_client_write.c **** 
 465:C:/Users/stapi/OneDrive/Desktop/GD32VW553/V1_MQTT_OK/GD32VW55X_Wifi_BLE_SDK/GD32VW55x_RELEASE_V1.0.2/MSDK/wpa_supplicant/src/tls\tlsv1_client_write.c **** 	if (tls_derive_pre_master_secret(conn, pre_master_secret) < 0 ||
 466:C:/Users/stapi/OneDrive/Desktop/GD32VW553/V1_MQTT_OK/GD32VW55X_Wifi_BLE_SDK/GD32VW55x_RELEASE_V1.0.2/MSDK/wpa_supplicant/src/tls\tlsv1_client_write.c **** 	    tls_derive_keys(conn, pre_master_secret,
 467:C:/Users/stapi/OneDrive/Desktop/GD32VW553/V1_MQTT_OK/GD32VW55X_Wifi_BLE_SDK/GD32VW55x_RELEASE_V1.0.2/MSDK/wpa_supplicant/src/tls\tlsv1_client_write.c **** 			    TLS_PRE_MASTER_SECRET_LEN)) {
 468:C:/Users/stapi/OneDrive/Desktop/GD32VW553/V1_MQTT_OK/GD32VW55X_Wifi_BLE_SDK/GD32VW55x_RELEASE_V1.0.2/MSDK/wpa_supplicant/src/tls\tlsv1_client_write.c **** 		wpa_printf(MSG_DEBUG, "TLSv1: Failed to derive keys");
 469:C:/Users/stapi/OneDrive/Desktop/GD32VW553/V1_MQTT_OK/GD32VW55X_Wifi_BLE_SDK/GD32VW55x_RELEASE_V1.0.2/MSDK/wpa_supplicant/src/tls\tlsv1_client_write.c **** 		tls_alert(conn, TLS_ALERT_LEVEL_FATAL,
 470:C:/Users/stapi/OneDrive/Desktop/GD32VW553/V1_MQTT_OK/GD32VW55X_Wifi_BLE_SDK/GD32VW55x_RELEASE_V1.0.2/MSDK/wpa_supplicant/src/tls\tlsv1_client_write.c **** 			  TLS_ALERT_INTERNAL_ERROR);
 471:C:/Users/stapi/OneDrive/Desktop/GD32VW553/V1_MQTT_OK/GD32VW55X_Wifi_BLE_SDK/GD32VW55x_RELEASE_V1.0.2/MSDK/wpa_supplicant/src/tls\tlsv1_client_write.c **** 		return -1;
 472:C:/Users/stapi/OneDrive/Desktop/GD32VW553/V1_MQTT_OK/GD32VW55X_Wifi_BLE_SDK/GD32VW55x_RELEASE_V1.0.2/MSDK/wpa_supplicant/src/tls\tlsv1_client_write.c **** 	}
 473:C:/Users/stapi/OneDrive/Desktop/GD32VW553/V1_MQTT_OK/GD32VW55X_Wifi_BLE_SDK/GD32VW55x_RELEASE_V1.0.2/MSDK/wpa_supplicant/src/tls\tlsv1_client_write.c **** 
 474:C:/Users/stapi/OneDrive/Desktop/GD32VW553/V1_MQTT_OK/GD32VW55X_Wifi_BLE_SDK/GD32VW55x_RELEASE_V1.0.2/MSDK/wpa_supplicant/src/tls\tlsv1_client_write.c **** 	/* EncryptedPreMasterSecret */
 475:C:/Users/stapi/OneDrive/Desktop/GD32VW553/V1_MQTT_OK/GD32VW55X_Wifi_BLE_SDK/GD32VW55x_RELEASE_V1.0.2/MSDK/wpa_supplicant/src/tls\tlsv1_client_write.c **** 	if (conn->server_rsa_key == NULL) {
 476:C:/Users/stapi/OneDrive/Desktop/GD32VW553/V1_MQTT_OK/GD32VW55X_Wifi_BLE_SDK/GD32VW55x_RELEASE_V1.0.2/MSDK/wpa_supplicant/src/tls\tlsv1_client_write.c **** 		wpa_printf(MSG_DEBUG, "TLSv1: No server RSA key to "
 477:C:/Users/stapi/OneDrive/Desktop/GD32VW553/V1_MQTT_OK/GD32VW55X_Wifi_BLE_SDK/GD32VW55x_RELEASE_V1.0.2/MSDK/wpa_supplicant/src/tls\tlsv1_client_write.c **** 			   "use for encrypting pre-master secret");
 478:C:/Users/stapi/OneDrive/Desktop/GD32VW553/V1_MQTT_OK/GD32VW55X_Wifi_BLE_SDK/GD32VW55x_RELEASE_V1.0.2/MSDK/wpa_supplicant/src/tls\tlsv1_client_write.c **** 		tls_alert(conn, TLS_ALERT_LEVEL_FATAL,
 479:C:/Users/stapi/OneDrive/Desktop/GD32VW553/V1_MQTT_OK/GD32VW55X_Wifi_BLE_SDK/GD32VW55x_RELEASE_V1.0.2/MSDK/wpa_supplicant/src/tls\tlsv1_client_write.c **** 			  TLS_ALERT_INTERNAL_ERROR);
 480:C:/Users/stapi/OneDrive/Desktop/GD32VW553/V1_MQTT_OK/GD32VW55X_Wifi_BLE_SDK/GD32VW55x_RELEASE_V1.0.2/MSDK/wpa_supplicant/src/tls\tlsv1_client_write.c **** 		return -1;
 481:C:/Users/stapi/OneDrive/Desktop/GD32VW553/V1_MQTT_OK/GD32VW55X_Wifi_BLE_SDK/GD32VW55x_RELEASE_V1.0.2/MSDK/wpa_supplicant/src/tls\tlsv1_client_write.c **** 	}
 482:C:/Users/stapi/OneDrive/Desktop/GD32VW553/V1_MQTT_OK/GD32VW55X_Wifi_BLE_SDK/GD32VW55x_RELEASE_V1.0.2/MSDK/wpa_supplicant/src/tls\tlsv1_client_write.c **** 
 483:C:/Users/stapi/OneDrive/Desktop/GD32VW553/V1_MQTT_OK/GD32VW55X_Wifi_BLE_SDK/GD32VW55x_RELEASE_V1.0.2/MSDK/wpa_supplicant/src/tls\tlsv1_client_write.c **** 	/* RSA encrypted value is encoded with PKCS #1 v1.5 block type 2. */
 484:C:/Users/stapi/OneDrive/Desktop/GD32VW553/V1_MQTT_OK/GD32VW55X_Wifi_BLE_SDK/GD32VW55x_RELEASE_V1.0.2/MSDK/wpa_supplicant/src/tls\tlsv1_client_write.c **** 	*pos += 2;
 485:C:/Users/stapi/OneDrive/Desktop/GD32VW553/V1_MQTT_OK/GD32VW55X_Wifi_BLE_SDK/GD32VW55x_RELEASE_V1.0.2/MSDK/wpa_supplicant/src/tls\tlsv1_client_write.c **** 	clen = end - *pos;
 486:C:/Users/stapi/OneDrive/Desktop/GD32VW553/V1_MQTT_OK/GD32VW55X_Wifi_BLE_SDK/GD32VW55x_RELEASE_V1.0.2/MSDK/wpa_supplicant/src/tls\tlsv1_client_write.c **** 	res = crypto_public_key_encrypt_pkcs1_v15(
 487:C:/Users/stapi/OneDrive/Desktop/GD32VW553/V1_MQTT_OK/GD32VW55X_Wifi_BLE_SDK/GD32VW55x_RELEASE_V1.0.2/MSDK/wpa_supplicant/src/tls\tlsv1_client_write.c **** 		conn->server_rsa_key,
 488:C:/Users/stapi/OneDrive/Desktop/GD32VW553/V1_MQTT_OK/GD32VW55X_Wifi_BLE_SDK/GD32VW55x_RELEASE_V1.0.2/MSDK/wpa_supplicant/src/tls\tlsv1_client_write.c **** 		pre_master_secret, TLS_PRE_MASTER_SECRET_LEN,
 489:C:/Users/stapi/OneDrive/Desktop/GD32VW553/V1_MQTT_OK/GD32VW55X_Wifi_BLE_SDK/GD32VW55x_RELEASE_V1.0.2/MSDK/wpa_supplicant/src/tls\tlsv1_client_write.c **** 		*pos, &clen);
 490:C:/Users/stapi/OneDrive/Desktop/GD32VW553/V1_MQTT_OK/GD32VW55X_Wifi_BLE_SDK/GD32VW55x_RELEASE_V1.0.2/MSDK/wpa_supplicant/src/tls\tlsv1_client_write.c **** 	os_memset(pre_master_secret, 0, TLS_PRE_MASTER_SECRET_LEN);
 491:C:/Users/stapi/OneDrive/Desktop/GD32VW553/V1_MQTT_OK/GD32VW55X_Wifi_BLE_SDK/GD32VW55x_RELEASE_V1.0.2/MSDK/wpa_supplicant/src/tls\tlsv1_client_write.c **** 	if (res < 0) {
 492:C:/Users/stapi/OneDrive/Desktop/GD32VW553/V1_MQTT_OK/GD32VW55X_Wifi_BLE_SDK/GD32VW55x_RELEASE_V1.0.2/MSDK/wpa_supplicant/src/tls\tlsv1_client_write.c **** 		wpa_printf(MSG_DEBUG, "TLSv1: RSA encryption failed");
 493:C:/Users/stapi/OneDrive/Desktop/GD32VW553/V1_MQTT_OK/GD32VW55X_Wifi_BLE_SDK/GD32VW55x_RELEASE_V1.0.2/MSDK/wpa_supplicant/src/tls\tlsv1_client_write.c **** 		tls_alert(conn, TLS_ALERT_LEVEL_FATAL,
 494:C:/Users/stapi/OneDrive/Desktop/GD32VW553/V1_MQTT_OK/GD32VW55X_Wifi_BLE_SDK/GD32VW55x_RELEASE_V1.0.2/MSDK/wpa_supplicant/src/tls\tlsv1_client_write.c **** 			  TLS_ALERT_INTERNAL_ERROR);
 495:C:/Users/stapi/OneDrive/Desktop/GD32VW553/V1_MQTT_OK/GD32VW55X_Wifi_BLE_SDK/GD32VW55x_RELEASE_V1.0.2/MSDK/wpa_supplicant/src/tls\tlsv1_client_write.c **** 		return -1;
 496:C:/Users/stapi/OneDrive/Desktop/GD32VW553/V1_MQTT_OK/GD32VW55X_Wifi_BLE_SDK/GD32VW55x_RELEASE_V1.0.2/MSDK/wpa_supplicant/src/tls\tlsv1_client_write.c **** 	}
 497:C:/Users/stapi/OneDrive/Desktop/GD32VW553/V1_MQTT_OK/GD32VW55X_Wifi_BLE_SDK/GD32VW55x_RELEASE_V1.0.2/MSDK/wpa_supplicant/src/tls\tlsv1_client_write.c **** 	WPA_PUT_BE16(*pos - 2, clen);
 498:C:/Users/stapi/OneDrive/Desktop/GD32VW553/V1_MQTT_OK/GD32VW55X_Wifi_BLE_SDK/GD32VW55x_RELEASE_V1.0.2/MSDK/wpa_supplicant/src/tls\tlsv1_client_write.c **** 	wpa_hexdump(MSG_MSGDUMP, "TLSv1: Encrypted pre_master_secret",
 499:C:/Users/stapi/OneDrive/Desktop/GD32VW553/V1_MQTT_OK/GD32VW55X_Wifi_BLE_SDK/GD32VW55x_RELEASE_V1.0.2/MSDK/wpa_supplicant/src/tls\tlsv1_client_write.c **** 		    *pos, clen);
 500:C:/Users/stapi/OneDrive/Desktop/GD32VW553/V1_MQTT_OK/GD32VW55X_Wifi_BLE_SDK/GD32VW55x_RELEASE_V1.0.2/MSDK/wpa_supplicant/src/tls\tlsv1_client_write.c **** 	*pos += clen;
 501:C:/Users/stapi/OneDrive/Desktop/GD32VW553/V1_MQTT_OK/GD32VW55X_Wifi_BLE_SDK/GD32VW55x_RELEASE_V1.0.2/MSDK/wpa_supplicant/src/tls\tlsv1_client_write.c **** 
 502:C:/Users/stapi/OneDrive/Desktop/GD32VW553/V1_MQTT_OK/GD32VW55X_Wifi_BLE_SDK/GD32VW55x_RELEASE_V1.0.2/MSDK/wpa_supplicant/src/tls\tlsv1_client_write.c **** 	return 0;
 503:C:/Users/stapi/OneDrive/Desktop/GD32VW553/V1_MQTT_OK/GD32VW55X_Wifi_BLE_SDK/GD32VW55x_RELEASE_V1.0.2/MSDK/wpa_supplicant/src/tls\tlsv1_client_write.c **** }
 504:C:/Users/stapi/OneDrive/Desktop/GD32VW553/V1_MQTT_OK/GD32VW55X_Wifi_BLE_SDK/GD32VW55x_RELEASE_V1.0.2/MSDK/wpa_supplicant/src/tls\tlsv1_client_write.c **** 
 505:C:/Users/stapi/OneDrive/Desktop/GD32VW553/V1_MQTT_OK/GD32VW55X_Wifi_BLE_SDK/GD32VW55x_RELEASE_V1.0.2/MSDK/wpa_supplicant/src/tls\tlsv1_client_write.c **** 
 506:C:/Users/stapi/OneDrive/Desktop/GD32VW553/V1_MQTT_OK/GD32VW55X_Wifi_BLE_SDK/GD32VW55x_RELEASE_V1.0.2/MSDK/wpa_supplicant/src/tls\tlsv1_client_write.c **** static int tls_write_client_key_exchange(struct tlsv1_client *conn,
 507:C:/Users/stapi/OneDrive/Desktop/GD32VW553/V1_MQTT_OK/GD32VW55X_Wifi_BLE_SDK/GD32VW55x_RELEASE_V1.0.2/MSDK/wpa_supplicant/src/tls\tlsv1_client_write.c **** 					 u8 **msgpos, u8 *end)
 508:C:/Users/stapi/OneDrive/Desktop/GD32VW553/V1_MQTT_OK/GD32VW55X_Wifi_BLE_SDK/GD32VW55x_RELEASE_V1.0.2/MSDK/wpa_supplicant/src/tls\tlsv1_client_write.c **** {
 509:C:/Users/stapi/OneDrive/Desktop/GD32VW553/V1_MQTT_OK/GD32VW55X_Wifi_BLE_SDK/GD32VW55x_RELEASE_V1.0.2/MSDK/wpa_supplicant/src/tls\tlsv1_client_write.c **** 	u8 *pos, *rhdr, *hs_start, *hs_length;
 510:C:/Users/stapi/OneDrive/Desktop/GD32VW553/V1_MQTT_OK/GD32VW55X_Wifi_BLE_SDK/GD32VW55x_RELEASE_V1.0.2/MSDK/wpa_supplicant/src/tls\tlsv1_client_write.c **** 	size_t rlen;
 511:C:/Users/stapi/OneDrive/Desktop/GD32VW553/V1_MQTT_OK/GD32VW55X_Wifi_BLE_SDK/GD32VW55x_RELEASE_V1.0.2/MSDK/wpa_supplicant/src/tls\tlsv1_client_write.c **** 	tls_key_exchange keyx;
 512:C:/Users/stapi/OneDrive/Desktop/GD32VW553/V1_MQTT_OK/GD32VW55X_Wifi_BLE_SDK/GD32VW55x_RELEASE_V1.0.2/MSDK/wpa_supplicant/src/tls\tlsv1_client_write.c **** 	const struct tls_cipher_suite *suite;
 513:C:/Users/stapi/OneDrive/Desktop/GD32VW553/V1_MQTT_OK/GD32VW55X_Wifi_BLE_SDK/GD32VW55x_RELEASE_V1.0.2/MSDK/wpa_supplicant/src/tls\tlsv1_client_write.c **** 
 514:C:/Users/stapi/OneDrive/Desktop/GD32VW553/V1_MQTT_OK/GD32VW55X_Wifi_BLE_SDK/GD32VW55x_RELEASE_V1.0.2/MSDK/wpa_supplicant/src/tls\tlsv1_client_write.c **** 	suite = tls_get_cipher_suite(conn->rl.cipher_suite);
 515:C:/Users/stapi/OneDrive/Desktop/GD32VW553/V1_MQTT_OK/GD32VW55X_Wifi_BLE_SDK/GD32VW55x_RELEASE_V1.0.2/MSDK/wpa_supplicant/src/tls\tlsv1_client_write.c **** 	if (suite == NULL)
 516:C:/Users/stapi/OneDrive/Desktop/GD32VW553/V1_MQTT_OK/GD32VW55X_Wifi_BLE_SDK/GD32VW55x_RELEASE_V1.0.2/MSDK/wpa_supplicant/src/tls\tlsv1_client_write.c **** 		keyx = TLS_KEY_X_NULL;
 517:C:/Users/stapi/OneDrive/Desktop/GD32VW553/V1_MQTT_OK/GD32VW55X_Wifi_BLE_SDK/GD32VW55x_RELEASE_V1.0.2/MSDK/wpa_supplicant/src/tls\tlsv1_client_write.c **** 	else
 518:C:/Users/stapi/OneDrive/Desktop/GD32VW553/V1_MQTT_OK/GD32VW55X_Wifi_BLE_SDK/GD32VW55x_RELEASE_V1.0.2/MSDK/wpa_supplicant/src/tls\tlsv1_client_write.c **** 		keyx = suite->key_exchange;
 519:C:/Users/stapi/OneDrive/Desktop/GD32VW553/V1_MQTT_OK/GD32VW55X_Wifi_BLE_SDK/GD32VW55x_RELEASE_V1.0.2/MSDK/wpa_supplicant/src/tls\tlsv1_client_write.c **** 
 520:C:/Users/stapi/OneDrive/Desktop/GD32VW553/V1_MQTT_OK/GD32VW55X_Wifi_BLE_SDK/GD32VW55x_RELEASE_V1.0.2/MSDK/wpa_supplicant/src/tls\tlsv1_client_write.c **** 	pos = *msgpos;
 521:C:/Users/stapi/OneDrive/Desktop/GD32VW553/V1_MQTT_OK/GD32VW55X_Wifi_BLE_SDK/GD32VW55x_RELEASE_V1.0.2/MSDK/wpa_supplicant/src/tls\tlsv1_client_write.c **** 
 522:C:/Users/stapi/OneDrive/Desktop/GD32VW553/V1_MQTT_OK/GD32VW55X_Wifi_BLE_SDK/GD32VW55x_RELEASE_V1.0.2/MSDK/wpa_supplicant/src/tls\tlsv1_client_write.c **** 	wpa_printf(MSG_DEBUG, "TLSv1: Send ClientKeyExchange");
 523:C:/Users/stapi/OneDrive/Desktop/GD32VW553/V1_MQTT_OK/GD32VW55X_Wifi_BLE_SDK/GD32VW55x_RELEASE_V1.0.2/MSDK/wpa_supplicant/src/tls\tlsv1_client_write.c **** 
 524:C:/Users/stapi/OneDrive/Desktop/GD32VW553/V1_MQTT_OK/GD32VW55X_Wifi_BLE_SDK/GD32VW55x_RELEASE_V1.0.2/MSDK/wpa_supplicant/src/tls\tlsv1_client_write.c **** 	rhdr = pos;
 525:C:/Users/stapi/OneDrive/Desktop/GD32VW553/V1_MQTT_OK/GD32VW55X_Wifi_BLE_SDK/GD32VW55x_RELEASE_V1.0.2/MSDK/wpa_supplicant/src/tls\tlsv1_client_write.c **** 	pos += TLS_RECORD_HEADER_LEN;
 526:C:/Users/stapi/OneDrive/Desktop/GD32VW553/V1_MQTT_OK/GD32VW55X_Wifi_BLE_SDK/GD32VW55x_RELEASE_V1.0.2/MSDK/wpa_supplicant/src/tls\tlsv1_client_write.c **** 
 527:C:/Users/stapi/OneDrive/Desktop/GD32VW553/V1_MQTT_OK/GD32VW55X_Wifi_BLE_SDK/GD32VW55x_RELEASE_V1.0.2/MSDK/wpa_supplicant/src/tls\tlsv1_client_write.c **** 	/* opaque fragment[TLSPlaintext.length] */
 528:C:/Users/stapi/OneDrive/Desktop/GD32VW553/V1_MQTT_OK/GD32VW55X_Wifi_BLE_SDK/GD32VW55x_RELEASE_V1.0.2/MSDK/wpa_supplicant/src/tls\tlsv1_client_write.c **** 
 529:C:/Users/stapi/OneDrive/Desktop/GD32VW553/V1_MQTT_OK/GD32VW55X_Wifi_BLE_SDK/GD32VW55x_RELEASE_V1.0.2/MSDK/wpa_supplicant/src/tls\tlsv1_client_write.c **** 	/* Handshake */
 530:C:/Users/stapi/OneDrive/Desktop/GD32VW553/V1_MQTT_OK/GD32VW55X_Wifi_BLE_SDK/GD32VW55x_RELEASE_V1.0.2/MSDK/wpa_supplicant/src/tls\tlsv1_client_write.c **** 	hs_start = pos;
 531:C:/Users/stapi/OneDrive/Desktop/GD32VW553/V1_MQTT_OK/GD32VW55X_Wifi_BLE_SDK/GD32VW55x_RELEASE_V1.0.2/MSDK/wpa_supplicant/src/tls\tlsv1_client_write.c **** 	/* HandshakeType msg_type */
 532:C:/Users/stapi/OneDrive/Desktop/GD32VW553/V1_MQTT_OK/GD32VW55X_Wifi_BLE_SDK/GD32VW55x_RELEASE_V1.0.2/MSDK/wpa_supplicant/src/tls\tlsv1_client_write.c **** 	*pos++ = TLS_HANDSHAKE_TYPE_CLIENT_KEY_EXCHANGE;
 533:C:/Users/stapi/OneDrive/Desktop/GD32VW553/V1_MQTT_OK/GD32VW55X_Wifi_BLE_SDK/GD32VW55x_RELEASE_V1.0.2/MSDK/wpa_supplicant/src/tls\tlsv1_client_write.c **** 	/* uint24 length (to be filled) */
 534:C:/Users/stapi/OneDrive/Desktop/GD32VW553/V1_MQTT_OK/GD32VW55X_Wifi_BLE_SDK/GD32VW55x_RELEASE_V1.0.2/MSDK/wpa_supplicant/src/tls\tlsv1_client_write.c **** 	hs_length = pos;
 535:C:/Users/stapi/OneDrive/Desktop/GD32VW553/V1_MQTT_OK/GD32VW55X_Wifi_BLE_SDK/GD32VW55x_RELEASE_V1.0.2/MSDK/wpa_supplicant/src/tls\tlsv1_client_write.c **** 	pos += 3;
 536:C:/Users/stapi/OneDrive/Desktop/GD32VW553/V1_MQTT_OK/GD32VW55X_Wifi_BLE_SDK/GD32VW55x_RELEASE_V1.0.2/MSDK/wpa_supplicant/src/tls\tlsv1_client_write.c **** 	/* body - ClientKeyExchange */
 537:C:/Users/stapi/OneDrive/Desktop/GD32VW553/V1_MQTT_OK/GD32VW55X_Wifi_BLE_SDK/GD32VW55x_RELEASE_V1.0.2/MSDK/wpa_supplicant/src/tls\tlsv1_client_write.c **** 	if (keyx == TLS_KEY_X_DH_anon || keyx == TLS_KEY_X_DHE_RSA) {
 538:C:/Users/stapi/OneDrive/Desktop/GD32VW553/V1_MQTT_OK/GD32VW55X_Wifi_BLE_SDK/GD32VW55x_RELEASE_V1.0.2/MSDK/wpa_supplicant/src/tls\tlsv1_client_write.c **** 		if (tlsv1_key_x_dh(conn, &pos, end) < 0)
 539:C:/Users/stapi/OneDrive/Desktop/GD32VW553/V1_MQTT_OK/GD32VW55X_Wifi_BLE_SDK/GD32VW55x_RELEASE_V1.0.2/MSDK/wpa_supplicant/src/tls\tlsv1_client_write.c **** 			return -1;
 540:C:/Users/stapi/OneDrive/Desktop/GD32VW553/V1_MQTT_OK/GD32VW55X_Wifi_BLE_SDK/GD32VW55x_RELEASE_V1.0.2/MSDK/wpa_supplicant/src/tls\tlsv1_client_write.c **** 	} else {
 541:C:/Users/stapi/OneDrive/Desktop/GD32VW553/V1_MQTT_OK/GD32VW55X_Wifi_BLE_SDK/GD32VW55x_RELEASE_V1.0.2/MSDK/wpa_supplicant/src/tls\tlsv1_client_write.c **** 		if (tlsv1_key_x_rsa(conn, &pos, end) < 0)
 542:C:/Users/stapi/OneDrive/Desktop/GD32VW553/V1_MQTT_OK/GD32VW55X_Wifi_BLE_SDK/GD32VW55x_RELEASE_V1.0.2/MSDK/wpa_supplicant/src/tls\tlsv1_client_write.c **** 			return -1;
 543:C:/Users/stapi/OneDrive/Desktop/GD32VW553/V1_MQTT_OK/GD32VW55X_Wifi_BLE_SDK/GD32VW55x_RELEASE_V1.0.2/MSDK/wpa_supplicant/src/tls\tlsv1_client_write.c **** 	}
 544:C:/Users/stapi/OneDrive/Desktop/GD32VW553/V1_MQTT_OK/GD32VW55X_Wifi_BLE_SDK/GD32VW55x_RELEASE_V1.0.2/MSDK/wpa_supplicant/src/tls\tlsv1_client_write.c **** 
 545:C:/Users/stapi/OneDrive/Desktop/GD32VW553/V1_MQTT_OK/GD32VW55X_Wifi_BLE_SDK/GD32VW55x_RELEASE_V1.0.2/MSDK/wpa_supplicant/src/tls\tlsv1_client_write.c **** 	WPA_PUT_BE24(hs_length, pos - hs_length - 3);
 546:C:/Users/stapi/OneDrive/Desktop/GD32VW553/V1_MQTT_OK/GD32VW55X_Wifi_BLE_SDK/GD32VW55x_RELEASE_V1.0.2/MSDK/wpa_supplicant/src/tls\tlsv1_client_write.c **** 
 547:C:/Users/stapi/OneDrive/Desktop/GD32VW553/V1_MQTT_OK/GD32VW55X_Wifi_BLE_SDK/GD32VW55x_RELEASE_V1.0.2/MSDK/wpa_supplicant/src/tls\tlsv1_client_write.c **** 	if (tlsv1_record_send(&conn->rl, TLS_CONTENT_TYPE_HANDSHAKE,
 548:C:/Users/stapi/OneDrive/Desktop/GD32VW553/V1_MQTT_OK/GD32VW55X_Wifi_BLE_SDK/GD32VW55x_RELEASE_V1.0.2/MSDK/wpa_supplicant/src/tls\tlsv1_client_write.c **** 			      rhdr, end - rhdr, hs_start, pos - hs_start,
 549:C:/Users/stapi/OneDrive/Desktop/GD32VW553/V1_MQTT_OK/GD32VW55X_Wifi_BLE_SDK/GD32VW55x_RELEASE_V1.0.2/MSDK/wpa_supplicant/src/tls\tlsv1_client_write.c **** 			      &rlen) < 0) {
 550:C:/Users/stapi/OneDrive/Desktop/GD32VW553/V1_MQTT_OK/GD32VW55X_Wifi_BLE_SDK/GD32VW55x_RELEASE_V1.0.2/MSDK/wpa_supplicant/src/tls\tlsv1_client_write.c **** 		wpa_printf(MSG_DEBUG, "TLSv1: Failed to create a record");
 551:C:/Users/stapi/OneDrive/Desktop/GD32VW553/V1_MQTT_OK/GD32VW55X_Wifi_BLE_SDK/GD32VW55x_RELEASE_V1.0.2/MSDK/wpa_supplicant/src/tls\tlsv1_client_write.c **** 		tls_alert(conn, TLS_ALERT_LEVEL_FATAL,
 552:C:/Users/stapi/OneDrive/Desktop/GD32VW553/V1_MQTT_OK/GD32VW55X_Wifi_BLE_SDK/GD32VW55x_RELEASE_V1.0.2/MSDK/wpa_supplicant/src/tls\tlsv1_client_write.c **** 			  TLS_ALERT_INTERNAL_ERROR);
 553:C:/Users/stapi/OneDrive/Desktop/GD32VW553/V1_MQTT_OK/GD32VW55X_Wifi_BLE_SDK/GD32VW55x_RELEASE_V1.0.2/MSDK/wpa_supplicant/src/tls\tlsv1_client_write.c **** 		return -1;
 554:C:/Users/stapi/OneDrive/Desktop/GD32VW553/V1_MQTT_OK/GD32VW55X_Wifi_BLE_SDK/GD32VW55x_RELEASE_V1.0.2/MSDK/wpa_supplicant/src/tls\tlsv1_client_write.c **** 	}
 555:C:/Users/stapi/OneDrive/Desktop/GD32VW553/V1_MQTT_OK/GD32VW55X_Wifi_BLE_SDK/GD32VW55x_RELEASE_V1.0.2/MSDK/wpa_supplicant/src/tls\tlsv1_client_write.c **** 	pos = rhdr + rlen;
 556:C:/Users/stapi/OneDrive/Desktop/GD32VW553/V1_MQTT_OK/GD32VW55X_Wifi_BLE_SDK/GD32VW55x_RELEASE_V1.0.2/MSDK/wpa_supplicant/src/tls\tlsv1_client_write.c **** 	tls_verify_hash_add(&conn->verify, hs_start, pos - hs_start);
 557:C:/Users/stapi/OneDrive/Desktop/GD32VW553/V1_MQTT_OK/GD32VW55X_Wifi_BLE_SDK/GD32VW55x_RELEASE_V1.0.2/MSDK/wpa_supplicant/src/tls\tlsv1_client_write.c **** 
 558:C:/Users/stapi/OneDrive/Desktop/GD32VW553/V1_MQTT_OK/GD32VW55X_Wifi_BLE_SDK/GD32VW55x_RELEASE_V1.0.2/MSDK/wpa_supplicant/src/tls\tlsv1_client_write.c **** 	*msgpos = pos;
 559:C:/Users/stapi/OneDrive/Desktop/GD32VW553/V1_MQTT_OK/GD32VW55X_Wifi_BLE_SDK/GD32VW55x_RELEASE_V1.0.2/MSDK/wpa_supplicant/src/tls\tlsv1_client_write.c **** 
 560:C:/Users/stapi/OneDrive/Desktop/GD32VW553/V1_MQTT_OK/GD32VW55X_Wifi_BLE_SDK/GD32VW55x_RELEASE_V1.0.2/MSDK/wpa_supplicant/src/tls\tlsv1_client_write.c **** 	return 0;
 561:C:/Users/stapi/OneDrive/Desktop/GD32VW553/V1_MQTT_OK/GD32VW55X_Wifi_BLE_SDK/GD32VW55x_RELEASE_V1.0.2/MSDK/wpa_supplicant/src/tls\tlsv1_client_write.c **** }
 562:C:/Users/stapi/OneDrive/Desktop/GD32VW553/V1_MQTT_OK/GD32VW55X_Wifi_BLE_SDK/GD32VW55x_RELEASE_V1.0.2/MSDK/wpa_supplicant/src/tls\tlsv1_client_write.c **** 
 563:C:/Users/stapi/OneDrive/Desktop/GD32VW553/V1_MQTT_OK/GD32VW55X_Wifi_BLE_SDK/GD32VW55x_RELEASE_V1.0.2/MSDK/wpa_supplicant/src/tls\tlsv1_client_write.c **** 
 564:C:/Users/stapi/OneDrive/Desktop/GD32VW553/V1_MQTT_OK/GD32VW55X_Wifi_BLE_SDK/GD32VW55x_RELEASE_V1.0.2/MSDK/wpa_supplicant/src/tls\tlsv1_client_write.c **** static int tls_write_client_certificate_verify(struct tlsv1_client *conn,
 565:C:/Users/stapi/OneDrive/Desktop/GD32VW553/V1_MQTT_OK/GD32VW55X_Wifi_BLE_SDK/GD32VW55x_RELEASE_V1.0.2/MSDK/wpa_supplicant/src/tls\tlsv1_client_write.c **** 					       u8 **msgpos, u8 *end)
 566:C:/Users/stapi/OneDrive/Desktop/GD32VW553/V1_MQTT_OK/GD32VW55X_Wifi_BLE_SDK/GD32VW55x_RELEASE_V1.0.2/MSDK/wpa_supplicant/src/tls\tlsv1_client_write.c **** {
 567:C:/Users/stapi/OneDrive/Desktop/GD32VW553/V1_MQTT_OK/GD32VW55X_Wifi_BLE_SDK/GD32VW55x_RELEASE_V1.0.2/MSDK/wpa_supplicant/src/tls\tlsv1_client_write.c **** 	u8 *pos, *rhdr, *hs_start, *hs_length, *signed_start;
 568:C:/Users/stapi/OneDrive/Desktop/GD32VW553/V1_MQTT_OK/GD32VW55X_Wifi_BLE_SDK/GD32VW55x_RELEASE_V1.0.2/MSDK/wpa_supplicant/src/tls\tlsv1_client_write.c **** 	size_t rlen, hlen, clen;
 569:C:/Users/stapi/OneDrive/Desktop/GD32VW553/V1_MQTT_OK/GD32VW55X_Wifi_BLE_SDK/GD32VW55x_RELEASE_V1.0.2/MSDK/wpa_supplicant/src/tls\tlsv1_client_write.c **** 	u8 hash[100], *hpos;
 570:C:/Users/stapi/OneDrive/Desktop/GD32VW553/V1_MQTT_OK/GD32VW55X_Wifi_BLE_SDK/GD32VW55x_RELEASE_V1.0.2/MSDK/wpa_supplicant/src/tls\tlsv1_client_write.c **** 
 571:C:/Users/stapi/OneDrive/Desktop/GD32VW553/V1_MQTT_OK/GD32VW55X_Wifi_BLE_SDK/GD32VW55x_RELEASE_V1.0.2/MSDK/wpa_supplicant/src/tls\tlsv1_client_write.c **** 	pos = *msgpos;
 572:C:/Users/stapi/OneDrive/Desktop/GD32VW553/V1_MQTT_OK/GD32VW55X_Wifi_BLE_SDK/GD32VW55x_RELEASE_V1.0.2/MSDK/wpa_supplicant/src/tls\tlsv1_client_write.c **** 
 573:C:/Users/stapi/OneDrive/Desktop/GD32VW553/V1_MQTT_OK/GD32VW55X_Wifi_BLE_SDK/GD32VW55x_RELEASE_V1.0.2/MSDK/wpa_supplicant/src/tls\tlsv1_client_write.c **** 	wpa_printf(MSG_DEBUG, "TLSv1: Send CertificateVerify");
 574:C:/Users/stapi/OneDrive/Desktop/GD32VW553/V1_MQTT_OK/GD32VW55X_Wifi_BLE_SDK/GD32VW55x_RELEASE_V1.0.2/MSDK/wpa_supplicant/src/tls\tlsv1_client_write.c **** 	rhdr = pos;
 575:C:/Users/stapi/OneDrive/Desktop/GD32VW553/V1_MQTT_OK/GD32VW55X_Wifi_BLE_SDK/GD32VW55x_RELEASE_V1.0.2/MSDK/wpa_supplicant/src/tls\tlsv1_client_write.c **** 	pos += TLS_RECORD_HEADER_LEN;
 576:C:/Users/stapi/OneDrive/Desktop/GD32VW553/V1_MQTT_OK/GD32VW55X_Wifi_BLE_SDK/GD32VW55x_RELEASE_V1.0.2/MSDK/wpa_supplicant/src/tls\tlsv1_client_write.c **** 
 577:C:/Users/stapi/OneDrive/Desktop/GD32VW553/V1_MQTT_OK/GD32VW55X_Wifi_BLE_SDK/GD32VW55x_RELEASE_V1.0.2/MSDK/wpa_supplicant/src/tls\tlsv1_client_write.c **** 	/* Handshake */
 578:C:/Users/stapi/OneDrive/Desktop/GD32VW553/V1_MQTT_OK/GD32VW55X_Wifi_BLE_SDK/GD32VW55x_RELEASE_V1.0.2/MSDK/wpa_supplicant/src/tls\tlsv1_client_write.c **** 	hs_start = pos;
 579:C:/Users/stapi/OneDrive/Desktop/GD32VW553/V1_MQTT_OK/GD32VW55X_Wifi_BLE_SDK/GD32VW55x_RELEASE_V1.0.2/MSDK/wpa_supplicant/src/tls\tlsv1_client_write.c **** 	/* HandshakeType msg_type */
 580:C:/Users/stapi/OneDrive/Desktop/GD32VW553/V1_MQTT_OK/GD32VW55X_Wifi_BLE_SDK/GD32VW55x_RELEASE_V1.0.2/MSDK/wpa_supplicant/src/tls\tlsv1_client_write.c **** 	*pos++ = TLS_HANDSHAKE_TYPE_CERTIFICATE_VERIFY;
 581:C:/Users/stapi/OneDrive/Desktop/GD32VW553/V1_MQTT_OK/GD32VW55X_Wifi_BLE_SDK/GD32VW55x_RELEASE_V1.0.2/MSDK/wpa_supplicant/src/tls\tlsv1_client_write.c **** 	/* uint24 length (to be filled) */
 582:C:/Users/stapi/OneDrive/Desktop/GD32VW553/V1_MQTT_OK/GD32VW55X_Wifi_BLE_SDK/GD32VW55x_RELEASE_V1.0.2/MSDK/wpa_supplicant/src/tls\tlsv1_client_write.c **** 	hs_length = pos;
 583:C:/Users/stapi/OneDrive/Desktop/GD32VW553/V1_MQTT_OK/GD32VW55X_Wifi_BLE_SDK/GD32VW55x_RELEASE_V1.0.2/MSDK/wpa_supplicant/src/tls\tlsv1_client_write.c **** 	pos += 3;
 584:C:/Users/stapi/OneDrive/Desktop/GD32VW553/V1_MQTT_OK/GD32VW55X_Wifi_BLE_SDK/GD32VW55x_RELEASE_V1.0.2/MSDK/wpa_supplicant/src/tls\tlsv1_client_write.c **** 
 585:C:/Users/stapi/OneDrive/Desktop/GD32VW553/V1_MQTT_OK/GD32VW55X_Wifi_BLE_SDK/GD32VW55x_RELEASE_V1.0.2/MSDK/wpa_supplicant/src/tls\tlsv1_client_write.c **** 	/*
 586:C:/Users/stapi/OneDrive/Desktop/GD32VW553/V1_MQTT_OK/GD32VW55X_Wifi_BLE_SDK/GD32VW55x_RELEASE_V1.0.2/MSDK/wpa_supplicant/src/tls\tlsv1_client_write.c **** 	 * RFC 2246: 7.4.3 and 7.4.8:
 587:C:/Users/stapi/OneDrive/Desktop/GD32VW553/V1_MQTT_OK/GD32VW55X_Wifi_BLE_SDK/GD32VW55x_RELEASE_V1.0.2/MSDK/wpa_supplicant/src/tls\tlsv1_client_write.c **** 	 * Signature signature
 588:C:/Users/stapi/OneDrive/Desktop/GD32VW553/V1_MQTT_OK/GD32VW55X_Wifi_BLE_SDK/GD32VW55x_RELEASE_V1.0.2/MSDK/wpa_supplicant/src/tls\tlsv1_client_write.c **** 	 *
 589:C:/Users/stapi/OneDrive/Desktop/GD32VW553/V1_MQTT_OK/GD32VW55X_Wifi_BLE_SDK/GD32VW55x_RELEASE_V1.0.2/MSDK/wpa_supplicant/src/tls\tlsv1_client_write.c **** 	 * RSA:
 590:C:/Users/stapi/OneDrive/Desktop/GD32VW553/V1_MQTT_OK/GD32VW55X_Wifi_BLE_SDK/GD32VW55x_RELEASE_V1.0.2/MSDK/wpa_supplicant/src/tls\tlsv1_client_write.c **** 	 * digitally-signed struct {
 591:C:/Users/stapi/OneDrive/Desktop/GD32VW553/V1_MQTT_OK/GD32VW55X_Wifi_BLE_SDK/GD32VW55x_RELEASE_V1.0.2/MSDK/wpa_supplicant/src/tls\tlsv1_client_write.c **** 	 *     opaque md5_hash[16];
 592:C:/Users/stapi/OneDrive/Desktop/GD32VW553/V1_MQTT_OK/GD32VW55X_Wifi_BLE_SDK/GD32VW55x_RELEASE_V1.0.2/MSDK/wpa_supplicant/src/tls\tlsv1_client_write.c **** 	 *     opaque sha_hash[20];
 593:C:/Users/stapi/OneDrive/Desktop/GD32VW553/V1_MQTT_OK/GD32VW55X_Wifi_BLE_SDK/GD32VW55x_RELEASE_V1.0.2/MSDK/wpa_supplicant/src/tls\tlsv1_client_write.c **** 	 * };
 594:C:/Users/stapi/OneDrive/Desktop/GD32VW553/V1_MQTT_OK/GD32VW55X_Wifi_BLE_SDK/GD32VW55x_RELEASE_V1.0.2/MSDK/wpa_supplicant/src/tls\tlsv1_client_write.c **** 	 *
 595:C:/Users/stapi/OneDrive/Desktop/GD32VW553/V1_MQTT_OK/GD32VW55X_Wifi_BLE_SDK/GD32VW55x_RELEASE_V1.0.2/MSDK/wpa_supplicant/src/tls\tlsv1_client_write.c **** 	 * DSA:
 596:C:/Users/stapi/OneDrive/Desktop/GD32VW553/V1_MQTT_OK/GD32VW55X_Wifi_BLE_SDK/GD32VW55x_RELEASE_V1.0.2/MSDK/wpa_supplicant/src/tls\tlsv1_client_write.c **** 	 * digitally-signed struct {
 597:C:/Users/stapi/OneDrive/Desktop/GD32VW553/V1_MQTT_OK/GD32VW55X_Wifi_BLE_SDK/GD32VW55x_RELEASE_V1.0.2/MSDK/wpa_supplicant/src/tls\tlsv1_client_write.c **** 	 *     opaque sha_hash[20];
 598:C:/Users/stapi/OneDrive/Desktop/GD32VW553/V1_MQTT_OK/GD32VW55X_Wifi_BLE_SDK/GD32VW55x_RELEASE_V1.0.2/MSDK/wpa_supplicant/src/tls\tlsv1_client_write.c **** 	 * };
 599:C:/Users/stapi/OneDrive/Desktop/GD32VW553/V1_MQTT_OK/GD32VW55X_Wifi_BLE_SDK/GD32VW55x_RELEASE_V1.0.2/MSDK/wpa_supplicant/src/tls\tlsv1_client_write.c **** 	 *
 600:C:/Users/stapi/OneDrive/Desktop/GD32VW553/V1_MQTT_OK/GD32VW55X_Wifi_BLE_SDK/GD32VW55x_RELEASE_V1.0.2/MSDK/wpa_supplicant/src/tls\tlsv1_client_write.c **** 	 * The hash values are calculated over all handshake messages sent or
 601:C:/Users/stapi/OneDrive/Desktop/GD32VW553/V1_MQTT_OK/GD32VW55X_Wifi_BLE_SDK/GD32VW55x_RELEASE_V1.0.2/MSDK/wpa_supplicant/src/tls\tlsv1_client_write.c **** 	 * received starting at ClientHello up to, but not including, this
 602:C:/Users/stapi/OneDrive/Desktop/GD32VW553/V1_MQTT_OK/GD32VW55X_Wifi_BLE_SDK/GD32VW55x_RELEASE_V1.0.2/MSDK/wpa_supplicant/src/tls\tlsv1_client_write.c **** 	 * CertificateVerify message, including the type and length fields of
 603:C:/Users/stapi/OneDrive/Desktop/GD32VW553/V1_MQTT_OK/GD32VW55X_Wifi_BLE_SDK/GD32VW55x_RELEASE_V1.0.2/MSDK/wpa_supplicant/src/tls\tlsv1_client_write.c **** 	 * the handshake messages.
 604:C:/Users/stapi/OneDrive/Desktop/GD32VW553/V1_MQTT_OK/GD32VW55X_Wifi_BLE_SDK/GD32VW55x_RELEASE_V1.0.2/MSDK/wpa_supplicant/src/tls\tlsv1_client_write.c **** 	 */
 605:C:/Users/stapi/OneDrive/Desktop/GD32VW553/V1_MQTT_OK/GD32VW55X_Wifi_BLE_SDK/GD32VW55x_RELEASE_V1.0.2/MSDK/wpa_supplicant/src/tls\tlsv1_client_write.c **** 
 606:C:/Users/stapi/OneDrive/Desktop/GD32VW553/V1_MQTT_OK/GD32VW55X_Wifi_BLE_SDK/GD32VW55x_RELEASE_V1.0.2/MSDK/wpa_supplicant/src/tls\tlsv1_client_write.c **** 	hpos = hash;
 607:C:/Users/stapi/OneDrive/Desktop/GD32VW553/V1_MQTT_OK/GD32VW55X_Wifi_BLE_SDK/GD32VW55x_RELEASE_V1.0.2/MSDK/wpa_supplicant/src/tls\tlsv1_client_write.c **** 
 608:C:/Users/stapi/OneDrive/Desktop/GD32VW553/V1_MQTT_OK/GD32VW55X_Wifi_BLE_SDK/GD32VW55x_RELEASE_V1.0.2/MSDK/wpa_supplicant/src/tls\tlsv1_client_write.c **** #ifdef CONFIG_TLSV12
 609:C:/Users/stapi/OneDrive/Desktop/GD32VW553/V1_MQTT_OK/GD32VW55X_Wifi_BLE_SDK/GD32VW55x_RELEASE_V1.0.2/MSDK/wpa_supplicant/src/tls\tlsv1_client_write.c **** 	if (conn->rl.tls_version == TLS_VERSION_1_2) {
 610:C:/Users/stapi/OneDrive/Desktop/GD32VW553/V1_MQTT_OK/GD32VW55X_Wifi_BLE_SDK/GD32VW55x_RELEASE_V1.0.2/MSDK/wpa_supplicant/src/tls\tlsv1_client_write.c **** 		hlen = SHA256_MAC_LEN;
 611:C:/Users/stapi/OneDrive/Desktop/GD32VW553/V1_MQTT_OK/GD32VW55X_Wifi_BLE_SDK/GD32VW55x_RELEASE_V1.0.2/MSDK/wpa_supplicant/src/tls\tlsv1_client_write.c **** 		if (conn->verify.sha256_cert == NULL ||
 612:C:/Users/stapi/OneDrive/Desktop/GD32VW553/V1_MQTT_OK/GD32VW55X_Wifi_BLE_SDK/GD32VW55x_RELEASE_V1.0.2/MSDK/wpa_supplicant/src/tls\tlsv1_client_write.c **** 		    crypto_hash_finish(conn->verify.sha256_cert, hpos, &hlen) <
 613:C:/Users/stapi/OneDrive/Desktop/GD32VW553/V1_MQTT_OK/GD32VW55X_Wifi_BLE_SDK/GD32VW55x_RELEASE_V1.0.2/MSDK/wpa_supplicant/src/tls\tlsv1_client_write.c **** 		    0) {
 614:C:/Users/stapi/OneDrive/Desktop/GD32VW553/V1_MQTT_OK/GD32VW55X_Wifi_BLE_SDK/GD32VW55x_RELEASE_V1.0.2/MSDK/wpa_supplicant/src/tls\tlsv1_client_write.c **** 			conn->verify.sha256_cert = NULL;
 615:C:/Users/stapi/OneDrive/Desktop/GD32VW553/V1_MQTT_OK/GD32VW55X_Wifi_BLE_SDK/GD32VW55x_RELEASE_V1.0.2/MSDK/wpa_supplicant/src/tls\tlsv1_client_write.c **** 			tls_alert(conn, TLS_ALERT_LEVEL_FATAL,
 616:C:/Users/stapi/OneDrive/Desktop/GD32VW553/V1_MQTT_OK/GD32VW55X_Wifi_BLE_SDK/GD32VW55x_RELEASE_V1.0.2/MSDK/wpa_supplicant/src/tls\tlsv1_client_write.c **** 				  TLS_ALERT_INTERNAL_ERROR);
 617:C:/Users/stapi/OneDrive/Desktop/GD32VW553/V1_MQTT_OK/GD32VW55X_Wifi_BLE_SDK/GD32VW55x_RELEASE_V1.0.2/MSDK/wpa_supplicant/src/tls\tlsv1_client_write.c **** 			return -1;
 618:C:/Users/stapi/OneDrive/Desktop/GD32VW553/V1_MQTT_OK/GD32VW55X_Wifi_BLE_SDK/GD32VW55x_RELEASE_V1.0.2/MSDK/wpa_supplicant/src/tls\tlsv1_client_write.c **** 		}
 619:C:/Users/stapi/OneDrive/Desktop/GD32VW553/V1_MQTT_OK/GD32VW55X_Wifi_BLE_SDK/GD32VW55x_RELEASE_V1.0.2/MSDK/wpa_supplicant/src/tls\tlsv1_client_write.c **** 		conn->verify.sha256_cert = NULL;
 620:C:/Users/stapi/OneDrive/Desktop/GD32VW553/V1_MQTT_OK/GD32VW55X_Wifi_BLE_SDK/GD32VW55x_RELEASE_V1.0.2/MSDK/wpa_supplicant/src/tls\tlsv1_client_write.c **** 
 621:C:/Users/stapi/OneDrive/Desktop/GD32VW553/V1_MQTT_OK/GD32VW55X_Wifi_BLE_SDK/GD32VW55x_RELEASE_V1.0.2/MSDK/wpa_supplicant/src/tls\tlsv1_client_write.c **** 		/*
 622:C:/Users/stapi/OneDrive/Desktop/GD32VW553/V1_MQTT_OK/GD32VW55X_Wifi_BLE_SDK/GD32VW55x_RELEASE_V1.0.2/MSDK/wpa_supplicant/src/tls\tlsv1_client_write.c **** 		 * RFC 3447, A.2.4 RSASSA-PKCS1-v1_5
 623:C:/Users/stapi/OneDrive/Desktop/GD32VW553/V1_MQTT_OK/GD32VW55X_Wifi_BLE_SDK/GD32VW55x_RELEASE_V1.0.2/MSDK/wpa_supplicant/src/tls\tlsv1_client_write.c **** 		 *
 624:C:/Users/stapi/OneDrive/Desktop/GD32VW553/V1_MQTT_OK/GD32VW55X_Wifi_BLE_SDK/GD32VW55x_RELEASE_V1.0.2/MSDK/wpa_supplicant/src/tls\tlsv1_client_write.c **** 		 * DigestInfo ::= SEQUENCE {
 625:C:/Users/stapi/OneDrive/Desktop/GD32VW553/V1_MQTT_OK/GD32VW55X_Wifi_BLE_SDK/GD32VW55x_RELEASE_V1.0.2/MSDK/wpa_supplicant/src/tls\tlsv1_client_write.c **** 		 *   digestAlgorithm DigestAlgorithm,
 626:C:/Users/stapi/OneDrive/Desktop/GD32VW553/V1_MQTT_OK/GD32VW55X_Wifi_BLE_SDK/GD32VW55x_RELEASE_V1.0.2/MSDK/wpa_supplicant/src/tls\tlsv1_client_write.c **** 		 *   digest OCTET STRING
 627:C:/Users/stapi/OneDrive/Desktop/GD32VW553/V1_MQTT_OK/GD32VW55X_Wifi_BLE_SDK/GD32VW55x_RELEASE_V1.0.2/MSDK/wpa_supplicant/src/tls\tlsv1_client_write.c **** 		 * }
 628:C:/Users/stapi/OneDrive/Desktop/GD32VW553/V1_MQTT_OK/GD32VW55X_Wifi_BLE_SDK/GD32VW55x_RELEASE_V1.0.2/MSDK/wpa_supplicant/src/tls\tlsv1_client_write.c **** 		 *
 629:C:/Users/stapi/OneDrive/Desktop/GD32VW553/V1_MQTT_OK/GD32VW55X_Wifi_BLE_SDK/GD32VW55x_RELEASE_V1.0.2/MSDK/wpa_supplicant/src/tls\tlsv1_client_write.c **** 		 * SHA-256 OID: sha256WithRSAEncryption ::= {pkcs-1 11}
 630:C:/Users/stapi/OneDrive/Desktop/GD32VW553/V1_MQTT_OK/GD32VW55X_Wifi_BLE_SDK/GD32VW55x_RELEASE_V1.0.2/MSDK/wpa_supplicant/src/tls\tlsv1_client_write.c **** 		 *
 631:C:/Users/stapi/OneDrive/Desktop/GD32VW553/V1_MQTT_OK/GD32VW55X_Wifi_BLE_SDK/GD32VW55x_RELEASE_V1.0.2/MSDK/wpa_supplicant/src/tls\tlsv1_client_write.c **** 		 * DER encoded DigestInfo for SHA256 per RFC 3447:
 632:C:/Users/stapi/OneDrive/Desktop/GD32VW553/V1_MQTT_OK/GD32VW55X_Wifi_BLE_SDK/GD32VW55x_RELEASE_V1.0.2/MSDK/wpa_supplicant/src/tls\tlsv1_client_write.c **** 		 * 30 31 30 0d 06 09 60 86 48 01 65 03 04 02 01 05 00 04 20 ||
 633:C:/Users/stapi/OneDrive/Desktop/GD32VW553/V1_MQTT_OK/GD32VW55X_Wifi_BLE_SDK/GD32VW55x_RELEASE_V1.0.2/MSDK/wpa_supplicant/src/tls\tlsv1_client_write.c **** 		 * H
 634:C:/Users/stapi/OneDrive/Desktop/GD32VW553/V1_MQTT_OK/GD32VW55X_Wifi_BLE_SDK/GD32VW55x_RELEASE_V1.0.2/MSDK/wpa_supplicant/src/tls\tlsv1_client_write.c **** 		 */
 635:C:/Users/stapi/OneDrive/Desktop/GD32VW553/V1_MQTT_OK/GD32VW55X_Wifi_BLE_SDK/GD32VW55x_RELEASE_V1.0.2/MSDK/wpa_supplicant/src/tls\tlsv1_client_write.c **** 		os_memmove(hash + 19, hash, hlen);
 636:C:/Users/stapi/OneDrive/Desktop/GD32VW553/V1_MQTT_OK/GD32VW55X_Wifi_BLE_SDK/GD32VW55x_RELEASE_V1.0.2/MSDK/wpa_supplicant/src/tls\tlsv1_client_write.c **** 		hlen += 19;
 637:C:/Users/stapi/OneDrive/Desktop/GD32VW553/V1_MQTT_OK/GD32VW55X_Wifi_BLE_SDK/GD32VW55x_RELEASE_V1.0.2/MSDK/wpa_supplicant/src/tls\tlsv1_client_write.c **** 		os_memcpy(hash, "\x30\x31\x30\x0d\x06\x09\x60\x86\x48\x01\x65"
 638:C:/Users/stapi/OneDrive/Desktop/GD32VW553/V1_MQTT_OK/GD32VW55X_Wifi_BLE_SDK/GD32VW55x_RELEASE_V1.0.2/MSDK/wpa_supplicant/src/tls\tlsv1_client_write.c **** 			  "\x03\x04\x02\x01\x05\x00\x04\x20", 19);
 639:C:/Users/stapi/OneDrive/Desktop/GD32VW553/V1_MQTT_OK/GD32VW55X_Wifi_BLE_SDK/GD32VW55x_RELEASE_V1.0.2/MSDK/wpa_supplicant/src/tls\tlsv1_client_write.c **** 	} else {
 640:C:/Users/stapi/OneDrive/Desktop/GD32VW553/V1_MQTT_OK/GD32VW55X_Wifi_BLE_SDK/GD32VW55x_RELEASE_V1.0.2/MSDK/wpa_supplicant/src/tls\tlsv1_client_write.c **** #endif /* CONFIG_TLSV12 */
 641:C:/Users/stapi/OneDrive/Desktop/GD32VW553/V1_MQTT_OK/GD32VW55X_Wifi_BLE_SDK/GD32VW55x_RELEASE_V1.0.2/MSDK/wpa_supplicant/src/tls\tlsv1_client_write.c **** 
 642:C:/Users/stapi/OneDrive/Desktop/GD32VW553/V1_MQTT_OK/GD32VW55X_Wifi_BLE_SDK/GD32VW55x_RELEASE_V1.0.2/MSDK/wpa_supplicant/src/tls\tlsv1_client_write.c **** 	hlen = MD5_MAC_LEN;
 643:C:/Users/stapi/OneDrive/Desktop/GD32VW553/V1_MQTT_OK/GD32VW55X_Wifi_BLE_SDK/GD32VW55x_RELEASE_V1.0.2/MSDK/wpa_supplicant/src/tls\tlsv1_client_write.c **** 	if (conn->verify.md5_cert == NULL ||
 644:C:/Users/stapi/OneDrive/Desktop/GD32VW553/V1_MQTT_OK/GD32VW55X_Wifi_BLE_SDK/GD32VW55x_RELEASE_V1.0.2/MSDK/wpa_supplicant/src/tls\tlsv1_client_write.c **** 	    crypto_hash_finish(conn->verify.md5_cert, hpos, &hlen) < 0) {
 645:C:/Users/stapi/OneDrive/Desktop/GD32VW553/V1_MQTT_OK/GD32VW55X_Wifi_BLE_SDK/GD32VW55x_RELEASE_V1.0.2/MSDK/wpa_supplicant/src/tls\tlsv1_client_write.c **** 		tls_alert(conn, TLS_ALERT_LEVEL_FATAL,
 646:C:/Users/stapi/OneDrive/Desktop/GD32VW553/V1_MQTT_OK/GD32VW55X_Wifi_BLE_SDK/GD32VW55x_RELEASE_V1.0.2/MSDK/wpa_supplicant/src/tls\tlsv1_client_write.c **** 			  TLS_ALERT_INTERNAL_ERROR);
 647:C:/Users/stapi/OneDrive/Desktop/GD32VW553/V1_MQTT_OK/GD32VW55X_Wifi_BLE_SDK/GD32VW55x_RELEASE_V1.0.2/MSDK/wpa_supplicant/src/tls\tlsv1_client_write.c **** 		conn->verify.md5_cert = NULL;
 648:C:/Users/stapi/OneDrive/Desktop/GD32VW553/V1_MQTT_OK/GD32VW55X_Wifi_BLE_SDK/GD32VW55x_RELEASE_V1.0.2/MSDK/wpa_supplicant/src/tls\tlsv1_client_write.c **** 		crypto_hash_finish(conn->verify.sha1_cert, NULL, NULL);
 649:C:/Users/stapi/OneDrive/Desktop/GD32VW553/V1_MQTT_OK/GD32VW55X_Wifi_BLE_SDK/GD32VW55x_RELEASE_V1.0.2/MSDK/wpa_supplicant/src/tls\tlsv1_client_write.c **** 		conn->verify.sha1_cert = NULL;
 650:C:/Users/stapi/OneDrive/Desktop/GD32VW553/V1_MQTT_OK/GD32VW55X_Wifi_BLE_SDK/GD32VW55x_RELEASE_V1.0.2/MSDK/wpa_supplicant/src/tls\tlsv1_client_write.c **** 		return -1;
 651:C:/Users/stapi/OneDrive/Desktop/GD32VW553/V1_MQTT_OK/GD32VW55X_Wifi_BLE_SDK/GD32VW55x_RELEASE_V1.0.2/MSDK/wpa_supplicant/src/tls\tlsv1_client_write.c **** 	}
 652:C:/Users/stapi/OneDrive/Desktop/GD32VW553/V1_MQTT_OK/GD32VW55X_Wifi_BLE_SDK/GD32VW55x_RELEASE_V1.0.2/MSDK/wpa_supplicant/src/tls\tlsv1_client_write.c **** 	hpos += MD5_MAC_LEN;
 653:C:/Users/stapi/OneDrive/Desktop/GD32VW553/V1_MQTT_OK/GD32VW55X_Wifi_BLE_SDK/GD32VW55x_RELEASE_V1.0.2/MSDK/wpa_supplicant/src/tls\tlsv1_client_write.c **** 
 654:C:/Users/stapi/OneDrive/Desktop/GD32VW553/V1_MQTT_OK/GD32VW55X_Wifi_BLE_SDK/GD32VW55x_RELEASE_V1.0.2/MSDK/wpa_supplicant/src/tls\tlsv1_client_write.c **** 	conn->verify.md5_cert = NULL;
 655:C:/Users/stapi/OneDrive/Desktop/GD32VW553/V1_MQTT_OK/GD32VW55X_Wifi_BLE_SDK/GD32VW55x_RELEASE_V1.0.2/MSDK/wpa_supplicant/src/tls\tlsv1_client_write.c **** 	hlen = SHA1_MAC_LEN;
 656:C:/Users/stapi/OneDrive/Desktop/GD32VW553/V1_MQTT_OK/GD32VW55X_Wifi_BLE_SDK/GD32VW55x_RELEASE_V1.0.2/MSDK/wpa_supplicant/src/tls\tlsv1_client_write.c **** 	if (conn->verify.sha1_cert == NULL ||
 657:C:/Users/stapi/OneDrive/Desktop/GD32VW553/V1_MQTT_OK/GD32VW55X_Wifi_BLE_SDK/GD32VW55x_RELEASE_V1.0.2/MSDK/wpa_supplicant/src/tls\tlsv1_client_write.c **** 	    crypto_hash_finish(conn->verify.sha1_cert, hpos, &hlen) < 0) {
 658:C:/Users/stapi/OneDrive/Desktop/GD32VW553/V1_MQTT_OK/GD32VW55X_Wifi_BLE_SDK/GD32VW55x_RELEASE_V1.0.2/MSDK/wpa_supplicant/src/tls\tlsv1_client_write.c **** 		conn->verify.sha1_cert = NULL;
 659:C:/Users/stapi/OneDrive/Desktop/GD32VW553/V1_MQTT_OK/GD32VW55X_Wifi_BLE_SDK/GD32VW55x_RELEASE_V1.0.2/MSDK/wpa_supplicant/src/tls\tlsv1_client_write.c **** 		tls_alert(conn, TLS_ALERT_LEVEL_FATAL,
 660:C:/Users/stapi/OneDrive/Desktop/GD32VW553/V1_MQTT_OK/GD32VW55X_Wifi_BLE_SDK/GD32VW55x_RELEASE_V1.0.2/MSDK/wpa_supplicant/src/tls\tlsv1_client_write.c **** 			  TLS_ALERT_INTERNAL_ERROR);
 661:C:/Users/stapi/OneDrive/Desktop/GD32VW553/V1_MQTT_OK/GD32VW55X_Wifi_BLE_SDK/GD32VW55x_RELEASE_V1.0.2/MSDK/wpa_supplicant/src/tls\tlsv1_client_write.c **** 		return -1;
 662:C:/Users/stapi/OneDrive/Desktop/GD32VW553/V1_MQTT_OK/GD32VW55X_Wifi_BLE_SDK/GD32VW55x_RELEASE_V1.0.2/MSDK/wpa_supplicant/src/tls\tlsv1_client_write.c **** 	}
 663:C:/Users/stapi/OneDrive/Desktop/GD32VW553/V1_MQTT_OK/GD32VW55X_Wifi_BLE_SDK/GD32VW55x_RELEASE_V1.0.2/MSDK/wpa_supplicant/src/tls\tlsv1_client_write.c **** 	conn->verify.sha1_cert = NULL;
 664:C:/Users/stapi/OneDrive/Desktop/GD32VW553/V1_MQTT_OK/GD32VW55X_Wifi_BLE_SDK/GD32VW55x_RELEASE_V1.0.2/MSDK/wpa_supplicant/src/tls\tlsv1_client_write.c **** 
 665:C:/Users/stapi/OneDrive/Desktop/GD32VW553/V1_MQTT_OK/GD32VW55X_Wifi_BLE_SDK/GD32VW55x_RELEASE_V1.0.2/MSDK/wpa_supplicant/src/tls\tlsv1_client_write.c **** 	hlen += MD5_MAC_LEN;
 666:C:/Users/stapi/OneDrive/Desktop/GD32VW553/V1_MQTT_OK/GD32VW55X_Wifi_BLE_SDK/GD32VW55x_RELEASE_V1.0.2/MSDK/wpa_supplicant/src/tls\tlsv1_client_write.c **** 
 667:C:/Users/stapi/OneDrive/Desktop/GD32VW553/V1_MQTT_OK/GD32VW55X_Wifi_BLE_SDK/GD32VW55x_RELEASE_V1.0.2/MSDK/wpa_supplicant/src/tls\tlsv1_client_write.c **** #ifdef CONFIG_TLSV12
 668:C:/Users/stapi/OneDrive/Desktop/GD32VW553/V1_MQTT_OK/GD32VW55X_Wifi_BLE_SDK/GD32VW55x_RELEASE_V1.0.2/MSDK/wpa_supplicant/src/tls\tlsv1_client_write.c **** 	}
 669:C:/Users/stapi/OneDrive/Desktop/GD32VW553/V1_MQTT_OK/GD32VW55X_Wifi_BLE_SDK/GD32VW55x_RELEASE_V1.0.2/MSDK/wpa_supplicant/src/tls\tlsv1_client_write.c **** #endif /* CONFIG_TLSV12 */
 670:C:/Users/stapi/OneDrive/Desktop/GD32VW553/V1_MQTT_OK/GD32VW55X_Wifi_BLE_SDK/GD32VW55x_RELEASE_V1.0.2/MSDK/wpa_supplicant/src/tls\tlsv1_client_write.c **** 
 671:C:/Users/stapi/OneDrive/Desktop/GD32VW553/V1_MQTT_OK/GD32VW55X_Wifi_BLE_SDK/GD32VW55x_RELEASE_V1.0.2/MSDK/wpa_supplicant/src/tls\tlsv1_client_write.c **** 	wpa_hexdump(MSG_MSGDUMP, "TLSv1: CertificateVerify hash", hash, hlen);
 672:C:/Users/stapi/OneDrive/Desktop/GD32VW553/V1_MQTT_OK/GD32VW55X_Wifi_BLE_SDK/GD32VW55x_RELEASE_V1.0.2/MSDK/wpa_supplicant/src/tls\tlsv1_client_write.c **** 
 673:C:/Users/stapi/OneDrive/Desktop/GD32VW553/V1_MQTT_OK/GD32VW55X_Wifi_BLE_SDK/GD32VW55x_RELEASE_V1.0.2/MSDK/wpa_supplicant/src/tls\tlsv1_client_write.c **** #ifdef CONFIG_TLSV12
 674:C:/Users/stapi/OneDrive/Desktop/GD32VW553/V1_MQTT_OK/GD32VW55X_Wifi_BLE_SDK/GD32VW55x_RELEASE_V1.0.2/MSDK/wpa_supplicant/src/tls\tlsv1_client_write.c **** 	if (conn->rl.tls_version >= TLS_VERSION_1_2) {
 675:C:/Users/stapi/OneDrive/Desktop/GD32VW553/V1_MQTT_OK/GD32VW55X_Wifi_BLE_SDK/GD32VW55x_RELEASE_V1.0.2/MSDK/wpa_supplicant/src/tls\tlsv1_client_write.c **** 		/*
 676:C:/Users/stapi/OneDrive/Desktop/GD32VW553/V1_MQTT_OK/GD32VW55X_Wifi_BLE_SDK/GD32VW55x_RELEASE_V1.0.2/MSDK/wpa_supplicant/src/tls\tlsv1_client_write.c **** 		 * RFC 5246, 4.7:
 677:C:/Users/stapi/OneDrive/Desktop/GD32VW553/V1_MQTT_OK/GD32VW55X_Wifi_BLE_SDK/GD32VW55x_RELEASE_V1.0.2/MSDK/wpa_supplicant/src/tls\tlsv1_client_write.c **** 		 * TLS v1.2 adds explicit indication of the used signature and
 678:C:/Users/stapi/OneDrive/Desktop/GD32VW553/V1_MQTT_OK/GD32VW55X_Wifi_BLE_SDK/GD32VW55x_RELEASE_V1.0.2/MSDK/wpa_supplicant/src/tls\tlsv1_client_write.c **** 		 * hash algorithms.
 679:C:/Users/stapi/OneDrive/Desktop/GD32VW553/V1_MQTT_OK/GD32VW55X_Wifi_BLE_SDK/GD32VW55x_RELEASE_V1.0.2/MSDK/wpa_supplicant/src/tls\tlsv1_client_write.c **** 		 *
 680:C:/Users/stapi/OneDrive/Desktop/GD32VW553/V1_MQTT_OK/GD32VW55X_Wifi_BLE_SDK/GD32VW55x_RELEASE_V1.0.2/MSDK/wpa_supplicant/src/tls\tlsv1_client_write.c **** 		 * struct {
 681:C:/Users/stapi/OneDrive/Desktop/GD32VW553/V1_MQTT_OK/GD32VW55X_Wifi_BLE_SDK/GD32VW55x_RELEASE_V1.0.2/MSDK/wpa_supplicant/src/tls\tlsv1_client_write.c **** 		 *   HashAlgorithm hash;
 682:C:/Users/stapi/OneDrive/Desktop/GD32VW553/V1_MQTT_OK/GD32VW55X_Wifi_BLE_SDK/GD32VW55x_RELEASE_V1.0.2/MSDK/wpa_supplicant/src/tls\tlsv1_client_write.c **** 		 *   SignatureAlgorithm signature;
 683:C:/Users/stapi/OneDrive/Desktop/GD32VW553/V1_MQTT_OK/GD32VW55X_Wifi_BLE_SDK/GD32VW55x_RELEASE_V1.0.2/MSDK/wpa_supplicant/src/tls\tlsv1_client_write.c **** 		 * } SignatureAndHashAlgorithm;
 684:C:/Users/stapi/OneDrive/Desktop/GD32VW553/V1_MQTT_OK/GD32VW55X_Wifi_BLE_SDK/GD32VW55x_RELEASE_V1.0.2/MSDK/wpa_supplicant/src/tls\tlsv1_client_write.c **** 		 */
 685:C:/Users/stapi/OneDrive/Desktop/GD32VW553/V1_MQTT_OK/GD32VW55X_Wifi_BLE_SDK/GD32VW55x_RELEASE_V1.0.2/MSDK/wpa_supplicant/src/tls\tlsv1_client_write.c **** 		*pos++ = TLS_HASH_ALG_SHA256;
 686:C:/Users/stapi/OneDrive/Desktop/GD32VW553/V1_MQTT_OK/GD32VW55X_Wifi_BLE_SDK/GD32VW55x_RELEASE_V1.0.2/MSDK/wpa_supplicant/src/tls\tlsv1_client_write.c **** 		*pos++ = TLS_SIGN_ALG_RSA;
 687:C:/Users/stapi/OneDrive/Desktop/GD32VW553/V1_MQTT_OK/GD32VW55X_Wifi_BLE_SDK/GD32VW55x_RELEASE_V1.0.2/MSDK/wpa_supplicant/src/tls\tlsv1_client_write.c **** 	}
 688:C:/Users/stapi/OneDrive/Desktop/GD32VW553/V1_MQTT_OK/GD32VW55X_Wifi_BLE_SDK/GD32VW55x_RELEASE_V1.0.2/MSDK/wpa_supplicant/src/tls\tlsv1_client_write.c **** #endif /* CONFIG_TLSV12 */
 689:C:/Users/stapi/OneDrive/Desktop/GD32VW553/V1_MQTT_OK/GD32VW55X_Wifi_BLE_SDK/GD32VW55x_RELEASE_V1.0.2/MSDK/wpa_supplicant/src/tls\tlsv1_client_write.c **** 
 690:C:/Users/stapi/OneDrive/Desktop/GD32VW553/V1_MQTT_OK/GD32VW55X_Wifi_BLE_SDK/GD32VW55x_RELEASE_V1.0.2/MSDK/wpa_supplicant/src/tls\tlsv1_client_write.c **** 	/*
 691:C:/Users/stapi/OneDrive/Desktop/GD32VW553/V1_MQTT_OK/GD32VW55X_Wifi_BLE_SDK/GD32VW55x_RELEASE_V1.0.2/MSDK/wpa_supplicant/src/tls\tlsv1_client_write.c **** 	 * RFC 2246, 4.7:
 692:C:/Users/stapi/OneDrive/Desktop/GD32VW553/V1_MQTT_OK/GD32VW55X_Wifi_BLE_SDK/GD32VW55x_RELEASE_V1.0.2/MSDK/wpa_supplicant/src/tls\tlsv1_client_write.c **** 	 * In digital signing, one-way hash functions are used as input for a
 693:C:/Users/stapi/OneDrive/Desktop/GD32VW553/V1_MQTT_OK/GD32VW55X_Wifi_BLE_SDK/GD32VW55x_RELEASE_V1.0.2/MSDK/wpa_supplicant/src/tls\tlsv1_client_write.c **** 	 * signing algorithm. A digitally-signed element is encoded as an
 694:C:/Users/stapi/OneDrive/Desktop/GD32VW553/V1_MQTT_OK/GD32VW55X_Wifi_BLE_SDK/GD32VW55x_RELEASE_V1.0.2/MSDK/wpa_supplicant/src/tls\tlsv1_client_write.c **** 	 * opaque vector <0..2^16-1>, where the length is specified by the
 695:C:/Users/stapi/OneDrive/Desktop/GD32VW553/V1_MQTT_OK/GD32VW55X_Wifi_BLE_SDK/GD32VW55x_RELEASE_V1.0.2/MSDK/wpa_supplicant/src/tls\tlsv1_client_write.c **** 	 * signing algorithm and key.
 696:C:/Users/stapi/OneDrive/Desktop/GD32VW553/V1_MQTT_OK/GD32VW55X_Wifi_BLE_SDK/GD32VW55x_RELEASE_V1.0.2/MSDK/wpa_supplicant/src/tls\tlsv1_client_write.c **** 	 *
 697:C:/Users/stapi/OneDrive/Desktop/GD32VW553/V1_MQTT_OK/GD32VW55X_Wifi_BLE_SDK/GD32VW55x_RELEASE_V1.0.2/MSDK/wpa_supplicant/src/tls\tlsv1_client_write.c **** 	 * In RSA signing, a 36-byte structure of two hashes (one SHA and one
 698:C:/Users/stapi/OneDrive/Desktop/GD32VW553/V1_MQTT_OK/GD32VW55X_Wifi_BLE_SDK/GD32VW55x_RELEASE_V1.0.2/MSDK/wpa_supplicant/src/tls\tlsv1_client_write.c **** 	 * MD5) is signed (encrypted with the private key). It is encoded with
 699:C:/Users/stapi/OneDrive/Desktop/GD32VW553/V1_MQTT_OK/GD32VW55X_Wifi_BLE_SDK/GD32VW55x_RELEASE_V1.0.2/MSDK/wpa_supplicant/src/tls\tlsv1_client_write.c **** 	 * PKCS #1 block type 0 or type 1 as described in [PKCS1].
 700:C:/Users/stapi/OneDrive/Desktop/GD32VW553/V1_MQTT_OK/GD32VW55X_Wifi_BLE_SDK/GD32VW55x_RELEASE_V1.0.2/MSDK/wpa_supplicant/src/tls\tlsv1_client_write.c **** 	 */
 701:C:/Users/stapi/OneDrive/Desktop/GD32VW553/V1_MQTT_OK/GD32VW55X_Wifi_BLE_SDK/GD32VW55x_RELEASE_V1.0.2/MSDK/wpa_supplicant/src/tls\tlsv1_client_write.c **** 	signed_start = pos; /* length to be filled */
 702:C:/Users/stapi/OneDrive/Desktop/GD32VW553/V1_MQTT_OK/GD32VW55X_Wifi_BLE_SDK/GD32VW55x_RELEASE_V1.0.2/MSDK/wpa_supplicant/src/tls\tlsv1_client_write.c **** 	pos += 2;
 703:C:/Users/stapi/OneDrive/Desktop/GD32VW553/V1_MQTT_OK/GD32VW55X_Wifi_BLE_SDK/GD32VW55x_RELEASE_V1.0.2/MSDK/wpa_supplicant/src/tls\tlsv1_client_write.c **** 	clen = end - pos;
 704:C:/Users/stapi/OneDrive/Desktop/GD32VW553/V1_MQTT_OK/GD32VW55X_Wifi_BLE_SDK/GD32VW55x_RELEASE_V1.0.2/MSDK/wpa_supplicant/src/tls\tlsv1_client_write.c **** 	if (conn->cred == NULL ||
 705:C:/Users/stapi/OneDrive/Desktop/GD32VW553/V1_MQTT_OK/GD32VW55X_Wifi_BLE_SDK/GD32VW55x_RELEASE_V1.0.2/MSDK/wpa_supplicant/src/tls\tlsv1_client_write.c **** 	    crypto_private_key_sign_pkcs1(conn->cred->key, hash, hlen,
 706:C:/Users/stapi/OneDrive/Desktop/GD32VW553/V1_MQTT_OK/GD32VW55X_Wifi_BLE_SDK/GD32VW55x_RELEASE_V1.0.2/MSDK/wpa_supplicant/src/tls\tlsv1_client_write.c **** 					  pos, &clen) < 0) {
 707:C:/Users/stapi/OneDrive/Desktop/GD32VW553/V1_MQTT_OK/GD32VW55X_Wifi_BLE_SDK/GD32VW55x_RELEASE_V1.0.2/MSDK/wpa_supplicant/src/tls\tlsv1_client_write.c **** 		wpa_printf(MSG_DEBUG, "TLSv1: Failed to sign hash (PKCS #1)");
 708:C:/Users/stapi/OneDrive/Desktop/GD32VW553/V1_MQTT_OK/GD32VW55X_Wifi_BLE_SDK/GD32VW55x_RELEASE_V1.0.2/MSDK/wpa_supplicant/src/tls\tlsv1_client_write.c **** 		tls_alert(conn, TLS_ALERT_LEVEL_FATAL,
 709:C:/Users/stapi/OneDrive/Desktop/GD32VW553/V1_MQTT_OK/GD32VW55X_Wifi_BLE_SDK/GD32VW55x_RELEASE_V1.0.2/MSDK/wpa_supplicant/src/tls\tlsv1_client_write.c **** 			  TLS_ALERT_INTERNAL_ERROR);
 710:C:/Users/stapi/OneDrive/Desktop/GD32VW553/V1_MQTT_OK/GD32VW55X_Wifi_BLE_SDK/GD32VW55x_RELEASE_V1.0.2/MSDK/wpa_supplicant/src/tls\tlsv1_client_write.c **** 		return -1;
 711:C:/Users/stapi/OneDrive/Desktop/GD32VW553/V1_MQTT_OK/GD32VW55X_Wifi_BLE_SDK/GD32VW55x_RELEASE_V1.0.2/MSDK/wpa_supplicant/src/tls\tlsv1_client_write.c **** 	}
 712:C:/Users/stapi/OneDrive/Desktop/GD32VW553/V1_MQTT_OK/GD32VW55X_Wifi_BLE_SDK/GD32VW55x_RELEASE_V1.0.2/MSDK/wpa_supplicant/src/tls\tlsv1_client_write.c **** 	WPA_PUT_BE16(signed_start, clen);
 713:C:/Users/stapi/OneDrive/Desktop/GD32VW553/V1_MQTT_OK/GD32VW55X_Wifi_BLE_SDK/GD32VW55x_RELEASE_V1.0.2/MSDK/wpa_supplicant/src/tls\tlsv1_client_write.c **** 
 714:C:/Users/stapi/OneDrive/Desktop/GD32VW553/V1_MQTT_OK/GD32VW55X_Wifi_BLE_SDK/GD32VW55x_RELEASE_V1.0.2/MSDK/wpa_supplicant/src/tls\tlsv1_client_write.c **** 	pos += clen;
 715:C:/Users/stapi/OneDrive/Desktop/GD32VW553/V1_MQTT_OK/GD32VW55X_Wifi_BLE_SDK/GD32VW55x_RELEASE_V1.0.2/MSDK/wpa_supplicant/src/tls\tlsv1_client_write.c **** 
 716:C:/Users/stapi/OneDrive/Desktop/GD32VW553/V1_MQTT_OK/GD32VW55X_Wifi_BLE_SDK/GD32VW55x_RELEASE_V1.0.2/MSDK/wpa_supplicant/src/tls\tlsv1_client_write.c **** 	WPA_PUT_BE24(hs_length, pos - hs_length - 3);
 717:C:/Users/stapi/OneDrive/Desktop/GD32VW553/V1_MQTT_OK/GD32VW55X_Wifi_BLE_SDK/GD32VW55x_RELEASE_V1.0.2/MSDK/wpa_supplicant/src/tls\tlsv1_client_write.c **** 
 718:C:/Users/stapi/OneDrive/Desktop/GD32VW553/V1_MQTT_OK/GD32VW55X_Wifi_BLE_SDK/GD32VW55x_RELEASE_V1.0.2/MSDK/wpa_supplicant/src/tls\tlsv1_client_write.c **** 	if (tlsv1_record_send(&conn->rl, TLS_CONTENT_TYPE_HANDSHAKE,
 719:C:/Users/stapi/OneDrive/Desktop/GD32VW553/V1_MQTT_OK/GD32VW55X_Wifi_BLE_SDK/GD32VW55x_RELEASE_V1.0.2/MSDK/wpa_supplicant/src/tls\tlsv1_client_write.c **** 			      rhdr, end - rhdr, hs_start, pos - hs_start,
 720:C:/Users/stapi/OneDrive/Desktop/GD32VW553/V1_MQTT_OK/GD32VW55X_Wifi_BLE_SDK/GD32VW55x_RELEASE_V1.0.2/MSDK/wpa_supplicant/src/tls\tlsv1_client_write.c **** 			      &rlen) < 0) {
 721:C:/Users/stapi/OneDrive/Desktop/GD32VW553/V1_MQTT_OK/GD32VW55X_Wifi_BLE_SDK/GD32VW55x_RELEASE_V1.0.2/MSDK/wpa_supplicant/src/tls\tlsv1_client_write.c **** 		wpa_printf(MSG_DEBUG, "TLSv1: Failed to generate a record");
 722:C:/Users/stapi/OneDrive/Desktop/GD32VW553/V1_MQTT_OK/GD32VW55X_Wifi_BLE_SDK/GD32VW55x_RELEASE_V1.0.2/MSDK/wpa_supplicant/src/tls\tlsv1_client_write.c **** 		tls_alert(conn, TLS_ALERT_LEVEL_FATAL,
 723:C:/Users/stapi/OneDrive/Desktop/GD32VW553/V1_MQTT_OK/GD32VW55X_Wifi_BLE_SDK/GD32VW55x_RELEASE_V1.0.2/MSDK/wpa_supplicant/src/tls\tlsv1_client_write.c **** 			  TLS_ALERT_INTERNAL_ERROR);
 724:C:/Users/stapi/OneDrive/Desktop/GD32VW553/V1_MQTT_OK/GD32VW55X_Wifi_BLE_SDK/GD32VW55x_RELEASE_V1.0.2/MSDK/wpa_supplicant/src/tls\tlsv1_client_write.c **** 		return -1;
 725:C:/Users/stapi/OneDrive/Desktop/GD32VW553/V1_MQTT_OK/GD32VW55X_Wifi_BLE_SDK/GD32VW55x_RELEASE_V1.0.2/MSDK/wpa_supplicant/src/tls\tlsv1_client_write.c **** 	}
 726:C:/Users/stapi/OneDrive/Desktop/GD32VW553/V1_MQTT_OK/GD32VW55X_Wifi_BLE_SDK/GD32VW55x_RELEASE_V1.0.2/MSDK/wpa_supplicant/src/tls\tlsv1_client_write.c **** 	pos = rhdr + rlen;
 727:C:/Users/stapi/OneDrive/Desktop/GD32VW553/V1_MQTT_OK/GD32VW55X_Wifi_BLE_SDK/GD32VW55x_RELEASE_V1.0.2/MSDK/wpa_supplicant/src/tls\tlsv1_client_write.c **** 
 728:C:/Users/stapi/OneDrive/Desktop/GD32VW553/V1_MQTT_OK/GD32VW55X_Wifi_BLE_SDK/GD32VW55x_RELEASE_V1.0.2/MSDK/wpa_supplicant/src/tls\tlsv1_client_write.c **** 	tls_verify_hash_add(&conn->verify, hs_start, pos - hs_start);
 729:C:/Users/stapi/OneDrive/Desktop/GD32VW553/V1_MQTT_OK/GD32VW55X_Wifi_BLE_SDK/GD32VW55x_RELEASE_V1.0.2/MSDK/wpa_supplicant/src/tls\tlsv1_client_write.c **** 
 730:C:/Users/stapi/OneDrive/Desktop/GD32VW553/V1_MQTT_OK/GD32VW55X_Wifi_BLE_SDK/GD32VW55x_RELEASE_V1.0.2/MSDK/wpa_supplicant/src/tls\tlsv1_client_write.c **** 	*msgpos = pos;
 731:C:/Users/stapi/OneDrive/Desktop/GD32VW553/V1_MQTT_OK/GD32VW55X_Wifi_BLE_SDK/GD32VW55x_RELEASE_V1.0.2/MSDK/wpa_supplicant/src/tls\tlsv1_client_write.c **** 
 732:C:/Users/stapi/OneDrive/Desktop/GD32VW553/V1_MQTT_OK/GD32VW55X_Wifi_BLE_SDK/GD32VW55x_RELEASE_V1.0.2/MSDK/wpa_supplicant/src/tls\tlsv1_client_write.c **** 	return 0;
 733:C:/Users/stapi/OneDrive/Desktop/GD32VW553/V1_MQTT_OK/GD32VW55X_Wifi_BLE_SDK/GD32VW55x_RELEASE_V1.0.2/MSDK/wpa_supplicant/src/tls\tlsv1_client_write.c **** }
 734:C:/Users/stapi/OneDrive/Desktop/GD32VW553/V1_MQTT_OK/GD32VW55X_Wifi_BLE_SDK/GD32VW55x_RELEASE_V1.0.2/MSDK/wpa_supplicant/src/tls\tlsv1_client_write.c **** 
 735:C:/Users/stapi/OneDrive/Desktop/GD32VW553/V1_MQTT_OK/GD32VW55X_Wifi_BLE_SDK/GD32VW55x_RELEASE_V1.0.2/MSDK/wpa_supplicant/src/tls\tlsv1_client_write.c **** 
 736:C:/Users/stapi/OneDrive/Desktop/GD32VW553/V1_MQTT_OK/GD32VW55X_Wifi_BLE_SDK/GD32VW55x_RELEASE_V1.0.2/MSDK/wpa_supplicant/src/tls\tlsv1_client_write.c **** static int tls_write_client_change_cipher_spec(struct tlsv1_client *conn,
 737:C:/Users/stapi/OneDrive/Desktop/GD32VW553/V1_MQTT_OK/GD32VW55X_Wifi_BLE_SDK/GD32VW55x_RELEASE_V1.0.2/MSDK/wpa_supplicant/src/tls\tlsv1_client_write.c **** 					       u8 **msgpos, u8 *end)
 738:C:/Users/stapi/OneDrive/Desktop/GD32VW553/V1_MQTT_OK/GD32VW55X_Wifi_BLE_SDK/GD32VW55x_RELEASE_V1.0.2/MSDK/wpa_supplicant/src/tls\tlsv1_client_write.c **** {
  25              		.loc 1 738 1
  26              		.cfi_startproc
  27              	.LVL0:
  28 0000 17030000 		call	t0,__riscv_save_4
  28      E7020300 
  29              		.cfi_offset 19, -20
  30              		.cfi_offset 18, -16
  31              		.cfi_offset 9, -12
  32              		.cfi_offset 8, -8
  33              		.cfi_offset 1, -4
  34              		.cfi_def_cfa_offset 32
 739:C:/Users/stapi/OneDrive/Desktop/GD32VW553/V1_MQTT_OK/GD32VW55X_Wifi_BLE_SDK/GD32VW55x_RELEASE_V1.0.2/MSDK/wpa_supplicant/src/tls\tlsv1_client_write.c **** 	size_t rlen;
  35              		.loc 1 739 2
 740:C:/Users/stapi/OneDrive/Desktop/GD32VW553/V1_MQTT_OK/GD32VW55X_Wifi_BLE_SDK/GD32VW55x_RELEASE_V1.0.2/MSDK/wpa_supplicant/src/tls\tlsv1_client_write.c **** 	u8 payload[1];
  36              		.loc 1 740 2
 741:C:/Users/stapi/OneDrive/Desktop/GD32VW553/V1_MQTT_OK/GD32VW55X_Wifi_BLE_SDK/GD32VW55x_RELEASE_V1.0.2/MSDK/wpa_supplicant/src/tls\tlsv1_client_write.c **** 
 742:C:/Users/stapi/OneDrive/Desktop/GD32VW553/V1_MQTT_OK/GD32VW55X_Wifi_BLE_SDK/GD32VW55x_RELEASE_V1.0.2/MSDK/wpa_supplicant/src/tls\tlsv1_client_write.c **** 	wpa_printf(MSG_DEBUG, "TLSv1: Send ChangeCipherSpec");
  37              		.loc 1 742 2
 738:C:/Users/stapi/OneDrive/Desktop/GD32VW553/V1_MQTT_OK/GD32VW55X_Wifi_BLE_SDK/GD32VW55x_RELEASE_V1.0.2/MSDK/wpa_supplicant/src/tls\tlsv1_client_write.c **** 	size_t rlen;
  38              		.loc 1 738 1 is_stmt 0
  39 0008 2E84     		mv	s0,a1
  40              		.loc 1 742 2
  41 000a B7050000 		lui	a1,%hi(.LC0)
  42              	.LVL1:
 738:C:/Users/stapi/OneDrive/Desktop/GD32VW553/V1_MQTT_OK/GD32VW55X_Wifi_BLE_SDK/GD32VW55x_RELEASE_V1.0.2/MSDK/wpa_supplicant/src/tls\tlsv1_client_write.c **** 	size_t rlen;
  43              		.loc 1 738 1
  44 000e 4111     		addi	sp,sp,-16
  45              		.cfi_def_cfa_offset 48
 738:C:/Users/stapi/OneDrive/Desktop/GD32VW553/V1_MQTT_OK/GD32VW55X_Wifi_BLE_SDK/GD32VW55x_RELEASE_V1.0.2/MSDK/wpa_supplicant/src/tls\tlsv1_client_write.c **** 	size_t rlen;
  46              		.loc 1 738 1
  47 0010 AA84     		mv	s1,a0
  48              		.loc 1 742 2
  49 0012 93850500 		addi	a1,a1,%lo(.LC0)
  50 0016 0945     		li	a0,2
  51              	.LVL2:
 738:C:/Users/stapi/OneDrive/Desktop/GD32VW553/V1_MQTT_OK/GD32VW55X_Wifi_BLE_SDK/GD32VW55x_RELEASE_V1.0.2/MSDK/wpa_supplicant/src/tls\tlsv1_client_write.c **** 	size_t rlen;
  52              		.loc 1 738 1
  53 0018 3289     		mv	s2,a2
  54              		.loc 1 742 2
  55 001a 97000000 		call	wpa_printf
  55      E7800000 
  56              	.LVL3:
 743:C:/Users/stapi/OneDrive/Desktop/GD32VW553/V1_MQTT_OK/GD32VW55X_Wifi_BLE_SDK/GD32VW55x_RELEASE_V1.0.2/MSDK/wpa_supplicant/src/tls\tlsv1_client_write.c **** 
 744:C:/Users/stapi/OneDrive/Desktop/GD32VW553/V1_MQTT_OK/GD32VW55X_Wifi_BLE_SDK/GD32VW55x_RELEASE_V1.0.2/MSDK/wpa_supplicant/src/tls\tlsv1_client_write.c **** 	payload[0] = TLS_CHANGE_CIPHER_SPEC;
  57              		.loc 1 744 2 is_stmt 1
 745:C:/Users/stapi/OneDrive/Desktop/GD32VW553/V1_MQTT_OK/GD32VW55X_Wifi_BLE_SDK/GD32VW55x_RELEASE_V1.0.2/MSDK/wpa_supplicant/src/tls\tlsv1_client_write.c **** 
 746:C:/Users/stapi/OneDrive/Desktop/GD32VW553/V1_MQTT_OK/GD32VW55X_Wifi_BLE_SDK/GD32VW55x_RELEASE_V1.0.2/MSDK/wpa_supplicant/src/tls\tlsv1_client_write.c **** 	if (tlsv1_record_send(&conn->rl, TLS_CONTENT_TYPE_CHANGE_CIPHER_SPEC,
  58              		.loc 1 746 6 is_stmt 0
  59 0022 1040     		lw	a2,0(s0)
  60 0024 93894400 		addi	s3,s1,4
 744:C:/Users/stapi/OneDrive/Desktop/GD32VW553/V1_MQTT_OK/GD32VW55X_Wifi_BLE_SDK/GD32VW55x_RELEASE_V1.0.2/MSDK/wpa_supplicant/src/tls\tlsv1_client_write.c **** 
  61              		.loc 1 744 13
  62 0028 8547     		li	a5,1
  63              		.loc 1 746 6
  64 002a 1308C100 		addi	a6,sp,12
  65 002e 3800     		addi	a4,sp,8
  66 0030 B306C940 		sub	a3,s2,a2
  67 0034 D145     		li	a1,20
  68 0036 4E85     		mv	a0,s3
 744:C:/Users/stapi/OneDrive/Desktop/GD32VW553/V1_MQTT_OK/GD32VW55X_Wifi_BLE_SDK/GD32VW55x_RELEASE_V1.0.2/MSDK/wpa_supplicant/src/tls\tlsv1_client_write.c **** 
  69              		.loc 1 744 13
  70 0038 2304F100 		sb	a5,8(sp)
  71              		.loc 1 746 2 is_stmt 1
  72              		.loc 1 746 6 is_stmt 0
  73 003c 97000000 		call	tlsv1_record_send
  73      E7800000 
  74              	.LVL4:
  75              		.loc 1 746 5
  76 0044 63590502 		bge	a0,zero,.L2
 747:C:/Users/stapi/OneDrive/Desktop/GD32VW553/V1_MQTT_OK/GD32VW55X_Wifi_BLE_SDK/GD32VW55x_RELEASE_V1.0.2/MSDK/wpa_supplicant/src/tls\tlsv1_client_write.c **** 			      *msgpos, end - *msgpos, payload, sizeof(payload),
 748:C:/Users/stapi/OneDrive/Desktop/GD32VW553/V1_MQTT_OK/GD32VW55X_Wifi_BLE_SDK/GD32VW55x_RELEASE_V1.0.2/MSDK/wpa_supplicant/src/tls\tlsv1_client_write.c **** 			      &rlen) < 0) {
 749:C:/Users/stapi/OneDrive/Desktop/GD32VW553/V1_MQTT_OK/GD32VW55X_Wifi_BLE_SDK/GD32VW55x_RELEASE_V1.0.2/MSDK/wpa_supplicant/src/tls\tlsv1_client_write.c **** 		wpa_printf(MSG_DEBUG, "TLSv1: Failed to create a record");
  77              		.loc 1 749 3 is_stmt 1
  78 0048 B7050000 		lui	a1,%hi(.LC1)
  79 004c 93850500 		addi	a1,a1,%lo(.LC1)
  80              	.L6:
 750:C:/Users/stapi/OneDrive/Desktop/GD32VW553/V1_MQTT_OK/GD32VW55X_Wifi_BLE_SDK/GD32VW55x_RELEASE_V1.0.2/MSDK/wpa_supplicant/src/tls\tlsv1_client_write.c **** 		tls_alert(conn, TLS_ALERT_LEVEL_FATAL,
 751:C:/Users/stapi/OneDrive/Desktop/GD32VW553/V1_MQTT_OK/GD32VW55X_Wifi_BLE_SDK/GD32VW55x_RELEASE_V1.0.2/MSDK/wpa_supplicant/src/tls\tlsv1_client_write.c **** 			  TLS_ALERT_INTERNAL_ERROR);
 752:C:/Users/stapi/OneDrive/Desktop/GD32VW553/V1_MQTT_OK/GD32VW55X_Wifi_BLE_SDK/GD32VW55x_RELEASE_V1.0.2/MSDK/wpa_supplicant/src/tls\tlsv1_client_write.c **** 		return -1;
 753:C:/Users/stapi/OneDrive/Desktop/GD32VW553/V1_MQTT_OK/GD32VW55X_Wifi_BLE_SDK/GD32VW55x_RELEASE_V1.0.2/MSDK/wpa_supplicant/src/tls\tlsv1_client_write.c **** 	}
 754:C:/Users/stapi/OneDrive/Desktop/GD32VW553/V1_MQTT_OK/GD32VW55X_Wifi_BLE_SDK/GD32VW55x_RELEASE_V1.0.2/MSDK/wpa_supplicant/src/tls\tlsv1_client_write.c **** 
 755:C:/Users/stapi/OneDrive/Desktop/GD32VW553/V1_MQTT_OK/GD32VW55X_Wifi_BLE_SDK/GD32VW55x_RELEASE_V1.0.2/MSDK/wpa_supplicant/src/tls\tlsv1_client_write.c **** 	if (tlsv1_record_change_write_cipher(&conn->rl) < 0) {
 756:C:/Users/stapi/OneDrive/Desktop/GD32VW553/V1_MQTT_OK/GD32VW55X_Wifi_BLE_SDK/GD32VW55x_RELEASE_V1.0.2/MSDK/wpa_supplicant/src/tls\tlsv1_client_write.c **** 		wpa_printf(MSG_DEBUG, "TLSv1: Failed to set write cipher for "
  81              		.loc 1 756 3 is_stmt 0
  82 0050 0945     		li	a0,2
  83 0052 97000000 		call	wpa_printf
  83      E7800000 
  84              	.LVL5:
 757:C:/Users/stapi/OneDrive/Desktop/GD32VW553/V1_MQTT_OK/GD32VW55X_Wifi_BLE_SDK/GD32VW55x_RELEASE_V1.0.2/MSDK/wpa_supplicant/src/tls\tlsv1_client_write.c **** 			   "record layer");
 758:C:/Users/stapi/OneDrive/Desktop/GD32VW553/V1_MQTT_OK/GD32VW55X_Wifi_BLE_SDK/GD32VW55x_RELEASE_V1.0.2/MSDK/wpa_supplicant/src/tls\tlsv1_client_write.c **** 		tls_alert(conn, TLS_ALERT_LEVEL_FATAL,
  85              		.loc 1 758 3 is_stmt 1
  86 005a 2685     		mv	a0,s1
  87 005c 13060005 		li	a2,80
  88 0060 8945     		li	a1,2
  89 0062 97000000 		call	tls_alert
  89      E7800000 
  90              	.LVL6:
 759:C:/Users/stapi/OneDrive/Desktop/GD32VW553/V1_MQTT_OK/GD32VW55X_Wifi_BLE_SDK/GD32VW55x_RELEASE_V1.0.2/MSDK/wpa_supplicant/src/tls\tlsv1_client_write.c **** 			  TLS_ALERT_INTERNAL_ERROR);
 760:C:/Users/stapi/OneDrive/Desktop/GD32VW553/V1_MQTT_OK/GD32VW55X_Wifi_BLE_SDK/GD32VW55x_RELEASE_V1.0.2/MSDK/wpa_supplicant/src/tls\tlsv1_client_write.c **** 		return -1;
  91              		.loc 1 760 3
  92              		.loc 1 760 10 is_stmt 0
  93 006a 7D55     		li	a0,-1
  94              	.L1:
 761:C:/Users/stapi/OneDrive/Desktop/GD32VW553/V1_MQTT_OK/GD32VW55X_Wifi_BLE_SDK/GD32VW55x_RELEASE_V1.0.2/MSDK/wpa_supplicant/src/tls\tlsv1_client_write.c **** 	}
 762:C:/Users/stapi/OneDrive/Desktop/GD32VW553/V1_MQTT_OK/GD32VW55X_Wifi_BLE_SDK/GD32VW55x_RELEASE_V1.0.2/MSDK/wpa_supplicant/src/tls\tlsv1_client_write.c **** 
 763:C:/Users/stapi/OneDrive/Desktop/GD32VW553/V1_MQTT_OK/GD32VW55X_Wifi_BLE_SDK/GD32VW55x_RELEASE_V1.0.2/MSDK/wpa_supplicant/src/tls\tlsv1_client_write.c **** 	*msgpos += rlen;
 764:C:/Users/stapi/OneDrive/Desktop/GD32VW553/V1_MQTT_OK/GD32VW55X_Wifi_BLE_SDK/GD32VW55x_RELEASE_V1.0.2/MSDK/wpa_supplicant/src/tls\tlsv1_client_write.c **** 
 765:C:/Users/stapi/OneDrive/Desktop/GD32VW553/V1_MQTT_OK/GD32VW55X_Wifi_BLE_SDK/GD32VW55x_RELEASE_V1.0.2/MSDK/wpa_supplicant/src/tls\tlsv1_client_write.c **** 	return 0;
 766:C:/Users/stapi/OneDrive/Desktop/GD32VW553/V1_MQTT_OK/GD32VW55X_Wifi_BLE_SDK/GD32VW55x_RELEASE_V1.0.2/MSDK/wpa_supplicant/src/tls\tlsv1_client_write.c **** }
  95              		.loc 1 766 1
  96 006c 4101     		addi	sp,sp,16
  97              		.cfi_remember_state
  98              		.cfi_def_cfa_offset 0
  99 006e 17030000 		tail	__riscv_restore_4
  99      67000300 
 100              		.cfi_restore 19
 101              		.cfi_restore 18
 102              		.cfi_restore 9
 103              		.cfi_restore 8
 104              		.cfi_restore 1
 105              		.cfi_def_cfa_offset -32
 106              	.L2:
 107              		.cfi_restore_state
 755:C:/Users/stapi/OneDrive/Desktop/GD32VW553/V1_MQTT_OK/GD32VW55X_Wifi_BLE_SDK/GD32VW55x_RELEASE_V1.0.2/MSDK/wpa_supplicant/src/tls\tlsv1_client_write.c **** 		wpa_printf(MSG_DEBUG, "TLSv1: Failed to set write cipher for "
 108              		.loc 1 755 2 is_stmt 1
 755:C:/Users/stapi/OneDrive/Desktop/GD32VW553/V1_MQTT_OK/GD32VW55X_Wifi_BLE_SDK/GD32VW55x_RELEASE_V1.0.2/MSDK/wpa_supplicant/src/tls\tlsv1_client_write.c **** 		wpa_printf(MSG_DEBUG, "TLSv1: Failed to set write cipher for "
 109              		.loc 1 755 6 is_stmt 0
 110 0076 4E85     		mv	a0,s3
 111 0078 97000000 		call	tlsv1_record_change_write_cipher
 111      E7800000 
 112              	.LVL7:
 755:C:/Users/stapi/OneDrive/Desktop/GD32VW553/V1_MQTT_OK/GD32VW55X_Wifi_BLE_SDK/GD32VW55x_RELEASE_V1.0.2/MSDK/wpa_supplicant/src/tls\tlsv1_client_write.c **** 		wpa_printf(MSG_DEBUG, "TLSv1: Failed to set write cipher for "
 113              		.loc 1 755 5
 114 0080 63570500 		bge	a0,zero,.L4
 756:C:/Users/stapi/OneDrive/Desktop/GD32VW553/V1_MQTT_OK/GD32VW55X_Wifi_BLE_SDK/GD32VW55x_RELEASE_V1.0.2/MSDK/wpa_supplicant/src/tls\tlsv1_client_write.c **** 			   "record layer");
 115              		.loc 1 756 3 is_stmt 1
 116 0084 B7050000 		lui	a1,%hi(.LC2)
 117 0088 93850500 		addi	a1,a1,%lo(.LC2)
 118 008c D1B7     		j	.L6
 119              	.L4:
 763:C:/Users/stapi/OneDrive/Desktop/GD32VW553/V1_MQTT_OK/GD32VW55X_Wifi_BLE_SDK/GD32VW55x_RELEASE_V1.0.2/MSDK/wpa_supplicant/src/tls\tlsv1_client_write.c **** 
 120              		.loc 1 763 2
 763:C:/Users/stapi/OneDrive/Desktop/GD32VW553/V1_MQTT_OK/GD32VW55X_Wifi_BLE_SDK/GD32VW55x_RELEASE_V1.0.2/MSDK/wpa_supplicant/src/tls\tlsv1_client_write.c **** 
 121              		.loc 1 763 10 is_stmt 0
 122 008e 1C40     		lw	a5,0(s0)
 123 0090 3247     		lw	a4,12(sp)
 765:C:/Users/stapi/OneDrive/Desktop/GD32VW553/V1_MQTT_OK/GD32VW55X_Wifi_BLE_SDK/GD32VW55x_RELEASE_V1.0.2/MSDK/wpa_supplicant/src/tls\tlsv1_client_write.c **** }
 124              		.loc 1 765 9
 125 0092 0145     		li	a0,0
 763:C:/Users/stapi/OneDrive/Desktop/GD32VW553/V1_MQTT_OK/GD32VW55X_Wifi_BLE_SDK/GD32VW55x_RELEASE_V1.0.2/MSDK/wpa_supplicant/src/tls\tlsv1_client_write.c **** 
 126              		.loc 1 763 10
 127 0094 BA97     		add	a5,a5,a4
 128 0096 1CC0     		sw	a5,0(s0)
 765:C:/Users/stapi/OneDrive/Desktop/GD32VW553/V1_MQTT_OK/GD32VW55X_Wifi_BLE_SDK/GD32VW55x_RELEASE_V1.0.2/MSDK/wpa_supplicant/src/tls\tlsv1_client_write.c **** }
 129              		.loc 1 765 2 is_stmt 1
 765:C:/Users/stapi/OneDrive/Desktop/GD32VW553/V1_MQTT_OK/GD32VW55X_Wifi_BLE_SDK/GD32VW55x_RELEASE_V1.0.2/MSDK/wpa_supplicant/src/tls\tlsv1_client_write.c **** }
 130              		.loc 1 765 9 is_stmt 0
 131 0098 D1BF     		j	.L1
 132              		.cfi_endproc
 133              	.LFE93:
 135              		.section	.rodata.tls_write_client_finished.str1.4,"aMS",@progbits,1
 136              		.align	2
 137              	.LC3:
 138 0000 544C5376 		.string	"TLSv1: Send Finished"
 138      313A2053 
 138      656E6420 
 138      46696E69 
 138      73686564 
 139 0015 000000   		.align	2
 140              	.LC4:
 141 0018 636C6965 		.string	"client finished"
 141      6E742066 
 141      696E6973 
 141      68656400 
 142              		.align	2
 143              	.LC5:
 144 0028 544C5376 		.string	"TLSv1: Failed to generate verify_data"
 144      313A2046 
 144      61696C65 
 144      6420746F 
 144      2067656E 
 145 004e 0000     		.align	2
 146              	.LC6:
 147 0050 544C5376 		.string	"TLSv1: verify_data (client)"
 147      313A2076 
 147      65726966 
 147      795F6461 
 147      74612028 
 148              		.section	.text.tls_write_client_finished,"ax",@progbits
 149              		.align	1
 151              	tls_write_client_finished:
 152              	.LFB94:
 767:C:/Users/stapi/OneDrive/Desktop/GD32VW553/V1_MQTT_OK/GD32VW55X_Wifi_BLE_SDK/GD32VW55x_RELEASE_V1.0.2/MSDK/wpa_supplicant/src/tls\tlsv1_client_write.c **** 
 768:C:/Users/stapi/OneDrive/Desktop/GD32VW553/V1_MQTT_OK/GD32VW55X_Wifi_BLE_SDK/GD32VW55x_RELEASE_V1.0.2/MSDK/wpa_supplicant/src/tls\tlsv1_client_write.c **** 
 769:C:/Users/stapi/OneDrive/Desktop/GD32VW553/V1_MQTT_OK/GD32VW55X_Wifi_BLE_SDK/GD32VW55x_RELEASE_V1.0.2/MSDK/wpa_supplicant/src/tls\tlsv1_client_write.c **** static int tls_write_client_finished(struct tlsv1_client *conn,
 770:C:/Users/stapi/OneDrive/Desktop/GD32VW553/V1_MQTT_OK/GD32VW55X_Wifi_BLE_SDK/GD32VW55x_RELEASE_V1.0.2/MSDK/wpa_supplicant/src/tls\tlsv1_client_write.c **** 				     u8 **msgpos, u8 *end)
 771:C:/Users/stapi/OneDrive/Desktop/GD32VW553/V1_MQTT_OK/GD32VW55X_Wifi_BLE_SDK/GD32VW55x_RELEASE_V1.0.2/MSDK/wpa_supplicant/src/tls\tlsv1_client_write.c **** {
 153              		.loc 1 771 1 is_stmt 1
 154              		.cfi_startproc
 155              	.LVL8:
 156 0000 17030000 		call	t0,__riscv_save_4
 156      E7020300 
 157              		.cfi_offset 19, -20
 158              		.cfi_offset 18, -16
 159              		.cfi_offset 9, -12
 160              		.cfi_offset 8, -8
 161              		.cfi_offset 1, -4
 162              		.cfi_def_cfa_offset 32
 772:C:/Users/stapi/OneDrive/Desktop/GD32VW553/V1_MQTT_OK/GD32VW55X_Wifi_BLE_SDK/GD32VW55x_RELEASE_V1.0.2/MSDK/wpa_supplicant/src/tls\tlsv1_client_write.c **** 	u8 *pos, *hs_start;
 163              		.loc 1 772 2
 773:C:/Users/stapi/OneDrive/Desktop/GD32VW553/V1_MQTT_OK/GD32VW55X_Wifi_BLE_SDK/GD32VW55x_RELEASE_V1.0.2/MSDK/wpa_supplicant/src/tls\tlsv1_client_write.c **** 	size_t rlen, hlen;
 164              		.loc 1 773 2
 774:C:/Users/stapi/OneDrive/Desktop/GD32VW553/V1_MQTT_OK/GD32VW55X_Wifi_BLE_SDK/GD32VW55x_RELEASE_V1.0.2/MSDK/wpa_supplicant/src/tls\tlsv1_client_write.c **** 	u8 verify_data[1 + 3 + TLS_VERIFY_DATA_LEN];
 165              		.loc 1 774 2
 775:C:/Users/stapi/OneDrive/Desktop/GD32VW553/V1_MQTT_OK/GD32VW55X_Wifi_BLE_SDK/GD32VW55x_RELEASE_V1.0.2/MSDK/wpa_supplicant/src/tls\tlsv1_client_write.c **** 	u8 hash[MD5_MAC_LEN + SHA1_MAC_LEN];
 166              		.loc 1 775 2
 776:C:/Users/stapi/OneDrive/Desktop/GD32VW553/V1_MQTT_OK/GD32VW55X_Wifi_BLE_SDK/GD32VW55x_RELEASE_V1.0.2/MSDK/wpa_supplicant/src/tls\tlsv1_client_write.c **** 
 777:C:/Users/stapi/OneDrive/Desktop/GD32VW553/V1_MQTT_OK/GD32VW55X_Wifi_BLE_SDK/GD32VW55x_RELEASE_V1.0.2/MSDK/wpa_supplicant/src/tls\tlsv1_client_write.c **** 	wpa_printf(MSG_DEBUG, "TLSv1: Send Finished");
 167              		.loc 1 777 2
 771:C:/Users/stapi/OneDrive/Desktop/GD32VW553/V1_MQTT_OK/GD32VW55X_Wifi_BLE_SDK/GD32VW55x_RELEASE_V1.0.2/MSDK/wpa_supplicant/src/tls\tlsv1_client_write.c **** 	u8 *pos, *hs_start;
 168              		.loc 1 771 1 is_stmt 0
 169 0008 2E89     		mv	s2,a1
 170              		.loc 1 777 2
 171 000a B7050000 		lui	a1,%hi(.LC3)
 172              	.LVL9:
 771:C:/Users/stapi/OneDrive/Desktop/GD32VW553/V1_MQTT_OK/GD32VW55X_Wifi_BLE_SDK/GD32VW55x_RELEASE_V1.0.2/MSDK/wpa_supplicant/src/tls\tlsv1_client_write.c **** 	u8 *pos, *hs_start;
 173              		.loc 1 771 1
 174 000e 3971     		addi	sp,sp,-64
 175              		.cfi_def_cfa_offset 96
 771:C:/Users/stapi/OneDrive/Desktop/GD32VW553/V1_MQTT_OK/GD32VW55X_Wifi_BLE_SDK/GD32VW55x_RELEASE_V1.0.2/MSDK/wpa_supplicant/src/tls\tlsv1_client_write.c **** 	u8 *pos, *hs_start;
 176              		.loc 1 771 1
 177 0010 2A84     		mv	s0,a0
 178              		.loc 1 777 2
 179 0012 93850500 		addi	a1,a1,%lo(.LC3)
 180 0016 0945     		li	a0,2
 181              	.LVL10:
 771:C:/Users/stapi/OneDrive/Desktop/GD32VW553/V1_MQTT_OK/GD32VW55X_Wifi_BLE_SDK/GD32VW55x_RELEASE_V1.0.2/MSDK/wpa_supplicant/src/tls\tlsv1_client_write.c **** 	u8 *pos, *hs_start;
 182              		.loc 1 771 1
 183 0018 B289     		mv	s3,a2
 184              		.loc 1 777 2
 185 001a 97000000 		call	wpa_printf
 185      E7800000 
 186              	.LVL11:
 778:C:/Users/stapi/OneDrive/Desktop/GD32VW553/V1_MQTT_OK/GD32VW55X_Wifi_BLE_SDK/GD32VW55x_RELEASE_V1.0.2/MSDK/wpa_supplicant/src/tls\tlsv1_client_write.c **** 
 779:C:/Users/stapi/OneDrive/Desktop/GD32VW553/V1_MQTT_OK/GD32VW55X_Wifi_BLE_SDK/GD32VW55x_RELEASE_V1.0.2/MSDK/wpa_supplicant/src/tls\tlsv1_client_write.c **** 	/* Encrypted Handshake Message: Finished */
 780:C:/Users/stapi/OneDrive/Desktop/GD32VW553/V1_MQTT_OK/GD32VW55X_Wifi_BLE_SDK/GD32VW55x_RELEASE_V1.0.2/MSDK/wpa_supplicant/src/tls\tlsv1_client_write.c **** 
 781:C:/Users/stapi/OneDrive/Desktop/GD32VW553/V1_MQTT_OK/GD32VW55X_Wifi_BLE_SDK/GD32VW55x_RELEASE_V1.0.2/MSDK/wpa_supplicant/src/tls\tlsv1_client_write.c **** #ifdef CONFIG_TLSV12
 782:C:/Users/stapi/OneDrive/Desktop/GD32VW553/V1_MQTT_OK/GD32VW55X_Wifi_BLE_SDK/GD32VW55x_RELEASE_V1.0.2/MSDK/wpa_supplicant/src/tls\tlsv1_client_write.c **** 	if (conn->rl.tls_version >= TLS_VERSION_1_2) {
 783:C:/Users/stapi/OneDrive/Desktop/GD32VW553/V1_MQTT_OK/GD32VW55X_Wifi_BLE_SDK/GD32VW55x_RELEASE_V1.0.2/MSDK/wpa_supplicant/src/tls\tlsv1_client_write.c **** 		hlen = SHA256_MAC_LEN;
 784:C:/Users/stapi/OneDrive/Desktop/GD32VW553/V1_MQTT_OK/GD32VW55X_Wifi_BLE_SDK/GD32VW55x_RELEASE_V1.0.2/MSDK/wpa_supplicant/src/tls\tlsv1_client_write.c **** 		if (conn->verify.sha256_client == NULL ||
 785:C:/Users/stapi/OneDrive/Desktop/GD32VW553/V1_MQTT_OK/GD32VW55X_Wifi_BLE_SDK/GD32VW55x_RELEASE_V1.0.2/MSDK/wpa_supplicant/src/tls\tlsv1_client_write.c **** 		    crypto_hash_finish(conn->verify.sha256_client, hash, &hlen)
 786:C:/Users/stapi/OneDrive/Desktop/GD32VW553/V1_MQTT_OK/GD32VW55X_Wifi_BLE_SDK/GD32VW55x_RELEASE_V1.0.2/MSDK/wpa_supplicant/src/tls\tlsv1_client_write.c **** 		    < 0) {
 787:C:/Users/stapi/OneDrive/Desktop/GD32VW553/V1_MQTT_OK/GD32VW55X_Wifi_BLE_SDK/GD32VW55x_RELEASE_V1.0.2/MSDK/wpa_supplicant/src/tls\tlsv1_client_write.c **** 			tls_alert(conn, TLS_ALERT_LEVEL_FATAL,
 788:C:/Users/stapi/OneDrive/Desktop/GD32VW553/V1_MQTT_OK/GD32VW55X_Wifi_BLE_SDK/GD32VW55x_RELEASE_V1.0.2/MSDK/wpa_supplicant/src/tls\tlsv1_client_write.c **** 				  TLS_ALERT_INTERNAL_ERROR);
 789:C:/Users/stapi/OneDrive/Desktop/GD32VW553/V1_MQTT_OK/GD32VW55X_Wifi_BLE_SDK/GD32VW55x_RELEASE_V1.0.2/MSDK/wpa_supplicant/src/tls\tlsv1_client_write.c **** 			conn->verify.sha256_client = NULL;
 790:C:/Users/stapi/OneDrive/Desktop/GD32VW553/V1_MQTT_OK/GD32VW55X_Wifi_BLE_SDK/GD32VW55x_RELEASE_V1.0.2/MSDK/wpa_supplicant/src/tls\tlsv1_client_write.c **** 			return -1;
 791:C:/Users/stapi/OneDrive/Desktop/GD32VW553/V1_MQTT_OK/GD32VW55X_Wifi_BLE_SDK/GD32VW55x_RELEASE_V1.0.2/MSDK/wpa_supplicant/src/tls\tlsv1_client_write.c **** 		}
 792:C:/Users/stapi/OneDrive/Desktop/GD32VW553/V1_MQTT_OK/GD32VW55X_Wifi_BLE_SDK/GD32VW55x_RELEASE_V1.0.2/MSDK/wpa_supplicant/src/tls\tlsv1_client_write.c **** 		conn->verify.sha256_client = NULL;
 793:C:/Users/stapi/OneDrive/Desktop/GD32VW553/V1_MQTT_OK/GD32VW55X_Wifi_BLE_SDK/GD32VW55x_RELEASE_V1.0.2/MSDK/wpa_supplicant/src/tls\tlsv1_client_write.c **** 	} else {
 794:C:/Users/stapi/OneDrive/Desktop/GD32VW553/V1_MQTT_OK/GD32VW55X_Wifi_BLE_SDK/GD32VW55x_RELEASE_V1.0.2/MSDK/wpa_supplicant/src/tls\tlsv1_client_write.c **** #endif /* CONFIG_TLSV12 */
 795:C:/Users/stapi/OneDrive/Desktop/GD32VW553/V1_MQTT_OK/GD32VW55X_Wifi_BLE_SDK/GD32VW55x_RELEASE_V1.0.2/MSDK/wpa_supplicant/src/tls\tlsv1_client_write.c **** 
 796:C:/Users/stapi/OneDrive/Desktop/GD32VW553/V1_MQTT_OK/GD32VW55X_Wifi_BLE_SDK/GD32VW55x_RELEASE_V1.0.2/MSDK/wpa_supplicant/src/tls\tlsv1_client_write.c **** 	hlen = MD5_MAC_LEN;
 187              		.loc 1 796 2 is_stmt 1
 797:C:/Users/stapi/OneDrive/Desktop/GD32VW553/V1_MQTT_OK/GD32VW55X_Wifi_BLE_SDK/GD32VW55x_RELEASE_V1.0.2/MSDK/wpa_supplicant/src/tls\tlsv1_client_write.c **** 	if (conn->verify.md5_client == NULL ||
 188              		.loc 1 797 18 is_stmt 0
 189 0022 03250418 		lw	a0,384(s0)
 796:C:/Users/stapi/OneDrive/Desktop/GD32VW553/V1_MQTT_OK/GD32VW55X_Wifi_BLE_SDK/GD32VW55x_RELEASE_V1.0.2/MSDK/wpa_supplicant/src/tls\tlsv1_client_write.c **** 	if (conn->verify.md5_client == NULL ||
 190              		.loc 1 796 7
 191 0026 C147     		li	a5,16
 192 0028 3EC4     		sw	a5,8(sp)
 193              		.loc 1 797 2 is_stmt 1
 194              		.loc 1 797 5 is_stmt 0
 195 002a 05ED     		bne	a0,zero,.L8
 196              	.L10:
 798:C:/Users/stapi/OneDrive/Desktop/GD32VW553/V1_MQTT_OK/GD32VW55X_Wifi_BLE_SDK/GD32VW55x_RELEASE_V1.0.2/MSDK/wpa_supplicant/src/tls\tlsv1_client_write.c **** 	    crypto_hash_finish(conn->verify.md5_client, hash, &hlen) < 0) {
 799:C:/Users/stapi/OneDrive/Desktop/GD32VW553/V1_MQTT_OK/GD32VW55X_Wifi_BLE_SDK/GD32VW55x_RELEASE_V1.0.2/MSDK/wpa_supplicant/src/tls\tlsv1_client_write.c **** 		tls_alert(conn, TLS_ALERT_LEVEL_FATAL,
 197              		.loc 1 799 3 is_stmt 1
 198 002c 13060005 		li	a2,80
 199 0030 8945     		li	a1,2
 200 0032 2285     		mv	a0,s0
 201 0034 97000000 		call	tls_alert
 201      E7800000 
 202              	.LVL12:
 800:C:/Users/stapi/OneDrive/Desktop/GD32VW553/V1_MQTT_OK/GD32VW55X_Wifi_BLE_SDK/GD32VW55x_RELEASE_V1.0.2/MSDK/wpa_supplicant/src/tls\tlsv1_client_write.c **** 			  TLS_ALERT_INTERNAL_ERROR);
 801:C:/Users/stapi/OneDrive/Desktop/GD32VW553/V1_MQTT_OK/GD32VW55X_Wifi_BLE_SDK/GD32VW55x_RELEASE_V1.0.2/MSDK/wpa_supplicant/src/tls\tlsv1_client_write.c **** 		conn->verify.md5_client = NULL;
 203              		.loc 1 801 3
 802:C:/Users/stapi/OneDrive/Desktop/GD32VW553/V1_MQTT_OK/GD32VW55X_Wifi_BLE_SDK/GD32VW55x_RELEASE_V1.0.2/MSDK/wpa_supplicant/src/tls\tlsv1_client_write.c **** 		crypto_hash_finish(conn->verify.sha1_client, NULL, NULL);
 204              		.loc 1 802 3 is_stmt 0
 205 003c 03254418 		lw	a0,388(s0)
 801:C:/Users/stapi/OneDrive/Desktop/GD32VW553/V1_MQTT_OK/GD32VW55X_Wifi_BLE_SDK/GD32VW55x_RELEASE_V1.0.2/MSDK/wpa_supplicant/src/tls\tlsv1_client_write.c **** 		crypto_hash_finish(conn->verify.sha1_client, NULL, NULL);
 206              		.loc 1 801 27
 207 0040 23200418 		sw	zero,384(s0)
 208              		.loc 1 802 3 is_stmt 1
 209 0044 0146     		li	a2,0
 210 0046 8145     		li	a1,0
 211 0048 97000000 		call	crypto_hash_finish
 211      E7800000 
 212              	.LVL13:
 803:C:/Users/stapi/OneDrive/Desktop/GD32VW553/V1_MQTT_OK/GD32VW55X_Wifi_BLE_SDK/GD32VW55x_RELEASE_V1.0.2/MSDK/wpa_supplicant/src/tls\tlsv1_client_write.c **** 		conn->verify.sha1_client = NULL;
 213              		.loc 1 803 3
 214              		.loc 1 803 28 is_stmt 0
 215 0050 23220418 		sw	zero,388(s0)
 804:C:/Users/stapi/OneDrive/Desktop/GD32VW553/V1_MQTT_OK/GD32VW55X_Wifi_BLE_SDK/GD32VW55x_RELEASE_V1.0.2/MSDK/wpa_supplicant/src/tls\tlsv1_client_write.c **** 		return -1;
 216              		.loc 1 804 3 is_stmt 1
 217              	.L17:
 805:C:/Users/stapi/OneDrive/Desktop/GD32VW553/V1_MQTT_OK/GD32VW55X_Wifi_BLE_SDK/GD32VW55x_RELEASE_V1.0.2/MSDK/wpa_supplicant/src/tls\tlsv1_client_write.c **** 	}
 806:C:/Users/stapi/OneDrive/Desktop/GD32VW553/V1_MQTT_OK/GD32VW55X_Wifi_BLE_SDK/GD32VW55x_RELEASE_V1.0.2/MSDK/wpa_supplicant/src/tls\tlsv1_client_write.c **** 	conn->verify.md5_client = NULL;
 807:C:/Users/stapi/OneDrive/Desktop/GD32VW553/V1_MQTT_OK/GD32VW55X_Wifi_BLE_SDK/GD32VW55x_RELEASE_V1.0.2/MSDK/wpa_supplicant/src/tls\tlsv1_client_write.c **** 	hlen = SHA1_MAC_LEN;
 808:C:/Users/stapi/OneDrive/Desktop/GD32VW553/V1_MQTT_OK/GD32VW55X_Wifi_BLE_SDK/GD32VW55x_RELEASE_V1.0.2/MSDK/wpa_supplicant/src/tls\tlsv1_client_write.c **** 	if (conn->verify.sha1_client == NULL ||
 809:C:/Users/stapi/OneDrive/Desktop/GD32VW553/V1_MQTT_OK/GD32VW55X_Wifi_BLE_SDK/GD32VW55x_RELEASE_V1.0.2/MSDK/wpa_supplicant/src/tls\tlsv1_client_write.c **** 	    crypto_hash_finish(conn->verify.sha1_client, hash + MD5_MAC_LEN,
 810:C:/Users/stapi/OneDrive/Desktop/GD32VW553/V1_MQTT_OK/GD32VW55X_Wifi_BLE_SDK/GD32VW55x_RELEASE_V1.0.2/MSDK/wpa_supplicant/src/tls\tlsv1_client_write.c **** 			       &hlen) < 0) {
 811:C:/Users/stapi/OneDrive/Desktop/GD32VW553/V1_MQTT_OK/GD32VW55X_Wifi_BLE_SDK/GD32VW55x_RELEASE_V1.0.2/MSDK/wpa_supplicant/src/tls\tlsv1_client_write.c **** 		conn->verify.sha1_client = NULL;
 812:C:/Users/stapi/OneDrive/Desktop/GD32VW553/V1_MQTT_OK/GD32VW55X_Wifi_BLE_SDK/GD32VW55x_RELEASE_V1.0.2/MSDK/wpa_supplicant/src/tls\tlsv1_client_write.c **** 		tls_alert(conn, TLS_ALERT_LEVEL_FATAL,
 813:C:/Users/stapi/OneDrive/Desktop/GD32VW553/V1_MQTT_OK/GD32VW55X_Wifi_BLE_SDK/GD32VW55x_RELEASE_V1.0.2/MSDK/wpa_supplicant/src/tls\tlsv1_client_write.c **** 			  TLS_ALERT_INTERNAL_ERROR);
 814:C:/Users/stapi/OneDrive/Desktop/GD32VW553/V1_MQTT_OK/GD32VW55X_Wifi_BLE_SDK/GD32VW55x_RELEASE_V1.0.2/MSDK/wpa_supplicant/src/tls\tlsv1_client_write.c **** 		return -1;
 815:C:/Users/stapi/OneDrive/Desktop/GD32VW553/V1_MQTT_OK/GD32VW55X_Wifi_BLE_SDK/GD32VW55x_RELEASE_V1.0.2/MSDK/wpa_supplicant/src/tls\tlsv1_client_write.c **** 	}
 816:C:/Users/stapi/OneDrive/Desktop/GD32VW553/V1_MQTT_OK/GD32VW55X_Wifi_BLE_SDK/GD32VW55x_RELEASE_V1.0.2/MSDK/wpa_supplicant/src/tls\tlsv1_client_write.c **** 	conn->verify.sha1_client = NULL;
 817:C:/Users/stapi/OneDrive/Desktop/GD32VW553/V1_MQTT_OK/GD32VW55X_Wifi_BLE_SDK/GD32VW55x_RELEASE_V1.0.2/MSDK/wpa_supplicant/src/tls\tlsv1_client_write.c **** 	hlen = MD5_MAC_LEN + SHA1_MAC_LEN;
 818:C:/Users/stapi/OneDrive/Desktop/GD32VW553/V1_MQTT_OK/GD32VW55X_Wifi_BLE_SDK/GD32VW55x_RELEASE_V1.0.2/MSDK/wpa_supplicant/src/tls\tlsv1_client_write.c **** 
 819:C:/Users/stapi/OneDrive/Desktop/GD32VW553/V1_MQTT_OK/GD32VW55X_Wifi_BLE_SDK/GD32VW55x_RELEASE_V1.0.2/MSDK/wpa_supplicant/src/tls\tlsv1_client_write.c **** #ifdef CONFIG_TLSV12
 820:C:/Users/stapi/OneDrive/Desktop/GD32VW553/V1_MQTT_OK/GD32VW55X_Wifi_BLE_SDK/GD32VW55x_RELEASE_V1.0.2/MSDK/wpa_supplicant/src/tls\tlsv1_client_write.c **** 	}
 821:C:/Users/stapi/OneDrive/Desktop/GD32VW553/V1_MQTT_OK/GD32VW55X_Wifi_BLE_SDK/GD32VW55x_RELEASE_V1.0.2/MSDK/wpa_supplicant/src/tls\tlsv1_client_write.c **** #endif /* CONFIG_TLSV12 */
 822:C:/Users/stapi/OneDrive/Desktop/GD32VW553/V1_MQTT_OK/GD32VW55X_Wifi_BLE_SDK/GD32VW55x_RELEASE_V1.0.2/MSDK/wpa_supplicant/src/tls\tlsv1_client_write.c **** 
 823:C:/Users/stapi/OneDrive/Desktop/GD32VW553/V1_MQTT_OK/GD32VW55X_Wifi_BLE_SDK/GD32VW55x_RELEASE_V1.0.2/MSDK/wpa_supplicant/src/tls\tlsv1_client_write.c **** 	if (tls_prf(conn->rl.tls_version,
 824:C:/Users/stapi/OneDrive/Desktop/GD32VW553/V1_MQTT_OK/GD32VW55X_Wifi_BLE_SDK/GD32VW55x_RELEASE_V1.0.2/MSDK/wpa_supplicant/src/tls\tlsv1_client_write.c **** 		    conn->master_secret, TLS_MASTER_SECRET_LEN,
 825:C:/Users/stapi/OneDrive/Desktop/GD32VW553/V1_MQTT_OK/GD32VW55X_Wifi_BLE_SDK/GD32VW55x_RELEASE_V1.0.2/MSDK/wpa_supplicant/src/tls\tlsv1_client_write.c **** 		    "client finished", hash, hlen,
 826:C:/Users/stapi/OneDrive/Desktop/GD32VW553/V1_MQTT_OK/GD32VW55X_Wifi_BLE_SDK/GD32VW55x_RELEASE_V1.0.2/MSDK/wpa_supplicant/src/tls\tlsv1_client_write.c **** 		    verify_data + 1 + 3, TLS_VERIFY_DATA_LEN)) {
 827:C:/Users/stapi/OneDrive/Desktop/GD32VW553/V1_MQTT_OK/GD32VW55X_Wifi_BLE_SDK/GD32VW55x_RELEASE_V1.0.2/MSDK/wpa_supplicant/src/tls\tlsv1_client_write.c **** 		wpa_printf(MSG_DEBUG, "TLSv1: Failed to generate verify_data");
 828:C:/Users/stapi/OneDrive/Desktop/GD32VW553/V1_MQTT_OK/GD32VW55X_Wifi_BLE_SDK/GD32VW55x_RELEASE_V1.0.2/MSDK/wpa_supplicant/src/tls\tlsv1_client_write.c **** 		tls_alert(conn, TLS_ALERT_LEVEL_FATAL,
 829:C:/Users/stapi/OneDrive/Desktop/GD32VW553/V1_MQTT_OK/GD32VW55X_Wifi_BLE_SDK/GD32VW55x_RELEASE_V1.0.2/MSDK/wpa_supplicant/src/tls\tlsv1_client_write.c **** 			  TLS_ALERT_INTERNAL_ERROR);
 830:C:/Users/stapi/OneDrive/Desktop/GD32VW553/V1_MQTT_OK/GD32VW55X_Wifi_BLE_SDK/GD32VW55x_RELEASE_V1.0.2/MSDK/wpa_supplicant/src/tls\tlsv1_client_write.c **** 		return -1;
 831:C:/Users/stapi/OneDrive/Desktop/GD32VW553/V1_MQTT_OK/GD32VW55X_Wifi_BLE_SDK/GD32VW55x_RELEASE_V1.0.2/MSDK/wpa_supplicant/src/tls\tlsv1_client_write.c **** 	}
 832:C:/Users/stapi/OneDrive/Desktop/GD32VW553/V1_MQTT_OK/GD32VW55X_Wifi_BLE_SDK/GD32VW55x_RELEASE_V1.0.2/MSDK/wpa_supplicant/src/tls\tlsv1_client_write.c **** 	wpa_hexdump_key(MSG_DEBUG, "TLSv1: verify_data (client)",
 833:C:/Users/stapi/OneDrive/Desktop/GD32VW553/V1_MQTT_OK/GD32VW55X_Wifi_BLE_SDK/GD32VW55x_RELEASE_V1.0.2/MSDK/wpa_supplicant/src/tls\tlsv1_client_write.c **** 			verify_data + 1 + 3, TLS_VERIFY_DATA_LEN);
 834:C:/Users/stapi/OneDrive/Desktop/GD32VW553/V1_MQTT_OK/GD32VW55X_Wifi_BLE_SDK/GD32VW55x_RELEASE_V1.0.2/MSDK/wpa_supplicant/src/tls\tlsv1_client_write.c **** 
 835:C:/Users/stapi/OneDrive/Desktop/GD32VW553/V1_MQTT_OK/GD32VW55X_Wifi_BLE_SDK/GD32VW55x_RELEASE_V1.0.2/MSDK/wpa_supplicant/src/tls\tlsv1_client_write.c **** 	/* Handshake */
 836:C:/Users/stapi/OneDrive/Desktop/GD32VW553/V1_MQTT_OK/GD32VW55X_Wifi_BLE_SDK/GD32VW55x_RELEASE_V1.0.2/MSDK/wpa_supplicant/src/tls\tlsv1_client_write.c **** 	pos = hs_start = verify_data;
 837:C:/Users/stapi/OneDrive/Desktop/GD32VW553/V1_MQTT_OK/GD32VW55X_Wifi_BLE_SDK/GD32VW55x_RELEASE_V1.0.2/MSDK/wpa_supplicant/src/tls\tlsv1_client_write.c **** 	/* HandshakeType msg_type */
 838:C:/Users/stapi/OneDrive/Desktop/GD32VW553/V1_MQTT_OK/GD32VW55X_Wifi_BLE_SDK/GD32VW55x_RELEASE_V1.0.2/MSDK/wpa_supplicant/src/tls\tlsv1_client_write.c **** 	*pos++ = TLS_HANDSHAKE_TYPE_FINISHED;
 839:C:/Users/stapi/OneDrive/Desktop/GD32VW553/V1_MQTT_OK/GD32VW55X_Wifi_BLE_SDK/GD32VW55x_RELEASE_V1.0.2/MSDK/wpa_supplicant/src/tls\tlsv1_client_write.c **** 	/* uint24 length */
 840:C:/Users/stapi/OneDrive/Desktop/GD32VW553/V1_MQTT_OK/GD32VW55X_Wifi_BLE_SDK/GD32VW55x_RELEASE_V1.0.2/MSDK/wpa_supplicant/src/tls\tlsv1_client_write.c **** 	WPA_PUT_BE24(pos, TLS_VERIFY_DATA_LEN);
 841:C:/Users/stapi/OneDrive/Desktop/GD32VW553/V1_MQTT_OK/GD32VW55X_Wifi_BLE_SDK/GD32VW55x_RELEASE_V1.0.2/MSDK/wpa_supplicant/src/tls\tlsv1_client_write.c **** 	pos += 3;
 842:C:/Users/stapi/OneDrive/Desktop/GD32VW553/V1_MQTT_OK/GD32VW55X_Wifi_BLE_SDK/GD32VW55x_RELEASE_V1.0.2/MSDK/wpa_supplicant/src/tls\tlsv1_client_write.c **** 	pos += TLS_VERIFY_DATA_LEN; /* verify_data already in place */
 843:C:/Users/stapi/OneDrive/Desktop/GD32VW553/V1_MQTT_OK/GD32VW55X_Wifi_BLE_SDK/GD32VW55x_RELEASE_V1.0.2/MSDK/wpa_supplicant/src/tls\tlsv1_client_write.c **** 	tls_verify_hash_add(&conn->verify, hs_start, pos - hs_start);
 844:C:/Users/stapi/OneDrive/Desktop/GD32VW553/V1_MQTT_OK/GD32VW55X_Wifi_BLE_SDK/GD32VW55x_RELEASE_V1.0.2/MSDK/wpa_supplicant/src/tls\tlsv1_client_write.c **** 
 845:C:/Users/stapi/OneDrive/Desktop/GD32VW553/V1_MQTT_OK/GD32VW55X_Wifi_BLE_SDK/GD32VW55x_RELEASE_V1.0.2/MSDK/wpa_supplicant/src/tls\tlsv1_client_write.c **** 	if (tlsv1_record_send(&conn->rl, TLS_CONTENT_TYPE_HANDSHAKE,
 846:C:/Users/stapi/OneDrive/Desktop/GD32VW553/V1_MQTT_OK/GD32VW55X_Wifi_BLE_SDK/GD32VW55x_RELEASE_V1.0.2/MSDK/wpa_supplicant/src/tls\tlsv1_client_write.c **** 			      *msgpos, end - *msgpos, hs_start, pos - hs_start,
 847:C:/Users/stapi/OneDrive/Desktop/GD32VW553/V1_MQTT_OK/GD32VW55X_Wifi_BLE_SDK/GD32VW55x_RELEASE_V1.0.2/MSDK/wpa_supplicant/src/tls\tlsv1_client_write.c **** 			      &rlen) < 0) {
 848:C:/Users/stapi/OneDrive/Desktop/GD32VW553/V1_MQTT_OK/GD32VW55X_Wifi_BLE_SDK/GD32VW55x_RELEASE_V1.0.2/MSDK/wpa_supplicant/src/tls\tlsv1_client_write.c **** 		wpa_printf(MSG_DEBUG, "TLSv1: Failed to create a record");
 849:C:/Users/stapi/OneDrive/Desktop/GD32VW553/V1_MQTT_OK/GD32VW55X_Wifi_BLE_SDK/GD32VW55x_RELEASE_V1.0.2/MSDK/wpa_supplicant/src/tls\tlsv1_client_write.c **** 		tls_alert(conn, TLS_ALERT_LEVEL_FATAL,
 850:C:/Users/stapi/OneDrive/Desktop/GD32VW553/V1_MQTT_OK/GD32VW55X_Wifi_BLE_SDK/GD32VW55x_RELEASE_V1.0.2/MSDK/wpa_supplicant/src/tls\tlsv1_client_write.c **** 			  TLS_ALERT_INTERNAL_ERROR);
 851:C:/Users/stapi/OneDrive/Desktop/GD32VW553/V1_MQTT_OK/GD32VW55X_Wifi_BLE_SDK/GD32VW55x_RELEASE_V1.0.2/MSDK/wpa_supplicant/src/tls\tlsv1_client_write.c **** 		return -1;
 218              		.loc 1 851 3
 219              		.loc 1 851 10 is_stmt 0
 220 0054 FD54     		li	s1,-1
 221              	.L7:
 852:C:/Users/stapi/OneDrive/Desktop/GD32VW553/V1_MQTT_OK/GD32VW55X_Wifi_BLE_SDK/GD32VW55x_RELEASE_V1.0.2/MSDK/wpa_supplicant/src/tls\tlsv1_client_write.c **** 	}
 853:C:/Users/stapi/OneDrive/Desktop/GD32VW553/V1_MQTT_OK/GD32VW55X_Wifi_BLE_SDK/GD32VW55x_RELEASE_V1.0.2/MSDK/wpa_supplicant/src/tls\tlsv1_client_write.c **** 
 854:C:/Users/stapi/OneDrive/Desktop/GD32VW553/V1_MQTT_OK/GD32VW55X_Wifi_BLE_SDK/GD32VW55x_RELEASE_V1.0.2/MSDK/wpa_supplicant/src/tls\tlsv1_client_write.c **** 	*msgpos += rlen;
 855:C:/Users/stapi/OneDrive/Desktop/GD32VW553/V1_MQTT_OK/GD32VW55X_Wifi_BLE_SDK/GD32VW55x_RELEASE_V1.0.2/MSDK/wpa_supplicant/src/tls\tlsv1_client_write.c **** 
 856:C:/Users/stapi/OneDrive/Desktop/GD32VW553/V1_MQTT_OK/GD32VW55X_Wifi_BLE_SDK/GD32VW55x_RELEASE_V1.0.2/MSDK/wpa_supplicant/src/tls\tlsv1_client_write.c **** 	return 0;
 857:C:/Users/stapi/OneDrive/Desktop/GD32VW553/V1_MQTT_OK/GD32VW55X_Wifi_BLE_SDK/GD32VW55x_RELEASE_V1.0.2/MSDK/wpa_supplicant/src/tls\tlsv1_client_write.c **** }
 222              		.loc 1 857 1
 223 0056 2685     		mv	a0,s1
 224 0058 2161     		addi	sp,sp,64
 225              		.cfi_remember_state
 226              		.cfi_def_cfa_offset 0
 227 005a 17030000 		tail	__riscv_restore_4
 227      67000300 
 228              		.cfi_restore 19
 229              		.cfi_restore 18
 230              		.cfi_restore 9
 231              		.cfi_restore 8
 232              		.cfi_restore 1
 233              		.cfi_def_cfa_offset -32
 234              	.L8:
 235              		.cfi_restore_state
 798:C:/Users/stapi/OneDrive/Desktop/GD32VW553/V1_MQTT_OK/GD32VW55X_Wifi_BLE_SDK/GD32VW55x_RELEASE_V1.0.2/MSDK/wpa_supplicant/src/tls\tlsv1_client_write.c **** 		tls_alert(conn, TLS_ALERT_LEVEL_FATAL,
 236              		.loc 1 798 6 discriminator 1
 237 0062 3000     		addi	a2,sp,8
 238 0064 6C08     		addi	a1,sp,28
 239 0066 97000000 		call	crypto_hash_finish
 239      E7800000 
 240              	.LVL14:
 797:C:/Users/stapi/OneDrive/Desktop/GD32VW553/V1_MQTT_OK/GD32VW55X_Wifi_BLE_SDK/GD32VW55x_RELEASE_V1.0.2/MSDK/wpa_supplicant/src/tls\tlsv1_client_write.c **** 	    crypto_hash_finish(conn->verify.md5_client, hash, &hlen) < 0) {
 241              		.loc 1 797 38 discriminator 1
 242 006e E34F05FA 		blt	a0,zero,.L10
 806:C:/Users/stapi/OneDrive/Desktop/GD32VW553/V1_MQTT_OK/GD32VW55X_Wifi_BLE_SDK/GD32VW55x_RELEASE_V1.0.2/MSDK/wpa_supplicant/src/tls\tlsv1_client_write.c **** 	hlen = SHA1_MAC_LEN;
 243              		.loc 1 806 2 is_stmt 1
 808:C:/Users/stapi/OneDrive/Desktop/GD32VW553/V1_MQTT_OK/GD32VW55X_Wifi_BLE_SDK/GD32VW55x_RELEASE_V1.0.2/MSDK/wpa_supplicant/src/tls\tlsv1_client_write.c **** 	    crypto_hash_finish(conn->verify.sha1_client, hash + MD5_MAC_LEN,
 244              		.loc 1 808 18 is_stmt 0
 245 0072 03254418 		lw	a0,388(s0)
 807:C:/Users/stapi/OneDrive/Desktop/GD32VW553/V1_MQTT_OK/GD32VW55X_Wifi_BLE_SDK/GD32VW55x_RELEASE_V1.0.2/MSDK/wpa_supplicant/src/tls\tlsv1_client_write.c **** 	if (conn->verify.sha1_client == NULL ||
 246              		.loc 1 807 7
 247 0076 D147     		li	a5,20
 806:C:/Users/stapi/OneDrive/Desktop/GD32VW553/V1_MQTT_OK/GD32VW55X_Wifi_BLE_SDK/GD32VW55x_RELEASE_V1.0.2/MSDK/wpa_supplicant/src/tls\tlsv1_client_write.c **** 	hlen = SHA1_MAC_LEN;
 248              		.loc 1 806 26
 249 0078 23200418 		sw	zero,384(s0)
 807:C:/Users/stapi/OneDrive/Desktop/GD32VW553/V1_MQTT_OK/GD32VW55X_Wifi_BLE_SDK/GD32VW55x_RELEASE_V1.0.2/MSDK/wpa_supplicant/src/tls\tlsv1_client_write.c **** 	if (conn->verify.sha1_client == NULL ||
 250              		.loc 1 807 2 is_stmt 1
 807:C:/Users/stapi/OneDrive/Desktop/GD32VW553/V1_MQTT_OK/GD32VW55X_Wifi_BLE_SDK/GD32VW55x_RELEASE_V1.0.2/MSDK/wpa_supplicant/src/tls\tlsv1_client_write.c **** 	if (conn->verify.sha1_client == NULL ||
 251              		.loc 1 807 7 is_stmt 0
 252 007c 3EC4     		sw	a5,8(sp)
 808:C:/Users/stapi/OneDrive/Desktop/GD32VW553/V1_MQTT_OK/GD32VW55X_Wifi_BLE_SDK/GD32VW55x_RELEASE_V1.0.2/MSDK/wpa_supplicant/src/tls\tlsv1_client_write.c **** 	    crypto_hash_finish(conn->verify.sha1_client, hash + MD5_MAC_LEN,
 253              		.loc 1 808 2 is_stmt 1
 808:C:/Users/stapi/OneDrive/Desktop/GD32VW553/V1_MQTT_OK/GD32VW55X_Wifi_BLE_SDK/GD32VW55x_RELEASE_V1.0.2/MSDK/wpa_supplicant/src/tls\tlsv1_client_write.c **** 	    crypto_hash_finish(conn->verify.sha1_client, hash + MD5_MAC_LEN,
 254              		.loc 1 808 5 is_stmt 0
 255 007e 01ED     		bne	a0,zero,.L11
 256              	.L12:
 811:C:/Users/stapi/OneDrive/Desktop/GD32VW553/V1_MQTT_OK/GD32VW55X_Wifi_BLE_SDK/GD32VW55x_RELEASE_V1.0.2/MSDK/wpa_supplicant/src/tls\tlsv1_client_write.c **** 		tls_alert(conn, TLS_ALERT_LEVEL_FATAL,
 257              		.loc 1 811 3 is_stmt 1
 811:C:/Users/stapi/OneDrive/Desktop/GD32VW553/V1_MQTT_OK/GD32VW55X_Wifi_BLE_SDK/GD32VW55x_RELEASE_V1.0.2/MSDK/wpa_supplicant/src/tls\tlsv1_client_write.c **** 		tls_alert(conn, TLS_ALERT_LEVEL_FATAL,
 258              		.loc 1 811 28 is_stmt 0
 259 0080 23220418 		sw	zero,388(s0)
 812:C:/Users/stapi/OneDrive/Desktop/GD32VW553/V1_MQTT_OK/GD32VW55X_Wifi_BLE_SDK/GD32VW55x_RELEASE_V1.0.2/MSDK/wpa_supplicant/src/tls\tlsv1_client_write.c **** 			  TLS_ALERT_INTERNAL_ERROR);
 260              		.loc 1 812 3 is_stmt 1
 261              	.L18:
 849:C:/Users/stapi/OneDrive/Desktop/GD32VW553/V1_MQTT_OK/GD32VW55X_Wifi_BLE_SDK/GD32VW55x_RELEASE_V1.0.2/MSDK/wpa_supplicant/src/tls\tlsv1_client_write.c **** 			  TLS_ALERT_INTERNAL_ERROR);
 262              		.loc 1 849 3
 263 0084 13060005 		li	a2,80
 264 0088 8945     		li	a1,2
 265 008a 2285     		mv	a0,s0
 266 008c 97000000 		call	tls_alert
 266      E7800000 
 267              	.LVL15:
 268 0094 C1B7     		j	.L17
 269              	.L11:
 809:C:/Users/stapi/OneDrive/Desktop/GD32VW553/V1_MQTT_OK/GD32VW55X_Wifi_BLE_SDK/GD32VW55x_RELEASE_V1.0.2/MSDK/wpa_supplicant/src/tls\tlsv1_client_write.c **** 			       &hlen) < 0) {
 270              		.loc 1 809 6 is_stmt 0 discriminator 1
 271 0096 3000     		addi	a2,sp,8
 272 0098 6C10     		addi	a1,sp,44
 273 009a 97000000 		call	crypto_hash_finish
 273      E7800000 
 274              	.LVL16:
 808:C:/Users/stapi/OneDrive/Desktop/GD32VW553/V1_MQTT_OK/GD32VW55X_Wifi_BLE_SDK/GD32VW55x_RELEASE_V1.0.2/MSDK/wpa_supplicant/src/tls\tlsv1_client_write.c **** 	    crypto_hash_finish(conn->verify.sha1_client, hash + MD5_MAC_LEN,
 275              		.loc 1 808 39 discriminator 1
 276 00a2 E34F05FC 		blt	a0,zero,.L12
 816:C:/Users/stapi/OneDrive/Desktop/GD32VW553/V1_MQTT_OK/GD32VW55X_Wifi_BLE_SDK/GD32VW55x_RELEASE_V1.0.2/MSDK/wpa_supplicant/src/tls\tlsv1_client_write.c **** 	hlen = MD5_MAC_LEN + SHA1_MAC_LEN;
 277              		.loc 1 816 2 is_stmt 1
 823:C:/Users/stapi/OneDrive/Desktop/GD32VW553/V1_MQTT_OK/GD32VW55X_Wifi_BLE_SDK/GD32VW55x_RELEASE_V1.0.2/MSDK/wpa_supplicant/src/tls\tlsv1_client_write.c **** 		    conn->master_secret, TLS_MASTER_SECRET_LEN,
 278              		.loc 1 823 6 is_stmt 0
 279 00a6 03554400 		lhu	a0,4(s0)
 280 00aa B7060000 		lui	a3,%hi(.LC4)
 817:C:/Users/stapi/OneDrive/Desktop/GD32VW553/V1_MQTT_OK/GD32VW55X_Wifi_BLE_SDK/GD32VW55x_RELEASE_V1.0.2/MSDK/wpa_supplicant/src/tls\tlsv1_client_write.c **** 
 281              		.loc 1 817 7
 282 00ae 93074002 		li	a5,36
 816:C:/Users/stapi/OneDrive/Desktop/GD32VW553/V1_MQTT_OK/GD32VW55X_Wifi_BLE_SDK/GD32VW55x_RELEASE_V1.0.2/MSDK/wpa_supplicant/src/tls\tlsv1_client_write.c **** 	hlen = MD5_MAC_LEN + SHA1_MAC_LEN;
 283              		.loc 1 816 27
 284 00b2 23220418 		sw	zero,388(s0)
 817:C:/Users/stapi/OneDrive/Desktop/GD32VW553/V1_MQTT_OK/GD32VW55X_Wifi_BLE_SDK/GD32VW55x_RELEASE_V1.0.2/MSDK/wpa_supplicant/src/tls\tlsv1_client_write.c **** 
 285              		.loc 1 817 2 is_stmt 1
 823:C:/Users/stapi/OneDrive/Desktop/GD32VW553/V1_MQTT_OK/GD32VW55X_Wifi_BLE_SDK/GD32VW55x_RELEASE_V1.0.2/MSDK/wpa_supplicant/src/tls\tlsv1_client_write.c **** 		    conn->master_secret, TLS_MASTER_SECRET_LEN,
 286              		.loc 1 823 6 is_stmt 0
 287 00b6 B148     		li	a7,12
 288 00b8 13080101 		addi	a6,sp,16
 289 00bc 7808     		addi	a4,sp,28
 290 00be 93860600 		addi	a3,a3,%lo(.LC4)
 291 00c2 13060003 		li	a2,48
 292 00c6 93050414 		addi	a1,s0,320
 817:C:/Users/stapi/OneDrive/Desktop/GD32VW553/V1_MQTT_OK/GD32VW55X_Wifi_BLE_SDK/GD32VW55x_RELEASE_V1.0.2/MSDK/wpa_supplicant/src/tls\tlsv1_client_write.c **** 
 293              		.loc 1 817 7
 294 00ca 3EC4     		sw	a5,8(sp)
 823:C:/Users/stapi/OneDrive/Desktop/GD32VW553/V1_MQTT_OK/GD32VW55X_Wifi_BLE_SDK/GD32VW55x_RELEASE_V1.0.2/MSDK/wpa_supplicant/src/tls\tlsv1_client_write.c **** 		    conn->master_secret, TLS_MASTER_SECRET_LEN,
 295              		.loc 1 823 2 is_stmt 1
 823:C:/Users/stapi/OneDrive/Desktop/GD32VW553/V1_MQTT_OK/GD32VW55X_Wifi_BLE_SDK/GD32VW55x_RELEASE_V1.0.2/MSDK/wpa_supplicant/src/tls\tlsv1_client_write.c **** 		    conn->master_secret, TLS_MASTER_SECRET_LEN,
 296              		.loc 1 823 6 is_stmt 0
 297 00cc 97000000 		call	tls_prf
 297      E7800000 
 298              	.LVL17:
 299 00d4 AA84     		mv	s1,a0
 823:C:/Users/stapi/OneDrive/Desktop/GD32VW553/V1_MQTT_OK/GD32VW55X_Wifi_BLE_SDK/GD32VW55x_RELEASE_V1.0.2/MSDK/wpa_supplicant/src/tls\tlsv1_client_write.c **** 		    conn->master_secret, TLS_MASTER_SECRET_LEN,
 300              		.loc 1 823 5
 301 00d6 19C9     		beq	a0,zero,.L13
 827:C:/Users/stapi/OneDrive/Desktop/GD32VW553/V1_MQTT_OK/GD32VW55X_Wifi_BLE_SDK/GD32VW55x_RELEASE_V1.0.2/MSDK/wpa_supplicant/src/tls\tlsv1_client_write.c **** 		tls_alert(conn, TLS_ALERT_LEVEL_FATAL,
 302              		.loc 1 827 3 is_stmt 1
 303 00d8 B7050000 		lui	a1,%hi(.LC5)
 304 00dc 93850500 		addi	a1,a1,%lo(.LC5)
 305              	.L16:
 848:C:/Users/stapi/OneDrive/Desktop/GD32VW553/V1_MQTT_OK/GD32VW55X_Wifi_BLE_SDK/GD32VW55x_RELEASE_V1.0.2/MSDK/wpa_supplicant/src/tls\tlsv1_client_write.c **** 		tls_alert(conn, TLS_ALERT_LEVEL_FATAL,
 306              		.loc 1 848 3 is_stmt 0
 307 00e0 0945     		li	a0,2
 308 00e2 97000000 		call	wpa_printf
 308      E7800000 
 309              	.LVL18:
 310 00ea 69BF     		j	.L18
 311              	.L13:
 832:C:/Users/stapi/OneDrive/Desktop/GD32VW553/V1_MQTT_OK/GD32VW55X_Wifi_BLE_SDK/GD32VW55x_RELEASE_V1.0.2/MSDK/wpa_supplicant/src/tls\tlsv1_client_write.c **** 			verify_data + 1 + 3, TLS_VERIFY_DATA_LEN);
 312              		.loc 1 832 2 is_stmt 1
 313 00ec B7050000 		lui	a1,%hi(.LC6)
 314 00f0 B146     		li	a3,12
 315 00f2 1008     		addi	a2,sp,16
 316 00f4 93850500 		addi	a1,a1,%lo(.LC6)
 317 00f8 0945     		li	a0,2
 318 00fa 97000000 		call	wpa_hexdump_key
 318      E7800000 
 319              	.LVL19:
 836:C:/Users/stapi/OneDrive/Desktop/GD32VW553/V1_MQTT_OK/GD32VW55X_Wifi_BLE_SDK/GD32VW55x_RELEASE_V1.0.2/MSDK/wpa_supplicant/src/tls\tlsv1_client_write.c **** 	/* HandshakeType msg_type */
 320              		.loc 1 836 2
 838:C:/Users/stapi/OneDrive/Desktop/GD32VW553/V1_MQTT_OK/GD32VW55X_Wifi_BLE_SDK/GD32VW55x_RELEASE_V1.0.2/MSDK/wpa_supplicant/src/tls\tlsv1_client_write.c **** 	/* uint24 length */
 321              		.loc 1 838 2
 840:C:/Users/stapi/OneDrive/Desktop/GD32VW553/V1_MQTT_OK/GD32VW55X_Wifi_BLE_SDK/GD32VW55x_RELEASE_V1.0.2/MSDK/wpa_supplicant/src/tls\tlsv1_client_write.c **** 	pos += 3;
 322              		.loc 1 840 2
 323              		.file 2 "..\\..\\..\\..\\wpa_supplicant\\src\\utils/common.h"
   1:..\..\..\..\wpa_supplicant\src\utils/common.h **** /*
   2:..\..\..\..\wpa_supplicant\src\utils/common.h ****  * wpa_supplicant/hostapd / common helper functions, etc.
   3:..\..\..\..\wpa_supplicant\src\utils/common.h ****  * Copyright (c) 2002-2007, Jouni Malinen <j@w1.fi>
   4:..\..\..\..\wpa_supplicant\src\utils/common.h ****  *
   5:..\..\..\..\wpa_supplicant\src\utils/common.h ****  * This software may be distributed under the terms of the BSD license.
   6:..\..\..\..\wpa_supplicant\src\utils/common.h ****  * See README for more details.
   7:..\..\..\..\wpa_supplicant\src\utils/common.h ****  */
   8:..\..\..\..\wpa_supplicant\src\utils/common.h **** 
   9:..\..\..\..\wpa_supplicant\src\utils/common.h **** #ifndef COMMON_H
  10:..\..\..\..\wpa_supplicant\src\utils/common.h **** #define COMMON_H
  11:..\..\..\..\wpa_supplicant\src\utils/common.h **** 
  12:..\..\..\..\wpa_supplicant\src\utils/common.h **** #include "os.h"
  13:..\..\..\..\wpa_supplicant\src\utils/common.h **** 
  14:..\..\..\..\wpa_supplicant\src\utils/common.h **** #if defined(__linux__) || defined(__GLIBC__)
  15:..\..\..\..\wpa_supplicant\src\utils/common.h **** #include <endian.h>
  16:..\..\..\..\wpa_supplicant\src\utils/common.h **** #include <byteswap.h>
  17:..\..\..\..\wpa_supplicant\src\utils/common.h **** #endif /* __linux__ */
  18:..\..\..\..\wpa_supplicant\src\utils/common.h **** 
  19:..\..\..\..\wpa_supplicant\src\utils/common.h **** #if defined(__FreeBSD__) || defined(__NetBSD__) || defined(__DragonFly__) || \
  20:..\..\..\..\wpa_supplicant\src\utils/common.h ****     defined(__OpenBSD__)
  21:..\..\..\..\wpa_supplicant\src\utils/common.h **** #include <sys/types.h>
  22:..\..\..\..\wpa_supplicant\src\utils/common.h **** #include <sys/endian.h>
  23:..\..\..\..\wpa_supplicant\src\utils/common.h **** #define __BYTE_ORDER	_BYTE_ORDER
  24:..\..\..\..\wpa_supplicant\src\utils/common.h **** #define	__LITTLE_ENDIAN	_LITTLE_ENDIAN
  25:..\..\..\..\wpa_supplicant\src\utils/common.h **** #define	__BIG_ENDIAN	_BIG_ENDIAN
  26:..\..\..\..\wpa_supplicant\src\utils/common.h **** #ifdef __OpenBSD__
  27:..\..\..\..\wpa_supplicant\src\utils/common.h **** #define bswap_16 swap16
  28:..\..\..\..\wpa_supplicant\src\utils/common.h **** #define bswap_32 swap32
  29:..\..\..\..\wpa_supplicant\src\utils/common.h **** #define bswap_64 swap64
  30:..\..\..\..\wpa_supplicant\src\utils/common.h **** #else /* __OpenBSD__ */
  31:..\..\..\..\wpa_supplicant\src\utils/common.h **** #define bswap_16 bswap16
  32:..\..\..\..\wpa_supplicant\src\utils/common.h **** #define bswap_32 bswap32
  33:..\..\..\..\wpa_supplicant\src\utils/common.h **** #define bswap_64 bswap64
  34:..\..\..\..\wpa_supplicant\src\utils/common.h **** #endif /* __OpenBSD__ */
  35:..\..\..\..\wpa_supplicant\src\utils/common.h **** #endif /* defined(__FreeBSD__) || defined(__NetBSD__) ||
  36:..\..\..\..\wpa_supplicant\src\utils/common.h **** 	* defined(__DragonFly__) || defined(__OpenBSD__) */
  37:..\..\..\..\wpa_supplicant\src\utils/common.h **** 
  38:..\..\..\..\wpa_supplicant\src\utils/common.h **** #ifdef __APPLE__
  39:..\..\..\..\wpa_supplicant\src\utils/common.h **** #include <sys/types.h>
  40:..\..\..\..\wpa_supplicant\src\utils/common.h **** #include <machine/endian.h>
  41:..\..\..\..\wpa_supplicant\src\utils/common.h **** #define __BYTE_ORDER	_BYTE_ORDER
  42:..\..\..\..\wpa_supplicant\src\utils/common.h **** #define __LITTLE_ENDIAN	_LITTLE_ENDIAN
  43:..\..\..\..\wpa_supplicant\src\utils/common.h **** #define __BIG_ENDIAN	_BIG_ENDIAN
  44:..\..\..\..\wpa_supplicant\src\utils/common.h **** static inline unsigned short bswap_16(unsigned short v)
  45:..\..\..\..\wpa_supplicant\src\utils/common.h **** {
  46:..\..\..\..\wpa_supplicant\src\utils/common.h **** 	return ((v & 0xff) << 8) | (v >> 8);
  47:..\..\..\..\wpa_supplicant\src\utils/common.h **** }
  48:..\..\..\..\wpa_supplicant\src\utils/common.h **** 
  49:..\..\..\..\wpa_supplicant\src\utils/common.h **** static inline unsigned int bswap_32(unsigned int v)
  50:..\..\..\..\wpa_supplicant\src\utils/common.h **** {
  51:..\..\..\..\wpa_supplicant\src\utils/common.h **** 	return ((v & 0xff) << 24) | ((v & 0xff00) << 8) |
  52:..\..\..\..\wpa_supplicant\src\utils/common.h **** 		((v & 0xff0000) >> 8) | (v >> 24);
  53:..\..\..\..\wpa_supplicant\src\utils/common.h **** }
  54:..\..\..\..\wpa_supplicant\src\utils/common.h **** #endif /* __APPLE__ */
  55:..\..\..\..\wpa_supplicant\src\utils/common.h **** 
  56:..\..\..\..\wpa_supplicant\src\utils/common.h **** #ifdef CONFIG_GDWIFI
  57:..\..\..\..\wpa_supplicant\src\utils/common.h **** // #include <sys/types.h>
  58:..\..\..\..\wpa_supplicant\src\utils/common.h **** // #include <machine/endian.h>
  59:..\..\..\..\wpa_supplicant\src\utils/common.h **** #define __BYTE_ORDER	BYTE_ORDER
  60:..\..\..\..\wpa_supplicant\src\utils/common.h **** #define __LITTLE_ENDIAN	LITTLE_ENDIAN
  61:..\..\..\..\wpa_supplicant\src\utils/common.h **** #define __BIG_ENDIAN	BIG_ENDIAN
  62:..\..\..\..\wpa_supplicant\src\utils/common.h **** #define ETHER_ADDR_LEN	6
  63:..\..\..\..\wpa_supplicant\src\utils/common.h **** #define ETH_P_802_3	0x0001		/* Dummy type for 802.3 frames  */
  64:..\..\..\..\wpa_supplicant\src\utils/common.h **** 
  65:..\..\..\..\wpa_supplicant\src\utils/common.h **** static inline unsigned short bswap_16(unsigned short v)
  66:..\..\..\..\wpa_supplicant\src\utils/common.h **** {
  67:..\..\..\..\wpa_supplicant\src\utils/common.h **** 	return ((v & 0xff) << 8) | (v >> 8);
  68:..\..\..\..\wpa_supplicant\src\utils/common.h **** }
  69:..\..\..\..\wpa_supplicant\src\utils/common.h **** 
  70:..\..\..\..\wpa_supplicant\src\utils/common.h **** static inline unsigned int bswap_32(unsigned int v)
  71:..\..\..\..\wpa_supplicant\src\utils/common.h **** {
  72:..\..\..\..\wpa_supplicant\src\utils/common.h **** 	return ((v & 0xff) << 24) | ((v & 0xff00) << 8) |
  73:..\..\..\..\wpa_supplicant\src\utils/common.h **** 		((v & 0xff0000) >> 8) | (v >> 24);
  74:..\..\..\..\wpa_supplicant\src\utils/common.h **** }
  75:..\..\..\..\wpa_supplicant\src\utils/common.h **** 
  76:..\..\..\..\wpa_supplicant\src\utils/common.h **** struct ether_header
  77:..\..\..\..\wpa_supplicant\src\utils/common.h **** {
  78:..\..\..\..\wpa_supplicant\src\utils/common.h **** 	uint8_t  ether_dhost[ETHER_ADDR_LEN];
  79:..\..\..\..\wpa_supplicant\src\utils/common.h **** 	uint8_t  ether_shost[ETHER_ADDR_LEN];
  80:..\..\..\..\wpa_supplicant\src\utils/common.h **** 	uint16_t ether_type;
  81:..\..\..\..\wpa_supplicant\src\utils/common.h **** } __PACKED;
  82:..\..\..\..\wpa_supplicant\src\utils/common.h **** #endif /* CONFIG_GDWIFI */
  83:..\..\..\..\wpa_supplicant\src\utils/common.h **** #ifdef __rtems__
  84:..\..\..\..\wpa_supplicant\src\utils/common.h **** #include <rtems/endian.h>
  85:..\..\..\..\wpa_supplicant\src\utils/common.h **** #define __BYTE_ORDER BYTE_ORDER
  86:..\..\..\..\wpa_supplicant\src\utils/common.h **** #define __LITTLE_ENDIAN LITTLE_ENDIAN
  87:..\..\..\..\wpa_supplicant\src\utils/common.h **** #define __BIG_ENDIAN BIG_ENDIAN
  88:..\..\..\..\wpa_supplicant\src\utils/common.h **** #define bswap_16 CPU_swap_u16
  89:..\..\..\..\wpa_supplicant\src\utils/common.h **** #define bswap_32 CPU_swap_u32
  90:..\..\..\..\wpa_supplicant\src\utils/common.h **** #endif /* __rtems__ */
  91:..\..\..\..\wpa_supplicant\src\utils/common.h **** 
  92:..\..\..\..\wpa_supplicant\src\utils/common.h **** #ifdef CONFIG_NATIVE_WINDOWS
  93:..\..\..\..\wpa_supplicant\src\utils/common.h **** #include <winsock.h>
  94:..\..\..\..\wpa_supplicant\src\utils/common.h **** 
  95:..\..\..\..\wpa_supplicant\src\utils/common.h **** typedef int socklen_t;
  96:..\..\..\..\wpa_supplicant\src\utils/common.h **** 
  97:..\..\..\..\wpa_supplicant\src\utils/common.h **** #ifndef MSG_DONTWAIT
  98:..\..\..\..\wpa_supplicant\src\utils/common.h **** #define MSG_DONTWAIT 0 /* not supported */
  99:..\..\..\..\wpa_supplicant\src\utils/common.h **** #endif
 100:..\..\..\..\wpa_supplicant\src\utils/common.h **** 
 101:..\..\..\..\wpa_supplicant\src\utils/common.h **** #endif /* CONFIG_NATIVE_WINDOWS */
 102:..\..\..\..\wpa_supplicant\src\utils/common.h **** 
 103:..\..\..\..\wpa_supplicant\src\utils/common.h **** #ifdef _MSC_VER
 104:..\..\..\..\wpa_supplicant\src\utils/common.h **** #define inline __inline
 105:..\..\..\..\wpa_supplicant\src\utils/common.h **** 
 106:..\..\..\..\wpa_supplicant\src\utils/common.h **** #undef vsnprintf
 107:..\..\..\..\wpa_supplicant\src\utils/common.h **** #define vsnprintf _vsnprintf
 108:..\..\..\..\wpa_supplicant\src\utils/common.h **** #undef close
 109:..\..\..\..\wpa_supplicant\src\utils/common.h **** #define close closesocket
 110:..\..\..\..\wpa_supplicant\src\utils/common.h **** #endif /* _MSC_VER */
 111:..\..\..\..\wpa_supplicant\src\utils/common.h **** 
 112:..\..\..\..\wpa_supplicant\src\utils/common.h **** 
 113:..\..\..\..\wpa_supplicant\src\utils/common.h **** /* Define platform specific integer types */
 114:..\..\..\..\wpa_supplicant\src\utils/common.h **** 
 115:..\..\..\..\wpa_supplicant\src\utils/common.h **** #ifdef _MSC_VER
 116:..\..\..\..\wpa_supplicant\src\utils/common.h **** typedef UINT64 u64;
 117:..\..\..\..\wpa_supplicant\src\utils/common.h **** typedef UINT32 u32;
 118:..\..\..\..\wpa_supplicant\src\utils/common.h **** typedef UINT16 u16;
 119:..\..\..\..\wpa_supplicant\src\utils/common.h **** typedef UINT8 u8;
 120:..\..\..\..\wpa_supplicant\src\utils/common.h **** typedef INT64 s64;
 121:..\..\..\..\wpa_supplicant\src\utils/common.h **** typedef INT32 s32;
 122:..\..\..\..\wpa_supplicant\src\utils/common.h **** typedef INT16 s16;
 123:..\..\..\..\wpa_supplicant\src\utils/common.h **** typedef INT8 s8;
 124:..\..\..\..\wpa_supplicant\src\utils/common.h **** #define WPA_TYPES_DEFINED
 125:..\..\..\..\wpa_supplicant\src\utils/common.h **** #endif /* _MSC_VER */
 126:..\..\..\..\wpa_supplicant\src\utils/common.h **** 
 127:..\..\..\..\wpa_supplicant\src\utils/common.h **** #ifdef __vxworks
 128:..\..\..\..\wpa_supplicant\src\utils/common.h **** typedef unsigned long long u64;
 129:..\..\..\..\wpa_supplicant\src\utils/common.h **** typedef UINT32 u32;
 130:..\..\..\..\wpa_supplicant\src\utils/common.h **** typedef UINT16 u16;
 131:..\..\..\..\wpa_supplicant\src\utils/common.h **** typedef UINT8 u8;
 132:..\..\..\..\wpa_supplicant\src\utils/common.h **** typedef long long s64;
 133:..\..\..\..\wpa_supplicant\src\utils/common.h **** typedef INT32 s32;
 134:..\..\..\..\wpa_supplicant\src\utils/common.h **** typedef INT16 s16;
 135:..\..\..\..\wpa_supplicant\src\utils/common.h **** typedef INT8 s8;
 136:..\..\..\..\wpa_supplicant\src\utils/common.h **** #define WPA_TYPES_DEFINED
 137:..\..\..\..\wpa_supplicant\src\utils/common.h **** #endif /* __vxworks */
 138:..\..\..\..\wpa_supplicant\src\utils/common.h **** 
 139:..\..\..\..\wpa_supplicant\src\utils/common.h **** #ifndef WPA_TYPES_DEFINED
 140:..\..\..\..\wpa_supplicant\src\utils/common.h **** #ifdef CONFIG_USE_INTTYPES_H
 141:..\..\..\..\wpa_supplicant\src\utils/common.h **** #include <inttypes.h>
 142:..\..\..\..\wpa_supplicant\src\utils/common.h **** #else
 143:..\..\..\..\wpa_supplicant\src\utils/common.h **** #include <stdint.h>
 144:..\..\..\..\wpa_supplicant\src\utils/common.h **** #endif
 145:..\..\..\..\wpa_supplicant\src\utils/common.h **** typedef uint64_t u64;
 146:..\..\..\..\wpa_supplicant\src\utils/common.h **** typedef uint32_t u32;
 147:..\..\..\..\wpa_supplicant\src\utils/common.h **** typedef uint16_t u16;
 148:..\..\..\..\wpa_supplicant\src\utils/common.h **** typedef uint8_t u8;
 149:..\..\..\..\wpa_supplicant\src\utils/common.h **** typedef int64_t s64;
 150:..\..\..\..\wpa_supplicant\src\utils/common.h **** typedef int32_t s32;
 151:..\..\..\..\wpa_supplicant\src\utils/common.h **** typedef int16_t s16;
 152:..\..\..\..\wpa_supplicant\src\utils/common.h **** typedef int8_t s8;
 153:..\..\..\..\wpa_supplicant\src\utils/common.h **** #define WPA_TYPES_DEFINED
 154:..\..\..\..\wpa_supplicant\src\utils/common.h **** #endif /* !WPA_TYPES_DEFINED */
 155:..\..\..\..\wpa_supplicant\src\utils/common.h **** 
 156:..\..\..\..\wpa_supplicant\src\utils/common.h **** 
 157:..\..\..\..\wpa_supplicant\src\utils/common.h **** /* Define platform specific byte swapping macros */
 158:..\..\..\..\wpa_supplicant\src\utils/common.h **** 
 159:..\..\..\..\wpa_supplicant\src\utils/common.h **** #if defined(__CYGWIN__) || defined(CONFIG_NATIVE_WINDOWS)
 160:..\..\..\..\wpa_supplicant\src\utils/common.h **** 
 161:..\..\..\..\wpa_supplicant\src\utils/common.h **** static inline unsigned short wpa_swap_16(unsigned short v)
 162:..\..\..\..\wpa_supplicant\src\utils/common.h **** {
 163:..\..\..\..\wpa_supplicant\src\utils/common.h **** 	return ((v & 0xff) << 8) | (v >> 8);
 164:..\..\..\..\wpa_supplicant\src\utils/common.h **** }
 165:..\..\..\..\wpa_supplicant\src\utils/common.h **** 
 166:..\..\..\..\wpa_supplicant\src\utils/common.h **** static inline unsigned int wpa_swap_32(unsigned int v)
 167:..\..\..\..\wpa_supplicant\src\utils/common.h **** {
 168:..\..\..\..\wpa_supplicant\src\utils/common.h **** 	return ((v & 0xff) << 24) | ((v & 0xff00) << 8) |
 169:..\..\..\..\wpa_supplicant\src\utils/common.h **** 		((v & 0xff0000) >> 8) | (v >> 24);
 170:..\..\..\..\wpa_supplicant\src\utils/common.h **** }
 171:..\..\..\..\wpa_supplicant\src\utils/common.h **** 
 172:..\..\..\..\wpa_supplicant\src\utils/common.h **** #define le_to_host16(n) (n)
 173:..\..\..\..\wpa_supplicant\src\utils/common.h **** #define host_to_le16(n) (n)
 174:..\..\..\..\wpa_supplicant\src\utils/common.h **** #define be_to_host16(n) wpa_swap_16(n)
 175:..\..\..\..\wpa_supplicant\src\utils/common.h **** #define host_to_be16(n) wpa_swap_16(n)
 176:..\..\..\..\wpa_supplicant\src\utils/common.h **** #define le_to_host32(n) (n)
 177:..\..\..\..\wpa_supplicant\src\utils/common.h **** #define host_to_le32(n) (n)
 178:..\..\..\..\wpa_supplicant\src\utils/common.h **** #define be_to_host32(n) wpa_swap_32(n)
 179:..\..\..\..\wpa_supplicant\src\utils/common.h **** #define host_to_be32(n) wpa_swap_32(n)
 180:..\..\..\..\wpa_supplicant\src\utils/common.h **** #define host_to_le64(n) (n)
 181:..\..\..\..\wpa_supplicant\src\utils/common.h **** 
 182:..\..\..\..\wpa_supplicant\src\utils/common.h **** #define WPA_BYTE_SWAP_DEFINED
 183:..\..\..\..\wpa_supplicant\src\utils/common.h **** 
 184:..\..\..\..\wpa_supplicant\src\utils/common.h **** #endif /* __CYGWIN__ || CONFIG_NATIVE_WINDOWS */
 185:..\..\..\..\wpa_supplicant\src\utils/common.h **** 
 186:..\..\..\..\wpa_supplicant\src\utils/common.h **** 
 187:..\..\..\..\wpa_supplicant\src\utils/common.h **** #ifndef WPA_BYTE_SWAP_DEFINED
 188:..\..\..\..\wpa_supplicant\src\utils/common.h **** 
 189:..\..\..\..\wpa_supplicant\src\utils/common.h **** #ifndef __BYTE_ORDER
 190:..\..\..\..\wpa_supplicant\src\utils/common.h **** #ifndef __LITTLE_ENDIAN
 191:..\..\..\..\wpa_supplicant\src\utils/common.h **** #ifndef __BIG_ENDIAN
 192:..\..\..\..\wpa_supplicant\src\utils/common.h **** #define __LITTLE_ENDIAN 1234
 193:..\..\..\..\wpa_supplicant\src\utils/common.h **** #define __BIG_ENDIAN 4321
 194:..\..\..\..\wpa_supplicant\src\utils/common.h **** #if defined(sparc)
 195:..\..\..\..\wpa_supplicant\src\utils/common.h **** #define __BYTE_ORDER __BIG_ENDIAN
 196:..\..\..\..\wpa_supplicant\src\utils/common.h **** #endif
 197:..\..\..\..\wpa_supplicant\src\utils/common.h **** #endif /* __BIG_ENDIAN */
 198:..\..\..\..\wpa_supplicant\src\utils/common.h **** #endif /* __LITTLE_ENDIAN */
 199:..\..\..\..\wpa_supplicant\src\utils/common.h **** #endif /* __BYTE_ORDER */
 200:..\..\..\..\wpa_supplicant\src\utils/common.h **** 
 201:..\..\..\..\wpa_supplicant\src\utils/common.h **** #if __BYTE_ORDER == __LITTLE_ENDIAN
 202:..\..\..\..\wpa_supplicant\src\utils/common.h **** #define le_to_host16(n) ((__force u16) (le16) (n))
 203:..\..\..\..\wpa_supplicant\src\utils/common.h **** #define host_to_le16(n) ((__force le16) (u16) (n))
 204:..\..\..\..\wpa_supplicant\src\utils/common.h **** #define be_to_host16(n) bswap_16((__force u16) (be16) (n))
 205:..\..\..\..\wpa_supplicant\src\utils/common.h **** #define host_to_be16(n) ((__force be16) bswap_16((n)))
 206:..\..\..\..\wpa_supplicant\src\utils/common.h **** #define le_to_host32(n) ((__force u32) (le32) (n))
 207:..\..\..\..\wpa_supplicant\src\utils/common.h **** #define host_to_le32(n) ((__force le32) (u32) (n))
 208:..\..\..\..\wpa_supplicant\src\utils/common.h **** #define be_to_host32(n) bswap_32((__force u32) (be32) (n))
 209:..\..\..\..\wpa_supplicant\src\utils/common.h **** #define host_to_be32(n) ((__force be32) bswap_32((n)))
 210:..\..\..\..\wpa_supplicant\src\utils/common.h **** #define le_to_host64(n) ((__force u64) (le64) (n))
 211:..\..\..\..\wpa_supplicant\src\utils/common.h **** #define host_to_le64(n) ((__force le64) (u64) (n))
 212:..\..\..\..\wpa_supplicant\src\utils/common.h **** #define be_to_host64(n) bswap_64((__force u64) (be64) (n))
 213:..\..\..\..\wpa_supplicant\src\utils/common.h **** #define host_to_be64(n) ((__force be64) bswap_64((n)))
 214:..\..\..\..\wpa_supplicant\src\utils/common.h **** #elif __BYTE_ORDER == __BIG_ENDIAN
 215:..\..\..\..\wpa_supplicant\src\utils/common.h **** #define le_to_host16(n) bswap_16(n)
 216:..\..\..\..\wpa_supplicant\src\utils/common.h **** #define host_to_le16(n) bswap_16(n)
 217:..\..\..\..\wpa_supplicant\src\utils/common.h **** #define be_to_host16(n) (n)
 218:..\..\..\..\wpa_supplicant\src\utils/common.h **** #define host_to_be16(n) (n)
 219:..\..\..\..\wpa_supplicant\src\utils/common.h **** #define le_to_host32(n) bswap_32(n)
 220:..\..\..\..\wpa_supplicant\src\utils/common.h **** #define host_to_le32(n) bswap_32(n)
 221:..\..\..\..\wpa_supplicant\src\utils/common.h **** #define be_to_host32(n) (n)
 222:..\..\..\..\wpa_supplicant\src\utils/common.h **** #define host_to_be32(n) (n)
 223:..\..\..\..\wpa_supplicant\src\utils/common.h **** #define le_to_host64(n) bswap_64(n)
 224:..\..\..\..\wpa_supplicant\src\utils/common.h **** #define host_to_le64(n) bswap_64(n)
 225:..\..\..\..\wpa_supplicant\src\utils/common.h **** #define be_to_host64(n) (n)
 226:..\..\..\..\wpa_supplicant\src\utils/common.h **** #define host_to_be64(n) (n)
 227:..\..\..\..\wpa_supplicant\src\utils/common.h **** #ifndef WORDS_BIGENDIAN
 228:..\..\..\..\wpa_supplicant\src\utils/common.h **** #define WORDS_BIGENDIAN
 229:..\..\..\..\wpa_supplicant\src\utils/common.h **** #endif
 230:..\..\..\..\wpa_supplicant\src\utils/common.h **** #else
 231:..\..\..\..\wpa_supplicant\src\utils/common.h **** #error Could not determine CPU byte order
 232:..\..\..\..\wpa_supplicant\src\utils/common.h **** #endif
 233:..\..\..\..\wpa_supplicant\src\utils/common.h **** 
 234:..\..\..\..\wpa_supplicant\src\utils/common.h **** #define WPA_BYTE_SWAP_DEFINED
 235:..\..\..\..\wpa_supplicant\src\utils/common.h **** #endif /* !WPA_BYTE_SWAP_DEFINED */
 236:..\..\..\..\wpa_supplicant\src\utils/common.h **** 
 237:..\..\..\..\wpa_supplicant\src\utils/common.h **** 
 238:..\..\..\..\wpa_supplicant\src\utils/common.h **** /* Macros for handling unaligned memory accesses */
 239:..\..\..\..\wpa_supplicant\src\utils/common.h **** 
 240:..\..\..\..\wpa_supplicant\src\utils/common.h **** static inline u16 WPA_GET_BE16(const u8 *a)
 241:..\..\..\..\wpa_supplicant\src\utils/common.h **** {
 242:..\..\..\..\wpa_supplicant\src\utils/common.h **** 	return (a[0] << 8) | a[1];
 243:..\..\..\..\wpa_supplicant\src\utils/common.h **** }
 244:..\..\..\..\wpa_supplicant\src\utils/common.h **** 
 245:..\..\..\..\wpa_supplicant\src\utils/common.h **** static inline void WPA_PUT_BE16(u8 *a, u16 val)
 246:..\..\..\..\wpa_supplicant\src\utils/common.h **** {
 247:..\..\..\..\wpa_supplicant\src\utils/common.h **** 	a[0] = val >> 8;
 248:..\..\..\..\wpa_supplicant\src\utils/common.h **** 	a[1] = val & 0xff;
 249:..\..\..\..\wpa_supplicant\src\utils/common.h **** }
 250:..\..\..\..\wpa_supplicant\src\utils/common.h **** 
 251:..\..\..\..\wpa_supplicant\src\utils/common.h **** static inline u16 WPA_GET_LE16(const u8 *a)
 252:..\..\..\..\wpa_supplicant\src\utils/common.h **** {
 253:..\..\..\..\wpa_supplicant\src\utils/common.h **** 	return (a[1] << 8) | a[0];
 254:..\..\..\..\wpa_supplicant\src\utils/common.h **** }
 255:..\..\..\..\wpa_supplicant\src\utils/common.h **** 
 256:..\..\..\..\wpa_supplicant\src\utils/common.h **** static inline void WPA_PUT_LE16(u8 *a, u16 val)
 257:..\..\..\..\wpa_supplicant\src\utils/common.h **** {
 258:..\..\..\..\wpa_supplicant\src\utils/common.h **** 	a[1] = val >> 8;
 259:..\..\..\..\wpa_supplicant\src\utils/common.h **** 	a[0] = val & 0xff;
 260:..\..\..\..\wpa_supplicant\src\utils/common.h **** }
 261:..\..\..\..\wpa_supplicant\src\utils/common.h **** 
 262:..\..\..\..\wpa_supplicant\src\utils/common.h **** static inline u32 WPA_GET_BE24(const u8 *a)
 263:..\..\..\..\wpa_supplicant\src\utils/common.h **** {
 264:..\..\..\..\wpa_supplicant\src\utils/common.h **** 	return (a[0] << 16) | (a[1] << 8) | a[2];
 265:..\..\..\..\wpa_supplicant\src\utils/common.h **** }
 266:..\..\..\..\wpa_supplicant\src\utils/common.h **** 
 267:..\..\..\..\wpa_supplicant\src\utils/common.h **** static inline void WPA_PUT_BE24(u8 *a, u32 val)
 268:..\..\..\..\wpa_supplicant\src\utils/common.h **** {
 269:..\..\..\..\wpa_supplicant\src\utils/common.h **** 	a[0] = (val >> 16) & 0xff;
 324              		.loc 2 269 2
 270:..\..\..\..\wpa_supplicant\src\utils/common.h **** 	a[1] = (val >> 8) & 0xff;
 325              		.loc 2 270 2
 271:..\..\..\..\wpa_supplicant\src\utils/common.h **** 	a[2] = val & 0xff;
 326              		.loc 2 271 2
 838:C:/Users/stapi/OneDrive/Desktop/GD32VW553/V1_MQTT_OK/GD32VW55X_Wifi_BLE_SDK/GD32VW55x_RELEASE_V1.0.2/MSDK/wpa_supplicant/src/tls\tlsv1_client_write.c **** 	/* uint24 length */
 327              		.loc 1 838 9 is_stmt 0
 328 0102 B707000C 		li	a5,201326592
 329 0106 D107     		addi	a5,a5,20
 843:C:/Users/stapi/OneDrive/Desktop/GD32VW553/V1_MQTT_OK/GD32VW55X_Wifi_BLE_SDK/GD32VW55x_RELEASE_V1.0.2/MSDK/wpa_supplicant/src/tls\tlsv1_client_write.c **** 
 330              		.loc 1 843 2
 331 0108 4146     		li	a2,16
 332 010a 6C00     		addi	a1,sp,12
 333              	.LVL20:
 334 010c 13050418 		addi	a0,s0,384
 838:C:/Users/stapi/OneDrive/Desktop/GD32VW553/V1_MQTT_OK/GD32VW55X_Wifi_BLE_SDK/GD32VW55x_RELEASE_V1.0.2/MSDK/wpa_supplicant/src/tls\tlsv1_client_write.c **** 	/* uint24 length */
 335              		.loc 1 838 9
 336 0110 3EC6     		sw	a5,12(sp)
 337              	.LVL21:
 841:C:/Users/stapi/OneDrive/Desktop/GD32VW553/V1_MQTT_OK/GD32VW55X_Wifi_BLE_SDK/GD32VW55x_RELEASE_V1.0.2/MSDK/wpa_supplicant/src/tls\tlsv1_client_write.c **** 	pos += TLS_VERIFY_DATA_LEN; /* verify_data already in place */
 338              		.loc 1 841 2 is_stmt 1
 842:C:/Users/stapi/OneDrive/Desktop/GD32VW553/V1_MQTT_OK/GD32VW55X_Wifi_BLE_SDK/GD32VW55x_RELEASE_V1.0.2/MSDK/wpa_supplicant/src/tls\tlsv1_client_write.c **** 	tls_verify_hash_add(&conn->verify, hs_start, pos - hs_start);
 339              		.loc 1 842 2
 843:C:/Users/stapi/OneDrive/Desktop/GD32VW553/V1_MQTT_OK/GD32VW55X_Wifi_BLE_SDK/GD32VW55x_RELEASE_V1.0.2/MSDK/wpa_supplicant/src/tls\tlsv1_client_write.c **** 
 340              		.loc 1 843 2
 341 0112 97000000 		call	tls_verify_hash_add
 341      E7800000 
 342              	.LVL22:
 845:C:/Users/stapi/OneDrive/Desktop/GD32VW553/V1_MQTT_OK/GD32VW55X_Wifi_BLE_SDK/GD32VW55x_RELEASE_V1.0.2/MSDK/wpa_supplicant/src/tls\tlsv1_client_write.c **** 			      *msgpos, end - *msgpos, hs_start, pos - hs_start,
 343              		.loc 1 845 2
 845:C:/Users/stapi/OneDrive/Desktop/GD32VW553/V1_MQTT_OK/GD32VW55X_Wifi_BLE_SDK/GD32VW55x_RELEASE_V1.0.2/MSDK/wpa_supplicant/src/tls\tlsv1_client_write.c **** 			      *msgpos, end - *msgpos, hs_start, pos - hs_start,
 344              		.loc 1 845 6 is_stmt 0
 345 011a 03260900 		lw	a2,0(s2)
 346 011e 13084100 		addi	a6,sp,4
 347 0122 C147     		li	a5,16
 348 0124 7800     		addi	a4,sp,12
 349              	.LVL23:
 350 0126 B386C940 		sub	a3,s3,a2
 351 012a D945     		li	a1,22
 352 012c 13054400 		addi	a0,s0,4
 353 0130 97000000 		call	tlsv1_record_send
 353      E7800000 
 354              	.LVL24:
 845:C:/Users/stapi/OneDrive/Desktop/GD32VW553/V1_MQTT_OK/GD32VW55X_Wifi_BLE_SDK/GD32VW55x_RELEASE_V1.0.2/MSDK/wpa_supplicant/src/tls\tlsv1_client_write.c **** 			      *msgpos, end - *msgpos, hs_start, pos - hs_start,
 355              		.loc 1 845 5
 356 0138 63570500 		bge	a0,zero,.L14
 848:C:/Users/stapi/OneDrive/Desktop/GD32VW553/V1_MQTT_OK/GD32VW55X_Wifi_BLE_SDK/GD32VW55x_RELEASE_V1.0.2/MSDK/wpa_supplicant/src/tls\tlsv1_client_write.c **** 		tls_alert(conn, TLS_ALERT_LEVEL_FATAL,
 357              		.loc 1 848 3 is_stmt 1
 358 013c B7050000 		lui	a1,%hi(.LC1)
 359 0140 93850500 		addi	a1,a1,%lo(.LC1)
 360 0144 71BF     		j	.L16
 361              	.L14:
 854:C:/Users/stapi/OneDrive/Desktop/GD32VW553/V1_MQTT_OK/GD32VW55X_Wifi_BLE_SDK/GD32VW55x_RELEASE_V1.0.2/MSDK/wpa_supplicant/src/tls\tlsv1_client_write.c **** 
 362              		.loc 1 854 2
 854:C:/Users/stapi/OneDrive/Desktop/GD32VW553/V1_MQTT_OK/GD32VW55X_Wifi_BLE_SDK/GD32VW55x_RELEASE_V1.0.2/MSDK/wpa_supplicant/src/tls\tlsv1_client_write.c **** 
 363              		.loc 1 854 10 is_stmt 0
 364 0146 83270900 		lw	a5,0(s2)
 365 014a 1247     		lw	a4,4(sp)
 366 014c BA97     		add	a5,a5,a4
 367 014e 2320F900 		sw	a5,0(s2)
 856:C:/Users/stapi/OneDrive/Desktop/GD32VW553/V1_MQTT_OK/GD32VW55X_Wifi_BLE_SDK/GD32VW55x_RELEASE_V1.0.2/MSDK/wpa_supplicant/src/tls\tlsv1_client_write.c **** }
 368              		.loc 1 856 2 is_stmt 1
 856:C:/Users/stapi/OneDrive/Desktop/GD32VW553/V1_MQTT_OK/GD32VW55X_Wifi_BLE_SDK/GD32VW55x_RELEASE_V1.0.2/MSDK/wpa_supplicant/src/tls\tlsv1_client_write.c **** }
 369              		.loc 1 856 9 is_stmt 0
 370 0152 11B7     		j	.L7
 371              		.cfi_endproc
 372              	.LFE94:
 374              		.section	.rodata.tls_send_client_hello.str1.4,"aMS",@progbits,1
 375              		.align	2
 376              	.LC7:
 377 0000 544C5376 		.string	"TLSv1: No TLS version allowed"
 377      313A204E 
 377      6F20544C 
 377      53207665 
 377      7273696F 
 378 001e 0000     		.align	2
 379              	.LC8:
 380 0020 544C5376 		.string	"TLSv1: Send ClientHello (ver %s)"
 380      313A2053 
 380      656E6420 
 380      436C6965 
 380      6E744865 
 381 0041 000000   		.align	2
 382              	.LC9:
 383 0044 544C5376 		.string	"TLSv1: Could not generate client_random"
 383      313A2043 
 383      6F756C64 
 383      206E6F74 
 383      2067656E 
 384              		.align	2
 385              	.LC10:
 386 006c 544C5376 		.string	"TLSv1: client_random"
 386      313A2063 
 386      6C69656E 
 386      745F7261 
 386      6E646F6D 
 387 0081 000000   		.align	2
 388              	.LC11:
 389 0084 544C5376 		.string	"TLSv1: Add status_request extension for OCSP stapling"
 389      313A2041 
 389      64642073 
 389      74617475 
 389      735F7265 
 390 00ba 0000     		.align	2
 391              	.LC12:
 392 00bc 544C5376 		.string	"TLSv1: Add status_request_v2 extension for OCSP stapling"
 392      313A2041 
 392      64642073 
 392      74617475 
 392      735F7265 
 393 00f5 000000   		.align	2
 394              	.LC13:
 395 00f8 544C5376 		.string	"TLSv1: Failed to create TLS record"
 395      313A2046 
 395      61696C65 
 395      6420746F 
 395      20637265 
 396              		.section	.text.tls_send_client_hello,"ax",@progbits
 397              		.align	1
 398              		.globl	tls_send_client_hello
 400              	tls_send_client_hello:
 401              	.LFB87:
  46:C:/Users/stapi/OneDrive/Desktop/GD32VW553/V1_MQTT_OK/GD32VW55X_Wifi_BLE_SDK/GD32VW55x_RELEASE_V1.0.2/MSDK/wpa_supplicant/src/tls\tlsv1_client_write.c **** 	u8 *hello, *end, *pos, *hs_length, *hs_start, *rhdr;
 402              		.loc 1 46 1 is_stmt 1
 403              		.cfi_startproc
 404              	.LVL25:
 405 0000 17030000 		call	t0,__riscv_save_10
 405      E7020300 
 406              		.cfi_offset 25, -44
 407              		.cfi_offset 24, -40
 408              		.cfi_offset 23, -36
 409              		.cfi_offset 22, -32
 410              		.cfi_offset 21, -28
 411              		.cfi_offset 20, -24
 412              		.cfi_offset 19, -20
 413              		.cfi_offset 18, -16
 414              		.cfi_offset 9, -12
 415              		.cfi_offset 8, -8
 416              		.cfi_offset 1, -4
 417              		.cfi_def_cfa_offset 48
  47:C:/Users/stapi/OneDrive/Desktop/GD32VW553/V1_MQTT_OK/GD32VW55X_Wifi_BLE_SDK/GD32VW55x_RELEASE_V1.0.2/MSDK/wpa_supplicant/src/tls\tlsv1_client_write.c **** 	struct os_time now;
 418              		.loc 1 47 2
  48:C:/Users/stapi/OneDrive/Desktop/GD32VW553/V1_MQTT_OK/GD32VW55X_Wifi_BLE_SDK/GD32VW55x_RELEASE_V1.0.2/MSDK/wpa_supplicant/src/tls\tlsv1_client_write.c **** 	size_t len, i;
 419              		.loc 1 48 2
  49:C:/Users/stapi/OneDrive/Desktop/GD32VW553/V1_MQTT_OK/GD32VW55X_Wifi_BLE_SDK/GD32VW55x_RELEASE_V1.0.2/MSDK/wpa_supplicant/src/tls\tlsv1_client_write.c **** 	u8 *ext_start;
 420              		.loc 1 49 2
  50:C:/Users/stapi/OneDrive/Desktop/GD32VW553/V1_MQTT_OK/GD32VW55X_Wifi_BLE_SDK/GD32VW55x_RELEASE_V1.0.2/MSDK/wpa_supplicant/src/tls\tlsv1_client_write.c **** 	u16 tls_version = tls_client_highest_ver(conn);
 421              		.loc 1 50 2
  51:C:/Users/stapi/OneDrive/Desktop/GD32VW553/V1_MQTT_OK/GD32VW55X_Wifi_BLE_SDK/GD32VW55x_RELEASE_V1.0.2/MSDK/wpa_supplicant/src/tls\tlsv1_client_write.c **** 
 422              		.loc 1 51 2
  46:C:/Users/stapi/OneDrive/Desktop/GD32VW553/V1_MQTT_OK/GD32VW55X_Wifi_BLE_SDK/GD32VW55x_RELEASE_V1.0.2/MSDK/wpa_supplicant/src/tls\tlsv1_client_write.c **** 	u8 *hello, *end, *pos, *hs_length, *hs_start, *rhdr;
 423              		.loc 1 46 1 is_stmt 0
 424 0008 4111     		addi	sp,sp,-16
 425              		.cfi_def_cfa_offset 64
  46:C:/Users/stapi/OneDrive/Desktop/GD32VW553/V1_MQTT_OK/GD32VW55X_Wifi_BLE_SDK/GD32VW55x_RELEASE_V1.0.2/MSDK/wpa_supplicant/src/tls\tlsv1_client_write.c **** 	u8 *hello, *end, *pos, *hs_length, *hs_start, *rhdr;
 426              		.loc 1 46 1
 427 000a AA84     		mv	s1,a0
 428 000c AE8A     		mv	s5,a1
  51:C:/Users/stapi/OneDrive/Desktop/GD32VW553/V1_MQTT_OK/GD32VW55X_Wifi_BLE_SDK/GD32VW55x_RELEASE_V1.0.2/MSDK/wpa_supplicant/src/tls\tlsv1_client_write.c **** 
 429              		.loc 1 51 20
 430 000e 97000000 		call	tls_client_highest_ver
 430      E7800000 
 431              	.LVL26:
  53:C:/Users/stapi/OneDrive/Desktop/GD32VW553/V1_MQTT_OK/GD32VW55X_Wifi_BLE_SDK/GD32VW55x_RELEASE_V1.0.2/MSDK/wpa_supplicant/src/tls\tlsv1_client_write.c **** 		wpa_printf(MSG_INFO, "TLSv1: No TLS version allowed");
 432              		.loc 1 53 2 is_stmt 1
  53:C:/Users/stapi/OneDrive/Desktop/GD32VW553/V1_MQTT_OK/GD32VW55X_Wifi_BLE_SDK/GD32VW55x_RELEASE_V1.0.2/MSDK/wpa_supplicant/src/tls\tlsv1_client_write.c **** 		wpa_printf(MSG_INFO, "TLSv1: No TLS version allowed");
 433              		.loc 1 53 5 is_stmt 0
 434 0016 0DE1     		bne	a0,zero,.L20
  54:C:/Users/stapi/OneDrive/Desktop/GD32VW553/V1_MQTT_OK/GD32VW55X_Wifi_BLE_SDK/GD32VW55x_RELEASE_V1.0.2/MSDK/wpa_supplicant/src/tls\tlsv1_client_write.c **** 		return NULL;
 435              		.loc 1 54 3 is_stmt 1
 436 0018 B7050000 		lui	a1,%hi(.LC7)
 437 001c 93850500 		addi	a1,a1,%lo(.LC7)
 438 0020 0D45     		li	a0,3
 439              	.LVL27:
 440              	.L40:
  68:C:/Users/stapi/OneDrive/Desktop/GD32VW553/V1_MQTT_OK/GD32VW55X_Wifi_BLE_SDK/GD32VW55x_RELEASE_V1.0.2/MSDK/wpa_supplicant/src/tls\tlsv1_client_write.c **** 			   "client_random");
 441              		.loc 1 68 3 is_stmt 0
 442 0022 97000000 		call	wpa_printf
 442      E7800000 
 443              	.LVL28:
  70:C:/Users/stapi/OneDrive/Desktop/GD32VW553/V1_MQTT_OK/GD32VW55X_Wifi_BLE_SDK/GD32VW55x_RELEASE_V1.0.2/MSDK/wpa_supplicant/src/tls\tlsv1_client_write.c **** 	}
 444              		.loc 1 70 3 is_stmt 1
 445              	.L39:
 243:C:/Users/stapi/OneDrive/Desktop/GD32VW553/V1_MQTT_OK/GD32VW55X_Wifi_BLE_SDK/GD32VW55x_RELEASE_V1.0.2/MSDK/wpa_supplicant/src/tls\tlsv1_client_write.c **** 	}
 446              		.loc 1 243 3
 243:C:/Users/stapi/OneDrive/Desktop/GD32VW553/V1_MQTT_OK/GD32VW55X_Wifi_BLE_SDK/GD32VW55x_RELEASE_V1.0.2/MSDK/wpa_supplicant/src/tls\tlsv1_client_write.c **** 	}
 447              		.loc 1 243 10 is_stmt 0
 448 002a 0149     		li	s2,0
 449              	.L19:
 249:C:/Users/stapi/OneDrive/Desktop/GD32VW553/V1_MQTT_OK/GD32VW55X_Wifi_BLE_SDK/GD32VW55x_RELEASE_V1.0.2/MSDK/wpa_supplicant/src/tls\tlsv1_client_write.c **** 
 450              		.loc 1 249 1
 451 002c 4A85     		mv	a0,s2
 452 002e 4101     		addi	sp,sp,16
 453              		.cfi_remember_state
 454              		.cfi_def_cfa_offset 0
 455 0030 17030000 		tail	__riscv_restore_10
 455      67000300 
 456              		.cfi_restore 25
 457              		.cfi_restore 24
 458              		.cfi_restore 23
 459              		.cfi_restore 22
 460              		.cfi_restore 21
 461              		.cfi_restore 20
 462              		.cfi_restore 19
 463              		.cfi_restore 18
 464              		.cfi_restore 9
 465              		.cfi_restore 8
 466              		.cfi_restore 1
 467              		.cfi_def_cfa_offset -48
 468              	.LVL29:
 469              	.L20:
 470              		.cfi_restore_state
 471 0038 2A84     		mv	s0,a0
  58:C:/Users/stapi/OneDrive/Desktop/GD32VW553/V1_MQTT_OK/GD32VW55X_Wifi_BLE_SDK/GD32VW55x_RELEASE_V1.0.2/MSDK/wpa_supplicant/src/tls\tlsv1_client_write.c **** 		   tls_version_str(tls_version));
 472              		.loc 1 58 2 is_stmt 1
 473 003a 97000000 		call	tls_version_str
 473      E7800000 
 474              	.LVL30:
 475 0042 B7050000 		lui	a1,%hi(.LC8)
 476 0046 2A86     		mv	a2,a0
 477 0048 93850500 		addi	a1,a1,%lo(.LC8)
 478 004c 0945     		li	a0,2
 479 004e 97000000 		call	wpa_printf
 479      E7800000 
 480              	.LVL31:
  60:C:/Users/stapi/OneDrive/Desktop/GD32VW553/V1_MQTT_OK/GD32VW55X_Wifi_BLE_SDK/GD32VW55x_RELEASE_V1.0.2/MSDK/wpa_supplicant/src/tls\tlsv1_client_write.c **** 
 481              		.loc 1 60 2
  62:C:/Users/stapi/OneDrive/Desktop/GD32VW553/V1_MQTT_OK/GD32VW55X_Wifi_BLE_SDK/GD32VW55x_RELEASE_V1.0.2/MSDK/wpa_supplicant/src/tls\tlsv1_client_write.c **** #ifdef TEST_FUZZ
 482              		.loc 1 62 2 is_stmt 0
 483 0056 2800     		addi	a0,sp,8
  60:C:/Users/stapi/OneDrive/Desktop/GD32VW553/V1_MQTT_OK/GD32VW55X_Wifi_BLE_SDK/GD32VW55x_RELEASE_V1.0.2/MSDK/wpa_supplicant/src/tls\tlsv1_client_write.c **** 
 484              		.loc 1 60 11
 485 0058 23A00A00 		sw	zero,0(s5)
  62:C:/Users/stapi/OneDrive/Desktop/GD32VW553/V1_MQTT_OK/GD32VW55X_Wifi_BLE_SDK/GD32VW55x_RELEASE_V1.0.2/MSDK/wpa_supplicant/src/tls\tlsv1_client_write.c **** #ifdef TEST_FUZZ
 486              		.loc 1 62 2 is_stmt 1
 487 005c 97000000 		call	os_get_time
 487      E7800000 
 488              	.LVL32:
  66:C:/Users/stapi/OneDrive/Desktop/GD32VW553/V1_MQTT_OK/GD32VW55X_Wifi_BLE_SDK/GD32VW55x_RELEASE_V1.0.2/MSDK/wpa_supplicant/src/tls\tlsv1_client_write.c **** 	if (random_get_bytes(conn->client_random + 4, TLS_RANDOM_LEN - 4)) {
 489              		.loc 1 66 2
  66:C:/Users/stapi/OneDrive/Desktop/GD32VW553/V1_MQTT_OK/GD32VW55X_Wifi_BLE_SDK/GD32VW55x_RELEASE_V1.0.2/MSDK/wpa_supplicant/src/tls\tlsv1_client_write.c **** 	if (random_get_bytes(conn->client_random + 4, TLS_RANDOM_LEN - 4)) {
 490              		.loc 1 66 39 is_stmt 0
 491 0064 A247     		lw	a5,8(sp)
  67:C:/Users/stapi/OneDrive/Desktop/GD32VW553/V1_MQTT_OK/GD32VW55X_Wifi_BLE_SDK/GD32VW55x_RELEASE_V1.0.2/MSDK/wpa_supplicant/src/tls\tlsv1_client_write.c **** 		wpa_printf(MSG_ERROR, "TLSv1: Could not generate "
 492              		.loc 1 67 6
 493 0066 F145     		li	a1,28
 494 0068 13854410 		addi	a0,s1,260
 495              	.LBB70:
 496              	.LBB71:
 272:..\..\..\..\wpa_supplicant\src\utils/common.h **** }
 273:..\..\..\..\wpa_supplicant\src\utils/common.h **** 
 274:..\..\..\..\wpa_supplicant\src\utils/common.h **** static inline u32 WPA_GET_BE32(const u8 *a)
 275:..\..\..\..\wpa_supplicant\src\utils/common.h **** {
 276:..\..\..\..\wpa_supplicant\src\utils/common.h **** 	return ((u32) a[0] << 24) | (a[1] << 16) | (a[2] << 8) | a[3];
 277:..\..\..\..\wpa_supplicant\src\utils/common.h **** }
 278:..\..\..\..\wpa_supplicant\src\utils/common.h **** 
 279:..\..\..\..\wpa_supplicant\src\utils/common.h **** static inline void WPA_PUT_BE32(u8 *a, u32 val)
 280:..\..\..\..\wpa_supplicant\src\utils/common.h **** {
 281:..\..\..\..\wpa_supplicant\src\utils/common.h **** 	a[0] = (val >> 24) & 0xff;
 497              		.loc 2 281 14
 498 006c 13D78701 		srli	a4,a5,24
 499              		.loc 2 281 7
 500 0070 2380E410 		sb	a4,256(s1)
 282:..\..\..\..\wpa_supplicant\src\utils/common.h **** 	a[1] = (val >> 16) & 0xff;
 501              		.loc 2 282 14
 502 0074 13D70701 		srli	a4,a5,16
 503              		.loc 2 282 7
 504 0078 A380E410 		sb	a4,257(s1)
 283:..\..\..\..\wpa_supplicant\src\utils/common.h **** 	a[2] = (val >> 8) & 0xff;
 505              		.loc 2 283 14
 506 007c 13D78700 		srli	a4,a5,8
 507              		.loc 2 283 7
 508 0080 2381E410 		sb	a4,258(s1)
 284:..\..\..\..\wpa_supplicant\src\utils/common.h **** 	a[3] = val & 0xff;
 509              		.loc 2 284 7
 510 0084 A381F410 		sb	a5,259(s1)
 511              	.LBE71:
 512              	.LBE70:
  66:C:/Users/stapi/OneDrive/Desktop/GD32VW553/V1_MQTT_OK/GD32VW55X_Wifi_BLE_SDK/GD32VW55x_RELEASE_V1.0.2/MSDK/wpa_supplicant/src/tls\tlsv1_client_write.c **** 	if (random_get_bytes(conn->client_random + 4, TLS_RANDOM_LEN - 4)) {
 513              		.loc 1 66 19
 514 0088 93890410 		addi	s3,s1,256
 515              	.LVL33:
 516              	.LBB73:
 517              	.LBB72:
 281:..\..\..\..\wpa_supplicant\src\utils/common.h **** 	a[1] = (val >> 16) & 0xff;
 518              		.loc 2 281 2 is_stmt 1
 282:..\..\..\..\wpa_supplicant\src\utils/common.h **** 	a[2] = (val >> 8) & 0xff;
 519              		.loc 2 282 2
 283:..\..\..\..\wpa_supplicant\src\utils/common.h **** 	a[3] = val & 0xff;
 520              		.loc 2 283 2
 521              		.loc 2 284 2
 522              	.LBE72:
 523              	.LBE73:
  67:C:/Users/stapi/OneDrive/Desktop/GD32VW553/V1_MQTT_OK/GD32VW55X_Wifi_BLE_SDK/GD32VW55x_RELEASE_V1.0.2/MSDK/wpa_supplicant/src/tls\tlsv1_client_write.c **** 		wpa_printf(MSG_ERROR, "TLSv1: Could not generate "
 524              		.loc 1 67 2
  67:C:/Users/stapi/OneDrive/Desktop/GD32VW553/V1_MQTT_OK/GD32VW55X_Wifi_BLE_SDK/GD32VW55x_RELEASE_V1.0.2/MSDK/wpa_supplicant/src/tls\tlsv1_client_write.c **** 		wpa_printf(MSG_ERROR, "TLSv1: Could not generate "
 525              		.loc 1 67 6 is_stmt 0
 526 008c 97000000 		call	os_get_random
 526      E7800000 
 527              	.LVL34:
  67:C:/Users/stapi/OneDrive/Desktop/GD32VW553/V1_MQTT_OK/GD32VW55X_Wifi_BLE_SDK/GD32VW55x_RELEASE_V1.0.2/MSDK/wpa_supplicant/src/tls\tlsv1_client_write.c **** 		wpa_printf(MSG_ERROR, "TLSv1: Could not generate "
 528              		.loc 1 67 5
 529 0094 19C5     		beq	a0,zero,.L22
  68:C:/Users/stapi/OneDrive/Desktop/GD32VW553/V1_MQTT_OK/GD32VW55X_Wifi_BLE_SDK/GD32VW55x_RELEASE_V1.0.2/MSDK/wpa_supplicant/src/tls\tlsv1_client_write.c **** 			   "client_random");
 530              		.loc 1 68 3 is_stmt 1
 531 0096 B7050000 		lui	a1,%hi(.LC9)
 532 009a 93850500 		addi	a1,a1,%lo(.LC9)
 533 009e 1545     		li	a0,5
 534 00a0 49B7     		j	.L40
 535              	.L22:
  72:C:/Users/stapi/OneDrive/Desktop/GD32VW553/V1_MQTT_OK/GD32VW55X_Wifi_BLE_SDK/GD32VW55x_RELEASE_V1.0.2/MSDK/wpa_supplicant/src/tls\tlsv1_client_write.c **** 		    conn->client_random, TLS_RANDOM_LEN);
 536              		.loc 1 72 2
 537 00a2 B7050000 		lui	a1,%hi(.LC10)
 538 00a6 93060002 		li	a3,32
 539 00aa 4E86     		mv	a2,s3
 540 00ac 93850500 		addi	a1,a1,%lo(.LC10)
 541 00b0 0545     		li	a0,1
 542 00b2 97000000 		call	wpa_hexdump
 542      E7800000 
 543              	.LVL35:
  75:C:/Users/stapi/OneDrive/Desktop/GD32VW553/V1_MQTT_OK/GD32VW55X_Wifi_BLE_SDK/GD32VW55x_RELEASE_V1.0.2/MSDK/wpa_supplicant/src/tls\tlsv1_client_write.c **** 	hello = os_malloc(len);
 544              		.loc 1 75 2
  75:C:/Users/stapi/OneDrive/Desktop/GD32VW553/V1_MQTT_OK/GD32VW55X_Wifi_BLE_SDK/GD32VW55x_RELEASE_V1.0.2/MSDK/wpa_supplicant/src/tls\tlsv1_client_write.c **** 	hello = os_malloc(len);
 545              		.loc 1 75 12 is_stmt 0
 546 00ba 03AA041E 		lw	s4,480(s1)
  75:C:/Users/stapi/OneDrive/Desktop/GD32VW553/V1_MQTT_OK/GD32VW55X_Wifi_BLE_SDK/GD32VW55x_RELEASE_V1.0.2/MSDK/wpa_supplicant/src/tls\tlsv1_client_write.c **** 	hello = os_malloc(len);
 547              		.loc 1 75 6
 548 00be 83A7C41E 		lw	a5,492(s1)
  75:C:/Users/stapi/OneDrive/Desktop/GD32VW553/V1_MQTT_OK/GD32VW55X_Wifi_BLE_SDK/GD32VW55x_RELEASE_V1.0.2/MSDK/wpa_supplicant/src/tls\tlsv1_client_write.c **** 	hello = os_malloc(len);
 549              		.loc 1 75 12
 550 00c2 130ABA04 		addi	s4,s4,75
  75:C:/Users/stapi/OneDrive/Desktop/GD32VW553/V1_MQTT_OK/GD32VW55X_Wifi_BLE_SDK/GD32VW55x_RELEASE_V1.0.2/MSDK/wpa_supplicant/src/tls\tlsv1_client_write.c **** 	hello = os_malloc(len);
 551              		.loc 1 75 6
 552 00c6 332AFA20 		sh1add	s4,s4,a5
 553              	.LVL36:
  76:C:/Users/stapi/OneDrive/Desktop/GD32VW553/V1_MQTT_OK/GD32VW55X_Wifi_BLE_SDK/GD32VW55x_RELEASE_V1.0.2/MSDK/wpa_supplicant/src/tls\tlsv1_client_write.c **** 	if (hello == NULL)
 554              		.loc 1 76 2 is_stmt 1
  76:C:/Users/stapi/OneDrive/Desktop/GD32VW553/V1_MQTT_OK/GD32VW55X_Wifi_BLE_SDK/GD32VW55x_RELEASE_V1.0.2/MSDK/wpa_supplicant/src/tls\tlsv1_client_write.c **** 	if (hello == NULL)
 555              		.loc 1 76 10 is_stmt 0
 556 00ca 5285     		mv	a0,s4
 557 00cc 97000000 		call	os_malloc
 557      E7800000 
 558              	.LVL37:
 559 00d4 2A89     		mv	s2,a0
 560              	.LVL38:
  77:C:/Users/stapi/OneDrive/Desktop/GD32VW553/V1_MQTT_OK/GD32VW55X_Wifi_BLE_SDK/GD32VW55x_RELEASE_V1.0.2/MSDK/wpa_supplicant/src/tls\tlsv1_client_write.c **** 		return NULL;
 561              		.loc 1 77 2 is_stmt 1
  77:C:/Users/stapi/OneDrive/Desktop/GD32VW553/V1_MQTT_OK/GD32VW55X_Wifi_BLE_SDK/GD32VW55x_RELEASE_V1.0.2/MSDK/wpa_supplicant/src/tls\tlsv1_client_write.c **** 		return NULL;
 562              		.loc 1 77 5 is_stmt 0
 563 00d6 39D9     		beq	a0,zero,.L19
  79:C:/Users/stapi/OneDrive/Desktop/GD32VW553/V1_MQTT_OK/GD32VW55X_Wifi_BLE_SDK/GD32VW55x_RELEASE_V1.0.2/MSDK/wpa_supplicant/src/tls\tlsv1_client_write.c **** 
 564              		.loc 1 79 2 is_stmt 1
 565              	.LVL39:
  81:C:/Users/stapi/OneDrive/Desktop/GD32VW553/V1_MQTT_OK/GD32VW55X_Wifi_BLE_SDK/GD32VW55x_RELEASE_V1.0.2/MSDK/wpa_supplicant/src/tls\tlsv1_client_write.c **** 	pos = rhdr + TLS_RECORD_HEADER_LEN;
 566              		.loc 1 81 2
  82:C:/Users/stapi/OneDrive/Desktop/GD32VW553/V1_MQTT_OK/GD32VW55X_Wifi_BLE_SDK/GD32VW55x_RELEASE_V1.0.2/MSDK/wpa_supplicant/src/tls\tlsv1_client_write.c **** 
 567              		.loc 1 82 2
  89:C:/Users/stapi/OneDrive/Desktop/GD32VW553/V1_MQTT_OK/GD32VW55X_Wifi_BLE_SDK/GD32VW55x_RELEASE_V1.0.2/MSDK/wpa_supplicant/src/tls\tlsv1_client_write.c **** 	/* uint24 length (to be filled) */
 568              		.loc 1 89 9 is_stmt 0
 569 00d8 8547     		li	a5,1
 570 00da A302F500 		sb	a5,5(a0)
 571              	.LBB74:
 572              	.LBB75:
 247:..\..\..\..\wpa_supplicant\src\utils/common.h **** 	a[1] = val & 0xff;
 573              		.loc 2 247 7
 574 00de 93578400 		srli	a5,s0,8
 575 00e2 A304F500 		sb	a5,9(a0)
 248:..\..\..\..\wpa_supplicant\src\utils/common.h **** }
 576              		.loc 2 248 7
 577 00e6 23058500 		sb	s0,10(a0)
 578              	.LBE75:
 579              	.LBE74:
  98:C:/Users/stapi/OneDrive/Desktop/GD32VW553/V1_MQTT_OK/GD32VW55X_Wifi_BLE_SDK/GD32VW55x_RELEASE_V1.0.2/MSDK/wpa_supplicant/src/tls\tlsv1_client_write.c **** 	pos += TLS_RANDOM_LEN;
 580              		.loc 1 98 2
 581 00ea CE85     		mv	a1,s3
 582 00ec 13060002 		li	a2,32
  82:C:/Users/stapi/OneDrive/Desktop/GD32VW553/V1_MQTT_OK/GD32VW55X_Wifi_BLE_SDK/GD32VW55x_RELEASE_V1.0.2/MSDK/wpa_supplicant/src/tls\tlsv1_client_write.c **** 
 583              		.loc 1 82 6
 584 00f0 130B5500 		addi	s6,a0,5
 585              	.LVL40:
  87:C:/Users/stapi/OneDrive/Desktop/GD32VW553/V1_MQTT_OK/GD32VW55X_Wifi_BLE_SDK/GD32VW55x_RELEASE_V1.0.2/MSDK/wpa_supplicant/src/tls\tlsv1_client_write.c **** 	/* HandshakeType msg_type */
 586              		.loc 1 87 2 is_stmt 1
  89:C:/Users/stapi/OneDrive/Desktop/GD32VW553/V1_MQTT_OK/GD32VW55X_Wifi_BLE_SDK/GD32VW55x_RELEASE_V1.0.2/MSDK/wpa_supplicant/src/tls\tlsv1_client_write.c **** 	/* uint24 length (to be filled) */
 587              		.loc 1 89 2
  89:C:/Users/stapi/OneDrive/Desktop/GD32VW553/V1_MQTT_OK/GD32VW55X_Wifi_BLE_SDK/GD32VW55x_RELEASE_V1.0.2/MSDK/wpa_supplicant/src/tls\tlsv1_client_write.c **** 	/* uint24 length (to be filled) */
 588              		.loc 1 89 6 is_stmt 0
 589 00f4 930B6500 		addi	s7,a0,6
 590              	.LVL41:
  91:C:/Users/stapi/OneDrive/Desktop/GD32VW553/V1_MQTT_OK/GD32VW55X_Wifi_BLE_SDK/GD32VW55x_RELEASE_V1.0.2/MSDK/wpa_supplicant/src/tls\tlsv1_client_write.c **** 	pos += 3;
 591              		.loc 1 91 2 is_stmt 1
  92:C:/Users/stapi/OneDrive/Desktop/GD32VW553/V1_MQTT_OK/GD32VW55X_Wifi_BLE_SDK/GD32VW55x_RELEASE_V1.0.2/MSDK/wpa_supplicant/src/tls\tlsv1_client_write.c **** 	/* body - ClientHello */
 592              		.loc 1 92 2
  95:C:/Users/stapi/OneDrive/Desktop/GD32VW553/V1_MQTT_OK/GD32VW55X_Wifi_BLE_SDK/GD32VW55x_RELEASE_V1.0.2/MSDK/wpa_supplicant/src/tls\tlsv1_client_write.c **** 	pos += 2;
 593              		.loc 1 95 2
 594              	.LBB77:
 595              	.LBB76:
 247:..\..\..\..\wpa_supplicant\src\utils/common.h **** 	a[1] = val & 0xff;
 596              		.loc 2 247 2
 248:..\..\..\..\wpa_supplicant\src\utils/common.h **** }
 597              		.loc 2 248 2
 598              	.LBE76:
 599              	.LBE77:
  96:C:/Users/stapi/OneDrive/Desktop/GD32VW553/V1_MQTT_OK/GD32VW55X_Wifi_BLE_SDK/GD32VW55x_RELEASE_V1.0.2/MSDK/wpa_supplicant/src/tls\tlsv1_client_write.c **** 	/* Random random: uint32 gmt_unix_time, opaque random_bytes */
 600              		.loc 1 96 2
  98:C:/Users/stapi/OneDrive/Desktop/GD32VW553/V1_MQTT_OK/GD32VW55X_Wifi_BLE_SDK/GD32VW55x_RELEASE_V1.0.2/MSDK/wpa_supplicant/src/tls\tlsv1_client_write.c **** 	pos += TLS_RANDOM_LEN;
 601              		.loc 1 98 2
 602 00f8 2D05     		addi	a0,a0,11
 603              	.LVL42:
 604 00fa 97000000 		call	os_memcpy
 604      E7800000 
 605              	.LVL43:
  99:C:/Users/stapi/OneDrive/Desktop/GD32VW553/V1_MQTT_OK/GD32VW55X_Wifi_BLE_SDK/GD32VW55x_RELEASE_V1.0.2/MSDK/wpa_supplicant/src/tls\tlsv1_client_write.c **** 	/* SessionID session_id */
 606              		.loc 1 99 2
 101:C:/Users/stapi/OneDrive/Desktop/GD32VW553/V1_MQTT_OK/GD32VW55X_Wifi_BLE_SDK/GD32VW55x_RELEASE_V1.0.2/MSDK/wpa_supplicant/src/tls\tlsv1_client_write.c **** 	os_memcpy(pos, conn->session_id, conn->session_id_len);
 607              		.loc 1 101 2
 101:C:/Users/stapi/OneDrive/Desktop/GD32VW553/V1_MQTT_OK/GD32VW55X_Wifi_BLE_SDK/GD32VW55x_RELEASE_V1.0.2/MSDK/wpa_supplicant/src/tls\tlsv1_client_write.c **** 	os_memcpy(pos, conn->session_id, conn->session_id_len);
 608              		.loc 1 101 9 is_stmt 0
 609 0102 13840408 		addi	s0,s1,128
 610 0106 7C5C     		lw	a5,124(s0)
 101:C:/Users/stapi/OneDrive/Desktop/GD32VW553/V1_MQTT_OK/GD32VW55X_Wifi_BLE_SDK/GD32VW55x_RELEASE_V1.0.2/MSDK/wpa_supplicant/src/tls\tlsv1_client_write.c **** 	os_memcpy(pos, conn->session_id, conn->session_id_len);
 611              		.loc 1 101 6
 612 0108 9309C902 		addi	s3,s2,44
 613              	.LVL44:
 102:C:/Users/stapi/OneDrive/Desktop/GD32VW553/V1_MQTT_OK/GD32VW55X_Wifi_BLE_SDK/GD32VW55x_RELEASE_V1.0.2/MSDK/wpa_supplicant/src/tls\tlsv1_client_write.c **** 	pos += conn->session_id_len;
 614              		.loc 1 102 2
 615 010c 4E85     		mv	a0,s3
 101:C:/Users/stapi/OneDrive/Desktop/GD32VW553/V1_MQTT_OK/GD32VW55X_Wifi_BLE_SDK/GD32VW55x_RELEASE_V1.0.2/MSDK/wpa_supplicant/src/tls\tlsv1_client_write.c **** 	os_memcpy(pos, conn->session_id, conn->session_id_len);
 616              		.loc 1 101 9
 617 010e A305F902 		sb	a5,43(s2)
 102:C:/Users/stapi/OneDrive/Desktop/GD32VW553/V1_MQTT_OK/GD32VW55X_Wifi_BLE_SDK/GD32VW55x_RELEASE_V1.0.2/MSDK/wpa_supplicant/src/tls\tlsv1_client_write.c **** 	pos += conn->session_id_len;
 618              		.loc 1 102 2 is_stmt 1
 619 0112 705C     		lw	a2,124(s0)
 620 0114 9385C40D 		addi	a1,s1,220
 621 0118 97000000 		call	os_memcpy
 621      E7800000 
 622              	.LVL45:
 103:C:/Users/stapi/OneDrive/Desktop/GD32VW553/V1_MQTT_OK/GD32VW55X_Wifi_BLE_SDK/GD32VW55x_RELEASE_V1.0.2/MSDK/wpa_supplicant/src/tls\tlsv1_client_write.c **** 	/* CipherSuite cipher_suites<2..2^16-1> */
 623              		.loc 1 103 2
 103:C:/Users/stapi/OneDrive/Desktop/GD32VW553/V1_MQTT_OK/GD32VW55X_Wifi_BLE_SDK/GD32VW55x_RELEASE_V1.0.2/MSDK/wpa_supplicant/src/tls\tlsv1_client_write.c **** 	/* CipherSuite cipher_suites<2..2^16-1> */
 624              		.loc 1 103 6 is_stmt 0
 625 0120 7C5C     		lw	a5,124(s0)
 626 0122 BE99     		add	s3,s3,a5
 627              	.LVL46:
 105:C:/Users/stapi/OneDrive/Desktop/GD32VW553/V1_MQTT_OK/GD32VW55X_Wifi_BLE_SDK/GD32VW55x_RELEASE_V1.0.2/MSDK/wpa_supplicant/src/tls\tlsv1_client_write.c **** 	pos += 2;
 628              		.loc 1 105 2 is_stmt 1
 629 0124 83A7041E 		lw	a5,480(s1)
 106:C:/Users/stapi/OneDrive/Desktop/GD32VW553/V1_MQTT_OK/GD32VW55X_Wifi_BLE_SDK/GD32VW55x_RELEASE_V1.0.2/MSDK/wpa_supplicant/src/tls\tlsv1_client_write.c **** 	for (i = 0; i < conn->num_cipher_suites; i++) {
 630              		.loc 1 106 6 is_stmt 0
 631 0128 8909     		addi	s3,s3,2
 632              	.LVL47:
 105:C:/Users/stapi/OneDrive/Desktop/GD32VW553/V1_MQTT_OK/GD32VW55X_Wifi_BLE_SDK/GD32VW55x_RELEASE_V1.0.2/MSDK/wpa_supplicant/src/tls\tlsv1_client_write.c **** 	pos += 2;
 633              		.loc 1 105 2
 634 012a 8607     		slli	a5,a5,1
 635 012c B3C70708 		zext.h	a5,a5
 636              	.LVL48:
 637              	.LBB78:
 638              	.LBB79:
 247:..\..\..\..\wpa_supplicant\src\utils/common.h **** 	a[1] = val & 0xff;
 639              		.loc 2 247 2 is_stmt 1
 247:..\..\..\..\wpa_supplicant\src\utils/common.h **** 	a[1] = val & 0xff;
 640              		.loc 2 247 7 is_stmt 0
 641 0130 13D78700 		srli	a4,a5,8
 642 0134 238FE9FE 		sb	a4,-2(s3)
 248:..\..\..\..\wpa_supplicant\src\utils/common.h **** }
 643              		.loc 2 248 2 is_stmt 1
 248:..\..\..\..\wpa_supplicant\src\utils/common.h **** }
 644              		.loc 2 248 7 is_stmt 0
 645 0138 A38FF9FE 		sb	a5,-1(s3)
 646              	.LVL49:
 647              	.LBE79:
 648              	.LBE78:
 106:C:/Users/stapi/OneDrive/Desktop/GD32VW553/V1_MQTT_OK/GD32VW55X_Wifi_BLE_SDK/GD32VW55x_RELEASE_V1.0.2/MSDK/wpa_supplicant/src/tls\tlsv1_client_write.c **** 	for (i = 0; i < conn->num_cipher_suites; i++) {
 649              		.loc 1 106 2 is_stmt 1
 107:C:/Users/stapi/OneDrive/Desktop/GD32VW553/V1_MQTT_OK/GD32VW55X_Wifi_BLE_SDK/GD32VW55x_RELEASE_V1.0.2/MSDK/wpa_supplicant/src/tls\tlsv1_client_write.c **** 		WPA_PUT_BE16(pos, conn->cipher_suites[i]);
 650              		.loc 1 107 2
 651 013c 1387441A 		addi	a4,s1,420
 107:C:/Users/stapi/OneDrive/Desktop/GD32VW553/V1_MQTT_OK/GD32VW55X_Wifi_BLE_SDK/GD32VW55x_RELEASE_V1.0.2/MSDK/wpa_supplicant/src/tls\tlsv1_client_write.c **** 		WPA_PUT_BE16(pos, conn->cipher_suites[i]);
 652              		.loc 1 107 9 is_stmt 0
 653 0140 8147     		li	a5,0
 654              	.LVL50:
 655              	.L23:
 107:C:/Users/stapi/OneDrive/Desktop/GD32VW553/V1_MQTT_OK/GD32VW55X_Wifi_BLE_SDK/GD32VW55x_RELEASE_V1.0.2/MSDK/wpa_supplicant/src/tls\tlsv1_client_write.c **** 		WPA_PUT_BE16(pos, conn->cipher_suites[i]);
 656              		.loc 1 107 14 is_stmt 1 discriminator 1
 107:C:/Users/stapi/OneDrive/Desktop/GD32VW553/V1_MQTT_OK/GD32VW55X_Wifi_BLE_SDK/GD32VW55x_RELEASE_V1.0.2/MSDK/wpa_supplicant/src/tls\tlsv1_client_write.c **** 		WPA_PUT_BE16(pos, conn->cipher_suites[i]);
 657              		.loc 1 107 2 is_stmt 0 discriminator 1
 658 0142 83A6041E 		lw	a3,480(s1)
 659 0146 63EAD712 		bgtu	a3,a5,.L24
 112:C:/Users/stapi/OneDrive/Desktop/GD32VW553/V1_MQTT_OK/GD32VW55X_Wifi_BLE_SDK/GD32VW55x_RELEASE_V1.0.2/MSDK/wpa_supplicant/src/tls\tlsv1_client_write.c **** 	*pos++ = TLS_COMPRESSION_NULL;
 660              		.loc 1 112 2 is_stmt 1
 661              	.LVL51:
 112:C:/Users/stapi/OneDrive/Desktop/GD32VW553/V1_MQTT_OK/GD32VW55X_Wifi_BLE_SDK/GD32VW55x_RELEASE_V1.0.2/MSDK/wpa_supplicant/src/tls\tlsv1_client_write.c **** 	*pos++ = TLS_COMPRESSION_NULL;
 662              		.loc 1 112 9 is_stmt 0
 663 014a 8547     		li	a5,1
 664              	.LVL52:
 665 014c 2380F900 		sb	a5,0(s3)
 113:C:/Users/stapi/OneDrive/Desktop/GD32VW553/V1_MQTT_OK/GD32VW55X_Wifi_BLE_SDK/GD32VW55x_RELEASE_V1.0.2/MSDK/wpa_supplicant/src/tls\tlsv1_client_write.c **** 
 666              		.loc 1 113 2 is_stmt 1
 667              	.LVL53:
 113:C:/Users/stapi/OneDrive/Desktop/GD32VW553/V1_MQTT_OK/GD32VW55X_Wifi_BLE_SDK/GD32VW55x_RELEASE_V1.0.2/MSDK/wpa_supplicant/src/tls\tlsv1_client_write.c **** 
 668              		.loc 1 113 9 is_stmt 0
 669 0150 A3800900 		sb	zero,1(s3)
 116:C:/Users/stapi/OneDrive/Desktop/GD32VW553/V1_MQTT_OK/GD32VW55X_Wifi_BLE_SDK/GD32VW55x_RELEASE_V1.0.2/MSDK/wpa_supplicant/src/tls\tlsv1_client_write.c **** 	pos += 2;
 670              		.loc 1 116 2 is_stmt 1
 671              	.LVL54:
 117:C:/Users/stapi/OneDrive/Desktop/GD32VW553/V1_MQTT_OK/GD32VW55X_Wifi_BLE_SDK/GD32VW55x_RELEASE_V1.0.2/MSDK/wpa_supplicant/src/tls\tlsv1_client_write.c **** 
 672              		.loc 1 117 2
 144:C:/Users/stapi/OneDrive/Desktop/GD32VW553/V1_MQTT_OK/GD32VW55X_Wifi_BLE_SDK/GD32VW55x_RELEASE_V1.0.2/MSDK/wpa_supplicant/src/tls\tlsv1_client_write.c **** 		os_memcpy(pos, conn->client_hello_ext,
 673              		.loc 1 144 10 is_stmt 0
 674 0154 83A5841E 		lw	a1,488(s1)
 117:C:/Users/stapi/OneDrive/Desktop/GD32VW553/V1_MQTT_OK/GD32VW55X_Wifi_BLE_SDK/GD32VW55x_RELEASE_V1.0.2/MSDK/wpa_supplicant/src/tls\tlsv1_client_write.c **** 
 675              		.loc 1 117 6
 676 0158 138C4900 		addi	s8,s3,4
 677              	.LVL55:
 144:C:/Users/stapi/OneDrive/Desktop/GD32VW553/V1_MQTT_OK/GD32VW55X_Wifi_BLE_SDK/GD32VW55x_RELEASE_V1.0.2/MSDK/wpa_supplicant/src/tls\tlsv1_client_write.c **** 		os_memcpy(pos, conn->client_hello_ext,
 678              		.loc 1 144 2 is_stmt 1
 117:C:/Users/stapi/OneDrive/Desktop/GD32VW553/V1_MQTT_OK/GD32VW55X_Wifi_BLE_SDK/GD32VW55x_RELEASE_V1.0.2/MSDK/wpa_supplicant/src/tls\tlsv1_client_write.c **** 
 679              		.loc 1 117 6 is_stmt 0
 680 015c 6284     		mv	s0,s8
 144:C:/Users/stapi/OneDrive/Desktop/GD32VW553/V1_MQTT_OK/GD32VW55X_Wifi_BLE_SDK/GD32VW55x_RELEASE_V1.0.2/MSDK/wpa_supplicant/src/tls\tlsv1_client_write.c **** 		os_memcpy(pos, conn->client_hello_ext,
 681              		.loc 1 144 5
 682 015e 99C9     		beq	a1,zero,.L25
 145:C:/Users/stapi/OneDrive/Desktop/GD32VW553/V1_MQTT_OK/GD32VW55X_Wifi_BLE_SDK/GD32VW55x_RELEASE_V1.0.2/MSDK/wpa_supplicant/src/tls\tlsv1_client_write.c **** 			  conn->client_hello_ext_len);
 683              		.loc 1 145 3 is_stmt 1
 684 0160 03A6C41E 		lw	a2,492(s1)
 685 0164 6285     		mv	a0,s8
 686 0166 97000000 		call	os_memcpy
 686      E7800000 
 687              	.LVL56:
 147:C:/Users/stapi/OneDrive/Desktop/GD32VW553/V1_MQTT_OK/GD32VW55X_Wifi_BLE_SDK/GD32VW55x_RELEASE_V1.0.2/MSDK/wpa_supplicant/src/tls\tlsv1_client_write.c **** 	}
 688              		.loc 1 147 3
 147:C:/Users/stapi/OneDrive/Desktop/GD32VW553/V1_MQTT_OK/GD32VW55X_Wifi_BLE_SDK/GD32VW55x_RELEASE_V1.0.2/MSDK/wpa_supplicant/src/tls\tlsv1_client_write.c **** 	}
 689              		.loc 1 147 7 is_stmt 0
 690 016e 03A4C41E 		lw	s0,492(s1)
 691 0172 6294     		add	s0,s8,s0
 692              	.LVL57:
 693              	.L25:
 150:C:/Users/stapi/OneDrive/Desktop/GD32VW553/V1_MQTT_OK/GD32VW55X_Wifi_BLE_SDK/GD32VW55x_RELEASE_V1.0.2/MSDK/wpa_supplicant/src/tls\tlsv1_client_write.c **** 		wpa_printf(MSG_DEBUG,
 694              		.loc 1 150 2 is_stmt 1
 150:C:/Users/stapi/OneDrive/Desktop/GD32VW553/V1_MQTT_OK/GD32VW55X_Wifi_BLE_SDK/GD32VW55x_RELEASE_V1.0.2/MSDK/wpa_supplicant/src/tls\tlsv1_client_write.c **** 		wpa_printf(MSG_DEBUG,
 695              		.loc 1 150 18 is_stmt 0
 696 0174 83A74417 		lw	a5,372(s1)
 697 0178 A18B     		andi	a5,a5,8
 150:C:/Users/stapi/OneDrive/Desktop/GD32VW553/V1_MQTT_OK/GD32VW55X_Wifi_BLE_SDK/GD32VW55x_RELEASE_V1.0.2/MSDK/wpa_supplicant/src/tls\tlsv1_client_write.c **** 		wpa_printf(MSG_DEBUG,
 698              		.loc 1 150 5
 699 017a C9C3     		beq	a5,zero,.L26
 151:C:/Users/stapi/OneDrive/Desktop/GD32VW553/V1_MQTT_OK/GD32VW55X_Wifi_BLE_SDK/GD32VW55x_RELEASE_V1.0.2/MSDK/wpa_supplicant/src/tls\tlsv1_client_write.c **** 			   "TLSv1: Add status_request extension for OCSP stapling");
 700              		.loc 1 151 3 is_stmt 1
 701 017c B7050000 		lui	a1,%hi(.LC11)
 702 0180 93850500 		addi	a1,a1,%lo(.LC11)
 703 0184 0945     		li	a0,2
 704 0186 97000000 		call	wpa_printf
 704      E7800000 
 705              	.LVL58:
 154:C:/Users/stapi/OneDrive/Desktop/GD32VW553/V1_MQTT_OK/GD32VW55X_Wifi_BLE_SDK/GD32VW55x_RELEASE_V1.0.2/MSDK/wpa_supplicant/src/tls\tlsv1_client_write.c **** 		pos += 2;
 706              		.loc 1 154 3
 707              	.LBB80:
 708              	.LBB81:
 247:..\..\..\..\wpa_supplicant\src\utils/common.h **** 	a[1] = val & 0xff;
 709              		.loc 2 247 2
 248:..\..\..\..\wpa_supplicant\src\utils/common.h **** }
 710              		.loc 2 248 7 is_stmt 0
 711 018e 954C     		li	s9,5
 712              	.LBE81:
 713              	.LBE80:
 171:C:/Users/stapi/OneDrive/Desktop/GD32VW553/V1_MQTT_OK/GD32VW55X_Wifi_BLE_SDK/GD32VW55x_RELEASE_V1.0.2/MSDK/wpa_supplicant/src/tls\tlsv1_client_write.c **** 
 714              		.loc 1 171 10
 715 0190 8547     		li	a5,1
 187:C:/Users/stapi/OneDrive/Desktop/GD32VW553/V1_MQTT_OK/GD32VW55X_Wifi_BLE_SDK/GD32VW55x_RELEASE_V1.0.2/MSDK/wpa_supplicant/src/tls\tlsv1_client_write.c **** 			   "TLSv1: Add status_request_v2 extension for OCSP stapling");
 716              		.loc 1 187 3
 717 0192 B7050000 		lui	a1,%hi(.LC12)
 171:C:/Users/stapi/OneDrive/Desktop/GD32VW553/V1_MQTT_OK/GD32VW55X_Wifi_BLE_SDK/GD32VW55x_RELEASE_V1.0.2/MSDK/wpa_supplicant/src/tls\tlsv1_client_write.c **** 
 718              		.loc 1 171 10
 719 0196 2302F400 		sb	a5,4(s0)
 720              	.LBB83:
 721              	.LBB82:
 247:..\..\..\..\wpa_supplicant\src\utils/common.h **** 	a[1] = val & 0xff;
 722              		.loc 2 247 7
 723 019a 23000400 		sb	zero,0(s0)
 248:..\..\..\..\wpa_supplicant\src\utils/common.h **** }
 724              		.loc 2 248 2 is_stmt 1
 248:..\..\..\..\wpa_supplicant\src\utils/common.h **** }
 725              		.loc 2 248 7 is_stmt 0
 726 019e A3009401 		sb	s9,1(s0)
 727              	.LVL59:
 728              	.LBE82:
 729              	.LBE83:
 155:C:/Users/stapi/OneDrive/Desktop/GD32VW553/V1_MQTT_OK/GD32VW55X_Wifi_BLE_SDK/GD32VW55x_RELEASE_V1.0.2/MSDK/wpa_supplicant/src/tls\tlsv1_client_write.c **** 		/* opaque extension_data<0..2^16-1> length */
 730              		.loc 1 155 3 is_stmt 1
 157:C:/Users/stapi/OneDrive/Desktop/GD32VW553/V1_MQTT_OK/GD32VW55X_Wifi_BLE_SDK/GD32VW55x_RELEASE_V1.0.2/MSDK/wpa_supplicant/src/tls\tlsv1_client_write.c **** 		pos += 2;
 731              		.loc 1 157 3
 732              	.LBB84:
 733              	.LBB85:
 247:..\..\..\..\wpa_supplicant\src\utils/common.h **** 	a[1] = val & 0xff;
 734              		.loc 2 247 2
 247:..\..\..\..\wpa_supplicant\src\utils/common.h **** 	a[1] = val & 0xff;
 735              		.loc 2 247 7 is_stmt 0
 736 01a2 23010400 		sb	zero,2(s0)
 248:..\..\..\..\wpa_supplicant\src\utils/common.h **** }
 737              		.loc 2 248 2 is_stmt 1
 248:..\..\..\..\wpa_supplicant\src\utils/common.h **** }
 738              		.loc 2 248 7 is_stmt 0
 739 01a6 A3019401 		sb	s9,3(s0)
 740              	.LVL60:
 741              	.LBE85:
 742              	.LBE84:
 158:C:/Users/stapi/OneDrive/Desktop/GD32VW553/V1_MQTT_OK/GD32VW55X_Wifi_BLE_SDK/GD32VW55x_RELEASE_V1.0.2/MSDK/wpa_supplicant/src/tls\tlsv1_client_write.c **** 
 743              		.loc 1 158 3 is_stmt 1
 171:C:/Users/stapi/OneDrive/Desktop/GD32VW553/V1_MQTT_OK/GD32VW55X_Wifi_BLE_SDK/GD32VW55x_RELEASE_V1.0.2/MSDK/wpa_supplicant/src/tls\tlsv1_client_write.c **** 
 744              		.loc 1 171 3
 182:C:/Users/stapi/OneDrive/Desktop/GD32VW553/V1_MQTT_OK/GD32VW55X_Wifi_BLE_SDK/GD32VW55x_RELEASE_V1.0.2/MSDK/wpa_supplicant/src/tls\tlsv1_client_write.c **** 		pos += 2;
 745              		.loc 1 182 3
 746              	.LBB86:
 747              	.LBB87:
 247:..\..\..\..\wpa_supplicant\src\utils/common.h **** 	a[1] = val & 0xff;
 748              		.loc 2 247 2
 247:..\..\..\..\wpa_supplicant\src\utils/common.h **** 	a[1] = val & 0xff;
 749              		.loc 2 247 7 is_stmt 0
 750 01aa A3020400 		sb	zero,5(s0)
 248:..\..\..\..\wpa_supplicant\src\utils/common.h **** }
 751              		.loc 2 248 2 is_stmt 1
 248:..\..\..\..\wpa_supplicant\src\utils/common.h **** }
 752              		.loc 2 248 7 is_stmt 0
 753 01ae 23030400 		sb	zero,6(s0)
 754              	.LVL61:
 755              	.LBE87:
 756              	.LBE86:
 183:C:/Users/stapi/OneDrive/Desktop/GD32VW553/V1_MQTT_OK/GD32VW55X_Wifi_BLE_SDK/GD32VW55x_RELEASE_V1.0.2/MSDK/wpa_supplicant/src/tls\tlsv1_client_write.c **** 		WPA_PUT_BE16(pos, 0); /* request_extensions(empty) */
 757              		.loc 1 183 3 is_stmt 1
 184:C:/Users/stapi/OneDrive/Desktop/GD32VW553/V1_MQTT_OK/GD32VW55X_Wifi_BLE_SDK/GD32VW55x_RELEASE_V1.0.2/MSDK/wpa_supplicant/src/tls\tlsv1_client_write.c **** 		pos += 2;
 758              		.loc 1 184 3
 759              	.LBB88:
 760              	.LBB89:
 247:..\..\..\..\wpa_supplicant\src\utils/common.h **** 	a[1] = val & 0xff;
 761              		.loc 2 247 2
 247:..\..\..\..\wpa_supplicant\src\utils/common.h **** 	a[1] = val & 0xff;
 762              		.loc 2 247 7 is_stmt 0
 763 01b2 A3030400 		sb	zero,7(s0)
 248:..\..\..\..\wpa_supplicant\src\utils/common.h **** }
 764              		.loc 2 248 2 is_stmt 1
 248:..\..\..\..\wpa_supplicant\src\utils/common.h **** }
 765              		.loc 2 248 7 is_stmt 0
 766 01b6 23040400 		sb	zero,8(s0)
 767              	.LVL62:
 768              	.LBE89:
 769              	.LBE88:
 185:C:/Users/stapi/OneDrive/Desktop/GD32VW553/V1_MQTT_OK/GD32VW55X_Wifi_BLE_SDK/GD32VW55x_RELEASE_V1.0.2/MSDK/wpa_supplicant/src/tls\tlsv1_client_write.c **** 
 770              		.loc 1 185 3 is_stmt 1
 187:C:/Users/stapi/OneDrive/Desktop/GD32VW553/V1_MQTT_OK/GD32VW55X_Wifi_BLE_SDK/GD32VW55x_RELEASE_V1.0.2/MSDK/wpa_supplicant/src/tls\tlsv1_client_write.c **** 			   "TLSv1: Add status_request_v2 extension for OCSP stapling");
 771              		.loc 1 187 3
 772 01ba 93850500 		addi	a1,a1,%lo(.LC12)
 773 01be 0945     		li	a0,2
 774 01c0 97000000 		call	wpa_printf
 774      E7800000 
 775              	.LVL63:
 190:C:/Users/stapi/OneDrive/Desktop/GD32VW553/V1_MQTT_OK/GD32VW55X_Wifi_BLE_SDK/GD32VW55x_RELEASE_V1.0.2/MSDK/wpa_supplicant/src/tls\tlsv1_client_write.c **** 		pos += 2;
 776              		.loc 1 190 3
 777              	.LBB90:
 778              	.LBB91:
 247:..\..\..\..\wpa_supplicant\src\utils/common.h **** 	a[1] = val & 0xff;
 779              		.loc 2 247 2
 248:..\..\..\..\wpa_supplicant\src\utils/common.h **** }
 780              		.loc 2 248 7 is_stmt 0
 781 01c8 C547     		li	a5,17
 782 01ca 2305F400 		sb	a5,10(s0)
 783              	.LBE91:
 784              	.LBE90:
 785              	.LBB93:
 786              	.LBB94:
 787 01ce 9D47     		li	a5,7
 788 01d0 2306F400 		sb	a5,12(s0)
 789              	.LBE94:
 790              	.LBE93:
 220:C:/Users/stapi/OneDrive/Desktop/GD32VW553/V1_MQTT_OK/GD32VW55X_Wifi_BLE_SDK/GD32VW55x_RELEASE_V1.0.2/MSDK/wpa_supplicant/src/tls\tlsv1_client_write.c **** 		/* OCSPStatusRequest as shown above for v1 */
 791              		.loc 1 220 10
 792 01d4 8947     		li	a5,2
 793              	.LBB96:
 794              	.LBB92:
 247:..\..\..\..\wpa_supplicant\src\utils/common.h **** 	a[1] = val & 0xff;
 795              		.loc 2 247 7
 796 01d6 A3040400 		sb	zero,9(s0)
 248:..\..\..\..\wpa_supplicant\src\utils/common.h **** }
 797              		.loc 2 248 2 is_stmt 1
 798              	.LVL64:
 799              	.LBE92:
 800              	.LBE96:
 191:C:/Users/stapi/OneDrive/Desktop/GD32VW553/V1_MQTT_OK/GD32VW55X_Wifi_BLE_SDK/GD32VW55x_RELEASE_V1.0.2/MSDK/wpa_supplicant/src/tls\tlsv1_client_write.c **** 		/* opaque extension_data<0..2^16-1> length */
 801              		.loc 1 191 3
 193:C:/Users/stapi/OneDrive/Desktop/GD32VW553/V1_MQTT_OK/GD32VW55X_Wifi_BLE_SDK/GD32VW55x_RELEASE_V1.0.2/MSDK/wpa_supplicant/src/tls\tlsv1_client_write.c **** 		pos += 2;
 802              		.loc 1 193 3
 803              	.LBB97:
 804              	.LBB95:
 247:..\..\..\..\wpa_supplicant\src\utils/common.h **** 	a[1] = val & 0xff;
 805              		.loc 2 247 2
 247:..\..\..\..\wpa_supplicant\src\utils/common.h **** 	a[1] = val & 0xff;
 806              		.loc 2 247 7 is_stmt 0
 807 01da A3050400 		sb	zero,11(s0)
 248:..\..\..\..\wpa_supplicant\src\utils/common.h **** }
 808              		.loc 2 248 2 is_stmt 1
 809              	.LVL65:
 810              	.LBE95:
 811              	.LBE97:
 194:C:/Users/stapi/OneDrive/Desktop/GD32VW553/V1_MQTT_OK/GD32VW55X_Wifi_BLE_SDK/GD32VW55x_RELEASE_V1.0.2/MSDK/wpa_supplicant/src/tls\tlsv1_client_write.c **** 
 812              		.loc 1 194 3
 216:C:/Users/stapi/OneDrive/Desktop/GD32VW553/V1_MQTT_OK/GD32VW55X_Wifi_BLE_SDK/GD32VW55x_RELEASE_V1.0.2/MSDK/wpa_supplicant/src/tls\tlsv1_client_write.c **** 		pos += 2;
 813              		.loc 1 216 3
 814              	.LBB98:
 815              	.LBB99:
 247:..\..\..\..\wpa_supplicant\src\utils/common.h **** 	a[1] = val & 0xff;
 816              		.loc 2 247 2
 247:..\..\..\..\wpa_supplicant\src\utils/common.h **** 	a[1] = val & 0xff;
 817              		.loc 2 247 7 is_stmt 0
 818 01de A3060400 		sb	zero,13(s0)
 248:..\..\..\..\wpa_supplicant\src\utils/common.h **** }
 819              		.loc 2 248 2 is_stmt 1
 248:..\..\..\..\wpa_supplicant\src\utils/common.h **** }
 820              		.loc 2 248 7 is_stmt 0
 821 01e2 23079401 		sb	s9,14(s0)
 822              	.LVL66:
 823              	.LBE99:
 824              	.LBE98:
 217:C:/Users/stapi/OneDrive/Desktop/GD32VW553/V1_MQTT_OK/GD32VW55X_Wifi_BLE_SDK/GD32VW55x_RELEASE_V1.0.2/MSDK/wpa_supplicant/src/tls\tlsv1_client_write.c **** 
 825              		.loc 1 217 3 is_stmt 1
 220:C:/Users/stapi/OneDrive/Desktop/GD32VW553/V1_MQTT_OK/GD32VW55X_Wifi_BLE_SDK/GD32VW55x_RELEASE_V1.0.2/MSDK/wpa_supplicant/src/tls\tlsv1_client_write.c **** 		/* OCSPStatusRequest as shown above for v1 */
 826              		.loc 1 220 3
 220:C:/Users/stapi/OneDrive/Desktop/GD32VW553/V1_MQTT_OK/GD32VW55X_Wifi_BLE_SDK/GD32VW55x_RELEASE_V1.0.2/MSDK/wpa_supplicant/src/tls\tlsv1_client_write.c **** 		/* OCSPStatusRequest as shown above for v1 */
 827              		.loc 1 220 10 is_stmt 0
 828 01e6 A307F400 		sb	a5,15(s0)
 222:C:/Users/stapi/OneDrive/Desktop/GD32VW553/V1_MQTT_OK/GD32VW55X_Wifi_BLE_SDK/GD32VW55x_RELEASE_V1.0.2/MSDK/wpa_supplicant/src/tls\tlsv1_client_write.c **** 		pos += 2;
 829              		.loc 1 222 3 is_stmt 1
 830              	.LVL67:
 831              	.LBB100:
 832              	.LBB101:
 247:..\..\..\..\wpa_supplicant\src\utils/common.h **** 	a[1] = val & 0xff;
 833              		.loc 2 247 2
 247:..\..\..\..\wpa_supplicant\src\utils/common.h **** 	a[1] = val & 0xff;
 834              		.loc 2 247 7 is_stmt 0
 835 01ea 23080400 		sb	zero,16(s0)
 248:..\..\..\..\wpa_supplicant\src\utils/common.h **** }
 836              		.loc 2 248 2 is_stmt 1
 248:..\..\..\..\wpa_supplicant\src\utils/common.h **** }
 837              		.loc 2 248 7 is_stmt 0
 838 01ee A3080400 		sb	zero,17(s0)
 839              	.LVL68:
 840              	.LBE101:
 841              	.LBE100:
 223:C:/Users/stapi/OneDrive/Desktop/GD32VW553/V1_MQTT_OK/GD32VW55X_Wifi_BLE_SDK/GD32VW55x_RELEASE_V1.0.2/MSDK/wpa_supplicant/src/tls\tlsv1_client_write.c **** 		WPA_PUT_BE16(pos, 0); /* request_extensions(empty) */
 842              		.loc 1 223 3 is_stmt 1
 224:C:/Users/stapi/OneDrive/Desktop/GD32VW553/V1_MQTT_OK/GD32VW55X_Wifi_BLE_SDK/GD32VW55x_RELEASE_V1.0.2/MSDK/wpa_supplicant/src/tls\tlsv1_client_write.c **** 		pos += 2;
 843              		.loc 1 224 3
 844              	.LBB102:
 845              	.LBB103:
 247:..\..\..\..\wpa_supplicant\src\utils/common.h **** 	a[1] = val & 0xff;
 846              		.loc 2 247 2
 247:..\..\..\..\wpa_supplicant\src\utils/common.h **** 	a[1] = val & 0xff;
 847              		.loc 2 247 7 is_stmt 0
 848 01f2 23090400 		sb	zero,18(s0)
 248:..\..\..\..\wpa_supplicant\src\utils/common.h **** }
 849              		.loc 2 248 2 is_stmt 1
 248:..\..\..\..\wpa_supplicant\src\utils/common.h **** }
 850              		.loc 2 248 7 is_stmt 0
 851 01f6 A3090400 		sb	zero,19(s0)
 852              	.LVL69:
 853              	.LBE103:
 854              	.LBE102:
 225:C:/Users/stapi/OneDrive/Desktop/GD32VW553/V1_MQTT_OK/GD32VW55X_Wifi_BLE_SDK/GD32VW55x_RELEASE_V1.0.2/MSDK/wpa_supplicant/src/tls\tlsv1_client_write.c **** 	}
 855              		.loc 1 225 3 is_stmt 1
 225:C:/Users/stapi/OneDrive/Desktop/GD32VW553/V1_MQTT_OK/GD32VW55X_Wifi_BLE_SDK/GD32VW55x_RELEASE_V1.0.2/MSDK/wpa_supplicant/src/tls\tlsv1_client_write.c **** 	}
 856              		.loc 1 225 7 is_stmt 0
 857 01fa 5104     		addi	s0,s0,20
 858              	.LVL70:
 859              	.L26:
 228:C:/Users/stapi/OneDrive/Desktop/GD32VW553/V1_MQTT_OK/GD32VW55X_Wifi_BLE_SDK/GD32VW55x_RELEASE_V1.0.2/MSDK/wpa_supplicant/src/tls\tlsv1_client_write.c **** 		pos -= 2; /* no extensions */
 860              		.loc 1 228 2 is_stmt 1
 228:C:/Users/stapi/OneDrive/Desktop/GD32VW553/V1_MQTT_OK/GD32VW55X_Wifi_BLE_SDK/GD32VW55x_RELEASE_V1.0.2/MSDK/wpa_supplicant/src/tls\tlsv1_client_write.c **** 		pos -= 2; /* no extensions */
 861              		.loc 1 228 5 is_stmt 0
 862 01fc 631B8409 		bne	s0,s8,.L27
 229:C:/Users/stapi/OneDrive/Desktop/GD32VW553/V1_MQTT_OK/GD32VW55X_Wifi_BLE_SDK/GD32VW55x_RELEASE_V1.0.2/MSDK/wpa_supplicant/src/tls\tlsv1_client_write.c **** 	else
 863              		.loc 1 229 3 is_stmt 1
 229:C:/Users/stapi/OneDrive/Desktop/GD32VW553/V1_MQTT_OK/GD32VW55X_Wifi_BLE_SDK/GD32VW55x_RELEASE_V1.0.2/MSDK/wpa_supplicant/src/tls\tlsv1_client_write.c **** 	else
 864              		.loc 1 229 7 is_stmt 0
 865 0200 7914     		addi	s0,s0,-2
 866              	.LVL71:
 867              	.L28:
 233:C:/Users/stapi/OneDrive/Desktop/GD32VW553/V1_MQTT_OK/GD32VW55X_Wifi_BLE_SDK/GD32VW55x_RELEASE_V1.0.2/MSDK/wpa_supplicant/src/tls\tlsv1_client_write.c **** 	tls_verify_hash_add(&conn->verify, hs_start, pos - hs_start);
 868              		.loc 1 233 2 is_stmt 1
 233:C:/Users/stapi/OneDrive/Desktop/GD32VW553/V1_MQTT_OK/GD32VW55X_Wifi_BLE_SDK/GD32VW55x_RELEASE_V1.0.2/MSDK/wpa_supplicant/src/tls\tlsv1_client_write.c **** 	tls_verify_hash_add(&conn->verify, hs_start, pos - hs_start);
 869              		.loc 1 233 30 is_stmt 0
 870 0202 B3077441 		sub	a5,s0,s7
 233:C:/Users/stapi/OneDrive/Desktop/GD32VW553/V1_MQTT_OK/GD32VW55X_Wifi_BLE_SDK/GD32VW55x_RELEASE_V1.0.2/MSDK/wpa_supplicant/src/tls\tlsv1_client_write.c **** 	tls_verify_hash_add(&conn->verify, hs_start, pos - hs_start);
 871              		.loc 1 233 42
 872 0206 F517     		addi	a5,a5,-3
 873              	.LVL72:
 874              	.LBB104:
 875              	.LBB105:
 269:..\..\..\..\wpa_supplicant\src\utils/common.h **** 	a[1] = (val >> 8) & 0xff;
 876              		.loc 2 269 2 is_stmt 1
 269:..\..\..\..\wpa_supplicant\src\utils/common.h **** 	a[1] = (val >> 8) & 0xff;
 877              		.loc 2 269 14 is_stmt 0
 878 0208 13D70701 		srli	a4,a5,16
 269:..\..\..\..\wpa_supplicant\src\utils/common.h **** 	a[1] = (val >> 8) & 0xff;
 879              		.loc 2 269 7
 880 020c 2303E900 		sb	a4,6(s2)
 270:..\..\..\..\wpa_supplicant\src\utils/common.h **** 	a[2] = val & 0xff;
 881              		.loc 2 270 2 is_stmt 1
 882              	.LBE105:
 883              	.LBE104:
 234:C:/Users/stapi/OneDrive/Desktop/GD32VW553/V1_MQTT_OK/GD32VW55X_Wifi_BLE_SDK/GD32VW55x_RELEASE_V1.0.2/MSDK/wpa_supplicant/src/tls\tlsv1_client_write.c **** 
 884              		.loc 1 234 51 is_stmt 0
 885 0210 33046441 		sub	s0,s0,s6
 886              	.LVL73:
 887              	.LBB107:
 888              	.LBB106:
 270:..\..\..\..\wpa_supplicant\src\utils/common.h **** 	a[2] = val & 0xff;
 889              		.loc 2 270 14
 890 0214 13D78700 		srli	a4,a5,8
 270:..\..\..\..\wpa_supplicant\src\utils/common.h **** 	a[2] = val & 0xff;
 891              		.loc 2 270 7
 892 0218 A303E900 		sb	a4,7(s2)
 271:..\..\..\..\wpa_supplicant\src\utils/common.h **** }
 893              		.loc 2 271 2 is_stmt 1
 271:..\..\..\..\wpa_supplicant\src\utils/common.h **** }
 894              		.loc 2 271 7 is_stmt 0
 895 021c 2304F900 		sb	a5,8(s2)
 896              	.LVL74:
 897              	.LBE106:
 898              	.LBE107:
 234:C:/Users/stapi/OneDrive/Desktop/GD32VW553/V1_MQTT_OK/GD32VW55X_Wifi_BLE_SDK/GD32VW55x_RELEASE_V1.0.2/MSDK/wpa_supplicant/src/tls\tlsv1_client_write.c **** 
 899              		.loc 1 234 2 is_stmt 1
 900 0220 2286     		mv	a2,s0
 901 0222 DA85     		mv	a1,s6
 902 0224 13850418 		addi	a0,s1,384
 903 0228 97000000 		call	tls_verify_hash_add
 903      E7800000 
 904              	.LVL75:
 236:C:/Users/stapi/OneDrive/Desktop/GD32VW553/V1_MQTT_OK/GD32VW55X_Wifi_BLE_SDK/GD32VW55x_RELEASE_V1.0.2/MSDK/wpa_supplicant/src/tls\tlsv1_client_write.c **** 			      rhdr, end - rhdr, hs_start, pos - hs_start,
 905              		.loc 1 236 2
 236:C:/Users/stapi/OneDrive/Desktop/GD32VW553/V1_MQTT_OK/GD32VW55X_Wifi_BLE_SDK/GD32VW55x_RELEASE_V1.0.2/MSDK/wpa_supplicant/src/tls\tlsv1_client_write.c **** 			      rhdr, end - rhdr, hs_start, pos - hs_start,
 906              		.loc 1 236 6 is_stmt 0
 907 0230 5688     		mv	a6,s5
 908 0232 A287     		mv	a5,s0
 909 0234 5A87     		mv	a4,s6
 910 0236 D286     		mv	a3,s4
 911 0238 4A86     		mv	a2,s2
 912 023a D945     		li	a1,22
 913 023c 13854400 		addi	a0,s1,4
 914 0240 97000000 		call	tlsv1_record_send
 914      E7800000 
 915              	.LVL76:
 236:C:/Users/stapi/OneDrive/Desktop/GD32VW553/V1_MQTT_OK/GD32VW55X_Wifi_BLE_SDK/GD32VW55x_RELEASE_V1.0.2/MSDK/wpa_supplicant/src/tls\tlsv1_client_write.c **** 			      rhdr, end - rhdr, hs_start, pos - hs_start,
 916              		.loc 1 236 5
 917 0248 63510506 		bge	a0,zero,.L29
 239:C:/Users/stapi/OneDrive/Desktop/GD32VW553/V1_MQTT_OK/GD32VW55X_Wifi_BLE_SDK/GD32VW55x_RELEASE_V1.0.2/MSDK/wpa_supplicant/src/tls\tlsv1_client_write.c **** 		tls_alert(conn, TLS_ALERT_LEVEL_FATAL,
 918              		.loc 1 239 3 is_stmt 1
 919 024c B7050000 		lui	a1,%hi(.LC13)
 920 0250 93850500 		addi	a1,a1,%lo(.LC13)
 921 0254 0945     		li	a0,2
 922 0256 97000000 		call	wpa_printf
 922      E7800000 
 923              	.LVL77:
 240:C:/Users/stapi/OneDrive/Desktop/GD32VW553/V1_MQTT_OK/GD32VW55X_Wifi_BLE_SDK/GD32VW55x_RELEASE_V1.0.2/MSDK/wpa_supplicant/src/tls\tlsv1_client_write.c **** 			  TLS_ALERT_INTERNAL_ERROR);
 924              		.loc 1 240 3
 925 025e 2685     		mv	a0,s1
 926 0260 13060005 		li	a2,80
 927 0264 8945     		li	a1,2
 928 0266 97000000 		call	tls_alert
 928      E7800000 
 929              	.LVL78:
 242:C:/Users/stapi/OneDrive/Desktop/GD32VW553/V1_MQTT_OK/GD32VW55X_Wifi_BLE_SDK/GD32VW55x_RELEASE_V1.0.2/MSDK/wpa_supplicant/src/tls\tlsv1_client_write.c **** 		return NULL;
 930              		.loc 1 242 3
 931 026e 4A85     		mv	a0,s2
 932 0270 97000000 		call	os_free
 932      E7800000 
 933              	.LVL79:
 934 0278 4DBB     		j	.L39
 935              	.LVL80:
 936              	.L24:
 108:C:/Users/stapi/OneDrive/Desktop/GD32VW553/V1_MQTT_OK/GD32VW55X_Wifi_BLE_SDK/GD32VW55x_RELEASE_V1.0.2/MSDK/wpa_supplicant/src/tls\tlsv1_client_write.c **** 		pos += 2;
 937              		.loc 1 108 3 discriminator 3
 938 027a 83560700 		lhu	a3,0(a4)
 939              	.LVL81:
 940              	.LBB108:
 941              	.LBB109:
 247:..\..\..\..\wpa_supplicant\src\utils/common.h **** 	a[1] = val & 0xff;
 942              		.loc 2 247 2 discriminator 3
 943              	.LBE109:
 944              	.LBE108:
 109:C:/Users/stapi/OneDrive/Desktop/GD32VW553/V1_MQTT_OK/GD32VW55X_Wifi_BLE_SDK/GD32VW55x_RELEASE_V1.0.2/MSDK/wpa_supplicant/src/tls\tlsv1_client_write.c **** 	}
 945              		.loc 1 109 7 is_stmt 0 discriminator 3
 946 027e 8909     		addi	s3,s3,2
 947              	.LVL82:
 107:C:/Users/stapi/OneDrive/Desktop/GD32VW553/V1_MQTT_OK/GD32VW55X_Wifi_BLE_SDK/GD32VW55x_RELEASE_V1.0.2/MSDK/wpa_supplicant/src/tls\tlsv1_client_write.c **** 		WPA_PUT_BE16(pos, conn->cipher_suites[i]);
 948              		.loc 1 107 44 discriminator 3
 949 0280 8507     		addi	a5,a5,1
 950              	.LVL83:
 951              	.LBB111:
 952              	.LBB110:
 247:..\..\..\..\wpa_supplicant\src\utils/common.h **** 	a[1] = val & 0xff;
 953              		.loc 2 247 7 discriminator 3
 954 0282 13D68600 		srli	a2,a3,8
 955 0286 238FC9FE 		sb	a2,-2(s3)
 248:..\..\..\..\wpa_supplicant\src\utils/common.h **** }
 956              		.loc 2 248 2 is_stmt 1 discriminator 3
 248:..\..\..\..\wpa_supplicant\src\utils/common.h **** }
 957              		.loc 2 248 7 is_stmt 0 discriminator 3
 958 028a A38FD9FE 		sb	a3,-1(s3)
 959              	.LVL84:
 960              	.LBE110:
 961              	.LBE111:
 109:C:/Users/stapi/OneDrive/Desktop/GD32VW553/V1_MQTT_OK/GD32VW55X_Wifi_BLE_SDK/GD32VW55x_RELEASE_V1.0.2/MSDK/wpa_supplicant/src/tls\tlsv1_client_write.c **** 	}
 962              		.loc 1 109 3 is_stmt 1 discriminator 3
 107:C:/Users/stapi/OneDrive/Desktop/GD32VW553/V1_MQTT_OK/GD32VW55X_Wifi_BLE_SDK/GD32VW55x_RELEASE_V1.0.2/MSDK/wpa_supplicant/src/tls\tlsv1_client_write.c **** 		WPA_PUT_BE16(pos, conn->cipher_suites[i]);
 963              		.loc 1 107 43 discriminator 3
 964 028e 0907     		addi	a4,a4,2
 965 0290 4DBD     		j	.L23
 966              	.LVL85:
 967              	.L27:
 231:C:/Users/stapi/OneDrive/Desktop/GD32VW553/V1_MQTT_OK/GD32VW55X_Wifi_BLE_SDK/GD32VW55x_RELEASE_V1.0.2/MSDK/wpa_supplicant/src/tls\tlsv1_client_write.c **** 
 968              		.loc 1 231 3
 231:C:/Users/stapi/OneDrive/Desktop/GD32VW553/V1_MQTT_OK/GD32VW55X_Wifi_BLE_SDK/GD32VW55x_RELEASE_V1.0.2/MSDK/wpa_supplicant/src/tls\tlsv1_client_write.c **** 
 969              		.loc 1 231 31 is_stmt 0
 970 0292 B3073441 		sub	a5,s0,s3
 231:C:/Users/stapi/OneDrive/Desktop/GD32VW553/V1_MQTT_OK/GD32VW55X_Wifi_BLE_SDK/GD32VW55x_RELEASE_V1.0.2/MSDK/wpa_supplicant/src/tls\tlsv1_client_write.c **** 
 971              		.loc 1 231 3
 972 0296 F117     		addi	a5,a5,-4
 973 0298 B3C70708 		zext.h	a5,a5
 974              	.LVL86:
 975              	.LBB112:
 976              	.LBB113:
 247:..\..\..\..\wpa_supplicant\src\utils/common.h **** 	a[1] = val & 0xff;
 977              		.loc 2 247 2 is_stmt 1
 247:..\..\..\..\wpa_supplicant\src\utils/common.h **** 	a[1] = val & 0xff;
 978              		.loc 2 247 7 is_stmt 0
 979 029c 13D78700 		srli	a4,a5,8
 980 02a0 2381E900 		sb	a4,2(s3)
 248:..\..\..\..\wpa_supplicant\src\utils/common.h **** }
 981              		.loc 2 248 2 is_stmt 1
 248:..\..\..\..\wpa_supplicant\src\utils/common.h **** }
 982              		.loc 2 248 7 is_stmt 0
 983 02a4 A381F900 		sb	a5,3(s3)
 249:..\..\..\..\wpa_supplicant\src\utils/common.h **** 
 984              		.loc 2 249 1
 985 02a8 A9BF     		j	.L28
 986              	.LVL87:
 987              	.L29:
 988              	.LBE113:
 989              	.LBE112:
 246:C:/Users/stapi/OneDrive/Desktop/GD32VW553/V1_MQTT_OK/GD32VW55X_Wifi_BLE_SDK/GD32VW55x_RELEASE_V1.0.2/MSDK/wpa_supplicant/src/tls\tlsv1_client_write.c **** 
 990              		.loc 1 246 2 is_stmt 1
 246:C:/Users/stapi/OneDrive/Desktop/GD32VW553/V1_MQTT_OK/GD32VW55X_Wifi_BLE_SDK/GD32VW55x_RELEASE_V1.0.2/MSDK/wpa_supplicant/src/tls\tlsv1_client_write.c **** 
 991              		.loc 1 246 14 is_stmt 0
 992 02aa 8547     		li	a5,1
 993 02ac 9CC0     		sw	a5,0(s1)
 248:C:/Users/stapi/OneDrive/Desktop/GD32VW553/V1_MQTT_OK/GD32VW55X_Wifi_BLE_SDK/GD32VW55x_RELEASE_V1.0.2/MSDK/wpa_supplicant/src/tls\tlsv1_client_write.c **** }
 994              		.loc 1 248 2 is_stmt 1
 248:C:/Users/stapi/OneDrive/Desktop/GD32VW553/V1_MQTT_OK/GD32VW55X_Wifi_BLE_SDK/GD32VW55x_RELEASE_V1.0.2/MSDK/wpa_supplicant/src/tls\tlsv1_client_write.c **** }
 995              		.loc 1 248 9 is_stmt 0
 996 02ae BDBB     		j	.L19
 997              		.cfi_endproc
 998              	.LFE87:
 1000              		.section	.rodata.tlsv1_client_handshake_write.str1.4,"aMS",@progbits,1
 1001              		.align	2
 1002              	.LC14:
 1003 0000 544C5376 		.string	"TLSv1: Send Certificate"
 1003      313A2053 
 1003      656E6420 
 1003      43657274 
 1003      69666963 
 1004              		.align	2
 1005              	.LC15:
 1006 0018 544C5376 		.string	"TLSv1: Not enough buffer space for Certificate (cert_len=%lu left=%lu)"
 1006      313A204E 
 1006      6F742065 
 1006      6E6F7567 
 1006      68206275 
 1007 005f 00       		.align	2
 1008              	.LC16:
 1009 0060 544C5376 		.string	"TLSv1: Full client certificate chain not configured - validation may fail"
 1009      313A2046 
 1009      756C6C20 
 1009      636C6965 
 1009      6E742063 
 1010 00aa 0000     		.align	2
 1011              	.LC17:
 1012 00ac 544C5376 		.string	"TLSv1: Failed to generate a record"
 1012      313A2046 
 1012      61696C65 
 1012      6420746F 
 1012      2067656E 
 1013 00cf 00       		.align	2
 1014              	.LC18:
 1015 00d0 544C5376 		.string	"TLSv1: Send ClientKeyExchange"
 1015      313A2053 
 1015      656E6420 
 1015      436C6965 
 1015      6E744B65 
 1016 00ee 0000     		.align	2
 1017              	.LC19:
 1018 00f0 544C5376 		.string	"TLSv1: Failed to allocate memory for Yc (Diffie-Hellman)"
 1018      313A2046 
 1018      61696C65 
 1018      6420746F 
 1018      20616C6C 
 1019 0129 000000   		.align	2
 1020              	.LC20:
 1021 012c 544C5376 		.string	"TLSv1: Failed to get random data for Diffie-Hellman"
 1021      313A2046 
 1021      61696C65 
 1021      6420746F 
 1021      20676574 
 1022              		.align	2
 1023              	.LC21:
 1024 0160 544C5376 		.string	"TLSv1: DH client's secret value"
 1024      313A2044 
 1024      4820636C 
 1024      69656E74 
 1024      27732073 
 1025              		.align	2
 1026              	.LC22:
 1027 0180 544C5376 		.string	"TLSv1: Failed to allocate memory for Diffie-Hellman"
 1027      313A2046 
 1027      61696C65 
 1027      6420746F 
 1027      20616C6C 
 1028              		.align	2
 1029              	.LC23:
 1030 01b4 544C5376 		.string	"TLSv1: DH Yc (client's public value)"
 1030      313A2044 
 1030      48205963 
 1030      2028636C 
 1030      69656E74 
 1031 01d9 000000   		.align	2
 1032              	.LC24:
 1033 01dc 544C5376 		.string	"TLSv1: Not enough room in the message buffer for Yc"
 1033      313A204E 
 1033      6F742065 
 1033      6E6F7567 
 1033      6820726F 
 1034              		.align	2
 1035              	.LC25:
 1036 0210 544C5376 		.string	"TLSv1: Could not allocate memory for DH"
 1036      313A2043 
 1036      6F756C64 
 1036      206E6F74 
 1036      20616C6C 
 1037              		.align	2
 1038              	.LC26:
 1039 0238 544C5376 		.string	"TLSv1: Shared secret from DH key exchange"
 1039      313A2053 
 1039      68617265 
 1039      64207365 
 1039      63726574 
 1040 0262 0000     		.align	2
 1041              	.LC27:
 1042 0264 544C5376 		.string	"TLSv1: Failed to derive keys"
 1042      313A2046 
 1042      61696C65 
 1042      6420746F 
 1042      20646572 
 1043 0281 000000   		.align	2
 1044              	.LC28:
 1045 0284 544C5376 		.string	"TLSv1: No server RSA key to use for encrypting pre-master secret"
 1045      313A204E 
 1045      6F207365 
 1045      72766572 
 1045      20525341 
 1046 02c5 000000   		.align	2
 1047              	.LC29:
 1048 02c8 544C5376 		.string	"TLSv1: RSA encryption failed"
 1048      313A2052 
 1048      53412065 
 1048      6E637279 
 1048      7074696F 
 1049 02e5 000000   		.align	2
 1050              	.LC30:
 1051 02e8 544C5376 		.string	"TLSv1: Encrypted pre_master_secret"
 1051      313A2045 
 1051      6E637279 
 1051      70746564 
 1051      20707265 
 1052 030b 00       		.align	2
 1053              	.LC31:
 1054 030c 544C5376 		.string	"TLSv1: Send CertificateVerify"
 1054      313A2053 
 1054      656E6420 
 1054      43657274 
 1054      69666963 
 1055 032a 0000     		.align	2
 1056              	.LC32:
 1057 032c 544C5376 		.string	"TLSv1: CertificateVerify hash"
 1057      313A2043 
 1057      65727469 
 1057      66696361 
 1057      74655665 
 1058 034a 0000     		.align	2
 1059              	.LC33:
 1060 034c 544C5376 		.string	"TLSv1: Failed to sign hash (PKCS #1)"
 1060      313A2046 
 1060      61696C65 
 1060      6420746F 
 1060      20736967 
 1061 0371 000000   		.align	2
 1062              	.LC34:
 1063 0374 544C5376 		.string	"TLSv1: Session resumption completed successfully"
 1063      313A2053 
 1063      65737369 
 1063      6F6E2072 
 1063      6573756D 
 1064 03a5 000000   		.align	2
 1065              	.LC35:
 1066 03a8 544C5376 		.string	"TLSv1: Handshake completed successfully"
 1066      313A2048 
 1066      616E6473 
 1066      68616B65 
 1066      20636F6D 
 1067              		.align	2
 1068              	.LC36:
 1069 03d0 544C5376 		.string	"TLSv1: Unexpected state %d while generating reply"
 1069      313A2055 
 1069      6E657870 
 1069      65637465 
 1069      64207374 
 1070              		.section	.text.tlsv1_client_handshake_write,"ax",@progbits
 1071              		.align	1
 1072              		.globl	tlsv1_client_handshake_write
 1074              	tlsv1_client_handshake_write:
 1075              	.LFB97:
 858:C:/Users/stapi/OneDrive/Desktop/GD32VW553/V1_MQTT_OK/GD32VW55X_Wifi_BLE_SDK/GD32VW55x_RELEASE_V1.0.2/MSDK/wpa_supplicant/src/tls\tlsv1_client_write.c **** 
 859:C:/Users/stapi/OneDrive/Desktop/GD32VW553/V1_MQTT_OK/GD32VW55X_Wifi_BLE_SDK/GD32VW55x_RELEASE_V1.0.2/MSDK/wpa_supplicant/src/tls\tlsv1_client_write.c **** 
 860:C:/Users/stapi/OneDrive/Desktop/GD32VW553/V1_MQTT_OK/GD32VW55X_Wifi_BLE_SDK/GD32VW55x_RELEASE_V1.0.2/MSDK/wpa_supplicant/src/tls\tlsv1_client_write.c **** static u8 * tls_send_client_key_exchange(struct tlsv1_client *conn,
 861:C:/Users/stapi/OneDrive/Desktop/GD32VW553/V1_MQTT_OK/GD32VW55X_Wifi_BLE_SDK/GD32VW55x_RELEASE_V1.0.2/MSDK/wpa_supplicant/src/tls\tlsv1_client_write.c **** 					 size_t *out_len)
 862:C:/Users/stapi/OneDrive/Desktop/GD32VW553/V1_MQTT_OK/GD32VW55X_Wifi_BLE_SDK/GD32VW55x_RELEASE_V1.0.2/MSDK/wpa_supplicant/src/tls\tlsv1_client_write.c **** {
 863:C:/Users/stapi/OneDrive/Desktop/GD32VW553/V1_MQTT_OK/GD32VW55X_Wifi_BLE_SDK/GD32VW55x_RELEASE_V1.0.2/MSDK/wpa_supplicant/src/tls\tlsv1_client_write.c **** 	u8 *msg, *end, *pos;
 864:C:/Users/stapi/OneDrive/Desktop/GD32VW553/V1_MQTT_OK/GD32VW55X_Wifi_BLE_SDK/GD32VW55x_RELEASE_V1.0.2/MSDK/wpa_supplicant/src/tls\tlsv1_client_write.c **** 	size_t msglen;
 865:C:/Users/stapi/OneDrive/Desktop/GD32VW553/V1_MQTT_OK/GD32VW55X_Wifi_BLE_SDK/GD32VW55x_RELEASE_V1.0.2/MSDK/wpa_supplicant/src/tls\tlsv1_client_write.c **** 
 866:C:/Users/stapi/OneDrive/Desktop/GD32VW553/V1_MQTT_OK/GD32VW55X_Wifi_BLE_SDK/GD32VW55x_RELEASE_V1.0.2/MSDK/wpa_supplicant/src/tls\tlsv1_client_write.c **** 	*out_len = 0;
 867:C:/Users/stapi/OneDrive/Desktop/GD32VW553/V1_MQTT_OK/GD32VW55X_Wifi_BLE_SDK/GD32VW55x_RELEASE_V1.0.2/MSDK/wpa_supplicant/src/tls\tlsv1_client_write.c **** 
 868:C:/Users/stapi/OneDrive/Desktop/GD32VW553/V1_MQTT_OK/GD32VW55X_Wifi_BLE_SDK/GD32VW55x_RELEASE_V1.0.2/MSDK/wpa_supplicant/src/tls\tlsv1_client_write.c **** 	msglen = 2000;
 869:C:/Users/stapi/OneDrive/Desktop/GD32VW553/V1_MQTT_OK/GD32VW55X_Wifi_BLE_SDK/GD32VW55x_RELEASE_V1.0.2/MSDK/wpa_supplicant/src/tls\tlsv1_client_write.c **** 	if (conn->certificate_requested)
 870:C:/Users/stapi/OneDrive/Desktop/GD32VW553/V1_MQTT_OK/GD32VW55X_Wifi_BLE_SDK/GD32VW55x_RELEASE_V1.0.2/MSDK/wpa_supplicant/src/tls\tlsv1_client_write.c **** 		msglen += tls_client_cert_chain_der_len(conn);
 871:C:/Users/stapi/OneDrive/Desktop/GD32VW553/V1_MQTT_OK/GD32VW55X_Wifi_BLE_SDK/GD32VW55x_RELEASE_V1.0.2/MSDK/wpa_supplicant/src/tls\tlsv1_client_write.c **** 
 872:C:/Users/stapi/OneDrive/Desktop/GD32VW553/V1_MQTT_OK/GD32VW55X_Wifi_BLE_SDK/GD32VW55x_RELEASE_V1.0.2/MSDK/wpa_supplicant/src/tls\tlsv1_client_write.c **** 	msg = os_malloc(msglen);
 873:C:/Users/stapi/OneDrive/Desktop/GD32VW553/V1_MQTT_OK/GD32VW55X_Wifi_BLE_SDK/GD32VW55x_RELEASE_V1.0.2/MSDK/wpa_supplicant/src/tls\tlsv1_client_write.c **** 	if (msg == NULL)
 874:C:/Users/stapi/OneDrive/Desktop/GD32VW553/V1_MQTT_OK/GD32VW55X_Wifi_BLE_SDK/GD32VW55x_RELEASE_V1.0.2/MSDK/wpa_supplicant/src/tls\tlsv1_client_write.c **** 		return NULL;
 875:C:/Users/stapi/OneDrive/Desktop/GD32VW553/V1_MQTT_OK/GD32VW55X_Wifi_BLE_SDK/GD32VW55x_RELEASE_V1.0.2/MSDK/wpa_supplicant/src/tls\tlsv1_client_write.c **** 
 876:C:/Users/stapi/OneDrive/Desktop/GD32VW553/V1_MQTT_OK/GD32VW55X_Wifi_BLE_SDK/GD32VW55x_RELEASE_V1.0.2/MSDK/wpa_supplicant/src/tls\tlsv1_client_write.c **** 	pos = msg;
 877:C:/Users/stapi/OneDrive/Desktop/GD32VW553/V1_MQTT_OK/GD32VW55X_Wifi_BLE_SDK/GD32VW55x_RELEASE_V1.0.2/MSDK/wpa_supplicant/src/tls\tlsv1_client_write.c **** 	end = msg + msglen;
 878:C:/Users/stapi/OneDrive/Desktop/GD32VW553/V1_MQTT_OK/GD32VW55X_Wifi_BLE_SDK/GD32VW55x_RELEASE_V1.0.2/MSDK/wpa_supplicant/src/tls\tlsv1_client_write.c **** 
 879:C:/Users/stapi/OneDrive/Desktop/GD32VW553/V1_MQTT_OK/GD32VW55X_Wifi_BLE_SDK/GD32VW55x_RELEASE_V1.0.2/MSDK/wpa_supplicant/src/tls\tlsv1_client_write.c **** 	if (conn->certificate_requested) {
 880:C:/Users/stapi/OneDrive/Desktop/GD32VW553/V1_MQTT_OK/GD32VW55X_Wifi_BLE_SDK/GD32VW55x_RELEASE_V1.0.2/MSDK/wpa_supplicant/src/tls\tlsv1_client_write.c **** 		if (tls_write_client_certificate(conn, &pos, end) < 0) {
 881:C:/Users/stapi/OneDrive/Desktop/GD32VW553/V1_MQTT_OK/GD32VW55X_Wifi_BLE_SDK/GD32VW55x_RELEASE_V1.0.2/MSDK/wpa_supplicant/src/tls\tlsv1_client_write.c **** 			os_free(msg);
 882:C:/Users/stapi/OneDrive/Desktop/GD32VW553/V1_MQTT_OK/GD32VW55X_Wifi_BLE_SDK/GD32VW55x_RELEASE_V1.0.2/MSDK/wpa_supplicant/src/tls\tlsv1_client_write.c **** 			return NULL;
 883:C:/Users/stapi/OneDrive/Desktop/GD32VW553/V1_MQTT_OK/GD32VW55X_Wifi_BLE_SDK/GD32VW55x_RELEASE_V1.0.2/MSDK/wpa_supplicant/src/tls\tlsv1_client_write.c **** 		}
 884:C:/Users/stapi/OneDrive/Desktop/GD32VW553/V1_MQTT_OK/GD32VW55X_Wifi_BLE_SDK/GD32VW55x_RELEASE_V1.0.2/MSDK/wpa_supplicant/src/tls\tlsv1_client_write.c **** 	}
 885:C:/Users/stapi/OneDrive/Desktop/GD32VW553/V1_MQTT_OK/GD32VW55X_Wifi_BLE_SDK/GD32VW55x_RELEASE_V1.0.2/MSDK/wpa_supplicant/src/tls\tlsv1_client_write.c **** 
 886:C:/Users/stapi/OneDrive/Desktop/GD32VW553/V1_MQTT_OK/GD32VW55X_Wifi_BLE_SDK/GD32VW55x_RELEASE_V1.0.2/MSDK/wpa_supplicant/src/tls\tlsv1_client_write.c **** 	if (tls_write_client_key_exchange(conn, &pos, end) < 0 ||
 887:C:/Users/stapi/OneDrive/Desktop/GD32VW553/V1_MQTT_OK/GD32VW55X_Wifi_BLE_SDK/GD32VW55x_RELEASE_V1.0.2/MSDK/wpa_supplicant/src/tls\tlsv1_client_write.c **** 	    (conn->certificate_requested && conn->cred && conn->cred->key &&
 888:C:/Users/stapi/OneDrive/Desktop/GD32VW553/V1_MQTT_OK/GD32VW55X_Wifi_BLE_SDK/GD32VW55x_RELEASE_V1.0.2/MSDK/wpa_supplicant/src/tls\tlsv1_client_write.c **** 	     tls_write_client_certificate_verify(conn, &pos, end) < 0) ||
 889:C:/Users/stapi/OneDrive/Desktop/GD32VW553/V1_MQTT_OK/GD32VW55X_Wifi_BLE_SDK/GD32VW55x_RELEASE_V1.0.2/MSDK/wpa_supplicant/src/tls\tlsv1_client_write.c **** 	    tls_write_client_change_cipher_spec(conn, &pos, end) < 0 ||
 890:C:/Users/stapi/OneDrive/Desktop/GD32VW553/V1_MQTT_OK/GD32VW55X_Wifi_BLE_SDK/GD32VW55x_RELEASE_V1.0.2/MSDK/wpa_supplicant/src/tls\tlsv1_client_write.c **** 	    tls_write_client_finished(conn, &pos, end) < 0) {
 891:C:/Users/stapi/OneDrive/Desktop/GD32VW553/V1_MQTT_OK/GD32VW55X_Wifi_BLE_SDK/GD32VW55x_RELEASE_V1.0.2/MSDK/wpa_supplicant/src/tls\tlsv1_client_write.c **** 		os_free(msg);
 892:C:/Users/stapi/OneDrive/Desktop/GD32VW553/V1_MQTT_OK/GD32VW55X_Wifi_BLE_SDK/GD32VW55x_RELEASE_V1.0.2/MSDK/wpa_supplicant/src/tls\tlsv1_client_write.c **** 		return NULL;
 893:C:/Users/stapi/OneDrive/Desktop/GD32VW553/V1_MQTT_OK/GD32VW55X_Wifi_BLE_SDK/GD32VW55x_RELEASE_V1.0.2/MSDK/wpa_supplicant/src/tls\tlsv1_client_write.c **** 	}
 894:C:/Users/stapi/OneDrive/Desktop/GD32VW553/V1_MQTT_OK/GD32VW55X_Wifi_BLE_SDK/GD32VW55x_RELEASE_V1.0.2/MSDK/wpa_supplicant/src/tls\tlsv1_client_write.c **** 
 895:C:/Users/stapi/OneDrive/Desktop/GD32VW553/V1_MQTT_OK/GD32VW55X_Wifi_BLE_SDK/GD32VW55x_RELEASE_V1.0.2/MSDK/wpa_supplicant/src/tls\tlsv1_client_write.c **** 	*out_len = pos - msg;
 896:C:/Users/stapi/OneDrive/Desktop/GD32VW553/V1_MQTT_OK/GD32VW55X_Wifi_BLE_SDK/GD32VW55x_RELEASE_V1.0.2/MSDK/wpa_supplicant/src/tls\tlsv1_client_write.c **** 
 897:C:/Users/stapi/OneDrive/Desktop/GD32VW553/V1_MQTT_OK/GD32VW55X_Wifi_BLE_SDK/GD32VW55x_RELEASE_V1.0.2/MSDK/wpa_supplicant/src/tls\tlsv1_client_write.c **** 	conn->state = SERVER_CHANGE_CIPHER_SPEC;
 898:C:/Users/stapi/OneDrive/Desktop/GD32VW553/V1_MQTT_OK/GD32VW55X_Wifi_BLE_SDK/GD32VW55x_RELEASE_V1.0.2/MSDK/wpa_supplicant/src/tls\tlsv1_client_write.c **** 
 899:C:/Users/stapi/OneDrive/Desktop/GD32VW553/V1_MQTT_OK/GD32VW55X_Wifi_BLE_SDK/GD32VW55x_RELEASE_V1.0.2/MSDK/wpa_supplicant/src/tls\tlsv1_client_write.c **** 	return msg;
 900:C:/Users/stapi/OneDrive/Desktop/GD32VW553/V1_MQTT_OK/GD32VW55X_Wifi_BLE_SDK/GD32VW55x_RELEASE_V1.0.2/MSDK/wpa_supplicant/src/tls\tlsv1_client_write.c **** }
 901:C:/Users/stapi/OneDrive/Desktop/GD32VW553/V1_MQTT_OK/GD32VW55X_Wifi_BLE_SDK/GD32VW55x_RELEASE_V1.0.2/MSDK/wpa_supplicant/src/tls\tlsv1_client_write.c **** 
 902:C:/Users/stapi/OneDrive/Desktop/GD32VW553/V1_MQTT_OK/GD32VW55X_Wifi_BLE_SDK/GD32VW55x_RELEASE_V1.0.2/MSDK/wpa_supplicant/src/tls\tlsv1_client_write.c **** 
 903:C:/Users/stapi/OneDrive/Desktop/GD32VW553/V1_MQTT_OK/GD32VW55X_Wifi_BLE_SDK/GD32VW55x_RELEASE_V1.0.2/MSDK/wpa_supplicant/src/tls\tlsv1_client_write.c **** static u8 * tls_send_change_cipher_spec(struct tlsv1_client *conn,
 904:C:/Users/stapi/OneDrive/Desktop/GD32VW553/V1_MQTT_OK/GD32VW55X_Wifi_BLE_SDK/GD32VW55x_RELEASE_V1.0.2/MSDK/wpa_supplicant/src/tls\tlsv1_client_write.c **** 					size_t *out_len)
 905:C:/Users/stapi/OneDrive/Desktop/GD32VW553/V1_MQTT_OK/GD32VW55X_Wifi_BLE_SDK/GD32VW55x_RELEASE_V1.0.2/MSDK/wpa_supplicant/src/tls\tlsv1_client_write.c **** {
 906:C:/Users/stapi/OneDrive/Desktop/GD32VW553/V1_MQTT_OK/GD32VW55X_Wifi_BLE_SDK/GD32VW55x_RELEASE_V1.0.2/MSDK/wpa_supplicant/src/tls\tlsv1_client_write.c **** 	u8 *msg, *end, *pos;
 907:C:/Users/stapi/OneDrive/Desktop/GD32VW553/V1_MQTT_OK/GD32VW55X_Wifi_BLE_SDK/GD32VW55x_RELEASE_V1.0.2/MSDK/wpa_supplicant/src/tls\tlsv1_client_write.c **** 
 908:C:/Users/stapi/OneDrive/Desktop/GD32VW553/V1_MQTT_OK/GD32VW55X_Wifi_BLE_SDK/GD32VW55x_RELEASE_V1.0.2/MSDK/wpa_supplicant/src/tls\tlsv1_client_write.c **** 	*out_len = 0;
 909:C:/Users/stapi/OneDrive/Desktop/GD32VW553/V1_MQTT_OK/GD32VW55X_Wifi_BLE_SDK/GD32VW55x_RELEASE_V1.0.2/MSDK/wpa_supplicant/src/tls\tlsv1_client_write.c **** 
 910:C:/Users/stapi/OneDrive/Desktop/GD32VW553/V1_MQTT_OK/GD32VW55X_Wifi_BLE_SDK/GD32VW55x_RELEASE_V1.0.2/MSDK/wpa_supplicant/src/tls\tlsv1_client_write.c **** 	msg = os_malloc(1000);
 911:C:/Users/stapi/OneDrive/Desktop/GD32VW553/V1_MQTT_OK/GD32VW55X_Wifi_BLE_SDK/GD32VW55x_RELEASE_V1.0.2/MSDK/wpa_supplicant/src/tls\tlsv1_client_write.c **** 	if (msg == NULL)
 912:C:/Users/stapi/OneDrive/Desktop/GD32VW553/V1_MQTT_OK/GD32VW55X_Wifi_BLE_SDK/GD32VW55x_RELEASE_V1.0.2/MSDK/wpa_supplicant/src/tls\tlsv1_client_write.c **** 		return NULL;
 913:C:/Users/stapi/OneDrive/Desktop/GD32VW553/V1_MQTT_OK/GD32VW55X_Wifi_BLE_SDK/GD32VW55x_RELEASE_V1.0.2/MSDK/wpa_supplicant/src/tls\tlsv1_client_write.c **** 
 914:C:/Users/stapi/OneDrive/Desktop/GD32VW553/V1_MQTT_OK/GD32VW55X_Wifi_BLE_SDK/GD32VW55x_RELEASE_V1.0.2/MSDK/wpa_supplicant/src/tls\tlsv1_client_write.c **** 	pos = msg;
 915:C:/Users/stapi/OneDrive/Desktop/GD32VW553/V1_MQTT_OK/GD32VW55X_Wifi_BLE_SDK/GD32VW55x_RELEASE_V1.0.2/MSDK/wpa_supplicant/src/tls\tlsv1_client_write.c **** 	end = msg + 1000;
 916:C:/Users/stapi/OneDrive/Desktop/GD32VW553/V1_MQTT_OK/GD32VW55X_Wifi_BLE_SDK/GD32VW55x_RELEASE_V1.0.2/MSDK/wpa_supplicant/src/tls\tlsv1_client_write.c **** 
 917:C:/Users/stapi/OneDrive/Desktop/GD32VW553/V1_MQTT_OK/GD32VW55X_Wifi_BLE_SDK/GD32VW55x_RELEASE_V1.0.2/MSDK/wpa_supplicant/src/tls\tlsv1_client_write.c **** 	if (tls_write_client_change_cipher_spec(conn, &pos, end) < 0 ||
 918:C:/Users/stapi/OneDrive/Desktop/GD32VW553/V1_MQTT_OK/GD32VW55X_Wifi_BLE_SDK/GD32VW55x_RELEASE_V1.0.2/MSDK/wpa_supplicant/src/tls\tlsv1_client_write.c **** 	    tls_write_client_finished(conn, &pos, end) < 0) {
 919:C:/Users/stapi/OneDrive/Desktop/GD32VW553/V1_MQTT_OK/GD32VW55X_Wifi_BLE_SDK/GD32VW55x_RELEASE_V1.0.2/MSDK/wpa_supplicant/src/tls\tlsv1_client_write.c **** 		os_free(msg);
 920:C:/Users/stapi/OneDrive/Desktop/GD32VW553/V1_MQTT_OK/GD32VW55X_Wifi_BLE_SDK/GD32VW55x_RELEASE_V1.0.2/MSDK/wpa_supplicant/src/tls\tlsv1_client_write.c **** 		return NULL;
 921:C:/Users/stapi/OneDrive/Desktop/GD32VW553/V1_MQTT_OK/GD32VW55X_Wifi_BLE_SDK/GD32VW55x_RELEASE_V1.0.2/MSDK/wpa_supplicant/src/tls\tlsv1_client_write.c **** 	}
 922:C:/Users/stapi/OneDrive/Desktop/GD32VW553/V1_MQTT_OK/GD32VW55X_Wifi_BLE_SDK/GD32VW55x_RELEASE_V1.0.2/MSDK/wpa_supplicant/src/tls\tlsv1_client_write.c **** 
 923:C:/Users/stapi/OneDrive/Desktop/GD32VW553/V1_MQTT_OK/GD32VW55X_Wifi_BLE_SDK/GD32VW55x_RELEASE_V1.0.2/MSDK/wpa_supplicant/src/tls\tlsv1_client_write.c **** 	*out_len = pos - msg;
 924:C:/Users/stapi/OneDrive/Desktop/GD32VW553/V1_MQTT_OK/GD32VW55X_Wifi_BLE_SDK/GD32VW55x_RELEASE_V1.0.2/MSDK/wpa_supplicant/src/tls\tlsv1_client_write.c **** 
 925:C:/Users/stapi/OneDrive/Desktop/GD32VW553/V1_MQTT_OK/GD32VW55X_Wifi_BLE_SDK/GD32VW55x_RELEASE_V1.0.2/MSDK/wpa_supplicant/src/tls\tlsv1_client_write.c **** 	wpa_printf(MSG_DEBUG, "TLSv1: Session resumption completed "
 926:C:/Users/stapi/OneDrive/Desktop/GD32VW553/V1_MQTT_OK/GD32VW55X_Wifi_BLE_SDK/GD32VW55x_RELEASE_V1.0.2/MSDK/wpa_supplicant/src/tls\tlsv1_client_write.c **** 		   "successfully");
 927:C:/Users/stapi/OneDrive/Desktop/GD32VW553/V1_MQTT_OK/GD32VW55X_Wifi_BLE_SDK/GD32VW55x_RELEASE_V1.0.2/MSDK/wpa_supplicant/src/tls\tlsv1_client_write.c **** 	if (!conn->session_resumed && conn->use_session_ticket)
 928:C:/Users/stapi/OneDrive/Desktop/GD32VW553/V1_MQTT_OK/GD32VW55X_Wifi_BLE_SDK/GD32VW55x_RELEASE_V1.0.2/MSDK/wpa_supplicant/src/tls\tlsv1_client_write.c **** 		conn->session_resumed = 1;
 929:C:/Users/stapi/OneDrive/Desktop/GD32VW553/V1_MQTT_OK/GD32VW55X_Wifi_BLE_SDK/GD32VW55x_RELEASE_V1.0.2/MSDK/wpa_supplicant/src/tls\tlsv1_client_write.c **** 	conn->state = ESTABLISHED;
 930:C:/Users/stapi/OneDrive/Desktop/GD32VW553/V1_MQTT_OK/GD32VW55X_Wifi_BLE_SDK/GD32VW55x_RELEASE_V1.0.2/MSDK/wpa_supplicant/src/tls\tlsv1_client_write.c **** 
 931:C:/Users/stapi/OneDrive/Desktop/GD32VW553/V1_MQTT_OK/GD32VW55X_Wifi_BLE_SDK/GD32VW55x_RELEASE_V1.0.2/MSDK/wpa_supplicant/src/tls\tlsv1_client_write.c **** 	return msg;
 932:C:/Users/stapi/OneDrive/Desktop/GD32VW553/V1_MQTT_OK/GD32VW55X_Wifi_BLE_SDK/GD32VW55x_RELEASE_V1.0.2/MSDK/wpa_supplicant/src/tls\tlsv1_client_write.c **** }
 933:C:/Users/stapi/OneDrive/Desktop/GD32VW553/V1_MQTT_OK/GD32VW55X_Wifi_BLE_SDK/GD32VW55x_RELEASE_V1.0.2/MSDK/wpa_supplicant/src/tls\tlsv1_client_write.c **** 
 934:C:/Users/stapi/OneDrive/Desktop/GD32VW553/V1_MQTT_OK/GD32VW55X_Wifi_BLE_SDK/GD32VW55x_RELEASE_V1.0.2/MSDK/wpa_supplicant/src/tls\tlsv1_client_write.c **** 
 935:C:/Users/stapi/OneDrive/Desktop/GD32VW553/V1_MQTT_OK/GD32VW55X_Wifi_BLE_SDK/GD32VW55x_RELEASE_V1.0.2/MSDK/wpa_supplicant/src/tls\tlsv1_client_write.c **** u8 * tlsv1_client_handshake_write(struct tlsv1_client *conn, size_t *out_len,
 936:C:/Users/stapi/OneDrive/Desktop/GD32VW553/V1_MQTT_OK/GD32VW55X_Wifi_BLE_SDK/GD32VW55x_RELEASE_V1.0.2/MSDK/wpa_supplicant/src/tls\tlsv1_client_write.c **** 				  int no_appl_data)
 937:C:/Users/stapi/OneDrive/Desktop/GD32VW553/V1_MQTT_OK/GD32VW55X_Wifi_BLE_SDK/GD32VW55x_RELEASE_V1.0.2/MSDK/wpa_supplicant/src/tls\tlsv1_client_write.c **** {
 1076              		.loc 1 937 1 is_stmt 1
 1077              		.cfi_startproc
 1078              	.LVL88:
 1079 0000 17030000 		call	t0,__riscv_save_12
 1079      E7020300 
 1080              		.cfi_offset 27, -52
 1081              		.cfi_offset 26, -48
 1082              		.cfi_offset 25, -44
 1083              		.cfi_offset 24, -40
 1084              		.cfi_offset 23, -36
 1085              		.cfi_offset 22, -32
 1086              		.cfi_offset 21, -28
 1087              		.cfi_offset 20, -24
 1088              		.cfi_offset 19, -20
 1089              		.cfi_offset 18, -16
 1090              		.cfi_offset 9, -12
 1091              		.cfi_offset 8, -8
 1092              		.cfi_offset 1, -4
 1093              		.cfi_def_cfa_offset 64
 938:C:/Users/stapi/OneDrive/Desktop/GD32VW553/V1_MQTT_OK/GD32VW55X_Wifi_BLE_SDK/GD32VW55x_RELEASE_V1.0.2/MSDK/wpa_supplicant/src/tls\tlsv1_client_write.c **** 	switch (conn->state) {
 1094              		.loc 1 938 2
 937:C:/Users/stapi/OneDrive/Desktop/GD32VW553/V1_MQTT_OK/GD32VW55X_Wifi_BLE_SDK/GD32VW55x_RELEASE_V1.0.2/MSDK/wpa_supplicant/src/tls\tlsv1_client_write.c **** 	switch (conn->state) {
 1095              		.loc 1 937 1 is_stmt 0
 1096 0008 3289     		mv	s2,a2
 1097              		.loc 1 938 14
 1098 000a 1041     		lw	a2,0(a0)
 1099              	.LVL89:
 1100              		.loc 1 938 2
 1101 000c 9D47     		li	a5,7
 937:C:/Users/stapi/OneDrive/Desktop/GD32VW553/V1_MQTT_OK/GD32VW55X_Wifi_BLE_SDK/GD32VW55x_RELEASE_V1.0.2/MSDK/wpa_supplicant/src/tls\tlsv1_client_write.c **** 	switch (conn->state) {
 1102              		.loc 1 937 1
 1103 000e 7571     		addi	sp,sp,-144
 1104              		.cfi_def_cfa_offset 208
 937:C:/Users/stapi/OneDrive/Desktop/GD32VW553/V1_MQTT_OK/GD32VW55X_Wifi_BLE_SDK/GD32VW55x_RELEASE_V1.0.2/MSDK/wpa_supplicant/src/tls\tlsv1_client_write.c **** 	switch (conn->state) {
 1105              		.loc 1 937 1
 1106 0010 2A84     		mv	s0,a0
 1107 0012 2E8B     		mv	s6,a1
 1108              		.loc 1 938 2
 1109 0014 630FF66C 		beq	a2,a5,.L42
 1110 0018 A947     		li	a5,10
 1111 001a 6306F674 		beq	a2,a5,.L43
 1112 001e 9947     		li	a5,6
 1113 0020 631AF676 		bne	a2,a5,.L44
 939:C:/Users/stapi/OneDrive/Desktop/GD32VW553/V1_MQTT_OK/GD32VW55X_Wifi_BLE_SDK/GD32VW55x_RELEASE_V1.0.2/MSDK/wpa_supplicant/src/tls\tlsv1_client_write.c **** 	case CLIENT_KEY_EXCHANGE:
 940:C:/Users/stapi/OneDrive/Desktop/GD32VW553/V1_MQTT_OK/GD32VW55X_Wifi_BLE_SDK/GD32VW55x_RELEASE_V1.0.2/MSDK/wpa_supplicant/src/tls\tlsv1_client_write.c **** 		return tls_send_client_key_exchange(conn, out_len);
 1114              		.loc 1 940 3 is_stmt 1
 1115              	.LVL90:
 1116              	.LBB146:
 1117              	.LBB147:
 863:C:/Users/stapi/OneDrive/Desktop/GD32VW553/V1_MQTT_OK/GD32VW55X_Wifi_BLE_SDK/GD32VW55x_RELEASE_V1.0.2/MSDK/wpa_supplicant/src/tls\tlsv1_client_write.c **** 	size_t msglen;
 1118              		.loc 1 863 2
 864:C:/Users/stapi/OneDrive/Desktop/GD32VW553/V1_MQTT_OK/GD32VW55X_Wifi_BLE_SDK/GD32VW55x_RELEASE_V1.0.2/MSDK/wpa_supplicant/src/tls\tlsv1_client_write.c **** 
 1119              		.loc 1 864 2
 866:C:/Users/stapi/OneDrive/Desktop/GD32VW553/V1_MQTT_OK/GD32VW55X_Wifi_BLE_SDK/GD32VW55x_RELEASE_V1.0.2/MSDK/wpa_supplicant/src/tls\tlsv1_client_write.c **** 
 1120              		.loc 1 866 2
 866:C:/Users/stapi/OneDrive/Desktop/GD32VW553/V1_MQTT_OK/GD32VW55X_Wifi_BLE_SDK/GD32VW55x_RELEASE_V1.0.2/MSDK/wpa_supplicant/src/tls\tlsv1_client_write.c **** 
 1121              		.loc 1 866 11 is_stmt 0
 1122 0024 23A00500 		sw	zero,0(a1)
 868:C:/Users/stapi/OneDrive/Desktop/GD32VW553/V1_MQTT_OK/GD32VW55X_Wifi_BLE_SDK/GD32VW55x_RELEASE_V1.0.2/MSDK/wpa_supplicant/src/tls\tlsv1_client_write.c **** 	if (conn->certificate_requested)
 1123              		.loc 1 868 2 is_stmt 1
 1124              	.LVL91:
 869:C:/Users/stapi/OneDrive/Desktop/GD32VW553/V1_MQTT_OK/GD32VW55X_Wifi_BLE_SDK/GD32VW55x_RELEASE_V1.0.2/MSDK/wpa_supplicant/src/tls\tlsv1_client_write.c **** 		msglen += tls_client_cert_chain_der_len(conn);
 1125              		.loc 1 869 2
 869:C:/Users/stapi/OneDrive/Desktop/GD32VW553/V1_MQTT_OK/GD32VW55X_Wifi_BLE_SDK/GD32VW55x_RELEASE_V1.0.2/MSDK/wpa_supplicant/src/tls\tlsv1_client_write.c **** 		msglen += tls_client_cert_chain_der_len(conn);
 1126              		.loc 1 869 6 is_stmt 0
 1127 0028 83478517 		lbu	a5,376(a0)
 868:C:/Users/stapi/OneDrive/Desktop/GD32VW553/V1_MQTT_OK/GD32VW55X_Wifi_BLE_SDK/GD32VW55x_RELEASE_V1.0.2/MSDK/wpa_supplicant/src/tls\tlsv1_client_write.c **** 	if (conn->certificate_requested)
 1128              		.loc 1 868 9
 1129 002c 130A007D 		li	s4,2000
 869:C:/Users/stapi/OneDrive/Desktop/GD32VW553/V1_MQTT_OK/GD32VW55X_Wifi_BLE_SDK/GD32VW55x_RELEASE_V1.0.2/MSDK/wpa_supplicant/src/tls\tlsv1_client_write.c **** 		msglen += tls_client_cert_chain_der_len(conn);
 1130              		.loc 1 869 5
 1131 0030 858B     		andi	a5,a5,1
 1132 0032 89CB     		beq	a5,zero,.L45
 870:C:/Users/stapi/OneDrive/Desktop/GD32VW553/V1_MQTT_OK/GD32VW55X_Wifi_BLE_SDK/GD32VW55x_RELEASE_V1.0.2/MSDK/wpa_supplicant/src/tls\tlsv1_client_write.c **** 
 1133              		.loc 1 870 3 is_stmt 1
 1134              	.LVL92:
 1135              	.LBB148:
 1136              	.LBB149:
  26:C:/Users/stapi/OneDrive/Desktop/GD32VW553/V1_MQTT_OK/GD32VW55X_Wifi_BLE_SDK/GD32VW55x_RELEASE_V1.0.2/MSDK/wpa_supplicant/src/tls\tlsv1_client_write.c **** 	struct x509_certificate *cert;
 1137              		.loc 1 26 2
  27:C:/Users/stapi/OneDrive/Desktop/GD32VW553/V1_MQTT_OK/GD32VW55X_Wifi_BLE_SDK/GD32VW55x_RELEASE_V1.0.2/MSDK/wpa_supplicant/src/tls\tlsv1_client_write.c **** 
 1138              		.loc 1 27 2
  29:C:/Users/stapi/OneDrive/Desktop/GD32VW553/V1_MQTT_OK/GD32VW55X_Wifi_BLE_SDK/GD32VW55x_RELEASE_V1.0.2/MSDK/wpa_supplicant/src/tls\tlsv1_client_write.c **** 		return 0;
 1139              		.loc 1 29 2
  29:C:/Users/stapi/OneDrive/Desktop/GD32VW553/V1_MQTT_OK/GD32VW55X_Wifi_BLE_SDK/GD32VW55x_RELEASE_V1.0.2/MSDK/wpa_supplicant/src/tls\tlsv1_client_write.c **** 		return 0;
 1140              		.loc 1 29 10 is_stmt 0
 1141 0034 83278520 		lw	a5,520(a0)
  30:C:/Users/stapi/OneDrive/Desktop/GD32VW553/V1_MQTT_OK/GD32VW55X_Wifi_BLE_SDK/GD32VW55x_RELEASE_V1.0.2/MSDK/wpa_supplicant/src/tls\tlsv1_client_write.c **** 
 1142              		.loc 1 30 10
 1143 0038 014A     		li	s4,0
  29:C:/Users/stapi/OneDrive/Desktop/GD32VW553/V1_MQTT_OK/GD32VW55X_Wifi_BLE_SDK/GD32VW55x_RELEASE_V1.0.2/MSDK/wpa_supplicant/src/tls\tlsv1_client_write.c **** 		return 0;
 1144              		.loc 1 29 5
 1145 003a 99C3     		beq	a5,zero,.L46
  32:C:/Users/stapi/OneDrive/Desktop/GD32VW553/V1_MQTT_OK/GD32VW55X_Wifi_BLE_SDK/GD32VW55x_RELEASE_V1.0.2/MSDK/wpa_supplicant/src/tls\tlsv1_client_write.c **** 	while (cert) {
 1146              		.loc 1 32 2 is_stmt 1
  32:C:/Users/stapi/OneDrive/Desktop/GD32VW553/V1_MQTT_OK/GD32VW55X_Wifi_BLE_SDK/GD32VW55x_RELEASE_V1.0.2/MSDK/wpa_supplicant/src/tls\tlsv1_client_write.c **** 	while (cert) {
 1147              		.loc 1 32 7 is_stmt 0
 1148 003c C443     		lw	s1,4(a5)
 1149              	.LVL93:
  33:C:/Users/stapi/OneDrive/Desktop/GD32VW553/V1_MQTT_OK/GD32VW55X_Wifi_BLE_SDK/GD32VW55x_RELEASE_V1.0.2/MSDK/wpa_supplicant/src/tls\tlsv1_client_write.c **** 		len += 3 + cert->cert_len;
 1150              		.loc 1 33 2 is_stmt 1
 1151              	.L47:
  33:C:/Users/stapi/OneDrive/Desktop/GD32VW553/V1_MQTT_OK/GD32VW55X_Wifi_BLE_SDK/GD32VW55x_RELEASE_V1.0.2/MSDK/wpa_supplicant/src/tls\tlsv1_client_write.c **** 		len += 3 + cert->cert_len;
 1152              		.loc 1 33 8
 1153 003e 9DEC     		bne	s1,zero,.L48
 1154              	.LVL94:
 1155              	.L46:
 1156              	.LBE149:
 1157              	.LBE148:
 870:C:/Users/stapi/OneDrive/Desktop/GD32VW553/V1_MQTT_OK/GD32VW55X_Wifi_BLE_SDK/GD32VW55x_RELEASE_V1.0.2/MSDK/wpa_supplicant/src/tls\tlsv1_client_write.c **** 
 1158              		.loc 1 870 10 is_stmt 0
 1159 0040 130A0A7D 		addi	s4,s4,2000
 1160              	.LVL95:
 1161              	.L45:
 872:C:/Users/stapi/OneDrive/Desktop/GD32VW553/V1_MQTT_OK/GD32VW55X_Wifi_BLE_SDK/GD32VW55x_RELEASE_V1.0.2/MSDK/wpa_supplicant/src/tls\tlsv1_client_write.c **** 	if (msg == NULL)
 1162              		.loc 1 872 2 is_stmt 1
 872:C:/Users/stapi/OneDrive/Desktop/GD32VW553/V1_MQTT_OK/GD32VW55X_Wifi_BLE_SDK/GD32VW55x_RELEASE_V1.0.2/MSDK/wpa_supplicant/src/tls\tlsv1_client_write.c **** 	if (msg == NULL)
 1163              		.loc 1 872 8 is_stmt 0
 1164 0044 5285     		mv	a0,s4
 1165 0046 97000000 		call	os_malloc
 1165      E7800000 
 1166              	.LVL96:
 1167 004e AA84     		mv	s1,a0
 1168              	.LVL97:
 873:C:/Users/stapi/OneDrive/Desktop/GD32VW553/V1_MQTT_OK/GD32VW55X_Wifi_BLE_SDK/GD32VW55x_RELEASE_V1.0.2/MSDK/wpa_supplicant/src/tls\tlsv1_client_write.c **** 		return NULL;
 1169              		.loc 1 873 2 is_stmt 1
 873:C:/Users/stapi/OneDrive/Desktop/GD32VW553/V1_MQTT_OK/GD32VW55X_Wifi_BLE_SDK/GD32VW55x_RELEASE_V1.0.2/MSDK/wpa_supplicant/src/tls\tlsv1_client_write.c **** 		return NULL;
 1170              		.loc 1 873 5 is_stmt 0
 1171 0050 630B0568 		beq	a0,zero,.L41
 876:C:/Users/stapi/OneDrive/Desktop/GD32VW553/V1_MQTT_OK/GD32VW55X_Wifi_BLE_SDK/GD32VW55x_RELEASE_V1.0.2/MSDK/wpa_supplicant/src/tls\tlsv1_client_write.c **** 	end = msg + msglen;
 1172              		.loc 1 876 2 is_stmt 1
 879:C:/Users/stapi/OneDrive/Desktop/GD32VW553/V1_MQTT_OK/GD32VW55X_Wifi_BLE_SDK/GD32VW55x_RELEASE_V1.0.2/MSDK/wpa_supplicant/src/tls\tlsv1_client_write.c **** 		if (tls_write_client_certificate(conn, &pos, end) < 0) {
 1173              		.loc 1 879 6 is_stmt 0
 1174 0054 83478417 		lbu	a5,376(s0)
 876:C:/Users/stapi/OneDrive/Desktop/GD32VW553/V1_MQTT_OK/GD32VW55X_Wifi_BLE_SDK/GD32VW55x_RELEASE_V1.0.2/MSDK/wpa_supplicant/src/tls\tlsv1_client_write.c **** 	end = msg + msglen;
 1175              		.loc 1 876 6
 1176 0058 2ACE     		sw	a0,28(sp)
 877:C:/Users/stapi/OneDrive/Desktop/GD32VW553/V1_MQTT_OK/GD32VW55X_Wifi_BLE_SDK/GD32VW55x_RELEASE_V1.0.2/MSDK/wpa_supplicant/src/tls\tlsv1_client_write.c **** 
 1177              		.loc 1 877 2 is_stmt 1
 877:C:/Users/stapi/OneDrive/Desktop/GD32VW553/V1_MQTT_OK/GD32VW55X_Wifi_BLE_SDK/GD32VW55x_RELEASE_V1.0.2/MSDK/wpa_supplicant/src/tls\tlsv1_client_write.c **** 
 1178              		.loc 1 877 6 is_stmt 0
 1179 005a B30A4501 		add	s5,a0,s4
 1180              	.LVL98:
 879:C:/Users/stapi/OneDrive/Desktop/GD32VW553/V1_MQTT_OK/GD32VW55X_Wifi_BLE_SDK/GD32VW55x_RELEASE_V1.0.2/MSDK/wpa_supplicant/src/tls\tlsv1_client_write.c **** 		if (tls_write_client_certificate(conn, &pos, end) < 0) {
 1181              		.loc 1 879 2 is_stmt 1
 879:C:/Users/stapi/OneDrive/Desktop/GD32VW553/V1_MQTT_OK/GD32VW55X_Wifi_BLE_SDK/GD32VW55x_RELEASE_V1.0.2/MSDK/wpa_supplicant/src/tls\tlsv1_client_write.c **** 		if (tls_write_client_certificate(conn, &pos, end) < 0) {
 1182              		.loc 1 879 5 is_stmt 0
 1183 005e 858B     		andi	a5,a5,1
 1184 0060 63800718 		beq	a5,zero,.L50
 880:C:/Users/stapi/OneDrive/Desktop/GD32VW553/V1_MQTT_OK/GD32VW55X_Wifi_BLE_SDK/GD32VW55x_RELEASE_V1.0.2/MSDK/wpa_supplicant/src/tls\tlsv1_client_write.c **** 			os_free(msg);
 1185              		.loc 1 880 3 is_stmt 1
 1186              	.LVL99:
 1187              	.LBB151:
 1188              	.LBB152:
 255:C:/Users/stapi/OneDrive/Desktop/GD32VW553/V1_MQTT_OK/GD32VW55X_Wifi_BLE_SDK/GD32VW55x_RELEASE_V1.0.2/MSDK/wpa_supplicant/src/tls\tlsv1_client_write.c **** 	size_t rlen;
 1189              		.loc 1 255 2
 256:C:/Users/stapi/OneDrive/Desktop/GD32VW553/V1_MQTT_OK/GD32VW55X_Wifi_BLE_SDK/GD32VW55x_RELEASE_V1.0.2/MSDK/wpa_supplicant/src/tls\tlsv1_client_write.c **** 	struct x509_certificate *cert;
 1190              		.loc 1 256 2
 257:C:/Users/stapi/OneDrive/Desktop/GD32VW553/V1_MQTT_OK/GD32VW55X_Wifi_BLE_SDK/GD32VW55x_RELEASE_V1.0.2/MSDK/wpa_supplicant/src/tls\tlsv1_client_write.c **** 
 1191              		.loc 1 257 2
 259:C:/Users/stapi/OneDrive/Desktop/GD32VW553/V1_MQTT_OK/GD32VW55X_Wifi_BLE_SDK/GD32VW55x_RELEASE_V1.0.2/MSDK/wpa_supplicant/src/tls\tlsv1_client_write.c **** 	if (TLS_RECORD_HEADER_LEN + 1 + 3 + 3 > end - pos) {
 1192              		.loc 1 259 2
 260:C:/Users/stapi/OneDrive/Desktop/GD32VW553/V1_MQTT_OK/GD32VW55X_Wifi_BLE_SDK/GD32VW55x_RELEASE_V1.0.2/MSDK/wpa_supplicant/src/tls\tlsv1_client_write.c **** 		tls_alert(conn, TLS_ALERT_LEVEL_FATAL,
 1193              		.loc 1 260 2
 260:C:/Users/stapi/OneDrive/Desktop/GD32VW553/V1_MQTT_OK/GD32VW55X_Wifi_BLE_SDK/GD32VW55x_RELEASE_V1.0.2/MSDK/wpa_supplicant/src/tls\tlsv1_client_write.c **** 		tls_alert(conn, TLS_ALERT_LEVEL_FATAL,
 1194              		.loc 1 260 5 is_stmt 0
 1195 0064 2D49     		li	s2,11
 1196              	.LVL100:
 1197 0066 63404905 		bgt	s4,s2,.L51
 1198              	.LVL101:
 1199              	.L134:
 1200              	.LBE152:
 1201              	.LBE151:
 1202              	.LBB167:
 1203              	.LBB168:
 1204              	.LBB169:
 1205              	.LBB170:
 478:C:/Users/stapi/OneDrive/Desktop/GD32VW553/V1_MQTT_OK/GD32VW55X_Wifi_BLE_SDK/GD32VW55x_RELEASE_V1.0.2/MSDK/wpa_supplicant/src/tls\tlsv1_client_write.c **** 			  TLS_ALERT_INTERNAL_ERROR);
 1206              		.loc 1 478 3 is_stmt 1
 1207 006a 13060005 		li	a2,80
 1208 006e 8945     		li	a1,2
 1209 0070 2285     		mv	a0,s0
 1210 0072 97000000 		call	tls_alert
 1210      E7800000 
 1211              	.LVL102:
 480:C:/Users/stapi/OneDrive/Desktop/GD32VW553/V1_MQTT_OK/GD32VW55X_Wifi_BLE_SDK/GD32VW55x_RELEASE_V1.0.2/MSDK/wpa_supplicant/src/tls\tlsv1_client_write.c **** 	}
 1212              		.loc 1 480 3
 1213 007a 19A4     		j	.L98
 1214              	.LVL103:
 1215              	.L48:
 1216              	.LBE170:
 1217              	.LBE169:
 1218              	.LBE168:
 1219              	.LBE167:
 1220              	.LBB196:
 1221              	.LBB150:
  34:C:/Users/stapi/OneDrive/Desktop/GD32VW553/V1_MQTT_OK/GD32VW55X_Wifi_BLE_SDK/GD32VW55x_RELEASE_V1.0.2/MSDK/wpa_supplicant/src/tls\tlsv1_client_write.c **** 		if (x509_certificate_self_signed(cert))
 1222              		.loc 1 34 3
  34:C:/Users/stapi/OneDrive/Desktop/GD32VW553/V1_MQTT_OK/GD32VW55X_Wifi_BLE_SDK/GD32VW55x_RELEASE_V1.0.2/MSDK/wpa_supplicant/src/tls\tlsv1_client_write.c **** 		if (x509_certificate_self_signed(cert))
 1223              		.loc 1 34 7 is_stmt 0
 1224 007c 83A78437 		lw	a5,888(s1)
  35:C:/Users/stapi/OneDrive/Desktop/GD32VW553/V1_MQTT_OK/GD32VW55X_Wifi_BLE_SDK/GD32VW55x_RELEASE_V1.0.2/MSDK/wpa_supplicant/src/tls\tlsv1_client_write.c **** 			break;
 1225              		.loc 1 35 7
 1226 0080 2685     		mv	a0,s1
  34:C:/Users/stapi/OneDrive/Desktop/GD32VW553/V1_MQTT_OK/GD32VW55X_Wifi_BLE_SDK/GD32VW55x_RELEASE_V1.0.2/MSDK/wpa_supplicant/src/tls\tlsv1_client_write.c **** 		if (x509_certificate_self_signed(cert))
 1227              		.loc 1 34 7
 1228 0082 8D07     		addi	a5,a5,3
 1229 0084 3E9A     		add	s4,s4,a5
 1230              	.LVL104:
  35:C:/Users/stapi/OneDrive/Desktop/GD32VW553/V1_MQTT_OK/GD32VW55X_Wifi_BLE_SDK/GD32VW55x_RELEASE_V1.0.2/MSDK/wpa_supplicant/src/tls\tlsv1_client_write.c **** 			break;
 1231              		.loc 1 35 3 is_stmt 1
  35:C:/Users/stapi/OneDrive/Desktop/GD32VW553/V1_MQTT_OK/GD32VW55X_Wifi_BLE_SDK/GD32VW55x_RELEASE_V1.0.2/MSDK/wpa_supplicant/src/tls\tlsv1_client_write.c **** 			break;
 1232              		.loc 1 35 7 is_stmt 0
 1233 0086 97000000 		call	x509_certificate_self_signed
 1233      E7800000 
 1234              	.LVL105:
  35:C:/Users/stapi/OneDrive/Desktop/GD32VW553/V1_MQTT_OK/GD32VW55X_Wifi_BLE_SDK/GD32VW55x_RELEASE_V1.0.2/MSDK/wpa_supplicant/src/tls\tlsv1_client_write.c **** 			break;
 1235              		.loc 1 35 6
 1236 008e 4DF9     		bne	a0,zero,.L46
  37:C:/Users/stapi/OneDrive/Desktop/GD32VW553/V1_MQTT_OK/GD32VW55X_Wifi_BLE_SDK/GD32VW55x_RELEASE_V1.0.2/MSDK/wpa_supplicant/src/tls\tlsv1_client_write.c **** 						    &cert->issuer);
 1237              		.loc 1 37 3 is_stmt 1
  37:C:/Users/stapi/OneDrive/Desktop/GD32VW553/V1_MQTT_OK/GD32VW55X_Wifi_BLE_SDK/GD32VW55x_RELEASE_V1.0.2/MSDK/wpa_supplicant/src/tls\tlsv1_client_write.c **** 						    &cert->issuer);
 1238              		.loc 1 37 10 is_stmt 0
 1239 0090 83278420 		lw	a5,520(s0)
 1240 0094 93854407 		addi	a1,s1,116
 1241 0098 8843     		lw	a0,0(a5)
 1242 009a 97000000 		call	x509_certificate_get_subject
 1242      E7800000 
 1243              	.LVL106:
 1244 00a2 AA84     		mv	s1,a0
 1245              	.LVL107:
 1246 00a4 69BF     		j	.L47
 1247              	.LVL108:
 1248              	.L51:
 1249              	.LBE150:
 1250              	.LBE196:
 1251              	.LBB197:
 1252              	.LBB165:
 266:C:/Users/stapi/OneDrive/Desktop/GD32VW553/V1_MQTT_OK/GD32VW55X_Wifi_BLE_SDK/GD32VW55x_RELEASE_V1.0.2/MSDK/wpa_supplicant/src/tls\tlsv1_client_write.c **** 	rhdr = pos;
 1253              		.loc 1 266 2 is_stmt 1
 1254 00a6 B7050000 		lui	a1,%hi(.LC14)
 1255 00aa 93850500 		addi	a1,a1,%lo(.LC14)
 1256 00ae 0945     		li	a0,2
 1257 00b0 97000000 		call	wpa_printf
 1257      E7800000 
 1258              	.LVL109:
 267:C:/Users/stapi/OneDrive/Desktop/GD32VW553/V1_MQTT_OK/GD32VW55X_Wifi_BLE_SDK/GD32VW55x_RELEASE_V1.0.2/MSDK/wpa_supplicant/src/tls\tlsv1_client_write.c **** 	pos += TLS_RECORD_HEADER_LEN;
 1259              		.loc 1 267 2
 268:C:/Users/stapi/OneDrive/Desktop/GD32VW553/V1_MQTT_OK/GD32VW55X_Wifi_BLE_SDK/GD32VW55x_RELEASE_V1.0.2/MSDK/wpa_supplicant/src/tls\tlsv1_client_write.c **** 
 1260              		.loc 1 268 2
 273:C:/Users/stapi/OneDrive/Desktop/GD32VW553/V1_MQTT_OK/GD32VW55X_Wifi_BLE_SDK/GD32VW55x_RELEASE_V1.0.2/MSDK/wpa_supplicant/src/tls\tlsv1_client_write.c **** 	/* HandshakeType msg_type */
 1261              		.loc 1 273 2
 275:C:/Users/stapi/OneDrive/Desktop/GD32VW553/V1_MQTT_OK/GD32VW55X_Wifi_BLE_SDK/GD32VW55x_RELEASE_V1.0.2/MSDK/wpa_supplicant/src/tls\tlsv1_client_write.c **** 	/* uint24 length (to be filled) */
 1262              		.loc 1 275 2
 275:C:/Users/stapi/OneDrive/Desktop/GD32VW553/V1_MQTT_OK/GD32VW55X_Wifi_BLE_SDK/GD32VW55x_RELEASE_V1.0.2/MSDK/wpa_supplicant/src/tls\tlsv1_client_write.c **** 	/* uint24 length (to be filled) */
 1263              		.loc 1 275 9 is_stmt 0
 1264 00b8 A3822401 		sb	s2,5(s1)
 277:C:/Users/stapi/OneDrive/Desktop/GD32VW553/V1_MQTT_OK/GD32VW55X_Wifi_BLE_SDK/GD32VW55x_RELEASE_V1.0.2/MSDK/wpa_supplicant/src/tls\tlsv1_client_write.c **** 	pos += 3;
 1265              		.loc 1 277 2 is_stmt 1
 1266              	.LVL110:
 278:C:/Users/stapi/OneDrive/Desktop/GD32VW553/V1_MQTT_OK/GD32VW55X_Wifi_BLE_SDK/GD32VW55x_RELEASE_V1.0.2/MSDK/wpa_supplicant/src/tls\tlsv1_client_write.c **** 	/* body - Certificate */
 1267              		.loc 1 278 2
 281:C:/Users/stapi/OneDrive/Desktop/GD32VW553/V1_MQTT_OK/GD32VW55X_Wifi_BLE_SDK/GD32VW55x_RELEASE_V1.0.2/MSDK/wpa_supplicant/src/tls\tlsv1_client_write.c **** 	pos += 3;
 1268              		.loc 1 281 2
 282:C:/Users/stapi/OneDrive/Desktop/GD32VW553/V1_MQTT_OK/GD32VW55X_Wifi_BLE_SDK/GD32VW55x_RELEASE_V1.0.2/MSDK/wpa_supplicant/src/tls\tlsv1_client_write.c **** 	cert = conn->cred ? conn->cred->cert : NULL;
 1269              		.loc 1 282 2
 283:C:/Users/stapi/OneDrive/Desktop/GD32VW553/V1_MQTT_OK/GD32VW55X_Wifi_BLE_SDK/GD32VW55x_RELEASE_V1.0.2/MSDK/wpa_supplicant/src/tls\tlsv1_client_write.c **** 	while (cert) {
 1270              		.loc 1 283 13 is_stmt 0
 1271 00bc 03298420 		lw	s2,520(s0)
 282:C:/Users/stapi/OneDrive/Desktop/GD32VW553/V1_MQTT_OK/GD32VW55X_Wifi_BLE_SDK/GD32VW55x_RELEASE_V1.0.2/MSDK/wpa_supplicant/src/tls\tlsv1_client_write.c **** 	cert = conn->cred ? conn->cred->cert : NULL;
 1272              		.loc 1 282 6
 1273 00c0 9389C400 		addi	s3,s1,12
 1274              	.LVL111:
 283:C:/Users/stapi/OneDrive/Desktop/GD32VW553/V1_MQTT_OK/GD32VW55X_Wifi_BLE_SDK/GD32VW55x_RELEASE_V1.0.2/MSDK/wpa_supplicant/src/tls\tlsv1_client_write.c **** 	while (cert) {
 1275              		.loc 1 283 2 is_stmt 1
 283:C:/Users/stapi/OneDrive/Desktop/GD32VW553/V1_MQTT_OK/GD32VW55X_Wifi_BLE_SDK/GD32VW55x_RELEASE_V1.0.2/MSDK/wpa_supplicant/src/tls\tlsv1_client_write.c **** 	while (cert) {
 1276              		.loc 1 283 39 is_stmt 0
 1277 00c4 63060900 		beq	s2,zero,.L53
 1278 00c8 03294900 		lw	s2,4(s2)
 1279              	.L54:
 1280              	.LVL112:
 284:C:/Users/stapi/OneDrive/Desktop/GD32VW553/V1_MQTT_OK/GD32VW55X_Wifi_BLE_SDK/GD32VW55x_RELEASE_V1.0.2/MSDK/wpa_supplicant/src/tls\tlsv1_client_write.c **** 		if (3 + cert->cert_len > (size_t) (end - pos)) {
 1281              		.loc 1 284 8 is_stmt 1
 1282 00cc 63140908 		bne	s2,zero,.L56
 1283              	.LVL113:
 1284              	.L53:
 304:C:/Users/stapi/OneDrive/Desktop/GD32VW553/V1_MQTT_OK/GD32VW55X_Wifi_BLE_SDK/GD32VW55x_RELEASE_V1.0.2/MSDK/wpa_supplicant/src/tls\tlsv1_client_write.c **** 		/*
 1285              		.loc 1 304 2
 304:C:/Users/stapi/OneDrive/Desktop/GD32VW553/V1_MQTT_OK/GD32VW55X_Wifi_BLE_SDK/GD32VW55x_RELEASE_V1.0.2/MSDK/wpa_supplicant/src/tls\tlsv1_client_write.c **** 		/*
 1286              		.loc 1 304 10 is_stmt 0
 1287 00d0 83278420 		lw	a5,520(s0)
 304:C:/Users/stapi/OneDrive/Desktop/GD32VW553/V1_MQTT_OK/GD32VW55X_Wifi_BLE_SDK/GD32VW55x_RELEASE_V1.0.2/MSDK/wpa_supplicant/src/tls\tlsv1_client_write.c **** 		/*
 1288              		.loc 1 304 5
 1289 00d4 91C7     		beq	a5,zero,.L57
 304:C:/Users/stapi/OneDrive/Desktop/GD32VW553/V1_MQTT_OK/GD32VW55X_Wifi_BLE_SDK/GD32VW55x_RELEASE_V1.0.2/MSDK/wpa_supplicant/src/tls\tlsv1_client_write.c **** 		/*
 1290              		.loc 1 304 25
 1291 00d6 DC43     		lw	a5,4(a5)
 1292 00d8 6304F900 		beq	s2,a5,.L57
 304:C:/Users/stapi/OneDrive/Desktop/GD32VW553/V1_MQTT_OK/GD32VW55X_Wifi_BLE_SDK/GD32VW55x_RELEASE_V1.0.2/MSDK/wpa_supplicant/src/tls\tlsv1_client_write.c **** 		/*
 1293              		.loc 1 304 53
 1294 00dc 631B0900 		bne	s2,zero,.L58
 1295              	.L57:
 311:C:/Users/stapi/OneDrive/Desktop/GD32VW553/V1_MQTT_OK/GD32VW55X_Wifi_BLE_SDK/GD32VW55x_RELEASE_V1.0.2/MSDK/wpa_supplicant/src/tls\tlsv1_client_write.c **** 			   "not configured - validation may fail");
 1296              		.loc 1 311 3 is_stmt 1
 1297 00e0 B7050000 		lui	a1,%hi(.LC16)
 1298 00e4 93850500 		addi	a1,a1,%lo(.LC16)
 1299 00e8 0945     		li	a0,2
 1300 00ea 97000000 		call	wpa_printf
 1300      E7800000 
 1301              	.LVL114:
 1302              	.L58:
 314:C:/Users/stapi/OneDrive/Desktop/GD32VW553/V1_MQTT_OK/GD32VW55X_Wifi_BLE_SDK/GD32VW55x_RELEASE_V1.0.2/MSDK/wpa_supplicant/src/tls\tlsv1_client_write.c **** 
 1303              		.loc 1 314 31 is_stmt 0
 1304 00f2 B3879940 		sub	a5,s3,s1
 314:C:/Users/stapi/OneDrive/Desktop/GD32VW553/V1_MQTT_OK/GD32VW55X_Wifi_BLE_SDK/GD32VW55x_RELEASE_V1.0.2/MSDK/wpa_supplicant/src/tls\tlsv1_client_write.c **** 
 1305              		.loc 1 314 44
 1306 00f6 D117     		addi	a5,a5,-12
 1307              	.LBB153:
 1308              	.LBB154:
 269:..\..\..\..\wpa_supplicant\src\utils/common.h **** 	a[1] = (val >> 8) & 0xff;
 1309              		.loc 2 269 14
 1310 00f8 13D70701 		srli	a4,a5,16
 269:..\..\..\..\wpa_supplicant\src\utils/common.h **** 	a[1] = (val >> 8) & 0xff;
 1311              		.loc 2 269 7
 1312 00fc A384E400 		sb	a4,9(s1)
 271:..\..\..\..\wpa_supplicant\src\utils/common.h **** }
 1313              		.loc 2 271 7
 1314 0100 A385F400 		sb	a5,11(s1)
 270:..\..\..\..\wpa_supplicant\src\utils/common.h **** 	a[2] = val & 0xff;
 1315              		.loc 2 270 14
 1316 0104 13D78700 		srli	a4,a5,8
 1317              	.LBE154:
 1318              	.LBE153:
 316:C:/Users/stapi/OneDrive/Desktop/GD32VW553/V1_MQTT_OK/GD32VW55X_Wifi_BLE_SDK/GD32VW55x_RELEASE_V1.0.2/MSDK/wpa_supplicant/src/tls\tlsv1_client_write.c **** 
 1319              		.loc 1 316 30
 1320 0108 B3879940 		sub	a5,s3,s1
 316:C:/Users/stapi/OneDrive/Desktop/GD32VW553/V1_MQTT_OK/GD32VW55X_Wifi_BLE_SDK/GD32VW55x_RELEASE_V1.0.2/MSDK/wpa_supplicant/src/tls\tlsv1_client_write.c **** 
 1321              		.loc 1 316 42
 1322 010c DD17     		addi	a5,a5,-9
 1323              	.LBB157:
 1324              	.LBB155:
 270:..\..\..\..\wpa_supplicant\src\utils/common.h **** 	a[2] = val & 0xff;
 1325              		.loc 2 270 7
 1326 010e 2385E400 		sb	a4,10(s1)
 1327              	.LBE155:
 1328              	.LBE157:
 1329              	.LBB158:
 1330              	.LBB159:
 269:..\..\..\..\wpa_supplicant\src\utils/common.h **** 	a[1] = (val >> 8) & 0xff;
 1331              		.loc 2 269 14
 1332 0112 13D70701 		srli	a4,a5,16
 1333              	.LBE159:
 1334              	.LBE158:
 268:C:/Users/stapi/OneDrive/Desktop/GD32VW553/V1_MQTT_OK/GD32VW55X_Wifi_BLE_SDK/GD32VW55x_RELEASE_V1.0.2/MSDK/wpa_supplicant/src/tls\tlsv1_client_write.c **** 
 1335              		.loc 1 268 6
 1336 0116 13895400 		addi	s2,s1,5
 314:C:/Users/stapi/OneDrive/Desktop/GD32VW553/V1_MQTT_OK/GD32VW55X_Wifi_BLE_SDK/GD32VW55x_RELEASE_V1.0.2/MSDK/wpa_supplicant/src/tls\tlsv1_client_write.c **** 
 1337              		.loc 1 314 2 is_stmt 1
 1338              	.LVL115:
 1339              	.LBB161:
 1340              	.LBB156:
 269:..\..\..\..\wpa_supplicant\src\utils/common.h **** 	a[1] = (val >> 8) & 0xff;
 1341              		.loc 2 269 2
 270:..\..\..\..\wpa_supplicant\src\utils/common.h **** 	a[2] = val & 0xff;
 1342              		.loc 2 270 2
 271:..\..\..\..\wpa_supplicant\src\utils/common.h **** }
 1343              		.loc 2 271 2
 1344              	.LBE156:
 1345              	.LBE161:
 316:C:/Users/stapi/OneDrive/Desktop/GD32VW553/V1_MQTT_OK/GD32VW55X_Wifi_BLE_SDK/GD32VW55x_RELEASE_V1.0.2/MSDK/wpa_supplicant/src/tls\tlsv1_client_write.c **** 
 1346              		.loc 1 316 2
 1347              	.LBB162:
 1348              	.LBB160:
 269:..\..\..\..\wpa_supplicant\src\utils/common.h **** 	a[1] = (val >> 8) & 0xff;
 1349              		.loc 2 269 2
 269:..\..\..\..\wpa_supplicant\src\utils/common.h **** 	a[1] = (val >> 8) & 0xff;
 1350              		.loc 2 269 7 is_stmt 0
 1351 011a 2383E400 		sb	a4,6(s1)
 270:..\..\..\..\wpa_supplicant\src\utils/common.h **** 	a[2] = val & 0xff;
 1352              		.loc 2 270 2 is_stmt 1
 270:..\..\..\..\wpa_supplicant\src\utils/common.h **** 	a[2] = val & 0xff;
 1353              		.loc 2 270 14 is_stmt 0
 1354 011e 13D78700 		srli	a4,a5,8
 270:..\..\..\..\wpa_supplicant\src\utils/common.h **** 	a[2] = val & 0xff;
 1355              		.loc 2 270 7
 1356 0122 A383E400 		sb	a4,7(s1)
 271:..\..\..\..\wpa_supplicant\src\utils/common.h **** }
 1357              		.loc 2 271 2 is_stmt 1
 271:..\..\..\..\wpa_supplicant\src\utils/common.h **** }
 1358              		.loc 2 271 7 is_stmt 0
 1359 0126 2384F400 		sb	a5,8(s1)
 1360              	.LVL116:
 1361              	.LBE160:
 1362              	.LBE162:
 318:C:/Users/stapi/OneDrive/Desktop/GD32VW553/V1_MQTT_OK/GD32VW55X_Wifi_BLE_SDK/GD32VW55x_RELEASE_V1.0.2/MSDK/wpa_supplicant/src/tls\tlsv1_client_write.c **** 			      rhdr, end - rhdr, hs_start, pos - hs_start,
 1363              		.loc 1 318 2 is_stmt 1
 318:C:/Users/stapi/OneDrive/Desktop/GD32VW553/V1_MQTT_OK/GD32VW55X_Wifi_BLE_SDK/GD32VW55x_RELEASE_V1.0.2/MSDK/wpa_supplicant/src/tls\tlsv1_client_write.c **** 			      rhdr, end - rhdr, hs_start, pos - hs_start,
 1364              		.loc 1 318 6 is_stmt 0
 1365 012a 1308C102 		addi	a6,sp,44
 1366 012e B3872941 		sub	a5,s3,s2
 1367 0132 4A87     		mv	a4,s2
 1368 0134 D286     		mv	a3,s4
 1369 0136 2686     		mv	a2,s1
 1370 0138 D945     		li	a1,22
 1371 013a 13054400 		addi	a0,s0,4
 1372 013e 97000000 		call	tlsv1_record_send
 1372      E7800000 
 1373              	.LVL117:
 318:C:/Users/stapi/OneDrive/Desktop/GD32VW553/V1_MQTT_OK/GD32VW55X_Wifi_BLE_SDK/GD32VW55x_RELEASE_V1.0.2/MSDK/wpa_supplicant/src/tls\tlsv1_client_write.c **** 			      rhdr, end - rhdr, hs_start, pos - hs_start,
 1374              		.loc 1 318 5
 1375 0146 63510508 		bge	a0,zero,.L59
 1376              	.LVL118:
 1377              	.L139:
 1378              	.LBE165:
 1379              	.LBE197:
 1380              	.LBB198:
 1381              	.LBB199:
 721:C:/Users/stapi/OneDrive/Desktop/GD32VW553/V1_MQTT_OK/GD32VW55X_Wifi_BLE_SDK/GD32VW55x_RELEASE_V1.0.2/MSDK/wpa_supplicant/src/tls\tlsv1_client_write.c **** 		tls_alert(conn, TLS_ALERT_LEVEL_FATAL,
 1382              		.loc 1 721 3 is_stmt 1
 1383 014a B7050000 		lui	a1,%hi(.LC17)
 1384 014e 93850500 		addi	a1,a1,%lo(.LC17)
 1385 0152 EDA0     		j	.L131
 1386              	.LVL119:
 1387              	.L56:
 1388              	.LBE199:
 1389              	.LBE198:
 1390              	.LBB209:
 1391              	.LBB166:
 285:C:/Users/stapi/OneDrive/Desktop/GD32VW553/V1_MQTT_OK/GD32VW55X_Wifi_BLE_SDK/GD32VW55x_RELEASE_V1.0.2/MSDK/wpa_supplicant/src/tls\tlsv1_client_write.c **** 			wpa_printf(MSG_DEBUG, "TLSv1: Not enough buffer space "
 1392              		.loc 1 285 3
 285:C:/Users/stapi/OneDrive/Desktop/GD32VW553/V1_MQTT_OK/GD32VW55X_Wifi_BLE_SDK/GD32VW55x_RELEASE_V1.0.2/MSDK/wpa_supplicant/src/tls\tlsv1_client_write.c **** 			wpa_printf(MSG_DEBUG, "TLSv1: Not enough buffer space "
 1393              		.loc 1 285 15 is_stmt 0
 1394 0154 03268937 		lw	a2,888(s2)
 285:C:/Users/stapi/OneDrive/Desktop/GD32VW553/V1_MQTT_OK/GD32VW55X_Wifi_BLE_SDK/GD32VW55x_RELEASE_V1.0.2/MSDK/wpa_supplicant/src/tls\tlsv1_client_write.c **** 			wpa_printf(MSG_DEBUG, "TLSv1: Not enough buffer space "
 1395              		.loc 1 285 42
 1396 0158 B3863A41 		sub	a3,s5,s3
 285:C:/Users/stapi/OneDrive/Desktop/GD32VW553/V1_MQTT_OK/GD32VW55X_Wifi_BLE_SDK/GD32VW55x_RELEASE_V1.0.2/MSDK/wpa_supplicant/src/tls\tlsv1_client_write.c **** 			wpa_printf(MSG_DEBUG, "TLSv1: Not enough buffer space "
 1397              		.loc 1 285 9
 1398 015c 93073600 		addi	a5,a2,3
 285:C:/Users/stapi/OneDrive/Desktop/GD32VW553/V1_MQTT_OK/GD32VW55X_Wifi_BLE_SDK/GD32VW55x_RELEASE_V1.0.2/MSDK/wpa_supplicant/src/tls\tlsv1_client_write.c **** 			wpa_printf(MSG_DEBUG, "TLSv1: Not enough buffer space "
 1399              		.loc 1 285 6
 1400 0160 63FCF600 		bleu	a5,a3,.L55
 286:C:/Users/stapi/OneDrive/Desktop/GD32VW553/V1_MQTT_OK/GD32VW55X_Wifi_BLE_SDK/GD32VW55x_RELEASE_V1.0.2/MSDK/wpa_supplicant/src/tls\tlsv1_client_write.c **** 				   "for Certificate (cert_len=%lu left=%lu)",
 1401              		.loc 1 286 4 is_stmt 1
 1402 0164 B7050000 		lui	a1,%hi(.LC15)
 1403 0168 93850500 		addi	a1,a1,%lo(.LC15)
 1404 016c 0945     		li	a0,2
 1405 016e 97000000 		call	wpa_printf
 1405      E7800000 
 1406              	.LVL120:
 290:C:/Users/stapi/OneDrive/Desktop/GD32VW553/V1_MQTT_OK/GD32VW55X_Wifi_BLE_SDK/GD32VW55x_RELEASE_V1.0.2/MSDK/wpa_supplicant/src/tls\tlsv1_client_write.c **** 				  TLS_ALERT_INTERNAL_ERROR);
 1407              		.loc 1 290 4
 1408 0176 D5BD     		j	.L134
 1409              	.L55:
 294:C:/Users/stapi/OneDrive/Desktop/GD32VW553/V1_MQTT_OK/GD32VW55X_Wifi_BLE_SDK/GD32VW55x_RELEASE_V1.0.2/MSDK/wpa_supplicant/src/tls\tlsv1_client_write.c **** 		pos += 3;
 1410              		.loc 1 294 3
 1411              	.LVL121:
 1412              	.LBB163:
 1413              	.LBB164:
 269:..\..\..\..\wpa_supplicant\src\utils/common.h **** 	a[1] = (val >> 8) & 0xff;
 1414              		.loc 2 269 2
 269:..\..\..\..\wpa_supplicant\src\utils/common.h **** 	a[1] = (val >> 8) & 0xff;
 1415              		.loc 2 269 14 is_stmt 0
 1416 0178 93570601 		srli	a5,a2,16
 269:..\..\..\..\wpa_supplicant\src\utils/common.h **** 	a[1] = (val >> 8) & 0xff;
 1417              		.loc 2 269 7
 1418 017c 2380F900 		sb	a5,0(s3)
 270:..\..\..\..\wpa_supplicant\src\utils/common.h **** 	a[2] = val & 0xff;
 1419              		.loc 2 270 2 is_stmt 1
 270:..\..\..\..\wpa_supplicant\src\utils/common.h **** 	a[2] = val & 0xff;
 1420              		.loc 2 270 14 is_stmt 0
 1421 0180 93578600 		srli	a5,a2,8
 270:..\..\..\..\wpa_supplicant\src\utils/common.h **** 	a[2] = val & 0xff;
 1422              		.loc 2 270 7
 1423 0184 A380F900 		sb	a5,1(s3)
 271:..\..\..\..\wpa_supplicant\src\utils/common.h **** }
 1424              		.loc 2 271 2 is_stmt 1
 271:..\..\..\..\wpa_supplicant\src\utils/common.h **** }
 1425              		.loc 2 271 7 is_stmt 0
 1426 0188 2381C900 		sb	a2,2(s3)
 1427              	.LVL122:
 1428              	.LBE164:
 1429              	.LBE163:
 295:C:/Users/stapi/OneDrive/Desktop/GD32VW553/V1_MQTT_OK/GD32VW55X_Wifi_BLE_SDK/GD32VW55x_RELEASE_V1.0.2/MSDK/wpa_supplicant/src/tls\tlsv1_client_write.c **** 		os_memcpy(pos, cert->cert_start, cert->cert_len);
 1430              		.loc 1 295 3 is_stmt 1
 296:C:/Users/stapi/OneDrive/Desktop/GD32VW553/V1_MQTT_OK/GD32VW55X_Wifi_BLE_SDK/GD32VW55x_RELEASE_V1.0.2/MSDK/wpa_supplicant/src/tls\tlsv1_client_write.c **** 		pos += cert->cert_len;
 1431              		.loc 1 296 3 is_stmt 0
 1432 018c 03268937 		lw	a2,888(s2)
 1433 0190 83254937 		lw	a1,884(s2)
 295:C:/Users/stapi/OneDrive/Desktop/GD32VW553/V1_MQTT_OK/GD32VW55X_Wifi_BLE_SDK/GD32VW55x_RELEASE_V1.0.2/MSDK/wpa_supplicant/src/tls\tlsv1_client_write.c **** 		os_memcpy(pos, cert->cert_start, cert->cert_len);
 1434              		.loc 1 295 7
 1435 0194 8D09     		addi	s3,s3,3
 1436              	.LVL123:
 296:C:/Users/stapi/OneDrive/Desktop/GD32VW553/V1_MQTT_OK/GD32VW55X_Wifi_BLE_SDK/GD32VW55x_RELEASE_V1.0.2/MSDK/wpa_supplicant/src/tls\tlsv1_client_write.c **** 		pos += cert->cert_len;
 1437              		.loc 1 296 3 is_stmt 1
 1438 0196 4E85     		mv	a0,s3
 1439 0198 97000000 		call	os_memcpy
 1439      E7800000 
 1440              	.LVL124:
 297:C:/Users/stapi/OneDrive/Desktop/GD32VW553/V1_MQTT_OK/GD32VW55X_Wifi_BLE_SDK/GD32VW55x_RELEASE_V1.0.2/MSDK/wpa_supplicant/src/tls\tlsv1_client_write.c **** 
 1441              		.loc 1 297 3
 297:C:/Users/stapi/OneDrive/Desktop/GD32VW553/V1_MQTT_OK/GD32VW55X_Wifi_BLE_SDK/GD32VW55x_RELEASE_V1.0.2/MSDK/wpa_supplicant/src/tls\tlsv1_client_write.c **** 
 1442              		.loc 1 297 7 is_stmt 0
 1443 01a0 83278937 		lw	a5,888(s2)
 299:C:/Users/stapi/OneDrive/Desktop/GD32VW553/V1_MQTT_OK/GD32VW55X_Wifi_BLE_SDK/GD32VW55x_RELEASE_V1.0.2/MSDK/wpa_supplicant/src/tls\tlsv1_client_write.c **** 			break;
 1444              		.loc 1 299 7
 1445 01a4 4A85     		mv	a0,s2
 297:C:/Users/stapi/OneDrive/Desktop/GD32VW553/V1_MQTT_OK/GD32VW55X_Wifi_BLE_SDK/GD32VW55x_RELEASE_V1.0.2/MSDK/wpa_supplicant/src/tls\tlsv1_client_write.c **** 
 1446              		.loc 1 297 7
 1447 01a6 BE99     		add	s3,s3,a5
 1448              	.LVL125:
 299:C:/Users/stapi/OneDrive/Desktop/GD32VW553/V1_MQTT_OK/GD32VW55X_Wifi_BLE_SDK/GD32VW55x_RELEASE_V1.0.2/MSDK/wpa_supplicant/src/tls\tlsv1_client_write.c **** 			break;
 1449              		.loc 1 299 3 is_stmt 1
 299:C:/Users/stapi/OneDrive/Desktop/GD32VW553/V1_MQTT_OK/GD32VW55X_Wifi_BLE_SDK/GD32VW55x_RELEASE_V1.0.2/MSDK/wpa_supplicant/src/tls\tlsv1_client_write.c **** 			break;
 1450              		.loc 1 299 7 is_stmt 0
 1451 01a8 97000000 		call	x509_certificate_self_signed
 1451      E7800000 
 1452              	.LVL126:
 299:C:/Users/stapi/OneDrive/Desktop/GD32VW553/V1_MQTT_OK/GD32VW55X_Wifi_BLE_SDK/GD32VW55x_RELEASE_V1.0.2/MSDK/wpa_supplicant/src/tls\tlsv1_client_write.c **** 			break;
 1453              		.loc 1 299 6
 1454 01b0 05F1     		bne	a0,zero,.L53
 301:C:/Users/stapi/OneDrive/Desktop/GD32VW553/V1_MQTT_OK/GD32VW55X_Wifi_BLE_SDK/GD32VW55x_RELEASE_V1.0.2/MSDK/wpa_supplicant/src/tls\tlsv1_client_write.c **** 						    &cert->issuer);
 1455              		.loc 1 301 3 is_stmt 1
 301:C:/Users/stapi/OneDrive/Desktop/GD32VW553/V1_MQTT_OK/GD32VW55X_Wifi_BLE_SDK/GD32VW55x_RELEASE_V1.0.2/MSDK/wpa_supplicant/src/tls\tlsv1_client_write.c **** 						    &cert->issuer);
 1456              		.loc 1 301 10 is_stmt 0
 1457 01b2 83278420 		lw	a5,520(s0)
 1458 01b6 93054907 		addi	a1,s2,116
 1459 01ba 8843     		lw	a0,0(a5)
 1460 01bc 97000000 		call	x509_certificate_get_subject
 1460      E7800000 
 1461              	.LVL127:
 1462 01c4 2A89     		mv	s2,a0
 1463              	.LVL128:
 1464 01c6 19B7     		j	.L54
 1465              	.LVL129:
 1466              	.L59:
 326:C:/Users/stapi/OneDrive/Desktop/GD32VW553/V1_MQTT_OK/GD32VW55X_Wifi_BLE_SDK/GD32VW55x_RELEASE_V1.0.2/MSDK/wpa_supplicant/src/tls\tlsv1_client_write.c **** 
 1467              		.loc 1 326 2 is_stmt 1
 326:C:/Users/stapi/OneDrive/Desktop/GD32VW553/V1_MQTT_OK/GD32VW55X_Wifi_BLE_SDK/GD32VW55x_RELEASE_V1.0.2/MSDK/wpa_supplicant/src/tls\tlsv1_client_write.c **** 
 1468              		.loc 1 326 13 is_stmt 0
 1469 01c8 3256     		lw	a2,44(sp)
 328:C:/Users/stapi/OneDrive/Desktop/GD32VW553/V1_MQTT_OK/GD32VW55X_Wifi_BLE_SDK/GD32VW55x_RELEASE_V1.0.2/MSDK/wpa_supplicant/src/tls\tlsv1_client_write.c **** 
 1470              		.loc 1 328 2
 1471 01ca CA85     		mv	a1,s2
 1472 01cc 13050418 		addi	a0,s0,384
 326:C:/Users/stapi/OneDrive/Desktop/GD32VW553/V1_MQTT_OK/GD32VW55X_Wifi_BLE_SDK/GD32VW55x_RELEASE_V1.0.2/MSDK/wpa_supplicant/src/tls\tlsv1_client_write.c **** 
 1473              		.loc 1 326 6
 1474 01d0 B389C400 		add	s3,s1,a2
 1475              	.LVL130:
 328:C:/Users/stapi/OneDrive/Desktop/GD32VW553/V1_MQTT_OK/GD32VW55X_Wifi_BLE_SDK/GD32VW55x_RELEASE_V1.0.2/MSDK/wpa_supplicant/src/tls\tlsv1_client_write.c **** 
 1476              		.loc 1 328 2 is_stmt 1
 1477 01d4 6D16     		addi	a2,a2,-5
 1478 01d6 97000000 		call	tls_verify_hash_add
 1478      E7800000 
 1479              	.LVL131:
 330:C:/Users/stapi/OneDrive/Desktop/GD32VW553/V1_MQTT_OK/GD32VW55X_Wifi_BLE_SDK/GD32VW55x_RELEASE_V1.0.2/MSDK/wpa_supplicant/src/tls\tlsv1_client_write.c **** 
 1480              		.loc 1 330 2
 330:C:/Users/stapi/OneDrive/Desktop/GD32VW553/V1_MQTT_OK/GD32VW55X_Wifi_BLE_SDK/GD32VW55x_RELEASE_V1.0.2/MSDK/wpa_supplicant/src/tls\tlsv1_client_write.c **** 
 1481              		.loc 1 330 10 is_stmt 0
 1482 01de 4ECE     		sw	s3,28(sp)
 332:C:/Users/stapi/OneDrive/Desktop/GD32VW553/V1_MQTT_OK/GD32VW55X_Wifi_BLE_SDK/GD32VW55x_RELEASE_V1.0.2/MSDK/wpa_supplicant/src/tls\tlsv1_client_write.c **** }
 1483              		.loc 1 332 2 is_stmt 1
 1484              	.LVL132:
 1485              	.L50:
 1486              	.LBE166:
 1487              	.LBE209:
 886:C:/Users/stapi/OneDrive/Desktop/GD32VW553/V1_MQTT_OK/GD32VW55X_Wifi_BLE_SDK/GD32VW55x_RELEASE_V1.0.2/MSDK/wpa_supplicant/src/tls\tlsv1_client_write.c **** 	    (conn->certificate_requested && conn->cred && conn->cred->key &&
 1488              		.loc 1 886 2
 1489              	.LBB210:
 1490              	.LBB193:
 509:C:/Users/stapi/OneDrive/Desktop/GD32VW553/V1_MQTT_OK/GD32VW55X_Wifi_BLE_SDK/GD32VW55x_RELEASE_V1.0.2/MSDK/wpa_supplicant/src/tls\tlsv1_client_write.c **** 	size_t rlen;
 1491              		.loc 1 509 2
 510:C:/Users/stapi/OneDrive/Desktop/GD32VW553/V1_MQTT_OK/GD32VW55X_Wifi_BLE_SDK/GD32VW55x_RELEASE_V1.0.2/MSDK/wpa_supplicant/src/tls\tlsv1_client_write.c **** 	tls_key_exchange keyx;
 1492              		.loc 1 510 2
 511:C:/Users/stapi/OneDrive/Desktop/GD32VW553/V1_MQTT_OK/GD32VW55X_Wifi_BLE_SDK/GD32VW55x_RELEASE_V1.0.2/MSDK/wpa_supplicant/src/tls\tlsv1_client_write.c **** 	const struct tls_cipher_suite *suite;
 1493              		.loc 1 511 2
 512:C:/Users/stapi/OneDrive/Desktop/GD32VW553/V1_MQTT_OK/GD32VW55X_Wifi_BLE_SDK/GD32VW55x_RELEASE_V1.0.2/MSDK/wpa_supplicant/src/tls\tlsv1_client_write.c **** 
 1494              		.loc 1 512 2
 514:C:/Users/stapi/OneDrive/Desktop/GD32VW553/V1_MQTT_OK/GD32VW55X_Wifi_BLE_SDK/GD32VW55x_RELEASE_V1.0.2/MSDK/wpa_supplicant/src/tls\tlsv1_client_write.c **** 	if (suite == NULL)
 1495              		.loc 1 514 2
 514:C:/Users/stapi/OneDrive/Desktop/GD32VW553/V1_MQTT_OK/GD32VW55X_Wifi_BLE_SDK/GD32VW55x_RELEASE_V1.0.2/MSDK/wpa_supplicant/src/tls\tlsv1_client_write.c **** 	if (suite == NULL)
 1496              		.loc 1 514 10 is_stmt 0
 1497 01e0 0355C40C 		lhu	a0,204(s0)
 516:C:/Users/stapi/OneDrive/Desktop/GD32VW553/V1_MQTT_OK/GD32VW55X_Wifi_BLE_SDK/GD32VW55x_RELEASE_V1.0.2/MSDK/wpa_supplicant/src/tls\tlsv1_client_write.c **** 	else
 1498              		.loc 1 516 8
 1499 01e4 8149     		li	s3,0
 514:C:/Users/stapi/OneDrive/Desktop/GD32VW553/V1_MQTT_OK/GD32VW55X_Wifi_BLE_SDK/GD32VW55x_RELEASE_V1.0.2/MSDK/wpa_supplicant/src/tls\tlsv1_client_write.c **** 	if (suite == NULL)
 1500              		.loc 1 514 10
 1501 01e6 97000000 		call	tls_get_cipher_suite
 1501      E7800000 
 1502              	.LVL133:
 515:C:/Users/stapi/OneDrive/Desktop/GD32VW553/V1_MQTT_OK/GD32VW55X_Wifi_BLE_SDK/GD32VW55x_RELEASE_V1.0.2/MSDK/wpa_supplicant/src/tls\tlsv1_client_write.c **** 		keyx = TLS_KEY_X_NULL;
 1503              		.loc 1 515 2 is_stmt 1
 515:C:/Users/stapi/OneDrive/Desktop/GD32VW553/V1_MQTT_OK/GD32VW55X_Wifi_BLE_SDK/GD32VW55x_RELEASE_V1.0.2/MSDK/wpa_supplicant/src/tls\tlsv1_client_write.c **** 		keyx = TLS_KEY_X_NULL;
 1504              		.loc 1 515 5 is_stmt 0
 1505 01ee 19C1     		beq	a0,zero,.L60
 518:C:/Users/stapi/OneDrive/Desktop/GD32VW553/V1_MQTT_OK/GD32VW55X_Wifi_BLE_SDK/GD32VW55x_RELEASE_V1.0.2/MSDK/wpa_supplicant/src/tls\tlsv1_client_write.c **** 
 1506              		.loc 1 518 3 is_stmt 1
 518:C:/Users/stapi/OneDrive/Desktop/GD32VW553/V1_MQTT_OK/GD32VW55X_Wifi_BLE_SDK/GD32VW55x_RELEASE_V1.0.2/MSDK/wpa_supplicant/src/tls\tlsv1_client_write.c **** 
 1507              		.loc 1 518 8 is_stmt 0
 1508 01f0 83294500 		lw	s3,4(a0)
 1509              	.LVL134:
 1510              	.L60:
 520:C:/Users/stapi/OneDrive/Desktop/GD32VW553/V1_MQTT_OK/GD32VW55X_Wifi_BLE_SDK/GD32VW55x_RELEASE_V1.0.2/MSDK/wpa_supplicant/src/tls\tlsv1_client_write.c **** 
 1511              		.loc 1 520 2 is_stmt 1
 520:C:/Users/stapi/OneDrive/Desktop/GD32VW553/V1_MQTT_OK/GD32VW55X_Wifi_BLE_SDK/GD32VW55x_RELEASE_V1.0.2/MSDK/wpa_supplicant/src/tls\tlsv1_client_write.c **** 
 1512              		.loc 1 520 8 is_stmt 0
 1513 01f4 7249     		lw	s2,28(sp)
 1514              	.LVL135:
 522:C:/Users/stapi/OneDrive/Desktop/GD32VW553/V1_MQTT_OK/GD32VW55X_Wifi_BLE_SDK/GD32VW55x_RELEASE_V1.0.2/MSDK/wpa_supplicant/src/tls\tlsv1_client_write.c **** 
 1515              		.loc 1 522 2 is_stmt 1
 1516 01f6 B7050000 		lui	a1,%hi(.LC18)
 1517 01fa 93850500 		addi	a1,a1,%lo(.LC18)
 1518 01fe 0945     		li	a0,2
 1519              	.LVL136:
 1520 0200 97000000 		call	wpa_printf
 1520      E7800000 
 1521              	.LVL137:
 524:C:/Users/stapi/OneDrive/Desktop/GD32VW553/V1_MQTT_OK/GD32VW55X_Wifi_BLE_SDK/GD32VW55x_RELEASE_V1.0.2/MSDK/wpa_supplicant/src/tls\tlsv1_client_write.c **** 	pos += TLS_RECORD_HEADER_LEN;
 1522              		.loc 1 524 2
 525:C:/Users/stapi/OneDrive/Desktop/GD32VW553/V1_MQTT_OK/GD32VW55X_Wifi_BLE_SDK/GD32VW55x_RELEASE_V1.0.2/MSDK/wpa_supplicant/src/tls\tlsv1_client_write.c **** 
 1523              		.loc 1 525 2
 532:C:/Users/stapi/OneDrive/Desktop/GD32VW553/V1_MQTT_OK/GD32VW55X_Wifi_BLE_SDK/GD32VW55x_RELEASE_V1.0.2/MSDK/wpa_supplicant/src/tls\tlsv1_client_write.c **** 	/* uint24 length (to be filled) */
 1524              		.loc 1 532 6 is_stmt 0
 1525 0208 93076900 		addi	a5,s2,6
 1526 020c 3EC6     		sw	a5,12(sp)
 537:C:/Users/stapi/OneDrive/Desktop/GD32VW553/V1_MQTT_OK/GD32VW55X_Wifi_BLE_SDK/GD32VW55x_RELEASE_V1.0.2/MSDK/wpa_supplicant/src/tls\tlsv1_client_write.c **** 		if (tlsv1_key_x_dh(conn, &pos, end) < 0)
 1527              		.loc 1 537 32
 1528 020e D919     		addi	s3,s3,-10
 532:C:/Users/stapi/OneDrive/Desktop/GD32VW553/V1_MQTT_OK/GD32VW55X_Wifi_BLE_SDK/GD32VW55x_RELEASE_V1.0.2/MSDK/wpa_supplicant/src/tls\tlsv1_client_write.c **** 	/* uint24 length (to be filled) */
 1529              		.loc 1 532 9
 1530 0210 C147     		li	a5,16
 1531 0212 A302F900 		sb	a5,5(s2)
 537:C:/Users/stapi/OneDrive/Desktop/GD32VW553/V1_MQTT_OK/GD32VW55X_Wifi_BLE_SDK/GD32VW55x_RELEASE_V1.0.2/MSDK/wpa_supplicant/src/tls\tlsv1_client_write.c **** 		if (tlsv1_key_x_dh(conn, &pos, end) < 0)
 1532              		.loc 1 537 32
 1533 0216 93F9D9FF 		andi	s3,s3,-3
 525:C:/Users/stapi/OneDrive/Desktop/GD32VW553/V1_MQTT_OK/GD32VW55X_Wifi_BLE_SDK/GD32VW55x_RELEASE_V1.0.2/MSDK/wpa_supplicant/src/tls\tlsv1_client_write.c **** 
 1534              		.loc 1 525 6
 1535 021a 130D5900 		addi	s10,s2,5
 530:C:/Users/stapi/OneDrive/Desktop/GD32VW553/V1_MQTT_OK/GD32VW55X_Wifi_BLE_SDK/GD32VW55x_RELEASE_V1.0.2/MSDK/wpa_supplicant/src/tls\tlsv1_client_write.c **** 	/* HandshakeType msg_type */
 1536              		.loc 1 530 2 is_stmt 1
 1537              	.LVL138:
 532:C:/Users/stapi/OneDrive/Desktop/GD32VW553/V1_MQTT_OK/GD32VW55X_Wifi_BLE_SDK/GD32VW55x_RELEASE_V1.0.2/MSDK/wpa_supplicant/src/tls\tlsv1_client_write.c **** 	/* uint24 length (to be filled) */
 1538              		.loc 1 532 2
 534:C:/Users/stapi/OneDrive/Desktop/GD32VW553/V1_MQTT_OK/GD32VW55X_Wifi_BLE_SDK/GD32VW55x_RELEASE_V1.0.2/MSDK/wpa_supplicant/src/tls\tlsv1_client_write.c **** 	pos += 3;
 1539              		.loc 1 534 2
 535:C:/Users/stapi/OneDrive/Desktop/GD32VW553/V1_MQTT_OK/GD32VW55X_Wifi_BLE_SDK/GD32VW55x_RELEASE_V1.0.2/MSDK/wpa_supplicant/src/tls\tlsv1_client_write.c **** 	/* body - ClientKeyExchange */
 1540              		.loc 1 535 2
 537:C:/Users/stapi/OneDrive/Desktop/GD32VW553/V1_MQTT_OK/GD32VW55X_Wifi_BLE_SDK/GD32VW55x_RELEASE_V1.0.2/MSDK/wpa_supplicant/src/tls\tlsv1_client_write.c **** 		if (tlsv1_key_x_dh(conn, &pos, end) < 0)
 1541              		.loc 1 537 2
 537:C:/Users/stapi/OneDrive/Desktop/GD32VW553/V1_MQTT_OK/GD32VW55X_Wifi_BLE_SDK/GD32VW55x_RELEASE_V1.0.2/MSDK/wpa_supplicant/src/tls\tlsv1_client_write.c **** 		if (tlsv1_key_x_dh(conn, &pos, end) < 0)
 1542              		.loc 1 537 32 is_stmt 0
 1543 021e 63980928 		bne	s3,zero,.L61
 538:C:/Users/stapi/OneDrive/Desktop/GD32VW553/V1_MQTT_OK/GD32VW55X_Wifi_BLE_SDK/GD32VW55x_RELEASE_V1.0.2/MSDK/wpa_supplicant/src/tls\tlsv1_client_write.c **** 			return -1;
 1544              		.loc 1 538 3 is_stmt 1
 1545              	.LVL139:
 1546              	.LBB177:
 1547              	.LBB178:
 339:C:/Users/stapi/OneDrive/Desktop/GD32VW553/V1_MQTT_OK/GD32VW55X_Wifi_BLE_SDK/GD32VW55x_RELEASE_V1.0.2/MSDK/wpa_supplicant/src/tls\tlsv1_client_write.c **** 	size_t csecret_len, dh_yc_len, shared_len;
 1548              		.loc 1 339 2
 340:C:/Users/stapi/OneDrive/Desktop/GD32VW553/V1_MQTT_OK/GD32VW55X_Wifi_BLE_SDK/GD32VW55x_RELEASE_V1.0.2/MSDK/wpa_supplicant/src/tls\tlsv1_client_write.c **** 
 1549              		.loc 1 340 2
 342:C:/Users/stapi/OneDrive/Desktop/GD32VW553/V1_MQTT_OK/GD32VW55X_Wifi_BLE_SDK/GD32VW55x_RELEASE_V1.0.2/MSDK/wpa_supplicant/src/tls\tlsv1_client_write.c **** 	csecret = os_malloc(csecret_len);
 1550              		.loc 1 342 2
 342:C:/Users/stapi/OneDrive/Desktop/GD32VW553/V1_MQTT_OK/GD32VW55X_Wifi_BLE_SDK/GD32VW55x_RELEASE_V1.0.2/MSDK/wpa_supplicant/src/tls\tlsv1_client_write.c **** 	csecret = os_malloc(csecret_len);
 1551              		.loc 1 342 14 is_stmt 0
 1552 0222 032C441F 		lw	s8,500(s0)
 1553              	.LVL140:
 343:C:/Users/stapi/OneDrive/Desktop/GD32VW553/V1_MQTT_OK/GD32VW55X_Wifi_BLE_SDK/GD32VW55x_RELEASE_V1.0.2/MSDK/wpa_supplicant/src/tls\tlsv1_client_write.c **** 	if (csecret == NULL) {
 1554              		.loc 1 343 2 is_stmt 1
 343:C:/Users/stapi/OneDrive/Desktop/GD32VW553/V1_MQTT_OK/GD32VW55X_Wifi_BLE_SDK/GD32VW55x_RELEASE_V1.0.2/MSDK/wpa_supplicant/src/tls\tlsv1_client_write.c **** 	if (csecret == NULL) {
 1555              		.loc 1 343 12 is_stmt 0
 1556 0226 6285     		mv	a0,s8
 1557 0228 97000000 		call	os_malloc
 1557      E7800000 
 1558              	.LVL141:
 1559 0230 AA89     		mv	s3,a0
 1560              	.LVL142:
 344:C:/Users/stapi/OneDrive/Desktop/GD32VW553/V1_MQTT_OK/GD32VW55X_Wifi_BLE_SDK/GD32VW55x_RELEASE_V1.0.2/MSDK/wpa_supplicant/src/tls\tlsv1_client_write.c **** 		wpa_printf(MSG_DEBUG, "TLSv1: Failed to allocate "
 1561              		.loc 1 344 2 is_stmt 1
 344:C:/Users/stapi/OneDrive/Desktop/GD32VW553/V1_MQTT_OK/GD32VW55X_Wifi_BLE_SDK/GD32VW55x_RELEASE_V1.0.2/MSDK/wpa_supplicant/src/tls\tlsv1_client_write.c **** 		wpa_printf(MSG_DEBUG, "TLSv1: Failed to allocate "
 1562              		.loc 1 344 5 is_stmt 0
 1563 0232 19E9     		bne	a0,zero,.L62
 345:C:/Users/stapi/OneDrive/Desktop/GD32VW553/V1_MQTT_OK/GD32VW55X_Wifi_BLE_SDK/GD32VW55x_RELEASE_V1.0.2/MSDK/wpa_supplicant/src/tls\tlsv1_client_write.c **** 			   "memory for Yc (Diffie-Hellman)");
 1564              		.loc 1 345 3 is_stmt 1
 1565 0234 B7050000 		lui	a1,%hi(.LC19)
 1566 0238 93850500 		addi	a1,a1,%lo(.LC19)
 1567              	.LVL143:
 1568              	.L131:
 1569              	.LBE178:
 1570              	.LBE177:
 1571              	.LBB186:
 1572              	.LBB175:
 476:C:/Users/stapi/OneDrive/Desktop/GD32VW553/V1_MQTT_OK/GD32VW55X_Wifi_BLE_SDK/GD32VW55x_RELEASE_V1.0.2/MSDK/wpa_supplicant/src/tls\tlsv1_client_write.c **** 			   "use for encrypting pre-master secret");
 1573              		.loc 1 476 3 is_stmt 0
 1574 023c 0945     		li	a0,2
 1575 023e 97000000 		call	wpa_printf
 1575      E7800000 
 1576              	.LVL144:
 1577 0246 15B5     		j	.L134
 1578              	.LVL145:
 1579              	.L62:
 1580              	.LBE175:
 1581              	.LBE186:
 1582              	.LBB187:
 1583              	.LBB183:
 351:C:/Users/stapi/OneDrive/Desktop/GD32VW553/V1_MQTT_OK/GD32VW55X_Wifi_BLE_SDK/GD32VW55x_RELEASE_V1.0.2/MSDK/wpa_supplicant/src/tls\tlsv1_client_write.c **** 		wpa_printf(MSG_DEBUG, "TLSv1: Failed to get random "
 1584              		.loc 1 351 2 is_stmt 1
 351:C:/Users/stapi/OneDrive/Desktop/GD32VW553/V1_MQTT_OK/GD32VW55X_Wifi_BLE_SDK/GD32VW55x_RELEASE_V1.0.2/MSDK/wpa_supplicant/src/tls\tlsv1_client_write.c **** 		wpa_printf(MSG_DEBUG, "TLSv1: Failed to get random "
 1585              		.loc 1 351 6 is_stmt 0
 1586 0248 E285     		mv	a1,s8
 1587 024a 97000000 		call	os_get_random
 1587      E7800000 
 1588              	.LVL146:
 351:C:/Users/stapi/OneDrive/Desktop/GD32VW553/V1_MQTT_OK/GD32VW55X_Wifi_BLE_SDK/GD32VW55x_RELEASE_V1.0.2/MSDK/wpa_supplicant/src/tls\tlsv1_client_write.c **** 		wpa_printf(MSG_DEBUG, "TLSv1: Failed to get random "
 1589              		.loc 1 351 5
 1590 0252 15CD     		beq	a0,zero,.L64
 352:C:/Users/stapi/OneDrive/Desktop/GD32VW553/V1_MQTT_OK/GD32VW55X_Wifi_BLE_SDK/GD32VW55x_RELEASE_V1.0.2/MSDK/wpa_supplicant/src/tls\tlsv1_client_write.c **** 			   "data for Diffie-Hellman");
 1591              		.loc 1 352 3 is_stmt 1
 1592 0254 B7050000 		lui	a1,%hi(.LC20)
 1593 0258 93850500 		addi	a1,a1,%lo(.LC20)
 1594              	.LVL147:
 1595              	.L138:
 421:C:/Users/stapi/OneDrive/Desktop/GD32VW553/V1_MQTT_OK/GD32VW55X_Wifi_BLE_SDK/GD32VW55x_RELEASE_V1.0.2/MSDK/wpa_supplicant/src/tls\tlsv1_client_write.c **** 			   "DH");
 1596              		.loc 1 421 3 is_stmt 0
 1597 025c 0945     		li	a0,2
 1598 025e 97000000 		call	wpa_printf
 1598      E7800000 
 1599              	.LVL148:
 423:C:/Users/stapi/OneDrive/Desktop/GD32VW553/V1_MQTT_OK/GD32VW55X_Wifi_BLE_SDK/GD32VW55x_RELEASE_V1.0.2/MSDK/wpa_supplicant/src/tls\tlsv1_client_write.c **** 			  TLS_ALERT_INTERNAL_ERROR);
 1600              		.loc 1 423 3 is_stmt 1
 1601 0266 2285     		mv	a0,s0
 1602 0268 13060005 		li	a2,80
 1603 026c 8945     		li	a1,2
 1604 026e 97000000 		call	tls_alert
 1604      E7800000 
 1605              	.LVL149:
 425:C:/Users/stapi/OneDrive/Desktop/GD32VW553/V1_MQTT_OK/GD32VW55X_Wifi_BLE_SDK/GD32VW55x_RELEASE_V1.0.2/MSDK/wpa_supplicant/src/tls\tlsv1_client_write.c **** 		return -1;
 1606              		.loc 1 425 3
 1607 0276 4E85     		mv	a0,s3
 1608              	.L133:
 449:C:/Users/stapi/OneDrive/Desktop/GD32VW553/V1_MQTT_OK/GD32VW55X_Wifi_BLE_SDK/GD32VW55x_RELEASE_V1.0.2/MSDK/wpa_supplicant/src/tls\tlsv1_client_write.c **** 		return -1;
 1609              		.loc 1 449 3 is_stmt 0
 1610 0278 97000000 		call	os_free
 1610      E7800000 
 1611              	.LVL150:
 450:C:/Users/stapi/OneDrive/Desktop/GD32VW553/V1_MQTT_OK/GD32VW55X_Wifi_BLE_SDK/GD32VW55x_RELEASE_V1.0.2/MSDK/wpa_supplicant/src/tls\tlsv1_client_write.c **** 	}
 1612              		.loc 1 450 3 is_stmt 1
 1613              	.L98:
 1614              	.LBE183:
 1615              	.LBE187:
 1616              	.LBE193:
 1617              	.LBE210:
 1618              	.LBE147:
 1619              	.LBE146:
 1620              	.LBB215:
 1621              	.LBB216:
 919:C:/Users/stapi/OneDrive/Desktop/GD32VW553/V1_MQTT_OK/GD32VW55X_Wifi_BLE_SDK/GD32VW55x_RELEASE_V1.0.2/MSDK/wpa_supplicant/src/tls\tlsv1_client_write.c **** 		return NULL;
 1622              		.loc 1 919 3
 1623 0280 2685     		mv	a0,s1
 1624 0282 97000000 		call	os_free
 1624      E7800000 
 1625              	.LVL151:
 920:C:/Users/stapi/OneDrive/Desktop/GD32VW553/V1_MQTT_OK/GD32VW55X_Wifi_BLE_SDK/GD32VW55x_RELEASE_V1.0.2/MSDK/wpa_supplicant/src/tls\tlsv1_client_write.c **** 	}
 1626              		.loc 1 920 3
 1627              	.L135:
 1628              	.LBE216:
 1629              	.LBE215:
 941:C:/Users/stapi/OneDrive/Desktop/GD32VW553/V1_MQTT_OK/GD32VW55X_Wifi_BLE_SDK/GD32VW55x_RELEASE_V1.0.2/MSDK/wpa_supplicant/src/tls\tlsv1_client_write.c **** 	case CHANGE_CIPHER_SPEC:
 942:C:/Users/stapi/OneDrive/Desktop/GD32VW553/V1_MQTT_OK/GD32VW55X_Wifi_BLE_SDK/GD32VW55x_RELEASE_V1.0.2/MSDK/wpa_supplicant/src/tls\tlsv1_client_write.c **** 		return tls_send_change_cipher_spec(conn, out_len);
 943:C:/Users/stapi/OneDrive/Desktop/GD32VW553/V1_MQTT_OK/GD32VW55X_Wifi_BLE_SDK/GD32VW55x_RELEASE_V1.0.2/MSDK/wpa_supplicant/src/tls\tlsv1_client_write.c **** 	case ACK_FINISHED:
 944:C:/Users/stapi/OneDrive/Desktop/GD32VW553/V1_MQTT_OK/GD32VW55X_Wifi_BLE_SDK/GD32VW55x_RELEASE_V1.0.2/MSDK/wpa_supplicant/src/tls\tlsv1_client_write.c **** 		wpa_printf(MSG_DEBUG, "TLSv1: Handshake completed "
 945:C:/Users/stapi/OneDrive/Desktop/GD32VW553/V1_MQTT_OK/GD32VW55X_Wifi_BLE_SDK/GD32VW55x_RELEASE_V1.0.2/MSDK/wpa_supplicant/src/tls\tlsv1_client_write.c **** 			   "successfully");
 946:C:/Users/stapi/OneDrive/Desktop/GD32VW553/V1_MQTT_OK/GD32VW55X_Wifi_BLE_SDK/GD32VW55x_RELEASE_V1.0.2/MSDK/wpa_supplicant/src/tls\tlsv1_client_write.c **** 		conn->state = ESTABLISHED;
 947:C:/Users/stapi/OneDrive/Desktop/GD32VW553/V1_MQTT_OK/GD32VW55X_Wifi_BLE_SDK/GD32VW55x_RELEASE_V1.0.2/MSDK/wpa_supplicant/src/tls\tlsv1_client_write.c **** 		*out_len = 0;
 948:C:/Users/stapi/OneDrive/Desktop/GD32VW553/V1_MQTT_OK/GD32VW55X_Wifi_BLE_SDK/GD32VW55x_RELEASE_V1.0.2/MSDK/wpa_supplicant/src/tls\tlsv1_client_write.c **** 		if (no_appl_data) {
 949:C:/Users/stapi/OneDrive/Desktop/GD32VW553/V1_MQTT_OK/GD32VW55X_Wifi_BLE_SDK/GD32VW55x_RELEASE_V1.0.2/MSDK/wpa_supplicant/src/tls\tlsv1_client_write.c **** 			/* Need to return something to get final TLS ACK. */
 950:C:/Users/stapi/OneDrive/Desktop/GD32VW553/V1_MQTT_OK/GD32VW55X_Wifi_BLE_SDK/GD32VW55x_RELEASE_V1.0.2/MSDK/wpa_supplicant/src/tls\tlsv1_client_write.c **** 			return os_malloc(1);
 951:C:/Users/stapi/OneDrive/Desktop/GD32VW553/V1_MQTT_OK/GD32VW55X_Wifi_BLE_SDK/GD32VW55x_RELEASE_V1.0.2/MSDK/wpa_supplicant/src/tls\tlsv1_client_write.c **** 		}
 952:C:/Users/stapi/OneDrive/Desktop/GD32VW553/V1_MQTT_OK/GD32VW55X_Wifi_BLE_SDK/GD32VW55x_RELEASE_V1.0.2/MSDK/wpa_supplicant/src/tls\tlsv1_client_write.c **** 		return NULL;
 953:C:/Users/stapi/OneDrive/Desktop/GD32VW553/V1_MQTT_OK/GD32VW55X_Wifi_BLE_SDK/GD32VW55x_RELEASE_V1.0.2/MSDK/wpa_supplicant/src/tls\tlsv1_client_write.c **** 	default:
 954:C:/Users/stapi/OneDrive/Desktop/GD32VW553/V1_MQTT_OK/GD32VW55X_Wifi_BLE_SDK/GD32VW55x_RELEASE_V1.0.2/MSDK/wpa_supplicant/src/tls\tlsv1_client_write.c **** 		wpa_printf(MSG_DEBUG, "TLSv1: Unexpected state %d while "
 955:C:/Users/stapi/OneDrive/Desktop/GD32VW553/V1_MQTT_OK/GD32VW55X_Wifi_BLE_SDK/GD32VW55x_RELEASE_V1.0.2/MSDK/wpa_supplicant/src/tls\tlsv1_client_write.c **** 			   "generating reply", conn->state);
 956:C:/Users/stapi/OneDrive/Desktop/GD32VW553/V1_MQTT_OK/GD32VW55X_Wifi_BLE_SDK/GD32VW55x_RELEASE_V1.0.2/MSDK/wpa_supplicant/src/tls\tlsv1_client_write.c **** 		return NULL;
 1630              		.loc 1 956 3
 1631              		.loc 1 956 10 is_stmt 0
 1632 028a 8144     		li	s1,0
 1633 028c A9A9     		j	.L41
 1634              	.LVL152:
 1635              	.L64:
 1636              	.LBB219:
 1637              	.LBB214:
 1638              	.LBB211:
 1639              	.LBB194:
 1640              	.LBB188:
 1641              	.LBB184:
 360:C:/Users/stapi/OneDrive/Desktop/GD32VW553/V1_MQTT_OK/GD32VW55X_Wifi_BLE_SDK/GD32VW55x_RELEASE_V1.0.2/MSDK/wpa_supplicant/src/tls\tlsv1_client_write.c **** 		csecret[0] = 0; /* make sure Yc < p */
 1642              		.loc 1 360 2 is_stmt 1
 360:C:/Users/stapi/OneDrive/Desktop/GD32VW553/V1_MQTT_OK/GD32VW55X_Wifi_BLE_SDK/GD32VW55x_RELEASE_V1.0.2/MSDK/wpa_supplicant/src/tls\tlsv1_client_write.c **** 		csecret[0] = 0; /* make sure Yc < p */
 1643              		.loc 1 360 6 is_stmt 0
 1644 028e 8325041F 		lw	a1,496(s0)
 1645 0292 6286     		mv	a2,s8
 1646 0294 4E85     		mv	a0,s3
 1647 0296 97000000 		call	os_memcmp
 1647      E7800000 
 1648              	.LVL153:
 360:C:/Users/stapi/OneDrive/Desktop/GD32VW553/V1_MQTT_OK/GD32VW55X_Wifi_BLE_SDK/GD32VW55x_RELEASE_V1.0.2/MSDK/wpa_supplicant/src/tls\tlsv1_client_write.c **** 		csecret[0] = 0; /* make sure Yc < p */
 1649              		.loc 1 360 5
 1650 029e 6354A000 		ble	a0,zero,.L65
 361:C:/Users/stapi/OneDrive/Desktop/GD32VW553/V1_MQTT_OK/GD32VW55X_Wifi_BLE_SDK/GD32VW55x_RELEASE_V1.0.2/MSDK/wpa_supplicant/src/tls\tlsv1_client_write.c **** 
 1651              		.loc 1 361 3 is_stmt 1
 361:C:/Users/stapi/OneDrive/Desktop/GD32VW553/V1_MQTT_OK/GD32VW55X_Wifi_BLE_SDK/GD32VW55x_RELEASE_V1.0.2/MSDK/wpa_supplicant/src/tls\tlsv1_client_write.c **** 
 1652              		.loc 1 361 14 is_stmt 0
 1653 02a2 23800900 		sb	zero,0(s3)
 1654              	.L65:
 363:C:/Users/stapi/OneDrive/Desktop/GD32VW553/V1_MQTT_OK/GD32VW55X_Wifi_BLE_SDK/GD32VW55x_RELEASE_V1.0.2/MSDK/wpa_supplicant/src/tls\tlsv1_client_write.c **** 	while (csecret_len > 1 && *csecret_start == 0) {
 1655              		.loc 1 363 2 is_stmt 1
 1656              	.LVL154:
 364:C:/Users/stapi/OneDrive/Desktop/GD32VW553/V1_MQTT_OK/GD32VW55X_Wifi_BLE_SDK/GD32VW55x_RELEASE_V1.0.2/MSDK/wpa_supplicant/src/tls\tlsv1_client_write.c **** 		csecret_start++;
 1657              		.loc 1 364 2
 364:C:/Users/stapi/OneDrive/Desktop/GD32VW553/V1_MQTT_OK/GD32VW55X_Wifi_BLE_SDK/GD32VW55x_RELEASE_V1.0.2/MSDK/wpa_supplicant/src/tls\tlsv1_client_write.c **** 		csecret_start++;
 1658              		.loc 1 364 8 is_stmt 0
 1659 02a6 CE8D     		mv	s11,s3
 1660 02a8 0547     		li	a4,1
 1661              	.LVL155:
 1662              	.L66:
 364:C:/Users/stapi/OneDrive/Desktop/GD32VW553/V1_MQTT_OK/GD32VW55X_Wifi_BLE_SDK/GD32VW55x_RELEASE_V1.0.2/MSDK/wpa_supplicant/src/tls\tlsv1_client_write.c **** 		csecret_start++;
 1663              		.loc 1 364 8 is_stmt 1
 1664 02aa 63758701 		bleu	s8,a4,.L67
 364:C:/Users/stapi/OneDrive/Desktop/GD32VW553/V1_MQTT_OK/GD32VW55X_Wifi_BLE_SDK/GD32VW55x_RELEASE_V1.0.2/MSDK/wpa_supplicant/src/tls\tlsv1_client_write.c **** 		csecret_start++;
 1665              		.loc 1 364 25 is_stmt 0
 1666 02ae 83C70D00 		lbu	a5,0(s11)
 1667 02b2 95CB     		beq	a5,zero,.L68
 1668              	.L67:
 368:C:/Users/stapi/OneDrive/Desktop/GD32VW553/V1_MQTT_OK/GD32VW55X_Wifi_BLE_SDK/GD32VW55x_RELEASE_V1.0.2/MSDK/wpa_supplicant/src/tls\tlsv1_client_write.c **** 			csecret_start, csecret_len);
 1669              		.loc 1 368 2 is_stmt 1
 1670 02b4 B7050000 		lui	a1,%hi(.LC21)
 1671 02b8 E286     		mv	a3,s8
 1672 02ba 6E86     		mv	a2,s11
 1673 02bc 93850500 		addi	a1,a1,%lo(.LC21)
 1674 02c0 0945     		li	a0,2
 1675 02c2 97000000 		call	wpa_hexdump_key
 1675      E7800000 
 1676              	.LVL156:
 372:C:/Users/stapi/OneDrive/Desktop/GD32VW553/V1_MQTT_OK/GD32VW55X_Wifi_BLE_SDK/GD32VW55x_RELEASE_V1.0.2/MSDK/wpa_supplicant/src/tls\tlsv1_client_write.c **** 	dh_yc = os_malloc(dh_yc_len);
 1677              		.loc 1 372 2
 372:C:/Users/stapi/OneDrive/Desktop/GD32VW553/V1_MQTT_OK/GD32VW55X_Wifi_BLE_SDK/GD32VW55x_RELEASE_V1.0.2/MSDK/wpa_supplicant/src/tls\tlsv1_client_write.c **** 	dh_yc = os_malloc(dh_yc_len);
 1678              		.loc 1 372 18 is_stmt 0
 1679 02ca 0325441F 		lw	a0,500(s0)
 372:C:/Users/stapi/OneDrive/Desktop/GD32VW553/V1_MQTT_OK/GD32VW55X_Wifi_BLE_SDK/GD32VW55x_RELEASE_V1.0.2/MSDK/wpa_supplicant/src/tls\tlsv1_client_write.c **** 	dh_yc = os_malloc(dh_yc_len);
 1680              		.loc 1 372 12
 1681 02ce 2AD4     		sw	a0,40(sp)
 373:C:/Users/stapi/OneDrive/Desktop/GD32VW553/V1_MQTT_OK/GD32VW55X_Wifi_BLE_SDK/GD32VW55x_RELEASE_V1.0.2/MSDK/wpa_supplicant/src/tls\tlsv1_client_write.c **** 	if (dh_yc == NULL) {
 1682              		.loc 1 373 2 is_stmt 1
 373:C:/Users/stapi/OneDrive/Desktop/GD32VW553/V1_MQTT_OK/GD32VW55X_Wifi_BLE_SDK/GD32VW55x_RELEASE_V1.0.2/MSDK/wpa_supplicant/src/tls\tlsv1_client_write.c **** 	if (dh_yc == NULL) {
 1683              		.loc 1 373 10 is_stmt 0
 1684 02d0 97000000 		call	os_malloc
 1684      E7800000 
 1685              	.LVL157:
 1686 02d8 AA8B     		mv	s7,a0
 1687              	.LVL158:
 374:C:/Users/stapi/OneDrive/Desktop/GD32VW553/V1_MQTT_OK/GD32VW55X_Wifi_BLE_SDK/GD32VW55x_RELEASE_V1.0.2/MSDK/wpa_supplicant/src/tls\tlsv1_client_write.c **** 		wpa_printf(MSG_DEBUG, "TLSv1: Failed to allocate "
 1688              		.loc 1 374 2 is_stmt 1
 374:C:/Users/stapi/OneDrive/Desktop/GD32VW553/V1_MQTT_OK/GD32VW55X_Wifi_BLE_SDK/GD32VW55x_RELEASE_V1.0.2/MSDK/wpa_supplicant/src/tls\tlsv1_client_write.c **** 		wpa_printf(MSG_DEBUG, "TLSv1: Failed to allocate "
 1689              		.loc 1 374 5 is_stmt 0
 1690 02da 09E9     		bne	a0,zero,.L69
 375:C:/Users/stapi/OneDrive/Desktop/GD32VW553/V1_MQTT_OK/GD32VW55X_Wifi_BLE_SDK/GD32VW55x_RELEASE_V1.0.2/MSDK/wpa_supplicant/src/tls\tlsv1_client_write.c **** 			   "memory for Diffie-Hellman");
 1691              		.loc 1 375 3 is_stmt 1
 1692 02dc B7050000 		lui	a1,%hi(.LC22)
 1693 02e0 93850500 		addi	a1,a1,%lo(.LC22)
 1694 02e4 A5BF     		j	.L138
 1695              	.LVL159:
 1696              	.L68:
 365:C:/Users/stapi/OneDrive/Desktop/GD32VW553/V1_MQTT_OK/GD32VW55X_Wifi_BLE_SDK/GD32VW55x_RELEASE_V1.0.2/MSDK/wpa_supplicant/src/tls\tlsv1_client_write.c **** 		csecret_len--;
 1697              		.loc 1 365 3
 365:C:/Users/stapi/OneDrive/Desktop/GD32VW553/V1_MQTT_OK/GD32VW55X_Wifi_BLE_SDK/GD32VW55x_RELEASE_V1.0.2/MSDK/wpa_supplicant/src/tls\tlsv1_client_write.c **** 		csecret_len--;
 1698              		.loc 1 365 16 is_stmt 0
 1699 02e6 850D     		addi	s11,s11,1
 1700              	.LVL160:
 366:C:/Users/stapi/OneDrive/Desktop/GD32VW553/V1_MQTT_OK/GD32VW55X_Wifi_BLE_SDK/GD32VW55x_RELEASE_V1.0.2/MSDK/wpa_supplicant/src/tls\tlsv1_client_write.c **** 	}
 1701              		.loc 1 366 3 is_stmt 1
 366:C:/Users/stapi/OneDrive/Desktop/GD32VW553/V1_MQTT_OK/GD32VW55X_Wifi_BLE_SDK/GD32VW55x_RELEASE_V1.0.2/MSDK/wpa_supplicant/src/tls\tlsv1_client_write.c **** 	}
 1702              		.loc 1 366 14 is_stmt 0
 1703 02e8 7D1C     		addi	s8,s8,-1
 1704              	.LVL161:
 1705 02ea C1B7     		j	.L66
 1706              	.LVL162:
 1707              	.L69:
 382:C:/Users/stapi/OneDrive/Desktop/GD32VW553/V1_MQTT_OK/GD32VW55X_Wifi_BLE_SDK/GD32VW55x_RELEASE_V1.0.2/MSDK/wpa_supplicant/src/tls\tlsv1_client_write.c **** 			   csecret_start, csecret_len,
 1708              		.loc 1 382 2 is_stmt 1
 382:C:/Users/stapi/OneDrive/Desktop/GD32VW553/V1_MQTT_OK/GD32VW55X_Wifi_BLE_SDK/GD32VW55x_RELEASE_V1.0.2/MSDK/wpa_supplicant/src/tls\tlsv1_client_write.c **** 			   csecret_start, csecret_len,
 1709              		.loc 1 382 6 is_stmt 0
 1710 02ec 2A88     		mv	a6,a0
 1711 02ee 8327441F 		lw	a5,500(s0)
 1712 02f2 0327041F 		lw	a4,496(s0)
 1713 02f6 8325C41F 		lw	a1,508(s0)
 1714 02fa 0325841F 		lw	a0,504(s0)
 1715              	.LVL163:
 1716 02fe 93088102 		addi	a7,sp,40
 1717 0302 E286     		mv	a3,s8
 1718 0304 6E86     		mv	a2,s11
 1719 0306 930C0418 		addi	s9,s0,384
 1720 030a 97000000 		call	crypto_mod_exp
 1720      E7800000 
 1721              	.LVL164:
 382:C:/Users/stapi/OneDrive/Desktop/GD32VW553/V1_MQTT_OK/GD32VW55X_Wifi_BLE_SDK/GD32VW55x_RELEASE_V1.0.2/MSDK/wpa_supplicant/src/tls\tlsv1_client_write.c **** 			   csecret_start, csecret_len,
 1722              		.loc 1 382 5
 1723 0312 05C1     		beq	a0,zero,.L70
 1724              	.LVL165:
 1725              	.L137:
 434:C:/Users/stapi/OneDrive/Desktop/GD32VW553/V1_MQTT_OK/GD32VW55X_Wifi_BLE_SDK/GD32VW55x_RELEASE_V1.0.2/MSDK/wpa_supplicant/src/tls\tlsv1_client_write.c **** 			  TLS_ALERT_INTERNAL_ERROR);
 1726              		.loc 1 434 3 is_stmt 1
 1727 0314 2285     		mv	a0,s0
 1728 0316 13060005 		li	a2,80
 1729 031a 8945     		li	a1,2
 1730 031c 97000000 		call	tls_alert
 1730      E7800000 
 1731              	.LVL166:
 436:C:/Users/stapi/OneDrive/Desktop/GD32VW553/V1_MQTT_OK/GD32VW55X_Wifi_BLE_SDK/GD32VW55x_RELEASE_V1.0.2/MSDK/wpa_supplicant/src/tls\tlsv1_client_write.c **** 		os_free(shared);
 1732              		.loc 1 436 3
 1733 0324 4E85     		mv	a0,s3
 1734 0326 97000000 		call	os_free
 1734      E7800000 
 1735              	.LVL167:
 437:C:/Users/stapi/OneDrive/Desktop/GD32VW553/V1_MQTT_OK/GD32VW55X_Wifi_BLE_SDK/GD32VW55x_RELEASE_V1.0.2/MSDK/wpa_supplicant/src/tls\tlsv1_client_write.c **** 		return -1;
 1736              		.loc 1 437 3
 1737              	.L132:
 449:C:/Users/stapi/OneDrive/Desktop/GD32VW553/V1_MQTT_OK/GD32VW55X_Wifi_BLE_SDK/GD32VW55x_RELEASE_V1.0.2/MSDK/wpa_supplicant/src/tls\tlsv1_client_write.c **** 		return -1;
 1738              		.loc 1 449 3
 1739 032e 5E85     		mv	a0,s7
 1740 0330 A1B7     		j	.L133
 1741              	.LVL168:
 1742              	.L70:
 393:C:/Users/stapi/OneDrive/Desktop/GD32VW553/V1_MQTT_OK/GD32VW55X_Wifi_BLE_SDK/GD32VW55x_RELEASE_V1.0.2/MSDK/wpa_supplicant/src/tls\tlsv1_client_write.c **** 		    dh_yc, dh_yc_len);
 1743              		.loc 1 393 2
 1744 0332 A256     		lw	a3,40(sp)
 1745 0334 B7050000 		lui	a1,%hi(.LC23)
 1746 0338 5E86     		mv	a2,s7
 1747 033a 93850500 		addi	a1,a1,%lo(.LC23)
 1748 033e 0945     		li	a0,2
 1749 0340 97000000 		call	wpa_hexdump
 1749      E7800000 
 1750              	.LVL169:
 396:C:/Users/stapi/OneDrive/Desktop/GD32VW553/V1_MQTT_OK/GD32VW55X_Wifi_BLE_SDK/GD32VW55x_RELEASE_V1.0.2/MSDK/wpa_supplicant/src/tls\tlsv1_client_write.c **** 		tls_alert(conn, TLS_ALERT_LEVEL_FATAL,
 1751              		.loc 1 396 2
 1752              	.LBE184:
 1753              	.LBE188:
 535:C:/Users/stapi/OneDrive/Desktop/GD32VW553/V1_MQTT_OK/GD32VW55X_Wifi_BLE_SDK/GD32VW55x_RELEASE_V1.0.2/MSDK/wpa_supplicant/src/tls\tlsv1_client_write.c **** 	/* body - ClientKeyExchange */
 1754              		.loc 1 535 6 is_stmt 0
 1755 0348 93079900 		addi	a5,s2,9
 1756              	.LBB189:
 1757              	.LBB185:
 396:C:/Users/stapi/OneDrive/Desktop/GD32VW553/V1_MQTT_OK/GD32VW55X_Wifi_BLE_SDK/GD32VW55x_RELEASE_V1.0.2/MSDK/wpa_supplicant/src/tls\tlsv1_client_write.c **** 		tls_alert(conn, TLS_ALERT_LEVEL_FATAL,
 1758              		.loc 1 396 10
 1759 034c B387FA40 		sub	a5,s5,a5
 396:C:/Users/stapi/OneDrive/Desktop/GD32VW553/V1_MQTT_OK/GD32VW55X_Wifi_BLE_SDK/GD32VW55x_RELEASE_V1.0.2/MSDK/wpa_supplicant/src/tls\tlsv1_client_write.c **** 		tls_alert(conn, TLS_ALERT_LEVEL_FATAL,
 1760              		.loc 1 396 5
 1761 0350 0547     		li	a4,1
 1762 0352 E351F7FC 		ble	a5,a4,.L137
 403:C:/Users/stapi/OneDrive/Desktop/GD32VW553/V1_MQTT_OK/GD32VW55X_Wifi_BLE_SDK/GD32VW55x_RELEASE_V1.0.2/MSDK/wpa_supplicant/src/tls\tlsv1_client_write.c **** 	*pos += 2;
 1763              		.loc 1 403 2 is_stmt 1
 1764 0356 2256     		lw	a2,40(sp)
 1765              	.LVL170:
 1766              	.LBB179:
 1767              	.LBB180:
 247:..\..\..\..\wpa_supplicant\src\utils/common.h **** 	a[1] = val & 0xff;
 1768              		.loc 2 247 2
 1769              	.LBE180:
 1770              	.LBE179:
 404:C:/Users/stapi/OneDrive/Desktop/GD32VW553/V1_MQTT_OK/GD32VW55X_Wifi_BLE_SDK/GD32VW55x_RELEASE_V1.0.2/MSDK/wpa_supplicant/src/tls\tlsv1_client_write.c **** 	if (dh_yc_len > (size_t) (end - *pos)) {
 1771              		.loc 1 404 7 is_stmt 0
 1772 0358 130AB900 		addi	s4,s2,11
 1773              	.LVL171:
 1774              	.LBB182:
 1775              	.LBB181:
 247:..\..\..\..\wpa_supplicant\src\utils/common.h **** 	a[1] = val & 0xff;
 1776              		.loc 2 247 7
 1777 035c B3470608 		zext.h	a5,a2
 1778 0360 A183     		srli	a5,a5,8
 1779 0362 A304F900 		sb	a5,9(s2)
 248:..\..\..\..\wpa_supplicant\src\utils/common.h **** }
 1780              		.loc 2 248 2 is_stmt 1
 248:..\..\..\..\wpa_supplicant\src\utils/common.h **** }
 1781              		.loc 2 248 7 is_stmt 0
 1782 0366 2305C900 		sb	a2,10(s2)
 1783              	.LVL172:
 1784              	.LBE181:
 1785              	.LBE182:
 404:C:/Users/stapi/OneDrive/Desktop/GD32VW553/V1_MQTT_OK/GD32VW55X_Wifi_BLE_SDK/GD32VW55x_RELEASE_V1.0.2/MSDK/wpa_supplicant/src/tls\tlsv1_client_write.c **** 	if (dh_yc_len > (size_t) (end - *pos)) {
 1786              		.loc 1 404 2 is_stmt 1
 405:C:/Users/stapi/OneDrive/Desktop/GD32VW553/V1_MQTT_OK/GD32VW55X_Wifi_BLE_SDK/GD32VW55x_RELEASE_V1.0.2/MSDK/wpa_supplicant/src/tls\tlsv1_client_write.c **** 		wpa_printf(MSG_DEBUG, "TLSv1: Not enough room in the "
 1787              		.loc 1 405 2
 405:C:/Users/stapi/OneDrive/Desktop/GD32VW553/V1_MQTT_OK/GD32VW55X_Wifi_BLE_SDK/GD32VW55x_RELEASE_V1.0.2/MSDK/wpa_supplicant/src/tls\tlsv1_client_write.c **** 		wpa_printf(MSG_DEBUG, "TLSv1: Not enough room in the "
 1788              		.loc 1 405 32 is_stmt 0
 1789 036a B3874A41 		sub	a5,s5,s4
 405:C:/Users/stapi/OneDrive/Desktop/GD32VW553/V1_MQTT_OK/GD32VW55X_Wifi_BLE_SDK/GD32VW55x_RELEASE_V1.0.2/MSDK/wpa_supplicant/src/tls\tlsv1_client_write.c **** 		wpa_printf(MSG_DEBUG, "TLSv1: Not enough room in the "
 1790              		.loc 1 405 5
 1791 036e 63FCC700 		bleu	a2,a5,.L72
 406:C:/Users/stapi/OneDrive/Desktop/GD32VW553/V1_MQTT_OK/GD32VW55X_Wifi_BLE_SDK/GD32VW55x_RELEASE_V1.0.2/MSDK/wpa_supplicant/src/tls\tlsv1_client_write.c **** 			   "message buffer for Yc");
 1792              		.loc 1 406 3 is_stmt 1
 1793 0372 B7050000 		lui	a1,%hi(.LC24)
 1794 0376 93850500 		addi	a1,a1,%lo(.LC24)
 1795 037a 0945     		li	a0,2
 1796 037c 97000000 		call	wpa_printf
 1796      E7800000 
 1797              	.LVL173:
 408:C:/Users/stapi/OneDrive/Desktop/GD32VW553/V1_MQTT_OK/GD32VW55X_Wifi_BLE_SDK/GD32VW55x_RELEASE_V1.0.2/MSDK/wpa_supplicant/src/tls\tlsv1_client_write.c **** 			  TLS_ALERT_INTERNAL_ERROR);
 1798              		.loc 1 408 3
 1799 0384 41BF     		j	.L137
 1800              	.L72:
 414:C:/Users/stapi/OneDrive/Desktop/GD32VW553/V1_MQTT_OK/GD32VW55X_Wifi_BLE_SDK/GD32VW55x_RELEASE_V1.0.2/MSDK/wpa_supplicant/src/tls\tlsv1_client_write.c **** 	*pos += dh_yc_len;
 1801              		.loc 1 414 2
 1802 0386 DE85     		mv	a1,s7
 1803 0388 5285     		mv	a0,s4
 1804 038a 97000000 		call	os_memcpy
 1804      E7800000 
 1805              	.LVL174:
 415:C:/Users/stapi/OneDrive/Desktop/GD32VW553/V1_MQTT_OK/GD32VW55X_Wifi_BLE_SDK/GD32VW55x_RELEASE_V1.0.2/MSDK/wpa_supplicant/src/tls\tlsv1_client_write.c **** 	os_free(dh_yc);
 1806              		.loc 1 415 2
 415:C:/Users/stapi/OneDrive/Desktop/GD32VW553/V1_MQTT_OK/GD32VW55X_Wifi_BLE_SDK/GD32VW55x_RELEASE_V1.0.2/MSDK/wpa_supplicant/src/tls\tlsv1_client_write.c **** 	os_free(dh_yc);
 1807              		.loc 1 415 7 is_stmt 0
 1808 0392 A257     		lw	a5,40(sp)
 416:C:/Users/stapi/OneDrive/Desktop/GD32VW553/V1_MQTT_OK/GD32VW55X_Wifi_BLE_SDK/GD32VW55x_RELEASE_V1.0.2/MSDK/wpa_supplicant/src/tls\tlsv1_client_write.c **** 
 1809              		.loc 1 416 2
 1810 0394 5E85     		mv	a0,s7
 415:C:/Users/stapi/OneDrive/Desktop/GD32VW553/V1_MQTT_OK/GD32VW55X_Wifi_BLE_SDK/GD32VW55x_RELEASE_V1.0.2/MSDK/wpa_supplicant/src/tls\tlsv1_client_write.c **** 	os_free(dh_yc);
 1811              		.loc 1 415 7
 1812 0396 3E9A     		add	s4,s4,a5
 1813              	.LVL175:
 416:C:/Users/stapi/OneDrive/Desktop/GD32VW553/V1_MQTT_OK/GD32VW55X_Wifi_BLE_SDK/GD32VW55x_RELEASE_V1.0.2/MSDK/wpa_supplicant/src/tls\tlsv1_client_write.c **** 
 1814              		.loc 1 416 2 is_stmt 1
 1815 0398 97000000 		call	os_free
 1815      E7800000 
 1816              	.LVL176:
 418:C:/Users/stapi/OneDrive/Desktop/GD32VW553/V1_MQTT_OK/GD32VW55X_Wifi_BLE_SDK/GD32VW55x_RELEASE_V1.0.2/MSDK/wpa_supplicant/src/tls\tlsv1_client_write.c **** 	shared = os_malloc(shared_len);
 1817              		.loc 1 418 2
 418:C:/Users/stapi/OneDrive/Desktop/GD32VW553/V1_MQTT_OK/GD32VW55X_Wifi_BLE_SDK/GD32VW55x_RELEASE_V1.0.2/MSDK/wpa_supplicant/src/tls\tlsv1_client_write.c **** 	shared = os_malloc(shared_len);
 1818              		.loc 1 418 19 is_stmt 0
 1819 03a0 0325441F 		lw	a0,500(s0)
 418:C:/Users/stapi/OneDrive/Desktop/GD32VW553/V1_MQTT_OK/GD32VW55X_Wifi_BLE_SDK/GD32VW55x_RELEASE_V1.0.2/MSDK/wpa_supplicant/src/tls\tlsv1_client_write.c **** 	shared = os_malloc(shared_len);
 1820              		.loc 1 418 13
 1821 03a4 2AD6     		sw	a0,44(sp)
 419:C:/Users/stapi/OneDrive/Desktop/GD32VW553/V1_MQTT_OK/GD32VW55X_Wifi_BLE_SDK/GD32VW55x_RELEASE_V1.0.2/MSDK/wpa_supplicant/src/tls\tlsv1_client_write.c **** 	if (shared == NULL) {
 1822              		.loc 1 419 2 is_stmt 1
 419:C:/Users/stapi/OneDrive/Desktop/GD32VW553/V1_MQTT_OK/GD32VW55X_Wifi_BLE_SDK/GD32VW55x_RELEASE_V1.0.2/MSDK/wpa_supplicant/src/tls\tlsv1_client_write.c **** 	if (shared == NULL) {
 1823              		.loc 1 419 11 is_stmt 0
 1824 03a6 97000000 		call	os_malloc
 1824      E7800000 
 1825              	.LVL177:
 1826 03ae AA8B     		mv	s7,a0
 1827              	.LVL178:
 420:C:/Users/stapi/OneDrive/Desktop/GD32VW553/V1_MQTT_OK/GD32VW55X_Wifi_BLE_SDK/GD32VW55x_RELEASE_V1.0.2/MSDK/wpa_supplicant/src/tls\tlsv1_client_write.c **** 		wpa_printf(MSG_DEBUG, "TLSv1: Could not allocate memory for "
 1828              		.loc 1 420 2 is_stmt 1
 420:C:/Users/stapi/OneDrive/Desktop/GD32VW553/V1_MQTT_OK/GD32VW55X_Wifi_BLE_SDK/GD32VW55x_RELEASE_V1.0.2/MSDK/wpa_supplicant/src/tls\tlsv1_client_write.c **** 		wpa_printf(MSG_DEBUG, "TLSv1: Could not allocate memory for "
 1829              		.loc 1 420 5 is_stmt 0
 1830 03b0 11E5     		bne	a0,zero,.L73
 421:C:/Users/stapi/OneDrive/Desktop/GD32VW553/V1_MQTT_OK/GD32VW55X_Wifi_BLE_SDK/GD32VW55x_RELEASE_V1.0.2/MSDK/wpa_supplicant/src/tls\tlsv1_client_write.c **** 			   "DH");
 1831              		.loc 1 421 3 is_stmt 1
 1832 03b2 B7050000 		lui	a1,%hi(.LC25)
 1833 03b6 93850500 		addi	a1,a1,%lo(.LC25)
 1834 03ba 4DB5     		j	.L138
 1835              	.L73:
 430:C:/Users/stapi/OneDrive/Desktop/GD32VW553/V1_MQTT_OK/GD32VW55X_Wifi_BLE_SDK/GD32VW55x_RELEASE_V1.0.2/MSDK/wpa_supplicant/src/tls\tlsv1_client_write.c **** 			   csecret_start, csecret_len,
 1836              		.loc 1 430 2
 430:C:/Users/stapi/OneDrive/Desktop/GD32VW553/V1_MQTT_OK/GD32VW55X_Wifi_BLE_SDK/GD32VW55x_RELEASE_V1.0.2/MSDK/wpa_supplicant/src/tls\tlsv1_client_write.c **** 			   csecret_start, csecret_len,
 1837              		.loc 1 430 6 is_stmt 0
 1838 03bc 13050420 		addi	a0,s0,512
 1839              	.LVL179:
 1840 03c0 4C41     		lw	a1,4(a0)
 1841 03c2 83A74C07 		lw	a5,116(s9)
 1842 03c6 03A70C07 		lw	a4,112(s9)
 1843 03ca 0841     		lw	a0,0(a0)
 1844 03cc 9308C102 		addi	a7,sp,44
 1845 03d0 5E88     		mv	a6,s7
 1846 03d2 E286     		mv	a3,s8
 1847 03d4 6E86     		mv	a2,s11
 1848 03d6 97000000 		call	crypto_mod_exp
 1848      E7800000 
 1849              	.LVL180:
 430:C:/Users/stapi/OneDrive/Desktop/GD32VW553/V1_MQTT_OK/GD32VW55X_Wifi_BLE_SDK/GD32VW55x_RELEASE_V1.0.2/MSDK/wpa_supplicant/src/tls\tlsv1_client_write.c **** 			   csecret_start, csecret_len,
 1850              		.loc 1 430 5
 1851 03de 1DF9     		bne	a0,zero,.L137
 440:C:/Users/stapi/OneDrive/Desktop/GD32VW553/V1_MQTT_OK/GD32VW55X_Wifi_BLE_SDK/GD32VW55x_RELEASE_V1.0.2/MSDK/wpa_supplicant/src/tls\tlsv1_client_write.c **** 			shared, shared_len);
 1852              		.loc 1 440 2 is_stmt 1
 1853 03e0 B256     		lw	a3,44(sp)
 1854 03e2 B7050000 		lui	a1,%hi(.LC26)
 1855 03e6 5E86     		mv	a2,s7
 1856 03e8 93850500 		addi	a1,a1,%lo(.LC26)
 1857 03ec 0945     		li	a0,2
 1858 03ee 97000000 		call	wpa_hexdump_key
 1858      E7800000 
 1859              	.LVL181:
 443:C:/Users/stapi/OneDrive/Desktop/GD32VW553/V1_MQTT_OK/GD32VW55X_Wifi_BLE_SDK/GD32VW55x_RELEASE_V1.0.2/MSDK/wpa_supplicant/src/tls\tlsv1_client_write.c **** 	os_free(csecret);
 1860              		.loc 1 443 2
 1861 03f6 6286     		mv	a2,s8
 1862 03f8 8145     		li	a1,0
 1863 03fa 6E85     		mv	a0,s11
 1864 03fc 97000000 		call	os_memset
 1864      E7800000 
 1865              	.LVL182:
 444:C:/Users/stapi/OneDrive/Desktop/GD32VW553/V1_MQTT_OK/GD32VW55X_Wifi_BLE_SDK/GD32VW55x_RELEASE_V1.0.2/MSDK/wpa_supplicant/src/tls\tlsv1_client_write.c **** 	if (tls_derive_keys(conn, shared, shared_len)) {
 1866              		.loc 1 444 2
 1867 0404 4E85     		mv	a0,s3
 1868 0406 97000000 		call	os_free
 1868      E7800000 
 1869              	.LVL183:
 445:C:/Users/stapi/OneDrive/Desktop/GD32VW553/V1_MQTT_OK/GD32VW55X_Wifi_BLE_SDK/GD32VW55x_RELEASE_V1.0.2/MSDK/wpa_supplicant/src/tls\tlsv1_client_write.c **** 		wpa_printf(MSG_DEBUG, "TLSv1: Failed to derive keys");
 1870              		.loc 1 445 2
 445:C:/Users/stapi/OneDrive/Desktop/GD32VW553/V1_MQTT_OK/GD32VW55X_Wifi_BLE_SDK/GD32VW55x_RELEASE_V1.0.2/MSDK/wpa_supplicant/src/tls\tlsv1_client_write.c **** 		wpa_printf(MSG_DEBUG, "TLSv1: Failed to derive keys");
 1871              		.loc 1 445 6 is_stmt 0
 1872 040e 3256     		lw	a2,44(sp)
 1873 0410 DE85     		mv	a1,s7
 1874 0412 2285     		mv	a0,s0
 1875 0414 97000000 		call	tls_derive_keys
 1875      E7800000 
 1876              	.LVL184:
 445:C:/Users/stapi/OneDrive/Desktop/GD32VW553/V1_MQTT_OK/GD32VW55X_Wifi_BLE_SDK/GD32VW55x_RELEASE_V1.0.2/MSDK/wpa_supplicant/src/tls\tlsv1_client_write.c **** 		wpa_printf(MSG_DEBUG, "TLSv1: Failed to derive keys");
 1877              		.loc 1 445 5
 1878 041c 1DC1     		beq	a0,zero,.L75
 446:C:/Users/stapi/OneDrive/Desktop/GD32VW553/V1_MQTT_OK/GD32VW55X_Wifi_BLE_SDK/GD32VW55x_RELEASE_V1.0.2/MSDK/wpa_supplicant/src/tls\tlsv1_client_write.c **** 		tls_alert(conn, TLS_ALERT_LEVEL_FATAL,
 1879              		.loc 1 446 3 is_stmt 1
 1880 041e B7050000 		lui	a1,%hi(.LC27)
 1881 0422 93850500 		addi	a1,a1,%lo(.LC27)
 1882 0426 0945     		li	a0,2
 1883 0428 97000000 		call	wpa_printf
 1883      E7800000 
 1884              	.LVL185:
 447:C:/Users/stapi/OneDrive/Desktop/GD32VW553/V1_MQTT_OK/GD32VW55X_Wifi_BLE_SDK/GD32VW55x_RELEASE_V1.0.2/MSDK/wpa_supplicant/src/tls\tlsv1_client_write.c **** 			  TLS_ALERT_INTERNAL_ERROR);
 1885              		.loc 1 447 3
 1886 0430 13060005 		li	a2,80
 1887 0434 8945     		li	a1,2
 1888 0436 2285     		mv	a0,s0
 1889 0438 97000000 		call	tls_alert
 1889      E7800000 
 1890              	.LVL186:
 1891 0440 FDB5     		j	.L132
 1892              	.L75:
 452:C:/Users/stapi/OneDrive/Desktop/GD32VW553/V1_MQTT_OK/GD32VW55X_Wifi_BLE_SDK/GD32VW55x_RELEASE_V1.0.2/MSDK/wpa_supplicant/src/tls\tlsv1_client_write.c **** 	os_free(shared);
 1893              		.loc 1 452 2
 1894 0442 3256     		lw	a2,44(sp)
 1895 0444 8145     		li	a1,0
 1896 0446 5E85     		mv	a0,s7
 1897 0448 97000000 		call	os_memset
 1897      E7800000 
 1898              	.LVL187:
 453:C:/Users/stapi/OneDrive/Desktop/GD32VW553/V1_MQTT_OK/GD32VW55X_Wifi_BLE_SDK/GD32VW55x_RELEASE_V1.0.2/MSDK/wpa_supplicant/src/tls\tlsv1_client_write.c **** 	tlsv1_client_free_dh(conn);
 1899              		.loc 1 453 2
 1900 0450 5E85     		mv	a0,s7
 1901 0452 97000000 		call	os_free
 1901      E7800000 
 1902              	.LVL188:
 454:C:/Users/stapi/OneDrive/Desktop/GD32VW553/V1_MQTT_OK/GD32VW55X_Wifi_BLE_SDK/GD32VW55x_RELEASE_V1.0.2/MSDK/wpa_supplicant/src/tls\tlsv1_client_write.c **** 	return 0;
 1903              		.loc 1 454 2
 1904 045a 2285     		mv	a0,s0
 1905 045c 97000000 		call	tlsv1_client_free_dh
 1905      E7800000 
 1906              	.LVL189:
 455:C:/Users/stapi/OneDrive/Desktop/GD32VW553/V1_MQTT_OK/GD32VW55X_Wifi_BLE_SDK/GD32VW55x_RELEASE_V1.0.2/MSDK/wpa_supplicant/src/tls\tlsv1_client_write.c **** }
 1907              		.loc 1 455 2
 1908              	.L76:
 1909              	.LBE185:
 1910              	.LBE189:
 545:C:/Users/stapi/OneDrive/Desktop/GD32VW553/V1_MQTT_OK/GD32VW55X_Wifi_BLE_SDK/GD32VW55x_RELEASE_V1.0.2/MSDK/wpa_supplicant/src/tls\tlsv1_client_write.c **** 
 1911              		.loc 1 545 2
 545:C:/Users/stapi/OneDrive/Desktop/GD32VW553/V1_MQTT_OK/GD32VW55X_Wifi_BLE_SDK/GD32VW55x_RELEASE_V1.0.2/MSDK/wpa_supplicant/src/tls\tlsv1_client_write.c **** 
 1912              		.loc 1 545 30 is_stmt 0
 1913 0464 B247     		lw	a5,12(sp)
 547:C:/Users/stapi/OneDrive/Desktop/GD32VW553/V1_MQTT_OK/GD32VW55X_Wifi_BLE_SDK/GD32VW55x_RELEASE_V1.0.2/MSDK/wpa_supplicant/src/tls\tlsv1_client_write.c **** 			      rhdr, end - rhdr, hs_start, pos - hs_start,
 1914              		.loc 1 547 6
 1915 0466 930B4400 		addi	s7,s0,4
 1916 046a 1308C102 		addi	a6,sp,44
 545:C:/Users/stapi/OneDrive/Desktop/GD32VW553/V1_MQTT_OK/GD32VW55X_Wifi_BLE_SDK/GD32VW55x_RELEASE_V1.0.2/MSDK/wpa_supplicant/src/tls\tlsv1_client_write.c **** 
 1917              		.loc 1 545 30
 1918 046e B30CFA40 		sub	s9,s4,a5
 545:C:/Users/stapi/OneDrive/Desktop/GD32VW553/V1_MQTT_OK/GD32VW55X_Wifi_BLE_SDK/GD32VW55x_RELEASE_V1.0.2/MSDK/wpa_supplicant/src/tls\tlsv1_client_write.c **** 
 1919              		.loc 1 545 42
 1920 0472 F51C     		addi	s9,s9,-3
 1921              	.LVL190:
 1922              	.LBB190:
 1923              	.LBB191:
 269:..\..\..\..\wpa_supplicant\src\utils/common.h **** 	a[1] = (val >> 8) & 0xff;
 1924              		.loc 2 269 2 is_stmt 1
 269:..\..\..\..\wpa_supplicant\src\utils/common.h **** 	a[1] = (val >> 8) & 0xff;
 1925              		.loc 2 269 14 is_stmt 0
 1926 0474 93D70C01 		srli	a5,s9,16
 269:..\..\..\..\wpa_supplicant\src\utils/common.h **** 	a[1] = (val >> 8) & 0xff;
 1927              		.loc 2 269 7
 1928 0478 2303F900 		sb	a5,6(s2)
 270:..\..\..\..\wpa_supplicant\src\utils/common.h **** 	a[2] = val & 0xff;
 1929              		.loc 2 270 2 is_stmt 1
 270:..\..\..\..\wpa_supplicant\src\utils/common.h **** 	a[2] = val & 0xff;
 1930              		.loc 2 270 14 is_stmt 0
 1931 047c 93D78C00 		srli	a5,s9,8
 270:..\..\..\..\wpa_supplicant\src\utils/common.h **** 	a[2] = val & 0xff;
 1932              		.loc 2 270 7
 1933 0480 A303F900 		sb	a5,7(s2)
 271:..\..\..\..\wpa_supplicant\src\utils/common.h **** }
 1934              		.loc 2 271 2 is_stmt 1
 271:..\..\..\..\wpa_supplicant\src\utils/common.h **** }
 1935              		.loc 2 271 7 is_stmt 0
 1936 0484 23049901 		sb	s9,8(s2)
 1937              	.LVL191:
 1938              	.LBE191:
 1939              	.LBE190:
 547:C:/Users/stapi/OneDrive/Desktop/GD32VW553/V1_MQTT_OK/GD32VW55X_Wifi_BLE_SDK/GD32VW55x_RELEASE_V1.0.2/MSDK/wpa_supplicant/src/tls\tlsv1_client_write.c **** 			      rhdr, end - rhdr, hs_start, pos - hs_start,
 1940              		.loc 1 547 2 is_stmt 1
 547:C:/Users/stapi/OneDrive/Desktop/GD32VW553/V1_MQTT_OK/GD32VW55X_Wifi_BLE_SDK/GD32VW55x_RELEASE_V1.0.2/MSDK/wpa_supplicant/src/tls\tlsv1_client_write.c **** 			      rhdr, end - rhdr, hs_start, pos - hs_start,
 1941              		.loc 1 547 6 is_stmt 0
 1942 0488 B307AA41 		sub	a5,s4,s10
 1943 048c 6A87     		mv	a4,s10
 1944 048e B3862A41 		sub	a3,s5,s2
 1945 0492 4A86     		mv	a2,s2
 1946 0494 D945     		li	a1,22
 1947 0496 5E85     		mv	a0,s7
 1948 0498 97000000 		call	tlsv1_record_send
 1948      E7800000 
 1949              	.LVL192:
 547:C:/Users/stapi/OneDrive/Desktop/GD32VW553/V1_MQTT_OK/GD32VW55X_Wifi_BLE_SDK/GD32VW55x_RELEASE_V1.0.2/MSDK/wpa_supplicant/src/tls\tlsv1_client_write.c **** 			      rhdr, end - rhdr, hs_start, pos - hs_start,
 1950              		.loc 1 547 5
 1951 04a0 6358050A 		bge	a0,zero,.L81
 550:C:/Users/stapi/OneDrive/Desktop/GD32VW553/V1_MQTT_OK/GD32VW55X_Wifi_BLE_SDK/GD32VW55x_RELEASE_V1.0.2/MSDK/wpa_supplicant/src/tls\tlsv1_client_write.c **** 		tls_alert(conn, TLS_ALERT_LEVEL_FATAL,
 1952              		.loc 1 550 3 is_stmt 1
 1953 04a4 B7050000 		lui	a1,%hi(.LC1)
 1954 04a8 93850500 		addi	a1,a1,%lo(.LC1)
 1955 04ac 41BB     		j	.L131
 1956              	.LVL193:
 1957              	.L61:
 541:C:/Users/stapi/OneDrive/Desktop/GD32VW553/V1_MQTT_OK/GD32VW55X_Wifi_BLE_SDK/GD32VW55x_RELEASE_V1.0.2/MSDK/wpa_supplicant/src/tls\tlsv1_client_write.c **** 			return -1;
 1958              		.loc 1 541 3
 1959              	.LBB192:
 1960              	.LBB176:
 461:C:/Users/stapi/OneDrive/Desktop/GD32VW553/V1_MQTT_OK/GD32VW55X_Wifi_BLE_SDK/GD32VW55x_RELEASE_V1.0.2/MSDK/wpa_supplicant/src/tls\tlsv1_client_write.c **** 	size_t clen;
 1961              		.loc 1 461 2
 462:C:/Users/stapi/OneDrive/Desktop/GD32VW553/V1_MQTT_OK/GD32VW55X_Wifi_BLE_SDK/GD32VW55x_RELEASE_V1.0.2/MSDK/wpa_supplicant/src/tls\tlsv1_client_write.c **** 	int res;
 1962              		.loc 1 462 2
 463:C:/Users/stapi/OneDrive/Desktop/GD32VW553/V1_MQTT_OK/GD32VW55X_Wifi_BLE_SDK/GD32VW55x_RELEASE_V1.0.2/MSDK/wpa_supplicant/src/tls\tlsv1_client_write.c **** 
 1963              		.loc 1 463 2
 465:C:/Users/stapi/OneDrive/Desktop/GD32VW553/V1_MQTT_OK/GD32VW55X_Wifi_BLE_SDK/GD32VW55x_RELEASE_V1.0.2/MSDK/wpa_supplicant/src/tls\tlsv1_client_write.c **** 	    tls_derive_keys(conn, pre_master_secret,
 1964              		.loc 1 465 2
 465:C:/Users/stapi/OneDrive/Desktop/GD32VW553/V1_MQTT_OK/GD32VW55X_Wifi_BLE_SDK/GD32VW55x_RELEASE_V1.0.2/MSDK/wpa_supplicant/src/tls\tlsv1_client_write.c **** 	    tls_derive_keys(conn, pre_master_secret,
 1965              		.loc 1 465 6 is_stmt 0
 1966 04ae 6C10     		addi	a1,sp,44
 1967 04b0 2285     		mv	a0,s0
 1968 04b2 97000000 		call	tls_derive_pre_master_secret
 1968      E7800000 
 1969              	.LVL194:
 465:C:/Users/stapi/OneDrive/Desktop/GD32VW553/V1_MQTT_OK/GD32VW55X_Wifi_BLE_SDK/GD32VW55x_RELEASE_V1.0.2/MSDK/wpa_supplicant/src/tls\tlsv1_client_write.c **** 	    tls_derive_keys(conn, pre_master_secret,
 1970              		.loc 1 465 5
 1971 04ba 63570500 		bge	a0,zero,.L77
 1972              	.L78:
 468:C:/Users/stapi/OneDrive/Desktop/GD32VW553/V1_MQTT_OK/GD32VW55X_Wifi_BLE_SDK/GD32VW55x_RELEASE_V1.0.2/MSDK/wpa_supplicant/src/tls\tlsv1_client_write.c **** 		tls_alert(conn, TLS_ALERT_LEVEL_FATAL,
 1973              		.loc 1 468 3 is_stmt 1
 1974 04be B7050000 		lui	a1,%hi(.LC27)
 1975 04c2 93850500 		addi	a1,a1,%lo(.LC27)
 1976 04c6 9DBB     		j	.L131
 1977              	.L77:
 466:C:/Users/stapi/OneDrive/Desktop/GD32VW553/V1_MQTT_OK/GD32VW55X_Wifi_BLE_SDK/GD32VW55x_RELEASE_V1.0.2/MSDK/wpa_supplicant/src/tls\tlsv1_client_write.c **** 			    TLS_PRE_MASTER_SECRET_LEN)) {
 1978              		.loc 1 466 6 is_stmt 0
 1979 04c8 13060003 		li	a2,48
 1980 04cc 6C10     		addi	a1,sp,44
 1981 04ce 2285     		mv	a0,s0
 1982 04d0 97000000 		call	tls_derive_keys
 1982      E7800000 
 1983              	.LVL195:
 465:C:/Users/stapi/OneDrive/Desktop/GD32VW553/V1_MQTT_OK/GD32VW55X_Wifi_BLE_SDK/GD32VW55x_RELEASE_V1.0.2/MSDK/wpa_supplicant/src/tls\tlsv1_client_write.c **** 	    tls_derive_keys(conn, pre_master_secret,
 1984              		.loc 1 465 64
 1985 04d8 7DF1     		bne	a0,zero,.L78
 475:C:/Users/stapi/OneDrive/Desktop/GD32VW553/V1_MQTT_OK/GD32VW55X_Wifi_BLE_SDK/GD32VW55x_RELEASE_V1.0.2/MSDK/wpa_supplicant/src/tls\tlsv1_client_write.c **** 		wpa_printf(MSG_DEBUG, "TLSv1: No server RSA key to "
 1986              		.loc 1 475 2 is_stmt 1
 475:C:/Users/stapi/OneDrive/Desktop/GD32VW553/V1_MQTT_OK/GD32VW55X_Wifi_BLE_SDK/GD32VW55x_RELEASE_V1.0.2/MSDK/wpa_supplicant/src/tls\tlsv1_client_write.c **** 		wpa_printf(MSG_DEBUG, "TLSv1: No server RSA key to "
 1987              		.loc 1 475 10 is_stmt 0
 1988 04da 0325C417 		lw	a0,380(s0)
 475:C:/Users/stapi/OneDrive/Desktop/GD32VW553/V1_MQTT_OK/GD32VW55X_Wifi_BLE_SDK/GD32VW55x_RELEASE_V1.0.2/MSDK/wpa_supplicant/src/tls\tlsv1_client_write.c **** 		wpa_printf(MSG_DEBUG, "TLSv1: No server RSA key to "
 1989              		.loc 1 475 5
 1990 04de 11E5     		bne	a0,zero,.L79
 476:C:/Users/stapi/OneDrive/Desktop/GD32VW553/V1_MQTT_OK/GD32VW55X_Wifi_BLE_SDK/GD32VW55x_RELEASE_V1.0.2/MSDK/wpa_supplicant/src/tls\tlsv1_client_write.c **** 			   "use for encrypting pre-master secret");
 1991              		.loc 1 476 3 is_stmt 1
 1992 04e0 B7050000 		lui	a1,%hi(.LC28)
 1993 04e4 93850500 		addi	a1,a1,%lo(.LC28)
 1994 04e8 91BB     		j	.L131
 1995              	.L79:
 484:C:/Users/stapi/OneDrive/Desktop/GD32VW553/V1_MQTT_OK/GD32VW55X_Wifi_BLE_SDK/GD32VW55x_RELEASE_V1.0.2/MSDK/wpa_supplicant/src/tls\tlsv1_client_write.c **** 	clen = end - *pos;
 1996              		.loc 1 484 2
 484:C:/Users/stapi/OneDrive/Desktop/GD32VW553/V1_MQTT_OK/GD32VW55X_Wifi_BLE_SDK/GD32VW55x_RELEASE_V1.0.2/MSDK/wpa_supplicant/src/tls\tlsv1_client_write.c **** 	clen = end - *pos;
 1997              		.loc 1 484 7 is_stmt 0
 1998 04ea 130AB900 		addi	s4,s2,11
 1999              	.LVL196:
 485:C:/Users/stapi/OneDrive/Desktop/GD32VW553/V1_MQTT_OK/GD32VW55X_Wifi_BLE_SDK/GD32VW55x_RELEASE_V1.0.2/MSDK/wpa_supplicant/src/tls\tlsv1_client_write.c **** 	res = crypto_public_key_encrypt_pkcs1_v15(
 2000              		.loc 1 485 2 is_stmt 1
 485:C:/Users/stapi/OneDrive/Desktop/GD32VW553/V1_MQTT_OK/GD32VW55X_Wifi_BLE_SDK/GD32VW55x_RELEASE_V1.0.2/MSDK/wpa_supplicant/src/tls\tlsv1_client_write.c **** 	res = crypto_public_key_encrypt_pkcs1_v15(
 2001              		.loc 1 485 13 is_stmt 0
 2002 04ee B3874A41 		sub	a5,s5,s4
 486:C:/Users/stapi/OneDrive/Desktop/GD32VW553/V1_MQTT_OK/GD32VW55X_Wifi_BLE_SDK/GD32VW55x_RELEASE_V1.0.2/MSDK/wpa_supplicant/src/tls\tlsv1_client_write.c **** 		conn->server_rsa_key,
 2003              		.loc 1 486 8
 2004 04f2 13060003 		li	a2,48
 2005 04f6 6C10     		addi	a1,sp,44
 2006 04f8 3810     		addi	a4,sp,40
 2007 04fa D286     		mv	a3,s4
 485:C:/Users/stapi/OneDrive/Desktop/GD32VW553/V1_MQTT_OK/GD32VW55X_Wifi_BLE_SDK/GD32VW55x_RELEASE_V1.0.2/MSDK/wpa_supplicant/src/tls\tlsv1_client_write.c **** 	res = crypto_public_key_encrypt_pkcs1_v15(
 2008              		.loc 1 485 7
 2009 04fc 3ED4     		sw	a5,40(sp)
 486:C:/Users/stapi/OneDrive/Desktop/GD32VW553/V1_MQTT_OK/GD32VW55X_Wifi_BLE_SDK/GD32VW55x_RELEASE_V1.0.2/MSDK/wpa_supplicant/src/tls\tlsv1_client_write.c **** 		conn->server_rsa_key,
 2010              		.loc 1 486 2 is_stmt 1
 486:C:/Users/stapi/OneDrive/Desktop/GD32VW553/V1_MQTT_OK/GD32VW55X_Wifi_BLE_SDK/GD32VW55x_RELEASE_V1.0.2/MSDK/wpa_supplicant/src/tls\tlsv1_client_write.c **** 		conn->server_rsa_key,
 2011              		.loc 1 486 8 is_stmt 0
 2012 04fe 97000000 		call	crypto_public_key_encrypt_pkcs1_v15
 2012      E7800000 
 2013              	.LVL197:
 2014 0506 AA89     		mv	s3,a0
 2015              	.LVL198:
 490:C:/Users/stapi/OneDrive/Desktop/GD32VW553/V1_MQTT_OK/GD32VW55X_Wifi_BLE_SDK/GD32VW55x_RELEASE_V1.0.2/MSDK/wpa_supplicant/src/tls\tlsv1_client_write.c **** 	if (res < 0) {
 2016              		.loc 1 490 2 is_stmt 1
 2017 0508 13060003 		li	a2,48
 2018 050c 8145     		li	a1,0
 2019 050e 6810     		addi	a0,sp,44
 2020              	.LVL199:
 2021 0510 97000000 		call	os_memset
 2021      E7800000 
 2022              	.LVL200:
 491:C:/Users/stapi/OneDrive/Desktop/GD32VW553/V1_MQTT_OK/GD32VW55X_Wifi_BLE_SDK/GD32VW55x_RELEASE_V1.0.2/MSDK/wpa_supplicant/src/tls\tlsv1_client_write.c **** 		wpa_printf(MSG_DEBUG, "TLSv1: RSA encryption failed");
 2023              		.loc 1 491 2
 491:C:/Users/stapi/OneDrive/Desktop/GD32VW553/V1_MQTT_OK/GD32VW55X_Wifi_BLE_SDK/GD32VW55x_RELEASE_V1.0.2/MSDK/wpa_supplicant/src/tls\tlsv1_client_write.c **** 		wpa_printf(MSG_DEBUG, "TLSv1: RSA encryption failed");
 2024              		.loc 1 491 5 is_stmt 0
 2025 0518 63D70900 		bge	s3,zero,.L80
 492:C:/Users/stapi/OneDrive/Desktop/GD32VW553/V1_MQTT_OK/GD32VW55X_Wifi_BLE_SDK/GD32VW55x_RELEASE_V1.0.2/MSDK/wpa_supplicant/src/tls\tlsv1_client_write.c **** 		tls_alert(conn, TLS_ALERT_LEVEL_FATAL,
 2026              		.loc 1 492 3 is_stmt 1
 2027 051c B7050000 		lui	a1,%hi(.LC29)
 2028 0520 93850500 		addi	a1,a1,%lo(.LC29)
 2029 0524 21BB     		j	.L131
 2030              	.L80:
 497:C:/Users/stapi/OneDrive/Desktop/GD32VW553/V1_MQTT_OK/GD32VW55X_Wifi_BLE_SDK/GD32VW55x_RELEASE_V1.0.2/MSDK/wpa_supplicant/src/tls\tlsv1_client_write.c **** 	wpa_hexdump(MSG_MSGDUMP, "TLSv1: Encrypted pre_master_secret",
 2031              		.loc 1 497 2
 2032 0526 A256     		lw	a3,40(sp)
 2033              	.LVL201:
 2034              	.LBB171:
 2035              	.LBB172:
 247:..\..\..\..\wpa_supplicant\src\utils/common.h **** 	a[1] = val & 0xff;
 2036              		.loc 2 247 2
 2037              	.LBE172:
 2038              	.LBE171:
 498:C:/Users/stapi/OneDrive/Desktop/GD32VW553/V1_MQTT_OK/GD32VW55X_Wifi_BLE_SDK/GD32VW55x_RELEASE_V1.0.2/MSDK/wpa_supplicant/src/tls\tlsv1_client_write.c **** 		    *pos, clen);
 2039              		.loc 1 498 2 is_stmt 0
 2040 0528 B7050000 		lui	a1,%hi(.LC30)
 2041 052c 5286     		mv	a2,s4
 2042              	.LBB174:
 2043              	.LBB173:
 247:..\..\..\..\wpa_supplicant\src\utils/common.h **** 	a[1] = val & 0xff;
 2044              		.loc 2 247 7
 2045 052e B3C70608 		zext.h	a5,a3
 2046 0532 A183     		srli	a5,a5,8
 2047 0534 A304F900 		sb	a5,9(s2)
 248:..\..\..\..\wpa_supplicant\src\utils/common.h **** }
 2048              		.loc 2 248 2 is_stmt 1
 248:..\..\..\..\wpa_supplicant\src\utils/common.h **** }
 2049              		.loc 2 248 7 is_stmt 0
 2050 0538 2305D900 		sb	a3,10(s2)
 2051              	.LVL202:
 2052              	.LBE173:
 2053              	.LBE174:
 498:C:/Users/stapi/OneDrive/Desktop/GD32VW553/V1_MQTT_OK/GD32VW55X_Wifi_BLE_SDK/GD32VW55x_RELEASE_V1.0.2/MSDK/wpa_supplicant/src/tls\tlsv1_client_write.c **** 		    *pos, clen);
 2054              		.loc 1 498 2 is_stmt 1
 2055 053c 93850500 		addi	a1,a1,%lo(.LC30)
 2056 0540 0545     		li	a0,1
 2057 0542 97000000 		call	wpa_hexdump
 2057      E7800000 
 2058              	.LVL203:
 500:C:/Users/stapi/OneDrive/Desktop/GD32VW553/V1_MQTT_OK/GD32VW55X_Wifi_BLE_SDK/GD32VW55x_RELEASE_V1.0.2/MSDK/wpa_supplicant/src/tls\tlsv1_client_write.c **** 
 2059              		.loc 1 500 2
 500:C:/Users/stapi/OneDrive/Desktop/GD32VW553/V1_MQTT_OK/GD32VW55X_Wifi_BLE_SDK/GD32VW55x_RELEASE_V1.0.2/MSDK/wpa_supplicant/src/tls\tlsv1_client_write.c **** 
 2060              		.loc 1 500 7 is_stmt 0
 2061 054a A257     		lw	a5,40(sp)
 2062 054c 3E9A     		add	s4,s4,a5
 2063              	.LVL204:
 502:C:/Users/stapi/OneDrive/Desktop/GD32VW553/V1_MQTT_OK/GD32VW55X_Wifi_BLE_SDK/GD32VW55x_RELEASE_V1.0.2/MSDK/wpa_supplicant/src/tls\tlsv1_client_write.c **** }
 2064              		.loc 1 502 2 is_stmt 1
 2065 054e 19BF     		j	.L76
 2066              	.LVL205:
 2067              	.L81:
 2068              	.LBE176:
 2069              	.LBE192:
 555:C:/Users/stapi/OneDrive/Desktop/GD32VW553/V1_MQTT_OK/GD32VW55X_Wifi_BLE_SDK/GD32VW55x_RELEASE_V1.0.2/MSDK/wpa_supplicant/src/tls\tlsv1_client_write.c **** 	tls_verify_hash_add(&conn->verify, hs_start, pos - hs_start);
 2070              		.loc 1 555 2
 555:C:/Users/stapi/OneDrive/Desktop/GD32VW553/V1_MQTT_OK/GD32VW55X_Wifi_BLE_SDK/GD32VW55x_RELEASE_V1.0.2/MSDK/wpa_supplicant/src/tls\tlsv1_client_write.c **** 	tls_verify_hash_add(&conn->verify, hs_start, pos - hs_start);
 2071              		.loc 1 555 13 is_stmt 0
 2072 0550 3256     		lw	a2,44(sp)
 556:C:/Users/stapi/OneDrive/Desktop/GD32VW553/V1_MQTT_OK/GD32VW55X_Wifi_BLE_SDK/GD32VW55x_RELEASE_V1.0.2/MSDK/wpa_supplicant/src/tls\tlsv1_client_write.c **** 
 2073              		.loc 1 556 2
 2074 0552 130A0418 		addi	s4,s0,384
 2075 0556 EA85     		mv	a1,s10
 555:C:/Users/stapi/OneDrive/Desktop/GD32VW553/V1_MQTT_OK/GD32VW55X_Wifi_BLE_SDK/GD32VW55x_RELEASE_V1.0.2/MSDK/wpa_supplicant/src/tls\tlsv1_client_write.c **** 	tls_verify_hash_add(&conn->verify, hs_start, pos - hs_start);
 2076              		.loc 1 555 13
 2077 0558 3299     		add	s2,s2,a2
 2078              	.LVL206:
 556:C:/Users/stapi/OneDrive/Desktop/GD32VW553/V1_MQTT_OK/GD32VW55X_Wifi_BLE_SDK/GD32VW55x_RELEASE_V1.0.2/MSDK/wpa_supplicant/src/tls\tlsv1_client_write.c **** 
 2079              		.loc 1 556 2 is_stmt 1
 2080 055a 5285     		mv	a0,s4
 2081 055c 6D16     		addi	a2,a2,-5
 2082 055e 97000000 		call	tls_verify_hash_add
 2082      E7800000 
 2083              	.LVL207:
 558:C:/Users/stapi/OneDrive/Desktop/GD32VW553/V1_MQTT_OK/GD32VW55X_Wifi_BLE_SDK/GD32VW55x_RELEASE_V1.0.2/MSDK/wpa_supplicant/src/tls\tlsv1_client_write.c **** 
 2084              		.loc 1 558 2
 2085              	.LBE194:
 2086              	.LBE211:
 887:C:/Users/stapi/OneDrive/Desktop/GD32VW553/V1_MQTT_OK/GD32VW55X_Wifi_BLE_SDK/GD32VW55x_RELEASE_V1.0.2/MSDK/wpa_supplicant/src/tls\tlsv1_client_write.c **** 	     tls_write_client_certificate_verify(conn, &pos, end) < 0) ||
 2087              		.loc 1 887 7 is_stmt 0
 2088 0566 83478417 		lbu	a5,376(s0)
 2089              	.LBB212:
 2090              	.LBB195:
 558:C:/Users/stapi/OneDrive/Desktop/GD32VW553/V1_MQTT_OK/GD32VW55X_Wifi_BLE_SDK/GD32VW55x_RELEASE_V1.0.2/MSDK/wpa_supplicant/src/tls\tlsv1_client_write.c **** 
 2091              		.loc 1 558 10
 2092 056a 4ACE     		sw	s2,28(sp)
 560:C:/Users/stapi/OneDrive/Desktop/GD32VW553/V1_MQTT_OK/GD32VW55X_Wifi_BLE_SDK/GD32VW55x_RELEASE_V1.0.2/MSDK/wpa_supplicant/src/tls\tlsv1_client_write.c **** }
 2093              		.loc 1 560 2 is_stmt 1
 2094              	.LVL208:
 2095              	.LBE195:
 2096              	.LBE212:
 886:C:/Users/stapi/OneDrive/Desktop/GD32VW553/V1_MQTT_OK/GD32VW55X_Wifi_BLE_SDK/GD32VW55x_RELEASE_V1.0.2/MSDK/wpa_supplicant/src/tls\tlsv1_client_write.c **** 	    (conn->certificate_requested && conn->cred && conn->cred->key &&
 2097              		.loc 1 886 57 is_stmt 0
 2098 056c 858B     		andi	a5,a5,1
 2099 056e 63840714 		beq	a5,zero,.L84
 887:C:/Users/stapi/OneDrive/Desktop/GD32VW553/V1_MQTT_OK/GD32VW55X_Wifi_BLE_SDK/GD32VW55x_RELEASE_V1.0.2/MSDK/wpa_supplicant/src/tls\tlsv1_client_write.c **** 	     tls_write_client_certificate_verify(conn, &pos, end) < 0) ||
 2100              		.loc 1 887 42
 2101 0572 83278420 		lw	a5,520(s0)
 887:C:/Users/stapi/OneDrive/Desktop/GD32VW553/V1_MQTT_OK/GD32VW55X_Wifi_BLE_SDK/GD32VW55x_RELEASE_V1.0.2/MSDK/wpa_supplicant/src/tls\tlsv1_client_write.c **** 	     tls_write_client_certificate_verify(conn, &pos, end) < 0) ||
 2102              		.loc 1 887 35
 2103 0576 63800714 		beq	a5,zero,.L84
 887:C:/Users/stapi/OneDrive/Desktop/GD32VW553/V1_MQTT_OK/GD32VW55X_Wifi_BLE_SDK/GD32VW55x_RELEASE_V1.0.2/MSDK/wpa_supplicant/src/tls\tlsv1_client_write.c **** 	     tls_write_client_certificate_verify(conn, &pos, end) < 0) ||
 2104              		.loc 1 887 49
 2105 057a 9C47     		lw	a5,8(a5)
 2106 057c 638D0712 		beq	a5,zero,.L84
 2107              	.LVL209:
 2108              	.LBB213:
 2109              	.LBB208:
 567:C:/Users/stapi/OneDrive/Desktop/GD32VW553/V1_MQTT_OK/GD32VW55X_Wifi_BLE_SDK/GD32VW55x_RELEASE_V1.0.2/MSDK/wpa_supplicant/src/tls\tlsv1_client_write.c **** 	size_t rlen, hlen, clen;
 2110              		.loc 1 567 2 is_stmt 1
 568:C:/Users/stapi/OneDrive/Desktop/GD32VW553/V1_MQTT_OK/GD32VW55X_Wifi_BLE_SDK/GD32VW55x_RELEASE_V1.0.2/MSDK/wpa_supplicant/src/tls\tlsv1_client_write.c **** 	u8 hash[100], *hpos;
 2111              		.loc 1 568 2
 569:C:/Users/stapi/OneDrive/Desktop/GD32VW553/V1_MQTT_OK/GD32VW55X_Wifi_BLE_SDK/GD32VW55x_RELEASE_V1.0.2/MSDK/wpa_supplicant/src/tls\tlsv1_client_write.c **** 
 2112              		.loc 1 569 2
 571:C:/Users/stapi/OneDrive/Desktop/GD32VW553/V1_MQTT_OK/GD32VW55X_Wifi_BLE_SDK/GD32VW55x_RELEASE_V1.0.2/MSDK/wpa_supplicant/src/tls\tlsv1_client_write.c **** 
 2113              		.loc 1 571 2
 573:C:/Users/stapi/OneDrive/Desktop/GD32VW553/V1_MQTT_OK/GD32VW55X_Wifi_BLE_SDK/GD32VW55x_RELEASE_V1.0.2/MSDK/wpa_supplicant/src/tls\tlsv1_client_write.c **** 	rhdr = pos;
 2114              		.loc 1 573 2
 2115 0580 B7050000 		lui	a1,%hi(.LC31)
 2116 0584 0945     		li	a0,2
 2117 0586 93850500 		addi	a1,a1,%lo(.LC31)
 2118 058a 97000000 		call	wpa_printf
 2118      E7800000 
 2119              	.LVL210:
 574:C:/Users/stapi/OneDrive/Desktop/GD32VW553/V1_MQTT_OK/GD32VW55X_Wifi_BLE_SDK/GD32VW55x_RELEASE_V1.0.2/MSDK/wpa_supplicant/src/tls\tlsv1_client_write.c **** 	pos += TLS_RECORD_HEADER_LEN;
 2120              		.loc 1 574 2
 575:C:/Users/stapi/OneDrive/Desktop/GD32VW553/V1_MQTT_OK/GD32VW55X_Wifi_BLE_SDK/GD32VW55x_RELEASE_V1.0.2/MSDK/wpa_supplicant/src/tls\tlsv1_client_write.c **** 
 2121              		.loc 1 575 2
 580:C:/Users/stapi/OneDrive/Desktop/GD32VW553/V1_MQTT_OK/GD32VW55X_Wifi_BLE_SDK/GD32VW55x_RELEASE_V1.0.2/MSDK/wpa_supplicant/src/tls\tlsv1_client_write.c **** 	/* uint24 length (to be filled) */
 2122              		.loc 1 580 9 is_stmt 0
 2123 0592 BD47     		li	a5,15
 2124 0594 A302F900 		sb	a5,5(s2)
 643:C:/Users/stapi/OneDrive/Desktop/GD32VW553/V1_MQTT_OK/GD32VW55X_Wifi_BLE_SDK/GD32VW55x_RELEASE_V1.0.2/MSDK/wpa_supplicant/src/tls\tlsv1_client_write.c **** 	    crypto_hash_finish(conn->verify.md5_cert, hpos, &hlen) < 0) {
 2125              		.loc 1 643 18
 2126 0598 03258419 		lw	a0,408(s0)
 642:C:/Users/stapi/OneDrive/Desktop/GD32VW553/V1_MQTT_OK/GD32VW55X_Wifi_BLE_SDK/GD32VW55x_RELEASE_V1.0.2/MSDK/wpa_supplicant/src/tls\tlsv1_client_write.c **** 	if (conn->verify.md5_cert == NULL ||
 2127              		.loc 1 642 7
 2128 059c C147     		li	a5,16
 2129 059e 3ED2     		sw	a5,36(sp)
 575:C:/Users/stapi/OneDrive/Desktop/GD32VW553/V1_MQTT_OK/GD32VW55X_Wifi_BLE_SDK/GD32VW55x_RELEASE_V1.0.2/MSDK/wpa_supplicant/src/tls\tlsv1_client_write.c **** 
 2130              		.loc 1 575 6
 2131 05a0 130C5900 		addi	s8,s2,5
 2132              	.LVL211:
 578:C:/Users/stapi/OneDrive/Desktop/GD32VW553/V1_MQTT_OK/GD32VW55X_Wifi_BLE_SDK/GD32VW55x_RELEASE_V1.0.2/MSDK/wpa_supplicant/src/tls\tlsv1_client_write.c **** 	/* HandshakeType msg_type */
 2133              		.loc 1 578 2 is_stmt 1
 580:C:/Users/stapi/OneDrive/Desktop/GD32VW553/V1_MQTT_OK/GD32VW55X_Wifi_BLE_SDK/GD32VW55x_RELEASE_V1.0.2/MSDK/wpa_supplicant/src/tls\tlsv1_client_write.c **** 	/* uint24 length (to be filled) */
 2134              		.loc 1 580 2
 580:C:/Users/stapi/OneDrive/Desktop/GD32VW553/V1_MQTT_OK/GD32VW55X_Wifi_BLE_SDK/GD32VW55x_RELEASE_V1.0.2/MSDK/wpa_supplicant/src/tls\tlsv1_client_write.c **** 	/* uint24 length (to be filled) */
 2135              		.loc 1 580 6 is_stmt 0
 2136 05a4 93096900 		addi	s3,s2,6
 2137              	.LVL212:
 582:C:/Users/stapi/OneDrive/Desktop/GD32VW553/V1_MQTT_OK/GD32VW55X_Wifi_BLE_SDK/GD32VW55x_RELEASE_V1.0.2/MSDK/wpa_supplicant/src/tls\tlsv1_client_write.c **** 	pos += 3;
 2138              		.loc 1 582 2 is_stmt 1
 583:C:/Users/stapi/OneDrive/Desktop/GD32VW553/V1_MQTT_OK/GD32VW55X_Wifi_BLE_SDK/GD32VW55x_RELEASE_V1.0.2/MSDK/wpa_supplicant/src/tls\tlsv1_client_write.c **** 
 2139              		.loc 1 583 2
 606:C:/Users/stapi/OneDrive/Desktop/GD32VW553/V1_MQTT_OK/GD32VW55X_Wifi_BLE_SDK/GD32VW55x_RELEASE_V1.0.2/MSDK/wpa_supplicant/src/tls\tlsv1_client_write.c **** 
 2140              		.loc 1 606 2
 642:C:/Users/stapi/OneDrive/Desktop/GD32VW553/V1_MQTT_OK/GD32VW55X_Wifi_BLE_SDK/GD32VW55x_RELEASE_V1.0.2/MSDK/wpa_supplicant/src/tls\tlsv1_client_write.c **** 	if (conn->verify.md5_cert == NULL ||
 2141              		.loc 1 642 2
 643:C:/Users/stapi/OneDrive/Desktop/GD32VW553/V1_MQTT_OK/GD32VW55X_Wifi_BLE_SDK/GD32VW55x_RELEASE_V1.0.2/MSDK/wpa_supplicant/src/tls\tlsv1_client_write.c **** 	    crypto_hash_finish(conn->verify.md5_cert, hpos, &hlen) < 0) {
 2142              		.loc 1 643 2
 643:C:/Users/stapi/OneDrive/Desktop/GD32VW553/V1_MQTT_OK/GD32VW55X_Wifi_BLE_SDK/GD32VW55x_RELEASE_V1.0.2/MSDK/wpa_supplicant/src/tls\tlsv1_client_write.c **** 	    crypto_hash_finish(conn->verify.md5_cert, hpos, &hlen) < 0) {
 2143              		.loc 1 643 5 is_stmt 0
 2144 05a8 15E5     		bne	a0,zero,.L85
 2145              	.L86:
 645:C:/Users/stapi/OneDrive/Desktop/GD32VW553/V1_MQTT_OK/GD32VW55X_Wifi_BLE_SDK/GD32VW55x_RELEASE_V1.0.2/MSDK/wpa_supplicant/src/tls\tlsv1_client_write.c **** 			  TLS_ALERT_INTERNAL_ERROR);
 2146              		.loc 1 645 3 is_stmt 1
 2147 05aa 13060005 		li	a2,80
 2148 05ae 8945     		li	a1,2
 2149 05b0 2285     		mv	a0,s0
 2150 05b2 97000000 		call	tls_alert
 2150      E7800000 
 2151              	.LVL213:
 647:C:/Users/stapi/OneDrive/Desktop/GD32VW553/V1_MQTT_OK/GD32VW55X_Wifi_BLE_SDK/GD32VW55x_RELEASE_V1.0.2/MSDK/wpa_supplicant/src/tls\tlsv1_client_write.c **** 		crypto_hash_finish(conn->verify.sha1_cert, NULL, NULL);
 2152              		.loc 1 647 3
 648:C:/Users/stapi/OneDrive/Desktop/GD32VW553/V1_MQTT_OK/GD32VW55X_Wifi_BLE_SDK/GD32VW55x_RELEASE_V1.0.2/MSDK/wpa_supplicant/src/tls\tlsv1_client_write.c **** 		conn->verify.sha1_cert = NULL;
 2153              		.loc 1 648 3 is_stmt 0
 2154 05ba 0325C419 		lw	a0,412(s0)
 647:C:/Users/stapi/OneDrive/Desktop/GD32VW553/V1_MQTT_OK/GD32VW55X_Wifi_BLE_SDK/GD32VW55x_RELEASE_V1.0.2/MSDK/wpa_supplicant/src/tls\tlsv1_client_write.c **** 		crypto_hash_finish(conn->verify.sha1_cert, NULL, NULL);
 2155              		.loc 1 647 25
 2156 05be 232C0418 		sw	zero,408(s0)
 648:C:/Users/stapi/OneDrive/Desktop/GD32VW553/V1_MQTT_OK/GD32VW55X_Wifi_BLE_SDK/GD32VW55x_RELEASE_V1.0.2/MSDK/wpa_supplicant/src/tls\tlsv1_client_write.c **** 		conn->verify.sha1_cert = NULL;
 2157              		.loc 1 648 3 is_stmt 1
 2158 05c2 0146     		li	a2,0
 2159 05c4 8145     		li	a1,0
 2160 05c6 97000000 		call	crypto_hash_finish
 2160      E7800000 
 2161              	.LVL214:
 649:C:/Users/stapi/OneDrive/Desktop/GD32VW553/V1_MQTT_OK/GD32VW55X_Wifi_BLE_SDK/GD32VW55x_RELEASE_V1.0.2/MSDK/wpa_supplicant/src/tls\tlsv1_client_write.c **** 		return -1;
 2162              		.loc 1 649 3
 649:C:/Users/stapi/OneDrive/Desktop/GD32VW553/V1_MQTT_OK/GD32VW55X_Wifi_BLE_SDK/GD32VW55x_RELEASE_V1.0.2/MSDK/wpa_supplicant/src/tls\tlsv1_client_write.c **** 		return -1;
 2163              		.loc 1 649 26 is_stmt 0
 2164 05ce 232E0418 		sw	zero,412(s0)
 650:C:/Users/stapi/OneDrive/Desktop/GD32VW553/V1_MQTT_OK/GD32VW55X_Wifi_BLE_SDK/GD32VW55x_RELEASE_V1.0.2/MSDK/wpa_supplicant/src/tls\tlsv1_client_write.c **** 	}
 2165              		.loc 1 650 3 is_stmt 1
 2166              	.LVL215:
 2167 05d2 7DB1     		j	.L98
 2168              	.LVL216:
 2169              	.L85:
 644:C:/Users/stapi/OneDrive/Desktop/GD32VW553/V1_MQTT_OK/GD32VW55X_Wifi_BLE_SDK/GD32VW55x_RELEASE_V1.0.2/MSDK/wpa_supplicant/src/tls\tlsv1_client_write.c **** 		tls_alert(conn, TLS_ALERT_LEVEL_FATAL,
 2170              		.loc 1 644 6 is_stmt 0
 2171 05d4 5010     		addi	a2,sp,36
 2172 05d6 6C10     		addi	a1,sp,44
 2173              	.LVL217:
 2174 05d8 97000000 		call	crypto_hash_finish
 2174      E7800000 
 2175              	.LVL218:
 643:C:/Users/stapi/OneDrive/Desktop/GD32VW553/V1_MQTT_OK/GD32VW55X_Wifi_BLE_SDK/GD32VW55x_RELEASE_V1.0.2/MSDK/wpa_supplicant/src/tls\tlsv1_client_write.c **** 	    crypto_hash_finish(conn->verify.md5_cert, hpos, &hlen) < 0) {
 2176              		.loc 1 643 36
 2177 05e0 E34505FC 		blt	a0,zero,.L86
 652:C:/Users/stapi/OneDrive/Desktop/GD32VW553/V1_MQTT_OK/GD32VW55X_Wifi_BLE_SDK/GD32VW55x_RELEASE_V1.0.2/MSDK/wpa_supplicant/src/tls\tlsv1_client_write.c **** 
 2178              		.loc 1 652 2 is_stmt 1
 2179              	.LVL219:
 654:C:/Users/stapi/OneDrive/Desktop/GD32VW553/V1_MQTT_OK/GD32VW55X_Wifi_BLE_SDK/GD32VW55x_RELEASE_V1.0.2/MSDK/wpa_supplicant/src/tls\tlsv1_client_write.c **** 	hlen = SHA1_MAC_LEN;
 2180              		.loc 1 654 2
 656:C:/Users/stapi/OneDrive/Desktop/GD32VW553/V1_MQTT_OK/GD32VW55X_Wifi_BLE_SDK/GD32VW55x_RELEASE_V1.0.2/MSDK/wpa_supplicant/src/tls\tlsv1_client_write.c **** 	    crypto_hash_finish(conn->verify.sha1_cert, hpos, &hlen) < 0) {
 2181              		.loc 1 656 18 is_stmt 0
 2182 05e4 0325C419 		lw	a0,412(s0)
 655:C:/Users/stapi/OneDrive/Desktop/GD32VW553/V1_MQTT_OK/GD32VW55X_Wifi_BLE_SDK/GD32VW55x_RELEASE_V1.0.2/MSDK/wpa_supplicant/src/tls\tlsv1_client_write.c **** 	if (conn->verify.sha1_cert == NULL ||
 2183              		.loc 1 655 7
 2184 05e8 D147     		li	a5,20
 654:C:/Users/stapi/OneDrive/Desktop/GD32VW553/V1_MQTT_OK/GD32VW55X_Wifi_BLE_SDK/GD32VW55x_RELEASE_V1.0.2/MSDK/wpa_supplicant/src/tls\tlsv1_client_write.c **** 	hlen = SHA1_MAC_LEN;
 2185              		.loc 1 654 24
 2186 05ea 232C0418 		sw	zero,408(s0)
 655:C:/Users/stapi/OneDrive/Desktop/GD32VW553/V1_MQTT_OK/GD32VW55X_Wifi_BLE_SDK/GD32VW55x_RELEASE_V1.0.2/MSDK/wpa_supplicant/src/tls\tlsv1_client_write.c **** 	if (conn->verify.sha1_cert == NULL ||
 2187              		.loc 1 655 2 is_stmt 1
 655:C:/Users/stapi/OneDrive/Desktop/GD32VW553/V1_MQTT_OK/GD32VW55X_Wifi_BLE_SDK/GD32VW55x_RELEASE_V1.0.2/MSDK/wpa_supplicant/src/tls\tlsv1_client_write.c **** 	if (conn->verify.sha1_cert == NULL ||
 2188              		.loc 1 655 7 is_stmt 0
 2189 05ee 3ED2     		sw	a5,36(sp)
 656:C:/Users/stapi/OneDrive/Desktop/GD32VW553/V1_MQTT_OK/GD32VW55X_Wifi_BLE_SDK/GD32VW55x_RELEASE_V1.0.2/MSDK/wpa_supplicant/src/tls\tlsv1_client_write.c **** 	    crypto_hash_finish(conn->verify.sha1_cert, hpos, &hlen) < 0) {
 2190              		.loc 1 656 2 is_stmt 1
 656:C:/Users/stapi/OneDrive/Desktop/GD32VW553/V1_MQTT_OK/GD32VW55X_Wifi_BLE_SDK/GD32VW55x_RELEASE_V1.0.2/MSDK/wpa_supplicant/src/tls\tlsv1_client_write.c **** 	    crypto_hash_finish(conn->verify.sha1_cert, hpos, &hlen) < 0) {
 2191              		.loc 1 656 5 is_stmt 0
 2192 05f0 01E5     		bne	a0,zero,.L87
 2193              	.L88:
 658:C:/Users/stapi/OneDrive/Desktop/GD32VW553/V1_MQTT_OK/GD32VW55X_Wifi_BLE_SDK/GD32VW55x_RELEASE_V1.0.2/MSDK/wpa_supplicant/src/tls\tlsv1_client_write.c **** 		tls_alert(conn, TLS_ALERT_LEVEL_FATAL,
 2194              		.loc 1 658 3 is_stmt 1
 658:C:/Users/stapi/OneDrive/Desktop/GD32VW553/V1_MQTT_OK/GD32VW55X_Wifi_BLE_SDK/GD32VW55x_RELEASE_V1.0.2/MSDK/wpa_supplicant/src/tls\tlsv1_client_write.c **** 		tls_alert(conn, TLS_ALERT_LEVEL_FATAL,
 2195              		.loc 1 658 26 is_stmt 0
 2196 05f2 232E0418 		sw	zero,412(s0)
 659:C:/Users/stapi/OneDrive/Desktop/GD32VW553/V1_MQTT_OK/GD32VW55X_Wifi_BLE_SDK/GD32VW55x_RELEASE_V1.0.2/MSDK/wpa_supplicant/src/tls\tlsv1_client_write.c **** 			  TLS_ALERT_INTERNAL_ERROR);
 2197              		.loc 1 659 3 is_stmt 1
 2198 05f6 95BC     		j	.L134
 2199              	.L87:
 657:C:/Users/stapi/OneDrive/Desktop/GD32VW553/V1_MQTT_OK/GD32VW55X_Wifi_BLE_SDK/GD32VW55x_RELEASE_V1.0.2/MSDK/wpa_supplicant/src/tls\tlsv1_client_write.c **** 		conn->verify.sha1_cert = NULL;
 2200              		.loc 1 657 6 is_stmt 0
 2201 05f8 5010     		addi	a2,sp,36
 2202 05fa 6C18     		addi	a1,sp,60
 2203              	.LVL220:
 2204 05fc 97000000 		call	crypto_hash_finish
 2204      E7800000 
 2205              	.LVL221:
 656:C:/Users/stapi/OneDrive/Desktop/GD32VW553/V1_MQTT_OK/GD32VW55X_Wifi_BLE_SDK/GD32VW55x_RELEASE_V1.0.2/MSDK/wpa_supplicant/src/tls\tlsv1_client_write.c **** 	    crypto_hash_finish(conn->verify.sha1_cert, hpos, &hlen) < 0) {
 2206              		.loc 1 656 37
 2207 0604 E34705FE 		blt	a0,zero,.L88
 663:C:/Users/stapi/OneDrive/Desktop/GD32VW553/V1_MQTT_OK/GD32VW55X_Wifi_BLE_SDK/GD32VW55x_RELEASE_V1.0.2/MSDK/wpa_supplicant/src/tls\tlsv1_client_write.c **** 
 2208              		.loc 1 663 2 is_stmt 1
 665:C:/Users/stapi/OneDrive/Desktop/GD32VW553/V1_MQTT_OK/GD32VW55X_Wifi_BLE_SDK/GD32VW55x_RELEASE_V1.0.2/MSDK/wpa_supplicant/src/tls\tlsv1_client_write.c **** 
 2209              		.loc 1 665 7 is_stmt 0
 2210 0608 9256     		lw	a3,36(sp)
 671:C:/Users/stapi/OneDrive/Desktop/GD32VW553/V1_MQTT_OK/GD32VW55X_Wifi_BLE_SDK/GD32VW55x_RELEASE_V1.0.2/MSDK/wpa_supplicant/src/tls\tlsv1_client_write.c **** 
 2211              		.loc 1 671 2
 2212 060a B7050000 		lui	a1,%hi(.LC32)
 663:C:/Users/stapi/OneDrive/Desktop/GD32VW553/V1_MQTT_OK/GD32VW55X_Wifi_BLE_SDK/GD32VW55x_RELEASE_V1.0.2/MSDK/wpa_supplicant/src/tls\tlsv1_client_write.c **** 
 2213              		.loc 1 663 25
 2214 060e 232E0418 		sw	zero,412(s0)
 665:C:/Users/stapi/OneDrive/Desktop/GD32VW553/V1_MQTT_OK/GD32VW55X_Wifi_BLE_SDK/GD32VW55x_RELEASE_V1.0.2/MSDK/wpa_supplicant/src/tls\tlsv1_client_write.c **** 
 2215              		.loc 1 665 2 is_stmt 1
 665:C:/Users/stapi/OneDrive/Desktop/GD32VW553/V1_MQTT_OK/GD32VW55X_Wifi_BLE_SDK/GD32VW55x_RELEASE_V1.0.2/MSDK/wpa_supplicant/src/tls\tlsv1_client_write.c **** 
 2216              		.loc 1 665 7 is_stmt 0
 2217 0612 C106     		addi	a3,a3,16
 671:C:/Users/stapi/OneDrive/Desktop/GD32VW553/V1_MQTT_OK/GD32VW55X_Wifi_BLE_SDK/GD32VW55x_RELEASE_V1.0.2/MSDK/wpa_supplicant/src/tls\tlsv1_client_write.c **** 
 2218              		.loc 1 671 2
 2219 0614 7010     		addi	a2,sp,44
 2220 0616 93850500 		addi	a1,a1,%lo(.LC32)
 2221 061a 0545     		li	a0,1
 665:C:/Users/stapi/OneDrive/Desktop/GD32VW553/V1_MQTT_OK/GD32VW55X_Wifi_BLE_SDK/GD32VW55x_RELEASE_V1.0.2/MSDK/wpa_supplicant/src/tls\tlsv1_client_write.c **** 
 2222              		.loc 1 665 7
 2223 061c 36D2     		sw	a3,36(sp)
 671:C:/Users/stapi/OneDrive/Desktop/GD32VW553/V1_MQTT_OK/GD32VW55X_Wifi_BLE_SDK/GD32VW55x_RELEASE_V1.0.2/MSDK/wpa_supplicant/src/tls\tlsv1_client_write.c **** 
 2224              		.loc 1 671 2 is_stmt 1
 702:C:/Users/stapi/OneDrive/Desktop/GD32VW553/V1_MQTT_OK/GD32VW55X_Wifi_BLE_SDK/GD32VW55x_RELEASE_V1.0.2/MSDK/wpa_supplicant/src/tls\tlsv1_client_write.c **** 	clen = end - pos;
 2225              		.loc 1 702 6 is_stmt 0
 2226 061e 930CB900 		addi	s9,s2,11
 671:C:/Users/stapi/OneDrive/Desktop/GD32VW553/V1_MQTT_OK/GD32VW55X_Wifi_BLE_SDK/GD32VW55x_RELEASE_V1.0.2/MSDK/wpa_supplicant/src/tls\tlsv1_client_write.c **** 
 2227              		.loc 1 671 2
 2228 0622 97000000 		call	wpa_hexdump
 2228      E7800000 
 2229              	.LVL222:
 701:C:/Users/stapi/OneDrive/Desktop/GD32VW553/V1_MQTT_OK/GD32VW55X_Wifi_BLE_SDK/GD32VW55x_RELEASE_V1.0.2/MSDK/wpa_supplicant/src/tls\tlsv1_client_write.c **** 	pos += 2;
 2230              		.loc 1 701 2 is_stmt 1
 702:C:/Users/stapi/OneDrive/Desktop/GD32VW553/V1_MQTT_OK/GD32VW55X_Wifi_BLE_SDK/GD32VW55x_RELEASE_V1.0.2/MSDK/wpa_supplicant/src/tls\tlsv1_client_write.c **** 	clen = end - pos;
 2231              		.loc 1 702 2
 703:C:/Users/stapi/OneDrive/Desktop/GD32VW553/V1_MQTT_OK/GD32VW55X_Wifi_BLE_SDK/GD32VW55x_RELEASE_V1.0.2/MSDK/wpa_supplicant/src/tls\tlsv1_client_write.c **** 	if (conn->cred == NULL ||
 2232              		.loc 1 703 2
 703:C:/Users/stapi/OneDrive/Desktop/GD32VW553/V1_MQTT_OK/GD32VW55X_Wifi_BLE_SDK/GD32VW55x_RELEASE_V1.0.2/MSDK/wpa_supplicant/src/tls\tlsv1_client_write.c **** 	if (conn->cred == NULL ||
 2233              		.loc 1 703 13 is_stmt 0
 2234 062a B3879A41 		sub	a5,s5,s9
 703:C:/Users/stapi/OneDrive/Desktop/GD32VW553/V1_MQTT_OK/GD32VW55X_Wifi_BLE_SDK/GD32VW55x_RELEASE_V1.0.2/MSDK/wpa_supplicant/src/tls\tlsv1_client_write.c **** 	if (conn->cred == NULL ||
 2235              		.loc 1 703 7
 2236 062e 3ED4     		sw	a5,40(sp)
 704:C:/Users/stapi/OneDrive/Desktop/GD32VW553/V1_MQTT_OK/GD32VW55X_Wifi_BLE_SDK/GD32VW55x_RELEASE_V1.0.2/MSDK/wpa_supplicant/src/tls\tlsv1_client_write.c **** 	    crypto_private_key_sign_pkcs1(conn->cred->key, hash, hlen,
 2237              		.loc 1 704 2 is_stmt 1
 704:C:/Users/stapi/OneDrive/Desktop/GD32VW553/V1_MQTT_OK/GD32VW55X_Wifi_BLE_SDK/GD32VW55x_RELEASE_V1.0.2/MSDK/wpa_supplicant/src/tls\tlsv1_client_write.c **** 	    crypto_private_key_sign_pkcs1(conn->cred->key, hash, hlen,
 2238              		.loc 1 704 10 is_stmt 0
 2239 0630 83278420 		lw	a5,520(s0)
 704:C:/Users/stapi/OneDrive/Desktop/GD32VW553/V1_MQTT_OK/GD32VW55X_Wifi_BLE_SDK/GD32VW55x_RELEASE_V1.0.2/MSDK/wpa_supplicant/src/tls\tlsv1_client_write.c **** 	    crypto_private_key_sign_pkcs1(conn->cred->key, hash, hlen,
 2240              		.loc 1 704 5
 2241 0634 91E7     		bne	a5,zero,.L89
 2242              	.L90:
 707:C:/Users/stapi/OneDrive/Desktop/GD32VW553/V1_MQTT_OK/GD32VW55X_Wifi_BLE_SDK/GD32VW55x_RELEASE_V1.0.2/MSDK/wpa_supplicant/src/tls\tlsv1_client_write.c **** 		tls_alert(conn, TLS_ALERT_LEVEL_FATAL,
 2243              		.loc 1 707 3 is_stmt 1
 2244 0636 B7050000 		lui	a1,%hi(.LC33)
 2245 063a 93850500 		addi	a1,a1,%lo(.LC33)
 2246 063e FDBE     		j	.L131
 2247              	.L89:
 705:C:/Users/stapi/OneDrive/Desktop/GD32VW553/V1_MQTT_OK/GD32VW55X_Wifi_BLE_SDK/GD32VW55x_RELEASE_V1.0.2/MSDK/wpa_supplicant/src/tls\tlsv1_client_write.c **** 					  pos, &clen) < 0) {
 2248              		.loc 1 705 6 is_stmt 0
 2249 0640 1256     		lw	a2,36(sp)
 2250 0642 8847     		lw	a0,8(a5)
 2251 0644 3810     		addi	a4,sp,40
 2252 0646 E686     		mv	a3,s9
 2253 0648 6C10     		addi	a1,sp,44
 2254 064a 97000000 		call	crypto_private_key_sign_pkcs1
 2254      E7800000 
 2255              	.LVL223:
 704:C:/Users/stapi/OneDrive/Desktop/GD32VW553/V1_MQTT_OK/GD32VW55X_Wifi_BLE_SDK/GD32VW55x_RELEASE_V1.0.2/MSDK/wpa_supplicant/src/tls\tlsv1_client_write.c **** 	    crypto_private_key_sign_pkcs1(conn->cred->key, hash, hlen,
 2256              		.loc 1 704 25
 2257 0652 E34205FE 		blt	a0,zero,.L90
 712:C:/Users/stapi/OneDrive/Desktop/GD32VW553/V1_MQTT_OK/GD32VW55X_Wifi_BLE_SDK/GD32VW55x_RELEASE_V1.0.2/MSDK/wpa_supplicant/src/tls\tlsv1_client_write.c **** 
 2258              		.loc 1 712 2 is_stmt 1
 2259 0656 A257     		lw	a5,40(sp)
 2260              	.LVL224:
 2261              	.LBB200:
 2262              	.LBB201:
 247:..\..\..\..\wpa_supplicant\src\utils/common.h **** 	a[1] = val & 0xff;
 2263              		.loc 2 247 2
 2264              	.LBE201:
 2265              	.LBE200:
 718:C:/Users/stapi/OneDrive/Desktop/GD32VW553/V1_MQTT_OK/GD32VW55X_Wifi_BLE_SDK/GD32VW55x_RELEASE_V1.0.2/MSDK/wpa_supplicant/src/tls\tlsv1_client_write.c **** 			      rhdr, end - rhdr, hs_start, pos - hs_start,
 2266              		.loc 1 718 6 is_stmt 0
 2267 0658 13080102 		addi	a6,sp,32
 2268 065c 4A86     		mv	a2,s2
 2269              	.LBB204:
 2270              	.LBB202:
 247:..\..\..\..\wpa_supplicant\src\utils/common.h **** 	a[1] = val & 0xff;
 2271              		.loc 2 247 7
 2272 065e 33C70708 		zext.h	a4,a5
 248:..\..\..\..\wpa_supplicant\src\utils/common.h **** }
 2273              		.loc 2 248 7
 2274 0662 2305F900 		sb	a5,10(s2)
 247:..\..\..\..\wpa_supplicant\src\utils/common.h **** 	a[1] = val & 0xff;
 2275              		.loc 2 247 7
 2276 0666 2183     		srli	a4,a4,8
 2277              	.LBE202:
 2278              	.LBE204:
 714:C:/Users/stapi/OneDrive/Desktop/GD32VW553/V1_MQTT_OK/GD32VW55X_Wifi_BLE_SDK/GD32VW55x_RELEASE_V1.0.2/MSDK/wpa_supplicant/src/tls\tlsv1_client_write.c **** 
 2279              		.loc 1 714 6
 2280 0668 E697     		add	a5,s9,a5
 2281              	.LVL225:
 2282              	.LBB205:
 2283              	.LBB203:
 247:..\..\..\..\wpa_supplicant\src\utils/common.h **** 	a[1] = val & 0xff;
 2284              		.loc 2 247 7
 2285 066a A304E900 		sb	a4,9(s2)
 248:..\..\..\..\wpa_supplicant\src\utils/common.h **** }
 2286              		.loc 2 248 2 is_stmt 1
 2287              	.LVL226:
 2288              	.LBE203:
 2289              	.LBE205:
 714:C:/Users/stapi/OneDrive/Desktop/GD32VW553/V1_MQTT_OK/GD32VW55X_Wifi_BLE_SDK/GD32VW55x_RELEASE_V1.0.2/MSDK/wpa_supplicant/src/tls\tlsv1_client_write.c **** 
 2290              		.loc 1 714 2
 716:C:/Users/stapi/OneDrive/Desktop/GD32VW553/V1_MQTT_OK/GD32VW55X_Wifi_BLE_SDK/GD32VW55x_RELEASE_V1.0.2/MSDK/wpa_supplicant/src/tls\tlsv1_client_write.c **** 
 2291              		.loc 1 716 2
 716:C:/Users/stapi/OneDrive/Desktop/GD32VW553/V1_MQTT_OK/GD32VW55X_Wifi_BLE_SDK/GD32VW55x_RELEASE_V1.0.2/MSDK/wpa_supplicant/src/tls\tlsv1_client_write.c **** 
 2292              		.loc 1 716 30 is_stmt 0
 2293 066e 33873741 		sub	a4,a5,s3
 716:C:/Users/stapi/OneDrive/Desktop/GD32VW553/V1_MQTT_OK/GD32VW55X_Wifi_BLE_SDK/GD32VW55x_RELEASE_V1.0.2/MSDK/wpa_supplicant/src/tls\tlsv1_client_write.c **** 
 2294              		.loc 1 716 42
 2295 0672 7517     		addi	a4,a4,-3
 2296              	.LVL227:
 2297              	.LBB206:
 2298              	.LBB207:
 269:..\..\..\..\wpa_supplicant\src\utils/common.h **** 	a[1] = (val >> 8) & 0xff;
 2299              		.loc 2 269 2 is_stmt 1
 269:..\..\..\..\wpa_supplicant\src\utils/common.h **** 	a[1] = (val >> 8) & 0xff;
 2300              		.loc 2 269 14 is_stmt 0
 2301 0674 93560701 		srli	a3,a4,16
 269:..\..\..\..\wpa_supplicant\src\utils/common.h **** 	a[1] = (val >> 8) & 0xff;
 2302              		.loc 2 269 7
 2303 0678 2303D900 		sb	a3,6(s2)
 270:..\..\..\..\wpa_supplicant\src\utils/common.h **** 	a[2] = val & 0xff;
 2304              		.loc 2 270 2 is_stmt 1
 270:..\..\..\..\wpa_supplicant\src\utils/common.h **** 	a[2] = val & 0xff;
 2305              		.loc 2 270 14 is_stmt 0
 2306 067c 93568700 		srli	a3,a4,8
 270:..\..\..\..\wpa_supplicant\src\utils/common.h **** 	a[2] = val & 0xff;
 2307              		.loc 2 270 7
 2308 0680 A303D900 		sb	a3,7(s2)
 271:..\..\..\..\wpa_supplicant\src\utils/common.h **** }
 2309              		.loc 2 271 2 is_stmt 1
 271:..\..\..\..\wpa_supplicant\src\utils/common.h **** }
 2310              		.loc 2 271 7 is_stmt 0
 2311 0684 2304E900 		sb	a4,8(s2)
 2312              	.LVL228:
 2313              	.LBE207:
 2314              	.LBE206:
 718:C:/Users/stapi/OneDrive/Desktop/GD32VW553/V1_MQTT_OK/GD32VW55X_Wifi_BLE_SDK/GD32VW55x_RELEASE_V1.0.2/MSDK/wpa_supplicant/src/tls\tlsv1_client_write.c **** 			      rhdr, end - rhdr, hs_start, pos - hs_start,
 2315              		.loc 1 718 2 is_stmt 1
 718:C:/Users/stapi/OneDrive/Desktop/GD32VW553/V1_MQTT_OK/GD32VW55X_Wifi_BLE_SDK/GD32VW55x_RELEASE_V1.0.2/MSDK/wpa_supplicant/src/tls\tlsv1_client_write.c **** 			      rhdr, end - rhdr, hs_start, pos - hs_start,
 2316              		.loc 1 718 6 is_stmt 0
 2317 0688 B3878741 		sub	a5,a5,s8
 2318              	.LVL229:
 2319 068c 6287     		mv	a4,s8
 2320 068e B3862A41 		sub	a3,s5,s2
 2321 0692 D945     		li	a1,22
 2322 0694 5E85     		mv	a0,s7
 2323 0696 97000000 		call	tlsv1_record_send
 2323      E7800000 
 2324              	.LVL230:
 718:C:/Users/stapi/OneDrive/Desktop/GD32VW553/V1_MQTT_OK/GD32VW55X_Wifi_BLE_SDK/GD32VW55x_RELEASE_V1.0.2/MSDK/wpa_supplicant/src/tls\tlsv1_client_write.c **** 			      rhdr, end - rhdr, hs_start, pos - hs_start,
 2325              		.loc 1 718 5
 2326 069e E34605AA 		blt	a0,zero,.L139
 726:C:/Users/stapi/OneDrive/Desktop/GD32VW553/V1_MQTT_OK/GD32VW55X_Wifi_BLE_SDK/GD32VW55x_RELEASE_V1.0.2/MSDK/wpa_supplicant/src/tls\tlsv1_client_write.c **** 
 2327              		.loc 1 726 2 is_stmt 1
 726:C:/Users/stapi/OneDrive/Desktop/GD32VW553/V1_MQTT_OK/GD32VW55X_Wifi_BLE_SDK/GD32VW55x_RELEASE_V1.0.2/MSDK/wpa_supplicant/src/tls\tlsv1_client_write.c **** 
 2328              		.loc 1 726 13 is_stmt 0
 2329 06a2 0256     		lw	a2,32(sp)
 728:C:/Users/stapi/OneDrive/Desktop/GD32VW553/V1_MQTT_OK/GD32VW55X_Wifi_BLE_SDK/GD32VW55x_RELEASE_V1.0.2/MSDK/wpa_supplicant/src/tls\tlsv1_client_write.c **** 
 2330              		.loc 1 728 2
 2331 06a4 E285     		mv	a1,s8
 2332 06a6 5285     		mv	a0,s4
 726:C:/Users/stapi/OneDrive/Desktop/GD32VW553/V1_MQTT_OK/GD32VW55X_Wifi_BLE_SDK/GD32VW55x_RELEASE_V1.0.2/MSDK/wpa_supplicant/src/tls\tlsv1_client_write.c **** 
 2333              		.loc 1 726 6
 2334 06a8 3299     		add	s2,s2,a2
 2335              	.LVL231:
 728:C:/Users/stapi/OneDrive/Desktop/GD32VW553/V1_MQTT_OK/GD32VW55X_Wifi_BLE_SDK/GD32VW55x_RELEASE_V1.0.2/MSDK/wpa_supplicant/src/tls\tlsv1_client_write.c **** 
 2336              		.loc 1 728 2 is_stmt 1
 2337 06aa 6D16     		addi	a2,a2,-5
 2338 06ac 97000000 		call	tls_verify_hash_add
 2338      E7800000 
 2339              	.LVL232:
 730:C:/Users/stapi/OneDrive/Desktop/GD32VW553/V1_MQTT_OK/GD32VW55X_Wifi_BLE_SDK/GD32VW55x_RELEASE_V1.0.2/MSDK/wpa_supplicant/src/tls\tlsv1_client_write.c **** 
 2340              		.loc 1 730 2
 730:C:/Users/stapi/OneDrive/Desktop/GD32VW553/V1_MQTT_OK/GD32VW55X_Wifi_BLE_SDK/GD32VW55x_RELEASE_V1.0.2/MSDK/wpa_supplicant/src/tls\tlsv1_client_write.c **** 
 2341              		.loc 1 730 10 is_stmt 0
 2342 06b4 4ACE     		sw	s2,28(sp)
 732:C:/Users/stapi/OneDrive/Desktop/GD32VW553/V1_MQTT_OK/GD32VW55X_Wifi_BLE_SDK/GD32VW55x_RELEASE_V1.0.2/MSDK/wpa_supplicant/src/tls\tlsv1_client_write.c **** }
 2343              		.loc 1 732 2 is_stmt 1
 2344              	.LVL233:
 2345              	.L84:
 2346              	.LBE208:
 2347              	.LBE213:
 889:C:/Users/stapi/OneDrive/Desktop/GD32VW553/V1_MQTT_OK/GD32VW55X_Wifi_BLE_SDK/GD32VW55x_RELEASE_V1.0.2/MSDK/wpa_supplicant/src/tls\tlsv1_client_write.c **** 	    tls_write_client_finished(conn, &pos, end) < 0) {
 2348              		.loc 1 889 6 is_stmt 0
 2349 06b6 5686     		mv	a2,s5
 2350 06b8 6C08     		addi	a1,sp,28
 2351 06ba 2285     		mv	a0,s0
 2352 06bc 97000000 		call	tls_write_client_change_cipher_spec
 2352      E7800000 
 2353              	.LVL234:
 888:C:/Users/stapi/OneDrive/Desktop/GD32VW553/V1_MQTT_OK/GD32VW55X_Wifi_BLE_SDK/GD32VW55x_RELEASE_V1.0.2/MSDK/wpa_supplicant/src/tls\tlsv1_client_write.c **** 	    tls_write_client_change_cipher_spec(conn, &pos, end) < 0 ||
 2354              		.loc 1 888 65
 2355 06c4 E34E05BA 		blt	a0,zero,.L98
 890:C:/Users/stapi/OneDrive/Desktop/GD32VW553/V1_MQTT_OK/GD32VW55X_Wifi_BLE_SDK/GD32VW55x_RELEASE_V1.0.2/MSDK/wpa_supplicant/src/tls\tlsv1_client_write.c **** 		os_free(msg);
 2356              		.loc 1 890 6
 2357 06c8 5686     		mv	a2,s5
 2358 06ca 6C08     		addi	a1,sp,28
 2359 06cc 2285     		mv	a0,s0
 2360 06ce 97000000 		call	tls_write_client_finished
 2360      E7800000 
 2361              	.LVL235:
 889:C:/Users/stapi/OneDrive/Desktop/GD32VW553/V1_MQTT_OK/GD32VW55X_Wifi_BLE_SDK/GD32VW55x_RELEASE_V1.0.2/MSDK/wpa_supplicant/src/tls\tlsv1_client_write.c **** 	    tls_write_client_finished(conn, &pos, end) < 0) {
 2362              		.loc 1 889 63
 2363 06d6 E34505BA 		blt	a0,zero,.L98
 895:C:/Users/stapi/OneDrive/Desktop/GD32VW553/V1_MQTT_OK/GD32VW55X_Wifi_BLE_SDK/GD32VW55x_RELEASE_V1.0.2/MSDK/wpa_supplicant/src/tls\tlsv1_client_write.c **** 
 2364              		.loc 1 895 2 is_stmt 1
 895:C:/Users/stapi/OneDrive/Desktop/GD32VW553/V1_MQTT_OK/GD32VW55X_Wifi_BLE_SDK/GD32VW55x_RELEASE_V1.0.2/MSDK/wpa_supplicant/src/tls\tlsv1_client_write.c **** 
 2365              		.loc 1 895 17 is_stmt 0
 2366 06da F247     		lw	a5,28(sp)
 2367 06dc 858F     		sub	a5,a5,s1
 895:C:/Users/stapi/OneDrive/Desktop/GD32VW553/V1_MQTT_OK/GD32VW55X_Wifi_BLE_SDK/GD32VW55x_RELEASE_V1.0.2/MSDK/wpa_supplicant/src/tls\tlsv1_client_write.c **** 
 2368              		.loc 1 895 11
 2369 06de 2320FB00 		sw	a5,0(s6)
 897:C:/Users/stapi/OneDrive/Desktop/GD32VW553/V1_MQTT_OK/GD32VW55X_Wifi_BLE_SDK/GD32VW55x_RELEASE_V1.0.2/MSDK/wpa_supplicant/src/tls\tlsv1_client_write.c **** 
 2370              		.loc 1 897 2 is_stmt 1
 897:C:/Users/stapi/OneDrive/Desktop/GD32VW553/V1_MQTT_OK/GD32VW55X_Wifi_BLE_SDK/GD32VW55x_RELEASE_V1.0.2/MSDK/wpa_supplicant/src/tls\tlsv1_client_write.c **** 
 2371              		.loc 1 897 14 is_stmt 0
 2372 06e2 A147     		li	a5,8
 2373              	.LVL236:
 2374              	.L136:
 2375              	.LBE214:
 2376              	.LBE219:
 2377              	.LBB220:
 2378              	.LBB217:
 929:C:/Users/stapi/OneDrive/Desktop/GD32VW553/V1_MQTT_OK/GD32VW55X_Wifi_BLE_SDK/GD32VW55x_RELEASE_V1.0.2/MSDK/wpa_supplicant/src/tls\tlsv1_client_write.c **** 
 2379              		.loc 1 929 14
 2380 06e4 1CC0     		sw	a5,0(s0)
 931:C:/Users/stapi/OneDrive/Desktop/GD32VW553/V1_MQTT_OK/GD32VW55X_Wifi_BLE_SDK/GD32VW55x_RELEASE_V1.0.2/MSDK/wpa_supplicant/src/tls\tlsv1_client_write.c **** }
 2381              		.loc 1 931 2 is_stmt 1
 2382              	.L41:
 2383              	.LBE217:
 2384              	.LBE220:
 957:C:/Users/stapi/OneDrive/Desktop/GD32VW553/V1_MQTT_OK/GD32VW55X_Wifi_BLE_SDK/GD32VW55x_RELEASE_V1.0.2/MSDK/wpa_supplicant/src/tls\tlsv1_client_write.c **** 	}
 958:C:/Users/stapi/OneDrive/Desktop/GD32VW553/V1_MQTT_OK/GD32VW55X_Wifi_BLE_SDK/GD32VW55x_RELEASE_V1.0.2/MSDK/wpa_supplicant/src/tls\tlsv1_client_write.c **** }
 2385              		.loc 1 958 1 is_stmt 0
 2386 06e6 2685     		mv	a0,s1
 2387 06e8 4961     		addi	sp,sp,144
 2388              		.cfi_remember_state
 2389              		.cfi_def_cfa_offset 0
 2390 06ea 17030000 		tail	__riscv_restore_12
 2390      67000300 
 2391              		.cfi_restore 27
 2392              		.cfi_restore 26
 2393              		.cfi_restore 25
 2394              		.cfi_restore 24
 2395              		.cfi_restore 23
 2396              		.cfi_restore 22
 2397              		.cfi_restore 21
 2398              		.cfi_restore 20
 2399              		.cfi_restore 19
 2400              		.cfi_restore 18
 2401              		.cfi_restore 9
 2402              		.cfi_restore 8
 2403              		.cfi_restore 1
 2404              		.cfi_def_cfa_offset -64
 2405              	.LVL237:
 2406              	.L42:
 2407              		.cfi_restore_state
 942:C:/Users/stapi/OneDrive/Desktop/GD32VW553/V1_MQTT_OK/GD32VW55X_Wifi_BLE_SDK/GD32VW55x_RELEASE_V1.0.2/MSDK/wpa_supplicant/src/tls\tlsv1_client_write.c **** 	case ACK_FINISHED:
 2408              		.loc 1 942 3 is_stmt 1
 2409              	.LBB221:
 2410              	.LBB218:
 906:C:/Users/stapi/OneDrive/Desktop/GD32VW553/V1_MQTT_OK/GD32VW55X_Wifi_BLE_SDK/GD32VW55x_RELEASE_V1.0.2/MSDK/wpa_supplicant/src/tls\tlsv1_client_write.c **** 
 2411              		.loc 1 906 2
 908:C:/Users/stapi/OneDrive/Desktop/GD32VW553/V1_MQTT_OK/GD32VW55X_Wifi_BLE_SDK/GD32VW55x_RELEASE_V1.0.2/MSDK/wpa_supplicant/src/tls\tlsv1_client_write.c **** 
 2412              		.loc 1 908 2
 908:C:/Users/stapi/OneDrive/Desktop/GD32VW553/V1_MQTT_OK/GD32VW55X_Wifi_BLE_SDK/GD32VW55x_RELEASE_V1.0.2/MSDK/wpa_supplicant/src/tls\tlsv1_client_write.c **** 
 2413              		.loc 1 908 11 is_stmt 0
 2414 06f2 23A00500 		sw	zero,0(a1)
 910:C:/Users/stapi/OneDrive/Desktop/GD32VW553/V1_MQTT_OK/GD32VW55X_Wifi_BLE_SDK/GD32VW55x_RELEASE_V1.0.2/MSDK/wpa_supplicant/src/tls\tlsv1_client_write.c **** 	if (msg == NULL)
 2415              		.loc 1 910 2 is_stmt 1
 910:C:/Users/stapi/OneDrive/Desktop/GD32VW553/V1_MQTT_OK/GD32VW55X_Wifi_BLE_SDK/GD32VW55x_RELEASE_V1.0.2/MSDK/wpa_supplicant/src/tls\tlsv1_client_write.c **** 	if (msg == NULL)
 2416              		.loc 1 910 8 is_stmt 0
 2417 06f6 1305803E 		li	a0,1000
 2418 06fa 97000000 		call	os_malloc
 2418      E7800000 
 2419              	.LVL238:
 2420 0702 AA84     		mv	s1,a0
 2421              	.LVL239:
 911:C:/Users/stapi/OneDrive/Desktop/GD32VW553/V1_MQTT_OK/GD32VW55X_Wifi_BLE_SDK/GD32VW55x_RELEASE_V1.0.2/MSDK/wpa_supplicant/src/tls\tlsv1_client_write.c **** 		return NULL;
 2422              		.loc 1 911 2 is_stmt 1
 911:C:/Users/stapi/OneDrive/Desktop/GD32VW553/V1_MQTT_OK/GD32VW55X_Wifi_BLE_SDK/GD32VW55x_RELEASE_V1.0.2/MSDK/wpa_supplicant/src/tls\tlsv1_client_write.c **** 		return NULL;
 2423              		.loc 1 911 5 is_stmt 0
 2424 0704 6DD1     		beq	a0,zero,.L41
 914:C:/Users/stapi/OneDrive/Desktop/GD32VW553/V1_MQTT_OK/GD32VW55X_Wifi_BLE_SDK/GD32VW55x_RELEASE_V1.0.2/MSDK/wpa_supplicant/src/tls\tlsv1_client_write.c **** 	end = msg + 1000;
 2425              		.loc 1 914 2 is_stmt 1
 915:C:/Users/stapi/OneDrive/Desktop/GD32VW553/V1_MQTT_OK/GD32VW55X_Wifi_BLE_SDK/GD32VW55x_RELEASE_V1.0.2/MSDK/wpa_supplicant/src/tls\tlsv1_client_write.c **** 
 2426              		.loc 1 915 6 is_stmt 0
 2427 0706 1306853E 		addi	a2,a0,1000
 914:C:/Users/stapi/OneDrive/Desktop/GD32VW553/V1_MQTT_OK/GD32VW55X_Wifi_BLE_SDK/GD32VW55x_RELEASE_V1.0.2/MSDK/wpa_supplicant/src/tls\tlsv1_client_write.c **** 	end = msg + 1000;
 2428              		.loc 1 914 6
 2429 070a 2AD6     		sw	a0,44(sp)
 915:C:/Users/stapi/OneDrive/Desktop/GD32VW553/V1_MQTT_OK/GD32VW55X_Wifi_BLE_SDK/GD32VW55x_RELEASE_V1.0.2/MSDK/wpa_supplicant/src/tls\tlsv1_client_write.c **** 
 2430              		.loc 1 915 2 is_stmt 1
 2431              	.LVL240:
 917:C:/Users/stapi/OneDrive/Desktop/GD32VW553/V1_MQTT_OK/GD32VW55X_Wifi_BLE_SDK/GD32VW55x_RELEASE_V1.0.2/MSDK/wpa_supplicant/src/tls\tlsv1_client_write.c **** 	    tls_write_client_finished(conn, &pos, end) < 0) {
 2432              		.loc 1 917 2
 917:C:/Users/stapi/OneDrive/Desktop/GD32VW553/V1_MQTT_OK/GD32VW55X_Wifi_BLE_SDK/GD32VW55x_RELEASE_V1.0.2/MSDK/wpa_supplicant/src/tls\tlsv1_client_write.c **** 	    tls_write_client_finished(conn, &pos, end) < 0) {
 2433              		.loc 1 917 6 is_stmt 0
 2434 070c 6C10     		addi	a1,sp,44
 2435 070e 2285     		mv	a0,s0
 2436 0710 32C6     		sw	a2,12(sp)
 2437 0712 97000000 		call	tls_write_client_change_cipher_spec
 2437      E7800000 
 2438              	.LVL241:
 917:C:/Users/stapi/OneDrive/Desktop/GD32VW553/V1_MQTT_OK/GD32VW55X_Wifi_BLE_SDK/GD32VW55x_RELEASE_V1.0.2/MSDK/wpa_supplicant/src/tls\tlsv1_client_write.c **** 	    tls_write_client_finished(conn, &pos, end) < 0) {
 2439              		.loc 1 917 5
 2440 071a 3246     		lw	a2,12(sp)
 2441 071c E34205B6 		blt	a0,zero,.L98
 918:C:/Users/stapi/OneDrive/Desktop/GD32VW553/V1_MQTT_OK/GD32VW55X_Wifi_BLE_SDK/GD32VW55x_RELEASE_V1.0.2/MSDK/wpa_supplicant/src/tls\tlsv1_client_write.c **** 		os_free(msg);
 2442              		.loc 1 918 6
 2443 0720 6C10     		addi	a1,sp,44
 2444 0722 2285     		mv	a0,s0
 2445 0724 97000000 		call	tls_write_client_finished
 2445      E7800000 
 2446              	.LVL242:
 917:C:/Users/stapi/OneDrive/Desktop/GD32VW553/V1_MQTT_OK/GD32VW55X_Wifi_BLE_SDK/GD32VW55x_RELEASE_V1.0.2/MSDK/wpa_supplicant/src/tls\tlsv1_client_write.c **** 	    tls_write_client_finished(conn, &pos, end) < 0) {
 2447              		.loc 1 917 63
 2448 072c E34A05B4 		blt	a0,zero,.L98
 923:C:/Users/stapi/OneDrive/Desktop/GD32VW553/V1_MQTT_OK/GD32VW55X_Wifi_BLE_SDK/GD32VW55x_RELEASE_V1.0.2/MSDK/wpa_supplicant/src/tls\tlsv1_client_write.c **** 
 2449              		.loc 1 923 2 is_stmt 1
 923:C:/Users/stapi/OneDrive/Desktop/GD32VW553/V1_MQTT_OK/GD32VW55X_Wifi_BLE_SDK/GD32VW55x_RELEASE_V1.0.2/MSDK/wpa_supplicant/src/tls\tlsv1_client_write.c **** 
 2450              		.loc 1 923 17 is_stmt 0
 2451 0730 B257     		lw	a5,44(sp)
 925:C:/Users/stapi/OneDrive/Desktop/GD32VW553/V1_MQTT_OK/GD32VW55X_Wifi_BLE_SDK/GD32VW55x_RELEASE_V1.0.2/MSDK/wpa_supplicant/src/tls\tlsv1_client_write.c **** 		   "successfully");
 2452              		.loc 1 925 2
 2453 0732 B7050000 		lui	a1,%hi(.LC34)
 2454 0736 93850500 		addi	a1,a1,%lo(.LC34)
 923:C:/Users/stapi/OneDrive/Desktop/GD32VW553/V1_MQTT_OK/GD32VW55X_Wifi_BLE_SDK/GD32VW55x_RELEASE_V1.0.2/MSDK/wpa_supplicant/src/tls\tlsv1_client_write.c **** 
 2455              		.loc 1 923 17
 2456 073a 858F     		sub	a5,a5,s1
 923:C:/Users/stapi/OneDrive/Desktop/GD32VW553/V1_MQTT_OK/GD32VW55X_Wifi_BLE_SDK/GD32VW55x_RELEASE_V1.0.2/MSDK/wpa_supplicant/src/tls\tlsv1_client_write.c **** 
 2457              		.loc 1 923 11
 2458 073c 2320FB00 		sw	a5,0(s6)
 925:C:/Users/stapi/OneDrive/Desktop/GD32VW553/V1_MQTT_OK/GD32VW55X_Wifi_BLE_SDK/GD32VW55x_RELEASE_V1.0.2/MSDK/wpa_supplicant/src/tls\tlsv1_client_write.c **** 		   "successfully");
 2459              		.loc 1 925 2 is_stmt 1
 2460 0740 0945     		li	a0,2
 2461 0742 97000000 		call	wpa_printf
 2461      E7800000 
 2462              	.LVL243:
 927:C:/Users/stapi/OneDrive/Desktop/GD32VW553/V1_MQTT_OK/GD32VW55X_Wifi_BLE_SDK/GD32VW55x_RELEASE_V1.0.2/MSDK/wpa_supplicant/src/tls\tlsv1_client_write.c **** 		conn->session_resumed = 1;
 2463              		.loc 1 927 2
 927:C:/Users/stapi/OneDrive/Desktop/GD32VW553/V1_MQTT_OK/GD32VW55X_Wifi_BLE_SDK/GD32VW55x_RELEASE_V1.0.2/MSDK/wpa_supplicant/src/tls\tlsv1_client_write.c **** 		conn->session_resumed = 1;
 2464              		.loc 1 927 29 is_stmt 0
 2465 074a 83278417 		lw	a5,376(s0)
 927:C:/Users/stapi/OneDrive/Desktop/GD32VW553/V1_MQTT_OK/GD32VW55X_Wifi_BLE_SDK/GD32VW55x_RELEASE_V1.0.2/MSDK/wpa_supplicant/src/tls\tlsv1_client_write.c **** 		conn->session_resumed = 1;
 2466              		.loc 1 927 5
 2467 074e 2147     		li	a4,8
 927:C:/Users/stapi/OneDrive/Desktop/GD32VW553/V1_MQTT_OK/GD32VW55X_Wifi_BLE_SDK/GD32VW55x_RELEASE_V1.0.2/MSDK/wpa_supplicant/src/tls\tlsv1_client_write.c **** 		conn->session_resumed = 1;
 2468              		.loc 1 927 29
 2469 0750 A98B     		andi	a5,a5,10
 927:C:/Users/stapi/OneDrive/Desktop/GD32VW553/V1_MQTT_OK/GD32VW55X_Wifi_BLE_SDK/GD32VW55x_RELEASE_V1.0.2/MSDK/wpa_supplicant/src/tls\tlsv1_client_write.c **** 		conn->session_resumed = 1;
 2470              		.loc 1 927 5
 2471 0752 6398E700 		bne	a5,a4,.L99
 928:C:/Users/stapi/OneDrive/Desktop/GD32VW553/V1_MQTT_OK/GD32VW55X_Wifi_BLE_SDK/GD32VW55x_RELEASE_V1.0.2/MSDK/wpa_supplicant/src/tls\tlsv1_client_write.c **** 	conn->state = ESTABLISHED;
 2472              		.loc 1 928 3 is_stmt 1
 928:C:/Users/stapi/OneDrive/Desktop/GD32VW553/V1_MQTT_OK/GD32VW55X_Wifi_BLE_SDK/GD32VW55x_RELEASE_V1.0.2/MSDK/wpa_supplicant/src/tls\tlsv1_client_write.c **** 	conn->state = ESTABLISHED;
 2473              		.loc 1 928 25 is_stmt 0
 2474 0756 83478417 		lbu	a5,376(s0)
 2475 075a 93E72700 		ori	a5,a5,2
 2476 075e 230CF416 		sb	a5,376(s0)
 2477              	.L99:
 929:C:/Users/stapi/OneDrive/Desktop/GD32VW553/V1_MQTT_OK/GD32VW55X_Wifi_BLE_SDK/GD32VW55x_RELEASE_V1.0.2/MSDK/wpa_supplicant/src/tls\tlsv1_client_write.c **** 
 2478              		.loc 1 929 2 is_stmt 1
 929:C:/Users/stapi/OneDrive/Desktop/GD32VW553/V1_MQTT_OK/GD32VW55X_Wifi_BLE_SDK/GD32VW55x_RELEASE_V1.0.2/MSDK/wpa_supplicant/src/tls\tlsv1_client_write.c **** 
 2479              		.loc 1 929 14 is_stmt 0
 2480 0762 AD47     		li	a5,11
 2481 0764 41B7     		j	.L136
 2482              	.LVL244:
 2483              	.L43:
 2484              	.LBE218:
 2485              	.LBE221:
 944:C:/Users/stapi/OneDrive/Desktop/GD32VW553/V1_MQTT_OK/GD32VW55X_Wifi_BLE_SDK/GD32VW55x_RELEASE_V1.0.2/MSDK/wpa_supplicant/src/tls\tlsv1_client_write.c **** 			   "successfully");
 2486              		.loc 1 944 3 is_stmt 1
 2487 0766 B7050000 		lui	a1,%hi(.LC35)
 2488              	.LVL245:
 2489 076a 93850500 		addi	a1,a1,%lo(.LC35)
 2490 076e 0945     		li	a0,2
 2491 0770 97000000 		call	wpa_printf
 2491      E7800000 
 2492              	.LVL246:
 946:C:/Users/stapi/OneDrive/Desktop/GD32VW553/V1_MQTT_OK/GD32VW55X_Wifi_BLE_SDK/GD32VW55x_RELEASE_V1.0.2/MSDK/wpa_supplicant/src/tls\tlsv1_client_write.c **** 		*out_len = 0;
 2493              		.loc 1 946 3
 946:C:/Users/stapi/OneDrive/Desktop/GD32VW553/V1_MQTT_OK/GD32VW55X_Wifi_BLE_SDK/GD32VW55x_RELEASE_V1.0.2/MSDK/wpa_supplicant/src/tls\tlsv1_client_write.c **** 		*out_len = 0;
 2494              		.loc 1 946 15 is_stmt 0
 2495 0778 AD47     		li	a5,11
 2496 077a 1CC0     		sw	a5,0(s0)
 947:C:/Users/stapi/OneDrive/Desktop/GD32VW553/V1_MQTT_OK/GD32VW55X_Wifi_BLE_SDK/GD32VW55x_RELEASE_V1.0.2/MSDK/wpa_supplicant/src/tls\tlsv1_client_write.c **** 		if (no_appl_data) {
 2497              		.loc 1 947 3 is_stmt 1
 947:C:/Users/stapi/OneDrive/Desktop/GD32VW553/V1_MQTT_OK/GD32VW55X_Wifi_BLE_SDK/GD32VW55x_RELEASE_V1.0.2/MSDK/wpa_supplicant/src/tls\tlsv1_client_write.c **** 		if (no_appl_data) {
 2498              		.loc 1 947 12 is_stmt 0
 2499 077c 23200B00 		sw	zero,0(s6)
 948:C:/Users/stapi/OneDrive/Desktop/GD32VW553/V1_MQTT_OK/GD32VW55X_Wifi_BLE_SDK/GD32VW55x_RELEASE_V1.0.2/MSDK/wpa_supplicant/src/tls\tlsv1_client_write.c **** 			/* Need to return something to get final TLS ACK. */
 2500              		.loc 1 948 3 is_stmt 1
 952:C:/Users/stapi/OneDrive/Desktop/GD32VW553/V1_MQTT_OK/GD32VW55X_Wifi_BLE_SDK/GD32VW55x_RELEASE_V1.0.2/MSDK/wpa_supplicant/src/tls\tlsv1_client_write.c **** 	default:
 2501              		.loc 1 952 10 is_stmt 0
 2502 0780 8144     		li	s1,0
 948:C:/Users/stapi/OneDrive/Desktop/GD32VW553/V1_MQTT_OK/GD32VW55X_Wifi_BLE_SDK/GD32VW55x_RELEASE_V1.0.2/MSDK/wpa_supplicant/src/tls\tlsv1_client_write.c **** 			/* Need to return something to get final TLS ACK. */
 2503              		.loc 1 948 6
 2504 0782 E30209F6 		beq	s2,zero,.L41
 950:C:/Users/stapi/OneDrive/Desktop/GD32VW553/V1_MQTT_OK/GD32VW55X_Wifi_BLE_SDK/GD32VW55x_RELEASE_V1.0.2/MSDK/wpa_supplicant/src/tls\tlsv1_client_write.c **** 		}
 2505              		.loc 1 950 4 is_stmt 1
 950:C:/Users/stapi/OneDrive/Desktop/GD32VW553/V1_MQTT_OK/GD32VW55X_Wifi_BLE_SDK/GD32VW55x_RELEASE_V1.0.2/MSDK/wpa_supplicant/src/tls\tlsv1_client_write.c **** 		}
 2506              		.loc 1 950 11 is_stmt 0
 2507 0786 0545     		li	a0,1
 2508 0788 97000000 		call	os_malloc
 2508      E7800000 
 2509              	.LVL247:
 2510 0790 AA84     		mv	s1,a0
 2511 0792 91BF     		j	.L41
 2512              	.LVL248:
 2513              	.L44:
 954:C:/Users/stapi/OneDrive/Desktop/GD32VW553/V1_MQTT_OK/GD32VW55X_Wifi_BLE_SDK/GD32VW55x_RELEASE_V1.0.2/MSDK/wpa_supplicant/src/tls\tlsv1_client_write.c **** 			   "generating reply", conn->state);
 2514              		.loc 1 954 3 is_stmt 1
 2515 0794 B7050000 		lui	a1,%hi(.LC36)
 2516              	.LVL249:
 2517 0798 93850500 		addi	a1,a1,%lo(.LC36)
 2518 079c 0945     		li	a0,2
 2519 079e 97000000 		call	wpa_printf
 2519      E7800000 
 2520              	.LVL250:
 2521 07a6 D5B4     		j	.L135
 2522              		.cfi_endproc
 2523              	.LFE97:
 2525              		.section	.rodata.tlsv1_client_send_alert.str1.4,"aMS",@progbits,1
 2526              		.align	2
 2527              	.LC37:
 2528 0000 544C5376 		.string	"TLSv1: Send Alert(%d:%d)"
 2528      313A2053 
 2528      656E6420 
 2528      416C6572 
 2528      74282564 
 2529              		.section	.text.tlsv1_client_send_alert,"ax",@progbits
 2530              		.align	1
 2531              		.globl	tlsv1_client_send_alert
 2533              	tlsv1_client_send_alert:
 2534              	.LFB98:
 959:C:/Users/stapi/OneDrive/Desktop/GD32VW553/V1_MQTT_OK/GD32VW55X_Wifi_BLE_SDK/GD32VW55x_RELEASE_V1.0.2/MSDK/wpa_supplicant/src/tls\tlsv1_client_write.c **** 
 960:C:/Users/stapi/OneDrive/Desktop/GD32VW553/V1_MQTT_OK/GD32VW55X_Wifi_BLE_SDK/GD32VW55x_RELEASE_V1.0.2/MSDK/wpa_supplicant/src/tls\tlsv1_client_write.c **** 
 961:C:/Users/stapi/OneDrive/Desktop/GD32VW553/V1_MQTT_OK/GD32VW55X_Wifi_BLE_SDK/GD32VW55x_RELEASE_V1.0.2/MSDK/wpa_supplicant/src/tls\tlsv1_client_write.c **** u8 * tlsv1_client_send_alert(struct tlsv1_client *conn, u8 level,
 962:C:/Users/stapi/OneDrive/Desktop/GD32VW553/V1_MQTT_OK/GD32VW55X_Wifi_BLE_SDK/GD32VW55x_RELEASE_V1.0.2/MSDK/wpa_supplicant/src/tls\tlsv1_client_write.c **** 			     u8 description, size_t *out_len)
 963:C:/Users/stapi/OneDrive/Desktop/GD32VW553/V1_MQTT_OK/GD32VW55X_Wifi_BLE_SDK/GD32VW55x_RELEASE_V1.0.2/MSDK/wpa_supplicant/src/tls\tlsv1_client_write.c **** {
 2535              		.loc 1 963 1
 2536              		.cfi_startproc
 2537              	.LVL251:
 2538 0000 17030000 		call	t0,__riscv_save_4
 2538      E7020300 
 2539              		.cfi_offset 19, -20
 2540              		.cfi_offset 18, -16
 2541              		.cfi_offset 9, -12
 2542              		.cfi_offset 8, -8
 2543              		.cfi_offset 1, -4
 2544              		.cfi_def_cfa_offset 32
 964:C:/Users/stapi/OneDrive/Desktop/GD32VW553/V1_MQTT_OK/GD32VW55X_Wifi_BLE_SDK/GD32VW55x_RELEASE_V1.0.2/MSDK/wpa_supplicant/src/tls\tlsv1_client_write.c **** 	u8 *alert, *pos, *length;
 2545              		.loc 1 964 2
 965:C:/Users/stapi/OneDrive/Desktop/GD32VW553/V1_MQTT_OK/GD32VW55X_Wifi_BLE_SDK/GD32VW55x_RELEASE_V1.0.2/MSDK/wpa_supplicant/src/tls\tlsv1_client_write.c **** 
 966:C:/Users/stapi/OneDrive/Desktop/GD32VW553/V1_MQTT_OK/GD32VW55X_Wifi_BLE_SDK/GD32VW55x_RELEASE_V1.0.2/MSDK/wpa_supplicant/src/tls\tlsv1_client_write.c **** 	wpa_printf(MSG_DEBUG, "TLSv1: Send Alert(%d:%d)", level, description);
 2546              		.loc 1 966 2
 963:C:/Users/stapi/OneDrive/Desktop/GD32VW553/V1_MQTT_OK/GD32VW55X_Wifi_BLE_SDK/GD32VW55x_RELEASE_V1.0.2/MSDK/wpa_supplicant/src/tls\tlsv1_client_write.c **** 	u8 *alert, *pos, *length;
 2547              		.loc 1 963 1 is_stmt 0
 2548 0008 3684     		mv	s0,a3
 2549 000a 2E89     		mv	s2,a1
 2550              		.loc 1 966 2
 2551 000c B286     		mv	a3,a2
 2552              	.LVL252:
 963:C:/Users/stapi/OneDrive/Desktop/GD32VW553/V1_MQTT_OK/GD32VW55X_Wifi_BLE_SDK/GD32VW55x_RELEASE_V1.0.2/MSDK/wpa_supplicant/src/tls\tlsv1_client_write.c **** 	u8 *alert, *pos, *length;
 2553              		.loc 1 963 1
 2554 000e B284     		mv	s1,a2
 2555              		.loc 1 966 2
 2556 0010 2E86     		mv	a2,a1
 2557              	.LVL253:
 2558 0012 B7050000 		lui	a1,%hi(.LC37)
 2559              	.LVL254:
 963:C:/Users/stapi/OneDrive/Desktop/GD32VW553/V1_MQTT_OK/GD32VW55X_Wifi_BLE_SDK/GD32VW55x_RELEASE_V1.0.2/MSDK/wpa_supplicant/src/tls\tlsv1_client_write.c **** 	u8 *alert, *pos, *length;
 2560              		.loc 1 963 1
 2561 0016 AA89     		mv	s3,a0
 2562              		.loc 1 966 2
 2563 0018 93850500 		addi	a1,a1,%lo(.LC37)
 2564 001c 0945     		li	a0,2
 2565              	.LVL255:
 2566 001e 97000000 		call	wpa_printf
 2566      E7800000 
 2567              	.LVL256:
 967:C:/Users/stapi/OneDrive/Desktop/GD32VW553/V1_MQTT_OK/GD32VW55X_Wifi_BLE_SDK/GD32VW55x_RELEASE_V1.0.2/MSDK/wpa_supplicant/src/tls\tlsv1_client_write.c **** 	*out_len = 0;
 2568              		.loc 1 967 2 is_stmt 1
 968:C:/Users/stapi/OneDrive/Desktop/GD32VW553/V1_MQTT_OK/GD32VW55X_Wifi_BLE_SDK/GD32VW55x_RELEASE_V1.0.2/MSDK/wpa_supplicant/src/tls\tlsv1_client_write.c **** 
 969:C:/Users/stapi/OneDrive/Desktop/GD32VW553/V1_MQTT_OK/GD32VW55X_Wifi_BLE_SDK/GD32VW55x_RELEASE_V1.0.2/MSDK/wpa_supplicant/src/tls\tlsv1_client_write.c **** 	alert = os_malloc(10);
 2569              		.loc 1 969 10 is_stmt 0
 2570 0026 2945     		li	a0,10
 967:C:/Users/stapi/OneDrive/Desktop/GD32VW553/V1_MQTT_OK/GD32VW55X_Wifi_BLE_SDK/GD32VW55x_RELEASE_V1.0.2/MSDK/wpa_supplicant/src/tls\tlsv1_client_write.c **** 	*out_len = 0;
 2571              		.loc 1 967 11
 2572 0028 23200400 		sw	zero,0(s0)
 2573              		.loc 1 969 2 is_stmt 1
 2574              		.loc 1 969 10 is_stmt 0
 2575 002c 97000000 		call	os_malloc
 2575      E7800000 
 2576              	.LVL257:
 970:C:/Users/stapi/OneDrive/Desktop/GD32VW553/V1_MQTT_OK/GD32VW55X_Wifi_BLE_SDK/GD32VW55x_RELEASE_V1.0.2/MSDK/wpa_supplicant/src/tls\tlsv1_client_write.c **** 	if (alert == NULL)
 2577              		.loc 1 970 2 is_stmt 1
 2578              		.loc 1 970 5 is_stmt 0
 2579 0034 15C9     		beq	a0,zero,.L140
 971:C:/Users/stapi/OneDrive/Desktop/GD32VW553/V1_MQTT_OK/GD32VW55X_Wifi_BLE_SDK/GD32VW55x_RELEASE_V1.0.2/MSDK/wpa_supplicant/src/tls\tlsv1_client_write.c **** 		return NULL;
 972:C:/Users/stapi/OneDrive/Desktop/GD32VW553/V1_MQTT_OK/GD32VW55X_Wifi_BLE_SDK/GD32VW55x_RELEASE_V1.0.2/MSDK/wpa_supplicant/src/tls\tlsv1_client_write.c **** 
 973:C:/Users/stapi/OneDrive/Desktop/GD32VW553/V1_MQTT_OK/GD32VW55X_Wifi_BLE_SDK/GD32VW55x_RELEASE_V1.0.2/MSDK/wpa_supplicant/src/tls\tlsv1_client_write.c **** 	pos = alert;
 2580              		.loc 1 973 2 is_stmt 1
 2581              	.LVL258:
 974:C:/Users/stapi/OneDrive/Desktop/GD32VW553/V1_MQTT_OK/GD32VW55X_Wifi_BLE_SDK/GD32VW55x_RELEASE_V1.0.2/MSDK/wpa_supplicant/src/tls\tlsv1_client_write.c **** 
 975:C:/Users/stapi/OneDrive/Desktop/GD32VW553/V1_MQTT_OK/GD32VW55X_Wifi_BLE_SDK/GD32VW55x_RELEASE_V1.0.2/MSDK/wpa_supplicant/src/tls\tlsv1_client_write.c **** 	/* TLSPlaintext */
 976:C:/Users/stapi/OneDrive/Desktop/GD32VW553/V1_MQTT_OK/GD32VW55X_Wifi_BLE_SDK/GD32VW55x_RELEASE_V1.0.2/MSDK/wpa_supplicant/src/tls\tlsv1_client_write.c **** 	/* ContentType type */
 977:C:/Users/stapi/OneDrive/Desktop/GD32VW553/V1_MQTT_OK/GD32VW55X_Wifi_BLE_SDK/GD32VW55x_RELEASE_V1.0.2/MSDK/wpa_supplicant/src/tls\tlsv1_client_write.c **** 	*pos++ = TLS_CONTENT_TYPE_ALERT;
 2582              		.loc 1 977 2
 2583              		.loc 1 977 9 is_stmt 0
 2584 0036 D547     		li	a5,21
 2585 0038 2300F500 		sb	a5,0(a0)
 978:C:/Users/stapi/OneDrive/Desktop/GD32VW553/V1_MQTT_OK/GD32VW55X_Wifi_BLE_SDK/GD32VW55x_RELEASE_V1.0.2/MSDK/wpa_supplicant/src/tls\tlsv1_client_write.c **** 	/* ProtocolVersion version */
 979:C:/Users/stapi/OneDrive/Desktop/GD32VW553/V1_MQTT_OK/GD32VW55X_Wifi_BLE_SDK/GD32VW55x_RELEASE_V1.0.2/MSDK/wpa_supplicant/src/tls\tlsv1_client_write.c **** 	WPA_PUT_BE16(pos, conn->rl.tls_version ? conn->rl.tls_version :
 2586              		.loc 1 979 2 is_stmt 1
 2587              		.loc 1 979 28 is_stmt 0
 2588 003c 83D74900 		lhu	a5,4(s3)
 2589              		.loc 1 979 2
 2590 0040 99E3     		bne	a5,zero,.L142
 2591 0042 93071030 		li	a5,769
 2592              	.L142:
 2593              	.LVL259:
 2594              	.LBB222:
 2595              	.LBB223:
 247:..\..\..\..\wpa_supplicant\src\utils/common.h **** 	a[1] = val & 0xff;
 2596              		.loc 2 247 2 is_stmt 1 discriminator 4
 247:..\..\..\..\wpa_supplicant\src\utils/common.h **** 	a[1] = val & 0xff;
 2597              		.loc 2 247 7 is_stmt 0 discriminator 4
 2598 0046 13D78700 		srli	a4,a5,8
 248:..\..\..\..\wpa_supplicant\src\utils/common.h **** }
 2599              		.loc 2 248 7 discriminator 4
 2600 004a 2301F500 		sb	a5,2(a0)
 2601              	.LBE223:
 2602              	.LBE222:
 2603              	.LBB225:
 2604              	.LBB226:
 2605 004e 8947     		li	a5,2
 2606              	.LVL260:
 2607 0050 2302F500 		sb	a5,4(a0)
 2608              	.LBE226:
 2609              	.LBE225:
 2610              	.LBB228:
 2611              	.LBB224:
 247:..\..\..\..\wpa_supplicant\src\utils/common.h **** 	a[1] = val & 0xff;
 2612              		.loc 2 247 7 discriminator 4
 2613 0054 A300E500 		sb	a4,1(a0)
 248:..\..\..\..\wpa_supplicant\src\utils/common.h **** }
 2614              		.loc 2 248 2 is_stmt 1 discriminator 4
 2615              	.LVL261:
 2616              	.LBE224:
 2617              	.LBE228:
 980:C:/Users/stapi/OneDrive/Desktop/GD32VW553/V1_MQTT_OK/GD32VW55X_Wifi_BLE_SDK/GD32VW55x_RELEASE_V1.0.2/MSDK/wpa_supplicant/src/tls\tlsv1_client_write.c **** 		     TLS_VERSION);
 981:C:/Users/stapi/OneDrive/Desktop/GD32VW553/V1_MQTT_OK/GD32VW55X_Wifi_BLE_SDK/GD32VW55x_RELEASE_V1.0.2/MSDK/wpa_supplicant/src/tls\tlsv1_client_write.c **** 	pos += 2;
 2618              		.loc 1 981 2 discriminator 4
 982:C:/Users/stapi/OneDrive/Desktop/GD32VW553/V1_MQTT_OK/GD32VW55X_Wifi_BLE_SDK/GD32VW55x_RELEASE_V1.0.2/MSDK/wpa_supplicant/src/tls\tlsv1_client_write.c **** 	/* uint16 length (to be filled) */
 983:C:/Users/stapi/OneDrive/Desktop/GD32VW553/V1_MQTT_OK/GD32VW55X_Wifi_BLE_SDK/GD32VW55x_RELEASE_V1.0.2/MSDK/wpa_supplicant/src/tls\tlsv1_client_write.c **** 	length = pos;
 2619              		.loc 1 983 2 discriminator 4
 984:C:/Users/stapi/OneDrive/Desktop/GD32VW553/V1_MQTT_OK/GD32VW55X_Wifi_BLE_SDK/GD32VW55x_RELEASE_V1.0.2/MSDK/wpa_supplicant/src/tls\tlsv1_client_write.c **** 	pos += 2;
 2620              		.loc 1 984 2 discriminator 4
 985:C:/Users/stapi/OneDrive/Desktop/GD32VW553/V1_MQTT_OK/GD32VW55X_Wifi_BLE_SDK/GD32VW55x_RELEASE_V1.0.2/MSDK/wpa_supplicant/src/tls\tlsv1_client_write.c **** 	/* opaque fragment[TLSPlaintext.length] */
 986:C:/Users/stapi/OneDrive/Desktop/GD32VW553/V1_MQTT_OK/GD32VW55X_Wifi_BLE_SDK/GD32VW55x_RELEASE_V1.0.2/MSDK/wpa_supplicant/src/tls\tlsv1_client_write.c **** 
 987:C:/Users/stapi/OneDrive/Desktop/GD32VW553/V1_MQTT_OK/GD32VW55X_Wifi_BLE_SDK/GD32VW55x_RELEASE_V1.0.2/MSDK/wpa_supplicant/src/tls\tlsv1_client_write.c **** 	/* Alert */
 988:C:/Users/stapi/OneDrive/Desktop/GD32VW553/V1_MQTT_OK/GD32VW55X_Wifi_BLE_SDK/GD32VW55x_RELEASE_V1.0.2/MSDK/wpa_supplicant/src/tls\tlsv1_client_write.c **** 	/* AlertLevel level */
 989:C:/Users/stapi/OneDrive/Desktop/GD32VW553/V1_MQTT_OK/GD32VW55X_Wifi_BLE_SDK/GD32VW55x_RELEASE_V1.0.2/MSDK/wpa_supplicant/src/tls\tlsv1_client_write.c **** 	*pos++ = level;
 2621              		.loc 1 989 2 discriminator 4
 2622              		.loc 1 989 9 is_stmt 0 discriminator 4
 2623 0058 A3022501 		sb	s2,5(a0)
 990:C:/Users/stapi/OneDrive/Desktop/GD32VW553/V1_MQTT_OK/GD32VW55X_Wifi_BLE_SDK/GD32VW55x_RELEASE_V1.0.2/MSDK/wpa_supplicant/src/tls\tlsv1_client_write.c **** 	/* AlertDescription description */
 991:C:/Users/stapi/OneDrive/Desktop/GD32VW553/V1_MQTT_OK/GD32VW55X_Wifi_BLE_SDK/GD32VW55x_RELEASE_V1.0.2/MSDK/wpa_supplicant/src/tls\tlsv1_client_write.c **** 	*pos++ = description;
 2624              		.loc 1 991 2 is_stmt 1 discriminator 4
 2625              	.LVL262:
 2626              		.loc 1 991 9 is_stmt 0 discriminator 4
 2627 005c 23039500 		sb	s1,6(a0)
 992:C:/Users/stapi/OneDrive/Desktop/GD32VW553/V1_MQTT_OK/GD32VW55X_Wifi_BLE_SDK/GD32VW55x_RELEASE_V1.0.2/MSDK/wpa_supplicant/src/tls\tlsv1_client_write.c **** 
 993:C:/Users/stapi/OneDrive/Desktop/GD32VW553/V1_MQTT_OK/GD32VW55X_Wifi_BLE_SDK/GD32VW55x_RELEASE_V1.0.2/MSDK/wpa_supplicant/src/tls\tlsv1_client_write.c **** 	WPA_PUT_BE16(length, pos - length - 2);
 2628              		.loc 1 993 2 is_stmt 1 discriminator 4
 2629              	.LVL263:
 2630              	.LBB229:
 2631              	.LBB227:
 247:..\..\..\..\wpa_supplicant\src\utils/common.h **** 	a[1] = val & 0xff;
 2632              		.loc 2 247 2 discriminator 4
 247:..\..\..\..\wpa_supplicant\src\utils/common.h **** 	a[1] = val & 0xff;
 2633              		.loc 2 247 7 is_stmt 0 discriminator 4
 2634 0060 A3010500 		sb	zero,3(a0)
 248:..\..\..\..\wpa_supplicant\src\utils/common.h **** }
 2635              		.loc 2 248 2 is_stmt 1 discriminator 4
 2636              	.LVL264:
 2637              	.LBE227:
 2638              	.LBE229:
 994:C:/Users/stapi/OneDrive/Desktop/GD32VW553/V1_MQTT_OK/GD32VW55X_Wifi_BLE_SDK/GD32VW55x_RELEASE_V1.0.2/MSDK/wpa_supplicant/src/tls\tlsv1_client_write.c **** 	*out_len = pos - alert;
 2639              		.loc 1 994 2 discriminator 4
 2640              		.loc 1 994 17 is_stmt 0 discriminator 4
 2641 0064 9D47     		li	a5,7
 2642              		.loc 1 994 11 discriminator 4
 2643 0066 1CC0     		sw	a5,0(s0)
 995:C:/Users/stapi/OneDrive/Desktop/GD32VW553/V1_MQTT_OK/GD32VW55X_Wifi_BLE_SDK/GD32VW55x_RELEASE_V1.0.2/MSDK/wpa_supplicant/src/tls\tlsv1_client_write.c **** 
 996:C:/Users/stapi/OneDrive/Desktop/GD32VW553/V1_MQTT_OK/GD32VW55X_Wifi_BLE_SDK/GD32VW55x_RELEASE_V1.0.2/MSDK/wpa_supplicant/src/tls\tlsv1_client_write.c **** 	return alert;
 2644              		.loc 1 996 2 is_stmt 1 discriminator 4
 2645              	.LVL265:
 2646              	.L140:
 997:C:/Users/stapi/OneDrive/Desktop/GD32VW553/V1_MQTT_OK/GD32VW55X_Wifi_BLE_SDK/GD32VW55x_RELEASE_V1.0.2/MSDK/wpa_supplicant/src/tls\tlsv1_client_write.c **** }
 2647              		.loc 1 997 1 is_stmt 0
 2648 0068 17030000 		tail	__riscv_restore_4
 2648      67000300 
 2649              		.cfi_restore 19
 2650              		.cfi_restore 18
 2651              		.cfi_restore 9
 2652              		.cfi_restore 8
 2653              		.cfi_restore 1
 2654              		.cfi_def_cfa_offset 0
 2655              		.cfi_endproc
 2656              	.LFE98:
 2658              		.text
 2659              	.Letext0:
 2660              		.file 3 "c:\\users\\stapi\\onedrive\\desktop\\gd32vw553\\embeddedbuilder_v1.4.7.26843\\tools\\nucl
 2661              		.file 4 "c:\\users\\stapi\\onedrive\\desktop\\gd32vw553\\embeddedbuilder_v1.4.7.26843\\tools\\nucl
 2662              		.file 5 "c:\\users\\stapi\\onedrive\\desktop\\gd32vw553\\embeddedbuilder_v1.4.7.26843\\tools\\nucl
 2663              		.file 6 "..\\..\\..\\..\\wpa_supplicant\\src\\utils/os.h"
 2664              		.file 7 "..\\..\\..\\..\\wpa_supplicant\\src\\utils/wpabuf.h"
 2665              		.file 8 "..\\..\\..\\..\\wpa_supplicant\\src/crypto/tls.h"
 2666              		.file 9 "C:/Users/stapi/OneDrive/Desktop/GD32VW553/V1_MQTT_OK/GD32VW55X_Wifi_BLE_SDK/GD32VW55x_REL
 2667              		.file 10 "C:/Users/stapi/OneDrive/Desktop/GD32VW553/V1_MQTT_OK/GD32VW55X_Wifi_BLE_SDK/GD32VW55x_RE
 2668              		.file 11 "..\\..\\..\\..\\wpa_supplicant\\src\\utils/wpa_debug.h"
 2669              		.file 12 "..\\..\\..\\..\\wpa_supplicant\\src/crypto/crypto.h"
 2670              		.file 13 "C:/Users/stapi/OneDrive/Desktop/GD32VW553/V1_MQTT_OK/GD32VW55X_Wifi_BLE_SDK/GD32VW55x_RE
 2671              		.file 14 "C:/Users/stapi/OneDrive/Desktop/GD32VW553/V1_MQTT_OK/GD32VW55X_Wifi_BLE_SDK/GD32VW55x_RE
 2672              		.file 15 "C:/Users/stapi/OneDrive/Desktop/GD32VW553/V1_MQTT_OK/GD32VW55X_Wifi_BLE_SDK/GD32VW55x_RE
 2673              		.file 16 "C:/Users/stapi/OneDrive/Desktop/GD32VW553/V1_MQTT_OK/GD32VW55X_Wifi_BLE_SDK/GD32VW55x_RE
 2674              		.file 17 "C:/Users/stapi/OneDrive/Desktop/GD32VW553/V1_MQTT_OK/GD32VW55X_Wifi_BLE_SDK/GD32VW55x_RE
DEFINED SYMBOLS
                            *ABS*:0000000000000000 tlsv1_client_write.c
C:\Users\stapi\AppData\Local\Temp\ccMlfTJJ.s:22     .text.tls_write_client_change_cipher_spec:0000000000000000 tls_write_client_change_cipher_spec
C:\Users\stapi\AppData\Local\Temp\ccMlfTJJ.s:26     .text.tls_write_client_change_cipher_spec:0000000000000000 .L0 
C:\Users\stapi\AppData\Local\Temp\ccMlfTJJ.s:28     .text.tls_write_client_change_cipher_spec:0000000000000000 .L0 
C:\Users\stapi\AppData\Local\Temp\ccMlfTJJ.s:29     .text.tls_write_client_change_cipher_spec:0000000000000008 .L0 
C:\Users\stapi\AppData\Local\Temp\ccMlfTJJ.s:30     .text.tls_write_client_change_cipher_spec:0000000000000008 .L0 
C:\Users\stapi\AppData\Local\Temp\ccMlfTJJ.s:31     .text.tls_write_client_change_cipher_spec:0000000000000008 .L0 
C:\Users\stapi\AppData\Local\Temp\ccMlfTJJ.s:32     .text.tls_write_client_change_cipher_spec:0000000000000008 .L0 
C:\Users\stapi\AppData\Local\Temp\ccMlfTJJ.s:33     .text.tls_write_client_change_cipher_spec:0000000000000008 .L0 
C:\Users\stapi\AppData\Local\Temp\ccMlfTJJ.s:34     .text.tls_write_client_change_cipher_spec:0000000000000008 .L0 
C:\Users\stapi\AppData\Local\Temp\ccMlfTJJ.s:36     .text.tls_write_client_change_cipher_spec:0000000000000008 .L0 
C:\Users\stapi\AppData\Local\Temp\ccMlfTJJ.s:37     .text.tls_write_client_change_cipher_spec:0000000000000008 .L0 
C:\Users\stapi\AppData\Local\Temp\ccMlfTJJ.s:38     .text.tls_write_client_change_cipher_spec:0000000000000008 .L0 
C:\Users\stapi\AppData\Local\Temp\ccMlfTJJ.s:39     .text.tls_write_client_change_cipher_spec:0000000000000008 .L0 
C:\Users\stapi\AppData\Local\Temp\ccMlfTJJ.s:41     .text.tls_write_client_change_cipher_spec:000000000000000a .L0 
C:\Users\stapi\AppData\Local\Temp\ccMlfTJJ.s:44     .text.tls_write_client_change_cipher_spec:000000000000000e .L0 
C:\Users\stapi\AppData\Local\Temp\ccMlfTJJ.s:45     .text.tls_write_client_change_cipher_spec:0000000000000010 .L0 
C:\Users\stapi\AppData\Local\Temp\ccMlfTJJ.s:47     .text.tls_write_client_change_cipher_spec:0000000000000010 .L0 
C:\Users\stapi\AppData\Local\Temp\ccMlfTJJ.s:49     .text.tls_write_client_change_cipher_spec:0000000000000012 .L0 
C:\Users\stapi\AppData\Local\Temp\ccMlfTJJ.s:53     .text.tls_write_client_change_cipher_spec:0000000000000018 .L0 
C:\Users\stapi\AppData\Local\Temp\ccMlfTJJ.s:55     .text.tls_write_client_change_cipher_spec:000000000000001a .L0 
C:\Users\stapi\AppData\Local\Temp\ccMlfTJJ.s:58     .text.tls_write_client_change_cipher_spec:0000000000000022 .L0 
C:\Users\stapi\AppData\Local\Temp\ccMlfTJJ.s:59     .text.tls_write_client_change_cipher_spec:0000000000000022 .L0 
C:\Users\stapi\AppData\Local\Temp\ccMlfTJJ.s:62     .text.tls_write_client_change_cipher_spec:0000000000000028 .L0 
C:\Users\stapi\AppData\Local\Temp\ccMlfTJJ.s:64     .text.tls_write_client_change_cipher_spec:000000000000002a .L0 
C:\Users\stapi\AppData\Local\Temp\ccMlfTJJ.s:70     .text.tls_write_client_change_cipher_spec:0000000000000038 .L0 
C:\Users\stapi\AppData\Local\Temp\ccMlfTJJ.s:72     .text.tls_write_client_change_cipher_spec:000000000000003c .L0 
C:\Users\stapi\AppData\Local\Temp\ccMlfTJJ.s:73     .text.tls_write_client_change_cipher_spec:000000000000003c .L0 
C:\Users\stapi\AppData\Local\Temp\ccMlfTJJ.s:76     .text.tls_write_client_change_cipher_spec:0000000000000044 .L0 
C:\Users\stapi\AppData\Local\Temp\ccMlfTJJ.s:78     .text.tls_write_client_change_cipher_spec:0000000000000048 .L0 
C:\Users\stapi\AppData\Local\Temp\ccMlfTJJ.s:82     .text.tls_write_client_change_cipher_spec:0000000000000050 .L0 
C:\Users\stapi\AppData\Local\Temp\ccMlfTJJ.s:86     .text.tls_write_client_change_cipher_spec:000000000000005a .L0 
C:\Users\stapi\AppData\Local\Temp\ccMlfTJJ.s:92     .text.tls_write_client_change_cipher_spec:000000000000006a .L0 
C:\Users\stapi\AppData\Local\Temp\ccMlfTJJ.s:93     .text.tls_write_client_change_cipher_spec:000000000000006a .L0 
C:\Users\stapi\AppData\Local\Temp\ccMlfTJJ.s:96     .text.tls_write_client_change_cipher_spec:000000000000006c .L0 
C:\Users\stapi\AppData\Local\Temp\ccMlfTJJ.s:97     .text.tls_write_client_change_cipher_spec:000000000000006e .L0 
C:\Users\stapi\AppData\Local\Temp\ccMlfTJJ.s:98     .text.tls_write_client_change_cipher_spec:000000000000006e .L0 
C:\Users\stapi\AppData\Local\Temp\ccMlfTJJ.s:100    .text.tls_write_client_change_cipher_spec:0000000000000076 .L0 
C:\Users\stapi\AppData\Local\Temp\ccMlfTJJ.s:101    .text.tls_write_client_change_cipher_spec:0000000000000076 .L0 
C:\Users\stapi\AppData\Local\Temp\ccMlfTJJ.s:102    .text.tls_write_client_change_cipher_spec:0000000000000076 .L0 
C:\Users\stapi\AppData\Local\Temp\ccMlfTJJ.s:103    .text.tls_write_client_change_cipher_spec:0000000000000076 .L0 
C:\Users\stapi\AppData\Local\Temp\ccMlfTJJ.s:104    .text.tls_write_client_change_cipher_spec:0000000000000076 .L0 
C:\Users\stapi\AppData\Local\Temp\ccMlfTJJ.s:105    .text.tls_write_client_change_cipher_spec:0000000000000076 .L0 
C:\Users\stapi\AppData\Local\Temp\ccMlfTJJ.s:107    .text.tls_write_client_change_cipher_spec:0000000000000076 .L0 
C:\Users\stapi\AppData\Local\Temp\ccMlfTJJ.s:109    .text.tls_write_client_change_cipher_spec:0000000000000076 .L0 
C:\Users\stapi\AppData\Local\Temp\ccMlfTJJ.s:110    .text.tls_write_client_change_cipher_spec:0000000000000076 .L0 
C:\Users\stapi\AppData\Local\Temp\ccMlfTJJ.s:114    .text.tls_write_client_change_cipher_spec:0000000000000080 .L0 
C:\Users\stapi\AppData\Local\Temp\ccMlfTJJ.s:116    .text.tls_write_client_change_cipher_spec:0000000000000084 .L0 
C:\Users\stapi\AppData\Local\Temp\ccMlfTJJ.s:121    .text.tls_write_client_change_cipher_spec:000000000000008e .L0 
C:\Users\stapi\AppData\Local\Temp\ccMlfTJJ.s:122    .text.tls_write_client_change_cipher_spec:000000000000008e .L0 
C:\Users\stapi\AppData\Local\Temp\ccMlfTJJ.s:125    .text.tls_write_client_change_cipher_spec:0000000000000092 .L0 
C:\Users\stapi\AppData\Local\Temp\ccMlfTJJ.s:127    .text.tls_write_client_change_cipher_spec:0000000000000094 .L0 
C:\Users\stapi\AppData\Local\Temp\ccMlfTJJ.s:130    .text.tls_write_client_change_cipher_spec:0000000000000098 .L0 
C:\Users\stapi\AppData\Local\Temp\ccMlfTJJ.s:131    .text.tls_write_client_change_cipher_spec:0000000000000098 .L0 
C:\Users\stapi\AppData\Local\Temp\ccMlfTJJ.s:132    .text.tls_write_client_change_cipher_spec:000000000000009a .L0 
C:\Users\stapi\AppData\Local\Temp\ccMlfTJJ.s:151    .text.tls_write_client_finished:0000000000000000 tls_write_client_finished
C:\Users\stapi\AppData\Local\Temp\ccMlfTJJ.s:154    .text.tls_write_client_finished:0000000000000000 .L0 
C:\Users\stapi\AppData\Local\Temp\ccMlfTJJ.s:156    .text.tls_write_client_finished:0000000000000000 .L0 
C:\Users\stapi\AppData\Local\Temp\ccMlfTJJ.s:157    .text.tls_write_client_finished:0000000000000008 .L0 
C:\Users\stapi\AppData\Local\Temp\ccMlfTJJ.s:158    .text.tls_write_client_finished:0000000000000008 .L0 
C:\Users\stapi\AppData\Local\Temp\ccMlfTJJ.s:159    .text.tls_write_client_finished:0000000000000008 .L0 
C:\Users\stapi\AppData\Local\Temp\ccMlfTJJ.s:160    .text.tls_write_client_finished:0000000000000008 .L0 
C:\Users\stapi\AppData\Local\Temp\ccMlfTJJ.s:161    .text.tls_write_client_finished:0000000000000008 .L0 
C:\Users\stapi\AppData\Local\Temp\ccMlfTJJ.s:162    .text.tls_write_client_finished:0000000000000008 .L0 
C:\Users\stapi\AppData\Local\Temp\ccMlfTJJ.s:164    .text.tls_write_client_finished:0000000000000008 .L0 
C:\Users\stapi\AppData\Local\Temp\ccMlfTJJ.s:165    .text.tls_write_client_finished:0000000000000008 .L0 
C:\Users\stapi\AppData\Local\Temp\ccMlfTJJ.s:166    .text.tls_write_client_finished:0000000000000008 .L0 
C:\Users\stapi\AppData\Local\Temp\ccMlfTJJ.s:167    .text.tls_write_client_finished:0000000000000008 .L0 
C:\Users\stapi\AppData\Local\Temp\ccMlfTJJ.s:168    .text.tls_write_client_finished:0000000000000008 .L0 
C:\Users\stapi\AppData\Local\Temp\ccMlfTJJ.s:169    .text.tls_write_client_finished:0000000000000008 .L0 
C:\Users\stapi\AppData\Local\Temp\ccMlfTJJ.s:171    .text.tls_write_client_finished:000000000000000a .L0 
C:\Users\stapi\AppData\Local\Temp\ccMlfTJJ.s:174    .text.tls_write_client_finished:000000000000000e .L0 
C:\Users\stapi\AppData\Local\Temp\ccMlfTJJ.s:175    .text.tls_write_client_finished:0000000000000010 .L0 
C:\Users\stapi\AppData\Local\Temp\ccMlfTJJ.s:177    .text.tls_write_client_finished:0000000000000010 .L0 
C:\Users\stapi\AppData\Local\Temp\ccMlfTJJ.s:179    .text.tls_write_client_finished:0000000000000012 .L0 
C:\Users\stapi\AppData\Local\Temp\ccMlfTJJ.s:183    .text.tls_write_client_finished:0000000000000018 .L0 
C:\Users\stapi\AppData\Local\Temp\ccMlfTJJ.s:185    .text.tls_write_client_finished:000000000000001a .L0 
C:\Users\stapi\AppData\Local\Temp\ccMlfTJJ.s:188    .text.tls_write_client_finished:0000000000000022 .L0 
C:\Users\stapi\AppData\Local\Temp\ccMlfTJJ.s:189    .text.tls_write_client_finished:0000000000000022 .L0 
C:\Users\stapi\AppData\Local\Temp\ccMlfTJJ.s:191    .text.tls_write_client_finished:0000000000000026 .L0 
C:\Users\stapi\AppData\Local\Temp\ccMlfTJJ.s:194    .text.tls_write_client_finished:000000000000002a .L0 
C:\Users\stapi\AppData\Local\Temp\ccMlfTJJ.s:195    .text.tls_write_client_finished:000000000000002a .L0 
C:\Users\stapi\AppData\Local\Temp\ccMlfTJJ.s:198    .text.tls_write_client_finished:000000000000002c .L0 
C:\Users\stapi\AppData\Local\Temp\ccMlfTJJ.s:204    .text.tls_write_client_finished:000000000000003c .L0 
C:\Users\stapi\AppData\Local\Temp\ccMlfTJJ.s:205    .text.tls_write_client_finished:000000000000003c .L0 
C:\Users\stapi\AppData\Local\Temp\ccMlfTJJ.s:207    .text.tls_write_client_finished:0000000000000040 .L0 
C:\Users\stapi\AppData\Local\Temp\ccMlfTJJ.s:209    .text.tls_write_client_finished:0000000000000044 .L0 
C:\Users\stapi\AppData\Local\Temp\ccMlfTJJ.s:214    .text.tls_write_client_finished:0000000000000050 .L0 
C:\Users\stapi\AppData\Local\Temp\ccMlfTJJ.s:215    .text.tls_write_client_finished:0000000000000050 .L0 
C:\Users\stapi\AppData\Local\Temp\ccMlfTJJ.s:218    .text.tls_write_client_finished:0000000000000054 .L0 
C:\Users\stapi\AppData\Local\Temp\ccMlfTJJ.s:219    .text.tls_write_client_finished:0000000000000054 .L0 
C:\Users\stapi\AppData\Local\Temp\ccMlfTJJ.s:220    .text.tls_write_client_finished:0000000000000054 .L0 
C:\Users\stapi\AppData\Local\Temp\ccMlfTJJ.s:223    .text.tls_write_client_finished:0000000000000056 .L0 
C:\Users\stapi\AppData\Local\Temp\ccMlfTJJ.s:225    .text.tls_write_client_finished:000000000000005a .L0 
C:\Users\stapi\AppData\Local\Temp\ccMlfTJJ.s:226    .text.tls_write_client_finished:000000000000005a .L0 
C:\Users\stapi\AppData\Local\Temp\ccMlfTJJ.s:228    .text.tls_write_client_finished:0000000000000062 .L0 
C:\Users\stapi\AppData\Local\Temp\ccMlfTJJ.s:229    .text.tls_write_client_finished:0000000000000062 .L0 
C:\Users\stapi\AppData\Local\Temp\ccMlfTJJ.s:230    .text.tls_write_client_finished:0000000000000062 .L0 
C:\Users\stapi\AppData\Local\Temp\ccMlfTJJ.s:231    .text.tls_write_client_finished:0000000000000062 .L0 
C:\Users\stapi\AppData\Local\Temp\ccMlfTJJ.s:232    .text.tls_write_client_finished:0000000000000062 .L0 
C:\Users\stapi\AppData\Local\Temp\ccMlfTJJ.s:233    .text.tls_write_client_finished:0000000000000062 .L0 
C:\Users\stapi\AppData\Local\Temp\ccMlfTJJ.s:235    .text.tls_write_client_finished:0000000000000062 .L0 
C:\Users\stapi\AppData\Local\Temp\ccMlfTJJ.s:237    .text.tls_write_client_finished:0000000000000062 .L0 
C:\Users\stapi\AppData\Local\Temp\ccMlfTJJ.s:242    .text.tls_write_client_finished:000000000000006e .L0 
C:\Users\stapi\AppData\Local\Temp\ccMlfTJJ.s:244    .text.tls_write_client_finished:0000000000000072 .L0 
C:\Users\stapi\AppData\Local\Temp\ccMlfTJJ.s:245    .text.tls_write_client_finished:0000000000000072 .L0 
C:\Users\stapi\AppData\Local\Temp\ccMlfTJJ.s:247    .text.tls_write_client_finished:0000000000000076 .L0 
C:\Users\stapi\AppData\Local\Temp\ccMlfTJJ.s:249    .text.tls_write_client_finished:0000000000000078 .L0 
C:\Users\stapi\AppData\Local\Temp\ccMlfTJJ.s:251    .text.tls_write_client_finished:000000000000007c .L0 
C:\Users\stapi\AppData\Local\Temp\ccMlfTJJ.s:252    .text.tls_write_client_finished:000000000000007c .L0 
C:\Users\stapi\AppData\Local\Temp\ccMlfTJJ.s:254    .text.tls_write_client_finished:000000000000007e .L0 
C:\Users\stapi\AppData\Local\Temp\ccMlfTJJ.s:255    .text.tls_write_client_finished:000000000000007e .L0 
C:\Users\stapi\AppData\Local\Temp\ccMlfTJJ.s:258    .text.tls_write_client_finished:0000000000000080 .L0 
C:\Users\stapi\AppData\Local\Temp\ccMlfTJJ.s:259    .text.tls_write_client_finished:0000000000000080 .L0 
C:\Users\stapi\AppData\Local\Temp\ccMlfTJJ.s:262    .text.tls_write_client_finished:0000000000000084 .L0 
C:\Users\stapi\AppData\Local\Temp\ccMlfTJJ.s:263    .text.tls_write_client_finished:0000000000000084 .L0 
C:\Users\stapi\AppData\Local\Temp\ccMlfTJJ.s:271    .text.tls_write_client_finished:0000000000000096 .L0 
C:\Users\stapi\AppData\Local\Temp\ccMlfTJJ.s:276    .text.tls_write_client_finished:00000000000000a2 .L0 
C:\Users\stapi\AppData\Local\Temp\ccMlfTJJ.s:278    .text.tls_write_client_finished:00000000000000a6 .L0 
C:\Users\stapi\AppData\Local\Temp\ccMlfTJJ.s:279    .text.tls_write_client_finished:00000000000000a6 .L0 
C:\Users\stapi\AppData\Local\Temp\ccMlfTJJ.s:282    .text.tls_write_client_finished:00000000000000ae .L0 
C:\Users\stapi\AppData\Local\Temp\ccMlfTJJ.s:284    .text.tls_write_client_finished:00000000000000b2 .L0 
C:\Users\stapi\AppData\Local\Temp\ccMlfTJJ.s:286    .text.tls_write_client_finished:00000000000000b6 .L0 
C:\Users\stapi\AppData\Local\Temp\ccMlfTJJ.s:287    .text.tls_write_client_finished:00000000000000b6 .L0 
C:\Users\stapi\AppData\Local\Temp\ccMlfTJJ.s:294    .text.tls_write_client_finished:00000000000000ca .L0 
C:\Users\stapi\AppData\Local\Temp\ccMlfTJJ.s:296    .text.tls_write_client_finished:00000000000000cc .L0 
C:\Users\stapi\AppData\Local\Temp\ccMlfTJJ.s:297    .text.tls_write_client_finished:00000000000000cc .L0 
C:\Users\stapi\AppData\Local\Temp\ccMlfTJJ.s:301    .text.tls_write_client_finished:00000000000000d6 .L0 
C:\Users\stapi\AppData\Local\Temp\ccMlfTJJ.s:303    .text.tls_write_client_finished:00000000000000d8 .L0 
C:\Users\stapi\AppData\Local\Temp\ccMlfTJJ.s:307    .text.tls_write_client_finished:00000000000000e0 .L0 
C:\Users\stapi\AppData\Local\Temp\ccMlfTJJ.s:313    .text.tls_write_client_finished:00000000000000ec .L0 
C:\Users\stapi\AppData\Local\Temp\ccMlfTJJ.s:321    .text.tls_write_client_finished:0000000000000102 .L0 
C:\Users\stapi\AppData\Local\Temp\ccMlfTJJ.s:322    .text.tls_write_client_finished:0000000000000102 .L0 
C:\Users\stapi\AppData\Local\Temp\ccMlfTJJ.s:324    .text.tls_write_client_finished:0000000000000102 .L0 
C:\Users\stapi\AppData\Local\Temp\ccMlfTJJ.s:325    .text.tls_write_client_finished:0000000000000102 .L0 
C:\Users\stapi\AppData\Local\Temp\ccMlfTJJ.s:326    .text.tls_write_client_finished:0000000000000102 .L0 
C:\Users\stapi\AppData\Local\Temp\ccMlfTJJ.s:327    .text.tls_write_client_finished:0000000000000102 .L0 
C:\Users\stapi\AppData\Local\Temp\ccMlfTJJ.s:328    .text.tls_write_client_finished:0000000000000102 .L0 
C:\Users\stapi\AppData\Local\Temp\ccMlfTJJ.s:331    .text.tls_write_client_finished:0000000000000108 .L0 
C:\Users\stapi\AppData\Local\Temp\ccMlfTJJ.s:336    .text.tls_write_client_finished:0000000000000110 .L0 
C:\Users\stapi\AppData\Local\Temp\ccMlfTJJ.s:339    .text.tls_write_client_finished:0000000000000112 .L0 
C:\Users\stapi\AppData\Local\Temp\ccMlfTJJ.s:340    .text.tls_write_client_finished:0000000000000112 .L0 
C:\Users\stapi\AppData\Local\Temp\ccMlfTJJ.s:341    .text.tls_write_client_finished:0000000000000112 .L0 
C:\Users\stapi\AppData\Local\Temp\ccMlfTJJ.s:344    .text.tls_write_client_finished:000000000000011a .L0 
C:\Users\stapi\AppData\Local\Temp\ccMlfTJJ.s:345    .text.tls_write_client_finished:000000000000011a .L0 
C:\Users\stapi\AppData\Local\Temp\ccMlfTJJ.s:356    .text.tls_write_client_finished:0000000000000138 .L0 
C:\Users\stapi\AppData\Local\Temp\ccMlfTJJ.s:358    .text.tls_write_client_finished:000000000000013c .L0 
C:\Users\stapi\AppData\Local\Temp\ccMlfTJJ.s:363    .text.tls_write_client_finished:0000000000000146 .L0 
C:\Users\stapi\AppData\Local\Temp\ccMlfTJJ.s:364    .text.tls_write_client_finished:0000000000000146 .L0 
C:\Users\stapi\AppData\Local\Temp\ccMlfTJJ.s:369    .text.tls_write_client_finished:0000000000000152 .L0 
C:\Users\stapi\AppData\Local\Temp\ccMlfTJJ.s:370    .text.tls_write_client_finished:0000000000000152 .L0 
C:\Users\stapi\AppData\Local\Temp\ccMlfTJJ.s:371    .text.tls_write_client_finished:0000000000000154 .L0 
C:\Users\stapi\AppData\Local\Temp\ccMlfTJJ.s:400    .text.tls_send_client_hello:0000000000000000 tls_send_client_hello
C:\Users\stapi\AppData\Local\Temp\ccMlfTJJ.s:403    .text.tls_send_client_hello:0000000000000000 .L0 
C:\Users\stapi\AppData\Local\Temp\ccMlfTJJ.s:405    .text.tls_send_client_hello:0000000000000000 .L0 
C:\Users\stapi\AppData\Local\Temp\ccMlfTJJ.s:406    .text.tls_send_client_hello:0000000000000008 .L0 
C:\Users\stapi\AppData\Local\Temp\ccMlfTJJ.s:407    .text.tls_send_client_hello:0000000000000008 .L0 
C:\Users\stapi\AppData\Local\Temp\ccMlfTJJ.s:408    .text.tls_send_client_hello:0000000000000008 .L0 
C:\Users\stapi\AppData\Local\Temp\ccMlfTJJ.s:409    .text.tls_send_client_hello:0000000000000008 .L0 
C:\Users\stapi\AppData\Local\Temp\ccMlfTJJ.s:410    .text.tls_send_client_hello:0000000000000008 .L0 
C:\Users\stapi\AppData\Local\Temp\ccMlfTJJ.s:411    .text.tls_send_client_hello:0000000000000008 .L0 
C:\Users\stapi\AppData\Local\Temp\ccMlfTJJ.s:412    .text.tls_send_client_hello:0000000000000008 .L0 
C:\Users\stapi\AppData\Local\Temp\ccMlfTJJ.s:413    .text.tls_send_client_hello:0000000000000008 .L0 
C:\Users\stapi\AppData\Local\Temp\ccMlfTJJ.s:414    .text.tls_send_client_hello:0000000000000008 .L0 
C:\Users\stapi\AppData\Local\Temp\ccMlfTJJ.s:415    .text.tls_send_client_hello:0000000000000008 .L0 
C:\Users\stapi\AppData\Local\Temp\ccMlfTJJ.s:416    .text.tls_send_client_hello:0000000000000008 .L0 
C:\Users\stapi\AppData\Local\Temp\ccMlfTJJ.s:417    .text.tls_send_client_hello:0000000000000008 .L0 
C:\Users\stapi\AppData\Local\Temp\ccMlfTJJ.s:419    .text.tls_send_client_hello:0000000000000008 .L0 
C:\Users\stapi\AppData\Local\Temp\ccMlfTJJ.s:420    .text.tls_send_client_hello:0000000000000008 .L0 
C:\Users\stapi\AppData\Local\Temp\ccMlfTJJ.s:421    .text.tls_send_client_hello:0000000000000008 .L0 
C:\Users\stapi\AppData\Local\Temp\ccMlfTJJ.s:422    .text.tls_send_client_hello:0000000000000008 .L0 
C:\Users\stapi\AppData\Local\Temp\ccMlfTJJ.s:423    .text.tls_send_client_hello:0000000000000008 .L0 
C:\Users\stapi\AppData\Local\Temp\ccMlfTJJ.s:424    .text.tls_send_client_hello:0000000000000008 .L0 
C:\Users\stapi\AppData\Local\Temp\ccMlfTJJ.s:425    .text.tls_send_client_hello:000000000000000a .L0 
C:\Users\stapi\AppData\Local\Temp\ccMlfTJJ.s:427    .text.tls_send_client_hello:000000000000000a .L0 
C:\Users\stapi\AppData\Local\Temp\ccMlfTJJ.s:430    .text.tls_send_client_hello:000000000000000e .L0 
C:\Users\stapi\AppData\Local\Temp\ccMlfTJJ.s:433    .text.tls_send_client_hello:0000000000000016 .L0 
C:\Users\stapi\AppData\Local\Temp\ccMlfTJJ.s:434    .text.tls_send_client_hello:0000000000000016 .L0 
C:\Users\stapi\AppData\Local\Temp\ccMlfTJJ.s:436    .text.tls_send_client_hello:0000000000000018 .L0 
C:\Users\stapi\AppData\Local\Temp\ccMlfTJJ.s:442    .text.tls_send_client_hello:0000000000000022 .L0 
C:\Users\stapi\AppData\Local\Temp\ccMlfTJJ.s:446    .text.tls_send_client_hello:000000000000002a .L0 
C:\Users\stapi\AppData\Local\Temp\ccMlfTJJ.s:447    .text.tls_send_client_hello:000000000000002a .L0 
C:\Users\stapi\AppData\Local\Temp\ccMlfTJJ.s:448    .text.tls_send_client_hello:000000000000002a .L0 
C:\Users\stapi\AppData\Local\Temp\ccMlfTJJ.s:451    .text.tls_send_client_hello:000000000000002c .L0 
C:\Users\stapi\AppData\Local\Temp\ccMlfTJJ.s:453    .text.tls_send_client_hello:0000000000000030 .L0 
C:\Users\stapi\AppData\Local\Temp\ccMlfTJJ.s:454    .text.tls_send_client_hello:0000000000000030 .L0 
C:\Users\stapi\AppData\Local\Temp\ccMlfTJJ.s:456    .text.tls_send_client_hello:0000000000000038 .L0 
C:\Users\stapi\AppData\Local\Temp\ccMlfTJJ.s:457    .text.tls_send_client_hello:0000000000000038 .L0 
C:\Users\stapi\AppData\Local\Temp\ccMlfTJJ.s:458    .text.tls_send_client_hello:0000000000000038 .L0 
C:\Users\stapi\AppData\Local\Temp\ccMlfTJJ.s:459    .text.tls_send_client_hello:0000000000000038 .L0 
C:\Users\stapi\AppData\Local\Temp\ccMlfTJJ.s:460    .text.tls_send_client_hello:0000000000000038 .L0 
C:\Users\stapi\AppData\Local\Temp\ccMlfTJJ.s:461    .text.tls_send_client_hello:0000000000000038 .L0 
C:\Users\stapi\AppData\Local\Temp\ccMlfTJJ.s:462    .text.tls_send_client_hello:0000000000000038 .L0 
C:\Users\stapi\AppData\Local\Temp\ccMlfTJJ.s:463    .text.tls_send_client_hello:0000000000000038 .L0 
C:\Users\stapi\AppData\Local\Temp\ccMlfTJJ.s:464    .text.tls_send_client_hello:0000000000000038 .L0 
C:\Users\stapi\AppData\Local\Temp\ccMlfTJJ.s:465    .text.tls_send_client_hello:0000000000000038 .L0 
C:\Users\stapi\AppData\Local\Temp\ccMlfTJJ.s:466    .text.tls_send_client_hello:0000000000000038 .L0 
C:\Users\stapi\AppData\Local\Temp\ccMlfTJJ.s:467    .text.tls_send_client_hello:0000000000000038 .L0 
C:\Users\stapi\AppData\Local\Temp\ccMlfTJJ.s:470    .text.tls_send_client_hello:0000000000000038 .L0 
C:\Users\stapi\AppData\Local\Temp\ccMlfTJJ.s:473    .text.tls_send_client_hello:000000000000003a .L0 
C:\Users\stapi\AppData\Local\Temp\ccMlfTJJ.s:482    .text.tls_send_client_hello:0000000000000056 .L0 
C:\Users\stapi\AppData\Local\Temp\ccMlfTJJ.s:483    .text.tls_send_client_hello:0000000000000056 .L0 
C:\Users\stapi\AppData\Local\Temp\ccMlfTJJ.s:485    .text.tls_send_client_hello:0000000000000058 .L0 
C:\Users\stapi\AppData\Local\Temp\ccMlfTJJ.s:487    .text.tls_send_client_hello:000000000000005c .L0 
C:\Users\stapi\AppData\Local\Temp\ccMlfTJJ.s:490    .text.tls_send_client_hello:0000000000000064 .L0 
C:\Users\stapi\AppData\Local\Temp\ccMlfTJJ.s:491    .text.tls_send_client_hello:0000000000000064 .L0 
C:\Users\stapi\AppData\Local\Temp\ccMlfTJJ.s:493    .text.tls_send_client_hello:0000000000000066 .L0 
C:\Users\stapi\AppData\Local\Temp\ccMlfTJJ.s:498    .text.tls_send_client_hello:000000000000006c .L0 
C:\Users\stapi\AppData\Local\Temp\ccMlfTJJ.s:500    .text.tls_send_client_hello:0000000000000070 .L0 
C:\Users\stapi\AppData\Local\Temp\ccMlfTJJ.s:502    .text.tls_send_client_hello:0000000000000074 .L0 
C:\Users\stapi\AppData\Local\Temp\ccMlfTJJ.s:504    .text.tls_send_client_hello:0000000000000078 .L0 
C:\Users\stapi\AppData\Local\Temp\ccMlfTJJ.s:506    .text.tls_send_client_hello:000000000000007c .L0 
C:\Users\stapi\AppData\Local\Temp\ccMlfTJJ.s:508    .text.tls_send_client_hello:0000000000000080 .L0 
C:\Users\stapi\AppData\Local\Temp\ccMlfTJJ.s:510    .text.tls_send_client_hello:0000000000000084 .L0 
C:\Users\stapi\AppData\Local\Temp\ccMlfTJJ.s:514    .text.tls_send_client_hello:0000000000000088 .L0 
C:\Users\stapi\AppData\Local\Temp\ccMlfTJJ.s:519    .text.tls_send_client_hello:000000000000008c .L0 
C:\Users\stapi\AppData\Local\Temp\ccMlfTJJ.s:520    .text.tls_send_client_hello:000000000000008c .L0 
C:\Users\stapi\AppData\Local\Temp\ccMlfTJJ.s:521    .text.tls_send_client_hello:000000000000008c .L0 
C:\Users\stapi\AppData\Local\Temp\ccMlfTJJ.s:524    .text.tls_send_client_hello:000000000000008c .L0 
C:\Users\stapi\AppData\Local\Temp\ccMlfTJJ.s:525    .text.tls_send_client_hello:000000000000008c .L0 
C:\Users\stapi\AppData\Local\Temp\ccMlfTJJ.s:526    .text.tls_send_client_hello:000000000000008c .L0 
C:\Users\stapi\AppData\Local\Temp\ccMlfTJJ.s:529    .text.tls_send_client_hello:0000000000000094 .L0 
C:\Users\stapi\AppData\Local\Temp\ccMlfTJJ.s:531    .text.tls_send_client_hello:0000000000000096 .L0 
C:\Users\stapi\AppData\Local\Temp\ccMlfTJJ.s:537    .text.tls_send_client_hello:00000000000000a2 .L0 
C:\Users\stapi\AppData\Local\Temp\ccMlfTJJ.s:545    .text.tls_send_client_hello:00000000000000ba .L0 
C:\Users\stapi\AppData\Local\Temp\ccMlfTJJ.s:546    .text.tls_send_client_hello:00000000000000ba .L0 
C:\Users\stapi\AppData\Local\Temp\ccMlfTJJ.s:548    .text.tls_send_client_hello:00000000000000be .L0 
C:\Users\stapi\AppData\Local\Temp\ccMlfTJJ.s:550    .text.tls_send_client_hello:00000000000000c2 .L0 
C:\Users\stapi\AppData\Local\Temp\ccMlfTJJ.s:552    .text.tls_send_client_hello:00000000000000c6 .L0 
C:\Users\stapi\AppData\Local\Temp\ccMlfTJJ.s:555    .text.tls_send_client_hello:00000000000000ca .L0 
C:\Users\stapi\AppData\Local\Temp\ccMlfTJJ.s:556    .text.tls_send_client_hello:00000000000000ca .L0 
C:\Users\stapi\AppData\Local\Temp\ccMlfTJJ.s:562    .text.tls_send_client_hello:00000000000000d6 .L0 
C:\Users\stapi\AppData\Local\Temp\ccMlfTJJ.s:563    .text.tls_send_client_hello:00000000000000d6 .L0 
C:\Users\stapi\AppData\Local\Temp\ccMlfTJJ.s:566    .text.tls_send_client_hello:00000000000000d8 .L0 
C:\Users\stapi\AppData\Local\Temp\ccMlfTJJ.s:567    .text.tls_send_client_hello:00000000000000d8 .L0 
C:\Users\stapi\AppData\Local\Temp\ccMlfTJJ.s:568    .text.tls_send_client_hello:00000000000000d8 .L0 
C:\Users\stapi\AppData\Local\Temp\ccMlfTJJ.s:569    .text.tls_send_client_hello:00000000000000d8 .L0 
C:\Users\stapi\AppData\Local\Temp\ccMlfTJJ.s:574    .text.tls_send_client_hello:00000000000000de .L0 
C:\Users\stapi\AppData\Local\Temp\ccMlfTJJ.s:577    .text.tls_send_client_hello:00000000000000e6 .L0 
C:\Users\stapi\AppData\Local\Temp\ccMlfTJJ.s:581    .text.tls_send_client_hello:00000000000000ea .L0 
C:\Users\stapi\AppData\Local\Temp\ccMlfTJJ.s:584    .text.tls_send_client_hello:00000000000000f0 .L0 
C:\Users\stapi\AppData\Local\Temp\ccMlfTJJ.s:587    .text.tls_send_client_hello:00000000000000f4 .L0 
C:\Users\stapi\AppData\Local\Temp\ccMlfTJJ.s:588    .text.tls_send_client_hello:00000000000000f4 .L0 
C:\Users\stapi\AppData\Local\Temp\ccMlfTJJ.s:589    .text.tls_send_client_hello:00000000000000f4 .L0 
C:\Users\stapi\AppData\Local\Temp\ccMlfTJJ.s:592    .text.tls_send_client_hello:00000000000000f8 .L0 
C:\Users\stapi\AppData\Local\Temp\ccMlfTJJ.s:593    .text.tls_send_client_hello:00000000000000f8 .L0 
C:\Users\stapi\AppData\Local\Temp\ccMlfTJJ.s:596    .text.tls_send_client_hello:00000000000000f8 .L0 
C:\Users\stapi\AppData\Local\Temp\ccMlfTJJ.s:597    .text.tls_send_client_hello:00000000000000f8 .L0 
C:\Users\stapi\AppData\Local\Temp\ccMlfTJJ.s:600    .text.tls_send_client_hello:00000000000000f8 .L0 
C:\Users\stapi\AppData\Local\Temp\ccMlfTJJ.s:601    .text.tls_send_client_hello:00000000000000f8 .L0 
C:\Users\stapi\AppData\Local\Temp\ccMlfTJJ.s:602    .text.tls_send_client_hello:00000000000000f8 .L0 
C:\Users\stapi\AppData\Local\Temp\ccMlfTJJ.s:607    .text.tls_send_client_hello:0000000000000102 .L0 
C:\Users\stapi\AppData\Local\Temp\ccMlfTJJ.s:608    .text.tls_send_client_hello:0000000000000102 .L0 
C:\Users\stapi\AppData\Local\Temp\ccMlfTJJ.s:609    .text.tls_send_client_hello:0000000000000102 .L0 
C:\Users\stapi\AppData\Local\Temp\ccMlfTJJ.s:612    .text.tls_send_client_hello:0000000000000108 .L0 
C:\Users\stapi\AppData\Local\Temp\ccMlfTJJ.s:615    .text.tls_send_client_hello:000000000000010c .L0 
C:\Users\stapi\AppData\Local\Temp\ccMlfTJJ.s:617    .text.tls_send_client_hello:000000000000010e .L0 
C:\Users\stapi\AppData\Local\Temp\ccMlfTJJ.s:619    .text.tls_send_client_hello:0000000000000112 .L0 
C:\Users\stapi\AppData\Local\Temp\ccMlfTJJ.s:624    .text.tls_send_client_hello:0000000000000120 .L0 
C:\Users\stapi\AppData\Local\Temp\ccMlfTJJ.s:625    .text.tls_send_client_hello:0000000000000120 .L0 
C:\Users\stapi\AppData\Local\Temp\ccMlfTJJ.s:629    .text.tls_send_client_hello:0000000000000124 .L0 
C:\Users\stapi\AppData\Local\Temp\ccMlfTJJ.s:631    .text.tls_send_client_hello:0000000000000128 .L0 
C:\Users\stapi\AppData\Local\Temp\ccMlfTJJ.s:634    .text.tls_send_client_hello:000000000000012a .L0 
C:\Users\stapi\AppData\Local\Temp\ccMlfTJJ.s:640    .text.tls_send_client_hello:0000000000000130 .L0 
C:\Users\stapi\AppData\Local\Temp\ccMlfTJJ.s:641    .text.tls_send_client_hello:0000000000000130 .L0 
C:\Users\stapi\AppData\Local\Temp\ccMlfTJJ.s:644    .text.tls_send_client_hello:0000000000000138 .L0 
C:\Users\stapi\AppData\Local\Temp\ccMlfTJJ.s:645    .text.tls_send_client_hello:0000000000000138 .L0 
C:\Users\stapi\AppData\Local\Temp\ccMlfTJJ.s:650    .text.tls_send_client_hello:000000000000013c .L0 
C:\Users\stapi\AppData\Local\Temp\ccMlfTJJ.s:651    .text.tls_send_client_hello:000000000000013c .L0 
C:\Users\stapi\AppData\Local\Temp\ccMlfTJJ.s:653    .text.tls_send_client_hello:0000000000000140 .L0 
C:\Users\stapi\AppData\Local\Temp\ccMlfTJJ.s:657    .text.tls_send_client_hello:0000000000000142 .L0 
C:\Users\stapi\AppData\Local\Temp\ccMlfTJJ.s:658    .text.tls_send_client_hello:0000000000000142 .L0 
C:\Users\stapi\AppData\Local\Temp\ccMlfTJJ.s:662    .text.tls_send_client_hello:000000000000014a .L0 
C:\Users\stapi\AppData\Local\Temp\ccMlfTJJ.s:663    .text.tls_send_client_hello:000000000000014a .L0 
C:\Users\stapi\AppData\Local\Temp\ccMlfTJJ.s:668    .text.tls_send_client_hello:0000000000000150 .L0 
C:\Users\stapi\AppData\Local\Temp\ccMlfTJJ.s:669    .text.tls_send_client_hello:0000000000000150 .L0 
C:\Users\stapi\AppData\Local\Temp\ccMlfTJJ.s:672    .text.tls_send_client_hello:0000000000000154 .L0 
C:\Users\stapi\AppData\Local\Temp\ccMlfTJJ.s:673    .text.tls_send_client_hello:0000000000000154 .L0 
C:\Users\stapi\AppData\Local\Temp\ccMlfTJJ.s:674    .text.tls_send_client_hello:0000000000000154 .L0 
C:\Users\stapi\AppData\Local\Temp\ccMlfTJJ.s:676    .text.tls_send_client_hello:0000000000000158 .L0 
C:\Users\stapi\AppData\Local\Temp\ccMlfTJJ.s:679    .text.tls_send_client_hello:000000000000015c .L0 
C:\Users\stapi\AppData\Local\Temp\ccMlfTJJ.s:680    .text.tls_send_client_hello:000000000000015c .L0 
C:\Users\stapi\AppData\Local\Temp\ccMlfTJJ.s:682    .text.tls_send_client_hello:000000000000015e .L0 
C:\Users\stapi\AppData\Local\Temp\ccMlfTJJ.s:684    .text.tls_send_client_hello:0000000000000160 .L0 
C:\Users\stapi\AppData\Local\Temp\ccMlfTJJ.s:689    .text.tls_send_client_hello:000000000000016e .L0 
C:\Users\stapi\AppData\Local\Temp\ccMlfTJJ.s:690    .text.tls_send_client_hello:000000000000016e .L0 
C:\Users\stapi\AppData\Local\Temp\ccMlfTJJ.s:695    .text.tls_send_client_hello:0000000000000174 .L0 
C:\Users\stapi\AppData\Local\Temp\ccMlfTJJ.s:696    .text.tls_send_client_hello:0000000000000174 .L0 
C:\Users\stapi\AppData\Local\Temp\ccMlfTJJ.s:699    .text.tls_send_client_hello:000000000000017a .L0 
C:\Users\stapi\AppData\Local\Temp\ccMlfTJJ.s:701    .text.tls_send_client_hello:000000000000017c .L0 
C:\Users\stapi\AppData\Local\Temp\ccMlfTJJ.s:709    .text.tls_send_client_hello:000000000000018e .L0 
C:\Users\stapi\AppData\Local\Temp\ccMlfTJJ.s:710    .text.tls_send_client_hello:000000000000018e .L0 
C:\Users\stapi\AppData\Local\Temp\ccMlfTJJ.s:711    .text.tls_send_client_hello:000000000000018e .L0 
C:\Users\stapi\AppData\Local\Temp\ccMlfTJJ.s:715    .text.tls_send_client_hello:0000000000000190 .L0 
C:\Users\stapi\AppData\Local\Temp\ccMlfTJJ.s:717    .text.tls_send_client_hello:0000000000000192 .L0 
C:\Users\stapi\AppData\Local\Temp\ccMlfTJJ.s:719    .text.tls_send_client_hello:0000000000000196 .L0 
C:\Users\stapi\AppData\Local\Temp\ccMlfTJJ.s:723    .text.tls_send_client_hello:000000000000019a .L0 
C:\Users\stapi\AppData\Local\Temp\ccMlfTJJ.s:725    .text.tls_send_client_hello:000000000000019e .L0 
C:\Users\stapi\AppData\Local\Temp\ccMlfTJJ.s:726    .text.tls_send_client_hello:000000000000019e .L0 
C:\Users\stapi\AppData\Local\Temp\ccMlfTJJ.s:731    .text.tls_send_client_hello:00000000000001a2 .L0 
C:\Users\stapi\AppData\Local\Temp\ccMlfTJJ.s:734    .text.tls_send_client_hello:00000000000001a2 .L0 
C:\Users\stapi\AppData\Local\Temp\ccMlfTJJ.s:735    .text.tls_send_client_hello:00000000000001a2 .L0 
C:\Users\stapi\AppData\Local\Temp\ccMlfTJJ.s:736    .text.tls_send_client_hello:00000000000001a2 .L0 
C:\Users\stapi\AppData\Local\Temp\ccMlfTJJ.s:738    .text.tls_send_client_hello:00000000000001a6 .L0 
C:\Users\stapi\AppData\Local\Temp\ccMlfTJJ.s:739    .text.tls_send_client_hello:00000000000001a6 .L0 
C:\Users\stapi\AppData\Local\Temp\ccMlfTJJ.s:744    .text.tls_send_client_hello:00000000000001aa .L0 
C:\Users\stapi\AppData\Local\Temp\ccMlfTJJ.s:745    .text.tls_send_client_hello:00000000000001aa .L0 
C:\Users\stapi\AppData\Local\Temp\ccMlfTJJ.s:748    .text.tls_send_client_hello:00000000000001aa .L0 
C:\Users\stapi\AppData\Local\Temp\ccMlfTJJ.s:749    .text.tls_send_client_hello:00000000000001aa .L0 
C:\Users\stapi\AppData\Local\Temp\ccMlfTJJ.s:750    .text.tls_send_client_hello:00000000000001aa .L0 
C:\Users\stapi\AppData\Local\Temp\ccMlfTJJ.s:752    .text.tls_send_client_hello:00000000000001ae .L0 
C:\Users\stapi\AppData\Local\Temp\ccMlfTJJ.s:753    .text.tls_send_client_hello:00000000000001ae .L0 
C:\Users\stapi\AppData\Local\Temp\ccMlfTJJ.s:758    .text.tls_send_client_hello:00000000000001b2 .L0 
C:\Users\stapi\AppData\Local\Temp\ccMlfTJJ.s:761    .text.tls_send_client_hello:00000000000001b2 .L0 
C:\Users\stapi\AppData\Local\Temp\ccMlfTJJ.s:762    .text.tls_send_client_hello:00000000000001b2 .L0 
C:\Users\stapi\AppData\Local\Temp\ccMlfTJJ.s:763    .text.tls_send_client_hello:00000000000001b2 .L0 
C:\Users\stapi\AppData\Local\Temp\ccMlfTJJ.s:765    .text.tls_send_client_hello:00000000000001b6 .L0 
C:\Users\stapi\AppData\Local\Temp\ccMlfTJJ.s:766    .text.tls_send_client_hello:00000000000001b6 .L0 
C:\Users\stapi\AppData\Local\Temp\ccMlfTJJ.s:771    .text.tls_send_client_hello:00000000000001ba .L0 
C:\Users\stapi\AppData\Local\Temp\ccMlfTJJ.s:772    .text.tls_send_client_hello:00000000000001ba .L0 
C:\Users\stapi\AppData\Local\Temp\ccMlfTJJ.s:779    .text.tls_send_client_hello:00000000000001c8 .L0 
C:\Users\stapi\AppData\Local\Temp\ccMlfTJJ.s:780    .text.tls_send_client_hello:00000000000001c8 .L0 
C:\Users\stapi\AppData\Local\Temp\ccMlfTJJ.s:781    .text.tls_send_client_hello:00000000000001c8 .L0 
C:\Users\stapi\AppData\Local\Temp\ccMlfTJJ.s:792    .text.tls_send_client_hello:00000000000001d4 .L0 
C:\Users\stapi\AppData\Local\Temp\ccMlfTJJ.s:796    .text.tls_send_client_hello:00000000000001d6 .L0 
C:\Users\stapi\AppData\Local\Temp\ccMlfTJJ.s:801    .text.tls_send_client_hello:00000000000001da .L0 
C:\Users\stapi\AppData\Local\Temp\ccMlfTJJ.s:802    .text.tls_send_client_hello:00000000000001da .L0 
C:\Users\stapi\AppData\Local\Temp\ccMlfTJJ.s:805    .text.tls_send_client_hello:00000000000001da .L0 
C:\Users\stapi\AppData\Local\Temp\ccMlfTJJ.s:806    .text.tls_send_client_hello:00000000000001da .L0 
C:\Users\stapi\AppData\Local\Temp\ccMlfTJJ.s:807    .text.tls_send_client_hello:00000000000001da .L0 
C:\Users\stapi\AppData\Local\Temp\ccMlfTJJ.s:812    .text.tls_send_client_hello:00000000000001de .L0 
C:\Users\stapi\AppData\Local\Temp\ccMlfTJJ.s:813    .text.tls_send_client_hello:00000000000001de .L0 
C:\Users\stapi\AppData\Local\Temp\ccMlfTJJ.s:816    .text.tls_send_client_hello:00000000000001de .L0 
C:\Users\stapi\AppData\Local\Temp\ccMlfTJJ.s:817    .text.tls_send_client_hello:00000000000001de .L0 
C:\Users\stapi\AppData\Local\Temp\ccMlfTJJ.s:818    .text.tls_send_client_hello:00000000000001de .L0 
C:\Users\stapi\AppData\Local\Temp\ccMlfTJJ.s:820    .text.tls_send_client_hello:00000000000001e2 .L0 
C:\Users\stapi\AppData\Local\Temp\ccMlfTJJ.s:821    .text.tls_send_client_hello:00000000000001e2 .L0 
C:\Users\stapi\AppData\Local\Temp\ccMlfTJJ.s:826    .text.tls_send_client_hello:00000000000001e6 .L0 
C:\Users\stapi\AppData\Local\Temp\ccMlfTJJ.s:827    .text.tls_send_client_hello:00000000000001e6 .L0 
C:\Users\stapi\AppData\Local\Temp\ccMlfTJJ.s:828    .text.tls_send_client_hello:00000000000001e6 .L0 
C:\Users\stapi\AppData\Local\Temp\ccMlfTJJ.s:833    .text.tls_send_client_hello:00000000000001ea .L0 
C:\Users\stapi\AppData\Local\Temp\ccMlfTJJ.s:834    .text.tls_send_client_hello:00000000000001ea .L0 
C:\Users\stapi\AppData\Local\Temp\ccMlfTJJ.s:835    .text.tls_send_client_hello:00000000000001ea .L0 
C:\Users\stapi\AppData\Local\Temp\ccMlfTJJ.s:837    .text.tls_send_client_hello:00000000000001ee .L0 
C:\Users\stapi\AppData\Local\Temp\ccMlfTJJ.s:838    .text.tls_send_client_hello:00000000000001ee .L0 
C:\Users\stapi\AppData\Local\Temp\ccMlfTJJ.s:843    .text.tls_send_client_hello:00000000000001f2 .L0 
C:\Users\stapi\AppData\Local\Temp\ccMlfTJJ.s:846    .text.tls_send_client_hello:00000000000001f2 .L0 
C:\Users\stapi\AppData\Local\Temp\ccMlfTJJ.s:847    .text.tls_send_client_hello:00000000000001f2 .L0 
C:\Users\stapi\AppData\Local\Temp\ccMlfTJJ.s:848    .text.tls_send_client_hello:00000000000001f2 .L0 
C:\Users\stapi\AppData\Local\Temp\ccMlfTJJ.s:850    .text.tls_send_client_hello:00000000000001f6 .L0 
C:\Users\stapi\AppData\Local\Temp\ccMlfTJJ.s:851    .text.tls_send_client_hello:00000000000001f6 .L0 
C:\Users\stapi\AppData\Local\Temp\ccMlfTJJ.s:856    .text.tls_send_client_hello:00000000000001fa .L0 
C:\Users\stapi\AppData\Local\Temp\ccMlfTJJ.s:857    .text.tls_send_client_hello:00000000000001fa .L0 
C:\Users\stapi\AppData\Local\Temp\ccMlfTJJ.s:861    .text.tls_send_client_hello:00000000000001fc .L0 
C:\Users\stapi\AppData\Local\Temp\ccMlfTJJ.s:862    .text.tls_send_client_hello:00000000000001fc .L0 
C:\Users\stapi\AppData\Local\Temp\ccMlfTJJ.s:864    .text.tls_send_client_hello:0000000000000200 .L0 
C:\Users\stapi\AppData\Local\Temp\ccMlfTJJ.s:865    .text.tls_send_client_hello:0000000000000200 .L0 
C:\Users\stapi\AppData\Local\Temp\ccMlfTJJ.s:869    .text.tls_send_client_hello:0000000000000202 .L0 
C:\Users\stapi\AppData\Local\Temp\ccMlfTJJ.s:870    .text.tls_send_client_hello:0000000000000202 .L0 
C:\Users\stapi\AppData\Local\Temp\ccMlfTJJ.s:872    .text.tls_send_client_hello:0000000000000206 .L0 
C:\Users\stapi\AppData\Local\Temp\ccMlfTJJ.s:877    .text.tls_send_client_hello:0000000000000208 .L0 
C:\Users\stapi\AppData\Local\Temp\ccMlfTJJ.s:878    .text.tls_send_client_hello:0000000000000208 .L0 
C:\Users\stapi\AppData\Local\Temp\ccMlfTJJ.s:880    .text.tls_send_client_hello:000000000000020c .L0 
C:\Users\stapi\AppData\Local\Temp\ccMlfTJJ.s:884    .text.tls_send_client_hello:0000000000000210 .L0 
C:\Users\stapi\AppData\Local\Temp\ccMlfTJJ.s:885    .text.tls_send_client_hello:0000000000000210 .L0 
C:\Users\stapi\AppData\Local\Temp\ccMlfTJJ.s:890    .text.tls_send_client_hello:0000000000000214 .L0 
C:\Users\stapi\AppData\Local\Temp\ccMlfTJJ.s:892    .text.tls_send_client_hello:0000000000000218 .L0 
C:\Users\stapi\AppData\Local\Temp\ccMlfTJJ.s:894    .text.tls_send_client_hello:000000000000021c .L0 
C:\Users\stapi\AppData\Local\Temp\ccMlfTJJ.s:895    .text.tls_send_client_hello:000000000000021c .L0 
C:\Users\stapi\AppData\Local\Temp\ccMlfTJJ.s:900    .text.tls_send_client_hello:0000000000000220 .L0 
C:\Users\stapi\AppData\Local\Temp\ccMlfTJJ.s:906    .text.tls_send_client_hello:0000000000000230 .L0 
C:\Users\stapi\AppData\Local\Temp\ccMlfTJJ.s:907    .text.tls_send_client_hello:0000000000000230 .L0 
C:\Users\stapi\AppData\Local\Temp\ccMlfTJJ.s:917    .text.tls_send_client_hello:0000000000000248 .L0 
C:\Users\stapi\AppData\Local\Temp\ccMlfTJJ.s:919    .text.tls_send_client_hello:000000000000024c .L0 
C:\Users\stapi\AppData\Local\Temp\ccMlfTJJ.s:925    .text.tls_send_client_hello:000000000000025e .L0 
C:\Users\stapi\AppData\Local\Temp\ccMlfTJJ.s:931    .text.tls_send_client_hello:000000000000026e .L0 
C:\Users\stapi\AppData\Local\Temp\ccMlfTJJ.s:938    .text.tls_send_client_hello:000000000000027a .L0 
C:\Users\stapi\AppData\Local\Temp\ccMlfTJJ.s:945    .text.tls_send_client_hello:000000000000027e .L0 
C:\Users\stapi\AppData\Local\Temp\ccMlfTJJ.s:946    .text.tls_send_client_hello:000000000000027e .L0 
C:\Users\stapi\AppData\Local\Temp\ccMlfTJJ.s:949    .text.tls_send_client_hello:0000000000000280 .L0 
C:\Users\stapi\AppData\Local\Temp\ccMlfTJJ.s:954    .text.tls_send_client_hello:0000000000000282 .L0 
C:\Users\stapi\AppData\Local\Temp\ccMlfTJJ.s:957    .text.tls_send_client_hello:000000000000028a .L0 
C:\Users\stapi\AppData\Local\Temp\ccMlfTJJ.s:958    .text.tls_send_client_hello:000000000000028a .L0 
C:\Users\stapi\AppData\Local\Temp\ccMlfTJJ.s:963    .text.tls_send_client_hello:000000000000028e .L0 
C:\Users\stapi\AppData\Local\Temp\ccMlfTJJ.s:964    .text.tls_send_client_hello:000000000000028e .L0 
C:\Users\stapi\AppData\Local\Temp\ccMlfTJJ.s:969    .text.tls_send_client_hello:0000000000000292 .L0 
C:\Users\stapi\AppData\Local\Temp\ccMlfTJJ.s:970    .text.tls_send_client_hello:0000000000000292 .L0 
C:\Users\stapi\AppData\Local\Temp\ccMlfTJJ.s:972    .text.tls_send_client_hello:0000000000000296 .L0 
C:\Users\stapi\AppData\Local\Temp\ccMlfTJJ.s:978    .text.tls_send_client_hello:000000000000029c .L0 
C:\Users\stapi\AppData\Local\Temp\ccMlfTJJ.s:979    .text.tls_send_client_hello:000000000000029c .L0 
C:\Users\stapi\AppData\Local\Temp\ccMlfTJJ.s:982    .text.tls_send_client_hello:00000000000002a4 .L0 
C:\Users\stapi\AppData\Local\Temp\ccMlfTJJ.s:983    .text.tls_send_client_hello:00000000000002a4 .L0 
C:\Users\stapi\AppData\Local\Temp\ccMlfTJJ.s:985    .text.tls_send_client_hello:00000000000002a8 .L0 
C:\Users\stapi\AppData\Local\Temp\ccMlfTJJ.s:991    .text.tls_send_client_hello:00000000000002aa .L0 
C:\Users\stapi\AppData\Local\Temp\ccMlfTJJ.s:992    .text.tls_send_client_hello:00000000000002aa .L0 
C:\Users\stapi\AppData\Local\Temp\ccMlfTJJ.s:995    .text.tls_send_client_hello:00000000000002ae .L0 
C:\Users\stapi\AppData\Local\Temp\ccMlfTJJ.s:996    .text.tls_send_client_hello:00000000000002ae .L0 
C:\Users\stapi\AppData\Local\Temp\ccMlfTJJ.s:997    .text.tls_send_client_hello:00000000000002b0 .L0 
C:\Users\stapi\AppData\Local\Temp\ccMlfTJJ.s:1074   .text.tlsv1_client_handshake_write:0000000000000000 tlsv1_client_handshake_write
C:\Users\stapi\AppData\Local\Temp\ccMlfTJJ.s:1077   .text.tlsv1_client_handshake_write:0000000000000000 .L0 
C:\Users\stapi\AppData\Local\Temp\ccMlfTJJ.s:1079   .text.tlsv1_client_handshake_write:0000000000000000 .L0 
C:\Users\stapi\AppData\Local\Temp\ccMlfTJJ.s:1080   .text.tlsv1_client_handshake_write:0000000000000008 .L0 
C:\Users\stapi\AppData\Local\Temp\ccMlfTJJ.s:1081   .text.tlsv1_client_handshake_write:0000000000000008 .L0 
C:\Users\stapi\AppData\Local\Temp\ccMlfTJJ.s:1082   .text.tlsv1_client_handshake_write:0000000000000008 .L0 
C:\Users\stapi\AppData\Local\Temp\ccMlfTJJ.s:1083   .text.tlsv1_client_handshake_write:0000000000000008 .L0 
C:\Users\stapi\AppData\Local\Temp\ccMlfTJJ.s:1084   .text.tlsv1_client_handshake_write:0000000000000008 .L0 
C:\Users\stapi\AppData\Local\Temp\ccMlfTJJ.s:1085   .text.tlsv1_client_handshake_write:0000000000000008 .L0 
C:\Users\stapi\AppData\Local\Temp\ccMlfTJJ.s:1086   .text.tlsv1_client_handshake_write:0000000000000008 .L0 
C:\Users\stapi\AppData\Local\Temp\ccMlfTJJ.s:1087   .text.tlsv1_client_handshake_write:0000000000000008 .L0 
C:\Users\stapi\AppData\Local\Temp\ccMlfTJJ.s:1088   .text.tlsv1_client_handshake_write:0000000000000008 .L0 
C:\Users\stapi\AppData\Local\Temp\ccMlfTJJ.s:1089   .text.tlsv1_client_handshake_write:0000000000000008 .L0 
C:\Users\stapi\AppData\Local\Temp\ccMlfTJJ.s:1090   .text.tlsv1_client_handshake_write:0000000000000008 .L0 
C:\Users\stapi\AppData\Local\Temp\ccMlfTJJ.s:1091   .text.tlsv1_client_handshake_write:0000000000000008 .L0 
C:\Users\stapi\AppData\Local\Temp\ccMlfTJJ.s:1092   .text.tlsv1_client_handshake_write:0000000000000008 .L0 
C:\Users\stapi\AppData\Local\Temp\ccMlfTJJ.s:1093   .text.tlsv1_client_handshake_write:0000000000000008 .L0 
C:\Users\stapi\AppData\Local\Temp\ccMlfTJJ.s:1095   .text.tlsv1_client_handshake_write:0000000000000008 .L0 
C:\Users\stapi\AppData\Local\Temp\ccMlfTJJ.s:1096   .text.tlsv1_client_handshake_write:0000000000000008 .L0 
C:\Users\stapi\AppData\Local\Temp\ccMlfTJJ.s:1098   .text.tlsv1_client_handshake_write:000000000000000a .L0 
C:\Users\stapi\AppData\Local\Temp\ccMlfTJJ.s:1101   .text.tlsv1_client_handshake_write:000000000000000c .L0 
C:\Users\stapi\AppData\Local\Temp\ccMlfTJJ.s:1103   .text.tlsv1_client_handshake_write:000000000000000e .L0 
C:\Users\stapi\AppData\Local\Temp\ccMlfTJJ.s:1104   .text.tlsv1_client_handshake_write:0000000000000010 .L0 
C:\Users\stapi\AppData\Local\Temp\ccMlfTJJ.s:1106   .text.tlsv1_client_handshake_write:0000000000000010 .L0 
C:\Users\stapi\AppData\Local\Temp\ccMlfTJJ.s:1109   .text.tlsv1_client_handshake_write:0000000000000014 .L0 
C:\Users\stapi\AppData\Local\Temp\ccMlfTJJ.s:1118   .text.tlsv1_client_handshake_write:0000000000000024 .L0 
C:\Users\stapi\AppData\Local\Temp\ccMlfTJJ.s:1119   .text.tlsv1_client_handshake_write:0000000000000024 .L0 
C:\Users\stapi\AppData\Local\Temp\ccMlfTJJ.s:1120   .text.tlsv1_client_handshake_write:0000000000000024 .L0 
C:\Users\stapi\AppData\Local\Temp\ccMlfTJJ.s:1121   .text.tlsv1_client_handshake_write:0000000000000024 .L0 
C:\Users\stapi\AppData\Local\Temp\ccMlfTJJ.s:1122   .text.tlsv1_client_handshake_write:0000000000000024 .L0 
C:\Users\stapi\AppData\Local\Temp\ccMlfTJJ.s:1125   .text.tlsv1_client_handshake_write:0000000000000028 .L0 
C:\Users\stapi\AppData\Local\Temp\ccMlfTJJ.s:1126   .text.tlsv1_client_handshake_write:0000000000000028 .L0 
C:\Users\stapi\AppData\Local\Temp\ccMlfTJJ.s:1127   .text.tlsv1_client_handshake_write:0000000000000028 .L0 
C:\Users\stapi\AppData\Local\Temp\ccMlfTJJ.s:1129   .text.tlsv1_client_handshake_write:000000000000002c .L0 
C:\Users\stapi\AppData\Local\Temp\ccMlfTJJ.s:1131   .text.tlsv1_client_handshake_write:0000000000000030 .L0 
C:\Users\stapi\AppData\Local\Temp\ccMlfTJJ.s:1137   .text.tlsv1_client_handshake_write:0000000000000034 .L0 
C:\Users\stapi\AppData\Local\Temp\ccMlfTJJ.s:1138   .text.tlsv1_client_handshake_write:0000000000000034 .L0 
C:\Users\stapi\AppData\Local\Temp\ccMlfTJJ.s:1139   .text.tlsv1_client_handshake_write:0000000000000034 .L0 
C:\Users\stapi\AppData\Local\Temp\ccMlfTJJ.s:1140   .text.tlsv1_client_handshake_write:0000000000000034 .L0 
C:\Users\stapi\AppData\Local\Temp\ccMlfTJJ.s:1141   .text.tlsv1_client_handshake_write:0000000000000034 .L0 
C:\Users\stapi\AppData\Local\Temp\ccMlfTJJ.s:1143   .text.tlsv1_client_handshake_write:0000000000000038 .L0 
C:\Users\stapi\AppData\Local\Temp\ccMlfTJJ.s:1145   .text.tlsv1_client_handshake_write:000000000000003a .L0 
C:\Users\stapi\AppData\Local\Temp\ccMlfTJJ.s:1147   .text.tlsv1_client_handshake_write:000000000000003c .L0 
C:\Users\stapi\AppData\Local\Temp\ccMlfTJJ.s:1148   .text.tlsv1_client_handshake_write:000000000000003c .L0 
C:\Users\stapi\AppData\Local\Temp\ccMlfTJJ.s:1152   .text.tlsv1_client_handshake_write:000000000000003e .L0 
C:\Users\stapi\AppData\Local\Temp\ccMlfTJJ.s:1153   .text.tlsv1_client_handshake_write:000000000000003e .L0 
C:\Users\stapi\AppData\Local\Temp\ccMlfTJJ.s:1159   .text.tlsv1_client_handshake_write:0000000000000040 .L0 
C:\Users\stapi\AppData\Local\Temp\ccMlfTJJ.s:1163   .text.tlsv1_client_handshake_write:0000000000000044 .L0 
C:\Users\stapi\AppData\Local\Temp\ccMlfTJJ.s:1164   .text.tlsv1_client_handshake_write:0000000000000044 .L0 
C:\Users\stapi\AppData\Local\Temp\ccMlfTJJ.s:1170   .text.tlsv1_client_handshake_write:0000000000000050 .L0 
C:\Users\stapi\AppData\Local\Temp\ccMlfTJJ.s:1171   .text.tlsv1_client_handshake_write:0000000000000050 .L0 
C:\Users\stapi\AppData\Local\Temp\ccMlfTJJ.s:1173   .text.tlsv1_client_handshake_write:0000000000000054 .L0 
C:\Users\stapi\AppData\Local\Temp\ccMlfTJJ.s:1174   .text.tlsv1_client_handshake_write:0000000000000054 .L0 
C:\Users\stapi\AppData\Local\Temp\ccMlfTJJ.s:1176   .text.tlsv1_client_handshake_write:0000000000000058 .L0 
C:\Users\stapi\AppData\Local\Temp\ccMlfTJJ.s:1178   .text.tlsv1_client_handshake_write:000000000000005a .L0 
C:\Users\stapi\AppData\Local\Temp\ccMlfTJJ.s:1179   .text.tlsv1_client_handshake_write:000000000000005a .L0 
C:\Users\stapi\AppData\Local\Temp\ccMlfTJJ.s:1182   .text.tlsv1_client_handshake_write:000000000000005e .L0 
C:\Users\stapi\AppData\Local\Temp\ccMlfTJJ.s:1183   .text.tlsv1_client_handshake_write:000000000000005e .L0 
C:\Users\stapi\AppData\Local\Temp\ccMlfTJJ.s:1189   .text.tlsv1_client_handshake_write:0000000000000064 .L0 
C:\Users\stapi\AppData\Local\Temp\ccMlfTJJ.s:1190   .text.tlsv1_client_handshake_write:0000000000000064 .L0 
C:\Users\stapi\AppData\Local\Temp\ccMlfTJJ.s:1191   .text.tlsv1_client_handshake_write:0000000000000064 .L0 
C:\Users\stapi\AppData\Local\Temp\ccMlfTJJ.s:1192   .text.tlsv1_client_handshake_write:0000000000000064 .L0 
C:\Users\stapi\AppData\Local\Temp\ccMlfTJJ.s:1193   .text.tlsv1_client_handshake_write:0000000000000064 .L0 
C:\Users\stapi\AppData\Local\Temp\ccMlfTJJ.s:1194   .text.tlsv1_client_handshake_write:0000000000000064 .L0 
C:\Users\stapi\AppData\Local\Temp\ccMlfTJJ.s:1195   .text.tlsv1_client_handshake_write:0000000000000064 .L0 
C:\Users\stapi\AppData\Local\Temp\ccMlfTJJ.s:1207   .text.tlsv1_client_handshake_write:000000000000006a .L0 
C:\Users\stapi\AppData\Local\Temp\ccMlfTJJ.s:1213   .text.tlsv1_client_handshake_write:000000000000007a .L0 
C:\Users\stapi\AppData\Local\Temp\ccMlfTJJ.s:1223   .text.tlsv1_client_handshake_write:000000000000007c .L0 
C:\Users\stapi\AppData\Local\Temp\ccMlfTJJ.s:1224   .text.tlsv1_client_handshake_write:000000000000007c .L0 
C:\Users\stapi\AppData\Local\Temp\ccMlfTJJ.s:1226   .text.tlsv1_client_handshake_write:0000000000000080 .L0 
C:\Users\stapi\AppData\Local\Temp\ccMlfTJJ.s:1228   .text.tlsv1_client_handshake_write:0000000000000082 .L0 
C:\Users\stapi\AppData\Local\Temp\ccMlfTJJ.s:1232   .text.tlsv1_client_handshake_write:0000000000000086 .L0 
C:\Users\stapi\AppData\Local\Temp\ccMlfTJJ.s:1233   .text.tlsv1_client_handshake_write:0000000000000086 .L0 
C:\Users\stapi\AppData\Local\Temp\ccMlfTJJ.s:1236   .text.tlsv1_client_handshake_write:000000000000008e .L0 
C:\Users\stapi\AppData\Local\Temp\ccMlfTJJ.s:1238   .text.tlsv1_client_handshake_write:0000000000000090 .L0 
C:\Users\stapi\AppData\Local\Temp\ccMlfTJJ.s:1239   .text.tlsv1_client_handshake_write:0000000000000090 .L0 
C:\Users\stapi\AppData\Local\Temp\ccMlfTJJ.s:1254   .text.tlsv1_client_handshake_write:00000000000000a6 .L0 
C:\Users\stapi\AppData\Local\Temp\ccMlfTJJ.s:1260   .text.tlsv1_client_handshake_write:00000000000000b8 .L0 
C:\Users\stapi\AppData\Local\Temp\ccMlfTJJ.s:1261   .text.tlsv1_client_handshake_write:00000000000000b8 .L0 
C:\Users\stapi\AppData\Local\Temp\ccMlfTJJ.s:1262   .text.tlsv1_client_handshake_write:00000000000000b8 .L0 
C:\Users\stapi\AppData\Local\Temp\ccMlfTJJ.s:1263   .text.tlsv1_client_handshake_write:00000000000000b8 .L0 
C:\Users\stapi\AppData\Local\Temp\ccMlfTJJ.s:1264   .text.tlsv1_client_handshake_write:00000000000000b8 .L0 
C:\Users\stapi\AppData\Local\Temp\ccMlfTJJ.s:1267   .text.tlsv1_client_handshake_write:00000000000000bc .L0 
C:\Users\stapi\AppData\Local\Temp\ccMlfTJJ.s:1268   .text.tlsv1_client_handshake_write:00000000000000bc .L0 
C:\Users\stapi\AppData\Local\Temp\ccMlfTJJ.s:1269   .text.tlsv1_client_handshake_write:00000000000000bc .L0 
C:\Users\stapi\AppData\Local\Temp\ccMlfTJJ.s:1270   .text.tlsv1_client_handshake_write:00000000000000bc .L0 
C:\Users\stapi\AppData\Local\Temp\ccMlfTJJ.s:1271   .text.tlsv1_client_handshake_write:00000000000000bc .L0 
C:\Users\stapi\AppData\Local\Temp\ccMlfTJJ.s:1273   .text.tlsv1_client_handshake_write:00000000000000c0 .L0 
C:\Users\stapi\AppData\Local\Temp\ccMlfTJJ.s:1276   .text.tlsv1_client_handshake_write:00000000000000c4 .L0 
C:\Users\stapi\AppData\Local\Temp\ccMlfTJJ.s:1277   .text.tlsv1_client_handshake_write:00000000000000c4 .L0 
C:\Users\stapi\AppData\Local\Temp\ccMlfTJJ.s:1282   .text.tlsv1_client_handshake_write:00000000000000cc .L0 
C:\Users\stapi\AppData\Local\Temp\ccMlfTJJ.s:1286   .text.tlsv1_client_handshake_write:00000000000000d0 .L0 
C:\Users\stapi\AppData\Local\Temp\ccMlfTJJ.s:1287   .text.tlsv1_client_handshake_write:00000000000000d0 .L0 
C:\Users\stapi\AppData\Local\Temp\ccMlfTJJ.s:1289   .text.tlsv1_client_handshake_write:00000000000000d4 .L0 
C:\Users\stapi\AppData\Local\Temp\ccMlfTJJ.s:1291   .text.tlsv1_client_handshake_write:00000000000000d6 .L0 
C:\Users\stapi\AppData\Local\Temp\ccMlfTJJ.s:1294   .text.tlsv1_client_handshake_write:00000000000000dc .L0 
C:\Users\stapi\AppData\Local\Temp\ccMlfTJJ.s:1297   .text.tlsv1_client_handshake_write:00000000000000e0 .L0 
C:\Users\stapi\AppData\Local\Temp\ccMlfTJJ.s:1304   .text.tlsv1_client_handshake_write:00000000000000f2 .L0 
C:\Users\stapi\AppData\Local\Temp\ccMlfTJJ.s:1306   .text.tlsv1_client_handshake_write:00000000000000f6 .L0 
C:\Users\stapi\AppData\Local\Temp\ccMlfTJJ.s:1310   .text.tlsv1_client_handshake_write:00000000000000f8 .L0 
C:\Users\stapi\AppData\Local\Temp\ccMlfTJJ.s:1312   .text.tlsv1_client_handshake_write:00000000000000fc .L0 
C:\Users\stapi\AppData\Local\Temp\ccMlfTJJ.s:1314   .text.tlsv1_client_handshake_write:0000000000000100 .L0 
C:\Users\stapi\AppData\Local\Temp\ccMlfTJJ.s:1316   .text.tlsv1_client_handshake_write:0000000000000104 .L0 
C:\Users\stapi\AppData\Local\Temp\ccMlfTJJ.s:1320   .text.tlsv1_client_handshake_write:0000000000000108 .L0 
C:\Users\stapi\AppData\Local\Temp\ccMlfTJJ.s:1322   .text.tlsv1_client_handshake_write:000000000000010c .L0 
C:\Users\stapi\AppData\Local\Temp\ccMlfTJJ.s:1326   .text.tlsv1_client_handshake_write:000000000000010e .L0 
C:\Users\stapi\AppData\Local\Temp\ccMlfTJJ.s:1332   .text.tlsv1_client_handshake_write:0000000000000112 .L0 
C:\Users\stapi\AppData\Local\Temp\ccMlfTJJ.s:1336   .text.tlsv1_client_handshake_write:0000000000000116 .L0 
C:\Users\stapi\AppData\Local\Temp\ccMlfTJJ.s:1341   .text.tlsv1_client_handshake_write:000000000000011a .L0 
C:\Users\stapi\AppData\Local\Temp\ccMlfTJJ.s:1342   .text.tlsv1_client_handshake_write:000000000000011a .L0 
C:\Users\stapi\AppData\Local\Temp\ccMlfTJJ.s:1343   .text.tlsv1_client_handshake_write:000000000000011a .L0 
C:\Users\stapi\AppData\Local\Temp\ccMlfTJJ.s:1346   .text.tlsv1_client_handshake_write:000000000000011a .L0 
C:\Users\stapi\AppData\Local\Temp\ccMlfTJJ.s:1349   .text.tlsv1_client_handshake_write:000000000000011a .L0 
C:\Users\stapi\AppData\Local\Temp\ccMlfTJJ.s:1350   .text.tlsv1_client_handshake_write:000000000000011a .L0 
C:\Users\stapi\AppData\Local\Temp\ccMlfTJJ.s:1351   .text.tlsv1_client_handshake_write:000000000000011a .L0 
C:\Users\stapi\AppData\Local\Temp\ccMlfTJJ.s:1353   .text.tlsv1_client_handshake_write:000000000000011e .L0 
C:\Users\stapi\AppData\Local\Temp\ccMlfTJJ.s:1354   .text.tlsv1_client_handshake_write:000000000000011e .L0 
C:\Users\stapi\AppData\Local\Temp\ccMlfTJJ.s:1356   .text.tlsv1_client_handshake_write:0000000000000122 .L0 
C:\Users\stapi\AppData\Local\Temp\ccMlfTJJ.s:1358   .text.tlsv1_client_handshake_write:0000000000000126 .L0 
C:\Users\stapi\AppData\Local\Temp\ccMlfTJJ.s:1359   .text.tlsv1_client_handshake_write:0000000000000126 .L0 
C:\Users\stapi\AppData\Local\Temp\ccMlfTJJ.s:1364   .text.tlsv1_client_handshake_write:000000000000012a .L0 
C:\Users\stapi\AppData\Local\Temp\ccMlfTJJ.s:1365   .text.tlsv1_client_handshake_write:000000000000012a .L0 
C:\Users\stapi\AppData\Local\Temp\ccMlfTJJ.s:1375   .text.tlsv1_client_handshake_write:0000000000000146 .L0 
C:\Users\stapi\AppData\Local\Temp\ccMlfTJJ.s:1383   .text.tlsv1_client_handshake_write:000000000000014a .L0 
C:\Users\stapi\AppData\Local\Temp\ccMlfTJJ.s:1393   .text.tlsv1_client_handshake_write:0000000000000154 .L0 
C:\Users\stapi\AppData\Local\Temp\ccMlfTJJ.s:1394   .text.tlsv1_client_handshake_write:0000000000000154 .L0 
C:\Users\stapi\AppData\Local\Temp\ccMlfTJJ.s:1396   .text.tlsv1_client_handshake_write:0000000000000158 .L0 
C:\Users\stapi\AppData\Local\Temp\ccMlfTJJ.s:1398   .text.tlsv1_client_handshake_write:000000000000015c .L0 
C:\Users\stapi\AppData\Local\Temp\ccMlfTJJ.s:1400   .text.tlsv1_client_handshake_write:0000000000000160 .L0 
C:\Users\stapi\AppData\Local\Temp\ccMlfTJJ.s:1402   .text.tlsv1_client_handshake_write:0000000000000164 .L0 
C:\Users\stapi\AppData\Local\Temp\ccMlfTJJ.s:1408   .text.tlsv1_client_handshake_write:0000000000000176 .L0 
C:\Users\stapi\AppData\Local\Temp\ccMlfTJJ.s:1414   .text.tlsv1_client_handshake_write:0000000000000178 .L0 
C:\Users\stapi\AppData\Local\Temp\ccMlfTJJ.s:1415   .text.tlsv1_client_handshake_write:0000000000000178 .L0 
C:\Users\stapi\AppData\Local\Temp\ccMlfTJJ.s:1416   .text.tlsv1_client_handshake_write:0000000000000178 .L0 
C:\Users\stapi\AppData\Local\Temp\ccMlfTJJ.s:1418   .text.tlsv1_client_handshake_write:000000000000017c .L0 
C:\Users\stapi\AppData\Local\Temp\ccMlfTJJ.s:1420   .text.tlsv1_client_handshake_write:0000000000000180 .L0 
C:\Users\stapi\AppData\Local\Temp\ccMlfTJJ.s:1421   .text.tlsv1_client_handshake_write:0000000000000180 .L0 
C:\Users\stapi\AppData\Local\Temp\ccMlfTJJ.s:1423   .text.tlsv1_client_handshake_write:0000000000000184 .L0 
C:\Users\stapi\AppData\Local\Temp\ccMlfTJJ.s:1425   .text.tlsv1_client_handshake_write:0000000000000188 .L0 
C:\Users\stapi\AppData\Local\Temp\ccMlfTJJ.s:1426   .text.tlsv1_client_handshake_write:0000000000000188 .L0 
C:\Users\stapi\AppData\Local\Temp\ccMlfTJJ.s:1431   .text.tlsv1_client_handshake_write:000000000000018c .L0 
C:\Users\stapi\AppData\Local\Temp\ccMlfTJJ.s:1432   .text.tlsv1_client_handshake_write:000000000000018c .L0 
C:\Users\stapi\AppData\Local\Temp\ccMlfTJJ.s:1435   .text.tlsv1_client_handshake_write:0000000000000194 .L0 
C:\Users\stapi\AppData\Local\Temp\ccMlfTJJ.s:1438   .text.tlsv1_client_handshake_write:0000000000000196 .L0 
C:\Users\stapi\AppData\Local\Temp\ccMlfTJJ.s:1442   .text.tlsv1_client_handshake_write:00000000000001a0 .L0 
C:\Users\stapi\AppData\Local\Temp\ccMlfTJJ.s:1443   .text.tlsv1_client_handshake_write:00000000000001a0 .L0 
C:\Users\stapi\AppData\Local\Temp\ccMlfTJJ.s:1445   .text.tlsv1_client_handshake_write:00000000000001a4 .L0 
C:\Users\stapi\AppData\Local\Temp\ccMlfTJJ.s:1447   .text.tlsv1_client_handshake_write:00000000000001a6 .L0 
C:\Users\stapi\AppData\Local\Temp\ccMlfTJJ.s:1450   .text.tlsv1_client_handshake_write:00000000000001a8 .L0 
C:\Users\stapi\AppData\Local\Temp\ccMlfTJJ.s:1451   .text.tlsv1_client_handshake_write:00000000000001a8 .L0 
C:\Users\stapi\AppData\Local\Temp\ccMlfTJJ.s:1454   .text.tlsv1_client_handshake_write:00000000000001b0 .L0 
C:\Users\stapi\AppData\Local\Temp\ccMlfTJJ.s:1456   .text.tlsv1_client_handshake_write:00000000000001b2 .L0 
C:\Users\stapi\AppData\Local\Temp\ccMlfTJJ.s:1457   .text.tlsv1_client_handshake_write:00000000000001b2 .L0 
C:\Users\stapi\AppData\Local\Temp\ccMlfTJJ.s:1468   .text.tlsv1_client_handshake_write:00000000000001c8 .L0 
C:\Users\stapi\AppData\Local\Temp\ccMlfTJJ.s:1469   .text.tlsv1_client_handshake_write:00000000000001c8 .L0 
C:\Users\stapi\AppData\Local\Temp\ccMlfTJJ.s:1471   .text.tlsv1_client_handshake_write:00000000000001ca .L0 
C:\Users\stapi\AppData\Local\Temp\ccMlfTJJ.s:1474   .text.tlsv1_client_handshake_write:00000000000001d0 .L0 
C:\Users\stapi\AppData\Local\Temp\ccMlfTJJ.s:1477   .text.tlsv1_client_handshake_write:00000000000001d4 .L0 
C:\Users\stapi\AppData\Local\Temp\ccMlfTJJ.s:1481   .text.tlsv1_client_handshake_write:00000000000001de .L0 
C:\Users\stapi\AppData\Local\Temp\ccMlfTJJ.s:1482   .text.tlsv1_client_handshake_write:00000000000001de .L0 
C:\Users\stapi\AppData\Local\Temp\ccMlfTJJ.s:1488   .text.tlsv1_client_handshake_write:00000000000001e0 .L0 
C:\Users\stapi\AppData\Local\Temp\ccMlfTJJ.s:1491   .text.tlsv1_client_handshake_write:00000000000001e0 .L0 
C:\Users\stapi\AppData\Local\Temp\ccMlfTJJ.s:1492   .text.tlsv1_client_handshake_write:00000000000001e0 .L0 
C:\Users\stapi\AppData\Local\Temp\ccMlfTJJ.s:1493   .text.tlsv1_client_handshake_write:00000000000001e0 .L0 
C:\Users\stapi\AppData\Local\Temp\ccMlfTJJ.s:1494   .text.tlsv1_client_handshake_write:00000000000001e0 .L0 
C:\Users\stapi\AppData\Local\Temp\ccMlfTJJ.s:1495   .text.tlsv1_client_handshake_write:00000000000001e0 .L0 
C:\Users\stapi\AppData\Local\Temp\ccMlfTJJ.s:1496   .text.tlsv1_client_handshake_write:00000000000001e0 .L0 
C:\Users\stapi\AppData\Local\Temp\ccMlfTJJ.s:1497   .text.tlsv1_client_handshake_write:00000000000001e0 .L0 
C:\Users\stapi\AppData\Local\Temp\ccMlfTJJ.s:1499   .text.tlsv1_client_handshake_write:00000000000001e4 .L0 
C:\Users\stapi\AppData\Local\Temp\ccMlfTJJ.s:1501   .text.tlsv1_client_handshake_write:00000000000001e6 .L0 
C:\Users\stapi\AppData\Local\Temp\ccMlfTJJ.s:1504   .text.tlsv1_client_handshake_write:00000000000001ee .L0 
C:\Users\stapi\AppData\Local\Temp\ccMlfTJJ.s:1505   .text.tlsv1_client_handshake_write:00000000000001ee .L0 
C:\Users\stapi\AppData\Local\Temp\ccMlfTJJ.s:1507   .text.tlsv1_client_handshake_write:00000000000001f0 .L0 
C:\Users\stapi\AppData\Local\Temp\ccMlfTJJ.s:1508   .text.tlsv1_client_handshake_write:00000000000001f0 .L0 
C:\Users\stapi\AppData\Local\Temp\ccMlfTJJ.s:1512   .text.tlsv1_client_handshake_write:00000000000001f4 .L0 
C:\Users\stapi\AppData\Local\Temp\ccMlfTJJ.s:1513   .text.tlsv1_client_handshake_write:00000000000001f4 .L0 
C:\Users\stapi\AppData\Local\Temp\ccMlfTJJ.s:1516   .text.tlsv1_client_handshake_write:00000000000001f6 .L0 
C:\Users\stapi\AppData\Local\Temp\ccMlfTJJ.s:1523   .text.tlsv1_client_handshake_write:0000000000000208 .L0 
C:\Users\stapi\AppData\Local\Temp\ccMlfTJJ.s:1524   .text.tlsv1_client_handshake_write:0000000000000208 .L0 
C:\Users\stapi\AppData\Local\Temp\ccMlfTJJ.s:1525   .text.tlsv1_client_handshake_write:0000000000000208 .L0 
C:\Users\stapi\AppData\Local\Temp\ccMlfTJJ.s:1528   .text.tlsv1_client_handshake_write:000000000000020e .L0 
C:\Users\stapi\AppData\Local\Temp\ccMlfTJJ.s:1530   .text.tlsv1_client_handshake_write:0000000000000210 .L0 
C:\Users\stapi\AppData\Local\Temp\ccMlfTJJ.s:1533   .text.tlsv1_client_handshake_write:0000000000000216 .L0 
C:\Users\stapi\AppData\Local\Temp\ccMlfTJJ.s:1535   .text.tlsv1_client_handshake_write:000000000000021a .L0 
C:\Users\stapi\AppData\Local\Temp\ccMlfTJJ.s:1538   .text.tlsv1_client_handshake_write:000000000000021e .L0 
C:\Users\stapi\AppData\Local\Temp\ccMlfTJJ.s:1539   .text.tlsv1_client_handshake_write:000000000000021e .L0 
C:\Users\stapi\AppData\Local\Temp\ccMlfTJJ.s:1540   .text.tlsv1_client_handshake_write:000000000000021e .L0 
C:\Users\stapi\AppData\Local\Temp\ccMlfTJJ.s:1541   .text.tlsv1_client_handshake_write:000000000000021e .L0 
C:\Users\stapi\AppData\Local\Temp\ccMlfTJJ.s:1542   .text.tlsv1_client_handshake_write:000000000000021e .L0 
C:\Users\stapi\AppData\Local\Temp\ccMlfTJJ.s:1543   .text.tlsv1_client_handshake_write:000000000000021e .L0 
C:\Users\stapi\AppData\Local\Temp\ccMlfTJJ.s:1548   .text.tlsv1_client_handshake_write:0000000000000222 .L0 
C:\Users\stapi\AppData\Local\Temp\ccMlfTJJ.s:1549   .text.tlsv1_client_handshake_write:0000000000000222 .L0 
C:\Users\stapi\AppData\Local\Temp\ccMlfTJJ.s:1550   .text.tlsv1_client_handshake_write:0000000000000222 .L0 
C:\Users\stapi\AppData\Local\Temp\ccMlfTJJ.s:1551   .text.tlsv1_client_handshake_write:0000000000000222 .L0 
C:\Users\stapi\AppData\Local\Temp\ccMlfTJJ.s:1552   .text.tlsv1_client_handshake_write:0000000000000222 .L0 
C:\Users\stapi\AppData\Local\Temp\ccMlfTJJ.s:1555   .text.tlsv1_client_handshake_write:0000000000000226 .L0 
C:\Users\stapi\AppData\Local\Temp\ccMlfTJJ.s:1556   .text.tlsv1_client_handshake_write:0000000000000226 .L0 
C:\Users\stapi\AppData\Local\Temp\ccMlfTJJ.s:1562   .text.tlsv1_client_handshake_write:0000000000000232 .L0 
C:\Users\stapi\AppData\Local\Temp\ccMlfTJJ.s:1563   .text.tlsv1_client_handshake_write:0000000000000232 .L0 
C:\Users\stapi\AppData\Local\Temp\ccMlfTJJ.s:1565   .text.tlsv1_client_handshake_write:0000000000000234 .L0 
C:\Users\stapi\AppData\Local\Temp\ccMlfTJJ.s:1574   .text.tlsv1_client_handshake_write:000000000000023c .L0 
C:\Users\stapi\AppData\Local\Temp\ccMlfTJJ.s:1585   .text.tlsv1_client_handshake_write:0000000000000248 .L0 
C:\Users\stapi\AppData\Local\Temp\ccMlfTJJ.s:1586   .text.tlsv1_client_handshake_write:0000000000000248 .L0 
C:\Users\stapi\AppData\Local\Temp\ccMlfTJJ.s:1590   .text.tlsv1_client_handshake_write:0000000000000252 .L0 
C:\Users\stapi\AppData\Local\Temp\ccMlfTJJ.s:1592   .text.tlsv1_client_handshake_write:0000000000000254 .L0 
C:\Users\stapi\AppData\Local\Temp\ccMlfTJJ.s:1597   .text.tlsv1_client_handshake_write:000000000000025c .L0 
C:\Users\stapi\AppData\Local\Temp\ccMlfTJJ.s:1601   .text.tlsv1_client_handshake_write:0000000000000266 .L0 
C:\Users\stapi\AppData\Local\Temp\ccMlfTJJ.s:1607   .text.tlsv1_client_handshake_write:0000000000000276 .L0 
C:\Users\stapi\AppData\Local\Temp\ccMlfTJJ.s:1610   .text.tlsv1_client_handshake_write:0000000000000278 .L0 
C:\Users\stapi\AppData\Local\Temp\ccMlfTJJ.s:1622   .text.tlsv1_client_handshake_write:0000000000000280 .L0 
C:\Users\stapi\AppData\Local\Temp\ccMlfTJJ.s:1623   .text.tlsv1_client_handshake_write:0000000000000280 .L0 
C:\Users\stapi\AppData\Local\Temp\ccMlfTJJ.s:1630   .text.tlsv1_client_handshake_write:000000000000028a .L0 
C:\Users\stapi\AppData\Local\Temp\ccMlfTJJ.s:1631   .text.tlsv1_client_handshake_write:000000000000028a .L0 
C:\Users\stapi\AppData\Local\Temp\ccMlfTJJ.s:1632   .text.tlsv1_client_handshake_write:000000000000028a .L0 
C:\Users\stapi\AppData\Local\Temp\ccMlfTJJ.s:1643   .text.tlsv1_client_handshake_write:000000000000028e .L0 
C:\Users\stapi\AppData\Local\Temp\ccMlfTJJ.s:1644   .text.tlsv1_client_handshake_write:000000000000028e .L0 
C:\Users\stapi\AppData\Local\Temp\ccMlfTJJ.s:1650   .text.tlsv1_client_handshake_write:000000000000029e .L0 
C:\Users\stapi\AppData\Local\Temp\ccMlfTJJ.s:1652   .text.tlsv1_client_handshake_write:00000000000002a2 .L0 
C:\Users\stapi\AppData\Local\Temp\ccMlfTJJ.s:1653   .text.tlsv1_client_handshake_write:00000000000002a2 .L0 
C:\Users\stapi\AppData\Local\Temp\ccMlfTJJ.s:1657   .text.tlsv1_client_handshake_write:00000000000002a6 .L0 
C:\Users\stapi\AppData\Local\Temp\ccMlfTJJ.s:1658   .text.tlsv1_client_handshake_write:00000000000002a6 .L0 
C:\Users\stapi\AppData\Local\Temp\ccMlfTJJ.s:1659   .text.tlsv1_client_handshake_write:00000000000002a6 .L0 
C:\Users\stapi\AppData\Local\Temp\ccMlfTJJ.s:1664   .text.tlsv1_client_handshake_write:00000000000002aa .L0 
C:\Users\stapi\AppData\Local\Temp\ccMlfTJJ.s:1666   .text.tlsv1_client_handshake_write:00000000000002ae .L0 
C:\Users\stapi\AppData\Local\Temp\ccMlfTJJ.s:1670   .text.tlsv1_client_handshake_write:00000000000002b4 .L0 
C:\Users\stapi\AppData\Local\Temp\ccMlfTJJ.s:1678   .text.tlsv1_client_handshake_write:00000000000002ca .L0 
C:\Users\stapi\AppData\Local\Temp\ccMlfTJJ.s:1679   .text.tlsv1_client_handshake_write:00000000000002ca .L0 
C:\Users\stapi\AppData\Local\Temp\ccMlfTJJ.s:1681   .text.tlsv1_client_handshake_write:00000000000002ce .L0 
C:\Users\stapi\AppData\Local\Temp\ccMlfTJJ.s:1683   .text.tlsv1_client_handshake_write:00000000000002d0 .L0 
C:\Users\stapi\AppData\Local\Temp\ccMlfTJJ.s:1684   .text.tlsv1_client_handshake_write:00000000000002d0 .L0 
C:\Users\stapi\AppData\Local\Temp\ccMlfTJJ.s:1689   .text.tlsv1_client_handshake_write:00000000000002da .L0 
C:\Users\stapi\AppData\Local\Temp\ccMlfTJJ.s:1690   .text.tlsv1_client_handshake_write:00000000000002da .L0 
C:\Users\stapi\AppData\Local\Temp\ccMlfTJJ.s:1692   .text.tlsv1_client_handshake_write:00000000000002dc .L0 
C:\Users\stapi\AppData\Local\Temp\ccMlfTJJ.s:1698   .text.tlsv1_client_handshake_write:00000000000002e6 .L0 
C:\Users\stapi\AppData\Local\Temp\ccMlfTJJ.s:1699   .text.tlsv1_client_handshake_write:00000000000002e6 .L0 
C:\Users\stapi\AppData\Local\Temp\ccMlfTJJ.s:1702   .text.tlsv1_client_handshake_write:00000000000002e8 .L0 
C:\Users\stapi\AppData\Local\Temp\ccMlfTJJ.s:1703   .text.tlsv1_client_handshake_write:00000000000002e8 .L0 
C:\Users\stapi\AppData\Local\Temp\ccMlfTJJ.s:1709   .text.tlsv1_client_handshake_write:00000000000002ec .L0 
C:\Users\stapi\AppData\Local\Temp\ccMlfTJJ.s:1710   .text.tlsv1_client_handshake_write:00000000000002ec .L0 
C:\Users\stapi\AppData\Local\Temp\ccMlfTJJ.s:1723   .text.tlsv1_client_handshake_write:0000000000000312 .L0 
C:\Users\stapi\AppData\Local\Temp\ccMlfTJJ.s:1727   .text.tlsv1_client_handshake_write:0000000000000314 .L0 
C:\Users\stapi\AppData\Local\Temp\ccMlfTJJ.s:1733   .text.tlsv1_client_handshake_write:0000000000000324 .L0 
C:\Users\stapi\AppData\Local\Temp\ccMlfTJJ.s:1738   .text.tlsv1_client_handshake_write:000000000000032e .L0 
C:\Users\stapi\AppData\Local\Temp\ccMlfTJJ.s:1739   .text.tlsv1_client_handshake_write:000000000000032e .L0 
C:\Users\stapi\AppData\Local\Temp\ccMlfTJJ.s:1744   .text.tlsv1_client_handshake_write:0000000000000332 .L0 
C:\Users\stapi\AppData\Local\Temp\ccMlfTJJ.s:1754   .text.tlsv1_client_handshake_write:0000000000000348 .L0 
C:\Users\stapi\AppData\Local\Temp\ccMlfTJJ.s:1755   .text.tlsv1_client_handshake_write:0000000000000348 .L0 
C:\Users\stapi\AppData\Local\Temp\ccMlfTJJ.s:1759   .text.tlsv1_client_handshake_write:000000000000034c .L0 
C:\Users\stapi\AppData\Local\Temp\ccMlfTJJ.s:1761   .text.tlsv1_client_handshake_write:0000000000000350 .L0 
C:\Users\stapi\AppData\Local\Temp\ccMlfTJJ.s:1764   .text.tlsv1_client_handshake_write:0000000000000356 .L0 
C:\Users\stapi\AppData\Local\Temp\ccMlfTJJ.s:1771   .text.tlsv1_client_handshake_write:0000000000000358 .L0 
C:\Users\stapi\AppData\Local\Temp\ccMlfTJJ.s:1772   .text.tlsv1_client_handshake_write:0000000000000358 .L0 
C:\Users\stapi\AppData\Local\Temp\ccMlfTJJ.s:1777   .text.tlsv1_client_handshake_write:000000000000035c .L0 
C:\Users\stapi\AppData\Local\Temp\ccMlfTJJ.s:1781   .text.tlsv1_client_handshake_write:0000000000000366 .L0 
C:\Users\stapi\AppData\Local\Temp\ccMlfTJJ.s:1782   .text.tlsv1_client_handshake_write:0000000000000366 .L0 
C:\Users\stapi\AppData\Local\Temp\ccMlfTJJ.s:1787   .text.tlsv1_client_handshake_write:000000000000036a .L0 
C:\Users\stapi\AppData\Local\Temp\ccMlfTJJ.s:1788   .text.tlsv1_client_handshake_write:000000000000036a .L0 
C:\Users\stapi\AppData\Local\Temp\ccMlfTJJ.s:1789   .text.tlsv1_client_handshake_write:000000000000036a .L0 
C:\Users\stapi\AppData\Local\Temp\ccMlfTJJ.s:1791   .text.tlsv1_client_handshake_write:000000000000036e .L0 
C:\Users\stapi\AppData\Local\Temp\ccMlfTJJ.s:1793   .text.tlsv1_client_handshake_write:0000000000000372 .L0 
C:\Users\stapi\AppData\Local\Temp\ccMlfTJJ.s:1799   .text.tlsv1_client_handshake_write:0000000000000384 .L0 
C:\Users\stapi\AppData\Local\Temp\ccMlfTJJ.s:1802   .text.tlsv1_client_handshake_write:0000000000000386 .L0 
C:\Users\stapi\AppData\Local\Temp\ccMlfTJJ.s:1807   .text.tlsv1_client_handshake_write:0000000000000392 .L0 
C:\Users\stapi\AppData\Local\Temp\ccMlfTJJ.s:1808   .text.tlsv1_client_handshake_write:0000000000000392 .L0 
C:\Users\stapi\AppData\Local\Temp\ccMlfTJJ.s:1810   .text.tlsv1_client_handshake_write:0000000000000394 .L0 
C:\Users\stapi\AppData\Local\Temp\ccMlfTJJ.s:1812   .text.tlsv1_client_handshake_write:0000000000000396 .L0 
C:\Users\stapi\AppData\Local\Temp\ccMlfTJJ.s:1815   .text.tlsv1_client_handshake_write:0000000000000398 .L0 
C:\Users\stapi\AppData\Local\Temp\ccMlfTJJ.s:1818   .text.tlsv1_client_handshake_write:00000000000003a0 .L0 
C:\Users\stapi\AppData\Local\Temp\ccMlfTJJ.s:1819   .text.tlsv1_client_handshake_write:00000000000003a0 .L0 
C:\Users\stapi\AppData\Local\Temp\ccMlfTJJ.s:1821   .text.tlsv1_client_handshake_write:00000000000003a4 .L0 
C:\Users\stapi\AppData\Local\Temp\ccMlfTJJ.s:1823   .text.tlsv1_client_handshake_write:00000000000003a6 .L0 
C:\Users\stapi\AppData\Local\Temp\ccMlfTJJ.s:1824   .text.tlsv1_client_handshake_write:00000000000003a6 .L0 
C:\Users\stapi\AppData\Local\Temp\ccMlfTJJ.s:1829   .text.tlsv1_client_handshake_write:00000000000003b0 .L0 
C:\Users\stapi\AppData\Local\Temp\ccMlfTJJ.s:1830   .text.tlsv1_client_handshake_write:00000000000003b0 .L0 
C:\Users\stapi\AppData\Local\Temp\ccMlfTJJ.s:1832   .text.tlsv1_client_handshake_write:00000000000003b2 .L0 
C:\Users\stapi\AppData\Local\Temp\ccMlfTJJ.s:1837   .text.tlsv1_client_handshake_write:00000000000003bc .L0 
C:\Users\stapi\AppData\Local\Temp\ccMlfTJJ.s:1838   .text.tlsv1_client_handshake_write:00000000000003bc .L0 
C:\Users\stapi\AppData\Local\Temp\ccMlfTJJ.s:1851   .text.tlsv1_client_handshake_write:00000000000003de .L0 
C:\Users\stapi\AppData\Local\Temp\ccMlfTJJ.s:1853   .text.tlsv1_client_handshake_write:00000000000003e0 .L0 
C:\Users\stapi\AppData\Local\Temp\ccMlfTJJ.s:1861   .text.tlsv1_client_handshake_write:00000000000003f6 .L0 
C:\Users\stapi\AppData\Local\Temp\ccMlfTJJ.s:1867   .text.tlsv1_client_handshake_write:0000000000000404 .L0 
C:\Users\stapi\AppData\Local\Temp\ccMlfTJJ.s:1871   .text.tlsv1_client_handshake_write:000000000000040e .L0 
C:\Users\stapi\AppData\Local\Temp\ccMlfTJJ.s:1872   .text.tlsv1_client_handshake_write:000000000000040e .L0 
C:\Users\stapi\AppData\Local\Temp\ccMlfTJJ.s:1878   .text.tlsv1_client_handshake_write:000000000000041c .L0 
C:\Users\stapi\AppData\Local\Temp\ccMlfTJJ.s:1880   .text.tlsv1_client_handshake_write:000000000000041e .L0 
C:\Users\stapi\AppData\Local\Temp\ccMlfTJJ.s:1886   .text.tlsv1_client_handshake_write:0000000000000430 .L0 
C:\Users\stapi\AppData\Local\Temp\ccMlfTJJ.s:1894   .text.tlsv1_client_handshake_write:0000000000000442 .L0 
C:\Users\stapi\AppData\Local\Temp\ccMlfTJJ.s:1900   .text.tlsv1_client_handshake_write:0000000000000450 .L0 
C:\Users\stapi\AppData\Local\Temp\ccMlfTJJ.s:1904   .text.tlsv1_client_handshake_write:000000000000045a .L0 
C:\Users\stapi\AppData\Local\Temp\ccMlfTJJ.s:1911   .text.tlsv1_client_handshake_write:0000000000000464 .L0 
C:\Users\stapi\AppData\Local\Temp\ccMlfTJJ.s:1912   .text.tlsv1_client_handshake_write:0000000000000464 .L0 
C:\Users\stapi\AppData\Local\Temp\ccMlfTJJ.s:1913   .text.tlsv1_client_handshake_write:0000000000000464 .L0 
C:\Users\stapi\AppData\Local\Temp\ccMlfTJJ.s:1915   .text.tlsv1_client_handshake_write:0000000000000466 .L0 
C:\Users\stapi\AppData\Local\Temp\ccMlfTJJ.s:1918   .text.tlsv1_client_handshake_write:000000000000046e .L0 
C:\Users\stapi\AppData\Local\Temp\ccMlfTJJ.s:1920   .text.tlsv1_client_handshake_write:0000000000000472 .L0 
C:\Users\stapi\AppData\Local\Temp\ccMlfTJJ.s:1925   .text.tlsv1_client_handshake_write:0000000000000474 .L0 
C:\Users\stapi\AppData\Local\Temp\ccMlfTJJ.s:1926   .text.tlsv1_client_handshake_write:0000000000000474 .L0 
C:\Users\stapi\AppData\Local\Temp\ccMlfTJJ.s:1928   .text.tlsv1_client_handshake_write:0000000000000478 .L0 
C:\Users\stapi\AppData\Local\Temp\ccMlfTJJ.s:1930   .text.tlsv1_client_handshake_write:000000000000047c .L0 
C:\Users\stapi\AppData\Local\Temp\ccMlfTJJ.s:1931   .text.tlsv1_client_handshake_write:000000000000047c .L0 
C:\Users\stapi\AppData\Local\Temp\ccMlfTJJ.s:1933   .text.tlsv1_client_handshake_write:0000000000000480 .L0 
C:\Users\stapi\AppData\Local\Temp\ccMlfTJJ.s:1935   .text.tlsv1_client_handshake_write:0000000000000484 .L0 
C:\Users\stapi\AppData\Local\Temp\ccMlfTJJ.s:1936   .text.tlsv1_client_handshake_write:0000000000000484 .L0 
C:\Users\stapi\AppData\Local\Temp\ccMlfTJJ.s:1941   .text.tlsv1_client_handshake_write:0000000000000488 .L0 
C:\Users\stapi\AppData\Local\Temp\ccMlfTJJ.s:1942   .text.tlsv1_client_handshake_write:0000000000000488 .L0 
C:\Users\stapi\AppData\Local\Temp\ccMlfTJJ.s:1951   .text.tlsv1_client_handshake_write:00000000000004a0 .L0 
C:\Users\stapi\AppData\Local\Temp\ccMlfTJJ.s:1953   .text.tlsv1_client_handshake_write:00000000000004a4 .L0 
C:\Users\stapi\AppData\Local\Temp\ccMlfTJJ.s:1961   .text.tlsv1_client_handshake_write:00000000000004ae .L0 
C:\Users\stapi\AppData\Local\Temp\ccMlfTJJ.s:1962   .text.tlsv1_client_handshake_write:00000000000004ae .L0 
C:\Users\stapi\AppData\Local\Temp\ccMlfTJJ.s:1963   .text.tlsv1_client_handshake_write:00000000000004ae .L0 
C:\Users\stapi\AppData\Local\Temp\ccMlfTJJ.s:1964   .text.tlsv1_client_handshake_write:00000000000004ae .L0 
C:\Users\stapi\AppData\Local\Temp\ccMlfTJJ.s:1965   .text.tlsv1_client_handshake_write:00000000000004ae .L0 
C:\Users\stapi\AppData\Local\Temp\ccMlfTJJ.s:1966   .text.tlsv1_client_handshake_write:00000000000004ae .L0 
C:\Users\stapi\AppData\Local\Temp\ccMlfTJJ.s:1971   .text.tlsv1_client_handshake_write:00000000000004ba .L0 
C:\Users\stapi\AppData\Local\Temp\ccMlfTJJ.s:1974   .text.tlsv1_client_handshake_write:00000000000004be .L0 
C:\Users\stapi\AppData\Local\Temp\ccMlfTJJ.s:1979   .text.tlsv1_client_handshake_write:00000000000004c8 .L0 
C:\Users\stapi\AppData\Local\Temp\ccMlfTJJ.s:1985   .text.tlsv1_client_handshake_write:00000000000004d8 .L0 
C:\Users\stapi\AppData\Local\Temp\ccMlfTJJ.s:1987   .text.tlsv1_client_handshake_write:00000000000004da .L0 
C:\Users\stapi\AppData\Local\Temp\ccMlfTJJ.s:1988   .text.tlsv1_client_handshake_write:00000000000004da .L0 
C:\Users\stapi\AppData\Local\Temp\ccMlfTJJ.s:1990   .text.tlsv1_client_handshake_write:00000000000004de .L0 
C:\Users\stapi\AppData\Local\Temp\ccMlfTJJ.s:1992   .text.tlsv1_client_handshake_write:00000000000004e0 .L0 
C:\Users\stapi\AppData\Local\Temp\ccMlfTJJ.s:1997   .text.tlsv1_client_handshake_write:00000000000004ea .L0 
C:\Users\stapi\AppData\Local\Temp\ccMlfTJJ.s:1998   .text.tlsv1_client_handshake_write:00000000000004ea .L0 
C:\Users\stapi\AppData\Local\Temp\ccMlfTJJ.s:2001   .text.tlsv1_client_handshake_write:00000000000004ee .L0 
C:\Users\stapi\AppData\Local\Temp\ccMlfTJJ.s:2002   .text.tlsv1_client_handshake_write:00000000000004ee .L0 
C:\Users\stapi\AppData\Local\Temp\ccMlfTJJ.s:2004   .text.tlsv1_client_handshake_write:00000000000004f2 .L0 
C:\Users\stapi\AppData\Local\Temp\ccMlfTJJ.s:2009   .text.tlsv1_client_handshake_write:00000000000004fc .L0 
C:\Users\stapi\AppData\Local\Temp\ccMlfTJJ.s:2011   .text.tlsv1_client_handshake_write:00000000000004fe .L0 
C:\Users\stapi\AppData\Local\Temp\ccMlfTJJ.s:2012   .text.tlsv1_client_handshake_write:00000000000004fe .L0 
C:\Users\stapi\AppData\Local\Temp\ccMlfTJJ.s:2017   .text.tlsv1_client_handshake_write:0000000000000508 .L0 
C:\Users\stapi\AppData\Local\Temp\ccMlfTJJ.s:2024   .text.tlsv1_client_handshake_write:0000000000000518 .L0 
C:\Users\stapi\AppData\Local\Temp\ccMlfTJJ.s:2025   .text.tlsv1_client_handshake_write:0000000000000518 .L0 
C:\Users\stapi\AppData\Local\Temp\ccMlfTJJ.s:2027   .text.tlsv1_client_handshake_write:000000000000051c .L0 
C:\Users\stapi\AppData\Local\Temp\ccMlfTJJ.s:2032   .text.tlsv1_client_handshake_write:0000000000000526 .L0 
C:\Users\stapi\AppData\Local\Temp\ccMlfTJJ.s:2039   .text.tlsv1_client_handshake_write:0000000000000528 .L0 
C:\Users\stapi\AppData\Local\Temp\ccMlfTJJ.s:2040   .text.tlsv1_client_handshake_write:0000000000000528 .L0 
C:\Users\stapi\AppData\Local\Temp\ccMlfTJJ.s:2045   .text.tlsv1_client_handshake_write:000000000000052e .L0 
C:\Users\stapi\AppData\Local\Temp\ccMlfTJJ.s:2049   .text.tlsv1_client_handshake_write:0000000000000538 .L0 
C:\Users\stapi\AppData\Local\Temp\ccMlfTJJ.s:2050   .text.tlsv1_client_handshake_write:0000000000000538 .L0 
C:\Users\stapi\AppData\Local\Temp\ccMlfTJJ.s:2055   .text.tlsv1_client_handshake_write:000000000000053c .L0 
C:\Users\stapi\AppData\Local\Temp\ccMlfTJJ.s:2060   .text.tlsv1_client_handshake_write:000000000000054a .L0 
C:\Users\stapi\AppData\Local\Temp\ccMlfTJJ.s:2061   .text.tlsv1_client_handshake_write:000000000000054a .L0 
C:\Users\stapi\AppData\Local\Temp\ccMlfTJJ.s:2065   .text.tlsv1_client_handshake_write:000000000000054e .L0 
C:\Users\stapi\AppData\Local\Temp\ccMlfTJJ.s:2071   .text.tlsv1_client_handshake_write:0000000000000550 .L0 
C:\Users\stapi\AppData\Local\Temp\ccMlfTJJ.s:2072   .text.tlsv1_client_handshake_write:0000000000000550 .L0 
C:\Users\stapi\AppData\Local\Temp\ccMlfTJJ.s:2074   .text.tlsv1_client_handshake_write:0000000000000552 .L0 
C:\Users\stapi\AppData\Local\Temp\ccMlfTJJ.s:2077   .text.tlsv1_client_handshake_write:0000000000000558 .L0 
C:\Users\stapi\AppData\Local\Temp\ccMlfTJJ.s:2080   .text.tlsv1_client_handshake_write:000000000000055a .L0 
C:\Users\stapi\AppData\Local\Temp\ccMlfTJJ.s:2087   .text.tlsv1_client_handshake_write:0000000000000566 .L0 
C:\Users\stapi\AppData\Local\Temp\ccMlfTJJ.s:2088   .text.tlsv1_client_handshake_write:0000000000000566 .L0 
C:\Users\stapi\AppData\Local\Temp\ccMlfTJJ.s:2092   .text.tlsv1_client_handshake_write:000000000000056a .L0 
C:\Users\stapi\AppData\Local\Temp\ccMlfTJJ.s:2097   .text.tlsv1_client_handshake_write:000000000000056c .L0 
C:\Users\stapi\AppData\Local\Temp\ccMlfTJJ.s:2098   .text.tlsv1_client_handshake_write:000000000000056c .L0 
C:\Users\stapi\AppData\Local\Temp\ccMlfTJJ.s:2101   .text.tlsv1_client_handshake_write:0000000000000572 .L0 
C:\Users\stapi\AppData\Local\Temp\ccMlfTJJ.s:2103   .text.tlsv1_client_handshake_write:0000000000000576 .L0 
C:\Users\stapi\AppData\Local\Temp\ccMlfTJJ.s:2105   .text.tlsv1_client_handshake_write:000000000000057a .L0 
C:\Users\stapi\AppData\Local\Temp\ccMlfTJJ.s:2111   .text.tlsv1_client_handshake_write:0000000000000580 .L0 
C:\Users\stapi\AppData\Local\Temp\ccMlfTJJ.s:2112   .text.tlsv1_client_handshake_write:0000000000000580 .L0 
C:\Users\stapi\AppData\Local\Temp\ccMlfTJJ.s:2113   .text.tlsv1_client_handshake_write:0000000000000580 .L0 
C:\Users\stapi\AppData\Local\Temp\ccMlfTJJ.s:2114   .text.tlsv1_client_handshake_write:0000000000000580 .L0 
C:\Users\stapi\AppData\Local\Temp\ccMlfTJJ.s:2115   .text.tlsv1_client_handshake_write:0000000000000580 .L0 
C:\Users\stapi\AppData\Local\Temp\ccMlfTJJ.s:2121   .text.tlsv1_client_handshake_write:0000000000000592 .L0 
C:\Users\stapi\AppData\Local\Temp\ccMlfTJJ.s:2122   .text.tlsv1_client_handshake_write:0000000000000592 .L0 
C:\Users\stapi\AppData\Local\Temp\ccMlfTJJ.s:2123   .text.tlsv1_client_handshake_write:0000000000000592 .L0 
C:\Users\stapi\AppData\Local\Temp\ccMlfTJJ.s:2126   .text.tlsv1_client_handshake_write:0000000000000598 .L0 
C:\Users\stapi\AppData\Local\Temp\ccMlfTJJ.s:2128   .text.tlsv1_client_handshake_write:000000000000059c .L0 
C:\Users\stapi\AppData\Local\Temp\ccMlfTJJ.s:2131   .text.tlsv1_client_handshake_write:00000000000005a0 .L0 
C:\Users\stapi\AppData\Local\Temp\ccMlfTJJ.s:2134   .text.tlsv1_client_handshake_write:00000000000005a4 .L0 
C:\Users\stapi\AppData\Local\Temp\ccMlfTJJ.s:2135   .text.tlsv1_client_handshake_write:00000000000005a4 .L0 
C:\Users\stapi\AppData\Local\Temp\ccMlfTJJ.s:2136   .text.tlsv1_client_handshake_write:00000000000005a4 .L0 
C:\Users\stapi\AppData\Local\Temp\ccMlfTJJ.s:2139   .text.tlsv1_client_handshake_write:00000000000005a8 .L0 
C:\Users\stapi\AppData\Local\Temp\ccMlfTJJ.s:2140   .text.tlsv1_client_handshake_write:00000000000005a8 .L0 
C:\Users\stapi\AppData\Local\Temp\ccMlfTJJ.s:2141   .text.tlsv1_client_handshake_write:00000000000005a8 .L0 
C:\Users\stapi\AppData\Local\Temp\ccMlfTJJ.s:2142   .text.tlsv1_client_handshake_write:00000000000005a8 .L0 
C:\Users\stapi\AppData\Local\Temp\ccMlfTJJ.s:2143   .text.tlsv1_client_handshake_write:00000000000005a8 .L0 
C:\Users\stapi\AppData\Local\Temp\ccMlfTJJ.s:2144   .text.tlsv1_client_handshake_write:00000000000005a8 .L0 
C:\Users\stapi\AppData\Local\Temp\ccMlfTJJ.s:2147   .text.tlsv1_client_handshake_write:00000000000005aa .L0 
C:\Users\stapi\AppData\Local\Temp\ccMlfTJJ.s:2153   .text.tlsv1_client_handshake_write:00000000000005ba .L0 
C:\Users\stapi\AppData\Local\Temp\ccMlfTJJ.s:2154   .text.tlsv1_client_handshake_write:00000000000005ba .L0 
C:\Users\stapi\AppData\Local\Temp\ccMlfTJJ.s:2156   .text.tlsv1_client_handshake_write:00000000000005be .L0 
C:\Users\stapi\AppData\Local\Temp\ccMlfTJJ.s:2158   .text.tlsv1_client_handshake_write:00000000000005c2 .L0 
C:\Users\stapi\AppData\Local\Temp\ccMlfTJJ.s:2163   .text.tlsv1_client_handshake_write:00000000000005ce .L0 
C:\Users\stapi\AppData\Local\Temp\ccMlfTJJ.s:2164   .text.tlsv1_client_handshake_write:00000000000005ce .L0 
C:\Users\stapi\AppData\Local\Temp\ccMlfTJJ.s:2167   .text.tlsv1_client_handshake_write:00000000000005d2 .L0 
C:\Users\stapi\AppData\Local\Temp\ccMlfTJJ.s:2171   .text.tlsv1_client_handshake_write:00000000000005d4 .L0 
C:\Users\stapi\AppData\Local\Temp\ccMlfTJJ.s:2177   .text.tlsv1_client_handshake_write:00000000000005e0 .L0 
C:\Users\stapi\AppData\Local\Temp\ccMlfTJJ.s:2180   .text.tlsv1_client_handshake_write:00000000000005e4 .L0 
C:\Users\stapi\AppData\Local\Temp\ccMlfTJJ.s:2181   .text.tlsv1_client_handshake_write:00000000000005e4 .L0 
C:\Users\stapi\AppData\Local\Temp\ccMlfTJJ.s:2182   .text.tlsv1_client_handshake_write:00000000000005e4 .L0 
C:\Users\stapi\AppData\Local\Temp\ccMlfTJJ.s:2184   .text.tlsv1_client_handshake_write:00000000000005e8 .L0 
C:\Users\stapi\AppData\Local\Temp\ccMlfTJJ.s:2186   .text.tlsv1_client_handshake_write:00000000000005ea .L0 
C:\Users\stapi\AppData\Local\Temp\ccMlfTJJ.s:2188   .text.tlsv1_client_handshake_write:00000000000005ee .L0 
C:\Users\stapi\AppData\Local\Temp\ccMlfTJJ.s:2189   .text.tlsv1_client_handshake_write:00000000000005ee .L0 
C:\Users\stapi\AppData\Local\Temp\ccMlfTJJ.s:2191   .text.tlsv1_client_handshake_write:00000000000005f0 .L0 
C:\Users\stapi\AppData\Local\Temp\ccMlfTJJ.s:2192   .text.tlsv1_client_handshake_write:00000000000005f0 .L0 
C:\Users\stapi\AppData\Local\Temp\ccMlfTJJ.s:2195   .text.tlsv1_client_handshake_write:00000000000005f2 .L0 
C:\Users\stapi\AppData\Local\Temp\ccMlfTJJ.s:2196   .text.tlsv1_client_handshake_write:00000000000005f2 .L0 
C:\Users\stapi\AppData\Local\Temp\ccMlfTJJ.s:2198   .text.tlsv1_client_handshake_write:00000000000005f6 .L0 
C:\Users\stapi\AppData\Local\Temp\ccMlfTJJ.s:2201   .text.tlsv1_client_handshake_write:00000000000005f8 .L0 
C:\Users\stapi\AppData\Local\Temp\ccMlfTJJ.s:2207   .text.tlsv1_client_handshake_write:0000000000000604 .L0 
C:\Users\stapi\AppData\Local\Temp\ccMlfTJJ.s:2209   .text.tlsv1_client_handshake_write:0000000000000608 .L0 
C:\Users\stapi\AppData\Local\Temp\ccMlfTJJ.s:2210   .text.tlsv1_client_handshake_write:0000000000000608 .L0 
C:\Users\stapi\AppData\Local\Temp\ccMlfTJJ.s:2212   .text.tlsv1_client_handshake_write:000000000000060a .L0 
C:\Users\stapi\AppData\Local\Temp\ccMlfTJJ.s:2214   .text.tlsv1_client_handshake_write:000000000000060e .L0 
C:\Users\stapi\AppData\Local\Temp\ccMlfTJJ.s:2216   .text.tlsv1_client_handshake_write:0000000000000612 .L0 
C:\Users\stapi\AppData\Local\Temp\ccMlfTJJ.s:2217   .text.tlsv1_client_handshake_write:0000000000000612 .L0 
C:\Users\stapi\AppData\Local\Temp\ccMlfTJJ.s:2219   .text.tlsv1_client_handshake_write:0000000000000614 .L0 
C:\Users\stapi\AppData\Local\Temp\ccMlfTJJ.s:2223   .text.tlsv1_client_handshake_write:000000000000061c .L0 
C:\Users\stapi\AppData\Local\Temp\ccMlfTJJ.s:2225   .text.tlsv1_client_handshake_write:000000000000061e .L0 
C:\Users\stapi\AppData\Local\Temp\ccMlfTJJ.s:2226   .text.tlsv1_client_handshake_write:000000000000061e .L0 
C:\Users\stapi\AppData\Local\Temp\ccMlfTJJ.s:2228   .text.tlsv1_client_handshake_write:0000000000000622 .L0 
C:\Users\stapi\AppData\Local\Temp\ccMlfTJJ.s:2231   .text.tlsv1_client_handshake_write:000000000000062a .L0 
C:\Users\stapi\AppData\Local\Temp\ccMlfTJJ.s:2232   .text.tlsv1_client_handshake_write:000000000000062a .L0 
C:\Users\stapi\AppData\Local\Temp\ccMlfTJJ.s:2233   .text.tlsv1_client_handshake_write:000000000000062a .L0 
C:\Users\stapi\AppData\Local\Temp\ccMlfTJJ.s:2234   .text.tlsv1_client_handshake_write:000000000000062a .L0 
C:\Users\stapi\AppData\Local\Temp\ccMlfTJJ.s:2236   .text.tlsv1_client_handshake_write:000000000000062e .L0 
C:\Users\stapi\AppData\Local\Temp\ccMlfTJJ.s:2238   .text.tlsv1_client_handshake_write:0000000000000630 .L0 
C:\Users\stapi\AppData\Local\Temp\ccMlfTJJ.s:2239   .text.tlsv1_client_handshake_write:0000000000000630 .L0 
C:\Users\stapi\AppData\Local\Temp\ccMlfTJJ.s:2241   .text.tlsv1_client_handshake_write:0000000000000634 .L0 
C:\Users\stapi\AppData\Local\Temp\ccMlfTJJ.s:2244   .text.tlsv1_client_handshake_write:0000000000000636 .L0 
C:\Users\stapi\AppData\Local\Temp\ccMlfTJJ.s:2249   .text.tlsv1_client_handshake_write:0000000000000640 .L0 
C:\Users\stapi\AppData\Local\Temp\ccMlfTJJ.s:2257   .text.tlsv1_client_handshake_write:0000000000000652 .L0 
C:\Users\stapi\AppData\Local\Temp\ccMlfTJJ.s:2259   .text.tlsv1_client_handshake_write:0000000000000656 .L0 
C:\Users\stapi\AppData\Local\Temp\ccMlfTJJ.s:2266   .text.tlsv1_client_handshake_write:0000000000000658 .L0 
C:\Users\stapi\AppData\Local\Temp\ccMlfTJJ.s:2267   .text.tlsv1_client_handshake_write:0000000000000658 .L0 
C:\Users\stapi\AppData\Local\Temp\ccMlfTJJ.s:2272   .text.tlsv1_client_handshake_write:000000000000065e .L0 
C:\Users\stapi\AppData\Local\Temp\ccMlfTJJ.s:2274   .text.tlsv1_client_handshake_write:0000000000000662 .L0 
C:\Users\stapi\AppData\Local\Temp\ccMlfTJJ.s:2276   .text.tlsv1_client_handshake_write:0000000000000666 .L0 
C:\Users\stapi\AppData\Local\Temp\ccMlfTJJ.s:2280   .text.tlsv1_client_handshake_write:0000000000000668 .L0 
C:\Users\stapi\AppData\Local\Temp\ccMlfTJJ.s:2285   .text.tlsv1_client_handshake_write:000000000000066a .L0 
C:\Users\stapi\AppData\Local\Temp\ccMlfTJJ.s:2290   .text.tlsv1_client_handshake_write:000000000000066e .L0 
C:\Users\stapi\AppData\Local\Temp\ccMlfTJJ.s:2291   .text.tlsv1_client_handshake_write:000000000000066e .L0 
C:\Users\stapi\AppData\Local\Temp\ccMlfTJJ.s:2292   .text.tlsv1_client_handshake_write:000000000000066e .L0 
C:\Users\stapi\AppData\Local\Temp\ccMlfTJJ.s:2293   .text.tlsv1_client_handshake_write:000000000000066e .L0 
C:\Users\stapi\AppData\Local\Temp\ccMlfTJJ.s:2295   .text.tlsv1_client_handshake_write:0000000000000672 .L0 
C:\Users\stapi\AppData\Local\Temp\ccMlfTJJ.s:2300   .text.tlsv1_client_handshake_write:0000000000000674 .L0 
C:\Users\stapi\AppData\Local\Temp\ccMlfTJJ.s:2301   .text.tlsv1_client_handshake_write:0000000000000674 .L0 
C:\Users\stapi\AppData\Local\Temp\ccMlfTJJ.s:2303   .text.tlsv1_client_handshake_write:0000000000000678 .L0 
C:\Users\stapi\AppData\Local\Temp\ccMlfTJJ.s:2305   .text.tlsv1_client_handshake_write:000000000000067c .L0 
C:\Users\stapi\AppData\Local\Temp\ccMlfTJJ.s:2306   .text.tlsv1_client_handshake_write:000000000000067c .L0 
C:\Users\stapi\AppData\Local\Temp\ccMlfTJJ.s:2308   .text.tlsv1_client_handshake_write:0000000000000680 .L0 
C:\Users\stapi\AppData\Local\Temp\ccMlfTJJ.s:2310   .text.tlsv1_client_handshake_write:0000000000000684 .L0 
C:\Users\stapi\AppData\Local\Temp\ccMlfTJJ.s:2311   .text.tlsv1_client_handshake_write:0000000000000684 .L0 
C:\Users\stapi\AppData\Local\Temp\ccMlfTJJ.s:2316   .text.tlsv1_client_handshake_write:0000000000000688 .L0 
C:\Users\stapi\AppData\Local\Temp\ccMlfTJJ.s:2317   .text.tlsv1_client_handshake_write:0000000000000688 .L0 
C:\Users\stapi\AppData\Local\Temp\ccMlfTJJ.s:2326   .text.tlsv1_client_handshake_write:000000000000069e .L0 
C:\Users\stapi\AppData\Local\Temp\ccMlfTJJ.s:2328   .text.tlsv1_client_handshake_write:00000000000006a2 .L0 
C:\Users\stapi\AppData\Local\Temp\ccMlfTJJ.s:2329   .text.tlsv1_client_handshake_write:00000000000006a2 .L0 
C:\Users\stapi\AppData\Local\Temp\ccMlfTJJ.s:2331   .text.tlsv1_client_handshake_write:00000000000006a4 .L0 
C:\Users\stapi\AppData\Local\Temp\ccMlfTJJ.s:2334   .text.tlsv1_client_handshake_write:00000000000006a8 .L0 
C:\Users\stapi\AppData\Local\Temp\ccMlfTJJ.s:2337   .text.tlsv1_client_handshake_write:00000000000006aa .L0 
C:\Users\stapi\AppData\Local\Temp\ccMlfTJJ.s:2341   .text.tlsv1_client_handshake_write:00000000000006b4 .L0 
C:\Users\stapi\AppData\Local\Temp\ccMlfTJJ.s:2342   .text.tlsv1_client_handshake_write:00000000000006b4 .L0 
C:\Users\stapi\AppData\Local\Temp\ccMlfTJJ.s:2348   .text.tlsv1_client_handshake_write:00000000000006b6 .L0 
C:\Users\stapi\AppData\Local\Temp\ccMlfTJJ.s:2349   .text.tlsv1_client_handshake_write:00000000000006b6 .L0 
C:\Users\stapi\AppData\Local\Temp\ccMlfTJJ.s:2355   .text.tlsv1_client_handshake_write:00000000000006c4 .L0 
C:\Users\stapi\AppData\Local\Temp\ccMlfTJJ.s:2357   .text.tlsv1_client_handshake_write:00000000000006c8 .L0 
C:\Users\stapi\AppData\Local\Temp\ccMlfTJJ.s:2363   .text.tlsv1_client_handshake_write:00000000000006d6 .L0 
C:\Users\stapi\AppData\Local\Temp\ccMlfTJJ.s:2365   .text.tlsv1_client_handshake_write:00000000000006da .L0 
C:\Users\stapi\AppData\Local\Temp\ccMlfTJJ.s:2366   .text.tlsv1_client_handshake_write:00000000000006da .L0 
C:\Users\stapi\AppData\Local\Temp\ccMlfTJJ.s:2369   .text.tlsv1_client_handshake_write:00000000000006de .L0 
C:\Users\stapi\AppData\Local\Temp\ccMlfTJJ.s:2371   .text.tlsv1_client_handshake_write:00000000000006e2 .L0 
C:\Users\stapi\AppData\Local\Temp\ccMlfTJJ.s:2372   .text.tlsv1_client_handshake_write:00000000000006e2 .L0 
C:\Users\stapi\AppData\Local\Temp\ccMlfTJJ.s:2380   .text.tlsv1_client_handshake_write:00000000000006e4 .L0 
C:\Users\stapi\AppData\Local\Temp\ccMlfTJJ.s:2385   .text.tlsv1_client_handshake_write:00000000000006e6 .L0 
C:\Users\stapi\AppData\Local\Temp\ccMlfTJJ.s:2386   .text.tlsv1_client_handshake_write:00000000000006e6 .L0 
C:\Users\stapi\AppData\Local\Temp\ccMlfTJJ.s:2388   .text.tlsv1_client_handshake_write:00000000000006ea .L0 
C:\Users\stapi\AppData\Local\Temp\ccMlfTJJ.s:2389   .text.tlsv1_client_handshake_write:00000000000006ea .L0 
C:\Users\stapi\AppData\Local\Temp\ccMlfTJJ.s:2391   .text.tlsv1_client_handshake_write:00000000000006f2 .L0 
C:\Users\stapi\AppData\Local\Temp\ccMlfTJJ.s:2392   .text.tlsv1_client_handshake_write:00000000000006f2 .L0 
C:\Users\stapi\AppData\Local\Temp\ccMlfTJJ.s:2393   .text.tlsv1_client_handshake_write:00000000000006f2 .L0 
C:\Users\stapi\AppData\Local\Temp\ccMlfTJJ.s:2394   .text.tlsv1_client_handshake_write:00000000000006f2 .L0 
C:\Users\stapi\AppData\Local\Temp\ccMlfTJJ.s:2395   .text.tlsv1_client_handshake_write:00000000000006f2 .L0 
C:\Users\stapi\AppData\Local\Temp\ccMlfTJJ.s:2396   .text.tlsv1_client_handshake_write:00000000000006f2 .L0 
C:\Users\stapi\AppData\Local\Temp\ccMlfTJJ.s:2397   .text.tlsv1_client_handshake_write:00000000000006f2 .L0 
C:\Users\stapi\AppData\Local\Temp\ccMlfTJJ.s:2398   .text.tlsv1_client_handshake_write:00000000000006f2 .L0 
C:\Users\stapi\AppData\Local\Temp\ccMlfTJJ.s:2399   .text.tlsv1_client_handshake_write:00000000000006f2 .L0 
C:\Users\stapi\AppData\Local\Temp\ccMlfTJJ.s:2400   .text.tlsv1_client_handshake_write:00000000000006f2 .L0 
C:\Users\stapi\AppData\Local\Temp\ccMlfTJJ.s:2401   .text.tlsv1_client_handshake_write:00000000000006f2 .L0 
C:\Users\stapi\AppData\Local\Temp\ccMlfTJJ.s:2402   .text.tlsv1_client_handshake_write:00000000000006f2 .L0 
C:\Users\stapi\AppData\Local\Temp\ccMlfTJJ.s:2403   .text.tlsv1_client_handshake_write:00000000000006f2 .L0 
C:\Users\stapi\AppData\Local\Temp\ccMlfTJJ.s:2404   .text.tlsv1_client_handshake_write:00000000000006f2 .L0 
C:\Users\stapi\AppData\Local\Temp\ccMlfTJJ.s:2407   .text.tlsv1_client_handshake_write:00000000000006f2 .L0 
C:\Users\stapi\AppData\Local\Temp\ccMlfTJJ.s:2411   .text.tlsv1_client_handshake_write:00000000000006f2 .L0 
C:\Users\stapi\AppData\Local\Temp\ccMlfTJJ.s:2412   .text.tlsv1_client_handshake_write:00000000000006f2 .L0 
C:\Users\stapi\AppData\Local\Temp\ccMlfTJJ.s:2413   .text.tlsv1_client_handshake_write:00000000000006f2 .L0 
C:\Users\stapi\AppData\Local\Temp\ccMlfTJJ.s:2414   .text.tlsv1_client_handshake_write:00000000000006f2 .L0 
C:\Users\stapi\AppData\Local\Temp\ccMlfTJJ.s:2416   .text.tlsv1_client_handshake_write:00000000000006f6 .L0 
C:\Users\stapi\AppData\Local\Temp\ccMlfTJJ.s:2417   .text.tlsv1_client_handshake_write:00000000000006f6 .L0 
C:\Users\stapi\AppData\Local\Temp\ccMlfTJJ.s:2423   .text.tlsv1_client_handshake_write:0000000000000704 .L0 
C:\Users\stapi\AppData\Local\Temp\ccMlfTJJ.s:2424   .text.tlsv1_client_handshake_write:0000000000000704 .L0 
C:\Users\stapi\AppData\Local\Temp\ccMlfTJJ.s:2426   .text.tlsv1_client_handshake_write:0000000000000706 .L0 
C:\Users\stapi\AppData\Local\Temp\ccMlfTJJ.s:2427   .text.tlsv1_client_handshake_write:0000000000000706 .L0 
C:\Users\stapi\AppData\Local\Temp\ccMlfTJJ.s:2429   .text.tlsv1_client_handshake_write:000000000000070a .L0 
C:\Users\stapi\AppData\Local\Temp\ccMlfTJJ.s:2432   .text.tlsv1_client_handshake_write:000000000000070c .L0 
C:\Users\stapi\AppData\Local\Temp\ccMlfTJJ.s:2433   .text.tlsv1_client_handshake_write:000000000000070c .L0 
C:\Users\stapi\AppData\Local\Temp\ccMlfTJJ.s:2434   .text.tlsv1_client_handshake_write:000000000000070c .L0 
C:\Users\stapi\AppData\Local\Temp\ccMlfTJJ.s:2440   .text.tlsv1_client_handshake_write:000000000000071a .L0 
C:\Users\stapi\AppData\Local\Temp\ccMlfTJJ.s:2443   .text.tlsv1_client_handshake_write:0000000000000720 .L0 
C:\Users\stapi\AppData\Local\Temp\ccMlfTJJ.s:2448   .text.tlsv1_client_handshake_write:000000000000072c .L0 
C:\Users\stapi\AppData\Local\Temp\ccMlfTJJ.s:2450   .text.tlsv1_client_handshake_write:0000000000000730 .L0 
C:\Users\stapi\AppData\Local\Temp\ccMlfTJJ.s:2451   .text.tlsv1_client_handshake_write:0000000000000730 .L0 
C:\Users\stapi\AppData\Local\Temp\ccMlfTJJ.s:2453   .text.tlsv1_client_handshake_write:0000000000000732 .L0 
C:\Users\stapi\AppData\Local\Temp\ccMlfTJJ.s:2456   .text.tlsv1_client_handshake_write:000000000000073a .L0 
C:\Users\stapi\AppData\Local\Temp\ccMlfTJJ.s:2458   .text.tlsv1_client_handshake_write:000000000000073c .L0 
C:\Users\stapi\AppData\Local\Temp\ccMlfTJJ.s:2460   .text.tlsv1_client_handshake_write:0000000000000740 .L0 
C:\Users\stapi\AppData\Local\Temp\ccMlfTJJ.s:2464   .text.tlsv1_client_handshake_write:000000000000074a .L0 
C:\Users\stapi\AppData\Local\Temp\ccMlfTJJ.s:2465   .text.tlsv1_client_handshake_write:000000000000074a .L0 
C:\Users\stapi\AppData\Local\Temp\ccMlfTJJ.s:2467   .text.tlsv1_client_handshake_write:000000000000074e .L0 
C:\Users\stapi\AppData\Local\Temp\ccMlfTJJ.s:2469   .text.tlsv1_client_handshake_write:0000000000000750 .L0 
C:\Users\stapi\AppData\Local\Temp\ccMlfTJJ.s:2471   .text.tlsv1_client_handshake_write:0000000000000752 .L0 
C:\Users\stapi\AppData\Local\Temp\ccMlfTJJ.s:2473   .text.tlsv1_client_handshake_write:0000000000000756 .L0 
C:\Users\stapi\AppData\Local\Temp\ccMlfTJJ.s:2474   .text.tlsv1_client_handshake_write:0000000000000756 .L0 
C:\Users\stapi\AppData\Local\Temp\ccMlfTJJ.s:2479   .text.tlsv1_client_handshake_write:0000000000000762 .L0 
C:\Users\stapi\AppData\Local\Temp\ccMlfTJJ.s:2480   .text.tlsv1_client_handshake_write:0000000000000762 .L0 
C:\Users\stapi\AppData\Local\Temp\ccMlfTJJ.s:2487   .text.tlsv1_client_handshake_write:0000000000000766 .L0 
C:\Users\stapi\AppData\Local\Temp\ccMlfTJJ.s:2494   .text.tlsv1_client_handshake_write:0000000000000778 .L0 
C:\Users\stapi\AppData\Local\Temp\ccMlfTJJ.s:2495   .text.tlsv1_client_handshake_write:0000000000000778 .L0 
C:\Users\stapi\AppData\Local\Temp\ccMlfTJJ.s:2498   .text.tlsv1_client_handshake_write:000000000000077c .L0 
C:\Users\stapi\AppData\Local\Temp\ccMlfTJJ.s:2499   .text.tlsv1_client_handshake_write:000000000000077c .L0 
C:\Users\stapi\AppData\Local\Temp\ccMlfTJJ.s:2501   .text.tlsv1_client_handshake_write:0000000000000780 .L0 
C:\Users\stapi\AppData\Local\Temp\ccMlfTJJ.s:2502   .text.tlsv1_client_handshake_write:0000000000000780 .L0 
C:\Users\stapi\AppData\Local\Temp\ccMlfTJJ.s:2504   .text.tlsv1_client_handshake_write:0000000000000782 .L0 
C:\Users\stapi\AppData\Local\Temp\ccMlfTJJ.s:2506   .text.tlsv1_client_handshake_write:0000000000000786 .L0 
C:\Users\stapi\AppData\Local\Temp\ccMlfTJJ.s:2507   .text.tlsv1_client_handshake_write:0000000000000786 .L0 
C:\Users\stapi\AppData\Local\Temp\ccMlfTJJ.s:2515   .text.tlsv1_client_handshake_write:0000000000000794 .L0 
C:\Users\stapi\AppData\Local\Temp\ccMlfTJJ.s:2522   .text.tlsv1_client_handshake_write:00000000000007a8 .L0 
C:\Users\stapi\AppData\Local\Temp\ccMlfTJJ.s:2533   .text.tlsv1_client_send_alert:0000000000000000 tlsv1_client_send_alert
C:\Users\stapi\AppData\Local\Temp\ccMlfTJJ.s:2536   .text.tlsv1_client_send_alert:0000000000000000 .L0 
C:\Users\stapi\AppData\Local\Temp\ccMlfTJJ.s:2538   .text.tlsv1_client_send_alert:0000000000000000 .L0 
C:\Users\stapi\AppData\Local\Temp\ccMlfTJJ.s:2539   .text.tlsv1_client_send_alert:0000000000000008 .L0 
C:\Users\stapi\AppData\Local\Temp\ccMlfTJJ.s:2540   .text.tlsv1_client_send_alert:0000000000000008 .L0 
C:\Users\stapi\AppData\Local\Temp\ccMlfTJJ.s:2541   .text.tlsv1_client_send_alert:0000000000000008 .L0 
C:\Users\stapi\AppData\Local\Temp\ccMlfTJJ.s:2542   .text.tlsv1_client_send_alert:0000000000000008 .L0 
C:\Users\stapi\AppData\Local\Temp\ccMlfTJJ.s:2543   .text.tlsv1_client_send_alert:0000000000000008 .L0 
C:\Users\stapi\AppData\Local\Temp\ccMlfTJJ.s:2544   .text.tlsv1_client_send_alert:0000000000000008 .L0 
C:\Users\stapi\AppData\Local\Temp\ccMlfTJJ.s:2546   .text.tlsv1_client_send_alert:0000000000000008 .L0 
C:\Users\stapi\AppData\Local\Temp\ccMlfTJJ.s:2547   .text.tlsv1_client_send_alert:0000000000000008 .L0 
C:\Users\stapi\AppData\Local\Temp\ccMlfTJJ.s:2548   .text.tlsv1_client_send_alert:0000000000000008 .L0 
C:\Users\stapi\AppData\Local\Temp\ccMlfTJJ.s:2551   .text.tlsv1_client_send_alert:000000000000000c .L0 
C:\Users\stapi\AppData\Local\Temp\ccMlfTJJ.s:2554   .text.tlsv1_client_send_alert:000000000000000e .L0 
C:\Users\stapi\AppData\Local\Temp\ccMlfTJJ.s:2556   .text.tlsv1_client_send_alert:0000000000000010 .L0 
C:\Users\stapi\AppData\Local\Temp\ccMlfTJJ.s:2561   .text.tlsv1_client_send_alert:0000000000000016 .L0 
C:\Users\stapi\AppData\Local\Temp\ccMlfTJJ.s:2563   .text.tlsv1_client_send_alert:0000000000000018 .L0 
C:\Users\stapi\AppData\Local\Temp\ccMlfTJJ.s:2569   .text.tlsv1_client_send_alert:0000000000000026 .L0 
C:\Users\stapi\AppData\Local\Temp\ccMlfTJJ.s:2570   .text.tlsv1_client_send_alert:0000000000000026 .L0 
C:\Users\stapi\AppData\Local\Temp\ccMlfTJJ.s:2572   .text.tlsv1_client_send_alert:0000000000000028 .L0 
C:\Users\stapi\AppData\Local\Temp\ccMlfTJJ.s:2574   .text.tlsv1_client_send_alert:000000000000002c .L0 
C:\Users\stapi\AppData\Local\Temp\ccMlfTJJ.s:2575   .text.tlsv1_client_send_alert:000000000000002c .L0 
C:\Users\stapi\AppData\Local\Temp\ccMlfTJJ.s:2578   .text.tlsv1_client_send_alert:0000000000000034 .L0 
C:\Users\stapi\AppData\Local\Temp\ccMlfTJJ.s:2579   .text.tlsv1_client_send_alert:0000000000000034 .L0 
C:\Users\stapi\AppData\Local\Temp\ccMlfTJJ.s:2582   .text.tlsv1_client_send_alert:0000000000000036 .L0 
C:\Users\stapi\AppData\Local\Temp\ccMlfTJJ.s:2583   .text.tlsv1_client_send_alert:0000000000000036 .L0 
C:\Users\stapi\AppData\Local\Temp\ccMlfTJJ.s:2584   .text.tlsv1_client_send_alert:0000000000000036 .L0 
C:\Users\stapi\AppData\Local\Temp\ccMlfTJJ.s:2587   .text.tlsv1_client_send_alert:000000000000003c .L0 
C:\Users\stapi\AppData\Local\Temp\ccMlfTJJ.s:2588   .text.tlsv1_client_send_alert:000000000000003c .L0 
C:\Users\stapi\AppData\Local\Temp\ccMlfTJJ.s:2590   .text.tlsv1_client_send_alert:0000000000000040 .L0 
C:\Users\stapi\AppData\Local\Temp\ccMlfTJJ.s:2597   .text.tlsv1_client_send_alert:0000000000000046 .L0 
C:\Users\stapi\AppData\Local\Temp\ccMlfTJJ.s:2598   .text.tlsv1_client_send_alert:0000000000000046 .L0 
C:\Users\stapi\AppData\Local\Temp\ccMlfTJJ.s:2600   .text.tlsv1_client_send_alert:000000000000004a .L0 
C:\Users\stapi\AppData\Local\Temp\ccMlfTJJ.s:2613   .text.tlsv1_client_send_alert:0000000000000054 .L0 
C:\Users\stapi\AppData\Local\Temp\ccMlfTJJ.s:2618   .text.tlsv1_client_send_alert:0000000000000058 .L0 
C:\Users\stapi\AppData\Local\Temp\ccMlfTJJ.s:2619   .text.tlsv1_client_send_alert:0000000000000058 .L0 
C:\Users\stapi\AppData\Local\Temp\ccMlfTJJ.s:2620   .text.tlsv1_client_send_alert:0000000000000058 .L0 
C:\Users\stapi\AppData\Local\Temp\ccMlfTJJ.s:2621   .text.tlsv1_client_send_alert:0000000000000058 .L0 
C:\Users\stapi\AppData\Local\Temp\ccMlfTJJ.s:2622   .text.tlsv1_client_send_alert:0000000000000058 .L0 
C:\Users\stapi\AppData\Local\Temp\ccMlfTJJ.s:2623   .text.tlsv1_client_send_alert:0000000000000058 .L0 
C:\Users\stapi\AppData\Local\Temp\ccMlfTJJ.s:2626   .text.tlsv1_client_send_alert:000000000000005c .L0 
C:\Users\stapi\AppData\Local\Temp\ccMlfTJJ.s:2627   .text.tlsv1_client_send_alert:000000000000005c .L0 
C:\Users\stapi\AppData\Local\Temp\ccMlfTJJ.s:2632   .text.tlsv1_client_send_alert:0000000000000060 .L0 
C:\Users\stapi\AppData\Local\Temp\ccMlfTJJ.s:2633   .text.tlsv1_client_send_alert:0000000000000060 .L0 
C:\Users\stapi\AppData\Local\Temp\ccMlfTJJ.s:2634   .text.tlsv1_client_send_alert:0000000000000060 .L0 
C:\Users\stapi\AppData\Local\Temp\ccMlfTJJ.s:2639   .text.tlsv1_client_send_alert:0000000000000064 .L0 
C:\Users\stapi\AppData\Local\Temp\ccMlfTJJ.s:2640   .text.tlsv1_client_send_alert:0000000000000064 .L0 
C:\Users\stapi\AppData\Local\Temp\ccMlfTJJ.s:2641   .text.tlsv1_client_send_alert:0000000000000064 .L0 
C:\Users\stapi\AppData\Local\Temp\ccMlfTJJ.s:2643   .text.tlsv1_client_send_alert:0000000000000066 .L0 
C:\Users\stapi\AppData\Local\Temp\ccMlfTJJ.s:2647   .text.tlsv1_client_send_alert:0000000000000068 .L0 
C:\Users\stapi\AppData\Local\Temp\ccMlfTJJ.s:2648   .text.tlsv1_client_send_alert:0000000000000068 .L0 
C:\Users\stapi\AppData\Local\Temp\ccMlfTJJ.s:2649   .text.tlsv1_client_send_alert:0000000000000070 .L0 
C:\Users\stapi\AppData\Local\Temp\ccMlfTJJ.s:2650   .text.tlsv1_client_send_alert:0000000000000070 .L0 
C:\Users\stapi\AppData\Local\Temp\ccMlfTJJ.s:2651   .text.tlsv1_client_send_alert:0000000000000070 .L0 
C:\Users\stapi\AppData\Local\Temp\ccMlfTJJ.s:2652   .text.tlsv1_client_send_alert:0000000000000070 .L0 
C:\Users\stapi\AppData\Local\Temp\ccMlfTJJ.s:2653   .text.tlsv1_client_send_alert:0000000000000070 .L0 
C:\Users\stapi\AppData\Local\Temp\ccMlfTJJ.s:2654   .text.tlsv1_client_send_alert:0000000000000070 .L0 
C:\Users\stapi\AppData\Local\Temp\ccMlfTJJ.s:2655   .text.tlsv1_client_send_alert:0000000000000070 .L0 
C:\Users\stapi\AppData\Local\Temp\ccMlfTJJ.s:135    .text.tls_write_client_change_cipher_spec:000000000000009a .L0 
C:\Users\stapi\AppData\Local\Temp\ccMlfTJJ.s:374    .text.tls_write_client_finished:0000000000000154 .L0 
C:\Users\stapi\AppData\Local\Temp\ccMlfTJJ.s:1000   .text.tls_send_client_hello:00000000000002b0 .L0 
C:\Users\stapi\AppData\Local\Temp\ccMlfTJJ.s:2525   .text.tlsv1_client_handshake_write:00000000000007a8 .L0 
C:\Users\stapi\AppData\Local\Temp\ccMlfTJJ.s:2658   .text.tlsv1_client_send_alert:0000000000000070 .L0 
                     .debug_frame:0000000000000000 .L0 
C:\Users\stapi\AppData\Local\Temp\ccMlfTJJ.s:11     .rodata.tls_write_client_change_cipher_spec.str1.4:0000000000000000 .LC0
C:\Users\stapi\AppData\Local\Temp\ccMlfTJJ.s:14     .rodata.tls_write_client_change_cipher_spec.str1.4:0000000000000020 .LC1
C:\Users\stapi\AppData\Local\Temp\ccMlfTJJ.s:17     .rodata.tls_write_client_change_cipher_spec.str1.4:0000000000000044 .LC2
C:\Users\stapi\AppData\Local\Temp\ccMlfTJJ.s:106    .text.tls_write_client_change_cipher_spec:0000000000000076 .L2
C:\Users\stapi\AppData\Local\Temp\ccMlfTJJ.s:119    .text.tls_write_client_change_cipher_spec:000000000000008e .L4
C:\Users\stapi\AppData\Local\Temp\ccMlfTJJ.s:80     .text.tls_write_client_change_cipher_spec:0000000000000050 .L6
C:\Users\stapi\AppData\Local\Temp\ccMlfTJJ.s:94     .text.tls_write_client_change_cipher_spec:000000000000006c .L1
C:\Users\stapi\AppData\Local\Temp\ccMlfTJJ.s:137    .rodata.tls_write_client_finished.str1.4:0000000000000000 .LC3
C:\Users\stapi\AppData\Local\Temp\ccMlfTJJ.s:140    .rodata.tls_write_client_finished.str1.4:0000000000000018 .LC4
C:\Users\stapi\AppData\Local\Temp\ccMlfTJJ.s:143    .rodata.tls_write_client_finished.str1.4:0000000000000028 .LC5
C:\Users\stapi\AppData\Local\Temp\ccMlfTJJ.s:146    .rodata.tls_write_client_finished.str1.4:0000000000000050 .LC6
C:\Users\stapi\AppData\Local\Temp\ccMlfTJJ.s:234    .text.tls_write_client_finished:0000000000000062 .L8
C:\Users\stapi\AppData\Local\Temp\ccMlfTJJ.s:196    .text.tls_write_client_finished:000000000000002c .L10
C:\Users\stapi\AppData\Local\Temp\ccMlfTJJ.s:269    .text.tls_write_client_finished:0000000000000096 .L11
C:\Users\stapi\AppData\Local\Temp\ccMlfTJJ.s:217    .text.tls_write_client_finished:0000000000000054 .L17
C:\Users\stapi\AppData\Local\Temp\ccMlfTJJ.s:256    .text.tls_write_client_finished:0000000000000080 .L12
C:\Users\stapi\AppData\Local\Temp\ccMlfTJJ.s:311    .text.tls_write_client_finished:00000000000000ec .L13
C:\Users\stapi\AppData\Local\Temp\ccMlfTJJ.s:261    .text.tls_write_client_finished:0000000000000084 .L18
C:\Users\stapi\AppData\Local\Temp\ccMlfTJJ.s:361    .text.tls_write_client_finished:0000000000000146 .L14
C:\Users\stapi\AppData\Local\Temp\ccMlfTJJ.s:305    .text.tls_write_client_finished:00000000000000e0 .L16
C:\Users\stapi\AppData\Local\Temp\ccMlfTJJ.s:221    .text.tls_write_client_finished:0000000000000056 .L7
C:\Users\stapi\AppData\Local\Temp\ccMlfTJJ.s:376    .rodata.tls_send_client_hello.str1.4:0000000000000000 .LC7
C:\Users\stapi\AppData\Local\Temp\ccMlfTJJ.s:379    .rodata.tls_send_client_hello.str1.4:0000000000000020 .LC8
C:\Users\stapi\AppData\Local\Temp\ccMlfTJJ.s:382    .rodata.tls_send_client_hello.str1.4:0000000000000044 .LC9
C:\Users\stapi\AppData\Local\Temp\ccMlfTJJ.s:385    .rodata.tls_send_client_hello.str1.4:000000000000006c .LC10
C:\Users\stapi\AppData\Local\Temp\ccMlfTJJ.s:388    .rodata.tls_send_client_hello.str1.4:0000000000000084 .LC11
C:\Users\stapi\AppData\Local\Temp\ccMlfTJJ.s:391    .rodata.tls_send_client_hello.str1.4:00000000000000bc .LC12
C:\Users\stapi\AppData\Local\Temp\ccMlfTJJ.s:394    .rodata.tls_send_client_hello.str1.4:00000000000000f8 .LC13
C:\Users\stapi\AppData\Local\Temp\ccMlfTJJ.s:469    .text.tls_send_client_hello:0000000000000038 .L20
C:\Users\stapi\AppData\Local\Temp\ccMlfTJJ.s:535    .text.tls_send_client_hello:00000000000000a2 .L22
C:\Users\stapi\AppData\Local\Temp\ccMlfTJJ.s:440    .text.tls_send_client_hello:0000000000000022 .L40
C:\Users\stapi\AppData\Local\Temp\ccMlfTJJ.s:449    .text.tls_send_client_hello:000000000000002c .L19
C:\Users\stapi\AppData\Local\Temp\ccMlfTJJ.s:936    .text.tls_send_client_hello:000000000000027a .L24
C:\Users\stapi\AppData\Local\Temp\ccMlfTJJ.s:693    .text.tls_send_client_hello:0000000000000174 .L25
C:\Users\stapi\AppData\Local\Temp\ccMlfTJJ.s:859    .text.tls_send_client_hello:00000000000001fc .L26
C:\Users\stapi\AppData\Local\Temp\ccMlfTJJ.s:967    .text.tls_send_client_hello:0000000000000292 .L27
C:\Users\stapi\AppData\Local\Temp\ccMlfTJJ.s:987    .text.tls_send_client_hello:00000000000002aa .L29
C:\Users\stapi\AppData\Local\Temp\ccMlfTJJ.s:445    .text.tls_send_client_hello:000000000000002a .L39
C:\Users\stapi\AppData\Local\Temp\ccMlfTJJ.s:655    .text.tls_send_client_hello:0000000000000142 .L23
C:\Users\stapi\AppData\Local\Temp\ccMlfTJJ.s:867    .text.tls_send_client_hello:0000000000000202 .L28
C:\Users\stapi\AppData\Local\Temp\ccMlfTJJ.s:1002   .rodata.tlsv1_client_handshake_write.str1.4:0000000000000000 .LC14
C:\Users\stapi\AppData\Local\Temp\ccMlfTJJ.s:1008   .rodata.tlsv1_client_handshake_write.str1.4:0000000000000060 .LC16
C:\Users\stapi\AppData\Local\Temp\ccMlfTJJ.s:1011   .rodata.tlsv1_client_handshake_write.str1.4:00000000000000ac .LC17
C:\Users\stapi\AppData\Local\Temp\ccMlfTJJ.s:1005   .rodata.tlsv1_client_handshake_write.str1.4:0000000000000018 .LC15
C:\Users\stapi\AppData\Local\Temp\ccMlfTJJ.s:1014   .rodata.tlsv1_client_handshake_write.str1.4:00000000000000d0 .LC18
C:\Users\stapi\AppData\Local\Temp\ccMlfTJJ.s:1017   .rodata.tlsv1_client_handshake_write.str1.4:00000000000000f0 .LC19
C:\Users\stapi\AppData\Local\Temp\ccMlfTJJ.s:1020   .rodata.tlsv1_client_handshake_write.str1.4:000000000000012c .LC20
C:\Users\stapi\AppData\Local\Temp\ccMlfTJJ.s:1023   .rodata.tlsv1_client_handshake_write.str1.4:0000000000000160 .LC21
C:\Users\stapi\AppData\Local\Temp\ccMlfTJJ.s:1026   .rodata.tlsv1_client_handshake_write.str1.4:0000000000000180 .LC22
C:\Users\stapi\AppData\Local\Temp\ccMlfTJJ.s:1029   .rodata.tlsv1_client_handshake_write.str1.4:00000000000001b4 .LC23
C:\Users\stapi\AppData\Local\Temp\ccMlfTJJ.s:1032   .rodata.tlsv1_client_handshake_write.str1.4:00000000000001dc .LC24
C:\Users\stapi\AppData\Local\Temp\ccMlfTJJ.s:1035   .rodata.tlsv1_client_handshake_write.str1.4:0000000000000210 .LC25
C:\Users\stapi\AppData\Local\Temp\ccMlfTJJ.s:1038   .rodata.tlsv1_client_handshake_write.str1.4:0000000000000238 .LC26
C:\Users\stapi\AppData\Local\Temp\ccMlfTJJ.s:1041   .rodata.tlsv1_client_handshake_write.str1.4:0000000000000264 .LC27
C:\Users\stapi\AppData\Local\Temp\ccMlfTJJ.s:1044   .rodata.tlsv1_client_handshake_write.str1.4:0000000000000284 .LC28
C:\Users\stapi\AppData\Local\Temp\ccMlfTJJ.s:1047   .rodata.tlsv1_client_handshake_write.str1.4:00000000000002c8 .LC29
C:\Users\stapi\AppData\Local\Temp\ccMlfTJJ.s:1050   .rodata.tlsv1_client_handshake_write.str1.4:00000000000002e8 .LC30
C:\Users\stapi\AppData\Local\Temp\ccMlfTJJ.s:1053   .rodata.tlsv1_client_handshake_write.str1.4:000000000000030c .LC31
C:\Users\stapi\AppData\Local\Temp\ccMlfTJJ.s:1056   .rodata.tlsv1_client_handshake_write.str1.4:000000000000032c .LC32
C:\Users\stapi\AppData\Local\Temp\ccMlfTJJ.s:1059   .rodata.tlsv1_client_handshake_write.str1.4:000000000000034c .LC33
C:\Users\stapi\AppData\Local\Temp\ccMlfTJJ.s:1062   .rodata.tlsv1_client_handshake_write.str1.4:0000000000000374 .LC34
C:\Users\stapi\AppData\Local\Temp\ccMlfTJJ.s:1065   .rodata.tlsv1_client_handshake_write.str1.4:00000000000003a8 .LC35
C:\Users\stapi\AppData\Local\Temp\ccMlfTJJ.s:1068   .rodata.tlsv1_client_handshake_write.str1.4:00000000000003d0 .LC36
C:\Users\stapi\AppData\Local\Temp\ccMlfTJJ.s:2406   .text.tlsv1_client_handshake_write:00000000000006f2 .L42
C:\Users\stapi\AppData\Local\Temp\ccMlfTJJ.s:2483   .text.tlsv1_client_handshake_write:0000000000000766 .L43
C:\Users\stapi\AppData\Local\Temp\ccMlfTJJ.s:2513   .text.tlsv1_client_handshake_write:0000000000000794 .L44
C:\Users\stapi\AppData\Local\Temp\ccMlfTJJ.s:1161   .text.tlsv1_client_handshake_write:0000000000000044 .L45
C:\Users\stapi\AppData\Local\Temp\ccMlfTJJ.s:1155   .text.tlsv1_client_handshake_write:0000000000000040 .L46
C:\Users\stapi\AppData\Local\Temp\ccMlfTJJ.s:1215   .text.tlsv1_client_handshake_write:000000000000007c .L48
C:\Users\stapi\AppData\Local\Temp\ccMlfTJJ.s:2382   .text.tlsv1_client_handshake_write:00000000000006e6 .L41
C:\Users\stapi\AppData\Local\Temp\ccMlfTJJ.s:1485   .text.tlsv1_client_handshake_write:00000000000001e0 .L50
C:\Users\stapi\AppData\Local\Temp\ccMlfTJJ.s:1248   .text.tlsv1_client_handshake_write:00000000000000a6 .L51
C:\Users\stapi\AppData\Local\Temp\ccMlfTJJ.s:1613   .text.tlsv1_client_handshake_write:0000000000000280 .L98
C:\Users\stapi\AppData\Local\Temp\ccMlfTJJ.s:1151   .text.tlsv1_client_handshake_write:000000000000003e .L47
C:\Users\stapi\AppData\Local\Temp\ccMlfTJJ.s:1284   .text.tlsv1_client_handshake_write:00000000000000d0 .L53
C:\Users\stapi\AppData\Local\Temp\ccMlfTJJ.s:1387   .text.tlsv1_client_handshake_write:0000000000000154 .L56
C:\Users\stapi\AppData\Local\Temp\ccMlfTJJ.s:1295   .text.tlsv1_client_handshake_write:00000000000000e0 .L57
C:\Users\stapi\AppData\Local\Temp\ccMlfTJJ.s:1302   .text.tlsv1_client_handshake_write:00000000000000f2 .L58
C:\Users\stapi\AppData\Local\Temp\ccMlfTJJ.s:1466   .text.tlsv1_client_handshake_write:00000000000001c8 .L59
C:\Users\stapi\AppData\Local\Temp\ccMlfTJJ.s:1568   .text.tlsv1_client_handshake_write:000000000000023c .L131
C:\Users\stapi\AppData\Local\Temp\ccMlfTJJ.s:1409   .text.tlsv1_client_handshake_write:0000000000000178 .L55
C:\Users\stapi\AppData\Local\Temp\ccMlfTJJ.s:1199   .text.tlsv1_client_handshake_write:000000000000006a .L134
C:\Users\stapi\AppData\Local\Temp\ccMlfTJJ.s:1279   .text.tlsv1_client_handshake_write:00000000000000cc .L54
C:\Users\stapi\AppData\Local\Temp\ccMlfTJJ.s:1510   .text.tlsv1_client_handshake_write:00000000000001f4 .L60
C:\Users\stapi\AppData\Local\Temp\ccMlfTJJ.s:1957   .text.tlsv1_client_handshake_write:00000000000004ae .L61
C:\Users\stapi\AppData\Local\Temp\ccMlfTJJ.s:1579   .text.tlsv1_client_handshake_write:0000000000000248 .L62
C:\Users\stapi\AppData\Local\Temp\ccMlfTJJ.s:1635   .text.tlsv1_client_handshake_write:000000000000028e .L64
C:\Users\stapi\AppData\Local\Temp\ccMlfTJJ.s:1654   .text.tlsv1_client_handshake_write:00000000000002a6 .L65
C:\Users\stapi\AppData\Local\Temp\ccMlfTJJ.s:1668   .text.tlsv1_client_handshake_write:00000000000002b4 .L67
C:\Users\stapi\AppData\Local\Temp\ccMlfTJJ.s:1696   .text.tlsv1_client_handshake_write:00000000000002e6 .L68
C:\Users\stapi\AppData\Local\Temp\ccMlfTJJ.s:1707   .text.tlsv1_client_handshake_write:00000000000002ec .L69
C:\Users\stapi\AppData\Local\Temp\ccMlfTJJ.s:1595   .text.tlsv1_client_handshake_write:000000000000025c .L138
C:\Users\stapi\AppData\Local\Temp\ccMlfTJJ.s:1662   .text.tlsv1_client_handshake_write:00000000000002aa .L66
C:\Users\stapi\AppData\Local\Temp\ccMlfTJJ.s:1742   .text.tlsv1_client_handshake_write:0000000000000332 .L70
C:\Users\stapi\AppData\Local\Temp\ccMlfTJJ.s:1608   .text.tlsv1_client_handshake_write:0000000000000278 .L133
C:\Users\stapi\AppData\Local\Temp\ccMlfTJJ.s:1725   .text.tlsv1_client_handshake_write:0000000000000314 .L137
C:\Users\stapi\AppData\Local\Temp\ccMlfTJJ.s:1800   .text.tlsv1_client_handshake_write:0000000000000386 .L72
C:\Users\stapi\AppData\Local\Temp\ccMlfTJJ.s:1835   .text.tlsv1_client_handshake_write:00000000000003bc .L73
C:\Users\stapi\AppData\Local\Temp\ccMlfTJJ.s:1892   .text.tlsv1_client_handshake_write:0000000000000442 .L75
C:\Users\stapi\AppData\Local\Temp\ccMlfTJJ.s:1737   .text.tlsv1_client_handshake_write:000000000000032e .L132
C:\Users\stapi\AppData\Local\Temp\ccMlfTJJ.s:2067   .text.tlsv1_client_handshake_write:0000000000000550 .L81
C:\Users\stapi\AppData\Local\Temp\ccMlfTJJ.s:1977   .text.tlsv1_client_handshake_write:00000000000004c8 .L77
C:\Users\stapi\AppData\Local\Temp\ccMlfTJJ.s:1972   .text.tlsv1_client_handshake_write:00000000000004be .L78
C:\Users\stapi\AppData\Local\Temp\ccMlfTJJ.s:1995   .text.tlsv1_client_handshake_write:00000000000004ea .L79
C:\Users\stapi\AppData\Local\Temp\ccMlfTJJ.s:2030   .text.tlsv1_client_handshake_write:0000000000000526 .L80
C:\Users\stapi\AppData\Local\Temp\ccMlfTJJ.s:1908   .text.tlsv1_client_handshake_write:0000000000000464 .L76
C:\Users\stapi\AppData\Local\Temp\ccMlfTJJ.s:2345   .text.tlsv1_client_handshake_write:00000000000006b6 .L84
C:\Users\stapi\AppData\Local\Temp\ccMlfTJJ.s:2169   .text.tlsv1_client_handshake_write:00000000000005d4 .L85
C:\Users\stapi\AppData\Local\Temp\ccMlfTJJ.s:2145   .text.tlsv1_client_handshake_write:00000000000005aa .L86
C:\Users\stapi\AppData\Local\Temp\ccMlfTJJ.s:2199   .text.tlsv1_client_handshake_write:00000000000005f8 .L87
C:\Users\stapi\AppData\Local\Temp\ccMlfTJJ.s:2193   .text.tlsv1_client_handshake_write:00000000000005f2 .L88
C:\Users\stapi\AppData\Local\Temp\ccMlfTJJ.s:2247   .text.tlsv1_client_handshake_write:0000000000000640 .L89
C:\Users\stapi\AppData\Local\Temp\ccMlfTJJ.s:2242   .text.tlsv1_client_handshake_write:0000000000000636 .L90
C:\Users\stapi\AppData\Local\Temp\ccMlfTJJ.s:1377   .text.tlsv1_client_handshake_write:000000000000014a .L139
C:\Users\stapi\AppData\Local\Temp\ccMlfTJJ.s:2477   .text.tlsv1_client_handshake_write:0000000000000762 .L99
C:\Users\stapi\AppData\Local\Temp\ccMlfTJJ.s:2374   .text.tlsv1_client_handshake_write:00000000000006e4 .L136
C:\Users\stapi\AppData\Local\Temp\ccMlfTJJ.s:1627   .text.tlsv1_client_handshake_write:000000000000028a .L135
C:\Users\stapi\AppData\Local\Temp\ccMlfTJJ.s:2527   .rodata.tlsv1_client_send_alert.str1.4:0000000000000000 .LC37
C:\Users\stapi\AppData\Local\Temp\ccMlfTJJ.s:2646   .text.tlsv1_client_send_alert:0000000000000068 .L140
C:\Users\stapi\AppData\Local\Temp\ccMlfTJJ.s:2592   .text.tlsv1_client_send_alert:0000000000000046 .L142
C:\Users\stapi\AppData\Local\Temp\ccMlfTJJ.s:8236   .debug_abbrev:0000000000000000 .Ldebug_abbrev0
C:\Users\stapi\AppData\Local\Temp\ccMlfTJJ.s:11831  .debug_str:00000000000015ee .LASF348
C:\Users\stapi\AppData\Local\Temp\ccMlfTJJ.s:11573  .debug_str:0000000000000d5c .LASF349
C:\Users\stapi\AppData\Local\Temp\ccMlfTJJ.s:11349  .debug_str:000000000000060d .LASF350
C:\Users\stapi\AppData\Local\Temp\ccMlfTJJ.s:10991  .debug_ranges:0000000000000000 .Ldebug_ranges0
C:\Users\stapi\AppData\Local\Temp\ccMlfTJJ.s:11155  .debug_line:0000000000000000 .Ldebug_line0
C:\Users\stapi\AppData\Local\Temp\ccMlfTJJ.s:11397  .debug_str:0000000000000806 .LASF2
C:\Users\stapi\AppData\Local\Temp\ccMlfTJJ.s:11211  .debug_str:00000000000001a1 .LASF0
C:\Users\stapi\AppData\Local\Temp\ccMlfTJJ.s:11813  .debug_str:000000000000155d .LASF1
C:\Users\stapi\AppData\Local\Temp\ccMlfTJJ.s:11689  .debug_str:000000000000113e .LASF3
C:\Users\stapi\AppData\Local\Temp\ccMlfTJJ.s:11751  .debug_str:0000000000001363 .LASF4
C:\Users\stapi\AppData\Local\Temp\ccMlfTJJ.s:11635  .debug_str:0000000000000fc9 .LASF5
C:\Users\stapi\AppData\Local\Temp\ccMlfTJJ.s:11341  .debug_str:00000000000005d0 .LASF6
C:\Users\stapi\AppData\Local\Temp\ccMlfTJJ.s:11595  .debug_str:0000000000000ea1 .LASF7
C:\Users\stapi\AppData\Local\Temp\ccMlfTJJ.s:11645  .debug_str:0000000000001016 .LASF8
C:\Users\stapi\AppData\Local\Temp\ccMlfTJJ.s:11757  .debug_str:000000000000139b .LASF9
C:\Users\stapi\AppData\Local\Temp\ccMlfTJJ.s:11567  .debug_str:0000000000000d2a .LASF10
C:\Users\stapi\AppData\Local\Temp\ccMlfTJJ.s:11515  .debug_str:0000000000000b54 .LASF11
C:\Users\stapi\AppData\Local\Temp\ccMlfTJJ.s:11323  .debug_str:0000000000000540 .LASF12
C:\Users\stapi\AppData\Local\Temp\ccMlfTJJ.s:11461  .debug_str:00000000000009f0 .LASF13
C:\Users\stapi\AppData\Local\Temp\ccMlfTJJ.s:11493  .debug_str:0000000000000ac1 .LASF14
C:\Users\stapi\AppData\Local\Temp\ccMlfTJJ.s:11603  .debug_str:0000000000000ed1 .LASF15
C:\Users\stapi\AppData\Local\Temp\ccMlfTJJ.s:11839  .debug_str:000000000000171f .LASF16
C:\Users\stapi\AppData\Local\Temp\ccMlfTJJ.s:11409  .debug_str:000000000000084d .LASF17
C:\Users\stapi\AppData\Local\Temp\ccMlfTJJ.s:11507  .debug_str:0000000000000b09 .LASF18
C:\Users\stapi\AppData\Local\Temp\ccMlfTJJ.s:11665  .debug_str:0000000000001086 .LASF20
C:\Users\stapi\AppData\Local\Temp\ccMlfTJJ.s:11821  .debug_str:00000000000015b2 .LASF19
C:\Users\stapi\AppData\Local\Temp\ccMlfTJJ.s:11261  .debug_str:0000000000000320 .LASF21
C:\Users\stapi\AppData\Local\Temp\ccMlfTJJ.s:11555  .debug_str:0000000000000cc8 .LASF22
C:\Users\stapi\AppData\Local\Temp\ccMlfTJJ.s:11377  .debug_str:0000000000000765 .LASF23
C:\Users\stapi\AppData\Local\Temp\ccMlfTJJ.s:11197  .debug_str:0000000000000129 .LASF24
C:\Users\stapi\AppData\Local\Temp\ccMlfTJJ.s:11857  .debug_str:00000000000017b1 .LASF25
C:\Users\stapi\AppData\Local\Temp\ccMlfTJJ.s:11581  .debug_str:0000000000000e2e .LASF26
C:\Users\stapi\AppData\Local\Temp\ccMlfTJJ.s:11353  .debug_str:00000000000006a9 .LASF27
C:\Users\stapi\AppData\Local\Temp\ccMlfTJJ.s:11403  .debug_str:0000000000000823 .LASF28
C:\Users\stapi\AppData\Local\Temp\ccMlfTJJ.s:11525  .debug_str:0000000000000ba0 .LASF29
C:\Users\stapi\AppData\Local\Temp\ccMlfTJJ.s:11449  .debug_str:000000000000098f .LASF30
C:\Users\stapi\AppData\Local\Temp\ccMlfTJJ.s:11501  .debug_str:0000000000000ae5 .LASF35
C:\Users\stapi\AppData\Local\Temp\ccMlfTJJ.s:11783  .debug_str:0000000000001476 .LASF31
C:\Users\stapi\AppData\Local\Temp\ccMlfTJJ.s:11785  .debug_str:000000000000148d .LASF32
C:\Users\stapi\AppData\Local\Temp\ccMlfTJJ.s:11415  .debug_str:000000000000086a .LASF33
C:\Users\stapi\AppData\Local\Temp\ccMlfTJJ.s:11613  .debug_str:0000000000000f18 .LASF34
C:\Users\stapi\AppData\Local\Temp\ccMlfTJJ.s:11731  .debug_str:00000000000012c2 .LASF36
C:\Users\stapi\AppData\Local\Temp\ccMlfTJJ.s:11761  .debug_str:00000000000013b6 .LASF37
C:\Users\stapi\AppData\Local\Temp\ccMlfTJJ.s:11737  .debug_str:00000000000012f2 .LASF38
C:\Users\stapi\AppData\Local\Temp\ccMlfTJJ.s:11343  .debug_str:00000000000005db .LASF39
C:\Users\stapi\AppData\Local\Temp\ccMlfTJJ.s:11157  .debug_str:0000000000000000 .LASF40
C:\Users\stapi\AppData\Local\Temp\ccMlfTJJ.s:11703  .debug_str:00000000000011b3 .LASF41
C:\Users\stapi\AppData\Local\Temp\ccMlfTJJ.s:11717  .debug_str:0000000000001222 .LASF42
C:\Users\stapi\AppData\Local\Temp\ccMlfTJJ.s:11743  .debug_str:000000000000131d .LASF43
C:\Users\stapi\AppData\Local\Temp\ccMlfTJJ.s:11765  .debug_str:00000000000013e0 .LASF44
C:\Users\stapi\AppData\Local\Temp\ccMlfTJJ.s:11583  .debug_str:0000000000000e3a .LASF45
C:\Users\stapi\AppData\Local\Temp\ccMlfTJJ.s:11541  .debug_str:0000000000000c30 .LASF46
C:\Users\stapi\AppData\Local\Temp\ccMlfTJJ.s:11457  .debug_str:00000000000009c3 .LASF47
C:\Users\stapi\AppData\Local\Temp\ccMlfTJJ.s:11379  .debug_str:000000000000076a .LASF48
C:\Users\stapi\AppData\Local\Temp\ccMlfTJJ.s:11229  .debug_str:000000000000021b .LASF49
C:\Users\stapi\AppData\Local\Temp\ccMlfTJJ.s:11267  .debug_str:000000000000034c .LASF50
C:\Users\stapi\AppData\Local\Temp\ccMlfTJJ.s:11793  .debug_str:00000000000014dc .LASF51
C:\Users\stapi\AppData\Local\Temp\ccMlfTJJ.s:11231  .debug_str:0000000000000230 .LASF52
C:\Users\stapi\AppData\Local\Temp\ccMlfTJJ.s:11407  .debug_str:0000000000000848 .LASF53
C:\Users\stapi\AppData\Local\Temp\ccMlfTJJ.s:11647  .debug_str:000000000000101f .LASF54
C:\Users\stapi\AppData\Local\Temp\ccMlfTJJ.s:11205  .debug_str:0000000000000183 .LASF55
C:\Users\stapi\AppData\Local\Temp\ccMlfTJJ.s:11825  .debug_str:00000000000015c7 .LASF56
C:\Users\stapi\AppData\Local\Temp\ccMlfTJJ.s:11663  .debug_str:0000000000001077 .LASF57
C:\Users\stapi\AppData\Local\Temp\ccMlfTJJ.s:11669  .debug_str:000000000000109c .LASF58
C:\Users\stapi\AppData\Local\Temp\ccMlfTJJ.s:11327  .debug_str:000000000000057d .LASF59
C:\Users\stapi\AppData\Local\Temp\ccMlfTJJ.s:11337  .debug_str:00000000000005bd .LASF60
C:\Users\stapi\AppData\Local\Temp\ccMlfTJJ.s:11419  .debug_str:000000000000089c .LASF61
C:\Users\stapi\AppData\Local\Temp\ccMlfTJJ.s:11747  .debug_str:0000000000001348 .LASF62
C:\Users\stapi\AppData\Local\Temp\ccMlfTJJ.s:11519  .debug_str:0000000000000b76 .LASF63
C:\Users\stapi\AppData\Local\Temp\ccMlfTJJ.s:11475  .debug_str:0000000000000a36 .LASF351
C:\Users\stapi\AppData\Local\Temp\ccMlfTJJ.s:11247  .debug_str:000000000000028a .LASF64
C:\Users\stapi\AppData\Local\Temp\ccMlfTJJ.s:11185  .debug_str:00000000000000df .LASF65
C:\Users\stapi\AppData\Local\Temp\ccMlfTJJ.s:11239  .debug_str:0000000000000260 .LASF66
C:\Users\stapi\AppData\Local\Temp\ccMlfTJJ.s:11319  .debug_str:000000000000052d .LASF67
C:\Users\stapi\AppData\Local\Temp\ccMlfTJJ.s:11535  .debug_str:0000000000000bf6 .LASF68
C:\Users\stapi\AppData\Local\Temp\ccMlfTJJ.s:11459  .debug_str:00000000000009dc .LASF69
C:\Users\stapi\AppData\Local\Temp\ccMlfTJJ.s:11707  .debug_str:00000000000011d5 .LASF70
C:\Users\stapi\AppData\Local\Temp\ccMlfTJJ.s:11221  .debug_str:00000000000001db .LASF71
C:\Users\stapi\AppData\Local\Temp\ccMlfTJJ.s:11177  .debug_str:000000000000009e .LASF72
C:\Users\stapi\AppData\Local\Temp\ccMlfTJJ.s:11695  .debug_str:0000000000001161 .LASF73
C:\Users\stapi\AppData\Local\Temp\ccMlfTJJ.s:11701  .debug_str:00000000000011a2 .LASF74
C:\Users\stapi\AppData\Local\Temp\ccMlfTJJ.s:11223  .debug_str:00000000000001ed .LASF75
C:\Users\stapi\AppData\Local\Temp\ccMlfTJJ.s:11705  .debug_str:00000000000011c4 .LASF76
C:\Users\stapi\AppData\Local\Temp\ccMlfTJJ.s:11741  .debug_str:000000000000130b .LASF77
C:\Users\stapi\AppData\Local\Temp\ccMlfTJJ.s:11455  .debug_str:00000000000009b4 .LASF78
C:\Users\stapi\AppData\Local\Temp\ccMlfTJJ.s:11367  .debug_str:0000000000000711 .LASF79
C:\Users\stapi\AppData\Local\Temp\ccMlfTJJ.s:11199  .debug_str:000000000000012f .LASF80
C:\Users\stapi\AppData\Local\Temp\ccMlfTJJ.s:11335  .debug_str:00000000000005b8 .LASF81
C:\Users\stapi\AppData\Local\Temp\ccMlfTJJ.s:11847  .debug_str:000000000000176f .LASF82
C:\Users\stapi\AppData\Local\Temp\ccMlfTJJ.s:11237  .debug_str:000000000000025a .LASF83
C:\Users\stapi\AppData\Local\Temp\ccMlfTJJ.s:11499  .debug_str:0000000000000adb .LASF84
C:\Users\stapi\AppData\Local\Temp\ccMlfTJJ.s:11453  .debug_str:00000000000009ad .LASF85
C:\Users\stapi\AppData\Local\Temp\ccMlfTJJ.s:11549  .debug_str:0000000000000ca1 .LASF86
C:\Users\stapi\AppData\Local\Temp\ccMlfTJJ.s:11551  .debug_str:0000000000000cae .LASF87
C:\Users\stapi\AppData\Local\Temp\ccMlfTJJ.s:11553  .debug_str:0000000000000cbb .LASF88
C:\Users\stapi\AppData\Local\Temp\ccMlfTJJ.s:11641  .debug_str:0000000000000ff7 .LASF89
C:\Users\stapi\AppData\Local\Temp\ccMlfTJJ.s:11215  .debug_str:00000000000001bc .LASF90
C:\Users\stapi\AppData\Local\Temp\ccMlfTJJ.s:11217  .debug_str:00000000000001c1 .LASF91
C:\Users\stapi\AppData\Local\Temp\ccMlfTJJ.s:11207  .debug_str:000000000000018c .LASF92
C:\Users\stapi\AppData\Local\Temp\ccMlfTJJ.s:11219  .debug_str:00000000000001c9 .LASF93
C:\Users\stapi\AppData\Local\Temp\ccMlfTJJ.s:11357  .debug_str:00000000000006c6 .LASF94
C:\Users\stapi\AppData\Local\Temp\ccMlfTJJ.s:11497  .debug_str:0000000000000ad4 .LASF95
C:\Users\stapi\AppData\Local\Temp\ccMlfTJJ.s:11671  .debug_str:00000000000010a7 .LASF96
C:\Users\stapi\AppData\Local\Temp\ccMlfTJJ.s:11259  .debug_str:0000000000000311 .LASF97
C:\Users\stapi\AppData\Local\Temp\ccMlfTJJ.s:11795  .debug_str:00000000000014e2 .LASF98
C:\Users\stapi\AppData\Local\Temp\ccMlfTJJ.s:11779  .debug_str:000000000000144f .LASF99
C:\Users\stapi\AppData\Local\Temp\ccMlfTJJ.s:11693  .debug_str:0000000000001152 .LASF100
C:\Users\stapi\AppData\Local\Temp\ccMlfTJJ.s:11315  .debug_str:0000000000000517 .LASF101
C:\Users\stapi\AppData\Local\Temp\ccMlfTJJ.s:11625  .debug_str:0000000000000f7f .LASF102
C:\Users\stapi\AppData\Local\Temp\ccMlfTJJ.s:11655  .debug_str:0000000000001046 .LASF103
C:\Users\stapi\AppData\Local\Temp\ccMlfTJJ.s:11423  .debug_str:00000000000008b4 .LASF104
C:\Users\stapi\AppData\Local\Temp\ccMlfTJJ.s:11255  .debug_str:00000000000002f8 .LASF105
C:\Users\stapi\AppData\Local\Temp\ccMlfTJJ.s:11801  .debug_str:00000000000014ff .LASF106
C:\Users\stapi\AppData\Local\Temp\ccMlfTJJ.s:11301  .debug_str:0000000000000479 .LASF107
C:\Users\stapi\AppData\Local\Temp\ccMlfTJJ.s:11351  .debug_str:000000000000069f .LASF108
C:\Users\stapi\AppData\Local\Temp\ccMlfTJJ.s:11179  .debug_str:00000000000000b0 .LASF109
C:\Users\stapi\AppData\Local\Temp\ccMlfTJJ.s:11171  .debug_str:0000000000000066 .LASF110
C:\Users\stapi\AppData\Local\Temp\ccMlfTJJ.s:11317  .debug_str:0000000000000522 .LASF111
C:\Users\stapi\AppData\Local\Temp\ccMlfTJJ.s:11639  .debug_str:0000000000000fee .LASF112
C:\Users\stapi\AppData\Local\Temp\ccMlfTJJ.s:11615  .debug_str:0000000000000f22 .LASF113
C:\Users\stapi\AppData\Local\Temp\ccMlfTJJ.s:11621  .debug_str:0000000000000f5b .LASF114
C:\Users\stapi\AppData\Local\Temp\ccMlfTJJ.s:11485  .debug_str:0000000000000a85 .LASF115
C:\Users\stapi\AppData\Local\Temp\ccMlfTJJ.s:11585  .debug_str:0000000000000e56 .LASF116
C:\Users\stapi\AppData\Local\Temp\ccMlfTJJ.s:11539  .debug_str:0000000000000c21 .LASF117
C:\Users\stapi\AppData\Local\Temp\ccMlfTJJ.s:11759  .debug_str:00000000000013a6 .LASF118
C:\Users\stapi\AppData\Local\Temp\ccMlfTJJ.s:11451  .debug_str:0000000000000999 .LASF119
C:\Users\stapi\AppData\Local\Temp\ccMlfTJJ.s:11383  .debug_str:0000000000000793 .LASF120
C:\Users\stapi\AppData\Local\Temp\ccMlfTJJ.s:11295  .debug_str:0000000000000446 .LASF121
C:\Users\stapi\AppData\Local\Temp\ccMlfTJJ.s:11427  .debug_str:00000000000008c9 .LASF122
C:\Users\stapi\AppData\Local\Temp\ccMlfTJJ.s:11677  .debug_str:00000000000010d3 .LASF123
C:\Users\stapi\AppData\Local\Temp\ccMlfTJJ.s:11477  .debug_str:0000000000000a45 .LASF124
C:\Users\stapi\AppData\Local\Temp\ccMlfTJJ.s:11805  .debug_str:000000000000151b .LASF125
C:\Users\stapi\AppData\Local\Temp\ccMlfTJJ.s:11623  .debug_str:0000000000000f68 .LASF126
C:\Users\stapi\AppData\Local\Temp\ccMlfTJJ.s:11607  .debug_str:0000000000000ee7 .LASF127
C:\Users\stapi\AppData\Local\Temp\ccMlfTJJ.s:11333  .debug_str:00000000000005a5 .LASF128
C:\Users\stapi\AppData\Local\Temp\ccMlfTJJ.s:11587  .debug_str:0000000000000e63 .LASF129
C:\Users\stapi\AppData\Local\Temp\ccMlfTJJ.s:11513  .debug_str:0000000000000b3d .LASF130
C:\Users\stapi\AppData\Local\Temp\ccMlfTJJ.s:11727  .debug_str:000000000000128c .LASF131
C:\Users\stapi\AppData\Local\Temp\ccMlfTJJ.s:11291  .debug_str:000000000000041a .LASF132
C:\Users\stapi\AppData\Local\Temp\ccMlfTJJ.s:11293  .debug_str:0000000000000430 .LASF133
C:\Users\stapi\AppData\Local\Temp\ccMlfTJJ.s:11815  .debug_str:0000000000001569 .LASF134
C:\Users\stapi\AppData\Local\Temp\ccMlfTJJ.s:11447  .debug_str:000000000000096f .LASF135
C:\Users\stapi\AppData\Local\Temp\ccMlfTJJ.s:11729  .debug_str:00000000000012a2 .LASF136
C:\Users\stapi\AppData\Local\Temp\ccMlfTJJ.s:11325  .debug_str:0000000000000557 .LASF137
C:\Users\stapi\AppData\Local\Temp\ccMlfTJJ.s:11771  .debug_str:0000000000001408 .LASF138
C:\Users\stapi\AppData\Local\Temp\ccMlfTJJ.s:11543  .debug_str:0000000000000c50 .LASF139
C:\Users\stapi\AppData\Local\Temp\ccMlfTJJ.s:11311  .debug_str:00000000000004e0 .LASF140
C:\Users\stapi\AppData\Local\Temp\ccMlfTJJ.s:11529  .debug_str:0000000000000bb9 .LASF141
C:\Users\stapi\AppData\Local\Temp\ccMlfTJJ.s:11559  .debug_str:0000000000000cdf .LASF142
C:\Users\stapi\AppData\Local\Temp\ccMlfTJJ.s:11249  .debug_str:0000000000000294 .LASF143
C:\Users\stapi\AppData\Local\Temp\ccMlfTJJ.s:11331  .debug_str:0000000000000589 .LASF144
C:\Users\stapi\AppData\Local\Temp\ccMlfTJJ.s:11275  .debug_str:0000000000000378 .LASF145
C:\Users\stapi\AppData\Local\Temp\ccMlfTJJ.s:11201  .debug_str:0000000000000139 .LASF146
C:\Users\stapi\AppData\Local\Temp\ccMlfTJJ.s:11435  .debug_str:0000000000000920 .LASF147
C:\Users\stapi\AppData\Local\Temp\ccMlfTJJ.s:11837  .debug_str:0000000000001710 .LASF148
C:\Users\stapi\AppData\Local\Temp\ccMlfTJJ.s:11667  .debug_str:000000000000108e .LASF149
C:\Users\stapi\AppData\Local\Temp\ccMlfTJJ.s:11687  .debug_str:0000000000001129 .LASF150
C:\Users\stapi\AppData\Local\Temp\ccMlfTJJ.s:11673  .debug_str:00000000000010b2 .LASF151
C:\Users\stapi\AppData\Local\Temp\ccMlfTJJ.s:11851  .debug_str:0000000000001783 .LASF152
C:\Users\stapi\AppData\Local\Temp\ccMlfTJJ.s:11709  .debug_str:00000000000011ed .LASF153
C:\Users\stapi\AppData\Local\Temp\ccMlfTJJ.s:11537  .debug_str:0000000000000c10 .LASF154
C:\Users\stapi\AppData\Local\Temp\ccMlfTJJ.s:11389  .debug_str:00000000000007cb .LASF155
C:\Users\stapi\AppData\Local\Temp\ccMlfTJJ.s:11175  .debug_str:000000000000008c .LASF156
C:\Users\stapi\AppData\Local\Temp\ccMlfTJJ.s:11253  .debug_str:00000000000002df .LASF157
C:\Users\stapi\AppData\Local\Temp\ccMlfTJJ.s:11557  .debug_str:0000000000000ccd .LASF158
C:\Users\stapi\AppData\Local\Temp\ccMlfTJJ.s:11719  .debug_str:000000000000123c .LASF159
C:\Users\stapi\AppData\Local\Temp\ccMlfTJJ.s:11563  .debug_str:0000000000000d0f .LASF160
C:\Users\stapi\AppData\Local\Temp\ccMlfTJJ.s:11283  .debug_str:00000000000003d3 .LASF161
C:\Users\stapi\AppData\Local\Temp\ccMlfTJJ.s:11575  .debug_str:0000000000000df2 .LASF162
C:\Users\stapi\AppData\Local\Temp\ccMlfTJJ.s:11287  .debug_str:00000000000003f1 .LASF163
C:\Users\stapi\AppData\Local\Temp\ccMlfTJJ.s:11309  .debug_str:00000000000004cd .LASF164
C:\Users\stapi\AppData\Local\Temp\ccMlfTJJ.s:11387  .debug_str:00000000000007b5 .LASF165
C:\Users\stapi\AppData\Local\Temp\ccMlfTJJ.s:11235  .debug_str:0000000000000246 .LASF166
C:\Users\stapi\AppData\Local\Temp\ccMlfTJJ.s:11227  .debug_str:0000000000000206 .LASF167
C:\Users\stapi\AppData\Local\Temp\ccMlfTJJ.s:11855  .debug_str:000000000000179e .LASF168
C:\Users\stapi\AppData\Local\Temp\ccMlfTJJ.s:11169  .debug_str:000000000000004e .LASF169
C:\Users\stapi\AppData\Local\Temp\ccMlfTJJ.s:11375  .debug_str:000000000000074e .LASF170
C:\Users\stapi\AppData\Local\Temp\ccMlfTJJ.s:11431  .debug_str:00000000000008ec .LASF171
C:\Users\stapi\AppData\Local\Temp\ccMlfTJJ.s:11445  .debug_str:0000000000000964 .LASF172
C:\Users\stapi\AppData\Local\Temp\ccMlfTJJ.s:11591  .debug_str:0000000000000e8a .LASF173
C:\Users\stapi\AppData\Local\Temp\ccMlfTJJ.s:11817  .debug_str:000000000000158a .LASF174
C:\Users\stapi\AppData\Local\Temp\ccMlfTJJ.s:11505  .debug_str:0000000000000afc .LASF175
C:\Users\stapi\AppData\Local\Temp\ccMlfTJJ.s:11823  .debug_str:00000000000015b7 .LASF176
C:\Users\stapi\AppData\Local\Temp\ccMlfTJJ.s:11481  .debug_str:0000000000000a75 .LASF177
C:\Users\stapi\AppData\Local\Temp\ccMlfTJJ.s:11735  .debug_str:00000000000012e1 .LASF178
C:\Users\stapi\AppData\Local\Temp\ccMlfTJJ.s:11597  .debug_str:0000000000000eb4 .LASF179
C:\Users\stapi\AppData\Local\Temp\ccMlfTJJ.s:11627  .debug_str:0000000000000f8e .LASF180
C:\Users\stapi\AppData\Local\Temp\ccMlfTJJ.s:11483  .debug_str:0000000000000a7e .LASF181
C:\Users\stapi\AppData\Local\Temp\ccMlfTJJ.s:11829  .debug_str:00000000000015de .LASF182
C:\Users\stapi\AppData\Local\Temp\ccMlfTJJ.s:11381  .debug_str:0000000000000788 .LASF183
C:\Users\stapi\AppData\Local\Temp\ccMlfTJJ.s:11471  .debug_str:0000000000000a1e .LASF184
C:\Users\stapi\AppData\Local\Temp\ccMlfTJJ.s:11745  .debug_str:000000000000133a .LASF185
C:\Users\stapi\AppData\Local\Temp\ccMlfTJJ.s:11711  .debug_str:0000000000001205 .LASF186
C:\Users\stapi\AppData\Local\Temp\ccMlfTJJ.s:11807  .debug_str:0000000000001532 .LASF187
C:\Users\stapi\AppData\Local\Temp\ccMlfTJJ.s:11371  .debug_str:0000000000000731 .LASF188
C:\Users\stapi\AppData\Local\Temp\ccMlfTJJ.s:11565  .debug_str:0000000000000d21 .LASF189
C:\Users\stapi\AppData\Local\Temp\ccMlfTJJ.s:11321  .debug_str:0000000000000536 .LASF190
C:\Users\stapi\AppData\Local\Temp\ccMlfTJJ.s:11521  .debug_str:0000000000000b82 .LASF191
C:\Users\stapi\AppData\Local\Temp\ccMlfTJJ.s:11183  .debug_str:00000000000000d3 .LASF216
C:\Users\stapi\AppData\Local\Temp\ccMlfTJJ.s:11753  .debug_str:0000000000001371 .LASF192
C:\Users\stapi\AppData\Local\Temp\ccMlfTJJ.s:11579  .debug_str:0000000000000e17 .LASF193
C:\Users\stapi\AppData\Local\Temp\ccMlfTJJ.s:11819  .debug_str:0000000000001597 .LASF194
C:\Users\stapi\AppData\Local\Temp\ccMlfTJJ.s:11833  .debug_str:00000000000016e7 .LASF195
C:\Users\stapi\AppData\Local\Temp\ccMlfTJJ.s:11355  .debug_str:00000000000006b3 .LASF196
C:\Users\stapi\AppData\Local\Temp\ccMlfTJJ.s:11487  .debug_str:0000000000000a8f .LASF197
C:\Users\stapi\AppData\Local\Temp\ccMlfTJJ.s:11845  .debug_str:000000000000175e .LASF198
C:\Users\stapi\AppData\Local\Temp\ccMlfTJJ.s:11269  .debug_str:000000000000035a .LASF199
C:\Users\stapi\AppData\Local\Temp\ccMlfTJJ.s:11257  .debug_str:0000000000000307 .LASF200
C:\Users\stapi\AppData\Local\Temp\ccMlfTJJ.s:11165  .debug_str:0000000000000037 .LASF201
C:\Users\stapi\AppData\Local\Temp\ccMlfTJJ.s:11363  .debug_str:00000000000006eb .LASF202
C:\Users\stapi\AppData\Local\Temp\ccMlfTJJ.s:11685  .debug_str:0000000000001121 .LASF203
C:\Users\stapi\AppData\Local\Temp\ccMlfTJJ.s:11277  .debug_str:000000000000039b .LASF204
C:\Users\stapi\AppData\Local\Temp\ccMlfTJJ.s:11305  .debug_str:000000000000049b .LASF205
C:\Users\stapi\AppData\Local\Temp\ccMlfTJJ.s:11531  .debug_str:0000000000000bde .LASF206
C:\Users\stapi\AppData\Local\Temp\ccMlfTJJ.s:11273  .debug_str:000000000000036f .LASF207
C:\Users\stapi\AppData\Local\Temp\ccMlfTJJ.s:11463  .debug_str:00000000000009f5 .LASF208
C:\Users\stapi\AppData\Local\Temp\ccMlfTJJ.s:11167  .debug_str:0000000000000040 .LASF209
C:\Users\stapi\AppData\Local\Temp\ccMlfTJJ.s:11159  .debug_str:0000000000000017 .LASF210
C:\Users\stapi\AppData\Local\Temp\ccMlfTJJ.s:11617  .debug_str:0000000000000f31 .LASF211
C:\Users\stapi\AppData\Local\Temp\ccMlfTJJ.s:11191  .debug_str:0000000000000100 .LASF212
C:\Users\stapi\AppData\Local\Temp\ccMlfTJJ.s:11297  .debug_str:000000000000045f .LASF213
C:\Users\stapi\AppData\Local\Temp\ccMlfTJJ.s:11691  .debug_str:0000000000001148 .LASF214
C:\Users\stapi\AppData\Local\Temp\ccMlfTJJ.s:11593  .debug_str:0000000000000e98 .LASF215
C:\Users\stapi\AppData\Local\Temp\ccMlfTJJ.s:11437  .debug_str:0000000000000937 .LASF217
C:\Users\stapi\AppData\Local\Temp\ccMlfTJJ.s:11601  .debug_str:0000000000000ebf .LASF218
C:\Users\stapi\AppData\Local\Temp\ccMlfTJJ.s:11611  .debug_str:0000000000000f0a .LASF219
C:\Users\stapi\AppData\Local\Temp\ccMlfTJJ.s:11849  .debug_str:0000000000001778 .LASF220
C:\Users\stapi\AppData\Local\Temp\ccMlfTJJ.s:11809  .debug_str:000000000000153e .LASF221
C:\Users\stapi\AppData\Local\Temp\ccMlfTJJ.s:11609  .debug_str:0000000000000ef9 .LASF222
C:\Users\stapi\AppData\Local\Temp\ccMlfTJJ.s:11233  .debug_str:0000000000000238 .LASF223
C:\Users\stapi\AppData\Local\Temp\ccMlfTJJ.s:11775  .debug_str:0000000000001437 .LASF224
C:\Users\stapi\AppData\Local\Temp\ccMlfTJJ.s:11429  .debug_str:00000000000008e3 .LASF225
C:\Users\stapi\AppData\Local\Temp\ccMlfTJJ.s:11769  .debug_str:0000000000001403 .LASF226
C:\Users\stapi\AppData\Local\Temp\ccMlfTJJ.s:11675  .debug_str:00000000000010ca .LASF227
C:\Users\stapi\AppData\Local\Temp\ccMlfTJJ.s:11289  .debug_str:0000000000000403 .LASF228
C:\Users\stapi\AppData\Local\Temp\ccMlfTJJ.s:11417  .debug_str:000000000000087f .LASF229
C:\Users\stapi\AppData\Local\Temp\ccMlfTJJ.s:11789  .debug_str:00000000000014b2 .LASF230
C:\Users\stapi\AppData\Local\Temp\ccMlfTJJ.s:11683  .debug_str:0000000000001102 .LASF231
C:\Users\stapi\AppData\Local\Temp\ccMlfTJJ.s:11385  .debug_str:00000000000007a8 .LASF232
C:\Users\stapi\AppData\Local\Temp\ccMlfTJJ.s:11679  .debug_str:00000000000010ea .LASF233
C:\Users\stapi\AppData\Local\Temp\ccMlfTJJ.s:11345  .debug_str:00000000000005ec .LASF234
C:\Users\stapi\AppData\Local\Temp\ccMlfTJJ.s:11489  .debug_str:0000000000000a9b .LASF235
C:\Users\stapi\AppData\Local\Temp\ccMlfTJJ.s:11637  .debug_str:0000000000000fd3 .LASF236
C:\Users\stapi\AppData\Local\Temp\ccMlfTJJ.s:11263  .debug_str:0000000000000327 .LASF237
C:\Users\stapi\AppData\Local\Temp\ccMlfTJJ.s:11479  .debug_str:0000000000000a61 .LASF238
C:\Users\stapi\AppData\Local\Temp\ccMlfTJJ.s:11777  .debug_str:000000000000143c .LASF239
C:\Users\stapi\AppData\Local\Temp\ccMlfTJJ.s:11723  .debug_str:000000000000126d .LASF240
C:\Users\stapi\AppData\Local\Temp\ccMlfTJJ.s:11313  .debug_str:0000000000000507 .LASF241
C:\Users\stapi\AppData\Local\Temp\ccMlfTJJ.s:11527  .debug_str:0000000000000bac .LASF242
C:\Users\stapi\AppData\Local\Temp\ccMlfTJJ.s:11827  .debug_str:00000000000015d2 .LASF243
C:\Users\stapi\AppData\Local\Temp\ccMlfTJJ.s:11209  .debug_str:000000000000019a .LASF244
C:\Users\stapi\AppData\Local\Temp\ccMlfTJJ.s:11411  .debug_str:0000000000000853 .LASF245
C:\Users\stapi\AppData\Local\Temp\ccMlfTJJ.s:11797  .debug_str:00000000000014ed .LASF246
C:\Users\stapi\AppData\Local\Temp\ccMlfTJJ.s:11441  .debug_str:0000000000000954 .LASF247
C:\Users\stapi\AppData\Local\Temp\ccMlfTJJ.s:11439  .debug_str:0000000000000945 .LASF248
C:\Users\stapi\AppData\Local\Temp\ccMlfTJJ.s:11347  .debug_str:00000000000005ff .LASF249
C:\Users\stapi\AppData\Local\Temp\ccMlfTJJ.s:11787  .debug_str:00000000000014a4 .LASF250
C:\Users\stapi\AppData\Local\Temp\ccMlfTJJ.s:11643  .debug_str:0000000000001008 .LASF251
C:\Users\stapi\AppData\Local\Temp\ccMlfTJJ.s:11395  .debug_str:00000000000007fa .LASF252
C:\Users\stapi\AppData\Local\Temp\ccMlfTJJ.s:11189  .debug_str:00000000000000ee .LASF253
C:\Users\stapi\AppData\Local\Temp\ccMlfTJJ.s:11245  .debug_str:0000000000000274 .LASF254
C:\Users\stapi\AppData\Local\Temp\ccMlfTJJ.s:11773  .debug_str:0000000000001427 .LASF255
C:\Users\stapi\AppData\Local\Temp\ccMlfTJJ.s:11721  .debug_str:0000000000001255 .LASF256
C:\Users\stapi\AppData\Local\Temp\ccMlfTJJ.s:11173  .debug_str:0000000000000079 .LASF257
C:\Users\stapi\AppData\Local\Temp\ccMlfTJJ.s:11495  .debug_str:0000000000000ac9 .LASF258
C:\Users\stapi\AppData\Local\Temp\ccMlfTJJ.s:11359  .debug_str:00000000000006d0 .LASF259
C:\Users\stapi\AppData\Local\Temp\ccMlfTJJ.s:11373  .debug_str:000000000000073f .LASF260
C:\Users\stapi\AppData\Local\Temp\ccMlfTJJ.s:11835  .debug_str:0000000000001709 .LASF261
C:\Users\stapi\AppData\Local\Temp\ccMlfTJJ.s:11303  .debug_str:000000000000048d .LASF262
C:\Users\stapi\AppData\Local\Temp\ccMlfTJJ.s:11697  .debug_str:0000000000001172 .LASF263
C:\Users\stapi\AppData\Local\Temp\ccMlfTJJ.s:11469  .debug_str:0000000000000a0c .LASF264
C:\Users\stapi\AppData\Local\Temp\ccMlfTJJ.s:11589  .debug_str:0000000000000e79 .LASF265
C:\Users\stapi\AppData\Local\Temp\ccMlfTJJ.s:11181  .debug_str:00000000000000be .LASF266
C:\Users\stapi\AppData\Local\Temp\ccMlfTJJ.s:11755  .debug_str:0000000000001395 .LASF267
C:\Users\stapi\AppData\Local\Temp\ccMlfTJJ.s:11853  .debug_str:0000000000001794 .LASF268
C:\Users\stapi\AppData\Local\Temp\ccMlfTJJ.s:11599  .debug_str:0000000000000eba .LASF269
C:\Users\stapi\AppData\Local\Temp\ccMlfTJJ.s:11523  .debug_str:0000000000000b8e .LASF270
C:\Users\stapi\AppData\Local\Temp\ccMlfTJJ.s:11653  .debug_str:0000000000001030 .LASF271
C:\Users\stapi\AppData\Local\Temp\ccMlfTJJ.s:11571  .debug_str:0000000000000d4e .LASF272
C:\Users\stapi\AppData\Local\Temp\ccMlfTJJ.s:11803  .debug_str:0000000000001512 .LASF273
C:\Users\stapi\AppData\Local\Temp\ccMlfTJJ.s:11225  .debug_str:00000000000001ff .LASF274
C:\Users\stapi\AppData\Local\Temp\ccMlfTJJ.s:11473  .debug_str:0000000000000a2a .LASF275
C:\Users\stapi\AppData\Local\Temp\ccMlfTJJ.s:11491  .debug_str:0000000000000aaf .LASF276
C:\Users\stapi\AppData\Local\Temp\ccMlfTJJ.s:11859  .debug_str:00000000000017bf .LASF281
C:\Users\stapi\AppData\Local\Temp\ccMlfTJJ.s:2534   .text.tlsv1_client_send_alert:0000000000000000 .LFB98
C:\Users\stapi\AppData\Local\Temp\ccMlfTJJ.s:2656   .text.tlsv1_client_send_alert:0000000000000070 .LFE98
C:\Users\stapi\AppData\Local\Temp\ccMlfTJJ.s:11187  .debug_str:00000000000000e9 .LASF277
C:\Users\stapi\AppData\Local\Temp\ccMlfTJJ.s:9287   .debug_loc:0000000000000000 .LLST109
C:\Users\stapi\AppData\Local\Temp\ccMlfTJJ.s:11243  .debug_str:000000000000026e .LASF278
C:\Users\stapi\AppData\Local\Temp\ccMlfTJJ.s:9298   .debug_loc:000000000000001e .LLST110
C:\Users\stapi\AppData\Local\Temp\ccMlfTJJ.s:9312   .debug_loc:000000000000003f .LLST111
C:\Users\stapi\AppData\Local\Temp\ccMlfTJJ.s:11241  .debug_str:0000000000000266 .LASF279
C:\Users\stapi\AppData\Local\Temp\ccMlfTJJ.s:9326   .debug_loc:0000000000000060 .LLST112
C:\Users\stapi\AppData\Local\Temp\ccMlfTJJ.s:9337   .debug_loc:000000000000007e .LLST113
C:\Users\stapi\AppData\Local\Temp\ccMlfTJJ.s:11649  .debug_str:0000000000001024 .LASF280
C:\Users\stapi\AppData\Local\Temp\ccMlfTJJ.s:9358   .debug_loc:00000000000000ad .LLST114
C:\Users\stapi\AppData\Local\Temp\ccMlfTJJ.s:2594   .text.tlsv1_client_send_alert:0000000000000046 .LBB222
C:\Users\stapi\AppData\Local\Temp\ccMlfTJJ.s:9367   .debug_loc:00000000000000c2 .LLST115
C:\Users\stapi\AppData\Local\Temp\ccMlfTJJ.s:9374   .debug_loc:00000000000000d5 .LLST116
C:\Users\stapi\AppData\Local\Temp\ccMlfTJJ.s:2603   .text.tlsv1_client_send_alert:000000000000004e .LBB225
C:\Users\stapi\AppData\Local\Temp\ccMlfTJJ.s:9383   .debug_loc:00000000000000ea .LLST117
C:\Users\stapi\AppData\Local\Temp\ccMlfTJJ.s:9391   .debug_loc:00000000000000fe .LLST118
C:\Users\stapi\AppData\Local\Temp\ccMlfTJJ.s:2567   .text.tlsv1_client_send_alert:0000000000000026 .LVL256
C:\Users\stapi\AppData\Local\Temp\ccMlfTJJ.s:2576   .text.tlsv1_client_send_alert:0000000000000034 .LVL257
C:\Users\stapi\AppData\Local\Temp\ccMlfTJJ.s:11545  .debug_str:0000000000000c77 .LASF282
C:\Users\stapi\AppData\Local\Temp\ccMlfTJJ.s:1075   .text.tlsv1_client_handshake_write:0000000000000000 .LFB97
C:\Users\stapi\AppData\Local\Temp\ccMlfTJJ.s:2523   .text.tlsv1_client_handshake_write:00000000000007a8 .LFE97
C:\Users\stapi\AppData\Local\Temp\ccMlfTJJ.s:9400   .debug_loc:0000000000000113 .LLST42
C:\Users\stapi\AppData\Local\Temp\ccMlfTJJ.s:9411   .debug_loc:0000000000000131 .LLST43
C:\Users\stapi\AppData\Local\Temp\ccMlfTJJ.s:11285  .debug_str:00000000000003e4 .LASF283
C:\Users\stapi\AppData\Local\Temp\ccMlfTJJ.s:9446   .debug_loc:0000000000000191 .LLST44
C:\Users\stapi\AppData\Local\Temp\ccMlfTJJ.s:1116   .text.tlsv1_client_handshake_write:0000000000000024 .LBB146
C:\Users\stapi\AppData\Local\Temp\ccMlfTJJ.s:9479   .debug_loc:00000000000001e1 .LLST45
C:\Users\stapi\AppData\Local\Temp\ccMlfTJJ.s:9494   .debug_loc:000000000000020a .LLST46
C:\Users\stapi\AppData\Local\Temp\ccMlfTJJ.s:9509   .debug_loc:0000000000000233 .LLST47
C:\Users\stapi\AppData\Local\Temp\ccMlfTJJ.s:9524   .debug_loc:000000000000025c .LLST48
C:\Users\stapi\AppData\Local\Temp\ccMlfTJJ.s:9539   .debug_loc:0000000000000285 .LLST49
C:\Users\stapi\AppData\Local\Temp\ccMlfTJJ.s:1135   .text.tlsv1_client_handshake_write:0000000000000034 .LBB148
C:\Users\stapi\AppData\Local\Temp\ccMlfTJJ.s:9582   .debug_loc:00000000000002f6 .LLST50
C:\Users\stapi\AppData\Local\Temp\ccMlfTJJ.s:9597   .debug_loc:000000000000031f .LLST51
C:\Users\stapi\AppData\Local\Temp\ccMlfTJJ.s:9613   .debug_loc:0000000000000349 .LLST52
C:\Users\stapi\AppData\Local\Temp\ccMlfTJJ.s:1234   .text.tlsv1_client_handshake_write:000000000000008e .LVL105
C:\Users\stapi\AppData\Local\Temp\ccMlfTJJ.s:1243   .text.tlsv1_client_handshake_write:00000000000000a2 .LVL106
C:\Users\stapi\AppData\Local\Temp\ccMlfTJJ.s:1187   .text.tlsv1_client_handshake_write:0000000000000064 .LBB151
C:\Users\stapi\AppData\Local\Temp\ccMlfTJJ.s:9624   .debug_loc:0000000000000367 .LLST53
C:\Users\stapi\AppData\Local\Temp\ccMlfTJJ.s:9639   .debug_loc:0000000000000390 .LLST54
C:\Users\stapi\AppData\Local\Temp\ccMlfTJJ.s:9660   .debug_loc:00000000000003c2 .LLST55
C:\Users\stapi\AppData\Local\Temp\ccMlfTJJ.s:9675   .debug_loc:00000000000003eb .LLST56
C:\Users\stapi\AppData\Local\Temp\ccMlfTJJ.s:9706   .debug_loc:0000000000000439 .LLST57
C:\Users\stapi\AppData\Local\Temp\ccMlfTJJ.s:9717   .debug_loc:0000000000000457 .LLST58
C:\Users\stapi\AppData\Local\Temp\ccMlfTJJ.s:9732   .debug_loc:0000000000000479 .LLST59
C:\Users\stapi\AppData\Local\Temp\ccMlfTJJ.s:9747   .debug_loc:000000000000049b .LLST60
C:\Users\stapi\AppData\Local\Temp\ccMlfTJJ.s:9762   .debug_loc:00000000000004bd .LLST61
C:\Users\stapi\AppData\Local\Temp\ccMlfTJJ.s:1307   .text.tlsv1_client_handshake_write:00000000000000f8 .LBB153
C:\Users\stapi\AppData\Local\Temp\ccMlfTJJ.s:1329   .text.tlsv1_client_handshake_write:0000000000000112 .LBB158
C:\Users\stapi\AppData\Local\Temp\ccMlfTJJ.s:9777   .debug_loc:00000000000004e6 .LLST62
C:\Users\stapi\AppData\Local\Temp\ccMlfTJJ.s:9784   .debug_loc:00000000000004f9 .LLST63
C:\Users\stapi\AppData\Local\Temp\ccMlfTJJ.s:1412   .text.tlsv1_client_handshake_write:0000000000000178 .LBB163
C:\Users\stapi\AppData\Local\Temp\ccMlfTJJ.s:1429   .text.tlsv1_client_handshake_write:000000000000018c .LBE163
C:\Users\stapi\AppData\Local\Temp\ccMlfTJJ.s:9793   .debug_loc:000000000000050e .LLST64
C:\Users\stapi\AppData\Local\Temp\ccMlfTJJ.s:9800   .debug_loc:0000000000000521 .LLST65
C:\Users\stapi\AppData\Local\Temp\ccMlfTJJ.s:1258   .text.tlsv1_client_handshake_write:00000000000000b8 .LVL109
C:\Users\stapi\AppData\Local\Temp\ccMlfTJJ.s:1301   .text.tlsv1_client_handshake_write:00000000000000f2 .LVL114
C:\Users\stapi\AppData\Local\Temp\ccMlfTJJ.s:1373   .text.tlsv1_client_handshake_write:0000000000000146 .LVL117
C:\Users\stapi\AppData\Local\Temp\ccMlfTJJ.s:1406   .text.tlsv1_client_handshake_write:0000000000000176 .LVL120
C:\Users\stapi\AppData\Local\Temp\ccMlfTJJ.s:1440   .text.tlsv1_client_handshake_write:00000000000001a0 .LVL124
C:\Users\stapi\AppData\Local\Temp\ccMlfTJJ.s:1452   .text.tlsv1_client_handshake_write:00000000000001b0 .LVL126
C:\Users\stapi\AppData\Local\Temp\ccMlfTJJ.s:1461   .text.tlsv1_client_handshake_write:00000000000001c4 .LVL127
C:\Users\stapi\AppData\Local\Temp\ccMlfTJJ.s:1479   .text.tlsv1_client_handshake_write:00000000000001de .LVL131
C:\Users\stapi\AppData\Local\Temp\ccMlfTJJ.s:1202   .text.tlsv1_client_handshake_write:000000000000006a .LBB167
C:\Users\stapi\AppData\Local\Temp\ccMlfTJJ.s:9807   .debug_loc:0000000000000534 .LLST66
C:\Users\stapi\AppData\Local\Temp\ccMlfTJJ.s:9822   .debug_loc:000000000000055d .LLST67
C:\Users\stapi\AppData\Local\Temp\ccMlfTJJ.s:9843   .debug_loc:000000000000058f .LLST68
C:\Users\stapi\AppData\Local\Temp\ccMlfTJJ.s:9858   .debug_loc:00000000000005b8 .LLST69
C:\Users\stapi\AppData\Local\Temp\ccMlfTJJ.s:9918   .debug_loc:000000000000063f .LLST70
C:\Users\stapi\AppData\Local\Temp\ccMlfTJJ.s:9939   .debug_loc:0000000000000675 .LLST71
C:\Users\stapi\AppData\Local\Temp\ccMlfTJJ.s:9954   .debug_loc:000000000000069e .LLST72
C:\Users\stapi\AppData\Local\Temp\ccMlfTJJ.s:9972   .debug_loc:00000000000006cd .LLST73
C:\Users\stapi\AppData\Local\Temp\ccMlfTJJ.s:1204   .text.tlsv1_client_handshake_write:000000000000006a .LBB169
C:\Users\stapi\AppData\Local\Temp\ccMlfTJJ.s:9979   .debug_loc:00000000000006e0 .LLST74
C:\Users\stapi\AppData\Local\Temp\ccMlfTJJ.s:9986   .debug_loc:00000000000006f3 .LLST75
C:\Users\stapi\AppData\Local\Temp\ccMlfTJJ.s:9995   .debug_loc:000000000000070b .LLST76
C:\Users\stapi\AppData\Local\Temp\ccMlfTJJ.s:10002  .debug_loc:000000000000071e .LLST77
C:\Users\stapi\AppData\Local\Temp\ccMlfTJJ.s:2034   .text.tlsv1_client_handshake_write:0000000000000528 .LBB171
C:\Users\stapi\AppData\Local\Temp\ccMlfTJJ.s:10013  .debug_loc:000000000000073c .LLST78
C:\Users\stapi\AppData\Local\Temp\ccMlfTJJ.s:10020  .debug_loc:000000000000074f .LLST79
C:\Users\stapi\AppData\Local\Temp\ccMlfTJJ.s:1211   .text.tlsv1_client_handshake_write:000000000000007a .LVL102
C:\Users\stapi\AppData\Local\Temp\ccMlfTJJ.s:1576   .text.tlsv1_client_handshake_write:0000000000000246 .LVL144
C:\Users\stapi\AppData\Local\Temp\ccMlfTJJ.s:1969   .text.tlsv1_client_handshake_write:00000000000004ba .LVL194
C:\Users\stapi\AppData\Local\Temp\ccMlfTJJ.s:1983   .text.tlsv1_client_handshake_write:00000000000004d8 .LVL195
C:\Users\stapi\AppData\Local\Temp\ccMlfTJJ.s:2013   .text.tlsv1_client_handshake_write:0000000000000506 .LVL197
C:\Users\stapi\AppData\Local\Temp\ccMlfTJJ.s:2022   .text.tlsv1_client_handshake_write:0000000000000518 .LVL200
C:\Users\stapi\AppData\Local\Temp\ccMlfTJJ.s:2058   .text.tlsv1_client_handshake_write:000000000000054a .LVL203
C:\Users\stapi\AppData\Local\Temp\ccMlfTJJ.s:1546   .text.tlsv1_client_handshake_write:0000000000000222 .LBB177
C:\Users\stapi\AppData\Local\Temp\ccMlfTJJ.s:10029  .debug_loc:0000000000000764 .LLST80
C:\Users\stapi\AppData\Local\Temp\ccMlfTJJ.s:10044  .debug_loc:000000000000078d .LLST81
C:\Users\stapi\AppData\Local\Temp\ccMlfTJJ.s:10065  .debug_loc:00000000000007c5 .LLST82
C:\Users\stapi\AppData\Local\Temp\ccMlfTJJ.s:10080  .debug_loc:00000000000007ee .LLST83
C:\Users\stapi\AppData\Local\Temp\ccMlfTJJ.s:10099  .debug_loc:0000000000000822 .LLST84
C:\Users\stapi\AppData\Local\Temp\ccMlfTJJ.s:10110  .debug_loc:0000000000000840 .LLST85
C:\Users\stapi\AppData\Local\Temp\ccMlfTJJ.s:10129  .debug_loc:0000000000000874 .LLST86
C:\Users\stapi\AppData\Local\Temp\ccMlfTJJ.s:10140  .debug_loc:0000000000000892 .LLST87
C:\Users\stapi\AppData\Local\Temp\ccMlfTJJ.s:1766   .text.tlsv1_client_handshake_write:0000000000000358 .LBB179
C:\Users\stapi\AppData\Local\Temp\ccMlfTJJ.s:10155  .debug_loc:00000000000008bb .LLST88
C:\Users\stapi\AppData\Local\Temp\ccMlfTJJ.s:10162  .debug_loc:00000000000008ce .LLST89
C:\Users\stapi\AppData\Local\Temp\ccMlfTJJ.s:1558   .text.tlsv1_client_handshake_write:0000000000000230 .LVL141
C:\Users\stapi\AppData\Local\Temp\ccMlfTJJ.s:1588   .text.tlsv1_client_handshake_write:0000000000000252 .LVL146
C:\Users\stapi\AppData\Local\Temp\ccMlfTJJ.s:1599   .text.tlsv1_client_handshake_write:0000000000000266 .LVL148
C:\Users\stapi\AppData\Local\Temp\ccMlfTJJ.s:1605   .text.tlsv1_client_handshake_write:0000000000000276 .LVL149
C:\Users\stapi\AppData\Local\Temp\ccMlfTJJ.s:1611   .text.tlsv1_client_handshake_write:0000000000000280 .LVL150
C:\Users\stapi\AppData\Local\Temp\ccMlfTJJ.s:1648   .text.tlsv1_client_handshake_write:000000000000029e .LVL153
C:\Users\stapi\AppData\Local\Temp\ccMlfTJJ.s:1676   .text.tlsv1_client_handshake_write:00000000000002ca .LVL156
C:\Users\stapi\AppData\Local\Temp\ccMlfTJJ.s:1685   .text.tlsv1_client_handshake_write:00000000000002d8 .LVL157
C:\Users\stapi\AppData\Local\Temp\ccMlfTJJ.s:1721   .text.tlsv1_client_handshake_write:0000000000000312 .LVL164
C:\Users\stapi\AppData\Local\Temp\ccMlfTJJ.s:1731   .text.tlsv1_client_handshake_write:0000000000000324 .LVL166
C:\Users\stapi\AppData\Local\Temp\ccMlfTJJ.s:1735   .text.tlsv1_client_handshake_write:000000000000032e .LVL167
C:\Users\stapi\AppData\Local\Temp\ccMlfTJJ.s:1750   .text.tlsv1_client_handshake_write:0000000000000348 .LVL169
C:\Users\stapi\AppData\Local\Temp\ccMlfTJJ.s:1797   .text.tlsv1_client_handshake_write:0000000000000384 .LVL173
C:\Users\stapi\AppData\Local\Temp\ccMlfTJJ.s:1805   .text.tlsv1_client_handshake_write:0000000000000392 .LVL174
C:\Users\stapi\AppData\Local\Temp\ccMlfTJJ.s:1816   .text.tlsv1_client_handshake_write:00000000000003a0 .LVL176
C:\Users\stapi\AppData\Local\Temp\ccMlfTJJ.s:1825   .text.tlsv1_client_handshake_write:00000000000003ae .LVL177
C:\Users\stapi\AppData\Local\Temp\ccMlfTJJ.s:1849   .text.tlsv1_client_handshake_write:00000000000003de .LVL180
C:\Users\stapi\AppData\Local\Temp\ccMlfTJJ.s:1859   .text.tlsv1_client_handshake_write:00000000000003f6 .LVL181
C:\Users\stapi\AppData\Local\Temp\ccMlfTJJ.s:1865   .text.tlsv1_client_handshake_write:0000000000000404 .LVL182
C:\Users\stapi\AppData\Local\Temp\ccMlfTJJ.s:1869   .text.tlsv1_client_handshake_write:000000000000040e .LVL183
C:\Users\stapi\AppData\Local\Temp\ccMlfTJJ.s:1876   .text.tlsv1_client_handshake_write:000000000000041c .LVL184
C:\Users\stapi\AppData\Local\Temp\ccMlfTJJ.s:1884   .text.tlsv1_client_handshake_write:0000000000000430 .LVL185
C:\Users\stapi\AppData\Local\Temp\ccMlfTJJ.s:1890   .text.tlsv1_client_handshake_write:0000000000000440 .LVL186
C:\Users\stapi\AppData\Local\Temp\ccMlfTJJ.s:1898   .text.tlsv1_client_handshake_write:0000000000000450 .LVL187
C:\Users\stapi\AppData\Local\Temp\ccMlfTJJ.s:1902   .text.tlsv1_client_handshake_write:000000000000045a .LVL188
C:\Users\stapi\AppData\Local\Temp\ccMlfTJJ.s:1906   .text.tlsv1_client_handshake_write:0000000000000464 .LVL189
C:\Users\stapi\AppData\Local\Temp\ccMlfTJJ.s:1922   .text.tlsv1_client_handshake_write:0000000000000474 .LBB190
C:\Users\stapi\AppData\Local\Temp\ccMlfTJJ.s:1939   .text.tlsv1_client_handshake_write:0000000000000488 .LBE190
C:\Users\stapi\AppData\Local\Temp\ccMlfTJJ.s:10171  .debug_loc:00000000000008e3 .LLST90
C:\Users\stapi\AppData\Local\Temp\ccMlfTJJ.s:10178  .debug_loc:00000000000008f6 .LLST91
C:\Users\stapi\AppData\Local\Temp\ccMlfTJJ.s:1502   .text.tlsv1_client_handshake_write:00000000000001ee .LVL133
C:\Users\stapi\AppData\Local\Temp\ccMlfTJJ.s:1521   .text.tlsv1_client_handshake_write:0000000000000208 .LVL137
C:\Users\stapi\AppData\Local\Temp\ccMlfTJJ.s:1949   .text.tlsv1_client_handshake_write:00000000000004a0 .LVL192
C:\Users\stapi\AppData\Local\Temp\ccMlfTJJ.s:2083   .text.tlsv1_client_handshake_write:0000000000000566 .LVL207
C:\Users\stapi\AppData\Local\Temp\ccMlfTJJ.s:1380   .text.tlsv1_client_handshake_write:000000000000014a .LBB198
C:\Users\stapi\AppData\Local\Temp\ccMlfTJJ.s:10186  .debug_loc:000000000000090b .LLST92
C:\Users\stapi\AppData\Local\Temp\ccMlfTJJ.s:10197  .debug_loc:0000000000000929 .LLST93
C:\Users\stapi\AppData\Local\Temp\ccMlfTJJ.s:10212  .debug_loc:000000000000094d .LLST94
C:\Users\stapi\AppData\Local\Temp\ccMlfTJJ.s:10223  .debug_loc:000000000000096b .LLST95
C:\Users\stapi\AppData\Local\Temp\ccMlfTJJ.s:10258  .debug_loc:00000000000009c4 .LLST96
C:\Users\stapi\AppData\Local\Temp\ccMlfTJJ.s:10271  .debug_loc:00000000000009e4 .LLST97
C:\Users\stapi\AppData\Local\Temp\ccMlfTJJ.s:10278  .debug_loc:00000000000009f7 .LLST98
C:\Users\stapi\AppData\Local\Temp\ccMlfTJJ.s:10285  .debug_loc:0000000000000a0a .LLST99
C:\Users\stapi\AppData\Local\Temp\ccMlfTJJ.s:10300  .debug_loc:0000000000000a2c .LLST100
C:\Users\stapi\AppData\Local\Temp\ccMlfTJJ.s:2261   .text.tlsv1_client_handshake_write:0000000000000658 .LBB200
C:\Users\stapi\AppData\Local\Temp\ccMlfTJJ.s:10335  .debug_loc:0000000000000a82 .LLST101
C:\Users\stapi\AppData\Local\Temp\ccMlfTJJ.s:10342  .debug_loc:0000000000000a95 .LLST102
C:\Users\stapi\AppData\Local\Temp\ccMlfTJJ.s:2297   .text.tlsv1_client_handshake_write:0000000000000674 .LBB206
C:\Users\stapi\AppData\Local\Temp\ccMlfTJJ.s:2314   .text.tlsv1_client_handshake_write:0000000000000688 .LBE206
C:\Users\stapi\AppData\Local\Temp\ccMlfTJJ.s:10351  .debug_loc:0000000000000aaa .LLST103
C:\Users\stapi\AppData\Local\Temp\ccMlfTJJ.s:10358  .debug_loc:0000000000000abd .LLST104
C:\Users\stapi\AppData\Local\Temp\ccMlfTJJ.s:2119   .text.tlsv1_client_handshake_write:0000000000000592 .LVL210
C:\Users\stapi\AppData\Local\Temp\ccMlfTJJ.s:2151   .text.tlsv1_client_handshake_write:00000000000005ba .LVL213
C:\Users\stapi\AppData\Local\Temp\ccMlfTJJ.s:2161   .text.tlsv1_client_handshake_write:00000000000005ce .LVL214
C:\Users\stapi\AppData\Local\Temp\ccMlfTJJ.s:2175   .text.tlsv1_client_handshake_write:00000000000005e0 .LVL218
C:\Users\stapi\AppData\Local\Temp\ccMlfTJJ.s:2205   .text.tlsv1_client_handshake_write:0000000000000604 .LVL221
C:\Users\stapi\AppData\Local\Temp\ccMlfTJJ.s:2229   .text.tlsv1_client_handshake_write:000000000000062a .LVL222
C:\Users\stapi\AppData\Local\Temp\ccMlfTJJ.s:2255   .text.tlsv1_client_handshake_write:0000000000000652 .LVL223
C:\Users\stapi\AppData\Local\Temp\ccMlfTJJ.s:2324   .text.tlsv1_client_handshake_write:000000000000069e .LVL230
C:\Users\stapi\AppData\Local\Temp\ccMlfTJJ.s:2339   .text.tlsv1_client_handshake_write:00000000000006b4 .LVL232
C:\Users\stapi\AppData\Local\Temp\ccMlfTJJ.s:1166   .text.tlsv1_client_handshake_write:000000000000004e .LVL96
C:\Users\stapi\AppData\Local\Temp\ccMlfTJJ.s:2353   .text.tlsv1_client_handshake_write:00000000000006c4 .LVL234
C:\Users\stapi\AppData\Local\Temp\ccMlfTJJ.s:2361   .text.tlsv1_client_handshake_write:00000000000006d6 .LVL235
C:\Users\stapi\AppData\Local\Temp\ccMlfTJJ.s:1620   .text.tlsv1_client_handshake_write:0000000000000280 .LBB215
C:\Users\stapi\AppData\Local\Temp\ccMlfTJJ.s:10365  .debug_loc:0000000000000ad0 .LLST105
C:\Users\stapi\AppData\Local\Temp\ccMlfTJJ.s:10376  .debug_loc:0000000000000aee .LLST106
C:\Users\stapi\AppData\Local\Temp\ccMlfTJJ.s:10383  .debug_loc:0000000000000b01 .LLST107
C:\Users\stapi\AppData\Local\Temp\ccMlfTJJ.s:10390  .debug_loc:0000000000000b14 .LLST108
C:\Users\stapi\AppData\Local\Temp\ccMlfTJJ.s:1625   .text.tlsv1_client_handshake_write:000000000000028a .LVL151
C:\Users\stapi\AppData\Local\Temp\ccMlfTJJ.s:2419   .text.tlsv1_client_handshake_write:0000000000000702 .LVL238
C:\Users\stapi\AppData\Local\Temp\ccMlfTJJ.s:2438   .text.tlsv1_client_handshake_write:000000000000071a .LVL241
C:\Users\stapi\AppData\Local\Temp\ccMlfTJJ.s:2446   .text.tlsv1_client_handshake_write:000000000000072c .LVL242
C:\Users\stapi\AppData\Local\Temp\ccMlfTJJ.s:2462   .text.tlsv1_client_handshake_write:000000000000074a .LVL243
C:\Users\stapi\AppData\Local\Temp\ccMlfTJJ.s:2492   .text.tlsv1_client_handshake_write:0000000000000778 .LVL246
C:\Users\stapi\AppData\Local\Temp\ccMlfTJJ.s:2509   .text.tlsv1_client_handshake_write:0000000000000790 .LVL247
C:\Users\stapi\AppData\Local\Temp\ccMlfTJJ.s:2520   .text.tlsv1_client_handshake_write:00000000000007a6 .LVL250
C:\Users\stapi\AppData\Local\Temp\ccMlfTJJ.s:11405  .debug_str:000000000000082c .LASF284
C:\Users\stapi\AppData\Local\Temp\ccMlfTJJ.s:11633  .debug_str:0000000000000fac .LASF285
C:\Users\stapi\AppData\Local\Temp\ccMlfTJJ.s:11467  .debug_str:0000000000000a05 .LASF286
C:\Users\stapi\AppData\Local\Temp\ccMlfTJJ.s:11369  .debug_str:0000000000000717 .LASF292
C:\Users\stapi\AppData\Local\Temp\ccMlfTJJ.s:152    .text.tls_write_client_finished:0000000000000000 .LFB94
C:\Users\stapi\AppData\Local\Temp\ccMlfTJJ.s:372    .text.tls_write_client_finished:0000000000000154 .LFE94
C:\Users\stapi\AppData\Local\Temp\ccMlfTJJ.s:10402  .debug_loc:0000000000000b34 .LLST3
C:\Users\stapi\AppData\Local\Temp\ccMlfTJJ.s:11631  .debug_str:0000000000000fa5 .LASF287
C:\Users\stapi\AppData\Local\Temp\ccMlfTJJ.s:10413  .debug_loc:0000000000000b52 .LLST4
C:\Users\stapi\AppData\Local\Temp\ccMlfTJJ.s:10424  .debug_loc:0000000000000b70 .LLST5
C:\Users\stapi\AppData\Local\Temp\ccMlfTJJ.s:10435  .debug_loc:0000000000000b8e .LLST6
C:\Users\stapi\AppData\Local\Temp\ccMlfTJJ.s:11657  .debug_str:0000000000001054 .LASF288
C:\Users\stapi\AppData\Local\Temp\ccMlfTJJ.s:10450  .debug_loc:0000000000000bb0 .LLST7
C:\Users\stapi\AppData\Local\Temp\ccMlfTJJ.s:11725  .debug_str:0000000000001287 .LASF289
C:\Users\stapi\AppData\Local\Temp\ccMlfTJJ.s:11651  .debug_str:000000000000102b .LASF290
C:\Users\stapi\AppData\Local\Temp\ccMlfTJJ.s:11195  .debug_str:000000000000011d .LASF291
C:\Users\stapi\AppData\Local\Temp\ccMlfTJJ.s:186    .text.tls_write_client_finished:0000000000000022 .LVL11
C:\Users\stapi\AppData\Local\Temp\ccMlfTJJ.s:202    .text.tls_write_client_finished:000000000000003c .LVL12
C:\Users\stapi\AppData\Local\Temp\ccMlfTJJ.s:212    .text.tls_write_client_finished:0000000000000050 .LVL13
C:\Users\stapi\AppData\Local\Temp\ccMlfTJJ.s:240    .text.tls_write_client_finished:000000000000006e .LVL14
C:\Users\stapi\AppData\Local\Temp\ccMlfTJJ.s:267    .text.tls_write_client_finished:0000000000000094 .LVL15
C:\Users\stapi\AppData\Local\Temp\ccMlfTJJ.s:274    .text.tls_write_client_finished:00000000000000a2 .LVL16
C:\Users\stapi\AppData\Local\Temp\ccMlfTJJ.s:298    .text.tls_write_client_finished:00000000000000d4 .LVL17
C:\Users\stapi\AppData\Local\Temp\ccMlfTJJ.s:309    .text.tls_write_client_finished:00000000000000ea .LVL18
C:\Users\stapi\AppData\Local\Temp\ccMlfTJJ.s:319    .text.tls_write_client_finished:0000000000000102 .LVL19
C:\Users\stapi\AppData\Local\Temp\ccMlfTJJ.s:342    .text.tls_write_client_finished:000000000000011a .LVL22
C:\Users\stapi\AppData\Local\Temp\ccMlfTJJ.s:354    .text.tls_write_client_finished:0000000000000138 .LVL24
C:\Users\stapi\AppData\Local\Temp\ccMlfTJJ.s:11251  .debug_str:00000000000002bb .LASF293
C:\Users\stapi\AppData\Local\Temp\ccMlfTJJ.s:23     .text.tls_write_client_change_cipher_spec:0000000000000000 .LFB93
C:\Users\stapi\AppData\Local\Temp\ccMlfTJJ.s:133    .text.tls_write_client_change_cipher_spec:000000000000009a .LFE93
C:\Users\stapi\AppData\Local\Temp\ccMlfTJJ.s:10479  .debug_loc:0000000000000bf5 .LLST0
C:\Users\stapi\AppData\Local\Temp\ccMlfTJJ.s:10490  .debug_loc:0000000000000c13 .LLST1
C:\Users\stapi\AppData\Local\Temp\ccMlfTJJ.s:10501  .debug_loc:0000000000000c31 .LLST2
C:\Users\stapi\AppData\Local\Temp\ccMlfTJJ.s:11399  .debug_str:000000000000080d .LASF294
C:\Users\stapi\AppData\Local\Temp\ccMlfTJJ.s:56     .text.tls_write_client_change_cipher_spec:0000000000000022 .LVL3
C:\Users\stapi\AppData\Local\Temp\ccMlfTJJ.s:74     .text.tls_write_client_change_cipher_spec:0000000000000044 .LVL4
C:\Users\stapi\AppData\Local\Temp\ccMlfTJJ.s:84     .text.tls_write_client_change_cipher_spec:000000000000005a .LVL5
C:\Users\stapi\AppData\Local\Temp\ccMlfTJJ.s:90     .text.tls_write_client_change_cipher_spec:000000000000006a .LVL6
C:\Users\stapi\AppData\Local\Temp\ccMlfTJJ.s:112    .text.tls_write_client_change_cipher_spec:0000000000000080 .LVL7
C:\Users\stapi\AppData\Local\Temp\ccMlfTJJ.s:11203  .debug_str:000000000000015f .LASF295
C:\Users\stapi\AppData\Local\Temp\ccMlfTJJ.s:11271  .debug_str:000000000000036a .LASF296
C:\Users\stapi\AppData\Local\Temp\ccMlfTJJ.s:11391  .debug_str:00000000000007e4 .LASF297
C:\Users\stapi\AppData\Local\Temp\ccMlfTJJ.s:11605  .debug_str:0000000000000eda .LASF298
C:\Users\stapi\AppData\Local\Temp\ccMlfTJJ.s:11329  .debug_str:0000000000000584 .LASF299
C:\Users\stapi\AppData\Local\Temp\ccMlfTJJ.s:11443  .debug_str:000000000000095f .LASF300
C:\Users\stapi\AppData\Local\Temp\ccMlfTJJ.s:11281  .debug_str:00000000000003b5 .LASF301
C:\Users\stapi\AppData\Local\Temp\ccMlfTJJ.s:11465  .debug_str:0000000000000a00 .LASF302
C:\Users\stapi\AppData\Local\Temp\ccMlfTJJ.s:11661  .debug_str:0000000000001067 .LASF303
C:\Users\stapi\AppData\Local\Temp\ccMlfTJJ.s:11569  .debug_str:0000000000000d3c .LASF304
C:\Users\stapi\AppData\Local\Temp\ccMlfTJJ.s:11421  .debug_str:00000000000008a5 .LASF305
C:\Users\stapi\AppData\Local\Temp\ccMlfTJJ.s:11299  .debug_str:0000000000000471 .LASF306
C:\Users\stapi\AppData\Local\Temp\ccMlfTJJ.s:11213  .debug_str:00000000000001ae .LASF307
C:\Users\stapi\AppData\Local\Temp\ccMlfTJJ.s:11739  .debug_str:0000000000001305 .LASF308
C:\Users\stapi\AppData\Local\Temp\ccMlfTJJ.s:11715  .debug_str:000000000000121b .LASF309
C:\Users\stapi\AppData\Local\Temp\ccMlfTJJ.s:11509  .debug_str:0000000000000b13 .LASF310
C:\Users\stapi\AppData\Local\Temp\ccMlfTJJ.s:11561  .debug_str:0000000000000d05 .LASF311
C:\Users\stapi\AppData\Local\Temp\ccMlfTJJ.s:11713  .debug_str:0000000000001210 .LASF312
C:\Users\stapi\AppData\Local\Temp\ccMlfTJJ.s:11365  .debug_str:00000000000006f4 .LASF313
C:\Users\stapi\AppData\Local\Temp\ccMlfTJJ.s:11749  .debug_str:000000000000134d .LASF314
C:\Users\stapi\AppData\Local\Temp\ccMlfTJJ.s:401    .text.tls_send_client_hello:0000000000000000 .LFB87
C:\Users\stapi\AppData\Local\Temp\ccMlfTJJ.s:998    .text.tls_send_client_hello:00000000000002b0 .LFE87
C:\Users\stapi\AppData\Local\Temp\ccMlfTJJ.s:10512  .debug_loc:0000000000000c4f .LLST8
C:\Users\stapi\AppData\Local\Temp\ccMlfTJJ.s:10523  .debug_loc:0000000000000c6d .LLST9
C:\Users\stapi\AppData\Local\Temp\ccMlfTJJ.s:11163  .debug_str:0000000000000031 .LASF315
C:\Users\stapi\AppData\Local\Temp\ccMlfTJJ.s:10534  .debug_loc:0000000000000c8b .LLST10
C:\Users\stapi\AppData\Local\Temp\ccMlfTJJ.s:10545  .debug_loc:0000000000000ca9 .LLST11
C:\Users\stapi\AppData\Local\Temp\ccMlfTJJ.s:10566  .debug_loc:0000000000000cd1 .LLST12
C:\Users\stapi\AppData\Local\Temp\ccMlfTJJ.s:10699  .debug_loc:0000000000000e0a .LLST13
C:\Users\stapi\AppData\Local\Temp\ccMlfTJJ.s:10710  .debug_loc:0000000000000e28 .LLST14
C:\Users\stapi\AppData\Local\Temp\ccMlfTJJ.s:11629  .debug_str:0000000000000f9b .LASF316
C:\Users\stapi\AppData\Local\Temp\ccMlfTJJ.s:10736  .debug_loc:0000000000000e6a .LLST15
C:\Users\stapi\AppData\Local\Temp\ccMlfTJJ.s:10751  .debug_loc:0000000000000e8c .LLST16
C:\Users\stapi\AppData\Local\Temp\ccMlfTJJ.s:495    .text.tls_send_client_hello:000000000000006c .LBB70
C:\Users\stapi\AppData\Local\Temp\ccMlfTJJ.s:571    .text.tls_send_client_hello:00000000000000de .LBB74
C:\Users\stapi\AppData\Local\Temp\ccMlfTJJ.s:637    .text.tls_send_client_hello:0000000000000130 .LBB78
C:\Users\stapi\AppData\Local\Temp\ccMlfTJJ.s:648    .text.tls_send_client_hello:000000000000013c .LBE78
C:\Users\stapi\AppData\Local\Temp\ccMlfTJJ.s:10762  .debug_loc:0000000000000eaa .LLST17
C:\Users\stapi\AppData\Local\Temp\ccMlfTJJ.s:707    .text.tls_send_client_hello:000000000000018e .LBB80
C:\Users\stapi\AppData\Local\Temp\ccMlfTJJ.s:10769  .debug_loc:0000000000000ebd .LLST18
C:\Users\stapi\AppData\Local\Temp\ccMlfTJJ.s:10777  .debug_loc:0000000000000ed1 .LLST19
C:\Users\stapi\AppData\Local\Temp\ccMlfTJJ.s:732    .text.tls_send_client_hello:00000000000001a2 .LBB84
C:\Users\stapi\AppData\Local\Temp\ccMlfTJJ.s:742    .text.tls_send_client_hello:00000000000001aa .LBE84
C:\Users\stapi\AppData\Local\Temp\ccMlfTJJ.s:10784  .debug_loc:0000000000000ee4 .LLST20
C:\Users\stapi\AppData\Local\Temp\ccMlfTJJ.s:10792  .debug_loc:0000000000000ef8 .LLST21
C:\Users\stapi\AppData\Local\Temp\ccMlfTJJ.s:746    .text.tls_send_client_hello:00000000000001aa .LBB86
C:\Users\stapi\AppData\Local\Temp\ccMlfTJJ.s:756    .text.tls_send_client_hello:00000000000001b2 .LBE86
C:\Users\stapi\AppData\Local\Temp\ccMlfTJJ.s:10801  .debug_loc:0000000000000f0d .LLST22
C:\Users\stapi\AppData\Local\Temp\ccMlfTJJ.s:10809  .debug_loc:0000000000000f21 .LLST23
C:\Users\stapi\AppData\Local\Temp\ccMlfTJJ.s:759    .text.tls_send_client_hello:00000000000001b2 .LBB88
C:\Users\stapi\AppData\Local\Temp\ccMlfTJJ.s:769    .text.tls_send_client_hello:00000000000001ba .LBE88
C:\Users\stapi\AppData\Local\Temp\ccMlfTJJ.s:10818  .debug_loc:0000000000000f36 .LLST24
C:\Users\stapi\AppData\Local\Temp\ccMlfTJJ.s:10826  .debug_loc:0000000000000f4a .LLST25
C:\Users\stapi\AppData\Local\Temp\ccMlfTJJ.s:777    .text.tls_send_client_hello:00000000000001c8 .LBB90
C:\Users\stapi\AppData\Local\Temp\ccMlfTJJ.s:10835  .debug_loc:0000000000000f5f .LLST26
C:\Users\stapi\AppData\Local\Temp\ccMlfTJJ.s:10843  .debug_loc:0000000000000f73 .LLST27
C:\Users\stapi\AppData\Local\Temp\ccMlfTJJ.s:785    .text.tls_send_client_hello:00000000000001ce .LBB93
C:\Users\stapi\AppData\Local\Temp\ccMlfTJJ.s:10852  .debug_loc:0000000000000f88 .LLST28
C:\Users\stapi\AppData\Local\Temp\ccMlfTJJ.s:10860  .debug_loc:0000000000000f9c .LLST29
C:\Users\stapi\AppData\Local\Temp\ccMlfTJJ.s:814    .text.tls_send_client_hello:00000000000001de .LBB98
C:\Users\stapi\AppData\Local\Temp\ccMlfTJJ.s:824    .text.tls_send_client_hello:00000000000001e6 .LBE98
C:\Users\stapi\AppData\Local\Temp\ccMlfTJJ.s:10869  .debug_loc:0000000000000fb1 .LLST30
C:\Users\stapi\AppData\Local\Temp\ccMlfTJJ.s:10877  .debug_loc:0000000000000fc5 .LLST31
C:\Users\stapi\AppData\Local\Temp\ccMlfTJJ.s:831    .text.tls_send_client_hello:00000000000001ea .LBB100
C:\Users\stapi\AppData\Local\Temp\ccMlfTJJ.s:841    .text.tls_send_client_hello:00000000000001f2 .LBE100
C:\Users\stapi\AppData\Local\Temp\ccMlfTJJ.s:10886  .debug_loc:0000000000000fda .LLST32
C:\Users\stapi\AppData\Local\Temp\ccMlfTJJ.s:10894  .debug_loc:0000000000000fee .LLST33
C:\Users\stapi\AppData\Local\Temp\ccMlfTJJ.s:844    .text.tls_send_client_hello:00000000000001f2 .LBB102
C:\Users\stapi\AppData\Local\Temp\ccMlfTJJ.s:854    .text.tls_send_client_hello:00000000000001fa .LBE102
C:\Users\stapi\AppData\Local\Temp\ccMlfTJJ.s:10903  .debug_loc:0000000000001003 .LLST34
C:\Users\stapi\AppData\Local\Temp\ccMlfTJJ.s:10911  .debug_loc:0000000000001017 .LLST35
C:\Users\stapi\AppData\Local\Temp\ccMlfTJJ.s:874    .text.tls_send_client_hello:0000000000000208 .LBB104
C:\Users\stapi\AppData\Local\Temp\ccMlfTJJ.s:10920  .debug_loc:000000000000102c .LLST36
C:\Users\stapi\AppData\Local\Temp\ccMlfTJJ.s:10927  .debug_loc:000000000000103f .LLST37
C:\Users\stapi\AppData\Local\Temp\ccMlfTJJ.s:940    .text.tls_send_client_hello:000000000000027e .LBB108
C:\Users\stapi\AppData\Local\Temp\ccMlfTJJ.s:10934  .debug_loc:0000000000001052 .LLST38
C:\Users\stapi\AppData\Local\Temp\ccMlfTJJ.s:10941  .debug_loc:0000000000001065 .LLST39
C:\Users\stapi\AppData\Local\Temp\ccMlfTJJ.s:975    .text.tls_send_client_hello:000000000000029c .LBB112
C:\Users\stapi\AppData\Local\Temp\ccMlfTJJ.s:989    .text.tls_send_client_hello:00000000000002aa .LBE112
C:\Users\stapi\AppData\Local\Temp\ccMlfTJJ.s:10954  .debug_loc:0000000000001085 .LLST40
C:\Users\stapi\AppData\Local\Temp\ccMlfTJJ.s:10961  .debug_loc:0000000000001098 .LLST41
C:\Users\stapi\AppData\Local\Temp\ccMlfTJJ.s:431    .text.tls_send_client_hello:0000000000000016 .LVL26
C:\Users\stapi\AppData\Local\Temp\ccMlfTJJ.s:443    .text.tls_send_client_hello:000000000000002a .LVL28
C:\Users\stapi\AppData\Local\Temp\ccMlfTJJ.s:474    .text.tls_send_client_hello:0000000000000042 .LVL30
C:\Users\stapi\AppData\Local\Temp\ccMlfTJJ.s:480    .text.tls_send_client_hello:0000000000000056 .LVL31
C:\Users\stapi\AppData\Local\Temp\ccMlfTJJ.s:488    .text.tls_send_client_hello:0000000000000064 .LVL32
C:\Users\stapi\AppData\Local\Temp\ccMlfTJJ.s:527    .text.tls_send_client_hello:0000000000000094 .LVL34
C:\Users\stapi\AppData\Local\Temp\ccMlfTJJ.s:543    .text.tls_send_client_hello:00000000000000ba .LVL35
C:\Users\stapi\AppData\Local\Temp\ccMlfTJJ.s:558    .text.tls_send_client_hello:00000000000000d4 .LVL37
C:\Users\stapi\AppData\Local\Temp\ccMlfTJJ.s:605    .text.tls_send_client_hello:0000000000000102 .LVL43
C:\Users\stapi\AppData\Local\Temp\ccMlfTJJ.s:622    .text.tls_send_client_hello:0000000000000120 .LVL45
C:\Users\stapi\AppData\Local\Temp\ccMlfTJJ.s:687    .text.tls_send_client_hello:000000000000016e .LVL56
C:\Users\stapi\AppData\Local\Temp\ccMlfTJJ.s:705    .text.tls_send_client_hello:000000000000018e .LVL58
C:\Users\stapi\AppData\Local\Temp\ccMlfTJJ.s:775    .text.tls_send_client_hello:00000000000001c8 .LVL63
C:\Users\stapi\AppData\Local\Temp\ccMlfTJJ.s:904    .text.tls_send_client_hello:0000000000000230 .LVL75
C:\Users\stapi\AppData\Local\Temp\ccMlfTJJ.s:915    .text.tls_send_client_hello:0000000000000248 .LVL76
C:\Users\stapi\AppData\Local\Temp\ccMlfTJJ.s:923    .text.tls_send_client_hello:000000000000025e .LVL77
C:\Users\stapi\AppData\Local\Temp\ccMlfTJJ.s:929    .text.tls_send_client_hello:000000000000026e .LVL78
C:\Users\stapi\AppData\Local\Temp\ccMlfTJJ.s:933    .text.tls_send_client_hello:0000000000000278 .LVL79
C:\Users\stapi\AppData\Local\Temp\ccMlfTJJ.s:11511  .debug_str:0000000000000b1f .LASF317
C:\Users\stapi\AppData\Local\Temp\ccMlfTJJ.s:11161  .debug_str:0000000000000024 .LASF318
C:\Users\stapi\AppData\Local\Temp\ccMlfTJJ.s:11547  .debug_str:0000000000000c94 .LASF319
C:\Users\stapi\AppData\Local\Temp\ccMlfTJJ.s:11503  .debug_str:0000000000000aef .LASF320
C:\Users\stapi\AppData\Local\Temp\ccMlfTJJ.s:11681  .debug_str:00000000000010f7 .LASF321
C:\Users\stapi\AppData\Local\Temp\ccMlfTJJ.s:11413  .debug_str:0000000000000860 .LASF322
C:\Users\stapi\AppData\Local\Temp\ccMlfTJJ.s:11619  .debug_str:0000000000000f3e .LASF323
C:\Users\stapi\AppData\Local\Temp\ccMlfTJJ.s:11433  .debug_str:0000000000000903 .LASF324
C:\Users\stapi\AppData\Local\Temp\ccMlfTJJ.s:11841  .debug_str:0000000000001728 .LASF325
C:\Users\stapi\AppData\Local\Temp\ccMlfTJJ.s:11193  .debug_str:0000000000000113 .LASF326
C:\Users\stapi\AppData\Local\Temp\ccMlfTJJ.s:11517  .debug_str:0000000000000b62 .LASF327
C:\Users\stapi\AppData\Local\Temp\ccMlfTJJ.s:11425  .debug_str:00000000000008bf .LASF328
C:\Users\stapi\AppData\Local\Temp\ccMlfTJJ.s:11781  .debug_str:0000000000001459 .LASF329
C:\Users\stapi\AppData\Local\Temp\ccMlfTJJ.s:11533  .debug_str:0000000000000be6 .LASF330
C:\Users\stapi\AppData\Local\Temp\ccMlfTJJ.s:11843  .debug_str:000000000000173a .LASF331
C:\Users\stapi\AppData\Local\Temp\ccMlfTJJ.s:11659  .debug_str:000000000000105d .LASF332
C:\Users\stapi\AppData\Local\Temp\ccMlfTJJ.s:11393  .debug_str:00000000000007ee .LASF333
C:\Users\stapi\AppData\Local\Temp\ccMlfTJJ.s:11401  .debug_str:0000000000000815 .LASF334
C:\Users\stapi\AppData\Local\Temp\ccMlfTJJ.s:11339  .debug_str:00000000000005c8 .LASF335
C:\Users\stapi\AppData\Local\Temp\ccMlfTJJ.s:11767  .debug_str:00000000000013f9 .LASF336
C:\Users\stapi\AppData\Local\Temp\ccMlfTJJ.s:11279  .debug_str:00000000000003a5 .LASF337
C:\Users\stapi\AppData\Local\Temp\ccMlfTJJ.s:11733  .debug_str:00000000000012d2 .LASF338
C:\Users\stapi\AppData\Local\Temp\ccMlfTJJ.s:11577  .debug_str:0000000000000e02 .LASF339
C:\Users\stapi\AppData\Local\Temp\ccMlfTJJ.s:11763  .debug_str:00000000000013cb .LASF340
C:\Users\stapi\AppData\Local\Temp\ccMlfTJJ.s:11265  .debug_str:0000000000000339 .LASF341
C:\Users\stapi\AppData\Local\Temp\ccMlfTJJ.s:11699  .debug_str:0000000000001184 .LASF342
C:\Users\stapi\AppData\Local\Temp\ccMlfTJJ.s:11361  .debug_str:00000000000006e3 .LASF343
C:\Users\stapi\AppData\Local\Temp\ccMlfTJJ.s:11307  .debug_str:00000000000004ac .LASF344
C:\Users\stapi\AppData\Local\Temp\ccMlfTJJ.s:11791  .debug_str:00000000000014c5 .LASF345
C:\Users\stapi\AppData\Local\Temp\ccMlfTJJ.s:11811  .debug_str:000000000000154d .LASF346
C:\Users\stapi\AppData\Local\Temp\ccMlfTJJ.s:11799  .debug_str:00000000000014f3 .LASF347
C:\Users\stapi\AppData\Local\Temp\ccMlfTJJ.s:2537   .text.tlsv1_client_send_alert:0000000000000000 .LVL251
C:\Users\stapi\AppData\Local\Temp\ccMlfTJJ.s:2565   .text.tlsv1_client_send_alert:000000000000001e .LVL255
C:\Users\stapi\AppData\Local\Temp\ccMlfTJJ.s:2559   .text.tlsv1_client_send_alert:0000000000000016 .LVL254
C:\Users\stapi\AppData\Local\Temp\ccMlfTJJ.s:2557   .text.tlsv1_client_send_alert:0000000000000012 .LVL253
C:\Users\stapi\AppData\Local\Temp\ccMlfTJJ.s:2552   .text.tlsv1_client_send_alert:000000000000000e .LVL252
C:\Users\stapi\AppData\Local\Temp\ccMlfTJJ.s:2581   .text.tlsv1_client_send_alert:0000000000000036 .LVL258
C:\Users\stapi\AppData\Local\Temp\ccMlfTJJ.s:2615   .text.tlsv1_client_send_alert:0000000000000058 .LVL261
C:\Users\stapi\AppData\Local\Temp\ccMlfTJJ.s:2625   .text.tlsv1_client_send_alert:000000000000005c .LVL262
C:\Users\stapi\AppData\Local\Temp\ccMlfTJJ.s:2645   .text.tlsv1_client_send_alert:0000000000000068 .LVL265
C:\Users\stapi\AppData\Local\Temp\ccMlfTJJ.s:2593   .text.tlsv1_client_send_alert:0000000000000046 .LVL259
C:\Users\stapi\AppData\Local\Temp\ccMlfTJJ.s:2606   .text.tlsv1_client_send_alert:0000000000000050 .LVL260
C:\Users\stapi\AppData\Local\Temp\ccMlfTJJ.s:2629   .text.tlsv1_client_send_alert:0000000000000060 .LVL263
C:\Users\stapi\AppData\Local\Temp\ccMlfTJJ.s:2636   .text.tlsv1_client_send_alert:0000000000000064 .LVL264
C:\Users\stapi\AppData\Local\Temp\ccMlfTJJ.s:1078   .text.tlsv1_client_handshake_write:0000000000000000 .LVL88
C:\Users\stapi\AppData\Local\Temp\ccMlfTJJ.s:1149   .text.tlsv1_client_handshake_write:000000000000003e .LVL93
C:\Users\stapi\AppData\Local\Temp\ccMlfTJJ.s:2405   .text.tlsv1_client_handshake_write:00000000000006f2 .LVL237
C:\Users\stapi\AppData\Local\Temp\ccMlfTJJ.s:2482   .text.tlsv1_client_handshake_write:0000000000000766 .LVL244
C:\Users\stapi\AppData\Local\Temp\ccMlfTJJ.s:2488   .text.tlsv1_client_handshake_write:000000000000076a .LVL245
C:\Users\stapi\AppData\Local\Temp\ccMlfTJJ.s:2512   .text.tlsv1_client_handshake_write:0000000000000794 .LVL248
C:\Users\stapi\AppData\Local\Temp\ccMlfTJJ.s:2516   .text.tlsv1_client_handshake_write:0000000000000798 .LVL249
C:\Users\stapi\AppData\Local\Temp\ccMlfTJJ.s:1099   .text.tlsv1_client_handshake_write:000000000000000c .LVL89
C:\Users\stapi\AppData\Local\Temp\ccMlfTJJ.s:1196   .text.tlsv1_client_handshake_write:0000000000000066 .LVL100
C:\Users\stapi\AppData\Local\Temp\ccMlfTJJ.s:1214   .text.tlsv1_client_handshake_write:000000000000007c .LVL103
C:\Users\stapi\AppData\Local\Temp\ccMlfTJJ.s:1247   .text.tlsv1_client_handshake_write:00000000000000a6 .LVL108
C:\Users\stapi\AppData\Local\Temp\ccMlfTJJ.s:1115   .text.tlsv1_client_handshake_write:0000000000000024 .LVL90
C:\Users\stapi\AppData\Local\Temp\ccMlfTJJ.s:1634   .text.tlsv1_client_handshake_write:000000000000028e .LVL152
C:\Users\stapi\AppData\Local\Temp\ccMlfTJJ.s:2373   .text.tlsv1_client_handshake_write:00000000000006e4 .LVL236
C:\Users\stapi\AppData\Local\Temp\ccMlfTJJ.s:1168   .text.tlsv1_client_handshake_write:0000000000000050 .LVL97
C:\Users\stapi\AppData\Local\Temp\ccMlfTJJ.s:1180   .text.tlsv1_client_handshake_write:000000000000005e .LVL98
C:\Users\stapi\AppData\Local\Temp\ccMlfTJJ.s:1124   .text.tlsv1_client_handshake_write:0000000000000028 .LVL91
C:\Users\stapi\AppData\Local\Temp\ccMlfTJJ.s:1160   .text.tlsv1_client_handshake_write:0000000000000044 .LVL95
C:\Users\stapi\AppData\Local\Temp\ccMlfTJJ.s:1198   .text.tlsv1_client_handshake_write:000000000000006a .LVL101
C:\Users\stapi\AppData\Local\Temp\ccMlfTJJ.s:1376   .text.tlsv1_client_handshake_write:000000000000014a .LVL118
C:\Users\stapi\AppData\Local\Temp\ccMlfTJJ.s:1386   .text.tlsv1_client_handshake_write:0000000000000154 .LVL119
C:\Users\stapi\AppData\Local\Temp\ccMlfTJJ.s:1567   .text.tlsv1_client_handshake_write:000000000000023c .LVL143
C:\Users\stapi\AppData\Local\Temp\ccMlfTJJ.s:1578   .text.tlsv1_client_handshake_write:0000000000000248 .LVL145
C:\Users\stapi\AppData\Local\Temp\ccMlfTJJ.s:1594   .text.tlsv1_client_handshake_write:000000000000025c .LVL147
C:\Users\stapi\AppData\Local\Temp\ccMlfTJJ.s:1724   .text.tlsv1_client_handshake_write:0000000000000314 .LVL165
C:\Users\stapi\AppData\Local\Temp\ccMlfTJJ.s:1741   .text.tlsv1_client_handshake_write:0000000000000332 .LVL168
C:\Users\stapi\AppData\Local\Temp\ccMlfTJJ.s:1773   .text.tlsv1_client_handshake_write:000000000000035c .LVL171
C:\Users\stapi\AppData\Local\Temp\ccMlfTJJ.s:1956   .text.tlsv1_client_handshake_write:00000000000004ae .LVL193
C:\Users\stapi\AppData\Local\Temp\ccMlfTJJ.s:1999   .text.tlsv1_client_handshake_write:00000000000004ee .LVL196
C:\Users\stapi\AppData\Local\Temp\ccMlfTJJ.s:1134   .text.tlsv1_client_handshake_write:0000000000000034 .LVL92
C:\Users\stapi\AppData\Local\Temp\ccMlfTJJ.s:1154   .text.tlsv1_client_handshake_write:0000000000000040 .LVL94
C:\Users\stapi\AppData\Local\Temp\ccMlfTJJ.s:1186   .text.tlsv1_client_handshake_write:0000000000000064 .LVL99
C:\Users\stapi\AppData\Local\Temp\ccMlfTJJ.s:1484   .text.tlsv1_client_handshake_write:00000000000001e0 .LVL132
C:\Users\stapi\AppData\Local\Temp\ccMlfTJJ.s:1266   .text.tlsv1_client_handshake_write:00000000000000bc .LVL110
C:\Users\stapi\AppData\Local\Temp\ccMlfTJJ.s:1274   .text.tlsv1_client_handshake_write:00000000000000c4 .LVL111
C:\Users\stapi\AppData\Local\Temp\ccMlfTJJ.s:1280   .text.tlsv1_client_handshake_write:00000000000000cc .LVL112
C:\Users\stapi\AppData\Local\Temp\ccMlfTJJ.s:1283   .text.tlsv1_client_handshake_write:00000000000000d0 .LVL113
C:\Users\stapi\AppData\Local\Temp\ccMlfTJJ.s:1463   .text.tlsv1_client_handshake_write:00000000000001c6 .LVL128
C:\Users\stapi\AppData\Local\Temp\ccMlfTJJ.s:1465   .text.tlsv1_client_handshake_write:00000000000001c8 .LVL129
C:\Users\stapi\AppData\Local\Temp\ccMlfTJJ.s:1338   .text.tlsv1_client_handshake_write:000000000000011a .LVL115
C:\Users\stapi\AppData\Local\Temp\ccMlfTJJ.s:1360   .text.tlsv1_client_handshake_write:000000000000012a .LVL116
C:\Users\stapi\AppData\Local\Temp\ccMlfTJJ.s:1411   .text.tlsv1_client_handshake_write:0000000000000178 .LVL121
C:\Users\stapi\AppData\Local\Temp\ccMlfTJJ.s:1427   .text.tlsv1_client_handshake_write:000000000000018c .LVL122
C:\Users\stapi\AppData\Local\Temp\ccMlfTJJ.s:2094   .text.tlsv1_client_handshake_write:000000000000056c .LVL208
C:\Users\stapi\AppData\Local\Temp\ccMlfTJJ.s:1514   .text.tlsv1_client_handshake_write:00000000000001f6 .LVL135
C:\Users\stapi\AppData\Local\Temp\ccMlfTJJ.s:1537   .text.tlsv1_client_handshake_write:000000000000021e .LVL138
C:\Users\stapi\AppData\Local\Temp\ccMlfTJJ.s:1783   .text.tlsv1_client_handshake_write:000000000000036a .LVL172
C:\Users\stapi\AppData\Local\Temp\ccMlfTJJ.s:2063   .text.tlsv1_client_handshake_write:000000000000054e .LVL204
C:\Users\stapi\AppData\Local\Temp\ccMlfTJJ.s:2066   .text.tlsv1_client_handshake_write:0000000000000550 .LVL205
C:\Users\stapi\AppData\Local\Temp\ccMlfTJJ.s:2078   .text.tlsv1_client_handshake_write:000000000000055a .LVL206
C:\Users\stapi\AppData\Local\Temp\ccMlfTJJ.s:1519   .text.tlsv1_client_handshake_write:0000000000000200 .LVL136
C:\Users\stapi\AppData\Local\Temp\ccMlfTJJ.s:2676   .debug_info:0000000000000000 .Ldebug_info0
C:\Users\stapi\AppData\Local\Temp\ccMlfTJJ.s:2015   .text.tlsv1_client_handshake_write:0000000000000508 .LVL198
C:\Users\stapi\AppData\Local\Temp\ccMlfTJJ.s:2020   .text.tlsv1_client_handshake_write:0000000000000510 .LVL199
C:\Users\stapi\AppData\Local\Temp\ccMlfTJJ.s:2033   .text.tlsv1_client_handshake_write:0000000000000528 .LVL201
C:\Users\stapi\AppData\Local\Temp\ccMlfTJJ.s:2051   .text.tlsv1_client_handshake_write:000000000000053c .LVL202
C:\Users\stapi\AppData\Local\Temp\ccMlfTJJ.s:1545   .text.tlsv1_client_handshake_write:0000000000000222 .LVL139
C:\Users\stapi\AppData\Local\Temp\ccMlfTJJ.s:1560   .text.tlsv1_client_handshake_write:0000000000000232 .LVL142
C:\Users\stapi\AppData\Local\Temp\ccMlfTJJ.s:1656   .text.tlsv1_client_handshake_write:00000000000002a6 .LVL154
C:\Users\stapi\AppData\Local\Temp\ccMlfTJJ.s:1661   .text.tlsv1_client_handshake_write:00000000000002aa .LVL155
C:\Users\stapi\AppData\Local\Temp\ccMlfTJJ.s:1687   .text.tlsv1_client_handshake_write:00000000000002da .LVL158
C:\Users\stapi\AppData\Local\Temp\ccMlfTJJ.s:1695   .text.tlsv1_client_handshake_write:00000000000002e6 .LVL159
C:\Users\stapi\AppData\Local\Temp\ccMlfTJJ.s:1706   .text.tlsv1_client_handshake_write:00000000000002ec .LVL162
C:\Users\stapi\AppData\Local\Temp\ccMlfTJJ.s:1715   .text.tlsv1_client_handshake_write:00000000000002fe .LVL163
C:\Users\stapi\AppData\Local\Temp\ccMlfTJJ.s:1827   .text.tlsv1_client_handshake_write:00000000000003b0 .LVL178
C:\Users\stapi\AppData\Local\Temp\ccMlfTJJ.s:1839   .text.tlsv1_client_handshake_write:00000000000003c0 .LVL179
C:\Users\stapi\AppData\Local\Temp\ccMlfTJJ.s:1553   .text.tlsv1_client_handshake_write:0000000000000226 .LVL140
C:\Users\stapi\AppData\Local\Temp\ccMlfTJJ.s:1765   .text.tlsv1_client_handshake_write:0000000000000358 .LVL170
C:\Users\stapi\AppData\Local\Temp\ccMlfTJJ.s:1921   .text.tlsv1_client_handshake_write:0000000000000474 .LVL190
C:\Users\stapi\AppData\Local\Temp\ccMlfTJJ.s:1937   .text.tlsv1_client_handshake_write:0000000000000488 .LVL191
C:\Users\stapi\AppData\Local\Temp\ccMlfTJJ.s:2107   .text.tlsv1_client_handshake_write:0000000000000580 .LVL209
C:\Users\stapi\AppData\Local\Temp\ccMlfTJJ.s:2166   .text.tlsv1_client_handshake_write:00000000000005d2 .LVL215
C:\Users\stapi\AppData\Local\Temp\ccMlfTJJ.s:2168   .text.tlsv1_client_handshake_write:00000000000005d4 .LVL216
C:\Users\stapi\AppData\Local\Temp\ccMlfTJJ.s:2344   .text.tlsv1_client_handshake_write:00000000000006b6 .LVL233
C:\Users\stapi\AppData\Local\Temp\ccMlfTJJ.s:2132   .text.tlsv1_client_handshake_write:00000000000005a4 .LVL211
C:\Users\stapi\AppData\Local\Temp\ccMlfTJJ.s:2137   .text.tlsv1_client_handshake_write:00000000000005a8 .LVL212
C:\Users\stapi\AppData\Local\Temp\ccMlfTJJ.s:2287   .text.tlsv1_client_handshake_write:000000000000066e .LVL226
C:\Users\stapi\AppData\Local\Temp\ccMlfTJJ.s:2318   .text.tlsv1_client_handshake_write:000000000000068c .LVL229
C:\Users\stapi\AppData\Local\Temp\ccMlfTJJ.s:2335   .text.tlsv1_client_handshake_write:00000000000006aa .LVL231
C:\Users\stapi\AppData\Local\Temp\ccMlfTJJ.s:2173   .text.tlsv1_client_handshake_write:00000000000005d8 .LVL217
C:\Users\stapi\AppData\Local\Temp\ccMlfTJJ.s:2179   .text.tlsv1_client_handshake_write:00000000000005e4 .LVL219
C:\Users\stapi\AppData\Local\Temp\ccMlfTJJ.s:2203   .text.tlsv1_client_handshake_write:00000000000005fc .LVL220
C:\Users\stapi\AppData\Local\Temp\ccMlfTJJ.s:2260   .text.tlsv1_client_handshake_write:0000000000000658 .LVL224
C:\Users\stapi\AppData\Local\Temp\ccMlfTJJ.s:2281   .text.tlsv1_client_handshake_write:000000000000066a .LVL225
C:\Users\stapi\AppData\Local\Temp\ccMlfTJJ.s:2296   .text.tlsv1_client_handshake_write:0000000000000674 .LVL227
C:\Users\stapi\AppData\Local\Temp\ccMlfTJJ.s:2312   .text.tlsv1_client_handshake_write:0000000000000688 .LVL228
C:\Users\stapi\AppData\Local\Temp\ccMlfTJJ.s:2421   .text.tlsv1_client_handshake_write:0000000000000704 .LVL239
C:\Users\stapi\AppData\Local\Temp\ccMlfTJJ.s:2431   .text.tlsv1_client_handshake_write:000000000000070c .LVL240
C:\Users\stapi\AppData\Local\Temp\ccMlfTJJ.s:155    .text.tls_write_client_finished:0000000000000000 .LVL8
C:\Users\stapi\AppData\Local\Temp\ccMlfTJJ.s:181    .text.tls_write_client_finished:0000000000000018 .LVL10
C:\Users\stapi\AppData\Local\Temp\ccMlfTJJ.s:172    .text.tls_write_client_finished:000000000000000e .LVL9
C:\Users\stapi\AppData\Local\Temp\ccMlfTJJ.s:337    .text.tls_write_client_finished:0000000000000112 .LVL21
C:\Users\stapi\AppData\Local\Temp\ccMlfTJJ.s:333    .text.tls_write_client_finished:000000000000010c .LVL20
C:\Users\stapi\AppData\Local\Temp\ccMlfTJJ.s:349    .text.tls_write_client_finished:0000000000000126 .LVL23
C:\Users\stapi\AppData\Local\Temp\ccMlfTJJ.s:27     .text.tls_write_client_change_cipher_spec:0000000000000000 .LVL0
C:\Users\stapi\AppData\Local\Temp\ccMlfTJJ.s:51     .text.tls_write_client_change_cipher_spec:0000000000000018 .LVL2
C:\Users\stapi\AppData\Local\Temp\ccMlfTJJ.s:42     .text.tls_write_client_change_cipher_spec:000000000000000e .LVL1
C:\Users\stapi\AppData\Local\Temp\ccMlfTJJ.s:404    .text.tls_send_client_hello:0000000000000000 .LVL25
C:\Users\stapi\AppData\Local\Temp\ccMlfTJJ.s:560    .text.tls_send_client_hello:00000000000000d6 .LVL38
C:\Users\stapi\AppData\Local\Temp\ccMlfTJJ.s:603    .text.tls_send_client_hello:00000000000000fa .LVL42
C:\Users\stapi\AppData\Local\Temp\ccMlfTJJ.s:565    .text.tls_send_client_hello:00000000000000d8 .LVL39
C:\Users\stapi\AppData\Local\Temp\ccMlfTJJ.s:585    .text.tls_send_client_hello:00000000000000f4 .LVL40
C:\Users\stapi\AppData\Local\Temp\ccMlfTJJ.s:590    .text.tls_send_client_hello:00000000000000f8 .LVL41
C:\Users\stapi\AppData\Local\Temp\ccMlfTJJ.s:613    .text.tls_send_client_hello:000000000000010c .LVL44
C:\Users\stapi\AppData\Local\Temp\ccMlfTJJ.s:627    .text.tls_send_client_hello:0000000000000124 .LVL46
C:\Users\stapi\AppData\Local\Temp\ccMlfTJJ.s:632    .text.tls_send_client_hello:000000000000012a .LVL47
C:\Users\stapi\AppData\Local\Temp\ccMlfTJJ.s:646    .text.tls_send_client_hello:000000000000013c .LVL49
C:\Users\stapi\AppData\Local\Temp\ccMlfTJJ.s:661    .text.tls_send_client_hello:000000000000014a .LVL51
C:\Users\stapi\AppData\Local\Temp\ccMlfTJJ.s:667    .text.tls_send_client_hello:0000000000000150 .LVL53
C:\Users\stapi\AppData\Local\Temp\ccMlfTJJ.s:677    .text.tls_send_client_hello:000000000000015c .LVL55
C:\Users\stapi\AppData\Local\Temp\ccMlfTJJ.s:692    .text.tls_send_client_hello:0000000000000174 .LVL57
C:\Users\stapi\AppData\Local\Temp\ccMlfTJJ.s:727    .text.tls_send_client_hello:00000000000001a2 .LVL59
C:\Users\stapi\AppData\Local\Temp\ccMlfTJJ.s:740    .text.tls_send_client_hello:00000000000001aa .LVL60
C:\Users\stapi\AppData\Local\Temp\ccMlfTJJ.s:754    .text.tls_send_client_hello:00000000000001b2 .LVL61
C:\Users\stapi\AppData\Local\Temp\ccMlfTJJ.s:767    .text.tls_send_client_hello:00000000000001ba .LVL62
C:\Users\stapi\AppData\Local\Temp\ccMlfTJJ.s:798    .text.tls_send_client_hello:00000000000001da .LVL64
C:\Users\stapi\AppData\Local\Temp\ccMlfTJJ.s:809    .text.tls_send_client_hello:00000000000001de .LVL65
C:\Users\stapi\AppData\Local\Temp\ccMlfTJJ.s:822    .text.tls_send_client_hello:00000000000001e6 .LVL66
C:\Users\stapi\AppData\Local\Temp\ccMlfTJJ.s:839    .text.tls_send_client_hello:00000000000001f2 .LVL68
C:\Users\stapi\AppData\Local\Temp\ccMlfTJJ.s:858    .text.tls_send_client_hello:00000000000001fc .LVL70
C:\Users\stapi\AppData\Local\Temp\ccMlfTJJ.s:886    .text.tls_send_client_hello:0000000000000214 .LVL73
C:\Users\stapi\AppData\Local\Temp\ccMlfTJJ.s:935    .text.tls_send_client_hello:000000000000027a .LVL80
C:\Users\stapi\AppData\Local\Temp\ccMlfTJJ.s:947    .text.tls_send_client_hello:0000000000000280 .LVL82
C:\Users\stapi\AppData\Local\Temp\ccMlfTJJ.s:959    .text.tls_send_client_hello:000000000000028e .LVL84
C:\Users\stapi\AppData\Local\Temp\ccMlfTJJ.s:966    .text.tls_send_client_hello:0000000000000292 .LVL85
C:\Users\stapi\AppData\Local\Temp\ccMlfTJJ.s:986    .text.tls_send_client_hello:00000000000002aa .LVL87
C:\Users\stapi\AppData\Local\Temp\ccMlfTJJ.s:654    .text.tls_send_client_hello:0000000000000142 .LVL50
C:\Users\stapi\AppData\Local\Temp\ccMlfTJJ.s:664    .text.tls_send_client_hello:000000000000014c .LVL52
C:\Users\stapi\AppData\Local\Temp\ccMlfTJJ.s:950    .text.tls_send_client_hello:0000000000000282 .LVL83
C:\Users\stapi\AppData\Local\Temp\ccMlfTJJ.s:671    .text.tls_send_client_hello:0000000000000154 .LVL54
C:\Users\stapi\AppData\Local\Temp\ccMlfTJJ.s:439    .text.tls_send_client_hello:0000000000000022 .LVL27
C:\Users\stapi\AppData\Local\Temp\ccMlfTJJ.s:468    .text.tls_send_client_hello:0000000000000038 .LVL29
C:\Users\stapi\AppData\Local\Temp\ccMlfTJJ.s:636    .text.tls_send_client_hello:0000000000000130 .LVL48
C:\Users\stapi\AppData\Local\Temp\ccMlfTJJ.s:830    .text.tls_send_client_hello:00000000000001ea .LVL67
C:\Users\stapi\AppData\Local\Temp\ccMlfTJJ.s:852    .text.tls_send_client_hello:00000000000001fa .LVL69
C:\Users\stapi\AppData\Local\Temp\ccMlfTJJ.s:873    .text.tls_send_client_hello:0000000000000208 .LVL72
C:\Users\stapi\AppData\Local\Temp\ccMlfTJJ.s:896    .text.tls_send_client_hello:0000000000000220 .LVL74
C:\Users\stapi\AppData\Local\Temp\ccMlfTJJ.s:939    .text.tls_send_client_hello:000000000000027e .LVL81
C:\Users\stapi\AppData\Local\Temp\ccMlfTJJ.s:974    .text.tls_send_client_hello:000000000000029c .LVL86
C:\Users\stapi\AppData\Local\Temp\ccMlfTJJ.s:512    .text.tls_send_client_hello:0000000000000088 .LBE70
C:\Users\stapi\AppData\Local\Temp\ccMlfTJJ.s:516    .text.tls_send_client_hello:000000000000008c .LBB73
C:\Users\stapi\AppData\Local\Temp\ccMlfTJJ.s:523    .text.tls_send_client_hello:000000000000008c .LBE73
C:\Users\stapi\AppData\Local\Temp\ccMlfTJJ.s:579    .text.tls_send_client_hello:00000000000000ea .LBE74
C:\Users\stapi\AppData\Local\Temp\ccMlfTJJ.s:594    .text.tls_send_client_hello:00000000000000f8 .LBB77
C:\Users\stapi\AppData\Local\Temp\ccMlfTJJ.s:599    .text.tls_send_client_hello:00000000000000f8 .LBE77
C:\Users\stapi\AppData\Local\Temp\ccMlfTJJ.s:713    .text.tls_send_client_hello:0000000000000190 .LBE80
C:\Users\stapi\AppData\Local\Temp\ccMlfTJJ.s:720    .text.tls_send_client_hello:000000000000019a .LBB83
C:\Users\stapi\AppData\Local\Temp\ccMlfTJJ.s:729    .text.tls_send_client_hello:00000000000001a2 .LBE83
C:\Users\stapi\AppData\Local\Temp\ccMlfTJJ.s:784    .text.tls_send_client_hello:00000000000001ce .LBE90
C:\Users\stapi\AppData\Local\Temp\ccMlfTJJ.s:793    .text.tls_send_client_hello:00000000000001d6 .LBB96
C:\Users\stapi\AppData\Local\Temp\ccMlfTJJ.s:800    .text.tls_send_client_hello:00000000000001da .LBE96
C:\Users\stapi\AppData\Local\Temp\ccMlfTJJ.s:790    .text.tls_send_client_hello:00000000000001d4 .LBE93
C:\Users\stapi\AppData\Local\Temp\ccMlfTJJ.s:803    .text.tls_send_client_hello:00000000000001da .LBB97
C:\Users\stapi\AppData\Local\Temp\ccMlfTJJ.s:811    .text.tls_send_client_hello:00000000000001de .LBE97
C:\Users\stapi\AppData\Local\Temp\ccMlfTJJ.s:883    .text.tls_send_client_hello:0000000000000210 .LBE104
C:\Users\stapi\AppData\Local\Temp\ccMlfTJJ.s:887    .text.tls_send_client_hello:0000000000000214 .LBB107
C:\Users\stapi\AppData\Local\Temp\ccMlfTJJ.s:898    .text.tls_send_client_hello:0000000000000220 .LBE107
C:\Users\stapi\AppData\Local\Temp\ccMlfTJJ.s:944    .text.tls_send_client_hello:000000000000027e .LBE108
C:\Users\stapi\AppData\Local\Temp\ccMlfTJJ.s:951    .text.tls_send_client_hello:0000000000000282 .LBB111
C:\Users\stapi\AppData\Local\Temp\ccMlfTJJ.s:961    .text.tls_send_client_hello:000000000000028e .LBE111
C:\Users\stapi\AppData\Local\Temp\ccMlfTJJ.s:1619   .text.tlsv1_client_handshake_write:0000000000000280 .LBE146
C:\Users\stapi\AppData\Local\Temp\ccMlfTJJ.s:1636   .text.tlsv1_client_handshake_write:000000000000028e .LBB219
C:\Users\stapi\AppData\Local\Temp\ccMlfTJJ.s:2376   .text.tlsv1_client_handshake_write:00000000000006e4 .LBE219
C:\Users\stapi\AppData\Local\Temp\ccMlfTJJ.s:1157   .text.tlsv1_client_handshake_write:0000000000000040 .LBE148
C:\Users\stapi\AppData\Local\Temp\ccMlfTJJ.s:1220   .text.tlsv1_client_handshake_write:000000000000007c .LBB196
C:\Users\stapi\AppData\Local\Temp\ccMlfTJJ.s:1250   .text.tlsv1_client_handshake_write:00000000000000a6 .LBE196
C:\Users\stapi\AppData\Local\Temp\ccMlfTJJ.s:1201   .text.tlsv1_client_handshake_write:000000000000006a .LBE151
C:\Users\stapi\AppData\Local\Temp\ccMlfTJJ.s:1251   .text.tlsv1_client_handshake_write:00000000000000a6 .LBB197
C:\Users\stapi\AppData\Local\Temp\ccMlfTJJ.s:1379   .text.tlsv1_client_handshake_write:000000000000014a .LBE197
C:\Users\stapi\AppData\Local\Temp\ccMlfTJJ.s:1390   .text.tlsv1_client_handshake_write:0000000000000154 .LBB209
C:\Users\stapi\AppData\Local\Temp\ccMlfTJJ.s:1487   .text.tlsv1_client_handshake_write:00000000000001e0 .LBE209
C:\Users\stapi\AppData\Local\Temp\ccMlfTJJ.s:1318   .text.tlsv1_client_handshake_write:0000000000000108 .LBE153
C:\Users\stapi\AppData\Local\Temp\ccMlfTJJ.s:1323   .text.tlsv1_client_handshake_write:000000000000010e .LBB157
C:\Users\stapi\AppData\Local\Temp\ccMlfTJJ.s:1328   .text.tlsv1_client_handshake_write:0000000000000112 .LBE157
C:\Users\stapi\AppData\Local\Temp\ccMlfTJJ.s:1339   .text.tlsv1_client_handshake_write:000000000000011a .LBB161
C:\Users\stapi\AppData\Local\Temp\ccMlfTJJ.s:1345   .text.tlsv1_client_handshake_write:000000000000011a .LBE161
C:\Users\stapi\AppData\Local\Temp\ccMlfTJJ.s:1334   .text.tlsv1_client_handshake_write:0000000000000116 .LBE158
C:\Users\stapi\AppData\Local\Temp\ccMlfTJJ.s:1347   .text.tlsv1_client_handshake_write:000000000000011a .LBB162
C:\Users\stapi\AppData\Local\Temp\ccMlfTJJ.s:1362   .text.tlsv1_client_handshake_write:000000000000012a .LBE162
C:\Users\stapi\AppData\Local\Temp\ccMlfTJJ.s:1219   .text.tlsv1_client_handshake_write:000000000000007c .LBE167
C:\Users\stapi\AppData\Local\Temp\ccMlfTJJ.s:1489   .text.tlsv1_client_handshake_write:00000000000001e0 .LBB210
C:\Users\stapi\AppData\Local\Temp\ccMlfTJJ.s:1617   .text.tlsv1_client_handshake_write:0000000000000280 .LBE210
C:\Users\stapi\AppData\Local\Temp\ccMlfTJJ.s:1638   .text.tlsv1_client_handshake_write:000000000000028e .LBB211
C:\Users\stapi\AppData\Local\Temp\ccMlfTJJ.s:2086   .text.tlsv1_client_handshake_write:0000000000000566 .LBE211
C:\Users\stapi\AppData\Local\Temp\ccMlfTJJ.s:2089   .text.tlsv1_client_handshake_write:000000000000056a .LBB212
C:\Users\stapi\AppData\Local\Temp\ccMlfTJJ.s:2096   .text.tlsv1_client_handshake_write:000000000000056c .LBE212
C:\Users\stapi\AppData\Local\Temp\ccMlfTJJ.s:1217   .text.tlsv1_client_handshake_write:000000000000007c .LBE169
C:\Users\stapi\AppData\Local\Temp\ccMlfTJJ.s:1571   .text.tlsv1_client_handshake_write:000000000000023c .LBB186
C:\Users\stapi\AppData\Local\Temp\ccMlfTJJ.s:1581   .text.tlsv1_client_handshake_write:0000000000000248 .LBE186
C:\Users\stapi\AppData\Local\Temp\ccMlfTJJ.s:1959   .text.tlsv1_client_handshake_write:00000000000004ae .LBB192
C:\Users\stapi\AppData\Local\Temp\ccMlfTJJ.s:2069   .text.tlsv1_client_handshake_write:0000000000000550 .LBE192
C:\Users\stapi\AppData\Local\Temp\ccMlfTJJ.s:2038   .text.tlsv1_client_handshake_write:0000000000000528 .LBE171
C:\Users\stapi\AppData\Local\Temp\ccMlfTJJ.s:2042   .text.tlsv1_client_handshake_write:000000000000052e .LBB174
C:\Users\stapi\AppData\Local\Temp\ccMlfTJJ.s:2053   .text.tlsv1_client_handshake_write:000000000000053c .LBE174
C:\Users\stapi\AppData\Local\Temp\ccMlfTJJ.s:1570   .text.tlsv1_client_handshake_write:000000000000023c .LBE177
C:\Users\stapi\AppData\Local\Temp\ccMlfTJJ.s:1582   .text.tlsv1_client_handshake_write:0000000000000248 .LBB187
C:\Users\stapi\AppData\Local\Temp\ccMlfTJJ.s:1615   .text.tlsv1_client_handshake_write:0000000000000280 .LBE187
C:\Users\stapi\AppData\Local\Temp\ccMlfTJJ.s:1640   .text.tlsv1_client_handshake_write:000000000000028e .LBB188
C:\Users\stapi\AppData\Local\Temp\ccMlfTJJ.s:1753   .text.tlsv1_client_handshake_write:0000000000000348 .LBE188
C:\Users\stapi\AppData\Local\Temp\ccMlfTJJ.s:1756   .text.tlsv1_client_handshake_write:000000000000034c .LBB189
C:\Users\stapi\AppData\Local\Temp\ccMlfTJJ.s:1910   .text.tlsv1_client_handshake_write:0000000000000464 .LBE189
C:\Users\stapi\AppData\Local\Temp\ccMlfTJJ.s:1770   .text.tlsv1_client_handshake_write:0000000000000358 .LBE179
C:\Users\stapi\AppData\Local\Temp\ccMlfTJJ.s:1774   .text.tlsv1_client_handshake_write:000000000000035c .LBB182
C:\Users\stapi\AppData\Local\Temp\ccMlfTJJ.s:1785   .text.tlsv1_client_handshake_write:000000000000036a .LBE182
C:\Users\stapi\AppData\Local\Temp\ccMlfTJJ.s:1389   .text.tlsv1_client_handshake_write:0000000000000154 .LBE198
C:\Users\stapi\AppData\Local\Temp\ccMlfTJJ.s:2108   .text.tlsv1_client_handshake_write:0000000000000580 .LBB213
C:\Users\stapi\AppData\Local\Temp\ccMlfTJJ.s:2347   .text.tlsv1_client_handshake_write:00000000000006b6 .LBE213
C:\Users\stapi\AppData\Local\Temp\ccMlfTJJ.s:2265   .text.tlsv1_client_handshake_write:0000000000000658 .LBE200
C:\Users\stapi\AppData\Local\Temp\ccMlfTJJ.s:2269   .text.tlsv1_client_handshake_write:000000000000065e .LBB204
C:\Users\stapi\AppData\Local\Temp\ccMlfTJJ.s:2278   .text.tlsv1_client_handshake_write:0000000000000668 .LBE204
C:\Users\stapi\AppData\Local\Temp\ccMlfTJJ.s:2282   .text.tlsv1_client_handshake_write:000000000000066a .LBB205
C:\Users\stapi\AppData\Local\Temp\ccMlfTJJ.s:2289   .text.tlsv1_client_handshake_write:000000000000066e .LBE205
C:\Users\stapi\AppData\Local\Temp\ccMlfTJJ.s:1629   .text.tlsv1_client_handshake_write:000000000000028a .LBE215
C:\Users\stapi\AppData\Local\Temp\ccMlfTJJ.s:2377   .text.tlsv1_client_handshake_write:00000000000006e4 .LBB220
C:\Users\stapi\AppData\Local\Temp\ccMlfTJJ.s:2384   .text.tlsv1_client_handshake_write:00000000000006e6 .LBE220
C:\Users\stapi\AppData\Local\Temp\ccMlfTJJ.s:2409   .text.tlsv1_client_handshake_write:00000000000006f2 .LBB221
C:\Users\stapi\AppData\Local\Temp\ccMlfTJJ.s:2485   .text.tlsv1_client_handshake_write:0000000000000766 .LBE221
C:\Users\stapi\AppData\Local\Temp\ccMlfTJJ.s:2602   .text.tlsv1_client_send_alert:000000000000004e .LBE222
C:\Users\stapi\AppData\Local\Temp\ccMlfTJJ.s:2610   .text.tlsv1_client_send_alert:0000000000000054 .LBB228
C:\Users\stapi\AppData\Local\Temp\ccMlfTJJ.s:2617   .text.tlsv1_client_send_alert:0000000000000058 .LBE228
C:\Users\stapi\AppData\Local\Temp\ccMlfTJJ.s:2609   .text.tlsv1_client_send_alert:0000000000000054 .LBE225
C:\Users\stapi\AppData\Local\Temp\ccMlfTJJ.s:2630   .text.tlsv1_client_send_alert:0000000000000060 .LBB229
C:\Users\stapi\AppData\Local\Temp\ccMlfTJJ.s:2638   .text.tlsv1_client_send_alert:0000000000000064 .LBE229

UNDEFINED SYMBOLS
__riscv_save_4
wpa_printf
tlsv1_record_send
tls_alert
__riscv_restore_4
tlsv1_record_change_write_cipher
crypto_hash_finish
tls_prf
wpa_hexdump_key
tls_verify_hash_add
__riscv_save_10
tls_client_highest_ver
__riscv_restore_10
tls_version_str
os_get_time
os_get_random
wpa_hexdump
os_malloc
os_memcpy
os_free
__riscv_save_12
x509_certificate_self_signed
x509_certificate_get_subject
tls_get_cipher_suite
os_memcmp
crypto_mod_exp
os_memset
tls_derive_keys
tlsv1_client_free_dh
tls_derive_pre_master_secret
crypto_public_key_encrypt_pkcs1_v15
crypto_private_key_sign_pkcs1
__riscv_restore_12
