   1              		.file	"tlsv1_client.c"
   2              		.option nopic
   3              		.attribute arch, "rv32i2p0_m2p0_a2p0_f2p0_c2p0_b_p0p94"
   4              		.attribute unaligned_access, 0
   5              		.attribute stack_align, 16
   6              		.text
   7              	.Ltext0:
   8              		.cfi_sections	.debug_frame
   9              		.section	.text.tls_alert,"ax",@progbits
  10              		.align	1
  11              		.globl	tls_alert
  13              	tls_alert:
  14              	.LFB86:
  15              		.file 1 "C:/Users/stapi/OneDrive/Desktop/GD32VW553/V1_MQTT_OK/GD32VW55X_Wifi_BLE_SDK/GD32VW55x_REL
   1:C:/Users/stapi/OneDrive/Desktop/GD32VW553/V1_MQTT_OK/GD32VW55X_Wifi_BLE_SDK/GD32VW55x_RELEASE_V1.0.2/MSDK/wpa_supplicant/src/tls\tlsv1_client.c **** /*
   2:C:/Users/stapi/OneDrive/Desktop/GD32VW553/V1_MQTT_OK/GD32VW55X_Wifi_BLE_SDK/GD32VW55x_RELEASE_V1.0.2/MSDK/wpa_supplicant/src/tls\tlsv1_client.c ****  * TLS v1.0/v1.1/v1.2 client (RFC 2246, RFC 4346, RFC 5246)
   3:C:/Users/stapi/OneDrive/Desktop/GD32VW553/V1_MQTT_OK/GD32VW55X_Wifi_BLE_SDK/GD32VW55x_RELEASE_V1.0.2/MSDK/wpa_supplicant/src/tls\tlsv1_client.c ****  * Copyright (c) 2006-2019, Jouni Malinen <j@w1.fi>
   4:C:/Users/stapi/OneDrive/Desktop/GD32VW553/V1_MQTT_OK/GD32VW55X_Wifi_BLE_SDK/GD32VW55x_RELEASE_V1.0.2/MSDK/wpa_supplicant/src/tls\tlsv1_client.c ****  *
   5:C:/Users/stapi/OneDrive/Desktop/GD32VW553/V1_MQTT_OK/GD32VW55X_Wifi_BLE_SDK/GD32VW55x_RELEASE_V1.0.2/MSDK/wpa_supplicant/src/tls\tlsv1_client.c ****  * This software may be distributed under the terms of the BSD license.
   6:C:/Users/stapi/OneDrive/Desktop/GD32VW553/V1_MQTT_OK/GD32VW55X_Wifi_BLE_SDK/GD32VW55x_RELEASE_V1.0.2/MSDK/wpa_supplicant/src/tls\tlsv1_client.c ****  * See README for more details.
   7:C:/Users/stapi/OneDrive/Desktop/GD32VW553/V1_MQTT_OK/GD32VW55X_Wifi_BLE_SDK/GD32VW55x_RELEASE_V1.0.2/MSDK/wpa_supplicant/src/tls\tlsv1_client.c ****  */
   8:C:/Users/stapi/OneDrive/Desktop/GD32VW553/V1_MQTT_OK/GD32VW55X_Wifi_BLE_SDK/GD32VW55x_RELEASE_V1.0.2/MSDK/wpa_supplicant/src/tls\tlsv1_client.c **** 
   9:C:/Users/stapi/OneDrive/Desktop/GD32VW553/V1_MQTT_OK/GD32VW55X_Wifi_BLE_SDK/GD32VW55x_RELEASE_V1.0.2/MSDK/wpa_supplicant/src/tls\tlsv1_client.c **** #include "includes.h"
  10:C:/Users/stapi/OneDrive/Desktop/GD32VW553/V1_MQTT_OK/GD32VW55X_Wifi_BLE_SDK/GD32VW55x_RELEASE_V1.0.2/MSDK/wpa_supplicant/src/tls\tlsv1_client.c **** 
  11:C:/Users/stapi/OneDrive/Desktop/GD32VW553/V1_MQTT_OK/GD32VW55X_Wifi_BLE_SDK/GD32VW55x_RELEASE_V1.0.2/MSDK/wpa_supplicant/src/tls\tlsv1_client.c **** #include "common.h"
  12:C:/Users/stapi/OneDrive/Desktop/GD32VW553/V1_MQTT_OK/GD32VW55X_Wifi_BLE_SDK/GD32VW55x_RELEASE_V1.0.2/MSDK/wpa_supplicant/src/tls\tlsv1_client.c **** #include "crypto/sha1.h"
  13:C:/Users/stapi/OneDrive/Desktop/GD32VW553/V1_MQTT_OK/GD32VW55X_Wifi_BLE_SDK/GD32VW55x_RELEASE_V1.0.2/MSDK/wpa_supplicant/src/tls\tlsv1_client.c **** #include "crypto/tls.h"
  14:C:/Users/stapi/OneDrive/Desktop/GD32VW553/V1_MQTT_OK/GD32VW55X_Wifi_BLE_SDK/GD32VW55x_RELEASE_V1.0.2/MSDK/wpa_supplicant/src/tls\tlsv1_client.c **** #include "x509v3.h"
  15:C:/Users/stapi/OneDrive/Desktop/GD32VW553/V1_MQTT_OK/GD32VW55X_Wifi_BLE_SDK/GD32VW55x_RELEASE_V1.0.2/MSDK/wpa_supplicant/src/tls\tlsv1_client.c **** #include "tlsv1_common.h"
  16:C:/Users/stapi/OneDrive/Desktop/GD32VW553/V1_MQTT_OK/GD32VW55X_Wifi_BLE_SDK/GD32VW55x_RELEASE_V1.0.2/MSDK/wpa_supplicant/src/tls\tlsv1_client.c **** #include "tlsv1_record.h"
  17:C:/Users/stapi/OneDrive/Desktop/GD32VW553/V1_MQTT_OK/GD32VW55X_Wifi_BLE_SDK/GD32VW55x_RELEASE_V1.0.2/MSDK/wpa_supplicant/src/tls\tlsv1_client.c **** #include "tlsv1_client.h"
  18:C:/Users/stapi/OneDrive/Desktop/GD32VW553/V1_MQTT_OK/GD32VW55X_Wifi_BLE_SDK/GD32VW55x_RELEASE_V1.0.2/MSDK/wpa_supplicant/src/tls\tlsv1_client.c **** #include "tlsv1_client_i.h"
  19:C:/Users/stapi/OneDrive/Desktop/GD32VW553/V1_MQTT_OK/GD32VW55X_Wifi_BLE_SDK/GD32VW55x_RELEASE_V1.0.2/MSDK/wpa_supplicant/src/tls\tlsv1_client.c **** 
  20:C:/Users/stapi/OneDrive/Desktop/GD32VW553/V1_MQTT_OK/GD32VW55X_Wifi_BLE_SDK/GD32VW55x_RELEASE_V1.0.2/MSDK/wpa_supplicant/src/tls\tlsv1_client.c **** /* TODO:
  21:C:/Users/stapi/OneDrive/Desktop/GD32VW553/V1_MQTT_OK/GD32VW55X_Wifi_BLE_SDK/GD32VW55x_RELEASE_V1.0.2/MSDK/wpa_supplicant/src/tls\tlsv1_client.c ****  * Support for a message fragmented across several records (RFC 2246, 6.2.1)
  22:C:/Users/stapi/OneDrive/Desktop/GD32VW553/V1_MQTT_OK/GD32VW55X_Wifi_BLE_SDK/GD32VW55x_RELEASE_V1.0.2/MSDK/wpa_supplicant/src/tls\tlsv1_client.c ****  */
  23:C:/Users/stapi/OneDrive/Desktop/GD32VW553/V1_MQTT_OK/GD32VW55X_Wifi_BLE_SDK/GD32VW55x_RELEASE_V1.0.2/MSDK/wpa_supplicant/src/tls\tlsv1_client.c **** 
  24:C:/Users/stapi/OneDrive/Desktop/GD32VW553/V1_MQTT_OK/GD32VW55X_Wifi_BLE_SDK/GD32VW55x_RELEASE_V1.0.2/MSDK/wpa_supplicant/src/tls\tlsv1_client.c **** 
  25:C:/Users/stapi/OneDrive/Desktop/GD32VW553/V1_MQTT_OK/GD32VW55X_Wifi_BLE_SDK/GD32VW55x_RELEASE_V1.0.2/MSDK/wpa_supplicant/src/tls\tlsv1_client.c **** void tls_alert(struct tlsv1_client *conn, u8 level, u8 description)
  26:C:/Users/stapi/OneDrive/Desktop/GD32VW553/V1_MQTT_OK/GD32VW55X_Wifi_BLE_SDK/GD32VW55x_RELEASE_V1.0.2/MSDK/wpa_supplicant/src/tls\tlsv1_client.c **** {
  16              		.loc 1 26 1
  17              		.cfi_startproc
  18              	.LVL0:
  27:C:/Users/stapi/OneDrive/Desktop/GD32VW553/V1_MQTT_OK/GD32VW55X_Wifi_BLE_SDK/GD32VW55x_RELEASE_V1.0.2/MSDK/wpa_supplicant/src/tls\tlsv1_client.c **** 	conn->alert_level = level;
  19              		.loc 1 27 2
  20              		.loc 1 27 20 is_stmt 0
  21 0000 2308B516 		sb	a1,368(a0)
  28:C:/Users/stapi/OneDrive/Desktop/GD32VW553/V1_MQTT_OK/GD32VW55X_Wifi_BLE_SDK/GD32VW55x_RELEASE_V1.0.2/MSDK/wpa_supplicant/src/tls\tlsv1_client.c **** 	conn->alert_description = description;
  22              		.loc 1 28 2 is_stmt 1
  23              		.loc 1 28 26 is_stmt 0
  24 0004 A308C516 		sb	a2,369(a0)
  29:C:/Users/stapi/OneDrive/Desktop/GD32VW553/V1_MQTT_OK/GD32VW55X_Wifi_BLE_SDK/GD32VW55x_RELEASE_V1.0.2/MSDK/wpa_supplicant/src/tls\tlsv1_client.c **** }
  25              		.loc 1 29 1
  26 0008 8280     		ret
  27              		.cfi_endproc
  28              	.LFE86:
  30              		.section	.text.tlsv1_client_free_dh,"ax",@progbits
  31              		.align	1
  32              		.globl	tlsv1_client_free_dh
  34              	tlsv1_client_free_dh:
  35              	.LFB87:
  30:C:/Users/stapi/OneDrive/Desktop/GD32VW553/V1_MQTT_OK/GD32VW55X_Wifi_BLE_SDK/GD32VW55x_RELEASE_V1.0.2/MSDK/wpa_supplicant/src/tls\tlsv1_client.c **** 
  31:C:/Users/stapi/OneDrive/Desktop/GD32VW553/V1_MQTT_OK/GD32VW55X_Wifi_BLE_SDK/GD32VW55x_RELEASE_V1.0.2/MSDK/wpa_supplicant/src/tls\tlsv1_client.c **** 
  32:C:/Users/stapi/OneDrive/Desktop/GD32VW553/V1_MQTT_OK/GD32VW55X_Wifi_BLE_SDK/GD32VW55x_RELEASE_V1.0.2/MSDK/wpa_supplicant/src/tls\tlsv1_client.c **** void tlsv1_client_free_dh(struct tlsv1_client *conn)
  33:C:/Users/stapi/OneDrive/Desktop/GD32VW553/V1_MQTT_OK/GD32VW55X_Wifi_BLE_SDK/GD32VW55x_RELEASE_V1.0.2/MSDK/wpa_supplicant/src/tls\tlsv1_client.c **** {
  36              		.loc 1 33 1 is_stmt 1
  37              		.cfi_startproc
  38              	.LVL1:
  39 0000 17030000 		call	t0,__riscv_save_1
  39      E7020300 
  40              		.cfi_offset 8, -8
  41              		.cfi_offset 1, -4
  42              		.cfi_def_cfa_offset 16
  34:C:/Users/stapi/OneDrive/Desktop/GD32VW553/V1_MQTT_OK/GD32VW55X_Wifi_BLE_SDK/GD32VW55x_RELEASE_V1.0.2/MSDK/wpa_supplicant/src/tls\tlsv1_client.c **** 	os_free(conn->dh_p);
  43              		.loc 1 34 2
  33:C:/Users/stapi/OneDrive/Desktop/GD32VW553/V1_MQTT_OK/GD32VW55X_Wifi_BLE_SDK/GD32VW55x_RELEASE_V1.0.2/MSDK/wpa_supplicant/src/tls\tlsv1_client.c **** 	os_free(conn->dh_p);
  44              		.loc 1 33 1 is_stmt 0
  45 0008 2A84     		mv	s0,a0
  46              		.loc 1 34 2
  47 000a 0325051F 		lw	a0,496(a0)
  48              	.LVL2:
  49 000e 97000000 		call	os_free
  49      E7800000 
  50              	.LVL3:
  35:C:/Users/stapi/OneDrive/Desktop/GD32VW553/V1_MQTT_OK/GD32VW55X_Wifi_BLE_SDK/GD32VW55x_RELEASE_V1.0.2/MSDK/wpa_supplicant/src/tls\tlsv1_client.c **** 	os_free(conn->dh_g);
  51              		.loc 1 35 2 is_stmt 1
  52 0016 0325841F 		lw	a0,504(s0)
  53 001a 97000000 		call	os_free
  53      E7800000 
  54              	.LVL4:
  36:C:/Users/stapi/OneDrive/Desktop/GD32VW553/V1_MQTT_OK/GD32VW55X_Wifi_BLE_SDK/GD32VW55x_RELEASE_V1.0.2/MSDK/wpa_supplicant/src/tls\tlsv1_client.c **** 	os_free(conn->dh_ys);
  55              		.loc 1 36 2
  56 0022 03250420 		lw	a0,512(s0)
  57 0026 97000000 		call	os_free
  57      E7800000 
  58              	.LVL5:
  37:C:/Users/stapi/OneDrive/Desktop/GD32VW553/V1_MQTT_OK/GD32VW55X_Wifi_BLE_SDK/GD32VW55x_RELEASE_V1.0.2/MSDK/wpa_supplicant/src/tls\tlsv1_client.c **** 	conn->dh_p = conn->dh_g = conn->dh_ys = NULL;
  59              		.loc 1 37 2
  60              		.loc 1 37 40 is_stmt 0
  61 002e 23200420 		sw	zero,512(s0)
  62              		.loc 1 37 26
  63 0032 232C041E 		sw	zero,504(s0)
  64              		.loc 1 37 13
  65 0036 2328041E 		sw	zero,496(s0)
  38:C:/Users/stapi/OneDrive/Desktop/GD32VW553/V1_MQTT_OK/GD32VW55X_Wifi_BLE_SDK/GD32VW55x_RELEASE_V1.0.2/MSDK/wpa_supplicant/src/tls\tlsv1_client.c **** }
  66              		.loc 1 38 1
  67 003a 17030000 		tail	__riscv_restore_1
  67      67000300 
  68              		.cfi_restore 8
  69              		.cfi_restore 1
  70              		.cfi_def_cfa_offset 0
  71              		.cfi_endproc
  72              	.LFE87:
  74              		.section	.text.tls_client_highest_ver,"ax",@progbits
  75              		.align	1
  76              		.globl	tls_client_highest_ver
  78              	tls_client_highest_ver:
  79              	.LFB88:
  39:C:/Users/stapi/OneDrive/Desktop/GD32VW553/V1_MQTT_OK/GD32VW55X_Wifi_BLE_SDK/GD32VW55x_RELEASE_V1.0.2/MSDK/wpa_supplicant/src/tls\tlsv1_client.c **** 
  40:C:/Users/stapi/OneDrive/Desktop/GD32VW553/V1_MQTT_OK/GD32VW55X_Wifi_BLE_SDK/GD32VW55x_RELEASE_V1.0.2/MSDK/wpa_supplicant/src/tls\tlsv1_client.c **** 
  41:C:/Users/stapi/OneDrive/Desktop/GD32VW553/V1_MQTT_OK/GD32VW55X_Wifi_BLE_SDK/GD32VW55x_RELEASE_V1.0.2/MSDK/wpa_supplicant/src/tls\tlsv1_client.c **** u16 tls_client_highest_ver(struct tlsv1_client *conn)
  42:C:/Users/stapi/OneDrive/Desktop/GD32VW553/V1_MQTT_OK/GD32VW55X_Wifi_BLE_SDK/GD32VW55x_RELEASE_V1.0.2/MSDK/wpa_supplicant/src/tls\tlsv1_client.c **** {
  80              		.loc 1 42 1 is_stmt 1
  81              		.cfi_startproc
  82              	.LVL6:
  43:C:/Users/stapi/OneDrive/Desktop/GD32VW553/V1_MQTT_OK/GD32VW55X_Wifi_BLE_SDK/GD32VW55x_RELEASE_V1.0.2/MSDK/wpa_supplicant/src/tls\tlsv1_client.c **** 	u16 tls_version = TLS_VERSION;
  83              		.loc 1 43 2
  44:C:/Users/stapi/OneDrive/Desktop/GD32VW553/V1_MQTT_OK/GD32VW55X_Wifi_BLE_SDK/GD32VW55x_RELEASE_V1.0.2/MSDK/wpa_supplicant/src/tls\tlsv1_client.c **** 
  45:C:/Users/stapi/OneDrive/Desktop/GD32VW553/V1_MQTT_OK/GD32VW55X_Wifi_BLE_SDK/GD32VW55x_RELEASE_V1.0.2/MSDK/wpa_supplicant/src/tls\tlsv1_client.c **** 	/* Pick the highest locally enabled TLS version */
  46:C:/Users/stapi/OneDrive/Desktop/GD32VW553/V1_MQTT_OK/GD32VW55X_Wifi_BLE_SDK/GD32VW55x_RELEASE_V1.0.2/MSDK/wpa_supplicant/src/tls\tlsv1_client.c **** #ifdef CONFIG_TLSV12
  47:C:/Users/stapi/OneDrive/Desktop/GD32VW553/V1_MQTT_OK/GD32VW55X_Wifi_BLE_SDK/GD32VW55x_RELEASE_V1.0.2/MSDK/wpa_supplicant/src/tls\tlsv1_client.c **** 	if ((conn->flags & TLS_CONN_DISABLE_TLSv1_2) &&
  48:C:/Users/stapi/OneDrive/Desktop/GD32VW553/V1_MQTT_OK/GD32VW55X_Wifi_BLE_SDK/GD32VW55x_RELEASE_V1.0.2/MSDK/wpa_supplicant/src/tls\tlsv1_client.c **** 	    tls_version == TLS_VERSION_1_2)
  49:C:/Users/stapi/OneDrive/Desktop/GD32VW553/V1_MQTT_OK/GD32VW55X_Wifi_BLE_SDK/GD32VW55x_RELEASE_V1.0.2/MSDK/wpa_supplicant/src/tls\tlsv1_client.c **** 		tls_version = TLS_VERSION_1_1;
  50:C:/Users/stapi/OneDrive/Desktop/GD32VW553/V1_MQTT_OK/GD32VW55X_Wifi_BLE_SDK/GD32VW55x_RELEASE_V1.0.2/MSDK/wpa_supplicant/src/tls\tlsv1_client.c **** #endif /* CONFIG_TLSV12 */
  51:C:/Users/stapi/OneDrive/Desktop/GD32VW553/V1_MQTT_OK/GD32VW55X_Wifi_BLE_SDK/GD32VW55x_RELEASE_V1.0.2/MSDK/wpa_supplicant/src/tls\tlsv1_client.c **** #ifdef CONFIG_TLSV11
  52:C:/Users/stapi/OneDrive/Desktop/GD32VW553/V1_MQTT_OK/GD32VW55X_Wifi_BLE_SDK/GD32VW55x_RELEASE_V1.0.2/MSDK/wpa_supplicant/src/tls\tlsv1_client.c **** 	if ((conn->flags & TLS_CONN_DISABLE_TLSv1_1) &&
  53:C:/Users/stapi/OneDrive/Desktop/GD32VW553/V1_MQTT_OK/GD32VW55X_Wifi_BLE_SDK/GD32VW55x_RELEASE_V1.0.2/MSDK/wpa_supplicant/src/tls\tlsv1_client.c **** 	    tls_version == TLS_VERSION_1_1)
  54:C:/Users/stapi/OneDrive/Desktop/GD32VW553/V1_MQTT_OK/GD32VW55X_Wifi_BLE_SDK/GD32VW55x_RELEASE_V1.0.2/MSDK/wpa_supplicant/src/tls\tlsv1_client.c **** 		tls_version = TLS_VERSION_1;
  55:C:/Users/stapi/OneDrive/Desktop/GD32VW553/V1_MQTT_OK/GD32VW55X_Wifi_BLE_SDK/GD32VW55x_RELEASE_V1.0.2/MSDK/wpa_supplicant/src/tls\tlsv1_client.c **** #endif /* CONFIG_TLSV11 */
  56:C:/Users/stapi/OneDrive/Desktop/GD32VW553/V1_MQTT_OK/GD32VW55X_Wifi_BLE_SDK/GD32VW55x_RELEASE_V1.0.2/MSDK/wpa_supplicant/src/tls\tlsv1_client.c **** 	if ((conn->flags & TLS_CONN_DISABLE_TLSv1_0) &&
  84              		.loc 1 56 2
  85              		.loc 1 56 19 is_stmt 0
  86 0000 83274517 		lw	a5,372(a0)
  87 0004 93F70710 		andi	a5,a5,256
  88              		.loc 1 56 5
  89 0008 99C3     		beq	a5,zero,.L6
  57:C:/Users/stapi/OneDrive/Desktop/GD32VW553/V1_MQTT_OK/GD32VW55X_Wifi_BLE_SDK/GD32VW55x_RELEASE_V1.0.2/MSDK/wpa_supplicant/src/tls\tlsv1_client.c **** 	    tls_version == TLS_VERSION_1)
  58:C:/Users/stapi/OneDrive/Desktop/GD32VW553/V1_MQTT_OK/GD32VW55X_Wifi_BLE_SDK/GD32VW55x_RELEASE_V1.0.2/MSDK/wpa_supplicant/src/tls\tlsv1_client.c **** 		return 0;
  90              		.loc 1 58 10
  91 000a 0145     		li	a0,0
  92              	.LVL7:
  93 000c 8280     		ret
  94              	.LVL8:
  95              	.L6:
  59:C:/Users/stapi/OneDrive/Desktop/GD32VW553/V1_MQTT_OK/GD32VW55X_Wifi_BLE_SDK/GD32VW55x_RELEASE_V1.0.2/MSDK/wpa_supplicant/src/tls\tlsv1_client.c **** 
  60:C:/Users/stapi/OneDrive/Desktop/GD32VW553/V1_MQTT_OK/GD32VW55X_Wifi_BLE_SDK/GD32VW55x_RELEASE_V1.0.2/MSDK/wpa_supplicant/src/tls\tlsv1_client.c **** 	return tls_version;
  96              		.loc 1 60 9
  97 000e 13051030 		li	a0,769
  98              	.LVL9:
  61:C:/Users/stapi/OneDrive/Desktop/GD32VW553/V1_MQTT_OK/GD32VW55X_Wifi_BLE_SDK/GD32VW55x_RELEASE_V1.0.2/MSDK/wpa_supplicant/src/tls\tlsv1_client.c **** }
  99              		.loc 1 61 1
 100 0012 8280     		ret
 101              		.cfi_endproc
 102              	.LFE88:
 104              		.section	.text.tls_derive_pre_master_secret,"ax",@progbits
 105              		.align	1
 106              		.globl	tls_derive_pre_master_secret
 108              	tls_derive_pre_master_secret:
 109              	.LFB89:
  62:C:/Users/stapi/OneDrive/Desktop/GD32VW553/V1_MQTT_OK/GD32VW55X_Wifi_BLE_SDK/GD32VW55x_RELEASE_V1.0.2/MSDK/wpa_supplicant/src/tls\tlsv1_client.c **** 
  63:C:/Users/stapi/OneDrive/Desktop/GD32VW553/V1_MQTT_OK/GD32VW55X_Wifi_BLE_SDK/GD32VW55x_RELEASE_V1.0.2/MSDK/wpa_supplicant/src/tls\tlsv1_client.c **** 
  64:C:/Users/stapi/OneDrive/Desktop/GD32VW553/V1_MQTT_OK/GD32VW55X_Wifi_BLE_SDK/GD32VW55x_RELEASE_V1.0.2/MSDK/wpa_supplicant/src/tls\tlsv1_client.c **** int tls_derive_pre_master_secret(struct tlsv1_client *conn,
  65:C:/Users/stapi/OneDrive/Desktop/GD32VW553/V1_MQTT_OK/GD32VW55X_Wifi_BLE_SDK/GD32VW55x_RELEASE_V1.0.2/MSDK/wpa_supplicant/src/tls\tlsv1_client.c **** 				 u8 *pre_master_secret)
  66:C:/Users/stapi/OneDrive/Desktop/GD32VW553/V1_MQTT_OK/GD32VW55X_Wifi_BLE_SDK/GD32VW55x_RELEASE_V1.0.2/MSDK/wpa_supplicant/src/tls\tlsv1_client.c **** {
 110              		.loc 1 66 1 is_stmt 1
 111              		.cfi_startproc
 112              	.LVL10:
 113 0000 17030000 		call	t0,__riscv_save_1
 113      E7020300 
 114              		.cfi_offset 8, -8
 115              		.cfi_offset 1, -4
 116              		.cfi_def_cfa_offset 16
  67:C:/Users/stapi/OneDrive/Desktop/GD32VW553/V1_MQTT_OK/GD32VW55X_Wifi_BLE_SDK/GD32VW55x_RELEASE_V1.0.2/MSDK/wpa_supplicant/src/tls\tlsv1_client.c **** 	WPA_PUT_BE16(pre_master_secret, tls_client_highest_ver(conn));
 117              		.loc 1 67 2
  66:C:/Users/stapi/OneDrive/Desktop/GD32VW553/V1_MQTT_OK/GD32VW55X_Wifi_BLE_SDK/GD32VW55x_RELEASE_V1.0.2/MSDK/wpa_supplicant/src/tls\tlsv1_client.c **** 	WPA_PUT_BE16(pre_master_secret, tls_client_highest_ver(conn));
 118              		.loc 1 66 1 is_stmt 0
 119 0008 2E84     		mv	s0,a1
 120              		.loc 1 67 2
 121 000a 97000000 		call	tls_client_highest_ver
 121      E7800000 
 122              	.LVL11:
 123              	.LBB32:
 124              	.LBB33:
 125              		.file 2 "..\\..\\..\\..\\wpa_supplicant\\src\\utils/common.h"
   1:..\..\..\..\wpa_supplicant\src\utils/common.h **** /*
   2:..\..\..\..\wpa_supplicant\src\utils/common.h ****  * wpa_supplicant/hostapd / common helper functions, etc.
   3:..\..\..\..\wpa_supplicant\src\utils/common.h ****  * Copyright (c) 2002-2007, Jouni Malinen <j@w1.fi>
   4:..\..\..\..\wpa_supplicant\src\utils/common.h ****  *
   5:..\..\..\..\wpa_supplicant\src\utils/common.h ****  * This software may be distributed under the terms of the BSD license.
   6:..\..\..\..\wpa_supplicant\src\utils/common.h ****  * See README for more details.
   7:..\..\..\..\wpa_supplicant\src\utils/common.h ****  */
   8:..\..\..\..\wpa_supplicant\src\utils/common.h **** 
   9:..\..\..\..\wpa_supplicant\src\utils/common.h **** #ifndef COMMON_H
  10:..\..\..\..\wpa_supplicant\src\utils/common.h **** #define COMMON_H
  11:..\..\..\..\wpa_supplicant\src\utils/common.h **** 
  12:..\..\..\..\wpa_supplicant\src\utils/common.h **** #include "os.h"
  13:..\..\..\..\wpa_supplicant\src\utils/common.h **** 
  14:..\..\..\..\wpa_supplicant\src\utils/common.h **** #if defined(__linux__) || defined(__GLIBC__)
  15:..\..\..\..\wpa_supplicant\src\utils/common.h **** #include <endian.h>
  16:..\..\..\..\wpa_supplicant\src\utils/common.h **** #include <byteswap.h>
  17:..\..\..\..\wpa_supplicant\src\utils/common.h **** #endif /* __linux__ */
  18:..\..\..\..\wpa_supplicant\src\utils/common.h **** 
  19:..\..\..\..\wpa_supplicant\src\utils/common.h **** #if defined(__FreeBSD__) || defined(__NetBSD__) || defined(__DragonFly__) || \
  20:..\..\..\..\wpa_supplicant\src\utils/common.h ****     defined(__OpenBSD__)
  21:..\..\..\..\wpa_supplicant\src\utils/common.h **** #include <sys/types.h>
  22:..\..\..\..\wpa_supplicant\src\utils/common.h **** #include <sys/endian.h>
  23:..\..\..\..\wpa_supplicant\src\utils/common.h **** #define __BYTE_ORDER	_BYTE_ORDER
  24:..\..\..\..\wpa_supplicant\src\utils/common.h **** #define	__LITTLE_ENDIAN	_LITTLE_ENDIAN
  25:..\..\..\..\wpa_supplicant\src\utils/common.h **** #define	__BIG_ENDIAN	_BIG_ENDIAN
  26:..\..\..\..\wpa_supplicant\src\utils/common.h **** #ifdef __OpenBSD__
  27:..\..\..\..\wpa_supplicant\src\utils/common.h **** #define bswap_16 swap16
  28:..\..\..\..\wpa_supplicant\src\utils/common.h **** #define bswap_32 swap32
  29:..\..\..\..\wpa_supplicant\src\utils/common.h **** #define bswap_64 swap64
  30:..\..\..\..\wpa_supplicant\src\utils/common.h **** #else /* __OpenBSD__ */
  31:..\..\..\..\wpa_supplicant\src\utils/common.h **** #define bswap_16 bswap16
  32:..\..\..\..\wpa_supplicant\src\utils/common.h **** #define bswap_32 bswap32
  33:..\..\..\..\wpa_supplicant\src\utils/common.h **** #define bswap_64 bswap64
  34:..\..\..\..\wpa_supplicant\src\utils/common.h **** #endif /* __OpenBSD__ */
  35:..\..\..\..\wpa_supplicant\src\utils/common.h **** #endif /* defined(__FreeBSD__) || defined(__NetBSD__) ||
  36:..\..\..\..\wpa_supplicant\src\utils/common.h **** 	* defined(__DragonFly__) || defined(__OpenBSD__) */
  37:..\..\..\..\wpa_supplicant\src\utils/common.h **** 
  38:..\..\..\..\wpa_supplicant\src\utils/common.h **** #ifdef __APPLE__
  39:..\..\..\..\wpa_supplicant\src\utils/common.h **** #include <sys/types.h>
  40:..\..\..\..\wpa_supplicant\src\utils/common.h **** #include <machine/endian.h>
  41:..\..\..\..\wpa_supplicant\src\utils/common.h **** #define __BYTE_ORDER	_BYTE_ORDER
  42:..\..\..\..\wpa_supplicant\src\utils/common.h **** #define __LITTLE_ENDIAN	_LITTLE_ENDIAN
  43:..\..\..\..\wpa_supplicant\src\utils/common.h **** #define __BIG_ENDIAN	_BIG_ENDIAN
  44:..\..\..\..\wpa_supplicant\src\utils/common.h **** static inline unsigned short bswap_16(unsigned short v)
  45:..\..\..\..\wpa_supplicant\src\utils/common.h **** {
  46:..\..\..\..\wpa_supplicant\src\utils/common.h **** 	return ((v & 0xff) << 8) | (v >> 8);
  47:..\..\..\..\wpa_supplicant\src\utils/common.h **** }
  48:..\..\..\..\wpa_supplicant\src\utils/common.h **** 
  49:..\..\..\..\wpa_supplicant\src\utils/common.h **** static inline unsigned int bswap_32(unsigned int v)
  50:..\..\..\..\wpa_supplicant\src\utils/common.h **** {
  51:..\..\..\..\wpa_supplicant\src\utils/common.h **** 	return ((v & 0xff) << 24) | ((v & 0xff00) << 8) |
  52:..\..\..\..\wpa_supplicant\src\utils/common.h **** 		((v & 0xff0000) >> 8) | (v >> 24);
  53:..\..\..\..\wpa_supplicant\src\utils/common.h **** }
  54:..\..\..\..\wpa_supplicant\src\utils/common.h **** #endif /* __APPLE__ */
  55:..\..\..\..\wpa_supplicant\src\utils/common.h **** 
  56:..\..\..\..\wpa_supplicant\src\utils/common.h **** #ifdef CONFIG_GDWIFI
  57:..\..\..\..\wpa_supplicant\src\utils/common.h **** // #include <sys/types.h>
  58:..\..\..\..\wpa_supplicant\src\utils/common.h **** // #include <machine/endian.h>
  59:..\..\..\..\wpa_supplicant\src\utils/common.h **** #define __BYTE_ORDER	BYTE_ORDER
  60:..\..\..\..\wpa_supplicant\src\utils/common.h **** #define __LITTLE_ENDIAN	LITTLE_ENDIAN
  61:..\..\..\..\wpa_supplicant\src\utils/common.h **** #define __BIG_ENDIAN	BIG_ENDIAN
  62:..\..\..\..\wpa_supplicant\src\utils/common.h **** #define ETHER_ADDR_LEN	6
  63:..\..\..\..\wpa_supplicant\src\utils/common.h **** #define ETH_P_802_3	0x0001		/* Dummy type for 802.3 frames  */
  64:..\..\..\..\wpa_supplicant\src\utils/common.h **** 
  65:..\..\..\..\wpa_supplicant\src\utils/common.h **** static inline unsigned short bswap_16(unsigned short v)
  66:..\..\..\..\wpa_supplicant\src\utils/common.h **** {
  67:..\..\..\..\wpa_supplicant\src\utils/common.h **** 	return ((v & 0xff) << 8) | (v >> 8);
  68:..\..\..\..\wpa_supplicant\src\utils/common.h **** }
  69:..\..\..\..\wpa_supplicant\src\utils/common.h **** 
  70:..\..\..\..\wpa_supplicant\src\utils/common.h **** static inline unsigned int bswap_32(unsigned int v)
  71:..\..\..\..\wpa_supplicant\src\utils/common.h **** {
  72:..\..\..\..\wpa_supplicant\src\utils/common.h **** 	return ((v & 0xff) << 24) | ((v & 0xff00) << 8) |
  73:..\..\..\..\wpa_supplicant\src\utils/common.h **** 		((v & 0xff0000) >> 8) | (v >> 24);
  74:..\..\..\..\wpa_supplicant\src\utils/common.h **** }
  75:..\..\..\..\wpa_supplicant\src\utils/common.h **** 
  76:..\..\..\..\wpa_supplicant\src\utils/common.h **** struct ether_header
  77:..\..\..\..\wpa_supplicant\src\utils/common.h **** {
  78:..\..\..\..\wpa_supplicant\src\utils/common.h **** 	uint8_t  ether_dhost[ETHER_ADDR_LEN];
  79:..\..\..\..\wpa_supplicant\src\utils/common.h **** 	uint8_t  ether_shost[ETHER_ADDR_LEN];
  80:..\..\..\..\wpa_supplicant\src\utils/common.h **** 	uint16_t ether_type;
  81:..\..\..\..\wpa_supplicant\src\utils/common.h **** } __PACKED;
  82:..\..\..\..\wpa_supplicant\src\utils/common.h **** #endif /* CONFIG_GDWIFI */
  83:..\..\..\..\wpa_supplicant\src\utils/common.h **** #ifdef __rtems__
  84:..\..\..\..\wpa_supplicant\src\utils/common.h **** #include <rtems/endian.h>
  85:..\..\..\..\wpa_supplicant\src\utils/common.h **** #define __BYTE_ORDER BYTE_ORDER
  86:..\..\..\..\wpa_supplicant\src\utils/common.h **** #define __LITTLE_ENDIAN LITTLE_ENDIAN
  87:..\..\..\..\wpa_supplicant\src\utils/common.h **** #define __BIG_ENDIAN BIG_ENDIAN
  88:..\..\..\..\wpa_supplicant\src\utils/common.h **** #define bswap_16 CPU_swap_u16
  89:..\..\..\..\wpa_supplicant\src\utils/common.h **** #define bswap_32 CPU_swap_u32
  90:..\..\..\..\wpa_supplicant\src\utils/common.h **** #endif /* __rtems__ */
  91:..\..\..\..\wpa_supplicant\src\utils/common.h **** 
  92:..\..\..\..\wpa_supplicant\src\utils/common.h **** #ifdef CONFIG_NATIVE_WINDOWS
  93:..\..\..\..\wpa_supplicant\src\utils/common.h **** #include <winsock.h>
  94:..\..\..\..\wpa_supplicant\src\utils/common.h **** 
  95:..\..\..\..\wpa_supplicant\src\utils/common.h **** typedef int socklen_t;
  96:..\..\..\..\wpa_supplicant\src\utils/common.h **** 
  97:..\..\..\..\wpa_supplicant\src\utils/common.h **** #ifndef MSG_DONTWAIT
  98:..\..\..\..\wpa_supplicant\src\utils/common.h **** #define MSG_DONTWAIT 0 /* not supported */
  99:..\..\..\..\wpa_supplicant\src\utils/common.h **** #endif
 100:..\..\..\..\wpa_supplicant\src\utils/common.h **** 
 101:..\..\..\..\wpa_supplicant\src\utils/common.h **** #endif /* CONFIG_NATIVE_WINDOWS */
 102:..\..\..\..\wpa_supplicant\src\utils/common.h **** 
 103:..\..\..\..\wpa_supplicant\src\utils/common.h **** #ifdef _MSC_VER
 104:..\..\..\..\wpa_supplicant\src\utils/common.h **** #define inline __inline
 105:..\..\..\..\wpa_supplicant\src\utils/common.h **** 
 106:..\..\..\..\wpa_supplicant\src\utils/common.h **** #undef vsnprintf
 107:..\..\..\..\wpa_supplicant\src\utils/common.h **** #define vsnprintf _vsnprintf
 108:..\..\..\..\wpa_supplicant\src\utils/common.h **** #undef close
 109:..\..\..\..\wpa_supplicant\src\utils/common.h **** #define close closesocket
 110:..\..\..\..\wpa_supplicant\src\utils/common.h **** #endif /* _MSC_VER */
 111:..\..\..\..\wpa_supplicant\src\utils/common.h **** 
 112:..\..\..\..\wpa_supplicant\src\utils/common.h **** 
 113:..\..\..\..\wpa_supplicant\src\utils/common.h **** /* Define platform specific integer types */
 114:..\..\..\..\wpa_supplicant\src\utils/common.h **** 
 115:..\..\..\..\wpa_supplicant\src\utils/common.h **** #ifdef _MSC_VER
 116:..\..\..\..\wpa_supplicant\src\utils/common.h **** typedef UINT64 u64;
 117:..\..\..\..\wpa_supplicant\src\utils/common.h **** typedef UINT32 u32;
 118:..\..\..\..\wpa_supplicant\src\utils/common.h **** typedef UINT16 u16;
 119:..\..\..\..\wpa_supplicant\src\utils/common.h **** typedef UINT8 u8;
 120:..\..\..\..\wpa_supplicant\src\utils/common.h **** typedef INT64 s64;
 121:..\..\..\..\wpa_supplicant\src\utils/common.h **** typedef INT32 s32;
 122:..\..\..\..\wpa_supplicant\src\utils/common.h **** typedef INT16 s16;
 123:..\..\..\..\wpa_supplicant\src\utils/common.h **** typedef INT8 s8;
 124:..\..\..\..\wpa_supplicant\src\utils/common.h **** #define WPA_TYPES_DEFINED
 125:..\..\..\..\wpa_supplicant\src\utils/common.h **** #endif /* _MSC_VER */
 126:..\..\..\..\wpa_supplicant\src\utils/common.h **** 
 127:..\..\..\..\wpa_supplicant\src\utils/common.h **** #ifdef __vxworks
 128:..\..\..\..\wpa_supplicant\src\utils/common.h **** typedef unsigned long long u64;
 129:..\..\..\..\wpa_supplicant\src\utils/common.h **** typedef UINT32 u32;
 130:..\..\..\..\wpa_supplicant\src\utils/common.h **** typedef UINT16 u16;
 131:..\..\..\..\wpa_supplicant\src\utils/common.h **** typedef UINT8 u8;
 132:..\..\..\..\wpa_supplicant\src\utils/common.h **** typedef long long s64;
 133:..\..\..\..\wpa_supplicant\src\utils/common.h **** typedef INT32 s32;
 134:..\..\..\..\wpa_supplicant\src\utils/common.h **** typedef INT16 s16;
 135:..\..\..\..\wpa_supplicant\src\utils/common.h **** typedef INT8 s8;
 136:..\..\..\..\wpa_supplicant\src\utils/common.h **** #define WPA_TYPES_DEFINED
 137:..\..\..\..\wpa_supplicant\src\utils/common.h **** #endif /* __vxworks */
 138:..\..\..\..\wpa_supplicant\src\utils/common.h **** 
 139:..\..\..\..\wpa_supplicant\src\utils/common.h **** #ifndef WPA_TYPES_DEFINED
 140:..\..\..\..\wpa_supplicant\src\utils/common.h **** #ifdef CONFIG_USE_INTTYPES_H
 141:..\..\..\..\wpa_supplicant\src\utils/common.h **** #include <inttypes.h>
 142:..\..\..\..\wpa_supplicant\src\utils/common.h **** #else
 143:..\..\..\..\wpa_supplicant\src\utils/common.h **** #include <stdint.h>
 144:..\..\..\..\wpa_supplicant\src\utils/common.h **** #endif
 145:..\..\..\..\wpa_supplicant\src\utils/common.h **** typedef uint64_t u64;
 146:..\..\..\..\wpa_supplicant\src\utils/common.h **** typedef uint32_t u32;
 147:..\..\..\..\wpa_supplicant\src\utils/common.h **** typedef uint16_t u16;
 148:..\..\..\..\wpa_supplicant\src\utils/common.h **** typedef uint8_t u8;
 149:..\..\..\..\wpa_supplicant\src\utils/common.h **** typedef int64_t s64;
 150:..\..\..\..\wpa_supplicant\src\utils/common.h **** typedef int32_t s32;
 151:..\..\..\..\wpa_supplicant\src\utils/common.h **** typedef int16_t s16;
 152:..\..\..\..\wpa_supplicant\src\utils/common.h **** typedef int8_t s8;
 153:..\..\..\..\wpa_supplicant\src\utils/common.h **** #define WPA_TYPES_DEFINED
 154:..\..\..\..\wpa_supplicant\src\utils/common.h **** #endif /* !WPA_TYPES_DEFINED */
 155:..\..\..\..\wpa_supplicant\src\utils/common.h **** 
 156:..\..\..\..\wpa_supplicant\src\utils/common.h **** 
 157:..\..\..\..\wpa_supplicant\src\utils/common.h **** /* Define platform specific byte swapping macros */
 158:..\..\..\..\wpa_supplicant\src\utils/common.h **** 
 159:..\..\..\..\wpa_supplicant\src\utils/common.h **** #if defined(__CYGWIN__) || defined(CONFIG_NATIVE_WINDOWS)
 160:..\..\..\..\wpa_supplicant\src\utils/common.h **** 
 161:..\..\..\..\wpa_supplicant\src\utils/common.h **** static inline unsigned short wpa_swap_16(unsigned short v)
 162:..\..\..\..\wpa_supplicant\src\utils/common.h **** {
 163:..\..\..\..\wpa_supplicant\src\utils/common.h **** 	return ((v & 0xff) << 8) | (v >> 8);
 164:..\..\..\..\wpa_supplicant\src\utils/common.h **** }
 165:..\..\..\..\wpa_supplicant\src\utils/common.h **** 
 166:..\..\..\..\wpa_supplicant\src\utils/common.h **** static inline unsigned int wpa_swap_32(unsigned int v)
 167:..\..\..\..\wpa_supplicant\src\utils/common.h **** {
 168:..\..\..\..\wpa_supplicant\src\utils/common.h **** 	return ((v & 0xff) << 24) | ((v & 0xff00) << 8) |
 169:..\..\..\..\wpa_supplicant\src\utils/common.h **** 		((v & 0xff0000) >> 8) | (v >> 24);
 170:..\..\..\..\wpa_supplicant\src\utils/common.h **** }
 171:..\..\..\..\wpa_supplicant\src\utils/common.h **** 
 172:..\..\..\..\wpa_supplicant\src\utils/common.h **** #define le_to_host16(n) (n)
 173:..\..\..\..\wpa_supplicant\src\utils/common.h **** #define host_to_le16(n) (n)
 174:..\..\..\..\wpa_supplicant\src\utils/common.h **** #define be_to_host16(n) wpa_swap_16(n)
 175:..\..\..\..\wpa_supplicant\src\utils/common.h **** #define host_to_be16(n) wpa_swap_16(n)
 176:..\..\..\..\wpa_supplicant\src\utils/common.h **** #define le_to_host32(n) (n)
 177:..\..\..\..\wpa_supplicant\src\utils/common.h **** #define host_to_le32(n) (n)
 178:..\..\..\..\wpa_supplicant\src\utils/common.h **** #define be_to_host32(n) wpa_swap_32(n)
 179:..\..\..\..\wpa_supplicant\src\utils/common.h **** #define host_to_be32(n) wpa_swap_32(n)
 180:..\..\..\..\wpa_supplicant\src\utils/common.h **** #define host_to_le64(n) (n)
 181:..\..\..\..\wpa_supplicant\src\utils/common.h **** 
 182:..\..\..\..\wpa_supplicant\src\utils/common.h **** #define WPA_BYTE_SWAP_DEFINED
 183:..\..\..\..\wpa_supplicant\src\utils/common.h **** 
 184:..\..\..\..\wpa_supplicant\src\utils/common.h **** #endif /* __CYGWIN__ || CONFIG_NATIVE_WINDOWS */
 185:..\..\..\..\wpa_supplicant\src\utils/common.h **** 
 186:..\..\..\..\wpa_supplicant\src\utils/common.h **** 
 187:..\..\..\..\wpa_supplicant\src\utils/common.h **** #ifndef WPA_BYTE_SWAP_DEFINED
 188:..\..\..\..\wpa_supplicant\src\utils/common.h **** 
 189:..\..\..\..\wpa_supplicant\src\utils/common.h **** #ifndef __BYTE_ORDER
 190:..\..\..\..\wpa_supplicant\src\utils/common.h **** #ifndef __LITTLE_ENDIAN
 191:..\..\..\..\wpa_supplicant\src\utils/common.h **** #ifndef __BIG_ENDIAN
 192:..\..\..\..\wpa_supplicant\src\utils/common.h **** #define __LITTLE_ENDIAN 1234
 193:..\..\..\..\wpa_supplicant\src\utils/common.h **** #define __BIG_ENDIAN 4321
 194:..\..\..\..\wpa_supplicant\src\utils/common.h **** #if defined(sparc)
 195:..\..\..\..\wpa_supplicant\src\utils/common.h **** #define __BYTE_ORDER __BIG_ENDIAN
 196:..\..\..\..\wpa_supplicant\src\utils/common.h **** #endif
 197:..\..\..\..\wpa_supplicant\src\utils/common.h **** #endif /* __BIG_ENDIAN */
 198:..\..\..\..\wpa_supplicant\src\utils/common.h **** #endif /* __LITTLE_ENDIAN */
 199:..\..\..\..\wpa_supplicant\src\utils/common.h **** #endif /* __BYTE_ORDER */
 200:..\..\..\..\wpa_supplicant\src\utils/common.h **** 
 201:..\..\..\..\wpa_supplicant\src\utils/common.h **** #if __BYTE_ORDER == __LITTLE_ENDIAN
 202:..\..\..\..\wpa_supplicant\src\utils/common.h **** #define le_to_host16(n) ((__force u16) (le16) (n))
 203:..\..\..\..\wpa_supplicant\src\utils/common.h **** #define host_to_le16(n) ((__force le16) (u16) (n))
 204:..\..\..\..\wpa_supplicant\src\utils/common.h **** #define be_to_host16(n) bswap_16((__force u16) (be16) (n))
 205:..\..\..\..\wpa_supplicant\src\utils/common.h **** #define host_to_be16(n) ((__force be16) bswap_16((n)))
 206:..\..\..\..\wpa_supplicant\src\utils/common.h **** #define le_to_host32(n) ((__force u32) (le32) (n))
 207:..\..\..\..\wpa_supplicant\src\utils/common.h **** #define host_to_le32(n) ((__force le32) (u32) (n))
 208:..\..\..\..\wpa_supplicant\src\utils/common.h **** #define be_to_host32(n) bswap_32((__force u32) (be32) (n))
 209:..\..\..\..\wpa_supplicant\src\utils/common.h **** #define host_to_be32(n) ((__force be32) bswap_32((n)))
 210:..\..\..\..\wpa_supplicant\src\utils/common.h **** #define le_to_host64(n) ((__force u64) (le64) (n))
 211:..\..\..\..\wpa_supplicant\src\utils/common.h **** #define host_to_le64(n) ((__force le64) (u64) (n))
 212:..\..\..\..\wpa_supplicant\src\utils/common.h **** #define be_to_host64(n) bswap_64((__force u64) (be64) (n))
 213:..\..\..\..\wpa_supplicant\src\utils/common.h **** #define host_to_be64(n) ((__force be64) bswap_64((n)))
 214:..\..\..\..\wpa_supplicant\src\utils/common.h **** #elif __BYTE_ORDER == __BIG_ENDIAN
 215:..\..\..\..\wpa_supplicant\src\utils/common.h **** #define le_to_host16(n) bswap_16(n)
 216:..\..\..\..\wpa_supplicant\src\utils/common.h **** #define host_to_le16(n) bswap_16(n)
 217:..\..\..\..\wpa_supplicant\src\utils/common.h **** #define be_to_host16(n) (n)
 218:..\..\..\..\wpa_supplicant\src\utils/common.h **** #define host_to_be16(n) (n)
 219:..\..\..\..\wpa_supplicant\src\utils/common.h **** #define le_to_host32(n) bswap_32(n)
 220:..\..\..\..\wpa_supplicant\src\utils/common.h **** #define host_to_le32(n) bswap_32(n)
 221:..\..\..\..\wpa_supplicant\src\utils/common.h **** #define be_to_host32(n) (n)
 222:..\..\..\..\wpa_supplicant\src\utils/common.h **** #define host_to_be32(n) (n)
 223:..\..\..\..\wpa_supplicant\src\utils/common.h **** #define le_to_host64(n) bswap_64(n)
 224:..\..\..\..\wpa_supplicant\src\utils/common.h **** #define host_to_le64(n) bswap_64(n)
 225:..\..\..\..\wpa_supplicant\src\utils/common.h **** #define be_to_host64(n) (n)
 226:..\..\..\..\wpa_supplicant\src\utils/common.h **** #define host_to_be64(n) (n)
 227:..\..\..\..\wpa_supplicant\src\utils/common.h **** #ifndef WORDS_BIGENDIAN
 228:..\..\..\..\wpa_supplicant\src\utils/common.h **** #define WORDS_BIGENDIAN
 229:..\..\..\..\wpa_supplicant\src\utils/common.h **** #endif
 230:..\..\..\..\wpa_supplicant\src\utils/common.h **** #else
 231:..\..\..\..\wpa_supplicant\src\utils/common.h **** #error Could not determine CPU byte order
 232:..\..\..\..\wpa_supplicant\src\utils/common.h **** #endif
 233:..\..\..\..\wpa_supplicant\src\utils/common.h **** 
 234:..\..\..\..\wpa_supplicant\src\utils/common.h **** #define WPA_BYTE_SWAP_DEFINED
 235:..\..\..\..\wpa_supplicant\src\utils/common.h **** #endif /* !WPA_BYTE_SWAP_DEFINED */
 236:..\..\..\..\wpa_supplicant\src\utils/common.h **** 
 237:..\..\..\..\wpa_supplicant\src\utils/common.h **** 
 238:..\..\..\..\wpa_supplicant\src\utils/common.h **** /* Macros for handling unaligned memory accesses */
 239:..\..\..\..\wpa_supplicant\src\utils/common.h **** 
 240:..\..\..\..\wpa_supplicant\src\utils/common.h **** static inline u16 WPA_GET_BE16(const u8 *a)
 241:..\..\..\..\wpa_supplicant\src\utils/common.h **** {
 242:..\..\..\..\wpa_supplicant\src\utils/common.h **** 	return (a[0] << 8) | a[1];
 243:..\..\..\..\wpa_supplicant\src\utils/common.h **** }
 244:..\..\..\..\wpa_supplicant\src\utils/common.h **** 
 245:..\..\..\..\wpa_supplicant\src\utils/common.h **** static inline void WPA_PUT_BE16(u8 *a, u16 val)
 246:..\..\..\..\wpa_supplicant\src\utils/common.h **** {
 247:..\..\..\..\wpa_supplicant\src\utils/common.h **** 	a[0] = val >> 8;
 126              		.loc 2 247 2 is_stmt 1
 127              		.loc 2 247 7 is_stmt 0
 128 0012 93578500 		srli	a5,a0,8
 248:..\..\..\..\wpa_supplicant\src\utils/common.h **** 	a[1] = val & 0xff;
 129              		.loc 2 248 7
 130 0016 A300A400 		sb	a0,1(s0)
 247:..\..\..\..\wpa_supplicant\src\utils/common.h **** 	a[1] = val & 0xff;
 131              		.loc 2 247 7
 132 001a 2300F400 		sb	a5,0(s0)
 133              		.loc 2 248 2 is_stmt 1
 134              	.LVL12:
 135              	.LBE33:
 136              	.LBE32:
  68:C:/Users/stapi/OneDrive/Desktop/GD32VW553/V1_MQTT_OK/GD32VW55X_Wifi_BLE_SDK/GD32VW55x_RELEASE_V1.0.2/MSDK/wpa_supplicant/src/tls\tlsv1_client.c **** 	if (os_get_random(pre_master_secret + 2,
 137              		.loc 1 68 2
 138              		.loc 1 68 6 is_stmt 0
 139 001e 9305E002 		li	a1,46
 140 0022 13052400 		addi	a0,s0,2
 141 0026 97000000 		call	os_get_random
 141      E7800000 
 142              	.LVL13:
 143              		.loc 1 68 5
 144 002e 3335A000 		snez	a0,a0
  69:C:/Users/stapi/OneDrive/Desktop/GD32VW553/V1_MQTT_OK/GD32VW55X_Wifi_BLE_SDK/GD32VW55x_RELEASE_V1.0.2/MSDK/wpa_supplicant/src/tls\tlsv1_client.c **** 			  TLS_PRE_MASTER_SECRET_LEN - 2))
  70:C:/Users/stapi/OneDrive/Desktop/GD32VW553/V1_MQTT_OK/GD32VW55X_Wifi_BLE_SDK/GD32VW55x_RELEASE_V1.0.2/MSDK/wpa_supplicant/src/tls\tlsv1_client.c **** 		return -1;
  71:C:/Users/stapi/OneDrive/Desktop/GD32VW553/V1_MQTT_OK/GD32VW55X_Wifi_BLE_SDK/GD32VW55x_RELEASE_V1.0.2/MSDK/wpa_supplicant/src/tls\tlsv1_client.c **** 	return 0;
  72:C:/Users/stapi/OneDrive/Desktop/GD32VW553/V1_MQTT_OK/GD32VW55X_Wifi_BLE_SDK/GD32VW55x_RELEASE_V1.0.2/MSDK/wpa_supplicant/src/tls\tlsv1_client.c **** }
 145              		.loc 1 72 1
 146 0032 3305A040 		neg	a0,a0
 147 0036 17030000 		tail	__riscv_restore_1
 147      67000300 
 148              		.cfi_restore 8
 149              		.cfi_restore 1
 150              		.cfi_def_cfa_offset 0
 151              		.cfi_endproc
 152              	.LFE89:
 154              		.section	.rodata.tls_derive_keys.str1.4,"aMS",@progbits,1
 155              		.align	2
 156              	.LC0:
 157 0000 544C5376 		.string	"TLSv1: pre_master_secret"
 157      313A2070 
 157      72655F6D 
 157      61737465 
 157      725F7365 
 158 0019 000000   		.align	2
 159              	.LC1:
 160 001c 6D617374 		.string	"master secret"
 160      65722073 
 160      65637265 
 160      7400
 161 002a 0000     		.align	2
 162              	.LC2:
 163 002c 544C5376 		.string	"TLSv1: Failed to derive master_secret"
 163      313A2046 
 163      61696C65 
 163      6420746F 
 163      20646572 
 164 0052 0000     		.align	2
 165              	.LC3:
 166 0054 544C5376 		.string	"TLSv1: master_secret"
 166      313A206D 
 166      61737465 
 166      725F7365 
 166      63726574 
 167 0069 000000   		.align	2
 168              	.LC4:
 169 006c 6B657920 		.string	"key expansion"
 169      65787061 
 169      6E73696F 
 169      6E00
 170 007a 0000     		.align	2
 171              	.LC5:
 172 007c 544C5376 		.string	"TLSv1: Failed to derive key_block"
 172      313A2046 
 172      61696C65 
 172      6420746F 
 172      20646572 
 173 009e 0000     		.align	2
 174              	.LC6:
 175 00a0 544C5376 		.string	"TLSv1: key_block"
 175      313A206B 
 175      65795F62 
 175      6C6F636B 
 175      00
 176              		.section	.text.tls_derive_keys,"ax",@progbits
 177              		.align	1
 178              		.globl	tls_derive_keys
 180              	tls_derive_keys:
 181              	.LFB90:
  73:C:/Users/stapi/OneDrive/Desktop/GD32VW553/V1_MQTT_OK/GD32VW55X_Wifi_BLE_SDK/GD32VW55x_RELEASE_V1.0.2/MSDK/wpa_supplicant/src/tls\tlsv1_client.c **** 
  74:C:/Users/stapi/OneDrive/Desktop/GD32VW553/V1_MQTT_OK/GD32VW55X_Wifi_BLE_SDK/GD32VW55x_RELEASE_V1.0.2/MSDK/wpa_supplicant/src/tls\tlsv1_client.c **** 
  75:C:/Users/stapi/OneDrive/Desktop/GD32VW553/V1_MQTT_OK/GD32VW55X_Wifi_BLE_SDK/GD32VW55x_RELEASE_V1.0.2/MSDK/wpa_supplicant/src/tls\tlsv1_client.c **** int tls_derive_keys(struct tlsv1_client *conn,
  76:C:/Users/stapi/OneDrive/Desktop/GD32VW553/V1_MQTT_OK/GD32VW55X_Wifi_BLE_SDK/GD32VW55x_RELEASE_V1.0.2/MSDK/wpa_supplicant/src/tls\tlsv1_client.c **** 		    const u8 *pre_master_secret, size_t pre_master_secret_len)
  77:C:/Users/stapi/OneDrive/Desktop/GD32VW553/V1_MQTT_OK/GD32VW55X_Wifi_BLE_SDK/GD32VW55x_RELEASE_V1.0.2/MSDK/wpa_supplicant/src/tls\tlsv1_client.c **** {
 182              		.loc 1 77 1 is_stmt 1
 183              		.cfi_startproc
 184              	.LVL14:
 185 0000 17030000 		call	t0,__riscv_save_6
 185      E7020300 
 186              		.cfi_offset 21, -28
 187              		.cfi_offset 20, -24
 188              		.cfi_offset 19, -20
 189              		.cfi_offset 18, -16
 190              		.cfi_offset 9, -12
 191              		.cfi_offset 8, -8
 192              		.cfi_offset 1, -4
 193              		.cfi_def_cfa_offset 32
  78:C:/Users/stapi/OneDrive/Desktop/GD32VW553/V1_MQTT_OK/GD32VW55X_Wifi_BLE_SDK/GD32VW55x_RELEASE_V1.0.2/MSDK/wpa_supplicant/src/tls\tlsv1_client.c **** 	u8 seed[2 * TLS_RANDOM_LEN];
 194              		.loc 1 78 2
  79:C:/Users/stapi/OneDrive/Desktop/GD32VW553/V1_MQTT_OK/GD32VW55X_Wifi_BLE_SDK/GD32VW55x_RELEASE_V1.0.2/MSDK/wpa_supplicant/src/tls\tlsv1_client.c **** 	u8 key_block[TLS_MAX_KEY_BLOCK_LEN];
 195              		.loc 1 79 2
  80:C:/Users/stapi/OneDrive/Desktop/GD32VW553/V1_MQTT_OK/GD32VW55X_Wifi_BLE_SDK/GD32VW55x_RELEASE_V1.0.2/MSDK/wpa_supplicant/src/tls\tlsv1_client.c **** 	u8 *pos;
 196              		.loc 1 80 2
  81:C:/Users/stapi/OneDrive/Desktop/GD32VW553/V1_MQTT_OK/GD32VW55X_Wifi_BLE_SDK/GD32VW55x_RELEASE_V1.0.2/MSDK/wpa_supplicant/src/tls\tlsv1_client.c **** 	size_t key_block_len;
 197              		.loc 1 81 2
  82:C:/Users/stapi/OneDrive/Desktop/GD32VW553/V1_MQTT_OK/GD32VW55X_Wifi_BLE_SDK/GD32VW55x_RELEASE_V1.0.2/MSDK/wpa_supplicant/src/tls\tlsv1_client.c **** 
  83:C:/Users/stapi/OneDrive/Desktop/GD32VW553/V1_MQTT_OK/GD32VW55X_Wifi_BLE_SDK/GD32VW55x_RELEASE_V1.0.2/MSDK/wpa_supplicant/src/tls\tlsv1_client.c **** 	if (pre_master_secret) {
 198              		.loc 1 83 2
  77:C:/Users/stapi/OneDrive/Desktop/GD32VW553/V1_MQTT_OK/GD32VW55X_Wifi_BLE_SDK/GD32VW55x_RELEASE_V1.0.2/MSDK/wpa_supplicant/src/tls\tlsv1_client.c **** 	u8 seed[2 * TLS_RANDOM_LEN];
 199              		.loc 1 77 1 is_stmt 0
 200 0008 1571     		addi	sp,sp,-224
 201              		.cfi_def_cfa_offset 256
  77:C:/Users/stapi/OneDrive/Desktop/GD32VW553/V1_MQTT_OK/GD32VW55X_Wifi_BLE_SDK/GD32VW55x_RELEASE_V1.0.2/MSDK/wpa_supplicant/src/tls\tlsv1_client.c **** 	u8 seed[2 * TLS_RANDOM_LEN];
 202              		.loc 1 77 1
 203 000a 2A84     		mv	s0,a0
  84:C:/Users/stapi/OneDrive/Desktop/GD32VW553/V1_MQTT_OK/GD32VW55X_Wifi_BLE_SDK/GD32VW55x_RELEASE_V1.0.2/MSDK/wpa_supplicant/src/tls\tlsv1_client.c **** 		wpa_hexdump_key(MSG_MSGDUMP, "TLSv1: pre_master_secret",
  85:C:/Users/stapi/OneDrive/Desktop/GD32VW553/V1_MQTT_OK/GD32VW55X_Wifi_BLE_SDK/GD32VW55x_RELEASE_V1.0.2/MSDK/wpa_supplicant/src/tls\tlsv1_client.c **** 				pre_master_secret, pre_master_secret_len);
  86:C:/Users/stapi/OneDrive/Desktop/GD32VW553/V1_MQTT_OK/GD32VW55X_Wifi_BLE_SDK/GD32VW55x_RELEASE_V1.0.2/MSDK/wpa_supplicant/src/tls\tlsv1_client.c **** 		os_memcpy(seed, conn->client_random, TLS_RANDOM_LEN);
 204              		.loc 1 86 23
 205 000c 130A0510 		addi	s4,a0,256
  87:C:/Users/stapi/OneDrive/Desktop/GD32VW553/V1_MQTT_OK/GD32VW55X_Wifi_BLE_SDK/GD32VW55x_RELEASE_V1.0.2/MSDK/wpa_supplicant/src/tls\tlsv1_client.c **** 		os_memcpy(seed + TLS_RANDOM_LEN, conn->server_random,
 206              		.loc 1 87 40
 207 0010 930A0512 		addi	s5,a0,288
  88:C:/Users/stapi/OneDrive/Desktop/GD32VW553/V1_MQTT_OK/GD32VW55X_Wifi_BLE_SDK/GD32VW55x_RELEASE_V1.0.2/MSDK/wpa_supplicant/src/tls\tlsv1_client.c **** 			  TLS_RANDOM_LEN);
  89:C:/Users/stapi/OneDrive/Desktop/GD32VW553/V1_MQTT_OK/GD32VW55X_Wifi_BLE_SDK/GD32VW55x_RELEASE_V1.0.2/MSDK/wpa_supplicant/src/tls\tlsv1_client.c **** 		if (tls_prf(conn->rl.tls_version,
  90:C:/Users/stapi/OneDrive/Desktop/GD32VW553/V1_MQTT_OK/GD32VW55X_Wifi_BLE_SDK/GD32VW55x_RELEASE_V1.0.2/MSDK/wpa_supplicant/src/tls\tlsv1_client.c **** 			    pre_master_secret, pre_master_secret_len,
  91:C:/Users/stapi/OneDrive/Desktop/GD32VW553/V1_MQTT_OK/GD32VW55X_Wifi_BLE_SDK/GD32VW55x_RELEASE_V1.0.2/MSDK/wpa_supplicant/src/tls\tlsv1_client.c **** 			    "master secret", seed, 2 * TLS_RANDOM_LEN,
  92:C:/Users/stapi/OneDrive/Desktop/GD32VW553/V1_MQTT_OK/GD32VW55X_Wifi_BLE_SDK/GD32VW55x_RELEASE_V1.0.2/MSDK/wpa_supplicant/src/tls\tlsv1_client.c **** 			    conn->master_secret, TLS_MASTER_SECRET_LEN)) {
 208              		.loc 1 92 12
 209 0014 93090514 		addi	s3,a0,320
  83:C:/Users/stapi/OneDrive/Desktop/GD32VW553/V1_MQTT_OK/GD32VW55X_Wifi_BLE_SDK/GD32VW55x_RELEASE_V1.0.2/MSDK/wpa_supplicant/src/tls\tlsv1_client.c **** 		wpa_hexdump_key(MSG_MSGDUMP, "TLSv1: pre_master_secret",
 210              		.loc 1 83 5
 211 0018 C9CD     		beq	a1,zero,.L10
  84:C:/Users/stapi/OneDrive/Desktop/GD32VW553/V1_MQTT_OK/GD32VW55X_Wifi_BLE_SDK/GD32VW55x_RELEASE_V1.0.2/MSDK/wpa_supplicant/src/tls\tlsv1_client.c **** 				pre_master_secret, pre_master_secret_len);
 212              		.loc 1 84 3
 213 001a B286     		mv	a3,a2
 214 001c AE84     		mv	s1,a1
 215 001e 3289     		mv	s2,a2
  84:C:/Users/stapi/OneDrive/Desktop/GD32VW553/V1_MQTT_OK/GD32VW55X_Wifi_BLE_SDK/GD32VW55x_RELEASE_V1.0.2/MSDK/wpa_supplicant/src/tls\tlsv1_client.c **** 				pre_master_secret, pre_master_secret_len);
 216              		.loc 1 84 3 is_stmt 1
 217 0020 2E86     		mv	a2,a1
 218              	.LVL15:
 219 0022 B7050000 		lui	a1,%hi(.LC0)
 220              	.LVL16:
 221 0026 93850500 		addi	a1,a1,%lo(.LC0)
 222 002a 0545     		li	a0,1
 223              	.LVL17:
 224 002c 97000000 		call	wpa_hexdump_key
 224      E7800000 
 225              	.LVL18:
  86:C:/Users/stapi/OneDrive/Desktop/GD32VW553/V1_MQTT_OK/GD32VW55X_Wifi_BLE_SDK/GD32VW55x_RELEASE_V1.0.2/MSDK/wpa_supplicant/src/tls\tlsv1_client.c **** 		os_memcpy(seed + TLS_RANDOM_LEN, conn->server_random,
 226              		.loc 1 86 3
 227 0034 13060002 		li	a2,32
 228 0038 D285     		mv	a1,s4
 229 003a 0A85     		mv	a0,sp
 230 003c 97000000 		call	os_memcpy
 230      E7800000 
 231              	.LVL19:
  87:C:/Users/stapi/OneDrive/Desktop/GD32VW553/V1_MQTT_OK/GD32VW55X_Wifi_BLE_SDK/GD32VW55x_RELEASE_V1.0.2/MSDK/wpa_supplicant/src/tls\tlsv1_client.c **** 			  TLS_RANDOM_LEN);
 232              		.loc 1 87 3
 233 0044 13060002 		li	a2,32
 234 0048 D685     		mv	a1,s5
 235 004a 0810     		addi	a0,sp,32
 236 004c 97000000 		call	os_memcpy
 236      E7800000 
 237              	.LVL20:
  89:C:/Users/stapi/OneDrive/Desktop/GD32VW553/V1_MQTT_OK/GD32VW55X_Wifi_BLE_SDK/GD32VW55x_RELEASE_V1.0.2/MSDK/wpa_supplicant/src/tls\tlsv1_client.c **** 			    pre_master_secret, pre_master_secret_len,
 238              		.loc 1 89 3
  89:C:/Users/stapi/OneDrive/Desktop/GD32VW553/V1_MQTT_OK/GD32VW55X_Wifi_BLE_SDK/GD32VW55x_RELEASE_V1.0.2/MSDK/wpa_supplicant/src/tls\tlsv1_client.c **** 			    pre_master_secret, pre_master_secret_len,
 239              		.loc 1 89 7 is_stmt 0
 240 0054 03554400 		lhu	a0,4(s0)
 241 0058 B7060000 		lui	a3,%hi(.LC1)
 242 005c 93080003 		li	a7,48
 243 0060 4E88     		mv	a6,s3
 244 0062 93070004 		li	a5,64
 245 0066 0A87     		mv	a4,sp
 246 0068 93860600 		addi	a3,a3,%lo(.LC1)
 247 006c 4A86     		mv	a2,s2
 248 006e A685     		mv	a1,s1
 249 0070 97000000 		call	tls_prf
 249      E7800000 
 250              	.LVL21:
  89:C:/Users/stapi/OneDrive/Desktop/GD32VW553/V1_MQTT_OK/GD32VW55X_Wifi_BLE_SDK/GD32VW55x_RELEASE_V1.0.2/MSDK/wpa_supplicant/src/tls\tlsv1_client.c **** 			    pre_master_secret, pre_master_secret_len,
 251              		.loc 1 89 6
 252 0078 0DC1     		beq	a0,zero,.L11
  93:C:/Users/stapi/OneDrive/Desktop/GD32VW553/V1_MQTT_OK/GD32VW55X_Wifi_BLE_SDK/GD32VW55x_RELEASE_V1.0.2/MSDK/wpa_supplicant/src/tls\tlsv1_client.c **** 			wpa_printf(MSG_DEBUG, "TLSv1: Failed to derive "
 253              		.loc 1 93 4 is_stmt 1
 254 007a B7050000 		lui	a1,%hi(.LC2)
 255 007e 93850500 		addi	a1,a1,%lo(.LC2)
 256              	.LVL22:
 257              	.L20:
  94:C:/Users/stapi/OneDrive/Desktop/GD32VW553/V1_MQTT_OK/GD32VW55X_Wifi_BLE_SDK/GD32VW55x_RELEASE_V1.0.2/MSDK/wpa_supplicant/src/tls\tlsv1_client.c **** 				   "master_secret");
  95:C:/Users/stapi/OneDrive/Desktop/GD32VW553/V1_MQTT_OK/GD32VW55X_Wifi_BLE_SDK/GD32VW55x_RELEASE_V1.0.2/MSDK/wpa_supplicant/src/tls\tlsv1_client.c **** 			return -1;
  96:C:/Users/stapi/OneDrive/Desktop/GD32VW553/V1_MQTT_OK/GD32VW55X_Wifi_BLE_SDK/GD32VW55x_RELEASE_V1.0.2/MSDK/wpa_supplicant/src/tls\tlsv1_client.c **** 		}
  97:C:/Users/stapi/OneDrive/Desktop/GD32VW553/V1_MQTT_OK/GD32VW55X_Wifi_BLE_SDK/GD32VW55x_RELEASE_V1.0.2/MSDK/wpa_supplicant/src/tls\tlsv1_client.c **** 		wpa_hexdump_key(MSG_MSGDUMP, "TLSv1: master_secret",
  98:C:/Users/stapi/OneDrive/Desktop/GD32VW553/V1_MQTT_OK/GD32VW55X_Wifi_BLE_SDK/GD32VW55x_RELEASE_V1.0.2/MSDK/wpa_supplicant/src/tls\tlsv1_client.c **** 				conn->master_secret, TLS_MASTER_SECRET_LEN);
  99:C:/Users/stapi/OneDrive/Desktop/GD32VW553/V1_MQTT_OK/GD32VW55X_Wifi_BLE_SDK/GD32VW55x_RELEASE_V1.0.2/MSDK/wpa_supplicant/src/tls\tlsv1_client.c **** 	}
 100:C:/Users/stapi/OneDrive/Desktop/GD32VW553/V1_MQTT_OK/GD32VW55X_Wifi_BLE_SDK/GD32VW55x_RELEASE_V1.0.2/MSDK/wpa_supplicant/src/tls\tlsv1_client.c **** 
 101:C:/Users/stapi/OneDrive/Desktop/GD32VW553/V1_MQTT_OK/GD32VW55X_Wifi_BLE_SDK/GD32VW55x_RELEASE_V1.0.2/MSDK/wpa_supplicant/src/tls\tlsv1_client.c **** 	os_memcpy(seed, conn->server_random, TLS_RANDOM_LEN);
 102:C:/Users/stapi/OneDrive/Desktop/GD32VW553/V1_MQTT_OK/GD32VW55X_Wifi_BLE_SDK/GD32VW55x_RELEASE_V1.0.2/MSDK/wpa_supplicant/src/tls\tlsv1_client.c **** 	os_memcpy(seed + TLS_RANDOM_LEN, conn->client_random, TLS_RANDOM_LEN);
 103:C:/Users/stapi/OneDrive/Desktop/GD32VW553/V1_MQTT_OK/GD32VW55X_Wifi_BLE_SDK/GD32VW55x_RELEASE_V1.0.2/MSDK/wpa_supplicant/src/tls\tlsv1_client.c **** 	key_block_len = 2 * (conn->rl.hash_size + conn->rl.key_material_len);
 104:C:/Users/stapi/OneDrive/Desktop/GD32VW553/V1_MQTT_OK/GD32VW55X_Wifi_BLE_SDK/GD32VW55x_RELEASE_V1.0.2/MSDK/wpa_supplicant/src/tls\tlsv1_client.c **** 	if (conn->rl.tls_version == TLS_VERSION_1)
 105:C:/Users/stapi/OneDrive/Desktop/GD32VW553/V1_MQTT_OK/GD32VW55X_Wifi_BLE_SDK/GD32VW55x_RELEASE_V1.0.2/MSDK/wpa_supplicant/src/tls\tlsv1_client.c **** 		key_block_len += 2 * conn->rl.iv_size;
 106:C:/Users/stapi/OneDrive/Desktop/GD32VW553/V1_MQTT_OK/GD32VW55X_Wifi_BLE_SDK/GD32VW55x_RELEASE_V1.0.2/MSDK/wpa_supplicant/src/tls\tlsv1_client.c **** 	if (tls_prf(conn->rl.tls_version,
 107:C:/Users/stapi/OneDrive/Desktop/GD32VW553/V1_MQTT_OK/GD32VW55X_Wifi_BLE_SDK/GD32VW55x_RELEASE_V1.0.2/MSDK/wpa_supplicant/src/tls\tlsv1_client.c **** 		    conn->master_secret, TLS_MASTER_SECRET_LEN,
 108:C:/Users/stapi/OneDrive/Desktop/GD32VW553/V1_MQTT_OK/GD32VW55X_Wifi_BLE_SDK/GD32VW55x_RELEASE_V1.0.2/MSDK/wpa_supplicant/src/tls\tlsv1_client.c **** 		    "key expansion", seed, 2 * TLS_RANDOM_LEN,
 109:C:/Users/stapi/OneDrive/Desktop/GD32VW553/V1_MQTT_OK/GD32VW55X_Wifi_BLE_SDK/GD32VW55x_RELEASE_V1.0.2/MSDK/wpa_supplicant/src/tls\tlsv1_client.c **** 		    key_block, key_block_len)) {
 110:C:/Users/stapi/OneDrive/Desktop/GD32VW553/V1_MQTT_OK/GD32VW55X_Wifi_BLE_SDK/GD32VW55x_RELEASE_V1.0.2/MSDK/wpa_supplicant/src/tls\tlsv1_client.c **** 		wpa_printf(MSG_DEBUG, "TLSv1: Failed to derive key_block");
 258              		.loc 1 110 3 is_stmt 0
 259 0082 0945     		li	a0,2
 260 0084 97000000 		call	wpa_printf
 260      E7800000 
 261              	.LVL23:
 111:C:/Users/stapi/OneDrive/Desktop/GD32VW553/V1_MQTT_OK/GD32VW55X_Wifi_BLE_SDK/GD32VW55x_RELEASE_V1.0.2/MSDK/wpa_supplicant/src/tls\tlsv1_client.c **** 		return -1;
 262              		.loc 1 111 3 is_stmt 1
 263              		.loc 1 111 10 is_stmt 0
 264 008c 7D59     		li	s2,-1
 265              	.L9:
 112:C:/Users/stapi/OneDrive/Desktop/GD32VW553/V1_MQTT_OK/GD32VW55X_Wifi_BLE_SDK/GD32VW55x_RELEASE_V1.0.2/MSDK/wpa_supplicant/src/tls\tlsv1_client.c **** 	}
 113:C:/Users/stapi/OneDrive/Desktop/GD32VW553/V1_MQTT_OK/GD32VW55X_Wifi_BLE_SDK/GD32VW55x_RELEASE_V1.0.2/MSDK/wpa_supplicant/src/tls\tlsv1_client.c **** 	wpa_hexdump_key(MSG_MSGDUMP, "TLSv1: key_block",
 114:C:/Users/stapi/OneDrive/Desktop/GD32VW553/V1_MQTT_OK/GD32VW55X_Wifi_BLE_SDK/GD32VW55x_RELEASE_V1.0.2/MSDK/wpa_supplicant/src/tls\tlsv1_client.c **** 			key_block, key_block_len);
 115:C:/Users/stapi/OneDrive/Desktop/GD32VW553/V1_MQTT_OK/GD32VW55X_Wifi_BLE_SDK/GD32VW55x_RELEASE_V1.0.2/MSDK/wpa_supplicant/src/tls\tlsv1_client.c **** 
 116:C:/Users/stapi/OneDrive/Desktop/GD32VW553/V1_MQTT_OK/GD32VW55X_Wifi_BLE_SDK/GD32VW55x_RELEASE_V1.0.2/MSDK/wpa_supplicant/src/tls\tlsv1_client.c **** 	pos = key_block;
 117:C:/Users/stapi/OneDrive/Desktop/GD32VW553/V1_MQTT_OK/GD32VW55X_Wifi_BLE_SDK/GD32VW55x_RELEASE_V1.0.2/MSDK/wpa_supplicant/src/tls\tlsv1_client.c **** 
 118:C:/Users/stapi/OneDrive/Desktop/GD32VW553/V1_MQTT_OK/GD32VW55X_Wifi_BLE_SDK/GD32VW55x_RELEASE_V1.0.2/MSDK/wpa_supplicant/src/tls\tlsv1_client.c **** 	/* client_write_MAC_secret */
 119:C:/Users/stapi/OneDrive/Desktop/GD32VW553/V1_MQTT_OK/GD32VW55X_Wifi_BLE_SDK/GD32VW55x_RELEASE_V1.0.2/MSDK/wpa_supplicant/src/tls\tlsv1_client.c **** 	os_memcpy(conn->rl.write_mac_secret, pos, conn->rl.hash_size);
 120:C:/Users/stapi/OneDrive/Desktop/GD32VW553/V1_MQTT_OK/GD32VW55X_Wifi_BLE_SDK/GD32VW55x_RELEASE_V1.0.2/MSDK/wpa_supplicant/src/tls\tlsv1_client.c **** 	pos += conn->rl.hash_size;
 121:C:/Users/stapi/OneDrive/Desktop/GD32VW553/V1_MQTT_OK/GD32VW55X_Wifi_BLE_SDK/GD32VW55x_RELEASE_V1.0.2/MSDK/wpa_supplicant/src/tls\tlsv1_client.c **** 	/* server_write_MAC_secret */
 122:C:/Users/stapi/OneDrive/Desktop/GD32VW553/V1_MQTT_OK/GD32VW55X_Wifi_BLE_SDK/GD32VW55x_RELEASE_V1.0.2/MSDK/wpa_supplicant/src/tls\tlsv1_client.c **** 	os_memcpy(conn->rl.read_mac_secret, pos, conn->rl.hash_size);
 123:C:/Users/stapi/OneDrive/Desktop/GD32VW553/V1_MQTT_OK/GD32VW55X_Wifi_BLE_SDK/GD32VW55x_RELEASE_V1.0.2/MSDK/wpa_supplicant/src/tls\tlsv1_client.c **** 	pos += conn->rl.hash_size;
 124:C:/Users/stapi/OneDrive/Desktop/GD32VW553/V1_MQTT_OK/GD32VW55X_Wifi_BLE_SDK/GD32VW55x_RELEASE_V1.0.2/MSDK/wpa_supplicant/src/tls\tlsv1_client.c **** 
 125:C:/Users/stapi/OneDrive/Desktop/GD32VW553/V1_MQTT_OK/GD32VW55X_Wifi_BLE_SDK/GD32VW55x_RELEASE_V1.0.2/MSDK/wpa_supplicant/src/tls\tlsv1_client.c **** 	/* client_write_key */
 126:C:/Users/stapi/OneDrive/Desktop/GD32VW553/V1_MQTT_OK/GD32VW55X_Wifi_BLE_SDK/GD32VW55x_RELEASE_V1.0.2/MSDK/wpa_supplicant/src/tls\tlsv1_client.c **** 	os_memcpy(conn->rl.write_key, pos, conn->rl.key_material_len);
 127:C:/Users/stapi/OneDrive/Desktop/GD32VW553/V1_MQTT_OK/GD32VW55X_Wifi_BLE_SDK/GD32VW55x_RELEASE_V1.0.2/MSDK/wpa_supplicant/src/tls\tlsv1_client.c **** 	pos += conn->rl.key_material_len;
 128:C:/Users/stapi/OneDrive/Desktop/GD32VW553/V1_MQTT_OK/GD32VW55X_Wifi_BLE_SDK/GD32VW55x_RELEASE_V1.0.2/MSDK/wpa_supplicant/src/tls\tlsv1_client.c **** 	/* server_write_key */
 129:C:/Users/stapi/OneDrive/Desktop/GD32VW553/V1_MQTT_OK/GD32VW55X_Wifi_BLE_SDK/GD32VW55x_RELEASE_V1.0.2/MSDK/wpa_supplicant/src/tls\tlsv1_client.c **** 	os_memcpy(conn->rl.read_key, pos, conn->rl.key_material_len);
 130:C:/Users/stapi/OneDrive/Desktop/GD32VW553/V1_MQTT_OK/GD32VW55X_Wifi_BLE_SDK/GD32VW55x_RELEASE_V1.0.2/MSDK/wpa_supplicant/src/tls\tlsv1_client.c **** 	pos += conn->rl.key_material_len;
 131:C:/Users/stapi/OneDrive/Desktop/GD32VW553/V1_MQTT_OK/GD32VW55X_Wifi_BLE_SDK/GD32VW55x_RELEASE_V1.0.2/MSDK/wpa_supplicant/src/tls\tlsv1_client.c **** 
 132:C:/Users/stapi/OneDrive/Desktop/GD32VW553/V1_MQTT_OK/GD32VW55X_Wifi_BLE_SDK/GD32VW55x_RELEASE_V1.0.2/MSDK/wpa_supplicant/src/tls\tlsv1_client.c **** 	if (conn->rl.tls_version == TLS_VERSION_1) {
 133:C:/Users/stapi/OneDrive/Desktop/GD32VW553/V1_MQTT_OK/GD32VW55X_Wifi_BLE_SDK/GD32VW55x_RELEASE_V1.0.2/MSDK/wpa_supplicant/src/tls\tlsv1_client.c **** 		/* client_write_IV */
 134:C:/Users/stapi/OneDrive/Desktop/GD32VW553/V1_MQTT_OK/GD32VW55X_Wifi_BLE_SDK/GD32VW55x_RELEASE_V1.0.2/MSDK/wpa_supplicant/src/tls\tlsv1_client.c **** 		os_memcpy(conn->rl.write_iv, pos, conn->rl.iv_size);
 135:C:/Users/stapi/OneDrive/Desktop/GD32VW553/V1_MQTT_OK/GD32VW55X_Wifi_BLE_SDK/GD32VW55x_RELEASE_V1.0.2/MSDK/wpa_supplicant/src/tls\tlsv1_client.c **** 		pos += conn->rl.iv_size;
 136:C:/Users/stapi/OneDrive/Desktop/GD32VW553/V1_MQTT_OK/GD32VW55X_Wifi_BLE_SDK/GD32VW55x_RELEASE_V1.0.2/MSDK/wpa_supplicant/src/tls\tlsv1_client.c **** 		/* server_write_IV */
 137:C:/Users/stapi/OneDrive/Desktop/GD32VW553/V1_MQTT_OK/GD32VW55X_Wifi_BLE_SDK/GD32VW55x_RELEASE_V1.0.2/MSDK/wpa_supplicant/src/tls\tlsv1_client.c **** 		os_memcpy(conn->rl.read_iv, pos, conn->rl.iv_size);
 138:C:/Users/stapi/OneDrive/Desktop/GD32VW553/V1_MQTT_OK/GD32VW55X_Wifi_BLE_SDK/GD32VW55x_RELEASE_V1.0.2/MSDK/wpa_supplicant/src/tls\tlsv1_client.c **** 	} else {
 139:C:/Users/stapi/OneDrive/Desktop/GD32VW553/V1_MQTT_OK/GD32VW55X_Wifi_BLE_SDK/GD32VW55x_RELEASE_V1.0.2/MSDK/wpa_supplicant/src/tls\tlsv1_client.c **** 		/*
 140:C:/Users/stapi/OneDrive/Desktop/GD32VW553/V1_MQTT_OK/GD32VW55X_Wifi_BLE_SDK/GD32VW55x_RELEASE_V1.0.2/MSDK/wpa_supplicant/src/tls\tlsv1_client.c **** 		 * Use IV field to set the mask value for TLS v1.1. A fixed
 141:C:/Users/stapi/OneDrive/Desktop/GD32VW553/V1_MQTT_OK/GD32VW55X_Wifi_BLE_SDK/GD32VW55x_RELEASE_V1.0.2/MSDK/wpa_supplicant/src/tls\tlsv1_client.c **** 		 * mask of zero is used per the RFC 4346, 6.2.3.2 CBC Block
 142:C:/Users/stapi/OneDrive/Desktop/GD32VW553/V1_MQTT_OK/GD32VW55X_Wifi_BLE_SDK/GD32VW55x_RELEASE_V1.0.2/MSDK/wpa_supplicant/src/tls\tlsv1_client.c **** 		 * Cipher option 2a.
 143:C:/Users/stapi/OneDrive/Desktop/GD32VW553/V1_MQTT_OK/GD32VW55X_Wifi_BLE_SDK/GD32VW55x_RELEASE_V1.0.2/MSDK/wpa_supplicant/src/tls\tlsv1_client.c **** 		 */
 144:C:/Users/stapi/OneDrive/Desktop/GD32VW553/V1_MQTT_OK/GD32VW55X_Wifi_BLE_SDK/GD32VW55x_RELEASE_V1.0.2/MSDK/wpa_supplicant/src/tls\tlsv1_client.c **** 		os_memset(conn->rl.write_iv, 0, conn->rl.iv_size);
 145:C:/Users/stapi/OneDrive/Desktop/GD32VW553/V1_MQTT_OK/GD32VW55X_Wifi_BLE_SDK/GD32VW55x_RELEASE_V1.0.2/MSDK/wpa_supplicant/src/tls\tlsv1_client.c **** 	}
 146:C:/Users/stapi/OneDrive/Desktop/GD32VW553/V1_MQTT_OK/GD32VW55X_Wifi_BLE_SDK/GD32VW55x_RELEASE_V1.0.2/MSDK/wpa_supplicant/src/tls\tlsv1_client.c **** 
 147:C:/Users/stapi/OneDrive/Desktop/GD32VW553/V1_MQTT_OK/GD32VW55X_Wifi_BLE_SDK/GD32VW55x_RELEASE_V1.0.2/MSDK/wpa_supplicant/src/tls\tlsv1_client.c **** 	return 0;
 148:C:/Users/stapi/OneDrive/Desktop/GD32VW553/V1_MQTT_OK/GD32VW55X_Wifi_BLE_SDK/GD32VW55x_RELEASE_V1.0.2/MSDK/wpa_supplicant/src/tls\tlsv1_client.c **** }
 266              		.loc 1 148 1
 267 008e 4A85     		mv	a0,s2
 268 0090 2D61     		addi	sp,sp,224
 269              		.cfi_remember_state
 270              		.cfi_def_cfa_offset 0
 271 0092 17030000 		tail	__riscv_restore_6
 271      67000300 
 272              		.cfi_restore 21
 273              		.cfi_restore 20
 274              		.cfi_restore 19
 275              		.cfi_restore 18
 276              		.cfi_restore 9
 277              		.cfi_restore 8
 278              		.cfi_restore 1
 279              		.cfi_def_cfa_offset -32
 280              	.LVL24:
 281              	.L11:
 282              		.cfi_restore_state
  97:C:/Users/stapi/OneDrive/Desktop/GD32VW553/V1_MQTT_OK/GD32VW55X_Wifi_BLE_SDK/GD32VW55x_RELEASE_V1.0.2/MSDK/wpa_supplicant/src/tls\tlsv1_client.c **** 				conn->master_secret, TLS_MASTER_SECRET_LEN);
 283              		.loc 1 97 3 is_stmt 1
 284 009a B7050000 		lui	a1,%hi(.LC3)
 285 009e 93060003 		li	a3,48
 286 00a2 4E86     		mv	a2,s3
 287 00a4 93850500 		addi	a1,a1,%lo(.LC3)
 288 00a8 0545     		li	a0,1
 289 00aa 97000000 		call	wpa_hexdump_key
 289      E7800000 
 290              	.LVL25:
 291              	.L10:
 101:C:/Users/stapi/OneDrive/Desktop/GD32VW553/V1_MQTT_OK/GD32VW55X_Wifi_BLE_SDK/GD32VW55x_RELEASE_V1.0.2/MSDK/wpa_supplicant/src/tls\tlsv1_client.c **** 	os_memcpy(seed + TLS_RANDOM_LEN, conn->client_random, TLS_RANDOM_LEN);
 292              		.loc 1 101 2
 293 00b2 13060002 		li	a2,32
 294 00b6 D685     		mv	a1,s5
 295 00b8 0A85     		mv	a0,sp
 296 00ba 97000000 		call	os_memcpy
 296      E7800000 
 297              	.LVL26:
 102:C:/Users/stapi/OneDrive/Desktop/GD32VW553/V1_MQTT_OK/GD32VW55X_Wifi_BLE_SDK/GD32VW55x_RELEASE_V1.0.2/MSDK/wpa_supplicant/src/tls\tlsv1_client.c **** 	key_block_len = 2 * (conn->rl.hash_size + conn->rl.key_material_len);
 298              		.loc 1 102 2
 299 00c2 13060002 		li	a2,32
 300 00c6 D285     		mv	a1,s4
 301 00c8 0810     		addi	a0,sp,32
 302 00ca 97000000 		call	os_memcpy
 302      E7800000 
 303              	.LVL27:
 103:C:/Users/stapi/OneDrive/Desktop/GD32VW553/V1_MQTT_OK/GD32VW55X_Wifi_BLE_SDK/GD32VW55x_RELEASE_V1.0.2/MSDK/wpa_supplicant/src/tls\tlsv1_client.c **** 	if (conn->rl.tls_version == TLS_VERSION_1)
 304              		.loc 1 103 2
 103:C:/Users/stapi/OneDrive/Desktop/GD32VW553/V1_MQTT_OK/GD32VW55X_Wifi_BLE_SDK/GD32VW55x_RELEASE_V1.0.2/MSDK/wpa_supplicant/src/tls\tlsv1_client.c **** 	if (conn->rl.tls_version == TLS_VERSION_1)
 305              		.loc 1 103 42 is_stmt 0
 306 00d2 8328C40A 		lw	a7,172(s0)
 307 00d6 8324840A 		lw	s1,168(s0)
 104:C:/Users/stapi/OneDrive/Desktop/GD32VW553/V1_MQTT_OK/GD32VW55X_Wifi_BLE_SDK/GD32VW55x_RELEASE_V1.0.2/MSDK/wpa_supplicant/src/tls\tlsv1_client.c **** 		key_block_len += 2 * conn->rl.iv_size;
 308              		.loc 1 104 14
 309 00da 03554400 		lhu	a0,4(s0)
 104:C:/Users/stapi/OneDrive/Desktop/GD32VW553/V1_MQTT_OK/GD32VW55X_Wifi_BLE_SDK/GD32VW55x_RELEASE_V1.0.2/MSDK/wpa_supplicant/src/tls\tlsv1_client.c **** 		key_block_len += 2 * conn->rl.iv_size;
 310              		.loc 1 104 5
 311 00de 93071030 		li	a5,769
 103:C:/Users/stapi/OneDrive/Desktop/GD32VW553/V1_MQTT_OK/GD32VW55X_Wifi_BLE_SDK/GD32VW55x_RELEASE_V1.0.2/MSDK/wpa_supplicant/src/tls\tlsv1_client.c **** 	if (conn->rl.tls_version == TLS_VERSION_1)
 312              		.loc 1 103 42
 313 00e2 C694     		add	s1,s1,a7
 103:C:/Users/stapi/OneDrive/Desktop/GD32VW553/V1_MQTT_OK/GD32VW55X_Wifi_BLE_SDK/GD32VW55x_RELEASE_V1.0.2/MSDK/wpa_supplicant/src/tls\tlsv1_client.c **** 	if (conn->rl.tls_version == TLS_VERSION_1)
 314              		.loc 1 103 16
 315 00e4 8604     		slli	s1,s1,1
 316              	.LVL28:
 104:C:/Users/stapi/OneDrive/Desktop/GD32VW553/V1_MQTT_OK/GD32VW55X_Wifi_BLE_SDK/GD32VW55x_RELEASE_V1.0.2/MSDK/wpa_supplicant/src/tls\tlsv1_client.c **** 		key_block_len += 2 * conn->rl.iv_size;
 317              		.loc 1 104 2 is_stmt 1
 104:C:/Users/stapi/OneDrive/Desktop/GD32VW553/V1_MQTT_OK/GD32VW55X_Wifi_BLE_SDK/GD32VW55x_RELEASE_V1.0.2/MSDK/wpa_supplicant/src/tls\tlsv1_client.c **** 		key_block_len += 2 * conn->rl.iv_size;
 318              		.loc 1 104 5 is_stmt 0
 319 00e6 6316F500 		bne	a0,a5,.L13
 105:C:/Users/stapi/OneDrive/Desktop/GD32VW553/V1_MQTT_OK/GD32VW55X_Wifi_BLE_SDK/GD32VW55x_RELEASE_V1.0.2/MSDK/wpa_supplicant/src/tls\tlsv1_client.c **** 	if (tls_prf(conn->rl.tls_version,
 320              		.loc 1 105 3 is_stmt 1
 105:C:/Users/stapi/OneDrive/Desktop/GD32VW553/V1_MQTT_OK/GD32VW55X_Wifi_BLE_SDK/GD32VW55x_RELEASE_V1.0.2/MSDK/wpa_supplicant/src/tls\tlsv1_client.c **** 	if (tls_prf(conn->rl.tls_version,
 321              		.loc 1 105 22 is_stmt 0
 322 00ea 8327040B 		lw	a5,176(s0)
 105:C:/Users/stapi/OneDrive/Desktop/GD32VW553/V1_MQTT_OK/GD32VW55X_Wifi_BLE_SDK/GD32VW55x_RELEASE_V1.0.2/MSDK/wpa_supplicant/src/tls\tlsv1_client.c **** 	if (tls_prf(conn->rl.tls_version,
 323              		.loc 1 105 17
 324 00ee B3A49720 		sh1add	s1,a5,s1
 325              	.LVL29:
 326              	.L13:
 106:C:/Users/stapi/OneDrive/Desktop/GD32VW553/V1_MQTT_OK/GD32VW55X_Wifi_BLE_SDK/GD32VW55x_RELEASE_V1.0.2/MSDK/wpa_supplicant/src/tls\tlsv1_client.c **** 		    conn->master_secret, TLS_MASTER_SECRET_LEN,
 327              		.loc 1 106 2 is_stmt 1
 106:C:/Users/stapi/OneDrive/Desktop/GD32VW553/V1_MQTT_OK/GD32VW55X_Wifi_BLE_SDK/GD32VW55x_RELEASE_V1.0.2/MSDK/wpa_supplicant/src/tls\tlsv1_client.c **** 		    conn->master_secret, TLS_MASTER_SECRET_LEN,
 328              		.loc 1 106 6 is_stmt 0
 329 00f2 B7060000 		lui	a3,%hi(.LC4)
 330 00f6 A688     		mv	a7,s1
 331 00f8 13080104 		addi	a6,sp,64
 332 00fc 93070004 		li	a5,64
 333 0100 0A87     		mv	a4,sp
 334 0102 93860600 		addi	a3,a3,%lo(.LC4)
 335 0106 13060003 		li	a2,48
 336 010a CE85     		mv	a1,s3
 337 010c 97000000 		call	tls_prf
 337      E7800000 
 338              	.LVL30:
 339 0114 2A89     		mv	s2,a0
 106:C:/Users/stapi/OneDrive/Desktop/GD32VW553/V1_MQTT_OK/GD32VW55X_Wifi_BLE_SDK/GD32VW55x_RELEASE_V1.0.2/MSDK/wpa_supplicant/src/tls\tlsv1_client.c **** 		    conn->master_secret, TLS_MASTER_SECRET_LEN,
 340              		.loc 1 106 5
 341 0116 11C5     		beq	a0,zero,.L14
 110:C:/Users/stapi/OneDrive/Desktop/GD32VW553/V1_MQTT_OK/GD32VW55X_Wifi_BLE_SDK/GD32VW55x_RELEASE_V1.0.2/MSDK/wpa_supplicant/src/tls\tlsv1_client.c **** 		return -1;
 342              		.loc 1 110 3 is_stmt 1
 343 0118 B7050000 		lui	a1,%hi(.LC5)
 344 011c 93850500 		addi	a1,a1,%lo(.LC5)
 345 0120 8DB7     		j	.L20
 346              	.L14:
 113:C:/Users/stapi/OneDrive/Desktop/GD32VW553/V1_MQTT_OK/GD32VW55X_Wifi_BLE_SDK/GD32VW55x_RELEASE_V1.0.2/MSDK/wpa_supplicant/src/tls\tlsv1_client.c **** 			key_block, key_block_len);
 347              		.loc 1 113 2
 348 0122 B7050000 		lui	a1,%hi(.LC6)
 349 0126 A686     		mv	a3,s1
 350 0128 9000     		addi	a2,sp,64
 351 012a 93850500 		addi	a1,a1,%lo(.LC6)
 352 012e 0545     		li	a0,1
 353 0130 97000000 		call	wpa_hexdump_key
 353      E7800000 
 354              	.LVL31:
 116:C:/Users/stapi/OneDrive/Desktop/GD32VW553/V1_MQTT_OK/GD32VW55X_Wifi_BLE_SDK/GD32VW55x_RELEASE_V1.0.2/MSDK/wpa_supplicant/src/tls\tlsv1_client.c **** 
 355              		.loc 1 116 2
 119:C:/Users/stapi/OneDrive/Desktop/GD32VW553/V1_MQTT_OK/GD32VW55X_Wifi_BLE_SDK/GD32VW55x_RELEASE_V1.0.2/MSDK/wpa_supplicant/src/tls\tlsv1_client.c **** 	pos += conn->rl.hash_size;
 356              		.loc 1 119 2
 357 0138 0326840A 		lw	a2,168(s0)
 358 013c 8C00     		addi	a1,sp,64
 359              	.LVL32:
 360 013e 13056400 		addi	a0,s0,6
 361 0142 97000000 		call	os_memcpy
 361      E7800000 
 362              	.LVL33:
 120:C:/Users/stapi/OneDrive/Desktop/GD32VW553/V1_MQTT_OK/GD32VW55X_Wifi_BLE_SDK/GD32VW55x_RELEASE_V1.0.2/MSDK/wpa_supplicant/src/tls\tlsv1_client.c **** 	/* server_write_MAC_secret */
 363              		.loc 1 120 2
 120:C:/Users/stapi/OneDrive/Desktop/GD32VW553/V1_MQTT_OK/GD32VW55X_Wifi_BLE_SDK/GD32VW55x_RELEASE_V1.0.2/MSDK/wpa_supplicant/src/tls\tlsv1_client.c **** 	/* server_write_MAC_secret */
 364              		.loc 1 120 17 is_stmt 0
 365 014a 0326840A 		lw	a2,168(s0)
 120:C:/Users/stapi/OneDrive/Desktop/GD32VW553/V1_MQTT_OK/GD32VW55X_Wifi_BLE_SDK/GD32VW55x_RELEASE_V1.0.2/MSDK/wpa_supplicant/src/tls\tlsv1_client.c **** 	/* server_write_MAC_secret */
 366              		.loc 1 120 6
 367 014e 9C00     		addi	a5,sp,64
 368              	.LVL34:
 122:C:/Users/stapi/OneDrive/Desktop/GD32VW553/V1_MQTT_OK/GD32VW55X_Wifi_BLE_SDK/GD32VW55x_RELEASE_V1.0.2/MSDK/wpa_supplicant/src/tls\tlsv1_client.c **** 	pos += conn->rl.hash_size;
 369              		.loc 1 122 2
 370 0150 13056402 		addi	a0,s0,38
 120:C:/Users/stapi/OneDrive/Desktop/GD32VW553/V1_MQTT_OK/GD32VW55X_Wifi_BLE_SDK/GD32VW55x_RELEASE_V1.0.2/MSDK/wpa_supplicant/src/tls\tlsv1_client.c **** 	/* server_write_MAC_secret */
 371              		.loc 1 120 6
 372 0154 B384C700 		add	s1,a5,a2
 373              	.LVL35:
 122:C:/Users/stapi/OneDrive/Desktop/GD32VW553/V1_MQTT_OK/GD32VW55X_Wifi_BLE_SDK/GD32VW55x_RELEASE_V1.0.2/MSDK/wpa_supplicant/src/tls\tlsv1_client.c **** 	pos += conn->rl.hash_size;
 374              		.loc 1 122 2 is_stmt 1
 375 0158 A685     		mv	a1,s1
 376 015a 97000000 		call	os_memcpy
 376      E7800000 
 377              	.LVL36:
 123:C:/Users/stapi/OneDrive/Desktop/GD32VW553/V1_MQTT_OK/GD32VW55X_Wifi_BLE_SDK/GD32VW55x_RELEASE_V1.0.2/MSDK/wpa_supplicant/src/tls\tlsv1_client.c **** 
 378              		.loc 1 123 2
 123:C:/Users/stapi/OneDrive/Desktop/GD32VW553/V1_MQTT_OK/GD32VW55X_Wifi_BLE_SDK/GD32VW55x_RELEASE_V1.0.2/MSDK/wpa_supplicant/src/tls\tlsv1_client.c **** 
 379              		.loc 1 123 6 is_stmt 0
 380 0162 8325840A 		lw	a1,168(s0)
 126:C:/Users/stapi/OneDrive/Desktop/GD32VW553/V1_MQTT_OK/GD32VW55X_Wifi_BLE_SDK/GD32VW55x_RELEASE_V1.0.2/MSDK/wpa_supplicant/src/tls\tlsv1_client.c **** 	pos += conn->rl.key_material_len;
 381              		.loc 1 126 2
 382 0166 0326C40A 		lw	a2,172(s0)
 383 016a 13056404 		addi	a0,s0,70
 123:C:/Users/stapi/OneDrive/Desktop/GD32VW553/V1_MQTT_OK/GD32VW55X_Wifi_BLE_SDK/GD32VW55x_RELEASE_V1.0.2/MSDK/wpa_supplicant/src/tls\tlsv1_client.c **** 
 384              		.loc 1 123 6
 385 016e AE94     		add	s1,s1,a1
 386              	.LVL37:
 126:C:/Users/stapi/OneDrive/Desktop/GD32VW553/V1_MQTT_OK/GD32VW55X_Wifi_BLE_SDK/GD32VW55x_RELEASE_V1.0.2/MSDK/wpa_supplicant/src/tls\tlsv1_client.c **** 	pos += conn->rl.key_material_len;
 387              		.loc 1 126 2 is_stmt 1
 388 0170 A685     		mv	a1,s1
 389 0172 97000000 		call	os_memcpy
 389      E7800000 
 390              	.LVL38:
 127:C:/Users/stapi/OneDrive/Desktop/GD32VW553/V1_MQTT_OK/GD32VW55X_Wifi_BLE_SDK/GD32VW55x_RELEASE_V1.0.2/MSDK/wpa_supplicant/src/tls\tlsv1_client.c **** 	/* server_write_key */
 391              		.loc 1 127 2
 127:C:/Users/stapi/OneDrive/Desktop/GD32VW553/V1_MQTT_OK/GD32VW55X_Wifi_BLE_SDK/GD32VW55x_RELEASE_V1.0.2/MSDK/wpa_supplicant/src/tls\tlsv1_client.c **** 	/* server_write_key */
 392              		.loc 1 127 17 is_stmt 0
 393 017a 0326C40A 		lw	a2,172(s0)
 129:C:/Users/stapi/OneDrive/Desktop/GD32VW553/V1_MQTT_OK/GD32VW55X_Wifi_BLE_SDK/GD32VW55x_RELEASE_V1.0.2/MSDK/wpa_supplicant/src/tls\tlsv1_client.c **** 	pos += conn->rl.key_material_len;
 394              		.loc 1 129 2
 395 017e 13056406 		addi	a0,s0,102
 119:C:/Users/stapi/OneDrive/Desktop/GD32VW553/V1_MQTT_OK/GD32VW55X_Wifi_BLE_SDK/GD32VW55x_RELEASE_V1.0.2/MSDK/wpa_supplicant/src/tls\tlsv1_client.c **** 	pos += conn->rl.hash_size;
 396              		.loc 1 119 2
 397 0182 93090408 		addi	s3,s0,128
 127:C:/Users/stapi/OneDrive/Desktop/GD32VW553/V1_MQTT_OK/GD32VW55X_Wifi_BLE_SDK/GD32VW55x_RELEASE_V1.0.2/MSDK/wpa_supplicant/src/tls\tlsv1_client.c **** 	/* server_write_key */
 398              		.loc 1 127 6
 399 0186 B294     		add	s1,s1,a2
 400              	.LVL39:
 129:C:/Users/stapi/OneDrive/Desktop/GD32VW553/V1_MQTT_OK/GD32VW55X_Wifi_BLE_SDK/GD32VW55x_RELEASE_V1.0.2/MSDK/wpa_supplicant/src/tls\tlsv1_client.c **** 	pos += conn->rl.key_material_len;
 401              		.loc 1 129 2 is_stmt 1
 402 0188 A685     		mv	a1,s1
 403 018a 97000000 		call	os_memcpy
 403      E7800000 
 404              	.LVL40:
 130:C:/Users/stapi/OneDrive/Desktop/GD32VW553/V1_MQTT_OK/GD32VW55X_Wifi_BLE_SDK/GD32VW55x_RELEASE_V1.0.2/MSDK/wpa_supplicant/src/tls\tlsv1_client.c **** 
 405              		.loc 1 130 2
 132:C:/Users/stapi/OneDrive/Desktop/GD32VW553/V1_MQTT_OK/GD32VW55X_Wifi_BLE_SDK/GD32VW55x_RELEASE_V1.0.2/MSDK/wpa_supplicant/src/tls\tlsv1_client.c **** 		/* client_write_IV */
 406              		.loc 1 132 2
 132:C:/Users/stapi/OneDrive/Desktop/GD32VW553/V1_MQTT_OK/GD32VW55X_Wifi_BLE_SDK/GD32VW55x_RELEASE_V1.0.2/MSDK/wpa_supplicant/src/tls\tlsv1_client.c **** 		/* client_write_IV */
 407              		.loc 1 132 5 is_stmt 0
 408 0192 03574400 		lhu	a4,4(s0)
 409 0196 93071030 		li	a5,769
 410 019a 0326040B 		lw	a2,176(s0)
 134:C:/Users/stapi/OneDrive/Desktop/GD32VW553/V1_MQTT_OK/GD32VW55X_Wifi_BLE_SDK/GD32VW55x_RELEASE_V1.0.2/MSDK/wpa_supplicant/src/tls\tlsv1_client.c **** 		pos += conn->rl.iv_size;
 411              		.loc 1 134 21
 412 019e 13056408 		addi	a0,s0,134
 132:C:/Users/stapi/OneDrive/Desktop/GD32VW553/V1_MQTT_OK/GD32VW55X_Wifi_BLE_SDK/GD32VW55x_RELEASE_V1.0.2/MSDK/wpa_supplicant/src/tls\tlsv1_client.c **** 		/* client_write_IV */
 413              		.loc 1 132 5
 414 01a2 6315F702 		bne	a4,a5,.L15
 130:C:/Users/stapi/OneDrive/Desktop/GD32VW553/V1_MQTT_OK/GD32VW55X_Wifi_BLE_SDK/GD32VW55x_RELEASE_V1.0.2/MSDK/wpa_supplicant/src/tls\tlsv1_client.c **** 
 415              		.loc 1 130 6
 416 01a6 8325C40A 		lw	a1,172(s0)
 417 01aa AE94     		add	s1,s1,a1
 418              	.LVL41:
 134:C:/Users/stapi/OneDrive/Desktop/GD32VW553/V1_MQTT_OK/GD32VW55X_Wifi_BLE_SDK/GD32VW55x_RELEASE_V1.0.2/MSDK/wpa_supplicant/src/tls\tlsv1_client.c **** 		pos += conn->rl.iv_size;
 419              		.loc 1 134 3 is_stmt 1
 420 01ac A685     		mv	a1,s1
 421 01ae 97000000 		call	os_memcpy
 421      E7800000 
 422              	.LVL42:
 135:C:/Users/stapi/OneDrive/Desktop/GD32VW553/V1_MQTT_OK/GD32VW55X_Wifi_BLE_SDK/GD32VW55x_RELEASE_V1.0.2/MSDK/wpa_supplicant/src/tls\tlsv1_client.c **** 		/* server_write_IV */
 423              		.loc 1 135 3
 137:C:/Users/stapi/OneDrive/Desktop/GD32VW553/V1_MQTT_OK/GD32VW55X_Wifi_BLE_SDK/GD32VW55x_RELEASE_V1.0.2/MSDK/wpa_supplicant/src/tls\tlsv1_client.c **** 	} else {
 424              		.loc 1 137 3
 425 01b6 0326040B 		lw	a2,176(s0)
 426 01ba 13056409 		addi	a0,s0,150
 427 01be B385C400 		add	a1,s1,a2
 428              	.LVL43:
 429 01c2 97000000 		call	os_memcpy
 429      E7800000 
 430              	.LVL44:
 431 01ca D1B5     		j	.L9
 432              	.LVL45:
 433              	.L15:
 144:C:/Users/stapi/OneDrive/Desktop/GD32VW553/V1_MQTT_OK/GD32VW55X_Wifi_BLE_SDK/GD32VW55x_RELEASE_V1.0.2/MSDK/wpa_supplicant/src/tls\tlsv1_client.c **** 	}
 434              		.loc 1 144 3
 435 01cc 8145     		li	a1,0
 436 01ce 97000000 		call	os_memset
 436      E7800000 
 437              	.LVL46:
 438 01d6 65BD     		j	.L9
 439              		.cfi_endproc
 440              	.LFE90:
 442              		.section	.rodata.tlsv1_client_handshake.str1.4,"aMS",@progbits,1
 443              		.align	2
 444              	.LC7:
 445 0000 544C5376 		.string	"TLSv1: Failed to allocate memory for pending record"
 445      313A2046 
 445      61696C65 
 445      6420746F 
 445      20616C6C 
 446              		.align	2
 447              	.LC8:
 448 0034 544C5376 		.string	"TLSv1: Processing received record failed"
 448      313A2050 
 448      726F6365 
 448      7373696E 
 448      67207265 
 449 005d 000000   		.align	2
 450              	.LC9:
 451 0060 544C5376 		.string	"TLSv1: Need more data"
 451      313A204E 
 451      65656420 
 451      6D6F7265 
 451      20646174 
 452              		.section	.text.tlsv1_client_handshake,"ax",@progbits
 453              		.align	1
 454              		.globl	tlsv1_client_handshake
 456              	tlsv1_client_handshake:
 457              	.LFB91:
 149:C:/Users/stapi/OneDrive/Desktop/GD32VW553/V1_MQTT_OK/GD32VW55X_Wifi_BLE_SDK/GD32VW55x_RELEASE_V1.0.2/MSDK/wpa_supplicant/src/tls\tlsv1_client.c **** 
 150:C:/Users/stapi/OneDrive/Desktop/GD32VW553/V1_MQTT_OK/GD32VW55X_Wifi_BLE_SDK/GD32VW55x_RELEASE_V1.0.2/MSDK/wpa_supplicant/src/tls\tlsv1_client.c **** 
 151:C:/Users/stapi/OneDrive/Desktop/GD32VW553/V1_MQTT_OK/GD32VW55X_Wifi_BLE_SDK/GD32VW55x_RELEASE_V1.0.2/MSDK/wpa_supplicant/src/tls\tlsv1_client.c **** /**
 152:C:/Users/stapi/OneDrive/Desktop/GD32VW553/V1_MQTT_OK/GD32VW55X_Wifi_BLE_SDK/GD32VW55x_RELEASE_V1.0.2/MSDK/wpa_supplicant/src/tls\tlsv1_client.c ****  * tlsv1_client_handshake - Process TLS handshake
 153:C:/Users/stapi/OneDrive/Desktop/GD32VW553/V1_MQTT_OK/GD32VW55X_Wifi_BLE_SDK/GD32VW55x_RELEASE_V1.0.2/MSDK/wpa_supplicant/src/tls\tlsv1_client.c ****  * @conn: TLSv1 client connection data from tlsv1_client_init()
 154:C:/Users/stapi/OneDrive/Desktop/GD32VW553/V1_MQTT_OK/GD32VW55X_Wifi_BLE_SDK/GD32VW55x_RELEASE_V1.0.2/MSDK/wpa_supplicant/src/tls\tlsv1_client.c ****  * @in_data: Input data from TLS peer
 155:C:/Users/stapi/OneDrive/Desktop/GD32VW553/V1_MQTT_OK/GD32VW55X_Wifi_BLE_SDK/GD32VW55x_RELEASE_V1.0.2/MSDK/wpa_supplicant/src/tls\tlsv1_client.c ****  * @in_len: Input data length
 156:C:/Users/stapi/OneDrive/Desktop/GD32VW553/V1_MQTT_OK/GD32VW55X_Wifi_BLE_SDK/GD32VW55x_RELEASE_V1.0.2/MSDK/wpa_supplicant/src/tls\tlsv1_client.c ****  * @out_len: Length of the output buffer.
 157:C:/Users/stapi/OneDrive/Desktop/GD32VW553/V1_MQTT_OK/GD32VW55X_Wifi_BLE_SDK/GD32VW55x_RELEASE_V1.0.2/MSDK/wpa_supplicant/src/tls\tlsv1_client.c ****  * @appl_data: Pointer to application data pointer, or %NULL if dropped
 158:C:/Users/stapi/OneDrive/Desktop/GD32VW553/V1_MQTT_OK/GD32VW55X_Wifi_BLE_SDK/GD32VW55x_RELEASE_V1.0.2/MSDK/wpa_supplicant/src/tls\tlsv1_client.c ****  * @appl_data_len: Pointer to variable that is set to appl_data length
 159:C:/Users/stapi/OneDrive/Desktop/GD32VW553/V1_MQTT_OK/GD32VW55X_Wifi_BLE_SDK/GD32VW55x_RELEASE_V1.0.2/MSDK/wpa_supplicant/src/tls\tlsv1_client.c ****  * @need_more_data: Set to 1 if more data would be needed to complete
 160:C:/Users/stapi/OneDrive/Desktop/GD32VW553/V1_MQTT_OK/GD32VW55X_Wifi_BLE_SDK/GD32VW55x_RELEASE_V1.0.2/MSDK/wpa_supplicant/src/tls\tlsv1_client.c ****  *	processing
 161:C:/Users/stapi/OneDrive/Desktop/GD32VW553/V1_MQTT_OK/GD32VW55X_Wifi_BLE_SDK/GD32VW55x_RELEASE_V1.0.2/MSDK/wpa_supplicant/src/tls\tlsv1_client.c ****  * Returns: Pointer to output data, %NULL on failure
 162:C:/Users/stapi/OneDrive/Desktop/GD32VW553/V1_MQTT_OK/GD32VW55X_Wifi_BLE_SDK/GD32VW55x_RELEASE_V1.0.2/MSDK/wpa_supplicant/src/tls\tlsv1_client.c ****  */
 163:C:/Users/stapi/OneDrive/Desktop/GD32VW553/V1_MQTT_OK/GD32VW55X_Wifi_BLE_SDK/GD32VW55x_RELEASE_V1.0.2/MSDK/wpa_supplicant/src/tls\tlsv1_client.c **** u8 * tlsv1_client_handshake(struct tlsv1_client *conn,
 164:C:/Users/stapi/OneDrive/Desktop/GD32VW553/V1_MQTT_OK/GD32VW55X_Wifi_BLE_SDK/GD32VW55x_RELEASE_V1.0.2/MSDK/wpa_supplicant/src/tls\tlsv1_client.c **** 			    const u8 *in_data, size_t in_len,
 165:C:/Users/stapi/OneDrive/Desktop/GD32VW553/V1_MQTT_OK/GD32VW55X_Wifi_BLE_SDK/GD32VW55x_RELEASE_V1.0.2/MSDK/wpa_supplicant/src/tls\tlsv1_client.c **** 			    size_t *out_len, u8 **appl_data,
 166:C:/Users/stapi/OneDrive/Desktop/GD32VW553/V1_MQTT_OK/GD32VW55X_Wifi_BLE_SDK/GD32VW55x_RELEASE_V1.0.2/MSDK/wpa_supplicant/src/tls\tlsv1_client.c **** 			    size_t *appl_data_len, int *need_more_data)
 167:C:/Users/stapi/OneDrive/Desktop/GD32VW553/V1_MQTT_OK/GD32VW55X_Wifi_BLE_SDK/GD32VW55x_RELEASE_V1.0.2/MSDK/wpa_supplicant/src/tls\tlsv1_client.c **** {
 458              		.loc 1 167 1
 459              		.cfi_startproc
 460              	.LVL47:
 461 0000 17030000 		call	t0,__riscv_save_12
 461      E7020300 
 462              		.cfi_offset 27, -52
 463              		.cfi_offset 26, -48
 464              		.cfi_offset 25, -44
 465              		.cfi_offset 24, -40
 466              		.cfi_offset 23, -36
 467              		.cfi_offset 22, -32
 468              		.cfi_offset 21, -28
 469              		.cfi_offset 20, -24
 470              		.cfi_offset 19, -20
 471              		.cfi_offset 18, -16
 472              		.cfi_offset 9, -12
 473              		.cfi_offset 8, -8
 474              		.cfi_offset 1, -4
 475              		.cfi_def_cfa_offset 64
 168:C:/Users/stapi/OneDrive/Desktop/GD32VW553/V1_MQTT_OK/GD32VW55X_Wifi_BLE_SDK/GD32VW55x_RELEASE_V1.0.2/MSDK/wpa_supplicant/src/tls\tlsv1_client.c **** 	const u8 *pos, *end;
 476              		.loc 1 168 2
 169:C:/Users/stapi/OneDrive/Desktop/GD32VW553/V1_MQTT_OK/GD32VW55X_Wifi_BLE_SDK/GD32VW55x_RELEASE_V1.0.2/MSDK/wpa_supplicant/src/tls\tlsv1_client.c **** 	u8 *msg = NULL, *in_msg = NULL, *in_pos, *in_end, alert, ct;
 477              		.loc 1 169 2
 478              	.LVL48:
 170:C:/Users/stapi/OneDrive/Desktop/GD32VW553/V1_MQTT_OK/GD32VW55X_Wifi_BLE_SDK/GD32VW55x_RELEASE_V1.0.2/MSDK/wpa_supplicant/src/tls\tlsv1_client.c **** 	size_t in_msg_len;
 479              		.loc 1 170 2
 171:C:/Users/stapi/OneDrive/Desktop/GD32VW553/V1_MQTT_OK/GD32VW55X_Wifi_BLE_SDK/GD32VW55x_RELEASE_V1.0.2/MSDK/wpa_supplicant/src/tls\tlsv1_client.c **** 	int no_appl_data;
 480              		.loc 1 171 2
 172:C:/Users/stapi/OneDrive/Desktop/GD32VW553/V1_MQTT_OK/GD32VW55X_Wifi_BLE_SDK/GD32VW55x_RELEASE_V1.0.2/MSDK/wpa_supplicant/src/tls\tlsv1_client.c **** 	int used;
 481              		.loc 1 172 2
 173:C:/Users/stapi/OneDrive/Desktop/GD32VW553/V1_MQTT_OK/GD32VW55X_Wifi_BLE_SDK/GD32VW55x_RELEASE_V1.0.2/MSDK/wpa_supplicant/src/tls\tlsv1_client.c **** 
 174:C:/Users/stapi/OneDrive/Desktop/GD32VW553/V1_MQTT_OK/GD32VW55X_Wifi_BLE_SDK/GD32VW55x_RELEASE_V1.0.2/MSDK/wpa_supplicant/src/tls\tlsv1_client.c **** 	if (need_more_data)
 482              		.loc 1 174 2
 167:C:/Users/stapi/OneDrive/Desktop/GD32VW553/V1_MQTT_OK/GD32VW55X_Wifi_BLE_SDK/GD32VW55x_RELEASE_V1.0.2/MSDK/wpa_supplicant/src/tls\tlsv1_client.c **** 	const u8 *pos, *end;
 483              		.loc 1 167 1 is_stmt 0
 484 0008 0111     		addi	sp,sp,-32
 485              		.cfi_def_cfa_offset 96
 167:C:/Users/stapi/OneDrive/Desktop/GD32VW553/V1_MQTT_OK/GD32VW55X_Wifi_BLE_SDK/GD32VW55x_RELEASE_V1.0.2/MSDK/wpa_supplicant/src/tls\tlsv1_client.c **** 	const u8 *pos, *end;
 486              		.loc 1 167 1
 487 000a 2A84     		mv	s0,a0
 488 000c AE84     		mv	s1,a1
 489 000e B289     		mv	s3,a2
 490 0010 B68A     		mv	s5,a3
 491 0012 3A8B     		mv	s6,a4
 492 0014 3E8C     		mv	s8,a5
 493 0016 428A     		mv	s4,a6
 494              		.loc 1 174 5
 495 0018 63040800 		beq	a6,zero,.L22
 175:C:/Users/stapi/OneDrive/Desktop/GD32VW553/V1_MQTT_OK/GD32VW55X_Wifi_BLE_SDK/GD32VW55x_RELEASE_V1.0.2/MSDK/wpa_supplicant/src/tls\tlsv1_client.c **** 		*need_more_data = 0;
 496              		.loc 1 175 3 is_stmt 1
 497              		.loc 1 175 19 is_stmt 0
 498 001c 23200800 		sw	zero,0(a6)
 499              	.L22:
 176:C:/Users/stapi/OneDrive/Desktop/GD32VW553/V1_MQTT_OK/GD32VW55X_Wifi_BLE_SDK/GD32VW55x_RELEASE_V1.0.2/MSDK/wpa_supplicant/src/tls\tlsv1_client.c **** 
 177:C:/Users/stapi/OneDrive/Desktop/GD32VW553/V1_MQTT_OK/GD32VW55X_Wifi_BLE_SDK/GD32VW55x_RELEASE_V1.0.2/MSDK/wpa_supplicant/src/tls\tlsv1_client.c **** 	if (conn->state == CLIENT_HELLO) {
 500              		.loc 1 177 2 is_stmt 1
 501              		.loc 1 177 5 is_stmt 0
 502 0020 1C40     		lw	a5,0(s0)
 503              	.LVL49:
 504 0022 95E3     		bne	a5,zero,.L23
 178:C:/Users/stapi/OneDrive/Desktop/GD32VW553/V1_MQTT_OK/GD32VW55X_Wifi_BLE_SDK/GD32VW55x_RELEASE_V1.0.2/MSDK/wpa_supplicant/src/tls\tlsv1_client.c **** 		if (in_len)
 505              		.loc 1 178 3 is_stmt 1
 506              		.loc 1 178 6 is_stmt 0
 507 0024 63840900 		beq	s3,zero,.L24
 508              	.LVL50:
 509              	.L69:
 510              	.LBB49:
 179:C:/Users/stapi/OneDrive/Desktop/GD32VW553/V1_MQTT_OK/GD32VW55X_Wifi_BLE_SDK/GD32VW55x_RELEASE_V1.0.2/MSDK/wpa_supplicant/src/tls\tlsv1_client.c **** 			return NULL;
 180:C:/Users/stapi/OneDrive/Desktop/GD32VW553/V1_MQTT_OK/GD32VW55X_Wifi_BLE_SDK/GD32VW55x_RELEASE_V1.0.2/MSDK/wpa_supplicant/src/tls\tlsv1_client.c **** 		return tls_send_client_hello(conn, out_len);
 181:C:/Users/stapi/OneDrive/Desktop/GD32VW553/V1_MQTT_OK/GD32VW55X_Wifi_BLE_SDK/GD32VW55x_RELEASE_V1.0.2/MSDK/wpa_supplicant/src/tls\tlsv1_client.c **** 	}
 182:C:/Users/stapi/OneDrive/Desktop/GD32VW553/V1_MQTT_OK/GD32VW55X_Wifi_BLE_SDK/GD32VW55x_RELEASE_V1.0.2/MSDK/wpa_supplicant/src/tls\tlsv1_client.c **** 
 183:C:/Users/stapi/OneDrive/Desktop/GD32VW553/V1_MQTT_OK/GD32VW55X_Wifi_BLE_SDK/GD32VW55x_RELEASE_V1.0.2/MSDK/wpa_supplicant/src/tls\tlsv1_client.c **** 	if (conn->partial_input) {
 184:C:/Users/stapi/OneDrive/Desktop/GD32VW553/V1_MQTT_OK/GD32VW55X_Wifi_BLE_SDK/GD32VW55x_RELEASE_V1.0.2/MSDK/wpa_supplicant/src/tls\tlsv1_client.c **** 		if (wpabuf_resize(&conn->partial_input, in_len) < 0) {
 185:C:/Users/stapi/OneDrive/Desktop/GD32VW553/V1_MQTT_OK/GD32VW55X_Wifi_BLE_SDK/GD32VW55x_RELEASE_V1.0.2/MSDK/wpa_supplicant/src/tls\tlsv1_client.c **** 			wpa_printf(MSG_DEBUG, "TLSv1: Failed to allocate "
 186:C:/Users/stapi/OneDrive/Desktop/GD32VW553/V1_MQTT_OK/GD32VW55X_Wifi_BLE_SDK/GD32VW55x_RELEASE_V1.0.2/MSDK/wpa_supplicant/src/tls\tlsv1_client.c **** 				   "memory for pending record");
 187:C:/Users/stapi/OneDrive/Desktop/GD32VW553/V1_MQTT_OK/GD32VW55X_Wifi_BLE_SDK/GD32VW55x_RELEASE_V1.0.2/MSDK/wpa_supplicant/src/tls\tlsv1_client.c **** 			tls_alert(conn, TLS_ALERT_LEVEL_FATAL,
 188:C:/Users/stapi/OneDrive/Desktop/GD32VW553/V1_MQTT_OK/GD32VW55X_Wifi_BLE_SDK/GD32VW55x_RELEASE_V1.0.2/MSDK/wpa_supplicant/src/tls\tlsv1_client.c **** 				  TLS_ALERT_INTERNAL_ERROR);
 189:C:/Users/stapi/OneDrive/Desktop/GD32VW553/V1_MQTT_OK/GD32VW55X_Wifi_BLE_SDK/GD32VW55x_RELEASE_V1.0.2/MSDK/wpa_supplicant/src/tls\tlsv1_client.c **** 			goto failed;
 190:C:/Users/stapi/OneDrive/Desktop/GD32VW553/V1_MQTT_OK/GD32VW55X_Wifi_BLE_SDK/GD32VW55x_RELEASE_V1.0.2/MSDK/wpa_supplicant/src/tls\tlsv1_client.c **** 		}
 191:C:/Users/stapi/OneDrive/Desktop/GD32VW553/V1_MQTT_OK/GD32VW55X_Wifi_BLE_SDK/GD32VW55x_RELEASE_V1.0.2/MSDK/wpa_supplicant/src/tls\tlsv1_client.c **** 		wpabuf_put_data(conn->partial_input, in_data, in_len);
 192:C:/Users/stapi/OneDrive/Desktop/GD32VW553/V1_MQTT_OK/GD32VW55X_Wifi_BLE_SDK/GD32VW55x_RELEASE_V1.0.2/MSDK/wpa_supplicant/src/tls\tlsv1_client.c **** 		in_data = wpabuf_head(conn->partial_input);
 193:C:/Users/stapi/OneDrive/Desktop/GD32VW553/V1_MQTT_OK/GD32VW55X_Wifi_BLE_SDK/GD32VW55x_RELEASE_V1.0.2/MSDK/wpa_supplicant/src/tls\tlsv1_client.c **** 		in_len = wpabuf_len(conn->partial_input);
 194:C:/Users/stapi/OneDrive/Desktop/GD32VW553/V1_MQTT_OK/GD32VW55X_Wifi_BLE_SDK/GD32VW55x_RELEASE_V1.0.2/MSDK/wpa_supplicant/src/tls\tlsv1_client.c **** 	}
 195:C:/Users/stapi/OneDrive/Desktop/GD32VW553/V1_MQTT_OK/GD32VW55X_Wifi_BLE_SDK/GD32VW55x_RELEASE_V1.0.2/MSDK/wpa_supplicant/src/tls\tlsv1_client.c **** 
 196:C:/Users/stapi/OneDrive/Desktop/GD32VW553/V1_MQTT_OK/GD32VW55X_Wifi_BLE_SDK/GD32VW55x_RELEASE_V1.0.2/MSDK/wpa_supplicant/src/tls\tlsv1_client.c **** 	if (in_data == NULL || in_len == 0)
 197:C:/Users/stapi/OneDrive/Desktop/GD32VW553/V1_MQTT_OK/GD32VW55X_Wifi_BLE_SDK/GD32VW55x_RELEASE_V1.0.2/MSDK/wpa_supplicant/src/tls\tlsv1_client.c **** 		return NULL;
 198:C:/Users/stapi/OneDrive/Desktop/GD32VW553/V1_MQTT_OK/GD32VW55X_Wifi_BLE_SDK/GD32VW55x_RELEASE_V1.0.2/MSDK/wpa_supplicant/src/tls\tlsv1_client.c **** 
 199:C:/Users/stapi/OneDrive/Desktop/GD32VW553/V1_MQTT_OK/GD32VW55X_Wifi_BLE_SDK/GD32VW55x_RELEASE_V1.0.2/MSDK/wpa_supplicant/src/tls\tlsv1_client.c **** 	pos = in_data;
 200:C:/Users/stapi/OneDrive/Desktop/GD32VW553/V1_MQTT_OK/GD32VW55X_Wifi_BLE_SDK/GD32VW55x_RELEASE_V1.0.2/MSDK/wpa_supplicant/src/tls\tlsv1_client.c **** 	end = in_data + in_len;
 201:C:/Users/stapi/OneDrive/Desktop/GD32VW553/V1_MQTT_OK/GD32VW55X_Wifi_BLE_SDK/GD32VW55x_RELEASE_V1.0.2/MSDK/wpa_supplicant/src/tls\tlsv1_client.c **** 	in_msg = os_malloc(in_len);
 202:C:/Users/stapi/OneDrive/Desktop/GD32VW553/V1_MQTT_OK/GD32VW55X_Wifi_BLE_SDK/GD32VW55x_RELEASE_V1.0.2/MSDK/wpa_supplicant/src/tls\tlsv1_client.c **** 	if (in_msg == NULL)
 203:C:/Users/stapi/OneDrive/Desktop/GD32VW553/V1_MQTT_OK/GD32VW55X_Wifi_BLE_SDK/GD32VW55x_RELEASE_V1.0.2/MSDK/wpa_supplicant/src/tls\tlsv1_client.c **** 		return NULL;
 204:C:/Users/stapi/OneDrive/Desktop/GD32VW553/V1_MQTT_OK/GD32VW55X_Wifi_BLE_SDK/GD32VW55x_RELEASE_V1.0.2/MSDK/wpa_supplicant/src/tls\tlsv1_client.c **** 
 205:C:/Users/stapi/OneDrive/Desktop/GD32VW553/V1_MQTT_OK/GD32VW55X_Wifi_BLE_SDK/GD32VW55x_RELEASE_V1.0.2/MSDK/wpa_supplicant/src/tls\tlsv1_client.c **** 	/* Each received packet may include multiple records */
 206:C:/Users/stapi/OneDrive/Desktop/GD32VW553/V1_MQTT_OK/GD32VW55X_Wifi_BLE_SDK/GD32VW55x_RELEASE_V1.0.2/MSDK/wpa_supplicant/src/tls\tlsv1_client.c **** 	while (pos < end) {
 207:C:/Users/stapi/OneDrive/Desktop/GD32VW553/V1_MQTT_OK/GD32VW55X_Wifi_BLE_SDK/GD32VW55x_RELEASE_V1.0.2/MSDK/wpa_supplicant/src/tls\tlsv1_client.c **** 		in_msg_len = in_len;
 208:C:/Users/stapi/OneDrive/Desktop/GD32VW553/V1_MQTT_OK/GD32VW55X_Wifi_BLE_SDK/GD32VW55x_RELEASE_V1.0.2/MSDK/wpa_supplicant/src/tls\tlsv1_client.c **** 		used = tlsv1_record_receive(&conn->rl, pos, end - pos,
 209:C:/Users/stapi/OneDrive/Desktop/GD32VW553/V1_MQTT_OK/GD32VW55X_Wifi_BLE_SDK/GD32VW55x_RELEASE_V1.0.2/MSDK/wpa_supplicant/src/tls\tlsv1_client.c **** 					    in_msg, &in_msg_len, &alert);
 210:C:/Users/stapi/OneDrive/Desktop/GD32VW553/V1_MQTT_OK/GD32VW55X_Wifi_BLE_SDK/GD32VW55x_RELEASE_V1.0.2/MSDK/wpa_supplicant/src/tls\tlsv1_client.c **** 		if (used < 0) {
 211:C:/Users/stapi/OneDrive/Desktop/GD32VW553/V1_MQTT_OK/GD32VW55X_Wifi_BLE_SDK/GD32VW55x_RELEASE_V1.0.2/MSDK/wpa_supplicant/src/tls\tlsv1_client.c **** 			wpa_printf(MSG_DEBUG, "TLSv1: Processing received "
 212:C:/Users/stapi/OneDrive/Desktop/GD32VW553/V1_MQTT_OK/GD32VW55X_Wifi_BLE_SDK/GD32VW55x_RELEASE_V1.0.2/MSDK/wpa_supplicant/src/tls\tlsv1_client.c **** 				   "record failed");
 213:C:/Users/stapi/OneDrive/Desktop/GD32VW553/V1_MQTT_OK/GD32VW55X_Wifi_BLE_SDK/GD32VW55x_RELEASE_V1.0.2/MSDK/wpa_supplicant/src/tls\tlsv1_client.c **** 			tls_alert(conn, TLS_ALERT_LEVEL_FATAL, alert);
 214:C:/Users/stapi/OneDrive/Desktop/GD32VW553/V1_MQTT_OK/GD32VW55X_Wifi_BLE_SDK/GD32VW55x_RELEASE_V1.0.2/MSDK/wpa_supplicant/src/tls\tlsv1_client.c **** 			goto failed;
 215:C:/Users/stapi/OneDrive/Desktop/GD32VW553/V1_MQTT_OK/GD32VW55X_Wifi_BLE_SDK/GD32VW55x_RELEASE_V1.0.2/MSDK/wpa_supplicant/src/tls\tlsv1_client.c **** 		}
 216:C:/Users/stapi/OneDrive/Desktop/GD32VW553/V1_MQTT_OK/GD32VW55X_Wifi_BLE_SDK/GD32VW55x_RELEASE_V1.0.2/MSDK/wpa_supplicant/src/tls\tlsv1_client.c **** 		if (used == 0) {
 217:C:/Users/stapi/OneDrive/Desktop/GD32VW553/V1_MQTT_OK/GD32VW55X_Wifi_BLE_SDK/GD32VW55x_RELEASE_V1.0.2/MSDK/wpa_supplicant/src/tls\tlsv1_client.c **** 			struct wpabuf *partial;
 218:C:/Users/stapi/OneDrive/Desktop/GD32VW553/V1_MQTT_OK/GD32VW55X_Wifi_BLE_SDK/GD32VW55x_RELEASE_V1.0.2/MSDK/wpa_supplicant/src/tls\tlsv1_client.c **** 			wpa_printf(MSG_DEBUG, "TLSv1: Need more data");
 219:C:/Users/stapi/OneDrive/Desktop/GD32VW553/V1_MQTT_OK/GD32VW55X_Wifi_BLE_SDK/GD32VW55x_RELEASE_V1.0.2/MSDK/wpa_supplicant/src/tls\tlsv1_client.c **** 			partial = wpabuf_alloc_copy(pos, end - pos);
 220:C:/Users/stapi/OneDrive/Desktop/GD32VW553/V1_MQTT_OK/GD32VW55X_Wifi_BLE_SDK/GD32VW55x_RELEASE_V1.0.2/MSDK/wpa_supplicant/src/tls\tlsv1_client.c **** 			wpabuf_free(conn->partial_input);
 221:C:/Users/stapi/OneDrive/Desktop/GD32VW553/V1_MQTT_OK/GD32VW55X_Wifi_BLE_SDK/GD32VW55x_RELEASE_V1.0.2/MSDK/wpa_supplicant/src/tls\tlsv1_client.c **** 			conn->partial_input = partial;
 222:C:/Users/stapi/OneDrive/Desktop/GD32VW553/V1_MQTT_OK/GD32VW55X_Wifi_BLE_SDK/GD32VW55x_RELEASE_V1.0.2/MSDK/wpa_supplicant/src/tls\tlsv1_client.c **** 			if (conn->partial_input == NULL) {
 223:C:/Users/stapi/OneDrive/Desktop/GD32VW553/V1_MQTT_OK/GD32VW55X_Wifi_BLE_SDK/GD32VW55x_RELEASE_V1.0.2/MSDK/wpa_supplicant/src/tls\tlsv1_client.c **** 				wpa_printf(MSG_DEBUG, "TLSv1: Failed to "
 224:C:/Users/stapi/OneDrive/Desktop/GD32VW553/V1_MQTT_OK/GD32VW55X_Wifi_BLE_SDK/GD32VW55x_RELEASE_V1.0.2/MSDK/wpa_supplicant/src/tls\tlsv1_client.c **** 					   "allocate memory for pending "
 225:C:/Users/stapi/OneDrive/Desktop/GD32VW553/V1_MQTT_OK/GD32VW55X_Wifi_BLE_SDK/GD32VW55x_RELEASE_V1.0.2/MSDK/wpa_supplicant/src/tls\tlsv1_client.c **** 					   "record");
 226:C:/Users/stapi/OneDrive/Desktop/GD32VW553/V1_MQTT_OK/GD32VW55X_Wifi_BLE_SDK/GD32VW55x_RELEASE_V1.0.2/MSDK/wpa_supplicant/src/tls\tlsv1_client.c **** 				tls_alert(conn, TLS_ALERT_LEVEL_FATAL,
 227:C:/Users/stapi/OneDrive/Desktop/GD32VW553/V1_MQTT_OK/GD32VW55X_Wifi_BLE_SDK/GD32VW55x_RELEASE_V1.0.2/MSDK/wpa_supplicant/src/tls\tlsv1_client.c **** 					  TLS_ALERT_INTERNAL_ERROR);
 228:C:/Users/stapi/OneDrive/Desktop/GD32VW553/V1_MQTT_OK/GD32VW55X_Wifi_BLE_SDK/GD32VW55x_RELEASE_V1.0.2/MSDK/wpa_supplicant/src/tls\tlsv1_client.c **** 				goto failed;
 229:C:/Users/stapi/OneDrive/Desktop/GD32VW553/V1_MQTT_OK/GD32VW55X_Wifi_BLE_SDK/GD32VW55x_RELEASE_V1.0.2/MSDK/wpa_supplicant/src/tls\tlsv1_client.c **** 			}
 230:C:/Users/stapi/OneDrive/Desktop/GD32VW553/V1_MQTT_OK/GD32VW55X_Wifi_BLE_SDK/GD32VW55x_RELEASE_V1.0.2/MSDK/wpa_supplicant/src/tls\tlsv1_client.c **** 			os_free(in_msg);
 231:C:/Users/stapi/OneDrive/Desktop/GD32VW553/V1_MQTT_OK/GD32VW55X_Wifi_BLE_SDK/GD32VW55x_RELEASE_V1.0.2/MSDK/wpa_supplicant/src/tls\tlsv1_client.c **** 			if (need_more_data)
 232:C:/Users/stapi/OneDrive/Desktop/GD32VW553/V1_MQTT_OK/GD32VW55X_Wifi_BLE_SDK/GD32VW55x_RELEASE_V1.0.2/MSDK/wpa_supplicant/src/tls\tlsv1_client.c **** 				*need_more_data = 1;
 233:C:/Users/stapi/OneDrive/Desktop/GD32VW553/V1_MQTT_OK/GD32VW55X_Wifi_BLE_SDK/GD32VW55x_RELEASE_V1.0.2/MSDK/wpa_supplicant/src/tls\tlsv1_client.c **** 			return NULL;
 511              		.loc 1 233 11
 512 0028 8144     		li	s1,0
 513 002a 01A8     		j	.L21
 514              	.LVL51:
 515              	.L24:
 516              	.LBE49:
 180:C:/Users/stapi/OneDrive/Desktop/GD32VW553/V1_MQTT_OK/GD32VW55X_Wifi_BLE_SDK/GD32VW55x_RELEASE_V1.0.2/MSDK/wpa_supplicant/src/tls\tlsv1_client.c **** 	}
 517              		.loc 1 180 3 is_stmt 1
 180:C:/Users/stapi/OneDrive/Desktop/GD32VW553/V1_MQTT_OK/GD32VW55X_Wifi_BLE_SDK/GD32VW55x_RELEASE_V1.0.2/MSDK/wpa_supplicant/src/tls\tlsv1_client.c **** 	}
 518              		.loc 1 180 10 is_stmt 0
 519 002c D685     		mv	a1,s5
 520 002e 2285     		mv	a0,s0
 521 0030 97000000 		call	tls_send_client_hello
 521      E7800000 
 522              	.LVL52:
 523 0038 AA84     		mv	s1,a0
 524              	.LVL53:
 525              	.L21:
 234:C:/Users/stapi/OneDrive/Desktop/GD32VW553/V1_MQTT_OK/GD32VW55X_Wifi_BLE_SDK/GD32VW55x_RELEASE_V1.0.2/MSDK/wpa_supplicant/src/tls\tlsv1_client.c **** 		}
 235:C:/Users/stapi/OneDrive/Desktop/GD32VW553/V1_MQTT_OK/GD32VW55X_Wifi_BLE_SDK/GD32VW55x_RELEASE_V1.0.2/MSDK/wpa_supplicant/src/tls\tlsv1_client.c **** 		ct = pos[0];
 236:C:/Users/stapi/OneDrive/Desktop/GD32VW553/V1_MQTT_OK/GD32VW55X_Wifi_BLE_SDK/GD32VW55x_RELEASE_V1.0.2/MSDK/wpa_supplicant/src/tls\tlsv1_client.c **** 
 237:C:/Users/stapi/OneDrive/Desktop/GD32VW553/V1_MQTT_OK/GD32VW55X_Wifi_BLE_SDK/GD32VW55x_RELEASE_V1.0.2/MSDK/wpa_supplicant/src/tls\tlsv1_client.c **** 		in_pos = in_msg;
 238:C:/Users/stapi/OneDrive/Desktop/GD32VW553/V1_MQTT_OK/GD32VW55X_Wifi_BLE_SDK/GD32VW55x_RELEASE_V1.0.2/MSDK/wpa_supplicant/src/tls\tlsv1_client.c **** 		in_end = in_msg + in_msg_len;
 239:C:/Users/stapi/OneDrive/Desktop/GD32VW553/V1_MQTT_OK/GD32VW55X_Wifi_BLE_SDK/GD32VW55x_RELEASE_V1.0.2/MSDK/wpa_supplicant/src/tls\tlsv1_client.c **** 
 240:C:/Users/stapi/OneDrive/Desktop/GD32VW553/V1_MQTT_OK/GD32VW55X_Wifi_BLE_SDK/GD32VW55x_RELEASE_V1.0.2/MSDK/wpa_supplicant/src/tls\tlsv1_client.c **** 		/* Each received record may include multiple messages of the
 241:C:/Users/stapi/OneDrive/Desktop/GD32VW553/V1_MQTT_OK/GD32VW55X_Wifi_BLE_SDK/GD32VW55x_RELEASE_V1.0.2/MSDK/wpa_supplicant/src/tls\tlsv1_client.c **** 		 * same ContentType. */
 242:C:/Users/stapi/OneDrive/Desktop/GD32VW553/V1_MQTT_OK/GD32VW55X_Wifi_BLE_SDK/GD32VW55x_RELEASE_V1.0.2/MSDK/wpa_supplicant/src/tls\tlsv1_client.c **** 		while (in_pos < in_end) {
 243:C:/Users/stapi/OneDrive/Desktop/GD32VW553/V1_MQTT_OK/GD32VW55X_Wifi_BLE_SDK/GD32VW55x_RELEASE_V1.0.2/MSDK/wpa_supplicant/src/tls\tlsv1_client.c **** 			in_msg_len = in_end - in_pos;
 244:C:/Users/stapi/OneDrive/Desktop/GD32VW553/V1_MQTT_OK/GD32VW55X_Wifi_BLE_SDK/GD32VW55x_RELEASE_V1.0.2/MSDK/wpa_supplicant/src/tls\tlsv1_client.c **** 			if (tlsv1_client_process_handshake(conn, ct, in_pos,
 245:C:/Users/stapi/OneDrive/Desktop/GD32VW553/V1_MQTT_OK/GD32VW55X_Wifi_BLE_SDK/GD32VW55x_RELEASE_V1.0.2/MSDK/wpa_supplicant/src/tls\tlsv1_client.c **** 							   &in_msg_len,
 246:C:/Users/stapi/OneDrive/Desktop/GD32VW553/V1_MQTT_OK/GD32VW55X_Wifi_BLE_SDK/GD32VW55x_RELEASE_V1.0.2/MSDK/wpa_supplicant/src/tls\tlsv1_client.c **** 							   appl_data,
 247:C:/Users/stapi/OneDrive/Desktop/GD32VW553/V1_MQTT_OK/GD32VW55X_Wifi_BLE_SDK/GD32VW55x_RELEASE_V1.0.2/MSDK/wpa_supplicant/src/tls\tlsv1_client.c **** 							   appl_data_len) < 0)
 248:C:/Users/stapi/OneDrive/Desktop/GD32VW553/V1_MQTT_OK/GD32VW55X_Wifi_BLE_SDK/GD32VW55x_RELEASE_V1.0.2/MSDK/wpa_supplicant/src/tls\tlsv1_client.c **** 				goto failed;
 249:C:/Users/stapi/OneDrive/Desktop/GD32VW553/V1_MQTT_OK/GD32VW55X_Wifi_BLE_SDK/GD32VW55x_RELEASE_V1.0.2/MSDK/wpa_supplicant/src/tls\tlsv1_client.c **** 			in_pos += in_msg_len;
 250:C:/Users/stapi/OneDrive/Desktop/GD32VW553/V1_MQTT_OK/GD32VW55X_Wifi_BLE_SDK/GD32VW55x_RELEASE_V1.0.2/MSDK/wpa_supplicant/src/tls\tlsv1_client.c **** 		}
 251:C:/Users/stapi/OneDrive/Desktop/GD32VW553/V1_MQTT_OK/GD32VW55X_Wifi_BLE_SDK/GD32VW55x_RELEASE_V1.0.2/MSDK/wpa_supplicant/src/tls\tlsv1_client.c **** 
 252:C:/Users/stapi/OneDrive/Desktop/GD32VW553/V1_MQTT_OK/GD32VW55X_Wifi_BLE_SDK/GD32VW55x_RELEASE_V1.0.2/MSDK/wpa_supplicant/src/tls\tlsv1_client.c **** 		pos += used;
 253:C:/Users/stapi/OneDrive/Desktop/GD32VW553/V1_MQTT_OK/GD32VW55X_Wifi_BLE_SDK/GD32VW55x_RELEASE_V1.0.2/MSDK/wpa_supplicant/src/tls\tlsv1_client.c **** 	}
 254:C:/Users/stapi/OneDrive/Desktop/GD32VW553/V1_MQTT_OK/GD32VW55X_Wifi_BLE_SDK/GD32VW55x_RELEASE_V1.0.2/MSDK/wpa_supplicant/src/tls\tlsv1_client.c **** 
 255:C:/Users/stapi/OneDrive/Desktop/GD32VW553/V1_MQTT_OK/GD32VW55X_Wifi_BLE_SDK/GD32VW55x_RELEASE_V1.0.2/MSDK/wpa_supplicant/src/tls\tlsv1_client.c **** 	os_free(in_msg);
 256:C:/Users/stapi/OneDrive/Desktop/GD32VW553/V1_MQTT_OK/GD32VW55X_Wifi_BLE_SDK/GD32VW55x_RELEASE_V1.0.2/MSDK/wpa_supplicant/src/tls\tlsv1_client.c **** 	in_msg = NULL;
 257:C:/Users/stapi/OneDrive/Desktop/GD32VW553/V1_MQTT_OK/GD32VW55X_Wifi_BLE_SDK/GD32VW55x_RELEASE_V1.0.2/MSDK/wpa_supplicant/src/tls\tlsv1_client.c **** 
 258:C:/Users/stapi/OneDrive/Desktop/GD32VW553/V1_MQTT_OK/GD32VW55X_Wifi_BLE_SDK/GD32VW55x_RELEASE_V1.0.2/MSDK/wpa_supplicant/src/tls\tlsv1_client.c **** 	no_appl_data = appl_data == NULL || *appl_data == NULL;
 259:C:/Users/stapi/OneDrive/Desktop/GD32VW553/V1_MQTT_OK/GD32VW55X_Wifi_BLE_SDK/GD32VW55x_RELEASE_V1.0.2/MSDK/wpa_supplicant/src/tls\tlsv1_client.c **** 	msg = tlsv1_client_handshake_write(conn, out_len, no_appl_data);
 260:C:/Users/stapi/OneDrive/Desktop/GD32VW553/V1_MQTT_OK/GD32VW55X_Wifi_BLE_SDK/GD32VW55x_RELEASE_V1.0.2/MSDK/wpa_supplicant/src/tls\tlsv1_client.c **** 
 261:C:/Users/stapi/OneDrive/Desktop/GD32VW553/V1_MQTT_OK/GD32VW55X_Wifi_BLE_SDK/GD32VW55x_RELEASE_V1.0.2/MSDK/wpa_supplicant/src/tls\tlsv1_client.c **** failed:
 262:C:/Users/stapi/OneDrive/Desktop/GD32VW553/V1_MQTT_OK/GD32VW55X_Wifi_BLE_SDK/GD32VW55x_RELEASE_V1.0.2/MSDK/wpa_supplicant/src/tls\tlsv1_client.c **** 	os_free(in_msg);
 263:C:/Users/stapi/OneDrive/Desktop/GD32VW553/V1_MQTT_OK/GD32VW55X_Wifi_BLE_SDK/GD32VW55x_RELEASE_V1.0.2/MSDK/wpa_supplicant/src/tls\tlsv1_client.c **** 	if (conn->alert_level) {
 264:C:/Users/stapi/OneDrive/Desktop/GD32VW553/V1_MQTT_OK/GD32VW55X_Wifi_BLE_SDK/GD32VW55x_RELEASE_V1.0.2/MSDK/wpa_supplicant/src/tls\tlsv1_client.c **** 		wpabuf_free(conn->partial_input);
 265:C:/Users/stapi/OneDrive/Desktop/GD32VW553/V1_MQTT_OK/GD32VW55X_Wifi_BLE_SDK/GD32VW55x_RELEASE_V1.0.2/MSDK/wpa_supplicant/src/tls\tlsv1_client.c **** 		conn->partial_input = NULL;
 266:C:/Users/stapi/OneDrive/Desktop/GD32VW553/V1_MQTT_OK/GD32VW55X_Wifi_BLE_SDK/GD32VW55x_RELEASE_V1.0.2/MSDK/wpa_supplicant/src/tls\tlsv1_client.c **** 		conn->state = FAILED;
 267:C:/Users/stapi/OneDrive/Desktop/GD32VW553/V1_MQTT_OK/GD32VW55X_Wifi_BLE_SDK/GD32VW55x_RELEASE_V1.0.2/MSDK/wpa_supplicant/src/tls\tlsv1_client.c **** 		os_free(msg);
 268:C:/Users/stapi/OneDrive/Desktop/GD32VW553/V1_MQTT_OK/GD32VW55X_Wifi_BLE_SDK/GD32VW55x_RELEASE_V1.0.2/MSDK/wpa_supplicant/src/tls\tlsv1_client.c **** 		msg = tlsv1_client_send_alert(conn, conn->alert_level,
 269:C:/Users/stapi/OneDrive/Desktop/GD32VW553/V1_MQTT_OK/GD32VW55X_Wifi_BLE_SDK/GD32VW55x_RELEASE_V1.0.2/MSDK/wpa_supplicant/src/tls\tlsv1_client.c **** 					      conn->alert_description,
 270:C:/Users/stapi/OneDrive/Desktop/GD32VW553/V1_MQTT_OK/GD32VW55X_Wifi_BLE_SDK/GD32VW55x_RELEASE_V1.0.2/MSDK/wpa_supplicant/src/tls\tlsv1_client.c **** 					      out_len);
 271:C:/Users/stapi/OneDrive/Desktop/GD32VW553/V1_MQTT_OK/GD32VW55X_Wifi_BLE_SDK/GD32VW55x_RELEASE_V1.0.2/MSDK/wpa_supplicant/src/tls\tlsv1_client.c **** 	} else if (msg == NULL) {
 272:C:/Users/stapi/OneDrive/Desktop/GD32VW553/V1_MQTT_OK/GD32VW55X_Wifi_BLE_SDK/GD32VW55x_RELEASE_V1.0.2/MSDK/wpa_supplicant/src/tls\tlsv1_client.c **** 		msg = os_zalloc(1);
 273:C:/Users/stapi/OneDrive/Desktop/GD32VW553/V1_MQTT_OK/GD32VW55X_Wifi_BLE_SDK/GD32VW55x_RELEASE_V1.0.2/MSDK/wpa_supplicant/src/tls\tlsv1_client.c **** 		*out_len = 0;
 274:C:/Users/stapi/OneDrive/Desktop/GD32VW553/V1_MQTT_OK/GD32VW55X_Wifi_BLE_SDK/GD32VW55x_RELEASE_V1.0.2/MSDK/wpa_supplicant/src/tls\tlsv1_client.c **** 	}
 275:C:/Users/stapi/OneDrive/Desktop/GD32VW553/V1_MQTT_OK/GD32VW55X_Wifi_BLE_SDK/GD32VW55x_RELEASE_V1.0.2/MSDK/wpa_supplicant/src/tls\tlsv1_client.c **** 
 276:C:/Users/stapi/OneDrive/Desktop/GD32VW553/V1_MQTT_OK/GD32VW55X_Wifi_BLE_SDK/GD32VW55x_RELEASE_V1.0.2/MSDK/wpa_supplicant/src/tls\tlsv1_client.c **** 	if (need_more_data == NULL || !(*need_more_data)) {
 277:C:/Users/stapi/OneDrive/Desktop/GD32VW553/V1_MQTT_OK/GD32VW55X_Wifi_BLE_SDK/GD32VW55x_RELEASE_V1.0.2/MSDK/wpa_supplicant/src/tls\tlsv1_client.c **** 		wpabuf_free(conn->partial_input);
 278:C:/Users/stapi/OneDrive/Desktop/GD32VW553/V1_MQTT_OK/GD32VW55X_Wifi_BLE_SDK/GD32VW55x_RELEASE_V1.0.2/MSDK/wpa_supplicant/src/tls\tlsv1_client.c **** 		conn->partial_input = NULL;
 279:C:/Users/stapi/OneDrive/Desktop/GD32VW553/V1_MQTT_OK/GD32VW55X_Wifi_BLE_SDK/GD32VW55x_RELEASE_V1.0.2/MSDK/wpa_supplicant/src/tls\tlsv1_client.c **** 	}
 280:C:/Users/stapi/OneDrive/Desktop/GD32VW553/V1_MQTT_OK/GD32VW55X_Wifi_BLE_SDK/GD32VW55x_RELEASE_V1.0.2/MSDK/wpa_supplicant/src/tls\tlsv1_client.c **** 
 281:C:/Users/stapi/OneDrive/Desktop/GD32VW553/V1_MQTT_OK/GD32VW55X_Wifi_BLE_SDK/GD32VW55x_RELEASE_V1.0.2/MSDK/wpa_supplicant/src/tls\tlsv1_client.c **** 	return msg;
 282:C:/Users/stapi/OneDrive/Desktop/GD32VW553/V1_MQTT_OK/GD32VW55X_Wifi_BLE_SDK/GD32VW55x_RELEASE_V1.0.2/MSDK/wpa_supplicant/src/tls\tlsv1_client.c **** }
 526              		.loc 1 282 1
 527 003a 2685     		mv	a0,s1
 528 003c 0561     		addi	sp,sp,32
 529              		.cfi_remember_state
 530              		.cfi_def_cfa_offset 0
 531 003e 17030000 		tail	__riscv_restore_12
 531      67000300 
 532              		.cfi_restore 27
 533              		.cfi_restore 26
 534              		.cfi_restore 25
 535              		.cfi_restore 24
 536              		.cfi_restore 23
 537              		.cfi_restore 22
 538              		.cfi_restore 21
 539              		.cfi_restore 20
 540              		.cfi_restore 19
 541              		.cfi_restore 18
 542              		.cfi_restore 9
 543              		.cfi_restore 8
 544              		.cfi_restore 1
 545              		.cfi_def_cfa_offset -64
 546              	.LVL54:
 547              	.L23:
 548              		.cfi_restore_state
 183:C:/Users/stapi/OneDrive/Desktop/GD32VW553/V1_MQTT_OK/GD32VW55X_Wifi_BLE_SDK/GD32VW55x_RELEASE_V1.0.2/MSDK/wpa_supplicant/src/tls\tlsv1_client.c **** 		if (wpabuf_resize(&conn->partial_input, in_len) < 0) {
 549              		.loc 1 183 2 is_stmt 1
 183:C:/Users/stapi/OneDrive/Desktop/GD32VW553/V1_MQTT_OK/GD32VW55X_Wifi_BLE_SDK/GD32VW55x_RELEASE_V1.0.2/MSDK/wpa_supplicant/src/tls\tlsv1_client.c **** 		if (wpabuf_resize(&conn->partial_input, in_len) < 0) {
 550              		.loc 1 183 5 is_stmt 0
 551 0046 83274421 		lw	a5,532(s0)
 552 004a A9CF     		beq	a5,zero,.L26
 184:C:/Users/stapi/OneDrive/Desktop/GD32VW553/V1_MQTT_OK/GD32VW55X_Wifi_BLE_SDK/GD32VW55x_RELEASE_V1.0.2/MSDK/wpa_supplicant/src/tls\tlsv1_client.c **** 			wpa_printf(MSG_DEBUG, "TLSv1: Failed to allocate "
 553              		.loc 1 184 3 is_stmt 1
 184:C:/Users/stapi/OneDrive/Desktop/GD32VW553/V1_MQTT_OK/GD32VW55X_Wifi_BLE_SDK/GD32VW55x_RELEASE_V1.0.2/MSDK/wpa_supplicant/src/tls\tlsv1_client.c **** 			wpa_printf(MSG_DEBUG, "TLSv1: Failed to allocate "
 554              		.loc 1 184 7 is_stmt 0
 555 004c CE85     		mv	a1,s3
 556 004e 13054421 		addi	a0,s0,532
 557 0052 97000000 		call	wpabuf_resize
 557      E7800000 
 558              	.LVL55:
 184:C:/Users/stapi/OneDrive/Desktop/GD32VW553/V1_MQTT_OK/GD32VW55X_Wifi_BLE_SDK/GD32VW55x_RELEASE_V1.0.2/MSDK/wpa_supplicant/src/tls\tlsv1_client.c **** 			wpa_printf(MSG_DEBUG, "TLSv1: Failed to allocate "
 559              		.loc 1 184 6
 560 005a 63520502 		bge	a0,zero,.L27
 185:C:/Users/stapi/OneDrive/Desktop/GD32VW553/V1_MQTT_OK/GD32VW55X_Wifi_BLE_SDK/GD32VW55x_RELEASE_V1.0.2/MSDK/wpa_supplicant/src/tls\tlsv1_client.c **** 				   "memory for pending record");
 561              		.loc 1 185 4 is_stmt 1
 562 005e B7050000 		lui	a1,%hi(.LC7)
 563 0062 93850500 		addi	a1,a1,%lo(.LC7)
 564 0066 0945     		li	a0,2
 565 0068 97000000 		call	wpa_printf
 565      E7800000 
 566              	.LVL56:
 187:C:/Users/stapi/OneDrive/Desktop/GD32VW553/V1_MQTT_OK/GD32VW55X_Wifi_BLE_SDK/GD32VW55x_RELEASE_V1.0.2/MSDK/wpa_supplicant/src/tls\tlsv1_client.c **** 				  TLS_ALERT_INTERNAL_ERROR);
 567              		.loc 1 187 4
 568              	.LBB52:
 569              	.LBB53:
  27:C:/Users/stapi/OneDrive/Desktop/GD32VW553/V1_MQTT_OK/GD32VW55X_Wifi_BLE_SDK/GD32VW55x_RELEASE_V1.0.2/MSDK/wpa_supplicant/src/tls\tlsv1_client.c **** 	conn->alert_description = description;
 570              		.loc 1 27 2
  28:C:/Users/stapi/OneDrive/Desktop/GD32VW553/V1_MQTT_OK/GD32VW55X_Wifi_BLE_SDK/GD32VW55x_RELEASE_V1.0.2/MSDK/wpa_supplicant/src/tls\tlsv1_client.c **** }
 571              		.loc 1 28 2
  27:C:/Users/stapi/OneDrive/Desktop/GD32VW553/V1_MQTT_OK/GD32VW55X_Wifi_BLE_SDK/GD32VW55x_RELEASE_V1.0.2/MSDK/wpa_supplicant/src/tls\tlsv1_client.c **** 	conn->alert_description = description;
 572              		.loc 1 27 20 is_stmt 0
 573 0070 9567     		li	a5,20480
 574 0072 8907     		addi	a5,a5,2
 575 0074 2318F416 		sh	a5,368(s0)
 576              	.LVL57:
 577              	.LBE53:
 578              	.LBE52:
 189:C:/Users/stapi/OneDrive/Desktop/GD32VW553/V1_MQTT_OK/GD32VW55X_Wifi_BLE_SDK/GD32VW55x_RELEASE_V1.0.2/MSDK/wpa_supplicant/src/tls\tlsv1_client.c **** 		}
 579              		.loc 1 189 4 is_stmt 1
 169:C:/Users/stapi/OneDrive/Desktop/GD32VW553/V1_MQTT_OK/GD32VW55X_Wifi_BLE_SDK/GD32VW55x_RELEASE_V1.0.2/MSDK/wpa_supplicant/src/tls\tlsv1_client.c **** 	size_t in_msg_len;
 580              		.loc 1 169 19 is_stmt 0
 581 0078 0149     		li	s2,0
 582              	.LVL58:
 583              	.L42:
 169:C:/Users/stapi/OneDrive/Desktop/GD32VW553/V1_MQTT_OK/GD32VW55X_Wifi_BLE_SDK/GD32VW55x_RELEASE_V1.0.2/MSDK/wpa_supplicant/src/tls\tlsv1_client.c **** 	size_t in_msg_len;
 584              		.loc 1 169 6
 585 007a 8144     		li	s1,0
 586 007c 11A2     		j	.L28
 587              	.LVL59:
 588              	.L27:
 191:C:/Users/stapi/OneDrive/Desktop/GD32VW553/V1_MQTT_OK/GD32VW55X_Wifi_BLE_SDK/GD32VW55x_RELEASE_V1.0.2/MSDK/wpa_supplicant/src/tls\tlsv1_client.c **** 		in_data = wpabuf_head(conn->partial_input);
 589              		.loc 1 191 3 is_stmt 1
 590              	.LBB54:
 591              	.LBB55:
 592              		.file 3 "..\\..\\..\\..\\wpa_supplicant\\src\\utils/wpabuf.h"
   1:..\..\..\..\wpa_supplicant\src\utils/wpabuf.h **** /*
   2:..\..\..\..\wpa_supplicant\src\utils/wpabuf.h ****  * Dynamic data buffer
   3:..\..\..\..\wpa_supplicant\src\utils/wpabuf.h ****  * Copyright (c) 2007-2012, Jouni Malinen <j@w1.fi>
   4:..\..\..\..\wpa_supplicant\src\utils/wpabuf.h ****  *
   5:..\..\..\..\wpa_supplicant\src\utils/wpabuf.h ****  * This software may be distributed under the terms of the BSD license.
   6:..\..\..\..\wpa_supplicant\src\utils/wpabuf.h ****  * See README for more details.
   7:..\..\..\..\wpa_supplicant\src\utils/wpabuf.h ****  */
   8:..\..\..\..\wpa_supplicant\src\utils/wpabuf.h **** 
   9:..\..\..\..\wpa_supplicant\src\utils/wpabuf.h **** #ifndef WPABUF_H
  10:..\..\..\..\wpa_supplicant\src\utils/wpabuf.h **** #define WPABUF_H
  11:..\..\..\..\wpa_supplicant\src\utils/wpabuf.h **** 
  12:..\..\..\..\wpa_supplicant\src\utils/wpabuf.h **** /* wpabuf::buf is a pointer to external data */
  13:..\..\..\..\wpa_supplicant\src\utils/wpabuf.h **** #define WPABUF_FLAG_EXT_DATA BIT(0)
  14:..\..\..\..\wpa_supplicant\src\utils/wpabuf.h **** 
  15:..\..\..\..\wpa_supplicant\src\utils/wpabuf.h **** /*
  16:..\..\..\..\wpa_supplicant\src\utils/wpabuf.h ****  * Internal data structure for wpabuf. Please do not touch this directly from
  17:..\..\..\..\wpa_supplicant\src\utils/wpabuf.h ****  * elsewhere. This is only defined in header file to allow inline functions
  18:..\..\..\..\wpa_supplicant\src\utils/wpabuf.h ****  * from this file to access data.
  19:..\..\..\..\wpa_supplicant\src\utils/wpabuf.h ****  */
  20:..\..\..\..\wpa_supplicant\src\utils/wpabuf.h **** struct wpabuf {
  21:..\..\..\..\wpa_supplicant\src\utils/wpabuf.h **** 	size_t size; /* total size of the allocated buffer */
  22:..\..\..\..\wpa_supplicant\src\utils/wpabuf.h **** 	size_t used; /* length of data in the buffer */
  23:..\..\..\..\wpa_supplicant\src\utils/wpabuf.h **** 	u8 *buf; /* pointer to the head of the buffer */
  24:..\..\..\..\wpa_supplicant\src\utils/wpabuf.h **** 	unsigned int flags;
  25:..\..\..\..\wpa_supplicant\src\utils/wpabuf.h **** 	/* optionally followed by the allocated buffer */
  26:..\..\..\..\wpa_supplicant\src\utils/wpabuf.h **** };
  27:..\..\..\..\wpa_supplicant\src\utils/wpabuf.h **** 
  28:..\..\..\..\wpa_supplicant\src\utils/wpabuf.h **** 
  29:..\..\..\..\wpa_supplicant\src\utils/wpabuf.h **** int wpabuf_resize(struct wpabuf **buf, size_t add_len);
  30:..\..\..\..\wpa_supplicant\src\utils/wpabuf.h **** struct wpabuf * wpabuf_alloc(size_t len);
  31:..\..\..\..\wpa_supplicant\src\utils/wpabuf.h **** struct wpabuf * wpabuf_alloc_ext_data(u8 *data, size_t len);
  32:..\..\..\..\wpa_supplicant\src\utils/wpabuf.h **** struct wpabuf * wpabuf_alloc_copy(const void *data, size_t len);
  33:..\..\..\..\wpa_supplicant\src\utils/wpabuf.h **** struct wpabuf * wpabuf_dup(const struct wpabuf *src);
  34:..\..\..\..\wpa_supplicant\src\utils/wpabuf.h **** void wpabuf_free(struct wpabuf *buf);
  35:..\..\..\..\wpa_supplicant\src\utils/wpabuf.h **** void wpabuf_clear_free(struct wpabuf *buf);
  36:..\..\..\..\wpa_supplicant\src\utils/wpabuf.h **** void * wpabuf_put(struct wpabuf *buf, size_t len);
  37:..\..\..\..\wpa_supplicant\src\utils/wpabuf.h **** struct wpabuf * wpabuf_concat(struct wpabuf *a, struct wpabuf *b);
  38:..\..\..\..\wpa_supplicant\src\utils/wpabuf.h **** struct wpabuf * wpabuf_zeropad(struct wpabuf *buf, size_t len);
  39:..\..\..\..\wpa_supplicant\src\utils/wpabuf.h **** void wpabuf_printf(struct wpabuf *buf, char *fmt, ...) PRINTF_FORMAT(2, 3);
  40:..\..\..\..\wpa_supplicant\src\utils/wpabuf.h **** struct wpabuf * wpabuf_parse_bin(const char *buf);
  41:..\..\..\..\wpa_supplicant\src\utils/wpabuf.h **** 
  42:..\..\..\..\wpa_supplicant\src\utils/wpabuf.h **** 
  43:..\..\..\..\wpa_supplicant\src\utils/wpabuf.h **** /**
  44:..\..\..\..\wpa_supplicant\src\utils/wpabuf.h ****  * wpabuf_size - Get the currently allocated size of a wpabuf buffer
  45:..\..\..\..\wpa_supplicant\src\utils/wpabuf.h ****  * @buf: wpabuf buffer
  46:..\..\..\..\wpa_supplicant\src\utils/wpabuf.h ****  * Returns: Currently allocated size of the buffer
  47:..\..\..\..\wpa_supplicant\src\utils/wpabuf.h ****  */
  48:..\..\..\..\wpa_supplicant\src\utils/wpabuf.h **** static inline size_t wpabuf_size(const struct wpabuf *buf)
  49:..\..\..\..\wpa_supplicant\src\utils/wpabuf.h **** {
  50:..\..\..\..\wpa_supplicant\src\utils/wpabuf.h **** 	return buf->size;
  51:..\..\..\..\wpa_supplicant\src\utils/wpabuf.h **** }
  52:..\..\..\..\wpa_supplicant\src\utils/wpabuf.h **** 
  53:..\..\..\..\wpa_supplicant\src\utils/wpabuf.h **** /**
  54:..\..\..\..\wpa_supplicant\src\utils/wpabuf.h ****  * wpabuf_len - Get the current length of a wpabuf buffer data
  55:..\..\..\..\wpa_supplicant\src\utils/wpabuf.h ****  * @buf: wpabuf buffer
  56:..\..\..\..\wpa_supplicant\src\utils/wpabuf.h ****  * Returns: Currently used length of the buffer
  57:..\..\..\..\wpa_supplicant\src\utils/wpabuf.h ****  */
  58:..\..\..\..\wpa_supplicant\src\utils/wpabuf.h **** static inline size_t wpabuf_len(const struct wpabuf *buf)
  59:..\..\..\..\wpa_supplicant\src\utils/wpabuf.h **** {
  60:..\..\..\..\wpa_supplicant\src\utils/wpabuf.h **** 	return buf->used;
  61:..\..\..\..\wpa_supplicant\src\utils/wpabuf.h **** }
  62:..\..\..\..\wpa_supplicant\src\utils/wpabuf.h **** 
  63:..\..\..\..\wpa_supplicant\src\utils/wpabuf.h **** /**
  64:..\..\..\..\wpa_supplicant\src\utils/wpabuf.h ****  * wpabuf_tailroom - Get size of available tail room in the end of the buffer
  65:..\..\..\..\wpa_supplicant\src\utils/wpabuf.h ****  * @buf: wpabuf buffer
  66:..\..\..\..\wpa_supplicant\src\utils/wpabuf.h ****  * Returns: Tail room (in bytes) of available space in the end of the buffer
  67:..\..\..\..\wpa_supplicant\src\utils/wpabuf.h ****  */
  68:..\..\..\..\wpa_supplicant\src\utils/wpabuf.h **** static inline size_t wpabuf_tailroom(const struct wpabuf *buf)
  69:..\..\..\..\wpa_supplicant\src\utils/wpabuf.h **** {
  70:..\..\..\..\wpa_supplicant\src\utils/wpabuf.h **** 	return buf->size - buf->used;
  71:..\..\..\..\wpa_supplicant\src\utils/wpabuf.h **** }
  72:..\..\..\..\wpa_supplicant\src\utils/wpabuf.h **** 
  73:..\..\..\..\wpa_supplicant\src\utils/wpabuf.h **** /**
  74:..\..\..\..\wpa_supplicant\src\utils/wpabuf.h ****  * wpabuf_cmp - Check if two buffers contain the same data
  75:..\..\..\..\wpa_supplicant\src\utils/wpabuf.h ****  * @a: wpabuf buffer
  76:..\..\..\..\wpa_supplicant\src\utils/wpabuf.h ****  * @b: wpabuf buffer
  77:..\..\..\..\wpa_supplicant\src\utils/wpabuf.h ****  * Returns: 0 if the two buffers contain the same data and non-zero otherwise
  78:..\..\..\..\wpa_supplicant\src\utils/wpabuf.h ****  */
  79:..\..\..\..\wpa_supplicant\src\utils/wpabuf.h **** static inline int wpabuf_cmp(const struct wpabuf *a, const struct wpabuf *b)
  80:..\..\..\..\wpa_supplicant\src\utils/wpabuf.h **** {
  81:..\..\..\..\wpa_supplicant\src\utils/wpabuf.h **** 	if (!a && !b)
  82:..\..\..\..\wpa_supplicant\src\utils/wpabuf.h **** 		return 0;
  83:..\..\..\..\wpa_supplicant\src\utils/wpabuf.h **** 	if (a && b && wpabuf_size(a) == wpabuf_size(b))
  84:..\..\..\..\wpa_supplicant\src\utils/wpabuf.h **** 		return os_memcmp(a->buf, b->buf, wpabuf_size(a));
  85:..\..\..\..\wpa_supplicant\src\utils/wpabuf.h **** 	return -1;
  86:..\..\..\..\wpa_supplicant\src\utils/wpabuf.h **** }
  87:..\..\..\..\wpa_supplicant\src\utils/wpabuf.h **** 
  88:..\..\..\..\wpa_supplicant\src\utils/wpabuf.h **** /**
  89:..\..\..\..\wpa_supplicant\src\utils/wpabuf.h ****  * wpabuf_head - Get pointer to the head of the buffer data
  90:..\..\..\..\wpa_supplicant\src\utils/wpabuf.h ****  * @buf: wpabuf buffer
  91:..\..\..\..\wpa_supplicant\src\utils/wpabuf.h ****  * Returns: Pointer to the head of the buffer data
  92:..\..\..\..\wpa_supplicant\src\utils/wpabuf.h ****  */
  93:..\..\..\..\wpa_supplicant\src\utils/wpabuf.h **** static inline const void * wpabuf_head(const struct wpabuf *buf)
  94:..\..\..\..\wpa_supplicant\src\utils/wpabuf.h **** {
  95:..\..\..\..\wpa_supplicant\src\utils/wpabuf.h **** 	return buf->buf;
  96:..\..\..\..\wpa_supplicant\src\utils/wpabuf.h **** }
  97:..\..\..\..\wpa_supplicant\src\utils/wpabuf.h **** 
  98:..\..\..\..\wpa_supplicant\src\utils/wpabuf.h **** static inline const u8 * wpabuf_head_u8(const struct wpabuf *buf)
  99:..\..\..\..\wpa_supplicant\src\utils/wpabuf.h **** {
 100:..\..\..\..\wpa_supplicant\src\utils/wpabuf.h **** 	return (const u8 *) wpabuf_head(buf);
 101:..\..\..\..\wpa_supplicant\src\utils/wpabuf.h **** }
 102:..\..\..\..\wpa_supplicant\src\utils/wpabuf.h **** 
 103:..\..\..\..\wpa_supplicant\src\utils/wpabuf.h **** /**
 104:..\..\..\..\wpa_supplicant\src\utils/wpabuf.h ****  * wpabuf_mhead - Get modifiable pointer to the head of the buffer data
 105:..\..\..\..\wpa_supplicant\src\utils/wpabuf.h ****  * @buf: wpabuf buffer
 106:..\..\..\..\wpa_supplicant\src\utils/wpabuf.h ****  * Returns: Pointer to the head of the buffer data
 107:..\..\..\..\wpa_supplicant\src\utils/wpabuf.h ****  */
 108:..\..\..\..\wpa_supplicant\src\utils/wpabuf.h **** static inline void * wpabuf_mhead(struct wpabuf *buf)
 109:..\..\..\..\wpa_supplicant\src\utils/wpabuf.h **** {
 110:..\..\..\..\wpa_supplicant\src\utils/wpabuf.h **** 	return buf->buf;
 111:..\..\..\..\wpa_supplicant\src\utils/wpabuf.h **** }
 112:..\..\..\..\wpa_supplicant\src\utils/wpabuf.h **** 
 113:..\..\..\..\wpa_supplicant\src\utils/wpabuf.h **** static inline u8 * wpabuf_mhead_u8(struct wpabuf *buf)
 114:..\..\..\..\wpa_supplicant\src\utils/wpabuf.h **** {
 115:..\..\..\..\wpa_supplicant\src\utils/wpabuf.h **** 	return (u8 *) wpabuf_mhead(buf);
 116:..\..\..\..\wpa_supplicant\src\utils/wpabuf.h **** }
 117:..\..\..\..\wpa_supplicant\src\utils/wpabuf.h **** 
 118:..\..\..\..\wpa_supplicant\src\utils/wpabuf.h **** static inline void wpabuf_put_u8(struct wpabuf *buf, u8 data)
 119:..\..\..\..\wpa_supplicant\src\utils/wpabuf.h **** {
 120:..\..\..\..\wpa_supplicant\src\utils/wpabuf.h **** 	u8 *pos = (u8 *) wpabuf_put(buf, 1);
 121:..\..\..\..\wpa_supplicant\src\utils/wpabuf.h **** 	*pos = data;
 122:..\..\..\..\wpa_supplicant\src\utils/wpabuf.h **** }
 123:..\..\..\..\wpa_supplicant\src\utils/wpabuf.h **** 
 124:..\..\..\..\wpa_supplicant\src\utils/wpabuf.h **** static inline void wpabuf_put_le16(struct wpabuf *buf, u16 data)
 125:..\..\..\..\wpa_supplicant\src\utils/wpabuf.h **** {
 126:..\..\..\..\wpa_supplicant\src\utils/wpabuf.h **** 	u8 *pos = (u8 *) wpabuf_put(buf, 2);
 127:..\..\..\..\wpa_supplicant\src\utils/wpabuf.h **** 	WPA_PUT_LE16(pos, data);
 128:..\..\..\..\wpa_supplicant\src\utils/wpabuf.h **** }
 129:..\..\..\..\wpa_supplicant\src\utils/wpabuf.h **** 
 130:..\..\..\..\wpa_supplicant\src\utils/wpabuf.h **** static inline void wpabuf_put_le32(struct wpabuf *buf, u32 data)
 131:..\..\..\..\wpa_supplicant\src\utils/wpabuf.h **** {
 132:..\..\..\..\wpa_supplicant\src\utils/wpabuf.h **** 	u8 *pos = (u8 *) wpabuf_put(buf, 4);
 133:..\..\..\..\wpa_supplicant\src\utils/wpabuf.h **** 	WPA_PUT_LE32(pos, data);
 134:..\..\..\..\wpa_supplicant\src\utils/wpabuf.h **** }
 135:..\..\..\..\wpa_supplicant\src\utils/wpabuf.h **** 
 136:..\..\..\..\wpa_supplicant\src\utils/wpabuf.h **** static inline void wpabuf_put_le64(struct wpabuf *buf, u64 data)
 137:..\..\..\..\wpa_supplicant\src\utils/wpabuf.h **** {
 138:..\..\..\..\wpa_supplicant\src\utils/wpabuf.h **** 	u8 *pos = (u8 *) wpabuf_put(buf, 8);
 139:..\..\..\..\wpa_supplicant\src\utils/wpabuf.h **** 	WPA_PUT_LE64(pos, data);
 140:..\..\..\..\wpa_supplicant\src\utils/wpabuf.h **** }
 141:..\..\..\..\wpa_supplicant\src\utils/wpabuf.h **** 
 142:..\..\..\..\wpa_supplicant\src\utils/wpabuf.h **** static inline void wpabuf_put_be16(struct wpabuf *buf, u16 data)
 143:..\..\..\..\wpa_supplicant\src\utils/wpabuf.h **** {
 144:..\..\..\..\wpa_supplicant\src\utils/wpabuf.h **** 	u8 *pos = (u8 *) wpabuf_put(buf, 2);
 145:..\..\..\..\wpa_supplicant\src\utils/wpabuf.h **** 	WPA_PUT_BE16(pos, data);
 146:..\..\..\..\wpa_supplicant\src\utils/wpabuf.h **** }
 147:..\..\..\..\wpa_supplicant\src\utils/wpabuf.h **** 
 148:..\..\..\..\wpa_supplicant\src\utils/wpabuf.h **** static inline void wpabuf_put_be24(struct wpabuf *buf, u32 data)
 149:..\..\..\..\wpa_supplicant\src\utils/wpabuf.h **** {
 150:..\..\..\..\wpa_supplicant\src\utils/wpabuf.h **** 	u8 *pos = (u8 *) wpabuf_put(buf, 3);
 151:..\..\..\..\wpa_supplicant\src\utils/wpabuf.h **** 	WPA_PUT_BE24(pos, data);
 152:..\..\..\..\wpa_supplicant\src\utils/wpabuf.h **** }
 153:..\..\..\..\wpa_supplicant\src\utils/wpabuf.h **** 
 154:..\..\..\..\wpa_supplicant\src\utils/wpabuf.h **** static inline void wpabuf_put_be32(struct wpabuf *buf, u32 data)
 155:..\..\..\..\wpa_supplicant\src\utils/wpabuf.h **** {
 156:..\..\..\..\wpa_supplicant\src\utils/wpabuf.h **** 	u8 *pos = (u8 *) wpabuf_put(buf, 4);
 157:..\..\..\..\wpa_supplicant\src\utils/wpabuf.h **** 	WPA_PUT_BE32(pos, data);
 158:..\..\..\..\wpa_supplicant\src\utils/wpabuf.h **** }
 159:..\..\..\..\wpa_supplicant\src\utils/wpabuf.h **** 
 160:..\..\..\..\wpa_supplicant\src\utils/wpabuf.h **** static inline void wpabuf_put_be64(struct wpabuf *buf, u64 data)
 161:..\..\..\..\wpa_supplicant\src\utils/wpabuf.h **** {
 162:..\..\..\..\wpa_supplicant\src\utils/wpabuf.h **** 	u8 *pos = (u8 *) wpabuf_put(buf, 8);
 163:..\..\..\..\wpa_supplicant\src\utils/wpabuf.h **** 	WPA_PUT_BE64(pos, data);
 164:..\..\..\..\wpa_supplicant\src\utils/wpabuf.h **** }
 165:..\..\..\..\wpa_supplicant\src\utils/wpabuf.h **** 
 166:..\..\..\..\wpa_supplicant\src\utils/wpabuf.h **** static inline void wpabuf_put_data(struct wpabuf *buf, const void *data,
 167:..\..\..\..\wpa_supplicant\src\utils/wpabuf.h **** 				   size_t len)
 168:..\..\..\..\wpa_supplicant\src\utils/wpabuf.h **** {
 169:..\..\..\..\wpa_supplicant\src\utils/wpabuf.h **** 	if (data)
 593              		.loc 3 169 2
 594              		.loc 3 169 5 is_stmt 0
 595 007e 91CC     		beq	s1,zero,.L29
 596              	.LVL60:
 597              	.LBB56:
 598              	.LBB57:
 170:..\..\..\..\wpa_supplicant\src\utils/wpabuf.h **** 		os_memcpy(wpabuf_put(buf, len), data, len);
 599              		.loc 3 170 3 is_stmt 1
 600 0080 03254421 		lw	a0,532(s0)
 601 0084 CE85     		mv	a1,s3
 602 0086 97000000 		call	wpabuf_put
 602      E7800000 
 603              	.LVL61:
 604 008e 4E86     		mv	a2,s3
 605 0090 A685     		mv	a1,s1
 606 0092 97000000 		call	os_memcpy
 606      E7800000 
 607              	.LVL62:
 608              	.L29:
 609              	.LBE57:
 610              	.LBE56:
 611              	.LBE55:
 612              	.LBE54:
 192:C:/Users/stapi/OneDrive/Desktop/GD32VW553/V1_MQTT_OK/GD32VW55X_Wifi_BLE_SDK/GD32VW55x_RELEASE_V1.0.2/MSDK/wpa_supplicant/src/tls\tlsv1_client.c **** 		in_len = wpabuf_len(conn->partial_input);
 613              		.loc 1 192 3
 192:C:/Users/stapi/OneDrive/Desktop/GD32VW553/V1_MQTT_OK/GD32VW55X_Wifi_BLE_SDK/GD32VW55x_RELEASE_V1.0.2/MSDK/wpa_supplicant/src/tls\tlsv1_client.c **** 		in_len = wpabuf_len(conn->partial_input);
 614              		.loc 1 192 29 is_stmt 0
 615 009a 83274421 		lw	a5,532(s0)
 616              	.LVL63:
 617              	.LBB58:
 618              	.LBB59:
  95:..\..\..\..\wpa_supplicant\src\utils/wpabuf.h **** }
 619              		.loc 3 95 2 is_stmt 1
  95:..\..\..\..\wpa_supplicant\src\utils/wpabuf.h **** }
 620              		.loc 3 95 12 is_stmt 0
 621 009e 8447     		lw	s1,8(a5)
 622              	.LVL64:
 623              	.LBE59:
 624              	.LBE58:
 193:C:/Users/stapi/OneDrive/Desktop/GD32VW553/V1_MQTT_OK/GD32VW55X_Wifi_BLE_SDK/GD32VW55x_RELEASE_V1.0.2/MSDK/wpa_supplicant/src/tls\tlsv1_client.c **** 	}
 625              		.loc 1 193 3 is_stmt 1
 626              	.LBB60:
 627              	.LBB61:
  60:..\..\..\..\wpa_supplicant\src\utils/wpabuf.h **** }
 628              		.loc 3 60 2
  60:..\..\..\..\wpa_supplicant\src\utils/wpabuf.h **** }
 629              		.loc 3 60 12 is_stmt 0
 630 00a0 83A94700 		lw	s3,4(a5)
 631              	.LVL65:
 632              	.L26:
 633              	.LBE61:
 634              	.LBE60:
 196:C:/Users/stapi/OneDrive/Desktop/GD32VW553/V1_MQTT_OK/GD32VW55X_Wifi_BLE_SDK/GD32VW55x_RELEASE_V1.0.2/MSDK/wpa_supplicant/src/tls\tlsv1_client.c **** 		return NULL;
 635              		.loc 1 196 2 is_stmt 1
 196:C:/Users/stapi/OneDrive/Desktop/GD32VW553/V1_MQTT_OK/GD32VW55X_Wifi_BLE_SDK/GD32VW55x_RELEASE_V1.0.2/MSDK/wpa_supplicant/src/tls\tlsv1_client.c **** 		return NULL;
 636              		.loc 1 196 5 is_stmt 0
 637 00a4 D1D0     		beq	s1,zero,.L69
 196:C:/Users/stapi/OneDrive/Desktop/GD32VW553/V1_MQTT_OK/GD32VW55X_Wifi_BLE_SDK/GD32VW55x_RELEASE_V1.0.2/MSDK/wpa_supplicant/src/tls\tlsv1_client.c **** 		return NULL;
 638              		.loc 1 196 22 discriminator 1
 639 00a6 E38109F8 		beq	s3,zero,.L69
 199:C:/Users/stapi/OneDrive/Desktop/GD32VW553/V1_MQTT_OK/GD32VW55X_Wifi_BLE_SDK/GD32VW55x_RELEASE_V1.0.2/MSDK/wpa_supplicant/src/tls\tlsv1_client.c **** 	end = in_data + in_len;
 640              		.loc 1 199 2 is_stmt 1
 641              	.LVL66:
 200:C:/Users/stapi/OneDrive/Desktop/GD32VW553/V1_MQTT_OK/GD32VW55X_Wifi_BLE_SDK/GD32VW55x_RELEASE_V1.0.2/MSDK/wpa_supplicant/src/tls\tlsv1_client.c **** 	in_msg = os_malloc(in_len);
 642              		.loc 1 200 2
 201:C:/Users/stapi/OneDrive/Desktop/GD32VW553/V1_MQTT_OK/GD32VW55X_Wifi_BLE_SDK/GD32VW55x_RELEASE_V1.0.2/MSDK/wpa_supplicant/src/tls\tlsv1_client.c **** 	if (in_msg == NULL)
 643              		.loc 1 201 11 is_stmt 0
 644 00aa 4E85     		mv	a0,s3
 645 00ac 97000000 		call	os_malloc
 645      E7800000 
 646              	.LVL67:
 200:C:/Users/stapi/OneDrive/Desktop/GD32VW553/V1_MQTT_OK/GD32VW55X_Wifi_BLE_SDK/GD32VW55x_RELEASE_V1.0.2/MSDK/wpa_supplicant/src/tls\tlsv1_client.c **** 	in_msg = os_malloc(in_len);
 647              		.loc 1 200 6
 648 00b4 B38C3401 		add	s9,s1,s3
 649              	.LVL68:
 201:C:/Users/stapi/OneDrive/Desktop/GD32VW553/V1_MQTT_OK/GD32VW55X_Wifi_BLE_SDK/GD32VW55x_RELEASE_V1.0.2/MSDK/wpa_supplicant/src/tls\tlsv1_client.c **** 	if (in_msg == NULL)
 650              		.loc 1 201 2 is_stmt 1
 201:C:/Users/stapi/OneDrive/Desktop/GD32VW553/V1_MQTT_OK/GD32VW55X_Wifi_BLE_SDK/GD32VW55x_RELEASE_V1.0.2/MSDK/wpa_supplicant/src/tls\tlsv1_client.c **** 	if (in_msg == NULL)
 651              		.loc 1 201 11 is_stmt 0
 652 00b8 2A89     		mv	s2,a0
 653              	.LVL69:
 202:C:/Users/stapi/OneDrive/Desktop/GD32VW553/V1_MQTT_OK/GD32VW55X_Wifi_BLE_SDK/GD32VW55x_RELEASE_V1.0.2/MSDK/wpa_supplicant/src/tls\tlsv1_client.c **** 		return NULL;
 654              		.loc 1 202 2 is_stmt 1
 202:C:/Users/stapi/OneDrive/Desktop/GD32VW553/V1_MQTT_OK/GD32VW55X_Wifi_BLE_SDK/GD32VW55x_RELEASE_V1.0.2/MSDK/wpa_supplicant/src/tls\tlsv1_client.c **** 		return NULL;
 655              		.loc 1 202 5 is_stmt 0
 656 00ba 3DD5     		beq	a0,zero,.L69
 208:C:/Users/stapi/OneDrive/Desktop/GD32VW553/V1_MQTT_OK/GD32VW55X_Wifi_BLE_SDK/GD32VW55x_RELEASE_V1.0.2/MSDK/wpa_supplicant/src/tls\tlsv1_client.c **** 					    in_msg, &in_msg_len, &alert);
 657              		.loc 1 208 10
 658 00bc 130D4400 		addi	s10,s0,4
 659              	.LVL70:
 660              	.L31:
 206:C:/Users/stapi/OneDrive/Desktop/GD32VW553/V1_MQTT_OK/GD32VW55X_Wifi_BLE_SDK/GD32VW55x_RELEASE_V1.0.2/MSDK/wpa_supplicant/src/tls\tlsv1_client.c **** 		in_msg_len = in_len;
 661              		.loc 1 206 8 is_stmt 1
 662 00c0 63E79403 		bltu	s1,s9,.L37
 255:C:/Users/stapi/OneDrive/Desktop/GD32VW553/V1_MQTT_OK/GD32VW55X_Wifi_BLE_SDK/GD32VW55x_RELEASE_V1.0.2/MSDK/wpa_supplicant/src/tls\tlsv1_client.c **** 	in_msg = NULL;
 663              		.loc 1 255 2
 664 00c4 4A85     		mv	a0,s2
 665 00c6 97000000 		call	os_free
 665      E7800000 
 666              	.LVL71:
 256:C:/Users/stapi/OneDrive/Desktop/GD32VW553/V1_MQTT_OK/GD32VW55X_Wifi_BLE_SDK/GD32VW55x_RELEASE_V1.0.2/MSDK/wpa_supplicant/src/tls\tlsv1_client.c **** 
 667              		.loc 1 256 2
 258:C:/Users/stapi/OneDrive/Desktop/GD32VW553/V1_MQTT_OK/GD32VW55X_Wifi_BLE_SDK/GD32VW55x_RELEASE_V1.0.2/MSDK/wpa_supplicant/src/tls\tlsv1_client.c **** 	msg = tlsv1_client_handshake_write(conn, out_len, no_appl_data);
 668              		.loc 1 258 2
 258:C:/Users/stapi/OneDrive/Desktop/GD32VW553/V1_MQTT_OK/GD32VW55X_Wifi_BLE_SDK/GD32VW55x_RELEASE_V1.0.2/MSDK/wpa_supplicant/src/tls\tlsv1_client.c **** 	msg = tlsv1_client_handshake_write(conn, out_len, no_appl_data);
 669              		.loc 1 258 35 is_stmt 0
 670 00ce 0546     		li	a2,1
 671 00d0 63060B00 		beq	s6,zero,.L38
 258:C:/Users/stapi/OneDrive/Desktop/GD32VW553/V1_MQTT_OK/GD32VW55X_Wifi_BLE_SDK/GD32VW55x_RELEASE_V1.0.2/MSDK/wpa_supplicant/src/tls\tlsv1_client.c **** 	msg = tlsv1_client_handshake_write(conn, out_len, no_appl_data);
 672              		.loc 1 258 35 discriminator 2
 673 00d4 03260B00 		lw	a2,0(s6)
 674 00d8 13361600 		seqz	a2,a2
 675              	.L38:
 676              	.LVL72:
 259:C:/Users/stapi/OneDrive/Desktop/GD32VW553/V1_MQTT_OK/GD32VW55X_Wifi_BLE_SDK/GD32VW55x_RELEASE_V1.0.2/MSDK/wpa_supplicant/src/tls\tlsv1_client.c **** 
 677              		.loc 1 259 2 is_stmt 1 discriminator 6
 259:C:/Users/stapi/OneDrive/Desktop/GD32VW553/V1_MQTT_OK/GD32VW55X_Wifi_BLE_SDK/GD32VW55x_RELEASE_V1.0.2/MSDK/wpa_supplicant/src/tls\tlsv1_client.c **** 
 678              		.loc 1 259 8 is_stmt 0 discriminator 6
 679 00dc D685     		mv	a1,s5
 680 00de 2285     		mv	a0,s0
 681 00e0 97000000 		call	tlsv1_client_handshake_write
 681      E7800000 
 682              	.LVL73:
 683 00e8 AA84     		mv	s1,a0
 684              	.LVL74:
 256:C:/Users/stapi/OneDrive/Desktop/GD32VW553/V1_MQTT_OK/GD32VW55X_Wifi_BLE_SDK/GD32VW55x_RELEASE_V1.0.2/MSDK/wpa_supplicant/src/tls\tlsv1_client.c **** 
 685              		.loc 1 256 9 discriminator 6
 686 00ea 0149     		li	s2,0
 687 00ec 51A8     		j	.L28
 688              	.LVL75:
 689              	.L37:
 207:C:/Users/stapi/OneDrive/Desktop/GD32VW553/V1_MQTT_OK/GD32VW55X_Wifi_BLE_SDK/GD32VW55x_RELEASE_V1.0.2/MSDK/wpa_supplicant/src/tls\tlsv1_client.c **** 		used = tlsv1_record_receive(&conn->rl, pos, end - pos,
 690              		.loc 1 207 3 is_stmt 1
 208:C:/Users/stapi/OneDrive/Desktop/GD32VW553/V1_MQTT_OK/GD32VW55X_Wifi_BLE_SDK/GD32VW55x_RELEASE_V1.0.2/MSDK/wpa_supplicant/src/tls\tlsv1_client.c **** 					    in_msg, &in_msg_len, &alert);
 691              		.loc 1 208 51 is_stmt 0
 692 00ee B38D9C40 		sub	s11,s9,s1
 208:C:/Users/stapi/OneDrive/Desktop/GD32VW553/V1_MQTT_OK/GD32VW55X_Wifi_BLE_SDK/GD32VW55x_RELEASE_V1.0.2/MSDK/wpa_supplicant/src/tls\tlsv1_client.c **** 					    in_msg, &in_msg_len, &alert);
 693              		.loc 1 208 10
 694 00f2 9307B101 		addi	a5,sp,27
 695 00f6 7808     		addi	a4,sp,28
 696 00f8 CA86     		mv	a3,s2
 697 00fa 6E86     		mv	a2,s11
 698 00fc A685     		mv	a1,s1
 699 00fe 6A85     		mv	a0,s10
 207:C:/Users/stapi/OneDrive/Desktop/GD32VW553/V1_MQTT_OK/GD32VW55X_Wifi_BLE_SDK/GD32VW55x_RELEASE_V1.0.2/MSDK/wpa_supplicant/src/tls\tlsv1_client.c **** 		used = tlsv1_record_receive(&conn->rl, pos, end - pos,
 700              		.loc 1 207 14
 701 0100 4ECE     		sw	s3,28(sp)
 208:C:/Users/stapi/OneDrive/Desktop/GD32VW553/V1_MQTT_OK/GD32VW55X_Wifi_BLE_SDK/GD32VW55x_RELEASE_V1.0.2/MSDK/wpa_supplicant/src/tls\tlsv1_client.c **** 					    in_msg, &in_msg_len, &alert);
 702              		.loc 1 208 3 is_stmt 1
 208:C:/Users/stapi/OneDrive/Desktop/GD32VW553/V1_MQTT_OK/GD32VW55X_Wifi_BLE_SDK/GD32VW55x_RELEASE_V1.0.2/MSDK/wpa_supplicant/src/tls\tlsv1_client.c **** 					    in_msg, &in_msg_len, &alert);
 703              		.loc 1 208 10 is_stmt 0
 704 0102 97000000 		call	tlsv1_record_receive
 704      E7800000 
 705              	.LVL76:
 706 010a AA8B     		mv	s7,a0
 707              	.LVL77:
 210:C:/Users/stapi/OneDrive/Desktop/GD32VW553/V1_MQTT_OK/GD32VW55X_Wifi_BLE_SDK/GD32VW55x_RELEASE_V1.0.2/MSDK/wpa_supplicant/src/tls\tlsv1_client.c **** 			wpa_printf(MSG_DEBUG, "TLSv1: Processing received "
 708              		.loc 1 210 3 is_stmt 1
 210:C:/Users/stapi/OneDrive/Desktop/GD32VW553/V1_MQTT_OK/GD32VW55X_Wifi_BLE_SDK/GD32VW55x_RELEASE_V1.0.2/MSDK/wpa_supplicant/src/tls\tlsv1_client.c **** 			wpa_printf(MSG_DEBUG, "TLSv1: Processing received "
 709              		.loc 1 210 6 is_stmt 0
 710 010c 63530502 		bge	a0,zero,.L32
 211:C:/Users/stapi/OneDrive/Desktop/GD32VW553/V1_MQTT_OK/GD32VW55X_Wifi_BLE_SDK/GD32VW55x_RELEASE_V1.0.2/MSDK/wpa_supplicant/src/tls\tlsv1_client.c **** 				   "record failed");
 711              		.loc 1 211 4 is_stmt 1
 712 0110 B7050000 		lui	a1,%hi(.LC8)
 713 0114 93850500 		addi	a1,a1,%lo(.LC8)
 714 0118 0945     		li	a0,2
 715              	.LVL78:
 716 011a 97000000 		call	wpa_printf
 716      E7800000 
 717              	.LVL79:
 213:C:/Users/stapi/OneDrive/Desktop/GD32VW553/V1_MQTT_OK/GD32VW55X_Wifi_BLE_SDK/GD32VW55x_RELEASE_V1.0.2/MSDK/wpa_supplicant/src/tls\tlsv1_client.c **** 			goto failed;
 718              		.loc 1 213 4
 719 0122 8347B101 		lbu	a5,27(sp)
 720              	.LVL80:
 721              	.LBB62:
 722              	.LBB63:
  27:C:/Users/stapi/OneDrive/Desktop/GD32VW553/V1_MQTT_OK/GD32VW55X_Wifi_BLE_SDK/GD32VW55x_RELEASE_V1.0.2/MSDK/wpa_supplicant/src/tls\tlsv1_client.c **** 	conn->alert_description = description;
 723              		.loc 1 27 2
  27:C:/Users/stapi/OneDrive/Desktop/GD32VW553/V1_MQTT_OK/GD32VW55X_Wifi_BLE_SDK/GD32VW55x_RELEASE_V1.0.2/MSDK/wpa_supplicant/src/tls\tlsv1_client.c **** 	conn->alert_description = description;
 724              		.loc 1 27 20 is_stmt 0
 725 0126 0947     		li	a4,2
 726 0128 2308E416 		sb	a4,368(s0)
  28:C:/Users/stapi/OneDrive/Desktop/GD32VW553/V1_MQTT_OK/GD32VW55X_Wifi_BLE_SDK/GD32VW55x_RELEASE_V1.0.2/MSDK/wpa_supplicant/src/tls\tlsv1_client.c **** }
 727              		.loc 1 28 2 is_stmt 1
  28:C:/Users/stapi/OneDrive/Desktop/GD32VW553/V1_MQTT_OK/GD32VW55X_Wifi_BLE_SDK/GD32VW55x_RELEASE_V1.0.2/MSDK/wpa_supplicant/src/tls\tlsv1_client.c **** }
 728              		.loc 1 28 26 is_stmt 0
 729 012c A308F416 		sb	a5,369(s0)
 730              	.LVL81:
 731              	.LBE63:
 732              	.LBE62:
 214:C:/Users/stapi/OneDrive/Desktop/GD32VW553/V1_MQTT_OK/GD32VW55X_Wifi_BLE_SDK/GD32VW55x_RELEASE_V1.0.2/MSDK/wpa_supplicant/src/tls\tlsv1_client.c **** 		}
 733              		.loc 1 214 4 is_stmt 1
 734 0130 A9B7     		j	.L42
 735              	.LVL82:
 736              	.L32:
 216:C:/Users/stapi/OneDrive/Desktop/GD32VW553/V1_MQTT_OK/GD32VW55X_Wifi_BLE_SDK/GD32VW55x_RELEASE_V1.0.2/MSDK/wpa_supplicant/src/tls\tlsv1_client.c **** 			struct wpabuf *partial;
 737              		.loc 1 216 3
 216:C:/Users/stapi/OneDrive/Desktop/GD32VW553/V1_MQTT_OK/GD32VW55X_Wifi_BLE_SDK/GD32VW55x_RELEASE_V1.0.2/MSDK/wpa_supplicant/src/tls\tlsv1_client.c **** 			struct wpabuf *partial;
 738              		.loc 1 216 6 is_stmt 0
 739 0132 79E1     		bne	a0,zero,.L33
 740              	.LBB64:
 217:C:/Users/stapi/OneDrive/Desktop/GD32VW553/V1_MQTT_OK/GD32VW55X_Wifi_BLE_SDK/GD32VW55x_RELEASE_V1.0.2/MSDK/wpa_supplicant/src/tls\tlsv1_client.c **** 			wpa_printf(MSG_DEBUG, "TLSv1: Need more data");
 741              		.loc 1 217 4 is_stmt 1
 218:C:/Users/stapi/OneDrive/Desktop/GD32VW553/V1_MQTT_OK/GD32VW55X_Wifi_BLE_SDK/GD32VW55x_RELEASE_V1.0.2/MSDK/wpa_supplicant/src/tls\tlsv1_client.c **** 			partial = wpabuf_alloc_copy(pos, end - pos);
 742              		.loc 1 218 4
 743 0134 B7050000 		lui	a1,%hi(.LC9)
 744 0138 93850500 		addi	a1,a1,%lo(.LC9)
 745 013c 0945     		li	a0,2
 746              	.LVL83:
 747 013e 97000000 		call	wpa_printf
 747      E7800000 
 748              	.LVL84:
 219:C:/Users/stapi/OneDrive/Desktop/GD32VW553/V1_MQTT_OK/GD32VW55X_Wifi_BLE_SDK/GD32VW55x_RELEASE_V1.0.2/MSDK/wpa_supplicant/src/tls\tlsv1_client.c **** 			wpabuf_free(conn->partial_input);
 749              		.loc 1 219 4
 219:C:/Users/stapi/OneDrive/Desktop/GD32VW553/V1_MQTT_OK/GD32VW55X_Wifi_BLE_SDK/GD32VW55x_RELEASE_V1.0.2/MSDK/wpa_supplicant/src/tls\tlsv1_client.c **** 			wpabuf_free(conn->partial_input);
 750              		.loc 1 219 14 is_stmt 0
 751 0146 EE85     		mv	a1,s11
 752 0148 2685     		mv	a0,s1
 753 014a 97000000 		call	wpabuf_alloc_copy
 753      E7800000 
 754              	.LVL85:
 755 0152 AA84     		mv	s1,a0
 756              	.LVL86:
 220:C:/Users/stapi/OneDrive/Desktop/GD32VW553/V1_MQTT_OK/GD32VW55X_Wifi_BLE_SDK/GD32VW55x_RELEASE_V1.0.2/MSDK/wpa_supplicant/src/tls\tlsv1_client.c **** 			conn->partial_input = partial;
 757              		.loc 1 220 4 is_stmt 1
 758 0154 03254421 		lw	a0,532(s0)
 759 0158 97000000 		call	wpabuf_free
 759      E7800000 
 760              	.LVL87:
 221:C:/Users/stapi/OneDrive/Desktop/GD32VW553/V1_MQTT_OK/GD32VW55X_Wifi_BLE_SDK/GD32VW55x_RELEASE_V1.0.2/MSDK/wpa_supplicant/src/tls\tlsv1_client.c **** 			if (conn->partial_input == NULL) {
 761              		.loc 1 221 4
 221:C:/Users/stapi/OneDrive/Desktop/GD32VW553/V1_MQTT_OK/GD32VW55X_Wifi_BLE_SDK/GD32VW55x_RELEASE_V1.0.2/MSDK/wpa_supplicant/src/tls\tlsv1_client.c **** 			if (conn->partial_input == NULL) {
 762              		.loc 1 221 24 is_stmt 0
 763 0160 232A9420 		sw	s1,532(s0)
 222:C:/Users/stapi/OneDrive/Desktop/GD32VW553/V1_MQTT_OK/GD32VW55X_Wifi_BLE_SDK/GD32VW55x_RELEASE_V1.0.2/MSDK/wpa_supplicant/src/tls\tlsv1_client.c **** 				wpa_printf(MSG_DEBUG, "TLSv1: Failed to "
 764              		.loc 1 222 4 is_stmt 1
 222:C:/Users/stapi/OneDrive/Desktop/GD32VW553/V1_MQTT_OK/GD32VW55X_Wifi_BLE_SDK/GD32VW55x_RELEASE_V1.0.2/MSDK/wpa_supplicant/src/tls\tlsv1_client.c **** 				wpa_printf(MSG_DEBUG, "TLSv1: Failed to "
 765              		.loc 1 222 7 is_stmt 0
 766 0164 BDEC     		bne	s1,zero,.L34
 223:C:/Users/stapi/OneDrive/Desktop/GD32VW553/V1_MQTT_OK/GD32VW55X_Wifi_BLE_SDK/GD32VW55x_RELEASE_V1.0.2/MSDK/wpa_supplicant/src/tls\tlsv1_client.c **** 					   "allocate memory for pending "
 767              		.loc 1 223 5 is_stmt 1
 768 0166 B7050000 		lui	a1,%hi(.LC7)
 769 016a 93850500 		addi	a1,a1,%lo(.LC7)
 770 016e 0945     		li	a0,2
 771 0170 97000000 		call	wpa_printf
 771      E7800000 
 772              	.LVL88:
 226:C:/Users/stapi/OneDrive/Desktop/GD32VW553/V1_MQTT_OK/GD32VW55X_Wifi_BLE_SDK/GD32VW55x_RELEASE_V1.0.2/MSDK/wpa_supplicant/src/tls\tlsv1_client.c **** 					  TLS_ALERT_INTERNAL_ERROR);
 773              		.loc 1 226 5
 774              	.LBB50:
 775              	.LBB51:
  27:C:/Users/stapi/OneDrive/Desktop/GD32VW553/V1_MQTT_OK/GD32VW55X_Wifi_BLE_SDK/GD32VW55x_RELEASE_V1.0.2/MSDK/wpa_supplicant/src/tls\tlsv1_client.c **** 	conn->alert_description = description;
 776              		.loc 1 27 2
  28:C:/Users/stapi/OneDrive/Desktop/GD32VW553/V1_MQTT_OK/GD32VW55X_Wifi_BLE_SDK/GD32VW55x_RELEASE_V1.0.2/MSDK/wpa_supplicant/src/tls\tlsv1_client.c **** }
 777              		.loc 1 28 2
  27:C:/Users/stapi/OneDrive/Desktop/GD32VW553/V1_MQTT_OK/GD32VW55X_Wifi_BLE_SDK/GD32VW55x_RELEASE_V1.0.2/MSDK/wpa_supplicant/src/tls\tlsv1_client.c **** 	conn->alert_description = description;
 778              		.loc 1 27 20 is_stmt 0
 779 0178 9567     		li	a5,20480
 780 017a 8907     		addi	a5,a5,2
 781 017c 2318F416 		sh	a5,368(s0)
 782              	.LVL89:
 783              	.LBE51:
 784              	.LBE50:
 228:C:/Users/stapi/OneDrive/Desktop/GD32VW553/V1_MQTT_OK/GD32VW55X_Wifi_BLE_SDK/GD32VW55x_RELEASE_V1.0.2/MSDK/wpa_supplicant/src/tls\tlsv1_client.c **** 			}
 785              		.loc 1 228 5 is_stmt 1
 786              	.L28:
 787              	.LBE64:
 262:C:/Users/stapi/OneDrive/Desktop/GD32VW553/V1_MQTT_OK/GD32VW55X_Wifi_BLE_SDK/GD32VW55x_RELEASE_V1.0.2/MSDK/wpa_supplicant/src/tls\tlsv1_client.c **** 	if (conn->alert_level) {
 788              		.loc 1 262 2
 789 0180 4A85     		mv	a0,s2
 790 0182 97000000 		call	os_free
 790      E7800000 
 791              	.LVL90:
 263:C:/Users/stapi/OneDrive/Desktop/GD32VW553/V1_MQTT_OK/GD32VW55X_Wifi_BLE_SDK/GD32VW55x_RELEASE_V1.0.2/MSDK/wpa_supplicant/src/tls\tlsv1_client.c **** 		wpabuf_free(conn->partial_input);
 792              		.loc 1 263 2
 263:C:/Users/stapi/OneDrive/Desktop/GD32VW553/V1_MQTT_OK/GD32VW55X_Wifi_BLE_SDK/GD32VW55x_RELEASE_V1.0.2/MSDK/wpa_supplicant/src/tls\tlsv1_client.c **** 		wpabuf_free(conn->partial_input);
 793              		.loc 1 263 5 is_stmt 0
 794 018a 83470417 		lbu	a5,368(s0)
 795 018e DDC3     		beq	a5,zero,.L39
 264:C:/Users/stapi/OneDrive/Desktop/GD32VW553/V1_MQTT_OK/GD32VW55X_Wifi_BLE_SDK/GD32VW55x_RELEASE_V1.0.2/MSDK/wpa_supplicant/src/tls\tlsv1_client.c **** 		conn->partial_input = NULL;
 796              		.loc 1 264 3 is_stmt 1
 797 0190 03254421 		lw	a0,532(s0)
 798 0194 97000000 		call	wpabuf_free
 798      E7800000 
 799              	.LVL91:
 265:C:/Users/stapi/OneDrive/Desktop/GD32VW553/V1_MQTT_OK/GD32VW55X_Wifi_BLE_SDK/GD32VW55x_RELEASE_V1.0.2/MSDK/wpa_supplicant/src/tls\tlsv1_client.c **** 		conn->state = FAILED;
 800              		.loc 1 265 3
 266:C:/Users/stapi/OneDrive/Desktop/GD32VW553/V1_MQTT_OK/GD32VW55X_Wifi_BLE_SDK/GD32VW55x_RELEASE_V1.0.2/MSDK/wpa_supplicant/src/tls\tlsv1_client.c **** 		os_free(msg);
 801              		.loc 1 266 15 is_stmt 0
 802 019c B147     		li	a5,12
 267:C:/Users/stapi/OneDrive/Desktop/GD32VW553/V1_MQTT_OK/GD32VW55X_Wifi_BLE_SDK/GD32VW55x_RELEASE_V1.0.2/MSDK/wpa_supplicant/src/tls\tlsv1_client.c **** 		msg = tlsv1_client_send_alert(conn, conn->alert_level,
 803              		.loc 1 267 3
 804 019e 2685     		mv	a0,s1
 266:C:/Users/stapi/OneDrive/Desktop/GD32VW553/V1_MQTT_OK/GD32VW55X_Wifi_BLE_SDK/GD32VW55x_RELEASE_V1.0.2/MSDK/wpa_supplicant/src/tls\tlsv1_client.c **** 		os_free(msg);
 805              		.loc 1 266 15
 806 01a0 1CC0     		sw	a5,0(s0)
 265:C:/Users/stapi/OneDrive/Desktop/GD32VW553/V1_MQTT_OK/GD32VW55X_Wifi_BLE_SDK/GD32VW55x_RELEASE_V1.0.2/MSDK/wpa_supplicant/src/tls\tlsv1_client.c **** 		conn->state = FAILED;
 807              		.loc 1 265 23
 808 01a2 232A0420 		sw	zero,532(s0)
 266:C:/Users/stapi/OneDrive/Desktop/GD32VW553/V1_MQTT_OK/GD32VW55X_Wifi_BLE_SDK/GD32VW55x_RELEASE_V1.0.2/MSDK/wpa_supplicant/src/tls\tlsv1_client.c **** 		os_free(msg);
 809              		.loc 1 266 3 is_stmt 1
 267:C:/Users/stapi/OneDrive/Desktop/GD32VW553/V1_MQTT_OK/GD32VW55X_Wifi_BLE_SDK/GD32VW55x_RELEASE_V1.0.2/MSDK/wpa_supplicant/src/tls\tlsv1_client.c **** 		msg = tlsv1_client_send_alert(conn, conn->alert_level,
 810              		.loc 1 267 3
 811 01a6 97000000 		call	os_free
 811      E7800000 
 812              	.LVL92:
 268:C:/Users/stapi/OneDrive/Desktop/GD32VW553/V1_MQTT_OK/GD32VW55X_Wifi_BLE_SDK/GD32VW55x_RELEASE_V1.0.2/MSDK/wpa_supplicant/src/tls\tlsv1_client.c **** 					      conn->alert_description,
 813              		.loc 1 268 3
 268:C:/Users/stapi/OneDrive/Desktop/GD32VW553/V1_MQTT_OK/GD32VW55X_Wifi_BLE_SDK/GD32VW55x_RELEASE_V1.0.2/MSDK/wpa_supplicant/src/tls\tlsv1_client.c **** 					      conn->alert_description,
 814              		.loc 1 268 9 is_stmt 0
 815 01ae 03461417 		lbu	a2,369(s0)
 816 01b2 83450417 		lbu	a1,368(s0)
 817 01b6 D686     		mv	a3,s5
 818 01b8 2285     		mv	a0,s0
 819 01ba 97000000 		call	tlsv1_client_send_alert
 819      E7800000 
 820              	.LVL93:
 821 01c2 AA84     		mv	s1,a0
 822              	.LVL94:
 823              	.L40:
 276:C:/Users/stapi/OneDrive/Desktop/GD32VW553/V1_MQTT_OK/GD32VW55X_Wifi_BLE_SDK/GD32VW55x_RELEASE_V1.0.2/MSDK/wpa_supplicant/src/tls\tlsv1_client.c **** 		wpabuf_free(conn->partial_input);
 824              		.loc 1 276 2 is_stmt 1
 276:C:/Users/stapi/OneDrive/Desktop/GD32VW553/V1_MQTT_OK/GD32VW55X_Wifi_BLE_SDK/GD32VW55x_RELEASE_V1.0.2/MSDK/wpa_supplicant/src/tls\tlsv1_client.c **** 		wpabuf_free(conn->partial_input);
 825              		.loc 1 276 5 is_stmt 0
 826 01c4 63060A00 		beq	s4,zero,.L41
 276:C:/Users/stapi/OneDrive/Desktop/GD32VW553/V1_MQTT_OK/GD32VW55X_Wifi_BLE_SDK/GD32VW55x_RELEASE_V1.0.2/MSDK/wpa_supplicant/src/tls\tlsv1_client.c **** 		wpabuf_free(conn->partial_input);
 827              		.loc 1 276 29 discriminator 1
 828 01c8 83270A00 		lw	a5,0(s4)
 829 01cc E39707E6 		bne	a5,zero,.L21
 830              	.L41:
 277:C:/Users/stapi/OneDrive/Desktop/GD32VW553/V1_MQTT_OK/GD32VW55X_Wifi_BLE_SDK/GD32VW55x_RELEASE_V1.0.2/MSDK/wpa_supplicant/src/tls\tlsv1_client.c **** 		conn->partial_input = NULL;
 831              		.loc 1 277 3 is_stmt 1
 832 01d0 03254421 		lw	a0,532(s0)
 833 01d4 97000000 		call	wpabuf_free
 833      E7800000 
 834              	.LVL95:
 278:C:/Users/stapi/OneDrive/Desktop/GD32VW553/V1_MQTT_OK/GD32VW55X_Wifi_BLE_SDK/GD32VW55x_RELEASE_V1.0.2/MSDK/wpa_supplicant/src/tls\tlsv1_client.c **** 	}
 835              		.loc 1 278 3
 278:C:/Users/stapi/OneDrive/Desktop/GD32VW553/V1_MQTT_OK/GD32VW55X_Wifi_BLE_SDK/GD32VW55x_RELEASE_V1.0.2/MSDK/wpa_supplicant/src/tls\tlsv1_client.c **** 	}
 836              		.loc 1 278 23 is_stmt 0
 837 01dc 232A0420 		sw	zero,532(s0)
 838 01e0 A9BD     		j	.L21
 839              	.LVL96:
 840              	.L34:
 841              	.LBB65:
 230:C:/Users/stapi/OneDrive/Desktop/GD32VW553/V1_MQTT_OK/GD32VW55X_Wifi_BLE_SDK/GD32VW55x_RELEASE_V1.0.2/MSDK/wpa_supplicant/src/tls\tlsv1_client.c **** 			if (need_more_data)
 842              		.loc 1 230 4 is_stmt 1
 843 01e2 4A85     		mv	a0,s2
 844 01e4 97000000 		call	os_free
 844      E7800000 
 845              	.LVL97:
 231:C:/Users/stapi/OneDrive/Desktop/GD32VW553/V1_MQTT_OK/GD32VW55X_Wifi_BLE_SDK/GD32VW55x_RELEASE_V1.0.2/MSDK/wpa_supplicant/src/tls\tlsv1_client.c **** 				*need_more_data = 1;
 846              		.loc 1 231 4
 231:C:/Users/stapi/OneDrive/Desktop/GD32VW553/V1_MQTT_OK/GD32VW55X_Wifi_BLE_SDK/GD32VW55x_RELEASE_V1.0.2/MSDK/wpa_supplicant/src/tls\tlsv1_client.c **** 				*need_more_data = 1;
 847              		.loc 1 231 7 is_stmt 0
 848 01ec E30E0AE2 		beq	s4,zero,.L69
 232:C:/Users/stapi/OneDrive/Desktop/GD32VW553/V1_MQTT_OK/GD32VW55X_Wifi_BLE_SDK/GD32VW55x_RELEASE_V1.0.2/MSDK/wpa_supplicant/src/tls\tlsv1_client.c **** 			return NULL;
 849              		.loc 1 232 5 is_stmt 1
 232:C:/Users/stapi/OneDrive/Desktop/GD32VW553/V1_MQTT_OK/GD32VW55X_Wifi_BLE_SDK/GD32VW55x_RELEASE_V1.0.2/MSDK/wpa_supplicant/src/tls\tlsv1_client.c **** 			return NULL;
 850              		.loc 1 232 21 is_stmt 0
 851 01f0 8547     		li	a5,1
 852 01f2 2320FA00 		sw	a5,0(s4)
 853 01f6 0DBD     		j	.L69
 854              	.LVL98:
 855              	.L33:
 856              	.LBE65:
 235:C:/Users/stapi/OneDrive/Desktop/GD32VW553/V1_MQTT_OK/GD32VW55X_Wifi_BLE_SDK/GD32VW55x_RELEASE_V1.0.2/MSDK/wpa_supplicant/src/tls\tlsv1_client.c **** 
 857              		.loc 1 235 3 is_stmt 1
 238:C:/Users/stapi/OneDrive/Desktop/GD32VW553/V1_MQTT_OK/GD32VW55X_Wifi_BLE_SDK/GD32VW55x_RELEASE_V1.0.2/MSDK/wpa_supplicant/src/tls\tlsv1_client.c **** 
 858              		.loc 1 238 10 is_stmt 0
 859 01f8 7248     		lw	a6,28(sp)
 235:C:/Users/stapi/OneDrive/Desktop/GD32VW553/V1_MQTT_OK/GD32VW55X_Wifi_BLE_SDK/GD32VW55x_RELEASE_V1.0.2/MSDK/wpa_supplicant/src/tls\tlsv1_client.c **** 
 860              		.loc 1 235 6
 861 01fa 83C50400 		lbu	a1,0(s1)
 862              	.LVL99:
 237:C:/Users/stapi/OneDrive/Desktop/GD32VW553/V1_MQTT_OK/GD32VW55X_Wifi_BLE_SDK/GD32VW55x_RELEASE_V1.0.2/MSDK/wpa_supplicant/src/tls\tlsv1_client.c **** 		in_end = in_msg + in_msg_len;
 863              		.loc 1 237 3 is_stmt 1
 238:C:/Users/stapi/OneDrive/Desktop/GD32VW553/V1_MQTT_OK/GD32VW55X_Wifi_BLE_SDK/GD32VW55x_RELEASE_V1.0.2/MSDK/wpa_supplicant/src/tls\tlsv1_client.c **** 
 864              		.loc 1 238 3
 242:C:/Users/stapi/OneDrive/Desktop/GD32VW553/V1_MQTT_OK/GD32VW55X_Wifi_BLE_SDK/GD32VW55x_RELEASE_V1.0.2/MSDK/wpa_supplicant/src/tls\tlsv1_client.c **** 			in_msg_len = in_end - in_pos;
 865              		.loc 1 242 9 is_stmt 0
 866 01fe CA8D     		mv	s11,s2
 238:C:/Users/stapi/OneDrive/Desktop/GD32VW553/V1_MQTT_OK/GD32VW55X_Wifi_BLE_SDK/GD32VW55x_RELEASE_V1.0.2/MSDK/wpa_supplicant/src/tls\tlsv1_client.c **** 
 867              		.loc 1 238 10
 868 0200 4A98     		add	a6,s2,a6
 869              	.LVL100:
 242:C:/Users/stapi/OneDrive/Desktop/GD32VW553/V1_MQTT_OK/GD32VW55X_Wifi_BLE_SDK/GD32VW55x_RELEASE_V1.0.2/MSDK/wpa_supplicant/src/tls\tlsv1_client.c **** 			in_msg_len = in_end - in_pos;
 870              		.loc 1 242 3 is_stmt 1
 871              	.L35:
 242:C:/Users/stapi/OneDrive/Desktop/GD32VW553/V1_MQTT_OK/GD32VW55X_Wifi_BLE_SDK/GD32VW55x_RELEASE_V1.0.2/MSDK/wpa_supplicant/src/tls\tlsv1_client.c **** 			in_msg_len = in_end - in_pos;
 872              		.loc 1 242 9
 873 0202 63E40D01 		bltu	s11,a6,.L36
 252:C:/Users/stapi/OneDrive/Desktop/GD32VW553/V1_MQTT_OK/GD32VW55X_Wifi_BLE_SDK/GD32VW55x_RELEASE_V1.0.2/MSDK/wpa_supplicant/src/tls\tlsv1_client.c **** 	}
 874              		.loc 1 252 3
 252:C:/Users/stapi/OneDrive/Desktop/GD32VW553/V1_MQTT_OK/GD32VW55X_Wifi_BLE_SDK/GD32VW55x_RELEASE_V1.0.2/MSDK/wpa_supplicant/src/tls\tlsv1_client.c **** 	}
 875              		.loc 1 252 7 is_stmt 0
 876 0206 DE94     		add	s1,s1,s7
 877              	.LVL101:
 878 0208 65BD     		j	.L31
 879              	.L36:
 243:C:/Users/stapi/OneDrive/Desktop/GD32VW553/V1_MQTT_OK/GD32VW55X_Wifi_BLE_SDK/GD32VW55x_RELEASE_V1.0.2/MSDK/wpa_supplicant/src/tls\tlsv1_client.c **** 			if (tlsv1_client_process_handshake(conn, ct, in_pos,
 880              		.loc 1 243 4 is_stmt 1
 243:C:/Users/stapi/OneDrive/Desktop/GD32VW553/V1_MQTT_OK/GD32VW55X_Wifi_BLE_SDK/GD32VW55x_RELEASE_V1.0.2/MSDK/wpa_supplicant/src/tls\tlsv1_client.c **** 			if (tlsv1_client_process_handshake(conn, ct, in_pos,
 881              		.loc 1 243 24 is_stmt 0
 882 020a B307B841 		sub	a5,a6,s11
 243:C:/Users/stapi/OneDrive/Desktop/GD32VW553/V1_MQTT_OK/GD32VW55X_Wifi_BLE_SDK/GD32VW55x_RELEASE_V1.0.2/MSDK/wpa_supplicant/src/tls\tlsv1_client.c **** 			if (tlsv1_client_process_handshake(conn, ct, in_pos,
 883              		.loc 1 243 15
 884 020e 3ECE     		sw	a5,28(sp)
 244:C:/Users/stapi/OneDrive/Desktop/GD32VW553/V1_MQTT_OK/GD32VW55X_Wifi_BLE_SDK/GD32VW55x_RELEASE_V1.0.2/MSDK/wpa_supplicant/src/tls\tlsv1_client.c **** 							   &in_msg_len,
 885              		.loc 1 244 4 is_stmt 1
 244:C:/Users/stapi/OneDrive/Desktop/GD32VW553/V1_MQTT_OK/GD32VW55X_Wifi_BLE_SDK/GD32VW55x_RELEASE_V1.0.2/MSDK/wpa_supplicant/src/tls\tlsv1_client.c **** 							   &in_msg_len,
 886              		.loc 1 244 8 is_stmt 0
 887 0210 5A87     		mv	a4,s6
 888 0212 E287     		mv	a5,s8
 889 0214 7408     		addi	a3,sp,28
 890 0216 6E86     		mv	a2,s11
 891 0218 2285     		mv	a0,s0
 243:C:/Users/stapi/OneDrive/Desktop/GD32VW553/V1_MQTT_OK/GD32VW55X_Wifi_BLE_SDK/GD32VW55x_RELEASE_V1.0.2/MSDK/wpa_supplicant/src/tls\tlsv1_client.c **** 			if (tlsv1_client_process_handshake(conn, ct, in_pos,
 892              		.loc 1 243 24
 893 021a 42C6     		sw	a6,12(sp)
 244:C:/Users/stapi/OneDrive/Desktop/GD32VW553/V1_MQTT_OK/GD32VW55X_Wifi_BLE_SDK/GD32VW55x_RELEASE_V1.0.2/MSDK/wpa_supplicant/src/tls\tlsv1_client.c **** 							   &in_msg_len,
 894              		.loc 1 244 8
 895 021c 2EC4     		sw	a1,8(sp)
 896 021e 97000000 		call	tlsv1_client_process_handshake
 896      E7800000 
 897              	.LVL102:
 244:C:/Users/stapi/OneDrive/Desktop/GD32VW553/V1_MQTT_OK/GD32VW55X_Wifi_BLE_SDK/GD32VW55x_RELEASE_V1.0.2/MSDK/wpa_supplicant/src/tls\tlsv1_client.c **** 							   &in_msg_len,
 898              		.loc 1 244 7
 899 0226 E34A05E4 		blt	a0,zero,.L42
 249:C:/Users/stapi/OneDrive/Desktop/GD32VW553/V1_MQTT_OK/GD32VW55X_Wifi_BLE_SDK/GD32VW55x_RELEASE_V1.0.2/MSDK/wpa_supplicant/src/tls\tlsv1_client.c **** 		}
 900              		.loc 1 249 4 is_stmt 1
 249:C:/Users/stapi/OneDrive/Desktop/GD32VW553/V1_MQTT_OK/GD32VW55X_Wifi_BLE_SDK/GD32VW55x_RELEASE_V1.0.2/MSDK/wpa_supplicant/src/tls\tlsv1_client.c **** 		}
 901              		.loc 1 249 11 is_stmt 0
 902 022a F247     		lw	a5,28(sp)
 903 022c 3248     		lw	a6,12(sp)
 904 022e A245     		lw	a1,8(sp)
 905 0230 BE9D     		add	s11,s11,a5
 906              	.LVL103:
 907 0232 C1BF     		j	.L35
 908              	.LVL104:
 909              	.L39:
 271:C:/Users/stapi/OneDrive/Desktop/GD32VW553/V1_MQTT_OK/GD32VW55X_Wifi_BLE_SDK/GD32VW55x_RELEASE_V1.0.2/MSDK/wpa_supplicant/src/tls\tlsv1_client.c **** 		msg = os_zalloc(1);
 910              		.loc 1 271 9 is_stmt 1
 271:C:/Users/stapi/OneDrive/Desktop/GD32VW553/V1_MQTT_OK/GD32VW55X_Wifi_BLE_SDK/GD32VW55x_RELEASE_V1.0.2/MSDK/wpa_supplicant/src/tls\tlsv1_client.c **** 		msg = os_zalloc(1);
 911              		.loc 1 271 12 is_stmt 0
 912 0234 C1F8     		bne	s1,zero,.L40
 272:C:/Users/stapi/OneDrive/Desktop/GD32VW553/V1_MQTT_OK/GD32VW55X_Wifi_BLE_SDK/GD32VW55x_RELEASE_V1.0.2/MSDK/wpa_supplicant/src/tls\tlsv1_client.c **** 		*out_len = 0;
 913              		.loc 1 272 3 is_stmt 1
 272:C:/Users/stapi/OneDrive/Desktop/GD32VW553/V1_MQTT_OK/GD32VW55X_Wifi_BLE_SDK/GD32VW55x_RELEASE_V1.0.2/MSDK/wpa_supplicant/src/tls\tlsv1_client.c **** 		*out_len = 0;
 914              		.loc 1 272 9 is_stmt 0
 915 0236 0545     		li	a0,1
 916 0238 97000000 		call	os_zalloc
 916      E7800000 
 917              	.LVL105:
 918 0240 AA84     		mv	s1,a0
 919              	.LVL106:
 273:C:/Users/stapi/OneDrive/Desktop/GD32VW553/V1_MQTT_OK/GD32VW55X_Wifi_BLE_SDK/GD32VW55x_RELEASE_V1.0.2/MSDK/wpa_supplicant/src/tls\tlsv1_client.c **** 	}
 920              		.loc 1 273 3 is_stmt 1
 273:C:/Users/stapi/OneDrive/Desktop/GD32VW553/V1_MQTT_OK/GD32VW55X_Wifi_BLE_SDK/GD32VW55x_RELEASE_V1.0.2/MSDK/wpa_supplicant/src/tls\tlsv1_client.c **** 	}
 921              		.loc 1 273 12 is_stmt 0
 922 0242 23A00A00 		sw	zero,0(s5)
 923 0246 BDBF     		j	.L40
 924              		.cfi_endproc
 925              	.LFE91:
 927              		.section	.rodata.tlsv1_client_encrypt.str1.4,"aMS",@progbits,1
 928              		.align	2
 929              	.LC10:
 930 0000 544C5376 		.string	"TLSv1: Plaintext AppData"
 930      313A2050 
 930      6C61696E 
 930      74657874 
 930      20417070 
 931 0019 000000   		.align	2
 932              	.LC11:
 933 001c 544C5376 		.string	"TLSv1: Failed to create a record"
 933      313A2046 
 933      61696C65 
 933      6420746F 
 933      20637265 
 934              		.section	.text.tlsv1_client_encrypt,"ax",@progbits
 935              		.align	1
 936              		.globl	tlsv1_client_encrypt
 938              	tlsv1_client_encrypt:
 939              	.LFB92:
 283:C:/Users/stapi/OneDrive/Desktop/GD32VW553/V1_MQTT_OK/GD32VW55X_Wifi_BLE_SDK/GD32VW55x_RELEASE_V1.0.2/MSDK/wpa_supplicant/src/tls\tlsv1_client.c **** 
 284:C:/Users/stapi/OneDrive/Desktop/GD32VW553/V1_MQTT_OK/GD32VW55X_Wifi_BLE_SDK/GD32VW55x_RELEASE_V1.0.2/MSDK/wpa_supplicant/src/tls\tlsv1_client.c **** 
 285:C:/Users/stapi/OneDrive/Desktop/GD32VW553/V1_MQTT_OK/GD32VW55X_Wifi_BLE_SDK/GD32VW55x_RELEASE_V1.0.2/MSDK/wpa_supplicant/src/tls\tlsv1_client.c **** /**
 286:C:/Users/stapi/OneDrive/Desktop/GD32VW553/V1_MQTT_OK/GD32VW55X_Wifi_BLE_SDK/GD32VW55x_RELEASE_V1.0.2/MSDK/wpa_supplicant/src/tls\tlsv1_client.c ****  * tlsv1_client_encrypt - Encrypt data into TLS tunnel
 287:C:/Users/stapi/OneDrive/Desktop/GD32VW553/V1_MQTT_OK/GD32VW55X_Wifi_BLE_SDK/GD32VW55x_RELEASE_V1.0.2/MSDK/wpa_supplicant/src/tls\tlsv1_client.c ****  * @conn: TLSv1 client connection data from tlsv1_client_init()
 288:C:/Users/stapi/OneDrive/Desktop/GD32VW553/V1_MQTT_OK/GD32VW55X_Wifi_BLE_SDK/GD32VW55x_RELEASE_V1.0.2/MSDK/wpa_supplicant/src/tls\tlsv1_client.c ****  * @in_data: Pointer to plaintext data to be encrypted
 289:C:/Users/stapi/OneDrive/Desktop/GD32VW553/V1_MQTT_OK/GD32VW55X_Wifi_BLE_SDK/GD32VW55x_RELEASE_V1.0.2/MSDK/wpa_supplicant/src/tls\tlsv1_client.c ****  * @in_len: Input buffer length
 290:C:/Users/stapi/OneDrive/Desktop/GD32VW553/V1_MQTT_OK/GD32VW55X_Wifi_BLE_SDK/GD32VW55x_RELEASE_V1.0.2/MSDK/wpa_supplicant/src/tls\tlsv1_client.c ****  * @out_data: Pointer to output buffer (encrypted TLS data)
 291:C:/Users/stapi/OneDrive/Desktop/GD32VW553/V1_MQTT_OK/GD32VW55X_Wifi_BLE_SDK/GD32VW55x_RELEASE_V1.0.2/MSDK/wpa_supplicant/src/tls\tlsv1_client.c ****  * @out_len: Maximum out_data length
 292:C:/Users/stapi/OneDrive/Desktop/GD32VW553/V1_MQTT_OK/GD32VW55X_Wifi_BLE_SDK/GD32VW55x_RELEASE_V1.0.2/MSDK/wpa_supplicant/src/tls\tlsv1_client.c ****  * Returns: Number of bytes written to out_data, -1 on failure
 293:C:/Users/stapi/OneDrive/Desktop/GD32VW553/V1_MQTT_OK/GD32VW55X_Wifi_BLE_SDK/GD32VW55x_RELEASE_V1.0.2/MSDK/wpa_supplicant/src/tls\tlsv1_client.c ****  *
 294:C:/Users/stapi/OneDrive/Desktop/GD32VW553/V1_MQTT_OK/GD32VW55X_Wifi_BLE_SDK/GD32VW55x_RELEASE_V1.0.2/MSDK/wpa_supplicant/src/tls\tlsv1_client.c ****  * This function is used after TLS handshake has been completed successfully to
 295:C:/Users/stapi/OneDrive/Desktop/GD32VW553/V1_MQTT_OK/GD32VW55X_Wifi_BLE_SDK/GD32VW55x_RELEASE_V1.0.2/MSDK/wpa_supplicant/src/tls\tlsv1_client.c ****  * send data in the encrypted tunnel.
 296:C:/Users/stapi/OneDrive/Desktop/GD32VW553/V1_MQTT_OK/GD32VW55X_Wifi_BLE_SDK/GD32VW55x_RELEASE_V1.0.2/MSDK/wpa_supplicant/src/tls\tlsv1_client.c ****  */
 297:C:/Users/stapi/OneDrive/Desktop/GD32VW553/V1_MQTT_OK/GD32VW55X_Wifi_BLE_SDK/GD32VW55x_RELEASE_V1.0.2/MSDK/wpa_supplicant/src/tls\tlsv1_client.c **** int tlsv1_client_encrypt(struct tlsv1_client *conn,
 298:C:/Users/stapi/OneDrive/Desktop/GD32VW553/V1_MQTT_OK/GD32VW55X_Wifi_BLE_SDK/GD32VW55x_RELEASE_V1.0.2/MSDK/wpa_supplicant/src/tls\tlsv1_client.c **** 			 const u8 *in_data, size_t in_len,
 299:C:/Users/stapi/OneDrive/Desktop/GD32VW553/V1_MQTT_OK/GD32VW55X_Wifi_BLE_SDK/GD32VW55x_RELEASE_V1.0.2/MSDK/wpa_supplicant/src/tls\tlsv1_client.c **** 			 u8 *out_data, size_t out_len)
 300:C:/Users/stapi/OneDrive/Desktop/GD32VW553/V1_MQTT_OK/GD32VW55X_Wifi_BLE_SDK/GD32VW55x_RELEASE_V1.0.2/MSDK/wpa_supplicant/src/tls\tlsv1_client.c **** {
 940              		.loc 1 300 1 is_stmt 1
 941              		.cfi_startproc
 942              	.LVL107:
 943 0000 17030000 		call	t0,__riscv_save_4
 943      E7020300 
 944              		.cfi_offset 19, -20
 945              		.cfi_offset 18, -16
 946              		.cfi_offset 9, -12
 947              		.cfi_offset 8, -8
 948              		.cfi_offset 1, -4
 949              		.cfi_def_cfa_offset 32
 301:C:/Users/stapi/OneDrive/Desktop/GD32VW553/V1_MQTT_OK/GD32VW55X_Wifi_BLE_SDK/GD32VW55x_RELEASE_V1.0.2/MSDK/wpa_supplicant/src/tls\tlsv1_client.c **** 	size_t rlen;
 950              		.loc 1 301 2
 302:C:/Users/stapi/OneDrive/Desktop/GD32VW553/V1_MQTT_OK/GD32VW55X_Wifi_BLE_SDK/GD32VW55x_RELEASE_V1.0.2/MSDK/wpa_supplicant/src/tls\tlsv1_client.c **** 
 303:C:/Users/stapi/OneDrive/Desktop/GD32VW553/V1_MQTT_OK/GD32VW55X_Wifi_BLE_SDK/GD32VW55x_RELEASE_V1.0.2/MSDK/wpa_supplicant/src/tls\tlsv1_client.c **** 	wpa_hexdump_key(MSG_MSGDUMP, "TLSv1: Plaintext AppData",
 951              		.loc 1 303 2
 300:C:/Users/stapi/OneDrive/Desktop/GD32VW553/V1_MQTT_OK/GD32VW55X_Wifi_BLE_SDK/GD32VW55x_RELEASE_V1.0.2/MSDK/wpa_supplicant/src/tls\tlsv1_client.c **** 	size_t rlen;
 952              		.loc 1 300 1 is_stmt 0
 953 0008 0111     		addi	sp,sp,-32
 954              		.cfi_def_cfa_offset 64
 300:C:/Users/stapi/OneDrive/Desktop/GD32VW553/V1_MQTT_OK/GD32VW55X_Wifi_BLE_SDK/GD32VW55x_RELEASE_V1.0.2/MSDK/wpa_supplicant/src/tls\tlsv1_client.c **** 	size_t rlen;
 955              		.loc 1 300 1
 956 000a AE84     		mv	s1,a1
 957 000c 3689     		mv	s2,a3
 958              		.loc 1 303 2
 959 000e 32C6     		sw	a2,12(sp)
 960 0010 B286     		mv	a3,a2
 961              	.LVL108:
 962 0012 2E86     		mv	a2,a1
 963              	.LVL109:
 964 0014 B7050000 		lui	a1,%hi(.LC10)
 965              	.LVL110:
 300:C:/Users/stapi/OneDrive/Desktop/GD32VW553/V1_MQTT_OK/GD32VW55X_Wifi_BLE_SDK/GD32VW55x_RELEASE_V1.0.2/MSDK/wpa_supplicant/src/tls\tlsv1_client.c **** 	size_t rlen;
 966              		.loc 1 300 1
 967 0018 2A84     		mv	s0,a0
 968              		.loc 1 303 2
 969 001a 93850500 		addi	a1,a1,%lo(.LC10)
 970 001e 0545     		li	a0,1
 971              	.LVL111:
 300:C:/Users/stapi/OneDrive/Desktop/GD32VW553/V1_MQTT_OK/GD32VW55X_Wifi_BLE_SDK/GD32VW55x_RELEASE_V1.0.2/MSDK/wpa_supplicant/src/tls\tlsv1_client.c **** 	size_t rlen;
 972              		.loc 1 300 1
 973 0020 BA89     		mv	s3,a4
 974              		.loc 1 303 2
 975 0022 97000000 		call	wpa_hexdump_key
 975      E7800000 
 976              	.LVL112:
 304:C:/Users/stapi/OneDrive/Desktop/GD32VW553/V1_MQTT_OK/GD32VW55X_Wifi_BLE_SDK/GD32VW55x_RELEASE_V1.0.2/MSDK/wpa_supplicant/src/tls\tlsv1_client.c **** 			in_data, in_len);
 305:C:/Users/stapi/OneDrive/Desktop/GD32VW553/V1_MQTT_OK/GD32VW55X_Wifi_BLE_SDK/GD32VW55x_RELEASE_V1.0.2/MSDK/wpa_supplicant/src/tls\tlsv1_client.c **** 
 306:C:/Users/stapi/OneDrive/Desktop/GD32VW553/V1_MQTT_OK/GD32VW55X_Wifi_BLE_SDK/GD32VW55x_RELEASE_V1.0.2/MSDK/wpa_supplicant/src/tls\tlsv1_client.c **** 	if (tlsv1_record_send(&conn->rl, TLS_CONTENT_TYPE_APPLICATION_DATA,
 977              		.loc 1 306 2 is_stmt 1
 978              		.loc 1 306 6 is_stmt 0
 979 002a B247     		lw	a5,12(sp)
 980 002c 1308C101 		addi	a6,sp,28
 981 0030 2687     		mv	a4,s1
 982 0032 CE86     		mv	a3,s3
 983 0034 4A86     		mv	a2,s2
 984 0036 DD45     		li	a1,23
 985 0038 13054400 		addi	a0,s0,4
 986 003c 97000000 		call	tlsv1_record_send
 986      E7800000 
 987              	.LVL113:
 988              		.loc 1 306 5
 989 0044 63550502 		bge	a0,zero,.L71
 307:C:/Users/stapi/OneDrive/Desktop/GD32VW553/V1_MQTT_OK/GD32VW55X_Wifi_BLE_SDK/GD32VW55x_RELEASE_V1.0.2/MSDK/wpa_supplicant/src/tls\tlsv1_client.c **** 			      out_data, out_len, in_data, in_len, &rlen) < 0) {
 308:C:/Users/stapi/OneDrive/Desktop/GD32VW553/V1_MQTT_OK/GD32VW55X_Wifi_BLE_SDK/GD32VW55x_RELEASE_V1.0.2/MSDK/wpa_supplicant/src/tls\tlsv1_client.c **** 		wpa_printf(MSG_DEBUG, "TLSv1: Failed to create a record");
 990              		.loc 1 308 3 is_stmt 1
 991 0048 B7050000 		lui	a1,%hi(.LC11)
 992 004c 0945     		li	a0,2
 993 004e 93850500 		addi	a1,a1,%lo(.LC11)
 994 0052 97000000 		call	wpa_printf
 994      E7800000 
 995              	.LVL114:
 309:C:/Users/stapi/OneDrive/Desktop/GD32VW553/V1_MQTT_OK/GD32VW55X_Wifi_BLE_SDK/GD32VW55x_RELEASE_V1.0.2/MSDK/wpa_supplicant/src/tls\tlsv1_client.c **** 		tls_alert(conn, TLS_ALERT_LEVEL_FATAL,
 996              		.loc 1 309 3
 997              	.LBB66:
 998              	.LBB67:
  27:C:/Users/stapi/OneDrive/Desktop/GD32VW553/V1_MQTT_OK/GD32VW55X_Wifi_BLE_SDK/GD32VW55x_RELEASE_V1.0.2/MSDK/wpa_supplicant/src/tls\tlsv1_client.c **** 	conn->alert_description = description;
 999              		.loc 1 27 2
  28:C:/Users/stapi/OneDrive/Desktop/GD32VW553/V1_MQTT_OK/GD32VW55X_Wifi_BLE_SDK/GD32VW55x_RELEASE_V1.0.2/MSDK/wpa_supplicant/src/tls\tlsv1_client.c **** }
 1000              		.loc 1 28 2
  27:C:/Users/stapi/OneDrive/Desktop/GD32VW553/V1_MQTT_OK/GD32VW55X_Wifi_BLE_SDK/GD32VW55x_RELEASE_V1.0.2/MSDK/wpa_supplicant/src/tls\tlsv1_client.c **** 	conn->alert_description = description;
 1001              		.loc 1 27 20 is_stmt 0
 1002 005a 9567     		li	a5,20480
 1003 005c 8907     		addi	a5,a5,2
 1004 005e 2318F416 		sh	a5,368(s0)
 1005              	.LVL115:
 1006              	.LBE67:
 1007              	.LBE66:
 310:C:/Users/stapi/OneDrive/Desktop/GD32VW553/V1_MQTT_OK/GD32VW55X_Wifi_BLE_SDK/GD32VW55x_RELEASE_V1.0.2/MSDK/wpa_supplicant/src/tls\tlsv1_client.c **** 			  TLS_ALERT_INTERNAL_ERROR);
 311:C:/Users/stapi/OneDrive/Desktop/GD32VW553/V1_MQTT_OK/GD32VW55X_Wifi_BLE_SDK/GD32VW55x_RELEASE_V1.0.2/MSDK/wpa_supplicant/src/tls\tlsv1_client.c **** 		return -1;
 1008              		.loc 1 311 3 is_stmt 1
 1009              		.loc 1 311 10 is_stmt 0
 1010 0062 7D55     		li	a0,-1
 1011              	.L70:
 312:C:/Users/stapi/OneDrive/Desktop/GD32VW553/V1_MQTT_OK/GD32VW55X_Wifi_BLE_SDK/GD32VW55x_RELEASE_V1.0.2/MSDK/wpa_supplicant/src/tls\tlsv1_client.c **** 	}
 313:C:/Users/stapi/OneDrive/Desktop/GD32VW553/V1_MQTT_OK/GD32VW55X_Wifi_BLE_SDK/GD32VW55x_RELEASE_V1.0.2/MSDK/wpa_supplicant/src/tls\tlsv1_client.c **** 
 314:C:/Users/stapi/OneDrive/Desktop/GD32VW553/V1_MQTT_OK/GD32VW55X_Wifi_BLE_SDK/GD32VW55x_RELEASE_V1.0.2/MSDK/wpa_supplicant/src/tls\tlsv1_client.c **** 	return rlen;
 315:C:/Users/stapi/OneDrive/Desktop/GD32VW553/V1_MQTT_OK/GD32VW55X_Wifi_BLE_SDK/GD32VW55x_RELEASE_V1.0.2/MSDK/wpa_supplicant/src/tls\tlsv1_client.c **** }
 1012              		.loc 1 315 1
 1013 0064 0561     		addi	sp,sp,32
 1014              		.cfi_remember_state
 1015              		.cfi_def_cfa_offset 0
 1016              	.LVL116:
 1017 0066 17030000 		tail	__riscv_restore_4
 1017      67000300 
 1018              		.cfi_restore 19
 1019              		.cfi_restore 18
 1020              		.cfi_restore 9
 1021              		.cfi_restore 8
 1022              		.cfi_restore 1
 1023              		.cfi_def_cfa_offset -32
 1024              	.LVL117:
 1025              	.L71:
 1026              		.cfi_restore_state
 314:C:/Users/stapi/OneDrive/Desktop/GD32VW553/V1_MQTT_OK/GD32VW55X_Wifi_BLE_SDK/GD32VW55x_RELEASE_V1.0.2/MSDK/wpa_supplicant/src/tls\tlsv1_client.c **** }
 1027              		.loc 1 314 2 is_stmt 1
 314:C:/Users/stapi/OneDrive/Desktop/GD32VW553/V1_MQTT_OK/GD32VW55X_Wifi_BLE_SDK/GD32VW55x_RELEASE_V1.0.2/MSDK/wpa_supplicant/src/tls\tlsv1_client.c **** }
 1028              		.loc 1 314 9 is_stmt 0
 1029 006e 7245     		lw	a0,28(sp)
 1030 0070 D5BF     		j	.L70
 1031              		.cfi_endproc
 1032              	.LFE92:
 1034              		.section	.rodata.tlsv1_client_decrypt.str1.4,"aMS",@progbits,1
 1035              		.align	2
 1036              	.LC12:
 1037 0000 544C5376 		.string	"TLSv1: Record layer processing failed"
 1037      313A2052 
 1037      65636F72 
 1037      64206C61 
 1037      79657220 
 1038 0026 0000     		.align	2
 1039              	.LC13:
 1040 0028 544C5376 		.string	"TLSv1: Alert underflow"
 1040      313A2041 
 1040      6C657274 
 1040      20756E64 
 1040      6572666C 
 1041 003f 00       		.align	2
 1042              	.LC14:
 1043 0040 544C5376 		.string	"TLSv1: Received alert %d:%d"
 1043      313A2052 
 1043      65636569 
 1043      76656420 
 1043      616C6572 
 1044              		.align	2
 1045              	.LC15:
 1046 005c 544C5376 		.string	"TLSv1: Unexpected content type 0x%x when decrypting application data"
 1046      313A2055 
 1046      6E657870 
 1046      65637465 
 1046      6420636F 
 1047              		.section	.text.tlsv1_client_decrypt,"ax",@progbits
 1048              		.align	1
 1049              		.globl	tlsv1_client_decrypt
 1051              	tlsv1_client_decrypt:
 1052              	.LFB93:
 316:C:/Users/stapi/OneDrive/Desktop/GD32VW553/V1_MQTT_OK/GD32VW55X_Wifi_BLE_SDK/GD32VW55x_RELEASE_V1.0.2/MSDK/wpa_supplicant/src/tls\tlsv1_client.c **** 
 317:C:/Users/stapi/OneDrive/Desktop/GD32VW553/V1_MQTT_OK/GD32VW55X_Wifi_BLE_SDK/GD32VW55x_RELEASE_V1.0.2/MSDK/wpa_supplicant/src/tls\tlsv1_client.c **** 
 318:C:/Users/stapi/OneDrive/Desktop/GD32VW553/V1_MQTT_OK/GD32VW55X_Wifi_BLE_SDK/GD32VW55x_RELEASE_V1.0.2/MSDK/wpa_supplicant/src/tls\tlsv1_client.c **** /**
 319:C:/Users/stapi/OneDrive/Desktop/GD32VW553/V1_MQTT_OK/GD32VW55X_Wifi_BLE_SDK/GD32VW55x_RELEASE_V1.0.2/MSDK/wpa_supplicant/src/tls\tlsv1_client.c ****  * tlsv1_client_decrypt - Decrypt data from TLS tunnel
 320:C:/Users/stapi/OneDrive/Desktop/GD32VW553/V1_MQTT_OK/GD32VW55X_Wifi_BLE_SDK/GD32VW55x_RELEASE_V1.0.2/MSDK/wpa_supplicant/src/tls\tlsv1_client.c ****  * @conn: TLSv1 client connection data from tlsv1_client_init()
 321:C:/Users/stapi/OneDrive/Desktop/GD32VW553/V1_MQTT_OK/GD32VW55X_Wifi_BLE_SDK/GD32VW55x_RELEASE_V1.0.2/MSDK/wpa_supplicant/src/tls\tlsv1_client.c ****  * @in_data: Pointer to input buffer (encrypted TLS data)
 322:C:/Users/stapi/OneDrive/Desktop/GD32VW553/V1_MQTT_OK/GD32VW55X_Wifi_BLE_SDK/GD32VW55x_RELEASE_V1.0.2/MSDK/wpa_supplicant/src/tls\tlsv1_client.c ****  * @in_len: Input buffer length
 323:C:/Users/stapi/OneDrive/Desktop/GD32VW553/V1_MQTT_OK/GD32VW55X_Wifi_BLE_SDK/GD32VW55x_RELEASE_V1.0.2/MSDK/wpa_supplicant/src/tls\tlsv1_client.c ****  * @need_more_data: Set to 1 if more data would be needed to complete
 324:C:/Users/stapi/OneDrive/Desktop/GD32VW553/V1_MQTT_OK/GD32VW55X_Wifi_BLE_SDK/GD32VW55x_RELEASE_V1.0.2/MSDK/wpa_supplicant/src/tls\tlsv1_client.c ****  *	processing
 325:C:/Users/stapi/OneDrive/Desktop/GD32VW553/V1_MQTT_OK/GD32VW55X_Wifi_BLE_SDK/GD32VW55x_RELEASE_V1.0.2/MSDK/wpa_supplicant/src/tls\tlsv1_client.c ****  * Returns: Decrypted data or %NULL on failure
 326:C:/Users/stapi/OneDrive/Desktop/GD32VW553/V1_MQTT_OK/GD32VW55X_Wifi_BLE_SDK/GD32VW55x_RELEASE_V1.0.2/MSDK/wpa_supplicant/src/tls\tlsv1_client.c ****  *
 327:C:/Users/stapi/OneDrive/Desktop/GD32VW553/V1_MQTT_OK/GD32VW55X_Wifi_BLE_SDK/GD32VW55x_RELEASE_V1.0.2/MSDK/wpa_supplicant/src/tls\tlsv1_client.c ****  * This function is used after TLS handshake has been completed successfully to
 328:C:/Users/stapi/OneDrive/Desktop/GD32VW553/V1_MQTT_OK/GD32VW55X_Wifi_BLE_SDK/GD32VW55x_RELEASE_V1.0.2/MSDK/wpa_supplicant/src/tls\tlsv1_client.c ****  * receive data from the encrypted tunnel.
 329:C:/Users/stapi/OneDrive/Desktop/GD32VW553/V1_MQTT_OK/GD32VW55X_Wifi_BLE_SDK/GD32VW55x_RELEASE_V1.0.2/MSDK/wpa_supplicant/src/tls\tlsv1_client.c ****  */
 330:C:/Users/stapi/OneDrive/Desktop/GD32VW553/V1_MQTT_OK/GD32VW55X_Wifi_BLE_SDK/GD32VW55x_RELEASE_V1.0.2/MSDK/wpa_supplicant/src/tls\tlsv1_client.c **** struct wpabuf * tlsv1_client_decrypt(struct tlsv1_client *conn,
 331:C:/Users/stapi/OneDrive/Desktop/GD32VW553/V1_MQTT_OK/GD32VW55X_Wifi_BLE_SDK/GD32VW55x_RELEASE_V1.0.2/MSDK/wpa_supplicant/src/tls\tlsv1_client.c **** 				     const u8 *in_data, size_t in_len,
 332:C:/Users/stapi/OneDrive/Desktop/GD32VW553/V1_MQTT_OK/GD32VW55X_Wifi_BLE_SDK/GD32VW55x_RELEASE_V1.0.2/MSDK/wpa_supplicant/src/tls\tlsv1_client.c **** 				     int *need_more_data)
 333:C:/Users/stapi/OneDrive/Desktop/GD32VW553/V1_MQTT_OK/GD32VW55X_Wifi_BLE_SDK/GD32VW55x_RELEASE_V1.0.2/MSDK/wpa_supplicant/src/tls\tlsv1_client.c **** {
 1053              		.loc 1 333 1 is_stmt 1
 1054              		.cfi_startproc
 1055              	.LVL118:
 1056 0000 17030000 		call	t0,__riscv_save_12
 1056      E7020300 
 1057              		.cfi_offset 27, -52
 1058              		.cfi_offset 26, -48
 1059              		.cfi_offset 25, -44
 1060              		.cfi_offset 24, -40
 1061              		.cfi_offset 23, -36
 1062              		.cfi_offset 22, -32
 1063              		.cfi_offset 21, -28
 1064              		.cfi_offset 20, -24
 1065              		.cfi_offset 19, -20
 1066              		.cfi_offset 18, -16
 1067              		.cfi_offset 9, -12
 1068              		.cfi_offset 8, -8
 1069              		.cfi_offset 1, -4
 1070              		.cfi_def_cfa_offset 64
 334:C:/Users/stapi/OneDrive/Desktop/GD32VW553/V1_MQTT_OK/GD32VW55X_Wifi_BLE_SDK/GD32VW55x_RELEASE_V1.0.2/MSDK/wpa_supplicant/src/tls\tlsv1_client.c **** 	const u8 *in_end, *pos;
 1071              		.loc 1 334 2
 335:C:/Users/stapi/OneDrive/Desktop/GD32VW553/V1_MQTT_OK/GD32VW55X_Wifi_BLE_SDK/GD32VW55x_RELEASE_V1.0.2/MSDK/wpa_supplicant/src/tls\tlsv1_client.c **** 	int used;
 1072              		.loc 1 335 2
 336:C:/Users/stapi/OneDrive/Desktop/GD32VW553/V1_MQTT_OK/GD32VW55X_Wifi_BLE_SDK/GD32VW55x_RELEASE_V1.0.2/MSDK/wpa_supplicant/src/tls\tlsv1_client.c **** 	u8 alert, *out_pos, ct;
 1073              		.loc 1 336 2
 337:C:/Users/stapi/OneDrive/Desktop/GD32VW553/V1_MQTT_OK/GD32VW55X_Wifi_BLE_SDK/GD32VW55x_RELEASE_V1.0.2/MSDK/wpa_supplicant/src/tls\tlsv1_client.c **** 	size_t olen;
 1074              		.loc 1 337 2
 338:C:/Users/stapi/OneDrive/Desktop/GD32VW553/V1_MQTT_OK/GD32VW55X_Wifi_BLE_SDK/GD32VW55x_RELEASE_V1.0.2/MSDK/wpa_supplicant/src/tls\tlsv1_client.c **** 	struct wpabuf *buf = NULL;
 1075              		.loc 1 338 2
 333:C:/Users/stapi/OneDrive/Desktop/GD32VW553/V1_MQTT_OK/GD32VW55X_Wifi_BLE_SDK/GD32VW55x_RELEASE_V1.0.2/MSDK/wpa_supplicant/src/tls\tlsv1_client.c **** 	const u8 *in_end, *pos;
 1076              		.loc 1 333 1 is_stmt 0
 1077 0008 0111     		addi	sp,sp,-32
 1078              		.cfi_def_cfa_offset 96
 1079              		.loc 1 338 17
 1080 000a 02CE     		sw	zero,28(sp)
 339:C:/Users/stapi/OneDrive/Desktop/GD32VW553/V1_MQTT_OK/GD32VW55X_Wifi_BLE_SDK/GD32VW55x_RELEASE_V1.0.2/MSDK/wpa_supplicant/src/tls\tlsv1_client.c **** 
 340:C:/Users/stapi/OneDrive/Desktop/GD32VW553/V1_MQTT_OK/GD32VW55X_Wifi_BLE_SDK/GD32VW55x_RELEASE_V1.0.2/MSDK/wpa_supplicant/src/tls\tlsv1_client.c **** 	if (need_more_data)
 1081              		.loc 1 340 2 is_stmt 1
 333:C:/Users/stapi/OneDrive/Desktop/GD32VW553/V1_MQTT_OK/GD32VW55X_Wifi_BLE_SDK/GD32VW55x_RELEASE_V1.0.2/MSDK/wpa_supplicant/src/tls\tlsv1_client.c **** 	const u8 *in_end, *pos;
 1082              		.loc 1 333 1 is_stmt 0
 1083 000c AA84     		mv	s1,a0
 1084 000e 2E84     		mv	s0,a1
 1085 0010 3289     		mv	s2,a2
 1086 0012 368A     		mv	s4,a3
 1087              		.loc 1 340 5
 1088 0014 99C2     		beq	a3,zero,.L75
 341:C:/Users/stapi/OneDrive/Desktop/GD32VW553/V1_MQTT_OK/GD32VW55X_Wifi_BLE_SDK/GD32VW55x_RELEASE_V1.0.2/MSDK/wpa_supplicant/src/tls\tlsv1_client.c **** 		*need_more_data = 0;
 1089              		.loc 1 341 3 is_stmt 1
 1090              		.loc 1 341 19 is_stmt 0
 1091 0016 23A00600 		sw	zero,0(a3)
 1092              	.L75:
 342:C:/Users/stapi/OneDrive/Desktop/GD32VW553/V1_MQTT_OK/GD32VW55X_Wifi_BLE_SDK/GD32VW55x_RELEASE_V1.0.2/MSDK/wpa_supplicant/src/tls\tlsv1_client.c **** 
 343:C:/Users/stapi/OneDrive/Desktop/GD32VW553/V1_MQTT_OK/GD32VW55X_Wifi_BLE_SDK/GD32VW55x_RELEASE_V1.0.2/MSDK/wpa_supplicant/src/tls\tlsv1_client.c **** 	if (conn->partial_input) {
 1093              		.loc 1 343 2 is_stmt 1
 1094              		.loc 1 343 5 is_stmt 0
 1095 001a 83A74421 		lw	a5,532(s1)
 1096 001e B9CB     		beq	a5,zero,.L76
 344:C:/Users/stapi/OneDrive/Desktop/GD32VW553/V1_MQTT_OK/GD32VW55X_Wifi_BLE_SDK/GD32VW55x_RELEASE_V1.0.2/MSDK/wpa_supplicant/src/tls\tlsv1_client.c **** 		if (wpabuf_resize(&conn->partial_input, in_len) < 0) {
 1097              		.loc 1 344 3 is_stmt 1
 1098              		.loc 1 344 7 is_stmt 0
 1099 0020 CA85     		mv	a1,s2
 1100              	.LVL119:
 1101 0022 13854421 		addi	a0,s1,532
 1102              	.LVL120:
 1103 0026 97000000 		call	wpabuf_resize
 1103      E7800000 
 1104              	.LVL121:
 1105              		.loc 1 344 6
 1106 002e 63500502 		bge	a0,zero,.L77
 1107              	.LVL122:
 1108              	.L84:
 345:C:/Users/stapi/OneDrive/Desktop/GD32VW553/V1_MQTT_OK/GD32VW55X_Wifi_BLE_SDK/GD32VW55x_RELEASE_V1.0.2/MSDK/wpa_supplicant/src/tls\tlsv1_client.c **** 			wpa_printf(MSG_DEBUG, "TLSv1: Failed to allocate "
 1109              		.loc 1 345 4 is_stmt 1
 1110 0032 B7050000 		lui	a1,%hi(.LC7)
 1111 0036 93850500 		addi	a1,a1,%lo(.LC7)
 1112 003a 0945     		li	a0,2
 1113 003c 97000000 		call	wpa_printf
 1113      E7800000 
 1114              	.LVL123:
 346:C:/Users/stapi/OneDrive/Desktop/GD32VW553/V1_MQTT_OK/GD32VW55X_Wifi_BLE_SDK/GD32VW55x_RELEASE_V1.0.2/MSDK/wpa_supplicant/src/tls\tlsv1_client.c **** 				   "memory for pending record");
 347:C:/Users/stapi/OneDrive/Desktop/GD32VW553/V1_MQTT_OK/GD32VW55X_Wifi_BLE_SDK/GD32VW55x_RELEASE_V1.0.2/MSDK/wpa_supplicant/src/tls\tlsv1_client.c **** 			alert = TLS_ALERT_INTERNAL_ERROR;
 1115              		.loc 1 347 4
 1116              	.L111:
 348:C:/Users/stapi/OneDrive/Desktop/GD32VW553/V1_MQTT_OK/GD32VW55X_Wifi_BLE_SDK/GD32VW55x_RELEASE_V1.0.2/MSDK/wpa_supplicant/src/tls\tlsv1_client.c **** 			goto fail;
 349:C:/Users/stapi/OneDrive/Desktop/GD32VW553/V1_MQTT_OK/GD32VW55X_Wifi_BLE_SDK/GD32VW55x_RELEASE_V1.0.2/MSDK/wpa_supplicant/src/tls\tlsv1_client.c **** 		}
 350:C:/Users/stapi/OneDrive/Desktop/GD32VW553/V1_MQTT_OK/GD32VW55X_Wifi_BLE_SDK/GD32VW55x_RELEASE_V1.0.2/MSDK/wpa_supplicant/src/tls\tlsv1_client.c **** 		wpabuf_put_data(conn->partial_input, in_data, in_len);
 351:C:/Users/stapi/OneDrive/Desktop/GD32VW553/V1_MQTT_OK/GD32VW55X_Wifi_BLE_SDK/GD32VW55x_RELEASE_V1.0.2/MSDK/wpa_supplicant/src/tls\tlsv1_client.c **** 		in_data = wpabuf_head(conn->partial_input);
 352:C:/Users/stapi/OneDrive/Desktop/GD32VW553/V1_MQTT_OK/GD32VW55X_Wifi_BLE_SDK/GD32VW55x_RELEASE_V1.0.2/MSDK/wpa_supplicant/src/tls\tlsv1_client.c **** 		in_len = wpabuf_len(conn->partial_input);
 353:C:/Users/stapi/OneDrive/Desktop/GD32VW553/V1_MQTT_OK/GD32VW55X_Wifi_BLE_SDK/GD32VW55x_RELEASE_V1.0.2/MSDK/wpa_supplicant/src/tls\tlsv1_client.c **** 	}
 354:C:/Users/stapi/OneDrive/Desktop/GD32VW553/V1_MQTT_OK/GD32VW55X_Wifi_BLE_SDK/GD32VW55x_RELEASE_V1.0.2/MSDK/wpa_supplicant/src/tls\tlsv1_client.c **** 
 355:C:/Users/stapi/OneDrive/Desktop/GD32VW553/V1_MQTT_OK/GD32VW55X_Wifi_BLE_SDK/GD32VW55x_RELEASE_V1.0.2/MSDK/wpa_supplicant/src/tls\tlsv1_client.c **** 	pos = in_data;
 356:C:/Users/stapi/OneDrive/Desktop/GD32VW553/V1_MQTT_OK/GD32VW55X_Wifi_BLE_SDK/GD32VW55x_RELEASE_V1.0.2/MSDK/wpa_supplicant/src/tls\tlsv1_client.c **** 	in_end = in_data + in_len;
 357:C:/Users/stapi/OneDrive/Desktop/GD32VW553/V1_MQTT_OK/GD32VW55X_Wifi_BLE_SDK/GD32VW55x_RELEASE_V1.0.2/MSDK/wpa_supplicant/src/tls\tlsv1_client.c **** 
 358:C:/Users/stapi/OneDrive/Desktop/GD32VW553/V1_MQTT_OK/GD32VW55X_Wifi_BLE_SDK/GD32VW55x_RELEASE_V1.0.2/MSDK/wpa_supplicant/src/tls\tlsv1_client.c **** 	while (pos < in_end) {
 359:C:/Users/stapi/OneDrive/Desktop/GD32VW553/V1_MQTT_OK/GD32VW55X_Wifi_BLE_SDK/GD32VW55x_RELEASE_V1.0.2/MSDK/wpa_supplicant/src/tls\tlsv1_client.c **** 		ct = pos[0];
 360:C:/Users/stapi/OneDrive/Desktop/GD32VW553/V1_MQTT_OK/GD32VW55X_Wifi_BLE_SDK/GD32VW55x_RELEASE_V1.0.2/MSDK/wpa_supplicant/src/tls\tlsv1_client.c **** 		if (wpabuf_resize(&buf, in_end - pos) < 0) {
 361:C:/Users/stapi/OneDrive/Desktop/GD32VW553/V1_MQTT_OK/GD32VW55X_Wifi_BLE_SDK/GD32VW55x_RELEASE_V1.0.2/MSDK/wpa_supplicant/src/tls\tlsv1_client.c **** 			alert = TLS_ALERT_INTERNAL_ERROR;
 1117              		.loc 1 361 4
 1118              		.loc 1 361 10 is_stmt 0
 1119 0044 93070005 		li	a5,80
 1120              	.L110:
 362:C:/Users/stapi/OneDrive/Desktop/GD32VW553/V1_MQTT_OK/GD32VW55X_Wifi_BLE_SDK/GD32VW55x_RELEASE_V1.0.2/MSDK/wpa_supplicant/src/tls\tlsv1_client.c **** 			goto fail;
 363:C:/Users/stapi/OneDrive/Desktop/GD32VW553/V1_MQTT_OK/GD32VW55X_Wifi_BLE_SDK/GD32VW55x_RELEASE_V1.0.2/MSDK/wpa_supplicant/src/tls\tlsv1_client.c **** 		}
 364:C:/Users/stapi/OneDrive/Desktop/GD32VW553/V1_MQTT_OK/GD32VW55X_Wifi_BLE_SDK/GD32VW55x_RELEASE_V1.0.2/MSDK/wpa_supplicant/src/tls\tlsv1_client.c **** 		out_pos = wpabuf_put(buf, 0);
 365:C:/Users/stapi/OneDrive/Desktop/GD32VW553/V1_MQTT_OK/GD32VW55X_Wifi_BLE_SDK/GD32VW55x_RELEASE_V1.0.2/MSDK/wpa_supplicant/src/tls\tlsv1_client.c **** 		olen = wpabuf_tailroom(buf);
 366:C:/Users/stapi/OneDrive/Desktop/GD32VW553/V1_MQTT_OK/GD32VW55X_Wifi_BLE_SDK/GD32VW55x_RELEASE_V1.0.2/MSDK/wpa_supplicant/src/tls\tlsv1_client.c **** 		used = tlsv1_record_receive(&conn->rl, pos, in_end - pos,
 367:C:/Users/stapi/OneDrive/Desktop/GD32VW553/V1_MQTT_OK/GD32VW55X_Wifi_BLE_SDK/GD32VW55x_RELEASE_V1.0.2/MSDK/wpa_supplicant/src/tls\tlsv1_client.c **** 					    out_pos, &olen, &alert);
 368:C:/Users/stapi/OneDrive/Desktop/GD32VW553/V1_MQTT_OK/GD32VW55X_Wifi_BLE_SDK/GD32VW55x_RELEASE_V1.0.2/MSDK/wpa_supplicant/src/tls\tlsv1_client.c **** 		if (used < 0) {
 369:C:/Users/stapi/OneDrive/Desktop/GD32VW553/V1_MQTT_OK/GD32VW55X_Wifi_BLE_SDK/GD32VW55x_RELEASE_V1.0.2/MSDK/wpa_supplicant/src/tls\tlsv1_client.c **** 			wpa_printf(MSG_DEBUG, "TLSv1: Record layer processing "
 370:C:/Users/stapi/OneDrive/Desktop/GD32VW553/V1_MQTT_OK/GD32VW55X_Wifi_BLE_SDK/GD32VW55x_RELEASE_V1.0.2/MSDK/wpa_supplicant/src/tls\tlsv1_client.c **** 				   "failed");
 371:C:/Users/stapi/OneDrive/Desktop/GD32VW553/V1_MQTT_OK/GD32VW55X_Wifi_BLE_SDK/GD32VW55x_RELEASE_V1.0.2/MSDK/wpa_supplicant/src/tls\tlsv1_client.c **** 			goto fail;
 372:C:/Users/stapi/OneDrive/Desktop/GD32VW553/V1_MQTT_OK/GD32VW55X_Wifi_BLE_SDK/GD32VW55x_RELEASE_V1.0.2/MSDK/wpa_supplicant/src/tls\tlsv1_client.c **** 		}
 373:C:/Users/stapi/OneDrive/Desktop/GD32VW553/V1_MQTT_OK/GD32VW55X_Wifi_BLE_SDK/GD32VW55x_RELEASE_V1.0.2/MSDK/wpa_supplicant/src/tls\tlsv1_client.c **** 		if (used == 0) {
 374:C:/Users/stapi/OneDrive/Desktop/GD32VW553/V1_MQTT_OK/GD32VW55X_Wifi_BLE_SDK/GD32VW55x_RELEASE_V1.0.2/MSDK/wpa_supplicant/src/tls\tlsv1_client.c **** 			struct wpabuf *partial;
 375:C:/Users/stapi/OneDrive/Desktop/GD32VW553/V1_MQTT_OK/GD32VW55X_Wifi_BLE_SDK/GD32VW55x_RELEASE_V1.0.2/MSDK/wpa_supplicant/src/tls\tlsv1_client.c **** 			wpa_printf(MSG_DEBUG, "TLSv1: Need more data");
 376:C:/Users/stapi/OneDrive/Desktop/GD32VW553/V1_MQTT_OK/GD32VW55X_Wifi_BLE_SDK/GD32VW55x_RELEASE_V1.0.2/MSDK/wpa_supplicant/src/tls\tlsv1_client.c **** 			partial = wpabuf_alloc_copy(pos, in_end - pos);
 377:C:/Users/stapi/OneDrive/Desktop/GD32VW553/V1_MQTT_OK/GD32VW55X_Wifi_BLE_SDK/GD32VW55x_RELEASE_V1.0.2/MSDK/wpa_supplicant/src/tls\tlsv1_client.c **** 			wpabuf_free(conn->partial_input);
 378:C:/Users/stapi/OneDrive/Desktop/GD32VW553/V1_MQTT_OK/GD32VW55X_Wifi_BLE_SDK/GD32VW55x_RELEASE_V1.0.2/MSDK/wpa_supplicant/src/tls\tlsv1_client.c **** 			conn->partial_input = partial;
 379:C:/Users/stapi/OneDrive/Desktop/GD32VW553/V1_MQTT_OK/GD32VW55X_Wifi_BLE_SDK/GD32VW55x_RELEASE_V1.0.2/MSDK/wpa_supplicant/src/tls\tlsv1_client.c **** 			if (conn->partial_input == NULL) {
 380:C:/Users/stapi/OneDrive/Desktop/GD32VW553/V1_MQTT_OK/GD32VW55X_Wifi_BLE_SDK/GD32VW55x_RELEASE_V1.0.2/MSDK/wpa_supplicant/src/tls\tlsv1_client.c **** 				wpa_printf(MSG_DEBUG, "TLSv1: Failed to "
 381:C:/Users/stapi/OneDrive/Desktop/GD32VW553/V1_MQTT_OK/GD32VW55X_Wifi_BLE_SDK/GD32VW55x_RELEASE_V1.0.2/MSDK/wpa_supplicant/src/tls\tlsv1_client.c **** 					   "allocate memory for pending "
 382:C:/Users/stapi/OneDrive/Desktop/GD32VW553/V1_MQTT_OK/GD32VW55X_Wifi_BLE_SDK/GD32VW55x_RELEASE_V1.0.2/MSDK/wpa_supplicant/src/tls\tlsv1_client.c **** 					   "record");
 383:C:/Users/stapi/OneDrive/Desktop/GD32VW553/V1_MQTT_OK/GD32VW55X_Wifi_BLE_SDK/GD32VW55x_RELEASE_V1.0.2/MSDK/wpa_supplicant/src/tls\tlsv1_client.c **** 				alert = TLS_ALERT_INTERNAL_ERROR;
 384:C:/Users/stapi/OneDrive/Desktop/GD32VW553/V1_MQTT_OK/GD32VW55X_Wifi_BLE_SDK/GD32VW55x_RELEASE_V1.0.2/MSDK/wpa_supplicant/src/tls\tlsv1_client.c **** 				goto fail;
 385:C:/Users/stapi/OneDrive/Desktop/GD32VW553/V1_MQTT_OK/GD32VW55X_Wifi_BLE_SDK/GD32VW55x_RELEASE_V1.0.2/MSDK/wpa_supplicant/src/tls\tlsv1_client.c **** 			}
 386:C:/Users/stapi/OneDrive/Desktop/GD32VW553/V1_MQTT_OK/GD32VW55X_Wifi_BLE_SDK/GD32VW55x_RELEASE_V1.0.2/MSDK/wpa_supplicant/src/tls\tlsv1_client.c **** 			if (need_more_data)
 387:C:/Users/stapi/OneDrive/Desktop/GD32VW553/V1_MQTT_OK/GD32VW55X_Wifi_BLE_SDK/GD32VW55x_RELEASE_V1.0.2/MSDK/wpa_supplicant/src/tls\tlsv1_client.c **** 				*need_more_data = 1;
 388:C:/Users/stapi/OneDrive/Desktop/GD32VW553/V1_MQTT_OK/GD32VW55X_Wifi_BLE_SDK/GD32VW55x_RELEASE_V1.0.2/MSDK/wpa_supplicant/src/tls\tlsv1_client.c **** 			return buf;
 389:C:/Users/stapi/OneDrive/Desktop/GD32VW553/V1_MQTT_OK/GD32VW55X_Wifi_BLE_SDK/GD32VW55x_RELEASE_V1.0.2/MSDK/wpa_supplicant/src/tls\tlsv1_client.c **** 		}
 390:C:/Users/stapi/OneDrive/Desktop/GD32VW553/V1_MQTT_OK/GD32VW55X_Wifi_BLE_SDK/GD32VW55x_RELEASE_V1.0.2/MSDK/wpa_supplicant/src/tls\tlsv1_client.c **** 
 391:C:/Users/stapi/OneDrive/Desktop/GD32VW553/V1_MQTT_OK/GD32VW55X_Wifi_BLE_SDK/GD32VW55x_RELEASE_V1.0.2/MSDK/wpa_supplicant/src/tls\tlsv1_client.c **** 		if (ct == TLS_CONTENT_TYPE_ALERT) {
 392:C:/Users/stapi/OneDrive/Desktop/GD32VW553/V1_MQTT_OK/GD32VW55X_Wifi_BLE_SDK/GD32VW55x_RELEASE_V1.0.2/MSDK/wpa_supplicant/src/tls\tlsv1_client.c **** 			if (olen < 2) {
 393:C:/Users/stapi/OneDrive/Desktop/GD32VW553/V1_MQTT_OK/GD32VW55X_Wifi_BLE_SDK/GD32VW55x_RELEASE_V1.0.2/MSDK/wpa_supplicant/src/tls\tlsv1_client.c **** 				wpa_printf(MSG_DEBUG, "TLSv1: Alert "
 394:C:/Users/stapi/OneDrive/Desktop/GD32VW553/V1_MQTT_OK/GD32VW55X_Wifi_BLE_SDK/GD32VW55x_RELEASE_V1.0.2/MSDK/wpa_supplicant/src/tls\tlsv1_client.c **** 					   "underflow");
 395:C:/Users/stapi/OneDrive/Desktop/GD32VW553/V1_MQTT_OK/GD32VW55X_Wifi_BLE_SDK/GD32VW55x_RELEASE_V1.0.2/MSDK/wpa_supplicant/src/tls\tlsv1_client.c **** 				alert = TLS_ALERT_DECODE_ERROR;
 396:C:/Users/stapi/OneDrive/Desktop/GD32VW553/V1_MQTT_OK/GD32VW55X_Wifi_BLE_SDK/GD32VW55x_RELEASE_V1.0.2/MSDK/wpa_supplicant/src/tls\tlsv1_client.c **** 				goto fail;
 397:C:/Users/stapi/OneDrive/Desktop/GD32VW553/V1_MQTT_OK/GD32VW55X_Wifi_BLE_SDK/GD32VW55x_RELEASE_V1.0.2/MSDK/wpa_supplicant/src/tls\tlsv1_client.c **** 			}
 398:C:/Users/stapi/OneDrive/Desktop/GD32VW553/V1_MQTT_OK/GD32VW55X_Wifi_BLE_SDK/GD32VW55x_RELEASE_V1.0.2/MSDK/wpa_supplicant/src/tls\tlsv1_client.c **** 			wpa_printf(MSG_DEBUG, "TLSv1: Received alert %d:%d",
 399:C:/Users/stapi/OneDrive/Desktop/GD32VW553/V1_MQTT_OK/GD32VW55X_Wifi_BLE_SDK/GD32VW55x_RELEASE_V1.0.2/MSDK/wpa_supplicant/src/tls\tlsv1_client.c **** 				   out_pos[0], out_pos[1]);
 400:C:/Users/stapi/OneDrive/Desktop/GD32VW553/V1_MQTT_OK/GD32VW55X_Wifi_BLE_SDK/GD32VW55x_RELEASE_V1.0.2/MSDK/wpa_supplicant/src/tls\tlsv1_client.c **** 			if (out_pos[0] == TLS_ALERT_LEVEL_WARNING) {
 401:C:/Users/stapi/OneDrive/Desktop/GD32VW553/V1_MQTT_OK/GD32VW55X_Wifi_BLE_SDK/GD32VW55x_RELEASE_V1.0.2/MSDK/wpa_supplicant/src/tls\tlsv1_client.c **** 				/* Continue processing */
 402:C:/Users/stapi/OneDrive/Desktop/GD32VW553/V1_MQTT_OK/GD32VW55X_Wifi_BLE_SDK/GD32VW55x_RELEASE_V1.0.2/MSDK/wpa_supplicant/src/tls\tlsv1_client.c **** 				pos += used;
 403:C:/Users/stapi/OneDrive/Desktop/GD32VW553/V1_MQTT_OK/GD32VW55X_Wifi_BLE_SDK/GD32VW55x_RELEASE_V1.0.2/MSDK/wpa_supplicant/src/tls\tlsv1_client.c **** 				continue;
 404:C:/Users/stapi/OneDrive/Desktop/GD32VW553/V1_MQTT_OK/GD32VW55X_Wifi_BLE_SDK/GD32VW55x_RELEASE_V1.0.2/MSDK/wpa_supplicant/src/tls\tlsv1_client.c **** 			}
 405:C:/Users/stapi/OneDrive/Desktop/GD32VW553/V1_MQTT_OK/GD32VW55X_Wifi_BLE_SDK/GD32VW55x_RELEASE_V1.0.2/MSDK/wpa_supplicant/src/tls\tlsv1_client.c **** 
 406:C:/Users/stapi/OneDrive/Desktop/GD32VW553/V1_MQTT_OK/GD32VW55X_Wifi_BLE_SDK/GD32VW55x_RELEASE_V1.0.2/MSDK/wpa_supplicant/src/tls\tlsv1_client.c **** 			alert = out_pos[1];
 1121              		.loc 1 406 10
 1122 0048 A30BF100 		sb	a5,23(sp)
 407:C:/Users/stapi/OneDrive/Desktop/GD32VW553/V1_MQTT_OK/GD32VW55X_Wifi_BLE_SDK/GD32VW55x_RELEASE_V1.0.2/MSDK/wpa_supplicant/src/tls\tlsv1_client.c **** 			goto fail;
 1123              		.loc 1 407 4 is_stmt 1
 1124 004c 7DA0     		j	.L78
 1125              	.LVL124:
 1126              	.L77:
 350:C:/Users/stapi/OneDrive/Desktop/GD32VW553/V1_MQTT_OK/GD32VW55X_Wifi_BLE_SDK/GD32VW55x_RELEASE_V1.0.2/MSDK/wpa_supplicant/src/tls\tlsv1_client.c **** 		in_data = wpabuf_head(conn->partial_input);
 1127              		.loc 1 350 3
 1128              	.LBB81:
 1129              	.LBB82:
 169:..\..\..\..\wpa_supplicant\src\utils/wpabuf.h **** 		os_memcpy(wpabuf_put(buf, len), data, len);
 1130              		.loc 3 169 2
 169:..\..\..\..\wpa_supplicant\src\utils/wpabuf.h **** 		os_memcpy(wpabuf_put(buf, len), data, len);
 1131              		.loc 3 169 5 is_stmt 0
 1132 004e 11CC     		beq	s0,zero,.L79
 1133              	.LVL125:
 1134              	.LBB83:
 1135              	.LBB84:
 1136              		.loc 3 170 3 is_stmt 1
 1137 0050 03A54421 		lw	a0,532(s1)
 1138 0054 CA85     		mv	a1,s2
 1139 0056 97000000 		call	wpabuf_put
 1139      E7800000 
 1140              	.LVL126:
 1141 005e 4A86     		mv	a2,s2
 1142 0060 A285     		mv	a1,s0
 1143 0062 97000000 		call	os_memcpy
 1143      E7800000 
 1144              	.LVL127:
 1145              	.L79:
 1146              	.LBE84:
 1147              	.LBE83:
 1148              	.LBE82:
 1149              	.LBE81:
 351:C:/Users/stapi/OneDrive/Desktop/GD32VW553/V1_MQTT_OK/GD32VW55X_Wifi_BLE_SDK/GD32VW55x_RELEASE_V1.0.2/MSDK/wpa_supplicant/src/tls\tlsv1_client.c **** 		in_len = wpabuf_len(conn->partial_input);
 1150              		.loc 1 351 3
 351:C:/Users/stapi/OneDrive/Desktop/GD32VW553/V1_MQTT_OK/GD32VW55X_Wifi_BLE_SDK/GD32VW55x_RELEASE_V1.0.2/MSDK/wpa_supplicant/src/tls\tlsv1_client.c **** 		in_len = wpabuf_len(conn->partial_input);
 1151              		.loc 1 351 29 is_stmt 0
 1152 006a 83A74421 		lw	a5,532(s1)
 1153              	.LVL128:
 1154              	.LBB85:
 1155              	.LBB86:
  95:..\..\..\..\wpa_supplicant\src\utils/wpabuf.h **** }
 1156              		.loc 3 95 2 is_stmt 1
  95:..\..\..\..\wpa_supplicant\src\utils/wpabuf.h **** }
 1157              		.loc 3 95 12 is_stmt 0
 1158 006e 8047     		lw	s0,8(a5)
 1159              	.LVL129:
 1160              	.LBE86:
 1161              	.LBE85:
 352:C:/Users/stapi/OneDrive/Desktop/GD32VW553/V1_MQTT_OK/GD32VW55X_Wifi_BLE_SDK/GD32VW55x_RELEASE_V1.0.2/MSDK/wpa_supplicant/src/tls\tlsv1_client.c **** 	}
 1162              		.loc 1 352 3 is_stmt 1
 1163              	.LBB87:
 1164              	.LBB88:
  60:..\..\..\..\wpa_supplicant\src\utils/wpabuf.h **** }
 1165              		.loc 3 60 2
  60:..\..\..\..\wpa_supplicant\src\utils/wpabuf.h **** }
 1166              		.loc 3 60 12 is_stmt 0
 1167 0070 03A94700 		lw	s2,4(a5)
 1168              	.LVL130:
 1169              	.L76:
 1170              	.LBE88:
 1171              	.LBE87:
 355:C:/Users/stapi/OneDrive/Desktop/GD32VW553/V1_MQTT_OK/GD32VW55X_Wifi_BLE_SDK/GD32VW55x_RELEASE_V1.0.2/MSDK/wpa_supplicant/src/tls\tlsv1_client.c **** 	in_end = in_data + in_len;
 1172              		.loc 1 355 2 is_stmt 1
 356:C:/Users/stapi/OneDrive/Desktop/GD32VW553/V1_MQTT_OK/GD32VW55X_Wifi_BLE_SDK/GD32VW55x_RELEASE_V1.0.2/MSDK/wpa_supplicant/src/tls\tlsv1_client.c **** 
 1173              		.loc 1 356 2
 366:C:/Users/stapi/OneDrive/Desktop/GD32VW553/V1_MQTT_OK/GD32VW55X_Wifi_BLE_SDK/GD32VW55x_RELEASE_V1.0.2/MSDK/wpa_supplicant/src/tls\tlsv1_client.c **** 					    out_pos, &olen, &alert);
 1174              		.loc 1 366 10 is_stmt 0
 1175 0074 93874400 		addi	a5,s1,4
 356:C:/Users/stapi/OneDrive/Desktop/GD32VW553/V1_MQTT_OK/GD32VW55X_Wifi_BLE_SDK/GD32VW55x_RELEASE_V1.0.2/MSDK/wpa_supplicant/src/tls\tlsv1_client.c **** 
 1176              		.loc 1 356 9
 1177 0078 2299     		add	s2,s0,s2
 1178              	.LVL131:
 358:C:/Users/stapi/OneDrive/Desktop/GD32VW553/V1_MQTT_OK/GD32VW55X_Wifi_BLE_SDK/GD32VW55x_RELEASE_V1.0.2/MSDK/wpa_supplicant/src/tls\tlsv1_client.c **** 		ct = pos[0];
 1179              		.loc 1 358 2 is_stmt 1
 366:C:/Users/stapi/OneDrive/Desktop/GD32VW553/V1_MQTT_OK/GD32VW55X_Wifi_BLE_SDK/GD32VW55x_RELEASE_V1.0.2/MSDK/wpa_supplicant/src/tls\tlsv1_client.c **** 					    out_pos, &olen, &alert);
 1180              		.loc 1 366 10 is_stmt 0
 1181 007a 3EC6     		sw	a5,12(sp)
 391:C:/Users/stapi/OneDrive/Desktop/GD32VW553/V1_MQTT_OK/GD32VW55X_Wifi_BLE_SDK/GD32VW55x_RELEASE_V1.0.2/MSDK/wpa_supplicant/src/tls\tlsv1_client.c **** 			if (olen < 2) {
 1182              		.loc 1 391 6
 1183 007c D54C     		li	s9,21
 408:C:/Users/stapi/OneDrive/Desktop/GD32VW553/V1_MQTT_OK/GD32VW55X_Wifi_BLE_SDK/GD32VW55x_RELEASE_V1.0.2/MSDK/wpa_supplicant/src/tls\tlsv1_client.c **** 		}
 409:C:/Users/stapi/OneDrive/Desktop/GD32VW553/V1_MQTT_OK/GD32VW55X_Wifi_BLE_SDK/GD32VW55x_RELEASE_V1.0.2/MSDK/wpa_supplicant/src/tls\tlsv1_client.c **** 
 410:C:/Users/stapi/OneDrive/Desktop/GD32VW553/V1_MQTT_OK/GD32VW55X_Wifi_BLE_SDK/GD32VW55x_RELEASE_V1.0.2/MSDK/wpa_supplicant/src/tls\tlsv1_client.c **** 		if (ct != TLS_CONTENT_TYPE_APPLICATION_DATA) {
 1184              		.loc 1 410 6
 1185 007e 5D4D     		li	s10,23
 392:C:/Users/stapi/OneDrive/Desktop/GD32VW553/V1_MQTT_OK/GD32VW55X_Wifi_BLE_SDK/GD32VW55x_RELEASE_V1.0.2/MSDK/wpa_supplicant/src/tls\tlsv1_client.c **** 				wpa_printf(MSG_DEBUG, "TLSv1: Alert "
 1186              		.loc 1 392 7
 1187 0080 054B     		li	s6,1
 398:C:/Users/stapi/OneDrive/Desktop/GD32VW553/V1_MQTT_OK/GD32VW55X_Wifi_BLE_SDK/GD32VW55x_RELEASE_V1.0.2/MSDK/wpa_supplicant/src/tls\tlsv1_client.c **** 				   out_pos[0], out_pos[1]);
 1188              		.loc 1 398 4
 1189 0082 B70D0000 		lui	s11,%hi(.LC14)
 1190              	.LVL132:
 1191              	.L80:
 358:C:/Users/stapi/OneDrive/Desktop/GD32VW553/V1_MQTT_OK/GD32VW55X_Wifi_BLE_SDK/GD32VW55x_RELEASE_V1.0.2/MSDK/wpa_supplicant/src/tls\tlsv1_client.c **** 		ct = pos[0];
 1192              		.loc 1 358 8 is_stmt 1
 1193 0086 636B2401 		bltu	s0,s2,.L92
 411:C:/Users/stapi/OneDrive/Desktop/GD32VW553/V1_MQTT_OK/GD32VW55X_Wifi_BLE_SDK/GD32VW55x_RELEASE_V1.0.2/MSDK/wpa_supplicant/src/tls\tlsv1_client.c **** 			wpa_printf(MSG_DEBUG, "TLSv1: Unexpected content type "
 412:C:/Users/stapi/OneDrive/Desktop/GD32VW553/V1_MQTT_OK/GD32VW55X_Wifi_BLE_SDK/GD32VW55x_RELEASE_V1.0.2/MSDK/wpa_supplicant/src/tls\tlsv1_client.c **** 				   "0x%x when decrypting application data",
 413:C:/Users/stapi/OneDrive/Desktop/GD32VW553/V1_MQTT_OK/GD32VW55X_Wifi_BLE_SDK/GD32VW55x_RELEASE_V1.0.2/MSDK/wpa_supplicant/src/tls\tlsv1_client.c **** 				   pos[0]);
 414:C:/Users/stapi/OneDrive/Desktop/GD32VW553/V1_MQTT_OK/GD32VW55X_Wifi_BLE_SDK/GD32VW55x_RELEASE_V1.0.2/MSDK/wpa_supplicant/src/tls\tlsv1_client.c **** 			alert = TLS_ALERT_UNEXPECTED_MESSAGE;
 415:C:/Users/stapi/OneDrive/Desktop/GD32VW553/V1_MQTT_OK/GD32VW55X_Wifi_BLE_SDK/GD32VW55x_RELEASE_V1.0.2/MSDK/wpa_supplicant/src/tls\tlsv1_client.c **** 			goto fail;
 416:C:/Users/stapi/OneDrive/Desktop/GD32VW553/V1_MQTT_OK/GD32VW55X_Wifi_BLE_SDK/GD32VW55x_RELEASE_V1.0.2/MSDK/wpa_supplicant/src/tls\tlsv1_client.c **** 		}
 417:C:/Users/stapi/OneDrive/Desktop/GD32VW553/V1_MQTT_OK/GD32VW55X_Wifi_BLE_SDK/GD32VW55x_RELEASE_V1.0.2/MSDK/wpa_supplicant/src/tls\tlsv1_client.c **** 
 418:C:/Users/stapi/OneDrive/Desktop/GD32VW553/V1_MQTT_OK/GD32VW55X_Wifi_BLE_SDK/GD32VW55x_RELEASE_V1.0.2/MSDK/wpa_supplicant/src/tls\tlsv1_client.c **** 		wpabuf_put(buf, olen);
 419:C:/Users/stapi/OneDrive/Desktop/GD32VW553/V1_MQTT_OK/GD32VW55X_Wifi_BLE_SDK/GD32VW55x_RELEASE_V1.0.2/MSDK/wpa_supplicant/src/tls\tlsv1_client.c **** 
 420:C:/Users/stapi/OneDrive/Desktop/GD32VW553/V1_MQTT_OK/GD32VW55X_Wifi_BLE_SDK/GD32VW55x_RELEASE_V1.0.2/MSDK/wpa_supplicant/src/tls\tlsv1_client.c **** 		pos += used;
 421:C:/Users/stapi/OneDrive/Desktop/GD32VW553/V1_MQTT_OK/GD32VW55X_Wifi_BLE_SDK/GD32VW55x_RELEASE_V1.0.2/MSDK/wpa_supplicant/src/tls\tlsv1_client.c **** 	}
 422:C:/Users/stapi/OneDrive/Desktop/GD32VW553/V1_MQTT_OK/GD32VW55X_Wifi_BLE_SDK/GD32VW55x_RELEASE_V1.0.2/MSDK/wpa_supplicant/src/tls\tlsv1_client.c **** 
 423:C:/Users/stapi/OneDrive/Desktop/GD32VW553/V1_MQTT_OK/GD32VW55X_Wifi_BLE_SDK/GD32VW55x_RELEASE_V1.0.2/MSDK/wpa_supplicant/src/tls\tlsv1_client.c **** 	wpabuf_free(conn->partial_input);
 1194              		.loc 1 423 2
 1195 008a 03A54421 		lw	a0,532(s1)
 1196 008e 97000000 		call	wpabuf_free
 1196      E7800000 
 1197              	.LVL133:
 424:C:/Users/stapi/OneDrive/Desktop/GD32VW553/V1_MQTT_OK/GD32VW55X_Wifi_BLE_SDK/GD32VW55x_RELEASE_V1.0.2/MSDK/wpa_supplicant/src/tls\tlsv1_client.c **** 	conn->partial_input = NULL;
 1198              		.loc 1 424 2
 1199              		.loc 1 424 22 is_stmt 0
 1200 0096 23AA0420 		sw	zero,532(s1)
 1201 009a F1A0     		j	.L112
 1202              	.L92:
 359:C:/Users/stapi/OneDrive/Desktop/GD32VW553/V1_MQTT_OK/GD32VW55X_Wifi_BLE_SDK/GD32VW55x_RELEASE_V1.0.2/MSDK/wpa_supplicant/src/tls\tlsv1_client.c **** 		if (wpabuf_resize(&buf, in_end - pos) < 0) {
 1203              		.loc 1 359 3 is_stmt 1
 360:C:/Users/stapi/OneDrive/Desktop/GD32VW553/V1_MQTT_OK/GD32VW55X_Wifi_BLE_SDK/GD32VW55x_RELEASE_V1.0.2/MSDK/wpa_supplicant/src/tls\tlsv1_client.c **** 			alert = TLS_ALERT_INTERNAL_ERROR;
 1204              		.loc 1 360 34 is_stmt 0
 1205 009c B30A8940 		sub	s5,s2,s0
 360:C:/Users/stapi/OneDrive/Desktop/GD32VW553/V1_MQTT_OK/GD32VW55X_Wifi_BLE_SDK/GD32VW55x_RELEASE_V1.0.2/MSDK/wpa_supplicant/src/tls\tlsv1_client.c **** 			alert = TLS_ALERT_INTERNAL_ERROR;
 1206              		.loc 1 360 7
 1207 00a0 D685     		mv	a1,s5
 1208 00a2 6808     		addi	a0,sp,28
 359:C:/Users/stapi/OneDrive/Desktop/GD32VW553/V1_MQTT_OK/GD32VW55X_Wifi_BLE_SDK/GD32VW55x_RELEASE_V1.0.2/MSDK/wpa_supplicant/src/tls\tlsv1_client.c **** 		if (wpabuf_resize(&buf, in_end - pos) < 0) {
 1209              		.loc 1 359 6
 1210 00a4 834B0400 		lbu	s7,0(s0)
 1211              	.LVL134:
 360:C:/Users/stapi/OneDrive/Desktop/GD32VW553/V1_MQTT_OK/GD32VW55X_Wifi_BLE_SDK/GD32VW55x_RELEASE_V1.0.2/MSDK/wpa_supplicant/src/tls\tlsv1_client.c **** 			alert = TLS_ALERT_INTERNAL_ERROR;
 1212              		.loc 1 360 3 is_stmt 1
 360:C:/Users/stapi/OneDrive/Desktop/GD32VW553/V1_MQTT_OK/GD32VW55X_Wifi_BLE_SDK/GD32VW55x_RELEASE_V1.0.2/MSDK/wpa_supplicant/src/tls\tlsv1_client.c **** 			alert = TLS_ALERT_INTERNAL_ERROR;
 1213              		.loc 1 360 7 is_stmt 0
 1214 00a8 97000000 		call	wpabuf_resize
 1214      E7800000 
 1215              	.LVL135:
 360:C:/Users/stapi/OneDrive/Desktop/GD32VW553/V1_MQTT_OK/GD32VW55X_Wifi_BLE_SDK/GD32VW55x_RELEASE_V1.0.2/MSDK/wpa_supplicant/src/tls\tlsv1_client.c **** 			alert = TLS_ALERT_INTERNAL_ERROR;
 1216              		.loc 1 360 6
 1217 00b0 E34A05F8 		blt	a0,zero,.L111
 364:C:/Users/stapi/OneDrive/Desktop/GD32VW553/V1_MQTT_OK/GD32VW55X_Wifi_BLE_SDK/GD32VW55x_RELEASE_V1.0.2/MSDK/wpa_supplicant/src/tls\tlsv1_client.c **** 		olen = wpabuf_tailroom(buf);
 1218              		.loc 1 364 3 is_stmt 1
 364:C:/Users/stapi/OneDrive/Desktop/GD32VW553/V1_MQTT_OK/GD32VW55X_Wifi_BLE_SDK/GD32VW55x_RELEASE_V1.0.2/MSDK/wpa_supplicant/src/tls\tlsv1_client.c **** 		olen = wpabuf_tailroom(buf);
 1219              		.loc 1 364 13 is_stmt 0
 1220 00b4 7245     		lw	a0,28(sp)
 1221 00b6 8145     		li	a1,0
 1222 00b8 97000000 		call	wpabuf_put
 1222      E7800000 
 1223              	.LVL136:
 365:C:/Users/stapi/OneDrive/Desktop/GD32VW553/V1_MQTT_OK/GD32VW55X_Wifi_BLE_SDK/GD32VW55x_RELEASE_V1.0.2/MSDK/wpa_supplicant/src/tls\tlsv1_client.c **** 		used = tlsv1_record_receive(&conn->rl, pos, in_end - pos,
 1224              		.loc 1 365 10
 1225 00c0 7247     		lw	a4,28(sp)
 366:C:/Users/stapi/OneDrive/Desktop/GD32VW553/V1_MQTT_OK/GD32VW55X_Wifi_BLE_SDK/GD32VW55x_RELEASE_V1.0.2/MSDK/wpa_supplicant/src/tls\tlsv1_client.c **** 					    out_pos, &olen, &alert);
 1226              		.loc 1 366 10
 1227 00c2 AA86     		mv	a3,a0
 364:C:/Users/stapi/OneDrive/Desktop/GD32VW553/V1_MQTT_OK/GD32VW55X_Wifi_BLE_SDK/GD32VW55x_RELEASE_V1.0.2/MSDK/wpa_supplicant/src/tls\tlsv1_client.c **** 		olen = wpabuf_tailroom(buf);
 1228              		.loc 1 364 13
 1229 00c4 AA89     		mv	s3,a0
 1230              	.LVL137:
 365:C:/Users/stapi/OneDrive/Desktop/GD32VW553/V1_MQTT_OK/GD32VW55X_Wifi_BLE_SDK/GD32VW55x_RELEASE_V1.0.2/MSDK/wpa_supplicant/src/tls\tlsv1_client.c **** 		used = tlsv1_record_receive(&conn->rl, pos, in_end - pos,
 1231              		.loc 1 365 3 is_stmt 1
 1232              	.LBB89:
 1233              	.LBB90:
  70:..\..\..\..\wpa_supplicant\src\utils/wpabuf.h **** }
 1234              		.loc 3 70 2
  70:..\..\..\..\wpa_supplicant\src\utils/wpabuf.h **** }
 1235              		.loc 3 70 19 is_stmt 0
 1236 00c6 1C43     		lw	a5,0(a4)
 1237 00c8 5843     		lw	a4,4(a4)
 1238              	.LBE90:
 1239              	.LBE89:
 366:C:/Users/stapi/OneDrive/Desktop/GD32VW553/V1_MQTT_OK/GD32VW55X_Wifi_BLE_SDK/GD32VW55x_RELEASE_V1.0.2/MSDK/wpa_supplicant/src/tls\tlsv1_client.c **** 					    out_pos, &olen, &alert);
 1240              		.loc 1 366 10
 1241 00ca 3245     		lw	a0,12(sp)
 1242              	.LVL138:
 1243 00cc 5686     		mv	a2,s5
 1244              	.LBB92:
 1245              	.LBB91:
  70:..\..\..\..\wpa_supplicant\src\utils/wpabuf.h **** }
 1246              		.loc 3 70 19
 1247 00ce 998F     		sub	a5,a5,a4
 1248              	.LBE91:
 1249              	.LBE92:
 365:C:/Users/stapi/OneDrive/Desktop/GD32VW553/V1_MQTT_OK/GD32VW55X_Wifi_BLE_SDK/GD32VW55x_RELEASE_V1.0.2/MSDK/wpa_supplicant/src/tls\tlsv1_client.c **** 		used = tlsv1_record_receive(&conn->rl, pos, in_end - pos,
 1250              		.loc 1 365 8
 1251 00d0 3ECC     		sw	a5,24(sp)
 366:C:/Users/stapi/OneDrive/Desktop/GD32VW553/V1_MQTT_OK/GD32VW55X_Wifi_BLE_SDK/GD32VW55x_RELEASE_V1.0.2/MSDK/wpa_supplicant/src/tls\tlsv1_client.c **** 					    out_pos, &olen, &alert);
 1252              		.loc 1 366 3 is_stmt 1
 366:C:/Users/stapi/OneDrive/Desktop/GD32VW553/V1_MQTT_OK/GD32VW55X_Wifi_BLE_SDK/GD32VW55x_RELEASE_V1.0.2/MSDK/wpa_supplicant/src/tls\tlsv1_client.c **** 					    out_pos, &olen, &alert);
 1253              		.loc 1 366 10 is_stmt 0
 1254 00d2 3808     		addi	a4,sp,24
 1255 00d4 93077101 		addi	a5,sp,23
 1256 00d8 A285     		mv	a1,s0
 1257 00da 97000000 		call	tlsv1_record_receive
 1257      E7800000 
 1258              	.LVL139:
 1259 00e2 2A8C     		mv	s8,a0
 1260              	.LVL140:
 368:C:/Users/stapi/OneDrive/Desktop/GD32VW553/V1_MQTT_OK/GD32VW55X_Wifi_BLE_SDK/GD32VW55x_RELEASE_V1.0.2/MSDK/wpa_supplicant/src/tls\tlsv1_client.c **** 			wpa_printf(MSG_DEBUG, "TLSv1: Record layer processing "
 1261              		.loc 1 368 3 is_stmt 1
 368:C:/Users/stapi/OneDrive/Desktop/GD32VW553/V1_MQTT_OK/GD32VW55X_Wifi_BLE_SDK/GD32VW55x_RELEASE_V1.0.2/MSDK/wpa_supplicant/src/tls\tlsv1_client.c **** 			wpa_printf(MSG_DEBUG, "TLSv1: Record layer processing "
 1262              		.loc 1 368 6 is_stmt 0
 1263 00e4 63510504 		bge	a0,zero,.L82
 369:C:/Users/stapi/OneDrive/Desktop/GD32VW553/V1_MQTT_OK/GD32VW55X_Wifi_BLE_SDK/GD32VW55x_RELEASE_V1.0.2/MSDK/wpa_supplicant/src/tls\tlsv1_client.c **** 				   "failed");
 1264              		.loc 1 369 4 is_stmt 1
 1265 00e8 B7050000 		lui	a1,%hi(.LC12)
 1266 00ec 93850500 		addi	a1,a1,%lo(.LC12)
 1267 00f0 0945     		li	a0,2
 1268              	.LVL141:
 1269 00f2 97000000 		call	wpa_printf
 1269      E7800000 
 1270              	.LVL142:
 371:C:/Users/stapi/OneDrive/Desktop/GD32VW553/V1_MQTT_OK/GD32VW55X_Wifi_BLE_SDK/GD32VW55x_RELEASE_V1.0.2/MSDK/wpa_supplicant/src/tls\tlsv1_client.c **** 		}
 1271              		.loc 1 371 4
 1272              	.L78:
 425:C:/Users/stapi/OneDrive/Desktop/GD32VW553/V1_MQTT_OK/GD32VW55X_Wifi_BLE_SDK/GD32VW55x_RELEASE_V1.0.2/MSDK/wpa_supplicant/src/tls\tlsv1_client.c **** 	return buf;
 426:C:/Users/stapi/OneDrive/Desktop/GD32VW553/V1_MQTT_OK/GD32VW55X_Wifi_BLE_SDK/GD32VW55x_RELEASE_V1.0.2/MSDK/wpa_supplicant/src/tls\tlsv1_client.c **** 
 427:C:/Users/stapi/OneDrive/Desktop/GD32VW553/V1_MQTT_OK/GD32VW55X_Wifi_BLE_SDK/GD32VW55x_RELEASE_V1.0.2/MSDK/wpa_supplicant/src/tls\tlsv1_client.c **** fail:
 428:C:/Users/stapi/OneDrive/Desktop/GD32VW553/V1_MQTT_OK/GD32VW55X_Wifi_BLE_SDK/GD32VW55x_RELEASE_V1.0.2/MSDK/wpa_supplicant/src/tls\tlsv1_client.c **** 	wpabuf_free(buf);
 1273              		.loc 1 428 2
 1274 00fa 7245     		lw	a0,28(sp)
 1275 00fc 97000000 		call	wpabuf_free
 1275      E7800000 
 1276              	.LVL143:
 429:C:/Users/stapi/OneDrive/Desktop/GD32VW553/V1_MQTT_OK/GD32VW55X_Wifi_BLE_SDK/GD32VW55x_RELEASE_V1.0.2/MSDK/wpa_supplicant/src/tls\tlsv1_client.c **** 	wpabuf_free(conn->partial_input);
 1277              		.loc 1 429 2
 1278 0104 03A54421 		lw	a0,532(s1)
 1279 0108 97000000 		call	wpabuf_free
 1279      E7800000 
 1280              	.LVL144:
 430:C:/Users/stapi/OneDrive/Desktop/GD32VW553/V1_MQTT_OK/GD32VW55X_Wifi_BLE_SDK/GD32VW55x_RELEASE_V1.0.2/MSDK/wpa_supplicant/src/tls\tlsv1_client.c **** 	conn->partial_input = NULL;
 1281              		.loc 1 430 2
 431:C:/Users/stapi/OneDrive/Desktop/GD32VW553/V1_MQTT_OK/GD32VW55X_Wifi_BLE_SDK/GD32VW55x_RELEASE_V1.0.2/MSDK/wpa_supplicant/src/tls\tlsv1_client.c **** 	tls_alert(conn, TLS_ALERT_LEVEL_FATAL, alert);
 1282              		.loc 1 431 2 is_stmt 0
 1283 0110 83477101 		lbu	a5,23(sp)
 1284              	.LBB93:
 1285              	.LBB94:
  27:C:/Users/stapi/OneDrive/Desktop/GD32VW553/V1_MQTT_OK/GD32VW55X_Wifi_BLE_SDK/GD32VW55x_RELEASE_V1.0.2/MSDK/wpa_supplicant/src/tls\tlsv1_client.c **** 	conn->alert_description = description;
 1286              		.loc 1 27 20
 1287 0114 0947     		li	a4,2
 1288              	.LBE94:
 1289              	.LBE93:
 430:C:/Users/stapi/OneDrive/Desktop/GD32VW553/V1_MQTT_OK/GD32VW55X_Wifi_BLE_SDK/GD32VW55x_RELEASE_V1.0.2/MSDK/wpa_supplicant/src/tls\tlsv1_client.c **** 	conn->partial_input = NULL;
 1290              		.loc 1 430 22
 1291 0116 23AA0420 		sw	zero,532(s1)
 1292              		.loc 1 431 2 is_stmt 1
 1293              	.LVL145:
 1294              	.LBB96:
 1295              	.LBB95:
  27:C:/Users/stapi/OneDrive/Desktop/GD32VW553/V1_MQTT_OK/GD32VW55X_Wifi_BLE_SDK/GD32VW55x_RELEASE_V1.0.2/MSDK/wpa_supplicant/src/tls\tlsv1_client.c **** 	conn->alert_description = description;
 1296              		.loc 1 27 2
  27:C:/Users/stapi/OneDrive/Desktop/GD32VW553/V1_MQTT_OK/GD32VW55X_Wifi_BLE_SDK/GD32VW55x_RELEASE_V1.0.2/MSDK/wpa_supplicant/src/tls\tlsv1_client.c **** 	conn->alert_description = description;
 1297              		.loc 1 27 20 is_stmt 0
 1298 011a 2388E416 		sb	a4,368(s1)
  28:C:/Users/stapi/OneDrive/Desktop/GD32VW553/V1_MQTT_OK/GD32VW55X_Wifi_BLE_SDK/GD32VW55x_RELEASE_V1.0.2/MSDK/wpa_supplicant/src/tls\tlsv1_client.c **** }
 1299              		.loc 1 28 2 is_stmt 1
  28:C:/Users/stapi/OneDrive/Desktop/GD32VW553/V1_MQTT_OK/GD32VW55X_Wifi_BLE_SDK/GD32VW55x_RELEASE_V1.0.2/MSDK/wpa_supplicant/src/tls\tlsv1_client.c **** }
 1300              		.loc 1 28 26 is_stmt 0
 1301 011e A388F416 		sb	a5,369(s1)
 1302              	.LVL146:
 1303              	.LBE95:
 1304              	.LBE96:
 432:C:/Users/stapi/OneDrive/Desktop/GD32VW553/V1_MQTT_OK/GD32VW55X_Wifi_BLE_SDK/GD32VW55x_RELEASE_V1.0.2/MSDK/wpa_supplicant/src/tls\tlsv1_client.c **** 	return NULL;
 1305              		.loc 1 432 2 is_stmt 1
 1306              		.loc 1 432 9 is_stmt 0
 1307 0122 0145     		li	a0,0
 1308 0124 91A0     		j	.L74
 1309              	.LVL147:
 1310              	.L82:
 373:C:/Users/stapi/OneDrive/Desktop/GD32VW553/V1_MQTT_OK/GD32VW55X_Wifi_BLE_SDK/GD32VW55x_RELEASE_V1.0.2/MSDK/wpa_supplicant/src/tls\tlsv1_client.c **** 			struct wpabuf *partial;
 1311              		.loc 1 373 3 is_stmt 1
 373:C:/Users/stapi/OneDrive/Desktop/GD32VW553/V1_MQTT_OK/GD32VW55X_Wifi_BLE_SDK/GD32VW55x_RELEASE_V1.0.2/MSDK/wpa_supplicant/src/tls\tlsv1_client.c **** 			struct wpabuf *partial;
 1312              		.loc 1 373 6 is_stmt 0
 1313 0126 31E5     		bne	a0,zero,.L83
 1314              	.LBB97:
 374:C:/Users/stapi/OneDrive/Desktop/GD32VW553/V1_MQTT_OK/GD32VW55X_Wifi_BLE_SDK/GD32VW55x_RELEASE_V1.0.2/MSDK/wpa_supplicant/src/tls\tlsv1_client.c **** 			wpa_printf(MSG_DEBUG, "TLSv1: Need more data");
 1315              		.loc 1 374 4 is_stmt 1
 375:C:/Users/stapi/OneDrive/Desktop/GD32VW553/V1_MQTT_OK/GD32VW55X_Wifi_BLE_SDK/GD32VW55x_RELEASE_V1.0.2/MSDK/wpa_supplicant/src/tls\tlsv1_client.c **** 			partial = wpabuf_alloc_copy(pos, in_end - pos);
 1316              		.loc 1 375 4
 1317 0128 B7050000 		lui	a1,%hi(.LC9)
 1318 012c 93850500 		addi	a1,a1,%lo(.LC9)
 1319 0130 0945     		li	a0,2
 1320              	.LVL148:
 1321 0132 97000000 		call	wpa_printf
 1321      E7800000 
 1322              	.LVL149:
 376:C:/Users/stapi/OneDrive/Desktop/GD32VW553/V1_MQTT_OK/GD32VW55X_Wifi_BLE_SDK/GD32VW55x_RELEASE_V1.0.2/MSDK/wpa_supplicant/src/tls\tlsv1_client.c **** 			wpabuf_free(conn->partial_input);
 1323              		.loc 1 376 4
 376:C:/Users/stapi/OneDrive/Desktop/GD32VW553/V1_MQTT_OK/GD32VW55X_Wifi_BLE_SDK/GD32VW55x_RELEASE_V1.0.2/MSDK/wpa_supplicant/src/tls\tlsv1_client.c **** 			wpabuf_free(conn->partial_input);
 1324              		.loc 1 376 14 is_stmt 0
 1325 013a D685     		mv	a1,s5
 1326 013c 2285     		mv	a0,s0
 1327 013e 97000000 		call	wpabuf_alloc_copy
 1327      E7800000 
 1328              	.LVL150:
 1329 0146 2A84     		mv	s0,a0
 1330              	.LVL151:
 377:C:/Users/stapi/OneDrive/Desktop/GD32VW553/V1_MQTT_OK/GD32VW55X_Wifi_BLE_SDK/GD32VW55x_RELEASE_V1.0.2/MSDK/wpa_supplicant/src/tls\tlsv1_client.c **** 			conn->partial_input = partial;
 1331              		.loc 1 377 4 is_stmt 1
 1332 0148 03A54421 		lw	a0,532(s1)
 1333 014c 97000000 		call	wpabuf_free
 1333      E7800000 
 1334              	.LVL152:
 378:C:/Users/stapi/OneDrive/Desktop/GD32VW553/V1_MQTT_OK/GD32VW55X_Wifi_BLE_SDK/GD32VW55x_RELEASE_V1.0.2/MSDK/wpa_supplicant/src/tls\tlsv1_client.c **** 			if (conn->partial_input == NULL) {
 1335              		.loc 1 378 4
 378:C:/Users/stapi/OneDrive/Desktop/GD32VW553/V1_MQTT_OK/GD32VW55X_Wifi_BLE_SDK/GD32VW55x_RELEASE_V1.0.2/MSDK/wpa_supplicant/src/tls\tlsv1_client.c **** 			if (conn->partial_input == NULL) {
 1336              		.loc 1 378 24 is_stmt 0
 1337 0154 23AA8420 		sw	s0,532(s1)
 379:C:/Users/stapi/OneDrive/Desktop/GD32VW553/V1_MQTT_OK/GD32VW55X_Wifi_BLE_SDK/GD32VW55x_RELEASE_V1.0.2/MSDK/wpa_supplicant/src/tls\tlsv1_client.c **** 				wpa_printf(MSG_DEBUG, "TLSv1: Failed to "
 1338              		.loc 1 379 4 is_stmt 1
 379:C:/Users/stapi/OneDrive/Desktop/GD32VW553/V1_MQTT_OK/GD32VW55X_Wifi_BLE_SDK/GD32VW55x_RELEASE_V1.0.2/MSDK/wpa_supplicant/src/tls\tlsv1_client.c **** 				wpa_printf(MSG_DEBUG, "TLSv1: Failed to "
 1339              		.loc 1 379 7 is_stmt 0
 1340 0158 E30D04EC 		beq	s0,zero,.L84
 386:C:/Users/stapi/OneDrive/Desktop/GD32VW553/V1_MQTT_OK/GD32VW55X_Wifi_BLE_SDK/GD32VW55x_RELEASE_V1.0.2/MSDK/wpa_supplicant/src/tls\tlsv1_client.c **** 				*need_more_data = 1;
 1341              		.loc 1 386 4 is_stmt 1
 386:C:/Users/stapi/OneDrive/Desktop/GD32VW553/V1_MQTT_OK/GD32VW55X_Wifi_BLE_SDK/GD32VW55x_RELEASE_V1.0.2/MSDK/wpa_supplicant/src/tls\tlsv1_client.c **** 				*need_more_data = 1;
 1342              		.loc 1 386 7 is_stmt 0
 1343 015c 63050A00 		beq	s4,zero,.L112
 387:C:/Users/stapi/OneDrive/Desktop/GD32VW553/V1_MQTT_OK/GD32VW55X_Wifi_BLE_SDK/GD32VW55x_RELEASE_V1.0.2/MSDK/wpa_supplicant/src/tls\tlsv1_client.c **** 			return buf;
 1344              		.loc 1 387 5 is_stmt 1
 387:C:/Users/stapi/OneDrive/Desktop/GD32VW553/V1_MQTT_OK/GD32VW55X_Wifi_BLE_SDK/GD32VW55x_RELEASE_V1.0.2/MSDK/wpa_supplicant/src/tls\tlsv1_client.c **** 			return buf;
 1345              		.loc 1 387 21 is_stmt 0
 1346 0160 8547     		li	a5,1
 1347 0162 2320FA00 		sw	a5,0(s4)
 388:C:/Users/stapi/OneDrive/Desktop/GD32VW553/V1_MQTT_OK/GD32VW55X_Wifi_BLE_SDK/GD32VW55x_RELEASE_V1.0.2/MSDK/wpa_supplicant/src/tls\tlsv1_client.c **** 		}
 1348              		.loc 1 388 4 is_stmt 1
 1349              	.LVL153:
 1350              	.L112:
 1351              	.LBE97:
 425:C:/Users/stapi/OneDrive/Desktop/GD32VW553/V1_MQTT_OK/GD32VW55X_Wifi_BLE_SDK/GD32VW55x_RELEASE_V1.0.2/MSDK/wpa_supplicant/src/tls\tlsv1_client.c **** 
 1352              		.loc 1 425 2
 425:C:/Users/stapi/OneDrive/Desktop/GD32VW553/V1_MQTT_OK/GD32VW55X_Wifi_BLE_SDK/GD32VW55x_RELEASE_V1.0.2/MSDK/wpa_supplicant/src/tls\tlsv1_client.c **** 
 1353              		.loc 1 425 9 is_stmt 0
 1354 0166 7245     		lw	a0,28(sp)
 1355              	.LVL154:
 1356              	.L74:
 433:C:/Users/stapi/OneDrive/Desktop/GD32VW553/V1_MQTT_OK/GD32VW55X_Wifi_BLE_SDK/GD32VW55x_RELEASE_V1.0.2/MSDK/wpa_supplicant/src/tls\tlsv1_client.c **** }
 1357              		.loc 1 433 1
 1358 0168 0561     		addi	sp,sp,32
 1359              		.cfi_remember_state
 1360              		.cfi_def_cfa_offset 0
 1361 016a 17030000 		tail	__riscv_restore_12
 1361      67000300 
 1362              		.cfi_restore 27
 1363              		.cfi_restore 26
 1364              		.cfi_restore 25
 1365              		.cfi_restore 24
 1366              		.cfi_restore 23
 1367              		.cfi_restore 22
 1368              		.cfi_restore 21
 1369              		.cfi_restore 20
 1370              		.cfi_restore 19
 1371              		.cfi_restore 18
 1372              		.cfi_restore 9
 1373              		.cfi_restore 8
 1374              		.cfi_restore 1
 1375              		.cfi_def_cfa_offset -64
 1376              	.LVL155:
 1377              	.L83:
 1378              		.cfi_restore_state
 391:C:/Users/stapi/OneDrive/Desktop/GD32VW553/V1_MQTT_OK/GD32VW55X_Wifi_BLE_SDK/GD32VW55x_RELEASE_V1.0.2/MSDK/wpa_supplicant/src/tls\tlsv1_client.c **** 			if (olen < 2) {
 1379              		.loc 1 391 3 is_stmt 1
 391:C:/Users/stapi/OneDrive/Desktop/GD32VW553/V1_MQTT_OK/GD32VW55X_Wifi_BLE_SDK/GD32VW55x_RELEASE_V1.0.2/MSDK/wpa_supplicant/src/tls\tlsv1_client.c **** 			if (olen < 2) {
 1380              		.loc 1 391 6 is_stmt 0
 1381 0172 63959B05 		bne	s7,s9,.L87
 392:C:/Users/stapi/OneDrive/Desktop/GD32VW553/V1_MQTT_OK/GD32VW55X_Wifi_BLE_SDK/GD32VW55x_RELEASE_V1.0.2/MSDK/wpa_supplicant/src/tls\tlsv1_client.c **** 				wpa_printf(MSG_DEBUG, "TLSv1: Alert "
 1382              		.loc 1 392 4 is_stmt 1
 392:C:/Users/stapi/OneDrive/Desktop/GD32VW553/V1_MQTT_OK/GD32VW55X_Wifi_BLE_SDK/GD32VW55x_RELEASE_V1.0.2/MSDK/wpa_supplicant/src/tls\tlsv1_client.c **** 				wpa_printf(MSG_DEBUG, "TLSv1: Alert "
 1383              		.loc 1 392 7 is_stmt 0
 1384 0176 6247     		lw	a4,24(sp)
 1385 0178 636EEB00 		bgtu	a4,s6,.L88
 393:C:/Users/stapi/OneDrive/Desktop/GD32VW553/V1_MQTT_OK/GD32VW55X_Wifi_BLE_SDK/GD32VW55x_RELEASE_V1.0.2/MSDK/wpa_supplicant/src/tls\tlsv1_client.c **** 					   "underflow");
 1386              		.loc 1 393 5 is_stmt 1
 1387 017c B7050000 		lui	a1,%hi(.LC13)
 1388 0180 93850500 		addi	a1,a1,%lo(.LC13)
 1389 0184 0945     		li	a0,2
 1390              	.LVL156:
 1391 0186 97000000 		call	wpa_printf
 1391      E7800000 
 1392              	.LVL157:
 395:C:/Users/stapi/OneDrive/Desktop/GD32VW553/V1_MQTT_OK/GD32VW55X_Wifi_BLE_SDK/GD32VW55x_RELEASE_V1.0.2/MSDK/wpa_supplicant/src/tls\tlsv1_client.c **** 				goto fail;
 1393              		.loc 1 395 5
 395:C:/Users/stapi/OneDrive/Desktop/GD32VW553/V1_MQTT_OK/GD32VW55X_Wifi_BLE_SDK/GD32VW55x_RELEASE_V1.0.2/MSDK/wpa_supplicant/src/tls\tlsv1_client.c **** 				goto fail;
 1394              		.loc 1 395 11 is_stmt 0
 1395 018e 93072003 		li	a5,50
 1396 0192 5DBD     		j	.L110
 1397              	.LVL158:
 1398              	.L88:
 398:C:/Users/stapi/OneDrive/Desktop/GD32VW553/V1_MQTT_OK/GD32VW55X_Wifi_BLE_SDK/GD32VW55x_RELEASE_V1.0.2/MSDK/wpa_supplicant/src/tls\tlsv1_client.c **** 				   out_pos[0], out_pos[1]);
 1399              		.loc 1 398 4 is_stmt 1
 1400 0194 83C61900 		lbu	a3,1(s3)
 1401 0198 03C60900 		lbu	a2,0(s3)
 1402 019c 93850D00 		addi	a1,s11,%lo(.LC14)
 1403 01a0 0945     		li	a0,2
 1404              	.LVL159:
 1405 01a2 97000000 		call	wpa_printf
 1405      E7800000 
 1406              	.LVL160:
 400:C:/Users/stapi/OneDrive/Desktop/GD32VW553/V1_MQTT_OK/GD32VW55X_Wifi_BLE_SDK/GD32VW55x_RELEASE_V1.0.2/MSDK/wpa_supplicant/src/tls\tlsv1_client.c **** 				/* Continue processing */
 1407              		.loc 1 400 4
 400:C:/Users/stapi/OneDrive/Desktop/GD32VW553/V1_MQTT_OK/GD32VW55X_Wifi_BLE_SDK/GD32VW55x_RELEASE_V1.0.2/MSDK/wpa_supplicant/src/tls\tlsv1_client.c **** 				/* Continue processing */
 1408              		.loc 1 400 7 is_stmt 0
 1409 01aa 03C70900 		lbu	a4,0(s3)
 1410 01ae 63146701 		bne	a4,s6,.L89
 1411              	.L109:
 420:C:/Users/stapi/OneDrive/Desktop/GD32VW553/V1_MQTT_OK/GD32VW55X_Wifi_BLE_SDK/GD32VW55x_RELEASE_V1.0.2/MSDK/wpa_supplicant/src/tls\tlsv1_client.c **** 	}
 1412              		.loc 1 420 3 is_stmt 1
 420:C:/Users/stapi/OneDrive/Desktop/GD32VW553/V1_MQTT_OK/GD32VW55X_Wifi_BLE_SDK/GD32VW55x_RELEASE_V1.0.2/MSDK/wpa_supplicant/src/tls\tlsv1_client.c **** 	}
 1413              		.loc 1 420 7 is_stmt 0
 1414 01b2 6294     		add	s0,s0,s8
 1415              	.LVL161:
 1416 01b4 C9BD     		j	.L80
 1417              	.L89:
 406:C:/Users/stapi/OneDrive/Desktop/GD32VW553/V1_MQTT_OK/GD32VW55X_Wifi_BLE_SDK/GD32VW55x_RELEASE_V1.0.2/MSDK/wpa_supplicant/src/tls\tlsv1_client.c **** 			goto fail;
 1418              		.loc 1 406 4 is_stmt 1
 406:C:/Users/stapi/OneDrive/Desktop/GD32VW553/V1_MQTT_OK/GD32VW55X_Wifi_BLE_SDK/GD32VW55x_RELEASE_V1.0.2/MSDK/wpa_supplicant/src/tls\tlsv1_client.c **** 			goto fail;
 1419              		.loc 1 406 10 is_stmt 0
 1420 01b6 83C71900 		lbu	a5,1(s3)
 1421 01ba 79B5     		j	.L110
 1422              	.LVL162:
 1423              	.L87:
 410:C:/Users/stapi/OneDrive/Desktop/GD32VW553/V1_MQTT_OK/GD32VW55X_Wifi_BLE_SDK/GD32VW55x_RELEASE_V1.0.2/MSDK/wpa_supplicant/src/tls\tlsv1_client.c **** 			wpa_printf(MSG_DEBUG, "TLSv1: Unexpected content type "
 1424              		.loc 1 410 3 is_stmt 1
 410:C:/Users/stapi/OneDrive/Desktop/GD32VW553/V1_MQTT_OK/GD32VW55X_Wifi_BLE_SDK/GD32VW55x_RELEASE_V1.0.2/MSDK/wpa_supplicant/src/tls\tlsv1_client.c **** 			wpa_printf(MSG_DEBUG, "TLSv1: Unexpected content type "
 1425              		.loc 1 410 6 is_stmt 0
 1426 01bc 638FAB01 		beq	s7,s10,.L91
 411:C:/Users/stapi/OneDrive/Desktop/GD32VW553/V1_MQTT_OK/GD32VW55X_Wifi_BLE_SDK/GD32VW55x_RELEASE_V1.0.2/MSDK/wpa_supplicant/src/tls\tlsv1_client.c **** 				   "0x%x when decrypting application data",
 1427              		.loc 1 411 4 is_stmt 1
 1428 01c0 03460400 		lbu	a2,0(s0)
 1429 01c4 B7050000 		lui	a1,%hi(.LC15)
 1430 01c8 93850500 		addi	a1,a1,%lo(.LC15)
 1431 01cc 0945     		li	a0,2
 1432              	.LVL163:
 1433 01ce 97000000 		call	wpa_printf
 1433      E7800000 
 1434              	.LVL164:
 414:C:/Users/stapi/OneDrive/Desktop/GD32VW553/V1_MQTT_OK/GD32VW55X_Wifi_BLE_SDK/GD32VW55x_RELEASE_V1.0.2/MSDK/wpa_supplicant/src/tls\tlsv1_client.c **** 			goto fail;
 1435              		.loc 1 414 4
 414:C:/Users/stapi/OneDrive/Desktop/GD32VW553/V1_MQTT_OK/GD32VW55X_Wifi_BLE_SDK/GD32VW55x_RELEASE_V1.0.2/MSDK/wpa_supplicant/src/tls\tlsv1_client.c **** 			goto fail;
 1436              		.loc 1 414 10 is_stmt 0
 1437 01d6 A947     		li	a5,10
 1438 01d8 85BD     		j	.L110
 1439              	.LVL165:
 1440              	.L91:
 418:C:/Users/stapi/OneDrive/Desktop/GD32VW553/V1_MQTT_OK/GD32VW55X_Wifi_BLE_SDK/GD32VW55x_RELEASE_V1.0.2/MSDK/wpa_supplicant/src/tls\tlsv1_client.c **** 
 1441              		.loc 1 418 3 is_stmt 1
 1442 01da E245     		lw	a1,24(sp)
 1443 01dc 7245     		lw	a0,28(sp)
 1444              	.LVL166:
 1445 01de 97000000 		call	wpabuf_put
 1445      E7800000 
 1446              	.LVL167:
 1447 01e6 F1B7     		j	.L109
 1448              		.cfi_endproc
 1449              	.LFE93:
 1451              		.section	.text.tlsv1_client_global_init,"ax",@progbits
 1452              		.align	1
 1453              		.globl	tlsv1_client_global_init
 1455              	tlsv1_client_global_init:
 1456              	.LFB94:
 434:C:/Users/stapi/OneDrive/Desktop/GD32VW553/V1_MQTT_OK/GD32VW55X_Wifi_BLE_SDK/GD32VW55x_RELEASE_V1.0.2/MSDK/wpa_supplicant/src/tls\tlsv1_client.c **** 
 435:C:/Users/stapi/OneDrive/Desktop/GD32VW553/V1_MQTT_OK/GD32VW55X_Wifi_BLE_SDK/GD32VW55x_RELEASE_V1.0.2/MSDK/wpa_supplicant/src/tls\tlsv1_client.c **** 
 436:C:/Users/stapi/OneDrive/Desktop/GD32VW553/V1_MQTT_OK/GD32VW55X_Wifi_BLE_SDK/GD32VW55x_RELEASE_V1.0.2/MSDK/wpa_supplicant/src/tls\tlsv1_client.c **** /**
 437:C:/Users/stapi/OneDrive/Desktop/GD32VW553/V1_MQTT_OK/GD32VW55X_Wifi_BLE_SDK/GD32VW55x_RELEASE_V1.0.2/MSDK/wpa_supplicant/src/tls\tlsv1_client.c ****  * tlsv1_client_global_init - Initialize TLSv1 client
 438:C:/Users/stapi/OneDrive/Desktop/GD32VW553/V1_MQTT_OK/GD32VW55X_Wifi_BLE_SDK/GD32VW55x_RELEASE_V1.0.2/MSDK/wpa_supplicant/src/tls\tlsv1_client.c ****  * Returns: 0 on success, -1 on failure
 439:C:/Users/stapi/OneDrive/Desktop/GD32VW553/V1_MQTT_OK/GD32VW55X_Wifi_BLE_SDK/GD32VW55x_RELEASE_V1.0.2/MSDK/wpa_supplicant/src/tls\tlsv1_client.c ****  *
 440:C:/Users/stapi/OneDrive/Desktop/GD32VW553/V1_MQTT_OK/GD32VW55X_Wifi_BLE_SDK/GD32VW55x_RELEASE_V1.0.2/MSDK/wpa_supplicant/src/tls\tlsv1_client.c ****  * This function must be called before using any other TLSv1 client functions.
 441:C:/Users/stapi/OneDrive/Desktop/GD32VW553/V1_MQTT_OK/GD32VW55X_Wifi_BLE_SDK/GD32VW55x_RELEASE_V1.0.2/MSDK/wpa_supplicant/src/tls\tlsv1_client.c ****  */
 442:C:/Users/stapi/OneDrive/Desktop/GD32VW553/V1_MQTT_OK/GD32VW55X_Wifi_BLE_SDK/GD32VW55x_RELEASE_V1.0.2/MSDK/wpa_supplicant/src/tls\tlsv1_client.c **** int tlsv1_client_global_init(void)
 443:C:/Users/stapi/OneDrive/Desktop/GD32VW553/V1_MQTT_OK/GD32VW55X_Wifi_BLE_SDK/GD32VW55x_RELEASE_V1.0.2/MSDK/wpa_supplicant/src/tls\tlsv1_client.c **** {
 1457              		.loc 1 443 1
 1458              		.cfi_startproc
 444:C:/Users/stapi/OneDrive/Desktop/GD32VW553/V1_MQTT_OK/GD32VW55X_Wifi_BLE_SDK/GD32VW55x_RELEASE_V1.0.2/MSDK/wpa_supplicant/src/tls\tlsv1_client.c **** 	return crypto_global_init();
 1459              		.loc 1 444 2
 1460              		.loc 1 444 9 is_stmt 0
 1461 0000 17030000 		tail	crypto_global_init
 1461      67000300 
 1462              	.LVL168:
 1463              		.cfi_endproc
 1464              	.LFE94:
 1466              		.section	.text.tlsv1_client_global_deinit,"ax",@progbits
 1467              		.align	1
 1468              		.globl	tlsv1_client_global_deinit
 1470              	tlsv1_client_global_deinit:
 1471              	.LFB95:
 445:C:/Users/stapi/OneDrive/Desktop/GD32VW553/V1_MQTT_OK/GD32VW55X_Wifi_BLE_SDK/GD32VW55x_RELEASE_V1.0.2/MSDK/wpa_supplicant/src/tls\tlsv1_client.c **** }
 446:C:/Users/stapi/OneDrive/Desktop/GD32VW553/V1_MQTT_OK/GD32VW55X_Wifi_BLE_SDK/GD32VW55x_RELEASE_V1.0.2/MSDK/wpa_supplicant/src/tls\tlsv1_client.c **** 
 447:C:/Users/stapi/OneDrive/Desktop/GD32VW553/V1_MQTT_OK/GD32VW55X_Wifi_BLE_SDK/GD32VW55x_RELEASE_V1.0.2/MSDK/wpa_supplicant/src/tls\tlsv1_client.c **** 
 448:C:/Users/stapi/OneDrive/Desktop/GD32VW553/V1_MQTT_OK/GD32VW55X_Wifi_BLE_SDK/GD32VW55x_RELEASE_V1.0.2/MSDK/wpa_supplicant/src/tls\tlsv1_client.c **** /**
 449:C:/Users/stapi/OneDrive/Desktop/GD32VW553/V1_MQTT_OK/GD32VW55X_Wifi_BLE_SDK/GD32VW55x_RELEASE_V1.0.2/MSDK/wpa_supplicant/src/tls\tlsv1_client.c ****  * tlsv1_client_global_deinit - Deinitialize TLSv1 client
 450:C:/Users/stapi/OneDrive/Desktop/GD32VW553/V1_MQTT_OK/GD32VW55X_Wifi_BLE_SDK/GD32VW55x_RELEASE_V1.0.2/MSDK/wpa_supplicant/src/tls\tlsv1_client.c ****  *
 451:C:/Users/stapi/OneDrive/Desktop/GD32VW553/V1_MQTT_OK/GD32VW55X_Wifi_BLE_SDK/GD32VW55x_RELEASE_V1.0.2/MSDK/wpa_supplicant/src/tls\tlsv1_client.c ****  * This function can be used to deinitialize the TLSv1 client that was
 452:C:/Users/stapi/OneDrive/Desktop/GD32VW553/V1_MQTT_OK/GD32VW55X_Wifi_BLE_SDK/GD32VW55x_RELEASE_V1.0.2/MSDK/wpa_supplicant/src/tls\tlsv1_client.c ****  * initialized by calling tlsv1_client_global_init(). No TLSv1 client functions
 453:C:/Users/stapi/OneDrive/Desktop/GD32VW553/V1_MQTT_OK/GD32VW55X_Wifi_BLE_SDK/GD32VW55x_RELEASE_V1.0.2/MSDK/wpa_supplicant/src/tls\tlsv1_client.c ****  * can be called after this before calling tlsv1_client_global_init() again.
 454:C:/Users/stapi/OneDrive/Desktop/GD32VW553/V1_MQTT_OK/GD32VW55X_Wifi_BLE_SDK/GD32VW55x_RELEASE_V1.0.2/MSDK/wpa_supplicant/src/tls\tlsv1_client.c ****  */
 455:C:/Users/stapi/OneDrive/Desktop/GD32VW553/V1_MQTT_OK/GD32VW55X_Wifi_BLE_SDK/GD32VW55x_RELEASE_V1.0.2/MSDK/wpa_supplicant/src/tls\tlsv1_client.c **** void tlsv1_client_global_deinit(void)
 456:C:/Users/stapi/OneDrive/Desktop/GD32VW553/V1_MQTT_OK/GD32VW55X_Wifi_BLE_SDK/GD32VW55x_RELEASE_V1.0.2/MSDK/wpa_supplicant/src/tls\tlsv1_client.c **** {
 1472              		.loc 1 456 1 is_stmt 1
 1473              		.cfi_startproc
 457:C:/Users/stapi/OneDrive/Desktop/GD32VW553/V1_MQTT_OK/GD32VW55X_Wifi_BLE_SDK/GD32VW55x_RELEASE_V1.0.2/MSDK/wpa_supplicant/src/tls\tlsv1_client.c **** 	crypto_global_deinit();
 1474              		.loc 1 457 2
 1475 0000 17030000 		tail	crypto_global_deinit
 1475      67000300 
 1476              	.LVL169:
 1477              		.cfi_endproc
 1478              	.LFE95:
 1480              		.section	.rodata.tlsv1_client_init.str1.4,"aMS",@progbits,1
 1481              		.align	2
 1482              	.LC16:
 1483 0000 544C5376 		.string	"TLSv1: Failed to initialize verify hash"
 1483      313A2046 
 1483      61696C65 
 1483      6420746F 
 1483      20696E69 
 1484              		.section	.text.tlsv1_client_init,"ax",@progbits
 1485              		.align	1
 1486              		.globl	tlsv1_client_init
 1488              	tlsv1_client_init:
 1489              	.LFB96:
 458:C:/Users/stapi/OneDrive/Desktop/GD32VW553/V1_MQTT_OK/GD32VW55X_Wifi_BLE_SDK/GD32VW55x_RELEASE_V1.0.2/MSDK/wpa_supplicant/src/tls\tlsv1_client.c **** }
 459:C:/Users/stapi/OneDrive/Desktop/GD32VW553/V1_MQTT_OK/GD32VW55X_Wifi_BLE_SDK/GD32VW55x_RELEASE_V1.0.2/MSDK/wpa_supplicant/src/tls\tlsv1_client.c **** 
 460:C:/Users/stapi/OneDrive/Desktop/GD32VW553/V1_MQTT_OK/GD32VW55X_Wifi_BLE_SDK/GD32VW55x_RELEASE_V1.0.2/MSDK/wpa_supplicant/src/tls\tlsv1_client.c **** 
 461:C:/Users/stapi/OneDrive/Desktop/GD32VW553/V1_MQTT_OK/GD32VW55X_Wifi_BLE_SDK/GD32VW55x_RELEASE_V1.0.2/MSDK/wpa_supplicant/src/tls\tlsv1_client.c **** /**
 462:C:/Users/stapi/OneDrive/Desktop/GD32VW553/V1_MQTT_OK/GD32VW55X_Wifi_BLE_SDK/GD32VW55x_RELEASE_V1.0.2/MSDK/wpa_supplicant/src/tls\tlsv1_client.c ****  * tlsv1_client_init - Initialize TLSv1 client connection
 463:C:/Users/stapi/OneDrive/Desktop/GD32VW553/V1_MQTT_OK/GD32VW55X_Wifi_BLE_SDK/GD32VW55x_RELEASE_V1.0.2/MSDK/wpa_supplicant/src/tls\tlsv1_client.c ****  * Returns: Pointer to TLSv1 client connection data or %NULL on failure
 464:C:/Users/stapi/OneDrive/Desktop/GD32VW553/V1_MQTT_OK/GD32VW55X_Wifi_BLE_SDK/GD32VW55x_RELEASE_V1.0.2/MSDK/wpa_supplicant/src/tls\tlsv1_client.c ****  */
 465:C:/Users/stapi/OneDrive/Desktop/GD32VW553/V1_MQTT_OK/GD32VW55X_Wifi_BLE_SDK/GD32VW55x_RELEASE_V1.0.2/MSDK/wpa_supplicant/src/tls\tlsv1_client.c **** struct tlsv1_client * tlsv1_client_init(void)
 466:C:/Users/stapi/OneDrive/Desktop/GD32VW553/V1_MQTT_OK/GD32VW55X_Wifi_BLE_SDK/GD32VW55x_RELEASE_V1.0.2/MSDK/wpa_supplicant/src/tls\tlsv1_client.c **** {
 1490              		.loc 1 466 1
 1491              		.cfi_startproc
 1492 0000 17030000 		call	t0,__riscv_save_1
 1492      E7020300 
 1493              		.cfi_offset 8, -8
 1494              		.cfi_offset 1, -4
 1495              		.cfi_def_cfa_offset 16
 467:C:/Users/stapi/OneDrive/Desktop/GD32VW553/V1_MQTT_OK/GD32VW55X_Wifi_BLE_SDK/GD32VW55x_RELEASE_V1.0.2/MSDK/wpa_supplicant/src/tls\tlsv1_client.c **** 	struct tlsv1_client *conn;
 1496              		.loc 1 467 2
 468:C:/Users/stapi/OneDrive/Desktop/GD32VW553/V1_MQTT_OK/GD32VW55X_Wifi_BLE_SDK/GD32VW55x_RELEASE_V1.0.2/MSDK/wpa_supplicant/src/tls\tlsv1_client.c **** 	size_t count;
 1497              		.loc 1 468 2
 469:C:/Users/stapi/OneDrive/Desktop/GD32VW553/V1_MQTT_OK/GD32VW55X_Wifi_BLE_SDK/GD32VW55x_RELEASE_V1.0.2/MSDK/wpa_supplicant/src/tls\tlsv1_client.c **** 	u16 *suites;
 1498              		.loc 1 469 2
 470:C:/Users/stapi/OneDrive/Desktop/GD32VW553/V1_MQTT_OK/GD32VW55X_Wifi_BLE_SDK/GD32VW55x_RELEASE_V1.0.2/MSDK/wpa_supplicant/src/tls\tlsv1_client.c **** 
 471:C:/Users/stapi/OneDrive/Desktop/GD32VW553/V1_MQTT_OK/GD32VW55X_Wifi_BLE_SDK/GD32VW55x_RELEASE_V1.0.2/MSDK/wpa_supplicant/src/tls\tlsv1_client.c **** 	conn = os_zalloc(sizeof(*conn));
 1499              		.loc 1 471 2
 1500              		.loc 1 471 9 is_stmt 0
 1501 0008 13054022 		li	a0,548
 1502 000c 97000000 		call	os_zalloc
 1502      E7800000 
 1503              	.LVL170:
 1504 0014 2A84     		mv	s0,a0
 1505              	.LVL171:
 472:C:/Users/stapi/OneDrive/Desktop/GD32VW553/V1_MQTT_OK/GD32VW55X_Wifi_BLE_SDK/GD32VW55x_RELEASE_V1.0.2/MSDK/wpa_supplicant/src/tls\tlsv1_client.c **** 	if (conn == NULL)
 1506              		.loc 1 472 2 is_stmt 1
 1507              		.loc 1 472 5 is_stmt 0
 1508 0016 15C9     		beq	a0,zero,.L117
 473:C:/Users/stapi/OneDrive/Desktop/GD32VW553/V1_MQTT_OK/GD32VW55X_Wifi_BLE_SDK/GD32VW55x_RELEASE_V1.0.2/MSDK/wpa_supplicant/src/tls\tlsv1_client.c **** 		return NULL;
 474:C:/Users/stapi/OneDrive/Desktop/GD32VW553/V1_MQTT_OK/GD32VW55X_Wifi_BLE_SDK/GD32VW55x_RELEASE_V1.0.2/MSDK/wpa_supplicant/src/tls\tlsv1_client.c **** 
 475:C:/Users/stapi/OneDrive/Desktop/GD32VW553/V1_MQTT_OK/GD32VW55X_Wifi_BLE_SDK/GD32VW55x_RELEASE_V1.0.2/MSDK/wpa_supplicant/src/tls\tlsv1_client.c **** 	conn->state = CLIENT_HELLO;
 1509              		.loc 1 475 2 is_stmt 1
 1510              		.loc 1 475 14 is_stmt 0
 1511 0018 23200500 		sw	zero,0(a0)
 476:C:/Users/stapi/OneDrive/Desktop/GD32VW553/V1_MQTT_OK/GD32VW55X_Wifi_BLE_SDK/GD32VW55x_RELEASE_V1.0.2/MSDK/wpa_supplicant/src/tls\tlsv1_client.c **** 
 477:C:/Users/stapi/OneDrive/Desktop/GD32VW553/V1_MQTT_OK/GD32VW55X_Wifi_BLE_SDK/GD32VW55x_RELEASE_V1.0.2/MSDK/wpa_supplicant/src/tls\tlsv1_client.c **** 	if (tls_verify_hash_init(&conn->verify) < 0) {
 1512              		.loc 1 477 2 is_stmt 1
 1513              		.loc 1 477 6 is_stmt 0
 1514 001c 13050518 		addi	a0,a0,384
 1515 0020 97000000 		call	tls_verify_hash_init
 1515      E7800000 
 1516              	.LVL172:
 1517              		.loc 1 477 5
 1518 0028 63560502 		bge	a0,zero,.L119
 478:C:/Users/stapi/OneDrive/Desktop/GD32VW553/V1_MQTT_OK/GD32VW55X_Wifi_BLE_SDK/GD32VW55x_RELEASE_V1.0.2/MSDK/wpa_supplicant/src/tls\tlsv1_client.c **** 		wpa_printf(MSG_DEBUG, "TLSv1: Failed to initialize verify "
 1519              		.loc 1 478 3 is_stmt 1
 1520 002c B7050000 		lui	a1,%hi(.LC16)
 1521 0030 93850500 		addi	a1,a1,%lo(.LC16)
 1522 0034 0945     		li	a0,2
 1523 0036 97000000 		call	wpa_printf
 1523      E7800000 
 1524              	.LVL173:
 479:C:/Users/stapi/OneDrive/Desktop/GD32VW553/V1_MQTT_OK/GD32VW55X_Wifi_BLE_SDK/GD32VW55x_RELEASE_V1.0.2/MSDK/wpa_supplicant/src/tls\tlsv1_client.c **** 			   "hash");
 480:C:/Users/stapi/OneDrive/Desktop/GD32VW553/V1_MQTT_OK/GD32VW55X_Wifi_BLE_SDK/GD32VW55x_RELEASE_V1.0.2/MSDK/wpa_supplicant/src/tls\tlsv1_client.c **** 		os_free(conn);
 1525              		.loc 1 480 3
 1526 003e 2285     		mv	a0,s0
 1527 0040 97000000 		call	os_free
 1527      E7800000 
 1528              	.LVL174:
 481:C:/Users/stapi/OneDrive/Desktop/GD32VW553/V1_MQTT_OK/GD32VW55X_Wifi_BLE_SDK/GD32VW55x_RELEASE_V1.0.2/MSDK/wpa_supplicant/src/tls\tlsv1_client.c **** 		return NULL;
 1529              		.loc 1 481 3
 1530              		.loc 1 481 10 is_stmt 0
 1531 0048 0144     		li	s0,0
 1532              	.LVL175:
 1533              	.L117:
 482:C:/Users/stapi/OneDrive/Desktop/GD32VW553/V1_MQTT_OK/GD32VW55X_Wifi_BLE_SDK/GD32VW55x_RELEASE_V1.0.2/MSDK/wpa_supplicant/src/tls\tlsv1_client.c **** 	}
 483:C:/Users/stapi/OneDrive/Desktop/GD32VW553/V1_MQTT_OK/GD32VW55X_Wifi_BLE_SDK/GD32VW55x_RELEASE_V1.0.2/MSDK/wpa_supplicant/src/tls\tlsv1_client.c **** 
 484:C:/Users/stapi/OneDrive/Desktop/GD32VW553/V1_MQTT_OK/GD32VW55X_Wifi_BLE_SDK/GD32VW55x_RELEASE_V1.0.2/MSDK/wpa_supplicant/src/tls\tlsv1_client.c **** 	count = 0;
 485:C:/Users/stapi/OneDrive/Desktop/GD32VW553/V1_MQTT_OK/GD32VW55X_Wifi_BLE_SDK/GD32VW55x_RELEASE_V1.0.2/MSDK/wpa_supplicant/src/tls\tlsv1_client.c **** 	suites = conn->cipher_suites;
 486:C:/Users/stapi/OneDrive/Desktop/GD32VW553/V1_MQTT_OK/GD32VW55X_Wifi_BLE_SDK/GD32VW55x_RELEASE_V1.0.2/MSDK/wpa_supplicant/src/tls\tlsv1_client.c **** 	suites[count++] = TLS_DHE_RSA_WITH_AES_256_CBC_SHA256;
 487:C:/Users/stapi/OneDrive/Desktop/GD32VW553/V1_MQTT_OK/GD32VW55X_Wifi_BLE_SDK/GD32VW55x_RELEASE_V1.0.2/MSDK/wpa_supplicant/src/tls\tlsv1_client.c **** 	suites[count++] = TLS_RSA_WITH_AES_256_CBC_SHA256;
 488:C:/Users/stapi/OneDrive/Desktop/GD32VW553/V1_MQTT_OK/GD32VW55X_Wifi_BLE_SDK/GD32VW55x_RELEASE_V1.0.2/MSDK/wpa_supplicant/src/tls\tlsv1_client.c **** 	suites[count++] = TLS_DHE_RSA_WITH_AES_256_CBC_SHA;
 489:C:/Users/stapi/OneDrive/Desktop/GD32VW553/V1_MQTT_OK/GD32VW55X_Wifi_BLE_SDK/GD32VW55x_RELEASE_V1.0.2/MSDK/wpa_supplicant/src/tls\tlsv1_client.c **** 	suites[count++] = TLS_RSA_WITH_AES_256_CBC_SHA;
 490:C:/Users/stapi/OneDrive/Desktop/GD32VW553/V1_MQTT_OK/GD32VW55X_Wifi_BLE_SDK/GD32VW55x_RELEASE_V1.0.2/MSDK/wpa_supplicant/src/tls\tlsv1_client.c **** 	suites[count++] = TLS_DHE_RSA_WITH_AES_128_CBC_SHA256;
 491:C:/Users/stapi/OneDrive/Desktop/GD32VW553/V1_MQTT_OK/GD32VW55X_Wifi_BLE_SDK/GD32VW55x_RELEASE_V1.0.2/MSDK/wpa_supplicant/src/tls\tlsv1_client.c **** 	suites[count++] = TLS_RSA_WITH_AES_128_CBC_SHA256;
 492:C:/Users/stapi/OneDrive/Desktop/GD32VW553/V1_MQTT_OK/GD32VW55X_Wifi_BLE_SDK/GD32VW55x_RELEASE_V1.0.2/MSDK/wpa_supplicant/src/tls\tlsv1_client.c **** 	suites[count++] = TLS_DHE_RSA_WITH_AES_128_CBC_SHA;
 493:C:/Users/stapi/OneDrive/Desktop/GD32VW553/V1_MQTT_OK/GD32VW55X_Wifi_BLE_SDK/GD32VW55x_RELEASE_V1.0.2/MSDK/wpa_supplicant/src/tls\tlsv1_client.c **** 	suites[count++] = TLS_RSA_WITH_AES_128_CBC_SHA;
 494:C:/Users/stapi/OneDrive/Desktop/GD32VW553/V1_MQTT_OK/GD32VW55X_Wifi_BLE_SDK/GD32VW55x_RELEASE_V1.0.2/MSDK/wpa_supplicant/src/tls\tlsv1_client.c **** 	suites[count++] = TLS_DHE_RSA_WITH_3DES_EDE_CBC_SHA;
 495:C:/Users/stapi/OneDrive/Desktop/GD32VW553/V1_MQTT_OK/GD32VW55X_Wifi_BLE_SDK/GD32VW55x_RELEASE_V1.0.2/MSDK/wpa_supplicant/src/tls\tlsv1_client.c **** 	suites[count++] = TLS_RSA_WITH_3DES_EDE_CBC_SHA;
 496:C:/Users/stapi/OneDrive/Desktop/GD32VW553/V1_MQTT_OK/GD32VW55X_Wifi_BLE_SDK/GD32VW55x_RELEASE_V1.0.2/MSDK/wpa_supplicant/src/tls\tlsv1_client.c **** 	suites[count++] = TLS_RSA_WITH_RC4_128_SHA;
 497:C:/Users/stapi/OneDrive/Desktop/GD32VW553/V1_MQTT_OK/GD32VW55X_Wifi_BLE_SDK/GD32VW55x_RELEASE_V1.0.2/MSDK/wpa_supplicant/src/tls\tlsv1_client.c **** 	suites[count++] = TLS_RSA_WITH_RC4_128_MD5;
 498:C:/Users/stapi/OneDrive/Desktop/GD32VW553/V1_MQTT_OK/GD32VW55X_Wifi_BLE_SDK/GD32VW55x_RELEASE_V1.0.2/MSDK/wpa_supplicant/src/tls\tlsv1_client.c **** 	conn->num_cipher_suites = count;
 499:C:/Users/stapi/OneDrive/Desktop/GD32VW553/V1_MQTT_OK/GD32VW55X_Wifi_BLE_SDK/GD32VW55x_RELEASE_V1.0.2/MSDK/wpa_supplicant/src/tls\tlsv1_client.c **** 
 500:C:/Users/stapi/OneDrive/Desktop/GD32VW553/V1_MQTT_OK/GD32VW55X_Wifi_BLE_SDK/GD32VW55x_RELEASE_V1.0.2/MSDK/wpa_supplicant/src/tls\tlsv1_client.c **** 	conn->rl.tls_version = TLS_VERSION;
 501:C:/Users/stapi/OneDrive/Desktop/GD32VW553/V1_MQTT_OK/GD32VW55X_Wifi_BLE_SDK/GD32VW55x_RELEASE_V1.0.2/MSDK/wpa_supplicant/src/tls\tlsv1_client.c **** 
 502:C:/Users/stapi/OneDrive/Desktop/GD32VW553/V1_MQTT_OK/GD32VW55X_Wifi_BLE_SDK/GD32VW55x_RELEASE_V1.0.2/MSDK/wpa_supplicant/src/tls\tlsv1_client.c **** 	return conn;
 503:C:/Users/stapi/OneDrive/Desktop/GD32VW553/V1_MQTT_OK/GD32VW55X_Wifi_BLE_SDK/GD32VW55x_RELEASE_V1.0.2/MSDK/wpa_supplicant/src/tls\tlsv1_client.c **** }
 1534              		.loc 1 503 1
 1535 004a 2285     		mv	a0,s0
 1536 004c 17030000 		tail	__riscv_restore_1
 1536      67000300 
 1537              		.cfi_remember_state
 1538              		.cfi_restore 8
 1539              		.cfi_restore 1
 1540              		.cfi_def_cfa_offset 0
 1541              	.LVL176:
 1542              	.L119:
 1543              		.cfi_restore_state
 484:C:/Users/stapi/OneDrive/Desktop/GD32VW553/V1_MQTT_OK/GD32VW55X_Wifi_BLE_SDK/GD32VW55x_RELEASE_V1.0.2/MSDK/wpa_supplicant/src/tls\tlsv1_client.c **** 	suites = conn->cipher_suites;
 1544              		.loc 1 484 2 is_stmt 1
 485:C:/Users/stapi/OneDrive/Desktop/GD32VW553/V1_MQTT_OK/GD32VW55X_Wifi_BLE_SDK/GD32VW55x_RELEASE_V1.0.2/MSDK/wpa_supplicant/src/tls\tlsv1_client.c **** 	suites[count++] = TLS_DHE_RSA_WITH_AES_256_CBC_SHA256;
 1545              		.loc 1 485 2
 486:C:/Users/stapi/OneDrive/Desktop/GD32VW553/V1_MQTT_OK/GD32VW55X_Wifi_BLE_SDK/GD32VW55x_RELEASE_V1.0.2/MSDK/wpa_supplicant/src/tls\tlsv1_client.c **** 	suites[count++] = TLS_RSA_WITH_AES_256_CBC_SHA256;
 1546              		.loc 1 486 2
 486:C:/Users/stapi/OneDrive/Desktop/GD32VW553/V1_MQTT_OK/GD32VW55X_Wifi_BLE_SDK/GD32VW55x_RELEASE_V1.0.2/MSDK/wpa_supplicant/src/tls\tlsv1_client.c **** 	suites[count++] = TLS_RSA_WITH_AES_256_CBC_SHA256;
 1547              		.loc 1 486 18 is_stmt 0
 1548 0054 9307B006 		li	a5,107
 1549 0058 2312F41A 		sh	a5,420(s0)
 487:C:/Users/stapi/OneDrive/Desktop/GD32VW553/V1_MQTT_OK/GD32VW55X_Wifi_BLE_SDK/GD32VW55x_RELEASE_V1.0.2/MSDK/wpa_supplicant/src/tls\tlsv1_client.c **** 	suites[count++] = TLS_DHE_RSA_WITH_AES_256_CBC_SHA;
 1550              		.loc 1 487 2 is_stmt 1
 1551              	.LVL177:
 487:C:/Users/stapi/OneDrive/Desktop/GD32VW553/V1_MQTT_OK/GD32VW55X_Wifi_BLE_SDK/GD32VW55x_RELEASE_V1.0.2/MSDK/wpa_supplicant/src/tls\tlsv1_client.c **** 	suites[count++] = TLS_DHE_RSA_WITH_AES_256_CBC_SHA;
 1552              		.loc 1 487 18 is_stmt 0
 1553 005c 9307D003 		li	a5,61
 1554 0060 2313F41A 		sh	a5,422(s0)
 488:C:/Users/stapi/OneDrive/Desktop/GD32VW553/V1_MQTT_OK/GD32VW55X_Wifi_BLE_SDK/GD32VW55x_RELEASE_V1.0.2/MSDK/wpa_supplicant/src/tls\tlsv1_client.c **** 	suites[count++] = TLS_RSA_WITH_AES_256_CBC_SHA;
 1555              		.loc 1 488 2 is_stmt 1
 1556              	.LVL178:
 488:C:/Users/stapi/OneDrive/Desktop/GD32VW553/V1_MQTT_OK/GD32VW55X_Wifi_BLE_SDK/GD32VW55x_RELEASE_V1.0.2/MSDK/wpa_supplicant/src/tls\tlsv1_client.c **** 	suites[count++] = TLS_RSA_WITH_AES_256_CBC_SHA;
 1557              		.loc 1 488 18 is_stmt 0
 1558 0064 93079003 		li	a5,57
 1559 0068 2314F41A 		sh	a5,424(s0)
 489:C:/Users/stapi/OneDrive/Desktop/GD32VW553/V1_MQTT_OK/GD32VW55X_Wifi_BLE_SDK/GD32VW55x_RELEASE_V1.0.2/MSDK/wpa_supplicant/src/tls\tlsv1_client.c **** 	suites[count++] = TLS_DHE_RSA_WITH_AES_128_CBC_SHA256;
 1560              		.loc 1 489 2 is_stmt 1
 1561              	.LVL179:
 489:C:/Users/stapi/OneDrive/Desktop/GD32VW553/V1_MQTT_OK/GD32VW55X_Wifi_BLE_SDK/GD32VW55x_RELEASE_V1.0.2/MSDK/wpa_supplicant/src/tls\tlsv1_client.c **** 	suites[count++] = TLS_DHE_RSA_WITH_AES_128_CBC_SHA256;
 1562              		.loc 1 489 18 is_stmt 0
 1563 006c 93075003 		li	a5,53
 1564 0070 2315F41A 		sh	a5,426(s0)
 490:C:/Users/stapi/OneDrive/Desktop/GD32VW553/V1_MQTT_OK/GD32VW55X_Wifi_BLE_SDK/GD32VW55x_RELEASE_V1.0.2/MSDK/wpa_supplicant/src/tls\tlsv1_client.c **** 	suites[count++] = TLS_RSA_WITH_AES_128_CBC_SHA256;
 1565              		.loc 1 490 2 is_stmt 1
 1566              	.LVL180:
 490:C:/Users/stapi/OneDrive/Desktop/GD32VW553/V1_MQTT_OK/GD32VW55X_Wifi_BLE_SDK/GD32VW55x_RELEASE_V1.0.2/MSDK/wpa_supplicant/src/tls\tlsv1_client.c **** 	suites[count++] = TLS_RSA_WITH_AES_128_CBC_SHA256;
 1567              		.loc 1 490 18 is_stmt 0
 1568 0074 93077006 		li	a5,103
 1569 0078 2316F41A 		sh	a5,428(s0)
 491:C:/Users/stapi/OneDrive/Desktop/GD32VW553/V1_MQTT_OK/GD32VW55X_Wifi_BLE_SDK/GD32VW55x_RELEASE_V1.0.2/MSDK/wpa_supplicant/src/tls\tlsv1_client.c **** 	suites[count++] = TLS_DHE_RSA_WITH_AES_128_CBC_SHA;
 1570              		.loc 1 491 2 is_stmt 1
 1571              	.LVL181:
 491:C:/Users/stapi/OneDrive/Desktop/GD32VW553/V1_MQTT_OK/GD32VW55X_Wifi_BLE_SDK/GD32VW55x_RELEASE_V1.0.2/MSDK/wpa_supplicant/src/tls\tlsv1_client.c **** 	suites[count++] = TLS_DHE_RSA_WITH_AES_128_CBC_SHA;
 1572              		.loc 1 491 18 is_stmt 0
 1573 007c 9307C003 		li	a5,60
 1574 0080 2317F41A 		sh	a5,430(s0)
 492:C:/Users/stapi/OneDrive/Desktop/GD32VW553/V1_MQTT_OK/GD32VW55X_Wifi_BLE_SDK/GD32VW55x_RELEASE_V1.0.2/MSDK/wpa_supplicant/src/tls\tlsv1_client.c **** 	suites[count++] = TLS_RSA_WITH_AES_128_CBC_SHA;
 1575              		.loc 1 492 2 is_stmt 1
 1576              	.LVL182:
 492:C:/Users/stapi/OneDrive/Desktop/GD32VW553/V1_MQTT_OK/GD32VW55X_Wifi_BLE_SDK/GD32VW55x_RELEASE_V1.0.2/MSDK/wpa_supplicant/src/tls\tlsv1_client.c **** 	suites[count++] = TLS_RSA_WITH_AES_128_CBC_SHA;
 1577              		.loc 1 492 18 is_stmt 0
 1578 0084 93073003 		li	a5,51
 1579 0088 2318F41A 		sh	a5,432(s0)
 493:C:/Users/stapi/OneDrive/Desktop/GD32VW553/V1_MQTT_OK/GD32VW55X_Wifi_BLE_SDK/GD32VW55x_RELEASE_V1.0.2/MSDK/wpa_supplicant/src/tls\tlsv1_client.c **** 	suites[count++] = TLS_DHE_RSA_WITH_3DES_EDE_CBC_SHA;
 1580              		.loc 1 493 2 is_stmt 1
 1581              	.LVL183:
 493:C:/Users/stapi/OneDrive/Desktop/GD32VW553/V1_MQTT_OK/GD32VW55X_Wifi_BLE_SDK/GD32VW55x_RELEASE_V1.0.2/MSDK/wpa_supplicant/src/tls\tlsv1_client.c **** 	suites[count++] = TLS_DHE_RSA_WITH_3DES_EDE_CBC_SHA;
 1582              		.loc 1 493 18 is_stmt 0
 1583 008c 9307F002 		li	a5,47
 1584 0090 2319F41A 		sh	a5,434(s0)
 494:C:/Users/stapi/OneDrive/Desktop/GD32VW553/V1_MQTT_OK/GD32VW55X_Wifi_BLE_SDK/GD32VW55x_RELEASE_V1.0.2/MSDK/wpa_supplicant/src/tls\tlsv1_client.c **** 	suites[count++] = TLS_RSA_WITH_3DES_EDE_CBC_SHA;
 1585              		.loc 1 494 2 is_stmt 1
 1586              	.LVL184:
 494:C:/Users/stapi/OneDrive/Desktop/GD32VW553/V1_MQTT_OK/GD32VW55X_Wifi_BLE_SDK/GD32VW55x_RELEASE_V1.0.2/MSDK/wpa_supplicant/src/tls\tlsv1_client.c **** 	suites[count++] = TLS_RSA_WITH_3DES_EDE_CBC_SHA;
 1587              		.loc 1 494 18 is_stmt 0
 1588 0094 D947     		li	a5,22
 1589 0096 231AF41A 		sh	a5,436(s0)
 495:C:/Users/stapi/OneDrive/Desktop/GD32VW553/V1_MQTT_OK/GD32VW55X_Wifi_BLE_SDK/GD32VW55x_RELEASE_V1.0.2/MSDK/wpa_supplicant/src/tls\tlsv1_client.c **** 	suites[count++] = TLS_RSA_WITH_RC4_128_SHA;
 1590              		.loc 1 495 2 is_stmt 1
 1591              	.LVL185:
 495:C:/Users/stapi/OneDrive/Desktop/GD32VW553/V1_MQTT_OK/GD32VW55X_Wifi_BLE_SDK/GD32VW55x_RELEASE_V1.0.2/MSDK/wpa_supplicant/src/tls\tlsv1_client.c **** 	suites[count++] = TLS_RSA_WITH_RC4_128_SHA;
 1592              		.loc 1 495 18 is_stmt 0
 1593 009a A947     		li	a5,10
 1594 009c 231BF41A 		sh	a5,438(s0)
 496:C:/Users/stapi/OneDrive/Desktop/GD32VW553/V1_MQTT_OK/GD32VW55X_Wifi_BLE_SDK/GD32VW55x_RELEASE_V1.0.2/MSDK/wpa_supplicant/src/tls\tlsv1_client.c **** 	suites[count++] = TLS_RSA_WITH_RC4_128_MD5;
 1595              		.loc 1 496 2 is_stmt 1
 1596              	.LVL186:
 496:C:/Users/stapi/OneDrive/Desktop/GD32VW553/V1_MQTT_OK/GD32VW55X_Wifi_BLE_SDK/GD32VW55x_RELEASE_V1.0.2/MSDK/wpa_supplicant/src/tls\tlsv1_client.c **** 	suites[count++] = TLS_RSA_WITH_RC4_128_MD5;
 1597              		.loc 1 496 18 is_stmt 0
 1598 00a0 9547     		li	a5,5
 1599 00a2 231CF41A 		sh	a5,440(s0)
 497:C:/Users/stapi/OneDrive/Desktop/GD32VW553/V1_MQTT_OK/GD32VW55X_Wifi_BLE_SDK/GD32VW55x_RELEASE_V1.0.2/MSDK/wpa_supplicant/src/tls\tlsv1_client.c **** 	conn->num_cipher_suites = count;
 1600              		.loc 1 497 2 is_stmt 1
 1601              	.LVL187:
 497:C:/Users/stapi/OneDrive/Desktop/GD32VW553/V1_MQTT_OK/GD32VW55X_Wifi_BLE_SDK/GD32VW55x_RELEASE_V1.0.2/MSDK/wpa_supplicant/src/tls\tlsv1_client.c **** 	conn->num_cipher_suites = count;
 1602              		.loc 1 497 18 is_stmt 0
 1603 00a6 9147     		li	a5,4
 1604 00a8 231DF41A 		sh	a5,442(s0)
 498:C:/Users/stapi/OneDrive/Desktop/GD32VW553/V1_MQTT_OK/GD32VW55X_Wifi_BLE_SDK/GD32VW55x_RELEASE_V1.0.2/MSDK/wpa_supplicant/src/tls\tlsv1_client.c **** 
 1605              		.loc 1 498 2 is_stmt 1
 498:C:/Users/stapi/OneDrive/Desktop/GD32VW553/V1_MQTT_OK/GD32VW55X_Wifi_BLE_SDK/GD32VW55x_RELEASE_V1.0.2/MSDK/wpa_supplicant/src/tls\tlsv1_client.c **** 
 1606              		.loc 1 498 26 is_stmt 0
 1607 00ac B147     		li	a5,12
 1608 00ae 2320F41E 		sw	a5,480(s0)
 500:C:/Users/stapi/OneDrive/Desktop/GD32VW553/V1_MQTT_OK/GD32VW55X_Wifi_BLE_SDK/GD32VW55x_RELEASE_V1.0.2/MSDK/wpa_supplicant/src/tls\tlsv1_client.c **** 
 1609              		.loc 1 500 2 is_stmt 1
 500:C:/Users/stapi/OneDrive/Desktop/GD32VW553/V1_MQTT_OK/GD32VW55X_Wifi_BLE_SDK/GD32VW55x_RELEASE_V1.0.2/MSDK/wpa_supplicant/src/tls\tlsv1_client.c **** 
 1610              		.loc 1 500 23 is_stmt 0
 1611 00b2 93071030 		li	a5,769
 1612 00b6 2312F400 		sh	a5,4(s0)
 502:C:/Users/stapi/OneDrive/Desktop/GD32VW553/V1_MQTT_OK/GD32VW55X_Wifi_BLE_SDK/GD32VW55x_RELEASE_V1.0.2/MSDK/wpa_supplicant/src/tls\tlsv1_client.c **** }
 1613              		.loc 1 502 2 is_stmt 1
 502:C:/Users/stapi/OneDrive/Desktop/GD32VW553/V1_MQTT_OK/GD32VW55X_Wifi_BLE_SDK/GD32VW55x_RELEASE_V1.0.2/MSDK/wpa_supplicant/src/tls\tlsv1_client.c **** }
 1614              		.loc 1 502 9 is_stmt 0
 1615 00ba 41BF     		j	.L117
 1616              		.cfi_endproc
 1617              	.LFE96:
 1619              		.section	.text.tlsv1_client_deinit,"ax",@progbits
 1620              		.align	1
 1621              		.globl	tlsv1_client_deinit
 1623              	tlsv1_client_deinit:
 1624              	.LFB97:
 504:C:/Users/stapi/OneDrive/Desktop/GD32VW553/V1_MQTT_OK/GD32VW55X_Wifi_BLE_SDK/GD32VW55x_RELEASE_V1.0.2/MSDK/wpa_supplicant/src/tls\tlsv1_client.c **** 
 505:C:/Users/stapi/OneDrive/Desktop/GD32VW553/V1_MQTT_OK/GD32VW55X_Wifi_BLE_SDK/GD32VW55x_RELEASE_V1.0.2/MSDK/wpa_supplicant/src/tls\tlsv1_client.c **** 
 506:C:/Users/stapi/OneDrive/Desktop/GD32VW553/V1_MQTT_OK/GD32VW55X_Wifi_BLE_SDK/GD32VW55x_RELEASE_V1.0.2/MSDK/wpa_supplicant/src/tls\tlsv1_client.c **** /**
 507:C:/Users/stapi/OneDrive/Desktop/GD32VW553/V1_MQTT_OK/GD32VW55X_Wifi_BLE_SDK/GD32VW55x_RELEASE_V1.0.2/MSDK/wpa_supplicant/src/tls\tlsv1_client.c ****  * tlsv1_client_deinit - Deinitialize TLSv1 client connection
 508:C:/Users/stapi/OneDrive/Desktop/GD32VW553/V1_MQTT_OK/GD32VW55X_Wifi_BLE_SDK/GD32VW55x_RELEASE_V1.0.2/MSDK/wpa_supplicant/src/tls\tlsv1_client.c ****  * @conn: TLSv1 client connection data from tlsv1_client_init()
 509:C:/Users/stapi/OneDrive/Desktop/GD32VW553/V1_MQTT_OK/GD32VW55X_Wifi_BLE_SDK/GD32VW55x_RELEASE_V1.0.2/MSDK/wpa_supplicant/src/tls\tlsv1_client.c ****  */
 510:C:/Users/stapi/OneDrive/Desktop/GD32VW553/V1_MQTT_OK/GD32VW55X_Wifi_BLE_SDK/GD32VW55x_RELEASE_V1.0.2/MSDK/wpa_supplicant/src/tls\tlsv1_client.c **** void tlsv1_client_deinit(struct tlsv1_client *conn)
 511:C:/Users/stapi/OneDrive/Desktop/GD32VW553/V1_MQTT_OK/GD32VW55X_Wifi_BLE_SDK/GD32VW55x_RELEASE_V1.0.2/MSDK/wpa_supplicant/src/tls\tlsv1_client.c **** {
 1625              		.loc 1 511 1 is_stmt 1
 1626              		.cfi_startproc
 1627              	.LVL188:
 1628 0000 17030000 		call	t0,__riscv_save_2
 1628      E7020300 
 1629              		.cfi_offset 9, -12
 1630              		.cfi_offset 8, -8
 1631              		.cfi_offset 1, -4
 1632              		.cfi_def_cfa_offset 16
 512:C:/Users/stapi/OneDrive/Desktop/GD32VW553/V1_MQTT_OK/GD32VW55X_Wifi_BLE_SDK/GD32VW55x_RELEASE_V1.0.2/MSDK/wpa_supplicant/src/tls\tlsv1_client.c **** 	crypto_public_key_free(conn->server_rsa_key);
 1633              		.loc 1 512 2
 511:C:/Users/stapi/OneDrive/Desktop/GD32VW553/V1_MQTT_OK/GD32VW55X_Wifi_BLE_SDK/GD32VW55x_RELEASE_V1.0.2/MSDK/wpa_supplicant/src/tls\tlsv1_client.c **** 	crypto_public_key_free(conn->server_rsa_key);
 1634              		.loc 1 511 1 is_stmt 0
 1635 0008 2A84     		mv	s0,a0
 1636              		.loc 1 512 2
 1637 000a 0325C517 		lw	a0,380(a0)
 1638              	.LVL189:
 513:C:/Users/stapi/OneDrive/Desktop/GD32VW553/V1_MQTT_OK/GD32VW55X_Wifi_BLE_SDK/GD32VW55x_RELEASE_V1.0.2/MSDK/wpa_supplicant/src/tls\tlsv1_client.c **** 	tlsv1_record_set_cipher_suite(&conn->rl, TLS_NULL_WITH_NULL_NULL);
 1639              		.loc 1 513 2
 1640 000e 93044400 		addi	s1,s0,4
 512:C:/Users/stapi/OneDrive/Desktop/GD32VW553/V1_MQTT_OK/GD32VW55X_Wifi_BLE_SDK/GD32VW55x_RELEASE_V1.0.2/MSDK/wpa_supplicant/src/tls\tlsv1_client.c **** 	crypto_public_key_free(conn->server_rsa_key);
 1641              		.loc 1 512 2
 1642 0012 97000000 		call	crypto_public_key_free
 1642      E7800000 
 1643              	.LVL190:
 1644              		.loc 1 513 2 is_stmt 1
 1645 001a 8145     		li	a1,0
 1646 001c 2685     		mv	a0,s1
 1647 001e 97000000 		call	tlsv1_record_set_cipher_suite
 1647      E7800000 
 1648              	.LVL191:
 514:C:/Users/stapi/OneDrive/Desktop/GD32VW553/V1_MQTT_OK/GD32VW55X_Wifi_BLE_SDK/GD32VW55x_RELEASE_V1.0.2/MSDK/wpa_supplicant/src/tls\tlsv1_client.c **** 	tlsv1_record_change_write_cipher(&conn->rl);
 1649              		.loc 1 514 2
 1650 0026 2685     		mv	a0,s1
 1651 0028 97000000 		call	tlsv1_record_change_write_cipher
 1651      E7800000 
 1652              	.LVL192:
 515:C:/Users/stapi/OneDrive/Desktop/GD32VW553/V1_MQTT_OK/GD32VW55X_Wifi_BLE_SDK/GD32VW55x_RELEASE_V1.0.2/MSDK/wpa_supplicant/src/tls\tlsv1_client.c **** 	tlsv1_record_change_read_cipher(&conn->rl);
 1653              		.loc 1 515 2
 1654 0030 2685     		mv	a0,s1
 1655 0032 97000000 		call	tlsv1_record_change_read_cipher
 1655      E7800000 
 1656              	.LVL193:
 516:C:/Users/stapi/OneDrive/Desktop/GD32VW553/V1_MQTT_OK/GD32VW55X_Wifi_BLE_SDK/GD32VW55x_RELEASE_V1.0.2/MSDK/wpa_supplicant/src/tls\tlsv1_client.c **** 	tls_verify_hash_free(&conn->verify);
 1657              		.loc 1 516 2
 1658 003a 93040418 		addi	s1,s0,384
 1659 003e 2685     		mv	a0,s1
 1660 0040 97000000 		call	tls_verify_hash_free
 1660      E7800000 
 1661              	.LVL194:
 517:C:/Users/stapi/OneDrive/Desktop/GD32VW553/V1_MQTT_OK/GD32VW55X_Wifi_BLE_SDK/GD32VW55x_RELEASE_V1.0.2/MSDK/wpa_supplicant/src/tls\tlsv1_client.c **** 	os_free(conn->client_hello_ext);
 1662              		.loc 1 517 2
 1663 0048 A854     		lw	a0,104(s1)
 518:C:/Users/stapi/OneDrive/Desktop/GD32VW553/V1_MQTT_OK/GD32VW55X_Wifi_BLE_SDK/GD32VW55x_RELEASE_V1.0.2/MSDK/wpa_supplicant/src/tls\tlsv1_client.c **** 	tlsv1_client_free_dh(conn);
 519:C:/Users/stapi/OneDrive/Desktop/GD32VW553/V1_MQTT_OK/GD32VW55X_Wifi_BLE_SDK/GD32VW55x_RELEASE_V1.0.2/MSDK/wpa_supplicant/src/tls\tlsv1_client.c **** 	tlsv1_cred_free(conn->cred);
 1664              		.loc 1 519 2 is_stmt 0
 1665 004a 93040420 		addi	s1,s0,512
 517:C:/Users/stapi/OneDrive/Desktop/GD32VW553/V1_MQTT_OK/GD32VW55X_Wifi_BLE_SDK/GD32VW55x_RELEASE_V1.0.2/MSDK/wpa_supplicant/src/tls\tlsv1_client.c **** 	os_free(conn->client_hello_ext);
 1666              		.loc 1 517 2
 1667 004e 97000000 		call	os_free
 1667      E7800000 
 1668              	.LVL195:
 518:C:/Users/stapi/OneDrive/Desktop/GD32VW553/V1_MQTT_OK/GD32VW55X_Wifi_BLE_SDK/GD32VW55x_RELEASE_V1.0.2/MSDK/wpa_supplicant/src/tls\tlsv1_client.c **** 	tlsv1_client_free_dh(conn);
 1669              		.loc 1 518 2 is_stmt 1
 1670 0056 2285     		mv	a0,s0
 1671 0058 97000000 		call	tlsv1_client_free_dh
 1671      E7800000 
 1672              	.LVL196:
 1673              		.loc 1 519 2
 1674 0060 8844     		lw	a0,8(s1)
 1675 0062 97000000 		call	tlsv1_cred_free
 1675      E7800000 
 1676              	.LVL197:
 520:C:/Users/stapi/OneDrive/Desktop/GD32VW553/V1_MQTT_OK/GD32VW55X_Wifi_BLE_SDK/GD32VW55x_RELEASE_V1.0.2/MSDK/wpa_supplicant/src/tls\tlsv1_client.c **** 	wpabuf_free(conn->partial_input);
 1677              		.loc 1 520 2
 1678 006a C848     		lw	a0,20(s1)
 1679 006c 97000000 		call	wpabuf_free
 1679      E7800000 
 1680              	.LVL198:
 521:C:/Users/stapi/OneDrive/Desktop/GD32VW553/V1_MQTT_OK/GD32VW55X_Wifi_BLE_SDK/GD32VW55x_RELEASE_V1.0.2/MSDK/wpa_supplicant/src/tls\tlsv1_client.c **** 	x509_certificate_chain_free(conn->server_cert);
 1681              		.loc 1 521 2
 1682 0074 8850     		lw	a0,32(s1)
 1683 0076 97000000 		call	x509_certificate_chain_free
 1683      E7800000 
 1684              	.LVL199:
 522:C:/Users/stapi/OneDrive/Desktop/GD32VW553/V1_MQTT_OK/GD32VW55X_Wifi_BLE_SDK/GD32VW55x_RELEASE_V1.0.2/MSDK/wpa_supplicant/src/tls\tlsv1_client.c **** 	os_free(conn);
 1685              		.loc 1 522 2
 1686 007e 2285     		mv	a0,s0
 1687 0080 97000000 		call	os_free
 1687      E7800000 
 1688              	.LVL200:
 523:C:/Users/stapi/OneDrive/Desktop/GD32VW553/V1_MQTT_OK/GD32VW55X_Wifi_BLE_SDK/GD32VW55x_RELEASE_V1.0.2/MSDK/wpa_supplicant/src/tls\tlsv1_client.c **** }
 1689              		.loc 1 523 1 is_stmt 0
 1690 0088 17030000 		tail	__riscv_restore_2
 1690      67000300 
 1691              		.cfi_restore 9
 1692              		.cfi_restore 8
 1693              		.cfi_restore 1
 1694              		.cfi_def_cfa_offset 0
 1695              		.cfi_endproc
 1696              	.LFE97:
 1698              		.section	.text.tlsv1_client_established,"ax",@progbits
 1699              		.align	1
 1700              		.globl	tlsv1_client_established
 1702              	tlsv1_client_established:
 1703              	.LFB98:
 524:C:/Users/stapi/OneDrive/Desktop/GD32VW553/V1_MQTT_OK/GD32VW55X_Wifi_BLE_SDK/GD32VW55x_RELEASE_V1.0.2/MSDK/wpa_supplicant/src/tls\tlsv1_client.c **** 
 525:C:/Users/stapi/OneDrive/Desktop/GD32VW553/V1_MQTT_OK/GD32VW55X_Wifi_BLE_SDK/GD32VW55x_RELEASE_V1.0.2/MSDK/wpa_supplicant/src/tls\tlsv1_client.c **** 
 526:C:/Users/stapi/OneDrive/Desktop/GD32VW553/V1_MQTT_OK/GD32VW55X_Wifi_BLE_SDK/GD32VW55x_RELEASE_V1.0.2/MSDK/wpa_supplicant/src/tls\tlsv1_client.c **** /**
 527:C:/Users/stapi/OneDrive/Desktop/GD32VW553/V1_MQTT_OK/GD32VW55X_Wifi_BLE_SDK/GD32VW55x_RELEASE_V1.0.2/MSDK/wpa_supplicant/src/tls\tlsv1_client.c ****  * tlsv1_client_established - Check whether connection has been established
 528:C:/Users/stapi/OneDrive/Desktop/GD32VW553/V1_MQTT_OK/GD32VW55X_Wifi_BLE_SDK/GD32VW55x_RELEASE_V1.0.2/MSDK/wpa_supplicant/src/tls\tlsv1_client.c ****  * @conn: TLSv1 client connection data from tlsv1_client_init()
 529:C:/Users/stapi/OneDrive/Desktop/GD32VW553/V1_MQTT_OK/GD32VW55X_Wifi_BLE_SDK/GD32VW55x_RELEASE_V1.0.2/MSDK/wpa_supplicant/src/tls\tlsv1_client.c ****  * Returns: 1 if connection is established, 0 if not
 530:C:/Users/stapi/OneDrive/Desktop/GD32VW553/V1_MQTT_OK/GD32VW55X_Wifi_BLE_SDK/GD32VW55x_RELEASE_V1.0.2/MSDK/wpa_supplicant/src/tls\tlsv1_client.c ****  */
 531:C:/Users/stapi/OneDrive/Desktop/GD32VW553/V1_MQTT_OK/GD32VW55X_Wifi_BLE_SDK/GD32VW55x_RELEASE_V1.0.2/MSDK/wpa_supplicant/src/tls\tlsv1_client.c **** int tlsv1_client_established(struct tlsv1_client *conn)
 532:C:/Users/stapi/OneDrive/Desktop/GD32VW553/V1_MQTT_OK/GD32VW55X_Wifi_BLE_SDK/GD32VW55x_RELEASE_V1.0.2/MSDK/wpa_supplicant/src/tls\tlsv1_client.c **** {
 1704              		.loc 1 532 1 is_stmt 1
 1705              		.cfi_startproc
 1706              	.LVL201:
 533:C:/Users/stapi/OneDrive/Desktop/GD32VW553/V1_MQTT_OK/GD32VW55X_Wifi_BLE_SDK/GD32VW55x_RELEASE_V1.0.2/MSDK/wpa_supplicant/src/tls\tlsv1_client.c **** 	return conn->state == ESTABLISHED;
 1707              		.loc 1 533 2
 1708              		.loc 1 533 21 is_stmt 0
 1709 0000 0841     		lw	a0,0(a0)
 1710              	.LVL202:
 1711 0002 5515     		addi	a0,a0,-11
 534:C:/Users/stapi/OneDrive/Desktop/GD32VW553/V1_MQTT_OK/GD32VW55X_Wifi_BLE_SDK/GD32VW55x_RELEASE_V1.0.2/MSDK/wpa_supplicant/src/tls\tlsv1_client.c **** }
 1712              		.loc 1 534 1
 1713 0004 13351500 		seqz	a0,a0
 1714 0008 8280     		ret
 1715              		.cfi_endproc
 1716              	.LFE98:
 1718              		.section	.text.tlsv1_client_prf,"ax",@progbits
 1719              		.align	1
 1720              		.globl	tlsv1_client_prf
 1722              	tlsv1_client_prf:
 1723              	.LFB99:
 535:C:/Users/stapi/OneDrive/Desktop/GD32VW553/V1_MQTT_OK/GD32VW55X_Wifi_BLE_SDK/GD32VW55x_RELEASE_V1.0.2/MSDK/wpa_supplicant/src/tls\tlsv1_client.c **** 
 536:C:/Users/stapi/OneDrive/Desktop/GD32VW553/V1_MQTT_OK/GD32VW55X_Wifi_BLE_SDK/GD32VW55x_RELEASE_V1.0.2/MSDK/wpa_supplicant/src/tls\tlsv1_client.c **** 
 537:C:/Users/stapi/OneDrive/Desktop/GD32VW553/V1_MQTT_OK/GD32VW55X_Wifi_BLE_SDK/GD32VW55x_RELEASE_V1.0.2/MSDK/wpa_supplicant/src/tls\tlsv1_client.c **** /**
 538:C:/Users/stapi/OneDrive/Desktop/GD32VW553/V1_MQTT_OK/GD32VW55X_Wifi_BLE_SDK/GD32VW55x_RELEASE_V1.0.2/MSDK/wpa_supplicant/src/tls\tlsv1_client.c ****  * tlsv1_client_prf - Use TLS-PRF to derive keying material
 539:C:/Users/stapi/OneDrive/Desktop/GD32VW553/V1_MQTT_OK/GD32VW55X_Wifi_BLE_SDK/GD32VW55x_RELEASE_V1.0.2/MSDK/wpa_supplicant/src/tls\tlsv1_client.c ****  * @conn: TLSv1 client connection data from tlsv1_client_init()
 540:C:/Users/stapi/OneDrive/Desktop/GD32VW553/V1_MQTT_OK/GD32VW55X_Wifi_BLE_SDK/GD32VW55x_RELEASE_V1.0.2/MSDK/wpa_supplicant/src/tls\tlsv1_client.c ****  * @label: Label (e.g., description of the key) for PRF
 541:C:/Users/stapi/OneDrive/Desktop/GD32VW553/V1_MQTT_OK/GD32VW55X_Wifi_BLE_SDK/GD32VW55x_RELEASE_V1.0.2/MSDK/wpa_supplicant/src/tls\tlsv1_client.c ****  * @context: Optional extra upper-layer context (max len 2^16)
 542:C:/Users/stapi/OneDrive/Desktop/GD32VW553/V1_MQTT_OK/GD32VW55X_Wifi_BLE_SDK/GD32VW55x_RELEASE_V1.0.2/MSDK/wpa_supplicant/src/tls\tlsv1_client.c ****  * @context_len: The length of the context value
 543:C:/Users/stapi/OneDrive/Desktop/GD32VW553/V1_MQTT_OK/GD32VW55X_Wifi_BLE_SDK/GD32VW55x_RELEASE_V1.0.2/MSDK/wpa_supplicant/src/tls\tlsv1_client.c ****  * @server_random_first: seed is 0 = client_random|server_random,
 544:C:/Users/stapi/OneDrive/Desktop/GD32VW553/V1_MQTT_OK/GD32VW55X_Wifi_BLE_SDK/GD32VW55x_RELEASE_V1.0.2/MSDK/wpa_supplicant/src/tls\tlsv1_client.c ****  * 1 = server_random|client_random
 545:C:/Users/stapi/OneDrive/Desktop/GD32VW553/V1_MQTT_OK/GD32VW55X_Wifi_BLE_SDK/GD32VW55x_RELEASE_V1.0.2/MSDK/wpa_supplicant/src/tls\tlsv1_client.c ****  * @out: Buffer for output data from TLS-PRF
 546:C:/Users/stapi/OneDrive/Desktop/GD32VW553/V1_MQTT_OK/GD32VW55X_Wifi_BLE_SDK/GD32VW55x_RELEASE_V1.0.2/MSDK/wpa_supplicant/src/tls\tlsv1_client.c ****  * @out_len: Length of the output buffer
 547:C:/Users/stapi/OneDrive/Desktop/GD32VW553/V1_MQTT_OK/GD32VW55X_Wifi_BLE_SDK/GD32VW55x_RELEASE_V1.0.2/MSDK/wpa_supplicant/src/tls\tlsv1_client.c ****  * Returns: 0 on success, -1 on failure
 548:C:/Users/stapi/OneDrive/Desktop/GD32VW553/V1_MQTT_OK/GD32VW55X_Wifi_BLE_SDK/GD32VW55x_RELEASE_V1.0.2/MSDK/wpa_supplicant/src/tls\tlsv1_client.c ****  */
 549:C:/Users/stapi/OneDrive/Desktop/GD32VW553/V1_MQTT_OK/GD32VW55X_Wifi_BLE_SDK/GD32VW55x_RELEASE_V1.0.2/MSDK/wpa_supplicant/src/tls\tlsv1_client.c **** int tlsv1_client_prf(struct tlsv1_client *conn, const char *label,
 550:C:/Users/stapi/OneDrive/Desktop/GD32VW553/V1_MQTT_OK/GD32VW55X_Wifi_BLE_SDK/GD32VW55x_RELEASE_V1.0.2/MSDK/wpa_supplicant/src/tls\tlsv1_client.c **** 		     const u8 *context, size_t context_len,
 551:C:/Users/stapi/OneDrive/Desktop/GD32VW553/V1_MQTT_OK/GD32VW55X_Wifi_BLE_SDK/GD32VW55x_RELEASE_V1.0.2/MSDK/wpa_supplicant/src/tls\tlsv1_client.c **** 		     int server_random_first, u8 *out, size_t out_len)
 552:C:/Users/stapi/OneDrive/Desktop/GD32VW553/V1_MQTT_OK/GD32VW55X_Wifi_BLE_SDK/GD32VW55x_RELEASE_V1.0.2/MSDK/wpa_supplicant/src/tls\tlsv1_client.c **** {
 1724              		.loc 1 552 1 is_stmt 1
 1725              		.cfi_startproc
 1726              	.LVL203:
 1727 0000 17030000 		call	t0,__riscv_save_12
 1727      E7020300 
 1728              		.cfi_offset 27, -52
 1729              		.cfi_offset 26, -48
 1730              		.cfi_offset 25, -44
 1731              		.cfi_offset 24, -40
 1732              		.cfi_offset 23, -36
 1733              		.cfi_offset 22, -32
 1734              		.cfi_offset 21, -28
 1735              		.cfi_offset 20, -24
 1736              		.cfi_offset 19, -20
 1737              		.cfi_offset 18, -16
 1738              		.cfi_offset 9, -12
 1739              		.cfi_offset 8, -8
 1740              		.cfi_offset 1, -4
 1741              		.cfi_def_cfa_offset 64
 553:C:/Users/stapi/OneDrive/Desktop/GD32VW553/V1_MQTT_OK/GD32VW55X_Wifi_BLE_SDK/GD32VW55x_RELEASE_V1.0.2/MSDK/wpa_supplicant/src/tls\tlsv1_client.c **** 	u8 *seed, *pos;
 1742              		.loc 1 553 2
 554:C:/Users/stapi/OneDrive/Desktop/GD32VW553/V1_MQTT_OK/GD32VW55X_Wifi_BLE_SDK/GD32VW55x_RELEASE_V1.0.2/MSDK/wpa_supplicant/src/tls\tlsv1_client.c **** 	size_t seed_len = 2 * TLS_RANDOM_LEN;
 1743              		.loc 1 554 2
 1744              	.LVL204:
 555:C:/Users/stapi/OneDrive/Desktop/GD32VW553/V1_MQTT_OK/GD32VW55X_Wifi_BLE_SDK/GD32VW55x_RELEASE_V1.0.2/MSDK/wpa_supplicant/src/tls\tlsv1_client.c **** 	int res;
 1745              		.loc 1 555 2
 556:C:/Users/stapi/OneDrive/Desktop/GD32VW553/V1_MQTT_OK/GD32VW55X_Wifi_BLE_SDK/GD32VW55x_RELEASE_V1.0.2/MSDK/wpa_supplicant/src/tls\tlsv1_client.c **** 
 557:C:/Users/stapi/OneDrive/Desktop/GD32VW553/V1_MQTT_OK/GD32VW55X_Wifi_BLE_SDK/GD32VW55x_RELEASE_V1.0.2/MSDK/wpa_supplicant/src/tls\tlsv1_client.c **** 	if (conn->state != ESTABLISHED)
 1746              		.loc 1 557 2
 552:C:/Users/stapi/OneDrive/Desktop/GD32VW553/V1_MQTT_OK/GD32VW55X_Wifi_BLE_SDK/GD32VW55x_RELEASE_V1.0.2/MSDK/wpa_supplicant/src/tls\tlsv1_client.c **** 	u8 *seed, *pos;
 1747              		.loc 1 552 1 is_stmt 0
 1748 0008 3A8C     		mv	s8,a4
 1749              		.loc 1 557 5
 1750 000a 1841     		lw	a4,0(a0)
 1751              	.LVL205:
 552:C:/Users/stapi/OneDrive/Desktop/GD32VW553/V1_MQTT_OK/GD32VW55X_Wifi_BLE_SDK/GD32VW55x_RELEASE_V1.0.2/MSDK/wpa_supplicant/src/tls\tlsv1_client.c **** 	u8 *seed, *pos;
 1752              		.loc 1 552 1
 1753 000c 3E8B     		mv	s6,a5
 1754              		.loc 1 557 5
 1755 000e AD47     		li	a5,11
 1756              	.LVL206:
 1757 0010 6308F700 		beq	a4,a5,.L128
 1758              	.LVL207:
 1759              	.L130:
 558:C:/Users/stapi/OneDrive/Desktop/GD32VW553/V1_MQTT_OK/GD32VW55X_Wifi_BLE_SDK/GD32VW55x_RELEASE_V1.0.2/MSDK/wpa_supplicant/src/tls\tlsv1_client.c **** 		return -1;
 1760              		.loc 1 558 10
 1761 0014 FD54     		li	s1,-1
 1762              	.L127:
 559:C:/Users/stapi/OneDrive/Desktop/GD32VW553/V1_MQTT_OK/GD32VW55X_Wifi_BLE_SDK/GD32VW55x_RELEASE_V1.0.2/MSDK/wpa_supplicant/src/tls\tlsv1_client.c **** 
 560:C:/Users/stapi/OneDrive/Desktop/GD32VW553/V1_MQTT_OK/GD32VW55X_Wifi_BLE_SDK/GD32VW55x_RELEASE_V1.0.2/MSDK/wpa_supplicant/src/tls\tlsv1_client.c **** 	if (context_len > 65535)
 561:C:/Users/stapi/OneDrive/Desktop/GD32VW553/V1_MQTT_OK/GD32VW55X_Wifi_BLE_SDK/GD32VW55x_RELEASE_V1.0.2/MSDK/wpa_supplicant/src/tls\tlsv1_client.c **** 		return -1;
 562:C:/Users/stapi/OneDrive/Desktop/GD32VW553/V1_MQTT_OK/GD32VW55X_Wifi_BLE_SDK/GD32VW55x_RELEASE_V1.0.2/MSDK/wpa_supplicant/src/tls\tlsv1_client.c **** 
 563:C:/Users/stapi/OneDrive/Desktop/GD32VW553/V1_MQTT_OK/GD32VW55X_Wifi_BLE_SDK/GD32VW55x_RELEASE_V1.0.2/MSDK/wpa_supplicant/src/tls\tlsv1_client.c **** 	if (context)
 564:C:/Users/stapi/OneDrive/Desktop/GD32VW553/V1_MQTT_OK/GD32VW55X_Wifi_BLE_SDK/GD32VW55x_RELEASE_V1.0.2/MSDK/wpa_supplicant/src/tls\tlsv1_client.c **** 		seed_len += 2 + context_len;
 565:C:/Users/stapi/OneDrive/Desktop/GD32VW553/V1_MQTT_OK/GD32VW55X_Wifi_BLE_SDK/GD32VW55x_RELEASE_V1.0.2/MSDK/wpa_supplicant/src/tls\tlsv1_client.c **** 
 566:C:/Users/stapi/OneDrive/Desktop/GD32VW553/V1_MQTT_OK/GD32VW55X_Wifi_BLE_SDK/GD32VW55x_RELEASE_V1.0.2/MSDK/wpa_supplicant/src/tls\tlsv1_client.c **** 	seed = os_malloc(seed_len);
 567:C:/Users/stapi/OneDrive/Desktop/GD32VW553/V1_MQTT_OK/GD32VW55X_Wifi_BLE_SDK/GD32VW55x_RELEASE_V1.0.2/MSDK/wpa_supplicant/src/tls\tlsv1_client.c **** 	if (!seed)
 568:C:/Users/stapi/OneDrive/Desktop/GD32VW553/V1_MQTT_OK/GD32VW55X_Wifi_BLE_SDK/GD32VW55x_RELEASE_V1.0.2/MSDK/wpa_supplicant/src/tls\tlsv1_client.c **** 		return -1;
 569:C:/Users/stapi/OneDrive/Desktop/GD32VW553/V1_MQTT_OK/GD32VW55X_Wifi_BLE_SDK/GD32VW55x_RELEASE_V1.0.2/MSDK/wpa_supplicant/src/tls\tlsv1_client.c **** 
 570:C:/Users/stapi/OneDrive/Desktop/GD32VW553/V1_MQTT_OK/GD32VW55X_Wifi_BLE_SDK/GD32VW55x_RELEASE_V1.0.2/MSDK/wpa_supplicant/src/tls\tlsv1_client.c **** 	if (server_random_first) {
 571:C:/Users/stapi/OneDrive/Desktop/GD32VW553/V1_MQTT_OK/GD32VW55X_Wifi_BLE_SDK/GD32VW55x_RELEASE_V1.0.2/MSDK/wpa_supplicant/src/tls\tlsv1_client.c **** 		os_memcpy(seed, conn->server_random, TLS_RANDOM_LEN);
 572:C:/Users/stapi/OneDrive/Desktop/GD32VW553/V1_MQTT_OK/GD32VW55X_Wifi_BLE_SDK/GD32VW55x_RELEASE_V1.0.2/MSDK/wpa_supplicant/src/tls\tlsv1_client.c **** 		os_memcpy(seed + TLS_RANDOM_LEN, conn->client_random,
 573:C:/Users/stapi/OneDrive/Desktop/GD32VW553/V1_MQTT_OK/GD32VW55X_Wifi_BLE_SDK/GD32VW55x_RELEASE_V1.0.2/MSDK/wpa_supplicant/src/tls\tlsv1_client.c **** 			  TLS_RANDOM_LEN);
 574:C:/Users/stapi/OneDrive/Desktop/GD32VW553/V1_MQTT_OK/GD32VW55X_Wifi_BLE_SDK/GD32VW55x_RELEASE_V1.0.2/MSDK/wpa_supplicant/src/tls\tlsv1_client.c **** 	} else {
 575:C:/Users/stapi/OneDrive/Desktop/GD32VW553/V1_MQTT_OK/GD32VW55X_Wifi_BLE_SDK/GD32VW55x_RELEASE_V1.0.2/MSDK/wpa_supplicant/src/tls\tlsv1_client.c **** 		os_memcpy(seed, conn->client_random, TLS_RANDOM_LEN);
 576:C:/Users/stapi/OneDrive/Desktop/GD32VW553/V1_MQTT_OK/GD32VW55X_Wifi_BLE_SDK/GD32VW55x_RELEASE_V1.0.2/MSDK/wpa_supplicant/src/tls\tlsv1_client.c **** 		os_memcpy(seed + TLS_RANDOM_LEN, conn->server_random,
 577:C:/Users/stapi/OneDrive/Desktop/GD32VW553/V1_MQTT_OK/GD32VW55X_Wifi_BLE_SDK/GD32VW55x_RELEASE_V1.0.2/MSDK/wpa_supplicant/src/tls\tlsv1_client.c **** 			  TLS_RANDOM_LEN);
 578:C:/Users/stapi/OneDrive/Desktop/GD32VW553/V1_MQTT_OK/GD32VW55X_Wifi_BLE_SDK/GD32VW55x_RELEASE_V1.0.2/MSDK/wpa_supplicant/src/tls\tlsv1_client.c **** 	}
 579:C:/Users/stapi/OneDrive/Desktop/GD32VW553/V1_MQTT_OK/GD32VW55X_Wifi_BLE_SDK/GD32VW55x_RELEASE_V1.0.2/MSDK/wpa_supplicant/src/tls\tlsv1_client.c **** 
 580:C:/Users/stapi/OneDrive/Desktop/GD32VW553/V1_MQTT_OK/GD32VW55X_Wifi_BLE_SDK/GD32VW55x_RELEASE_V1.0.2/MSDK/wpa_supplicant/src/tls\tlsv1_client.c **** 	if (context) {
 581:C:/Users/stapi/OneDrive/Desktop/GD32VW553/V1_MQTT_OK/GD32VW55X_Wifi_BLE_SDK/GD32VW55x_RELEASE_V1.0.2/MSDK/wpa_supplicant/src/tls\tlsv1_client.c **** 		pos = seed + 2 * TLS_RANDOM_LEN;
 582:C:/Users/stapi/OneDrive/Desktop/GD32VW553/V1_MQTT_OK/GD32VW55X_Wifi_BLE_SDK/GD32VW55x_RELEASE_V1.0.2/MSDK/wpa_supplicant/src/tls\tlsv1_client.c **** 		WPA_PUT_BE16(pos, context_len);
 583:C:/Users/stapi/OneDrive/Desktop/GD32VW553/V1_MQTT_OK/GD32VW55X_Wifi_BLE_SDK/GD32VW55x_RELEASE_V1.0.2/MSDK/wpa_supplicant/src/tls\tlsv1_client.c **** 		pos += 2;
 584:C:/Users/stapi/OneDrive/Desktop/GD32VW553/V1_MQTT_OK/GD32VW55X_Wifi_BLE_SDK/GD32VW55x_RELEASE_V1.0.2/MSDK/wpa_supplicant/src/tls\tlsv1_client.c **** 		os_memcpy(pos, context, context_len);
 585:C:/Users/stapi/OneDrive/Desktop/GD32VW553/V1_MQTT_OK/GD32VW55X_Wifi_BLE_SDK/GD32VW55x_RELEASE_V1.0.2/MSDK/wpa_supplicant/src/tls\tlsv1_client.c **** 	}
 586:C:/Users/stapi/OneDrive/Desktop/GD32VW553/V1_MQTT_OK/GD32VW55X_Wifi_BLE_SDK/GD32VW55x_RELEASE_V1.0.2/MSDK/wpa_supplicant/src/tls\tlsv1_client.c **** 
 587:C:/Users/stapi/OneDrive/Desktop/GD32VW553/V1_MQTT_OK/GD32VW55X_Wifi_BLE_SDK/GD32VW55x_RELEASE_V1.0.2/MSDK/wpa_supplicant/src/tls\tlsv1_client.c **** 	res = tls_prf(conn->rl.tls_version,
 588:C:/Users/stapi/OneDrive/Desktop/GD32VW553/V1_MQTT_OK/GD32VW55X_Wifi_BLE_SDK/GD32VW55x_RELEASE_V1.0.2/MSDK/wpa_supplicant/src/tls\tlsv1_client.c **** 		      conn->master_secret, TLS_MASTER_SECRET_LEN,
 589:C:/Users/stapi/OneDrive/Desktop/GD32VW553/V1_MQTT_OK/GD32VW55X_Wifi_BLE_SDK/GD32VW55x_RELEASE_V1.0.2/MSDK/wpa_supplicant/src/tls\tlsv1_client.c **** 		      label, seed, seed_len, out, out_len);
 590:C:/Users/stapi/OneDrive/Desktop/GD32VW553/V1_MQTT_OK/GD32VW55X_Wifi_BLE_SDK/GD32VW55x_RELEASE_V1.0.2/MSDK/wpa_supplicant/src/tls\tlsv1_client.c **** 	os_free(seed);
 591:C:/Users/stapi/OneDrive/Desktop/GD32VW553/V1_MQTT_OK/GD32VW55X_Wifi_BLE_SDK/GD32VW55x_RELEASE_V1.0.2/MSDK/wpa_supplicant/src/tls\tlsv1_client.c **** 	return res;
 592:C:/Users/stapi/OneDrive/Desktop/GD32VW553/V1_MQTT_OK/GD32VW55X_Wifi_BLE_SDK/GD32VW55x_RELEASE_V1.0.2/MSDK/wpa_supplicant/src/tls\tlsv1_client.c **** }
 1763              		.loc 1 592 1
 1764 0016 2685     		mv	a0,s1
 1765 0018 17030000 		tail	__riscv_restore_12
 1765      67000300 
 1766              		.cfi_remember_state
 1767              		.cfi_restore 27
 1768              		.cfi_restore 26
 1769              		.cfi_restore 25
 1770              		.cfi_restore 24
 1771              		.cfi_restore 23
 1772              		.cfi_restore 22
 1773              		.cfi_restore 21
 1774              		.cfi_restore 20
 1775              		.cfi_restore 19
 1776              		.cfi_restore 18
 1777              		.cfi_restore 9
 1778              		.cfi_restore 8
 1779              		.cfi_restore 1
 1780              		.cfi_def_cfa_offset 0
 1781              	.LVL208:
 1782              	.L128:
 1783              		.cfi_restore_state
 560:C:/Users/stapi/OneDrive/Desktop/GD32VW553/V1_MQTT_OK/GD32VW55X_Wifi_BLE_SDK/GD32VW55x_RELEASE_V1.0.2/MSDK/wpa_supplicant/src/tls\tlsv1_client.c **** 		return -1;
 1784              		.loc 1 560 5
 1785 0020 C167     		li	a5,65536
 1786 0022 3689     		mv	s2,a3
 560:C:/Users/stapi/OneDrive/Desktop/GD32VW553/V1_MQTT_OK/GD32VW55X_Wifi_BLE_SDK/GD32VW55x_RELEASE_V1.0.2/MSDK/wpa_supplicant/src/tls\tlsv1_client.c **** 		return -1;
 1787              		.loc 1 560 2 is_stmt 1
 560:C:/Users/stapi/OneDrive/Desktop/GD32VW553/V1_MQTT_OK/GD32VW55X_Wifi_BLE_SDK/GD32VW55x_RELEASE_V1.0.2/MSDK/wpa_supplicant/src/tls\tlsv1_client.c **** 		return -1;
 1788              		.loc 1 560 5 is_stmt 0
 1789 0024 E3F8F6FE 		bgeu	a3,a5,.L130
 1790 0028 AA84     		mv	s1,a0
 1791 002a 2E8A     		mv	s4,a1
 1792 002c B289     		mv	s3,a2
 1793 002e C28B     		mv	s7,a6
 563:C:/Users/stapi/OneDrive/Desktop/GD32VW553/V1_MQTT_OK/GD32VW55X_Wifi_BLE_SDK/GD32VW55x_RELEASE_V1.0.2/MSDK/wpa_supplicant/src/tls\tlsv1_client.c **** 		seed_len += 2 + context_len;
 1794              		.loc 1 563 2 is_stmt 1
 554:C:/Users/stapi/OneDrive/Desktop/GD32VW553/V1_MQTT_OK/GD32VW55X_Wifi_BLE_SDK/GD32VW55x_RELEASE_V1.0.2/MSDK/wpa_supplicant/src/tls\tlsv1_client.c **** 	int res;
 1795              		.loc 1 554 9 is_stmt 0
 1796 0030 930A0004 		li	s5,64
 563:C:/Users/stapi/OneDrive/Desktop/GD32VW553/V1_MQTT_OK/GD32VW55X_Wifi_BLE_SDK/GD32VW55x_RELEASE_V1.0.2/MSDK/wpa_supplicant/src/tls\tlsv1_client.c **** 		seed_len += 2 + context_len;
 1797              		.loc 1 563 5
 1798 0034 19C2     		beq	a2,zero,.L131
 1799              	.LVL209:
 564:C:/Users/stapi/OneDrive/Desktop/GD32VW553/V1_MQTT_OK/GD32VW55X_Wifi_BLE_SDK/GD32VW55x_RELEASE_V1.0.2/MSDK/wpa_supplicant/src/tls\tlsv1_client.c **** 
 1800              		.loc 1 564 3 is_stmt 1
 564:C:/Users/stapi/OneDrive/Desktop/GD32VW553/V1_MQTT_OK/GD32VW55X_Wifi_BLE_SDK/GD32VW55x_RELEASE_V1.0.2/MSDK/wpa_supplicant/src/tls\tlsv1_client.c **** 
 1801              		.loc 1 564 12 is_stmt 0
 1802 0036 938A2604 		addi	s5,a3,66
 1803              	.LVL210:
 1804              	.L131:
 566:C:/Users/stapi/OneDrive/Desktop/GD32VW553/V1_MQTT_OK/GD32VW55X_Wifi_BLE_SDK/GD32VW55x_RELEASE_V1.0.2/MSDK/wpa_supplicant/src/tls\tlsv1_client.c **** 	if (!seed)
 1805              		.loc 1 566 2 is_stmt 1
 566:C:/Users/stapi/OneDrive/Desktop/GD32VW553/V1_MQTT_OK/GD32VW55X_Wifi_BLE_SDK/GD32VW55x_RELEASE_V1.0.2/MSDK/wpa_supplicant/src/tls\tlsv1_client.c **** 	if (!seed)
 1806              		.loc 1 566 9 is_stmt 0
 1807 003a 5685     		mv	a0,s5
 1808 003c 97000000 		call	os_malloc
 1808      E7800000 
 1809              	.LVL211:
 1810 0044 2A84     		mv	s0,a0
 1811              	.LVL212:
 567:C:/Users/stapi/OneDrive/Desktop/GD32VW553/V1_MQTT_OK/GD32VW55X_Wifi_BLE_SDK/GD32VW55x_RELEASE_V1.0.2/MSDK/wpa_supplicant/src/tls\tlsv1_client.c **** 		return -1;
 1812              		.loc 1 567 2 is_stmt 1
 567:C:/Users/stapi/OneDrive/Desktop/GD32VW553/V1_MQTT_OK/GD32VW55X_Wifi_BLE_SDK/GD32VW55x_RELEASE_V1.0.2/MSDK/wpa_supplicant/src/tls\tlsv1_client.c **** 		return -1;
 1813              		.loc 1 567 5 is_stmt 0
 1814 0046 79D5     		beq	a0,zero,.L130
 570:C:/Users/stapi/OneDrive/Desktop/GD32VW553/V1_MQTT_OK/GD32VW55X_Wifi_BLE_SDK/GD32VW55x_RELEASE_V1.0.2/MSDK/wpa_supplicant/src/tls\tlsv1_client.c **** 		os_memcpy(seed, conn->server_random, TLS_RANDOM_LEN);
 1815              		.loc 1 570 2 is_stmt 1
 572:C:/Users/stapi/OneDrive/Desktop/GD32VW553/V1_MQTT_OK/GD32VW55X_Wifi_BLE_SDK/GD32VW55x_RELEASE_V1.0.2/MSDK/wpa_supplicant/src/tls\tlsv1_client.c **** 			  TLS_RANDOM_LEN);
 1816              		.loc 1 572 40 is_stmt 0
 1817 0048 938D0410 		addi	s11,s1,256
 572:C:/Users/stapi/OneDrive/Desktop/GD32VW553/V1_MQTT_OK/GD32VW55X_Wifi_BLE_SDK/GD32VW55x_RELEASE_V1.0.2/MSDK/wpa_supplicant/src/tls\tlsv1_client.c **** 			  TLS_RANDOM_LEN);
 1818              		.loc 1 572 18
 1819 004c 930C0502 		addi	s9,a0,32
 571:C:/Users/stapi/OneDrive/Desktop/GD32VW553/V1_MQTT_OK/GD32VW55X_Wifi_BLE_SDK/GD32VW55x_RELEASE_V1.0.2/MSDK/wpa_supplicant/src/tls\tlsv1_client.c **** 		os_memcpy(seed + TLS_RANDOM_LEN, conn->client_random,
 1820              		.loc 1 571 23
 1821 0050 138D0412 		addi	s10,s1,288
 571:C:/Users/stapi/OneDrive/Desktop/GD32VW553/V1_MQTT_OK/GD32VW55X_Wifi_BLE_SDK/GD32VW55x_RELEASE_V1.0.2/MSDK/wpa_supplicant/src/tls\tlsv1_client.c **** 		os_memcpy(seed + TLS_RANDOM_LEN, conn->client_random,
 1822              		.loc 1 571 3
 1823 0054 13060002 		li	a2,32
 570:C:/Users/stapi/OneDrive/Desktop/GD32VW553/V1_MQTT_OK/GD32VW55X_Wifi_BLE_SDK/GD32VW55x_RELEASE_V1.0.2/MSDK/wpa_supplicant/src/tls\tlsv1_client.c **** 		os_memcpy(seed, conn->server_random, TLS_RANDOM_LEN);
 1824              		.loc 1 570 5
 1825 0058 63060C06 		beq	s8,zero,.L132
 571:C:/Users/stapi/OneDrive/Desktop/GD32VW553/V1_MQTT_OK/GD32VW55X_Wifi_BLE_SDK/GD32VW55x_RELEASE_V1.0.2/MSDK/wpa_supplicant/src/tls\tlsv1_client.c **** 		os_memcpy(seed + TLS_RANDOM_LEN, conn->client_random,
 1826              		.loc 1 571 3 is_stmt 1
 1827 005c EA85     		mv	a1,s10
 1828 005e 97000000 		call	os_memcpy
 1828      E7800000 
 1829              	.LVL213:
 572:C:/Users/stapi/OneDrive/Desktop/GD32VW553/V1_MQTT_OK/GD32VW55X_Wifi_BLE_SDK/GD32VW55x_RELEASE_V1.0.2/MSDK/wpa_supplicant/src/tls\tlsv1_client.c **** 			  TLS_RANDOM_LEN);
 1830              		.loc 1 572 3
 1831 0066 13060002 		li	a2,32
 1832 006a EE85     		mv	a1,s11
 1833              	.L143:
 576:C:/Users/stapi/OneDrive/Desktop/GD32VW553/V1_MQTT_OK/GD32VW55X_Wifi_BLE_SDK/GD32VW55x_RELEASE_V1.0.2/MSDK/wpa_supplicant/src/tls\tlsv1_client.c **** 			  TLS_RANDOM_LEN);
 1834              		.loc 1 576 3 is_stmt 0
 1835 006c 6685     		mv	a0,s9
 1836 006e 97000000 		call	os_memcpy
 1836      E7800000 
 1837              	.LVL214:
 580:C:/Users/stapi/OneDrive/Desktop/GD32VW553/V1_MQTT_OK/GD32VW55X_Wifi_BLE_SDK/GD32VW55x_RELEASE_V1.0.2/MSDK/wpa_supplicant/src/tls\tlsv1_client.c **** 		pos = seed + 2 * TLS_RANDOM_LEN;
 1838              		.loc 1 580 2 is_stmt 1
 580:C:/Users/stapi/OneDrive/Desktop/GD32VW553/V1_MQTT_OK/GD32VW55X_Wifi_BLE_SDK/GD32VW55x_RELEASE_V1.0.2/MSDK/wpa_supplicant/src/tls\tlsv1_client.c **** 		pos = seed + 2 * TLS_RANDOM_LEN;
 1839              		.loc 1 580 5 is_stmt 0
 1840 0076 63810902 		beq	s3,zero,.L134
 581:C:/Users/stapi/OneDrive/Desktop/GD32VW553/V1_MQTT_OK/GD32VW55X_Wifi_BLE_SDK/GD32VW55x_RELEASE_V1.0.2/MSDK/wpa_supplicant/src/tls\tlsv1_client.c **** 		WPA_PUT_BE16(pos, context_len);
 1841              		.loc 1 581 3 is_stmt 1
 1842              	.LVL215:
 582:C:/Users/stapi/OneDrive/Desktop/GD32VW553/V1_MQTT_OK/GD32VW55X_Wifi_BLE_SDK/GD32VW55x_RELEASE_V1.0.2/MSDK/wpa_supplicant/src/tls\tlsv1_client.c **** 		pos += 2;
 1843              		.loc 1 582 3
 1844              	.LBB98:
 1845              	.LBB99:
 247:..\..\..\..\wpa_supplicant\src\utils/common.h **** 	a[1] = val & 0xff;
 1846              		.loc 2 247 2
 247:..\..\..\..\wpa_supplicant\src\utils/common.h **** 	a[1] = val & 0xff;
 1847              		.loc 2 247 7 is_stmt 0
 1848 007a B3470908 		zext.h	a5,s2
 1849 007e A183     		srli	a5,a5,8
 1850 0080 2300F404 		sb	a5,64(s0)
 1851              		.loc 2 248 2 is_stmt 1
 1852              		.loc 2 248 7 is_stmt 0
 1853 0084 A3002405 		sb	s2,65(s0)
 1854              	.LVL216:
 1855              	.LBE99:
 1856              	.LBE98:
 583:C:/Users/stapi/OneDrive/Desktop/GD32VW553/V1_MQTT_OK/GD32VW55X_Wifi_BLE_SDK/GD32VW55x_RELEASE_V1.0.2/MSDK/wpa_supplicant/src/tls\tlsv1_client.c **** 		os_memcpy(pos, context, context_len);
 1857              		.loc 1 583 3 is_stmt 1
 584:C:/Users/stapi/OneDrive/Desktop/GD32VW553/V1_MQTT_OK/GD32VW55X_Wifi_BLE_SDK/GD32VW55x_RELEASE_V1.0.2/MSDK/wpa_supplicant/src/tls\tlsv1_client.c **** 	}
 1858              		.loc 1 584 3
 1859 0088 4A86     		mv	a2,s2
 1860 008a CE85     		mv	a1,s3
 1861 008c 13052404 		addi	a0,s0,66
 1862              	.LVL217:
 1863 0090 97000000 		call	os_memcpy
 1863      E7800000 
 1864              	.LVL218:
 1865              	.L134:
 587:C:/Users/stapi/OneDrive/Desktop/GD32VW553/V1_MQTT_OK/GD32VW55X_Wifi_BLE_SDK/GD32VW55x_RELEASE_V1.0.2/MSDK/wpa_supplicant/src/tls\tlsv1_client.c **** 		      conn->master_secret, TLS_MASTER_SECRET_LEN,
 1866              		.loc 1 587 2
 587:C:/Users/stapi/OneDrive/Desktop/GD32VW553/V1_MQTT_OK/GD32VW55X_Wifi_BLE_SDK/GD32VW55x_RELEASE_V1.0.2/MSDK/wpa_supplicant/src/tls\tlsv1_client.c **** 		      conn->master_secret, TLS_MASTER_SECRET_LEN,
 1867              		.loc 1 587 8 is_stmt 0
 1868 0098 03D54400 		lhu	a0,4(s1)
 1869 009c 93850414 		addi	a1,s1,320
 1870 00a0 DE88     		mv	a7,s7
 1871 00a2 5A88     		mv	a6,s6
 1872 00a4 D687     		mv	a5,s5
 1873 00a6 2287     		mv	a4,s0
 1874 00a8 D286     		mv	a3,s4
 1875 00aa 13060003 		li	a2,48
 1876 00ae 97000000 		call	tls_prf
 1876      E7800000 
 1877              	.LVL219:
 1878 00b6 AA84     		mv	s1,a0
 1879              	.LVL220:
 590:C:/Users/stapi/OneDrive/Desktop/GD32VW553/V1_MQTT_OK/GD32VW55X_Wifi_BLE_SDK/GD32VW55x_RELEASE_V1.0.2/MSDK/wpa_supplicant/src/tls\tlsv1_client.c **** 	return res;
 1880              		.loc 1 590 2 is_stmt 1
 1881 00b8 2285     		mv	a0,s0
 1882 00ba 97000000 		call	os_free
 1882      E7800000 
 1883              	.LVL221:
 591:C:/Users/stapi/OneDrive/Desktop/GD32VW553/V1_MQTT_OK/GD32VW55X_Wifi_BLE_SDK/GD32VW55x_RELEASE_V1.0.2/MSDK/wpa_supplicant/src/tls\tlsv1_client.c **** }
 1884              		.loc 1 591 2
 591:C:/Users/stapi/OneDrive/Desktop/GD32VW553/V1_MQTT_OK/GD32VW55X_Wifi_BLE_SDK/GD32VW55x_RELEASE_V1.0.2/MSDK/wpa_supplicant/src/tls\tlsv1_client.c **** }
 1885              		.loc 1 591 9 is_stmt 0
 1886 00c2 91BF     		j	.L127
 1887              	.LVL222:
 1888              	.L132:
 575:C:/Users/stapi/OneDrive/Desktop/GD32VW553/V1_MQTT_OK/GD32VW55X_Wifi_BLE_SDK/GD32VW55x_RELEASE_V1.0.2/MSDK/wpa_supplicant/src/tls\tlsv1_client.c **** 		os_memcpy(seed + TLS_RANDOM_LEN, conn->server_random,
 1889              		.loc 1 575 3 is_stmt 1
 1890 00c4 EE85     		mv	a1,s11
 1891 00c6 97000000 		call	os_memcpy
 1891      E7800000 
 1892              	.LVL223:
 576:C:/Users/stapi/OneDrive/Desktop/GD32VW553/V1_MQTT_OK/GD32VW55X_Wifi_BLE_SDK/GD32VW55x_RELEASE_V1.0.2/MSDK/wpa_supplicant/src/tls\tlsv1_client.c **** 			  TLS_RANDOM_LEN);
 1893              		.loc 1 576 3
 1894 00ce 13060002 		li	a2,32
 1895 00d2 EA85     		mv	a1,s10
 1896 00d4 61BF     		j	.L143
 1897              		.cfi_endproc
 1898              	.LFE99:
 1900              		.section	.rodata.tlsv1_client_get_cipher.str1.4,"aMS",@progbits,1
 1901              		.align	2
 1902              	.LC17:
 1903 0000 4448452D 		.string	"DHE-RSA-AES-256-SHA256"
 1903      5253412D 
 1903      4145532D 
 1903      3235362D 
 1903      53484132 
 1904 0017 00       		.align	2
 1905              	.LC18:
 1906 0018 5243342D 		.string	"RC4-MD5"
 1906      4D443500 
 1907              		.align	2
 1908              	.LC19:
 1909 0020 4445532D 		.string	"DES-CBC-SHA"
 1909      4342432D 
 1909      53484100 
 1910              		.align	2
 1911              	.LC20:
 1912 002c 4445532D 		.string	"DES-CBC3-SHA"
 1912      43424333 
 1912      2D534841 
 1912      00
 1913 0039 000000   		.align	2
 1914              	.LC21:
 1915 003c 4448452D 		.string	"DHE-RSA-DES-CBC-SHA"
 1915      5253412D 
 1915      4445532D 
 1915      4342432D 
 1915      53484100 
 1916              		.align	2
 1917              	.LC22:
 1918 0050 4448452D 		.string	"DHE-RSA-DES-CBC3-SHA"
 1918      5253412D 
 1918      4445532D 
 1918      43424333 
 1918      2D534841 
 1919 0065 000000   		.align	2
 1920              	.LC23:
 1921 0068 4144482D 		.string	"ADH-RC4-MD5"
 1921      5243342D 
 1921      4D443500 
 1922              		.align	2
 1923              	.LC24:
 1924 0074 4144482D 		.string	"ADH-DES-SHA"
 1924      4445532D 
 1924      53484100 
 1925              		.align	2
 1926              	.LC25:
 1927 0080 4144482D 		.string	"ADH-DES-CBC3-SHA"
 1927      4445532D 
 1927      43424333 
 1927      2D534841 
 1927      00
 1928 0091 000000   		.align	2
 1929              	.LC26:
 1930 0094 4145532D 		.string	"AES-128-SHA"
 1930      3132382D 
 1930      53484100 
 1931              		.align	2
 1932              	.LC27:
 1933 00a0 4448452D 		.string	"DHE-RSA-AES-128-SHA"
 1933      5253412D 
 1933      4145532D 
 1933      3132382D 
 1933      53484100 
 1934              		.align	2
 1935              	.LC28:
 1936 00b4 4144482D 		.string	"ADH-AES-128-SHA"
 1936      4145532D 
 1936      3132382D 
 1936      53484100 
 1937              		.align	2
 1938              	.LC29:
 1939 00c4 4145532D 		.string	"AES-256-SHA"
 1939      3235362D 
 1939      53484100 
 1940              		.align	2
 1941              	.LC30:
 1942 00d0 4448452D 		.string	"DHE-RSA-AES-256-SHA"
 1942      5253412D 
 1942      4145532D 
 1942      3235362D 
 1942      53484100 
 1943              		.align	2
 1944              	.LC31:
 1945 00e4 4144482D 		.string	"ADH-AES-256-SHA"
 1945      4145532D 
 1945      3235362D 
 1945      53484100 
 1946              		.align	2
 1947              	.LC32:
 1948 00f4 4145532D 		.string	"AES-128-SHA256"
 1948      3132382D 
 1948      53484132 
 1948      353600
 1949 0103 00       		.align	2
 1950              	.LC33:
 1951 0104 4145532D 		.string	"AES-256-SHA256"
 1951      3235362D 
 1951      53484132 
 1951      353600
 1952 0113 00       		.align	2
 1953              	.LC34:
 1954 0114 4144482D 		.string	"ADH-AES-128-SHA256"
 1954      4145532D 
 1954      3132382D 
 1954      53484132 
 1954      353600
 1955 0127 00       		.align	2
 1956              	.LC35:
 1957 0128 4448452D 		.string	"DHE-RSA-AES-128-SHA256"
 1957      5253412D 
 1957      4145532D 
 1957      3132382D 
 1957      53484132 
 1958 013f 00       		.align	2
 1959              	.LC36:
 1960 0140 5243342D 		.string	"RC4-SHA"
 1960      53484100 
 1961              		.align	2
 1962              	.LC37:
 1963 0148 4144482D 		.string	"ADH-AES-256-SHA256"
 1963      4145532D 
 1963      3235362D 
 1963      53484132 
 1963      353600
 1964              		.section	.text.tlsv1_client_get_cipher,"ax",@progbits
 1965              		.align	1
 1966              		.globl	tlsv1_client_get_cipher
 1968              	tlsv1_client_get_cipher:
 1969              	.LFB100:
 593:C:/Users/stapi/OneDrive/Desktop/GD32VW553/V1_MQTT_OK/GD32VW55X_Wifi_BLE_SDK/GD32VW55x_RELEASE_V1.0.2/MSDK/wpa_supplicant/src/tls\tlsv1_client.c **** 
 594:C:/Users/stapi/OneDrive/Desktop/GD32VW553/V1_MQTT_OK/GD32VW55X_Wifi_BLE_SDK/GD32VW55x_RELEASE_V1.0.2/MSDK/wpa_supplicant/src/tls\tlsv1_client.c **** 
 595:C:/Users/stapi/OneDrive/Desktop/GD32VW553/V1_MQTT_OK/GD32VW55X_Wifi_BLE_SDK/GD32VW55x_RELEASE_V1.0.2/MSDK/wpa_supplicant/src/tls\tlsv1_client.c **** /**
 596:C:/Users/stapi/OneDrive/Desktop/GD32VW553/V1_MQTT_OK/GD32VW55X_Wifi_BLE_SDK/GD32VW55x_RELEASE_V1.0.2/MSDK/wpa_supplicant/src/tls\tlsv1_client.c ****  * tlsv1_client_get_cipher - Get current cipher name
 597:C:/Users/stapi/OneDrive/Desktop/GD32VW553/V1_MQTT_OK/GD32VW55X_Wifi_BLE_SDK/GD32VW55x_RELEASE_V1.0.2/MSDK/wpa_supplicant/src/tls\tlsv1_client.c ****  * @conn: TLSv1 client connection data from tlsv1_client_init()
 598:C:/Users/stapi/OneDrive/Desktop/GD32VW553/V1_MQTT_OK/GD32VW55X_Wifi_BLE_SDK/GD32VW55x_RELEASE_V1.0.2/MSDK/wpa_supplicant/src/tls\tlsv1_client.c ****  * @buf: Buffer for the cipher name
 599:C:/Users/stapi/OneDrive/Desktop/GD32VW553/V1_MQTT_OK/GD32VW55X_Wifi_BLE_SDK/GD32VW55x_RELEASE_V1.0.2/MSDK/wpa_supplicant/src/tls\tlsv1_client.c ****  * @buflen: buf size
 600:C:/Users/stapi/OneDrive/Desktop/GD32VW553/V1_MQTT_OK/GD32VW55X_Wifi_BLE_SDK/GD32VW55x_RELEASE_V1.0.2/MSDK/wpa_supplicant/src/tls\tlsv1_client.c ****  * Returns: 0 on success, -1 on failure
 601:C:/Users/stapi/OneDrive/Desktop/GD32VW553/V1_MQTT_OK/GD32VW55X_Wifi_BLE_SDK/GD32VW55x_RELEASE_V1.0.2/MSDK/wpa_supplicant/src/tls\tlsv1_client.c ****  *
 602:C:/Users/stapi/OneDrive/Desktop/GD32VW553/V1_MQTT_OK/GD32VW55X_Wifi_BLE_SDK/GD32VW55x_RELEASE_V1.0.2/MSDK/wpa_supplicant/src/tls\tlsv1_client.c ****  * Get the name of the currently used cipher.
 603:C:/Users/stapi/OneDrive/Desktop/GD32VW553/V1_MQTT_OK/GD32VW55X_Wifi_BLE_SDK/GD32VW55x_RELEASE_V1.0.2/MSDK/wpa_supplicant/src/tls\tlsv1_client.c ****  */
 604:C:/Users/stapi/OneDrive/Desktop/GD32VW553/V1_MQTT_OK/GD32VW55X_Wifi_BLE_SDK/GD32VW55x_RELEASE_V1.0.2/MSDK/wpa_supplicant/src/tls\tlsv1_client.c **** int tlsv1_client_get_cipher(struct tlsv1_client *conn, char *buf,
 605:C:/Users/stapi/OneDrive/Desktop/GD32VW553/V1_MQTT_OK/GD32VW55X_Wifi_BLE_SDK/GD32VW55x_RELEASE_V1.0.2/MSDK/wpa_supplicant/src/tls\tlsv1_client.c **** 			    size_t buflen)
 606:C:/Users/stapi/OneDrive/Desktop/GD32VW553/V1_MQTT_OK/GD32VW55X_Wifi_BLE_SDK/GD32VW55x_RELEASE_V1.0.2/MSDK/wpa_supplicant/src/tls\tlsv1_client.c **** {
 1970              		.loc 1 606 1
 1971              		.cfi_startproc
 1972              	.LVL224:
 1973 0000 17030000 		call	t0,__riscv_save_1
 1973      E7020300 
 1974              		.cfi_offset 8, -8
 1975              		.cfi_offset 1, -4
 1976              		.cfi_def_cfa_offset 16
 607:C:/Users/stapi/OneDrive/Desktop/GD32VW553/V1_MQTT_OK/GD32VW55X_Wifi_BLE_SDK/GD32VW55x_RELEASE_V1.0.2/MSDK/wpa_supplicant/src/tls\tlsv1_client.c **** 	char *cipher;
 1977              		.loc 1 607 2
 608:C:/Users/stapi/OneDrive/Desktop/GD32VW553/V1_MQTT_OK/GD32VW55X_Wifi_BLE_SDK/GD32VW55x_RELEASE_V1.0.2/MSDK/wpa_supplicant/src/tls\tlsv1_client.c **** 
 609:C:/Users/stapi/OneDrive/Desktop/GD32VW553/V1_MQTT_OK/GD32VW55X_Wifi_BLE_SDK/GD32VW55x_RELEASE_V1.0.2/MSDK/wpa_supplicant/src/tls\tlsv1_client.c **** 	switch (conn->rl.cipher_suite) {
 1978              		.loc 1 609 2
 1979              		.loc 1 609 18 is_stmt 0
 1980 0008 8357C50C 		lhu	a5,204(a0)
 1981              		.loc 1 609 2
 1982 000c 9306D003 		li	a3,61
 606:C:/Users/stapi/OneDrive/Desktop/GD32VW553/V1_MQTT_OK/GD32VW55X_Wifi_BLE_SDK/GD32VW55x_RELEASE_V1.0.2/MSDK/wpa_supplicant/src/tls\tlsv1_client.c **** 	char *cipher;
 1983              		.loc 1 606 1
 1984 0010 2E87     		mv	a4,a1
 1985 0012 3284     		mv	s0,a2
 1986              		.loc 1 609 2
 1987 0014 63ECF606 		bgtu	a5,a3,.L145
 1988 0018 9306E002 		li	a3,46
 1989 001c 63EAF600 		bgtu	a5,a3,.L146
 1990 0020 F117     		addi	a5,a5,-4
 1991 0022 DD46     		li	a3,23
 1992 0024 B3C70708 		zext.h	a5,a5
 1993 0028 63F5F604 		bleu	a5,a3,.L147
 1994              	.L170:
 1995 002c 7D55     		li	a0,-1
 1996              	.LVL225:
 1997 002e 35A8     		j	.L144
 1998              	.LVL226:
 1999              	.L146:
 2000 0030 938717FD 		addi	a5,a5,-47
 2001 0034 B946     		li	a3,14
 2002 0036 B3C70708 		zext.h	a5,a5
 2003 003a E3E9F6FE 		bgtu	a5,a3,.L170
 2004 003e B7060000 		lui	a3,%hi(.L150)
 2005 0042 93860600 		addi	a3,a3,%lo(.L150)
 2006 0046 B3C7D720 		sh2add	a5,a5,a3
 2007 004a 9C43     		lw	a5,0(a5)
 2008 004c 8287     		jr	a5
 2009              		.section	.rodata.tlsv1_client_get_cipher,"a",@progbits
 2010              		.align	2
 2011              		.align	2
 2012              	.L150:
 2013 0000 00000000 		.word	.L157
 2014 0004 00000000 		.word	.L170
 2015 0008 00000000 		.word	.L170
 2016 000c 00000000 		.word	.L170
 2017 0010 00000000 		.word	.L169
 2018 0014 00000000 		.word	.L155
 2019 0018 00000000 		.word	.L154
 2020 001c 00000000 		.word	.L170
 2021 0020 00000000 		.word	.L170
 2022 0024 00000000 		.word	.L170
 2023 0028 00000000 		.word	.L153
 2024 002c 00000000 		.word	.L152
 2025 0030 00000000 		.word	.L170
 2026 0034 00000000 		.word	.L151
 2027 0038 00000000 		.word	.L149
 2028              		.section	.text.tlsv1_client_get_cipher
 2029              	.L157:
 610:C:/Users/stapi/OneDrive/Desktop/GD32VW553/V1_MQTT_OK/GD32VW55X_Wifi_BLE_SDK/GD32VW55x_RELEASE_V1.0.2/MSDK/wpa_supplicant/src/tls\tlsv1_client.c **** 	case TLS_RSA_WITH_RC4_128_MD5:
 611:C:/Users/stapi/OneDrive/Desktop/GD32VW553/V1_MQTT_OK/GD32VW55X_Wifi_BLE_SDK/GD32VW55x_RELEASE_V1.0.2/MSDK/wpa_supplicant/src/tls\tlsv1_client.c **** 		cipher = "RC4-MD5";
 612:C:/Users/stapi/OneDrive/Desktop/GD32VW553/V1_MQTT_OK/GD32VW55X_Wifi_BLE_SDK/GD32VW55x_RELEASE_V1.0.2/MSDK/wpa_supplicant/src/tls\tlsv1_client.c **** 		break;
 613:C:/Users/stapi/OneDrive/Desktop/GD32VW553/V1_MQTT_OK/GD32VW55X_Wifi_BLE_SDK/GD32VW55x_RELEASE_V1.0.2/MSDK/wpa_supplicant/src/tls\tlsv1_client.c **** 	case TLS_RSA_WITH_RC4_128_SHA:
 614:C:/Users/stapi/OneDrive/Desktop/GD32VW553/V1_MQTT_OK/GD32VW55X_Wifi_BLE_SDK/GD32VW55x_RELEASE_V1.0.2/MSDK/wpa_supplicant/src/tls\tlsv1_client.c **** 		cipher = "RC4-SHA";
 615:C:/Users/stapi/OneDrive/Desktop/GD32VW553/V1_MQTT_OK/GD32VW55X_Wifi_BLE_SDK/GD32VW55x_RELEASE_V1.0.2/MSDK/wpa_supplicant/src/tls\tlsv1_client.c **** 		break;
 616:C:/Users/stapi/OneDrive/Desktop/GD32VW553/V1_MQTT_OK/GD32VW55X_Wifi_BLE_SDK/GD32VW55x_RELEASE_V1.0.2/MSDK/wpa_supplicant/src/tls\tlsv1_client.c **** 	case TLS_RSA_WITH_DES_CBC_SHA:
 617:C:/Users/stapi/OneDrive/Desktop/GD32VW553/V1_MQTT_OK/GD32VW55X_Wifi_BLE_SDK/GD32VW55x_RELEASE_V1.0.2/MSDK/wpa_supplicant/src/tls\tlsv1_client.c **** 		cipher = "DES-CBC-SHA";
 618:C:/Users/stapi/OneDrive/Desktop/GD32VW553/V1_MQTT_OK/GD32VW55X_Wifi_BLE_SDK/GD32VW55x_RELEASE_V1.0.2/MSDK/wpa_supplicant/src/tls\tlsv1_client.c **** 		break;
 619:C:/Users/stapi/OneDrive/Desktop/GD32VW553/V1_MQTT_OK/GD32VW55X_Wifi_BLE_SDK/GD32VW55x_RELEASE_V1.0.2/MSDK/wpa_supplicant/src/tls\tlsv1_client.c **** 	case TLS_RSA_WITH_3DES_EDE_CBC_SHA:
 620:C:/Users/stapi/OneDrive/Desktop/GD32VW553/V1_MQTT_OK/GD32VW55X_Wifi_BLE_SDK/GD32VW55x_RELEASE_V1.0.2/MSDK/wpa_supplicant/src/tls\tlsv1_client.c **** 		cipher = "DES-CBC3-SHA";
 621:C:/Users/stapi/OneDrive/Desktop/GD32VW553/V1_MQTT_OK/GD32VW55X_Wifi_BLE_SDK/GD32VW55x_RELEASE_V1.0.2/MSDK/wpa_supplicant/src/tls\tlsv1_client.c **** 		break;
 622:C:/Users/stapi/OneDrive/Desktop/GD32VW553/V1_MQTT_OK/GD32VW55X_Wifi_BLE_SDK/GD32VW55x_RELEASE_V1.0.2/MSDK/wpa_supplicant/src/tls\tlsv1_client.c **** 	case TLS_DHE_RSA_WITH_DES_CBC_SHA:
 623:C:/Users/stapi/OneDrive/Desktop/GD32VW553/V1_MQTT_OK/GD32VW55X_Wifi_BLE_SDK/GD32VW55x_RELEASE_V1.0.2/MSDK/wpa_supplicant/src/tls\tlsv1_client.c **** 		cipher = "DHE-RSA-DES-CBC-SHA";
 624:C:/Users/stapi/OneDrive/Desktop/GD32VW553/V1_MQTT_OK/GD32VW55X_Wifi_BLE_SDK/GD32VW55x_RELEASE_V1.0.2/MSDK/wpa_supplicant/src/tls\tlsv1_client.c **** 		break;
 625:C:/Users/stapi/OneDrive/Desktop/GD32VW553/V1_MQTT_OK/GD32VW55X_Wifi_BLE_SDK/GD32VW55x_RELEASE_V1.0.2/MSDK/wpa_supplicant/src/tls\tlsv1_client.c **** 	case TLS_DHE_RSA_WITH_3DES_EDE_CBC_SHA:
 626:C:/Users/stapi/OneDrive/Desktop/GD32VW553/V1_MQTT_OK/GD32VW55X_Wifi_BLE_SDK/GD32VW55x_RELEASE_V1.0.2/MSDK/wpa_supplicant/src/tls\tlsv1_client.c **** 		cipher = "DHE-RSA-DES-CBC3-SHA";
 627:C:/Users/stapi/OneDrive/Desktop/GD32VW553/V1_MQTT_OK/GD32VW55X_Wifi_BLE_SDK/GD32VW55x_RELEASE_V1.0.2/MSDK/wpa_supplicant/src/tls\tlsv1_client.c **** 		break;
 628:C:/Users/stapi/OneDrive/Desktop/GD32VW553/V1_MQTT_OK/GD32VW55X_Wifi_BLE_SDK/GD32VW55x_RELEASE_V1.0.2/MSDK/wpa_supplicant/src/tls\tlsv1_client.c **** 	case TLS_DH_anon_WITH_RC4_128_MD5:
 629:C:/Users/stapi/OneDrive/Desktop/GD32VW553/V1_MQTT_OK/GD32VW55X_Wifi_BLE_SDK/GD32VW55x_RELEASE_V1.0.2/MSDK/wpa_supplicant/src/tls\tlsv1_client.c **** 		cipher = "ADH-RC4-MD5";
 630:C:/Users/stapi/OneDrive/Desktop/GD32VW553/V1_MQTT_OK/GD32VW55X_Wifi_BLE_SDK/GD32VW55x_RELEASE_V1.0.2/MSDK/wpa_supplicant/src/tls\tlsv1_client.c **** 		break;
 631:C:/Users/stapi/OneDrive/Desktop/GD32VW553/V1_MQTT_OK/GD32VW55X_Wifi_BLE_SDK/GD32VW55x_RELEASE_V1.0.2/MSDK/wpa_supplicant/src/tls\tlsv1_client.c **** 	case TLS_DH_anon_WITH_DES_CBC_SHA:
 632:C:/Users/stapi/OneDrive/Desktop/GD32VW553/V1_MQTT_OK/GD32VW55X_Wifi_BLE_SDK/GD32VW55x_RELEASE_V1.0.2/MSDK/wpa_supplicant/src/tls\tlsv1_client.c **** 		cipher = "ADH-DES-SHA";
 633:C:/Users/stapi/OneDrive/Desktop/GD32VW553/V1_MQTT_OK/GD32VW55X_Wifi_BLE_SDK/GD32VW55x_RELEASE_V1.0.2/MSDK/wpa_supplicant/src/tls\tlsv1_client.c **** 		break;
 634:C:/Users/stapi/OneDrive/Desktop/GD32VW553/V1_MQTT_OK/GD32VW55X_Wifi_BLE_SDK/GD32VW55x_RELEASE_V1.0.2/MSDK/wpa_supplicant/src/tls\tlsv1_client.c **** 	case TLS_DH_anon_WITH_3DES_EDE_CBC_SHA:
 635:C:/Users/stapi/OneDrive/Desktop/GD32VW553/V1_MQTT_OK/GD32VW55X_Wifi_BLE_SDK/GD32VW55x_RELEASE_V1.0.2/MSDK/wpa_supplicant/src/tls\tlsv1_client.c **** 		cipher = "ADH-DES-CBC3-SHA";
 636:C:/Users/stapi/OneDrive/Desktop/GD32VW553/V1_MQTT_OK/GD32VW55X_Wifi_BLE_SDK/GD32VW55x_RELEASE_V1.0.2/MSDK/wpa_supplicant/src/tls\tlsv1_client.c **** 		break;
 637:C:/Users/stapi/OneDrive/Desktop/GD32VW553/V1_MQTT_OK/GD32VW55X_Wifi_BLE_SDK/GD32VW55x_RELEASE_V1.0.2/MSDK/wpa_supplicant/src/tls\tlsv1_client.c **** 	case TLS_RSA_WITH_AES_128_CBC_SHA:
 638:C:/Users/stapi/OneDrive/Desktop/GD32VW553/V1_MQTT_OK/GD32VW55X_Wifi_BLE_SDK/GD32VW55x_RELEASE_V1.0.2/MSDK/wpa_supplicant/src/tls\tlsv1_client.c **** 		cipher = "AES-128-SHA";
 2030              		.loc 1 638 10
 2031 004e B7070000 		lui	a5,%hi(.LC26)
 2032 0052 93870700 		addi	a5,a5,%lo(.LC26)
 2033              	.L156:
 2034              	.LVL227:
 639:C:/Users/stapi/OneDrive/Desktop/GD32VW553/V1_MQTT_OK/GD32VW55X_Wifi_BLE_SDK/GD32VW55x_RELEASE_V1.0.2/MSDK/wpa_supplicant/src/tls\tlsv1_client.c **** 		break;
 640:C:/Users/stapi/OneDrive/Desktop/GD32VW553/V1_MQTT_OK/GD32VW55X_Wifi_BLE_SDK/GD32VW55x_RELEASE_V1.0.2/MSDK/wpa_supplicant/src/tls\tlsv1_client.c **** 	case TLS_DHE_RSA_WITH_AES_128_CBC_SHA:
 641:C:/Users/stapi/OneDrive/Desktop/GD32VW553/V1_MQTT_OK/GD32VW55X_Wifi_BLE_SDK/GD32VW55x_RELEASE_V1.0.2/MSDK/wpa_supplicant/src/tls\tlsv1_client.c **** 		cipher = "DHE-RSA-AES-128-SHA";
 642:C:/Users/stapi/OneDrive/Desktop/GD32VW553/V1_MQTT_OK/GD32VW55X_Wifi_BLE_SDK/GD32VW55x_RELEASE_V1.0.2/MSDK/wpa_supplicant/src/tls\tlsv1_client.c **** 		break;
 643:C:/Users/stapi/OneDrive/Desktop/GD32VW553/V1_MQTT_OK/GD32VW55X_Wifi_BLE_SDK/GD32VW55x_RELEASE_V1.0.2/MSDK/wpa_supplicant/src/tls\tlsv1_client.c **** 	case TLS_DH_anon_WITH_AES_128_CBC_SHA:
 644:C:/Users/stapi/OneDrive/Desktop/GD32VW553/V1_MQTT_OK/GD32VW55X_Wifi_BLE_SDK/GD32VW55x_RELEASE_V1.0.2/MSDK/wpa_supplicant/src/tls\tlsv1_client.c **** 		cipher = "ADH-AES-128-SHA";
 645:C:/Users/stapi/OneDrive/Desktop/GD32VW553/V1_MQTT_OK/GD32VW55X_Wifi_BLE_SDK/GD32VW55x_RELEASE_V1.0.2/MSDK/wpa_supplicant/src/tls\tlsv1_client.c **** 		break;
 646:C:/Users/stapi/OneDrive/Desktop/GD32VW553/V1_MQTT_OK/GD32VW55X_Wifi_BLE_SDK/GD32VW55x_RELEASE_V1.0.2/MSDK/wpa_supplicant/src/tls\tlsv1_client.c **** 	case TLS_RSA_WITH_AES_256_CBC_SHA:
 647:C:/Users/stapi/OneDrive/Desktop/GD32VW553/V1_MQTT_OK/GD32VW55X_Wifi_BLE_SDK/GD32VW55x_RELEASE_V1.0.2/MSDK/wpa_supplicant/src/tls\tlsv1_client.c **** 		cipher = "AES-256-SHA";
 648:C:/Users/stapi/OneDrive/Desktop/GD32VW553/V1_MQTT_OK/GD32VW55X_Wifi_BLE_SDK/GD32VW55x_RELEASE_V1.0.2/MSDK/wpa_supplicant/src/tls\tlsv1_client.c **** 		break;
 649:C:/Users/stapi/OneDrive/Desktop/GD32VW553/V1_MQTT_OK/GD32VW55X_Wifi_BLE_SDK/GD32VW55x_RELEASE_V1.0.2/MSDK/wpa_supplicant/src/tls\tlsv1_client.c **** 	case TLS_DHE_RSA_WITH_AES_256_CBC_SHA:
 650:C:/Users/stapi/OneDrive/Desktop/GD32VW553/V1_MQTT_OK/GD32VW55X_Wifi_BLE_SDK/GD32VW55x_RELEASE_V1.0.2/MSDK/wpa_supplicant/src/tls\tlsv1_client.c **** 		cipher = "DHE-RSA-AES-256-SHA";
 651:C:/Users/stapi/OneDrive/Desktop/GD32VW553/V1_MQTT_OK/GD32VW55X_Wifi_BLE_SDK/GD32VW55x_RELEASE_V1.0.2/MSDK/wpa_supplicant/src/tls\tlsv1_client.c **** 		break;
 652:C:/Users/stapi/OneDrive/Desktop/GD32VW553/V1_MQTT_OK/GD32VW55X_Wifi_BLE_SDK/GD32VW55x_RELEASE_V1.0.2/MSDK/wpa_supplicant/src/tls\tlsv1_client.c **** 	case TLS_DH_anon_WITH_AES_256_CBC_SHA:
 653:C:/Users/stapi/OneDrive/Desktop/GD32VW553/V1_MQTT_OK/GD32VW55X_Wifi_BLE_SDK/GD32VW55x_RELEASE_V1.0.2/MSDK/wpa_supplicant/src/tls\tlsv1_client.c **** 		cipher = "ADH-AES-256-SHA";
 654:C:/Users/stapi/OneDrive/Desktop/GD32VW553/V1_MQTT_OK/GD32VW55X_Wifi_BLE_SDK/GD32VW55x_RELEASE_V1.0.2/MSDK/wpa_supplicant/src/tls\tlsv1_client.c **** 		break;
 655:C:/Users/stapi/OneDrive/Desktop/GD32VW553/V1_MQTT_OK/GD32VW55X_Wifi_BLE_SDK/GD32VW55x_RELEASE_V1.0.2/MSDK/wpa_supplicant/src/tls\tlsv1_client.c **** 	case TLS_RSA_WITH_AES_128_CBC_SHA256:
 656:C:/Users/stapi/OneDrive/Desktop/GD32VW553/V1_MQTT_OK/GD32VW55X_Wifi_BLE_SDK/GD32VW55x_RELEASE_V1.0.2/MSDK/wpa_supplicant/src/tls\tlsv1_client.c **** 		cipher = "AES-128-SHA256";
 657:C:/Users/stapi/OneDrive/Desktop/GD32VW553/V1_MQTT_OK/GD32VW55X_Wifi_BLE_SDK/GD32VW55x_RELEASE_V1.0.2/MSDK/wpa_supplicant/src/tls\tlsv1_client.c **** 		break;
 658:C:/Users/stapi/OneDrive/Desktop/GD32VW553/V1_MQTT_OK/GD32VW55X_Wifi_BLE_SDK/GD32VW55x_RELEASE_V1.0.2/MSDK/wpa_supplicant/src/tls\tlsv1_client.c **** 	case TLS_RSA_WITH_AES_256_CBC_SHA256:
 659:C:/Users/stapi/OneDrive/Desktop/GD32VW553/V1_MQTT_OK/GD32VW55X_Wifi_BLE_SDK/GD32VW55x_RELEASE_V1.0.2/MSDK/wpa_supplicant/src/tls\tlsv1_client.c **** 		cipher = "AES-256-SHA256";
 660:C:/Users/stapi/OneDrive/Desktop/GD32VW553/V1_MQTT_OK/GD32VW55X_Wifi_BLE_SDK/GD32VW55x_RELEASE_V1.0.2/MSDK/wpa_supplicant/src/tls\tlsv1_client.c **** 		break;
 661:C:/Users/stapi/OneDrive/Desktop/GD32VW553/V1_MQTT_OK/GD32VW55X_Wifi_BLE_SDK/GD32VW55x_RELEASE_V1.0.2/MSDK/wpa_supplicant/src/tls\tlsv1_client.c **** 	case TLS_DHE_RSA_WITH_AES_128_CBC_SHA256:
 662:C:/Users/stapi/OneDrive/Desktop/GD32VW553/V1_MQTT_OK/GD32VW55X_Wifi_BLE_SDK/GD32VW55x_RELEASE_V1.0.2/MSDK/wpa_supplicant/src/tls\tlsv1_client.c **** 		cipher = "DHE-RSA-AES-128-SHA256";
 663:C:/Users/stapi/OneDrive/Desktop/GD32VW553/V1_MQTT_OK/GD32VW55X_Wifi_BLE_SDK/GD32VW55x_RELEASE_V1.0.2/MSDK/wpa_supplicant/src/tls\tlsv1_client.c **** 		break;
 664:C:/Users/stapi/OneDrive/Desktop/GD32VW553/V1_MQTT_OK/GD32VW55X_Wifi_BLE_SDK/GD32VW55x_RELEASE_V1.0.2/MSDK/wpa_supplicant/src/tls\tlsv1_client.c **** 	case TLS_DHE_RSA_WITH_AES_256_CBC_SHA256:
 665:C:/Users/stapi/OneDrive/Desktop/GD32VW553/V1_MQTT_OK/GD32VW55X_Wifi_BLE_SDK/GD32VW55x_RELEASE_V1.0.2/MSDK/wpa_supplicant/src/tls\tlsv1_client.c **** 		cipher = "DHE-RSA-AES-256-SHA256";
 666:C:/Users/stapi/OneDrive/Desktop/GD32VW553/V1_MQTT_OK/GD32VW55X_Wifi_BLE_SDK/GD32VW55x_RELEASE_V1.0.2/MSDK/wpa_supplicant/src/tls\tlsv1_client.c **** 		break;
 667:C:/Users/stapi/OneDrive/Desktop/GD32VW553/V1_MQTT_OK/GD32VW55X_Wifi_BLE_SDK/GD32VW55x_RELEASE_V1.0.2/MSDK/wpa_supplicant/src/tls\tlsv1_client.c **** 	case TLS_DH_anon_WITH_AES_128_CBC_SHA256:
 668:C:/Users/stapi/OneDrive/Desktop/GD32VW553/V1_MQTT_OK/GD32VW55X_Wifi_BLE_SDK/GD32VW55x_RELEASE_V1.0.2/MSDK/wpa_supplicant/src/tls\tlsv1_client.c **** 		cipher = "ADH-AES-128-SHA256";
 669:C:/Users/stapi/OneDrive/Desktop/GD32VW553/V1_MQTT_OK/GD32VW55X_Wifi_BLE_SDK/GD32VW55x_RELEASE_V1.0.2/MSDK/wpa_supplicant/src/tls\tlsv1_client.c **** 		break;
 670:C:/Users/stapi/OneDrive/Desktop/GD32VW553/V1_MQTT_OK/GD32VW55X_Wifi_BLE_SDK/GD32VW55x_RELEASE_V1.0.2/MSDK/wpa_supplicant/src/tls\tlsv1_client.c **** 	case TLS_DH_anon_WITH_AES_256_CBC_SHA256:
 671:C:/Users/stapi/OneDrive/Desktop/GD32VW553/V1_MQTT_OK/GD32VW55X_Wifi_BLE_SDK/GD32VW55x_RELEASE_V1.0.2/MSDK/wpa_supplicant/src/tls\tlsv1_client.c **** 		cipher = "ADH-AES-256-SHA256";
 672:C:/Users/stapi/OneDrive/Desktop/GD32VW553/V1_MQTT_OK/GD32VW55X_Wifi_BLE_SDK/GD32VW55x_RELEASE_V1.0.2/MSDK/wpa_supplicant/src/tls\tlsv1_client.c **** 		break;
 673:C:/Users/stapi/OneDrive/Desktop/GD32VW553/V1_MQTT_OK/GD32VW55X_Wifi_BLE_SDK/GD32VW55x_RELEASE_V1.0.2/MSDK/wpa_supplicant/src/tls\tlsv1_client.c **** 	default:
 674:C:/Users/stapi/OneDrive/Desktop/GD32VW553/V1_MQTT_OK/GD32VW55X_Wifi_BLE_SDK/GD32VW55x_RELEASE_V1.0.2/MSDK/wpa_supplicant/src/tls\tlsv1_client.c **** 		return -1;
 675:C:/Users/stapi/OneDrive/Desktop/GD32VW553/V1_MQTT_OK/GD32VW55X_Wifi_BLE_SDK/GD32VW55x_RELEASE_V1.0.2/MSDK/wpa_supplicant/src/tls\tlsv1_client.c **** 	}
 676:C:/Users/stapi/OneDrive/Desktop/GD32VW553/V1_MQTT_OK/GD32VW55X_Wifi_BLE_SDK/GD32VW55x_RELEASE_V1.0.2/MSDK/wpa_supplicant/src/tls\tlsv1_client.c **** 
 677:C:/Users/stapi/OneDrive/Desktop/GD32VW553/V1_MQTT_OK/GD32VW55X_Wifi_BLE_SDK/GD32VW55x_RELEASE_V1.0.2/MSDK/wpa_supplicant/src/tls\tlsv1_client.c **** 	if (os_strlcpy(buf, cipher, buflen) >= buflen)
 2035              		.loc 1 677 2 is_stmt 1
 2036              		.loc 1 677 6 is_stmt 0
 2037 0056 2286     		mv	a2,s0
 2038              	.LVL228:
 2039 0058 BE85     		mv	a1,a5
 2040              	.LVL229:
 2041 005a 3A85     		mv	a0,a4
 2042              	.LVL230:
 2043 005c 97000000 		call	os_strlcpy
 2043      E7800000 
 2044              	.LVL231:
 2045              		.loc 1 677 5
 2046 0064 33358500 		sltu	a0,a0,s0
 2047 0068 7D15     		addi	a0,a0,-1
 2048              	.L144:
 678:C:/Users/stapi/OneDrive/Desktop/GD32VW553/V1_MQTT_OK/GD32VW55X_Wifi_BLE_SDK/GD32VW55x_RELEASE_V1.0.2/MSDK/wpa_supplicant/src/tls\tlsv1_client.c **** 		return -1;
 679:C:/Users/stapi/OneDrive/Desktop/GD32VW553/V1_MQTT_OK/GD32VW55X_Wifi_BLE_SDK/GD32VW55x_RELEASE_V1.0.2/MSDK/wpa_supplicant/src/tls\tlsv1_client.c **** 	return 0;
 680:C:/Users/stapi/OneDrive/Desktop/GD32VW553/V1_MQTT_OK/GD32VW55X_Wifi_BLE_SDK/GD32VW55x_RELEASE_V1.0.2/MSDK/wpa_supplicant/src/tls\tlsv1_client.c **** }
 2049              		.loc 1 680 1
 2050 006a 17030000 		tail	__riscv_restore_1
 2050      67000300 
 2051              		.cfi_remember_state
 2052              		.cfi_restore 8
 2053              		.cfi_restore 1
 2054              		.cfi_def_cfa_offset 0
 2055              	.LVL232:
 2056              	.L147:
 2057              		.cfi_restore_state
 2058 0072 B7060000 		lui	a3,%hi(.L159)
 2059 0076 93860600 		addi	a3,a3,%lo(.L159)
 2060 007a B3C7D720 		sh2add	a5,a5,a3
 2061 007e 9C43     		lw	a5,0(a5)
 2062 0080 8287     		jr	a5
 2063              		.section	.rodata.tlsv1_client_get_cipher
 2064              		.align	2
 2065              		.align	2
 2066              	.L159:
 2067 003c 00000000 		.word	.L171
 2068 0040 00000000 		.word	.L166
 2069 0044 00000000 		.word	.L170
 2070 0048 00000000 		.word	.L170
 2071 004c 00000000 		.word	.L170
 2072 0050 00000000 		.word	.L165
 2073 0054 00000000 		.word	.L164
 2074 0058 00000000 		.word	.L170
 2075 005c 00000000 		.word	.L170
 2076 0060 00000000 		.word	.L170
 2077 0064 00000000 		.word	.L170
 2078 0068 00000000 		.word	.L170
 2079 006c 00000000 		.word	.L170
 2080 0070 00000000 		.word	.L170
 2081 0074 00000000 		.word	.L170
 2082 0078 00000000 		.word	.L170
 2083 007c 00000000 		.word	.L170
 2084 0080 00000000 		.word	.L163
 2085 0084 00000000 		.word	.L162
 2086 0088 00000000 		.word	.L170
 2087 008c 00000000 		.word	.L161
 2088 0090 00000000 		.word	.L170
 2089 0094 00000000 		.word	.L160
 2090 0098 00000000 		.word	.L158
 2091              		.section	.text.tlsv1_client_get_cipher
 2092              	.L166:
 609:C:/Users/stapi/OneDrive/Desktop/GD32VW553/V1_MQTT_OK/GD32VW55X_Wifi_BLE_SDK/GD32VW55x_RELEASE_V1.0.2/MSDK/wpa_supplicant/src/tls\tlsv1_client.c **** 	case TLS_RSA_WITH_RC4_128_MD5:
 2093              		.loc 1 609 2
 2094 0082 B7070000 		lui	a5,%hi(.LC36)
 2095 0086 93870700 		addi	a5,a5,%lo(.LC36)
 2096 008a F1B7     		j	.L156
 2097              	.L145:
 2098 008c 9306C006 		li	a3,108
 2099 0090 6385D70C 		beq	a5,a3,.L172
 2100 0094 63EFF600 		bgtu	a5,a3,.L167
 2101 0098 93067006 		li	a3,103
 2102 009c 6384D70C 		beq	a5,a3,.L173
 2103 00a0 9306B006 		li	a3,107
 2104 00a4 E394D7F8 		bne	a5,a3,.L170
 665:C:/Users/stapi/OneDrive/Desktop/GD32VW553/V1_MQTT_OK/GD32VW55X_Wifi_BLE_SDK/GD32VW55x_RELEASE_V1.0.2/MSDK/wpa_supplicant/src/tls\tlsv1_client.c **** 		break;
 2105              		.loc 1 665 10
 2106 00a8 B7070000 		lui	a5,%hi(.LC17)
 2107 00ac 93870700 		addi	a5,a5,%lo(.LC17)
 2108 00b0 5DB7     		j	.L156
 2109              	.L167:
 609:C:/Users/stapi/OneDrive/Desktop/GD32VW553/V1_MQTT_OK/GD32VW55X_Wifi_BLE_SDK/GD32VW55x_RELEASE_V1.0.2/MSDK/wpa_supplicant/src/tls\tlsv1_client.c **** 	case TLS_RSA_WITH_RC4_128_MD5:
 2110              		.loc 1 609 2
 2111 00b2 9306D006 		li	a3,109
 2112 00b6 E39BD7F6 		bne	a5,a3,.L170
 671:C:/Users/stapi/OneDrive/Desktop/GD32VW553/V1_MQTT_OK/GD32VW55X_Wifi_BLE_SDK/GD32VW55x_RELEASE_V1.0.2/MSDK/wpa_supplicant/src/tls\tlsv1_client.c **** 		break;
 2113              		.loc 1 671 10
 2114 00ba B7070000 		lui	a5,%hi(.LC37)
 2115 00be 93870700 		addi	a5,a5,%lo(.LC37)
 2116 00c2 51BF     		j	.L156
 2117              	.L165:
 617:C:/Users/stapi/OneDrive/Desktop/GD32VW553/V1_MQTT_OK/GD32VW55X_Wifi_BLE_SDK/GD32VW55x_RELEASE_V1.0.2/MSDK/wpa_supplicant/src/tls\tlsv1_client.c **** 		break;
 2118              		.loc 1 617 3 is_stmt 1
 2119              	.LVL233:
 618:C:/Users/stapi/OneDrive/Desktop/GD32VW553/V1_MQTT_OK/GD32VW55X_Wifi_BLE_SDK/GD32VW55x_RELEASE_V1.0.2/MSDK/wpa_supplicant/src/tls\tlsv1_client.c **** 	case TLS_RSA_WITH_3DES_EDE_CBC_SHA:
 2120              		.loc 1 618 3
 617:C:/Users/stapi/OneDrive/Desktop/GD32VW553/V1_MQTT_OK/GD32VW55X_Wifi_BLE_SDK/GD32VW55x_RELEASE_V1.0.2/MSDK/wpa_supplicant/src/tls\tlsv1_client.c **** 		break;
 2121              		.loc 1 617 10 is_stmt 0
 2122 00c4 B7070000 		lui	a5,%hi(.LC19)
 2123 00c8 93870700 		addi	a5,a5,%lo(.LC19)
 618:C:/Users/stapi/OneDrive/Desktop/GD32VW553/V1_MQTT_OK/GD32VW55X_Wifi_BLE_SDK/GD32VW55x_RELEASE_V1.0.2/MSDK/wpa_supplicant/src/tls\tlsv1_client.c **** 	case TLS_RSA_WITH_3DES_EDE_CBC_SHA:
 2124              		.loc 1 618 3
 2125 00cc 69B7     		j	.L156
 2126              	.LVL234:
 2127              	.L164:
 620:C:/Users/stapi/OneDrive/Desktop/GD32VW553/V1_MQTT_OK/GD32VW55X_Wifi_BLE_SDK/GD32VW55x_RELEASE_V1.0.2/MSDK/wpa_supplicant/src/tls\tlsv1_client.c **** 		break;
 2128              		.loc 1 620 3 is_stmt 1
 621:C:/Users/stapi/OneDrive/Desktop/GD32VW553/V1_MQTT_OK/GD32VW55X_Wifi_BLE_SDK/GD32VW55x_RELEASE_V1.0.2/MSDK/wpa_supplicant/src/tls\tlsv1_client.c **** 	case TLS_DHE_RSA_WITH_DES_CBC_SHA:
 2129              		.loc 1 621 3
 620:C:/Users/stapi/OneDrive/Desktop/GD32VW553/V1_MQTT_OK/GD32VW55X_Wifi_BLE_SDK/GD32VW55x_RELEASE_V1.0.2/MSDK/wpa_supplicant/src/tls\tlsv1_client.c **** 		break;
 2130              		.loc 1 620 10 is_stmt 0
 2131 00ce B7070000 		lui	a5,%hi(.LC20)
 2132 00d2 93870700 		addi	a5,a5,%lo(.LC20)
 621:C:/Users/stapi/OneDrive/Desktop/GD32VW553/V1_MQTT_OK/GD32VW55X_Wifi_BLE_SDK/GD32VW55x_RELEASE_V1.0.2/MSDK/wpa_supplicant/src/tls\tlsv1_client.c **** 	case TLS_DHE_RSA_WITH_DES_CBC_SHA:
 2133              		.loc 1 621 3
 2134 00d6 41B7     		j	.L156
 2135              	.LVL235:
 2136              	.L163:
 623:C:/Users/stapi/OneDrive/Desktop/GD32VW553/V1_MQTT_OK/GD32VW55X_Wifi_BLE_SDK/GD32VW55x_RELEASE_V1.0.2/MSDK/wpa_supplicant/src/tls\tlsv1_client.c **** 		break;
 2137              		.loc 1 623 3 is_stmt 1
 624:C:/Users/stapi/OneDrive/Desktop/GD32VW553/V1_MQTT_OK/GD32VW55X_Wifi_BLE_SDK/GD32VW55x_RELEASE_V1.0.2/MSDK/wpa_supplicant/src/tls\tlsv1_client.c **** 	case TLS_DHE_RSA_WITH_3DES_EDE_CBC_SHA:
 2138              		.loc 1 624 3
 623:C:/Users/stapi/OneDrive/Desktop/GD32VW553/V1_MQTT_OK/GD32VW55X_Wifi_BLE_SDK/GD32VW55x_RELEASE_V1.0.2/MSDK/wpa_supplicant/src/tls\tlsv1_client.c **** 		break;
 2139              		.loc 1 623 10 is_stmt 0
 2140 00d8 B7070000 		lui	a5,%hi(.LC21)
 2141 00dc 93870700 		addi	a5,a5,%lo(.LC21)
 624:C:/Users/stapi/OneDrive/Desktop/GD32VW553/V1_MQTT_OK/GD32VW55X_Wifi_BLE_SDK/GD32VW55x_RELEASE_V1.0.2/MSDK/wpa_supplicant/src/tls\tlsv1_client.c **** 	case TLS_DHE_RSA_WITH_3DES_EDE_CBC_SHA:
 2142              		.loc 1 624 3
 2143 00e0 9DBF     		j	.L156
 2144              	.LVL236:
 2145              	.L162:
 626:C:/Users/stapi/OneDrive/Desktop/GD32VW553/V1_MQTT_OK/GD32VW55X_Wifi_BLE_SDK/GD32VW55x_RELEASE_V1.0.2/MSDK/wpa_supplicant/src/tls\tlsv1_client.c **** 		break;
 2146              		.loc 1 626 3 is_stmt 1
 627:C:/Users/stapi/OneDrive/Desktop/GD32VW553/V1_MQTT_OK/GD32VW55X_Wifi_BLE_SDK/GD32VW55x_RELEASE_V1.0.2/MSDK/wpa_supplicant/src/tls\tlsv1_client.c **** 	case TLS_DH_anon_WITH_RC4_128_MD5:
 2147              		.loc 1 627 3
 626:C:/Users/stapi/OneDrive/Desktop/GD32VW553/V1_MQTT_OK/GD32VW55X_Wifi_BLE_SDK/GD32VW55x_RELEASE_V1.0.2/MSDK/wpa_supplicant/src/tls\tlsv1_client.c **** 		break;
 2148              		.loc 1 626 10 is_stmt 0
 2149 00e2 B7070000 		lui	a5,%hi(.LC22)
 2150 00e6 93870700 		addi	a5,a5,%lo(.LC22)
 627:C:/Users/stapi/OneDrive/Desktop/GD32VW553/V1_MQTT_OK/GD32VW55X_Wifi_BLE_SDK/GD32VW55x_RELEASE_V1.0.2/MSDK/wpa_supplicant/src/tls\tlsv1_client.c **** 	case TLS_DH_anon_WITH_RC4_128_MD5:
 2151              		.loc 1 627 3
 2152 00ea B5B7     		j	.L156
 2153              	.LVL237:
 2154              	.L161:
 629:C:/Users/stapi/OneDrive/Desktop/GD32VW553/V1_MQTT_OK/GD32VW55X_Wifi_BLE_SDK/GD32VW55x_RELEASE_V1.0.2/MSDK/wpa_supplicant/src/tls\tlsv1_client.c **** 		break;
 2155              		.loc 1 629 3 is_stmt 1
 630:C:/Users/stapi/OneDrive/Desktop/GD32VW553/V1_MQTT_OK/GD32VW55X_Wifi_BLE_SDK/GD32VW55x_RELEASE_V1.0.2/MSDK/wpa_supplicant/src/tls\tlsv1_client.c **** 	case TLS_DH_anon_WITH_DES_CBC_SHA:
 2156              		.loc 1 630 3
 629:C:/Users/stapi/OneDrive/Desktop/GD32VW553/V1_MQTT_OK/GD32VW55X_Wifi_BLE_SDK/GD32VW55x_RELEASE_V1.0.2/MSDK/wpa_supplicant/src/tls\tlsv1_client.c **** 		break;
 2157              		.loc 1 629 10 is_stmt 0
 2158 00ec B7070000 		lui	a5,%hi(.LC23)
 2159 00f0 93870700 		addi	a5,a5,%lo(.LC23)
 630:C:/Users/stapi/OneDrive/Desktop/GD32VW553/V1_MQTT_OK/GD32VW55X_Wifi_BLE_SDK/GD32VW55x_RELEASE_V1.0.2/MSDK/wpa_supplicant/src/tls\tlsv1_client.c **** 	case TLS_DH_anon_WITH_DES_CBC_SHA:
 2160              		.loc 1 630 3
 2161 00f4 8DB7     		j	.L156
 2162              	.LVL238:
 2163              	.L160:
 632:C:/Users/stapi/OneDrive/Desktop/GD32VW553/V1_MQTT_OK/GD32VW55X_Wifi_BLE_SDK/GD32VW55x_RELEASE_V1.0.2/MSDK/wpa_supplicant/src/tls\tlsv1_client.c **** 		break;
 2164              		.loc 1 632 3 is_stmt 1
 633:C:/Users/stapi/OneDrive/Desktop/GD32VW553/V1_MQTT_OK/GD32VW55X_Wifi_BLE_SDK/GD32VW55x_RELEASE_V1.0.2/MSDK/wpa_supplicant/src/tls\tlsv1_client.c **** 	case TLS_DH_anon_WITH_3DES_EDE_CBC_SHA:
 2165              		.loc 1 633 3
 632:C:/Users/stapi/OneDrive/Desktop/GD32VW553/V1_MQTT_OK/GD32VW55X_Wifi_BLE_SDK/GD32VW55x_RELEASE_V1.0.2/MSDK/wpa_supplicant/src/tls\tlsv1_client.c **** 		break;
 2166              		.loc 1 632 10 is_stmt 0
 2167 00f6 B7070000 		lui	a5,%hi(.LC24)
 2168 00fa 93870700 		addi	a5,a5,%lo(.LC24)
 633:C:/Users/stapi/OneDrive/Desktop/GD32VW553/V1_MQTT_OK/GD32VW55X_Wifi_BLE_SDK/GD32VW55x_RELEASE_V1.0.2/MSDK/wpa_supplicant/src/tls\tlsv1_client.c **** 	case TLS_DH_anon_WITH_3DES_EDE_CBC_SHA:
 2169              		.loc 1 633 3
 2170 00fe A1BF     		j	.L156
 2171              	.LVL239:
 2172              	.L158:
 635:C:/Users/stapi/OneDrive/Desktop/GD32VW553/V1_MQTT_OK/GD32VW55X_Wifi_BLE_SDK/GD32VW55x_RELEASE_V1.0.2/MSDK/wpa_supplicant/src/tls\tlsv1_client.c **** 		break;
 2173              		.loc 1 635 3 is_stmt 1
 636:C:/Users/stapi/OneDrive/Desktop/GD32VW553/V1_MQTT_OK/GD32VW55X_Wifi_BLE_SDK/GD32VW55x_RELEASE_V1.0.2/MSDK/wpa_supplicant/src/tls\tlsv1_client.c **** 	case TLS_RSA_WITH_AES_128_CBC_SHA:
 2174              		.loc 1 636 3
 635:C:/Users/stapi/OneDrive/Desktop/GD32VW553/V1_MQTT_OK/GD32VW55X_Wifi_BLE_SDK/GD32VW55x_RELEASE_V1.0.2/MSDK/wpa_supplicant/src/tls\tlsv1_client.c **** 		break;
 2175              		.loc 1 635 10 is_stmt 0
 2176 0100 B7070000 		lui	a5,%hi(.LC25)
 2177 0104 93870700 		addi	a5,a5,%lo(.LC25)
 636:C:/Users/stapi/OneDrive/Desktop/GD32VW553/V1_MQTT_OK/GD32VW55X_Wifi_BLE_SDK/GD32VW55x_RELEASE_V1.0.2/MSDK/wpa_supplicant/src/tls\tlsv1_client.c **** 	case TLS_RSA_WITH_AES_128_CBC_SHA:
 2178              		.loc 1 636 3
 2179 0108 B9B7     		j	.L156
 2180              	.LVL240:
 2181              	.L155:
 644:C:/Users/stapi/OneDrive/Desktop/GD32VW553/V1_MQTT_OK/GD32VW55X_Wifi_BLE_SDK/GD32VW55x_RELEASE_V1.0.2/MSDK/wpa_supplicant/src/tls\tlsv1_client.c **** 		break;
 2182              		.loc 1 644 3 is_stmt 1
 645:C:/Users/stapi/OneDrive/Desktop/GD32VW553/V1_MQTT_OK/GD32VW55X_Wifi_BLE_SDK/GD32VW55x_RELEASE_V1.0.2/MSDK/wpa_supplicant/src/tls\tlsv1_client.c **** 	case TLS_RSA_WITH_AES_256_CBC_SHA:
 2183              		.loc 1 645 3
 644:C:/Users/stapi/OneDrive/Desktop/GD32VW553/V1_MQTT_OK/GD32VW55X_Wifi_BLE_SDK/GD32VW55x_RELEASE_V1.0.2/MSDK/wpa_supplicant/src/tls\tlsv1_client.c **** 		break;
 2184              		.loc 1 644 10 is_stmt 0
 2185 010a B7070000 		lui	a5,%hi(.LC28)
 2186 010e 93870700 		addi	a5,a5,%lo(.LC28)
 645:C:/Users/stapi/OneDrive/Desktop/GD32VW553/V1_MQTT_OK/GD32VW55X_Wifi_BLE_SDK/GD32VW55x_RELEASE_V1.0.2/MSDK/wpa_supplicant/src/tls\tlsv1_client.c **** 	case TLS_RSA_WITH_AES_256_CBC_SHA:
 2187              		.loc 1 645 3
 2188 0112 91B7     		j	.L156
 2189              	.LVL241:
 2190              	.L154:
 647:C:/Users/stapi/OneDrive/Desktop/GD32VW553/V1_MQTT_OK/GD32VW55X_Wifi_BLE_SDK/GD32VW55x_RELEASE_V1.0.2/MSDK/wpa_supplicant/src/tls\tlsv1_client.c **** 		break;
 2191              		.loc 1 647 3 is_stmt 1
 648:C:/Users/stapi/OneDrive/Desktop/GD32VW553/V1_MQTT_OK/GD32VW55X_Wifi_BLE_SDK/GD32VW55x_RELEASE_V1.0.2/MSDK/wpa_supplicant/src/tls\tlsv1_client.c **** 	case TLS_DHE_RSA_WITH_AES_256_CBC_SHA:
 2192              		.loc 1 648 3
 647:C:/Users/stapi/OneDrive/Desktop/GD32VW553/V1_MQTT_OK/GD32VW55X_Wifi_BLE_SDK/GD32VW55x_RELEASE_V1.0.2/MSDK/wpa_supplicant/src/tls\tlsv1_client.c **** 		break;
 2193              		.loc 1 647 10 is_stmt 0
 2194 0114 B7070000 		lui	a5,%hi(.LC29)
 2195 0118 93870700 		addi	a5,a5,%lo(.LC29)
 648:C:/Users/stapi/OneDrive/Desktop/GD32VW553/V1_MQTT_OK/GD32VW55X_Wifi_BLE_SDK/GD32VW55x_RELEASE_V1.0.2/MSDK/wpa_supplicant/src/tls\tlsv1_client.c **** 	case TLS_DHE_RSA_WITH_AES_256_CBC_SHA:
 2196              		.loc 1 648 3
 2197 011c 2DBF     		j	.L156
 2198              	.LVL242:
 2199              	.L153:
 650:C:/Users/stapi/OneDrive/Desktop/GD32VW553/V1_MQTT_OK/GD32VW55X_Wifi_BLE_SDK/GD32VW55x_RELEASE_V1.0.2/MSDK/wpa_supplicant/src/tls\tlsv1_client.c **** 		break;
 2200              		.loc 1 650 3 is_stmt 1
 651:C:/Users/stapi/OneDrive/Desktop/GD32VW553/V1_MQTT_OK/GD32VW55X_Wifi_BLE_SDK/GD32VW55x_RELEASE_V1.0.2/MSDK/wpa_supplicant/src/tls\tlsv1_client.c **** 	case TLS_DH_anon_WITH_AES_256_CBC_SHA:
 2201              		.loc 1 651 3
 650:C:/Users/stapi/OneDrive/Desktop/GD32VW553/V1_MQTT_OK/GD32VW55X_Wifi_BLE_SDK/GD32VW55x_RELEASE_V1.0.2/MSDK/wpa_supplicant/src/tls\tlsv1_client.c **** 		break;
 2202              		.loc 1 650 10 is_stmt 0
 2203 011e B7070000 		lui	a5,%hi(.LC30)
 2204 0122 93870700 		addi	a5,a5,%lo(.LC30)
 651:C:/Users/stapi/OneDrive/Desktop/GD32VW553/V1_MQTT_OK/GD32VW55X_Wifi_BLE_SDK/GD32VW55x_RELEASE_V1.0.2/MSDK/wpa_supplicant/src/tls\tlsv1_client.c **** 	case TLS_DH_anon_WITH_AES_256_CBC_SHA:
 2205              		.loc 1 651 3
 2206 0126 05BF     		j	.L156
 2207              	.LVL243:
 2208              	.L152:
 653:C:/Users/stapi/OneDrive/Desktop/GD32VW553/V1_MQTT_OK/GD32VW55X_Wifi_BLE_SDK/GD32VW55x_RELEASE_V1.0.2/MSDK/wpa_supplicant/src/tls\tlsv1_client.c **** 		break;
 2209              		.loc 1 653 3 is_stmt 1
 654:C:/Users/stapi/OneDrive/Desktop/GD32VW553/V1_MQTT_OK/GD32VW55X_Wifi_BLE_SDK/GD32VW55x_RELEASE_V1.0.2/MSDK/wpa_supplicant/src/tls\tlsv1_client.c **** 	case TLS_RSA_WITH_AES_128_CBC_SHA256:
 2210              		.loc 1 654 3
 653:C:/Users/stapi/OneDrive/Desktop/GD32VW553/V1_MQTT_OK/GD32VW55X_Wifi_BLE_SDK/GD32VW55x_RELEASE_V1.0.2/MSDK/wpa_supplicant/src/tls\tlsv1_client.c **** 		break;
 2211              		.loc 1 653 10 is_stmt 0
 2212 0128 B7070000 		lui	a5,%hi(.LC31)
 2213 012c 93870700 		addi	a5,a5,%lo(.LC31)
 654:C:/Users/stapi/OneDrive/Desktop/GD32VW553/V1_MQTT_OK/GD32VW55X_Wifi_BLE_SDK/GD32VW55x_RELEASE_V1.0.2/MSDK/wpa_supplicant/src/tls\tlsv1_client.c **** 	case TLS_RSA_WITH_AES_128_CBC_SHA256:
 2214              		.loc 1 654 3
 2215 0130 1DB7     		j	.L156
 2216              	.LVL244:
 2217              	.L151:
 656:C:/Users/stapi/OneDrive/Desktop/GD32VW553/V1_MQTT_OK/GD32VW55X_Wifi_BLE_SDK/GD32VW55x_RELEASE_V1.0.2/MSDK/wpa_supplicant/src/tls\tlsv1_client.c **** 		break;
 2218              		.loc 1 656 3 is_stmt 1
 657:C:/Users/stapi/OneDrive/Desktop/GD32VW553/V1_MQTT_OK/GD32VW55X_Wifi_BLE_SDK/GD32VW55x_RELEASE_V1.0.2/MSDK/wpa_supplicant/src/tls\tlsv1_client.c **** 	case TLS_RSA_WITH_AES_256_CBC_SHA256:
 2219              		.loc 1 657 3
 656:C:/Users/stapi/OneDrive/Desktop/GD32VW553/V1_MQTT_OK/GD32VW55X_Wifi_BLE_SDK/GD32VW55x_RELEASE_V1.0.2/MSDK/wpa_supplicant/src/tls\tlsv1_client.c **** 		break;
 2220              		.loc 1 656 10 is_stmt 0
 2221 0132 B7070000 		lui	a5,%hi(.LC32)
 2222 0136 93870700 		addi	a5,a5,%lo(.LC32)
 657:C:/Users/stapi/OneDrive/Desktop/GD32VW553/V1_MQTT_OK/GD32VW55X_Wifi_BLE_SDK/GD32VW55x_RELEASE_V1.0.2/MSDK/wpa_supplicant/src/tls\tlsv1_client.c **** 	case TLS_RSA_WITH_AES_256_CBC_SHA256:
 2223              		.loc 1 657 3
 2224 013a 31BF     		j	.L156
 2225              	.LVL245:
 2226              	.L149:
 659:C:/Users/stapi/OneDrive/Desktop/GD32VW553/V1_MQTT_OK/GD32VW55X_Wifi_BLE_SDK/GD32VW55x_RELEASE_V1.0.2/MSDK/wpa_supplicant/src/tls\tlsv1_client.c **** 		break;
 2227              		.loc 1 659 3 is_stmt 1
 660:C:/Users/stapi/OneDrive/Desktop/GD32VW553/V1_MQTT_OK/GD32VW55X_Wifi_BLE_SDK/GD32VW55x_RELEASE_V1.0.2/MSDK/wpa_supplicant/src/tls\tlsv1_client.c **** 	case TLS_DHE_RSA_WITH_AES_128_CBC_SHA256:
 2228              		.loc 1 660 3
 659:C:/Users/stapi/OneDrive/Desktop/GD32VW553/V1_MQTT_OK/GD32VW55X_Wifi_BLE_SDK/GD32VW55x_RELEASE_V1.0.2/MSDK/wpa_supplicant/src/tls\tlsv1_client.c **** 		break;
 2229              		.loc 1 659 10 is_stmt 0
 2230 013c B7070000 		lui	a5,%hi(.LC33)
 2231 0140 93870700 		addi	a5,a5,%lo(.LC33)
 660:C:/Users/stapi/OneDrive/Desktop/GD32VW553/V1_MQTT_OK/GD32VW55X_Wifi_BLE_SDK/GD32VW55x_RELEASE_V1.0.2/MSDK/wpa_supplicant/src/tls\tlsv1_client.c **** 	case TLS_DHE_RSA_WITH_AES_128_CBC_SHA256:
 2232              		.loc 1 660 3
 2233 0144 09BF     		j	.L156
 2234              	.LVL246:
 2235              	.L169:
 641:C:/Users/stapi/OneDrive/Desktop/GD32VW553/V1_MQTT_OK/GD32VW55X_Wifi_BLE_SDK/GD32VW55x_RELEASE_V1.0.2/MSDK/wpa_supplicant/src/tls\tlsv1_client.c **** 		break;
 2236              		.loc 1 641 10
 2237 0146 B7070000 		lui	a5,%hi(.LC27)
 2238 014a 93870700 		addi	a5,a5,%lo(.LC27)
 2239 014e 21B7     		j	.L156
 2240              	.L171:
 611:C:/Users/stapi/OneDrive/Desktop/GD32VW553/V1_MQTT_OK/GD32VW55X_Wifi_BLE_SDK/GD32VW55x_RELEASE_V1.0.2/MSDK/wpa_supplicant/src/tls\tlsv1_client.c **** 		break;
 2241              		.loc 1 611 10
 2242 0150 B7070000 		lui	a5,%hi(.LC18)
 2243 0154 93870700 		addi	a5,a5,%lo(.LC18)
 2244 0158 FDBD     		j	.L156
 2245              	.L172:
 668:C:/Users/stapi/OneDrive/Desktop/GD32VW553/V1_MQTT_OK/GD32VW55X_Wifi_BLE_SDK/GD32VW55x_RELEASE_V1.0.2/MSDK/wpa_supplicant/src/tls\tlsv1_client.c **** 		break;
 2246              		.loc 1 668 10
 2247 015a B7070000 		lui	a5,%hi(.LC34)
 2248 015e 93870700 		addi	a5,a5,%lo(.LC34)
 2249 0162 D5BD     		j	.L156
 2250              	.L173:
 662:C:/Users/stapi/OneDrive/Desktop/GD32VW553/V1_MQTT_OK/GD32VW55X_Wifi_BLE_SDK/GD32VW55x_RELEASE_V1.0.2/MSDK/wpa_supplicant/src/tls\tlsv1_client.c **** 		break;
 2251              		.loc 1 662 10
 2252 0164 B7070000 		lui	a5,%hi(.LC35)
 2253 0168 93870700 		addi	a5,a5,%lo(.LC35)
 2254 016c EDB5     		j	.L156
 2255              		.cfi_endproc
 2256              	.LFE100:
 2258              		.section	.rodata.tlsv1_client_shutdown.str1.4,"aMS",@progbits,1
 2259              		.align	2
 2260              	.LC38:
 2261 0000 544C5376 		.string	"TLSv1: Failed to re-initialize verify hash"
 2261      313A2046 
 2261      61696C65 
 2261      6420746F 
 2261      2072652D 
 2262              		.section	.text.tlsv1_client_shutdown,"ax",@progbits
 2263              		.align	1
 2264              		.globl	tlsv1_client_shutdown
 2266              	tlsv1_client_shutdown:
 2267              	.LFB101:
 681:C:/Users/stapi/OneDrive/Desktop/GD32VW553/V1_MQTT_OK/GD32VW55X_Wifi_BLE_SDK/GD32VW55x_RELEASE_V1.0.2/MSDK/wpa_supplicant/src/tls\tlsv1_client.c **** 
 682:C:/Users/stapi/OneDrive/Desktop/GD32VW553/V1_MQTT_OK/GD32VW55X_Wifi_BLE_SDK/GD32VW55x_RELEASE_V1.0.2/MSDK/wpa_supplicant/src/tls\tlsv1_client.c **** 
 683:C:/Users/stapi/OneDrive/Desktop/GD32VW553/V1_MQTT_OK/GD32VW55X_Wifi_BLE_SDK/GD32VW55x_RELEASE_V1.0.2/MSDK/wpa_supplicant/src/tls\tlsv1_client.c **** /**
 684:C:/Users/stapi/OneDrive/Desktop/GD32VW553/V1_MQTT_OK/GD32VW55X_Wifi_BLE_SDK/GD32VW55x_RELEASE_V1.0.2/MSDK/wpa_supplicant/src/tls\tlsv1_client.c ****  * tlsv1_client_shutdown - Shutdown TLS connection
 685:C:/Users/stapi/OneDrive/Desktop/GD32VW553/V1_MQTT_OK/GD32VW55X_Wifi_BLE_SDK/GD32VW55x_RELEASE_V1.0.2/MSDK/wpa_supplicant/src/tls\tlsv1_client.c ****  * @conn: TLSv1 client connection data from tlsv1_client_init()
 686:C:/Users/stapi/OneDrive/Desktop/GD32VW553/V1_MQTT_OK/GD32VW55X_Wifi_BLE_SDK/GD32VW55x_RELEASE_V1.0.2/MSDK/wpa_supplicant/src/tls\tlsv1_client.c ****  * Returns: 0 on success, -1 on failure
 687:C:/Users/stapi/OneDrive/Desktop/GD32VW553/V1_MQTT_OK/GD32VW55X_Wifi_BLE_SDK/GD32VW55x_RELEASE_V1.0.2/MSDK/wpa_supplicant/src/tls\tlsv1_client.c ****  */
 688:C:/Users/stapi/OneDrive/Desktop/GD32VW553/V1_MQTT_OK/GD32VW55X_Wifi_BLE_SDK/GD32VW55x_RELEASE_V1.0.2/MSDK/wpa_supplicant/src/tls\tlsv1_client.c **** int tlsv1_client_shutdown(struct tlsv1_client *conn)
 689:C:/Users/stapi/OneDrive/Desktop/GD32VW553/V1_MQTT_OK/GD32VW55X_Wifi_BLE_SDK/GD32VW55x_RELEASE_V1.0.2/MSDK/wpa_supplicant/src/tls\tlsv1_client.c **** {
 2268              		.loc 1 689 1 is_stmt 1
 2269              		.cfi_startproc
 2270              	.LVL247:
 2271 0000 17030000 		call	t0,__riscv_save_2
 2271      E7020300 
 2272              		.cfi_offset 9, -12
 2273              		.cfi_offset 8, -8
 2274              		.cfi_offset 1, -4
 2275              		.cfi_def_cfa_offset 16
 690:C:/Users/stapi/OneDrive/Desktop/GD32VW553/V1_MQTT_OK/GD32VW55X_Wifi_BLE_SDK/GD32VW55x_RELEASE_V1.0.2/MSDK/wpa_supplicant/src/tls\tlsv1_client.c **** 	conn->state = CLIENT_HELLO;
 2276              		.loc 1 690 2
 689:C:/Users/stapi/OneDrive/Desktop/GD32VW553/V1_MQTT_OK/GD32VW55X_Wifi_BLE_SDK/GD32VW55x_RELEASE_V1.0.2/MSDK/wpa_supplicant/src/tls\tlsv1_client.c **** 	conn->state = CLIENT_HELLO;
 2277              		.loc 1 689 1 is_stmt 0
 2278 0008 2A84     		mv	s0,a0
 2279              		.loc 1 690 14
 2280 000a 23200500 		sw	zero,0(a0)
 691:C:/Users/stapi/OneDrive/Desktop/GD32VW553/V1_MQTT_OK/GD32VW55X_Wifi_BLE_SDK/GD32VW55x_RELEASE_V1.0.2/MSDK/wpa_supplicant/src/tls\tlsv1_client.c **** 
 692:C:/Users/stapi/OneDrive/Desktop/GD32VW553/V1_MQTT_OK/GD32VW55X_Wifi_BLE_SDK/GD32VW55x_RELEASE_V1.0.2/MSDK/wpa_supplicant/src/tls\tlsv1_client.c **** 	if (tls_verify_hash_init(&conn->verify) < 0) {
 2281              		.loc 1 692 2 is_stmt 1
 2282              		.loc 1 692 6 is_stmt 0
 2283 000e 13050518 		addi	a0,a0,384
 2284              	.LVL248:
 2285 0012 97000000 		call	tls_verify_hash_init
 2285      E7800000 
 2286              	.LVL249:
 2287              		.loc 1 692 5
 2288 001a 63500502 		bge	a0,zero,.L178
 693:C:/Users/stapi/OneDrive/Desktop/GD32VW553/V1_MQTT_OK/GD32VW55X_Wifi_BLE_SDK/GD32VW55x_RELEASE_V1.0.2/MSDK/wpa_supplicant/src/tls\tlsv1_client.c **** 		wpa_printf(MSG_DEBUG, "TLSv1: Failed to re-initialize verify "
 2289              		.loc 1 693 3 is_stmt 1
 2290 001e B7050000 		lui	a1,%hi(.LC38)
 2291 0022 0945     		li	a0,2
 2292 0024 93850500 		addi	a1,a1,%lo(.LC38)
 2293 0028 97000000 		call	wpa_printf
 2293      E7800000 
 2294              	.LVL250:
 694:C:/Users/stapi/OneDrive/Desktop/GD32VW553/V1_MQTT_OK/GD32VW55X_Wifi_BLE_SDK/GD32VW55x_RELEASE_V1.0.2/MSDK/wpa_supplicant/src/tls\tlsv1_client.c **** 			   "hash");
 695:C:/Users/stapi/OneDrive/Desktop/GD32VW553/V1_MQTT_OK/GD32VW55X_Wifi_BLE_SDK/GD32VW55x_RELEASE_V1.0.2/MSDK/wpa_supplicant/src/tls\tlsv1_client.c **** 		return -1;
 2295              		.loc 1 695 3
 2296              		.loc 1 695 10 is_stmt 0
 2297 0030 7D55     		li	a0,-1
 2298              	.L177:
 696:C:/Users/stapi/OneDrive/Desktop/GD32VW553/V1_MQTT_OK/GD32VW55X_Wifi_BLE_SDK/GD32VW55x_RELEASE_V1.0.2/MSDK/wpa_supplicant/src/tls\tlsv1_client.c **** 	}
 697:C:/Users/stapi/OneDrive/Desktop/GD32VW553/V1_MQTT_OK/GD32VW55X_Wifi_BLE_SDK/GD32VW55x_RELEASE_V1.0.2/MSDK/wpa_supplicant/src/tls\tlsv1_client.c **** 
 698:C:/Users/stapi/OneDrive/Desktop/GD32VW553/V1_MQTT_OK/GD32VW55X_Wifi_BLE_SDK/GD32VW55x_RELEASE_V1.0.2/MSDK/wpa_supplicant/src/tls\tlsv1_client.c **** 	tlsv1_record_set_cipher_suite(&conn->rl, TLS_NULL_WITH_NULL_NULL);
 699:C:/Users/stapi/OneDrive/Desktop/GD32VW553/V1_MQTT_OK/GD32VW55X_Wifi_BLE_SDK/GD32VW55x_RELEASE_V1.0.2/MSDK/wpa_supplicant/src/tls\tlsv1_client.c **** 	tlsv1_record_change_write_cipher(&conn->rl);
 700:C:/Users/stapi/OneDrive/Desktop/GD32VW553/V1_MQTT_OK/GD32VW55X_Wifi_BLE_SDK/GD32VW55x_RELEASE_V1.0.2/MSDK/wpa_supplicant/src/tls\tlsv1_client.c **** 	tlsv1_record_change_read_cipher(&conn->rl);
 701:C:/Users/stapi/OneDrive/Desktop/GD32VW553/V1_MQTT_OK/GD32VW55X_Wifi_BLE_SDK/GD32VW55x_RELEASE_V1.0.2/MSDK/wpa_supplicant/src/tls\tlsv1_client.c **** 
 702:C:/Users/stapi/OneDrive/Desktop/GD32VW553/V1_MQTT_OK/GD32VW55X_Wifi_BLE_SDK/GD32VW55x_RELEASE_V1.0.2/MSDK/wpa_supplicant/src/tls\tlsv1_client.c **** 	conn->certificate_requested = 0;
 703:C:/Users/stapi/OneDrive/Desktop/GD32VW553/V1_MQTT_OK/GD32VW55X_Wifi_BLE_SDK/GD32VW55x_RELEASE_V1.0.2/MSDK/wpa_supplicant/src/tls\tlsv1_client.c **** 	crypto_public_key_free(conn->server_rsa_key);
 704:C:/Users/stapi/OneDrive/Desktop/GD32VW553/V1_MQTT_OK/GD32VW55X_Wifi_BLE_SDK/GD32VW55x_RELEASE_V1.0.2/MSDK/wpa_supplicant/src/tls\tlsv1_client.c **** 	conn->server_rsa_key = NULL;
 705:C:/Users/stapi/OneDrive/Desktop/GD32VW553/V1_MQTT_OK/GD32VW55X_Wifi_BLE_SDK/GD32VW55x_RELEASE_V1.0.2/MSDK/wpa_supplicant/src/tls\tlsv1_client.c **** 	conn->session_resumed = 0;
 706:C:/Users/stapi/OneDrive/Desktop/GD32VW553/V1_MQTT_OK/GD32VW55X_Wifi_BLE_SDK/GD32VW55x_RELEASE_V1.0.2/MSDK/wpa_supplicant/src/tls\tlsv1_client.c **** 
 707:C:/Users/stapi/OneDrive/Desktop/GD32VW553/V1_MQTT_OK/GD32VW55X_Wifi_BLE_SDK/GD32VW55x_RELEASE_V1.0.2/MSDK/wpa_supplicant/src/tls\tlsv1_client.c **** 	return 0;
 708:C:/Users/stapi/OneDrive/Desktop/GD32VW553/V1_MQTT_OK/GD32VW55X_Wifi_BLE_SDK/GD32VW55x_RELEASE_V1.0.2/MSDK/wpa_supplicant/src/tls\tlsv1_client.c **** }
 2299              		.loc 1 708 1
 2300 0032 17030000 		tail	__riscv_restore_2
 2300      67000300 
 2301              		.cfi_remember_state
 2302              		.cfi_restore 9
 2303              		.cfi_restore 8
 2304              		.cfi_restore 1
 2305              		.cfi_def_cfa_offset 0
 2306              	.L178:
 2307              		.cfi_restore_state
 698:C:/Users/stapi/OneDrive/Desktop/GD32VW553/V1_MQTT_OK/GD32VW55X_Wifi_BLE_SDK/GD32VW55x_RELEASE_V1.0.2/MSDK/wpa_supplicant/src/tls\tlsv1_client.c **** 	tlsv1_record_change_write_cipher(&conn->rl);
 2308              		.loc 1 698 2 is_stmt 1
 2309 003a 93044400 		addi	s1,s0,4
 2310 003e 8145     		li	a1,0
 2311 0040 2685     		mv	a0,s1
 2312 0042 97000000 		call	tlsv1_record_set_cipher_suite
 2312      E7800000 
 2313              	.LVL251:
 699:C:/Users/stapi/OneDrive/Desktop/GD32VW553/V1_MQTT_OK/GD32VW55X_Wifi_BLE_SDK/GD32VW55x_RELEASE_V1.0.2/MSDK/wpa_supplicant/src/tls\tlsv1_client.c **** 	tlsv1_record_change_read_cipher(&conn->rl);
 2314              		.loc 1 699 2
 2315 004a 2685     		mv	a0,s1
 2316 004c 97000000 		call	tlsv1_record_change_write_cipher
 2316      E7800000 
 2317              	.LVL252:
 700:C:/Users/stapi/OneDrive/Desktop/GD32VW553/V1_MQTT_OK/GD32VW55X_Wifi_BLE_SDK/GD32VW55x_RELEASE_V1.0.2/MSDK/wpa_supplicant/src/tls\tlsv1_client.c **** 
 2318              		.loc 1 700 2
 2319 0054 2685     		mv	a0,s1
 2320 0056 97000000 		call	tlsv1_record_change_read_cipher
 2320      E7800000 
 2321              	.LVL253:
 702:C:/Users/stapi/OneDrive/Desktop/GD32VW553/V1_MQTT_OK/GD32VW55X_Wifi_BLE_SDK/GD32VW55x_RELEASE_V1.0.2/MSDK/wpa_supplicant/src/tls\tlsv1_client.c **** 	crypto_public_key_free(conn->server_rsa_key);
 2322              		.loc 1 702 2
 702:C:/Users/stapi/OneDrive/Desktop/GD32VW553/V1_MQTT_OK/GD32VW55X_Wifi_BLE_SDK/GD32VW55x_RELEASE_V1.0.2/MSDK/wpa_supplicant/src/tls\tlsv1_client.c **** 	crypto_public_key_free(conn->server_rsa_key);
 2323              		.loc 1 702 30 is_stmt 0
 2324 005e 83478417 		lbu	a5,376(s0)
 703:C:/Users/stapi/OneDrive/Desktop/GD32VW553/V1_MQTT_OK/GD32VW55X_Wifi_BLE_SDK/GD32VW55x_RELEASE_V1.0.2/MSDK/wpa_supplicant/src/tls\tlsv1_client.c **** 	conn->server_rsa_key = NULL;
 2325              		.loc 1 703 2
 2326 0062 0325C417 		lw	a0,380(s0)
 702:C:/Users/stapi/OneDrive/Desktop/GD32VW553/V1_MQTT_OK/GD32VW55X_Wifi_BLE_SDK/GD32VW55x_RELEASE_V1.0.2/MSDK/wpa_supplicant/src/tls\tlsv1_client.c **** 	crypto_public_key_free(conn->server_rsa_key);
 2327              		.loc 1 702 30
 2328 0066 F99B     		andi	a5,a5,-2
 2329 0068 230CF416 		sb	a5,376(s0)
 703:C:/Users/stapi/OneDrive/Desktop/GD32VW553/V1_MQTT_OK/GD32VW55X_Wifi_BLE_SDK/GD32VW55x_RELEASE_V1.0.2/MSDK/wpa_supplicant/src/tls\tlsv1_client.c **** 	conn->server_rsa_key = NULL;
 2330              		.loc 1 703 2 is_stmt 1
 2331 006c 97000000 		call	crypto_public_key_free
 2331      E7800000 
 2332              	.LVL254:
 704:C:/Users/stapi/OneDrive/Desktop/GD32VW553/V1_MQTT_OK/GD32VW55X_Wifi_BLE_SDK/GD32VW55x_RELEASE_V1.0.2/MSDK/wpa_supplicant/src/tls\tlsv1_client.c **** 	conn->session_resumed = 0;
 2333              		.loc 1 704 2
 705:C:/Users/stapi/OneDrive/Desktop/GD32VW553/V1_MQTT_OK/GD32VW55X_Wifi_BLE_SDK/GD32VW55x_RELEASE_V1.0.2/MSDK/wpa_supplicant/src/tls\tlsv1_client.c **** 
 2334              		.loc 1 705 24 is_stmt 0
 2335 0074 83478417 		lbu	a5,376(s0)
 704:C:/Users/stapi/OneDrive/Desktop/GD32VW553/V1_MQTT_OK/GD32VW55X_Wifi_BLE_SDK/GD32VW55x_RELEASE_V1.0.2/MSDK/wpa_supplicant/src/tls\tlsv1_client.c **** 	conn->session_resumed = 0;
 2336              		.loc 1 704 23
 2337 0078 232E0416 		sw	zero,380(s0)
 705:C:/Users/stapi/OneDrive/Desktop/GD32VW553/V1_MQTT_OK/GD32VW55X_Wifi_BLE_SDK/GD32VW55x_RELEASE_V1.0.2/MSDK/wpa_supplicant/src/tls\tlsv1_client.c **** 
 2338              		.loc 1 705 2 is_stmt 1
 707:C:/Users/stapi/OneDrive/Desktop/GD32VW553/V1_MQTT_OK/GD32VW55X_Wifi_BLE_SDK/GD32VW55x_RELEASE_V1.0.2/MSDK/wpa_supplicant/src/tls\tlsv1_client.c **** }
 2339              		.loc 1 707 9 is_stmt 0
 2340 007c 0145     		li	a0,0
 705:C:/Users/stapi/OneDrive/Desktop/GD32VW553/V1_MQTT_OK/GD32VW55X_Wifi_BLE_SDK/GD32VW55x_RELEASE_V1.0.2/MSDK/wpa_supplicant/src/tls\tlsv1_client.c **** 
 2341              		.loc 1 705 24
 2342 007e F59B     		andi	a5,a5,-3
 2343 0080 230CF416 		sb	a5,376(s0)
 707:C:/Users/stapi/OneDrive/Desktop/GD32VW553/V1_MQTT_OK/GD32VW55X_Wifi_BLE_SDK/GD32VW55x_RELEASE_V1.0.2/MSDK/wpa_supplicant/src/tls\tlsv1_client.c **** }
 2344              		.loc 1 707 2 is_stmt 1
 707:C:/Users/stapi/OneDrive/Desktop/GD32VW553/V1_MQTT_OK/GD32VW55X_Wifi_BLE_SDK/GD32VW55x_RELEASE_V1.0.2/MSDK/wpa_supplicant/src/tls\tlsv1_client.c **** }
 2345              		.loc 1 707 9 is_stmt 0
 2346 0084 7DB7     		j	.L177
 2347              		.cfi_endproc
 2348              	.LFE101:
 2350              		.section	.text.tlsv1_client_resumed,"ax",@progbits
 2351              		.align	1
 2352              		.globl	tlsv1_client_resumed
 2354              	tlsv1_client_resumed:
 2355              	.LFB102:
 709:C:/Users/stapi/OneDrive/Desktop/GD32VW553/V1_MQTT_OK/GD32VW55X_Wifi_BLE_SDK/GD32VW55x_RELEASE_V1.0.2/MSDK/wpa_supplicant/src/tls\tlsv1_client.c **** 
 710:C:/Users/stapi/OneDrive/Desktop/GD32VW553/V1_MQTT_OK/GD32VW55X_Wifi_BLE_SDK/GD32VW55x_RELEASE_V1.0.2/MSDK/wpa_supplicant/src/tls\tlsv1_client.c **** 
 711:C:/Users/stapi/OneDrive/Desktop/GD32VW553/V1_MQTT_OK/GD32VW55X_Wifi_BLE_SDK/GD32VW55x_RELEASE_V1.0.2/MSDK/wpa_supplicant/src/tls\tlsv1_client.c **** /**
 712:C:/Users/stapi/OneDrive/Desktop/GD32VW553/V1_MQTT_OK/GD32VW55X_Wifi_BLE_SDK/GD32VW55x_RELEASE_V1.0.2/MSDK/wpa_supplicant/src/tls\tlsv1_client.c ****  * tlsv1_client_resumed - Was session resumption used
 713:C:/Users/stapi/OneDrive/Desktop/GD32VW553/V1_MQTT_OK/GD32VW55X_Wifi_BLE_SDK/GD32VW55x_RELEASE_V1.0.2/MSDK/wpa_supplicant/src/tls\tlsv1_client.c ****  * @conn: TLSv1 client connection data from tlsv1_client_init()
 714:C:/Users/stapi/OneDrive/Desktop/GD32VW553/V1_MQTT_OK/GD32VW55X_Wifi_BLE_SDK/GD32VW55x_RELEASE_V1.0.2/MSDK/wpa_supplicant/src/tls\tlsv1_client.c ****  * Returns: 1 if current session used session resumption, 0 if not
 715:C:/Users/stapi/OneDrive/Desktop/GD32VW553/V1_MQTT_OK/GD32VW55X_Wifi_BLE_SDK/GD32VW55x_RELEASE_V1.0.2/MSDK/wpa_supplicant/src/tls\tlsv1_client.c ****  */
 716:C:/Users/stapi/OneDrive/Desktop/GD32VW553/V1_MQTT_OK/GD32VW55X_Wifi_BLE_SDK/GD32VW55x_RELEASE_V1.0.2/MSDK/wpa_supplicant/src/tls\tlsv1_client.c **** int tlsv1_client_resumed(struct tlsv1_client *conn)
 717:C:/Users/stapi/OneDrive/Desktop/GD32VW553/V1_MQTT_OK/GD32VW55X_Wifi_BLE_SDK/GD32VW55x_RELEASE_V1.0.2/MSDK/wpa_supplicant/src/tls\tlsv1_client.c **** {
 2356              		.loc 1 717 1 is_stmt 1
 2357              		.cfi_startproc
 2358              	.LVL255:
 718:C:/Users/stapi/OneDrive/Desktop/GD32VW553/V1_MQTT_OK/GD32VW55X_Wifi_BLE_SDK/GD32VW55x_RELEASE_V1.0.2/MSDK/wpa_supplicant/src/tls\tlsv1_client.c **** 	return !!conn->session_resumed;
 2359              		.loc 1 718 2
 2360              		.loc 1 718 9 is_stmt 0
 2361 0000 03458517 		lbu	a0,376(a0)
 2362              	.LVL256:
 719:C:/Users/stapi/OneDrive/Desktop/GD32VW553/V1_MQTT_OK/GD32VW55X_Wifi_BLE_SDK/GD32VW55x_RELEASE_V1.0.2/MSDK/wpa_supplicant/src/tls\tlsv1_client.c **** }
 2363              		.loc 1 719 1
 2364 0004 13551548 		bexti	a0,a0,1
 2365 0008 8280     		ret
 2366              		.cfi_endproc
 2367              	.LFE102:
 2369              		.section	.rodata.tlsv1_client_hello_ext.str1.4,"aMS",@progbits,1
 2370              		.align	2
 2371              	.LC39:
 2372 0000 544C5376 		.string	"TLSv1: Using session ticket"
 2372      313A2055 
 2372      73696E67 
 2372      20736573 
 2372      73696F6E 
 2373              		.section	.text.tlsv1_client_hello_ext,"ax",@progbits
 2374              		.align	1
 2375              		.globl	tlsv1_client_hello_ext
 2377              	tlsv1_client_hello_ext:
 2378              	.LFB103:
 720:C:/Users/stapi/OneDrive/Desktop/GD32VW553/V1_MQTT_OK/GD32VW55X_Wifi_BLE_SDK/GD32VW55x_RELEASE_V1.0.2/MSDK/wpa_supplicant/src/tls\tlsv1_client.c **** 
 721:C:/Users/stapi/OneDrive/Desktop/GD32VW553/V1_MQTT_OK/GD32VW55X_Wifi_BLE_SDK/GD32VW55x_RELEASE_V1.0.2/MSDK/wpa_supplicant/src/tls\tlsv1_client.c **** 
 722:C:/Users/stapi/OneDrive/Desktop/GD32VW553/V1_MQTT_OK/GD32VW55X_Wifi_BLE_SDK/GD32VW55x_RELEASE_V1.0.2/MSDK/wpa_supplicant/src/tls\tlsv1_client.c **** /**
 723:C:/Users/stapi/OneDrive/Desktop/GD32VW553/V1_MQTT_OK/GD32VW55X_Wifi_BLE_SDK/GD32VW55x_RELEASE_V1.0.2/MSDK/wpa_supplicant/src/tls\tlsv1_client.c ****  * tlsv1_client_hello_ext - Set TLS extension for ClientHello
 724:C:/Users/stapi/OneDrive/Desktop/GD32VW553/V1_MQTT_OK/GD32VW55X_Wifi_BLE_SDK/GD32VW55x_RELEASE_V1.0.2/MSDK/wpa_supplicant/src/tls\tlsv1_client.c ****  * @conn: TLSv1 client connection data from tlsv1_client_init()
 725:C:/Users/stapi/OneDrive/Desktop/GD32VW553/V1_MQTT_OK/GD32VW55X_Wifi_BLE_SDK/GD32VW55x_RELEASE_V1.0.2/MSDK/wpa_supplicant/src/tls\tlsv1_client.c ****  * @ext_type: Extension type
 726:C:/Users/stapi/OneDrive/Desktop/GD32VW553/V1_MQTT_OK/GD32VW55X_Wifi_BLE_SDK/GD32VW55x_RELEASE_V1.0.2/MSDK/wpa_supplicant/src/tls\tlsv1_client.c ****  * @data: Extension payload (%NULL to remove extension)
 727:C:/Users/stapi/OneDrive/Desktop/GD32VW553/V1_MQTT_OK/GD32VW55X_Wifi_BLE_SDK/GD32VW55x_RELEASE_V1.0.2/MSDK/wpa_supplicant/src/tls\tlsv1_client.c ****  * @data_len: Extension payload length
 728:C:/Users/stapi/OneDrive/Desktop/GD32VW553/V1_MQTT_OK/GD32VW55X_Wifi_BLE_SDK/GD32VW55x_RELEASE_V1.0.2/MSDK/wpa_supplicant/src/tls\tlsv1_client.c ****  * Returns: 0 on success, -1 on failure
 729:C:/Users/stapi/OneDrive/Desktop/GD32VW553/V1_MQTT_OK/GD32VW55X_Wifi_BLE_SDK/GD32VW55x_RELEASE_V1.0.2/MSDK/wpa_supplicant/src/tls\tlsv1_client.c ****  */
 730:C:/Users/stapi/OneDrive/Desktop/GD32VW553/V1_MQTT_OK/GD32VW55X_Wifi_BLE_SDK/GD32VW55x_RELEASE_V1.0.2/MSDK/wpa_supplicant/src/tls\tlsv1_client.c **** int tlsv1_client_hello_ext(struct tlsv1_client *conn, int ext_type,
 731:C:/Users/stapi/OneDrive/Desktop/GD32VW553/V1_MQTT_OK/GD32VW55X_Wifi_BLE_SDK/GD32VW55x_RELEASE_V1.0.2/MSDK/wpa_supplicant/src/tls\tlsv1_client.c **** 			   const u8 *data, size_t data_len)
 732:C:/Users/stapi/OneDrive/Desktop/GD32VW553/V1_MQTT_OK/GD32VW55X_Wifi_BLE_SDK/GD32VW55x_RELEASE_V1.0.2/MSDK/wpa_supplicant/src/tls\tlsv1_client.c **** {
 2379              		.loc 1 732 1 is_stmt 1
 2380              		.cfi_startproc
 2381              	.LVL257:
 2382 0000 17030000 		call	t0,__riscv_save_5
 2382      E7020300 
 2383              		.cfi_offset 20, -24
 2384              		.cfi_offset 19, -20
 2385              		.cfi_offset 18, -16
 2386              		.cfi_offset 9, -12
 2387              		.cfi_offset 8, -8
 2388              		.cfi_offset 1, -4
 2389              		.cfi_def_cfa_offset 32
 733:C:/Users/stapi/OneDrive/Desktop/GD32VW553/V1_MQTT_OK/GD32VW55X_Wifi_BLE_SDK/GD32VW55x_RELEASE_V1.0.2/MSDK/wpa_supplicant/src/tls\tlsv1_client.c **** 	u8 *pos;
 2390              		.loc 1 733 2
 734:C:/Users/stapi/OneDrive/Desktop/GD32VW553/V1_MQTT_OK/GD32VW55X_Wifi_BLE_SDK/GD32VW55x_RELEASE_V1.0.2/MSDK/wpa_supplicant/src/tls\tlsv1_client.c **** 
 735:C:/Users/stapi/OneDrive/Desktop/GD32VW553/V1_MQTT_OK/GD32VW55X_Wifi_BLE_SDK/GD32VW55x_RELEASE_V1.0.2/MSDK/wpa_supplicant/src/tls\tlsv1_client.c **** 	conn->session_ticket_included = 0;
 2391              		.loc 1 735 2
 2392              		.loc 1 735 32 is_stmt 0
 2393 0008 83478517 		lbu	a5,376(a0)
 732:C:/Users/stapi/OneDrive/Desktop/GD32VW553/V1_MQTT_OK/GD32VW55X_Wifi_BLE_SDK/GD32VW55x_RELEASE_V1.0.2/MSDK/wpa_supplicant/src/tls\tlsv1_client.c **** 	u8 *pos;
 2394              		.loc 1 732 1
 2395 000c 2A84     		mv	s0,a0
 2396 000e 2E89     		mv	s2,a1
 2397              		.loc 1 735 32
 2398 0010 ED9B     		andi	a5,a5,-5
 2399 0012 230CF516 		sb	a5,376(a0)
 736:C:/Users/stapi/OneDrive/Desktop/GD32VW553/V1_MQTT_OK/GD32VW55X_Wifi_BLE_SDK/GD32VW55x_RELEASE_V1.0.2/MSDK/wpa_supplicant/src/tls\tlsv1_client.c **** 	os_free(conn->client_hello_ext);
 2400              		.loc 1 736 2 is_stmt 1
 2401 0016 0325851E 		lw	a0,488(a0)
 2402              	.LVL258:
 732:C:/Users/stapi/OneDrive/Desktop/GD32VW553/V1_MQTT_OK/GD32VW55X_Wifi_BLE_SDK/GD32VW55x_RELEASE_V1.0.2/MSDK/wpa_supplicant/src/tls\tlsv1_client.c **** 	u8 *pos;
 2403              		.loc 1 732 1 is_stmt 0
 2404 001a B289     		mv	s3,a2
 2405 001c B684     		mv	s1,a3
 2406              		.loc 1 736 2
 2407 001e 97000000 		call	os_free
 2407      E7800000 
 2408              	.LVL259:
 737:C:/Users/stapi/OneDrive/Desktop/GD32VW553/V1_MQTT_OK/GD32VW55X_Wifi_BLE_SDK/GD32VW55x_RELEASE_V1.0.2/MSDK/wpa_supplicant/src/tls\tlsv1_client.c **** 	conn->client_hello_ext = NULL;
 2409              		.loc 1 737 2 is_stmt 1
 2410              		.loc 1 737 25 is_stmt 0
 2411 0026 2324041E 		sw	zero,488(s0)
 738:C:/Users/stapi/OneDrive/Desktop/GD32VW553/V1_MQTT_OK/GD32VW55X_Wifi_BLE_SDK/GD32VW55x_RELEASE_V1.0.2/MSDK/wpa_supplicant/src/tls\tlsv1_client.c **** 	conn->client_hello_ext_len = 0;
 2412              		.loc 1 738 2 is_stmt 1
 2413              		.loc 1 738 29 is_stmt 0
 2414 002a 2326041E 		sw	zero,492(s0)
 739:C:/Users/stapi/OneDrive/Desktop/GD32VW553/V1_MQTT_OK/GD32VW55X_Wifi_BLE_SDK/GD32VW55x_RELEASE_V1.0.2/MSDK/wpa_supplicant/src/tls\tlsv1_client.c **** 
 740:C:/Users/stapi/OneDrive/Desktop/GD32VW553/V1_MQTT_OK/GD32VW55X_Wifi_BLE_SDK/GD32VW55x_RELEASE_V1.0.2/MSDK/wpa_supplicant/src/tls\tlsv1_client.c **** 	if (data == NULL || data_len == 0)
 2415              		.loc 1 740 2 is_stmt 1
 2416              		.loc 1 740 5 is_stmt 0
 2417 002e 63970900 		bne	s3,zero,.L183
 2418              	.L191:
 741:C:/Users/stapi/OneDrive/Desktop/GD32VW553/V1_MQTT_OK/GD32VW55X_Wifi_BLE_SDK/GD32VW55x_RELEASE_V1.0.2/MSDK/wpa_supplicant/src/tls\tlsv1_client.c **** 		return 0;
 742:C:/Users/stapi/OneDrive/Desktop/GD32VW553/V1_MQTT_OK/GD32VW55X_Wifi_BLE_SDK/GD32VW55x_RELEASE_V1.0.2/MSDK/wpa_supplicant/src/tls\tlsv1_client.c **** 
 743:C:/Users/stapi/OneDrive/Desktop/GD32VW553/V1_MQTT_OK/GD32VW55X_Wifi_BLE_SDK/GD32VW55x_RELEASE_V1.0.2/MSDK/wpa_supplicant/src/tls\tlsv1_client.c **** 	pos = conn->client_hello_ext = os_malloc(4 + data_len);
 744:C:/Users/stapi/OneDrive/Desktop/GD32VW553/V1_MQTT_OK/GD32VW55X_Wifi_BLE_SDK/GD32VW55x_RELEASE_V1.0.2/MSDK/wpa_supplicant/src/tls\tlsv1_client.c **** 	if (pos == NULL)
 745:C:/Users/stapi/OneDrive/Desktop/GD32VW553/V1_MQTT_OK/GD32VW55X_Wifi_BLE_SDK/GD32VW55x_RELEASE_V1.0.2/MSDK/wpa_supplicant/src/tls\tlsv1_client.c **** 		return -1;
 746:C:/Users/stapi/OneDrive/Desktop/GD32VW553/V1_MQTT_OK/GD32VW55X_Wifi_BLE_SDK/GD32VW55x_RELEASE_V1.0.2/MSDK/wpa_supplicant/src/tls\tlsv1_client.c **** 
 747:C:/Users/stapi/OneDrive/Desktop/GD32VW553/V1_MQTT_OK/GD32VW55X_Wifi_BLE_SDK/GD32VW55x_RELEASE_V1.0.2/MSDK/wpa_supplicant/src/tls\tlsv1_client.c **** 	WPA_PUT_BE16(pos, ext_type);
 748:C:/Users/stapi/OneDrive/Desktop/GD32VW553/V1_MQTT_OK/GD32VW55X_Wifi_BLE_SDK/GD32VW55x_RELEASE_V1.0.2/MSDK/wpa_supplicant/src/tls\tlsv1_client.c **** 	pos += 2;
 749:C:/Users/stapi/OneDrive/Desktop/GD32VW553/V1_MQTT_OK/GD32VW55X_Wifi_BLE_SDK/GD32VW55x_RELEASE_V1.0.2/MSDK/wpa_supplicant/src/tls\tlsv1_client.c **** 	WPA_PUT_BE16(pos, data_len);
 750:C:/Users/stapi/OneDrive/Desktop/GD32VW553/V1_MQTT_OK/GD32VW55X_Wifi_BLE_SDK/GD32VW55x_RELEASE_V1.0.2/MSDK/wpa_supplicant/src/tls\tlsv1_client.c **** 	pos += 2;
 751:C:/Users/stapi/OneDrive/Desktop/GD32VW553/V1_MQTT_OK/GD32VW55X_Wifi_BLE_SDK/GD32VW55x_RELEASE_V1.0.2/MSDK/wpa_supplicant/src/tls\tlsv1_client.c **** 	os_memcpy(pos, data, data_len);
 752:C:/Users/stapi/OneDrive/Desktop/GD32VW553/V1_MQTT_OK/GD32VW55X_Wifi_BLE_SDK/GD32VW55x_RELEASE_V1.0.2/MSDK/wpa_supplicant/src/tls\tlsv1_client.c **** 	conn->client_hello_ext_len = 4 + data_len;
 753:C:/Users/stapi/OneDrive/Desktop/GD32VW553/V1_MQTT_OK/GD32VW55X_Wifi_BLE_SDK/GD32VW55x_RELEASE_V1.0.2/MSDK/wpa_supplicant/src/tls\tlsv1_client.c **** 
 754:C:/Users/stapi/OneDrive/Desktop/GD32VW553/V1_MQTT_OK/GD32VW55X_Wifi_BLE_SDK/GD32VW55x_RELEASE_V1.0.2/MSDK/wpa_supplicant/src/tls\tlsv1_client.c **** 	if (ext_type == TLS_EXT_PAC_OPAQUE) {
 755:C:/Users/stapi/OneDrive/Desktop/GD32VW553/V1_MQTT_OK/GD32VW55X_Wifi_BLE_SDK/GD32VW55x_RELEASE_V1.0.2/MSDK/wpa_supplicant/src/tls\tlsv1_client.c **** 		conn->session_ticket_included = 1;
 756:C:/Users/stapi/OneDrive/Desktop/GD32VW553/V1_MQTT_OK/GD32VW55X_Wifi_BLE_SDK/GD32VW55x_RELEASE_V1.0.2/MSDK/wpa_supplicant/src/tls\tlsv1_client.c **** 		wpa_printf(MSG_DEBUG, "TLSv1: Using session ticket");
 757:C:/Users/stapi/OneDrive/Desktop/GD32VW553/V1_MQTT_OK/GD32VW55X_Wifi_BLE_SDK/GD32VW55x_RELEASE_V1.0.2/MSDK/wpa_supplicant/src/tls\tlsv1_client.c **** 	}
 758:C:/Users/stapi/OneDrive/Desktop/GD32VW553/V1_MQTT_OK/GD32VW55X_Wifi_BLE_SDK/GD32VW55x_RELEASE_V1.0.2/MSDK/wpa_supplicant/src/tls\tlsv1_client.c **** 
 759:C:/Users/stapi/OneDrive/Desktop/GD32VW553/V1_MQTT_OK/GD32VW55X_Wifi_BLE_SDK/GD32VW55x_RELEASE_V1.0.2/MSDK/wpa_supplicant/src/tls\tlsv1_client.c **** 	return 0;
 2419              		.loc 1 759 9
 2420 0032 0145     		li	a0,0
 2421              	.L182:
 760:C:/Users/stapi/OneDrive/Desktop/GD32VW553/V1_MQTT_OK/GD32VW55X_Wifi_BLE_SDK/GD32VW55x_RELEASE_V1.0.2/MSDK/wpa_supplicant/src/tls\tlsv1_client.c **** }
 2422              		.loc 1 760 1
 2423 0034 17030000 		tail	__riscv_restore_5
 2423      67000300 
 2424              		.cfi_remember_state
 2425              		.cfi_restore 20
 2426              		.cfi_restore 19
 2427              		.cfi_restore 18
 2428              		.cfi_restore 9
 2429              		.cfi_restore 8
 2430              		.cfi_restore 1
 2431              		.cfi_def_cfa_offset 0
 2432              	.L183:
 2433              		.cfi_restore_state
 740:C:/Users/stapi/OneDrive/Desktop/GD32VW553/V1_MQTT_OK/GD32VW55X_Wifi_BLE_SDK/GD32VW55x_RELEASE_V1.0.2/MSDK/wpa_supplicant/src/tls\tlsv1_client.c **** 		return 0;
 2434              		.loc 1 740 19 discriminator 1
 2435 003c FDD8     		beq	s1,zero,.L191
 743:C:/Users/stapi/OneDrive/Desktop/GD32VW553/V1_MQTT_OK/GD32VW55X_Wifi_BLE_SDK/GD32VW55x_RELEASE_V1.0.2/MSDK/wpa_supplicant/src/tls\tlsv1_client.c **** 	if (pos == NULL)
 2436              		.loc 1 743 2 is_stmt 1
 743:C:/Users/stapi/OneDrive/Desktop/GD32VW553/V1_MQTT_OK/GD32VW55X_Wifi_BLE_SDK/GD32VW55x_RELEASE_V1.0.2/MSDK/wpa_supplicant/src/tls\tlsv1_client.c **** 	if (pos == NULL)
 2437              		.loc 1 743 33 is_stmt 0
 2438 003e 138A4400 		addi	s4,s1,4
 2439 0042 5285     		mv	a0,s4
 2440 0044 97000000 		call	os_malloc
 2440      E7800000 
 2441              	.LVL260:
 2442 004c AA87     		mv	a5,a0
 743:C:/Users/stapi/OneDrive/Desktop/GD32VW553/V1_MQTT_OK/GD32VW55X_Wifi_BLE_SDK/GD32VW55x_RELEASE_V1.0.2/MSDK/wpa_supplicant/src/tls\tlsv1_client.c **** 	if (pos == NULL)
 2443              		.loc 1 743 31
 2444 004e 2324A41E 		sw	a0,488(s0)
 2445              	.LVL261:
 744:C:/Users/stapi/OneDrive/Desktop/GD32VW553/V1_MQTT_OK/GD32VW55X_Wifi_BLE_SDK/GD32VW55x_RELEASE_V1.0.2/MSDK/wpa_supplicant/src/tls\tlsv1_client.c **** 		return -1;
 2446              		.loc 1 744 2 is_stmt 1
 745:C:/Users/stapi/OneDrive/Desktop/GD32VW553/V1_MQTT_OK/GD32VW55X_Wifi_BLE_SDK/GD32VW55x_RELEASE_V1.0.2/MSDK/wpa_supplicant/src/tls\tlsv1_client.c **** 
 2447              		.loc 1 745 10 is_stmt 0
 2448 0052 7D55     		li	a0,-1
 2449              	.LVL262:
 744:C:/Users/stapi/OneDrive/Desktop/GD32VW553/V1_MQTT_OK/GD32VW55X_Wifi_BLE_SDK/GD32VW55x_RELEASE_V1.0.2/MSDK/wpa_supplicant/src/tls\tlsv1_client.c **** 		return -1;
 2450              		.loc 1 744 5
 2451 0054 E5D3     		beq	a5,zero,.L182
 747:C:/Users/stapi/OneDrive/Desktop/GD32VW553/V1_MQTT_OK/GD32VW55X_Wifi_BLE_SDK/GD32VW55x_RELEASE_V1.0.2/MSDK/wpa_supplicant/src/tls\tlsv1_client.c **** 	pos += 2;
 2452              		.loc 1 747 2 is_stmt 1
 2453              	.LVL263:
 2454              	.LBB100:
 2455              	.LBB101:
 247:..\..\..\..\wpa_supplicant\src\utils/common.h **** 	a[1] = val & 0xff;
 2456              		.loc 2 247 2
 247:..\..\..\..\wpa_supplicant\src\utils/common.h **** 	a[1] = val & 0xff;
 2457              		.loc 2 247 7 is_stmt 0
 2458 0056 33470908 		zext.h	a4,s2
 2459 005a 2183     		srli	a4,a4,8
 2460 005c 2380E700 		sb	a4,0(a5)
 2461              		.loc 2 248 2 is_stmt 1
 2462              	.LBE101:
 2463              	.LBE100:
 2464              	.LBB103:
 2465              	.LBB104:
 247:..\..\..\..\wpa_supplicant\src\utils/common.h **** 	a[1] = val & 0xff;
 2466              		.loc 2 247 7 is_stmt 0
 2467 0060 33C70408 		zext.h	a4,s1
 2468 0064 2183     		srli	a4,a4,8
 2469              	.LBE104:
 2470              	.LBE103:
 2471              	.LBB106:
 2472              	.LBB102:
 2473              		.loc 2 248 7
 2474 0066 A3802701 		sb	s2,1(a5)
 2475              	.LVL264:
 2476              	.LBE102:
 2477              	.LBE106:
 748:C:/Users/stapi/OneDrive/Desktop/GD32VW553/V1_MQTT_OK/GD32VW55X_Wifi_BLE_SDK/GD32VW55x_RELEASE_V1.0.2/MSDK/wpa_supplicant/src/tls\tlsv1_client.c **** 	WPA_PUT_BE16(pos, data_len);
 2478              		.loc 1 748 2 is_stmt 1
 749:C:/Users/stapi/OneDrive/Desktop/GD32VW553/V1_MQTT_OK/GD32VW55X_Wifi_BLE_SDK/GD32VW55x_RELEASE_V1.0.2/MSDK/wpa_supplicant/src/tls\tlsv1_client.c **** 	pos += 2;
 2479              		.loc 1 749 2
 2480              	.LBB107:
 2481              	.LBB105:
 247:..\..\..\..\wpa_supplicant\src\utils/common.h **** 	a[1] = val & 0xff;
 2482              		.loc 2 247 2
 247:..\..\..\..\wpa_supplicant\src\utils/common.h **** 	a[1] = val & 0xff;
 2483              		.loc 2 247 7 is_stmt 0
 2484 006a 2381E700 		sb	a4,2(a5)
 2485              		.loc 2 248 2 is_stmt 1
 2486              		.loc 2 248 7 is_stmt 0
 2487 006e A3819700 		sb	s1,3(a5)
 2488              	.LVL265:
 2489              	.LBE105:
 2490              	.LBE107:
 750:C:/Users/stapi/OneDrive/Desktop/GD32VW553/V1_MQTT_OK/GD32VW55X_Wifi_BLE_SDK/GD32VW55x_RELEASE_V1.0.2/MSDK/wpa_supplicant/src/tls\tlsv1_client.c **** 	os_memcpy(pos, data, data_len);
 2491              		.loc 1 750 2 is_stmt 1
 751:C:/Users/stapi/OneDrive/Desktop/GD32VW553/V1_MQTT_OK/GD32VW55X_Wifi_BLE_SDK/GD32VW55x_RELEASE_V1.0.2/MSDK/wpa_supplicant/src/tls\tlsv1_client.c **** 	conn->client_hello_ext_len = 4 + data_len;
 2492              		.loc 1 751 2
 2493 0072 13854700 		addi	a0,a5,4
 2494              	.LVL266:
 2495 0076 2686     		mv	a2,s1
 2496 0078 CE85     		mv	a1,s3
 2497 007a 97000000 		call	os_memcpy
 2497      E7800000 
 2498              	.LVL267:
 752:C:/Users/stapi/OneDrive/Desktop/GD32VW553/V1_MQTT_OK/GD32VW55X_Wifi_BLE_SDK/GD32VW55x_RELEASE_V1.0.2/MSDK/wpa_supplicant/src/tls\tlsv1_client.c **** 
 2499              		.loc 1 752 2
 754:C:/Users/stapi/OneDrive/Desktop/GD32VW553/V1_MQTT_OK/GD32VW55X_Wifi_BLE_SDK/GD32VW55x_RELEASE_V1.0.2/MSDK/wpa_supplicant/src/tls\tlsv1_client.c **** 		conn->session_ticket_included = 1;
 2500              		.loc 1 754 5 is_stmt 0
 2501 0082 93073002 		li	a5,35
 752:C:/Users/stapi/OneDrive/Desktop/GD32VW553/V1_MQTT_OK/GD32VW55X_Wifi_BLE_SDK/GD32VW55x_RELEASE_V1.0.2/MSDK/wpa_supplicant/src/tls\tlsv1_client.c **** 
 2502              		.loc 1 752 29
 2503 0086 2326441F 		sw	s4,492(s0)
 754:C:/Users/stapi/OneDrive/Desktop/GD32VW553/V1_MQTT_OK/GD32VW55X_Wifi_BLE_SDK/GD32VW55x_RELEASE_V1.0.2/MSDK/wpa_supplicant/src/tls\tlsv1_client.c **** 		conn->session_ticket_included = 1;
 2504              		.loc 1 754 2 is_stmt 1
 754:C:/Users/stapi/OneDrive/Desktop/GD32VW553/V1_MQTT_OK/GD32VW55X_Wifi_BLE_SDK/GD32VW55x_RELEASE_V1.0.2/MSDK/wpa_supplicant/src/tls\tlsv1_client.c **** 		conn->session_ticket_included = 1;
 2505              		.loc 1 754 5 is_stmt 0
 2506 008a E314F9FA 		bne	s2,a5,.L191
 755:C:/Users/stapi/OneDrive/Desktop/GD32VW553/V1_MQTT_OK/GD32VW55X_Wifi_BLE_SDK/GD32VW55x_RELEASE_V1.0.2/MSDK/wpa_supplicant/src/tls\tlsv1_client.c **** 		wpa_printf(MSG_DEBUG, "TLSv1: Using session ticket");
 2507              		.loc 1 755 3 is_stmt 1
 755:C:/Users/stapi/OneDrive/Desktop/GD32VW553/V1_MQTT_OK/GD32VW55X_Wifi_BLE_SDK/GD32VW55x_RELEASE_V1.0.2/MSDK/wpa_supplicant/src/tls\tlsv1_client.c **** 		wpa_printf(MSG_DEBUG, "TLSv1: Using session ticket");
 2508              		.loc 1 755 33 is_stmt 0
 2509 008e 83478417 		lbu	a5,376(s0)
 756:C:/Users/stapi/OneDrive/Desktop/GD32VW553/V1_MQTT_OK/GD32VW55X_Wifi_BLE_SDK/GD32VW55x_RELEASE_V1.0.2/MSDK/wpa_supplicant/src/tls\tlsv1_client.c **** 	}
 2510              		.loc 1 756 3
 2511 0092 B7050000 		lui	a1,%hi(.LC39)
 2512 0096 93850500 		addi	a1,a1,%lo(.LC39)
 755:C:/Users/stapi/OneDrive/Desktop/GD32VW553/V1_MQTT_OK/GD32VW55X_Wifi_BLE_SDK/GD32VW55x_RELEASE_V1.0.2/MSDK/wpa_supplicant/src/tls\tlsv1_client.c **** 		wpa_printf(MSG_DEBUG, "TLSv1: Using session ticket");
 2513              		.loc 1 755 33
 2514 009a 93E74700 		ori	a5,a5,4
 2515 009e 230CF416 		sb	a5,376(s0)
 756:C:/Users/stapi/OneDrive/Desktop/GD32VW553/V1_MQTT_OK/GD32VW55X_Wifi_BLE_SDK/GD32VW55x_RELEASE_V1.0.2/MSDK/wpa_supplicant/src/tls\tlsv1_client.c **** 	}
 2516              		.loc 1 756 3 is_stmt 1
 2517 00a2 0945     		li	a0,2
 2518 00a4 97000000 		call	wpa_printf
 2518      E7800000 
 2519              	.LVL268:
 2520 00ac 59B7     		j	.L191
 2521              		.cfi_endproc
 2522              	.LFE103:
 2524              		.section	.text.tlsv1_client_get_random,"ax",@progbits
 2525              		.align	1
 2526              		.globl	tlsv1_client_get_random
 2528              	tlsv1_client_get_random:
 2529              	.LFB104:
 761:C:/Users/stapi/OneDrive/Desktop/GD32VW553/V1_MQTT_OK/GD32VW55X_Wifi_BLE_SDK/GD32VW55x_RELEASE_V1.0.2/MSDK/wpa_supplicant/src/tls\tlsv1_client.c **** 
 762:C:/Users/stapi/OneDrive/Desktop/GD32VW553/V1_MQTT_OK/GD32VW55X_Wifi_BLE_SDK/GD32VW55x_RELEASE_V1.0.2/MSDK/wpa_supplicant/src/tls\tlsv1_client.c **** 
 763:C:/Users/stapi/OneDrive/Desktop/GD32VW553/V1_MQTT_OK/GD32VW55X_Wifi_BLE_SDK/GD32VW55x_RELEASE_V1.0.2/MSDK/wpa_supplicant/src/tls\tlsv1_client.c **** /**
 764:C:/Users/stapi/OneDrive/Desktop/GD32VW553/V1_MQTT_OK/GD32VW55X_Wifi_BLE_SDK/GD32VW55x_RELEASE_V1.0.2/MSDK/wpa_supplicant/src/tls\tlsv1_client.c ****  * tlsv1_client_get_random - Get random data from TLS connection
 765:C:/Users/stapi/OneDrive/Desktop/GD32VW553/V1_MQTT_OK/GD32VW55X_Wifi_BLE_SDK/GD32VW55x_RELEASE_V1.0.2/MSDK/wpa_supplicant/src/tls\tlsv1_client.c ****  * @conn: TLSv1 client connection data from tlsv1_client_init()
 766:C:/Users/stapi/OneDrive/Desktop/GD32VW553/V1_MQTT_OK/GD32VW55X_Wifi_BLE_SDK/GD32VW55x_RELEASE_V1.0.2/MSDK/wpa_supplicant/src/tls\tlsv1_client.c ****  * @keys: Structure of random data (filled on success)
 767:C:/Users/stapi/OneDrive/Desktop/GD32VW553/V1_MQTT_OK/GD32VW55X_Wifi_BLE_SDK/GD32VW55x_RELEASE_V1.0.2/MSDK/wpa_supplicant/src/tls\tlsv1_client.c ****  * Returns: 0 on success, -1 on failure
 768:C:/Users/stapi/OneDrive/Desktop/GD32VW553/V1_MQTT_OK/GD32VW55X_Wifi_BLE_SDK/GD32VW55x_RELEASE_V1.0.2/MSDK/wpa_supplicant/src/tls\tlsv1_client.c ****  */
 769:C:/Users/stapi/OneDrive/Desktop/GD32VW553/V1_MQTT_OK/GD32VW55X_Wifi_BLE_SDK/GD32VW55x_RELEASE_V1.0.2/MSDK/wpa_supplicant/src/tls\tlsv1_client.c **** int tlsv1_client_get_random(struct tlsv1_client *conn, struct tls_random *keys)
 770:C:/Users/stapi/OneDrive/Desktop/GD32VW553/V1_MQTT_OK/GD32VW55X_Wifi_BLE_SDK/GD32VW55x_RELEASE_V1.0.2/MSDK/wpa_supplicant/src/tls\tlsv1_client.c **** {
 2530              		.loc 1 770 1
 2531              		.cfi_startproc
 2532              	.LVL269:
 2533 0000 17030000 		call	t0,__riscv_save_2
 2533      E7020300 
 2534              		.cfi_offset 9, -12
 2535              		.cfi_offset 8, -8
 2536              		.cfi_offset 1, -4
 2537              		.cfi_def_cfa_offset 16
 771:C:/Users/stapi/OneDrive/Desktop/GD32VW553/V1_MQTT_OK/GD32VW55X_Wifi_BLE_SDK/GD32VW55x_RELEASE_V1.0.2/MSDK/wpa_supplicant/src/tls\tlsv1_client.c **** 	os_memset(keys, 0, sizeof(*keys));
 2538              		.loc 1 771 2
 770:C:/Users/stapi/OneDrive/Desktop/GD32VW553/V1_MQTT_OK/GD32VW55X_Wifi_BLE_SDK/GD32VW55x_RELEASE_V1.0.2/MSDK/wpa_supplicant/src/tls\tlsv1_client.c **** 	os_memset(keys, 0, sizeof(*keys));
 2539              		.loc 1 770 1 is_stmt 0
 2540 0008 2E84     		mv	s0,a1
 2541 000a AA84     		mv	s1,a0
 2542              		.loc 1 771 2
 2543 000c 4146     		li	a2,16
 2544 000e 8145     		li	a1,0
 2545              	.LVL270:
 2546 0010 2285     		mv	a0,s0
 2547              	.LVL271:
 2548 0012 97000000 		call	os_memset
 2548      E7800000 
 2549              	.LVL272:
 772:C:/Users/stapi/OneDrive/Desktop/GD32VW553/V1_MQTT_OK/GD32VW55X_Wifi_BLE_SDK/GD32VW55x_RELEASE_V1.0.2/MSDK/wpa_supplicant/src/tls\tlsv1_client.c **** 	if (conn->state == CLIENT_HELLO)
 2550              		.loc 1 772 2 is_stmt 1
 2551              		.loc 1 772 10 is_stmt 0
 2552 001a 9840     		lw	a4,0(s1)
 773:C:/Users/stapi/OneDrive/Desktop/GD32VW553/V1_MQTT_OK/GD32VW55X_Wifi_BLE_SDK/GD32VW55x_RELEASE_V1.0.2/MSDK/wpa_supplicant/src/tls\tlsv1_client.c **** 		return -1;
 2553              		.loc 1 773 10
 2554 001c 7D55     		li	a0,-1
 772:C:/Users/stapi/OneDrive/Desktop/GD32VW553/V1_MQTT_OK/GD32VW55X_Wifi_BLE_SDK/GD32VW55x_RELEASE_V1.0.2/MSDK/wpa_supplicant/src/tls\tlsv1_client.c **** 	if (conn->state == CLIENT_HELLO)
 2555              		.loc 1 772 5
 2556 001e 19CF     		beq	a4,zero,.L192
 774:C:/Users/stapi/OneDrive/Desktop/GD32VW553/V1_MQTT_OK/GD32VW55X_Wifi_BLE_SDK/GD32VW55x_RELEASE_V1.0.2/MSDK/wpa_supplicant/src/tls\tlsv1_client.c **** 
 775:C:/Users/stapi/OneDrive/Desktop/GD32VW553/V1_MQTT_OK/GD32VW55X_Wifi_BLE_SDK/GD32VW55x_RELEASE_V1.0.2/MSDK/wpa_supplicant/src/tls\tlsv1_client.c **** 	keys->client_random = conn->client_random;
 2557              		.loc 1 775 2 is_stmt 1
 2558              		.loc 1 775 24 is_stmt 0
 2559 0020 93870410 		addi	a5,s1,256
 2560              		.loc 1 775 22
 2561 0024 1CC0     		sw	a5,0(s0)
 776:C:/Users/stapi/OneDrive/Desktop/GD32VW553/V1_MQTT_OK/GD32VW55X_Wifi_BLE_SDK/GD32VW55x_RELEASE_V1.0.2/MSDK/wpa_supplicant/src/tls\tlsv1_client.c **** 	keys->client_random_len = TLS_RANDOM_LEN;
 2562              		.loc 1 776 2 is_stmt 1
 2563              		.loc 1 776 26 is_stmt 0
 2564 0026 93070002 		li	a5,32
 2565 002a 5CC0     		sw	a5,4(s0)
 777:C:/Users/stapi/OneDrive/Desktop/GD32VW553/V1_MQTT_OK/GD32VW55X_Wifi_BLE_SDK/GD32VW55x_RELEASE_V1.0.2/MSDK/wpa_supplicant/src/tls\tlsv1_client.c **** 
 778:C:/Users/stapi/OneDrive/Desktop/GD32VW553/V1_MQTT_OK/GD32VW55X_Wifi_BLE_SDK/GD32VW55x_RELEASE_V1.0.2/MSDK/wpa_supplicant/src/tls\tlsv1_client.c **** 	if (conn->state != SERVER_HELLO) {
 2566              		.loc 1 778 2 is_stmt 1
 2567              		.loc 1 778 5 is_stmt 0
 2568 002c 8546     		li	a3,1
 779:C:/Users/stapi/OneDrive/Desktop/GD32VW553/V1_MQTT_OK/GD32VW55X_Wifi_BLE_SDK/GD32VW55x_RELEASE_V1.0.2/MSDK/wpa_supplicant/src/tls\tlsv1_client.c **** 		keys->server_random = conn->server_random;
 780:C:/Users/stapi/OneDrive/Desktop/GD32VW553/V1_MQTT_OK/GD32VW55X_Wifi_BLE_SDK/GD32VW55x_RELEASE_V1.0.2/MSDK/wpa_supplicant/src/tls\tlsv1_client.c **** 		keys->server_random_len = TLS_RANDOM_LEN;
 781:C:/Users/stapi/OneDrive/Desktop/GD32VW553/V1_MQTT_OK/GD32VW55X_Wifi_BLE_SDK/GD32VW55x_RELEASE_V1.0.2/MSDK/wpa_supplicant/src/tls\tlsv1_client.c **** 	}
 782:C:/Users/stapi/OneDrive/Desktop/GD32VW553/V1_MQTT_OK/GD32VW55X_Wifi_BLE_SDK/GD32VW55x_RELEASE_V1.0.2/MSDK/wpa_supplicant/src/tls\tlsv1_client.c **** 
 783:C:/Users/stapi/OneDrive/Desktop/GD32VW553/V1_MQTT_OK/GD32VW55X_Wifi_BLE_SDK/GD32VW55x_RELEASE_V1.0.2/MSDK/wpa_supplicant/src/tls\tlsv1_client.c **** 	return 0;
 2569              		.loc 1 783 9
 2570 002e 0145     		li	a0,0
 778:C:/Users/stapi/OneDrive/Desktop/GD32VW553/V1_MQTT_OK/GD32VW55X_Wifi_BLE_SDK/GD32VW55x_RELEASE_V1.0.2/MSDK/wpa_supplicant/src/tls\tlsv1_client.c **** 		keys->server_random = conn->server_random;
 2571              		.loc 1 778 5
 2572 0030 6306D700 		beq	a4,a3,.L192
 779:C:/Users/stapi/OneDrive/Desktop/GD32VW553/V1_MQTT_OK/GD32VW55X_Wifi_BLE_SDK/GD32VW55x_RELEASE_V1.0.2/MSDK/wpa_supplicant/src/tls\tlsv1_client.c **** 		keys->server_random = conn->server_random;
 2573              		.loc 1 779 3 is_stmt 1
 779:C:/Users/stapi/OneDrive/Desktop/GD32VW553/V1_MQTT_OK/GD32VW55X_Wifi_BLE_SDK/GD32VW55x_RELEASE_V1.0.2/MSDK/wpa_supplicant/src/tls\tlsv1_client.c **** 		keys->server_random = conn->server_random;
 2574              		.loc 1 779 25 is_stmt 0
 2575 0034 93840412 		addi	s1,s1,288
 2576              	.LVL273:
 779:C:/Users/stapi/OneDrive/Desktop/GD32VW553/V1_MQTT_OK/GD32VW55X_Wifi_BLE_SDK/GD32VW55x_RELEASE_V1.0.2/MSDK/wpa_supplicant/src/tls\tlsv1_client.c **** 		keys->server_random = conn->server_random;
 2577              		.loc 1 779 23
 2578 0038 04C4     		sw	s1,8(s0)
 780:C:/Users/stapi/OneDrive/Desktop/GD32VW553/V1_MQTT_OK/GD32VW55X_Wifi_BLE_SDK/GD32VW55x_RELEASE_V1.0.2/MSDK/wpa_supplicant/src/tls\tlsv1_client.c **** 	}
 2579              		.loc 1 780 3 is_stmt 1
 780:C:/Users/stapi/OneDrive/Desktop/GD32VW553/V1_MQTT_OK/GD32VW55X_Wifi_BLE_SDK/GD32VW55x_RELEASE_V1.0.2/MSDK/wpa_supplicant/src/tls\tlsv1_client.c **** 	}
 2580              		.loc 1 780 27 is_stmt 0
 2581 003a 5CC4     		sw	a5,12(s0)
 2582              	.LVL274:
 2583              	.L192:
 784:C:/Users/stapi/OneDrive/Desktop/GD32VW553/V1_MQTT_OK/GD32VW55X_Wifi_BLE_SDK/GD32VW55x_RELEASE_V1.0.2/MSDK/wpa_supplicant/src/tls\tlsv1_client.c **** }
 2584              		.loc 1 784 1
 2585 003c 17030000 		tail	__riscv_restore_2
 2585      67000300 
 2586              		.cfi_restore 9
 2587              		.cfi_restore 8
 2588              		.cfi_restore 1
 2589              		.cfi_def_cfa_offset 0
 2590              		.cfi_endproc
 2591              	.LFE104:
 2593              		.section	.text.tlsv1_client_get_keyblock_size,"ax",@progbits
 2594              		.align	1
 2595              		.globl	tlsv1_client_get_keyblock_size
 2597              	tlsv1_client_get_keyblock_size:
 2598              	.LFB105:
 785:C:/Users/stapi/OneDrive/Desktop/GD32VW553/V1_MQTT_OK/GD32VW55X_Wifi_BLE_SDK/GD32VW55x_RELEASE_V1.0.2/MSDK/wpa_supplicant/src/tls\tlsv1_client.c **** 
 786:C:/Users/stapi/OneDrive/Desktop/GD32VW553/V1_MQTT_OK/GD32VW55X_Wifi_BLE_SDK/GD32VW55x_RELEASE_V1.0.2/MSDK/wpa_supplicant/src/tls\tlsv1_client.c **** 
 787:C:/Users/stapi/OneDrive/Desktop/GD32VW553/V1_MQTT_OK/GD32VW55X_Wifi_BLE_SDK/GD32VW55x_RELEASE_V1.0.2/MSDK/wpa_supplicant/src/tls\tlsv1_client.c **** /**
 788:C:/Users/stapi/OneDrive/Desktop/GD32VW553/V1_MQTT_OK/GD32VW55X_Wifi_BLE_SDK/GD32VW55x_RELEASE_V1.0.2/MSDK/wpa_supplicant/src/tls\tlsv1_client.c ****  * tlsv1_client_get_keyblock_size - Get TLS key_block size
 789:C:/Users/stapi/OneDrive/Desktop/GD32VW553/V1_MQTT_OK/GD32VW55X_Wifi_BLE_SDK/GD32VW55x_RELEASE_V1.0.2/MSDK/wpa_supplicant/src/tls\tlsv1_client.c ****  * @conn: TLSv1 client connection data from tlsv1_client_init()
 790:C:/Users/stapi/OneDrive/Desktop/GD32VW553/V1_MQTT_OK/GD32VW55X_Wifi_BLE_SDK/GD32VW55x_RELEASE_V1.0.2/MSDK/wpa_supplicant/src/tls\tlsv1_client.c ****  * Returns: Size of the key_block for the negotiated cipher suite or -1 on
 791:C:/Users/stapi/OneDrive/Desktop/GD32VW553/V1_MQTT_OK/GD32VW55X_Wifi_BLE_SDK/GD32VW55x_RELEASE_V1.0.2/MSDK/wpa_supplicant/src/tls\tlsv1_client.c ****  * failure
 792:C:/Users/stapi/OneDrive/Desktop/GD32VW553/V1_MQTT_OK/GD32VW55X_Wifi_BLE_SDK/GD32VW55x_RELEASE_V1.0.2/MSDK/wpa_supplicant/src/tls\tlsv1_client.c ****  */
 793:C:/Users/stapi/OneDrive/Desktop/GD32VW553/V1_MQTT_OK/GD32VW55X_Wifi_BLE_SDK/GD32VW55x_RELEASE_V1.0.2/MSDK/wpa_supplicant/src/tls\tlsv1_client.c **** int tlsv1_client_get_keyblock_size(struct tlsv1_client *conn)
 794:C:/Users/stapi/OneDrive/Desktop/GD32VW553/V1_MQTT_OK/GD32VW55X_Wifi_BLE_SDK/GD32VW55x_RELEASE_V1.0.2/MSDK/wpa_supplicant/src/tls\tlsv1_client.c **** {
 2599              		.loc 1 794 1 is_stmt 1
 2600              		.cfi_startproc
 2601              	.LVL275:
 795:C:/Users/stapi/OneDrive/Desktop/GD32VW553/V1_MQTT_OK/GD32VW55X_Wifi_BLE_SDK/GD32VW55x_RELEASE_V1.0.2/MSDK/wpa_supplicant/src/tls\tlsv1_client.c **** 	if (conn->state == CLIENT_HELLO || conn->state == SERVER_HELLO)
 2602              		.loc 1 795 2
 2603              		.loc 1 795 5 is_stmt 0
 2604 0000 1841     		lw	a4,0(a0)
 2605 0002 8547     		li	a5,1
 2606 0004 63FCE700 		bleu	a4,a5,.L199
 796:C:/Users/stapi/OneDrive/Desktop/GD32VW553/V1_MQTT_OK/GD32VW55X_Wifi_BLE_SDK/GD32VW55x_RELEASE_V1.0.2/MSDK/wpa_supplicant/src/tls\tlsv1_client.c **** 		return -1;
 797:C:/Users/stapi/OneDrive/Desktop/GD32VW553/V1_MQTT_OK/GD32VW55X_Wifi_BLE_SDK/GD32VW55x_RELEASE_V1.0.2/MSDK/wpa_supplicant/src/tls\tlsv1_client.c **** 
 798:C:/Users/stapi/OneDrive/Desktop/GD32VW553/V1_MQTT_OK/GD32VW55X_Wifi_BLE_SDK/GD32VW55x_RELEASE_V1.0.2/MSDK/wpa_supplicant/src/tls\tlsv1_client.c **** 	return 2 * (conn->rl.hash_size + conn->rl.key_material_len +
 2607              		.loc 1 798 2 is_stmt 1
 2608              		.loc 1 798 33 is_stmt 0
 2609 0008 8327850A 		lw	a5,168(a0)
 2610 000c 0327C50A 		lw	a4,172(a0)
 2611              		.loc 1 798 61
 2612 0010 0325050B 		lw	a0,176(a0)
 2613              	.LVL276:
 2614              		.loc 1 798 33
 2615 0014 BA97     		add	a5,a5,a4
 2616              		.loc 1 798 61
 2617 0016 3E95     		add	a0,a5,a0
 2618              		.loc 1 798 11
 2619 0018 0605     		slli	a0,a0,1
 2620 001a 8280     		ret
 2621              	.LVL277:
 2622              	.L199:
 796:C:/Users/stapi/OneDrive/Desktop/GD32VW553/V1_MQTT_OK/GD32VW55X_Wifi_BLE_SDK/GD32VW55x_RELEASE_V1.0.2/MSDK/wpa_supplicant/src/tls\tlsv1_client.c **** 		return -1;
 2623              		.loc 1 796 10
 2624 001c 7D55     		li	a0,-1
 2625              	.LVL278:
 799:C:/Users/stapi/OneDrive/Desktop/GD32VW553/V1_MQTT_OK/GD32VW55X_Wifi_BLE_SDK/GD32VW55x_RELEASE_V1.0.2/MSDK/wpa_supplicant/src/tls\tlsv1_client.c **** 		    conn->rl.iv_size);
 800:C:/Users/stapi/OneDrive/Desktop/GD32VW553/V1_MQTT_OK/GD32VW55X_Wifi_BLE_SDK/GD32VW55x_RELEASE_V1.0.2/MSDK/wpa_supplicant/src/tls\tlsv1_client.c **** }
 2626              		.loc 1 800 1
 2627 001e 8280     		ret
 2628              		.cfi_endproc
 2629              	.LFE105:
 2631              		.section	.text.tlsv1_client_set_cipher_list,"ax",@progbits
 2632              		.align	1
 2633              		.globl	tlsv1_client_set_cipher_list
 2635              	tlsv1_client_set_cipher_list:
 2636              	.LFB106:
 801:C:/Users/stapi/OneDrive/Desktop/GD32VW553/V1_MQTT_OK/GD32VW55X_Wifi_BLE_SDK/GD32VW55x_RELEASE_V1.0.2/MSDK/wpa_supplicant/src/tls\tlsv1_client.c **** 
 802:C:/Users/stapi/OneDrive/Desktop/GD32VW553/V1_MQTT_OK/GD32VW55X_Wifi_BLE_SDK/GD32VW55x_RELEASE_V1.0.2/MSDK/wpa_supplicant/src/tls\tlsv1_client.c **** 
 803:C:/Users/stapi/OneDrive/Desktop/GD32VW553/V1_MQTT_OK/GD32VW55X_Wifi_BLE_SDK/GD32VW55x_RELEASE_V1.0.2/MSDK/wpa_supplicant/src/tls\tlsv1_client.c **** /**
 804:C:/Users/stapi/OneDrive/Desktop/GD32VW553/V1_MQTT_OK/GD32VW55X_Wifi_BLE_SDK/GD32VW55x_RELEASE_V1.0.2/MSDK/wpa_supplicant/src/tls\tlsv1_client.c ****  * tlsv1_client_set_cipher_list - Configure acceptable cipher suites
 805:C:/Users/stapi/OneDrive/Desktop/GD32VW553/V1_MQTT_OK/GD32VW55X_Wifi_BLE_SDK/GD32VW55x_RELEASE_V1.0.2/MSDK/wpa_supplicant/src/tls\tlsv1_client.c ****  * @conn: TLSv1 client connection data from tlsv1_client_init()
 806:C:/Users/stapi/OneDrive/Desktop/GD32VW553/V1_MQTT_OK/GD32VW55X_Wifi_BLE_SDK/GD32VW55x_RELEASE_V1.0.2/MSDK/wpa_supplicant/src/tls\tlsv1_client.c ****  * @ciphers: Zero (TLS_CIPHER_NONE) terminated list of allowed ciphers
 807:C:/Users/stapi/OneDrive/Desktop/GD32VW553/V1_MQTT_OK/GD32VW55X_Wifi_BLE_SDK/GD32VW55x_RELEASE_V1.0.2/MSDK/wpa_supplicant/src/tls\tlsv1_client.c ****  * (TLS_CIPHER_*).
 808:C:/Users/stapi/OneDrive/Desktop/GD32VW553/V1_MQTT_OK/GD32VW55X_Wifi_BLE_SDK/GD32VW55x_RELEASE_V1.0.2/MSDK/wpa_supplicant/src/tls\tlsv1_client.c ****  * Returns: 0 on success, -1 on failure
 809:C:/Users/stapi/OneDrive/Desktop/GD32VW553/V1_MQTT_OK/GD32VW55X_Wifi_BLE_SDK/GD32VW55x_RELEASE_V1.0.2/MSDK/wpa_supplicant/src/tls\tlsv1_client.c ****  */
 810:C:/Users/stapi/OneDrive/Desktop/GD32VW553/V1_MQTT_OK/GD32VW55X_Wifi_BLE_SDK/GD32VW55x_RELEASE_V1.0.2/MSDK/wpa_supplicant/src/tls\tlsv1_client.c **** int tlsv1_client_set_cipher_list(struct tlsv1_client *conn, u8 *ciphers)
 811:C:/Users/stapi/OneDrive/Desktop/GD32VW553/V1_MQTT_OK/GD32VW55X_Wifi_BLE_SDK/GD32VW55x_RELEASE_V1.0.2/MSDK/wpa_supplicant/src/tls\tlsv1_client.c **** {
 2637              		.loc 1 811 1 is_stmt 1
 2638              		.cfi_startproc
 2639              	.LVL279:
 812:C:/Users/stapi/OneDrive/Desktop/GD32VW553/V1_MQTT_OK/GD32VW55X_Wifi_BLE_SDK/GD32VW55x_RELEASE_V1.0.2/MSDK/wpa_supplicant/src/tls\tlsv1_client.c **** 	size_t count;
 2640              		.loc 1 812 2
 813:C:/Users/stapi/OneDrive/Desktop/GD32VW553/V1_MQTT_OK/GD32VW55X_Wifi_BLE_SDK/GD32VW55x_RELEASE_V1.0.2/MSDK/wpa_supplicant/src/tls\tlsv1_client.c **** 	u16 *suites;
 2641              		.loc 1 813 2
 814:C:/Users/stapi/OneDrive/Desktop/GD32VW553/V1_MQTT_OK/GD32VW55X_Wifi_BLE_SDK/GD32VW55x_RELEASE_V1.0.2/MSDK/wpa_supplicant/src/tls\tlsv1_client.c **** 
 815:C:/Users/stapi/OneDrive/Desktop/GD32VW553/V1_MQTT_OK/GD32VW55X_Wifi_BLE_SDK/GD32VW55x_RELEASE_V1.0.2/MSDK/wpa_supplicant/src/tls\tlsv1_client.c **** 	/* TODO: implement proper configuration of cipher suites */
 816:C:/Users/stapi/OneDrive/Desktop/GD32VW553/V1_MQTT_OK/GD32VW55X_Wifi_BLE_SDK/GD32VW55x_RELEASE_V1.0.2/MSDK/wpa_supplicant/src/tls\tlsv1_client.c **** 	if (ciphers[0] == TLS_CIPHER_ANON_DH_AES128_SHA) {
 2642              		.loc 1 816 2
 2643              		.loc 1 816 5 is_stmt 0
 2644 0000 03C70500 		lbu	a4,0(a1)
 2645 0004 9147     		li	a5,4
 2646 0006 6310F704 		bne	a4,a5,.L201
 817:C:/Users/stapi/OneDrive/Desktop/GD32VW553/V1_MQTT_OK/GD32VW55X_Wifi_BLE_SDK/GD32VW55x_RELEASE_V1.0.2/MSDK/wpa_supplicant/src/tls\tlsv1_client.c **** 		count = 0;
 2647              		.loc 1 817 3 is_stmt 1
 2648              	.LVL280:
 818:C:/Users/stapi/OneDrive/Desktop/GD32VW553/V1_MQTT_OK/GD32VW55X_Wifi_BLE_SDK/GD32VW55x_RELEASE_V1.0.2/MSDK/wpa_supplicant/src/tls\tlsv1_client.c **** 		suites = conn->cipher_suites;
 2649              		.loc 1 818 3
 819:C:/Users/stapi/OneDrive/Desktop/GD32VW553/V1_MQTT_OK/GD32VW55X_Wifi_BLE_SDK/GD32VW55x_RELEASE_V1.0.2/MSDK/wpa_supplicant/src/tls\tlsv1_client.c **** 		suites[count++] = TLS_DH_anon_WITH_AES_256_CBC_SHA256;
 2650              		.loc 1 819 3
 2651              		.loc 1 819 19 is_stmt 0
 2652 000a 9307D006 		li	a5,109
 2653 000e 2312F51A 		sh	a5,420(a0)
 820:C:/Users/stapi/OneDrive/Desktop/GD32VW553/V1_MQTT_OK/GD32VW55X_Wifi_BLE_SDK/GD32VW55x_RELEASE_V1.0.2/MSDK/wpa_supplicant/src/tls\tlsv1_client.c **** 		suites[count++] = TLS_DH_anon_WITH_AES_256_CBC_SHA;
 2654              		.loc 1 820 3 is_stmt 1
 2655              	.LVL281:
 2656              		.loc 1 820 19 is_stmt 0
 2657 0012 9307A003 		li	a5,58
 821:C:/Users/stapi/OneDrive/Desktop/GD32VW553/V1_MQTT_OK/GD32VW55X_Wifi_BLE_SDK/GD32VW55x_RELEASE_V1.0.2/MSDK/wpa_supplicant/src/tls\tlsv1_client.c **** 		suites[count++] = TLS_DH_anon_WITH_AES_128_CBC_SHA256;
 822:C:/Users/stapi/OneDrive/Desktop/GD32VW553/V1_MQTT_OK/GD32VW55X_Wifi_BLE_SDK/GD32VW55x_RELEASE_V1.0.2/MSDK/wpa_supplicant/src/tls\tlsv1_client.c **** 		suites[count++] = TLS_DH_anon_WITH_AES_128_CBC_SHA;
 823:C:/Users/stapi/OneDrive/Desktop/GD32VW553/V1_MQTT_OK/GD32VW55X_Wifi_BLE_SDK/GD32VW55x_RELEASE_V1.0.2/MSDK/wpa_supplicant/src/tls\tlsv1_client.c **** 		suites[count++] = TLS_DH_anon_WITH_3DES_EDE_CBC_SHA;
 2658              		.loc 1 823 19
 2659 0016 6D47     		li	a4,27
 820:C:/Users/stapi/OneDrive/Desktop/GD32VW553/V1_MQTT_OK/GD32VW55X_Wifi_BLE_SDK/GD32VW55x_RELEASE_V1.0.2/MSDK/wpa_supplicant/src/tls\tlsv1_client.c **** 		suites[count++] = TLS_DH_anon_WITH_AES_256_CBC_SHA;
 2660              		.loc 1 820 19
 2661 0018 2313F51A 		sh	a5,422(a0)
 821:C:/Users/stapi/OneDrive/Desktop/GD32VW553/V1_MQTT_OK/GD32VW55X_Wifi_BLE_SDK/GD32VW55x_RELEASE_V1.0.2/MSDK/wpa_supplicant/src/tls\tlsv1_client.c **** 		suites[count++] = TLS_DH_anon_WITH_AES_128_CBC_SHA256;
 2662              		.loc 1 821 3 is_stmt 1
 2663              	.LVL282:
 821:C:/Users/stapi/OneDrive/Desktop/GD32VW553/V1_MQTT_OK/GD32VW55X_Wifi_BLE_SDK/GD32VW55x_RELEASE_V1.0.2/MSDK/wpa_supplicant/src/tls\tlsv1_client.c **** 		suites[count++] = TLS_DH_anon_WITH_AES_128_CBC_SHA256;
 2664              		.loc 1 821 19 is_stmt 0
 2665 001c 9307C006 		li	a5,108
 2666 0020 2314F51A 		sh	a5,424(a0)
 822:C:/Users/stapi/OneDrive/Desktop/GD32VW553/V1_MQTT_OK/GD32VW55X_Wifi_BLE_SDK/GD32VW55x_RELEASE_V1.0.2/MSDK/wpa_supplicant/src/tls\tlsv1_client.c **** 		suites[count++] = TLS_DH_anon_WITH_3DES_EDE_CBC_SHA;
 2667              		.loc 1 822 3 is_stmt 1
 2668              	.LVL283:
 2669              		.loc 1 823 19 is_stmt 0
 2670 0024 2316E51A 		sh	a4,428(a0)
 822:C:/Users/stapi/OneDrive/Desktop/GD32VW553/V1_MQTT_OK/GD32VW55X_Wifi_BLE_SDK/GD32VW55x_RELEASE_V1.0.2/MSDK/wpa_supplicant/src/tls\tlsv1_client.c **** 		suites[count++] = TLS_DH_anon_WITH_3DES_EDE_CBC_SHA;
 2671              		.loc 1 822 19
 2672 0028 93074003 		li	a5,52
 824:C:/Users/stapi/OneDrive/Desktop/GD32VW553/V1_MQTT_OK/GD32VW55X_Wifi_BLE_SDK/GD32VW55x_RELEASE_V1.0.2/MSDK/wpa_supplicant/src/tls\tlsv1_client.c **** 		suites[count++] = TLS_DH_anon_WITH_RC4_128_MD5;
 2673              		.loc 1 824 19
 2674 002c 6147     		li	a4,24
 822:C:/Users/stapi/OneDrive/Desktop/GD32VW553/V1_MQTT_OK/GD32VW55X_Wifi_BLE_SDK/GD32VW55x_RELEASE_V1.0.2/MSDK/wpa_supplicant/src/tls\tlsv1_client.c **** 		suites[count++] = TLS_DH_anon_WITH_3DES_EDE_CBC_SHA;
 2675              		.loc 1 822 19
 2676 002e 2315F51A 		sh	a5,426(a0)
 823:C:/Users/stapi/OneDrive/Desktop/GD32VW553/V1_MQTT_OK/GD32VW55X_Wifi_BLE_SDK/GD32VW55x_RELEASE_V1.0.2/MSDK/wpa_supplicant/src/tls\tlsv1_client.c **** 		suites[count++] = TLS_DH_anon_WITH_RC4_128_MD5;
 2677              		.loc 1 823 3 is_stmt 1
 2678              	.LVL284:
 2679              		.loc 1 824 3
 2680              		.loc 1 824 19 is_stmt 0
 2681 0032 2317E51A 		sh	a4,430(a0)
 825:C:/Users/stapi/OneDrive/Desktop/GD32VW553/V1_MQTT_OK/GD32VW55X_Wifi_BLE_SDK/GD32VW55x_RELEASE_V1.0.2/MSDK/wpa_supplicant/src/tls\tlsv1_client.c **** 		suites[count++] = TLS_DH_anon_WITH_DES_CBC_SHA;
 2682              		.loc 1 825 3 is_stmt 1
 2683              	.LVL285:
 826:C:/Users/stapi/OneDrive/Desktop/GD32VW553/V1_MQTT_OK/GD32VW55X_Wifi_BLE_SDK/GD32VW55x_RELEASE_V1.0.2/MSDK/wpa_supplicant/src/tls\tlsv1_client.c **** 
 827:C:/Users/stapi/OneDrive/Desktop/GD32VW553/V1_MQTT_OK/GD32VW55X_Wifi_BLE_SDK/GD32VW55x_RELEASE_V1.0.2/MSDK/wpa_supplicant/src/tls\tlsv1_client.c **** 		/*
 828:C:/Users/stapi/OneDrive/Desktop/GD32VW553/V1_MQTT_OK/GD32VW55X_Wifi_BLE_SDK/GD32VW55x_RELEASE_V1.0.2/MSDK/wpa_supplicant/src/tls\tlsv1_client.c **** 		 * Cisco AP (at least 350 and 1200 series) local authentication
 829:C:/Users/stapi/OneDrive/Desktop/GD32VW553/V1_MQTT_OK/GD32VW55X_Wifi_BLE_SDK/GD32VW55x_RELEASE_V1.0.2/MSDK/wpa_supplicant/src/tls\tlsv1_client.c **** 		 * server does not know how to search cipher suites from the
 830:C:/Users/stapi/OneDrive/Desktop/GD32VW553/V1_MQTT_OK/GD32VW55X_Wifi_BLE_SDK/GD32VW55x_RELEASE_V1.0.2/MSDK/wpa_supplicant/src/tls\tlsv1_client.c **** 		 * list and seem to require that the last entry in the list is
 831:C:/Users/stapi/OneDrive/Desktop/GD32VW553/V1_MQTT_OK/GD32VW55X_Wifi_BLE_SDK/GD32VW55x_RELEASE_V1.0.2/MSDK/wpa_supplicant/src/tls\tlsv1_client.c **** 		 * the one that it wants to use. However, TLS specification
 832:C:/Users/stapi/OneDrive/Desktop/GD32VW553/V1_MQTT_OK/GD32VW55X_Wifi_BLE_SDK/GD32VW55x_RELEASE_V1.0.2/MSDK/wpa_supplicant/src/tls\tlsv1_client.c **** 		 * requires the list to be in the client preference order. As a
 833:C:/Users/stapi/OneDrive/Desktop/GD32VW553/V1_MQTT_OK/GD32VW55X_Wifi_BLE_SDK/GD32VW55x_RELEASE_V1.0.2/MSDK/wpa_supplicant/src/tls\tlsv1_client.c **** 		 * workaround, add anon-DH AES-128-SHA1 again at the end of the
 834:C:/Users/stapi/OneDrive/Desktop/GD32VW553/V1_MQTT_OK/GD32VW55X_Wifi_BLE_SDK/GD32VW55x_RELEASE_V1.0.2/MSDK/wpa_supplicant/src/tls\tlsv1_client.c **** 		 * list to allow the Cisco code to find it.
 835:C:/Users/stapi/OneDrive/Desktop/GD32VW553/V1_MQTT_OK/GD32VW55X_Wifi_BLE_SDK/GD32VW55x_RELEASE_V1.0.2/MSDK/wpa_supplicant/src/tls\tlsv1_client.c **** 		 */
 836:C:/Users/stapi/OneDrive/Desktop/GD32VW553/V1_MQTT_OK/GD32VW55X_Wifi_BLE_SDK/GD32VW55x_RELEASE_V1.0.2/MSDK/wpa_supplicant/src/tls\tlsv1_client.c **** 		suites[count++] = TLS_DH_anon_WITH_AES_128_CBC_SHA;
 2684              		.loc 1 836 19 is_stmt 0
 2685 0036 2319F51A 		sh	a5,434(a0)
 825:C:/Users/stapi/OneDrive/Desktop/GD32VW553/V1_MQTT_OK/GD32VW55X_Wifi_BLE_SDK/GD32VW55x_RELEASE_V1.0.2/MSDK/wpa_supplicant/src/tls\tlsv1_client.c **** 		suites[count++] = TLS_DH_anon_WITH_DES_CBC_SHA;
 2686              		.loc 1 825 19
 2687 003a 6947     		li	a4,26
 837:C:/Users/stapi/OneDrive/Desktop/GD32VW553/V1_MQTT_OK/GD32VW55X_Wifi_BLE_SDK/GD32VW55x_RELEASE_V1.0.2/MSDK/wpa_supplicant/src/tls\tlsv1_client.c **** 		conn->num_cipher_suites = count;
 2688              		.loc 1 837 27
 2689 003c A147     		li	a5,8
 825:C:/Users/stapi/OneDrive/Desktop/GD32VW553/V1_MQTT_OK/GD32VW55X_Wifi_BLE_SDK/GD32VW55x_RELEASE_V1.0.2/MSDK/wpa_supplicant/src/tls\tlsv1_client.c **** 		suites[count++] = TLS_DH_anon_WITH_DES_CBC_SHA;
 2690              		.loc 1 825 19
 2691 003e 2318E51A 		sh	a4,432(a0)
 836:C:/Users/stapi/OneDrive/Desktop/GD32VW553/V1_MQTT_OK/GD32VW55X_Wifi_BLE_SDK/GD32VW55x_RELEASE_V1.0.2/MSDK/wpa_supplicant/src/tls\tlsv1_client.c **** 		conn->num_cipher_suites = count;
 2692              		.loc 1 836 3 is_stmt 1
 2693              	.LVL286:
 2694              		.loc 1 837 3
 2695              		.loc 1 837 27 is_stmt 0
 2696 0042 2320F51E 		sw	a5,480(a0)
 2697              	.LVL287:
 2698              	.L201:
 838:C:/Users/stapi/OneDrive/Desktop/GD32VW553/V1_MQTT_OK/GD32VW55X_Wifi_BLE_SDK/GD32VW55x_RELEASE_V1.0.2/MSDK/wpa_supplicant/src/tls\tlsv1_client.c **** 	}
 839:C:/Users/stapi/OneDrive/Desktop/GD32VW553/V1_MQTT_OK/GD32VW55X_Wifi_BLE_SDK/GD32VW55x_RELEASE_V1.0.2/MSDK/wpa_supplicant/src/tls\tlsv1_client.c **** 
 840:C:/Users/stapi/OneDrive/Desktop/GD32VW553/V1_MQTT_OK/GD32VW55X_Wifi_BLE_SDK/GD32VW55x_RELEASE_V1.0.2/MSDK/wpa_supplicant/src/tls\tlsv1_client.c **** 	return 0;
 2699              		.loc 1 840 2 is_stmt 1
 841:C:/Users/stapi/OneDrive/Desktop/GD32VW553/V1_MQTT_OK/GD32VW55X_Wifi_BLE_SDK/GD32VW55x_RELEASE_V1.0.2/MSDK/wpa_supplicant/src/tls\tlsv1_client.c **** }
 2700              		.loc 1 841 1 is_stmt 0
 2701 0046 0145     		li	a0,0
 2702              	.LVL288:
 2703 0048 8280     		ret
 2704              		.cfi_endproc
 2705              	.LFE106:
 2707              		.section	.text.tlsv1_client_set_cred,"ax",@progbits
 2708              		.align	1
 2709              		.globl	tlsv1_client_set_cred
 2711              	tlsv1_client_set_cred:
 2712              	.LFB107:
 842:C:/Users/stapi/OneDrive/Desktop/GD32VW553/V1_MQTT_OK/GD32VW55X_Wifi_BLE_SDK/GD32VW55x_RELEASE_V1.0.2/MSDK/wpa_supplicant/src/tls\tlsv1_client.c **** 
 843:C:/Users/stapi/OneDrive/Desktop/GD32VW553/V1_MQTT_OK/GD32VW55X_Wifi_BLE_SDK/GD32VW55x_RELEASE_V1.0.2/MSDK/wpa_supplicant/src/tls\tlsv1_client.c **** 
 844:C:/Users/stapi/OneDrive/Desktop/GD32VW553/V1_MQTT_OK/GD32VW55X_Wifi_BLE_SDK/GD32VW55x_RELEASE_V1.0.2/MSDK/wpa_supplicant/src/tls\tlsv1_client.c **** /**
 845:C:/Users/stapi/OneDrive/Desktop/GD32VW553/V1_MQTT_OK/GD32VW55X_Wifi_BLE_SDK/GD32VW55x_RELEASE_V1.0.2/MSDK/wpa_supplicant/src/tls\tlsv1_client.c ****  * tlsv1_client_set_cred - Set client credentials
 846:C:/Users/stapi/OneDrive/Desktop/GD32VW553/V1_MQTT_OK/GD32VW55X_Wifi_BLE_SDK/GD32VW55x_RELEASE_V1.0.2/MSDK/wpa_supplicant/src/tls\tlsv1_client.c ****  * @conn: TLSv1 client connection data from tlsv1_client_init()
 847:C:/Users/stapi/OneDrive/Desktop/GD32VW553/V1_MQTT_OK/GD32VW55X_Wifi_BLE_SDK/GD32VW55x_RELEASE_V1.0.2/MSDK/wpa_supplicant/src/tls\tlsv1_client.c ****  * @cred: Credentials from tlsv1_cred_alloc()
 848:C:/Users/stapi/OneDrive/Desktop/GD32VW553/V1_MQTT_OK/GD32VW55X_Wifi_BLE_SDK/GD32VW55x_RELEASE_V1.0.2/MSDK/wpa_supplicant/src/tls\tlsv1_client.c ****  * Returns: 0 on success, -1 on failure
 849:C:/Users/stapi/OneDrive/Desktop/GD32VW553/V1_MQTT_OK/GD32VW55X_Wifi_BLE_SDK/GD32VW55x_RELEASE_V1.0.2/MSDK/wpa_supplicant/src/tls\tlsv1_client.c ****  *
 850:C:/Users/stapi/OneDrive/Desktop/GD32VW553/V1_MQTT_OK/GD32VW55X_Wifi_BLE_SDK/GD32VW55x_RELEASE_V1.0.2/MSDK/wpa_supplicant/src/tls\tlsv1_client.c ****  * On success, the client takes ownership of the credentials block and caller
 851:C:/Users/stapi/OneDrive/Desktop/GD32VW553/V1_MQTT_OK/GD32VW55X_Wifi_BLE_SDK/GD32VW55x_RELEASE_V1.0.2/MSDK/wpa_supplicant/src/tls\tlsv1_client.c ****  * must not free it. On failure, caller is responsible for freeing the
 852:C:/Users/stapi/OneDrive/Desktop/GD32VW553/V1_MQTT_OK/GD32VW55X_Wifi_BLE_SDK/GD32VW55x_RELEASE_V1.0.2/MSDK/wpa_supplicant/src/tls\tlsv1_client.c ****  * credential block.
 853:C:/Users/stapi/OneDrive/Desktop/GD32VW553/V1_MQTT_OK/GD32VW55X_Wifi_BLE_SDK/GD32VW55x_RELEASE_V1.0.2/MSDK/wpa_supplicant/src/tls\tlsv1_client.c ****  */
 854:C:/Users/stapi/OneDrive/Desktop/GD32VW553/V1_MQTT_OK/GD32VW55X_Wifi_BLE_SDK/GD32VW55x_RELEASE_V1.0.2/MSDK/wpa_supplicant/src/tls\tlsv1_client.c **** int tlsv1_client_set_cred(struct tlsv1_client *conn,
 855:C:/Users/stapi/OneDrive/Desktop/GD32VW553/V1_MQTT_OK/GD32VW55X_Wifi_BLE_SDK/GD32VW55x_RELEASE_V1.0.2/MSDK/wpa_supplicant/src/tls\tlsv1_client.c **** 			  struct tlsv1_credentials *cred)
 856:C:/Users/stapi/OneDrive/Desktop/GD32VW553/V1_MQTT_OK/GD32VW55X_Wifi_BLE_SDK/GD32VW55x_RELEASE_V1.0.2/MSDK/wpa_supplicant/src/tls\tlsv1_client.c **** {
 2713              		.loc 1 856 1 is_stmt 1
 2714              		.cfi_startproc
 2715              	.LVL289:
 2716 0000 17030000 		call	t0,__riscv_save_2
 2716      E7020300 
 2717              		.cfi_offset 9, -12
 2718              		.cfi_offset 8, -8
 2719              		.cfi_offset 1, -4
 2720              		.cfi_def_cfa_offset 16
 857:C:/Users/stapi/OneDrive/Desktop/GD32VW553/V1_MQTT_OK/GD32VW55X_Wifi_BLE_SDK/GD32VW55x_RELEASE_V1.0.2/MSDK/wpa_supplicant/src/tls\tlsv1_client.c **** 	tlsv1_cred_free(conn->cred);
 2721              		.loc 1 857 2
 856:C:/Users/stapi/OneDrive/Desktop/GD32VW553/V1_MQTT_OK/GD32VW55X_Wifi_BLE_SDK/GD32VW55x_RELEASE_V1.0.2/MSDK/wpa_supplicant/src/tls\tlsv1_client.c **** 	tlsv1_cred_free(conn->cred);
 2722              		.loc 1 856 1 is_stmt 0
 2723 0008 2A84     		mv	s0,a0
 2724              		.loc 1 857 2
 2725 000a 03258520 		lw	a0,520(a0)
 2726              	.LVL290:
 856:C:/Users/stapi/OneDrive/Desktop/GD32VW553/V1_MQTT_OK/GD32VW55X_Wifi_BLE_SDK/GD32VW55x_RELEASE_V1.0.2/MSDK/wpa_supplicant/src/tls\tlsv1_client.c **** 	tlsv1_cred_free(conn->cred);
 2727              		.loc 1 856 1
 2728 000e AE84     		mv	s1,a1
 2729              		.loc 1 857 2
 2730 0010 97000000 		call	tlsv1_cred_free
 2730      E7800000 
 2731              	.LVL291:
 858:C:/Users/stapi/OneDrive/Desktop/GD32VW553/V1_MQTT_OK/GD32VW55X_Wifi_BLE_SDK/GD32VW55x_RELEASE_V1.0.2/MSDK/wpa_supplicant/src/tls\tlsv1_client.c **** 	conn->cred = cred;
 2732              		.loc 1 858 2 is_stmt 1
 859:C:/Users/stapi/OneDrive/Desktop/GD32VW553/V1_MQTT_OK/GD32VW55X_Wifi_BLE_SDK/GD32VW55x_RELEASE_V1.0.2/MSDK/wpa_supplicant/src/tls\tlsv1_client.c **** 	return 0;
 860:C:/Users/stapi/OneDrive/Desktop/GD32VW553/V1_MQTT_OK/GD32VW55X_Wifi_BLE_SDK/GD32VW55x_RELEASE_V1.0.2/MSDK/wpa_supplicant/src/tls\tlsv1_client.c **** }
 2733              		.loc 1 860 1 is_stmt 0
 2734 0018 0145     		li	a0,0
 858:C:/Users/stapi/OneDrive/Desktop/GD32VW553/V1_MQTT_OK/GD32VW55X_Wifi_BLE_SDK/GD32VW55x_RELEASE_V1.0.2/MSDK/wpa_supplicant/src/tls\tlsv1_client.c **** 	conn->cred = cred;
 2735              		.loc 1 858 13
 2736 001a 23249420 		sw	s1,520(s0)
 859:C:/Users/stapi/OneDrive/Desktop/GD32VW553/V1_MQTT_OK/GD32VW55X_Wifi_BLE_SDK/GD32VW55x_RELEASE_V1.0.2/MSDK/wpa_supplicant/src/tls\tlsv1_client.c **** 	return 0;
 2737              		.loc 1 859 2 is_stmt 1
 2738              		.loc 1 860 1 is_stmt 0
 2739 001e 17030000 		tail	__riscv_restore_2
 2739      67000300 
 2740              		.cfi_restore 9
 2741              		.cfi_restore 8
 2742              		.cfi_restore 1
 2743              		.cfi_def_cfa_offset 0
 2744              		.cfi_endproc
 2745              	.LFE107:
 2747              		.section	.text.tlsv1_client_set_flags,"ax",@progbits
 2748              		.align	1
 2749              		.globl	tlsv1_client_set_flags
 2751              	tlsv1_client_set_flags:
 2752              	.LFB108:
 861:C:/Users/stapi/OneDrive/Desktop/GD32VW553/V1_MQTT_OK/GD32VW55X_Wifi_BLE_SDK/GD32VW55x_RELEASE_V1.0.2/MSDK/wpa_supplicant/src/tls\tlsv1_client.c **** 
 862:C:/Users/stapi/OneDrive/Desktop/GD32VW553/V1_MQTT_OK/GD32VW55X_Wifi_BLE_SDK/GD32VW55x_RELEASE_V1.0.2/MSDK/wpa_supplicant/src/tls\tlsv1_client.c **** 
 863:C:/Users/stapi/OneDrive/Desktop/GD32VW553/V1_MQTT_OK/GD32VW55X_Wifi_BLE_SDK/GD32VW55x_RELEASE_V1.0.2/MSDK/wpa_supplicant/src/tls\tlsv1_client.c **** /**
 864:C:/Users/stapi/OneDrive/Desktop/GD32VW553/V1_MQTT_OK/GD32VW55X_Wifi_BLE_SDK/GD32VW55x_RELEASE_V1.0.2/MSDK/wpa_supplicant/src/tls\tlsv1_client.c ****  * tlsv1_client_set_flags - Set connection flags
 865:C:/Users/stapi/OneDrive/Desktop/GD32VW553/V1_MQTT_OK/GD32VW55X_Wifi_BLE_SDK/GD32VW55x_RELEASE_V1.0.2/MSDK/wpa_supplicant/src/tls\tlsv1_client.c ****  * @conn: TLSv1 client connection data from tlsv1_client_init()
 866:C:/Users/stapi/OneDrive/Desktop/GD32VW553/V1_MQTT_OK/GD32VW55X_Wifi_BLE_SDK/GD32VW55x_RELEASE_V1.0.2/MSDK/wpa_supplicant/src/tls\tlsv1_client.c ****  * @flags: TLS_CONN_* bitfield
 867:C:/Users/stapi/OneDrive/Desktop/GD32VW553/V1_MQTT_OK/GD32VW55X_Wifi_BLE_SDK/GD32VW55x_RELEASE_V1.0.2/MSDK/wpa_supplicant/src/tls\tlsv1_client.c ****  */
 868:C:/Users/stapi/OneDrive/Desktop/GD32VW553/V1_MQTT_OK/GD32VW55X_Wifi_BLE_SDK/GD32VW55x_RELEASE_V1.0.2/MSDK/wpa_supplicant/src/tls\tlsv1_client.c **** void tlsv1_client_set_flags(struct tlsv1_client *conn, unsigned int flags)
 869:C:/Users/stapi/OneDrive/Desktop/GD32VW553/V1_MQTT_OK/GD32VW55X_Wifi_BLE_SDK/GD32VW55x_RELEASE_V1.0.2/MSDK/wpa_supplicant/src/tls\tlsv1_client.c **** {
 2753              		.loc 1 869 1 is_stmt 1
 2754              		.cfi_startproc
 2755              	.LVL292:
 2756 0000 17030000 		call	t0,__riscv_save_1
 2756      E7020300 
 2757              		.cfi_offset 8, -8
 2758              		.cfi_offset 1, -4
 2759              		.cfi_def_cfa_offset 16
 870:C:/Users/stapi/OneDrive/Desktop/GD32VW553/V1_MQTT_OK/GD32VW55X_Wifi_BLE_SDK/GD32VW55x_RELEASE_V1.0.2/MSDK/wpa_supplicant/src/tls\tlsv1_client.c **** 	conn->flags = flags;
 2760              		.loc 1 870 2
 2761              		.loc 1 870 14 is_stmt 0
 2762 0008 232AB516 		sw	a1,372(a0)
 871:C:/Users/stapi/OneDrive/Desktop/GD32VW553/V1_MQTT_OK/GD32VW55X_Wifi_BLE_SDK/GD32VW55x_RELEASE_V1.0.2/MSDK/wpa_supplicant/src/tls\tlsv1_client.c **** 	conn->rl.tls_version = tls_client_highest_ver(conn);
 2763              		.loc 1 871 2 is_stmt 1
 869:C:/Users/stapi/OneDrive/Desktop/GD32VW553/V1_MQTT_OK/GD32VW55X_Wifi_BLE_SDK/GD32VW55x_RELEASE_V1.0.2/MSDK/wpa_supplicant/src/tls\tlsv1_client.c **** 	conn->flags = flags;
 2764              		.loc 1 869 1 is_stmt 0
 2765 000c 2A84     		mv	s0,a0
 2766              		.loc 1 871 25
 2767 000e 97000000 		call	tls_client_highest_ver
 2767      E7800000 
 2768              	.LVL293:
 2769              		.loc 1 871 23
 2770 0016 2312A400 		sh	a0,4(s0)
 872:C:/Users/stapi/OneDrive/Desktop/GD32VW553/V1_MQTT_OK/GD32VW55X_Wifi_BLE_SDK/GD32VW55x_RELEASE_V1.0.2/MSDK/wpa_supplicant/src/tls\tlsv1_client.c **** }
 2771              		.loc 1 872 1
 2772 001a 17030000 		tail	__riscv_restore_1
 2772      67000300 
 2773              		.cfi_restore 8
 2774              		.cfi_restore 1
 2775              		.cfi_def_cfa_offset 0
 2776              		.cfi_endproc
 2777              	.LFE108:
 2779              		.section	.rodata.tlsv1_client_set_session_ticket_cb.str1.4,"aMS",@progbits,1
 2780              		.align	2
 2781              	.LC40:
 2782 0000 544C5376 		.string	"TLSv1: SessionTicket callback set %p (ctx %p)"
 2782      313A2053 
 2782      65737369 
 2782      6F6E5469 
 2782      636B6574 
 2783              		.section	.text.tlsv1_client_set_session_ticket_cb,"ax",@progbits
 2784              		.align	1
 2785              		.globl	tlsv1_client_set_session_ticket_cb
 2787              	tlsv1_client_set_session_ticket_cb:
 2788              	.LFB109:
 873:C:/Users/stapi/OneDrive/Desktop/GD32VW553/V1_MQTT_OK/GD32VW55X_Wifi_BLE_SDK/GD32VW55x_RELEASE_V1.0.2/MSDK/wpa_supplicant/src/tls\tlsv1_client.c **** 
 874:C:/Users/stapi/OneDrive/Desktop/GD32VW553/V1_MQTT_OK/GD32VW55X_Wifi_BLE_SDK/GD32VW55x_RELEASE_V1.0.2/MSDK/wpa_supplicant/src/tls\tlsv1_client.c **** 
 875:C:/Users/stapi/OneDrive/Desktop/GD32VW553/V1_MQTT_OK/GD32VW55X_Wifi_BLE_SDK/GD32VW55x_RELEASE_V1.0.2/MSDK/wpa_supplicant/src/tls\tlsv1_client.c **** void tlsv1_client_set_session_ticket_cb(struct tlsv1_client *conn,
 876:C:/Users/stapi/OneDrive/Desktop/GD32VW553/V1_MQTT_OK/GD32VW55X_Wifi_BLE_SDK/GD32VW55x_RELEASE_V1.0.2/MSDK/wpa_supplicant/src/tls\tlsv1_client.c **** 					tlsv1_client_session_ticket_cb cb,
 877:C:/Users/stapi/OneDrive/Desktop/GD32VW553/V1_MQTT_OK/GD32VW55X_Wifi_BLE_SDK/GD32VW55x_RELEASE_V1.0.2/MSDK/wpa_supplicant/src/tls\tlsv1_client.c **** 					void *ctx)
 878:C:/Users/stapi/OneDrive/Desktop/GD32VW553/V1_MQTT_OK/GD32VW55X_Wifi_BLE_SDK/GD32VW55x_RELEASE_V1.0.2/MSDK/wpa_supplicant/src/tls\tlsv1_client.c **** {
 2789              		.loc 1 878 1 is_stmt 1
 2790              		.cfi_startproc
 2791              	.LVL294:
 2792 0000 17030000 		call	t0,__riscv_save_3
 2792      E7020300 
 2793              		.cfi_offset 18, -16
 2794              		.cfi_offset 9, -12
 2795              		.cfi_offset 8, -8
 2796              		.cfi_offset 1, -4
 2797              		.cfi_def_cfa_offset 16
 879:C:/Users/stapi/OneDrive/Desktop/GD32VW553/V1_MQTT_OK/GD32VW55X_Wifi_BLE_SDK/GD32VW55x_RELEASE_V1.0.2/MSDK/wpa_supplicant/src/tls\tlsv1_client.c **** 	wpa_printf(MSG_DEBUG, "TLSv1: SessionTicket callback set %p (ctx %p)",
 2798              		.loc 1 879 2
 878:C:/Users/stapi/OneDrive/Desktop/GD32VW553/V1_MQTT_OK/GD32VW55X_Wifi_BLE_SDK/GD32VW55x_RELEASE_V1.0.2/MSDK/wpa_supplicant/src/tls\tlsv1_client.c **** 	wpa_printf(MSG_DEBUG, "TLSv1: SessionTicket callback set %p (ctx %p)",
 2799              		.loc 1 878 1 is_stmt 0
 2800 0008 2E89     		mv	s2,a1
 2801 000a B284     		mv	s1,a2
 2802              		.loc 1 879 2
 2803 000c B286     		mv	a3,a2
 2804 000e 2E86     		mv	a2,a1
 2805              	.LVL295:
 2806 0010 B7050000 		lui	a1,%hi(.LC40)
 2807              	.LVL296:
 878:C:/Users/stapi/OneDrive/Desktop/GD32VW553/V1_MQTT_OK/GD32VW55X_Wifi_BLE_SDK/GD32VW55x_RELEASE_V1.0.2/MSDK/wpa_supplicant/src/tls\tlsv1_client.c **** 	wpa_printf(MSG_DEBUG, "TLSv1: SessionTicket callback set %p (ctx %p)",
 2808              		.loc 1 878 1
 2809 0014 2A84     		mv	s0,a0
 2810              		.loc 1 879 2
 2811 0016 93850500 		addi	a1,a1,%lo(.LC40)
 2812 001a 0945     		li	a0,2
 2813              	.LVL297:
 2814 001c 97000000 		call	wpa_printf
 2814      E7800000 
 2815              	.LVL298:
 880:C:/Users/stapi/OneDrive/Desktop/GD32VW553/V1_MQTT_OK/GD32VW55X_Wifi_BLE_SDK/GD32VW55x_RELEASE_V1.0.2/MSDK/wpa_supplicant/src/tls\tlsv1_client.c **** 		   cb, ctx);
 881:C:/Users/stapi/OneDrive/Desktop/GD32VW553/V1_MQTT_OK/GD32VW55X_Wifi_BLE_SDK/GD32VW55x_RELEASE_V1.0.2/MSDK/wpa_supplicant/src/tls\tlsv1_client.c **** 	conn->session_ticket_cb = cb;
 2816              		.loc 1 881 2 is_stmt 1
 2817              		.loc 1 881 26 is_stmt 0
 2818 0024 23262421 		sw	s2,524(s0)
 882:C:/Users/stapi/OneDrive/Desktop/GD32VW553/V1_MQTT_OK/GD32VW55X_Wifi_BLE_SDK/GD32VW55x_RELEASE_V1.0.2/MSDK/wpa_supplicant/src/tls\tlsv1_client.c **** 	conn->session_ticket_cb_ctx = ctx;
 2819              		.loc 1 882 2 is_stmt 1
 2820              		.loc 1 882 30 is_stmt 0
 2821 0028 23289420 		sw	s1,528(s0)
 883:C:/Users/stapi/OneDrive/Desktop/GD32VW553/V1_MQTT_OK/GD32VW55X_Wifi_BLE_SDK/GD32VW55x_RELEASE_V1.0.2/MSDK/wpa_supplicant/src/tls\tlsv1_client.c **** }
 2822              		.loc 1 883 1
 2823 002c 17030000 		tail	__riscv_restore_3
 2823      67000300 
 2824              		.cfi_restore 18
 2825              		.cfi_restore 9
 2826              		.cfi_restore 8
 2827              		.cfi_restore 1
 2828              		.cfi_def_cfa_offset 0
 2829              		.cfi_endproc
 2830              	.LFE109:
 2832              		.section	.text.tlsv1_client_set_cb,"ax",@progbits
 2833              		.align	1
 2834              		.globl	tlsv1_client_set_cb
 2836              	tlsv1_client_set_cb:
 2837              	.LFB110:
 884:C:/Users/stapi/OneDrive/Desktop/GD32VW553/V1_MQTT_OK/GD32VW55X_Wifi_BLE_SDK/GD32VW55x_RELEASE_V1.0.2/MSDK/wpa_supplicant/src/tls\tlsv1_client.c **** 
 885:C:/Users/stapi/OneDrive/Desktop/GD32VW553/V1_MQTT_OK/GD32VW55X_Wifi_BLE_SDK/GD32VW55x_RELEASE_V1.0.2/MSDK/wpa_supplicant/src/tls\tlsv1_client.c **** 
 886:C:/Users/stapi/OneDrive/Desktop/GD32VW553/V1_MQTT_OK/GD32VW55X_Wifi_BLE_SDK/GD32VW55x_RELEASE_V1.0.2/MSDK/wpa_supplicant/src/tls\tlsv1_client.c **** void tlsv1_client_set_cb(struct tlsv1_client *conn,
 887:C:/Users/stapi/OneDrive/Desktop/GD32VW553/V1_MQTT_OK/GD32VW55X_Wifi_BLE_SDK/GD32VW55x_RELEASE_V1.0.2/MSDK/wpa_supplicant/src/tls\tlsv1_client.c **** 			 void (*event_cb)(void *ctx, enum tls_event ev,
 888:C:/Users/stapi/OneDrive/Desktop/GD32VW553/V1_MQTT_OK/GD32VW55X_Wifi_BLE_SDK/GD32VW55x_RELEASE_V1.0.2/MSDK/wpa_supplicant/src/tls\tlsv1_client.c **** 					  union tls_event_data *data),
 889:C:/Users/stapi/OneDrive/Desktop/GD32VW553/V1_MQTT_OK/GD32VW55X_Wifi_BLE_SDK/GD32VW55x_RELEASE_V1.0.2/MSDK/wpa_supplicant/src/tls\tlsv1_client.c **** 			 void *cb_ctx,
 890:C:/Users/stapi/OneDrive/Desktop/GD32VW553/V1_MQTT_OK/GD32VW55X_Wifi_BLE_SDK/GD32VW55x_RELEASE_V1.0.2/MSDK/wpa_supplicant/src/tls\tlsv1_client.c **** 			 int cert_in_cb)
 891:C:/Users/stapi/OneDrive/Desktop/GD32VW553/V1_MQTT_OK/GD32VW55X_Wifi_BLE_SDK/GD32VW55x_RELEASE_V1.0.2/MSDK/wpa_supplicant/src/tls\tlsv1_client.c **** {
 2838              		.loc 1 891 1 is_stmt 1
 2839              		.cfi_startproc
 2840              	.LVL299:
 892:C:/Users/stapi/OneDrive/Desktop/GD32VW553/V1_MQTT_OK/GD32VW55X_Wifi_BLE_SDK/GD32VW55x_RELEASE_V1.0.2/MSDK/wpa_supplicant/src/tls\tlsv1_client.c **** 	conn->event_cb = event_cb;
 2841              		.loc 1 892 2
 893:C:/Users/stapi/OneDrive/Desktop/GD32VW553/V1_MQTT_OK/GD32VW55X_Wifi_BLE_SDK/GD32VW55x_RELEASE_V1.0.2/MSDK/wpa_supplicant/src/tls\tlsv1_client.c **** 	conn->cb_ctx = cb_ctx;
 894:C:/Users/stapi/OneDrive/Desktop/GD32VW553/V1_MQTT_OK/GD32VW55X_Wifi_BLE_SDK/GD32VW55x_RELEASE_V1.0.2/MSDK/wpa_supplicant/src/tls\tlsv1_client.c **** 	conn->cert_in_cb = !!cert_in_cb;
 2842              		.loc 1 894 19 is_stmt 0
 2843 0000 B336D000 		snez	a3,a3
 2844              	.LVL300:
 2845 0004 93974600 		slli	a5,a3,4
 2846 0008 83468517 		lbu	a3,376(a0)
 892:C:/Users/stapi/OneDrive/Desktop/GD32VW553/V1_MQTT_OK/GD32VW55X_Wifi_BLE_SDK/GD32VW55x_RELEASE_V1.0.2/MSDK/wpa_supplicant/src/tls\tlsv1_client.c **** 	conn->event_cb = event_cb;
 2847              		.loc 1 892 17
 2848 000c 232CB520 		sw	a1,536(a0)
 893:C:/Users/stapi/OneDrive/Desktop/GD32VW553/V1_MQTT_OK/GD32VW55X_Wifi_BLE_SDK/GD32VW55x_RELEASE_V1.0.2/MSDK/wpa_supplicant/src/tls\tlsv1_client.c **** 	conn->cb_ctx = cb_ctx;
 2849              		.loc 1 893 2 is_stmt 1
 893:C:/Users/stapi/OneDrive/Desktop/GD32VW553/V1_MQTT_OK/GD32VW55X_Wifi_BLE_SDK/GD32VW55x_RELEASE_V1.0.2/MSDK/wpa_supplicant/src/tls\tlsv1_client.c **** 	conn->cb_ctx = cb_ctx;
 2850              		.loc 1 893 15 is_stmt 0
 2851 0010 232EC520 		sw	a2,540(a0)
 2852              		.loc 1 894 2 is_stmt 1
 2853              		.loc 1 894 19 is_stmt 0
 2854 0014 BD9A     		andi	a3,a3,-17
 2855 0016 DD8E     		or	a3,a3,a5
 2856 0018 230CD516 		sb	a3,376(a0)
 895:C:/Users/stapi/OneDrive/Desktop/GD32VW553/V1_MQTT_OK/GD32VW55X_Wifi_BLE_SDK/GD32VW55x_RELEASE_V1.0.2/MSDK/wpa_supplicant/src/tls\tlsv1_client.c **** }
 2857              		.loc 1 895 1
 2858 001c 8280     		ret
 2859              		.cfi_endproc
 2860              	.LFE110:
 2862              		.section	.rodata.tlsv1_client_get_version.str1.4,"aMS",@progbits,1
 2863              		.align	2
 2864              	.LC41:
 2865 0000 544C5376 		.string	"TLSv1"
 2865      3100
 2866 0006 0000     		.align	2
 2867              	.LC42:
 2868 0008 544C5376 		.string	"TLSv1.1"
 2868      312E3100 
 2869              		.align	2
 2870              	.LC43:
 2871 0010 544C5376 		.string	"TLSv1.2"
 2871      312E3200 
 2872              		.section	.text.tlsv1_client_get_version,"ax",@progbits
 2873              		.align	1
 2874              		.globl	tlsv1_client_get_version
 2876              	tlsv1_client_get_version:
 2877              	.LFB111:
 896:C:/Users/stapi/OneDrive/Desktop/GD32VW553/V1_MQTT_OK/GD32VW55X_Wifi_BLE_SDK/GD32VW55x_RELEASE_V1.0.2/MSDK/wpa_supplicant/src/tls\tlsv1_client.c **** 
 897:C:/Users/stapi/OneDrive/Desktop/GD32VW553/V1_MQTT_OK/GD32VW55X_Wifi_BLE_SDK/GD32VW55x_RELEASE_V1.0.2/MSDK/wpa_supplicant/src/tls\tlsv1_client.c **** 
 898:C:/Users/stapi/OneDrive/Desktop/GD32VW553/V1_MQTT_OK/GD32VW55X_Wifi_BLE_SDK/GD32VW55x_RELEASE_V1.0.2/MSDK/wpa_supplicant/src/tls\tlsv1_client.c **** int tlsv1_client_get_version(struct tlsv1_client *conn, char *buf,
 899:C:/Users/stapi/OneDrive/Desktop/GD32VW553/V1_MQTT_OK/GD32VW55X_Wifi_BLE_SDK/GD32VW55x_RELEASE_V1.0.2/MSDK/wpa_supplicant/src/tls\tlsv1_client.c **** 			     size_t buflen)
 900:C:/Users/stapi/OneDrive/Desktop/GD32VW553/V1_MQTT_OK/GD32VW55X_Wifi_BLE_SDK/GD32VW55x_RELEASE_V1.0.2/MSDK/wpa_supplicant/src/tls\tlsv1_client.c **** {
 2878              		.loc 1 900 1 is_stmt 1
 2879              		.cfi_startproc
 2880              	.LVL301:
 901:C:/Users/stapi/OneDrive/Desktop/GD32VW553/V1_MQTT_OK/GD32VW55X_Wifi_BLE_SDK/GD32VW55x_RELEASE_V1.0.2/MSDK/wpa_supplicant/src/tls\tlsv1_client.c **** 	if (!conn)
 2881              		.loc 1 901 2
 900:C:/Users/stapi/OneDrive/Desktop/GD32VW553/V1_MQTT_OK/GD32VW55X_Wifi_BLE_SDK/GD32VW55x_RELEASE_V1.0.2/MSDK/wpa_supplicant/src/tls\tlsv1_client.c **** 	if (!conn)
 2882              		.loc 1 900 1 is_stmt 0
 2883 0000 AA87     		mv	a5,a0
 2884              		.loc 1 901 5
 2885 0002 29CD     		beq	a0,zero,.L213
 900:C:/Users/stapi/OneDrive/Desktop/GD32VW553/V1_MQTT_OK/GD32VW55X_Wifi_BLE_SDK/GD32VW55x_RELEASE_V1.0.2/MSDK/wpa_supplicant/src/tls\tlsv1_client.c **** 	if (!conn)
 2886              		.loc 1 900 1
 2887 0004 17030000 		call	t0,__riscv_save_0
 2887      E7020300 
 2888              		.cfi_offset 1, -4
 2889              		.cfi_def_cfa_offset 16
 902:C:/Users/stapi/OneDrive/Desktop/GD32VW553/V1_MQTT_OK/GD32VW55X_Wifi_BLE_SDK/GD32VW55x_RELEASE_V1.0.2/MSDK/wpa_supplicant/src/tls\tlsv1_client.c **** 		return -1;
 903:C:/Users/stapi/OneDrive/Desktop/GD32VW553/V1_MQTT_OK/GD32VW55X_Wifi_BLE_SDK/GD32VW55x_RELEASE_V1.0.2/MSDK/wpa_supplicant/src/tls\tlsv1_client.c **** 	switch (conn->rl.tls_version) {
 2890              		.loc 1 903 18
 2891 000c 03D74700 		lhu	a4,4(a5)
 2892              		.loc 1 903 2
 2893 0010 93072030 		li	a5,770
 2894 0014 2E85     		mv	a0,a1
 2895              	.LVL302:
 2896              		.loc 1 903 2 is_stmt 1
 2897 0016 6309F702 		beq	a4,a5,.L211
 2898 001a 93073030 		li	a5,771
 2899 001e 630AF702 		beq	a4,a5,.L212
 2900 0022 93061030 		li	a3,769
 2901 0026 FD57     		li	a5,-1
 2902 0028 631BD700 		bne	a4,a3,.L209
 904:C:/Users/stapi/OneDrive/Desktop/GD32VW553/V1_MQTT_OK/GD32VW55X_Wifi_BLE_SDK/GD32VW55x_RELEASE_V1.0.2/MSDK/wpa_supplicant/src/tls\tlsv1_client.c **** 	case TLS_VERSION_1:
 905:C:/Users/stapi/OneDrive/Desktop/GD32VW553/V1_MQTT_OK/GD32VW55X_Wifi_BLE_SDK/GD32VW55x_RELEASE_V1.0.2/MSDK/wpa_supplicant/src/tls\tlsv1_client.c **** 		os_strlcpy(buf, "TLSv1", buflen);
 2903              		.loc 1 905 3
 2904 002c B7050000 		lui	a1,%hi(.LC41)
 2905              	.LVL303:
 2906 0030 93850500 		addi	a1,a1,%lo(.LC41)
 2907              	.L219:
 906:C:/Users/stapi/OneDrive/Desktop/GD32VW553/V1_MQTT_OK/GD32VW55X_Wifi_BLE_SDK/GD32VW55x_RELEASE_V1.0.2/MSDK/wpa_supplicant/src/tls\tlsv1_client.c **** 		break;
 907:C:/Users/stapi/OneDrive/Desktop/GD32VW553/V1_MQTT_OK/GD32VW55X_Wifi_BLE_SDK/GD32VW55x_RELEASE_V1.0.2/MSDK/wpa_supplicant/src/tls\tlsv1_client.c **** 	case TLS_VERSION_1_1:
 908:C:/Users/stapi/OneDrive/Desktop/GD32VW553/V1_MQTT_OK/GD32VW55X_Wifi_BLE_SDK/GD32VW55x_RELEASE_V1.0.2/MSDK/wpa_supplicant/src/tls\tlsv1_client.c **** 		os_strlcpy(buf, "TLSv1.1", buflen);
 909:C:/Users/stapi/OneDrive/Desktop/GD32VW553/V1_MQTT_OK/GD32VW55X_Wifi_BLE_SDK/GD32VW55x_RELEASE_V1.0.2/MSDK/wpa_supplicant/src/tls\tlsv1_client.c **** 		break;
 910:C:/Users/stapi/OneDrive/Desktop/GD32VW553/V1_MQTT_OK/GD32VW55X_Wifi_BLE_SDK/GD32VW55x_RELEASE_V1.0.2/MSDK/wpa_supplicant/src/tls\tlsv1_client.c **** 	case TLS_VERSION_1_2:
 911:C:/Users/stapi/OneDrive/Desktop/GD32VW553/V1_MQTT_OK/GD32VW55X_Wifi_BLE_SDK/GD32VW55x_RELEASE_V1.0.2/MSDK/wpa_supplicant/src/tls\tlsv1_client.c **** 		os_strlcpy(buf, "TLSv1.2", buflen);
 2908              		.loc 1 911 3 is_stmt 0
 2909 0034 97000000 		call	os_strlcpy
 2909      E7800000 
 2910              	.LVL304:
 912:C:/Users/stapi/OneDrive/Desktop/GD32VW553/V1_MQTT_OK/GD32VW55X_Wifi_BLE_SDK/GD32VW55x_RELEASE_V1.0.2/MSDK/wpa_supplicant/src/tls\tlsv1_client.c **** 		break;
 2911              		.loc 1 912 3 is_stmt 1
 913:C:/Users/stapi/OneDrive/Desktop/GD32VW553/V1_MQTT_OK/GD32VW55X_Wifi_BLE_SDK/GD32VW55x_RELEASE_V1.0.2/MSDK/wpa_supplicant/src/tls\tlsv1_client.c **** 	default:
 914:C:/Users/stapi/OneDrive/Desktop/GD32VW553/V1_MQTT_OK/GD32VW55X_Wifi_BLE_SDK/GD32VW55x_RELEASE_V1.0.2/MSDK/wpa_supplicant/src/tls\tlsv1_client.c **** 		return -1;
 915:C:/Users/stapi/OneDrive/Desktop/GD32VW553/V1_MQTT_OK/GD32VW55X_Wifi_BLE_SDK/GD32VW55x_RELEASE_V1.0.2/MSDK/wpa_supplicant/src/tls\tlsv1_client.c **** 	}
 916:C:/Users/stapi/OneDrive/Desktop/GD32VW553/V1_MQTT_OK/GD32VW55X_Wifi_BLE_SDK/GD32VW55x_RELEASE_V1.0.2/MSDK/wpa_supplicant/src/tls\tlsv1_client.c **** 
 917:C:/Users/stapi/OneDrive/Desktop/GD32VW553/V1_MQTT_OK/GD32VW55X_Wifi_BLE_SDK/GD32VW55x_RELEASE_V1.0.2/MSDK/wpa_supplicant/src/tls\tlsv1_client.c **** 	return 0;
 2912              		.loc 1 917 9 is_stmt 0
 2913 003c 8147     		li	a5,0
 2914              	.L209:
 918:C:/Users/stapi/OneDrive/Desktop/GD32VW553/V1_MQTT_OK/GD32VW55X_Wifi_BLE_SDK/GD32VW55x_RELEASE_V1.0.2/MSDK/wpa_supplicant/src/tls\tlsv1_client.c **** }
 2915              		.loc 1 918 1
 2916 003e 3E85     		mv	a0,a5
 2917 0040 17030000 		tail	__riscv_restore_0
 2917      67000300 
 2918              		.cfi_remember_state
 2919              		.cfi_restore 1
 2920              		.cfi_def_cfa_offset 0
 2921              	.LVL305:
 2922              	.L211:
 2923              		.cfi_restore_state
 908:C:/Users/stapi/OneDrive/Desktop/GD32VW553/V1_MQTT_OK/GD32VW55X_Wifi_BLE_SDK/GD32VW55x_RELEASE_V1.0.2/MSDK/wpa_supplicant/src/tls\tlsv1_client.c **** 		break;
 2924              		.loc 1 908 3 is_stmt 1
 2925 0048 B7050000 		lui	a1,%hi(.LC42)
 2926 004c 93850500 		addi	a1,a1,%lo(.LC42)
 2927 0050 D5B7     		j	.L219
 2928              	.L212:
 911:C:/Users/stapi/OneDrive/Desktop/GD32VW553/V1_MQTT_OK/GD32VW55X_Wifi_BLE_SDK/GD32VW55x_RELEASE_V1.0.2/MSDK/wpa_supplicant/src/tls\tlsv1_client.c **** 		break;
 2929              		.loc 1 911 3
 2930 0052 B7050000 		lui	a1,%hi(.LC43)
 2931 0056 93850500 		addi	a1,a1,%lo(.LC43)
 2932 005a E9BF     		j	.L219
 2933              	.LVL306:
 2934              	.L213:
 2935              		.cfi_def_cfa_offset 0
 2936              		.cfi_restore 1
 902:C:/Users/stapi/OneDrive/Desktop/GD32VW553/V1_MQTT_OK/GD32VW55X_Wifi_BLE_SDK/GD32VW55x_RELEASE_V1.0.2/MSDK/wpa_supplicant/src/tls\tlsv1_client.c **** 	switch (conn->rl.tls_version) {
 2937              		.loc 1 902 10 is_stmt 0
 2938 005c FD57     		li	a5,-1
 2939              		.loc 1 918 1
 2940 005e 3E85     		mv	a0,a5
 2941              	.LVL307:
 2942 0060 8280     		ret
 2943              		.cfi_endproc
 2944              	.LFE111:
 2946              		.text
 2947              	.Letext0:
 2948              		.file 4 "c:\\users\\stapi\\onedrive\\desktop\\gd32vw553\\embeddedbuilder_v1.4.7.26843\\tools\\nucl
 2949              		.file 5 "c:\\users\\stapi\\onedrive\\desktop\\gd32vw553\\embeddedbuilder_v1.4.7.26843\\tools\\nucl
 2950              		.file 6 "c:\\users\\stapi\\onedrive\\desktop\\gd32vw553\\embeddedbuilder_v1.4.7.26843\\tools\\nucl
 2951              		.file 7 "..\\..\\..\\..\\wpa_supplicant\\src\\utils/os.h"
 2952              		.file 8 "..\\..\\..\\..\\wpa_supplicant\\src/crypto/tls.h"
 2953              		.file 9 "..\\..\\..\\..\\wpa_supplicant\\src\\utils/wpa_debug.h"
 2954              		.file 10 "C:/Users/stapi/OneDrive/Desktop/GD32VW553/V1_MQTT_OK/GD32VW55X_Wifi_BLE_SDK/GD32VW55x_RE
 2955              		.file 11 "C:/Users/stapi/OneDrive/Desktop/GD32VW553/V1_MQTT_OK/GD32VW55X_Wifi_BLE_SDK/GD32VW55x_RE
 2956              		.file 12 "..\\..\\..\\..\\wpa_supplicant\\src/crypto/crypto.h"
 2957              		.file 13 "C:/Users/stapi/OneDrive/Desktop/GD32VW553/V1_MQTT_OK/GD32VW55X_Wifi_BLE_SDK/GD32VW55x_RE
 2958              		.file 14 "C:/Users/stapi/OneDrive/Desktop/GD32VW553/V1_MQTT_OK/GD32VW55X_Wifi_BLE_SDK/GD32VW55x_RE
 2959              		.file 15 "C:/Users/stapi/OneDrive/Desktop/GD32VW553/V1_MQTT_OK/GD32VW55X_Wifi_BLE_SDK/GD32VW55x_RE
 2960              		.file 16 "C:/Users/stapi/OneDrive/Desktop/GD32VW553/V1_MQTT_OK/GD32VW55X_Wifi_BLE_SDK/GD32VW55x_RE
 2961              		.file 17 "C:/Users/stapi/OneDrive/Desktop/GD32VW553/V1_MQTT_OK/GD32VW55X_Wifi_BLE_SDK/GD32VW55x_RE
DEFINED SYMBOLS
                            *ABS*:0000000000000000 tlsv1_client.c
C:\Users\stapi\AppData\Local\Temp\cca24Nov.s:13     .text.tls_alert:0000000000000000 tls_alert
C:\Users\stapi\AppData\Local\Temp\cca24Nov.s:17     .text.tls_alert:0000000000000000 .L0 
C:\Users\stapi\AppData\Local\Temp\cca24Nov.s:19     .text.tls_alert:0000000000000000 .L0 
C:\Users\stapi\AppData\Local\Temp\cca24Nov.s:20     .text.tls_alert:0000000000000000 .L0 
C:\Users\stapi\AppData\Local\Temp\cca24Nov.s:21     .text.tls_alert:0000000000000000 .L0 
C:\Users\stapi\AppData\Local\Temp\cca24Nov.s:23     .text.tls_alert:0000000000000004 .L0 
C:\Users\stapi\AppData\Local\Temp\cca24Nov.s:24     .text.tls_alert:0000000000000004 .L0 
C:\Users\stapi\AppData\Local\Temp\cca24Nov.s:26     .text.tls_alert:0000000000000008 .L0 
C:\Users\stapi\AppData\Local\Temp\cca24Nov.s:27     .text.tls_alert:000000000000000a .L0 
C:\Users\stapi\AppData\Local\Temp\cca24Nov.s:34     .text.tlsv1_client_free_dh:0000000000000000 tlsv1_client_free_dh
C:\Users\stapi\AppData\Local\Temp\cca24Nov.s:37     .text.tlsv1_client_free_dh:0000000000000000 .L0 
C:\Users\stapi\AppData\Local\Temp\cca24Nov.s:39     .text.tlsv1_client_free_dh:0000000000000000 .L0 
C:\Users\stapi\AppData\Local\Temp\cca24Nov.s:40     .text.tlsv1_client_free_dh:0000000000000008 .L0 
C:\Users\stapi\AppData\Local\Temp\cca24Nov.s:41     .text.tlsv1_client_free_dh:0000000000000008 .L0 
C:\Users\stapi\AppData\Local\Temp\cca24Nov.s:42     .text.tlsv1_client_free_dh:0000000000000008 .L0 
C:\Users\stapi\AppData\Local\Temp\cca24Nov.s:44     .text.tlsv1_client_free_dh:0000000000000008 .L0 
C:\Users\stapi\AppData\Local\Temp\cca24Nov.s:45     .text.tlsv1_client_free_dh:0000000000000008 .L0 
C:\Users\stapi\AppData\Local\Temp\cca24Nov.s:47     .text.tlsv1_client_free_dh:000000000000000a .L0 
C:\Users\stapi\AppData\Local\Temp\cca24Nov.s:52     .text.tlsv1_client_free_dh:0000000000000016 .L0 
C:\Users\stapi\AppData\Local\Temp\cca24Nov.s:56     .text.tlsv1_client_free_dh:0000000000000022 .L0 
C:\Users\stapi\AppData\Local\Temp\cca24Nov.s:60     .text.tlsv1_client_free_dh:000000000000002e .L0 
C:\Users\stapi\AppData\Local\Temp\cca24Nov.s:61     .text.tlsv1_client_free_dh:000000000000002e .L0 
C:\Users\stapi\AppData\Local\Temp\cca24Nov.s:63     .text.tlsv1_client_free_dh:0000000000000032 .L0 
C:\Users\stapi\AppData\Local\Temp\cca24Nov.s:65     .text.tlsv1_client_free_dh:0000000000000036 .L0 
C:\Users\stapi\AppData\Local\Temp\cca24Nov.s:67     .text.tlsv1_client_free_dh:000000000000003a .L0 
C:\Users\stapi\AppData\Local\Temp\cca24Nov.s:68     .text.tlsv1_client_free_dh:0000000000000042 .L0 
C:\Users\stapi\AppData\Local\Temp\cca24Nov.s:69     .text.tlsv1_client_free_dh:0000000000000042 .L0 
C:\Users\stapi\AppData\Local\Temp\cca24Nov.s:70     .text.tlsv1_client_free_dh:0000000000000042 .L0 
C:\Users\stapi\AppData\Local\Temp\cca24Nov.s:71     .text.tlsv1_client_free_dh:0000000000000042 .L0 
C:\Users\stapi\AppData\Local\Temp\cca24Nov.s:78     .text.tls_client_highest_ver:0000000000000000 tls_client_highest_ver
C:\Users\stapi\AppData\Local\Temp\cca24Nov.s:81     .text.tls_client_highest_ver:0000000000000000 .L0 
C:\Users\stapi\AppData\Local\Temp\cca24Nov.s:83     .text.tls_client_highest_ver:0000000000000000 .L0 
C:\Users\stapi\AppData\Local\Temp\cca24Nov.s:84     .text.tls_client_highest_ver:0000000000000000 .L0 
C:\Users\stapi\AppData\Local\Temp\cca24Nov.s:85     .text.tls_client_highest_ver:0000000000000000 .L0 
C:\Users\stapi\AppData\Local\Temp\cca24Nov.s:86     .text.tls_client_highest_ver:0000000000000000 .L0 
C:\Users\stapi\AppData\Local\Temp\cca24Nov.s:89     .text.tls_client_highest_ver:0000000000000008 .L0 
C:\Users\stapi\AppData\Local\Temp\cca24Nov.s:91     .text.tls_client_highest_ver:000000000000000a .L0 
C:\Users\stapi\AppData\Local\Temp\cca24Nov.s:97     .text.tls_client_highest_ver:000000000000000e .L0 
C:\Users\stapi\AppData\Local\Temp\cca24Nov.s:100    .text.tls_client_highest_ver:0000000000000012 .L0 
C:\Users\stapi\AppData\Local\Temp\cca24Nov.s:101    .text.tls_client_highest_ver:0000000000000014 .L0 
C:\Users\stapi\AppData\Local\Temp\cca24Nov.s:108    .text.tls_derive_pre_master_secret:0000000000000000 tls_derive_pre_master_secret
C:\Users\stapi\AppData\Local\Temp\cca24Nov.s:111    .text.tls_derive_pre_master_secret:0000000000000000 .L0 
C:\Users\stapi\AppData\Local\Temp\cca24Nov.s:113    .text.tls_derive_pre_master_secret:0000000000000000 .L0 
C:\Users\stapi\AppData\Local\Temp\cca24Nov.s:114    .text.tls_derive_pre_master_secret:0000000000000008 .L0 
C:\Users\stapi\AppData\Local\Temp\cca24Nov.s:115    .text.tls_derive_pre_master_secret:0000000000000008 .L0 
C:\Users\stapi\AppData\Local\Temp\cca24Nov.s:116    .text.tls_derive_pre_master_secret:0000000000000008 .L0 
C:\Users\stapi\AppData\Local\Temp\cca24Nov.s:118    .text.tls_derive_pre_master_secret:0000000000000008 .L0 
C:\Users\stapi\AppData\Local\Temp\cca24Nov.s:119    .text.tls_derive_pre_master_secret:0000000000000008 .L0 
C:\Users\stapi\AppData\Local\Temp\cca24Nov.s:121    .text.tls_derive_pre_master_secret:000000000000000a .L0 
C:\Users\stapi\AppData\Local\Temp\cca24Nov.s:127    .text.tls_derive_pre_master_secret:0000000000000012 .L0 
C:\Users\stapi\AppData\Local\Temp\cca24Nov.s:128    .text.tls_derive_pre_master_secret:0000000000000012 .L0 
C:\Users\stapi\AppData\Local\Temp\cca24Nov.s:130    .text.tls_derive_pre_master_secret:0000000000000016 .L0 
C:\Users\stapi\AppData\Local\Temp\cca24Nov.s:132    .text.tls_derive_pre_master_secret:000000000000001a .L0 
C:\Users\stapi\AppData\Local\Temp\cca24Nov.s:137    .text.tls_derive_pre_master_secret:000000000000001e .L0 
C:\Users\stapi\AppData\Local\Temp\cca24Nov.s:138    .text.tls_derive_pre_master_secret:000000000000001e .L0 
C:\Users\stapi\AppData\Local\Temp\cca24Nov.s:139    .text.tls_derive_pre_master_secret:000000000000001e .L0 
C:\Users\stapi\AppData\Local\Temp\cca24Nov.s:144    .text.tls_derive_pre_master_secret:000000000000002e .L0 
C:\Users\stapi\AppData\Local\Temp\cca24Nov.s:146    .text.tls_derive_pre_master_secret:0000000000000032 .L0 
C:\Users\stapi\AppData\Local\Temp\cca24Nov.s:148    .text.tls_derive_pre_master_secret:000000000000003e .L0 
C:\Users\stapi\AppData\Local\Temp\cca24Nov.s:149    .text.tls_derive_pre_master_secret:000000000000003e .L0 
C:\Users\stapi\AppData\Local\Temp\cca24Nov.s:150    .text.tls_derive_pre_master_secret:000000000000003e .L0 
C:\Users\stapi\AppData\Local\Temp\cca24Nov.s:151    .text.tls_derive_pre_master_secret:000000000000003e .L0 
C:\Users\stapi\AppData\Local\Temp\cca24Nov.s:180    .text.tls_derive_keys:0000000000000000 tls_derive_keys
C:\Users\stapi\AppData\Local\Temp\cca24Nov.s:183    .text.tls_derive_keys:0000000000000000 .L0 
C:\Users\stapi\AppData\Local\Temp\cca24Nov.s:185    .text.tls_derive_keys:0000000000000000 .L0 
C:\Users\stapi\AppData\Local\Temp\cca24Nov.s:186    .text.tls_derive_keys:0000000000000008 .L0 
C:\Users\stapi\AppData\Local\Temp\cca24Nov.s:187    .text.tls_derive_keys:0000000000000008 .L0 
C:\Users\stapi\AppData\Local\Temp\cca24Nov.s:188    .text.tls_derive_keys:0000000000000008 .L0 
C:\Users\stapi\AppData\Local\Temp\cca24Nov.s:189    .text.tls_derive_keys:0000000000000008 .L0 
C:\Users\stapi\AppData\Local\Temp\cca24Nov.s:190    .text.tls_derive_keys:0000000000000008 .L0 
C:\Users\stapi\AppData\Local\Temp\cca24Nov.s:191    .text.tls_derive_keys:0000000000000008 .L0 
C:\Users\stapi\AppData\Local\Temp\cca24Nov.s:192    .text.tls_derive_keys:0000000000000008 .L0 
C:\Users\stapi\AppData\Local\Temp\cca24Nov.s:193    .text.tls_derive_keys:0000000000000008 .L0 
C:\Users\stapi\AppData\Local\Temp\cca24Nov.s:195    .text.tls_derive_keys:0000000000000008 .L0 
C:\Users\stapi\AppData\Local\Temp\cca24Nov.s:196    .text.tls_derive_keys:0000000000000008 .L0 
C:\Users\stapi\AppData\Local\Temp\cca24Nov.s:197    .text.tls_derive_keys:0000000000000008 .L0 
C:\Users\stapi\AppData\Local\Temp\cca24Nov.s:198    .text.tls_derive_keys:0000000000000008 .L0 
C:\Users\stapi\AppData\Local\Temp\cca24Nov.s:199    .text.tls_derive_keys:0000000000000008 .L0 
C:\Users\stapi\AppData\Local\Temp\cca24Nov.s:200    .text.tls_derive_keys:0000000000000008 .L0 
C:\Users\stapi\AppData\Local\Temp\cca24Nov.s:201    .text.tls_derive_keys:000000000000000a .L0 
C:\Users\stapi\AppData\Local\Temp\cca24Nov.s:203    .text.tls_derive_keys:000000000000000a .L0 
C:\Users\stapi\AppData\Local\Temp\cca24Nov.s:205    .text.tls_derive_keys:000000000000000c .L0 
C:\Users\stapi\AppData\Local\Temp\cca24Nov.s:207    .text.tls_derive_keys:0000000000000010 .L0 
C:\Users\stapi\AppData\Local\Temp\cca24Nov.s:209    .text.tls_derive_keys:0000000000000014 .L0 
C:\Users\stapi\AppData\Local\Temp\cca24Nov.s:211    .text.tls_derive_keys:0000000000000018 .L0 
C:\Users\stapi\AppData\Local\Temp\cca24Nov.s:213    .text.tls_derive_keys:000000000000001a .L0 
C:\Users\stapi\AppData\Local\Temp\cca24Nov.s:217    .text.tls_derive_keys:0000000000000020 .L0 
C:\Users\stapi\AppData\Local\Temp\cca24Nov.s:227    .text.tls_derive_keys:0000000000000034 .L0 
C:\Users\stapi\AppData\Local\Temp\cca24Nov.s:233    .text.tls_derive_keys:0000000000000044 .L0 
C:\Users\stapi\AppData\Local\Temp\cca24Nov.s:239    .text.tls_derive_keys:0000000000000054 .L0 
C:\Users\stapi\AppData\Local\Temp\cca24Nov.s:240    .text.tls_derive_keys:0000000000000054 .L0 
C:\Users\stapi\AppData\Local\Temp\cca24Nov.s:252    .text.tls_derive_keys:0000000000000078 .L0 
C:\Users\stapi\AppData\Local\Temp\cca24Nov.s:254    .text.tls_derive_keys:000000000000007a .L0 
C:\Users\stapi\AppData\Local\Temp\cca24Nov.s:259    .text.tls_derive_keys:0000000000000082 .L0 
C:\Users\stapi\AppData\Local\Temp\cca24Nov.s:263    .text.tls_derive_keys:000000000000008c .L0 
C:\Users\stapi\AppData\Local\Temp\cca24Nov.s:264    .text.tls_derive_keys:000000000000008c .L0 
C:\Users\stapi\AppData\Local\Temp\cca24Nov.s:267    .text.tls_derive_keys:000000000000008e .L0 
C:\Users\stapi\AppData\Local\Temp\cca24Nov.s:269    .text.tls_derive_keys:0000000000000092 .L0 
C:\Users\stapi\AppData\Local\Temp\cca24Nov.s:270    .text.tls_derive_keys:0000000000000092 .L0 
C:\Users\stapi\AppData\Local\Temp\cca24Nov.s:272    .text.tls_derive_keys:000000000000009a .L0 
C:\Users\stapi\AppData\Local\Temp\cca24Nov.s:273    .text.tls_derive_keys:000000000000009a .L0 
C:\Users\stapi\AppData\Local\Temp\cca24Nov.s:274    .text.tls_derive_keys:000000000000009a .L0 
C:\Users\stapi\AppData\Local\Temp\cca24Nov.s:275    .text.tls_derive_keys:000000000000009a .L0 
C:\Users\stapi\AppData\Local\Temp\cca24Nov.s:276    .text.tls_derive_keys:000000000000009a .L0 
C:\Users\stapi\AppData\Local\Temp\cca24Nov.s:277    .text.tls_derive_keys:000000000000009a .L0 
C:\Users\stapi\AppData\Local\Temp\cca24Nov.s:278    .text.tls_derive_keys:000000000000009a .L0 
C:\Users\stapi\AppData\Local\Temp\cca24Nov.s:279    .text.tls_derive_keys:000000000000009a .L0 
C:\Users\stapi\AppData\Local\Temp\cca24Nov.s:282    .text.tls_derive_keys:000000000000009a .L0 
C:\Users\stapi\AppData\Local\Temp\cca24Nov.s:284    .text.tls_derive_keys:000000000000009a .L0 
C:\Users\stapi\AppData\Local\Temp\cca24Nov.s:293    .text.tls_derive_keys:00000000000000b2 .L0 
C:\Users\stapi\AppData\Local\Temp\cca24Nov.s:299    .text.tls_derive_keys:00000000000000c2 .L0 
C:\Users\stapi\AppData\Local\Temp\cca24Nov.s:305    .text.tls_derive_keys:00000000000000d2 .L0 
C:\Users\stapi\AppData\Local\Temp\cca24Nov.s:306    .text.tls_derive_keys:00000000000000d2 .L0 
C:\Users\stapi\AppData\Local\Temp\cca24Nov.s:309    .text.tls_derive_keys:00000000000000da .L0 
C:\Users\stapi\AppData\Local\Temp\cca24Nov.s:311    .text.tls_derive_keys:00000000000000de .L0 
C:\Users\stapi\AppData\Local\Temp\cca24Nov.s:313    .text.tls_derive_keys:00000000000000e2 .L0 
C:\Users\stapi\AppData\Local\Temp\cca24Nov.s:315    .text.tls_derive_keys:00000000000000e4 .L0 
C:\Users\stapi\AppData\Local\Temp\cca24Nov.s:318    .text.tls_derive_keys:00000000000000e6 .L0 
C:\Users\stapi\AppData\Local\Temp\cca24Nov.s:319    .text.tls_derive_keys:00000000000000e6 .L0 
C:\Users\stapi\AppData\Local\Temp\cca24Nov.s:321    .text.tls_derive_keys:00000000000000ea .L0 
C:\Users\stapi\AppData\Local\Temp\cca24Nov.s:322    .text.tls_derive_keys:00000000000000ea .L0 
C:\Users\stapi\AppData\Local\Temp\cca24Nov.s:324    .text.tls_derive_keys:00000000000000ee .L0 
C:\Users\stapi\AppData\Local\Temp\cca24Nov.s:328    .text.tls_derive_keys:00000000000000f2 .L0 
C:\Users\stapi\AppData\Local\Temp\cca24Nov.s:329    .text.tls_derive_keys:00000000000000f2 .L0 
C:\Users\stapi\AppData\Local\Temp\cca24Nov.s:341    .text.tls_derive_keys:0000000000000116 .L0 
C:\Users\stapi\AppData\Local\Temp\cca24Nov.s:343    .text.tls_derive_keys:0000000000000118 .L0 
C:\Users\stapi\AppData\Local\Temp\cca24Nov.s:348    .text.tls_derive_keys:0000000000000122 .L0 
C:\Users\stapi\AppData\Local\Temp\cca24Nov.s:356    .text.tls_derive_keys:0000000000000138 .L0 
C:\Users\stapi\AppData\Local\Temp\cca24Nov.s:357    .text.tls_derive_keys:0000000000000138 .L0 
C:\Users\stapi\AppData\Local\Temp\cca24Nov.s:364    .text.tls_derive_keys:000000000000014a .L0 
C:\Users\stapi\AppData\Local\Temp\cca24Nov.s:365    .text.tls_derive_keys:000000000000014a .L0 
C:\Users\stapi\AppData\Local\Temp\cca24Nov.s:367    .text.tls_derive_keys:000000000000014e .L0 
C:\Users\stapi\AppData\Local\Temp\cca24Nov.s:370    .text.tls_derive_keys:0000000000000150 .L0 
C:\Users\stapi\AppData\Local\Temp\cca24Nov.s:372    .text.tls_derive_keys:0000000000000154 .L0 
C:\Users\stapi\AppData\Local\Temp\cca24Nov.s:375    .text.tls_derive_keys:0000000000000158 .L0 
C:\Users\stapi\AppData\Local\Temp\cca24Nov.s:379    .text.tls_derive_keys:0000000000000162 .L0 
C:\Users\stapi\AppData\Local\Temp\cca24Nov.s:380    .text.tls_derive_keys:0000000000000162 .L0 
C:\Users\stapi\AppData\Local\Temp\cca24Nov.s:382    .text.tls_derive_keys:0000000000000166 .L0 
C:\Users\stapi\AppData\Local\Temp\cca24Nov.s:385    .text.tls_derive_keys:000000000000016e .L0 
C:\Users\stapi\AppData\Local\Temp\cca24Nov.s:388    .text.tls_derive_keys:0000000000000170 .L0 
C:\Users\stapi\AppData\Local\Temp\cca24Nov.s:392    .text.tls_derive_keys:000000000000017a .L0 
C:\Users\stapi\AppData\Local\Temp\cca24Nov.s:393    .text.tls_derive_keys:000000000000017a .L0 
C:\Users\stapi\AppData\Local\Temp\cca24Nov.s:395    .text.tls_derive_keys:000000000000017e .L0 
C:\Users\stapi\AppData\Local\Temp\cca24Nov.s:397    .text.tls_derive_keys:0000000000000182 .L0 
C:\Users\stapi\AppData\Local\Temp\cca24Nov.s:399    .text.tls_derive_keys:0000000000000186 .L0 
C:\Users\stapi\AppData\Local\Temp\cca24Nov.s:402    .text.tls_derive_keys:0000000000000188 .L0 
C:\Users\stapi\AppData\Local\Temp\cca24Nov.s:406    .text.tls_derive_keys:0000000000000192 .L0 
C:\Users\stapi\AppData\Local\Temp\cca24Nov.s:407    .text.tls_derive_keys:0000000000000192 .L0 
C:\Users\stapi\AppData\Local\Temp\cca24Nov.s:408    .text.tls_derive_keys:0000000000000192 .L0 
C:\Users\stapi\AppData\Local\Temp\cca24Nov.s:412    .text.tls_derive_keys:000000000000019e .L0 
C:\Users\stapi\AppData\Local\Temp\cca24Nov.s:414    .text.tls_derive_keys:00000000000001a2 .L0 
C:\Users\stapi\AppData\Local\Temp\cca24Nov.s:416    .text.tls_derive_keys:00000000000001a6 .L0 
C:\Users\stapi\AppData\Local\Temp\cca24Nov.s:420    .text.tls_derive_keys:00000000000001ac .L0 
C:\Users\stapi\AppData\Local\Temp\cca24Nov.s:424    .text.tls_derive_keys:00000000000001b6 .L0 
C:\Users\stapi\AppData\Local\Temp\cca24Nov.s:425    .text.tls_derive_keys:00000000000001b6 .L0 
C:\Users\stapi\AppData\Local\Temp\cca24Nov.s:435    .text.tls_derive_keys:00000000000001cc .L0 
C:\Users\stapi\AppData\Local\Temp\cca24Nov.s:439    .text.tls_derive_keys:00000000000001d8 .L0 
C:\Users\stapi\AppData\Local\Temp\cca24Nov.s:456    .text.tlsv1_client_handshake:0000000000000000 tlsv1_client_handshake
C:\Users\stapi\AppData\Local\Temp\cca24Nov.s:459    .text.tlsv1_client_handshake:0000000000000000 .L0 
C:\Users\stapi\AppData\Local\Temp\cca24Nov.s:461    .text.tlsv1_client_handshake:0000000000000000 .L0 
C:\Users\stapi\AppData\Local\Temp\cca24Nov.s:462    .text.tlsv1_client_handshake:0000000000000008 .L0 
C:\Users\stapi\AppData\Local\Temp\cca24Nov.s:463    .text.tlsv1_client_handshake:0000000000000008 .L0 
C:\Users\stapi\AppData\Local\Temp\cca24Nov.s:464    .text.tlsv1_client_handshake:0000000000000008 .L0 
C:\Users\stapi\AppData\Local\Temp\cca24Nov.s:465    .text.tlsv1_client_handshake:0000000000000008 .L0 
C:\Users\stapi\AppData\Local\Temp\cca24Nov.s:466    .text.tlsv1_client_handshake:0000000000000008 .L0 
C:\Users\stapi\AppData\Local\Temp\cca24Nov.s:467    .text.tlsv1_client_handshake:0000000000000008 .L0 
C:\Users\stapi\AppData\Local\Temp\cca24Nov.s:468    .text.tlsv1_client_handshake:0000000000000008 .L0 
C:\Users\stapi\AppData\Local\Temp\cca24Nov.s:469    .text.tlsv1_client_handshake:0000000000000008 .L0 
C:\Users\stapi\AppData\Local\Temp\cca24Nov.s:470    .text.tlsv1_client_handshake:0000000000000008 .L0 
C:\Users\stapi\AppData\Local\Temp\cca24Nov.s:471    .text.tlsv1_client_handshake:0000000000000008 .L0 
C:\Users\stapi\AppData\Local\Temp\cca24Nov.s:472    .text.tlsv1_client_handshake:0000000000000008 .L0 
C:\Users\stapi\AppData\Local\Temp\cca24Nov.s:473    .text.tlsv1_client_handshake:0000000000000008 .L0 
C:\Users\stapi\AppData\Local\Temp\cca24Nov.s:474    .text.tlsv1_client_handshake:0000000000000008 .L0 
C:\Users\stapi\AppData\Local\Temp\cca24Nov.s:475    .text.tlsv1_client_handshake:0000000000000008 .L0 
C:\Users\stapi\AppData\Local\Temp\cca24Nov.s:477    .text.tlsv1_client_handshake:0000000000000008 .L0 
C:\Users\stapi\AppData\Local\Temp\cca24Nov.s:479    .text.tlsv1_client_handshake:0000000000000008 .L0 
C:\Users\stapi\AppData\Local\Temp\cca24Nov.s:480    .text.tlsv1_client_handshake:0000000000000008 .L0 
C:\Users\stapi\AppData\Local\Temp\cca24Nov.s:481    .text.tlsv1_client_handshake:0000000000000008 .L0 
C:\Users\stapi\AppData\Local\Temp\cca24Nov.s:482    .text.tlsv1_client_handshake:0000000000000008 .L0 
C:\Users\stapi\AppData\Local\Temp\cca24Nov.s:483    .text.tlsv1_client_handshake:0000000000000008 .L0 
C:\Users\stapi\AppData\Local\Temp\cca24Nov.s:484    .text.tlsv1_client_handshake:0000000000000008 .L0 
C:\Users\stapi\AppData\Local\Temp\cca24Nov.s:485    .text.tlsv1_client_handshake:000000000000000a .L0 
C:\Users\stapi\AppData\Local\Temp\cca24Nov.s:487    .text.tlsv1_client_handshake:000000000000000a .L0 
C:\Users\stapi\AppData\Local\Temp\cca24Nov.s:495    .text.tlsv1_client_handshake:0000000000000018 .L0 
C:\Users\stapi\AppData\Local\Temp\cca24Nov.s:497    .text.tlsv1_client_handshake:000000000000001c .L0 
C:\Users\stapi\AppData\Local\Temp\cca24Nov.s:498    .text.tlsv1_client_handshake:000000000000001c .L0 
C:\Users\stapi\AppData\Local\Temp\cca24Nov.s:501    .text.tlsv1_client_handshake:0000000000000020 .L0 
C:\Users\stapi\AppData\Local\Temp\cca24Nov.s:502    .text.tlsv1_client_handshake:0000000000000020 .L0 
C:\Users\stapi\AppData\Local\Temp\cca24Nov.s:506    .text.tlsv1_client_handshake:0000000000000024 .L0 
C:\Users\stapi\AppData\Local\Temp\cca24Nov.s:507    .text.tlsv1_client_handshake:0000000000000024 .L0 
C:\Users\stapi\AppData\Local\Temp\cca24Nov.s:512    .text.tlsv1_client_handshake:0000000000000028 .L0 
C:\Users\stapi\AppData\Local\Temp\cca24Nov.s:518    .text.tlsv1_client_handshake:000000000000002c .L0 
C:\Users\stapi\AppData\Local\Temp\cca24Nov.s:519    .text.tlsv1_client_handshake:000000000000002c .L0 
C:\Users\stapi\AppData\Local\Temp\cca24Nov.s:527    .text.tlsv1_client_handshake:000000000000003a .L0 
C:\Users\stapi\AppData\Local\Temp\cca24Nov.s:529    .text.tlsv1_client_handshake:000000000000003e .L0 
C:\Users\stapi\AppData\Local\Temp\cca24Nov.s:530    .text.tlsv1_client_handshake:000000000000003e .L0 
C:\Users\stapi\AppData\Local\Temp\cca24Nov.s:532    .text.tlsv1_client_handshake:0000000000000046 .L0 
C:\Users\stapi\AppData\Local\Temp\cca24Nov.s:533    .text.tlsv1_client_handshake:0000000000000046 .L0 
C:\Users\stapi\AppData\Local\Temp\cca24Nov.s:534    .text.tlsv1_client_handshake:0000000000000046 .L0 
C:\Users\stapi\AppData\Local\Temp\cca24Nov.s:535    .text.tlsv1_client_handshake:0000000000000046 .L0 
C:\Users\stapi\AppData\Local\Temp\cca24Nov.s:536    .text.tlsv1_client_handshake:0000000000000046 .L0 
C:\Users\stapi\AppData\Local\Temp\cca24Nov.s:537    .text.tlsv1_client_handshake:0000000000000046 .L0 
C:\Users\stapi\AppData\Local\Temp\cca24Nov.s:538    .text.tlsv1_client_handshake:0000000000000046 .L0 
C:\Users\stapi\AppData\Local\Temp\cca24Nov.s:539    .text.tlsv1_client_handshake:0000000000000046 .L0 
C:\Users\stapi\AppData\Local\Temp\cca24Nov.s:540    .text.tlsv1_client_handshake:0000000000000046 .L0 
C:\Users\stapi\AppData\Local\Temp\cca24Nov.s:541    .text.tlsv1_client_handshake:0000000000000046 .L0 
C:\Users\stapi\AppData\Local\Temp\cca24Nov.s:542    .text.tlsv1_client_handshake:0000000000000046 .L0 
C:\Users\stapi\AppData\Local\Temp\cca24Nov.s:543    .text.tlsv1_client_handshake:0000000000000046 .L0 
C:\Users\stapi\AppData\Local\Temp\cca24Nov.s:544    .text.tlsv1_client_handshake:0000000000000046 .L0 
C:\Users\stapi\AppData\Local\Temp\cca24Nov.s:545    .text.tlsv1_client_handshake:0000000000000046 .L0 
C:\Users\stapi\AppData\Local\Temp\cca24Nov.s:548    .text.tlsv1_client_handshake:0000000000000046 .L0 
C:\Users\stapi\AppData\Local\Temp\cca24Nov.s:550    .text.tlsv1_client_handshake:0000000000000046 .L0 
C:\Users\stapi\AppData\Local\Temp\cca24Nov.s:551    .text.tlsv1_client_handshake:0000000000000046 .L0 
C:\Users\stapi\AppData\Local\Temp\cca24Nov.s:554    .text.tlsv1_client_handshake:000000000000004c .L0 
C:\Users\stapi\AppData\Local\Temp\cca24Nov.s:555    .text.tlsv1_client_handshake:000000000000004c .L0 
C:\Users\stapi\AppData\Local\Temp\cca24Nov.s:560    .text.tlsv1_client_handshake:000000000000005a .L0 
C:\Users\stapi\AppData\Local\Temp\cca24Nov.s:562    .text.tlsv1_client_handshake:000000000000005e .L0 
C:\Users\stapi\AppData\Local\Temp\cca24Nov.s:570    .text.tlsv1_client_handshake:0000000000000070 .L0 
C:\Users\stapi\AppData\Local\Temp\cca24Nov.s:571    .text.tlsv1_client_handshake:0000000000000070 .L0 
C:\Users\stapi\AppData\Local\Temp\cca24Nov.s:572    .text.tlsv1_client_handshake:0000000000000070 .L0 
C:\Users\stapi\AppData\Local\Temp\cca24Nov.s:573    .text.tlsv1_client_handshake:0000000000000070 .L0 
C:\Users\stapi\AppData\Local\Temp\cca24Nov.s:580    .text.tlsv1_client_handshake:0000000000000078 .L0 
C:\Users\stapi\AppData\Local\Temp\cca24Nov.s:581    .text.tlsv1_client_handshake:0000000000000078 .L0 
C:\Users\stapi\AppData\Local\Temp\cca24Nov.s:585    .text.tlsv1_client_handshake:000000000000007a .L0 
C:\Users\stapi\AppData\Local\Temp\cca24Nov.s:593    .text.tlsv1_client_handshake:000000000000007e .L0 
C:\Users\stapi\AppData\Local\Temp\cca24Nov.s:594    .text.tlsv1_client_handshake:000000000000007e .L0 
C:\Users\stapi\AppData\Local\Temp\cca24Nov.s:595    .text.tlsv1_client_handshake:000000000000007e .L0 
C:\Users\stapi\AppData\Local\Temp\cca24Nov.s:600    .text.tlsv1_client_handshake:0000000000000080 .L0 
C:\Users\stapi\AppData\Local\Temp\cca24Nov.s:614    .text.tlsv1_client_handshake:000000000000009a .L0 
C:\Users\stapi\AppData\Local\Temp\cca24Nov.s:615    .text.tlsv1_client_handshake:000000000000009a .L0 
C:\Users\stapi\AppData\Local\Temp\cca24Nov.s:620    .text.tlsv1_client_handshake:000000000000009e .L0 
C:\Users\stapi\AppData\Local\Temp\cca24Nov.s:621    .text.tlsv1_client_handshake:000000000000009e .L0 
C:\Users\stapi\AppData\Local\Temp\cca24Nov.s:628    .text.tlsv1_client_handshake:00000000000000a0 .L0 
C:\Users\stapi\AppData\Local\Temp\cca24Nov.s:629    .text.tlsv1_client_handshake:00000000000000a0 .L0 
C:\Users\stapi\AppData\Local\Temp\cca24Nov.s:630    .text.tlsv1_client_handshake:00000000000000a0 .L0 
C:\Users\stapi\AppData\Local\Temp\cca24Nov.s:636    .text.tlsv1_client_handshake:00000000000000a4 .L0 
C:\Users\stapi\AppData\Local\Temp\cca24Nov.s:637    .text.tlsv1_client_handshake:00000000000000a4 .L0 
C:\Users\stapi\AppData\Local\Temp\cca24Nov.s:639    .text.tlsv1_client_handshake:00000000000000a6 .L0 
C:\Users\stapi\AppData\Local\Temp\cca24Nov.s:642    .text.tlsv1_client_handshake:00000000000000aa .L0 
C:\Users\stapi\AppData\Local\Temp\cca24Nov.s:643    .text.tlsv1_client_handshake:00000000000000aa .L0 
C:\Users\stapi\AppData\Local\Temp\cca24Nov.s:644    .text.tlsv1_client_handshake:00000000000000aa .L0 
C:\Users\stapi\AppData\Local\Temp\cca24Nov.s:648    .text.tlsv1_client_handshake:00000000000000b4 .L0 
C:\Users\stapi\AppData\Local\Temp\cca24Nov.s:651    .text.tlsv1_client_handshake:00000000000000b8 .L0 
C:\Users\stapi\AppData\Local\Temp\cca24Nov.s:652    .text.tlsv1_client_handshake:00000000000000b8 .L0 
C:\Users\stapi\AppData\Local\Temp\cca24Nov.s:655    .text.tlsv1_client_handshake:00000000000000ba .L0 
C:\Users\stapi\AppData\Local\Temp\cca24Nov.s:656    .text.tlsv1_client_handshake:00000000000000ba .L0 
C:\Users\stapi\AppData\Local\Temp\cca24Nov.s:658    .text.tlsv1_client_handshake:00000000000000bc .L0 
C:\Users\stapi\AppData\Local\Temp\cca24Nov.s:662    .text.tlsv1_client_handshake:00000000000000c0 .L0 
C:\Users\stapi\AppData\Local\Temp\cca24Nov.s:664    .text.tlsv1_client_handshake:00000000000000c4 .L0 
C:\Users\stapi\AppData\Local\Temp\cca24Nov.s:668    .text.tlsv1_client_handshake:00000000000000ce .L0 
C:\Users\stapi\AppData\Local\Temp\cca24Nov.s:669    .text.tlsv1_client_handshake:00000000000000ce .L0 
C:\Users\stapi\AppData\Local\Temp\cca24Nov.s:670    .text.tlsv1_client_handshake:00000000000000ce .L0 
C:\Users\stapi\AppData\Local\Temp\cca24Nov.s:673    .text.tlsv1_client_handshake:00000000000000d4 .L0 
C:\Users\stapi\AppData\Local\Temp\cca24Nov.s:678    .text.tlsv1_client_handshake:00000000000000dc .L0 
C:\Users\stapi\AppData\Local\Temp\cca24Nov.s:679    .text.tlsv1_client_handshake:00000000000000dc .L0 
C:\Users\stapi\AppData\Local\Temp\cca24Nov.s:686    .text.tlsv1_client_handshake:00000000000000ea .L0 
C:\Users\stapi\AppData\Local\Temp\cca24Nov.s:691    .text.tlsv1_client_handshake:00000000000000ee .L0 
C:\Users\stapi\AppData\Local\Temp\cca24Nov.s:692    .text.tlsv1_client_handshake:00000000000000ee .L0 
C:\Users\stapi\AppData\Local\Temp\cca24Nov.s:694    .text.tlsv1_client_handshake:00000000000000f2 .L0 
C:\Users\stapi\AppData\Local\Temp\cca24Nov.s:701    .text.tlsv1_client_handshake:0000000000000100 .L0 
C:\Users\stapi\AppData\Local\Temp\cca24Nov.s:703    .text.tlsv1_client_handshake:0000000000000102 .L0 
C:\Users\stapi\AppData\Local\Temp\cca24Nov.s:704    .text.tlsv1_client_handshake:0000000000000102 .L0 
C:\Users\stapi\AppData\Local\Temp\cca24Nov.s:709    .text.tlsv1_client_handshake:000000000000010c .L0 
C:\Users\stapi\AppData\Local\Temp\cca24Nov.s:710    .text.tlsv1_client_handshake:000000000000010c .L0 
C:\Users\stapi\AppData\Local\Temp\cca24Nov.s:712    .text.tlsv1_client_handshake:0000000000000110 .L0 
C:\Users\stapi\AppData\Local\Temp\cca24Nov.s:719    .text.tlsv1_client_handshake:0000000000000122 .L0 
C:\Users\stapi\AppData\Local\Temp\cca24Nov.s:724    .text.tlsv1_client_handshake:0000000000000126 .L0 
C:\Users\stapi\AppData\Local\Temp\cca24Nov.s:725    .text.tlsv1_client_handshake:0000000000000126 .L0 
C:\Users\stapi\AppData\Local\Temp\cca24Nov.s:728    .text.tlsv1_client_handshake:000000000000012c .L0 
C:\Users\stapi\AppData\Local\Temp\cca24Nov.s:729    .text.tlsv1_client_handshake:000000000000012c .L0 
C:\Users\stapi\AppData\Local\Temp\cca24Nov.s:734    .text.tlsv1_client_handshake:0000000000000130 .L0 
C:\Users\stapi\AppData\Local\Temp\cca24Nov.s:738    .text.tlsv1_client_handshake:0000000000000132 .L0 
C:\Users\stapi\AppData\Local\Temp\cca24Nov.s:739    .text.tlsv1_client_handshake:0000000000000132 .L0 
C:\Users\stapi\AppData\Local\Temp\cca24Nov.s:742    .text.tlsv1_client_handshake:0000000000000134 .L0 
C:\Users\stapi\AppData\Local\Temp\cca24Nov.s:743    .text.tlsv1_client_handshake:0000000000000134 .L0 
C:\Users\stapi\AppData\Local\Temp\cca24Nov.s:750    .text.tlsv1_client_handshake:0000000000000146 .L0 
C:\Users\stapi\AppData\Local\Temp\cca24Nov.s:751    .text.tlsv1_client_handshake:0000000000000146 .L0 
C:\Users\stapi\AppData\Local\Temp\cca24Nov.s:758    .text.tlsv1_client_handshake:0000000000000154 .L0 
C:\Users\stapi\AppData\Local\Temp\cca24Nov.s:762    .text.tlsv1_client_handshake:0000000000000160 .L0 
C:\Users\stapi\AppData\Local\Temp\cca24Nov.s:763    .text.tlsv1_client_handshake:0000000000000160 .L0 
C:\Users\stapi\AppData\Local\Temp\cca24Nov.s:765    .text.tlsv1_client_handshake:0000000000000164 .L0 
C:\Users\stapi\AppData\Local\Temp\cca24Nov.s:766    .text.tlsv1_client_handshake:0000000000000164 .L0 
C:\Users\stapi\AppData\Local\Temp\cca24Nov.s:768    .text.tlsv1_client_handshake:0000000000000166 .L0 
C:\Users\stapi\AppData\Local\Temp\cca24Nov.s:776    .text.tlsv1_client_handshake:0000000000000178 .L0 
C:\Users\stapi\AppData\Local\Temp\cca24Nov.s:777    .text.tlsv1_client_handshake:0000000000000178 .L0 
C:\Users\stapi\AppData\Local\Temp\cca24Nov.s:778    .text.tlsv1_client_handshake:0000000000000178 .L0 
C:\Users\stapi\AppData\Local\Temp\cca24Nov.s:779    .text.tlsv1_client_handshake:0000000000000178 .L0 
C:\Users\stapi\AppData\Local\Temp\cca24Nov.s:788    .text.tlsv1_client_handshake:0000000000000180 .L0 
C:\Users\stapi\AppData\Local\Temp\cca24Nov.s:789    .text.tlsv1_client_handshake:0000000000000180 .L0 
C:\Users\stapi\AppData\Local\Temp\cca24Nov.s:793    .text.tlsv1_client_handshake:000000000000018a .L0 
C:\Users\stapi\AppData\Local\Temp\cca24Nov.s:794    .text.tlsv1_client_handshake:000000000000018a .L0 
C:\Users\stapi\AppData\Local\Temp\cca24Nov.s:797    .text.tlsv1_client_handshake:0000000000000190 .L0 
C:\Users\stapi\AppData\Local\Temp\cca24Nov.s:801    .text.tlsv1_client_handshake:000000000000019c .L0 
C:\Users\stapi\AppData\Local\Temp\cca24Nov.s:802    .text.tlsv1_client_handshake:000000000000019c .L0 
C:\Users\stapi\AppData\Local\Temp\cca24Nov.s:804    .text.tlsv1_client_handshake:000000000000019e .L0 
C:\Users\stapi\AppData\Local\Temp\cca24Nov.s:806    .text.tlsv1_client_handshake:00000000000001a0 .L0 
C:\Users\stapi\AppData\Local\Temp\cca24Nov.s:808    .text.tlsv1_client_handshake:00000000000001a2 .L0 
C:\Users\stapi\AppData\Local\Temp\cca24Nov.s:810    .text.tlsv1_client_handshake:00000000000001a6 .L0 
C:\Users\stapi\AppData\Local\Temp\cca24Nov.s:811    .text.tlsv1_client_handshake:00000000000001a6 .L0 
C:\Users\stapi\AppData\Local\Temp\cca24Nov.s:814    .text.tlsv1_client_handshake:00000000000001ae .L0 
C:\Users\stapi\AppData\Local\Temp\cca24Nov.s:815    .text.tlsv1_client_handshake:00000000000001ae .L0 
C:\Users\stapi\AppData\Local\Temp\cca24Nov.s:825    .text.tlsv1_client_handshake:00000000000001c4 .L0 
C:\Users\stapi\AppData\Local\Temp\cca24Nov.s:826    .text.tlsv1_client_handshake:00000000000001c4 .L0 
C:\Users\stapi\AppData\Local\Temp\cca24Nov.s:828    .text.tlsv1_client_handshake:00000000000001c8 .L0 
C:\Users\stapi\AppData\Local\Temp\cca24Nov.s:832    .text.tlsv1_client_handshake:00000000000001d0 .L0 
C:\Users\stapi\AppData\Local\Temp\cca24Nov.s:836    .text.tlsv1_client_handshake:00000000000001dc .L0 
C:\Users\stapi\AppData\Local\Temp\cca24Nov.s:837    .text.tlsv1_client_handshake:00000000000001dc .L0 
C:\Users\stapi\AppData\Local\Temp\cca24Nov.s:843    .text.tlsv1_client_handshake:00000000000001e2 .L0 
C:\Users\stapi\AppData\Local\Temp\cca24Nov.s:847    .text.tlsv1_client_handshake:00000000000001ec .L0 
C:\Users\stapi\AppData\Local\Temp\cca24Nov.s:848    .text.tlsv1_client_handshake:00000000000001ec .L0 
C:\Users\stapi\AppData\Local\Temp\cca24Nov.s:850    .text.tlsv1_client_handshake:00000000000001f0 .L0 
C:\Users\stapi\AppData\Local\Temp\cca24Nov.s:851    .text.tlsv1_client_handshake:00000000000001f0 .L0 
C:\Users\stapi\AppData\Local\Temp\cca24Nov.s:858    .text.tlsv1_client_handshake:00000000000001f8 .L0 
C:\Users\stapi\AppData\Local\Temp\cca24Nov.s:859    .text.tlsv1_client_handshake:00000000000001f8 .L0 
C:\Users\stapi\AppData\Local\Temp\cca24Nov.s:861    .text.tlsv1_client_handshake:00000000000001fa .L0 
C:\Users\stapi\AppData\Local\Temp\cca24Nov.s:864    .text.tlsv1_client_handshake:00000000000001fe .L0 
C:\Users\stapi\AppData\Local\Temp\cca24Nov.s:865    .text.tlsv1_client_handshake:00000000000001fe .L0 
C:\Users\stapi\AppData\Local\Temp\cca24Nov.s:866    .text.tlsv1_client_handshake:00000000000001fe .L0 
C:\Users\stapi\AppData\Local\Temp\cca24Nov.s:868    .text.tlsv1_client_handshake:0000000000000200 .L0 
C:\Users\stapi\AppData\Local\Temp\cca24Nov.s:872    .text.tlsv1_client_handshake:0000000000000202 .L0 
C:\Users\stapi\AppData\Local\Temp\cca24Nov.s:873    .text.tlsv1_client_handshake:0000000000000202 .L0 
C:\Users\stapi\AppData\Local\Temp\cca24Nov.s:875    .text.tlsv1_client_handshake:0000000000000206 .L0 
C:\Users\stapi\AppData\Local\Temp\cca24Nov.s:876    .text.tlsv1_client_handshake:0000000000000206 .L0 
C:\Users\stapi\AppData\Local\Temp\cca24Nov.s:881    .text.tlsv1_client_handshake:000000000000020a .L0 
C:\Users\stapi\AppData\Local\Temp\cca24Nov.s:882    .text.tlsv1_client_handshake:000000000000020a .L0 
C:\Users\stapi\AppData\Local\Temp\cca24Nov.s:884    .text.tlsv1_client_handshake:000000000000020e .L0 
C:\Users\stapi\AppData\Local\Temp\cca24Nov.s:886    .text.tlsv1_client_handshake:0000000000000210 .L0 
C:\Users\stapi\AppData\Local\Temp\cca24Nov.s:887    .text.tlsv1_client_handshake:0000000000000210 .L0 
C:\Users\stapi\AppData\Local\Temp\cca24Nov.s:893    .text.tlsv1_client_handshake:000000000000021a .L0 
C:\Users\stapi\AppData\Local\Temp\cca24Nov.s:895    .text.tlsv1_client_handshake:000000000000021c .L0 
C:\Users\stapi\AppData\Local\Temp\cca24Nov.s:899    .text.tlsv1_client_handshake:0000000000000226 .L0 
C:\Users\stapi\AppData\Local\Temp\cca24Nov.s:901    .text.tlsv1_client_handshake:000000000000022a .L0 
C:\Users\stapi\AppData\Local\Temp\cca24Nov.s:902    .text.tlsv1_client_handshake:000000000000022a .L0 
C:\Users\stapi\AppData\Local\Temp\cca24Nov.s:911    .text.tlsv1_client_handshake:0000000000000234 .L0 
C:\Users\stapi\AppData\Local\Temp\cca24Nov.s:912    .text.tlsv1_client_handshake:0000000000000234 .L0 
C:\Users\stapi\AppData\Local\Temp\cca24Nov.s:914    .text.tlsv1_client_handshake:0000000000000236 .L0 
C:\Users\stapi\AppData\Local\Temp\cca24Nov.s:915    .text.tlsv1_client_handshake:0000000000000236 .L0 
C:\Users\stapi\AppData\Local\Temp\cca24Nov.s:921    .text.tlsv1_client_handshake:0000000000000242 .L0 
C:\Users\stapi\AppData\Local\Temp\cca24Nov.s:922    .text.tlsv1_client_handshake:0000000000000242 .L0 
C:\Users\stapi\AppData\Local\Temp\cca24Nov.s:924    .text.tlsv1_client_handshake:0000000000000248 .L0 
C:\Users\stapi\AppData\Local\Temp\cca24Nov.s:938    .text.tlsv1_client_encrypt:0000000000000000 tlsv1_client_encrypt
C:\Users\stapi\AppData\Local\Temp\cca24Nov.s:941    .text.tlsv1_client_encrypt:0000000000000000 .L0 
C:\Users\stapi\AppData\Local\Temp\cca24Nov.s:943    .text.tlsv1_client_encrypt:0000000000000000 .L0 
C:\Users\stapi\AppData\Local\Temp\cca24Nov.s:944    .text.tlsv1_client_encrypt:0000000000000008 .L0 
C:\Users\stapi\AppData\Local\Temp\cca24Nov.s:945    .text.tlsv1_client_encrypt:0000000000000008 .L0 
C:\Users\stapi\AppData\Local\Temp\cca24Nov.s:946    .text.tlsv1_client_encrypt:0000000000000008 .L0 
C:\Users\stapi\AppData\Local\Temp\cca24Nov.s:947    .text.tlsv1_client_encrypt:0000000000000008 .L0 
C:\Users\stapi\AppData\Local\Temp\cca24Nov.s:948    .text.tlsv1_client_encrypt:0000000000000008 .L0 
C:\Users\stapi\AppData\Local\Temp\cca24Nov.s:949    .text.tlsv1_client_encrypt:0000000000000008 .L0 
C:\Users\stapi\AppData\Local\Temp\cca24Nov.s:951    .text.tlsv1_client_encrypt:0000000000000008 .L0 
C:\Users\stapi\AppData\Local\Temp\cca24Nov.s:952    .text.tlsv1_client_encrypt:0000000000000008 .L0 
C:\Users\stapi\AppData\Local\Temp\cca24Nov.s:953    .text.tlsv1_client_encrypt:0000000000000008 .L0 
C:\Users\stapi\AppData\Local\Temp\cca24Nov.s:954    .text.tlsv1_client_encrypt:000000000000000a .L0 
C:\Users\stapi\AppData\Local\Temp\cca24Nov.s:956    .text.tlsv1_client_encrypt:000000000000000a .L0 
C:\Users\stapi\AppData\Local\Temp\cca24Nov.s:959    .text.tlsv1_client_encrypt:000000000000000e .L0 
C:\Users\stapi\AppData\Local\Temp\cca24Nov.s:967    .text.tlsv1_client_encrypt:0000000000000018 .L0 
C:\Users\stapi\AppData\Local\Temp\cca24Nov.s:969    .text.tlsv1_client_encrypt:000000000000001a .L0 
C:\Users\stapi\AppData\Local\Temp\cca24Nov.s:973    .text.tlsv1_client_encrypt:0000000000000020 .L0 
C:\Users\stapi\AppData\Local\Temp\cca24Nov.s:975    .text.tlsv1_client_encrypt:0000000000000022 .L0 
C:\Users\stapi\AppData\Local\Temp\cca24Nov.s:978    .text.tlsv1_client_encrypt:000000000000002a .L0 
C:\Users\stapi\AppData\Local\Temp\cca24Nov.s:979    .text.tlsv1_client_encrypt:000000000000002a .L0 
C:\Users\stapi\AppData\Local\Temp\cca24Nov.s:989    .text.tlsv1_client_encrypt:0000000000000044 .L0 
C:\Users\stapi\AppData\Local\Temp\cca24Nov.s:991    .text.tlsv1_client_encrypt:0000000000000048 .L0 
C:\Users\stapi\AppData\Local\Temp\cca24Nov.s:999    .text.tlsv1_client_encrypt:000000000000005a .L0 
C:\Users\stapi\AppData\Local\Temp\cca24Nov.s:1000   .text.tlsv1_client_encrypt:000000000000005a .L0 
C:\Users\stapi\AppData\Local\Temp\cca24Nov.s:1001   .text.tlsv1_client_encrypt:000000000000005a .L0 
C:\Users\stapi\AppData\Local\Temp\cca24Nov.s:1002   .text.tlsv1_client_encrypt:000000000000005a .L0 
C:\Users\stapi\AppData\Local\Temp\cca24Nov.s:1009   .text.tlsv1_client_encrypt:0000000000000062 .L0 
C:\Users\stapi\AppData\Local\Temp\cca24Nov.s:1010   .text.tlsv1_client_encrypt:0000000000000062 .L0 
C:\Users\stapi\AppData\Local\Temp\cca24Nov.s:1013   .text.tlsv1_client_encrypt:0000000000000064 .L0 
C:\Users\stapi\AppData\Local\Temp\cca24Nov.s:1014   .text.tlsv1_client_encrypt:0000000000000066 .L0 
C:\Users\stapi\AppData\Local\Temp\cca24Nov.s:1015   .text.tlsv1_client_encrypt:0000000000000066 .L0 
C:\Users\stapi\AppData\Local\Temp\cca24Nov.s:1018   .text.tlsv1_client_encrypt:000000000000006e .L0 
C:\Users\stapi\AppData\Local\Temp\cca24Nov.s:1019   .text.tlsv1_client_encrypt:000000000000006e .L0 
C:\Users\stapi\AppData\Local\Temp\cca24Nov.s:1020   .text.tlsv1_client_encrypt:000000000000006e .L0 
C:\Users\stapi\AppData\Local\Temp\cca24Nov.s:1021   .text.tlsv1_client_encrypt:000000000000006e .L0 
C:\Users\stapi\AppData\Local\Temp\cca24Nov.s:1022   .text.tlsv1_client_encrypt:000000000000006e .L0 
C:\Users\stapi\AppData\Local\Temp\cca24Nov.s:1023   .text.tlsv1_client_encrypt:000000000000006e .L0 
C:\Users\stapi\AppData\Local\Temp\cca24Nov.s:1026   .text.tlsv1_client_encrypt:000000000000006e .L0 
C:\Users\stapi\AppData\Local\Temp\cca24Nov.s:1028   .text.tlsv1_client_encrypt:000000000000006e .L0 
C:\Users\stapi\AppData\Local\Temp\cca24Nov.s:1029   .text.tlsv1_client_encrypt:000000000000006e .L0 
C:\Users\stapi\AppData\Local\Temp\cca24Nov.s:1031   .text.tlsv1_client_encrypt:0000000000000072 .L0 
C:\Users\stapi\AppData\Local\Temp\cca24Nov.s:1051   .text.tlsv1_client_decrypt:0000000000000000 tlsv1_client_decrypt
C:\Users\stapi\AppData\Local\Temp\cca24Nov.s:1054   .text.tlsv1_client_decrypt:0000000000000000 .L0 
C:\Users\stapi\AppData\Local\Temp\cca24Nov.s:1056   .text.tlsv1_client_decrypt:0000000000000000 .L0 
C:\Users\stapi\AppData\Local\Temp\cca24Nov.s:1057   .text.tlsv1_client_decrypt:0000000000000008 .L0 
C:\Users\stapi\AppData\Local\Temp\cca24Nov.s:1058   .text.tlsv1_client_decrypt:0000000000000008 .L0 
C:\Users\stapi\AppData\Local\Temp\cca24Nov.s:1059   .text.tlsv1_client_decrypt:0000000000000008 .L0 
C:\Users\stapi\AppData\Local\Temp\cca24Nov.s:1060   .text.tlsv1_client_decrypt:0000000000000008 .L0 
C:\Users\stapi\AppData\Local\Temp\cca24Nov.s:1061   .text.tlsv1_client_decrypt:0000000000000008 .L0 
C:\Users\stapi\AppData\Local\Temp\cca24Nov.s:1062   .text.tlsv1_client_decrypt:0000000000000008 .L0 
C:\Users\stapi\AppData\Local\Temp\cca24Nov.s:1063   .text.tlsv1_client_decrypt:0000000000000008 .L0 
C:\Users\stapi\AppData\Local\Temp\cca24Nov.s:1064   .text.tlsv1_client_decrypt:0000000000000008 .L0 
C:\Users\stapi\AppData\Local\Temp\cca24Nov.s:1065   .text.tlsv1_client_decrypt:0000000000000008 .L0 
C:\Users\stapi\AppData\Local\Temp\cca24Nov.s:1066   .text.tlsv1_client_decrypt:0000000000000008 .L0 
C:\Users\stapi\AppData\Local\Temp\cca24Nov.s:1067   .text.tlsv1_client_decrypt:0000000000000008 .L0 
C:\Users\stapi\AppData\Local\Temp\cca24Nov.s:1068   .text.tlsv1_client_decrypt:0000000000000008 .L0 
C:\Users\stapi\AppData\Local\Temp\cca24Nov.s:1069   .text.tlsv1_client_decrypt:0000000000000008 .L0 
C:\Users\stapi\AppData\Local\Temp\cca24Nov.s:1070   .text.tlsv1_client_decrypt:0000000000000008 .L0 
C:\Users\stapi\AppData\Local\Temp\cca24Nov.s:1072   .text.tlsv1_client_decrypt:0000000000000008 .L0 
C:\Users\stapi\AppData\Local\Temp\cca24Nov.s:1073   .text.tlsv1_client_decrypt:0000000000000008 .L0 
C:\Users\stapi\AppData\Local\Temp\cca24Nov.s:1074   .text.tlsv1_client_decrypt:0000000000000008 .L0 
C:\Users\stapi\AppData\Local\Temp\cca24Nov.s:1075   .text.tlsv1_client_decrypt:0000000000000008 .L0 
C:\Users\stapi\AppData\Local\Temp\cca24Nov.s:1076   .text.tlsv1_client_decrypt:0000000000000008 .L0 
C:\Users\stapi\AppData\Local\Temp\cca24Nov.s:1077   .text.tlsv1_client_decrypt:0000000000000008 .L0 
C:\Users\stapi\AppData\Local\Temp\cca24Nov.s:1078   .text.tlsv1_client_decrypt:000000000000000a .L0 
C:\Users\stapi\AppData\Local\Temp\cca24Nov.s:1080   .text.tlsv1_client_decrypt:000000000000000a .L0 
C:\Users\stapi\AppData\Local\Temp\cca24Nov.s:1082   .text.tlsv1_client_decrypt:000000000000000c .L0 
C:\Users\stapi\AppData\Local\Temp\cca24Nov.s:1083   .text.tlsv1_client_decrypt:000000000000000c .L0 
C:\Users\stapi\AppData\Local\Temp\cca24Nov.s:1088   .text.tlsv1_client_decrypt:0000000000000014 .L0 
C:\Users\stapi\AppData\Local\Temp\cca24Nov.s:1090   .text.tlsv1_client_decrypt:0000000000000016 .L0 
C:\Users\stapi\AppData\Local\Temp\cca24Nov.s:1091   .text.tlsv1_client_decrypt:0000000000000016 .L0 
C:\Users\stapi\AppData\Local\Temp\cca24Nov.s:1094   .text.tlsv1_client_decrypt:000000000000001a .L0 
C:\Users\stapi\AppData\Local\Temp\cca24Nov.s:1095   .text.tlsv1_client_decrypt:000000000000001a .L0 
C:\Users\stapi\AppData\Local\Temp\cca24Nov.s:1098   .text.tlsv1_client_decrypt:0000000000000020 .L0 
C:\Users\stapi\AppData\Local\Temp\cca24Nov.s:1099   .text.tlsv1_client_decrypt:0000000000000020 .L0 
C:\Users\stapi\AppData\Local\Temp\cca24Nov.s:1106   .text.tlsv1_client_decrypt:000000000000002e .L0 
C:\Users\stapi\AppData\Local\Temp\cca24Nov.s:1110   .text.tlsv1_client_decrypt:0000000000000032 .L0 
C:\Users\stapi\AppData\Local\Temp\cca24Nov.s:1117   .text.tlsv1_client_decrypt:0000000000000044 .L0 
C:\Users\stapi\AppData\Local\Temp\cca24Nov.s:1118   .text.tlsv1_client_decrypt:0000000000000044 .L0 
C:\Users\stapi\AppData\Local\Temp\cca24Nov.s:1119   .text.tlsv1_client_decrypt:0000000000000044 .L0 
C:\Users\stapi\AppData\Local\Temp\cca24Nov.s:1122   .text.tlsv1_client_decrypt:0000000000000048 .L0 
C:\Users\stapi\AppData\Local\Temp\cca24Nov.s:1124   .text.tlsv1_client_decrypt:000000000000004c .L0 
C:\Users\stapi\AppData\Local\Temp\cca24Nov.s:1130   .text.tlsv1_client_decrypt:000000000000004e .L0 
C:\Users\stapi\AppData\Local\Temp\cca24Nov.s:1131   .text.tlsv1_client_decrypt:000000000000004e .L0 
C:\Users\stapi\AppData\Local\Temp\cca24Nov.s:1132   .text.tlsv1_client_decrypt:000000000000004e .L0 
C:\Users\stapi\AppData\Local\Temp\cca24Nov.s:1137   .text.tlsv1_client_decrypt:0000000000000050 .L0 
C:\Users\stapi\AppData\Local\Temp\cca24Nov.s:1151   .text.tlsv1_client_decrypt:000000000000006a .L0 
C:\Users\stapi\AppData\Local\Temp\cca24Nov.s:1152   .text.tlsv1_client_decrypt:000000000000006a .L0 
C:\Users\stapi\AppData\Local\Temp\cca24Nov.s:1157   .text.tlsv1_client_decrypt:000000000000006e .L0 
C:\Users\stapi\AppData\Local\Temp\cca24Nov.s:1158   .text.tlsv1_client_decrypt:000000000000006e .L0 
C:\Users\stapi\AppData\Local\Temp\cca24Nov.s:1165   .text.tlsv1_client_decrypt:0000000000000070 .L0 
C:\Users\stapi\AppData\Local\Temp\cca24Nov.s:1166   .text.tlsv1_client_decrypt:0000000000000070 .L0 
C:\Users\stapi\AppData\Local\Temp\cca24Nov.s:1167   .text.tlsv1_client_decrypt:0000000000000070 .L0 
C:\Users\stapi\AppData\Local\Temp\cca24Nov.s:1173   .text.tlsv1_client_decrypt:0000000000000074 .L0 
C:\Users\stapi\AppData\Local\Temp\cca24Nov.s:1174   .text.tlsv1_client_decrypt:0000000000000074 .L0 
C:\Users\stapi\AppData\Local\Temp\cca24Nov.s:1175   .text.tlsv1_client_decrypt:0000000000000074 .L0 
C:\Users\stapi\AppData\Local\Temp\cca24Nov.s:1177   .text.tlsv1_client_decrypt:0000000000000078 .L0 
C:\Users\stapi\AppData\Local\Temp\cca24Nov.s:1180   .text.tlsv1_client_decrypt:000000000000007a .L0 
C:\Users\stapi\AppData\Local\Temp\cca24Nov.s:1181   .text.tlsv1_client_decrypt:000000000000007a .L0 
C:\Users\stapi\AppData\Local\Temp\cca24Nov.s:1183   .text.tlsv1_client_decrypt:000000000000007c .L0 
C:\Users\stapi\AppData\Local\Temp\cca24Nov.s:1185   .text.tlsv1_client_decrypt:000000000000007e .L0 
C:\Users\stapi\AppData\Local\Temp\cca24Nov.s:1187   .text.tlsv1_client_decrypt:0000000000000080 .L0 
C:\Users\stapi\AppData\Local\Temp\cca24Nov.s:1189   .text.tlsv1_client_decrypt:0000000000000082 .L0 
C:\Users\stapi\AppData\Local\Temp\cca24Nov.s:1193   .text.tlsv1_client_decrypt:0000000000000086 .L0 
C:\Users\stapi\AppData\Local\Temp\cca24Nov.s:1195   .text.tlsv1_client_decrypt:000000000000008a .L0 
C:\Users\stapi\AppData\Local\Temp\cca24Nov.s:1199   .text.tlsv1_client_decrypt:0000000000000096 .L0 
C:\Users\stapi\AppData\Local\Temp\cca24Nov.s:1200   .text.tlsv1_client_decrypt:0000000000000096 .L0 
C:\Users\stapi\AppData\Local\Temp\cca24Nov.s:1204   .text.tlsv1_client_decrypt:000000000000009c .L0 
C:\Users\stapi\AppData\Local\Temp\cca24Nov.s:1205   .text.tlsv1_client_decrypt:000000000000009c .L0 
C:\Users\stapi\AppData\Local\Temp\cca24Nov.s:1207   .text.tlsv1_client_decrypt:00000000000000a0 .L0 
C:\Users\stapi\AppData\Local\Temp\cca24Nov.s:1210   .text.tlsv1_client_decrypt:00000000000000a4 .L0 
C:\Users\stapi\AppData\Local\Temp\cca24Nov.s:1213   .text.tlsv1_client_decrypt:00000000000000a8 .L0 
C:\Users\stapi\AppData\Local\Temp\cca24Nov.s:1214   .text.tlsv1_client_decrypt:00000000000000a8 .L0 
C:\Users\stapi\AppData\Local\Temp\cca24Nov.s:1217   .text.tlsv1_client_decrypt:00000000000000b0 .L0 
C:\Users\stapi\AppData\Local\Temp\cca24Nov.s:1219   .text.tlsv1_client_decrypt:00000000000000b4 .L0 
C:\Users\stapi\AppData\Local\Temp\cca24Nov.s:1220   .text.tlsv1_client_decrypt:00000000000000b4 .L0 
C:\Users\stapi\AppData\Local\Temp\cca24Nov.s:1225   .text.tlsv1_client_decrypt:00000000000000c0 .L0 
C:\Users\stapi\AppData\Local\Temp\cca24Nov.s:1227   .text.tlsv1_client_decrypt:00000000000000c2 .L0 
C:\Users\stapi\AppData\Local\Temp\cca24Nov.s:1229   .text.tlsv1_client_decrypt:00000000000000c4 .L0 
C:\Users\stapi\AppData\Local\Temp\cca24Nov.s:1234   .text.tlsv1_client_decrypt:00000000000000c6 .L0 
C:\Users\stapi\AppData\Local\Temp\cca24Nov.s:1235   .text.tlsv1_client_decrypt:00000000000000c6 .L0 
C:\Users\stapi\AppData\Local\Temp\cca24Nov.s:1236   .text.tlsv1_client_decrypt:00000000000000c6 .L0 
C:\Users\stapi\AppData\Local\Temp\cca24Nov.s:1241   .text.tlsv1_client_decrypt:00000000000000ca .L0 
C:\Users\stapi\AppData\Local\Temp\cca24Nov.s:1247   .text.tlsv1_client_decrypt:00000000000000ce .L0 
C:\Users\stapi\AppData\Local\Temp\cca24Nov.s:1251   .text.tlsv1_client_decrypt:00000000000000d0 .L0 
C:\Users\stapi\AppData\Local\Temp\cca24Nov.s:1253   .text.tlsv1_client_decrypt:00000000000000d2 .L0 
C:\Users\stapi\AppData\Local\Temp\cca24Nov.s:1254   .text.tlsv1_client_decrypt:00000000000000d2 .L0 
C:\Users\stapi\AppData\Local\Temp\cca24Nov.s:1262   .text.tlsv1_client_decrypt:00000000000000e4 .L0 
C:\Users\stapi\AppData\Local\Temp\cca24Nov.s:1263   .text.tlsv1_client_decrypt:00000000000000e4 .L0 
C:\Users\stapi\AppData\Local\Temp\cca24Nov.s:1265   .text.tlsv1_client_decrypt:00000000000000e8 .L0 
C:\Users\stapi\AppData\Local\Temp\cca24Nov.s:1273   .text.tlsv1_client_decrypt:00000000000000fa .L0 
C:\Users\stapi\AppData\Local\Temp\cca24Nov.s:1274   .text.tlsv1_client_decrypt:00000000000000fa .L0 
C:\Users\stapi\AppData\Local\Temp\cca24Nov.s:1278   .text.tlsv1_client_decrypt:0000000000000104 .L0 
C:\Users\stapi\AppData\Local\Temp\cca24Nov.s:1282   .text.tlsv1_client_decrypt:0000000000000110 .L0 
C:\Users\stapi\AppData\Local\Temp\cca24Nov.s:1283   .text.tlsv1_client_decrypt:0000000000000110 .L0 
C:\Users\stapi\AppData\Local\Temp\cca24Nov.s:1287   .text.tlsv1_client_decrypt:0000000000000114 .L0 
C:\Users\stapi\AppData\Local\Temp\cca24Nov.s:1291   .text.tlsv1_client_decrypt:0000000000000116 .L0 
C:\Users\stapi\AppData\Local\Temp\cca24Nov.s:1296   .text.tlsv1_client_decrypt:000000000000011a .L0 
C:\Users\stapi\AppData\Local\Temp\cca24Nov.s:1297   .text.tlsv1_client_decrypt:000000000000011a .L0 
C:\Users\stapi\AppData\Local\Temp\cca24Nov.s:1298   .text.tlsv1_client_decrypt:000000000000011a .L0 
C:\Users\stapi\AppData\Local\Temp\cca24Nov.s:1300   .text.tlsv1_client_decrypt:000000000000011e .L0 
C:\Users\stapi\AppData\Local\Temp\cca24Nov.s:1301   .text.tlsv1_client_decrypt:000000000000011e .L0 
C:\Users\stapi\AppData\Local\Temp\cca24Nov.s:1306   .text.tlsv1_client_decrypt:0000000000000122 .L0 
C:\Users\stapi\AppData\Local\Temp\cca24Nov.s:1307   .text.tlsv1_client_decrypt:0000000000000122 .L0 
C:\Users\stapi\AppData\Local\Temp\cca24Nov.s:1312   .text.tlsv1_client_decrypt:0000000000000126 .L0 
C:\Users\stapi\AppData\Local\Temp\cca24Nov.s:1313   .text.tlsv1_client_decrypt:0000000000000126 .L0 
C:\Users\stapi\AppData\Local\Temp\cca24Nov.s:1316   .text.tlsv1_client_decrypt:0000000000000128 .L0 
C:\Users\stapi\AppData\Local\Temp\cca24Nov.s:1317   .text.tlsv1_client_decrypt:0000000000000128 .L0 
C:\Users\stapi\AppData\Local\Temp\cca24Nov.s:1324   .text.tlsv1_client_decrypt:000000000000013a .L0 
C:\Users\stapi\AppData\Local\Temp\cca24Nov.s:1325   .text.tlsv1_client_decrypt:000000000000013a .L0 
C:\Users\stapi\AppData\Local\Temp\cca24Nov.s:1332   .text.tlsv1_client_decrypt:0000000000000148 .L0 
C:\Users\stapi\AppData\Local\Temp\cca24Nov.s:1336   .text.tlsv1_client_decrypt:0000000000000154 .L0 
C:\Users\stapi\AppData\Local\Temp\cca24Nov.s:1337   .text.tlsv1_client_decrypt:0000000000000154 .L0 
C:\Users\stapi\AppData\Local\Temp\cca24Nov.s:1339   .text.tlsv1_client_decrypt:0000000000000158 .L0 
C:\Users\stapi\AppData\Local\Temp\cca24Nov.s:1340   .text.tlsv1_client_decrypt:0000000000000158 .L0 
C:\Users\stapi\AppData\Local\Temp\cca24Nov.s:1342   .text.tlsv1_client_decrypt:000000000000015c .L0 
C:\Users\stapi\AppData\Local\Temp\cca24Nov.s:1343   .text.tlsv1_client_decrypt:000000000000015c .L0 
C:\Users\stapi\AppData\Local\Temp\cca24Nov.s:1345   .text.tlsv1_client_decrypt:0000000000000160 .L0 
C:\Users\stapi\AppData\Local\Temp\cca24Nov.s:1346   .text.tlsv1_client_decrypt:0000000000000160 .L0 
C:\Users\stapi\AppData\Local\Temp\cca24Nov.s:1352   .text.tlsv1_client_decrypt:0000000000000166 .L0 
C:\Users\stapi\AppData\Local\Temp\cca24Nov.s:1353   .text.tlsv1_client_decrypt:0000000000000166 .L0 
C:\Users\stapi\AppData\Local\Temp\cca24Nov.s:1354   .text.tlsv1_client_decrypt:0000000000000166 .L0 
C:\Users\stapi\AppData\Local\Temp\cca24Nov.s:1358   .text.tlsv1_client_decrypt:0000000000000168 .L0 
C:\Users\stapi\AppData\Local\Temp\cca24Nov.s:1359   .text.tlsv1_client_decrypt:000000000000016a .L0 
C:\Users\stapi\AppData\Local\Temp\cca24Nov.s:1360   .text.tlsv1_client_decrypt:000000000000016a .L0 
C:\Users\stapi\AppData\Local\Temp\cca24Nov.s:1362   .text.tlsv1_client_decrypt:0000000000000172 .L0 
C:\Users\stapi\AppData\Local\Temp\cca24Nov.s:1363   .text.tlsv1_client_decrypt:0000000000000172 .L0 
C:\Users\stapi\AppData\Local\Temp\cca24Nov.s:1364   .text.tlsv1_client_decrypt:0000000000000172 .L0 
C:\Users\stapi\AppData\Local\Temp\cca24Nov.s:1365   .text.tlsv1_client_decrypt:0000000000000172 .L0 
C:\Users\stapi\AppData\Local\Temp\cca24Nov.s:1366   .text.tlsv1_client_decrypt:0000000000000172 .L0 
C:\Users\stapi\AppData\Local\Temp\cca24Nov.s:1367   .text.tlsv1_client_decrypt:0000000000000172 .L0 
C:\Users\stapi\AppData\Local\Temp\cca24Nov.s:1368   .text.tlsv1_client_decrypt:0000000000000172 .L0 
C:\Users\stapi\AppData\Local\Temp\cca24Nov.s:1369   .text.tlsv1_client_decrypt:0000000000000172 .L0 
C:\Users\stapi\AppData\Local\Temp\cca24Nov.s:1370   .text.tlsv1_client_decrypt:0000000000000172 .L0 
C:\Users\stapi\AppData\Local\Temp\cca24Nov.s:1371   .text.tlsv1_client_decrypt:0000000000000172 .L0 
C:\Users\stapi\AppData\Local\Temp\cca24Nov.s:1372   .text.tlsv1_client_decrypt:0000000000000172 .L0 
C:\Users\stapi\AppData\Local\Temp\cca24Nov.s:1373   .text.tlsv1_client_decrypt:0000000000000172 .L0 
C:\Users\stapi\AppData\Local\Temp\cca24Nov.s:1374   .text.tlsv1_client_decrypt:0000000000000172 .L0 
C:\Users\stapi\AppData\Local\Temp\cca24Nov.s:1375   .text.tlsv1_client_decrypt:0000000000000172 .L0 
C:\Users\stapi\AppData\Local\Temp\cca24Nov.s:1378   .text.tlsv1_client_decrypt:0000000000000172 .L0 
C:\Users\stapi\AppData\Local\Temp\cca24Nov.s:1380   .text.tlsv1_client_decrypt:0000000000000172 .L0 
C:\Users\stapi\AppData\Local\Temp\cca24Nov.s:1381   .text.tlsv1_client_decrypt:0000000000000172 .L0 
C:\Users\stapi\AppData\Local\Temp\cca24Nov.s:1383   .text.tlsv1_client_decrypt:0000000000000176 .L0 
C:\Users\stapi\AppData\Local\Temp\cca24Nov.s:1384   .text.tlsv1_client_decrypt:0000000000000176 .L0 
C:\Users\stapi\AppData\Local\Temp\cca24Nov.s:1387   .text.tlsv1_client_decrypt:000000000000017c .L0 
C:\Users\stapi\AppData\Local\Temp\cca24Nov.s:1394   .text.tlsv1_client_decrypt:000000000000018e .L0 
C:\Users\stapi\AppData\Local\Temp\cca24Nov.s:1395   .text.tlsv1_client_decrypt:000000000000018e .L0 
C:\Users\stapi\AppData\Local\Temp\cca24Nov.s:1400   .text.tlsv1_client_decrypt:0000000000000194 .L0 
C:\Users\stapi\AppData\Local\Temp\cca24Nov.s:1408   .text.tlsv1_client_decrypt:00000000000001aa .L0 
C:\Users\stapi\AppData\Local\Temp\cca24Nov.s:1409   .text.tlsv1_client_decrypt:00000000000001aa .L0 
C:\Users\stapi\AppData\Local\Temp\cca24Nov.s:1413   .text.tlsv1_client_decrypt:00000000000001b2 .L0 
C:\Users\stapi\AppData\Local\Temp\cca24Nov.s:1414   .text.tlsv1_client_decrypt:00000000000001b2 .L0 
C:\Users\stapi\AppData\Local\Temp\cca24Nov.s:1419   .text.tlsv1_client_decrypt:00000000000001b6 .L0 
C:\Users\stapi\AppData\Local\Temp\cca24Nov.s:1420   .text.tlsv1_client_decrypt:00000000000001b6 .L0 
C:\Users\stapi\AppData\Local\Temp\cca24Nov.s:1425   .text.tlsv1_client_decrypt:00000000000001bc .L0 
C:\Users\stapi\AppData\Local\Temp\cca24Nov.s:1426   .text.tlsv1_client_decrypt:00000000000001bc .L0 
C:\Users\stapi\AppData\Local\Temp\cca24Nov.s:1428   .text.tlsv1_client_decrypt:00000000000001c0 .L0 
C:\Users\stapi\AppData\Local\Temp\cca24Nov.s:1436   .text.tlsv1_client_decrypt:00000000000001d6 .L0 
C:\Users\stapi\AppData\Local\Temp\cca24Nov.s:1437   .text.tlsv1_client_decrypt:00000000000001d6 .L0 
C:\Users\stapi\AppData\Local\Temp\cca24Nov.s:1442   .text.tlsv1_client_decrypt:00000000000001da .L0 
C:\Users\stapi\AppData\Local\Temp\cca24Nov.s:1448   .text.tlsv1_client_decrypt:00000000000001e8 .L0 
C:\Users\stapi\AppData\Local\Temp\cca24Nov.s:1455   .text.tlsv1_client_global_init:0000000000000000 tlsv1_client_global_init
C:\Users\stapi\AppData\Local\Temp\cca24Nov.s:1458   .text.tlsv1_client_global_init:0000000000000000 .L0 
C:\Users\stapi\AppData\Local\Temp\cca24Nov.s:1459   .text.tlsv1_client_global_init:0000000000000000 .L0 
C:\Users\stapi\AppData\Local\Temp\cca24Nov.s:1460   .text.tlsv1_client_global_init:0000000000000000 .L0 
C:\Users\stapi\AppData\Local\Temp\cca24Nov.s:1461   .text.tlsv1_client_global_init:0000000000000000 .L0 
C:\Users\stapi\AppData\Local\Temp\cca24Nov.s:1463   .text.tlsv1_client_global_init:0000000000000008 .L0 
C:\Users\stapi\AppData\Local\Temp\cca24Nov.s:1470   .text.tlsv1_client_global_deinit:0000000000000000 tlsv1_client_global_deinit
C:\Users\stapi\AppData\Local\Temp\cca24Nov.s:1473   .text.tlsv1_client_global_deinit:0000000000000000 .L0 
C:\Users\stapi\AppData\Local\Temp\cca24Nov.s:1474   .text.tlsv1_client_global_deinit:0000000000000000 .L0 
C:\Users\stapi\AppData\Local\Temp\cca24Nov.s:1475   .text.tlsv1_client_global_deinit:0000000000000000 .L0 
C:\Users\stapi\AppData\Local\Temp\cca24Nov.s:1477   .text.tlsv1_client_global_deinit:0000000000000008 .L0 
C:\Users\stapi\AppData\Local\Temp\cca24Nov.s:1488   .text.tlsv1_client_init:0000000000000000 tlsv1_client_init
C:\Users\stapi\AppData\Local\Temp\cca24Nov.s:1491   .text.tlsv1_client_init:0000000000000000 .L0 
C:\Users\stapi\AppData\Local\Temp\cca24Nov.s:1492   .text.tlsv1_client_init:0000000000000000 .L0 
C:\Users\stapi\AppData\Local\Temp\cca24Nov.s:1493   .text.tlsv1_client_init:0000000000000008 .L0 
C:\Users\stapi\AppData\Local\Temp\cca24Nov.s:1494   .text.tlsv1_client_init:0000000000000008 .L0 
C:\Users\stapi\AppData\Local\Temp\cca24Nov.s:1495   .text.tlsv1_client_init:0000000000000008 .L0 
C:\Users\stapi\AppData\Local\Temp\cca24Nov.s:1497   .text.tlsv1_client_init:0000000000000008 .L0 
C:\Users\stapi\AppData\Local\Temp\cca24Nov.s:1498   .text.tlsv1_client_init:0000000000000008 .L0 
C:\Users\stapi\AppData\Local\Temp\cca24Nov.s:1499   .text.tlsv1_client_init:0000000000000008 .L0 
C:\Users\stapi\AppData\Local\Temp\cca24Nov.s:1500   .text.tlsv1_client_init:0000000000000008 .L0 
C:\Users\stapi\AppData\Local\Temp\cca24Nov.s:1501   .text.tlsv1_client_init:0000000000000008 .L0 
C:\Users\stapi\AppData\Local\Temp\cca24Nov.s:1507   .text.tlsv1_client_init:0000000000000016 .L0 
C:\Users\stapi\AppData\Local\Temp\cca24Nov.s:1508   .text.tlsv1_client_init:0000000000000016 .L0 
C:\Users\stapi\AppData\Local\Temp\cca24Nov.s:1510   .text.tlsv1_client_init:0000000000000018 .L0 
C:\Users\stapi\AppData\Local\Temp\cca24Nov.s:1511   .text.tlsv1_client_init:0000000000000018 .L0 
C:\Users\stapi\AppData\Local\Temp\cca24Nov.s:1513   .text.tlsv1_client_init:000000000000001c .L0 
C:\Users\stapi\AppData\Local\Temp\cca24Nov.s:1514   .text.tlsv1_client_init:000000000000001c .L0 
C:\Users\stapi\AppData\Local\Temp\cca24Nov.s:1518   .text.tlsv1_client_init:0000000000000028 .L0 
C:\Users\stapi\AppData\Local\Temp\cca24Nov.s:1520   .text.tlsv1_client_init:000000000000002c .L0 
C:\Users\stapi\AppData\Local\Temp\cca24Nov.s:1526   .text.tlsv1_client_init:000000000000003e .L0 
C:\Users\stapi\AppData\Local\Temp\cca24Nov.s:1530   .text.tlsv1_client_init:0000000000000048 .L0 
C:\Users\stapi\AppData\Local\Temp\cca24Nov.s:1531   .text.tlsv1_client_init:0000000000000048 .L0 
C:\Users\stapi\AppData\Local\Temp\cca24Nov.s:1535   .text.tlsv1_client_init:000000000000004a .L0 
C:\Users\stapi\AppData\Local\Temp\cca24Nov.s:1537   .text.tlsv1_client_init:0000000000000054 .L0 
C:\Users\stapi\AppData\Local\Temp\cca24Nov.s:1538   .text.tlsv1_client_init:0000000000000054 .L0 
C:\Users\stapi\AppData\Local\Temp\cca24Nov.s:1539   .text.tlsv1_client_init:0000000000000054 .L0 
C:\Users\stapi\AppData\Local\Temp\cca24Nov.s:1540   .text.tlsv1_client_init:0000000000000054 .L0 
C:\Users\stapi\AppData\Local\Temp\cca24Nov.s:1543   .text.tlsv1_client_init:0000000000000054 .L0 
C:\Users\stapi\AppData\Local\Temp\cca24Nov.s:1545   .text.tlsv1_client_init:0000000000000054 .L0 
C:\Users\stapi\AppData\Local\Temp\cca24Nov.s:1546   .text.tlsv1_client_init:0000000000000054 .L0 
C:\Users\stapi\AppData\Local\Temp\cca24Nov.s:1547   .text.tlsv1_client_init:0000000000000054 .L0 
C:\Users\stapi\AppData\Local\Temp\cca24Nov.s:1548   .text.tlsv1_client_init:0000000000000054 .L0 
C:\Users\stapi\AppData\Local\Temp\cca24Nov.s:1552   .text.tlsv1_client_init:000000000000005c .L0 
C:\Users\stapi\AppData\Local\Temp\cca24Nov.s:1553   .text.tlsv1_client_init:000000000000005c .L0 
C:\Users\stapi\AppData\Local\Temp\cca24Nov.s:1557   .text.tlsv1_client_init:0000000000000064 .L0 
C:\Users\stapi\AppData\Local\Temp\cca24Nov.s:1558   .text.tlsv1_client_init:0000000000000064 .L0 
C:\Users\stapi\AppData\Local\Temp\cca24Nov.s:1562   .text.tlsv1_client_init:000000000000006c .L0 
C:\Users\stapi\AppData\Local\Temp\cca24Nov.s:1563   .text.tlsv1_client_init:000000000000006c .L0 
C:\Users\stapi\AppData\Local\Temp\cca24Nov.s:1567   .text.tlsv1_client_init:0000000000000074 .L0 
C:\Users\stapi\AppData\Local\Temp\cca24Nov.s:1568   .text.tlsv1_client_init:0000000000000074 .L0 
C:\Users\stapi\AppData\Local\Temp\cca24Nov.s:1572   .text.tlsv1_client_init:000000000000007c .L0 
C:\Users\stapi\AppData\Local\Temp\cca24Nov.s:1573   .text.tlsv1_client_init:000000000000007c .L0 
C:\Users\stapi\AppData\Local\Temp\cca24Nov.s:1577   .text.tlsv1_client_init:0000000000000084 .L0 
C:\Users\stapi\AppData\Local\Temp\cca24Nov.s:1578   .text.tlsv1_client_init:0000000000000084 .L0 
C:\Users\stapi\AppData\Local\Temp\cca24Nov.s:1582   .text.tlsv1_client_init:000000000000008c .L0 
C:\Users\stapi\AppData\Local\Temp\cca24Nov.s:1583   .text.tlsv1_client_init:000000000000008c .L0 
C:\Users\stapi\AppData\Local\Temp\cca24Nov.s:1587   .text.tlsv1_client_init:0000000000000094 .L0 
C:\Users\stapi\AppData\Local\Temp\cca24Nov.s:1588   .text.tlsv1_client_init:0000000000000094 .L0 
C:\Users\stapi\AppData\Local\Temp\cca24Nov.s:1592   .text.tlsv1_client_init:000000000000009a .L0 
C:\Users\stapi\AppData\Local\Temp\cca24Nov.s:1593   .text.tlsv1_client_init:000000000000009a .L0 
C:\Users\stapi\AppData\Local\Temp\cca24Nov.s:1597   .text.tlsv1_client_init:00000000000000a0 .L0 
C:\Users\stapi\AppData\Local\Temp\cca24Nov.s:1598   .text.tlsv1_client_init:00000000000000a0 .L0 
C:\Users\stapi\AppData\Local\Temp\cca24Nov.s:1602   .text.tlsv1_client_init:00000000000000a6 .L0 
C:\Users\stapi\AppData\Local\Temp\cca24Nov.s:1603   .text.tlsv1_client_init:00000000000000a6 .L0 
C:\Users\stapi\AppData\Local\Temp\cca24Nov.s:1606   .text.tlsv1_client_init:00000000000000ac .L0 
C:\Users\stapi\AppData\Local\Temp\cca24Nov.s:1607   .text.tlsv1_client_init:00000000000000ac .L0 
C:\Users\stapi\AppData\Local\Temp\cca24Nov.s:1610   .text.tlsv1_client_init:00000000000000b2 .L0 
C:\Users\stapi\AppData\Local\Temp\cca24Nov.s:1611   .text.tlsv1_client_init:00000000000000b2 .L0 
C:\Users\stapi\AppData\Local\Temp\cca24Nov.s:1614   .text.tlsv1_client_init:00000000000000ba .L0 
C:\Users\stapi\AppData\Local\Temp\cca24Nov.s:1615   .text.tlsv1_client_init:00000000000000ba .L0 
C:\Users\stapi\AppData\Local\Temp\cca24Nov.s:1616   .text.tlsv1_client_init:00000000000000bc .L0 
C:\Users\stapi\AppData\Local\Temp\cca24Nov.s:1623   .text.tlsv1_client_deinit:0000000000000000 tlsv1_client_deinit
C:\Users\stapi\AppData\Local\Temp\cca24Nov.s:1626   .text.tlsv1_client_deinit:0000000000000000 .L0 
C:\Users\stapi\AppData\Local\Temp\cca24Nov.s:1628   .text.tlsv1_client_deinit:0000000000000000 .L0 
C:\Users\stapi\AppData\Local\Temp\cca24Nov.s:1629   .text.tlsv1_client_deinit:0000000000000008 .L0 
C:\Users\stapi\AppData\Local\Temp\cca24Nov.s:1630   .text.tlsv1_client_deinit:0000000000000008 .L0 
C:\Users\stapi\AppData\Local\Temp\cca24Nov.s:1631   .text.tlsv1_client_deinit:0000000000000008 .L0 
C:\Users\stapi\AppData\Local\Temp\cca24Nov.s:1632   .text.tlsv1_client_deinit:0000000000000008 .L0 
C:\Users\stapi\AppData\Local\Temp\cca24Nov.s:1634   .text.tlsv1_client_deinit:0000000000000008 .L0 
C:\Users\stapi\AppData\Local\Temp\cca24Nov.s:1635   .text.tlsv1_client_deinit:0000000000000008 .L0 
C:\Users\stapi\AppData\Local\Temp\cca24Nov.s:1637   .text.tlsv1_client_deinit:000000000000000a .L0 
C:\Users\stapi\AppData\Local\Temp\cca24Nov.s:1640   .text.tlsv1_client_deinit:000000000000000e .L0 
C:\Users\stapi\AppData\Local\Temp\cca24Nov.s:1642   .text.tlsv1_client_deinit:0000000000000012 .L0 
C:\Users\stapi\AppData\Local\Temp\cca24Nov.s:1645   .text.tlsv1_client_deinit:000000000000001a .L0 
C:\Users\stapi\AppData\Local\Temp\cca24Nov.s:1650   .text.tlsv1_client_deinit:0000000000000026 .L0 
C:\Users\stapi\AppData\Local\Temp\cca24Nov.s:1654   .text.tlsv1_client_deinit:0000000000000030 .L0 
C:\Users\stapi\AppData\Local\Temp\cca24Nov.s:1658   .text.tlsv1_client_deinit:000000000000003a .L0 
C:\Users\stapi\AppData\Local\Temp\cca24Nov.s:1663   .text.tlsv1_client_deinit:0000000000000048 .L0 
C:\Users\stapi\AppData\Local\Temp\cca24Nov.s:1665   .text.tlsv1_client_deinit:000000000000004a .L0 
C:\Users\stapi\AppData\Local\Temp\cca24Nov.s:1667   .text.tlsv1_client_deinit:000000000000004e .L0 
C:\Users\stapi\AppData\Local\Temp\cca24Nov.s:1670   .text.tlsv1_client_deinit:0000000000000056 .L0 
C:\Users\stapi\AppData\Local\Temp\cca24Nov.s:1674   .text.tlsv1_client_deinit:0000000000000060 .L0 
C:\Users\stapi\AppData\Local\Temp\cca24Nov.s:1678   .text.tlsv1_client_deinit:000000000000006a .L0 
C:\Users\stapi\AppData\Local\Temp\cca24Nov.s:1682   .text.tlsv1_client_deinit:0000000000000074 .L0 
C:\Users\stapi\AppData\Local\Temp\cca24Nov.s:1686   .text.tlsv1_client_deinit:000000000000007e .L0 
C:\Users\stapi\AppData\Local\Temp\cca24Nov.s:1690   .text.tlsv1_client_deinit:0000000000000088 .L0 
C:\Users\stapi\AppData\Local\Temp\cca24Nov.s:1691   .text.tlsv1_client_deinit:0000000000000090 .L0 
C:\Users\stapi\AppData\Local\Temp\cca24Nov.s:1692   .text.tlsv1_client_deinit:0000000000000090 .L0 
C:\Users\stapi\AppData\Local\Temp\cca24Nov.s:1693   .text.tlsv1_client_deinit:0000000000000090 .L0 
C:\Users\stapi\AppData\Local\Temp\cca24Nov.s:1694   .text.tlsv1_client_deinit:0000000000000090 .L0 
C:\Users\stapi\AppData\Local\Temp\cca24Nov.s:1695   .text.tlsv1_client_deinit:0000000000000090 .L0 
C:\Users\stapi\AppData\Local\Temp\cca24Nov.s:1702   .text.tlsv1_client_established:0000000000000000 tlsv1_client_established
C:\Users\stapi\AppData\Local\Temp\cca24Nov.s:1705   .text.tlsv1_client_established:0000000000000000 .L0 
C:\Users\stapi\AppData\Local\Temp\cca24Nov.s:1707   .text.tlsv1_client_established:0000000000000000 .L0 
C:\Users\stapi\AppData\Local\Temp\cca24Nov.s:1708   .text.tlsv1_client_established:0000000000000000 .L0 
C:\Users\stapi\AppData\Local\Temp\cca24Nov.s:1709   .text.tlsv1_client_established:0000000000000000 .L0 
C:\Users\stapi\AppData\Local\Temp\cca24Nov.s:1713   .text.tlsv1_client_established:0000000000000004 .L0 
C:\Users\stapi\AppData\Local\Temp\cca24Nov.s:1715   .text.tlsv1_client_established:000000000000000a .L0 
C:\Users\stapi\AppData\Local\Temp\cca24Nov.s:1722   .text.tlsv1_client_prf:0000000000000000 tlsv1_client_prf
C:\Users\stapi\AppData\Local\Temp\cca24Nov.s:1725   .text.tlsv1_client_prf:0000000000000000 .L0 
C:\Users\stapi\AppData\Local\Temp\cca24Nov.s:1727   .text.tlsv1_client_prf:0000000000000000 .L0 
C:\Users\stapi\AppData\Local\Temp\cca24Nov.s:1728   .text.tlsv1_client_prf:0000000000000008 .L0 
C:\Users\stapi\AppData\Local\Temp\cca24Nov.s:1729   .text.tlsv1_client_prf:0000000000000008 .L0 
C:\Users\stapi\AppData\Local\Temp\cca24Nov.s:1730   .text.tlsv1_client_prf:0000000000000008 .L0 
C:\Users\stapi\AppData\Local\Temp\cca24Nov.s:1731   .text.tlsv1_client_prf:0000000000000008 .L0 
C:\Users\stapi\AppData\Local\Temp\cca24Nov.s:1732   .text.tlsv1_client_prf:0000000000000008 .L0 
C:\Users\stapi\AppData\Local\Temp\cca24Nov.s:1733   .text.tlsv1_client_prf:0000000000000008 .L0 
C:\Users\stapi\AppData\Local\Temp\cca24Nov.s:1734   .text.tlsv1_client_prf:0000000000000008 .L0 
C:\Users\stapi\AppData\Local\Temp\cca24Nov.s:1735   .text.tlsv1_client_prf:0000000000000008 .L0 
C:\Users\stapi\AppData\Local\Temp\cca24Nov.s:1736   .text.tlsv1_client_prf:0000000000000008 .L0 
C:\Users\stapi\AppData\Local\Temp\cca24Nov.s:1737   .text.tlsv1_client_prf:0000000000000008 .L0 
C:\Users\stapi\AppData\Local\Temp\cca24Nov.s:1738   .text.tlsv1_client_prf:0000000000000008 .L0 
C:\Users\stapi\AppData\Local\Temp\cca24Nov.s:1739   .text.tlsv1_client_prf:0000000000000008 .L0 
C:\Users\stapi\AppData\Local\Temp\cca24Nov.s:1740   .text.tlsv1_client_prf:0000000000000008 .L0 
C:\Users\stapi\AppData\Local\Temp\cca24Nov.s:1741   .text.tlsv1_client_prf:0000000000000008 .L0 
C:\Users\stapi\AppData\Local\Temp\cca24Nov.s:1743   .text.tlsv1_client_prf:0000000000000008 .L0 
C:\Users\stapi\AppData\Local\Temp\cca24Nov.s:1745   .text.tlsv1_client_prf:0000000000000008 .L0 
C:\Users\stapi\AppData\Local\Temp\cca24Nov.s:1746   .text.tlsv1_client_prf:0000000000000008 .L0 
C:\Users\stapi\AppData\Local\Temp\cca24Nov.s:1747   .text.tlsv1_client_prf:0000000000000008 .L0 
C:\Users\stapi\AppData\Local\Temp\cca24Nov.s:1748   .text.tlsv1_client_prf:0000000000000008 .L0 
C:\Users\stapi\AppData\Local\Temp\cca24Nov.s:1750   .text.tlsv1_client_prf:000000000000000a .L0 
C:\Users\stapi\AppData\Local\Temp\cca24Nov.s:1753   .text.tlsv1_client_prf:000000000000000c .L0 
C:\Users\stapi\AppData\Local\Temp\cca24Nov.s:1755   .text.tlsv1_client_prf:000000000000000e .L0 
C:\Users\stapi\AppData\Local\Temp\cca24Nov.s:1761   .text.tlsv1_client_prf:0000000000000014 .L0 
C:\Users\stapi\AppData\Local\Temp\cca24Nov.s:1764   .text.tlsv1_client_prf:0000000000000016 .L0 
C:\Users\stapi\AppData\Local\Temp\cca24Nov.s:1766   .text.tlsv1_client_prf:0000000000000020 .L0 
C:\Users\stapi\AppData\Local\Temp\cca24Nov.s:1767   .text.tlsv1_client_prf:0000000000000020 .L0 
C:\Users\stapi\AppData\Local\Temp\cca24Nov.s:1768   .text.tlsv1_client_prf:0000000000000020 .L0 
C:\Users\stapi\AppData\Local\Temp\cca24Nov.s:1769   .text.tlsv1_client_prf:0000000000000020 .L0 
C:\Users\stapi\AppData\Local\Temp\cca24Nov.s:1770   .text.tlsv1_client_prf:0000000000000020 .L0 
C:\Users\stapi\AppData\Local\Temp\cca24Nov.s:1771   .text.tlsv1_client_prf:0000000000000020 .L0 
C:\Users\stapi\AppData\Local\Temp\cca24Nov.s:1772   .text.tlsv1_client_prf:0000000000000020 .L0 
C:\Users\stapi\AppData\Local\Temp\cca24Nov.s:1773   .text.tlsv1_client_prf:0000000000000020 .L0 
C:\Users\stapi\AppData\Local\Temp\cca24Nov.s:1774   .text.tlsv1_client_prf:0000000000000020 .L0 
C:\Users\stapi\AppData\Local\Temp\cca24Nov.s:1775   .text.tlsv1_client_prf:0000000000000020 .L0 
C:\Users\stapi\AppData\Local\Temp\cca24Nov.s:1776   .text.tlsv1_client_prf:0000000000000020 .L0 
C:\Users\stapi\AppData\Local\Temp\cca24Nov.s:1777   .text.tlsv1_client_prf:0000000000000020 .L0 
C:\Users\stapi\AppData\Local\Temp\cca24Nov.s:1778   .text.tlsv1_client_prf:0000000000000020 .L0 
C:\Users\stapi\AppData\Local\Temp\cca24Nov.s:1779   .text.tlsv1_client_prf:0000000000000020 .L0 
C:\Users\stapi\AppData\Local\Temp\cca24Nov.s:1780   .text.tlsv1_client_prf:0000000000000020 .L0 
C:\Users\stapi\AppData\Local\Temp\cca24Nov.s:1783   .text.tlsv1_client_prf:0000000000000020 .L0 
C:\Users\stapi\AppData\Local\Temp\cca24Nov.s:1785   .text.tlsv1_client_prf:0000000000000020 .L0 
C:\Users\stapi\AppData\Local\Temp\cca24Nov.s:1788   .text.tlsv1_client_prf:0000000000000024 .L0 
C:\Users\stapi\AppData\Local\Temp\cca24Nov.s:1789   .text.tlsv1_client_prf:0000000000000024 .L0 
C:\Users\stapi\AppData\Local\Temp\cca24Nov.s:1795   .text.tlsv1_client_prf:0000000000000030 .L0 
C:\Users\stapi\AppData\Local\Temp\cca24Nov.s:1796   .text.tlsv1_client_prf:0000000000000030 .L0 
C:\Users\stapi\AppData\Local\Temp\cca24Nov.s:1798   .text.tlsv1_client_prf:0000000000000034 .L0 
C:\Users\stapi\AppData\Local\Temp\cca24Nov.s:1801   .text.tlsv1_client_prf:0000000000000036 .L0 
C:\Users\stapi\AppData\Local\Temp\cca24Nov.s:1802   .text.tlsv1_client_prf:0000000000000036 .L0 
C:\Users\stapi\AppData\Local\Temp\cca24Nov.s:1806   .text.tlsv1_client_prf:000000000000003a .L0 
C:\Users\stapi\AppData\Local\Temp\cca24Nov.s:1807   .text.tlsv1_client_prf:000000000000003a .L0 
C:\Users\stapi\AppData\Local\Temp\cca24Nov.s:1813   .text.tlsv1_client_prf:0000000000000046 .L0 
C:\Users\stapi\AppData\Local\Temp\cca24Nov.s:1814   .text.tlsv1_client_prf:0000000000000046 .L0 
C:\Users\stapi\AppData\Local\Temp\cca24Nov.s:1816   .text.tlsv1_client_prf:0000000000000048 .L0 
C:\Users\stapi\AppData\Local\Temp\cca24Nov.s:1817   .text.tlsv1_client_prf:0000000000000048 .L0 
C:\Users\stapi\AppData\Local\Temp\cca24Nov.s:1819   .text.tlsv1_client_prf:000000000000004c .L0 
C:\Users\stapi\AppData\Local\Temp\cca24Nov.s:1821   .text.tlsv1_client_prf:0000000000000050 .L0 
C:\Users\stapi\AppData\Local\Temp\cca24Nov.s:1823   .text.tlsv1_client_prf:0000000000000054 .L0 
C:\Users\stapi\AppData\Local\Temp\cca24Nov.s:1825   .text.tlsv1_client_prf:0000000000000058 .L0 
C:\Users\stapi\AppData\Local\Temp\cca24Nov.s:1827   .text.tlsv1_client_prf:000000000000005c .L0 
C:\Users\stapi\AppData\Local\Temp\cca24Nov.s:1831   .text.tlsv1_client_prf:0000000000000066 .L0 
C:\Users\stapi\AppData\Local\Temp\cca24Nov.s:1835   .text.tlsv1_client_prf:000000000000006c .L0 
C:\Users\stapi\AppData\Local\Temp\cca24Nov.s:1839   .text.tlsv1_client_prf:0000000000000076 .L0 
C:\Users\stapi\AppData\Local\Temp\cca24Nov.s:1840   .text.tlsv1_client_prf:0000000000000076 .L0 
C:\Users\stapi\AppData\Local\Temp\cca24Nov.s:1843   .text.tlsv1_client_prf:000000000000007a .L0 
C:\Users\stapi\AppData\Local\Temp\cca24Nov.s:1846   .text.tlsv1_client_prf:000000000000007a .L0 
C:\Users\stapi\AppData\Local\Temp\cca24Nov.s:1847   .text.tlsv1_client_prf:000000000000007a .L0 
C:\Users\stapi\AppData\Local\Temp\cca24Nov.s:1848   .text.tlsv1_client_prf:000000000000007a .L0 
C:\Users\stapi\AppData\Local\Temp\cca24Nov.s:1852   .text.tlsv1_client_prf:0000000000000084 .L0 
C:\Users\stapi\AppData\Local\Temp\cca24Nov.s:1853   .text.tlsv1_client_prf:0000000000000084 .L0 
C:\Users\stapi\AppData\Local\Temp\cca24Nov.s:1858   .text.tlsv1_client_prf:0000000000000088 .L0 
C:\Users\stapi\AppData\Local\Temp\cca24Nov.s:1859   .text.tlsv1_client_prf:0000000000000088 .L0 
C:\Users\stapi\AppData\Local\Temp\cca24Nov.s:1867   .text.tlsv1_client_prf:0000000000000098 .L0 
C:\Users\stapi\AppData\Local\Temp\cca24Nov.s:1868   .text.tlsv1_client_prf:0000000000000098 .L0 
C:\Users\stapi\AppData\Local\Temp\cca24Nov.s:1881   .text.tlsv1_client_prf:00000000000000b8 .L0 
C:\Users\stapi\AppData\Local\Temp\cca24Nov.s:1885   .text.tlsv1_client_prf:00000000000000c2 .L0 
C:\Users\stapi\AppData\Local\Temp\cca24Nov.s:1886   .text.tlsv1_client_prf:00000000000000c2 .L0 
C:\Users\stapi\AppData\Local\Temp\cca24Nov.s:1890   .text.tlsv1_client_prf:00000000000000c4 .L0 
C:\Users\stapi\AppData\Local\Temp\cca24Nov.s:1894   .text.tlsv1_client_prf:00000000000000ce .L0 
C:\Users\stapi\AppData\Local\Temp\cca24Nov.s:1897   .text.tlsv1_client_prf:00000000000000d6 .L0 
C:\Users\stapi\AppData\Local\Temp\cca24Nov.s:1968   .text.tlsv1_client_get_cipher:0000000000000000 tlsv1_client_get_cipher
C:\Users\stapi\AppData\Local\Temp\cca24Nov.s:1971   .text.tlsv1_client_get_cipher:0000000000000000 .L0 
C:\Users\stapi\AppData\Local\Temp\cca24Nov.s:1973   .text.tlsv1_client_get_cipher:0000000000000000 .L0 
C:\Users\stapi\AppData\Local\Temp\cca24Nov.s:1974   .text.tlsv1_client_get_cipher:0000000000000008 .L0 
C:\Users\stapi\AppData\Local\Temp\cca24Nov.s:1975   .text.tlsv1_client_get_cipher:0000000000000008 .L0 
C:\Users\stapi\AppData\Local\Temp\cca24Nov.s:1976   .text.tlsv1_client_get_cipher:0000000000000008 .L0 
C:\Users\stapi\AppData\Local\Temp\cca24Nov.s:1978   .text.tlsv1_client_get_cipher:0000000000000008 .L0 
C:\Users\stapi\AppData\Local\Temp\cca24Nov.s:1979   .text.tlsv1_client_get_cipher:0000000000000008 .L0 
C:\Users\stapi\AppData\Local\Temp\cca24Nov.s:1980   .text.tlsv1_client_get_cipher:0000000000000008 .L0 
C:\Users\stapi\AppData\Local\Temp\cca24Nov.s:1982   .text.tlsv1_client_get_cipher:000000000000000c .L0 
C:\Users\stapi\AppData\Local\Temp\cca24Nov.s:1984   .text.tlsv1_client_get_cipher:0000000000000010 .L0 
C:\Users\stapi\AppData\Local\Temp\cca24Nov.s:1987   .text.tlsv1_client_get_cipher:0000000000000014 .L0 
C:\Users\stapi\AppData\Local\Temp\cca24Nov.s:2031   .text.tlsv1_client_get_cipher:000000000000004e .L0 
C:\Users\stapi\AppData\Local\Temp\cca24Nov.s:2036   .text.tlsv1_client_get_cipher:0000000000000056 .L0 
C:\Users\stapi\AppData\Local\Temp\cca24Nov.s:2037   .text.tlsv1_client_get_cipher:0000000000000056 .L0 
C:\Users\stapi\AppData\Local\Temp\cca24Nov.s:2046   .text.tlsv1_client_get_cipher:0000000000000064 .L0 
C:\Users\stapi\AppData\Local\Temp\cca24Nov.s:2050   .text.tlsv1_client_get_cipher:000000000000006a .L0 
C:\Users\stapi\AppData\Local\Temp\cca24Nov.s:2051   .text.tlsv1_client_get_cipher:0000000000000072 .L0 
C:\Users\stapi\AppData\Local\Temp\cca24Nov.s:2052   .text.tlsv1_client_get_cipher:0000000000000072 .L0 
C:\Users\stapi\AppData\Local\Temp\cca24Nov.s:2053   .text.tlsv1_client_get_cipher:0000000000000072 .L0 
C:\Users\stapi\AppData\Local\Temp\cca24Nov.s:2054   .text.tlsv1_client_get_cipher:0000000000000072 .L0 
C:\Users\stapi\AppData\Local\Temp\cca24Nov.s:2057   .text.tlsv1_client_get_cipher:0000000000000072 .L0 
C:\Users\stapi\AppData\Local\Temp\cca24Nov.s:2094   .text.tlsv1_client_get_cipher:0000000000000082 .L0 
C:\Users\stapi\AppData\Local\Temp\cca24Nov.s:2106   .text.tlsv1_client_get_cipher:00000000000000a8 .L0 
C:\Users\stapi\AppData\Local\Temp\cca24Nov.s:2111   .text.tlsv1_client_get_cipher:00000000000000b2 .L0 
C:\Users\stapi\AppData\Local\Temp\cca24Nov.s:2114   .text.tlsv1_client_get_cipher:00000000000000ba .L0 
C:\Users\stapi\AppData\Local\Temp\cca24Nov.s:2120   .text.tlsv1_client_get_cipher:00000000000000c4 .L0 
C:\Users\stapi\AppData\Local\Temp\cca24Nov.s:2121   .text.tlsv1_client_get_cipher:00000000000000c4 .L0 
C:\Users\stapi\AppData\Local\Temp\cca24Nov.s:2122   .text.tlsv1_client_get_cipher:00000000000000c4 .L0 
C:\Users\stapi\AppData\Local\Temp\cca24Nov.s:2125   .text.tlsv1_client_get_cipher:00000000000000cc .L0 
C:\Users\stapi\AppData\Local\Temp\cca24Nov.s:2129   .text.tlsv1_client_get_cipher:00000000000000ce .L0 
C:\Users\stapi\AppData\Local\Temp\cca24Nov.s:2130   .text.tlsv1_client_get_cipher:00000000000000ce .L0 
C:\Users\stapi\AppData\Local\Temp\cca24Nov.s:2131   .text.tlsv1_client_get_cipher:00000000000000ce .L0 
C:\Users\stapi\AppData\Local\Temp\cca24Nov.s:2134   .text.tlsv1_client_get_cipher:00000000000000d6 .L0 
C:\Users\stapi\AppData\Local\Temp\cca24Nov.s:2138   .text.tlsv1_client_get_cipher:00000000000000d8 .L0 
C:\Users\stapi\AppData\Local\Temp\cca24Nov.s:2139   .text.tlsv1_client_get_cipher:00000000000000d8 .L0 
C:\Users\stapi\AppData\Local\Temp\cca24Nov.s:2140   .text.tlsv1_client_get_cipher:00000000000000d8 .L0 
C:\Users\stapi\AppData\Local\Temp\cca24Nov.s:2143   .text.tlsv1_client_get_cipher:00000000000000e0 .L0 
C:\Users\stapi\AppData\Local\Temp\cca24Nov.s:2147   .text.tlsv1_client_get_cipher:00000000000000e2 .L0 
C:\Users\stapi\AppData\Local\Temp\cca24Nov.s:2148   .text.tlsv1_client_get_cipher:00000000000000e2 .L0 
C:\Users\stapi\AppData\Local\Temp\cca24Nov.s:2149   .text.tlsv1_client_get_cipher:00000000000000e2 .L0 
C:\Users\stapi\AppData\Local\Temp\cca24Nov.s:2152   .text.tlsv1_client_get_cipher:00000000000000ea .L0 
C:\Users\stapi\AppData\Local\Temp\cca24Nov.s:2156   .text.tlsv1_client_get_cipher:00000000000000ec .L0 
C:\Users\stapi\AppData\Local\Temp\cca24Nov.s:2157   .text.tlsv1_client_get_cipher:00000000000000ec .L0 
C:\Users\stapi\AppData\Local\Temp\cca24Nov.s:2158   .text.tlsv1_client_get_cipher:00000000000000ec .L0 
C:\Users\stapi\AppData\Local\Temp\cca24Nov.s:2161   .text.tlsv1_client_get_cipher:00000000000000f4 .L0 
C:\Users\stapi\AppData\Local\Temp\cca24Nov.s:2165   .text.tlsv1_client_get_cipher:00000000000000f6 .L0 
C:\Users\stapi\AppData\Local\Temp\cca24Nov.s:2166   .text.tlsv1_client_get_cipher:00000000000000f6 .L0 
C:\Users\stapi\AppData\Local\Temp\cca24Nov.s:2167   .text.tlsv1_client_get_cipher:00000000000000f6 .L0 
C:\Users\stapi\AppData\Local\Temp\cca24Nov.s:2170   .text.tlsv1_client_get_cipher:00000000000000fe .L0 
C:\Users\stapi\AppData\Local\Temp\cca24Nov.s:2174   .text.tlsv1_client_get_cipher:0000000000000100 .L0 
C:\Users\stapi\AppData\Local\Temp\cca24Nov.s:2175   .text.tlsv1_client_get_cipher:0000000000000100 .L0 
C:\Users\stapi\AppData\Local\Temp\cca24Nov.s:2176   .text.tlsv1_client_get_cipher:0000000000000100 .L0 
C:\Users\stapi\AppData\Local\Temp\cca24Nov.s:2179   .text.tlsv1_client_get_cipher:0000000000000108 .L0 
C:\Users\stapi\AppData\Local\Temp\cca24Nov.s:2183   .text.tlsv1_client_get_cipher:000000000000010a .L0 
C:\Users\stapi\AppData\Local\Temp\cca24Nov.s:2184   .text.tlsv1_client_get_cipher:000000000000010a .L0 
C:\Users\stapi\AppData\Local\Temp\cca24Nov.s:2185   .text.tlsv1_client_get_cipher:000000000000010a .L0 
C:\Users\stapi\AppData\Local\Temp\cca24Nov.s:2188   .text.tlsv1_client_get_cipher:0000000000000112 .L0 
C:\Users\stapi\AppData\Local\Temp\cca24Nov.s:2192   .text.tlsv1_client_get_cipher:0000000000000114 .L0 
C:\Users\stapi\AppData\Local\Temp\cca24Nov.s:2193   .text.tlsv1_client_get_cipher:0000000000000114 .L0 
C:\Users\stapi\AppData\Local\Temp\cca24Nov.s:2194   .text.tlsv1_client_get_cipher:0000000000000114 .L0 
C:\Users\stapi\AppData\Local\Temp\cca24Nov.s:2197   .text.tlsv1_client_get_cipher:000000000000011c .L0 
C:\Users\stapi\AppData\Local\Temp\cca24Nov.s:2201   .text.tlsv1_client_get_cipher:000000000000011e .L0 
C:\Users\stapi\AppData\Local\Temp\cca24Nov.s:2202   .text.tlsv1_client_get_cipher:000000000000011e .L0 
C:\Users\stapi\AppData\Local\Temp\cca24Nov.s:2203   .text.tlsv1_client_get_cipher:000000000000011e .L0 
C:\Users\stapi\AppData\Local\Temp\cca24Nov.s:2206   .text.tlsv1_client_get_cipher:0000000000000126 .L0 
C:\Users\stapi\AppData\Local\Temp\cca24Nov.s:2210   .text.tlsv1_client_get_cipher:0000000000000128 .L0 
C:\Users\stapi\AppData\Local\Temp\cca24Nov.s:2211   .text.tlsv1_client_get_cipher:0000000000000128 .L0 
C:\Users\stapi\AppData\Local\Temp\cca24Nov.s:2212   .text.tlsv1_client_get_cipher:0000000000000128 .L0 
C:\Users\stapi\AppData\Local\Temp\cca24Nov.s:2215   .text.tlsv1_client_get_cipher:0000000000000130 .L0 
C:\Users\stapi\AppData\Local\Temp\cca24Nov.s:2219   .text.tlsv1_client_get_cipher:0000000000000132 .L0 
C:\Users\stapi\AppData\Local\Temp\cca24Nov.s:2220   .text.tlsv1_client_get_cipher:0000000000000132 .L0 
C:\Users\stapi\AppData\Local\Temp\cca24Nov.s:2221   .text.tlsv1_client_get_cipher:0000000000000132 .L0 
C:\Users\stapi\AppData\Local\Temp\cca24Nov.s:2224   .text.tlsv1_client_get_cipher:000000000000013a .L0 
C:\Users\stapi\AppData\Local\Temp\cca24Nov.s:2228   .text.tlsv1_client_get_cipher:000000000000013c .L0 
C:\Users\stapi\AppData\Local\Temp\cca24Nov.s:2229   .text.tlsv1_client_get_cipher:000000000000013c .L0 
C:\Users\stapi\AppData\Local\Temp\cca24Nov.s:2230   .text.tlsv1_client_get_cipher:000000000000013c .L0 
C:\Users\stapi\AppData\Local\Temp\cca24Nov.s:2233   .text.tlsv1_client_get_cipher:0000000000000144 .L0 
C:\Users\stapi\AppData\Local\Temp\cca24Nov.s:2237   .text.tlsv1_client_get_cipher:0000000000000146 .L0 
C:\Users\stapi\AppData\Local\Temp\cca24Nov.s:2242   .text.tlsv1_client_get_cipher:0000000000000150 .L0 
C:\Users\stapi\AppData\Local\Temp\cca24Nov.s:2247   .text.tlsv1_client_get_cipher:000000000000015a .L0 
C:\Users\stapi\AppData\Local\Temp\cca24Nov.s:2252   .text.tlsv1_client_get_cipher:0000000000000164 .L0 
C:\Users\stapi\AppData\Local\Temp\cca24Nov.s:2255   .text.tlsv1_client_get_cipher:000000000000016e .L0 
C:\Users\stapi\AppData\Local\Temp\cca24Nov.s:2266   .text.tlsv1_client_shutdown:0000000000000000 tlsv1_client_shutdown
C:\Users\stapi\AppData\Local\Temp\cca24Nov.s:2269   .text.tlsv1_client_shutdown:0000000000000000 .L0 
C:\Users\stapi\AppData\Local\Temp\cca24Nov.s:2271   .text.tlsv1_client_shutdown:0000000000000000 .L0 
C:\Users\stapi\AppData\Local\Temp\cca24Nov.s:2272   .text.tlsv1_client_shutdown:0000000000000008 .L0 
C:\Users\stapi\AppData\Local\Temp\cca24Nov.s:2273   .text.tlsv1_client_shutdown:0000000000000008 .L0 
C:\Users\stapi\AppData\Local\Temp\cca24Nov.s:2274   .text.tlsv1_client_shutdown:0000000000000008 .L0 
C:\Users\stapi\AppData\Local\Temp\cca24Nov.s:2275   .text.tlsv1_client_shutdown:0000000000000008 .L0 
C:\Users\stapi\AppData\Local\Temp\cca24Nov.s:2277   .text.tlsv1_client_shutdown:0000000000000008 .L0 
C:\Users\stapi\AppData\Local\Temp\cca24Nov.s:2278   .text.tlsv1_client_shutdown:0000000000000008 .L0 
C:\Users\stapi\AppData\Local\Temp\cca24Nov.s:2280   .text.tlsv1_client_shutdown:000000000000000a .L0 
C:\Users\stapi\AppData\Local\Temp\cca24Nov.s:2282   .text.tlsv1_client_shutdown:000000000000000e .L0 
C:\Users\stapi\AppData\Local\Temp\cca24Nov.s:2283   .text.tlsv1_client_shutdown:000000000000000e .L0 
C:\Users\stapi\AppData\Local\Temp\cca24Nov.s:2288   .text.tlsv1_client_shutdown:000000000000001a .L0 
C:\Users\stapi\AppData\Local\Temp\cca24Nov.s:2290   .text.tlsv1_client_shutdown:000000000000001e .L0 
C:\Users\stapi\AppData\Local\Temp\cca24Nov.s:2296   .text.tlsv1_client_shutdown:0000000000000030 .L0 
C:\Users\stapi\AppData\Local\Temp\cca24Nov.s:2297   .text.tlsv1_client_shutdown:0000000000000030 .L0 
C:\Users\stapi\AppData\Local\Temp\cca24Nov.s:2300   .text.tlsv1_client_shutdown:0000000000000032 .L0 
C:\Users\stapi\AppData\Local\Temp\cca24Nov.s:2301   .text.tlsv1_client_shutdown:000000000000003a .L0 
C:\Users\stapi\AppData\Local\Temp\cca24Nov.s:2302   .text.tlsv1_client_shutdown:000000000000003a .L0 
C:\Users\stapi\AppData\Local\Temp\cca24Nov.s:2303   .text.tlsv1_client_shutdown:000000000000003a .L0 
C:\Users\stapi\AppData\Local\Temp\cca24Nov.s:2304   .text.tlsv1_client_shutdown:000000000000003a .L0 
C:\Users\stapi\AppData\Local\Temp\cca24Nov.s:2305   .text.tlsv1_client_shutdown:000000000000003a .L0 
C:\Users\stapi\AppData\Local\Temp\cca24Nov.s:2307   .text.tlsv1_client_shutdown:000000000000003a .L0 
C:\Users\stapi\AppData\Local\Temp\cca24Nov.s:2309   .text.tlsv1_client_shutdown:000000000000003a .L0 
C:\Users\stapi\AppData\Local\Temp\cca24Nov.s:2315   .text.tlsv1_client_shutdown:000000000000004a .L0 
C:\Users\stapi\AppData\Local\Temp\cca24Nov.s:2319   .text.tlsv1_client_shutdown:0000000000000054 .L0 
C:\Users\stapi\AppData\Local\Temp\cca24Nov.s:2323   .text.tlsv1_client_shutdown:000000000000005e .L0 
C:\Users\stapi\AppData\Local\Temp\cca24Nov.s:2324   .text.tlsv1_client_shutdown:000000000000005e .L0 
C:\Users\stapi\AppData\Local\Temp\cca24Nov.s:2326   .text.tlsv1_client_shutdown:0000000000000062 .L0 
C:\Users\stapi\AppData\Local\Temp\cca24Nov.s:2328   .text.tlsv1_client_shutdown:0000000000000066 .L0 
C:\Users\stapi\AppData\Local\Temp\cca24Nov.s:2331   .text.tlsv1_client_shutdown:000000000000006c .L0 
C:\Users\stapi\AppData\Local\Temp\cca24Nov.s:2334   .text.tlsv1_client_shutdown:0000000000000074 .L0 
C:\Users\stapi\AppData\Local\Temp\cca24Nov.s:2335   .text.tlsv1_client_shutdown:0000000000000074 .L0 
C:\Users\stapi\AppData\Local\Temp\cca24Nov.s:2337   .text.tlsv1_client_shutdown:0000000000000078 .L0 
C:\Users\stapi\AppData\Local\Temp\cca24Nov.s:2339   .text.tlsv1_client_shutdown:000000000000007c .L0 
C:\Users\stapi\AppData\Local\Temp\cca24Nov.s:2340   .text.tlsv1_client_shutdown:000000000000007c .L0 
C:\Users\stapi\AppData\Local\Temp\cca24Nov.s:2342   .text.tlsv1_client_shutdown:000000000000007e .L0 
C:\Users\stapi\AppData\Local\Temp\cca24Nov.s:2345   .text.tlsv1_client_shutdown:0000000000000084 .L0 
C:\Users\stapi\AppData\Local\Temp\cca24Nov.s:2346   .text.tlsv1_client_shutdown:0000000000000084 .L0 
C:\Users\stapi\AppData\Local\Temp\cca24Nov.s:2347   .text.tlsv1_client_shutdown:0000000000000086 .L0 
C:\Users\stapi\AppData\Local\Temp\cca24Nov.s:2354   .text.tlsv1_client_resumed:0000000000000000 tlsv1_client_resumed
C:\Users\stapi\AppData\Local\Temp\cca24Nov.s:2357   .text.tlsv1_client_resumed:0000000000000000 .L0 
C:\Users\stapi\AppData\Local\Temp\cca24Nov.s:2359   .text.tlsv1_client_resumed:0000000000000000 .L0 
C:\Users\stapi\AppData\Local\Temp\cca24Nov.s:2360   .text.tlsv1_client_resumed:0000000000000000 .L0 
C:\Users\stapi\AppData\Local\Temp\cca24Nov.s:2361   .text.tlsv1_client_resumed:0000000000000000 .L0 
C:\Users\stapi\AppData\Local\Temp\cca24Nov.s:2364   .text.tlsv1_client_resumed:0000000000000004 .L0 
C:\Users\stapi\AppData\Local\Temp\cca24Nov.s:2366   .text.tlsv1_client_resumed:000000000000000a .L0 
C:\Users\stapi\AppData\Local\Temp\cca24Nov.s:2377   .text.tlsv1_client_hello_ext:0000000000000000 tlsv1_client_hello_ext
C:\Users\stapi\AppData\Local\Temp\cca24Nov.s:2380   .text.tlsv1_client_hello_ext:0000000000000000 .L0 
C:\Users\stapi\AppData\Local\Temp\cca24Nov.s:2382   .text.tlsv1_client_hello_ext:0000000000000000 .L0 
C:\Users\stapi\AppData\Local\Temp\cca24Nov.s:2383   .text.tlsv1_client_hello_ext:0000000000000008 .L0 
C:\Users\stapi\AppData\Local\Temp\cca24Nov.s:2384   .text.tlsv1_client_hello_ext:0000000000000008 .L0 
C:\Users\stapi\AppData\Local\Temp\cca24Nov.s:2385   .text.tlsv1_client_hello_ext:0000000000000008 .L0 
C:\Users\stapi\AppData\Local\Temp\cca24Nov.s:2386   .text.tlsv1_client_hello_ext:0000000000000008 .L0 
C:\Users\stapi\AppData\Local\Temp\cca24Nov.s:2387   .text.tlsv1_client_hello_ext:0000000000000008 .L0 
C:\Users\stapi\AppData\Local\Temp\cca24Nov.s:2388   .text.tlsv1_client_hello_ext:0000000000000008 .L0 
C:\Users\stapi\AppData\Local\Temp\cca24Nov.s:2389   .text.tlsv1_client_hello_ext:0000000000000008 .L0 
C:\Users\stapi\AppData\Local\Temp\cca24Nov.s:2391   .text.tlsv1_client_hello_ext:0000000000000008 .L0 
C:\Users\stapi\AppData\Local\Temp\cca24Nov.s:2392   .text.tlsv1_client_hello_ext:0000000000000008 .L0 
C:\Users\stapi\AppData\Local\Temp\cca24Nov.s:2393   .text.tlsv1_client_hello_ext:0000000000000008 .L0 
C:\Users\stapi\AppData\Local\Temp\cca24Nov.s:2395   .text.tlsv1_client_hello_ext:000000000000000c .L0 
C:\Users\stapi\AppData\Local\Temp\cca24Nov.s:2398   .text.tlsv1_client_hello_ext:0000000000000010 .L0 
C:\Users\stapi\AppData\Local\Temp\cca24Nov.s:2401   .text.tlsv1_client_hello_ext:0000000000000016 .L0 
C:\Users\stapi\AppData\Local\Temp\cca24Nov.s:2404   .text.tlsv1_client_hello_ext:000000000000001a .L0 
C:\Users\stapi\AppData\Local\Temp\cca24Nov.s:2407   .text.tlsv1_client_hello_ext:000000000000001e .L0 
C:\Users\stapi\AppData\Local\Temp\cca24Nov.s:2410   .text.tlsv1_client_hello_ext:0000000000000026 .L0 
C:\Users\stapi\AppData\Local\Temp\cca24Nov.s:2411   .text.tlsv1_client_hello_ext:0000000000000026 .L0 
C:\Users\stapi\AppData\Local\Temp\cca24Nov.s:2413   .text.tlsv1_client_hello_ext:000000000000002a .L0 
C:\Users\stapi\AppData\Local\Temp\cca24Nov.s:2414   .text.tlsv1_client_hello_ext:000000000000002a .L0 
C:\Users\stapi\AppData\Local\Temp\cca24Nov.s:2416   .text.tlsv1_client_hello_ext:000000000000002e .L0 
C:\Users\stapi\AppData\Local\Temp\cca24Nov.s:2417   .text.tlsv1_client_hello_ext:000000000000002e .L0 
C:\Users\stapi\AppData\Local\Temp\cca24Nov.s:2420   .text.tlsv1_client_hello_ext:0000000000000032 .L0 
C:\Users\stapi\AppData\Local\Temp\cca24Nov.s:2423   .text.tlsv1_client_hello_ext:0000000000000034 .L0 
C:\Users\stapi\AppData\Local\Temp\cca24Nov.s:2424   .text.tlsv1_client_hello_ext:000000000000003c .L0 
C:\Users\stapi\AppData\Local\Temp\cca24Nov.s:2425   .text.tlsv1_client_hello_ext:000000000000003c .L0 
C:\Users\stapi\AppData\Local\Temp\cca24Nov.s:2426   .text.tlsv1_client_hello_ext:000000000000003c .L0 
C:\Users\stapi\AppData\Local\Temp\cca24Nov.s:2427   .text.tlsv1_client_hello_ext:000000000000003c .L0 
C:\Users\stapi\AppData\Local\Temp\cca24Nov.s:2428   .text.tlsv1_client_hello_ext:000000000000003c .L0 
C:\Users\stapi\AppData\Local\Temp\cca24Nov.s:2429   .text.tlsv1_client_hello_ext:000000000000003c .L0 
C:\Users\stapi\AppData\Local\Temp\cca24Nov.s:2430   .text.tlsv1_client_hello_ext:000000000000003c .L0 
C:\Users\stapi\AppData\Local\Temp\cca24Nov.s:2431   .text.tlsv1_client_hello_ext:000000000000003c .L0 
C:\Users\stapi\AppData\Local\Temp\cca24Nov.s:2433   .text.tlsv1_client_hello_ext:000000000000003c .L0 
C:\Users\stapi\AppData\Local\Temp\cca24Nov.s:2435   .text.tlsv1_client_hello_ext:000000000000003c .L0 
C:\Users\stapi\AppData\Local\Temp\cca24Nov.s:2437   .text.tlsv1_client_hello_ext:000000000000003e .L0 
C:\Users\stapi\AppData\Local\Temp\cca24Nov.s:2438   .text.tlsv1_client_hello_ext:000000000000003e .L0 
C:\Users\stapi\AppData\Local\Temp\cca24Nov.s:2444   .text.tlsv1_client_hello_ext:000000000000004e .L0 
C:\Users\stapi\AppData\Local\Temp\cca24Nov.s:2447   .text.tlsv1_client_hello_ext:0000000000000052 .L0 
C:\Users\stapi\AppData\Local\Temp\cca24Nov.s:2448   .text.tlsv1_client_hello_ext:0000000000000052 .L0 
C:\Users\stapi\AppData\Local\Temp\cca24Nov.s:2451   .text.tlsv1_client_hello_ext:0000000000000054 .L0 
C:\Users\stapi\AppData\Local\Temp\cca24Nov.s:2456   .text.tlsv1_client_hello_ext:0000000000000056 .L0 
C:\Users\stapi\AppData\Local\Temp\cca24Nov.s:2457   .text.tlsv1_client_hello_ext:0000000000000056 .L0 
C:\Users\stapi\AppData\Local\Temp\cca24Nov.s:2458   .text.tlsv1_client_hello_ext:0000000000000056 .L0 
C:\Users\stapi\AppData\Local\Temp\cca24Nov.s:2466   .text.tlsv1_client_hello_ext:0000000000000060 .L0 
C:\Users\stapi\AppData\Local\Temp\cca24Nov.s:2467   .text.tlsv1_client_hello_ext:0000000000000060 .L0 
C:\Users\stapi\AppData\Local\Temp\cca24Nov.s:2474   .text.tlsv1_client_hello_ext:0000000000000066 .L0 
C:\Users\stapi\AppData\Local\Temp\cca24Nov.s:2479   .text.tlsv1_client_hello_ext:000000000000006a .L0 
C:\Users\stapi\AppData\Local\Temp\cca24Nov.s:2482   .text.tlsv1_client_hello_ext:000000000000006a .L0 
C:\Users\stapi\AppData\Local\Temp\cca24Nov.s:2483   .text.tlsv1_client_hello_ext:000000000000006a .L0 
C:\Users\stapi\AppData\Local\Temp\cca24Nov.s:2484   .text.tlsv1_client_hello_ext:000000000000006a .L0 
C:\Users\stapi\AppData\Local\Temp\cca24Nov.s:2486   .text.tlsv1_client_hello_ext:000000000000006e .L0 
C:\Users\stapi\AppData\Local\Temp\cca24Nov.s:2487   .text.tlsv1_client_hello_ext:000000000000006e .L0 
C:\Users\stapi\AppData\Local\Temp\cca24Nov.s:2492   .text.tlsv1_client_hello_ext:0000000000000072 .L0 
C:\Users\stapi\AppData\Local\Temp\cca24Nov.s:2493   .text.tlsv1_client_hello_ext:0000000000000072 .L0 
C:\Users\stapi\AppData\Local\Temp\cca24Nov.s:2500   .text.tlsv1_client_hello_ext:0000000000000082 .L0 
C:\Users\stapi\AppData\Local\Temp\cca24Nov.s:2501   .text.tlsv1_client_hello_ext:0000000000000082 .L0 
C:\Users\stapi\AppData\Local\Temp\cca24Nov.s:2503   .text.tlsv1_client_hello_ext:0000000000000086 .L0 
C:\Users\stapi\AppData\Local\Temp\cca24Nov.s:2505   .text.tlsv1_client_hello_ext:000000000000008a .L0 
C:\Users\stapi\AppData\Local\Temp\cca24Nov.s:2506   .text.tlsv1_client_hello_ext:000000000000008a .L0 
C:\Users\stapi\AppData\Local\Temp\cca24Nov.s:2508   .text.tlsv1_client_hello_ext:000000000000008e .L0 
C:\Users\stapi\AppData\Local\Temp\cca24Nov.s:2509   .text.tlsv1_client_hello_ext:000000000000008e .L0 
C:\Users\stapi\AppData\Local\Temp\cca24Nov.s:2511   .text.tlsv1_client_hello_ext:0000000000000092 .L0 
C:\Users\stapi\AppData\Local\Temp\cca24Nov.s:2514   .text.tlsv1_client_hello_ext:000000000000009a .L0 
C:\Users\stapi\AppData\Local\Temp\cca24Nov.s:2517   .text.tlsv1_client_hello_ext:00000000000000a2 .L0 
C:\Users\stapi\AppData\Local\Temp\cca24Nov.s:2521   .text.tlsv1_client_hello_ext:00000000000000ae .L0 
C:\Users\stapi\AppData\Local\Temp\cca24Nov.s:2528   .text.tlsv1_client_get_random:0000000000000000 tlsv1_client_get_random
C:\Users\stapi\AppData\Local\Temp\cca24Nov.s:2531   .text.tlsv1_client_get_random:0000000000000000 .L0 
C:\Users\stapi\AppData\Local\Temp\cca24Nov.s:2533   .text.tlsv1_client_get_random:0000000000000000 .L0 
C:\Users\stapi\AppData\Local\Temp\cca24Nov.s:2534   .text.tlsv1_client_get_random:0000000000000008 .L0 
C:\Users\stapi\AppData\Local\Temp\cca24Nov.s:2535   .text.tlsv1_client_get_random:0000000000000008 .L0 
C:\Users\stapi\AppData\Local\Temp\cca24Nov.s:2536   .text.tlsv1_client_get_random:0000000000000008 .L0 
C:\Users\stapi\AppData\Local\Temp\cca24Nov.s:2537   .text.tlsv1_client_get_random:0000000000000008 .L0 
C:\Users\stapi\AppData\Local\Temp\cca24Nov.s:2539   .text.tlsv1_client_get_random:0000000000000008 .L0 
C:\Users\stapi\AppData\Local\Temp\cca24Nov.s:2540   .text.tlsv1_client_get_random:0000000000000008 .L0 
C:\Users\stapi\AppData\Local\Temp\cca24Nov.s:2543   .text.tlsv1_client_get_random:000000000000000c .L0 
C:\Users\stapi\AppData\Local\Temp\cca24Nov.s:2551   .text.tlsv1_client_get_random:000000000000001a .L0 
C:\Users\stapi\AppData\Local\Temp\cca24Nov.s:2552   .text.tlsv1_client_get_random:000000000000001a .L0 
C:\Users\stapi\AppData\Local\Temp\cca24Nov.s:2554   .text.tlsv1_client_get_random:000000000000001c .L0 
C:\Users\stapi\AppData\Local\Temp\cca24Nov.s:2556   .text.tlsv1_client_get_random:000000000000001e .L0 
C:\Users\stapi\AppData\Local\Temp\cca24Nov.s:2558   .text.tlsv1_client_get_random:0000000000000020 .L0 
C:\Users\stapi\AppData\Local\Temp\cca24Nov.s:2559   .text.tlsv1_client_get_random:0000000000000020 .L0 
C:\Users\stapi\AppData\Local\Temp\cca24Nov.s:2561   .text.tlsv1_client_get_random:0000000000000024 .L0 
C:\Users\stapi\AppData\Local\Temp\cca24Nov.s:2563   .text.tlsv1_client_get_random:0000000000000026 .L0 
C:\Users\stapi\AppData\Local\Temp\cca24Nov.s:2564   .text.tlsv1_client_get_random:0000000000000026 .L0 
C:\Users\stapi\AppData\Local\Temp\cca24Nov.s:2567   .text.tlsv1_client_get_random:000000000000002c .L0 
C:\Users\stapi\AppData\Local\Temp\cca24Nov.s:2568   .text.tlsv1_client_get_random:000000000000002c .L0 
C:\Users\stapi\AppData\Local\Temp\cca24Nov.s:2570   .text.tlsv1_client_get_random:000000000000002e .L0 
C:\Users\stapi\AppData\Local\Temp\cca24Nov.s:2572   .text.tlsv1_client_get_random:0000000000000030 .L0 
C:\Users\stapi\AppData\Local\Temp\cca24Nov.s:2574   .text.tlsv1_client_get_random:0000000000000034 .L0 
C:\Users\stapi\AppData\Local\Temp\cca24Nov.s:2575   .text.tlsv1_client_get_random:0000000000000034 .L0 
C:\Users\stapi\AppData\Local\Temp\cca24Nov.s:2578   .text.tlsv1_client_get_random:0000000000000038 .L0 
C:\Users\stapi\AppData\Local\Temp\cca24Nov.s:2580   .text.tlsv1_client_get_random:000000000000003a .L0 
C:\Users\stapi\AppData\Local\Temp\cca24Nov.s:2581   .text.tlsv1_client_get_random:000000000000003a .L0 
C:\Users\stapi\AppData\Local\Temp\cca24Nov.s:2585   .text.tlsv1_client_get_random:000000000000003c .L0 
C:\Users\stapi\AppData\Local\Temp\cca24Nov.s:2586   .text.tlsv1_client_get_random:0000000000000044 .L0 
C:\Users\stapi\AppData\Local\Temp\cca24Nov.s:2587   .text.tlsv1_client_get_random:0000000000000044 .L0 
C:\Users\stapi\AppData\Local\Temp\cca24Nov.s:2588   .text.tlsv1_client_get_random:0000000000000044 .L0 
C:\Users\stapi\AppData\Local\Temp\cca24Nov.s:2589   .text.tlsv1_client_get_random:0000000000000044 .L0 
C:\Users\stapi\AppData\Local\Temp\cca24Nov.s:2590   .text.tlsv1_client_get_random:0000000000000044 .L0 
C:\Users\stapi\AppData\Local\Temp\cca24Nov.s:2597   .text.tlsv1_client_get_keyblock_size:0000000000000000 tlsv1_client_get_keyblock_size
C:\Users\stapi\AppData\Local\Temp\cca24Nov.s:2600   .text.tlsv1_client_get_keyblock_size:0000000000000000 .L0 
C:\Users\stapi\AppData\Local\Temp\cca24Nov.s:2602   .text.tlsv1_client_get_keyblock_size:0000000000000000 .L0 
C:\Users\stapi\AppData\Local\Temp\cca24Nov.s:2603   .text.tlsv1_client_get_keyblock_size:0000000000000000 .L0 
C:\Users\stapi\AppData\Local\Temp\cca24Nov.s:2604   .text.tlsv1_client_get_keyblock_size:0000000000000000 .L0 
C:\Users\stapi\AppData\Local\Temp\cca24Nov.s:2608   .text.tlsv1_client_get_keyblock_size:0000000000000008 .L0 
C:\Users\stapi\AppData\Local\Temp\cca24Nov.s:2609   .text.tlsv1_client_get_keyblock_size:0000000000000008 .L0 
C:\Users\stapi\AppData\Local\Temp\cca24Nov.s:2612   .text.tlsv1_client_get_keyblock_size:0000000000000010 .L0 
C:\Users\stapi\AppData\Local\Temp\cca24Nov.s:2615   .text.tlsv1_client_get_keyblock_size:0000000000000014 .L0 
C:\Users\stapi\AppData\Local\Temp\cca24Nov.s:2617   .text.tlsv1_client_get_keyblock_size:0000000000000016 .L0 
C:\Users\stapi\AppData\Local\Temp\cca24Nov.s:2619   .text.tlsv1_client_get_keyblock_size:0000000000000018 .L0 
C:\Users\stapi\AppData\Local\Temp\cca24Nov.s:2624   .text.tlsv1_client_get_keyblock_size:000000000000001c .L0 
C:\Users\stapi\AppData\Local\Temp\cca24Nov.s:2627   .text.tlsv1_client_get_keyblock_size:000000000000001e .L0 
C:\Users\stapi\AppData\Local\Temp\cca24Nov.s:2628   .text.tlsv1_client_get_keyblock_size:0000000000000020 .L0 
C:\Users\stapi\AppData\Local\Temp\cca24Nov.s:2635   .text.tlsv1_client_set_cipher_list:0000000000000000 tlsv1_client_set_cipher_list
C:\Users\stapi\AppData\Local\Temp\cca24Nov.s:2638   .text.tlsv1_client_set_cipher_list:0000000000000000 .L0 
C:\Users\stapi\AppData\Local\Temp\cca24Nov.s:2640   .text.tlsv1_client_set_cipher_list:0000000000000000 .L0 
C:\Users\stapi\AppData\Local\Temp\cca24Nov.s:2641   .text.tlsv1_client_set_cipher_list:0000000000000000 .L0 
C:\Users\stapi\AppData\Local\Temp\cca24Nov.s:2642   .text.tlsv1_client_set_cipher_list:0000000000000000 .L0 
C:\Users\stapi\AppData\Local\Temp\cca24Nov.s:2643   .text.tlsv1_client_set_cipher_list:0000000000000000 .L0 
C:\Users\stapi\AppData\Local\Temp\cca24Nov.s:2644   .text.tlsv1_client_set_cipher_list:0000000000000000 .L0 
C:\Users\stapi\AppData\Local\Temp\cca24Nov.s:2649   .text.tlsv1_client_set_cipher_list:000000000000000a .L0 
C:\Users\stapi\AppData\Local\Temp\cca24Nov.s:2650   .text.tlsv1_client_set_cipher_list:000000000000000a .L0 
C:\Users\stapi\AppData\Local\Temp\cca24Nov.s:2651   .text.tlsv1_client_set_cipher_list:000000000000000a .L0 
C:\Users\stapi\AppData\Local\Temp\cca24Nov.s:2652   .text.tlsv1_client_set_cipher_list:000000000000000a .L0 
C:\Users\stapi\AppData\Local\Temp\cca24Nov.s:2656   .text.tlsv1_client_set_cipher_list:0000000000000012 .L0 
C:\Users\stapi\AppData\Local\Temp\cca24Nov.s:2657   .text.tlsv1_client_set_cipher_list:0000000000000012 .L0 
C:\Users\stapi\AppData\Local\Temp\cca24Nov.s:2659   .text.tlsv1_client_set_cipher_list:0000000000000016 .L0 
C:\Users\stapi\AppData\Local\Temp\cca24Nov.s:2661   .text.tlsv1_client_set_cipher_list:0000000000000018 .L0 
C:\Users\stapi\AppData\Local\Temp\cca24Nov.s:2664   .text.tlsv1_client_set_cipher_list:000000000000001c .L0 
C:\Users\stapi\AppData\Local\Temp\cca24Nov.s:2665   .text.tlsv1_client_set_cipher_list:000000000000001c .L0 
C:\Users\stapi\AppData\Local\Temp\cca24Nov.s:2669   .text.tlsv1_client_set_cipher_list:0000000000000024 .L0 
C:\Users\stapi\AppData\Local\Temp\cca24Nov.s:2670   .text.tlsv1_client_set_cipher_list:0000000000000024 .L0 
C:\Users\stapi\AppData\Local\Temp\cca24Nov.s:2672   .text.tlsv1_client_set_cipher_list:0000000000000028 .L0 
C:\Users\stapi\AppData\Local\Temp\cca24Nov.s:2674   .text.tlsv1_client_set_cipher_list:000000000000002c .L0 
C:\Users\stapi\AppData\Local\Temp\cca24Nov.s:2676   .text.tlsv1_client_set_cipher_list:000000000000002e .L0 
C:\Users\stapi\AppData\Local\Temp\cca24Nov.s:2679   .text.tlsv1_client_set_cipher_list:0000000000000032 .L0 
C:\Users\stapi\AppData\Local\Temp\cca24Nov.s:2680   .text.tlsv1_client_set_cipher_list:0000000000000032 .L0 
C:\Users\stapi\AppData\Local\Temp\cca24Nov.s:2681   .text.tlsv1_client_set_cipher_list:0000000000000032 .L0 
C:\Users\stapi\AppData\Local\Temp\cca24Nov.s:2684   .text.tlsv1_client_set_cipher_list:0000000000000036 .L0 
C:\Users\stapi\AppData\Local\Temp\cca24Nov.s:2685   .text.tlsv1_client_set_cipher_list:0000000000000036 .L0 
C:\Users\stapi\AppData\Local\Temp\cca24Nov.s:2687   .text.tlsv1_client_set_cipher_list:000000000000003a .L0 
C:\Users\stapi\AppData\Local\Temp\cca24Nov.s:2689   .text.tlsv1_client_set_cipher_list:000000000000003c .L0 
C:\Users\stapi\AppData\Local\Temp\cca24Nov.s:2691   .text.tlsv1_client_set_cipher_list:000000000000003e .L0 
C:\Users\stapi\AppData\Local\Temp\cca24Nov.s:2694   .text.tlsv1_client_set_cipher_list:0000000000000042 .L0 
C:\Users\stapi\AppData\Local\Temp\cca24Nov.s:2695   .text.tlsv1_client_set_cipher_list:0000000000000042 .L0 
C:\Users\stapi\AppData\Local\Temp\cca24Nov.s:2696   .text.tlsv1_client_set_cipher_list:0000000000000042 .L0 
C:\Users\stapi\AppData\Local\Temp\cca24Nov.s:2700   .text.tlsv1_client_set_cipher_list:0000000000000046 .L0 
C:\Users\stapi\AppData\Local\Temp\cca24Nov.s:2701   .text.tlsv1_client_set_cipher_list:0000000000000046 .L0 
C:\Users\stapi\AppData\Local\Temp\cca24Nov.s:2704   .text.tlsv1_client_set_cipher_list:000000000000004a .L0 
C:\Users\stapi\AppData\Local\Temp\cca24Nov.s:2711   .text.tlsv1_client_set_cred:0000000000000000 tlsv1_client_set_cred
C:\Users\stapi\AppData\Local\Temp\cca24Nov.s:2714   .text.tlsv1_client_set_cred:0000000000000000 .L0 
C:\Users\stapi\AppData\Local\Temp\cca24Nov.s:2716   .text.tlsv1_client_set_cred:0000000000000000 .L0 
C:\Users\stapi\AppData\Local\Temp\cca24Nov.s:2717   .text.tlsv1_client_set_cred:0000000000000008 .L0 
C:\Users\stapi\AppData\Local\Temp\cca24Nov.s:2718   .text.tlsv1_client_set_cred:0000000000000008 .L0 
C:\Users\stapi\AppData\Local\Temp\cca24Nov.s:2719   .text.tlsv1_client_set_cred:0000000000000008 .L0 
C:\Users\stapi\AppData\Local\Temp\cca24Nov.s:2720   .text.tlsv1_client_set_cred:0000000000000008 .L0 
C:\Users\stapi\AppData\Local\Temp\cca24Nov.s:2722   .text.tlsv1_client_set_cred:0000000000000008 .L0 
C:\Users\stapi\AppData\Local\Temp\cca24Nov.s:2723   .text.tlsv1_client_set_cred:0000000000000008 .L0 
C:\Users\stapi\AppData\Local\Temp\cca24Nov.s:2725   .text.tlsv1_client_set_cred:000000000000000a .L0 
C:\Users\stapi\AppData\Local\Temp\cca24Nov.s:2728   .text.tlsv1_client_set_cred:000000000000000e .L0 
C:\Users\stapi\AppData\Local\Temp\cca24Nov.s:2730   .text.tlsv1_client_set_cred:0000000000000010 .L0 
C:\Users\stapi\AppData\Local\Temp\cca24Nov.s:2733   .text.tlsv1_client_set_cred:0000000000000018 .L0 
C:\Users\stapi\AppData\Local\Temp\cca24Nov.s:2734   .text.tlsv1_client_set_cred:0000000000000018 .L0 
C:\Users\stapi\AppData\Local\Temp\cca24Nov.s:2736   .text.tlsv1_client_set_cred:000000000000001a .L0 
C:\Users\stapi\AppData\Local\Temp\cca24Nov.s:2738   .text.tlsv1_client_set_cred:000000000000001e .L0 
C:\Users\stapi\AppData\Local\Temp\cca24Nov.s:2739   .text.tlsv1_client_set_cred:000000000000001e .L0 
C:\Users\stapi\AppData\Local\Temp\cca24Nov.s:2740   .text.tlsv1_client_set_cred:0000000000000026 .L0 
C:\Users\stapi\AppData\Local\Temp\cca24Nov.s:2741   .text.tlsv1_client_set_cred:0000000000000026 .L0 
C:\Users\stapi\AppData\Local\Temp\cca24Nov.s:2742   .text.tlsv1_client_set_cred:0000000000000026 .L0 
C:\Users\stapi\AppData\Local\Temp\cca24Nov.s:2743   .text.tlsv1_client_set_cred:0000000000000026 .L0 
C:\Users\stapi\AppData\Local\Temp\cca24Nov.s:2744   .text.tlsv1_client_set_cred:0000000000000026 .L0 
C:\Users\stapi\AppData\Local\Temp\cca24Nov.s:2751   .text.tlsv1_client_set_flags:0000000000000000 tlsv1_client_set_flags
C:\Users\stapi\AppData\Local\Temp\cca24Nov.s:2754   .text.tlsv1_client_set_flags:0000000000000000 .L0 
C:\Users\stapi\AppData\Local\Temp\cca24Nov.s:2756   .text.tlsv1_client_set_flags:0000000000000000 .L0 
C:\Users\stapi\AppData\Local\Temp\cca24Nov.s:2757   .text.tlsv1_client_set_flags:0000000000000008 .L0 
C:\Users\stapi\AppData\Local\Temp\cca24Nov.s:2758   .text.tlsv1_client_set_flags:0000000000000008 .L0 
C:\Users\stapi\AppData\Local\Temp\cca24Nov.s:2759   .text.tlsv1_client_set_flags:0000000000000008 .L0 
C:\Users\stapi\AppData\Local\Temp\cca24Nov.s:2761   .text.tlsv1_client_set_flags:0000000000000008 .L0 
C:\Users\stapi\AppData\Local\Temp\cca24Nov.s:2762   .text.tlsv1_client_set_flags:0000000000000008 .L0 
C:\Users\stapi\AppData\Local\Temp\cca24Nov.s:2764   .text.tlsv1_client_set_flags:000000000000000c .L0 
C:\Users\stapi\AppData\Local\Temp\cca24Nov.s:2765   .text.tlsv1_client_set_flags:000000000000000c .L0 
C:\Users\stapi\AppData\Local\Temp\cca24Nov.s:2767   .text.tlsv1_client_set_flags:000000000000000e .L0 
C:\Users\stapi\AppData\Local\Temp\cca24Nov.s:2770   .text.tlsv1_client_set_flags:0000000000000016 .L0 
C:\Users\stapi\AppData\Local\Temp\cca24Nov.s:2772   .text.tlsv1_client_set_flags:000000000000001a .L0 
C:\Users\stapi\AppData\Local\Temp\cca24Nov.s:2773   .text.tlsv1_client_set_flags:0000000000000022 .L0 
C:\Users\stapi\AppData\Local\Temp\cca24Nov.s:2774   .text.tlsv1_client_set_flags:0000000000000022 .L0 
C:\Users\stapi\AppData\Local\Temp\cca24Nov.s:2775   .text.tlsv1_client_set_flags:0000000000000022 .L0 
C:\Users\stapi\AppData\Local\Temp\cca24Nov.s:2776   .text.tlsv1_client_set_flags:0000000000000022 .L0 
C:\Users\stapi\AppData\Local\Temp\cca24Nov.s:2787   .text.tlsv1_client_set_session_ticket_cb:0000000000000000 tlsv1_client_set_session_ticket_cb
C:\Users\stapi\AppData\Local\Temp\cca24Nov.s:2790   .text.tlsv1_client_set_session_ticket_cb:0000000000000000 .L0 
C:\Users\stapi\AppData\Local\Temp\cca24Nov.s:2792   .text.tlsv1_client_set_session_ticket_cb:0000000000000000 .L0 
C:\Users\stapi\AppData\Local\Temp\cca24Nov.s:2793   .text.tlsv1_client_set_session_ticket_cb:0000000000000008 .L0 
C:\Users\stapi\AppData\Local\Temp\cca24Nov.s:2794   .text.tlsv1_client_set_session_ticket_cb:0000000000000008 .L0 
C:\Users\stapi\AppData\Local\Temp\cca24Nov.s:2795   .text.tlsv1_client_set_session_ticket_cb:0000000000000008 .L0 
C:\Users\stapi\AppData\Local\Temp\cca24Nov.s:2796   .text.tlsv1_client_set_session_ticket_cb:0000000000000008 .L0 
C:\Users\stapi\AppData\Local\Temp\cca24Nov.s:2797   .text.tlsv1_client_set_session_ticket_cb:0000000000000008 .L0 
C:\Users\stapi\AppData\Local\Temp\cca24Nov.s:2799   .text.tlsv1_client_set_session_ticket_cb:0000000000000008 .L0 
C:\Users\stapi\AppData\Local\Temp\cca24Nov.s:2800   .text.tlsv1_client_set_session_ticket_cb:0000000000000008 .L0 
C:\Users\stapi\AppData\Local\Temp\cca24Nov.s:2803   .text.tlsv1_client_set_session_ticket_cb:000000000000000c .L0 
C:\Users\stapi\AppData\Local\Temp\cca24Nov.s:2809   .text.tlsv1_client_set_session_ticket_cb:0000000000000014 .L0 
C:\Users\stapi\AppData\Local\Temp\cca24Nov.s:2811   .text.tlsv1_client_set_session_ticket_cb:0000000000000016 .L0 
C:\Users\stapi\AppData\Local\Temp\cca24Nov.s:2817   .text.tlsv1_client_set_session_ticket_cb:0000000000000024 .L0 
C:\Users\stapi\AppData\Local\Temp\cca24Nov.s:2818   .text.tlsv1_client_set_session_ticket_cb:0000000000000024 .L0 
C:\Users\stapi\AppData\Local\Temp\cca24Nov.s:2820   .text.tlsv1_client_set_session_ticket_cb:0000000000000028 .L0 
C:\Users\stapi\AppData\Local\Temp\cca24Nov.s:2821   .text.tlsv1_client_set_session_ticket_cb:0000000000000028 .L0 
C:\Users\stapi\AppData\Local\Temp\cca24Nov.s:2823   .text.tlsv1_client_set_session_ticket_cb:000000000000002c .L0 
C:\Users\stapi\AppData\Local\Temp\cca24Nov.s:2824   .text.tlsv1_client_set_session_ticket_cb:0000000000000034 .L0 
C:\Users\stapi\AppData\Local\Temp\cca24Nov.s:2825   .text.tlsv1_client_set_session_ticket_cb:0000000000000034 .L0 
C:\Users\stapi\AppData\Local\Temp\cca24Nov.s:2826   .text.tlsv1_client_set_session_ticket_cb:0000000000000034 .L0 
C:\Users\stapi\AppData\Local\Temp\cca24Nov.s:2827   .text.tlsv1_client_set_session_ticket_cb:0000000000000034 .L0 
C:\Users\stapi\AppData\Local\Temp\cca24Nov.s:2828   .text.tlsv1_client_set_session_ticket_cb:0000000000000034 .L0 
C:\Users\stapi\AppData\Local\Temp\cca24Nov.s:2829   .text.tlsv1_client_set_session_ticket_cb:0000000000000034 .L0 
C:\Users\stapi\AppData\Local\Temp\cca24Nov.s:2836   .text.tlsv1_client_set_cb:0000000000000000 tlsv1_client_set_cb
C:\Users\stapi\AppData\Local\Temp\cca24Nov.s:2839   .text.tlsv1_client_set_cb:0000000000000000 .L0 
C:\Users\stapi\AppData\Local\Temp\cca24Nov.s:2841   .text.tlsv1_client_set_cb:0000000000000000 .L0 
C:\Users\stapi\AppData\Local\Temp\cca24Nov.s:2842   .text.tlsv1_client_set_cb:0000000000000000 .L0 
C:\Users\stapi\AppData\Local\Temp\cca24Nov.s:2843   .text.tlsv1_client_set_cb:0000000000000000 .L0 
C:\Users\stapi\AppData\Local\Temp\cca24Nov.s:2848   .text.tlsv1_client_set_cb:000000000000000c .L0 
C:\Users\stapi\AppData\Local\Temp\cca24Nov.s:2850   .text.tlsv1_client_set_cb:0000000000000010 .L0 
C:\Users\stapi\AppData\Local\Temp\cca24Nov.s:2851   .text.tlsv1_client_set_cb:0000000000000010 .L0 
C:\Users\stapi\AppData\Local\Temp\cca24Nov.s:2853   .text.tlsv1_client_set_cb:0000000000000014 .L0 
C:\Users\stapi\AppData\Local\Temp\cca24Nov.s:2854   .text.tlsv1_client_set_cb:0000000000000014 .L0 
C:\Users\stapi\AppData\Local\Temp\cca24Nov.s:2858   .text.tlsv1_client_set_cb:000000000000001c .L0 
C:\Users\stapi\AppData\Local\Temp\cca24Nov.s:2859   .text.tlsv1_client_set_cb:000000000000001e .L0 
C:\Users\stapi\AppData\Local\Temp\cca24Nov.s:2876   .text.tlsv1_client_get_version:0000000000000000 tlsv1_client_get_version
C:\Users\stapi\AppData\Local\Temp\cca24Nov.s:2879   .text.tlsv1_client_get_version:0000000000000000 .L0 
C:\Users\stapi\AppData\Local\Temp\cca24Nov.s:2881   .text.tlsv1_client_get_version:0000000000000000 .L0 
C:\Users\stapi\AppData\Local\Temp\cca24Nov.s:2882   .text.tlsv1_client_get_version:0000000000000000 .L0 
C:\Users\stapi\AppData\Local\Temp\cca24Nov.s:2883   .text.tlsv1_client_get_version:0000000000000000 .L0 
C:\Users\stapi\AppData\Local\Temp\cca24Nov.s:2885   .text.tlsv1_client_get_version:0000000000000002 .L0 
C:\Users\stapi\AppData\Local\Temp\cca24Nov.s:2887   .text.tlsv1_client_get_version:0000000000000004 .L0 
C:\Users\stapi\AppData\Local\Temp\cca24Nov.s:2888   .text.tlsv1_client_get_version:000000000000000c .L0 
C:\Users\stapi\AppData\Local\Temp\cca24Nov.s:2889   .text.tlsv1_client_get_version:000000000000000c .L0 
C:\Users\stapi\AppData\Local\Temp\cca24Nov.s:2891   .text.tlsv1_client_get_version:000000000000000c .L0 
C:\Users\stapi\AppData\Local\Temp\cca24Nov.s:2893   .text.tlsv1_client_get_version:0000000000000010 .L0 
C:\Users\stapi\AppData\Local\Temp\cca24Nov.s:2897   .text.tlsv1_client_get_version:0000000000000016 .L0 
C:\Users\stapi\AppData\Local\Temp\cca24Nov.s:2904   .text.tlsv1_client_get_version:000000000000002c .L0 
C:\Users\stapi\AppData\Local\Temp\cca24Nov.s:2909   .text.tlsv1_client_get_version:0000000000000034 .L0 
C:\Users\stapi\AppData\Local\Temp\cca24Nov.s:2912   .text.tlsv1_client_get_version:000000000000003c .L0 
C:\Users\stapi\AppData\Local\Temp\cca24Nov.s:2913   .text.tlsv1_client_get_version:000000000000003c .L0 
C:\Users\stapi\AppData\Local\Temp\cca24Nov.s:2916   .text.tlsv1_client_get_version:000000000000003e .L0 
C:\Users\stapi\AppData\Local\Temp\cca24Nov.s:2918   .text.tlsv1_client_get_version:0000000000000048 .L0 
C:\Users\stapi\AppData\Local\Temp\cca24Nov.s:2919   .text.tlsv1_client_get_version:0000000000000048 .L0 
C:\Users\stapi\AppData\Local\Temp\cca24Nov.s:2920   .text.tlsv1_client_get_version:0000000000000048 .L0 
C:\Users\stapi\AppData\Local\Temp\cca24Nov.s:2923   .text.tlsv1_client_get_version:0000000000000048 .L0 
C:\Users\stapi\AppData\Local\Temp\cca24Nov.s:2925   .text.tlsv1_client_get_version:0000000000000048 .L0 
C:\Users\stapi\AppData\Local\Temp\cca24Nov.s:2930   .text.tlsv1_client_get_version:0000000000000052 .L0 
C:\Users\stapi\AppData\Local\Temp\cca24Nov.s:2935   .text.tlsv1_client_get_version:000000000000005c .L0 
C:\Users\stapi\AppData\Local\Temp\cca24Nov.s:2936   .text.tlsv1_client_get_version:000000000000005c .L0 
C:\Users\stapi\AppData\Local\Temp\cca24Nov.s:2938   .text.tlsv1_client_get_version:000000000000005c .L0 
C:\Users\stapi\AppData\Local\Temp\cca24Nov.s:2940   .text.tlsv1_client_get_version:000000000000005e .L0 
C:\Users\stapi\AppData\Local\Temp\cca24Nov.s:2943   .text.tlsv1_client_get_version:0000000000000062 .L0 
C:\Users\stapi\AppData\Local\Temp\cca24Nov.s:30     .text.tls_alert:000000000000000a .L0 
C:\Users\stapi\AppData\Local\Temp\cca24Nov.s:74     .text.tlsv1_client_free_dh:0000000000000042 .L0 
C:\Users\stapi\AppData\Local\Temp\cca24Nov.s:104    .text.tls_client_highest_ver:0000000000000014 .L0 
C:\Users\stapi\AppData\Local\Temp\cca24Nov.s:154    .text.tls_derive_pre_master_secret:000000000000003e .L0 
C:\Users\stapi\AppData\Local\Temp\cca24Nov.s:442    .text.tls_derive_keys:00000000000001d8 .L0 
C:\Users\stapi\AppData\Local\Temp\cca24Nov.s:927    .text.tlsv1_client_handshake:0000000000000248 .L0 
C:\Users\stapi\AppData\Local\Temp\cca24Nov.s:1034   .text.tlsv1_client_encrypt:0000000000000072 .L0 
C:\Users\stapi\AppData\Local\Temp\cca24Nov.s:1451   .text.tlsv1_client_decrypt:00000000000001e8 .L0 
C:\Users\stapi\AppData\Local\Temp\cca24Nov.s:1466   .text.tlsv1_client_global_init:0000000000000008 .L0 
C:\Users\stapi\AppData\Local\Temp\cca24Nov.s:1480   .text.tlsv1_client_global_deinit:0000000000000008 .L0 
C:\Users\stapi\AppData\Local\Temp\cca24Nov.s:1619   .text.tlsv1_client_init:00000000000000bc .L0 
C:\Users\stapi\AppData\Local\Temp\cca24Nov.s:1698   .text.tlsv1_client_deinit:0000000000000090 .L0 
C:\Users\stapi\AppData\Local\Temp\cca24Nov.s:1718   .text.tlsv1_client_established:000000000000000a .L0 
C:\Users\stapi\AppData\Local\Temp\cca24Nov.s:1900   .text.tlsv1_client_prf:00000000000000d6 .L0 
C:\Users\stapi\AppData\Local\Temp\cca24Nov.s:2258   .text.tlsv1_client_get_cipher:000000000000016e .L0 
C:\Users\stapi\AppData\Local\Temp\cca24Nov.s:2350   .text.tlsv1_client_shutdown:0000000000000086 .L0 
C:\Users\stapi\AppData\Local\Temp\cca24Nov.s:2369   .text.tlsv1_client_resumed:000000000000000a .L0 
C:\Users\stapi\AppData\Local\Temp\cca24Nov.s:2524   .text.tlsv1_client_hello_ext:00000000000000ae .L0 
C:\Users\stapi\AppData\Local\Temp\cca24Nov.s:2593   .text.tlsv1_client_get_random:0000000000000044 .L0 
C:\Users\stapi\AppData\Local\Temp\cca24Nov.s:2631   .text.tlsv1_client_get_keyblock_size:0000000000000020 .L0 
C:\Users\stapi\AppData\Local\Temp\cca24Nov.s:2707   .text.tlsv1_client_set_cipher_list:000000000000004a .L0 
C:\Users\stapi\AppData\Local\Temp\cca24Nov.s:2747   .text.tlsv1_client_set_cred:0000000000000026 .L0 
C:\Users\stapi\AppData\Local\Temp\cca24Nov.s:2779   .text.tlsv1_client_set_flags:0000000000000022 .L0 
C:\Users\stapi\AppData\Local\Temp\cca24Nov.s:2832   .text.tlsv1_client_set_session_ticket_cb:0000000000000034 .L0 
C:\Users\stapi\AppData\Local\Temp\cca24Nov.s:2862   .text.tlsv1_client_set_cb:000000000000001e .L0 
C:\Users\stapi\AppData\Local\Temp\cca24Nov.s:2946   .text.tlsv1_client_get_version:0000000000000062 .L0 
                     .debug_frame:0000000000000000 .L0 
C:\Users\stapi\AppData\Local\Temp\cca24Nov.s:95     .text.tls_client_highest_ver:000000000000000e .L6
C:\Users\stapi\AppData\Local\Temp\cca24Nov.s:156    .rodata.tls_derive_keys.str1.4:0000000000000000 .LC0
C:\Users\stapi\AppData\Local\Temp\cca24Nov.s:159    .rodata.tls_derive_keys.str1.4:000000000000001c .LC1
C:\Users\stapi\AppData\Local\Temp\cca24Nov.s:162    .rodata.tls_derive_keys.str1.4:000000000000002c .LC2
C:\Users\stapi\AppData\Local\Temp\cca24Nov.s:165    .rodata.tls_derive_keys.str1.4:0000000000000054 .LC3
C:\Users\stapi\AppData\Local\Temp\cca24Nov.s:168    .rodata.tls_derive_keys.str1.4:000000000000006c .LC4
C:\Users\stapi\AppData\Local\Temp\cca24Nov.s:171    .rodata.tls_derive_keys.str1.4:000000000000007c .LC5
C:\Users\stapi\AppData\Local\Temp\cca24Nov.s:174    .rodata.tls_derive_keys.str1.4:00000000000000a0 .LC6
C:\Users\stapi\AppData\Local\Temp\cca24Nov.s:291    .text.tls_derive_keys:00000000000000b2 .L10
C:\Users\stapi\AppData\Local\Temp\cca24Nov.s:281    .text.tls_derive_keys:000000000000009a .L11
C:\Users\stapi\AppData\Local\Temp\cca24Nov.s:326    .text.tls_derive_keys:00000000000000f2 .L13
C:\Users\stapi\AppData\Local\Temp\cca24Nov.s:346    .text.tls_derive_keys:0000000000000122 .L14
C:\Users\stapi\AppData\Local\Temp\cca24Nov.s:257    .text.tls_derive_keys:0000000000000082 .L20
C:\Users\stapi\AppData\Local\Temp\cca24Nov.s:433    .text.tls_derive_keys:00000000000001cc .L15
C:\Users\stapi\AppData\Local\Temp\cca24Nov.s:265    .text.tls_derive_keys:000000000000008e .L9
C:\Users\stapi\AppData\Local\Temp\cca24Nov.s:444    .rodata.tlsv1_client_handshake.str1.4:0000000000000000 .LC7
C:\Users\stapi\AppData\Local\Temp\cca24Nov.s:447    .rodata.tlsv1_client_handshake.str1.4:0000000000000034 .LC8
C:\Users\stapi\AppData\Local\Temp\cca24Nov.s:450    .rodata.tlsv1_client_handshake.str1.4:0000000000000060 .LC9
C:\Users\stapi\AppData\Local\Temp\cca24Nov.s:499    .text.tlsv1_client_handshake:0000000000000020 .L22
C:\Users\stapi\AppData\Local\Temp\cca24Nov.s:547    .text.tlsv1_client_handshake:0000000000000046 .L23
C:\Users\stapi\AppData\Local\Temp\cca24Nov.s:515    .text.tlsv1_client_handshake:000000000000002c .L24
C:\Users\stapi\AppData\Local\Temp\cca24Nov.s:525    .text.tlsv1_client_handshake:000000000000003a .L21
C:\Users\stapi\AppData\Local\Temp\cca24Nov.s:632    .text.tlsv1_client_handshake:00000000000000a4 .L26
C:\Users\stapi\AppData\Local\Temp\cca24Nov.s:588    .text.tlsv1_client_handshake:000000000000007e .L27
C:\Users\stapi\AppData\Local\Temp\cca24Nov.s:786    .text.tlsv1_client_handshake:0000000000000180 .L28
C:\Users\stapi\AppData\Local\Temp\cca24Nov.s:608    .text.tlsv1_client_handshake:000000000000009a .L29
C:\Users\stapi\AppData\Local\Temp\cca24Nov.s:509    .text.tlsv1_client_handshake:0000000000000028 .L69
C:\Users\stapi\AppData\Local\Temp\cca24Nov.s:689    .text.tlsv1_client_handshake:00000000000000ee .L37
C:\Users\stapi\AppData\Local\Temp\cca24Nov.s:675    .text.tlsv1_client_handshake:00000000000000dc .L38
C:\Users\stapi\AppData\Local\Temp\cca24Nov.s:736    .text.tlsv1_client_handshake:0000000000000132 .L32
C:\Users\stapi\AppData\Local\Temp\cca24Nov.s:583    .text.tlsv1_client_handshake:000000000000007a .L42
C:\Users\stapi\AppData\Local\Temp\cca24Nov.s:855    .text.tlsv1_client_handshake:00000000000001f8 .L33
C:\Users\stapi\AppData\Local\Temp\cca24Nov.s:840    .text.tlsv1_client_handshake:00000000000001e2 .L34
C:\Users\stapi\AppData\Local\Temp\cca24Nov.s:909    .text.tlsv1_client_handshake:0000000000000234 .L39
C:\Users\stapi\AppData\Local\Temp\cca24Nov.s:830    .text.tlsv1_client_handshake:00000000000001d0 .L41
C:\Users\stapi\AppData\Local\Temp\cca24Nov.s:879    .text.tlsv1_client_handshake:000000000000020a .L36
C:\Users\stapi\AppData\Local\Temp\cca24Nov.s:660    .text.tlsv1_client_handshake:00000000000000c0 .L31
C:\Users\stapi\AppData\Local\Temp\cca24Nov.s:871    .text.tlsv1_client_handshake:0000000000000202 .L35
C:\Users\stapi\AppData\Local\Temp\cca24Nov.s:823    .text.tlsv1_client_handshake:00000000000001c4 .L40
C:\Users\stapi\AppData\Local\Temp\cca24Nov.s:929    .rodata.tlsv1_client_encrypt.str1.4:0000000000000000 .LC10
C:\Users\stapi\AppData\Local\Temp\cca24Nov.s:932    .rodata.tlsv1_client_encrypt.str1.4:000000000000001c .LC11
C:\Users\stapi\AppData\Local\Temp\cca24Nov.s:1025   .text.tlsv1_client_encrypt:000000000000006e .L71
C:\Users\stapi\AppData\Local\Temp\cca24Nov.s:1011   .text.tlsv1_client_encrypt:0000000000000064 .L70
C:\Users\stapi\AppData\Local\Temp\cca24Nov.s:1042   .rodata.tlsv1_client_decrypt.str1.4:0000000000000040 .LC14
C:\Users\stapi\AppData\Local\Temp\cca24Nov.s:1036   .rodata.tlsv1_client_decrypt.str1.4:0000000000000000 .LC12
C:\Users\stapi\AppData\Local\Temp\cca24Nov.s:1039   .rodata.tlsv1_client_decrypt.str1.4:0000000000000028 .LC13
C:\Users\stapi\AppData\Local\Temp\cca24Nov.s:1045   .rodata.tlsv1_client_decrypt.str1.4:000000000000005c .LC15
C:\Users\stapi\AppData\Local\Temp\cca24Nov.s:1092   .text.tlsv1_client_decrypt:000000000000001a .L75
C:\Users\stapi\AppData\Local\Temp\cca24Nov.s:1169   .text.tlsv1_client_decrypt:0000000000000074 .L76
C:\Users\stapi\AppData\Local\Temp\cca24Nov.s:1126   .text.tlsv1_client_decrypt:000000000000004e .L77
C:\Users\stapi\AppData\Local\Temp\cca24Nov.s:1272   .text.tlsv1_client_decrypt:00000000000000fa .L78
C:\Users\stapi\AppData\Local\Temp\cca24Nov.s:1145   .text.tlsv1_client_decrypt:000000000000006a .L79
C:\Users\stapi\AppData\Local\Temp\cca24Nov.s:1202   .text.tlsv1_client_decrypt:000000000000009c .L92
C:\Users\stapi\AppData\Local\Temp\cca24Nov.s:1350   .text.tlsv1_client_decrypt:0000000000000166 .L112
C:\Users\stapi\AppData\Local\Temp\cca24Nov.s:1116   .text.tlsv1_client_decrypt:0000000000000044 .L111
C:\Users\stapi\AppData\Local\Temp\cca24Nov.s:1310   .text.tlsv1_client_decrypt:0000000000000126 .L82
C:\Users\stapi\AppData\Local\Temp\cca24Nov.s:1356   .text.tlsv1_client_decrypt:0000000000000168 .L74
C:\Users\stapi\AppData\Local\Temp\cca24Nov.s:1377   .text.tlsv1_client_decrypt:0000000000000172 .L83
C:\Users\stapi\AppData\Local\Temp\cca24Nov.s:1108   .text.tlsv1_client_decrypt:0000000000000032 .L84
C:\Users\stapi\AppData\Local\Temp\cca24Nov.s:1423   .text.tlsv1_client_decrypt:00000000000001bc .L87
C:\Users\stapi\AppData\Local\Temp\cca24Nov.s:1398   .text.tlsv1_client_decrypt:0000000000000194 .L88
C:\Users\stapi\AppData\Local\Temp\cca24Nov.s:1120   .text.tlsv1_client_decrypt:0000000000000048 .L110
C:\Users\stapi\AppData\Local\Temp\cca24Nov.s:1417   .text.tlsv1_client_decrypt:00000000000001b6 .L89
C:\Users\stapi\AppData\Local\Temp\cca24Nov.s:1191   .text.tlsv1_client_decrypt:0000000000000086 .L80
C:\Users\stapi\AppData\Local\Temp\cca24Nov.s:1440   .text.tlsv1_client_decrypt:00000000000001da .L91
C:\Users\stapi\AppData\Local\Temp\cca24Nov.s:1411   .text.tlsv1_client_decrypt:00000000000001b2 .L109
C:\Users\stapi\AppData\Local\Temp\cca24Nov.s:1482   .rodata.tlsv1_client_init.str1.4:0000000000000000 .LC16
C:\Users\stapi\AppData\Local\Temp\cca24Nov.s:1533   .text.tlsv1_client_init:000000000000004a .L117
C:\Users\stapi\AppData\Local\Temp\cca24Nov.s:1542   .text.tlsv1_client_init:0000000000000054 .L119
C:\Users\stapi\AppData\Local\Temp\cca24Nov.s:1782   .text.tlsv1_client_prf:0000000000000020 .L128
C:\Users\stapi\AppData\Local\Temp\cca24Nov.s:1759   .text.tlsv1_client_prf:0000000000000014 .L130
C:\Users\stapi\AppData\Local\Temp\cca24Nov.s:1804   .text.tlsv1_client_prf:000000000000003a .L131
C:\Users\stapi\AppData\Local\Temp\cca24Nov.s:1888   .text.tlsv1_client_prf:00000000000000c4 .L132
C:\Users\stapi\AppData\Local\Temp\cca24Nov.s:1865   .text.tlsv1_client_prf:0000000000000098 .L134
C:\Users\stapi\AppData\Local\Temp\cca24Nov.s:1762   .text.tlsv1_client_prf:0000000000000016 .L127
C:\Users\stapi\AppData\Local\Temp\cca24Nov.s:1833   .text.tlsv1_client_prf:000000000000006c .L143
C:\Users\stapi\AppData\Local\Temp\cca24Nov.s:2012   .rodata.tlsv1_client_get_cipher:0000000000000000 .L150
C:\Users\stapi\AppData\Local\Temp\cca24Nov.s:1929   .rodata.tlsv1_client_get_cipher.str1.4:0000000000000094 .LC26
C:\Users\stapi\AppData\Local\Temp\cca24Nov.s:2066   .rodata.tlsv1_client_get_cipher:000000000000003c .L159
C:\Users\stapi\AppData\Local\Temp\cca24Nov.s:1959   .rodata.tlsv1_client_get_cipher.str1.4:0000000000000140 .LC36
C:\Users\stapi\AppData\Local\Temp\cca24Nov.s:1902   .rodata.tlsv1_client_get_cipher.str1.4:0000000000000000 .LC17
C:\Users\stapi\AppData\Local\Temp\cca24Nov.s:1962   .rodata.tlsv1_client_get_cipher.str1.4:0000000000000148 .LC37
C:\Users\stapi\AppData\Local\Temp\cca24Nov.s:1908   .rodata.tlsv1_client_get_cipher.str1.4:0000000000000020 .LC19
C:\Users\stapi\AppData\Local\Temp\cca24Nov.s:1911   .rodata.tlsv1_client_get_cipher.str1.4:000000000000002c .LC20
C:\Users\stapi\AppData\Local\Temp\cca24Nov.s:1914   .rodata.tlsv1_client_get_cipher.str1.4:000000000000003c .LC21
C:\Users\stapi\AppData\Local\Temp\cca24Nov.s:1917   .rodata.tlsv1_client_get_cipher.str1.4:0000000000000050 .LC22
C:\Users\stapi\AppData\Local\Temp\cca24Nov.s:1920   .rodata.tlsv1_client_get_cipher.str1.4:0000000000000068 .LC23
C:\Users\stapi\AppData\Local\Temp\cca24Nov.s:1923   .rodata.tlsv1_client_get_cipher.str1.4:0000000000000074 .LC24
C:\Users\stapi\AppData\Local\Temp\cca24Nov.s:1926   .rodata.tlsv1_client_get_cipher.str1.4:0000000000000080 .LC25
C:\Users\stapi\AppData\Local\Temp\cca24Nov.s:1935   .rodata.tlsv1_client_get_cipher.str1.4:00000000000000b4 .LC28
C:\Users\stapi\AppData\Local\Temp\cca24Nov.s:1938   .rodata.tlsv1_client_get_cipher.str1.4:00000000000000c4 .LC29
C:\Users\stapi\AppData\Local\Temp\cca24Nov.s:1941   .rodata.tlsv1_client_get_cipher.str1.4:00000000000000d0 .LC30
C:\Users\stapi\AppData\Local\Temp\cca24Nov.s:1944   .rodata.tlsv1_client_get_cipher.str1.4:00000000000000e4 .LC31
C:\Users\stapi\AppData\Local\Temp\cca24Nov.s:1947   .rodata.tlsv1_client_get_cipher.str1.4:00000000000000f4 .LC32
C:\Users\stapi\AppData\Local\Temp\cca24Nov.s:1950   .rodata.tlsv1_client_get_cipher.str1.4:0000000000000104 .LC33
C:\Users\stapi\AppData\Local\Temp\cca24Nov.s:1932   .rodata.tlsv1_client_get_cipher.str1.4:00000000000000a0 .LC27
C:\Users\stapi\AppData\Local\Temp\cca24Nov.s:1905   .rodata.tlsv1_client_get_cipher.str1.4:0000000000000018 .LC18
C:\Users\stapi\AppData\Local\Temp\cca24Nov.s:1953   .rodata.tlsv1_client_get_cipher.str1.4:0000000000000114 .LC34
C:\Users\stapi\AppData\Local\Temp\cca24Nov.s:1956   .rodata.tlsv1_client_get_cipher.str1.4:0000000000000128 .LC35
C:\Users\stapi\AppData\Local\Temp\cca24Nov.s:2097   .text.tlsv1_client_get_cipher:000000000000008c .L145
C:\Users\stapi\AppData\Local\Temp\cca24Nov.s:1999   .text.tlsv1_client_get_cipher:0000000000000030 .L146
C:\Users\stapi\AppData\Local\Temp\cca24Nov.s:2056   .text.tlsv1_client_get_cipher:0000000000000072 .L147
C:\Users\stapi\AppData\Local\Temp\cca24Nov.s:2048   .text.tlsv1_client_get_cipher:000000000000006a .L144
C:\Users\stapi\AppData\Local\Temp\cca24Nov.s:1994   .text.tlsv1_client_get_cipher:000000000000002c .L170
C:\Users\stapi\AppData\Local\Temp\cca24Nov.s:2033   .text.tlsv1_client_get_cipher:0000000000000056 .L156
C:\Users\stapi\AppData\Local\Temp\cca24Nov.s:2245   .text.tlsv1_client_get_cipher:000000000000015a .L172
C:\Users\stapi\AppData\Local\Temp\cca24Nov.s:2109   .text.tlsv1_client_get_cipher:00000000000000b2 .L167
C:\Users\stapi\AppData\Local\Temp\cca24Nov.s:2250   .text.tlsv1_client_get_cipher:0000000000000164 .L173
C:\Users\stapi\AppData\Local\Temp\cca24Nov.s:2029   .text.tlsv1_client_get_cipher:000000000000004e .L157
C:\Users\stapi\AppData\Local\Temp\cca24Nov.s:2235   .text.tlsv1_client_get_cipher:0000000000000146 .L169
C:\Users\stapi\AppData\Local\Temp\cca24Nov.s:2181   .text.tlsv1_client_get_cipher:000000000000010a .L155
C:\Users\stapi\AppData\Local\Temp\cca24Nov.s:2190   .text.tlsv1_client_get_cipher:0000000000000114 .L154
C:\Users\stapi\AppData\Local\Temp\cca24Nov.s:2199   .text.tlsv1_client_get_cipher:000000000000011e .L153
C:\Users\stapi\AppData\Local\Temp\cca24Nov.s:2208   .text.tlsv1_client_get_cipher:0000000000000128 .L152
C:\Users\stapi\AppData\Local\Temp\cca24Nov.s:2217   .text.tlsv1_client_get_cipher:0000000000000132 .L151
C:\Users\stapi\AppData\Local\Temp\cca24Nov.s:2226   .text.tlsv1_client_get_cipher:000000000000013c .L149
C:\Users\stapi\AppData\Local\Temp\cca24Nov.s:2240   .text.tlsv1_client_get_cipher:0000000000000150 .L171
C:\Users\stapi\AppData\Local\Temp\cca24Nov.s:2092   .text.tlsv1_client_get_cipher:0000000000000082 .L166
C:\Users\stapi\AppData\Local\Temp\cca24Nov.s:2117   .text.tlsv1_client_get_cipher:00000000000000c4 .L165
C:\Users\stapi\AppData\Local\Temp\cca24Nov.s:2127   .text.tlsv1_client_get_cipher:00000000000000ce .L164
C:\Users\stapi\AppData\Local\Temp\cca24Nov.s:2136   .text.tlsv1_client_get_cipher:00000000000000d8 .L163
C:\Users\stapi\AppData\Local\Temp\cca24Nov.s:2145   .text.tlsv1_client_get_cipher:00000000000000e2 .L162
C:\Users\stapi\AppData\Local\Temp\cca24Nov.s:2154   .text.tlsv1_client_get_cipher:00000000000000ec .L161
C:\Users\stapi\AppData\Local\Temp\cca24Nov.s:2163   .text.tlsv1_client_get_cipher:00000000000000f6 .L160
C:\Users\stapi\AppData\Local\Temp\cca24Nov.s:2172   .text.tlsv1_client_get_cipher:0000000000000100 .L158
C:\Users\stapi\AppData\Local\Temp\cca24Nov.s:2260   .rodata.tlsv1_client_shutdown.str1.4:0000000000000000 .LC38
C:\Users\stapi\AppData\Local\Temp\cca24Nov.s:2306   .text.tlsv1_client_shutdown:000000000000003a .L178
C:\Users\stapi\AppData\Local\Temp\cca24Nov.s:2298   .text.tlsv1_client_shutdown:0000000000000032 .L177
C:\Users\stapi\AppData\Local\Temp\cca24Nov.s:2371   .rodata.tlsv1_client_hello_ext.str1.4:0000000000000000 .LC39
C:\Users\stapi\AppData\Local\Temp\cca24Nov.s:2432   .text.tlsv1_client_hello_ext:000000000000003c .L183
C:\Users\stapi\AppData\Local\Temp\cca24Nov.s:2418   .text.tlsv1_client_hello_ext:0000000000000032 .L191
C:\Users\stapi\AppData\Local\Temp\cca24Nov.s:2421   .text.tlsv1_client_hello_ext:0000000000000034 .L182
C:\Users\stapi\AppData\Local\Temp\cca24Nov.s:2583   .text.tlsv1_client_get_random:000000000000003c .L192
C:\Users\stapi\AppData\Local\Temp\cca24Nov.s:2622   .text.tlsv1_client_get_keyblock_size:000000000000001c .L199
C:\Users\stapi\AppData\Local\Temp\cca24Nov.s:2698   .text.tlsv1_client_set_cipher_list:0000000000000046 .L201
C:\Users\stapi\AppData\Local\Temp\cca24Nov.s:2781   .rodata.tlsv1_client_set_session_ticket_cb.str1.4:0000000000000000 .LC40
C:\Users\stapi\AppData\Local\Temp\cca24Nov.s:2864   .rodata.tlsv1_client_get_version.str1.4:0000000000000000 .LC41
C:\Users\stapi\AppData\Local\Temp\cca24Nov.s:2867   .rodata.tlsv1_client_get_version.str1.4:0000000000000008 .LC42
C:\Users\stapi\AppData\Local\Temp\cca24Nov.s:2870   .rodata.tlsv1_client_get_version.str1.4:0000000000000010 .LC43
C:\Users\stapi\AppData\Local\Temp\cca24Nov.s:2934   .text.tlsv1_client_get_version:000000000000005c .L213
C:\Users\stapi\AppData\Local\Temp\cca24Nov.s:2922   .text.tlsv1_client_get_version:0000000000000048 .L211
C:\Users\stapi\AppData\Local\Temp\cca24Nov.s:2928   .text.tlsv1_client_get_version:0000000000000052 .L212
C:\Users\stapi\AppData\Local\Temp\cca24Nov.s:2914   .text.tlsv1_client_get_version:000000000000003e .L209
C:\Users\stapi\AppData\Local\Temp\cca24Nov.s:2907   .text.tlsv1_client_get_version:0000000000000034 .L219
C:\Users\stapi\AppData\Local\Temp\cca24Nov.s:7945   .debug_abbrev:0000000000000000 .Ldebug_abbrev0
C:\Users\stapi\AppData\Local\Temp\cca24Nov.s:11716  .debug_str:0000000000001475 .LASF334
C:\Users\stapi\AppData\Local\Temp\cca24Nov.s:11148  .debug_str:0000000000000246 .LASF335
C:\Users\stapi\AppData\Local\Temp\cca24Nov.s:11252  .debug_str:00000000000005de .LASF336
C:\Users\stapi\AppData\Local\Temp\cca24Nov.s:10970  .debug_ranges:0000000000000000 .Ldebug_ranges0
C:\Users\stapi\AppData\Local\Temp\cca24Nov.s:11058  .debug_line:0000000000000000 .Ldebug_line0
C:\Users\stapi\AppData\Local\Temp\cca24Nov.s:11300  .debug_str:00000000000007da .LASF2
C:\Users\stapi\AppData\Local\Temp\cca24Nov.s:11112  .debug_str:0000000000000160 .LASF0
C:\Users\stapi\AppData\Local\Temp\cca24Nov.s:11692  .debug_str:0000000000001395 .LASF1
C:\Users\stapi\AppData\Local\Temp\cca24Nov.s:11574  .debug_str:0000000000000fe3 .LASF3
C:\Users\stapi\AppData\Local\Temp\cca24Nov.s:11622  .debug_str:000000000000116b .LASF4
C:\Users\stapi\AppData\Local\Temp\cca24Nov.s:11150  .debug_str:00000000000002d6 .LASF5
C:\Users\stapi\AppData\Local\Temp\cca24Nov.s:11244  .debug_str:00000000000005a1 .LASF6
C:\Users\stapi\AppData\Local\Temp\cca24Nov.s:11696  .debug_str:00000000000013be .LASF7
C:\Users\stapi\AppData\Local\Temp\cca24Nov.s:11540  .debug_str:0000000000000ed4 .LASF8
C:\Users\stapi\AppData\Local\Temp\cca24Nov.s:11598  .debug_str:00000000000010aa .LASF9
C:\Users\stapi\AppData\Local\Temp\cca24Nov.s:11422  .debug_str:0000000000000b34 .LASF10
C:\Users\stapi\AppData\Local\Temp\cca24Nov.s:11230  .debug_str:0000000000000545 .LASF11
C:\Users\stapi\AppData\Local\Temp\cca24Nov.s:11368  .debug_str:00000000000009bf .LASF12
C:\Users\stapi\AppData\Local\Temp\cca24Nov.s:11402  .debug_str:0000000000000aac .LASF13
C:\Users\stapi\AppData\Local\Temp\cca24Nov.s:11502  .debug_str:0000000000000db7 .LASF14
C:\Users\stapi\AppData\Local\Temp\cca24Nov.s:11310  .debug_str:0000000000000815 .LASF15
C:\Users\stapi\AppData\Local\Temp\cca24Nov.s:11416  .debug_str:0000000000000b01 .LASF16
C:\Users\stapi\AppData\Local\Temp\cca24Nov.s:11166  .debug_str:0000000000000342 .LASF26
C:\Users\stapi\AppData\Local\Temp\cca24Nov.s:11460  .debug_str:0000000000000c7d .LASF17
C:\Users\stapi\AppData\Local\Temp\cca24Nov.s:11278  .debug_str:0000000000000721 .LASF18
C:\Users\stapi\AppData\Local\Temp\cca24Nov.s:11098  .debug_str:000000000000011e .LASF19
C:\Users\stapi\AppData\Local\Temp\cca24Nov.s:11736  .debug_str:0000000000001605 .LASF20
C:\Users\stapi\AppData\Local\Temp\cca24Nov.s:11484  .debug_str:0000000000000d2f .LASF21
C:\Users\stapi\AppData\Local\Temp\cca24Nov.s:11256  .debug_str:000000000000067a .LASF22
C:\Users\stapi\AppData\Local\Temp\cca24Nov.s:11306  .debug_str:0000000000000807 .LASF23
C:\Users\stapi\AppData\Local\Temp\cca24Nov.s:11432  .debug_str:0000000000000b76 .LASF24
C:\Users\stapi\AppData\Local\Temp\cca24Nov.s:11350  .debug_str:0000000000000929 .LASF25
C:\Users\stapi\AppData\Local\Temp\cca24Nov.s:11162  .debug_str:0000000000000328 .LASF27
C:\Users\stapi\AppData\Local\Temp\cca24Nov.s:11250  .debug_str:00000000000005d0 .LASF28
C:\Users\stapi\AppData\Local\Temp\cca24Nov.s:11720  .debug_str:0000000000001590 .LASF29
C:\Users\stapi\AppData\Local\Temp\cca24Nov.s:11650  .debug_str:000000000000125e .LASF30
C:\Users\stapi\AppData\Local\Temp\cca24Nov.s:11524  .debug_str:0000000000000e53 .LASF31
C:\Users\stapi\AppData\Local\Temp\cca24Nov.s:11412  .debug_str:0000000000000aea .LASF36
C:\Users\stapi\AppData\Local\Temp\cca24Nov.s:11646  .debug_str:0000000000001230 .LASF32
C:\Users\stapi\AppData\Local\Temp\cca24Nov.s:11648  .debug_str:0000000000001247 .LASF33
C:\Users\stapi\AppData\Local\Temp\cca24Nov.s:11320  .debug_str:0000000000000850 .LASF34
C:\Users\stapi\AppData\Local\Temp\cca24Nov.s:11504  .debug_str:0000000000000dc0 .LASF35
C:\Users\stapi\AppData\Local\Temp\cca24Nov.s:11608  .debug_str:00000000000010f6 .LASF37
C:\Users\stapi\AppData\Local\Temp\cca24Nov.s:11628  .debug_str:00000000000011a3 .LASF38
C:\Users\stapi\AppData\Local\Temp\cca24Nov.s:11612  .debug_str:000000000000111d .LASF39
C:\Users\stapi\AppData\Local\Temp\cca24Nov.s:11246  .debug_str:00000000000005ac .LASF40
C:\Users\stapi\AppData\Local\Temp\cca24Nov.s:11060  .debug_str:0000000000000000 .LASF41
C:\Users\stapi\AppData\Local\Temp\cca24Nov.s:11588  .debug_str:000000000000104b .LASF42
C:\Users\stapi\AppData\Local\Temp\cca24Nov.s:11596  .debug_str:0000000000001090 .LASF43
C:\Users\stapi\AppData\Local\Temp\cca24Nov.s:11694  .debug_str:00000000000013a1 .LASF44
C:\Users\stapi\AppData\Local\Temp\cca24Nov.s:11630  .debug_str:00000000000011b8 .LASF45
C:\Users\stapi\AppData\Local\Temp\cca24Nov.s:11486  .debug_str:0000000000000d3b .LASF46
C:\Users\stapi\AppData\Local\Temp\cca24Nov.s:11444  .debug_str:0000000000000bcc .LASF47
C:\Users\stapi\AppData\Local\Temp\cca24Nov.s:11360  .debug_str:000000000000097b .LASF48
C:\Users\stapi\AppData\Local\Temp\cca24Nov.s:11284  .debug_str:000000000000074f .LASF49
C:\Users\stapi\AppData\Local\Temp\cca24Nov.s:11126  .debug_str:00000000000001b4 .LASF50
C:\Users\stapi\AppData\Local\Temp\cca24Nov.s:11554  .debug_str:0000000000000f4a .LASF51
C:\Users\stapi\AppData\Local\Temp\cca24Nov.s:11656  .debug_str:0000000000001296 .LASF52
C:\Users\stapi\AppData\Local\Temp\cca24Nov.s:11128  .debug_str:00000000000001c9 .LASF53
C:\Users\stapi\AppData\Local\Temp\cca24Nov.s:11308  .debug_str:0000000000000810 .LASF54
C:\Users\stapi\AppData\Local\Temp\cca24Nov.s:11542  .debug_str:0000000000000edd .LASF55
C:\Users\stapi\AppData\Local\Temp\cca24Nov.s:11102  .debug_str:000000000000012e .LASF56
C:\Users\stapi\AppData\Local\Temp\cca24Nov.s:11708  .debug_str:0000000000001435 .LASF57
C:\Users\stapi\AppData\Local\Temp\cca24Nov.s:11118  .debug_str:000000000000017a .LASF58
C:\Users\stapi\AppData\Local\Temp\cca24Nov.s:11556  .debug_str:0000000000000f58 .LASF59
C:\Users\stapi\AppData\Local\Temp\cca24Nov.s:11234  .debug_str:000000000000056f .LASF60
C:\Users\stapi\AppData\Local\Temp\cca24Nov.s:11240  .debug_str:000000000000058e .LASF61
C:\Users\stapi\AppData\Local\Temp\cca24Nov.s:11324  .debug_str:0000000000000882 .LASF62
C:\Users\stapi\AppData\Local\Temp\cca24Nov.s:11618  .debug_str:0000000000001150 .LASF63
C:\Users\stapi\AppData\Local\Temp\cca24Nov.s:11428  .debug_str:0000000000000b58 .LASF64
C:\Users\stapi\AppData\Local\Temp\cca24Nov.s:11382  .debug_str:0000000000000a17 .LASF337
C:\Users\stapi\AppData\Local\Temp\cca24Nov.s:11074  .debug_str:0000000000000067 .LASF65
C:\Users\stapi\AppData\Local\Temp\cca24Nov.s:11426  .debug_str:0000000000000b4e .LASF66
C:\Users\stapi\AppData\Local\Temp\cca24Nov.s:11140  .debug_str:000000000000021c .LASF67
C:\Users\stapi\AppData\Local\Temp\cca24Nov.s:11314  .debug_str:0000000000000822 .LASF68
C:\Users\stapi\AppData\Local\Temp\cca24Nov.s:11176  .debug_str:0000000000000383 .LASF69
C:\Users\stapi\AppData\Local\Temp\cca24Nov.s:11152  .debug_str:00000000000002e0 .LASF70
C:\Users\stapi\AppData\Local\Temp\cca24Nov.s:11266  .debug_str:00000000000006bc .LASF71
C:\Users\stapi\AppData\Local\Temp\cca24Nov.s:11452  .debug_str:0000000000000c38 .LASF72
C:\Users\stapi\AppData\Local\Temp\cca24Nov.s:11354  .debug_str:0000000000000947 .LASF73
C:\Users\stapi\AppData\Local\Temp\cca24Nov.s:11220  .debug_str:0000000000000506 .LASF74
C:\Users\stapi\AppData\Local\Temp\cca24Nov.s:11226  .debug_str:0000000000000532 .LASF75
C:\Users\stapi\AppData\Local\Temp\cca24Nov.s:11462  .debug_str:0000000000000c82 .LASF76
C:\Users\stapi\AppData\Local\Temp\cca24Nov.s:11362  .debug_str:0000000000000994 .LASF77
C:\Users\stapi\AppData\Local\Temp\cca24Nov.s:11592  .debug_str:000000000000106d .LASF78
C:\Users\stapi\AppData\Local\Temp\cca24Nov.s:11120  .debug_str:0000000000000189 .LASF79
C:\Users\stapi\AppData\Local\Temp\cca24Nov.s:11080  .debug_str:0000000000000097 .LASF80
C:\Users\stapi\AppData\Local\Temp\cca24Nov.s:11580  .debug_str:0000000000001006 .LASF81
C:\Users\stapi\AppData\Local\Temp\cca24Nov.s:11586  .debug_str:000000000000103a .LASF82
C:\Users\stapi\AppData\Local\Temp\cca24Nov.s:11122  .debug_str:000000000000019b .LASF83
C:\Users\stapi\AppData\Local\Temp\cca24Nov.s:11590  .debug_str:000000000000105c .LASF84
C:\Users\stapi\AppData\Local\Temp\cca24Nov.s:11614  .debug_str:0000000000001130 .LASF85
C:\Users\stapi\AppData\Local\Temp\cca24Nov.s:11358  .debug_str:000000000000096c .LASF86
C:\Users\stapi\AppData\Local\Temp\cca24Nov.s:11270  .debug_str:00000000000006ed .LASF87
C:\Users\stapi\AppData\Local\Temp\cca24Nov.s:11100  .debug_str:0000000000000124 .LASF88
C:\Users\stapi\AppData\Local\Temp\cca24Nov.s:11238  .debug_str:0000000000000589 .LASF89
C:\Users\stapi\AppData\Local\Temp\cca24Nov.s:11212  .debug_str:00000000000004dd .LASF90
C:\Users\stapi\AppData\Local\Temp\cca24Nov.s:11136  .debug_str:0000000000000201 .LASF91
C:\Users\stapi\AppData\Local\Temp\cca24Nov.s:11410  .debug_str:0000000000000ae0 .LASF92
C:\Users\stapi\AppData\Local\Temp\cca24Nov.s:11356  .debug_str:0000000000000965 .LASF93
C:\Users\stapi\AppData\Local\Temp\cca24Nov.s:11454  .debug_str:0000000000000c56 .LASF94
C:\Users\stapi\AppData\Local\Temp\cca24Nov.s:11456  .debug_str:0000000000000c63 .LASF95
C:\Users\stapi\AppData\Local\Temp\cca24Nov.s:11458  .debug_str:0000000000000c70 .LASF96
C:\Users\stapi\AppData\Local\Temp\cca24Nov.s:11536  .debug_str:0000000000000eb5 .LASF97
C:\Users\stapi\AppData\Local\Temp\cca24Nov.s:11114  .debug_str:000000000000016d .LASF98
C:\Users\stapi\AppData\Local\Temp\cca24Nov.s:11116  .debug_str:0000000000000172 .LASF99
C:\Users\stapi\AppData\Local\Temp\cca24Nov.s:11104  .debug_str:0000000000000137 .LASF100
C:\Users\stapi\AppData\Local\Temp\cca24Nov.s:11294  .debug_str:00000000000007af .LASF101
C:\Users\stapi\AppData\Local\Temp\cca24Nov.s:11260  .debug_str:0000000000000697 .LASF102
C:\Users\stapi\AppData\Local\Temp\cca24Nov.s:11408  .debug_str:0000000000000ad9 .LASF103
C:\Users\stapi\AppData\Local\Temp\cca24Nov.s:11558  .debug_str:0000000000000f63 .LASF104
C:\Users\stapi\AppData\Local\Temp\cca24Nov.s:11164  .debug_str:0000000000000333 .LASF105
C:\Users\stapi\AppData\Local\Temp\cca24Nov.s:11658  .debug_str:000000000000129c .LASF106
C:\Users\stapi\AppData\Local\Temp\cca24Nov.s:11640  .debug_str:00000000000011fe .LASF107
C:\Users\stapi\AppData\Local\Temp\cca24Nov.s:11578  .debug_str:0000000000000ff7 .LASF108
C:\Users\stapi\AppData\Local\Temp\cca24Nov.s:11222  .debug_str:000000000000051c .LASF109
C:\Users\stapi\AppData\Local\Temp\cca24Nov.s:11522  .debug_str:0000000000000e44 .LASF110
C:\Users\stapi\AppData\Local\Temp\cca24Nov.s:11550  .debug_str:0000000000000f1e .LASF111
C:\Users\stapi\AppData\Local\Temp\cca24Nov.s:11326  .debug_str:000000000000088b .LASF112
C:\Users\stapi\AppData\Local\Temp\cca24Nov.s:11158  .debug_str:000000000000030f .LASF113
C:\Users\stapi\AppData\Local\Temp\cca24Nov.s:11232  .debug_str:000000000000055c .LASF114
C:\Users\stapi\AppData\Local\Temp\cca24Nov.s:11202  .debug_str:0000000000000480 .LASF115
C:\Users\stapi\AppData\Local\Temp\cca24Nov.s:11254  .debug_str:0000000000000670 .LASF116
C:\Users\stapi\AppData\Local\Temp\cca24Nov.s:11082  .debug_str:00000000000000a9 .LASF117
C:\Users\stapi\AppData\Local\Temp\cca24Nov.s:11076  .debug_str:0000000000000071 .LASF118
C:\Users\stapi\AppData\Local\Temp\cca24Nov.s:11224  .debug_str:0000000000000527 .LASF119
C:\Users\stapi\AppData\Local\Temp\cca24Nov.s:11534  .debug_str:0000000000000eac .LASF120
C:\Users\stapi\AppData\Local\Temp\cca24Nov.s:11512  .debug_str:0000000000000dfb .LASF121
C:\Users\stapi\AppData\Local\Temp\cca24Nov.s:11518  .debug_str:0000000000000e20 .LASF122
C:\Users\stapi\AppData\Local\Temp\cca24Nov.s:11394  .debug_str:0000000000000a70 .LASF123
C:\Users\stapi\AppData\Local\Temp\cca24Nov.s:11488  .debug_str:0000000000000d57 .LASF124
C:\Users\stapi\AppData\Local\Temp\cca24Nov.s:11442  .debug_str:0000000000000bbd .LASF125
C:\Users\stapi\AppData\Local\Temp\cca24Nov.s:11336  .debug_str:00000000000008b9 .LASF126
C:\Users\stapi\AppData\Local\Temp\cca24Nov.s:11352  .debug_str:0000000000000933 .LASF127
C:\Users\stapi\AppData\Local\Temp\cca24Nov.s:11288  .debug_str:0000000000000778 .LASF128
C:\Users\stapi\AppData\Local\Temp\cca24Nov.s:11194  .debug_str:000000000000041e .LASF129
C:\Users\stapi\AppData\Local\Temp\cca24Nov.s:11404  .debug_str:0000000000000ab4 .LASF130
C:\Users\stapi\AppData\Local\Temp\cca24Nov.s:11562  .debug_str:0000000000000f77 .LASF131
C:\Users\stapi\AppData\Local\Temp\cca24Nov.s:11384  .debug_str:0000000000000a26 .LASF132
C:\Users\stapi\AppData\Local\Temp\cca24Nov.s:11672  .debug_str:00000000000012f7 .LASF133
C:\Users\stapi\AppData\Local\Temp\cca24Nov.s:11520  .debug_str:0000000000000e2d .LASF134
C:\Users\stapi\AppData\Local\Temp\cca24Nov.s:11506  .debug_str:0000000000000dca .LASF135
C:\Users\stapi\AppData\Local\Temp\cca24Nov.s:11236  .debug_str:0000000000000576 .LASF136
C:\Users\stapi\AppData\Local\Temp\cca24Nov.s:11490  .debug_str:0000000000000d64 .LASF137
C:\Users\stapi\AppData\Local\Temp\cca24Nov.s:11420  .debug_str:0000000000000b1d .LASF138
C:\Users\stapi\AppData\Local\Temp\cca24Nov.s:11572  .debug_str:0000000000000fcd .LASF139
C:\Users\stapi\AppData\Local\Temp\cca24Nov.s:11188  .debug_str:00000000000003db .LASF140
C:\Users\stapi\AppData\Local\Temp\cca24Nov.s:11190  .debug_str:00000000000003f1 .LASF141
C:\Users\stapi\AppData\Local\Temp\cca24Nov.s:11714  .debug_str:0000000000001465 .LASF142
C:\Users\stapi\AppData\Local\Temp\cca24Nov.s:11286  .debug_str:000000000000076d .LASF143
C:\Users\stapi\AppData\Local\Temp\cca24Nov.s:11378  .debug_str:00000000000009ff .LASF144
C:\Users\stapi\AppData\Local\Temp\cca24Nov.s:11616  .debug_str:0000000000001142 .LASF145
C:\Users\stapi\AppData\Local\Temp\cca24Nov.s:11594  .debug_str:0000000000001085 .LASF146
C:\Users\stapi\AppData\Local\Temp\cca24Nov.s:11676  .debug_str:000000000000131a .LASF147
C:\Users\stapi\AppData\Local\Temp\cca24Nov.s:11272  .debug_str:00000000000006f3 .LASF148
C:\Users\stapi\AppData\Local\Temp\cca24Nov.s:11470  .debug_str:0000000000000cc1 .LASF149
C:\Users\stapi\AppData\Local\Temp\cca24Nov.s:11228  .debug_str:000000000000053b .LASF150
C:\Users\stapi\AppData\Local\Temp\cca24Nov.s:11424  .debug_str:0000000000000b42 .LASF151
C:\Users\stapi\AppData\Local\Temp\cca24Nov.s:11086  .debug_str:00000000000000cc .LASF176
C:\Users\stapi\AppData\Local\Temp\cca24Nov.s:11624  .debug_str:0000000000001179 .LASF152
C:\Users\stapi\AppData\Local\Temp\cca24Nov.s:11482  .debug_str:0000000000000d18 .LASF153
C:\Users\stapi\AppData\Local\Temp\cca24Nov.s:11700  .debug_str:00000000000013df .LASF154
C:\Users\stapi\AppData\Local\Temp\cca24Nov.s:11718  .debug_str:000000000000156e .LASF155
C:\Users\stapi\AppData\Local\Temp\cca24Nov.s:11258  .debug_str:0000000000000684 .LASF156
C:\Users\stapi\AppData\Local\Temp\cca24Nov.s:11396  .debug_str:0000000000000a7a .LASF157
C:\Users\stapi\AppData\Local\Temp\cca24Nov.s:11276  .debug_str:0000000000000710 .LASF158
C:\Users\stapi\AppData\Local\Temp\cca24Nov.s:11678  .debug_str:0000000000001326 .LASF159
C:\Users\stapi\AppData\Local\Temp\cca24Nov.s:11160  .debug_str:000000000000031e .LASF160
C:\Users\stapi\AppData\Local\Temp\cca24Nov.s:11070  .debug_str:0000000000000050 .LASF161
C:\Users\stapi\AppData\Local\Temp\cca24Nov.s:11544  .debug_str:0000000000000ee2 .LASF162
C:\Users\stapi\AppData\Local\Temp\cca24Nov.s:11570  .debug_str:0000000000000fc5 .LASF163
C:\Users\stapi\AppData\Local\Temp\cca24Nov.s:11174  .debug_str:0000000000000379 .LASF164
C:\Users\stapi\AppData\Local\Temp\cca24Nov.s:11206  .debug_str:00000000000004a2 .LASF165
C:\Users\stapi\AppData\Local\Temp\cca24Nov.s:11334  .debug_str:00000000000008b1 .LASF166
C:\Users\stapi\AppData\Local\Temp\cca24Nov.s:11172  .debug_str:0000000000000370 .LASF167
C:\Users\stapi\AppData\Local\Temp\cca24Nov.s:11372  .debug_str:00000000000009c9 .LASF168
C:\Users\stapi\AppData\Local\Temp\cca24Nov.s:11072  .debug_str:0000000000000059 .LASF169
C:\Users\stapi\AppData\Local\Temp\cca24Nov.s:11062  .debug_str:0000000000000017 .LASF170
C:\Users\stapi\AppData\Local\Temp\cca24Nov.s:11514  .debug_str:0000000000000e0a .LASF171
C:\Users\stapi\AppData\Local\Temp\cca24Nov.s:11726  .debug_str:00000000000015bb .LASF172
C:\Users\stapi\AppData\Local\Temp\cca24Nov.s:11200  .debug_str:000000000000046e .LASF173
C:\Users\stapi\AppData\Local\Temp\cca24Nov.s:11576  .debug_str:0000000000000fed .LASF174
C:\Users\stapi\AppData\Local\Temp\cca24Nov.s:11494  .debug_str:0000000000000d8b .LASF175
C:\Users\stapi\AppData\Local\Temp\cca24Nov.s:11338  .debug_str:00000000000008c9 .LASF177
C:\Users\stapi\AppData\Local\Temp\cca24Nov.s:11500  .debug_str:0000000000000da5 .LASF178
C:\Users\stapi\AppData\Local\Temp\cca24Nov.s:11510  .debug_str:0000000000000ded .LASF179
C:\Users\stapi\AppData\Local\Temp\cca24Nov.s:11728  .debug_str:00000000000015ce .LASF180
C:\Users\stapi\AppData\Local\Temp\cca24Nov.s:11684  .debug_str:0000000000001352 .LASF181
C:\Users\stapi\AppData\Local\Temp\cca24Nov.s:11508  .debug_str:0000000000000ddc .LASF182
C:\Users\stapi\AppData\Local\Temp\cca24Nov.s:11156  .debug_str:0000000000000301 .LASF183
C:\Users\stapi\AppData\Local\Temp\cca24Nov.s:11636  .debug_str:00000000000011e6 .LASF184
C:\Users\stapi\AppData\Local\Temp\cca24Nov.s:11332  .debug_str:00000000000008a8 .LASF185
C:\Users\stapi\AppData\Local\Temp\cca24Nov.s:11632  .debug_str:00000000000011d1 .LASF186
C:\Users\stapi\AppData\Local\Temp\cca24Nov.s:11560  .debug_str:0000000000000f6e .LASF187
C:\Users\stapi\AppData\Local\Temp\cca24Nov.s:11192  .debug_str:0000000000000407 .LASF188
C:\Users\stapi\AppData\Local\Temp\cca24Nov.s:11322  .debug_str:0000000000000865 .LASF189
C:\Users\stapi\AppData\Local\Temp\cca24Nov.s:11652  .debug_str:000000000000126c .LASF190
C:\Users\stapi\AppData\Local\Temp\cca24Nov.s:11568  .debug_str:0000000000000fa6 .LASF191
C:\Users\stapi\AppData\Local\Temp\cca24Nov.s:11296  .debug_str:00000000000007c1 .LASF192
C:\Users\stapi\AppData\Local\Temp\cca24Nov.s:11564  .debug_str:0000000000000f8e .LASF193
C:\Users\stapi\AppData\Local\Temp\cca24Nov.s:11248  .debug_str:00000000000005bd .LASF194
C:\Users\stapi\AppData\Local\Temp\cca24Nov.s:11398  .debug_str:0000000000000a86 .LASF195
C:\Users\stapi\AppData\Local\Temp\cca24Nov.s:11532  .debug_str:0000000000000e91 .LASF196
C:\Users\stapi\AppData\Local\Temp\cca24Nov.s:11168  .debug_str:0000000000000349 .LASF197
C:\Users\stapi\AppData\Local\Temp\cca24Nov.s:11388  .debug_str:0000000000000a49 .LASF198
C:\Users\stapi\AppData\Local\Temp\cca24Nov.s:11638  .debug_str:00000000000011eb .LASF199
C:\Users\stapi\AppData\Local\Temp\cca24Nov.s:11600  .debug_str:00000000000010bc .LASF200
C:\Users\stapi\AppData\Local\Temp\cca24Nov.s:11216  .debug_str:00000000000004ec .LASF201
C:\Users\stapi\AppData\Local\Temp\cca24Nov.s:11434  .debug_str:0000000000000b82 .LASF202
C:\Users\stapi\AppData\Local\Temp\cca24Nov.s:11712  .debug_str:0000000000001459 .LASF203
C:\Users\stapi\AppData\Local\Temp\cca24Nov.s:11110  .debug_str:0000000000000159 .LASF204
C:\Users\stapi\AppData\Local\Temp\cca24Nov.s:11346  .debug_str:0000000000000914 .LASF205
C:\Users\stapi\AppData\Local\Temp\cca24Nov.s:11660  .debug_str:00000000000012a7 .LASF206
C:\Users\stapi\AppData\Local\Temp\cca24Nov.s:11342  .debug_str:00000000000008e6 .LASF207
C:\Users\stapi\AppData\Local\Temp\cca24Nov.s:11340  .debug_str:00000000000008d7 .LASF208
C:\Users\stapi\AppData\Local\Temp\cca24Nov.s:11538  .debug_str:0000000000000ec6 .LASF209
C:\Users\stapi\AppData\Local\Temp\cca24Nov.s:11298  .debug_str:00000000000007ce .LASF210
C:\Users\stapi\AppData\Local\Temp\cca24Nov.s:11092  .debug_str:00000000000000e6 .LASF211
C:\Users\stapi\AppData\Local\Temp\cca24Nov.s:11146  .debug_str:0000000000000230 .LASF212
C:\Users\stapi\AppData\Local\Temp\cca24Nov.s:11634  .debug_str:00000000000011d6 .LASF213
C:\Users\stapi\AppData\Local\Temp\cca24Nov.s:11688  .debug_str:0000000000001376 .LASF214
C:\Users\stapi\AppData\Local\Temp\cca24Nov.s:11078  .debug_str:0000000000000084 .LASF215
C:\Users\stapi\AppData\Local\Temp\cca24Nov.s:11406  .debug_str:0000000000000ace .LASF216
C:\Users\stapi\AppData\Local\Temp\cca24Nov.s:11262  .debug_str:00000000000006a1 .LASF217
C:\Users\stapi\AppData\Local\Temp\cca24Nov.s:11274  .debug_str:0000000000000701 .LASF218
C:\Users\stapi\AppData\Local\Temp\cca24Nov.s:11722  .debug_str:00000000000015a2 .LASF219
C:\Users\stapi\AppData\Local\Temp\cca24Nov.s:11204  .debug_str:0000000000000494 .LASF220
C:\Users\stapi\AppData\Local\Temp\cca24Nov.s:11582  .debug_str:0000000000001017 .LASF221
C:\Users\stapi\AppData\Local\Temp\cca24Nov.s:11376  .debug_str:00000000000009ed .LASF222
C:\Users\stapi\AppData\Local\Temp\cca24Nov.s:11492  .debug_str:0000000000000d7a .LASF223
C:\Users\stapi\AppData\Local\Temp\cca24Nov.s:11084  .debug_str:00000000000000b7 .LASF224
C:\Users\stapi\AppData\Local\Temp\cca24Nov.s:11626  .debug_str:000000000000119d .LASF225
C:\Users\stapi\AppData\Local\Temp\cca24Nov.s:11734  .debug_str:00000000000015fb .LASF226
C:\Users\stapi\AppData\Local\Temp\cca24Nov.s:11498  .debug_str:0000000000000da0 .LASF227
C:\Users\stapi\AppData\Local\Temp\cca24Nov.s:11430  .debug_str:0000000000000b64 .LASF228
C:\Users\stapi\AppData\Local\Temp\cca24Nov.s:11548  .debug_str:0000000000000f08 .LASF229
C:\Users\stapi\AppData\Local\Temp\cca24Nov.s:11698  .debug_str:00000000000013d1 .LASF230
C:\Users\stapi\AppData\Local\Temp\cca24Nov.s:11670  .debug_str:00000000000012ee .LASF231
C:\Users\stapi\AppData\Local\Temp\cca24Nov.s:11124  .debug_str:00000000000001ad .LASF232
C:\Users\stapi\AppData\Local\Temp\cca24Nov.s:11380  .debug_str:0000000000000a0b .LASF233
C:\Users\stapi\AppData\Local\Temp\cca24Nov.s:11400  .debug_str:0000000000000a9a .LASF234
C:\Users\stapi\AppData\Local\Temp\cca24Nov.s:11710  .debug_str:0000000000001440 .LASF240
C:\Users\stapi\AppData\Local\Temp\cca24Nov.s:2877   .text.tlsv1_client_get_version:0000000000000000 .LFB111
C:\Users\stapi\AppData\Local\Temp\cca24Nov.s:2944   .text.tlsv1_client_get_version:0000000000000062 .LFE111
C:\Users\stapi\AppData\Local\Temp\cca24Nov.s:11090  .debug_str:00000000000000e1 .LASF235
C:\Users\stapi\AppData\Local\Temp\cca24Nov.s:9025   .debug_loc:0000000000000000 .LLST118
C:\Users\stapi\AppData\Local\Temp\cca24Nov.s:9050   .debug_loc:000000000000003a .LLST119
C:\Users\stapi\AppData\Local\Temp\cca24Nov.s:11386  .debug_str:0000000000000a42 .LASF236
C:\Users\stapi\AppData\Local\Temp\cca24Nov.s:9076   .debug_loc:000000000000007c .LLST120
C:\Users\stapi\AppData\Local\Temp\cca24Nov.s:2910   .text.tlsv1_client_get_version:000000000000003c .LVL304
C:\Users\stapi\AppData\Local\Temp\cca24Nov.s:11316  .debug_str:0000000000000832 .LASF237
C:\Users\stapi\AppData\Local\Temp\cca24Nov.s:2837   .text.tlsv1_client_set_cb:0000000000000000 .LFB110
C:\Users\stapi\AppData\Local\Temp\cca24Nov.s:2860   .text.tlsv1_client_set_cb:000000000000001e .LFE110
C:\Users\stapi\AppData\Local\Temp\cca24Nov.s:9094   .debug_loc:00000000000000a8 .LLST117
C:\Users\stapi\AppData\Local\Temp\cca24Nov.s:11344  .debug_str:00000000000008f1 .LASF238
C:\Users\stapi\AppData\Local\Temp\cca24Nov.s:2788   .text.tlsv1_client_set_session_ticket_cb:0000000000000000 .LFB109
C:\Users\stapi\AppData\Local\Temp\cca24Nov.s:2830   .text.tlsv1_client_set_session_ticket_cb:0000000000000034 .LFE109
C:\Users\stapi\AppData\Local\Temp\cca24Nov.s:9108   .debug_loc:00000000000000c9 .LLST114
C:\Users\stapi\AppData\Local\Temp\cca24Nov.s:9119   .debug_loc:00000000000000e7 .LLST115
C:\Users\stapi\AppData\Local\Temp\cca24Nov.s:9134   .debug_loc:0000000000000110 .LLST116
C:\Users\stapi\AppData\Local\Temp\cca24Nov.s:2815   .text.tlsv1_client_set_session_ticket_cb:0000000000000024 .LVL298
C:\Users\stapi\AppData\Local\Temp\cca24Nov.s:11450  .debug_str:0000000000000c21 .LASF239
C:\Users\stapi\AppData\Local\Temp\cca24Nov.s:2752   .text.tlsv1_client_set_flags:0000000000000000 .LFB108
C:\Users\stapi\AppData\Local\Temp\cca24Nov.s:2777   .text.tlsv1_client_set_flags:0000000000000022 .LFE108
C:\Users\stapi\AppData\Local\Temp\cca24Nov.s:9145   .debug_loc:000000000000012e .LLST112
C:\Users\stapi\AppData\Local\Temp\cca24Nov.s:9156   .debug_loc:000000000000014c .LLST113
C:\Users\stapi\AppData\Local\Temp\cca24Nov.s:2768   .text.tlsv1_client_set_flags:0000000000000016 .LVL293
C:\Users\stapi\AppData\Local\Temp\cca24Nov.s:11704  .debug_str:000000000000140a .LASF241
C:\Users\stapi\AppData\Local\Temp\cca24Nov.s:2712   .text.tlsv1_client_set_cred:0000000000000000 .LFB107
C:\Users\stapi\AppData\Local\Temp\cca24Nov.s:2745   .text.tlsv1_client_set_cred:0000000000000026 .LFE107
C:\Users\stapi\AppData\Local\Temp\cca24Nov.s:9170   .debug_loc:000000000000016d .LLST110
C:\Users\stapi\AppData\Local\Temp\cca24Nov.s:9181   .debug_loc:000000000000018b .LLST111
C:\Users\stapi\AppData\Local\Temp\cca24Nov.s:2731   .text.tlsv1_client_set_cred:0000000000000018 .LVL291
C:\Users\stapi\AppData\Local\Temp\cca24Nov.s:11546  .debug_str:0000000000000eeb .LASF242
C:\Users\stapi\AppData\Local\Temp\cca24Nov.s:2636   .text.tlsv1_client_set_cipher_list:0000000000000000 .LFB106
C:\Users\stapi\AppData\Local\Temp\cca24Nov.s:2705   .text.tlsv1_client_set_cipher_list:000000000000004a .LFE106
C:\Users\stapi\AppData\Local\Temp\cca24Nov.s:9192   .debug_loc:00000000000001a9 .LLST107
C:\Users\stapi\AppData\Local\Temp\cca24Nov.s:11664  .debug_str:00000000000012cd .LASF243
C:\Users\stapi\AppData\Local\Temp\cca24Nov.s:11214  .debug_str:00000000000004e6 .LASF244
C:\Users\stapi\AppData\Local\Temp\cca24Nov.s:9206   .debug_loc:00000000000001ca .LLST108
C:\Users\stapi\AppData\Local\Temp\cca24Nov.s:11528  .debug_str:0000000000000e6f .LASF245
C:\Users\stapi\AppData\Local\Temp\cca24Nov.s:9244   .debug_loc:0000000000000226 .LLST109
C:\Users\stapi\AppData\Local\Temp\cca24Nov.s:11134  .debug_str:00000000000001e2 .LASF246
C:\Users\stapi\AppData\Local\Temp\cca24Nov.s:2598   .text.tlsv1_client_get_keyblock_size:0000000000000000 .LFB105
C:\Users\stapi\AppData\Local\Temp\cca24Nov.s:2629   .text.tlsv1_client_get_keyblock_size:0000000000000020 .LFE105
C:\Users\stapi\AppData\Local\Temp\cca24Nov.s:9253   .debug_loc:000000000000023c .LLST106
C:\Users\stapi\AppData\Local\Temp\cca24Nov.s:11196  .debug_str:0000000000000437 .LASF247
C:\Users\stapi\AppData\Local\Temp\cca24Nov.s:2529   .text.tlsv1_client_get_random:0000000000000000 .LFB104
C:\Users\stapi\AppData\Local\Temp\cca24Nov.s:2591   .text.tlsv1_client_get_random:0000000000000044 .LFE104
C:\Users\stapi\AppData\Local\Temp\cca24Nov.s:9278   .debug_loc:0000000000000276 .LLST104
C:\Users\stapi\AppData\Local\Temp\cca24Nov.s:11370  .debug_str:00000000000009c4 .LASF248
C:\Users\stapi\AppData\Local\Temp\cca24Nov.s:9302   .debug_loc:00000000000002b0 .LLST105
C:\Users\stapi\AppData\Local\Temp\cca24Nov.s:2549   .text.tlsv1_client_get_random:000000000000001a .LVL272
C:\Users\stapi\AppData\Local\Temp\cca24Nov.s:11610  .debug_str:0000000000001106 .LASF249
C:\Users\stapi\AppData\Local\Temp\cca24Nov.s:2378   .text.tlsv1_client_hello_ext:0000000000000000 .LFB103
C:\Users\stapi\AppData\Local\Temp\cca24Nov.s:2522   .text.tlsv1_client_hello_ext:00000000000000ae .LFE103
C:\Users\stapi\AppData\Local\Temp\cca24Nov.s:9313   .debug_loc:00000000000002ce .LLST95
C:\Users\stapi\AppData\Local\Temp\cca24Nov.s:11464  .debug_str:0000000000000c9c .LASF250
C:\Users\stapi\AppData\Local\Temp\cca24Nov.s:9324   .debug_loc:00000000000002ec .LLST96
C:\Users\stapi\AppData\Local\Temp\cca24Nov.s:11390  .debug_str:0000000000000a5d .LASF251
C:\Users\stapi\AppData\Local\Temp\cca24Nov.s:9335   .debug_loc:000000000000030a .LLST97
C:\Users\stapi\AppData\Local\Temp\cca24Nov.s:11516  .debug_str:0000000000000e17 .LASF252
C:\Users\stapi\AppData\Local\Temp\cca24Nov.s:9346   .debug_loc:0000000000000328 .LLST98
C:\Users\stapi\AppData\Local\Temp\cca24Nov.s:9357   .debug_loc:0000000000000346 .LLST99
C:\Users\stapi\AppData\Local\Temp\cca24Nov.s:2454   .text.tlsv1_client_hello_ext:0000000000000056 .LBB100
C:\Users\stapi\AppData\Local\Temp\cca24Nov.s:9384   .debug_loc:0000000000000389 .LLST100
C:\Users\stapi\AppData\Local\Temp\cca24Nov.s:9391   .debug_loc:000000000000039c .LLST101
C:\Users\stapi\AppData\Local\Temp\cca24Nov.s:2464   .text.tlsv1_client_hello_ext:0000000000000060 .LBB103
C:\Users\stapi\AppData\Local\Temp\cca24Nov.s:9398   .debug_loc:00000000000003af .LLST102
C:\Users\stapi\AppData\Local\Temp\cca24Nov.s:9405   .debug_loc:00000000000003c2 .LLST103
C:\Users\stapi\AppData\Local\Temp\cca24Nov.s:2408   .text.tlsv1_client_hello_ext:0000000000000026 .LVL259
C:\Users\stapi\AppData\Local\Temp\cca24Nov.s:2441   .text.tlsv1_client_hello_ext:000000000000004c .LVL260
C:\Users\stapi\AppData\Local\Temp\cca24Nov.s:2498   .text.tlsv1_client_hello_ext:0000000000000082 .LVL267
C:\Users\stapi\AppData\Local\Temp\cca24Nov.s:2519   .text.tlsv1_client_hello_ext:00000000000000ac .LVL268
C:\Users\stapi\AppData\Local\Temp\cca24Nov.s:11068  .debug_str:000000000000003b .LASF253
C:\Users\stapi\AppData\Local\Temp\cca24Nov.s:2355   .text.tlsv1_client_resumed:0000000000000000 .LFB102
C:\Users\stapi\AppData\Local\Temp\cca24Nov.s:2367   .text.tlsv1_client_resumed:000000000000000a .LFE102
C:\Users\stapi\AppData\Local\Temp\cca24Nov.s:9414   .debug_loc:00000000000003d7 .LLST94
C:\Users\stapi\AppData\Local\Temp\cca24Nov.s:11438  .debug_str:0000000000000b97 .LASF254
C:\Users\stapi\AppData\Local\Temp\cca24Nov.s:2267   .text.tlsv1_client_shutdown:0000000000000000 .LFB101
C:\Users\stapi\AppData\Local\Temp\cca24Nov.s:2348   .text.tlsv1_client_shutdown:0000000000000086 .LFE101
C:\Users\stapi\AppData\Local\Temp\cca24Nov.s:9428   .debug_loc:00000000000003f8 .LLST93
C:\Users\stapi\AppData\Local\Temp\cca24Nov.s:2286   .text.tlsv1_client_shutdown:000000000000001a .LVL249
C:\Users\stapi\AppData\Local\Temp\cca24Nov.s:2294   .text.tlsv1_client_shutdown:0000000000000030 .LVL250
C:\Users\stapi\AppData\Local\Temp\cca24Nov.s:2313   .text.tlsv1_client_shutdown:000000000000004a .LVL251
C:\Users\stapi\AppData\Local\Temp\cca24Nov.s:2317   .text.tlsv1_client_shutdown:0000000000000054 .LVL252
C:\Users\stapi\AppData\Local\Temp\cca24Nov.s:2321   .text.tlsv1_client_shutdown:000000000000005e .LVL253
C:\Users\stapi\AppData\Local\Temp\cca24Nov.s:2332   .text.tlsv1_client_shutdown:0000000000000074 .LVL254
C:\Users\stapi\AppData\Local\Temp\cca24Nov.s:11302  .debug_str:00000000000007e1 .LASF255
C:\Users\stapi\AppData\Local\Temp\cca24Nov.s:1969   .text.tlsv1_client_get_cipher:0000000000000000 .LFB100
C:\Users\stapi\AppData\Local\Temp\cca24Nov.s:2256   .text.tlsv1_client_get_cipher:000000000000016e .LFE100
C:\Users\stapi\AppData\Local\Temp\cca24Nov.s:9439   .debug_loc:0000000000000416 .LLST89
C:\Users\stapi\AppData\Local\Temp\cca24Nov.s:9468   .debug_loc:000000000000045b .LLST90
C:\Users\stapi\AppData\Local\Temp\cca24Nov.s:9490   .debug_loc:0000000000000492 .LLST91
C:\Users\stapi\AppData\Local\Temp\cca24Nov.s:11690  .debug_str:000000000000138e .LASF256
C:\Users\stapi\AppData\Local\Temp\cca24Nov.s:9501   .debug_loc:00000000000004b0 .LLST92
C:\Users\stapi\AppData\Local\Temp\cca24Nov.s:2044   .text.tlsv1_client_get_cipher:0000000000000064 .LVL231
C:\Users\stapi\AppData\Local\Temp\cca24Nov.s:11584  .debug_str:0000000000001029 .LASF257
C:\Users\stapi\AppData\Local\Temp\cca24Nov.s:1723   .text.tlsv1_client_prf:0000000000000000 .LFB99
C:\Users\stapi\AppData\Local\Temp\cca24Nov.s:1898   .text.tlsv1_client_prf:00000000000000d6 .LFE99
C:\Users\stapi\AppData\Local\Temp\cca24Nov.s:9586   .debug_loc:0000000000000593 .LLST77
C:\Users\stapi\AppData\Local\Temp\cca24Nov.s:11106  .debug_str:0000000000000145 .LASF258
C:\Users\stapi\AppData\Local\Temp\cca24Nov.s:9618   .debug_loc:00000000000005e3 .LLST78
C:\Users\stapi\AppData\Local\Temp\cca24Nov.s:11436  .debug_str:0000000000000b8f .LASF259
C:\Users\stapi\AppData\Local\Temp\cca24Nov.s:9640   .debug_loc:000000000000061a .LLST79
C:\Users\stapi\AppData\Local\Temp\cca24Nov.s:11478  .debug_str:0000000000000cf7 .LASF260
C:\Users\stapi\AppData\Local\Temp\cca24Nov.s:9662   .debug_loc:0000000000000651 .LLST80
C:\Users\stapi\AppData\Local\Temp\cca24Nov.s:11666  .debug_str:00000000000012d5 .LASF261
C:\Users\stapi\AppData\Local\Temp\cca24Nov.s:9684   .debug_loc:0000000000000688 .LLST81
C:\Users\stapi\AppData\Local\Temp\cca24Nov.s:9695   .debug_loc:00000000000006a6 .LLST82
C:\Users\stapi\AppData\Local\Temp\cca24Nov.s:11142  .debug_str:0000000000000222 .LASF262
C:\Users\stapi\AppData\Local\Temp\cca24Nov.s:9706   .debug_loc:00000000000006c4 .LLST83
C:\Users\stapi\AppData\Local\Temp\cca24Nov.s:11476  .debug_str:0000000000000cf2 .LASF263
C:\Users\stapi\AppData\Local\Temp\cca24Nov.s:9728   .debug_loc:00000000000006fb .LLST84
C:\Users\stapi\AppData\Local\Temp\cca24Nov.s:11210  .debug_str:00000000000004d4 .LASF264
C:\Users\stapi\AppData\Local\Temp\cca24Nov.s:9753   .debug_loc:0000000000000738 .LLST85
C:\Users\stapi\AppData\Local\Temp\cca24Nov.s:9772   .debug_loc:0000000000000765 .LLST86
C:\Users\stapi\AppData\Local\Temp\cca24Nov.s:1844   .text.tlsv1_client_prf:000000000000007a .LBB98
C:\Users\stapi\AppData\Local\Temp\cca24Nov.s:1856   .text.tlsv1_client_prf:0000000000000088 .LBE98
C:\Users\stapi\AppData\Local\Temp\cca24Nov.s:9779   .debug_loc:0000000000000778 .LLST87
C:\Users\stapi\AppData\Local\Temp\cca24Nov.s:9786   .debug_loc:000000000000078b .LLST88
C:\Users\stapi\AppData\Local\Temp\cca24Nov.s:1809   .text.tlsv1_client_prf:0000000000000044 .LVL211
C:\Users\stapi\AppData\Local\Temp\cca24Nov.s:1829   .text.tlsv1_client_prf:0000000000000066 .LVL213
C:\Users\stapi\AppData\Local\Temp\cca24Nov.s:1837   .text.tlsv1_client_prf:0000000000000076 .LVL214
C:\Users\stapi\AppData\Local\Temp\cca24Nov.s:1864   .text.tlsv1_client_prf:0000000000000098 .LVL218
C:\Users\stapi\AppData\Local\Temp\cca24Nov.s:1877   .text.tlsv1_client_prf:00000000000000b6 .LVL219
C:\Users\stapi\AppData\Local\Temp\cca24Nov.s:1883   .text.tlsv1_client_prf:00000000000000c2 .LVL221
C:\Users\stapi\AppData\Local\Temp\cca24Nov.s:1892   .text.tlsv1_client_prf:00000000000000ce .LVL223
C:\Users\stapi\AppData\Local\Temp\cca24Nov.s:11374  .debug_str:00000000000009d4 .LASF265
C:\Users\stapi\AppData\Local\Temp\cca24Nov.s:1703   .text.tlsv1_client_established:0000000000000000 .LFB98
C:\Users\stapi\AppData\Local\Temp\cca24Nov.s:1716   .text.tlsv1_client_established:000000000000000a .LFE98
C:\Users\stapi\AppData\Local\Temp\cca24Nov.s:9795   .debug_loc:00000000000007a1 .LLST76
C:\Users\stapi\AppData\Local\Temp\cca24Nov.s:11292  .debug_str:000000000000079b .LASF266
C:\Users\stapi\AppData\Local\Temp\cca24Nov.s:1624   .text.tlsv1_client_deinit:0000000000000000 .LFB97
C:\Users\stapi\AppData\Local\Temp\cca24Nov.s:1696   .text.tlsv1_client_deinit:0000000000000090 .LFE97
C:\Users\stapi\AppData\Local\Temp\cca24Nov.s:9809   .debug_loc:00000000000007c2 .LLST75
C:\Users\stapi\AppData\Local\Temp\cca24Nov.s:1643   .text.tlsv1_client_deinit:000000000000001a .LVL190
C:\Users\stapi\AppData\Local\Temp\cca24Nov.s:1648   .text.tlsv1_client_deinit:0000000000000026 .LVL191
C:\Users\stapi\AppData\Local\Temp\cca24Nov.s:1652   .text.tlsv1_client_deinit:0000000000000030 .LVL192
C:\Users\stapi\AppData\Local\Temp\cca24Nov.s:1656   .text.tlsv1_client_deinit:000000000000003a .LVL193
C:\Users\stapi\AppData\Local\Temp\cca24Nov.s:1661   .text.tlsv1_client_deinit:0000000000000048 .LVL194
C:\Users\stapi\AppData\Local\Temp\cca24Nov.s:1668   .text.tlsv1_client_deinit:0000000000000056 .LVL195
C:\Users\stapi\AppData\Local\Temp\cca24Nov.s:1672   .text.tlsv1_client_deinit:0000000000000060 .LVL196
C:\Users\stapi\AppData\Local\Temp\cca24Nov.s:1676   .text.tlsv1_client_deinit:000000000000006a .LVL197
C:\Users\stapi\AppData\Local\Temp\cca24Nov.s:1680   .text.tlsv1_client_deinit:0000000000000074 .LVL198
C:\Users\stapi\AppData\Local\Temp\cca24Nov.s:1684   .text.tlsv1_client_deinit:000000000000007e .LVL199
C:\Users\stapi\AppData\Local\Temp\cca24Nov.s:1688   .text.tlsv1_client_deinit:0000000000000088 .LVL200
C:\Users\stapi\AppData\Local\Temp\cca24Nov.s:11282  .debug_str:000000000000073d .LASF267
C:\Users\stapi\AppData\Local\Temp\cca24Nov.s:1489   .text.tlsv1_client_init:0000000000000000 .LFB96
C:\Users\stapi\AppData\Local\Temp\cca24Nov.s:1617   .text.tlsv1_client_init:00000000000000bc .LFE96
C:\Users\stapi\AppData\Local\Temp\cca24Nov.s:9820   .debug_loc:00000000000007e0 .LLST73
C:\Users\stapi\AppData\Local\Temp\cca24Nov.s:9831   .debug_loc:00000000000007fe .LLST74
C:\Users\stapi\AppData\Local\Temp\cca24Nov.s:1503   .text.tlsv1_client_init:0000000000000014 .LVL170
C:\Users\stapi\AppData\Local\Temp\cca24Nov.s:1516   .text.tlsv1_client_init:0000000000000028 .LVL172
C:\Users\stapi\AppData\Local\Temp\cca24Nov.s:1524   .text.tlsv1_client_init:000000000000003e .LVL173
C:\Users\stapi\AppData\Local\Temp\cca24Nov.s:1528   .text.tlsv1_client_init:0000000000000048 .LVL174
C:\Users\stapi\AppData\Local\Temp\cca24Nov.s:11530  .debug_str:0000000000000e76 .LASF268
C:\Users\stapi\AppData\Local\Temp\cca24Nov.s:1471   .text.tlsv1_client_global_deinit:0000000000000000 .LFB95
C:\Users\stapi\AppData\Local\Temp\cca24Nov.s:1478   .text.tlsv1_client_global_deinit:0000000000000008 .LFE95
C:\Users\stapi\AppData\Local\Temp\cca24Nov.s:1476   .text.tlsv1_client_global_deinit:0000000000000008 .LVL169
C:\Users\stapi\AppData\Local\Temp\cca24Nov.s:11186  .debug_str:00000000000003c2 .LASF269
C:\Users\stapi\AppData\Local\Temp\cca24Nov.s:1456   .text.tlsv1_client_global_init:0000000000000000 .LFB94
C:\Users\stapi\AppData\Local\Temp\cca24Nov.s:1464   .text.tlsv1_client_global_init:0000000000000008 .LFE94
C:\Users\stapi\AppData\Local\Temp\cca24Nov.s:1462   .text.tlsv1_client_global_init:0000000000000008 .LVL168
C:\Users\stapi\AppData\Local\Temp\cca24Nov.s:11686  .debug_str:0000000000001361 .LASF270
C:\Users\stapi\AppData\Local\Temp\cca24Nov.s:1052   .text.tlsv1_client_decrypt:0000000000000000 .LFB93
C:\Users\stapi\AppData\Local\Temp\cca24Nov.s:1449   .text.tlsv1_client_decrypt:00000000000001e8 .LFE93
C:\Users\stapi\AppData\Local\Temp\cca24Nov.s:9894   .debug_loc:0000000000000896 .LLST52
C:\Users\stapi\AppData\Local\Temp\cca24Nov.s:11348  .debug_str:0000000000000921 .LASF271
C:\Users\stapi\AppData\Local\Temp\cca24Nov.s:9905   .debug_loc:00000000000008b4 .LLST53
C:\Users\stapi\AppData\Local\Temp\cca24Nov.s:11130  .debug_str:00000000000001d1 .LASF272
C:\Users\stapi\AppData\Local\Temp\cca24Nov.s:9920   .debug_loc:00000000000008dd .LLST54
C:\Users\stapi\AppData\Local\Temp\cca24Nov.s:11066  .debug_str:000000000000002c .LASF273
C:\Users\stapi\AppData\Local\Temp\cca24Nov.s:9935   .debug_loc:0000000000000906 .LLST55
C:\Users\stapi\AppData\Local\Temp\cca24Nov.s:11682  .debug_str:000000000000134b .LASF274
C:\Users\stapi\AppData\Local\Temp\cca24Nov.s:9946   .debug_loc:0000000000000924 .LLST56
C:\Users\stapi\AppData\Local\Temp\cca24Nov.s:9961   .debug_loc:000000000000094d .LLST57
C:\Users\stapi\AppData\Local\Temp\cca24Nov.s:9976   .debug_loc:0000000000000976 .LLST58
C:\Users\stapi\AppData\Local\Temp\cca24Nov.s:11330  .debug_str:00000000000008a0 .LASF275
C:\Users\stapi\AppData\Local\Temp\cca24Nov.s:10027  .debug_loc:0000000000000a02 .LLST59
C:\Users\stapi\AppData\Local\Temp\cca24Nov.s:10050  .debug_loc:0000000000000a41 .LLST60
C:\Users\stapi\AppData\Local\Temp\cca24Nov.s:11184  .debug_str:00000000000003bd .LASF276
C:\Users\stapi\AppData\Local\Temp\cca24Nov.s:11668  .debug_str:00000000000012e9 .LASF288
C:\Users\stapi\AppData\Local\Temp\cca24Nov.s:1314   .text.tlsv1_client_decrypt:0000000000000128 .LBB97
C:\Users\stapi\AppData\Local\Temp\cca24Nov.s:1351   .text.tlsv1_client_decrypt:0000000000000166 .LBE97
C:\Users\stapi\AppData\Local\Temp\cca24Nov.s:11064  .debug_str:0000000000000024 .LASF277
C:\Users\stapi\AppData\Local\Temp\cca24Nov.s:10065  .debug_loc:0000000000000a6a .LLST72
C:\Users\stapi\AppData\Local\Temp\cca24Nov.s:1322   .text.tlsv1_client_decrypt:000000000000013a .LVL149
C:\Users\stapi\AppData\Local\Temp\cca24Nov.s:1328   .text.tlsv1_client_decrypt:0000000000000146 .LVL150
C:\Users\stapi\AppData\Local\Temp\cca24Nov.s:1334   .text.tlsv1_client_decrypt:0000000000000154 .LVL152
C:\Users\stapi\AppData\Local\Temp\cca24Nov.s:1128   .text.tlsv1_client_decrypt:000000000000004e .LBB81
C:\Users\stapi\AppData\Local\Temp\cca24Nov.s:1149   .text.tlsv1_client_decrypt:000000000000006a .LBE81
C:\Users\stapi\AppData\Local\Temp\cca24Nov.s:10072  .debug_loc:0000000000000a7d .LLST61
C:\Users\stapi\AppData\Local\Temp\cca24Nov.s:10079  .debug_loc:0000000000000a90 .LLST62
C:\Users\stapi\AppData\Local\Temp\cca24Nov.s:10086  .debug_loc:0000000000000aa3 .LLST63
C:\Users\stapi\AppData\Local\Temp\cca24Nov.s:1134   .text.tlsv1_client_decrypt:0000000000000050 .LBB83
C:\Users\stapi\AppData\Local\Temp\cca24Nov.s:1147   .text.tlsv1_client_decrypt:000000000000006a .LBE83
C:\Users\stapi\AppData\Local\Temp\cca24Nov.s:10094  .debug_loc:0000000000000ab8 .LLST64
C:\Users\stapi\AppData\Local\Temp\cca24Nov.s:10101  .debug_loc:0000000000000acb .LLST65
C:\Users\stapi\AppData\Local\Temp\cca24Nov.s:10108  .debug_loc:0000000000000ade .LLST66
C:\Users\stapi\AppData\Local\Temp\cca24Nov.s:1140   .text.tlsv1_client_decrypt:000000000000005e .LVL126
C:\Users\stapi\AppData\Local\Temp\cca24Nov.s:1144   .text.tlsv1_client_decrypt:000000000000006a .LVL127
C:\Users\stapi\AppData\Local\Temp\cca24Nov.s:1154   .text.tlsv1_client_decrypt:000000000000006e .LBB85
C:\Users\stapi\AppData\Local\Temp\cca24Nov.s:1161   .text.tlsv1_client_decrypt:0000000000000070 .LBE85
C:\Users\stapi\AppData\Local\Temp\cca24Nov.s:10116  .debug_loc:0000000000000af3 .LLST67
C:\Users\stapi\AppData\Local\Temp\cca24Nov.s:1163   .text.tlsv1_client_decrypt:0000000000000070 .LBB87
C:\Users\stapi\AppData\Local\Temp\cca24Nov.s:1171   .text.tlsv1_client_decrypt:0000000000000074 .LBE87
C:\Users\stapi\AppData\Local\Temp\cca24Nov.s:10123  .debug_loc:0000000000000b06 .LLST68
C:\Users\stapi\AppData\Local\Temp\cca24Nov.s:1232   .text.tlsv1_client_decrypt:00000000000000c6 .LBB89
C:\Users\stapi\AppData\Local\Temp\cca24Nov.s:1284   .text.tlsv1_client_decrypt:0000000000000114 .LBB93
C:\Users\stapi\AppData\Local\Temp\cca24Nov.s:10130  .debug_loc:0000000000000b19 .LLST69
C:\Users\stapi\AppData\Local\Temp\cca24Nov.s:10137  .debug_loc:0000000000000b2c .LLST70
C:\Users\stapi\AppData\Local\Temp\cca24Nov.s:10145  .debug_loc:0000000000000b40 .LLST71
C:\Users\stapi\AppData\Local\Temp\cca24Nov.s:1104   .text.tlsv1_client_decrypt:000000000000002e .LVL121
C:\Users\stapi\AppData\Local\Temp\cca24Nov.s:1114   .text.tlsv1_client_decrypt:0000000000000044 .LVL123
C:\Users\stapi\AppData\Local\Temp\cca24Nov.s:1197   .text.tlsv1_client_decrypt:0000000000000096 .LVL133
C:\Users\stapi\AppData\Local\Temp\cca24Nov.s:1215   .text.tlsv1_client_decrypt:00000000000000b0 .LVL135
C:\Users\stapi\AppData\Local\Temp\cca24Nov.s:1223   .text.tlsv1_client_decrypt:00000000000000c0 .LVL136
C:\Users\stapi\AppData\Local\Temp\cca24Nov.s:1258   .text.tlsv1_client_decrypt:00000000000000e2 .LVL139
C:\Users\stapi\AppData\Local\Temp\cca24Nov.s:1270   .text.tlsv1_client_decrypt:00000000000000fa .LVL142
C:\Users\stapi\AppData\Local\Temp\cca24Nov.s:1276   .text.tlsv1_client_decrypt:0000000000000104 .LVL143
C:\Users\stapi\AppData\Local\Temp\cca24Nov.s:1280   .text.tlsv1_client_decrypt:0000000000000110 .LVL144
C:\Users\stapi\AppData\Local\Temp\cca24Nov.s:1392   .text.tlsv1_client_decrypt:000000000000018e .LVL157
C:\Users\stapi\AppData\Local\Temp\cca24Nov.s:1406   .text.tlsv1_client_decrypt:00000000000001aa .LVL160
C:\Users\stapi\AppData\Local\Temp\cca24Nov.s:1434   .text.tlsv1_client_decrypt:00000000000001d6 .LVL164
C:\Users\stapi\AppData\Local\Temp\cca24Nov.s:1446   .text.tlsv1_client_decrypt:00000000000001e6 .LVL167
C:\Users\stapi\AppData\Local\Temp\cca24Nov.s:11680  .debug_str:0000000000001336 .LASF278
C:\Users\stapi\AppData\Local\Temp\cca24Nov.s:939    .text.tlsv1_client_encrypt:0000000000000000 .LFB92
C:\Users\stapi\AppData\Local\Temp\cca24Nov.s:1032   .text.tlsv1_client_encrypt:0000000000000072 .LFE92
C:\Users\stapi\AppData\Local\Temp\cca24Nov.s:10152  .debug_loc:0000000000000b53 .LLST44
C:\Users\stapi\AppData\Local\Temp\cca24Nov.s:10163  .debug_loc:0000000000000b71 .LLST45
C:\Users\stapi\AppData\Local\Temp\cca24Nov.s:10174  .debug_loc:0000000000000b8f .LLST46
C:\Users\stapi\AppData\Local\Temp\cca24Nov.s:11088  .debug_str:00000000000000d8 .LASF279
C:\Users\stapi\AppData\Local\Temp\cca24Nov.s:10200  .debug_loc:0000000000000bd1 .LLST47
C:\Users\stapi\AppData\Local\Temp\cca24Nov.s:10211  .debug_loc:0000000000000bef .LLST48
C:\Users\stapi\AppData\Local\Temp\cca24Nov.s:11602  .debug_str:00000000000010d6 .LASF280
C:\Users\stapi\AppData\Local\Temp\cca24Nov.s:997    .text.tlsv1_client_encrypt:000000000000005a .LBB66
C:\Users\stapi\AppData\Local\Temp\cca24Nov.s:1007   .text.tlsv1_client_encrypt:0000000000000062 .LBE66
C:\Users\stapi\AppData\Local\Temp\cca24Nov.s:10222  .debug_loc:0000000000000c0d .LLST49
C:\Users\stapi\AppData\Local\Temp\cca24Nov.s:10231  .debug_loc:0000000000000c22 .LLST50
C:\Users\stapi\AppData\Local\Temp\cca24Nov.s:10239  .debug_loc:0000000000000c36 .LLST51
C:\Users\stapi\AppData\Local\Temp\cca24Nov.s:976    .text.tlsv1_client_encrypt:000000000000002a .LVL112
C:\Users\stapi\AppData\Local\Temp\cca24Nov.s:987    .text.tlsv1_client_encrypt:0000000000000044 .LVL113
C:\Users\stapi\AppData\Local\Temp\cca24Nov.s:995    .text.tlsv1_client_encrypt:000000000000005a .LVL114
C:\Users\stapi\AppData\Local\Temp\cca24Nov.s:11732  .debug_str:00000000000015e4 .LASF281
C:\Users\stapi\AppData\Local\Temp\cca24Nov.s:457    .text.tlsv1_client_handshake:0000000000000000 .LFB91
C:\Users\stapi\AppData\Local\Temp\cca24Nov.s:925    .text.tlsv1_client_handshake:0000000000000248 .LFE91
C:\Users\stapi\AppData\Local\Temp\cca24Nov.s:10246  .debug_loc:0000000000000c49 .LLST11
C:\Users\stapi\AppData\Local\Temp\cca24Nov.s:10257  .debug_loc:0000000000000c67 .LLST12
C:\Users\stapi\AppData\Local\Temp\cca24Nov.s:10276  .debug_loc:0000000000000c9b .LLST13
C:\Users\stapi\AppData\Local\Temp\cca24Nov.s:10303  .debug_loc:0000000000000ce5 .LLST14
C:\Users\stapi\AppData\Local\Temp\cca24Nov.s:11132  .debug_str:00000000000001d8 .LASF282
C:\Users\stapi\AppData\Local\Temp\cca24Nov.s:10330  .debug_loc:0000000000000d2f .LLST15
C:\Users\stapi\AppData\Local\Temp\cca24Nov.s:11290  .debug_str:000000000000078d .LASF283
C:\Users\stapi\AppData\Local\Temp\cca24Nov.s:10357  .debug_loc:0000000000000d79 .LLST16
C:\Users\stapi\AppData\Local\Temp\cca24Nov.s:10368  .debug_loc:0000000000000d97 .LLST17
C:\Users\stapi\AppData\Local\Temp\cca24Nov.s:10395  .debug_loc:0000000000000de1 .LLST18
C:\Users\stapi\AppData\Local\Temp\cca24Nov.s:10410  .debug_loc:0000000000000e0a .LLST19
C:\Users\stapi\AppData\Local\Temp\cca24Nov.s:10421  .debug_loc:0000000000000e28 .LLST20
C:\Users\stapi\AppData\Local\Temp\cca24Nov.s:11364  .debug_str:00000000000009a8 .LASF284
C:\Users\stapi\AppData\Local\Temp\cca24Nov.s:10456  .debug_loc:0000000000000e81 .LLST21
C:\Users\stapi\AppData\Local\Temp\cca24Nov.s:11312  .debug_str:000000000000081b .LASF285
C:\Users\stapi\AppData\Local\Temp\cca24Nov.s:10496  .debug_loc:0000000000000ee6 .LLST22
C:\Users\stapi\AppData\Local\Temp\cca24Nov.s:10507  .debug_loc:0000000000000f04 .LLST23
C:\Users\stapi\AppData\Local\Temp\cca24Nov.s:11154  .debug_str:00000000000002f6 .LASF286
C:\Users\stapi\AppData\Local\Temp\cca24Nov.s:11182  .debug_str:00000000000003b0 .LASF287
C:\Users\stapi\AppData\Local\Temp\cca24Nov.s:10514  .debug_loc:0000000000000f17 .LLST24
C:\Users\stapi\AppData\Local\Temp\cca24Nov.s:10521  .debug_loc:0000000000000f2a .LLST25
C:\Users\stapi\AppData\Local\Temp\cca24Nov.s:11468  .debug_str:0000000000000cba .LASF289
C:\Users\stapi\AppData\Local\Temp\cca24Nov.s:10552  .debug_loc:0000000000000f7f .LLST26
C:\Users\stapi\AppData\Local\Temp\cca24Nov.s:774    .text.tlsv1_client_handshake:0000000000000178 .LBB50
C:\Users\stapi\AppData\Local\Temp\cca24Nov.s:784    .text.tlsv1_client_handshake:0000000000000180 .LBE50
C:\Users\stapi\AppData\Local\Temp\cca24Nov.s:10563  .debug_loc:0000000000000f9d .LLST27
C:\Users\stapi\AppData\Local\Temp\cca24Nov.s:10572  .debug_loc:0000000000000fb2 .LLST28
C:\Users\stapi\AppData\Local\Temp\cca24Nov.s:10580  .debug_loc:0000000000000fc6 .LLST29
C:\Users\stapi\AppData\Local\Temp\cca24Nov.s:748    .text.tlsv1_client_handshake:0000000000000146 .LVL84
C:\Users\stapi\AppData\Local\Temp\cca24Nov.s:754    .text.tlsv1_client_handshake:0000000000000152 .LVL85
C:\Users\stapi\AppData\Local\Temp\cca24Nov.s:760    .text.tlsv1_client_handshake:0000000000000160 .LVL87
C:\Users\stapi\AppData\Local\Temp\cca24Nov.s:772    .text.tlsv1_client_handshake:0000000000000178 .LVL88
C:\Users\stapi\AppData\Local\Temp\cca24Nov.s:845    .text.tlsv1_client_handshake:00000000000001ec .LVL97
C:\Users\stapi\AppData\Local\Temp\cca24Nov.s:568    .text.tlsv1_client_handshake:0000000000000070 .LBB52
C:\Users\stapi\AppData\Local\Temp\cca24Nov.s:578    .text.tlsv1_client_handshake:0000000000000078 .LBE52
C:\Users\stapi\AppData\Local\Temp\cca24Nov.s:10587  .debug_loc:0000000000000fd9 .LLST30
C:\Users\stapi\AppData\Local\Temp\cca24Nov.s:10596  .debug_loc:0000000000000fee .LLST31
C:\Users\stapi\AppData\Local\Temp\cca24Nov.s:10604  .debug_loc:0000000000001002 .LLST32
C:\Users\stapi\AppData\Local\Temp\cca24Nov.s:590    .text.tlsv1_client_handshake:000000000000007e .LBB54
C:\Users\stapi\AppData\Local\Temp\cca24Nov.s:612    .text.tlsv1_client_handshake:000000000000009a .LBE54
C:\Users\stapi\AppData\Local\Temp\cca24Nov.s:10611  .debug_loc:0000000000001015 .LLST33
C:\Users\stapi\AppData\Local\Temp\cca24Nov.s:10618  .debug_loc:0000000000001028 .LLST34
C:\Users\stapi\AppData\Local\Temp\cca24Nov.s:10625  .debug_loc:000000000000103b .LLST35
C:\Users\stapi\AppData\Local\Temp\cca24Nov.s:597    .text.tlsv1_client_handshake:0000000000000080 .LBB56
C:\Users\stapi\AppData\Local\Temp\cca24Nov.s:610    .text.tlsv1_client_handshake:000000000000009a .LBE56
C:\Users\stapi\AppData\Local\Temp\cca24Nov.s:10633  .debug_loc:0000000000001050 .LLST36
C:\Users\stapi\AppData\Local\Temp\cca24Nov.s:10640  .debug_loc:0000000000001063 .LLST37
C:\Users\stapi\AppData\Local\Temp\cca24Nov.s:10647  .debug_loc:0000000000001076 .LLST38
C:\Users\stapi\AppData\Local\Temp\cca24Nov.s:603    .text.tlsv1_client_handshake:000000000000008e .LVL61
C:\Users\stapi\AppData\Local\Temp\cca24Nov.s:607    .text.tlsv1_client_handshake:000000000000009a .LVL62
C:\Users\stapi\AppData\Local\Temp\cca24Nov.s:617    .text.tlsv1_client_handshake:000000000000009e .LBB58
C:\Users\stapi\AppData\Local\Temp\cca24Nov.s:624    .text.tlsv1_client_handshake:00000000000000a0 .LBE58
C:\Users\stapi\AppData\Local\Temp\cca24Nov.s:10655  .debug_loc:000000000000108b .LLST39
C:\Users\stapi\AppData\Local\Temp\cca24Nov.s:626    .text.tlsv1_client_handshake:00000000000000a0 .LBB60
C:\Users\stapi\AppData\Local\Temp\cca24Nov.s:634    .text.tlsv1_client_handshake:00000000000000a4 .LBE60
C:\Users\stapi\AppData\Local\Temp\cca24Nov.s:10662  .debug_loc:000000000000109e .LLST40
C:\Users\stapi\AppData\Local\Temp\cca24Nov.s:721    .text.tlsv1_client_handshake:0000000000000126 .LBB62
C:\Users\stapi\AppData\Local\Temp\cca24Nov.s:732    .text.tlsv1_client_handshake:0000000000000130 .LBE62
C:\Users\stapi\AppData\Local\Temp\cca24Nov.s:10669  .debug_loc:00000000000010b1 .LLST41
C:\Users\stapi\AppData\Local\Temp\cca24Nov.s:10676  .debug_loc:00000000000010c4 .LLST42
C:\Users\stapi\AppData\Local\Temp\cca24Nov.s:10684  .debug_loc:00000000000010d8 .LLST43
C:\Users\stapi\AppData\Local\Temp\cca24Nov.s:522    .text.tlsv1_client_handshake:0000000000000038 .LVL52
C:\Users\stapi\AppData\Local\Temp\cca24Nov.s:558    .text.tlsv1_client_handshake:000000000000005a .LVL55
C:\Users\stapi\AppData\Local\Temp\cca24Nov.s:566    .text.tlsv1_client_handshake:0000000000000070 .LVL56
C:\Users\stapi\AppData\Local\Temp\cca24Nov.s:646    .text.tlsv1_client_handshake:00000000000000b4 .LVL67
C:\Users\stapi\AppData\Local\Temp\cca24Nov.s:666    .text.tlsv1_client_handshake:00000000000000ce .LVL71
C:\Users\stapi\AppData\Local\Temp\cca24Nov.s:682    .text.tlsv1_client_handshake:00000000000000e8 .LVL73
C:\Users\stapi\AppData\Local\Temp\cca24Nov.s:705    .text.tlsv1_client_handshake:000000000000010a .LVL76
C:\Users\stapi\AppData\Local\Temp\cca24Nov.s:717    .text.tlsv1_client_handshake:0000000000000122 .LVL79
C:\Users\stapi\AppData\Local\Temp\cca24Nov.s:791    .text.tlsv1_client_handshake:000000000000018a .LVL90
C:\Users\stapi\AppData\Local\Temp\cca24Nov.s:799    .text.tlsv1_client_handshake:000000000000019c .LVL91
C:\Users\stapi\AppData\Local\Temp\cca24Nov.s:812    .text.tlsv1_client_handshake:00000000000001ae .LVL92
C:\Users\stapi\AppData\Local\Temp\cca24Nov.s:820    .text.tlsv1_client_handshake:00000000000001c2 .LVL93
C:\Users\stapi\AppData\Local\Temp\cca24Nov.s:834    .text.tlsv1_client_handshake:00000000000001dc .LVL95
C:\Users\stapi\AppData\Local\Temp\cca24Nov.s:897    .text.tlsv1_client_handshake:0000000000000226 .LVL102
C:\Users\stapi\AppData\Local\Temp\cca24Nov.s:917    .text.tlsv1_client_handshake:0000000000000240 .LVL105
C:\Users\stapi\AppData\Local\Temp\cca24Nov.s:11440  .debug_str:0000000000000bad .LASF290
C:\Users\stapi\AppData\Local\Temp\cca24Nov.s:181    .text.tls_derive_keys:0000000000000000 .LFB90
C:\Users\stapi\AppData\Local\Temp\cca24Nov.s:440    .text.tls_derive_keys:00000000000001d8 .LFE90
C:\Users\stapi\AppData\Local\Temp\cca24Nov.s:10691  .debug_loc:00000000000010eb .LLST6
C:\Users\stapi\AppData\Local\Temp\cca24Nov.s:11472  .debug_str:0000000000000cca .LASF291
C:\Users\stapi\AppData\Local\Temp\cca24Nov.s:10702  .debug_loc:0000000000001109 .LLST7
C:\Users\stapi\AppData\Local\Temp\cca24Nov.s:11474  .debug_str:0000000000000cdc .LASF292
C:\Users\stapi\AppData\Local\Temp\cca24Nov.s:10731  .debug_loc:000000000000114e .LLST8
C:\Users\stapi\AppData\Local\Temp\cca24Nov.s:11178  .debug_str:0000000000000396 .LASF293
C:\Users\stapi\AppData\Local\Temp\cca24Nov.s:10764  .debug_loc:000000000000119e .LLST9
C:\Users\stapi\AppData\Local\Temp\cca24Nov.s:11392  .debug_str:0000000000000a62 .LASF294
C:\Users\stapi\AppData\Local\Temp\cca24Nov.s:10825  .debug_loc:0000000000001224 .LLST10
C:\Users\stapi\AppData\Local\Temp\cca24Nov.s:225    .text.tls_derive_keys:0000000000000034 .LVL18
C:\Users\stapi\AppData\Local\Temp\cca24Nov.s:231    .text.tls_derive_keys:0000000000000044 .LVL19
C:\Users\stapi\AppData\Local\Temp\cca24Nov.s:237    .text.tls_derive_keys:0000000000000054 .LVL20
C:\Users\stapi\AppData\Local\Temp\cca24Nov.s:250    .text.tls_derive_keys:0000000000000078 .LVL21
C:\Users\stapi\AppData\Local\Temp\cca24Nov.s:261    .text.tls_derive_keys:000000000000008c .LVL23
C:\Users\stapi\AppData\Local\Temp\cca24Nov.s:290    .text.tls_derive_keys:00000000000000b2 .LVL25
C:\Users\stapi\AppData\Local\Temp\cca24Nov.s:297    .text.tls_derive_keys:00000000000000c2 .LVL26
C:\Users\stapi\AppData\Local\Temp\cca24Nov.s:303    .text.tls_derive_keys:00000000000000d2 .LVL27
C:\Users\stapi\AppData\Local\Temp\cca24Nov.s:338    .text.tls_derive_keys:0000000000000114 .LVL30
C:\Users\stapi\AppData\Local\Temp\cca24Nov.s:354    .text.tls_derive_keys:0000000000000138 .LVL31
C:\Users\stapi\AppData\Local\Temp\cca24Nov.s:362    .text.tls_derive_keys:000000000000014a .LVL33
C:\Users\stapi\AppData\Local\Temp\cca24Nov.s:377    .text.tls_derive_keys:0000000000000162 .LVL36
C:\Users\stapi\AppData\Local\Temp\cca24Nov.s:390    .text.tls_derive_keys:000000000000017a .LVL38
C:\Users\stapi\AppData\Local\Temp\cca24Nov.s:404    .text.tls_derive_keys:0000000000000192 .LVL40
C:\Users\stapi\AppData\Local\Temp\cca24Nov.s:422    .text.tls_derive_keys:00000000000001b6 .LVL42
C:\Users\stapi\AppData\Local\Temp\cca24Nov.s:430    .text.tls_derive_keys:00000000000001ca .LVL44
C:\Users\stapi\AppData\Local\Temp\cca24Nov.s:437    .text.tls_derive_keys:00000000000001d6 .LVL46
C:\Users\stapi\AppData\Local\Temp\cca24Nov.s:11642  .debug_str:0000000000001208 .LASF295
C:\Users\stapi\AppData\Local\Temp\cca24Nov.s:109    .text.tls_derive_pre_master_secret:0000000000000000 .LFB89
C:\Users\stapi\AppData\Local\Temp\cca24Nov.s:152    .text.tls_derive_pre_master_secret:000000000000003e .LFE89
C:\Users\stapi\AppData\Local\Temp\cca24Nov.s:10832  .debug_loc:0000000000001237 .LLST2
C:\Users\stapi\AppData\Local\Temp\cca24Nov.s:10846  .debug_loc:0000000000001258 .LLST3
C:\Users\stapi\AppData\Local\Temp\cca24Nov.s:123    .text.tls_derive_pre_master_secret:0000000000000012 .LBB32
C:\Users\stapi\AppData\Local\Temp\cca24Nov.s:136    .text.tls_derive_pre_master_secret:000000000000001e .LBE32
C:\Users\stapi\AppData\Local\Temp\cca24Nov.s:10857  .debug_loc:0000000000001276 .LLST4
C:\Users\stapi\AppData\Local\Temp\cca24Nov.s:10864  .debug_loc:0000000000001289 .LLST5
C:\Users\stapi\AppData\Local\Temp\cca24Nov.s:122    .text.tls_derive_pre_master_secret:0000000000000012 .LVL11
C:\Users\stapi\AppData\Local\Temp\cca24Nov.s:142    .text.tls_derive_pre_master_secret:000000000000002e .LVL13
C:\Users\stapi\AppData\Local\Temp\cca24Nov.s:11654  .debug_str:000000000000127f .LASF296
C:\Users\stapi\AppData\Local\Temp\cca24Nov.s:79     .text.tls_client_highest_ver:0000000000000000 .LFB88
C:\Users\stapi\AppData\Local\Temp\cca24Nov.s:102    .text.tls_client_highest_ver:0000000000000014 .LFE88
C:\Users\stapi\AppData\Local\Temp\cca24Nov.s:10871  .debug_loc:000000000000129c .LLST1
C:\Users\stapi\AppData\Local\Temp\cca24Nov.s:11480  .debug_str:0000000000000d03 .LASF297
C:\Users\stapi\AppData\Local\Temp\cca24Nov.s:35     .text.tlsv1_client_free_dh:0000000000000000 .LFB87
C:\Users\stapi\AppData\Local\Temp\cca24Nov.s:72     .text.tlsv1_client_free_dh:0000000000000042 .LFE87
C:\Users\stapi\AppData\Local\Temp\cca24Nov.s:10896  .debug_loc:00000000000012d6 .LLST0
C:\Users\stapi\AppData\Local\Temp\cca24Nov.s:50     .text.tlsv1_client_free_dh:0000000000000016 .LVL3
C:\Users\stapi\AppData\Local\Temp\cca24Nov.s:54     .text.tlsv1_client_free_dh:0000000000000022 .LVL4
C:\Users\stapi\AppData\Local\Temp\cca24Nov.s:58     .text.tlsv1_client_free_dh:000000000000002e .LVL5
C:\Users\stapi\AppData\Local\Temp\cca24Nov.s:11328  .debug_str:0000000000000896 .LASF338
C:\Users\stapi\AppData\Local\Temp\cca24Nov.s:11144  .debug_str:000000000000022a .LASF298
C:\Users\stapi\AppData\Local\Temp\cca24Nov.s:11366  .debug_str:00000000000009af .LASF302
C:\Users\stapi\AppData\Local\Temp\cca24Nov.s:11496  .debug_str:0000000000000d94 .LASF299
C:\Users\stapi\AppData\Local\Temp\cca24Nov.s:11606  .debug_str:00000000000010e6 .LASF300
C:\Users\stapi\AppData\Local\Temp\cca24Nov.s:11644  .debug_str:0000000000001225 .LASF301
C:\Users\stapi\AppData\Local\Temp\cca24Nov.s:11414  .debug_str:0000000000000af4 .LASF303
C:\Users\stapi\AppData\Local\Temp\cca24Nov.s:14     .text.tls_alert:0000000000000000 .LFB86
C:\Users\stapi\AppData\Local\Temp\cca24Nov.s:28     .text.tls_alert:000000000000000a .LFE86
C:\Users\stapi\AppData\Local\Temp\cca24Nov.s:11730  .debug_str:00000000000015d9 .LASF304
C:\Users\stapi\AppData\Local\Temp\cca24Nov.s:11566  .debug_str:0000000000000f9b .LASF305
C:\Users\stapi\AppData\Local\Temp\cca24Nov.s:11702  .debug_str:00000000000013fa .LASF306
C:\Users\stapi\AppData\Local\Temp\cca24Nov.s:11526  .debug_str:0000000000000e65 .LASF307
C:\Users\stapi\AppData\Local\Temp\cca24Nov.s:11242  .debug_str:0000000000000599 .LASF308
C:\Users\stapi\AppData\Local\Temp\cca24Nov.s:11318  .debug_str:0000000000000846 .LASF309
C:\Users\stapi\AppData\Local\Temp\cca24Nov.s:11096  .debug_str:0000000000000114 .LASF310
C:\Users\stapi\AppData\Local\Temp\cca24Nov.s:11466  .debug_str:0000000000000ca5 .LASF311
C:\Users\stapi\AppData\Local\Temp\cca24Nov.s:11552  .debug_str:0000000000000f2c .LASF312
C:\Users\stapi\AppData\Local\Temp\cca24Nov.s:11208  .debug_str:00000000000004b3 .LASF313
C:\Users\stapi\AppData\Local\Temp\cca24Nov.s:11662  .debug_str:00000000000012ad .LASF314
C:\Users\stapi\AppData\Local\Temp\cca24Nov.s:11280  .debug_str:0000000000000726 .LASF315
C:\Users\stapi\AppData\Local\Temp\cca24Nov.s:11264  .debug_str:00000000000006b4 .LASF316
C:\Users\stapi\AppData\Local\Temp\cca24Nov.s:11170  .debug_str:000000000000035b .LASF317
C:\Users\stapi\AppData\Local\Temp\cca24Nov.s:11674  .debug_str:000000000000130e .LASF318
C:\Users\stapi\AppData\Local\Temp\cca24Nov.s:11094  .debug_str:00000000000000f8 .LASF319
C:\Users\stapi\AppData\Local\Temp\cca24Nov.s:11218  .debug_str:00000000000004fc .LASF320
C:\Users\stapi\AppData\Local\Temp\cca24Nov.s:11706  .debug_str:0000000000001420 .LASF321
C:\Users\stapi\AppData\Local\Temp\cca24Nov.s:11268  .debug_str:00000000000006da .LASF322
C:\Users\stapi\AppData\Local\Temp\cca24Nov.s:11418  .debug_str:0000000000000b0b .LASF323
C:\Users\stapi\AppData\Local\Temp\cca24Nov.s:11604  .debug_str:00000000000010db .LASF324
C:\Users\stapi\AppData\Local\Temp\cca24Nov.s:11108  .debug_str:000000000000014b .LASF325
C:\Users\stapi\AppData\Local\Temp\cca24Nov.s:11138  .debug_str:0000000000000207 .LASF326
C:\Users\stapi\AppData\Local\Temp\cca24Nov.s:11180  .debug_str:00000000000003a0 .LASF327
C:\Users\stapi\AppData\Local\Temp\cca24Nov.s:11724  .debug_str:00000000000015a9 .LASF328
C:\Users\stapi\AppData\Local\Temp\cca24Nov.s:11620  .debug_str:0000000000001155 .LASF329
C:\Users\stapi\AppData\Local\Temp\cca24Nov.s:11448  .debug_str:0000000000000c04 .LASF330
C:\Users\stapi\AppData\Local\Temp\cca24Nov.s:11446  .debug_str:0000000000000bec .LASF331
C:\Users\stapi\AppData\Local\Temp\cca24Nov.s:11198  .debug_str:000000000000044f .LASF332
C:\Users\stapi\AppData\Local\Temp\cca24Nov.s:11304  .debug_str:00000000000007f9 .LASF333
C:\Users\stapi\AppData\Local\Temp\cca24Nov.s:2880   .text.tlsv1_client_get_version:0000000000000000 .LVL301
C:\Users\stapi\AppData\Local\Temp\cca24Nov.s:2895   .text.tlsv1_client_get_version:0000000000000016 .LVL302
C:\Users\stapi\AppData\Local\Temp\cca24Nov.s:2933   .text.tlsv1_client_get_version:000000000000005c .LVL306
C:\Users\stapi\AppData\Local\Temp\cca24Nov.s:2941   .text.tlsv1_client_get_version:0000000000000060 .LVL307
C:\Users\stapi\AppData\Local\Temp\cca24Nov.s:2905   .text.tlsv1_client_get_version:0000000000000030 .LVL303
C:\Users\stapi\AppData\Local\Temp\cca24Nov.s:2921   .text.tlsv1_client_get_version:0000000000000048 .LVL305
C:\Users\stapi\AppData\Local\Temp\cca24Nov.s:2840   .text.tlsv1_client_set_cb:0000000000000000 .LVL299
C:\Users\stapi\AppData\Local\Temp\cca24Nov.s:2844   .text.tlsv1_client_set_cb:0000000000000004 .LVL300
C:\Users\stapi\AppData\Local\Temp\cca24Nov.s:2791   .text.tlsv1_client_set_session_ticket_cb:0000000000000000 .LVL294
C:\Users\stapi\AppData\Local\Temp\cca24Nov.s:2813   .text.tlsv1_client_set_session_ticket_cb:000000000000001c .LVL297
C:\Users\stapi\AppData\Local\Temp\cca24Nov.s:2807   .text.tlsv1_client_set_session_ticket_cb:0000000000000014 .LVL296
C:\Users\stapi\AppData\Local\Temp\cca24Nov.s:2805   .text.tlsv1_client_set_session_ticket_cb:0000000000000010 .LVL295
C:\Users\stapi\AppData\Local\Temp\cca24Nov.s:2755   .text.tlsv1_client_set_flags:0000000000000000 .LVL292
C:\Users\stapi\AppData\Local\Temp\cca24Nov.s:2715   .text.tlsv1_client_set_cred:0000000000000000 .LVL289
C:\Users\stapi\AppData\Local\Temp\cca24Nov.s:2726   .text.tlsv1_client_set_cred:000000000000000e .LVL290
C:\Users\stapi\AppData\Local\Temp\cca24Nov.s:2639   .text.tlsv1_client_set_cipher_list:0000000000000000 .LVL279
C:\Users\stapi\AppData\Local\Temp\cca24Nov.s:2702   .text.tlsv1_client_set_cipher_list:0000000000000048 .LVL288
C:\Users\stapi\AppData\Local\Temp\cca24Nov.s:2648   .text.tlsv1_client_set_cipher_list:000000000000000a .LVL280
C:\Users\stapi\AppData\Local\Temp\cca24Nov.s:2655   .text.tlsv1_client_set_cipher_list:0000000000000012 .LVL281
C:\Users\stapi\AppData\Local\Temp\cca24Nov.s:2663   .text.tlsv1_client_set_cipher_list:000000000000001c .LVL282
C:\Users\stapi\AppData\Local\Temp\cca24Nov.s:2668   .text.tlsv1_client_set_cipher_list:0000000000000024 .LVL283
C:\Users\stapi\AppData\Local\Temp\cca24Nov.s:2678   .text.tlsv1_client_set_cipher_list:0000000000000032 .LVL284
C:\Users\stapi\AppData\Local\Temp\cca24Nov.s:2683   .text.tlsv1_client_set_cipher_list:0000000000000036 .LVL285
C:\Users\stapi\AppData\Local\Temp\cca24Nov.s:2693   .text.tlsv1_client_set_cipher_list:0000000000000042 .LVL286
C:\Users\stapi\AppData\Local\Temp\cca24Nov.s:2697   .text.tlsv1_client_set_cipher_list:0000000000000046 .LVL287
C:\Users\stapi\AppData\Local\Temp\cca24Nov.s:2601   .text.tlsv1_client_get_keyblock_size:0000000000000000 .LVL275
C:\Users\stapi\AppData\Local\Temp\cca24Nov.s:2613   .text.tlsv1_client_get_keyblock_size:0000000000000014 .LVL276
C:\Users\stapi\AppData\Local\Temp\cca24Nov.s:2621   .text.tlsv1_client_get_keyblock_size:000000000000001c .LVL277
C:\Users\stapi\AppData\Local\Temp\cca24Nov.s:2625   .text.tlsv1_client_get_keyblock_size:000000000000001e .LVL278
C:\Users\stapi\AppData\Local\Temp\cca24Nov.s:2532   .text.tlsv1_client_get_random:0000000000000000 .LVL269
C:\Users\stapi\AppData\Local\Temp\cca24Nov.s:2547   .text.tlsv1_client_get_random:0000000000000012 .LVL271
C:\Users\stapi\AppData\Local\Temp\cca24Nov.s:2576   .text.tlsv1_client_get_random:0000000000000038 .LVL273
C:\Users\stapi\AppData\Local\Temp\cca24Nov.s:2582   .text.tlsv1_client_get_random:000000000000003c .LVL274
C:\Users\stapi\AppData\Local\Temp\cca24Nov.s:2545   .text.tlsv1_client_get_random:0000000000000010 .LVL270
C:\Users\stapi\AppData\Local\Temp\cca24Nov.s:2381   .text.tlsv1_client_hello_ext:0000000000000000 .LVL257
C:\Users\stapi\AppData\Local\Temp\cca24Nov.s:2402   .text.tlsv1_client_hello_ext:000000000000001a .LVL258
C:\Users\stapi\AppData\Local\Temp\cca24Nov.s:2445   .text.tlsv1_client_hello_ext:0000000000000052 .LVL261
C:\Users\stapi\AppData\Local\Temp\cca24Nov.s:2449   .text.tlsv1_client_hello_ext:0000000000000054 .LVL262
C:\Users\stapi\AppData\Local\Temp\cca24Nov.s:2475   .text.tlsv1_client_hello_ext:000000000000006a .LVL264
C:\Users\stapi\AppData\Local\Temp\cca24Nov.s:2488   .text.tlsv1_client_hello_ext:0000000000000072 .LVL265
C:\Users\stapi\AppData\Local\Temp\cca24Nov.s:2494   .text.tlsv1_client_hello_ext:0000000000000076 .LVL266
C:\Users\stapi\AppData\Local\Temp\cca24Nov.s:2453   .text.tlsv1_client_hello_ext:0000000000000056 .LVL263
C:\Users\stapi\AppData\Local\Temp\cca24Nov.s:2358   .text.tlsv1_client_resumed:0000000000000000 .LVL255
C:\Users\stapi\AppData\Local\Temp\cca24Nov.s:2362   .text.tlsv1_client_resumed:0000000000000004 .LVL256
C:\Users\stapi\AppData\Local\Temp\cca24Nov.s:2270   .text.tlsv1_client_shutdown:0000000000000000 .LVL247
C:\Users\stapi\AppData\Local\Temp\cca24Nov.s:2284   .text.tlsv1_client_shutdown:0000000000000012 .LVL248
C:\Users\stapi\AppData\Local\Temp\cca24Nov.s:1972   .text.tlsv1_client_get_cipher:0000000000000000 .LVL224
C:\Users\stapi\AppData\Local\Temp\cca24Nov.s:1996   .text.tlsv1_client_get_cipher:000000000000002e .LVL225
C:\Users\stapi\AppData\Local\Temp\cca24Nov.s:1998   .text.tlsv1_client_get_cipher:0000000000000030 .LVL226
C:\Users\stapi\AppData\Local\Temp\cca24Nov.s:2042   .text.tlsv1_client_get_cipher:000000000000005c .LVL230
C:\Users\stapi\AppData\Local\Temp\cca24Nov.s:2055   .text.tlsv1_client_get_cipher:0000000000000072 .LVL232
C:\Users\stapi\AppData\Local\Temp\cca24Nov.s:2040   .text.tlsv1_client_get_cipher:000000000000005a .LVL229
C:\Users\stapi\AppData\Local\Temp\cca24Nov.s:2038   .text.tlsv1_client_get_cipher:0000000000000058 .LVL228
C:\Users\stapi\AppData\Local\Temp\cca24Nov.s:2034   .text.tlsv1_client_get_cipher:0000000000000056 .LVL227
C:\Users\stapi\AppData\Local\Temp\cca24Nov.s:2119   .text.tlsv1_client_get_cipher:00000000000000c4 .LVL233
C:\Users\stapi\AppData\Local\Temp\cca24Nov.s:2126   .text.tlsv1_client_get_cipher:00000000000000ce .LVL234
C:\Users\stapi\AppData\Local\Temp\cca24Nov.s:2135   .text.tlsv1_client_get_cipher:00000000000000d8 .LVL235
C:\Users\stapi\AppData\Local\Temp\cca24Nov.s:2144   .text.tlsv1_client_get_cipher:00000000000000e2 .LVL236
C:\Users\stapi\AppData\Local\Temp\cca24Nov.s:2153   .text.tlsv1_client_get_cipher:00000000000000ec .LVL237
C:\Users\stapi\AppData\Local\Temp\cca24Nov.s:2162   .text.tlsv1_client_get_cipher:00000000000000f6 .LVL238
C:\Users\stapi\AppData\Local\Temp\cca24Nov.s:2171   .text.tlsv1_client_get_cipher:0000000000000100 .LVL239
C:\Users\stapi\AppData\Local\Temp\cca24Nov.s:2180   .text.tlsv1_client_get_cipher:000000000000010a .LVL240
C:\Users\stapi\AppData\Local\Temp\cca24Nov.s:2189   .text.tlsv1_client_get_cipher:0000000000000114 .LVL241
C:\Users\stapi\AppData\Local\Temp\cca24Nov.s:2198   .text.tlsv1_client_get_cipher:000000000000011e .LVL242
C:\Users\stapi\AppData\Local\Temp\cca24Nov.s:2207   .text.tlsv1_client_get_cipher:0000000000000128 .LVL243
C:\Users\stapi\AppData\Local\Temp\cca24Nov.s:2216   .text.tlsv1_client_get_cipher:0000000000000132 .LVL244
C:\Users\stapi\AppData\Local\Temp\cca24Nov.s:2225   .text.tlsv1_client_get_cipher:000000000000013c .LVL245
C:\Users\stapi\AppData\Local\Temp\cca24Nov.s:2234   .text.tlsv1_client_get_cipher:0000000000000146 .LVL246
C:\Users\stapi\AppData\Local\Temp\cca24Nov.s:1726   .text.tlsv1_client_prf:0000000000000000 .LVL203
C:\Users\stapi\AppData\Local\Temp\cca24Nov.s:1758   .text.tlsv1_client_prf:0000000000000014 .LVL207
C:\Users\stapi\AppData\Local\Temp\cca24Nov.s:1781   .text.tlsv1_client_prf:0000000000000020 .LVL208
C:\Users\stapi\AppData\Local\Temp\cca24Nov.s:1799   .text.tlsv1_client_prf:0000000000000036 .LVL209
C:\Users\stapi\AppData\Local\Temp\cca24Nov.s:1879   .text.tlsv1_client_prf:00000000000000b8 .LVL220
C:\Users\stapi\AppData\Local\Temp\cca24Nov.s:1887   .text.tlsv1_client_prf:00000000000000c4 .LVL222
C:\Users\stapi\AppData\Local\Temp\cca24Nov.s:1751   .text.tlsv1_client_prf:000000000000000c .LVL205
C:\Users\stapi\AppData\Local\Temp\cca24Nov.s:1756   .text.tlsv1_client_prf:0000000000000010 .LVL206
C:\Users\stapi\AppData\Local\Temp\cca24Nov.s:1842   .text.tlsv1_client_prf:000000000000007a .LVL215
C:\Users\stapi\AppData\Local\Temp\cca24Nov.s:1854   .text.tlsv1_client_prf:0000000000000088 .LVL216
C:\Users\stapi\AppData\Local\Temp\cca24Nov.s:1862   .text.tlsv1_client_prf:0000000000000090 .LVL217
C:\Users\stapi\AppData\Local\Temp\cca24Nov.s:1744   .text.tlsv1_client_prf:0000000000000008 .LVL204
C:\Users\stapi\AppData\Local\Temp\cca24Nov.s:1803   .text.tlsv1_client_prf:000000000000003a .LVL210
C:\Users\stapi\AppData\Local\Temp\cca24Nov.s:1706   .text.tlsv1_client_established:0000000000000000 .LVL201
C:\Users\stapi\AppData\Local\Temp\cca24Nov.s:1710   .text.tlsv1_client_established:0000000000000002 .LVL202
C:\Users\stapi\AppData\Local\Temp\cca24Nov.s:1627   .text.tlsv1_client_deinit:0000000000000000 .LVL188
C:\Users\stapi\AppData\Local\Temp\cca24Nov.s:1638   .text.tlsv1_client_deinit:000000000000000e .LVL189
C:\Users\stapi\AppData\Local\Temp\cca24Nov.s:1505   .text.tlsv1_client_init:0000000000000016 .LVL171
C:\Users\stapi\AppData\Local\Temp\cca24Nov.s:1532   .text.tlsv1_client_init:000000000000004a .LVL175
C:\Users\stapi\AppData\Local\Temp\cca24Nov.s:1541   .text.tlsv1_client_init:0000000000000054 .LVL176
C:\Users\stapi\AppData\Local\Temp\cca24Nov.s:1551   .text.tlsv1_client_init:000000000000005c .LVL177
C:\Users\stapi\AppData\Local\Temp\cca24Nov.s:1556   .text.tlsv1_client_init:0000000000000064 .LVL178
C:\Users\stapi\AppData\Local\Temp\cca24Nov.s:1561   .text.tlsv1_client_init:000000000000006c .LVL179
C:\Users\stapi\AppData\Local\Temp\cca24Nov.s:1566   .text.tlsv1_client_init:0000000000000074 .LVL180
C:\Users\stapi\AppData\Local\Temp\cca24Nov.s:1571   .text.tlsv1_client_init:000000000000007c .LVL181
C:\Users\stapi\AppData\Local\Temp\cca24Nov.s:1576   .text.tlsv1_client_init:0000000000000084 .LVL182
C:\Users\stapi\AppData\Local\Temp\cca24Nov.s:1581   .text.tlsv1_client_init:000000000000008c .LVL183
C:\Users\stapi\AppData\Local\Temp\cca24Nov.s:1586   .text.tlsv1_client_init:0000000000000094 .LVL184
C:\Users\stapi\AppData\Local\Temp\cca24Nov.s:1591   .text.tlsv1_client_init:000000000000009a .LVL185
C:\Users\stapi\AppData\Local\Temp\cca24Nov.s:1596   .text.tlsv1_client_init:00000000000000a0 .LVL186
C:\Users\stapi\AppData\Local\Temp\cca24Nov.s:1601   .text.tlsv1_client_init:00000000000000a6 .LVL187
C:\Users\stapi\AppData\Local\Temp\cca24Nov.s:1055   .text.tlsv1_client_decrypt:0000000000000000 .LVL118
C:\Users\stapi\AppData\Local\Temp\cca24Nov.s:1102   .text.tlsv1_client_decrypt:0000000000000026 .LVL120
C:\Users\stapi\AppData\Local\Temp\cca24Nov.s:1100   .text.tlsv1_client_decrypt:0000000000000022 .LVL119
C:\Users\stapi\AppData\Local\Temp\cca24Nov.s:1107   .text.tlsv1_client_decrypt:0000000000000032 .LVL122
C:\Users\stapi\AppData\Local\Temp\cca24Nov.s:1125   .text.tlsv1_client_decrypt:000000000000004e .LVL124
C:\Users\stapi\AppData\Local\Temp\cca24Nov.s:1190   .text.tlsv1_client_decrypt:0000000000000086 .LVL132
C:\Users\stapi\AppData\Local\Temp\cca24Nov.s:1178   .text.tlsv1_client_decrypt:000000000000007a .LVL131
C:\Users\stapi\AppData\Local\Temp\cca24Nov.s:1309   .text.tlsv1_client_decrypt:0000000000000126 .LVL147
C:\Users\stapi\AppData\Local\Temp\cca24Nov.s:1355   .text.tlsv1_client_decrypt:0000000000000168 .LVL154
C:\Users\stapi\AppData\Local\Temp\cca24Nov.s:1376   .text.tlsv1_client_decrypt:0000000000000172 .LVL155
C:\Users\stapi\AppData\Local\Temp\cca24Nov.s:1168   .text.tlsv1_client_decrypt:0000000000000074 .LVL130
C:\Users\stapi\AppData\Local\Temp\cca24Nov.s:1330   .text.tlsv1_client_decrypt:0000000000000148 .LVL151
C:\Users\stapi\AppData\Local\Temp\cca24Nov.s:1260   .text.tlsv1_client_decrypt:00000000000000e4 .LVL140
C:\Users\stapi\AppData\Local\Temp\cca24Nov.s:1268   .text.tlsv1_client_decrypt:00000000000000f2 .LVL141
C:\Users\stapi\AppData\Local\Temp\cca24Nov.s:1320   .text.tlsv1_client_decrypt:0000000000000132 .LVL148
C:\Users\stapi\AppData\Local\Temp\cca24Nov.s:1349   .text.tlsv1_client_decrypt:0000000000000166 .LVL153
C:\Users\stapi\AppData\Local\Temp\cca24Nov.s:1390   .text.tlsv1_client_decrypt:0000000000000186 .LVL156
C:\Users\stapi\AppData\Local\Temp\cca24Nov.s:1397   .text.tlsv1_client_decrypt:0000000000000194 .LVL158
C:\Users\stapi\AppData\Local\Temp\cca24Nov.s:1404   .text.tlsv1_client_decrypt:00000000000001a2 .LVL159
C:\Users\stapi\AppData\Local\Temp\cca24Nov.s:1422   .text.tlsv1_client_decrypt:00000000000001bc .LVL162
C:\Users\stapi\AppData\Local\Temp\cca24Nov.s:1432   .text.tlsv1_client_decrypt:00000000000001ce .LVL163
C:\Users\stapi\AppData\Local\Temp\cca24Nov.s:1439   .text.tlsv1_client_decrypt:00000000000001da .LVL165
C:\Users\stapi\AppData\Local\Temp\cca24Nov.s:1444   .text.tlsv1_client_decrypt:00000000000001de .LVL166
C:\Users\stapi\AppData\Local\Temp\cca24Nov.s:1230   .text.tlsv1_client_decrypt:00000000000000c6 .LVL137
C:\Users\stapi\AppData\Local\Temp\cca24Nov.s:1242   .text.tlsv1_client_decrypt:00000000000000cc .LVL138
C:\Users\stapi\AppData\Local\Temp\cca24Nov.s:1211   .text.tlsv1_client_decrypt:00000000000000a8 .LVL134
C:\Users\stapi\AppData\Local\Temp\cca24Nov.s:1133   .text.tlsv1_client_decrypt:0000000000000050 .LVL125
C:\Users\stapi\AppData\Local\Temp\cca24Nov.s:1153   .text.tlsv1_client_decrypt:000000000000006e .LVL128
C:\Users\stapi\AppData\Local\Temp\cca24Nov.s:1159   .text.tlsv1_client_decrypt:0000000000000070 .LVL129
C:\Users\stapi\AppData\Local\Temp\cca24Nov.s:1293   .text.tlsv1_client_decrypt:000000000000011a .LVL145
C:\Users\stapi\AppData\Local\Temp\cca24Nov.s:1302   .text.tlsv1_client_decrypt:0000000000000122 .LVL146
C:\Users\stapi\AppData\Local\Temp\cca24Nov.s:942    .text.tlsv1_client_encrypt:0000000000000000 .LVL107
C:\Users\stapi\AppData\Local\Temp\cca24Nov.s:971    .text.tlsv1_client_encrypt:0000000000000020 .LVL111
C:\Users\stapi\AppData\Local\Temp\cca24Nov.s:965    .text.tlsv1_client_encrypt:0000000000000018 .LVL110
C:\Users\stapi\AppData\Local\Temp\cca24Nov.s:963    .text.tlsv1_client_encrypt:0000000000000014 .LVL109
C:\Users\stapi\AppData\Local\Temp\cca24Nov.s:1016   .text.tlsv1_client_encrypt:0000000000000066 .LVL116
C:\Users\stapi\AppData\Local\Temp\cca24Nov.s:1024   .text.tlsv1_client_encrypt:000000000000006e .LVL117
C:\Users\stapi\AppData\Local\Temp\cca24Nov.s:961    .text.tlsv1_client_encrypt:0000000000000012 .LVL108
C:\Users\stapi\AppData\Local\Temp\cca24Nov.s:1005   .text.tlsv1_client_encrypt:0000000000000062 .LVL115
C:\Users\stapi\AppData\Local\Temp\cca24Nov.s:460    .text.tlsv1_client_handshake:0000000000000000 .LVL47
C:\Users\stapi\AppData\Local\Temp\cca24Nov.s:508    .text.tlsv1_client_handshake:0000000000000028 .LVL50
C:\Users\stapi\AppData\Local\Temp\cca24Nov.s:514    .text.tlsv1_client_handshake:000000000000002c .LVL51
C:\Users\stapi\AppData\Local\Temp\cca24Nov.s:524    .text.tlsv1_client_handshake:000000000000003a .LVL53
C:\Users\stapi\AppData\Local\Temp\cca24Nov.s:546    .text.tlsv1_client_handshake:0000000000000046 .LVL54
C:\Users\stapi\AppData\Local\Temp\cca24Nov.s:582    .text.tlsv1_client_handshake:000000000000007a .LVL58
C:\Users\stapi\AppData\Local\Temp\cca24Nov.s:587    .text.tlsv1_client_handshake:000000000000007e .LVL59
C:\Users\stapi\AppData\Local\Temp\cca24Nov.s:659    .text.tlsv1_client_handshake:00000000000000c0 .LVL70
C:\Users\stapi\AppData\Local\Temp\cca24Nov.s:503    .text.tlsv1_client_handshake:0000000000000022 .LVL49
C:\Users\stapi\AppData\Local\Temp\cca24Nov.s:641    .text.tlsv1_client_handshake:00000000000000aa .LVL66
C:\Users\stapi\AppData\Local\Temp\cca24Nov.s:684    .text.tlsv1_client_handshake:00000000000000ea .LVL74
C:\Users\stapi\AppData\Local\Temp\cca24Nov.s:688    .text.tlsv1_client_handshake:00000000000000ee .LVL75
C:\Users\stapi\AppData\Local\Temp\cca24Nov.s:756    .text.tlsv1_client_handshake:0000000000000154 .LVL86
C:\Users\stapi\AppData\Local\Temp\cca24Nov.s:854    .text.tlsv1_client_handshake:00000000000001f8 .LVL98
C:\Users\stapi\AppData\Local\Temp\cca24Nov.s:908    .text.tlsv1_client_handshake:0000000000000234 .LVL104
C:\Users\stapi\AppData\Local\Temp\cca24Nov.s:649    .text.tlsv1_client_handshake:00000000000000b8 .LVL68
C:\Users\stapi\AppData\Local\Temp\cca24Nov.s:782    .text.tlsv1_client_handshake:0000000000000180 .LVL89
C:\Users\stapi\AppData\Local\Temp\cca24Nov.s:839    .text.tlsv1_client_handshake:00000000000001e2 .LVL96
C:\Users\stapi\AppData\Local\Temp\cca24Nov.s:478    .text.tlsv1_client_handshake:0000000000000008 .LVL48
C:\Users\stapi\AppData\Local\Temp\cca24Nov.s:653    .text.tlsv1_client_handshake:00000000000000ba .LVL69
C:\Users\stapi\AppData\Local\Temp\cca24Nov.s:862    .text.tlsv1_client_handshake:00000000000001fe .LVL99
C:\Users\stapi\AppData\Local\Temp\cca24Nov.s:869    .text.tlsv1_client_handshake:0000000000000202 .LVL100
C:\Users\stapi\AppData\Local\Temp\cca24Nov.s:676    .text.tlsv1_client_handshake:00000000000000dc .LVL72
C:\Users\stapi\AppData\Local\Temp\cca24Nov.s:707    .text.tlsv1_client_handshake:000000000000010c .LVL77
C:\Users\stapi\AppData\Local\Temp\cca24Nov.s:715    .text.tlsv1_client_handshake:000000000000011a .LVL78
C:\Users\stapi\AppData\Local\Temp\cca24Nov.s:735    .text.tlsv1_client_handshake:0000000000000132 .LVL82
C:\Users\stapi\AppData\Local\Temp\cca24Nov.s:746    .text.tlsv1_client_handshake:000000000000013e .LVL83
C:\Users\stapi\AppData\Local\Temp\cca24Nov.s:576    .text.tlsv1_client_handshake:0000000000000078 .LVL57
C:\Users\stapi\AppData\Local\Temp\cca24Nov.s:596    .text.tlsv1_client_handshake:0000000000000080 .LVL60
C:\Users\stapi\AppData\Local\Temp\cca24Nov.s:616    .text.tlsv1_client_handshake:000000000000009e .LVL63
C:\Users\stapi\AppData\Local\Temp\cca24Nov.s:622    .text.tlsv1_client_handshake:00000000000000a0 .LVL64
C:\Users\stapi\AppData\Local\Temp\cca24Nov.s:631    .text.tlsv1_client_handshake:00000000000000a4 .LVL65
C:\Users\stapi\AppData\Local\Temp\cca24Nov.s:720    .text.tlsv1_client_handshake:0000000000000126 .LVL80
C:\Users\stapi\AppData\Local\Temp\cca24Nov.s:730    .text.tlsv1_client_handshake:0000000000000130 .LVL81
C:\Users\stapi\AppData\Local\Temp\cca24Nov.s:184    .text.tls_derive_keys:0000000000000000 .LVL14
C:\Users\stapi\AppData\Local\Temp\cca24Nov.s:223    .text.tls_derive_keys:000000000000002c .LVL17
C:\Users\stapi\AppData\Local\Temp\cca24Nov.s:220    .text.tls_derive_keys:0000000000000026 .LVL16
C:\Users\stapi\AppData\Local\Temp\cca24Nov.s:256    .text.tls_derive_keys:0000000000000082 .LVL22
C:\Users\stapi\AppData\Local\Temp\cca24Nov.s:280    .text.tls_derive_keys:000000000000009a .LVL24
C:\Users\stapi\AppData\Local\Temp\cca24Nov.s:218    .text.tls_derive_keys:0000000000000022 .LVL15
C:\Users\stapi\AppData\Local\Temp\cca24Nov.s:359    .text.tls_derive_keys:000000000000013e .LVL32
C:\Users\stapi\AppData\Local\Temp\cca24Nov.s:368    .text.tls_derive_keys:0000000000000150 .LVL34
C:\Users\stapi\AppData\Local\Temp\cca24Nov.s:373    .text.tls_derive_keys:0000000000000158 .LVL35
C:\Users\stapi\AppData\Local\Temp\cca24Nov.s:418    .text.tls_derive_keys:00000000000001ac .LVL41
C:\Users\stapi\AppData\Local\Temp\cca24Nov.s:428    .text.tls_derive_keys:00000000000001c2 .LVL43
C:\Users\stapi\AppData\Local\Temp\cca24Nov.s:432    .text.tls_derive_keys:00000000000001cc .LVL45
C:\Users\stapi\AppData\Local\Temp\cca24Nov.s:316    .text.tls_derive_keys:00000000000000e6 .LVL28
C:\Users\stapi\AppData\Local\Temp\cca24Nov.s:112    .text.tls_derive_pre_master_secret:0000000000000000 .LVL10
C:\Users\stapi\AppData\Local\Temp\cca24Nov.s:134    .text.tls_derive_pre_master_secret:000000000000001e .LVL12
C:\Users\stapi\AppData\Local\Temp\cca24Nov.s:82     .text.tls_client_highest_ver:0000000000000000 .LVL6
C:\Users\stapi\AppData\Local\Temp\cca24Nov.s:92     .text.tls_client_highest_ver:000000000000000c .LVL7
C:\Users\stapi\AppData\Local\Temp\cca24Nov.s:94     .text.tls_client_highest_ver:000000000000000e .LVL8
C:\Users\stapi\AppData\Local\Temp\cca24Nov.s:98     .text.tls_client_highest_ver:0000000000000012 .LVL9
C:\Users\stapi\AppData\Local\Temp\cca24Nov.s:38     .text.tlsv1_client_free_dh:0000000000000000 .LVL1
C:\Users\stapi\AppData\Local\Temp\cca24Nov.s:48     .text.tlsv1_client_free_dh:000000000000000e .LVL2
C:\Users\stapi\AppData\Local\Temp\cca24Nov.s:2963   .debug_info:0000000000000000 .Ldebug_info0
C:\Users\stapi\AppData\Local\Temp\cca24Nov.s:510    .text.tlsv1_client_handshake:0000000000000028 .LBB49
C:\Users\stapi\AppData\Local\Temp\cca24Nov.s:516    .text.tlsv1_client_handshake:000000000000002c .LBE49
C:\Users\stapi\AppData\Local\Temp\cca24Nov.s:740    .text.tlsv1_client_handshake:0000000000000134 .LBB64
C:\Users\stapi\AppData\Local\Temp\cca24Nov.s:787    .text.tlsv1_client_handshake:0000000000000180 .LBE64
C:\Users\stapi\AppData\Local\Temp\cca24Nov.s:841    .text.tlsv1_client_handshake:00000000000001e2 .LBB65
C:\Users\stapi\AppData\Local\Temp\cca24Nov.s:856    .text.tlsv1_client_handshake:00000000000001f8 .LBE65
C:\Users\stapi\AppData\Local\Temp\cca24Nov.s:1239   .text.tlsv1_client_decrypt:00000000000000ca .LBE89
C:\Users\stapi\AppData\Local\Temp\cca24Nov.s:1244   .text.tlsv1_client_decrypt:00000000000000ce .LBB92
C:\Users\stapi\AppData\Local\Temp\cca24Nov.s:1249   .text.tlsv1_client_decrypt:00000000000000d0 .LBE92
C:\Users\stapi\AppData\Local\Temp\cca24Nov.s:1289   .text.tlsv1_client_decrypt:0000000000000116 .LBE93
C:\Users\stapi\AppData\Local\Temp\cca24Nov.s:1294   .text.tlsv1_client_decrypt:000000000000011a .LBB96
C:\Users\stapi\AppData\Local\Temp\cca24Nov.s:1304   .text.tlsv1_client_decrypt:0000000000000122 .LBE96
C:\Users\stapi\AppData\Local\Temp\cca24Nov.s:2463   .text.tlsv1_client_hello_ext:0000000000000060 .LBE100
C:\Users\stapi\AppData\Local\Temp\cca24Nov.s:2471   .text.tlsv1_client_hello_ext:0000000000000066 .LBB106
C:\Users\stapi\AppData\Local\Temp\cca24Nov.s:2477   .text.tlsv1_client_hello_ext:000000000000006a .LBE106
C:\Users\stapi\AppData\Local\Temp\cca24Nov.s:2470   .text.tlsv1_client_hello_ext:0000000000000066 .LBE103
C:\Users\stapi\AppData\Local\Temp\cca24Nov.s:2480   .text.tlsv1_client_hello_ext:000000000000006a .LBB107
C:\Users\stapi\AppData\Local\Temp\cca24Nov.s:2490   .text.tlsv1_client_hello_ext:0000000000000072 .LBE107

UNDEFINED SYMBOLS
__riscv_save_1
os_free
__riscv_restore_1
os_get_random
__riscv_save_6
wpa_hexdump_key
os_memcpy
tls_prf
wpa_printf
__riscv_restore_6
os_memset
__riscv_save_12
tls_send_client_hello
__riscv_restore_12
wpabuf_resize
wpabuf_put
os_malloc
tlsv1_client_handshake_write
tlsv1_record_receive
wpabuf_alloc_copy
wpabuf_free
tlsv1_client_send_alert
tlsv1_client_process_handshake
os_zalloc
__riscv_save_4
tlsv1_record_send
__riscv_restore_4
crypto_global_init
crypto_global_deinit
tls_verify_hash_init
__riscv_save_2
crypto_public_key_free
tlsv1_record_set_cipher_suite
tlsv1_record_change_write_cipher
tlsv1_record_change_read_cipher
tls_verify_hash_free
tlsv1_cred_free
x509_certificate_chain_free
__riscv_restore_2
os_strlcpy
__riscv_save_5
__riscv_restore_5
__riscv_save_3
__riscv_restore_3
__riscv_save_0
__riscv_restore_0
