   1              		.file	"tlsv1_common.c"
   2              		.option nopic
   3              		.attribute arch, "rv32i2p0_m2p0_a2p0_f2p0_c2p0_b_p0p94"
   4              		.attribute unaligned_access, 0
   5              		.attribute stack_align, 16
   6              		.text
   7              	.Ltext0:
   8              		.cfi_sections	.debug_frame
   9              		.section	.text.tls_get_cipher_suite,"ax",@progbits
  10              		.align	1
  11              		.globl	tls_get_cipher_suite
  13              	tls_get_cipher_suite:
  14              	.LFB86:
  15              		.file 1 "C:/Users/stapi/OneDrive/Desktop/GD32VW553/V1_MQTT_OK/GD32VW55X_Wifi_BLE_SDK/GD32VW55x_REL
   1:C:/Users/stapi/OneDrive/Desktop/GD32VW553/V1_MQTT_OK/GD32VW55X_Wifi_BLE_SDK/GD32VW55x_RELEASE_V1.0.2/MSDK/wpa_supplicant/src/tls\tlsv1_common.c **** /*
   2:C:/Users/stapi/OneDrive/Desktop/GD32VW553/V1_MQTT_OK/GD32VW55X_Wifi_BLE_SDK/GD32VW55x_RELEASE_V1.0.2/MSDK/wpa_supplicant/src/tls\tlsv1_common.c ****  * TLSv1 common routines
   3:C:/Users/stapi/OneDrive/Desktop/GD32VW553/V1_MQTT_OK/GD32VW55X_Wifi_BLE_SDK/GD32VW55x_RELEASE_V1.0.2/MSDK/wpa_supplicant/src/tls\tlsv1_common.c ****  * Copyright (c) 2006-2014, Jouni Malinen <j@w1.fi>
   4:C:/Users/stapi/OneDrive/Desktop/GD32VW553/V1_MQTT_OK/GD32VW55X_Wifi_BLE_SDK/GD32VW55x_RELEASE_V1.0.2/MSDK/wpa_supplicant/src/tls\tlsv1_common.c ****  *
   5:C:/Users/stapi/OneDrive/Desktop/GD32VW553/V1_MQTT_OK/GD32VW55X_Wifi_BLE_SDK/GD32VW55x_RELEASE_V1.0.2/MSDK/wpa_supplicant/src/tls\tlsv1_common.c ****  * This software may be distributed under the terms of the BSD license.
   6:C:/Users/stapi/OneDrive/Desktop/GD32VW553/V1_MQTT_OK/GD32VW55X_Wifi_BLE_SDK/GD32VW55x_RELEASE_V1.0.2/MSDK/wpa_supplicant/src/tls\tlsv1_common.c ****  * See README for more details.
   7:C:/Users/stapi/OneDrive/Desktop/GD32VW553/V1_MQTT_OK/GD32VW55X_Wifi_BLE_SDK/GD32VW55x_RELEASE_V1.0.2/MSDK/wpa_supplicant/src/tls\tlsv1_common.c ****  */
   8:C:/Users/stapi/OneDrive/Desktop/GD32VW553/V1_MQTT_OK/GD32VW55X_Wifi_BLE_SDK/GD32VW55x_RELEASE_V1.0.2/MSDK/wpa_supplicant/src/tls\tlsv1_common.c **** 
   9:C:/Users/stapi/OneDrive/Desktop/GD32VW553/V1_MQTT_OK/GD32VW55X_Wifi_BLE_SDK/GD32VW55x_RELEASE_V1.0.2/MSDK/wpa_supplicant/src/tls\tlsv1_common.c **** #include "includes.h"
  10:C:/Users/stapi/OneDrive/Desktop/GD32VW553/V1_MQTT_OK/GD32VW55X_Wifi_BLE_SDK/GD32VW55x_RELEASE_V1.0.2/MSDK/wpa_supplicant/src/tls\tlsv1_common.c **** 
  11:C:/Users/stapi/OneDrive/Desktop/GD32VW553/V1_MQTT_OK/GD32VW55X_Wifi_BLE_SDK/GD32VW55x_RELEASE_V1.0.2/MSDK/wpa_supplicant/src/tls\tlsv1_common.c **** #include "common.h"
  12:C:/Users/stapi/OneDrive/Desktop/GD32VW553/V1_MQTT_OK/GD32VW55X_Wifi_BLE_SDK/GD32VW55x_RELEASE_V1.0.2/MSDK/wpa_supplicant/src/tls\tlsv1_common.c **** #include "crypto/md5.h"
  13:C:/Users/stapi/OneDrive/Desktop/GD32VW553/V1_MQTT_OK/GD32VW55X_Wifi_BLE_SDK/GD32VW55x_RELEASE_V1.0.2/MSDK/wpa_supplicant/src/tls\tlsv1_common.c **** #include "crypto/sha1.h"
  14:C:/Users/stapi/OneDrive/Desktop/GD32VW553/V1_MQTT_OK/GD32VW55X_Wifi_BLE_SDK/GD32VW55x_RELEASE_V1.0.2/MSDK/wpa_supplicant/src/tls\tlsv1_common.c **** #include "crypto/sha256.h"
  15:C:/Users/stapi/OneDrive/Desktop/GD32VW553/V1_MQTT_OK/GD32VW55X_Wifi_BLE_SDK/GD32VW55x_RELEASE_V1.0.2/MSDK/wpa_supplicant/src/tls\tlsv1_common.c **** #include "x509v3.h"
  16:C:/Users/stapi/OneDrive/Desktop/GD32VW553/V1_MQTT_OK/GD32VW55X_Wifi_BLE_SDK/GD32VW55x_RELEASE_V1.0.2/MSDK/wpa_supplicant/src/tls\tlsv1_common.c **** #include "tlsv1_common.h"
  17:C:/Users/stapi/OneDrive/Desktop/GD32VW553/V1_MQTT_OK/GD32VW55X_Wifi_BLE_SDK/GD32VW55x_RELEASE_V1.0.2/MSDK/wpa_supplicant/src/tls\tlsv1_common.c **** 
  18:C:/Users/stapi/OneDrive/Desktop/GD32VW553/V1_MQTT_OK/GD32VW55X_Wifi_BLE_SDK/GD32VW55x_RELEASE_V1.0.2/MSDK/wpa_supplicant/src/tls\tlsv1_common.c **** 
  19:C:/Users/stapi/OneDrive/Desktop/GD32VW553/V1_MQTT_OK/GD32VW55X_Wifi_BLE_SDK/GD32VW55x_RELEASE_V1.0.2/MSDK/wpa_supplicant/src/tls\tlsv1_common.c **** /*
  20:C:/Users/stapi/OneDrive/Desktop/GD32VW553/V1_MQTT_OK/GD32VW55X_Wifi_BLE_SDK/GD32VW55x_RELEASE_V1.0.2/MSDK/wpa_supplicant/src/tls\tlsv1_common.c ****  * TODO:
  21:C:/Users/stapi/OneDrive/Desktop/GD32VW553/V1_MQTT_OK/GD32VW55X_Wifi_BLE_SDK/GD32VW55x_RELEASE_V1.0.2/MSDK/wpa_supplicant/src/tls\tlsv1_common.c ****  * RFC 2246 Section 9: Mandatory to implement TLS_DHE_DSS_WITH_3DES_EDE_CBC_SHA
  22:C:/Users/stapi/OneDrive/Desktop/GD32VW553/V1_MQTT_OK/GD32VW55X_Wifi_BLE_SDK/GD32VW55x_RELEASE_V1.0.2/MSDK/wpa_supplicant/src/tls\tlsv1_common.c ****  * Add support for commonly used cipher suites; don't bother with exportable
  23:C:/Users/stapi/OneDrive/Desktop/GD32VW553/V1_MQTT_OK/GD32VW55X_Wifi_BLE_SDK/GD32VW55x_RELEASE_V1.0.2/MSDK/wpa_supplicant/src/tls\tlsv1_common.c ****  * suites.
  24:C:/Users/stapi/OneDrive/Desktop/GD32VW553/V1_MQTT_OK/GD32VW55X_Wifi_BLE_SDK/GD32VW55x_RELEASE_V1.0.2/MSDK/wpa_supplicant/src/tls\tlsv1_common.c ****  */
  25:C:/Users/stapi/OneDrive/Desktop/GD32VW553/V1_MQTT_OK/GD32VW55X_Wifi_BLE_SDK/GD32VW55x_RELEASE_V1.0.2/MSDK/wpa_supplicant/src/tls\tlsv1_common.c **** 
  26:C:/Users/stapi/OneDrive/Desktop/GD32VW553/V1_MQTT_OK/GD32VW55X_Wifi_BLE_SDK/GD32VW55x_RELEASE_V1.0.2/MSDK/wpa_supplicant/src/tls\tlsv1_common.c **** static const struct tls_cipher_suite tls_cipher_suites[] = {
  27:C:/Users/stapi/OneDrive/Desktop/GD32VW553/V1_MQTT_OK/GD32VW55X_Wifi_BLE_SDK/GD32VW55x_RELEASE_V1.0.2/MSDK/wpa_supplicant/src/tls\tlsv1_common.c **** 	{ TLS_NULL_WITH_NULL_NULL, TLS_KEY_X_NULL, TLS_CIPHER_NULL,
  28:C:/Users/stapi/OneDrive/Desktop/GD32VW553/V1_MQTT_OK/GD32VW55X_Wifi_BLE_SDK/GD32VW55x_RELEASE_V1.0.2/MSDK/wpa_supplicant/src/tls\tlsv1_common.c **** 	  TLS_HASH_NULL },
  29:C:/Users/stapi/OneDrive/Desktop/GD32VW553/V1_MQTT_OK/GD32VW55X_Wifi_BLE_SDK/GD32VW55x_RELEASE_V1.0.2/MSDK/wpa_supplicant/src/tls\tlsv1_common.c **** 	{ TLS_RSA_WITH_RC4_128_MD5, TLS_KEY_X_RSA, TLS_CIPHER_RC4_128,
  30:C:/Users/stapi/OneDrive/Desktop/GD32VW553/V1_MQTT_OK/GD32VW55X_Wifi_BLE_SDK/GD32VW55x_RELEASE_V1.0.2/MSDK/wpa_supplicant/src/tls\tlsv1_common.c **** 	  TLS_HASH_MD5 },
  31:C:/Users/stapi/OneDrive/Desktop/GD32VW553/V1_MQTT_OK/GD32VW55X_Wifi_BLE_SDK/GD32VW55x_RELEASE_V1.0.2/MSDK/wpa_supplicant/src/tls\tlsv1_common.c **** 	{ TLS_RSA_WITH_RC4_128_SHA, TLS_KEY_X_RSA, TLS_CIPHER_RC4_128,
  32:C:/Users/stapi/OneDrive/Desktop/GD32VW553/V1_MQTT_OK/GD32VW55X_Wifi_BLE_SDK/GD32VW55x_RELEASE_V1.0.2/MSDK/wpa_supplicant/src/tls\tlsv1_common.c **** 	  TLS_HASH_SHA },
  33:C:/Users/stapi/OneDrive/Desktop/GD32VW553/V1_MQTT_OK/GD32VW55X_Wifi_BLE_SDK/GD32VW55x_RELEASE_V1.0.2/MSDK/wpa_supplicant/src/tls\tlsv1_common.c **** 	{ TLS_RSA_WITH_DES_CBC_SHA, TLS_KEY_X_RSA, TLS_CIPHER_DES_CBC,
  34:C:/Users/stapi/OneDrive/Desktop/GD32VW553/V1_MQTT_OK/GD32VW55X_Wifi_BLE_SDK/GD32VW55x_RELEASE_V1.0.2/MSDK/wpa_supplicant/src/tls\tlsv1_common.c **** 	  TLS_HASH_SHA },
  35:C:/Users/stapi/OneDrive/Desktop/GD32VW553/V1_MQTT_OK/GD32VW55X_Wifi_BLE_SDK/GD32VW55x_RELEASE_V1.0.2/MSDK/wpa_supplicant/src/tls\tlsv1_common.c **** 	{ TLS_RSA_WITH_3DES_EDE_CBC_SHA, TLS_KEY_X_RSA,
  36:C:/Users/stapi/OneDrive/Desktop/GD32VW553/V1_MQTT_OK/GD32VW55X_Wifi_BLE_SDK/GD32VW55x_RELEASE_V1.0.2/MSDK/wpa_supplicant/src/tls\tlsv1_common.c **** 	  TLS_CIPHER_3DES_EDE_CBC, TLS_HASH_SHA },
  37:C:/Users/stapi/OneDrive/Desktop/GD32VW553/V1_MQTT_OK/GD32VW55X_Wifi_BLE_SDK/GD32VW55x_RELEASE_V1.0.2/MSDK/wpa_supplicant/src/tls\tlsv1_common.c **** 	{ TLS_DHE_RSA_WITH_DES_CBC_SHA, TLS_KEY_X_DHE_RSA, TLS_CIPHER_DES_CBC,
  38:C:/Users/stapi/OneDrive/Desktop/GD32VW553/V1_MQTT_OK/GD32VW55X_Wifi_BLE_SDK/GD32VW55x_RELEASE_V1.0.2/MSDK/wpa_supplicant/src/tls\tlsv1_common.c **** 	  TLS_HASH_SHA},
  39:C:/Users/stapi/OneDrive/Desktop/GD32VW553/V1_MQTT_OK/GD32VW55X_Wifi_BLE_SDK/GD32VW55x_RELEASE_V1.0.2/MSDK/wpa_supplicant/src/tls\tlsv1_common.c **** 	{ TLS_DHE_RSA_WITH_3DES_EDE_CBC_SHA, TLS_KEY_X_DHE_RSA,
  40:C:/Users/stapi/OneDrive/Desktop/GD32VW553/V1_MQTT_OK/GD32VW55X_Wifi_BLE_SDK/GD32VW55x_RELEASE_V1.0.2/MSDK/wpa_supplicant/src/tls\tlsv1_common.c **** 	  TLS_CIPHER_3DES_EDE_CBC, TLS_HASH_SHA },
  41:C:/Users/stapi/OneDrive/Desktop/GD32VW553/V1_MQTT_OK/GD32VW55X_Wifi_BLE_SDK/GD32VW55x_RELEASE_V1.0.2/MSDK/wpa_supplicant/src/tls\tlsv1_common.c ****  	{ TLS_DH_anon_WITH_RC4_128_MD5, TLS_KEY_X_DH_anon,
  42:C:/Users/stapi/OneDrive/Desktop/GD32VW553/V1_MQTT_OK/GD32VW55X_Wifi_BLE_SDK/GD32VW55x_RELEASE_V1.0.2/MSDK/wpa_supplicant/src/tls\tlsv1_common.c **** 	  TLS_CIPHER_RC4_128, TLS_HASH_MD5 },
  43:C:/Users/stapi/OneDrive/Desktop/GD32VW553/V1_MQTT_OK/GD32VW55X_Wifi_BLE_SDK/GD32VW55x_RELEASE_V1.0.2/MSDK/wpa_supplicant/src/tls\tlsv1_common.c ****  	{ TLS_DH_anon_WITH_DES_CBC_SHA, TLS_KEY_X_DH_anon,
  44:C:/Users/stapi/OneDrive/Desktop/GD32VW553/V1_MQTT_OK/GD32VW55X_Wifi_BLE_SDK/GD32VW55x_RELEASE_V1.0.2/MSDK/wpa_supplicant/src/tls\tlsv1_common.c **** 	  TLS_CIPHER_DES_CBC, TLS_HASH_SHA },
  45:C:/Users/stapi/OneDrive/Desktop/GD32VW553/V1_MQTT_OK/GD32VW55X_Wifi_BLE_SDK/GD32VW55x_RELEASE_V1.0.2/MSDK/wpa_supplicant/src/tls\tlsv1_common.c ****  	{ TLS_DH_anon_WITH_3DES_EDE_CBC_SHA, TLS_KEY_X_DH_anon,
  46:C:/Users/stapi/OneDrive/Desktop/GD32VW553/V1_MQTT_OK/GD32VW55X_Wifi_BLE_SDK/GD32VW55x_RELEASE_V1.0.2/MSDK/wpa_supplicant/src/tls\tlsv1_common.c **** 	  TLS_CIPHER_3DES_EDE_CBC, TLS_HASH_SHA },
  47:C:/Users/stapi/OneDrive/Desktop/GD32VW553/V1_MQTT_OK/GD32VW55X_Wifi_BLE_SDK/GD32VW55x_RELEASE_V1.0.2/MSDK/wpa_supplicant/src/tls\tlsv1_common.c **** 	{ TLS_RSA_WITH_AES_128_CBC_SHA, TLS_KEY_X_RSA, TLS_CIPHER_AES_128_CBC,
  48:C:/Users/stapi/OneDrive/Desktop/GD32VW553/V1_MQTT_OK/GD32VW55X_Wifi_BLE_SDK/GD32VW55x_RELEASE_V1.0.2/MSDK/wpa_supplicant/src/tls\tlsv1_common.c **** 	  TLS_HASH_SHA },
  49:C:/Users/stapi/OneDrive/Desktop/GD32VW553/V1_MQTT_OK/GD32VW55X_Wifi_BLE_SDK/GD32VW55x_RELEASE_V1.0.2/MSDK/wpa_supplicant/src/tls\tlsv1_common.c **** 	{ TLS_DHE_RSA_WITH_AES_128_CBC_SHA, TLS_KEY_X_DHE_RSA,
  50:C:/Users/stapi/OneDrive/Desktop/GD32VW553/V1_MQTT_OK/GD32VW55X_Wifi_BLE_SDK/GD32VW55x_RELEASE_V1.0.2/MSDK/wpa_supplicant/src/tls\tlsv1_common.c **** 	  TLS_CIPHER_AES_128_CBC, TLS_HASH_SHA },
  51:C:/Users/stapi/OneDrive/Desktop/GD32VW553/V1_MQTT_OK/GD32VW55X_Wifi_BLE_SDK/GD32VW55x_RELEASE_V1.0.2/MSDK/wpa_supplicant/src/tls\tlsv1_common.c **** 	{ TLS_DH_anon_WITH_AES_128_CBC_SHA, TLS_KEY_X_DH_anon,
  52:C:/Users/stapi/OneDrive/Desktop/GD32VW553/V1_MQTT_OK/GD32VW55X_Wifi_BLE_SDK/GD32VW55x_RELEASE_V1.0.2/MSDK/wpa_supplicant/src/tls\tlsv1_common.c **** 	  TLS_CIPHER_AES_128_CBC, TLS_HASH_SHA },
  53:C:/Users/stapi/OneDrive/Desktop/GD32VW553/V1_MQTT_OK/GD32VW55X_Wifi_BLE_SDK/GD32VW55x_RELEASE_V1.0.2/MSDK/wpa_supplicant/src/tls\tlsv1_common.c **** 	{ TLS_RSA_WITH_AES_256_CBC_SHA, TLS_KEY_X_RSA, TLS_CIPHER_AES_256_CBC,
  54:C:/Users/stapi/OneDrive/Desktop/GD32VW553/V1_MQTT_OK/GD32VW55X_Wifi_BLE_SDK/GD32VW55x_RELEASE_V1.0.2/MSDK/wpa_supplicant/src/tls\tlsv1_common.c **** 	  TLS_HASH_SHA },
  55:C:/Users/stapi/OneDrive/Desktop/GD32VW553/V1_MQTT_OK/GD32VW55X_Wifi_BLE_SDK/GD32VW55x_RELEASE_V1.0.2/MSDK/wpa_supplicant/src/tls\tlsv1_common.c **** 	{ TLS_DHE_RSA_WITH_AES_256_CBC_SHA, TLS_KEY_X_DHE_RSA,
  56:C:/Users/stapi/OneDrive/Desktop/GD32VW553/V1_MQTT_OK/GD32VW55X_Wifi_BLE_SDK/GD32VW55x_RELEASE_V1.0.2/MSDK/wpa_supplicant/src/tls\tlsv1_common.c **** 	  TLS_CIPHER_AES_256_CBC, TLS_HASH_SHA },
  57:C:/Users/stapi/OneDrive/Desktop/GD32VW553/V1_MQTT_OK/GD32VW55X_Wifi_BLE_SDK/GD32VW55x_RELEASE_V1.0.2/MSDK/wpa_supplicant/src/tls\tlsv1_common.c **** 	{ TLS_DH_anon_WITH_AES_256_CBC_SHA, TLS_KEY_X_DH_anon,
  58:C:/Users/stapi/OneDrive/Desktop/GD32VW553/V1_MQTT_OK/GD32VW55X_Wifi_BLE_SDK/GD32VW55x_RELEASE_V1.0.2/MSDK/wpa_supplicant/src/tls\tlsv1_common.c **** 	  TLS_CIPHER_AES_256_CBC, TLS_HASH_SHA },
  59:C:/Users/stapi/OneDrive/Desktop/GD32VW553/V1_MQTT_OK/GD32VW55X_Wifi_BLE_SDK/GD32VW55x_RELEASE_V1.0.2/MSDK/wpa_supplicant/src/tls\tlsv1_common.c **** 	{ TLS_RSA_WITH_AES_128_CBC_SHA256, TLS_KEY_X_RSA,
  60:C:/Users/stapi/OneDrive/Desktop/GD32VW553/V1_MQTT_OK/GD32VW55X_Wifi_BLE_SDK/GD32VW55x_RELEASE_V1.0.2/MSDK/wpa_supplicant/src/tls\tlsv1_common.c **** 	  TLS_CIPHER_AES_128_CBC, TLS_HASH_SHA256 },
  61:C:/Users/stapi/OneDrive/Desktop/GD32VW553/V1_MQTT_OK/GD32VW55X_Wifi_BLE_SDK/GD32VW55x_RELEASE_V1.0.2/MSDK/wpa_supplicant/src/tls\tlsv1_common.c **** 	{ TLS_RSA_WITH_AES_256_CBC_SHA256, TLS_KEY_X_RSA,
  62:C:/Users/stapi/OneDrive/Desktop/GD32VW553/V1_MQTT_OK/GD32VW55X_Wifi_BLE_SDK/GD32VW55x_RELEASE_V1.0.2/MSDK/wpa_supplicant/src/tls\tlsv1_common.c **** 	  TLS_CIPHER_AES_256_CBC, TLS_HASH_SHA256 },
  63:C:/Users/stapi/OneDrive/Desktop/GD32VW553/V1_MQTT_OK/GD32VW55X_Wifi_BLE_SDK/GD32VW55x_RELEASE_V1.0.2/MSDK/wpa_supplicant/src/tls\tlsv1_common.c **** 	{ TLS_DHE_RSA_WITH_AES_128_CBC_SHA256, TLS_KEY_X_DHE_RSA,
  64:C:/Users/stapi/OneDrive/Desktop/GD32VW553/V1_MQTT_OK/GD32VW55X_Wifi_BLE_SDK/GD32VW55x_RELEASE_V1.0.2/MSDK/wpa_supplicant/src/tls\tlsv1_common.c **** 	  TLS_CIPHER_AES_128_CBC, TLS_HASH_SHA256 },
  65:C:/Users/stapi/OneDrive/Desktop/GD32VW553/V1_MQTT_OK/GD32VW55X_Wifi_BLE_SDK/GD32VW55x_RELEASE_V1.0.2/MSDK/wpa_supplicant/src/tls\tlsv1_common.c **** 	{ TLS_DHE_RSA_WITH_AES_256_CBC_SHA256, TLS_KEY_X_DHE_RSA,
  66:C:/Users/stapi/OneDrive/Desktop/GD32VW553/V1_MQTT_OK/GD32VW55X_Wifi_BLE_SDK/GD32VW55x_RELEASE_V1.0.2/MSDK/wpa_supplicant/src/tls\tlsv1_common.c **** 	  TLS_CIPHER_AES_256_CBC, TLS_HASH_SHA256 },
  67:C:/Users/stapi/OneDrive/Desktop/GD32VW553/V1_MQTT_OK/GD32VW55X_Wifi_BLE_SDK/GD32VW55x_RELEASE_V1.0.2/MSDK/wpa_supplicant/src/tls\tlsv1_common.c **** 	{ TLS_DH_anon_WITH_AES_128_CBC_SHA256, TLS_KEY_X_DH_anon,
  68:C:/Users/stapi/OneDrive/Desktop/GD32VW553/V1_MQTT_OK/GD32VW55X_Wifi_BLE_SDK/GD32VW55x_RELEASE_V1.0.2/MSDK/wpa_supplicant/src/tls\tlsv1_common.c **** 	  TLS_CIPHER_AES_128_CBC, TLS_HASH_SHA256 },
  69:C:/Users/stapi/OneDrive/Desktop/GD32VW553/V1_MQTT_OK/GD32VW55X_Wifi_BLE_SDK/GD32VW55x_RELEASE_V1.0.2/MSDK/wpa_supplicant/src/tls\tlsv1_common.c **** 	{ TLS_DH_anon_WITH_AES_256_CBC_SHA256, TLS_KEY_X_DH_anon,
  70:C:/Users/stapi/OneDrive/Desktop/GD32VW553/V1_MQTT_OK/GD32VW55X_Wifi_BLE_SDK/GD32VW55x_RELEASE_V1.0.2/MSDK/wpa_supplicant/src/tls\tlsv1_common.c **** 	  TLS_CIPHER_AES_256_CBC, TLS_HASH_SHA256 }
  71:C:/Users/stapi/OneDrive/Desktop/GD32VW553/V1_MQTT_OK/GD32VW55X_Wifi_BLE_SDK/GD32VW55x_RELEASE_V1.0.2/MSDK/wpa_supplicant/src/tls\tlsv1_common.c **** };
  72:C:/Users/stapi/OneDrive/Desktop/GD32VW553/V1_MQTT_OK/GD32VW55X_Wifi_BLE_SDK/GD32VW55x_RELEASE_V1.0.2/MSDK/wpa_supplicant/src/tls\tlsv1_common.c **** 
  73:C:/Users/stapi/OneDrive/Desktop/GD32VW553/V1_MQTT_OK/GD32VW55X_Wifi_BLE_SDK/GD32VW55x_RELEASE_V1.0.2/MSDK/wpa_supplicant/src/tls\tlsv1_common.c **** #define NUM_TLS_CIPHER_SUITES ARRAY_SIZE(tls_cipher_suites)
  74:C:/Users/stapi/OneDrive/Desktop/GD32VW553/V1_MQTT_OK/GD32VW55X_Wifi_BLE_SDK/GD32VW55x_RELEASE_V1.0.2/MSDK/wpa_supplicant/src/tls\tlsv1_common.c **** 
  75:C:/Users/stapi/OneDrive/Desktop/GD32VW553/V1_MQTT_OK/GD32VW55X_Wifi_BLE_SDK/GD32VW55x_RELEASE_V1.0.2/MSDK/wpa_supplicant/src/tls\tlsv1_common.c **** 
  76:C:/Users/stapi/OneDrive/Desktop/GD32VW553/V1_MQTT_OK/GD32VW55X_Wifi_BLE_SDK/GD32VW55x_RELEASE_V1.0.2/MSDK/wpa_supplicant/src/tls\tlsv1_common.c **** static const struct tls_cipher_data tls_ciphers[] = {
  77:C:/Users/stapi/OneDrive/Desktop/GD32VW553/V1_MQTT_OK/GD32VW55X_Wifi_BLE_SDK/GD32VW55x_RELEASE_V1.0.2/MSDK/wpa_supplicant/src/tls\tlsv1_common.c **** 	{ TLS_CIPHER_NULL,         TLS_CIPHER_STREAM,  0,  0,  0,
  78:C:/Users/stapi/OneDrive/Desktop/GD32VW553/V1_MQTT_OK/GD32VW55X_Wifi_BLE_SDK/GD32VW55x_RELEASE_V1.0.2/MSDK/wpa_supplicant/src/tls\tlsv1_common.c **** 	  CRYPTO_CIPHER_NULL },
  79:C:/Users/stapi/OneDrive/Desktop/GD32VW553/V1_MQTT_OK/GD32VW55X_Wifi_BLE_SDK/GD32VW55x_RELEASE_V1.0.2/MSDK/wpa_supplicant/src/tls\tlsv1_common.c **** 	{ TLS_CIPHER_IDEA_CBC,     TLS_CIPHER_BLOCK,  16, 16,  8,
  80:C:/Users/stapi/OneDrive/Desktop/GD32VW553/V1_MQTT_OK/GD32VW55X_Wifi_BLE_SDK/GD32VW55x_RELEASE_V1.0.2/MSDK/wpa_supplicant/src/tls\tlsv1_common.c **** 	  CRYPTO_CIPHER_NULL },
  81:C:/Users/stapi/OneDrive/Desktop/GD32VW553/V1_MQTT_OK/GD32VW55X_Wifi_BLE_SDK/GD32VW55x_RELEASE_V1.0.2/MSDK/wpa_supplicant/src/tls\tlsv1_common.c **** 	{ TLS_CIPHER_RC2_CBC_40,   TLS_CIPHER_BLOCK,   5, 16,  0,
  82:C:/Users/stapi/OneDrive/Desktop/GD32VW553/V1_MQTT_OK/GD32VW55X_Wifi_BLE_SDK/GD32VW55x_RELEASE_V1.0.2/MSDK/wpa_supplicant/src/tls\tlsv1_common.c **** 	  CRYPTO_CIPHER_ALG_RC2 },
  83:C:/Users/stapi/OneDrive/Desktop/GD32VW553/V1_MQTT_OK/GD32VW55X_Wifi_BLE_SDK/GD32VW55x_RELEASE_V1.0.2/MSDK/wpa_supplicant/src/tls\tlsv1_common.c **** 	{ TLS_CIPHER_RC4_40,       TLS_CIPHER_STREAM,  5, 16,  0,
  84:C:/Users/stapi/OneDrive/Desktop/GD32VW553/V1_MQTT_OK/GD32VW55X_Wifi_BLE_SDK/GD32VW55x_RELEASE_V1.0.2/MSDK/wpa_supplicant/src/tls\tlsv1_common.c **** 	  CRYPTO_CIPHER_ALG_RC4 },
  85:C:/Users/stapi/OneDrive/Desktop/GD32VW553/V1_MQTT_OK/GD32VW55X_Wifi_BLE_SDK/GD32VW55x_RELEASE_V1.0.2/MSDK/wpa_supplicant/src/tls\tlsv1_common.c **** 	{ TLS_CIPHER_RC4_128,      TLS_CIPHER_STREAM, 16, 16,  0,
  86:C:/Users/stapi/OneDrive/Desktop/GD32VW553/V1_MQTT_OK/GD32VW55X_Wifi_BLE_SDK/GD32VW55x_RELEASE_V1.0.2/MSDK/wpa_supplicant/src/tls\tlsv1_common.c **** 	  CRYPTO_CIPHER_ALG_RC4 },
  87:C:/Users/stapi/OneDrive/Desktop/GD32VW553/V1_MQTT_OK/GD32VW55X_Wifi_BLE_SDK/GD32VW55x_RELEASE_V1.0.2/MSDK/wpa_supplicant/src/tls\tlsv1_common.c **** 	{ TLS_CIPHER_DES40_CBC,    TLS_CIPHER_BLOCK,   5,  8,  8,
  88:C:/Users/stapi/OneDrive/Desktop/GD32VW553/V1_MQTT_OK/GD32VW55X_Wifi_BLE_SDK/GD32VW55x_RELEASE_V1.0.2/MSDK/wpa_supplicant/src/tls\tlsv1_common.c **** 	  CRYPTO_CIPHER_ALG_DES },
  89:C:/Users/stapi/OneDrive/Desktop/GD32VW553/V1_MQTT_OK/GD32VW55X_Wifi_BLE_SDK/GD32VW55x_RELEASE_V1.0.2/MSDK/wpa_supplicant/src/tls\tlsv1_common.c **** 	{ TLS_CIPHER_DES_CBC,      TLS_CIPHER_BLOCK,   8,  8,  8,
  90:C:/Users/stapi/OneDrive/Desktop/GD32VW553/V1_MQTT_OK/GD32VW55X_Wifi_BLE_SDK/GD32VW55x_RELEASE_V1.0.2/MSDK/wpa_supplicant/src/tls\tlsv1_common.c **** 	  CRYPTO_CIPHER_ALG_DES },
  91:C:/Users/stapi/OneDrive/Desktop/GD32VW553/V1_MQTT_OK/GD32VW55X_Wifi_BLE_SDK/GD32VW55x_RELEASE_V1.0.2/MSDK/wpa_supplicant/src/tls\tlsv1_common.c **** 	{ TLS_CIPHER_3DES_EDE_CBC, TLS_CIPHER_BLOCK,  24, 24,  8,
  92:C:/Users/stapi/OneDrive/Desktop/GD32VW553/V1_MQTT_OK/GD32VW55X_Wifi_BLE_SDK/GD32VW55x_RELEASE_V1.0.2/MSDK/wpa_supplicant/src/tls\tlsv1_common.c **** 	  CRYPTO_CIPHER_ALG_3DES },
  93:C:/Users/stapi/OneDrive/Desktop/GD32VW553/V1_MQTT_OK/GD32VW55X_Wifi_BLE_SDK/GD32VW55x_RELEASE_V1.0.2/MSDK/wpa_supplicant/src/tls\tlsv1_common.c **** 	{ TLS_CIPHER_AES_128_CBC,  TLS_CIPHER_BLOCK,  16, 16, 16,
  94:C:/Users/stapi/OneDrive/Desktop/GD32VW553/V1_MQTT_OK/GD32VW55X_Wifi_BLE_SDK/GD32VW55x_RELEASE_V1.0.2/MSDK/wpa_supplicant/src/tls\tlsv1_common.c **** 	  CRYPTO_CIPHER_ALG_AES },
  95:C:/Users/stapi/OneDrive/Desktop/GD32VW553/V1_MQTT_OK/GD32VW55X_Wifi_BLE_SDK/GD32VW55x_RELEASE_V1.0.2/MSDK/wpa_supplicant/src/tls\tlsv1_common.c **** 	{ TLS_CIPHER_AES_256_CBC,  TLS_CIPHER_BLOCK,  32, 32, 16,
  96:C:/Users/stapi/OneDrive/Desktop/GD32VW553/V1_MQTT_OK/GD32VW55X_Wifi_BLE_SDK/GD32VW55x_RELEASE_V1.0.2/MSDK/wpa_supplicant/src/tls\tlsv1_common.c **** 	  CRYPTO_CIPHER_ALG_AES }
  97:C:/Users/stapi/OneDrive/Desktop/GD32VW553/V1_MQTT_OK/GD32VW55X_Wifi_BLE_SDK/GD32VW55x_RELEASE_V1.0.2/MSDK/wpa_supplicant/src/tls\tlsv1_common.c **** };
  98:C:/Users/stapi/OneDrive/Desktop/GD32VW553/V1_MQTT_OK/GD32VW55X_Wifi_BLE_SDK/GD32VW55x_RELEASE_V1.0.2/MSDK/wpa_supplicant/src/tls\tlsv1_common.c **** 
  99:C:/Users/stapi/OneDrive/Desktop/GD32VW553/V1_MQTT_OK/GD32VW55X_Wifi_BLE_SDK/GD32VW55x_RELEASE_V1.0.2/MSDK/wpa_supplicant/src/tls\tlsv1_common.c **** #define NUM_TLS_CIPHER_DATA ARRAY_SIZE(tls_ciphers)
 100:C:/Users/stapi/OneDrive/Desktop/GD32VW553/V1_MQTT_OK/GD32VW55X_Wifi_BLE_SDK/GD32VW55x_RELEASE_V1.0.2/MSDK/wpa_supplicant/src/tls\tlsv1_common.c **** 
 101:C:/Users/stapi/OneDrive/Desktop/GD32VW553/V1_MQTT_OK/GD32VW55X_Wifi_BLE_SDK/GD32VW55x_RELEASE_V1.0.2/MSDK/wpa_supplicant/src/tls\tlsv1_common.c **** 
 102:C:/Users/stapi/OneDrive/Desktop/GD32VW553/V1_MQTT_OK/GD32VW55X_Wifi_BLE_SDK/GD32VW55x_RELEASE_V1.0.2/MSDK/wpa_supplicant/src/tls\tlsv1_common.c **** /**
 103:C:/Users/stapi/OneDrive/Desktop/GD32VW553/V1_MQTT_OK/GD32VW55X_Wifi_BLE_SDK/GD32VW55x_RELEASE_V1.0.2/MSDK/wpa_supplicant/src/tls\tlsv1_common.c ****  * tls_get_cipher_suite - Get TLS cipher suite
 104:C:/Users/stapi/OneDrive/Desktop/GD32VW553/V1_MQTT_OK/GD32VW55X_Wifi_BLE_SDK/GD32VW55x_RELEASE_V1.0.2/MSDK/wpa_supplicant/src/tls\tlsv1_common.c ****  * @suite: Cipher suite identifier
 105:C:/Users/stapi/OneDrive/Desktop/GD32VW553/V1_MQTT_OK/GD32VW55X_Wifi_BLE_SDK/GD32VW55x_RELEASE_V1.0.2/MSDK/wpa_supplicant/src/tls\tlsv1_common.c ****  * Returns: Pointer to the cipher data or %NULL if not found
 106:C:/Users/stapi/OneDrive/Desktop/GD32VW553/V1_MQTT_OK/GD32VW55X_Wifi_BLE_SDK/GD32VW55x_RELEASE_V1.0.2/MSDK/wpa_supplicant/src/tls\tlsv1_common.c ****  */
 107:C:/Users/stapi/OneDrive/Desktop/GD32VW553/V1_MQTT_OK/GD32VW55X_Wifi_BLE_SDK/GD32VW55x_RELEASE_V1.0.2/MSDK/wpa_supplicant/src/tls\tlsv1_common.c **** const struct tls_cipher_suite * tls_get_cipher_suite(u16 suite)
 108:C:/Users/stapi/OneDrive/Desktop/GD32VW553/V1_MQTT_OK/GD32VW55X_Wifi_BLE_SDK/GD32VW55x_RELEASE_V1.0.2/MSDK/wpa_supplicant/src/tls\tlsv1_common.c **** {
  16              		.loc 1 108 1
  17              		.cfi_startproc
  18              	.LVL0:
 109:C:/Users/stapi/OneDrive/Desktop/GD32VW553/V1_MQTT_OK/GD32VW55X_Wifi_BLE_SDK/GD32VW55x_RELEASE_V1.0.2/MSDK/wpa_supplicant/src/tls\tlsv1_common.c **** 	size_t i;
  19              		.loc 1 109 2
 110:C:/Users/stapi/OneDrive/Desktop/GD32VW553/V1_MQTT_OK/GD32VW55X_Wifi_BLE_SDK/GD32VW55x_RELEASE_V1.0.2/MSDK/wpa_supplicant/src/tls\tlsv1_common.c **** 	for (i = 0; i < NUM_TLS_CIPHER_SUITES; i++)
  20              		.loc 1 110 2
  21              		.loc 1 110 14
  22 0000 B7070000 		lui	a5,%hi(.LANCHOR0)
  23 0004 93860700 		addi	a3,a5,%lo(.LANCHOR0)
  24              		.loc 1 110 9 is_stmt 0
  25 0008 0147     		li	a4,0
  26 000a 93870700 		addi	a5,a5,%lo(.LANCHOR0)
  27              		.loc 1 110 2
  28 000e 5946     		li	a2,22
  29              	.LVL1:
  30              	.L4:
 111:C:/Users/stapi/OneDrive/Desktop/GD32VW553/V1_MQTT_OK/GD32VW55X_Wifi_BLE_SDK/GD32VW55x_RELEASE_V1.0.2/MSDK/wpa_supplicant/src/tls\tlsv1_common.c **** 		if (tls_cipher_suites[i].suite == suite)
  31              		.loc 1 111 3 is_stmt 1
  32              		.loc 1 111 6 is_stmt 0
  33 0010 83D50600 		lhu	a1,0(a3)
  34 0014 6396A500 		bne	a1,a0,.L2
 112:C:/Users/stapi/OneDrive/Desktop/GD32VW553/V1_MQTT_OK/GD32VW55X_Wifi_BLE_SDK/GD32VW55x_RELEASE_V1.0.2/MSDK/wpa_supplicant/src/tls\tlsv1_common.c **** 			return &tls_cipher_suites[i];
  35              		.loc 1 112 4 is_stmt 1
  36              		.loc 1 112 11 is_stmt 0
  37 0018 13154700 		slli	a0,a4,4
  38              	.LVL2:
  39 001c 3E95     		add	a0,a5,a0
  40 001e 8280     		ret
  41              	.LVL3:
  42              	.L2:
 110:C:/Users/stapi/OneDrive/Desktop/GD32VW553/V1_MQTT_OK/GD32VW55X_Wifi_BLE_SDK/GD32VW55x_RELEASE_V1.0.2/MSDK/wpa_supplicant/src/tls\tlsv1_common.c **** 	for (i = 0; i < NUM_TLS_CIPHER_SUITES; i++)
  43              		.loc 1 110 41 is_stmt 1 discriminator 2
 110:C:/Users/stapi/OneDrive/Desktop/GD32VW553/V1_MQTT_OK/GD32VW55X_Wifi_BLE_SDK/GD32VW55x_RELEASE_V1.0.2/MSDK/wpa_supplicant/src/tls\tlsv1_common.c **** 	for (i = 0; i < NUM_TLS_CIPHER_SUITES; i++)
  44              		.loc 1 110 42 is_stmt 0 discriminator 2
  45 0020 0507     		addi	a4,a4,1
  46              	.LVL4:
 110:C:/Users/stapi/OneDrive/Desktop/GD32VW553/V1_MQTT_OK/GD32VW55X_Wifi_BLE_SDK/GD32VW55x_RELEASE_V1.0.2/MSDK/wpa_supplicant/src/tls\tlsv1_common.c **** 	for (i = 0; i < NUM_TLS_CIPHER_SUITES; i++)
  47              		.loc 1 110 14 is_stmt 1 discriminator 2
 110:C:/Users/stapi/OneDrive/Desktop/GD32VW553/V1_MQTT_OK/GD32VW55X_Wifi_BLE_SDK/GD32VW55x_RELEASE_V1.0.2/MSDK/wpa_supplicant/src/tls\tlsv1_common.c **** 	for (i = 0; i < NUM_TLS_CIPHER_SUITES; i++)
  48              		.loc 1 110 2 is_stmt 0 discriminator 2
  49 0022 C106     		addi	a3,a3,16
  50 0024 E316C7FE 		bne	a4,a2,.L4
 113:C:/Users/stapi/OneDrive/Desktop/GD32VW553/V1_MQTT_OK/GD32VW55X_Wifi_BLE_SDK/GD32VW55x_RELEASE_V1.0.2/MSDK/wpa_supplicant/src/tls\tlsv1_common.c **** 	return NULL;
  51              		.loc 1 113 9
  52 0028 0145     		li	a0,0
  53              	.LVL5:
 114:C:/Users/stapi/OneDrive/Desktop/GD32VW553/V1_MQTT_OK/GD32VW55X_Wifi_BLE_SDK/GD32VW55x_RELEASE_V1.0.2/MSDK/wpa_supplicant/src/tls\tlsv1_common.c **** }
  54              		.loc 1 114 1
  55 002a 8280     		ret
  56              		.cfi_endproc
  57              	.LFE86:
  59              		.section	.text.tls_get_cipher_data,"ax",@progbits
  60              		.align	1
  61              		.globl	tls_get_cipher_data
  63              	tls_get_cipher_data:
  64              	.LFB87:
 115:C:/Users/stapi/OneDrive/Desktop/GD32VW553/V1_MQTT_OK/GD32VW55X_Wifi_BLE_SDK/GD32VW55x_RELEASE_V1.0.2/MSDK/wpa_supplicant/src/tls\tlsv1_common.c **** 
 116:C:/Users/stapi/OneDrive/Desktop/GD32VW553/V1_MQTT_OK/GD32VW55X_Wifi_BLE_SDK/GD32VW55x_RELEASE_V1.0.2/MSDK/wpa_supplicant/src/tls\tlsv1_common.c **** 
 117:C:/Users/stapi/OneDrive/Desktop/GD32VW553/V1_MQTT_OK/GD32VW55X_Wifi_BLE_SDK/GD32VW55x_RELEASE_V1.0.2/MSDK/wpa_supplicant/src/tls\tlsv1_common.c **** const struct tls_cipher_data * tls_get_cipher_data(tls_cipher cipher)
 118:C:/Users/stapi/OneDrive/Desktop/GD32VW553/V1_MQTT_OK/GD32VW55X_Wifi_BLE_SDK/GD32VW55x_RELEASE_V1.0.2/MSDK/wpa_supplicant/src/tls\tlsv1_common.c **** {
  65              		.loc 1 118 1 is_stmt 1
  66              		.cfi_startproc
  67              	.LVL6:
 119:C:/Users/stapi/OneDrive/Desktop/GD32VW553/V1_MQTT_OK/GD32VW55X_Wifi_BLE_SDK/GD32VW55x_RELEASE_V1.0.2/MSDK/wpa_supplicant/src/tls\tlsv1_common.c **** 	size_t i;
  68              		.loc 1 119 2
 120:C:/Users/stapi/OneDrive/Desktop/GD32VW553/V1_MQTT_OK/GD32VW55X_Wifi_BLE_SDK/GD32VW55x_RELEASE_V1.0.2/MSDK/wpa_supplicant/src/tls\tlsv1_common.c **** 	for (i = 0; i < NUM_TLS_CIPHER_DATA; i++)
  69              		.loc 1 120 2
  70              		.loc 1 120 14
  71 0000 B7070000 		lui	a5,%hi(.LANCHOR1)
 118:C:/Users/stapi/OneDrive/Desktop/GD32VW553/V1_MQTT_OK/GD32VW55X_Wifi_BLE_SDK/GD32VW55x_RELEASE_V1.0.2/MSDK/wpa_supplicant/src/tls\tlsv1_common.c **** 	size_t i;
  72              		.loc 1 118 1 is_stmt 0
  73 0004 2A86     		mv	a2,a0
  74 0006 93860700 		addi	a3,a5,%lo(.LANCHOR1)
  75 000a 13850700 		addi	a0,a5,%lo(.LANCHOR1)
  76              	.LVL7:
  77              		.loc 1 120 9
  78 000e 0147     		li	a4,0
  79              		.loc 1 120 2
  80 0010 A947     		li	a5,10
  81              	.LVL8:
  82              	.L9:
 121:C:/Users/stapi/OneDrive/Desktop/GD32VW553/V1_MQTT_OK/GD32VW55X_Wifi_BLE_SDK/GD32VW55x_RELEASE_V1.0.2/MSDK/wpa_supplicant/src/tls\tlsv1_common.c **** 		if (tls_ciphers[i].cipher == cipher)
  83              		.loc 1 121 3 is_stmt 1
  84              		.loc 1 121 6 is_stmt 0
  85 0012 8C42     		lw	a1,0(a3)
  86 0014 6396C500 		bne	a1,a2,.L7
 122:C:/Users/stapi/OneDrive/Desktop/GD32VW553/V1_MQTT_OK/GD32VW55X_Wifi_BLE_SDK/GD32VW55x_RELEASE_V1.0.2/MSDK/wpa_supplicant/src/tls\tlsv1_common.c **** 			return &tls_ciphers[i];
  87              		.loc 1 122 4 is_stmt 1
  88              		.loc 1 122 11 is_stmt 0
  89 0018 E147     		li	a5,24
  90 001a 7F15F7C4 		maddr32	a0, a4, a5
  91 001e 8280     		ret
  92              	.L7:
 120:C:/Users/stapi/OneDrive/Desktop/GD32VW553/V1_MQTT_OK/GD32VW55X_Wifi_BLE_SDK/GD32VW55x_RELEASE_V1.0.2/MSDK/wpa_supplicant/src/tls\tlsv1_common.c **** 		if (tls_ciphers[i].cipher == cipher)
  93              		.loc 1 120 39 is_stmt 1 discriminator 2
 120:C:/Users/stapi/OneDrive/Desktop/GD32VW553/V1_MQTT_OK/GD32VW55X_Wifi_BLE_SDK/GD32VW55x_RELEASE_V1.0.2/MSDK/wpa_supplicant/src/tls\tlsv1_common.c **** 		if (tls_ciphers[i].cipher == cipher)
  94              		.loc 1 120 40 is_stmt 0 discriminator 2
  95 0020 0507     		addi	a4,a4,1
  96              	.LVL9:
 120:C:/Users/stapi/OneDrive/Desktop/GD32VW553/V1_MQTT_OK/GD32VW55X_Wifi_BLE_SDK/GD32VW55x_RELEASE_V1.0.2/MSDK/wpa_supplicant/src/tls\tlsv1_common.c **** 		if (tls_ciphers[i].cipher == cipher)
  97              		.loc 1 120 14 is_stmt 1 discriminator 2
 120:C:/Users/stapi/OneDrive/Desktop/GD32VW553/V1_MQTT_OK/GD32VW55X_Wifi_BLE_SDK/GD32VW55x_RELEASE_V1.0.2/MSDK/wpa_supplicant/src/tls\tlsv1_common.c **** 		if (tls_ciphers[i].cipher == cipher)
  98              		.loc 1 120 2 is_stmt 0 discriminator 2
  99 0022 E106     		addi	a3,a3,24
 100 0024 E317F7FE 		bne	a4,a5,.L9
 123:C:/Users/stapi/OneDrive/Desktop/GD32VW553/V1_MQTT_OK/GD32VW55X_Wifi_BLE_SDK/GD32VW55x_RELEASE_V1.0.2/MSDK/wpa_supplicant/src/tls\tlsv1_common.c **** 	return NULL;
 101              		.loc 1 123 9
 102 0028 0145     		li	a0,0
 124:C:/Users/stapi/OneDrive/Desktop/GD32VW553/V1_MQTT_OK/GD32VW55X_Wifi_BLE_SDK/GD32VW55x_RELEASE_V1.0.2/MSDK/wpa_supplicant/src/tls\tlsv1_common.c **** }
 103              		.loc 1 124 1
 104 002a 8280     		ret
 105              		.cfi_endproc
 106              	.LFE87:
 108              		.section	.text.tls_server_key_exchange_allowed,"ax",@progbits
 109              		.align	1
 110              		.globl	tls_server_key_exchange_allowed
 112              	tls_server_key_exchange_allowed:
 113              	.LFB88:
 125:C:/Users/stapi/OneDrive/Desktop/GD32VW553/V1_MQTT_OK/GD32VW55X_Wifi_BLE_SDK/GD32VW55x_RELEASE_V1.0.2/MSDK/wpa_supplicant/src/tls\tlsv1_common.c **** 
 126:C:/Users/stapi/OneDrive/Desktop/GD32VW553/V1_MQTT_OK/GD32VW55X_Wifi_BLE_SDK/GD32VW55x_RELEASE_V1.0.2/MSDK/wpa_supplicant/src/tls\tlsv1_common.c **** 
 127:C:/Users/stapi/OneDrive/Desktop/GD32VW553/V1_MQTT_OK/GD32VW55X_Wifi_BLE_SDK/GD32VW55x_RELEASE_V1.0.2/MSDK/wpa_supplicant/src/tls\tlsv1_common.c **** int tls_server_key_exchange_allowed(tls_cipher cipher)
 128:C:/Users/stapi/OneDrive/Desktop/GD32VW553/V1_MQTT_OK/GD32VW55X_Wifi_BLE_SDK/GD32VW55x_RELEASE_V1.0.2/MSDK/wpa_supplicant/src/tls\tlsv1_common.c **** {
 114              		.loc 1 128 1 is_stmt 1
 115              		.cfi_startproc
 116              	.LVL10:
 117 0000 17030000 		call	t0,__riscv_save_0
 117      E7020300 
 118              		.cfi_offset 1, -4
 119              		.cfi_def_cfa_offset 16
 129:C:/Users/stapi/OneDrive/Desktop/GD32VW553/V1_MQTT_OK/GD32VW55X_Wifi_BLE_SDK/GD32VW55x_RELEASE_V1.0.2/MSDK/wpa_supplicant/src/tls\tlsv1_common.c **** 	const struct tls_cipher_suite *suite;
 120              		.loc 1 129 2
 130:C:/Users/stapi/OneDrive/Desktop/GD32VW553/V1_MQTT_OK/GD32VW55X_Wifi_BLE_SDK/GD32VW55x_RELEASE_V1.0.2/MSDK/wpa_supplicant/src/tls\tlsv1_common.c **** 
 131:C:/Users/stapi/OneDrive/Desktop/GD32VW553/V1_MQTT_OK/GD32VW55X_Wifi_BLE_SDK/GD32VW55x_RELEASE_V1.0.2/MSDK/wpa_supplicant/src/tls\tlsv1_common.c **** 	/* RFC 2246, Section 7.4.3 */
 132:C:/Users/stapi/OneDrive/Desktop/GD32VW553/V1_MQTT_OK/GD32VW55X_Wifi_BLE_SDK/GD32VW55x_RELEASE_V1.0.2/MSDK/wpa_supplicant/src/tls\tlsv1_common.c **** 	suite = tls_get_cipher_suite(cipher);
 121              		.loc 1 132 2
 122              		.loc 1 132 10 is_stmt 0
 123 0008 33450508 		zext.h	a0,a0
 124              	.LVL11:
 125 000c 97000000 		call	tls_get_cipher_suite
 125      E7800000 
 126              	.LVL12:
 133:C:/Users/stapi/OneDrive/Desktop/GD32VW553/V1_MQTT_OK/GD32VW55X_Wifi_BLE_SDK/GD32VW55x_RELEASE_V1.0.2/MSDK/wpa_supplicant/src/tls\tlsv1_common.c **** 	if (suite == NULL)
 127              		.loc 1 133 2 is_stmt 1
 128              		.loc 1 133 5 is_stmt 0
 129 0014 09CD     		beq	a0,zero,.L13
 134:C:/Users/stapi/OneDrive/Desktop/GD32VW553/V1_MQTT_OK/GD32VW55X_Wifi_BLE_SDK/GD32VW55x_RELEASE_V1.0.2/MSDK/wpa_supplicant/src/tls\tlsv1_common.c **** 		return 0;
 135:C:/Users/stapi/OneDrive/Desktop/GD32VW553/V1_MQTT_OK/GD32VW55X_Wifi_BLE_SDK/GD32VW55x_RELEASE_V1.0.2/MSDK/wpa_supplicant/src/tls\tlsv1_common.c **** 
 136:C:/Users/stapi/OneDrive/Desktop/GD32VW553/V1_MQTT_OK/GD32VW55X_Wifi_BLE_SDK/GD32VW55x_RELEASE_V1.0.2/MSDK/wpa_supplicant/src/tls\tlsv1_common.c **** 	switch (suite->key_exchange) {
 130              		.loc 1 136 2 is_stmt 1
 131              		.loc 1 136 15 is_stmt 0
 132 0016 5C41     		lw	a5,4(a0)
 133              		.loc 1 136 2
 134 0018 0947     		li	a4,2
 137:C:/Users/stapi/OneDrive/Desktop/GD32VW553/V1_MQTT_OK/GD32VW55X_Wifi_BLE_SDK/GD32VW55x_RELEASE_V1.0.2/MSDK/wpa_supplicant/src/tls\tlsv1_common.c **** 	case TLS_KEY_X_DHE_DSS:
 138:C:/Users/stapi/OneDrive/Desktop/GD32VW553/V1_MQTT_OK/GD32VW55X_Wifi_BLE_SDK/GD32VW55x_RELEASE_V1.0.2/MSDK/wpa_supplicant/src/tls\tlsv1_common.c **** 	case TLS_KEY_X_DHE_DSS_EXPORT:
 139:C:/Users/stapi/OneDrive/Desktop/GD32VW553/V1_MQTT_OK/GD32VW55X_Wifi_BLE_SDK/GD32VW55x_RELEASE_V1.0.2/MSDK/wpa_supplicant/src/tls\tlsv1_common.c **** 	case TLS_KEY_X_DHE_RSA:
 140:C:/Users/stapi/OneDrive/Desktop/GD32VW553/V1_MQTT_OK/GD32VW55X_Wifi_BLE_SDK/GD32VW55x_RELEASE_V1.0.2/MSDK/wpa_supplicant/src/tls\tlsv1_common.c **** 	case TLS_KEY_X_DHE_RSA_EXPORT:
 141:C:/Users/stapi/OneDrive/Desktop/GD32VW553/V1_MQTT_OK/GD32VW55X_Wifi_BLE_SDK/GD32VW55x_RELEASE_V1.0.2/MSDK/wpa_supplicant/src/tls\tlsv1_common.c **** 	case TLS_KEY_X_DH_anon_EXPORT:
 142:C:/Users/stapi/OneDrive/Desktop/GD32VW553/V1_MQTT_OK/GD32VW55X_Wifi_BLE_SDK/GD32VW55x_RELEASE_V1.0.2/MSDK/wpa_supplicant/src/tls\tlsv1_common.c **** 	case TLS_KEY_X_DH_anon:
 143:C:/Users/stapi/OneDrive/Desktop/GD32VW553/V1_MQTT_OK/GD32VW55X_Wifi_BLE_SDK/GD32VW55x_RELEASE_V1.0.2/MSDK/wpa_supplicant/src/tls\tlsv1_common.c **** 		return 1;
 135              		.loc 1 143 10
 136 001a 0545     		li	a0,1
 137              	.LVL13:
 136:C:/Users/stapi/OneDrive/Desktop/GD32VW553/V1_MQTT_OK/GD32VW55X_Wifi_BLE_SDK/GD32VW55x_RELEASE_V1.0.2/MSDK/wpa_supplicant/src/tls\tlsv1_common.c **** 	case TLS_KEY_X_DHE_DSS:
 138              		.loc 1 136 2
 139 001c 6385E700 		beq	a5,a4,.L11
 140 0020 E517     		addi	a5,a5,-7
 141 0022 13B56700 		sltiu	a0,a5,6
 142              	.L11:
 144:C:/Users/stapi/OneDrive/Desktop/GD32VW553/V1_MQTT_OK/GD32VW55X_Wifi_BLE_SDK/GD32VW55x_RELEASE_V1.0.2/MSDK/wpa_supplicant/src/tls\tlsv1_common.c **** 	case TLS_KEY_X_RSA_EXPORT:
 145:C:/Users/stapi/OneDrive/Desktop/GD32VW553/V1_MQTT_OK/GD32VW55X_Wifi_BLE_SDK/GD32VW55x_RELEASE_V1.0.2/MSDK/wpa_supplicant/src/tls\tlsv1_common.c **** 		return 1 /* FIX: public key len > 512 bits */;
 146:C:/Users/stapi/OneDrive/Desktop/GD32VW553/V1_MQTT_OK/GD32VW55X_Wifi_BLE_SDK/GD32VW55x_RELEASE_V1.0.2/MSDK/wpa_supplicant/src/tls\tlsv1_common.c **** 	default:
 147:C:/Users/stapi/OneDrive/Desktop/GD32VW553/V1_MQTT_OK/GD32VW55X_Wifi_BLE_SDK/GD32VW55x_RELEASE_V1.0.2/MSDK/wpa_supplicant/src/tls\tlsv1_common.c **** 		return 0;
 148:C:/Users/stapi/OneDrive/Desktop/GD32VW553/V1_MQTT_OK/GD32VW55X_Wifi_BLE_SDK/GD32VW55x_RELEASE_V1.0.2/MSDK/wpa_supplicant/src/tls\tlsv1_common.c **** 	}
 149:C:/Users/stapi/OneDrive/Desktop/GD32VW553/V1_MQTT_OK/GD32VW55X_Wifi_BLE_SDK/GD32VW55x_RELEASE_V1.0.2/MSDK/wpa_supplicant/src/tls\tlsv1_common.c **** }
 143              		.loc 1 149 1
 144 0026 17030000 		tail	__riscv_restore_0
 144      67000300 
 145              		.cfi_remember_state
 146              		.cfi_restore 1
 147              		.cfi_def_cfa_offset 0
 148              	.LVL14:
 149              	.L13:
 150              		.cfi_restore_state
 134:C:/Users/stapi/OneDrive/Desktop/GD32VW553/V1_MQTT_OK/GD32VW55X_Wifi_BLE_SDK/GD32VW55x_RELEASE_V1.0.2/MSDK/wpa_supplicant/src/tls\tlsv1_common.c **** 
 151              		.loc 1 134 10
 152 002e 0145     		li	a0,0
 153              	.LVL15:
 154 0030 DDBF     		j	.L11
 155              		.cfi_endproc
 156              	.LFE88:
 158              		.section	.rodata.tls_parse_cert.str1.4,"aMS",@progbits,1
 159              		.align	2
 160              	.LC0:
 161 0000 544C5376 		.string	"TLSv1: Parse ASN.1 DER certificate"
 161      313A2050 
 161      61727365 
 161      2041534E 
 161      2E312044 
 162 0023 00       		.align	2
 163              	.LC1:
 164 0024 544C5376 		.string	"TLSv1: Failed to parse X.509 certificate"
 164      313A2046 
 164      61696C65 
 164      6420746F 
 164      20706172 
 165 004d 000000   		.align	2
 166              	.LC2:
 167 0050 544C5376 		.string	"TLSv1: Failed to import server public key"
 167      313A2046 
 167      61696C65 
 167      6420746F 
 167      20696D70 
 168              		.section	.text.tls_parse_cert,"ax",@progbits
 169              		.align	1
 170              		.globl	tls_parse_cert
 172              	tls_parse_cert:
 173              	.LFB89:
 150:C:/Users/stapi/OneDrive/Desktop/GD32VW553/V1_MQTT_OK/GD32VW55X_Wifi_BLE_SDK/GD32VW55x_RELEASE_V1.0.2/MSDK/wpa_supplicant/src/tls\tlsv1_common.c **** 
 151:C:/Users/stapi/OneDrive/Desktop/GD32VW553/V1_MQTT_OK/GD32VW55X_Wifi_BLE_SDK/GD32VW55x_RELEASE_V1.0.2/MSDK/wpa_supplicant/src/tls\tlsv1_common.c **** 
 152:C:/Users/stapi/OneDrive/Desktop/GD32VW553/V1_MQTT_OK/GD32VW55X_Wifi_BLE_SDK/GD32VW55x_RELEASE_V1.0.2/MSDK/wpa_supplicant/src/tls\tlsv1_common.c **** /**
 153:C:/Users/stapi/OneDrive/Desktop/GD32VW553/V1_MQTT_OK/GD32VW55X_Wifi_BLE_SDK/GD32VW55x_RELEASE_V1.0.2/MSDK/wpa_supplicant/src/tls\tlsv1_common.c ****  * tls_parse_cert - Parse DER encoded X.509 certificate and get public key
 154:C:/Users/stapi/OneDrive/Desktop/GD32VW553/V1_MQTT_OK/GD32VW55X_Wifi_BLE_SDK/GD32VW55x_RELEASE_V1.0.2/MSDK/wpa_supplicant/src/tls\tlsv1_common.c ****  * @buf: ASN.1 DER encoded certificate
 155:C:/Users/stapi/OneDrive/Desktop/GD32VW553/V1_MQTT_OK/GD32VW55X_Wifi_BLE_SDK/GD32VW55x_RELEASE_V1.0.2/MSDK/wpa_supplicant/src/tls\tlsv1_common.c ****  * @len: Length of the buffer
 156:C:/Users/stapi/OneDrive/Desktop/GD32VW553/V1_MQTT_OK/GD32VW55X_Wifi_BLE_SDK/GD32VW55x_RELEASE_V1.0.2/MSDK/wpa_supplicant/src/tls\tlsv1_common.c ****  * @pk: Buffer for returning the allocated public key
 157:C:/Users/stapi/OneDrive/Desktop/GD32VW553/V1_MQTT_OK/GD32VW55X_Wifi_BLE_SDK/GD32VW55x_RELEASE_V1.0.2/MSDK/wpa_supplicant/src/tls\tlsv1_common.c ****  * Returns: 0 on success, -1 on failure
 158:C:/Users/stapi/OneDrive/Desktop/GD32VW553/V1_MQTT_OK/GD32VW55X_Wifi_BLE_SDK/GD32VW55x_RELEASE_V1.0.2/MSDK/wpa_supplicant/src/tls\tlsv1_common.c ****  *
 159:C:/Users/stapi/OneDrive/Desktop/GD32VW553/V1_MQTT_OK/GD32VW55X_Wifi_BLE_SDK/GD32VW55x_RELEASE_V1.0.2/MSDK/wpa_supplicant/src/tls\tlsv1_common.c ****  * This functions parses an ASN.1 DER encoded X.509 certificate and retrieves
 160:C:/Users/stapi/OneDrive/Desktop/GD32VW553/V1_MQTT_OK/GD32VW55X_Wifi_BLE_SDK/GD32VW55x_RELEASE_V1.0.2/MSDK/wpa_supplicant/src/tls\tlsv1_common.c ****  * the public key from it. The caller is responsible for freeing the public key
 161:C:/Users/stapi/OneDrive/Desktop/GD32VW553/V1_MQTT_OK/GD32VW55X_Wifi_BLE_SDK/GD32VW55x_RELEASE_V1.0.2/MSDK/wpa_supplicant/src/tls\tlsv1_common.c ****  * by calling crypto_public_key_free().
 162:C:/Users/stapi/OneDrive/Desktop/GD32VW553/V1_MQTT_OK/GD32VW55X_Wifi_BLE_SDK/GD32VW55x_RELEASE_V1.0.2/MSDK/wpa_supplicant/src/tls\tlsv1_common.c ****  */
 163:C:/Users/stapi/OneDrive/Desktop/GD32VW553/V1_MQTT_OK/GD32VW55X_Wifi_BLE_SDK/GD32VW55x_RELEASE_V1.0.2/MSDK/wpa_supplicant/src/tls\tlsv1_common.c **** int tls_parse_cert(const u8 *buf, size_t len, struct crypto_public_key **pk)
 164:C:/Users/stapi/OneDrive/Desktop/GD32VW553/V1_MQTT_OK/GD32VW55X_Wifi_BLE_SDK/GD32VW55x_RELEASE_V1.0.2/MSDK/wpa_supplicant/src/tls\tlsv1_common.c **** {
 174              		.loc 1 164 1 is_stmt 1
 175              		.cfi_startproc
 176              	.LVL16:
 177 0000 17030000 		call	t0,__riscv_save_3
 177      E7020300 
 178              		.cfi_offset 18, -16
 179              		.cfi_offset 9, -12
 180              		.cfi_offset 8, -8
 181              		.cfi_offset 1, -4
 182              		.cfi_def_cfa_offset 16
 165:C:/Users/stapi/OneDrive/Desktop/GD32VW553/V1_MQTT_OK/GD32VW55X_Wifi_BLE_SDK/GD32VW55x_RELEASE_V1.0.2/MSDK/wpa_supplicant/src/tls\tlsv1_common.c **** 	struct x509_certificate *cert;
 183              		.loc 1 165 2
 166:C:/Users/stapi/OneDrive/Desktop/GD32VW553/V1_MQTT_OK/GD32VW55X_Wifi_BLE_SDK/GD32VW55x_RELEASE_V1.0.2/MSDK/wpa_supplicant/src/tls\tlsv1_common.c **** 
 167:C:/Users/stapi/OneDrive/Desktop/GD32VW553/V1_MQTT_OK/GD32VW55X_Wifi_BLE_SDK/GD32VW55x_RELEASE_V1.0.2/MSDK/wpa_supplicant/src/tls\tlsv1_common.c **** 	wpa_hexdump(MSG_MSGDUMP, "TLSv1: Parse ASN.1 DER certificate",
 184              		.loc 1 167 2
 185 0008 AE86     		mv	a3,a1
 164:C:/Users/stapi/OneDrive/Desktop/GD32VW553/V1_MQTT_OK/GD32VW55X_Wifi_BLE_SDK/GD32VW55x_RELEASE_V1.0.2/MSDK/wpa_supplicant/src/tls\tlsv1_common.c **** 	struct x509_certificate *cert;
 186              		.loc 1 164 1 is_stmt 0
 187 000a 2E89     		mv	s2,a1
 188              		.loc 1 167 2
 189 000c B7050000 		lui	a1,%hi(.LC0)
 190              	.LVL17:
 164:C:/Users/stapi/OneDrive/Desktop/GD32VW553/V1_MQTT_OK/GD32VW55X_Wifi_BLE_SDK/GD32VW55x_RELEASE_V1.0.2/MSDK/wpa_supplicant/src/tls\tlsv1_common.c **** 	struct x509_certificate *cert;
 191              		.loc 1 164 1
 192 0010 2A84     		mv	s0,a0
 193 0012 B284     		mv	s1,a2
 194              		.loc 1 167 2
 195 0014 93850500 		addi	a1,a1,%lo(.LC0)
 196 0018 2A86     		mv	a2,a0
 197              	.LVL18:
 198 001a 0545     		li	a0,1
 199              	.LVL19:
 200 001c 97000000 		call	wpa_hexdump
 200      E7800000 
 201              	.LVL20:
 168:C:/Users/stapi/OneDrive/Desktop/GD32VW553/V1_MQTT_OK/GD32VW55X_Wifi_BLE_SDK/GD32VW55x_RELEASE_V1.0.2/MSDK/wpa_supplicant/src/tls\tlsv1_common.c **** 		    buf, len);
 169:C:/Users/stapi/OneDrive/Desktop/GD32VW553/V1_MQTT_OK/GD32VW55X_Wifi_BLE_SDK/GD32VW55x_RELEASE_V1.0.2/MSDK/wpa_supplicant/src/tls\tlsv1_common.c **** 
 170:C:/Users/stapi/OneDrive/Desktop/GD32VW553/V1_MQTT_OK/GD32VW55X_Wifi_BLE_SDK/GD32VW55x_RELEASE_V1.0.2/MSDK/wpa_supplicant/src/tls\tlsv1_common.c **** 	*pk = crypto_public_key_from_cert(buf, len);
 202              		.loc 1 170 2 is_stmt 1
 203              		.loc 1 170 8 is_stmt 0
 204 0024 CA85     		mv	a1,s2
 205 0026 2285     		mv	a0,s0
 206 0028 97000000 		call	crypto_public_key_from_cert
 206      E7800000 
 207              	.LVL21:
 208              		.loc 1 170 6
 209 0030 88C0     		sw	a0,0(s1)
 171:C:/Users/stapi/OneDrive/Desktop/GD32VW553/V1_MQTT_OK/GD32VW55X_Wifi_BLE_SDK/GD32VW55x_RELEASE_V1.0.2/MSDK/wpa_supplicant/src/tls\tlsv1_common.c **** 	if (*pk)
 210              		.loc 1 171 2 is_stmt 1
 211              		.loc 1 171 5 is_stmt 0
 212 0032 11C5     		beq	a0,zero,.L17
 213              	.LVL22:
 214              	.L20:
 172:C:/Users/stapi/OneDrive/Desktop/GD32VW553/V1_MQTT_OK/GD32VW55X_Wifi_BLE_SDK/GD32VW55x_RELEASE_V1.0.2/MSDK/wpa_supplicant/src/tls\tlsv1_common.c **** 		return 0;
 215              		.loc 1 172 10
 216 0034 0145     		li	a0,0
 217              	.L16:
 173:C:/Users/stapi/OneDrive/Desktop/GD32VW553/V1_MQTT_OK/GD32VW55X_Wifi_BLE_SDK/GD32VW55x_RELEASE_V1.0.2/MSDK/wpa_supplicant/src/tls\tlsv1_common.c **** 
 174:C:/Users/stapi/OneDrive/Desktop/GD32VW553/V1_MQTT_OK/GD32VW55X_Wifi_BLE_SDK/GD32VW55x_RELEASE_V1.0.2/MSDK/wpa_supplicant/src/tls\tlsv1_common.c **** 	cert = x509_certificate_parse(buf, len);
 175:C:/Users/stapi/OneDrive/Desktop/GD32VW553/V1_MQTT_OK/GD32VW55X_Wifi_BLE_SDK/GD32VW55x_RELEASE_V1.0.2/MSDK/wpa_supplicant/src/tls\tlsv1_common.c **** 	if (cert == NULL) {
 176:C:/Users/stapi/OneDrive/Desktop/GD32VW553/V1_MQTT_OK/GD32VW55X_Wifi_BLE_SDK/GD32VW55x_RELEASE_V1.0.2/MSDK/wpa_supplicant/src/tls\tlsv1_common.c **** 		wpa_printf(MSG_DEBUG, "TLSv1: Failed to parse X.509 "
 177:C:/Users/stapi/OneDrive/Desktop/GD32VW553/V1_MQTT_OK/GD32VW55X_Wifi_BLE_SDK/GD32VW55x_RELEASE_V1.0.2/MSDK/wpa_supplicant/src/tls\tlsv1_common.c **** 			   "certificate");
 178:C:/Users/stapi/OneDrive/Desktop/GD32VW553/V1_MQTT_OK/GD32VW55X_Wifi_BLE_SDK/GD32VW55x_RELEASE_V1.0.2/MSDK/wpa_supplicant/src/tls\tlsv1_common.c **** 		return -1;
 179:C:/Users/stapi/OneDrive/Desktop/GD32VW553/V1_MQTT_OK/GD32VW55X_Wifi_BLE_SDK/GD32VW55x_RELEASE_V1.0.2/MSDK/wpa_supplicant/src/tls\tlsv1_common.c **** 	}
 180:C:/Users/stapi/OneDrive/Desktop/GD32VW553/V1_MQTT_OK/GD32VW55X_Wifi_BLE_SDK/GD32VW55x_RELEASE_V1.0.2/MSDK/wpa_supplicant/src/tls\tlsv1_common.c **** 
 181:C:/Users/stapi/OneDrive/Desktop/GD32VW553/V1_MQTT_OK/GD32VW55X_Wifi_BLE_SDK/GD32VW55x_RELEASE_V1.0.2/MSDK/wpa_supplicant/src/tls\tlsv1_common.c **** 	/* TODO
 182:C:/Users/stapi/OneDrive/Desktop/GD32VW553/V1_MQTT_OK/GD32VW55X_Wifi_BLE_SDK/GD32VW55x_RELEASE_V1.0.2/MSDK/wpa_supplicant/src/tls\tlsv1_common.c **** 	 * verify key usage (must allow encryption)
 183:C:/Users/stapi/OneDrive/Desktop/GD32VW553/V1_MQTT_OK/GD32VW55X_Wifi_BLE_SDK/GD32VW55x_RELEASE_V1.0.2/MSDK/wpa_supplicant/src/tls\tlsv1_common.c **** 	 *
 184:C:/Users/stapi/OneDrive/Desktop/GD32VW553/V1_MQTT_OK/GD32VW55X_Wifi_BLE_SDK/GD32VW55x_RELEASE_V1.0.2/MSDK/wpa_supplicant/src/tls\tlsv1_common.c **** 	 * All certificate profiles, key and cryptographic formats are
 185:C:/Users/stapi/OneDrive/Desktop/GD32VW553/V1_MQTT_OK/GD32VW55X_Wifi_BLE_SDK/GD32VW55x_RELEASE_V1.0.2/MSDK/wpa_supplicant/src/tls\tlsv1_common.c **** 	 * defined by the IETF PKIX working group [PKIX]. When a key
 186:C:/Users/stapi/OneDrive/Desktop/GD32VW553/V1_MQTT_OK/GD32VW55X_Wifi_BLE_SDK/GD32VW55x_RELEASE_V1.0.2/MSDK/wpa_supplicant/src/tls\tlsv1_common.c **** 	 * usage extension is present, the digitalSignature bit must be
 187:C:/Users/stapi/OneDrive/Desktop/GD32VW553/V1_MQTT_OK/GD32VW55X_Wifi_BLE_SDK/GD32VW55x_RELEASE_V1.0.2/MSDK/wpa_supplicant/src/tls\tlsv1_common.c **** 	 * set for the key to be eligible for signing, as described
 188:C:/Users/stapi/OneDrive/Desktop/GD32VW553/V1_MQTT_OK/GD32VW55X_Wifi_BLE_SDK/GD32VW55x_RELEASE_V1.0.2/MSDK/wpa_supplicant/src/tls\tlsv1_common.c **** 	 * above, and the keyEncipherment bit must be present to allow
 189:C:/Users/stapi/OneDrive/Desktop/GD32VW553/V1_MQTT_OK/GD32VW55X_Wifi_BLE_SDK/GD32VW55x_RELEASE_V1.0.2/MSDK/wpa_supplicant/src/tls\tlsv1_common.c **** 	 * encryption, as described above. The keyAgreement bit must be
 190:C:/Users/stapi/OneDrive/Desktop/GD32VW553/V1_MQTT_OK/GD32VW55X_Wifi_BLE_SDK/GD32VW55x_RELEASE_V1.0.2/MSDK/wpa_supplicant/src/tls\tlsv1_common.c **** 	 * set on Diffie-Hellman certificates. (PKIX: RFC 3280)
 191:C:/Users/stapi/OneDrive/Desktop/GD32VW553/V1_MQTT_OK/GD32VW55X_Wifi_BLE_SDK/GD32VW55x_RELEASE_V1.0.2/MSDK/wpa_supplicant/src/tls\tlsv1_common.c **** 	 */
 192:C:/Users/stapi/OneDrive/Desktop/GD32VW553/V1_MQTT_OK/GD32VW55X_Wifi_BLE_SDK/GD32VW55x_RELEASE_V1.0.2/MSDK/wpa_supplicant/src/tls\tlsv1_common.c **** 
 193:C:/Users/stapi/OneDrive/Desktop/GD32VW553/V1_MQTT_OK/GD32VW55X_Wifi_BLE_SDK/GD32VW55x_RELEASE_V1.0.2/MSDK/wpa_supplicant/src/tls\tlsv1_common.c **** 	*pk = crypto_public_key_import(cert->public_key, cert->public_key_len);
 194:C:/Users/stapi/OneDrive/Desktop/GD32VW553/V1_MQTT_OK/GD32VW55X_Wifi_BLE_SDK/GD32VW55x_RELEASE_V1.0.2/MSDK/wpa_supplicant/src/tls\tlsv1_common.c **** 	x509_certificate_free(cert);
 195:C:/Users/stapi/OneDrive/Desktop/GD32VW553/V1_MQTT_OK/GD32VW55X_Wifi_BLE_SDK/GD32VW55x_RELEASE_V1.0.2/MSDK/wpa_supplicant/src/tls\tlsv1_common.c **** 
 196:C:/Users/stapi/OneDrive/Desktop/GD32VW553/V1_MQTT_OK/GD32VW55X_Wifi_BLE_SDK/GD32VW55x_RELEASE_V1.0.2/MSDK/wpa_supplicant/src/tls\tlsv1_common.c **** 	if (*pk == NULL) {
 197:C:/Users/stapi/OneDrive/Desktop/GD32VW553/V1_MQTT_OK/GD32VW55X_Wifi_BLE_SDK/GD32VW55x_RELEASE_V1.0.2/MSDK/wpa_supplicant/src/tls\tlsv1_common.c **** 		wpa_printf(MSG_ERROR, "TLSv1: Failed to import "
 198:C:/Users/stapi/OneDrive/Desktop/GD32VW553/V1_MQTT_OK/GD32VW55X_Wifi_BLE_SDK/GD32VW55x_RELEASE_V1.0.2/MSDK/wpa_supplicant/src/tls\tlsv1_common.c **** 			   "server public key");
 199:C:/Users/stapi/OneDrive/Desktop/GD32VW553/V1_MQTT_OK/GD32VW55X_Wifi_BLE_SDK/GD32VW55x_RELEASE_V1.0.2/MSDK/wpa_supplicant/src/tls\tlsv1_common.c **** 		return -1;
 200:C:/Users/stapi/OneDrive/Desktop/GD32VW553/V1_MQTT_OK/GD32VW55X_Wifi_BLE_SDK/GD32VW55x_RELEASE_V1.0.2/MSDK/wpa_supplicant/src/tls\tlsv1_common.c **** 	}
 201:C:/Users/stapi/OneDrive/Desktop/GD32VW553/V1_MQTT_OK/GD32VW55X_Wifi_BLE_SDK/GD32VW55x_RELEASE_V1.0.2/MSDK/wpa_supplicant/src/tls\tlsv1_common.c **** 
 202:C:/Users/stapi/OneDrive/Desktop/GD32VW553/V1_MQTT_OK/GD32VW55X_Wifi_BLE_SDK/GD32VW55x_RELEASE_V1.0.2/MSDK/wpa_supplicant/src/tls\tlsv1_common.c **** 	return 0;
 203:C:/Users/stapi/OneDrive/Desktop/GD32VW553/V1_MQTT_OK/GD32VW55X_Wifi_BLE_SDK/GD32VW55x_RELEASE_V1.0.2/MSDK/wpa_supplicant/src/tls\tlsv1_common.c **** }
 218              		.loc 1 203 1
 219 0036 17030000 		tail	__riscv_restore_3
 219      67000300 
 220              		.cfi_remember_state
 221              		.cfi_restore 18
 222              		.cfi_restore 9
 223              		.cfi_restore 8
 224              		.cfi_restore 1
 225              		.cfi_def_cfa_offset 0
 226              	.LVL23:
 227              	.L17:
 228              		.cfi_restore_state
 174:C:/Users/stapi/OneDrive/Desktop/GD32VW553/V1_MQTT_OK/GD32VW55X_Wifi_BLE_SDK/GD32VW55x_RELEASE_V1.0.2/MSDK/wpa_supplicant/src/tls\tlsv1_common.c **** 	if (cert == NULL) {
 229              		.loc 1 174 2 is_stmt 1
 174:C:/Users/stapi/OneDrive/Desktop/GD32VW553/V1_MQTT_OK/GD32VW55X_Wifi_BLE_SDK/GD32VW55x_RELEASE_V1.0.2/MSDK/wpa_supplicant/src/tls\tlsv1_common.c **** 	if (cert == NULL) {
 230              		.loc 1 174 9 is_stmt 0
 231 003e 2285     		mv	a0,s0
 232 0040 CA85     		mv	a1,s2
 233 0042 97000000 		call	x509_certificate_parse
 233      E7800000 
 234              	.LVL24:
 235 004a 2A84     		mv	s0,a0
 236              	.LVL25:
 175:C:/Users/stapi/OneDrive/Desktop/GD32VW553/V1_MQTT_OK/GD32VW55X_Wifi_BLE_SDK/GD32VW55x_RELEASE_V1.0.2/MSDK/wpa_supplicant/src/tls\tlsv1_common.c **** 		wpa_printf(MSG_DEBUG, "TLSv1: Failed to parse X.509 "
 237              		.loc 1 175 2 is_stmt 1
 175:C:/Users/stapi/OneDrive/Desktop/GD32VW553/V1_MQTT_OK/GD32VW55X_Wifi_BLE_SDK/GD32VW55x_RELEASE_V1.0.2/MSDK/wpa_supplicant/src/tls\tlsv1_common.c **** 		wpa_printf(MSG_DEBUG, "TLSv1: Failed to parse X.509 "
 238              		.loc 1 175 5 is_stmt 0
 239 004c 01ED     		bne	a0,zero,.L19
 176:C:/Users/stapi/OneDrive/Desktop/GD32VW553/V1_MQTT_OK/GD32VW55X_Wifi_BLE_SDK/GD32VW55x_RELEASE_V1.0.2/MSDK/wpa_supplicant/src/tls\tlsv1_common.c **** 			   "certificate");
 240              		.loc 1 176 3 is_stmt 1
 241 004e B7050000 		lui	a1,%hi(.LC1)
 242 0052 93850500 		addi	a1,a1,%lo(.LC1)
 243 0056 0945     		li	a0,2
 244              	.L22:
 197:C:/Users/stapi/OneDrive/Desktop/GD32VW553/V1_MQTT_OK/GD32VW55X_Wifi_BLE_SDK/GD32VW55x_RELEASE_V1.0.2/MSDK/wpa_supplicant/src/tls\tlsv1_common.c **** 			   "server public key");
 245              		.loc 1 197 3 is_stmt 0
 246 0058 97000000 		call	wpa_printf
 246      E7800000 
 247              	.LVL26:
 199:C:/Users/stapi/OneDrive/Desktop/GD32VW553/V1_MQTT_OK/GD32VW55X_Wifi_BLE_SDK/GD32VW55x_RELEASE_V1.0.2/MSDK/wpa_supplicant/src/tls\tlsv1_common.c **** 	}
 248              		.loc 1 199 3 is_stmt 1
 199:C:/Users/stapi/OneDrive/Desktop/GD32VW553/V1_MQTT_OK/GD32VW55X_Wifi_BLE_SDK/GD32VW55x_RELEASE_V1.0.2/MSDK/wpa_supplicant/src/tls\tlsv1_common.c **** 	}
 249              		.loc 1 199 10 is_stmt 0
 250 0060 7D55     		li	a0,-1
 251 0062 D1BF     		j	.L16
 252              	.L19:
 193:C:/Users/stapi/OneDrive/Desktop/GD32VW553/V1_MQTT_OK/GD32VW55X_Wifi_BLE_SDK/GD32VW55x_RELEASE_V1.0.2/MSDK/wpa_supplicant/src/tls\tlsv1_common.c **** 	x509_certificate_free(cert);
 253              		.loc 1 193 2 is_stmt 1
 193:C:/Users/stapi/OneDrive/Desktop/GD32VW553/V1_MQTT_OK/GD32VW55X_Wifi_BLE_SDK/GD32VW55x_RELEASE_V1.0.2/MSDK/wpa_supplicant/src/tls\tlsv1_common.c **** 	x509_certificate_free(cert);
 254              		.loc 1 193 8 is_stmt 0
 255 0064 8325C52F 		lw	a1,764(a0)
 256 0068 0325852F 		lw	a0,760(a0)
 257 006c 97000000 		call	crypto_public_key_import
 257      E7800000 
 258              	.LVL27:
 193:C:/Users/stapi/OneDrive/Desktop/GD32VW553/V1_MQTT_OK/GD32VW55X_Wifi_BLE_SDK/GD32VW55x_RELEASE_V1.0.2/MSDK/wpa_supplicant/src/tls\tlsv1_common.c **** 	x509_certificate_free(cert);
 259              		.loc 1 193 6
 260 0074 88C0     		sw	a0,0(s1)
 194:C:/Users/stapi/OneDrive/Desktop/GD32VW553/V1_MQTT_OK/GD32VW55X_Wifi_BLE_SDK/GD32VW55x_RELEASE_V1.0.2/MSDK/wpa_supplicant/src/tls\tlsv1_common.c **** 
 261              		.loc 1 194 2 is_stmt 1
 262 0076 2285     		mv	a0,s0
 263 0078 97000000 		call	x509_certificate_free
 263      E7800000 
 264              	.LVL28:
 196:C:/Users/stapi/OneDrive/Desktop/GD32VW553/V1_MQTT_OK/GD32VW55X_Wifi_BLE_SDK/GD32VW55x_RELEASE_V1.0.2/MSDK/wpa_supplicant/src/tls\tlsv1_common.c **** 		wpa_printf(MSG_ERROR, "TLSv1: Failed to import "
 265              		.loc 1 196 2
 196:C:/Users/stapi/OneDrive/Desktop/GD32VW553/V1_MQTT_OK/GD32VW55X_Wifi_BLE_SDK/GD32VW55x_RELEASE_V1.0.2/MSDK/wpa_supplicant/src/tls\tlsv1_common.c **** 		wpa_printf(MSG_ERROR, "TLSv1: Failed to import "
 266              		.loc 1 196 5 is_stmt 0
 267 0080 9C40     		lw	a5,0(s1)
 268 0082 CDFB     		bne	a5,zero,.L20
 197:C:/Users/stapi/OneDrive/Desktop/GD32VW553/V1_MQTT_OK/GD32VW55X_Wifi_BLE_SDK/GD32VW55x_RELEASE_V1.0.2/MSDK/wpa_supplicant/src/tls\tlsv1_common.c **** 			   "server public key");
 269              		.loc 1 197 3 is_stmt 1
 270 0084 B7050000 		lui	a1,%hi(.LC2)
 271 0088 93850500 		addi	a1,a1,%lo(.LC2)
 272 008c 1545     		li	a0,5
 273 008e E9B7     		j	.L22
 274              		.cfi_endproc
 275              	.LFE89:
 277              		.section	.text.tls_verify_hash_add,"ax",@progbits
 278              		.align	1
 279              		.globl	tls_verify_hash_add
 281              	tls_verify_hash_add:
 282              	.LFB91:
 204:C:/Users/stapi/OneDrive/Desktop/GD32VW553/V1_MQTT_OK/GD32VW55X_Wifi_BLE_SDK/GD32VW55x_RELEASE_V1.0.2/MSDK/wpa_supplicant/src/tls\tlsv1_common.c **** 
 205:C:/Users/stapi/OneDrive/Desktop/GD32VW553/V1_MQTT_OK/GD32VW55X_Wifi_BLE_SDK/GD32VW55x_RELEASE_V1.0.2/MSDK/wpa_supplicant/src/tls\tlsv1_common.c **** 
 206:C:/Users/stapi/OneDrive/Desktop/GD32VW553/V1_MQTT_OK/GD32VW55X_Wifi_BLE_SDK/GD32VW55x_RELEASE_V1.0.2/MSDK/wpa_supplicant/src/tls\tlsv1_common.c **** int tls_verify_hash_init(struct tls_verify_hash *verify)
 207:C:/Users/stapi/OneDrive/Desktop/GD32VW553/V1_MQTT_OK/GD32VW55X_Wifi_BLE_SDK/GD32VW55x_RELEASE_V1.0.2/MSDK/wpa_supplicant/src/tls\tlsv1_common.c **** {
 208:C:/Users/stapi/OneDrive/Desktop/GD32VW553/V1_MQTT_OK/GD32VW55X_Wifi_BLE_SDK/GD32VW55x_RELEASE_V1.0.2/MSDK/wpa_supplicant/src/tls\tlsv1_common.c **** 	tls_verify_hash_free(verify);
 209:C:/Users/stapi/OneDrive/Desktop/GD32VW553/V1_MQTT_OK/GD32VW55X_Wifi_BLE_SDK/GD32VW55x_RELEASE_V1.0.2/MSDK/wpa_supplicant/src/tls\tlsv1_common.c **** 	verify->md5_client = crypto_hash_init(CRYPTO_HASH_ALG_MD5, NULL, 0);
 210:C:/Users/stapi/OneDrive/Desktop/GD32VW553/V1_MQTT_OK/GD32VW55X_Wifi_BLE_SDK/GD32VW55x_RELEASE_V1.0.2/MSDK/wpa_supplicant/src/tls\tlsv1_common.c **** 	verify->md5_server = crypto_hash_init(CRYPTO_HASH_ALG_MD5, NULL, 0);
 211:C:/Users/stapi/OneDrive/Desktop/GD32VW553/V1_MQTT_OK/GD32VW55X_Wifi_BLE_SDK/GD32VW55x_RELEASE_V1.0.2/MSDK/wpa_supplicant/src/tls\tlsv1_common.c **** 	verify->md5_cert = crypto_hash_init(CRYPTO_HASH_ALG_MD5, NULL, 0);
 212:C:/Users/stapi/OneDrive/Desktop/GD32VW553/V1_MQTT_OK/GD32VW55X_Wifi_BLE_SDK/GD32VW55x_RELEASE_V1.0.2/MSDK/wpa_supplicant/src/tls\tlsv1_common.c **** 	verify->sha1_client = crypto_hash_init(CRYPTO_HASH_ALG_SHA1, NULL, 0);
 213:C:/Users/stapi/OneDrive/Desktop/GD32VW553/V1_MQTT_OK/GD32VW55X_Wifi_BLE_SDK/GD32VW55x_RELEASE_V1.0.2/MSDK/wpa_supplicant/src/tls\tlsv1_common.c **** 	verify->sha1_server = crypto_hash_init(CRYPTO_HASH_ALG_SHA1, NULL, 0);
 214:C:/Users/stapi/OneDrive/Desktop/GD32VW553/V1_MQTT_OK/GD32VW55X_Wifi_BLE_SDK/GD32VW55x_RELEASE_V1.0.2/MSDK/wpa_supplicant/src/tls\tlsv1_common.c **** 	verify->sha1_cert = crypto_hash_init(CRYPTO_HASH_ALG_SHA1, NULL, 0);
 215:C:/Users/stapi/OneDrive/Desktop/GD32VW553/V1_MQTT_OK/GD32VW55X_Wifi_BLE_SDK/GD32VW55x_RELEASE_V1.0.2/MSDK/wpa_supplicant/src/tls\tlsv1_common.c **** 	if (verify->md5_client == NULL || verify->md5_server == NULL ||
 216:C:/Users/stapi/OneDrive/Desktop/GD32VW553/V1_MQTT_OK/GD32VW55X_Wifi_BLE_SDK/GD32VW55x_RELEASE_V1.0.2/MSDK/wpa_supplicant/src/tls\tlsv1_common.c **** 	    verify->md5_cert == NULL || verify->sha1_client == NULL ||
 217:C:/Users/stapi/OneDrive/Desktop/GD32VW553/V1_MQTT_OK/GD32VW55X_Wifi_BLE_SDK/GD32VW55x_RELEASE_V1.0.2/MSDK/wpa_supplicant/src/tls\tlsv1_common.c **** 	    verify->sha1_server == NULL || verify->sha1_cert == NULL) {
 218:C:/Users/stapi/OneDrive/Desktop/GD32VW553/V1_MQTT_OK/GD32VW55X_Wifi_BLE_SDK/GD32VW55x_RELEASE_V1.0.2/MSDK/wpa_supplicant/src/tls\tlsv1_common.c **** 		tls_verify_hash_free(verify);
 219:C:/Users/stapi/OneDrive/Desktop/GD32VW553/V1_MQTT_OK/GD32VW55X_Wifi_BLE_SDK/GD32VW55x_RELEASE_V1.0.2/MSDK/wpa_supplicant/src/tls\tlsv1_common.c **** 		return -1;
 220:C:/Users/stapi/OneDrive/Desktop/GD32VW553/V1_MQTT_OK/GD32VW55X_Wifi_BLE_SDK/GD32VW55x_RELEASE_V1.0.2/MSDK/wpa_supplicant/src/tls\tlsv1_common.c **** 	}
 221:C:/Users/stapi/OneDrive/Desktop/GD32VW553/V1_MQTT_OK/GD32VW55X_Wifi_BLE_SDK/GD32VW55x_RELEASE_V1.0.2/MSDK/wpa_supplicant/src/tls\tlsv1_common.c **** #ifdef CONFIG_TLSV12
 222:C:/Users/stapi/OneDrive/Desktop/GD32VW553/V1_MQTT_OK/GD32VW55X_Wifi_BLE_SDK/GD32VW55x_RELEASE_V1.0.2/MSDK/wpa_supplicant/src/tls\tlsv1_common.c **** 	verify->sha256_client = crypto_hash_init(CRYPTO_HASH_ALG_SHA256, NULL,
 223:C:/Users/stapi/OneDrive/Desktop/GD32VW553/V1_MQTT_OK/GD32VW55X_Wifi_BLE_SDK/GD32VW55x_RELEASE_V1.0.2/MSDK/wpa_supplicant/src/tls\tlsv1_common.c **** 						 0);
 224:C:/Users/stapi/OneDrive/Desktop/GD32VW553/V1_MQTT_OK/GD32VW55X_Wifi_BLE_SDK/GD32VW55x_RELEASE_V1.0.2/MSDK/wpa_supplicant/src/tls\tlsv1_common.c **** 	verify->sha256_server = crypto_hash_init(CRYPTO_HASH_ALG_SHA256, NULL,
 225:C:/Users/stapi/OneDrive/Desktop/GD32VW553/V1_MQTT_OK/GD32VW55X_Wifi_BLE_SDK/GD32VW55x_RELEASE_V1.0.2/MSDK/wpa_supplicant/src/tls\tlsv1_common.c **** 						 0);
 226:C:/Users/stapi/OneDrive/Desktop/GD32VW553/V1_MQTT_OK/GD32VW55X_Wifi_BLE_SDK/GD32VW55x_RELEASE_V1.0.2/MSDK/wpa_supplicant/src/tls\tlsv1_common.c **** 	verify->sha256_cert = crypto_hash_init(CRYPTO_HASH_ALG_SHA256, NULL,
 227:C:/Users/stapi/OneDrive/Desktop/GD32VW553/V1_MQTT_OK/GD32VW55X_Wifi_BLE_SDK/GD32VW55x_RELEASE_V1.0.2/MSDK/wpa_supplicant/src/tls\tlsv1_common.c **** 					       0);
 228:C:/Users/stapi/OneDrive/Desktop/GD32VW553/V1_MQTT_OK/GD32VW55X_Wifi_BLE_SDK/GD32VW55x_RELEASE_V1.0.2/MSDK/wpa_supplicant/src/tls\tlsv1_common.c **** 	if (verify->sha256_client == NULL || verify->sha256_server == NULL ||
 229:C:/Users/stapi/OneDrive/Desktop/GD32VW553/V1_MQTT_OK/GD32VW55X_Wifi_BLE_SDK/GD32VW55x_RELEASE_V1.0.2/MSDK/wpa_supplicant/src/tls\tlsv1_common.c **** 	    verify->sha256_cert == NULL) {
 230:C:/Users/stapi/OneDrive/Desktop/GD32VW553/V1_MQTT_OK/GD32VW55X_Wifi_BLE_SDK/GD32VW55x_RELEASE_V1.0.2/MSDK/wpa_supplicant/src/tls\tlsv1_common.c **** 		tls_verify_hash_free(verify);
 231:C:/Users/stapi/OneDrive/Desktop/GD32VW553/V1_MQTT_OK/GD32VW55X_Wifi_BLE_SDK/GD32VW55x_RELEASE_V1.0.2/MSDK/wpa_supplicant/src/tls\tlsv1_common.c **** 		return -1;
 232:C:/Users/stapi/OneDrive/Desktop/GD32VW553/V1_MQTT_OK/GD32VW55X_Wifi_BLE_SDK/GD32VW55x_RELEASE_V1.0.2/MSDK/wpa_supplicant/src/tls\tlsv1_common.c **** 	}
 233:C:/Users/stapi/OneDrive/Desktop/GD32VW553/V1_MQTT_OK/GD32VW55X_Wifi_BLE_SDK/GD32VW55x_RELEASE_V1.0.2/MSDK/wpa_supplicant/src/tls\tlsv1_common.c **** #endif /* CONFIG_TLSV12 */
 234:C:/Users/stapi/OneDrive/Desktop/GD32VW553/V1_MQTT_OK/GD32VW55X_Wifi_BLE_SDK/GD32VW55x_RELEASE_V1.0.2/MSDK/wpa_supplicant/src/tls\tlsv1_common.c **** 	return 0;
 235:C:/Users/stapi/OneDrive/Desktop/GD32VW553/V1_MQTT_OK/GD32VW55X_Wifi_BLE_SDK/GD32VW55x_RELEASE_V1.0.2/MSDK/wpa_supplicant/src/tls\tlsv1_common.c **** }
 236:C:/Users/stapi/OneDrive/Desktop/GD32VW553/V1_MQTT_OK/GD32VW55X_Wifi_BLE_SDK/GD32VW55x_RELEASE_V1.0.2/MSDK/wpa_supplicant/src/tls\tlsv1_common.c **** 
 237:C:/Users/stapi/OneDrive/Desktop/GD32VW553/V1_MQTT_OK/GD32VW55X_Wifi_BLE_SDK/GD32VW55x_RELEASE_V1.0.2/MSDK/wpa_supplicant/src/tls\tlsv1_common.c **** 
 238:C:/Users/stapi/OneDrive/Desktop/GD32VW553/V1_MQTT_OK/GD32VW55X_Wifi_BLE_SDK/GD32VW55x_RELEASE_V1.0.2/MSDK/wpa_supplicant/src/tls\tlsv1_common.c **** void tls_verify_hash_add(struct tls_verify_hash *verify, const u8 *buf,
 239:C:/Users/stapi/OneDrive/Desktop/GD32VW553/V1_MQTT_OK/GD32VW55X_Wifi_BLE_SDK/GD32VW55x_RELEASE_V1.0.2/MSDK/wpa_supplicant/src/tls\tlsv1_common.c **** 			 size_t len)
 240:C:/Users/stapi/OneDrive/Desktop/GD32VW553/V1_MQTT_OK/GD32VW55X_Wifi_BLE_SDK/GD32VW55x_RELEASE_V1.0.2/MSDK/wpa_supplicant/src/tls\tlsv1_common.c **** {
 283              		.loc 1 240 1
 284              		.cfi_startproc
 285              	.LVL29:
 286 0000 17030000 		call	t0,__riscv_save_3
 286      E7020300 
 287              		.cfi_offset 18, -16
 288              		.cfi_offset 9, -12
 289              		.cfi_offset 8, -8
 290              		.cfi_offset 1, -4
 291              		.cfi_def_cfa_offset 16
 241:C:/Users/stapi/OneDrive/Desktop/GD32VW553/V1_MQTT_OK/GD32VW55X_Wifi_BLE_SDK/GD32VW55x_RELEASE_V1.0.2/MSDK/wpa_supplicant/src/tls\tlsv1_common.c **** 	if (verify->md5_client && verify->sha1_client) {
 292              		.loc 1 241 2
 240:C:/Users/stapi/OneDrive/Desktop/GD32VW553/V1_MQTT_OK/GD32VW55X_Wifi_BLE_SDK/GD32VW55x_RELEASE_V1.0.2/MSDK/wpa_supplicant/src/tls\tlsv1_common.c **** 	if (verify->md5_client && verify->sha1_client) {
 293              		.loc 1 240 1 is_stmt 0
 294 0008 2A84     		mv	s0,a0
 295              		.loc 1 241 12
 296 000a 0841     		lw	a0,0(a0)
 297              	.LVL30:
 240:C:/Users/stapi/OneDrive/Desktop/GD32VW553/V1_MQTT_OK/GD32VW55X_Wifi_BLE_SDK/GD32VW55x_RELEASE_V1.0.2/MSDK/wpa_supplicant/src/tls\tlsv1_common.c **** 	if (verify->md5_client && verify->sha1_client) {
 298              		.loc 1 240 1
 299 000c AE84     		mv	s1,a1
 300 000e 3289     		mv	s2,a2
 301              		.loc 1 241 5
 302 0010 11CD     		beq	a0,zero,.L24
 303              		.loc 1 241 25 discriminator 1
 304 0012 5C40     		lw	a5,4(s0)
 305 0014 81CF     		beq	a5,zero,.L24
 242:C:/Users/stapi/OneDrive/Desktop/GD32VW553/V1_MQTT_OK/GD32VW55X_Wifi_BLE_SDK/GD32VW55x_RELEASE_V1.0.2/MSDK/wpa_supplicant/src/tls\tlsv1_common.c **** 		crypto_hash_update(verify->md5_client, buf, len);
 306              		.loc 1 242 3 is_stmt 1
 307 0016 97000000 		call	crypto_hash_update
 307      E7800000 
 308              	.LVL31:
 243:C:/Users/stapi/OneDrive/Desktop/GD32VW553/V1_MQTT_OK/GD32VW55X_Wifi_BLE_SDK/GD32VW55x_RELEASE_V1.0.2/MSDK/wpa_supplicant/src/tls\tlsv1_common.c **** 		crypto_hash_update(verify->sha1_client, buf, len);
 309              		.loc 1 243 3
 310 001e 4840     		lw	a0,4(s0)
 311 0020 4A86     		mv	a2,s2
 312 0022 A685     		mv	a1,s1
 313 0024 97000000 		call	crypto_hash_update
 313      E7800000 
 314              	.LVL32:
 315              	.L24:
 244:C:/Users/stapi/OneDrive/Desktop/GD32VW553/V1_MQTT_OK/GD32VW55X_Wifi_BLE_SDK/GD32VW55x_RELEASE_V1.0.2/MSDK/wpa_supplicant/src/tls\tlsv1_common.c **** 	}
 245:C:/Users/stapi/OneDrive/Desktop/GD32VW553/V1_MQTT_OK/GD32VW55X_Wifi_BLE_SDK/GD32VW55x_RELEASE_V1.0.2/MSDK/wpa_supplicant/src/tls\tlsv1_common.c **** 	if (verify->md5_server && verify->sha1_server) {
 316              		.loc 1 245 2
 317              		.loc 1 245 12 is_stmt 0
 318 002c 4844     		lw	a0,12(s0)
 319              		.loc 1 245 5
 320 002e 05C1     		beq	a0,zero,.L25
 321              		.loc 1 245 25 discriminator 1
 322 0030 1C48     		lw	a5,16(s0)
 323 0032 91CF     		beq	a5,zero,.L25
 246:C:/Users/stapi/OneDrive/Desktop/GD32VW553/V1_MQTT_OK/GD32VW55X_Wifi_BLE_SDK/GD32VW55x_RELEASE_V1.0.2/MSDK/wpa_supplicant/src/tls\tlsv1_common.c **** 		crypto_hash_update(verify->md5_server, buf, len);
 324              		.loc 1 246 3 is_stmt 1
 325 0034 4A86     		mv	a2,s2
 326 0036 A685     		mv	a1,s1
 327 0038 97000000 		call	crypto_hash_update
 327      E7800000 
 328              	.LVL33:
 247:C:/Users/stapi/OneDrive/Desktop/GD32VW553/V1_MQTT_OK/GD32VW55X_Wifi_BLE_SDK/GD32VW55x_RELEASE_V1.0.2/MSDK/wpa_supplicant/src/tls\tlsv1_common.c **** 		crypto_hash_update(verify->sha1_server, buf, len);
 329              		.loc 1 247 3
 330 0040 0848     		lw	a0,16(s0)
 331 0042 4A86     		mv	a2,s2
 332 0044 A685     		mv	a1,s1
 333 0046 97000000 		call	crypto_hash_update
 333      E7800000 
 334              	.LVL34:
 335              	.L25:
 248:C:/Users/stapi/OneDrive/Desktop/GD32VW553/V1_MQTT_OK/GD32VW55X_Wifi_BLE_SDK/GD32VW55x_RELEASE_V1.0.2/MSDK/wpa_supplicant/src/tls\tlsv1_common.c **** 	}
 249:C:/Users/stapi/OneDrive/Desktop/GD32VW553/V1_MQTT_OK/GD32VW55X_Wifi_BLE_SDK/GD32VW55x_RELEASE_V1.0.2/MSDK/wpa_supplicant/src/tls\tlsv1_common.c **** 	if (verify->md5_cert && verify->sha1_cert) {
 336              		.loc 1 249 2
 337              		.loc 1 249 12 is_stmt 0
 338 004e 084C     		lw	a0,24(s0)
 339              		.loc 1 249 5
 340 0050 05C1     		beq	a0,zero,.L23
 341              		.loc 1 249 23 discriminator 1
 342 0052 5C4C     		lw	a5,28(s0)
 343 0054 91CF     		beq	a5,zero,.L23
 250:C:/Users/stapi/OneDrive/Desktop/GD32VW553/V1_MQTT_OK/GD32VW55X_Wifi_BLE_SDK/GD32VW55x_RELEASE_V1.0.2/MSDK/wpa_supplicant/src/tls\tlsv1_common.c **** 		crypto_hash_update(verify->md5_cert, buf, len);
 344              		.loc 1 250 3 is_stmt 1
 345 0056 4A86     		mv	a2,s2
 346 0058 A685     		mv	a1,s1
 347 005a 97000000 		call	crypto_hash_update
 347      E7800000 
 348              	.LVL35:
 251:C:/Users/stapi/OneDrive/Desktop/GD32VW553/V1_MQTT_OK/GD32VW55X_Wifi_BLE_SDK/GD32VW55x_RELEASE_V1.0.2/MSDK/wpa_supplicant/src/tls\tlsv1_common.c **** 		crypto_hash_update(verify->sha1_cert, buf, len);
 349              		.loc 1 251 3
 350 0062 484C     		lw	a0,28(s0)
 351 0064 4A86     		mv	a2,s2
 352 0066 A685     		mv	a1,s1
 353 0068 97000000 		call	crypto_hash_update
 353      E7800000 
 354              	.LVL36:
 355              	.L23:
 252:C:/Users/stapi/OneDrive/Desktop/GD32VW553/V1_MQTT_OK/GD32VW55X_Wifi_BLE_SDK/GD32VW55x_RELEASE_V1.0.2/MSDK/wpa_supplicant/src/tls\tlsv1_common.c **** 	}
 253:C:/Users/stapi/OneDrive/Desktop/GD32VW553/V1_MQTT_OK/GD32VW55X_Wifi_BLE_SDK/GD32VW55x_RELEASE_V1.0.2/MSDK/wpa_supplicant/src/tls\tlsv1_common.c **** #ifdef CONFIG_TLSV12
 254:C:/Users/stapi/OneDrive/Desktop/GD32VW553/V1_MQTT_OK/GD32VW55X_Wifi_BLE_SDK/GD32VW55x_RELEASE_V1.0.2/MSDK/wpa_supplicant/src/tls\tlsv1_common.c **** 	if (verify->sha256_client)
 255:C:/Users/stapi/OneDrive/Desktop/GD32VW553/V1_MQTT_OK/GD32VW55X_Wifi_BLE_SDK/GD32VW55x_RELEASE_V1.0.2/MSDK/wpa_supplicant/src/tls\tlsv1_common.c **** 		crypto_hash_update(verify->sha256_client, buf, len);
 256:C:/Users/stapi/OneDrive/Desktop/GD32VW553/V1_MQTT_OK/GD32VW55X_Wifi_BLE_SDK/GD32VW55x_RELEASE_V1.0.2/MSDK/wpa_supplicant/src/tls\tlsv1_common.c **** 	if (verify->sha256_server)
 257:C:/Users/stapi/OneDrive/Desktop/GD32VW553/V1_MQTT_OK/GD32VW55X_Wifi_BLE_SDK/GD32VW55x_RELEASE_V1.0.2/MSDK/wpa_supplicant/src/tls\tlsv1_common.c **** 		crypto_hash_update(verify->sha256_server, buf, len);
 258:C:/Users/stapi/OneDrive/Desktop/GD32VW553/V1_MQTT_OK/GD32VW55X_Wifi_BLE_SDK/GD32VW55x_RELEASE_V1.0.2/MSDK/wpa_supplicant/src/tls\tlsv1_common.c **** 	if (verify->sha256_cert)
 259:C:/Users/stapi/OneDrive/Desktop/GD32VW553/V1_MQTT_OK/GD32VW55X_Wifi_BLE_SDK/GD32VW55x_RELEASE_V1.0.2/MSDK/wpa_supplicant/src/tls\tlsv1_common.c **** 		crypto_hash_update(verify->sha256_cert, buf, len);
 260:C:/Users/stapi/OneDrive/Desktop/GD32VW553/V1_MQTT_OK/GD32VW55X_Wifi_BLE_SDK/GD32VW55x_RELEASE_V1.0.2/MSDK/wpa_supplicant/src/tls\tlsv1_common.c **** #endif /* CONFIG_TLSV12 */
 261:C:/Users/stapi/OneDrive/Desktop/GD32VW553/V1_MQTT_OK/GD32VW55X_Wifi_BLE_SDK/GD32VW55x_RELEASE_V1.0.2/MSDK/wpa_supplicant/src/tls\tlsv1_common.c **** }
 356              		.loc 1 261 1 is_stmt 0
 357 0070 17030000 		tail	__riscv_restore_3
 357      67000300 
 358              		.cfi_restore 18
 359              		.cfi_restore 9
 360              		.cfi_restore 8
 361              		.cfi_restore 1
 362              		.cfi_def_cfa_offset 0
 363              		.cfi_endproc
 364              	.LFE91:
 366              		.section	.text.tls_verify_hash_free,"ax",@progbits
 367              		.align	1
 368              		.globl	tls_verify_hash_free
 370              	tls_verify_hash_free:
 371              	.LFB92:
 262:C:/Users/stapi/OneDrive/Desktop/GD32VW553/V1_MQTT_OK/GD32VW55X_Wifi_BLE_SDK/GD32VW55x_RELEASE_V1.0.2/MSDK/wpa_supplicant/src/tls\tlsv1_common.c **** 
 263:C:/Users/stapi/OneDrive/Desktop/GD32VW553/V1_MQTT_OK/GD32VW55X_Wifi_BLE_SDK/GD32VW55x_RELEASE_V1.0.2/MSDK/wpa_supplicant/src/tls\tlsv1_common.c **** 
 264:C:/Users/stapi/OneDrive/Desktop/GD32VW553/V1_MQTT_OK/GD32VW55X_Wifi_BLE_SDK/GD32VW55x_RELEASE_V1.0.2/MSDK/wpa_supplicant/src/tls\tlsv1_common.c **** void tls_verify_hash_free(struct tls_verify_hash *verify)
 265:C:/Users/stapi/OneDrive/Desktop/GD32VW553/V1_MQTT_OK/GD32VW55X_Wifi_BLE_SDK/GD32VW55x_RELEASE_V1.0.2/MSDK/wpa_supplicant/src/tls\tlsv1_common.c **** {
 372              		.loc 1 265 1 is_stmt 1
 373              		.cfi_startproc
 374              	.LVL37:
 375 0000 17030000 		call	t0,__riscv_save_1
 375      E7020300 
 376              		.cfi_offset 8, -8
 377              		.cfi_offset 1, -4
 378              		.cfi_def_cfa_offset 16
 266:C:/Users/stapi/OneDrive/Desktop/GD32VW553/V1_MQTT_OK/GD32VW55X_Wifi_BLE_SDK/GD32VW55x_RELEASE_V1.0.2/MSDK/wpa_supplicant/src/tls\tlsv1_common.c **** 	crypto_hash_finish(verify->md5_client, NULL, NULL);
 379              		.loc 1 266 2
 265:C:/Users/stapi/OneDrive/Desktop/GD32VW553/V1_MQTT_OK/GD32VW55X_Wifi_BLE_SDK/GD32VW55x_RELEASE_V1.0.2/MSDK/wpa_supplicant/src/tls\tlsv1_common.c **** 	crypto_hash_finish(verify->md5_client, NULL, NULL);
 380              		.loc 1 265 1 is_stmt 0
 381 0008 2A84     		mv	s0,a0
 382              		.loc 1 266 2
 383 000a 0841     		lw	a0,0(a0)
 384              	.LVL38:
 385 000c 0146     		li	a2,0
 386 000e 8145     		li	a1,0
 387 0010 97000000 		call	crypto_hash_finish
 387      E7800000 
 388              	.LVL39:
 267:C:/Users/stapi/OneDrive/Desktop/GD32VW553/V1_MQTT_OK/GD32VW55X_Wifi_BLE_SDK/GD32VW55x_RELEASE_V1.0.2/MSDK/wpa_supplicant/src/tls\tlsv1_common.c **** 	crypto_hash_finish(verify->md5_server, NULL, NULL);
 389              		.loc 1 267 2 is_stmt 1
 390 0018 4844     		lw	a0,12(s0)
 391 001a 0146     		li	a2,0
 392 001c 8145     		li	a1,0
 393 001e 97000000 		call	crypto_hash_finish
 393      E7800000 
 394              	.LVL40:
 268:C:/Users/stapi/OneDrive/Desktop/GD32VW553/V1_MQTT_OK/GD32VW55X_Wifi_BLE_SDK/GD32VW55x_RELEASE_V1.0.2/MSDK/wpa_supplicant/src/tls\tlsv1_common.c **** 	crypto_hash_finish(verify->md5_cert, NULL, NULL);
 395              		.loc 1 268 2
 396 0026 084C     		lw	a0,24(s0)
 397 0028 0146     		li	a2,0
 398 002a 8145     		li	a1,0
 399 002c 97000000 		call	crypto_hash_finish
 399      E7800000 
 400              	.LVL41:
 269:C:/Users/stapi/OneDrive/Desktop/GD32VW553/V1_MQTT_OK/GD32VW55X_Wifi_BLE_SDK/GD32VW55x_RELEASE_V1.0.2/MSDK/wpa_supplicant/src/tls\tlsv1_common.c **** 	crypto_hash_finish(verify->sha1_client, NULL, NULL);
 401              		.loc 1 269 2
 402 0034 4840     		lw	a0,4(s0)
 403 0036 0146     		li	a2,0
 404 0038 8145     		li	a1,0
 405 003a 97000000 		call	crypto_hash_finish
 405      E7800000 
 406              	.LVL42:
 270:C:/Users/stapi/OneDrive/Desktop/GD32VW553/V1_MQTT_OK/GD32VW55X_Wifi_BLE_SDK/GD32VW55x_RELEASE_V1.0.2/MSDK/wpa_supplicant/src/tls\tlsv1_common.c **** 	crypto_hash_finish(verify->sha1_server, NULL, NULL);
 407              		.loc 1 270 2
 408 0042 0848     		lw	a0,16(s0)
 409 0044 0146     		li	a2,0
 410 0046 8145     		li	a1,0
 411 0048 97000000 		call	crypto_hash_finish
 411      E7800000 
 412              	.LVL43:
 271:C:/Users/stapi/OneDrive/Desktop/GD32VW553/V1_MQTT_OK/GD32VW55X_Wifi_BLE_SDK/GD32VW55x_RELEASE_V1.0.2/MSDK/wpa_supplicant/src/tls\tlsv1_common.c **** 	crypto_hash_finish(verify->sha1_cert, NULL, NULL);
 413              		.loc 1 271 2
 414 0050 484C     		lw	a0,28(s0)
 415 0052 0146     		li	a2,0
 416 0054 8145     		li	a1,0
 417 0056 97000000 		call	crypto_hash_finish
 417      E7800000 
 418              	.LVL44:
 272:C:/Users/stapi/OneDrive/Desktop/GD32VW553/V1_MQTT_OK/GD32VW55X_Wifi_BLE_SDK/GD32VW55x_RELEASE_V1.0.2/MSDK/wpa_supplicant/src/tls\tlsv1_common.c **** 	verify->md5_client = NULL;
 419              		.loc 1 272 2
 420              		.loc 1 272 21 is_stmt 0
 421 005e 23200400 		sw	zero,0(s0)
 273:C:/Users/stapi/OneDrive/Desktop/GD32VW553/V1_MQTT_OK/GD32VW55X_Wifi_BLE_SDK/GD32VW55x_RELEASE_V1.0.2/MSDK/wpa_supplicant/src/tls\tlsv1_common.c **** 	verify->md5_server = NULL;
 422              		.loc 1 273 2 is_stmt 1
 423              		.loc 1 273 21 is_stmt 0
 424 0062 23260400 		sw	zero,12(s0)
 274:C:/Users/stapi/OneDrive/Desktop/GD32VW553/V1_MQTT_OK/GD32VW55X_Wifi_BLE_SDK/GD32VW55x_RELEASE_V1.0.2/MSDK/wpa_supplicant/src/tls\tlsv1_common.c **** 	verify->md5_cert = NULL;
 425              		.loc 1 274 2 is_stmt 1
 426              		.loc 1 274 19 is_stmt 0
 427 0066 232C0400 		sw	zero,24(s0)
 275:C:/Users/stapi/OneDrive/Desktop/GD32VW553/V1_MQTT_OK/GD32VW55X_Wifi_BLE_SDK/GD32VW55x_RELEASE_V1.0.2/MSDK/wpa_supplicant/src/tls\tlsv1_common.c **** 	verify->sha1_client = NULL;
 428              		.loc 1 275 2 is_stmt 1
 429              		.loc 1 275 22 is_stmt 0
 430 006a 23220400 		sw	zero,4(s0)
 276:C:/Users/stapi/OneDrive/Desktop/GD32VW553/V1_MQTT_OK/GD32VW55X_Wifi_BLE_SDK/GD32VW55x_RELEASE_V1.0.2/MSDK/wpa_supplicant/src/tls\tlsv1_common.c **** 	verify->sha1_server = NULL;
 431              		.loc 1 276 2 is_stmt 1
 432              		.loc 1 276 22 is_stmt 0
 433 006e 23280400 		sw	zero,16(s0)
 277:C:/Users/stapi/OneDrive/Desktop/GD32VW553/V1_MQTT_OK/GD32VW55X_Wifi_BLE_SDK/GD32VW55x_RELEASE_V1.0.2/MSDK/wpa_supplicant/src/tls\tlsv1_common.c **** 	verify->sha1_cert = NULL;
 434              		.loc 1 277 2 is_stmt 1
 435              		.loc 1 277 20 is_stmt 0
 436 0072 232E0400 		sw	zero,28(s0)
 278:C:/Users/stapi/OneDrive/Desktop/GD32VW553/V1_MQTT_OK/GD32VW55X_Wifi_BLE_SDK/GD32VW55x_RELEASE_V1.0.2/MSDK/wpa_supplicant/src/tls\tlsv1_common.c **** #ifdef CONFIG_TLSV12
 279:C:/Users/stapi/OneDrive/Desktop/GD32VW553/V1_MQTT_OK/GD32VW55X_Wifi_BLE_SDK/GD32VW55x_RELEASE_V1.0.2/MSDK/wpa_supplicant/src/tls\tlsv1_common.c **** 	crypto_hash_finish(verify->sha256_client, NULL, NULL);
 280:C:/Users/stapi/OneDrive/Desktop/GD32VW553/V1_MQTT_OK/GD32VW55X_Wifi_BLE_SDK/GD32VW55x_RELEASE_V1.0.2/MSDK/wpa_supplicant/src/tls\tlsv1_common.c **** 	crypto_hash_finish(verify->sha256_server, NULL, NULL);
 281:C:/Users/stapi/OneDrive/Desktop/GD32VW553/V1_MQTT_OK/GD32VW55X_Wifi_BLE_SDK/GD32VW55x_RELEASE_V1.0.2/MSDK/wpa_supplicant/src/tls\tlsv1_common.c **** 	crypto_hash_finish(verify->sha256_cert, NULL, NULL);
 282:C:/Users/stapi/OneDrive/Desktop/GD32VW553/V1_MQTT_OK/GD32VW55X_Wifi_BLE_SDK/GD32VW55x_RELEASE_V1.0.2/MSDK/wpa_supplicant/src/tls\tlsv1_common.c **** 	verify->sha256_client = NULL;
 283:C:/Users/stapi/OneDrive/Desktop/GD32VW553/V1_MQTT_OK/GD32VW55X_Wifi_BLE_SDK/GD32VW55x_RELEASE_V1.0.2/MSDK/wpa_supplicant/src/tls\tlsv1_common.c **** 	verify->sha256_server = NULL;
 284:C:/Users/stapi/OneDrive/Desktop/GD32VW553/V1_MQTT_OK/GD32VW55X_Wifi_BLE_SDK/GD32VW55x_RELEASE_V1.0.2/MSDK/wpa_supplicant/src/tls\tlsv1_common.c **** 	verify->sha256_cert = NULL;
 285:C:/Users/stapi/OneDrive/Desktop/GD32VW553/V1_MQTT_OK/GD32VW55X_Wifi_BLE_SDK/GD32VW55x_RELEASE_V1.0.2/MSDK/wpa_supplicant/src/tls\tlsv1_common.c **** #endif /* CONFIG_TLSV12 */
 286:C:/Users/stapi/OneDrive/Desktop/GD32VW553/V1_MQTT_OK/GD32VW55X_Wifi_BLE_SDK/GD32VW55x_RELEASE_V1.0.2/MSDK/wpa_supplicant/src/tls\tlsv1_common.c **** }
 437              		.loc 1 286 1
 438 0076 17030000 		tail	__riscv_restore_1
 438      67000300 
 439              		.cfi_restore 8
 440              		.cfi_restore 1
 441              		.cfi_def_cfa_offset 0
 442              		.cfi_endproc
 443              	.LFE92:
 445              		.section	.text.tls_verify_hash_init,"ax",@progbits
 446              		.align	1
 447              		.globl	tls_verify_hash_init
 449              	tls_verify_hash_init:
 450              	.LFB90:
 207:C:/Users/stapi/OneDrive/Desktop/GD32VW553/V1_MQTT_OK/GD32VW55X_Wifi_BLE_SDK/GD32VW55x_RELEASE_V1.0.2/MSDK/wpa_supplicant/src/tls\tlsv1_common.c **** 	tls_verify_hash_free(verify);
 451              		.loc 1 207 1 is_stmt 1
 452              		.cfi_startproc
 453              	.LVL45:
 454 0000 17030000 		call	t0,__riscv_save_1
 454      E7020300 
 455              		.cfi_offset 8, -8
 456              		.cfi_offset 1, -4
 457              		.cfi_def_cfa_offset 16
 208:C:/Users/stapi/OneDrive/Desktop/GD32VW553/V1_MQTT_OK/GD32VW55X_Wifi_BLE_SDK/GD32VW55x_RELEASE_V1.0.2/MSDK/wpa_supplicant/src/tls\tlsv1_common.c **** 	verify->md5_client = crypto_hash_init(CRYPTO_HASH_ALG_MD5, NULL, 0);
 458              		.loc 1 208 2
 207:C:/Users/stapi/OneDrive/Desktop/GD32VW553/V1_MQTT_OK/GD32VW55X_Wifi_BLE_SDK/GD32VW55x_RELEASE_V1.0.2/MSDK/wpa_supplicant/src/tls\tlsv1_common.c **** 	tls_verify_hash_free(verify);
 459              		.loc 1 207 1 is_stmt 0
 460 0008 2A84     		mv	s0,a0
 208:C:/Users/stapi/OneDrive/Desktop/GD32VW553/V1_MQTT_OK/GD32VW55X_Wifi_BLE_SDK/GD32VW55x_RELEASE_V1.0.2/MSDK/wpa_supplicant/src/tls\tlsv1_common.c **** 	verify->md5_client = crypto_hash_init(CRYPTO_HASH_ALG_MD5, NULL, 0);
 461              		.loc 1 208 2
 462 000a 97000000 		call	tls_verify_hash_free
 462      E7800000 
 463              	.LVL46:
 209:C:/Users/stapi/OneDrive/Desktop/GD32VW553/V1_MQTT_OK/GD32VW55X_Wifi_BLE_SDK/GD32VW55x_RELEASE_V1.0.2/MSDK/wpa_supplicant/src/tls\tlsv1_common.c **** 	verify->md5_server = crypto_hash_init(CRYPTO_HASH_ALG_MD5, NULL, 0);
 464              		.loc 1 209 2 is_stmt 1
 209:C:/Users/stapi/OneDrive/Desktop/GD32VW553/V1_MQTT_OK/GD32VW55X_Wifi_BLE_SDK/GD32VW55x_RELEASE_V1.0.2/MSDK/wpa_supplicant/src/tls\tlsv1_common.c **** 	verify->md5_server = crypto_hash_init(CRYPTO_HASH_ALG_MD5, NULL, 0);
 465              		.loc 1 209 23 is_stmt 0
 466 0012 0146     		li	a2,0
 467 0014 8145     		li	a1,0
 468 0016 0145     		li	a0,0
 469 0018 97000000 		call	crypto_hash_init
 469      E7800000 
 470              	.LVL47:
 209:C:/Users/stapi/OneDrive/Desktop/GD32VW553/V1_MQTT_OK/GD32VW55X_Wifi_BLE_SDK/GD32VW55x_RELEASE_V1.0.2/MSDK/wpa_supplicant/src/tls\tlsv1_common.c **** 	verify->md5_server = crypto_hash_init(CRYPTO_HASH_ALG_MD5, NULL, 0);
 471              		.loc 1 209 21
 472 0020 08C0     		sw	a0,0(s0)
 210:C:/Users/stapi/OneDrive/Desktop/GD32VW553/V1_MQTT_OK/GD32VW55X_Wifi_BLE_SDK/GD32VW55x_RELEASE_V1.0.2/MSDK/wpa_supplicant/src/tls\tlsv1_common.c **** 	verify->md5_cert = crypto_hash_init(CRYPTO_HASH_ALG_MD5, NULL, 0);
 473              		.loc 1 210 2 is_stmt 1
 210:C:/Users/stapi/OneDrive/Desktop/GD32VW553/V1_MQTT_OK/GD32VW55X_Wifi_BLE_SDK/GD32VW55x_RELEASE_V1.0.2/MSDK/wpa_supplicant/src/tls\tlsv1_common.c **** 	verify->md5_cert = crypto_hash_init(CRYPTO_HASH_ALG_MD5, NULL, 0);
 474              		.loc 1 210 23 is_stmt 0
 475 0022 0146     		li	a2,0
 476 0024 8145     		li	a1,0
 477 0026 0145     		li	a0,0
 478 0028 97000000 		call	crypto_hash_init
 478      E7800000 
 479              	.LVL48:
 210:C:/Users/stapi/OneDrive/Desktop/GD32VW553/V1_MQTT_OK/GD32VW55X_Wifi_BLE_SDK/GD32VW55x_RELEASE_V1.0.2/MSDK/wpa_supplicant/src/tls\tlsv1_common.c **** 	verify->md5_cert = crypto_hash_init(CRYPTO_HASH_ALG_MD5, NULL, 0);
 480              		.loc 1 210 21
 481 0030 48C4     		sw	a0,12(s0)
 211:C:/Users/stapi/OneDrive/Desktop/GD32VW553/V1_MQTT_OK/GD32VW55X_Wifi_BLE_SDK/GD32VW55x_RELEASE_V1.0.2/MSDK/wpa_supplicant/src/tls\tlsv1_common.c **** 	verify->sha1_client = crypto_hash_init(CRYPTO_HASH_ALG_SHA1, NULL, 0);
 482              		.loc 1 211 2 is_stmt 1
 211:C:/Users/stapi/OneDrive/Desktop/GD32VW553/V1_MQTT_OK/GD32VW55X_Wifi_BLE_SDK/GD32VW55x_RELEASE_V1.0.2/MSDK/wpa_supplicant/src/tls\tlsv1_common.c **** 	verify->sha1_client = crypto_hash_init(CRYPTO_HASH_ALG_SHA1, NULL, 0);
 483              		.loc 1 211 21 is_stmt 0
 484 0032 0146     		li	a2,0
 485 0034 8145     		li	a1,0
 486 0036 0145     		li	a0,0
 487 0038 97000000 		call	crypto_hash_init
 487      E7800000 
 488              	.LVL49:
 211:C:/Users/stapi/OneDrive/Desktop/GD32VW553/V1_MQTT_OK/GD32VW55X_Wifi_BLE_SDK/GD32VW55x_RELEASE_V1.0.2/MSDK/wpa_supplicant/src/tls\tlsv1_common.c **** 	verify->sha1_client = crypto_hash_init(CRYPTO_HASH_ALG_SHA1, NULL, 0);
 489              		.loc 1 211 19
 490 0040 08CC     		sw	a0,24(s0)
 212:C:/Users/stapi/OneDrive/Desktop/GD32VW553/V1_MQTT_OK/GD32VW55X_Wifi_BLE_SDK/GD32VW55x_RELEASE_V1.0.2/MSDK/wpa_supplicant/src/tls\tlsv1_common.c **** 	verify->sha1_server = crypto_hash_init(CRYPTO_HASH_ALG_SHA1, NULL, 0);
 491              		.loc 1 212 2 is_stmt 1
 212:C:/Users/stapi/OneDrive/Desktop/GD32VW553/V1_MQTT_OK/GD32VW55X_Wifi_BLE_SDK/GD32VW55x_RELEASE_V1.0.2/MSDK/wpa_supplicant/src/tls\tlsv1_common.c **** 	verify->sha1_server = crypto_hash_init(CRYPTO_HASH_ALG_SHA1, NULL, 0);
 492              		.loc 1 212 24 is_stmt 0
 493 0042 0146     		li	a2,0
 494 0044 8145     		li	a1,0
 495 0046 0545     		li	a0,1
 496 0048 97000000 		call	crypto_hash_init
 496      E7800000 
 497              	.LVL50:
 212:C:/Users/stapi/OneDrive/Desktop/GD32VW553/V1_MQTT_OK/GD32VW55X_Wifi_BLE_SDK/GD32VW55x_RELEASE_V1.0.2/MSDK/wpa_supplicant/src/tls\tlsv1_common.c **** 	verify->sha1_server = crypto_hash_init(CRYPTO_HASH_ALG_SHA1, NULL, 0);
 498              		.loc 1 212 22
 499 0050 48C0     		sw	a0,4(s0)
 213:C:/Users/stapi/OneDrive/Desktop/GD32VW553/V1_MQTT_OK/GD32VW55X_Wifi_BLE_SDK/GD32VW55x_RELEASE_V1.0.2/MSDK/wpa_supplicant/src/tls\tlsv1_common.c **** 	verify->sha1_cert = crypto_hash_init(CRYPTO_HASH_ALG_SHA1, NULL, 0);
 500              		.loc 1 213 2 is_stmt 1
 213:C:/Users/stapi/OneDrive/Desktop/GD32VW553/V1_MQTT_OK/GD32VW55X_Wifi_BLE_SDK/GD32VW55x_RELEASE_V1.0.2/MSDK/wpa_supplicant/src/tls\tlsv1_common.c **** 	verify->sha1_cert = crypto_hash_init(CRYPTO_HASH_ALG_SHA1, NULL, 0);
 501              		.loc 1 213 24 is_stmt 0
 502 0052 0146     		li	a2,0
 503 0054 8145     		li	a1,0
 504 0056 0545     		li	a0,1
 505 0058 97000000 		call	crypto_hash_init
 505      E7800000 
 506              	.LVL51:
 213:C:/Users/stapi/OneDrive/Desktop/GD32VW553/V1_MQTT_OK/GD32VW55X_Wifi_BLE_SDK/GD32VW55x_RELEASE_V1.0.2/MSDK/wpa_supplicant/src/tls\tlsv1_common.c **** 	verify->sha1_cert = crypto_hash_init(CRYPTO_HASH_ALG_SHA1, NULL, 0);
 507              		.loc 1 213 22
 508 0060 08C8     		sw	a0,16(s0)
 214:C:/Users/stapi/OneDrive/Desktop/GD32VW553/V1_MQTT_OK/GD32VW55X_Wifi_BLE_SDK/GD32VW55x_RELEASE_V1.0.2/MSDK/wpa_supplicant/src/tls\tlsv1_common.c **** 	if (verify->md5_client == NULL || verify->md5_server == NULL ||
 509              		.loc 1 214 2 is_stmt 1
 214:C:/Users/stapi/OneDrive/Desktop/GD32VW553/V1_MQTT_OK/GD32VW55X_Wifi_BLE_SDK/GD32VW55x_RELEASE_V1.0.2/MSDK/wpa_supplicant/src/tls\tlsv1_common.c **** 	if (verify->md5_client == NULL || verify->md5_server == NULL ||
 510              		.loc 1 214 22 is_stmt 0
 511 0062 0146     		li	a2,0
 512 0064 8145     		li	a1,0
 513 0066 0545     		li	a0,1
 514 0068 97000000 		call	crypto_hash_init
 514      E7800000 
 515              	.LVL52:
 215:C:/Users/stapi/OneDrive/Desktop/GD32VW553/V1_MQTT_OK/GD32VW55X_Wifi_BLE_SDK/GD32VW55x_RELEASE_V1.0.2/MSDK/wpa_supplicant/src/tls\tlsv1_common.c **** 	    verify->md5_cert == NULL || verify->sha1_client == NULL ||
 516              		.loc 1 215 5
 517 0070 1840     		lw	a4,0(s0)
 214:C:/Users/stapi/OneDrive/Desktop/GD32VW553/V1_MQTT_OK/GD32VW55X_Wifi_BLE_SDK/GD32VW55x_RELEASE_V1.0.2/MSDK/wpa_supplicant/src/tls\tlsv1_common.c **** 	if (verify->md5_client == NULL || verify->md5_server == NULL ||
 518              		.loc 1 214 20
 519 0072 48CC     		sw	a0,28(s0)
 215:C:/Users/stapi/OneDrive/Desktop/GD32VW553/V1_MQTT_OK/GD32VW55X_Wifi_BLE_SDK/GD32VW55x_RELEASE_V1.0.2/MSDK/wpa_supplicant/src/tls\tlsv1_common.c **** 	    verify->md5_cert == NULL || verify->sha1_client == NULL ||
 520              		.loc 1 215 2 is_stmt 1
 215:C:/Users/stapi/OneDrive/Desktop/GD32VW553/V1_MQTT_OK/GD32VW55X_Wifi_BLE_SDK/GD32VW55x_RELEASE_V1.0.2/MSDK/wpa_supplicant/src/tls\tlsv1_common.c **** 	    verify->md5_cert == NULL || verify->sha1_client == NULL ||
 521              		.loc 1 215 5 is_stmt 0
 522 0074 01CF     		beq	a4,zero,.L49
 215:C:/Users/stapi/OneDrive/Desktop/GD32VW553/V1_MQTT_OK/GD32VW55X_Wifi_BLE_SDK/GD32VW55x_RELEASE_V1.0.2/MSDK/wpa_supplicant/src/tls\tlsv1_common.c **** 	    verify->md5_cert == NULL || verify->sha1_client == NULL ||
 523              		.loc 1 215 33 discriminator 1
 524 0076 5844     		lw	a4,12(s0)
 525 0078 11CB     		beq	a4,zero,.L49
 215:C:/Users/stapi/OneDrive/Desktop/GD32VW553/V1_MQTT_OK/GD32VW55X_Wifi_BLE_SDK/GD32VW55x_RELEASE_V1.0.2/MSDK/wpa_supplicant/src/tls\tlsv1_common.c **** 	    verify->md5_cert == NULL || verify->sha1_client == NULL ||
 526              		.loc 1 215 63 discriminator 2
 527 007a 184C     		lw	a4,24(s0)
 528 007c 01CB     		beq	a4,zero,.L49
 216:C:/Users/stapi/OneDrive/Desktop/GD32VW553/V1_MQTT_OK/GD32VW55X_Wifi_BLE_SDK/GD32VW55x_RELEASE_V1.0.2/MSDK/wpa_supplicant/src/tls\tlsv1_common.c **** 	    verify->sha1_server == NULL || verify->sha1_cert == NULL) {
 529              		.loc 1 216 31
 530 007e 5840     		lw	a4,4(s0)
 531 0080 11C7     		beq	a4,zero,.L49
 216:C:/Users/stapi/OneDrive/Desktop/GD32VW553/V1_MQTT_OK/GD32VW55X_Wifi_BLE_SDK/GD32VW55x_RELEASE_V1.0.2/MSDK/wpa_supplicant/src/tls\tlsv1_common.c **** 	    verify->sha1_server == NULL || verify->sha1_cert == NULL) {
 532              		.loc 1 216 62 discriminator 1
 533 0082 1848     		lw	a4,16(s0)
 534 0084 01C7     		beq	a4,zero,.L49
 535 0086 AA87     		mv	a5,a0
 234:C:/Users/stapi/OneDrive/Desktop/GD32VW553/V1_MQTT_OK/GD32VW55X_Wifi_BLE_SDK/GD32VW55x_RELEASE_V1.0.2/MSDK/wpa_supplicant/src/tls\tlsv1_common.c **** }
 536              		.loc 1 234 9
 537 0088 0145     		li	a0,0
 217:C:/Users/stapi/OneDrive/Desktop/GD32VW553/V1_MQTT_OK/GD32VW55X_Wifi_BLE_SDK/GD32VW55x_RELEASE_V1.0.2/MSDK/wpa_supplicant/src/tls\tlsv1_common.c **** 		tls_verify_hash_free(verify);
 538              		.loc 1 217 34
 539 008a 99E7     		bne	a5,zero,.L48
 540              	.L49:
 218:C:/Users/stapi/OneDrive/Desktop/GD32VW553/V1_MQTT_OK/GD32VW55X_Wifi_BLE_SDK/GD32VW55x_RELEASE_V1.0.2/MSDK/wpa_supplicant/src/tls\tlsv1_common.c **** 		return -1;
 541              		.loc 1 218 3 is_stmt 1
 542 008c 2285     		mv	a0,s0
 543 008e 97000000 		call	tls_verify_hash_free
 543      E7800000 
 544              	.LVL53:
 219:C:/Users/stapi/OneDrive/Desktop/GD32VW553/V1_MQTT_OK/GD32VW55X_Wifi_BLE_SDK/GD32VW55x_RELEASE_V1.0.2/MSDK/wpa_supplicant/src/tls\tlsv1_common.c **** 	}
 545              		.loc 1 219 3
 219:C:/Users/stapi/OneDrive/Desktop/GD32VW553/V1_MQTT_OK/GD32VW55X_Wifi_BLE_SDK/GD32VW55x_RELEASE_V1.0.2/MSDK/wpa_supplicant/src/tls\tlsv1_common.c **** 	}
 546              		.loc 1 219 10 is_stmt 0
 547 0096 7D55     		li	a0,-1
 548              	.L48:
 235:C:/Users/stapi/OneDrive/Desktop/GD32VW553/V1_MQTT_OK/GD32VW55X_Wifi_BLE_SDK/GD32VW55x_RELEASE_V1.0.2/MSDK/wpa_supplicant/src/tls\tlsv1_common.c **** 
 549              		.loc 1 235 1
 550 0098 17030000 		tail	__riscv_restore_1
 550      67000300 
 551              		.cfi_restore 8
 552              		.cfi_restore 1
 553              		.cfi_def_cfa_offset 0
 554              		.cfi_endproc
 555              	.LFE90:
 557              		.section	.text.tls_version_ok,"ax",@progbits
 558              		.align	1
 559              		.globl	tls_version_ok
 561              	tls_version_ok:
 562              	.LFB93:
 287:C:/Users/stapi/OneDrive/Desktop/GD32VW553/V1_MQTT_OK/GD32VW55X_Wifi_BLE_SDK/GD32VW55x_RELEASE_V1.0.2/MSDK/wpa_supplicant/src/tls\tlsv1_common.c **** 
 288:C:/Users/stapi/OneDrive/Desktop/GD32VW553/V1_MQTT_OK/GD32VW55X_Wifi_BLE_SDK/GD32VW55x_RELEASE_V1.0.2/MSDK/wpa_supplicant/src/tls\tlsv1_common.c **** 
 289:C:/Users/stapi/OneDrive/Desktop/GD32VW553/V1_MQTT_OK/GD32VW55X_Wifi_BLE_SDK/GD32VW55x_RELEASE_V1.0.2/MSDK/wpa_supplicant/src/tls\tlsv1_common.c **** int tls_version_ok(u16 ver)
 290:C:/Users/stapi/OneDrive/Desktop/GD32VW553/V1_MQTT_OK/GD32VW55X_Wifi_BLE_SDK/GD32VW55x_RELEASE_V1.0.2/MSDK/wpa_supplicant/src/tls\tlsv1_common.c **** {
 563              		.loc 1 290 1 is_stmt 1
 564              		.cfi_startproc
 565              	.LVL54:
 291:C:/Users/stapi/OneDrive/Desktop/GD32VW553/V1_MQTT_OK/GD32VW55X_Wifi_BLE_SDK/GD32VW55x_RELEASE_V1.0.2/MSDK/wpa_supplicant/src/tls\tlsv1_common.c **** 	if (ver == TLS_VERSION_1)
 566              		.loc 1 291 2
 567              		.loc 1 291 5 is_stmt 0
 568 0000 1305F5CF 		addi	a0,a0,-769
 569              	.LVL55:
 292:C:/Users/stapi/OneDrive/Desktop/GD32VW553/V1_MQTT_OK/GD32VW55X_Wifi_BLE_SDK/GD32VW55x_RELEASE_V1.0.2/MSDK/wpa_supplicant/src/tls\tlsv1_common.c **** 		return 1;
 293:C:/Users/stapi/OneDrive/Desktop/GD32VW553/V1_MQTT_OK/GD32VW55X_Wifi_BLE_SDK/GD32VW55x_RELEASE_V1.0.2/MSDK/wpa_supplicant/src/tls\tlsv1_common.c **** #ifdef CONFIG_TLSV11
 294:C:/Users/stapi/OneDrive/Desktop/GD32VW553/V1_MQTT_OK/GD32VW55X_Wifi_BLE_SDK/GD32VW55x_RELEASE_V1.0.2/MSDK/wpa_supplicant/src/tls\tlsv1_common.c **** 	if (ver == TLS_VERSION_1_1)
 295:C:/Users/stapi/OneDrive/Desktop/GD32VW553/V1_MQTT_OK/GD32VW55X_Wifi_BLE_SDK/GD32VW55x_RELEASE_V1.0.2/MSDK/wpa_supplicant/src/tls\tlsv1_common.c **** 		return 1;
 296:C:/Users/stapi/OneDrive/Desktop/GD32VW553/V1_MQTT_OK/GD32VW55X_Wifi_BLE_SDK/GD32VW55x_RELEASE_V1.0.2/MSDK/wpa_supplicant/src/tls\tlsv1_common.c **** #endif /* CONFIG_TLSV11 */
 297:C:/Users/stapi/OneDrive/Desktop/GD32VW553/V1_MQTT_OK/GD32VW55X_Wifi_BLE_SDK/GD32VW55x_RELEASE_V1.0.2/MSDK/wpa_supplicant/src/tls\tlsv1_common.c **** #ifdef CONFIG_TLSV12
 298:C:/Users/stapi/OneDrive/Desktop/GD32VW553/V1_MQTT_OK/GD32VW55X_Wifi_BLE_SDK/GD32VW55x_RELEASE_V1.0.2/MSDK/wpa_supplicant/src/tls\tlsv1_common.c **** 	if (ver == TLS_VERSION_1_2)
 299:C:/Users/stapi/OneDrive/Desktop/GD32VW553/V1_MQTT_OK/GD32VW55X_Wifi_BLE_SDK/GD32VW55x_RELEASE_V1.0.2/MSDK/wpa_supplicant/src/tls\tlsv1_common.c **** 		return 1;
 300:C:/Users/stapi/OneDrive/Desktop/GD32VW553/V1_MQTT_OK/GD32VW55X_Wifi_BLE_SDK/GD32VW55x_RELEASE_V1.0.2/MSDK/wpa_supplicant/src/tls\tlsv1_common.c **** #endif /* CONFIG_TLSV12 */
 301:C:/Users/stapi/OneDrive/Desktop/GD32VW553/V1_MQTT_OK/GD32VW55X_Wifi_BLE_SDK/GD32VW55x_RELEASE_V1.0.2/MSDK/wpa_supplicant/src/tls\tlsv1_common.c **** 
 302:C:/Users/stapi/OneDrive/Desktop/GD32VW553/V1_MQTT_OK/GD32VW55X_Wifi_BLE_SDK/GD32VW55x_RELEASE_V1.0.2/MSDK/wpa_supplicant/src/tls\tlsv1_common.c **** 	return 0;
 303:C:/Users/stapi/OneDrive/Desktop/GD32VW553/V1_MQTT_OK/GD32VW55X_Wifi_BLE_SDK/GD32VW55x_RELEASE_V1.0.2/MSDK/wpa_supplicant/src/tls\tlsv1_common.c **** }
 570              		.loc 1 303 1
 571 0004 13351500 		seqz	a0,a0
 572 0008 8280     		ret
 573              		.cfi_endproc
 574              	.LFE93:
 576              		.section	.rodata.tls_version_str.str1.4,"aMS",@progbits,1
 577              		.align	2
 578              	.LC3:
 579 0000 3F00     		.string	"?"
 580              		.section	.text.tls_version_str,"ax",@progbits
 581              		.align	1
 582              		.globl	tls_version_str
 584              	tls_version_str:
 585              	.LFB94:
 304:C:/Users/stapi/OneDrive/Desktop/GD32VW553/V1_MQTT_OK/GD32VW55X_Wifi_BLE_SDK/GD32VW55x_RELEASE_V1.0.2/MSDK/wpa_supplicant/src/tls\tlsv1_common.c **** 
 305:C:/Users/stapi/OneDrive/Desktop/GD32VW553/V1_MQTT_OK/GD32VW55X_Wifi_BLE_SDK/GD32VW55x_RELEASE_V1.0.2/MSDK/wpa_supplicant/src/tls\tlsv1_common.c **** 
 306:C:/Users/stapi/OneDrive/Desktop/GD32VW553/V1_MQTT_OK/GD32VW55X_Wifi_BLE_SDK/GD32VW55x_RELEASE_V1.0.2/MSDK/wpa_supplicant/src/tls\tlsv1_common.c **** const char * tls_version_str(u16 ver)
 307:C:/Users/stapi/OneDrive/Desktop/GD32VW553/V1_MQTT_OK/GD32VW55X_Wifi_BLE_SDK/GD32VW55x_RELEASE_V1.0.2/MSDK/wpa_supplicant/src/tls\tlsv1_common.c **** {
 586              		.loc 1 307 1 is_stmt 1
 587              		.cfi_startproc
 588              	.LVL56:
 308:C:/Users/stapi/OneDrive/Desktop/GD32VW553/V1_MQTT_OK/GD32VW55X_Wifi_BLE_SDK/GD32VW55x_RELEASE_V1.0.2/MSDK/wpa_supplicant/src/tls\tlsv1_common.c **** 	switch (ver) {
 589              		.loc 1 308 2
 590 0000 1305F5CF 		addi	a0,a0,-769
 591              	.LVL57:
 592 0004 8947     		li	a5,2
 593 0006 33450508 		zext.h	a0,a0
 594 000a 63EAA700 		bgtu	a0,a5,.L71
 595 000e B7070000 		lui	a5,%hi(.LANCHOR2)
 596 0012 93870700 		addi	a5,a5,%lo(.LANCHOR2)
 597 0016 3345F520 		sh2add	a0,a0,a5
 598 001a 0841     		lw	a0,0(a0)
 599 001c 8280     		ret
 600              	.L71:
 307:C:/Users/stapi/OneDrive/Desktop/GD32VW553/V1_MQTT_OK/GD32VW55X_Wifi_BLE_SDK/GD32VW55x_RELEASE_V1.0.2/MSDK/wpa_supplicant/src/tls\tlsv1_common.c **** 	switch (ver) {
 601              		.loc 1 307 1 is_stmt 0
 602 001e 37050000 		lui	a0,%hi(.LC3)
 603 0022 13050500 		addi	a0,a0,%lo(.LC3)
 309:C:/Users/stapi/OneDrive/Desktop/GD32VW553/V1_MQTT_OK/GD32VW55X_Wifi_BLE_SDK/GD32VW55x_RELEASE_V1.0.2/MSDK/wpa_supplicant/src/tls\tlsv1_common.c **** 	case TLS_VERSION_1:
 310:C:/Users/stapi/OneDrive/Desktop/GD32VW553/V1_MQTT_OK/GD32VW55X_Wifi_BLE_SDK/GD32VW55x_RELEASE_V1.0.2/MSDK/wpa_supplicant/src/tls\tlsv1_common.c **** 		return "1.0";
 311:C:/Users/stapi/OneDrive/Desktop/GD32VW553/V1_MQTT_OK/GD32VW55X_Wifi_BLE_SDK/GD32VW55x_RELEASE_V1.0.2/MSDK/wpa_supplicant/src/tls\tlsv1_common.c **** 	case TLS_VERSION_1_1:
 312:C:/Users/stapi/OneDrive/Desktop/GD32VW553/V1_MQTT_OK/GD32VW55X_Wifi_BLE_SDK/GD32VW55x_RELEASE_V1.0.2/MSDK/wpa_supplicant/src/tls\tlsv1_common.c **** 		return "1.1";
 313:C:/Users/stapi/OneDrive/Desktop/GD32VW553/V1_MQTT_OK/GD32VW55X_Wifi_BLE_SDK/GD32VW55x_RELEASE_V1.0.2/MSDK/wpa_supplicant/src/tls\tlsv1_common.c **** 	case TLS_VERSION_1_2:
 314:C:/Users/stapi/OneDrive/Desktop/GD32VW553/V1_MQTT_OK/GD32VW55X_Wifi_BLE_SDK/GD32VW55x_RELEASE_V1.0.2/MSDK/wpa_supplicant/src/tls\tlsv1_common.c **** 		return "1.2";
 315:C:/Users/stapi/OneDrive/Desktop/GD32VW553/V1_MQTT_OK/GD32VW55X_Wifi_BLE_SDK/GD32VW55x_RELEASE_V1.0.2/MSDK/wpa_supplicant/src/tls\tlsv1_common.c **** 	}
 316:C:/Users/stapi/OneDrive/Desktop/GD32VW553/V1_MQTT_OK/GD32VW55X_Wifi_BLE_SDK/GD32VW55x_RELEASE_V1.0.2/MSDK/wpa_supplicant/src/tls\tlsv1_common.c **** 
 317:C:/Users/stapi/OneDrive/Desktop/GD32VW553/V1_MQTT_OK/GD32VW55X_Wifi_BLE_SDK/GD32VW55x_RELEASE_V1.0.2/MSDK/wpa_supplicant/src/tls\tlsv1_common.c **** 	return "?";
 318:C:/Users/stapi/OneDrive/Desktop/GD32VW553/V1_MQTT_OK/GD32VW55X_Wifi_BLE_SDK/GD32VW55x_RELEASE_V1.0.2/MSDK/wpa_supplicant/src/tls\tlsv1_common.c **** }
 604              		.loc 1 318 1
 605 0026 8280     		ret
 606              		.cfi_endproc
 607              	.LFE94:
 609              		.section	.text.tls_prf,"ax",@progbits
 610              		.align	1
 611              		.globl	tls_prf
 613              	tls_prf:
 614              	.LFB95:
 319:C:/Users/stapi/OneDrive/Desktop/GD32VW553/V1_MQTT_OK/GD32VW55X_Wifi_BLE_SDK/GD32VW55x_RELEASE_V1.0.2/MSDK/wpa_supplicant/src/tls\tlsv1_common.c **** 
 320:C:/Users/stapi/OneDrive/Desktop/GD32VW553/V1_MQTT_OK/GD32VW55X_Wifi_BLE_SDK/GD32VW55x_RELEASE_V1.0.2/MSDK/wpa_supplicant/src/tls\tlsv1_common.c **** 
 321:C:/Users/stapi/OneDrive/Desktop/GD32VW553/V1_MQTT_OK/GD32VW55X_Wifi_BLE_SDK/GD32VW55x_RELEASE_V1.0.2/MSDK/wpa_supplicant/src/tls\tlsv1_common.c **** int tls_prf(u16 ver, const u8 *secret, size_t secret_len, const char *label,
 322:C:/Users/stapi/OneDrive/Desktop/GD32VW553/V1_MQTT_OK/GD32VW55X_Wifi_BLE_SDK/GD32VW55x_RELEASE_V1.0.2/MSDK/wpa_supplicant/src/tls\tlsv1_common.c **** 	    const u8 *seed, size_t seed_len, u8 *out, size_t outlen)
 323:C:/Users/stapi/OneDrive/Desktop/GD32VW553/V1_MQTT_OK/GD32VW55X_Wifi_BLE_SDK/GD32VW55x_RELEASE_V1.0.2/MSDK/wpa_supplicant/src/tls\tlsv1_common.c **** {
 615              		.loc 1 323 1 is_stmt 1
 616              		.cfi_startproc
 617              	.LVL58:
 324:C:/Users/stapi/OneDrive/Desktop/GD32VW553/V1_MQTT_OK/GD32VW55X_Wifi_BLE_SDK/GD32VW55x_RELEASE_V1.0.2/MSDK/wpa_supplicant/src/tls\tlsv1_common.c **** #ifdef CONFIG_TLSV12
 325:C:/Users/stapi/OneDrive/Desktop/GD32VW553/V1_MQTT_OK/GD32VW55X_Wifi_BLE_SDK/GD32VW55x_RELEASE_V1.0.2/MSDK/wpa_supplicant/src/tls\tlsv1_common.c **** 	if (ver >= TLS_VERSION_1_2) {
 326:C:/Users/stapi/OneDrive/Desktop/GD32VW553/V1_MQTT_OK/GD32VW55X_Wifi_BLE_SDK/GD32VW55x_RELEASE_V1.0.2/MSDK/wpa_supplicant/src/tls\tlsv1_common.c **** 		tls_prf_sha256(secret, secret_len, label, seed, seed_len,
 327:C:/Users/stapi/OneDrive/Desktop/GD32VW553/V1_MQTT_OK/GD32VW55X_Wifi_BLE_SDK/GD32VW55x_RELEASE_V1.0.2/MSDK/wpa_supplicant/src/tls\tlsv1_common.c **** 			       out, outlen);
 328:C:/Users/stapi/OneDrive/Desktop/GD32VW553/V1_MQTT_OK/GD32VW55X_Wifi_BLE_SDK/GD32VW55x_RELEASE_V1.0.2/MSDK/wpa_supplicant/src/tls\tlsv1_common.c **** 		return 0;
 329:C:/Users/stapi/OneDrive/Desktop/GD32VW553/V1_MQTT_OK/GD32VW55X_Wifi_BLE_SDK/GD32VW55x_RELEASE_V1.0.2/MSDK/wpa_supplicant/src/tls\tlsv1_common.c **** 	}
 330:C:/Users/stapi/OneDrive/Desktop/GD32VW553/V1_MQTT_OK/GD32VW55X_Wifi_BLE_SDK/GD32VW55x_RELEASE_V1.0.2/MSDK/wpa_supplicant/src/tls\tlsv1_common.c **** #endif /* CONFIG_TLSV12 */
 331:C:/Users/stapi/OneDrive/Desktop/GD32VW553/V1_MQTT_OK/GD32VW55X_Wifi_BLE_SDK/GD32VW55x_RELEASE_V1.0.2/MSDK/wpa_supplicant/src/tls\tlsv1_common.c **** 
 332:C:/Users/stapi/OneDrive/Desktop/GD32VW553/V1_MQTT_OK/GD32VW55X_Wifi_BLE_SDK/GD32VW55x_RELEASE_V1.0.2/MSDK/wpa_supplicant/src/tls\tlsv1_common.c **** 	return tls_prf_sha1_md5(secret, secret_len, label, seed, seed_len, out,
 618              		.loc 1 332 2
 323:C:/Users/stapi/OneDrive/Desktop/GD32VW553/V1_MQTT_OK/GD32VW55X_Wifi_BLE_SDK/GD32VW55x_RELEASE_V1.0.2/MSDK/wpa_supplicant/src/tls\tlsv1_common.c **** #ifdef CONFIG_TLSV12
 619              		.loc 1 323 1 is_stmt 0
 620 0000 2E85     		mv	a0,a1
 621              	.LVL59:
 622 0002 B285     		mv	a1,a2
 623              	.LVL60:
 624 0004 3686     		mv	a2,a3
 625              	.LVL61:
 626 0006 BA86     		mv	a3,a4
 627              	.LVL62:
 628 0008 3E87     		mv	a4,a5
 629              	.LVL63:
 630 000a C287     		mv	a5,a6
 631              	.LVL64:
 632 000c 4688     		mv	a6,a7
 633              	.LVL65:
 634              		.loc 1 332 9
 635 000e 17030000 		tail	tls_prf_sha1_md5
 635      67000300 
 636              	.LVL66:
 637              		.cfi_endproc
 638              	.LFE95:
 640              		.section	.text.tls_key_x_server_params_hash,"ax",@progbits
 641              		.align	1
 642              		.globl	tls_key_x_server_params_hash
 644              	tls_key_x_server_params_hash:
 645              	.LFB96:
 333:C:/Users/stapi/OneDrive/Desktop/GD32VW553/V1_MQTT_OK/GD32VW55X_Wifi_BLE_SDK/GD32VW55x_RELEASE_V1.0.2/MSDK/wpa_supplicant/src/tls\tlsv1_common.c **** 				outlen);
 334:C:/Users/stapi/OneDrive/Desktop/GD32VW553/V1_MQTT_OK/GD32VW55X_Wifi_BLE_SDK/GD32VW55x_RELEASE_V1.0.2/MSDK/wpa_supplicant/src/tls\tlsv1_common.c **** }
 335:C:/Users/stapi/OneDrive/Desktop/GD32VW553/V1_MQTT_OK/GD32VW55X_Wifi_BLE_SDK/GD32VW55x_RELEASE_V1.0.2/MSDK/wpa_supplicant/src/tls\tlsv1_common.c **** 
 336:C:/Users/stapi/OneDrive/Desktop/GD32VW553/V1_MQTT_OK/GD32VW55X_Wifi_BLE_SDK/GD32VW55x_RELEASE_V1.0.2/MSDK/wpa_supplicant/src/tls\tlsv1_common.c **** 
 337:C:/Users/stapi/OneDrive/Desktop/GD32VW553/V1_MQTT_OK/GD32VW55X_Wifi_BLE_SDK/GD32VW55x_RELEASE_V1.0.2/MSDK/wpa_supplicant/src/tls\tlsv1_common.c **** #ifdef CONFIG_TLSV12
 338:C:/Users/stapi/OneDrive/Desktop/GD32VW553/V1_MQTT_OK/GD32VW55X_Wifi_BLE_SDK/GD32VW55x_RELEASE_V1.0.2/MSDK/wpa_supplicant/src/tls\tlsv1_common.c **** int tlsv12_key_x_server_params_hash(u16 tls_version, u8 hash_alg,
 339:C:/Users/stapi/OneDrive/Desktop/GD32VW553/V1_MQTT_OK/GD32VW55X_Wifi_BLE_SDK/GD32VW55x_RELEASE_V1.0.2/MSDK/wpa_supplicant/src/tls\tlsv1_common.c **** 				    const u8 *client_random,
 340:C:/Users/stapi/OneDrive/Desktop/GD32VW553/V1_MQTT_OK/GD32VW55X_Wifi_BLE_SDK/GD32VW55x_RELEASE_V1.0.2/MSDK/wpa_supplicant/src/tls\tlsv1_common.c **** 				    const u8 *server_random,
 341:C:/Users/stapi/OneDrive/Desktop/GD32VW553/V1_MQTT_OK/GD32VW55X_Wifi_BLE_SDK/GD32VW55x_RELEASE_V1.0.2/MSDK/wpa_supplicant/src/tls\tlsv1_common.c **** 				    const u8 *server_params,
 342:C:/Users/stapi/OneDrive/Desktop/GD32VW553/V1_MQTT_OK/GD32VW55X_Wifi_BLE_SDK/GD32VW55x_RELEASE_V1.0.2/MSDK/wpa_supplicant/src/tls\tlsv1_common.c **** 				    size_t server_params_len, u8 *hash)
 343:C:/Users/stapi/OneDrive/Desktop/GD32VW553/V1_MQTT_OK/GD32VW55X_Wifi_BLE_SDK/GD32VW55x_RELEASE_V1.0.2/MSDK/wpa_supplicant/src/tls\tlsv1_common.c **** {
 344:C:/Users/stapi/OneDrive/Desktop/GD32VW553/V1_MQTT_OK/GD32VW55X_Wifi_BLE_SDK/GD32VW55x_RELEASE_V1.0.2/MSDK/wpa_supplicant/src/tls\tlsv1_common.c **** 	size_t hlen;
 345:C:/Users/stapi/OneDrive/Desktop/GD32VW553/V1_MQTT_OK/GD32VW55X_Wifi_BLE_SDK/GD32VW55x_RELEASE_V1.0.2/MSDK/wpa_supplicant/src/tls\tlsv1_common.c **** 	struct crypto_hash *ctx;
 346:C:/Users/stapi/OneDrive/Desktop/GD32VW553/V1_MQTT_OK/GD32VW55X_Wifi_BLE_SDK/GD32VW55x_RELEASE_V1.0.2/MSDK/wpa_supplicant/src/tls\tlsv1_common.c **** 	enum crypto_hash_alg alg;
 347:C:/Users/stapi/OneDrive/Desktop/GD32VW553/V1_MQTT_OK/GD32VW55X_Wifi_BLE_SDK/GD32VW55x_RELEASE_V1.0.2/MSDK/wpa_supplicant/src/tls\tlsv1_common.c **** 
 348:C:/Users/stapi/OneDrive/Desktop/GD32VW553/V1_MQTT_OK/GD32VW55X_Wifi_BLE_SDK/GD32VW55x_RELEASE_V1.0.2/MSDK/wpa_supplicant/src/tls\tlsv1_common.c **** 	switch (hash_alg) {
 349:C:/Users/stapi/OneDrive/Desktop/GD32VW553/V1_MQTT_OK/GD32VW55X_Wifi_BLE_SDK/GD32VW55x_RELEASE_V1.0.2/MSDK/wpa_supplicant/src/tls\tlsv1_common.c **** 	case TLS_HASH_ALG_SHA256:
 350:C:/Users/stapi/OneDrive/Desktop/GD32VW553/V1_MQTT_OK/GD32VW55X_Wifi_BLE_SDK/GD32VW55x_RELEASE_V1.0.2/MSDK/wpa_supplicant/src/tls\tlsv1_common.c **** 		alg = CRYPTO_HASH_ALG_SHA256;
 351:C:/Users/stapi/OneDrive/Desktop/GD32VW553/V1_MQTT_OK/GD32VW55X_Wifi_BLE_SDK/GD32VW55x_RELEASE_V1.0.2/MSDK/wpa_supplicant/src/tls\tlsv1_common.c **** 		hlen = SHA256_MAC_LEN;
 352:C:/Users/stapi/OneDrive/Desktop/GD32VW553/V1_MQTT_OK/GD32VW55X_Wifi_BLE_SDK/GD32VW55x_RELEASE_V1.0.2/MSDK/wpa_supplicant/src/tls\tlsv1_common.c **** 		break;
 353:C:/Users/stapi/OneDrive/Desktop/GD32VW553/V1_MQTT_OK/GD32VW55X_Wifi_BLE_SDK/GD32VW55x_RELEASE_V1.0.2/MSDK/wpa_supplicant/src/tls\tlsv1_common.c **** 	case TLS_HASH_ALG_SHA384:
 354:C:/Users/stapi/OneDrive/Desktop/GD32VW553/V1_MQTT_OK/GD32VW55X_Wifi_BLE_SDK/GD32VW55x_RELEASE_V1.0.2/MSDK/wpa_supplicant/src/tls\tlsv1_common.c **** 		alg = CRYPTO_HASH_ALG_SHA384;
 355:C:/Users/stapi/OneDrive/Desktop/GD32VW553/V1_MQTT_OK/GD32VW55X_Wifi_BLE_SDK/GD32VW55x_RELEASE_V1.0.2/MSDK/wpa_supplicant/src/tls\tlsv1_common.c **** 		hlen = 48;
 356:C:/Users/stapi/OneDrive/Desktop/GD32VW553/V1_MQTT_OK/GD32VW55X_Wifi_BLE_SDK/GD32VW55x_RELEASE_V1.0.2/MSDK/wpa_supplicant/src/tls\tlsv1_common.c **** 		break;
 357:C:/Users/stapi/OneDrive/Desktop/GD32VW553/V1_MQTT_OK/GD32VW55X_Wifi_BLE_SDK/GD32VW55x_RELEASE_V1.0.2/MSDK/wpa_supplicant/src/tls\tlsv1_common.c **** 	case TLS_HASH_ALG_SHA512:
 358:C:/Users/stapi/OneDrive/Desktop/GD32VW553/V1_MQTT_OK/GD32VW55X_Wifi_BLE_SDK/GD32VW55x_RELEASE_V1.0.2/MSDK/wpa_supplicant/src/tls\tlsv1_common.c **** 		alg = CRYPTO_HASH_ALG_SHA512;
 359:C:/Users/stapi/OneDrive/Desktop/GD32VW553/V1_MQTT_OK/GD32VW55X_Wifi_BLE_SDK/GD32VW55x_RELEASE_V1.0.2/MSDK/wpa_supplicant/src/tls\tlsv1_common.c **** 		hlen = 64;
 360:C:/Users/stapi/OneDrive/Desktop/GD32VW553/V1_MQTT_OK/GD32VW55X_Wifi_BLE_SDK/GD32VW55x_RELEASE_V1.0.2/MSDK/wpa_supplicant/src/tls\tlsv1_common.c **** 		break;
 361:C:/Users/stapi/OneDrive/Desktop/GD32VW553/V1_MQTT_OK/GD32VW55X_Wifi_BLE_SDK/GD32VW55x_RELEASE_V1.0.2/MSDK/wpa_supplicant/src/tls\tlsv1_common.c **** 	default:
 362:C:/Users/stapi/OneDrive/Desktop/GD32VW553/V1_MQTT_OK/GD32VW55X_Wifi_BLE_SDK/GD32VW55x_RELEASE_V1.0.2/MSDK/wpa_supplicant/src/tls\tlsv1_common.c **** 		return -1;
 363:C:/Users/stapi/OneDrive/Desktop/GD32VW553/V1_MQTT_OK/GD32VW55X_Wifi_BLE_SDK/GD32VW55x_RELEASE_V1.0.2/MSDK/wpa_supplicant/src/tls\tlsv1_common.c **** 	}
 364:C:/Users/stapi/OneDrive/Desktop/GD32VW553/V1_MQTT_OK/GD32VW55X_Wifi_BLE_SDK/GD32VW55x_RELEASE_V1.0.2/MSDK/wpa_supplicant/src/tls\tlsv1_common.c **** 	ctx = crypto_hash_init(alg, NULL, 0);
 365:C:/Users/stapi/OneDrive/Desktop/GD32VW553/V1_MQTT_OK/GD32VW55X_Wifi_BLE_SDK/GD32VW55x_RELEASE_V1.0.2/MSDK/wpa_supplicant/src/tls\tlsv1_common.c **** 	if (ctx == NULL)
 366:C:/Users/stapi/OneDrive/Desktop/GD32VW553/V1_MQTT_OK/GD32VW55X_Wifi_BLE_SDK/GD32VW55x_RELEASE_V1.0.2/MSDK/wpa_supplicant/src/tls\tlsv1_common.c **** 		return -1;
 367:C:/Users/stapi/OneDrive/Desktop/GD32VW553/V1_MQTT_OK/GD32VW55X_Wifi_BLE_SDK/GD32VW55x_RELEASE_V1.0.2/MSDK/wpa_supplicant/src/tls\tlsv1_common.c **** 	crypto_hash_update(ctx, client_random, TLS_RANDOM_LEN);
 368:C:/Users/stapi/OneDrive/Desktop/GD32VW553/V1_MQTT_OK/GD32VW55X_Wifi_BLE_SDK/GD32VW55x_RELEASE_V1.0.2/MSDK/wpa_supplicant/src/tls\tlsv1_common.c **** 	crypto_hash_update(ctx, server_random, TLS_RANDOM_LEN);
 369:C:/Users/stapi/OneDrive/Desktop/GD32VW553/V1_MQTT_OK/GD32VW55X_Wifi_BLE_SDK/GD32VW55x_RELEASE_V1.0.2/MSDK/wpa_supplicant/src/tls\tlsv1_common.c **** 	crypto_hash_update(ctx, server_params, server_params_len);
 370:C:/Users/stapi/OneDrive/Desktop/GD32VW553/V1_MQTT_OK/GD32VW55X_Wifi_BLE_SDK/GD32VW55x_RELEASE_V1.0.2/MSDK/wpa_supplicant/src/tls\tlsv1_common.c **** 	if (crypto_hash_finish(ctx, hash, &hlen) < 0)
 371:C:/Users/stapi/OneDrive/Desktop/GD32VW553/V1_MQTT_OK/GD32VW55X_Wifi_BLE_SDK/GD32VW55x_RELEASE_V1.0.2/MSDK/wpa_supplicant/src/tls\tlsv1_common.c **** 		return -1;
 372:C:/Users/stapi/OneDrive/Desktop/GD32VW553/V1_MQTT_OK/GD32VW55X_Wifi_BLE_SDK/GD32VW55x_RELEASE_V1.0.2/MSDK/wpa_supplicant/src/tls\tlsv1_common.c **** 
 373:C:/Users/stapi/OneDrive/Desktop/GD32VW553/V1_MQTT_OK/GD32VW55X_Wifi_BLE_SDK/GD32VW55x_RELEASE_V1.0.2/MSDK/wpa_supplicant/src/tls\tlsv1_common.c **** 	return hlen;
 374:C:/Users/stapi/OneDrive/Desktop/GD32VW553/V1_MQTT_OK/GD32VW55X_Wifi_BLE_SDK/GD32VW55x_RELEASE_V1.0.2/MSDK/wpa_supplicant/src/tls\tlsv1_common.c **** }
 375:C:/Users/stapi/OneDrive/Desktop/GD32VW553/V1_MQTT_OK/GD32VW55X_Wifi_BLE_SDK/GD32VW55x_RELEASE_V1.0.2/MSDK/wpa_supplicant/src/tls\tlsv1_common.c **** #endif /* CONFIG_TLSV12 */
 376:C:/Users/stapi/OneDrive/Desktop/GD32VW553/V1_MQTT_OK/GD32VW55X_Wifi_BLE_SDK/GD32VW55x_RELEASE_V1.0.2/MSDK/wpa_supplicant/src/tls\tlsv1_common.c **** 
 377:C:/Users/stapi/OneDrive/Desktop/GD32VW553/V1_MQTT_OK/GD32VW55X_Wifi_BLE_SDK/GD32VW55x_RELEASE_V1.0.2/MSDK/wpa_supplicant/src/tls\tlsv1_common.c **** 
 378:C:/Users/stapi/OneDrive/Desktop/GD32VW553/V1_MQTT_OK/GD32VW55X_Wifi_BLE_SDK/GD32VW55x_RELEASE_V1.0.2/MSDK/wpa_supplicant/src/tls\tlsv1_common.c **** int tls_key_x_server_params_hash(u16 tls_version, const u8 *client_random,
 379:C:/Users/stapi/OneDrive/Desktop/GD32VW553/V1_MQTT_OK/GD32VW55X_Wifi_BLE_SDK/GD32VW55x_RELEASE_V1.0.2/MSDK/wpa_supplicant/src/tls\tlsv1_common.c **** 				 const u8 *server_random,
 380:C:/Users/stapi/OneDrive/Desktop/GD32VW553/V1_MQTT_OK/GD32VW55X_Wifi_BLE_SDK/GD32VW55x_RELEASE_V1.0.2/MSDK/wpa_supplicant/src/tls\tlsv1_common.c **** 				 const u8 *server_params,
 381:C:/Users/stapi/OneDrive/Desktop/GD32VW553/V1_MQTT_OK/GD32VW55X_Wifi_BLE_SDK/GD32VW55x_RELEASE_V1.0.2/MSDK/wpa_supplicant/src/tls\tlsv1_common.c **** 				 size_t server_params_len, u8 *hash)
 382:C:/Users/stapi/OneDrive/Desktop/GD32VW553/V1_MQTT_OK/GD32VW55X_Wifi_BLE_SDK/GD32VW55x_RELEASE_V1.0.2/MSDK/wpa_supplicant/src/tls\tlsv1_common.c **** {
 646              		.loc 1 382 1 is_stmt 1
 647              		.cfi_startproc
 648              	.LVL67:
 649 0000 17030000 		call	t0,__riscv_save_8
 649      E7020300 
 650              		.cfi_offset 23, -36
 651              		.cfi_offset 22, -32
 652              		.cfi_offset 21, -28
 653              		.cfi_offset 20, -24
 654              		.cfi_offset 19, -20
 655              		.cfi_offset 18, -16
 656              		.cfi_offset 9, -12
 657              		.cfi_offset 8, -8
 658              		.cfi_offset 1, -4
 659              		.cfi_def_cfa_offset 48
 383:C:/Users/stapi/OneDrive/Desktop/GD32VW553/V1_MQTT_OK/GD32VW55X_Wifi_BLE_SDK/GD32VW55x_RELEASE_V1.0.2/MSDK/wpa_supplicant/src/tls\tlsv1_common.c **** 	u8 *hpos;
 660              		.loc 1 383 2
 384:C:/Users/stapi/OneDrive/Desktop/GD32VW553/V1_MQTT_OK/GD32VW55X_Wifi_BLE_SDK/GD32VW55x_RELEASE_V1.0.2/MSDK/wpa_supplicant/src/tls\tlsv1_common.c **** 	size_t hlen;
 661              		.loc 1 384 2
 385:C:/Users/stapi/OneDrive/Desktop/GD32VW553/V1_MQTT_OK/GD32VW55X_Wifi_BLE_SDK/GD32VW55x_RELEASE_V1.0.2/MSDK/wpa_supplicant/src/tls\tlsv1_common.c **** 	struct crypto_hash *ctx;
 662              		.loc 1 385 2
 386:C:/Users/stapi/OneDrive/Desktop/GD32VW553/V1_MQTT_OK/GD32VW55X_Wifi_BLE_SDK/GD32VW55x_RELEASE_V1.0.2/MSDK/wpa_supplicant/src/tls\tlsv1_common.c **** 
 387:C:/Users/stapi/OneDrive/Desktop/GD32VW553/V1_MQTT_OK/GD32VW55X_Wifi_BLE_SDK/GD32VW55x_RELEASE_V1.0.2/MSDK/wpa_supplicant/src/tls\tlsv1_common.c **** 	hpos = hash;
 663              		.loc 1 387 2
 382:C:/Users/stapi/OneDrive/Desktop/GD32VW553/V1_MQTT_OK/GD32VW55X_Wifi_BLE_SDK/GD32VW55x_RELEASE_V1.0.2/MSDK/wpa_supplicant/src/tls\tlsv1_common.c **** 	u8 *hpos;
 664              		.loc 1 382 1 is_stmt 0
 665 0008 4111     		addi	sp,sp,-16
 666              		.cfi_def_cfa_offset 64
 382:C:/Users/stapi/OneDrive/Desktop/GD32VW553/V1_MQTT_OK/GD32VW55X_Wifi_BLE_SDK/GD32VW55x_RELEASE_V1.0.2/MSDK/wpa_supplicant/src/tls\tlsv1_common.c **** 	u8 *hpos;
 667              		.loc 1 382 1
 668 000a 2E8B     		mv	s6,a1
 669 000c B28A     		mv	s5,a2
 388:C:/Users/stapi/OneDrive/Desktop/GD32VW553/V1_MQTT_OK/GD32VW55X_Wifi_BLE_SDK/GD32VW55x_RELEASE_V1.0.2/MSDK/wpa_supplicant/src/tls\tlsv1_common.c **** 
 389:C:/Users/stapi/OneDrive/Desktop/GD32VW553/V1_MQTT_OK/GD32VW55X_Wifi_BLE_SDK/GD32VW55x_RELEASE_V1.0.2/MSDK/wpa_supplicant/src/tls\tlsv1_common.c **** 	ctx = crypto_hash_init(CRYPTO_HASH_ALG_MD5, NULL, 0);
 670              		.loc 1 389 8
 671 000e 8145     		li	a1,0
 672              	.LVL68:
 673 0010 0146     		li	a2,0
 674              	.LVL69:
 675 0012 0145     		li	a0,0
 676              	.LVL70:
 382:C:/Users/stapi/OneDrive/Desktop/GD32VW553/V1_MQTT_OK/GD32VW55X_Wifi_BLE_SDK/GD32VW55x_RELEASE_V1.0.2/MSDK/wpa_supplicant/src/tls\tlsv1_common.c **** 	u8 *hpos;
 677              		.loc 1 382 1
 678 0014 B689     		mv	s3,a3
 679 0016 3A8A     		mv	s4,a4
 680 0018 3E89     		mv	s2,a5
 681              	.LVL71:
 682              		.loc 1 389 2 is_stmt 1
 683              		.loc 1 389 8 is_stmt 0
 684 001a 97000000 		call	crypto_hash_init
 684      E7800000 
 685              	.LVL72:
 390:C:/Users/stapi/OneDrive/Desktop/GD32VW553/V1_MQTT_OK/GD32VW55X_Wifi_BLE_SDK/GD32VW55x_RELEASE_V1.0.2/MSDK/wpa_supplicant/src/tls\tlsv1_common.c **** 	if (ctx == NULL)
 686              		.loc 1 390 2 is_stmt 1
 687              		.loc 1 390 5 is_stmt 0
 688 0022 19E5     		bne	a0,zero,.L75
 689              	.LVL73:
 690              	.L77:
 391:C:/Users/stapi/OneDrive/Desktop/GD32VW553/V1_MQTT_OK/GD32VW55X_Wifi_BLE_SDK/GD32VW55x_RELEASE_V1.0.2/MSDK/wpa_supplicant/src/tls\tlsv1_common.c **** 		return -1;
 691              		.loc 1 391 10
 692 0024 7D55     		li	a0,-1
 693              	.L74:
 392:C:/Users/stapi/OneDrive/Desktop/GD32VW553/V1_MQTT_OK/GD32VW55X_Wifi_BLE_SDK/GD32VW55x_RELEASE_V1.0.2/MSDK/wpa_supplicant/src/tls\tlsv1_common.c **** 	crypto_hash_update(ctx, client_random, TLS_RANDOM_LEN);
 393:C:/Users/stapi/OneDrive/Desktop/GD32VW553/V1_MQTT_OK/GD32VW55X_Wifi_BLE_SDK/GD32VW55x_RELEASE_V1.0.2/MSDK/wpa_supplicant/src/tls\tlsv1_common.c **** 	crypto_hash_update(ctx, server_random, TLS_RANDOM_LEN);
 394:C:/Users/stapi/OneDrive/Desktop/GD32VW553/V1_MQTT_OK/GD32VW55X_Wifi_BLE_SDK/GD32VW55x_RELEASE_V1.0.2/MSDK/wpa_supplicant/src/tls\tlsv1_common.c **** 	crypto_hash_update(ctx, server_params, server_params_len);
 395:C:/Users/stapi/OneDrive/Desktop/GD32VW553/V1_MQTT_OK/GD32VW55X_Wifi_BLE_SDK/GD32VW55x_RELEASE_V1.0.2/MSDK/wpa_supplicant/src/tls\tlsv1_common.c **** 	hlen = MD5_MAC_LEN;
 396:C:/Users/stapi/OneDrive/Desktop/GD32VW553/V1_MQTT_OK/GD32VW55X_Wifi_BLE_SDK/GD32VW55x_RELEASE_V1.0.2/MSDK/wpa_supplicant/src/tls\tlsv1_common.c **** 	if (crypto_hash_finish(ctx, hash, &hlen) < 0)
 397:C:/Users/stapi/OneDrive/Desktop/GD32VW553/V1_MQTT_OK/GD32VW55X_Wifi_BLE_SDK/GD32VW55x_RELEASE_V1.0.2/MSDK/wpa_supplicant/src/tls\tlsv1_common.c **** 		return -1;
 398:C:/Users/stapi/OneDrive/Desktop/GD32VW553/V1_MQTT_OK/GD32VW55X_Wifi_BLE_SDK/GD32VW55x_RELEASE_V1.0.2/MSDK/wpa_supplicant/src/tls\tlsv1_common.c **** 	hpos += hlen;
 399:C:/Users/stapi/OneDrive/Desktop/GD32VW553/V1_MQTT_OK/GD32VW55X_Wifi_BLE_SDK/GD32VW55x_RELEASE_V1.0.2/MSDK/wpa_supplicant/src/tls\tlsv1_common.c **** 
 400:C:/Users/stapi/OneDrive/Desktop/GD32VW553/V1_MQTT_OK/GD32VW55X_Wifi_BLE_SDK/GD32VW55x_RELEASE_V1.0.2/MSDK/wpa_supplicant/src/tls\tlsv1_common.c **** 	ctx = crypto_hash_init(CRYPTO_HASH_ALG_SHA1, NULL, 0);
 401:C:/Users/stapi/OneDrive/Desktop/GD32VW553/V1_MQTT_OK/GD32VW55X_Wifi_BLE_SDK/GD32VW55x_RELEASE_V1.0.2/MSDK/wpa_supplicant/src/tls\tlsv1_common.c **** 	if (ctx == NULL)
 402:C:/Users/stapi/OneDrive/Desktop/GD32VW553/V1_MQTT_OK/GD32VW55X_Wifi_BLE_SDK/GD32VW55x_RELEASE_V1.0.2/MSDK/wpa_supplicant/src/tls\tlsv1_common.c **** 		return -1;
 403:C:/Users/stapi/OneDrive/Desktop/GD32VW553/V1_MQTT_OK/GD32VW55X_Wifi_BLE_SDK/GD32VW55x_RELEASE_V1.0.2/MSDK/wpa_supplicant/src/tls\tlsv1_common.c **** 	crypto_hash_update(ctx, client_random, TLS_RANDOM_LEN);
 404:C:/Users/stapi/OneDrive/Desktop/GD32VW553/V1_MQTT_OK/GD32VW55X_Wifi_BLE_SDK/GD32VW55x_RELEASE_V1.0.2/MSDK/wpa_supplicant/src/tls\tlsv1_common.c **** 	crypto_hash_update(ctx, server_random, TLS_RANDOM_LEN);
 405:C:/Users/stapi/OneDrive/Desktop/GD32VW553/V1_MQTT_OK/GD32VW55X_Wifi_BLE_SDK/GD32VW55x_RELEASE_V1.0.2/MSDK/wpa_supplicant/src/tls\tlsv1_common.c **** 	crypto_hash_update(ctx, server_params, server_params_len);
 406:C:/Users/stapi/OneDrive/Desktop/GD32VW553/V1_MQTT_OK/GD32VW55X_Wifi_BLE_SDK/GD32VW55x_RELEASE_V1.0.2/MSDK/wpa_supplicant/src/tls\tlsv1_common.c **** 	hlen = hash + sizeof(hash) - hpos;
 407:C:/Users/stapi/OneDrive/Desktop/GD32VW553/V1_MQTT_OK/GD32VW55X_Wifi_BLE_SDK/GD32VW55x_RELEASE_V1.0.2/MSDK/wpa_supplicant/src/tls\tlsv1_common.c **** 	if (crypto_hash_finish(ctx, hpos, &hlen) < 0)
 408:C:/Users/stapi/OneDrive/Desktop/GD32VW553/V1_MQTT_OK/GD32VW55X_Wifi_BLE_SDK/GD32VW55x_RELEASE_V1.0.2/MSDK/wpa_supplicant/src/tls\tlsv1_common.c **** 		return -1;
 409:C:/Users/stapi/OneDrive/Desktop/GD32VW553/V1_MQTT_OK/GD32VW55X_Wifi_BLE_SDK/GD32VW55x_RELEASE_V1.0.2/MSDK/wpa_supplicant/src/tls\tlsv1_common.c **** 	hpos += hlen;
 410:C:/Users/stapi/OneDrive/Desktop/GD32VW553/V1_MQTT_OK/GD32VW55X_Wifi_BLE_SDK/GD32VW55x_RELEASE_V1.0.2/MSDK/wpa_supplicant/src/tls\tlsv1_common.c **** 	return hpos - hash;
 411:C:/Users/stapi/OneDrive/Desktop/GD32VW553/V1_MQTT_OK/GD32VW55X_Wifi_BLE_SDK/GD32VW55x_RELEASE_V1.0.2/MSDK/wpa_supplicant/src/tls\tlsv1_common.c **** }
 694              		.loc 1 411 1
 695 0026 4101     		addi	sp,sp,16
 696              		.cfi_remember_state
 697              		.cfi_def_cfa_offset 0
 698 0028 17030000 		tail	__riscv_restore_8
 698      67000300 
 699              		.cfi_restore 23
 700              		.cfi_restore 22
 701              		.cfi_restore 21
 702              		.cfi_restore 20
 703              		.cfi_restore 19
 704              		.cfi_restore 18
 705              		.cfi_restore 9
 706              		.cfi_restore 8
 707              		.cfi_restore 1
 708              		.cfi_def_cfa_offset -48
 709              	.LVL74:
 710              	.L75:
 711              		.cfi_restore_state
 392:C:/Users/stapi/OneDrive/Desktop/GD32VW553/V1_MQTT_OK/GD32VW55X_Wifi_BLE_SDK/GD32VW55x_RELEASE_V1.0.2/MSDK/wpa_supplicant/src/tls\tlsv1_common.c **** 	crypto_hash_update(ctx, client_random, TLS_RANDOM_LEN);
 712              		.loc 1 392 2
 713 0030 13060002 		li	a2,32
 714 0034 DA85     		mv	a1,s6
 715 0036 AA84     		mv	s1,a0
 392:C:/Users/stapi/OneDrive/Desktop/GD32VW553/V1_MQTT_OK/GD32VW55X_Wifi_BLE_SDK/GD32VW55x_RELEASE_V1.0.2/MSDK/wpa_supplicant/src/tls\tlsv1_common.c **** 	crypto_hash_update(ctx, client_random, TLS_RANDOM_LEN);
 716              		.loc 1 392 2 is_stmt 1
 717 0038 97000000 		call	crypto_hash_update
 717      E7800000 
 718              	.LVL75:
 393:C:/Users/stapi/OneDrive/Desktop/GD32VW553/V1_MQTT_OK/GD32VW55X_Wifi_BLE_SDK/GD32VW55x_RELEASE_V1.0.2/MSDK/wpa_supplicant/src/tls\tlsv1_common.c **** 	crypto_hash_update(ctx, server_params, server_params_len);
 719              		.loc 1 393 2
 720 0040 13060002 		li	a2,32
 721 0044 D685     		mv	a1,s5
 722 0046 2685     		mv	a0,s1
 723 0048 97000000 		call	crypto_hash_update
 723      E7800000 
 724              	.LVL76:
 394:C:/Users/stapi/OneDrive/Desktop/GD32VW553/V1_MQTT_OK/GD32VW55X_Wifi_BLE_SDK/GD32VW55x_RELEASE_V1.0.2/MSDK/wpa_supplicant/src/tls\tlsv1_common.c **** 	hlen = MD5_MAC_LEN;
 725              		.loc 1 394 2
 726 0050 5286     		mv	a2,s4
 727 0052 CE85     		mv	a1,s3
 728 0054 2685     		mv	a0,s1
 729 0056 97000000 		call	crypto_hash_update
 729      E7800000 
 730              	.LVL77:
 395:C:/Users/stapi/OneDrive/Desktop/GD32VW553/V1_MQTT_OK/GD32VW55X_Wifi_BLE_SDK/GD32VW55x_RELEASE_V1.0.2/MSDK/wpa_supplicant/src/tls\tlsv1_common.c **** 	if (crypto_hash_finish(ctx, hash, &hlen) < 0)
 731              		.loc 1 395 2
 395:C:/Users/stapi/OneDrive/Desktop/GD32VW553/V1_MQTT_OK/GD32VW55X_Wifi_BLE_SDK/GD32VW55x_RELEASE_V1.0.2/MSDK/wpa_supplicant/src/tls\tlsv1_common.c **** 	if (crypto_hash_finish(ctx, hash, &hlen) < 0)
 732              		.loc 1 395 7 is_stmt 0
 733 005e C147     		li	a5,16
 396:C:/Users/stapi/OneDrive/Desktop/GD32VW553/V1_MQTT_OK/GD32VW55X_Wifi_BLE_SDK/GD32VW55x_RELEASE_V1.0.2/MSDK/wpa_supplicant/src/tls\tlsv1_common.c **** 		return -1;
 734              		.loc 1 396 6
 735 0060 7000     		addi	a2,sp,12
 736 0062 CA85     		mv	a1,s2
 737 0064 2685     		mv	a0,s1
 395:C:/Users/stapi/OneDrive/Desktop/GD32VW553/V1_MQTT_OK/GD32VW55X_Wifi_BLE_SDK/GD32VW55x_RELEASE_V1.0.2/MSDK/wpa_supplicant/src/tls\tlsv1_common.c **** 	if (crypto_hash_finish(ctx, hash, &hlen) < 0)
 738              		.loc 1 395 7
 739 0066 3EC6     		sw	a5,12(sp)
 396:C:/Users/stapi/OneDrive/Desktop/GD32VW553/V1_MQTT_OK/GD32VW55X_Wifi_BLE_SDK/GD32VW55x_RELEASE_V1.0.2/MSDK/wpa_supplicant/src/tls\tlsv1_common.c **** 		return -1;
 740              		.loc 1 396 2 is_stmt 1
 396:C:/Users/stapi/OneDrive/Desktop/GD32VW553/V1_MQTT_OK/GD32VW55X_Wifi_BLE_SDK/GD32VW55x_RELEASE_V1.0.2/MSDK/wpa_supplicant/src/tls\tlsv1_common.c **** 		return -1;
 741              		.loc 1 396 6 is_stmt 0
 742 0068 97000000 		call	crypto_hash_finish
 742      E7800000 
 743              	.LVL78:
 396:C:/Users/stapi/OneDrive/Desktop/GD32VW553/V1_MQTT_OK/GD32VW55X_Wifi_BLE_SDK/GD32VW55x_RELEASE_V1.0.2/MSDK/wpa_supplicant/src/tls\tlsv1_common.c **** 		return -1;
 744              		.loc 1 396 5
 745 0070 E34A05FA 		blt	a0,zero,.L77
 398:C:/Users/stapi/OneDrive/Desktop/GD32VW553/V1_MQTT_OK/GD32VW55X_Wifi_BLE_SDK/GD32VW55x_RELEASE_V1.0.2/MSDK/wpa_supplicant/src/tls\tlsv1_common.c **** 
 746              		.loc 1 398 2 is_stmt 1
 398:C:/Users/stapi/OneDrive/Desktop/GD32VW553/V1_MQTT_OK/GD32VW55X_Wifi_BLE_SDK/GD32VW55x_RELEASE_V1.0.2/MSDK/wpa_supplicant/src/tls\tlsv1_common.c **** 
 747              		.loc 1 398 7 is_stmt 0
 748 0074 B24B     		lw	s7,12(sp)
 400:C:/Users/stapi/OneDrive/Desktop/GD32VW553/V1_MQTT_OK/GD32VW55X_Wifi_BLE_SDK/GD32VW55x_RELEASE_V1.0.2/MSDK/wpa_supplicant/src/tls\tlsv1_common.c **** 	if (ctx == NULL)
 749              		.loc 1 400 8
 750 0076 0146     		li	a2,0
 751 0078 8145     		li	a1,0
 752 007a 0545     		li	a0,1
 753 007c 97000000 		call	crypto_hash_init
 753      E7800000 
 754              	.LVL79:
 398:C:/Users/stapi/OneDrive/Desktop/GD32VW553/V1_MQTT_OK/GD32VW55X_Wifi_BLE_SDK/GD32VW55x_RELEASE_V1.0.2/MSDK/wpa_supplicant/src/tls\tlsv1_common.c **** 
 755              		.loc 1 398 7
 756 0084 33047901 		add	s0,s2,s7
 757              	.LVL80:
 400:C:/Users/stapi/OneDrive/Desktop/GD32VW553/V1_MQTT_OK/GD32VW55X_Wifi_BLE_SDK/GD32VW55x_RELEASE_V1.0.2/MSDK/wpa_supplicant/src/tls\tlsv1_common.c **** 	if (ctx == NULL)
 758              		.loc 1 400 2 is_stmt 1
 400:C:/Users/stapi/OneDrive/Desktop/GD32VW553/V1_MQTT_OK/GD32VW55X_Wifi_BLE_SDK/GD32VW55x_RELEASE_V1.0.2/MSDK/wpa_supplicant/src/tls\tlsv1_common.c **** 	if (ctx == NULL)
 759              		.loc 1 400 8 is_stmt 0
 760 0088 AA84     		mv	s1,a0
 761              	.LVL81:
 401:C:/Users/stapi/OneDrive/Desktop/GD32VW553/V1_MQTT_OK/GD32VW55X_Wifi_BLE_SDK/GD32VW55x_RELEASE_V1.0.2/MSDK/wpa_supplicant/src/tls\tlsv1_common.c **** 		return -1;
 762              		.loc 1 401 2 is_stmt 1
 401:C:/Users/stapi/OneDrive/Desktop/GD32VW553/V1_MQTT_OK/GD32VW55X_Wifi_BLE_SDK/GD32VW55x_RELEASE_V1.0.2/MSDK/wpa_supplicant/src/tls\tlsv1_common.c **** 		return -1;
 763              		.loc 1 401 5 is_stmt 0
 764 008a 49DD     		beq	a0,zero,.L77
 403:C:/Users/stapi/OneDrive/Desktop/GD32VW553/V1_MQTT_OK/GD32VW55X_Wifi_BLE_SDK/GD32VW55x_RELEASE_V1.0.2/MSDK/wpa_supplicant/src/tls\tlsv1_common.c **** 	crypto_hash_update(ctx, server_random, TLS_RANDOM_LEN);
 765              		.loc 1 403 2 is_stmt 1
 766 008c 13060002 		li	a2,32
 767 0090 DA85     		mv	a1,s6
 768 0092 97000000 		call	crypto_hash_update
 768      E7800000 
 769              	.LVL82:
 404:C:/Users/stapi/OneDrive/Desktop/GD32VW553/V1_MQTT_OK/GD32VW55X_Wifi_BLE_SDK/GD32VW55x_RELEASE_V1.0.2/MSDK/wpa_supplicant/src/tls\tlsv1_common.c **** 	crypto_hash_update(ctx, server_params, server_params_len);
 770              		.loc 1 404 2
 771 009a 13060002 		li	a2,32
 772 009e D685     		mv	a1,s5
 773 00a0 2685     		mv	a0,s1
 774 00a2 97000000 		call	crypto_hash_update
 774      E7800000 
 775              	.LVL83:
 405:C:/Users/stapi/OneDrive/Desktop/GD32VW553/V1_MQTT_OK/GD32VW55X_Wifi_BLE_SDK/GD32VW55x_RELEASE_V1.0.2/MSDK/wpa_supplicant/src/tls\tlsv1_common.c **** 	hlen = hash + sizeof(hash) - hpos;
 776              		.loc 1 405 2
 777 00aa 5286     		mv	a2,s4
 778 00ac CE85     		mv	a1,s3
 779 00ae 2685     		mv	a0,s1
 780 00b0 97000000 		call	crypto_hash_update
 780      E7800000 
 781              	.LVL84:
 406:C:/Users/stapi/OneDrive/Desktop/GD32VW553/V1_MQTT_OK/GD32VW55X_Wifi_BLE_SDK/GD32VW55x_RELEASE_V1.0.2/MSDK/wpa_supplicant/src/tls\tlsv1_common.c **** 	if (crypto_hash_finish(ctx, hpos, &hlen) < 0)
 782              		.loc 1 406 2
 406:C:/Users/stapi/OneDrive/Desktop/GD32VW553/V1_MQTT_OK/GD32VW55X_Wifi_BLE_SDK/GD32VW55x_RELEASE_V1.0.2/MSDK/wpa_supplicant/src/tls\tlsv1_common.c **** 	if (crypto_hash_finish(ctx, hpos, &hlen) < 0)
 783              		.loc 1 406 29 is_stmt 0
 784 00b8 9147     		li	a5,4
 785 00ba B3877741 		sub	a5,a5,s7
 407:C:/Users/stapi/OneDrive/Desktop/GD32VW553/V1_MQTT_OK/GD32VW55X_Wifi_BLE_SDK/GD32VW55x_RELEASE_V1.0.2/MSDK/wpa_supplicant/src/tls\tlsv1_common.c **** 		return -1;
 786              		.loc 1 407 6
 787 00be 7000     		addi	a2,sp,12
 788 00c0 A285     		mv	a1,s0
 789 00c2 2685     		mv	a0,s1
 406:C:/Users/stapi/OneDrive/Desktop/GD32VW553/V1_MQTT_OK/GD32VW55X_Wifi_BLE_SDK/GD32VW55x_RELEASE_V1.0.2/MSDK/wpa_supplicant/src/tls\tlsv1_common.c **** 	if (crypto_hash_finish(ctx, hpos, &hlen) < 0)
 790              		.loc 1 406 7
 791 00c4 3EC6     		sw	a5,12(sp)
 407:C:/Users/stapi/OneDrive/Desktop/GD32VW553/V1_MQTT_OK/GD32VW55X_Wifi_BLE_SDK/GD32VW55x_RELEASE_V1.0.2/MSDK/wpa_supplicant/src/tls\tlsv1_common.c **** 		return -1;
 792              		.loc 1 407 2 is_stmt 1
 407:C:/Users/stapi/OneDrive/Desktop/GD32VW553/V1_MQTT_OK/GD32VW55X_Wifi_BLE_SDK/GD32VW55x_RELEASE_V1.0.2/MSDK/wpa_supplicant/src/tls\tlsv1_common.c **** 		return -1;
 793              		.loc 1 407 6 is_stmt 0
 794 00c6 97000000 		call	crypto_hash_finish
 794      E7800000 
 795              	.LVL85:
 407:C:/Users/stapi/OneDrive/Desktop/GD32VW553/V1_MQTT_OK/GD32VW55X_Wifi_BLE_SDK/GD32VW55x_RELEASE_V1.0.2/MSDK/wpa_supplicant/src/tls\tlsv1_common.c **** 		return -1;
 796              		.loc 1 407 5
 797 00ce E34B05F4 		blt	a0,zero,.L77
 409:C:/Users/stapi/OneDrive/Desktop/GD32VW553/V1_MQTT_OK/GD32VW55X_Wifi_BLE_SDK/GD32VW55x_RELEASE_V1.0.2/MSDK/wpa_supplicant/src/tls\tlsv1_common.c **** 	return hpos - hash;
 798              		.loc 1 409 2 is_stmt 1
 799              	.LVL86:
 410:C:/Users/stapi/OneDrive/Desktop/GD32VW553/V1_MQTT_OK/GD32VW55X_Wifi_BLE_SDK/GD32VW55x_RELEASE_V1.0.2/MSDK/wpa_supplicant/src/tls\tlsv1_common.c **** }
 800              		.loc 1 410 2
 409:C:/Users/stapi/OneDrive/Desktop/GD32VW553/V1_MQTT_OK/GD32VW55X_Wifi_BLE_SDK/GD32VW55x_RELEASE_V1.0.2/MSDK/wpa_supplicant/src/tls\tlsv1_common.c **** 	return hpos - hash;
 801              		.loc 1 409 7 is_stmt 0
 802 00d2 3245     		lw	a0,12(sp)
 803 00d4 2A94     		add	s0,s0,a0
 804              	.LVL87:
 410:C:/Users/stapi/OneDrive/Desktop/GD32VW553/V1_MQTT_OK/GD32VW55X_Wifi_BLE_SDK/GD32VW55x_RELEASE_V1.0.2/MSDK/wpa_supplicant/src/tls\tlsv1_common.c **** }
 805              		.loc 1 410 14
 806 00d6 33052441 		sub	a0,s0,s2
 807 00da B1B7     		j	.L74
 808              		.cfi_endproc
 809              	.LFE96:
 811              		.section	.rodata.tls_verify_signature.str1.4,"aMS",@progbits,1
 812              		.align	2
 813              	.LC4:
 814 0000 41646469 		.string	"Additional data after Signature"
 814      74696F6E 
 814      616C2064 
 814      61746120 
 814      61667465 
 815              		.align	2
 816              	.LC5:
 817 0020 544C5376 		.string	"TLSv1: Signature"
 817      313A2053 
 817      69676E61 
 817      74757265 
 817      00
 818 0031 000000   		.align	2
 819              	.LC6:
 820 0034 544C5376 		.string	"TLSv1: No public key to verify signature"
 820      313A204E 
 820      6F207075 
 820      626C6963 
 820      206B6579 
 821 005d 000000   		.align	2
 822              	.LC7:
 823 0060 544C5376 		.string	"TLSv1: Failed to decrypt signature"
 823      313A2046 
 823      61696C65 
 823      6420746F 
 823      20646563 
 824 0083 00       		.align	2
 825              	.LC8:
 826 0084 544C5376 		.string	"TLSv1: Decrypted Signature"
 826      313A2044 
 826      65637279 
 826      70746564 
 826      20536967 
 827 009f 00       		.align	2
 828              	.LC9:
 829 00a0 544C5376 		.string	"TLSv1: Invalid Signature in CertificateVerify - did not match calculated hash"
 829      313A2049 
 829      6E76616C 
 829      69642053 
 829      69676E61 
 830              		.section	.text.tls_verify_signature,"ax",@progbits
 831              		.align	1
 832              		.globl	tls_verify_signature
 834              	tls_verify_signature:
 835              	.LFB97:
 412:C:/Users/stapi/OneDrive/Desktop/GD32VW553/V1_MQTT_OK/GD32VW55X_Wifi_BLE_SDK/GD32VW55x_RELEASE_V1.0.2/MSDK/wpa_supplicant/src/tls\tlsv1_common.c **** 
 413:C:/Users/stapi/OneDrive/Desktop/GD32VW553/V1_MQTT_OK/GD32VW55X_Wifi_BLE_SDK/GD32VW55x_RELEASE_V1.0.2/MSDK/wpa_supplicant/src/tls\tlsv1_common.c **** 
 414:C:/Users/stapi/OneDrive/Desktop/GD32VW553/V1_MQTT_OK/GD32VW55X_Wifi_BLE_SDK/GD32VW55x_RELEASE_V1.0.2/MSDK/wpa_supplicant/src/tls\tlsv1_common.c **** int tls_verify_signature(u16 tls_version, struct crypto_public_key *pk,
 415:C:/Users/stapi/OneDrive/Desktop/GD32VW553/V1_MQTT_OK/GD32VW55X_Wifi_BLE_SDK/GD32VW55x_RELEASE_V1.0.2/MSDK/wpa_supplicant/src/tls\tlsv1_common.c **** 			 const u8 *data, size_t data_len,
 416:C:/Users/stapi/OneDrive/Desktop/GD32VW553/V1_MQTT_OK/GD32VW55X_Wifi_BLE_SDK/GD32VW55x_RELEASE_V1.0.2/MSDK/wpa_supplicant/src/tls\tlsv1_common.c **** 			 const u8 *pos, size_t len, u8 *alert)
 417:C:/Users/stapi/OneDrive/Desktop/GD32VW553/V1_MQTT_OK/GD32VW55X_Wifi_BLE_SDK/GD32VW55x_RELEASE_V1.0.2/MSDK/wpa_supplicant/src/tls\tlsv1_common.c **** {
 836              		.loc 1 417 1 is_stmt 1
 837              		.cfi_startproc
 838              	.LVL88:
 839 0000 17030000 		call	t0,__riscv_save_7
 839      E7020300 
 840              		.cfi_offset 22, -32
 841              		.cfi_offset 21, -28
 842              		.cfi_offset 20, -24
 843              		.cfi_offset 19, -20
 844              		.cfi_offset 18, -16
 845              		.cfi_offset 9, -12
 846              		.cfi_offset 8, -8
 847              		.cfi_offset 1, -4
 848              		.cfi_def_cfa_offset 32
 418:C:/Users/stapi/OneDrive/Desktop/GD32VW553/V1_MQTT_OK/GD32VW55X_Wifi_BLE_SDK/GD32VW55x_RELEASE_V1.0.2/MSDK/wpa_supplicant/src/tls\tlsv1_common.c **** 	u8 *buf;
 849              		.loc 1 418 2
 419:C:/Users/stapi/OneDrive/Desktop/GD32VW553/V1_MQTT_OK/GD32VW55X_Wifi_BLE_SDK/GD32VW55x_RELEASE_V1.0.2/MSDK/wpa_supplicant/src/tls\tlsv1_common.c **** 	const u8 *end = pos + len;
 850              		.loc 1 419 2
 851              	.LVL89:
 420:C:/Users/stapi/OneDrive/Desktop/GD32VW553/V1_MQTT_OK/GD32VW55X_Wifi_BLE_SDK/GD32VW55x_RELEASE_V1.0.2/MSDK/wpa_supplicant/src/tls\tlsv1_common.c **** 	const u8 *decrypted;
 852              		.loc 1 420 2
 421:C:/Users/stapi/OneDrive/Desktop/GD32VW553/V1_MQTT_OK/GD32VW55X_Wifi_BLE_SDK/GD32VW55x_RELEASE_V1.0.2/MSDK/wpa_supplicant/src/tls\tlsv1_common.c **** 	u16 slen;
 853              		.loc 1 421 2
 422:C:/Users/stapi/OneDrive/Desktop/GD32VW553/V1_MQTT_OK/GD32VW55X_Wifi_BLE_SDK/GD32VW55x_RELEASE_V1.0.2/MSDK/wpa_supplicant/src/tls\tlsv1_common.c **** 	size_t buflen;
 854              		.loc 1 422 2
 423:C:/Users/stapi/OneDrive/Desktop/GD32VW553/V1_MQTT_OK/GD32VW55X_Wifi_BLE_SDK/GD32VW55x_RELEASE_V1.0.2/MSDK/wpa_supplicant/src/tls\tlsv1_common.c **** 
 424:C:/Users/stapi/OneDrive/Desktop/GD32VW553/V1_MQTT_OK/GD32VW55X_Wifi_BLE_SDK/GD32VW55x_RELEASE_V1.0.2/MSDK/wpa_supplicant/src/tls\tlsv1_common.c **** 	if (end - pos < 2) {
 855              		.loc 1 424 2
 417:C:/Users/stapi/OneDrive/Desktop/GD32VW553/V1_MQTT_OK/GD32VW55X_Wifi_BLE_SDK/GD32VW55x_RELEASE_V1.0.2/MSDK/wpa_supplicant/src/tls\tlsv1_common.c **** 	u8 *buf;
 856              		.loc 1 417 1 is_stmt 0
 857 0008 B689     		mv	s3,a3
 858              		.loc 1 424 5
 859 000a 8546     		li	a3,1
 860              	.LVL90:
 417:C:/Users/stapi/OneDrive/Desktop/GD32VW553/V1_MQTT_OK/GD32VW55X_Wifi_BLE_SDK/GD32VW55x_RELEASE_V1.0.2/MSDK/wpa_supplicant/src/tls\tlsv1_common.c **** 	u8 *buf;
 861              		.loc 1 417 1
 862 000c 4111     		addi	sp,sp,-16
 863              		.cfi_def_cfa_offset 48
 417:C:/Users/stapi/OneDrive/Desktop/GD32VW553/V1_MQTT_OK/GD32VW55X_Wifi_BLE_SDK/GD32VW55x_RELEASE_V1.0.2/MSDK/wpa_supplicant/src/tls\tlsv1_common.c **** 	u8 *buf;
 864              		.loc 1 417 1
 865 000e 4289     		mv	s2,a6
 866              		.loc 1 424 5
 867 0010 63CDF600 		bgt	a5,a3,.L83
 868              	.LVL91:
 869              	.L85:
 425:C:/Users/stapi/OneDrive/Desktop/GD32VW553/V1_MQTT_OK/GD32VW55X_Wifi_BLE_SDK/GD32VW55x_RELEASE_V1.0.2/MSDK/wpa_supplicant/src/tls\tlsv1_common.c **** 		*alert = TLS_ALERT_DECODE_ERROR;
 870              		.loc 1 425 3 is_stmt 1
 871              		.loc 1 425 10 is_stmt 0
 872 0014 93072003 		li	a5,50
 873              	.LVL92:
 874              	.L95:
 426:C:/Users/stapi/OneDrive/Desktop/GD32VW553/V1_MQTT_OK/GD32VW55X_Wifi_BLE_SDK/GD32VW55x_RELEASE_V1.0.2/MSDK/wpa_supplicant/src/tls\tlsv1_common.c **** 		return -1;
 427:C:/Users/stapi/OneDrive/Desktop/GD32VW553/V1_MQTT_OK/GD32VW55X_Wifi_BLE_SDK/GD32VW55x_RELEASE_V1.0.2/MSDK/wpa_supplicant/src/tls\tlsv1_common.c **** 	}
 428:C:/Users/stapi/OneDrive/Desktop/GD32VW553/V1_MQTT_OK/GD32VW55X_Wifi_BLE_SDK/GD32VW55x_RELEASE_V1.0.2/MSDK/wpa_supplicant/src/tls\tlsv1_common.c **** 	slen = WPA_GET_BE16(pos);
 429:C:/Users/stapi/OneDrive/Desktop/GD32VW553/V1_MQTT_OK/GD32VW55X_Wifi_BLE_SDK/GD32VW55x_RELEASE_V1.0.2/MSDK/wpa_supplicant/src/tls\tlsv1_common.c **** 	pos += 2;
 430:C:/Users/stapi/OneDrive/Desktop/GD32VW553/V1_MQTT_OK/GD32VW55X_Wifi_BLE_SDK/GD32VW55x_RELEASE_V1.0.2/MSDK/wpa_supplicant/src/tls\tlsv1_common.c **** 	if (end - pos < slen) {
 431:C:/Users/stapi/OneDrive/Desktop/GD32VW553/V1_MQTT_OK/GD32VW55X_Wifi_BLE_SDK/GD32VW55x_RELEASE_V1.0.2/MSDK/wpa_supplicant/src/tls\tlsv1_common.c **** 		*alert = TLS_ALERT_DECODE_ERROR;
 432:C:/Users/stapi/OneDrive/Desktop/GD32VW553/V1_MQTT_OK/GD32VW55X_Wifi_BLE_SDK/GD32VW55x_RELEASE_V1.0.2/MSDK/wpa_supplicant/src/tls\tlsv1_common.c **** 		return -1;
 433:C:/Users/stapi/OneDrive/Desktop/GD32VW553/V1_MQTT_OK/GD32VW55X_Wifi_BLE_SDK/GD32VW55x_RELEASE_V1.0.2/MSDK/wpa_supplicant/src/tls\tlsv1_common.c **** 	}
 434:C:/Users/stapi/OneDrive/Desktop/GD32VW553/V1_MQTT_OK/GD32VW55X_Wifi_BLE_SDK/GD32VW55x_RELEASE_V1.0.2/MSDK/wpa_supplicant/src/tls\tlsv1_common.c **** 	if (end - pos > slen) {
 435:C:/Users/stapi/OneDrive/Desktop/GD32VW553/V1_MQTT_OK/GD32VW55X_Wifi_BLE_SDK/GD32VW55x_RELEASE_V1.0.2/MSDK/wpa_supplicant/src/tls\tlsv1_common.c **** 		wpa_hexdump(MSG_MSGDUMP, "Additional data after Signature",
 436:C:/Users/stapi/OneDrive/Desktop/GD32VW553/V1_MQTT_OK/GD32VW55X_Wifi_BLE_SDK/GD32VW55x_RELEASE_V1.0.2/MSDK/wpa_supplicant/src/tls\tlsv1_common.c **** 			    pos + slen, end - pos - slen);
 437:C:/Users/stapi/OneDrive/Desktop/GD32VW553/V1_MQTT_OK/GD32VW55X_Wifi_BLE_SDK/GD32VW55x_RELEASE_V1.0.2/MSDK/wpa_supplicant/src/tls\tlsv1_common.c **** 		end = pos + slen;
 438:C:/Users/stapi/OneDrive/Desktop/GD32VW553/V1_MQTT_OK/GD32VW55X_Wifi_BLE_SDK/GD32VW55x_RELEASE_V1.0.2/MSDK/wpa_supplicant/src/tls\tlsv1_common.c **** 	}
 439:C:/Users/stapi/OneDrive/Desktop/GD32VW553/V1_MQTT_OK/GD32VW55X_Wifi_BLE_SDK/GD32VW55x_RELEASE_V1.0.2/MSDK/wpa_supplicant/src/tls\tlsv1_common.c **** 
 440:C:/Users/stapi/OneDrive/Desktop/GD32VW553/V1_MQTT_OK/GD32VW55X_Wifi_BLE_SDK/GD32VW55x_RELEASE_V1.0.2/MSDK/wpa_supplicant/src/tls\tlsv1_common.c **** 	wpa_hexdump(MSG_MSGDUMP, "TLSv1: Signature", pos, end - pos);
 441:C:/Users/stapi/OneDrive/Desktop/GD32VW553/V1_MQTT_OK/GD32VW55X_Wifi_BLE_SDK/GD32VW55x_RELEASE_V1.0.2/MSDK/wpa_supplicant/src/tls\tlsv1_common.c **** 	if (pk == NULL) {
 442:C:/Users/stapi/OneDrive/Desktop/GD32VW553/V1_MQTT_OK/GD32VW55X_Wifi_BLE_SDK/GD32VW55x_RELEASE_V1.0.2/MSDK/wpa_supplicant/src/tls\tlsv1_common.c **** 		wpa_printf(MSG_DEBUG, "TLSv1: No public key to verify signature");
 443:C:/Users/stapi/OneDrive/Desktop/GD32VW553/V1_MQTT_OK/GD32VW55X_Wifi_BLE_SDK/GD32VW55x_RELEASE_V1.0.2/MSDK/wpa_supplicant/src/tls\tlsv1_common.c **** 		*alert = TLS_ALERT_INTERNAL_ERROR;
 444:C:/Users/stapi/OneDrive/Desktop/GD32VW553/V1_MQTT_OK/GD32VW55X_Wifi_BLE_SDK/GD32VW55x_RELEASE_V1.0.2/MSDK/wpa_supplicant/src/tls\tlsv1_common.c **** 		return -1;
 445:C:/Users/stapi/OneDrive/Desktop/GD32VW553/V1_MQTT_OK/GD32VW55X_Wifi_BLE_SDK/GD32VW55x_RELEASE_V1.0.2/MSDK/wpa_supplicant/src/tls\tlsv1_common.c **** 	}
 446:C:/Users/stapi/OneDrive/Desktop/GD32VW553/V1_MQTT_OK/GD32VW55X_Wifi_BLE_SDK/GD32VW55x_RELEASE_V1.0.2/MSDK/wpa_supplicant/src/tls\tlsv1_common.c **** 
 447:C:/Users/stapi/OneDrive/Desktop/GD32VW553/V1_MQTT_OK/GD32VW55X_Wifi_BLE_SDK/GD32VW55x_RELEASE_V1.0.2/MSDK/wpa_supplicant/src/tls\tlsv1_common.c **** 	buflen = end - pos;
 448:C:/Users/stapi/OneDrive/Desktop/GD32VW553/V1_MQTT_OK/GD32VW55X_Wifi_BLE_SDK/GD32VW55x_RELEASE_V1.0.2/MSDK/wpa_supplicant/src/tls\tlsv1_common.c **** 	buf = os_malloc(end - pos);
 449:C:/Users/stapi/OneDrive/Desktop/GD32VW553/V1_MQTT_OK/GD32VW55X_Wifi_BLE_SDK/GD32VW55x_RELEASE_V1.0.2/MSDK/wpa_supplicant/src/tls\tlsv1_common.c **** 	if (buf == NULL) {
 450:C:/Users/stapi/OneDrive/Desktop/GD32VW553/V1_MQTT_OK/GD32VW55X_Wifi_BLE_SDK/GD32VW55x_RELEASE_V1.0.2/MSDK/wpa_supplicant/src/tls\tlsv1_common.c **** 		*alert = TLS_ALERT_INTERNAL_ERROR;
 451:C:/Users/stapi/OneDrive/Desktop/GD32VW553/V1_MQTT_OK/GD32VW55X_Wifi_BLE_SDK/GD32VW55x_RELEASE_V1.0.2/MSDK/wpa_supplicant/src/tls\tlsv1_common.c **** 		return -1;
 452:C:/Users/stapi/OneDrive/Desktop/GD32VW553/V1_MQTT_OK/GD32VW55X_Wifi_BLE_SDK/GD32VW55x_RELEASE_V1.0.2/MSDK/wpa_supplicant/src/tls\tlsv1_common.c **** 	}
 453:C:/Users/stapi/OneDrive/Desktop/GD32VW553/V1_MQTT_OK/GD32VW55X_Wifi_BLE_SDK/GD32VW55x_RELEASE_V1.0.2/MSDK/wpa_supplicant/src/tls\tlsv1_common.c **** 	if (crypto_public_key_decrypt_pkcs1(pk, pos, end - pos, buf, &buflen) <
 454:C:/Users/stapi/OneDrive/Desktop/GD32VW553/V1_MQTT_OK/GD32VW55X_Wifi_BLE_SDK/GD32VW55x_RELEASE_V1.0.2/MSDK/wpa_supplicant/src/tls\tlsv1_common.c **** 	    0) {
 455:C:/Users/stapi/OneDrive/Desktop/GD32VW553/V1_MQTT_OK/GD32VW55X_Wifi_BLE_SDK/GD32VW55x_RELEASE_V1.0.2/MSDK/wpa_supplicant/src/tls\tlsv1_common.c **** 		wpa_printf(MSG_DEBUG, "TLSv1: Failed to decrypt signature");
 456:C:/Users/stapi/OneDrive/Desktop/GD32VW553/V1_MQTT_OK/GD32VW55X_Wifi_BLE_SDK/GD32VW55x_RELEASE_V1.0.2/MSDK/wpa_supplicant/src/tls\tlsv1_common.c **** 		os_free(buf);
 457:C:/Users/stapi/OneDrive/Desktop/GD32VW553/V1_MQTT_OK/GD32VW55X_Wifi_BLE_SDK/GD32VW55x_RELEASE_V1.0.2/MSDK/wpa_supplicant/src/tls\tlsv1_common.c **** 		*alert = TLS_ALERT_DECRYPT_ERROR;
 458:C:/Users/stapi/OneDrive/Desktop/GD32VW553/V1_MQTT_OK/GD32VW55X_Wifi_BLE_SDK/GD32VW55x_RELEASE_V1.0.2/MSDK/wpa_supplicant/src/tls\tlsv1_common.c **** 		return -1;
 459:C:/Users/stapi/OneDrive/Desktop/GD32VW553/V1_MQTT_OK/GD32VW55X_Wifi_BLE_SDK/GD32VW55x_RELEASE_V1.0.2/MSDK/wpa_supplicant/src/tls\tlsv1_common.c **** 	}
 460:C:/Users/stapi/OneDrive/Desktop/GD32VW553/V1_MQTT_OK/GD32VW55X_Wifi_BLE_SDK/GD32VW55x_RELEASE_V1.0.2/MSDK/wpa_supplicant/src/tls\tlsv1_common.c **** 	decrypted = buf;
 461:C:/Users/stapi/OneDrive/Desktop/GD32VW553/V1_MQTT_OK/GD32VW55X_Wifi_BLE_SDK/GD32VW55x_RELEASE_V1.0.2/MSDK/wpa_supplicant/src/tls\tlsv1_common.c **** 
 462:C:/Users/stapi/OneDrive/Desktop/GD32VW553/V1_MQTT_OK/GD32VW55X_Wifi_BLE_SDK/GD32VW55x_RELEASE_V1.0.2/MSDK/wpa_supplicant/src/tls\tlsv1_common.c **** 	wpa_hexdump_key(MSG_MSGDUMP, "TLSv1: Decrypted Signature",
 463:C:/Users/stapi/OneDrive/Desktop/GD32VW553/V1_MQTT_OK/GD32VW55X_Wifi_BLE_SDK/GD32VW55x_RELEASE_V1.0.2/MSDK/wpa_supplicant/src/tls\tlsv1_common.c **** 			decrypted, buflen);
 464:C:/Users/stapi/OneDrive/Desktop/GD32VW553/V1_MQTT_OK/GD32VW55X_Wifi_BLE_SDK/GD32VW55x_RELEASE_V1.0.2/MSDK/wpa_supplicant/src/tls\tlsv1_common.c **** 
 465:C:/Users/stapi/OneDrive/Desktop/GD32VW553/V1_MQTT_OK/GD32VW55X_Wifi_BLE_SDK/GD32VW55x_RELEASE_V1.0.2/MSDK/wpa_supplicant/src/tls\tlsv1_common.c **** #ifdef CONFIG_TLSV12
 466:C:/Users/stapi/OneDrive/Desktop/GD32VW553/V1_MQTT_OK/GD32VW55X_Wifi_BLE_SDK/GD32VW55x_RELEASE_V1.0.2/MSDK/wpa_supplicant/src/tls\tlsv1_common.c **** 	if (tls_version >= TLS_VERSION_1_2) {
 467:C:/Users/stapi/OneDrive/Desktop/GD32VW553/V1_MQTT_OK/GD32VW55X_Wifi_BLE_SDK/GD32VW55x_RELEASE_V1.0.2/MSDK/wpa_supplicant/src/tls\tlsv1_common.c **** 		/*
 468:C:/Users/stapi/OneDrive/Desktop/GD32VW553/V1_MQTT_OK/GD32VW55X_Wifi_BLE_SDK/GD32VW55x_RELEASE_V1.0.2/MSDK/wpa_supplicant/src/tls\tlsv1_common.c **** 		 * RFC 3447, A.2.4 RSASSA-PKCS1-v1_5
 469:C:/Users/stapi/OneDrive/Desktop/GD32VW553/V1_MQTT_OK/GD32VW55X_Wifi_BLE_SDK/GD32VW55x_RELEASE_V1.0.2/MSDK/wpa_supplicant/src/tls\tlsv1_common.c **** 		 *
 470:C:/Users/stapi/OneDrive/Desktop/GD32VW553/V1_MQTT_OK/GD32VW55X_Wifi_BLE_SDK/GD32VW55x_RELEASE_V1.0.2/MSDK/wpa_supplicant/src/tls\tlsv1_common.c **** 		 * DigestInfo ::= SEQUENCE {
 471:C:/Users/stapi/OneDrive/Desktop/GD32VW553/V1_MQTT_OK/GD32VW55X_Wifi_BLE_SDK/GD32VW55x_RELEASE_V1.0.2/MSDK/wpa_supplicant/src/tls\tlsv1_common.c **** 		 *   digestAlgorithm DigestAlgorithm,
 472:C:/Users/stapi/OneDrive/Desktop/GD32VW553/V1_MQTT_OK/GD32VW55X_Wifi_BLE_SDK/GD32VW55x_RELEASE_V1.0.2/MSDK/wpa_supplicant/src/tls\tlsv1_common.c **** 		 *   digest OCTET STRING
 473:C:/Users/stapi/OneDrive/Desktop/GD32VW553/V1_MQTT_OK/GD32VW55X_Wifi_BLE_SDK/GD32VW55x_RELEASE_V1.0.2/MSDK/wpa_supplicant/src/tls\tlsv1_common.c **** 		 * }
 474:C:/Users/stapi/OneDrive/Desktop/GD32VW553/V1_MQTT_OK/GD32VW55X_Wifi_BLE_SDK/GD32VW55x_RELEASE_V1.0.2/MSDK/wpa_supplicant/src/tls\tlsv1_common.c **** 		 *
 475:C:/Users/stapi/OneDrive/Desktop/GD32VW553/V1_MQTT_OK/GD32VW55X_Wifi_BLE_SDK/GD32VW55x_RELEASE_V1.0.2/MSDK/wpa_supplicant/src/tls\tlsv1_common.c **** 		 * SHA-256 OID: sha256WithRSAEncryption ::= {pkcs-1 11}
 476:C:/Users/stapi/OneDrive/Desktop/GD32VW553/V1_MQTT_OK/GD32VW55X_Wifi_BLE_SDK/GD32VW55x_RELEASE_V1.0.2/MSDK/wpa_supplicant/src/tls\tlsv1_common.c **** 		 *
 477:C:/Users/stapi/OneDrive/Desktop/GD32VW553/V1_MQTT_OK/GD32VW55X_Wifi_BLE_SDK/GD32VW55x_RELEASE_V1.0.2/MSDK/wpa_supplicant/src/tls\tlsv1_common.c **** 		 * DER encoded DigestInfo for SHA256 per RFC 3447:
 478:C:/Users/stapi/OneDrive/Desktop/GD32VW553/V1_MQTT_OK/GD32VW55X_Wifi_BLE_SDK/GD32VW55x_RELEASE_V1.0.2/MSDK/wpa_supplicant/src/tls\tlsv1_common.c **** 		 * 30 31 30 0d 06 09 60 86 48 01 65 03 04 02 01 05 00 04 20 ||
 479:C:/Users/stapi/OneDrive/Desktop/GD32VW553/V1_MQTT_OK/GD32VW55X_Wifi_BLE_SDK/GD32VW55x_RELEASE_V1.0.2/MSDK/wpa_supplicant/src/tls\tlsv1_common.c **** 		 * H
 480:C:/Users/stapi/OneDrive/Desktop/GD32VW553/V1_MQTT_OK/GD32VW55X_Wifi_BLE_SDK/GD32VW55x_RELEASE_V1.0.2/MSDK/wpa_supplicant/src/tls\tlsv1_common.c **** 		 */
 481:C:/Users/stapi/OneDrive/Desktop/GD32VW553/V1_MQTT_OK/GD32VW55X_Wifi_BLE_SDK/GD32VW55x_RELEASE_V1.0.2/MSDK/wpa_supplicant/src/tls\tlsv1_common.c **** 		if (buflen >= 19 + 32 &&
 482:C:/Users/stapi/OneDrive/Desktop/GD32VW553/V1_MQTT_OK/GD32VW55X_Wifi_BLE_SDK/GD32VW55x_RELEASE_V1.0.2/MSDK/wpa_supplicant/src/tls\tlsv1_common.c **** 		    os_memcmp(buf, "\x30\x31\x30\x0d\x06\x09\x60\x86\x48\x01"
 483:C:/Users/stapi/OneDrive/Desktop/GD32VW553/V1_MQTT_OK/GD32VW55X_Wifi_BLE_SDK/GD32VW55x_RELEASE_V1.0.2/MSDK/wpa_supplicant/src/tls\tlsv1_common.c **** 			      "\x65\x03\x04\x02\x01\x05\x00\x04\x20", 19) == 0)
 484:C:/Users/stapi/OneDrive/Desktop/GD32VW553/V1_MQTT_OK/GD32VW55X_Wifi_BLE_SDK/GD32VW55x_RELEASE_V1.0.2/MSDK/wpa_supplicant/src/tls\tlsv1_common.c **** 		{
 485:C:/Users/stapi/OneDrive/Desktop/GD32VW553/V1_MQTT_OK/GD32VW55X_Wifi_BLE_SDK/GD32VW55x_RELEASE_V1.0.2/MSDK/wpa_supplicant/src/tls\tlsv1_common.c **** 			wpa_printf(MSG_DEBUG, "TLSv1.2: DigestAlgorithm = SHA-256");
 486:C:/Users/stapi/OneDrive/Desktop/GD32VW553/V1_MQTT_OK/GD32VW55X_Wifi_BLE_SDK/GD32VW55x_RELEASE_V1.0.2/MSDK/wpa_supplicant/src/tls\tlsv1_common.c **** 			decrypted = buf + 19;
 487:C:/Users/stapi/OneDrive/Desktop/GD32VW553/V1_MQTT_OK/GD32VW55X_Wifi_BLE_SDK/GD32VW55x_RELEASE_V1.0.2/MSDK/wpa_supplicant/src/tls\tlsv1_common.c **** 			buflen -= 19;
 488:C:/Users/stapi/OneDrive/Desktop/GD32VW553/V1_MQTT_OK/GD32VW55X_Wifi_BLE_SDK/GD32VW55x_RELEASE_V1.0.2/MSDK/wpa_supplicant/src/tls\tlsv1_common.c **** 		} else if (buflen >= 19 + 48 &&
 489:C:/Users/stapi/OneDrive/Desktop/GD32VW553/V1_MQTT_OK/GD32VW55X_Wifi_BLE_SDK/GD32VW55x_RELEASE_V1.0.2/MSDK/wpa_supplicant/src/tls\tlsv1_common.c **** 		    os_memcmp(buf, "\x30\x41\x30\x0d\x06\x09\x60\x86\x48\x01"
 490:C:/Users/stapi/OneDrive/Desktop/GD32VW553/V1_MQTT_OK/GD32VW55X_Wifi_BLE_SDK/GD32VW55x_RELEASE_V1.0.2/MSDK/wpa_supplicant/src/tls\tlsv1_common.c **** 			      "\x65\x03\x04\x02\x02\x05\x00\x04\x30", 19) == 0)
 491:C:/Users/stapi/OneDrive/Desktop/GD32VW553/V1_MQTT_OK/GD32VW55X_Wifi_BLE_SDK/GD32VW55x_RELEASE_V1.0.2/MSDK/wpa_supplicant/src/tls\tlsv1_common.c **** 		{
 492:C:/Users/stapi/OneDrive/Desktop/GD32VW553/V1_MQTT_OK/GD32VW55X_Wifi_BLE_SDK/GD32VW55x_RELEASE_V1.0.2/MSDK/wpa_supplicant/src/tls\tlsv1_common.c **** 			wpa_printf(MSG_DEBUG, "TLSv1.2: DigestAlgorithm = SHA-384");
 493:C:/Users/stapi/OneDrive/Desktop/GD32VW553/V1_MQTT_OK/GD32VW55X_Wifi_BLE_SDK/GD32VW55x_RELEASE_V1.0.2/MSDK/wpa_supplicant/src/tls\tlsv1_common.c **** 			decrypted = buf + 19;
 494:C:/Users/stapi/OneDrive/Desktop/GD32VW553/V1_MQTT_OK/GD32VW55X_Wifi_BLE_SDK/GD32VW55x_RELEASE_V1.0.2/MSDK/wpa_supplicant/src/tls\tlsv1_common.c **** 			buflen -= 19;
 495:C:/Users/stapi/OneDrive/Desktop/GD32VW553/V1_MQTT_OK/GD32VW55X_Wifi_BLE_SDK/GD32VW55x_RELEASE_V1.0.2/MSDK/wpa_supplicant/src/tls\tlsv1_common.c **** 		} else if (buflen >= 19 + 64 &&
 496:C:/Users/stapi/OneDrive/Desktop/GD32VW553/V1_MQTT_OK/GD32VW55X_Wifi_BLE_SDK/GD32VW55x_RELEASE_V1.0.2/MSDK/wpa_supplicant/src/tls\tlsv1_common.c **** 		    os_memcmp(buf, "\x30\x51\x30\x0d\x06\x09\x60\x86\x48\x01"
 497:C:/Users/stapi/OneDrive/Desktop/GD32VW553/V1_MQTT_OK/GD32VW55X_Wifi_BLE_SDK/GD32VW55x_RELEASE_V1.0.2/MSDK/wpa_supplicant/src/tls\tlsv1_common.c **** 			      "\x65\x03\x04\x02\x03\x05\x00\x04\x40", 19) == 0)
 498:C:/Users/stapi/OneDrive/Desktop/GD32VW553/V1_MQTT_OK/GD32VW55X_Wifi_BLE_SDK/GD32VW55x_RELEASE_V1.0.2/MSDK/wpa_supplicant/src/tls\tlsv1_common.c **** 		{
 499:C:/Users/stapi/OneDrive/Desktop/GD32VW553/V1_MQTT_OK/GD32VW55X_Wifi_BLE_SDK/GD32VW55x_RELEASE_V1.0.2/MSDK/wpa_supplicant/src/tls\tlsv1_common.c **** 			wpa_printf(MSG_DEBUG, "TLSv1.2: DigestAlgorithm = SHA-512");
 500:C:/Users/stapi/OneDrive/Desktop/GD32VW553/V1_MQTT_OK/GD32VW55X_Wifi_BLE_SDK/GD32VW55x_RELEASE_V1.0.2/MSDK/wpa_supplicant/src/tls\tlsv1_common.c **** 			decrypted = buf + 19;
 501:C:/Users/stapi/OneDrive/Desktop/GD32VW553/V1_MQTT_OK/GD32VW55X_Wifi_BLE_SDK/GD32VW55x_RELEASE_V1.0.2/MSDK/wpa_supplicant/src/tls\tlsv1_common.c **** 			buflen -= 19;
 502:C:/Users/stapi/OneDrive/Desktop/GD32VW553/V1_MQTT_OK/GD32VW55X_Wifi_BLE_SDK/GD32VW55x_RELEASE_V1.0.2/MSDK/wpa_supplicant/src/tls\tlsv1_common.c **** 
 503:C:/Users/stapi/OneDrive/Desktop/GD32VW553/V1_MQTT_OK/GD32VW55X_Wifi_BLE_SDK/GD32VW55x_RELEASE_V1.0.2/MSDK/wpa_supplicant/src/tls\tlsv1_common.c **** 		} else {
 504:C:/Users/stapi/OneDrive/Desktop/GD32VW553/V1_MQTT_OK/GD32VW55X_Wifi_BLE_SDK/GD32VW55x_RELEASE_V1.0.2/MSDK/wpa_supplicant/src/tls\tlsv1_common.c **** 			wpa_printf(MSG_DEBUG, "TLSv1.2: Unrecognized DigestInfo");
 505:C:/Users/stapi/OneDrive/Desktop/GD32VW553/V1_MQTT_OK/GD32VW55X_Wifi_BLE_SDK/GD32VW55x_RELEASE_V1.0.2/MSDK/wpa_supplicant/src/tls\tlsv1_common.c **** 			os_free(buf);
 506:C:/Users/stapi/OneDrive/Desktop/GD32VW553/V1_MQTT_OK/GD32VW55X_Wifi_BLE_SDK/GD32VW55x_RELEASE_V1.0.2/MSDK/wpa_supplicant/src/tls\tlsv1_common.c **** 			*alert = TLS_ALERT_DECRYPT_ERROR;
 507:C:/Users/stapi/OneDrive/Desktop/GD32VW553/V1_MQTT_OK/GD32VW55X_Wifi_BLE_SDK/GD32VW55x_RELEASE_V1.0.2/MSDK/wpa_supplicant/src/tls\tlsv1_common.c **** 			return -1;
 508:C:/Users/stapi/OneDrive/Desktop/GD32VW553/V1_MQTT_OK/GD32VW55X_Wifi_BLE_SDK/GD32VW55x_RELEASE_V1.0.2/MSDK/wpa_supplicant/src/tls\tlsv1_common.c **** 		}
 509:C:/Users/stapi/OneDrive/Desktop/GD32VW553/V1_MQTT_OK/GD32VW55X_Wifi_BLE_SDK/GD32VW55x_RELEASE_V1.0.2/MSDK/wpa_supplicant/src/tls\tlsv1_common.c **** 	}
 510:C:/Users/stapi/OneDrive/Desktop/GD32VW553/V1_MQTT_OK/GD32VW55X_Wifi_BLE_SDK/GD32VW55x_RELEASE_V1.0.2/MSDK/wpa_supplicant/src/tls\tlsv1_common.c **** #endif /* CONFIG_TLSV12 */
 511:C:/Users/stapi/OneDrive/Desktop/GD32VW553/V1_MQTT_OK/GD32VW55X_Wifi_BLE_SDK/GD32VW55x_RELEASE_V1.0.2/MSDK/wpa_supplicant/src/tls\tlsv1_common.c **** 
 512:C:/Users/stapi/OneDrive/Desktop/GD32VW553/V1_MQTT_OK/GD32VW55X_Wifi_BLE_SDK/GD32VW55x_RELEASE_V1.0.2/MSDK/wpa_supplicant/src/tls\tlsv1_common.c **** 	if (buflen != data_len ||
 513:C:/Users/stapi/OneDrive/Desktop/GD32VW553/V1_MQTT_OK/GD32VW55X_Wifi_BLE_SDK/GD32VW55x_RELEASE_V1.0.2/MSDK/wpa_supplicant/src/tls\tlsv1_common.c **** 	    os_memcmp_const(decrypted, data, data_len) != 0) {
 514:C:/Users/stapi/OneDrive/Desktop/GD32VW553/V1_MQTT_OK/GD32VW55X_Wifi_BLE_SDK/GD32VW55x_RELEASE_V1.0.2/MSDK/wpa_supplicant/src/tls\tlsv1_common.c **** 		wpa_printf(MSG_DEBUG, "TLSv1: Invalid Signature in CertificateVerify - did not match calculated h
 515:C:/Users/stapi/OneDrive/Desktop/GD32VW553/V1_MQTT_OK/GD32VW55X_Wifi_BLE_SDK/GD32VW55x_RELEASE_V1.0.2/MSDK/wpa_supplicant/src/tls\tlsv1_common.c **** 		os_free(buf);
 516:C:/Users/stapi/OneDrive/Desktop/GD32VW553/V1_MQTT_OK/GD32VW55X_Wifi_BLE_SDK/GD32VW55x_RELEASE_V1.0.2/MSDK/wpa_supplicant/src/tls\tlsv1_common.c **** 		*alert = TLS_ALERT_DECRYPT_ERROR;
 875              		.loc 1 516 10
 876 0018 2300F900 		sb	a5,0(s2)
 517:C:/Users/stapi/OneDrive/Desktop/GD32VW553/V1_MQTT_OK/GD32VW55X_Wifi_BLE_SDK/GD32VW55x_RELEASE_V1.0.2/MSDK/wpa_supplicant/src/tls\tlsv1_common.c **** 		return -1;
 877              		.loc 1 517 3 is_stmt 1
 878              		.loc 1 517 10 is_stmt 0
 879 001c 7D54     		li	s0,-1
 880              	.L82:
 518:C:/Users/stapi/OneDrive/Desktop/GD32VW553/V1_MQTT_OK/GD32VW55X_Wifi_BLE_SDK/GD32VW55x_RELEASE_V1.0.2/MSDK/wpa_supplicant/src/tls\tlsv1_common.c **** 	}
 519:C:/Users/stapi/OneDrive/Desktop/GD32VW553/V1_MQTT_OK/GD32VW55X_Wifi_BLE_SDK/GD32VW55x_RELEASE_V1.0.2/MSDK/wpa_supplicant/src/tls\tlsv1_common.c **** 
 520:C:/Users/stapi/OneDrive/Desktop/GD32VW553/V1_MQTT_OK/GD32VW55X_Wifi_BLE_SDK/GD32VW55x_RELEASE_V1.0.2/MSDK/wpa_supplicant/src/tls\tlsv1_common.c **** 	os_free(buf);
 521:C:/Users/stapi/OneDrive/Desktop/GD32VW553/V1_MQTT_OK/GD32VW55X_Wifi_BLE_SDK/GD32VW55x_RELEASE_V1.0.2/MSDK/wpa_supplicant/src/tls\tlsv1_common.c **** 
 522:C:/Users/stapi/OneDrive/Desktop/GD32VW553/V1_MQTT_OK/GD32VW55X_Wifi_BLE_SDK/GD32VW55x_RELEASE_V1.0.2/MSDK/wpa_supplicant/src/tls\tlsv1_common.c **** 	return 0;
 523:C:/Users/stapi/OneDrive/Desktop/GD32VW553/V1_MQTT_OK/GD32VW55X_Wifi_BLE_SDK/GD32VW55x_RELEASE_V1.0.2/MSDK/wpa_supplicant/src/tls\tlsv1_common.c **** }
 881              		.loc 1 523 1
 882 001e 2285     		mv	a0,s0
 883 0020 4101     		addi	sp,sp,16
 884              		.cfi_remember_state
 885              		.cfi_def_cfa_offset 0
 886 0022 17030000 		tail	__riscv_restore_7
 886      67000300 
 887              		.cfi_restore 22
 888              		.cfi_restore 21
 889              		.cfi_restore 20
 890              		.cfi_restore 19
 891              		.cfi_restore 18
 892              		.cfi_restore 9
 893              		.cfi_restore 8
 894              		.cfi_restore 1
 895              		.cfi_def_cfa_offset -32
 896              	.LVL93:
 897              	.L83:
 898              		.cfi_restore_state
 428:C:/Users/stapi/OneDrive/Desktop/GD32VW553/V1_MQTT_OK/GD32VW55X_Wifi_BLE_SDK/GD32VW55x_RELEASE_V1.0.2/MSDK/wpa_supplicant/src/tls\tlsv1_common.c **** 	pos += 2;
 899              		.loc 1 428 2 is_stmt 1
 900              		.file 2 "..\\..\\..\\..\\wpa_supplicant\\src\\utils/common.h"
   1:..\..\..\..\wpa_supplicant\src\utils/common.h **** /*
   2:..\..\..\..\wpa_supplicant\src\utils/common.h ****  * wpa_supplicant/hostapd / common helper functions, etc.
   3:..\..\..\..\wpa_supplicant\src\utils/common.h ****  * Copyright (c) 2002-2007, Jouni Malinen <j@w1.fi>
   4:..\..\..\..\wpa_supplicant\src\utils/common.h ****  *
   5:..\..\..\..\wpa_supplicant\src\utils/common.h ****  * This software may be distributed under the terms of the BSD license.
   6:..\..\..\..\wpa_supplicant\src\utils/common.h ****  * See README for more details.
   7:..\..\..\..\wpa_supplicant\src\utils/common.h ****  */
   8:..\..\..\..\wpa_supplicant\src\utils/common.h **** 
   9:..\..\..\..\wpa_supplicant\src\utils/common.h **** #ifndef COMMON_H
  10:..\..\..\..\wpa_supplicant\src\utils/common.h **** #define COMMON_H
  11:..\..\..\..\wpa_supplicant\src\utils/common.h **** 
  12:..\..\..\..\wpa_supplicant\src\utils/common.h **** #include "os.h"
  13:..\..\..\..\wpa_supplicant\src\utils/common.h **** 
  14:..\..\..\..\wpa_supplicant\src\utils/common.h **** #if defined(__linux__) || defined(__GLIBC__)
  15:..\..\..\..\wpa_supplicant\src\utils/common.h **** #include <endian.h>
  16:..\..\..\..\wpa_supplicant\src\utils/common.h **** #include <byteswap.h>
  17:..\..\..\..\wpa_supplicant\src\utils/common.h **** #endif /* __linux__ */
  18:..\..\..\..\wpa_supplicant\src\utils/common.h **** 
  19:..\..\..\..\wpa_supplicant\src\utils/common.h **** #if defined(__FreeBSD__) || defined(__NetBSD__) || defined(__DragonFly__) || \
  20:..\..\..\..\wpa_supplicant\src\utils/common.h ****     defined(__OpenBSD__)
  21:..\..\..\..\wpa_supplicant\src\utils/common.h **** #include <sys/types.h>
  22:..\..\..\..\wpa_supplicant\src\utils/common.h **** #include <sys/endian.h>
  23:..\..\..\..\wpa_supplicant\src\utils/common.h **** #define __BYTE_ORDER	_BYTE_ORDER
  24:..\..\..\..\wpa_supplicant\src\utils/common.h **** #define	__LITTLE_ENDIAN	_LITTLE_ENDIAN
  25:..\..\..\..\wpa_supplicant\src\utils/common.h **** #define	__BIG_ENDIAN	_BIG_ENDIAN
  26:..\..\..\..\wpa_supplicant\src\utils/common.h **** #ifdef __OpenBSD__
  27:..\..\..\..\wpa_supplicant\src\utils/common.h **** #define bswap_16 swap16
  28:..\..\..\..\wpa_supplicant\src\utils/common.h **** #define bswap_32 swap32
  29:..\..\..\..\wpa_supplicant\src\utils/common.h **** #define bswap_64 swap64
  30:..\..\..\..\wpa_supplicant\src\utils/common.h **** #else /* __OpenBSD__ */
  31:..\..\..\..\wpa_supplicant\src\utils/common.h **** #define bswap_16 bswap16
  32:..\..\..\..\wpa_supplicant\src\utils/common.h **** #define bswap_32 bswap32
  33:..\..\..\..\wpa_supplicant\src\utils/common.h **** #define bswap_64 bswap64
  34:..\..\..\..\wpa_supplicant\src\utils/common.h **** #endif /* __OpenBSD__ */
  35:..\..\..\..\wpa_supplicant\src\utils/common.h **** #endif /* defined(__FreeBSD__) || defined(__NetBSD__) ||
  36:..\..\..\..\wpa_supplicant\src\utils/common.h **** 	* defined(__DragonFly__) || defined(__OpenBSD__) */
  37:..\..\..\..\wpa_supplicant\src\utils/common.h **** 
  38:..\..\..\..\wpa_supplicant\src\utils/common.h **** #ifdef __APPLE__
  39:..\..\..\..\wpa_supplicant\src\utils/common.h **** #include <sys/types.h>
  40:..\..\..\..\wpa_supplicant\src\utils/common.h **** #include <machine/endian.h>
  41:..\..\..\..\wpa_supplicant\src\utils/common.h **** #define __BYTE_ORDER	_BYTE_ORDER
  42:..\..\..\..\wpa_supplicant\src\utils/common.h **** #define __LITTLE_ENDIAN	_LITTLE_ENDIAN
  43:..\..\..\..\wpa_supplicant\src\utils/common.h **** #define __BIG_ENDIAN	_BIG_ENDIAN
  44:..\..\..\..\wpa_supplicant\src\utils/common.h **** static inline unsigned short bswap_16(unsigned short v)
  45:..\..\..\..\wpa_supplicant\src\utils/common.h **** {
  46:..\..\..\..\wpa_supplicant\src\utils/common.h **** 	return ((v & 0xff) << 8) | (v >> 8);
  47:..\..\..\..\wpa_supplicant\src\utils/common.h **** }
  48:..\..\..\..\wpa_supplicant\src\utils/common.h **** 
  49:..\..\..\..\wpa_supplicant\src\utils/common.h **** static inline unsigned int bswap_32(unsigned int v)
  50:..\..\..\..\wpa_supplicant\src\utils/common.h **** {
  51:..\..\..\..\wpa_supplicant\src\utils/common.h **** 	return ((v & 0xff) << 24) | ((v & 0xff00) << 8) |
  52:..\..\..\..\wpa_supplicant\src\utils/common.h **** 		((v & 0xff0000) >> 8) | (v >> 24);
  53:..\..\..\..\wpa_supplicant\src\utils/common.h **** }
  54:..\..\..\..\wpa_supplicant\src\utils/common.h **** #endif /* __APPLE__ */
  55:..\..\..\..\wpa_supplicant\src\utils/common.h **** 
  56:..\..\..\..\wpa_supplicant\src\utils/common.h **** #ifdef CONFIG_GDWIFI
  57:..\..\..\..\wpa_supplicant\src\utils/common.h **** // #include <sys/types.h>
  58:..\..\..\..\wpa_supplicant\src\utils/common.h **** // #include <machine/endian.h>
  59:..\..\..\..\wpa_supplicant\src\utils/common.h **** #define __BYTE_ORDER	BYTE_ORDER
  60:..\..\..\..\wpa_supplicant\src\utils/common.h **** #define __LITTLE_ENDIAN	LITTLE_ENDIAN
  61:..\..\..\..\wpa_supplicant\src\utils/common.h **** #define __BIG_ENDIAN	BIG_ENDIAN
  62:..\..\..\..\wpa_supplicant\src\utils/common.h **** #define ETHER_ADDR_LEN	6
  63:..\..\..\..\wpa_supplicant\src\utils/common.h **** #define ETH_P_802_3	0x0001		/* Dummy type for 802.3 frames  */
  64:..\..\..\..\wpa_supplicant\src\utils/common.h **** 
  65:..\..\..\..\wpa_supplicant\src\utils/common.h **** static inline unsigned short bswap_16(unsigned short v)
  66:..\..\..\..\wpa_supplicant\src\utils/common.h **** {
  67:..\..\..\..\wpa_supplicant\src\utils/common.h **** 	return ((v & 0xff) << 8) | (v >> 8);
  68:..\..\..\..\wpa_supplicant\src\utils/common.h **** }
  69:..\..\..\..\wpa_supplicant\src\utils/common.h **** 
  70:..\..\..\..\wpa_supplicant\src\utils/common.h **** static inline unsigned int bswap_32(unsigned int v)
  71:..\..\..\..\wpa_supplicant\src\utils/common.h **** {
  72:..\..\..\..\wpa_supplicant\src\utils/common.h **** 	return ((v & 0xff) << 24) | ((v & 0xff00) << 8) |
  73:..\..\..\..\wpa_supplicant\src\utils/common.h **** 		((v & 0xff0000) >> 8) | (v >> 24);
  74:..\..\..\..\wpa_supplicant\src\utils/common.h **** }
  75:..\..\..\..\wpa_supplicant\src\utils/common.h **** 
  76:..\..\..\..\wpa_supplicant\src\utils/common.h **** struct ether_header
  77:..\..\..\..\wpa_supplicant\src\utils/common.h **** {
  78:..\..\..\..\wpa_supplicant\src\utils/common.h **** 	uint8_t  ether_dhost[ETHER_ADDR_LEN];
  79:..\..\..\..\wpa_supplicant\src\utils/common.h **** 	uint8_t  ether_shost[ETHER_ADDR_LEN];
  80:..\..\..\..\wpa_supplicant\src\utils/common.h **** 	uint16_t ether_type;
  81:..\..\..\..\wpa_supplicant\src\utils/common.h **** } __PACKED;
  82:..\..\..\..\wpa_supplicant\src\utils/common.h **** #endif /* CONFIG_GDWIFI */
  83:..\..\..\..\wpa_supplicant\src\utils/common.h **** #ifdef __rtems__
  84:..\..\..\..\wpa_supplicant\src\utils/common.h **** #include <rtems/endian.h>
  85:..\..\..\..\wpa_supplicant\src\utils/common.h **** #define __BYTE_ORDER BYTE_ORDER
  86:..\..\..\..\wpa_supplicant\src\utils/common.h **** #define __LITTLE_ENDIAN LITTLE_ENDIAN
  87:..\..\..\..\wpa_supplicant\src\utils/common.h **** #define __BIG_ENDIAN BIG_ENDIAN
  88:..\..\..\..\wpa_supplicant\src\utils/common.h **** #define bswap_16 CPU_swap_u16
  89:..\..\..\..\wpa_supplicant\src\utils/common.h **** #define bswap_32 CPU_swap_u32
  90:..\..\..\..\wpa_supplicant\src\utils/common.h **** #endif /* __rtems__ */
  91:..\..\..\..\wpa_supplicant\src\utils/common.h **** 
  92:..\..\..\..\wpa_supplicant\src\utils/common.h **** #ifdef CONFIG_NATIVE_WINDOWS
  93:..\..\..\..\wpa_supplicant\src\utils/common.h **** #include <winsock.h>
  94:..\..\..\..\wpa_supplicant\src\utils/common.h **** 
  95:..\..\..\..\wpa_supplicant\src\utils/common.h **** typedef int socklen_t;
  96:..\..\..\..\wpa_supplicant\src\utils/common.h **** 
  97:..\..\..\..\wpa_supplicant\src\utils/common.h **** #ifndef MSG_DONTWAIT
  98:..\..\..\..\wpa_supplicant\src\utils/common.h **** #define MSG_DONTWAIT 0 /* not supported */
  99:..\..\..\..\wpa_supplicant\src\utils/common.h **** #endif
 100:..\..\..\..\wpa_supplicant\src\utils/common.h **** 
 101:..\..\..\..\wpa_supplicant\src\utils/common.h **** #endif /* CONFIG_NATIVE_WINDOWS */
 102:..\..\..\..\wpa_supplicant\src\utils/common.h **** 
 103:..\..\..\..\wpa_supplicant\src\utils/common.h **** #ifdef _MSC_VER
 104:..\..\..\..\wpa_supplicant\src\utils/common.h **** #define inline __inline
 105:..\..\..\..\wpa_supplicant\src\utils/common.h **** 
 106:..\..\..\..\wpa_supplicant\src\utils/common.h **** #undef vsnprintf
 107:..\..\..\..\wpa_supplicant\src\utils/common.h **** #define vsnprintf _vsnprintf
 108:..\..\..\..\wpa_supplicant\src\utils/common.h **** #undef close
 109:..\..\..\..\wpa_supplicant\src\utils/common.h **** #define close closesocket
 110:..\..\..\..\wpa_supplicant\src\utils/common.h **** #endif /* _MSC_VER */
 111:..\..\..\..\wpa_supplicant\src\utils/common.h **** 
 112:..\..\..\..\wpa_supplicant\src\utils/common.h **** 
 113:..\..\..\..\wpa_supplicant\src\utils/common.h **** /* Define platform specific integer types */
 114:..\..\..\..\wpa_supplicant\src\utils/common.h **** 
 115:..\..\..\..\wpa_supplicant\src\utils/common.h **** #ifdef _MSC_VER
 116:..\..\..\..\wpa_supplicant\src\utils/common.h **** typedef UINT64 u64;
 117:..\..\..\..\wpa_supplicant\src\utils/common.h **** typedef UINT32 u32;
 118:..\..\..\..\wpa_supplicant\src\utils/common.h **** typedef UINT16 u16;
 119:..\..\..\..\wpa_supplicant\src\utils/common.h **** typedef UINT8 u8;
 120:..\..\..\..\wpa_supplicant\src\utils/common.h **** typedef INT64 s64;
 121:..\..\..\..\wpa_supplicant\src\utils/common.h **** typedef INT32 s32;
 122:..\..\..\..\wpa_supplicant\src\utils/common.h **** typedef INT16 s16;
 123:..\..\..\..\wpa_supplicant\src\utils/common.h **** typedef INT8 s8;
 124:..\..\..\..\wpa_supplicant\src\utils/common.h **** #define WPA_TYPES_DEFINED
 125:..\..\..\..\wpa_supplicant\src\utils/common.h **** #endif /* _MSC_VER */
 126:..\..\..\..\wpa_supplicant\src\utils/common.h **** 
 127:..\..\..\..\wpa_supplicant\src\utils/common.h **** #ifdef __vxworks
 128:..\..\..\..\wpa_supplicant\src\utils/common.h **** typedef unsigned long long u64;
 129:..\..\..\..\wpa_supplicant\src\utils/common.h **** typedef UINT32 u32;
 130:..\..\..\..\wpa_supplicant\src\utils/common.h **** typedef UINT16 u16;
 131:..\..\..\..\wpa_supplicant\src\utils/common.h **** typedef UINT8 u8;
 132:..\..\..\..\wpa_supplicant\src\utils/common.h **** typedef long long s64;
 133:..\..\..\..\wpa_supplicant\src\utils/common.h **** typedef INT32 s32;
 134:..\..\..\..\wpa_supplicant\src\utils/common.h **** typedef INT16 s16;
 135:..\..\..\..\wpa_supplicant\src\utils/common.h **** typedef INT8 s8;
 136:..\..\..\..\wpa_supplicant\src\utils/common.h **** #define WPA_TYPES_DEFINED
 137:..\..\..\..\wpa_supplicant\src\utils/common.h **** #endif /* __vxworks */
 138:..\..\..\..\wpa_supplicant\src\utils/common.h **** 
 139:..\..\..\..\wpa_supplicant\src\utils/common.h **** #ifndef WPA_TYPES_DEFINED
 140:..\..\..\..\wpa_supplicant\src\utils/common.h **** #ifdef CONFIG_USE_INTTYPES_H
 141:..\..\..\..\wpa_supplicant\src\utils/common.h **** #include <inttypes.h>
 142:..\..\..\..\wpa_supplicant\src\utils/common.h **** #else
 143:..\..\..\..\wpa_supplicant\src\utils/common.h **** #include <stdint.h>
 144:..\..\..\..\wpa_supplicant\src\utils/common.h **** #endif
 145:..\..\..\..\wpa_supplicant\src\utils/common.h **** typedef uint64_t u64;
 146:..\..\..\..\wpa_supplicant\src\utils/common.h **** typedef uint32_t u32;
 147:..\..\..\..\wpa_supplicant\src\utils/common.h **** typedef uint16_t u16;
 148:..\..\..\..\wpa_supplicant\src\utils/common.h **** typedef uint8_t u8;
 149:..\..\..\..\wpa_supplicant\src\utils/common.h **** typedef int64_t s64;
 150:..\..\..\..\wpa_supplicant\src\utils/common.h **** typedef int32_t s32;
 151:..\..\..\..\wpa_supplicant\src\utils/common.h **** typedef int16_t s16;
 152:..\..\..\..\wpa_supplicant\src\utils/common.h **** typedef int8_t s8;
 153:..\..\..\..\wpa_supplicant\src\utils/common.h **** #define WPA_TYPES_DEFINED
 154:..\..\..\..\wpa_supplicant\src\utils/common.h **** #endif /* !WPA_TYPES_DEFINED */
 155:..\..\..\..\wpa_supplicant\src\utils/common.h **** 
 156:..\..\..\..\wpa_supplicant\src\utils/common.h **** 
 157:..\..\..\..\wpa_supplicant\src\utils/common.h **** /* Define platform specific byte swapping macros */
 158:..\..\..\..\wpa_supplicant\src\utils/common.h **** 
 159:..\..\..\..\wpa_supplicant\src\utils/common.h **** #if defined(__CYGWIN__) || defined(CONFIG_NATIVE_WINDOWS)
 160:..\..\..\..\wpa_supplicant\src\utils/common.h **** 
 161:..\..\..\..\wpa_supplicant\src\utils/common.h **** static inline unsigned short wpa_swap_16(unsigned short v)
 162:..\..\..\..\wpa_supplicant\src\utils/common.h **** {
 163:..\..\..\..\wpa_supplicant\src\utils/common.h **** 	return ((v & 0xff) << 8) | (v >> 8);
 164:..\..\..\..\wpa_supplicant\src\utils/common.h **** }
 165:..\..\..\..\wpa_supplicant\src\utils/common.h **** 
 166:..\..\..\..\wpa_supplicant\src\utils/common.h **** static inline unsigned int wpa_swap_32(unsigned int v)
 167:..\..\..\..\wpa_supplicant\src\utils/common.h **** {
 168:..\..\..\..\wpa_supplicant\src\utils/common.h **** 	return ((v & 0xff) << 24) | ((v & 0xff00) << 8) |
 169:..\..\..\..\wpa_supplicant\src\utils/common.h **** 		((v & 0xff0000) >> 8) | (v >> 24);
 170:..\..\..\..\wpa_supplicant\src\utils/common.h **** }
 171:..\..\..\..\wpa_supplicant\src\utils/common.h **** 
 172:..\..\..\..\wpa_supplicant\src\utils/common.h **** #define le_to_host16(n) (n)
 173:..\..\..\..\wpa_supplicant\src\utils/common.h **** #define host_to_le16(n) (n)
 174:..\..\..\..\wpa_supplicant\src\utils/common.h **** #define be_to_host16(n) wpa_swap_16(n)
 175:..\..\..\..\wpa_supplicant\src\utils/common.h **** #define host_to_be16(n) wpa_swap_16(n)
 176:..\..\..\..\wpa_supplicant\src\utils/common.h **** #define le_to_host32(n) (n)
 177:..\..\..\..\wpa_supplicant\src\utils/common.h **** #define host_to_le32(n) (n)
 178:..\..\..\..\wpa_supplicant\src\utils/common.h **** #define be_to_host32(n) wpa_swap_32(n)
 179:..\..\..\..\wpa_supplicant\src\utils/common.h **** #define host_to_be32(n) wpa_swap_32(n)
 180:..\..\..\..\wpa_supplicant\src\utils/common.h **** #define host_to_le64(n) (n)
 181:..\..\..\..\wpa_supplicant\src\utils/common.h **** 
 182:..\..\..\..\wpa_supplicant\src\utils/common.h **** #define WPA_BYTE_SWAP_DEFINED
 183:..\..\..\..\wpa_supplicant\src\utils/common.h **** 
 184:..\..\..\..\wpa_supplicant\src\utils/common.h **** #endif /* __CYGWIN__ || CONFIG_NATIVE_WINDOWS */
 185:..\..\..\..\wpa_supplicant\src\utils/common.h **** 
 186:..\..\..\..\wpa_supplicant\src\utils/common.h **** 
 187:..\..\..\..\wpa_supplicant\src\utils/common.h **** #ifndef WPA_BYTE_SWAP_DEFINED
 188:..\..\..\..\wpa_supplicant\src\utils/common.h **** 
 189:..\..\..\..\wpa_supplicant\src\utils/common.h **** #ifndef __BYTE_ORDER
 190:..\..\..\..\wpa_supplicant\src\utils/common.h **** #ifndef __LITTLE_ENDIAN
 191:..\..\..\..\wpa_supplicant\src\utils/common.h **** #ifndef __BIG_ENDIAN
 192:..\..\..\..\wpa_supplicant\src\utils/common.h **** #define __LITTLE_ENDIAN 1234
 193:..\..\..\..\wpa_supplicant\src\utils/common.h **** #define __BIG_ENDIAN 4321
 194:..\..\..\..\wpa_supplicant\src\utils/common.h **** #if defined(sparc)
 195:..\..\..\..\wpa_supplicant\src\utils/common.h **** #define __BYTE_ORDER __BIG_ENDIAN
 196:..\..\..\..\wpa_supplicant\src\utils/common.h **** #endif
 197:..\..\..\..\wpa_supplicant\src\utils/common.h **** #endif /* __BIG_ENDIAN */
 198:..\..\..\..\wpa_supplicant\src\utils/common.h **** #endif /* __LITTLE_ENDIAN */
 199:..\..\..\..\wpa_supplicant\src\utils/common.h **** #endif /* __BYTE_ORDER */
 200:..\..\..\..\wpa_supplicant\src\utils/common.h **** 
 201:..\..\..\..\wpa_supplicant\src\utils/common.h **** #if __BYTE_ORDER == __LITTLE_ENDIAN
 202:..\..\..\..\wpa_supplicant\src\utils/common.h **** #define le_to_host16(n) ((__force u16) (le16) (n))
 203:..\..\..\..\wpa_supplicant\src\utils/common.h **** #define host_to_le16(n) ((__force le16) (u16) (n))
 204:..\..\..\..\wpa_supplicant\src\utils/common.h **** #define be_to_host16(n) bswap_16((__force u16) (be16) (n))
 205:..\..\..\..\wpa_supplicant\src\utils/common.h **** #define host_to_be16(n) ((__force be16) bswap_16((n)))
 206:..\..\..\..\wpa_supplicant\src\utils/common.h **** #define le_to_host32(n) ((__force u32) (le32) (n))
 207:..\..\..\..\wpa_supplicant\src\utils/common.h **** #define host_to_le32(n) ((__force le32) (u32) (n))
 208:..\..\..\..\wpa_supplicant\src\utils/common.h **** #define be_to_host32(n) bswap_32((__force u32) (be32) (n))
 209:..\..\..\..\wpa_supplicant\src\utils/common.h **** #define host_to_be32(n) ((__force be32) bswap_32((n)))
 210:..\..\..\..\wpa_supplicant\src\utils/common.h **** #define le_to_host64(n) ((__force u64) (le64) (n))
 211:..\..\..\..\wpa_supplicant\src\utils/common.h **** #define host_to_le64(n) ((__force le64) (u64) (n))
 212:..\..\..\..\wpa_supplicant\src\utils/common.h **** #define be_to_host64(n) bswap_64((__force u64) (be64) (n))
 213:..\..\..\..\wpa_supplicant\src\utils/common.h **** #define host_to_be64(n) ((__force be64) bswap_64((n)))
 214:..\..\..\..\wpa_supplicant\src\utils/common.h **** #elif __BYTE_ORDER == __BIG_ENDIAN
 215:..\..\..\..\wpa_supplicant\src\utils/common.h **** #define le_to_host16(n) bswap_16(n)
 216:..\..\..\..\wpa_supplicant\src\utils/common.h **** #define host_to_le16(n) bswap_16(n)
 217:..\..\..\..\wpa_supplicant\src\utils/common.h **** #define be_to_host16(n) (n)
 218:..\..\..\..\wpa_supplicant\src\utils/common.h **** #define host_to_be16(n) (n)
 219:..\..\..\..\wpa_supplicant\src\utils/common.h **** #define le_to_host32(n) bswap_32(n)
 220:..\..\..\..\wpa_supplicant\src\utils/common.h **** #define host_to_le32(n) bswap_32(n)
 221:..\..\..\..\wpa_supplicant\src\utils/common.h **** #define be_to_host32(n) (n)
 222:..\..\..\..\wpa_supplicant\src\utils/common.h **** #define host_to_be32(n) (n)
 223:..\..\..\..\wpa_supplicant\src\utils/common.h **** #define le_to_host64(n) bswap_64(n)
 224:..\..\..\..\wpa_supplicant\src\utils/common.h **** #define host_to_le64(n) bswap_64(n)
 225:..\..\..\..\wpa_supplicant\src\utils/common.h **** #define be_to_host64(n) (n)
 226:..\..\..\..\wpa_supplicant\src\utils/common.h **** #define host_to_be64(n) (n)
 227:..\..\..\..\wpa_supplicant\src\utils/common.h **** #ifndef WORDS_BIGENDIAN
 228:..\..\..\..\wpa_supplicant\src\utils/common.h **** #define WORDS_BIGENDIAN
 229:..\..\..\..\wpa_supplicant\src\utils/common.h **** #endif
 230:..\..\..\..\wpa_supplicant\src\utils/common.h **** #else
 231:..\..\..\..\wpa_supplicant\src\utils/common.h **** #error Could not determine CPU byte order
 232:..\..\..\..\wpa_supplicant\src\utils/common.h **** #endif
 233:..\..\..\..\wpa_supplicant\src\utils/common.h **** 
 234:..\..\..\..\wpa_supplicant\src\utils/common.h **** #define WPA_BYTE_SWAP_DEFINED
 235:..\..\..\..\wpa_supplicant\src\utils/common.h **** #endif /* !WPA_BYTE_SWAP_DEFINED */
 236:..\..\..\..\wpa_supplicant\src\utils/common.h **** 
 237:..\..\..\..\wpa_supplicant\src\utils/common.h **** 
 238:..\..\..\..\wpa_supplicant\src\utils/common.h **** /* Macros for handling unaligned memory accesses */
 239:..\..\..\..\wpa_supplicant\src\utils/common.h **** 
 240:..\..\..\..\wpa_supplicant\src\utils/common.h **** static inline u16 WPA_GET_BE16(const u8 *a)
 241:..\..\..\..\wpa_supplicant\src\utils/common.h **** {
 242:..\..\..\..\wpa_supplicant\src\utils/common.h **** 	return (a[0] << 8) | a[1];
 901              		.loc 2 242 2
 902 002a 83461700 		lbu	a3,1(a4)
 903 002e 83480700 		lbu	a7,0(a4)
 429:C:/Users/stapi/OneDrive/Desktop/GD32VW553/V1_MQTT_OK/GD32VW55X_Wifi_BLE_SDK/GD32VW55x_RELEASE_V1.0.2/MSDK/wpa_supplicant/src/tls\tlsv1_common.c **** 	if (end - pos < slen) {
 904              		.loc 1 429 6 is_stmt 0
 905 0032 130B2700 		addi	s6,a4,2
 906 0036 A206     		slli	a3,a3,8
 907 0038 B3E61601 		or	a3,a3,a7
 908 003c 93988600 		slli	a7,a3,8
 909 0040 A182     		srli	a3,a3,8
 910 0042 B3E8D800 		or	a7,a7,a3
 430:C:/Users/stapi/OneDrive/Desktop/GD32VW553/V1_MQTT_OK/GD32VW55X_Wifi_BLE_SDK/GD32VW55x_RELEASE_V1.0.2/MSDK/wpa_supplicant/src/tls\tlsv1_common.c **** 		*alert = TLS_ALERT_DECODE_ERROR;
 911              		.loc 1 430 10
 912 0046 9386E7FF 		addi	a3,a5,-2
 913 004a B3C80808 		zext.h	a7,a7
 914              	.LVL94:
 429:C:/Users/stapi/OneDrive/Desktop/GD32VW553/V1_MQTT_OK/GD32VW55X_Wifi_BLE_SDK/GD32VW55x_RELEASE_V1.0.2/MSDK/wpa_supplicant/src/tls\tlsv1_common.c **** 	if (end - pos < slen) {
 915              		.loc 1 429 2 is_stmt 1
 430:C:/Users/stapi/OneDrive/Desktop/GD32VW553/V1_MQTT_OK/GD32VW55X_Wifi_BLE_SDK/GD32VW55x_RELEASE_V1.0.2/MSDK/wpa_supplicant/src/tls\tlsv1_common.c **** 		*alert = TLS_ALERT_DECODE_ERROR;
 916              		.loc 1 430 2
 430:C:/Users/stapi/OneDrive/Desktop/GD32VW553/V1_MQTT_OK/GD32VW55X_Wifi_BLE_SDK/GD32VW55x_RELEASE_V1.0.2/MSDK/wpa_supplicant/src/tls\tlsv1_common.c **** 		*alert = TLS_ALERT_DECODE_ERROR;
 917              		.loc 1 430 5 is_stmt 0
 918 004e E3C316FD 		blt	a3,a7,.L85
 919 0052 2E8A     		mv	s4,a1
 920 0054 B28A     		mv	s5,a2
 434:C:/Users/stapi/OneDrive/Desktop/GD32VW553/V1_MQTT_OK/GD32VW55X_Wifi_BLE_SDK/GD32VW55x_RELEASE_V1.0.2/MSDK/wpa_supplicant/src/tls\tlsv1_common.c **** 		wpa_hexdump(MSG_MSGDUMP, "Additional data after Signature",
 921              		.loc 1 434 2 is_stmt 1
 419:C:/Users/stapi/OneDrive/Desktop/GD32VW553/V1_MQTT_OK/GD32VW55X_Wifi_BLE_SDK/GD32VW55x_RELEASE_V1.0.2/MSDK/wpa_supplicant/src/tls\tlsv1_common.c **** 	const u8 *decrypted;
 922              		.loc 1 419 12 is_stmt 0
 923 0056 3304F700 		add	s0,a4,a5
 434:C:/Users/stapi/OneDrive/Desktop/GD32VW553/V1_MQTT_OK/GD32VW55X_Wifi_BLE_SDK/GD32VW55x_RELEASE_V1.0.2/MSDK/wpa_supplicant/src/tls\tlsv1_common.c **** 		wpa_hexdump(MSG_MSGDUMP, "Additional data after Signature",
 924              		.loc 1 434 5
 925 005a 63D0D802 		ble	a3,a7,.L87
 435:C:/Users/stapi/OneDrive/Desktop/GD32VW553/V1_MQTT_OK/GD32VW55X_Wifi_BLE_SDK/GD32VW55x_RELEASE_V1.0.2/MSDK/wpa_supplicant/src/tls\tlsv1_common.c **** 			    pos + slen, end - pos - slen);
 926              		.loc 1 435 3 is_stmt 1
 436:C:/Users/stapi/OneDrive/Desktop/GD32VW553/V1_MQTT_OK/GD32VW55X_Wifi_BLE_SDK/GD32VW55x_RELEASE_V1.0.2/MSDK/wpa_supplicant/src/tls\tlsv1_common.c **** 		end = pos + slen;
 927              		.loc 1 436 12 is_stmt 0
 928 005e 33041B01 		add	s0,s6,a7
 435:C:/Users/stapi/OneDrive/Desktop/GD32VW553/V1_MQTT_OK/GD32VW55X_Wifi_BLE_SDK/GD32VW55x_RELEASE_V1.0.2/MSDK/wpa_supplicant/src/tls\tlsv1_common.c **** 			    pos + slen, end - pos - slen);
 929              		.loc 1 435 3
 930 0062 B7050000 		lui	a1,%hi(.LC4)
 931              	.LVL95:
 932 0066 B3861641 		sub	a3,a3,a7
 933 006a 2286     		mv	a2,s0
 934              	.LVL96:
 935 006c 93850500 		addi	a1,a1,%lo(.LC4)
 936 0070 0545     		li	a0,1
 937              	.LVL97:
 938 0072 97000000 		call	wpa_hexdump
 938      E7800000 
 939              	.LVL98:
 437:C:/Users/stapi/OneDrive/Desktop/GD32VW553/V1_MQTT_OK/GD32VW55X_Wifi_BLE_SDK/GD32VW55x_RELEASE_V1.0.2/MSDK/wpa_supplicant/src/tls\tlsv1_common.c **** 	}
 940              		.loc 1 437 3 is_stmt 1
 941              	.L87:
 440:C:/Users/stapi/OneDrive/Desktop/GD32VW553/V1_MQTT_OK/GD32VW55X_Wifi_BLE_SDK/GD32VW55x_RELEASE_V1.0.2/MSDK/wpa_supplicant/src/tls\tlsv1_common.c **** 	if (pk == NULL) {
 942              		.loc 1 440 2
 440:C:/Users/stapi/OneDrive/Desktop/GD32VW553/V1_MQTT_OK/GD32VW55X_Wifi_BLE_SDK/GD32VW55x_RELEASE_V1.0.2/MSDK/wpa_supplicant/src/tls\tlsv1_common.c **** 	if (pk == NULL) {
 943              		.loc 1 440 56 is_stmt 0
 944 007a 33046441 		sub	s0,s0,s6
 945              	.LVL99:
 440:C:/Users/stapi/OneDrive/Desktop/GD32VW553/V1_MQTT_OK/GD32VW55X_Wifi_BLE_SDK/GD32VW55x_RELEASE_V1.0.2/MSDK/wpa_supplicant/src/tls\tlsv1_common.c **** 	if (pk == NULL) {
 946              		.loc 1 440 2
 947 007e B7050000 		lui	a1,%hi(.LC5)
 948 0082 A286     		mv	a3,s0
 949 0084 5A86     		mv	a2,s6
 950 0086 93850500 		addi	a1,a1,%lo(.LC5)
 951 008a 0545     		li	a0,1
 952 008c 97000000 		call	wpa_hexdump
 952      E7800000 
 953              	.LVL100:
 441:C:/Users/stapi/OneDrive/Desktop/GD32VW553/V1_MQTT_OK/GD32VW55X_Wifi_BLE_SDK/GD32VW55x_RELEASE_V1.0.2/MSDK/wpa_supplicant/src/tls\tlsv1_common.c **** 		wpa_printf(MSG_DEBUG, "TLSv1: No public key to verify signature");
 954              		.loc 1 441 2 is_stmt 1
 441:C:/Users/stapi/OneDrive/Desktop/GD32VW553/V1_MQTT_OK/GD32VW55X_Wifi_BLE_SDK/GD32VW55x_RELEASE_V1.0.2/MSDK/wpa_supplicant/src/tls\tlsv1_common.c **** 		wpa_printf(MSG_DEBUG, "TLSv1: No public key to verify signature");
 955              		.loc 1 441 5 is_stmt 0
 956 0094 631E0A00 		bne	s4,zero,.L88
 442:C:/Users/stapi/OneDrive/Desktop/GD32VW553/V1_MQTT_OK/GD32VW55X_Wifi_BLE_SDK/GD32VW55x_RELEASE_V1.0.2/MSDK/wpa_supplicant/src/tls\tlsv1_common.c **** 		*alert = TLS_ALERT_INTERNAL_ERROR;
 957              		.loc 1 442 3 is_stmt 1
 958 0098 B7050000 		lui	a1,%hi(.LC6)
 959 009c 93850500 		addi	a1,a1,%lo(.LC6)
 960 00a0 0945     		li	a0,2
 961 00a2 97000000 		call	wpa_printf
 961      E7800000 
 962              	.LVL101:
 443:C:/Users/stapi/OneDrive/Desktop/GD32VW553/V1_MQTT_OK/GD32VW55X_Wifi_BLE_SDK/GD32VW55x_RELEASE_V1.0.2/MSDK/wpa_supplicant/src/tls\tlsv1_common.c **** 		return -1;
 963              		.loc 1 443 3
 964              	.L96:
 450:C:/Users/stapi/OneDrive/Desktop/GD32VW553/V1_MQTT_OK/GD32VW55X_Wifi_BLE_SDK/GD32VW55x_RELEASE_V1.0.2/MSDK/wpa_supplicant/src/tls\tlsv1_common.c **** 		return -1;
 965              		.loc 1 450 3
 450:C:/Users/stapi/OneDrive/Desktop/GD32VW553/V1_MQTT_OK/GD32VW55X_Wifi_BLE_SDK/GD32VW55x_RELEASE_V1.0.2/MSDK/wpa_supplicant/src/tls\tlsv1_common.c **** 		return -1;
 966              		.loc 1 450 10 is_stmt 0
 967 00aa 93070005 		li	a5,80
 968 00ae ADB7     		j	.L95
 969              	.L88:
 447:C:/Users/stapi/OneDrive/Desktop/GD32VW553/V1_MQTT_OK/GD32VW55X_Wifi_BLE_SDK/GD32VW55x_RELEASE_V1.0.2/MSDK/wpa_supplicant/src/tls\tlsv1_common.c **** 	buf = os_malloc(end - pos);
 970              		.loc 1 447 2 is_stmt 1
 448:C:/Users/stapi/OneDrive/Desktop/GD32VW553/V1_MQTT_OK/GD32VW55X_Wifi_BLE_SDK/GD32VW55x_RELEASE_V1.0.2/MSDK/wpa_supplicant/src/tls\tlsv1_common.c **** 	if (buf == NULL) {
 971              		.loc 1 448 8 is_stmt 0
 972 00b0 2285     		mv	a0,s0
 447:C:/Users/stapi/OneDrive/Desktop/GD32VW553/V1_MQTT_OK/GD32VW55X_Wifi_BLE_SDK/GD32VW55x_RELEASE_V1.0.2/MSDK/wpa_supplicant/src/tls\tlsv1_common.c **** 	buf = os_malloc(end - pos);
 973              		.loc 1 447 9
 974 00b2 22C6     		sw	s0,12(sp)
 448:C:/Users/stapi/OneDrive/Desktop/GD32VW553/V1_MQTT_OK/GD32VW55X_Wifi_BLE_SDK/GD32VW55x_RELEASE_V1.0.2/MSDK/wpa_supplicant/src/tls\tlsv1_common.c **** 	if (buf == NULL) {
 975              		.loc 1 448 2 is_stmt 1
 448:C:/Users/stapi/OneDrive/Desktop/GD32VW553/V1_MQTT_OK/GD32VW55X_Wifi_BLE_SDK/GD32VW55x_RELEASE_V1.0.2/MSDK/wpa_supplicant/src/tls\tlsv1_common.c **** 	if (buf == NULL) {
 976              		.loc 1 448 8 is_stmt 0
 977 00b4 97000000 		call	os_malloc
 977      E7800000 
 978              	.LVL102:
 979 00bc AA84     		mv	s1,a0
 980              	.LVL103:
 449:C:/Users/stapi/OneDrive/Desktop/GD32VW553/V1_MQTT_OK/GD32VW55X_Wifi_BLE_SDK/GD32VW55x_RELEASE_V1.0.2/MSDK/wpa_supplicant/src/tls\tlsv1_common.c **** 		*alert = TLS_ALERT_INTERNAL_ERROR;
 981              		.loc 1 449 2 is_stmt 1
 449:C:/Users/stapi/OneDrive/Desktop/GD32VW553/V1_MQTT_OK/GD32VW55X_Wifi_BLE_SDK/GD32VW55x_RELEASE_V1.0.2/MSDK/wpa_supplicant/src/tls\tlsv1_common.c **** 		*alert = TLS_ALERT_INTERNAL_ERROR;
 982              		.loc 1 449 5 is_stmt 0
 983 00be 75D5     		beq	a0,zero,.L96
 453:C:/Users/stapi/OneDrive/Desktop/GD32VW553/V1_MQTT_OK/GD32VW55X_Wifi_BLE_SDK/GD32VW55x_RELEASE_V1.0.2/MSDK/wpa_supplicant/src/tls\tlsv1_common.c **** 	    0) {
 984              		.loc 1 453 2 is_stmt 1
 453:C:/Users/stapi/OneDrive/Desktop/GD32VW553/V1_MQTT_OK/GD32VW55X_Wifi_BLE_SDK/GD32VW55x_RELEASE_V1.0.2/MSDK/wpa_supplicant/src/tls\tlsv1_common.c **** 	    0) {
 985              		.loc 1 453 6 is_stmt 0
 986 00c0 AA86     		mv	a3,a0
 987 00c2 7800     		addi	a4,sp,12
 988 00c4 2286     		mv	a2,s0
 989 00c6 DA85     		mv	a1,s6
 990 00c8 5285     		mv	a0,s4
 991 00ca 97000000 		call	crypto_public_key_decrypt_pkcs1
 991      E7800000 
 992              	.LVL104:
 453:C:/Users/stapi/OneDrive/Desktop/GD32VW553/V1_MQTT_OK/GD32VW55X_Wifi_BLE_SDK/GD32VW55x_RELEASE_V1.0.2/MSDK/wpa_supplicant/src/tls\tlsv1_common.c **** 	    0) {
 993              		.loc 1 453 5
 994 00d2 63530502 		bge	a0,zero,.L90
 455:C:/Users/stapi/OneDrive/Desktop/GD32VW553/V1_MQTT_OK/GD32VW55X_Wifi_BLE_SDK/GD32VW55x_RELEASE_V1.0.2/MSDK/wpa_supplicant/src/tls\tlsv1_common.c **** 		os_free(buf);
 995              		.loc 1 455 3 is_stmt 1
 996 00d6 B7050000 		lui	a1,%hi(.LC7)
 997 00da 93850500 		addi	a1,a1,%lo(.LC7)
 998              	.L94:
 514:C:/Users/stapi/OneDrive/Desktop/GD32VW553/V1_MQTT_OK/GD32VW55X_Wifi_BLE_SDK/GD32VW55x_RELEASE_V1.0.2/MSDK/wpa_supplicant/src/tls\tlsv1_common.c **** 		os_free(buf);
 999              		.loc 1 514 3 is_stmt 0
 1000 00de 0945     		li	a0,2
 1001 00e0 97000000 		call	wpa_printf
 1001      E7800000 
 1002              	.LVL105:
 515:C:/Users/stapi/OneDrive/Desktop/GD32VW553/V1_MQTT_OK/GD32VW55X_Wifi_BLE_SDK/GD32VW55x_RELEASE_V1.0.2/MSDK/wpa_supplicant/src/tls\tlsv1_common.c **** 		*alert = TLS_ALERT_DECRYPT_ERROR;
 1003              		.loc 1 515 3 is_stmt 1
 1004 00e8 2685     		mv	a0,s1
 1005 00ea 97000000 		call	os_free
 1005      E7800000 
 1006              	.LVL106:
 516:C:/Users/stapi/OneDrive/Desktop/GD32VW553/V1_MQTT_OK/GD32VW55X_Wifi_BLE_SDK/GD32VW55x_RELEASE_V1.0.2/MSDK/wpa_supplicant/src/tls\tlsv1_common.c **** 		return -1;
 1007              		.loc 1 516 3
 516:C:/Users/stapi/OneDrive/Desktop/GD32VW553/V1_MQTT_OK/GD32VW55X_Wifi_BLE_SDK/GD32VW55x_RELEASE_V1.0.2/MSDK/wpa_supplicant/src/tls\tlsv1_common.c **** 		return -1;
 1008              		.loc 1 516 10 is_stmt 0
 1009 00f2 93073003 		li	a5,51
 1010 00f6 0DB7     		j	.L95
 1011              	.L90:
 460:C:/Users/stapi/OneDrive/Desktop/GD32VW553/V1_MQTT_OK/GD32VW55X_Wifi_BLE_SDK/GD32VW55x_RELEASE_V1.0.2/MSDK/wpa_supplicant/src/tls\tlsv1_common.c **** 
 1012              		.loc 1 460 2 is_stmt 1
 1013              	.LVL107:
 462:C:/Users/stapi/OneDrive/Desktop/GD32VW553/V1_MQTT_OK/GD32VW55X_Wifi_BLE_SDK/GD32VW55x_RELEASE_V1.0.2/MSDK/wpa_supplicant/src/tls\tlsv1_common.c **** 			decrypted, buflen);
 1014              		.loc 1 462 2
 1015 00f8 B246     		lw	a3,12(sp)
 1016 00fa B7050000 		lui	a1,%hi(.LC8)
 1017 00fe 2686     		mv	a2,s1
 1018 0100 93850500 		addi	a1,a1,%lo(.LC8)
 1019 0104 0545     		li	a0,1
 1020 0106 97000000 		call	wpa_hexdump_key
 1020      E7800000 
 1021              	.LVL108:
 512:C:/Users/stapi/OneDrive/Desktop/GD32VW553/V1_MQTT_OK/GD32VW55X_Wifi_BLE_SDK/GD32VW55x_RELEASE_V1.0.2/MSDK/wpa_supplicant/src/tls\tlsv1_common.c **** 	    os_memcmp_const(decrypted, data, data_len) != 0) {
 1022              		.loc 1 512 2
 512:C:/Users/stapi/OneDrive/Desktop/GD32VW553/V1_MQTT_OK/GD32VW55X_Wifi_BLE_SDK/GD32VW55x_RELEASE_V1.0.2/MSDK/wpa_supplicant/src/tls\tlsv1_common.c **** 	    os_memcmp_const(decrypted, data, data_len) != 0) {
 1023              		.loc 1 512 5 is_stmt 0
 1024 010e B247     		lw	a5,12(sp)
 1025 0110 63873701 		beq	a5,s3,.L91
 1026              	.L92:
 514:C:/Users/stapi/OneDrive/Desktop/GD32VW553/V1_MQTT_OK/GD32VW55X_Wifi_BLE_SDK/GD32VW55x_RELEASE_V1.0.2/MSDK/wpa_supplicant/src/tls\tlsv1_common.c **** 		os_free(buf);
 1027              		.loc 1 514 3 is_stmt 1
 1028 0114 B7050000 		lui	a1,%hi(.LC9)
 1029 0118 93850500 		addi	a1,a1,%lo(.LC9)
 1030 011c C9B7     		j	.L94
 1031              	.L91:
 513:C:/Users/stapi/OneDrive/Desktop/GD32VW553/V1_MQTT_OK/GD32VW55X_Wifi_BLE_SDK/GD32VW55x_RELEASE_V1.0.2/MSDK/wpa_supplicant/src/tls\tlsv1_common.c **** 		wpa_printf(MSG_DEBUG, "TLSv1: Invalid Signature in CertificateVerify - did not match calculated h
 1032              		.loc 1 513 6 is_stmt 0 discriminator 1
 1033 011e 4E86     		mv	a2,s3
 1034 0120 D685     		mv	a1,s5
 1035 0122 2685     		mv	a0,s1
 1036 0124 97000000 		call	os_memcmp_const
 1036      E7800000 
 1037              	.LVL109:
 1038 012c 2A84     		mv	s0,a0
 512:C:/Users/stapi/OneDrive/Desktop/GD32VW553/V1_MQTT_OK/GD32VW55X_Wifi_BLE_SDK/GD32VW55x_RELEASE_V1.0.2/MSDK/wpa_supplicant/src/tls\tlsv1_common.c **** 	    os_memcmp_const(decrypted, data, data_len) != 0) {
 1039              		.loc 1 512 25 discriminator 1
 1040 012e 7DF1     		bne	a0,zero,.L92
 520:C:/Users/stapi/OneDrive/Desktop/GD32VW553/V1_MQTT_OK/GD32VW55X_Wifi_BLE_SDK/GD32VW55x_RELEASE_V1.0.2/MSDK/wpa_supplicant/src/tls\tlsv1_common.c **** 
 1041              		.loc 1 520 2 is_stmt 1
 1042 0130 2685     		mv	a0,s1
 1043 0132 97000000 		call	os_free
 1043      E7800000 
 1044              	.LVL110:
 522:C:/Users/stapi/OneDrive/Desktop/GD32VW553/V1_MQTT_OK/GD32VW55X_Wifi_BLE_SDK/GD32VW55x_RELEASE_V1.0.2/MSDK/wpa_supplicant/src/tls\tlsv1_common.c **** }
 1045              		.loc 1 522 2
 522:C:/Users/stapi/OneDrive/Desktop/GD32VW553/V1_MQTT_OK/GD32VW55X_Wifi_BLE_SDK/GD32VW55x_RELEASE_V1.0.2/MSDK/wpa_supplicant/src/tls\tlsv1_common.c **** }
 1046              		.loc 1 522 9 is_stmt 0
 1047 013a D5B5     		j	.L82
 1048              		.cfi_endproc
 1049              	.LFE97:
 1051              		.section	.rodata.str1.4,"aMS",@progbits,1
 1052              		.align	2
 1053              	.LC10:
 1054 0000 312E3000 		.string	"1.0"
 1055              		.align	2
 1056              	.LC11:
 1057 0004 312E3100 		.string	"1.1"
 1058              		.align	2
 1059              	.LC12:
 1060 0008 312E3200 		.string	"1.2"
 1061              		.section	.rodata.CSWTCH.14,"a"
 1062              		.align	2
 1063              		.set	.LANCHOR2,. + 0
 1066              	CSWTCH.14:
 1067 0000 00000000 		.word	.LC10
 1068 0004 00000000 		.word	.LC11
 1069 0008 00000000 		.word	.LC12
 1070              		.section	.rodata.tls_cipher_suites,"a"
 1071              		.align	2
 1072              		.set	.LANCHOR0,. + 0
 1075              	tls_cipher_suites:
 1076 0000 0000     		.half	0
 1077 0002 0000     		.zero	2
 1078 0004 00000000 		.word	0
 1079 0008 00000000 		.word	0
 1080 000c 00000000 		.word	0
 1081 0010 0400     		.half	4
 1082 0012 0000     		.zero	2
 1083 0014 01000000 		.word	1
 1084 0018 02000000 		.word	2
 1085 001c 01000000 		.word	1
 1086 0020 0500     		.half	5
 1087 0022 0000     		.zero	2
 1088 0024 01000000 		.word	1
 1089 0028 02000000 		.word	2
 1090 002c 02000000 		.word	2
 1091 0030 0900     		.half	9
 1092 0032 0000     		.zero	2
 1093 0034 01000000 		.word	1
 1094 0038 06000000 		.word	6
 1095 003c 02000000 		.word	2
 1096 0040 0A00     		.half	10
 1097 0042 0000     		.zero	2
 1098 0044 01000000 		.word	1
 1099 0048 07000000 		.word	7
 1100 004c 02000000 		.word	2
 1101 0050 1500     		.half	21
 1102 0052 0000     		.zero	2
 1103 0054 0A000000 		.word	10
 1104 0058 06000000 		.word	6
 1105 005c 02000000 		.word	2
 1106 0060 1600     		.half	22
 1107 0062 0000     		.zero	2
 1108 0064 0A000000 		.word	10
 1109 0068 07000000 		.word	7
 1110 006c 02000000 		.word	2
 1111 0070 1800     		.half	24
 1112 0072 0000     		.zero	2
 1113 0074 0C000000 		.word	12
 1114 0078 02000000 		.word	2
 1115 007c 01000000 		.word	1
 1116 0080 1A00     		.half	26
 1117 0082 0000     		.zero	2
 1118 0084 0C000000 		.word	12
 1119 0088 06000000 		.word	6
 1120 008c 02000000 		.word	2
 1121 0090 1B00     		.half	27
 1122 0092 0000     		.zero	2
 1123 0094 0C000000 		.word	12
 1124 0098 07000000 		.word	7
 1125 009c 02000000 		.word	2
 1126 00a0 2F00     		.half	47
 1127 00a2 0000     		.zero	2
 1128 00a4 01000000 		.word	1
 1129 00a8 08000000 		.word	8
 1130 00ac 02000000 		.word	2
 1131 00b0 3300     		.half	51
 1132 00b2 0000     		.zero	2
 1133 00b4 0A000000 		.word	10
 1134 00b8 08000000 		.word	8
 1135 00bc 02000000 		.word	2
 1136 00c0 3400     		.half	52
 1137 00c2 0000     		.zero	2
 1138 00c4 0C000000 		.word	12
 1139 00c8 08000000 		.word	8
 1140 00cc 02000000 		.word	2
 1141 00d0 3500     		.half	53
 1142 00d2 0000     		.zero	2
 1143 00d4 01000000 		.word	1
 1144 00d8 09000000 		.word	9
 1145 00dc 02000000 		.word	2
 1146 00e0 3900     		.half	57
 1147 00e2 0000     		.zero	2
 1148 00e4 0A000000 		.word	10
 1149 00e8 09000000 		.word	9
 1150 00ec 02000000 		.word	2
 1151 00f0 3A00     		.half	58
 1152 00f2 0000     		.zero	2
 1153 00f4 0C000000 		.word	12
 1154 00f8 09000000 		.word	9
 1155 00fc 02000000 		.word	2
 1156 0100 3C00     		.half	60
 1157 0102 0000     		.zero	2
 1158 0104 01000000 		.word	1
 1159 0108 08000000 		.word	8
 1160 010c 03000000 		.word	3
 1161 0110 3D00     		.half	61
 1162 0112 0000     		.zero	2
 1163 0114 01000000 		.word	1
 1164 0118 09000000 		.word	9
 1165 011c 03000000 		.word	3
 1166 0120 6700     		.half	103
 1167 0122 0000     		.zero	2
 1168 0124 0A000000 		.word	10
 1169 0128 08000000 		.word	8
 1170 012c 03000000 		.word	3
 1171 0130 6B00     		.half	107
 1172 0132 0000     		.zero	2
 1173 0134 0A000000 		.word	10
 1174 0138 09000000 		.word	9
 1175 013c 03000000 		.word	3
 1176 0140 6C00     		.half	108
 1177 0142 0000     		.zero	2
 1178 0144 0C000000 		.word	12
 1179 0148 08000000 		.word	8
 1180 014c 03000000 		.word	3
 1181 0150 6D00     		.half	109
 1182 0152 0000     		.zero	2
 1183 0154 0C000000 		.word	12
 1184 0158 09000000 		.word	9
 1185 015c 03000000 		.word	3
 1186              		.section	.rodata.tls_ciphers,"a"
 1187              		.align	2
 1188              		.set	.LANCHOR1,. + 0
 1191              	tls_ciphers:
 1192 0000 00000000 		.word	0
 1193 0004 00000000 		.word	0
 1194 0008 00000000 		.word	0
 1195 000c 00000000 		.word	0
 1196 0010 00000000 		.word	0
 1197 0014 00000000 		.word	0
 1198 0018 04000000 		.word	4
 1199 001c 01000000 		.word	1
 1200 0020 10000000 		.word	16
 1201 0024 10000000 		.word	16
 1202 0028 08000000 		.word	8
 1203 002c 00000000 		.word	0
 1204 0030 03000000 		.word	3
 1205 0034 01000000 		.word	1
 1206 0038 05000000 		.word	5
 1207 003c 10000000 		.word	16
 1208 0040 00000000 		.word	0
 1209 0044 04000000 		.word	4
 1210 0048 01000000 		.word	1
 1211 004c 00000000 		.word	0
 1212 0050 05000000 		.word	5
 1213 0054 10000000 		.word	16
 1214 0058 00000000 		.word	0
 1215 005c 05000000 		.word	5
 1216 0060 02000000 		.word	2
 1217 0064 00000000 		.word	0
 1218 0068 10000000 		.word	16
 1219 006c 10000000 		.word	16
 1220 0070 00000000 		.word	0
 1221 0074 05000000 		.word	5
 1222 0078 05000000 		.word	5
 1223 007c 01000000 		.word	1
 1224 0080 05000000 		.word	5
 1225 0084 08000000 		.word	8
 1226 0088 08000000 		.word	8
 1227 008c 03000000 		.word	3
 1228 0090 06000000 		.word	6
 1229 0094 01000000 		.word	1
 1230 0098 08000000 		.word	8
 1231 009c 08000000 		.word	8
 1232 00a0 08000000 		.word	8
 1233 00a4 03000000 		.word	3
 1234 00a8 07000000 		.word	7
 1235 00ac 01000000 		.word	1
 1236 00b0 18000000 		.word	24
 1237 00b4 18000000 		.word	24
 1238 00b8 08000000 		.word	8
 1239 00bc 02000000 		.word	2
 1240 00c0 08000000 		.word	8
 1241 00c4 01000000 		.word	1
 1242 00c8 10000000 		.word	16
 1243 00cc 10000000 		.word	16
 1244 00d0 10000000 		.word	16
 1245 00d4 01000000 		.word	1
 1246 00d8 09000000 		.word	9
 1247 00dc 01000000 		.word	1
 1248 00e0 20000000 		.word	32
 1249 00e4 20000000 		.word	32
 1250 00e8 10000000 		.word	16
 1251 00ec 01000000 		.word	1
 1252              		.text
 1253              	.Letext0:
 1254              		.file 3 "c:\\users\\stapi\\onedrive\\desktop\\gd32vw553\\embeddedbuilder_v1.4.7.26843\\tools\\nucl
 1255              		.file 4 "c:\\users\\stapi\\onedrive\\desktop\\gd32vw553\\embeddedbuilder_v1.4.7.26843\\tools\\nucl
 1256              		.file 5 "c:\\users\\stapi\\onedrive\\desktop\\gd32vw553\\embeddedbuilder_v1.4.7.26843\\tools\\nucl
 1257              		.file 6 "..\\..\\..\\..\\wpa_supplicant\\src\\utils/os.h"
 1258              		.file 7 "..\\..\\..\\..\\lwip\\lwip-2.1.2\\src\\include/lwip/memp.h"
 1259              		.file 8 "..\\..\\..\\..\\wpa_supplicant\\src\\utils/wpa_debug.h"
 1260              		.file 9 "C:/Users/stapi/OneDrive/Desktop/GD32VW553/V1_MQTT_OK/GD32VW55X_Wifi_BLE_SDK/GD32VW55x_REL
 1261              		.file 10 "C:/Users/stapi/OneDrive/Desktop/GD32VW553/V1_MQTT_OK/GD32VW55X_Wifi_BLE_SDK/GD32VW55x_RE
 1262              		.file 11 "..\\..\\..\\..\\lwip\\lwip-2.1.2\\src\\include/lwip/netif.h"
 1263              		.file 12 "..\\..\\..\\..\\wpa_supplicant\\src/crypto/crypto.h"
 1264              		.file 13 "C:/Users/stapi/OneDrive/Desktop/GD32VW553/V1_MQTT_OK/GD32VW55X_Wifi_BLE_SDK/GD32VW55x_RE
 1265              		.file 14 "..\\..\\..\\..\\wpa_supplicant\\src/crypto/sha1.h"