   1              		.file	"tlsv1_client_ocsp.c"
   2              		.option nopic
   3              		.attribute arch, "rv32i2p0_m2p0_a2p0_f2p0_c2p0_b_p0p94"
   4              		.attribute unaligned_access, 0
   5              		.attribute stack_align, 16
   6              		.text
   7              	.Ltext0:
   8              		.cfi_sections	.debug_frame
   9              		.section	.text.asn1_is_sequence,"ax",@progbits
  10              		.align	1
  12              	asn1_is_sequence:
  13              	.LFB75:
  14              		.file 1 "C:/Users/stapi/OneDrive/Desktop/GD32VW553/V1_MQTT_OK/GD32VW55X_Wifi_BLE_SDK/GD32VW55x_REL
   1:C:/Users/stapi/OneDrive/Desktop/GD32VW553/V1_MQTT_OK/GD32VW55X_Wifi_BLE_SDK/GD32VW55x_RELEASE_V1.0.2/MSDK/wpa_supplicant/src/tls\asn1.h **** /*
   2:C:/Users/stapi/OneDrive/Desktop/GD32VW553/V1_MQTT_OK/GD32VW55X_Wifi_BLE_SDK/GD32VW55x_RELEASE_V1.0.2/MSDK/wpa_supplicant/src/tls\asn1.h ****  * ASN.1 DER parsing
   3:C:/Users/stapi/OneDrive/Desktop/GD32VW553/V1_MQTT_OK/GD32VW55X_Wifi_BLE_SDK/GD32VW55x_RELEASE_V1.0.2/MSDK/wpa_supplicant/src/tls\asn1.h ****  * Copyright (c) 2006, Jouni Malinen <j@w1.fi>
   4:C:/Users/stapi/OneDrive/Desktop/GD32VW553/V1_MQTT_OK/GD32VW55X_Wifi_BLE_SDK/GD32VW55x_RELEASE_V1.0.2/MSDK/wpa_supplicant/src/tls\asn1.h ****  *
   5:C:/Users/stapi/OneDrive/Desktop/GD32VW553/V1_MQTT_OK/GD32VW55X_Wifi_BLE_SDK/GD32VW55x_RELEASE_V1.0.2/MSDK/wpa_supplicant/src/tls\asn1.h ****  * This software may be distributed under the terms of the BSD license.
   6:C:/Users/stapi/OneDrive/Desktop/GD32VW553/V1_MQTT_OK/GD32VW55X_Wifi_BLE_SDK/GD32VW55x_RELEASE_V1.0.2/MSDK/wpa_supplicant/src/tls\asn1.h ****  * See README for more details.
   7:C:/Users/stapi/OneDrive/Desktop/GD32VW553/V1_MQTT_OK/GD32VW55X_Wifi_BLE_SDK/GD32VW55x_RELEASE_V1.0.2/MSDK/wpa_supplicant/src/tls\asn1.h ****  */
   8:C:/Users/stapi/OneDrive/Desktop/GD32VW553/V1_MQTT_OK/GD32VW55X_Wifi_BLE_SDK/GD32VW55x_RELEASE_V1.0.2/MSDK/wpa_supplicant/src/tls\asn1.h **** 
   9:C:/Users/stapi/OneDrive/Desktop/GD32VW553/V1_MQTT_OK/GD32VW55X_Wifi_BLE_SDK/GD32VW55x_RELEASE_V1.0.2/MSDK/wpa_supplicant/src/tls\asn1.h **** #ifndef ASN1_H
  10:C:/Users/stapi/OneDrive/Desktop/GD32VW553/V1_MQTT_OK/GD32VW55X_Wifi_BLE_SDK/GD32VW55x_RELEASE_V1.0.2/MSDK/wpa_supplicant/src/tls\asn1.h **** #define ASN1_H
  11:C:/Users/stapi/OneDrive/Desktop/GD32VW553/V1_MQTT_OK/GD32VW55X_Wifi_BLE_SDK/GD32VW55x_RELEASE_V1.0.2/MSDK/wpa_supplicant/src/tls\asn1.h **** 
  12:C:/Users/stapi/OneDrive/Desktop/GD32VW553/V1_MQTT_OK/GD32VW55X_Wifi_BLE_SDK/GD32VW55x_RELEASE_V1.0.2/MSDK/wpa_supplicant/src/tls\asn1.h **** #define ASN1_TAG_EOC		0x00 /* not used with DER */
  13:C:/Users/stapi/OneDrive/Desktop/GD32VW553/V1_MQTT_OK/GD32VW55X_Wifi_BLE_SDK/GD32VW55x_RELEASE_V1.0.2/MSDK/wpa_supplicant/src/tls\asn1.h **** #define ASN1_TAG_BOOLEAN	0x01
  14:C:/Users/stapi/OneDrive/Desktop/GD32VW553/V1_MQTT_OK/GD32VW55X_Wifi_BLE_SDK/GD32VW55x_RELEASE_V1.0.2/MSDK/wpa_supplicant/src/tls\asn1.h **** #define ASN1_TAG_INTEGER	0x02
  15:C:/Users/stapi/OneDrive/Desktop/GD32VW553/V1_MQTT_OK/GD32VW55X_Wifi_BLE_SDK/GD32VW55x_RELEASE_V1.0.2/MSDK/wpa_supplicant/src/tls\asn1.h **** #define ASN1_TAG_BITSTRING	0x03
  16:C:/Users/stapi/OneDrive/Desktop/GD32VW553/V1_MQTT_OK/GD32VW55X_Wifi_BLE_SDK/GD32VW55x_RELEASE_V1.0.2/MSDK/wpa_supplicant/src/tls\asn1.h **** #define ASN1_TAG_OCTETSTRING	0x04
  17:C:/Users/stapi/OneDrive/Desktop/GD32VW553/V1_MQTT_OK/GD32VW55X_Wifi_BLE_SDK/GD32VW55x_RELEASE_V1.0.2/MSDK/wpa_supplicant/src/tls\asn1.h **** #define ASN1_TAG_NULL		0x05
  18:C:/Users/stapi/OneDrive/Desktop/GD32VW553/V1_MQTT_OK/GD32VW55X_Wifi_BLE_SDK/GD32VW55x_RELEASE_V1.0.2/MSDK/wpa_supplicant/src/tls\asn1.h **** #define ASN1_TAG_OID		0x06
  19:C:/Users/stapi/OneDrive/Desktop/GD32VW553/V1_MQTT_OK/GD32VW55X_Wifi_BLE_SDK/GD32VW55x_RELEASE_V1.0.2/MSDK/wpa_supplicant/src/tls\asn1.h **** #define ASN1_TAG_OBJECT_DESCRIPTOR	0x07 /* not yet parsed */
  20:C:/Users/stapi/OneDrive/Desktop/GD32VW553/V1_MQTT_OK/GD32VW55X_Wifi_BLE_SDK/GD32VW55x_RELEASE_V1.0.2/MSDK/wpa_supplicant/src/tls\asn1.h **** #define ASN1_TAG_EXTERNAL	0x08 /* not yet parsed */
  21:C:/Users/stapi/OneDrive/Desktop/GD32VW553/V1_MQTT_OK/GD32VW55X_Wifi_BLE_SDK/GD32VW55x_RELEASE_V1.0.2/MSDK/wpa_supplicant/src/tls\asn1.h **** #define ASN1_TAG_REAL		0x09 /* not yet parsed */
  22:C:/Users/stapi/OneDrive/Desktop/GD32VW553/V1_MQTT_OK/GD32VW55X_Wifi_BLE_SDK/GD32VW55x_RELEASE_V1.0.2/MSDK/wpa_supplicant/src/tls\asn1.h **** #define ASN1_TAG_ENUMERATED	0x0A /* not yet parsed */
  23:C:/Users/stapi/OneDrive/Desktop/GD32VW553/V1_MQTT_OK/GD32VW55X_Wifi_BLE_SDK/GD32VW55x_RELEASE_V1.0.2/MSDK/wpa_supplicant/src/tls\asn1.h **** #define ASN1_TAG_EMBEDDED_PDV	0x0B /* not yet parsed */
  24:C:/Users/stapi/OneDrive/Desktop/GD32VW553/V1_MQTT_OK/GD32VW55X_Wifi_BLE_SDK/GD32VW55x_RELEASE_V1.0.2/MSDK/wpa_supplicant/src/tls\asn1.h **** #define ASN1_TAG_UTF8STRING	0x0C /* not yet parsed */
  25:C:/Users/stapi/OneDrive/Desktop/GD32VW553/V1_MQTT_OK/GD32VW55X_Wifi_BLE_SDK/GD32VW55x_RELEASE_V1.0.2/MSDK/wpa_supplicant/src/tls\asn1.h **** #define ANS1_TAG_RELATIVE_OID	0x0D
  26:C:/Users/stapi/OneDrive/Desktop/GD32VW553/V1_MQTT_OK/GD32VW55X_Wifi_BLE_SDK/GD32VW55x_RELEASE_V1.0.2/MSDK/wpa_supplicant/src/tls\asn1.h **** #define ASN1_TAG_TIME		0x0E
  27:C:/Users/stapi/OneDrive/Desktop/GD32VW553/V1_MQTT_OK/GD32VW55X_Wifi_BLE_SDK/GD32VW55x_RELEASE_V1.0.2/MSDK/wpa_supplicant/src/tls\asn1.h **** #define ASN1_TAG_SEQUENCE	0x10 /* shall be constructed */
  28:C:/Users/stapi/OneDrive/Desktop/GD32VW553/V1_MQTT_OK/GD32VW55X_Wifi_BLE_SDK/GD32VW55x_RELEASE_V1.0.2/MSDK/wpa_supplicant/src/tls\asn1.h **** #define ASN1_TAG_SET		0x11
  29:C:/Users/stapi/OneDrive/Desktop/GD32VW553/V1_MQTT_OK/GD32VW55X_Wifi_BLE_SDK/GD32VW55x_RELEASE_V1.0.2/MSDK/wpa_supplicant/src/tls\asn1.h **** #define ASN1_TAG_NUMERICSTRING	0x12 /* not yet parsed */
  30:C:/Users/stapi/OneDrive/Desktop/GD32VW553/V1_MQTT_OK/GD32VW55X_Wifi_BLE_SDK/GD32VW55x_RELEASE_V1.0.2/MSDK/wpa_supplicant/src/tls\asn1.h **** #define ASN1_TAG_PRINTABLESTRING	0x13
  31:C:/Users/stapi/OneDrive/Desktop/GD32VW553/V1_MQTT_OK/GD32VW55X_Wifi_BLE_SDK/GD32VW55x_RELEASE_V1.0.2/MSDK/wpa_supplicant/src/tls\asn1.h **** #define ASN1_TAG_T61STRING	0x14 /* not yet parsed */
  32:C:/Users/stapi/OneDrive/Desktop/GD32VW553/V1_MQTT_OK/GD32VW55X_Wifi_BLE_SDK/GD32VW55x_RELEASE_V1.0.2/MSDK/wpa_supplicant/src/tls\asn1.h **** #define ASN1_TAG_VIDEOTEXSTRING	0x15 /* not yet parsed */
  33:C:/Users/stapi/OneDrive/Desktop/GD32VW553/V1_MQTT_OK/GD32VW55X_Wifi_BLE_SDK/GD32VW55x_RELEASE_V1.0.2/MSDK/wpa_supplicant/src/tls\asn1.h **** #define ASN1_TAG_IA5STRING	0x16
  34:C:/Users/stapi/OneDrive/Desktop/GD32VW553/V1_MQTT_OK/GD32VW55X_Wifi_BLE_SDK/GD32VW55x_RELEASE_V1.0.2/MSDK/wpa_supplicant/src/tls\asn1.h **** #define ASN1_TAG_UTCTIME	0x17
  35:C:/Users/stapi/OneDrive/Desktop/GD32VW553/V1_MQTT_OK/GD32VW55X_Wifi_BLE_SDK/GD32VW55x_RELEASE_V1.0.2/MSDK/wpa_supplicant/src/tls\asn1.h **** #define ASN1_TAG_GENERALIZEDTIME	0x18 /* not yet parsed */
  36:C:/Users/stapi/OneDrive/Desktop/GD32VW553/V1_MQTT_OK/GD32VW55X_Wifi_BLE_SDK/GD32VW55x_RELEASE_V1.0.2/MSDK/wpa_supplicant/src/tls\asn1.h **** #define ASN1_TAG_GRAPHICSTRING	0x19 /* not yet parsed */
  37:C:/Users/stapi/OneDrive/Desktop/GD32VW553/V1_MQTT_OK/GD32VW55X_Wifi_BLE_SDK/GD32VW55x_RELEASE_V1.0.2/MSDK/wpa_supplicant/src/tls\asn1.h **** #define ASN1_TAG_VISIBLESTRING	0x1A
  38:C:/Users/stapi/OneDrive/Desktop/GD32VW553/V1_MQTT_OK/GD32VW55X_Wifi_BLE_SDK/GD32VW55x_RELEASE_V1.0.2/MSDK/wpa_supplicant/src/tls\asn1.h **** #define ASN1_TAG_GENERALSTRING	0x1B /* not yet parsed */
  39:C:/Users/stapi/OneDrive/Desktop/GD32VW553/V1_MQTT_OK/GD32VW55X_Wifi_BLE_SDK/GD32VW55x_RELEASE_V1.0.2/MSDK/wpa_supplicant/src/tls\asn1.h **** #define ASN1_TAG_UNIVERSALSTRING	0x1C /* not yet parsed */
  40:C:/Users/stapi/OneDrive/Desktop/GD32VW553/V1_MQTT_OK/GD32VW55X_Wifi_BLE_SDK/GD32VW55x_RELEASE_V1.0.2/MSDK/wpa_supplicant/src/tls\asn1.h **** #define ASN1_TAG_CHARACTERSTRING	0x1D /* not yet parsed */
  41:C:/Users/stapi/OneDrive/Desktop/GD32VW553/V1_MQTT_OK/GD32VW55X_Wifi_BLE_SDK/GD32VW55x_RELEASE_V1.0.2/MSDK/wpa_supplicant/src/tls\asn1.h **** #define ASN1_TAG_BMPSTRING	0x1E /* not yet parsed */
  42:C:/Users/stapi/OneDrive/Desktop/GD32VW553/V1_MQTT_OK/GD32VW55X_Wifi_BLE_SDK/GD32VW55x_RELEASE_V1.0.2/MSDK/wpa_supplicant/src/tls\asn1.h **** 
  43:C:/Users/stapi/OneDrive/Desktop/GD32VW553/V1_MQTT_OK/GD32VW55X_Wifi_BLE_SDK/GD32VW55x_RELEASE_V1.0.2/MSDK/wpa_supplicant/src/tls\asn1.h **** #define ASN1_CLASS_UNIVERSAL		0
  44:C:/Users/stapi/OneDrive/Desktop/GD32VW553/V1_MQTT_OK/GD32VW55X_Wifi_BLE_SDK/GD32VW55x_RELEASE_V1.0.2/MSDK/wpa_supplicant/src/tls\asn1.h **** #define ASN1_CLASS_APPLICATION		1
  45:C:/Users/stapi/OneDrive/Desktop/GD32VW553/V1_MQTT_OK/GD32VW55X_Wifi_BLE_SDK/GD32VW55x_RELEASE_V1.0.2/MSDK/wpa_supplicant/src/tls\asn1.h **** #define ASN1_CLASS_CONTEXT_SPECIFIC	2
  46:C:/Users/stapi/OneDrive/Desktop/GD32VW553/V1_MQTT_OK/GD32VW55X_Wifi_BLE_SDK/GD32VW55x_RELEASE_V1.0.2/MSDK/wpa_supplicant/src/tls\asn1.h **** #define ASN1_CLASS_PRIVATE		3
  47:C:/Users/stapi/OneDrive/Desktop/GD32VW553/V1_MQTT_OK/GD32VW55X_Wifi_BLE_SDK/GD32VW55x_RELEASE_V1.0.2/MSDK/wpa_supplicant/src/tls\asn1.h **** 
  48:C:/Users/stapi/OneDrive/Desktop/GD32VW553/V1_MQTT_OK/GD32VW55X_Wifi_BLE_SDK/GD32VW55x_RELEASE_V1.0.2/MSDK/wpa_supplicant/src/tls\asn1.h **** 
  49:C:/Users/stapi/OneDrive/Desktop/GD32VW553/V1_MQTT_OK/GD32VW55X_Wifi_BLE_SDK/GD32VW55x_RELEASE_V1.0.2/MSDK/wpa_supplicant/src/tls\asn1.h **** struct asn1_hdr {
  50:C:/Users/stapi/OneDrive/Desktop/GD32VW553/V1_MQTT_OK/GD32VW55X_Wifi_BLE_SDK/GD32VW55x_RELEASE_V1.0.2/MSDK/wpa_supplicant/src/tls\asn1.h **** 	const u8 *payload;
  51:C:/Users/stapi/OneDrive/Desktop/GD32VW553/V1_MQTT_OK/GD32VW55X_Wifi_BLE_SDK/GD32VW55x_RELEASE_V1.0.2/MSDK/wpa_supplicant/src/tls\asn1.h **** 	u8 identifier, class, constructed;
  52:C:/Users/stapi/OneDrive/Desktop/GD32VW553/V1_MQTT_OK/GD32VW55X_Wifi_BLE_SDK/GD32VW55x_RELEASE_V1.0.2/MSDK/wpa_supplicant/src/tls\asn1.h **** 	unsigned int tag, length;
  53:C:/Users/stapi/OneDrive/Desktop/GD32VW553/V1_MQTT_OK/GD32VW55X_Wifi_BLE_SDK/GD32VW55x_RELEASE_V1.0.2/MSDK/wpa_supplicant/src/tls\asn1.h **** };
  54:C:/Users/stapi/OneDrive/Desktop/GD32VW553/V1_MQTT_OK/GD32VW55X_Wifi_BLE_SDK/GD32VW55x_RELEASE_V1.0.2/MSDK/wpa_supplicant/src/tls\asn1.h **** 
  55:C:/Users/stapi/OneDrive/Desktop/GD32VW553/V1_MQTT_OK/GD32VW55X_Wifi_BLE_SDK/GD32VW55x_RELEASE_V1.0.2/MSDK/wpa_supplicant/src/tls\asn1.h **** #define ASN1_MAX_OID_LEN 20
  56:C:/Users/stapi/OneDrive/Desktop/GD32VW553/V1_MQTT_OK/GD32VW55X_Wifi_BLE_SDK/GD32VW55x_RELEASE_V1.0.2/MSDK/wpa_supplicant/src/tls\asn1.h **** struct asn1_oid {
  57:C:/Users/stapi/OneDrive/Desktop/GD32VW553/V1_MQTT_OK/GD32VW55X_Wifi_BLE_SDK/GD32VW55x_RELEASE_V1.0.2/MSDK/wpa_supplicant/src/tls\asn1.h **** 	unsigned long oid[ASN1_MAX_OID_LEN];
  58:C:/Users/stapi/OneDrive/Desktop/GD32VW553/V1_MQTT_OK/GD32VW55X_Wifi_BLE_SDK/GD32VW55x_RELEASE_V1.0.2/MSDK/wpa_supplicant/src/tls\asn1.h **** 	size_t len;
  59:C:/Users/stapi/OneDrive/Desktop/GD32VW553/V1_MQTT_OK/GD32VW55X_Wifi_BLE_SDK/GD32VW55x_RELEASE_V1.0.2/MSDK/wpa_supplicant/src/tls\asn1.h **** };
  60:C:/Users/stapi/OneDrive/Desktop/GD32VW553/V1_MQTT_OK/GD32VW55X_Wifi_BLE_SDK/GD32VW55x_RELEASE_V1.0.2/MSDK/wpa_supplicant/src/tls\asn1.h **** 
  61:C:/Users/stapi/OneDrive/Desktop/GD32VW553/V1_MQTT_OK/GD32VW55X_Wifi_BLE_SDK/GD32VW55x_RELEASE_V1.0.2/MSDK/wpa_supplicant/src/tls\asn1.h **** 
  62:C:/Users/stapi/OneDrive/Desktop/GD32VW553/V1_MQTT_OK/GD32VW55X_Wifi_BLE_SDK/GD32VW55x_RELEASE_V1.0.2/MSDK/wpa_supplicant/src/tls\asn1.h **** int asn1_get_next(const u8 *buf, size_t len, struct asn1_hdr *hdr);
  63:C:/Users/stapi/OneDrive/Desktop/GD32VW553/V1_MQTT_OK/GD32VW55X_Wifi_BLE_SDK/GD32VW55x_RELEASE_V1.0.2/MSDK/wpa_supplicant/src/tls\asn1.h **** void asn1_print_hdr(const struct asn1_hdr *hdr, const char *title);
  64:C:/Users/stapi/OneDrive/Desktop/GD32VW553/V1_MQTT_OK/GD32VW55X_Wifi_BLE_SDK/GD32VW55x_RELEASE_V1.0.2/MSDK/wpa_supplicant/src/tls\asn1.h **** void asn1_unexpected(const struct asn1_hdr *hdr, const char *title);
  65:C:/Users/stapi/OneDrive/Desktop/GD32VW553/V1_MQTT_OK/GD32VW55X_Wifi_BLE_SDK/GD32VW55x_RELEASE_V1.0.2/MSDK/wpa_supplicant/src/tls\asn1.h **** int asn1_parse_oid(const u8 *buf, size_t len, struct asn1_oid *oid);
  66:C:/Users/stapi/OneDrive/Desktop/GD32VW553/V1_MQTT_OK/GD32VW55X_Wifi_BLE_SDK/GD32VW55x_RELEASE_V1.0.2/MSDK/wpa_supplicant/src/tls\asn1.h **** int asn1_get_oid(const u8 *buf, size_t len, struct asn1_oid *oid,
  67:C:/Users/stapi/OneDrive/Desktop/GD32VW553/V1_MQTT_OK/GD32VW55X_Wifi_BLE_SDK/GD32VW55x_RELEASE_V1.0.2/MSDK/wpa_supplicant/src/tls\asn1.h **** 		 const u8 **next);
  68:C:/Users/stapi/OneDrive/Desktop/GD32VW553/V1_MQTT_OK/GD32VW55X_Wifi_BLE_SDK/GD32VW55x_RELEASE_V1.0.2/MSDK/wpa_supplicant/src/tls\asn1.h **** void asn1_oid_to_str(const struct asn1_oid *oid, char *buf, size_t len);
  69:C:/Users/stapi/OneDrive/Desktop/GD32VW553/V1_MQTT_OK/GD32VW55X_Wifi_BLE_SDK/GD32VW55x_RELEASE_V1.0.2/MSDK/wpa_supplicant/src/tls\asn1.h **** unsigned long asn1_bit_string_to_long(const u8 *buf, size_t len);
  70:C:/Users/stapi/OneDrive/Desktop/GD32VW553/V1_MQTT_OK/GD32VW55X_Wifi_BLE_SDK/GD32VW55x_RELEASE_V1.0.2/MSDK/wpa_supplicant/src/tls\asn1.h **** int asn1_oid_equal(const struct asn1_oid *a, const struct asn1_oid *b);
  71:C:/Users/stapi/OneDrive/Desktop/GD32VW553/V1_MQTT_OK/GD32VW55X_Wifi_BLE_SDK/GD32VW55x_RELEASE_V1.0.2/MSDK/wpa_supplicant/src/tls\asn1.h **** int asn1_get_integer(const u8 *buf, size_t len, int *integer, const u8 **next);
  72:C:/Users/stapi/OneDrive/Desktop/GD32VW553/V1_MQTT_OK/GD32VW55X_Wifi_BLE_SDK/GD32VW55x_RELEASE_V1.0.2/MSDK/wpa_supplicant/src/tls\asn1.h **** int asn1_get_sequence(const u8 *buf, size_t len, struct asn1_hdr *hdr,
  73:C:/Users/stapi/OneDrive/Desktop/GD32VW553/V1_MQTT_OK/GD32VW55X_Wifi_BLE_SDK/GD32VW55x_RELEASE_V1.0.2/MSDK/wpa_supplicant/src/tls\asn1.h **** 		      const u8 **next);
  74:C:/Users/stapi/OneDrive/Desktop/GD32VW553/V1_MQTT_OK/GD32VW55X_Wifi_BLE_SDK/GD32VW55x_RELEASE_V1.0.2/MSDK/wpa_supplicant/src/tls\asn1.h **** int asn1_get_alg_id(const u8 *buf, size_t len, struct asn1_oid *oid,
  75:C:/Users/stapi/OneDrive/Desktop/GD32VW553/V1_MQTT_OK/GD32VW55X_Wifi_BLE_SDK/GD32VW55x_RELEASE_V1.0.2/MSDK/wpa_supplicant/src/tls\asn1.h **** 		    const u8 **params, size_t *params_len, const u8 **next);
  76:C:/Users/stapi/OneDrive/Desktop/GD32VW553/V1_MQTT_OK/GD32VW55X_Wifi_BLE_SDK/GD32VW55x_RELEASE_V1.0.2/MSDK/wpa_supplicant/src/tls\asn1.h **** void asn1_put_integer(struct wpabuf *buf, int val);
  77:C:/Users/stapi/OneDrive/Desktop/GD32VW553/V1_MQTT_OK/GD32VW55X_Wifi_BLE_SDK/GD32VW55x_RELEASE_V1.0.2/MSDK/wpa_supplicant/src/tls\asn1.h **** void asn1_put_octet_string(struct wpabuf *buf, const struct wpabuf *val);
  78:C:/Users/stapi/OneDrive/Desktop/GD32VW553/V1_MQTT_OK/GD32VW55X_Wifi_BLE_SDK/GD32VW55x_RELEASE_V1.0.2/MSDK/wpa_supplicant/src/tls\asn1.h **** void asn1_put_oid(struct wpabuf *buf, const struct asn1_oid *oid);
  79:C:/Users/stapi/OneDrive/Desktop/GD32VW553/V1_MQTT_OK/GD32VW55X_Wifi_BLE_SDK/GD32VW55x_RELEASE_V1.0.2/MSDK/wpa_supplicant/src/tls\asn1.h **** void asn1_put_hdr(struct wpabuf *buf, u8 class, int constructed, u8 tag,
  80:C:/Users/stapi/OneDrive/Desktop/GD32VW553/V1_MQTT_OK/GD32VW55X_Wifi_BLE_SDK/GD32VW55x_RELEASE_V1.0.2/MSDK/wpa_supplicant/src/tls\asn1.h **** 		  size_t len);
  81:C:/Users/stapi/OneDrive/Desktop/GD32VW553/V1_MQTT_OK/GD32VW55X_Wifi_BLE_SDK/GD32VW55x_RELEASE_V1.0.2/MSDK/wpa_supplicant/src/tls\asn1.h **** void asn1_put_sequence(struct wpabuf *buf, const struct wpabuf *payload);
  82:C:/Users/stapi/OneDrive/Desktop/GD32VW553/V1_MQTT_OK/GD32VW55X_Wifi_BLE_SDK/GD32VW55x_RELEASE_V1.0.2/MSDK/wpa_supplicant/src/tls\asn1.h **** void asn1_put_set(struct wpabuf *buf, const struct wpabuf *payload);
  83:C:/Users/stapi/OneDrive/Desktop/GD32VW553/V1_MQTT_OK/GD32VW55X_Wifi_BLE_SDK/GD32VW55x_RELEASE_V1.0.2/MSDK/wpa_supplicant/src/tls\asn1.h **** void asn1_put_utf8string(struct wpabuf *buf, const char *val);
  84:C:/Users/stapi/OneDrive/Desktop/GD32VW553/V1_MQTT_OK/GD32VW55X_Wifi_BLE_SDK/GD32VW55x_RELEASE_V1.0.2/MSDK/wpa_supplicant/src/tls\asn1.h **** struct wpabuf * asn1_build_alg_id(const struct asn1_oid *oid,
  85:C:/Users/stapi/OneDrive/Desktop/GD32VW553/V1_MQTT_OK/GD32VW55X_Wifi_BLE_SDK/GD32VW55x_RELEASE_V1.0.2/MSDK/wpa_supplicant/src/tls\asn1.h **** 				  const struct wpabuf *params);
  86:C:/Users/stapi/OneDrive/Desktop/GD32VW553/V1_MQTT_OK/GD32VW55X_Wifi_BLE_SDK/GD32VW55x_RELEASE_V1.0.2/MSDK/wpa_supplicant/src/tls\asn1.h **** struct wpabuf * asn1_encaps(struct wpabuf *buf, u8 class, u8 tag);
  87:C:/Users/stapi/OneDrive/Desktop/GD32VW553/V1_MQTT_OK/GD32VW55X_Wifi_BLE_SDK/GD32VW55x_RELEASE_V1.0.2/MSDK/wpa_supplicant/src/tls\asn1.h **** 
  88:C:/Users/stapi/OneDrive/Desktop/GD32VW553/V1_MQTT_OK/GD32VW55X_Wifi_BLE_SDK/GD32VW55x_RELEASE_V1.0.2/MSDK/wpa_supplicant/src/tls\asn1.h **** static inline bool asn1_is_oid(const struct asn1_hdr *hdr)
  89:C:/Users/stapi/OneDrive/Desktop/GD32VW553/V1_MQTT_OK/GD32VW55X_Wifi_BLE_SDK/GD32VW55x_RELEASE_V1.0.2/MSDK/wpa_supplicant/src/tls\asn1.h **** {
  90:C:/Users/stapi/OneDrive/Desktop/GD32VW553/V1_MQTT_OK/GD32VW55X_Wifi_BLE_SDK/GD32VW55x_RELEASE_V1.0.2/MSDK/wpa_supplicant/src/tls\asn1.h **** 	return hdr->class == ASN1_CLASS_UNIVERSAL &&
  91:C:/Users/stapi/OneDrive/Desktop/GD32VW553/V1_MQTT_OK/GD32VW55X_Wifi_BLE_SDK/GD32VW55x_RELEASE_V1.0.2/MSDK/wpa_supplicant/src/tls\asn1.h **** 		hdr->tag == ASN1_TAG_OID;
  92:C:/Users/stapi/OneDrive/Desktop/GD32VW553/V1_MQTT_OK/GD32VW55X_Wifi_BLE_SDK/GD32VW55x_RELEASE_V1.0.2/MSDK/wpa_supplicant/src/tls\asn1.h **** }
  93:C:/Users/stapi/OneDrive/Desktop/GD32VW553/V1_MQTT_OK/GD32VW55X_Wifi_BLE_SDK/GD32VW55x_RELEASE_V1.0.2/MSDK/wpa_supplicant/src/tls\asn1.h **** 
  94:C:/Users/stapi/OneDrive/Desktop/GD32VW553/V1_MQTT_OK/GD32VW55X_Wifi_BLE_SDK/GD32VW55x_RELEASE_V1.0.2/MSDK/wpa_supplicant/src/tls\asn1.h **** static inline bool asn1_is_boolean(const struct asn1_hdr *hdr)
  95:C:/Users/stapi/OneDrive/Desktop/GD32VW553/V1_MQTT_OK/GD32VW55X_Wifi_BLE_SDK/GD32VW55x_RELEASE_V1.0.2/MSDK/wpa_supplicant/src/tls\asn1.h **** {
  96:C:/Users/stapi/OneDrive/Desktop/GD32VW553/V1_MQTT_OK/GD32VW55X_Wifi_BLE_SDK/GD32VW55x_RELEASE_V1.0.2/MSDK/wpa_supplicant/src/tls\asn1.h **** 	return hdr->class == ASN1_CLASS_UNIVERSAL &&
  97:C:/Users/stapi/OneDrive/Desktop/GD32VW553/V1_MQTT_OK/GD32VW55X_Wifi_BLE_SDK/GD32VW55x_RELEASE_V1.0.2/MSDK/wpa_supplicant/src/tls\asn1.h **** 		hdr->tag == ASN1_TAG_BOOLEAN;
  98:C:/Users/stapi/OneDrive/Desktop/GD32VW553/V1_MQTT_OK/GD32VW55X_Wifi_BLE_SDK/GD32VW55x_RELEASE_V1.0.2/MSDK/wpa_supplicant/src/tls\asn1.h **** }
  99:C:/Users/stapi/OneDrive/Desktop/GD32VW553/V1_MQTT_OK/GD32VW55X_Wifi_BLE_SDK/GD32VW55x_RELEASE_V1.0.2/MSDK/wpa_supplicant/src/tls\asn1.h **** 
 100:C:/Users/stapi/OneDrive/Desktop/GD32VW553/V1_MQTT_OK/GD32VW55X_Wifi_BLE_SDK/GD32VW55x_RELEASE_V1.0.2/MSDK/wpa_supplicant/src/tls\asn1.h **** static inline bool asn1_is_integer(const struct asn1_hdr *hdr)
 101:C:/Users/stapi/OneDrive/Desktop/GD32VW553/V1_MQTT_OK/GD32VW55X_Wifi_BLE_SDK/GD32VW55x_RELEASE_V1.0.2/MSDK/wpa_supplicant/src/tls\asn1.h **** {
 102:C:/Users/stapi/OneDrive/Desktop/GD32VW553/V1_MQTT_OK/GD32VW55X_Wifi_BLE_SDK/GD32VW55x_RELEASE_V1.0.2/MSDK/wpa_supplicant/src/tls\asn1.h **** 	return hdr->class == ASN1_CLASS_UNIVERSAL &&
 103:C:/Users/stapi/OneDrive/Desktop/GD32VW553/V1_MQTT_OK/GD32VW55X_Wifi_BLE_SDK/GD32VW55x_RELEASE_V1.0.2/MSDK/wpa_supplicant/src/tls\asn1.h **** 		hdr->tag == ASN1_TAG_INTEGER;
 104:C:/Users/stapi/OneDrive/Desktop/GD32VW553/V1_MQTT_OK/GD32VW55X_Wifi_BLE_SDK/GD32VW55x_RELEASE_V1.0.2/MSDK/wpa_supplicant/src/tls\asn1.h **** }
 105:C:/Users/stapi/OneDrive/Desktop/GD32VW553/V1_MQTT_OK/GD32VW55X_Wifi_BLE_SDK/GD32VW55x_RELEASE_V1.0.2/MSDK/wpa_supplicant/src/tls\asn1.h **** 
 106:C:/Users/stapi/OneDrive/Desktop/GD32VW553/V1_MQTT_OK/GD32VW55X_Wifi_BLE_SDK/GD32VW55x_RELEASE_V1.0.2/MSDK/wpa_supplicant/src/tls\asn1.h **** static inline bool asn1_is_enumerated(const struct asn1_hdr *hdr)
 107:C:/Users/stapi/OneDrive/Desktop/GD32VW553/V1_MQTT_OK/GD32VW55X_Wifi_BLE_SDK/GD32VW55x_RELEASE_V1.0.2/MSDK/wpa_supplicant/src/tls\asn1.h **** {
 108:C:/Users/stapi/OneDrive/Desktop/GD32VW553/V1_MQTT_OK/GD32VW55X_Wifi_BLE_SDK/GD32VW55x_RELEASE_V1.0.2/MSDK/wpa_supplicant/src/tls\asn1.h **** 	return hdr->class == ASN1_CLASS_UNIVERSAL &&
 109:C:/Users/stapi/OneDrive/Desktop/GD32VW553/V1_MQTT_OK/GD32VW55X_Wifi_BLE_SDK/GD32VW55x_RELEASE_V1.0.2/MSDK/wpa_supplicant/src/tls\asn1.h **** 		hdr->tag == ASN1_TAG_ENUMERATED;
 110:C:/Users/stapi/OneDrive/Desktop/GD32VW553/V1_MQTT_OK/GD32VW55X_Wifi_BLE_SDK/GD32VW55x_RELEASE_V1.0.2/MSDK/wpa_supplicant/src/tls\asn1.h **** }
 111:C:/Users/stapi/OneDrive/Desktop/GD32VW553/V1_MQTT_OK/GD32VW55X_Wifi_BLE_SDK/GD32VW55x_RELEASE_V1.0.2/MSDK/wpa_supplicant/src/tls\asn1.h **** 
 112:C:/Users/stapi/OneDrive/Desktop/GD32VW553/V1_MQTT_OK/GD32VW55X_Wifi_BLE_SDK/GD32VW55x_RELEASE_V1.0.2/MSDK/wpa_supplicant/src/tls\asn1.h **** static inline bool asn1_is_sequence(const struct asn1_hdr *hdr)
 113:C:/Users/stapi/OneDrive/Desktop/GD32VW553/V1_MQTT_OK/GD32VW55X_Wifi_BLE_SDK/GD32VW55x_RELEASE_V1.0.2/MSDK/wpa_supplicant/src/tls\asn1.h **** {
  15              		.loc 1 113 1
  16              		.cfi_startproc
  17              	.LVL0:
 114:C:/Users/stapi/OneDrive/Desktop/GD32VW553/V1_MQTT_OK/GD32VW55X_Wifi_BLE_SDK/GD32VW55x_RELEASE_V1.0.2/MSDK/wpa_supplicant/src/tls\asn1.h **** 	return hdr->class == ASN1_CLASS_UNIVERSAL &&
  18              		.loc 1 114 2
  19              		.loc 1 114 44 is_stmt 0
  20 0000 83475500 		lbu	a5,5(a0)
  21 0004 91E7     		bne	a5,zero,.L3
  22              		.loc 1 114 44 discriminator 1
  23 0006 0845     		lw	a0,8(a0)
  24              	.LVL1:
  25 0008 4115     		addi	a0,a0,-16
  26 000a 13351500 		seqz	a0,a0
  27 000e 8280     		ret
  28              	.LVL2:
  29              	.L3:
  30              		.loc 1 114 44
  31 0010 0145     		li	a0,0
  32              	.LVL3:
 115:C:/Users/stapi/OneDrive/Desktop/GD32VW553/V1_MQTT_OK/GD32VW55X_Wifi_BLE_SDK/GD32VW55x_RELEASE_V1.0.2/MSDK/wpa_supplicant/src/tls\asn1.h **** 		hdr->tag == ASN1_TAG_SEQUENCE;
 116:C:/Users/stapi/OneDrive/Desktop/GD32VW553/V1_MQTT_OK/GD32VW55X_Wifi_BLE_SDK/GD32VW55x_RELEASE_V1.0.2/MSDK/wpa_supplicant/src/tls\asn1.h **** }
  33              		.loc 1 116 1
  34 0012 8280     		ret
  35              		.cfi_endproc
  36              	.LFE75:
  38              		.section	.text.ocsp_responder_id_match,"ax",@progbits
  39              		.align	1
  41              	ocsp_responder_id_match:
  42              	.LFB87:
  43              		.file 2 "C:/Users/stapi/OneDrive/Desktop/GD32VW553/V1_MQTT_OK/GD32VW55X_Wifi_BLE_SDK/GD32VW55x_REL
   1:C:/Users/stapi/OneDrive/Desktop/GD32VW553/V1_MQTT_OK/GD32VW55X_Wifi_BLE_SDK/GD32VW55x_RELEASE_V1.0.2/MSDK/wpa_supplicant/src/tls\tlsv1_client_ocsp.c **** /*
   2:C:/Users/stapi/OneDrive/Desktop/GD32VW553/V1_MQTT_OK/GD32VW55X_Wifi_BLE_SDK/GD32VW55x_RELEASE_V1.0.2/MSDK/wpa_supplicant/src/tls\tlsv1_client_ocsp.c ****  * TLSv1 client - OCSP
   3:C:/Users/stapi/OneDrive/Desktop/GD32VW553/V1_MQTT_OK/GD32VW55X_Wifi_BLE_SDK/GD32VW55x_RELEASE_V1.0.2/MSDK/wpa_supplicant/src/tls\tlsv1_client_ocsp.c ****  * Copyright (c) 2015, Jouni Malinen <j@w1.fi>
   4:C:/Users/stapi/OneDrive/Desktop/GD32VW553/V1_MQTT_OK/GD32VW55X_Wifi_BLE_SDK/GD32VW55x_RELEASE_V1.0.2/MSDK/wpa_supplicant/src/tls\tlsv1_client_ocsp.c ****  *
   5:C:/Users/stapi/OneDrive/Desktop/GD32VW553/V1_MQTT_OK/GD32VW55X_Wifi_BLE_SDK/GD32VW55x_RELEASE_V1.0.2/MSDK/wpa_supplicant/src/tls\tlsv1_client_ocsp.c ****  * This software may be distributed under the terms of the BSD license.
   6:C:/Users/stapi/OneDrive/Desktop/GD32VW553/V1_MQTT_OK/GD32VW55X_Wifi_BLE_SDK/GD32VW55x_RELEASE_V1.0.2/MSDK/wpa_supplicant/src/tls\tlsv1_client_ocsp.c ****  * See README for more details.
   7:C:/Users/stapi/OneDrive/Desktop/GD32VW553/V1_MQTT_OK/GD32VW55X_Wifi_BLE_SDK/GD32VW55x_RELEASE_V1.0.2/MSDK/wpa_supplicant/src/tls\tlsv1_client_ocsp.c ****  */
   8:C:/Users/stapi/OneDrive/Desktop/GD32VW553/V1_MQTT_OK/GD32VW55X_Wifi_BLE_SDK/GD32VW55x_RELEASE_V1.0.2/MSDK/wpa_supplicant/src/tls\tlsv1_client_ocsp.c **** 
   9:C:/Users/stapi/OneDrive/Desktop/GD32VW553/V1_MQTT_OK/GD32VW55X_Wifi_BLE_SDK/GD32VW55x_RELEASE_V1.0.2/MSDK/wpa_supplicant/src/tls\tlsv1_client_ocsp.c **** #include "includes.h"
  10:C:/Users/stapi/OneDrive/Desktop/GD32VW553/V1_MQTT_OK/GD32VW55X_Wifi_BLE_SDK/GD32VW55x_RELEASE_V1.0.2/MSDK/wpa_supplicant/src/tls\tlsv1_client_ocsp.c **** 
  11:C:/Users/stapi/OneDrive/Desktop/GD32VW553/V1_MQTT_OK/GD32VW55X_Wifi_BLE_SDK/GD32VW55x_RELEASE_V1.0.2/MSDK/wpa_supplicant/src/tls\tlsv1_client_ocsp.c **** #include "common.h"
  12:C:/Users/stapi/OneDrive/Desktop/GD32VW553/V1_MQTT_OK/GD32VW55X_Wifi_BLE_SDK/GD32VW55x_RELEASE_V1.0.2/MSDK/wpa_supplicant/src/tls\tlsv1_client_ocsp.c **** #include "crypto/tls.h"
  13:C:/Users/stapi/OneDrive/Desktop/GD32VW553/V1_MQTT_OK/GD32VW55X_Wifi_BLE_SDK/GD32VW55x_RELEASE_V1.0.2/MSDK/wpa_supplicant/src/tls\tlsv1_client_ocsp.c **** #include "crypto/sha1.h"
  14:C:/Users/stapi/OneDrive/Desktop/GD32VW553/V1_MQTT_OK/GD32VW55X_Wifi_BLE_SDK/GD32VW55x_RELEASE_V1.0.2/MSDK/wpa_supplicant/src/tls\tlsv1_client_ocsp.c **** #include "asn1.h"
  15:C:/Users/stapi/OneDrive/Desktop/GD32VW553/V1_MQTT_OK/GD32VW55X_Wifi_BLE_SDK/GD32VW55x_RELEASE_V1.0.2/MSDK/wpa_supplicant/src/tls\tlsv1_client_ocsp.c **** #include "x509v3.h"
  16:C:/Users/stapi/OneDrive/Desktop/GD32VW553/V1_MQTT_OK/GD32VW55X_Wifi_BLE_SDK/GD32VW55x_RELEASE_V1.0.2/MSDK/wpa_supplicant/src/tls\tlsv1_client_ocsp.c **** #include "tlsv1_common.h"
  17:C:/Users/stapi/OneDrive/Desktop/GD32VW553/V1_MQTT_OK/GD32VW55X_Wifi_BLE_SDK/GD32VW55x_RELEASE_V1.0.2/MSDK/wpa_supplicant/src/tls\tlsv1_client_ocsp.c **** #include "tlsv1_record.h"
  18:C:/Users/stapi/OneDrive/Desktop/GD32VW553/V1_MQTT_OK/GD32VW55X_Wifi_BLE_SDK/GD32VW55x_RELEASE_V1.0.2/MSDK/wpa_supplicant/src/tls\tlsv1_client_ocsp.c **** #include "tlsv1_client.h"
  19:C:/Users/stapi/OneDrive/Desktop/GD32VW553/V1_MQTT_OK/GD32VW55X_Wifi_BLE_SDK/GD32VW55x_RELEASE_V1.0.2/MSDK/wpa_supplicant/src/tls\tlsv1_client_ocsp.c **** #include "tlsv1_client_i.h"
  20:C:/Users/stapi/OneDrive/Desktop/GD32VW553/V1_MQTT_OK/GD32VW55X_Wifi_BLE_SDK/GD32VW55x_RELEASE_V1.0.2/MSDK/wpa_supplicant/src/tls\tlsv1_client_ocsp.c **** 
  21:C:/Users/stapi/OneDrive/Desktop/GD32VW553/V1_MQTT_OK/GD32VW55X_Wifi_BLE_SDK/GD32VW55x_RELEASE_V1.0.2/MSDK/wpa_supplicant/src/tls\tlsv1_client_ocsp.c **** 
  22:C:/Users/stapi/OneDrive/Desktop/GD32VW553/V1_MQTT_OK/GD32VW55X_Wifi_BLE_SDK/GD32VW55x_RELEASE_V1.0.2/MSDK/wpa_supplicant/src/tls\tlsv1_client_ocsp.c **** /* RFC 6960, 4.2.1: OCSPResponseStatus ::= ENUMERATED */
  23:C:/Users/stapi/OneDrive/Desktop/GD32VW553/V1_MQTT_OK/GD32VW55X_Wifi_BLE_SDK/GD32VW55x_RELEASE_V1.0.2/MSDK/wpa_supplicant/src/tls\tlsv1_client_ocsp.c **** enum ocsp_response_status {
  24:C:/Users/stapi/OneDrive/Desktop/GD32VW553/V1_MQTT_OK/GD32VW55X_Wifi_BLE_SDK/GD32VW55x_RELEASE_V1.0.2/MSDK/wpa_supplicant/src/tls\tlsv1_client_ocsp.c **** 	OCSP_RESP_STATUS_SUCCESSFUL = 0,
  25:C:/Users/stapi/OneDrive/Desktop/GD32VW553/V1_MQTT_OK/GD32VW55X_Wifi_BLE_SDK/GD32VW55x_RELEASE_V1.0.2/MSDK/wpa_supplicant/src/tls\tlsv1_client_ocsp.c **** 	OCSP_RESP_STATUS_MALFORMED_REQ = 1,
  26:C:/Users/stapi/OneDrive/Desktop/GD32VW553/V1_MQTT_OK/GD32VW55X_Wifi_BLE_SDK/GD32VW55x_RELEASE_V1.0.2/MSDK/wpa_supplicant/src/tls\tlsv1_client_ocsp.c **** 	OCSP_RESP_STATUS_INT_ERROR = 2,
  27:C:/Users/stapi/OneDrive/Desktop/GD32VW553/V1_MQTT_OK/GD32VW55X_Wifi_BLE_SDK/GD32VW55x_RELEASE_V1.0.2/MSDK/wpa_supplicant/src/tls\tlsv1_client_ocsp.c **** 	OCSP_RESP_STATUS_TRY_LATER = 3,
  28:C:/Users/stapi/OneDrive/Desktop/GD32VW553/V1_MQTT_OK/GD32VW55X_Wifi_BLE_SDK/GD32VW55x_RELEASE_V1.0.2/MSDK/wpa_supplicant/src/tls\tlsv1_client_ocsp.c **** 	/* 4 not used */
  29:C:/Users/stapi/OneDrive/Desktop/GD32VW553/V1_MQTT_OK/GD32VW55X_Wifi_BLE_SDK/GD32VW55x_RELEASE_V1.0.2/MSDK/wpa_supplicant/src/tls\tlsv1_client_ocsp.c **** 	OCSP_RESP_STATUS_SIG_REQUIRED = 5,
  30:C:/Users/stapi/OneDrive/Desktop/GD32VW553/V1_MQTT_OK/GD32VW55X_Wifi_BLE_SDK/GD32VW55x_RELEASE_V1.0.2/MSDK/wpa_supplicant/src/tls\tlsv1_client_ocsp.c **** 	OCSP_RESP_STATUS_UNAUTHORIZED = 6,
  31:C:/Users/stapi/OneDrive/Desktop/GD32VW553/V1_MQTT_OK/GD32VW55X_Wifi_BLE_SDK/GD32VW55x_RELEASE_V1.0.2/MSDK/wpa_supplicant/src/tls\tlsv1_client_ocsp.c **** };
  32:C:/Users/stapi/OneDrive/Desktop/GD32VW553/V1_MQTT_OK/GD32VW55X_Wifi_BLE_SDK/GD32VW55x_RELEASE_V1.0.2/MSDK/wpa_supplicant/src/tls\tlsv1_client_ocsp.c **** 
  33:C:/Users/stapi/OneDrive/Desktop/GD32VW553/V1_MQTT_OK/GD32VW55X_Wifi_BLE_SDK/GD32VW55x_RELEASE_V1.0.2/MSDK/wpa_supplicant/src/tls\tlsv1_client_ocsp.c **** 
  34:C:/Users/stapi/OneDrive/Desktop/GD32VW553/V1_MQTT_OK/GD32VW55X_Wifi_BLE_SDK/GD32VW55x_RELEASE_V1.0.2/MSDK/wpa_supplicant/src/tls\tlsv1_client_ocsp.c **** static int is_oid_basic_ocsp_resp(struct asn1_oid *oid)
  35:C:/Users/stapi/OneDrive/Desktop/GD32VW553/V1_MQTT_OK/GD32VW55X_Wifi_BLE_SDK/GD32VW55x_RELEASE_V1.0.2/MSDK/wpa_supplicant/src/tls\tlsv1_client_ocsp.c **** {
  36:C:/Users/stapi/OneDrive/Desktop/GD32VW553/V1_MQTT_OK/GD32VW55X_Wifi_BLE_SDK/GD32VW55x_RELEASE_V1.0.2/MSDK/wpa_supplicant/src/tls\tlsv1_client_ocsp.c **** 	return oid->len == 10 &&
  37:C:/Users/stapi/OneDrive/Desktop/GD32VW553/V1_MQTT_OK/GD32VW55X_Wifi_BLE_SDK/GD32VW55x_RELEASE_V1.0.2/MSDK/wpa_supplicant/src/tls\tlsv1_client_ocsp.c **** 		oid->oid[0] == 1 /* iso */ &&
  38:C:/Users/stapi/OneDrive/Desktop/GD32VW553/V1_MQTT_OK/GD32VW55X_Wifi_BLE_SDK/GD32VW55x_RELEASE_V1.0.2/MSDK/wpa_supplicant/src/tls\tlsv1_client_ocsp.c **** 		oid->oid[1] == 3 /* identified-organization */ &&
  39:C:/Users/stapi/OneDrive/Desktop/GD32VW553/V1_MQTT_OK/GD32VW55X_Wifi_BLE_SDK/GD32VW55x_RELEASE_V1.0.2/MSDK/wpa_supplicant/src/tls\tlsv1_client_ocsp.c **** 		oid->oid[2] == 6 /* dod */ &&
  40:C:/Users/stapi/OneDrive/Desktop/GD32VW553/V1_MQTT_OK/GD32VW55X_Wifi_BLE_SDK/GD32VW55x_RELEASE_V1.0.2/MSDK/wpa_supplicant/src/tls\tlsv1_client_ocsp.c **** 		oid->oid[3] == 1 /* internet */ &&
  41:C:/Users/stapi/OneDrive/Desktop/GD32VW553/V1_MQTT_OK/GD32VW55X_Wifi_BLE_SDK/GD32VW55x_RELEASE_V1.0.2/MSDK/wpa_supplicant/src/tls\tlsv1_client_ocsp.c **** 		oid->oid[4] == 5 /* security */ &&
  42:C:/Users/stapi/OneDrive/Desktop/GD32VW553/V1_MQTT_OK/GD32VW55X_Wifi_BLE_SDK/GD32VW55x_RELEASE_V1.0.2/MSDK/wpa_supplicant/src/tls\tlsv1_client_ocsp.c **** 		oid->oid[5] == 5 /* mechanisms */ &&
  43:C:/Users/stapi/OneDrive/Desktop/GD32VW553/V1_MQTT_OK/GD32VW55X_Wifi_BLE_SDK/GD32VW55x_RELEASE_V1.0.2/MSDK/wpa_supplicant/src/tls\tlsv1_client_ocsp.c **** 		oid->oid[6] == 7 /* id-pkix */ &&
  44:C:/Users/stapi/OneDrive/Desktop/GD32VW553/V1_MQTT_OK/GD32VW55X_Wifi_BLE_SDK/GD32VW55x_RELEASE_V1.0.2/MSDK/wpa_supplicant/src/tls\tlsv1_client_ocsp.c **** 		oid->oid[7] == 48 /* id-ad */ &&
  45:C:/Users/stapi/OneDrive/Desktop/GD32VW553/V1_MQTT_OK/GD32VW55X_Wifi_BLE_SDK/GD32VW55x_RELEASE_V1.0.2/MSDK/wpa_supplicant/src/tls\tlsv1_client_ocsp.c **** 		oid->oid[8] == 1 /* id-pkix-ocsp */ &&
  46:C:/Users/stapi/OneDrive/Desktop/GD32VW553/V1_MQTT_OK/GD32VW55X_Wifi_BLE_SDK/GD32VW55x_RELEASE_V1.0.2/MSDK/wpa_supplicant/src/tls\tlsv1_client_ocsp.c **** 		oid->oid[9] == 1 /* id-pkix-ocsp-basic */;
  47:C:/Users/stapi/OneDrive/Desktop/GD32VW553/V1_MQTT_OK/GD32VW55X_Wifi_BLE_SDK/GD32VW55x_RELEASE_V1.0.2/MSDK/wpa_supplicant/src/tls\tlsv1_client_ocsp.c **** }
  48:C:/Users/stapi/OneDrive/Desktop/GD32VW553/V1_MQTT_OK/GD32VW55X_Wifi_BLE_SDK/GD32VW55x_RELEASE_V1.0.2/MSDK/wpa_supplicant/src/tls\tlsv1_client_ocsp.c **** 
  49:C:/Users/stapi/OneDrive/Desktop/GD32VW553/V1_MQTT_OK/GD32VW55X_Wifi_BLE_SDK/GD32VW55x_RELEASE_V1.0.2/MSDK/wpa_supplicant/src/tls\tlsv1_client_ocsp.c **** 
  50:C:/Users/stapi/OneDrive/Desktop/GD32VW553/V1_MQTT_OK/GD32VW55X_Wifi_BLE_SDK/GD32VW55x_RELEASE_V1.0.2/MSDK/wpa_supplicant/src/tls\tlsv1_client_ocsp.c **** static int ocsp_responder_id_match(struct x509_certificate *signer,
  51:C:/Users/stapi/OneDrive/Desktop/GD32VW553/V1_MQTT_OK/GD32VW55X_Wifi_BLE_SDK/GD32VW55x_RELEASE_V1.0.2/MSDK/wpa_supplicant/src/tls\tlsv1_client_ocsp.c **** 				   struct x509_name *name, const u8 *key_hash)
  52:C:/Users/stapi/OneDrive/Desktop/GD32VW553/V1_MQTT_OK/GD32VW55X_Wifi_BLE_SDK/GD32VW55x_RELEASE_V1.0.2/MSDK/wpa_supplicant/src/tls\tlsv1_client_ocsp.c **** {
  44              		.loc 2 52 1 is_stmt 1
  45              		.cfi_startproc
  46              	.LVL4:
  47 0000 17030000 		call	t0,__riscv_save_1
  47      E7020300 
  48              		.cfi_offset 8, -8
  49              		.cfi_offset 1, -4
  50              		.cfi_def_cfa_offset 16
  53:C:/Users/stapi/OneDrive/Desktop/GD32VW553/V1_MQTT_OK/GD32VW55X_Wifi_BLE_SDK/GD32VW55x_RELEASE_V1.0.2/MSDK/wpa_supplicant/src/tls\tlsv1_client_ocsp.c **** 	if (key_hash) {
  51              		.loc 2 53 2
  52:C:/Users/stapi/OneDrive/Desktop/GD32VW553/V1_MQTT_OK/GD32VW55X_Wifi_BLE_SDK/GD32VW55x_RELEASE_V1.0.2/MSDK/wpa_supplicant/src/tls\tlsv1_client_ocsp.c **** 	if (key_hash) {
  52              		.loc 2 52 1 is_stmt 0
  53 0008 0111     		addi	sp,sp,-32
  54              		.cfi_def_cfa_offset 48
  55              		.loc 2 53 5
  56 000a 31C2     		beq	a2,zero,.L5
  57              	.LBB3:
  54:C:/Users/stapi/OneDrive/Desktop/GD32VW553/V1_MQTT_OK/GD32VW55X_Wifi_BLE_SDK/GD32VW55x_RELEASE_V1.0.2/MSDK/wpa_supplicant/src/tls\tlsv1_client_ocsp.c **** 		u8 hash[SHA1_MAC_LEN];
  55:C:/Users/stapi/OneDrive/Desktop/GD32VW553/V1_MQTT_OK/GD32VW55X_Wifi_BLE_SDK/GD32VW55x_RELEASE_V1.0.2/MSDK/wpa_supplicant/src/tls\tlsv1_client_ocsp.c **** 		const u8 *addr[1] = { signer->public_key };
  58              		.loc 2 55 13
  59 000c 8327852F 		lw	a5,760(a0)
  60 0010 3284     		mv	s0,a2
  54:C:/Users/stapi/OneDrive/Desktop/GD32VW553/V1_MQTT_OK/GD32VW55X_Wifi_BLE_SDK/GD32VW55x_RELEASE_V1.0.2/MSDK/wpa_supplicant/src/tls\tlsv1_client_ocsp.c **** 		u8 hash[SHA1_MAC_LEN];
  61              		.loc 2 54 3 is_stmt 1
  62              		.loc 2 55 3
  56:C:/Users/stapi/OneDrive/Desktop/GD32VW553/V1_MQTT_OK/GD32VW55X_Wifi_BLE_SDK/GD32VW55x_RELEASE_V1.0.2/MSDK/wpa_supplicant/src/tls\tlsv1_client_ocsp.c **** 		size_t len[1] = { signer->public_key_len };
  57:C:/Users/stapi/OneDrive/Desktop/GD32VW553/V1_MQTT_OK/GD32VW55X_Wifi_BLE_SDK/GD32VW55x_RELEASE_V1.0.2/MSDK/wpa_supplicant/src/tls\tlsv1_client_ocsp.c **** 
  58:C:/Users/stapi/OneDrive/Desktop/GD32VW553/V1_MQTT_OK/GD32VW55X_Wifi_BLE_SDK/GD32VW55x_RELEASE_V1.0.2/MSDK/wpa_supplicant/src/tls\tlsv1_client_ocsp.c **** 		if (sha1_vector(1, addr, len, hash) < 0)
  63              		.loc 2 58 7 is_stmt 0
  64 0012 7400     		addi	a3,sp,12
  55:C:/Users/stapi/OneDrive/Desktop/GD32VW553/V1_MQTT_OK/GD32VW55X_Wifi_BLE_SDK/GD32VW55x_RELEASE_V1.0.2/MSDK/wpa_supplicant/src/tls\tlsv1_client_ocsp.c **** 		size_t len[1] = { signer->public_key_len };
  65              		.loc 2 55 13
  66 0014 3EC2     		sw	a5,4(sp)
  56:C:/Users/stapi/OneDrive/Desktop/GD32VW553/V1_MQTT_OK/GD32VW55X_Wifi_BLE_SDK/GD32VW55x_RELEASE_V1.0.2/MSDK/wpa_supplicant/src/tls\tlsv1_client_ocsp.c **** 		size_t len[1] = { signer->public_key_len };
  67              		.loc 2 56 3 is_stmt 1
  56:C:/Users/stapi/OneDrive/Desktop/GD32VW553/V1_MQTT_OK/GD32VW55X_Wifi_BLE_SDK/GD32VW55x_RELEASE_V1.0.2/MSDK/wpa_supplicant/src/tls\tlsv1_client_ocsp.c **** 		size_t len[1] = { signer->public_key_len };
  68              		.loc 2 56 10 is_stmt 0
  69 0016 8327C52F 		lw	a5,764(a0)
  70              		.loc 2 58 7
  71 001a 3000     		addi	a2,sp,8
  72              	.LVL5:
  73 001c 4C00     		addi	a1,sp,4
  74              	.LVL6:
  75 001e 0545     		li	a0,1
  76              	.LVL7:
  56:C:/Users/stapi/OneDrive/Desktop/GD32VW553/V1_MQTT_OK/GD32VW55X_Wifi_BLE_SDK/GD32VW55x_RELEASE_V1.0.2/MSDK/wpa_supplicant/src/tls\tlsv1_client_ocsp.c **** 		size_t len[1] = { signer->public_key_len };
  77              		.loc 2 56 10
  78 0020 3EC4     		sw	a5,8(sp)
  79              		.loc 2 58 3 is_stmt 1
  80              		.loc 2 58 7 is_stmt 0
  81 0022 97000000 		call	sha1_vector
  81      E7800000 
  82              	.LVL8:
  83 002a AA87     		mv	a5,a0
  59:C:/Users/stapi/OneDrive/Desktop/GD32VW553/V1_MQTT_OK/GD32VW55X_Wifi_BLE_SDK/GD32VW55x_RELEASE_V1.0.2/MSDK/wpa_supplicant/src/tls\tlsv1_client_ocsp.c **** 			return 0;
  84              		.loc 2 59 11
  85 002c 0145     		li	a0,0
  58:C:/Users/stapi/OneDrive/Desktop/GD32VW553/V1_MQTT_OK/GD32VW55X_Wifi_BLE_SDK/GD32VW55x_RELEASE_V1.0.2/MSDK/wpa_supplicant/src/tls\tlsv1_client_ocsp.c **** 			return 0;
  86              		.loc 2 58 6
  87 002e 63CB0700 		blt	a5,zero,.L4
  60:C:/Users/stapi/OneDrive/Desktop/GD32VW553/V1_MQTT_OK/GD32VW55X_Wifi_BLE_SDK/GD32VW55x_RELEASE_V1.0.2/MSDK/wpa_supplicant/src/tls\tlsv1_client_ocsp.c **** 		return os_memcmp(hash, key_hash, SHA1_MAC_LEN) == 0;
  88              		.loc 2 60 3 is_stmt 1
  89              		.loc 2 60 10 is_stmt 0
  90 0032 5146     		li	a2,20
  91 0034 A285     		mv	a1,s0
  92 0036 6800     		addi	a0,sp,12
  93 0038 97000000 		call	os_memcmp
  93      E7800000 
  94              	.LVL9:
  95              	.L10:
  96              	.LBE3:
  61:C:/Users/stapi/OneDrive/Desktop/GD32VW553/V1_MQTT_OK/GD32VW55X_Wifi_BLE_SDK/GD32VW55x_RELEASE_V1.0.2/MSDK/wpa_supplicant/src/tls\tlsv1_client_ocsp.c **** 	}
  62:C:/Users/stapi/OneDrive/Desktop/GD32VW553/V1_MQTT_OK/GD32VW55X_Wifi_BLE_SDK/GD32VW55x_RELEASE_V1.0.2/MSDK/wpa_supplicant/src/tls\tlsv1_client_ocsp.c **** 
  63:C:/Users/stapi/OneDrive/Desktop/GD32VW553/V1_MQTT_OK/GD32VW55X_Wifi_BLE_SDK/GD32VW55x_RELEASE_V1.0.2/MSDK/wpa_supplicant/src/tls\tlsv1_client_ocsp.c **** 	return x509_name_compare(&signer->subject, name) == 0;
  97              		.loc 2 63 51
  98 0040 13351500 		seqz	a0,a0
  99              	.L4:
  64:C:/Users/stapi/OneDrive/Desktop/GD32VW553/V1_MQTT_OK/GD32VW55X_Wifi_BLE_SDK/GD32VW55x_RELEASE_V1.0.2/MSDK/wpa_supplicant/src/tls\tlsv1_client_ocsp.c **** }
 100              		.loc 2 64 1
 101 0044 0561     		addi	sp,sp,32
 102              		.cfi_remember_state
 103              		.cfi_def_cfa_offset 0
 104 0046 17030000 		tail	__riscv_restore_1
 104      67000300 
 105              		.cfi_restore 8
 106              		.cfi_restore 1
 107              		.cfi_def_cfa_offset -16
 108              	.LVL10:
 109              	.L5:
 110              		.cfi_restore_state
  63:C:/Users/stapi/OneDrive/Desktop/GD32VW553/V1_MQTT_OK/GD32VW55X_Wifi_BLE_SDK/GD32VW55x_RELEASE_V1.0.2/MSDK/wpa_supplicant/src/tls\tlsv1_client_ocsp.c **** }
 111              		.loc 2 63 2 is_stmt 1
  63:C:/Users/stapi/OneDrive/Desktop/GD32VW553/V1_MQTT_OK/GD32VW55X_Wifi_BLE_SDK/GD32VW55x_RELEASE_V1.0.2/MSDK/wpa_supplicant/src/tls\tlsv1_client_ocsp.c **** }
 112              		.loc 2 63 9 is_stmt 0
 113 004e 13054518 		addi	a0,a0,388
 114              	.LVL11:
 115 0052 97000000 		call	x509_name_compare
 115      E7800000 
 116              	.LVL12:
 117 005a DDB7     		j	.L10
 118              		.cfi_endproc
 119              	.LFE87:
 121              		.section	.rodata.ocsp_hash_data.str1.4,"aMS",@progbits,1
 122              		.align	2
 123              	.LC0:
 124 0000 4F435350 		.string	"OCSP: Hash (SHA1)"
 124      3A204861 
 124      73682028 
 124      53484131 
 124      2900
 125 0012 0000     		.align	2
 126              	.LC1:
 127 0014 4F435350 		.string	"OCSP: Hash (SHA256)"
 127      3A204861 
 127      73682028 
 127      53484132 
 127      35362900 
 128              		.align	2
 129              	.LC2:
 130 0028 4F435350 		.string	"OCSP: Hash (SHA384)"
 130      3A204861 
 130      73682028 
 130      53484133 
 130      38342900 
 131              		.align	2
 132              	.LC3:
 133 003c 4F435350 		.string	"OCSP: Hash (SHA512)"
 133      3A204861 
 133      73682028 
 133      53484135 
 133      31322900 
 134              		.align	2
 135              	.LC4:
 136 0050 4F435350 		.string	"OCSP: Could not calculate hash with alg %s"
 136      3A20436F 
 136      756C6420 
 136      6E6F7420 
 136      63616C63 
 137              		.section	.text.ocsp_hash_data,"ax",@progbits
 138              		.align	1
 140              	ocsp_hash_data:
 141              	.LFB88:
  65:C:/Users/stapi/OneDrive/Desktop/GD32VW553/V1_MQTT_OK/GD32VW55X_Wifi_BLE_SDK/GD32VW55x_RELEASE_V1.0.2/MSDK/wpa_supplicant/src/tls\tlsv1_client_ocsp.c **** 
  66:C:/Users/stapi/OneDrive/Desktop/GD32VW553/V1_MQTT_OK/GD32VW55X_Wifi_BLE_SDK/GD32VW55x_RELEASE_V1.0.2/MSDK/wpa_supplicant/src/tls\tlsv1_client_ocsp.c **** 
  67:C:/Users/stapi/OneDrive/Desktop/GD32VW553/V1_MQTT_OK/GD32VW55X_Wifi_BLE_SDK/GD32VW55x_RELEASE_V1.0.2/MSDK/wpa_supplicant/src/tls\tlsv1_client_ocsp.c **** static unsigned int ocsp_hash_data(struct asn1_oid *alg, const u8 *data,
  68:C:/Users/stapi/OneDrive/Desktop/GD32VW553/V1_MQTT_OK/GD32VW55X_Wifi_BLE_SDK/GD32VW55x_RELEASE_V1.0.2/MSDK/wpa_supplicant/src/tls\tlsv1_client_ocsp.c **** 				   size_t data_len, u8 *hash)
  69:C:/Users/stapi/OneDrive/Desktop/GD32VW553/V1_MQTT_OK/GD32VW55X_Wifi_BLE_SDK/GD32VW55x_RELEASE_V1.0.2/MSDK/wpa_supplicant/src/tls\tlsv1_client_ocsp.c **** {
 142              		.loc 2 69 1 is_stmt 1
 143              		.cfi_startproc
 144              	.LVL13:
 145 0000 17030000 		call	t0,__riscv_save_2
 145      E7020300 
 146              		.cfi_offset 9, -12
 147              		.cfi_offset 8, -8
 148              		.cfi_offset 1, -4
 149              		.cfi_def_cfa_offset 16
  70:C:/Users/stapi/OneDrive/Desktop/GD32VW553/V1_MQTT_OK/GD32VW55X_Wifi_BLE_SDK/GD32VW55x_RELEASE_V1.0.2/MSDK/wpa_supplicant/src/tls\tlsv1_client_ocsp.c **** 	const u8 *addr[1] = { data };
 150              		.loc 2 70 2
  69:C:/Users/stapi/OneDrive/Desktop/GD32VW553/V1_MQTT_OK/GD32VW55X_Wifi_BLE_SDK/GD32VW55x_RELEASE_V1.0.2/MSDK/wpa_supplicant/src/tls\tlsv1_client_ocsp.c **** 	const u8 *addr[1] = { data };
 151              		.loc 2 69 1 is_stmt 0
 152 0008 5971     		addi	sp,sp,-112
 153              		.cfi_def_cfa_offset 128
  69:C:/Users/stapi/OneDrive/Desktop/GD32VW553/V1_MQTT_OK/GD32VW55X_Wifi_BLE_SDK/GD32VW55x_RELEASE_V1.0.2/MSDK/wpa_supplicant/src/tls\tlsv1_client_ocsp.c **** 	const u8 *addr[1] = { data };
 154              		.loc 2 69 1
 155 000a AA84     		mv	s1,a0
 156 000c 3684     		mv	s0,a3
 157              		.loc 2 70 12
 158 000e 2EC2     		sw	a1,4(sp)
  71:C:/Users/stapi/OneDrive/Desktop/GD32VW553/V1_MQTT_OK/GD32VW55X_Wifi_BLE_SDK/GD32VW55x_RELEASE_V1.0.2/MSDK/wpa_supplicant/src/tls\tlsv1_client_ocsp.c **** 	size_t len[1] = { data_len };
 159              		.loc 2 71 2 is_stmt 1
 160              		.loc 2 71 9 is_stmt 0
 161 0010 32C4     		sw	a2,8(sp)
  72:C:/Users/stapi/OneDrive/Desktop/GD32VW553/V1_MQTT_OK/GD32VW55X_Wifi_BLE_SDK/GD32VW55x_RELEASE_V1.0.2/MSDK/wpa_supplicant/src/tls\tlsv1_client_ocsp.c **** 	char buf[100];
 162              		.loc 2 72 2 is_stmt 1
  73:C:/Users/stapi/OneDrive/Desktop/GD32VW553/V1_MQTT_OK/GD32VW55X_Wifi_BLE_SDK/GD32VW55x_RELEASE_V1.0.2/MSDK/wpa_supplicant/src/tls\tlsv1_client_ocsp.c **** 
  74:C:/Users/stapi/OneDrive/Desktop/GD32VW553/V1_MQTT_OK/GD32VW55X_Wifi_BLE_SDK/GD32VW55x_RELEASE_V1.0.2/MSDK/wpa_supplicant/src/tls\tlsv1_client_ocsp.c **** 	if (x509_sha1_oid(alg)) {
 163              		.loc 2 74 2
 164              		.loc 2 74 6 is_stmt 0
 165 0012 97000000 		call	x509_sha1_oid
 165      E7800000 
 166              	.LVL14:
 167              		.loc 2 74 5
 168 001a 15CD     		beq	a0,zero,.L12
  75:C:/Users/stapi/OneDrive/Desktop/GD32VW553/V1_MQTT_OK/GD32VW55X_Wifi_BLE_SDK/GD32VW55x_RELEASE_V1.0.2/MSDK/wpa_supplicant/src/tls\tlsv1_client_ocsp.c **** 		if (sha1_vector(1, addr, len, hash) < 0)
 169              		.loc 2 75 3 is_stmt 1
 170              		.loc 2 75 7 is_stmt 0
 171 001c A286     		mv	a3,s0
 172 001e 3000     		addi	a2,sp,8
 173 0020 4C00     		addi	a1,sp,4
 174 0022 0545     		li	a0,1
 175 0024 97000000 		call	sha1_vector
 175      E7800000 
 176              	.LVL15:
 177              		.loc 2 75 6
 178 002c 63540500 		bge	a0,zero,.L13
 179              	.L20:
  76:C:/Users/stapi/OneDrive/Desktop/GD32VW553/V1_MQTT_OK/GD32VW55X_Wifi_BLE_SDK/GD32VW55x_RELEASE_V1.0.2/MSDK/wpa_supplicant/src/tls\tlsv1_client_ocsp.c **** 			return 0;
  77:C:/Users/stapi/OneDrive/Desktop/GD32VW553/V1_MQTT_OK/GD32VW55X_Wifi_BLE_SDK/GD32VW55x_RELEASE_V1.0.2/MSDK/wpa_supplicant/src/tls\tlsv1_client_ocsp.c **** 		wpa_hexdump(MSG_MSGDUMP, "OCSP: Hash (SHA1)", hash, 20);
  78:C:/Users/stapi/OneDrive/Desktop/GD32VW553/V1_MQTT_OK/GD32VW55X_Wifi_BLE_SDK/GD32VW55x_RELEASE_V1.0.2/MSDK/wpa_supplicant/src/tls\tlsv1_client_ocsp.c **** 		return 20;
  79:C:/Users/stapi/OneDrive/Desktop/GD32VW553/V1_MQTT_OK/GD32VW55X_Wifi_BLE_SDK/GD32VW55x_RELEASE_V1.0.2/MSDK/wpa_supplicant/src/tls\tlsv1_client_ocsp.c **** 	}
  80:C:/Users/stapi/OneDrive/Desktop/GD32VW553/V1_MQTT_OK/GD32VW55X_Wifi_BLE_SDK/GD32VW55x_RELEASE_V1.0.2/MSDK/wpa_supplicant/src/tls\tlsv1_client_ocsp.c **** 
  81:C:/Users/stapi/OneDrive/Desktop/GD32VW553/V1_MQTT_OK/GD32VW55X_Wifi_BLE_SDK/GD32VW55x_RELEASE_V1.0.2/MSDK/wpa_supplicant/src/tls\tlsv1_client_ocsp.c **** 	if (x509_sha256_oid(alg)) {
  82:C:/Users/stapi/OneDrive/Desktop/GD32VW553/V1_MQTT_OK/GD32VW55X_Wifi_BLE_SDK/GD32VW55x_RELEASE_V1.0.2/MSDK/wpa_supplicant/src/tls\tlsv1_client_ocsp.c **** 		if (sha256_vector(1, addr, len, hash) < 0)
  83:C:/Users/stapi/OneDrive/Desktop/GD32VW553/V1_MQTT_OK/GD32VW55X_Wifi_BLE_SDK/GD32VW55x_RELEASE_V1.0.2/MSDK/wpa_supplicant/src/tls\tlsv1_client_ocsp.c **** 			return 0;
  84:C:/Users/stapi/OneDrive/Desktop/GD32VW553/V1_MQTT_OK/GD32VW55X_Wifi_BLE_SDK/GD32VW55x_RELEASE_V1.0.2/MSDK/wpa_supplicant/src/tls\tlsv1_client_ocsp.c **** 		wpa_hexdump(MSG_MSGDUMP, "OCSP: Hash (SHA256)", hash, 32);
  85:C:/Users/stapi/OneDrive/Desktop/GD32VW553/V1_MQTT_OK/GD32VW55X_Wifi_BLE_SDK/GD32VW55x_RELEASE_V1.0.2/MSDK/wpa_supplicant/src/tls\tlsv1_client_ocsp.c **** 		return 32;
  86:C:/Users/stapi/OneDrive/Desktop/GD32VW553/V1_MQTT_OK/GD32VW55X_Wifi_BLE_SDK/GD32VW55x_RELEASE_V1.0.2/MSDK/wpa_supplicant/src/tls\tlsv1_client_ocsp.c **** 	}
  87:C:/Users/stapi/OneDrive/Desktop/GD32VW553/V1_MQTT_OK/GD32VW55X_Wifi_BLE_SDK/GD32VW55x_RELEASE_V1.0.2/MSDK/wpa_supplicant/src/tls\tlsv1_client_ocsp.c **** 
  88:C:/Users/stapi/OneDrive/Desktop/GD32VW553/V1_MQTT_OK/GD32VW55X_Wifi_BLE_SDK/GD32VW55x_RELEASE_V1.0.2/MSDK/wpa_supplicant/src/tls\tlsv1_client_ocsp.c **** 	if (x509_sha384_oid(alg)) {
  89:C:/Users/stapi/OneDrive/Desktop/GD32VW553/V1_MQTT_OK/GD32VW55X_Wifi_BLE_SDK/GD32VW55x_RELEASE_V1.0.2/MSDK/wpa_supplicant/src/tls\tlsv1_client_ocsp.c **** 		if (sha384_vector(1, addr, len, hash) < 0)
  90:C:/Users/stapi/OneDrive/Desktop/GD32VW553/V1_MQTT_OK/GD32VW55X_Wifi_BLE_SDK/GD32VW55x_RELEASE_V1.0.2/MSDK/wpa_supplicant/src/tls\tlsv1_client_ocsp.c **** 			return 0;
  91:C:/Users/stapi/OneDrive/Desktop/GD32VW553/V1_MQTT_OK/GD32VW55X_Wifi_BLE_SDK/GD32VW55x_RELEASE_V1.0.2/MSDK/wpa_supplicant/src/tls\tlsv1_client_ocsp.c **** 		wpa_hexdump(MSG_MSGDUMP, "OCSP: Hash (SHA384)", hash, 48);
  92:C:/Users/stapi/OneDrive/Desktop/GD32VW553/V1_MQTT_OK/GD32VW55X_Wifi_BLE_SDK/GD32VW55x_RELEASE_V1.0.2/MSDK/wpa_supplicant/src/tls\tlsv1_client_ocsp.c **** 		return 48;
  93:C:/Users/stapi/OneDrive/Desktop/GD32VW553/V1_MQTT_OK/GD32VW55X_Wifi_BLE_SDK/GD32VW55x_RELEASE_V1.0.2/MSDK/wpa_supplicant/src/tls\tlsv1_client_ocsp.c **** 	}
  94:C:/Users/stapi/OneDrive/Desktop/GD32VW553/V1_MQTT_OK/GD32VW55X_Wifi_BLE_SDK/GD32VW55x_RELEASE_V1.0.2/MSDK/wpa_supplicant/src/tls\tlsv1_client_ocsp.c **** 
  95:C:/Users/stapi/OneDrive/Desktop/GD32VW553/V1_MQTT_OK/GD32VW55X_Wifi_BLE_SDK/GD32VW55x_RELEASE_V1.0.2/MSDK/wpa_supplicant/src/tls\tlsv1_client_ocsp.c **** 	if (x509_sha512_oid(alg)) {
  96:C:/Users/stapi/OneDrive/Desktop/GD32VW553/V1_MQTT_OK/GD32VW55X_Wifi_BLE_SDK/GD32VW55x_RELEASE_V1.0.2/MSDK/wpa_supplicant/src/tls\tlsv1_client_ocsp.c **** 		if (sha512_vector(1, addr, len, hash) < 0)
  97:C:/Users/stapi/OneDrive/Desktop/GD32VW553/V1_MQTT_OK/GD32VW55X_Wifi_BLE_SDK/GD32VW55x_RELEASE_V1.0.2/MSDK/wpa_supplicant/src/tls\tlsv1_client_ocsp.c **** 			return 0;
  98:C:/Users/stapi/OneDrive/Desktop/GD32VW553/V1_MQTT_OK/GD32VW55X_Wifi_BLE_SDK/GD32VW55x_RELEASE_V1.0.2/MSDK/wpa_supplicant/src/tls\tlsv1_client_ocsp.c **** 		wpa_hexdump(MSG_MSGDUMP, "OCSP: Hash (SHA512)", hash, 64);
  99:C:/Users/stapi/OneDrive/Desktop/GD32VW553/V1_MQTT_OK/GD32VW55X_Wifi_BLE_SDK/GD32VW55x_RELEASE_V1.0.2/MSDK/wpa_supplicant/src/tls\tlsv1_client_ocsp.c **** 		return 64;
 100:C:/Users/stapi/OneDrive/Desktop/GD32VW553/V1_MQTT_OK/GD32VW55X_Wifi_BLE_SDK/GD32VW55x_RELEASE_V1.0.2/MSDK/wpa_supplicant/src/tls\tlsv1_client_ocsp.c **** 	}
 101:C:/Users/stapi/OneDrive/Desktop/GD32VW553/V1_MQTT_OK/GD32VW55X_Wifi_BLE_SDK/GD32VW55x_RELEASE_V1.0.2/MSDK/wpa_supplicant/src/tls\tlsv1_client_ocsp.c **** 
 102:C:/Users/stapi/OneDrive/Desktop/GD32VW553/V1_MQTT_OK/GD32VW55X_Wifi_BLE_SDK/GD32VW55x_RELEASE_V1.0.2/MSDK/wpa_supplicant/src/tls\tlsv1_client_ocsp.c **** 
 103:C:/Users/stapi/OneDrive/Desktop/GD32VW553/V1_MQTT_OK/GD32VW55X_Wifi_BLE_SDK/GD32VW55x_RELEASE_V1.0.2/MSDK/wpa_supplicant/src/tls\tlsv1_client_ocsp.c **** 	asn1_oid_to_str(alg, buf, sizeof(buf));
 104:C:/Users/stapi/OneDrive/Desktop/GD32VW553/V1_MQTT_OK/GD32VW55X_Wifi_BLE_SDK/GD32VW55x_RELEASE_V1.0.2/MSDK/wpa_supplicant/src/tls\tlsv1_client_ocsp.c **** 	wpa_printf(MSG_DEBUG, "OCSP: Could not calculate hash with alg %s",
 105:C:/Users/stapi/OneDrive/Desktop/GD32VW553/V1_MQTT_OK/GD32VW55X_Wifi_BLE_SDK/GD32VW55x_RELEASE_V1.0.2/MSDK/wpa_supplicant/src/tls\tlsv1_client_ocsp.c **** 		   buf);
 106:C:/Users/stapi/OneDrive/Desktop/GD32VW553/V1_MQTT_OK/GD32VW55X_Wifi_BLE_SDK/GD32VW55x_RELEASE_V1.0.2/MSDK/wpa_supplicant/src/tls\tlsv1_client_ocsp.c **** 	return 0;
 180              		.loc 2 106 2 is_stmt 1
 181              		.loc 2 106 9 is_stmt 0
 182 0030 0145     		li	a0,0
 183 0032 29A8     		j	.L11
 184              	.L13:
  77:C:/Users/stapi/OneDrive/Desktop/GD32VW553/V1_MQTT_OK/GD32VW55X_Wifi_BLE_SDK/GD32VW55x_RELEASE_V1.0.2/MSDK/wpa_supplicant/src/tls\tlsv1_client_ocsp.c **** 		return 20;
 185              		.loc 2 77 3 is_stmt 1
 186 0034 B7050000 		lui	a1,%hi(.LC0)
 187 0038 0545     		li	a0,1
 188 003a D146     		li	a3,20
 189 003c 2286     		mv	a2,s0
 190 003e 93850500 		addi	a1,a1,%lo(.LC0)
 191 0042 97000000 		call	wpa_hexdump
 191      E7800000 
 192              	.LVL16:
  78:C:/Users/stapi/OneDrive/Desktop/GD32VW553/V1_MQTT_OK/GD32VW55X_Wifi_BLE_SDK/GD32VW55x_RELEASE_V1.0.2/MSDK/wpa_supplicant/src/tls\tlsv1_client_ocsp.c **** 	}
 193              		.loc 2 78 3
  78:C:/Users/stapi/OneDrive/Desktop/GD32VW553/V1_MQTT_OK/GD32VW55X_Wifi_BLE_SDK/GD32VW55x_RELEASE_V1.0.2/MSDK/wpa_supplicant/src/tls\tlsv1_client_ocsp.c **** 	}
 194              		.loc 2 78 10 is_stmt 0
 195 004a 5145     		li	a0,20
 196              	.L11:
 107:C:/Users/stapi/OneDrive/Desktop/GD32VW553/V1_MQTT_OK/GD32VW55X_Wifi_BLE_SDK/GD32VW55x_RELEASE_V1.0.2/MSDK/wpa_supplicant/src/tls\tlsv1_client_ocsp.c **** }
 197              		.loc 2 107 1
 198 004c 6561     		addi	sp,sp,112
 199              		.cfi_remember_state
 200              		.cfi_def_cfa_offset 0
 201 004e 17030000 		tail	__riscv_restore_2
 201      67000300 
 202              		.cfi_restore 9
 203              		.cfi_restore 8
 204              		.cfi_restore 1
 205              		.cfi_def_cfa_offset -16
 206              	.L12:
 207              		.cfi_restore_state
  81:C:/Users/stapi/OneDrive/Desktop/GD32VW553/V1_MQTT_OK/GD32VW55X_Wifi_BLE_SDK/GD32VW55x_RELEASE_V1.0.2/MSDK/wpa_supplicant/src/tls\tlsv1_client_ocsp.c **** 		if (sha256_vector(1, addr, len, hash) < 0)
 208              		.loc 2 81 2 is_stmt 1
  81:C:/Users/stapi/OneDrive/Desktop/GD32VW553/V1_MQTT_OK/GD32VW55X_Wifi_BLE_SDK/GD32VW55x_RELEASE_V1.0.2/MSDK/wpa_supplicant/src/tls\tlsv1_client_ocsp.c **** 		if (sha256_vector(1, addr, len, hash) < 0)
 209              		.loc 2 81 6 is_stmt 0
 210 0056 2685     		mv	a0,s1
 211 0058 97000000 		call	x509_sha256_oid
 211      E7800000 
 212              	.LVL17:
  81:C:/Users/stapi/OneDrive/Desktop/GD32VW553/V1_MQTT_OK/GD32VW55X_Wifi_BLE_SDK/GD32VW55x_RELEASE_V1.0.2/MSDK/wpa_supplicant/src/tls\tlsv1_client_ocsp.c **** 		if (sha256_vector(1, addr, len, hash) < 0)
 213              		.loc 2 81 5
 214 0060 15C9     		beq	a0,zero,.L15
  82:C:/Users/stapi/OneDrive/Desktop/GD32VW553/V1_MQTT_OK/GD32VW55X_Wifi_BLE_SDK/GD32VW55x_RELEASE_V1.0.2/MSDK/wpa_supplicant/src/tls\tlsv1_client_ocsp.c **** 			return 0;
 215              		.loc 2 82 3 is_stmt 1
  82:C:/Users/stapi/OneDrive/Desktop/GD32VW553/V1_MQTT_OK/GD32VW55X_Wifi_BLE_SDK/GD32VW55x_RELEASE_V1.0.2/MSDK/wpa_supplicant/src/tls\tlsv1_client_ocsp.c **** 			return 0;
 216              		.loc 2 82 7 is_stmt 0
 217 0062 A286     		mv	a3,s0
 218 0064 3000     		addi	a2,sp,8
 219 0066 4C00     		addi	a1,sp,4
 220 0068 0545     		li	a0,1
 221 006a 97000000 		call	sha256_vector
 221      E7800000 
 222              	.LVL18:
  82:C:/Users/stapi/OneDrive/Desktop/GD32VW553/V1_MQTT_OK/GD32VW55X_Wifi_BLE_SDK/GD32VW55x_RELEASE_V1.0.2/MSDK/wpa_supplicant/src/tls\tlsv1_client_ocsp.c **** 			return 0;
 223              		.loc 2 82 6
 224 0072 E34F05FA 		blt	a0,zero,.L20
  84:C:/Users/stapi/OneDrive/Desktop/GD32VW553/V1_MQTT_OK/GD32VW55X_Wifi_BLE_SDK/GD32VW55x_RELEASE_V1.0.2/MSDK/wpa_supplicant/src/tls\tlsv1_client_ocsp.c **** 		return 32;
 225              		.loc 2 84 3 is_stmt 1
 226 0076 B7050000 		lui	a1,%hi(.LC1)
 227 007a 0545     		li	a0,1
 228 007c 93060002 		li	a3,32
 229 0080 2286     		mv	a2,s0
 230 0082 93850500 		addi	a1,a1,%lo(.LC1)
 231 0086 97000000 		call	wpa_hexdump
 231      E7800000 
 232              	.LVL19:
  85:C:/Users/stapi/OneDrive/Desktop/GD32VW553/V1_MQTT_OK/GD32VW55X_Wifi_BLE_SDK/GD32VW55x_RELEASE_V1.0.2/MSDK/wpa_supplicant/src/tls\tlsv1_client_ocsp.c **** 	}
 233              		.loc 2 85 3
  85:C:/Users/stapi/OneDrive/Desktop/GD32VW553/V1_MQTT_OK/GD32VW55X_Wifi_BLE_SDK/GD32VW55x_RELEASE_V1.0.2/MSDK/wpa_supplicant/src/tls\tlsv1_client_ocsp.c **** 	}
 234              		.loc 2 85 10 is_stmt 0
 235 008e 13050002 		li	a0,32
 236 0092 6DBF     		j	.L11
 237              	.L15:
  88:C:/Users/stapi/OneDrive/Desktop/GD32VW553/V1_MQTT_OK/GD32VW55X_Wifi_BLE_SDK/GD32VW55x_RELEASE_V1.0.2/MSDK/wpa_supplicant/src/tls\tlsv1_client_ocsp.c **** 		if (sha384_vector(1, addr, len, hash) < 0)
 238              		.loc 2 88 2 is_stmt 1
  88:C:/Users/stapi/OneDrive/Desktop/GD32VW553/V1_MQTT_OK/GD32VW55X_Wifi_BLE_SDK/GD32VW55x_RELEASE_V1.0.2/MSDK/wpa_supplicant/src/tls\tlsv1_client_ocsp.c **** 		if (sha384_vector(1, addr, len, hash) < 0)
 239              		.loc 2 88 6 is_stmt 0
 240 0094 2685     		mv	a0,s1
 241 0096 97000000 		call	x509_sha384_oid
 241      E7800000 
 242              	.LVL20:
  88:C:/Users/stapi/OneDrive/Desktop/GD32VW553/V1_MQTT_OK/GD32VW55X_Wifi_BLE_SDK/GD32VW55x_RELEASE_V1.0.2/MSDK/wpa_supplicant/src/tls\tlsv1_client_ocsp.c **** 		if (sha384_vector(1, addr, len, hash) < 0)
 243              		.loc 2 88 5
 244 009e 15C9     		beq	a0,zero,.L17
  89:C:/Users/stapi/OneDrive/Desktop/GD32VW553/V1_MQTT_OK/GD32VW55X_Wifi_BLE_SDK/GD32VW55x_RELEASE_V1.0.2/MSDK/wpa_supplicant/src/tls\tlsv1_client_ocsp.c **** 			return 0;
 245              		.loc 2 89 3 is_stmt 1
  89:C:/Users/stapi/OneDrive/Desktop/GD32VW553/V1_MQTT_OK/GD32VW55X_Wifi_BLE_SDK/GD32VW55x_RELEASE_V1.0.2/MSDK/wpa_supplicant/src/tls\tlsv1_client_ocsp.c **** 			return 0;
 246              		.loc 2 89 7 is_stmt 0
 247 00a0 A286     		mv	a3,s0
 248 00a2 3000     		addi	a2,sp,8
 249 00a4 4C00     		addi	a1,sp,4
 250 00a6 0545     		li	a0,1
 251 00a8 97000000 		call	sha384_vector
 251      E7800000 
 252              	.LVL21:
  89:C:/Users/stapi/OneDrive/Desktop/GD32VW553/V1_MQTT_OK/GD32VW55X_Wifi_BLE_SDK/GD32VW55x_RELEASE_V1.0.2/MSDK/wpa_supplicant/src/tls\tlsv1_client_ocsp.c **** 			return 0;
 253              		.loc 2 89 6
 254 00b0 E34005F8 		blt	a0,zero,.L20
  91:C:/Users/stapi/OneDrive/Desktop/GD32VW553/V1_MQTT_OK/GD32VW55X_Wifi_BLE_SDK/GD32VW55x_RELEASE_V1.0.2/MSDK/wpa_supplicant/src/tls\tlsv1_client_ocsp.c **** 		return 48;
 255              		.loc 2 91 3 is_stmt 1
 256 00b4 B7050000 		lui	a1,%hi(.LC2)
 257 00b8 0545     		li	a0,1
 258 00ba 93060003 		li	a3,48
 259 00be 2286     		mv	a2,s0
 260 00c0 93850500 		addi	a1,a1,%lo(.LC2)
 261 00c4 97000000 		call	wpa_hexdump
 261      E7800000 
 262              	.LVL22:
  92:C:/Users/stapi/OneDrive/Desktop/GD32VW553/V1_MQTT_OK/GD32VW55X_Wifi_BLE_SDK/GD32VW55x_RELEASE_V1.0.2/MSDK/wpa_supplicant/src/tls\tlsv1_client_ocsp.c **** 	}
 263              		.loc 2 92 3
  92:C:/Users/stapi/OneDrive/Desktop/GD32VW553/V1_MQTT_OK/GD32VW55X_Wifi_BLE_SDK/GD32VW55x_RELEASE_V1.0.2/MSDK/wpa_supplicant/src/tls\tlsv1_client_ocsp.c **** 	}
 264              		.loc 2 92 10 is_stmt 0
 265 00cc 13050003 		li	a0,48
 266 00d0 B5BF     		j	.L11
 267              	.L17:
  95:C:/Users/stapi/OneDrive/Desktop/GD32VW553/V1_MQTT_OK/GD32VW55X_Wifi_BLE_SDK/GD32VW55x_RELEASE_V1.0.2/MSDK/wpa_supplicant/src/tls\tlsv1_client_ocsp.c **** 		if (sha512_vector(1, addr, len, hash) < 0)
 268              		.loc 2 95 2 is_stmt 1
  95:C:/Users/stapi/OneDrive/Desktop/GD32VW553/V1_MQTT_OK/GD32VW55X_Wifi_BLE_SDK/GD32VW55x_RELEASE_V1.0.2/MSDK/wpa_supplicant/src/tls\tlsv1_client_ocsp.c **** 		if (sha512_vector(1, addr, len, hash) < 0)
 269              		.loc 2 95 6 is_stmt 0
 270 00d2 2685     		mv	a0,s1
 271 00d4 97000000 		call	x509_sha512_oid
 271      E7800000 
 272              	.LVL23:
  95:C:/Users/stapi/OneDrive/Desktop/GD32VW553/V1_MQTT_OK/GD32VW55X_Wifi_BLE_SDK/GD32VW55x_RELEASE_V1.0.2/MSDK/wpa_supplicant/src/tls\tlsv1_client_ocsp.c **** 		if (sha512_vector(1, addr, len, hash) < 0)
 273              		.loc 2 95 5
 274 00dc 15C9     		beq	a0,zero,.L18
  96:C:/Users/stapi/OneDrive/Desktop/GD32VW553/V1_MQTT_OK/GD32VW55X_Wifi_BLE_SDK/GD32VW55x_RELEASE_V1.0.2/MSDK/wpa_supplicant/src/tls\tlsv1_client_ocsp.c **** 			return 0;
 275              		.loc 2 96 3 is_stmt 1
  96:C:/Users/stapi/OneDrive/Desktop/GD32VW553/V1_MQTT_OK/GD32VW55X_Wifi_BLE_SDK/GD32VW55x_RELEASE_V1.0.2/MSDK/wpa_supplicant/src/tls\tlsv1_client_ocsp.c **** 			return 0;
 276              		.loc 2 96 7 is_stmt 0
 277 00de A286     		mv	a3,s0
 278 00e0 3000     		addi	a2,sp,8
 279 00e2 4C00     		addi	a1,sp,4
 280 00e4 0545     		li	a0,1
 281 00e6 97000000 		call	sha512_vector
 281      E7800000 
 282              	.LVL24:
  96:C:/Users/stapi/OneDrive/Desktop/GD32VW553/V1_MQTT_OK/GD32VW55X_Wifi_BLE_SDK/GD32VW55x_RELEASE_V1.0.2/MSDK/wpa_supplicant/src/tls\tlsv1_client_ocsp.c **** 			return 0;
 283              		.loc 2 96 6
 284 00ee E34105F4 		blt	a0,zero,.L20
  98:C:/Users/stapi/OneDrive/Desktop/GD32VW553/V1_MQTT_OK/GD32VW55X_Wifi_BLE_SDK/GD32VW55x_RELEASE_V1.0.2/MSDK/wpa_supplicant/src/tls\tlsv1_client_ocsp.c **** 		return 64;
 285              		.loc 2 98 3 is_stmt 1
 286 00f2 B7050000 		lui	a1,%hi(.LC3)
 287 00f6 0545     		li	a0,1
 288 00f8 93060004 		li	a3,64
 289 00fc 2286     		mv	a2,s0
 290 00fe 93850500 		addi	a1,a1,%lo(.LC3)
 291 0102 97000000 		call	wpa_hexdump
 291      E7800000 
 292              	.LVL25:
  99:C:/Users/stapi/OneDrive/Desktop/GD32VW553/V1_MQTT_OK/GD32VW55X_Wifi_BLE_SDK/GD32VW55x_RELEASE_V1.0.2/MSDK/wpa_supplicant/src/tls\tlsv1_client_ocsp.c **** 	}
 293              		.loc 2 99 3
  99:C:/Users/stapi/OneDrive/Desktop/GD32VW553/V1_MQTT_OK/GD32VW55X_Wifi_BLE_SDK/GD32VW55x_RELEASE_V1.0.2/MSDK/wpa_supplicant/src/tls\tlsv1_client_ocsp.c **** 	}
 294              		.loc 2 99 10 is_stmt 0
 295 010a 13050004 		li	a0,64
 296 010e 3DBF     		j	.L11
 297              	.L18:
 103:C:/Users/stapi/OneDrive/Desktop/GD32VW553/V1_MQTT_OK/GD32VW55X_Wifi_BLE_SDK/GD32VW55x_RELEASE_V1.0.2/MSDK/wpa_supplicant/src/tls\tlsv1_client_ocsp.c **** 	wpa_printf(MSG_DEBUG, "OCSP: Could not calculate hash with alg %s",
 298              		.loc 2 103 2 is_stmt 1
 299 0110 6C00     		addi	a1,sp,12
 300 0112 2685     		mv	a0,s1
 301 0114 13064006 		li	a2,100
 302 0118 97000000 		call	asn1_oid_to_str
 302      E7800000 
 303              	.LVL26:
 104:C:/Users/stapi/OneDrive/Desktop/GD32VW553/V1_MQTT_OK/GD32VW55X_Wifi_BLE_SDK/GD32VW55x_RELEASE_V1.0.2/MSDK/wpa_supplicant/src/tls\tlsv1_client_ocsp.c **** 		   buf);
 304              		.loc 2 104 2
 305 0120 B7050000 		lui	a1,%hi(.LC4)
 306 0124 7000     		addi	a2,sp,12
 307 0126 93850500 		addi	a1,a1,%lo(.LC4)
 308 012a 0945     		li	a0,2
 309 012c 97000000 		call	wpa_printf
 309      E7800000 
 310              	.LVL27:
 311 0134 F5BD     		j	.L20
 312              		.cfi_endproc
 313              	.LFE88:
 315              		.section	.rodata.tls_process_ocsp_response.str1.4,"aMS",@progbits,1
 316              		.align	2
 317              	.LC5:
 318 0000 544C5376 		.string	"TLSv1: OCSPResponse"
 318      313A204F 
 318      43535052 
 318      6573706F 
 318      6E736500 
 319              		.align	2
 320              	.LC6:
 321 0014 4F435350 		.string	"OCSP: Expected SEQUENCE (OCSPResponse)"
 321      3A204578 
 321      70656374 
 321      65642053 
 321      45515545 
 322 003b 00       		.align	2
 323              	.LC7:
 324 003c 4F435350 		.string	"OCSP: Expected ENUMERATED (responseStatus)"
 324      3A204578 
 324      70656374 
 324      65642045 
 324      4E554D45 
 325 0067 00       		.align	2
 326              	.LC8:
 327 0068 4F435350 		.string	"OCSP: responseStatus %u"
 327      3A207265 
 327      73706F6E 
 327      73655374 
 327      61747573 
 328              		.align	2
 329              	.LC9:
 330 0080 4F435350 		.string	"OCSP: No stapling result"
 330      3A204E6F 
 330      20737461 
 330      706C696E 
 330      67207265 
 331 0099 000000   		.align	2
 332              	.LC10:
 333 009c 4F435350 		.string	"OCSP: Expected [0] EXPLICIT (responseBytes)"
 333      3A204578 
 333      70656374 
 333      6564205B 
 333      305D2045 
 334              		.align	2
 335              	.LC11:
 336 00c8 4F435350 		.string	"OCSP: Expected SEQUENCE (ResponseBytes)"
 336      3A204578 
 336      70656374 
 336      65642053 
 336      45515545 
 337              		.align	2
 338              	.LC12:
 339 00f0 4F435350 		.string	"OCSP: Failed to parse OID (responseType)"
 339      3A204661 
 339      696C6564 
 339      20746F20 
 339      70617273 
 340 0119 000000   		.align	2
 341              	.LC13:
 342 011c 4F435350 		.string	"OCSP: responseType %s"
 342      3A207265 
 342      73706F6E 
 342      73655479 
 342      70652025 
 343 0132 0000     		.align	2
 344              	.LC14:
 345 0134 4F435350 		.string	"OCSP: Ignore unsupported response type"
 345      3A204967 
 345      6E6F7265 
 345      20756E73 
 345      7570706F 
 346 015b 00       		.align	2
 347              	.LC15:
 348 015c 4F435350 		.string	"OCSP: Expected OCTET STRING (response)"
 348      3A204578 
 348      70656374 
 348      6564204F 
 348      43544554 
 349 0183 00       		.align	2
 350              	.LC16:
 351 0184 4F435350 		.string	"OCSP: Trying to find certificate status for %s"
 351      3A205472 
 351      79696E67 
 351      20746F20 
 351      66696E64 
 352 01b3 00       		.align	2
 353              	.LC17:
 354 01b4 4F435350 		.string	"OCSP: BasicOCSPResponse"
 354      3A204261 
 354      7369634F 
 354      43535052 
 354      6573706F 
 355              		.align	2
 356              	.LC18:
 357 01cc 4F435350 		.string	"OCSP: Expected SEQUENCE (BasicOCSPResponse)"
 357      3A204578 
 357      70656374 
 357      65642053 
 357      45515545 
 358              		.align	2
 359              	.LC19:
 360 01f8 4F435350 		.string	"OCSP: Expected SEQUENCE (ResponseData)"
 360      3A204578 
 360      70656374 
 360      65642053 
 360      45515545 
 361 021f 00       		.align	2
 362              	.LC20:
 363 0220 4F435350 		.string	"OCSP: Expected BITSTRING (signature)"
 363      3A204578 
 363      70656374 
 363      65642042 
 363      49545354 
 364 0245 000000   		.align	2
 365              	.LC21:
 366 0248 4F435350 		.string	"OCSP: BITSTRING - %d unused bits"
 366      3A204249 
 366      54535452 
 366      494E4720 
 366      2D202564 
 367 0269 000000   		.align	2
 368              	.LC22:
 369 026c 4F435350 		.string	"OCSP: signature"
 369      3A207369 
 369      676E6174 
 369      75726500 
 370              		.align	2
 371              	.LC23:
 372 027c 4F435350 		.string	"OCSP: certs"
 372      3A206365 
 372      72747300 
 373              		.align	2
 374              	.LC24:
 375 0288 4F435350 		.string	"OCSP: Expected [0] EXPLICIT (certs)"
 375      3A204578 
 375      70656374 
 375      6564205B 
 375      305D2045 
 376              		.align	2
 377              	.LC25:
 378 02ac 4F435350 		.string	"OCSP: Expected SEQUENCE (Certificate)"
 378      3A204578 
 378      70656374 
 378      65642053 
 378      45515545 
 379 02d2 0000     		.align	2
 380              	.LC26:
 381 02d4 4F435350 		.string	"OCSP: ResponseData"
 381      3A205265 
 381      73706F6E 
 381      73654461 
 381      746100
 382 02e7 00       		.align	2
 383              	.LC27:
 384 02e8 4F435350 		.string	"OCSP: No INTEGER (len=1) tag found for version field"
 384      3A204E6F 
 384      20494E54 
 384      45474552 
 384      20286C65 
 385 031d 000000   		.align	2
 386              	.LC28:
 387 0320 4F435350 		.string	"OCSP: ResponseData version %u"
 387      3A205265 
 387      73706F6E 
 387      73654461 
 387      74612076 
 388 033e 0000     		.align	2
 389              	.LC29:
 390 0340 4F435350 		.string	"OCSP: Unsupported ResponseData version %u"
 390      3A20556E 
 390      73757070 
 390      6F727465 
 390      64205265 
 391 036a 0000     		.align	2
 392              	.LC30:
 393 036c 4F435350 		.string	"OCSP: Default ResponseData version (v1)"
 393      3A204465 
 393      6661756C 
 393      74205265 
 393      73706F6E 
 394              		.align	2
 395              	.LC31:
 396 0394 4F435350 		.string	"OCSP: Expected CHOICE (ResponderID)"
 396      3A204578 
 396      70656374 
 396      65642043 
 396      484F4943 
 397              		.align	2
 398              	.LC32:
 399 03b8 4F435350 		.string	"OCSP: ResponderID byName Name: %s"
 399      3A205265 
 399      73706F6E 
 399      64657249 
 399      44206279 
 400 03da 0000     		.align	2
 401              	.LC33:
 402 03dc 4F435350 		.string	"OCSP: ResponderID byKey KeyHash"
 402      3A205265 
 402      73706F6E 
 402      64657249 
 402      44206279 
 403              		.align	2
 404              	.LC34:
 405 03fc 4F435350 		.string	"OCSP: Expected OCTET STRING (KeyHash)"
 405      3A204578 
 405      70656374 
 405      6564204F 
 405      43544554 
 406 0422 0000     		.align	2
 407              	.LC35:
 408 0424 4F435350 		.string	"OCSP: Unexpected byKey KeyHash length %u - expected %u for SHA-1"
 408      3A20556E 
 408      65787065 
 408      63746564 
 408      2062794B 
 409 0465 000000   		.align	2
 410              	.LC36:
 411 0468 4F435350 		.string	"OCSP: Unexpected ResponderID CHOICE %u"
 411      3A20556E 
 411      65787065 
 411      63746564 
 411      20526573 
 412 048f 00       		.align	2
 413              	.LC37:
 414 0490 4F435350 		.string	"OCSP: Failed to parse producedAt"
 414      3A204661 
 414      696C6564 
 414      20746F20 
 414      70617273 
 415 04b1 000000   		.align	2
 416              	.LC38:
 417 04b4 4F435350 		.string	"OCSP: producedAt %lu"
 417      3A207072 
 417      6F647563 
 417      65644174 
 417      20256C75 
 418 04c9 000000   		.align	2
 419              	.LC39:
 420 04cc 4F435350 		.string	"OCSP: Expected SEQUENCE (responses)"
 420      3A204578 
 420      70656374 
 420      65642053 
 420      45515545 
 421              		.align	2
 422              	.LC40:
 423 04f0 4F435350 		.string	"OCSP: responses"
 423      3A207265 
 423      73706F6E 
 423      73657300 
 424              		.align	2
 425              	.LC41:
 426 0500 4F435350 		.string	"OCSP: responseExtensions"
 426      3A207265 
 426      73706F6E 
 426      73654578 
 426      74656E73 
 427 0519 000000   		.align	2
 428              	.LC42:
 429 051c 4F435350 		.string	"OCSP: Server certificate issuer not known - cannot check OCSP response"
 429      3A205365 
 429      72766572 
 429      20636572 
 429      74696669 
 430 0563 00       		.align	2
 431              	.LC43:
 432 0564 4F435350 		.string	"OCSP: Server certificate issuer certificate matches ResponderID"
 432      3A205365 
 432      72766572 
 432      20636572 
 432      74696669 
 433              		.align	2
 434              	.LC44:
 435 05a4 4F435350 		.string	"OCSP: An extra certificate from the response matches ResponderID and is trusted as an OCS
 435      3A20416E 
 435      20657874 
 435      72612063 
 435      65727469 
 436 0606 0000     		.align	2
 437              	.LC45:
 438 0608 4F435350 		.string	"OCSP: Invalid signature"
 438      3A20496E 
 438      76616C69 
 438      64207369 
 438      676E6174 
 439              		.align	2
 440              	.LC46:
 441 0620 4F435350 		.string	"OCSP: Expected SEQUENCE (SingleResponse)"
 441      3A204578 
 441      70656374 
 441      65642053 
 441      45515545 
 442 0649 000000   		.align	2
 443              	.LC47:
 444 064c 4F435350 		.string	"OCSP: SingleResponse"
 444      3A205369 
 444      6E676C65 
 444      52657370 
 444      6F6E7365 
 445 0661 000000   		.align	2
 446              	.LC48:
 447 0664 4F435350 		.string	"OCSP: Expected SEQUENCE (CertID)"
 447      3A204578 
 447      70656374 
 447      65642053 
 447      45515545 
 448 0685 000000   		.align	2
 449              	.LC49:
 450 0688 4F435350 		.string	"OCSP: issuerNameHash"
 450      3A206973 
 450      73756572 
 450      4E616D65 
 450      48617368 
 451 069d 000000   		.align	2
 452              	.LC50:
 453 06a0 4F435350 		.string	"OCSP: Issuer subject DN"
 453      3A204973 
 453      73756572 
 453      20737562 
 453      6A656374 
 454              		.align	2
 455              	.LC51:
 456 06b8 4F435350 		.string	"OCSP: issuerNameHash mismatch"
 456      3A206973 
 456      73756572 
 456      4E616D65 
 456      48617368 
 457 06d6 0000     		.align	2
 458              	.LC52:
 459 06d8 4F435350 		.string	"OCSP: Calculated issuerNameHash"
 459      3A204361 
 459      6C63756C 
 459      61746564 
 459      20697373 
 460              		.align	2
 461              	.LC53:
 462 06f8 4F435350 		.string	"OCSP: Expected OCTET STRING (issuerNameHash)"
 462      3A204578 
 462      70656374 
 462      6564204F 
 462      43544554 
 463 0725 000000   		.align	2
 464              	.LC54:
 465 0728 4F435350 		.string	"OCSP: issuerKeyHash"
 465      3A206973 
 465      73756572 
 465      4B657948 
 465      61736800 
 466              		.align	2
 467              	.LC55:
 468 073c 4F435350 		.string	"OCSP: issuerKeyHash mismatch"
 468      3A206973 
 468      73756572 
 468      4B657948 
 468      61736820 
 469 0759 000000   		.align	2
 470              	.LC56:
 471 075c 4F435350 		.string	"OCSP: Calculated issuerKeyHash"
 471      3A204361 
 471      6C63756C 
 471      61746564 
 471      20697373 
 472 077b 00       		.align	2
 473              	.LC57:
 474 077c 4F435350 		.string	"OCSP: Expected OCTET STRING (issuerKeyHash)"
 474      3A204578 
 474      70656374 
 474      6564204F 
 474      43544554 
 475              		.align	2
 476              	.LC58:
 477 07a8 4F435350 		.string	"OCSP: No INTEGER tag found for serialNumber"
 477      3A204E6F 
 477      20494E54 
 477      45474552 
 477      20746167 
 478              		.align	2
 479              	.LC59:
 480 07d4 4F435350 		.string	"OCSP: serialNumber"
 480      3A207365 
 480      7269616C 
 480      4E756D62 
 480      657200
 481 07e7 00       		.align	2
 482              	.LC60:
 483 07e8 4F435350 		.string	"OCSP: serialNumber mismatch"
 483      3A207365 
 483      7269616C 
 483      4E756D62 
 483      6572206D 
 484              		.align	2
 485              	.LC61:
 486 0804 4F435350 		.string	"OCSP: Expected CHOICE (CertStatus)"
 486      3A204578 
 486      70656374 
 486      65642043 
 486      484F4943 
 487 0827 00       		.align	2
 488              	.LC62:
 489 0828 4F435350 		.string	"OCSP: certStatus=%u"
 489      3A206365 
 489      72745374 
 489      61747573 
 489      3D257500 
 490              		.align	2
 491              	.LC63:
 492 083c 4F435350 		.string	"OCSP: CertStatus additional data"
 492      3A204365 
 492      72745374 
 492      61747573 
 492      20616464 
 493 085d 000000   		.align	2
 494              	.LC64:
 495 0860 4F435350 		.string	"OCSP: Failed to parse thisUpdate"
 495      3A204661 
 495      696C6564 
 495      20746F20 
 495      70617273 
 496 0881 000000   		.align	2
 497              	.LC65:
 498 0884 4F435350 		.string	"OCSP: thisUpdate %lu"
 498      3A207468 
 498      69735570 
 498      64617465 
 498      20256C75 
 499 0899 000000   		.align	2
 500              	.LC66:
 501 089c 4F435350 		.string	"OCSP: thisUpdate time in the future (response not yet valid)"
 501      3A207468 
 501      69735570 
 501      64617465 
 501      2074696D 
 502 08d9 000000   		.align	2
 503              	.LC67:
 504 08dc 4F435350 		.string	"OCSP: Failed to parse nextUpdate"
 504      3A204661 
 504      696C6564 
 504      20746F20 
 504      70617273 
 505 08fd 000000   		.align	2
 506              	.LC68:
 507 0900 4F435350 		.string	"OCSP: nextUpdate %lu"
 507      3A206E65 
 507      78745570 
 507      64617465 
 507      20256C75 
 508 0915 000000   		.align	2
 509              	.LC69:
 510 0918 4F435350 		.string	"OCSP: nextUpdate time in the past (response has expired)"
 510      3A206E65 
 510      78745570 
 510      64617465 
 510      2074696D 
 511 0951 000000   		.align	2
 512              	.LC70:
 513 0954 4F435350 		.string	"OCSP: singleExtensions"
 513      3A207369 
 513      6E676C65 
 513      45787465 
 513      6E73696F 
 514 096b 00       		.align	2
 515              	.LC71:
 516 096c 4F435350 		.string	"OCSP: Did not find a response matching the server certificate"
 516      3A204469 
 516      64206E6F 
 516      74206669 
 516      6E642061 
 517 09aa 0000     		.align	2
 518              	.LC72:
 519 09ac 4F435350 		.string	"OCSP: Could not find OCSP signer certificate"
 519      3A20436F 
 519      756C6420 
 519      6E6F7420 
 519      66696E64 
 520              		.section	.text.tls_process_ocsp_response,"ax",@progbits
 521              		.align	1
 522              		.globl	tls_process_ocsp_response
 524              	tls_process_ocsp_response:
 525              	.LFB92:
 108:C:/Users/stapi/OneDrive/Desktop/GD32VW553/V1_MQTT_OK/GD32VW55X_Wifi_BLE_SDK/GD32VW55x_RELEASE_V1.0.2/MSDK/wpa_supplicant/src/tls\tlsv1_client_ocsp.c **** 
 109:C:/Users/stapi/OneDrive/Desktop/GD32VW553/V1_MQTT_OK/GD32VW55X_Wifi_BLE_SDK/GD32VW55x_RELEASE_V1.0.2/MSDK/wpa_supplicant/src/tls\tlsv1_client_ocsp.c **** 
 110:C:/Users/stapi/OneDrive/Desktop/GD32VW553/V1_MQTT_OK/GD32VW55X_Wifi_BLE_SDK/GD32VW55x_RELEASE_V1.0.2/MSDK/wpa_supplicant/src/tls\tlsv1_client_ocsp.c **** static int tls_process_ocsp_single_response(struct tlsv1_client *conn,
 111:C:/Users/stapi/OneDrive/Desktop/GD32VW553/V1_MQTT_OK/GD32VW55X_Wifi_BLE_SDK/GD32VW55x_RELEASE_V1.0.2/MSDK/wpa_supplicant/src/tls\tlsv1_client_ocsp.c **** 					    struct x509_certificate *cert,
 112:C:/Users/stapi/OneDrive/Desktop/GD32VW553/V1_MQTT_OK/GD32VW55X_Wifi_BLE_SDK/GD32VW55x_RELEASE_V1.0.2/MSDK/wpa_supplicant/src/tls\tlsv1_client_ocsp.c **** 					    struct x509_certificate *issuer,
 113:C:/Users/stapi/OneDrive/Desktop/GD32VW553/V1_MQTT_OK/GD32VW55X_Wifi_BLE_SDK/GD32VW55x_RELEASE_V1.0.2/MSDK/wpa_supplicant/src/tls\tlsv1_client_ocsp.c **** 					    const u8 *resp, size_t len,
 114:C:/Users/stapi/OneDrive/Desktop/GD32VW553/V1_MQTT_OK/GD32VW55X_Wifi_BLE_SDK/GD32VW55x_RELEASE_V1.0.2/MSDK/wpa_supplicant/src/tls\tlsv1_client_ocsp.c **** 					    enum tls_ocsp_result *res)
 115:C:/Users/stapi/OneDrive/Desktop/GD32VW553/V1_MQTT_OK/GD32VW55X_Wifi_BLE_SDK/GD32VW55x_RELEASE_V1.0.2/MSDK/wpa_supplicant/src/tls\tlsv1_client_ocsp.c **** {
 116:C:/Users/stapi/OneDrive/Desktop/GD32VW553/V1_MQTT_OK/GD32VW55X_Wifi_BLE_SDK/GD32VW55x_RELEASE_V1.0.2/MSDK/wpa_supplicant/src/tls\tlsv1_client_ocsp.c **** 	struct asn1_hdr hdr;
 117:C:/Users/stapi/OneDrive/Desktop/GD32VW553/V1_MQTT_OK/GD32VW55X_Wifi_BLE_SDK/GD32VW55x_RELEASE_V1.0.2/MSDK/wpa_supplicant/src/tls\tlsv1_client_ocsp.c **** 	const u8 *pos, *end;
 118:C:/Users/stapi/OneDrive/Desktop/GD32VW553/V1_MQTT_OK/GD32VW55X_Wifi_BLE_SDK/GD32VW55x_RELEASE_V1.0.2/MSDK/wpa_supplicant/src/tls\tlsv1_client_ocsp.c **** 	struct x509_algorithm_identifier alg;
 119:C:/Users/stapi/OneDrive/Desktop/GD32VW553/V1_MQTT_OK/GD32VW55X_Wifi_BLE_SDK/GD32VW55x_RELEASE_V1.0.2/MSDK/wpa_supplicant/src/tls\tlsv1_client_ocsp.c **** 	const u8 *name_hash, *key_hash;
 120:C:/Users/stapi/OneDrive/Desktop/GD32VW553/V1_MQTT_OK/GD32VW55X_Wifi_BLE_SDK/GD32VW55x_RELEASE_V1.0.2/MSDK/wpa_supplicant/src/tls\tlsv1_client_ocsp.c **** 	size_t name_hash_len, key_hash_len;
 121:C:/Users/stapi/OneDrive/Desktop/GD32VW553/V1_MQTT_OK/GD32VW55X_Wifi_BLE_SDK/GD32VW55x_RELEASE_V1.0.2/MSDK/wpa_supplicant/src/tls\tlsv1_client_ocsp.c **** 	const u8 *serial_number;
 122:C:/Users/stapi/OneDrive/Desktop/GD32VW553/V1_MQTT_OK/GD32VW55X_Wifi_BLE_SDK/GD32VW55x_RELEASE_V1.0.2/MSDK/wpa_supplicant/src/tls\tlsv1_client_ocsp.c **** 	size_t serial_number_len;
 123:C:/Users/stapi/OneDrive/Desktop/GD32VW553/V1_MQTT_OK/GD32VW55X_Wifi_BLE_SDK/GD32VW55x_RELEASE_V1.0.2/MSDK/wpa_supplicant/src/tls\tlsv1_client_ocsp.c **** 	u8 hash[64];
 124:C:/Users/stapi/OneDrive/Desktop/GD32VW553/V1_MQTT_OK/GD32VW55X_Wifi_BLE_SDK/GD32VW55x_RELEASE_V1.0.2/MSDK/wpa_supplicant/src/tls\tlsv1_client_ocsp.c **** 	unsigned int hash_len;
 125:C:/Users/stapi/OneDrive/Desktop/GD32VW553/V1_MQTT_OK/GD32VW55X_Wifi_BLE_SDK/GD32VW55x_RELEASE_V1.0.2/MSDK/wpa_supplicant/src/tls\tlsv1_client_ocsp.c **** 	unsigned int cert_status;
 126:C:/Users/stapi/OneDrive/Desktop/GD32VW553/V1_MQTT_OK/GD32VW55X_Wifi_BLE_SDK/GD32VW55x_RELEASE_V1.0.2/MSDK/wpa_supplicant/src/tls\tlsv1_client_ocsp.c **** 	os_time_t update;
 127:C:/Users/stapi/OneDrive/Desktop/GD32VW553/V1_MQTT_OK/GD32VW55X_Wifi_BLE_SDK/GD32VW55x_RELEASE_V1.0.2/MSDK/wpa_supplicant/src/tls\tlsv1_client_ocsp.c **** 	struct os_time now;
 128:C:/Users/stapi/OneDrive/Desktop/GD32VW553/V1_MQTT_OK/GD32VW55X_Wifi_BLE_SDK/GD32VW55x_RELEASE_V1.0.2/MSDK/wpa_supplicant/src/tls\tlsv1_client_ocsp.c **** 
 129:C:/Users/stapi/OneDrive/Desktop/GD32VW553/V1_MQTT_OK/GD32VW55X_Wifi_BLE_SDK/GD32VW55x_RELEASE_V1.0.2/MSDK/wpa_supplicant/src/tls\tlsv1_client_ocsp.c **** 	wpa_hexdump(MSG_MSGDUMP, "OCSP: SingleResponse", resp, len);
 130:C:/Users/stapi/OneDrive/Desktop/GD32VW553/V1_MQTT_OK/GD32VW55X_Wifi_BLE_SDK/GD32VW55x_RELEASE_V1.0.2/MSDK/wpa_supplicant/src/tls\tlsv1_client_ocsp.c **** 
 131:C:/Users/stapi/OneDrive/Desktop/GD32VW553/V1_MQTT_OK/GD32VW55X_Wifi_BLE_SDK/GD32VW55x_RELEASE_V1.0.2/MSDK/wpa_supplicant/src/tls\tlsv1_client_ocsp.c **** 	/*
 132:C:/Users/stapi/OneDrive/Desktop/GD32VW553/V1_MQTT_OK/GD32VW55X_Wifi_BLE_SDK/GD32VW55x_RELEASE_V1.0.2/MSDK/wpa_supplicant/src/tls\tlsv1_client_ocsp.c **** 	 * SingleResponse ::= SEQUENCE {
 133:C:/Users/stapi/OneDrive/Desktop/GD32VW553/V1_MQTT_OK/GD32VW55X_Wifi_BLE_SDK/GD32VW55x_RELEASE_V1.0.2/MSDK/wpa_supplicant/src/tls\tlsv1_client_ocsp.c **** 	 *    certID                       CertID,
 134:C:/Users/stapi/OneDrive/Desktop/GD32VW553/V1_MQTT_OK/GD32VW55X_Wifi_BLE_SDK/GD32VW55x_RELEASE_V1.0.2/MSDK/wpa_supplicant/src/tls\tlsv1_client_ocsp.c **** 	 *    certStatus                   CertStatus,
 135:C:/Users/stapi/OneDrive/Desktop/GD32VW553/V1_MQTT_OK/GD32VW55X_Wifi_BLE_SDK/GD32VW55x_RELEASE_V1.0.2/MSDK/wpa_supplicant/src/tls\tlsv1_client_ocsp.c **** 	 *    thisUpdate                   GeneralizedTime,
 136:C:/Users/stapi/OneDrive/Desktop/GD32VW553/V1_MQTT_OK/GD32VW55X_Wifi_BLE_SDK/GD32VW55x_RELEASE_V1.0.2/MSDK/wpa_supplicant/src/tls\tlsv1_client_ocsp.c **** 	 *    nextUpdate         [0]       EXPLICIT GeneralizedTime OPTIONAL,
 137:C:/Users/stapi/OneDrive/Desktop/GD32VW553/V1_MQTT_OK/GD32VW55X_Wifi_BLE_SDK/GD32VW55x_RELEASE_V1.0.2/MSDK/wpa_supplicant/src/tls\tlsv1_client_ocsp.c **** 	 *    singleExtensions   [1]       EXPLICIT Extensions OPTIONAL }
 138:C:/Users/stapi/OneDrive/Desktop/GD32VW553/V1_MQTT_OK/GD32VW55X_Wifi_BLE_SDK/GD32VW55x_RELEASE_V1.0.2/MSDK/wpa_supplicant/src/tls\tlsv1_client_ocsp.c **** 	 */
 139:C:/Users/stapi/OneDrive/Desktop/GD32VW553/V1_MQTT_OK/GD32VW55X_Wifi_BLE_SDK/GD32VW55x_RELEASE_V1.0.2/MSDK/wpa_supplicant/src/tls\tlsv1_client_ocsp.c **** 
 140:C:/Users/stapi/OneDrive/Desktop/GD32VW553/V1_MQTT_OK/GD32VW55X_Wifi_BLE_SDK/GD32VW55x_RELEASE_V1.0.2/MSDK/wpa_supplicant/src/tls\tlsv1_client_ocsp.c **** 	/* CertID ::= SEQUENCE */
 141:C:/Users/stapi/OneDrive/Desktop/GD32VW553/V1_MQTT_OK/GD32VW55X_Wifi_BLE_SDK/GD32VW55x_RELEASE_V1.0.2/MSDK/wpa_supplicant/src/tls\tlsv1_client_ocsp.c **** 	if (asn1_get_next(resp, len, &hdr) < 0 || !asn1_is_sequence(&hdr)) {
 142:C:/Users/stapi/OneDrive/Desktop/GD32VW553/V1_MQTT_OK/GD32VW55X_Wifi_BLE_SDK/GD32VW55x_RELEASE_V1.0.2/MSDK/wpa_supplicant/src/tls\tlsv1_client_ocsp.c **** 		asn1_unexpected(&hdr, "OCSP: Expected SEQUENCE (CertID)");
 143:C:/Users/stapi/OneDrive/Desktop/GD32VW553/V1_MQTT_OK/GD32VW55X_Wifi_BLE_SDK/GD32VW55x_RELEASE_V1.0.2/MSDK/wpa_supplicant/src/tls\tlsv1_client_ocsp.c **** 		return -1;
 144:C:/Users/stapi/OneDrive/Desktop/GD32VW553/V1_MQTT_OK/GD32VW55X_Wifi_BLE_SDK/GD32VW55x_RELEASE_V1.0.2/MSDK/wpa_supplicant/src/tls\tlsv1_client_ocsp.c **** 	}
 145:C:/Users/stapi/OneDrive/Desktop/GD32VW553/V1_MQTT_OK/GD32VW55X_Wifi_BLE_SDK/GD32VW55x_RELEASE_V1.0.2/MSDK/wpa_supplicant/src/tls\tlsv1_client_ocsp.c **** 	pos = hdr.payload;
 146:C:/Users/stapi/OneDrive/Desktop/GD32VW553/V1_MQTT_OK/GD32VW55X_Wifi_BLE_SDK/GD32VW55x_RELEASE_V1.0.2/MSDK/wpa_supplicant/src/tls\tlsv1_client_ocsp.c **** 	end = hdr.payload + hdr.length;
 147:C:/Users/stapi/OneDrive/Desktop/GD32VW553/V1_MQTT_OK/GD32VW55X_Wifi_BLE_SDK/GD32VW55x_RELEASE_V1.0.2/MSDK/wpa_supplicant/src/tls\tlsv1_client_ocsp.c **** 
 148:C:/Users/stapi/OneDrive/Desktop/GD32VW553/V1_MQTT_OK/GD32VW55X_Wifi_BLE_SDK/GD32VW55x_RELEASE_V1.0.2/MSDK/wpa_supplicant/src/tls\tlsv1_client_ocsp.c **** 	/*
 149:C:/Users/stapi/OneDrive/Desktop/GD32VW553/V1_MQTT_OK/GD32VW55X_Wifi_BLE_SDK/GD32VW55x_RELEASE_V1.0.2/MSDK/wpa_supplicant/src/tls\tlsv1_client_ocsp.c **** 	 * CertID ::= SEQUENCE {
 150:C:/Users/stapi/OneDrive/Desktop/GD32VW553/V1_MQTT_OK/GD32VW55X_Wifi_BLE_SDK/GD32VW55x_RELEASE_V1.0.2/MSDK/wpa_supplicant/src/tls\tlsv1_client_ocsp.c **** 	 *    hashAlgorithm           AlgorithmIdentifier,
 151:C:/Users/stapi/OneDrive/Desktop/GD32VW553/V1_MQTT_OK/GD32VW55X_Wifi_BLE_SDK/GD32VW55x_RELEASE_V1.0.2/MSDK/wpa_supplicant/src/tls\tlsv1_client_ocsp.c **** 	 *    issuerNameHash          OCTET STRING,
 152:C:/Users/stapi/OneDrive/Desktop/GD32VW553/V1_MQTT_OK/GD32VW55X_Wifi_BLE_SDK/GD32VW55x_RELEASE_V1.0.2/MSDK/wpa_supplicant/src/tls\tlsv1_client_ocsp.c **** 	 *    issuerKeyHash           OCTET STRING,
 153:C:/Users/stapi/OneDrive/Desktop/GD32VW553/V1_MQTT_OK/GD32VW55X_Wifi_BLE_SDK/GD32VW55x_RELEASE_V1.0.2/MSDK/wpa_supplicant/src/tls\tlsv1_client_ocsp.c **** 	 *    serialNumber            CertificateSerialNumber }
 154:C:/Users/stapi/OneDrive/Desktop/GD32VW553/V1_MQTT_OK/GD32VW55X_Wifi_BLE_SDK/GD32VW55x_RELEASE_V1.0.2/MSDK/wpa_supplicant/src/tls\tlsv1_client_ocsp.c **** 	 */
 155:C:/Users/stapi/OneDrive/Desktop/GD32VW553/V1_MQTT_OK/GD32VW55X_Wifi_BLE_SDK/GD32VW55x_RELEASE_V1.0.2/MSDK/wpa_supplicant/src/tls\tlsv1_client_ocsp.c **** 
 156:C:/Users/stapi/OneDrive/Desktop/GD32VW553/V1_MQTT_OK/GD32VW55X_Wifi_BLE_SDK/GD32VW55x_RELEASE_V1.0.2/MSDK/wpa_supplicant/src/tls\tlsv1_client_ocsp.c **** 	/* hashAlgorithm  AlgorithmIdentifier */
 157:C:/Users/stapi/OneDrive/Desktop/GD32VW553/V1_MQTT_OK/GD32VW55X_Wifi_BLE_SDK/GD32VW55x_RELEASE_V1.0.2/MSDK/wpa_supplicant/src/tls\tlsv1_client_ocsp.c **** 	if (x509_parse_algorithm_identifier(pos, end - pos, &alg, &pos))
 158:C:/Users/stapi/OneDrive/Desktop/GD32VW553/V1_MQTT_OK/GD32VW55X_Wifi_BLE_SDK/GD32VW55x_RELEASE_V1.0.2/MSDK/wpa_supplicant/src/tls\tlsv1_client_ocsp.c **** 		return -1;
 159:C:/Users/stapi/OneDrive/Desktop/GD32VW553/V1_MQTT_OK/GD32VW55X_Wifi_BLE_SDK/GD32VW55x_RELEASE_V1.0.2/MSDK/wpa_supplicant/src/tls\tlsv1_client_ocsp.c **** 
 160:C:/Users/stapi/OneDrive/Desktop/GD32VW553/V1_MQTT_OK/GD32VW55X_Wifi_BLE_SDK/GD32VW55x_RELEASE_V1.0.2/MSDK/wpa_supplicant/src/tls\tlsv1_client_ocsp.c **** 	/* issuerNameHash  OCTET STRING */
 161:C:/Users/stapi/OneDrive/Desktop/GD32VW553/V1_MQTT_OK/GD32VW55X_Wifi_BLE_SDK/GD32VW55x_RELEASE_V1.0.2/MSDK/wpa_supplicant/src/tls\tlsv1_client_ocsp.c **** 	if (asn1_get_next(pos, end - pos, &hdr) < 0 ||
 162:C:/Users/stapi/OneDrive/Desktop/GD32VW553/V1_MQTT_OK/GD32VW55X_Wifi_BLE_SDK/GD32VW55x_RELEASE_V1.0.2/MSDK/wpa_supplicant/src/tls\tlsv1_client_ocsp.c **** 	    !asn1_is_octetstring(&hdr)) {
 163:C:/Users/stapi/OneDrive/Desktop/GD32VW553/V1_MQTT_OK/GD32VW55X_Wifi_BLE_SDK/GD32VW55x_RELEASE_V1.0.2/MSDK/wpa_supplicant/src/tls\tlsv1_client_ocsp.c **** 		asn1_unexpected(&hdr,
 164:C:/Users/stapi/OneDrive/Desktop/GD32VW553/V1_MQTT_OK/GD32VW55X_Wifi_BLE_SDK/GD32VW55x_RELEASE_V1.0.2/MSDK/wpa_supplicant/src/tls\tlsv1_client_ocsp.c **** 				"OCSP: Expected OCTET STRING (issuerNameHash)");
 165:C:/Users/stapi/OneDrive/Desktop/GD32VW553/V1_MQTT_OK/GD32VW55X_Wifi_BLE_SDK/GD32VW55x_RELEASE_V1.0.2/MSDK/wpa_supplicant/src/tls\tlsv1_client_ocsp.c **** 		return -1;
 166:C:/Users/stapi/OneDrive/Desktop/GD32VW553/V1_MQTT_OK/GD32VW55X_Wifi_BLE_SDK/GD32VW55x_RELEASE_V1.0.2/MSDK/wpa_supplicant/src/tls\tlsv1_client_ocsp.c **** 	}
 167:C:/Users/stapi/OneDrive/Desktop/GD32VW553/V1_MQTT_OK/GD32VW55X_Wifi_BLE_SDK/GD32VW55x_RELEASE_V1.0.2/MSDK/wpa_supplicant/src/tls\tlsv1_client_ocsp.c **** 	name_hash = hdr.payload;
 168:C:/Users/stapi/OneDrive/Desktop/GD32VW553/V1_MQTT_OK/GD32VW55X_Wifi_BLE_SDK/GD32VW55x_RELEASE_V1.0.2/MSDK/wpa_supplicant/src/tls\tlsv1_client_ocsp.c **** 	name_hash_len = hdr.length;
 169:C:/Users/stapi/OneDrive/Desktop/GD32VW553/V1_MQTT_OK/GD32VW55X_Wifi_BLE_SDK/GD32VW55x_RELEASE_V1.0.2/MSDK/wpa_supplicant/src/tls\tlsv1_client_ocsp.c **** 	wpa_hexdump(MSG_DEBUG, "OCSP: issuerNameHash",
 170:C:/Users/stapi/OneDrive/Desktop/GD32VW553/V1_MQTT_OK/GD32VW55X_Wifi_BLE_SDK/GD32VW55x_RELEASE_V1.0.2/MSDK/wpa_supplicant/src/tls\tlsv1_client_ocsp.c **** 		    name_hash, name_hash_len);
 171:C:/Users/stapi/OneDrive/Desktop/GD32VW553/V1_MQTT_OK/GD32VW55X_Wifi_BLE_SDK/GD32VW55x_RELEASE_V1.0.2/MSDK/wpa_supplicant/src/tls\tlsv1_client_ocsp.c **** 	pos = hdr.payload + hdr.length;
 172:C:/Users/stapi/OneDrive/Desktop/GD32VW553/V1_MQTT_OK/GD32VW55X_Wifi_BLE_SDK/GD32VW55x_RELEASE_V1.0.2/MSDK/wpa_supplicant/src/tls\tlsv1_client_ocsp.c **** 
 173:C:/Users/stapi/OneDrive/Desktop/GD32VW553/V1_MQTT_OK/GD32VW55X_Wifi_BLE_SDK/GD32VW55x_RELEASE_V1.0.2/MSDK/wpa_supplicant/src/tls\tlsv1_client_ocsp.c **** 	wpa_hexdump(MSG_DEBUG, "OCSP: Issuer subject DN",
 174:C:/Users/stapi/OneDrive/Desktop/GD32VW553/V1_MQTT_OK/GD32VW55X_Wifi_BLE_SDK/GD32VW55x_RELEASE_V1.0.2/MSDK/wpa_supplicant/src/tls\tlsv1_client_ocsp.c **** 		    issuer->subject_dn, issuer->subject_dn_len);
 175:C:/Users/stapi/OneDrive/Desktop/GD32VW553/V1_MQTT_OK/GD32VW55X_Wifi_BLE_SDK/GD32VW55x_RELEASE_V1.0.2/MSDK/wpa_supplicant/src/tls\tlsv1_client_ocsp.c **** 	hash_len = ocsp_hash_data(&alg.oid, issuer->subject_dn,
 176:C:/Users/stapi/OneDrive/Desktop/GD32VW553/V1_MQTT_OK/GD32VW55X_Wifi_BLE_SDK/GD32VW55x_RELEASE_V1.0.2/MSDK/wpa_supplicant/src/tls\tlsv1_client_ocsp.c **** 				  issuer->subject_dn_len, hash);
 177:C:/Users/stapi/OneDrive/Desktop/GD32VW553/V1_MQTT_OK/GD32VW55X_Wifi_BLE_SDK/GD32VW55x_RELEASE_V1.0.2/MSDK/wpa_supplicant/src/tls\tlsv1_client_ocsp.c **** 	if (hash_len == 0 || name_hash_len != hash_len ||
 178:C:/Users/stapi/OneDrive/Desktop/GD32VW553/V1_MQTT_OK/GD32VW55X_Wifi_BLE_SDK/GD32VW55x_RELEASE_V1.0.2/MSDK/wpa_supplicant/src/tls\tlsv1_client_ocsp.c **** 	    os_memcmp(name_hash, hash, hash_len) != 0) {
 179:C:/Users/stapi/OneDrive/Desktop/GD32VW553/V1_MQTT_OK/GD32VW55X_Wifi_BLE_SDK/GD32VW55x_RELEASE_V1.0.2/MSDK/wpa_supplicant/src/tls\tlsv1_client_ocsp.c **** 		wpa_printf(MSG_DEBUG, "OCSP: issuerNameHash mismatch");
 180:C:/Users/stapi/OneDrive/Desktop/GD32VW553/V1_MQTT_OK/GD32VW55X_Wifi_BLE_SDK/GD32VW55x_RELEASE_V1.0.2/MSDK/wpa_supplicant/src/tls\tlsv1_client_ocsp.c **** 		wpa_hexdump(MSG_DEBUG, "OCSP: Calculated issuerNameHash",
 181:C:/Users/stapi/OneDrive/Desktop/GD32VW553/V1_MQTT_OK/GD32VW55X_Wifi_BLE_SDK/GD32VW55x_RELEASE_V1.0.2/MSDK/wpa_supplicant/src/tls\tlsv1_client_ocsp.c **** 			    hash, hash_len);
 182:C:/Users/stapi/OneDrive/Desktop/GD32VW553/V1_MQTT_OK/GD32VW55X_Wifi_BLE_SDK/GD32VW55x_RELEASE_V1.0.2/MSDK/wpa_supplicant/src/tls\tlsv1_client_ocsp.c **** 		return -1;
 183:C:/Users/stapi/OneDrive/Desktop/GD32VW553/V1_MQTT_OK/GD32VW55X_Wifi_BLE_SDK/GD32VW55x_RELEASE_V1.0.2/MSDK/wpa_supplicant/src/tls\tlsv1_client_ocsp.c **** 	}
 184:C:/Users/stapi/OneDrive/Desktop/GD32VW553/V1_MQTT_OK/GD32VW55X_Wifi_BLE_SDK/GD32VW55x_RELEASE_V1.0.2/MSDK/wpa_supplicant/src/tls\tlsv1_client_ocsp.c **** 
 185:C:/Users/stapi/OneDrive/Desktop/GD32VW553/V1_MQTT_OK/GD32VW55X_Wifi_BLE_SDK/GD32VW55x_RELEASE_V1.0.2/MSDK/wpa_supplicant/src/tls\tlsv1_client_ocsp.c **** 	/* issuerKeyHash  OCTET STRING */
 186:C:/Users/stapi/OneDrive/Desktop/GD32VW553/V1_MQTT_OK/GD32VW55X_Wifi_BLE_SDK/GD32VW55x_RELEASE_V1.0.2/MSDK/wpa_supplicant/src/tls\tlsv1_client_ocsp.c **** 	if (asn1_get_next(pos, end - pos, &hdr) < 0 ||
 187:C:/Users/stapi/OneDrive/Desktop/GD32VW553/V1_MQTT_OK/GD32VW55X_Wifi_BLE_SDK/GD32VW55x_RELEASE_V1.0.2/MSDK/wpa_supplicant/src/tls\tlsv1_client_ocsp.c **** 	    !asn1_is_octetstring(&hdr)) {
 188:C:/Users/stapi/OneDrive/Desktop/GD32VW553/V1_MQTT_OK/GD32VW55X_Wifi_BLE_SDK/GD32VW55x_RELEASE_V1.0.2/MSDK/wpa_supplicant/src/tls\tlsv1_client_ocsp.c **** 		asn1_unexpected(&hdr,
 189:C:/Users/stapi/OneDrive/Desktop/GD32VW553/V1_MQTT_OK/GD32VW55X_Wifi_BLE_SDK/GD32VW55x_RELEASE_V1.0.2/MSDK/wpa_supplicant/src/tls\tlsv1_client_ocsp.c **** 				"OCSP: Expected OCTET STRING (issuerKeyHash)");
 190:C:/Users/stapi/OneDrive/Desktop/GD32VW553/V1_MQTT_OK/GD32VW55X_Wifi_BLE_SDK/GD32VW55x_RELEASE_V1.0.2/MSDK/wpa_supplicant/src/tls\tlsv1_client_ocsp.c **** 		return -1;
 191:C:/Users/stapi/OneDrive/Desktop/GD32VW553/V1_MQTT_OK/GD32VW55X_Wifi_BLE_SDK/GD32VW55x_RELEASE_V1.0.2/MSDK/wpa_supplicant/src/tls\tlsv1_client_ocsp.c **** 	}
 192:C:/Users/stapi/OneDrive/Desktop/GD32VW553/V1_MQTT_OK/GD32VW55X_Wifi_BLE_SDK/GD32VW55x_RELEASE_V1.0.2/MSDK/wpa_supplicant/src/tls\tlsv1_client_ocsp.c **** 	key_hash = hdr.payload;
 193:C:/Users/stapi/OneDrive/Desktop/GD32VW553/V1_MQTT_OK/GD32VW55X_Wifi_BLE_SDK/GD32VW55x_RELEASE_V1.0.2/MSDK/wpa_supplicant/src/tls\tlsv1_client_ocsp.c **** 	key_hash_len = hdr.length;
 194:C:/Users/stapi/OneDrive/Desktop/GD32VW553/V1_MQTT_OK/GD32VW55X_Wifi_BLE_SDK/GD32VW55x_RELEASE_V1.0.2/MSDK/wpa_supplicant/src/tls\tlsv1_client_ocsp.c **** 	wpa_hexdump(MSG_DEBUG, "OCSP: issuerKeyHash", key_hash, key_hash_len);
 195:C:/Users/stapi/OneDrive/Desktop/GD32VW553/V1_MQTT_OK/GD32VW55X_Wifi_BLE_SDK/GD32VW55x_RELEASE_V1.0.2/MSDK/wpa_supplicant/src/tls\tlsv1_client_ocsp.c **** 	pos = hdr.payload + hdr.length;
 196:C:/Users/stapi/OneDrive/Desktop/GD32VW553/V1_MQTT_OK/GD32VW55X_Wifi_BLE_SDK/GD32VW55x_RELEASE_V1.0.2/MSDK/wpa_supplicant/src/tls\tlsv1_client_ocsp.c **** 
 197:C:/Users/stapi/OneDrive/Desktop/GD32VW553/V1_MQTT_OK/GD32VW55X_Wifi_BLE_SDK/GD32VW55x_RELEASE_V1.0.2/MSDK/wpa_supplicant/src/tls\tlsv1_client_ocsp.c **** 	hash_len = ocsp_hash_data(&alg.oid, issuer->public_key,
 198:C:/Users/stapi/OneDrive/Desktop/GD32VW553/V1_MQTT_OK/GD32VW55X_Wifi_BLE_SDK/GD32VW55x_RELEASE_V1.0.2/MSDK/wpa_supplicant/src/tls\tlsv1_client_ocsp.c **** 				  issuer->public_key_len, hash);
 199:C:/Users/stapi/OneDrive/Desktop/GD32VW553/V1_MQTT_OK/GD32VW55X_Wifi_BLE_SDK/GD32VW55x_RELEASE_V1.0.2/MSDK/wpa_supplicant/src/tls\tlsv1_client_ocsp.c **** 	if (hash_len == 0 || key_hash_len != hash_len ||
 200:C:/Users/stapi/OneDrive/Desktop/GD32VW553/V1_MQTT_OK/GD32VW55X_Wifi_BLE_SDK/GD32VW55x_RELEASE_V1.0.2/MSDK/wpa_supplicant/src/tls\tlsv1_client_ocsp.c **** 	    os_memcmp(key_hash, hash, hash_len) != 0) {
 201:C:/Users/stapi/OneDrive/Desktop/GD32VW553/V1_MQTT_OK/GD32VW55X_Wifi_BLE_SDK/GD32VW55x_RELEASE_V1.0.2/MSDK/wpa_supplicant/src/tls\tlsv1_client_ocsp.c **** 		wpa_printf(MSG_DEBUG, "OCSP: issuerKeyHash mismatch");
 202:C:/Users/stapi/OneDrive/Desktop/GD32VW553/V1_MQTT_OK/GD32VW55X_Wifi_BLE_SDK/GD32VW55x_RELEASE_V1.0.2/MSDK/wpa_supplicant/src/tls\tlsv1_client_ocsp.c **** 		wpa_hexdump(MSG_DEBUG, "OCSP: Calculated issuerKeyHash",
 203:C:/Users/stapi/OneDrive/Desktop/GD32VW553/V1_MQTT_OK/GD32VW55X_Wifi_BLE_SDK/GD32VW55x_RELEASE_V1.0.2/MSDK/wpa_supplicant/src/tls\tlsv1_client_ocsp.c **** 			    hash, hash_len);
 204:C:/Users/stapi/OneDrive/Desktop/GD32VW553/V1_MQTT_OK/GD32VW55X_Wifi_BLE_SDK/GD32VW55x_RELEASE_V1.0.2/MSDK/wpa_supplicant/src/tls\tlsv1_client_ocsp.c **** 		return -1;
 205:C:/Users/stapi/OneDrive/Desktop/GD32VW553/V1_MQTT_OK/GD32VW55X_Wifi_BLE_SDK/GD32VW55x_RELEASE_V1.0.2/MSDK/wpa_supplicant/src/tls\tlsv1_client_ocsp.c **** 	}
 206:C:/Users/stapi/OneDrive/Desktop/GD32VW553/V1_MQTT_OK/GD32VW55X_Wifi_BLE_SDK/GD32VW55x_RELEASE_V1.0.2/MSDK/wpa_supplicant/src/tls\tlsv1_client_ocsp.c **** 
 207:C:/Users/stapi/OneDrive/Desktop/GD32VW553/V1_MQTT_OK/GD32VW55X_Wifi_BLE_SDK/GD32VW55x_RELEASE_V1.0.2/MSDK/wpa_supplicant/src/tls\tlsv1_client_ocsp.c **** 	/* serialNumber CertificateSerialNumber ::= INTEGER */
 208:C:/Users/stapi/OneDrive/Desktop/GD32VW553/V1_MQTT_OK/GD32VW55X_Wifi_BLE_SDK/GD32VW55x_RELEASE_V1.0.2/MSDK/wpa_supplicant/src/tls\tlsv1_client_ocsp.c **** 	if (asn1_get_next(pos, end - pos, &hdr) < 0 ||
 209:C:/Users/stapi/OneDrive/Desktop/GD32VW553/V1_MQTT_OK/GD32VW55X_Wifi_BLE_SDK/GD32VW55x_RELEASE_V1.0.2/MSDK/wpa_supplicant/src/tls\tlsv1_client_ocsp.c **** 	    !asn1_is_integer(&hdr) ||
 210:C:/Users/stapi/OneDrive/Desktop/GD32VW553/V1_MQTT_OK/GD32VW55X_Wifi_BLE_SDK/GD32VW55x_RELEASE_V1.0.2/MSDK/wpa_supplicant/src/tls\tlsv1_client_ocsp.c **** 	    hdr.length < 1 || hdr.length > X509_MAX_SERIAL_NUM_LEN) {
 211:C:/Users/stapi/OneDrive/Desktop/GD32VW553/V1_MQTT_OK/GD32VW55X_Wifi_BLE_SDK/GD32VW55x_RELEASE_V1.0.2/MSDK/wpa_supplicant/src/tls\tlsv1_client_ocsp.c **** 		asn1_unexpected(&hdr,
 212:C:/Users/stapi/OneDrive/Desktop/GD32VW553/V1_MQTT_OK/GD32VW55X_Wifi_BLE_SDK/GD32VW55x_RELEASE_V1.0.2/MSDK/wpa_supplicant/src/tls\tlsv1_client_ocsp.c **** 				"OCSP: No INTEGER tag found for serialNumber");
 213:C:/Users/stapi/OneDrive/Desktop/GD32VW553/V1_MQTT_OK/GD32VW55X_Wifi_BLE_SDK/GD32VW55x_RELEASE_V1.0.2/MSDK/wpa_supplicant/src/tls\tlsv1_client_ocsp.c **** 		return -1;
 214:C:/Users/stapi/OneDrive/Desktop/GD32VW553/V1_MQTT_OK/GD32VW55X_Wifi_BLE_SDK/GD32VW55x_RELEASE_V1.0.2/MSDK/wpa_supplicant/src/tls\tlsv1_client_ocsp.c **** 	}
 215:C:/Users/stapi/OneDrive/Desktop/GD32VW553/V1_MQTT_OK/GD32VW55X_Wifi_BLE_SDK/GD32VW55x_RELEASE_V1.0.2/MSDK/wpa_supplicant/src/tls\tlsv1_client_ocsp.c **** 	serial_number = hdr.payload;
 216:C:/Users/stapi/OneDrive/Desktop/GD32VW553/V1_MQTT_OK/GD32VW55X_Wifi_BLE_SDK/GD32VW55x_RELEASE_V1.0.2/MSDK/wpa_supplicant/src/tls\tlsv1_client_ocsp.c **** 	serial_number_len = hdr.length;
 217:C:/Users/stapi/OneDrive/Desktop/GD32VW553/V1_MQTT_OK/GD32VW55X_Wifi_BLE_SDK/GD32VW55x_RELEASE_V1.0.2/MSDK/wpa_supplicant/src/tls\tlsv1_client_ocsp.c **** 	while (serial_number_len > 0 && serial_number[0] == 0) {
 218:C:/Users/stapi/OneDrive/Desktop/GD32VW553/V1_MQTT_OK/GD32VW55X_Wifi_BLE_SDK/GD32VW55x_RELEASE_V1.0.2/MSDK/wpa_supplicant/src/tls\tlsv1_client_ocsp.c **** 		serial_number++;
 219:C:/Users/stapi/OneDrive/Desktop/GD32VW553/V1_MQTT_OK/GD32VW55X_Wifi_BLE_SDK/GD32VW55x_RELEASE_V1.0.2/MSDK/wpa_supplicant/src/tls\tlsv1_client_ocsp.c **** 		serial_number_len--;
 220:C:/Users/stapi/OneDrive/Desktop/GD32VW553/V1_MQTT_OK/GD32VW55X_Wifi_BLE_SDK/GD32VW55x_RELEASE_V1.0.2/MSDK/wpa_supplicant/src/tls\tlsv1_client_ocsp.c **** 	}
 221:C:/Users/stapi/OneDrive/Desktop/GD32VW553/V1_MQTT_OK/GD32VW55X_Wifi_BLE_SDK/GD32VW55x_RELEASE_V1.0.2/MSDK/wpa_supplicant/src/tls\tlsv1_client_ocsp.c **** 	wpa_hexdump(MSG_MSGDUMP, "OCSP: serialNumber", serial_number,
 222:C:/Users/stapi/OneDrive/Desktop/GD32VW553/V1_MQTT_OK/GD32VW55X_Wifi_BLE_SDK/GD32VW55x_RELEASE_V1.0.2/MSDK/wpa_supplicant/src/tls\tlsv1_client_ocsp.c **** 		    serial_number_len);
 223:C:/Users/stapi/OneDrive/Desktop/GD32VW553/V1_MQTT_OK/GD32VW55X_Wifi_BLE_SDK/GD32VW55x_RELEASE_V1.0.2/MSDK/wpa_supplicant/src/tls\tlsv1_client_ocsp.c **** 
 224:C:/Users/stapi/OneDrive/Desktop/GD32VW553/V1_MQTT_OK/GD32VW55X_Wifi_BLE_SDK/GD32VW55x_RELEASE_V1.0.2/MSDK/wpa_supplicant/src/tls\tlsv1_client_ocsp.c **** 	if (serial_number_len != cert->serial_number_len ||
 225:C:/Users/stapi/OneDrive/Desktop/GD32VW553/V1_MQTT_OK/GD32VW55X_Wifi_BLE_SDK/GD32VW55x_RELEASE_V1.0.2/MSDK/wpa_supplicant/src/tls\tlsv1_client_ocsp.c **** 	    os_memcmp(serial_number, cert->serial_number,
 226:C:/Users/stapi/OneDrive/Desktop/GD32VW553/V1_MQTT_OK/GD32VW55X_Wifi_BLE_SDK/GD32VW55x_RELEASE_V1.0.2/MSDK/wpa_supplicant/src/tls\tlsv1_client_ocsp.c **** 		      serial_number_len) != 0) {
 227:C:/Users/stapi/OneDrive/Desktop/GD32VW553/V1_MQTT_OK/GD32VW55X_Wifi_BLE_SDK/GD32VW55x_RELEASE_V1.0.2/MSDK/wpa_supplicant/src/tls\tlsv1_client_ocsp.c **** 		wpa_printf(MSG_DEBUG, "OCSP: serialNumber mismatch");
 228:C:/Users/stapi/OneDrive/Desktop/GD32VW553/V1_MQTT_OK/GD32VW55X_Wifi_BLE_SDK/GD32VW55x_RELEASE_V1.0.2/MSDK/wpa_supplicant/src/tls\tlsv1_client_ocsp.c **** 		return -1;
 229:C:/Users/stapi/OneDrive/Desktop/GD32VW553/V1_MQTT_OK/GD32VW55X_Wifi_BLE_SDK/GD32VW55x_RELEASE_V1.0.2/MSDK/wpa_supplicant/src/tls\tlsv1_client_ocsp.c **** 	}
 230:C:/Users/stapi/OneDrive/Desktop/GD32VW553/V1_MQTT_OK/GD32VW55X_Wifi_BLE_SDK/GD32VW55x_RELEASE_V1.0.2/MSDK/wpa_supplicant/src/tls\tlsv1_client_ocsp.c **** 
 231:C:/Users/stapi/OneDrive/Desktop/GD32VW553/V1_MQTT_OK/GD32VW55X_Wifi_BLE_SDK/GD32VW55x_RELEASE_V1.0.2/MSDK/wpa_supplicant/src/tls\tlsv1_client_ocsp.c **** 	pos = end;
 232:C:/Users/stapi/OneDrive/Desktop/GD32VW553/V1_MQTT_OK/GD32VW55X_Wifi_BLE_SDK/GD32VW55x_RELEASE_V1.0.2/MSDK/wpa_supplicant/src/tls\tlsv1_client_ocsp.c **** 	end = resp + len;
 233:C:/Users/stapi/OneDrive/Desktop/GD32VW553/V1_MQTT_OK/GD32VW55X_Wifi_BLE_SDK/GD32VW55x_RELEASE_V1.0.2/MSDK/wpa_supplicant/src/tls\tlsv1_client_ocsp.c **** 
 234:C:/Users/stapi/OneDrive/Desktop/GD32VW553/V1_MQTT_OK/GD32VW55X_Wifi_BLE_SDK/GD32VW55x_RELEASE_V1.0.2/MSDK/wpa_supplicant/src/tls\tlsv1_client_ocsp.c **** 	/* certStatus CertStatus ::= CHOICE
 235:C:/Users/stapi/OneDrive/Desktop/GD32VW553/V1_MQTT_OK/GD32VW55X_Wifi_BLE_SDK/GD32VW55x_RELEASE_V1.0.2/MSDK/wpa_supplicant/src/tls\tlsv1_client_ocsp.c **** 	 *
 236:C:/Users/stapi/OneDrive/Desktop/GD32VW553/V1_MQTT_OK/GD32VW55X_Wifi_BLE_SDK/GD32VW55x_RELEASE_V1.0.2/MSDK/wpa_supplicant/src/tls\tlsv1_client_ocsp.c **** 	 * CertStatus ::= CHOICE {
 237:C:/Users/stapi/OneDrive/Desktop/GD32VW553/V1_MQTT_OK/GD32VW55X_Wifi_BLE_SDK/GD32VW55x_RELEASE_V1.0.2/MSDK/wpa_supplicant/src/tls\tlsv1_client_ocsp.c **** 	 *     good        [0]     IMPLICIT NULL,
 238:C:/Users/stapi/OneDrive/Desktop/GD32VW553/V1_MQTT_OK/GD32VW55X_Wifi_BLE_SDK/GD32VW55x_RELEASE_V1.0.2/MSDK/wpa_supplicant/src/tls\tlsv1_client_ocsp.c **** 	 *     revoked     [1]     IMPLICIT RevokedInfo,
 239:C:/Users/stapi/OneDrive/Desktop/GD32VW553/V1_MQTT_OK/GD32VW55X_Wifi_BLE_SDK/GD32VW55x_RELEASE_V1.0.2/MSDK/wpa_supplicant/src/tls\tlsv1_client_ocsp.c **** 	 *     unknown     [2]     IMPLICIT UnknownInfo }
 240:C:/Users/stapi/OneDrive/Desktop/GD32VW553/V1_MQTT_OK/GD32VW55X_Wifi_BLE_SDK/GD32VW55x_RELEASE_V1.0.2/MSDK/wpa_supplicant/src/tls\tlsv1_client_ocsp.c **** 	 */
 241:C:/Users/stapi/OneDrive/Desktop/GD32VW553/V1_MQTT_OK/GD32VW55X_Wifi_BLE_SDK/GD32VW55x_RELEASE_V1.0.2/MSDK/wpa_supplicant/src/tls\tlsv1_client_ocsp.c **** 	if (asn1_get_next(pos, end - pos, &hdr) < 0 ||
 242:C:/Users/stapi/OneDrive/Desktop/GD32VW553/V1_MQTT_OK/GD32VW55X_Wifi_BLE_SDK/GD32VW55x_RELEASE_V1.0.2/MSDK/wpa_supplicant/src/tls\tlsv1_client_ocsp.c **** 	    hdr.class != ASN1_CLASS_CONTEXT_SPECIFIC) {
 243:C:/Users/stapi/OneDrive/Desktop/GD32VW553/V1_MQTT_OK/GD32VW55X_Wifi_BLE_SDK/GD32VW55x_RELEASE_V1.0.2/MSDK/wpa_supplicant/src/tls\tlsv1_client_ocsp.c **** 		asn1_unexpected(&hdr, "OCSP: Expected CHOICE (CertStatus)");
 244:C:/Users/stapi/OneDrive/Desktop/GD32VW553/V1_MQTT_OK/GD32VW55X_Wifi_BLE_SDK/GD32VW55x_RELEASE_V1.0.2/MSDK/wpa_supplicant/src/tls\tlsv1_client_ocsp.c **** 		return -1;
 245:C:/Users/stapi/OneDrive/Desktop/GD32VW553/V1_MQTT_OK/GD32VW55X_Wifi_BLE_SDK/GD32VW55x_RELEASE_V1.0.2/MSDK/wpa_supplicant/src/tls\tlsv1_client_ocsp.c **** 	}
 246:C:/Users/stapi/OneDrive/Desktop/GD32VW553/V1_MQTT_OK/GD32VW55X_Wifi_BLE_SDK/GD32VW55x_RELEASE_V1.0.2/MSDK/wpa_supplicant/src/tls\tlsv1_client_ocsp.c **** 	cert_status = hdr.tag;
 247:C:/Users/stapi/OneDrive/Desktop/GD32VW553/V1_MQTT_OK/GD32VW55X_Wifi_BLE_SDK/GD32VW55x_RELEASE_V1.0.2/MSDK/wpa_supplicant/src/tls\tlsv1_client_ocsp.c **** 	wpa_printf(MSG_DEBUG, "OCSP: certStatus=%u", cert_status);
 248:C:/Users/stapi/OneDrive/Desktop/GD32VW553/V1_MQTT_OK/GD32VW55X_Wifi_BLE_SDK/GD32VW55x_RELEASE_V1.0.2/MSDK/wpa_supplicant/src/tls\tlsv1_client_ocsp.c **** 	wpa_hexdump(MSG_DEBUG, "OCSP: CertStatus additional data",
 249:C:/Users/stapi/OneDrive/Desktop/GD32VW553/V1_MQTT_OK/GD32VW55X_Wifi_BLE_SDK/GD32VW55x_RELEASE_V1.0.2/MSDK/wpa_supplicant/src/tls\tlsv1_client_ocsp.c **** 		    hdr.payload, hdr.length);
 250:C:/Users/stapi/OneDrive/Desktop/GD32VW553/V1_MQTT_OK/GD32VW55X_Wifi_BLE_SDK/GD32VW55x_RELEASE_V1.0.2/MSDK/wpa_supplicant/src/tls\tlsv1_client_ocsp.c **** 	pos = hdr.payload + hdr.length;
 251:C:/Users/stapi/OneDrive/Desktop/GD32VW553/V1_MQTT_OK/GD32VW55X_Wifi_BLE_SDK/GD32VW55x_RELEASE_V1.0.2/MSDK/wpa_supplicant/src/tls\tlsv1_client_ocsp.c **** 
 252:C:/Users/stapi/OneDrive/Desktop/GD32VW553/V1_MQTT_OK/GD32VW55X_Wifi_BLE_SDK/GD32VW55x_RELEASE_V1.0.2/MSDK/wpa_supplicant/src/tls\tlsv1_client_ocsp.c **** 	os_get_time(&now);
 253:C:/Users/stapi/OneDrive/Desktop/GD32VW553/V1_MQTT_OK/GD32VW55X_Wifi_BLE_SDK/GD32VW55x_RELEASE_V1.0.2/MSDK/wpa_supplicant/src/tls\tlsv1_client_ocsp.c **** 	/* thisUpdate  GeneralizedTime */
 254:C:/Users/stapi/OneDrive/Desktop/GD32VW553/V1_MQTT_OK/GD32VW55X_Wifi_BLE_SDK/GD32VW55x_RELEASE_V1.0.2/MSDK/wpa_supplicant/src/tls\tlsv1_client_ocsp.c **** 	if (asn1_get_next(pos, end - pos, &hdr) < 0 ||
 255:C:/Users/stapi/OneDrive/Desktop/GD32VW553/V1_MQTT_OK/GD32VW55X_Wifi_BLE_SDK/GD32VW55x_RELEASE_V1.0.2/MSDK/wpa_supplicant/src/tls\tlsv1_client_ocsp.c **** 	    !asn1_is_generalizedtime(&hdr) ||
 256:C:/Users/stapi/OneDrive/Desktop/GD32VW553/V1_MQTT_OK/GD32VW55X_Wifi_BLE_SDK/GD32VW55x_RELEASE_V1.0.2/MSDK/wpa_supplicant/src/tls\tlsv1_client_ocsp.c **** 	    x509_parse_time(hdr.payload, hdr.length, hdr.tag, &update) < 0) {
 257:C:/Users/stapi/OneDrive/Desktop/GD32VW553/V1_MQTT_OK/GD32VW55X_Wifi_BLE_SDK/GD32VW55x_RELEASE_V1.0.2/MSDK/wpa_supplicant/src/tls\tlsv1_client_ocsp.c **** 		wpa_printf(MSG_DEBUG, "OCSP: Failed to parse thisUpdate");
 258:C:/Users/stapi/OneDrive/Desktop/GD32VW553/V1_MQTT_OK/GD32VW55X_Wifi_BLE_SDK/GD32VW55x_RELEASE_V1.0.2/MSDK/wpa_supplicant/src/tls\tlsv1_client_ocsp.c **** 		return -1;
 259:C:/Users/stapi/OneDrive/Desktop/GD32VW553/V1_MQTT_OK/GD32VW55X_Wifi_BLE_SDK/GD32VW55x_RELEASE_V1.0.2/MSDK/wpa_supplicant/src/tls\tlsv1_client_ocsp.c **** 	}
 260:C:/Users/stapi/OneDrive/Desktop/GD32VW553/V1_MQTT_OK/GD32VW55X_Wifi_BLE_SDK/GD32VW55x_RELEASE_V1.0.2/MSDK/wpa_supplicant/src/tls\tlsv1_client_ocsp.c **** 	wpa_printf(MSG_DEBUG, "OCSP: thisUpdate %lu", (unsigned long) update);
 261:C:/Users/stapi/OneDrive/Desktop/GD32VW553/V1_MQTT_OK/GD32VW55X_Wifi_BLE_SDK/GD32VW55x_RELEASE_V1.0.2/MSDK/wpa_supplicant/src/tls\tlsv1_client_ocsp.c **** 	pos = hdr.payload + hdr.length;
 262:C:/Users/stapi/OneDrive/Desktop/GD32VW553/V1_MQTT_OK/GD32VW55X_Wifi_BLE_SDK/GD32VW55x_RELEASE_V1.0.2/MSDK/wpa_supplicant/src/tls\tlsv1_client_ocsp.c **** 	if ((unsigned long) now.sec < (unsigned long) update) {
 263:C:/Users/stapi/OneDrive/Desktop/GD32VW553/V1_MQTT_OK/GD32VW55X_Wifi_BLE_SDK/GD32VW55x_RELEASE_V1.0.2/MSDK/wpa_supplicant/src/tls\tlsv1_client_ocsp.c **** 		wpa_printf(MSG_DEBUG,
 264:C:/Users/stapi/OneDrive/Desktop/GD32VW553/V1_MQTT_OK/GD32VW55X_Wifi_BLE_SDK/GD32VW55x_RELEASE_V1.0.2/MSDK/wpa_supplicant/src/tls\tlsv1_client_ocsp.c **** 			   "OCSP: thisUpdate time in the future (response not yet valid)");
 265:C:/Users/stapi/OneDrive/Desktop/GD32VW553/V1_MQTT_OK/GD32VW55X_Wifi_BLE_SDK/GD32VW55x_RELEASE_V1.0.2/MSDK/wpa_supplicant/src/tls\tlsv1_client_ocsp.c **** 		return -1;
 266:C:/Users/stapi/OneDrive/Desktop/GD32VW553/V1_MQTT_OK/GD32VW55X_Wifi_BLE_SDK/GD32VW55x_RELEASE_V1.0.2/MSDK/wpa_supplicant/src/tls\tlsv1_client_ocsp.c **** 	}
 267:C:/Users/stapi/OneDrive/Desktop/GD32VW553/V1_MQTT_OK/GD32VW55X_Wifi_BLE_SDK/GD32VW55x_RELEASE_V1.0.2/MSDK/wpa_supplicant/src/tls\tlsv1_client_ocsp.c **** 
 268:C:/Users/stapi/OneDrive/Desktop/GD32VW553/V1_MQTT_OK/GD32VW55X_Wifi_BLE_SDK/GD32VW55x_RELEASE_V1.0.2/MSDK/wpa_supplicant/src/tls\tlsv1_client_ocsp.c **** 	/* nextUpdate  [0]  EXPLICIT GeneralizedTime OPTIONAL */
 269:C:/Users/stapi/OneDrive/Desktop/GD32VW553/V1_MQTT_OK/GD32VW55X_Wifi_BLE_SDK/GD32VW55x_RELEASE_V1.0.2/MSDK/wpa_supplicant/src/tls\tlsv1_client_ocsp.c **** 	if (pos < end) {
 270:C:/Users/stapi/OneDrive/Desktop/GD32VW553/V1_MQTT_OK/GD32VW55X_Wifi_BLE_SDK/GD32VW55x_RELEASE_V1.0.2/MSDK/wpa_supplicant/src/tls\tlsv1_client_ocsp.c **** 		if (asn1_get_next(pos, end - pos, &hdr) < 0)
 271:C:/Users/stapi/OneDrive/Desktop/GD32VW553/V1_MQTT_OK/GD32VW55X_Wifi_BLE_SDK/GD32VW55x_RELEASE_V1.0.2/MSDK/wpa_supplicant/src/tls\tlsv1_client_ocsp.c **** 			return -1;
 272:C:/Users/stapi/OneDrive/Desktop/GD32VW553/V1_MQTT_OK/GD32VW55X_Wifi_BLE_SDK/GD32VW55x_RELEASE_V1.0.2/MSDK/wpa_supplicant/src/tls\tlsv1_client_ocsp.c **** 		if (asn1_is_cs_tag(&hdr, 0) && hdr.constructed) {
 273:C:/Users/stapi/OneDrive/Desktop/GD32VW553/V1_MQTT_OK/GD32VW55X_Wifi_BLE_SDK/GD32VW55x_RELEASE_V1.0.2/MSDK/wpa_supplicant/src/tls\tlsv1_client_ocsp.c **** 			const u8 *next = hdr.payload + hdr.length;
 274:C:/Users/stapi/OneDrive/Desktop/GD32VW553/V1_MQTT_OK/GD32VW55X_Wifi_BLE_SDK/GD32VW55x_RELEASE_V1.0.2/MSDK/wpa_supplicant/src/tls\tlsv1_client_ocsp.c **** 
 275:C:/Users/stapi/OneDrive/Desktop/GD32VW553/V1_MQTT_OK/GD32VW55X_Wifi_BLE_SDK/GD32VW55x_RELEASE_V1.0.2/MSDK/wpa_supplicant/src/tls\tlsv1_client_ocsp.c **** 			if (asn1_get_next(hdr.payload, hdr.length, &hdr) < 0 ||
 276:C:/Users/stapi/OneDrive/Desktop/GD32VW553/V1_MQTT_OK/GD32VW55X_Wifi_BLE_SDK/GD32VW55x_RELEASE_V1.0.2/MSDK/wpa_supplicant/src/tls\tlsv1_client_ocsp.c **** 			    !asn1_is_generalizedtime(&hdr) ||
 277:C:/Users/stapi/OneDrive/Desktop/GD32VW553/V1_MQTT_OK/GD32VW55X_Wifi_BLE_SDK/GD32VW55x_RELEASE_V1.0.2/MSDK/wpa_supplicant/src/tls\tlsv1_client_ocsp.c **** 			    x509_parse_time(hdr.payload, hdr.length, hdr.tag,
 278:C:/Users/stapi/OneDrive/Desktop/GD32VW553/V1_MQTT_OK/GD32VW55X_Wifi_BLE_SDK/GD32VW55x_RELEASE_V1.0.2/MSDK/wpa_supplicant/src/tls\tlsv1_client_ocsp.c **** 					    &update) < 0) {
 279:C:/Users/stapi/OneDrive/Desktop/GD32VW553/V1_MQTT_OK/GD32VW55X_Wifi_BLE_SDK/GD32VW55x_RELEASE_V1.0.2/MSDK/wpa_supplicant/src/tls\tlsv1_client_ocsp.c **** 				wpa_printf(MSG_DEBUG,
 280:C:/Users/stapi/OneDrive/Desktop/GD32VW553/V1_MQTT_OK/GD32VW55X_Wifi_BLE_SDK/GD32VW55x_RELEASE_V1.0.2/MSDK/wpa_supplicant/src/tls\tlsv1_client_ocsp.c **** 					   "OCSP: Failed to parse nextUpdate");
 281:C:/Users/stapi/OneDrive/Desktop/GD32VW553/V1_MQTT_OK/GD32VW55X_Wifi_BLE_SDK/GD32VW55x_RELEASE_V1.0.2/MSDK/wpa_supplicant/src/tls\tlsv1_client_ocsp.c **** 				return -1;
 282:C:/Users/stapi/OneDrive/Desktop/GD32VW553/V1_MQTT_OK/GD32VW55X_Wifi_BLE_SDK/GD32VW55x_RELEASE_V1.0.2/MSDK/wpa_supplicant/src/tls\tlsv1_client_ocsp.c **** 			}
 283:C:/Users/stapi/OneDrive/Desktop/GD32VW553/V1_MQTT_OK/GD32VW55X_Wifi_BLE_SDK/GD32VW55x_RELEASE_V1.0.2/MSDK/wpa_supplicant/src/tls\tlsv1_client_ocsp.c **** 			wpa_printf(MSG_DEBUG, "OCSP: nextUpdate %lu",
 284:C:/Users/stapi/OneDrive/Desktop/GD32VW553/V1_MQTT_OK/GD32VW55X_Wifi_BLE_SDK/GD32VW55x_RELEASE_V1.0.2/MSDK/wpa_supplicant/src/tls\tlsv1_client_ocsp.c **** 				   (unsigned long) update);
 285:C:/Users/stapi/OneDrive/Desktop/GD32VW553/V1_MQTT_OK/GD32VW55X_Wifi_BLE_SDK/GD32VW55x_RELEASE_V1.0.2/MSDK/wpa_supplicant/src/tls\tlsv1_client_ocsp.c **** 			pos = next;
 286:C:/Users/stapi/OneDrive/Desktop/GD32VW553/V1_MQTT_OK/GD32VW55X_Wifi_BLE_SDK/GD32VW55x_RELEASE_V1.0.2/MSDK/wpa_supplicant/src/tls\tlsv1_client_ocsp.c **** 			if ((unsigned long) now.sec > (unsigned long) update) {
 287:C:/Users/stapi/OneDrive/Desktop/GD32VW553/V1_MQTT_OK/GD32VW55X_Wifi_BLE_SDK/GD32VW55x_RELEASE_V1.0.2/MSDK/wpa_supplicant/src/tls\tlsv1_client_ocsp.c **** 				wpa_printf(MSG_DEBUG, "OCSP: nextUpdate time in the past (response has expired)");
 288:C:/Users/stapi/OneDrive/Desktop/GD32VW553/V1_MQTT_OK/GD32VW55X_Wifi_BLE_SDK/GD32VW55x_RELEASE_V1.0.2/MSDK/wpa_supplicant/src/tls\tlsv1_client_ocsp.c **** 				return -1;
 289:C:/Users/stapi/OneDrive/Desktop/GD32VW553/V1_MQTT_OK/GD32VW55X_Wifi_BLE_SDK/GD32VW55x_RELEASE_V1.0.2/MSDK/wpa_supplicant/src/tls\tlsv1_client_ocsp.c **** 			}
 290:C:/Users/stapi/OneDrive/Desktop/GD32VW553/V1_MQTT_OK/GD32VW55X_Wifi_BLE_SDK/GD32VW55x_RELEASE_V1.0.2/MSDK/wpa_supplicant/src/tls\tlsv1_client_ocsp.c **** 		}
 291:C:/Users/stapi/OneDrive/Desktop/GD32VW553/V1_MQTT_OK/GD32VW55X_Wifi_BLE_SDK/GD32VW55x_RELEASE_V1.0.2/MSDK/wpa_supplicant/src/tls\tlsv1_client_ocsp.c **** 	}
 292:C:/Users/stapi/OneDrive/Desktop/GD32VW553/V1_MQTT_OK/GD32VW55X_Wifi_BLE_SDK/GD32VW55x_RELEASE_V1.0.2/MSDK/wpa_supplicant/src/tls\tlsv1_client_ocsp.c **** 
 293:C:/Users/stapi/OneDrive/Desktop/GD32VW553/V1_MQTT_OK/GD32VW55X_Wifi_BLE_SDK/GD32VW55x_RELEASE_V1.0.2/MSDK/wpa_supplicant/src/tls\tlsv1_client_ocsp.c **** 	/* singleExtensions  [1]  EXPLICIT Extensions OPTIONAL */
 294:C:/Users/stapi/OneDrive/Desktop/GD32VW553/V1_MQTT_OK/GD32VW55X_Wifi_BLE_SDK/GD32VW55x_RELEASE_V1.0.2/MSDK/wpa_supplicant/src/tls\tlsv1_client_ocsp.c **** 	if (pos < end) {
 295:C:/Users/stapi/OneDrive/Desktop/GD32VW553/V1_MQTT_OK/GD32VW55X_Wifi_BLE_SDK/GD32VW55x_RELEASE_V1.0.2/MSDK/wpa_supplicant/src/tls\tlsv1_client_ocsp.c **** 		wpa_hexdump(MSG_MSGDUMP, "OCSP: singleExtensions",
 296:C:/Users/stapi/OneDrive/Desktop/GD32VW553/V1_MQTT_OK/GD32VW55X_Wifi_BLE_SDK/GD32VW55x_RELEASE_V1.0.2/MSDK/wpa_supplicant/src/tls\tlsv1_client_ocsp.c **** 			    pos, end - pos);
 297:C:/Users/stapi/OneDrive/Desktop/GD32VW553/V1_MQTT_OK/GD32VW55X_Wifi_BLE_SDK/GD32VW55x_RELEASE_V1.0.2/MSDK/wpa_supplicant/src/tls\tlsv1_client_ocsp.c **** 		/* Ignore for now */
 298:C:/Users/stapi/OneDrive/Desktop/GD32VW553/V1_MQTT_OK/GD32VW55X_Wifi_BLE_SDK/GD32VW55x_RELEASE_V1.0.2/MSDK/wpa_supplicant/src/tls\tlsv1_client_ocsp.c **** 	}
 299:C:/Users/stapi/OneDrive/Desktop/GD32VW553/V1_MQTT_OK/GD32VW55X_Wifi_BLE_SDK/GD32VW55x_RELEASE_V1.0.2/MSDK/wpa_supplicant/src/tls\tlsv1_client_ocsp.c **** 
 300:C:/Users/stapi/OneDrive/Desktop/GD32VW553/V1_MQTT_OK/GD32VW55X_Wifi_BLE_SDK/GD32VW55x_RELEASE_V1.0.2/MSDK/wpa_supplicant/src/tls\tlsv1_client_ocsp.c **** 	if (cert_status == 0 /* good */)
 301:C:/Users/stapi/OneDrive/Desktop/GD32VW553/V1_MQTT_OK/GD32VW55X_Wifi_BLE_SDK/GD32VW55x_RELEASE_V1.0.2/MSDK/wpa_supplicant/src/tls\tlsv1_client_ocsp.c **** 		*res = TLS_OCSP_GOOD;
 302:C:/Users/stapi/OneDrive/Desktop/GD32VW553/V1_MQTT_OK/GD32VW55X_Wifi_BLE_SDK/GD32VW55x_RELEASE_V1.0.2/MSDK/wpa_supplicant/src/tls\tlsv1_client_ocsp.c **** 	else if (cert_status == 1 /* revoked */)
 303:C:/Users/stapi/OneDrive/Desktop/GD32VW553/V1_MQTT_OK/GD32VW55X_Wifi_BLE_SDK/GD32VW55x_RELEASE_V1.0.2/MSDK/wpa_supplicant/src/tls\tlsv1_client_ocsp.c **** 		*res = TLS_OCSP_REVOKED;
 304:C:/Users/stapi/OneDrive/Desktop/GD32VW553/V1_MQTT_OK/GD32VW55X_Wifi_BLE_SDK/GD32VW55x_RELEASE_V1.0.2/MSDK/wpa_supplicant/src/tls\tlsv1_client_ocsp.c **** 	else
 305:C:/Users/stapi/OneDrive/Desktop/GD32VW553/V1_MQTT_OK/GD32VW55X_Wifi_BLE_SDK/GD32VW55x_RELEASE_V1.0.2/MSDK/wpa_supplicant/src/tls\tlsv1_client_ocsp.c **** 		return -1;
 306:C:/Users/stapi/OneDrive/Desktop/GD32VW553/V1_MQTT_OK/GD32VW55X_Wifi_BLE_SDK/GD32VW55x_RELEASE_V1.0.2/MSDK/wpa_supplicant/src/tls\tlsv1_client_ocsp.c **** 	return 0;
 307:C:/Users/stapi/OneDrive/Desktop/GD32VW553/V1_MQTT_OK/GD32VW55X_Wifi_BLE_SDK/GD32VW55x_RELEASE_V1.0.2/MSDK/wpa_supplicant/src/tls\tlsv1_client_ocsp.c **** }
 308:C:/Users/stapi/OneDrive/Desktop/GD32VW553/V1_MQTT_OK/GD32VW55X_Wifi_BLE_SDK/GD32VW55x_RELEASE_V1.0.2/MSDK/wpa_supplicant/src/tls\tlsv1_client_ocsp.c **** 
 309:C:/Users/stapi/OneDrive/Desktop/GD32VW553/V1_MQTT_OK/GD32VW55X_Wifi_BLE_SDK/GD32VW55x_RELEASE_V1.0.2/MSDK/wpa_supplicant/src/tls\tlsv1_client_ocsp.c **** 
 310:C:/Users/stapi/OneDrive/Desktop/GD32VW553/V1_MQTT_OK/GD32VW55X_Wifi_BLE_SDK/GD32VW55x_RELEASE_V1.0.2/MSDK/wpa_supplicant/src/tls\tlsv1_client_ocsp.c **** static enum tls_ocsp_result
 311:C:/Users/stapi/OneDrive/Desktop/GD32VW553/V1_MQTT_OK/GD32VW55X_Wifi_BLE_SDK/GD32VW55x_RELEASE_V1.0.2/MSDK/wpa_supplicant/src/tls\tlsv1_client_ocsp.c **** tls_process_ocsp_responses(struct tlsv1_client *conn,
 312:C:/Users/stapi/OneDrive/Desktop/GD32VW553/V1_MQTT_OK/GD32VW55X_Wifi_BLE_SDK/GD32VW55x_RELEASE_V1.0.2/MSDK/wpa_supplicant/src/tls\tlsv1_client_ocsp.c **** 			   struct x509_certificate *cert,
 313:C:/Users/stapi/OneDrive/Desktop/GD32VW553/V1_MQTT_OK/GD32VW55X_Wifi_BLE_SDK/GD32VW55x_RELEASE_V1.0.2/MSDK/wpa_supplicant/src/tls\tlsv1_client_ocsp.c **** 			   struct x509_certificate *issuer, const u8 *resp,
 314:C:/Users/stapi/OneDrive/Desktop/GD32VW553/V1_MQTT_OK/GD32VW55X_Wifi_BLE_SDK/GD32VW55x_RELEASE_V1.0.2/MSDK/wpa_supplicant/src/tls\tlsv1_client_ocsp.c **** 			   size_t len)
 315:C:/Users/stapi/OneDrive/Desktop/GD32VW553/V1_MQTT_OK/GD32VW55X_Wifi_BLE_SDK/GD32VW55x_RELEASE_V1.0.2/MSDK/wpa_supplicant/src/tls\tlsv1_client_ocsp.c **** {
 316:C:/Users/stapi/OneDrive/Desktop/GD32VW553/V1_MQTT_OK/GD32VW55X_Wifi_BLE_SDK/GD32VW55x_RELEASE_V1.0.2/MSDK/wpa_supplicant/src/tls\tlsv1_client_ocsp.c **** 	struct asn1_hdr hdr;
 317:C:/Users/stapi/OneDrive/Desktop/GD32VW553/V1_MQTT_OK/GD32VW55X_Wifi_BLE_SDK/GD32VW55x_RELEASE_V1.0.2/MSDK/wpa_supplicant/src/tls\tlsv1_client_ocsp.c **** 	const u8 *pos, *end;
 318:C:/Users/stapi/OneDrive/Desktop/GD32VW553/V1_MQTT_OK/GD32VW55X_Wifi_BLE_SDK/GD32VW55x_RELEASE_V1.0.2/MSDK/wpa_supplicant/src/tls\tlsv1_client_ocsp.c **** 	enum tls_ocsp_result res;
 319:C:/Users/stapi/OneDrive/Desktop/GD32VW553/V1_MQTT_OK/GD32VW55X_Wifi_BLE_SDK/GD32VW55x_RELEASE_V1.0.2/MSDK/wpa_supplicant/src/tls\tlsv1_client_ocsp.c **** 
 320:C:/Users/stapi/OneDrive/Desktop/GD32VW553/V1_MQTT_OK/GD32VW55X_Wifi_BLE_SDK/GD32VW55x_RELEASE_V1.0.2/MSDK/wpa_supplicant/src/tls\tlsv1_client_ocsp.c **** 	pos = resp;
 321:C:/Users/stapi/OneDrive/Desktop/GD32VW553/V1_MQTT_OK/GD32VW55X_Wifi_BLE_SDK/GD32VW55x_RELEASE_V1.0.2/MSDK/wpa_supplicant/src/tls\tlsv1_client_ocsp.c **** 	end = resp + len;
 322:C:/Users/stapi/OneDrive/Desktop/GD32VW553/V1_MQTT_OK/GD32VW55X_Wifi_BLE_SDK/GD32VW55x_RELEASE_V1.0.2/MSDK/wpa_supplicant/src/tls\tlsv1_client_ocsp.c **** 	while (pos < end) {
 323:C:/Users/stapi/OneDrive/Desktop/GD32VW553/V1_MQTT_OK/GD32VW55X_Wifi_BLE_SDK/GD32VW55x_RELEASE_V1.0.2/MSDK/wpa_supplicant/src/tls\tlsv1_client_ocsp.c **** 		/* SingleResponse ::= SEQUENCE */
 324:C:/Users/stapi/OneDrive/Desktop/GD32VW553/V1_MQTT_OK/GD32VW55X_Wifi_BLE_SDK/GD32VW55x_RELEASE_V1.0.2/MSDK/wpa_supplicant/src/tls\tlsv1_client_ocsp.c **** 		if (asn1_get_next(pos, end - pos, &hdr) < 0 ||
 325:C:/Users/stapi/OneDrive/Desktop/GD32VW553/V1_MQTT_OK/GD32VW55X_Wifi_BLE_SDK/GD32VW55x_RELEASE_V1.0.2/MSDK/wpa_supplicant/src/tls\tlsv1_client_ocsp.c **** 		    !asn1_is_sequence(&hdr)) {
 326:C:/Users/stapi/OneDrive/Desktop/GD32VW553/V1_MQTT_OK/GD32VW55X_Wifi_BLE_SDK/GD32VW55x_RELEASE_V1.0.2/MSDK/wpa_supplicant/src/tls\tlsv1_client_ocsp.c **** 			asn1_unexpected(&hdr,
 327:C:/Users/stapi/OneDrive/Desktop/GD32VW553/V1_MQTT_OK/GD32VW55X_Wifi_BLE_SDK/GD32VW55x_RELEASE_V1.0.2/MSDK/wpa_supplicant/src/tls\tlsv1_client_ocsp.c **** 					"OCSP: Expected SEQUENCE (SingleResponse)");
 328:C:/Users/stapi/OneDrive/Desktop/GD32VW553/V1_MQTT_OK/GD32VW55X_Wifi_BLE_SDK/GD32VW55x_RELEASE_V1.0.2/MSDK/wpa_supplicant/src/tls\tlsv1_client_ocsp.c **** 			return TLS_OCSP_INVALID;
 329:C:/Users/stapi/OneDrive/Desktop/GD32VW553/V1_MQTT_OK/GD32VW55X_Wifi_BLE_SDK/GD32VW55x_RELEASE_V1.0.2/MSDK/wpa_supplicant/src/tls\tlsv1_client_ocsp.c **** 		}
 330:C:/Users/stapi/OneDrive/Desktop/GD32VW553/V1_MQTT_OK/GD32VW55X_Wifi_BLE_SDK/GD32VW55x_RELEASE_V1.0.2/MSDK/wpa_supplicant/src/tls\tlsv1_client_ocsp.c **** 		if (tls_process_ocsp_single_response(conn, cert, issuer,
 331:C:/Users/stapi/OneDrive/Desktop/GD32VW553/V1_MQTT_OK/GD32VW55X_Wifi_BLE_SDK/GD32VW55x_RELEASE_V1.0.2/MSDK/wpa_supplicant/src/tls\tlsv1_client_ocsp.c **** 						     hdr.payload, hdr.length,
 332:C:/Users/stapi/OneDrive/Desktop/GD32VW553/V1_MQTT_OK/GD32VW55X_Wifi_BLE_SDK/GD32VW55x_RELEASE_V1.0.2/MSDK/wpa_supplicant/src/tls\tlsv1_client_ocsp.c **** 						     &res) == 0)
 333:C:/Users/stapi/OneDrive/Desktop/GD32VW553/V1_MQTT_OK/GD32VW55X_Wifi_BLE_SDK/GD32VW55x_RELEASE_V1.0.2/MSDK/wpa_supplicant/src/tls\tlsv1_client_ocsp.c **** 			return res;
 334:C:/Users/stapi/OneDrive/Desktop/GD32VW553/V1_MQTT_OK/GD32VW55X_Wifi_BLE_SDK/GD32VW55x_RELEASE_V1.0.2/MSDK/wpa_supplicant/src/tls\tlsv1_client_ocsp.c **** 		pos = hdr.payload + hdr.length;
 335:C:/Users/stapi/OneDrive/Desktop/GD32VW553/V1_MQTT_OK/GD32VW55X_Wifi_BLE_SDK/GD32VW55x_RELEASE_V1.0.2/MSDK/wpa_supplicant/src/tls\tlsv1_client_ocsp.c **** 	}
 336:C:/Users/stapi/OneDrive/Desktop/GD32VW553/V1_MQTT_OK/GD32VW55X_Wifi_BLE_SDK/GD32VW55x_RELEASE_V1.0.2/MSDK/wpa_supplicant/src/tls\tlsv1_client_ocsp.c **** 
 337:C:/Users/stapi/OneDrive/Desktop/GD32VW553/V1_MQTT_OK/GD32VW55X_Wifi_BLE_SDK/GD32VW55x_RELEASE_V1.0.2/MSDK/wpa_supplicant/src/tls\tlsv1_client_ocsp.c **** 	wpa_printf(MSG_DEBUG,
 338:C:/Users/stapi/OneDrive/Desktop/GD32VW553/V1_MQTT_OK/GD32VW55X_Wifi_BLE_SDK/GD32VW55x_RELEASE_V1.0.2/MSDK/wpa_supplicant/src/tls\tlsv1_client_ocsp.c **** 		   "OCSP: Did not find a response matching the server certificate");
 339:C:/Users/stapi/OneDrive/Desktop/GD32VW553/V1_MQTT_OK/GD32VW55X_Wifi_BLE_SDK/GD32VW55x_RELEASE_V1.0.2/MSDK/wpa_supplicant/src/tls\tlsv1_client_ocsp.c **** 	return TLS_OCSP_NO_RESPONSE;
 340:C:/Users/stapi/OneDrive/Desktop/GD32VW553/V1_MQTT_OK/GD32VW55X_Wifi_BLE_SDK/GD32VW55x_RELEASE_V1.0.2/MSDK/wpa_supplicant/src/tls\tlsv1_client_ocsp.c **** }
 341:C:/Users/stapi/OneDrive/Desktop/GD32VW553/V1_MQTT_OK/GD32VW55X_Wifi_BLE_SDK/GD32VW55x_RELEASE_V1.0.2/MSDK/wpa_supplicant/src/tls\tlsv1_client_ocsp.c **** 
 342:C:/Users/stapi/OneDrive/Desktop/GD32VW553/V1_MQTT_OK/GD32VW55X_Wifi_BLE_SDK/GD32VW55x_RELEASE_V1.0.2/MSDK/wpa_supplicant/src/tls\tlsv1_client_ocsp.c **** 
 343:C:/Users/stapi/OneDrive/Desktop/GD32VW553/V1_MQTT_OK/GD32VW55X_Wifi_BLE_SDK/GD32VW55x_RELEASE_V1.0.2/MSDK/wpa_supplicant/src/tls\tlsv1_client_ocsp.c **** static enum tls_ocsp_result
 344:C:/Users/stapi/OneDrive/Desktop/GD32VW553/V1_MQTT_OK/GD32VW55X_Wifi_BLE_SDK/GD32VW55x_RELEASE_V1.0.2/MSDK/wpa_supplicant/src/tls\tlsv1_client_ocsp.c **** tls_process_basic_ocsp_response(struct tlsv1_client *conn,
 345:C:/Users/stapi/OneDrive/Desktop/GD32VW553/V1_MQTT_OK/GD32VW55X_Wifi_BLE_SDK/GD32VW55x_RELEASE_V1.0.2/MSDK/wpa_supplicant/src/tls\tlsv1_client_ocsp.c **** 				struct x509_certificate *srv_cert,
 346:C:/Users/stapi/OneDrive/Desktop/GD32VW553/V1_MQTT_OK/GD32VW55X_Wifi_BLE_SDK/GD32VW55x_RELEASE_V1.0.2/MSDK/wpa_supplicant/src/tls\tlsv1_client_ocsp.c **** 				const u8 *resp, size_t len)
 347:C:/Users/stapi/OneDrive/Desktop/GD32VW553/V1_MQTT_OK/GD32VW55X_Wifi_BLE_SDK/GD32VW55x_RELEASE_V1.0.2/MSDK/wpa_supplicant/src/tls\tlsv1_client_ocsp.c **** {
 348:C:/Users/stapi/OneDrive/Desktop/GD32VW553/V1_MQTT_OK/GD32VW55X_Wifi_BLE_SDK/GD32VW55x_RELEASE_V1.0.2/MSDK/wpa_supplicant/src/tls\tlsv1_client_ocsp.c **** 	struct asn1_hdr hdr;
 349:C:/Users/stapi/OneDrive/Desktop/GD32VW553/V1_MQTT_OK/GD32VW55X_Wifi_BLE_SDK/GD32VW55x_RELEASE_V1.0.2/MSDK/wpa_supplicant/src/tls\tlsv1_client_ocsp.c **** 	const u8 *pos, *end;
 350:C:/Users/stapi/OneDrive/Desktop/GD32VW553/V1_MQTT_OK/GD32VW55X_Wifi_BLE_SDK/GD32VW55x_RELEASE_V1.0.2/MSDK/wpa_supplicant/src/tls\tlsv1_client_ocsp.c **** 	const u8 *resp_data, *sign_value, *key_hash = NULL, *responses;
 351:C:/Users/stapi/OneDrive/Desktop/GD32VW553/V1_MQTT_OK/GD32VW55X_Wifi_BLE_SDK/GD32VW55x_RELEASE_V1.0.2/MSDK/wpa_supplicant/src/tls\tlsv1_client_ocsp.c **** 	const u8 *resp_data_signed;
 352:C:/Users/stapi/OneDrive/Desktop/GD32VW553/V1_MQTT_OK/GD32VW55X_Wifi_BLE_SDK/GD32VW55x_RELEASE_V1.0.2/MSDK/wpa_supplicant/src/tls\tlsv1_client_ocsp.c **** 	size_t resp_data_len, sign_value_len, responses_len;
 353:C:/Users/stapi/OneDrive/Desktop/GD32VW553/V1_MQTT_OK/GD32VW55X_Wifi_BLE_SDK/GD32VW55x_RELEASE_V1.0.2/MSDK/wpa_supplicant/src/tls\tlsv1_client_ocsp.c **** 	size_t resp_data_signed_len;
 354:C:/Users/stapi/OneDrive/Desktop/GD32VW553/V1_MQTT_OK/GD32VW55X_Wifi_BLE_SDK/GD32VW55x_RELEASE_V1.0.2/MSDK/wpa_supplicant/src/tls\tlsv1_client_ocsp.c **** 	struct x509_algorithm_identifier alg;
 355:C:/Users/stapi/OneDrive/Desktop/GD32VW553/V1_MQTT_OK/GD32VW55X_Wifi_BLE_SDK/GD32VW55x_RELEASE_V1.0.2/MSDK/wpa_supplicant/src/tls\tlsv1_client_ocsp.c **** 	struct x509_certificate *certs = NULL, *last_cert = NULL;
 356:C:/Users/stapi/OneDrive/Desktop/GD32VW553/V1_MQTT_OK/GD32VW55X_Wifi_BLE_SDK/GD32VW55x_RELEASE_V1.0.2/MSDK/wpa_supplicant/src/tls\tlsv1_client_ocsp.c **** 	struct x509_certificate *issuer, *signer;
 357:C:/Users/stapi/OneDrive/Desktop/GD32VW553/V1_MQTT_OK/GD32VW55X_Wifi_BLE_SDK/GD32VW55x_RELEASE_V1.0.2/MSDK/wpa_supplicant/src/tls\tlsv1_client_ocsp.c **** 	struct x509_name name; /* used if key_hash == NULL */
 358:C:/Users/stapi/OneDrive/Desktop/GD32VW553/V1_MQTT_OK/GD32VW55X_Wifi_BLE_SDK/GD32VW55x_RELEASE_V1.0.2/MSDK/wpa_supplicant/src/tls\tlsv1_client_ocsp.c **** 	char buf[100];
 359:C:/Users/stapi/OneDrive/Desktop/GD32VW553/V1_MQTT_OK/GD32VW55X_Wifi_BLE_SDK/GD32VW55x_RELEASE_V1.0.2/MSDK/wpa_supplicant/src/tls\tlsv1_client_ocsp.c **** 	os_time_t produced_at;
 360:C:/Users/stapi/OneDrive/Desktop/GD32VW553/V1_MQTT_OK/GD32VW55X_Wifi_BLE_SDK/GD32VW55x_RELEASE_V1.0.2/MSDK/wpa_supplicant/src/tls\tlsv1_client_ocsp.c **** 	enum tls_ocsp_result res;
 361:C:/Users/stapi/OneDrive/Desktop/GD32VW553/V1_MQTT_OK/GD32VW55X_Wifi_BLE_SDK/GD32VW55x_RELEASE_V1.0.2/MSDK/wpa_supplicant/src/tls\tlsv1_client_ocsp.c **** 
 362:C:/Users/stapi/OneDrive/Desktop/GD32VW553/V1_MQTT_OK/GD32VW55X_Wifi_BLE_SDK/GD32VW55x_RELEASE_V1.0.2/MSDK/wpa_supplicant/src/tls\tlsv1_client_ocsp.c **** 	wpa_hexdump(MSG_MSGDUMP, "OCSP: BasicOCSPResponse", resp, len);
 363:C:/Users/stapi/OneDrive/Desktop/GD32VW553/V1_MQTT_OK/GD32VW55X_Wifi_BLE_SDK/GD32VW55x_RELEASE_V1.0.2/MSDK/wpa_supplicant/src/tls\tlsv1_client_ocsp.c **** 
 364:C:/Users/stapi/OneDrive/Desktop/GD32VW553/V1_MQTT_OK/GD32VW55X_Wifi_BLE_SDK/GD32VW55x_RELEASE_V1.0.2/MSDK/wpa_supplicant/src/tls\tlsv1_client_ocsp.c **** 	os_memset(&name, 0, sizeof(name));
 365:C:/Users/stapi/OneDrive/Desktop/GD32VW553/V1_MQTT_OK/GD32VW55X_Wifi_BLE_SDK/GD32VW55x_RELEASE_V1.0.2/MSDK/wpa_supplicant/src/tls\tlsv1_client_ocsp.c **** 
 366:C:/Users/stapi/OneDrive/Desktop/GD32VW553/V1_MQTT_OK/GD32VW55X_Wifi_BLE_SDK/GD32VW55x_RELEASE_V1.0.2/MSDK/wpa_supplicant/src/tls\tlsv1_client_ocsp.c **** 	/*
 367:C:/Users/stapi/OneDrive/Desktop/GD32VW553/V1_MQTT_OK/GD32VW55X_Wifi_BLE_SDK/GD32VW55x_RELEASE_V1.0.2/MSDK/wpa_supplicant/src/tls\tlsv1_client_ocsp.c **** 	 * RFC 6960, 4.2.1:
 368:C:/Users/stapi/OneDrive/Desktop/GD32VW553/V1_MQTT_OK/GD32VW55X_Wifi_BLE_SDK/GD32VW55x_RELEASE_V1.0.2/MSDK/wpa_supplicant/src/tls\tlsv1_client_ocsp.c **** 	 * BasicOCSPResponse       ::= SEQUENCE {
 369:C:/Users/stapi/OneDrive/Desktop/GD32VW553/V1_MQTT_OK/GD32VW55X_Wifi_BLE_SDK/GD32VW55x_RELEASE_V1.0.2/MSDK/wpa_supplicant/src/tls\tlsv1_client_ocsp.c **** 	 *    tbsResponseData      ResponseData,
 370:C:/Users/stapi/OneDrive/Desktop/GD32VW553/V1_MQTT_OK/GD32VW55X_Wifi_BLE_SDK/GD32VW55x_RELEASE_V1.0.2/MSDK/wpa_supplicant/src/tls\tlsv1_client_ocsp.c **** 	 *    signatureAlgorithm   AlgorithmIdentifier,
 371:C:/Users/stapi/OneDrive/Desktop/GD32VW553/V1_MQTT_OK/GD32VW55X_Wifi_BLE_SDK/GD32VW55x_RELEASE_V1.0.2/MSDK/wpa_supplicant/src/tls\tlsv1_client_ocsp.c **** 	 *    signature            BIT STRING,
 372:C:/Users/stapi/OneDrive/Desktop/GD32VW553/V1_MQTT_OK/GD32VW55X_Wifi_BLE_SDK/GD32VW55x_RELEASE_V1.0.2/MSDK/wpa_supplicant/src/tls\tlsv1_client_ocsp.c **** 	 *    certs            [0] EXPLICIT SEQUENCE OF Certificate OPTIONAL }
 373:C:/Users/stapi/OneDrive/Desktop/GD32VW553/V1_MQTT_OK/GD32VW55X_Wifi_BLE_SDK/GD32VW55x_RELEASE_V1.0.2/MSDK/wpa_supplicant/src/tls\tlsv1_client_ocsp.c **** 	 */
 374:C:/Users/stapi/OneDrive/Desktop/GD32VW553/V1_MQTT_OK/GD32VW55X_Wifi_BLE_SDK/GD32VW55x_RELEASE_V1.0.2/MSDK/wpa_supplicant/src/tls\tlsv1_client_ocsp.c **** 
 375:C:/Users/stapi/OneDrive/Desktop/GD32VW553/V1_MQTT_OK/GD32VW55X_Wifi_BLE_SDK/GD32VW55x_RELEASE_V1.0.2/MSDK/wpa_supplicant/src/tls\tlsv1_client_ocsp.c **** 	if (asn1_get_next(resp, len, &hdr) < 0 || !asn1_is_sequence(&hdr)) {
 376:C:/Users/stapi/OneDrive/Desktop/GD32VW553/V1_MQTT_OK/GD32VW55X_Wifi_BLE_SDK/GD32VW55x_RELEASE_V1.0.2/MSDK/wpa_supplicant/src/tls\tlsv1_client_ocsp.c **** 		asn1_unexpected(&hdr,
 377:C:/Users/stapi/OneDrive/Desktop/GD32VW553/V1_MQTT_OK/GD32VW55X_Wifi_BLE_SDK/GD32VW55x_RELEASE_V1.0.2/MSDK/wpa_supplicant/src/tls\tlsv1_client_ocsp.c **** 				"OCSP: Expected SEQUENCE (BasicOCSPResponse)");
 378:C:/Users/stapi/OneDrive/Desktop/GD32VW553/V1_MQTT_OK/GD32VW55X_Wifi_BLE_SDK/GD32VW55x_RELEASE_V1.0.2/MSDK/wpa_supplicant/src/tls\tlsv1_client_ocsp.c **** 		return TLS_OCSP_INVALID;
 379:C:/Users/stapi/OneDrive/Desktop/GD32VW553/V1_MQTT_OK/GD32VW55X_Wifi_BLE_SDK/GD32VW55x_RELEASE_V1.0.2/MSDK/wpa_supplicant/src/tls\tlsv1_client_ocsp.c **** 	}
 380:C:/Users/stapi/OneDrive/Desktop/GD32VW553/V1_MQTT_OK/GD32VW55X_Wifi_BLE_SDK/GD32VW55x_RELEASE_V1.0.2/MSDK/wpa_supplicant/src/tls\tlsv1_client_ocsp.c **** 	pos = hdr.payload;
 381:C:/Users/stapi/OneDrive/Desktop/GD32VW553/V1_MQTT_OK/GD32VW55X_Wifi_BLE_SDK/GD32VW55x_RELEASE_V1.0.2/MSDK/wpa_supplicant/src/tls\tlsv1_client_ocsp.c **** 	end = hdr.payload + hdr.length;
 382:C:/Users/stapi/OneDrive/Desktop/GD32VW553/V1_MQTT_OK/GD32VW55X_Wifi_BLE_SDK/GD32VW55x_RELEASE_V1.0.2/MSDK/wpa_supplicant/src/tls\tlsv1_client_ocsp.c **** 
 383:C:/Users/stapi/OneDrive/Desktop/GD32VW553/V1_MQTT_OK/GD32VW55X_Wifi_BLE_SDK/GD32VW55x_RELEASE_V1.0.2/MSDK/wpa_supplicant/src/tls\tlsv1_client_ocsp.c **** 	/* ResponseData ::= SEQUENCE */
 384:C:/Users/stapi/OneDrive/Desktop/GD32VW553/V1_MQTT_OK/GD32VW55X_Wifi_BLE_SDK/GD32VW55x_RELEASE_V1.0.2/MSDK/wpa_supplicant/src/tls\tlsv1_client_ocsp.c **** 	if (asn1_get_next(pos, end - pos, &hdr) < 0 ||
 385:C:/Users/stapi/OneDrive/Desktop/GD32VW553/V1_MQTT_OK/GD32VW55X_Wifi_BLE_SDK/GD32VW55x_RELEASE_V1.0.2/MSDK/wpa_supplicant/src/tls\tlsv1_client_ocsp.c **** 	    !asn1_is_sequence(&hdr)) {
 386:C:/Users/stapi/OneDrive/Desktop/GD32VW553/V1_MQTT_OK/GD32VW55X_Wifi_BLE_SDK/GD32VW55x_RELEASE_V1.0.2/MSDK/wpa_supplicant/src/tls\tlsv1_client_ocsp.c **** 		asn1_unexpected(&hdr,
 387:C:/Users/stapi/OneDrive/Desktop/GD32VW553/V1_MQTT_OK/GD32VW55X_Wifi_BLE_SDK/GD32VW55x_RELEASE_V1.0.2/MSDK/wpa_supplicant/src/tls\tlsv1_client_ocsp.c **** 				"OCSP: Expected SEQUENCE (ResponseData)");
 388:C:/Users/stapi/OneDrive/Desktop/GD32VW553/V1_MQTT_OK/GD32VW55X_Wifi_BLE_SDK/GD32VW55x_RELEASE_V1.0.2/MSDK/wpa_supplicant/src/tls\tlsv1_client_ocsp.c **** 		return TLS_OCSP_INVALID;
 389:C:/Users/stapi/OneDrive/Desktop/GD32VW553/V1_MQTT_OK/GD32VW55X_Wifi_BLE_SDK/GD32VW55x_RELEASE_V1.0.2/MSDK/wpa_supplicant/src/tls\tlsv1_client_ocsp.c **** 	}
 390:C:/Users/stapi/OneDrive/Desktop/GD32VW553/V1_MQTT_OK/GD32VW55X_Wifi_BLE_SDK/GD32VW55x_RELEASE_V1.0.2/MSDK/wpa_supplicant/src/tls\tlsv1_client_ocsp.c **** 	resp_data = hdr.payload;
 391:C:/Users/stapi/OneDrive/Desktop/GD32VW553/V1_MQTT_OK/GD32VW55X_Wifi_BLE_SDK/GD32VW55x_RELEASE_V1.0.2/MSDK/wpa_supplicant/src/tls\tlsv1_client_ocsp.c **** 	resp_data_len = hdr.length;
 392:C:/Users/stapi/OneDrive/Desktop/GD32VW553/V1_MQTT_OK/GD32VW55X_Wifi_BLE_SDK/GD32VW55x_RELEASE_V1.0.2/MSDK/wpa_supplicant/src/tls\tlsv1_client_ocsp.c **** 	resp_data_signed = pos;
 393:C:/Users/stapi/OneDrive/Desktop/GD32VW553/V1_MQTT_OK/GD32VW55X_Wifi_BLE_SDK/GD32VW55x_RELEASE_V1.0.2/MSDK/wpa_supplicant/src/tls\tlsv1_client_ocsp.c **** 	pos = hdr.payload + hdr.length;
 394:C:/Users/stapi/OneDrive/Desktop/GD32VW553/V1_MQTT_OK/GD32VW55X_Wifi_BLE_SDK/GD32VW55x_RELEASE_V1.0.2/MSDK/wpa_supplicant/src/tls\tlsv1_client_ocsp.c **** 	resp_data_signed_len = pos - resp_data_signed;
 395:C:/Users/stapi/OneDrive/Desktop/GD32VW553/V1_MQTT_OK/GD32VW55X_Wifi_BLE_SDK/GD32VW55x_RELEASE_V1.0.2/MSDK/wpa_supplicant/src/tls\tlsv1_client_ocsp.c **** 
 396:C:/Users/stapi/OneDrive/Desktop/GD32VW553/V1_MQTT_OK/GD32VW55X_Wifi_BLE_SDK/GD32VW55x_RELEASE_V1.0.2/MSDK/wpa_supplicant/src/tls\tlsv1_client_ocsp.c **** 	/* signatureAlgorithm  AlgorithmIdentifier */
 397:C:/Users/stapi/OneDrive/Desktop/GD32VW553/V1_MQTT_OK/GD32VW55X_Wifi_BLE_SDK/GD32VW55x_RELEASE_V1.0.2/MSDK/wpa_supplicant/src/tls\tlsv1_client_ocsp.c **** 	if (x509_parse_algorithm_identifier(pos, end - pos, &alg, &pos))
 398:C:/Users/stapi/OneDrive/Desktop/GD32VW553/V1_MQTT_OK/GD32VW55X_Wifi_BLE_SDK/GD32VW55x_RELEASE_V1.0.2/MSDK/wpa_supplicant/src/tls\tlsv1_client_ocsp.c **** 		return TLS_OCSP_INVALID;
 399:C:/Users/stapi/OneDrive/Desktop/GD32VW553/V1_MQTT_OK/GD32VW55X_Wifi_BLE_SDK/GD32VW55x_RELEASE_V1.0.2/MSDK/wpa_supplicant/src/tls\tlsv1_client_ocsp.c **** 
 400:C:/Users/stapi/OneDrive/Desktop/GD32VW553/V1_MQTT_OK/GD32VW55X_Wifi_BLE_SDK/GD32VW55x_RELEASE_V1.0.2/MSDK/wpa_supplicant/src/tls\tlsv1_client_ocsp.c **** 	/* signature  BIT STRING */
 401:C:/Users/stapi/OneDrive/Desktop/GD32VW553/V1_MQTT_OK/GD32VW55X_Wifi_BLE_SDK/GD32VW55x_RELEASE_V1.0.2/MSDK/wpa_supplicant/src/tls\tlsv1_client_ocsp.c **** 	if (asn1_get_next(pos, end - pos, &hdr) < 0 ||
 402:C:/Users/stapi/OneDrive/Desktop/GD32VW553/V1_MQTT_OK/GD32VW55X_Wifi_BLE_SDK/GD32VW55x_RELEASE_V1.0.2/MSDK/wpa_supplicant/src/tls\tlsv1_client_ocsp.c **** 	    !asn1_is_bitstring(&hdr)) {
 403:C:/Users/stapi/OneDrive/Desktop/GD32VW553/V1_MQTT_OK/GD32VW55X_Wifi_BLE_SDK/GD32VW55x_RELEASE_V1.0.2/MSDK/wpa_supplicant/src/tls\tlsv1_client_ocsp.c **** 		asn1_unexpected(&hdr,
 404:C:/Users/stapi/OneDrive/Desktop/GD32VW553/V1_MQTT_OK/GD32VW55X_Wifi_BLE_SDK/GD32VW55x_RELEASE_V1.0.2/MSDK/wpa_supplicant/src/tls\tlsv1_client_ocsp.c **** 				"OCSP: Expected BITSTRING (signature)");
 405:C:/Users/stapi/OneDrive/Desktop/GD32VW553/V1_MQTT_OK/GD32VW55X_Wifi_BLE_SDK/GD32VW55x_RELEASE_V1.0.2/MSDK/wpa_supplicant/src/tls\tlsv1_client_ocsp.c **** 		return TLS_OCSP_INVALID;
 406:C:/Users/stapi/OneDrive/Desktop/GD32VW553/V1_MQTT_OK/GD32VW55X_Wifi_BLE_SDK/GD32VW55x_RELEASE_V1.0.2/MSDK/wpa_supplicant/src/tls\tlsv1_client_ocsp.c **** 	}
 407:C:/Users/stapi/OneDrive/Desktop/GD32VW553/V1_MQTT_OK/GD32VW55X_Wifi_BLE_SDK/GD32VW55x_RELEASE_V1.0.2/MSDK/wpa_supplicant/src/tls\tlsv1_client_ocsp.c **** 	if (hdr.length < 1)
 408:C:/Users/stapi/OneDrive/Desktop/GD32VW553/V1_MQTT_OK/GD32VW55X_Wifi_BLE_SDK/GD32VW55x_RELEASE_V1.0.2/MSDK/wpa_supplicant/src/tls\tlsv1_client_ocsp.c **** 		return TLS_OCSP_INVALID;
 409:C:/Users/stapi/OneDrive/Desktop/GD32VW553/V1_MQTT_OK/GD32VW55X_Wifi_BLE_SDK/GD32VW55x_RELEASE_V1.0.2/MSDK/wpa_supplicant/src/tls\tlsv1_client_ocsp.c **** 	pos = hdr.payload;
 410:C:/Users/stapi/OneDrive/Desktop/GD32VW553/V1_MQTT_OK/GD32VW55X_Wifi_BLE_SDK/GD32VW55x_RELEASE_V1.0.2/MSDK/wpa_supplicant/src/tls\tlsv1_client_ocsp.c **** 	if (*pos) {
 411:C:/Users/stapi/OneDrive/Desktop/GD32VW553/V1_MQTT_OK/GD32VW55X_Wifi_BLE_SDK/GD32VW55x_RELEASE_V1.0.2/MSDK/wpa_supplicant/src/tls\tlsv1_client_ocsp.c **** 		wpa_printf(MSG_DEBUG, "OCSP: BITSTRING - %d unused bits", *pos);
 412:C:/Users/stapi/OneDrive/Desktop/GD32VW553/V1_MQTT_OK/GD32VW55X_Wifi_BLE_SDK/GD32VW55x_RELEASE_V1.0.2/MSDK/wpa_supplicant/src/tls\tlsv1_client_ocsp.c **** 		/* PKCS #1 v1.5 10.2.1:
 413:C:/Users/stapi/OneDrive/Desktop/GD32VW553/V1_MQTT_OK/GD32VW55X_Wifi_BLE_SDK/GD32VW55x_RELEASE_V1.0.2/MSDK/wpa_supplicant/src/tls\tlsv1_client_ocsp.c **** 		 * It is an error if the length in bits of the signature S is
 414:C:/Users/stapi/OneDrive/Desktop/GD32VW553/V1_MQTT_OK/GD32VW55X_Wifi_BLE_SDK/GD32VW55x_RELEASE_V1.0.2/MSDK/wpa_supplicant/src/tls\tlsv1_client_ocsp.c **** 		 * not a multiple of eight.
 415:C:/Users/stapi/OneDrive/Desktop/GD32VW553/V1_MQTT_OK/GD32VW55X_Wifi_BLE_SDK/GD32VW55x_RELEASE_V1.0.2/MSDK/wpa_supplicant/src/tls\tlsv1_client_ocsp.c **** 		 */
 416:C:/Users/stapi/OneDrive/Desktop/GD32VW553/V1_MQTT_OK/GD32VW55X_Wifi_BLE_SDK/GD32VW55x_RELEASE_V1.0.2/MSDK/wpa_supplicant/src/tls\tlsv1_client_ocsp.c **** 		return TLS_OCSP_INVALID;
 417:C:/Users/stapi/OneDrive/Desktop/GD32VW553/V1_MQTT_OK/GD32VW55X_Wifi_BLE_SDK/GD32VW55x_RELEASE_V1.0.2/MSDK/wpa_supplicant/src/tls\tlsv1_client_ocsp.c **** 	}
 418:C:/Users/stapi/OneDrive/Desktop/GD32VW553/V1_MQTT_OK/GD32VW55X_Wifi_BLE_SDK/GD32VW55x_RELEASE_V1.0.2/MSDK/wpa_supplicant/src/tls\tlsv1_client_ocsp.c **** 	sign_value = pos + 1;
 419:C:/Users/stapi/OneDrive/Desktop/GD32VW553/V1_MQTT_OK/GD32VW55X_Wifi_BLE_SDK/GD32VW55x_RELEASE_V1.0.2/MSDK/wpa_supplicant/src/tls\tlsv1_client_ocsp.c **** 	sign_value_len = hdr.length - 1;
 420:C:/Users/stapi/OneDrive/Desktop/GD32VW553/V1_MQTT_OK/GD32VW55X_Wifi_BLE_SDK/GD32VW55x_RELEASE_V1.0.2/MSDK/wpa_supplicant/src/tls\tlsv1_client_ocsp.c **** 	pos += hdr.length;
 421:C:/Users/stapi/OneDrive/Desktop/GD32VW553/V1_MQTT_OK/GD32VW55X_Wifi_BLE_SDK/GD32VW55x_RELEASE_V1.0.2/MSDK/wpa_supplicant/src/tls\tlsv1_client_ocsp.c **** 	wpa_hexdump(MSG_MSGDUMP, "OCSP: signature", sign_value, sign_value_len);
 422:C:/Users/stapi/OneDrive/Desktop/GD32VW553/V1_MQTT_OK/GD32VW55X_Wifi_BLE_SDK/GD32VW55x_RELEASE_V1.0.2/MSDK/wpa_supplicant/src/tls\tlsv1_client_ocsp.c **** 
 423:C:/Users/stapi/OneDrive/Desktop/GD32VW553/V1_MQTT_OK/GD32VW55X_Wifi_BLE_SDK/GD32VW55x_RELEASE_V1.0.2/MSDK/wpa_supplicant/src/tls\tlsv1_client_ocsp.c **** 	/* certs  [0] EXPLICIT SEQUENCE OF Certificate OPTIONAL */
 424:C:/Users/stapi/OneDrive/Desktop/GD32VW553/V1_MQTT_OK/GD32VW55X_Wifi_BLE_SDK/GD32VW55x_RELEASE_V1.0.2/MSDK/wpa_supplicant/src/tls\tlsv1_client_ocsp.c **** 	if (pos < end) {
 425:C:/Users/stapi/OneDrive/Desktop/GD32VW553/V1_MQTT_OK/GD32VW55X_Wifi_BLE_SDK/GD32VW55x_RELEASE_V1.0.2/MSDK/wpa_supplicant/src/tls\tlsv1_client_ocsp.c **** 		if (asn1_get_next(pos, end - pos, &hdr) < 0 ||
 426:C:/Users/stapi/OneDrive/Desktop/GD32VW553/V1_MQTT_OK/GD32VW55X_Wifi_BLE_SDK/GD32VW55x_RELEASE_V1.0.2/MSDK/wpa_supplicant/src/tls\tlsv1_client_ocsp.c **** 		    !hdr.constructed || !asn1_is_cs_tag(&hdr, 0)) {
 427:C:/Users/stapi/OneDrive/Desktop/GD32VW553/V1_MQTT_OK/GD32VW55X_Wifi_BLE_SDK/GD32VW55x_RELEASE_V1.0.2/MSDK/wpa_supplicant/src/tls\tlsv1_client_ocsp.c **** 			asn1_unexpected(&hdr,
 428:C:/Users/stapi/OneDrive/Desktop/GD32VW553/V1_MQTT_OK/GD32VW55X_Wifi_BLE_SDK/GD32VW55x_RELEASE_V1.0.2/MSDK/wpa_supplicant/src/tls\tlsv1_client_ocsp.c **** 					"OCSP: Expected [0] EXPLICIT (certs)");
 429:C:/Users/stapi/OneDrive/Desktop/GD32VW553/V1_MQTT_OK/GD32VW55X_Wifi_BLE_SDK/GD32VW55x_RELEASE_V1.0.2/MSDK/wpa_supplicant/src/tls\tlsv1_client_ocsp.c **** 			return TLS_OCSP_INVALID;
 430:C:/Users/stapi/OneDrive/Desktop/GD32VW553/V1_MQTT_OK/GD32VW55X_Wifi_BLE_SDK/GD32VW55x_RELEASE_V1.0.2/MSDK/wpa_supplicant/src/tls\tlsv1_client_ocsp.c **** 		}
 431:C:/Users/stapi/OneDrive/Desktop/GD32VW553/V1_MQTT_OK/GD32VW55X_Wifi_BLE_SDK/GD32VW55x_RELEASE_V1.0.2/MSDK/wpa_supplicant/src/tls\tlsv1_client_ocsp.c **** 		wpa_hexdump(MSG_MSGDUMP, "OCSP: certs",
 432:C:/Users/stapi/OneDrive/Desktop/GD32VW553/V1_MQTT_OK/GD32VW55X_Wifi_BLE_SDK/GD32VW55x_RELEASE_V1.0.2/MSDK/wpa_supplicant/src/tls\tlsv1_client_ocsp.c **** 			    hdr.payload, hdr.length);
 433:C:/Users/stapi/OneDrive/Desktop/GD32VW553/V1_MQTT_OK/GD32VW55X_Wifi_BLE_SDK/GD32VW55x_RELEASE_V1.0.2/MSDK/wpa_supplicant/src/tls\tlsv1_client_ocsp.c **** 		pos = hdr.payload;
 434:C:/Users/stapi/OneDrive/Desktop/GD32VW553/V1_MQTT_OK/GD32VW55X_Wifi_BLE_SDK/GD32VW55x_RELEASE_V1.0.2/MSDK/wpa_supplicant/src/tls\tlsv1_client_ocsp.c **** 		end = hdr.payload + hdr.length;
 435:C:/Users/stapi/OneDrive/Desktop/GD32VW553/V1_MQTT_OK/GD32VW55X_Wifi_BLE_SDK/GD32VW55x_RELEASE_V1.0.2/MSDK/wpa_supplicant/src/tls\tlsv1_client_ocsp.c **** 		while (pos < end) {
 436:C:/Users/stapi/OneDrive/Desktop/GD32VW553/V1_MQTT_OK/GD32VW55X_Wifi_BLE_SDK/GD32VW55x_RELEASE_V1.0.2/MSDK/wpa_supplicant/src/tls\tlsv1_client_ocsp.c **** 			struct x509_certificate *cert;
 437:C:/Users/stapi/OneDrive/Desktop/GD32VW553/V1_MQTT_OK/GD32VW55X_Wifi_BLE_SDK/GD32VW55x_RELEASE_V1.0.2/MSDK/wpa_supplicant/src/tls\tlsv1_client_ocsp.c **** 
 438:C:/Users/stapi/OneDrive/Desktop/GD32VW553/V1_MQTT_OK/GD32VW55X_Wifi_BLE_SDK/GD32VW55x_RELEASE_V1.0.2/MSDK/wpa_supplicant/src/tls\tlsv1_client_ocsp.c **** 			if (asn1_get_next(pos, end - pos, &hdr) < 0 ||
 439:C:/Users/stapi/OneDrive/Desktop/GD32VW553/V1_MQTT_OK/GD32VW55X_Wifi_BLE_SDK/GD32VW55x_RELEASE_V1.0.2/MSDK/wpa_supplicant/src/tls\tlsv1_client_ocsp.c **** 			    !asn1_is_sequence(&hdr)) {
 440:C:/Users/stapi/OneDrive/Desktop/GD32VW553/V1_MQTT_OK/GD32VW55X_Wifi_BLE_SDK/GD32VW55x_RELEASE_V1.0.2/MSDK/wpa_supplicant/src/tls\tlsv1_client_ocsp.c **** 				asn1_unexpected(&hdr,
 441:C:/Users/stapi/OneDrive/Desktop/GD32VW553/V1_MQTT_OK/GD32VW55X_Wifi_BLE_SDK/GD32VW55x_RELEASE_V1.0.2/MSDK/wpa_supplicant/src/tls\tlsv1_client_ocsp.c **** 						"OCSP: Expected SEQUENCE (Certificate)");
 442:C:/Users/stapi/OneDrive/Desktop/GD32VW553/V1_MQTT_OK/GD32VW55X_Wifi_BLE_SDK/GD32VW55x_RELEASE_V1.0.2/MSDK/wpa_supplicant/src/tls\tlsv1_client_ocsp.c **** 				goto fail;
 443:C:/Users/stapi/OneDrive/Desktop/GD32VW553/V1_MQTT_OK/GD32VW55X_Wifi_BLE_SDK/GD32VW55x_RELEASE_V1.0.2/MSDK/wpa_supplicant/src/tls\tlsv1_client_ocsp.c **** 			}
 444:C:/Users/stapi/OneDrive/Desktop/GD32VW553/V1_MQTT_OK/GD32VW55X_Wifi_BLE_SDK/GD32VW55x_RELEASE_V1.0.2/MSDK/wpa_supplicant/src/tls\tlsv1_client_ocsp.c **** 
 445:C:/Users/stapi/OneDrive/Desktop/GD32VW553/V1_MQTT_OK/GD32VW55X_Wifi_BLE_SDK/GD32VW55x_RELEASE_V1.0.2/MSDK/wpa_supplicant/src/tls\tlsv1_client_ocsp.c **** 			cert = x509_certificate_parse(hdr.payload, hdr.length);
 446:C:/Users/stapi/OneDrive/Desktop/GD32VW553/V1_MQTT_OK/GD32VW55X_Wifi_BLE_SDK/GD32VW55x_RELEASE_V1.0.2/MSDK/wpa_supplicant/src/tls\tlsv1_client_ocsp.c **** 			if (!cert)
 447:C:/Users/stapi/OneDrive/Desktop/GD32VW553/V1_MQTT_OK/GD32VW55X_Wifi_BLE_SDK/GD32VW55x_RELEASE_V1.0.2/MSDK/wpa_supplicant/src/tls\tlsv1_client_ocsp.c **** 				goto fail;
 448:C:/Users/stapi/OneDrive/Desktop/GD32VW553/V1_MQTT_OK/GD32VW55X_Wifi_BLE_SDK/GD32VW55x_RELEASE_V1.0.2/MSDK/wpa_supplicant/src/tls\tlsv1_client_ocsp.c **** 			if (last_cert) {
 449:C:/Users/stapi/OneDrive/Desktop/GD32VW553/V1_MQTT_OK/GD32VW55X_Wifi_BLE_SDK/GD32VW55x_RELEASE_V1.0.2/MSDK/wpa_supplicant/src/tls\tlsv1_client_ocsp.c **** 				last_cert->next = cert;
 450:C:/Users/stapi/OneDrive/Desktop/GD32VW553/V1_MQTT_OK/GD32VW55X_Wifi_BLE_SDK/GD32VW55x_RELEASE_V1.0.2/MSDK/wpa_supplicant/src/tls\tlsv1_client_ocsp.c **** 				last_cert = cert;
 451:C:/Users/stapi/OneDrive/Desktop/GD32VW553/V1_MQTT_OK/GD32VW55X_Wifi_BLE_SDK/GD32VW55x_RELEASE_V1.0.2/MSDK/wpa_supplicant/src/tls\tlsv1_client_ocsp.c **** 			} else {
 452:C:/Users/stapi/OneDrive/Desktop/GD32VW553/V1_MQTT_OK/GD32VW55X_Wifi_BLE_SDK/GD32VW55x_RELEASE_V1.0.2/MSDK/wpa_supplicant/src/tls\tlsv1_client_ocsp.c **** 				last_cert = certs = cert;
 453:C:/Users/stapi/OneDrive/Desktop/GD32VW553/V1_MQTT_OK/GD32VW55X_Wifi_BLE_SDK/GD32VW55x_RELEASE_V1.0.2/MSDK/wpa_supplicant/src/tls\tlsv1_client_ocsp.c **** 			}
 454:C:/Users/stapi/OneDrive/Desktop/GD32VW553/V1_MQTT_OK/GD32VW55X_Wifi_BLE_SDK/GD32VW55x_RELEASE_V1.0.2/MSDK/wpa_supplicant/src/tls\tlsv1_client_ocsp.c **** 			pos = hdr.payload + hdr.length;
 455:C:/Users/stapi/OneDrive/Desktop/GD32VW553/V1_MQTT_OK/GD32VW55X_Wifi_BLE_SDK/GD32VW55x_RELEASE_V1.0.2/MSDK/wpa_supplicant/src/tls\tlsv1_client_ocsp.c **** 		}
 456:C:/Users/stapi/OneDrive/Desktop/GD32VW553/V1_MQTT_OK/GD32VW55X_Wifi_BLE_SDK/GD32VW55x_RELEASE_V1.0.2/MSDK/wpa_supplicant/src/tls\tlsv1_client_ocsp.c **** 	}
 457:C:/Users/stapi/OneDrive/Desktop/GD32VW553/V1_MQTT_OK/GD32VW55X_Wifi_BLE_SDK/GD32VW55x_RELEASE_V1.0.2/MSDK/wpa_supplicant/src/tls\tlsv1_client_ocsp.c **** 
 458:C:/Users/stapi/OneDrive/Desktop/GD32VW553/V1_MQTT_OK/GD32VW55X_Wifi_BLE_SDK/GD32VW55x_RELEASE_V1.0.2/MSDK/wpa_supplicant/src/tls\tlsv1_client_ocsp.c **** 	/*
 459:C:/Users/stapi/OneDrive/Desktop/GD32VW553/V1_MQTT_OK/GD32VW55X_Wifi_BLE_SDK/GD32VW55x_RELEASE_V1.0.2/MSDK/wpa_supplicant/src/tls\tlsv1_client_ocsp.c **** 	 * ResponseData ::= SEQUENCE {
 460:C:/Users/stapi/OneDrive/Desktop/GD32VW553/V1_MQTT_OK/GD32VW55X_Wifi_BLE_SDK/GD32VW55x_RELEASE_V1.0.2/MSDK/wpa_supplicant/src/tls\tlsv1_client_ocsp.c **** 	 *    version              [0] EXPLICIT Version DEFAULT v1,
 461:C:/Users/stapi/OneDrive/Desktop/GD32VW553/V1_MQTT_OK/GD32VW55X_Wifi_BLE_SDK/GD32VW55x_RELEASE_V1.0.2/MSDK/wpa_supplicant/src/tls\tlsv1_client_ocsp.c **** 	 *    responderID              ResponderID,
 462:C:/Users/stapi/OneDrive/Desktop/GD32VW553/V1_MQTT_OK/GD32VW55X_Wifi_BLE_SDK/GD32VW55x_RELEASE_V1.0.2/MSDK/wpa_supplicant/src/tls\tlsv1_client_ocsp.c **** 	 *    producedAt               GeneralizedTime,
 463:C:/Users/stapi/OneDrive/Desktop/GD32VW553/V1_MQTT_OK/GD32VW55X_Wifi_BLE_SDK/GD32VW55x_RELEASE_V1.0.2/MSDK/wpa_supplicant/src/tls\tlsv1_client_ocsp.c **** 	 *    responses                SEQUENCE OF SingleResponse,
 464:C:/Users/stapi/OneDrive/Desktop/GD32VW553/V1_MQTT_OK/GD32VW55X_Wifi_BLE_SDK/GD32VW55x_RELEASE_V1.0.2/MSDK/wpa_supplicant/src/tls\tlsv1_client_ocsp.c **** 	 *    responseExtensions   [1] EXPLICIT Extensions OPTIONAL }
 465:C:/Users/stapi/OneDrive/Desktop/GD32VW553/V1_MQTT_OK/GD32VW55X_Wifi_BLE_SDK/GD32VW55x_RELEASE_V1.0.2/MSDK/wpa_supplicant/src/tls\tlsv1_client_ocsp.c **** 	 */
 466:C:/Users/stapi/OneDrive/Desktop/GD32VW553/V1_MQTT_OK/GD32VW55X_Wifi_BLE_SDK/GD32VW55x_RELEASE_V1.0.2/MSDK/wpa_supplicant/src/tls\tlsv1_client_ocsp.c **** 	pos = resp_data;
 467:C:/Users/stapi/OneDrive/Desktop/GD32VW553/V1_MQTT_OK/GD32VW55X_Wifi_BLE_SDK/GD32VW55x_RELEASE_V1.0.2/MSDK/wpa_supplicant/src/tls\tlsv1_client_ocsp.c **** 	end = resp_data + resp_data_len;
 468:C:/Users/stapi/OneDrive/Desktop/GD32VW553/V1_MQTT_OK/GD32VW55X_Wifi_BLE_SDK/GD32VW55x_RELEASE_V1.0.2/MSDK/wpa_supplicant/src/tls\tlsv1_client_ocsp.c **** 	wpa_hexdump(MSG_MSGDUMP, "OCSP: ResponseData", pos, end - pos);
 469:C:/Users/stapi/OneDrive/Desktop/GD32VW553/V1_MQTT_OK/GD32VW55X_Wifi_BLE_SDK/GD32VW55x_RELEASE_V1.0.2/MSDK/wpa_supplicant/src/tls\tlsv1_client_ocsp.c **** 
 470:C:/Users/stapi/OneDrive/Desktop/GD32VW553/V1_MQTT_OK/GD32VW55X_Wifi_BLE_SDK/GD32VW55x_RELEASE_V1.0.2/MSDK/wpa_supplicant/src/tls\tlsv1_client_ocsp.c **** 	/*
 471:C:/Users/stapi/OneDrive/Desktop/GD32VW553/V1_MQTT_OK/GD32VW55X_Wifi_BLE_SDK/GD32VW55x_RELEASE_V1.0.2/MSDK/wpa_supplicant/src/tls\tlsv1_client_ocsp.c **** 	 * version [0] EXPLICIT Version DEFAULT v1
 472:C:/Users/stapi/OneDrive/Desktop/GD32VW553/V1_MQTT_OK/GD32VW55X_Wifi_BLE_SDK/GD32VW55x_RELEASE_V1.0.2/MSDK/wpa_supplicant/src/tls\tlsv1_client_ocsp.c **** 	 * Version ::= INTEGER { v1(0) }
 473:C:/Users/stapi/OneDrive/Desktop/GD32VW553/V1_MQTT_OK/GD32VW55X_Wifi_BLE_SDK/GD32VW55x_RELEASE_V1.0.2/MSDK/wpa_supplicant/src/tls\tlsv1_client_ocsp.c **** 	 */
 474:C:/Users/stapi/OneDrive/Desktop/GD32VW553/V1_MQTT_OK/GD32VW55X_Wifi_BLE_SDK/GD32VW55x_RELEASE_V1.0.2/MSDK/wpa_supplicant/src/tls\tlsv1_client_ocsp.c **** 	if (asn1_get_next(pos, end - pos, &hdr) == 0 && hdr.constructed &&
 475:C:/Users/stapi/OneDrive/Desktop/GD32VW553/V1_MQTT_OK/GD32VW55X_Wifi_BLE_SDK/GD32VW55x_RELEASE_V1.0.2/MSDK/wpa_supplicant/src/tls\tlsv1_client_ocsp.c **** 	    asn1_is_cs_tag(&hdr, 0)) {
 476:C:/Users/stapi/OneDrive/Desktop/GD32VW553/V1_MQTT_OK/GD32VW55X_Wifi_BLE_SDK/GD32VW55x_RELEASE_V1.0.2/MSDK/wpa_supplicant/src/tls\tlsv1_client_ocsp.c **** 		if (asn1_get_next(pos, end - pos, &hdr) < 0 ||
 477:C:/Users/stapi/OneDrive/Desktop/GD32VW553/V1_MQTT_OK/GD32VW55X_Wifi_BLE_SDK/GD32VW55x_RELEASE_V1.0.2/MSDK/wpa_supplicant/src/tls\tlsv1_client_ocsp.c **** 		    !asn1_is_integer(&hdr) || hdr.length != 1) {
 478:C:/Users/stapi/OneDrive/Desktop/GD32VW553/V1_MQTT_OK/GD32VW55X_Wifi_BLE_SDK/GD32VW55x_RELEASE_V1.0.2/MSDK/wpa_supplicant/src/tls\tlsv1_client_ocsp.c **** 			asn1_unexpected(&hdr,
 479:C:/Users/stapi/OneDrive/Desktop/GD32VW553/V1_MQTT_OK/GD32VW55X_Wifi_BLE_SDK/GD32VW55x_RELEASE_V1.0.2/MSDK/wpa_supplicant/src/tls\tlsv1_client_ocsp.c **** 					"OCSP: No INTEGER (len=1) tag found for version field");
 480:C:/Users/stapi/OneDrive/Desktop/GD32VW553/V1_MQTT_OK/GD32VW55X_Wifi_BLE_SDK/GD32VW55x_RELEASE_V1.0.2/MSDK/wpa_supplicant/src/tls\tlsv1_client_ocsp.c **** 			goto fail;
 481:C:/Users/stapi/OneDrive/Desktop/GD32VW553/V1_MQTT_OK/GD32VW55X_Wifi_BLE_SDK/GD32VW55x_RELEASE_V1.0.2/MSDK/wpa_supplicant/src/tls\tlsv1_client_ocsp.c **** 		}
 482:C:/Users/stapi/OneDrive/Desktop/GD32VW553/V1_MQTT_OK/GD32VW55X_Wifi_BLE_SDK/GD32VW55x_RELEASE_V1.0.2/MSDK/wpa_supplicant/src/tls\tlsv1_client_ocsp.c **** 		wpa_printf(MSG_DEBUG, "OCSP: ResponseData version %u",
 483:C:/Users/stapi/OneDrive/Desktop/GD32VW553/V1_MQTT_OK/GD32VW55X_Wifi_BLE_SDK/GD32VW55x_RELEASE_V1.0.2/MSDK/wpa_supplicant/src/tls\tlsv1_client_ocsp.c **** 			   hdr.payload[0]);
 484:C:/Users/stapi/OneDrive/Desktop/GD32VW553/V1_MQTT_OK/GD32VW55X_Wifi_BLE_SDK/GD32VW55x_RELEASE_V1.0.2/MSDK/wpa_supplicant/src/tls\tlsv1_client_ocsp.c **** 		if (hdr.payload[0] != 0) {
 485:C:/Users/stapi/OneDrive/Desktop/GD32VW553/V1_MQTT_OK/GD32VW55X_Wifi_BLE_SDK/GD32VW55x_RELEASE_V1.0.2/MSDK/wpa_supplicant/src/tls\tlsv1_client_ocsp.c **** 			wpa_printf(MSG_DEBUG,
 486:C:/Users/stapi/OneDrive/Desktop/GD32VW553/V1_MQTT_OK/GD32VW55X_Wifi_BLE_SDK/GD32VW55x_RELEASE_V1.0.2/MSDK/wpa_supplicant/src/tls\tlsv1_client_ocsp.c **** 				   "OCSP: Unsupported ResponseData version %u",
 487:C:/Users/stapi/OneDrive/Desktop/GD32VW553/V1_MQTT_OK/GD32VW55X_Wifi_BLE_SDK/GD32VW55x_RELEASE_V1.0.2/MSDK/wpa_supplicant/src/tls\tlsv1_client_ocsp.c **** 				   hdr.payload[0]);
 488:C:/Users/stapi/OneDrive/Desktop/GD32VW553/V1_MQTT_OK/GD32VW55X_Wifi_BLE_SDK/GD32VW55x_RELEASE_V1.0.2/MSDK/wpa_supplicant/src/tls\tlsv1_client_ocsp.c **** 			goto no_resp;
 489:C:/Users/stapi/OneDrive/Desktop/GD32VW553/V1_MQTT_OK/GD32VW55X_Wifi_BLE_SDK/GD32VW55x_RELEASE_V1.0.2/MSDK/wpa_supplicant/src/tls\tlsv1_client_ocsp.c **** 		}
 490:C:/Users/stapi/OneDrive/Desktop/GD32VW553/V1_MQTT_OK/GD32VW55X_Wifi_BLE_SDK/GD32VW55x_RELEASE_V1.0.2/MSDK/wpa_supplicant/src/tls\tlsv1_client_ocsp.c **** 		pos = hdr.payload + hdr.length;
 491:C:/Users/stapi/OneDrive/Desktop/GD32VW553/V1_MQTT_OK/GD32VW55X_Wifi_BLE_SDK/GD32VW55x_RELEASE_V1.0.2/MSDK/wpa_supplicant/src/tls\tlsv1_client_ocsp.c **** 	} else {
 492:C:/Users/stapi/OneDrive/Desktop/GD32VW553/V1_MQTT_OK/GD32VW55X_Wifi_BLE_SDK/GD32VW55x_RELEASE_V1.0.2/MSDK/wpa_supplicant/src/tls\tlsv1_client_ocsp.c **** 		wpa_printf(MSG_DEBUG,
 493:C:/Users/stapi/OneDrive/Desktop/GD32VW553/V1_MQTT_OK/GD32VW55X_Wifi_BLE_SDK/GD32VW55x_RELEASE_V1.0.2/MSDK/wpa_supplicant/src/tls\tlsv1_client_ocsp.c **** 			   "OCSP: Default ResponseData version (v1)");
 494:C:/Users/stapi/OneDrive/Desktop/GD32VW553/V1_MQTT_OK/GD32VW55X_Wifi_BLE_SDK/GD32VW55x_RELEASE_V1.0.2/MSDK/wpa_supplicant/src/tls\tlsv1_client_ocsp.c **** 	}
 495:C:/Users/stapi/OneDrive/Desktop/GD32VW553/V1_MQTT_OK/GD32VW55X_Wifi_BLE_SDK/GD32VW55x_RELEASE_V1.0.2/MSDK/wpa_supplicant/src/tls\tlsv1_client_ocsp.c **** 
 496:C:/Users/stapi/OneDrive/Desktop/GD32VW553/V1_MQTT_OK/GD32VW55X_Wifi_BLE_SDK/GD32VW55x_RELEASE_V1.0.2/MSDK/wpa_supplicant/src/tls\tlsv1_client_ocsp.c **** 	/*
 497:C:/Users/stapi/OneDrive/Desktop/GD32VW553/V1_MQTT_OK/GD32VW55X_Wifi_BLE_SDK/GD32VW55x_RELEASE_V1.0.2/MSDK/wpa_supplicant/src/tls\tlsv1_client_ocsp.c **** 	 * ResponderID ::= CHOICE {
 498:C:/Users/stapi/OneDrive/Desktop/GD32VW553/V1_MQTT_OK/GD32VW55X_Wifi_BLE_SDK/GD32VW55x_RELEASE_V1.0.2/MSDK/wpa_supplicant/src/tls\tlsv1_client_ocsp.c **** 	 *    byName              [1] Name,
 499:C:/Users/stapi/OneDrive/Desktop/GD32VW553/V1_MQTT_OK/GD32VW55X_Wifi_BLE_SDK/GD32VW55x_RELEASE_V1.0.2/MSDK/wpa_supplicant/src/tls\tlsv1_client_ocsp.c **** 	 *    byKey               [2] KeyHash }
 500:C:/Users/stapi/OneDrive/Desktop/GD32VW553/V1_MQTT_OK/GD32VW55X_Wifi_BLE_SDK/GD32VW55x_RELEASE_V1.0.2/MSDK/wpa_supplicant/src/tls\tlsv1_client_ocsp.c **** 	 */
 501:C:/Users/stapi/OneDrive/Desktop/GD32VW553/V1_MQTT_OK/GD32VW55X_Wifi_BLE_SDK/GD32VW55x_RELEASE_V1.0.2/MSDK/wpa_supplicant/src/tls\tlsv1_client_ocsp.c **** 	if (asn1_get_next(pos, end - pos, &hdr) < 0 ||
 502:C:/Users/stapi/OneDrive/Desktop/GD32VW553/V1_MQTT_OK/GD32VW55X_Wifi_BLE_SDK/GD32VW55x_RELEASE_V1.0.2/MSDK/wpa_supplicant/src/tls\tlsv1_client_ocsp.c **** 	    hdr.class != ASN1_CLASS_CONTEXT_SPECIFIC) {
 503:C:/Users/stapi/OneDrive/Desktop/GD32VW553/V1_MQTT_OK/GD32VW55X_Wifi_BLE_SDK/GD32VW55x_RELEASE_V1.0.2/MSDK/wpa_supplicant/src/tls\tlsv1_client_ocsp.c **** 		asn1_unexpected(&hdr, "OCSP: Expected CHOICE (ResponderID)");
 504:C:/Users/stapi/OneDrive/Desktop/GD32VW553/V1_MQTT_OK/GD32VW55X_Wifi_BLE_SDK/GD32VW55x_RELEASE_V1.0.2/MSDK/wpa_supplicant/src/tls\tlsv1_client_ocsp.c **** 		goto fail;
 505:C:/Users/stapi/OneDrive/Desktop/GD32VW553/V1_MQTT_OK/GD32VW55X_Wifi_BLE_SDK/GD32VW55x_RELEASE_V1.0.2/MSDK/wpa_supplicant/src/tls\tlsv1_client_ocsp.c **** 	}
 506:C:/Users/stapi/OneDrive/Desktop/GD32VW553/V1_MQTT_OK/GD32VW55X_Wifi_BLE_SDK/GD32VW55x_RELEASE_V1.0.2/MSDK/wpa_supplicant/src/tls\tlsv1_client_ocsp.c **** 
 507:C:/Users/stapi/OneDrive/Desktop/GD32VW553/V1_MQTT_OK/GD32VW55X_Wifi_BLE_SDK/GD32VW55x_RELEASE_V1.0.2/MSDK/wpa_supplicant/src/tls\tlsv1_client_ocsp.c **** 	if (hdr.tag == 1) {
 508:C:/Users/stapi/OneDrive/Desktop/GD32VW553/V1_MQTT_OK/GD32VW55X_Wifi_BLE_SDK/GD32VW55x_RELEASE_V1.0.2/MSDK/wpa_supplicant/src/tls\tlsv1_client_ocsp.c **** 		/* Name */
 509:C:/Users/stapi/OneDrive/Desktop/GD32VW553/V1_MQTT_OK/GD32VW55X_Wifi_BLE_SDK/GD32VW55x_RELEASE_V1.0.2/MSDK/wpa_supplicant/src/tls\tlsv1_client_ocsp.c **** 		if (x509_parse_name(hdr.payload, hdr.length, &name, &pos) < 0)
 510:C:/Users/stapi/OneDrive/Desktop/GD32VW553/V1_MQTT_OK/GD32VW55X_Wifi_BLE_SDK/GD32VW55x_RELEASE_V1.0.2/MSDK/wpa_supplicant/src/tls\tlsv1_client_ocsp.c **** 			goto fail;
 511:C:/Users/stapi/OneDrive/Desktop/GD32VW553/V1_MQTT_OK/GD32VW55X_Wifi_BLE_SDK/GD32VW55x_RELEASE_V1.0.2/MSDK/wpa_supplicant/src/tls\tlsv1_client_ocsp.c **** 		x509_name_string(&name, buf, sizeof(buf));
 512:C:/Users/stapi/OneDrive/Desktop/GD32VW553/V1_MQTT_OK/GD32VW55X_Wifi_BLE_SDK/GD32VW55x_RELEASE_V1.0.2/MSDK/wpa_supplicant/src/tls\tlsv1_client_ocsp.c **** 		wpa_printf(MSG_DEBUG, "OCSP: ResponderID byName Name: %s", buf);
 513:C:/Users/stapi/OneDrive/Desktop/GD32VW553/V1_MQTT_OK/GD32VW55X_Wifi_BLE_SDK/GD32VW55x_RELEASE_V1.0.2/MSDK/wpa_supplicant/src/tls\tlsv1_client_ocsp.c **** 	} else if (hdr.tag == 2) {
 514:C:/Users/stapi/OneDrive/Desktop/GD32VW553/V1_MQTT_OK/GD32VW55X_Wifi_BLE_SDK/GD32VW55x_RELEASE_V1.0.2/MSDK/wpa_supplicant/src/tls\tlsv1_client_ocsp.c **** 		/* KeyHash ::= OCTET STRING */
 515:C:/Users/stapi/OneDrive/Desktop/GD32VW553/V1_MQTT_OK/GD32VW55X_Wifi_BLE_SDK/GD32VW55x_RELEASE_V1.0.2/MSDK/wpa_supplicant/src/tls\tlsv1_client_ocsp.c **** 		if (asn1_get_next(hdr.payload, hdr.length, &hdr) < 0 ||
 516:C:/Users/stapi/OneDrive/Desktop/GD32VW553/V1_MQTT_OK/GD32VW55X_Wifi_BLE_SDK/GD32VW55x_RELEASE_V1.0.2/MSDK/wpa_supplicant/src/tls\tlsv1_client_ocsp.c **** 		    !asn1_is_octetstring(&hdr)) {
 517:C:/Users/stapi/OneDrive/Desktop/GD32VW553/V1_MQTT_OK/GD32VW55X_Wifi_BLE_SDK/GD32VW55x_RELEASE_V1.0.2/MSDK/wpa_supplicant/src/tls\tlsv1_client_ocsp.c **** 			asn1_unexpected(&hdr,
 518:C:/Users/stapi/OneDrive/Desktop/GD32VW553/V1_MQTT_OK/GD32VW55X_Wifi_BLE_SDK/GD32VW55x_RELEASE_V1.0.2/MSDK/wpa_supplicant/src/tls\tlsv1_client_ocsp.c **** 					"OCSP: Expected OCTET STRING (KeyHash)");
 519:C:/Users/stapi/OneDrive/Desktop/GD32VW553/V1_MQTT_OK/GD32VW55X_Wifi_BLE_SDK/GD32VW55x_RELEASE_V1.0.2/MSDK/wpa_supplicant/src/tls\tlsv1_client_ocsp.c **** 			goto fail;
 520:C:/Users/stapi/OneDrive/Desktop/GD32VW553/V1_MQTT_OK/GD32VW55X_Wifi_BLE_SDK/GD32VW55x_RELEASE_V1.0.2/MSDK/wpa_supplicant/src/tls\tlsv1_client_ocsp.c **** 		}
 521:C:/Users/stapi/OneDrive/Desktop/GD32VW553/V1_MQTT_OK/GD32VW55X_Wifi_BLE_SDK/GD32VW55x_RELEASE_V1.0.2/MSDK/wpa_supplicant/src/tls\tlsv1_client_ocsp.c **** 		key_hash = hdr.payload;
 522:C:/Users/stapi/OneDrive/Desktop/GD32VW553/V1_MQTT_OK/GD32VW55X_Wifi_BLE_SDK/GD32VW55x_RELEASE_V1.0.2/MSDK/wpa_supplicant/src/tls\tlsv1_client_ocsp.c **** 		wpa_hexdump(MSG_DEBUG, "OCSP: ResponderID byKey KeyHash",
 523:C:/Users/stapi/OneDrive/Desktop/GD32VW553/V1_MQTT_OK/GD32VW55X_Wifi_BLE_SDK/GD32VW55x_RELEASE_V1.0.2/MSDK/wpa_supplicant/src/tls\tlsv1_client_ocsp.c **** 			    key_hash, hdr.length);
 524:C:/Users/stapi/OneDrive/Desktop/GD32VW553/V1_MQTT_OK/GD32VW55X_Wifi_BLE_SDK/GD32VW55x_RELEASE_V1.0.2/MSDK/wpa_supplicant/src/tls\tlsv1_client_ocsp.c **** 		if (hdr.length != SHA1_MAC_LEN) {
 525:C:/Users/stapi/OneDrive/Desktop/GD32VW553/V1_MQTT_OK/GD32VW55X_Wifi_BLE_SDK/GD32VW55x_RELEASE_V1.0.2/MSDK/wpa_supplicant/src/tls\tlsv1_client_ocsp.c **** 			wpa_printf(MSG_DEBUG,
 526:C:/Users/stapi/OneDrive/Desktop/GD32VW553/V1_MQTT_OK/GD32VW55X_Wifi_BLE_SDK/GD32VW55x_RELEASE_V1.0.2/MSDK/wpa_supplicant/src/tls\tlsv1_client_ocsp.c **** 				   "OCSP: Unexpected byKey KeyHash length %u - expected %u for SHA-1",
 527:C:/Users/stapi/OneDrive/Desktop/GD32VW553/V1_MQTT_OK/GD32VW55X_Wifi_BLE_SDK/GD32VW55x_RELEASE_V1.0.2/MSDK/wpa_supplicant/src/tls\tlsv1_client_ocsp.c **** 				   hdr.length, SHA1_MAC_LEN);
 528:C:/Users/stapi/OneDrive/Desktop/GD32VW553/V1_MQTT_OK/GD32VW55X_Wifi_BLE_SDK/GD32VW55x_RELEASE_V1.0.2/MSDK/wpa_supplicant/src/tls\tlsv1_client_ocsp.c **** 			goto fail;
 529:C:/Users/stapi/OneDrive/Desktop/GD32VW553/V1_MQTT_OK/GD32VW55X_Wifi_BLE_SDK/GD32VW55x_RELEASE_V1.0.2/MSDK/wpa_supplicant/src/tls\tlsv1_client_ocsp.c **** 		}
 530:C:/Users/stapi/OneDrive/Desktop/GD32VW553/V1_MQTT_OK/GD32VW55X_Wifi_BLE_SDK/GD32VW55x_RELEASE_V1.0.2/MSDK/wpa_supplicant/src/tls\tlsv1_client_ocsp.c **** 		pos = hdr.payload + hdr.length;
 531:C:/Users/stapi/OneDrive/Desktop/GD32VW553/V1_MQTT_OK/GD32VW55X_Wifi_BLE_SDK/GD32VW55x_RELEASE_V1.0.2/MSDK/wpa_supplicant/src/tls\tlsv1_client_ocsp.c **** 	} else {
 532:C:/Users/stapi/OneDrive/Desktop/GD32VW553/V1_MQTT_OK/GD32VW55X_Wifi_BLE_SDK/GD32VW55x_RELEASE_V1.0.2/MSDK/wpa_supplicant/src/tls\tlsv1_client_ocsp.c **** 		wpa_printf(MSG_DEBUG, "OCSP: Unexpected ResponderID CHOICE %u",
 533:C:/Users/stapi/OneDrive/Desktop/GD32VW553/V1_MQTT_OK/GD32VW55X_Wifi_BLE_SDK/GD32VW55x_RELEASE_V1.0.2/MSDK/wpa_supplicant/src/tls\tlsv1_client_ocsp.c **** 			   hdr.tag);
 534:C:/Users/stapi/OneDrive/Desktop/GD32VW553/V1_MQTT_OK/GD32VW55X_Wifi_BLE_SDK/GD32VW55x_RELEASE_V1.0.2/MSDK/wpa_supplicant/src/tls\tlsv1_client_ocsp.c **** 		goto fail;
 535:C:/Users/stapi/OneDrive/Desktop/GD32VW553/V1_MQTT_OK/GD32VW55X_Wifi_BLE_SDK/GD32VW55x_RELEASE_V1.0.2/MSDK/wpa_supplicant/src/tls\tlsv1_client_ocsp.c **** 	}
 536:C:/Users/stapi/OneDrive/Desktop/GD32VW553/V1_MQTT_OK/GD32VW55X_Wifi_BLE_SDK/GD32VW55x_RELEASE_V1.0.2/MSDK/wpa_supplicant/src/tls\tlsv1_client_ocsp.c **** 
 537:C:/Users/stapi/OneDrive/Desktop/GD32VW553/V1_MQTT_OK/GD32VW55X_Wifi_BLE_SDK/GD32VW55x_RELEASE_V1.0.2/MSDK/wpa_supplicant/src/tls\tlsv1_client_ocsp.c **** 	/* producedAt  GeneralizedTime */
 538:C:/Users/stapi/OneDrive/Desktop/GD32VW553/V1_MQTT_OK/GD32VW55X_Wifi_BLE_SDK/GD32VW55x_RELEASE_V1.0.2/MSDK/wpa_supplicant/src/tls\tlsv1_client_ocsp.c **** 	if (asn1_get_next(pos, end - pos, &hdr) < 0 ||
 539:C:/Users/stapi/OneDrive/Desktop/GD32VW553/V1_MQTT_OK/GD32VW55X_Wifi_BLE_SDK/GD32VW55x_RELEASE_V1.0.2/MSDK/wpa_supplicant/src/tls\tlsv1_client_ocsp.c **** 	    !asn1_is_generalizedtime(&hdr) ||
 540:C:/Users/stapi/OneDrive/Desktop/GD32VW553/V1_MQTT_OK/GD32VW55X_Wifi_BLE_SDK/GD32VW55x_RELEASE_V1.0.2/MSDK/wpa_supplicant/src/tls\tlsv1_client_ocsp.c **** 	    x509_parse_time(hdr.payload, hdr.length, hdr.tag,
 541:C:/Users/stapi/OneDrive/Desktop/GD32VW553/V1_MQTT_OK/GD32VW55X_Wifi_BLE_SDK/GD32VW55x_RELEASE_V1.0.2/MSDK/wpa_supplicant/src/tls\tlsv1_client_ocsp.c **** 			    &produced_at) < 0) {
 542:C:/Users/stapi/OneDrive/Desktop/GD32VW553/V1_MQTT_OK/GD32VW55X_Wifi_BLE_SDK/GD32VW55x_RELEASE_V1.0.2/MSDK/wpa_supplicant/src/tls\tlsv1_client_ocsp.c **** 		wpa_printf(MSG_DEBUG, "OCSP: Failed to parse producedAt");
 543:C:/Users/stapi/OneDrive/Desktop/GD32VW553/V1_MQTT_OK/GD32VW55X_Wifi_BLE_SDK/GD32VW55x_RELEASE_V1.0.2/MSDK/wpa_supplicant/src/tls\tlsv1_client_ocsp.c **** 		goto fail;
 544:C:/Users/stapi/OneDrive/Desktop/GD32VW553/V1_MQTT_OK/GD32VW55X_Wifi_BLE_SDK/GD32VW55x_RELEASE_V1.0.2/MSDK/wpa_supplicant/src/tls\tlsv1_client_ocsp.c **** 	}
 545:C:/Users/stapi/OneDrive/Desktop/GD32VW553/V1_MQTT_OK/GD32VW55X_Wifi_BLE_SDK/GD32VW55x_RELEASE_V1.0.2/MSDK/wpa_supplicant/src/tls\tlsv1_client_ocsp.c **** 	wpa_printf(MSG_DEBUG, "OCSP: producedAt %lu",
 546:C:/Users/stapi/OneDrive/Desktop/GD32VW553/V1_MQTT_OK/GD32VW55X_Wifi_BLE_SDK/GD32VW55x_RELEASE_V1.0.2/MSDK/wpa_supplicant/src/tls\tlsv1_client_ocsp.c **** 		   (unsigned long) produced_at);
 547:C:/Users/stapi/OneDrive/Desktop/GD32VW553/V1_MQTT_OK/GD32VW55X_Wifi_BLE_SDK/GD32VW55x_RELEASE_V1.0.2/MSDK/wpa_supplicant/src/tls\tlsv1_client_ocsp.c **** 	pos = hdr.payload + hdr.length;
 548:C:/Users/stapi/OneDrive/Desktop/GD32VW553/V1_MQTT_OK/GD32VW55X_Wifi_BLE_SDK/GD32VW55x_RELEASE_V1.0.2/MSDK/wpa_supplicant/src/tls\tlsv1_client_ocsp.c **** 
 549:C:/Users/stapi/OneDrive/Desktop/GD32VW553/V1_MQTT_OK/GD32VW55X_Wifi_BLE_SDK/GD32VW55x_RELEASE_V1.0.2/MSDK/wpa_supplicant/src/tls\tlsv1_client_ocsp.c **** 	/* responses  SEQUENCE OF SingleResponse */
 550:C:/Users/stapi/OneDrive/Desktop/GD32VW553/V1_MQTT_OK/GD32VW55X_Wifi_BLE_SDK/GD32VW55x_RELEASE_V1.0.2/MSDK/wpa_supplicant/src/tls\tlsv1_client_ocsp.c **** 	if (asn1_get_next(pos, end - pos, &hdr) < 0 ||
 551:C:/Users/stapi/OneDrive/Desktop/GD32VW553/V1_MQTT_OK/GD32VW55X_Wifi_BLE_SDK/GD32VW55x_RELEASE_V1.0.2/MSDK/wpa_supplicant/src/tls\tlsv1_client_ocsp.c **** 	    !asn1_is_sequence(&hdr)) {
 552:C:/Users/stapi/OneDrive/Desktop/GD32VW553/V1_MQTT_OK/GD32VW55X_Wifi_BLE_SDK/GD32VW55x_RELEASE_V1.0.2/MSDK/wpa_supplicant/src/tls\tlsv1_client_ocsp.c **** 		asn1_unexpected(&hdr,
 553:C:/Users/stapi/OneDrive/Desktop/GD32VW553/V1_MQTT_OK/GD32VW55X_Wifi_BLE_SDK/GD32VW55x_RELEASE_V1.0.2/MSDK/wpa_supplicant/src/tls\tlsv1_client_ocsp.c **** 				"OCSP: Expected SEQUENCE (responses)");
 554:C:/Users/stapi/OneDrive/Desktop/GD32VW553/V1_MQTT_OK/GD32VW55X_Wifi_BLE_SDK/GD32VW55x_RELEASE_V1.0.2/MSDK/wpa_supplicant/src/tls\tlsv1_client_ocsp.c **** 		goto fail;
 555:C:/Users/stapi/OneDrive/Desktop/GD32VW553/V1_MQTT_OK/GD32VW55X_Wifi_BLE_SDK/GD32VW55x_RELEASE_V1.0.2/MSDK/wpa_supplicant/src/tls\tlsv1_client_ocsp.c **** 	}
 556:C:/Users/stapi/OneDrive/Desktop/GD32VW553/V1_MQTT_OK/GD32VW55X_Wifi_BLE_SDK/GD32VW55x_RELEASE_V1.0.2/MSDK/wpa_supplicant/src/tls\tlsv1_client_ocsp.c **** 	responses = hdr.payload;
 557:C:/Users/stapi/OneDrive/Desktop/GD32VW553/V1_MQTT_OK/GD32VW55X_Wifi_BLE_SDK/GD32VW55x_RELEASE_V1.0.2/MSDK/wpa_supplicant/src/tls\tlsv1_client_ocsp.c **** 	responses_len = hdr.length;
 558:C:/Users/stapi/OneDrive/Desktop/GD32VW553/V1_MQTT_OK/GD32VW55X_Wifi_BLE_SDK/GD32VW55x_RELEASE_V1.0.2/MSDK/wpa_supplicant/src/tls\tlsv1_client_ocsp.c **** 	wpa_hexdump(MSG_MSGDUMP, "OCSP: responses", responses, responses_len);
 559:C:/Users/stapi/OneDrive/Desktop/GD32VW553/V1_MQTT_OK/GD32VW55X_Wifi_BLE_SDK/GD32VW55x_RELEASE_V1.0.2/MSDK/wpa_supplicant/src/tls\tlsv1_client_ocsp.c **** 	pos = hdr.payload + hdr.length;
 560:C:/Users/stapi/OneDrive/Desktop/GD32VW553/V1_MQTT_OK/GD32VW55X_Wifi_BLE_SDK/GD32VW55x_RELEASE_V1.0.2/MSDK/wpa_supplicant/src/tls\tlsv1_client_ocsp.c **** 
 561:C:/Users/stapi/OneDrive/Desktop/GD32VW553/V1_MQTT_OK/GD32VW55X_Wifi_BLE_SDK/GD32VW55x_RELEASE_V1.0.2/MSDK/wpa_supplicant/src/tls\tlsv1_client_ocsp.c **** 	if (pos < end) {
 562:C:/Users/stapi/OneDrive/Desktop/GD32VW553/V1_MQTT_OK/GD32VW55X_Wifi_BLE_SDK/GD32VW55x_RELEASE_V1.0.2/MSDK/wpa_supplicant/src/tls\tlsv1_client_ocsp.c **** 		/* responseExtensions  [1] EXPLICIT Extensions OPTIONAL */
 563:C:/Users/stapi/OneDrive/Desktop/GD32VW553/V1_MQTT_OK/GD32VW55X_Wifi_BLE_SDK/GD32VW55x_RELEASE_V1.0.2/MSDK/wpa_supplicant/src/tls\tlsv1_client_ocsp.c **** 		wpa_hexdump(MSG_MSGDUMP, "OCSP: responseExtensions",
 564:C:/Users/stapi/OneDrive/Desktop/GD32VW553/V1_MQTT_OK/GD32VW55X_Wifi_BLE_SDK/GD32VW55x_RELEASE_V1.0.2/MSDK/wpa_supplicant/src/tls\tlsv1_client_ocsp.c **** 			    pos, end - pos);
 565:C:/Users/stapi/OneDrive/Desktop/GD32VW553/V1_MQTT_OK/GD32VW55X_Wifi_BLE_SDK/GD32VW55x_RELEASE_V1.0.2/MSDK/wpa_supplicant/src/tls\tlsv1_client_ocsp.c **** 		/* Ignore for now. */
 566:C:/Users/stapi/OneDrive/Desktop/GD32VW553/V1_MQTT_OK/GD32VW55X_Wifi_BLE_SDK/GD32VW55x_RELEASE_V1.0.2/MSDK/wpa_supplicant/src/tls\tlsv1_client_ocsp.c **** 	}
 567:C:/Users/stapi/OneDrive/Desktop/GD32VW553/V1_MQTT_OK/GD32VW55X_Wifi_BLE_SDK/GD32VW55x_RELEASE_V1.0.2/MSDK/wpa_supplicant/src/tls\tlsv1_client_ocsp.c **** 
 568:C:/Users/stapi/OneDrive/Desktop/GD32VW553/V1_MQTT_OK/GD32VW55X_Wifi_BLE_SDK/GD32VW55x_RELEASE_V1.0.2/MSDK/wpa_supplicant/src/tls\tlsv1_client_ocsp.c **** 	if (!srv_cert) {
 569:C:/Users/stapi/OneDrive/Desktop/GD32VW553/V1_MQTT_OK/GD32VW55X_Wifi_BLE_SDK/GD32VW55x_RELEASE_V1.0.2/MSDK/wpa_supplicant/src/tls\tlsv1_client_ocsp.c **** 		wpa_printf(MSG_DEBUG,
 570:C:/Users/stapi/OneDrive/Desktop/GD32VW553/V1_MQTT_OK/GD32VW55X_Wifi_BLE_SDK/GD32VW55x_RELEASE_V1.0.2/MSDK/wpa_supplicant/src/tls\tlsv1_client_ocsp.c **** 			   "OCSP: Server certificate not known - cannot check OCSP response");
 571:C:/Users/stapi/OneDrive/Desktop/GD32VW553/V1_MQTT_OK/GD32VW55X_Wifi_BLE_SDK/GD32VW55x_RELEASE_V1.0.2/MSDK/wpa_supplicant/src/tls\tlsv1_client_ocsp.c **** 		goto no_resp;
 572:C:/Users/stapi/OneDrive/Desktop/GD32VW553/V1_MQTT_OK/GD32VW55X_Wifi_BLE_SDK/GD32VW55x_RELEASE_V1.0.2/MSDK/wpa_supplicant/src/tls\tlsv1_client_ocsp.c **** 	}
 573:C:/Users/stapi/OneDrive/Desktop/GD32VW553/V1_MQTT_OK/GD32VW55X_Wifi_BLE_SDK/GD32VW55x_RELEASE_V1.0.2/MSDK/wpa_supplicant/src/tls\tlsv1_client_ocsp.c **** 
 574:C:/Users/stapi/OneDrive/Desktop/GD32VW553/V1_MQTT_OK/GD32VW55X_Wifi_BLE_SDK/GD32VW55x_RELEASE_V1.0.2/MSDK/wpa_supplicant/src/tls\tlsv1_client_ocsp.c **** 	if (srv_cert->next) {
 575:C:/Users/stapi/OneDrive/Desktop/GD32VW553/V1_MQTT_OK/GD32VW55X_Wifi_BLE_SDK/GD32VW55x_RELEASE_V1.0.2/MSDK/wpa_supplicant/src/tls\tlsv1_client_ocsp.c **** 		/* Issuer has already been verified in the chain */
 576:C:/Users/stapi/OneDrive/Desktop/GD32VW553/V1_MQTT_OK/GD32VW55X_Wifi_BLE_SDK/GD32VW55x_RELEASE_V1.0.2/MSDK/wpa_supplicant/src/tls\tlsv1_client_ocsp.c **** 		issuer = srv_cert->next;
 577:C:/Users/stapi/OneDrive/Desktop/GD32VW553/V1_MQTT_OK/GD32VW55X_Wifi_BLE_SDK/GD32VW55x_RELEASE_V1.0.2/MSDK/wpa_supplicant/src/tls\tlsv1_client_ocsp.c **** 	} else {
 578:C:/Users/stapi/OneDrive/Desktop/GD32VW553/V1_MQTT_OK/GD32VW55X_Wifi_BLE_SDK/GD32VW55x_RELEASE_V1.0.2/MSDK/wpa_supplicant/src/tls\tlsv1_client_ocsp.c **** 		/* Find issuer from the set of trusted certificates */
 579:C:/Users/stapi/OneDrive/Desktop/GD32VW553/V1_MQTT_OK/GD32VW55X_Wifi_BLE_SDK/GD32VW55x_RELEASE_V1.0.2/MSDK/wpa_supplicant/src/tls\tlsv1_client_ocsp.c **** 		for (issuer = conn->cred ? conn->cred->trusted_certs : NULL;
 580:C:/Users/stapi/OneDrive/Desktop/GD32VW553/V1_MQTT_OK/GD32VW55X_Wifi_BLE_SDK/GD32VW55x_RELEASE_V1.0.2/MSDK/wpa_supplicant/src/tls\tlsv1_client_ocsp.c **** 		     issuer; issuer = issuer->next) {
 581:C:/Users/stapi/OneDrive/Desktop/GD32VW553/V1_MQTT_OK/GD32VW55X_Wifi_BLE_SDK/GD32VW55x_RELEASE_V1.0.2/MSDK/wpa_supplicant/src/tls\tlsv1_client_ocsp.c **** 			if (x509_name_compare(&srv_cert->issuer,
 582:C:/Users/stapi/OneDrive/Desktop/GD32VW553/V1_MQTT_OK/GD32VW55X_Wifi_BLE_SDK/GD32VW55x_RELEASE_V1.0.2/MSDK/wpa_supplicant/src/tls\tlsv1_client_ocsp.c **** 					      &issuer->subject) == 0)
 583:C:/Users/stapi/OneDrive/Desktop/GD32VW553/V1_MQTT_OK/GD32VW55X_Wifi_BLE_SDK/GD32VW55x_RELEASE_V1.0.2/MSDK/wpa_supplicant/src/tls\tlsv1_client_ocsp.c **** 				break;
 584:C:/Users/stapi/OneDrive/Desktop/GD32VW553/V1_MQTT_OK/GD32VW55X_Wifi_BLE_SDK/GD32VW55x_RELEASE_V1.0.2/MSDK/wpa_supplicant/src/tls\tlsv1_client_ocsp.c **** 		}
 585:C:/Users/stapi/OneDrive/Desktop/GD32VW553/V1_MQTT_OK/GD32VW55X_Wifi_BLE_SDK/GD32VW55x_RELEASE_V1.0.2/MSDK/wpa_supplicant/src/tls\tlsv1_client_ocsp.c **** 	}
 586:C:/Users/stapi/OneDrive/Desktop/GD32VW553/V1_MQTT_OK/GD32VW55X_Wifi_BLE_SDK/GD32VW55x_RELEASE_V1.0.2/MSDK/wpa_supplicant/src/tls\tlsv1_client_ocsp.c **** 	if (!issuer) {
 587:C:/Users/stapi/OneDrive/Desktop/GD32VW553/V1_MQTT_OK/GD32VW55X_Wifi_BLE_SDK/GD32VW55x_RELEASE_V1.0.2/MSDK/wpa_supplicant/src/tls\tlsv1_client_ocsp.c **** 		wpa_printf(MSG_DEBUG,
 588:C:/Users/stapi/OneDrive/Desktop/GD32VW553/V1_MQTT_OK/GD32VW55X_Wifi_BLE_SDK/GD32VW55x_RELEASE_V1.0.2/MSDK/wpa_supplicant/src/tls\tlsv1_client_ocsp.c **** 			   "OCSP: Server certificate issuer not known - cannot check OCSP response");
 589:C:/Users/stapi/OneDrive/Desktop/GD32VW553/V1_MQTT_OK/GD32VW55X_Wifi_BLE_SDK/GD32VW55x_RELEASE_V1.0.2/MSDK/wpa_supplicant/src/tls\tlsv1_client_ocsp.c **** 		goto no_resp;
 590:C:/Users/stapi/OneDrive/Desktop/GD32VW553/V1_MQTT_OK/GD32VW55X_Wifi_BLE_SDK/GD32VW55x_RELEASE_V1.0.2/MSDK/wpa_supplicant/src/tls\tlsv1_client_ocsp.c **** 	}
 591:C:/Users/stapi/OneDrive/Desktop/GD32VW553/V1_MQTT_OK/GD32VW55X_Wifi_BLE_SDK/GD32VW55x_RELEASE_V1.0.2/MSDK/wpa_supplicant/src/tls\tlsv1_client_ocsp.c **** 
 592:C:/Users/stapi/OneDrive/Desktop/GD32VW553/V1_MQTT_OK/GD32VW55X_Wifi_BLE_SDK/GD32VW55x_RELEASE_V1.0.2/MSDK/wpa_supplicant/src/tls\tlsv1_client_ocsp.c **** 	if (ocsp_responder_id_match(issuer, &name, key_hash)) {
 593:C:/Users/stapi/OneDrive/Desktop/GD32VW553/V1_MQTT_OK/GD32VW55X_Wifi_BLE_SDK/GD32VW55x_RELEASE_V1.0.2/MSDK/wpa_supplicant/src/tls\tlsv1_client_ocsp.c **** 		wpa_printf(MSG_DEBUG,
 594:C:/Users/stapi/OneDrive/Desktop/GD32VW553/V1_MQTT_OK/GD32VW55X_Wifi_BLE_SDK/GD32VW55x_RELEASE_V1.0.2/MSDK/wpa_supplicant/src/tls\tlsv1_client_ocsp.c **** 			   "OCSP: Server certificate issuer certificate matches ResponderID");
 595:C:/Users/stapi/OneDrive/Desktop/GD32VW553/V1_MQTT_OK/GD32VW55X_Wifi_BLE_SDK/GD32VW55x_RELEASE_V1.0.2/MSDK/wpa_supplicant/src/tls\tlsv1_client_ocsp.c **** 		signer = issuer;
 596:C:/Users/stapi/OneDrive/Desktop/GD32VW553/V1_MQTT_OK/GD32VW55X_Wifi_BLE_SDK/GD32VW55x_RELEASE_V1.0.2/MSDK/wpa_supplicant/src/tls\tlsv1_client_ocsp.c **** 	} else {
 597:C:/Users/stapi/OneDrive/Desktop/GD32VW553/V1_MQTT_OK/GD32VW55X_Wifi_BLE_SDK/GD32VW55x_RELEASE_V1.0.2/MSDK/wpa_supplicant/src/tls\tlsv1_client_ocsp.c **** 		for (signer = certs; signer; signer = signer->next) {
 598:C:/Users/stapi/OneDrive/Desktop/GD32VW553/V1_MQTT_OK/GD32VW55X_Wifi_BLE_SDK/GD32VW55x_RELEASE_V1.0.2/MSDK/wpa_supplicant/src/tls\tlsv1_client_ocsp.c **** 			if (!ocsp_responder_id_match(signer, &name, key_hash) ||
 599:C:/Users/stapi/OneDrive/Desktop/GD32VW553/V1_MQTT_OK/GD32VW55X_Wifi_BLE_SDK/GD32VW55x_RELEASE_V1.0.2/MSDK/wpa_supplicant/src/tls\tlsv1_client_ocsp.c **** 			    x509_name_compare(&srv_cert->issuer,
 600:C:/Users/stapi/OneDrive/Desktop/GD32VW553/V1_MQTT_OK/GD32VW55X_Wifi_BLE_SDK/GD32VW55x_RELEASE_V1.0.2/MSDK/wpa_supplicant/src/tls\tlsv1_client_ocsp.c **** 					      &issuer->subject) != 0 ||
 601:C:/Users/stapi/OneDrive/Desktop/GD32VW553/V1_MQTT_OK/GD32VW55X_Wifi_BLE_SDK/GD32VW55x_RELEASE_V1.0.2/MSDK/wpa_supplicant/src/tls\tlsv1_client_ocsp.c **** 			    !(signer->ext_key_usage &
 602:C:/Users/stapi/OneDrive/Desktop/GD32VW553/V1_MQTT_OK/GD32VW55X_Wifi_BLE_SDK/GD32VW55x_RELEASE_V1.0.2/MSDK/wpa_supplicant/src/tls\tlsv1_client_ocsp.c **** 			      X509_EXT_KEY_USAGE_OCSP) ||
 603:C:/Users/stapi/OneDrive/Desktop/GD32VW553/V1_MQTT_OK/GD32VW55X_Wifi_BLE_SDK/GD32VW55x_RELEASE_V1.0.2/MSDK/wpa_supplicant/src/tls\tlsv1_client_ocsp.c **** 			    x509_certificate_check_signature(issuer, signer) <
 604:C:/Users/stapi/OneDrive/Desktop/GD32VW553/V1_MQTT_OK/GD32VW55X_Wifi_BLE_SDK/GD32VW55x_RELEASE_V1.0.2/MSDK/wpa_supplicant/src/tls\tlsv1_client_ocsp.c **** 			    0)
 605:C:/Users/stapi/OneDrive/Desktop/GD32VW553/V1_MQTT_OK/GD32VW55X_Wifi_BLE_SDK/GD32VW55x_RELEASE_V1.0.2/MSDK/wpa_supplicant/src/tls\tlsv1_client_ocsp.c **** 				continue;
 606:C:/Users/stapi/OneDrive/Desktop/GD32VW553/V1_MQTT_OK/GD32VW55X_Wifi_BLE_SDK/GD32VW55x_RELEASE_V1.0.2/MSDK/wpa_supplicant/src/tls\tlsv1_client_ocsp.c **** 			wpa_printf(MSG_DEBUG,
 607:C:/Users/stapi/OneDrive/Desktop/GD32VW553/V1_MQTT_OK/GD32VW55X_Wifi_BLE_SDK/GD32VW55x_RELEASE_V1.0.2/MSDK/wpa_supplicant/src/tls\tlsv1_client_ocsp.c **** 				   "OCSP: An extra certificate from the response matches ResponderID and is trusted as an OCSP 
 608:C:/Users/stapi/OneDrive/Desktop/GD32VW553/V1_MQTT_OK/GD32VW55X_Wifi_BLE_SDK/GD32VW55x_RELEASE_V1.0.2/MSDK/wpa_supplicant/src/tls\tlsv1_client_ocsp.c **** 			break;
 609:C:/Users/stapi/OneDrive/Desktop/GD32VW553/V1_MQTT_OK/GD32VW55X_Wifi_BLE_SDK/GD32VW55x_RELEASE_V1.0.2/MSDK/wpa_supplicant/src/tls\tlsv1_client_ocsp.c **** 		}
 610:C:/Users/stapi/OneDrive/Desktop/GD32VW553/V1_MQTT_OK/GD32VW55X_Wifi_BLE_SDK/GD32VW55x_RELEASE_V1.0.2/MSDK/wpa_supplicant/src/tls\tlsv1_client_ocsp.c **** 		if (!signer) {
 611:C:/Users/stapi/OneDrive/Desktop/GD32VW553/V1_MQTT_OK/GD32VW55X_Wifi_BLE_SDK/GD32VW55x_RELEASE_V1.0.2/MSDK/wpa_supplicant/src/tls\tlsv1_client_ocsp.c **** 			wpa_printf(MSG_DEBUG,
 612:C:/Users/stapi/OneDrive/Desktop/GD32VW553/V1_MQTT_OK/GD32VW55X_Wifi_BLE_SDK/GD32VW55x_RELEASE_V1.0.2/MSDK/wpa_supplicant/src/tls\tlsv1_client_ocsp.c **** 				   "OCSP: Could not find OCSP signer certificate");
 613:C:/Users/stapi/OneDrive/Desktop/GD32VW553/V1_MQTT_OK/GD32VW55X_Wifi_BLE_SDK/GD32VW55x_RELEASE_V1.0.2/MSDK/wpa_supplicant/src/tls\tlsv1_client_ocsp.c **** 			goto no_resp;
 614:C:/Users/stapi/OneDrive/Desktop/GD32VW553/V1_MQTT_OK/GD32VW55X_Wifi_BLE_SDK/GD32VW55x_RELEASE_V1.0.2/MSDK/wpa_supplicant/src/tls\tlsv1_client_ocsp.c **** 		}
 615:C:/Users/stapi/OneDrive/Desktop/GD32VW553/V1_MQTT_OK/GD32VW55X_Wifi_BLE_SDK/GD32VW55x_RELEASE_V1.0.2/MSDK/wpa_supplicant/src/tls\tlsv1_client_ocsp.c **** 	}
 616:C:/Users/stapi/OneDrive/Desktop/GD32VW553/V1_MQTT_OK/GD32VW55X_Wifi_BLE_SDK/GD32VW55x_RELEASE_V1.0.2/MSDK/wpa_supplicant/src/tls\tlsv1_client_ocsp.c **** 
 617:C:/Users/stapi/OneDrive/Desktop/GD32VW553/V1_MQTT_OK/GD32VW55X_Wifi_BLE_SDK/GD32VW55x_RELEASE_V1.0.2/MSDK/wpa_supplicant/src/tls\tlsv1_client_ocsp.c **** 	x509_free_name(&name);
 618:C:/Users/stapi/OneDrive/Desktop/GD32VW553/V1_MQTT_OK/GD32VW55X_Wifi_BLE_SDK/GD32VW55x_RELEASE_V1.0.2/MSDK/wpa_supplicant/src/tls\tlsv1_client_ocsp.c **** 	os_memset(&name, 0, sizeof(name));
 619:C:/Users/stapi/OneDrive/Desktop/GD32VW553/V1_MQTT_OK/GD32VW55X_Wifi_BLE_SDK/GD32VW55x_RELEASE_V1.0.2/MSDK/wpa_supplicant/src/tls\tlsv1_client_ocsp.c **** 	x509_certificate_chain_free(certs);
 620:C:/Users/stapi/OneDrive/Desktop/GD32VW553/V1_MQTT_OK/GD32VW55X_Wifi_BLE_SDK/GD32VW55x_RELEASE_V1.0.2/MSDK/wpa_supplicant/src/tls\tlsv1_client_ocsp.c **** 	certs = NULL;
 621:C:/Users/stapi/OneDrive/Desktop/GD32VW553/V1_MQTT_OK/GD32VW55X_Wifi_BLE_SDK/GD32VW55x_RELEASE_V1.0.2/MSDK/wpa_supplicant/src/tls\tlsv1_client_ocsp.c **** 
 622:C:/Users/stapi/OneDrive/Desktop/GD32VW553/V1_MQTT_OK/GD32VW55X_Wifi_BLE_SDK/GD32VW55x_RELEASE_V1.0.2/MSDK/wpa_supplicant/src/tls\tlsv1_client_ocsp.c **** 	if (x509_check_signature(signer, &alg, sign_value, sign_value_len,
 623:C:/Users/stapi/OneDrive/Desktop/GD32VW553/V1_MQTT_OK/GD32VW55X_Wifi_BLE_SDK/GD32VW55x_RELEASE_V1.0.2/MSDK/wpa_supplicant/src/tls\tlsv1_client_ocsp.c **** 				 resp_data_signed, resp_data_signed_len) < 0) {
 624:C:/Users/stapi/OneDrive/Desktop/GD32VW553/V1_MQTT_OK/GD32VW55X_Wifi_BLE_SDK/GD32VW55x_RELEASE_V1.0.2/MSDK/wpa_supplicant/src/tls\tlsv1_client_ocsp.c **** 		    wpa_printf(MSG_DEBUG, "OCSP: Invalid signature");
 625:C:/Users/stapi/OneDrive/Desktop/GD32VW553/V1_MQTT_OK/GD32VW55X_Wifi_BLE_SDK/GD32VW55x_RELEASE_V1.0.2/MSDK/wpa_supplicant/src/tls\tlsv1_client_ocsp.c **** 		    return TLS_OCSP_INVALID;
 626:C:/Users/stapi/OneDrive/Desktop/GD32VW553/V1_MQTT_OK/GD32VW55X_Wifi_BLE_SDK/GD32VW55x_RELEASE_V1.0.2/MSDK/wpa_supplicant/src/tls\tlsv1_client_ocsp.c **** 	}
 627:C:/Users/stapi/OneDrive/Desktop/GD32VW553/V1_MQTT_OK/GD32VW55X_Wifi_BLE_SDK/GD32VW55x_RELEASE_V1.0.2/MSDK/wpa_supplicant/src/tls\tlsv1_client_ocsp.c **** 
 628:C:/Users/stapi/OneDrive/Desktop/GD32VW553/V1_MQTT_OK/GD32VW55X_Wifi_BLE_SDK/GD32VW55x_RELEASE_V1.0.2/MSDK/wpa_supplicant/src/tls\tlsv1_client_ocsp.c **** 	res = tls_process_ocsp_responses(conn, srv_cert, issuer,
 629:C:/Users/stapi/OneDrive/Desktop/GD32VW553/V1_MQTT_OK/GD32VW55X_Wifi_BLE_SDK/GD32VW55x_RELEASE_V1.0.2/MSDK/wpa_supplicant/src/tls\tlsv1_client_ocsp.c **** 					 responses, responses_len);
 630:C:/Users/stapi/OneDrive/Desktop/GD32VW553/V1_MQTT_OK/GD32VW55X_Wifi_BLE_SDK/GD32VW55x_RELEASE_V1.0.2/MSDK/wpa_supplicant/src/tls\tlsv1_client_ocsp.c **** 	if (res == TLS_OCSP_REVOKED)
 631:C:/Users/stapi/OneDrive/Desktop/GD32VW553/V1_MQTT_OK/GD32VW55X_Wifi_BLE_SDK/GD32VW55x_RELEASE_V1.0.2/MSDK/wpa_supplicant/src/tls\tlsv1_client_ocsp.c **** 		srv_cert->ocsp_revoked = 1;
 632:C:/Users/stapi/OneDrive/Desktop/GD32VW553/V1_MQTT_OK/GD32VW55X_Wifi_BLE_SDK/GD32VW55x_RELEASE_V1.0.2/MSDK/wpa_supplicant/src/tls\tlsv1_client_ocsp.c **** 	else if (res == TLS_OCSP_GOOD)
 633:C:/Users/stapi/OneDrive/Desktop/GD32VW553/V1_MQTT_OK/GD32VW55X_Wifi_BLE_SDK/GD32VW55x_RELEASE_V1.0.2/MSDK/wpa_supplicant/src/tls\tlsv1_client_ocsp.c **** 		srv_cert->ocsp_good = 1;
 634:C:/Users/stapi/OneDrive/Desktop/GD32VW553/V1_MQTT_OK/GD32VW55X_Wifi_BLE_SDK/GD32VW55x_RELEASE_V1.0.2/MSDK/wpa_supplicant/src/tls\tlsv1_client_ocsp.c **** 	return res;
 635:C:/Users/stapi/OneDrive/Desktop/GD32VW553/V1_MQTT_OK/GD32VW55X_Wifi_BLE_SDK/GD32VW55x_RELEASE_V1.0.2/MSDK/wpa_supplicant/src/tls\tlsv1_client_ocsp.c **** 
 636:C:/Users/stapi/OneDrive/Desktop/GD32VW553/V1_MQTT_OK/GD32VW55X_Wifi_BLE_SDK/GD32VW55x_RELEASE_V1.0.2/MSDK/wpa_supplicant/src/tls\tlsv1_client_ocsp.c **** no_resp:
 637:C:/Users/stapi/OneDrive/Desktop/GD32VW553/V1_MQTT_OK/GD32VW55X_Wifi_BLE_SDK/GD32VW55x_RELEASE_V1.0.2/MSDK/wpa_supplicant/src/tls\tlsv1_client_ocsp.c **** 	x509_free_name(&name);
 638:C:/Users/stapi/OneDrive/Desktop/GD32VW553/V1_MQTT_OK/GD32VW55X_Wifi_BLE_SDK/GD32VW55x_RELEASE_V1.0.2/MSDK/wpa_supplicant/src/tls\tlsv1_client_ocsp.c **** 	x509_certificate_chain_free(certs);
 639:C:/Users/stapi/OneDrive/Desktop/GD32VW553/V1_MQTT_OK/GD32VW55X_Wifi_BLE_SDK/GD32VW55x_RELEASE_V1.0.2/MSDK/wpa_supplicant/src/tls\tlsv1_client_ocsp.c **** 	return TLS_OCSP_NO_RESPONSE;
 640:C:/Users/stapi/OneDrive/Desktop/GD32VW553/V1_MQTT_OK/GD32VW55X_Wifi_BLE_SDK/GD32VW55x_RELEASE_V1.0.2/MSDK/wpa_supplicant/src/tls\tlsv1_client_ocsp.c **** 
 641:C:/Users/stapi/OneDrive/Desktop/GD32VW553/V1_MQTT_OK/GD32VW55X_Wifi_BLE_SDK/GD32VW55x_RELEASE_V1.0.2/MSDK/wpa_supplicant/src/tls\tlsv1_client_ocsp.c **** fail:
 642:C:/Users/stapi/OneDrive/Desktop/GD32VW553/V1_MQTT_OK/GD32VW55X_Wifi_BLE_SDK/GD32VW55x_RELEASE_V1.0.2/MSDK/wpa_supplicant/src/tls\tlsv1_client_ocsp.c **** 	x509_free_name(&name);
 643:C:/Users/stapi/OneDrive/Desktop/GD32VW553/V1_MQTT_OK/GD32VW55X_Wifi_BLE_SDK/GD32VW55x_RELEASE_V1.0.2/MSDK/wpa_supplicant/src/tls\tlsv1_client_ocsp.c **** 	x509_certificate_chain_free(certs);
 644:C:/Users/stapi/OneDrive/Desktop/GD32VW553/V1_MQTT_OK/GD32VW55X_Wifi_BLE_SDK/GD32VW55x_RELEASE_V1.0.2/MSDK/wpa_supplicant/src/tls\tlsv1_client_ocsp.c **** 	return TLS_OCSP_INVALID;
 645:C:/Users/stapi/OneDrive/Desktop/GD32VW553/V1_MQTT_OK/GD32VW55X_Wifi_BLE_SDK/GD32VW55x_RELEASE_V1.0.2/MSDK/wpa_supplicant/src/tls\tlsv1_client_ocsp.c **** }
 646:C:/Users/stapi/OneDrive/Desktop/GD32VW553/V1_MQTT_OK/GD32VW55X_Wifi_BLE_SDK/GD32VW55x_RELEASE_V1.0.2/MSDK/wpa_supplicant/src/tls\tlsv1_client_ocsp.c **** 
 647:C:/Users/stapi/OneDrive/Desktop/GD32VW553/V1_MQTT_OK/GD32VW55X_Wifi_BLE_SDK/GD32VW55x_RELEASE_V1.0.2/MSDK/wpa_supplicant/src/tls\tlsv1_client_ocsp.c **** 
 648:C:/Users/stapi/OneDrive/Desktop/GD32VW553/V1_MQTT_OK/GD32VW55X_Wifi_BLE_SDK/GD32VW55x_RELEASE_V1.0.2/MSDK/wpa_supplicant/src/tls\tlsv1_client_ocsp.c **** enum tls_ocsp_result tls_process_ocsp_response(struct tlsv1_client *conn,
 649:C:/Users/stapi/OneDrive/Desktop/GD32VW553/V1_MQTT_OK/GD32VW55X_Wifi_BLE_SDK/GD32VW55x_RELEASE_V1.0.2/MSDK/wpa_supplicant/src/tls\tlsv1_client_ocsp.c **** 					       const u8 *resp, size_t len)
 650:C:/Users/stapi/OneDrive/Desktop/GD32VW553/V1_MQTT_OK/GD32VW55X_Wifi_BLE_SDK/GD32VW55x_RELEASE_V1.0.2/MSDK/wpa_supplicant/src/tls\tlsv1_client_ocsp.c **** {
 526              		.loc 2 650 1
 527              		.cfi_startproc
 528              	.LVL28:
 529 0000 17030000 		call	t0,__riscv_save_12
 529      E7020300 
 530              		.cfi_offset 27, -52
 531              		.cfi_offset 26, -48
 532              		.cfi_offset 25, -44
 533              		.cfi_offset 24, -40
 534              		.cfi_offset 23, -36
 535              		.cfi_offset 22, -32
 536              		.cfi_offset 21, -28
 537              		.cfi_offset 20, -24
 538              		.cfi_offset 19, -20
 539              		.cfi_offset 18, -16
 540              		.cfi_offset 9, -12
 541              		.cfi_offset 8, -8
 542              		.cfi_offset 1, -4
 543              		.cfi_def_cfa_offset 64
 651:C:/Users/stapi/OneDrive/Desktop/GD32VW553/V1_MQTT_OK/GD32VW55X_Wifi_BLE_SDK/GD32VW55x_RELEASE_V1.0.2/MSDK/wpa_supplicant/src/tls\tlsv1_client_ocsp.c **** 	struct asn1_hdr hdr;
 544              		.loc 2 651 2
 652:C:/Users/stapi/OneDrive/Desktop/GD32VW553/V1_MQTT_OK/GD32VW55X_Wifi_BLE_SDK/GD32VW55x_RELEASE_V1.0.2/MSDK/wpa_supplicant/src/tls\tlsv1_client_ocsp.c **** 	const u8 *pos, *end;
 545              		.loc 2 652 2
 653:C:/Users/stapi/OneDrive/Desktop/GD32VW553/V1_MQTT_OK/GD32VW55X_Wifi_BLE_SDK/GD32VW55x_RELEASE_V1.0.2/MSDK/wpa_supplicant/src/tls\tlsv1_client_ocsp.c **** 	u8 resp_status;
 546              		.loc 2 653 2
 654:C:/Users/stapi/OneDrive/Desktop/GD32VW553/V1_MQTT_OK/GD32VW55X_Wifi_BLE_SDK/GD32VW55x_RELEASE_V1.0.2/MSDK/wpa_supplicant/src/tls\tlsv1_client_ocsp.c **** 	struct asn1_oid oid;
 547              		.loc 2 654 2
 655:C:/Users/stapi/OneDrive/Desktop/GD32VW553/V1_MQTT_OK/GD32VW55X_Wifi_BLE_SDK/GD32VW55x_RELEASE_V1.0.2/MSDK/wpa_supplicant/src/tls\tlsv1_client_ocsp.c **** 	char obuf[80];
 548              		.loc 2 655 2
 656:C:/Users/stapi/OneDrive/Desktop/GD32VW553/V1_MQTT_OK/GD32VW55X_Wifi_BLE_SDK/GD32VW55x_RELEASE_V1.0.2/MSDK/wpa_supplicant/src/tls\tlsv1_client_ocsp.c **** 	struct x509_certificate *cert;
 549              		.loc 2 656 2
 657:C:/Users/stapi/OneDrive/Desktop/GD32VW553/V1_MQTT_OK/GD32VW55X_Wifi_BLE_SDK/GD32VW55x_RELEASE_V1.0.2/MSDK/wpa_supplicant/src/tls\tlsv1_client_ocsp.c **** 	enum tls_ocsp_result res = TLS_OCSP_NO_RESPONSE;
 550              		.loc 2 657 2
 551              	.LVL29:
 658:C:/Users/stapi/OneDrive/Desktop/GD32VW553/V1_MQTT_OK/GD32VW55X_Wifi_BLE_SDK/GD32VW55x_RELEASE_V1.0.2/MSDK/wpa_supplicant/src/tls\tlsv1_client_ocsp.c **** 	enum tls_ocsp_result res_first = res;
 552              		.loc 2 658 2
 659:C:/Users/stapi/OneDrive/Desktop/GD32VW553/V1_MQTT_OK/GD32VW55X_Wifi_BLE_SDK/GD32VW55x_RELEASE_V1.0.2/MSDK/wpa_supplicant/src/tls\tlsv1_client_ocsp.c **** 
 660:C:/Users/stapi/OneDrive/Desktop/GD32VW553/V1_MQTT_OK/GD32VW55X_Wifi_BLE_SDK/GD32VW55x_RELEASE_V1.0.2/MSDK/wpa_supplicant/src/tls\tlsv1_client_ocsp.c **** 	wpa_hexdump(MSG_MSGDUMP, "TLSv1: OCSPResponse", resp, len);
 553              		.loc 2 660 2
 650:C:/Users/stapi/OneDrive/Desktop/GD32VW553/V1_MQTT_OK/GD32VW55X_Wifi_BLE_SDK/GD32VW55x_RELEASE_V1.0.2/MSDK/wpa_supplicant/src/tls\tlsv1_client_ocsp.c **** 	struct asn1_hdr hdr;
 554              		.loc 2 650 1 is_stmt 0
 555 0008 2E84     		mv	s0,a1
 556 000a B284     		mv	s1,a2
 557              		.loc 2 660 2
 558 000c B286     		mv	a3,a2
 559 000e 2E86     		mv	a2,a1
 560              	.LVL30:
 561 0010 B7050000 		lui	a1,%hi(.LC5)
 562              	.LVL31:
 650:C:/Users/stapi/OneDrive/Desktop/GD32VW553/V1_MQTT_OK/GD32VW55X_Wifi_BLE_SDK/GD32VW55x_RELEASE_V1.0.2/MSDK/wpa_supplicant/src/tls\tlsv1_client_ocsp.c **** 	struct asn1_hdr hdr;
 563              		.loc 2 650 1
 564 0014 130101C0 		addi	sp,sp,-1024
 565              		.cfi_def_cfa_offset 1088
 566              		.loc 2 660 2
 567 0018 93850500 		addi	a1,a1,%lo(.LC5)
 650:C:/Users/stapi/OneDrive/Desktop/GD32VW553/V1_MQTT_OK/GD32VW55X_Wifi_BLE_SDK/GD32VW55x_RELEASE_V1.0.2/MSDK/wpa_supplicant/src/tls\tlsv1_client_ocsp.c **** 	struct asn1_hdr hdr;
 568              		.loc 2 650 1
 569 001c 2A8B     		mv	s6,a0
 570              		.loc 2 660 2
 571 001e 0545     		li	a0,1
 572              	.LVL32:
 573 0020 97000000 		call	wpa_hexdump
 573      E7800000 
 574              	.LVL33:
 661:C:/Users/stapi/OneDrive/Desktop/GD32VW553/V1_MQTT_OK/GD32VW55X_Wifi_BLE_SDK/GD32VW55x_RELEASE_V1.0.2/MSDK/wpa_supplicant/src/tls\tlsv1_client_ocsp.c **** 
 662:C:/Users/stapi/OneDrive/Desktop/GD32VW553/V1_MQTT_OK/GD32VW55X_Wifi_BLE_SDK/GD32VW55x_RELEASE_V1.0.2/MSDK/wpa_supplicant/src/tls\tlsv1_client_ocsp.c **** 	/*
 663:C:/Users/stapi/OneDrive/Desktop/GD32VW553/V1_MQTT_OK/GD32VW55X_Wifi_BLE_SDK/GD32VW55x_RELEASE_V1.0.2/MSDK/wpa_supplicant/src/tls\tlsv1_client_ocsp.c **** 	 * RFC 6960, 4.2.1:
 664:C:/Users/stapi/OneDrive/Desktop/GD32VW553/V1_MQTT_OK/GD32VW55X_Wifi_BLE_SDK/GD32VW55x_RELEASE_V1.0.2/MSDK/wpa_supplicant/src/tls\tlsv1_client_ocsp.c **** 	 * OCSPResponse ::= SEQUENCE {
 665:C:/Users/stapi/OneDrive/Desktop/GD32VW553/V1_MQTT_OK/GD32VW55X_Wifi_BLE_SDK/GD32VW55x_RELEASE_V1.0.2/MSDK/wpa_supplicant/src/tls\tlsv1_client_ocsp.c **** 	 *    responseStatus  OCSPResponseStatus,
 666:C:/Users/stapi/OneDrive/Desktop/GD32VW553/V1_MQTT_OK/GD32VW55X_Wifi_BLE_SDK/GD32VW55x_RELEASE_V1.0.2/MSDK/wpa_supplicant/src/tls\tlsv1_client_ocsp.c **** 	 *    responseBytes   [0] EXPLICIT ResponseBytes OPTIONAL }
 667:C:/Users/stapi/OneDrive/Desktop/GD32VW553/V1_MQTT_OK/GD32VW55X_Wifi_BLE_SDK/GD32VW55x_RELEASE_V1.0.2/MSDK/wpa_supplicant/src/tls\tlsv1_client_ocsp.c **** 	 */
 668:C:/Users/stapi/OneDrive/Desktop/GD32VW553/V1_MQTT_OK/GD32VW55X_Wifi_BLE_SDK/GD32VW55x_RELEASE_V1.0.2/MSDK/wpa_supplicant/src/tls\tlsv1_client_ocsp.c **** 
 669:C:/Users/stapi/OneDrive/Desktop/GD32VW553/V1_MQTT_OK/GD32VW55X_Wifi_BLE_SDK/GD32VW55x_RELEASE_V1.0.2/MSDK/wpa_supplicant/src/tls\tlsv1_client_ocsp.c **** 	if (asn1_get_next(resp, len, &hdr) < 0 || !asn1_is_sequence(&hdr)) {
 575              		.loc 2 669 2 is_stmt 1
 576              		.loc 2 669 6 is_stmt 0
 577 0028 9000     		addi	a2,sp,64
 578 002a A685     		mv	a1,s1
 579 002c 2285     		mv	a0,s0
 580 002e 97000000 		call	asn1_get_next
 580      E7800000 
 581              	.LVL34:
 582              		.loc 2 669 5
 583 0036 63480500 		blt	a0,zero,.L22
 584              		.loc 2 669 45 discriminator 1
 585 003a 8800     		addi	a0,sp,64
 586 003c 97000000 		call	asn1_is_sequence
 586      E7800000 
 587              	.LVL35:
 588              		.loc 2 669 41 discriminator 1
 589 0044 15E1     		bne	a0,zero,.L23
 590              	.L22:
 670:C:/Users/stapi/OneDrive/Desktop/GD32VW553/V1_MQTT_OK/GD32VW55X_Wifi_BLE_SDK/GD32VW55x_RELEASE_V1.0.2/MSDK/wpa_supplicant/src/tls\tlsv1_client_ocsp.c **** 		asn1_unexpected(&hdr,
 591              		.loc 2 670 3 is_stmt 1
 592 0046 B7050000 		lui	a1,%hi(.LC6)
 593 004a 93850500 		addi	a1,a1,%lo(.LC6)
 594              	.LVL36:
 595              	.L166:
 671:C:/Users/stapi/OneDrive/Desktop/GD32VW553/V1_MQTT_OK/GD32VW55X_Wifi_BLE_SDK/GD32VW55x_RELEASE_V1.0.2/MSDK/wpa_supplicant/src/tls\tlsv1_client_ocsp.c **** 				"OCSP: Expected SEQUENCE (OCSPResponse)");
 672:C:/Users/stapi/OneDrive/Desktop/GD32VW553/V1_MQTT_OK/GD32VW55X_Wifi_BLE_SDK/GD32VW55x_RELEASE_V1.0.2/MSDK/wpa_supplicant/src/tls\tlsv1_client_ocsp.c **** 		return TLS_OCSP_INVALID;
 673:C:/Users/stapi/OneDrive/Desktop/GD32VW553/V1_MQTT_OK/GD32VW55X_Wifi_BLE_SDK/GD32VW55x_RELEASE_V1.0.2/MSDK/wpa_supplicant/src/tls\tlsv1_client_ocsp.c **** 	}
 674:C:/Users/stapi/OneDrive/Desktop/GD32VW553/V1_MQTT_OK/GD32VW55X_Wifi_BLE_SDK/GD32VW55x_RELEASE_V1.0.2/MSDK/wpa_supplicant/src/tls\tlsv1_client_ocsp.c **** 	pos = hdr.payload;
 675:C:/Users/stapi/OneDrive/Desktop/GD32VW553/V1_MQTT_OK/GD32VW55X_Wifi_BLE_SDK/GD32VW55x_RELEASE_V1.0.2/MSDK/wpa_supplicant/src/tls\tlsv1_client_ocsp.c **** 	end = hdr.payload + hdr.length;
 676:C:/Users/stapi/OneDrive/Desktop/GD32VW553/V1_MQTT_OK/GD32VW55X_Wifi_BLE_SDK/GD32VW55x_RELEASE_V1.0.2/MSDK/wpa_supplicant/src/tls\tlsv1_client_ocsp.c **** 
 677:C:/Users/stapi/OneDrive/Desktop/GD32VW553/V1_MQTT_OK/GD32VW55X_Wifi_BLE_SDK/GD32VW55x_RELEASE_V1.0.2/MSDK/wpa_supplicant/src/tls\tlsv1_client_ocsp.c **** 	/* OCSPResponseStatus ::= ENUMERATED */
 678:C:/Users/stapi/OneDrive/Desktop/GD32VW553/V1_MQTT_OK/GD32VW55X_Wifi_BLE_SDK/GD32VW55x_RELEASE_V1.0.2/MSDK/wpa_supplicant/src/tls\tlsv1_client_ocsp.c **** 	if (asn1_get_next(pos, end - pos, &hdr) < 0 ||
 679:C:/Users/stapi/OneDrive/Desktop/GD32VW553/V1_MQTT_OK/GD32VW55X_Wifi_BLE_SDK/GD32VW55x_RELEASE_V1.0.2/MSDK/wpa_supplicant/src/tls\tlsv1_client_ocsp.c **** 	    !asn1_is_enumerated(&hdr) || hdr.length != 1) {
 680:C:/Users/stapi/OneDrive/Desktop/GD32VW553/V1_MQTT_OK/GD32VW55X_Wifi_BLE_SDK/GD32VW55x_RELEASE_V1.0.2/MSDK/wpa_supplicant/src/tls\tlsv1_client_ocsp.c **** 		asn1_unexpected(&hdr,
 596              		.loc 2 680 3 is_stmt 0
 597 004e 8800     		addi	a0,sp,64
 598 0050 97000000 		call	asn1_unexpected
 598      E7800000 
 599              	.LVL37:
 681:C:/Users/stapi/OneDrive/Desktop/GD32VW553/V1_MQTT_OK/GD32VW55X_Wifi_BLE_SDK/GD32VW55x_RELEASE_V1.0.2/MSDK/wpa_supplicant/src/tls\tlsv1_client_ocsp.c **** 				"OCSP: Expected ENUMERATED (responseStatus)");
 682:C:/Users/stapi/OneDrive/Desktop/GD32VW553/V1_MQTT_OK/GD32VW55X_Wifi_BLE_SDK/GD32VW55x_RELEASE_V1.0.2/MSDK/wpa_supplicant/src/tls\tlsv1_client_ocsp.c **** 		return TLS_OCSP_INVALID;
 600              		.loc 2 682 3 is_stmt 1
 601              		.loc 2 682 10 is_stmt 0
 602 0058 0549     		li	s2,1
 603              	.LVL38:
 604              	.L21:
 683:C:/Users/stapi/OneDrive/Desktop/GD32VW553/V1_MQTT_OK/GD32VW55X_Wifi_BLE_SDK/GD32VW55x_RELEASE_V1.0.2/MSDK/wpa_supplicant/src/tls\tlsv1_client_ocsp.c **** 	}
 684:C:/Users/stapi/OneDrive/Desktop/GD32VW553/V1_MQTT_OK/GD32VW55X_Wifi_BLE_SDK/GD32VW55x_RELEASE_V1.0.2/MSDK/wpa_supplicant/src/tls\tlsv1_client_ocsp.c **** 	resp_status = hdr.payload[0];
 685:C:/Users/stapi/OneDrive/Desktop/GD32VW553/V1_MQTT_OK/GD32VW55X_Wifi_BLE_SDK/GD32VW55x_RELEASE_V1.0.2/MSDK/wpa_supplicant/src/tls\tlsv1_client_ocsp.c **** 	wpa_printf(MSG_DEBUG, "OCSP: responseStatus %u", resp_status);
 686:C:/Users/stapi/OneDrive/Desktop/GD32VW553/V1_MQTT_OK/GD32VW55X_Wifi_BLE_SDK/GD32VW55x_RELEASE_V1.0.2/MSDK/wpa_supplicant/src/tls\tlsv1_client_ocsp.c **** 	pos = hdr.payload + hdr.length;
 687:C:/Users/stapi/OneDrive/Desktop/GD32VW553/V1_MQTT_OK/GD32VW55X_Wifi_BLE_SDK/GD32VW55x_RELEASE_V1.0.2/MSDK/wpa_supplicant/src/tls\tlsv1_client_ocsp.c **** 	if (resp_status != OCSP_RESP_STATUS_SUCCESSFUL) {
 688:C:/Users/stapi/OneDrive/Desktop/GD32VW553/V1_MQTT_OK/GD32VW55X_Wifi_BLE_SDK/GD32VW55x_RELEASE_V1.0.2/MSDK/wpa_supplicant/src/tls\tlsv1_client_ocsp.c **** 		wpa_printf(MSG_DEBUG, "OCSP: No stapling result");
 689:C:/Users/stapi/OneDrive/Desktop/GD32VW553/V1_MQTT_OK/GD32VW55X_Wifi_BLE_SDK/GD32VW55x_RELEASE_V1.0.2/MSDK/wpa_supplicant/src/tls\tlsv1_client_ocsp.c **** 		return TLS_OCSP_NO_RESPONSE;
 690:C:/Users/stapi/OneDrive/Desktop/GD32VW553/V1_MQTT_OK/GD32VW55X_Wifi_BLE_SDK/GD32VW55x_RELEASE_V1.0.2/MSDK/wpa_supplicant/src/tls\tlsv1_client_ocsp.c **** 	}
 691:C:/Users/stapi/OneDrive/Desktop/GD32VW553/V1_MQTT_OK/GD32VW55X_Wifi_BLE_SDK/GD32VW55x_RELEASE_V1.0.2/MSDK/wpa_supplicant/src/tls\tlsv1_client_ocsp.c **** 
 692:C:/Users/stapi/OneDrive/Desktop/GD32VW553/V1_MQTT_OK/GD32VW55X_Wifi_BLE_SDK/GD32VW55x_RELEASE_V1.0.2/MSDK/wpa_supplicant/src/tls\tlsv1_client_ocsp.c **** 	/* responseBytes   [0] EXPLICIT ResponseBytes OPTIONAL */
 693:C:/Users/stapi/OneDrive/Desktop/GD32VW553/V1_MQTT_OK/GD32VW55X_Wifi_BLE_SDK/GD32VW55x_RELEASE_V1.0.2/MSDK/wpa_supplicant/src/tls\tlsv1_client_ocsp.c **** 	if (pos == end)
 694:C:/Users/stapi/OneDrive/Desktop/GD32VW553/V1_MQTT_OK/GD32VW55X_Wifi_BLE_SDK/GD32VW55x_RELEASE_V1.0.2/MSDK/wpa_supplicant/src/tls\tlsv1_client_ocsp.c **** 		return TLS_OCSP_NO_RESPONSE;
 695:C:/Users/stapi/OneDrive/Desktop/GD32VW553/V1_MQTT_OK/GD32VW55X_Wifi_BLE_SDK/GD32VW55x_RELEASE_V1.0.2/MSDK/wpa_supplicant/src/tls\tlsv1_client_ocsp.c **** 
 696:C:/Users/stapi/OneDrive/Desktop/GD32VW553/V1_MQTT_OK/GD32VW55X_Wifi_BLE_SDK/GD32VW55x_RELEASE_V1.0.2/MSDK/wpa_supplicant/src/tls\tlsv1_client_ocsp.c **** 	if (asn1_get_next(pos, end - pos, &hdr) < 0 || !hdr.constructed ||
 697:C:/Users/stapi/OneDrive/Desktop/GD32VW553/V1_MQTT_OK/GD32VW55X_Wifi_BLE_SDK/GD32VW55x_RELEASE_V1.0.2/MSDK/wpa_supplicant/src/tls\tlsv1_client_ocsp.c **** 	    !asn1_is_cs_tag(&hdr, 0)) {
 698:C:/Users/stapi/OneDrive/Desktop/GD32VW553/V1_MQTT_OK/GD32VW55X_Wifi_BLE_SDK/GD32VW55x_RELEASE_V1.0.2/MSDK/wpa_supplicant/src/tls\tlsv1_client_ocsp.c **** 		asn1_unexpected(&hdr,
 699:C:/Users/stapi/OneDrive/Desktop/GD32VW553/V1_MQTT_OK/GD32VW55X_Wifi_BLE_SDK/GD32VW55x_RELEASE_V1.0.2/MSDK/wpa_supplicant/src/tls\tlsv1_client_ocsp.c **** 				"OCSP: Expected [0] EXPLICIT (responseBytes)");
 700:C:/Users/stapi/OneDrive/Desktop/GD32VW553/V1_MQTT_OK/GD32VW55X_Wifi_BLE_SDK/GD32VW55x_RELEASE_V1.0.2/MSDK/wpa_supplicant/src/tls\tlsv1_client_ocsp.c **** 		return TLS_OCSP_INVALID;
 701:C:/Users/stapi/OneDrive/Desktop/GD32VW553/V1_MQTT_OK/GD32VW55X_Wifi_BLE_SDK/GD32VW55x_RELEASE_V1.0.2/MSDK/wpa_supplicant/src/tls\tlsv1_client_ocsp.c **** 	}
 702:C:/Users/stapi/OneDrive/Desktop/GD32VW553/V1_MQTT_OK/GD32VW55X_Wifi_BLE_SDK/GD32VW55x_RELEASE_V1.0.2/MSDK/wpa_supplicant/src/tls\tlsv1_client_ocsp.c **** 
 703:C:/Users/stapi/OneDrive/Desktop/GD32VW553/V1_MQTT_OK/GD32VW55X_Wifi_BLE_SDK/GD32VW55x_RELEASE_V1.0.2/MSDK/wpa_supplicant/src/tls\tlsv1_client_ocsp.c **** 	/*
 704:C:/Users/stapi/OneDrive/Desktop/GD32VW553/V1_MQTT_OK/GD32VW55X_Wifi_BLE_SDK/GD32VW55x_RELEASE_V1.0.2/MSDK/wpa_supplicant/src/tls\tlsv1_client_ocsp.c **** 	 * ResponseBytes ::= SEQUENCE {
 705:C:/Users/stapi/OneDrive/Desktop/GD32VW553/V1_MQTT_OK/GD32VW55X_Wifi_BLE_SDK/GD32VW55x_RELEASE_V1.0.2/MSDK/wpa_supplicant/src/tls\tlsv1_client_ocsp.c **** 	 *     responseType   OBJECT IDENTIFIER,
 706:C:/Users/stapi/OneDrive/Desktop/GD32VW553/V1_MQTT_OK/GD32VW55X_Wifi_BLE_SDK/GD32VW55x_RELEASE_V1.0.2/MSDK/wpa_supplicant/src/tls\tlsv1_client_ocsp.c **** 	 *     response       OCTET STRING }
 707:C:/Users/stapi/OneDrive/Desktop/GD32VW553/V1_MQTT_OK/GD32VW55X_Wifi_BLE_SDK/GD32VW55x_RELEASE_V1.0.2/MSDK/wpa_supplicant/src/tls\tlsv1_client_ocsp.c **** 	 */
 708:C:/Users/stapi/OneDrive/Desktop/GD32VW553/V1_MQTT_OK/GD32VW55X_Wifi_BLE_SDK/GD32VW55x_RELEASE_V1.0.2/MSDK/wpa_supplicant/src/tls\tlsv1_client_ocsp.c **** 
 709:C:/Users/stapi/OneDrive/Desktop/GD32VW553/V1_MQTT_OK/GD32VW55X_Wifi_BLE_SDK/GD32VW55x_RELEASE_V1.0.2/MSDK/wpa_supplicant/src/tls\tlsv1_client_ocsp.c **** 	if (asn1_get_next(hdr.payload, hdr.length, &hdr) < 0 ||
 710:C:/Users/stapi/OneDrive/Desktop/GD32VW553/V1_MQTT_OK/GD32VW55X_Wifi_BLE_SDK/GD32VW55x_RELEASE_V1.0.2/MSDK/wpa_supplicant/src/tls\tlsv1_client_ocsp.c **** 	    !asn1_is_sequence(&hdr)) {
 711:C:/Users/stapi/OneDrive/Desktop/GD32VW553/V1_MQTT_OK/GD32VW55X_Wifi_BLE_SDK/GD32VW55x_RELEASE_V1.0.2/MSDK/wpa_supplicant/src/tls\tlsv1_client_ocsp.c **** 		asn1_unexpected(&hdr,
 712:C:/Users/stapi/OneDrive/Desktop/GD32VW553/V1_MQTT_OK/GD32VW55X_Wifi_BLE_SDK/GD32VW55x_RELEASE_V1.0.2/MSDK/wpa_supplicant/src/tls\tlsv1_client_ocsp.c **** 				"OCSP: Expected SEQUENCE (ResponseBytes)");
 713:C:/Users/stapi/OneDrive/Desktop/GD32VW553/V1_MQTT_OK/GD32VW55X_Wifi_BLE_SDK/GD32VW55x_RELEASE_V1.0.2/MSDK/wpa_supplicant/src/tls\tlsv1_client_ocsp.c **** 		return TLS_OCSP_INVALID;
 714:C:/Users/stapi/OneDrive/Desktop/GD32VW553/V1_MQTT_OK/GD32VW55X_Wifi_BLE_SDK/GD32VW55x_RELEASE_V1.0.2/MSDK/wpa_supplicant/src/tls\tlsv1_client_ocsp.c **** 	}
 715:C:/Users/stapi/OneDrive/Desktop/GD32VW553/V1_MQTT_OK/GD32VW55X_Wifi_BLE_SDK/GD32VW55x_RELEASE_V1.0.2/MSDK/wpa_supplicant/src/tls\tlsv1_client_ocsp.c **** 	pos = hdr.payload;
 716:C:/Users/stapi/OneDrive/Desktop/GD32VW553/V1_MQTT_OK/GD32VW55X_Wifi_BLE_SDK/GD32VW55x_RELEASE_V1.0.2/MSDK/wpa_supplicant/src/tls\tlsv1_client_ocsp.c **** 	end = hdr.payload + hdr.length;
 717:C:/Users/stapi/OneDrive/Desktop/GD32VW553/V1_MQTT_OK/GD32VW55X_Wifi_BLE_SDK/GD32VW55x_RELEASE_V1.0.2/MSDK/wpa_supplicant/src/tls\tlsv1_client_ocsp.c **** 
 718:C:/Users/stapi/OneDrive/Desktop/GD32VW553/V1_MQTT_OK/GD32VW55X_Wifi_BLE_SDK/GD32VW55x_RELEASE_V1.0.2/MSDK/wpa_supplicant/src/tls\tlsv1_client_ocsp.c **** 	/* responseType   OBJECT IDENTIFIER */
 719:C:/Users/stapi/OneDrive/Desktop/GD32VW553/V1_MQTT_OK/GD32VW55X_Wifi_BLE_SDK/GD32VW55x_RELEASE_V1.0.2/MSDK/wpa_supplicant/src/tls\tlsv1_client_ocsp.c **** 	if (asn1_get_oid(pos, end - pos, &oid, &pos)) {
 720:C:/Users/stapi/OneDrive/Desktop/GD32VW553/V1_MQTT_OK/GD32VW55X_Wifi_BLE_SDK/GD32VW55x_RELEASE_V1.0.2/MSDK/wpa_supplicant/src/tls\tlsv1_client_ocsp.c **** 		wpa_printf(MSG_DEBUG,
 721:C:/Users/stapi/OneDrive/Desktop/GD32VW553/V1_MQTT_OK/GD32VW55X_Wifi_BLE_SDK/GD32VW55x_RELEASE_V1.0.2/MSDK/wpa_supplicant/src/tls\tlsv1_client_ocsp.c **** 			   "OCSP: Failed to parse OID (responseType)");
 722:C:/Users/stapi/OneDrive/Desktop/GD32VW553/V1_MQTT_OK/GD32VW55X_Wifi_BLE_SDK/GD32VW55x_RELEASE_V1.0.2/MSDK/wpa_supplicant/src/tls\tlsv1_client_ocsp.c **** 		return TLS_OCSP_INVALID;
 723:C:/Users/stapi/OneDrive/Desktop/GD32VW553/V1_MQTT_OK/GD32VW55X_Wifi_BLE_SDK/GD32VW55x_RELEASE_V1.0.2/MSDK/wpa_supplicant/src/tls\tlsv1_client_ocsp.c **** 	}
 724:C:/Users/stapi/OneDrive/Desktop/GD32VW553/V1_MQTT_OK/GD32VW55X_Wifi_BLE_SDK/GD32VW55x_RELEASE_V1.0.2/MSDK/wpa_supplicant/src/tls\tlsv1_client_ocsp.c **** 	asn1_oid_to_str(&oid, obuf, sizeof(obuf));
 725:C:/Users/stapi/OneDrive/Desktop/GD32VW553/V1_MQTT_OK/GD32VW55X_Wifi_BLE_SDK/GD32VW55x_RELEASE_V1.0.2/MSDK/wpa_supplicant/src/tls\tlsv1_client_ocsp.c **** 	wpa_printf(MSG_DEBUG, "OCSP: responseType %s", obuf);
 726:C:/Users/stapi/OneDrive/Desktop/GD32VW553/V1_MQTT_OK/GD32VW55X_Wifi_BLE_SDK/GD32VW55x_RELEASE_V1.0.2/MSDK/wpa_supplicant/src/tls\tlsv1_client_ocsp.c **** 	if (!is_oid_basic_ocsp_resp(&oid)) {
 727:C:/Users/stapi/OneDrive/Desktop/GD32VW553/V1_MQTT_OK/GD32VW55X_Wifi_BLE_SDK/GD32VW55x_RELEASE_V1.0.2/MSDK/wpa_supplicant/src/tls\tlsv1_client_ocsp.c **** 		wpa_printf(MSG_DEBUG, "OCSP: Ignore unsupported response type");
 728:C:/Users/stapi/OneDrive/Desktop/GD32VW553/V1_MQTT_OK/GD32VW55X_Wifi_BLE_SDK/GD32VW55x_RELEASE_V1.0.2/MSDK/wpa_supplicant/src/tls\tlsv1_client_ocsp.c **** 		return TLS_OCSP_NO_RESPONSE;
 729:C:/Users/stapi/OneDrive/Desktop/GD32VW553/V1_MQTT_OK/GD32VW55X_Wifi_BLE_SDK/GD32VW55x_RELEASE_V1.0.2/MSDK/wpa_supplicant/src/tls\tlsv1_client_ocsp.c **** 	}
 730:C:/Users/stapi/OneDrive/Desktop/GD32VW553/V1_MQTT_OK/GD32VW55X_Wifi_BLE_SDK/GD32VW55x_RELEASE_V1.0.2/MSDK/wpa_supplicant/src/tls\tlsv1_client_ocsp.c **** 
 731:C:/Users/stapi/OneDrive/Desktop/GD32VW553/V1_MQTT_OK/GD32VW55X_Wifi_BLE_SDK/GD32VW55x_RELEASE_V1.0.2/MSDK/wpa_supplicant/src/tls\tlsv1_client_ocsp.c **** 	/* response       OCTET STRING */
 732:C:/Users/stapi/OneDrive/Desktop/GD32VW553/V1_MQTT_OK/GD32VW55X_Wifi_BLE_SDK/GD32VW55x_RELEASE_V1.0.2/MSDK/wpa_supplicant/src/tls\tlsv1_client_ocsp.c **** 	if (asn1_get_next(pos, end - pos, &hdr) < 0 ||
 733:C:/Users/stapi/OneDrive/Desktop/GD32VW553/V1_MQTT_OK/GD32VW55X_Wifi_BLE_SDK/GD32VW55x_RELEASE_V1.0.2/MSDK/wpa_supplicant/src/tls\tlsv1_client_ocsp.c **** 	    !asn1_is_octetstring(&hdr)) {
 734:C:/Users/stapi/OneDrive/Desktop/GD32VW553/V1_MQTT_OK/GD32VW55X_Wifi_BLE_SDK/GD32VW55x_RELEASE_V1.0.2/MSDK/wpa_supplicant/src/tls\tlsv1_client_ocsp.c **** 		asn1_unexpected(&hdr, "OCSP: Expected OCTET STRING (response)");
 735:C:/Users/stapi/OneDrive/Desktop/GD32VW553/V1_MQTT_OK/GD32VW55X_Wifi_BLE_SDK/GD32VW55x_RELEASE_V1.0.2/MSDK/wpa_supplicant/src/tls\tlsv1_client_ocsp.c **** 		return TLS_OCSP_INVALID;
 736:C:/Users/stapi/OneDrive/Desktop/GD32VW553/V1_MQTT_OK/GD32VW55X_Wifi_BLE_SDK/GD32VW55x_RELEASE_V1.0.2/MSDK/wpa_supplicant/src/tls\tlsv1_client_ocsp.c **** 	}
 737:C:/Users/stapi/OneDrive/Desktop/GD32VW553/V1_MQTT_OK/GD32VW55X_Wifi_BLE_SDK/GD32VW55x_RELEASE_V1.0.2/MSDK/wpa_supplicant/src/tls\tlsv1_client_ocsp.c **** 
 738:C:/Users/stapi/OneDrive/Desktop/GD32VW553/V1_MQTT_OK/GD32VW55X_Wifi_BLE_SDK/GD32VW55x_RELEASE_V1.0.2/MSDK/wpa_supplicant/src/tls\tlsv1_client_ocsp.c **** 	cert = conn->server_cert;
 739:C:/Users/stapi/OneDrive/Desktop/GD32VW553/V1_MQTT_OK/GD32VW55X_Wifi_BLE_SDK/GD32VW55x_RELEASE_V1.0.2/MSDK/wpa_supplicant/src/tls\tlsv1_client_ocsp.c **** 	while (cert) {
 740:C:/Users/stapi/OneDrive/Desktop/GD32VW553/V1_MQTT_OK/GD32VW55X_Wifi_BLE_SDK/GD32VW55x_RELEASE_V1.0.2/MSDK/wpa_supplicant/src/tls\tlsv1_client_ocsp.c **** 		if (!cert->ocsp_good && !cert->ocsp_revoked) {
 741:C:/Users/stapi/OneDrive/Desktop/GD32VW553/V1_MQTT_OK/GD32VW55X_Wifi_BLE_SDK/GD32VW55x_RELEASE_V1.0.2/MSDK/wpa_supplicant/src/tls\tlsv1_client_ocsp.c **** 			char sbuf[128];
 742:C:/Users/stapi/OneDrive/Desktop/GD32VW553/V1_MQTT_OK/GD32VW55X_Wifi_BLE_SDK/GD32VW55x_RELEASE_V1.0.2/MSDK/wpa_supplicant/src/tls\tlsv1_client_ocsp.c **** 
 743:C:/Users/stapi/OneDrive/Desktop/GD32VW553/V1_MQTT_OK/GD32VW55X_Wifi_BLE_SDK/GD32VW55x_RELEASE_V1.0.2/MSDK/wpa_supplicant/src/tls\tlsv1_client_ocsp.c **** 			x509_name_string(&cert->subject, sbuf, sizeof(sbuf));
 744:C:/Users/stapi/OneDrive/Desktop/GD32VW553/V1_MQTT_OK/GD32VW55X_Wifi_BLE_SDK/GD32VW55x_RELEASE_V1.0.2/MSDK/wpa_supplicant/src/tls\tlsv1_client_ocsp.c **** 			wpa_printf(MSG_DEBUG,
 745:C:/Users/stapi/OneDrive/Desktop/GD32VW553/V1_MQTT_OK/GD32VW55X_Wifi_BLE_SDK/GD32VW55x_RELEASE_V1.0.2/MSDK/wpa_supplicant/src/tls\tlsv1_client_ocsp.c **** 				   "OCSP: Trying to find certificate status for %s",
 746:C:/Users/stapi/OneDrive/Desktop/GD32VW553/V1_MQTT_OK/GD32VW55X_Wifi_BLE_SDK/GD32VW55x_RELEASE_V1.0.2/MSDK/wpa_supplicant/src/tls\tlsv1_client_ocsp.c **** 				   sbuf);
 747:C:/Users/stapi/OneDrive/Desktop/GD32VW553/V1_MQTT_OK/GD32VW55X_Wifi_BLE_SDK/GD32VW55x_RELEASE_V1.0.2/MSDK/wpa_supplicant/src/tls\tlsv1_client_ocsp.c **** 
 748:C:/Users/stapi/OneDrive/Desktop/GD32VW553/V1_MQTT_OK/GD32VW55X_Wifi_BLE_SDK/GD32VW55x_RELEASE_V1.0.2/MSDK/wpa_supplicant/src/tls\tlsv1_client_ocsp.c **** 			res = tls_process_basic_ocsp_response(conn, cert,
 749:C:/Users/stapi/OneDrive/Desktop/GD32VW553/V1_MQTT_OK/GD32VW55X_Wifi_BLE_SDK/GD32VW55x_RELEASE_V1.0.2/MSDK/wpa_supplicant/src/tls\tlsv1_client_ocsp.c **** 							      hdr.payload,
 750:C:/Users/stapi/OneDrive/Desktop/GD32VW553/V1_MQTT_OK/GD32VW55X_Wifi_BLE_SDK/GD32VW55x_RELEASE_V1.0.2/MSDK/wpa_supplicant/src/tls\tlsv1_client_ocsp.c **** 							      hdr.length);
 751:C:/Users/stapi/OneDrive/Desktop/GD32VW553/V1_MQTT_OK/GD32VW55X_Wifi_BLE_SDK/GD32VW55x_RELEASE_V1.0.2/MSDK/wpa_supplicant/src/tls\tlsv1_client_ocsp.c **** 			if (cert == conn->server_cert)
 752:C:/Users/stapi/OneDrive/Desktop/GD32VW553/V1_MQTT_OK/GD32VW55X_Wifi_BLE_SDK/GD32VW55x_RELEASE_V1.0.2/MSDK/wpa_supplicant/src/tls\tlsv1_client_ocsp.c **** 				res_first = res;
 753:C:/Users/stapi/OneDrive/Desktop/GD32VW553/V1_MQTT_OK/GD32VW55X_Wifi_BLE_SDK/GD32VW55x_RELEASE_V1.0.2/MSDK/wpa_supplicant/src/tls\tlsv1_client_ocsp.c **** 		}
 754:C:/Users/stapi/OneDrive/Desktop/GD32VW553/V1_MQTT_OK/GD32VW55X_Wifi_BLE_SDK/GD32VW55x_RELEASE_V1.0.2/MSDK/wpa_supplicant/src/tls\tlsv1_client_ocsp.c **** 		if (res == TLS_OCSP_REVOKED || cert->issuer_trusted)
 755:C:/Users/stapi/OneDrive/Desktop/GD32VW553/V1_MQTT_OK/GD32VW55X_Wifi_BLE_SDK/GD32VW55x_RELEASE_V1.0.2/MSDK/wpa_supplicant/src/tls\tlsv1_client_ocsp.c **** 			break;
 756:C:/Users/stapi/OneDrive/Desktop/GD32VW553/V1_MQTT_OK/GD32VW55X_Wifi_BLE_SDK/GD32VW55x_RELEASE_V1.0.2/MSDK/wpa_supplicant/src/tls\tlsv1_client_ocsp.c **** 		cert = cert->next;
 757:C:/Users/stapi/OneDrive/Desktop/GD32VW553/V1_MQTT_OK/GD32VW55X_Wifi_BLE_SDK/GD32VW55x_RELEASE_V1.0.2/MSDK/wpa_supplicant/src/tls\tlsv1_client_ocsp.c **** 	}
 758:C:/Users/stapi/OneDrive/Desktop/GD32VW553/V1_MQTT_OK/GD32VW55X_Wifi_BLE_SDK/GD32VW55x_RELEASE_V1.0.2/MSDK/wpa_supplicant/src/tls\tlsv1_client_ocsp.c **** 	return res == TLS_OCSP_REVOKED ? res : res_first;
 759:C:/Users/stapi/OneDrive/Desktop/GD32VW553/V1_MQTT_OK/GD32VW55X_Wifi_BLE_SDK/GD32VW55x_RELEASE_V1.0.2/MSDK/wpa_supplicant/src/tls\tlsv1_client_ocsp.c **** }
 605              		.loc 2 759 1
 606 005a 4A85     		mv	a0,s2
 607 005c 13010140 		addi	sp,sp,1024
 608              		.cfi_remember_state
 609              		.cfi_def_cfa_offset 0
 610 0060 17030000 		tail	__riscv_restore_12
 610      67000300 
 611              		.cfi_restore 27
 612              		.cfi_restore 26
 613              		.cfi_restore 25
 614              		.cfi_restore 24
 615              		.cfi_restore 23
 616              		.cfi_restore 22
 617              		.cfi_restore 21
 618              		.cfi_restore 20
 619              		.cfi_restore 19
 620              		.cfi_restore 18
 621              		.cfi_restore 9
 622              		.cfi_restore 8
 623              		.cfi_restore 1
 624              		.cfi_def_cfa_offset -64
 625              	.LVL39:
 626              	.L23:
 627              		.cfi_restore_state
 674:C:/Users/stapi/OneDrive/Desktop/GD32VW553/V1_MQTT_OK/GD32VW55X_Wifi_BLE_SDK/GD32VW55x_RELEASE_V1.0.2/MSDK/wpa_supplicant/src/tls\tlsv1_client_ocsp.c **** 	end = hdr.payload + hdr.length;
 628              		.loc 2 674 2 is_stmt 1
 674:C:/Users/stapi/OneDrive/Desktop/GD32VW553/V1_MQTT_OK/GD32VW55X_Wifi_BLE_SDK/GD32VW55x_RELEASE_V1.0.2/MSDK/wpa_supplicant/src/tls\tlsv1_client_ocsp.c **** 	end = hdr.payload + hdr.length;
 629              		.loc 2 674 11 is_stmt 0
 630 0068 0644     		lw	s0,64(sp)
 631              	.LVL40:
 675:C:/Users/stapi/OneDrive/Desktop/GD32VW553/V1_MQTT_OK/GD32VW55X_Wifi_BLE_SDK/GD32VW55x_RELEASE_V1.0.2/MSDK/wpa_supplicant/src/tls\tlsv1_client_ocsp.c **** 
 632              		.loc 2 675 25
 633 006a B644     		lw	s1,76(sp)
 634              	.LVL41:
 678:C:/Users/stapi/OneDrive/Desktop/GD32VW553/V1_MQTT_OK/GD32VW55X_Wifi_BLE_SDK/GD32VW55x_RELEASE_V1.0.2/MSDK/wpa_supplicant/src/tls\tlsv1_client_ocsp.c **** 	    !asn1_is_enumerated(&hdr) || hdr.length != 1) {
 635              		.loc 2 678 6
 636 006c 9000     		addi	a2,sp,64
 637 006e 2285     		mv	a0,s0
 638 0070 A685     		mv	a1,s1
 674:C:/Users/stapi/OneDrive/Desktop/GD32VW553/V1_MQTT_OK/GD32VW55X_Wifi_BLE_SDK/GD32VW55x_RELEASE_V1.0.2/MSDK/wpa_supplicant/src/tls\tlsv1_client_ocsp.c **** 	end = hdr.payload + hdr.length;
 639              		.loc 2 674 6
 640 0072 22D2     		sw	s0,36(sp)
 675:C:/Users/stapi/OneDrive/Desktop/GD32VW553/V1_MQTT_OK/GD32VW55X_Wifi_BLE_SDK/GD32VW55x_RELEASE_V1.0.2/MSDK/wpa_supplicant/src/tls\tlsv1_client_ocsp.c **** 
 641              		.loc 2 675 2 is_stmt 1
 642              	.LVL42:
 678:C:/Users/stapi/OneDrive/Desktop/GD32VW553/V1_MQTT_OK/GD32VW55X_Wifi_BLE_SDK/GD32VW55x_RELEASE_V1.0.2/MSDK/wpa_supplicant/src/tls\tlsv1_client_ocsp.c **** 	    !asn1_is_enumerated(&hdr) || hdr.length != 1) {
 643              		.loc 2 678 2
 678:C:/Users/stapi/OneDrive/Desktop/GD32VW553/V1_MQTT_OK/GD32VW55X_Wifi_BLE_SDK/GD32VW55x_RELEASE_V1.0.2/MSDK/wpa_supplicant/src/tls\tlsv1_client_ocsp.c **** 	    !asn1_is_enumerated(&hdr) || hdr.length != 1) {
 644              		.loc 2 678 6 is_stmt 0
 645 0074 97000000 		call	asn1_get_next
 645      E7800000 
 646              	.LVL43:
 678:C:/Users/stapi/OneDrive/Desktop/GD32VW553/V1_MQTT_OK/GD32VW55X_Wifi_BLE_SDK/GD32VW55x_RELEASE_V1.0.2/MSDK/wpa_supplicant/src/tls\tlsv1_client_ocsp.c **** 	    !asn1_is_enumerated(&hdr) || hdr.length != 1) {
 647              		.loc 2 678 5
 648 007c 634D0500 		blt	a0,zero,.L25
 649              	.LVL44:
 650              	.LBB45:
 651              	.LBB46:
 108:C:/Users/stapi/OneDrive/Desktop/GD32VW553/V1_MQTT_OK/GD32VW55X_Wifi_BLE_SDK/GD32VW55x_RELEASE_V1.0.2/MSDK/wpa_supplicant/src/tls\asn1.h **** 		hdr->tag == ASN1_TAG_ENUMERATED;
 652              		.loc 1 108 2 is_stmt 1
 108:C:/Users/stapi/OneDrive/Desktop/GD32VW553/V1_MQTT_OK/GD32VW55X_Wifi_BLE_SDK/GD32VW55x_RELEASE_V1.0.2/MSDK/wpa_supplicant/src/tls\asn1.h **** 		hdr->tag == ASN1_TAG_ENUMERATED;
 653              		.loc 1 108 44 is_stmt 0
 654 0080 83475104 		lbu	a5,69(sp)
 655 0084 89EB     		bne	a5,zero,.L25
 656 0086 2647     		lw	a4,72(sp)
 657 0088 A947     		li	a5,10
 658 008a 6316F700 		bne	a4,a5,.L25
 659              	.LVL45:
 660              	.LBE46:
 661              	.LBE45:
 679:C:/Users/stapi/OneDrive/Desktop/GD32VW553/V1_MQTT_OK/GD32VW55X_Wifi_BLE_SDK/GD32VW55x_RELEASE_V1.0.2/MSDK/wpa_supplicant/src/tls\tlsv1_client_ocsp.c **** 		asn1_unexpected(&hdr,
 662              		.loc 2 679 38
 663 008e 3649     		lw	s2,76(sp)
 679:C:/Users/stapi/OneDrive/Desktop/GD32VW553/V1_MQTT_OK/GD32VW55X_Wifi_BLE_SDK/GD32VW55x_RELEASE_V1.0.2/MSDK/wpa_supplicant/src/tls\tlsv1_client_ocsp.c **** 		asn1_unexpected(&hdr,
 664              		.loc 2 679 32
 665 0090 8547     		li	a5,1
 666 0092 6307F900 		beq	s2,a5,.L26
 667              	.L25:
 680:C:/Users/stapi/OneDrive/Desktop/GD32VW553/V1_MQTT_OK/GD32VW55X_Wifi_BLE_SDK/GD32VW55x_RELEASE_V1.0.2/MSDK/wpa_supplicant/src/tls\tlsv1_client_ocsp.c **** 				"OCSP: Expected ENUMERATED (responseStatus)");
 668              		.loc 2 680 3 is_stmt 1
 669 0096 B7050000 		lui	a1,%hi(.LC7)
 670 009a 93850500 		addi	a1,a1,%lo(.LC7)
 671 009e 45BF     		j	.L166
 672              	.L26:
 684:C:/Users/stapi/OneDrive/Desktop/GD32VW553/V1_MQTT_OK/GD32VW55X_Wifi_BLE_SDK/GD32VW55x_RELEASE_V1.0.2/MSDK/wpa_supplicant/src/tls\tlsv1_client_ocsp.c **** 	wpa_printf(MSG_DEBUG, "OCSP: responseStatus %u", resp_status);
 673              		.loc 2 684 2
 684:C:/Users/stapi/OneDrive/Desktop/GD32VW553/V1_MQTT_OK/GD32VW55X_Wifi_BLE_SDK/GD32VW55x_RELEASE_V1.0.2/MSDK/wpa_supplicant/src/tls\tlsv1_client_ocsp.c **** 	wpa_printf(MSG_DEBUG, "OCSP: responseStatus %u", resp_status);
 674              		.loc 2 684 14 is_stmt 0
 675 00a0 8647     		lw	a5,64(sp)
 685:C:/Users/stapi/OneDrive/Desktop/GD32VW553/V1_MQTT_OK/GD32VW55X_Wifi_BLE_SDK/GD32VW55x_RELEASE_V1.0.2/MSDK/wpa_supplicant/src/tls\tlsv1_client_ocsp.c **** 	pos = hdr.payload + hdr.length;
 676              		.loc 2 685 2
 677 00a2 B7050000 		lui	a1,%hi(.LC8)
 678 00a6 0945     		li	a0,2
 684:C:/Users/stapi/OneDrive/Desktop/GD32VW553/V1_MQTT_OK/GD32VW55X_Wifi_BLE_SDK/GD32VW55x_RELEASE_V1.0.2/MSDK/wpa_supplicant/src/tls\tlsv1_client_ocsp.c **** 	wpa_printf(MSG_DEBUG, "OCSP: responseStatus %u", resp_status);
 679              		.loc 2 684 14
 680 00a8 83C90700 		lbu	s3,0(a5)
 681              	.LVL46:
 685:C:/Users/stapi/OneDrive/Desktop/GD32VW553/V1_MQTT_OK/GD32VW55X_Wifi_BLE_SDK/GD32VW55x_RELEASE_V1.0.2/MSDK/wpa_supplicant/src/tls\tlsv1_client_ocsp.c **** 	pos = hdr.payload + hdr.length;
 682              		.loc 2 685 2 is_stmt 1
 683 00ac 93850500 		addi	a1,a1,%lo(.LC8)
 684 00b0 4E86     		mv	a2,s3
 685 00b2 97000000 		call	wpa_printf
 685      E7800000 
 686              	.LVL47:
 686:C:/Users/stapi/OneDrive/Desktop/GD32VW553/V1_MQTT_OK/GD32VW55X_Wifi_BLE_SDK/GD32VW55x_RELEASE_V1.0.2/MSDK/wpa_supplicant/src/tls\tlsv1_client_ocsp.c **** 	if (resp_status != OCSP_RESP_STATUS_SUCCESSFUL) {
 687              		.loc 2 686 2
 686:C:/Users/stapi/OneDrive/Desktop/GD32VW553/V1_MQTT_OK/GD32VW55X_Wifi_BLE_SDK/GD32VW55x_RELEASE_V1.0.2/MSDK/wpa_supplicant/src/tls\tlsv1_client_ocsp.c **** 	if (resp_status != OCSP_RESP_STATUS_SUCCESSFUL) {
 688              		.loc 2 686 20 is_stmt 0
 689 00ba 0645     		lw	a0,64(sp)
 690 00bc B647     		lw	a5,76(sp)
 691 00be 3E95     		add	a0,a0,a5
 686:C:/Users/stapi/OneDrive/Desktop/GD32VW553/V1_MQTT_OK/GD32VW55X_Wifi_BLE_SDK/GD32VW55x_RELEASE_V1.0.2/MSDK/wpa_supplicant/src/tls\tlsv1_client_ocsp.c **** 	if (resp_status != OCSP_RESP_STATUS_SUCCESSFUL) {
 692              		.loc 2 686 6
 693 00c0 2AD2     		sw	a0,36(sp)
 687:C:/Users/stapi/OneDrive/Desktop/GD32VW553/V1_MQTT_OK/GD32VW55X_Wifi_BLE_SDK/GD32VW55x_RELEASE_V1.0.2/MSDK/wpa_supplicant/src/tls\tlsv1_client_ocsp.c **** 		wpa_printf(MSG_DEBUG, "OCSP: No stapling result");
 694              		.loc 2 687 2 is_stmt 1
 687:C:/Users/stapi/OneDrive/Desktop/GD32VW553/V1_MQTT_OK/GD32VW55X_Wifi_BLE_SDK/GD32VW55x_RELEASE_V1.0.2/MSDK/wpa_supplicant/src/tls\tlsv1_client_ocsp.c **** 		wpa_printf(MSG_DEBUG, "OCSP: No stapling result");
 695              		.loc 2 687 5 is_stmt 0
 696 00c2 638D0900 		beq	s3,zero,.L27
 688:C:/Users/stapi/OneDrive/Desktop/GD32VW553/V1_MQTT_OK/GD32VW55X_Wifi_BLE_SDK/GD32VW55x_RELEASE_V1.0.2/MSDK/wpa_supplicant/src/tls\tlsv1_client_ocsp.c **** 		return TLS_OCSP_NO_RESPONSE;
 697              		.loc 2 688 3 is_stmt 1
 698 00c6 B7050000 		lui	a1,%hi(.LC9)
 699 00ca 93850500 		addi	a1,a1,%lo(.LC9)
 700              	.LVL48:
 701              	.L170:
 727:C:/Users/stapi/OneDrive/Desktop/GD32VW553/V1_MQTT_OK/GD32VW55X_Wifi_BLE_SDK/GD32VW55x_RELEASE_V1.0.2/MSDK/wpa_supplicant/src/tls\tlsv1_client_ocsp.c **** 		return TLS_OCSP_NO_RESPONSE;
 702              		.loc 2 727 3 is_stmt 0
 703 00ce 0945     		li	a0,2
 704 00d0 97000000 		call	wpa_printf
 704      E7800000 
 705              	.LVL49:
 728:C:/Users/stapi/OneDrive/Desktop/GD32VW553/V1_MQTT_OK/GD32VW55X_Wifi_BLE_SDK/GD32VW55x_RELEASE_V1.0.2/MSDK/wpa_supplicant/src/tls\tlsv1_client_ocsp.c **** 	}
 706              		.loc 2 728 3 is_stmt 1
 707              	.L121:
 694:C:/Users/stapi/OneDrive/Desktop/GD32VW553/V1_MQTT_OK/GD32VW55X_Wifi_BLE_SDK/GD32VW55x_RELEASE_V1.0.2/MSDK/wpa_supplicant/src/tls\tlsv1_client_ocsp.c **** 
 708              		.loc 2 694 10 is_stmt 0
 709 00d8 0149     		li	s2,0
 710 00da 41B7     		j	.L21
 711              	.LVL50:
 712              	.L27:
 675:C:/Users/stapi/OneDrive/Desktop/GD32VW553/V1_MQTT_OK/GD32VW55X_Wifi_BLE_SDK/GD32VW55x_RELEASE_V1.0.2/MSDK/wpa_supplicant/src/tls\tlsv1_client_ocsp.c **** 
 713              		.loc 2 675 6
 714 00dc B3059400 		add	a1,s0,s1
 693:C:/Users/stapi/OneDrive/Desktop/GD32VW553/V1_MQTT_OK/GD32VW55X_Wifi_BLE_SDK/GD32VW55x_RELEASE_V1.0.2/MSDK/wpa_supplicant/src/tls\tlsv1_client_ocsp.c **** 		return TLS_OCSP_NO_RESPONSE;
 715              		.loc 2 693 2 is_stmt 1
 693:C:/Users/stapi/OneDrive/Desktop/GD32VW553/V1_MQTT_OK/GD32VW55X_Wifi_BLE_SDK/GD32VW55x_RELEASE_V1.0.2/MSDK/wpa_supplicant/src/tls\tlsv1_client_ocsp.c **** 		return TLS_OCSP_NO_RESPONSE;
 716              		.loc 2 693 5 is_stmt 0
 717 00e0 E30CB5FE 		beq	a0,a1,.L121
 696:C:/Users/stapi/OneDrive/Desktop/GD32VW553/V1_MQTT_OK/GD32VW55X_Wifi_BLE_SDK/GD32VW55x_RELEASE_V1.0.2/MSDK/wpa_supplicant/src/tls\tlsv1_client_ocsp.c **** 	    !asn1_is_cs_tag(&hdr, 0)) {
 718              		.loc 2 696 2 is_stmt 1
 696:C:/Users/stapi/OneDrive/Desktop/GD32VW553/V1_MQTT_OK/GD32VW55X_Wifi_BLE_SDK/GD32VW55x_RELEASE_V1.0.2/MSDK/wpa_supplicant/src/tls\tlsv1_client_ocsp.c **** 	    !asn1_is_cs_tag(&hdr, 0)) {
 719              		.loc 2 696 6 is_stmt 0
 720 00e4 9000     		addi	a2,sp,64
 721 00e6 898D     		sub	a1,a1,a0
 722 00e8 97000000 		call	asn1_get_next
 722      E7800000 
 723              	.LVL51:
 696:C:/Users/stapi/OneDrive/Desktop/GD32VW553/V1_MQTT_OK/GD32VW55X_Wifi_BLE_SDK/GD32VW55x_RELEASE_V1.0.2/MSDK/wpa_supplicant/src/tls\tlsv1_client_ocsp.c **** 	    !asn1_is_cs_tag(&hdr, 0)) {
 724              		.loc 2 696 5
 725 00f0 634A0502 		blt	a0,zero,.L28
 696:C:/Users/stapi/OneDrive/Desktop/GD32VW553/V1_MQTT_OK/GD32VW55X_Wifi_BLE_SDK/GD32VW55x_RELEASE_V1.0.2/MSDK/wpa_supplicant/src/tls\tlsv1_client_ocsp.c **** 	    !asn1_is_cs_tag(&hdr, 0)) {
 726              		.loc 2 696 46 discriminator 1
 727 00f4 83476104 		lbu	a5,70(sp)
 728 00f8 95C7     		beq	a5,zero,.L28
 729              	.LVL52:
 730              	.LBB47:
 731              	.LBB48:
 117:C:/Users/stapi/OneDrive/Desktop/GD32VW553/V1_MQTT_OK/GD32VW55X_Wifi_BLE_SDK/GD32VW55x_RELEASE_V1.0.2/MSDK/wpa_supplicant/src/tls\asn1.h **** 
 118:C:/Users/stapi/OneDrive/Desktop/GD32VW553/V1_MQTT_OK/GD32VW55X_Wifi_BLE_SDK/GD32VW55x_RELEASE_V1.0.2/MSDK/wpa_supplicant/src/tls\asn1.h **** static inline bool asn1_is_set(const struct asn1_hdr *hdr)
 119:C:/Users/stapi/OneDrive/Desktop/GD32VW553/V1_MQTT_OK/GD32VW55X_Wifi_BLE_SDK/GD32VW55x_RELEASE_V1.0.2/MSDK/wpa_supplicant/src/tls\asn1.h **** {
 120:C:/Users/stapi/OneDrive/Desktop/GD32VW553/V1_MQTT_OK/GD32VW55X_Wifi_BLE_SDK/GD32VW55x_RELEASE_V1.0.2/MSDK/wpa_supplicant/src/tls\asn1.h **** 	return hdr->class == ASN1_CLASS_UNIVERSAL &&
 121:C:/Users/stapi/OneDrive/Desktop/GD32VW553/V1_MQTT_OK/GD32VW55X_Wifi_BLE_SDK/GD32VW55x_RELEASE_V1.0.2/MSDK/wpa_supplicant/src/tls\asn1.h **** 		hdr->tag == ASN1_TAG_SET;
 122:C:/Users/stapi/OneDrive/Desktop/GD32VW553/V1_MQTT_OK/GD32VW55X_Wifi_BLE_SDK/GD32VW55x_RELEASE_V1.0.2/MSDK/wpa_supplicant/src/tls\asn1.h **** }
 123:C:/Users/stapi/OneDrive/Desktop/GD32VW553/V1_MQTT_OK/GD32VW55X_Wifi_BLE_SDK/GD32VW55x_RELEASE_V1.0.2/MSDK/wpa_supplicant/src/tls\asn1.h **** 
 124:C:/Users/stapi/OneDrive/Desktop/GD32VW553/V1_MQTT_OK/GD32VW55X_Wifi_BLE_SDK/GD32VW55x_RELEASE_V1.0.2/MSDK/wpa_supplicant/src/tls\asn1.h **** static inline bool asn1_is_octetstring(const struct asn1_hdr *hdr)
 125:C:/Users/stapi/OneDrive/Desktop/GD32VW553/V1_MQTT_OK/GD32VW55X_Wifi_BLE_SDK/GD32VW55x_RELEASE_V1.0.2/MSDK/wpa_supplicant/src/tls\asn1.h **** {
 126:C:/Users/stapi/OneDrive/Desktop/GD32VW553/V1_MQTT_OK/GD32VW55X_Wifi_BLE_SDK/GD32VW55x_RELEASE_V1.0.2/MSDK/wpa_supplicant/src/tls\asn1.h **** 	return hdr->class == ASN1_CLASS_UNIVERSAL &&
 127:C:/Users/stapi/OneDrive/Desktop/GD32VW553/V1_MQTT_OK/GD32VW55X_Wifi_BLE_SDK/GD32VW55x_RELEASE_V1.0.2/MSDK/wpa_supplicant/src/tls\asn1.h **** 		hdr->tag == ASN1_TAG_OCTETSTRING;
 128:C:/Users/stapi/OneDrive/Desktop/GD32VW553/V1_MQTT_OK/GD32VW55X_Wifi_BLE_SDK/GD32VW55x_RELEASE_V1.0.2/MSDK/wpa_supplicant/src/tls\asn1.h **** }
 129:C:/Users/stapi/OneDrive/Desktop/GD32VW553/V1_MQTT_OK/GD32VW55X_Wifi_BLE_SDK/GD32VW55x_RELEASE_V1.0.2/MSDK/wpa_supplicant/src/tls\asn1.h **** 
 130:C:/Users/stapi/OneDrive/Desktop/GD32VW553/V1_MQTT_OK/GD32VW55X_Wifi_BLE_SDK/GD32VW55x_RELEASE_V1.0.2/MSDK/wpa_supplicant/src/tls\asn1.h **** static inline bool asn1_is_bitstring(const struct asn1_hdr *hdr)
 131:C:/Users/stapi/OneDrive/Desktop/GD32VW553/V1_MQTT_OK/GD32VW55X_Wifi_BLE_SDK/GD32VW55x_RELEASE_V1.0.2/MSDK/wpa_supplicant/src/tls\asn1.h **** {
 132:C:/Users/stapi/OneDrive/Desktop/GD32VW553/V1_MQTT_OK/GD32VW55X_Wifi_BLE_SDK/GD32VW55x_RELEASE_V1.0.2/MSDK/wpa_supplicant/src/tls\asn1.h **** 	return hdr->class == ASN1_CLASS_UNIVERSAL &&
 133:C:/Users/stapi/OneDrive/Desktop/GD32VW553/V1_MQTT_OK/GD32VW55X_Wifi_BLE_SDK/GD32VW55x_RELEASE_V1.0.2/MSDK/wpa_supplicant/src/tls\asn1.h **** 		hdr->tag == ASN1_TAG_BITSTRING;
 134:C:/Users/stapi/OneDrive/Desktop/GD32VW553/V1_MQTT_OK/GD32VW55X_Wifi_BLE_SDK/GD32VW55x_RELEASE_V1.0.2/MSDK/wpa_supplicant/src/tls\asn1.h **** }
 135:C:/Users/stapi/OneDrive/Desktop/GD32VW553/V1_MQTT_OK/GD32VW55X_Wifi_BLE_SDK/GD32VW55x_RELEASE_V1.0.2/MSDK/wpa_supplicant/src/tls\asn1.h **** 
 136:C:/Users/stapi/OneDrive/Desktop/GD32VW553/V1_MQTT_OK/GD32VW55X_Wifi_BLE_SDK/GD32VW55x_RELEASE_V1.0.2/MSDK/wpa_supplicant/src/tls\asn1.h **** static inline bool asn1_is_utctime(const struct asn1_hdr *hdr)
 137:C:/Users/stapi/OneDrive/Desktop/GD32VW553/V1_MQTT_OK/GD32VW55X_Wifi_BLE_SDK/GD32VW55x_RELEASE_V1.0.2/MSDK/wpa_supplicant/src/tls\asn1.h **** {
 138:C:/Users/stapi/OneDrive/Desktop/GD32VW553/V1_MQTT_OK/GD32VW55X_Wifi_BLE_SDK/GD32VW55x_RELEASE_V1.0.2/MSDK/wpa_supplicant/src/tls\asn1.h **** 	return hdr->class == ASN1_CLASS_UNIVERSAL &&
 139:C:/Users/stapi/OneDrive/Desktop/GD32VW553/V1_MQTT_OK/GD32VW55X_Wifi_BLE_SDK/GD32VW55x_RELEASE_V1.0.2/MSDK/wpa_supplicant/src/tls\asn1.h **** 		hdr->tag == ASN1_TAG_UTCTIME;
 140:C:/Users/stapi/OneDrive/Desktop/GD32VW553/V1_MQTT_OK/GD32VW55X_Wifi_BLE_SDK/GD32VW55x_RELEASE_V1.0.2/MSDK/wpa_supplicant/src/tls\asn1.h **** }
 141:C:/Users/stapi/OneDrive/Desktop/GD32VW553/V1_MQTT_OK/GD32VW55X_Wifi_BLE_SDK/GD32VW55x_RELEASE_V1.0.2/MSDK/wpa_supplicant/src/tls\asn1.h **** 
 142:C:/Users/stapi/OneDrive/Desktop/GD32VW553/V1_MQTT_OK/GD32VW55X_Wifi_BLE_SDK/GD32VW55x_RELEASE_V1.0.2/MSDK/wpa_supplicant/src/tls\asn1.h **** static inline bool asn1_is_generalizedtime(const struct asn1_hdr *hdr)
 143:C:/Users/stapi/OneDrive/Desktop/GD32VW553/V1_MQTT_OK/GD32VW55X_Wifi_BLE_SDK/GD32VW55x_RELEASE_V1.0.2/MSDK/wpa_supplicant/src/tls\asn1.h **** {
 144:C:/Users/stapi/OneDrive/Desktop/GD32VW553/V1_MQTT_OK/GD32VW55X_Wifi_BLE_SDK/GD32VW55x_RELEASE_V1.0.2/MSDK/wpa_supplicant/src/tls\asn1.h **** 	return hdr->class == ASN1_CLASS_UNIVERSAL &&
 145:C:/Users/stapi/OneDrive/Desktop/GD32VW553/V1_MQTT_OK/GD32VW55X_Wifi_BLE_SDK/GD32VW55x_RELEASE_V1.0.2/MSDK/wpa_supplicant/src/tls\asn1.h **** 		hdr->tag == ASN1_TAG_GENERALIZEDTIME;
 146:C:/Users/stapi/OneDrive/Desktop/GD32VW553/V1_MQTT_OK/GD32VW55X_Wifi_BLE_SDK/GD32VW55x_RELEASE_V1.0.2/MSDK/wpa_supplicant/src/tls\asn1.h **** }
 147:C:/Users/stapi/OneDrive/Desktop/GD32VW553/V1_MQTT_OK/GD32VW55X_Wifi_BLE_SDK/GD32VW55x_RELEASE_V1.0.2/MSDK/wpa_supplicant/src/tls\asn1.h **** 
 148:C:/Users/stapi/OneDrive/Desktop/GD32VW553/V1_MQTT_OK/GD32VW55X_Wifi_BLE_SDK/GD32VW55x_RELEASE_V1.0.2/MSDK/wpa_supplicant/src/tls\asn1.h **** static inline bool asn1_is_string_type(const struct asn1_hdr *hdr)
 149:C:/Users/stapi/OneDrive/Desktop/GD32VW553/V1_MQTT_OK/GD32VW55X_Wifi_BLE_SDK/GD32VW55x_RELEASE_V1.0.2/MSDK/wpa_supplicant/src/tls\asn1.h **** {
 150:C:/Users/stapi/OneDrive/Desktop/GD32VW553/V1_MQTT_OK/GD32VW55X_Wifi_BLE_SDK/GD32VW55x_RELEASE_V1.0.2/MSDK/wpa_supplicant/src/tls\asn1.h **** 	if (hdr->class != ASN1_CLASS_UNIVERSAL || hdr->constructed)
 151:C:/Users/stapi/OneDrive/Desktop/GD32VW553/V1_MQTT_OK/GD32VW55X_Wifi_BLE_SDK/GD32VW55x_RELEASE_V1.0.2/MSDK/wpa_supplicant/src/tls\asn1.h **** 		return false;
 152:C:/Users/stapi/OneDrive/Desktop/GD32VW553/V1_MQTT_OK/GD32VW55X_Wifi_BLE_SDK/GD32VW55x_RELEASE_V1.0.2/MSDK/wpa_supplicant/src/tls\asn1.h **** 	return hdr->tag == ASN1_TAG_UTF8STRING ||
 153:C:/Users/stapi/OneDrive/Desktop/GD32VW553/V1_MQTT_OK/GD32VW55X_Wifi_BLE_SDK/GD32VW55x_RELEASE_V1.0.2/MSDK/wpa_supplicant/src/tls\asn1.h **** 		hdr->tag == ASN1_TAG_NUMERICSTRING ||
 154:C:/Users/stapi/OneDrive/Desktop/GD32VW553/V1_MQTT_OK/GD32VW55X_Wifi_BLE_SDK/GD32VW55x_RELEASE_V1.0.2/MSDK/wpa_supplicant/src/tls\asn1.h **** 		hdr->tag == ASN1_TAG_PRINTABLESTRING ||
 155:C:/Users/stapi/OneDrive/Desktop/GD32VW553/V1_MQTT_OK/GD32VW55X_Wifi_BLE_SDK/GD32VW55x_RELEASE_V1.0.2/MSDK/wpa_supplicant/src/tls\asn1.h **** 		hdr->tag == ASN1_TAG_T61STRING ||
 156:C:/Users/stapi/OneDrive/Desktop/GD32VW553/V1_MQTT_OK/GD32VW55X_Wifi_BLE_SDK/GD32VW55x_RELEASE_V1.0.2/MSDK/wpa_supplicant/src/tls\asn1.h **** 		hdr->tag == ASN1_TAG_VIDEOTEXSTRING ||
 157:C:/Users/stapi/OneDrive/Desktop/GD32VW553/V1_MQTT_OK/GD32VW55X_Wifi_BLE_SDK/GD32VW55x_RELEASE_V1.0.2/MSDK/wpa_supplicant/src/tls\asn1.h **** 		hdr->tag == ASN1_TAG_IA5STRING ||
 158:C:/Users/stapi/OneDrive/Desktop/GD32VW553/V1_MQTT_OK/GD32VW55X_Wifi_BLE_SDK/GD32VW55x_RELEASE_V1.0.2/MSDK/wpa_supplicant/src/tls\asn1.h **** 		hdr->tag == ASN1_TAG_GRAPHICSTRING ||
 159:C:/Users/stapi/OneDrive/Desktop/GD32VW553/V1_MQTT_OK/GD32VW55X_Wifi_BLE_SDK/GD32VW55x_RELEASE_V1.0.2/MSDK/wpa_supplicant/src/tls\asn1.h **** 		hdr->tag == ASN1_TAG_VISIBLESTRING ||
 160:C:/Users/stapi/OneDrive/Desktop/GD32VW553/V1_MQTT_OK/GD32VW55X_Wifi_BLE_SDK/GD32VW55x_RELEASE_V1.0.2/MSDK/wpa_supplicant/src/tls\asn1.h **** 		hdr->tag == ASN1_TAG_GENERALSTRING ||
 161:C:/Users/stapi/OneDrive/Desktop/GD32VW553/V1_MQTT_OK/GD32VW55X_Wifi_BLE_SDK/GD32VW55x_RELEASE_V1.0.2/MSDK/wpa_supplicant/src/tls\asn1.h **** 		hdr->tag == ASN1_TAG_UNIVERSALSTRING ||
 162:C:/Users/stapi/OneDrive/Desktop/GD32VW553/V1_MQTT_OK/GD32VW55X_Wifi_BLE_SDK/GD32VW55x_RELEASE_V1.0.2/MSDK/wpa_supplicant/src/tls\asn1.h **** 		hdr->tag == ASN1_TAG_CHARACTERSTRING ||
 163:C:/Users/stapi/OneDrive/Desktop/GD32VW553/V1_MQTT_OK/GD32VW55X_Wifi_BLE_SDK/GD32VW55x_RELEASE_V1.0.2/MSDK/wpa_supplicant/src/tls\asn1.h **** 		hdr->tag == ASN1_TAG_BMPSTRING;
 164:C:/Users/stapi/OneDrive/Desktop/GD32VW553/V1_MQTT_OK/GD32VW55X_Wifi_BLE_SDK/GD32VW55x_RELEASE_V1.0.2/MSDK/wpa_supplicant/src/tls\asn1.h **** }
 165:C:/Users/stapi/OneDrive/Desktop/GD32VW553/V1_MQTT_OK/GD32VW55X_Wifi_BLE_SDK/GD32VW55x_RELEASE_V1.0.2/MSDK/wpa_supplicant/src/tls\asn1.h **** 
 166:C:/Users/stapi/OneDrive/Desktop/GD32VW553/V1_MQTT_OK/GD32VW55X_Wifi_BLE_SDK/GD32VW55x_RELEASE_V1.0.2/MSDK/wpa_supplicant/src/tls\asn1.h **** static inline bool asn1_is_bmpstring(const struct asn1_hdr *hdr)
 167:C:/Users/stapi/OneDrive/Desktop/GD32VW553/V1_MQTT_OK/GD32VW55X_Wifi_BLE_SDK/GD32VW55x_RELEASE_V1.0.2/MSDK/wpa_supplicant/src/tls\asn1.h **** {
 168:C:/Users/stapi/OneDrive/Desktop/GD32VW553/V1_MQTT_OK/GD32VW55X_Wifi_BLE_SDK/GD32VW55x_RELEASE_V1.0.2/MSDK/wpa_supplicant/src/tls\asn1.h **** 	return hdr->class == ASN1_CLASS_UNIVERSAL &&
 169:C:/Users/stapi/OneDrive/Desktop/GD32VW553/V1_MQTT_OK/GD32VW55X_Wifi_BLE_SDK/GD32VW55x_RELEASE_V1.0.2/MSDK/wpa_supplicant/src/tls\asn1.h **** 		hdr->tag == ASN1_TAG_BMPSTRING;
 170:C:/Users/stapi/OneDrive/Desktop/GD32VW553/V1_MQTT_OK/GD32VW55X_Wifi_BLE_SDK/GD32VW55x_RELEASE_V1.0.2/MSDK/wpa_supplicant/src/tls\asn1.h **** }
 171:C:/Users/stapi/OneDrive/Desktop/GD32VW553/V1_MQTT_OK/GD32VW55X_Wifi_BLE_SDK/GD32VW55x_RELEASE_V1.0.2/MSDK/wpa_supplicant/src/tls\asn1.h **** 
 172:C:/Users/stapi/OneDrive/Desktop/GD32VW553/V1_MQTT_OK/GD32VW55X_Wifi_BLE_SDK/GD32VW55x_RELEASE_V1.0.2/MSDK/wpa_supplicant/src/tls\asn1.h **** static inline bool asn1_is_utf8string(const struct asn1_hdr *hdr)
 173:C:/Users/stapi/OneDrive/Desktop/GD32VW553/V1_MQTT_OK/GD32VW55X_Wifi_BLE_SDK/GD32VW55x_RELEASE_V1.0.2/MSDK/wpa_supplicant/src/tls\asn1.h **** {
 174:C:/Users/stapi/OneDrive/Desktop/GD32VW553/V1_MQTT_OK/GD32VW55X_Wifi_BLE_SDK/GD32VW55x_RELEASE_V1.0.2/MSDK/wpa_supplicant/src/tls\asn1.h **** 	return hdr->class == ASN1_CLASS_UNIVERSAL &&
 175:C:/Users/stapi/OneDrive/Desktop/GD32VW553/V1_MQTT_OK/GD32VW55X_Wifi_BLE_SDK/GD32VW55x_RELEASE_V1.0.2/MSDK/wpa_supplicant/src/tls\asn1.h **** 		hdr->tag == ASN1_TAG_UTF8STRING;
 176:C:/Users/stapi/OneDrive/Desktop/GD32VW553/V1_MQTT_OK/GD32VW55X_Wifi_BLE_SDK/GD32VW55x_RELEASE_V1.0.2/MSDK/wpa_supplicant/src/tls\asn1.h **** }
 177:C:/Users/stapi/OneDrive/Desktop/GD32VW553/V1_MQTT_OK/GD32VW55X_Wifi_BLE_SDK/GD32VW55x_RELEASE_V1.0.2/MSDK/wpa_supplicant/src/tls\asn1.h **** 
 178:C:/Users/stapi/OneDrive/Desktop/GD32VW553/V1_MQTT_OK/GD32VW55X_Wifi_BLE_SDK/GD32VW55x_RELEASE_V1.0.2/MSDK/wpa_supplicant/src/tls\asn1.h **** static inline bool asn1_is_null(const struct asn1_hdr *hdr)
 179:C:/Users/stapi/OneDrive/Desktop/GD32VW553/V1_MQTT_OK/GD32VW55X_Wifi_BLE_SDK/GD32VW55x_RELEASE_V1.0.2/MSDK/wpa_supplicant/src/tls\asn1.h **** {
 180:C:/Users/stapi/OneDrive/Desktop/GD32VW553/V1_MQTT_OK/GD32VW55X_Wifi_BLE_SDK/GD32VW55x_RELEASE_V1.0.2/MSDK/wpa_supplicant/src/tls\asn1.h **** 	return hdr->class == ASN1_CLASS_UNIVERSAL &&
 181:C:/Users/stapi/OneDrive/Desktop/GD32VW553/V1_MQTT_OK/GD32VW55X_Wifi_BLE_SDK/GD32VW55x_RELEASE_V1.0.2/MSDK/wpa_supplicant/src/tls\asn1.h **** 		hdr->tag == ASN1_TAG_NULL;
 182:C:/Users/stapi/OneDrive/Desktop/GD32VW553/V1_MQTT_OK/GD32VW55X_Wifi_BLE_SDK/GD32VW55x_RELEASE_V1.0.2/MSDK/wpa_supplicant/src/tls\asn1.h **** }
 183:C:/Users/stapi/OneDrive/Desktop/GD32VW553/V1_MQTT_OK/GD32VW55X_Wifi_BLE_SDK/GD32VW55x_RELEASE_V1.0.2/MSDK/wpa_supplicant/src/tls\asn1.h **** 
 184:C:/Users/stapi/OneDrive/Desktop/GD32VW553/V1_MQTT_OK/GD32VW55X_Wifi_BLE_SDK/GD32VW55x_RELEASE_V1.0.2/MSDK/wpa_supplicant/src/tls\asn1.h **** static inline bool asn1_is_cs_tag(const struct asn1_hdr *hdr, unsigned int tag)
 185:C:/Users/stapi/OneDrive/Desktop/GD32VW553/V1_MQTT_OK/GD32VW55X_Wifi_BLE_SDK/GD32VW55x_RELEASE_V1.0.2/MSDK/wpa_supplicant/src/tls\asn1.h **** {
 186:C:/Users/stapi/OneDrive/Desktop/GD32VW553/V1_MQTT_OK/GD32VW55X_Wifi_BLE_SDK/GD32VW55x_RELEASE_V1.0.2/MSDK/wpa_supplicant/src/tls\asn1.h **** 	return hdr->class == ASN1_CLASS_CONTEXT_SPECIFIC &&
 732              		.loc 1 186 2 is_stmt 1
 733              		.loc 1 186 51 is_stmt 0
 734 00fa 03475104 		lbu	a4,69(sp)
 735 00fe 8947     		li	a5,2
 736 0100 6312F702 		bne	a4,a5,.L28
 187:C:/Users/stapi/OneDrive/Desktop/GD32VW553/V1_MQTT_OK/GD32VW55X_Wifi_BLE_SDK/GD32VW55x_RELEASE_V1.0.2/MSDK/wpa_supplicant/src/tls\asn1.h **** 		hdr->tag == tag;
 737              		.loc 1 187 6
 738 0104 A647     		lw	a5,72(sp)
 186:C:/Users/stapi/OneDrive/Desktop/GD32VW553/V1_MQTT_OK/GD32VW55X_Wifi_BLE_SDK/GD32VW55x_RELEASE_V1.0.2/MSDK/wpa_supplicant/src/tls\asn1.h **** 		hdr->tag == tag;
 739              		.loc 1 186 51
 740 0106 99EF     		bne	a5,zero,.L28
 741              	.LVL53:
 742              	.LBE48:
 743              	.LBE47:
 709:C:/Users/stapi/OneDrive/Desktop/GD32VW553/V1_MQTT_OK/GD32VW55X_Wifi_BLE_SDK/GD32VW55x_RELEASE_V1.0.2/MSDK/wpa_supplicant/src/tls\tlsv1_client_ocsp.c **** 	    !asn1_is_sequence(&hdr)) {
 744              		.loc 2 709 2 is_stmt 1
 709:C:/Users/stapi/OneDrive/Desktop/GD32VW553/V1_MQTT_OK/GD32VW55X_Wifi_BLE_SDK/GD32VW55x_RELEASE_V1.0.2/MSDK/wpa_supplicant/src/tls\tlsv1_client_ocsp.c **** 	    !asn1_is_sequence(&hdr)) {
 745              		.loc 2 709 6 is_stmt 0
 746 0108 B645     		lw	a1,76(sp)
 747 010a 0645     		lw	a0,64(sp)
 748 010c 9000     		addi	a2,sp,64
 749 010e 97000000 		call	asn1_get_next
 749      E7800000 
 750              	.LVL54:
 709:C:/Users/stapi/OneDrive/Desktop/GD32VW553/V1_MQTT_OK/GD32VW55X_Wifi_BLE_SDK/GD32VW55x_RELEASE_V1.0.2/MSDK/wpa_supplicant/src/tls\tlsv1_client_ocsp.c **** 	    !asn1_is_sequence(&hdr)) {
 751              		.loc 2 709 5
 752 0116 63510502 		bge	a0,zero,.L153
 753              	.L29:
 711:C:/Users/stapi/OneDrive/Desktop/GD32VW553/V1_MQTT_OK/GD32VW55X_Wifi_BLE_SDK/GD32VW55x_RELEASE_V1.0.2/MSDK/wpa_supplicant/src/tls\tlsv1_client_ocsp.c **** 				"OCSP: Expected SEQUENCE (ResponseBytes)");
 754              		.loc 2 711 3 is_stmt 1
 755 011a B7050000 		lui	a1,%hi(.LC11)
 756 011e 93850500 		addi	a1,a1,%lo(.LC11)
 757 0122 29A0     		j	.L167
 758              	.L28:
 698:C:/Users/stapi/OneDrive/Desktop/GD32VW553/V1_MQTT_OK/GD32VW55X_Wifi_BLE_SDK/GD32VW55x_RELEASE_V1.0.2/MSDK/wpa_supplicant/src/tls\tlsv1_client_ocsp.c **** 				"OCSP: Expected [0] EXPLICIT (responseBytes)");
 759              		.loc 2 698 3
 760 0124 B7050000 		lui	a1,%hi(.LC10)
 761 0128 93850500 		addi	a1,a1,%lo(.LC10)
 762              	.L167:
 711:C:/Users/stapi/OneDrive/Desktop/GD32VW553/V1_MQTT_OK/GD32VW55X_Wifi_BLE_SDK/GD32VW55x_RELEASE_V1.0.2/MSDK/wpa_supplicant/src/tls\tlsv1_client_ocsp.c **** 				"OCSP: Expected SEQUENCE (ResponseBytes)");
 763              		.loc 2 711 3 is_stmt 0
 764 012c 8800     		addi	a0,sp,64
 765 012e 97000000 		call	asn1_unexpected
 765      E7800000 
 766              	.LVL55:
 713:C:/Users/stapi/OneDrive/Desktop/GD32VW553/V1_MQTT_OK/GD32VW55X_Wifi_BLE_SDK/GD32VW55x_RELEASE_V1.0.2/MSDK/wpa_supplicant/src/tls\tlsv1_client_ocsp.c **** 	}
 767              		.loc 2 713 3 is_stmt 1
 713:C:/Users/stapi/OneDrive/Desktop/GD32VW553/V1_MQTT_OK/GD32VW55X_Wifi_BLE_SDK/GD32VW55x_RELEASE_V1.0.2/MSDK/wpa_supplicant/src/tls\tlsv1_client_ocsp.c **** 	}
 768              		.loc 2 713 10 is_stmt 0
 769 0136 15B7     		j	.L21
 770              	.L153:
 710:C:/Users/stapi/OneDrive/Desktop/GD32VW553/V1_MQTT_OK/GD32VW55X_Wifi_BLE_SDK/GD32VW55x_RELEASE_V1.0.2/MSDK/wpa_supplicant/src/tls\tlsv1_client_ocsp.c **** 		asn1_unexpected(&hdr,
 771              		.loc 2 710 7 discriminator 1
 772 0138 8800     		addi	a0,sp,64
 773 013a 97000000 		call	asn1_is_sequence
 773      E7800000 
 774              	.LVL56:
 709:C:/Users/stapi/OneDrive/Desktop/GD32VW553/V1_MQTT_OK/GD32VW55X_Wifi_BLE_SDK/GD32VW55x_RELEASE_V1.0.2/MSDK/wpa_supplicant/src/tls\tlsv1_client_ocsp.c **** 	    !asn1_is_sequence(&hdr)) {
 775              		.loc 2 709 55 discriminator 1
 776 0142 61DD     		beq	a0,zero,.L29
 715:C:/Users/stapi/OneDrive/Desktop/GD32VW553/V1_MQTT_OK/GD32VW55X_Wifi_BLE_SDK/GD32VW55x_RELEASE_V1.0.2/MSDK/wpa_supplicant/src/tls\tlsv1_client_ocsp.c **** 	end = hdr.payload + hdr.length;
 777              		.loc 2 715 2 is_stmt 1
 715:C:/Users/stapi/OneDrive/Desktop/GD32VW553/V1_MQTT_OK/GD32VW55X_Wifi_BLE_SDK/GD32VW55x_RELEASE_V1.0.2/MSDK/wpa_supplicant/src/tls\tlsv1_client_ocsp.c **** 	end = hdr.payload + hdr.length;
 778              		.loc 2 715 11 is_stmt 0
 779 0144 0644     		lw	s0,64(sp)
 780              	.LVL57:
 716:C:/Users/stapi/OneDrive/Desktop/GD32VW553/V1_MQTT_OK/GD32VW55X_Wifi_BLE_SDK/GD32VW55x_RELEASE_V1.0.2/MSDK/wpa_supplicant/src/tls\tlsv1_client_ocsp.c **** 
 781              		.loc 2 716 25
 782 0146 B644     		lw	s1,76(sp)
 719:C:/Users/stapi/OneDrive/Desktop/GD32VW553/V1_MQTT_OK/GD32VW55X_Wifi_BLE_SDK/GD32VW55x_RELEASE_V1.0.2/MSDK/wpa_supplicant/src/tls\tlsv1_client_ocsp.c **** 		wpa_printf(MSG_DEBUG,
 783              		.loc 2 719 6
 784 0148 5410     		addi	a3,sp,36
 785 014a 100A     		addi	a2,sp,272
 786 014c A685     		mv	a1,s1
 787 014e 2285     		mv	a0,s0
 715:C:/Users/stapi/OneDrive/Desktop/GD32VW553/V1_MQTT_OK/GD32VW55X_Wifi_BLE_SDK/GD32VW55x_RELEASE_V1.0.2/MSDK/wpa_supplicant/src/tls\tlsv1_client_ocsp.c **** 	end = hdr.payload + hdr.length;
 788              		.loc 2 715 6
 789 0150 22D2     		sw	s0,36(sp)
 716:C:/Users/stapi/OneDrive/Desktop/GD32VW553/V1_MQTT_OK/GD32VW55X_Wifi_BLE_SDK/GD32VW55x_RELEASE_V1.0.2/MSDK/wpa_supplicant/src/tls\tlsv1_client_ocsp.c **** 
 790              		.loc 2 716 2 is_stmt 1
 791              	.LVL58:
 719:C:/Users/stapi/OneDrive/Desktop/GD32VW553/V1_MQTT_OK/GD32VW55X_Wifi_BLE_SDK/GD32VW55x_RELEASE_V1.0.2/MSDK/wpa_supplicant/src/tls\tlsv1_client_ocsp.c **** 		wpa_printf(MSG_DEBUG,
 792              		.loc 2 719 2
 719:C:/Users/stapi/OneDrive/Desktop/GD32VW553/V1_MQTT_OK/GD32VW55X_Wifi_BLE_SDK/GD32VW55x_RELEASE_V1.0.2/MSDK/wpa_supplicant/src/tls\tlsv1_client_ocsp.c **** 		wpa_printf(MSG_DEBUG,
 793              		.loc 2 719 6 is_stmt 0
 794 0152 97000000 		call	asn1_get_oid
 794      E7800000 
 795              	.LVL59:
 719:C:/Users/stapi/OneDrive/Desktop/GD32VW553/V1_MQTT_OK/GD32VW55X_Wifi_BLE_SDK/GD32VW55x_RELEASE_V1.0.2/MSDK/wpa_supplicant/src/tls\tlsv1_client_ocsp.c **** 		wpa_printf(MSG_DEBUG,
 796              		.loc 2 719 5
 797 015a 19C9     		beq	a0,zero,.L32
 720:C:/Users/stapi/OneDrive/Desktop/GD32VW553/V1_MQTT_OK/GD32VW55X_Wifi_BLE_SDK/GD32VW55x_RELEASE_V1.0.2/MSDK/wpa_supplicant/src/tls\tlsv1_client_ocsp.c **** 			   "OCSP: Failed to parse OID (responseType)");
 798              		.loc 2 720 3 is_stmt 1
 799 015c B7050000 		lui	a1,%hi(.LC12)
 800 0160 93850500 		addi	a1,a1,%lo(.LC12)
 801 0164 0945     		li	a0,2
 802 0166 97000000 		call	wpa_printf
 802      E7800000 
 803              	.LVL60:
 722:C:/Users/stapi/OneDrive/Desktop/GD32VW553/V1_MQTT_OK/GD32VW55X_Wifi_BLE_SDK/GD32VW55x_RELEASE_V1.0.2/MSDK/wpa_supplicant/src/tls\tlsv1_client_ocsp.c **** 	}
 804              		.loc 2 722 3
 722:C:/Users/stapi/OneDrive/Desktop/GD32VW553/V1_MQTT_OK/GD32VW55X_Wifi_BLE_SDK/GD32VW55x_RELEASE_V1.0.2/MSDK/wpa_supplicant/src/tls\tlsv1_client_ocsp.c **** 	}
 805              		.loc 2 722 10 is_stmt 0
 806 016e F5B5     		j	.L21
 807              	.L32:
 724:C:/Users/stapi/OneDrive/Desktop/GD32VW553/V1_MQTT_OK/GD32VW55X_Wifi_BLE_SDK/GD32VW55x_RELEASE_V1.0.2/MSDK/wpa_supplicant/src/tls\tlsv1_client_ocsp.c **** 	wpa_printf(MSG_DEBUG, "OCSP: responseType %s", obuf);
 808              		.loc 2 724 2 is_stmt 1
 809 0170 13060005 		li	a2,80
 810 0174 8C01     		addi	a1,sp,192
 811 0176 080A     		addi	a0,sp,272
 812 0178 97000000 		call	asn1_oid_to_str
 812      E7800000 
 813              	.LVL61:
 725:C:/Users/stapi/OneDrive/Desktop/GD32VW553/V1_MQTT_OK/GD32VW55X_Wifi_BLE_SDK/GD32VW55x_RELEASE_V1.0.2/MSDK/wpa_supplicant/src/tls\tlsv1_client_ocsp.c **** 	if (!is_oid_basic_ocsp_resp(&oid)) {
 814              		.loc 2 725 2
 815 0180 B7050000 		lui	a1,%hi(.LC13)
 816 0184 9001     		addi	a2,sp,192
 817 0186 93850500 		addi	a1,a1,%lo(.LC13)
 818 018a 0945     		li	a0,2
 819 018c 97000000 		call	wpa_printf
 819      E7800000 
 820              	.LVL62:
 726:C:/Users/stapi/OneDrive/Desktop/GD32VW553/V1_MQTT_OK/GD32VW55X_Wifi_BLE_SDK/GD32VW55x_RELEASE_V1.0.2/MSDK/wpa_supplicant/src/tls\tlsv1_client_ocsp.c **** 		wpa_printf(MSG_DEBUG, "OCSP: Ignore unsupported response type");
 821              		.loc 2 726 2
 822              	.LBB49:
 823              	.LBB50:
  36:C:/Users/stapi/OneDrive/Desktop/GD32VW553/V1_MQTT_OK/GD32VW55X_Wifi_BLE_SDK/GD32VW55x_RELEASE_V1.0.2/MSDK/wpa_supplicant/src/tls\tlsv1_client_ocsp.c **** 		oid->oid[0] == 1 /* iso */ &&
 824              		.loc 2 36 2
  45:C:/Users/stapi/OneDrive/Desktop/GD32VW553/V1_MQTT_OK/GD32VW55X_Wifi_BLE_SDK/GD32VW55x_RELEASE_V1.0.2/MSDK/wpa_supplicant/src/tls\tlsv1_client_ocsp.c **** 		oid->oid[9] == 1 /* id-pkix-ocsp-basic */;
 825              		.loc 2 45 39 is_stmt 0
 826 0194 03270116 		lw	a4,352(sp)
 827 0198 A947     		li	a5,10
 828 019a 6318F708 		bne	a4,a5,.L33
  36:C:/Users/stapi/OneDrive/Desktop/GD32VW553/V1_MQTT_OK/GD32VW55X_Wifi_BLE_SDK/GD32VW55x_RELEASE_V1.0.2/MSDK/wpa_supplicant/src/tls\tlsv1_client_ocsp.c **** 		oid->oid[0] == 1 /* iso */ &&
 829              		.loc 2 36 24
 830 019e 83270111 		lw	a5,272(sp)
 831 01a2 0547     		li	a4,1
 832 01a4 6393E708 		bne	a5,a4,.L33
  37:C:/Users/stapi/OneDrive/Desktop/GD32VW553/V1_MQTT_OK/GD32VW55X_Wifi_BLE_SDK/GD32VW55x_RELEASE_V1.0.2/MSDK/wpa_supplicant/src/tls\tlsv1_client_ocsp.c **** 		oid->oid[1] == 3 /* identified-organization */ &&
 833              		.loc 2 37 30
 834 01a8 83264111 		lw	a3,276(sp)
 835 01ac 0D47     		li	a4,3
 836 01ae 639EE606 		bne	a3,a4,.L33
  38:C:/Users/stapi/OneDrive/Desktop/GD32VW553/V1_MQTT_OK/GD32VW55X_Wifi_BLE_SDK/GD32VW55x_RELEASE_V1.0.2/MSDK/wpa_supplicant/src/tls\tlsv1_client_ocsp.c **** 		oid->oid[2] == 6 /* dod */ &&
 837              		.loc 2 38 50
 838 01b2 83268111 		lw	a3,280(sp)
 839 01b6 1947     		li	a4,6
 840 01b8 6399E606 		bne	a3,a4,.L33
  39:C:/Users/stapi/OneDrive/Desktop/GD32VW553/V1_MQTT_OK/GD32VW55X_Wifi_BLE_SDK/GD32VW55x_RELEASE_V1.0.2/MSDK/wpa_supplicant/src/tls\tlsv1_client_ocsp.c **** 		oid->oid[3] == 1 /* internet */ &&
 841              		.loc 2 39 30
 842 01bc 0327C111 		lw	a4,284(sp)
 843 01c0 6315F706 		bne	a4,a5,.L33
  40:C:/Users/stapi/OneDrive/Desktop/GD32VW553/V1_MQTT_OK/GD32VW55X_Wifi_BLE_SDK/GD32VW55x_RELEASE_V1.0.2/MSDK/wpa_supplicant/src/tls\tlsv1_client_ocsp.c **** 		oid->oid[4] == 5 /* security */ &&
 844              		.loc 2 40 35
 845 01c4 83270112 		lw	a5,288(sp)
 846 01c8 1547     		li	a4,5
 847 01ca 6390E706 		bne	a5,a4,.L33
  41:C:/Users/stapi/OneDrive/Desktop/GD32VW553/V1_MQTT_OK/GD32VW55X_Wifi_BLE_SDK/GD32VW55x_RELEASE_V1.0.2/MSDK/wpa_supplicant/src/tls\tlsv1_client_ocsp.c **** 		oid->oid[5] == 5 /* mechanisms */ &&
 848              		.loc 2 41 35
 849 01ce 03274112 		lw	a4,292(sp)
 850 01d2 631CF704 		bne	a4,a5,.L33
  42:C:/Users/stapi/OneDrive/Desktop/GD32VW553/V1_MQTT_OK/GD32VW55X_Wifi_BLE_SDK/GD32VW55x_RELEASE_V1.0.2/MSDK/wpa_supplicant/src/tls\tlsv1_client_ocsp.c **** 		oid->oid[6] == 7 /* id-pkix */ &&
 851              		.loc 2 42 37
 852 01d6 03278112 		lw	a4,296(sp)
 853 01da 9D47     		li	a5,7
 854 01dc 6317F704 		bne	a4,a5,.L33
  43:C:/Users/stapi/OneDrive/Desktop/GD32VW553/V1_MQTT_OK/GD32VW55X_Wifi_BLE_SDK/GD32VW55x_RELEASE_V1.0.2/MSDK/wpa_supplicant/src/tls\tlsv1_client_ocsp.c **** 		oid->oid[7] == 48 /* id-ad */ &&
 855              		.loc 2 43 34
 856 01e0 0327C112 		lw	a4,300(sp)
 857 01e4 93070003 		li	a5,48
 858 01e8 6311F704 		bne	a4,a5,.L33
  44:C:/Users/stapi/OneDrive/Desktop/GD32VW553/V1_MQTT_OK/GD32VW55X_Wifi_BLE_SDK/GD32VW55x_RELEASE_V1.0.2/MSDK/wpa_supplicant/src/tls\tlsv1_client_ocsp.c **** 		oid->oid[8] == 1 /* id-pkix-ocsp */ &&
 859              		.loc 2 44 33
 860 01ec 83270113 		lw	a5,304(sp)
 861 01f0 0547     		li	a4,1
 862 01f2 639CE702 		bne	a5,a4,.L33
  46:C:/Users/stapi/OneDrive/Desktop/GD32VW553/V1_MQTT_OK/GD32VW55X_Wifi_BLE_SDK/GD32VW55x_RELEASE_V1.0.2/MSDK/wpa_supplicant/src/tls\tlsv1_client_ocsp.c **** }
 863              		.loc 2 46 11
 864 01f6 83294113 		lw	s3,308(sp)
 865              	.LVL63:
  45:C:/Users/stapi/OneDrive/Desktop/GD32VW553/V1_MQTT_OK/GD32VW55X_Wifi_BLE_SDK/GD32VW55x_RELEASE_V1.0.2/MSDK/wpa_supplicant/src/tls\tlsv1_client_ocsp.c **** 		oid->oid[9] == 1 /* id-pkix-ocsp-basic */;
 866              		.loc 2 45 39
 867 01fa 6398F902 		bne	s3,a5,.L33
 868              	.LVL64:
 869              	.LBE50:
 870              	.LBE49:
 732:C:/Users/stapi/OneDrive/Desktop/GD32VW553/V1_MQTT_OK/GD32VW55X_Wifi_BLE_SDK/GD32VW55x_RELEASE_V1.0.2/MSDK/wpa_supplicant/src/tls\tlsv1_client_ocsp.c **** 	    !asn1_is_octetstring(&hdr)) {
 871              		.loc 2 732 2 is_stmt 1
 732:C:/Users/stapi/OneDrive/Desktop/GD32VW553/V1_MQTT_OK/GD32VW55X_Wifi_BLE_SDK/GD32VW55x_RELEASE_V1.0.2/MSDK/wpa_supplicant/src/tls\tlsv1_client_ocsp.c **** 	    !asn1_is_octetstring(&hdr)) {
 872              		.loc 2 732 6 is_stmt 0
 873 01fe 1255     		lw	a0,36(sp)
 716:C:/Users/stapi/OneDrive/Desktop/GD32VW553/V1_MQTT_OK/GD32VW55X_Wifi_BLE_SDK/GD32VW55x_RELEASE_V1.0.2/MSDK/wpa_supplicant/src/tls\tlsv1_client_ocsp.c **** 
 874              		.loc 2 716 6
 875 0200 B3059400 		add	a1,s0,s1
 732:C:/Users/stapi/OneDrive/Desktop/GD32VW553/V1_MQTT_OK/GD32VW55X_Wifi_BLE_SDK/GD32VW55x_RELEASE_V1.0.2/MSDK/wpa_supplicant/src/tls\tlsv1_client_ocsp.c **** 	    !asn1_is_octetstring(&hdr)) {
 876              		.loc 2 732 6
 877 0204 9000     		addi	a2,sp,64
 878 0206 898D     		sub	a1,a1,a0
 879 0208 97000000 		call	asn1_get_next
 879      E7800000 
 880              	.LVL65:
 732:C:/Users/stapi/OneDrive/Desktop/GD32VW553/V1_MQTT_OK/GD32VW55X_Wifi_BLE_SDK/GD32VW55x_RELEASE_V1.0.2/MSDK/wpa_supplicant/src/tls\tlsv1_client_ocsp.c **** 	    !asn1_is_octetstring(&hdr)) {
 881              		.loc 2 732 5
 882 0210 63520502 		bge	a0,zero,.L154
 883              	.L34:
 734:C:/Users/stapi/OneDrive/Desktop/GD32VW553/V1_MQTT_OK/GD32VW55X_Wifi_BLE_SDK/GD32VW55x_RELEASE_V1.0.2/MSDK/wpa_supplicant/src/tls\tlsv1_client_ocsp.c **** 		return TLS_OCSP_INVALID;
 884              		.loc 2 734 3 is_stmt 1
 885 0214 B7050000 		lui	a1,%hi(.LC15)
 886 0218 93850500 		addi	a1,a1,%lo(.LC15)
 887 021c 8800     		addi	a0,sp,64
 888 021e 97000000 		call	asn1_unexpected
 888      E7800000 
 889              	.LVL66:
 735:C:/Users/stapi/OneDrive/Desktop/GD32VW553/V1_MQTT_OK/GD32VW55X_Wifi_BLE_SDK/GD32VW55x_RELEASE_V1.0.2/MSDK/wpa_supplicant/src/tls\tlsv1_client_ocsp.c **** 	}
 890              		.loc 2 735 3
 735:C:/Users/stapi/OneDrive/Desktop/GD32VW553/V1_MQTT_OK/GD32VW55X_Wifi_BLE_SDK/GD32VW55x_RELEASE_V1.0.2/MSDK/wpa_supplicant/src/tls\tlsv1_client_ocsp.c **** 	}
 891              		.loc 2 735 10 is_stmt 0
 892 0226 4E89     		mv	s2,s3
 893 0228 0DBD     		j	.L21
 894              	.LVL67:
 895              	.L33:
 727:C:/Users/stapi/OneDrive/Desktop/GD32VW553/V1_MQTT_OK/GD32VW55X_Wifi_BLE_SDK/GD32VW55x_RELEASE_V1.0.2/MSDK/wpa_supplicant/src/tls\tlsv1_client_ocsp.c **** 		return TLS_OCSP_NO_RESPONSE;
 896              		.loc 2 727 3 is_stmt 1
 897 022a B7050000 		lui	a1,%hi(.LC14)
 898 022e 93850500 		addi	a1,a1,%lo(.LC14)
 899 0232 71BD     		j	.L170
 900              	.L154:
 901              	.LVL68:
 902              	.LBB51:
 903              	.LBB52:
 126:C:/Users/stapi/OneDrive/Desktop/GD32VW553/V1_MQTT_OK/GD32VW55X_Wifi_BLE_SDK/GD32VW55x_RELEASE_V1.0.2/MSDK/wpa_supplicant/src/tls\asn1.h **** 		hdr->tag == ASN1_TAG_OCTETSTRING;
 904              		.loc 1 126 2
 126:C:/Users/stapi/OneDrive/Desktop/GD32VW553/V1_MQTT_OK/GD32VW55X_Wifi_BLE_SDK/GD32VW55x_RELEASE_V1.0.2/MSDK/wpa_supplicant/src/tls\asn1.h **** 		hdr->tag == ASN1_TAG_OCTETSTRING;
 905              		.loc 1 126 44 is_stmt 0
 906 0234 83475104 		lbu	a5,69(sp)
 907 0238 F1FF     		bne	a5,zero,.L34
 908 023a 2647     		lw	a4,72(sp)
 909 023c 9147     		li	a5,4
 910 023e E31BF7FC 		bne	a4,a5,.L34
 911              	.LVL69:
 912              	.LBE52:
 913              	.LBE51:
 738:C:/Users/stapi/OneDrive/Desktop/GD32VW553/V1_MQTT_OK/GD32VW55X_Wifi_BLE_SDK/GD32VW55x_RELEASE_V1.0.2/MSDK/wpa_supplicant/src/tls\tlsv1_client_ocsp.c **** 	while (cert) {
 914              		.loc 2 738 2 is_stmt 1
 738:C:/Users/stapi/OneDrive/Desktop/GD32VW553/V1_MQTT_OK/GD32VW55X_Wifi_BLE_SDK/GD32VW55x_RELEASE_V1.0.2/MSDK/wpa_supplicant/src/tls\tlsv1_client_ocsp.c **** 	while (cert) {
 915              		.loc 2 738 7 is_stmt 0
 916 0242 03240B22 		lw	s0,544(s6)
 917              	.LVL70:
 739:C:/Users/stapi/OneDrive/Desktop/GD32VW553/V1_MQTT_OK/GD32VW55X_Wifi_BLE_SDK/GD32VW55x_RELEASE_V1.0.2/MSDK/wpa_supplicant/src/tls\tlsv1_client_ocsp.c **** 		if (!cert->ocsp_good && !cert->ocsp_revoked) {
 918              		.loc 2 739 2 is_stmt 1
 658:C:/Users/stapi/OneDrive/Desktop/GD32VW553/V1_MQTT_OK/GD32VW55X_Wifi_BLE_SDK/GD32VW55x_RELEASE_V1.0.2/MSDK/wpa_supplicant/src/tls\tlsv1_client_ocsp.c **** 
 919              		.loc 2 658 23 is_stmt 0
 920 0246 0149     		li	s2,0
 921              	.LVL71:
 922              	.L36:
 739:C:/Users/stapi/OneDrive/Desktop/GD32VW553/V1_MQTT_OK/GD32VW55X_Wifi_BLE_SDK/GD32VW55x_RELEASE_V1.0.2/MSDK/wpa_supplicant/src/tls\tlsv1_client_ocsp.c **** 		if (!cert->ocsp_good && !cert->ocsp_revoked) {
 923              		.loc 2 739 8 is_stmt 1
 924 0248 E30904E0 		beq	s0,zero,.L21
 740:C:/Users/stapi/OneDrive/Desktop/GD32VW553/V1_MQTT_OK/GD32VW55X_Wifi_BLE_SDK/GD32VW55x_RELEASE_V1.0.2/MSDK/wpa_supplicant/src/tls\tlsv1_client_ocsp.c **** 			char sbuf[128];
 925              		.loc 2 740 3
 740:C:/Users/stapi/OneDrive/Desktop/GD32VW553/V1_MQTT_OK/GD32VW55X_Wifi_BLE_SDK/GD32VW55x_RELEASE_V1.0.2/MSDK/wpa_supplicant/src/tls\tlsv1_client_ocsp.c **** 			char sbuf[128];
 926              		.loc 2 740 24 is_stmt 0
 927 024c 83244438 		lw	s1,900(s0)
 928 0250 8D88     		andi	s1,s1,3
 740:C:/Users/stapi/OneDrive/Desktop/GD32VW553/V1_MQTT_OK/GD32VW55X_Wifi_BLE_SDK/GD32VW55x_RELEASE_V1.0.2/MSDK/wpa_supplicant/src/tls\tlsv1_client_ocsp.c **** 			char sbuf[128];
 929              		.loc 2 740 6
 930 0252 E3990420 		bne	s1,zero,.L37
 931              	.LBB53:
 741:C:/Users/stapi/OneDrive/Desktop/GD32VW553/V1_MQTT_OK/GD32VW55X_Wifi_BLE_SDK/GD32VW55x_RELEASE_V1.0.2/MSDK/wpa_supplicant/src/tls\tlsv1_client_ocsp.c **** 
 932              		.loc 2 741 4 is_stmt 1
 743:C:/Users/stapi/OneDrive/Desktop/GD32VW553/V1_MQTT_OK/GD32VW55X_Wifi_BLE_SDK/GD32VW55x_RELEASE_V1.0.2/MSDK/wpa_supplicant/src/tls\tlsv1_client_ocsp.c **** 			wpa_printf(MSG_DEBUG,
 933              		.loc 2 743 4
 934 0256 13060008 		li	a2,128
 935 025a 8C1C     		addi	a1,sp,624
 936 025c 13054418 		addi	a0,s0,388
 937 0260 97000000 		call	x509_name_string
 937      E7800000 
 938              	.LVL72:
 744:C:/Users/stapi/OneDrive/Desktop/GD32VW553/V1_MQTT_OK/GD32VW55X_Wifi_BLE_SDK/GD32VW55x_RELEASE_V1.0.2/MSDK/wpa_supplicant/src/tls\tlsv1_client_ocsp.c **** 				   "OCSP: Trying to find certificate status for %s",
 939              		.loc 2 744 4
 940 0268 B7050000 		lui	a1,%hi(.LC16)
 941 026c 901C     		addi	a2,sp,624
 942 026e 93850500 		addi	a1,a1,%lo(.LC16)
 943 0272 0945     		li	a0,2
 944 0274 97000000 		call	wpa_printf
 944      E7800000 
 945              	.LVL73:
 748:C:/Users/stapi/OneDrive/Desktop/GD32VW553/V1_MQTT_OK/GD32VW55X_Wifi_BLE_SDK/GD32VW55x_RELEASE_V1.0.2/MSDK/wpa_supplicant/src/tls\tlsv1_client_ocsp.c **** 							      hdr.payload,
 946              		.loc 2 748 4
 748:C:/Users/stapi/OneDrive/Desktop/GD32VW553/V1_MQTT_OK/GD32VW55X_Wifi_BLE_SDK/GD32VW55x_RELEASE_V1.0.2/MSDK/wpa_supplicant/src/tls\tlsv1_client_ocsp.c **** 							      hdr.payload,
 947              		.loc 2 748 10 is_stmt 0
 948 027c 064A     		lw	s4,64(sp)
 949 027e B64A     		lw	s5,76(sp)
 950              	.LVL74:
 951              	.LBB54:
 952              	.LBB55:
 348:C:/Users/stapi/OneDrive/Desktop/GD32VW553/V1_MQTT_OK/GD32VW55X_Wifi_BLE_SDK/GD32VW55x_RELEASE_V1.0.2/MSDK/wpa_supplicant/src/tls\tlsv1_client_ocsp.c **** 	const u8 *pos, *end;
 953              		.loc 2 348 2 is_stmt 1
 349:C:/Users/stapi/OneDrive/Desktop/GD32VW553/V1_MQTT_OK/GD32VW55X_Wifi_BLE_SDK/GD32VW55x_RELEASE_V1.0.2/MSDK/wpa_supplicant/src/tls\tlsv1_client_ocsp.c **** 	const u8 *resp_data, *sign_value, *key_hash = NULL, *responses;
 954              		.loc 2 349 2
 350:C:/Users/stapi/OneDrive/Desktop/GD32VW553/V1_MQTT_OK/GD32VW55X_Wifi_BLE_SDK/GD32VW55x_RELEASE_V1.0.2/MSDK/wpa_supplicant/src/tls\tlsv1_client_ocsp.c **** 	const u8 *resp_data_signed;
 955              		.loc 2 350 2
 351:C:/Users/stapi/OneDrive/Desktop/GD32VW553/V1_MQTT_OK/GD32VW55X_Wifi_BLE_SDK/GD32VW55x_RELEASE_V1.0.2/MSDK/wpa_supplicant/src/tls\tlsv1_client_ocsp.c **** 	size_t resp_data_len, sign_value_len, responses_len;
 956              		.loc 2 351 2
 352:C:/Users/stapi/OneDrive/Desktop/GD32VW553/V1_MQTT_OK/GD32VW55X_Wifi_BLE_SDK/GD32VW55x_RELEASE_V1.0.2/MSDK/wpa_supplicant/src/tls\tlsv1_client_ocsp.c **** 	size_t resp_data_signed_len;
 957              		.loc 2 352 2
 353:C:/Users/stapi/OneDrive/Desktop/GD32VW553/V1_MQTT_OK/GD32VW55X_Wifi_BLE_SDK/GD32VW55x_RELEASE_V1.0.2/MSDK/wpa_supplicant/src/tls\tlsv1_client_ocsp.c **** 	struct x509_algorithm_identifier alg;
 958              		.loc 2 353 2
 354:C:/Users/stapi/OneDrive/Desktop/GD32VW553/V1_MQTT_OK/GD32VW55X_Wifi_BLE_SDK/GD32VW55x_RELEASE_V1.0.2/MSDK/wpa_supplicant/src/tls\tlsv1_client_ocsp.c **** 	struct x509_certificate *certs = NULL, *last_cert = NULL;
 959              		.loc 2 354 2
 355:C:/Users/stapi/OneDrive/Desktop/GD32VW553/V1_MQTT_OK/GD32VW55X_Wifi_BLE_SDK/GD32VW55x_RELEASE_V1.0.2/MSDK/wpa_supplicant/src/tls\tlsv1_client_ocsp.c **** 	struct x509_certificate *issuer, *signer;
 960              		.loc 2 355 2
 356:C:/Users/stapi/OneDrive/Desktop/GD32VW553/V1_MQTT_OK/GD32VW55X_Wifi_BLE_SDK/GD32VW55x_RELEASE_V1.0.2/MSDK/wpa_supplicant/src/tls\tlsv1_client_ocsp.c **** 	struct x509_name name; /* used if key_hash == NULL */
 961              		.loc 2 356 2
 357:C:/Users/stapi/OneDrive/Desktop/GD32VW553/V1_MQTT_OK/GD32VW55X_Wifi_BLE_SDK/GD32VW55x_RELEASE_V1.0.2/MSDK/wpa_supplicant/src/tls\tlsv1_client_ocsp.c **** 	char buf[100];
 962              		.loc 2 357 2
 358:C:/Users/stapi/OneDrive/Desktop/GD32VW553/V1_MQTT_OK/GD32VW55X_Wifi_BLE_SDK/GD32VW55x_RELEASE_V1.0.2/MSDK/wpa_supplicant/src/tls\tlsv1_client_ocsp.c **** 	os_time_t produced_at;
 963              		.loc 2 358 2
 359:C:/Users/stapi/OneDrive/Desktop/GD32VW553/V1_MQTT_OK/GD32VW55X_Wifi_BLE_SDK/GD32VW55x_RELEASE_V1.0.2/MSDK/wpa_supplicant/src/tls\tlsv1_client_ocsp.c **** 	enum tls_ocsp_result res;
 964              		.loc 2 359 2
 360:C:/Users/stapi/OneDrive/Desktop/GD32VW553/V1_MQTT_OK/GD32VW55X_Wifi_BLE_SDK/GD32VW55x_RELEASE_V1.0.2/MSDK/wpa_supplicant/src/tls\tlsv1_client_ocsp.c **** 
 965              		.loc 2 360 2
 362:C:/Users/stapi/OneDrive/Desktop/GD32VW553/V1_MQTT_OK/GD32VW55X_Wifi_BLE_SDK/GD32VW55x_RELEASE_V1.0.2/MSDK/wpa_supplicant/src/tls\tlsv1_client_ocsp.c **** 
 966              		.loc 2 362 2
 967 0280 B7050000 		lui	a1,%hi(.LC17)
 968 0284 5286     		mv	a2,s4
 969 0286 D686     		mv	a3,s5
 970 0288 93850500 		addi	a1,a1,%lo(.LC17)
 971 028c 0545     		li	a0,1
 972 028e 97000000 		call	wpa_hexdump
 972      E7800000 
 973              	.LVL75:
 364:C:/Users/stapi/OneDrive/Desktop/GD32VW553/V1_MQTT_OK/GD32VW55X_Wifi_BLE_SDK/GD32VW55x_RELEASE_V1.0.2/MSDK/wpa_supplicant/src/tls\tlsv1_client_ocsp.c **** 
 974              		.loc 2 364 2
 975 0296 13060011 		li	a2,272
 976 029a 8145     		li	a1,0
 977 029c 881D     		addi	a0,sp,752
 978 029e 97000000 		call	os_memset
 978      E7800000 
 979              	.LVL76:
 375:C:/Users/stapi/OneDrive/Desktop/GD32VW553/V1_MQTT_OK/GD32VW55X_Wifi_BLE_SDK/GD32VW55x_RELEASE_V1.0.2/MSDK/wpa_supplicant/src/tls\tlsv1_client_ocsp.c **** 		asn1_unexpected(&hdr,
 980              		.loc 2 375 2
 375:C:/Users/stapi/OneDrive/Desktop/GD32VW553/V1_MQTT_OK/GD32VW55X_Wifi_BLE_SDK/GD32VW55x_RELEASE_V1.0.2/MSDK/wpa_supplicant/src/tls\tlsv1_client_ocsp.c **** 		asn1_unexpected(&hdr,
 981              		.loc 2 375 6 is_stmt 0
 982 02a6 9008     		addi	a2,sp,80
 983 02a8 D685     		mv	a1,s5
 984 02aa 5285     		mv	a0,s4
 985 02ac 97000000 		call	asn1_get_next
 985      E7800000 
 986              	.LVL77:
 375:C:/Users/stapi/OneDrive/Desktop/GD32VW553/V1_MQTT_OK/GD32VW55X_Wifi_BLE_SDK/GD32VW55x_RELEASE_V1.0.2/MSDK/wpa_supplicant/src/tls\tlsv1_client_ocsp.c **** 		asn1_unexpected(&hdr,
 987              		.loc 2 375 5
 988 02b4 63480500 		blt	a0,zero,.L38
 375:C:/Users/stapi/OneDrive/Desktop/GD32VW553/V1_MQTT_OK/GD32VW55X_Wifi_BLE_SDK/GD32VW55x_RELEASE_V1.0.2/MSDK/wpa_supplicant/src/tls\tlsv1_client_ocsp.c **** 		asn1_unexpected(&hdr,
 989              		.loc 2 375 45
 990 02b8 8808     		addi	a0,sp,80
 991 02ba 97000000 		call	asn1_is_sequence
 991      E7800000 
 992              	.LVL78:
 375:C:/Users/stapi/OneDrive/Desktop/GD32VW553/V1_MQTT_OK/GD32VW55X_Wifi_BLE_SDK/GD32VW55x_RELEASE_V1.0.2/MSDK/wpa_supplicant/src/tls\tlsv1_client_ocsp.c **** 		asn1_unexpected(&hdr,
 993              		.loc 2 375 41
 994 02c2 09ED     		bne	a0,zero,.L39
 995              	.L38:
 376:C:/Users/stapi/OneDrive/Desktop/GD32VW553/V1_MQTT_OK/GD32VW55X_Wifi_BLE_SDK/GD32VW55x_RELEASE_V1.0.2/MSDK/wpa_supplicant/src/tls\tlsv1_client_ocsp.c **** 				"OCSP: Expected SEQUENCE (BasicOCSPResponse)");
 996              		.loc 2 376 3 is_stmt 1
 997 02c4 B7050000 		lui	a1,%hi(.LC18)
 998 02c8 93850500 		addi	a1,a1,%lo(.LC18)
 999              	.LVL79:
 1000              	.L168:
 386:C:/Users/stapi/OneDrive/Desktop/GD32VW553/V1_MQTT_OK/GD32VW55X_Wifi_BLE_SDK/GD32VW55x_RELEASE_V1.0.2/MSDK/wpa_supplicant/src/tls\tlsv1_client_ocsp.c **** 				"OCSP: Expected SEQUENCE (ResponseData)");
 1001              		.loc 2 386 3 is_stmt 0
 1002 02cc 8808     		addi	a0,sp,80
 1003              	.LVL80:
 1004              	.L169:
 1005 02ce 97000000 		call	asn1_unexpected
 1005      E7800000 
 1006              	.LVL81:
 388:C:/Users/stapi/OneDrive/Desktop/GD32VW553/V1_MQTT_OK/GD32VW55X_Wifi_BLE_SDK/GD32VW55x_RELEASE_V1.0.2/MSDK/wpa_supplicant/src/tls\tlsv1_client_ocsp.c **** 	}
 1007              		.loc 2 388 3 is_stmt 1
 1008              	.L165:
 644:C:/Users/stapi/OneDrive/Desktop/GD32VW553/V1_MQTT_OK/GD32VW55X_Wifi_BLE_SDK/GD32VW55x_RELEASE_V1.0.2/MSDK/wpa_supplicant/src/tls\tlsv1_client_ocsp.c **** }
 1009              		.loc 2 644 2
 644:C:/Users/stapi/OneDrive/Desktop/GD32VW553/V1_MQTT_OK/GD32VW55X_Wifi_BLE_SDK/GD32VW55x_RELEASE_V1.0.2/MSDK/wpa_supplicant/src/tls\tlsv1_client_ocsp.c **** }
 1010              		.loc 2 644 9 is_stmt 0
 1011 02d6 CE84     		mv	s1,s3
 1012 02d8 6F00D017 		j	.L40
 1013              	.LVL82:
 1014              	.L39:
 380:C:/Users/stapi/OneDrive/Desktop/GD32VW553/V1_MQTT_OK/GD32VW55X_Wifi_BLE_SDK/GD32VW55x_RELEASE_V1.0.2/MSDK/wpa_supplicant/src/tls\tlsv1_client_ocsp.c **** 	end = hdr.payload + hdr.length;
 1015              		.loc 2 380 2 is_stmt 1
 380:C:/Users/stapi/OneDrive/Desktop/GD32VW553/V1_MQTT_OK/GD32VW55X_Wifi_BLE_SDK/GD32VW55x_RELEASE_V1.0.2/MSDK/wpa_supplicant/src/tls\tlsv1_client_ocsp.c **** 	end = hdr.payload + hdr.length;
 1016              		.loc 2 380 11 is_stmt 0
 1017 02dc C64A     		lw	s5,80(sp)
 1018              	.LVL83:
 381:C:/Users/stapi/OneDrive/Desktop/GD32VW553/V1_MQTT_OK/GD32VW55X_Wifi_BLE_SDK/GD32VW55x_RELEASE_V1.0.2/MSDK/wpa_supplicant/src/tls\tlsv1_client_ocsp.c **** 
 1019              		.loc 2 381 25
 1020 02de 764A     		lw	s4,92(sp)
 1021              	.LVL84:
 384:C:/Users/stapi/OneDrive/Desktop/GD32VW553/V1_MQTT_OK/GD32VW55X_Wifi_BLE_SDK/GD32VW55x_RELEASE_V1.0.2/MSDK/wpa_supplicant/src/tls\tlsv1_client_ocsp.c **** 	    !asn1_is_sequence(&hdr)) {
 1022              		.loc 2 384 6
 1023 02e0 9008     		addi	a2,sp,80
 1024 02e2 5685     		mv	a0,s5
 1025 02e4 D285     		mv	a1,s4
 380:C:/Users/stapi/OneDrive/Desktop/GD32VW553/V1_MQTT_OK/GD32VW55X_Wifi_BLE_SDK/GD32VW55x_RELEASE_V1.0.2/MSDK/wpa_supplicant/src/tls\tlsv1_client_ocsp.c **** 	end = hdr.payload + hdr.length;
 1026              		.loc 2 380 6
 1027 02e6 56D4     		sw	s5,40(sp)
 381:C:/Users/stapi/OneDrive/Desktop/GD32VW553/V1_MQTT_OK/GD32VW55X_Wifi_BLE_SDK/GD32VW55x_RELEASE_V1.0.2/MSDK/wpa_supplicant/src/tls\tlsv1_client_ocsp.c **** 
 1028              		.loc 2 381 2 is_stmt 1
 1029              	.LVL85:
 384:C:/Users/stapi/OneDrive/Desktop/GD32VW553/V1_MQTT_OK/GD32VW55X_Wifi_BLE_SDK/GD32VW55x_RELEASE_V1.0.2/MSDK/wpa_supplicant/src/tls\tlsv1_client_ocsp.c **** 	    !asn1_is_sequence(&hdr)) {
 1030              		.loc 2 384 2
 384:C:/Users/stapi/OneDrive/Desktop/GD32VW553/V1_MQTT_OK/GD32VW55X_Wifi_BLE_SDK/GD32VW55x_RELEASE_V1.0.2/MSDK/wpa_supplicant/src/tls\tlsv1_client_ocsp.c **** 	    !asn1_is_sequence(&hdr)) {
 1031              		.loc 2 384 6 is_stmt 0
 1032 02e8 97000000 		call	asn1_get_next
 1032      E7800000 
 1033              	.LVL86:
 384:C:/Users/stapi/OneDrive/Desktop/GD32VW553/V1_MQTT_OK/GD32VW55X_Wifi_BLE_SDK/GD32VW55x_RELEASE_V1.0.2/MSDK/wpa_supplicant/src/tls\tlsv1_client_ocsp.c **** 	    !asn1_is_sequence(&hdr)) {
 1034              		.loc 2 384 5
 1035 02f0 63480500 		blt	a0,zero,.L41
 385:C:/Users/stapi/OneDrive/Desktop/GD32VW553/V1_MQTT_OK/GD32VW55X_Wifi_BLE_SDK/GD32VW55x_RELEASE_V1.0.2/MSDK/wpa_supplicant/src/tls\tlsv1_client_ocsp.c **** 		asn1_unexpected(&hdr,
 1036              		.loc 2 385 7
 1037 02f4 8808     		addi	a0,sp,80
 1038 02f6 97000000 		call	asn1_is_sequence
 1038      E7800000 
 1039              	.LVL87:
 384:C:/Users/stapi/OneDrive/Desktop/GD32VW553/V1_MQTT_OK/GD32VW55X_Wifi_BLE_SDK/GD32VW55x_RELEASE_V1.0.2/MSDK/wpa_supplicant/src/tls\tlsv1_client_ocsp.c **** 	    !asn1_is_sequence(&hdr)) {
 1040              		.loc 2 384 46
 1041 02fe 11E5     		bne	a0,zero,.L42
 1042              	.L41:
 386:C:/Users/stapi/OneDrive/Desktop/GD32VW553/V1_MQTT_OK/GD32VW55X_Wifi_BLE_SDK/GD32VW55x_RELEASE_V1.0.2/MSDK/wpa_supplicant/src/tls\tlsv1_client_ocsp.c **** 				"OCSP: Expected SEQUENCE (ResponseData)");
 1043              		.loc 2 386 3 is_stmt 1
 1044 0300 B7050000 		lui	a1,%hi(.LC19)
 1045 0304 93850500 		addi	a1,a1,%lo(.LC19)
 1046 0308 D1B7     		j	.L168
 1047              	.L42:
 390:C:/Users/stapi/OneDrive/Desktop/GD32VW553/V1_MQTT_OK/GD32VW55X_Wifi_BLE_SDK/GD32VW55x_RELEASE_V1.0.2/MSDK/wpa_supplicant/src/tls\tlsv1_client_ocsp.c **** 	resp_data_len = hdr.length;
 1048              		.loc 2 390 12 is_stmt 0
 1049 030a C64B     		lw	s7,80(sp)
 391:C:/Users/stapi/OneDrive/Desktop/GD32VW553/V1_MQTT_OK/GD32VW55X_Wifi_BLE_SDK/GD32VW55x_RELEASE_V1.0.2/MSDK/wpa_supplicant/src/tls\tlsv1_client_ocsp.c **** 	resp_data_signed = pos;
 1050              		.loc 2 391 16
 1051 030c F64D     		lw	s11,92(sp)
 392:C:/Users/stapi/OneDrive/Desktop/GD32VW553/V1_MQTT_OK/GD32VW55X_Wifi_BLE_SDK/GD32VW55x_RELEASE_V1.0.2/MSDK/wpa_supplicant/src/tls\tlsv1_client_ocsp.c **** 	pos = hdr.payload + hdr.length;
 1052              		.loc 2 392 19
 1053 030e A257     		lw	a5,40(sp)
 381:C:/Users/stapi/OneDrive/Desktop/GD32VW553/V1_MQTT_OK/GD32VW55X_Wifi_BLE_SDK/GD32VW55x_RELEASE_V1.0.2/MSDK/wpa_supplicant/src/tls\tlsv1_client_ocsp.c **** 
 1054              		.loc 2 381 6
 1055 0310 D29A     		add	s5,s5,s4
 1056              	.LVL88:
 390:C:/Users/stapi/OneDrive/Desktop/GD32VW553/V1_MQTT_OK/GD32VW55X_Wifi_BLE_SDK/GD32VW55x_RELEASE_V1.0.2/MSDK/wpa_supplicant/src/tls\tlsv1_client_ocsp.c **** 	resp_data_len = hdr.length;
 1057              		.loc 2 390 2 is_stmt 1
 391:C:/Users/stapi/OneDrive/Desktop/GD32VW553/V1_MQTT_OK/GD32VW55X_Wifi_BLE_SDK/GD32VW55x_RELEASE_V1.0.2/MSDK/wpa_supplicant/src/tls\tlsv1_client_ocsp.c **** 	resp_data_signed = pos;
 1058              		.loc 2 391 2
 392:C:/Users/stapi/OneDrive/Desktop/GD32VW553/V1_MQTT_OK/GD32VW55X_Wifi_BLE_SDK/GD32VW55x_RELEASE_V1.0.2/MSDK/wpa_supplicant/src/tls\tlsv1_client_ocsp.c **** 	pos = hdr.payload + hdr.length;
 1059              		.loc 2 392 2
 393:C:/Users/stapi/OneDrive/Desktop/GD32VW553/V1_MQTT_OK/GD32VW55X_Wifi_BLE_SDK/GD32VW55x_RELEASE_V1.0.2/MSDK/wpa_supplicant/src/tls\tlsv1_client_ocsp.c **** 	resp_data_signed_len = pos - resp_data_signed;
 1060              		.loc 2 393 20 is_stmt 0
 1061 0312 338ABB01 		add	s4,s7,s11
 397:C:/Users/stapi/OneDrive/Desktop/GD32VW553/V1_MQTT_OK/GD32VW55X_Wifi_BLE_SDK/GD32VW55x_RELEASE_V1.0.2/MSDK/wpa_supplicant/src/tls\tlsv1_client_ocsp.c **** 		return TLS_OCSP_INVALID;
 1062              		.loc 2 397 6
 1063 0316 3410     		addi	a3,sp,40
 1064 0318 D012     		addi	a2,sp,356
 1065 031a B3854A41 		sub	a1,s5,s4
 1066 031e 5285     		mv	a0,s4
 392:C:/Users/stapi/OneDrive/Desktop/GD32VW553/V1_MQTT_OK/GD32VW55X_Wifi_BLE_SDK/GD32VW55x_RELEASE_V1.0.2/MSDK/wpa_supplicant/src/tls\tlsv1_client_ocsp.c **** 	pos = hdr.payload + hdr.length;
 1067              		.loc 2 392 19
 1068 0320 3EC4     		sw	a5,8(sp)
 1069              	.LVL89:
 393:C:/Users/stapi/OneDrive/Desktop/GD32VW553/V1_MQTT_OK/GD32VW55X_Wifi_BLE_SDK/GD32VW55x_RELEASE_V1.0.2/MSDK/wpa_supplicant/src/tls\tlsv1_client_ocsp.c **** 	resp_data_signed_len = pos - resp_data_signed;
 1070              		.loc 2 393 2 is_stmt 1
 393:C:/Users/stapi/OneDrive/Desktop/GD32VW553/V1_MQTT_OK/GD32VW55X_Wifi_BLE_SDK/GD32VW55x_RELEASE_V1.0.2/MSDK/wpa_supplicant/src/tls\tlsv1_client_ocsp.c **** 	resp_data_signed_len = pos - resp_data_signed;
 1071              		.loc 2 393 6 is_stmt 0
 1072 0322 52D4     		sw	s4,40(sp)
 394:C:/Users/stapi/OneDrive/Desktop/GD32VW553/V1_MQTT_OK/GD32VW55X_Wifi_BLE_SDK/GD32VW55x_RELEASE_V1.0.2/MSDK/wpa_supplicant/src/tls\tlsv1_client_ocsp.c **** 
 1073              		.loc 2 394 2 is_stmt 1
 1074              	.LVL90:
 397:C:/Users/stapi/OneDrive/Desktop/GD32VW553/V1_MQTT_OK/GD32VW55X_Wifi_BLE_SDK/GD32VW55x_RELEASE_V1.0.2/MSDK/wpa_supplicant/src/tls\tlsv1_client_ocsp.c **** 		return TLS_OCSP_INVALID;
 1075              		.loc 2 397 2
 397:C:/Users/stapi/OneDrive/Desktop/GD32VW553/V1_MQTT_OK/GD32VW55X_Wifi_BLE_SDK/GD32VW55x_RELEASE_V1.0.2/MSDK/wpa_supplicant/src/tls\tlsv1_client_ocsp.c **** 		return TLS_OCSP_INVALID;
 1076              		.loc 2 397 6 is_stmt 0
 1077 0324 97000000 		call	x509_parse_algorithm_identifier
 1077      E7800000 
 1078              	.LVL91:
 397:C:/Users/stapi/OneDrive/Desktop/GD32VW553/V1_MQTT_OK/GD32VW55X_Wifi_BLE_SDK/GD32VW55x_RELEASE_V1.0.2/MSDK/wpa_supplicant/src/tls\tlsv1_client_ocsp.c **** 		return TLS_OCSP_INVALID;
 1079              		.loc 2 397 5
 1080 032c 4DF5     		bne	a0,zero,.L165
 401:C:/Users/stapi/OneDrive/Desktop/GD32VW553/V1_MQTT_OK/GD32VW55X_Wifi_BLE_SDK/GD32VW55x_RELEASE_V1.0.2/MSDK/wpa_supplicant/src/tls\tlsv1_client_ocsp.c **** 	    !asn1_is_bitstring(&hdr)) {
 1081              		.loc 2 401 2 is_stmt 1
 401:C:/Users/stapi/OneDrive/Desktop/GD32VW553/V1_MQTT_OK/GD32VW55X_Wifi_BLE_SDK/GD32VW55x_RELEASE_V1.0.2/MSDK/wpa_supplicant/src/tls\tlsv1_client_ocsp.c **** 	    !asn1_is_bitstring(&hdr)) {
 1082              		.loc 2 401 6 is_stmt 0
 1083 032e 2255     		lw	a0,40(sp)
 1084 0330 9008     		addi	a2,sp,80
 1085 0332 B385AA40 		sub	a1,s5,a0
 1086 0336 97000000 		call	asn1_get_next
 1086      E7800000 
 1087              	.LVL92:
 401:C:/Users/stapi/OneDrive/Desktop/GD32VW553/V1_MQTT_OK/GD32VW55X_Wifi_BLE_SDK/GD32VW55x_RELEASE_V1.0.2/MSDK/wpa_supplicant/src/tls\tlsv1_client_ocsp.c **** 	    !asn1_is_bitstring(&hdr)) {
 1088              		.loc 2 401 5
 1089 033e 634C0502 		blt	a0,zero,.L44
 1090              	.LVL93:
 1091              	.LBB56:
 1092              	.LBB57:
 132:C:/Users/stapi/OneDrive/Desktop/GD32VW553/V1_MQTT_OK/GD32VW55X_Wifi_BLE_SDK/GD32VW55x_RELEASE_V1.0.2/MSDK/wpa_supplicant/src/tls\asn1.h **** 		hdr->tag == ASN1_TAG_BITSTRING;
 1093              		.loc 1 132 2 is_stmt 1
 132:C:/Users/stapi/OneDrive/Desktop/GD32VW553/V1_MQTT_OK/GD32VW55X_Wifi_BLE_SDK/GD32VW55x_RELEASE_V1.0.2/MSDK/wpa_supplicant/src/tls\asn1.h **** 		hdr->tag == ASN1_TAG_BITSTRING;
 1094              		.loc 1 132 44 is_stmt 0
 1095 0342 83475105 		lbu	a5,85(sp)
 1096 0346 85EB     		bne	a5,zero,.L44
 133:C:/Users/stapi/OneDrive/Desktop/GD32VW553/V1_MQTT_OK/GD32VW55X_Wifi_BLE_SDK/GD32VW55x_RELEASE_V1.0.2/MSDK/wpa_supplicant/src/tls\asn1.h **** }
 1097              		.loc 1 133 6
 1098 0348 E647     		lw	a5,88(sp)
 1099 034a 3ECA     		sw	a5,20(sp)
 132:C:/Users/stapi/OneDrive/Desktop/GD32VW553/V1_MQTT_OK/GD32VW55X_Wifi_BLE_SDK/GD32VW55x_RELEASE_V1.0.2/MSDK/wpa_supplicant/src/tls\asn1.h **** 		hdr->tag == ASN1_TAG_BITSTRING;
 1100              		.loc 1 132 44
 1101 034c 5247     		lw	a4,20(sp)
 1102 034e 8D47     		li	a5,3
 1103 0350 6313F702 		bne	a4,a5,.L44
 1104              	.LVL94:
 1105              	.LBE57:
 1106              	.LBE56:
 407:C:/Users/stapi/OneDrive/Desktop/GD32VW553/V1_MQTT_OK/GD32VW55X_Wifi_BLE_SDK/GD32VW55x_RELEASE_V1.0.2/MSDK/wpa_supplicant/src/tls\tlsv1_client_ocsp.c **** 		return TLS_OCSP_INVALID;
 1107              		.loc 2 407 2 is_stmt 1
 407:C:/Users/stapi/OneDrive/Desktop/GD32VW553/V1_MQTT_OK/GD32VW55X_Wifi_BLE_SDK/GD32VW55x_RELEASE_V1.0.2/MSDK/wpa_supplicant/src/tls\tlsv1_client_ocsp.c **** 		return TLS_OCSP_INVALID;
 1108              		.loc 2 407 9 is_stmt 0
 1109 0354 7647     		lw	a4,92(sp)
 407:C:/Users/stapi/OneDrive/Desktop/GD32VW553/V1_MQTT_OK/GD32VW55X_Wifi_BLE_SDK/GD32VW55x_RELEASE_V1.0.2/MSDK/wpa_supplicant/src/tls\tlsv1_client_ocsp.c **** 		return TLS_OCSP_INVALID;
 1110              		.loc 2 407 5
 1111 0356 41D3     		beq	a4,zero,.L165
 409:C:/Users/stapi/OneDrive/Desktop/GD32VW553/V1_MQTT_OK/GD32VW55X_Wifi_BLE_SDK/GD32VW55x_RELEASE_V1.0.2/MSDK/wpa_supplicant/src/tls\tlsv1_client_ocsp.c **** 	if (*pos) {
 1112              		.loc 2 409 2 is_stmt 1
 409:C:/Users/stapi/OneDrive/Desktop/GD32VW553/V1_MQTT_OK/GD32VW55X_Wifi_BLE_SDK/GD32VW55x_RELEASE_V1.0.2/MSDK/wpa_supplicant/src/tls\tlsv1_client_ocsp.c **** 	if (*pos) {
 1113              		.loc 2 409 11 is_stmt 0
 1114 0358 C647     		lw	a5,80(sp)
 409:C:/Users/stapi/OneDrive/Desktop/GD32VW553/V1_MQTT_OK/GD32VW55X_Wifi_BLE_SDK/GD32VW55x_RELEASE_V1.0.2/MSDK/wpa_supplicant/src/tls\tlsv1_client_ocsp.c **** 	if (*pos) {
 1115              		.loc 2 409 6
 1116 035a 3ED4     		sw	a5,40(sp)
 410:C:/Users/stapi/OneDrive/Desktop/GD32VW553/V1_MQTT_OK/GD32VW55X_Wifi_BLE_SDK/GD32VW55x_RELEASE_V1.0.2/MSDK/wpa_supplicant/src/tls\tlsv1_client_ocsp.c **** 		wpa_printf(MSG_DEBUG, "OCSP: BITSTRING - %d unused bits", *pos);
 1117              		.loc 2 410 2 is_stmt 1
 410:C:/Users/stapi/OneDrive/Desktop/GD32VW553/V1_MQTT_OK/GD32VW55X_Wifi_BLE_SDK/GD32VW55x_RELEASE_V1.0.2/MSDK/wpa_supplicant/src/tls\tlsv1_client_ocsp.c **** 		wpa_printf(MSG_DEBUG, "OCSP: BITSTRING - %d unused bits", *pos);
 1118              		.loc 2 410 6 is_stmt 0
 1119 035c 03C60700 		lbu	a2,0(a5)
 410:C:/Users/stapi/OneDrive/Desktop/GD32VW553/V1_MQTT_OK/GD32VW55X_Wifi_BLE_SDK/GD32VW55x_RELEASE_V1.0.2/MSDK/wpa_supplicant/src/tls\tlsv1_client_ocsp.c **** 		wpa_printf(MSG_DEBUG, "OCSP: BITSTRING - %d unused bits", *pos);
 1120              		.loc 2 410 5
 1121 0360 05C2     		beq	a2,zero,.L47
 411:C:/Users/stapi/OneDrive/Desktop/GD32VW553/V1_MQTT_OK/GD32VW55X_Wifi_BLE_SDK/GD32VW55x_RELEASE_V1.0.2/MSDK/wpa_supplicant/src/tls\tlsv1_client_ocsp.c **** 		/* PKCS #1 v1.5 10.2.1:
 1122              		.loc 2 411 3 is_stmt 1
 1123 0362 B7050000 		lui	a1,%hi(.LC21)
 1124 0366 93850500 		addi	a1,a1,%lo(.LC21)
 1125 036a 0945     		li	a0,2
 1126 036c 97000000 		call	wpa_printf
 1126      E7800000 
 1127              	.LVL95:
 416:C:/Users/stapi/OneDrive/Desktop/GD32VW553/V1_MQTT_OK/GD32VW55X_Wifi_BLE_SDK/GD32VW55x_RELEASE_V1.0.2/MSDK/wpa_supplicant/src/tls\tlsv1_client_ocsp.c **** 	}
 1128              		.loc 2 416 3
 1129 0374 8DB7     		j	.L165
 1130              	.L44:
 403:C:/Users/stapi/OneDrive/Desktop/GD32VW553/V1_MQTT_OK/GD32VW55X_Wifi_BLE_SDK/GD32VW55x_RELEASE_V1.0.2/MSDK/wpa_supplicant/src/tls\tlsv1_client_ocsp.c **** 				"OCSP: Expected BITSTRING (signature)");
 1131              		.loc 2 403 3
 1132 0376 B7050000 		lui	a1,%hi(.LC20)
 1133 037a 93850500 		addi	a1,a1,%lo(.LC20)
 1134 037e B9B7     		j	.L168
 1135              	.L47:
 418:C:/Users/stapi/OneDrive/Desktop/GD32VW553/V1_MQTT_OK/GD32VW55X_Wifi_BLE_SDK/GD32VW55x_RELEASE_V1.0.2/MSDK/wpa_supplicant/src/tls\tlsv1_client_ocsp.c **** 	sign_value_len = hdr.length - 1;
 1136              		.loc 2 418 2
 418:C:/Users/stapi/OneDrive/Desktop/GD32VW553/V1_MQTT_OK/GD32VW55X_Wifi_BLE_SDK/GD32VW55x_RELEASE_V1.0.2/MSDK/wpa_supplicant/src/tls\tlsv1_client_ocsp.c **** 	sign_value_len = hdr.length - 1;
 1137              		.loc 2 418 13 is_stmt 0
 1138 0380 93861700 		addi	a3,a5,1
 1139 0384 36C6     		sw	a3,12(sp)
 1140              	.LVL96:
 419:C:/Users/stapi/OneDrive/Desktop/GD32VW553/V1_MQTT_OK/GD32VW55X_Wifi_BLE_SDK/GD32VW55x_RELEASE_V1.0.2/MSDK/wpa_supplicant/src/tls\tlsv1_client_ocsp.c **** 	pos += hdr.length;
 1141              		.loc 2 419 2 is_stmt 1
 421:C:/Users/stapi/OneDrive/Desktop/GD32VW553/V1_MQTT_OK/GD32VW55X_Wifi_BLE_SDK/GD32VW55x_RELEASE_V1.0.2/MSDK/wpa_supplicant/src/tls\tlsv1_client_ocsp.c **** 
 1142              		.loc 2 421 2 is_stmt 0
 1143 0386 3246     		lw	a2,12(sp)
 419:C:/Users/stapi/OneDrive/Desktop/GD32VW553/V1_MQTT_OK/GD32VW55X_Wifi_BLE_SDK/GD32VW55x_RELEASE_V1.0.2/MSDK/wpa_supplicant/src/tls\tlsv1_client_ocsp.c **** 	pos += hdr.length;
 1144              		.loc 2 419 17
 1145 0388 130DF7FF 		addi	s10,a4,-1
 1146              	.LVL97:
 420:C:/Users/stapi/OneDrive/Desktop/GD32VW553/V1_MQTT_OK/GD32VW55X_Wifi_BLE_SDK/GD32VW55x_RELEASE_V1.0.2/MSDK/wpa_supplicant/src/tls\tlsv1_client_ocsp.c **** 	wpa_hexdump(MSG_MSGDUMP, "OCSP: signature", sign_value, sign_value_len);
 1147              		.loc 2 420 2 is_stmt 1
 421:C:/Users/stapi/OneDrive/Desktop/GD32VW553/V1_MQTT_OK/GD32VW55X_Wifi_BLE_SDK/GD32VW55x_RELEASE_V1.0.2/MSDK/wpa_supplicant/src/tls\tlsv1_client_ocsp.c **** 
 1148              		.loc 2 421 2 is_stmt 0
 1149 038c B7050000 		lui	a1,%hi(.LC22)
 420:C:/Users/stapi/OneDrive/Desktop/GD32VW553/V1_MQTT_OK/GD32VW55X_Wifi_BLE_SDK/GD32VW55x_RELEASE_V1.0.2/MSDK/wpa_supplicant/src/tls\tlsv1_client_ocsp.c **** 	wpa_hexdump(MSG_MSGDUMP, "OCSP: signature", sign_value, sign_value_len);
 1150              		.loc 2 420 6
 1151 0390 BA97     		add	a5,a5,a4
 421:C:/Users/stapi/OneDrive/Desktop/GD32VW553/V1_MQTT_OK/GD32VW55X_Wifi_BLE_SDK/GD32VW55x_RELEASE_V1.0.2/MSDK/wpa_supplicant/src/tls\tlsv1_client_ocsp.c **** 
 1152              		.loc 2 421 2
 1153 0392 0545     		li	a0,1
 1154 0394 EA86     		mv	a3,s10
 1155              	.LVL98:
 1156 0396 93850500 		addi	a1,a1,%lo(.LC22)
 420:C:/Users/stapi/OneDrive/Desktop/GD32VW553/V1_MQTT_OK/GD32VW55X_Wifi_BLE_SDK/GD32VW55x_RELEASE_V1.0.2/MSDK/wpa_supplicant/src/tls\tlsv1_client_ocsp.c **** 	wpa_hexdump(MSG_MSGDUMP, "OCSP: signature", sign_value, sign_value_len);
 1157              		.loc 2 420 6
 1158 039a 3ED4     		sw	a5,40(sp)
 421:C:/Users/stapi/OneDrive/Desktop/GD32VW553/V1_MQTT_OK/GD32VW55X_Wifi_BLE_SDK/GD32VW55x_RELEASE_V1.0.2/MSDK/wpa_supplicant/src/tls\tlsv1_client_ocsp.c **** 
 1159              		.loc 2 421 2 is_stmt 1
 1160 039c 97000000 		call	wpa_hexdump
 1160      E7800000 
 1161              	.LVL99:
 424:C:/Users/stapi/OneDrive/Desktop/GD32VW553/V1_MQTT_OK/GD32VW55X_Wifi_BLE_SDK/GD32VW55x_RELEASE_V1.0.2/MSDK/wpa_supplicant/src/tls\tlsv1_client_ocsp.c **** 		if (asn1_get_next(pos, end - pos, &hdr) < 0 ||
 1162              		.loc 2 424 2
 424:C:/Users/stapi/OneDrive/Desktop/GD32VW553/V1_MQTT_OK/GD32VW55X_Wifi_BLE_SDK/GD32VW55x_RELEASE_V1.0.2/MSDK/wpa_supplicant/src/tls\tlsv1_client_ocsp.c **** 		if (asn1_get_next(pos, end - pos, &hdr) < 0 ||
 1163              		.loc 2 424 10 is_stmt 0
 1164 03a4 2255     		lw	a0,40(sp)
 424:C:/Users/stapi/OneDrive/Desktop/GD32VW553/V1_MQTT_OK/GD32VW55X_Wifi_BLE_SDK/GD32VW55x_RELEASE_V1.0.2/MSDK/wpa_supplicant/src/tls\tlsv1_client_ocsp.c **** 		if (asn1_get_next(pos, end - pos, &hdr) < 0 ||
 1165              		.loc 2 424 5
 1166 03a6 637F5513 		bleu	s5,a0,.L122
 425:C:/Users/stapi/OneDrive/Desktop/GD32VW553/V1_MQTT_OK/GD32VW55X_Wifi_BLE_SDK/GD32VW55x_RELEASE_V1.0.2/MSDK/wpa_supplicant/src/tls\tlsv1_client_ocsp.c **** 		    !hdr.constructed || !asn1_is_cs_tag(&hdr, 0)) {
 1167              		.loc 2 425 3 is_stmt 1
 425:C:/Users/stapi/OneDrive/Desktop/GD32VW553/V1_MQTT_OK/GD32VW55X_Wifi_BLE_SDK/GD32VW55x_RELEASE_V1.0.2/MSDK/wpa_supplicant/src/tls\tlsv1_client_ocsp.c **** 		    !hdr.constructed || !asn1_is_cs_tag(&hdr, 0)) {
 1168              		.loc 2 425 7 is_stmt 0
 1169 03aa 9008     		addi	a2,sp,80
 1170 03ac B385AA40 		sub	a1,s5,a0
 1171 03b0 97000000 		call	asn1_get_next
 1171      E7800000 
 1172              	.LVL100:
 425:C:/Users/stapi/OneDrive/Desktop/GD32VW553/V1_MQTT_OK/GD32VW55X_Wifi_BLE_SDK/GD32VW55x_RELEASE_V1.0.2/MSDK/wpa_supplicant/src/tls\tlsv1_client_ocsp.c **** 		    !hdr.constructed || !asn1_is_cs_tag(&hdr, 0)) {
 1173              		.loc 2 425 6
 1174 03b8 634B050A 		blt	a0,zero,.L49
 425:C:/Users/stapi/OneDrive/Desktop/GD32VW553/V1_MQTT_OK/GD32VW55X_Wifi_BLE_SDK/GD32VW55x_RELEASE_V1.0.2/MSDK/wpa_supplicant/src/tls\tlsv1_client_ocsp.c **** 		    !hdr.constructed || !asn1_is_cs_tag(&hdr, 0)) {
 1175              		.loc 2 425 47
 1176 03bc 83476105 		lbu	a5,86(sp)
 1177 03c0 DDC7     		beq	a5,zero,.L49
 1178              	.LVL101:
 1179              	.LBB58:
 1180              	.LBB59:
 186:C:/Users/stapi/OneDrive/Desktop/GD32VW553/V1_MQTT_OK/GD32VW55X_Wifi_BLE_SDK/GD32VW55x_RELEASE_V1.0.2/MSDK/wpa_supplicant/src/tls\asn1.h **** 		hdr->tag == tag;
 1181              		.loc 1 186 2 is_stmt 1
 186:C:/Users/stapi/OneDrive/Desktop/GD32VW553/V1_MQTT_OK/GD32VW55X_Wifi_BLE_SDK/GD32VW55x_RELEASE_V1.0.2/MSDK/wpa_supplicant/src/tls\asn1.h **** 		hdr->tag == tag;
 1182              		.loc 1 186 51 is_stmt 0
 1183 03c2 03475105 		lbu	a4,85(sp)
 1184 03c6 8947     		li	a5,2
 1185 03c8 6313F70A 		bne	a4,a5,.L49
 1186 03cc E647     		lw	a5,88(sp)
 1187 03ce C5E3     		bne	a5,zero,.L49
 1188              	.LVL102:
 1189              	.LBE59:
 1190              	.LBE58:
 431:C:/Users/stapi/OneDrive/Desktop/GD32VW553/V1_MQTT_OK/GD32VW55X_Wifi_BLE_SDK/GD32VW55x_RELEASE_V1.0.2/MSDK/wpa_supplicant/src/tls\tlsv1_client_ocsp.c **** 			    hdr.payload, hdr.length);
 1191              		.loc 2 431 3 is_stmt 1
 1192 03d0 F646     		lw	a3,92(sp)
 1193 03d2 4646     		lw	a2,80(sp)
 1194 03d4 B7050000 		lui	a1,%hi(.LC23)
 1195 03d8 93850500 		addi	a1,a1,%lo(.LC23)
 1196 03dc 0545     		li	a0,1
 1197 03de 97000000 		call	wpa_hexdump
 1197      E7800000 
 1198              	.LVL103:
 433:C:/Users/stapi/OneDrive/Desktop/GD32VW553/V1_MQTT_OK/GD32VW55X_Wifi_BLE_SDK/GD32VW55x_RELEASE_V1.0.2/MSDK/wpa_supplicant/src/tls\tlsv1_client_ocsp.c **** 		end = hdr.payload + hdr.length;
 1199              		.loc 2 433 3
 433:C:/Users/stapi/OneDrive/Desktop/GD32VW553/V1_MQTT_OK/GD32VW55X_Wifi_BLE_SDK/GD32VW55x_RELEASE_V1.0.2/MSDK/wpa_supplicant/src/tls\tlsv1_client_ocsp.c **** 		end = hdr.payload + hdr.length;
 1200              		.loc 2 433 12 is_stmt 0
 1201 03e6 C647     		lw	a5,80(sp)
 434:C:/Users/stapi/OneDrive/Desktop/GD32VW553/V1_MQTT_OK/GD32VW55X_Wifi_BLE_SDK/GD32VW55x_RELEASE_V1.0.2/MSDK/wpa_supplicant/src/tls\tlsv1_client_ocsp.c **** 		while (pos < end) {
 1202              		.loc 2 434 7
 1203 03e8 7647     		lw	a4,92(sp)
 355:C:/Users/stapi/OneDrive/Desktop/GD32VW553/V1_MQTT_OK/GD32VW55X_Wifi_BLE_SDK/GD32VW55x_RELEASE_V1.0.2/MSDK/wpa_supplicant/src/tls\tlsv1_client_ocsp.c **** 	struct x509_certificate *issuer, *signer;
 1204              		.loc 2 355 42
 1205 03ea 014C     		li	s8,0
 433:C:/Users/stapi/OneDrive/Desktop/GD32VW553/V1_MQTT_OK/GD32VW55X_Wifi_BLE_SDK/GD32VW55x_RELEASE_V1.0.2/MSDK/wpa_supplicant/src/tls\tlsv1_client_ocsp.c **** 		end = hdr.payload + hdr.length;
 1206              		.loc 2 433 7
 1207 03ec 3ED4     		sw	a5,40(sp)
 434:C:/Users/stapi/OneDrive/Desktop/GD32VW553/V1_MQTT_OK/GD32VW55X_Wifi_BLE_SDK/GD32VW55x_RELEASE_V1.0.2/MSDK/wpa_supplicant/src/tls\tlsv1_client_ocsp.c **** 		while (pos < end) {
 1208              		.loc 2 434 3 is_stmt 1
 434:C:/Users/stapi/OneDrive/Desktop/GD32VW553/V1_MQTT_OK/GD32VW55X_Wifi_BLE_SDK/GD32VW55x_RELEASE_V1.0.2/MSDK/wpa_supplicant/src/tls\tlsv1_client_ocsp.c **** 		while (pos < end) {
 1209              		.loc 2 434 7 is_stmt 0
 1210 03ee B38CE700 		add	s9,a5,a4
 1211              	.LVL104:
 435:C:/Users/stapi/OneDrive/Desktop/GD32VW553/V1_MQTT_OK/GD32VW55X_Wifi_BLE_SDK/GD32VW55x_RELEASE_V1.0.2/MSDK/wpa_supplicant/src/tls\tlsv1_client_ocsp.c **** 			struct x509_certificate *cert;
 1212              		.loc 2 435 3 is_stmt 1
 355:C:/Users/stapi/OneDrive/Desktop/GD32VW553/V1_MQTT_OK/GD32VW55X_Wifi_BLE_SDK/GD32VW55x_RELEASE_V1.0.2/MSDK/wpa_supplicant/src/tls\tlsv1_client_ocsp.c **** 	struct x509_certificate *issuer, *signer;
 1213              		.loc 2 355 27 is_stmt 0
 1214 03f2 814A     		li	s5,0
 1215              	.LVL105:
 1216              	.L50:
 435:C:/Users/stapi/OneDrive/Desktop/GD32VW553/V1_MQTT_OK/GD32VW55X_Wifi_BLE_SDK/GD32VW55x_RELEASE_V1.0.2/MSDK/wpa_supplicant/src/tls\tlsv1_client_ocsp.c **** 			struct x509_certificate *cert;
 1217              		.loc 2 435 9 is_stmt 1
 435:C:/Users/stapi/OneDrive/Desktop/GD32VW553/V1_MQTT_OK/GD32VW55X_Wifi_BLE_SDK/GD32VW55x_RELEASE_V1.0.2/MSDK/wpa_supplicant/src/tls\tlsv1_client_ocsp.c **** 			struct x509_certificate *cert;
 1218              		.loc 2 435 14 is_stmt 0
 1219 03f4 2255     		lw	a0,40(sp)
 435:C:/Users/stapi/OneDrive/Desktop/GD32VW553/V1_MQTT_OK/GD32VW55X_Wifi_BLE_SDK/GD32VW55x_RELEASE_V1.0.2/MSDK/wpa_supplicant/src/tls\tlsv1_client_ocsp.c **** 			struct x509_certificate *cert;
 1220              		.loc 2 435 9
 1221 03f6 63619509 		bgtu	s9,a0,.L55
 1222              	.LVL106:
 1223              	.L48:
 466:C:/Users/stapi/OneDrive/Desktop/GD32VW553/V1_MQTT_OK/GD32VW55X_Wifi_BLE_SDK/GD32VW55x_RELEASE_V1.0.2/MSDK/wpa_supplicant/src/tls\tlsv1_client_ocsp.c **** 	end = resp_data + resp_data_len;
 1224              		.loc 2 466 2 is_stmt 1
 468:C:/Users/stapi/OneDrive/Desktop/GD32VW553/V1_MQTT_OK/GD32VW55X_Wifi_BLE_SDK/GD32VW55x_RELEASE_V1.0.2/MSDK/wpa_supplicant/src/tls\tlsv1_client_ocsp.c **** 
 1225              		.loc 2 468 2 is_stmt 0
 1226 03fa B7050000 		lui	a1,%hi(.LC26)
 1227 03fe EE86     		mv	a3,s11
 1228 0400 5E86     		mv	a2,s7
 1229 0402 93850500 		addi	a1,a1,%lo(.LC26)
 1230 0406 0545     		li	a0,1
 466:C:/Users/stapi/OneDrive/Desktop/GD32VW553/V1_MQTT_OK/GD32VW55X_Wifi_BLE_SDK/GD32VW55x_RELEASE_V1.0.2/MSDK/wpa_supplicant/src/tls\tlsv1_client_ocsp.c **** 	end = resp_data + resp_data_len;
 1231              		.loc 2 466 6
 1232 0408 5ED4     		sw	s7,40(sp)
 467:C:/Users/stapi/OneDrive/Desktop/GD32VW553/V1_MQTT_OK/GD32VW55X_Wifi_BLE_SDK/GD32VW55x_RELEASE_V1.0.2/MSDK/wpa_supplicant/src/tls\tlsv1_client_ocsp.c **** 	wpa_hexdump(MSG_MSGDUMP, "OCSP: ResponseData", pos, end - pos);
 1233              		.loc 2 467 2 is_stmt 1
 1234              	.LVL107:
 468:C:/Users/stapi/OneDrive/Desktop/GD32VW553/V1_MQTT_OK/GD32VW55X_Wifi_BLE_SDK/GD32VW55x_RELEASE_V1.0.2/MSDK/wpa_supplicant/src/tls\tlsv1_client_ocsp.c **** 
 1235              		.loc 2 468 2
 1236 040a 97000000 		call	wpa_hexdump
 1236      E7800000 
 1237              	.LVL108:
 474:C:/Users/stapi/OneDrive/Desktop/GD32VW553/V1_MQTT_OK/GD32VW55X_Wifi_BLE_SDK/GD32VW55x_RELEASE_V1.0.2/MSDK/wpa_supplicant/src/tls\tlsv1_client_ocsp.c **** 	    asn1_is_cs_tag(&hdr, 0)) {
 1238              		.loc 2 474 2
 474:C:/Users/stapi/OneDrive/Desktop/GD32VW553/V1_MQTT_OK/GD32VW55X_Wifi_BLE_SDK/GD32VW55x_RELEASE_V1.0.2/MSDK/wpa_supplicant/src/tls\tlsv1_client_ocsp.c **** 	    asn1_is_cs_tag(&hdr, 0)) {
 1239              		.loc 2 474 6 is_stmt 0
 1240 0412 2255     		lw	a0,40(sp)
 1241 0414 9008     		addi	a2,sp,80
 1242 0416 B305AA40 		sub	a1,s4,a0
 1243 041a 97000000 		call	asn1_get_next
 1243      E7800000 
 1244              	.LVL109:
 474:C:/Users/stapi/OneDrive/Desktop/GD32VW553/V1_MQTT_OK/GD32VW55X_Wifi_BLE_SDK/GD32VW55x_RELEASE_V1.0.2/MSDK/wpa_supplicant/src/tls\tlsv1_client_ocsp.c **** 	    asn1_is_cs_tag(&hdr, 0)) {
 1245              		.loc 2 474 47
 1246 0422 83476105 		lbu	a5,86(sp)
 1247 0426 638C0712 		beq	a5,zero,.L56
 1248              	.LVL110:
 1249              	.LBB60:
 1250              	.LBB61:
 186:C:/Users/stapi/OneDrive/Desktop/GD32VW553/V1_MQTT_OK/GD32VW55X_Wifi_BLE_SDK/GD32VW55x_RELEASE_V1.0.2/MSDK/wpa_supplicant/src/tls\asn1.h **** 		hdr->tag == tag;
 1251              		.loc 1 186 2 is_stmt 1
 186:C:/Users/stapi/OneDrive/Desktop/GD32VW553/V1_MQTT_OK/GD32VW55X_Wifi_BLE_SDK/GD32VW55x_RELEASE_V1.0.2/MSDK/wpa_supplicant/src/tls\asn1.h **** 		hdr->tag == tag;
 1252              		.loc 1 186 51 is_stmt 0
 1253 042a 834B5105 		lbu	s7,85(sp)
 1254              	.LVL111:
 1255 042e 8947     		li	a5,2
 1256 0430 6397FB12 		bne	s7,a5,.L56
 1257 0434 E647     		lw	a5,88(sp)
 1258 0436 5D8D     		or	a0,a0,a5
 1259 0438 63130512 		bne	a0,zero,.L56
 1260              	.LVL112:
 1261              	.LBE61:
 1262              	.LBE60:
 476:C:/Users/stapi/OneDrive/Desktop/GD32VW553/V1_MQTT_OK/GD32VW55X_Wifi_BLE_SDK/GD32VW55x_RELEASE_V1.0.2/MSDK/wpa_supplicant/src/tls\tlsv1_client_ocsp.c **** 		    !asn1_is_integer(&hdr) || hdr.length != 1) {
 1263              		.loc 2 476 3 is_stmt 1
 476:C:/Users/stapi/OneDrive/Desktop/GD32VW553/V1_MQTT_OK/GD32VW55X_Wifi_BLE_SDK/GD32VW55x_RELEASE_V1.0.2/MSDK/wpa_supplicant/src/tls\tlsv1_client_ocsp.c **** 		    !asn1_is_integer(&hdr) || hdr.length != 1) {
 1264              		.loc 2 476 7 is_stmt 0
 1265 043c 2255     		lw	a0,40(sp)
 1266 043e 9008     		addi	a2,sp,80
 1267 0440 B305AA40 		sub	a1,s4,a0
 1268 0444 97000000 		call	asn1_get_next
 1268      E7800000 
 1269              	.LVL113:
 476:C:/Users/stapi/OneDrive/Desktop/GD32VW553/V1_MQTT_OK/GD32VW55X_Wifi_BLE_SDK/GD32VW55x_RELEASE_V1.0.2/MSDK/wpa_supplicant/src/tls\tlsv1_client_ocsp.c **** 		    !asn1_is_integer(&hdr) || hdr.length != 1) {
 1270              		.loc 2 476 6
 1271 044c 634C0500 		blt	a0,zero,.L57
 1272              	.LVL114:
 1273              	.LBB62:
 1274              	.LBB63:
 102:C:/Users/stapi/OneDrive/Desktop/GD32VW553/V1_MQTT_OK/GD32VW55X_Wifi_BLE_SDK/GD32VW55x_RELEASE_V1.0.2/MSDK/wpa_supplicant/src/tls\asn1.h **** 		hdr->tag == ASN1_TAG_INTEGER;
 1275              		.loc 1 102 2 is_stmt 1
 102:C:/Users/stapi/OneDrive/Desktop/GD32VW553/V1_MQTT_OK/GD32VW55X_Wifi_BLE_SDK/GD32VW55x_RELEASE_V1.0.2/MSDK/wpa_supplicant/src/tls\asn1.h **** 		hdr->tag == ASN1_TAG_INTEGER;
 1276              		.loc 1 102 44 is_stmt 0
 1277 0450 83475105 		lbu	a5,85(sp)
 1278 0454 81EB     		bne	a5,zero,.L57
 1279 0456 E647     		lw	a5,88(sp)
 1280 0458 63967701 		bne	a5,s7,.L57
 1281              	.LVL115:
 1282              	.LBE63:
 1283              	.LBE62:
 477:C:/Users/stapi/OneDrive/Desktop/GD32VW553/V1_MQTT_OK/GD32VW55X_Wifi_BLE_SDK/GD32VW55x_RELEASE_V1.0.2/MSDK/wpa_supplicant/src/tls\tlsv1_client_ocsp.c **** 			asn1_unexpected(&hdr,
 1284              		.loc 2 477 30
 1285 045c 7647     		lw	a4,92(sp)
 1286 045e 8547     		li	a5,1
 1287 0460 6304F708 		beq	a4,a5,.L58
 1288              	.L57:
 478:C:/Users/stapi/OneDrive/Desktop/GD32VW553/V1_MQTT_OK/GD32VW55X_Wifi_BLE_SDK/GD32VW55x_RELEASE_V1.0.2/MSDK/wpa_supplicant/src/tls\tlsv1_client_ocsp.c **** 					"OCSP: No INTEGER (len=1) tag found for version field");
 1289              		.loc 2 478 4 is_stmt 1
 1290 0464 B7050000 		lui	a1,%hi(.LC27)
 1291 0468 93850500 		addi	a1,a1,%lo(.LC27)
 1292 046c 0DA8     		j	.L164
 1293              	.LVL116:
 1294              	.L49:
 427:C:/Users/stapi/OneDrive/Desktop/GD32VW553/V1_MQTT_OK/GD32VW55X_Wifi_BLE_SDK/GD32VW55x_RELEASE_V1.0.2/MSDK/wpa_supplicant/src/tls\tlsv1_client_ocsp.c **** 					"OCSP: Expected [0] EXPLICIT (certs)");
 1295              		.loc 2 427 4
 1296 046e B7050000 		lui	a1,%hi(.LC24)
 1297 0472 93850500 		addi	a1,a1,%lo(.LC24)
 1298 0476 99BD     		j	.L168
 1299              	.LVL117:
 1300              	.L55:
 1301              	.LBB64:
 436:C:/Users/stapi/OneDrive/Desktop/GD32VW553/V1_MQTT_OK/GD32VW55X_Wifi_BLE_SDK/GD32VW55x_RELEASE_V1.0.2/MSDK/wpa_supplicant/src/tls\tlsv1_client_ocsp.c **** 
 1302              		.loc 2 436 4
 438:C:/Users/stapi/OneDrive/Desktop/GD32VW553/V1_MQTT_OK/GD32VW55X_Wifi_BLE_SDK/GD32VW55x_RELEASE_V1.0.2/MSDK/wpa_supplicant/src/tls\tlsv1_client_ocsp.c **** 			    !asn1_is_sequence(&hdr)) {
 1303              		.loc 2 438 4
 438:C:/Users/stapi/OneDrive/Desktop/GD32VW553/V1_MQTT_OK/GD32VW55X_Wifi_BLE_SDK/GD32VW55x_RELEASE_V1.0.2/MSDK/wpa_supplicant/src/tls\tlsv1_client_ocsp.c **** 			    !asn1_is_sequence(&hdr)) {
 1304              		.loc 2 438 8 is_stmt 0
 1305 0478 9008     		addi	a2,sp,80
 1306 047a B385AC40 		sub	a1,s9,a0
 1307 047e 97000000 		call	asn1_get_next
 1307      E7800000 
 1308              	.LVL118:
 438:C:/Users/stapi/OneDrive/Desktop/GD32VW553/V1_MQTT_OK/GD32VW55X_Wifi_BLE_SDK/GD32VW55x_RELEASE_V1.0.2/MSDK/wpa_supplicant/src/tls\tlsv1_client_ocsp.c **** 			    !asn1_is_sequence(&hdr)) {
 1309              		.loc 2 438 7
 1310 0486 63480500 		blt	a0,zero,.L51
 439:C:/Users/stapi/OneDrive/Desktop/GD32VW553/V1_MQTT_OK/GD32VW55X_Wifi_BLE_SDK/GD32VW55x_RELEASE_V1.0.2/MSDK/wpa_supplicant/src/tls\tlsv1_client_ocsp.c **** 				asn1_unexpected(&hdr,
 1311              		.loc 2 439 9
 1312 048a 8808     		addi	a0,sp,80
 1313 048c 97000000 		call	asn1_is_sequence
 1313      E7800000 
 1314              	.LVL119:
 438:C:/Users/stapi/OneDrive/Desktop/GD32VW553/V1_MQTT_OK/GD32VW55X_Wifi_BLE_SDK/GD32VW55x_RELEASE_V1.0.2/MSDK/wpa_supplicant/src/tls\tlsv1_client_ocsp.c **** 			    !asn1_is_sequence(&hdr)) {
 1315              		.loc 2 438 48
 1316 0494 0DE5     		bne	a0,zero,.L52
 1317              	.L51:
 440:C:/Users/stapi/OneDrive/Desktop/GD32VW553/V1_MQTT_OK/GD32VW55X_Wifi_BLE_SDK/GD32VW55x_RELEASE_V1.0.2/MSDK/wpa_supplicant/src/tls\tlsv1_client_ocsp.c **** 						"OCSP: Expected SEQUENCE (Certificate)");
 1318              		.loc 2 440 5 is_stmt 1
 1319 0496 B7050000 		lui	a1,%hi(.LC25)
 1320 049a 93850500 		addi	a1,a1,%lo(.LC25)
 1321              	.LVL120:
 1322              	.L164:
 1323              	.LBE64:
 478:C:/Users/stapi/OneDrive/Desktop/GD32VW553/V1_MQTT_OK/GD32VW55X_Wifi_BLE_SDK/GD32VW55x_RELEASE_V1.0.2/MSDK/wpa_supplicant/src/tls\tlsv1_client_ocsp.c **** 					"OCSP: No INTEGER (len=1) tag found for version field");
 1324              		.loc 2 478 4 is_stmt 0
 1325 049e 8808     		addi	a0,sp,80
 1326 04a0 97000000 		call	asn1_unexpected
 1326      E7800000 
 1327              	.LVL121:
 480:C:/Users/stapi/OneDrive/Desktop/GD32VW553/V1_MQTT_OK/GD32VW55X_Wifi_BLE_SDK/GD32VW55x_RELEASE_V1.0.2/MSDK/wpa_supplicant/src/tls\tlsv1_client_ocsp.c **** 		}
 1328              		.loc 2 480 4 is_stmt 1
 1329              	.L53:
 642:C:/Users/stapi/OneDrive/Desktop/GD32VW553/V1_MQTT_OK/GD32VW55X_Wifi_BLE_SDK/GD32VW55x_RELEASE_V1.0.2/MSDK/wpa_supplicant/src/tls\tlsv1_client_ocsp.c **** 	x509_certificate_chain_free(certs);
 1330              		.loc 2 642 2
 1331 04a8 881D     		addi	a0,sp,752
 1332 04aa 97000000 		call	x509_free_name
 1332      E7800000 
 1333              	.LVL122:
 643:C:/Users/stapi/OneDrive/Desktop/GD32VW553/V1_MQTT_OK/GD32VW55X_Wifi_BLE_SDK/GD32VW55x_RELEASE_V1.0.2/MSDK/wpa_supplicant/src/tls\tlsv1_client_ocsp.c **** 	return TLS_OCSP_INVALID;
 1334              		.loc 2 643 2
 1335 04b2 5685     		mv	a0,s5
 1336 04b4 97000000 		call	x509_certificate_chain_free
 1336      E7800000 
 1337              	.LVL123:
 1338 04bc 29BD     		j	.L165
 1339              	.LVL124:
 1340              	.L52:
 1341              	.LBB65:
 445:C:/Users/stapi/OneDrive/Desktop/GD32VW553/V1_MQTT_OK/GD32VW55X_Wifi_BLE_SDK/GD32VW55x_RELEASE_V1.0.2/MSDK/wpa_supplicant/src/tls\tlsv1_client_ocsp.c **** 			if (!cert)
 1342              		.loc 2 445 4
 445:C:/Users/stapi/OneDrive/Desktop/GD32VW553/V1_MQTT_OK/GD32VW55X_Wifi_BLE_SDK/GD32VW55x_RELEASE_V1.0.2/MSDK/wpa_supplicant/src/tls\tlsv1_client_ocsp.c **** 			if (!cert)
 1343              		.loc 2 445 11 is_stmt 0
 1344 04be F645     		lw	a1,92(sp)
 1345 04c0 4645     		lw	a0,80(sp)
 1346 04c2 97000000 		call	x509_certificate_parse
 1346      E7800000 
 1347              	.LVL125:
 446:C:/Users/stapi/OneDrive/Desktop/GD32VW553/V1_MQTT_OK/GD32VW55X_Wifi_BLE_SDK/GD32VW55x_RELEASE_V1.0.2/MSDK/wpa_supplicant/src/tls\tlsv1_client_ocsp.c **** 				goto fail;
 1348              		.loc 2 446 4 is_stmt 1
 446:C:/Users/stapi/OneDrive/Desktop/GD32VW553/V1_MQTT_OK/GD32VW55X_Wifi_BLE_SDK/GD32VW55x_RELEASE_V1.0.2/MSDK/wpa_supplicant/src/tls\tlsv1_client_ocsp.c **** 				goto fail;
 1349              		.loc 2 446 7 is_stmt 0
 1350 04ca 79DD     		beq	a0,zero,.L53
 448:C:/Users/stapi/OneDrive/Desktop/GD32VW553/V1_MQTT_OK/GD32VW55X_Wifi_BLE_SDK/GD32VW55x_RELEASE_V1.0.2/MSDK/wpa_supplicant/src/tls\tlsv1_client_ocsp.c **** 				last_cert->next = cert;
 1351              		.loc 2 448 4 is_stmt 1
 448:C:/Users/stapi/OneDrive/Desktop/GD32VW553/V1_MQTT_OK/GD32VW55X_Wifi_BLE_SDK/GD32VW55x_RELEASE_V1.0.2/MSDK/wpa_supplicant/src/tls\tlsv1_client_ocsp.c **** 				last_cert->next = cert;
 1352              		.loc 2 448 7 is_stmt 0
 1353 04cc 630A0C00 		beq	s8,zero,.L123
 449:C:/Users/stapi/OneDrive/Desktop/GD32VW553/V1_MQTT_OK/GD32VW55X_Wifi_BLE_SDK/GD32VW55x_RELEASE_V1.0.2/MSDK/wpa_supplicant/src/tls\tlsv1_client_ocsp.c **** 				last_cert = cert;
 1354              		.loc 2 449 5 is_stmt 1
 449:C:/Users/stapi/OneDrive/Desktop/GD32VW553/V1_MQTT_OK/GD32VW55X_Wifi_BLE_SDK/GD32VW55x_RELEASE_V1.0.2/MSDK/wpa_supplicant/src/tls\tlsv1_client_ocsp.c **** 				last_cert = cert;
 1355              		.loc 2 449 21 is_stmt 0
 1356 04d0 2320AC00 		sw	a0,0(s8)
 450:C:/Users/stapi/OneDrive/Desktop/GD32VW553/V1_MQTT_OK/GD32VW55X_Wifi_BLE_SDK/GD32VW55x_RELEASE_V1.0.2/MSDK/wpa_supplicant/src/tls\tlsv1_client_ocsp.c **** 			} else {
 1357              		.loc 2 450 5 is_stmt 1
 1358              	.LVL126:
 1359              	.L54:
 454:C:/Users/stapi/OneDrive/Desktop/GD32VW553/V1_MQTT_OK/GD32VW55X_Wifi_BLE_SDK/GD32VW55x_RELEASE_V1.0.2/MSDK/wpa_supplicant/src/tls\tlsv1_client_ocsp.c **** 		}
 1360              		.loc 2 454 4
 454:C:/Users/stapi/OneDrive/Desktop/GD32VW553/V1_MQTT_OK/GD32VW55X_Wifi_BLE_SDK/GD32VW55x_RELEASE_V1.0.2/MSDK/wpa_supplicant/src/tls\tlsv1_client_ocsp.c **** 		}
 1361              		.loc 2 454 22 is_stmt 0
 1362 04d4 C647     		lw	a5,80(sp)
 1363 04d6 7647     		lw	a4,92(sp)
 454:C:/Users/stapi/OneDrive/Desktop/GD32VW553/V1_MQTT_OK/GD32VW55X_Wifi_BLE_SDK/GD32VW55x_RELEASE_V1.0.2/MSDK/wpa_supplicant/src/tls\tlsv1_client_ocsp.c **** 		}
 1364              		.loc 2 454 8
 1365 04d8 2A8C     		mv	s8,a0
 454:C:/Users/stapi/OneDrive/Desktop/GD32VW553/V1_MQTT_OK/GD32VW55X_Wifi_BLE_SDK/GD32VW55x_RELEASE_V1.0.2/MSDK/wpa_supplicant/src/tls\tlsv1_client_ocsp.c **** 		}
 1366              		.loc 2 454 22
 1367 04da BA97     		add	a5,a5,a4
 454:C:/Users/stapi/OneDrive/Desktop/GD32VW553/V1_MQTT_OK/GD32VW55X_Wifi_BLE_SDK/GD32VW55x_RELEASE_V1.0.2/MSDK/wpa_supplicant/src/tls\tlsv1_client_ocsp.c **** 		}
 1368              		.loc 2 454 8
 1369 04dc 3ED4     		sw	a5,40(sp)
 1370 04de 19BF     		j	.L50
 1371              	.LVL127:
 1372              	.L123:
 1373 04e0 AA8A     		mv	s5,a0
 1374              	.LVL128:
 1375 04e2 CDBF     		j	.L54
 1376              	.LVL129:
 1377              	.L122:
 1378              	.LBE65:
 355:C:/Users/stapi/OneDrive/Desktop/GD32VW553/V1_MQTT_OK/GD32VW55X_Wifi_BLE_SDK/GD32VW55x_RELEASE_V1.0.2/MSDK/wpa_supplicant/src/tls\tlsv1_client_ocsp.c **** 	struct x509_certificate *issuer, *signer;
 1379              		.loc 2 355 27
 1380 04e4 814A     		li	s5,0
 1381 04e6 11BF     		j	.L48
 1382              	.LVL130:
 1383              	.L58:
 482:C:/Users/stapi/OneDrive/Desktop/GD32VW553/V1_MQTT_OK/GD32VW55X_Wifi_BLE_SDK/GD32VW55x_RELEASE_V1.0.2/MSDK/wpa_supplicant/src/tls\tlsv1_client_ocsp.c **** 			   hdr.payload[0]);
 1384              		.loc 2 482 3 is_stmt 1
 1385 04e8 C647     		lw	a5,80(sp)
 1386 04ea B7050000 		lui	a1,%hi(.LC28)
 1387 04ee 93850500 		addi	a1,a1,%lo(.LC28)
 1388 04f2 03C60700 		lbu	a2,0(a5)
 1389 04f6 0945     		li	a0,2
 1390 04f8 97000000 		call	wpa_printf
 1390      E7800000 
 1391              	.LVL131:
 484:C:/Users/stapi/OneDrive/Desktop/GD32VW553/V1_MQTT_OK/GD32VW55X_Wifi_BLE_SDK/GD32VW55x_RELEASE_V1.0.2/MSDK/wpa_supplicant/src/tls\tlsv1_client_ocsp.c **** 			wpa_printf(MSG_DEBUG,
 1392              		.loc 2 484 3
 484:C:/Users/stapi/OneDrive/Desktop/GD32VW553/V1_MQTT_OK/GD32VW55X_Wifi_BLE_SDK/GD32VW55x_RELEASE_V1.0.2/MSDK/wpa_supplicant/src/tls\tlsv1_client_ocsp.c **** 			wpa_printf(MSG_DEBUG,
 1393              		.loc 2 484 10 is_stmt 0
 1394 0500 C647     		lw	a5,80(sp)
 484:C:/Users/stapi/OneDrive/Desktop/GD32VW553/V1_MQTT_OK/GD32VW55X_Wifi_BLE_SDK/GD32VW55x_RELEASE_V1.0.2/MSDK/wpa_supplicant/src/tls\tlsv1_client_ocsp.c **** 			wpa_printf(MSG_DEBUG,
 1395              		.loc 2 484 18
 1396 0502 03C60700 		lbu	a2,0(a5)
 484:C:/Users/stapi/OneDrive/Desktop/GD32VW553/V1_MQTT_OK/GD32VW55X_Wifi_BLE_SDK/GD32VW55x_RELEASE_V1.0.2/MSDK/wpa_supplicant/src/tls\tlsv1_client_ocsp.c **** 			wpa_printf(MSG_DEBUG,
 1397              		.loc 2 484 6
 1398 0506 0DC6     		beq	a2,zero,.L59
 485:C:/Users/stapi/OneDrive/Desktop/GD32VW553/V1_MQTT_OK/GD32VW55X_Wifi_BLE_SDK/GD32VW55x_RELEASE_V1.0.2/MSDK/wpa_supplicant/src/tls\tlsv1_client_ocsp.c **** 				   "OCSP: Unsupported ResponseData version %u",
 1399              		.loc 2 485 4 is_stmt 1
 1400 0508 B7050000 		lui	a1,%hi(.LC29)
 1401 050c 93850500 		addi	a1,a1,%lo(.LC29)
 1402 0510 0945     		li	a0,2
 1403 0512 97000000 		call	wpa_printf
 1403      E7800000 
 1404              	.LVL132:
 488:C:/Users/stapi/OneDrive/Desktop/GD32VW553/V1_MQTT_OK/GD32VW55X_Wifi_BLE_SDK/GD32VW55x_RELEASE_V1.0.2/MSDK/wpa_supplicant/src/tls\tlsv1_client_ocsp.c **** 		}
 1405              		.loc 2 488 4
 1406              	.L60:
 637:C:/Users/stapi/OneDrive/Desktop/GD32VW553/V1_MQTT_OK/GD32VW55X_Wifi_BLE_SDK/GD32VW55x_RELEASE_V1.0.2/MSDK/wpa_supplicant/src/tls\tlsv1_client_ocsp.c **** 	x509_certificate_chain_free(certs);
 1407              		.loc 2 637 2
 1408 051a 881D     		addi	a0,sp,752
 1409 051c 97000000 		call	x509_free_name
 1409      E7800000 
 1410              	.LVL133:
 638:C:/Users/stapi/OneDrive/Desktop/GD32VW553/V1_MQTT_OK/GD32VW55X_Wifi_BLE_SDK/GD32VW55x_RELEASE_V1.0.2/MSDK/wpa_supplicant/src/tls\tlsv1_client_ocsp.c **** 	return TLS_OCSP_NO_RESPONSE;
 1411              		.loc 2 638 2
 1412 0524 5685     		mv	a0,s5
 1413 0526 97000000 		call	x509_certificate_chain_free
 1413      E7800000 
 1414              	.LVL134:
 639:C:/Users/stapi/OneDrive/Desktop/GD32VW553/V1_MQTT_OK/GD32VW55X_Wifi_BLE_SDK/GD32VW55x_RELEASE_V1.0.2/MSDK/wpa_supplicant/src/tls\tlsv1_client_ocsp.c **** 
 1415              		.loc 2 639 2
 639:C:/Users/stapi/OneDrive/Desktop/GD32VW553/V1_MQTT_OK/GD32VW55X_Wifi_BLE_SDK/GD32VW55x_RELEASE_V1.0.2/MSDK/wpa_supplicant/src/tls\tlsv1_client_ocsp.c **** 
 1416              		.loc 2 639 9 is_stmt 0
 1417 052e 1DA7     		j	.L40
 1418              	.LVL135:
 1419              	.L59:
 490:C:/Users/stapi/OneDrive/Desktop/GD32VW553/V1_MQTT_OK/GD32VW55X_Wifi_BLE_SDK/GD32VW55x_RELEASE_V1.0.2/MSDK/wpa_supplicant/src/tls\tlsv1_client_ocsp.c **** 	} else {
 1420              		.loc 2 490 3 is_stmt 1
 490:C:/Users/stapi/OneDrive/Desktop/GD32VW553/V1_MQTT_OK/GD32VW55X_Wifi_BLE_SDK/GD32VW55x_RELEASE_V1.0.2/MSDK/wpa_supplicant/src/tls\tlsv1_client_ocsp.c **** 	} else {
 1421              		.loc 2 490 21 is_stmt 0
 1422 0530 7647     		lw	a4,92(sp)
 1423 0532 BA97     		add	a5,a5,a4
 490:C:/Users/stapi/OneDrive/Desktop/GD32VW553/V1_MQTT_OK/GD32VW55X_Wifi_BLE_SDK/GD32VW55x_RELEASE_V1.0.2/MSDK/wpa_supplicant/src/tls\tlsv1_client_ocsp.c **** 	} else {
 1424              		.loc 2 490 7
 1425 0534 3ED4     		sw	a5,40(sp)
 1426              	.L61:
 501:C:/Users/stapi/OneDrive/Desktop/GD32VW553/V1_MQTT_OK/GD32VW55X_Wifi_BLE_SDK/GD32VW55x_RELEASE_V1.0.2/MSDK/wpa_supplicant/src/tls\tlsv1_client_ocsp.c **** 	    hdr.class != ASN1_CLASS_CONTEXT_SPECIFIC) {
 1427              		.loc 2 501 2 is_stmt 1
 501:C:/Users/stapi/OneDrive/Desktop/GD32VW553/V1_MQTT_OK/GD32VW55X_Wifi_BLE_SDK/GD32VW55x_RELEASE_V1.0.2/MSDK/wpa_supplicant/src/tls\tlsv1_client_ocsp.c **** 	    hdr.class != ASN1_CLASS_CONTEXT_SPECIFIC) {
 1428              		.loc 2 501 6 is_stmt 0
 1429 0536 2255     		lw	a0,40(sp)
 1430 0538 9008     		addi	a2,sp,80
 1431 053a B305AA40 		sub	a1,s4,a0
 1432 053e 97000000 		call	asn1_get_next
 1432      E7800000 
 1433              	.LVL136:
 501:C:/Users/stapi/OneDrive/Desktop/GD32VW553/V1_MQTT_OK/GD32VW55X_Wifi_BLE_SDK/GD32VW55x_RELEASE_V1.0.2/MSDK/wpa_supplicant/src/tls\tlsv1_client_ocsp.c **** 	    hdr.class != ASN1_CLASS_CONTEXT_SPECIFIC) {
 1434              		.loc 2 501 5
 1435 0546 63470500 		blt	a0,zero,.L62
 501:C:/Users/stapi/OneDrive/Desktop/GD32VW553/V1_MQTT_OK/GD32VW55X_Wifi_BLE_SDK/GD32VW55x_RELEASE_V1.0.2/MSDK/wpa_supplicant/src/tls\tlsv1_client_ocsp.c **** 	    hdr.class != ASN1_CLASS_CONTEXT_SPECIFIC) {
 1436              		.loc 2 501 46
 1437 054a 83475105 		lbu	a5,85(sp)
 1438 054e 0947     		li	a4,2
 1439 0550 6381E702 		beq	a5,a4,.L63
 1440              	.L62:
 503:C:/Users/stapi/OneDrive/Desktop/GD32VW553/V1_MQTT_OK/GD32VW55X_Wifi_BLE_SDK/GD32VW55x_RELEASE_V1.0.2/MSDK/wpa_supplicant/src/tls\tlsv1_client_ocsp.c **** 		goto fail;
 1441              		.loc 2 503 3 is_stmt 1
 1442 0554 B7050000 		lui	a1,%hi(.LC31)
 1443 0558 93850500 		addi	a1,a1,%lo(.LC31)
 1444 055c 89B7     		j	.L164
 1445              	.L56:
 492:C:/Users/stapi/OneDrive/Desktop/GD32VW553/V1_MQTT_OK/GD32VW55X_Wifi_BLE_SDK/GD32VW55x_RELEASE_V1.0.2/MSDK/wpa_supplicant/src/tls\tlsv1_client_ocsp.c **** 			   "OCSP: Default ResponseData version (v1)");
 1446              		.loc 2 492 3
 1447 055e B7050000 		lui	a1,%hi(.LC30)
 1448 0562 93850500 		addi	a1,a1,%lo(.LC30)
 1449 0566 0945     		li	a0,2
 1450 0568 97000000 		call	wpa_printf
 1450      E7800000 
 1451              	.LVL137:
 1452 0570 D9B7     		j	.L61
 1453              	.L63:
 507:C:/Users/stapi/OneDrive/Desktop/GD32VW553/V1_MQTT_OK/GD32VW55X_Wifi_BLE_SDK/GD32VW55x_RELEASE_V1.0.2/MSDK/wpa_supplicant/src/tls\tlsv1_client_ocsp.c **** 		/* Name */
 1454              		.loc 2 507 2
 507:C:/Users/stapi/OneDrive/Desktop/GD32VW553/V1_MQTT_OK/GD32VW55X_Wifi_BLE_SDK/GD32VW55x_RELEASE_V1.0.2/MSDK/wpa_supplicant/src/tls\tlsv1_client_ocsp.c **** 		/* Name */
 1455              		.loc 2 507 9 is_stmt 0
 1456 0572 6646     		lw	a2,88(sp)
 507:C:/Users/stapi/OneDrive/Desktop/GD32VW553/V1_MQTT_OK/GD32VW55X_Wifi_BLE_SDK/GD32VW55x_RELEASE_V1.0.2/MSDK/wpa_supplicant/src/tls\tlsv1_client_ocsp.c **** 		/* Name */
 1457              		.loc 2 507 5
 1458 0574 0547     		li	a4,1
 1459 0576 6313E606 		bne	a2,a4,.L64
 509:C:/Users/stapi/OneDrive/Desktop/GD32VW553/V1_MQTT_OK/GD32VW55X_Wifi_BLE_SDK/GD32VW55x_RELEASE_V1.0.2/MSDK/wpa_supplicant/src/tls\tlsv1_client_ocsp.c **** 			goto fail;
 1460              		.loc 2 509 3 is_stmt 1
 509:C:/Users/stapi/OneDrive/Desktop/GD32VW553/V1_MQTT_OK/GD32VW55X_Wifi_BLE_SDK/GD32VW55x_RELEASE_V1.0.2/MSDK/wpa_supplicant/src/tls\tlsv1_client_ocsp.c **** 			goto fail;
 1461              		.loc 2 509 7 is_stmt 0
 1462 057a F645     		lw	a1,92(sp)
 1463 057c 4645     		lw	a0,80(sp)
 1464 057e 3410     		addi	a3,sp,40
 1465 0580 901D     		addi	a2,sp,752
 1466 0582 97000000 		call	x509_parse_name
 1466      E7800000 
 1467              	.LVL138:
 509:C:/Users/stapi/OneDrive/Desktop/GD32VW553/V1_MQTT_OK/GD32VW55X_Wifi_BLE_SDK/GD32VW55x_RELEASE_V1.0.2/MSDK/wpa_supplicant/src/tls\tlsv1_client_ocsp.c **** 			goto fail;
 1468              		.loc 2 509 6
 1469 058a E34F05F0 		blt	a0,zero,.L53
 511:C:/Users/stapi/OneDrive/Desktop/GD32VW553/V1_MQTT_OK/GD32VW55X_Wifi_BLE_SDK/GD32VW55x_RELEASE_V1.0.2/MSDK/wpa_supplicant/src/tls\tlsv1_client_ocsp.c **** 		wpa_printf(MSG_DEBUG, "OCSP: ResponderID byName Name: %s", buf);
 1470              		.loc 2 511 3 is_stmt 1
 1471 058e 13064006 		li	a2,100
 1472 0592 6C04     		addi	a1,sp,524
 1473 0594 881D     		addi	a0,sp,752
 1474 0596 97000000 		call	x509_name_string
 1474      E7800000 
 1475              	.LVL139:
 512:C:/Users/stapi/OneDrive/Desktop/GD32VW553/V1_MQTT_OK/GD32VW55X_Wifi_BLE_SDK/GD32VW55x_RELEASE_V1.0.2/MSDK/wpa_supplicant/src/tls\tlsv1_client_ocsp.c **** 	} else if (hdr.tag == 2) {
 1476              		.loc 2 512 3
 1477 059e B7050000 		lui	a1,%hi(.LC32)
 1478 05a2 7004     		addi	a2,sp,524
 1479 05a4 93850500 		addi	a1,a1,%lo(.LC32)
 1480 05a8 0945     		li	a0,2
 1481 05aa 97000000 		call	wpa_printf
 1481      E7800000 
 1482              	.LVL140:
 350:C:/Users/stapi/OneDrive/Desktop/GD32VW553/V1_MQTT_OK/GD32VW55X_Wifi_BLE_SDK/GD32VW55x_RELEASE_V1.0.2/MSDK/wpa_supplicant/src/tls\tlsv1_client_ocsp.c **** 	const u8 *resp_data_signed;
 1483              		.loc 2 350 37 is_stmt 0
 1484 05b2 814D     		li	s11,0
 1485              	.LVL141:
 1486              	.L65:
 538:C:/Users/stapi/OneDrive/Desktop/GD32VW553/V1_MQTT_OK/GD32VW55X_Wifi_BLE_SDK/GD32VW55x_RELEASE_V1.0.2/MSDK/wpa_supplicant/src/tls\tlsv1_client_ocsp.c **** 	    !asn1_is_generalizedtime(&hdr) ||
 1487              		.loc 2 538 2 is_stmt 1
 538:C:/Users/stapi/OneDrive/Desktop/GD32VW553/V1_MQTT_OK/GD32VW55X_Wifi_BLE_SDK/GD32VW55x_RELEASE_V1.0.2/MSDK/wpa_supplicant/src/tls\tlsv1_client_ocsp.c **** 	    !asn1_is_generalizedtime(&hdr) ||
 1488              		.loc 2 538 6 is_stmt 0
 1489 05b4 2255     		lw	a0,40(sp)
 1490 05b6 9008     		addi	a2,sp,80
 1491 05b8 B305AA40 		sub	a1,s4,a0
 1492 05bc 97000000 		call	asn1_get_next
 1492      E7800000 
 1493              	.LVL142:
 538:C:/Users/stapi/OneDrive/Desktop/GD32VW553/V1_MQTT_OK/GD32VW55X_Wifi_BLE_SDK/GD32VW55x_RELEASE_V1.0.2/MSDK/wpa_supplicant/src/tls\tlsv1_client_ocsp.c **** 	    !asn1_is_generalizedtime(&hdr) ||
 1494              		.loc 2 538 5
 1495 05c4 635C0508 		bge	a0,zero,.L70
 1496              	.L71:
 542:C:/Users/stapi/OneDrive/Desktop/GD32VW553/V1_MQTT_OK/GD32VW55X_Wifi_BLE_SDK/GD32VW55x_RELEASE_V1.0.2/MSDK/wpa_supplicant/src/tls\tlsv1_client_ocsp.c **** 		goto fail;
 1497              		.loc 2 542 3 is_stmt 1
 1498 05c8 B7050000 		lui	a1,%hi(.LC37)
 1499 05cc 93850500 		addi	a1,a1,%lo(.LC37)
 1500 05d0 0945     		li	a0,2
 1501 05d2 97000000 		call	wpa_printf
 1501      E7800000 
 1502              	.LVL143:
 543:C:/Users/stapi/OneDrive/Desktop/GD32VW553/V1_MQTT_OK/GD32VW55X_Wifi_BLE_SDK/GD32VW55x_RELEASE_V1.0.2/MSDK/wpa_supplicant/src/tls\tlsv1_client_ocsp.c **** 	}
 1503              		.loc 2 543 3
 1504 05da F9B5     		j	.L53
 1505              	.LVL144:
 1506              	.L64:
 513:C:/Users/stapi/OneDrive/Desktop/GD32VW553/V1_MQTT_OK/GD32VW55X_Wifi_BLE_SDK/GD32VW55x_RELEASE_V1.0.2/MSDK/wpa_supplicant/src/tls\tlsv1_client_ocsp.c **** 		/* KeyHash ::= OCTET STRING */
 1507              		.loc 2 513 9
 513:C:/Users/stapi/OneDrive/Desktop/GD32VW553/V1_MQTT_OK/GD32VW55X_Wifi_BLE_SDK/GD32VW55x_RELEASE_V1.0.2/MSDK/wpa_supplicant/src/tls\tlsv1_client_ocsp.c **** 		/* KeyHash ::= OCTET STRING */
 1508              		.loc 2 513 12 is_stmt 0
 1509 05dc 6316F606 		bne	a2,a5,.L66
 515:C:/Users/stapi/OneDrive/Desktop/GD32VW553/V1_MQTT_OK/GD32VW55X_Wifi_BLE_SDK/GD32VW55x_RELEASE_V1.0.2/MSDK/wpa_supplicant/src/tls\tlsv1_client_ocsp.c **** 		    !asn1_is_octetstring(&hdr)) {
 1510              		.loc 2 515 3 is_stmt 1
 515:C:/Users/stapi/OneDrive/Desktop/GD32VW553/V1_MQTT_OK/GD32VW55X_Wifi_BLE_SDK/GD32VW55x_RELEASE_V1.0.2/MSDK/wpa_supplicant/src/tls\tlsv1_client_ocsp.c **** 		    !asn1_is_octetstring(&hdr)) {
 1511              		.loc 2 515 7 is_stmt 0
 1512 05e0 F645     		lw	a1,92(sp)
 1513 05e2 4645     		lw	a0,80(sp)
 1514 05e4 9008     		addi	a2,sp,80
 1515 05e6 97000000 		call	asn1_get_next
 1515      E7800000 
 1516              	.LVL145:
 515:C:/Users/stapi/OneDrive/Desktop/GD32VW553/V1_MQTT_OK/GD32VW55X_Wifi_BLE_SDK/GD32VW55x_RELEASE_V1.0.2/MSDK/wpa_supplicant/src/tls\tlsv1_client_ocsp.c **** 		    !asn1_is_octetstring(&hdr)) {
 1517              		.loc 2 515 6
 1518 05ee 63440504 		blt	a0,zero,.L67
 1519              	.LVL146:
 1520              	.LBB66:
 1521              	.LBB67:
 126:C:/Users/stapi/OneDrive/Desktop/GD32VW553/V1_MQTT_OK/GD32VW55X_Wifi_BLE_SDK/GD32VW55x_RELEASE_V1.0.2/MSDK/wpa_supplicant/src/tls\asn1.h **** 		hdr->tag == ASN1_TAG_OCTETSTRING;
 1522              		.loc 1 126 2 is_stmt 1
 126:C:/Users/stapi/OneDrive/Desktop/GD32VW553/V1_MQTT_OK/GD32VW55X_Wifi_BLE_SDK/GD32VW55x_RELEASE_V1.0.2/MSDK/wpa_supplicant/src/tls\asn1.h **** 		hdr->tag == ASN1_TAG_OCTETSTRING;
 1523              		.loc 1 126 44 is_stmt 0
 1524 05f2 83475105 		lbu	a5,85(sp)
 1525 05f6 A1E3     		bne	a5,zero,.L67
 1526 05f8 6647     		lw	a4,88(sp)
 1527 05fa 9147     		li	a5,4
 1528 05fc 631DF702 		bne	a4,a5,.L67
 1529              	.LVL147:
 1530              	.LBE67:
 1531              	.LBE66:
 521:C:/Users/stapi/OneDrive/Desktop/GD32VW553/V1_MQTT_OK/GD32VW55X_Wifi_BLE_SDK/GD32VW55x_RELEASE_V1.0.2/MSDK/wpa_supplicant/src/tls\tlsv1_client_ocsp.c **** 		wpa_hexdump(MSG_DEBUG, "OCSP: ResponderID byKey KeyHash",
 1532              		.loc 2 521 3 is_stmt 1
 521:C:/Users/stapi/OneDrive/Desktop/GD32VW553/V1_MQTT_OK/GD32VW55X_Wifi_BLE_SDK/GD32VW55x_RELEASE_V1.0.2/MSDK/wpa_supplicant/src/tls\tlsv1_client_ocsp.c **** 		wpa_hexdump(MSG_DEBUG, "OCSP: ResponderID byKey KeyHash",
 1533              		.loc 2 521 12 is_stmt 0
 1534 0600 C64D     		lw	s11,80(sp)
 1535              	.LVL148:
 522:C:/Users/stapi/OneDrive/Desktop/GD32VW553/V1_MQTT_OK/GD32VW55X_Wifi_BLE_SDK/GD32VW55x_RELEASE_V1.0.2/MSDK/wpa_supplicant/src/tls\tlsv1_client_ocsp.c **** 			    key_hash, hdr.length);
 1536              		.loc 2 522 3 is_stmt 1
 1537 0602 F646     		lw	a3,92(sp)
 1538 0604 B7050000 		lui	a1,%hi(.LC33)
 1539 0608 6E86     		mv	a2,s11
 1540 060a 93850500 		addi	a1,a1,%lo(.LC33)
 1541 060e 0945     		li	a0,2
 1542 0610 97000000 		call	wpa_hexdump
 1542      E7800000 
 1543              	.LVL149:
 524:C:/Users/stapi/OneDrive/Desktop/GD32VW553/V1_MQTT_OK/GD32VW55X_Wifi_BLE_SDK/GD32VW55x_RELEASE_V1.0.2/MSDK/wpa_supplicant/src/tls\tlsv1_client_ocsp.c **** 			wpa_printf(MSG_DEBUG,
 1544              		.loc 2 524 3
 524:C:/Users/stapi/OneDrive/Desktop/GD32VW553/V1_MQTT_OK/GD32VW55X_Wifi_BLE_SDK/GD32VW55x_RELEASE_V1.0.2/MSDK/wpa_supplicant/src/tls\tlsv1_client_ocsp.c **** 			wpa_printf(MSG_DEBUG,
 1545              		.loc 2 524 10 is_stmt 0
 1546 0618 7646     		lw	a2,92(sp)
 524:C:/Users/stapi/OneDrive/Desktop/GD32VW553/V1_MQTT_OK/GD32VW55X_Wifi_BLE_SDK/GD32VW55x_RELEASE_V1.0.2/MSDK/wpa_supplicant/src/tls\tlsv1_client_ocsp.c **** 			wpa_printf(MSG_DEBUG,
 1547              		.loc 2 524 6
 1548 061a D147     		li	a5,20
 1549 061c 6302F602 		beq	a2,a5,.L156
 525:C:/Users/stapi/OneDrive/Desktop/GD32VW553/V1_MQTT_OK/GD32VW55X_Wifi_BLE_SDK/GD32VW55x_RELEASE_V1.0.2/MSDK/wpa_supplicant/src/tls\tlsv1_client_ocsp.c **** 				   "OCSP: Unexpected byKey KeyHash length %u - expected %u for SHA-1",
 1550              		.loc 2 525 4 is_stmt 1
 1551 0620 B7050000 		lui	a1,%hi(.LC35)
 1552 0624 D146     		li	a3,20
 1553 0626 93850500 		addi	a1,a1,%lo(.LC35)
 1554 062a 0945     		li	a0,2
 1555 062c 97000000 		call	wpa_printf
 1555      E7800000 
 1556              	.LVL150:
 528:C:/Users/stapi/OneDrive/Desktop/GD32VW553/V1_MQTT_OK/GD32VW55X_Wifi_BLE_SDK/GD32VW55x_RELEASE_V1.0.2/MSDK/wpa_supplicant/src/tls\tlsv1_client_ocsp.c **** 		}
 1557              		.loc 2 528 4
 1558 0634 95BD     		j	.L53
 1559              	.LVL151:
 1560              	.L67:
 517:C:/Users/stapi/OneDrive/Desktop/GD32VW553/V1_MQTT_OK/GD32VW55X_Wifi_BLE_SDK/GD32VW55x_RELEASE_V1.0.2/MSDK/wpa_supplicant/src/tls\tlsv1_client_ocsp.c **** 					"OCSP: Expected OCTET STRING (KeyHash)");
 1561              		.loc 2 517 4
 1562 0636 B7050000 		lui	a1,%hi(.LC34)
 1563 063a 93850500 		addi	a1,a1,%lo(.LC34)
 1564 063e 85B5     		j	.L164
 1565              	.LVL152:
 1566              	.L156:
 530:C:/Users/stapi/OneDrive/Desktop/GD32VW553/V1_MQTT_OK/GD32VW55X_Wifi_BLE_SDK/GD32VW55x_RELEASE_V1.0.2/MSDK/wpa_supplicant/src/tls\tlsv1_client_ocsp.c **** 	} else {
 1567              		.loc 2 530 3
 530:C:/Users/stapi/OneDrive/Desktop/GD32VW553/V1_MQTT_OK/GD32VW55X_Wifi_BLE_SDK/GD32VW55x_RELEASE_V1.0.2/MSDK/wpa_supplicant/src/tls\tlsv1_client_ocsp.c **** 	} else {
 1568              		.loc 2 530 21 is_stmt 0
 1569 0640 C647     		lw	a5,80(sp)
 1570 0642 D107     		addi	a5,a5,20
 530:C:/Users/stapi/OneDrive/Desktop/GD32VW553/V1_MQTT_OK/GD32VW55X_Wifi_BLE_SDK/GD32VW55x_RELEASE_V1.0.2/MSDK/wpa_supplicant/src/tls\tlsv1_client_ocsp.c **** 	} else {
 1571              		.loc 2 530 7
 1572 0644 3ED4     		sw	a5,40(sp)
 1573 0646 BDB7     		j	.L65
 1574              	.LVL153:
 1575              	.L66:
 532:C:/Users/stapi/OneDrive/Desktop/GD32VW553/V1_MQTT_OK/GD32VW55X_Wifi_BLE_SDK/GD32VW55x_RELEASE_V1.0.2/MSDK/wpa_supplicant/src/tls\tlsv1_client_ocsp.c **** 			   hdr.tag);
 1576              		.loc 2 532 3 is_stmt 1
 1577 0648 B7050000 		lui	a1,%hi(.LC36)
 1578 064c 93850500 		addi	a1,a1,%lo(.LC36)
 1579 0650 0945     		li	a0,2
 1580 0652 97000000 		call	wpa_printf
 1580      E7800000 
 1581              	.LVL154:
 534:C:/Users/stapi/OneDrive/Desktop/GD32VW553/V1_MQTT_OK/GD32VW55X_Wifi_BLE_SDK/GD32VW55x_RELEASE_V1.0.2/MSDK/wpa_supplicant/src/tls\tlsv1_client_ocsp.c **** 	}
 1582              		.loc 2 534 3
 1583 065a B9B5     		j	.L53
 1584              	.LVL155:
 1585              	.L70:
 1586              	.LBB68:
 1587              	.LBB69:
 144:C:/Users/stapi/OneDrive/Desktop/GD32VW553/V1_MQTT_OK/GD32VW55X_Wifi_BLE_SDK/GD32VW55x_RELEASE_V1.0.2/MSDK/wpa_supplicant/src/tls\asn1.h **** 		hdr->tag == ASN1_TAG_GENERALIZEDTIME;
 1588              		.loc 1 144 2
 144:C:/Users/stapi/OneDrive/Desktop/GD32VW553/V1_MQTT_OK/GD32VW55X_Wifi_BLE_SDK/GD32VW55x_RELEASE_V1.0.2/MSDK/wpa_supplicant/src/tls\asn1.h **** 		hdr->tag == ASN1_TAG_GENERALIZEDTIME;
 1589              		.loc 1 144 44 is_stmt 0
 1590 065c 83475105 		lbu	a5,85(sp)
 1591 0660 A5F7     		bne	a5,zero,.L71
 1592 0662 6647     		lw	a4,88(sp)
 1593 0664 E147     		li	a5,24
 1594 0666 E311F7F6 		bne	a4,a5,.L71
 1595              	.LVL156:
 1596              	.LBE69:
 1597              	.LBE68:
 540:C:/Users/stapi/OneDrive/Desktop/GD32VW553/V1_MQTT_OK/GD32VW55X_Wifi_BLE_SDK/GD32VW55x_RELEASE_V1.0.2/MSDK/wpa_supplicant/src/tls\tlsv1_client_ocsp.c **** 			    &produced_at) < 0) {
 1598              		.loc 2 540 6
 1599 066a F645     		lw	a1,92(sp)
 1600 066c 4645     		lw	a0,80(sp)
 1601 066e 7410     		addi	a3,sp,44
 1602 0670 6146     		li	a2,24
 1603 0672 97000000 		call	x509_parse_time
 1603      E7800000 
 1604              	.LVL157:
 539:C:/Users/stapi/OneDrive/Desktop/GD32VW553/V1_MQTT_OK/GD32VW55X_Wifi_BLE_SDK/GD32VW55x_RELEASE_V1.0.2/MSDK/wpa_supplicant/src/tls\tlsv1_client_ocsp.c **** 	    x509_parse_time(hdr.payload, hdr.length, hdr.tag,
 1605              		.loc 2 539 37
 1606 067a E34705F4 		blt	a0,zero,.L71
 545:C:/Users/stapi/OneDrive/Desktop/GD32VW553/V1_MQTT_OK/GD32VW55X_Wifi_BLE_SDK/GD32VW55x_RELEASE_V1.0.2/MSDK/wpa_supplicant/src/tls\tlsv1_client_ocsp.c **** 		   (unsigned long) produced_at);
 1607              		.loc 2 545 2 is_stmt 1
 1608 067e 3256     		lw	a2,44(sp)
 1609 0680 B7050000 		lui	a1,%hi(.LC38)
 1610 0684 93850500 		addi	a1,a1,%lo(.LC38)
 1611 0688 0945     		li	a0,2
 1612 068a 97000000 		call	wpa_printf
 1612      E7800000 
 1613              	.LVL158:
 547:C:/Users/stapi/OneDrive/Desktop/GD32VW553/V1_MQTT_OK/GD32VW55X_Wifi_BLE_SDK/GD32VW55x_RELEASE_V1.0.2/MSDK/wpa_supplicant/src/tls\tlsv1_client_ocsp.c **** 
 1614              		.loc 2 547 2
 547:C:/Users/stapi/OneDrive/Desktop/GD32VW553/V1_MQTT_OK/GD32VW55X_Wifi_BLE_SDK/GD32VW55x_RELEASE_V1.0.2/MSDK/wpa_supplicant/src/tls\tlsv1_client_ocsp.c **** 
 1615              		.loc 2 547 20 is_stmt 0
 1616 0692 4645     		lw	a0,80(sp)
 1617 0694 F647     		lw	a5,92(sp)
 550:C:/Users/stapi/OneDrive/Desktop/GD32VW553/V1_MQTT_OK/GD32VW55X_Wifi_BLE_SDK/GD32VW55x_RELEASE_V1.0.2/MSDK/wpa_supplicant/src/tls\tlsv1_client_ocsp.c **** 	    !asn1_is_sequence(&hdr)) {
 1618              		.loc 2 550 6
 1619 0696 9008     		addi	a2,sp,80
 547:C:/Users/stapi/OneDrive/Desktop/GD32VW553/V1_MQTT_OK/GD32VW55X_Wifi_BLE_SDK/GD32VW55x_RELEASE_V1.0.2/MSDK/wpa_supplicant/src/tls\tlsv1_client_ocsp.c **** 
 1620              		.loc 2 547 20
 1621 0698 3E95     		add	a0,a0,a5
 550:C:/Users/stapi/OneDrive/Desktop/GD32VW553/V1_MQTT_OK/GD32VW55X_Wifi_BLE_SDK/GD32VW55x_RELEASE_V1.0.2/MSDK/wpa_supplicant/src/tls\tlsv1_client_ocsp.c **** 	    !asn1_is_sequence(&hdr)) {
 1622              		.loc 2 550 6
 1623 069a B305AA40 		sub	a1,s4,a0
 547:C:/Users/stapi/OneDrive/Desktop/GD32VW553/V1_MQTT_OK/GD32VW55X_Wifi_BLE_SDK/GD32VW55x_RELEASE_V1.0.2/MSDK/wpa_supplicant/src/tls\tlsv1_client_ocsp.c **** 
 1624              		.loc 2 547 6
 1625 069e 2AD4     		sw	a0,40(sp)
 550:C:/Users/stapi/OneDrive/Desktop/GD32VW553/V1_MQTT_OK/GD32VW55X_Wifi_BLE_SDK/GD32VW55x_RELEASE_V1.0.2/MSDK/wpa_supplicant/src/tls\tlsv1_client_ocsp.c **** 	    !asn1_is_sequence(&hdr)) {
 1626              		.loc 2 550 2 is_stmt 1
 550:C:/Users/stapi/OneDrive/Desktop/GD32VW553/V1_MQTT_OK/GD32VW55X_Wifi_BLE_SDK/GD32VW55x_RELEASE_V1.0.2/MSDK/wpa_supplicant/src/tls\tlsv1_client_ocsp.c **** 	    !asn1_is_sequence(&hdr)) {
 1627              		.loc 2 550 6 is_stmt 0
 1628 06a0 97000000 		call	asn1_get_next
 1628      E7800000 
 1629              	.LVL159:
 550:C:/Users/stapi/OneDrive/Desktop/GD32VW553/V1_MQTT_OK/GD32VW55X_Wifi_BLE_SDK/GD32VW55x_RELEASE_V1.0.2/MSDK/wpa_supplicant/src/tls\tlsv1_client_ocsp.c **** 	    !asn1_is_sequence(&hdr)) {
 1630              		.loc 2 550 5
 1631 06a8 63480500 		blt	a0,zero,.L72
 551:C:/Users/stapi/OneDrive/Desktop/GD32VW553/V1_MQTT_OK/GD32VW55X_Wifi_BLE_SDK/GD32VW55x_RELEASE_V1.0.2/MSDK/wpa_supplicant/src/tls\tlsv1_client_ocsp.c **** 		asn1_unexpected(&hdr,
 1632              		.loc 2 551 7
 1633 06ac 8808     		addi	a0,sp,80
 1634 06ae 97000000 		call	asn1_is_sequence
 1634      E7800000 
 1635              	.LVL160:
 550:C:/Users/stapi/OneDrive/Desktop/GD32VW553/V1_MQTT_OK/GD32VW55X_Wifi_BLE_SDK/GD32VW55x_RELEASE_V1.0.2/MSDK/wpa_supplicant/src/tls\tlsv1_client_ocsp.c **** 	    !asn1_is_sequence(&hdr)) {
 1636              		.loc 2 550 46
 1637 06b6 11E5     		bne	a0,zero,.L73
 1638              	.L72:
 552:C:/Users/stapi/OneDrive/Desktop/GD32VW553/V1_MQTT_OK/GD32VW55X_Wifi_BLE_SDK/GD32VW55x_RELEASE_V1.0.2/MSDK/wpa_supplicant/src/tls\tlsv1_client_ocsp.c **** 				"OCSP: Expected SEQUENCE (responses)");
 1639              		.loc 2 552 3 is_stmt 1
 1640 06b8 B7050000 		lui	a1,%hi(.LC39)
 1641 06bc 93850500 		addi	a1,a1,%lo(.LC39)
 1642 06c0 F9BB     		j	.L164
 1643              	.L73:
 556:C:/Users/stapi/OneDrive/Desktop/GD32VW553/V1_MQTT_OK/GD32VW55X_Wifi_BLE_SDK/GD32VW55x_RELEASE_V1.0.2/MSDK/wpa_supplicant/src/tls\tlsv1_client_ocsp.c **** 	responses_len = hdr.length;
 1644              		.loc 2 556 2
 557:C:/Users/stapi/OneDrive/Desktop/GD32VW553/V1_MQTT_OK/GD32VW55X_Wifi_BLE_SDK/GD32VW55x_RELEASE_V1.0.2/MSDK/wpa_supplicant/src/tls\tlsv1_client_ocsp.c **** 	wpa_hexdump(MSG_MSGDUMP, "OCSP: responses", responses, responses_len);
 1645              		.loc 2 557 16 is_stmt 0
 1646 06c2 F647     		lw	a5,92(sp)
 556:C:/Users/stapi/OneDrive/Desktop/GD32VW553/V1_MQTT_OK/GD32VW55X_Wifi_BLE_SDK/GD32VW55x_RELEASE_V1.0.2/MSDK/wpa_supplicant/src/tls\tlsv1_client_ocsp.c **** 	responses_len = hdr.length;
 1647              		.loc 2 556 12
 1648 06c4 464C     		lw	s8,80(sp)
 1649              	.LVL161:
 557:C:/Users/stapi/OneDrive/Desktop/GD32VW553/V1_MQTT_OK/GD32VW55X_Wifi_BLE_SDK/GD32VW55x_RELEASE_V1.0.2/MSDK/wpa_supplicant/src/tls\tlsv1_client_ocsp.c **** 	wpa_hexdump(MSG_MSGDUMP, "OCSP: responses", responses, responses_len);
 1650              		.loc 2 557 2 is_stmt 1
 558:C:/Users/stapi/OneDrive/Desktop/GD32VW553/V1_MQTT_OK/GD32VW55X_Wifi_BLE_SDK/GD32VW55x_RELEASE_V1.0.2/MSDK/wpa_supplicant/src/tls\tlsv1_client_ocsp.c **** 	pos = hdr.payload + hdr.length;
 1651              		.loc 2 558 2 is_stmt 0
 1652 06c6 B7050000 		lui	a1,%hi(.LC40)
 1653 06ca BE86     		mv	a3,a5
 1654 06cc 6286     		mv	a2,s8
 1655 06ce 93850500 		addi	a1,a1,%lo(.LC40)
 1656 06d2 0545     		li	a0,1
 557:C:/Users/stapi/OneDrive/Desktop/GD32VW553/V1_MQTT_OK/GD32VW55X_Wifi_BLE_SDK/GD32VW55x_RELEASE_V1.0.2/MSDK/wpa_supplicant/src/tls\tlsv1_client_ocsp.c **** 	wpa_hexdump(MSG_MSGDUMP, "OCSP: responses", responses, responses_len);
 1657              		.loc 2 557 16
 1658 06d4 3EC8     		sw	a5,16(sp)
 1659              	.LVL162:
 558:C:/Users/stapi/OneDrive/Desktop/GD32VW553/V1_MQTT_OK/GD32VW55X_Wifi_BLE_SDK/GD32VW55x_RELEASE_V1.0.2/MSDK/wpa_supplicant/src/tls\tlsv1_client_ocsp.c **** 	pos = hdr.payload + hdr.length;
 1660              		.loc 2 558 2 is_stmt 1
 1661 06d6 97000000 		call	wpa_hexdump
 1661      E7800000 
 1662              	.LVL163:
 559:C:/Users/stapi/OneDrive/Desktop/GD32VW553/V1_MQTT_OK/GD32VW55X_Wifi_BLE_SDK/GD32VW55x_RELEASE_V1.0.2/MSDK/wpa_supplicant/src/tls\tlsv1_client_ocsp.c **** 
 1663              		.loc 2 559 2
 559:C:/Users/stapi/OneDrive/Desktop/GD32VW553/V1_MQTT_OK/GD32VW55X_Wifi_BLE_SDK/GD32VW55x_RELEASE_V1.0.2/MSDK/wpa_supplicant/src/tls\tlsv1_client_ocsp.c **** 
 1664              		.loc 2 559 20 is_stmt 0
 1665 06de 4646     		lw	a2,80(sp)
 1666 06e0 F647     		lw	a5,92(sp)
 1667 06e2 3E96     		add	a2,a2,a5
 559:C:/Users/stapi/OneDrive/Desktop/GD32VW553/V1_MQTT_OK/GD32VW55X_Wifi_BLE_SDK/GD32VW55x_RELEASE_V1.0.2/MSDK/wpa_supplicant/src/tls\tlsv1_client_ocsp.c **** 
 1668              		.loc 2 559 6
 1669 06e4 32D4     		sw	a2,40(sp)
 561:C:/Users/stapi/OneDrive/Desktop/GD32VW553/V1_MQTT_OK/GD32VW55X_Wifi_BLE_SDK/GD32VW55x_RELEASE_V1.0.2/MSDK/wpa_supplicant/src/tls\tlsv1_client_ocsp.c **** 		/* responseExtensions  [1] EXPLICIT Extensions OPTIONAL */
 1670              		.loc 2 561 2 is_stmt 1
 561:C:/Users/stapi/OneDrive/Desktop/GD32VW553/V1_MQTT_OK/GD32VW55X_Wifi_BLE_SDK/GD32VW55x_RELEASE_V1.0.2/MSDK/wpa_supplicant/src/tls\tlsv1_client_ocsp.c **** 		/* responseExtensions  [1] EXPLICIT Extensions OPTIONAL */
 1671              		.loc 2 561 5 is_stmt 0
 1672 06e6 637D4601 		bleu	s4,a2,.L74
 563:C:/Users/stapi/OneDrive/Desktop/GD32VW553/V1_MQTT_OK/GD32VW55X_Wifi_BLE_SDK/GD32VW55x_RELEASE_V1.0.2/MSDK/wpa_supplicant/src/tls\tlsv1_client_ocsp.c **** 			    pos, end - pos);
 1673              		.loc 2 563 3 is_stmt 1
 1674 06ea B7050000 		lui	a1,%hi(.LC41)
 1675 06ee B306CA40 		sub	a3,s4,a2
 1676 06f2 93850500 		addi	a1,a1,%lo(.LC41)
 1677 06f6 0545     		li	a0,1
 1678 06f8 97000000 		call	wpa_hexdump
 1678      E7800000 
 1679              	.LVL164:
 1680              	.L74:
 568:C:/Users/stapi/OneDrive/Desktop/GD32VW553/V1_MQTT_OK/GD32VW55X_Wifi_BLE_SDK/GD32VW55x_RELEASE_V1.0.2/MSDK/wpa_supplicant/src/tls\tlsv1_client_ocsp.c **** 		wpa_printf(MSG_DEBUG,
 1681              		.loc 2 568 2
 574:C:/Users/stapi/OneDrive/Desktop/GD32VW553/V1_MQTT_OK/GD32VW55X_Wifi_BLE_SDK/GD32VW55x_RELEASE_V1.0.2/MSDK/wpa_supplicant/src/tls\tlsv1_client_ocsp.c **** 		/* Issuer has already been verified in the chain */
 1682              		.loc 2 574 2
 574:C:/Users/stapi/OneDrive/Desktop/GD32VW553/V1_MQTT_OK/GD32VW55X_Wifi_BLE_SDK/GD32VW55x_RELEASE_V1.0.2/MSDK/wpa_supplicant/src/tls\tlsv1_client_ocsp.c **** 		/* Issuer has already been verified in the chain */
 1683              		.loc 2 574 14 is_stmt 0
 1684 0700 832B0400 		lw	s7,0(s0)
 574:C:/Users/stapi/OneDrive/Desktop/GD32VW553/V1_MQTT_OK/GD32VW55X_Wifi_BLE_SDK/GD32VW55x_RELEASE_V1.0.2/MSDK/wpa_supplicant/src/tls\tlsv1_client_ocsp.c **** 		/* Issuer has already been verified in the chain */
 1685              		.loc 2 574 5
 1686 0704 63930B58 		bne	s7,zero,.L75
 579:C:/Users/stapi/OneDrive/Desktop/GD32VW553/V1_MQTT_OK/GD32VW55X_Wifi_BLE_SDK/GD32VW55x_RELEASE_V1.0.2/MSDK/wpa_supplicant/src/tls\tlsv1_client_ocsp.c **** 		     issuer; issuer = issuer->next) {
 1687              		.loc 2 579 3 is_stmt 1
 579:C:/Users/stapi/OneDrive/Desktop/GD32VW553/V1_MQTT_OK/GD32VW55X_Wifi_BLE_SDK/GD32VW55x_RELEASE_V1.0.2/MSDK/wpa_supplicant/src/tls\tlsv1_client_ocsp.c **** 		     issuer; issuer = issuer->next) {
 1688              		.loc 2 579 21 is_stmt 0
 1689 0708 83278B20 		lw	a5,520(s6)
 579:C:/Users/stapi/OneDrive/Desktop/GD32VW553/V1_MQTT_OK/GD32VW55X_Wifi_BLE_SDK/GD32VW55x_RELEASE_V1.0.2/MSDK/wpa_supplicant/src/tls\tlsv1_client_ocsp.c **** 		     issuer; issuer = issuer->next) {
 1690              		.loc 2 579 56
 1691 070c 99EB     		bne	a5,zero,.L76
 1692              	.L79:
 1693              	.LVL165:
 586:C:/Users/stapi/OneDrive/Desktop/GD32VW553/V1_MQTT_OK/GD32VW55X_Wifi_BLE_SDK/GD32VW55x_RELEASE_V1.0.2/MSDK/wpa_supplicant/src/tls\tlsv1_client_ocsp.c **** 		wpa_printf(MSG_DEBUG,
 1694              		.loc 2 586 2 is_stmt 1
 587:C:/Users/stapi/OneDrive/Desktop/GD32VW553/V1_MQTT_OK/GD32VW55X_Wifi_BLE_SDK/GD32VW55x_RELEASE_V1.0.2/MSDK/wpa_supplicant/src/tls\tlsv1_client_ocsp.c **** 			   "OCSP: Server certificate issuer not known - cannot check OCSP response");
 1695              		.loc 2 587 3
 1696 070e B7050000 		lui	a1,%hi(.LC42)
 1697 0712 93850500 		addi	a1,a1,%lo(.LC42)
 1698              	.LVL166:
 1699              	.L163:
 611:C:/Users/stapi/OneDrive/Desktop/GD32VW553/V1_MQTT_OK/GD32VW55X_Wifi_BLE_SDK/GD32VW55x_RELEASE_V1.0.2/MSDK/wpa_supplicant/src/tls\tlsv1_client_ocsp.c **** 				   "OCSP: Could not find OCSP signer certificate");
 1700              		.loc 2 611 4 is_stmt 0
 1701 0716 0945     		li	a0,2
 1702 0718 97000000 		call	wpa_printf
 1702      E7800000 
 1703              	.LVL167:
 613:C:/Users/stapi/OneDrive/Desktop/GD32VW553/V1_MQTT_OK/GD32VW55X_Wifi_BLE_SDK/GD32VW55x_RELEASE_V1.0.2/MSDK/wpa_supplicant/src/tls\tlsv1_client_ocsp.c **** 		}
 1704              		.loc 2 613 4 is_stmt 1
 1705 0720 EDBB     		j	.L60
 1706              	.L76:
 579:C:/Users/stapi/OneDrive/Desktop/GD32VW553/V1_MQTT_OK/GD32VW55X_Wifi_BLE_SDK/GD32VW55x_RELEASE_V1.0.2/MSDK/wpa_supplicant/src/tls\tlsv1_client_ocsp.c **** 		     issuer; issuer = issuer->next) {
 1707              		.loc 2 579 56 is_stmt 0
 1708 0722 83AB0700 		lw	s7,0(a5)
 581:C:/Users/stapi/OneDrive/Desktop/GD32VW553/V1_MQTT_OK/GD32VW55X_Wifi_BLE_SDK/GD32VW55x_RELEASE_V1.0.2/MSDK/wpa_supplicant/src/tls\tlsv1_client_ocsp.c **** 					      &issuer->subject) == 0)
 1709              		.loc 2 581 8
 1710 0726 930C4407 		addi	s9,s0,116
 1711              	.L77:
 1712              	.LVL168:
 580:C:/Users/stapi/OneDrive/Desktop/GD32VW553/V1_MQTT_OK/GD32VW55X_Wifi_BLE_SDK/GD32VW55x_RELEASE_V1.0.2/MSDK/wpa_supplicant/src/tls\tlsv1_client_ocsp.c **** 			if (x509_name_compare(&srv_cert->issuer,
 1713              		.loc 2 580 8 is_stmt 1
 579:C:/Users/stapi/OneDrive/Desktop/GD32VW553/V1_MQTT_OK/GD32VW55X_Wifi_BLE_SDK/GD32VW55x_RELEASE_V1.0.2/MSDK/wpa_supplicant/src/tls\tlsv1_client_ocsp.c **** 		     issuer; issuer = issuer->next) {
 1714              		.loc 2 579 3 is_stmt 0
 1715 072a E3820BFE 		beq	s7,zero,.L79
 581:C:/Users/stapi/OneDrive/Desktop/GD32VW553/V1_MQTT_OK/GD32VW55X_Wifi_BLE_SDK/GD32VW55x_RELEASE_V1.0.2/MSDK/wpa_supplicant/src/tls\tlsv1_client_ocsp.c **** 					      &issuer->subject) == 0)
 1716              		.loc 2 581 4 is_stmt 1
 581:C:/Users/stapi/OneDrive/Desktop/GD32VW553/V1_MQTT_OK/GD32VW55X_Wifi_BLE_SDK/GD32VW55x_RELEASE_V1.0.2/MSDK/wpa_supplicant/src/tls\tlsv1_client_ocsp.c **** 					      &issuer->subject) == 0)
 1717              		.loc 2 581 8 is_stmt 0
 1718 072e 93854B18 		addi	a1,s7,388
 1719 0732 6685     		mv	a0,s9
 1720 0734 97000000 		call	x509_name_compare
 1720      E7800000 
 1721              	.LVL169:
 581:C:/Users/stapi/OneDrive/Desktop/GD32VW553/V1_MQTT_OK/GD32VW55X_Wifi_BLE_SDK/GD32VW55x_RELEASE_V1.0.2/MSDK/wpa_supplicant/src/tls\tlsv1_client_ocsp.c **** 					      &issuer->subject) == 0)
 1722              		.loc 2 581 7
 1723 073c 63070554 		beq	a0,zero,.L75
 580:C:/Users/stapi/OneDrive/Desktop/GD32VW553/V1_MQTT_OK/GD32VW55X_Wifi_BLE_SDK/GD32VW55x_RELEASE_V1.0.2/MSDK/wpa_supplicant/src/tls\tlsv1_client_ocsp.c **** 			if (x509_name_compare(&srv_cert->issuer,
 1724              		.loc 2 580 16 is_stmt 1
 580:C:/Users/stapi/OneDrive/Desktop/GD32VW553/V1_MQTT_OK/GD32VW55X_Wifi_BLE_SDK/GD32VW55x_RELEASE_V1.0.2/MSDK/wpa_supplicant/src/tls\tlsv1_client_ocsp.c **** 			if (x509_name_compare(&srv_cert->issuer,
 1725              		.loc 2 580 23 is_stmt 0
 1726 0740 83AB0B00 		lw	s7,0(s7)
 1727              	.LVL170:
 1728 0744 DDB7     		j	.L77
 1729              	.L120:
 593:C:/Users/stapi/OneDrive/Desktop/GD32VW553/V1_MQTT_OK/GD32VW55X_Wifi_BLE_SDK/GD32VW55x_RELEASE_V1.0.2/MSDK/wpa_supplicant/src/tls\tlsv1_client_ocsp.c **** 			   "OCSP: Server certificate issuer certificate matches ResponderID");
 1730              		.loc 2 593 3 is_stmt 1
 1731 0746 B7050000 		lui	a1,%hi(.LC43)
 1732 074a 93850500 		addi	a1,a1,%lo(.LC43)
 1733 074e 0945     		li	a0,2
 1734 0750 97000000 		call	wpa_printf
 1734      E7800000 
 1735              	.LVL171:
 595:C:/Users/stapi/OneDrive/Desktop/GD32VW553/V1_MQTT_OK/GD32VW55X_Wifi_BLE_SDK/GD32VW55x_RELEASE_V1.0.2/MSDK/wpa_supplicant/src/tls\tlsv1_client_ocsp.c **** 	} else {
 1736              		.loc 2 595 3
 1737 0758 DE8C     		mv	s9,s7
 1738              	.LVL172:
 1739              	.L80:
 617:C:/Users/stapi/OneDrive/Desktop/GD32VW553/V1_MQTT_OK/GD32VW55X_Wifi_BLE_SDK/GD32VW55x_RELEASE_V1.0.2/MSDK/wpa_supplicant/src/tls\tlsv1_client_ocsp.c **** 	os_memset(&name, 0, sizeof(name));
 1740              		.loc 2 617 2
 1741 075a 881D     		addi	a0,sp,752
 1742 075c 97000000 		call	x509_free_name
 1742      E7800000 
 1743              	.LVL173:
 618:C:/Users/stapi/OneDrive/Desktop/GD32VW553/V1_MQTT_OK/GD32VW55X_Wifi_BLE_SDK/GD32VW55x_RELEASE_V1.0.2/MSDK/wpa_supplicant/src/tls\tlsv1_client_ocsp.c **** 	x509_certificate_chain_free(certs);
 1744              		.loc 2 618 2
 1745 0764 13060011 		li	a2,272
 1746 0768 8145     		li	a1,0
 1747 076a 881D     		addi	a0,sp,752
 1748 076c 97000000 		call	os_memset
 1748      E7800000 
 1749              	.LVL174:
 619:C:/Users/stapi/OneDrive/Desktop/GD32VW553/V1_MQTT_OK/GD32VW55X_Wifi_BLE_SDK/GD32VW55x_RELEASE_V1.0.2/MSDK/wpa_supplicant/src/tls\tlsv1_client_ocsp.c **** 	certs = NULL;
 1750              		.loc 2 619 2
 1751 0774 5685     		mv	a0,s5
 1752 0776 97000000 		call	x509_certificate_chain_free
 1752      E7800000 
 1753              	.LVL175:
 620:C:/Users/stapi/OneDrive/Desktop/GD32VW553/V1_MQTT_OK/GD32VW55X_Wifi_BLE_SDK/GD32VW55x_RELEASE_V1.0.2/MSDK/wpa_supplicant/src/tls\tlsv1_client_ocsp.c **** 
 1754              		.loc 2 620 2
 622:C:/Users/stapi/OneDrive/Desktop/GD32VW553/V1_MQTT_OK/GD32VW55X_Wifi_BLE_SDK/GD32VW55x_RELEASE_V1.0.2/MSDK/wpa_supplicant/src/tls\tlsv1_client_ocsp.c **** 				 resp_data_signed, resp_data_signed_len) < 0) {
 1755              		.loc 2 622 2
 622:C:/Users/stapi/OneDrive/Desktop/GD32VW553/V1_MQTT_OK/GD32VW55X_Wifi_BLE_SDK/GD32VW55x_RELEASE_V1.0.2/MSDK/wpa_supplicant/src/tls\tlsv1_client_ocsp.c **** 				 resp_data_signed, resp_data_signed_len) < 0) {
 1756              		.loc 2 622 6 is_stmt 0
 1757 077e A247     		lw	a5,8(sp)
 1758 0780 2247     		lw	a4,8(sp)
 1759 0782 3246     		lw	a2,12(sp)
 1760 0784 B307FA40 		sub	a5,s4,a5
 1761 0788 6685     		mv	a0,s9
 1762 078a EA86     		mv	a3,s10
 1763 078c CC12     		addi	a1,sp,356
 1764 078e 97000000 		call	x509_check_signature
 1764      E7800000 
 1765              	.LVL176:
 1766              	.LBB70:
 1767              	.LBB71:
 321:C:/Users/stapi/OneDrive/Desktop/GD32VW553/V1_MQTT_OK/GD32VW55X_Wifi_BLE_SDK/GD32VW55x_RELEASE_V1.0.2/MSDK/wpa_supplicant/src/tls\tlsv1_client_ocsp.c **** 	while (pos < end) {
 1768              		.loc 2 321 6
 1769 0796 C247     		lw	a5,16(sp)
 1770 0798 B30CFC00 		add	s9,s8,a5
 1771              	.LVL177:
 1772              	.LBE71:
 1773              	.LBE70:
 622:C:/Users/stapi/OneDrive/Desktop/GD32VW553/V1_MQTT_OK/GD32VW55X_Wifi_BLE_SDK/GD32VW55x_RELEASE_V1.0.2/MSDK/wpa_supplicant/src/tls\tlsv1_client_ocsp.c **** 				 resp_data_signed, resp_data_signed_len) < 0) {
 1774              		.loc 2 622 5
 1775 079c 634E0506 		blt	a0,zero,.L158
 1776              	.LBB94:
 1777              	.LBB92:
 1778              	.LBB72:
 1779              	.LBB73:
 211:C:/Users/stapi/OneDrive/Desktop/GD32VW553/V1_MQTT_OK/GD32VW55X_Wifi_BLE_SDK/GD32VW55x_RELEASE_V1.0.2/MSDK/wpa_supplicant/src/tls\tlsv1_client_ocsp.c **** 				"OCSP: No INTEGER tag found for serialNumber");
 1780              		.loc 2 211 3
 1781 07a0 B70D0000 		lui	s11,%hi(.LC58)
 1782              	.LVL178:
 1783              	.L87:
 1784              	.LBE73:
 1785              	.LBE72:
 322:C:/Users/stapi/OneDrive/Desktop/GD32VW553/V1_MQTT_OK/GD32VW55X_Wifi_BLE_SDK/GD32VW55x_RELEASE_V1.0.2/MSDK/wpa_supplicant/src/tls\tlsv1_client_ocsp.c **** 		/* SingleResponse ::= SEQUENCE */
 1786              		.loc 2 322 8 is_stmt 1
 1787 07a4 63649C09 		bgtu	s9,s8,.L117
 337:C:/Users/stapi/OneDrive/Desktop/GD32VW553/V1_MQTT_OK/GD32VW55X_Wifi_BLE_SDK/GD32VW55x_RELEASE_V1.0.2/MSDK/wpa_supplicant/src/tls\tlsv1_client_ocsp.c **** 		   "OCSP: Did not find a response matching the server certificate");
 1788              		.loc 2 337 2
 1789 07a8 B7050000 		lui	a1,%hi(.LC71)
 1790 07ac 93850500 		addi	a1,a1,%lo(.LC71)
 1791 07b0 0945     		li	a0,2
 1792 07b2 97000000 		call	wpa_printf
 1792      E7800000 
 1793              	.LVL179:
 339:C:/Users/stapi/OneDrive/Desktop/GD32VW553/V1_MQTT_OK/GD32VW55X_Wifi_BLE_SDK/GD32VW55x_RELEASE_V1.0.2/MSDK/wpa_supplicant/src/tls\tlsv1_client_ocsp.c **** }
 1794              		.loc 2 339 2
 1795              	.LBE92:
 1796              	.LBE94:
 630:C:/Users/stapi/OneDrive/Desktop/GD32VW553/V1_MQTT_OK/GD32VW55X_Wifi_BLE_SDK/GD32VW55x_RELEASE_V1.0.2/MSDK/wpa_supplicant/src/tls\tlsv1_client_ocsp.c **** 		srv_cert->ocsp_revoked = 1;
 1797              		.loc 2 630 2
 1798 07ba 69A9     		j	.L40
 1799              	.LVL180:
 1800              	.L84:
 598:C:/Users/stapi/OneDrive/Desktop/GD32VW553/V1_MQTT_OK/GD32VW55X_Wifi_BLE_SDK/GD32VW55x_RELEASE_V1.0.2/MSDK/wpa_supplicant/src/tls\tlsv1_client_ocsp.c **** 			    x509_name_compare(&srv_cert->issuer,
 1801              		.loc 2 598 4
 598:C:/Users/stapi/OneDrive/Desktop/GD32VW553/V1_MQTT_OK/GD32VW55X_Wifi_BLE_SDK/GD32VW55x_RELEASE_V1.0.2/MSDK/wpa_supplicant/src/tls\tlsv1_client_ocsp.c **** 			    x509_name_compare(&srv_cert->issuer,
 1802              		.loc 2 598 9 is_stmt 0
 1803 07bc 6E86     		mv	a2,s11
 1804 07be 8C1D     		addi	a1,sp,752
 1805 07c0 6685     		mv	a0,s9
 1806 07c2 97000000 		call	ocsp_responder_id_match
 1806      E7800000 
 1807              	.LVL181:
 598:C:/Users/stapi/OneDrive/Desktop/GD32VW553/V1_MQTT_OK/GD32VW55X_Wifi_BLE_SDK/GD32VW55x_RELEASE_V1.0.2/MSDK/wpa_supplicant/src/tls\tlsv1_client_ocsp.c **** 			    x509_name_compare(&srv_cert->issuer,
 1808              		.loc 2 598 7
 1809 07ca 11E9     		bne	a0,zero,.L81
 1810              	.L83:
 605:C:/Users/stapi/OneDrive/Desktop/GD32VW553/V1_MQTT_OK/GD32VW55X_Wifi_BLE_SDK/GD32VW55x_RELEASE_V1.0.2/MSDK/wpa_supplicant/src/tls\tlsv1_client_ocsp.c **** 			wpa_printf(MSG_DEBUG,
 1811              		.loc 2 605 5 is_stmt 1
 597:C:/Users/stapi/OneDrive/Desktop/GD32VW553/V1_MQTT_OK/GD32VW55X_Wifi_BLE_SDK/GD32VW55x_RELEASE_V1.0.2/MSDK/wpa_supplicant/src/tls\tlsv1_client_ocsp.c **** 			if (!ocsp_responder_id_match(signer, &name, key_hash) ||
 1812              		.loc 2 597 32
 597:C:/Users/stapi/OneDrive/Desktop/GD32VW553/V1_MQTT_OK/GD32VW55X_Wifi_BLE_SDK/GD32VW55x_RELEASE_V1.0.2/MSDK/wpa_supplicant/src/tls\tlsv1_client_ocsp.c **** 			if (!ocsp_responder_id_match(signer, &name, key_hash) ||
 1813              		.loc 2 597 39 is_stmt 0
 1814 07cc 83AC0C00 		lw	s9,0(s9)
 1815              	.LVL182:
 1816              	.L82:
 597:C:/Users/stapi/OneDrive/Desktop/GD32VW553/V1_MQTT_OK/GD32VW55X_Wifi_BLE_SDK/GD32VW55x_RELEASE_V1.0.2/MSDK/wpa_supplicant/src/tls\tlsv1_client_ocsp.c **** 			if (!ocsp_responder_id_match(signer, &name, key_hash) ||
 1817              		.loc 2 597 24 is_stmt 1
 597:C:/Users/stapi/OneDrive/Desktop/GD32VW553/V1_MQTT_OK/GD32VW55X_Wifi_BLE_SDK/GD32VW55x_RELEASE_V1.0.2/MSDK/wpa_supplicant/src/tls\tlsv1_client_ocsp.c **** 			if (!ocsp_responder_id_match(signer, &name, key_hash) ||
 1818              		.loc 2 597 3 is_stmt 0
 1819 07d0 E3960CFE 		bne	s9,zero,.L84
 610:C:/Users/stapi/OneDrive/Desktop/GD32VW553/V1_MQTT_OK/GD32VW55X_Wifi_BLE_SDK/GD32VW55x_RELEASE_V1.0.2/MSDK/wpa_supplicant/src/tls\tlsv1_client_ocsp.c **** 			wpa_printf(MSG_DEBUG,
 1820              		.loc 2 610 3 is_stmt 1
 611:C:/Users/stapi/OneDrive/Desktop/GD32VW553/V1_MQTT_OK/GD32VW55X_Wifi_BLE_SDK/GD32VW55x_RELEASE_V1.0.2/MSDK/wpa_supplicant/src/tls\tlsv1_client_ocsp.c **** 				   "OCSP: Could not find OCSP signer certificate");
 1821              		.loc 2 611 4
 1822 07d4 B7050000 		lui	a1,%hi(.LC72)
 1823 07d8 93850500 		addi	a1,a1,%lo(.LC72)
 1824 07dc 2DBF     		j	.L163
 1825              	.L81:
 599:C:/Users/stapi/OneDrive/Desktop/GD32VW553/V1_MQTT_OK/GD32VW55X_Wifi_BLE_SDK/GD32VW55x_RELEASE_V1.0.2/MSDK/wpa_supplicant/src/tls\tlsv1_client_ocsp.c **** 					      &issuer->subject) != 0 ||
 1826              		.loc 2 599 8 is_stmt 0
 1827 07de E245     		lw	a1,24(sp)
 1828 07e0 7245     		lw	a0,28(sp)
 1829 07e2 97000000 		call	x509_name_compare
 1829      E7800000 
 1830              	.LVL183:
 598:C:/Users/stapi/OneDrive/Desktop/GD32VW553/V1_MQTT_OK/GD32VW55X_Wifi_BLE_SDK/GD32VW55x_RELEASE_V1.0.2/MSDK/wpa_supplicant/src/tls\tlsv1_client_ocsp.c **** 			    x509_name_compare(&srv_cert->issuer,
 1831              		.loc 2 598 58
 1832 07ea 6DF1     		bne	a0,zero,.L83
 601:C:/Users/stapi/OneDrive/Desktop/GD32VW553/V1_MQTT_OK/GD32VW55X_Wifi_BLE_SDK/GD32VW55x_RELEASE_V1.0.2/MSDK/wpa_supplicant/src/tls\tlsv1_client_ocsp.c **** 			      X509_EXT_KEY_USAGE_OCSP) ||
 1833              		.loc 2 601 32
 1834 07ec 83A7CC36 		lw	a5,876(s9)
 1835 07f0 A18B     		andi	a5,a5,8
 600:C:/Users/stapi/OneDrive/Desktop/GD32VW553/V1_MQTT_OK/GD32VW55X_Wifi_BLE_SDK/GD32VW55x_RELEASE_V1.0.2/MSDK/wpa_supplicant/src/tls\tlsv1_client_ocsp.c **** 			    !(signer->ext_key_usage &
 1836              		.loc 2 600 35
 1837 07f2 E9DF     		beq	a5,zero,.L83
 603:C:/Users/stapi/OneDrive/Desktop/GD32VW553/V1_MQTT_OK/GD32VW55X_Wifi_BLE_SDK/GD32VW55x_RELEASE_V1.0.2/MSDK/wpa_supplicant/src/tls\tlsv1_client_ocsp.c **** 			    0)
 1838              		.loc 2 603 8
 1839 07f4 E685     		mv	a1,s9
 1840 07f6 5E85     		mv	a0,s7
 1841 07f8 97000000 		call	x509_certificate_check_signature
 1841      E7800000 
 1842              	.LVL184:
 602:C:/Users/stapi/OneDrive/Desktop/GD32VW553/V1_MQTT_OK/GD32VW55X_Wifi_BLE_SDK/GD32VW55x_RELEASE_V1.0.2/MSDK/wpa_supplicant/src/tls\tlsv1_client_ocsp.c **** 			    x509_certificate_check_signature(issuer, signer) <
 1843              		.loc 2 602 35
 1844 0800 E34605FC 		blt	a0,zero,.L83
 606:C:/Users/stapi/OneDrive/Desktop/GD32VW553/V1_MQTT_OK/GD32VW55X_Wifi_BLE_SDK/GD32VW55x_RELEASE_V1.0.2/MSDK/wpa_supplicant/src/tls\tlsv1_client_ocsp.c **** 				   "OCSP: An extra certificate from the response matches ResponderID and is trusted as an OCSP 
 1845              		.loc 2 606 4 is_stmt 1
 1846 0804 B7050000 		lui	a1,%hi(.LC44)
 1847 0808 93850500 		addi	a1,a1,%lo(.LC44)
 1848 080c 0945     		li	a0,2
 1849 080e 97000000 		call	wpa_printf
 1849      E7800000 
 1850              	.LVL185:
 608:C:/Users/stapi/OneDrive/Desktop/GD32VW553/V1_MQTT_OK/GD32VW55X_Wifi_BLE_SDK/GD32VW55x_RELEASE_V1.0.2/MSDK/wpa_supplicant/src/tls\tlsv1_client_ocsp.c **** 		}
 1851              		.loc 2 608 4
 610:C:/Users/stapi/OneDrive/Desktop/GD32VW553/V1_MQTT_OK/GD32VW55X_Wifi_BLE_SDK/GD32VW55x_RELEASE_V1.0.2/MSDK/wpa_supplicant/src/tls\tlsv1_client_ocsp.c **** 			wpa_printf(MSG_DEBUG,
 1852              		.loc 2 610 3
 1853 0816 91B7     		j	.L80
 1854              	.LVL186:
 1855              	.L158:
 624:C:/Users/stapi/OneDrive/Desktop/GD32VW553/V1_MQTT_OK/GD32VW55X_Wifi_BLE_SDK/GD32VW55x_RELEASE_V1.0.2/MSDK/wpa_supplicant/src/tls\tlsv1_client_ocsp.c **** 		    return TLS_OCSP_INVALID;
 1856              		.loc 2 624 7
 1857 0818 B7050000 		lui	a1,%hi(.LC45)
 1858 081c 93850500 		addi	a1,a1,%lo(.LC45)
 1859 0820 0945     		li	a0,2
 1860 0822 97000000 		call	wpa_printf
 1860      E7800000 
 1861              	.LVL187:
 625:C:/Users/stapi/OneDrive/Desktop/GD32VW553/V1_MQTT_OK/GD32VW55X_Wifi_BLE_SDK/GD32VW55x_RELEASE_V1.0.2/MSDK/wpa_supplicant/src/tls\tlsv1_client_ocsp.c **** 	}
 1862              		.loc 2 625 7
 1863 082a 75B4     		j	.L165
 1864              	.LVL188:
 1865              	.L117:
 1866              	.LBB95:
 1867              	.LBB93:
 324:C:/Users/stapi/OneDrive/Desktop/GD32VW553/V1_MQTT_OK/GD32VW55X_Wifi_BLE_SDK/GD32VW55x_RELEASE_V1.0.2/MSDK/wpa_supplicant/src/tls\tlsv1_client_ocsp.c **** 		    !asn1_is_sequence(&hdr)) {
 1868              		.loc 2 324 3
 324:C:/Users/stapi/OneDrive/Desktop/GD32VW553/V1_MQTT_OK/GD32VW55X_Wifi_BLE_SDK/GD32VW55x_RELEASE_V1.0.2/MSDK/wpa_supplicant/src/tls\tlsv1_client_ocsp.c **** 		    !asn1_is_sequence(&hdr)) {
 1869              		.loc 2 324 7 is_stmt 0
 1870 082c 9010     		addi	a2,sp,96
 1871 082e B3858C41 		sub	a1,s9,s8
 1872 0832 6285     		mv	a0,s8
 1873 0834 97000000 		call	asn1_get_next
 1873      E7800000 
 1874              	.LVL189:
 324:C:/Users/stapi/OneDrive/Desktop/GD32VW553/V1_MQTT_OK/GD32VW55X_Wifi_BLE_SDK/GD32VW55x_RELEASE_V1.0.2/MSDK/wpa_supplicant/src/tls\tlsv1_client_ocsp.c **** 		    !asn1_is_sequence(&hdr)) {
 1875              		.loc 2 324 6
 1876 083c 63480500 		blt	a0,zero,.L88
 325:C:/Users/stapi/OneDrive/Desktop/GD32VW553/V1_MQTT_OK/GD32VW55X_Wifi_BLE_SDK/GD32VW55x_RELEASE_V1.0.2/MSDK/wpa_supplicant/src/tls\tlsv1_client_ocsp.c **** 			asn1_unexpected(&hdr,
 1877              		.loc 2 325 8
 1878 0840 8810     		addi	a0,sp,96
 1879 0842 97000000 		call	asn1_is_sequence
 1879      E7800000 
 1880              	.LVL190:
 324:C:/Users/stapi/OneDrive/Desktop/GD32VW553/V1_MQTT_OK/GD32VW55X_Wifi_BLE_SDK/GD32VW55x_RELEASE_V1.0.2/MSDK/wpa_supplicant/src/tls\tlsv1_client_ocsp.c **** 		    !asn1_is_sequence(&hdr)) {
 1881              		.loc 2 324 47
 1882 084a 19E5     		bne	a0,zero,.L89
 1883              	.L88:
 326:C:/Users/stapi/OneDrive/Desktop/GD32VW553/V1_MQTT_OK/GD32VW55X_Wifi_BLE_SDK/GD32VW55x_RELEASE_V1.0.2/MSDK/wpa_supplicant/src/tls\tlsv1_client_ocsp.c **** 					"OCSP: Expected SEQUENCE (SingleResponse)");
 1884              		.loc 2 326 4 is_stmt 1
 1885 084c B7050000 		lui	a1,%hi(.LC46)
 1886 0850 93850500 		addi	a1,a1,%lo(.LC46)
 1887 0854 8810     		addi	a0,sp,96
 1888 0856 A5BC     		j	.L169
 1889              	.L89:
 330:C:/Users/stapi/OneDrive/Desktop/GD32VW553/V1_MQTT_OK/GD32VW55X_Wifi_BLE_SDK/GD32VW55x_RELEASE_V1.0.2/MSDK/wpa_supplicant/src/tls\tlsv1_client_ocsp.c **** 						     hdr.payload, hdr.length,
 1890              		.loc 2 330 3
 330:C:/Users/stapi/OneDrive/Desktop/GD32VW553/V1_MQTT_OK/GD32VW55X_Wifi_BLE_SDK/GD32VW55x_RELEASE_V1.0.2/MSDK/wpa_supplicant/src/tls\tlsv1_client_ocsp.c **** 						     hdr.payload, hdr.length,
 1891              		.loc 2 330 7 is_stmt 0
 1892 0858 065D     		lw	s10,96(sp)
 1893 085a 365A     		lw	s4,108(sp)
 1894              	.LVL191:
 1895              	.LBB90:
 1896              	.LBB88:
 116:C:/Users/stapi/OneDrive/Desktop/GD32VW553/V1_MQTT_OK/GD32VW55X_Wifi_BLE_SDK/GD32VW55x_RELEASE_V1.0.2/MSDK/wpa_supplicant/src/tls\tlsv1_client_ocsp.c **** 	const u8 *pos, *end;
 1897              		.loc 2 116 2 is_stmt 1
 117:C:/Users/stapi/OneDrive/Desktop/GD32VW553/V1_MQTT_OK/GD32VW55X_Wifi_BLE_SDK/GD32VW55x_RELEASE_V1.0.2/MSDK/wpa_supplicant/src/tls\tlsv1_client_ocsp.c **** 	struct x509_algorithm_identifier alg;
 1898              		.loc 2 117 2
 118:C:/Users/stapi/OneDrive/Desktop/GD32VW553/V1_MQTT_OK/GD32VW55X_Wifi_BLE_SDK/GD32VW55x_RELEASE_V1.0.2/MSDK/wpa_supplicant/src/tls\tlsv1_client_ocsp.c **** 	const u8 *name_hash, *key_hash;
 1899              		.loc 2 118 2
 119:C:/Users/stapi/OneDrive/Desktop/GD32VW553/V1_MQTT_OK/GD32VW55X_Wifi_BLE_SDK/GD32VW55x_RELEASE_V1.0.2/MSDK/wpa_supplicant/src/tls\tlsv1_client_ocsp.c **** 	size_t name_hash_len, key_hash_len;
 1900              		.loc 2 119 2
 120:C:/Users/stapi/OneDrive/Desktop/GD32VW553/V1_MQTT_OK/GD32VW55X_Wifi_BLE_SDK/GD32VW55x_RELEASE_V1.0.2/MSDK/wpa_supplicant/src/tls\tlsv1_client_ocsp.c **** 	const u8 *serial_number;
 1901              		.loc 2 120 2
 121:C:/Users/stapi/OneDrive/Desktop/GD32VW553/V1_MQTT_OK/GD32VW55X_Wifi_BLE_SDK/GD32VW55x_RELEASE_V1.0.2/MSDK/wpa_supplicant/src/tls\tlsv1_client_ocsp.c **** 	size_t serial_number_len;
 1902              		.loc 2 121 2
 122:C:/Users/stapi/OneDrive/Desktop/GD32VW553/V1_MQTT_OK/GD32VW55X_Wifi_BLE_SDK/GD32VW55x_RELEASE_V1.0.2/MSDK/wpa_supplicant/src/tls\tlsv1_client_ocsp.c **** 	u8 hash[64];
 1903              		.loc 2 122 2
 123:C:/Users/stapi/OneDrive/Desktop/GD32VW553/V1_MQTT_OK/GD32VW55X_Wifi_BLE_SDK/GD32VW55x_RELEASE_V1.0.2/MSDK/wpa_supplicant/src/tls\tlsv1_client_ocsp.c **** 	unsigned int hash_len;
 1904              		.loc 2 123 2
 124:C:/Users/stapi/OneDrive/Desktop/GD32VW553/V1_MQTT_OK/GD32VW55X_Wifi_BLE_SDK/GD32VW55x_RELEASE_V1.0.2/MSDK/wpa_supplicant/src/tls\tlsv1_client_ocsp.c **** 	unsigned int cert_status;
 1905              		.loc 2 124 2
 125:C:/Users/stapi/OneDrive/Desktop/GD32VW553/V1_MQTT_OK/GD32VW55X_Wifi_BLE_SDK/GD32VW55x_RELEASE_V1.0.2/MSDK/wpa_supplicant/src/tls\tlsv1_client_ocsp.c **** 	os_time_t update;
 1906              		.loc 2 125 2
 126:C:/Users/stapi/OneDrive/Desktop/GD32VW553/V1_MQTT_OK/GD32VW55X_Wifi_BLE_SDK/GD32VW55x_RELEASE_V1.0.2/MSDK/wpa_supplicant/src/tls\tlsv1_client_ocsp.c **** 	struct os_time now;
 1907              		.loc 2 126 2
 127:C:/Users/stapi/OneDrive/Desktop/GD32VW553/V1_MQTT_OK/GD32VW55X_Wifi_BLE_SDK/GD32VW55x_RELEASE_V1.0.2/MSDK/wpa_supplicant/src/tls\tlsv1_client_ocsp.c **** 
 1908              		.loc 2 127 2
 129:C:/Users/stapi/OneDrive/Desktop/GD32VW553/V1_MQTT_OK/GD32VW55X_Wifi_BLE_SDK/GD32VW55x_RELEASE_V1.0.2/MSDK/wpa_supplicant/src/tls\tlsv1_client_ocsp.c **** 
 1909              		.loc 2 129 2
 1910 085c B7070000 		lui	a5,%hi(.LC47)
 1911 0860 6A86     		mv	a2,s10
 1912 0862 93850700 		addi	a1,a5,%lo(.LC47)
 1913 0866 0545     		li	a0,1
 1914 0868 D286     		mv	a3,s4
 1915 086a 97000000 		call	wpa_hexdump
 1915      E7800000 
 1916              	.LVL192:
 141:C:/Users/stapi/OneDrive/Desktop/GD32VW553/V1_MQTT_OK/GD32VW55X_Wifi_BLE_SDK/GD32VW55x_RELEASE_V1.0.2/MSDK/wpa_supplicant/src/tls\tlsv1_client_ocsp.c **** 		asn1_unexpected(&hdr, "OCSP: Expected SEQUENCE (CertID)");
 1917              		.loc 2 141 2
 141:C:/Users/stapi/OneDrive/Desktop/GD32VW553/V1_MQTT_OK/GD32VW55X_Wifi_BLE_SDK/GD32VW55x_RELEASE_V1.0.2/MSDK/wpa_supplicant/src/tls\tlsv1_client_ocsp.c **** 		asn1_unexpected(&hdr, "OCSP: Expected SEQUENCE (CertID)");
 1918              		.loc 2 141 6 is_stmt 0
 1919 0872 9018     		addi	a2,sp,112
 1920 0874 D285     		mv	a1,s4
 1921 0876 6A85     		mv	a0,s10
 1922 0878 97000000 		call	asn1_get_next
 1922      E7800000 
 1923              	.LVL193:
 141:C:/Users/stapi/OneDrive/Desktop/GD32VW553/V1_MQTT_OK/GD32VW55X_Wifi_BLE_SDK/GD32VW55x_RELEASE_V1.0.2/MSDK/wpa_supplicant/src/tls\tlsv1_client_ocsp.c **** 		asn1_unexpected(&hdr, "OCSP: Expected SEQUENCE (CertID)");
 1924              		.loc 2 141 5
 1925 0880 63480500 		blt	a0,zero,.L90
 141:C:/Users/stapi/OneDrive/Desktop/GD32VW553/V1_MQTT_OK/GD32VW55X_Wifi_BLE_SDK/GD32VW55x_RELEASE_V1.0.2/MSDK/wpa_supplicant/src/tls\tlsv1_client_ocsp.c **** 		asn1_unexpected(&hdr, "OCSP: Expected SEQUENCE (CertID)");
 1926              		.loc 2 141 45
 1927 0884 8818     		addi	a0,sp,112
 1928 0886 97000000 		call	asn1_is_sequence
 1928      E7800000 
 1929              	.LVL194:
 141:C:/Users/stapi/OneDrive/Desktop/GD32VW553/V1_MQTT_OK/GD32VW55X_Wifi_BLE_SDK/GD32VW55x_RELEASE_V1.0.2/MSDK/wpa_supplicant/src/tls\tlsv1_client_ocsp.c **** 		asn1_unexpected(&hdr, "OCSP: Expected SEQUENCE (CertID)");
 1930              		.loc 2 141 41
 1931 088e 19E9     		bne	a0,zero,.L91
 1932              	.L90:
 142:C:/Users/stapi/OneDrive/Desktop/GD32VW553/V1_MQTT_OK/GD32VW55X_Wifi_BLE_SDK/GD32VW55x_RELEASE_V1.0.2/MSDK/wpa_supplicant/src/tls\tlsv1_client_ocsp.c **** 		return -1;
 1933              		.loc 2 142 3 is_stmt 1
 1934 0890 B7070000 		lui	a5,%hi(.LC48)
 1935 0894 93850700 		addi	a1,a5,%lo(.LC48)
 1936              	.LVL195:
 1937              	.L162:
 243:C:/Users/stapi/OneDrive/Desktop/GD32VW553/V1_MQTT_OK/GD32VW55X_Wifi_BLE_SDK/GD32VW55x_RELEASE_V1.0.2/MSDK/wpa_supplicant/src/tls\tlsv1_client_ocsp.c **** 		return -1;
 1938              		.loc 2 243 3 is_stmt 0
 1939 0898 8818     		addi	a0,sp,112
 1940 089a 97000000 		call	asn1_unexpected
 1940      E7800000 
 1941              	.LVL196:
 244:C:/Users/stapi/OneDrive/Desktop/GD32VW553/V1_MQTT_OK/GD32VW55X_Wifi_BLE_SDK/GD32VW55x_RELEASE_V1.0.2/MSDK/wpa_supplicant/src/tls\tlsv1_client_ocsp.c **** 	}
 1942              		.loc 2 244 3 is_stmt 1
 1943 08a2 C1A0     		j	.L92
 1944              	.LVL197:
 1945              	.L91:
 145:C:/Users/stapi/OneDrive/Desktop/GD32VW553/V1_MQTT_OK/GD32VW55X_Wifi_BLE_SDK/GD32VW55x_RELEASE_V1.0.2/MSDK/wpa_supplicant/src/tls\tlsv1_client_ocsp.c **** 	end = hdr.payload + hdr.length;
 1946              		.loc 2 145 2
 145:C:/Users/stapi/OneDrive/Desktop/GD32VW553/V1_MQTT_OK/GD32VW55X_Wifi_BLE_SDK/GD32VW55x_RELEASE_V1.0.2/MSDK/wpa_supplicant/src/tls\tlsv1_client_ocsp.c **** 	end = hdr.payload + hdr.length;
 1947              		.loc 2 145 11 is_stmt 0
 1948 08a4 4655     		lw	a0,112(sp)
 146:C:/Users/stapi/OneDrive/Desktop/GD32VW553/V1_MQTT_OK/GD32VW55X_Wifi_BLE_SDK/GD32VW55x_RELEASE_V1.0.2/MSDK/wpa_supplicant/src/tls\tlsv1_client_ocsp.c **** 
 1949              		.loc 2 146 25
 1950 08a6 F655     		lw	a1,124(sp)
 157:C:/Users/stapi/OneDrive/Desktop/GD32VW553/V1_MQTT_OK/GD32VW55X_Wifi_BLE_SDK/GD32VW55x_RELEASE_V1.0.2/MSDK/wpa_supplicant/src/tls\tlsv1_client_ocsp.c **** 		return -1;
 1951              		.loc 2 157 6
 1952 08a8 1418     		addi	a3,sp,48
 1953 08aa 301B     		addi	a2,sp,440
 145:C:/Users/stapi/OneDrive/Desktop/GD32VW553/V1_MQTT_OK/GD32VW55X_Wifi_BLE_SDK/GD32VW55x_RELEASE_V1.0.2/MSDK/wpa_supplicant/src/tls\tlsv1_client_ocsp.c **** 	end = hdr.payload + hdr.length;
 1954              		.loc 2 145 6
 1955 08ac 2AD8     		sw	a0,48(sp)
 146:C:/Users/stapi/OneDrive/Desktop/GD32VW553/V1_MQTT_OK/GD32VW55X_Wifi_BLE_SDK/GD32VW55x_RELEASE_V1.0.2/MSDK/wpa_supplicant/src/tls\tlsv1_client_ocsp.c **** 
 1956              		.loc 2 146 2 is_stmt 1
 146:C:/Users/stapi/OneDrive/Desktop/GD32VW553/V1_MQTT_OK/GD32VW55X_Wifi_BLE_SDK/GD32VW55x_RELEASE_V1.0.2/MSDK/wpa_supplicant/src/tls\tlsv1_client_ocsp.c **** 
 1957              		.loc 2 146 6 is_stmt 0
 1958 08ae B30AB500 		add	s5,a0,a1
 1959              	.LVL198:
 157:C:/Users/stapi/OneDrive/Desktop/GD32VW553/V1_MQTT_OK/GD32VW55X_Wifi_BLE_SDK/GD32VW55x_RELEASE_V1.0.2/MSDK/wpa_supplicant/src/tls\tlsv1_client_ocsp.c **** 		return -1;
 1960              		.loc 2 157 2 is_stmt 1
 157:C:/Users/stapi/OneDrive/Desktop/GD32VW553/V1_MQTT_OK/GD32VW55X_Wifi_BLE_SDK/GD32VW55x_RELEASE_V1.0.2/MSDK/wpa_supplicant/src/tls\tlsv1_client_ocsp.c **** 		return -1;
 1961              		.loc 2 157 6 is_stmt 0
 1962 08b2 97000000 		call	x509_parse_algorithm_identifier
 1962      E7800000 
 1963              	.LVL199:
 157:C:/Users/stapi/OneDrive/Desktop/GD32VW553/V1_MQTT_OK/GD32VW55X_Wifi_BLE_SDK/GD32VW55x_RELEASE_V1.0.2/MSDK/wpa_supplicant/src/tls\tlsv1_client_ocsp.c **** 		return -1;
 1964              		.loc 2 157 5
 1965 08ba 45E5     		bne	a0,zero,.L92
 161:C:/Users/stapi/OneDrive/Desktop/GD32VW553/V1_MQTT_OK/GD32VW55X_Wifi_BLE_SDK/GD32VW55x_RELEASE_V1.0.2/MSDK/wpa_supplicant/src/tls\tlsv1_client_ocsp.c **** 	    !asn1_is_octetstring(&hdr)) {
 1966              		.loc 2 161 2 is_stmt 1
 161:C:/Users/stapi/OneDrive/Desktop/GD32VW553/V1_MQTT_OK/GD32VW55X_Wifi_BLE_SDK/GD32VW55x_RELEASE_V1.0.2/MSDK/wpa_supplicant/src/tls\tlsv1_client_ocsp.c **** 	    !asn1_is_octetstring(&hdr)) {
 1967              		.loc 2 161 6 is_stmt 0
 1968 08bc 4255     		lw	a0,48(sp)
 1969 08be 9018     		addi	a2,sp,112
 1970 08c0 B385AA40 		sub	a1,s5,a0
 1971 08c4 97000000 		call	asn1_get_next
 1971      E7800000 
 1972              	.LVL200:
 161:C:/Users/stapi/OneDrive/Desktop/GD32VW553/V1_MQTT_OK/GD32VW55X_Wifi_BLE_SDK/GD32VW55x_RELEASE_V1.0.2/MSDK/wpa_supplicant/src/tls\tlsv1_client_ocsp.c **** 	    !asn1_is_octetstring(&hdr)) {
 1973              		.loc 2 161 5
 1974 08cc 634F0508 		blt	a0,zero,.L94
 1975              	.LVL201:
 1976              	.LBB74:
 1977              	.LBB75:
 126:C:/Users/stapi/OneDrive/Desktop/GD32VW553/V1_MQTT_OK/GD32VW55X_Wifi_BLE_SDK/GD32VW55x_RELEASE_V1.0.2/MSDK/wpa_supplicant/src/tls\asn1.h **** 		hdr->tag == ASN1_TAG_OCTETSTRING;
 1978              		.loc 1 126 2 is_stmt 1
 126:C:/Users/stapi/OneDrive/Desktop/GD32VW553/V1_MQTT_OK/GD32VW55X_Wifi_BLE_SDK/GD32VW55x_RELEASE_V1.0.2/MSDK/wpa_supplicant/src/tls\asn1.h **** 		hdr->tag == ASN1_TAG_OCTETSTRING;
 1979              		.loc 1 126 44 is_stmt 0
 1980 08d0 83475107 		lbu	a5,117(sp)
 1981 08d4 D9EB     		bne	a5,zero,.L94
 1982 08d6 6657     		lw	a4,120(sp)
 1983 08d8 9147     		li	a5,4
 1984 08da 6318F708 		bne	a4,a5,.L94
 1985              	.LVL202:
 1986              	.LBE75:
 1987              	.LBE74:
 167:C:/Users/stapi/OneDrive/Desktop/GD32VW553/V1_MQTT_OK/GD32VW55X_Wifi_BLE_SDK/GD32VW55x_RELEASE_V1.0.2/MSDK/wpa_supplicant/src/tls\tlsv1_client_ocsp.c **** 	name_hash_len = hdr.length;
 1988              		.loc 2 167 2 is_stmt 1
 168:C:/Users/stapi/OneDrive/Desktop/GD32VW553/V1_MQTT_OK/GD32VW55X_Wifi_BLE_SDK/GD32VW55x_RELEASE_V1.0.2/MSDK/wpa_supplicant/src/tls\tlsv1_client_ocsp.c **** 	wpa_hexdump(MSG_DEBUG, "OCSP: issuerNameHash",
 1989              		.loc 2 168 16 is_stmt 0
 1990 08de F657     		lw	a5,124(sp)
 167:C:/Users/stapi/OneDrive/Desktop/GD32VW553/V1_MQTT_OK/GD32VW55X_Wifi_BLE_SDK/GD32VW55x_RELEASE_V1.0.2/MSDK/wpa_supplicant/src/tls\tlsv1_client_ocsp.c **** 	name_hash_len = hdr.length;
 1991              		.loc 2 167 12
 1992 08e0 4658     		lw	a6,112(sp)
 1993              	.LVL203:
 168:C:/Users/stapi/OneDrive/Desktop/GD32VW553/V1_MQTT_OK/GD32VW55X_Wifi_BLE_SDK/GD32VW55x_RELEASE_V1.0.2/MSDK/wpa_supplicant/src/tls\tlsv1_client_ocsp.c **** 	wpa_hexdump(MSG_DEBUG, "OCSP: issuerNameHash",
 1994              		.loc 2 168 2 is_stmt 1
 169:C:/Users/stapi/OneDrive/Desktop/GD32VW553/V1_MQTT_OK/GD32VW55X_Wifi_BLE_SDK/GD32VW55x_RELEASE_V1.0.2/MSDK/wpa_supplicant/src/tls\tlsv1_client_ocsp.c **** 		    name_hash, name_hash_len);
 1995              		.loc 2 169 2
 1996 08e2 0945     		li	a0,2
 1997 08e4 BE86     		mv	a3,a5
 1998 08e6 3EC6     		sw	a5,12(sp)
 1999 08e8 B7070000 		lui	a5,%hi(.LC49)
 2000              	.LVL204:
 2001 08ec 4286     		mv	a2,a6
 2002 08ee 93850700 		addi	a1,a5,%lo(.LC49)
 2003 08f2 42C4     		sw	a6,8(sp)
 2004 08f4 97000000 		call	wpa_hexdump
 2004      E7800000 
 2005              	.LVL205:
 171:C:/Users/stapi/OneDrive/Desktop/GD32VW553/V1_MQTT_OK/GD32VW55X_Wifi_BLE_SDK/GD32VW55x_RELEASE_V1.0.2/MSDK/wpa_supplicant/src/tls\tlsv1_client_ocsp.c **** 
 2006              		.loc 2 171 2
 171:C:/Users/stapi/OneDrive/Desktop/GD32VW553/V1_MQTT_OK/GD32VW55X_Wifi_BLE_SDK/GD32VW55x_RELEASE_V1.0.2/MSDK/wpa_supplicant/src/tls\tlsv1_client_ocsp.c **** 
 2007              		.loc 2 171 20 is_stmt 0
 2008 08fc F656     		lw	a3,124(sp)
 2009 08fe 4657     		lw	a4,112(sp)
 173:C:/Users/stapi/OneDrive/Desktop/GD32VW553/V1_MQTT_OK/GD32VW55X_Wifi_BLE_SDK/GD32VW55x_RELEASE_V1.0.2/MSDK/wpa_supplicant/src/tls\tlsv1_client_ocsp.c **** 		    issuer->subject_dn, issuer->subject_dn_len);
 2010              		.loc 2 173 2
 2011 0900 03A64B29 		lw	a2,660(s7)
 2012 0904 B7070000 		lui	a5,%hi(.LC50)
 171:C:/Users/stapi/OneDrive/Desktop/GD32VW553/V1_MQTT_OK/GD32VW55X_Wifi_BLE_SDK/GD32VW55x_RELEASE_V1.0.2/MSDK/wpa_supplicant/src/tls\tlsv1_client_ocsp.c **** 
 2013              		.loc 2 171 20
 2014 0908 3697     		add	a4,a4,a3
 173:C:/Users/stapi/OneDrive/Desktop/GD32VW553/V1_MQTT_OK/GD32VW55X_Wifi_BLE_SDK/GD32VW55x_RELEASE_V1.0.2/MSDK/wpa_supplicant/src/tls\tlsv1_client_ocsp.c **** 		    issuer->subject_dn, issuer->subject_dn_len);
 2015              		.loc 2 173 2
 2016 090a 83A68B29 		lw	a3,664(s7)
 2017 090e 93850700 		addi	a1,a5,%lo(.LC50)
 2018 0912 0945     		li	a0,2
 171:C:/Users/stapi/OneDrive/Desktop/GD32VW553/V1_MQTT_OK/GD32VW55X_Wifi_BLE_SDK/GD32VW55x_RELEASE_V1.0.2/MSDK/wpa_supplicant/src/tls\tlsv1_client_ocsp.c **** 
 2019              		.loc 2 171 6
 2020 0914 3AD8     		sw	a4,48(sp)
 173:C:/Users/stapi/OneDrive/Desktop/GD32VW553/V1_MQTT_OK/GD32VW55X_Wifi_BLE_SDK/GD32VW55x_RELEASE_V1.0.2/MSDK/wpa_supplicant/src/tls\tlsv1_client_ocsp.c **** 		    issuer->subject_dn, issuer->subject_dn_len);
 2021              		.loc 2 173 2 is_stmt 1
 2022 0916 97000000 		call	wpa_hexdump
 2022      E7800000 
 2023              	.LVL206:
 175:C:/Users/stapi/OneDrive/Desktop/GD32VW553/V1_MQTT_OK/GD32VW55X_Wifi_BLE_SDK/GD32VW55x_RELEASE_V1.0.2/MSDK/wpa_supplicant/src/tls\tlsv1_client_ocsp.c **** 				  issuer->subject_dn_len, hash);
 2024              		.loc 2 175 2
 175:C:/Users/stapi/OneDrive/Desktop/GD32VW553/V1_MQTT_OK/GD32VW55X_Wifi_BLE_SDK/GD32VW55x_RELEASE_V1.0.2/MSDK/wpa_supplicant/src/tls\tlsv1_client_ocsp.c **** 				  issuer->subject_dn_len, hash);
 2025              		.loc 2 175 13 is_stmt 0
 2026 091e 03A68B29 		lw	a2,664(s7)
 2027 0922 83A54B29 		lw	a1,660(s7)
 2028 0926 1401     		addi	a3,sp,128
 2029 0928 281B     		addi	a0,sp,440
 2030 092a 97000000 		call	ocsp_hash_data
 2030      E7800000 
 2031              	.LVL207:
 177:C:/Users/stapi/OneDrive/Desktop/GD32VW553/V1_MQTT_OK/GD32VW55X_Wifi_BLE_SDK/GD32VW55x_RELEASE_V1.0.2/MSDK/wpa_supplicant/src/tls\tlsv1_client_ocsp.c **** 	    os_memcmp(name_hash, hash, hash_len) != 0) {
 2032              		.loc 2 177 5
 2033 0932 2248     		lw	a6,8(sp)
 2034 0934 B247     		lw	a5,12(sp)
 175:C:/Users/stapi/OneDrive/Desktop/GD32VW553/V1_MQTT_OK/GD32VW55X_Wifi_BLE_SDK/GD32VW55x_RELEASE_V1.0.2/MSDK/wpa_supplicant/src/tls\tlsv1_client_ocsp.c **** 				  issuer->subject_dn_len, hash);
 2035              		.loc 2 175 13
 2036 0936 2A8C     		mv	s8,a0
 2037              	.LVL208:
 177:C:/Users/stapi/OneDrive/Desktop/GD32VW553/V1_MQTT_OK/GD32VW55X_Wifi_BLE_SDK/GD32VW55x_RELEASE_V1.0.2/MSDK/wpa_supplicant/src/tls\tlsv1_client_ocsp.c **** 	    os_memcmp(name_hash, hash, hash_len) != 0) {
 2038              		.loc 2 177 2 is_stmt 1
 177:C:/Users/stapi/OneDrive/Desktop/GD32VW553/V1_MQTT_OK/GD32VW55X_Wifi_BLE_SDK/GD32VW55x_RELEASE_V1.0.2/MSDK/wpa_supplicant/src/tls\tlsv1_client_ocsp.c **** 	    os_memcmp(name_hash, hash, hash_len) != 0) {
 2039              		.loc 2 177 5 is_stmt 0
 2040 0938 15ED     		bne	a0,zero,.L95
 2041              	.LVL209:
 2042              	.L96:
 179:C:/Users/stapi/OneDrive/Desktop/GD32VW553/V1_MQTT_OK/GD32VW55X_Wifi_BLE_SDK/GD32VW55x_RELEASE_V1.0.2/MSDK/wpa_supplicant/src/tls\tlsv1_client_ocsp.c **** 		wpa_hexdump(MSG_DEBUG, "OCSP: Calculated issuerNameHash",
 2043              		.loc 2 179 3 is_stmt 1
 2044 093a B7050000 		lui	a1,%hi(.LC51)
 2045 093e 93850500 		addi	a1,a1,%lo(.LC51)
 2046 0942 0945     		li	a0,2
 2047 0944 97000000 		call	wpa_printf
 2047      E7800000 
 2048              	.LVL210:
 180:C:/Users/stapi/OneDrive/Desktop/GD32VW553/V1_MQTT_OK/GD32VW55X_Wifi_BLE_SDK/GD32VW55x_RELEASE_V1.0.2/MSDK/wpa_supplicant/src/tls\tlsv1_client_ocsp.c **** 			    hash, hash_len);
 2049              		.loc 2 180 3
 2050 094c B7050000 		lui	a1,%hi(.LC52)
 2051 0950 E286     		mv	a3,s8
 2052 0952 1001     		addi	a2,sp,128
 2053 0954 93850500 		addi	a1,a1,%lo(.LC52)
 2054              	.LVL211:
 2055              	.L161:
 202:C:/Users/stapi/OneDrive/Desktop/GD32VW553/V1_MQTT_OK/GD32VW55X_Wifi_BLE_SDK/GD32VW55x_RELEASE_V1.0.2/MSDK/wpa_supplicant/src/tls\tlsv1_client_ocsp.c **** 			    hash, hash_len);
 2056              		.loc 2 202 3 is_stmt 0
 2057 0958 0945     		li	a0,2
 2058 095a 97000000 		call	wpa_hexdump
 2058      E7800000 
 2059              	.LVL212:
 204:C:/Users/stapi/OneDrive/Desktop/GD32VW553/V1_MQTT_OK/GD32VW55X_Wifi_BLE_SDK/GD32VW55x_RELEASE_V1.0.2/MSDK/wpa_supplicant/src/tls\tlsv1_client_ocsp.c **** 	}
 2060              		.loc 2 204 3 is_stmt 1
 2061              	.L92:
 2062              	.LBE88:
 2063              	.LBE90:
 334:C:/Users/stapi/OneDrive/Desktop/GD32VW553/V1_MQTT_OK/GD32VW55X_Wifi_BLE_SDK/GD32VW55x_RELEASE_V1.0.2/MSDK/wpa_supplicant/src/tls\tlsv1_client_ocsp.c **** 	}
 2064              		.loc 2 334 3
 334:C:/Users/stapi/OneDrive/Desktop/GD32VW553/V1_MQTT_OK/GD32VW55X_Wifi_BLE_SDK/GD32VW55x_RELEASE_V1.0.2/MSDK/wpa_supplicant/src/tls\tlsv1_client_ocsp.c **** 	}
 2065              		.loc 2 334 7 is_stmt 0
 2066 0962 065C     		lw	s8,96(sp)
 2067 0964 B657     		lw	a5,108(sp)
 2068 0966 3E9C     		add	s8,s8,a5
 2069              	.LVL213:
 2070 0968 35BD     		j	.L87
 2071              	.LVL214:
 2072              	.L94:
 2073              	.LBB91:
 2074              	.LBB89:
 163:C:/Users/stapi/OneDrive/Desktop/GD32VW553/V1_MQTT_OK/GD32VW55X_Wifi_BLE_SDK/GD32VW55x_RELEASE_V1.0.2/MSDK/wpa_supplicant/src/tls\tlsv1_client_ocsp.c **** 				"OCSP: Expected OCTET STRING (issuerNameHash)");
 2075              		.loc 2 163 3 is_stmt 1
 2076 096a B7070000 		lui	a5,%hi(.LC53)
 2077 096e 93850700 		addi	a1,a5,%lo(.LC53)
 2078 0972 1DB7     		j	.L162
 2079              	.LVL215:
 2080              	.L95:
 177:C:/Users/stapi/OneDrive/Desktop/GD32VW553/V1_MQTT_OK/GD32VW55X_Wifi_BLE_SDK/GD32VW55x_RELEASE_V1.0.2/MSDK/wpa_supplicant/src/tls\tlsv1_client_ocsp.c **** 	    os_memcmp(name_hash, hash, hash_len) != 0) {
 2081              		.loc 2 177 20 is_stmt 0
 2082 0974 E393A7FC 		bne	a5,a0,.L96
 178:C:/Users/stapi/OneDrive/Desktop/GD32VW553/V1_MQTT_OK/GD32VW55X_Wifi_BLE_SDK/GD32VW55x_RELEASE_V1.0.2/MSDK/wpa_supplicant/src/tls\tlsv1_client_ocsp.c **** 		wpa_printf(MSG_DEBUG, "OCSP: issuerNameHash mismatch");
 2083              		.loc 2 178 6
 2084 0978 3E86     		mv	a2,a5
 2085 097a 0C01     		addi	a1,sp,128
 2086 097c 4285     		mv	a0,a6
 2087              	.LVL216:
 2088 097e 97000000 		call	os_memcmp
 2088      E7800000 
 2089              	.LVL217:
 177:C:/Users/stapi/OneDrive/Desktop/GD32VW553/V1_MQTT_OK/GD32VW55X_Wifi_BLE_SDK/GD32VW55x_RELEASE_V1.0.2/MSDK/wpa_supplicant/src/tls\tlsv1_client_ocsp.c **** 	    os_memcmp(name_hash, hash, hash_len) != 0) {
 2090              		.loc 2 177 49
 2091 0986 55F9     		bne	a0,zero,.L96
 186:C:/Users/stapi/OneDrive/Desktop/GD32VW553/V1_MQTT_OK/GD32VW55X_Wifi_BLE_SDK/GD32VW55x_RELEASE_V1.0.2/MSDK/wpa_supplicant/src/tls\tlsv1_client_ocsp.c **** 	    !asn1_is_octetstring(&hdr)) {
 2092              		.loc 2 186 2 is_stmt 1
 186:C:/Users/stapi/OneDrive/Desktop/GD32VW553/V1_MQTT_OK/GD32VW55X_Wifi_BLE_SDK/GD32VW55x_RELEASE_V1.0.2/MSDK/wpa_supplicant/src/tls\tlsv1_client_ocsp.c **** 	    !asn1_is_octetstring(&hdr)) {
 2093              		.loc 2 186 6 is_stmt 0
 2094 0988 4255     		lw	a0,48(sp)
 2095 098a 9018     		addi	a2,sp,112
 2096 098c B385AA40 		sub	a1,s5,a0
 2097 0990 97000000 		call	asn1_get_next
 2097      E7800000 
 2098              	.LVL218:
 186:C:/Users/stapi/OneDrive/Desktop/GD32VW553/V1_MQTT_OK/GD32VW55X_Wifi_BLE_SDK/GD32VW55x_RELEASE_V1.0.2/MSDK/wpa_supplicant/src/tls\tlsv1_client_ocsp.c **** 	    !asn1_is_octetstring(&hdr)) {
 2099              		.loc 2 186 5
 2100 0998 634A0506 		blt	a0,zero,.L97
 2101              	.LVL219:
 2102              	.LBB76:
 2103              	.LBB77:
 126:C:/Users/stapi/OneDrive/Desktop/GD32VW553/V1_MQTT_OK/GD32VW55X_Wifi_BLE_SDK/GD32VW55x_RELEASE_V1.0.2/MSDK/wpa_supplicant/src/tls\asn1.h **** 		hdr->tag == ASN1_TAG_OCTETSTRING;
 2104              		.loc 1 126 2 is_stmt 1
 126:C:/Users/stapi/OneDrive/Desktop/GD32VW553/V1_MQTT_OK/GD32VW55X_Wifi_BLE_SDK/GD32VW55x_RELEASE_V1.0.2/MSDK/wpa_supplicant/src/tls\asn1.h **** 		hdr->tag == ASN1_TAG_OCTETSTRING;
 2105              		.loc 1 126 44 is_stmt 0
 2106 099c 83475107 		lbu	a5,117(sp)
 2107 09a0 B5E7     		bne	a5,zero,.L97
 2108 09a2 6657     		lw	a4,120(sp)
 2109 09a4 9147     		li	a5,4
 2110 09a6 6313F706 		bne	a4,a5,.L97
 2111              	.LVL220:
 2112              	.LBE77:
 2113              	.LBE76:
 192:C:/Users/stapi/OneDrive/Desktop/GD32VW553/V1_MQTT_OK/GD32VW55X_Wifi_BLE_SDK/GD32VW55x_RELEASE_V1.0.2/MSDK/wpa_supplicant/src/tls\tlsv1_client_ocsp.c **** 	key_hash_len = hdr.length;
 2114              		.loc 2 192 2 is_stmt 1
 193:C:/Users/stapi/OneDrive/Desktop/GD32VW553/V1_MQTT_OK/GD32VW55X_Wifi_BLE_SDK/GD32VW55x_RELEASE_V1.0.2/MSDK/wpa_supplicant/src/tls\tlsv1_client_ocsp.c **** 	wpa_hexdump(MSG_DEBUG, "OCSP: issuerKeyHash", key_hash, key_hash_len);
 2115              		.loc 2 193 15 is_stmt 0
 2116 09aa F657     		lw	a5,124(sp)
 192:C:/Users/stapi/OneDrive/Desktop/GD32VW553/V1_MQTT_OK/GD32VW55X_Wifi_BLE_SDK/GD32VW55x_RELEASE_V1.0.2/MSDK/wpa_supplicant/src/tls\tlsv1_client_ocsp.c **** 	key_hash_len = hdr.length;
 2117              		.loc 2 192 11
 2118 09ac 4658     		lw	a6,112(sp)
 2119              	.LVL221:
 193:C:/Users/stapi/OneDrive/Desktop/GD32VW553/V1_MQTT_OK/GD32VW55X_Wifi_BLE_SDK/GD32VW55x_RELEASE_V1.0.2/MSDK/wpa_supplicant/src/tls\tlsv1_client_ocsp.c **** 	wpa_hexdump(MSG_DEBUG, "OCSP: issuerKeyHash", key_hash, key_hash_len);
 2120              		.loc 2 193 2 is_stmt 1
 194:C:/Users/stapi/OneDrive/Desktop/GD32VW553/V1_MQTT_OK/GD32VW55X_Wifi_BLE_SDK/GD32VW55x_RELEASE_V1.0.2/MSDK/wpa_supplicant/src/tls\tlsv1_client_ocsp.c **** 	pos = hdr.payload + hdr.length;
 2121              		.loc 2 194 2
 2122 09ae 0945     		li	a0,2
 2123 09b0 BE86     		mv	a3,a5
 2124 09b2 3EC6     		sw	a5,12(sp)
 2125              	.LVL222:
 2126 09b4 B7070000 		lui	a5,%hi(.LC54)
 2127              	.LVL223:
 2128 09b8 4286     		mv	a2,a6
 2129 09ba 93850700 		addi	a1,a5,%lo(.LC54)
 2130 09be 42C4     		sw	a6,8(sp)
 2131              	.LVL224:
 2132 09c0 97000000 		call	wpa_hexdump
 2132      E7800000 
 2133              	.LVL225:
 195:C:/Users/stapi/OneDrive/Desktop/GD32VW553/V1_MQTT_OK/GD32VW55X_Wifi_BLE_SDK/GD32VW55x_RELEASE_V1.0.2/MSDK/wpa_supplicant/src/tls\tlsv1_client_ocsp.c **** 
 2134              		.loc 2 195 2
 195:C:/Users/stapi/OneDrive/Desktop/GD32VW553/V1_MQTT_OK/GD32VW55X_Wifi_BLE_SDK/GD32VW55x_RELEASE_V1.0.2/MSDK/wpa_supplicant/src/tls\tlsv1_client_ocsp.c **** 
 2135              		.loc 2 195 20 is_stmt 0
 2136 09c8 F656     		lw	a3,124(sp)
 2137 09ca 4657     		lw	a4,112(sp)
 197:C:/Users/stapi/OneDrive/Desktop/GD32VW553/V1_MQTT_OK/GD32VW55X_Wifi_BLE_SDK/GD32VW55x_RELEASE_V1.0.2/MSDK/wpa_supplicant/src/tls\tlsv1_client_ocsp.c **** 				  issuer->public_key_len, hash);
 2138              		.loc 2 197 13
 2139 09cc 03A6CB2F 		lw	a2,764(s7)
 2140 09d0 83A58B2F 		lw	a1,760(s7)
 195:C:/Users/stapi/OneDrive/Desktop/GD32VW553/V1_MQTT_OK/GD32VW55X_Wifi_BLE_SDK/GD32VW55x_RELEASE_V1.0.2/MSDK/wpa_supplicant/src/tls\tlsv1_client_ocsp.c **** 
 2141              		.loc 2 195 20
 2142 09d4 3697     		add	a4,a4,a3
 197:C:/Users/stapi/OneDrive/Desktop/GD32VW553/V1_MQTT_OK/GD32VW55X_Wifi_BLE_SDK/GD32VW55x_RELEASE_V1.0.2/MSDK/wpa_supplicant/src/tls\tlsv1_client_ocsp.c **** 				  issuer->public_key_len, hash);
 2143              		.loc 2 197 13
 2144 09d6 281B     		addi	a0,sp,440
 2145 09d8 1401     		addi	a3,sp,128
 195:C:/Users/stapi/OneDrive/Desktop/GD32VW553/V1_MQTT_OK/GD32VW55X_Wifi_BLE_SDK/GD32VW55x_RELEASE_V1.0.2/MSDK/wpa_supplicant/src/tls\tlsv1_client_ocsp.c **** 
 2146              		.loc 2 195 6
 2147 09da 3AD8     		sw	a4,48(sp)
 197:C:/Users/stapi/OneDrive/Desktop/GD32VW553/V1_MQTT_OK/GD32VW55X_Wifi_BLE_SDK/GD32VW55x_RELEASE_V1.0.2/MSDK/wpa_supplicant/src/tls\tlsv1_client_ocsp.c **** 				  issuer->public_key_len, hash);
 2148              		.loc 2 197 2 is_stmt 1
 197:C:/Users/stapi/OneDrive/Desktop/GD32VW553/V1_MQTT_OK/GD32VW55X_Wifi_BLE_SDK/GD32VW55x_RELEASE_V1.0.2/MSDK/wpa_supplicant/src/tls\tlsv1_client_ocsp.c **** 				  issuer->public_key_len, hash);
 2149              		.loc 2 197 13 is_stmt 0
 2150 09dc 97000000 		call	ocsp_hash_data
 2150      E7800000 
 2151              	.LVL226:
 199:C:/Users/stapi/OneDrive/Desktop/GD32VW553/V1_MQTT_OK/GD32VW55X_Wifi_BLE_SDK/GD32VW55x_RELEASE_V1.0.2/MSDK/wpa_supplicant/src/tls\tlsv1_client_ocsp.c **** 	    os_memcmp(key_hash, hash, hash_len) != 0) {
 2152              		.loc 2 199 5
 2153 09e4 2248     		lw	a6,8(sp)
 2154 09e6 B247     		lw	a5,12(sp)
 197:C:/Users/stapi/OneDrive/Desktop/GD32VW553/V1_MQTT_OK/GD32VW55X_Wifi_BLE_SDK/GD32VW55x_RELEASE_V1.0.2/MSDK/wpa_supplicant/src/tls\tlsv1_client_ocsp.c **** 				  issuer->public_key_len, hash);
 2155              		.loc 2 197 13
 2156 09e8 2A8C     		mv	s8,a0
 2157              	.LVL227:
 199:C:/Users/stapi/OneDrive/Desktop/GD32VW553/V1_MQTT_OK/GD32VW55X_Wifi_BLE_SDK/GD32VW55x_RELEASE_V1.0.2/MSDK/wpa_supplicant/src/tls\tlsv1_client_ocsp.c **** 	    os_memcmp(key_hash, hash, hash_len) != 0) {
 2158              		.loc 2 199 2 is_stmt 1
 199:C:/Users/stapi/OneDrive/Desktop/GD32VW553/V1_MQTT_OK/GD32VW55X_Wifi_BLE_SDK/GD32VW55x_RELEASE_V1.0.2/MSDK/wpa_supplicant/src/tls\tlsv1_client_ocsp.c **** 	    os_memcmp(key_hash, hash, hash_len) != 0) {
 2159              		.loc 2 199 5 is_stmt 0
 2160 09ea 15E5     		bne	a0,zero,.L98
 2161              	.LVL228:
 2162              	.L99:
 201:C:/Users/stapi/OneDrive/Desktop/GD32VW553/V1_MQTT_OK/GD32VW55X_Wifi_BLE_SDK/GD32VW55x_RELEASE_V1.0.2/MSDK/wpa_supplicant/src/tls\tlsv1_client_ocsp.c **** 		wpa_hexdump(MSG_DEBUG, "OCSP: Calculated issuerKeyHash",
 2163              		.loc 2 201 3 is_stmt 1
 2164 09ec B7050000 		lui	a1,%hi(.LC55)
 2165 09f0 93850500 		addi	a1,a1,%lo(.LC55)
 2166 09f4 0945     		li	a0,2
 2167 09f6 97000000 		call	wpa_printf
 2167      E7800000 
 2168              	.LVL229:
 202:C:/Users/stapi/OneDrive/Desktop/GD32VW553/V1_MQTT_OK/GD32VW55X_Wifi_BLE_SDK/GD32VW55x_RELEASE_V1.0.2/MSDK/wpa_supplicant/src/tls\tlsv1_client_ocsp.c **** 			    hash, hash_len);
 2169              		.loc 2 202 3
 2170 09fe B7050000 		lui	a1,%hi(.LC56)
 2171 0a02 E286     		mv	a3,s8
 2172 0a04 1001     		addi	a2,sp,128
 2173 0a06 93850500 		addi	a1,a1,%lo(.LC56)
 2174 0a0a B9B7     		j	.L161
 2175              	.LVL230:
 2176              	.L97:
 188:C:/Users/stapi/OneDrive/Desktop/GD32VW553/V1_MQTT_OK/GD32VW55X_Wifi_BLE_SDK/GD32VW55x_RELEASE_V1.0.2/MSDK/wpa_supplicant/src/tls\tlsv1_client_ocsp.c **** 				"OCSP: Expected OCTET STRING (issuerKeyHash)");
 2177              		.loc 2 188 3
 2178 0a0c B7070000 		lui	a5,%hi(.LC57)
 2179 0a10 93850700 		addi	a1,a5,%lo(.LC57)
 2180 0a14 51B5     		j	.L162
 2181              	.LVL231:
 2182              	.L98:
 199:C:/Users/stapi/OneDrive/Desktop/GD32VW553/V1_MQTT_OK/GD32VW55X_Wifi_BLE_SDK/GD32VW55x_RELEASE_V1.0.2/MSDK/wpa_supplicant/src/tls\tlsv1_client_ocsp.c **** 	    os_memcmp(key_hash, hash, hash_len) != 0) {
 2183              		.loc 2 199 20 is_stmt 0
 2184 0a16 E39BA7FC 		bne	a5,a0,.L99
 200:C:/Users/stapi/OneDrive/Desktop/GD32VW553/V1_MQTT_OK/GD32VW55X_Wifi_BLE_SDK/GD32VW55x_RELEASE_V1.0.2/MSDK/wpa_supplicant/src/tls\tlsv1_client_ocsp.c **** 		wpa_printf(MSG_DEBUG, "OCSP: issuerKeyHash mismatch");
 2185              		.loc 2 200 6
 2186 0a1a 3E86     		mv	a2,a5
 2187 0a1c 0C01     		addi	a1,sp,128
 2188 0a1e 4285     		mv	a0,a6
 2189              	.LVL232:
 2190 0a20 97000000 		call	os_memcmp
 2190      E7800000 
 2191              	.LVL233:
 199:C:/Users/stapi/OneDrive/Desktop/GD32VW553/V1_MQTT_OK/GD32VW55X_Wifi_BLE_SDK/GD32VW55x_RELEASE_V1.0.2/MSDK/wpa_supplicant/src/tls\tlsv1_client_ocsp.c **** 	    os_memcmp(key_hash, hash, hash_len) != 0) {
 2192              		.loc 2 199 48
 2193 0a28 71F1     		bne	a0,zero,.L99
 208:C:/Users/stapi/OneDrive/Desktop/GD32VW553/V1_MQTT_OK/GD32VW55X_Wifi_BLE_SDK/GD32VW55x_RELEASE_V1.0.2/MSDK/wpa_supplicant/src/tls\tlsv1_client_ocsp.c **** 	    !asn1_is_integer(&hdr) ||
 2194              		.loc 2 208 2 is_stmt 1
 208:C:/Users/stapi/OneDrive/Desktop/GD32VW553/V1_MQTT_OK/GD32VW55X_Wifi_BLE_SDK/GD32VW55x_RELEASE_V1.0.2/MSDK/wpa_supplicant/src/tls\tlsv1_client_ocsp.c **** 	    !asn1_is_integer(&hdr) ||
 2195              		.loc 2 208 6 is_stmt 0
 2196 0a2a 4255     		lw	a0,48(sp)
 2197 0a2c 9018     		addi	a2,sp,112
 2198 0a2e B385AA40 		sub	a1,s5,a0
 2199 0a32 97000000 		call	asn1_get_next
 2199      E7800000 
 2200              	.LVL234:
 208:C:/Users/stapi/OneDrive/Desktop/GD32VW553/V1_MQTT_OK/GD32VW55X_Wifi_BLE_SDK/GD32VW55x_RELEASE_V1.0.2/MSDK/wpa_supplicant/src/tls\tlsv1_client_ocsp.c **** 	    !asn1_is_integer(&hdr) ||
 2201              		.loc 2 208 5
 2202 0a3a 634F0500 		blt	a0,zero,.L100
 2203              	.LVL235:
 2204              	.LBB78:
 2205              	.LBB79:
 102:C:/Users/stapi/OneDrive/Desktop/GD32VW553/V1_MQTT_OK/GD32VW55X_Wifi_BLE_SDK/GD32VW55x_RELEASE_V1.0.2/MSDK/wpa_supplicant/src/tls\asn1.h **** 		hdr->tag == ASN1_TAG_INTEGER;
 2206              		.loc 1 102 2 is_stmt 1
 102:C:/Users/stapi/OneDrive/Desktop/GD32VW553/V1_MQTT_OK/GD32VW55X_Wifi_BLE_SDK/GD32VW55x_RELEASE_V1.0.2/MSDK/wpa_supplicant/src/tls\asn1.h **** 		hdr->tag == ASN1_TAG_INTEGER;
 2207              		.loc 1 102 44 is_stmt 0
 2208 0a3e 83475107 		lbu	a5,117(sp)
 2209 0a42 99EB     		bne	a5,zero,.L100
 103:C:/Users/stapi/OneDrive/Desktop/GD32VW553/V1_MQTT_OK/GD32VW55X_Wifi_BLE_SDK/GD32VW55x_RELEASE_V1.0.2/MSDK/wpa_supplicant/src/tls\asn1.h **** }
 2210              		.loc 1 103 6
 2211 0a44 665C     		lw	s8,120(sp)
 2212              	.LVL236:
 102:C:/Users/stapi/OneDrive/Desktop/GD32VW553/V1_MQTT_OK/GD32VW55X_Wifi_BLE_SDK/GD32VW55x_RELEASE_V1.0.2/MSDK/wpa_supplicant/src/tls\asn1.h **** 		hdr->tag == ASN1_TAG_INTEGER;
 2213              		.loc 1 102 44
 2214 0a46 8947     		li	a5,2
 2215 0a48 6318FC00 		bne	s8,a5,.L100
 2216              	.LVL237:
 2217              	.LBE79:
 2218              	.LBE78:
 210:C:/Users/stapi/OneDrive/Desktop/GD32VW553/V1_MQTT_OK/GD32VW55X_Wifi_BLE_SDK/GD32VW55x_RELEASE_V1.0.2/MSDK/wpa_supplicant/src/tls\tlsv1_client_ocsp.c **** 		asn1_unexpected(&hdr,
 2219              		.loc 2 210 9
 2220 0a4c F656     		lw	a3,124(sp)
 209:C:/Users/stapi/OneDrive/Desktop/GD32VW553/V1_MQTT_OK/GD32VW55X_Wifi_BLE_SDK/GD32VW55x_RELEASE_V1.0.2/MSDK/wpa_supplicant/src/tls\tlsv1_client_ocsp.c **** 	    hdr.length < 1 || hdr.length > X509_MAX_SERIAL_NUM_LEN) {
 2221              		.loc 2 209 29
 2222 0a4e CD47     		li	a5,19
 2223 0a50 1387F6FF 		addi	a4,a3,-1
 2224 0a54 63F5E700 		bleu	a4,a5,.L101
 2225              	.L100:
 211:C:/Users/stapi/OneDrive/Desktop/GD32VW553/V1_MQTT_OK/GD32VW55X_Wifi_BLE_SDK/GD32VW55x_RELEASE_V1.0.2/MSDK/wpa_supplicant/src/tls\tlsv1_client_ocsp.c **** 				"OCSP: No INTEGER tag found for serialNumber");
 2226              		.loc 2 211 3 is_stmt 1
 2227 0a58 93850D00 		addi	a1,s11,%lo(.LC58)
 2228 0a5c 35BD     		j	.L162
 2229              	.L101:
 215:C:/Users/stapi/OneDrive/Desktop/GD32VW553/V1_MQTT_OK/GD32VW55X_Wifi_BLE_SDK/GD32VW55x_RELEASE_V1.0.2/MSDK/wpa_supplicant/src/tls\tlsv1_client_ocsp.c **** 	serial_number_len = hdr.length;
 2230              		.loc 2 215 2
 215:C:/Users/stapi/OneDrive/Desktop/GD32VW553/V1_MQTT_OK/GD32VW55X_Wifi_BLE_SDK/GD32VW55x_RELEASE_V1.0.2/MSDK/wpa_supplicant/src/tls\tlsv1_client_ocsp.c **** 	serial_number_len = hdr.length;
 2231              		.loc 2 215 16 is_stmt 0
 2232 0a5e C657     		lw	a5,112(sp)
 2233              	.LVL238:
 216:C:/Users/stapi/OneDrive/Desktop/GD32VW553/V1_MQTT_OK/GD32VW55X_Wifi_BLE_SDK/GD32VW55x_RELEASE_V1.0.2/MSDK/wpa_supplicant/src/tls\tlsv1_client_ocsp.c **** 	while (serial_number_len > 0 && serial_number[0] == 0) {
 2234              		.loc 2 216 2 is_stmt 1
 217:C:/Users/stapi/OneDrive/Desktop/GD32VW553/V1_MQTT_OK/GD32VW55X_Wifi_BLE_SDK/GD32VW55x_RELEASE_V1.0.2/MSDK/wpa_supplicant/src/tls\tlsv1_client_ocsp.c **** 		serial_number++;
 2235              		.loc 2 217 2
 217:C:/Users/stapi/OneDrive/Desktop/GD32VW553/V1_MQTT_OK/GD32VW55X_Wifi_BLE_SDK/GD32VW55x_RELEASE_V1.0.2/MSDK/wpa_supplicant/src/tls\tlsv1_client_ocsp.c **** 		serial_number++;
 2236              		.loc 2 217 8
 2237              	.L102:
 217:C:/Users/stapi/OneDrive/Desktop/GD32VW553/V1_MQTT_OK/GD32VW55X_Wifi_BLE_SDK/GD32VW55x_RELEASE_V1.0.2/MSDK/wpa_supplicant/src/tls\tlsv1_client_ocsp.c **** 		serial_number++;
 2238              		.loc 2 217 31 is_stmt 0
 2239 0a60 03C70700 		lbu	a4,0(a5)
 2240 0a64 01E7     		bne	a4,zero,.L103
 218:C:/Users/stapi/OneDrive/Desktop/GD32VW553/V1_MQTT_OK/GD32VW55X_Wifi_BLE_SDK/GD32VW55x_RELEASE_V1.0.2/MSDK/wpa_supplicant/src/tls\tlsv1_client_ocsp.c **** 		serial_number_len--;
 2241              		.loc 2 218 3 is_stmt 1
 219:C:/Users/stapi/OneDrive/Desktop/GD32VW553/V1_MQTT_OK/GD32VW55X_Wifi_BLE_SDK/GD32VW55x_RELEASE_V1.0.2/MSDK/wpa_supplicant/src/tls\tlsv1_client_ocsp.c **** 	}
 2242              		.loc 2 219 20 is_stmt 0
 2243 0a66 FD16     		addi	a3,a3,-1
 2244              	.LVL239:
 218:C:/Users/stapi/OneDrive/Desktop/GD32VW553/V1_MQTT_OK/GD32VW55X_Wifi_BLE_SDK/GD32VW55x_RELEASE_V1.0.2/MSDK/wpa_supplicant/src/tls\tlsv1_client_ocsp.c **** 		serial_number_len--;
 2245              		.loc 2 218 16
 2246 0a68 8507     		addi	a5,a5,1
 2247              	.LVL240:
 219:C:/Users/stapi/OneDrive/Desktop/GD32VW553/V1_MQTT_OK/GD32VW55X_Wifi_BLE_SDK/GD32VW55x_RELEASE_V1.0.2/MSDK/wpa_supplicant/src/tls\tlsv1_client_ocsp.c **** 	}
 2248              		.loc 2 219 3 is_stmt 1
 217:C:/Users/stapi/OneDrive/Desktop/GD32VW553/V1_MQTT_OK/GD32VW55X_Wifi_BLE_SDK/GD32VW55x_RELEASE_V1.0.2/MSDK/wpa_supplicant/src/tls\tlsv1_client_ocsp.c **** 		serial_number++;
 2249              		.loc 2 217 8
 2250 0a6a FDFA     		bne	a3,zero,.L102
 2251              	.L103:
 221:C:/Users/stapi/OneDrive/Desktop/GD32VW553/V1_MQTT_OK/GD32VW55X_Wifi_BLE_SDK/GD32VW55x_RELEASE_V1.0.2/MSDK/wpa_supplicant/src/tls\tlsv1_client_ocsp.c **** 		    serial_number_len);
 2252              		.loc 2 221 2
 2253 0a6c B7050000 		lui	a1,%hi(.LC59)
 2254 0a70 3E86     		mv	a2,a5
 2255 0a72 93850500 		addi	a1,a1,%lo(.LC59)
 2256 0a76 0545     		li	a0,1
 2257 0a78 36C6     		sw	a3,12(sp)
 2258              	.LVL241:
 2259 0a7a 3EC4     		sw	a5,8(sp)
 2260              	.LVL242:
 2261 0a7c 97000000 		call	wpa_hexdump
 2261      E7800000 
 2262              	.LVL243:
 224:C:/Users/stapi/OneDrive/Desktop/GD32VW553/V1_MQTT_OK/GD32VW55X_Wifi_BLE_SDK/GD32VW55x_RELEASE_V1.0.2/MSDK/wpa_supplicant/src/tls\tlsv1_client_ocsp.c **** 	    os_memcmp(serial_number, cert->serial_number,
 2263              		.loc 2 224 2
 224:C:/Users/stapi/OneDrive/Desktop/GD32VW553/V1_MQTT_OK/GD32VW55X_Wifi_BLE_SDK/GD32VW55x_RELEASE_V1.0.2/MSDK/wpa_supplicant/src/tls\tlsv1_client_ocsp.c **** 	    os_memcmp(serial_number, cert->serial_number,
 2264              		.loc 2 224 5 is_stmt 0
 2265 0a84 584C     		lw	a4,28(s0)
 2266 0a86 B246     		lw	a3,12(sp)
 2267 0a88 A247     		lw	a5,8(sp)
 2268 0a8a 630CD700 		beq	a4,a3,.L105
 2269              	.L106:
 227:C:/Users/stapi/OneDrive/Desktop/GD32VW553/V1_MQTT_OK/GD32VW55X_Wifi_BLE_SDK/GD32VW55x_RELEASE_V1.0.2/MSDK/wpa_supplicant/src/tls\tlsv1_client_ocsp.c **** 		return -1;
 2270              		.loc 2 227 3 is_stmt 1
 2271 0a8e B7050000 		lui	a1,%hi(.LC60)
 2272 0a92 93850500 		addi	a1,a1,%lo(.LC60)
 2273              	.LVL244:
 2274              	.L160:
 2275              	.LBB80:
 287:C:/Users/stapi/OneDrive/Desktop/GD32VW553/V1_MQTT_OK/GD32VW55X_Wifi_BLE_SDK/GD32VW55x_RELEASE_V1.0.2/MSDK/wpa_supplicant/src/tls\tlsv1_client_ocsp.c **** 				return -1;
 2276              		.loc 2 287 5 is_stmt 0
 2277 0a96 0945     		li	a0,2
 2278 0a98 97000000 		call	wpa_printf
 2278      E7800000 
 2279              	.LVL245:
 288:C:/Users/stapi/OneDrive/Desktop/GD32VW553/V1_MQTT_OK/GD32VW55X_Wifi_BLE_SDK/GD32VW55x_RELEASE_V1.0.2/MSDK/wpa_supplicant/src/tls\tlsv1_client_ocsp.c **** 			}
 2280              		.loc 2 288 5 is_stmt 1
 2281 0aa0 C9B5     		j	.L92
 2282              	.LVL246:
 2283              	.L105:
 2284              	.LBE80:
 225:C:/Users/stapi/OneDrive/Desktop/GD32VW553/V1_MQTT_OK/GD32VW55X_Wifi_BLE_SDK/GD32VW55x_RELEASE_V1.0.2/MSDK/wpa_supplicant/src/tls\tlsv1_client_ocsp.c **** 		      serial_number_len) != 0) {
 2285              		.loc 2 225 6 is_stmt 0
 2286 0aa2 3686     		mv	a2,a3
 2287 0aa4 93058400 		addi	a1,s0,8
 2288 0aa8 3E85     		mv	a0,a5
 2289 0aaa 97000000 		call	os_memcmp
 2289      E7800000 
 2290              	.LVL247:
 224:C:/Users/stapi/OneDrive/Desktop/GD32VW553/V1_MQTT_OK/GD32VW55X_Wifi_BLE_SDK/GD32VW55x_RELEASE_V1.0.2/MSDK/wpa_supplicant/src/tls\tlsv1_client_ocsp.c **** 	    os_memcmp(serial_number, cert->serial_number,
 2291              		.loc 2 224 51
 2292 0ab2 71FD     		bne	a0,zero,.L106
 231:C:/Users/stapi/OneDrive/Desktop/GD32VW553/V1_MQTT_OK/GD32VW55X_Wifi_BLE_SDK/GD32VW55x_RELEASE_V1.0.2/MSDK/wpa_supplicant/src/tls\tlsv1_client_ocsp.c **** 	end = resp + len;
 2293              		.loc 2 231 2 is_stmt 1
 232:C:/Users/stapi/OneDrive/Desktop/GD32VW553/V1_MQTT_OK/GD32VW55X_Wifi_BLE_SDK/GD32VW55x_RELEASE_V1.0.2/MSDK/wpa_supplicant/src/tls\tlsv1_client_ocsp.c **** 
 2294              		.loc 2 232 6 is_stmt 0
 2295 0ab4 6A9A     		add	s4,s10,s4
 2296              	.LVL248:
 241:C:/Users/stapi/OneDrive/Desktop/GD32VW553/V1_MQTT_OK/GD32VW55X_Wifi_BLE_SDK/GD32VW55x_RELEASE_V1.0.2/MSDK/wpa_supplicant/src/tls\tlsv1_client_ocsp.c **** 	    hdr.class != ASN1_CLASS_CONTEXT_SPECIFIC) {
 2297              		.loc 2 241 6
 2298 0ab6 9018     		addi	a2,sp,112
 2299 0ab8 B3055A41 		sub	a1,s4,s5
 2300 0abc 5685     		mv	a0,s5
 231:C:/Users/stapi/OneDrive/Desktop/GD32VW553/V1_MQTT_OK/GD32VW55X_Wifi_BLE_SDK/GD32VW55x_RELEASE_V1.0.2/MSDK/wpa_supplicant/src/tls\tlsv1_client_ocsp.c **** 	end = resp + len;
 2301              		.loc 2 231 6
 2302 0abe 56D8     		sw	s5,48(sp)
 232:C:/Users/stapi/OneDrive/Desktop/GD32VW553/V1_MQTT_OK/GD32VW55X_Wifi_BLE_SDK/GD32VW55x_RELEASE_V1.0.2/MSDK/wpa_supplicant/src/tls\tlsv1_client_ocsp.c **** 
 2303              		.loc 2 232 2 is_stmt 1
 2304              	.LVL249:
 241:C:/Users/stapi/OneDrive/Desktop/GD32VW553/V1_MQTT_OK/GD32VW55X_Wifi_BLE_SDK/GD32VW55x_RELEASE_V1.0.2/MSDK/wpa_supplicant/src/tls\tlsv1_client_ocsp.c **** 	    hdr.class != ASN1_CLASS_CONTEXT_SPECIFIC) {
 2305              		.loc 2 241 2
 241:C:/Users/stapi/OneDrive/Desktop/GD32VW553/V1_MQTT_OK/GD32VW55X_Wifi_BLE_SDK/GD32VW55x_RELEASE_V1.0.2/MSDK/wpa_supplicant/src/tls\tlsv1_client_ocsp.c **** 	    hdr.class != ASN1_CLASS_CONTEXT_SPECIFIC) {
 2306              		.loc 2 241 6 is_stmt 0
 2307 0ac0 97000000 		call	asn1_get_next
 2307      E7800000 
 2308              	.LVL250:
 241:C:/Users/stapi/OneDrive/Desktop/GD32VW553/V1_MQTT_OK/GD32VW55X_Wifi_BLE_SDK/GD32VW55x_RELEASE_V1.0.2/MSDK/wpa_supplicant/src/tls\tlsv1_client_ocsp.c **** 	    hdr.class != ASN1_CLASS_CONTEXT_SPECIFIC) {
 2309              		.loc 2 241 5
 2310 0ac8 63470500 		blt	a0,zero,.L107
 241:C:/Users/stapi/OneDrive/Desktop/GD32VW553/V1_MQTT_OK/GD32VW55X_Wifi_BLE_SDK/GD32VW55x_RELEASE_V1.0.2/MSDK/wpa_supplicant/src/tls\tlsv1_client_ocsp.c **** 	    hdr.class != ASN1_CLASS_CONTEXT_SPECIFIC) {
 2311              		.loc 2 241 46
 2312 0acc 03475107 		lbu	a4,117(sp)
 2313 0ad0 8947     		li	a5,2
 2314 0ad2 6307F700 		beq	a4,a5,.L108
 2315              	.L107:
 243:C:/Users/stapi/OneDrive/Desktop/GD32VW553/V1_MQTT_OK/GD32VW55X_Wifi_BLE_SDK/GD32VW55x_RELEASE_V1.0.2/MSDK/wpa_supplicant/src/tls\tlsv1_client_ocsp.c **** 		return -1;
 2316              		.loc 2 243 3 is_stmt 1
 2317 0ad6 B7050000 		lui	a1,%hi(.LC61)
 2318 0ada 93850500 		addi	a1,a1,%lo(.LC61)
 2319 0ade 6DBB     		j	.L162
 2320              	.L108:
 246:C:/Users/stapi/OneDrive/Desktop/GD32VW553/V1_MQTT_OK/GD32VW55X_Wifi_BLE_SDK/GD32VW55x_RELEASE_V1.0.2/MSDK/wpa_supplicant/src/tls\tlsv1_client_ocsp.c **** 	wpa_printf(MSG_DEBUG, "OCSP: certStatus=%u", cert_status);
 2321              		.loc 2 246 2
 246:C:/Users/stapi/OneDrive/Desktop/GD32VW553/V1_MQTT_OK/GD32VW55X_Wifi_BLE_SDK/GD32VW55x_RELEASE_V1.0.2/MSDK/wpa_supplicant/src/tls\tlsv1_client_ocsp.c **** 	wpa_printf(MSG_DEBUG, "OCSP: certStatus=%u", cert_status);
 2322              		.loc 2 246 14 is_stmt 0
 2323 0ae0 E65A     		lw	s5,120(sp)
 2324              	.LVL251:
 247:C:/Users/stapi/OneDrive/Desktop/GD32VW553/V1_MQTT_OK/GD32VW55X_Wifi_BLE_SDK/GD32VW55x_RELEASE_V1.0.2/MSDK/wpa_supplicant/src/tls\tlsv1_client_ocsp.c **** 	wpa_hexdump(MSG_DEBUG, "OCSP: CertStatus additional data",
 2325              		.loc 2 247 2 is_stmt 1
 2326 0ae2 B7050000 		lui	a1,%hi(.LC62)
 2327 0ae6 93850500 		addi	a1,a1,%lo(.LC62)
 2328 0aea 5686     		mv	a2,s5
 2329 0aec 0945     		li	a0,2
 2330 0aee 97000000 		call	wpa_printf
 2330      E7800000 
 2331              	.LVL252:
 248:C:/Users/stapi/OneDrive/Desktop/GD32VW553/V1_MQTT_OK/GD32VW55X_Wifi_BLE_SDK/GD32VW55x_RELEASE_V1.0.2/MSDK/wpa_supplicant/src/tls\tlsv1_client_ocsp.c **** 		    hdr.payload, hdr.length);
 2332              		.loc 2 248 2
 2333 0af6 4656     		lw	a2,112(sp)
 2334 0af8 F656     		lw	a3,124(sp)
 2335 0afa B7050000 		lui	a1,%hi(.LC63)
 2336 0afe 93850500 		addi	a1,a1,%lo(.LC63)
 2337 0b02 0945     		li	a0,2
 2338 0b04 97000000 		call	wpa_hexdump
 2338      E7800000 
 2339              	.LVL253:
 250:C:/Users/stapi/OneDrive/Desktop/GD32VW553/V1_MQTT_OK/GD32VW55X_Wifi_BLE_SDK/GD32VW55x_RELEASE_V1.0.2/MSDK/wpa_supplicant/src/tls\tlsv1_client_ocsp.c **** 
 2340              		.loc 2 250 2
 250:C:/Users/stapi/OneDrive/Desktop/GD32VW553/V1_MQTT_OK/GD32VW55X_Wifi_BLE_SDK/GD32VW55x_RELEASE_V1.0.2/MSDK/wpa_supplicant/src/tls\tlsv1_client_ocsp.c **** 
 2341              		.loc 2 250 20 is_stmt 0
 2342 0b0c C657     		lw	a5,112(sp)
 2343 0b0e 7657     		lw	a4,124(sp)
 252:C:/Users/stapi/OneDrive/Desktop/GD32VW553/V1_MQTT_OK/GD32VW55X_Wifi_BLE_SDK/GD32VW55x_RELEASE_V1.0.2/MSDK/wpa_supplicant/src/tls\tlsv1_client_ocsp.c **** 	/* thisUpdate  GeneralizedTime */
 2344              		.loc 2 252 2
 2345 0b10 2818     		addi	a0,sp,56
 250:C:/Users/stapi/OneDrive/Desktop/GD32VW553/V1_MQTT_OK/GD32VW55X_Wifi_BLE_SDK/GD32VW55x_RELEASE_V1.0.2/MSDK/wpa_supplicant/src/tls\tlsv1_client_ocsp.c **** 
 2346              		.loc 2 250 20
 2347 0b12 BA97     		add	a5,a5,a4
 250:C:/Users/stapi/OneDrive/Desktop/GD32VW553/V1_MQTT_OK/GD32VW55X_Wifi_BLE_SDK/GD32VW55x_RELEASE_V1.0.2/MSDK/wpa_supplicant/src/tls\tlsv1_client_ocsp.c **** 
 2348              		.loc 2 250 6
 2349 0b14 3ED8     		sw	a5,48(sp)
 252:C:/Users/stapi/OneDrive/Desktop/GD32VW553/V1_MQTT_OK/GD32VW55X_Wifi_BLE_SDK/GD32VW55x_RELEASE_V1.0.2/MSDK/wpa_supplicant/src/tls\tlsv1_client_ocsp.c **** 	/* thisUpdate  GeneralizedTime */
 2350              		.loc 2 252 2 is_stmt 1
 2351 0b16 97000000 		call	os_get_time
 2351      E7800000 
 2352              	.LVL254:
 254:C:/Users/stapi/OneDrive/Desktop/GD32VW553/V1_MQTT_OK/GD32VW55X_Wifi_BLE_SDK/GD32VW55x_RELEASE_V1.0.2/MSDK/wpa_supplicant/src/tls\tlsv1_client_ocsp.c **** 	    !asn1_is_generalizedtime(&hdr) ||
 2353              		.loc 2 254 2
 254:C:/Users/stapi/OneDrive/Desktop/GD32VW553/V1_MQTT_OK/GD32VW55X_Wifi_BLE_SDK/GD32VW55x_RELEASE_V1.0.2/MSDK/wpa_supplicant/src/tls\tlsv1_client_ocsp.c **** 	    !asn1_is_generalizedtime(&hdr) ||
 2354              		.loc 2 254 6 is_stmt 0
 2355 0b1e 4255     		lw	a0,48(sp)
 2356 0b20 9018     		addi	a2,sp,112
 2357 0b22 B305AA40 		sub	a1,s4,a0
 2358 0b26 97000000 		call	asn1_get_next
 2358      E7800000 
 2359              	.LVL255:
 254:C:/Users/stapi/OneDrive/Desktop/GD32VW553/V1_MQTT_OK/GD32VW55X_Wifi_BLE_SDK/GD32VW55x_RELEASE_V1.0.2/MSDK/wpa_supplicant/src/tls\tlsv1_client_ocsp.c **** 	    !asn1_is_generalizedtime(&hdr) ||
 2360              		.loc 2 254 5
 2361 0b2e 63570500 		bge	a0,zero,.L109
 2362              	.L110:
 257:C:/Users/stapi/OneDrive/Desktop/GD32VW553/V1_MQTT_OK/GD32VW55X_Wifi_BLE_SDK/GD32VW55x_RELEASE_V1.0.2/MSDK/wpa_supplicant/src/tls\tlsv1_client_ocsp.c **** 		return -1;
 2363              		.loc 2 257 3 is_stmt 1
 2364 0b32 B7050000 		lui	a1,%hi(.LC64)
 2365 0b36 93850500 		addi	a1,a1,%lo(.LC64)
 2366 0b3a B1BF     		j	.L160
 2367              	.L109:
 2368              	.LVL256:
 2369              	.LBB83:
 2370              	.LBB84:
 144:C:/Users/stapi/OneDrive/Desktop/GD32VW553/V1_MQTT_OK/GD32VW55X_Wifi_BLE_SDK/GD32VW55x_RELEASE_V1.0.2/MSDK/wpa_supplicant/src/tls\asn1.h **** 		hdr->tag == ASN1_TAG_GENERALIZEDTIME;
 2371              		.loc 1 144 2
 144:C:/Users/stapi/OneDrive/Desktop/GD32VW553/V1_MQTT_OK/GD32VW55X_Wifi_BLE_SDK/GD32VW55x_RELEASE_V1.0.2/MSDK/wpa_supplicant/src/tls\asn1.h **** 		hdr->tag == ASN1_TAG_GENERALIZEDTIME;
 2372              		.loc 1 144 44 is_stmt 0
 2373 0b3c 83475107 		lbu	a5,117(sp)
 2374 0b40 EDFB     		bne	a5,zero,.L110
 2375 0b42 6657     		lw	a4,120(sp)
 2376 0b44 E147     		li	a5,24
 2377 0b46 E316F7FE 		bne	a4,a5,.L110
 2378              	.LVL257:
 2379              	.LBE84:
 2380              	.LBE83:
 256:C:/Users/stapi/OneDrive/Desktop/GD32VW553/V1_MQTT_OK/GD32VW55X_Wifi_BLE_SDK/GD32VW55x_RELEASE_V1.0.2/MSDK/wpa_supplicant/src/tls\tlsv1_client_ocsp.c **** 		wpa_printf(MSG_DEBUG, "OCSP: Failed to parse thisUpdate");
 2381              		.loc 2 256 6
 2382 0b4a F655     		lw	a1,124(sp)
 2383 0b4c 4655     		lw	a0,112(sp)
 2384 0b4e 5418     		addi	a3,sp,52
 2385 0b50 6146     		li	a2,24
 2386 0b52 97000000 		call	x509_parse_time
 2386      E7800000 
 2387              	.LVL258:
 255:C:/Users/stapi/OneDrive/Desktop/GD32VW553/V1_MQTT_OK/GD32VW55X_Wifi_BLE_SDK/GD32VW55x_RELEASE_V1.0.2/MSDK/wpa_supplicant/src/tls\tlsv1_client_ocsp.c **** 	    x509_parse_time(hdr.payload, hdr.length, hdr.tag, &update) < 0) {
 2388              		.loc 2 255 37
 2389 0b5a E34C05FC 		blt	a0,zero,.L110
 260:C:/Users/stapi/OneDrive/Desktop/GD32VW553/V1_MQTT_OK/GD32VW55X_Wifi_BLE_SDK/GD32VW55x_RELEASE_V1.0.2/MSDK/wpa_supplicant/src/tls\tlsv1_client_ocsp.c **** 	pos = hdr.payload + hdr.length;
 2390              		.loc 2 260 2 is_stmt 1
 2391 0b5e 5256     		lw	a2,52(sp)
 2392 0b60 B7050000 		lui	a1,%hi(.LC65)
 2393 0b64 0945     		li	a0,2
 2394 0b66 93850500 		addi	a1,a1,%lo(.LC65)
 2395 0b6a 97000000 		call	wpa_printf
 2395      E7800000 
 2396              	.LVL259:
 261:C:/Users/stapi/OneDrive/Desktop/GD32VW553/V1_MQTT_OK/GD32VW55X_Wifi_BLE_SDK/GD32VW55x_RELEASE_V1.0.2/MSDK/wpa_supplicant/src/tls\tlsv1_client_ocsp.c **** 	if ((unsigned long) now.sec < (unsigned long) update) {
 2397              		.loc 2 261 2
 261:C:/Users/stapi/OneDrive/Desktop/GD32VW553/V1_MQTT_OK/GD32VW55X_Wifi_BLE_SDK/GD32VW55x_RELEASE_V1.0.2/MSDK/wpa_supplicant/src/tls\tlsv1_client_ocsp.c **** 	if ((unsigned long) now.sec < (unsigned long) update) {
 2398              		.loc 2 261 20 is_stmt 0
 2399 0b72 F657     		lw	a5,124(sp)
 2400 0b74 4655     		lw	a0,112(sp)
 262:C:/Users/stapi/OneDrive/Desktop/GD32VW553/V1_MQTT_OK/GD32VW55X_Wifi_BLE_SDK/GD32VW55x_RELEASE_V1.0.2/MSDK/wpa_supplicant/src/tls\tlsv1_client_ocsp.c **** 		wpa_printf(MSG_DEBUG,
 2401              		.loc 2 262 5
 2402 0b76 6257     		lw	a4,56(sp)
 261:C:/Users/stapi/OneDrive/Desktop/GD32VW553/V1_MQTT_OK/GD32VW55X_Wifi_BLE_SDK/GD32VW55x_RELEASE_V1.0.2/MSDK/wpa_supplicant/src/tls\tlsv1_client_ocsp.c **** 	if ((unsigned long) now.sec < (unsigned long) update) {
 2403              		.loc 2 261 20
 2404 0b78 3E95     		add	a0,a0,a5
 262:C:/Users/stapi/OneDrive/Desktop/GD32VW553/V1_MQTT_OK/GD32VW55X_Wifi_BLE_SDK/GD32VW55x_RELEASE_V1.0.2/MSDK/wpa_supplicant/src/tls\tlsv1_client_ocsp.c **** 		wpa_printf(MSG_DEBUG,
 2405              		.loc 2 262 5
 2406 0b7a D257     		lw	a5,52(sp)
 261:C:/Users/stapi/OneDrive/Desktop/GD32VW553/V1_MQTT_OK/GD32VW55X_Wifi_BLE_SDK/GD32VW55x_RELEASE_V1.0.2/MSDK/wpa_supplicant/src/tls\tlsv1_client_ocsp.c **** 	if ((unsigned long) now.sec < (unsigned long) update) {
 2407              		.loc 2 261 6
 2408 0b7c 2AD8     		sw	a0,48(sp)
 262:C:/Users/stapi/OneDrive/Desktop/GD32VW553/V1_MQTT_OK/GD32VW55X_Wifi_BLE_SDK/GD32VW55x_RELEASE_V1.0.2/MSDK/wpa_supplicant/src/tls\tlsv1_client_ocsp.c **** 		wpa_printf(MSG_DEBUG,
 2409              		.loc 2 262 2 is_stmt 1
 262:C:/Users/stapi/OneDrive/Desktop/GD32VW553/V1_MQTT_OK/GD32VW55X_Wifi_BLE_SDK/GD32VW55x_RELEASE_V1.0.2/MSDK/wpa_supplicant/src/tls\tlsv1_client_ocsp.c **** 		wpa_printf(MSG_DEBUG,
 2410              		.loc 2 262 5 is_stmt 0
 2411 0b7e 6377F700 		bgeu	a4,a5,.L111
 263:C:/Users/stapi/OneDrive/Desktop/GD32VW553/V1_MQTT_OK/GD32VW55X_Wifi_BLE_SDK/GD32VW55x_RELEASE_V1.0.2/MSDK/wpa_supplicant/src/tls\tlsv1_client_ocsp.c **** 			   "OCSP: thisUpdate time in the future (response not yet valid)");
 2412              		.loc 2 263 3 is_stmt 1
 2413 0b82 B7050000 		lui	a1,%hi(.LC66)
 2414 0b86 93850500 		addi	a1,a1,%lo(.LC66)
 2415 0b8a 31B7     		j	.L160
 2416              	.L111:
 269:C:/Users/stapi/OneDrive/Desktop/GD32VW553/V1_MQTT_OK/GD32VW55X_Wifi_BLE_SDK/GD32VW55x_RELEASE_V1.0.2/MSDK/wpa_supplicant/src/tls\tlsv1_client_ocsp.c **** 		if (asn1_get_next(pos, end - pos, &hdr) < 0)
 2417              		.loc 2 269 2
 269:C:/Users/stapi/OneDrive/Desktop/GD32VW553/V1_MQTT_OK/GD32VW55X_Wifi_BLE_SDK/GD32VW55x_RELEASE_V1.0.2/MSDK/wpa_supplicant/src/tls\tlsv1_client_ocsp.c **** 		if (asn1_get_next(pos, end - pos, &hdr) < 0)
 2418              		.loc 2 269 5 is_stmt 0
 2419 0b8c 637A4509 		bleu	s4,a0,.L112
 270:C:/Users/stapi/OneDrive/Desktop/GD32VW553/V1_MQTT_OK/GD32VW55X_Wifi_BLE_SDK/GD32VW55x_RELEASE_V1.0.2/MSDK/wpa_supplicant/src/tls\tlsv1_client_ocsp.c **** 			return -1;
 2420              		.loc 2 270 3 is_stmt 1
 270:C:/Users/stapi/OneDrive/Desktop/GD32VW553/V1_MQTT_OK/GD32VW55X_Wifi_BLE_SDK/GD32VW55x_RELEASE_V1.0.2/MSDK/wpa_supplicant/src/tls\tlsv1_client_ocsp.c **** 			return -1;
 2421              		.loc 2 270 7 is_stmt 0
 2422 0b90 9018     		addi	a2,sp,112
 2423 0b92 B305AA40 		sub	a1,s4,a0
 2424 0b96 97000000 		call	asn1_get_next
 2424      E7800000 
 2425              	.LVL260:
 270:C:/Users/stapi/OneDrive/Desktop/GD32VW553/V1_MQTT_OK/GD32VW55X_Wifi_BLE_SDK/GD32VW55x_RELEASE_V1.0.2/MSDK/wpa_supplicant/src/tls\tlsv1_client_ocsp.c **** 			return -1;
 2426              		.loc 2 270 6
 2427 0b9e E34205DC 		blt	a0,zero,.L92
 272:C:/Users/stapi/OneDrive/Desktop/GD32VW553/V1_MQTT_OK/GD32VW55X_Wifi_BLE_SDK/GD32VW55x_RELEASE_V1.0.2/MSDK/wpa_supplicant/src/tls\tlsv1_client_ocsp.c **** 			const u8 *next = hdr.payload + hdr.length;
 2428              		.loc 2 272 3 is_stmt 1
 2429              	.LVL261:
 2430              	.LBB85:
 2431              	.LBB86:
 186:C:/Users/stapi/OneDrive/Desktop/GD32VW553/V1_MQTT_OK/GD32VW55X_Wifi_BLE_SDK/GD32VW55x_RELEASE_V1.0.2/MSDK/wpa_supplicant/src/tls\asn1.h **** 		hdr->tag == tag;
 2432              		.loc 1 186 2
 186:C:/Users/stapi/OneDrive/Desktop/GD32VW553/V1_MQTT_OK/GD32VW55X_Wifi_BLE_SDK/GD32VW55x_RELEASE_V1.0.2/MSDK/wpa_supplicant/src/tls\asn1.h **** 		hdr->tag == tag;
 2433              		.loc 1 186 51 is_stmt 0
 2434 0ba2 03475107 		lbu	a4,117(sp)
 2435 0ba6 8947     		li	a5,2
 2436 0ba8 631CF706 		bne	a4,a5,.L112
 2437 0bac E657     		lw	a5,120(sp)
 2438 0bae ADEB     		bne	a5,zero,.L112
 2439              	.LVL262:
 2440              	.LBE86:
 2441              	.LBE85:
 272:C:/Users/stapi/OneDrive/Desktop/GD32VW553/V1_MQTT_OK/GD32VW55X_Wifi_BLE_SDK/GD32VW55x_RELEASE_V1.0.2/MSDK/wpa_supplicant/src/tls\tlsv1_client_ocsp.c **** 			const u8 *next = hdr.payload + hdr.length;
 2442              		.loc 2 272 31
 2443 0bb0 83476107 		lbu	a5,118(sp)
 2444 0bb4 B5C7     		beq	a5,zero,.L112
 2445              	.LBB87:
 273:C:/Users/stapi/OneDrive/Desktop/GD32VW553/V1_MQTT_OK/GD32VW55X_Wifi_BLE_SDK/GD32VW55x_RELEASE_V1.0.2/MSDK/wpa_supplicant/src/tls\tlsv1_client_ocsp.c **** 
 2446              		.loc 2 273 4 is_stmt 1
 273:C:/Users/stapi/OneDrive/Desktop/GD32VW553/V1_MQTT_OK/GD32VW55X_Wifi_BLE_SDK/GD32VW55x_RELEASE_V1.0.2/MSDK/wpa_supplicant/src/tls\tlsv1_client_ocsp.c **** 
 2447              		.loc 2 273 24 is_stmt 0
 2448 0bb6 4655     		lw	a0,112(sp)
 273:C:/Users/stapi/OneDrive/Desktop/GD32VW553/V1_MQTT_OK/GD32VW55X_Wifi_BLE_SDK/GD32VW55x_RELEASE_V1.0.2/MSDK/wpa_supplicant/src/tls\tlsv1_client_ocsp.c **** 
 2449              		.loc 2 273 38
 2450 0bb8 F655     		lw	a1,124(sp)
 275:C:/Users/stapi/OneDrive/Desktop/GD32VW553/V1_MQTT_OK/GD32VW55X_Wifi_BLE_SDK/GD32VW55x_RELEASE_V1.0.2/MSDK/wpa_supplicant/src/tls\tlsv1_client_ocsp.c **** 			    !asn1_is_generalizedtime(&hdr) ||
 2451              		.loc 2 275 8
 2452 0bba 9018     		addi	a2,sp,112
 273:C:/Users/stapi/OneDrive/Desktop/GD32VW553/V1_MQTT_OK/GD32VW55X_Wifi_BLE_SDK/GD32VW55x_RELEASE_V1.0.2/MSDK/wpa_supplicant/src/tls\tlsv1_client_ocsp.c **** 
 2453              		.loc 2 273 14
 2454 0bbc 330DB500 		add	s10,a0,a1
 2455              	.LVL263:
 275:C:/Users/stapi/OneDrive/Desktop/GD32VW553/V1_MQTT_OK/GD32VW55X_Wifi_BLE_SDK/GD32VW55x_RELEASE_V1.0.2/MSDK/wpa_supplicant/src/tls\tlsv1_client_ocsp.c **** 			    !asn1_is_generalizedtime(&hdr) ||
 2456              		.loc 2 275 4 is_stmt 1
 275:C:/Users/stapi/OneDrive/Desktop/GD32VW553/V1_MQTT_OK/GD32VW55X_Wifi_BLE_SDK/GD32VW55x_RELEASE_V1.0.2/MSDK/wpa_supplicant/src/tls\tlsv1_client_ocsp.c **** 			    !asn1_is_generalizedtime(&hdr) ||
 2457              		.loc 2 275 8 is_stmt 0
 2458 0bc0 97000000 		call	asn1_get_next
 2458      E7800000 
 2459              	.LVL264:
 275:C:/Users/stapi/OneDrive/Desktop/GD32VW553/V1_MQTT_OK/GD32VW55X_Wifi_BLE_SDK/GD32VW55x_RELEASE_V1.0.2/MSDK/wpa_supplicant/src/tls\tlsv1_client_ocsp.c **** 			    !asn1_is_generalizedtime(&hdr) ||
 2460              		.loc 2 275 7
 2461 0bc8 63570500 		bge	a0,zero,.L113
 2462              	.L114:
 279:C:/Users/stapi/OneDrive/Desktop/GD32VW553/V1_MQTT_OK/GD32VW55X_Wifi_BLE_SDK/GD32VW55x_RELEASE_V1.0.2/MSDK/wpa_supplicant/src/tls\tlsv1_client_ocsp.c **** 					   "OCSP: Failed to parse nextUpdate");
 2463              		.loc 2 279 5 is_stmt 1
 2464 0bcc B7050000 		lui	a1,%hi(.LC67)
 2465 0bd0 93850500 		addi	a1,a1,%lo(.LC67)
 2466 0bd4 C9B5     		j	.L160
 2467              	.L113:
 2468              	.LVL265:
 2469              	.LBB81:
 2470              	.LBB82:
 144:C:/Users/stapi/OneDrive/Desktop/GD32VW553/V1_MQTT_OK/GD32VW55X_Wifi_BLE_SDK/GD32VW55x_RELEASE_V1.0.2/MSDK/wpa_supplicant/src/tls\asn1.h **** 		hdr->tag == ASN1_TAG_GENERALIZEDTIME;
 2471              		.loc 1 144 2
 144:C:/Users/stapi/OneDrive/Desktop/GD32VW553/V1_MQTT_OK/GD32VW55X_Wifi_BLE_SDK/GD32VW55x_RELEASE_V1.0.2/MSDK/wpa_supplicant/src/tls\asn1.h **** 		hdr->tag == ASN1_TAG_GENERALIZEDTIME;
 2472              		.loc 1 144 44 is_stmt 0
 2473 0bd6 83475107 		lbu	a5,117(sp)
 2474 0bda EDFB     		bne	a5,zero,.L114
 2475 0bdc 6657     		lw	a4,120(sp)
 2476 0bde E147     		li	a5,24
 2477 0be0 E316F7FE 		bne	a4,a5,.L114
 2478              	.LVL266:
 2479              	.LBE82:
 2480              	.LBE81:
 277:C:/Users/stapi/OneDrive/Desktop/GD32VW553/V1_MQTT_OK/GD32VW55X_Wifi_BLE_SDK/GD32VW55x_RELEASE_V1.0.2/MSDK/wpa_supplicant/src/tls\tlsv1_client_ocsp.c **** 					    &update) < 0) {
 2481              		.loc 2 277 8
 2482 0be4 F655     		lw	a1,124(sp)
 2483 0be6 4655     		lw	a0,112(sp)
 2484 0be8 5418     		addi	a3,sp,52
 2485 0bea 6146     		li	a2,24
 2486 0bec 97000000 		call	x509_parse_time
 2486      E7800000 
 2487              	.LVL267:
 276:C:/Users/stapi/OneDrive/Desktop/GD32VW553/V1_MQTT_OK/GD32VW55X_Wifi_BLE_SDK/GD32VW55x_RELEASE_V1.0.2/MSDK/wpa_supplicant/src/tls\tlsv1_client_ocsp.c **** 			    x509_parse_time(hdr.payload, hdr.length, hdr.tag,
 2488              		.loc 2 276 39
 2489 0bf4 E34C05FC 		blt	a0,zero,.L114
 283:C:/Users/stapi/OneDrive/Desktop/GD32VW553/V1_MQTT_OK/GD32VW55X_Wifi_BLE_SDK/GD32VW55x_RELEASE_V1.0.2/MSDK/wpa_supplicant/src/tls\tlsv1_client_ocsp.c **** 				   (unsigned long) update);
 2490              		.loc 2 283 4 is_stmt 1
 2491 0bf8 5256     		lw	a2,52(sp)
 2492 0bfa B7050000 		lui	a1,%hi(.LC68)
 2493 0bfe 93850500 		addi	a1,a1,%lo(.LC68)
 2494 0c02 0945     		li	a0,2
 2495 0c04 97000000 		call	wpa_printf
 2495      E7800000 
 2496              	.LVL268:
 285:C:/Users/stapi/OneDrive/Desktop/GD32VW553/V1_MQTT_OK/GD32VW55X_Wifi_BLE_SDK/GD32VW55x_RELEASE_V1.0.2/MSDK/wpa_supplicant/src/tls\tlsv1_client_ocsp.c **** 			if ((unsigned long) now.sec > (unsigned long) update) {
 2497              		.loc 2 285 4
 286:C:/Users/stapi/OneDrive/Desktop/GD32VW553/V1_MQTT_OK/GD32VW55X_Wifi_BLE_SDK/GD32VW55x_RELEASE_V1.0.2/MSDK/wpa_supplicant/src/tls\tlsv1_client_ocsp.c **** 				wpa_printf(MSG_DEBUG, "OCSP: nextUpdate time in the past (response has expired)");
 2498              		.loc 2 286 7 is_stmt 0
 2499 0c0c 6257     		lw	a4,56(sp)
 2500 0c0e D257     		lw	a5,52(sp)
 285:C:/Users/stapi/OneDrive/Desktop/GD32VW553/V1_MQTT_OK/GD32VW55X_Wifi_BLE_SDK/GD32VW55x_RELEASE_V1.0.2/MSDK/wpa_supplicant/src/tls\tlsv1_client_ocsp.c **** 			if ((unsigned long) now.sec > (unsigned long) update) {
 2501              		.loc 2 285 8
 2502 0c10 6AD8     		sw	s10,48(sp)
 286:C:/Users/stapi/OneDrive/Desktop/GD32VW553/V1_MQTT_OK/GD32VW55X_Wifi_BLE_SDK/GD32VW55x_RELEASE_V1.0.2/MSDK/wpa_supplicant/src/tls\tlsv1_client_ocsp.c **** 				wpa_printf(MSG_DEBUG, "OCSP: nextUpdate time in the past (response has expired)");
 2503              		.loc 2 286 4 is_stmt 1
 286:C:/Users/stapi/OneDrive/Desktop/GD32VW553/V1_MQTT_OK/GD32VW55X_Wifi_BLE_SDK/GD32VW55x_RELEASE_V1.0.2/MSDK/wpa_supplicant/src/tls\tlsv1_client_ocsp.c **** 				wpa_printf(MSG_DEBUG, "OCSP: nextUpdate time in the past (response has expired)");
 2504              		.loc 2 286 7 is_stmt 0
 2505 0c12 63F7E700 		bleu	a4,a5,.L112
 287:C:/Users/stapi/OneDrive/Desktop/GD32VW553/V1_MQTT_OK/GD32VW55X_Wifi_BLE_SDK/GD32VW55x_RELEASE_V1.0.2/MSDK/wpa_supplicant/src/tls\tlsv1_client_ocsp.c **** 				return -1;
 2506              		.loc 2 287 5 is_stmt 1
 2507 0c16 B7050000 		lui	a1,%hi(.LC69)
 2508 0c1a 93850500 		addi	a1,a1,%lo(.LC69)
 2509 0c1e A5BD     		j	.L160
 2510              	.LVL269:
 2511              	.L112:
 2512              	.LBE87:
 294:C:/Users/stapi/OneDrive/Desktop/GD32VW553/V1_MQTT_OK/GD32VW55X_Wifi_BLE_SDK/GD32VW55x_RELEASE_V1.0.2/MSDK/wpa_supplicant/src/tls\tlsv1_client_ocsp.c **** 		wpa_hexdump(MSG_MSGDUMP, "OCSP: singleExtensions",
 2513              		.loc 2 294 2
 294:C:/Users/stapi/OneDrive/Desktop/GD32VW553/V1_MQTT_OK/GD32VW55X_Wifi_BLE_SDK/GD32VW55x_RELEASE_V1.0.2/MSDK/wpa_supplicant/src/tls\tlsv1_client_ocsp.c **** 		wpa_hexdump(MSG_MSGDUMP, "OCSP: singleExtensions",
 2514              		.loc 2 294 10 is_stmt 0
 2515 0c20 4256     		lw	a2,48(sp)
 294:C:/Users/stapi/OneDrive/Desktop/GD32VW553/V1_MQTT_OK/GD32VW55X_Wifi_BLE_SDK/GD32VW55x_RELEASE_V1.0.2/MSDK/wpa_supplicant/src/tls\tlsv1_client_ocsp.c **** 		wpa_hexdump(MSG_MSGDUMP, "OCSP: singleExtensions",
 2516              		.loc 2 294 5
 2517 0c22 637D4601 		bleu	s4,a2,.L115
 295:C:/Users/stapi/OneDrive/Desktop/GD32VW553/V1_MQTT_OK/GD32VW55X_Wifi_BLE_SDK/GD32VW55x_RELEASE_V1.0.2/MSDK/wpa_supplicant/src/tls\tlsv1_client_ocsp.c **** 			    pos, end - pos);
 2518              		.loc 2 295 3 is_stmt 1
 2519 0c26 B7050000 		lui	a1,%hi(.LC70)
 2520 0c2a B306CA40 		sub	a3,s4,a2
 2521 0c2e 93850500 		addi	a1,a1,%lo(.LC70)
 2522 0c32 0545     		li	a0,1
 2523 0c34 97000000 		call	wpa_hexdump
 2523      E7800000 
 2524              	.LVL270:
 2525              	.L115:
 300:C:/Users/stapi/OneDrive/Desktop/GD32VW553/V1_MQTT_OK/GD32VW55X_Wifi_BLE_SDK/GD32VW55x_RELEASE_V1.0.2/MSDK/wpa_supplicant/src/tls\tlsv1_client_ocsp.c **** 		*res = TLS_OCSP_GOOD;
 2526              		.loc 2 300 2
 300:C:/Users/stapi/OneDrive/Desktop/GD32VW553/V1_MQTT_OK/GD32VW55X_Wifi_BLE_SDK/GD32VW55x_RELEASE_V1.0.2/MSDK/wpa_supplicant/src/tls\tlsv1_client_ocsp.c **** 		*res = TLS_OCSP_GOOD;
 2527              		.loc 2 300 5 is_stmt 0
 2528 0c3c 638C0A02 		beq	s5,zero,.L116
 302:C:/Users/stapi/OneDrive/Desktop/GD32VW553/V1_MQTT_OK/GD32VW55X_Wifi_BLE_SDK/GD32VW55x_RELEASE_V1.0.2/MSDK/wpa_supplicant/src/tls\tlsv1_client_ocsp.c **** 		*res = TLS_OCSP_REVOKED;
 2529              		.loc 2 302 7 is_stmt 1
 302:C:/Users/stapi/OneDrive/Desktop/GD32VW553/V1_MQTT_OK/GD32VW55X_Wifi_BLE_SDK/GD32VW55x_RELEASE_V1.0.2/MSDK/wpa_supplicant/src/tls\tlsv1_client_ocsp.c **** 		*res = TLS_OCSP_REVOKED;
 2530              		.loc 2 302 10 is_stmt 0
 2531 0c40 8547     		li	a5,1
 2532 0c42 E390FAD2 		bne	s5,a5,.L92
 303:C:/Users/stapi/OneDrive/Desktop/GD32VW553/V1_MQTT_OK/GD32VW55X_Wifi_BLE_SDK/GD32VW55x_RELEASE_V1.0.2/MSDK/wpa_supplicant/src/tls\tlsv1_client_ocsp.c **** 	else
 2533              		.loc 2 303 3 is_stmt 1
 2534              	.LVL271:
 2535              	.LBE89:
 2536              	.LBE91:
 2537              	.LBE93:
 2538              	.LBE95:
 630:C:/Users/stapi/OneDrive/Desktop/GD32VW553/V1_MQTT_OK/GD32VW55X_Wifi_BLE_SDK/GD32VW55x_RELEASE_V1.0.2/MSDK/wpa_supplicant/src/tls\tlsv1_client_ocsp.c **** 		srv_cert->ocsp_revoked = 1;
 2539              		.loc 2 630 2
 631:C:/Users/stapi/OneDrive/Desktop/GD32VW553/V1_MQTT_OK/GD32VW55X_Wifi_BLE_SDK/GD32VW55x_RELEASE_V1.0.2/MSDK/wpa_supplicant/src/tls\tlsv1_client_ocsp.c **** 	else if (res == TLS_OCSP_GOOD)
 2540              		.loc 2 631 3
 631:C:/Users/stapi/OneDrive/Desktop/GD32VW553/V1_MQTT_OK/GD32VW55X_Wifi_BLE_SDK/GD32VW55x_RELEASE_V1.0.2/MSDK/wpa_supplicant/src/tls\tlsv1_client_ocsp.c **** 	else if (res == TLS_OCSP_GOOD)
 2541              		.loc 2 631 26 is_stmt 0
 2542 0c46 83474438 		lbu	a5,900(s0)
 2543 0c4a D244     		lw	s1,20(sp)
 2544 0c4c 93E72700 		ori	a5,a5,2
 2545 0c50 2302F438 		sb	a5,900(s0)
 2546              	.LVL272:
 2547              	.L40:
 2548              	.LBE55:
 2549              	.LBE54:
 751:C:/Users/stapi/OneDrive/Desktop/GD32VW553/V1_MQTT_OK/GD32VW55X_Wifi_BLE_SDK/GD32VW55x_RELEASE_V1.0.2/MSDK/wpa_supplicant/src/tls\tlsv1_client_ocsp.c **** 				res_first = res;
 2550              		.loc 2 751 4 is_stmt 1
 751:C:/Users/stapi/OneDrive/Desktop/GD32VW553/V1_MQTT_OK/GD32VW55X_Wifi_BLE_SDK/GD32VW55x_RELEASE_V1.0.2/MSDK/wpa_supplicant/src/tls\tlsv1_client_ocsp.c **** 				res_first = res;
 2551              		.loc 2 751 7 is_stmt 0
 2552 0c54 83270B22 		lw	a5,544(s6)
 2553 0c58 63938700 		bne	a5,s0,.L118
 752:C:/Users/stapi/OneDrive/Desktop/GD32VW553/V1_MQTT_OK/GD32VW55X_Wifi_BLE_SDK/GD32VW55x_RELEASE_V1.0.2/MSDK/wpa_supplicant/src/tls\tlsv1_client_ocsp.c **** 		}
 2554              		.loc 2 752 15
 2555 0c5c 2689     		mv	s2,s1
 2556              	.LVL273:
 2557              	.L118:
 2558              	.LBE53:
 754:C:/Users/stapi/OneDrive/Desktop/GD32VW553/V1_MQTT_OK/GD32VW55X_Wifi_BLE_SDK/GD32VW55x_RELEASE_V1.0.2/MSDK/wpa_supplicant/src/tls\tlsv1_client_ocsp.c **** 			break;
 2559              		.loc 2 754 3 is_stmt 1
 754:C:/Users/stapi/OneDrive/Desktop/GD32VW553/V1_MQTT_OK/GD32VW55X_Wifi_BLE_SDK/GD32VW55x_RELEASE_V1.0.2/MSDK/wpa_supplicant/src/tls\tlsv1_client_ocsp.c **** 			break;
 2560              		.loc 2 754 6 is_stmt 0
 2561 0c5e 8D47     		li	a5,3
 2562 0c60 6382F402 		beq	s1,a5,.L124
 2563              	.LVL274:
 2564              	.L37:
 754:C:/Users/stapi/OneDrive/Desktop/GD32VW553/V1_MQTT_OK/GD32VW55X_Wifi_BLE_SDK/GD32VW55x_RELEASE_V1.0.2/MSDK/wpa_supplicant/src/tls\tlsv1_client_ocsp.c **** 			break;
 2565              		.loc 2 754 31 discriminator 1
 2566 0c64 83474438 		lbu	a5,900(s0)
 2567 0c68 918B     		andi	a5,a5,4
 2568 0c6a 639807BE 		bne	a5,zero,.L21
 756:C:/Users/stapi/OneDrive/Desktop/GD32VW553/V1_MQTT_OK/GD32VW55X_Wifi_BLE_SDK/GD32VW55x_RELEASE_V1.0.2/MSDK/wpa_supplicant/src/tls\tlsv1_client_ocsp.c **** 	}
 2569              		.loc 2 756 3 is_stmt 1
 756:C:/Users/stapi/OneDrive/Desktop/GD32VW553/V1_MQTT_OK/GD32VW55X_Wifi_BLE_SDK/GD32VW55x_RELEASE_V1.0.2/MSDK/wpa_supplicant/src/tls\tlsv1_client_ocsp.c **** 	}
 2570              		.loc 2 756 8 is_stmt 0
 2571 0c6e 0040     		lw	s0,0(s0)
 2572              	.LVL275:
 2573 0c70 6FF08FDD 		j	.L36
 2574              	.LVL276:
 2575              	.L116:
 2576              	.LBB100:
 2577              	.LBB98:
 2578              	.LBB96:
 630:C:/Users/stapi/OneDrive/Desktop/GD32VW553/V1_MQTT_OK/GD32VW55X_Wifi_BLE_SDK/GD32VW55x_RELEASE_V1.0.2/MSDK/wpa_supplicant/src/tls\tlsv1_client_ocsp.c **** 		srv_cert->ocsp_revoked = 1;
 2579              		.loc 2 630 2 is_stmt 1
 632:C:/Users/stapi/OneDrive/Desktop/GD32VW553/V1_MQTT_OK/GD32VW55X_Wifi_BLE_SDK/GD32VW55x_RELEASE_V1.0.2/MSDK/wpa_supplicant/src/tls\tlsv1_client_ocsp.c **** 		srv_cert->ocsp_good = 1;
 2580              		.loc 2 632 7
 633:C:/Users/stapi/OneDrive/Desktop/GD32VW553/V1_MQTT_OK/GD32VW55X_Wifi_BLE_SDK/GD32VW55x_RELEASE_V1.0.2/MSDK/wpa_supplicant/src/tls\tlsv1_client_ocsp.c **** 	return res;
 2581              		.loc 2 633 3
 633:C:/Users/stapi/OneDrive/Desktop/GD32VW553/V1_MQTT_OK/GD32VW55X_Wifi_BLE_SDK/GD32VW55x_RELEASE_V1.0.2/MSDK/wpa_supplicant/src/tls\tlsv1_client_ocsp.c **** 	return res;
 2582              		.loc 2 633 23 is_stmt 0
 2583 0c74 83474438 		lbu	a5,900(s0)
 2584 0c78 E284     		mv	s1,s8
 2585 0c7a 93E71700 		ori	a5,a5,1
 2586 0c7e 2302F438 		sb	a5,900(s0)
 2587 0c82 C9BF     		j	.L40
 2588              	.LVL277:
 2589              	.L124:
 2590              	.LBE96:
 2591              	.LBE98:
 2592              	.LBE100:
 2593 0c84 0D49     		li	s2,3
 2594              	.LVL278:
 2595 0c86 6FF04FBD 		j	.L21
 2596              	.LVL279:
 2597              	.L75:
 2598              	.LBB101:
 2599              	.LBB99:
 2600              	.LBB97:
 586:C:/Users/stapi/OneDrive/Desktop/GD32VW553/V1_MQTT_OK/GD32VW55X_Wifi_BLE_SDK/GD32VW55x_RELEASE_V1.0.2/MSDK/wpa_supplicant/src/tls\tlsv1_client_ocsp.c **** 		wpa_printf(MSG_DEBUG,
 2601              		.loc 2 586 2 is_stmt 1
 592:C:/Users/stapi/OneDrive/Desktop/GD32VW553/V1_MQTT_OK/GD32VW55X_Wifi_BLE_SDK/GD32VW55x_RELEASE_V1.0.2/MSDK/wpa_supplicant/src/tls\tlsv1_client_ocsp.c **** 		wpa_printf(MSG_DEBUG,
 2602              		.loc 2 592 2
 592:C:/Users/stapi/OneDrive/Desktop/GD32VW553/V1_MQTT_OK/GD32VW55X_Wifi_BLE_SDK/GD32VW55x_RELEASE_V1.0.2/MSDK/wpa_supplicant/src/tls\tlsv1_client_ocsp.c **** 		wpa_printf(MSG_DEBUG,
 2603              		.loc 2 592 6 is_stmt 0
 2604 0c8a 6E86     		mv	a2,s11
 2605 0c8c 8C1D     		addi	a1,sp,752
 2606 0c8e 5E85     		mv	a0,s7
 2607 0c90 97000000 		call	ocsp_responder_id_match
 2607      E7800000 
 2608              	.LVL280:
 592:C:/Users/stapi/OneDrive/Desktop/GD32VW553/V1_MQTT_OK/GD32VW55X_Wifi_BLE_SDK/GD32VW55x_RELEASE_V1.0.2/MSDK/wpa_supplicant/src/tls\tlsv1_client_ocsp.c **** 		wpa_printf(MSG_DEBUG,
 2609              		.loc 2 592 5
 2610 0c98 E31705AA 		bne	a0,zero,.L120
 599:C:/Users/stapi/OneDrive/Desktop/GD32VW553/V1_MQTT_OK/GD32VW55X_Wifi_BLE_SDK/GD32VW55x_RELEASE_V1.0.2/MSDK/wpa_supplicant/src/tls\tlsv1_client_ocsp.c **** 					      &issuer->subject) != 0 ||
 2611              		.loc 2 599 8
 2612 0c9c 93874B18 		addi	a5,s7,388
 2613 0ca0 3ECC     		sw	a5,24(sp)
 2614 0ca2 93074407 		addi	a5,s0,116
 597:C:/Users/stapi/OneDrive/Desktop/GD32VW553/V1_MQTT_OK/GD32VW55X_Wifi_BLE_SDK/GD32VW55x_RELEASE_V1.0.2/MSDK/wpa_supplicant/src/tls\tlsv1_client_ocsp.c **** 			if (!ocsp_responder_id_match(signer, &name, key_hash) ||
 2615              		.loc 2 597 15
 2616 0ca6 D68C     		mv	s9,s5
 599:C:/Users/stapi/OneDrive/Desktop/GD32VW553/V1_MQTT_OK/GD32VW55X_Wifi_BLE_SDK/GD32VW55x_RELEASE_V1.0.2/MSDK/wpa_supplicant/src/tls\tlsv1_client_ocsp.c **** 					      &issuer->subject) != 0 ||
 2617              		.loc 2 599 8
 2618 0ca8 3ECE     		sw	a5,28(sp)
 2619 0caa 1DB6     		j	.L82
 2620              	.LBE97:
 2621              	.LBE99:
 2622              	.LBE101:
 2623              		.cfi_endproc
 2624              	.LFE92:
 2626              		.text
 2627              	.Letext0:
 2628              		.file 3 "c:\\users\\stapi\\onedrive\\desktop\\gd32vw553\\embeddedbuilder_v1.4.7.26843\\tools\\nucl
 2629              		.file 4 "c:\\users\\stapi\\onedrive\\desktop\\gd32vw553\\embeddedbuilder_v1.4.7.26843\\tools\\nucl
 2630              		.file 5 "c:\\users\\stapi\\onedrive\\desktop\\gd32vw553\\embeddedbuilder_v1.4.7.26843\\tools\\nucl
 2631              		.file 6 "..\\..\\..\\..\\wpa_supplicant\\src\\utils/os.h"
 2632              		.file 7 "..\\..\\..\\..\\wpa_supplicant\\src\\utils/common.h"
 2633              		.file 8 "..\\..\\..\\..\\wpa_supplicant\\src\\utils/wpabuf.h"
 2634              		.file 9 "..\\..\\..\\..\\wpa_supplicant\\src/crypto/tls.h"
 2635              		.file 10 "C:/Users/stapi/OneDrive/Desktop/GD32VW553/V1_MQTT_OK/GD32VW55X_Wifi_BLE_SDK/GD32VW55x_RE
 2636              		.file 11 "..\\..\\..\\..\\wpa_supplicant\\src\\utils/wpa_debug.h"
 2637              		.file 12 "..\\..\\..\\..\\wpa_supplicant\\src/crypto/crypto.h"
 2638              		.file 13 "C:/Users/stapi/OneDrive/Desktop/GD32VW553/V1_MQTT_OK/GD32VW55X_Wifi_BLE_SDK/GD32VW55x_RE
 2639              		.file 14 "C:/Users/stapi/OneDrive/Desktop/GD32VW553/V1_MQTT_OK/GD32VW55X_Wifi_BLE_SDK/GD32VW55x_RE
 2640              		.file 15 "C:/Users/stapi/OneDrive/Desktop/GD32VW553/V1_MQTT_OK/GD32VW55X_Wifi_BLE_SDK/GD32VW55x_RE
 2641              		.file 16 "C:/Users/stapi/OneDrive/Desktop/GD32VW553/V1_MQTT_OK/GD32VW55X_Wifi_BLE_SDK/GD32VW55x_RE
 2642              		.file 17 "C:/Users/stapi/OneDrive/Desktop/GD32VW553/V1_MQTT_OK/GD32VW55X_Wifi_BLE_SDK/GD32VW55x_RE
DEFINED SYMBOLS
                            *ABS*:0000000000000000 tlsv1_client_ocsp.c
C:\Users\stapi\AppData\Local\Temp\ccEJMvgv.s:12     .text.asn1_is_sequence:0000000000000000 asn1_is_sequence
C:\Users\stapi\AppData\Local\Temp\ccEJMvgv.s:16     .text.asn1_is_sequence:0000000000000000 .L0 
C:\Users\stapi\AppData\Local\Temp\ccEJMvgv.s:18     .text.asn1_is_sequence:0000000000000000 .L0 
C:\Users\stapi\AppData\Local\Temp\ccEJMvgv.s:19     .text.asn1_is_sequence:0000000000000000 .L0 
C:\Users\stapi\AppData\Local\Temp\ccEJMvgv.s:20     .text.asn1_is_sequence:0000000000000000 .L0 
C:\Users\stapi\AppData\Local\Temp\ccEJMvgv.s:23     .text.asn1_is_sequence:0000000000000006 .L0 
C:\Users\stapi\AppData\Local\Temp\ccEJMvgv.s:31     .text.asn1_is_sequence:0000000000000010 .L0 
C:\Users\stapi\AppData\Local\Temp\ccEJMvgv.s:34     .text.asn1_is_sequence:0000000000000012 .L0 
C:\Users\stapi\AppData\Local\Temp\ccEJMvgv.s:35     .text.asn1_is_sequence:0000000000000014 .L0 
C:\Users\stapi\AppData\Local\Temp\ccEJMvgv.s:41     .text.ocsp_responder_id_match:0000000000000000 ocsp_responder_id_match
C:\Users\stapi\AppData\Local\Temp\ccEJMvgv.s:45     .text.ocsp_responder_id_match:0000000000000000 .L0 
C:\Users\stapi\AppData\Local\Temp\ccEJMvgv.s:47     .text.ocsp_responder_id_match:0000000000000000 .L0 
C:\Users\stapi\AppData\Local\Temp\ccEJMvgv.s:48     .text.ocsp_responder_id_match:0000000000000008 .L0 
C:\Users\stapi\AppData\Local\Temp\ccEJMvgv.s:49     .text.ocsp_responder_id_match:0000000000000008 .L0 
C:\Users\stapi\AppData\Local\Temp\ccEJMvgv.s:50     .text.ocsp_responder_id_match:0000000000000008 .L0 
C:\Users\stapi\AppData\Local\Temp\ccEJMvgv.s:52     .text.ocsp_responder_id_match:0000000000000008 .L0 
C:\Users\stapi\AppData\Local\Temp\ccEJMvgv.s:53     .text.ocsp_responder_id_match:0000000000000008 .L0 
C:\Users\stapi\AppData\Local\Temp\ccEJMvgv.s:54     .text.ocsp_responder_id_match:000000000000000a .L0 
C:\Users\stapi\AppData\Local\Temp\ccEJMvgv.s:56     .text.ocsp_responder_id_match:000000000000000a .L0 
C:\Users\stapi\AppData\Local\Temp\ccEJMvgv.s:59     .text.ocsp_responder_id_match:000000000000000c .L0 
C:\Users\stapi\AppData\Local\Temp\ccEJMvgv.s:62     .text.ocsp_responder_id_match:0000000000000012 .L0 
C:\Users\stapi\AppData\Local\Temp\ccEJMvgv.s:63     .text.ocsp_responder_id_match:0000000000000012 .L0 
C:\Users\stapi\AppData\Local\Temp\ccEJMvgv.s:64     .text.ocsp_responder_id_match:0000000000000012 .L0 
C:\Users\stapi\AppData\Local\Temp\ccEJMvgv.s:66     .text.ocsp_responder_id_match:0000000000000014 .L0 
C:\Users\stapi\AppData\Local\Temp\ccEJMvgv.s:68     .text.ocsp_responder_id_match:0000000000000016 .L0 
C:\Users\stapi\AppData\Local\Temp\ccEJMvgv.s:69     .text.ocsp_responder_id_match:0000000000000016 .L0 
C:\Users\stapi\AppData\Local\Temp\ccEJMvgv.s:71     .text.ocsp_responder_id_match:000000000000001a .L0 
C:\Users\stapi\AppData\Local\Temp\ccEJMvgv.s:78     .text.ocsp_responder_id_match:0000000000000020 .L0 
C:\Users\stapi\AppData\Local\Temp\ccEJMvgv.s:80     .text.ocsp_responder_id_match:0000000000000022 .L0 
C:\Users\stapi\AppData\Local\Temp\ccEJMvgv.s:81     .text.ocsp_responder_id_match:0000000000000022 .L0 
C:\Users\stapi\AppData\Local\Temp\ccEJMvgv.s:85     .text.ocsp_responder_id_match:000000000000002c .L0 
C:\Users\stapi\AppData\Local\Temp\ccEJMvgv.s:87     .text.ocsp_responder_id_match:000000000000002e .L0 
C:\Users\stapi\AppData\Local\Temp\ccEJMvgv.s:89     .text.ocsp_responder_id_match:0000000000000032 .L0 
C:\Users\stapi\AppData\Local\Temp\ccEJMvgv.s:90     .text.ocsp_responder_id_match:0000000000000032 .L0 
C:\Users\stapi\AppData\Local\Temp\ccEJMvgv.s:98     .text.ocsp_responder_id_match:0000000000000040 .L0 
C:\Users\stapi\AppData\Local\Temp\ccEJMvgv.s:101    .text.ocsp_responder_id_match:0000000000000044 .L0 
C:\Users\stapi\AppData\Local\Temp\ccEJMvgv.s:102    .text.ocsp_responder_id_match:0000000000000046 .L0 
C:\Users\stapi\AppData\Local\Temp\ccEJMvgv.s:103    .text.ocsp_responder_id_match:0000000000000046 .L0 
C:\Users\stapi\AppData\Local\Temp\ccEJMvgv.s:105    .text.ocsp_responder_id_match:000000000000004e .L0 
C:\Users\stapi\AppData\Local\Temp\ccEJMvgv.s:106    .text.ocsp_responder_id_match:000000000000004e .L0 
C:\Users\stapi\AppData\Local\Temp\ccEJMvgv.s:107    .text.ocsp_responder_id_match:000000000000004e .L0 
C:\Users\stapi\AppData\Local\Temp\ccEJMvgv.s:110    .text.ocsp_responder_id_match:000000000000004e .L0 
C:\Users\stapi\AppData\Local\Temp\ccEJMvgv.s:112    .text.ocsp_responder_id_match:000000000000004e .L0 
C:\Users\stapi\AppData\Local\Temp\ccEJMvgv.s:113    .text.ocsp_responder_id_match:000000000000004e .L0 
C:\Users\stapi\AppData\Local\Temp\ccEJMvgv.s:118    .text.ocsp_responder_id_match:000000000000005c .L0 
C:\Users\stapi\AppData\Local\Temp\ccEJMvgv.s:140    .text.ocsp_hash_data:0000000000000000 ocsp_hash_data
C:\Users\stapi\AppData\Local\Temp\ccEJMvgv.s:143    .text.ocsp_hash_data:0000000000000000 .L0 
C:\Users\stapi\AppData\Local\Temp\ccEJMvgv.s:145    .text.ocsp_hash_data:0000000000000000 .L0 
C:\Users\stapi\AppData\Local\Temp\ccEJMvgv.s:146    .text.ocsp_hash_data:0000000000000008 .L0 
C:\Users\stapi\AppData\Local\Temp\ccEJMvgv.s:147    .text.ocsp_hash_data:0000000000000008 .L0 
C:\Users\stapi\AppData\Local\Temp\ccEJMvgv.s:148    .text.ocsp_hash_data:0000000000000008 .L0 
C:\Users\stapi\AppData\Local\Temp\ccEJMvgv.s:149    .text.ocsp_hash_data:0000000000000008 .L0 
C:\Users\stapi\AppData\Local\Temp\ccEJMvgv.s:151    .text.ocsp_hash_data:0000000000000008 .L0 
C:\Users\stapi\AppData\Local\Temp\ccEJMvgv.s:152    .text.ocsp_hash_data:0000000000000008 .L0 
C:\Users\stapi\AppData\Local\Temp\ccEJMvgv.s:153    .text.ocsp_hash_data:000000000000000a .L0 
C:\Users\stapi\AppData\Local\Temp\ccEJMvgv.s:155    .text.ocsp_hash_data:000000000000000a .L0 
C:\Users\stapi\AppData\Local\Temp\ccEJMvgv.s:158    .text.ocsp_hash_data:000000000000000e .L0 
C:\Users\stapi\AppData\Local\Temp\ccEJMvgv.s:160    .text.ocsp_hash_data:0000000000000010 .L0 
C:\Users\stapi\AppData\Local\Temp\ccEJMvgv.s:161    .text.ocsp_hash_data:0000000000000010 .L0 
C:\Users\stapi\AppData\Local\Temp\ccEJMvgv.s:163    .text.ocsp_hash_data:0000000000000012 .L0 
C:\Users\stapi\AppData\Local\Temp\ccEJMvgv.s:164    .text.ocsp_hash_data:0000000000000012 .L0 
C:\Users\stapi\AppData\Local\Temp\ccEJMvgv.s:165    .text.ocsp_hash_data:0000000000000012 .L0 
C:\Users\stapi\AppData\Local\Temp\ccEJMvgv.s:168    .text.ocsp_hash_data:000000000000001a .L0 
C:\Users\stapi\AppData\Local\Temp\ccEJMvgv.s:170    .text.ocsp_hash_data:000000000000001c .L0 
C:\Users\stapi\AppData\Local\Temp\ccEJMvgv.s:171    .text.ocsp_hash_data:000000000000001c .L0 
C:\Users\stapi\AppData\Local\Temp\ccEJMvgv.s:178    .text.ocsp_hash_data:000000000000002c .L0 
C:\Users\stapi\AppData\Local\Temp\ccEJMvgv.s:181    .text.ocsp_hash_data:0000000000000030 .L0 
C:\Users\stapi\AppData\Local\Temp\ccEJMvgv.s:182    .text.ocsp_hash_data:0000000000000030 .L0 
C:\Users\stapi\AppData\Local\Temp\ccEJMvgv.s:186    .text.ocsp_hash_data:0000000000000034 .L0 
C:\Users\stapi\AppData\Local\Temp\ccEJMvgv.s:194    .text.ocsp_hash_data:000000000000004a .L0 
C:\Users\stapi\AppData\Local\Temp\ccEJMvgv.s:195    .text.ocsp_hash_data:000000000000004a .L0 
C:\Users\stapi\AppData\Local\Temp\ccEJMvgv.s:198    .text.ocsp_hash_data:000000000000004c .L0 
C:\Users\stapi\AppData\Local\Temp\ccEJMvgv.s:199    .text.ocsp_hash_data:000000000000004e .L0 
C:\Users\stapi\AppData\Local\Temp\ccEJMvgv.s:200    .text.ocsp_hash_data:000000000000004e .L0 
C:\Users\stapi\AppData\Local\Temp\ccEJMvgv.s:202    .text.ocsp_hash_data:0000000000000056 .L0 
C:\Users\stapi\AppData\Local\Temp\ccEJMvgv.s:203    .text.ocsp_hash_data:0000000000000056 .L0 
C:\Users\stapi\AppData\Local\Temp\ccEJMvgv.s:204    .text.ocsp_hash_data:0000000000000056 .L0 
C:\Users\stapi\AppData\Local\Temp\ccEJMvgv.s:205    .text.ocsp_hash_data:0000000000000056 .L0 
C:\Users\stapi\AppData\Local\Temp\ccEJMvgv.s:207    .text.ocsp_hash_data:0000000000000056 .L0 
C:\Users\stapi\AppData\Local\Temp\ccEJMvgv.s:209    .text.ocsp_hash_data:0000000000000056 .L0 
C:\Users\stapi\AppData\Local\Temp\ccEJMvgv.s:210    .text.ocsp_hash_data:0000000000000056 .L0 
C:\Users\stapi\AppData\Local\Temp\ccEJMvgv.s:214    .text.ocsp_hash_data:0000000000000060 .L0 
C:\Users\stapi\AppData\Local\Temp\ccEJMvgv.s:216    .text.ocsp_hash_data:0000000000000062 .L0 
C:\Users\stapi\AppData\Local\Temp\ccEJMvgv.s:217    .text.ocsp_hash_data:0000000000000062 .L0 
C:\Users\stapi\AppData\Local\Temp\ccEJMvgv.s:224    .text.ocsp_hash_data:0000000000000072 .L0 
C:\Users\stapi\AppData\Local\Temp\ccEJMvgv.s:226    .text.ocsp_hash_data:0000000000000076 .L0 
C:\Users\stapi\AppData\Local\Temp\ccEJMvgv.s:234    .text.ocsp_hash_data:000000000000008e .L0 
C:\Users\stapi\AppData\Local\Temp\ccEJMvgv.s:235    .text.ocsp_hash_data:000000000000008e .L0 
C:\Users\stapi\AppData\Local\Temp\ccEJMvgv.s:239    .text.ocsp_hash_data:0000000000000094 .L0 
C:\Users\stapi\AppData\Local\Temp\ccEJMvgv.s:240    .text.ocsp_hash_data:0000000000000094 .L0 
C:\Users\stapi\AppData\Local\Temp\ccEJMvgv.s:244    .text.ocsp_hash_data:000000000000009e .L0 
C:\Users\stapi\AppData\Local\Temp\ccEJMvgv.s:246    .text.ocsp_hash_data:00000000000000a0 .L0 
C:\Users\stapi\AppData\Local\Temp\ccEJMvgv.s:247    .text.ocsp_hash_data:00000000000000a0 .L0 
C:\Users\stapi\AppData\Local\Temp\ccEJMvgv.s:254    .text.ocsp_hash_data:00000000000000b0 .L0 
C:\Users\stapi\AppData\Local\Temp\ccEJMvgv.s:256    .text.ocsp_hash_data:00000000000000b4 .L0 
C:\Users\stapi\AppData\Local\Temp\ccEJMvgv.s:264    .text.ocsp_hash_data:00000000000000cc .L0 
C:\Users\stapi\AppData\Local\Temp\ccEJMvgv.s:265    .text.ocsp_hash_data:00000000000000cc .L0 
C:\Users\stapi\AppData\Local\Temp\ccEJMvgv.s:269    .text.ocsp_hash_data:00000000000000d2 .L0 
C:\Users\stapi\AppData\Local\Temp\ccEJMvgv.s:270    .text.ocsp_hash_data:00000000000000d2 .L0 
C:\Users\stapi\AppData\Local\Temp\ccEJMvgv.s:274    .text.ocsp_hash_data:00000000000000dc .L0 
C:\Users\stapi\AppData\Local\Temp\ccEJMvgv.s:276    .text.ocsp_hash_data:00000000000000de .L0 
C:\Users\stapi\AppData\Local\Temp\ccEJMvgv.s:277    .text.ocsp_hash_data:00000000000000de .L0 
C:\Users\stapi\AppData\Local\Temp\ccEJMvgv.s:284    .text.ocsp_hash_data:00000000000000ee .L0 
C:\Users\stapi\AppData\Local\Temp\ccEJMvgv.s:286    .text.ocsp_hash_data:00000000000000f2 .L0 
C:\Users\stapi\AppData\Local\Temp\ccEJMvgv.s:294    .text.ocsp_hash_data:000000000000010a .L0 
C:\Users\stapi\AppData\Local\Temp\ccEJMvgv.s:295    .text.ocsp_hash_data:000000000000010a .L0 
C:\Users\stapi\AppData\Local\Temp\ccEJMvgv.s:299    .text.ocsp_hash_data:0000000000000110 .L0 
C:\Users\stapi\AppData\Local\Temp\ccEJMvgv.s:305    .text.ocsp_hash_data:0000000000000120 .L0 
C:\Users\stapi\AppData\Local\Temp\ccEJMvgv.s:312    .text.ocsp_hash_data:0000000000000136 .L0 
C:\Users\stapi\AppData\Local\Temp\ccEJMvgv.s:524    .text.tls_process_ocsp_response:0000000000000000 tls_process_ocsp_response
C:\Users\stapi\AppData\Local\Temp\ccEJMvgv.s:527    .text.tls_process_ocsp_response:0000000000000000 .L0 
C:\Users\stapi\AppData\Local\Temp\ccEJMvgv.s:529    .text.tls_process_ocsp_response:0000000000000000 .L0 
C:\Users\stapi\AppData\Local\Temp\ccEJMvgv.s:530    .text.tls_process_ocsp_response:0000000000000008 .L0 
C:\Users\stapi\AppData\Local\Temp\ccEJMvgv.s:531    .text.tls_process_ocsp_response:0000000000000008 .L0 
C:\Users\stapi\AppData\Local\Temp\ccEJMvgv.s:532    .text.tls_process_ocsp_response:0000000000000008 .L0 
C:\Users\stapi\AppData\Local\Temp\ccEJMvgv.s:533    .text.tls_process_ocsp_response:0000000000000008 .L0 
C:\Users\stapi\AppData\Local\Temp\ccEJMvgv.s:534    .text.tls_process_ocsp_response:0000000000000008 .L0 
C:\Users\stapi\AppData\Local\Temp\ccEJMvgv.s:535    .text.tls_process_ocsp_response:0000000000000008 .L0 
C:\Users\stapi\AppData\Local\Temp\ccEJMvgv.s:536    .text.tls_process_ocsp_response:0000000000000008 .L0 
C:\Users\stapi\AppData\Local\Temp\ccEJMvgv.s:537    .text.tls_process_ocsp_response:0000000000000008 .L0 
C:\Users\stapi\AppData\Local\Temp\ccEJMvgv.s:538    .text.tls_process_ocsp_response:0000000000000008 .L0 
C:\Users\stapi\AppData\Local\Temp\ccEJMvgv.s:539    .text.tls_process_ocsp_response:0000000000000008 .L0 
C:\Users\stapi\AppData\Local\Temp\ccEJMvgv.s:540    .text.tls_process_ocsp_response:0000000000000008 .L0 
C:\Users\stapi\AppData\Local\Temp\ccEJMvgv.s:541    .text.tls_process_ocsp_response:0000000000000008 .L0 
C:\Users\stapi\AppData\Local\Temp\ccEJMvgv.s:542    .text.tls_process_ocsp_response:0000000000000008 .L0 
C:\Users\stapi\AppData\Local\Temp\ccEJMvgv.s:543    .text.tls_process_ocsp_response:0000000000000008 .L0 
C:\Users\stapi\AppData\Local\Temp\ccEJMvgv.s:545    .text.tls_process_ocsp_response:0000000000000008 .L0 
C:\Users\stapi\AppData\Local\Temp\ccEJMvgv.s:546    .text.tls_process_ocsp_response:0000000000000008 .L0 
C:\Users\stapi\AppData\Local\Temp\ccEJMvgv.s:547    .text.tls_process_ocsp_response:0000000000000008 .L0 
C:\Users\stapi\AppData\Local\Temp\ccEJMvgv.s:548    .text.tls_process_ocsp_response:0000000000000008 .L0 
C:\Users\stapi\AppData\Local\Temp\ccEJMvgv.s:549    .text.tls_process_ocsp_response:0000000000000008 .L0 
C:\Users\stapi\AppData\Local\Temp\ccEJMvgv.s:550    .text.tls_process_ocsp_response:0000000000000008 .L0 
C:\Users\stapi\AppData\Local\Temp\ccEJMvgv.s:552    .text.tls_process_ocsp_response:0000000000000008 .L0 
C:\Users\stapi\AppData\Local\Temp\ccEJMvgv.s:553    .text.tls_process_ocsp_response:0000000000000008 .L0 
C:\Users\stapi\AppData\Local\Temp\ccEJMvgv.s:554    .text.tls_process_ocsp_response:0000000000000008 .L0 
C:\Users\stapi\AppData\Local\Temp\ccEJMvgv.s:555    .text.tls_process_ocsp_response:0000000000000008 .L0 
C:\Users\stapi\AppData\Local\Temp\ccEJMvgv.s:558    .text.tls_process_ocsp_response:000000000000000c .L0 
C:\Users\stapi\AppData\Local\Temp\ccEJMvgv.s:564    .text.tls_process_ocsp_response:0000000000000014 .L0 
C:\Users\stapi\AppData\Local\Temp\ccEJMvgv.s:565    .text.tls_process_ocsp_response:0000000000000018 .L0 
C:\Users\stapi\AppData\Local\Temp\ccEJMvgv.s:567    .text.tls_process_ocsp_response:0000000000000018 .L0 
C:\Users\stapi\AppData\Local\Temp\ccEJMvgv.s:569    .text.tls_process_ocsp_response:000000000000001c .L0 
C:\Users\stapi\AppData\Local\Temp\ccEJMvgv.s:571    .text.tls_process_ocsp_response:000000000000001e .L0 
C:\Users\stapi\AppData\Local\Temp\ccEJMvgv.s:576    .text.tls_process_ocsp_response:0000000000000028 .L0 
C:\Users\stapi\AppData\Local\Temp\ccEJMvgv.s:577    .text.tls_process_ocsp_response:0000000000000028 .L0 
C:\Users\stapi\AppData\Local\Temp\ccEJMvgv.s:583    .text.tls_process_ocsp_response:0000000000000036 .L0 
C:\Users\stapi\AppData\Local\Temp\ccEJMvgv.s:585    .text.tls_process_ocsp_response:000000000000003a .L0 
C:\Users\stapi\AppData\Local\Temp\ccEJMvgv.s:589    .text.tls_process_ocsp_response:0000000000000044 .L0 
C:\Users\stapi\AppData\Local\Temp\ccEJMvgv.s:592    .text.tls_process_ocsp_response:0000000000000046 .L0 
C:\Users\stapi\AppData\Local\Temp\ccEJMvgv.s:597    .text.tls_process_ocsp_response:000000000000004e .L0 
C:\Users\stapi\AppData\Local\Temp\ccEJMvgv.s:601    .text.tls_process_ocsp_response:0000000000000058 .L0 
C:\Users\stapi\AppData\Local\Temp\ccEJMvgv.s:602    .text.tls_process_ocsp_response:0000000000000058 .L0 
C:\Users\stapi\AppData\Local\Temp\ccEJMvgv.s:606    .text.tls_process_ocsp_response:000000000000005a .L0 
C:\Users\stapi\AppData\Local\Temp\ccEJMvgv.s:608    .text.tls_process_ocsp_response:0000000000000060 .L0 
C:\Users\stapi\AppData\Local\Temp\ccEJMvgv.s:609    .text.tls_process_ocsp_response:0000000000000060 .L0 
C:\Users\stapi\AppData\Local\Temp\ccEJMvgv.s:611    .text.tls_process_ocsp_response:0000000000000068 .L0 
C:\Users\stapi\AppData\Local\Temp\ccEJMvgv.s:612    .text.tls_process_ocsp_response:0000000000000068 .L0 
C:\Users\stapi\AppData\Local\Temp\ccEJMvgv.s:613    .text.tls_process_ocsp_response:0000000000000068 .L0 
C:\Users\stapi\AppData\Local\Temp\ccEJMvgv.s:614    .text.tls_process_ocsp_response:0000000000000068 .L0 
C:\Users\stapi\AppData\Local\Temp\ccEJMvgv.s:615    .text.tls_process_ocsp_response:0000000000000068 .L0 
C:\Users\stapi\AppData\Local\Temp\ccEJMvgv.s:616    .text.tls_process_ocsp_response:0000000000000068 .L0 
C:\Users\stapi\AppData\Local\Temp\ccEJMvgv.s:617    .text.tls_process_ocsp_response:0000000000000068 .L0 
C:\Users\stapi\AppData\Local\Temp\ccEJMvgv.s:618    .text.tls_process_ocsp_response:0000000000000068 .L0 
C:\Users\stapi\AppData\Local\Temp\ccEJMvgv.s:619    .text.tls_process_ocsp_response:0000000000000068 .L0 
C:\Users\stapi\AppData\Local\Temp\ccEJMvgv.s:620    .text.tls_process_ocsp_response:0000000000000068 .L0 
C:\Users\stapi\AppData\Local\Temp\ccEJMvgv.s:621    .text.tls_process_ocsp_response:0000000000000068 .L0 
C:\Users\stapi\AppData\Local\Temp\ccEJMvgv.s:622    .text.tls_process_ocsp_response:0000000000000068 .L0 
C:\Users\stapi\AppData\Local\Temp\ccEJMvgv.s:623    .text.tls_process_ocsp_response:0000000000000068 .L0 
C:\Users\stapi\AppData\Local\Temp\ccEJMvgv.s:624    .text.tls_process_ocsp_response:0000000000000068 .L0 
C:\Users\stapi\AppData\Local\Temp\ccEJMvgv.s:627    .text.tls_process_ocsp_response:0000000000000068 .L0 
C:\Users\stapi\AppData\Local\Temp\ccEJMvgv.s:629    .text.tls_process_ocsp_response:0000000000000068 .L0 
C:\Users\stapi\AppData\Local\Temp\ccEJMvgv.s:630    .text.tls_process_ocsp_response:0000000000000068 .L0 
C:\Users\stapi\AppData\Local\Temp\ccEJMvgv.s:633    .text.tls_process_ocsp_response:000000000000006a .L0 
C:\Users\stapi\AppData\Local\Temp\ccEJMvgv.s:636    .text.tls_process_ocsp_response:000000000000006c .L0 
C:\Users\stapi\AppData\Local\Temp\ccEJMvgv.s:640    .text.tls_process_ocsp_response:0000000000000072 .L0 
C:\Users\stapi\AppData\Local\Temp\ccEJMvgv.s:643    .text.tls_process_ocsp_response:0000000000000074 .L0 
C:\Users\stapi\AppData\Local\Temp\ccEJMvgv.s:644    .text.tls_process_ocsp_response:0000000000000074 .L0 
C:\Users\stapi\AppData\Local\Temp\ccEJMvgv.s:645    .text.tls_process_ocsp_response:0000000000000074 .L0 
C:\Users\stapi\AppData\Local\Temp\ccEJMvgv.s:648    .text.tls_process_ocsp_response:000000000000007c .L0 
C:\Users\stapi\AppData\Local\Temp\ccEJMvgv.s:653    .text.tls_process_ocsp_response:0000000000000080 .L0 
C:\Users\stapi\AppData\Local\Temp\ccEJMvgv.s:654    .text.tls_process_ocsp_response:0000000000000080 .L0 
C:\Users\stapi\AppData\Local\Temp\ccEJMvgv.s:663    .text.tls_process_ocsp_response:000000000000008e .L0 
C:\Users\stapi\AppData\Local\Temp\ccEJMvgv.s:665    .text.tls_process_ocsp_response:0000000000000090 .L0 
C:\Users\stapi\AppData\Local\Temp\ccEJMvgv.s:669    .text.tls_process_ocsp_response:0000000000000096 .L0 
C:\Users\stapi\AppData\Local\Temp\ccEJMvgv.s:674    .text.tls_process_ocsp_response:00000000000000a0 .L0 
C:\Users\stapi\AppData\Local\Temp\ccEJMvgv.s:675    .text.tls_process_ocsp_response:00000000000000a0 .L0 
C:\Users\stapi\AppData\Local\Temp\ccEJMvgv.s:677    .text.tls_process_ocsp_response:00000000000000a2 .L0 
C:\Users\stapi\AppData\Local\Temp\ccEJMvgv.s:680    .text.tls_process_ocsp_response:00000000000000a8 .L0 
C:\Users\stapi\AppData\Local\Temp\ccEJMvgv.s:683    .text.tls_process_ocsp_response:00000000000000ac .L0 
C:\Users\stapi\AppData\Local\Temp\ccEJMvgv.s:688    .text.tls_process_ocsp_response:00000000000000ba .L0 
C:\Users\stapi\AppData\Local\Temp\ccEJMvgv.s:689    .text.tls_process_ocsp_response:00000000000000ba .L0 
C:\Users\stapi\AppData\Local\Temp\ccEJMvgv.s:693    .text.tls_process_ocsp_response:00000000000000c0 .L0 
C:\Users\stapi\AppData\Local\Temp\ccEJMvgv.s:695    .text.tls_process_ocsp_response:00000000000000c2 .L0 
C:\Users\stapi\AppData\Local\Temp\ccEJMvgv.s:696    .text.tls_process_ocsp_response:00000000000000c2 .L0 
C:\Users\stapi\AppData\Local\Temp\ccEJMvgv.s:698    .text.tls_process_ocsp_response:00000000000000c6 .L0 
C:\Users\stapi\AppData\Local\Temp\ccEJMvgv.s:703    .text.tls_process_ocsp_response:00000000000000ce .L0 
C:\Users\stapi\AppData\Local\Temp\ccEJMvgv.s:708    .text.tls_process_ocsp_response:00000000000000d8 .L0 
C:\Users\stapi\AppData\Local\Temp\ccEJMvgv.s:709    .text.tls_process_ocsp_response:00000000000000d8 .L0 
C:\Users\stapi\AppData\Local\Temp\ccEJMvgv.s:714    .text.tls_process_ocsp_response:00000000000000dc .L0 
C:\Users\stapi\AppData\Local\Temp\ccEJMvgv.s:716    .text.tls_process_ocsp_response:00000000000000e0 .L0 
C:\Users\stapi\AppData\Local\Temp\ccEJMvgv.s:717    .text.tls_process_ocsp_response:00000000000000e0 .L0 
C:\Users\stapi\AppData\Local\Temp\ccEJMvgv.s:719    .text.tls_process_ocsp_response:00000000000000e4 .L0 
C:\Users\stapi\AppData\Local\Temp\ccEJMvgv.s:720    .text.tls_process_ocsp_response:00000000000000e4 .L0 
C:\Users\stapi\AppData\Local\Temp\ccEJMvgv.s:725    .text.tls_process_ocsp_response:00000000000000f0 .L0 
C:\Users\stapi\AppData\Local\Temp\ccEJMvgv.s:727    .text.tls_process_ocsp_response:00000000000000f4 .L0 
C:\Users\stapi\AppData\Local\Temp\ccEJMvgv.s:733    .text.tls_process_ocsp_response:00000000000000fa .L0 
C:\Users\stapi\AppData\Local\Temp\ccEJMvgv.s:734    .text.tls_process_ocsp_response:00000000000000fa .L0 
C:\Users\stapi\AppData\Local\Temp\ccEJMvgv.s:738    .text.tls_process_ocsp_response:0000000000000104 .L0 
C:\Users\stapi\AppData\Local\Temp\ccEJMvgv.s:740    .text.tls_process_ocsp_response:0000000000000106 .L0 
C:\Users\stapi\AppData\Local\Temp\ccEJMvgv.s:745    .text.tls_process_ocsp_response:0000000000000108 .L0 
C:\Users\stapi\AppData\Local\Temp\ccEJMvgv.s:746    .text.tls_process_ocsp_response:0000000000000108 .L0 
C:\Users\stapi\AppData\Local\Temp\ccEJMvgv.s:752    .text.tls_process_ocsp_response:0000000000000116 .L0 
C:\Users\stapi\AppData\Local\Temp\ccEJMvgv.s:755    .text.tls_process_ocsp_response:000000000000011a .L0 
C:\Users\stapi\AppData\Local\Temp\ccEJMvgv.s:760    .text.tls_process_ocsp_response:0000000000000124 .L0 
C:\Users\stapi\AppData\Local\Temp\ccEJMvgv.s:764    .text.tls_process_ocsp_response:000000000000012c .L0 
C:\Users\stapi\AppData\Local\Temp\ccEJMvgv.s:768    .text.tls_process_ocsp_response:0000000000000136 .L0 
C:\Users\stapi\AppData\Local\Temp\ccEJMvgv.s:769    .text.tls_process_ocsp_response:0000000000000136 .L0 
C:\Users\stapi\AppData\Local\Temp\ccEJMvgv.s:772    .text.tls_process_ocsp_response:0000000000000138 .L0 
C:\Users\stapi\AppData\Local\Temp\ccEJMvgv.s:776    .text.tls_process_ocsp_response:0000000000000142 .L0 
C:\Users\stapi\AppData\Local\Temp\ccEJMvgv.s:778    .text.tls_process_ocsp_response:0000000000000144 .L0 
C:\Users\stapi\AppData\Local\Temp\ccEJMvgv.s:779    .text.tls_process_ocsp_response:0000000000000144 .L0 
C:\Users\stapi\AppData\Local\Temp\ccEJMvgv.s:782    .text.tls_process_ocsp_response:0000000000000146 .L0 
C:\Users\stapi\AppData\Local\Temp\ccEJMvgv.s:784    .text.tls_process_ocsp_response:0000000000000148 .L0 
C:\Users\stapi\AppData\Local\Temp\ccEJMvgv.s:789    .text.tls_process_ocsp_response:0000000000000150 .L0 
C:\Users\stapi\AppData\Local\Temp\ccEJMvgv.s:792    .text.tls_process_ocsp_response:0000000000000152 .L0 
C:\Users\stapi\AppData\Local\Temp\ccEJMvgv.s:793    .text.tls_process_ocsp_response:0000000000000152 .L0 
C:\Users\stapi\AppData\Local\Temp\ccEJMvgv.s:794    .text.tls_process_ocsp_response:0000000000000152 .L0 
C:\Users\stapi\AppData\Local\Temp\ccEJMvgv.s:797    .text.tls_process_ocsp_response:000000000000015a .L0 
C:\Users\stapi\AppData\Local\Temp\ccEJMvgv.s:799    .text.tls_process_ocsp_response:000000000000015c .L0 
C:\Users\stapi\AppData\Local\Temp\ccEJMvgv.s:805    .text.tls_process_ocsp_response:000000000000016e .L0 
C:\Users\stapi\AppData\Local\Temp\ccEJMvgv.s:806    .text.tls_process_ocsp_response:000000000000016e .L0 
C:\Users\stapi\AppData\Local\Temp\ccEJMvgv.s:809    .text.tls_process_ocsp_response:0000000000000170 .L0 
C:\Users\stapi\AppData\Local\Temp\ccEJMvgv.s:815    .text.tls_process_ocsp_response:0000000000000180 .L0 
C:\Users\stapi\AppData\Local\Temp\ccEJMvgv.s:824    .text.tls_process_ocsp_response:0000000000000194 .L0 
C:\Users\stapi\AppData\Local\Temp\ccEJMvgv.s:825    .text.tls_process_ocsp_response:0000000000000194 .L0 
C:\Users\stapi\AppData\Local\Temp\ccEJMvgv.s:826    .text.tls_process_ocsp_response:0000000000000194 .L0 
C:\Users\stapi\AppData\Local\Temp\ccEJMvgv.s:830    .text.tls_process_ocsp_response:000000000000019e .L0 
C:\Users\stapi\AppData\Local\Temp\ccEJMvgv.s:834    .text.tls_process_ocsp_response:00000000000001a8 .L0 
C:\Users\stapi\AppData\Local\Temp\ccEJMvgv.s:838    .text.tls_process_ocsp_response:00000000000001b2 .L0 
C:\Users\stapi\AppData\Local\Temp\ccEJMvgv.s:842    .text.tls_process_ocsp_response:00000000000001bc .L0 
C:\Users\stapi\AppData\Local\Temp\ccEJMvgv.s:845    .text.tls_process_ocsp_response:00000000000001c4 .L0 
C:\Users\stapi\AppData\Local\Temp\ccEJMvgv.s:849    .text.tls_process_ocsp_response:00000000000001ce .L0 
C:\Users\stapi\AppData\Local\Temp\ccEJMvgv.s:852    .text.tls_process_ocsp_response:00000000000001d6 .L0 
C:\Users\stapi\AppData\Local\Temp\ccEJMvgv.s:856    .text.tls_process_ocsp_response:00000000000001e0 .L0 
C:\Users\stapi\AppData\Local\Temp\ccEJMvgv.s:860    .text.tls_process_ocsp_response:00000000000001ec .L0 
C:\Users\stapi\AppData\Local\Temp\ccEJMvgv.s:864    .text.tls_process_ocsp_response:00000000000001f6 .L0 
C:\Users\stapi\AppData\Local\Temp\ccEJMvgv.s:867    .text.tls_process_ocsp_response:00000000000001fa .L0 
C:\Users\stapi\AppData\Local\Temp\ccEJMvgv.s:872    .text.tls_process_ocsp_response:00000000000001fe .L0 
C:\Users\stapi\AppData\Local\Temp\ccEJMvgv.s:873    .text.tls_process_ocsp_response:00000000000001fe .L0 
C:\Users\stapi\AppData\Local\Temp\ccEJMvgv.s:875    .text.tls_process_ocsp_response:0000000000000200 .L0 
C:\Users\stapi\AppData\Local\Temp\ccEJMvgv.s:877    .text.tls_process_ocsp_response:0000000000000204 .L0 
C:\Users\stapi\AppData\Local\Temp\ccEJMvgv.s:882    .text.tls_process_ocsp_response:0000000000000210 .L0 
C:\Users\stapi\AppData\Local\Temp\ccEJMvgv.s:885    .text.tls_process_ocsp_response:0000000000000214 .L0 
C:\Users\stapi\AppData\Local\Temp\ccEJMvgv.s:891    .text.tls_process_ocsp_response:0000000000000226 .L0 
C:\Users\stapi\AppData\Local\Temp\ccEJMvgv.s:892    .text.tls_process_ocsp_response:0000000000000226 .L0 
C:\Users\stapi\AppData\Local\Temp\ccEJMvgv.s:897    .text.tls_process_ocsp_response:000000000000022a .L0 
C:\Users\stapi\AppData\Local\Temp\ccEJMvgv.s:905    .text.tls_process_ocsp_response:0000000000000234 .L0 
C:\Users\stapi\AppData\Local\Temp\ccEJMvgv.s:906    .text.tls_process_ocsp_response:0000000000000234 .L0 
C:\Users\stapi\AppData\Local\Temp\ccEJMvgv.s:915    .text.tls_process_ocsp_response:0000000000000242 .L0 
C:\Users\stapi\AppData\Local\Temp\ccEJMvgv.s:916    .text.tls_process_ocsp_response:0000000000000242 .L0 
C:\Users\stapi\AppData\Local\Temp\ccEJMvgv.s:919    .text.tls_process_ocsp_response:0000000000000246 .L0 
C:\Users\stapi\AppData\Local\Temp\ccEJMvgv.s:920    .text.tls_process_ocsp_response:0000000000000246 .L0 
C:\Users\stapi\AppData\Local\Temp\ccEJMvgv.s:924    .text.tls_process_ocsp_response:0000000000000248 .L0 
C:\Users\stapi\AppData\Local\Temp\ccEJMvgv.s:926    .text.tls_process_ocsp_response:000000000000024c .L0 
C:\Users\stapi\AppData\Local\Temp\ccEJMvgv.s:927    .text.tls_process_ocsp_response:000000000000024c .L0 
C:\Users\stapi\AppData\Local\Temp\ccEJMvgv.s:930    .text.tls_process_ocsp_response:0000000000000252 .L0 
C:\Users\stapi\AppData\Local\Temp\ccEJMvgv.s:933    .text.tls_process_ocsp_response:0000000000000256 .L0 
C:\Users\stapi\AppData\Local\Temp\ccEJMvgv.s:934    .text.tls_process_ocsp_response:0000000000000256 .L0 
C:\Users\stapi\AppData\Local\Temp\ccEJMvgv.s:940    .text.tls_process_ocsp_response:0000000000000268 .L0 
C:\Users\stapi\AppData\Local\Temp\ccEJMvgv.s:947    .text.tls_process_ocsp_response:000000000000027c .L0 
C:\Users\stapi\AppData\Local\Temp\ccEJMvgv.s:948    .text.tls_process_ocsp_response:000000000000027c .L0 
C:\Users\stapi\AppData\Local\Temp\ccEJMvgv.s:954    .text.tls_process_ocsp_response:0000000000000280 .L0 
C:\Users\stapi\AppData\Local\Temp\ccEJMvgv.s:955    .text.tls_process_ocsp_response:0000000000000280 .L0 
C:\Users\stapi\AppData\Local\Temp\ccEJMvgv.s:956    .text.tls_process_ocsp_response:0000000000000280 .L0 
C:\Users\stapi\AppData\Local\Temp\ccEJMvgv.s:957    .text.tls_process_ocsp_response:0000000000000280 .L0 
C:\Users\stapi\AppData\Local\Temp\ccEJMvgv.s:958    .text.tls_process_ocsp_response:0000000000000280 .L0 
C:\Users\stapi\AppData\Local\Temp\ccEJMvgv.s:959    .text.tls_process_ocsp_response:0000000000000280 .L0 
C:\Users\stapi\AppData\Local\Temp\ccEJMvgv.s:960    .text.tls_process_ocsp_response:0000000000000280 .L0 
C:\Users\stapi\AppData\Local\Temp\ccEJMvgv.s:961    .text.tls_process_ocsp_response:0000000000000280 .L0 
C:\Users\stapi\AppData\Local\Temp\ccEJMvgv.s:962    .text.tls_process_ocsp_response:0000000000000280 .L0 
C:\Users\stapi\AppData\Local\Temp\ccEJMvgv.s:963    .text.tls_process_ocsp_response:0000000000000280 .L0 
C:\Users\stapi\AppData\Local\Temp\ccEJMvgv.s:964    .text.tls_process_ocsp_response:0000000000000280 .L0 
C:\Users\stapi\AppData\Local\Temp\ccEJMvgv.s:965    .text.tls_process_ocsp_response:0000000000000280 .L0 
C:\Users\stapi\AppData\Local\Temp\ccEJMvgv.s:966    .text.tls_process_ocsp_response:0000000000000280 .L0 
C:\Users\stapi\AppData\Local\Temp\ccEJMvgv.s:967    .text.tls_process_ocsp_response:0000000000000280 .L0 
C:\Users\stapi\AppData\Local\Temp\ccEJMvgv.s:975    .text.tls_process_ocsp_response:0000000000000296 .L0 
C:\Users\stapi\AppData\Local\Temp\ccEJMvgv.s:981    .text.tls_process_ocsp_response:00000000000002a6 .L0 
C:\Users\stapi\AppData\Local\Temp\ccEJMvgv.s:982    .text.tls_process_ocsp_response:00000000000002a6 .L0 
C:\Users\stapi\AppData\Local\Temp\ccEJMvgv.s:988    .text.tls_process_ocsp_response:00000000000002b4 .L0 
C:\Users\stapi\AppData\Local\Temp\ccEJMvgv.s:990    .text.tls_process_ocsp_response:00000000000002b8 .L0 
C:\Users\stapi\AppData\Local\Temp\ccEJMvgv.s:994    .text.tls_process_ocsp_response:00000000000002c2 .L0 
C:\Users\stapi\AppData\Local\Temp\ccEJMvgv.s:997    .text.tls_process_ocsp_response:00000000000002c4 .L0 
C:\Users\stapi\AppData\Local\Temp\ccEJMvgv.s:1002   .text.tls_process_ocsp_response:00000000000002cc .L0 
C:\Users\stapi\AppData\Local\Temp\ccEJMvgv.s:1009   .text.tls_process_ocsp_response:00000000000002d6 .L0 
C:\Users\stapi\AppData\Local\Temp\ccEJMvgv.s:1010   .text.tls_process_ocsp_response:00000000000002d6 .L0 
C:\Users\stapi\AppData\Local\Temp\ccEJMvgv.s:1011   .text.tls_process_ocsp_response:00000000000002d6 .L0 
C:\Users\stapi\AppData\Local\Temp\ccEJMvgv.s:1016   .text.tls_process_ocsp_response:00000000000002dc .L0 
C:\Users\stapi\AppData\Local\Temp\ccEJMvgv.s:1017   .text.tls_process_ocsp_response:00000000000002dc .L0 
C:\Users\stapi\AppData\Local\Temp\ccEJMvgv.s:1020   .text.tls_process_ocsp_response:00000000000002de .L0 
C:\Users\stapi\AppData\Local\Temp\ccEJMvgv.s:1023   .text.tls_process_ocsp_response:00000000000002e0 .L0 
C:\Users\stapi\AppData\Local\Temp\ccEJMvgv.s:1027   .text.tls_process_ocsp_response:00000000000002e6 .L0 
C:\Users\stapi\AppData\Local\Temp\ccEJMvgv.s:1030   .text.tls_process_ocsp_response:00000000000002e8 .L0 
C:\Users\stapi\AppData\Local\Temp\ccEJMvgv.s:1031   .text.tls_process_ocsp_response:00000000000002e8 .L0 
C:\Users\stapi\AppData\Local\Temp\ccEJMvgv.s:1032   .text.tls_process_ocsp_response:00000000000002e8 .L0 
C:\Users\stapi\AppData\Local\Temp\ccEJMvgv.s:1035   .text.tls_process_ocsp_response:00000000000002f0 .L0 
C:\Users\stapi\AppData\Local\Temp\ccEJMvgv.s:1037   .text.tls_process_ocsp_response:00000000000002f4 .L0 
C:\Users\stapi\AppData\Local\Temp\ccEJMvgv.s:1041   .text.tls_process_ocsp_response:00000000000002fe .L0 
C:\Users\stapi\AppData\Local\Temp\ccEJMvgv.s:1044   .text.tls_process_ocsp_response:0000000000000300 .L0 
C:\Users\stapi\AppData\Local\Temp\ccEJMvgv.s:1049   .text.tls_process_ocsp_response:000000000000030a .L0 
C:\Users\stapi\AppData\Local\Temp\ccEJMvgv.s:1051   .text.tls_process_ocsp_response:000000000000030c .L0 
C:\Users\stapi\AppData\Local\Temp\ccEJMvgv.s:1053   .text.tls_process_ocsp_response:000000000000030e .L0 
C:\Users\stapi\AppData\Local\Temp\ccEJMvgv.s:1055   .text.tls_process_ocsp_response:0000000000000310 .L0 
C:\Users\stapi\AppData\Local\Temp\ccEJMvgv.s:1058   .text.tls_process_ocsp_response:0000000000000312 .L0 
C:\Users\stapi\AppData\Local\Temp\ccEJMvgv.s:1059   .text.tls_process_ocsp_response:0000000000000312 .L0 
C:\Users\stapi\AppData\Local\Temp\ccEJMvgv.s:1060   .text.tls_process_ocsp_response:0000000000000312 .L0 
C:\Users\stapi\AppData\Local\Temp\ccEJMvgv.s:1061   .text.tls_process_ocsp_response:0000000000000312 .L0 
C:\Users\stapi\AppData\Local\Temp\ccEJMvgv.s:1063   .text.tls_process_ocsp_response:0000000000000316 .L0 
C:\Users\stapi\AppData\Local\Temp\ccEJMvgv.s:1068   .text.tls_process_ocsp_response:0000000000000320 .L0 
C:\Users\stapi\AppData\Local\Temp\ccEJMvgv.s:1071   .text.tls_process_ocsp_response:0000000000000322 .L0 
C:\Users\stapi\AppData\Local\Temp\ccEJMvgv.s:1072   .text.tls_process_ocsp_response:0000000000000322 .L0 
C:\Users\stapi\AppData\Local\Temp\ccEJMvgv.s:1075   .text.tls_process_ocsp_response:0000000000000324 .L0 
C:\Users\stapi\AppData\Local\Temp\ccEJMvgv.s:1076   .text.tls_process_ocsp_response:0000000000000324 .L0 
C:\Users\stapi\AppData\Local\Temp\ccEJMvgv.s:1077   .text.tls_process_ocsp_response:0000000000000324 .L0 
C:\Users\stapi\AppData\Local\Temp\ccEJMvgv.s:1080   .text.tls_process_ocsp_response:000000000000032c .L0 
C:\Users\stapi\AppData\Local\Temp\ccEJMvgv.s:1082   .text.tls_process_ocsp_response:000000000000032e .L0 
C:\Users\stapi\AppData\Local\Temp\ccEJMvgv.s:1083   .text.tls_process_ocsp_response:000000000000032e .L0 
C:\Users\stapi\AppData\Local\Temp\ccEJMvgv.s:1089   .text.tls_process_ocsp_response:000000000000033e .L0 
C:\Users\stapi\AppData\Local\Temp\ccEJMvgv.s:1094   .text.tls_process_ocsp_response:0000000000000342 .L0 
C:\Users\stapi\AppData\Local\Temp\ccEJMvgv.s:1095   .text.tls_process_ocsp_response:0000000000000342 .L0 
C:\Users\stapi\AppData\Local\Temp\ccEJMvgv.s:1098   .text.tls_process_ocsp_response:0000000000000348 .L0 
C:\Users\stapi\AppData\Local\Temp\ccEJMvgv.s:1101   .text.tls_process_ocsp_response:000000000000034c .L0 
C:\Users\stapi\AppData\Local\Temp\ccEJMvgv.s:1108   .text.tls_process_ocsp_response:0000000000000354 .L0 
C:\Users\stapi\AppData\Local\Temp\ccEJMvgv.s:1109   .text.tls_process_ocsp_response:0000000000000354 .L0 
C:\Users\stapi\AppData\Local\Temp\ccEJMvgv.s:1111   .text.tls_process_ocsp_response:0000000000000356 .L0 
C:\Users\stapi\AppData\Local\Temp\ccEJMvgv.s:1113   .text.tls_process_ocsp_response:0000000000000358 .L0 
C:\Users\stapi\AppData\Local\Temp\ccEJMvgv.s:1114   .text.tls_process_ocsp_response:0000000000000358 .L0 
C:\Users\stapi\AppData\Local\Temp\ccEJMvgv.s:1116   .text.tls_process_ocsp_response:000000000000035a .L0 
C:\Users\stapi\AppData\Local\Temp\ccEJMvgv.s:1118   .text.tls_process_ocsp_response:000000000000035c .L0 
C:\Users\stapi\AppData\Local\Temp\ccEJMvgv.s:1119   .text.tls_process_ocsp_response:000000000000035c .L0 
C:\Users\stapi\AppData\Local\Temp\ccEJMvgv.s:1121   .text.tls_process_ocsp_response:0000000000000360 .L0 
C:\Users\stapi\AppData\Local\Temp\ccEJMvgv.s:1123   .text.tls_process_ocsp_response:0000000000000362 .L0 
C:\Users\stapi\AppData\Local\Temp\ccEJMvgv.s:1129   .text.tls_process_ocsp_response:0000000000000374 .L0 
C:\Users\stapi\AppData\Local\Temp\ccEJMvgv.s:1132   .text.tls_process_ocsp_response:0000000000000376 .L0 
C:\Users\stapi\AppData\Local\Temp\ccEJMvgv.s:1137   .text.tls_process_ocsp_response:0000000000000380 .L0 
C:\Users\stapi\AppData\Local\Temp\ccEJMvgv.s:1138   .text.tls_process_ocsp_response:0000000000000380 .L0 
C:\Users\stapi\AppData\Local\Temp\ccEJMvgv.s:1142   .text.tls_process_ocsp_response:0000000000000386 .L0 
C:\Users\stapi\AppData\Local\Temp\ccEJMvgv.s:1143   .text.tls_process_ocsp_response:0000000000000386 .L0 
C:\Users\stapi\AppData\Local\Temp\ccEJMvgv.s:1145   .text.tls_process_ocsp_response:0000000000000388 .L0 
C:\Users\stapi\AppData\Local\Temp\ccEJMvgv.s:1148   .text.tls_process_ocsp_response:000000000000038c .L0 
C:\Users\stapi\AppData\Local\Temp\ccEJMvgv.s:1149   .text.tls_process_ocsp_response:000000000000038c .L0 
C:\Users\stapi\AppData\Local\Temp\ccEJMvgv.s:1151   .text.tls_process_ocsp_response:0000000000000390 .L0 
C:\Users\stapi\AppData\Local\Temp\ccEJMvgv.s:1153   .text.tls_process_ocsp_response:0000000000000392 .L0 
C:\Users\stapi\AppData\Local\Temp\ccEJMvgv.s:1158   .text.tls_process_ocsp_response:000000000000039a .L0 
C:\Users\stapi\AppData\Local\Temp\ccEJMvgv.s:1160   .text.tls_process_ocsp_response:000000000000039c .L0 
C:\Users\stapi\AppData\Local\Temp\ccEJMvgv.s:1163   .text.tls_process_ocsp_response:00000000000003a4 .L0 
C:\Users\stapi\AppData\Local\Temp\ccEJMvgv.s:1164   .text.tls_process_ocsp_response:00000000000003a4 .L0 
C:\Users\stapi\AppData\Local\Temp\ccEJMvgv.s:1166   .text.tls_process_ocsp_response:00000000000003a6 .L0 
C:\Users\stapi\AppData\Local\Temp\ccEJMvgv.s:1168   .text.tls_process_ocsp_response:00000000000003aa .L0 
C:\Users\stapi\AppData\Local\Temp\ccEJMvgv.s:1169   .text.tls_process_ocsp_response:00000000000003aa .L0 
C:\Users\stapi\AppData\Local\Temp\ccEJMvgv.s:1174   .text.tls_process_ocsp_response:00000000000003b8 .L0 
C:\Users\stapi\AppData\Local\Temp\ccEJMvgv.s:1176   .text.tls_process_ocsp_response:00000000000003bc .L0 
C:\Users\stapi\AppData\Local\Temp\ccEJMvgv.s:1182   .text.tls_process_ocsp_response:00000000000003c2 .L0 
C:\Users\stapi\AppData\Local\Temp\ccEJMvgv.s:1183   .text.tls_process_ocsp_response:00000000000003c2 .L0 
C:\Users\stapi\AppData\Local\Temp\ccEJMvgv.s:1192   .text.tls_process_ocsp_response:00000000000003d0 .L0 
C:\Users\stapi\AppData\Local\Temp\ccEJMvgv.s:1200   .text.tls_process_ocsp_response:00000000000003e6 .L0 
C:\Users\stapi\AppData\Local\Temp\ccEJMvgv.s:1201   .text.tls_process_ocsp_response:00000000000003e6 .L0 
C:\Users\stapi\AppData\Local\Temp\ccEJMvgv.s:1203   .text.tls_process_ocsp_response:00000000000003e8 .L0 
C:\Users\stapi\AppData\Local\Temp\ccEJMvgv.s:1205   .text.tls_process_ocsp_response:00000000000003ea .L0 
C:\Users\stapi\AppData\Local\Temp\ccEJMvgv.s:1207   .text.tls_process_ocsp_response:00000000000003ec .L0 
C:\Users\stapi\AppData\Local\Temp\ccEJMvgv.s:1209   .text.tls_process_ocsp_response:00000000000003ee .L0 
C:\Users\stapi\AppData\Local\Temp\ccEJMvgv.s:1210   .text.tls_process_ocsp_response:00000000000003ee .L0 
C:\Users\stapi\AppData\Local\Temp\ccEJMvgv.s:1213   .text.tls_process_ocsp_response:00000000000003f2 .L0 
C:\Users\stapi\AppData\Local\Temp\ccEJMvgv.s:1214   .text.tls_process_ocsp_response:00000000000003f2 .L0 
C:\Users\stapi\AppData\Local\Temp\ccEJMvgv.s:1218   .text.tls_process_ocsp_response:00000000000003f4 .L0 
C:\Users\stapi\AppData\Local\Temp\ccEJMvgv.s:1219   .text.tls_process_ocsp_response:00000000000003f4 .L0 
C:\Users\stapi\AppData\Local\Temp\ccEJMvgv.s:1221   .text.tls_process_ocsp_response:00000000000003f6 .L0 
C:\Users\stapi\AppData\Local\Temp\ccEJMvgv.s:1225   .text.tls_process_ocsp_response:00000000000003fa .L0 
C:\Users\stapi\AppData\Local\Temp\ccEJMvgv.s:1226   .text.tls_process_ocsp_response:00000000000003fa .L0 
C:\Users\stapi\AppData\Local\Temp\ccEJMvgv.s:1232   .text.tls_process_ocsp_response:0000000000000408 .L0 
C:\Users\stapi\AppData\Local\Temp\ccEJMvgv.s:1235   .text.tls_process_ocsp_response:000000000000040a .L0 
C:\Users\stapi\AppData\Local\Temp\ccEJMvgv.s:1236   .text.tls_process_ocsp_response:000000000000040a .L0 
C:\Users\stapi\AppData\Local\Temp\ccEJMvgv.s:1239   .text.tls_process_ocsp_response:0000000000000412 .L0 
C:\Users\stapi\AppData\Local\Temp\ccEJMvgv.s:1240   .text.tls_process_ocsp_response:0000000000000412 .L0 
C:\Users\stapi\AppData\Local\Temp\ccEJMvgv.s:1246   .text.tls_process_ocsp_response:0000000000000422 .L0 
C:\Users\stapi\AppData\Local\Temp\ccEJMvgv.s:1252   .text.tls_process_ocsp_response:000000000000042a .L0 
C:\Users\stapi\AppData\Local\Temp\ccEJMvgv.s:1253   .text.tls_process_ocsp_response:000000000000042a .L0 
C:\Users\stapi\AppData\Local\Temp\ccEJMvgv.s:1264   .text.tls_process_ocsp_response:000000000000043c .L0 
C:\Users\stapi\AppData\Local\Temp\ccEJMvgv.s:1265   .text.tls_process_ocsp_response:000000000000043c .L0 
C:\Users\stapi\AppData\Local\Temp\ccEJMvgv.s:1271   .text.tls_process_ocsp_response:000000000000044c .L0 
C:\Users\stapi\AppData\Local\Temp\ccEJMvgv.s:1276   .text.tls_process_ocsp_response:0000000000000450 .L0 
C:\Users\stapi\AppData\Local\Temp\ccEJMvgv.s:1277   .text.tls_process_ocsp_response:0000000000000450 .L0 
C:\Users\stapi\AppData\Local\Temp\ccEJMvgv.s:1285   .text.tls_process_ocsp_response:000000000000045c .L0 
C:\Users\stapi\AppData\Local\Temp\ccEJMvgv.s:1290   .text.tls_process_ocsp_response:0000000000000464 .L0 
C:\Users\stapi\AppData\Local\Temp\ccEJMvgv.s:1296   .text.tls_process_ocsp_response:000000000000046e .L0 
C:\Users\stapi\AppData\Local\Temp\ccEJMvgv.s:1303   .text.tls_process_ocsp_response:0000000000000478 .L0 
C:\Users\stapi\AppData\Local\Temp\ccEJMvgv.s:1304   .text.tls_process_ocsp_response:0000000000000478 .L0 
C:\Users\stapi\AppData\Local\Temp\ccEJMvgv.s:1305   .text.tls_process_ocsp_response:0000000000000478 .L0 
C:\Users\stapi\AppData\Local\Temp\ccEJMvgv.s:1310   .text.tls_process_ocsp_response:0000000000000486 .L0 
C:\Users\stapi\AppData\Local\Temp\ccEJMvgv.s:1312   .text.tls_process_ocsp_response:000000000000048a .L0 
C:\Users\stapi\AppData\Local\Temp\ccEJMvgv.s:1316   .text.tls_process_ocsp_response:0000000000000494 .L0 
C:\Users\stapi\AppData\Local\Temp\ccEJMvgv.s:1319   .text.tls_process_ocsp_response:0000000000000496 .L0 
C:\Users\stapi\AppData\Local\Temp\ccEJMvgv.s:1325   .text.tls_process_ocsp_response:000000000000049e .L0 
C:\Users\stapi\AppData\Local\Temp\ccEJMvgv.s:1330   .text.tls_process_ocsp_response:00000000000004a8 .L0 
C:\Users\stapi\AppData\Local\Temp\ccEJMvgv.s:1331   .text.tls_process_ocsp_response:00000000000004a8 .L0 
C:\Users\stapi\AppData\Local\Temp\ccEJMvgv.s:1335   .text.tls_process_ocsp_response:00000000000004b2 .L0 
C:\Users\stapi\AppData\Local\Temp\ccEJMvgv.s:1343   .text.tls_process_ocsp_response:00000000000004be .L0 
C:\Users\stapi\AppData\Local\Temp\ccEJMvgv.s:1344   .text.tls_process_ocsp_response:00000000000004be .L0 
C:\Users\stapi\AppData\Local\Temp\ccEJMvgv.s:1349   .text.tls_process_ocsp_response:00000000000004ca .L0 
C:\Users\stapi\AppData\Local\Temp\ccEJMvgv.s:1350   .text.tls_process_ocsp_response:00000000000004ca .L0 
C:\Users\stapi\AppData\Local\Temp\ccEJMvgv.s:1352   .text.tls_process_ocsp_response:00000000000004cc .L0 
C:\Users\stapi\AppData\Local\Temp\ccEJMvgv.s:1353   .text.tls_process_ocsp_response:00000000000004cc .L0 
C:\Users\stapi\AppData\Local\Temp\ccEJMvgv.s:1355   .text.tls_process_ocsp_response:00000000000004d0 .L0 
C:\Users\stapi\AppData\Local\Temp\ccEJMvgv.s:1356   .text.tls_process_ocsp_response:00000000000004d0 .L0 
C:\Users\stapi\AppData\Local\Temp\ccEJMvgv.s:1360   .text.tls_process_ocsp_response:00000000000004d4 .L0 
C:\Users\stapi\AppData\Local\Temp\ccEJMvgv.s:1361   .text.tls_process_ocsp_response:00000000000004d4 .L0 
C:\Users\stapi\AppData\Local\Temp\ccEJMvgv.s:1362   .text.tls_process_ocsp_response:00000000000004d4 .L0 
C:\Users\stapi\AppData\Local\Temp\ccEJMvgv.s:1365   .text.tls_process_ocsp_response:00000000000004d8 .L0 
C:\Users\stapi\AppData\Local\Temp\ccEJMvgv.s:1367   .text.tls_process_ocsp_response:00000000000004da .L0 
C:\Users\stapi\AppData\Local\Temp\ccEJMvgv.s:1369   .text.tls_process_ocsp_response:00000000000004dc .L0 
C:\Users\stapi\AppData\Local\Temp\ccEJMvgv.s:1380   .text.tls_process_ocsp_response:00000000000004e4 .L0 
C:\Users\stapi\AppData\Local\Temp\ccEJMvgv.s:1385   .text.tls_process_ocsp_response:00000000000004e8 .L0 
C:\Users\stapi\AppData\Local\Temp\ccEJMvgv.s:1393   .text.tls_process_ocsp_response:0000000000000500 .L0 
C:\Users\stapi\AppData\Local\Temp\ccEJMvgv.s:1394   .text.tls_process_ocsp_response:0000000000000500 .L0 
C:\Users\stapi\AppData\Local\Temp\ccEJMvgv.s:1396   .text.tls_process_ocsp_response:0000000000000502 .L0 
C:\Users\stapi\AppData\Local\Temp\ccEJMvgv.s:1398   .text.tls_process_ocsp_response:0000000000000506 .L0 
C:\Users\stapi\AppData\Local\Temp\ccEJMvgv.s:1400   .text.tls_process_ocsp_response:0000000000000508 .L0 
C:\Users\stapi\AppData\Local\Temp\ccEJMvgv.s:1407   .text.tls_process_ocsp_response:000000000000051a .L0 
C:\Users\stapi\AppData\Local\Temp\ccEJMvgv.s:1408   .text.tls_process_ocsp_response:000000000000051a .L0 
C:\Users\stapi\AppData\Local\Temp\ccEJMvgv.s:1412   .text.tls_process_ocsp_response:0000000000000524 .L0 
C:\Users\stapi\AppData\Local\Temp\ccEJMvgv.s:1416   .text.tls_process_ocsp_response:000000000000052e .L0 
C:\Users\stapi\AppData\Local\Temp\ccEJMvgv.s:1417   .text.tls_process_ocsp_response:000000000000052e .L0 
C:\Users\stapi\AppData\Local\Temp\ccEJMvgv.s:1421   .text.tls_process_ocsp_response:0000000000000530 .L0 
C:\Users\stapi\AppData\Local\Temp\ccEJMvgv.s:1422   .text.tls_process_ocsp_response:0000000000000530 .L0 
C:\Users\stapi\AppData\Local\Temp\ccEJMvgv.s:1425   .text.tls_process_ocsp_response:0000000000000534 .L0 
C:\Users\stapi\AppData\Local\Temp\ccEJMvgv.s:1428   .text.tls_process_ocsp_response:0000000000000536 .L0 
C:\Users\stapi\AppData\Local\Temp\ccEJMvgv.s:1429   .text.tls_process_ocsp_response:0000000000000536 .L0 
C:\Users\stapi\AppData\Local\Temp\ccEJMvgv.s:1435   .text.tls_process_ocsp_response:0000000000000546 .L0 
C:\Users\stapi\AppData\Local\Temp\ccEJMvgv.s:1437   .text.tls_process_ocsp_response:000000000000054a .L0 
C:\Users\stapi\AppData\Local\Temp\ccEJMvgv.s:1442   .text.tls_process_ocsp_response:0000000000000554 .L0 
C:\Users\stapi\AppData\Local\Temp\ccEJMvgv.s:1447   .text.tls_process_ocsp_response:000000000000055e .L0 
C:\Users\stapi\AppData\Local\Temp\ccEJMvgv.s:1455   .text.tls_process_ocsp_response:0000000000000572 .L0 
C:\Users\stapi\AppData\Local\Temp\ccEJMvgv.s:1456   .text.tls_process_ocsp_response:0000000000000572 .L0 
C:\Users\stapi\AppData\Local\Temp\ccEJMvgv.s:1458   .text.tls_process_ocsp_response:0000000000000574 .L0 
C:\Users\stapi\AppData\Local\Temp\ccEJMvgv.s:1461   .text.tls_process_ocsp_response:000000000000057a .L0 
C:\Users\stapi\AppData\Local\Temp\ccEJMvgv.s:1462   .text.tls_process_ocsp_response:000000000000057a .L0 
C:\Users\stapi\AppData\Local\Temp\ccEJMvgv.s:1469   .text.tls_process_ocsp_response:000000000000058a .L0 
C:\Users\stapi\AppData\Local\Temp\ccEJMvgv.s:1471   .text.tls_process_ocsp_response:000000000000058e .L0 
C:\Users\stapi\AppData\Local\Temp\ccEJMvgv.s:1477   .text.tls_process_ocsp_response:000000000000059e .L0 
C:\Users\stapi\AppData\Local\Temp\ccEJMvgv.s:1484   .text.tls_process_ocsp_response:00000000000005b2 .L0 
C:\Users\stapi\AppData\Local\Temp\ccEJMvgv.s:1488   .text.tls_process_ocsp_response:00000000000005b4 .L0 
C:\Users\stapi\AppData\Local\Temp\ccEJMvgv.s:1489   .text.tls_process_ocsp_response:00000000000005b4 .L0 
C:\Users\stapi\AppData\Local\Temp\ccEJMvgv.s:1495   .text.tls_process_ocsp_response:00000000000005c4 .L0 
C:\Users\stapi\AppData\Local\Temp\ccEJMvgv.s:1498   .text.tls_process_ocsp_response:00000000000005c8 .L0 
C:\Users\stapi\AppData\Local\Temp\ccEJMvgv.s:1504   .text.tls_process_ocsp_response:00000000000005da .L0 
C:\Users\stapi\AppData\Local\Temp\ccEJMvgv.s:1508   .text.tls_process_ocsp_response:00000000000005dc .L0 
C:\Users\stapi\AppData\Local\Temp\ccEJMvgv.s:1509   .text.tls_process_ocsp_response:00000000000005dc .L0 
C:\Users\stapi\AppData\Local\Temp\ccEJMvgv.s:1511   .text.tls_process_ocsp_response:00000000000005e0 .L0 
C:\Users\stapi\AppData\Local\Temp\ccEJMvgv.s:1512   .text.tls_process_ocsp_response:00000000000005e0 .L0 
C:\Users\stapi\AppData\Local\Temp\ccEJMvgv.s:1518   .text.tls_process_ocsp_response:00000000000005ee .L0 
C:\Users\stapi\AppData\Local\Temp\ccEJMvgv.s:1523   .text.tls_process_ocsp_response:00000000000005f2 .L0 
C:\Users\stapi\AppData\Local\Temp\ccEJMvgv.s:1524   .text.tls_process_ocsp_response:00000000000005f2 .L0 
C:\Users\stapi\AppData\Local\Temp\ccEJMvgv.s:1533   .text.tls_process_ocsp_response:0000000000000600 .L0 
C:\Users\stapi\AppData\Local\Temp\ccEJMvgv.s:1534   .text.tls_process_ocsp_response:0000000000000600 .L0 
C:\Users\stapi\AppData\Local\Temp\ccEJMvgv.s:1537   .text.tls_process_ocsp_response:0000000000000602 .L0 
C:\Users\stapi\AppData\Local\Temp\ccEJMvgv.s:1545   .text.tls_process_ocsp_response:0000000000000618 .L0 
C:\Users\stapi\AppData\Local\Temp\ccEJMvgv.s:1546   .text.tls_process_ocsp_response:0000000000000618 .L0 
C:\Users\stapi\AppData\Local\Temp\ccEJMvgv.s:1548   .text.tls_process_ocsp_response:000000000000061a .L0 
C:\Users\stapi\AppData\Local\Temp\ccEJMvgv.s:1551   .text.tls_process_ocsp_response:0000000000000620 .L0 
C:\Users\stapi\AppData\Local\Temp\ccEJMvgv.s:1558   .text.tls_process_ocsp_response:0000000000000634 .L0 
C:\Users\stapi\AppData\Local\Temp\ccEJMvgv.s:1562   .text.tls_process_ocsp_response:0000000000000636 .L0 
C:\Users\stapi\AppData\Local\Temp\ccEJMvgv.s:1568   .text.tls_process_ocsp_response:0000000000000640 .L0 
C:\Users\stapi\AppData\Local\Temp\ccEJMvgv.s:1569   .text.tls_process_ocsp_response:0000000000000640 .L0 
C:\Users\stapi\AppData\Local\Temp\ccEJMvgv.s:1572   .text.tls_process_ocsp_response:0000000000000644 .L0 
C:\Users\stapi\AppData\Local\Temp\ccEJMvgv.s:1577   .text.tls_process_ocsp_response:0000000000000648 .L0 
C:\Users\stapi\AppData\Local\Temp\ccEJMvgv.s:1583   .text.tls_process_ocsp_response:000000000000065a .L0 
C:\Users\stapi\AppData\Local\Temp\ccEJMvgv.s:1589   .text.tls_process_ocsp_response:000000000000065c .L0 
C:\Users\stapi\AppData\Local\Temp\ccEJMvgv.s:1590   .text.tls_process_ocsp_response:000000000000065c .L0 
C:\Users\stapi\AppData\Local\Temp\ccEJMvgv.s:1599   .text.tls_process_ocsp_response:000000000000066a .L0 
C:\Users\stapi\AppData\Local\Temp\ccEJMvgv.s:1606   .text.tls_process_ocsp_response:000000000000067a .L0 
C:\Users\stapi\AppData\Local\Temp\ccEJMvgv.s:1608   .text.tls_process_ocsp_response:000000000000067e .L0 
C:\Users\stapi\AppData\Local\Temp\ccEJMvgv.s:1615   .text.tls_process_ocsp_response:0000000000000692 .L0 
C:\Users\stapi\AppData\Local\Temp\ccEJMvgv.s:1616   .text.tls_process_ocsp_response:0000000000000692 .L0 
C:\Users\stapi\AppData\Local\Temp\ccEJMvgv.s:1619   .text.tls_process_ocsp_response:0000000000000696 .L0 
C:\Users\stapi\AppData\Local\Temp\ccEJMvgv.s:1621   .text.tls_process_ocsp_response:0000000000000698 .L0 
C:\Users\stapi\AppData\Local\Temp\ccEJMvgv.s:1623   .text.tls_process_ocsp_response:000000000000069a .L0 
C:\Users\stapi\AppData\Local\Temp\ccEJMvgv.s:1625   .text.tls_process_ocsp_response:000000000000069e .L0 
C:\Users\stapi\AppData\Local\Temp\ccEJMvgv.s:1627   .text.tls_process_ocsp_response:00000000000006a0 .L0 
C:\Users\stapi\AppData\Local\Temp\ccEJMvgv.s:1628   .text.tls_process_ocsp_response:00000000000006a0 .L0 
C:\Users\stapi\AppData\Local\Temp\ccEJMvgv.s:1631   .text.tls_process_ocsp_response:00000000000006a8 .L0 
C:\Users\stapi\AppData\Local\Temp\ccEJMvgv.s:1633   .text.tls_process_ocsp_response:00000000000006ac .L0 
C:\Users\stapi\AppData\Local\Temp\ccEJMvgv.s:1637   .text.tls_process_ocsp_response:00000000000006b6 .L0 
C:\Users\stapi\AppData\Local\Temp\ccEJMvgv.s:1640   .text.tls_process_ocsp_response:00000000000006b8 .L0 
C:\Users\stapi\AppData\Local\Temp\ccEJMvgv.s:1645   .text.tls_process_ocsp_response:00000000000006c2 .L0 
C:\Users\stapi\AppData\Local\Temp\ccEJMvgv.s:1646   .text.tls_process_ocsp_response:00000000000006c2 .L0 
C:\Users\stapi\AppData\Local\Temp\ccEJMvgv.s:1648   .text.tls_process_ocsp_response:00000000000006c4 .L0 
C:\Users\stapi\AppData\Local\Temp\ccEJMvgv.s:1651   .text.tls_process_ocsp_response:00000000000006c6 .L0 
C:\Users\stapi\AppData\Local\Temp\ccEJMvgv.s:1652   .text.tls_process_ocsp_response:00000000000006c6 .L0 
C:\Users\stapi\AppData\Local\Temp\ccEJMvgv.s:1658   .text.tls_process_ocsp_response:00000000000006d4 .L0 
C:\Users\stapi\AppData\Local\Temp\ccEJMvgv.s:1661   .text.tls_process_ocsp_response:00000000000006d6 .L0 
C:\Users\stapi\AppData\Local\Temp\ccEJMvgv.s:1664   .text.tls_process_ocsp_response:00000000000006de .L0 
C:\Users\stapi\AppData\Local\Temp\ccEJMvgv.s:1665   .text.tls_process_ocsp_response:00000000000006de .L0 
C:\Users\stapi\AppData\Local\Temp\ccEJMvgv.s:1669   .text.tls_process_ocsp_response:00000000000006e4 .L0 
C:\Users\stapi\AppData\Local\Temp\ccEJMvgv.s:1671   .text.tls_process_ocsp_response:00000000000006e6 .L0 
C:\Users\stapi\AppData\Local\Temp\ccEJMvgv.s:1672   .text.tls_process_ocsp_response:00000000000006e6 .L0 
C:\Users\stapi\AppData\Local\Temp\ccEJMvgv.s:1674   .text.tls_process_ocsp_response:00000000000006ea .L0 
C:\Users\stapi\AppData\Local\Temp\ccEJMvgv.s:1682   .text.tls_process_ocsp_response:0000000000000700 .L0 
C:\Users\stapi\AppData\Local\Temp\ccEJMvgv.s:1683   .text.tls_process_ocsp_response:0000000000000700 .L0 
C:\Users\stapi\AppData\Local\Temp\ccEJMvgv.s:1684   .text.tls_process_ocsp_response:0000000000000700 .L0 
C:\Users\stapi\AppData\Local\Temp\ccEJMvgv.s:1686   .text.tls_process_ocsp_response:0000000000000704 .L0 
C:\Users\stapi\AppData\Local\Temp\ccEJMvgv.s:1688   .text.tls_process_ocsp_response:0000000000000708 .L0 
C:\Users\stapi\AppData\Local\Temp\ccEJMvgv.s:1689   .text.tls_process_ocsp_response:0000000000000708 .L0 
C:\Users\stapi\AppData\Local\Temp\ccEJMvgv.s:1691   .text.tls_process_ocsp_response:000000000000070c .L0 
C:\Users\stapi\AppData\Local\Temp\ccEJMvgv.s:1695   .text.tls_process_ocsp_response:000000000000070e .L0 
C:\Users\stapi\AppData\Local\Temp\ccEJMvgv.s:1696   .text.tls_process_ocsp_response:000000000000070e .L0 
C:\Users\stapi\AppData\Local\Temp\ccEJMvgv.s:1701   .text.tls_process_ocsp_response:0000000000000716 .L0 
C:\Users\stapi\AppData\Local\Temp\ccEJMvgv.s:1705   .text.tls_process_ocsp_response:0000000000000720 .L0 
C:\Users\stapi\AppData\Local\Temp\ccEJMvgv.s:1708   .text.tls_process_ocsp_response:0000000000000722 .L0 
C:\Users\stapi\AppData\Local\Temp\ccEJMvgv.s:1710   .text.tls_process_ocsp_response:0000000000000726 .L0 
C:\Users\stapi\AppData\Local\Temp\ccEJMvgv.s:1714   .text.tls_process_ocsp_response:000000000000072a .L0 
C:\Users\stapi\AppData\Local\Temp\ccEJMvgv.s:1715   .text.tls_process_ocsp_response:000000000000072a .L0 
C:\Users\stapi\AppData\Local\Temp\ccEJMvgv.s:1717   .text.tls_process_ocsp_response:000000000000072e .L0 
C:\Users\stapi\AppData\Local\Temp\ccEJMvgv.s:1718   .text.tls_process_ocsp_response:000000000000072e .L0 
C:\Users\stapi\AppData\Local\Temp\ccEJMvgv.s:1723   .text.tls_process_ocsp_response:000000000000073c .L0 
C:\Users\stapi\AppData\Local\Temp\ccEJMvgv.s:1725   .text.tls_process_ocsp_response:0000000000000740 .L0 
C:\Users\stapi\AppData\Local\Temp\ccEJMvgv.s:1726   .text.tls_process_ocsp_response:0000000000000740 .L0 
C:\Users\stapi\AppData\Local\Temp\ccEJMvgv.s:1731   .text.tls_process_ocsp_response:0000000000000746 .L0 
C:\Users\stapi\AppData\Local\Temp\ccEJMvgv.s:1737   .text.tls_process_ocsp_response:0000000000000758 .L0 
C:\Users\stapi\AppData\Local\Temp\ccEJMvgv.s:1741   .text.tls_process_ocsp_response:000000000000075a .L0 
C:\Users\stapi\AppData\Local\Temp\ccEJMvgv.s:1745   .text.tls_process_ocsp_response:0000000000000764 .L0 
C:\Users\stapi\AppData\Local\Temp\ccEJMvgv.s:1751   .text.tls_process_ocsp_response:0000000000000774 .L0 
C:\Users\stapi\AppData\Local\Temp\ccEJMvgv.s:1755   .text.tls_process_ocsp_response:000000000000077e .L0 
C:\Users\stapi\AppData\Local\Temp\ccEJMvgv.s:1756   .text.tls_process_ocsp_response:000000000000077e .L0 
C:\Users\stapi\AppData\Local\Temp\ccEJMvgv.s:1757   .text.tls_process_ocsp_response:000000000000077e .L0 
C:\Users\stapi\AppData\Local\Temp\ccEJMvgv.s:1769   .text.tls_process_ocsp_response:0000000000000796 .L0 
C:\Users\stapi\AppData\Local\Temp\ccEJMvgv.s:1775   .text.tls_process_ocsp_response:000000000000079c .L0 
C:\Users\stapi\AppData\Local\Temp\ccEJMvgv.s:1781   .text.tls_process_ocsp_response:00000000000007a0 .L0 
C:\Users\stapi\AppData\Local\Temp\ccEJMvgv.s:1787   .text.tls_process_ocsp_response:00000000000007a4 .L0 
C:\Users\stapi\AppData\Local\Temp\ccEJMvgv.s:1789   .text.tls_process_ocsp_response:00000000000007a8 .L0 
C:\Users\stapi\AppData\Local\Temp\ccEJMvgv.s:1797   .text.tls_process_ocsp_response:00000000000007ba .L0 
C:\Users\stapi\AppData\Local\Temp\ccEJMvgv.s:1798   .text.tls_process_ocsp_response:00000000000007ba .L0 
C:\Users\stapi\AppData\Local\Temp\ccEJMvgv.s:1802   .text.tls_process_ocsp_response:00000000000007bc .L0 
C:\Users\stapi\AppData\Local\Temp\ccEJMvgv.s:1803   .text.tls_process_ocsp_response:00000000000007bc .L0 
C:\Users\stapi\AppData\Local\Temp\ccEJMvgv.s:1809   .text.tls_process_ocsp_response:00000000000007ca .L0 
C:\Users\stapi\AppData\Local\Temp\ccEJMvgv.s:1812   .text.tls_process_ocsp_response:00000000000007cc .L0 
C:\Users\stapi\AppData\Local\Temp\ccEJMvgv.s:1813   .text.tls_process_ocsp_response:00000000000007cc .L0 
C:\Users\stapi\AppData\Local\Temp\ccEJMvgv.s:1814   .text.tls_process_ocsp_response:00000000000007cc .L0 
C:\Users\stapi\AppData\Local\Temp\ccEJMvgv.s:1818   .text.tls_process_ocsp_response:00000000000007d0 .L0 
C:\Users\stapi\AppData\Local\Temp\ccEJMvgv.s:1819   .text.tls_process_ocsp_response:00000000000007d0 .L0 
C:\Users\stapi\AppData\Local\Temp\ccEJMvgv.s:1821   .text.tls_process_ocsp_response:00000000000007d4 .L0 
C:\Users\stapi\AppData\Local\Temp\ccEJMvgv.s:1822   .text.tls_process_ocsp_response:00000000000007d4 .L0 
C:\Users\stapi\AppData\Local\Temp\ccEJMvgv.s:1827   .text.tls_process_ocsp_response:00000000000007de .L0 
C:\Users\stapi\AppData\Local\Temp\ccEJMvgv.s:1832   .text.tls_process_ocsp_response:00000000000007ea .L0 
C:\Users\stapi\AppData\Local\Temp\ccEJMvgv.s:1834   .text.tls_process_ocsp_response:00000000000007ec .L0 
C:\Users\stapi\AppData\Local\Temp\ccEJMvgv.s:1837   .text.tls_process_ocsp_response:00000000000007f2 .L0 
C:\Users\stapi\AppData\Local\Temp\ccEJMvgv.s:1839   .text.tls_process_ocsp_response:00000000000007f4 .L0 
C:\Users\stapi\AppData\Local\Temp\ccEJMvgv.s:1844   .text.tls_process_ocsp_response:0000000000000800 .L0 
C:\Users\stapi\AppData\Local\Temp\ccEJMvgv.s:1846   .text.tls_process_ocsp_response:0000000000000804 .L0 
C:\Users\stapi\AppData\Local\Temp\ccEJMvgv.s:1852   .text.tls_process_ocsp_response:0000000000000816 .L0 
C:\Users\stapi\AppData\Local\Temp\ccEJMvgv.s:1853   .text.tls_process_ocsp_response:0000000000000816 .L0 
C:\Users\stapi\AppData\Local\Temp\ccEJMvgv.s:1857   .text.tls_process_ocsp_response:0000000000000818 .L0 
C:\Users\stapi\AppData\Local\Temp\ccEJMvgv.s:1863   .text.tls_process_ocsp_response:000000000000082a .L0 
C:\Users\stapi\AppData\Local\Temp\ccEJMvgv.s:1869   .text.tls_process_ocsp_response:000000000000082c .L0 
C:\Users\stapi\AppData\Local\Temp\ccEJMvgv.s:1870   .text.tls_process_ocsp_response:000000000000082c .L0 
C:\Users\stapi\AppData\Local\Temp\ccEJMvgv.s:1876   .text.tls_process_ocsp_response:000000000000083c .L0 
C:\Users\stapi\AppData\Local\Temp\ccEJMvgv.s:1878   .text.tls_process_ocsp_response:0000000000000840 .L0 
C:\Users\stapi\AppData\Local\Temp\ccEJMvgv.s:1882   .text.tls_process_ocsp_response:000000000000084a .L0 
C:\Users\stapi\AppData\Local\Temp\ccEJMvgv.s:1885   .text.tls_process_ocsp_response:000000000000084c .L0 
C:\Users\stapi\AppData\Local\Temp\ccEJMvgv.s:1891   .text.tls_process_ocsp_response:0000000000000858 .L0 
C:\Users\stapi\AppData\Local\Temp\ccEJMvgv.s:1892   .text.tls_process_ocsp_response:0000000000000858 .L0 
C:\Users\stapi\AppData\Local\Temp\ccEJMvgv.s:1898   .text.tls_process_ocsp_response:000000000000085c .L0 
C:\Users\stapi\AppData\Local\Temp\ccEJMvgv.s:1899   .text.tls_process_ocsp_response:000000000000085c .L0 
C:\Users\stapi\AppData\Local\Temp\ccEJMvgv.s:1900   .text.tls_process_ocsp_response:000000000000085c .L0 
C:\Users\stapi\AppData\Local\Temp\ccEJMvgv.s:1901   .text.tls_process_ocsp_response:000000000000085c .L0 
C:\Users\stapi\AppData\Local\Temp\ccEJMvgv.s:1902   .text.tls_process_ocsp_response:000000000000085c .L0 
C:\Users\stapi\AppData\Local\Temp\ccEJMvgv.s:1903   .text.tls_process_ocsp_response:000000000000085c .L0 
C:\Users\stapi\AppData\Local\Temp\ccEJMvgv.s:1904   .text.tls_process_ocsp_response:000000000000085c .L0 
C:\Users\stapi\AppData\Local\Temp\ccEJMvgv.s:1905   .text.tls_process_ocsp_response:000000000000085c .L0 
C:\Users\stapi\AppData\Local\Temp\ccEJMvgv.s:1906   .text.tls_process_ocsp_response:000000000000085c .L0 
C:\Users\stapi\AppData\Local\Temp\ccEJMvgv.s:1907   .text.tls_process_ocsp_response:000000000000085c .L0 
C:\Users\stapi\AppData\Local\Temp\ccEJMvgv.s:1908   .text.tls_process_ocsp_response:000000000000085c .L0 
C:\Users\stapi\AppData\Local\Temp\ccEJMvgv.s:1909   .text.tls_process_ocsp_response:000000000000085c .L0 
C:\Users\stapi\AppData\Local\Temp\ccEJMvgv.s:1910   .text.tls_process_ocsp_response:000000000000085c .L0 
C:\Users\stapi\AppData\Local\Temp\ccEJMvgv.s:1918   .text.tls_process_ocsp_response:0000000000000872 .L0 
C:\Users\stapi\AppData\Local\Temp\ccEJMvgv.s:1919   .text.tls_process_ocsp_response:0000000000000872 .L0 
C:\Users\stapi\AppData\Local\Temp\ccEJMvgv.s:1925   .text.tls_process_ocsp_response:0000000000000880 .L0 
C:\Users\stapi\AppData\Local\Temp\ccEJMvgv.s:1927   .text.tls_process_ocsp_response:0000000000000884 .L0 
C:\Users\stapi\AppData\Local\Temp\ccEJMvgv.s:1931   .text.tls_process_ocsp_response:000000000000088e .L0 
C:\Users\stapi\AppData\Local\Temp\ccEJMvgv.s:1934   .text.tls_process_ocsp_response:0000000000000890 .L0 
C:\Users\stapi\AppData\Local\Temp\ccEJMvgv.s:1939   .text.tls_process_ocsp_response:0000000000000898 .L0 
C:\Users\stapi\AppData\Local\Temp\ccEJMvgv.s:1943   .text.tls_process_ocsp_response:00000000000008a2 .L0 
C:\Users\stapi\AppData\Local\Temp\ccEJMvgv.s:1947   .text.tls_process_ocsp_response:00000000000008a4 .L0 
C:\Users\stapi\AppData\Local\Temp\ccEJMvgv.s:1948   .text.tls_process_ocsp_response:00000000000008a4 .L0 
C:\Users\stapi\AppData\Local\Temp\ccEJMvgv.s:1950   .text.tls_process_ocsp_response:00000000000008a6 .L0 
C:\Users\stapi\AppData\Local\Temp\ccEJMvgv.s:1952   .text.tls_process_ocsp_response:00000000000008a8 .L0 
C:\Users\stapi\AppData\Local\Temp\ccEJMvgv.s:1955   .text.tls_process_ocsp_response:00000000000008ac .L0 
C:\Users\stapi\AppData\Local\Temp\ccEJMvgv.s:1957   .text.tls_process_ocsp_response:00000000000008ae .L0 
C:\Users\stapi\AppData\Local\Temp\ccEJMvgv.s:1958   .text.tls_process_ocsp_response:00000000000008ae .L0 
C:\Users\stapi\AppData\Local\Temp\ccEJMvgv.s:1961   .text.tls_process_ocsp_response:00000000000008b2 .L0 
C:\Users\stapi\AppData\Local\Temp\ccEJMvgv.s:1962   .text.tls_process_ocsp_response:00000000000008b2 .L0 
C:\Users\stapi\AppData\Local\Temp\ccEJMvgv.s:1965   .text.tls_process_ocsp_response:00000000000008ba .L0 
C:\Users\stapi\AppData\Local\Temp\ccEJMvgv.s:1967   .text.tls_process_ocsp_response:00000000000008bc .L0 
C:\Users\stapi\AppData\Local\Temp\ccEJMvgv.s:1968   .text.tls_process_ocsp_response:00000000000008bc .L0 
C:\Users\stapi\AppData\Local\Temp\ccEJMvgv.s:1974   .text.tls_process_ocsp_response:00000000000008cc .L0 
C:\Users\stapi\AppData\Local\Temp\ccEJMvgv.s:1979   .text.tls_process_ocsp_response:00000000000008d0 .L0 
C:\Users\stapi\AppData\Local\Temp\ccEJMvgv.s:1980   .text.tls_process_ocsp_response:00000000000008d0 .L0 
C:\Users\stapi\AppData\Local\Temp\ccEJMvgv.s:1989   .text.tls_process_ocsp_response:00000000000008de .L0 
C:\Users\stapi\AppData\Local\Temp\ccEJMvgv.s:1990   .text.tls_process_ocsp_response:00000000000008de .L0 
C:\Users\stapi\AppData\Local\Temp\ccEJMvgv.s:1992   .text.tls_process_ocsp_response:00000000000008e0 .L0 
C:\Users\stapi\AppData\Local\Temp\ccEJMvgv.s:1995   .text.tls_process_ocsp_response:00000000000008e2 .L0 
C:\Users\stapi\AppData\Local\Temp\ccEJMvgv.s:1996   .text.tls_process_ocsp_response:00000000000008e2 .L0 
C:\Users\stapi\AppData\Local\Temp\ccEJMvgv.s:2007   .text.tls_process_ocsp_response:00000000000008fc .L0 
C:\Users\stapi\AppData\Local\Temp\ccEJMvgv.s:2008   .text.tls_process_ocsp_response:00000000000008fc .L0 
C:\Users\stapi\AppData\Local\Temp\ccEJMvgv.s:2011   .text.tls_process_ocsp_response:0000000000000900 .L0 
C:\Users\stapi\AppData\Local\Temp\ccEJMvgv.s:2014   .text.tls_process_ocsp_response:0000000000000908 .L0 
C:\Users\stapi\AppData\Local\Temp\ccEJMvgv.s:2016   .text.tls_process_ocsp_response:000000000000090a .L0 
C:\Users\stapi\AppData\Local\Temp\ccEJMvgv.s:2020   .text.tls_process_ocsp_response:0000000000000914 .L0 
C:\Users\stapi\AppData\Local\Temp\ccEJMvgv.s:2022   .text.tls_process_ocsp_response:0000000000000916 .L0 
C:\Users\stapi\AppData\Local\Temp\ccEJMvgv.s:2025   .text.tls_process_ocsp_response:000000000000091e .L0 
C:\Users\stapi\AppData\Local\Temp\ccEJMvgv.s:2026   .text.tls_process_ocsp_response:000000000000091e .L0 
C:\Users\stapi\AppData\Local\Temp\ccEJMvgv.s:2033   .text.tls_process_ocsp_response:0000000000000932 .L0 
C:\Users\stapi\AppData\Local\Temp\ccEJMvgv.s:2036   .text.tls_process_ocsp_response:0000000000000936 .L0 
C:\Users\stapi\AppData\Local\Temp\ccEJMvgv.s:2039   .text.tls_process_ocsp_response:0000000000000938 .L0 
C:\Users\stapi\AppData\Local\Temp\ccEJMvgv.s:2040   .text.tls_process_ocsp_response:0000000000000938 .L0 
C:\Users\stapi\AppData\Local\Temp\ccEJMvgv.s:2044   .text.tls_process_ocsp_response:000000000000093a .L0 
C:\Users\stapi\AppData\Local\Temp\ccEJMvgv.s:2050   .text.tls_process_ocsp_response:000000000000094c .L0 
C:\Users\stapi\AppData\Local\Temp\ccEJMvgv.s:2057   .text.tls_process_ocsp_response:0000000000000958 .L0 
C:\Users\stapi\AppData\Local\Temp\ccEJMvgv.s:2064   .text.tls_process_ocsp_response:0000000000000962 .L0 
C:\Users\stapi\AppData\Local\Temp\ccEJMvgv.s:2065   .text.tls_process_ocsp_response:0000000000000962 .L0 
C:\Users\stapi\AppData\Local\Temp\ccEJMvgv.s:2066   .text.tls_process_ocsp_response:0000000000000962 .L0 
C:\Users\stapi\AppData\Local\Temp\ccEJMvgv.s:2076   .text.tls_process_ocsp_response:000000000000096a .L0 
C:\Users\stapi\AppData\Local\Temp\ccEJMvgv.s:2082   .text.tls_process_ocsp_response:0000000000000974 .L0 
C:\Users\stapi\AppData\Local\Temp\ccEJMvgv.s:2084   .text.tls_process_ocsp_response:0000000000000978 .L0 
C:\Users\stapi\AppData\Local\Temp\ccEJMvgv.s:2091   .text.tls_process_ocsp_response:0000000000000986 .L0 
C:\Users\stapi\AppData\Local\Temp\ccEJMvgv.s:2093   .text.tls_process_ocsp_response:0000000000000988 .L0 
C:\Users\stapi\AppData\Local\Temp\ccEJMvgv.s:2094   .text.tls_process_ocsp_response:0000000000000988 .L0 
C:\Users\stapi\AppData\Local\Temp\ccEJMvgv.s:2100   .text.tls_process_ocsp_response:0000000000000998 .L0 
C:\Users\stapi\AppData\Local\Temp\ccEJMvgv.s:2105   .text.tls_process_ocsp_response:000000000000099c .L0 
C:\Users\stapi\AppData\Local\Temp\ccEJMvgv.s:2106   .text.tls_process_ocsp_response:000000000000099c .L0 
C:\Users\stapi\AppData\Local\Temp\ccEJMvgv.s:2115   .text.tls_process_ocsp_response:00000000000009aa .L0 
C:\Users\stapi\AppData\Local\Temp\ccEJMvgv.s:2116   .text.tls_process_ocsp_response:00000000000009aa .L0 
C:\Users\stapi\AppData\Local\Temp\ccEJMvgv.s:2118   .text.tls_process_ocsp_response:00000000000009ac .L0 
C:\Users\stapi\AppData\Local\Temp\ccEJMvgv.s:2121   .text.tls_process_ocsp_response:00000000000009ae .L0 
C:\Users\stapi\AppData\Local\Temp\ccEJMvgv.s:2122   .text.tls_process_ocsp_response:00000000000009ae .L0 
C:\Users\stapi\AppData\Local\Temp\ccEJMvgv.s:2135   .text.tls_process_ocsp_response:00000000000009c8 .L0 
C:\Users\stapi\AppData\Local\Temp\ccEJMvgv.s:2136   .text.tls_process_ocsp_response:00000000000009c8 .L0 
C:\Users\stapi\AppData\Local\Temp\ccEJMvgv.s:2139   .text.tls_process_ocsp_response:00000000000009cc .L0 
C:\Users\stapi\AppData\Local\Temp\ccEJMvgv.s:2142   .text.tls_process_ocsp_response:00000000000009d4 .L0 
C:\Users\stapi\AppData\Local\Temp\ccEJMvgv.s:2144   .text.tls_process_ocsp_response:00000000000009d6 .L0 
C:\Users\stapi\AppData\Local\Temp\ccEJMvgv.s:2147   .text.tls_process_ocsp_response:00000000000009da .L0 
C:\Users\stapi\AppData\Local\Temp\ccEJMvgv.s:2149   .text.tls_process_ocsp_response:00000000000009dc .L0 
C:\Users\stapi\AppData\Local\Temp\ccEJMvgv.s:2150   .text.tls_process_ocsp_response:00000000000009dc .L0 
C:\Users\stapi\AppData\Local\Temp\ccEJMvgv.s:2153   .text.tls_process_ocsp_response:00000000000009e4 .L0 
C:\Users\stapi\AppData\Local\Temp\ccEJMvgv.s:2156   .text.tls_process_ocsp_response:00000000000009e8 .L0 
C:\Users\stapi\AppData\Local\Temp\ccEJMvgv.s:2159   .text.tls_process_ocsp_response:00000000000009ea .L0 
C:\Users\stapi\AppData\Local\Temp\ccEJMvgv.s:2160   .text.tls_process_ocsp_response:00000000000009ea .L0 
C:\Users\stapi\AppData\Local\Temp\ccEJMvgv.s:2164   .text.tls_process_ocsp_response:00000000000009ec .L0 
C:\Users\stapi\AppData\Local\Temp\ccEJMvgv.s:2170   .text.tls_process_ocsp_response:00000000000009fe .L0 
C:\Users\stapi\AppData\Local\Temp\ccEJMvgv.s:2178   .text.tls_process_ocsp_response:0000000000000a0c .L0 
C:\Users\stapi\AppData\Local\Temp\ccEJMvgv.s:2184   .text.tls_process_ocsp_response:0000000000000a16 .L0 
C:\Users\stapi\AppData\Local\Temp\ccEJMvgv.s:2186   .text.tls_process_ocsp_response:0000000000000a1a .L0 
C:\Users\stapi\AppData\Local\Temp\ccEJMvgv.s:2193   .text.tls_process_ocsp_response:0000000000000a28 .L0 
C:\Users\stapi\AppData\Local\Temp\ccEJMvgv.s:2195   .text.tls_process_ocsp_response:0000000000000a2a .L0 
C:\Users\stapi\AppData\Local\Temp\ccEJMvgv.s:2196   .text.tls_process_ocsp_response:0000000000000a2a .L0 
C:\Users\stapi\AppData\Local\Temp\ccEJMvgv.s:2202   .text.tls_process_ocsp_response:0000000000000a3a .L0 
C:\Users\stapi\AppData\Local\Temp\ccEJMvgv.s:2207   .text.tls_process_ocsp_response:0000000000000a3e .L0 
C:\Users\stapi\AppData\Local\Temp\ccEJMvgv.s:2208   .text.tls_process_ocsp_response:0000000000000a3e .L0 
C:\Users\stapi\AppData\Local\Temp\ccEJMvgv.s:2211   .text.tls_process_ocsp_response:0000000000000a44 .L0 
C:\Users\stapi\AppData\Local\Temp\ccEJMvgv.s:2214   .text.tls_process_ocsp_response:0000000000000a46 .L0 
C:\Users\stapi\AppData\Local\Temp\ccEJMvgv.s:2220   .text.tls_process_ocsp_response:0000000000000a4c .L0 
C:\Users\stapi\AppData\Local\Temp\ccEJMvgv.s:2222   .text.tls_process_ocsp_response:0000000000000a4e .L0 
C:\Users\stapi\AppData\Local\Temp\ccEJMvgv.s:2227   .text.tls_process_ocsp_response:0000000000000a58 .L0 
C:\Users\stapi\AppData\Local\Temp\ccEJMvgv.s:2231   .text.tls_process_ocsp_response:0000000000000a5e .L0 
C:\Users\stapi\AppData\Local\Temp\ccEJMvgv.s:2232   .text.tls_process_ocsp_response:0000000000000a5e .L0 
C:\Users\stapi\AppData\Local\Temp\ccEJMvgv.s:2235   .text.tls_process_ocsp_response:0000000000000a60 .L0 
C:\Users\stapi\AppData\Local\Temp\ccEJMvgv.s:2236   .text.tls_process_ocsp_response:0000000000000a60 .L0 
C:\Users\stapi\AppData\Local\Temp\ccEJMvgv.s:2238   .text.tls_process_ocsp_response:0000000000000a60 .L0 
C:\Users\stapi\AppData\Local\Temp\ccEJMvgv.s:2239   .text.tls_process_ocsp_response:0000000000000a60 .L0 
C:\Users\stapi\AppData\Local\Temp\ccEJMvgv.s:2242   .text.tls_process_ocsp_response:0000000000000a66 .L0 
C:\Users\stapi\AppData\Local\Temp\ccEJMvgv.s:2243   .text.tls_process_ocsp_response:0000000000000a66 .L0 
C:\Users\stapi\AppData\Local\Temp\ccEJMvgv.s:2246   .text.tls_process_ocsp_response:0000000000000a68 .L0 
C:\Users\stapi\AppData\Local\Temp\ccEJMvgv.s:2249   .text.tls_process_ocsp_response:0000000000000a6a .L0 
C:\Users\stapi\AppData\Local\Temp\ccEJMvgv.s:2250   .text.tls_process_ocsp_response:0000000000000a6a .L0 
C:\Users\stapi\AppData\Local\Temp\ccEJMvgv.s:2253   .text.tls_process_ocsp_response:0000000000000a6c .L0 
C:\Users\stapi\AppData\Local\Temp\ccEJMvgv.s:2264   .text.tls_process_ocsp_response:0000000000000a84 .L0 
C:\Users\stapi\AppData\Local\Temp\ccEJMvgv.s:2265   .text.tls_process_ocsp_response:0000000000000a84 .L0 
C:\Users\stapi\AppData\Local\Temp\ccEJMvgv.s:2271   .text.tls_process_ocsp_response:0000000000000a8e .L0 
C:\Users\stapi\AppData\Local\Temp\ccEJMvgv.s:2277   .text.tls_process_ocsp_response:0000000000000a96 .L0 
C:\Users\stapi\AppData\Local\Temp\ccEJMvgv.s:2281   .text.tls_process_ocsp_response:0000000000000aa0 .L0 
C:\Users\stapi\AppData\Local\Temp\ccEJMvgv.s:2286   .text.tls_process_ocsp_response:0000000000000aa2 .L0 
C:\Users\stapi\AppData\Local\Temp\ccEJMvgv.s:2292   .text.tls_process_ocsp_response:0000000000000ab2 .L0 
C:\Users\stapi\AppData\Local\Temp\ccEJMvgv.s:2294   .text.tls_process_ocsp_response:0000000000000ab4 .L0 
C:\Users\stapi\AppData\Local\Temp\ccEJMvgv.s:2295   .text.tls_process_ocsp_response:0000000000000ab4 .L0 
C:\Users\stapi\AppData\Local\Temp\ccEJMvgv.s:2298   .text.tls_process_ocsp_response:0000000000000ab6 .L0 
C:\Users\stapi\AppData\Local\Temp\ccEJMvgv.s:2302   .text.tls_process_ocsp_response:0000000000000abe .L0 
C:\Users\stapi\AppData\Local\Temp\ccEJMvgv.s:2305   .text.tls_process_ocsp_response:0000000000000ac0 .L0 
C:\Users\stapi\AppData\Local\Temp\ccEJMvgv.s:2306   .text.tls_process_ocsp_response:0000000000000ac0 .L0 
C:\Users\stapi\AppData\Local\Temp\ccEJMvgv.s:2307   .text.tls_process_ocsp_response:0000000000000ac0 .L0 
C:\Users\stapi\AppData\Local\Temp\ccEJMvgv.s:2310   .text.tls_process_ocsp_response:0000000000000ac8 .L0 
C:\Users\stapi\AppData\Local\Temp\ccEJMvgv.s:2312   .text.tls_process_ocsp_response:0000000000000acc .L0 
C:\Users\stapi\AppData\Local\Temp\ccEJMvgv.s:2317   .text.tls_process_ocsp_response:0000000000000ad6 .L0 
C:\Users\stapi\AppData\Local\Temp\ccEJMvgv.s:2322   .text.tls_process_ocsp_response:0000000000000ae0 .L0 
C:\Users\stapi\AppData\Local\Temp\ccEJMvgv.s:2323   .text.tls_process_ocsp_response:0000000000000ae0 .L0 
C:\Users\stapi\AppData\Local\Temp\ccEJMvgv.s:2326   .text.tls_process_ocsp_response:0000000000000ae2 .L0 
C:\Users\stapi\AppData\Local\Temp\ccEJMvgv.s:2333   .text.tls_process_ocsp_response:0000000000000af6 .L0 
C:\Users\stapi\AppData\Local\Temp\ccEJMvgv.s:2341   .text.tls_process_ocsp_response:0000000000000b0c .L0 
C:\Users\stapi\AppData\Local\Temp\ccEJMvgv.s:2342   .text.tls_process_ocsp_response:0000000000000b0c .L0 
C:\Users\stapi\AppData\Local\Temp\ccEJMvgv.s:2345   .text.tls_process_ocsp_response:0000000000000b10 .L0 
C:\Users\stapi\AppData\Local\Temp\ccEJMvgv.s:2347   .text.tls_process_ocsp_response:0000000000000b12 .L0 
C:\Users\stapi\AppData\Local\Temp\ccEJMvgv.s:2349   .text.tls_process_ocsp_response:0000000000000b14 .L0 
C:\Users\stapi\AppData\Local\Temp\ccEJMvgv.s:2351   .text.tls_process_ocsp_response:0000000000000b16 .L0 
C:\Users\stapi\AppData\Local\Temp\ccEJMvgv.s:2354   .text.tls_process_ocsp_response:0000000000000b1e .L0 
C:\Users\stapi\AppData\Local\Temp\ccEJMvgv.s:2355   .text.tls_process_ocsp_response:0000000000000b1e .L0 
C:\Users\stapi\AppData\Local\Temp\ccEJMvgv.s:2361   .text.tls_process_ocsp_response:0000000000000b2e .L0 
C:\Users\stapi\AppData\Local\Temp\ccEJMvgv.s:2364   .text.tls_process_ocsp_response:0000000000000b32 .L0 
C:\Users\stapi\AppData\Local\Temp\ccEJMvgv.s:2372   .text.tls_process_ocsp_response:0000000000000b3c .L0 
C:\Users\stapi\AppData\Local\Temp\ccEJMvgv.s:2373   .text.tls_process_ocsp_response:0000000000000b3c .L0 
C:\Users\stapi\AppData\Local\Temp\ccEJMvgv.s:2382   .text.tls_process_ocsp_response:0000000000000b4a .L0 
C:\Users\stapi\AppData\Local\Temp\ccEJMvgv.s:2389   .text.tls_process_ocsp_response:0000000000000b5a .L0 
C:\Users\stapi\AppData\Local\Temp\ccEJMvgv.s:2391   .text.tls_process_ocsp_response:0000000000000b5e .L0 
C:\Users\stapi\AppData\Local\Temp\ccEJMvgv.s:2398   .text.tls_process_ocsp_response:0000000000000b72 .L0 
C:\Users\stapi\AppData\Local\Temp\ccEJMvgv.s:2399   .text.tls_process_ocsp_response:0000000000000b72 .L0 
C:\Users\stapi\AppData\Local\Temp\ccEJMvgv.s:2402   .text.tls_process_ocsp_response:0000000000000b76 .L0 
C:\Users\stapi\AppData\Local\Temp\ccEJMvgv.s:2404   .text.tls_process_ocsp_response:0000000000000b78 .L0 
C:\Users\stapi\AppData\Local\Temp\ccEJMvgv.s:2406   .text.tls_process_ocsp_response:0000000000000b7a .L0 
C:\Users\stapi\AppData\Local\Temp\ccEJMvgv.s:2408   .text.tls_process_ocsp_response:0000000000000b7c .L0 
C:\Users\stapi\AppData\Local\Temp\ccEJMvgv.s:2410   .text.tls_process_ocsp_response:0000000000000b7e .L0 
C:\Users\stapi\AppData\Local\Temp\ccEJMvgv.s:2411   .text.tls_process_ocsp_response:0000000000000b7e .L0 
C:\Users\stapi\AppData\Local\Temp\ccEJMvgv.s:2413   .text.tls_process_ocsp_response:0000000000000b82 .L0 
C:\Users\stapi\AppData\Local\Temp\ccEJMvgv.s:2418   .text.tls_process_ocsp_response:0000000000000b8c .L0 
C:\Users\stapi\AppData\Local\Temp\ccEJMvgv.s:2419   .text.tls_process_ocsp_response:0000000000000b8c .L0 
C:\Users\stapi\AppData\Local\Temp\ccEJMvgv.s:2421   .text.tls_process_ocsp_response:0000000000000b90 .L0 
C:\Users\stapi\AppData\Local\Temp\ccEJMvgv.s:2422   .text.tls_process_ocsp_response:0000000000000b90 .L0 
C:\Users\stapi\AppData\Local\Temp\ccEJMvgv.s:2427   .text.tls_process_ocsp_response:0000000000000b9e .L0 
C:\Users\stapi\AppData\Local\Temp\ccEJMvgv.s:2432   .text.tls_process_ocsp_response:0000000000000ba2 .L0 
C:\Users\stapi\AppData\Local\Temp\ccEJMvgv.s:2433   .text.tls_process_ocsp_response:0000000000000ba2 .L0 
C:\Users\stapi\AppData\Local\Temp\ccEJMvgv.s:2434   .text.tls_process_ocsp_response:0000000000000ba2 .L0 
C:\Users\stapi\AppData\Local\Temp\ccEJMvgv.s:2443   .text.tls_process_ocsp_response:0000000000000bb0 .L0 
C:\Users\stapi\AppData\Local\Temp\ccEJMvgv.s:2447   .text.tls_process_ocsp_response:0000000000000bb6 .L0 
C:\Users\stapi\AppData\Local\Temp\ccEJMvgv.s:2448   .text.tls_process_ocsp_response:0000000000000bb6 .L0 
C:\Users\stapi\AppData\Local\Temp\ccEJMvgv.s:2450   .text.tls_process_ocsp_response:0000000000000bb8 .L0 
C:\Users\stapi\AppData\Local\Temp\ccEJMvgv.s:2452   .text.tls_process_ocsp_response:0000000000000bba .L0 
C:\Users\stapi\AppData\Local\Temp\ccEJMvgv.s:2454   .text.tls_process_ocsp_response:0000000000000bbc .L0 
C:\Users\stapi\AppData\Local\Temp\ccEJMvgv.s:2457   .text.tls_process_ocsp_response:0000000000000bc0 .L0 
C:\Users\stapi\AppData\Local\Temp\ccEJMvgv.s:2458   .text.tls_process_ocsp_response:0000000000000bc0 .L0 
C:\Users\stapi\AppData\Local\Temp\ccEJMvgv.s:2461   .text.tls_process_ocsp_response:0000000000000bc8 .L0 
C:\Users\stapi\AppData\Local\Temp\ccEJMvgv.s:2464   .text.tls_process_ocsp_response:0000000000000bcc .L0 
C:\Users\stapi\AppData\Local\Temp\ccEJMvgv.s:2472   .text.tls_process_ocsp_response:0000000000000bd6 .L0 
C:\Users\stapi\AppData\Local\Temp\ccEJMvgv.s:2473   .text.tls_process_ocsp_response:0000000000000bd6 .L0 
C:\Users\stapi\AppData\Local\Temp\ccEJMvgv.s:2482   .text.tls_process_ocsp_response:0000000000000be4 .L0 
C:\Users\stapi\AppData\Local\Temp\ccEJMvgv.s:2489   .text.tls_process_ocsp_response:0000000000000bf4 .L0 
C:\Users\stapi\AppData\Local\Temp\ccEJMvgv.s:2491   .text.tls_process_ocsp_response:0000000000000bf8 .L0 
C:\Users\stapi\AppData\Local\Temp\ccEJMvgv.s:2498   .text.tls_process_ocsp_response:0000000000000c0c .L0 
C:\Users\stapi\AppData\Local\Temp\ccEJMvgv.s:2499   .text.tls_process_ocsp_response:0000000000000c0c .L0 
C:\Users\stapi\AppData\Local\Temp\ccEJMvgv.s:2502   .text.tls_process_ocsp_response:0000000000000c10 .L0 
C:\Users\stapi\AppData\Local\Temp\ccEJMvgv.s:2504   .text.tls_process_ocsp_response:0000000000000c12 .L0 
C:\Users\stapi\AppData\Local\Temp\ccEJMvgv.s:2505   .text.tls_process_ocsp_response:0000000000000c12 .L0 
C:\Users\stapi\AppData\Local\Temp\ccEJMvgv.s:2507   .text.tls_process_ocsp_response:0000000000000c16 .L0 
C:\Users\stapi\AppData\Local\Temp\ccEJMvgv.s:2514   .text.tls_process_ocsp_response:0000000000000c20 .L0 
C:\Users\stapi\AppData\Local\Temp\ccEJMvgv.s:2515   .text.tls_process_ocsp_response:0000000000000c20 .L0 
C:\Users\stapi\AppData\Local\Temp\ccEJMvgv.s:2517   .text.tls_process_ocsp_response:0000000000000c22 .L0 
C:\Users\stapi\AppData\Local\Temp\ccEJMvgv.s:2519   .text.tls_process_ocsp_response:0000000000000c26 .L0 
C:\Users\stapi\AppData\Local\Temp\ccEJMvgv.s:2527   .text.tls_process_ocsp_response:0000000000000c3c .L0 
C:\Users\stapi\AppData\Local\Temp\ccEJMvgv.s:2528   .text.tls_process_ocsp_response:0000000000000c3c .L0 
C:\Users\stapi\AppData\Local\Temp\ccEJMvgv.s:2530   .text.tls_process_ocsp_response:0000000000000c40 .L0 
C:\Users\stapi\AppData\Local\Temp\ccEJMvgv.s:2531   .text.tls_process_ocsp_response:0000000000000c40 .L0 
C:\Users\stapi\AppData\Local\Temp\ccEJMvgv.s:2539   .text.tls_process_ocsp_response:0000000000000c46 .L0 
C:\Users\stapi\AppData\Local\Temp\ccEJMvgv.s:2540   .text.tls_process_ocsp_response:0000000000000c46 .L0 
C:\Users\stapi\AppData\Local\Temp\ccEJMvgv.s:2541   .text.tls_process_ocsp_response:0000000000000c46 .L0 
C:\Users\stapi\AppData\Local\Temp\ccEJMvgv.s:2542   .text.tls_process_ocsp_response:0000000000000c46 .L0 
C:\Users\stapi\AppData\Local\Temp\ccEJMvgv.s:2551   .text.tls_process_ocsp_response:0000000000000c54 .L0 
C:\Users\stapi\AppData\Local\Temp\ccEJMvgv.s:2552   .text.tls_process_ocsp_response:0000000000000c54 .L0 
C:\Users\stapi\AppData\Local\Temp\ccEJMvgv.s:2555   .text.tls_process_ocsp_response:0000000000000c5c .L0 
C:\Users\stapi\AppData\Local\Temp\ccEJMvgv.s:2560   .text.tls_process_ocsp_response:0000000000000c5e .L0 
C:\Users\stapi\AppData\Local\Temp\ccEJMvgv.s:2561   .text.tls_process_ocsp_response:0000000000000c5e .L0 
C:\Users\stapi\AppData\Local\Temp\ccEJMvgv.s:2566   .text.tls_process_ocsp_response:0000000000000c64 .L0 
C:\Users\stapi\AppData\Local\Temp\ccEJMvgv.s:2570   .text.tls_process_ocsp_response:0000000000000c6e .L0 
C:\Users\stapi\AppData\Local\Temp\ccEJMvgv.s:2571   .text.tls_process_ocsp_response:0000000000000c6e .L0 
C:\Users\stapi\AppData\Local\Temp\ccEJMvgv.s:2580   .text.tls_process_ocsp_response:0000000000000c74 .L0 
C:\Users\stapi\AppData\Local\Temp\ccEJMvgv.s:2581   .text.tls_process_ocsp_response:0000000000000c74 .L0 
C:\Users\stapi\AppData\Local\Temp\ccEJMvgv.s:2582   .text.tls_process_ocsp_response:0000000000000c74 .L0 
C:\Users\stapi\AppData\Local\Temp\ccEJMvgv.s:2583   .text.tls_process_ocsp_response:0000000000000c74 .L0 
C:\Users\stapi\AppData\Local\Temp\ccEJMvgv.s:2602   .text.tls_process_ocsp_response:0000000000000c8a .L0 
C:\Users\stapi\AppData\Local\Temp\ccEJMvgv.s:2603   .text.tls_process_ocsp_response:0000000000000c8a .L0 
C:\Users\stapi\AppData\Local\Temp\ccEJMvgv.s:2604   .text.tls_process_ocsp_response:0000000000000c8a .L0 
C:\Users\stapi\AppData\Local\Temp\ccEJMvgv.s:2610   .text.tls_process_ocsp_response:0000000000000c98 .L0 
C:\Users\stapi\AppData\Local\Temp\ccEJMvgv.s:2612   .text.tls_process_ocsp_response:0000000000000c9c .L0 
C:\Users\stapi\AppData\Local\Temp\ccEJMvgv.s:2616   .text.tls_process_ocsp_response:0000000000000ca6 .L0 
C:\Users\stapi\AppData\Local\Temp\ccEJMvgv.s:2618   .text.tls_process_ocsp_response:0000000000000ca8 .L0 
C:\Users\stapi\AppData\Local\Temp\ccEJMvgv.s:2623   .text.tls_process_ocsp_response:0000000000000cac .L0 
C:\Users\stapi\AppData\Local\Temp\ccEJMvgv.s:38     .text.asn1_is_sequence:0000000000000014 .L0 
C:\Users\stapi\AppData\Local\Temp\ccEJMvgv.s:121    .text.ocsp_responder_id_match:000000000000005c .L0 
C:\Users\stapi\AppData\Local\Temp\ccEJMvgv.s:315    .text.ocsp_hash_data:0000000000000136 .L0 
C:\Users\stapi\AppData\Local\Temp\ccEJMvgv.s:2626   .text.tls_process_ocsp_response:0000000000000cac .L0 
                     .debug_frame:0000000000000000 .L0 
C:\Users\stapi\AppData\Local\Temp\ccEJMvgv.s:29     .text.asn1_is_sequence:0000000000000010 .L3
C:\Users\stapi\AppData\Local\Temp\ccEJMvgv.s:109    .text.ocsp_responder_id_match:000000000000004e .L5
C:\Users\stapi\AppData\Local\Temp\ccEJMvgv.s:99     .text.ocsp_responder_id_match:0000000000000044 .L4
C:\Users\stapi\AppData\Local\Temp\ccEJMvgv.s:95     .text.ocsp_responder_id_match:0000000000000040 .L10
C:\Users\stapi\AppData\Local\Temp\ccEJMvgv.s:123    .rodata.ocsp_hash_data.str1.4:0000000000000000 .LC0
C:\Users\stapi\AppData\Local\Temp\ccEJMvgv.s:126    .rodata.ocsp_hash_data.str1.4:0000000000000014 .LC1
C:\Users\stapi\AppData\Local\Temp\ccEJMvgv.s:129    .rodata.ocsp_hash_data.str1.4:0000000000000028 .LC2
C:\Users\stapi\AppData\Local\Temp\ccEJMvgv.s:132    .rodata.ocsp_hash_data.str1.4:000000000000003c .LC3
C:\Users\stapi\AppData\Local\Temp\ccEJMvgv.s:135    .rodata.ocsp_hash_data.str1.4:0000000000000050 .LC4
C:\Users\stapi\AppData\Local\Temp\ccEJMvgv.s:206    .text.ocsp_hash_data:0000000000000056 .L12
C:\Users\stapi\AppData\Local\Temp\ccEJMvgv.s:184    .text.ocsp_hash_data:0000000000000034 .L13
C:\Users\stapi\AppData\Local\Temp\ccEJMvgv.s:196    .text.ocsp_hash_data:000000000000004c .L11
C:\Users\stapi\AppData\Local\Temp\ccEJMvgv.s:237    .text.ocsp_hash_data:0000000000000094 .L15
C:\Users\stapi\AppData\Local\Temp\ccEJMvgv.s:179    .text.ocsp_hash_data:0000000000000030 .L20
C:\Users\stapi\AppData\Local\Temp\ccEJMvgv.s:267    .text.ocsp_hash_data:00000000000000d2 .L17
C:\Users\stapi\AppData\Local\Temp\ccEJMvgv.s:297    .text.ocsp_hash_data:0000000000000110 .L18
C:\Users\stapi\AppData\Local\Temp\ccEJMvgv.s:317    .rodata.tls_process_ocsp_response.str1.4:0000000000000000 .LC5
C:\Users\stapi\AppData\Local\Temp\ccEJMvgv.s:320    .rodata.tls_process_ocsp_response.str1.4:0000000000000014 .LC6
C:\Users\stapi\AppData\Local\Temp\ccEJMvgv.s:323    .rodata.tls_process_ocsp_response.str1.4:000000000000003c .LC7
C:\Users\stapi\AppData\Local\Temp\ccEJMvgv.s:326    .rodata.tls_process_ocsp_response.str1.4:0000000000000068 .LC8
C:\Users\stapi\AppData\Local\Temp\ccEJMvgv.s:329    .rodata.tls_process_ocsp_response.str1.4:0000000000000080 .LC9
C:\Users\stapi\AppData\Local\Temp\ccEJMvgv.s:335    .rodata.tls_process_ocsp_response.str1.4:00000000000000c8 .LC11
C:\Users\stapi\AppData\Local\Temp\ccEJMvgv.s:332    .rodata.tls_process_ocsp_response.str1.4:000000000000009c .LC10
C:\Users\stapi\AppData\Local\Temp\ccEJMvgv.s:338    .rodata.tls_process_ocsp_response.str1.4:00000000000000f0 .LC12
C:\Users\stapi\AppData\Local\Temp\ccEJMvgv.s:341    .rodata.tls_process_ocsp_response.str1.4:000000000000011c .LC13
C:\Users\stapi\AppData\Local\Temp\ccEJMvgv.s:347    .rodata.tls_process_ocsp_response.str1.4:000000000000015c .LC15
C:\Users\stapi\AppData\Local\Temp\ccEJMvgv.s:344    .rodata.tls_process_ocsp_response.str1.4:0000000000000134 .LC14
C:\Users\stapi\AppData\Local\Temp\ccEJMvgv.s:350    .rodata.tls_process_ocsp_response.str1.4:0000000000000184 .LC16
C:\Users\stapi\AppData\Local\Temp\ccEJMvgv.s:353    .rodata.tls_process_ocsp_response.str1.4:00000000000001b4 .LC17
C:\Users\stapi\AppData\Local\Temp\ccEJMvgv.s:356    .rodata.tls_process_ocsp_response.str1.4:00000000000001cc .LC18
C:\Users\stapi\AppData\Local\Temp\ccEJMvgv.s:359    .rodata.tls_process_ocsp_response.str1.4:00000000000001f8 .LC19
C:\Users\stapi\AppData\Local\Temp\ccEJMvgv.s:365    .rodata.tls_process_ocsp_response.str1.4:0000000000000248 .LC21
C:\Users\stapi\AppData\Local\Temp\ccEJMvgv.s:362    .rodata.tls_process_ocsp_response.str1.4:0000000000000220 .LC20
C:\Users\stapi\AppData\Local\Temp\ccEJMvgv.s:368    .rodata.tls_process_ocsp_response.str1.4:000000000000026c .LC22
C:\Users\stapi\AppData\Local\Temp\ccEJMvgv.s:371    .rodata.tls_process_ocsp_response.str1.4:000000000000027c .LC23
C:\Users\stapi\AppData\Local\Temp\ccEJMvgv.s:380    .rodata.tls_process_ocsp_response.str1.4:00000000000002d4 .LC26
C:\Users\stapi\AppData\Local\Temp\ccEJMvgv.s:383    .rodata.tls_process_ocsp_response.str1.4:00000000000002e8 .LC27
C:\Users\stapi\AppData\Local\Temp\ccEJMvgv.s:374    .rodata.tls_process_ocsp_response.str1.4:0000000000000288 .LC24
C:\Users\stapi\AppData\Local\Temp\ccEJMvgv.s:377    .rodata.tls_process_ocsp_response.str1.4:00000000000002ac .LC25
C:\Users\stapi\AppData\Local\Temp\ccEJMvgv.s:386    .rodata.tls_process_ocsp_response.str1.4:0000000000000320 .LC28
C:\Users\stapi\AppData\Local\Temp\ccEJMvgv.s:389    .rodata.tls_process_ocsp_response.str1.4:0000000000000340 .LC29
C:\Users\stapi\AppData\Local\Temp\ccEJMvgv.s:395    .rodata.tls_process_ocsp_response.str1.4:0000000000000394 .LC31
C:\Users\stapi\AppData\Local\Temp\ccEJMvgv.s:392    .rodata.tls_process_ocsp_response.str1.4:000000000000036c .LC30
C:\Users\stapi\AppData\Local\Temp\ccEJMvgv.s:398    .rodata.tls_process_ocsp_response.str1.4:00000000000003b8 .LC32
C:\Users\stapi\AppData\Local\Temp\ccEJMvgv.s:413    .rodata.tls_process_ocsp_response.str1.4:0000000000000490 .LC37
C:\Users\stapi\AppData\Local\Temp\ccEJMvgv.s:401    .rodata.tls_process_ocsp_response.str1.4:00000000000003dc .LC33
C:\Users\stapi\AppData\Local\Temp\ccEJMvgv.s:407    .rodata.tls_process_ocsp_response.str1.4:0000000000000424 .LC35
C:\Users\stapi\AppData\Local\Temp\ccEJMvgv.s:404    .rodata.tls_process_ocsp_response.str1.4:00000000000003fc .LC34
C:\Users\stapi\AppData\Local\Temp\ccEJMvgv.s:410    .rodata.tls_process_ocsp_response.str1.4:0000000000000468 .LC36
C:\Users\stapi\AppData\Local\Temp\ccEJMvgv.s:416    .rodata.tls_process_ocsp_response.str1.4:00000000000004b4 .LC38
C:\Users\stapi\AppData\Local\Temp\ccEJMvgv.s:419    .rodata.tls_process_ocsp_response.str1.4:00000000000004cc .LC39
C:\Users\stapi\AppData\Local\Temp\ccEJMvgv.s:422    .rodata.tls_process_ocsp_response.str1.4:00000000000004f0 .LC40
C:\Users\stapi\AppData\Local\Temp\ccEJMvgv.s:425    .rodata.tls_process_ocsp_response.str1.4:0000000000000500 .LC41
C:\Users\stapi\AppData\Local\Temp\ccEJMvgv.s:428    .rodata.tls_process_ocsp_response.str1.4:000000000000051c .LC42
C:\Users\stapi\AppData\Local\Temp\ccEJMvgv.s:431    .rodata.tls_process_ocsp_response.str1.4:0000000000000564 .LC43
C:\Users\stapi\AppData\Local\Temp\ccEJMvgv.s:476    .rodata.tls_process_ocsp_response.str1.4:00000000000007a8 .LC58
C:\Users\stapi\AppData\Local\Temp\ccEJMvgv.s:515    .rodata.tls_process_ocsp_response.str1.4:000000000000096c .LC71
C:\Users\stapi\AppData\Local\Temp\ccEJMvgv.s:518    .rodata.tls_process_ocsp_response.str1.4:00000000000009ac .LC72
C:\Users\stapi\AppData\Local\Temp\ccEJMvgv.s:434    .rodata.tls_process_ocsp_response.str1.4:00000000000005a4 .LC44
C:\Users\stapi\AppData\Local\Temp\ccEJMvgv.s:437    .rodata.tls_process_ocsp_response.str1.4:0000000000000608 .LC45
C:\Users\stapi\AppData\Local\Temp\ccEJMvgv.s:440    .rodata.tls_process_ocsp_response.str1.4:0000000000000620 .LC46
C:\Users\stapi\AppData\Local\Temp\ccEJMvgv.s:443    .rodata.tls_process_ocsp_response.str1.4:000000000000064c .LC47
C:\Users\stapi\AppData\Local\Temp\ccEJMvgv.s:446    .rodata.tls_process_ocsp_response.str1.4:0000000000000664 .LC48
C:\Users\stapi\AppData\Local\Temp\ccEJMvgv.s:449    .rodata.tls_process_ocsp_response.str1.4:0000000000000688 .LC49
C:\Users\stapi\AppData\Local\Temp\ccEJMvgv.s:452    .rodata.tls_process_ocsp_response.str1.4:00000000000006a0 .LC50
C:\Users\stapi\AppData\Local\Temp\ccEJMvgv.s:455    .rodata.tls_process_ocsp_response.str1.4:00000000000006b8 .LC51
C:\Users\stapi\AppData\Local\Temp\ccEJMvgv.s:458    .rodata.tls_process_ocsp_response.str1.4:00000000000006d8 .LC52
C:\Users\stapi\AppData\Local\Temp\ccEJMvgv.s:461    .rodata.tls_process_ocsp_response.str1.4:00000000000006f8 .LC53
C:\Users\stapi\AppData\Local\Temp\ccEJMvgv.s:464    .rodata.tls_process_ocsp_response.str1.4:0000000000000728 .LC54
C:\Users\stapi\AppData\Local\Temp\ccEJMvgv.s:467    .rodata.tls_process_ocsp_response.str1.4:000000000000073c .LC55
C:\Users\stapi\AppData\Local\Temp\ccEJMvgv.s:470    .rodata.tls_process_ocsp_response.str1.4:000000000000075c .LC56
C:\Users\stapi\AppData\Local\Temp\ccEJMvgv.s:473    .rodata.tls_process_ocsp_response.str1.4:000000000000077c .LC57
C:\Users\stapi\AppData\Local\Temp\ccEJMvgv.s:479    .rodata.tls_process_ocsp_response.str1.4:00000000000007d4 .LC59
C:\Users\stapi\AppData\Local\Temp\ccEJMvgv.s:482    .rodata.tls_process_ocsp_response.str1.4:00000000000007e8 .LC60
C:\Users\stapi\AppData\Local\Temp\ccEJMvgv.s:485    .rodata.tls_process_ocsp_response.str1.4:0000000000000804 .LC61
C:\Users\stapi\AppData\Local\Temp\ccEJMvgv.s:488    .rodata.tls_process_ocsp_response.str1.4:0000000000000828 .LC62
C:\Users\stapi\AppData\Local\Temp\ccEJMvgv.s:491    .rodata.tls_process_ocsp_response.str1.4:000000000000083c .LC63
C:\Users\stapi\AppData\Local\Temp\ccEJMvgv.s:494    .rodata.tls_process_ocsp_response.str1.4:0000000000000860 .LC64
C:\Users\stapi\AppData\Local\Temp\ccEJMvgv.s:497    .rodata.tls_process_ocsp_response.str1.4:0000000000000884 .LC65
C:\Users\stapi\AppData\Local\Temp\ccEJMvgv.s:500    .rodata.tls_process_ocsp_response.str1.4:000000000000089c .LC66
C:\Users\stapi\AppData\Local\Temp\ccEJMvgv.s:503    .rodata.tls_process_ocsp_response.str1.4:00000000000008dc .LC67
C:\Users\stapi\AppData\Local\Temp\ccEJMvgv.s:506    .rodata.tls_process_ocsp_response.str1.4:0000000000000900 .LC68
C:\Users\stapi\AppData\Local\Temp\ccEJMvgv.s:509    .rodata.tls_process_ocsp_response.str1.4:0000000000000918 .LC69
C:\Users\stapi\AppData\Local\Temp\ccEJMvgv.s:512    .rodata.tls_process_ocsp_response.str1.4:0000000000000954 .LC70
C:\Users\stapi\AppData\Local\Temp\ccEJMvgv.s:590    .text.tls_process_ocsp_response:0000000000000046 .L22
C:\Users\stapi\AppData\Local\Temp\ccEJMvgv.s:626    .text.tls_process_ocsp_response:0000000000000068 .L23
C:\Users\stapi\AppData\Local\Temp\ccEJMvgv.s:667    .text.tls_process_ocsp_response:0000000000000096 .L25
C:\Users\stapi\AppData\Local\Temp\ccEJMvgv.s:672    .text.tls_process_ocsp_response:00000000000000a0 .L26
C:\Users\stapi\AppData\Local\Temp\ccEJMvgv.s:595    .text.tls_process_ocsp_response:000000000000004e .L166
C:\Users\stapi\AppData\Local\Temp\ccEJMvgv.s:712    .text.tls_process_ocsp_response:00000000000000dc .L27
C:\Users\stapi\AppData\Local\Temp\ccEJMvgv.s:604    .text.tls_process_ocsp_response:000000000000005a .L21
C:\Users\stapi\AppData\Local\Temp\ccEJMvgv.s:707    .text.tls_process_ocsp_response:00000000000000d8 .L121
C:\Users\stapi\AppData\Local\Temp\ccEJMvgv.s:758    .text.tls_process_ocsp_response:0000000000000124 .L28
C:\Users\stapi\AppData\Local\Temp\ccEJMvgv.s:770    .text.tls_process_ocsp_response:0000000000000138 .L153
C:\Users\stapi\AppData\Local\Temp\ccEJMvgv.s:762    .text.tls_process_ocsp_response:000000000000012c .L167
C:\Users\stapi\AppData\Local\Temp\ccEJMvgv.s:753    .text.tls_process_ocsp_response:000000000000011a .L29
C:\Users\stapi\AppData\Local\Temp\ccEJMvgv.s:807    .text.tls_process_ocsp_response:0000000000000170 .L32
C:\Users\stapi\AppData\Local\Temp\ccEJMvgv.s:895    .text.tls_process_ocsp_response:000000000000022a .L33
C:\Users\stapi\AppData\Local\Temp\ccEJMvgv.s:900    .text.tls_process_ocsp_response:0000000000000234 .L154
C:\Users\stapi\AppData\Local\Temp\ccEJMvgv.s:701    .text.tls_process_ocsp_response:00000000000000ce .L170
C:\Users\stapi\AppData\Local\Temp\ccEJMvgv.s:883    .text.tls_process_ocsp_response:0000000000000214 .L34
C:\Users\stapi\AppData\Local\Temp\ccEJMvgv.s:2564   .text.tls_process_ocsp_response:0000000000000c64 .L37
C:\Users\stapi\AppData\Local\Temp\ccEJMvgv.s:995    .text.tls_process_ocsp_response:00000000000002c4 .L38
C:\Users\stapi\AppData\Local\Temp\ccEJMvgv.s:1014   .text.tls_process_ocsp_response:00000000000002dc .L39
C:\Users\stapi\AppData\Local\Temp\ccEJMvgv.s:2547   .text.tls_process_ocsp_response:0000000000000c54 .L40
C:\Users\stapi\AppData\Local\Temp\ccEJMvgv.s:1042   .text.tls_process_ocsp_response:0000000000000300 .L41
C:\Users\stapi\AppData\Local\Temp\ccEJMvgv.s:1047   .text.tls_process_ocsp_response:000000000000030a .L42
C:\Users\stapi\AppData\Local\Temp\ccEJMvgv.s:1000   .text.tls_process_ocsp_response:00000000000002cc .L168
C:\Users\stapi\AppData\Local\Temp\ccEJMvgv.s:1008   .text.tls_process_ocsp_response:00000000000002d6 .L165
C:\Users\stapi\AppData\Local\Temp\ccEJMvgv.s:1130   .text.tls_process_ocsp_response:0000000000000376 .L44
C:\Users\stapi\AppData\Local\Temp\ccEJMvgv.s:1135   .text.tls_process_ocsp_response:0000000000000380 .L47
C:\Users\stapi\AppData\Local\Temp\ccEJMvgv.s:1377   .text.tls_process_ocsp_response:00000000000004e4 .L122
C:\Users\stapi\AppData\Local\Temp\ccEJMvgv.s:1294   .text.tls_process_ocsp_response:000000000000046e .L49
C:\Users\stapi\AppData\Local\Temp\ccEJMvgv.s:1300   .text.tls_process_ocsp_response:0000000000000478 .L55
C:\Users\stapi\AppData\Local\Temp\ccEJMvgv.s:1445   .text.tls_process_ocsp_response:000000000000055e .L56
C:\Users\stapi\AppData\Local\Temp\ccEJMvgv.s:1288   .text.tls_process_ocsp_response:0000000000000464 .L57
C:\Users\stapi\AppData\Local\Temp\ccEJMvgv.s:1383   .text.tls_process_ocsp_response:00000000000004e8 .L58
C:\Users\stapi\AppData\Local\Temp\ccEJMvgv.s:1322   .text.tls_process_ocsp_response:000000000000049e .L164
C:\Users\stapi\AppData\Local\Temp\ccEJMvgv.s:1317   .text.tls_process_ocsp_response:0000000000000496 .L51
C:\Users\stapi\AppData\Local\Temp\ccEJMvgv.s:1340   .text.tls_process_ocsp_response:00000000000004be .L52
C:\Users\stapi\AppData\Local\Temp\ccEJMvgv.s:1329   .text.tls_process_ocsp_response:00000000000004a8 .L53
C:\Users\stapi\AppData\Local\Temp\ccEJMvgv.s:1372   .text.tls_process_ocsp_response:00000000000004e0 .L123
C:\Users\stapi\AppData\Local\Temp\ccEJMvgv.s:1216   .text.tls_process_ocsp_response:00000000000003f4 .L50
C:\Users\stapi\AppData\Local\Temp\ccEJMvgv.s:1359   .text.tls_process_ocsp_response:00000000000004d4 .L54
C:\Users\stapi\AppData\Local\Temp\ccEJMvgv.s:1223   .text.tls_process_ocsp_response:00000000000003fa .L48
C:\Users\stapi\AppData\Local\Temp\ccEJMvgv.s:1419   .text.tls_process_ocsp_response:0000000000000530 .L59
C:\Users\stapi\AppData\Local\Temp\ccEJMvgv.s:1440   .text.tls_process_ocsp_response:0000000000000554 .L62
C:\Users\stapi\AppData\Local\Temp\ccEJMvgv.s:1453   .text.tls_process_ocsp_response:0000000000000572 .L63
C:\Users\stapi\AppData\Local\Temp\ccEJMvgv.s:1426   .text.tls_process_ocsp_response:0000000000000536 .L61
C:\Users\stapi\AppData\Local\Temp\ccEJMvgv.s:1506   .text.tls_process_ocsp_response:00000000000005dc .L64
C:\Users\stapi\AppData\Local\Temp\ccEJMvgv.s:1585   .text.tls_process_ocsp_response:000000000000065c .L70
C:\Users\stapi\AppData\Local\Temp\ccEJMvgv.s:1575   .text.tls_process_ocsp_response:0000000000000648 .L66
C:\Users\stapi\AppData\Local\Temp\ccEJMvgv.s:1560   .text.tls_process_ocsp_response:0000000000000636 .L67
C:\Users\stapi\AppData\Local\Temp\ccEJMvgv.s:1566   .text.tls_process_ocsp_response:0000000000000640 .L156
C:\Users\stapi\AppData\Local\Temp\ccEJMvgv.s:1486   .text.tls_process_ocsp_response:00000000000005b4 .L65
C:\Users\stapi\AppData\Local\Temp\ccEJMvgv.s:1496   .text.tls_process_ocsp_response:00000000000005c8 .L71
C:\Users\stapi\AppData\Local\Temp\ccEJMvgv.s:1638   .text.tls_process_ocsp_response:00000000000006b8 .L72
C:\Users\stapi\AppData\Local\Temp\ccEJMvgv.s:1643   .text.tls_process_ocsp_response:00000000000006c2 .L73
C:\Users\stapi\AppData\Local\Temp\ccEJMvgv.s:1680   .text.tls_process_ocsp_response:0000000000000700 .L74
C:\Users\stapi\AppData\Local\Temp\ccEJMvgv.s:2597   .text.tls_process_ocsp_response:0000000000000c8a .L75
C:\Users\stapi\AppData\Local\Temp\ccEJMvgv.s:1706   .text.tls_process_ocsp_response:0000000000000722 .L76
C:\Users\stapi\AppData\Local\Temp\ccEJMvgv.s:1406   .text.tls_process_ocsp_response:000000000000051a .L60
C:\Users\stapi\AppData\Local\Temp\ccEJMvgv.s:1692   .text.tls_process_ocsp_response:000000000000070e .L79
C:\Users\stapi\AppData\Local\Temp\ccEJMvgv.s:1711   .text.tls_process_ocsp_response:000000000000072a .L77
C:\Users\stapi\AppData\Local\Temp\ccEJMvgv.s:1855   .text.tls_process_ocsp_response:0000000000000818 .L158
C:\Users\stapi\AppData\Local\Temp\ccEJMvgv.s:1865   .text.tls_process_ocsp_response:000000000000082c .L117
C:\Users\stapi\AppData\Local\Temp\ccEJMvgv.s:1825   .text.tls_process_ocsp_response:00000000000007de .L81
C:\Users\stapi\AppData\Local\Temp\ccEJMvgv.s:1800   .text.tls_process_ocsp_response:00000000000007bc .L84
C:\Users\stapi\AppData\Local\Temp\ccEJMvgv.s:1699   .text.tls_process_ocsp_response:0000000000000716 .L163
C:\Users\stapi\AppData\Local\Temp\ccEJMvgv.s:1810   .text.tls_process_ocsp_response:00000000000007cc .L83
C:\Users\stapi\AppData\Local\Temp\ccEJMvgv.s:1739   .text.tls_process_ocsp_response:000000000000075a .L80
C:\Users\stapi\AppData\Local\Temp\ccEJMvgv.s:1883   .text.tls_process_ocsp_response:000000000000084c .L88
C:\Users\stapi\AppData\Local\Temp\ccEJMvgv.s:1889   .text.tls_process_ocsp_response:0000000000000858 .L89
C:\Users\stapi\AppData\Local\Temp\ccEJMvgv.s:1004   .text.tls_process_ocsp_response:00000000000002ce .L169
C:\Users\stapi\AppData\Local\Temp\ccEJMvgv.s:1932   .text.tls_process_ocsp_response:0000000000000890 .L90
C:\Users\stapi\AppData\Local\Temp\ccEJMvgv.s:1945   .text.tls_process_ocsp_response:00000000000008a4 .L91
C:\Users\stapi\AppData\Local\Temp\ccEJMvgv.s:2061   .text.tls_process_ocsp_response:0000000000000962 .L92
C:\Users\stapi\AppData\Local\Temp\ccEJMvgv.s:2072   .text.tls_process_ocsp_response:000000000000096a .L94
C:\Users\stapi\AppData\Local\Temp\ccEJMvgv.s:2080   .text.tls_process_ocsp_response:0000000000000974 .L95
C:\Users\stapi\AppData\Local\Temp\ccEJMvgv.s:1783   .text.tls_process_ocsp_response:00000000000007a4 .L87
C:\Users\stapi\AppData\Local\Temp\ccEJMvgv.s:1937   .text.tls_process_ocsp_response:0000000000000898 .L162
C:\Users\stapi\AppData\Local\Temp\ccEJMvgv.s:2042   .text.tls_process_ocsp_response:000000000000093a .L96
C:\Users\stapi\AppData\Local\Temp\ccEJMvgv.s:2176   .text.tls_process_ocsp_response:0000000000000a0c .L97
C:\Users\stapi\AppData\Local\Temp\ccEJMvgv.s:2182   .text.tls_process_ocsp_response:0000000000000a16 .L98
C:\Users\stapi\AppData\Local\Temp\ccEJMvgv.s:2055   .text.tls_process_ocsp_response:0000000000000958 .L161
C:\Users\stapi\AppData\Local\Temp\ccEJMvgv.s:2162   .text.tls_process_ocsp_response:00000000000009ec .L99
C:\Users\stapi\AppData\Local\Temp\ccEJMvgv.s:2225   .text.tls_process_ocsp_response:0000000000000a58 .L100
C:\Users\stapi\AppData\Local\Temp\ccEJMvgv.s:2229   .text.tls_process_ocsp_response:0000000000000a5e .L101
C:\Users\stapi\AppData\Local\Temp\ccEJMvgv.s:2251   .text.tls_process_ocsp_response:0000000000000a6c .L103
C:\Users\stapi\AppData\Local\Temp\ccEJMvgv.s:2237   .text.tls_process_ocsp_response:0000000000000a60 .L102
C:\Users\stapi\AppData\Local\Temp\ccEJMvgv.s:2283   .text.tls_process_ocsp_response:0000000000000aa2 .L105
C:\Users\stapi\AppData\Local\Temp\ccEJMvgv.s:2269   .text.tls_process_ocsp_response:0000000000000a8e .L106
C:\Users\stapi\AppData\Local\Temp\ccEJMvgv.s:2315   .text.tls_process_ocsp_response:0000000000000ad6 .L107
C:\Users\stapi\AppData\Local\Temp\ccEJMvgv.s:2320   .text.tls_process_ocsp_response:0000000000000ae0 .L108
C:\Users\stapi\AppData\Local\Temp\ccEJMvgv.s:2367   .text.tls_process_ocsp_response:0000000000000b3c .L109
C:\Users\stapi\AppData\Local\Temp\ccEJMvgv.s:2274   .text.tls_process_ocsp_response:0000000000000a96 .L160
C:\Users\stapi\AppData\Local\Temp\ccEJMvgv.s:2362   .text.tls_process_ocsp_response:0000000000000b32 .L110
C:\Users\stapi\AppData\Local\Temp\ccEJMvgv.s:2416   .text.tls_process_ocsp_response:0000000000000b8c .L111
C:\Users\stapi\AppData\Local\Temp\ccEJMvgv.s:2511   .text.tls_process_ocsp_response:0000000000000c20 .L112
C:\Users\stapi\AppData\Local\Temp\ccEJMvgv.s:2467   .text.tls_process_ocsp_response:0000000000000bd6 .L113
C:\Users\stapi\AppData\Local\Temp\ccEJMvgv.s:2462   .text.tls_process_ocsp_response:0000000000000bcc .L114
C:\Users\stapi\AppData\Local\Temp\ccEJMvgv.s:2525   .text.tls_process_ocsp_response:0000000000000c3c .L115
C:\Users\stapi\AppData\Local\Temp\ccEJMvgv.s:2575   .text.tls_process_ocsp_response:0000000000000c74 .L116
C:\Users\stapi\AppData\Local\Temp\ccEJMvgv.s:2557   .text.tls_process_ocsp_response:0000000000000c5e .L118
C:\Users\stapi\AppData\Local\Temp\ccEJMvgv.s:2589   .text.tls_process_ocsp_response:0000000000000c84 .L124
C:\Users\stapi\AppData\Local\Temp\ccEJMvgv.s:922    .text.tls_process_ocsp_response:0000000000000248 .L36
C:\Users\stapi\AppData\Local\Temp\ccEJMvgv.s:1729   .text.tls_process_ocsp_response:0000000000000746 .L120
C:\Users\stapi\AppData\Local\Temp\ccEJMvgv.s:1816   .text.tls_process_ocsp_response:00000000000007d0 .L82
C:\Users\stapi\AppData\Local\Temp\ccEJMvgv.s:8145   .debug_abbrev:0000000000000000 .Ldebug_abbrev0
C:\Users\stapi\AppData\Local\Temp\ccEJMvgv.s:11185  .debug_str:00000000000012a0 .LASF310
C:\Users\stapi\AppData\Local\Temp\ccEJMvgv.s:10639  .debug_str:00000000000001f1 .LASF311
C:\Users\stapi\AppData\Local\Temp\ccEJMvgv.s:10745  .debug_str:000000000000057d .LASF312
C:\Users\stapi\AppData\Local\Temp\ccEJMvgv.s:10511  .debug_ranges:0000000000000000 .Ldebug_ranges0
C:\Users\stapi\AppData\Local\Temp\ccEJMvgv.s:10567  .debug_line:0000000000000000 .Ldebug_line0
C:\Users\stapi\AppData\Local\Temp\ccEJMvgv.s:10785  .debug_str:0000000000000713 .LASF2
C:\Users\stapi\AppData\Local\Temp\ccEJMvgv.s:10619  .debug_str:0000000000000168 .LASF0
C:\Users\stapi\AppData\Local\Temp\ccEJMvgv.s:10687  .debug_str:00000000000003c1 .LASF1
C:\Users\stapi\AppData\Local\Temp\ccEJMvgv.s:11051  .debug_str:0000000000000eba .LASF3
C:\Users\stapi\AppData\Local\Temp\ccEJMvgv.s:11099  .debug_str:000000000000105c .LASF4
C:\Users\stapi\AppData\Local\Temp\ccEJMvgv.s:10991  .debug_str:0000000000000cea .LASF5
C:\Users\stapi\AppData\Local\Temp\ccEJMvgv.s:10735  .debug_str:000000000000051f .LASF6
C:\Users\stapi\AppData\Local\Temp\ccEJMvgv.s:11167  .debug_str:000000000000122a .LASF7
C:\Users\stapi\AppData\Local\Temp\ccEJMvgv.s:10571  .debug_str:0000000000000017 .LASF8
C:\Users\stapi\AppData\Local\Temp\ccEJMvgv.s:11077  .debug_str:0000000000000f94 .LASF9
C:\Users\stapi\AppData\Local\Temp\ccEJMvgv.s:10893  .debug_str:0000000000000a00 .LASF10
C:\Users\stapi\AppData\Local\Temp\ccEJMvgv.s:10721  .debug_str:00000000000004cb .LASF11
C:\Users\stapi\AppData\Local\Temp\ccEJMvgv.s:10841  .debug_str:00000000000008b5 .LASF12
C:\Users\stapi\AppData\Local\Temp\ccEJMvgv.s:10869  .debug_str:0000000000000979 .LASF13
C:\Users\stapi\AppData\Local\Temp\ccEJMvgv.s:10955  .debug_str:0000000000000bee .LASF14
C:\Users\stapi\AppData\Local\Temp\ccEJMvgv.s:10795  .debug_str:0000000000000737 .LASF15
C:\Users\stapi\AppData\Local\Temp\ccEJMvgv.s:10889  .debug_str:00000000000009df .LASF16
C:\Users\stapi\AppData\Local\Temp\ccEJMvgv.s:11021  .debug_str:0000000000000dcf .LASF18
C:\Users\stapi\AppData\Local\Temp\ccEJMvgv.s:11169  .debug_str:000000000000123d .LASF17
C:\Users\stapi\AppData\Local\Temp\ccEJMvgv.s:10671  .debug_str:0000000000000358 .LASF19
C:\Users\stapi\AppData\Local\Temp\ccEJMvgv.s:10923  .debug_str:0000000000000aee .LASF20
C:\Users\stapi\AppData\Local\Temp\ccEJMvgv.s:10769  .debug_str:000000000000069d .LASF21
C:\Users\stapi\AppData\Local\Temp\ccEJMvgv.s:10607  .debug_str:0000000000000123 .LASF22
C:\Users\stapi\AppData\Local\Temp\ccEJMvgv.s:11197  .debug_str:00000000000013fc .LASF23
C:\Users\stapi\AppData\Local\Temp\ccEJMvgv.s:10935  .debug_str:0000000000000b50 .LASF24
C:\Users\stapi\AppData\Local\Temp\ccEJMvgv.s:10749  .debug_str:0000000000000619 .LASF25
C:\Users\stapi\AppData\Local\Temp\ccEJMvgv.s:10791  .debug_str:0000000000000729 .LASF26
C:\Users\stapi\AppData\Local\Temp\ccEJMvgv.s:10903  .debug_str:0000000000000a46 .LASF27
C:\Users\stapi\AppData\Local\Temp\ccEJMvgv.s:10853  .debug_str:00000000000008fe .LASF28
C:\Users\stapi\AppData\Local\Temp\ccEJMvgv.s:10887  .debug_str:00000000000009d5 .LASF33
C:\Users\stapi\AppData\Local\Temp\ccEJMvgv.s:11127  .debug_str:0000000000001111 .LASF29
C:\Users\stapi\AppData\Local\Temp\ccEJMvgv.s:11129  .debug_str:0000000000001128 .LASF30
C:\Users\stapi\AppData\Local\Temp\ccEJMvgv.s:10801  .debug_str:000000000000075f .LASF31
C:\Users\stapi\AppData\Local\Temp\ccEJMvgv.s:10957  .debug_str:0000000000000bf7 .LASF32
C:\Users\stapi\AppData\Local\Temp\ccEJMvgv.s:11083  .debug_str:0000000000000fd6 .LASF34
C:\Users\stapi\AppData\Local\Temp\ccEJMvgv.s:11105  .debug_str:000000000000107a .LASF35
C:\Users\stapi\AppData\Local\Temp\ccEJMvgv.s:11089  .debug_str:000000000000101a .LASF36
C:\Users\stapi\AppData\Local\Temp\ccEJMvgv.s:10737  .debug_str:000000000000052a .LASF37
C:\Users\stapi\AppData\Local\Temp\ccEJMvgv.s:10569  .debug_str:0000000000000000 .LASF38
C:\Users\stapi\AppData\Local\Temp\ccEJMvgv.s:11063  .debug_str:0000000000000f1a .LASF39
C:\Users\stapi\AppData\Local\Temp\ccEJMvgv.s:11075  .debug_str:0000000000000f7a .LASF40
C:\Users\stapi\AppData\Local\Temp\ccEJMvgv.s:11161  .debug_str:00000000000011e9 .LASF41
C:\Users\stapi\AppData\Local\Temp\ccEJMvgv.s:11107  .debug_str:000000000000108f .LASF42
C:\Users\stapi\AppData\Local\Temp\ccEJMvgv.s:10937  .debug_str:0000000000000b5c .LASF43
C:\Users\stapi\AppData\Local\Temp\ccEJMvgv.s:10911  .debug_str:0000000000000a76 .LASF44
C:\Users\stapi\AppData\Local\Temp\ccEJMvgv.s:10837  .debug_str:0000000000000888 .LASF45
C:\Users\stapi\AppData\Local\Temp\ccEJMvgv.s:10771  .debug_str:00000000000006a2 .LASF46
C:\Users\stapi\AppData\Local\Temp\ccEJMvgv.s:10635  .debug_str:00000000000001d4 .LASF47
C:\Users\stapi\AppData\Local\Temp\ccEJMvgv.s:10675  .debug_str:0000000000000371 .LASF48
C:\Users\stapi\AppData\Local\Temp\ccEJMvgv.s:11135  .debug_str:0000000000001155 .LASF49
C:\Users\stapi\AppData\Local\Temp\ccEJMvgv.s:10637  .debug_str:00000000000001e9 .LASF50
C:\Users\stapi\AppData\Local\Temp\ccEJMvgv.s:10793  .debug_str:0000000000000732 .LASF51
C:\Users\stapi\AppData\Local\Temp\ccEJMvgv.s:11003  .debug_str:0000000000000d47 .LASF52
C:\Users\stapi\AppData\Local\Temp\ccEJMvgv.s:10613  .debug_str:000000000000014a .LASF53
C:\Users\stapi\AppData\Local\Temp\ccEJMvgv.s:11173  .debug_str:000000000000125d .LASF54
C:\Users\stapi\AppData\Local\Temp\ccEJMvgv.s:11019  .debug_str:0000000000000dc0 .LASF55
C:\Users\stapi\AppData\Local\Temp\ccEJMvgv.s:11027  .debug_str:0000000000000df9 .LASF56
C:\Users\stapi\AppData\Local\Temp\ccEJMvgv.s:10725  .debug_str:00000000000004f1 .LASF57
C:\Users\stapi\AppData\Local\Temp\ccEJMvgv.s:10733  .debug_str:0000000000000514 .LASF58
C:\Users\stapi\AppData\Local\Temp\ccEJMvgv.s:10805  .debug_str:0000000000000791 .LASF59
C:\Users\stapi\AppData\Local\Temp\ccEJMvgv.s:11097  .debug_str:0000000000001057 .LASF60
C:\Users\stapi\AppData\Local\Temp\ccEJMvgv.s:10897  .debug_str:0000000000000a1a .LASF61
C:\Users\stapi\AppData\Local\Temp\ccEJMvgv.s:10851  .debug_str:00000000000008ef .LASF313
C:\Users\stapi\AppData\Local\Temp\ccEJMvgv.s:10655  .debug_str:00000000000002ea .LASF62
C:\Users\stapi\AppData\Local\Temp\ccEJMvgv.s:10599  .debug_str:00000000000000ea .LASF63
C:\Users\stapi\AppData\Local\Temp\ccEJMvgv.s:10649  .debug_str:00000000000002c2 .LASF64
C:\Users\stapi\AppData\Local\Temp\ccEJMvgv.s:10667  .debug_str:0000000000000340 .LASF65
C:\Users\stapi\AppData\Local\Temp\ccEJMvgv.s:10789  .debug_str:0000000000000721 .LASF66
C:\Users\stapi\AppData\Local\Temp\ccEJMvgv.s:11065  .debug_str:0000000000000f2b .LASF67
C:\Users\stapi\AppData\Local\Temp\ccEJMvgv.s:11147  .debug_str:000000000000118d .LASF68
C:\Users\stapi\AppData\Local\Temp\ccEJMvgv.s:11033  .debug_str:0000000000000e24 .LASF69
C:\Users\stapi\AppData\Local\Temp\ccEJMvgv.s:11007  .debug_str:0000000000000d5d .LASF70
C:\Users\stapi\AppData\Local\Temp\ccEJMvgv.s:10715  .debug_str:00000000000004ab .LASF71
C:\Users\stapi\AppData\Local\Temp\ccEJMvgv.s:10927  .debug_str:0000000000000b0e .LASF72
C:\Users\stapi\AppData\Local\Temp\ccEJMvgv.s:10839  .debug_str:00000000000008a1 .LASF73
C:\Users\stapi\AppData\Local\Temp\ccEJMvgv.s:11069  .debug_str:0000000000000f47 .LASF74
C:\Users\stapi\AppData\Local\Temp\ccEJMvgv.s:10627  .debug_str:0000000000000194 .LASF75
C:\Users\stapi\AppData\Local\Temp\ccEJMvgv.s:10589  .debug_str:0000000000000095 .LASF76
C:\Users\stapi\AppData\Local\Temp\ccEJMvgv.s:11057  .debug_str:0000000000000edd .LASF77
C:\Users\stapi\AppData\Local\Temp\ccEJMvgv.s:11061  .debug_str:0000000000000f09 .LASF78
C:\Users\stapi\AppData\Local\Temp\ccEJMvgv.s:10629  .debug_str:00000000000001a6 .LASF79
C:\Users\stapi\AppData\Local\Temp\ccEJMvgv.s:11067  .debug_str:0000000000000f36 .LASF80
C:\Users\stapi\AppData\Local\Temp\ccEJMvgv.s:11093  .debug_str:0000000000001037 .LASF81
C:\Users\stapi\AppData\Local\Temp\ccEJMvgv.s:10835  .debug_str:0000000000000879 .LASF82
C:\Users\stapi\AppData\Local\Temp\ccEJMvgv.s:10761  .debug_str:0000000000000669 .LASF83
C:\Users\stapi\AppData\Local\Temp\ccEJMvgv.s:10609  .debug_str:0000000000000129 .LASF84
C:\Users\stapi\AppData\Local\Temp\ccEJMvgv.s:10731  .debug_str:000000000000050f .LASF85
C:\Users\stapi\AppData\Local\Temp\ccEJMvgv.s:10707  .debug_str:000000000000047c .LASF86
C:\Users\stapi\AppData\Local\Temp\ccEJMvgv.s:10647  .debug_str:00000000000002bc .LASF87
C:\Users\stapi\AppData\Local\Temp\ccEJMvgv.s:10883  .debug_str:00000000000009bf .LASF88
C:\Users\stapi\AppData\Local\Temp\ccEJMvgv.s:10833  .debug_str:0000000000000872 .LASF89
C:\Users\stapi\AppData\Local\Temp\ccEJMvgv.s:10917  .debug_str:0000000000000ac7 .LASF90
C:\Users\stapi\AppData\Local\Temp\ccEJMvgv.s:10919  .debug_str:0000000000000ad4 .LASF91
C:\Users\stapi\AppData\Local\Temp\ccEJMvgv.s:10921  .debug_str:0000000000000ae1 .LASF92
C:\Users\stapi\AppData\Local\Temp\ccEJMvgv.s:10997  .debug_str:0000000000000d18 .LASF93
C:\Users\stapi\AppData\Local\Temp\ccEJMvgv.s:10621  .debug_str:0000000000000175 .LASF94
C:\Users\stapi\AppData\Local\Temp\ccEJMvgv.s:10623  .debug_str:000000000000017a .LASF95
C:\Users\stapi\AppData\Local\Temp\ccEJMvgv.s:10615  .debug_str:0000000000000153 .LASF96
C:\Users\stapi\AppData\Local\Temp\ccEJMvgv.s:10625  .debug_str:0000000000000182 .LASF97
C:\Users\stapi\AppData\Local\Temp\ccEJMvgv.s:10753  .debug_str:0000000000000633 .LASF98
C:\Users\stapi\AppData\Local\Temp\ccEJMvgv.s:10881  .debug_str:00000000000009b8 .LASF99
C:\Users\stapi\AppData\Local\Temp\ccEJMvgv.s:11031  .debug_str:0000000000000e19 .LASF100
C:\Users\stapi\AppData\Local\Temp\ccEJMvgv.s:10669  .debug_str:0000000000000349 .LASF101
C:\Users\stapi\AppData\Local\Temp\ccEJMvgv.s:11137  .debug_str:000000000000115b .LASF102
C:\Users\stapi\AppData\Local\Temp\ccEJMvgv.s:11123  .debug_str:00000000000010fc .LASF103
C:\Users\stapi\AppData\Local\Temp\ccEJMvgv.s:11055  .debug_str:0000000000000ece .LASF104
C:\Users\stapi\AppData\Local\Temp\ccEJMvgv.s:10711  .debug_str:0000000000000495 .LASF105
C:\Users\stapi\AppData\Local\Temp\ccEJMvgv.s:10879  .debug_str:00000000000009a9 .LASF106
C:\Users\stapi\AppData\Local\Temp\ccEJMvgv.s:11015  .debug_str:0000000000000da6 .LASF107
C:\Users\stapi\AppData\Local\Temp\ccEJMvgv.s:10809  .debug_str:00000000000007a2 .LASF108
C:\Users\stapi\AppData\Local\Temp\ccEJMvgv.s:10661  .debug_str:0000000000000320 .LASF109
C:\Users\stapi\AppData\Local\Temp\ccEJMvgv.s:11141  .debug_str:000000000000116c .LASF110
C:\Users\stapi\AppData\Local\Temp\ccEJMvgv.s:10699  .debug_str:000000000000043b .LASF111
C:\Users\stapi\AppData\Local\Temp\ccEJMvgv.s:10747  .debug_str:000000000000060f .LASF112
C:\Users\stapi\AppData\Local\Temp\ccEJMvgv.s:10593  .debug_str:00000000000000b7 .LASF113
C:\Users\stapi\AppData\Local\Temp\ccEJMvgv.s:10581  .debug_str:000000000000005c .LASF114
C:\Users\stapi\AppData\Local\Temp\ccEJMvgv.s:10713  .debug_str:00000000000004a0 .LASF115
C:\Users\stapi\AppData\Local\Temp\ccEJMvgv.s:10995  .debug_str:0000000000000d0f .LASF116
C:\Users\stapi\AppData\Local\Temp\ccEJMvgv.s:10967  .debug_str:0000000000000c3e .LASF117
C:\Users\stapi\AppData\Local\Temp\ccEJMvgv.s:10977  .debug_str:0000000000000c85 .LASF118
C:\Users\stapi\AppData\Local\Temp\ccEJMvgv.s:10861  .debug_str:000000000000093d .LASF119
C:\Users\stapi\AppData\Local\Temp\ccEJMvgv.s:10939  .debug_str:0000000000000b78 .LASF120
C:\Users\stapi\AppData\Local\Temp\ccEJMvgv.s:10909  .debug_str:0000000000000a67 .LASF121
C:\Users\stapi\AppData\Local\Temp\ccEJMvgv.s:10817  .debug_str:00000000000007e3 .LASF122
C:\Users\stapi\AppData\Local\Temp\ccEJMvgv.s:10831  .debug_str:000000000000085e .LASF123
C:\Users\stapi\AppData\Local\Temp\ccEJMvgv.s:10775  .debug_str:00000000000006cb .LASF124
C:\Users\stapi\AppData\Local\Temp\ccEJMvgv.s:10695  .debug_str:0000000000000410 .LASF125
C:\Users\stapi\AppData\Local\Temp\ccEJMvgv.s:10813  .debug_str:00000000000007c0 .LASF126
C:\Users\stapi\AppData\Local\Temp\ccEJMvgv.s:11041  .debug_str:0000000000000e64 .LASF127
C:\Users\stapi\AppData\Local\Temp\ccEJMvgv.s:10855  .debug_str:0000000000000908 .LASF128
C:\Users\stapi\AppData\Local\Temp\ccEJMvgv.s:11149  .debug_str:0000000000001193 .LASF129
C:\Users\stapi\AppData\Local\Temp\ccEJMvgv.s:10979  .debug_str:0000000000000c92 .LASF130
C:\Users\stapi\AppData\Local\Temp\ccEJMvgv.s:10961  .debug_str:0000000000000c0d .LASF131
C:\Users\stapi\AppData\Local\Temp\ccEJMvgv.s:10685  .debug_str:00000000000003ae .LASF132
C:\Users\stapi\AppData\Local\Temp\ccEJMvgv.s:10941  .debug_str:0000000000000b85 .LASF133
C:\Users\stapi\AppData\Local\Temp\ccEJMvgv.s:10891  .debug_str:00000000000009e9 .LASF134
C:\Users\stapi\AppData\Local\Temp\ccEJMvgv.s:11081  .debug_str:0000000000000fc0 .LASF135
C:\Users\stapi\AppData\Local\Temp\ccEJMvgv.s:10691  .debug_str:00000000000003e4 .LASF136
C:\Users\stapi\AppData\Local\Temp\ccEJMvgv.s:10693  .debug_str:00000000000003fa .LASF137
C:\Users\stapi\AppData\Local\Temp\ccEJMvgv.s:11183  .debug_str:0000000000001290 .LASF138
C:\Users\stapi\AppData\Local\Temp\ccEJMvgv.s:10773  .debug_str:00000000000006c0 .LASF139
C:\Users\stapi\AppData\Local\Temp\ccEJMvgv.s:10847  .debug_str:00000000000008d7 .LASF140
C:\Users\stapi\AppData\Local\Temp\ccEJMvgv.s:11095  .debug_str:0000000000001049 .LASF141
C:\Users\stapi\AppData\Local\Temp\ccEJMvgv.s:11073  .debug_str:0000000000000f6f .LASF142
C:\Users\stapi\AppData\Local\Temp\ccEJMvgv.s:11151  .debug_str:00000000000011aa .LASF143
C:\Users\stapi\AppData\Local\Temp\ccEJMvgv.s:10763  .debug_str:000000000000066f .LASF144
C:\Users\stapi\AppData\Local\Temp\ccEJMvgv.s:10929  .debug_str:0000000000000b28 .LASF145
C:\Users\stapi\AppData\Local\Temp\ccEJMvgv.s:10719  .debug_str:00000000000004c1 .LASF146
C:\Users\stapi\AppData\Local\Temp\ccEJMvgv.s:10895  .debug_str:0000000000000a0e .LASF147
C:\Users\stapi\AppData\Local\Temp\ccEJMvgv.s:10683  .debug_str:00000000000003a2 .LASF168
C:\Users\stapi\AppData\Local\Temp\ccEJMvgv.s:10825  .debug_str:000000000000081b .LASF148
C:\Users\stapi\AppData\Local\Temp\ccEJMvgv.s:10863  .debug_str:0000000000000947 .LASF149
C:\Users\stapi\AppData\Local\Temp\ccEJMvgv.s:10767  .debug_str:000000000000068c .LASF150
C:\Users\stapi\AppData\Local\Temp\ccEJMvgv.s:10677  .debug_str:000000000000037f .LASF151
C:\Users\stapi\AppData\Local\Temp\ccEJMvgv.s:10665  .debug_str:0000000000000336 .LASF152
C:\Users\stapi\AppData\Local\Temp\ccEJMvgv.s:10575  .debug_str:000000000000002d .LASF153
C:\Users\stapi\AppData\Local\Temp\ccEJMvgv.s:10757  .debug_str:0000000000000650 .LASF154
C:\Users\stapi\AppData\Local\Temp\ccEJMvgv.s:11049  .debug_str:0000000000000eb2 .LASF155
C:\Users\stapi\AppData\Local\Temp\ccEJMvgv.s:10681  .debug_str:0000000000000398 .LASF156
C:\Users\stapi\AppData\Local\Temp\ccEJMvgv.s:10703  .debug_str:0000000000000461 .LASF157
C:\Users\stapi\AppData\Local\Temp\ccEJMvgv.s:10907  .debug_str:0000000000000a5f .LASF158
C:\Users\stapi\AppData\Local\Temp\ccEJMvgv.s:10679  .debug_str:000000000000038f .LASF159
C:\Users\stapi\AppData\Local\Temp\ccEJMvgv.s:10843  .debug_str:00000000000008ba .LASF160
C:\Users\stapi\AppData\Local\Temp\ccEJMvgv.s:10577  .debug_str:0000000000000036 .LASF161
C:\Users\stapi\AppData\Local\Temp\ccEJMvgv.s:10573  .debug_str:0000000000000020 .LASF162
C:\Users\stapi\AppData\Local\Temp\ccEJMvgv.s:10971  .debug_str:0000000000000c5f .LASF163
C:\Users\stapi\AppData\Local\Temp\ccEJMvgv.s:11191  .debug_str:00000000000013bf .LASF164
C:\Users\stapi\AppData\Local\Temp\ccEJMvgv.s:10697  .debug_str:0000000000000429 .LASF165
C:\Users\stapi\AppData\Local\Temp\ccEJMvgv.s:11053  .debug_str:0000000000000ec4 .LASF166
C:\Users\stapi\AppData\Local\Temp\ccEJMvgv.s:10947  .debug_str:0000000000000bbd .LASF167
C:\Users\stapi\AppData\Local\Temp\ccEJMvgv.s:10819  .debug_str:00000000000007f3 .LASF169
C:\Users\stapi\AppData\Local\Temp\ccEJMvgv.s:10953  .debug_str:0000000000000bdc .LASF170
C:\Users\stapi\AppData\Local\Temp\ccEJMvgv.s:10965  .debug_str:0000000000000c30 .LASF171
C:\Users\stapi\AppData\Local\Temp\ccEJMvgv.s:11125  .debug_str:0000000000001106 .LASF172
C:\Users\stapi\AppData\Local\Temp\ccEJMvgv.s:11153  .debug_str:00000000000011b6 .LASF173
C:\Users\stapi\AppData\Local\Temp\ccEJMvgv.s:10963  .debug_str:0000000000000c1f .LASF174
C:\Users\stapi\AppData\Local\Temp\ccEJMvgv.s:10659  .debug_str:0000000000000312 .LASF175
C:\Users\stapi\AppData\Local\Temp\ccEJMvgv.s:11117  .debug_str:00000000000010d6 .LASF176
C:\Users\stapi\AppData\Local\Temp\ccEJMvgv.s:10815  .debug_str:00000000000007da .LASF177
C:\Users\stapi\AppData\Local\Temp\ccEJMvgv.s:11111  .debug_str:00000000000010b2 .LASF178
C:\Users\stapi\AppData\Local\Temp\ccEJMvgv.s:11039  .debug_str:0000000000000e5b .LASF179
C:\Users\stapi\AppData\Local\Temp\ccEJMvgv.s:10689  .debug_str:00000000000003cd .LASF180
C:\Users\stapi\AppData\Local\Temp\ccEJMvgv.s:10803  .debug_str:0000000000000774 .LASF181
C:\Users\stapi\AppData\Local\Temp\ccEJMvgv.s:10811  .debug_str:00000000000007ad .LASF182
C:\Users\stapi\AppData\Local\Temp\ccEJMvgv.s:11047  .debug_str:0000000000000e93 .LASF183
C:\Users\stapi\AppData\Local\Temp\ccEJMvgv.s:10777  .debug_str:00000000000006e0 .LASF184
C:\Users\stapi\AppData\Local\Temp\ccEJMvgv.s:11043  .debug_str:0000000000000e7b .LASF185
C:\Users\stapi\AppData\Local\Temp\ccEJMvgv.s:10741  .debug_str:000000000000055c .LASF186
C:\Users\stapi\AppData\Local\Temp\ccEJMvgv.s:10865  .debug_str:0000000000000953 .LASF187
C:\Users\stapi\AppData\Local\Temp\ccEJMvgv.s:10993  .debug_str:0000000000000cf4 .LASF188
C:\Users\stapi\AppData\Local\Temp\ccEJMvgv.s:10673  .debug_str:000000000000035f .LASF189
C:\Users\stapi\AppData\Local\Temp\ccEJMvgv.s:10857  .debug_str:0000000000000924 .LASF190
C:\Users\stapi\AppData\Local\Temp\ccEJMvgv.s:11121  .debug_str:00000000000010e9 .LASF191
C:\Users\stapi\AppData\Local\Temp\ccEJMvgv.s:11079  .debug_str:0000000000000fa6 .LASF192
C:\Users\stapi\AppData\Local\Temp\ccEJMvgv.s:10709  .debug_str:0000000000000485 .LASF193
C:\Users\stapi\AppData\Local\Temp\ccEJMvgv.s:10905  .debug_str:0000000000000a52 .LASF194
C:\Users\stapi\AppData\Local\Temp\ccEJMvgv.s:11177  .debug_str:0000000000001276 .LASF195
C:\Users\stapi\AppData\Local\Temp\ccEJMvgv.s:10617  .debug_str:0000000000000161 .LASF196
C:\Users\stapi\AppData\Local\Temp\ccEJMvgv.s:10797  .debug_str:000000000000073d .LASF197
C:\Users\stapi\AppData\Local\Temp\ccEJMvgv.s:11139  .debug_str:0000000000001166 .LASF198
C:\Users\stapi\AppData\Local\Temp\ccEJMvgv.s:10823  .debug_str:0000000000000810 .LASF199
C:\Users\stapi\AppData\Local\Temp\ccEJMvgv.s:10821  .debug_str:0000000000000801 .LASF200
C:\Users\stapi\AppData\Local\Temp\ccEJMvgv.s:10743  .debug_str:000000000000056f .LASF201
C:\Users\stapi\AppData\Local\Temp\ccEJMvgv.s:10585  .debug_str:0000000000000074 .LASF202
C:\Users\stapi\AppData\Local\Temp\ccEJMvgv.s:10999  .debug_str:0000000000000d29 .LASF203
C:\Users\stapi\AppData\Local\Temp\ccEJMvgv.s:10783  .debug_str:0000000000000707 .LASF204
C:\Users\stapi\AppData\Local\Temp\ccEJMvgv.s:11023  .debug_str:0000000000000dd7 .LASF205
C:\Users\stapi\AppData\Local\Temp\ccEJMvgv.s:10653  .debug_str:00000000000002d4 .LASF206
C:\Users\stapi\AppData\Local\Temp\ccEJMvgv.s:11115  .debug_str:00000000000010c6 .LASF207
C:\Users\stapi\AppData\Local\Temp\ccEJMvgv.s:10579  .debug_str:0000000000000044 .LASF208
C:\Users\stapi\AppData\Local\Temp\ccEJMvgv.s:10587  .debug_str:0000000000000082 .LASF209
C:\Users\stapi\AppData\Local\Temp\ccEJMvgv.s:10877  .debug_str:000000000000099e .LASF210
C:\Users\stapi\AppData\Local\Temp\ccEJMvgv.s:10755  .debug_str:000000000000063d .LASF211
C:\Users\stapi\AppData\Local\Temp\ccEJMvgv.s:10765  .debug_str:000000000000067d .LASF212
C:\Users\stapi\AppData\Local\Temp\ccEJMvgv.s:11187  .debug_str:0000000000001399 .LASF213
C:\Users\stapi\AppData\Local\Temp\ccEJMvgv.s:10901  .debug_str:0000000000000a38 .LASF214
C:\Users\stapi\AppData\Local\Temp\ccEJMvgv.s:10969  .debug_str:0000000000000c4d .LASF215
C:\Users\stapi\AppData\Local\Temp\ccEJMvgv.s:10845  .debug_str:00000000000008c5 .LASF216
C:\Users\stapi\AppData\Local\Temp\ccEJMvgv.s:10945  .debug_str:0000000000000bac .LASF217
C:\Users\stapi\AppData\Local\Temp\ccEJMvgv.s:10595  .debug_str:00000000000000c5 .LASF218
C:\Users\stapi\AppData\Local\Temp\ccEJMvgv.s:11101  .debug_str:000000000000106a .LASF219
C:\Users\stapi\AppData\Local\Temp\ccEJMvgv.s:11195  .debug_str:00000000000013f2 .LASF220
C:\Users\stapi\AppData\Local\Temp\ccEJMvgv.s:10951  .debug_str:0000000000000bd7 .LASF221
C:\Users\stapi\AppData\Local\Temp\ccEJMvgv.s:10899  .debug_str:0000000000000a26 .LASF222
C:\Users\stapi\AppData\Local\Temp\ccEJMvgv.s:11013  .debug_str:0000000000000d90 .LASF223
C:\Users\stapi\AppData\Local\Temp\ccEJMvgv.s:10933  .debug_str:0000000000000b42 .LASF224
C:\Users\stapi\AppData\Local\Temp\ccEJMvgv.s:11145  .debug_str:0000000000001184 .LASF225
C:\Users\stapi\AppData\Local\Temp\ccEJMvgv.s:10631  .debug_str:00000000000001b8 .LASF226
C:\Users\stapi\AppData\Local\Temp\ccEJMvgv.s:10849  .debug_str:00000000000008e3 .LASF227
C:\Users\stapi\AppData\Local\Temp\ccEJMvgv.s:10867  .debug_str:0000000000000967 .LASF228
C:\Users\stapi\AppData\Local\Temp\ccEJMvgv.s:10597  .debug_str:00000000000000da .LASF229
C:\Users\stapi\AppData\Local\Temp\ccEJMvgv.s:11029  .debug_str:0000000000000e04 .LASF230
C:\Users\stapi\AppData\Local\Temp\ccEJMvgv.s:10943  .debug_str:0000000000000b9b .LASF231
C:\Users\stapi\AppData\Local\Temp\ccEJMvgv.s:11175  .debug_str:0000000000001268 .LASF232
C:\Users\stapi\AppData\Local\Temp\ccEJMvgv.s:10931  .debug_str:0000000000000b31 .LASF233
C:\Users\stapi\AppData\Local\Temp\ccEJMvgv.s:10799  .debug_str:000000000000074a .LASF234
C:\Users\stapi\AppData\Local\Temp\ccEJMvgv.s:11035  .debug_str:0000000000000e30 .LASF235
C:\Users\stapi\AppData\Local\Temp\ccEJMvgv.s:11189  .debug_str:00000000000013a0 .LASF236
C:\Users\stapi\AppData\Local\Temp\ccEJMvgv.s:10925  .debug_str:0000000000000af3 .LASF237
C:\Users\stapi\AppData\Local\Temp\ccEJMvgv.s:11059  .debug_str:0000000000000eee .LASF238
C:\Users\stapi\AppData\Local\Temp\ccEJMvgv.s:11009  .debug_str:0000000000000d64 .LASF239
C:\Users\stapi\AppData\Local\Temp\ccEJMvgv.s:10657  .debug_str:00000000000002f4 .LASF240
C:\Users\stapi\AppData\Local\Temp\ccEJMvgv.s:10915  .debug_str:0000000000000aad .LASF314
C:\Users\stapi\AppData\Local\Temp\ccEJMvgv.s:525    .text.tls_process_ocsp_response:0000000000000000 .LFB92
C:\Users\stapi\AppData\Local\Temp\ccEJMvgv.s:2624   .text.tls_process_ocsp_response:0000000000000cac .LFE92
C:\Users\stapi\AppData\Local\Temp\ccEJMvgv.s:10601  .debug_str:00000000000000f4 .LASF241
C:\Users\stapi\AppData\Local\Temp\ccEJMvgv.s:9168   .debug_loc:0000000000000000 .LLST8
C:\Users\stapi\AppData\Local\Temp\ccEJMvgv.s:11179  .debug_str:0000000000001282 .LASF242
C:\Users\stapi\AppData\Local\Temp\ccEJMvgv.s:9179   .debug_loc:000000000000001e .LLST9
C:\Users\stapi\AppData\Local\Temp\ccEJMvgv.s:9208   .debug_loc:0000000000000063 .LLST10
C:\Users\stapi\AppData\Local\Temp\ccEJMvgv.s:9237   .debug_loc:00000000000000a8 .LLST11
C:\Users\stapi\AppData\Local\Temp\ccEJMvgv.s:10959  .debug_str:0000000000000c01 .LASF243
C:\Users\stapi\AppData\Local\Temp\ccEJMvgv.s:9267   .debug_loc:00000000000000e0 .LLST12
C:\Users\stapi\AppData\Local\Temp\ccEJMvgv.s:10727  .debug_str:00000000000004f8 .LASF244
C:\Users\stapi\AppData\Local\Temp\ccEJMvgv.s:9278   .debug_loc:00000000000000fe .LLST13
C:\Users\stapi\AppData\Local\Temp\ccEJMvgv.s:11103  .debug_str:0000000000001070 .LASF245
C:\Users\stapi\AppData\Local\Temp\ccEJMvgv.s:9299   .debug_loc:0000000000000134 .LLST14
C:\Users\stapi\AppData\Local\Temp\ccEJMvgv.s:10871  .debug_str:0000000000000981 .LASF246
C:\Users\stapi\AppData\Local\Temp\ccEJMvgv.s:951    .text.tls_process_ocsp_response:0000000000000280 .LBB54
C:\Users\stapi\AppData\Local\Temp\ccEJMvgv.s:9320   .debug_loc:000000000000016a .LLST20
C:\Users\stapi\AppData\Local\Temp\ccEJMvgv.s:9331   .debug_loc:0000000000000188 .LLST21
C:\Users\stapi\AppData\Local\Temp\ccEJMvgv.s:9342   .debug_loc:00000000000001a6 .LLST22
C:\Users\stapi\AppData\Local\Temp\ccEJMvgv.s:9357   .debug_loc:00000000000001cf .LLST23
C:\Users\stapi\AppData\Local\Temp\ccEJMvgv.s:9372   .debug_loc:00000000000001f8 .LLST24
C:\Users\stapi\AppData\Local\Temp\ccEJMvgv.s:9421   .debug_loc:000000000000026d .LLST25
C:\Users\stapi\AppData\Local\Temp\ccEJMvgv.s:9436   .debug_loc:0000000000000296 .LLST26
C:\Users\stapi\AppData\Local\Temp\ccEJMvgv.s:9462   .debug_loc:00000000000002db .LLST27
C:\Users\stapi\AppData\Local\Temp\ccEJMvgv.s:9524   .debug_loc:0000000000000379 .LLST28
C:\Users\stapi\AppData\Local\Temp\ccEJMvgv.s:9539   .debug_loc:00000000000003a2 .LLST29
C:\Users\stapi\AppData\Local\Temp\ccEJMvgv.s:9561   .debug_loc:00000000000003dc .LLST30
C:\Users\stapi\AppData\Local\Temp\ccEJMvgv.s:9588   .debug_loc:0000000000000426 .LLST31
C:\Users\stapi\AppData\Local\Temp\ccEJMvgv.s:9603   .debug_loc:000000000000044f .LLST32
C:\Users\stapi\AppData\Local\Temp\ccEJMvgv.s:9625   .debug_loc:0000000000000489 .LLST33
C:\Users\stapi\AppData\Local\Temp\ccEJMvgv.s:9667   .debug_loc:00000000000004d7 .LLST34
C:\Users\stapi\AppData\Local\Temp\ccEJMvgv.s:9725   .debug_loc:000000000000056a .LLST35
C:\Users\stapi\AppData\Local\Temp\ccEJMvgv.s:9768   .debug_loc:00000000000005d9 .LLST36
C:\Users\stapi\AppData\Local\Temp\ccEJMvgv.s:9788   .debug_loc:000000000000060e .LLST37
C:\Users\stapi\AppData\Local\Temp\ccEJMvgv.s:9803   .debug_loc:0000000000000637 .LLST38
C:\Users\stapi\AppData\Local\Temp\ccEJMvgv.s:1091   .text.tls_process_ocsp_response:0000000000000342 .LBB56
C:\Users\stapi\AppData\Local\Temp\ccEJMvgv.s:1106   .text.tls_process_ocsp_response:0000000000000354 .LBE56
C:\Users\stapi\AppData\Local\Temp\ccEJMvgv.s:9821   .debug_loc:0000000000000663 .LLST39
C:\Users\stapi\AppData\Local\Temp\ccEJMvgv.s:1179   .text.tls_process_ocsp_response:00000000000003c2 .LBB58
C:\Users\stapi\AppData\Local\Temp\ccEJMvgv.s:1190   .text.tls_process_ocsp_response:00000000000003d0 .LBE58
C:\Users\stapi\AppData\Local\Temp\ccEJMvgv.s:9830   .debug_loc:0000000000000679 .LLST40
C:\Users\stapi\AppData\Local\Temp\ccEJMvgv.s:9838   .debug_loc:000000000000068d .LLST41
C:\Users\stapi\AppData\Local\Temp\ccEJMvgv.s:1249   .text.tls_process_ocsp_response:000000000000042a .LBB60
C:\Users\stapi\AppData\Local\Temp\ccEJMvgv.s:1262   .text.tls_process_ocsp_response:000000000000043c .LBE60
C:\Users\stapi\AppData\Local\Temp\ccEJMvgv.s:9847   .debug_loc:00000000000006a3 .LLST42
C:\Users\stapi\AppData\Local\Temp\ccEJMvgv.s:9855   .debug_loc:00000000000006b7 .LLST43
C:\Users\stapi\AppData\Local\Temp\ccEJMvgv.s:1273   .text.tls_process_ocsp_response:0000000000000450 .LBB62
C:\Users\stapi\AppData\Local\Temp\ccEJMvgv.s:1283   .text.tls_process_ocsp_response:000000000000045c .LBE62
C:\Users\stapi\AppData\Local\Temp\ccEJMvgv.s:9864   .debug_loc:00000000000006cd .LLST44
C:\Users\stapi\AppData\Local\Temp\ccEJMvgv.s:9873   .debug_loc:00000000000006e3 .LLST45
C:\Users\stapi\AppData\Local\Temp\ccEJMvgv.s:1308   .text.tls_process_ocsp_response:0000000000000486 .LVL118
C:\Users\stapi\AppData\Local\Temp\ccEJMvgv.s:1314   .text.tls_process_ocsp_response:0000000000000494 .LVL119
C:\Users\stapi\AppData\Local\Temp\ccEJMvgv.s:1347   .text.tls_process_ocsp_response:00000000000004ca .LVL125
C:\Users\stapi\AppData\Local\Temp\ccEJMvgv.s:1520   .text.tls_process_ocsp_response:00000000000005f2 .LBB66
C:\Users\stapi\AppData\Local\Temp\ccEJMvgv.s:1531   .text.tls_process_ocsp_response:0000000000000600 .LBE66
C:\Users\stapi\AppData\Local\Temp\ccEJMvgv.s:9880   .debug_loc:00000000000006f6 .LLST46
C:\Users\stapi\AppData\Local\Temp\ccEJMvgv.s:1586   .text.tls_process_ocsp_response:000000000000065c .LBB68
C:\Users\stapi\AppData\Local\Temp\ccEJMvgv.s:1597   .text.tls_process_ocsp_response:000000000000066a .LBE68
C:\Users\stapi\AppData\Local\Temp\ccEJMvgv.s:9889   .debug_loc:000000000000070c .LLST47
C:\Users\stapi\AppData\Local\Temp\ccEJMvgv.s:1766   .text.tls_process_ocsp_response:0000000000000796 .LBB70
C:\Users\stapi\AppData\Local\Temp\ccEJMvgv.s:9898   .debug_loc:0000000000000722 .LLST48
C:\Users\stapi\AppData\Local\Temp\ccEJMvgv.s:1778   .text.tls_process_ocsp_response:00000000000007a0 .LBB72
C:\Users\stapi\AppData\Local\Temp\ccEJMvgv.s:9917   .debug_loc:0000000000000756 .LLST49
C:\Users\stapi\AppData\Local\Temp\ccEJMvgv.s:9944   .debug_loc:000000000000079e .LLST50
C:\Users\stapi\AppData\Local\Temp\ccEJMvgv.s:9963   .debug_loc:00000000000007d2 .LLST51
C:\Users\stapi\AppData\Local\Temp\ccEJMvgv.s:9982   .debug_loc:0000000000000806 .LLST52
C:\Users\stapi\AppData\Local\Temp\ccEJMvgv.s:10001  .debug_loc:000000000000083a .LLST53
C:\Users\stapi\AppData\Local\Temp\ccEJMvgv.s:10020  .debug_loc:000000000000086e .LLST54
C:\Users\stapi\AppData\Local\Temp\ccEJMvgv.s:10039  .debug_loc:00000000000008a2 .LLST55
C:\Users\stapi\AppData\Local\Temp\ccEJMvgv.s:10061  .debug_loc:00000000000008dc .LLST56
C:\Users\stapi\AppData\Local\Temp\ccEJMvgv.s:10078  .debug_loc:0000000000000909 .LLST57
C:\Users\stapi\AppData\Local\Temp\ccEJMvgv.s:10104  .debug_loc:000000000000094e .LLST58
C:\Users\stapi\AppData\Local\Temp\ccEJMvgv.s:10125  .debug_loc:0000000000000986 .LLST59
C:\Users\stapi\AppData\Local\Temp\ccEJMvgv.s:10142  .debug_loc:00000000000009b3 .LLST60
C:\Users\stapi\AppData\Local\Temp\ccEJMvgv.s:10169  .debug_loc:00000000000009f8 .LLST61
C:\Users\stapi\AppData\Local\Temp\ccEJMvgv.s:10212  .debug_loc:0000000000000a6e .LLST62
C:\Users\stapi\AppData\Local\Temp\ccEJMvgv.s:1976   .text.tls_process_ocsp_response:00000000000008d0 .LBB74
C:\Users\stapi\AppData\Local\Temp\ccEJMvgv.s:1987   .text.tls_process_ocsp_response:00000000000008de .LBE74
C:\Users\stapi\AppData\Local\Temp\ccEJMvgv.s:10219  .debug_loc:0000000000000a81 .LLST63
C:\Users\stapi\AppData\Local\Temp\ccEJMvgv.s:2102   .text.tls_process_ocsp_response:000000000000099c .LBB76
C:\Users\stapi\AppData\Local\Temp\ccEJMvgv.s:2113   .text.tls_process_ocsp_response:00000000000009aa .LBE76
C:\Users\stapi\AppData\Local\Temp\ccEJMvgv.s:10228  .debug_loc:0000000000000a97 .LLST64
C:\Users\stapi\AppData\Local\Temp\ccEJMvgv.s:2204   .text.tls_process_ocsp_response:0000000000000a3e .LBB78
C:\Users\stapi\AppData\Local\Temp\ccEJMvgv.s:2218   .text.tls_process_ocsp_response:0000000000000a4c .LBE78
C:\Users\stapi\AppData\Local\Temp\ccEJMvgv.s:10237  .debug_loc:0000000000000aad .LLST65
C:\Users\stapi\AppData\Local\Temp\ccEJMvgv.s:10246  .debug_loc:0000000000000ac3 .LLST66
C:\Users\stapi\AppData\Local\Temp\ccEJMvgv.s:2469   .text.tls_process_ocsp_response:0000000000000bd6 .LBB81
C:\Users\stapi\AppData\Local\Temp\ccEJMvgv.s:2480   .text.tls_process_ocsp_response:0000000000000be4 .LBE81
C:\Users\stapi\AppData\Local\Temp\ccEJMvgv.s:10253  .debug_loc:0000000000000ad6 .LLST67
C:\Users\stapi\AppData\Local\Temp\ccEJMvgv.s:2279   .text.tls_process_ocsp_response:0000000000000aa0 .LVL245
C:\Users\stapi\AppData\Local\Temp\ccEJMvgv.s:2459   .text.tls_process_ocsp_response:0000000000000bc8 .LVL264
C:\Users\stapi\AppData\Local\Temp\ccEJMvgv.s:2487   .text.tls_process_ocsp_response:0000000000000bf4 .LVL267
C:\Users\stapi\AppData\Local\Temp\ccEJMvgv.s:2496   .text.tls_process_ocsp_response:0000000000000c0c .LVL268
C:\Users\stapi\AppData\Local\Temp\ccEJMvgv.s:2369   .text.tls_process_ocsp_response:0000000000000b3c .LBB83
C:\Users\stapi\AppData\Local\Temp\ccEJMvgv.s:2380   .text.tls_process_ocsp_response:0000000000000b4a .LBE83
C:\Users\stapi\AppData\Local\Temp\ccEJMvgv.s:10262  .debug_loc:0000000000000aec .LLST68
C:\Users\stapi\AppData\Local\Temp\ccEJMvgv.s:2430   .text.tls_process_ocsp_response:0000000000000ba2 .LBB85
C:\Users\stapi\AppData\Local\Temp\ccEJMvgv.s:2441   .text.tls_process_ocsp_response:0000000000000bb0 .LBE85
C:\Users\stapi\AppData\Local\Temp\ccEJMvgv.s:10271  .debug_loc:0000000000000b02 .LLST69
C:\Users\stapi\AppData\Local\Temp\ccEJMvgv.s:10279  .debug_loc:0000000000000b16 .LLST70
C:\Users\stapi\AppData\Local\Temp\ccEJMvgv.s:1916   .text.tls_process_ocsp_response:0000000000000872 .LVL192
C:\Users\stapi\AppData\Local\Temp\ccEJMvgv.s:1923   .text.tls_process_ocsp_response:0000000000000880 .LVL193
C:\Users\stapi\AppData\Local\Temp\ccEJMvgv.s:1929   .text.tls_process_ocsp_response:000000000000088e .LVL194
C:\Users\stapi\AppData\Local\Temp\ccEJMvgv.s:1941   .text.tls_process_ocsp_response:00000000000008a2 .LVL196
C:\Users\stapi\AppData\Local\Temp\ccEJMvgv.s:1963   .text.tls_process_ocsp_response:00000000000008ba .LVL199
C:\Users\stapi\AppData\Local\Temp\ccEJMvgv.s:1972   .text.tls_process_ocsp_response:00000000000008cc .LVL200
C:\Users\stapi\AppData\Local\Temp\ccEJMvgv.s:2005   .text.tls_process_ocsp_response:00000000000008fc .LVL205
C:\Users\stapi\AppData\Local\Temp\ccEJMvgv.s:2023   .text.tls_process_ocsp_response:000000000000091e .LVL206
C:\Users\stapi\AppData\Local\Temp\ccEJMvgv.s:2031   .text.tls_process_ocsp_response:0000000000000932 .LVL207
C:\Users\stapi\AppData\Local\Temp\ccEJMvgv.s:2048   .text.tls_process_ocsp_response:000000000000094c .LVL210
C:\Users\stapi\AppData\Local\Temp\ccEJMvgv.s:2059   .text.tls_process_ocsp_response:0000000000000962 .LVL212
C:\Users\stapi\AppData\Local\Temp\ccEJMvgv.s:2089   .text.tls_process_ocsp_response:0000000000000986 .LVL217
C:\Users\stapi\AppData\Local\Temp\ccEJMvgv.s:2098   .text.tls_process_ocsp_response:0000000000000998 .LVL218
C:\Users\stapi\AppData\Local\Temp\ccEJMvgv.s:2133   .text.tls_process_ocsp_response:00000000000009c8 .LVL225
C:\Users\stapi\AppData\Local\Temp\ccEJMvgv.s:2151   .text.tls_process_ocsp_response:00000000000009e4 .LVL226
C:\Users\stapi\AppData\Local\Temp\ccEJMvgv.s:2168   .text.tls_process_ocsp_response:00000000000009fe .LVL229
C:\Users\stapi\AppData\Local\Temp\ccEJMvgv.s:2191   .text.tls_process_ocsp_response:0000000000000a28 .LVL233
C:\Users\stapi\AppData\Local\Temp\ccEJMvgv.s:2200   .text.tls_process_ocsp_response:0000000000000a3a .LVL234
C:\Users\stapi\AppData\Local\Temp\ccEJMvgv.s:2262   .text.tls_process_ocsp_response:0000000000000a84 .LVL243
C:\Users\stapi\AppData\Local\Temp\ccEJMvgv.s:2290   .text.tls_process_ocsp_response:0000000000000ab2 .LVL247
C:\Users\stapi\AppData\Local\Temp\ccEJMvgv.s:2308   .text.tls_process_ocsp_response:0000000000000ac8 .LVL250
C:\Users\stapi\AppData\Local\Temp\ccEJMvgv.s:2331   .text.tls_process_ocsp_response:0000000000000af6 .LVL252
C:\Users\stapi\AppData\Local\Temp\ccEJMvgv.s:2339   .text.tls_process_ocsp_response:0000000000000b0c .LVL253
C:\Users\stapi\AppData\Local\Temp\ccEJMvgv.s:2352   .text.tls_process_ocsp_response:0000000000000b1e .LVL254
C:\Users\stapi\AppData\Local\Temp\ccEJMvgv.s:2359   .text.tls_process_ocsp_response:0000000000000b2e .LVL255
C:\Users\stapi\AppData\Local\Temp\ccEJMvgv.s:2387   .text.tls_process_ocsp_response:0000000000000b5a .LVL258
C:\Users\stapi\AppData\Local\Temp\ccEJMvgv.s:2396   .text.tls_process_ocsp_response:0000000000000b72 .LVL259
C:\Users\stapi\AppData\Local\Temp\ccEJMvgv.s:2425   .text.tls_process_ocsp_response:0000000000000b9e .LVL260
C:\Users\stapi\AppData\Local\Temp\ccEJMvgv.s:2524   .text.tls_process_ocsp_response:0000000000000c3c .LVL270
C:\Users\stapi\AppData\Local\Temp\ccEJMvgv.s:1793   .text.tls_process_ocsp_response:00000000000007ba .LVL179
C:\Users\stapi\AppData\Local\Temp\ccEJMvgv.s:1874   .text.tls_process_ocsp_response:000000000000083c .LVL189
C:\Users\stapi\AppData\Local\Temp\ccEJMvgv.s:1880   .text.tls_process_ocsp_response:000000000000084a .LVL190
C:\Users\stapi\AppData\Local\Temp\ccEJMvgv.s:973    .text.tls_process_ocsp_response:0000000000000296 .LVL75
C:\Users\stapi\AppData\Local\Temp\ccEJMvgv.s:979    .text.tls_process_ocsp_response:00000000000002a6 .LVL76
C:\Users\stapi\AppData\Local\Temp\ccEJMvgv.s:986    .text.tls_process_ocsp_response:00000000000002b4 .LVL77
C:\Users\stapi\AppData\Local\Temp\ccEJMvgv.s:992    .text.tls_process_ocsp_response:00000000000002c2 .LVL78
C:\Users\stapi\AppData\Local\Temp\ccEJMvgv.s:1006   .text.tls_process_ocsp_response:00000000000002d6 .LVL81
C:\Users\stapi\AppData\Local\Temp\ccEJMvgv.s:1033   .text.tls_process_ocsp_response:00000000000002f0 .LVL86
C:\Users\stapi\AppData\Local\Temp\ccEJMvgv.s:1039   .text.tls_process_ocsp_response:00000000000002fe .LVL87
C:\Users\stapi\AppData\Local\Temp\ccEJMvgv.s:1078   .text.tls_process_ocsp_response:000000000000032c .LVL91
C:\Users\stapi\AppData\Local\Temp\ccEJMvgv.s:1087   .text.tls_process_ocsp_response:000000000000033e .LVL92
C:\Users\stapi\AppData\Local\Temp\ccEJMvgv.s:1127   .text.tls_process_ocsp_response:0000000000000374 .LVL95
C:\Users\stapi\AppData\Local\Temp\ccEJMvgv.s:1161   .text.tls_process_ocsp_response:00000000000003a4 .LVL99
C:\Users\stapi\AppData\Local\Temp\ccEJMvgv.s:1172   .text.tls_process_ocsp_response:00000000000003b8 .LVL100
C:\Users\stapi\AppData\Local\Temp\ccEJMvgv.s:1198   .text.tls_process_ocsp_response:00000000000003e6 .LVL103
C:\Users\stapi\AppData\Local\Temp\ccEJMvgv.s:1237   .text.tls_process_ocsp_response:0000000000000412 .LVL108
C:\Users\stapi\AppData\Local\Temp\ccEJMvgv.s:1244   .text.tls_process_ocsp_response:0000000000000422 .LVL109
C:\Users\stapi\AppData\Local\Temp\ccEJMvgv.s:1269   .text.tls_process_ocsp_response:000000000000044c .LVL113
C:\Users\stapi\AppData\Local\Temp\ccEJMvgv.s:1327   .text.tls_process_ocsp_response:00000000000004a8 .LVL121
C:\Users\stapi\AppData\Local\Temp\ccEJMvgv.s:1333   .text.tls_process_ocsp_response:00000000000004b2 .LVL122
C:\Users\stapi\AppData\Local\Temp\ccEJMvgv.s:1337   .text.tls_process_ocsp_response:00000000000004bc .LVL123
C:\Users\stapi\AppData\Local\Temp\ccEJMvgv.s:1391   .text.tls_process_ocsp_response:0000000000000500 .LVL131
C:\Users\stapi\AppData\Local\Temp\ccEJMvgv.s:1404   .text.tls_process_ocsp_response:000000000000051a .LVL132
C:\Users\stapi\AppData\Local\Temp\ccEJMvgv.s:1410   .text.tls_process_ocsp_response:0000000000000524 .LVL133
C:\Users\stapi\AppData\Local\Temp\ccEJMvgv.s:1414   .text.tls_process_ocsp_response:000000000000052e .LVL134
C:\Users\stapi\AppData\Local\Temp\ccEJMvgv.s:1433   .text.tls_process_ocsp_response:0000000000000546 .LVL136
C:\Users\stapi\AppData\Local\Temp\ccEJMvgv.s:1451   .text.tls_process_ocsp_response:0000000000000570 .LVL137
C:\Users\stapi\AppData\Local\Temp\ccEJMvgv.s:1467   .text.tls_process_ocsp_response:000000000000058a .LVL138
C:\Users\stapi\AppData\Local\Temp\ccEJMvgv.s:1475   .text.tls_process_ocsp_response:000000000000059e .LVL139
C:\Users\stapi\AppData\Local\Temp\ccEJMvgv.s:1482   .text.tls_process_ocsp_response:00000000000005b2 .LVL140
C:\Users\stapi\AppData\Local\Temp\ccEJMvgv.s:1493   .text.tls_process_ocsp_response:00000000000005c4 .LVL142
C:\Users\stapi\AppData\Local\Temp\ccEJMvgv.s:1502   .text.tls_process_ocsp_response:00000000000005da .LVL143
C:\Users\stapi\AppData\Local\Temp\ccEJMvgv.s:1516   .text.tls_process_ocsp_response:00000000000005ee .LVL145
C:\Users\stapi\AppData\Local\Temp\ccEJMvgv.s:1543   .text.tls_process_ocsp_response:0000000000000618 .LVL149
C:\Users\stapi\AppData\Local\Temp\ccEJMvgv.s:1556   .text.tls_process_ocsp_response:0000000000000634 .LVL150
C:\Users\stapi\AppData\Local\Temp\ccEJMvgv.s:1581   .text.tls_process_ocsp_response:000000000000065a .LVL154
C:\Users\stapi\AppData\Local\Temp\ccEJMvgv.s:1604   .text.tls_process_ocsp_response:000000000000067a .LVL157
C:\Users\stapi\AppData\Local\Temp\ccEJMvgv.s:1613   .text.tls_process_ocsp_response:0000000000000692 .LVL158
C:\Users\stapi\AppData\Local\Temp\ccEJMvgv.s:1629   .text.tls_process_ocsp_response:00000000000006a8 .LVL159
C:\Users\stapi\AppData\Local\Temp\ccEJMvgv.s:1635   .text.tls_process_ocsp_response:00000000000006b6 .LVL160
C:\Users\stapi\AppData\Local\Temp\ccEJMvgv.s:1662   .text.tls_process_ocsp_response:00000000000006de .LVL163
C:\Users\stapi\AppData\Local\Temp\ccEJMvgv.s:1679   .text.tls_process_ocsp_response:0000000000000700 .LVL164
C:\Users\stapi\AppData\Local\Temp\ccEJMvgv.s:1703   .text.tls_process_ocsp_response:0000000000000720 .LVL167
C:\Users\stapi\AppData\Local\Temp\ccEJMvgv.s:1721   .text.tls_process_ocsp_response:000000000000073c .LVL169
C:\Users\stapi\AppData\Local\Temp\ccEJMvgv.s:1735   .text.tls_process_ocsp_response:0000000000000758 .LVL171
C:\Users\stapi\AppData\Local\Temp\ccEJMvgv.s:1743   .text.tls_process_ocsp_response:0000000000000764 .LVL173
C:\Users\stapi\AppData\Local\Temp\ccEJMvgv.s:1749   .text.tls_process_ocsp_response:0000000000000774 .LVL174
C:\Users\stapi\AppData\Local\Temp\ccEJMvgv.s:1753   .text.tls_process_ocsp_response:000000000000077e .LVL175
C:\Users\stapi\AppData\Local\Temp\ccEJMvgv.s:1765   .text.tls_process_ocsp_response:0000000000000796 .LVL176
C:\Users\stapi\AppData\Local\Temp\ccEJMvgv.s:1807   .text.tls_process_ocsp_response:00000000000007ca .LVL181
C:\Users\stapi\AppData\Local\Temp\ccEJMvgv.s:1830   .text.tls_process_ocsp_response:00000000000007ea .LVL183
C:\Users\stapi\AppData\Local\Temp\ccEJMvgv.s:1842   .text.tls_process_ocsp_response:0000000000000800 .LVL184
C:\Users\stapi\AppData\Local\Temp\ccEJMvgv.s:1850   .text.tls_process_ocsp_response:0000000000000816 .LVL185
C:\Users\stapi\AppData\Local\Temp\ccEJMvgv.s:1861   .text.tls_process_ocsp_response:000000000000082a .LVL187
C:\Users\stapi\AppData\Local\Temp\ccEJMvgv.s:2608   .text.tls_process_ocsp_response:0000000000000c98 .LVL280
C:\Users\stapi\AppData\Local\Temp\ccEJMvgv.s:938    .text.tls_process_ocsp_response:0000000000000268 .LVL72
C:\Users\stapi\AppData\Local\Temp\ccEJMvgv.s:945    .text.tls_process_ocsp_response:000000000000027c .LVL73
C:\Users\stapi\AppData\Local\Temp\ccEJMvgv.s:650    .text.tls_process_ocsp_response:0000000000000080 .LBB45
C:\Users\stapi\AppData\Local\Temp\ccEJMvgv.s:661    .text.tls_process_ocsp_response:000000000000008e .LBE45
C:\Users\stapi\AppData\Local\Temp\ccEJMvgv.s:10288  .debug_loc:0000000000000b2c .LLST15
C:\Users\stapi\AppData\Local\Temp\ccEJMvgv.s:730    .text.tls_process_ocsp_response:00000000000000fa .LBB47
C:\Users\stapi\AppData\Local\Temp\ccEJMvgv.s:743    .text.tls_process_ocsp_response:0000000000000108 .LBE47
C:\Users\stapi\AppData\Local\Temp\ccEJMvgv.s:10297  .debug_loc:0000000000000b42 .LLST16
C:\Users\stapi\AppData\Local\Temp\ccEJMvgv.s:10305  .debug_loc:0000000000000b56 .LLST17
C:\Users\stapi\AppData\Local\Temp\ccEJMvgv.s:822    .text.tls_process_ocsp_response:0000000000000194 .LBB49
C:\Users\stapi\AppData\Local\Temp\ccEJMvgv.s:870    .text.tls_process_ocsp_response:00000000000001fe .LBE49
C:\Users\stapi\AppData\Local\Temp\ccEJMvgv.s:10314  .debug_loc:0000000000000b6c .LLST18
C:\Users\stapi\AppData\Local\Temp\ccEJMvgv.s:902    .text.tls_process_ocsp_response:0000000000000234 .LBB51
C:\Users\stapi\AppData\Local\Temp\ccEJMvgv.s:913    .text.tls_process_ocsp_response:0000000000000242 .LBE51
C:\Users\stapi\AppData\Local\Temp\ccEJMvgv.s:10323  .debug_loc:0000000000000b82 .LLST19
C:\Users\stapi\AppData\Local\Temp\ccEJMvgv.s:574    .text.tls_process_ocsp_response:0000000000000028 .LVL33
C:\Users\stapi\AppData\Local\Temp\ccEJMvgv.s:581    .text.tls_process_ocsp_response:0000000000000036 .LVL34
C:\Users\stapi\AppData\Local\Temp\ccEJMvgv.s:587    .text.tls_process_ocsp_response:0000000000000044 .LVL35
C:\Users\stapi\AppData\Local\Temp\ccEJMvgv.s:599    .text.tls_process_ocsp_response:0000000000000058 .LVL37
C:\Users\stapi\AppData\Local\Temp\ccEJMvgv.s:646    .text.tls_process_ocsp_response:000000000000007c .LVL43
C:\Users\stapi\AppData\Local\Temp\ccEJMvgv.s:686    .text.tls_process_ocsp_response:00000000000000ba .LVL47
C:\Users\stapi\AppData\Local\Temp\ccEJMvgv.s:705    .text.tls_process_ocsp_response:00000000000000d8 .LVL49
C:\Users\stapi\AppData\Local\Temp\ccEJMvgv.s:723    .text.tls_process_ocsp_response:00000000000000f0 .LVL51
C:\Users\stapi\AppData\Local\Temp\ccEJMvgv.s:750    .text.tls_process_ocsp_response:0000000000000116 .LVL54
C:\Users\stapi\AppData\Local\Temp\ccEJMvgv.s:766    .text.tls_process_ocsp_response:0000000000000136 .LVL55
C:\Users\stapi\AppData\Local\Temp\ccEJMvgv.s:774    .text.tls_process_ocsp_response:0000000000000142 .LVL56
C:\Users\stapi\AppData\Local\Temp\ccEJMvgv.s:795    .text.tls_process_ocsp_response:000000000000015a .LVL59
C:\Users\stapi\AppData\Local\Temp\ccEJMvgv.s:803    .text.tls_process_ocsp_response:000000000000016e .LVL60
C:\Users\stapi\AppData\Local\Temp\ccEJMvgv.s:813    .text.tls_process_ocsp_response:0000000000000180 .LVL61
C:\Users\stapi\AppData\Local\Temp\ccEJMvgv.s:820    .text.tls_process_ocsp_response:0000000000000194 .LVL62
C:\Users\stapi\AppData\Local\Temp\ccEJMvgv.s:880    .text.tls_process_ocsp_response:0000000000000210 .LVL65
C:\Users\stapi\AppData\Local\Temp\ccEJMvgv.s:889    .text.tls_process_ocsp_response:0000000000000226 .LVL66
C:\Users\stapi\AppData\Local\Temp\ccEJMvgv.s:11193  .debug_str:00000000000013d2 .LASF262
C:\Users\stapi\AppData\Local\Temp\ccEJMvgv.s:11159  .debug_str:00000000000011e0 .LASF247
C:\Users\stapi\AppData\Local\Temp\ccEJMvgv.s:10643  .debug_str:000000000000029e .LASF248
C:\Users\stapi\AppData\Local\Temp\ccEJMvgv.s:11181  .debug_str:0000000000001287 .LASF249
C:\Users\stapi\AppData\Local\Temp\ccEJMvgv.s:10875  .debug_str:0000000000000994 .LASF250
C:\Users\stapi\AppData\Local\Temp\ccEJMvgv.s:11131  .debug_str:000000000000113f .LASF251
C:\Users\stapi\AppData\Local\Temp\ccEJMvgv.s:11157  .debug_str:00000000000011d2 .LASF252
C:\Users\stapi\AppData\Local\Temp\ccEJMvgv.s:11011  .debug_str:0000000000000d82 .LASF253
C:\Users\stapi\AppData\Local\Temp\ccEJMvgv.s:10633  .debug_str:00000000000001bf .LASF254
C:\Users\stapi\AppData\Local\Temp\ccEJMvgv.s:10983  .debug_str:0000000000000cb7 .LASF255
C:\Users\stapi\AppData\Local\Temp\ccEJMvgv.s:10705  .debug_str:0000000000000472 .LASF256
C:\Users\stapi\AppData\Local\Temp\ccEJMvgv.s:10787  .debug_str:000000000000071a .LASF257
C:\Users\stapi\AppData\Local\Temp\ccEJMvgv.s:10583  .debug_str:000000000000006f .LASF258
C:\Users\stapi\AppData\Local\Temp\ccEJMvgv.s:10885  .debug_str:00000000000009c9 .LASF259
C:\Users\stapi\AppData\Local\Temp\ccEJMvgv.s:11143  .debug_str:000000000000117f .LASF260
C:\Users\stapi\AppData\Local\Temp\ccEJMvgv.s:10807  .debug_str:000000000000079a .LASF261
C:\Users\stapi\AppData\Local\Temp\ccEJMvgv.s:11171  .debug_str:0000000000001242 .LASF263
C:\Users\stapi\AppData\Local\Temp\ccEJMvgv.s:11085  .debug_str:0000000000000fe6 .LASF264
C:\Users\stapi\AppData\Local\Temp\ccEJMvgv.s:11091  .debug_str:000000000000102d .LASF265
C:\Users\stapi\AppData\Local\Temp\ccEJMvgv.s:10989  .debug_str:0000000000000cdc .LASF266
C:\Users\stapi\AppData\Local\Temp\ccEJMvgv.s:10717  .debug_str:00000000000004b4 .LASF267
C:\Users\stapi\AppData\Local\Temp\ccEJMvgv.s:11017  .debug_str:0000000000000db4 .LASF268
C:\Users\stapi\AppData\Local\Temp\ccEJMvgv.s:10663  .debug_str:000000000000032f .LASF269
C:\Users\stapi\AppData\Local\Temp\ccEJMvgv.s:11037  .debug_str:0000000000000e4c .LASF273
C:\Users\stapi\AppData\Local\Temp\ccEJMvgv.s:141    .text.ocsp_hash_data:0000000000000000 .LFB88
C:\Users\stapi\AppData\Local\Temp\ccEJMvgv.s:313    .text.ocsp_hash_data:0000000000000136 .LFE88
C:\Users\stapi\AppData\Local\Temp\ccEJMvgv.s:10332  .debug_loc:0000000000000b98 .LLST4
C:\Users\stapi\AppData\Local\Temp\ccEJMvgv.s:10859  .debug_str:0000000000000938 .LASF270
C:\Users\stapi\AppData\Local\Temp\ccEJMvgv.s:10343  .debug_loc:0000000000000bb6 .LLST5
C:\Users\stapi\AppData\Local\Temp\ccEJMvgv.s:10975  .debug_str:0000000000000c7c .LASF271
C:\Users\stapi\AppData\Local\Temp\ccEJMvgv.s:10357  .debug_loc:0000000000000bd7 .LLST6
C:\Users\stapi\AppData\Local\Temp\ccEJMvgv.s:10371  .debug_loc:0000000000000bf8 .LLST7
C:\Users\stapi\AppData\Local\Temp\ccEJMvgv.s:11133  .debug_str:0000000000001150 .LASF272
C:\Users\stapi\AppData\Local\Temp\ccEJMvgv.s:166    .text.ocsp_hash_data:000000000000001a .LVL14
C:\Users\stapi\AppData\Local\Temp\ccEJMvgv.s:176    .text.ocsp_hash_data:000000000000002c .LVL15
C:\Users\stapi\AppData\Local\Temp\ccEJMvgv.s:192    .text.ocsp_hash_data:000000000000004a .LVL16
C:\Users\stapi\AppData\Local\Temp\ccEJMvgv.s:212    .text.ocsp_hash_data:0000000000000060 .LVL17
C:\Users\stapi\AppData\Local\Temp\ccEJMvgv.s:222    .text.ocsp_hash_data:0000000000000072 .LVL18
C:\Users\stapi\AppData\Local\Temp\ccEJMvgv.s:232    .text.ocsp_hash_data:000000000000008e .LVL19
C:\Users\stapi\AppData\Local\Temp\ccEJMvgv.s:242    .text.ocsp_hash_data:000000000000009e .LVL20
C:\Users\stapi\AppData\Local\Temp\ccEJMvgv.s:252    .text.ocsp_hash_data:00000000000000b0 .LVL21
C:\Users\stapi\AppData\Local\Temp\ccEJMvgv.s:262    .text.ocsp_hash_data:00000000000000cc .LVL22
C:\Users\stapi\AppData\Local\Temp\ccEJMvgv.s:272    .text.ocsp_hash_data:00000000000000dc .LVL23
C:\Users\stapi\AppData\Local\Temp\ccEJMvgv.s:282    .text.ocsp_hash_data:00000000000000ee .LVL24
C:\Users\stapi\AppData\Local\Temp\ccEJMvgv.s:292    .text.ocsp_hash_data:000000000000010a .LVL25
C:\Users\stapi\AppData\Local\Temp\ccEJMvgv.s:303    .text.ocsp_hash_data:0000000000000120 .LVL26
C:\Users\stapi\AppData\Local\Temp\ccEJMvgv.s:310    .text.ocsp_hash_data:0000000000000134 .LVL27
C:\Users\stapi\AppData\Local\Temp\ccEJMvgv.s:10641  .debug_str:0000000000000286 .LASF274
C:\Users\stapi\AppData\Local\Temp\ccEJMvgv.s:42     .text.ocsp_responder_id_match:0000000000000000 .LFB87
C:\Users\stapi\AppData\Local\Temp\ccEJMvgv.s:119    .text.ocsp_responder_id_match:000000000000005c .LFE87
C:\Users\stapi\AppData\Local\Temp\ccEJMvgv.s:10382  .debug_loc:0000000000000c16 .LLST1
C:\Users\stapi\AppData\Local\Temp\ccEJMvgv.s:10413  .debug_loc:0000000000000c5e .LLST2
C:\Users\stapi\AppData\Local\Temp\ccEJMvgv.s:10438  .debug_loc:0000000000000c98 .LLST3
C:\Users\stapi\AppData\Local\Temp\ccEJMvgv.s:57     .text.ocsp_responder_id_match:000000000000000c .LBB3
C:\Users\stapi\AppData\Local\Temp\ccEJMvgv.s:96     .text.ocsp_responder_id_match:0000000000000040 .LBE3
C:\Users\stapi\AppData\Local\Temp\ccEJMvgv.s:82     .text.ocsp_responder_id_match:000000000000002a .LVL8
C:\Users\stapi\AppData\Local\Temp\ccEJMvgv.s:94     .text.ocsp_responder_id_match:0000000000000040 .LVL9
C:\Users\stapi\AppData\Local\Temp\ccEJMvgv.s:116    .text.ocsp_responder_id_match:000000000000005a .LVL12
C:\Users\stapi\AppData\Local\Temp\ccEJMvgv.s:10611  .debug_str:0000000000000133 .LASF275
C:\Users\stapi\AppData\Local\Temp\ccEJMvgv.s:11113  .debug_str:00000000000010b7 .LASF276
C:\Users\stapi\AppData\Local\Temp\ccEJMvgv.s:11163  .debug_str:0000000000001206 .LASF277
C:\Users\stapi\AppData\Local\Temp\ccEJMvgv.s:10701  .debug_str:000000000000044f .LASF278
C:\Users\stapi\AppData\Local\Temp\ccEJMvgv.s:10645  .debug_str:00000000000002a8 .LASF279
C:\Users\stapi\AppData\Local\Temp\ccEJMvgv.s:10949  .debug_str:0000000000000bc6 .LASF280
C:\Users\stapi\AppData\Local\Temp\ccEJMvgv.s:13     .text.asn1_is_sequence:0000000000000000 .LFB75
C:\Users\stapi\AppData\Local\Temp\ccEJMvgv.s:36     .text.asn1_is_sequence:0000000000000014 .LFE75
C:\Users\stapi\AppData\Local\Temp\ccEJMvgv.s:10467  .debug_loc:0000000000000cdd .LLST0
C:\Users\stapi\AppData\Local\Temp\ccEJMvgv.s:11087  .debug_str:0000000000001007 .LASF281
C:\Users\stapi\AppData\Local\Temp\ccEJMvgv.s:10759  .debug_str:0000000000000659 .LASF282
C:\Users\stapi\AppData\Local\Temp\ccEJMvgv.s:11119  .debug_str:00000000000010db .LASF283
C:\Users\stapi\AppData\Local\Temp\ccEJMvgv.s:10913  .debug_str:0000000000000a96 .LASF284
C:\Users\stapi\AppData\Local\Temp\ccEJMvgv.s:11045  .debug_str:0000000000000e88 .LASF285
C:\Users\stapi\AppData\Local\Temp\ccEJMvgv.s:10591  .debug_str:00000000000000a7 .LASF286
C:\Users\stapi\AppData\Local\Temp\ccEJMvgv.s:10781  .debug_str:00000000000006fb .LASF287
C:\Users\stapi\AppData\Local\Temp\ccEJMvgv.s:11001  .debug_str:0000000000000d37 .LASF288
C:\Users\stapi\AppData\Local\Temp\ccEJMvgv.s:10829  .debug_str:000000000000083e .LASF289
C:\Users\stapi\AppData\Local\Temp\ccEJMvgv.s:11109  .debug_str:00000000000010a8 .LASF290
C:\Users\stapi\AppData\Local\Temp\ccEJMvgv.s:10651  .debug_str:00000000000002c8 .LASF291
C:\Users\stapi\AppData\Local\Temp\ccEJMvgv.s:10987  .debug_str:0000000000000cd2 .LASF292
C:\Users\stapi\AppData\Local\Temp\ccEJMvgv.s:10723  .debug_str:00000000000004e2 .LASF293
C:\Users\stapi\AppData\Local\Temp\ccEJMvgv.s:10605  .debug_str:0000000000000107 .LASF294
C:\Users\stapi\AppData\Local\Temp\ccEJMvgv.s:10827  .debug_str:000000000000082e .LASF295
C:\Users\stapi\AppData\Local\Temp\ccEJMvgv.s:11005  .debug_str:0000000000000d4c .LASF296
C:\Users\stapi\AppData\Local\Temp\ccEJMvgv.s:10729  .debug_str:00000000000004fd .LASF297
C:\Users\stapi\AppData\Local\Temp\ccEJMvgv.s:10985  .debug_str:0000000000000cbd .LASF298
C:\Users\stapi\AppData\Local\Temp\ccEJMvgv.s:10739  .debug_str:000000000000053b .LASF299
C:\Users\stapi\AppData\Local\Temp\ccEJMvgv.s:11155  .debug_str:00000000000011c5 .LASF300
C:\Users\stapi\AppData\Local\Temp\ccEJMvgv.s:11071  .debug_str:0000000000000f5f .LASF301
C:\Users\stapi\AppData\Local\Temp\ccEJMvgv.s:10603  .debug_str:00000000000000f9 .LASF302
C:\Users\stapi\AppData\Local\Temp\ccEJMvgv.s:11165  .debug_str:000000000000121e .LASF303
C:\Users\stapi\AppData\Local\Temp\ccEJMvgv.s:10973  .debug_str:0000000000000c6c .LASF304
C:\Users\stapi\AppData\Local\Temp\ccEJMvgv.s:10779  .debug_str:00000000000006ed .LASF305
C:\Users\stapi\AppData\Local\Temp\ccEJMvgv.s:11025  .debug_str:0000000000000de9 .LASF306
C:\Users\stapi\AppData\Local\Temp\ccEJMvgv.s:10981  .debug_str:0000000000000ca9 .LASF307
C:\Users\stapi\AppData\Local\Temp\ccEJMvgv.s:10751  .debug_str:0000000000000623 .LASF308
C:\Users\stapi\AppData\Local\Temp\ccEJMvgv.s:10873  .debug_str:0000000000000986 .LASF309
C:\Users\stapi\AppData\Local\Temp\ccEJMvgv.s:528    .text.tls_process_ocsp_response:0000000000000000 .LVL28
C:\Users\stapi\AppData\Local\Temp\ccEJMvgv.s:572    .text.tls_process_ocsp_response:0000000000000020 .LVL32
C:\Users\stapi\AppData\Local\Temp\ccEJMvgv.s:562    .text.tls_process_ocsp_response:0000000000000014 .LVL31
C:\Users\stapi\AppData\Local\Temp\ccEJMvgv.s:594    .text.tls_process_ocsp_response:000000000000004e .LVL36
C:\Users\stapi\AppData\Local\Temp\ccEJMvgv.s:625    .text.tls_process_ocsp_response:0000000000000068 .LVL39
C:\Users\stapi\AppData\Local\Temp\ccEJMvgv.s:631    .text.tls_process_ocsp_response:000000000000006a .LVL40
C:\Users\stapi\AppData\Local\Temp\ccEJMvgv.s:560    .text.tls_process_ocsp_response:0000000000000010 .LVL30
C:\Users\stapi\AppData\Local\Temp\ccEJMvgv.s:634    .text.tls_process_ocsp_response:000000000000006c .LVL41
C:\Users\stapi\AppData\Local\Temp\ccEJMvgv.s:642    .text.tls_process_ocsp_response:0000000000000074 .LVL42
C:\Users\stapi\AppData\Local\Temp\ccEJMvgv.s:700    .text.tls_process_ocsp_response:00000000000000ce .LVL48
C:\Users\stapi\AppData\Local\Temp\ccEJMvgv.s:711    .text.tls_process_ocsp_response:00000000000000dc .LVL50
C:\Users\stapi\AppData\Local\Temp\ccEJMvgv.s:780    .text.tls_process_ocsp_response:0000000000000146 .LVL57
C:\Users\stapi\AppData\Local\Temp\ccEJMvgv.s:791    .text.tls_process_ocsp_response:0000000000000152 .LVL58
C:\Users\stapi\AppData\Local\Temp\ccEJMvgv.s:917    .text.tls_process_ocsp_response:0000000000000246 .LVL70
C:\Users\stapi\AppData\Local\Temp\ccEJMvgv.s:681    .text.tls_process_ocsp_response:00000000000000ac .LVL46
C:\Users\stapi\AppData\Local\Temp\ccEJMvgv.s:865    .text.tls_process_ocsp_response:00000000000001fa .LVL63
C:\Users\stapi\AppData\Local\Temp\ccEJMvgv.s:551    .text.tls_process_ocsp_response:0000000000000008 .LVL29
C:\Users\stapi\AppData\Local\Temp\ccEJMvgv.s:603    .text.tls_process_ocsp_response:000000000000005a .LVL38
C:\Users\stapi\AppData\Local\Temp\ccEJMvgv.s:921    .text.tls_process_ocsp_response:0000000000000248 .LVL71
C:\Users\stapi\AppData\Local\Temp\ccEJMvgv.s:2546   .text.tls_process_ocsp_response:0000000000000c54 .LVL272
C:\Users\stapi\AppData\Local\Temp\ccEJMvgv.s:2563   .text.tls_process_ocsp_response:0000000000000c64 .LVL274
C:\Users\stapi\AppData\Local\Temp\ccEJMvgv.s:2588   .text.tls_process_ocsp_response:0000000000000c84 .LVL277
C:\Users\stapi\AppData\Local\Temp\ccEJMvgv.s:2594   .text.tls_process_ocsp_response:0000000000000c86 .LVL278
C:\Users\stapi\AppData\Local\Temp\ccEJMvgv.s:2596   .text.tls_process_ocsp_response:0000000000000c8a .LVL279
C:\Users\stapi\AppData\Local\Temp\ccEJMvgv.s:950    .text.tls_process_ocsp_response:0000000000000280 .LVL74
C:\Users\stapi\AppData\Local\Temp\ccEJMvgv.s:999    .text.tls_process_ocsp_response:00000000000002cc .LVL79
C:\Users\stapi\AppData\Local\Temp\ccEJMvgv.s:1013   .text.tls_process_ocsp_response:00000000000002dc .LVL82
C:\Users\stapi\AppData\Local\Temp\ccEJMvgv.s:1018   .text.tls_process_ocsp_response:00000000000002de .LVL83
C:\Users\stapi\AppData\Local\Temp\ccEJMvgv.s:1021   .text.tls_process_ocsp_response:00000000000002e0 .LVL84
C:\Users\stapi\AppData\Local\Temp\ccEJMvgv.s:2574   .text.tls_process_ocsp_response:0000000000000c74 .LVL276
C:\Users\stapi\AppData\Local\Temp\ccEJMvgv.s:1029   .text.tls_process_ocsp_response:00000000000002e8 .LVL85
C:\Users\stapi\AppData\Local\Temp\ccEJMvgv.s:1056   .text.tls_process_ocsp_response:0000000000000312 .LVL88
C:\Users\stapi\AppData\Local\Temp\ccEJMvgv.s:1211   .text.tls_process_ocsp_response:00000000000003f2 .LVL104
C:\Users\stapi\AppData\Local\Temp\ccEJMvgv.s:1222   .text.tls_process_ocsp_response:00000000000003fa .LVL106
C:\Users\stapi\AppData\Local\Temp\ccEJMvgv.s:1234   .text.tls_process_ocsp_response:000000000000040a .LVL107
C:\Users\stapi\AppData\Local\Temp\ccEJMvgv.s:1293   .text.tls_process_ocsp_response:000000000000046e .LVL116
C:\Users\stapi\AppData\Local\Temp\ccEJMvgv.s:1299   .text.tls_process_ocsp_response:0000000000000478 .LVL117
C:\Users\stapi\AppData\Local\Temp\ccEJMvgv.s:1321   .text.tls_process_ocsp_response:000000000000049e .LVL120
C:\Users\stapi\AppData\Local\Temp\ccEJMvgv.s:1339   .text.tls_process_ocsp_response:00000000000004be .LVL124
C:\Users\stapi\AppData\Local\Temp\ccEJMvgv.s:1376   .text.tls_process_ocsp_response:00000000000004e4 .LVL129
C:\Users\stapi\AppData\Local\Temp\ccEJMvgv.s:1382   .text.tls_process_ocsp_response:00000000000004e8 .LVL130
C:\Users\stapi\AppData\Local\Temp\ccEJMvgv.s:1782   .text.tls_process_ocsp_response:00000000000007a4 .LVL178
C:\Users\stapi\AppData\Local\Temp\ccEJMvgv.s:1799   .text.tls_process_ocsp_response:00000000000007bc .LVL180
C:\Users\stapi\AppData\Local\Temp\ccEJMvgv.s:1864   .text.tls_process_ocsp_response:000000000000082c .LVL188
C:\Users\stapi\AppData\Local\Temp\ccEJMvgv.s:1254   .text.tls_process_ocsp_response:000000000000042e .LVL111
C:\Users\stapi\AppData\Local\Temp\ccEJMvgv.s:1140   .text.tls_process_ocsp_response:0000000000000386 .LVL96
C:\Users\stapi\AppData\Local\Temp\ccEJMvgv.s:1155   .text.tls_process_ocsp_response:0000000000000396 .LVL98
C:\Users\stapi\AppData\Local\Temp\ccEJMvgv.s:1003   .text.tls_process_ocsp_response:00000000000002ce .LVL80
C:\Users\stapi\AppData\Local\Temp\ccEJMvgv.s:1418   .text.tls_process_ocsp_response:0000000000000530 .LVL135
C:\Users\stapi\AppData\Local\Temp\ccEJMvgv.s:1485   .text.tls_process_ocsp_response:00000000000005b4 .LVL141
C:\Users\stapi\AppData\Local\Temp\ccEJMvgv.s:1505   .text.tls_process_ocsp_response:00000000000005dc .LVL144
C:\Users\stapi\AppData\Local\Temp\ccEJMvgv.s:1535   .text.tls_process_ocsp_response:0000000000000602 .LVL148
C:\Users\stapi\AppData\Local\Temp\ccEJMvgv.s:1559   .text.tls_process_ocsp_response:0000000000000636 .LVL151
C:\Users\stapi\AppData\Local\Temp\ccEJMvgv.s:1565   .text.tls_process_ocsp_response:0000000000000640 .LVL152
C:\Users\stapi\AppData\Local\Temp\ccEJMvgv.s:1574   .text.tls_process_ocsp_response:0000000000000648 .LVL153
C:\Users\stapi\AppData\Local\Temp\ccEJMvgv.s:1584   .text.tls_process_ocsp_response:000000000000065c .LVL155
C:\Users\stapi\AppData\Local\Temp\ccEJMvgv.s:1649   .text.tls_process_ocsp_response:00000000000006c6 .LVL161
C:\Users\stapi\AppData\Local\Temp\ccEJMvgv.s:1069   .text.tls_process_ocsp_response:0000000000000322 .LVL89
C:\Users\stapi\AppData\Local\Temp\ccEJMvgv.s:1146   .text.tls_process_ocsp_response:000000000000038c .LVL97
C:\Users\stapi\AppData\Local\Temp\ccEJMvgv.s:1659   .text.tls_process_ocsp_response:00000000000006d6 .LVL162
C:\Users\stapi\AppData\Local\Temp\ccEJMvgv.s:1074   .text.tls_process_ocsp_response:0000000000000324 .LVL90
C:\Users\stapi\AppData\Local\Temp\ccEJMvgv.s:1215   .text.tls_process_ocsp_response:00000000000003f4 .LVL105
C:\Users\stapi\AppData\Local\Temp\ccEJMvgv.s:1374   .text.tls_process_ocsp_response:00000000000004e2 .LVL128
C:\Users\stapi\AppData\Local\Temp\ccEJMvgv.s:1854   .text.tls_process_ocsp_response:0000000000000818 .LVL186
C:\Users\stapi\AppData\Local\Temp\ccEJMvgv.s:1358   .text.tls_process_ocsp_response:00000000000004d4 .LVL126
C:\Users\stapi\AppData\Local\Temp\ccEJMvgv.s:1371   .text.tls_process_ocsp_response:00000000000004e0 .LVL127
C:\Users\stapi\AppData\Local\Temp\ccEJMvgv.s:1693   .text.tls_process_ocsp_response:000000000000070e .LVL165
C:\Users\stapi\AppData\Local\Temp\ccEJMvgv.s:1698   .text.tls_process_ocsp_response:0000000000000716 .LVL166
C:\Users\stapi\AppData\Local\Temp\ccEJMvgv.s:1712   .text.tls_process_ocsp_response:000000000000072a .LVL168
C:\Users\stapi\AppData\Local\Temp\ccEJMvgv.s:1738   .text.tls_process_ocsp_response:000000000000075a .LVL172
C:\Users\stapi\AppData\Local\Temp\ccEJMvgv.s:1771   .text.tls_process_ocsp_response:000000000000079c .LVL177
C:\Users\stapi\AppData\Local\Temp\ccEJMvgv.s:2534   .text.tls_process_ocsp_response:0000000000000c46 .LVL271
C:\Users\stapi\AppData\Local\Temp\ccEJMvgv.s:1090   .text.tls_process_ocsp_response:0000000000000342 .LVL93
C:\Users\stapi\AppData\Local\Temp\ccEJMvgv.s:1104   .text.tls_process_ocsp_response:0000000000000354 .LVL94
C:\Users\stapi\AppData\Local\Temp\ccEJMvgv.s:1178   .text.tls_process_ocsp_response:00000000000003c2 .LVL101
C:\Users\stapi\AppData\Local\Temp\ccEJMvgv.s:1188   .text.tls_process_ocsp_response:00000000000003d0 .LVL102
C:\Users\stapi\AppData\Local\Temp\ccEJMvgv.s:1248   .text.tls_process_ocsp_response:000000000000042a .LVL110
C:\Users\stapi\AppData\Local\Temp\ccEJMvgv.s:1260   .text.tls_process_ocsp_response:000000000000043c .LVL112
C:\Users\stapi\AppData\Local\Temp\ccEJMvgv.s:1272   .text.tls_process_ocsp_response:0000000000000450 .LVL114
C:\Users\stapi\AppData\Local\Temp\ccEJMvgv.s:1281   .text.tls_process_ocsp_response:000000000000045c .LVL115
C:\Users\stapi\AppData\Local\Temp\ccEJMvgv.s:1519   .text.tls_process_ocsp_response:00000000000005f2 .LVL146
C:\Users\stapi\AppData\Local\Temp\ccEJMvgv.s:1529   .text.tls_process_ocsp_response:0000000000000600 .LVL147
C:\Users\stapi\AppData\Local\Temp\ccEJMvgv.s:1595   .text.tls_process_ocsp_response:000000000000066a .LVL156
C:\Users\stapi\AppData\Local\Temp\ccEJMvgv.s:1936   .text.tls_process_ocsp_response:0000000000000898 .LVL195
C:\Users\stapi\AppData\Local\Temp\ccEJMvgv.s:1944   .text.tls_process_ocsp_response:00000000000008a4 .LVL197
C:\Users\stapi\AppData\Local\Temp\ccEJMvgv.s:2037   .text.tls_process_ocsp_response:0000000000000938 .LVL208
C:\Users\stapi\AppData\Local\Temp\ccEJMvgv.s:2069   .text.tls_process_ocsp_response:0000000000000968 .LVL213
C:\Users\stapi\AppData\Local\Temp\ccEJMvgv.s:2079   .text.tls_process_ocsp_response:0000000000000974 .LVL215
C:\Users\stapi\AppData\Local\Temp\ccEJMvgv.s:1894   .text.tls_process_ocsp_response:000000000000085c .LVL191
C:\Users\stapi\AppData\Local\Temp\ccEJMvgv.s:2644   .debug_info:0000000000000000 .Ldebug_info0
C:\Users\stapi\AppData\Local\Temp\ccEJMvgv.s:2071   .text.tls_process_ocsp_response:000000000000096a .LVL214
C:\Users\stapi\AppData\Local\Temp\ccEJMvgv.s:2282   .text.tls_process_ocsp_response:0000000000000aa2 .LVL246
C:\Users\stapi\AppData\Local\Temp\ccEJMvgv.s:2273   .text.tls_process_ocsp_response:0000000000000a96 .LVL244
C:\Users\stapi\AppData\Local\Temp\ccEJMvgv.s:2296   .text.tls_process_ocsp_response:0000000000000ab6 .LVL248
C:\Users\stapi\AppData\Local\Temp\ccEJMvgv.s:2455   .text.tls_process_ocsp_response:0000000000000bc0 .LVL263
C:\Users\stapi\AppData\Local\Temp\ccEJMvgv.s:1959   .text.tls_process_ocsp_response:00000000000008b2 .LVL198
C:\Users\stapi\AppData\Local\Temp\ccEJMvgv.s:2304   .text.tls_process_ocsp_response:0000000000000ac0 .LVL249
C:\Users\stapi\AppData\Local\Temp\ccEJMvgv.s:1993   .text.tls_process_ocsp_response:00000000000008e2 .LVL203
C:\Users\stapi\AppData\Local\Temp\ccEJMvgv.s:2054   .text.tls_process_ocsp_response:0000000000000958 .LVL211
C:\Users\stapi\AppData\Local\Temp\ccEJMvgv.s:2131   .text.tls_process_ocsp_response:00000000000009c0 .LVL224
C:\Users\stapi\AppData\Local\Temp\ccEJMvgv.s:2175   .text.tls_process_ocsp_response:0000000000000a0c .LVL230
C:\Users\stapi\AppData\Local\Temp\ccEJMvgv.s:2181   .text.tls_process_ocsp_response:0000000000000a16 .LVL231
C:\Users\stapi\AppData\Local\Temp\ccEJMvgv.s:2119   .text.tls_process_ocsp_response:00000000000009ae .LVL221
C:\Users\stapi\AppData\Local\Temp\ccEJMvgv.s:2260   .text.tls_process_ocsp_response:0000000000000a7c .LVL242
C:\Users\stapi\AppData\Local\Temp\ccEJMvgv.s:2000   .text.tls_process_ocsp_response:00000000000008ec .LVL204
C:\Users\stapi\AppData\Local\Temp\ccEJMvgv.s:2125   .text.tls_process_ocsp_response:00000000000009b4 .LVL222
C:\Users\stapi\AppData\Local\Temp\ccEJMvgv.s:2127   .text.tls_process_ocsp_response:00000000000009b8 .LVL223
C:\Users\stapi\AppData\Local\Temp\ccEJMvgv.s:2258   .text.tls_process_ocsp_response:0000000000000a7a .LVL241
C:\Users\stapi\AppData\Local\Temp\ccEJMvgv.s:2233   .text.tls_process_ocsp_response:0000000000000a60 .LVL238
C:\Users\stapi\AppData\Local\Temp\ccEJMvgv.s:2244   .text.tls_process_ocsp_response:0000000000000a68 .LVL239
C:\Users\stapi\AppData\Local\Temp\ccEJMvgv.s:2247   .text.tls_process_ocsp_response:0000000000000a6a .LVL240
C:\Users\stapi\AppData\Local\Temp\ccEJMvgv.s:2041   .text.tls_process_ocsp_response:000000000000093a .LVL209
C:\Users\stapi\AppData\Local\Temp\ccEJMvgv.s:2087   .text.tls_process_ocsp_response:000000000000097e .LVL216
C:\Users\stapi\AppData\Local\Temp\ccEJMvgv.s:2157   .text.tls_process_ocsp_response:00000000000009ea .LVL227
C:\Users\stapi\AppData\Local\Temp\ccEJMvgv.s:2161   .text.tls_process_ocsp_response:00000000000009ec .LVL228
C:\Users\stapi\AppData\Local\Temp\ccEJMvgv.s:2189   .text.tls_process_ocsp_response:0000000000000a20 .LVL232
C:\Users\stapi\AppData\Local\Temp\ccEJMvgv.s:2212   .text.tls_process_ocsp_response:0000000000000a46 .LVL236
C:\Users\stapi\AppData\Local\Temp\ccEJMvgv.s:2324   .text.tls_process_ocsp_response:0000000000000ae2 .LVL251
C:\Users\stapi\AppData\Local\Temp\ccEJMvgv.s:1975   .text.tls_process_ocsp_response:00000000000008d0 .LVL201
C:\Users\stapi\AppData\Local\Temp\ccEJMvgv.s:1985   .text.tls_process_ocsp_response:00000000000008de .LVL202
C:\Users\stapi\AppData\Local\Temp\ccEJMvgv.s:2101   .text.tls_process_ocsp_response:000000000000099c .LVL219
C:\Users\stapi\AppData\Local\Temp\ccEJMvgv.s:2111   .text.tls_process_ocsp_response:00000000000009aa .LVL220
C:\Users\stapi\AppData\Local\Temp\ccEJMvgv.s:2203   .text.tls_process_ocsp_response:0000000000000a3e .LVL235
C:\Users\stapi\AppData\Local\Temp\ccEJMvgv.s:2216   .text.tls_process_ocsp_response:0000000000000a4c .LVL237
C:\Users\stapi\AppData\Local\Temp\ccEJMvgv.s:2510   .text.tls_process_ocsp_response:0000000000000c20 .LVL269
C:\Users\stapi\AppData\Local\Temp\ccEJMvgv.s:2468   .text.tls_process_ocsp_response:0000000000000bd6 .LVL265
C:\Users\stapi\AppData\Local\Temp\ccEJMvgv.s:2478   .text.tls_process_ocsp_response:0000000000000be4 .LVL266
C:\Users\stapi\AppData\Local\Temp\ccEJMvgv.s:2368   .text.tls_process_ocsp_response:0000000000000b3c .LVL256
C:\Users\stapi\AppData\Local\Temp\ccEJMvgv.s:2378   .text.tls_process_ocsp_response:0000000000000b4a .LVL257
C:\Users\stapi\AppData\Local\Temp\ccEJMvgv.s:2429   .text.tls_process_ocsp_response:0000000000000ba2 .LVL261
C:\Users\stapi\AppData\Local\Temp\ccEJMvgv.s:2439   .text.tls_process_ocsp_response:0000000000000bb0 .LVL262
C:\Users\stapi\AppData\Local\Temp\ccEJMvgv.s:649    .text.tls_process_ocsp_response:0000000000000080 .LVL44
C:\Users\stapi\AppData\Local\Temp\ccEJMvgv.s:659    .text.tls_process_ocsp_response:000000000000008e .LVL45
C:\Users\stapi\AppData\Local\Temp\ccEJMvgv.s:729    .text.tls_process_ocsp_response:00000000000000fa .LVL52
C:\Users\stapi\AppData\Local\Temp\ccEJMvgv.s:741    .text.tls_process_ocsp_response:0000000000000108 .LVL53
C:\Users\stapi\AppData\Local\Temp\ccEJMvgv.s:868    .text.tls_process_ocsp_response:00000000000001fe .LVL64
C:\Users\stapi\AppData\Local\Temp\ccEJMvgv.s:901    .text.tls_process_ocsp_response:0000000000000234 .LVL68
C:\Users\stapi\AppData\Local\Temp\ccEJMvgv.s:911    .text.tls_process_ocsp_response:0000000000000242 .LVL69
C:\Users\stapi\AppData\Local\Temp\ccEJMvgv.s:144    .text.ocsp_hash_data:0000000000000000 .LVL13
C:\Users\stapi\AppData\Local\Temp\ccEJMvgv.s:46     .text.ocsp_responder_id_match:0000000000000000 .LVL4
C:\Users\stapi\AppData\Local\Temp\ccEJMvgv.s:76     .text.ocsp_responder_id_match:0000000000000020 .LVL7
C:\Users\stapi\AppData\Local\Temp\ccEJMvgv.s:108    .text.ocsp_responder_id_match:000000000000004e .LVL10
C:\Users\stapi\AppData\Local\Temp\ccEJMvgv.s:114    .text.ocsp_responder_id_match:0000000000000052 .LVL11
C:\Users\stapi\AppData\Local\Temp\ccEJMvgv.s:74     .text.ocsp_responder_id_match:000000000000001e .LVL6
C:\Users\stapi\AppData\Local\Temp\ccEJMvgv.s:72     .text.ocsp_responder_id_match:000000000000001c .LVL5
C:\Users\stapi\AppData\Local\Temp\ccEJMvgv.s:17     .text.asn1_is_sequence:0000000000000000 .LVL0
C:\Users\stapi\AppData\Local\Temp\ccEJMvgv.s:24     .text.asn1_is_sequence:0000000000000008 .LVL1
C:\Users\stapi\AppData\Local\Temp\ccEJMvgv.s:28     .text.asn1_is_sequence:0000000000000010 .LVL2
C:\Users\stapi\AppData\Local\Temp\ccEJMvgv.s:32     .text.asn1_is_sequence:0000000000000012 .LVL3
C:\Users\stapi\AppData\Local\Temp\ccEJMvgv.s:931    .text.tls_process_ocsp_response:0000000000000256 .LBB53
C:\Users\stapi\AppData\Local\Temp\ccEJMvgv.s:2558   .text.tls_process_ocsp_response:0000000000000c5e .LBE53
C:\Users\stapi\AppData\Local\Temp\ccEJMvgv.s:2576   .text.tls_process_ocsp_response:0000000000000c74 .LBB100
C:\Users\stapi\AppData\Local\Temp\ccEJMvgv.s:2592   .text.tls_process_ocsp_response:0000000000000c84 .LBE100
C:\Users\stapi\AppData\Local\Temp\ccEJMvgv.s:2598   .text.tls_process_ocsp_response:0000000000000c8a .LBB101
C:\Users\stapi\AppData\Local\Temp\ccEJMvgv.s:2622   .text.tls_process_ocsp_response:0000000000000cac .LBE101
C:\Users\stapi\AppData\Local\Temp\ccEJMvgv.s:2549   .text.tls_process_ocsp_response:0000000000000c54 .LBE54
C:\Users\stapi\AppData\Local\Temp\ccEJMvgv.s:2577   .text.tls_process_ocsp_response:0000000000000c74 .LBB98
C:\Users\stapi\AppData\Local\Temp\ccEJMvgv.s:2591   .text.tls_process_ocsp_response:0000000000000c84 .LBE98
C:\Users\stapi\AppData\Local\Temp\ccEJMvgv.s:2599   .text.tls_process_ocsp_response:0000000000000c8a .LBB99
C:\Users\stapi\AppData\Local\Temp\ccEJMvgv.s:2621   .text.tls_process_ocsp_response:0000000000000cac .LBE99
C:\Users\stapi\AppData\Local\Temp\ccEJMvgv.s:1301   .text.tls_process_ocsp_response:0000000000000478 .LBB64
C:\Users\stapi\AppData\Local\Temp\ccEJMvgv.s:1323   .text.tls_process_ocsp_response:000000000000049e .LBE64
C:\Users\stapi\AppData\Local\Temp\ccEJMvgv.s:1341   .text.tls_process_ocsp_response:00000000000004be .LBB65
C:\Users\stapi\AppData\Local\Temp\ccEJMvgv.s:1378   .text.tls_process_ocsp_response:00000000000004e4 .LBE65
C:\Users\stapi\AppData\Local\Temp\ccEJMvgv.s:1773   .text.tls_process_ocsp_response:000000000000079c .LBE70
C:\Users\stapi\AppData\Local\Temp\ccEJMvgv.s:1776   .text.tls_process_ocsp_response:00000000000007a0 .LBB94
C:\Users\stapi\AppData\Local\Temp\ccEJMvgv.s:1796   .text.tls_process_ocsp_response:00000000000007ba .LBE94
C:\Users\stapi\AppData\Local\Temp\ccEJMvgv.s:1866   .text.tls_process_ocsp_response:000000000000082c .LBB95
C:\Users\stapi\AppData\Local\Temp\ccEJMvgv.s:2538   .text.tls_process_ocsp_response:0000000000000c46 .LBE95
C:\Users\stapi\AppData\Local\Temp\ccEJMvgv.s:1785   .text.tls_process_ocsp_response:00000000000007a4 .LBE72
C:\Users\stapi\AppData\Local\Temp\ccEJMvgv.s:1895   .text.tls_process_ocsp_response:000000000000085c .LBB90
C:\Users\stapi\AppData\Local\Temp\ccEJMvgv.s:2063   .text.tls_process_ocsp_response:0000000000000962 .LBE90
C:\Users\stapi\AppData\Local\Temp\ccEJMvgv.s:2073   .text.tls_process_ocsp_response:000000000000096a .LBB91
C:\Users\stapi\AppData\Local\Temp\ccEJMvgv.s:2536   .text.tls_process_ocsp_response:0000000000000c46 .LBE91
C:\Users\stapi\AppData\Local\Temp\ccEJMvgv.s:2275   .text.tls_process_ocsp_response:0000000000000a96 .LBB80
C:\Users\stapi\AppData\Local\Temp\ccEJMvgv.s:2284   .text.tls_process_ocsp_response:0000000000000aa2 .LBE80
C:\Users\stapi\AppData\Local\Temp\ccEJMvgv.s:2445   .text.tls_process_ocsp_response:0000000000000bb6 .LBB87
C:\Users\stapi\AppData\Local\Temp\ccEJMvgv.s:2512   .text.tls_process_ocsp_response:0000000000000c20 .LBE87

UNDEFINED SYMBOLS
__riscv_save_1
sha1_vector
os_memcmp
__riscv_restore_1
x509_name_compare
__riscv_save_2
x509_sha1_oid
wpa_hexdump
__riscv_restore_2
x509_sha256_oid
sha256_vector
x509_sha384_oid
sha384_vector
x509_sha512_oid
sha512_vector
asn1_oid_to_str
wpa_printf
__riscv_save_12
asn1_get_next
asn1_unexpected
__riscv_restore_12
asn1_get_oid
x509_name_string
os_memset
x509_parse_algorithm_identifier
x509_free_name
x509_certificate_chain_free
x509_certificate_parse
x509_parse_name
x509_parse_time
x509_check_signature
x509_certificate_check_signature
os_get_time
