   1              		.file	"tlsv1_record.c"
   2              		.option nopic
   3              		.attribute arch, "rv32i2p0_m2p0_a2p0_f2p0_c2p0_b_p0p94"
   4              		.attribute unaligned_access, 0
   5              		.attribute stack_align, 16
   6              		.text
   7              	.Ltext0:
   8              		.cfi_sections	.debug_frame
   9              		.section	.rodata.tlsv1_record_set_cipher_suite.str1.4,"aMS",@progbits,1
  10              		.align	2
  11              	.LC0:
  12 0000 544C5376 		.string	"TLSv1: Selected cipher suite: 0x%04x"
  12      313A2053 
  12      656C6563 
  12      74656420 
  12      63697068 
  13              		.section	.text.tlsv1_record_set_cipher_suite,"ax",@progbits
  14              		.align	1
  15              		.globl	tlsv1_record_set_cipher_suite
  17              	tlsv1_record_set_cipher_suite:
  18              	.LFB71:
  19              		.file 1 "C:/Users/stapi/OneDrive/Desktop/GD32VW553/V1_MQTT_OK/GD32VW55X_Wifi_BLE_SDK/GD32VW55x_REL
   1:C:/Users/stapi/OneDrive/Desktop/GD32VW553/V1_MQTT_OK/GD32VW55X_Wifi_BLE_SDK/GD32VW55x_RELEASE_V1.0.2/MSDK/wpa_supplicant/src/tls\tlsv1_record.c **** /*
   2:C:/Users/stapi/OneDrive/Desktop/GD32VW553/V1_MQTT_OK/GD32VW55X_Wifi_BLE_SDK/GD32VW55x_RELEASE_V1.0.2/MSDK/wpa_supplicant/src/tls\tlsv1_record.c ****  * TLSv1 Record Protocol
   3:C:/Users/stapi/OneDrive/Desktop/GD32VW553/V1_MQTT_OK/GD32VW55X_Wifi_BLE_SDK/GD32VW55x_RELEASE_V1.0.2/MSDK/wpa_supplicant/src/tls\tlsv1_record.c ****  * Copyright (c) 2006-2011, Jouni Malinen <j@w1.fi>
   4:C:/Users/stapi/OneDrive/Desktop/GD32VW553/V1_MQTT_OK/GD32VW55X_Wifi_BLE_SDK/GD32VW55x_RELEASE_V1.0.2/MSDK/wpa_supplicant/src/tls\tlsv1_record.c ****  *
   5:C:/Users/stapi/OneDrive/Desktop/GD32VW553/V1_MQTT_OK/GD32VW55X_Wifi_BLE_SDK/GD32VW55x_RELEASE_V1.0.2/MSDK/wpa_supplicant/src/tls\tlsv1_record.c ****  * This software may be distributed under the terms of the BSD license.
   6:C:/Users/stapi/OneDrive/Desktop/GD32VW553/V1_MQTT_OK/GD32VW55X_Wifi_BLE_SDK/GD32VW55x_RELEASE_V1.0.2/MSDK/wpa_supplicant/src/tls\tlsv1_record.c ****  * See README for more details.
   7:C:/Users/stapi/OneDrive/Desktop/GD32VW553/V1_MQTT_OK/GD32VW55X_Wifi_BLE_SDK/GD32VW55x_RELEASE_V1.0.2/MSDK/wpa_supplicant/src/tls\tlsv1_record.c ****  */
   8:C:/Users/stapi/OneDrive/Desktop/GD32VW553/V1_MQTT_OK/GD32VW55X_Wifi_BLE_SDK/GD32VW55x_RELEASE_V1.0.2/MSDK/wpa_supplicant/src/tls\tlsv1_record.c **** 
   9:C:/Users/stapi/OneDrive/Desktop/GD32VW553/V1_MQTT_OK/GD32VW55X_Wifi_BLE_SDK/GD32VW55x_RELEASE_V1.0.2/MSDK/wpa_supplicant/src/tls\tlsv1_record.c **** #include "includes.h"
  10:C:/Users/stapi/OneDrive/Desktop/GD32VW553/V1_MQTT_OK/GD32VW55X_Wifi_BLE_SDK/GD32VW55x_RELEASE_V1.0.2/MSDK/wpa_supplicant/src/tls\tlsv1_record.c **** 
  11:C:/Users/stapi/OneDrive/Desktop/GD32VW553/V1_MQTT_OK/GD32VW55X_Wifi_BLE_SDK/GD32VW55x_RELEASE_V1.0.2/MSDK/wpa_supplicant/src/tls\tlsv1_record.c **** #include "common.h"
  12:C:/Users/stapi/OneDrive/Desktop/GD32VW553/V1_MQTT_OK/GD32VW55X_Wifi_BLE_SDK/GD32VW55x_RELEASE_V1.0.2/MSDK/wpa_supplicant/src/tls\tlsv1_record.c **** #include "crypto/md5.h"
  13:C:/Users/stapi/OneDrive/Desktop/GD32VW553/V1_MQTT_OK/GD32VW55X_Wifi_BLE_SDK/GD32VW55x_RELEASE_V1.0.2/MSDK/wpa_supplicant/src/tls\tlsv1_record.c **** #include "crypto/sha1.h"
  14:C:/Users/stapi/OneDrive/Desktop/GD32VW553/V1_MQTT_OK/GD32VW55X_Wifi_BLE_SDK/GD32VW55x_RELEASE_V1.0.2/MSDK/wpa_supplicant/src/tls\tlsv1_record.c **** #include "crypto/sha256.h"
  15:C:/Users/stapi/OneDrive/Desktop/GD32VW553/V1_MQTT_OK/GD32VW55X_Wifi_BLE_SDK/GD32VW55x_RELEASE_V1.0.2/MSDK/wpa_supplicant/src/tls\tlsv1_record.c **** #include "tlsv1_common.h"
  16:C:/Users/stapi/OneDrive/Desktop/GD32VW553/V1_MQTT_OK/GD32VW55X_Wifi_BLE_SDK/GD32VW55x_RELEASE_V1.0.2/MSDK/wpa_supplicant/src/tls\tlsv1_record.c **** #include "tlsv1_record.h"
  17:C:/Users/stapi/OneDrive/Desktop/GD32VW553/V1_MQTT_OK/GD32VW55X_Wifi_BLE_SDK/GD32VW55x_RELEASE_V1.0.2/MSDK/wpa_supplicant/src/tls\tlsv1_record.c **** 
  18:C:/Users/stapi/OneDrive/Desktop/GD32VW553/V1_MQTT_OK/GD32VW55X_Wifi_BLE_SDK/GD32VW55x_RELEASE_V1.0.2/MSDK/wpa_supplicant/src/tls\tlsv1_record.c **** 
  19:C:/Users/stapi/OneDrive/Desktop/GD32VW553/V1_MQTT_OK/GD32VW55X_Wifi_BLE_SDK/GD32VW55x_RELEASE_V1.0.2/MSDK/wpa_supplicant/src/tls\tlsv1_record.c **** /**
  20:C:/Users/stapi/OneDrive/Desktop/GD32VW553/V1_MQTT_OK/GD32VW55X_Wifi_BLE_SDK/GD32VW55x_RELEASE_V1.0.2/MSDK/wpa_supplicant/src/tls\tlsv1_record.c ****  * tlsv1_record_set_cipher_suite - TLS record layer: Set cipher suite
  21:C:/Users/stapi/OneDrive/Desktop/GD32VW553/V1_MQTT_OK/GD32VW55X_Wifi_BLE_SDK/GD32VW55x_RELEASE_V1.0.2/MSDK/wpa_supplicant/src/tls\tlsv1_record.c ****  * @rl: Pointer to TLS record layer data
  22:C:/Users/stapi/OneDrive/Desktop/GD32VW553/V1_MQTT_OK/GD32VW55X_Wifi_BLE_SDK/GD32VW55x_RELEASE_V1.0.2/MSDK/wpa_supplicant/src/tls\tlsv1_record.c ****  * @cipher_suite: New cipher suite
  23:C:/Users/stapi/OneDrive/Desktop/GD32VW553/V1_MQTT_OK/GD32VW55X_Wifi_BLE_SDK/GD32VW55x_RELEASE_V1.0.2/MSDK/wpa_supplicant/src/tls\tlsv1_record.c ****  * Returns: 0 on success, -1 on failure
  24:C:/Users/stapi/OneDrive/Desktop/GD32VW553/V1_MQTT_OK/GD32VW55X_Wifi_BLE_SDK/GD32VW55x_RELEASE_V1.0.2/MSDK/wpa_supplicant/src/tls\tlsv1_record.c ****  *
  25:C:/Users/stapi/OneDrive/Desktop/GD32VW553/V1_MQTT_OK/GD32VW55X_Wifi_BLE_SDK/GD32VW55x_RELEASE_V1.0.2/MSDK/wpa_supplicant/src/tls\tlsv1_record.c ****  * This function is used to prepare TLS record layer for cipher suite change.
  26:C:/Users/stapi/OneDrive/Desktop/GD32VW553/V1_MQTT_OK/GD32VW55X_Wifi_BLE_SDK/GD32VW55x_RELEASE_V1.0.2/MSDK/wpa_supplicant/src/tls\tlsv1_record.c ****  * tlsv1_record_change_write_cipher() and
  27:C:/Users/stapi/OneDrive/Desktop/GD32VW553/V1_MQTT_OK/GD32VW55X_Wifi_BLE_SDK/GD32VW55x_RELEASE_V1.0.2/MSDK/wpa_supplicant/src/tls\tlsv1_record.c ****  * tlsv1_record_change_read_cipher() functions can then be used to change the
  28:C:/Users/stapi/OneDrive/Desktop/GD32VW553/V1_MQTT_OK/GD32VW55X_Wifi_BLE_SDK/GD32VW55x_RELEASE_V1.0.2/MSDK/wpa_supplicant/src/tls\tlsv1_record.c ****  * currently used ciphers.
  29:C:/Users/stapi/OneDrive/Desktop/GD32VW553/V1_MQTT_OK/GD32VW55X_Wifi_BLE_SDK/GD32VW55x_RELEASE_V1.0.2/MSDK/wpa_supplicant/src/tls\tlsv1_record.c ****  */
  30:C:/Users/stapi/OneDrive/Desktop/GD32VW553/V1_MQTT_OK/GD32VW55X_Wifi_BLE_SDK/GD32VW55x_RELEASE_V1.0.2/MSDK/wpa_supplicant/src/tls\tlsv1_record.c **** int tlsv1_record_set_cipher_suite(struct tlsv1_record_layer *rl,
  31:C:/Users/stapi/OneDrive/Desktop/GD32VW553/V1_MQTT_OK/GD32VW55X_Wifi_BLE_SDK/GD32VW55x_RELEASE_V1.0.2/MSDK/wpa_supplicant/src/tls\tlsv1_record.c **** 				  u16 cipher_suite)
  32:C:/Users/stapi/OneDrive/Desktop/GD32VW553/V1_MQTT_OK/GD32VW55X_Wifi_BLE_SDK/GD32VW55x_RELEASE_V1.0.2/MSDK/wpa_supplicant/src/tls\tlsv1_record.c **** {
  20              		.loc 1 32 1
  21              		.cfi_startproc
  22              	.LVL0:
  23 0000 17030000 		call	t0,__riscv_save_2
  23      E7020300 
  24              		.cfi_offset 9, -12
  25              		.cfi_offset 8, -8
  26              		.cfi_offset 1, -4
  27              		.cfi_def_cfa_offset 16
  33:C:/Users/stapi/OneDrive/Desktop/GD32VW553/V1_MQTT_OK/GD32VW55X_Wifi_BLE_SDK/GD32VW55x_RELEASE_V1.0.2/MSDK/wpa_supplicant/src/tls\tlsv1_record.c **** 	const struct tls_cipher_suite *suite;
  28              		.loc 1 33 2
  34:C:/Users/stapi/OneDrive/Desktop/GD32VW553/V1_MQTT_OK/GD32VW55X_Wifi_BLE_SDK/GD32VW55x_RELEASE_V1.0.2/MSDK/wpa_supplicant/src/tls\tlsv1_record.c **** 	const struct tls_cipher_data *data;
  29              		.loc 1 34 2
  35:C:/Users/stapi/OneDrive/Desktop/GD32VW553/V1_MQTT_OK/GD32VW55X_Wifi_BLE_SDK/GD32VW55x_RELEASE_V1.0.2/MSDK/wpa_supplicant/src/tls\tlsv1_record.c **** 
  36:C:/Users/stapi/OneDrive/Desktop/GD32VW553/V1_MQTT_OK/GD32VW55X_Wifi_BLE_SDK/GD32VW55x_RELEASE_V1.0.2/MSDK/wpa_supplicant/src/tls\tlsv1_record.c **** 	wpa_printf(MSG_DEBUG, "TLSv1: Selected cipher suite: 0x%04x",
  30              		.loc 1 36 2
  32:C:/Users/stapi/OneDrive/Desktop/GD32VW553/V1_MQTT_OK/GD32VW55X_Wifi_BLE_SDK/GD32VW55x_RELEASE_V1.0.2/MSDK/wpa_supplicant/src/tls\tlsv1_record.c **** 	const struct tls_cipher_suite *suite;
  31              		.loc 1 32 1 is_stmt 0
  32 0008 AE84     		mv	s1,a1
  33              		.loc 1 36 2
  34 000a 2E86     		mv	a2,a1
  35 000c B7050000 		lui	a1,%hi(.LC0)
  36              	.LVL1:
  32:C:/Users/stapi/OneDrive/Desktop/GD32VW553/V1_MQTT_OK/GD32VW55X_Wifi_BLE_SDK/GD32VW55x_RELEASE_V1.0.2/MSDK/wpa_supplicant/src/tls\tlsv1_record.c **** 	const struct tls_cipher_suite *suite;
  37              		.loc 1 32 1
  38 0010 2A84     		mv	s0,a0
  39              		.loc 1 36 2
  40 0012 93850500 		addi	a1,a1,%lo(.LC0)
  41 0016 0945     		li	a0,2
  42              	.LVL2:
  43 0018 97000000 		call	wpa_printf
  43      E7800000 
  44              	.LVL3:
  37:C:/Users/stapi/OneDrive/Desktop/GD32VW553/V1_MQTT_OK/GD32VW55X_Wifi_BLE_SDK/GD32VW55x_RELEASE_V1.0.2/MSDK/wpa_supplicant/src/tls\tlsv1_record.c **** 		   cipher_suite);
  38:C:/Users/stapi/OneDrive/Desktop/GD32VW553/V1_MQTT_OK/GD32VW55X_Wifi_BLE_SDK/GD32VW55x_RELEASE_V1.0.2/MSDK/wpa_supplicant/src/tls\tlsv1_record.c **** 	rl->cipher_suite = cipher_suite;
  45              		.loc 1 38 2 is_stmt 1
  39:C:/Users/stapi/OneDrive/Desktop/GD32VW553/V1_MQTT_OK/GD32VW55X_Wifi_BLE_SDK/GD32VW55x_RELEASE_V1.0.2/MSDK/wpa_supplicant/src/tls\tlsv1_record.c **** 
  40:C:/Users/stapi/OneDrive/Desktop/GD32VW553/V1_MQTT_OK/GD32VW55X_Wifi_BLE_SDK/GD32VW55x_RELEASE_V1.0.2/MSDK/wpa_supplicant/src/tls\tlsv1_record.c **** 	suite = tls_get_cipher_suite(cipher_suite);
  46              		.loc 1 40 10 is_stmt 0
  47 0020 2685     		mv	a0,s1
  38:C:/Users/stapi/OneDrive/Desktop/GD32VW553/V1_MQTT_OK/GD32VW55X_Wifi_BLE_SDK/GD32VW55x_RELEASE_V1.0.2/MSDK/wpa_supplicant/src/tls\tlsv1_record.c **** 
  48              		.loc 1 38 19
  49 0022 2314940C 		sh	s1,200(s0)
  50              		.loc 1 40 2 is_stmt 1
  51              		.loc 1 40 10 is_stmt 0
  52 0026 97000000 		call	tls_get_cipher_suite
  52      E7800000 
  53              	.LVL4:
  41:C:/Users/stapi/OneDrive/Desktop/GD32VW553/V1_MQTT_OK/GD32VW55X_Wifi_BLE_SDK/GD32VW55x_RELEASE_V1.0.2/MSDK/wpa_supplicant/src/tls\tlsv1_record.c **** 	if (suite == NULL)
  54              		.loc 1 41 2 is_stmt 1
  55              		.loc 1 41 5 is_stmt 0
  56 002e 11E5     		bne	a0,zero,.L2
  57              	.LVL5:
  58              	.L7:
  42:C:/Users/stapi/OneDrive/Desktop/GD32VW553/V1_MQTT_OK/GD32VW55X_Wifi_BLE_SDK/GD32VW55x_RELEASE_V1.0.2/MSDK/wpa_supplicant/src/tls\tlsv1_record.c **** 		return -1;
  59              		.loc 1 42 10
  60 0030 7D55     		li	a0,-1
  61              	.L1:
  43:C:/Users/stapi/OneDrive/Desktop/GD32VW553/V1_MQTT_OK/GD32VW55X_Wifi_BLE_SDK/GD32VW55x_RELEASE_V1.0.2/MSDK/wpa_supplicant/src/tls\tlsv1_record.c **** 
  44:C:/Users/stapi/OneDrive/Desktop/GD32VW553/V1_MQTT_OK/GD32VW55X_Wifi_BLE_SDK/GD32VW55x_RELEASE_V1.0.2/MSDK/wpa_supplicant/src/tls\tlsv1_record.c **** 	if (suite->hash == TLS_HASH_MD5) {
  45:C:/Users/stapi/OneDrive/Desktop/GD32VW553/V1_MQTT_OK/GD32VW55X_Wifi_BLE_SDK/GD32VW55x_RELEASE_V1.0.2/MSDK/wpa_supplicant/src/tls\tlsv1_record.c **** 		rl->hash_alg = CRYPTO_HASH_ALG_HMAC_MD5;
  46:C:/Users/stapi/OneDrive/Desktop/GD32VW553/V1_MQTT_OK/GD32VW55X_Wifi_BLE_SDK/GD32VW55x_RELEASE_V1.0.2/MSDK/wpa_supplicant/src/tls\tlsv1_record.c **** 		rl->hash_size = MD5_MAC_LEN;
  47:C:/Users/stapi/OneDrive/Desktop/GD32VW553/V1_MQTT_OK/GD32VW55X_Wifi_BLE_SDK/GD32VW55x_RELEASE_V1.0.2/MSDK/wpa_supplicant/src/tls\tlsv1_record.c **** 	} else if (suite->hash == TLS_HASH_SHA) {
  48:C:/Users/stapi/OneDrive/Desktop/GD32VW553/V1_MQTT_OK/GD32VW55X_Wifi_BLE_SDK/GD32VW55x_RELEASE_V1.0.2/MSDK/wpa_supplicant/src/tls\tlsv1_record.c **** 		rl->hash_alg = CRYPTO_HASH_ALG_HMAC_SHA1;
  49:C:/Users/stapi/OneDrive/Desktop/GD32VW553/V1_MQTT_OK/GD32VW55X_Wifi_BLE_SDK/GD32VW55x_RELEASE_V1.0.2/MSDK/wpa_supplicant/src/tls\tlsv1_record.c **** 		rl->hash_size = SHA1_MAC_LEN;
  50:C:/Users/stapi/OneDrive/Desktop/GD32VW553/V1_MQTT_OK/GD32VW55X_Wifi_BLE_SDK/GD32VW55x_RELEASE_V1.0.2/MSDK/wpa_supplicant/src/tls\tlsv1_record.c **** 	} else if (suite->hash == TLS_HASH_SHA256) {
  51:C:/Users/stapi/OneDrive/Desktop/GD32VW553/V1_MQTT_OK/GD32VW55X_Wifi_BLE_SDK/GD32VW55x_RELEASE_V1.0.2/MSDK/wpa_supplicant/src/tls\tlsv1_record.c **** 		rl->hash_alg = CRYPTO_HASH_ALG_HMAC_SHA256;
  52:C:/Users/stapi/OneDrive/Desktop/GD32VW553/V1_MQTT_OK/GD32VW55X_Wifi_BLE_SDK/GD32VW55x_RELEASE_V1.0.2/MSDK/wpa_supplicant/src/tls\tlsv1_record.c **** 		rl->hash_size = SHA256_MAC_LEN;
  53:C:/Users/stapi/OneDrive/Desktop/GD32VW553/V1_MQTT_OK/GD32VW55X_Wifi_BLE_SDK/GD32VW55x_RELEASE_V1.0.2/MSDK/wpa_supplicant/src/tls\tlsv1_record.c **** 	}
  54:C:/Users/stapi/OneDrive/Desktop/GD32VW553/V1_MQTT_OK/GD32VW55X_Wifi_BLE_SDK/GD32VW55x_RELEASE_V1.0.2/MSDK/wpa_supplicant/src/tls\tlsv1_record.c **** 
  55:C:/Users/stapi/OneDrive/Desktop/GD32VW553/V1_MQTT_OK/GD32VW55X_Wifi_BLE_SDK/GD32VW55x_RELEASE_V1.0.2/MSDK/wpa_supplicant/src/tls\tlsv1_record.c **** 	data = tls_get_cipher_data(suite->cipher);
  56:C:/Users/stapi/OneDrive/Desktop/GD32VW553/V1_MQTT_OK/GD32VW55X_Wifi_BLE_SDK/GD32VW55x_RELEASE_V1.0.2/MSDK/wpa_supplicant/src/tls\tlsv1_record.c **** 	if (data == NULL)
  57:C:/Users/stapi/OneDrive/Desktop/GD32VW553/V1_MQTT_OK/GD32VW55X_Wifi_BLE_SDK/GD32VW55x_RELEASE_V1.0.2/MSDK/wpa_supplicant/src/tls\tlsv1_record.c **** 		return -1;
  58:C:/Users/stapi/OneDrive/Desktop/GD32VW553/V1_MQTT_OK/GD32VW55X_Wifi_BLE_SDK/GD32VW55x_RELEASE_V1.0.2/MSDK/wpa_supplicant/src/tls\tlsv1_record.c **** 
  59:C:/Users/stapi/OneDrive/Desktop/GD32VW553/V1_MQTT_OK/GD32VW55X_Wifi_BLE_SDK/GD32VW55x_RELEASE_V1.0.2/MSDK/wpa_supplicant/src/tls\tlsv1_record.c **** 	rl->key_material_len = data->key_material;
  60:C:/Users/stapi/OneDrive/Desktop/GD32VW553/V1_MQTT_OK/GD32VW55X_Wifi_BLE_SDK/GD32VW55x_RELEASE_V1.0.2/MSDK/wpa_supplicant/src/tls\tlsv1_record.c **** 	rl->iv_size = data->block_size;
  61:C:/Users/stapi/OneDrive/Desktop/GD32VW553/V1_MQTT_OK/GD32VW55X_Wifi_BLE_SDK/GD32VW55x_RELEASE_V1.0.2/MSDK/wpa_supplicant/src/tls\tlsv1_record.c **** 	rl->cipher_alg = data->alg;
  62:C:/Users/stapi/OneDrive/Desktop/GD32VW553/V1_MQTT_OK/GD32VW55X_Wifi_BLE_SDK/GD32VW55x_RELEASE_V1.0.2/MSDK/wpa_supplicant/src/tls\tlsv1_record.c **** 
  63:C:/Users/stapi/OneDrive/Desktop/GD32VW553/V1_MQTT_OK/GD32VW55X_Wifi_BLE_SDK/GD32VW55x_RELEASE_V1.0.2/MSDK/wpa_supplicant/src/tls\tlsv1_record.c **** 	return 0;
  64:C:/Users/stapi/OneDrive/Desktop/GD32VW553/V1_MQTT_OK/GD32VW55X_Wifi_BLE_SDK/GD32VW55x_RELEASE_V1.0.2/MSDK/wpa_supplicant/src/tls\tlsv1_record.c **** }
  62              		.loc 1 64 1
  63 0032 17030000 		tail	__riscv_restore_2
  63      67000300 
  64              		.cfi_remember_state
  65              		.cfi_restore 9
  66              		.cfi_restore 8
  67              		.cfi_restore 1
  68              		.cfi_def_cfa_offset 0
  69              	.LVL6:
  70              	.L2:
  71              		.cfi_restore_state
  44:C:/Users/stapi/OneDrive/Desktop/GD32VW553/V1_MQTT_OK/GD32VW55X_Wifi_BLE_SDK/GD32VW55x_RELEASE_V1.0.2/MSDK/wpa_supplicant/src/tls\tlsv1_record.c **** 		rl->hash_alg = CRYPTO_HASH_ALG_HMAC_MD5;
  72              		.loc 1 44 2 is_stmt 1
  44:C:/Users/stapi/OneDrive/Desktop/GD32VW553/V1_MQTT_OK/GD32VW55X_Wifi_BLE_SDK/GD32VW55x_RELEASE_V1.0.2/MSDK/wpa_supplicant/src/tls\tlsv1_record.c **** 		rl->hash_alg = CRYPTO_HASH_ALG_HMAC_MD5;
  73              		.loc 1 44 11 is_stmt 0
  74 003a 5C45     		lw	a5,12(a0)
  44:C:/Users/stapi/OneDrive/Desktop/GD32VW553/V1_MQTT_OK/GD32VW55X_Wifi_BLE_SDK/GD32VW55x_RELEASE_V1.0.2/MSDK/wpa_supplicant/src/tls\tlsv1_record.c **** 		rl->hash_alg = CRYPTO_HASH_ALG_HMAC_MD5;
  75              		.loc 1 44 5
  76 003c 0547     		li	a4,1
  77 003e 6399E702 		bne	a5,a4,.L4
  45:C:/Users/stapi/OneDrive/Desktop/GD32VW553/V1_MQTT_OK/GD32VW55X_Wifi_BLE_SDK/GD32VW55x_RELEASE_V1.0.2/MSDK/wpa_supplicant/src/tls\tlsv1_record.c **** 		rl->hash_size = MD5_MAC_LEN;
  78              		.loc 1 45 3 is_stmt 1
  45:C:/Users/stapi/OneDrive/Desktop/GD32VW553/V1_MQTT_OK/GD32VW55X_Wifi_BLE_SDK/GD32VW55x_RELEASE_V1.0.2/MSDK/wpa_supplicant/src/tls\tlsv1_record.c **** 		rl->hash_size = MD5_MAC_LEN;
  79              		.loc 1 45 16 is_stmt 0
  80 0042 8947     		li	a5,2
  81 0044 2328F40A 		sw	a5,176(s0)
  46:C:/Users/stapi/OneDrive/Desktop/GD32VW553/V1_MQTT_OK/GD32VW55X_Wifi_BLE_SDK/GD32VW55x_RELEASE_V1.0.2/MSDK/wpa_supplicant/src/tls\tlsv1_record.c **** 	} else if (suite->hash == TLS_HASH_SHA) {
  82              		.loc 1 46 3 is_stmt 1
  46:C:/Users/stapi/OneDrive/Desktop/GD32VW553/V1_MQTT_OK/GD32VW55X_Wifi_BLE_SDK/GD32VW55x_RELEASE_V1.0.2/MSDK/wpa_supplicant/src/tls\tlsv1_record.c **** 	} else if (suite->hash == TLS_HASH_SHA) {
  83              		.loc 1 46 17 is_stmt 0
  84 0048 C147     		li	a5,16
  85              	.L12:
  52:C:/Users/stapi/OneDrive/Desktop/GD32VW553/V1_MQTT_OK/GD32VW55X_Wifi_BLE_SDK/GD32VW55x_RELEASE_V1.0.2/MSDK/wpa_supplicant/src/tls\tlsv1_record.c **** 	}
  86              		.loc 1 52 17
  87 004a 2322F40A 		sw	a5,164(s0)
  88              	.L5:
  55:C:/Users/stapi/OneDrive/Desktop/GD32VW553/V1_MQTT_OK/GD32VW55X_Wifi_BLE_SDK/GD32VW55x_RELEASE_V1.0.2/MSDK/wpa_supplicant/src/tls\tlsv1_record.c **** 	if (data == NULL)
  89              		.loc 1 55 2 is_stmt 1
  55:C:/Users/stapi/OneDrive/Desktop/GD32VW553/V1_MQTT_OK/GD32VW55X_Wifi_BLE_SDK/GD32VW55x_RELEASE_V1.0.2/MSDK/wpa_supplicant/src/tls\tlsv1_record.c **** 	if (data == NULL)
  90              		.loc 1 55 9 is_stmt 0
  91 004e 0845     		lw	a0,8(a0)
  92              	.LVL7:
  93 0050 97000000 		call	tls_get_cipher_data
  93      E7800000 
  94              	.LVL8:
  56:C:/Users/stapi/OneDrive/Desktop/GD32VW553/V1_MQTT_OK/GD32VW55X_Wifi_BLE_SDK/GD32VW55x_RELEASE_V1.0.2/MSDK/wpa_supplicant/src/tls\tlsv1_record.c **** 		return -1;
  95              		.loc 1 56 2 is_stmt 1
  56:C:/Users/stapi/OneDrive/Desktop/GD32VW553/V1_MQTT_OK/GD32VW55X_Wifi_BLE_SDK/GD32VW55x_RELEASE_V1.0.2/MSDK/wpa_supplicant/src/tls\tlsv1_record.c **** 		return -1;
  96              		.loc 1 56 5 is_stmt 0
  97 0058 61DD     		beq	a0,zero,.L7
  59:C:/Users/stapi/OneDrive/Desktop/GD32VW553/V1_MQTT_OK/GD32VW55X_Wifi_BLE_SDK/GD32VW55x_RELEASE_V1.0.2/MSDK/wpa_supplicant/src/tls\tlsv1_record.c **** 	rl->iv_size = data->block_size;
  98              		.loc 1 59 2 is_stmt 1
  59:C:/Users/stapi/OneDrive/Desktop/GD32VW553/V1_MQTT_OK/GD32VW55X_Wifi_BLE_SDK/GD32VW55x_RELEASE_V1.0.2/MSDK/wpa_supplicant/src/tls\tlsv1_record.c **** 	rl->iv_size = data->block_size;
  99              		.loc 1 59 23 is_stmt 0
 100 005a 1C45     		lw	a5,8(a0)
 101 005c 2324F40A 		sw	a5,168(s0)
  60:C:/Users/stapi/OneDrive/Desktop/GD32VW553/V1_MQTT_OK/GD32VW55X_Wifi_BLE_SDK/GD32VW55x_RELEASE_V1.0.2/MSDK/wpa_supplicant/src/tls\tlsv1_record.c **** 	rl->cipher_alg = data->alg;
 102              		.loc 1 60 2 is_stmt 1
  60:C:/Users/stapi/OneDrive/Desktop/GD32VW553/V1_MQTT_OK/GD32VW55X_Wifi_BLE_SDK/GD32VW55x_RELEASE_V1.0.2/MSDK/wpa_supplicant/src/tls\tlsv1_record.c **** 	rl->cipher_alg = data->alg;
 103              		.loc 1 60 14 is_stmt 0
 104 0060 1C49     		lw	a5,16(a0)
 105 0062 2326F40A 		sw	a5,172(s0)
  61:C:/Users/stapi/OneDrive/Desktop/GD32VW553/V1_MQTT_OK/GD32VW55X_Wifi_BLE_SDK/GD32VW55x_RELEASE_V1.0.2/MSDK/wpa_supplicant/src/tls\tlsv1_record.c **** 
 106              		.loc 1 61 2 is_stmt 1
  61:C:/Users/stapi/OneDrive/Desktop/GD32VW553/V1_MQTT_OK/GD32VW55X_Wifi_BLE_SDK/GD32VW55x_RELEASE_V1.0.2/MSDK/wpa_supplicant/src/tls\tlsv1_record.c **** 
 107              		.loc 1 61 17 is_stmt 0
 108 0066 5C49     		lw	a5,20(a0)
  63:C:/Users/stapi/OneDrive/Desktop/GD32VW553/V1_MQTT_OK/GD32VW55X_Wifi_BLE_SDK/GD32VW55x_RELEASE_V1.0.2/MSDK/wpa_supplicant/src/tls\tlsv1_record.c **** }
 109              		.loc 1 63 9
 110 0068 0145     		li	a0,0
 111              	.LVL9:
  61:C:/Users/stapi/OneDrive/Desktop/GD32VW553/V1_MQTT_OK/GD32VW55X_Wifi_BLE_SDK/GD32VW55x_RELEASE_V1.0.2/MSDK/wpa_supplicant/src/tls\tlsv1_record.c **** 
 112              		.loc 1 61 17
 113 006a 232AF40A 		sw	a5,180(s0)
  63:C:/Users/stapi/OneDrive/Desktop/GD32VW553/V1_MQTT_OK/GD32VW55X_Wifi_BLE_SDK/GD32VW55x_RELEASE_V1.0.2/MSDK/wpa_supplicant/src/tls\tlsv1_record.c **** }
 114              		.loc 1 63 2 is_stmt 1
  63:C:/Users/stapi/OneDrive/Desktop/GD32VW553/V1_MQTT_OK/GD32VW55X_Wifi_BLE_SDK/GD32VW55x_RELEASE_V1.0.2/MSDK/wpa_supplicant/src/tls\tlsv1_record.c **** }
 115              		.loc 1 63 9 is_stmt 0
 116 006e D1B7     		j	.L1
 117              	.LVL10:
 118              	.L4:
  47:C:/Users/stapi/OneDrive/Desktop/GD32VW553/V1_MQTT_OK/GD32VW55X_Wifi_BLE_SDK/GD32VW55x_RELEASE_V1.0.2/MSDK/wpa_supplicant/src/tls\tlsv1_record.c **** 		rl->hash_alg = CRYPTO_HASH_ALG_HMAC_SHA1;
 119              		.loc 1 47 9 is_stmt 1
  47:C:/Users/stapi/OneDrive/Desktop/GD32VW553/V1_MQTT_OK/GD32VW55X_Wifi_BLE_SDK/GD32VW55x_RELEASE_V1.0.2/MSDK/wpa_supplicant/src/tls\tlsv1_record.c **** 		rl->hash_alg = CRYPTO_HASH_ALG_HMAC_SHA1;
 120              		.loc 1 47 12 is_stmt 0
 121 0070 0947     		li	a4,2
 122 0072 6397E700 		bne	a5,a4,.L6
  48:C:/Users/stapi/OneDrive/Desktop/GD32VW553/V1_MQTT_OK/GD32VW55X_Wifi_BLE_SDK/GD32VW55x_RELEASE_V1.0.2/MSDK/wpa_supplicant/src/tls\tlsv1_record.c **** 		rl->hash_size = SHA1_MAC_LEN;
 123              		.loc 1 48 3 is_stmt 1
  48:C:/Users/stapi/OneDrive/Desktop/GD32VW553/V1_MQTT_OK/GD32VW55X_Wifi_BLE_SDK/GD32VW55x_RELEASE_V1.0.2/MSDK/wpa_supplicant/src/tls\tlsv1_record.c **** 		rl->hash_size = SHA1_MAC_LEN;
 124              		.loc 1 48 16 is_stmt 0
 125 0076 8D47     		li	a5,3
 126 0078 2328F40A 		sw	a5,176(s0)
  49:C:/Users/stapi/OneDrive/Desktop/GD32VW553/V1_MQTT_OK/GD32VW55X_Wifi_BLE_SDK/GD32VW55x_RELEASE_V1.0.2/MSDK/wpa_supplicant/src/tls\tlsv1_record.c **** 	} else if (suite->hash == TLS_HASH_SHA256) {
 127              		.loc 1 49 3 is_stmt 1
  49:C:/Users/stapi/OneDrive/Desktop/GD32VW553/V1_MQTT_OK/GD32VW55X_Wifi_BLE_SDK/GD32VW55x_RELEASE_V1.0.2/MSDK/wpa_supplicant/src/tls\tlsv1_record.c **** 	} else if (suite->hash == TLS_HASH_SHA256) {
 128              		.loc 1 49 17 is_stmt 0
 129 007c D147     		li	a5,20
 130 007e F1B7     		j	.L12
 131              	.L6:
  50:C:/Users/stapi/OneDrive/Desktop/GD32VW553/V1_MQTT_OK/GD32VW55X_Wifi_BLE_SDK/GD32VW55x_RELEASE_V1.0.2/MSDK/wpa_supplicant/src/tls\tlsv1_record.c **** 		rl->hash_alg = CRYPTO_HASH_ALG_HMAC_SHA256;
 132              		.loc 1 50 9 is_stmt 1
  50:C:/Users/stapi/OneDrive/Desktop/GD32VW553/V1_MQTT_OK/GD32VW55X_Wifi_BLE_SDK/GD32VW55x_RELEASE_V1.0.2/MSDK/wpa_supplicant/src/tls\tlsv1_record.c **** 		rl->hash_alg = CRYPTO_HASH_ALG_HMAC_SHA256;
 133              		.loc 1 50 12 is_stmt 0
 134 0080 0D47     		li	a4,3
 135 0082 E396E7FC 		bne	a5,a4,.L5
  51:C:/Users/stapi/OneDrive/Desktop/GD32VW553/V1_MQTT_OK/GD32VW55X_Wifi_BLE_SDK/GD32VW55x_RELEASE_V1.0.2/MSDK/wpa_supplicant/src/tls\tlsv1_record.c **** 		rl->hash_size = SHA256_MAC_LEN;
 136              		.loc 1 51 3 is_stmt 1
  51:C:/Users/stapi/OneDrive/Desktop/GD32VW553/V1_MQTT_OK/GD32VW55X_Wifi_BLE_SDK/GD32VW55x_RELEASE_V1.0.2/MSDK/wpa_supplicant/src/tls\tlsv1_record.c **** 		rl->hash_size = SHA256_MAC_LEN;
 137              		.loc 1 51 16 is_stmt 0
 138 0086 9547     		li	a5,5
 139 0088 2328F40A 		sw	a5,176(s0)
  52:C:/Users/stapi/OneDrive/Desktop/GD32VW553/V1_MQTT_OK/GD32VW55X_Wifi_BLE_SDK/GD32VW55x_RELEASE_V1.0.2/MSDK/wpa_supplicant/src/tls\tlsv1_record.c **** 	}
 140              		.loc 1 52 3 is_stmt 1
  52:C:/Users/stapi/OneDrive/Desktop/GD32VW553/V1_MQTT_OK/GD32VW55X_Wifi_BLE_SDK/GD32VW55x_RELEASE_V1.0.2/MSDK/wpa_supplicant/src/tls\tlsv1_record.c **** 	}
 141              		.loc 1 52 17 is_stmt 0
 142 008c 93070002 		li	a5,32
 143 0090 6DBF     		j	.L12
 144              		.cfi_endproc
 145              	.LFE71:
 147              		.section	.rodata.tlsv1_record_change_write_cipher.str1.4,"aMS",@progbits,1
 148              		.align	2
 149              	.LC1:
 150 0000 544C5376 		.string	"TLSv1: Record Layer - New write cipher suite 0x%04x"
 150      313A2052 
 150      65636F72 
 150      64204C61 
 150      79657220 
 151              		.align	2
 152              	.LC2:
 153 0034 544C5376 		.string	"TLSv1: Failed to initialize cipher"
 153      313A2046 
 153      61696C65 
 153      6420746F 
 153      20696E69 
 154              		.section	.text.tlsv1_record_change_write_cipher,"ax",@progbits
 155              		.align	1
 156              		.globl	tlsv1_record_change_write_cipher
 158              	tlsv1_record_change_write_cipher:
 159              	.LFB72:
  65:C:/Users/stapi/OneDrive/Desktop/GD32VW553/V1_MQTT_OK/GD32VW55X_Wifi_BLE_SDK/GD32VW55x_RELEASE_V1.0.2/MSDK/wpa_supplicant/src/tls\tlsv1_record.c **** 
  66:C:/Users/stapi/OneDrive/Desktop/GD32VW553/V1_MQTT_OK/GD32VW55X_Wifi_BLE_SDK/GD32VW55x_RELEASE_V1.0.2/MSDK/wpa_supplicant/src/tls\tlsv1_record.c **** 
  67:C:/Users/stapi/OneDrive/Desktop/GD32VW553/V1_MQTT_OK/GD32VW55X_Wifi_BLE_SDK/GD32VW55x_RELEASE_V1.0.2/MSDK/wpa_supplicant/src/tls\tlsv1_record.c **** /**
  68:C:/Users/stapi/OneDrive/Desktop/GD32VW553/V1_MQTT_OK/GD32VW55X_Wifi_BLE_SDK/GD32VW55x_RELEASE_V1.0.2/MSDK/wpa_supplicant/src/tls\tlsv1_record.c ****  * tlsv1_record_change_write_cipher - TLS record layer: Change write cipher
  69:C:/Users/stapi/OneDrive/Desktop/GD32VW553/V1_MQTT_OK/GD32VW55X_Wifi_BLE_SDK/GD32VW55x_RELEASE_V1.0.2/MSDK/wpa_supplicant/src/tls\tlsv1_record.c ****  * @rl: Pointer to TLS record layer data
  70:C:/Users/stapi/OneDrive/Desktop/GD32VW553/V1_MQTT_OK/GD32VW55X_Wifi_BLE_SDK/GD32VW55x_RELEASE_V1.0.2/MSDK/wpa_supplicant/src/tls\tlsv1_record.c ****  * Returns: 0 on success (cipher changed), -1 on failure
  71:C:/Users/stapi/OneDrive/Desktop/GD32VW553/V1_MQTT_OK/GD32VW55X_Wifi_BLE_SDK/GD32VW55x_RELEASE_V1.0.2/MSDK/wpa_supplicant/src/tls\tlsv1_record.c ****  *
  72:C:/Users/stapi/OneDrive/Desktop/GD32VW553/V1_MQTT_OK/GD32VW55X_Wifi_BLE_SDK/GD32VW55x_RELEASE_V1.0.2/MSDK/wpa_supplicant/src/tls\tlsv1_record.c ****  * This function changes TLS record layer to use the new cipher suite
  73:C:/Users/stapi/OneDrive/Desktop/GD32VW553/V1_MQTT_OK/GD32VW55X_Wifi_BLE_SDK/GD32VW55x_RELEASE_V1.0.2/MSDK/wpa_supplicant/src/tls\tlsv1_record.c ****  * configured with tlsv1_record_set_cipher_suite() for writing.
  74:C:/Users/stapi/OneDrive/Desktop/GD32VW553/V1_MQTT_OK/GD32VW55X_Wifi_BLE_SDK/GD32VW55x_RELEASE_V1.0.2/MSDK/wpa_supplicant/src/tls\tlsv1_record.c ****  */
  75:C:/Users/stapi/OneDrive/Desktop/GD32VW553/V1_MQTT_OK/GD32VW55X_Wifi_BLE_SDK/GD32VW55x_RELEASE_V1.0.2/MSDK/wpa_supplicant/src/tls\tlsv1_record.c **** int tlsv1_record_change_write_cipher(struct tlsv1_record_layer *rl)
  76:C:/Users/stapi/OneDrive/Desktop/GD32VW553/V1_MQTT_OK/GD32VW55X_Wifi_BLE_SDK/GD32VW55x_RELEASE_V1.0.2/MSDK/wpa_supplicant/src/tls\tlsv1_record.c **** {
 160              		.loc 1 76 1 is_stmt 1
 161              		.cfi_startproc
 162              	.LVL11:
 163 0000 17030000 		call	t0,__riscv_save_1
 163      E7020300 
 164              		.cfi_offset 8, -8
 165              		.cfi_offset 1, -4
 166              		.cfi_def_cfa_offset 16
  77:C:/Users/stapi/OneDrive/Desktop/GD32VW553/V1_MQTT_OK/GD32VW55X_Wifi_BLE_SDK/GD32VW55x_RELEASE_V1.0.2/MSDK/wpa_supplicant/src/tls\tlsv1_record.c **** 	wpa_printf(MSG_DEBUG, "TLSv1: Record Layer - New write cipher suite "
 167              		.loc 1 77 2
 168 0008 0356850C 		lhu	a2,200(a0)
 169 000c B7050000 		lui	a1,%hi(.LC1)
  76:C:/Users/stapi/OneDrive/Desktop/GD32VW553/V1_MQTT_OK/GD32VW55X_Wifi_BLE_SDK/GD32VW55x_RELEASE_V1.0.2/MSDK/wpa_supplicant/src/tls\tlsv1_record.c **** 	wpa_printf(MSG_DEBUG, "TLSv1: Record Layer - New write cipher suite "
 170              		.loc 1 76 1 is_stmt 0
 171 0010 2A84     		mv	s0,a0
 172              		.loc 1 77 2
 173 0012 93850500 		addi	a1,a1,%lo(.LC1)
 174 0016 0945     		li	a0,2
 175              	.LVL12:
 176 0018 97000000 		call	wpa_printf
 176      E7800000 
 177              	.LVL13:
  78:C:/Users/stapi/OneDrive/Desktop/GD32VW553/V1_MQTT_OK/GD32VW55X_Wifi_BLE_SDK/GD32VW55x_RELEASE_V1.0.2/MSDK/wpa_supplicant/src/tls\tlsv1_record.c **** 		   "0x%04x", rl->cipher_suite);
  79:C:/Users/stapi/OneDrive/Desktop/GD32VW553/V1_MQTT_OK/GD32VW55X_Wifi_BLE_SDK/GD32VW55x_RELEASE_V1.0.2/MSDK/wpa_supplicant/src/tls\tlsv1_record.c **** 	rl->write_cipher_suite = rl->cipher_suite;
 178              		.loc 1 79 2 is_stmt 1
 179              		.loc 1 79 25 is_stmt 0
 180 0020 8357840C 		lhu	a5,200(s0)
  80:C:/Users/stapi/OneDrive/Desktop/GD32VW553/V1_MQTT_OK/GD32VW55X_Wifi_BLE_SDK/GD32VW55x_RELEASE_V1.0.2/MSDK/wpa_supplicant/src/tls\tlsv1_record.c **** 	os_memset(rl->write_seq_num, 0, TLS_SEQ_NUM_LEN);
 181              		.loc 1 80 2
 182 0024 2146     		li	a2,8
 183 0026 8145     		li	a1,0
  79:C:/Users/stapi/OneDrive/Desktop/GD32VW553/V1_MQTT_OK/GD32VW55X_Wifi_BLE_SDK/GD32VW55x_RELEASE_V1.0.2/MSDK/wpa_supplicant/src/tls\tlsv1_record.c **** 	os_memset(rl->write_seq_num, 0, TLS_SEQ_NUM_LEN);
 184              		.loc 1 79 25
 185 0028 2315F40C 		sh	a5,202(s0)
 186              		.loc 1 80 2 is_stmt 1
 187 002c 1305840B 		addi	a0,s0,184
 188 0030 97000000 		call	os_memset
 188      E7800000 
 189              	.LVL14:
  81:C:/Users/stapi/OneDrive/Desktop/GD32VW553/V1_MQTT_OK/GD32VW55X_Wifi_BLE_SDK/GD32VW55x_RELEASE_V1.0.2/MSDK/wpa_supplicant/src/tls\tlsv1_record.c **** 
  82:C:/Users/stapi/OneDrive/Desktop/GD32VW553/V1_MQTT_OK/GD32VW55X_Wifi_BLE_SDK/GD32VW55x_RELEASE_V1.0.2/MSDK/wpa_supplicant/src/tls\tlsv1_record.c **** 	if (rl->write_cbc) {
 190              		.loc 1 82 2
 191              		.loc 1 82 8 is_stmt 0
 192 0038 0325040D 		lw	a0,208(s0)
 193              		.loc 1 82 5
 194 003c 19C5     		beq	a0,zero,.L14
  83:C:/Users/stapi/OneDrive/Desktop/GD32VW553/V1_MQTT_OK/GD32VW55X_Wifi_BLE_SDK/GD32VW55x_RELEASE_V1.0.2/MSDK/wpa_supplicant/src/tls\tlsv1_record.c **** 		crypto_cipher_deinit(rl->write_cbc);
 195              		.loc 1 83 3 is_stmt 1
 196 003e 97000000 		call	crypto_cipher_deinit
 196      E7800000 
 197              	.LVL15:
  84:C:/Users/stapi/OneDrive/Desktop/GD32VW553/V1_MQTT_OK/GD32VW55X_Wifi_BLE_SDK/GD32VW55x_RELEASE_V1.0.2/MSDK/wpa_supplicant/src/tls\tlsv1_record.c **** 		rl->write_cbc = NULL;
 198              		.loc 1 84 3
 199              		.loc 1 84 17 is_stmt 0
 200 0046 2328040C 		sw	zero,208(s0)
 201              	.L14:
  85:C:/Users/stapi/OneDrive/Desktop/GD32VW553/V1_MQTT_OK/GD32VW55X_Wifi_BLE_SDK/GD32VW55x_RELEASE_V1.0.2/MSDK/wpa_supplicant/src/tls\tlsv1_record.c **** 	}
  86:C:/Users/stapi/OneDrive/Desktop/GD32VW553/V1_MQTT_OK/GD32VW55X_Wifi_BLE_SDK/GD32VW55x_RELEASE_V1.0.2/MSDK/wpa_supplicant/src/tls\tlsv1_record.c **** 	if (rl->cipher_alg != CRYPTO_CIPHER_NULL) {
 202              		.loc 1 86 2 is_stmt 1
 203              		.loc 1 86 8 is_stmt 0
 204 004a 0325440B 		lw	a0,180(s0)
 205              		.loc 1 86 5
 206 004e 11E5     		bne	a0,zero,.L15
 207              	.L17:
  87:C:/Users/stapi/OneDrive/Desktop/GD32VW553/V1_MQTT_OK/GD32VW55X_Wifi_BLE_SDK/GD32VW55x_RELEASE_V1.0.2/MSDK/wpa_supplicant/src/tls\tlsv1_record.c **** 		rl->write_cbc = crypto_cipher_init(rl->cipher_alg,
  88:C:/Users/stapi/OneDrive/Desktop/GD32VW553/V1_MQTT_OK/GD32VW55X_Wifi_BLE_SDK/GD32VW55x_RELEASE_V1.0.2/MSDK/wpa_supplicant/src/tls\tlsv1_record.c **** 						   rl->write_iv, rl->write_key,
  89:C:/Users/stapi/OneDrive/Desktop/GD32VW553/V1_MQTT_OK/GD32VW55X_Wifi_BLE_SDK/GD32VW55x_RELEASE_V1.0.2/MSDK/wpa_supplicant/src/tls\tlsv1_record.c **** 						   rl->key_material_len);
  90:C:/Users/stapi/OneDrive/Desktop/GD32VW553/V1_MQTT_OK/GD32VW55X_Wifi_BLE_SDK/GD32VW55x_RELEASE_V1.0.2/MSDK/wpa_supplicant/src/tls\tlsv1_record.c **** 		if (rl->write_cbc == NULL) {
  91:C:/Users/stapi/OneDrive/Desktop/GD32VW553/V1_MQTT_OK/GD32VW55X_Wifi_BLE_SDK/GD32VW55x_RELEASE_V1.0.2/MSDK/wpa_supplicant/src/tls\tlsv1_record.c **** 			wpa_printf(MSG_DEBUG, "TLSv1: Failed to initialize "
  92:C:/Users/stapi/OneDrive/Desktop/GD32VW553/V1_MQTT_OK/GD32VW55X_Wifi_BLE_SDK/GD32VW55x_RELEASE_V1.0.2/MSDK/wpa_supplicant/src/tls\tlsv1_record.c **** 				   "cipher");
  93:C:/Users/stapi/OneDrive/Desktop/GD32VW553/V1_MQTT_OK/GD32VW55X_Wifi_BLE_SDK/GD32VW55x_RELEASE_V1.0.2/MSDK/wpa_supplicant/src/tls\tlsv1_record.c **** 			return -1;
  94:C:/Users/stapi/OneDrive/Desktop/GD32VW553/V1_MQTT_OK/GD32VW55X_Wifi_BLE_SDK/GD32VW55x_RELEASE_V1.0.2/MSDK/wpa_supplicant/src/tls\tlsv1_record.c **** 		}
  95:C:/Users/stapi/OneDrive/Desktop/GD32VW553/V1_MQTT_OK/GD32VW55X_Wifi_BLE_SDK/GD32VW55x_RELEASE_V1.0.2/MSDK/wpa_supplicant/src/tls\tlsv1_record.c **** 	}
  96:C:/Users/stapi/OneDrive/Desktop/GD32VW553/V1_MQTT_OK/GD32VW55X_Wifi_BLE_SDK/GD32VW55x_RELEASE_V1.0.2/MSDK/wpa_supplicant/src/tls\tlsv1_record.c **** 
  97:C:/Users/stapi/OneDrive/Desktop/GD32VW553/V1_MQTT_OK/GD32VW55X_Wifi_BLE_SDK/GD32VW55x_RELEASE_V1.0.2/MSDK/wpa_supplicant/src/tls\tlsv1_record.c **** 	return 0;
 208              		.loc 1 97 9
 209 0050 0145     		li	a0,0
 210              	.L13:
  98:C:/Users/stapi/OneDrive/Desktop/GD32VW553/V1_MQTT_OK/GD32VW55X_Wifi_BLE_SDK/GD32VW55x_RELEASE_V1.0.2/MSDK/wpa_supplicant/src/tls\tlsv1_record.c **** }
 211              		.loc 1 98 1
 212 0052 17030000 		tail	__riscv_restore_1
 212      67000300 
 213              		.cfi_remember_state
 214              		.cfi_restore 8
 215              		.cfi_restore 1
 216              		.cfi_def_cfa_offset 0
 217              	.L15:
 218              		.cfi_restore_state
  87:C:/Users/stapi/OneDrive/Desktop/GD32VW553/V1_MQTT_OK/GD32VW55X_Wifi_BLE_SDK/GD32VW55x_RELEASE_V1.0.2/MSDK/wpa_supplicant/src/tls\tlsv1_record.c **** 		rl->write_cbc = crypto_cipher_init(rl->cipher_alg,
 219              		.loc 1 87 3 is_stmt 1
  87:C:/Users/stapi/OneDrive/Desktop/GD32VW553/V1_MQTT_OK/GD32VW55X_Wifi_BLE_SDK/GD32VW55x_RELEASE_V1.0.2/MSDK/wpa_supplicant/src/tls\tlsv1_record.c **** 		rl->write_cbc = crypto_cipher_init(rl->cipher_alg,
 220              		.loc 1 87 19 is_stmt 0
 221 005a 8326840A 		lw	a3,168(s0)
 222 005e 13062404 		addi	a2,s0,66
 223 0062 93052408 		addi	a1,s0,130
 224 0066 97000000 		call	crypto_cipher_init
 224      E7800000 
 225              	.LVL16:
  87:C:/Users/stapi/OneDrive/Desktop/GD32VW553/V1_MQTT_OK/GD32VW55X_Wifi_BLE_SDK/GD32VW55x_RELEASE_V1.0.2/MSDK/wpa_supplicant/src/tls\tlsv1_record.c **** 		rl->write_cbc = crypto_cipher_init(rl->cipher_alg,
 226              		.loc 1 87 17
 227 006e 2328A40C 		sw	a0,208(s0)
  90:C:/Users/stapi/OneDrive/Desktop/GD32VW553/V1_MQTT_OK/GD32VW55X_Wifi_BLE_SDK/GD32VW55x_RELEASE_V1.0.2/MSDK/wpa_supplicant/src/tls\tlsv1_record.c **** 			wpa_printf(MSG_DEBUG, "TLSv1: Failed to initialize "
 228              		.loc 1 90 3 is_stmt 1
  90:C:/Users/stapi/OneDrive/Desktop/GD32VW553/V1_MQTT_OK/GD32VW55X_Wifi_BLE_SDK/GD32VW55x_RELEASE_V1.0.2/MSDK/wpa_supplicant/src/tls\tlsv1_record.c **** 			wpa_printf(MSG_DEBUG, "TLSv1: Failed to initialize "
 229              		.loc 1 90 6 is_stmt 0
 230 0072 79FD     		bne	a0,zero,.L17
  91:C:/Users/stapi/OneDrive/Desktop/GD32VW553/V1_MQTT_OK/GD32VW55X_Wifi_BLE_SDK/GD32VW55x_RELEASE_V1.0.2/MSDK/wpa_supplicant/src/tls\tlsv1_record.c **** 				   "cipher");
 231              		.loc 1 91 4 is_stmt 1
 232 0074 B7050000 		lui	a1,%hi(.LC2)
 233 0078 0945     		li	a0,2
 234 007a 93850500 		addi	a1,a1,%lo(.LC2)
 235 007e 97000000 		call	wpa_printf
 235      E7800000 
 236              	.LVL17:
  93:C:/Users/stapi/OneDrive/Desktop/GD32VW553/V1_MQTT_OK/GD32VW55X_Wifi_BLE_SDK/GD32VW55x_RELEASE_V1.0.2/MSDK/wpa_supplicant/src/tls\tlsv1_record.c **** 		}
 237              		.loc 1 93 4
  93:C:/Users/stapi/OneDrive/Desktop/GD32VW553/V1_MQTT_OK/GD32VW55X_Wifi_BLE_SDK/GD32VW55x_RELEASE_V1.0.2/MSDK/wpa_supplicant/src/tls\tlsv1_record.c **** 		}
 238              		.loc 1 93 11 is_stmt 0
 239 0086 7D55     		li	a0,-1
 240 0088 E9B7     		j	.L13
 241              		.cfi_endproc
 242              	.LFE72:
 244              		.section	.rodata.tlsv1_record_change_read_cipher.str1.4,"aMS",@progbits,1
 245              		.align	2
 246              	.LC3:
 247 0000 544C5376 		.string	"TLSv1: Record Layer - New read cipher suite 0x%04x"
 247      313A2052 
 247      65636F72 
 247      64204C61 
 247      79657220 
 248              		.section	.text.tlsv1_record_change_read_cipher,"ax",@progbits
 249              		.align	1
 250              		.globl	tlsv1_record_change_read_cipher
 252              	tlsv1_record_change_read_cipher:
 253              	.LFB73:
  99:C:/Users/stapi/OneDrive/Desktop/GD32VW553/V1_MQTT_OK/GD32VW55X_Wifi_BLE_SDK/GD32VW55x_RELEASE_V1.0.2/MSDK/wpa_supplicant/src/tls\tlsv1_record.c **** 
 100:C:/Users/stapi/OneDrive/Desktop/GD32VW553/V1_MQTT_OK/GD32VW55X_Wifi_BLE_SDK/GD32VW55x_RELEASE_V1.0.2/MSDK/wpa_supplicant/src/tls\tlsv1_record.c **** 
 101:C:/Users/stapi/OneDrive/Desktop/GD32VW553/V1_MQTT_OK/GD32VW55X_Wifi_BLE_SDK/GD32VW55x_RELEASE_V1.0.2/MSDK/wpa_supplicant/src/tls\tlsv1_record.c **** /**
 102:C:/Users/stapi/OneDrive/Desktop/GD32VW553/V1_MQTT_OK/GD32VW55X_Wifi_BLE_SDK/GD32VW55x_RELEASE_V1.0.2/MSDK/wpa_supplicant/src/tls\tlsv1_record.c ****  * tlsv1_record_change_read_cipher - TLS record layer: Change read cipher
 103:C:/Users/stapi/OneDrive/Desktop/GD32VW553/V1_MQTT_OK/GD32VW55X_Wifi_BLE_SDK/GD32VW55x_RELEASE_V1.0.2/MSDK/wpa_supplicant/src/tls\tlsv1_record.c ****  * @rl: Pointer to TLS record layer data
 104:C:/Users/stapi/OneDrive/Desktop/GD32VW553/V1_MQTT_OK/GD32VW55X_Wifi_BLE_SDK/GD32VW55x_RELEASE_V1.0.2/MSDK/wpa_supplicant/src/tls\tlsv1_record.c ****  * Returns: 0 on success (cipher changed), -1 on failure
 105:C:/Users/stapi/OneDrive/Desktop/GD32VW553/V1_MQTT_OK/GD32VW55X_Wifi_BLE_SDK/GD32VW55x_RELEASE_V1.0.2/MSDK/wpa_supplicant/src/tls\tlsv1_record.c ****  *
 106:C:/Users/stapi/OneDrive/Desktop/GD32VW553/V1_MQTT_OK/GD32VW55X_Wifi_BLE_SDK/GD32VW55x_RELEASE_V1.0.2/MSDK/wpa_supplicant/src/tls\tlsv1_record.c ****  * This function changes TLS record layer to use the new cipher suite
 107:C:/Users/stapi/OneDrive/Desktop/GD32VW553/V1_MQTT_OK/GD32VW55X_Wifi_BLE_SDK/GD32VW55x_RELEASE_V1.0.2/MSDK/wpa_supplicant/src/tls\tlsv1_record.c ****  * configured with tlsv1_record_set_cipher_suite() for reading.
 108:C:/Users/stapi/OneDrive/Desktop/GD32VW553/V1_MQTT_OK/GD32VW55X_Wifi_BLE_SDK/GD32VW55x_RELEASE_V1.0.2/MSDK/wpa_supplicant/src/tls\tlsv1_record.c ****  */
 109:C:/Users/stapi/OneDrive/Desktop/GD32VW553/V1_MQTT_OK/GD32VW55X_Wifi_BLE_SDK/GD32VW55x_RELEASE_V1.0.2/MSDK/wpa_supplicant/src/tls\tlsv1_record.c **** int tlsv1_record_change_read_cipher(struct tlsv1_record_layer *rl)
 110:C:/Users/stapi/OneDrive/Desktop/GD32VW553/V1_MQTT_OK/GD32VW55X_Wifi_BLE_SDK/GD32VW55x_RELEASE_V1.0.2/MSDK/wpa_supplicant/src/tls\tlsv1_record.c **** {
 254              		.loc 1 110 1 is_stmt 1
 255              		.cfi_startproc
 256              	.LVL18:
 257 0000 17030000 		call	t0,__riscv_save_1
 257      E7020300 
 258              		.cfi_offset 8, -8
 259              		.cfi_offset 1, -4
 260              		.cfi_def_cfa_offset 16
 111:C:/Users/stapi/OneDrive/Desktop/GD32VW553/V1_MQTT_OK/GD32VW55X_Wifi_BLE_SDK/GD32VW55x_RELEASE_V1.0.2/MSDK/wpa_supplicant/src/tls\tlsv1_record.c **** 	wpa_printf(MSG_DEBUG, "TLSv1: Record Layer - New read cipher suite "
 261              		.loc 1 111 2
 262 0008 0356850C 		lhu	a2,200(a0)
 263 000c B7050000 		lui	a1,%hi(.LC3)
 110:C:/Users/stapi/OneDrive/Desktop/GD32VW553/V1_MQTT_OK/GD32VW55X_Wifi_BLE_SDK/GD32VW55x_RELEASE_V1.0.2/MSDK/wpa_supplicant/src/tls\tlsv1_record.c **** 	wpa_printf(MSG_DEBUG, "TLSv1: Record Layer - New read cipher suite "
 264              		.loc 1 110 1 is_stmt 0
 265 0010 2A84     		mv	s0,a0
 266              		.loc 1 111 2
 267 0012 93850500 		addi	a1,a1,%lo(.LC3)
 268 0016 0945     		li	a0,2
 269              	.LVL19:
 270 0018 97000000 		call	wpa_printf
 270      E7800000 
 271              	.LVL20:
 112:C:/Users/stapi/OneDrive/Desktop/GD32VW553/V1_MQTT_OK/GD32VW55X_Wifi_BLE_SDK/GD32VW55x_RELEASE_V1.0.2/MSDK/wpa_supplicant/src/tls\tlsv1_record.c **** 		   "0x%04x", rl->cipher_suite);
 113:C:/Users/stapi/OneDrive/Desktop/GD32VW553/V1_MQTT_OK/GD32VW55X_Wifi_BLE_SDK/GD32VW55x_RELEASE_V1.0.2/MSDK/wpa_supplicant/src/tls\tlsv1_record.c **** 	rl->read_cipher_suite = rl->cipher_suite;
 272              		.loc 1 113 2 is_stmt 1
 273              		.loc 1 113 24 is_stmt 0
 274 0020 8357840C 		lhu	a5,200(s0)
 114:C:/Users/stapi/OneDrive/Desktop/GD32VW553/V1_MQTT_OK/GD32VW55X_Wifi_BLE_SDK/GD32VW55x_RELEASE_V1.0.2/MSDK/wpa_supplicant/src/tls\tlsv1_record.c **** 	os_memset(rl->read_seq_num, 0, TLS_SEQ_NUM_LEN);
 275              		.loc 1 114 2
 276 0024 2146     		li	a2,8
 277 0026 8145     		li	a1,0
 113:C:/Users/stapi/OneDrive/Desktop/GD32VW553/V1_MQTT_OK/GD32VW55X_Wifi_BLE_SDK/GD32VW55x_RELEASE_V1.0.2/MSDK/wpa_supplicant/src/tls\tlsv1_record.c **** 	os_memset(rl->read_seq_num, 0, TLS_SEQ_NUM_LEN);
 278              		.loc 1 113 24
 279 0028 2316F40C 		sh	a5,204(s0)
 280              		.loc 1 114 2 is_stmt 1
 281 002c 1305040C 		addi	a0,s0,192
 282 0030 97000000 		call	os_memset
 282      E7800000 
 283              	.LVL21:
 115:C:/Users/stapi/OneDrive/Desktop/GD32VW553/V1_MQTT_OK/GD32VW55X_Wifi_BLE_SDK/GD32VW55x_RELEASE_V1.0.2/MSDK/wpa_supplicant/src/tls\tlsv1_record.c **** 
 116:C:/Users/stapi/OneDrive/Desktop/GD32VW553/V1_MQTT_OK/GD32VW55X_Wifi_BLE_SDK/GD32VW55x_RELEASE_V1.0.2/MSDK/wpa_supplicant/src/tls\tlsv1_record.c **** 	if (rl->read_cbc) {
 284              		.loc 1 116 2
 285              		.loc 1 116 8 is_stmt 0
 286 0038 0325440D 		lw	a0,212(s0)
 287              		.loc 1 116 5
 288 003c 19C5     		beq	a0,zero,.L23
 117:C:/Users/stapi/OneDrive/Desktop/GD32VW553/V1_MQTT_OK/GD32VW55X_Wifi_BLE_SDK/GD32VW55x_RELEASE_V1.0.2/MSDK/wpa_supplicant/src/tls\tlsv1_record.c **** 		crypto_cipher_deinit(rl->read_cbc);
 289              		.loc 1 117 3 is_stmt 1
 290 003e 97000000 		call	crypto_cipher_deinit
 290      E7800000 
 291              	.LVL22:
 118:C:/Users/stapi/OneDrive/Desktop/GD32VW553/V1_MQTT_OK/GD32VW55X_Wifi_BLE_SDK/GD32VW55x_RELEASE_V1.0.2/MSDK/wpa_supplicant/src/tls\tlsv1_record.c **** 		rl->read_cbc = NULL;
 292              		.loc 1 118 3
 293              		.loc 1 118 16 is_stmt 0
 294 0046 232A040C 		sw	zero,212(s0)
 295              	.L23:
 119:C:/Users/stapi/OneDrive/Desktop/GD32VW553/V1_MQTT_OK/GD32VW55X_Wifi_BLE_SDK/GD32VW55x_RELEASE_V1.0.2/MSDK/wpa_supplicant/src/tls\tlsv1_record.c **** 	}
 120:C:/Users/stapi/OneDrive/Desktop/GD32VW553/V1_MQTT_OK/GD32VW55X_Wifi_BLE_SDK/GD32VW55x_RELEASE_V1.0.2/MSDK/wpa_supplicant/src/tls\tlsv1_record.c **** 	if (rl->cipher_alg != CRYPTO_CIPHER_NULL) {
 296              		.loc 1 120 2 is_stmt 1
 297              		.loc 1 120 8 is_stmt 0
 298 004a 0325440B 		lw	a0,180(s0)
 299              		.loc 1 120 5
 300 004e 11E5     		bne	a0,zero,.L24
 301              	.L26:
 121:C:/Users/stapi/OneDrive/Desktop/GD32VW553/V1_MQTT_OK/GD32VW55X_Wifi_BLE_SDK/GD32VW55x_RELEASE_V1.0.2/MSDK/wpa_supplicant/src/tls\tlsv1_record.c **** 		rl->read_cbc = crypto_cipher_init(rl->cipher_alg,
 122:C:/Users/stapi/OneDrive/Desktop/GD32VW553/V1_MQTT_OK/GD32VW55X_Wifi_BLE_SDK/GD32VW55x_RELEASE_V1.0.2/MSDK/wpa_supplicant/src/tls\tlsv1_record.c **** 						  rl->read_iv, rl->read_key,
 123:C:/Users/stapi/OneDrive/Desktop/GD32VW553/V1_MQTT_OK/GD32VW55X_Wifi_BLE_SDK/GD32VW55x_RELEASE_V1.0.2/MSDK/wpa_supplicant/src/tls\tlsv1_record.c **** 						  rl->key_material_len);
 124:C:/Users/stapi/OneDrive/Desktop/GD32VW553/V1_MQTT_OK/GD32VW55X_Wifi_BLE_SDK/GD32VW55x_RELEASE_V1.0.2/MSDK/wpa_supplicant/src/tls\tlsv1_record.c **** 		if (rl->read_cbc == NULL) {
 125:C:/Users/stapi/OneDrive/Desktop/GD32VW553/V1_MQTT_OK/GD32VW55X_Wifi_BLE_SDK/GD32VW55x_RELEASE_V1.0.2/MSDK/wpa_supplicant/src/tls\tlsv1_record.c **** 			wpa_printf(MSG_DEBUG, "TLSv1: Failed to initialize "
 126:C:/Users/stapi/OneDrive/Desktop/GD32VW553/V1_MQTT_OK/GD32VW55X_Wifi_BLE_SDK/GD32VW55x_RELEASE_V1.0.2/MSDK/wpa_supplicant/src/tls\tlsv1_record.c **** 				   "cipher");
 127:C:/Users/stapi/OneDrive/Desktop/GD32VW553/V1_MQTT_OK/GD32VW55X_Wifi_BLE_SDK/GD32VW55x_RELEASE_V1.0.2/MSDK/wpa_supplicant/src/tls\tlsv1_record.c **** 			return -1;
 128:C:/Users/stapi/OneDrive/Desktop/GD32VW553/V1_MQTT_OK/GD32VW55X_Wifi_BLE_SDK/GD32VW55x_RELEASE_V1.0.2/MSDK/wpa_supplicant/src/tls\tlsv1_record.c **** 		}
 129:C:/Users/stapi/OneDrive/Desktop/GD32VW553/V1_MQTT_OK/GD32VW55X_Wifi_BLE_SDK/GD32VW55x_RELEASE_V1.0.2/MSDK/wpa_supplicant/src/tls\tlsv1_record.c **** 	}
 130:C:/Users/stapi/OneDrive/Desktop/GD32VW553/V1_MQTT_OK/GD32VW55X_Wifi_BLE_SDK/GD32VW55x_RELEASE_V1.0.2/MSDK/wpa_supplicant/src/tls\tlsv1_record.c **** 
 131:C:/Users/stapi/OneDrive/Desktop/GD32VW553/V1_MQTT_OK/GD32VW55X_Wifi_BLE_SDK/GD32VW55x_RELEASE_V1.0.2/MSDK/wpa_supplicant/src/tls\tlsv1_record.c **** 	return 0;
 302              		.loc 1 131 9
 303 0050 0145     		li	a0,0
 304              	.L22:
 132:C:/Users/stapi/OneDrive/Desktop/GD32VW553/V1_MQTT_OK/GD32VW55X_Wifi_BLE_SDK/GD32VW55x_RELEASE_V1.0.2/MSDK/wpa_supplicant/src/tls\tlsv1_record.c **** }
 305              		.loc 1 132 1
 306 0052 17030000 		tail	__riscv_restore_1
 306      67000300 
 307              		.cfi_remember_state
 308              		.cfi_restore 8
 309              		.cfi_restore 1
 310              		.cfi_def_cfa_offset 0
 311              	.L24:
 312              		.cfi_restore_state
 121:C:/Users/stapi/OneDrive/Desktop/GD32VW553/V1_MQTT_OK/GD32VW55X_Wifi_BLE_SDK/GD32VW55x_RELEASE_V1.0.2/MSDK/wpa_supplicant/src/tls\tlsv1_record.c **** 		rl->read_cbc = crypto_cipher_init(rl->cipher_alg,
 313              		.loc 1 121 3 is_stmt 1
 121:C:/Users/stapi/OneDrive/Desktop/GD32VW553/V1_MQTT_OK/GD32VW55X_Wifi_BLE_SDK/GD32VW55x_RELEASE_V1.0.2/MSDK/wpa_supplicant/src/tls\tlsv1_record.c **** 		rl->read_cbc = crypto_cipher_init(rl->cipher_alg,
 314              		.loc 1 121 18 is_stmt 0
 315 005a 8326840A 		lw	a3,168(s0)
 316 005e 13062406 		addi	a2,s0,98
 317 0062 93052409 		addi	a1,s0,146
 318 0066 97000000 		call	crypto_cipher_init
 318      E7800000 
 319              	.LVL23:
 121:C:/Users/stapi/OneDrive/Desktop/GD32VW553/V1_MQTT_OK/GD32VW55X_Wifi_BLE_SDK/GD32VW55x_RELEASE_V1.0.2/MSDK/wpa_supplicant/src/tls\tlsv1_record.c **** 		rl->read_cbc = crypto_cipher_init(rl->cipher_alg,
 320              		.loc 1 121 16
 321 006e 232AA40C 		sw	a0,212(s0)
 124:C:/Users/stapi/OneDrive/Desktop/GD32VW553/V1_MQTT_OK/GD32VW55X_Wifi_BLE_SDK/GD32VW55x_RELEASE_V1.0.2/MSDK/wpa_supplicant/src/tls\tlsv1_record.c **** 			wpa_printf(MSG_DEBUG, "TLSv1: Failed to initialize "
 322              		.loc 1 124 3 is_stmt 1
 124:C:/Users/stapi/OneDrive/Desktop/GD32VW553/V1_MQTT_OK/GD32VW55X_Wifi_BLE_SDK/GD32VW55x_RELEASE_V1.0.2/MSDK/wpa_supplicant/src/tls\tlsv1_record.c **** 			wpa_printf(MSG_DEBUG, "TLSv1: Failed to initialize "
 323              		.loc 1 124 6 is_stmt 0
 324 0072 79FD     		bne	a0,zero,.L26
 125:C:/Users/stapi/OneDrive/Desktop/GD32VW553/V1_MQTT_OK/GD32VW55X_Wifi_BLE_SDK/GD32VW55x_RELEASE_V1.0.2/MSDK/wpa_supplicant/src/tls\tlsv1_record.c **** 				   "cipher");
 325              		.loc 1 125 4 is_stmt 1
 326 0074 B7050000 		lui	a1,%hi(.LC2)
 327 0078 0945     		li	a0,2
 328 007a 93850500 		addi	a1,a1,%lo(.LC2)
 329 007e 97000000 		call	wpa_printf
 329      E7800000 
 330              	.LVL24:
 127:C:/Users/stapi/OneDrive/Desktop/GD32VW553/V1_MQTT_OK/GD32VW55X_Wifi_BLE_SDK/GD32VW55x_RELEASE_V1.0.2/MSDK/wpa_supplicant/src/tls\tlsv1_record.c **** 		}
 331              		.loc 1 127 4
 127:C:/Users/stapi/OneDrive/Desktop/GD32VW553/V1_MQTT_OK/GD32VW55X_Wifi_BLE_SDK/GD32VW55x_RELEASE_V1.0.2/MSDK/wpa_supplicant/src/tls\tlsv1_record.c **** 		}
 332              		.loc 1 127 11 is_stmt 0
 333 0086 7D55     		li	a0,-1
 334 0088 E9B7     		j	.L22
 335              		.cfi_endproc
 336              	.LFE73:
 338              		.section	.rodata.tlsv1_record_send.str1.4,"aMS",@progbits,1
 339              		.align	2
 340              	.LC4:
 341 0000 544C5376 		.string	"TLSv1: Record Layer - Failed to initialize HMAC"
 341      313A2052 
 341      65636F72 
 341      64204C61 
 341      79657220 
 342              		.align	2
 343              	.LC5:
 344 0030 544C5376 		.string	"TLSv1: Record Layer - Not enough room for MAC"
 344      313A2052 
 344      65636F72 
 344      64204C61 
 344      79657220 
 345 005e 0000     		.align	2
 346              	.LC6:
 347 0060 544C5376 		.string	"TLSv1: Record Layer - Failed to calculate HMAC"
 347      313A2052 
 347      65636F72 
 347      64204C61 
 347      79657220 
 348 008f 00       		.align	2
 349              	.LC7:
 350 0090 544C5376 		.string	"TLSv1: Record Layer - Write HMAC"
 350      313A2052 
 350      65636F72 
 350      64204C61 
 350      79657220 
 351 00b1 000000   		.align	2
 352              	.LC8:
 353 00b4 544C5376 		.string	"TLSv1: No room for block cipher padding"
 353      313A204E 
 353      6F20726F 
 353      6F6D2066 
 353      6F722062 
 354              		.section	.text.tlsv1_record_send,"ax",@progbits
 355              		.align	1
 356              		.globl	tlsv1_record_send
 358              	tlsv1_record_send:
 359              	.LFB74:
 133:C:/Users/stapi/OneDrive/Desktop/GD32VW553/V1_MQTT_OK/GD32VW55X_Wifi_BLE_SDK/GD32VW55x_RELEASE_V1.0.2/MSDK/wpa_supplicant/src/tls\tlsv1_record.c **** 
 134:C:/Users/stapi/OneDrive/Desktop/GD32VW553/V1_MQTT_OK/GD32VW55X_Wifi_BLE_SDK/GD32VW55x_RELEASE_V1.0.2/MSDK/wpa_supplicant/src/tls\tlsv1_record.c **** 
 135:C:/Users/stapi/OneDrive/Desktop/GD32VW553/V1_MQTT_OK/GD32VW55X_Wifi_BLE_SDK/GD32VW55x_RELEASE_V1.0.2/MSDK/wpa_supplicant/src/tls\tlsv1_record.c **** /**
 136:C:/Users/stapi/OneDrive/Desktop/GD32VW553/V1_MQTT_OK/GD32VW55X_Wifi_BLE_SDK/GD32VW55x_RELEASE_V1.0.2/MSDK/wpa_supplicant/src/tls\tlsv1_record.c ****  * tlsv1_record_send - TLS record layer: Send a message
 137:C:/Users/stapi/OneDrive/Desktop/GD32VW553/V1_MQTT_OK/GD32VW55X_Wifi_BLE_SDK/GD32VW55x_RELEASE_V1.0.2/MSDK/wpa_supplicant/src/tls\tlsv1_record.c ****  * @rl: Pointer to TLS record layer data
 138:C:/Users/stapi/OneDrive/Desktop/GD32VW553/V1_MQTT_OK/GD32VW55X_Wifi_BLE_SDK/GD32VW55x_RELEASE_V1.0.2/MSDK/wpa_supplicant/src/tls\tlsv1_record.c ****  * @content_type: Content type (TLS_CONTENT_TYPE_*)
 139:C:/Users/stapi/OneDrive/Desktop/GD32VW553/V1_MQTT_OK/GD32VW55X_Wifi_BLE_SDK/GD32VW55x_RELEASE_V1.0.2/MSDK/wpa_supplicant/src/tls\tlsv1_record.c ****  * @buf: Buffer for the generated TLS message (needs to have extra space for
 140:C:/Users/stapi/OneDrive/Desktop/GD32VW553/V1_MQTT_OK/GD32VW55X_Wifi_BLE_SDK/GD32VW55x_RELEASE_V1.0.2/MSDK/wpa_supplicant/src/tls\tlsv1_record.c ****  * header, IV (TLS v1.1), and HMAC)
 141:C:/Users/stapi/OneDrive/Desktop/GD32VW553/V1_MQTT_OK/GD32VW55X_Wifi_BLE_SDK/GD32VW55x_RELEASE_V1.0.2/MSDK/wpa_supplicant/src/tls\tlsv1_record.c ****  * @buf_size: Maximum buf size
 142:C:/Users/stapi/OneDrive/Desktop/GD32VW553/V1_MQTT_OK/GD32VW55X_Wifi_BLE_SDK/GD32VW55x_RELEASE_V1.0.2/MSDK/wpa_supplicant/src/tls\tlsv1_record.c ****  * @payload: Payload to be sent
 143:C:/Users/stapi/OneDrive/Desktop/GD32VW553/V1_MQTT_OK/GD32VW55X_Wifi_BLE_SDK/GD32VW55x_RELEASE_V1.0.2/MSDK/wpa_supplicant/src/tls\tlsv1_record.c ****  * @payload_len: Length of the payload
 144:C:/Users/stapi/OneDrive/Desktop/GD32VW553/V1_MQTT_OK/GD32VW55X_Wifi_BLE_SDK/GD32VW55x_RELEASE_V1.0.2/MSDK/wpa_supplicant/src/tls\tlsv1_record.c ****  * @out_len: Buffer for returning the used buf length
 145:C:/Users/stapi/OneDrive/Desktop/GD32VW553/V1_MQTT_OK/GD32VW55X_Wifi_BLE_SDK/GD32VW55x_RELEASE_V1.0.2/MSDK/wpa_supplicant/src/tls\tlsv1_record.c ****  * Returns: 0 on success, -1 on failure
 146:C:/Users/stapi/OneDrive/Desktop/GD32VW553/V1_MQTT_OK/GD32VW55X_Wifi_BLE_SDK/GD32VW55x_RELEASE_V1.0.2/MSDK/wpa_supplicant/src/tls\tlsv1_record.c ****  *
 147:C:/Users/stapi/OneDrive/Desktop/GD32VW553/V1_MQTT_OK/GD32VW55X_Wifi_BLE_SDK/GD32VW55x_RELEASE_V1.0.2/MSDK/wpa_supplicant/src/tls\tlsv1_record.c ****  * This function fills in the TLS record layer header, adds HMAC, and encrypts
 148:C:/Users/stapi/OneDrive/Desktop/GD32VW553/V1_MQTT_OK/GD32VW55X_Wifi_BLE_SDK/GD32VW55x_RELEASE_V1.0.2/MSDK/wpa_supplicant/src/tls\tlsv1_record.c ****  * the data using the current write cipher.
 149:C:/Users/stapi/OneDrive/Desktop/GD32VW553/V1_MQTT_OK/GD32VW55X_Wifi_BLE_SDK/GD32VW55x_RELEASE_V1.0.2/MSDK/wpa_supplicant/src/tls\tlsv1_record.c ****  */
 150:C:/Users/stapi/OneDrive/Desktop/GD32VW553/V1_MQTT_OK/GD32VW55X_Wifi_BLE_SDK/GD32VW55x_RELEASE_V1.0.2/MSDK/wpa_supplicant/src/tls\tlsv1_record.c **** int tlsv1_record_send(struct tlsv1_record_layer *rl, u8 content_type, u8 *buf,
 151:C:/Users/stapi/OneDrive/Desktop/GD32VW553/V1_MQTT_OK/GD32VW55X_Wifi_BLE_SDK/GD32VW55x_RELEASE_V1.0.2/MSDK/wpa_supplicant/src/tls\tlsv1_record.c **** 		      size_t buf_size, const u8 *payload, size_t payload_len,
 152:C:/Users/stapi/OneDrive/Desktop/GD32VW553/V1_MQTT_OK/GD32VW55X_Wifi_BLE_SDK/GD32VW55x_RELEASE_V1.0.2/MSDK/wpa_supplicant/src/tls\tlsv1_record.c **** 		      size_t *out_len)
 153:C:/Users/stapi/OneDrive/Desktop/GD32VW553/V1_MQTT_OK/GD32VW55X_Wifi_BLE_SDK/GD32VW55x_RELEASE_V1.0.2/MSDK/wpa_supplicant/src/tls\tlsv1_record.c **** {
 360              		.loc 1 153 1 is_stmt 1
 361              		.cfi_startproc
 362              	.LVL25:
 363 0000 17030000 		call	t0,__riscv_save_10
 363      E7020300 
 364              		.cfi_offset 25, -44
 365              		.cfi_offset 24, -40
 366              		.cfi_offset 23, -36
 367              		.cfi_offset 22, -32
 368              		.cfi_offset 21, -28
 369              		.cfi_offset 20, -24
 370              		.cfi_offset 19, -20
 371              		.cfi_offset 18, -16
 372              		.cfi_offset 9, -12
 373              		.cfi_offset 8, -8
 374              		.cfi_offset 1, -4
 375              		.cfi_def_cfa_offset 48
 154:C:/Users/stapi/OneDrive/Desktop/GD32VW553/V1_MQTT_OK/GD32VW55X_Wifi_BLE_SDK/GD32VW55x_RELEASE_V1.0.2/MSDK/wpa_supplicant/src/tls\tlsv1_record.c **** 	u8 *pos, *ct_start, *length, *cpayload;
 376              		.loc 1 154 2
 155:C:/Users/stapi/OneDrive/Desktop/GD32VW553/V1_MQTT_OK/GD32VW55X_Wifi_BLE_SDK/GD32VW55x_RELEASE_V1.0.2/MSDK/wpa_supplicant/src/tls\tlsv1_record.c **** 	struct crypto_hash *hmac;
 377              		.loc 1 155 2
 156:C:/Users/stapi/OneDrive/Desktop/GD32VW553/V1_MQTT_OK/GD32VW55X_Wifi_BLE_SDK/GD32VW55x_RELEASE_V1.0.2/MSDK/wpa_supplicant/src/tls\tlsv1_record.c **** 	size_t clen;
 378              		.loc 1 156 2
 157:C:/Users/stapi/OneDrive/Desktop/GD32VW553/V1_MQTT_OK/GD32VW55X_Wifi_BLE_SDK/GD32VW55x_RELEASE_V1.0.2/MSDK/wpa_supplicant/src/tls\tlsv1_record.c **** 	int explicit_iv;
 379              		.loc 1 157 2
 158:C:/Users/stapi/OneDrive/Desktop/GD32VW553/V1_MQTT_OK/GD32VW55X_Wifi_BLE_SDK/GD32VW55x_RELEASE_V1.0.2/MSDK/wpa_supplicant/src/tls\tlsv1_record.c **** 
 159:C:/Users/stapi/OneDrive/Desktop/GD32VW553/V1_MQTT_OK/GD32VW55X_Wifi_BLE_SDK/GD32VW55x_RELEASE_V1.0.2/MSDK/wpa_supplicant/src/tls\tlsv1_record.c **** 	pos = buf;
 380              		.loc 1 159 2
 381              	.LVL26:
 160:C:/Users/stapi/OneDrive/Desktop/GD32VW553/V1_MQTT_OK/GD32VW55X_Wifi_BLE_SDK/GD32VW55x_RELEASE_V1.0.2/MSDK/wpa_supplicant/src/tls\tlsv1_record.c **** 	if (pos + TLS_RECORD_HEADER_LEN > buf + buf_size)
 382              		.loc 1 160 2
 383              		.loc 1 160 40 is_stmt 0
 384 0008 330BD600 		add	s6,a2,a3
 385              		.loc 1 160 10
 386 000c 93095600 		addi	s3,a2,5
 153:C:/Users/stapi/OneDrive/Desktop/GD32VW553/V1_MQTT_OK/GD32VW55X_Wifi_BLE_SDK/GD32VW55x_RELEASE_V1.0.2/MSDK/wpa_supplicant/src/tls\tlsv1_record.c **** 	u8 *pos, *ct_start, *length, *cpayload;
 387              		.loc 1 153 1
 388 0010 4111     		addi	sp,sp,-16
 389              		.cfi_def_cfa_offset 64
 390              		.loc 1 160 5
 391 0012 63783B01 		bgeu	s6,s3,.L32
 392              	.LVL27:
 393              	.L57:
 394              	.LBB14:
 161:C:/Users/stapi/OneDrive/Desktop/GD32VW553/V1_MQTT_OK/GD32VW55X_Wifi_BLE_SDK/GD32VW55x_RELEASE_V1.0.2/MSDK/wpa_supplicant/src/tls\tlsv1_record.c **** 		return -1;
 162:C:/Users/stapi/OneDrive/Desktop/GD32VW553/V1_MQTT_OK/GD32VW55X_Wifi_BLE_SDK/GD32VW55x_RELEASE_V1.0.2/MSDK/wpa_supplicant/src/tls\tlsv1_record.c **** 
 163:C:/Users/stapi/OneDrive/Desktop/GD32VW553/V1_MQTT_OK/GD32VW55X_Wifi_BLE_SDK/GD32VW55x_RELEASE_V1.0.2/MSDK/wpa_supplicant/src/tls\tlsv1_record.c **** 	/* ContentType type */
 164:C:/Users/stapi/OneDrive/Desktop/GD32VW553/V1_MQTT_OK/GD32VW55X_Wifi_BLE_SDK/GD32VW55x_RELEASE_V1.0.2/MSDK/wpa_supplicant/src/tls\tlsv1_record.c **** 	ct_start = pos;
 165:C:/Users/stapi/OneDrive/Desktop/GD32VW553/V1_MQTT_OK/GD32VW55X_Wifi_BLE_SDK/GD32VW55x_RELEASE_V1.0.2/MSDK/wpa_supplicant/src/tls\tlsv1_record.c **** 	*pos++ = content_type;
 166:C:/Users/stapi/OneDrive/Desktop/GD32VW553/V1_MQTT_OK/GD32VW55X_Wifi_BLE_SDK/GD32VW55x_RELEASE_V1.0.2/MSDK/wpa_supplicant/src/tls\tlsv1_record.c **** 	/* ProtocolVersion version */
 167:C:/Users/stapi/OneDrive/Desktop/GD32VW553/V1_MQTT_OK/GD32VW55X_Wifi_BLE_SDK/GD32VW55x_RELEASE_V1.0.2/MSDK/wpa_supplicant/src/tls\tlsv1_record.c **** 	WPA_PUT_BE16(pos, rl->tls_version);
 168:C:/Users/stapi/OneDrive/Desktop/GD32VW553/V1_MQTT_OK/GD32VW55X_Wifi_BLE_SDK/GD32VW55x_RELEASE_V1.0.2/MSDK/wpa_supplicant/src/tls\tlsv1_record.c **** 	pos += 2;
 169:C:/Users/stapi/OneDrive/Desktop/GD32VW553/V1_MQTT_OK/GD32VW55X_Wifi_BLE_SDK/GD32VW55x_RELEASE_V1.0.2/MSDK/wpa_supplicant/src/tls\tlsv1_record.c **** 	/* uint16 length */
 170:C:/Users/stapi/OneDrive/Desktop/GD32VW553/V1_MQTT_OK/GD32VW55X_Wifi_BLE_SDK/GD32VW55x_RELEASE_V1.0.2/MSDK/wpa_supplicant/src/tls\tlsv1_record.c **** 	length = pos;
 171:C:/Users/stapi/OneDrive/Desktop/GD32VW553/V1_MQTT_OK/GD32VW55X_Wifi_BLE_SDK/GD32VW55x_RELEASE_V1.0.2/MSDK/wpa_supplicant/src/tls\tlsv1_record.c **** 	WPA_PUT_BE16(length, payload_len);
 172:C:/Users/stapi/OneDrive/Desktop/GD32VW553/V1_MQTT_OK/GD32VW55X_Wifi_BLE_SDK/GD32VW55x_RELEASE_V1.0.2/MSDK/wpa_supplicant/src/tls\tlsv1_record.c **** 	pos += 2;
 173:C:/Users/stapi/OneDrive/Desktop/GD32VW553/V1_MQTT_OK/GD32VW55X_Wifi_BLE_SDK/GD32VW55x_RELEASE_V1.0.2/MSDK/wpa_supplicant/src/tls\tlsv1_record.c **** 
 174:C:/Users/stapi/OneDrive/Desktop/GD32VW553/V1_MQTT_OK/GD32VW55X_Wifi_BLE_SDK/GD32VW55x_RELEASE_V1.0.2/MSDK/wpa_supplicant/src/tls\tlsv1_record.c **** 	cpayload = pos;
 175:C:/Users/stapi/OneDrive/Desktop/GD32VW553/V1_MQTT_OK/GD32VW55X_Wifi_BLE_SDK/GD32VW55x_RELEASE_V1.0.2/MSDK/wpa_supplicant/src/tls\tlsv1_record.c **** 	explicit_iv = rl->write_cipher_suite != TLS_NULL_WITH_NULL_NULL &&
 176:C:/Users/stapi/OneDrive/Desktop/GD32VW553/V1_MQTT_OK/GD32VW55X_Wifi_BLE_SDK/GD32VW55x_RELEASE_V1.0.2/MSDK/wpa_supplicant/src/tls\tlsv1_record.c **** 		rl->iv_size && rl->tls_version >= TLS_VERSION_1_1;
 177:C:/Users/stapi/OneDrive/Desktop/GD32VW553/V1_MQTT_OK/GD32VW55X_Wifi_BLE_SDK/GD32VW55x_RELEASE_V1.0.2/MSDK/wpa_supplicant/src/tls\tlsv1_record.c **** 	if (explicit_iv) {
 178:C:/Users/stapi/OneDrive/Desktop/GD32VW553/V1_MQTT_OK/GD32VW55X_Wifi_BLE_SDK/GD32VW55x_RELEASE_V1.0.2/MSDK/wpa_supplicant/src/tls\tlsv1_record.c **** 		/* opaque IV[Cipherspec.block_length] */
 179:C:/Users/stapi/OneDrive/Desktop/GD32VW553/V1_MQTT_OK/GD32VW55X_Wifi_BLE_SDK/GD32VW55x_RELEASE_V1.0.2/MSDK/wpa_supplicant/src/tls\tlsv1_record.c **** 		if (pos + rl->iv_size > buf + buf_size)
 180:C:/Users/stapi/OneDrive/Desktop/GD32VW553/V1_MQTT_OK/GD32VW55X_Wifi_BLE_SDK/GD32VW55x_RELEASE_V1.0.2/MSDK/wpa_supplicant/src/tls\tlsv1_record.c **** 			return -1;
 181:C:/Users/stapi/OneDrive/Desktop/GD32VW553/V1_MQTT_OK/GD32VW55X_Wifi_BLE_SDK/GD32VW55x_RELEASE_V1.0.2/MSDK/wpa_supplicant/src/tls\tlsv1_record.c **** 
 182:C:/Users/stapi/OneDrive/Desktop/GD32VW553/V1_MQTT_OK/GD32VW55X_Wifi_BLE_SDK/GD32VW55x_RELEASE_V1.0.2/MSDK/wpa_supplicant/src/tls\tlsv1_record.c **** 		/*
 183:C:/Users/stapi/OneDrive/Desktop/GD32VW553/V1_MQTT_OK/GD32VW55X_Wifi_BLE_SDK/GD32VW55x_RELEASE_V1.0.2/MSDK/wpa_supplicant/src/tls\tlsv1_record.c **** 		 * Use random number R per the RFC 4346, 6.2.3.2 CBC Block
 184:C:/Users/stapi/OneDrive/Desktop/GD32VW553/V1_MQTT_OK/GD32VW55X_Wifi_BLE_SDK/GD32VW55x_RELEASE_V1.0.2/MSDK/wpa_supplicant/src/tls\tlsv1_record.c **** 		 * Cipher option 2a.
 185:C:/Users/stapi/OneDrive/Desktop/GD32VW553/V1_MQTT_OK/GD32VW55X_Wifi_BLE_SDK/GD32VW55x_RELEASE_V1.0.2/MSDK/wpa_supplicant/src/tls\tlsv1_record.c **** 		 */
 186:C:/Users/stapi/OneDrive/Desktop/GD32VW553/V1_MQTT_OK/GD32VW55X_Wifi_BLE_SDK/GD32VW55x_RELEASE_V1.0.2/MSDK/wpa_supplicant/src/tls\tlsv1_record.c **** 
 187:C:/Users/stapi/OneDrive/Desktop/GD32VW553/V1_MQTT_OK/GD32VW55X_Wifi_BLE_SDK/GD32VW55x_RELEASE_V1.0.2/MSDK/wpa_supplicant/src/tls\tlsv1_record.c **** 		if (os_get_random(pos, rl->iv_size))
 188:C:/Users/stapi/OneDrive/Desktop/GD32VW553/V1_MQTT_OK/GD32VW55X_Wifi_BLE_SDK/GD32VW55x_RELEASE_V1.0.2/MSDK/wpa_supplicant/src/tls\tlsv1_record.c **** 			return -1;
 189:C:/Users/stapi/OneDrive/Desktop/GD32VW553/V1_MQTT_OK/GD32VW55X_Wifi_BLE_SDK/GD32VW55x_RELEASE_V1.0.2/MSDK/wpa_supplicant/src/tls\tlsv1_record.c **** 		pos += rl->iv_size;
 190:C:/Users/stapi/OneDrive/Desktop/GD32VW553/V1_MQTT_OK/GD32VW55X_Wifi_BLE_SDK/GD32VW55x_RELEASE_V1.0.2/MSDK/wpa_supplicant/src/tls\tlsv1_record.c **** 	}
 191:C:/Users/stapi/OneDrive/Desktop/GD32VW553/V1_MQTT_OK/GD32VW55X_Wifi_BLE_SDK/GD32VW55x_RELEASE_V1.0.2/MSDK/wpa_supplicant/src/tls\tlsv1_record.c **** 
 192:C:/Users/stapi/OneDrive/Desktop/GD32VW553/V1_MQTT_OK/GD32VW55X_Wifi_BLE_SDK/GD32VW55x_RELEASE_V1.0.2/MSDK/wpa_supplicant/src/tls\tlsv1_record.c **** 	/*
 193:C:/Users/stapi/OneDrive/Desktop/GD32VW553/V1_MQTT_OK/GD32VW55X_Wifi_BLE_SDK/GD32VW55x_RELEASE_V1.0.2/MSDK/wpa_supplicant/src/tls\tlsv1_record.c **** 	 * opaque fragment[TLSPlaintext.length]
 194:C:/Users/stapi/OneDrive/Desktop/GD32VW553/V1_MQTT_OK/GD32VW55X_Wifi_BLE_SDK/GD32VW55x_RELEASE_V1.0.2/MSDK/wpa_supplicant/src/tls\tlsv1_record.c **** 	 * (opaque content[TLSCompressed.length] in GenericBlockCipher)
 195:C:/Users/stapi/OneDrive/Desktop/GD32VW553/V1_MQTT_OK/GD32VW55X_Wifi_BLE_SDK/GD32VW55x_RELEASE_V1.0.2/MSDK/wpa_supplicant/src/tls\tlsv1_record.c **** 	 */
 196:C:/Users/stapi/OneDrive/Desktop/GD32VW553/V1_MQTT_OK/GD32VW55X_Wifi_BLE_SDK/GD32VW55x_RELEASE_V1.0.2/MSDK/wpa_supplicant/src/tls\tlsv1_record.c **** 	if (pos + payload_len > buf + buf_size)
 197:C:/Users/stapi/OneDrive/Desktop/GD32VW553/V1_MQTT_OK/GD32VW55X_Wifi_BLE_SDK/GD32VW55x_RELEASE_V1.0.2/MSDK/wpa_supplicant/src/tls\tlsv1_record.c **** 		return -1;
 198:C:/Users/stapi/OneDrive/Desktop/GD32VW553/V1_MQTT_OK/GD32VW55X_Wifi_BLE_SDK/GD32VW55x_RELEASE_V1.0.2/MSDK/wpa_supplicant/src/tls\tlsv1_record.c **** 	os_memmove(pos, payload, payload_len);
 199:C:/Users/stapi/OneDrive/Desktop/GD32VW553/V1_MQTT_OK/GD32VW55X_Wifi_BLE_SDK/GD32VW55x_RELEASE_V1.0.2/MSDK/wpa_supplicant/src/tls\tlsv1_record.c **** 	pos += payload_len;
 200:C:/Users/stapi/OneDrive/Desktop/GD32VW553/V1_MQTT_OK/GD32VW55X_Wifi_BLE_SDK/GD32VW55x_RELEASE_V1.0.2/MSDK/wpa_supplicant/src/tls\tlsv1_record.c **** 
 201:C:/Users/stapi/OneDrive/Desktop/GD32VW553/V1_MQTT_OK/GD32VW55X_Wifi_BLE_SDK/GD32VW55x_RELEASE_V1.0.2/MSDK/wpa_supplicant/src/tls\tlsv1_record.c **** 	if (rl->write_cipher_suite != TLS_NULL_WITH_NULL_NULL) {
 202:C:/Users/stapi/OneDrive/Desktop/GD32VW553/V1_MQTT_OK/GD32VW55X_Wifi_BLE_SDK/GD32VW55x_RELEASE_V1.0.2/MSDK/wpa_supplicant/src/tls\tlsv1_record.c **** 		/*
 203:C:/Users/stapi/OneDrive/Desktop/GD32VW553/V1_MQTT_OK/GD32VW55X_Wifi_BLE_SDK/GD32VW55x_RELEASE_V1.0.2/MSDK/wpa_supplicant/src/tls\tlsv1_record.c **** 		 * MAC calculated over seq_num + TLSCompressed.type +
 204:C:/Users/stapi/OneDrive/Desktop/GD32VW553/V1_MQTT_OK/GD32VW55X_Wifi_BLE_SDK/GD32VW55x_RELEASE_V1.0.2/MSDK/wpa_supplicant/src/tls\tlsv1_record.c **** 		 * TLSCompressed.version + TLSCompressed.length +
 205:C:/Users/stapi/OneDrive/Desktop/GD32VW553/V1_MQTT_OK/GD32VW55X_Wifi_BLE_SDK/GD32VW55x_RELEASE_V1.0.2/MSDK/wpa_supplicant/src/tls\tlsv1_record.c **** 		 * TLSCompressed.fragment
 206:C:/Users/stapi/OneDrive/Desktop/GD32VW553/V1_MQTT_OK/GD32VW55X_Wifi_BLE_SDK/GD32VW55x_RELEASE_V1.0.2/MSDK/wpa_supplicant/src/tls\tlsv1_record.c **** 		 */
 207:C:/Users/stapi/OneDrive/Desktop/GD32VW553/V1_MQTT_OK/GD32VW55X_Wifi_BLE_SDK/GD32VW55x_RELEASE_V1.0.2/MSDK/wpa_supplicant/src/tls\tlsv1_record.c **** 		hmac = crypto_hash_init(rl->hash_alg, rl->write_mac_secret,
 208:C:/Users/stapi/OneDrive/Desktop/GD32VW553/V1_MQTT_OK/GD32VW55X_Wifi_BLE_SDK/GD32VW55x_RELEASE_V1.0.2/MSDK/wpa_supplicant/src/tls\tlsv1_record.c **** 					rl->hash_size);
 209:C:/Users/stapi/OneDrive/Desktop/GD32VW553/V1_MQTT_OK/GD32VW55X_Wifi_BLE_SDK/GD32VW55x_RELEASE_V1.0.2/MSDK/wpa_supplicant/src/tls\tlsv1_record.c **** 		if (hmac == NULL) {
 210:C:/Users/stapi/OneDrive/Desktop/GD32VW553/V1_MQTT_OK/GD32VW55X_Wifi_BLE_SDK/GD32VW55x_RELEASE_V1.0.2/MSDK/wpa_supplicant/src/tls\tlsv1_record.c **** 			wpa_printf(MSG_DEBUG, "TLSv1: Record Layer - Failed "
 211:C:/Users/stapi/OneDrive/Desktop/GD32VW553/V1_MQTT_OK/GD32VW55X_Wifi_BLE_SDK/GD32VW55x_RELEASE_V1.0.2/MSDK/wpa_supplicant/src/tls\tlsv1_record.c **** 				   "to initialize HMAC");
 212:C:/Users/stapi/OneDrive/Desktop/GD32VW553/V1_MQTT_OK/GD32VW55X_Wifi_BLE_SDK/GD32VW55x_RELEASE_V1.0.2/MSDK/wpa_supplicant/src/tls\tlsv1_record.c **** 			return -1;
 213:C:/Users/stapi/OneDrive/Desktop/GD32VW553/V1_MQTT_OK/GD32VW55X_Wifi_BLE_SDK/GD32VW55x_RELEASE_V1.0.2/MSDK/wpa_supplicant/src/tls\tlsv1_record.c **** 		}
 214:C:/Users/stapi/OneDrive/Desktop/GD32VW553/V1_MQTT_OK/GD32VW55X_Wifi_BLE_SDK/GD32VW55x_RELEASE_V1.0.2/MSDK/wpa_supplicant/src/tls\tlsv1_record.c **** 		crypto_hash_update(hmac, rl->write_seq_num, TLS_SEQ_NUM_LEN);
 215:C:/Users/stapi/OneDrive/Desktop/GD32VW553/V1_MQTT_OK/GD32VW55X_Wifi_BLE_SDK/GD32VW55x_RELEASE_V1.0.2/MSDK/wpa_supplicant/src/tls\tlsv1_record.c **** 		/* type + version + length + fragment */
 216:C:/Users/stapi/OneDrive/Desktop/GD32VW553/V1_MQTT_OK/GD32VW55X_Wifi_BLE_SDK/GD32VW55x_RELEASE_V1.0.2/MSDK/wpa_supplicant/src/tls\tlsv1_record.c **** 		crypto_hash_update(hmac, ct_start, TLS_RECORD_HEADER_LEN);
 217:C:/Users/stapi/OneDrive/Desktop/GD32VW553/V1_MQTT_OK/GD32VW55X_Wifi_BLE_SDK/GD32VW55x_RELEASE_V1.0.2/MSDK/wpa_supplicant/src/tls\tlsv1_record.c **** 		crypto_hash_update(hmac, payload, payload_len);
 218:C:/Users/stapi/OneDrive/Desktop/GD32VW553/V1_MQTT_OK/GD32VW55X_Wifi_BLE_SDK/GD32VW55x_RELEASE_V1.0.2/MSDK/wpa_supplicant/src/tls\tlsv1_record.c **** 		clen = buf + buf_size - pos;
 219:C:/Users/stapi/OneDrive/Desktop/GD32VW553/V1_MQTT_OK/GD32VW55X_Wifi_BLE_SDK/GD32VW55x_RELEASE_V1.0.2/MSDK/wpa_supplicant/src/tls\tlsv1_record.c **** 		if (clen < rl->hash_size) {
 220:C:/Users/stapi/OneDrive/Desktop/GD32VW553/V1_MQTT_OK/GD32VW55X_Wifi_BLE_SDK/GD32VW55x_RELEASE_V1.0.2/MSDK/wpa_supplicant/src/tls\tlsv1_record.c **** 			wpa_printf(MSG_DEBUG, "TLSv1: Record Layer - Not "
 221:C:/Users/stapi/OneDrive/Desktop/GD32VW553/V1_MQTT_OK/GD32VW55X_Wifi_BLE_SDK/GD32VW55x_RELEASE_V1.0.2/MSDK/wpa_supplicant/src/tls\tlsv1_record.c **** 				   "enough room for MAC");
 222:C:/Users/stapi/OneDrive/Desktop/GD32VW553/V1_MQTT_OK/GD32VW55X_Wifi_BLE_SDK/GD32VW55x_RELEASE_V1.0.2/MSDK/wpa_supplicant/src/tls\tlsv1_record.c **** 			crypto_hash_finish(hmac, NULL, NULL);
 223:C:/Users/stapi/OneDrive/Desktop/GD32VW553/V1_MQTT_OK/GD32VW55X_Wifi_BLE_SDK/GD32VW55x_RELEASE_V1.0.2/MSDK/wpa_supplicant/src/tls\tlsv1_record.c **** 			return -1;
 224:C:/Users/stapi/OneDrive/Desktop/GD32VW553/V1_MQTT_OK/GD32VW55X_Wifi_BLE_SDK/GD32VW55x_RELEASE_V1.0.2/MSDK/wpa_supplicant/src/tls\tlsv1_record.c **** 		}
 225:C:/Users/stapi/OneDrive/Desktop/GD32VW553/V1_MQTT_OK/GD32VW55X_Wifi_BLE_SDK/GD32VW55x_RELEASE_V1.0.2/MSDK/wpa_supplicant/src/tls\tlsv1_record.c **** 
 226:C:/Users/stapi/OneDrive/Desktop/GD32VW553/V1_MQTT_OK/GD32VW55X_Wifi_BLE_SDK/GD32VW55x_RELEASE_V1.0.2/MSDK/wpa_supplicant/src/tls\tlsv1_record.c **** 		if (crypto_hash_finish(hmac, pos, &clen) < 0) {
 227:C:/Users/stapi/OneDrive/Desktop/GD32VW553/V1_MQTT_OK/GD32VW55X_Wifi_BLE_SDK/GD32VW55x_RELEASE_V1.0.2/MSDK/wpa_supplicant/src/tls\tlsv1_record.c **** 			wpa_printf(MSG_DEBUG, "TLSv1: Record Layer - Failed "
 228:C:/Users/stapi/OneDrive/Desktop/GD32VW553/V1_MQTT_OK/GD32VW55X_Wifi_BLE_SDK/GD32VW55x_RELEASE_V1.0.2/MSDK/wpa_supplicant/src/tls\tlsv1_record.c **** 				   "to calculate HMAC");
 229:C:/Users/stapi/OneDrive/Desktop/GD32VW553/V1_MQTT_OK/GD32VW55X_Wifi_BLE_SDK/GD32VW55x_RELEASE_V1.0.2/MSDK/wpa_supplicant/src/tls\tlsv1_record.c **** 			return -1;
 230:C:/Users/stapi/OneDrive/Desktop/GD32VW553/V1_MQTT_OK/GD32VW55X_Wifi_BLE_SDK/GD32VW55x_RELEASE_V1.0.2/MSDK/wpa_supplicant/src/tls\tlsv1_record.c **** 		}
 231:C:/Users/stapi/OneDrive/Desktop/GD32VW553/V1_MQTT_OK/GD32VW55X_Wifi_BLE_SDK/GD32VW55x_RELEASE_V1.0.2/MSDK/wpa_supplicant/src/tls\tlsv1_record.c **** 		wpa_hexdump(MSG_MSGDUMP, "TLSv1: Record Layer - Write HMAC",
 232:C:/Users/stapi/OneDrive/Desktop/GD32VW553/V1_MQTT_OK/GD32VW55X_Wifi_BLE_SDK/GD32VW55x_RELEASE_V1.0.2/MSDK/wpa_supplicant/src/tls\tlsv1_record.c **** 			    pos, clen);
 233:C:/Users/stapi/OneDrive/Desktop/GD32VW553/V1_MQTT_OK/GD32VW55X_Wifi_BLE_SDK/GD32VW55x_RELEASE_V1.0.2/MSDK/wpa_supplicant/src/tls\tlsv1_record.c **** 		pos += clen;
 234:C:/Users/stapi/OneDrive/Desktop/GD32VW553/V1_MQTT_OK/GD32VW55X_Wifi_BLE_SDK/GD32VW55x_RELEASE_V1.0.2/MSDK/wpa_supplicant/src/tls\tlsv1_record.c **** 		if (rl->iv_size) {
 235:C:/Users/stapi/OneDrive/Desktop/GD32VW553/V1_MQTT_OK/GD32VW55X_Wifi_BLE_SDK/GD32VW55x_RELEASE_V1.0.2/MSDK/wpa_supplicant/src/tls\tlsv1_record.c **** 			size_t len = pos - cpayload;
 236:C:/Users/stapi/OneDrive/Desktop/GD32VW553/V1_MQTT_OK/GD32VW55X_Wifi_BLE_SDK/GD32VW55x_RELEASE_V1.0.2/MSDK/wpa_supplicant/src/tls\tlsv1_record.c **** 			size_t pad;
 237:C:/Users/stapi/OneDrive/Desktop/GD32VW553/V1_MQTT_OK/GD32VW55X_Wifi_BLE_SDK/GD32VW55x_RELEASE_V1.0.2/MSDK/wpa_supplicant/src/tls\tlsv1_record.c **** 			pad = (len + 1) % rl->iv_size;
 238:C:/Users/stapi/OneDrive/Desktop/GD32VW553/V1_MQTT_OK/GD32VW55X_Wifi_BLE_SDK/GD32VW55x_RELEASE_V1.0.2/MSDK/wpa_supplicant/src/tls\tlsv1_record.c **** 			if (pad)
 239:C:/Users/stapi/OneDrive/Desktop/GD32VW553/V1_MQTT_OK/GD32VW55X_Wifi_BLE_SDK/GD32VW55x_RELEASE_V1.0.2/MSDK/wpa_supplicant/src/tls\tlsv1_record.c **** 				pad = rl->iv_size - pad;
 240:C:/Users/stapi/OneDrive/Desktop/GD32VW553/V1_MQTT_OK/GD32VW55X_Wifi_BLE_SDK/GD32VW55x_RELEASE_V1.0.2/MSDK/wpa_supplicant/src/tls\tlsv1_record.c **** 			if (pos + pad + 1 > buf + buf_size) {
 241:C:/Users/stapi/OneDrive/Desktop/GD32VW553/V1_MQTT_OK/GD32VW55X_Wifi_BLE_SDK/GD32VW55x_RELEASE_V1.0.2/MSDK/wpa_supplicant/src/tls\tlsv1_record.c **** 				wpa_printf(MSG_DEBUG, "TLSv1: No room for "
 242:C:/Users/stapi/OneDrive/Desktop/GD32VW553/V1_MQTT_OK/GD32VW55X_Wifi_BLE_SDK/GD32VW55x_RELEASE_V1.0.2/MSDK/wpa_supplicant/src/tls\tlsv1_record.c **** 					   "block cipher padding");
 243:C:/Users/stapi/OneDrive/Desktop/GD32VW553/V1_MQTT_OK/GD32VW55X_Wifi_BLE_SDK/GD32VW55x_RELEASE_V1.0.2/MSDK/wpa_supplicant/src/tls\tlsv1_record.c **** 				return -1;
 395              		.loc 1 243 5 is_stmt 1
 396              		.loc 1 243 12 is_stmt 0
 397 0016 7D55     		li	a0,-1
 398              	.L31:
 399              	.LBE14:
 244:C:/Users/stapi/OneDrive/Desktop/GD32VW553/V1_MQTT_OK/GD32VW55X_Wifi_BLE_SDK/GD32VW55x_RELEASE_V1.0.2/MSDK/wpa_supplicant/src/tls\tlsv1_record.c **** 			}
 245:C:/Users/stapi/OneDrive/Desktop/GD32VW553/V1_MQTT_OK/GD32VW55X_Wifi_BLE_SDK/GD32VW55x_RELEASE_V1.0.2/MSDK/wpa_supplicant/src/tls\tlsv1_record.c **** 			os_memset(pos, pad, pad + 1);
 246:C:/Users/stapi/OneDrive/Desktop/GD32VW553/V1_MQTT_OK/GD32VW55X_Wifi_BLE_SDK/GD32VW55x_RELEASE_V1.0.2/MSDK/wpa_supplicant/src/tls\tlsv1_record.c **** 			pos += pad + 1;
 247:C:/Users/stapi/OneDrive/Desktop/GD32VW553/V1_MQTT_OK/GD32VW55X_Wifi_BLE_SDK/GD32VW55x_RELEASE_V1.0.2/MSDK/wpa_supplicant/src/tls\tlsv1_record.c **** 		}
 248:C:/Users/stapi/OneDrive/Desktop/GD32VW553/V1_MQTT_OK/GD32VW55X_Wifi_BLE_SDK/GD32VW55x_RELEASE_V1.0.2/MSDK/wpa_supplicant/src/tls\tlsv1_record.c **** 
 249:C:/Users/stapi/OneDrive/Desktop/GD32VW553/V1_MQTT_OK/GD32VW55X_Wifi_BLE_SDK/GD32VW55x_RELEASE_V1.0.2/MSDK/wpa_supplicant/src/tls\tlsv1_record.c **** 		if (crypto_cipher_encrypt(rl->write_cbc, cpayload,
 250:C:/Users/stapi/OneDrive/Desktop/GD32VW553/V1_MQTT_OK/GD32VW55X_Wifi_BLE_SDK/GD32VW55x_RELEASE_V1.0.2/MSDK/wpa_supplicant/src/tls\tlsv1_record.c **** 					  cpayload, pos - cpayload) < 0)
 251:C:/Users/stapi/OneDrive/Desktop/GD32VW553/V1_MQTT_OK/GD32VW55X_Wifi_BLE_SDK/GD32VW55x_RELEASE_V1.0.2/MSDK/wpa_supplicant/src/tls\tlsv1_record.c **** 			return -1;
 252:C:/Users/stapi/OneDrive/Desktop/GD32VW553/V1_MQTT_OK/GD32VW55X_Wifi_BLE_SDK/GD32VW55x_RELEASE_V1.0.2/MSDK/wpa_supplicant/src/tls\tlsv1_record.c **** 	}
 253:C:/Users/stapi/OneDrive/Desktop/GD32VW553/V1_MQTT_OK/GD32VW55X_Wifi_BLE_SDK/GD32VW55x_RELEASE_V1.0.2/MSDK/wpa_supplicant/src/tls\tlsv1_record.c **** 
 254:C:/Users/stapi/OneDrive/Desktop/GD32VW553/V1_MQTT_OK/GD32VW55X_Wifi_BLE_SDK/GD32VW55x_RELEASE_V1.0.2/MSDK/wpa_supplicant/src/tls\tlsv1_record.c **** 	WPA_PUT_BE16(length, pos - length - 2);
 255:C:/Users/stapi/OneDrive/Desktop/GD32VW553/V1_MQTT_OK/GD32VW55X_Wifi_BLE_SDK/GD32VW55x_RELEASE_V1.0.2/MSDK/wpa_supplicant/src/tls\tlsv1_record.c **** 	inc_byte_array(rl->write_seq_num, TLS_SEQ_NUM_LEN);
 256:C:/Users/stapi/OneDrive/Desktop/GD32VW553/V1_MQTT_OK/GD32VW55X_Wifi_BLE_SDK/GD32VW55x_RELEASE_V1.0.2/MSDK/wpa_supplicant/src/tls\tlsv1_record.c **** 
 257:C:/Users/stapi/OneDrive/Desktop/GD32VW553/V1_MQTT_OK/GD32VW55X_Wifi_BLE_SDK/GD32VW55x_RELEASE_V1.0.2/MSDK/wpa_supplicant/src/tls\tlsv1_record.c **** 	*out_len = pos - buf;
 258:C:/Users/stapi/OneDrive/Desktop/GD32VW553/V1_MQTT_OK/GD32VW55X_Wifi_BLE_SDK/GD32VW55x_RELEASE_V1.0.2/MSDK/wpa_supplicant/src/tls\tlsv1_record.c **** 
 259:C:/Users/stapi/OneDrive/Desktop/GD32VW553/V1_MQTT_OK/GD32VW55X_Wifi_BLE_SDK/GD32VW55x_RELEASE_V1.0.2/MSDK/wpa_supplicant/src/tls\tlsv1_record.c **** 	return 0;
 260:C:/Users/stapi/OneDrive/Desktop/GD32VW553/V1_MQTT_OK/GD32VW55X_Wifi_BLE_SDK/GD32VW55x_RELEASE_V1.0.2/MSDK/wpa_supplicant/src/tls\tlsv1_record.c **** }
 400              		.loc 1 260 1
 401 0018 4101     		addi	sp,sp,16
 402              		.cfi_remember_state
 403              		.cfi_def_cfa_offset 0
 404 001a 17030000 		tail	__riscv_restore_10
 404      67000300 
 405              		.cfi_restore 25
 406              		.cfi_restore 24
 407              		.cfi_restore 23
 408              		.cfi_restore 22
 409              		.cfi_restore 21
 410              		.cfi_restore 20
 411              		.cfi_restore 19
 412              		.cfi_restore 18
 413              		.cfi_restore 9
 414              		.cfi_restore 8
 415              		.cfi_restore 1
 416              		.cfi_def_cfa_offset -48
 417              	.LVL28:
 418              	.L32:
 419              		.cfi_restore_state
 165:C:/Users/stapi/OneDrive/Desktop/GD32VW553/V1_MQTT_OK/GD32VW55X_Wifi_BLE_SDK/GD32VW55x_RELEASE_V1.0.2/MSDK/wpa_supplicant/src/tls\tlsv1_record.c **** 	/* ProtocolVersion version */
 420              		.loc 1 165 9
 421 0022 2300B600 		sb	a1,0(a2)
 422 0026 3E8C     		mv	s8,a5
 167:C:/Users/stapi/OneDrive/Desktop/GD32VW553/V1_MQTT_OK/GD32VW55X_Wifi_BLE_SDK/GD32VW55x_RELEASE_V1.0.2/MSDK/wpa_supplicant/src/tls\tlsv1_record.c **** 	pos += 2;
 423              		.loc 1 167 2
 424 0028 83570500 		lhu	a5,0(a0)
 425              	.LVL29:
 426 002c BA8C     		mv	s9,a4
 427              	.LBB15:
 428              	.LBB16:
 429              		.file 2 "..\\..\\..\\..\\wpa_supplicant\\src\\utils/common.h"
   1:..\..\..\..\wpa_supplicant\src\utils/common.h **** /*
   2:..\..\..\..\wpa_supplicant\src\utils/common.h ****  * wpa_supplicant/hostapd / common helper functions, etc.
   3:..\..\..\..\wpa_supplicant\src\utils/common.h ****  * Copyright (c) 2002-2007, Jouni Malinen <j@w1.fi>
   4:..\..\..\..\wpa_supplicant\src\utils/common.h ****  *
   5:..\..\..\..\wpa_supplicant\src\utils/common.h ****  * This software may be distributed under the terms of the BSD license.
   6:..\..\..\..\wpa_supplicant\src\utils/common.h ****  * See README for more details.
   7:..\..\..\..\wpa_supplicant\src\utils/common.h ****  */
   8:..\..\..\..\wpa_supplicant\src\utils/common.h **** 
   9:..\..\..\..\wpa_supplicant\src\utils/common.h **** #ifndef COMMON_H
  10:..\..\..\..\wpa_supplicant\src\utils/common.h **** #define COMMON_H
  11:..\..\..\..\wpa_supplicant\src\utils/common.h **** 
  12:..\..\..\..\wpa_supplicant\src\utils/common.h **** #include "os.h"
  13:..\..\..\..\wpa_supplicant\src\utils/common.h **** 
  14:..\..\..\..\wpa_supplicant\src\utils/common.h **** #if defined(__linux__) || defined(__GLIBC__)
  15:..\..\..\..\wpa_supplicant\src\utils/common.h **** #include <endian.h>
  16:..\..\..\..\wpa_supplicant\src\utils/common.h **** #include <byteswap.h>
  17:..\..\..\..\wpa_supplicant\src\utils/common.h **** #endif /* __linux__ */
  18:..\..\..\..\wpa_supplicant\src\utils/common.h **** 
  19:..\..\..\..\wpa_supplicant\src\utils/common.h **** #if defined(__FreeBSD__) || defined(__NetBSD__) || defined(__DragonFly__) || \
  20:..\..\..\..\wpa_supplicant\src\utils/common.h ****     defined(__OpenBSD__)
  21:..\..\..\..\wpa_supplicant\src\utils/common.h **** #include <sys/types.h>
  22:..\..\..\..\wpa_supplicant\src\utils/common.h **** #include <sys/endian.h>
  23:..\..\..\..\wpa_supplicant\src\utils/common.h **** #define __BYTE_ORDER	_BYTE_ORDER
  24:..\..\..\..\wpa_supplicant\src\utils/common.h **** #define	__LITTLE_ENDIAN	_LITTLE_ENDIAN
  25:..\..\..\..\wpa_supplicant\src\utils/common.h **** #define	__BIG_ENDIAN	_BIG_ENDIAN
  26:..\..\..\..\wpa_supplicant\src\utils/common.h **** #ifdef __OpenBSD__
  27:..\..\..\..\wpa_supplicant\src\utils/common.h **** #define bswap_16 swap16
  28:..\..\..\..\wpa_supplicant\src\utils/common.h **** #define bswap_32 swap32
  29:..\..\..\..\wpa_supplicant\src\utils/common.h **** #define bswap_64 swap64
  30:..\..\..\..\wpa_supplicant\src\utils/common.h **** #else /* __OpenBSD__ */
  31:..\..\..\..\wpa_supplicant\src\utils/common.h **** #define bswap_16 bswap16
  32:..\..\..\..\wpa_supplicant\src\utils/common.h **** #define bswap_32 bswap32
  33:..\..\..\..\wpa_supplicant\src\utils/common.h **** #define bswap_64 bswap64
  34:..\..\..\..\wpa_supplicant\src\utils/common.h **** #endif /* __OpenBSD__ */
  35:..\..\..\..\wpa_supplicant\src\utils/common.h **** #endif /* defined(__FreeBSD__) || defined(__NetBSD__) ||
  36:..\..\..\..\wpa_supplicant\src\utils/common.h **** 	* defined(__DragonFly__) || defined(__OpenBSD__) */
  37:..\..\..\..\wpa_supplicant\src\utils/common.h **** 
  38:..\..\..\..\wpa_supplicant\src\utils/common.h **** #ifdef __APPLE__
  39:..\..\..\..\wpa_supplicant\src\utils/common.h **** #include <sys/types.h>
  40:..\..\..\..\wpa_supplicant\src\utils/common.h **** #include <machine/endian.h>
  41:..\..\..\..\wpa_supplicant\src\utils/common.h **** #define __BYTE_ORDER	_BYTE_ORDER
  42:..\..\..\..\wpa_supplicant\src\utils/common.h **** #define __LITTLE_ENDIAN	_LITTLE_ENDIAN
  43:..\..\..\..\wpa_supplicant\src\utils/common.h **** #define __BIG_ENDIAN	_BIG_ENDIAN
  44:..\..\..\..\wpa_supplicant\src\utils/common.h **** static inline unsigned short bswap_16(unsigned short v)
  45:..\..\..\..\wpa_supplicant\src\utils/common.h **** {
  46:..\..\..\..\wpa_supplicant\src\utils/common.h **** 	return ((v & 0xff) << 8) | (v >> 8);
  47:..\..\..\..\wpa_supplicant\src\utils/common.h **** }
  48:..\..\..\..\wpa_supplicant\src\utils/common.h **** 
  49:..\..\..\..\wpa_supplicant\src\utils/common.h **** static inline unsigned int bswap_32(unsigned int v)
  50:..\..\..\..\wpa_supplicant\src\utils/common.h **** {
  51:..\..\..\..\wpa_supplicant\src\utils/common.h **** 	return ((v & 0xff) << 24) | ((v & 0xff00) << 8) |
  52:..\..\..\..\wpa_supplicant\src\utils/common.h **** 		((v & 0xff0000) >> 8) | (v >> 24);
  53:..\..\..\..\wpa_supplicant\src\utils/common.h **** }
  54:..\..\..\..\wpa_supplicant\src\utils/common.h **** #endif /* __APPLE__ */
  55:..\..\..\..\wpa_supplicant\src\utils/common.h **** 
  56:..\..\..\..\wpa_supplicant\src\utils/common.h **** #ifdef CONFIG_GDWIFI
  57:..\..\..\..\wpa_supplicant\src\utils/common.h **** // #include <sys/types.h>
  58:..\..\..\..\wpa_supplicant\src\utils/common.h **** // #include <machine/endian.h>
  59:..\..\..\..\wpa_supplicant\src\utils/common.h **** #define __BYTE_ORDER	BYTE_ORDER
  60:..\..\..\..\wpa_supplicant\src\utils/common.h **** #define __LITTLE_ENDIAN	LITTLE_ENDIAN
  61:..\..\..\..\wpa_supplicant\src\utils/common.h **** #define __BIG_ENDIAN	BIG_ENDIAN
  62:..\..\..\..\wpa_supplicant\src\utils/common.h **** #define ETHER_ADDR_LEN	6
  63:..\..\..\..\wpa_supplicant\src\utils/common.h **** #define ETH_P_802_3	0x0001		/* Dummy type for 802.3 frames  */
  64:..\..\..\..\wpa_supplicant\src\utils/common.h **** 
  65:..\..\..\..\wpa_supplicant\src\utils/common.h **** static inline unsigned short bswap_16(unsigned short v)
  66:..\..\..\..\wpa_supplicant\src\utils/common.h **** {
  67:..\..\..\..\wpa_supplicant\src\utils/common.h **** 	return ((v & 0xff) << 8) | (v >> 8);
  68:..\..\..\..\wpa_supplicant\src\utils/common.h **** }
  69:..\..\..\..\wpa_supplicant\src\utils/common.h **** 
  70:..\..\..\..\wpa_supplicant\src\utils/common.h **** static inline unsigned int bswap_32(unsigned int v)
  71:..\..\..\..\wpa_supplicant\src\utils/common.h **** {
  72:..\..\..\..\wpa_supplicant\src\utils/common.h **** 	return ((v & 0xff) << 24) | ((v & 0xff00) << 8) |
  73:..\..\..\..\wpa_supplicant\src\utils/common.h **** 		((v & 0xff0000) >> 8) | (v >> 24);
  74:..\..\..\..\wpa_supplicant\src\utils/common.h **** }
  75:..\..\..\..\wpa_supplicant\src\utils/common.h **** 
  76:..\..\..\..\wpa_supplicant\src\utils/common.h **** struct ether_header
  77:..\..\..\..\wpa_supplicant\src\utils/common.h **** {
  78:..\..\..\..\wpa_supplicant\src\utils/common.h **** 	uint8_t  ether_dhost[ETHER_ADDR_LEN];
  79:..\..\..\..\wpa_supplicant\src\utils/common.h **** 	uint8_t  ether_shost[ETHER_ADDR_LEN];
  80:..\..\..\..\wpa_supplicant\src\utils/common.h **** 	uint16_t ether_type;
  81:..\..\..\..\wpa_supplicant\src\utils/common.h **** } __PACKED;
  82:..\..\..\..\wpa_supplicant\src\utils/common.h **** #endif /* CONFIG_GDWIFI */
  83:..\..\..\..\wpa_supplicant\src\utils/common.h **** #ifdef __rtems__
  84:..\..\..\..\wpa_supplicant\src\utils/common.h **** #include <rtems/endian.h>
  85:..\..\..\..\wpa_supplicant\src\utils/common.h **** #define __BYTE_ORDER BYTE_ORDER
  86:..\..\..\..\wpa_supplicant\src\utils/common.h **** #define __LITTLE_ENDIAN LITTLE_ENDIAN
  87:..\..\..\..\wpa_supplicant\src\utils/common.h **** #define __BIG_ENDIAN BIG_ENDIAN
  88:..\..\..\..\wpa_supplicant\src\utils/common.h **** #define bswap_16 CPU_swap_u16
  89:..\..\..\..\wpa_supplicant\src\utils/common.h **** #define bswap_32 CPU_swap_u32
  90:..\..\..\..\wpa_supplicant\src\utils/common.h **** #endif /* __rtems__ */
  91:..\..\..\..\wpa_supplicant\src\utils/common.h **** 
  92:..\..\..\..\wpa_supplicant\src\utils/common.h **** #ifdef CONFIG_NATIVE_WINDOWS
  93:..\..\..\..\wpa_supplicant\src\utils/common.h **** #include <winsock.h>
  94:..\..\..\..\wpa_supplicant\src\utils/common.h **** 
  95:..\..\..\..\wpa_supplicant\src\utils/common.h **** typedef int socklen_t;
  96:..\..\..\..\wpa_supplicant\src\utils/common.h **** 
  97:..\..\..\..\wpa_supplicant\src\utils/common.h **** #ifndef MSG_DONTWAIT
  98:..\..\..\..\wpa_supplicant\src\utils/common.h **** #define MSG_DONTWAIT 0 /* not supported */
  99:..\..\..\..\wpa_supplicant\src\utils/common.h **** #endif
 100:..\..\..\..\wpa_supplicant\src\utils/common.h **** 
 101:..\..\..\..\wpa_supplicant\src\utils/common.h **** #endif /* CONFIG_NATIVE_WINDOWS */
 102:..\..\..\..\wpa_supplicant\src\utils/common.h **** 
 103:..\..\..\..\wpa_supplicant\src\utils/common.h **** #ifdef _MSC_VER
 104:..\..\..\..\wpa_supplicant\src\utils/common.h **** #define inline __inline
 105:..\..\..\..\wpa_supplicant\src\utils/common.h **** 
 106:..\..\..\..\wpa_supplicant\src\utils/common.h **** #undef vsnprintf
 107:..\..\..\..\wpa_supplicant\src\utils/common.h **** #define vsnprintf _vsnprintf
 108:..\..\..\..\wpa_supplicant\src\utils/common.h **** #undef close
 109:..\..\..\..\wpa_supplicant\src\utils/common.h **** #define close closesocket
 110:..\..\..\..\wpa_supplicant\src\utils/common.h **** #endif /* _MSC_VER */
 111:..\..\..\..\wpa_supplicant\src\utils/common.h **** 
 112:..\..\..\..\wpa_supplicant\src\utils/common.h **** 
 113:..\..\..\..\wpa_supplicant\src\utils/common.h **** /* Define platform specific integer types */
 114:..\..\..\..\wpa_supplicant\src\utils/common.h **** 
 115:..\..\..\..\wpa_supplicant\src\utils/common.h **** #ifdef _MSC_VER
 116:..\..\..\..\wpa_supplicant\src\utils/common.h **** typedef UINT64 u64;
 117:..\..\..\..\wpa_supplicant\src\utils/common.h **** typedef UINT32 u32;
 118:..\..\..\..\wpa_supplicant\src\utils/common.h **** typedef UINT16 u16;
 119:..\..\..\..\wpa_supplicant\src\utils/common.h **** typedef UINT8 u8;
 120:..\..\..\..\wpa_supplicant\src\utils/common.h **** typedef INT64 s64;
 121:..\..\..\..\wpa_supplicant\src\utils/common.h **** typedef INT32 s32;
 122:..\..\..\..\wpa_supplicant\src\utils/common.h **** typedef INT16 s16;
 123:..\..\..\..\wpa_supplicant\src\utils/common.h **** typedef INT8 s8;
 124:..\..\..\..\wpa_supplicant\src\utils/common.h **** #define WPA_TYPES_DEFINED
 125:..\..\..\..\wpa_supplicant\src\utils/common.h **** #endif /* _MSC_VER */
 126:..\..\..\..\wpa_supplicant\src\utils/common.h **** 
 127:..\..\..\..\wpa_supplicant\src\utils/common.h **** #ifdef __vxworks
 128:..\..\..\..\wpa_supplicant\src\utils/common.h **** typedef unsigned long long u64;
 129:..\..\..\..\wpa_supplicant\src\utils/common.h **** typedef UINT32 u32;
 130:..\..\..\..\wpa_supplicant\src\utils/common.h **** typedef UINT16 u16;
 131:..\..\..\..\wpa_supplicant\src\utils/common.h **** typedef UINT8 u8;
 132:..\..\..\..\wpa_supplicant\src\utils/common.h **** typedef long long s64;
 133:..\..\..\..\wpa_supplicant\src\utils/common.h **** typedef INT32 s32;
 134:..\..\..\..\wpa_supplicant\src\utils/common.h **** typedef INT16 s16;
 135:..\..\..\..\wpa_supplicant\src\utils/common.h **** typedef INT8 s8;
 136:..\..\..\..\wpa_supplicant\src\utils/common.h **** #define WPA_TYPES_DEFINED
 137:..\..\..\..\wpa_supplicant\src\utils/common.h **** #endif /* __vxworks */
 138:..\..\..\..\wpa_supplicant\src\utils/common.h **** 
 139:..\..\..\..\wpa_supplicant\src\utils/common.h **** #ifndef WPA_TYPES_DEFINED
 140:..\..\..\..\wpa_supplicant\src\utils/common.h **** #ifdef CONFIG_USE_INTTYPES_H
 141:..\..\..\..\wpa_supplicant\src\utils/common.h **** #include <inttypes.h>
 142:..\..\..\..\wpa_supplicant\src\utils/common.h **** #else
 143:..\..\..\..\wpa_supplicant\src\utils/common.h **** #include <stdint.h>
 144:..\..\..\..\wpa_supplicant\src\utils/common.h **** #endif
 145:..\..\..\..\wpa_supplicant\src\utils/common.h **** typedef uint64_t u64;
 146:..\..\..\..\wpa_supplicant\src\utils/common.h **** typedef uint32_t u32;
 147:..\..\..\..\wpa_supplicant\src\utils/common.h **** typedef uint16_t u16;
 148:..\..\..\..\wpa_supplicant\src\utils/common.h **** typedef uint8_t u8;
 149:..\..\..\..\wpa_supplicant\src\utils/common.h **** typedef int64_t s64;
 150:..\..\..\..\wpa_supplicant\src\utils/common.h **** typedef int32_t s32;
 151:..\..\..\..\wpa_supplicant\src\utils/common.h **** typedef int16_t s16;
 152:..\..\..\..\wpa_supplicant\src\utils/common.h **** typedef int8_t s8;
 153:..\..\..\..\wpa_supplicant\src\utils/common.h **** #define WPA_TYPES_DEFINED
 154:..\..\..\..\wpa_supplicant\src\utils/common.h **** #endif /* !WPA_TYPES_DEFINED */
 155:..\..\..\..\wpa_supplicant\src\utils/common.h **** 
 156:..\..\..\..\wpa_supplicant\src\utils/common.h **** 
 157:..\..\..\..\wpa_supplicant\src\utils/common.h **** /* Define platform specific byte swapping macros */
 158:..\..\..\..\wpa_supplicant\src\utils/common.h **** 
 159:..\..\..\..\wpa_supplicant\src\utils/common.h **** #if defined(__CYGWIN__) || defined(CONFIG_NATIVE_WINDOWS)
 160:..\..\..\..\wpa_supplicant\src\utils/common.h **** 
 161:..\..\..\..\wpa_supplicant\src\utils/common.h **** static inline unsigned short wpa_swap_16(unsigned short v)
 162:..\..\..\..\wpa_supplicant\src\utils/common.h **** {
 163:..\..\..\..\wpa_supplicant\src\utils/common.h **** 	return ((v & 0xff) << 8) | (v >> 8);
 164:..\..\..\..\wpa_supplicant\src\utils/common.h **** }
 165:..\..\..\..\wpa_supplicant\src\utils/common.h **** 
 166:..\..\..\..\wpa_supplicant\src\utils/common.h **** static inline unsigned int wpa_swap_32(unsigned int v)
 167:..\..\..\..\wpa_supplicant\src\utils/common.h **** {
 168:..\..\..\..\wpa_supplicant\src\utils/common.h **** 	return ((v & 0xff) << 24) | ((v & 0xff00) << 8) |
 169:..\..\..\..\wpa_supplicant\src\utils/common.h **** 		((v & 0xff0000) >> 8) | (v >> 24);
 170:..\..\..\..\wpa_supplicant\src\utils/common.h **** }
 171:..\..\..\..\wpa_supplicant\src\utils/common.h **** 
 172:..\..\..\..\wpa_supplicant\src\utils/common.h **** #define le_to_host16(n) (n)
 173:..\..\..\..\wpa_supplicant\src\utils/common.h **** #define host_to_le16(n) (n)
 174:..\..\..\..\wpa_supplicant\src\utils/common.h **** #define be_to_host16(n) wpa_swap_16(n)
 175:..\..\..\..\wpa_supplicant\src\utils/common.h **** #define host_to_be16(n) wpa_swap_16(n)
 176:..\..\..\..\wpa_supplicant\src\utils/common.h **** #define le_to_host32(n) (n)
 177:..\..\..\..\wpa_supplicant\src\utils/common.h **** #define host_to_le32(n) (n)
 178:..\..\..\..\wpa_supplicant\src\utils/common.h **** #define be_to_host32(n) wpa_swap_32(n)
 179:..\..\..\..\wpa_supplicant\src\utils/common.h **** #define host_to_be32(n) wpa_swap_32(n)
 180:..\..\..\..\wpa_supplicant\src\utils/common.h **** #define host_to_le64(n) (n)
 181:..\..\..\..\wpa_supplicant\src\utils/common.h **** 
 182:..\..\..\..\wpa_supplicant\src\utils/common.h **** #define WPA_BYTE_SWAP_DEFINED
 183:..\..\..\..\wpa_supplicant\src\utils/common.h **** 
 184:..\..\..\..\wpa_supplicant\src\utils/common.h **** #endif /* __CYGWIN__ || CONFIG_NATIVE_WINDOWS */
 185:..\..\..\..\wpa_supplicant\src\utils/common.h **** 
 186:..\..\..\..\wpa_supplicant\src\utils/common.h **** 
 187:..\..\..\..\wpa_supplicant\src\utils/common.h **** #ifndef WPA_BYTE_SWAP_DEFINED
 188:..\..\..\..\wpa_supplicant\src\utils/common.h **** 
 189:..\..\..\..\wpa_supplicant\src\utils/common.h **** #ifndef __BYTE_ORDER
 190:..\..\..\..\wpa_supplicant\src\utils/common.h **** #ifndef __LITTLE_ENDIAN
 191:..\..\..\..\wpa_supplicant\src\utils/common.h **** #ifndef __BIG_ENDIAN
 192:..\..\..\..\wpa_supplicant\src\utils/common.h **** #define __LITTLE_ENDIAN 1234
 193:..\..\..\..\wpa_supplicant\src\utils/common.h **** #define __BIG_ENDIAN 4321
 194:..\..\..\..\wpa_supplicant\src\utils/common.h **** #if defined(sparc)
 195:..\..\..\..\wpa_supplicant\src\utils/common.h **** #define __BYTE_ORDER __BIG_ENDIAN
 196:..\..\..\..\wpa_supplicant\src\utils/common.h **** #endif
 197:..\..\..\..\wpa_supplicant\src\utils/common.h **** #endif /* __BIG_ENDIAN */
 198:..\..\..\..\wpa_supplicant\src\utils/common.h **** #endif /* __LITTLE_ENDIAN */
 199:..\..\..\..\wpa_supplicant\src\utils/common.h **** #endif /* __BYTE_ORDER */
 200:..\..\..\..\wpa_supplicant\src\utils/common.h **** 
 201:..\..\..\..\wpa_supplicant\src\utils/common.h **** #if __BYTE_ORDER == __LITTLE_ENDIAN
 202:..\..\..\..\wpa_supplicant\src\utils/common.h **** #define le_to_host16(n) ((__force u16) (le16) (n))
 203:..\..\..\..\wpa_supplicant\src\utils/common.h **** #define host_to_le16(n) ((__force le16) (u16) (n))
 204:..\..\..\..\wpa_supplicant\src\utils/common.h **** #define be_to_host16(n) bswap_16((__force u16) (be16) (n))
 205:..\..\..\..\wpa_supplicant\src\utils/common.h **** #define host_to_be16(n) ((__force be16) bswap_16((n)))
 206:..\..\..\..\wpa_supplicant\src\utils/common.h **** #define le_to_host32(n) ((__force u32) (le32) (n))
 207:..\..\..\..\wpa_supplicant\src\utils/common.h **** #define host_to_le32(n) ((__force le32) (u32) (n))
 208:..\..\..\..\wpa_supplicant\src\utils/common.h **** #define be_to_host32(n) bswap_32((__force u32) (be32) (n))
 209:..\..\..\..\wpa_supplicant\src\utils/common.h **** #define host_to_be32(n) ((__force be32) bswap_32((n)))
 210:..\..\..\..\wpa_supplicant\src\utils/common.h **** #define le_to_host64(n) ((__force u64) (le64) (n))
 211:..\..\..\..\wpa_supplicant\src\utils/common.h **** #define host_to_le64(n) ((__force le64) (u64) (n))
 212:..\..\..\..\wpa_supplicant\src\utils/common.h **** #define be_to_host64(n) bswap_64((__force u64) (be64) (n))
 213:..\..\..\..\wpa_supplicant\src\utils/common.h **** #define host_to_be64(n) ((__force be64) bswap_64((n)))
 214:..\..\..\..\wpa_supplicant\src\utils/common.h **** #elif __BYTE_ORDER == __BIG_ENDIAN
 215:..\..\..\..\wpa_supplicant\src\utils/common.h **** #define le_to_host16(n) bswap_16(n)
 216:..\..\..\..\wpa_supplicant\src\utils/common.h **** #define host_to_le16(n) bswap_16(n)
 217:..\..\..\..\wpa_supplicant\src\utils/common.h **** #define be_to_host16(n) (n)
 218:..\..\..\..\wpa_supplicant\src\utils/common.h **** #define host_to_be16(n) (n)
 219:..\..\..\..\wpa_supplicant\src\utils/common.h **** #define le_to_host32(n) bswap_32(n)
 220:..\..\..\..\wpa_supplicant\src\utils/common.h **** #define host_to_le32(n) bswap_32(n)
 221:..\..\..\..\wpa_supplicant\src\utils/common.h **** #define be_to_host32(n) (n)
 222:..\..\..\..\wpa_supplicant\src\utils/common.h **** #define host_to_be32(n) (n)
 223:..\..\..\..\wpa_supplicant\src\utils/common.h **** #define le_to_host64(n) bswap_64(n)
 224:..\..\..\..\wpa_supplicant\src\utils/common.h **** #define host_to_le64(n) bswap_64(n)
 225:..\..\..\..\wpa_supplicant\src\utils/common.h **** #define be_to_host64(n) (n)
 226:..\..\..\..\wpa_supplicant\src\utils/common.h **** #define host_to_be64(n) (n)
 227:..\..\..\..\wpa_supplicant\src\utils/common.h **** #ifndef WORDS_BIGENDIAN
 228:..\..\..\..\wpa_supplicant\src\utils/common.h **** #define WORDS_BIGENDIAN
 229:..\..\..\..\wpa_supplicant\src\utils/common.h **** #endif
 230:..\..\..\..\wpa_supplicant\src\utils/common.h **** #else
 231:..\..\..\..\wpa_supplicant\src\utils/common.h **** #error Could not determine CPU byte order
 232:..\..\..\..\wpa_supplicant\src\utils/common.h **** #endif
 233:..\..\..\..\wpa_supplicant\src\utils/common.h **** 
 234:..\..\..\..\wpa_supplicant\src\utils/common.h **** #define WPA_BYTE_SWAP_DEFINED
 235:..\..\..\..\wpa_supplicant\src\utils/common.h **** #endif /* !WPA_BYTE_SWAP_DEFINED */
 236:..\..\..\..\wpa_supplicant\src\utils/common.h **** 
 237:..\..\..\..\wpa_supplicant\src\utils/common.h **** 
 238:..\..\..\..\wpa_supplicant\src\utils/common.h **** /* Macros for handling unaligned memory accesses */
 239:..\..\..\..\wpa_supplicant\src\utils/common.h **** 
 240:..\..\..\..\wpa_supplicant\src\utils/common.h **** static inline u16 WPA_GET_BE16(const u8 *a)
 241:..\..\..\..\wpa_supplicant\src\utils/common.h **** {
 242:..\..\..\..\wpa_supplicant\src\utils/common.h **** 	return (a[0] << 8) | a[1];
 243:..\..\..\..\wpa_supplicant\src\utils/common.h **** }
 244:..\..\..\..\wpa_supplicant\src\utils/common.h **** 
 245:..\..\..\..\wpa_supplicant\src\utils/common.h **** static inline void WPA_PUT_BE16(u8 *a, u16 val)
 246:..\..\..\..\wpa_supplicant\src\utils/common.h **** {
 247:..\..\..\..\wpa_supplicant\src\utils/common.h **** 	a[0] = val >> 8;
 248:..\..\..\..\wpa_supplicant\src\utils/common.h **** 	a[1] = val & 0xff;
 430              		.loc 2 248 7
 431 002e 23028601 		sb	s8,4(a2)
 432              	.LBE16:
 433              	.LBE15:
 434              	.LBB20:
 435              	.LBB21:
 247:..\..\..\..\wpa_supplicant\src\utils/common.h **** 	a[1] = val & 0xff;
 436              		.loc 2 247 7
 437 0032 13D78700 		srli	a4,a5,8
 438              	.LVL30:
 439              		.loc 2 248 7
 440 0036 2301F600 		sb	a5,2(a2)
 441              	.LBE21:
 442              	.LBE20:
 443              	.LBB24:
 444              	.LBB17:
 247:..\..\..\..\wpa_supplicant\src\utils/common.h **** 	a[1] = val & 0xff;
 445              		.loc 2 247 7
 446 003a B3470C08 		zext.h	a5,s8
 447 003e A183     		srli	a5,a5,8
 448              	.LBE17:
 449              	.LBE24:
 450              	.LBB25:
 451              	.LBB22:
 452 0040 A300E600 		sb	a4,1(a2)
 453              	.LBE22:
 454              	.LBE25:
 455              	.LBB26:
 456              	.LBB18:
 457 0044 A301F600 		sb	a5,3(a2)
 458              	.LBE18:
 459              	.LBE26:
 176:C:/Users/stapi/OneDrive/Desktop/GD32VW553/V1_MQTT_OK/GD32VW55X_Wifi_BLE_SDK/GD32VW55x_RELEASE_V1.0.2/MSDK/wpa_supplicant/src/tls\tlsv1_record.c **** 	if (explicit_iv) {
 460              		.loc 1 176 15
 461 0048 8357A50C 		lhu	a5,202(a0)
 462 004c 2A84     		mv	s0,a0
 463 004e 3289     		mv	s2,a2
 464 0050 C28A     		mv	s5,a6
 164:C:/Users/stapi/OneDrive/Desktop/GD32VW553/V1_MQTT_OK/GD32VW55X_Wifi_BLE_SDK/GD32VW55x_RELEASE_V1.0.2/MSDK/wpa_supplicant/src/tls\tlsv1_record.c **** 	*pos++ = content_type;
 465              		.loc 1 164 2 is_stmt 1
 466              	.LVL31:
 165:C:/Users/stapi/OneDrive/Desktop/GD32VW553/V1_MQTT_OK/GD32VW55X_Wifi_BLE_SDK/GD32VW55x_RELEASE_V1.0.2/MSDK/wpa_supplicant/src/tls\tlsv1_record.c **** 	/* ProtocolVersion version */
 467              		.loc 1 165 2
 167:C:/Users/stapi/OneDrive/Desktop/GD32VW553/V1_MQTT_OK/GD32VW55X_Wifi_BLE_SDK/GD32VW55x_RELEASE_V1.0.2/MSDK/wpa_supplicant/src/tls\tlsv1_record.c **** 	pos += 2;
 468              		.loc 1 167 2
 469              	.LBB27:
 470              	.LBB23:
 247:..\..\..\..\wpa_supplicant\src\utils/common.h **** 	a[1] = val & 0xff;
 471              		.loc 2 247 2
 472              		.loc 2 248 2
 473              	.LBE23:
 474              	.LBE27:
 168:C:/Users/stapi/OneDrive/Desktop/GD32VW553/V1_MQTT_OK/GD32VW55X_Wifi_BLE_SDK/GD32VW55x_RELEASE_V1.0.2/MSDK/wpa_supplicant/src/tls\tlsv1_record.c **** 	/* uint16 length */
 475              		.loc 1 168 2
 168:C:/Users/stapi/OneDrive/Desktop/GD32VW553/V1_MQTT_OK/GD32VW55X_Wifi_BLE_SDK/GD32VW55x_RELEASE_V1.0.2/MSDK/wpa_supplicant/src/tls\tlsv1_record.c **** 	/* uint16 length */
 476              		.loc 1 168 6 is_stmt 0
 477 0052 130A3600 		addi	s4,a2,3
 478              	.LVL32:
 170:C:/Users/stapi/OneDrive/Desktop/GD32VW553/V1_MQTT_OK/GD32VW55X_Wifi_BLE_SDK/GD32VW55x_RELEASE_V1.0.2/MSDK/wpa_supplicant/src/tls\tlsv1_record.c **** 	WPA_PUT_BE16(length, payload_len);
 479              		.loc 1 170 2 is_stmt 1
 171:C:/Users/stapi/OneDrive/Desktop/GD32VW553/V1_MQTT_OK/GD32VW55X_Wifi_BLE_SDK/GD32VW55x_RELEASE_V1.0.2/MSDK/wpa_supplicant/src/tls\tlsv1_record.c **** 	pos += 2;
 480              		.loc 1 171 2
 481              	.LBB28:
 482              	.LBB19:
 247:..\..\..\..\wpa_supplicant\src\utils/common.h **** 	a[1] = val & 0xff;
 483              		.loc 2 247 2
 484              		.loc 2 248 2
 485              	.LBE19:
 486              	.LBE28:
 172:C:/Users/stapi/OneDrive/Desktop/GD32VW553/V1_MQTT_OK/GD32VW55X_Wifi_BLE_SDK/GD32VW55x_RELEASE_V1.0.2/MSDK/wpa_supplicant/src/tls\tlsv1_record.c **** 
 487              		.loc 1 172 2
 174:C:/Users/stapi/OneDrive/Desktop/GD32VW553/V1_MQTT_OK/GD32VW55X_Wifi_BLE_SDK/GD32VW55x_RELEASE_V1.0.2/MSDK/wpa_supplicant/src/tls\tlsv1_record.c **** 	explicit_iv = rl->write_cipher_suite != TLS_NULL_WITH_NULL_NULL &&
 488              		.loc 1 174 2
 175:C:/Users/stapi/OneDrive/Desktop/GD32VW553/V1_MQTT_OK/GD32VW55X_Wifi_BLE_SDK/GD32VW55x_RELEASE_V1.0.2/MSDK/wpa_supplicant/src/tls\tlsv1_record.c **** 		rl->iv_size && rl->tls_version >= TLS_VERSION_1_1;
 489              		.loc 1 175 2
 176:C:/Users/stapi/OneDrive/Desktop/GD32VW553/V1_MQTT_OK/GD32VW55X_Wifi_BLE_SDK/GD32VW55x_RELEASE_V1.0.2/MSDK/wpa_supplicant/src/tls\tlsv1_record.c **** 	if (explicit_iv) {
 490              		.loc 1 176 15 is_stmt 0
 491 0056 BDCB     		beq	a5,zero,.L45
 492              	.LVL33:
 176:C:/Users/stapi/OneDrive/Desktop/GD32VW553/V1_MQTT_OK/GD32VW55X_Wifi_BLE_SDK/GD32VW55x_RELEASE_V1.0.2/MSDK/wpa_supplicant/src/tls\tlsv1_record.c **** 	if (explicit_iv) {
 493              		.loc 1 176 5 discriminator 1
 494 0058 8325C50A 		lw	a1,172(a0)
 495              	.LVL34:
 175:C:/Users/stapi/OneDrive/Desktop/GD32VW553/V1_MQTT_OK/GD32VW55X_Wifi_BLE_SDK/GD32VW55x_RELEASE_V1.0.2/MSDK/wpa_supplicant/src/tls\tlsv1_record.c **** 		rl->iv_size && rl->tls_version >= TLS_VERSION_1_1;
 496              		.loc 1 175 66 discriminator 1
 497 005c A5C9     		beq	a1,zero,.L45
 176:C:/Users/stapi/OneDrive/Desktop/GD32VW553/V1_MQTT_OK/GD32VW55X_Wifi_BLE_SDK/GD32VW55x_RELEASE_V1.0.2/MSDK/wpa_supplicant/src/tls\tlsv1_record.c **** 	if (explicit_iv) {
 498              		.loc 1 176 15 discriminator 4
 499 005e 03570500 		lhu	a4,0(a0)
 500 0062 93071030 		li	a5,769
 501 0066 63F3E706 		bleu	a4,a5,.L45
 502              	.LVL35:
 177:C:/Users/stapi/OneDrive/Desktop/GD32VW553/V1_MQTT_OK/GD32VW55X_Wifi_BLE_SDK/GD32VW55x_RELEASE_V1.0.2/MSDK/wpa_supplicant/src/tls\tlsv1_record.c **** 		/* opaque IV[Cipherspec.block_length] */
 503              		.loc 1 177 2 is_stmt 1
 179:C:/Users/stapi/OneDrive/Desktop/GD32VW553/V1_MQTT_OK/GD32VW55X_Wifi_BLE_SDK/GD32VW55x_RELEASE_V1.0.2/MSDK/wpa_supplicant/src/tls\tlsv1_record.c **** 			return -1;
 504              		.loc 1 179 3
 179:C:/Users/stapi/OneDrive/Desktop/GD32VW553/V1_MQTT_OK/GD32VW55X_Wifi_BLE_SDK/GD32VW55x_RELEASE_V1.0.2/MSDK/wpa_supplicant/src/tls\tlsv1_record.c **** 			return -1;
 505              		.loc 1 179 11 is_stmt 0
 506 006a B387B900 		add	a5,s3,a1
 179:C:/Users/stapi/OneDrive/Desktop/GD32VW553/V1_MQTT_OK/GD32VW55X_Wifi_BLE_SDK/GD32VW55x_RELEASE_V1.0.2/MSDK/wpa_supplicant/src/tls\tlsv1_record.c **** 			return -1;
 507              		.loc 1 179 6
 508 006e E364FBFA 		bltu	s6,a5,.L57
 187:C:/Users/stapi/OneDrive/Desktop/GD32VW553/V1_MQTT_OK/GD32VW55X_Wifi_BLE_SDK/GD32VW55x_RELEASE_V1.0.2/MSDK/wpa_supplicant/src/tls\tlsv1_record.c **** 			return -1;
 509              		.loc 1 187 3 is_stmt 1
 187:C:/Users/stapi/OneDrive/Desktop/GD32VW553/V1_MQTT_OK/GD32VW55X_Wifi_BLE_SDK/GD32VW55x_RELEASE_V1.0.2/MSDK/wpa_supplicant/src/tls\tlsv1_record.c **** 			return -1;
 510              		.loc 1 187 7 is_stmt 0
 511 0072 4E85     		mv	a0,s3
 512 0074 97000000 		call	os_get_random
 512      E7800000 
 513              	.LVL36:
 187:C:/Users/stapi/OneDrive/Desktop/GD32VW553/V1_MQTT_OK/GD32VW55X_Wifi_BLE_SDK/GD32VW55x_RELEASE_V1.0.2/MSDK/wpa_supplicant/src/tls\tlsv1_record.c **** 			return -1;
 514              		.loc 1 187 6
 515 007c 49FD     		bne	a0,zero,.L57
 189:C:/Users/stapi/OneDrive/Desktop/GD32VW553/V1_MQTT_OK/GD32VW55X_Wifi_BLE_SDK/GD32VW55x_RELEASE_V1.0.2/MSDK/wpa_supplicant/src/tls\tlsv1_record.c **** 	}
 516              		.loc 1 189 3 is_stmt 1
 189:C:/Users/stapi/OneDrive/Desktop/GD32VW553/V1_MQTT_OK/GD32VW55X_Wifi_BLE_SDK/GD32VW55x_RELEASE_V1.0.2/MSDK/wpa_supplicant/src/tls\tlsv1_record.c **** 	}
 517              		.loc 1 189 7 is_stmt 0
 518 007e 0325C40A 		lw	a0,172(s0)
 519 0082 4E95     		add	a0,s3,a0
 520              	.LVL37:
 521              	.L34:
 196:C:/Users/stapi/OneDrive/Desktop/GD32VW553/V1_MQTT_OK/GD32VW55X_Wifi_BLE_SDK/GD32VW55x_RELEASE_V1.0.2/MSDK/wpa_supplicant/src/tls\tlsv1_record.c **** 		return -1;
 522              		.loc 1 196 2 is_stmt 1
 196:C:/Users/stapi/OneDrive/Desktop/GD32VW553/V1_MQTT_OK/GD32VW55X_Wifi_BLE_SDK/GD32VW55x_RELEASE_V1.0.2/MSDK/wpa_supplicant/src/tls\tlsv1_record.c **** 		return -1;
 523              		.loc 1 196 10 is_stmt 0
 524 0084 B3048501 		add	s1,a0,s8
 196:C:/Users/stapi/OneDrive/Desktop/GD32VW553/V1_MQTT_OK/GD32VW55X_Wifi_BLE_SDK/GD32VW55x_RELEASE_V1.0.2/MSDK/wpa_supplicant/src/tls\tlsv1_record.c **** 		return -1;
 525              		.loc 1 196 5
 526 0088 E3679BF8 		bltu	s6,s1,.L57
 198:C:/Users/stapi/OneDrive/Desktop/GD32VW553/V1_MQTT_OK/GD32VW55X_Wifi_BLE_SDK/GD32VW55x_RELEASE_V1.0.2/MSDK/wpa_supplicant/src/tls\tlsv1_record.c **** 	pos += payload_len;
 527              		.loc 1 198 2 is_stmt 1
 528 008c 6286     		mv	a2,s8
 529 008e E685     		mv	a1,s9
 530 0090 97000000 		call	os_memmove
 530      E7800000 
 531              	.LVL38:
 199:C:/Users/stapi/OneDrive/Desktop/GD32VW553/V1_MQTT_OK/GD32VW55X_Wifi_BLE_SDK/GD32VW55x_RELEASE_V1.0.2/MSDK/wpa_supplicant/src/tls\tlsv1_record.c **** 
 532              		.loc 1 199 2
 201:C:/Users/stapi/OneDrive/Desktop/GD32VW553/V1_MQTT_OK/GD32VW55X_Wifi_BLE_SDK/GD32VW55x_RELEASE_V1.0.2/MSDK/wpa_supplicant/src/tls\tlsv1_record.c **** 		/*
 533              		.loc 1 201 2
 201:C:/Users/stapi/OneDrive/Desktop/GD32VW553/V1_MQTT_OK/GD32VW55X_Wifi_BLE_SDK/GD32VW55x_RELEASE_V1.0.2/MSDK/wpa_supplicant/src/tls\tlsv1_record.c **** 		/*
 534              		.loc 1 201 5 is_stmt 0
 535 0098 8357A40C 		lhu	a5,202(s0)
 536 009c 638A0710 		beq	a5,zero,.L36
 207:C:/Users/stapi/OneDrive/Desktop/GD32VW553/V1_MQTT_OK/GD32VW55X_Wifi_BLE_SDK/GD32VW55x_RELEASE_V1.0.2/MSDK/wpa_supplicant/src/tls\tlsv1_record.c **** 					rl->hash_size);
 537              		.loc 1 207 3 is_stmt 1
 207:C:/Users/stapi/OneDrive/Desktop/GD32VW553/V1_MQTT_OK/GD32VW55X_Wifi_BLE_SDK/GD32VW55x_RELEASE_V1.0.2/MSDK/wpa_supplicant/src/tls\tlsv1_record.c **** 					rl->hash_size);
 538              		.loc 1 207 10 is_stmt 0
 539 00a0 0326440A 		lw	a2,164(s0)
 540 00a4 0325040B 		lw	a0,176(s0)
 541 00a8 93052400 		addi	a1,s0,2
 542 00ac 97000000 		call	crypto_hash_init
 542      E7800000 
 543              	.LVL39:
 544 00b4 AA8B     		mv	s7,a0
 545              	.LVL40:
 209:C:/Users/stapi/OneDrive/Desktop/GD32VW553/V1_MQTT_OK/GD32VW55X_Wifi_BLE_SDK/GD32VW55x_RELEASE_V1.0.2/MSDK/wpa_supplicant/src/tls\tlsv1_record.c **** 			wpa_printf(MSG_DEBUG, "TLSv1: Record Layer - Failed "
 546              		.loc 1 209 3 is_stmt 1
 209:C:/Users/stapi/OneDrive/Desktop/GD32VW553/V1_MQTT_OK/GD32VW55X_Wifi_BLE_SDK/GD32VW55x_RELEASE_V1.0.2/MSDK/wpa_supplicant/src/tls\tlsv1_record.c **** 			wpa_printf(MSG_DEBUG, "TLSv1: Record Layer - Failed "
 547              		.loc 1 209 6 is_stmt 0
 548 00b6 09ED     		bne	a0,zero,.L37
 210:C:/Users/stapi/OneDrive/Desktop/GD32VW553/V1_MQTT_OK/GD32VW55X_Wifi_BLE_SDK/GD32VW55x_RELEASE_V1.0.2/MSDK/wpa_supplicant/src/tls\tlsv1_record.c **** 				   "to initialize HMAC");
 549              		.loc 1 210 4 is_stmt 1
 550 00b8 B7050000 		lui	a1,%hi(.LC4)
 551 00bc 93850500 		addi	a1,a1,%lo(.LC4)
 552              	.LVL41:
 553              	.L56:
 554              	.LBB29:
 241:C:/Users/stapi/OneDrive/Desktop/GD32VW553/V1_MQTT_OK/GD32VW55X_Wifi_BLE_SDK/GD32VW55x_RELEASE_V1.0.2/MSDK/wpa_supplicant/src/tls\tlsv1_record.c **** 					   "block cipher padding");
 555              		.loc 1 241 5 is_stmt 0
 556 00c0 0945     		li	a0,2
 557 00c2 97000000 		call	wpa_printf
 557      E7800000 
 558              	.LVL42:
 559 00ca B1B7     		j	.L57
 560              	.LVL43:
 561              	.L45:
 562              	.LBE29:
 172:C:/Users/stapi/OneDrive/Desktop/GD32VW553/V1_MQTT_OK/GD32VW55X_Wifi_BLE_SDK/GD32VW55x_RELEASE_V1.0.2/MSDK/wpa_supplicant/src/tls\tlsv1_record.c **** 
 563              		.loc 1 172 6
 564 00cc 4E85     		mv	a0,s3
 565 00ce 5DBF     		j	.L34
 566              	.LVL44:
 567              	.L37:
 214:C:/Users/stapi/OneDrive/Desktop/GD32VW553/V1_MQTT_OK/GD32VW55X_Wifi_BLE_SDK/GD32VW55x_RELEASE_V1.0.2/MSDK/wpa_supplicant/src/tls\tlsv1_record.c **** 		/* type + version + length + fragment */
 568              		.loc 1 214 3 is_stmt 1
 569 00d0 2146     		li	a2,8
 570 00d2 9305840B 		addi	a1,s0,184
 571 00d6 97000000 		call	crypto_hash_update
 571      E7800000 
 572              	.LVL45:
 216:C:/Users/stapi/OneDrive/Desktop/GD32VW553/V1_MQTT_OK/GD32VW55X_Wifi_BLE_SDK/GD32VW55x_RELEASE_V1.0.2/MSDK/wpa_supplicant/src/tls\tlsv1_record.c **** 		crypto_hash_update(hmac, payload, payload_len);
 573              		.loc 1 216 3
 574 00de 1546     		li	a2,5
 575 00e0 CA85     		mv	a1,s2
 576 00e2 5E85     		mv	a0,s7
 577 00e4 97000000 		call	crypto_hash_update
 577      E7800000 
 578              	.LVL46:
 217:C:/Users/stapi/OneDrive/Desktop/GD32VW553/V1_MQTT_OK/GD32VW55X_Wifi_BLE_SDK/GD32VW55x_RELEASE_V1.0.2/MSDK/wpa_supplicant/src/tls\tlsv1_record.c **** 		clen = buf + buf_size - pos;
 579              		.loc 1 217 3
 580 00ec 6286     		mv	a2,s8
 581 00ee E685     		mv	a1,s9
 582 00f0 5E85     		mv	a0,s7
 583 00f2 97000000 		call	crypto_hash_update
 583      E7800000 
 584              	.LVL47:
 218:C:/Users/stapi/OneDrive/Desktop/GD32VW553/V1_MQTT_OK/GD32VW55X_Wifi_BLE_SDK/GD32VW55x_RELEASE_V1.0.2/MSDK/wpa_supplicant/src/tls\tlsv1_record.c **** 		if (clen < rl->hash_size) {
 585              		.loc 1 218 3
 219:C:/Users/stapi/OneDrive/Desktop/GD32VW553/V1_MQTT_OK/GD32VW55X_Wifi_BLE_SDK/GD32VW55x_RELEASE_V1.0.2/MSDK/wpa_supplicant/src/tls\tlsv1_record.c **** 			wpa_printf(MSG_DEBUG, "TLSv1: Record Layer - Not "
 586              		.loc 1 219 6 is_stmt 0
 587 00fa 0327440A 		lw	a4,164(s0)
 218:C:/Users/stapi/OneDrive/Desktop/GD32VW553/V1_MQTT_OK/GD32VW55X_Wifi_BLE_SDK/GD32VW55x_RELEASE_V1.0.2/MSDK/wpa_supplicant/src/tls\tlsv1_record.c **** 		if (clen < rl->hash_size) {
 588              		.loc 1 218 25
 589 00fe B3079B40 		sub	a5,s6,s1
 218:C:/Users/stapi/OneDrive/Desktop/GD32VW553/V1_MQTT_OK/GD32VW55X_Wifi_BLE_SDK/GD32VW55x_RELEASE_V1.0.2/MSDK/wpa_supplicant/src/tls\tlsv1_record.c **** 		if (clen < rl->hash_size) {
 590              		.loc 1 218 8
 591 0102 3EC6     		sw	a5,12(sp)
 219:C:/Users/stapi/OneDrive/Desktop/GD32VW553/V1_MQTT_OK/GD32VW55X_Wifi_BLE_SDK/GD32VW55x_RELEASE_V1.0.2/MSDK/wpa_supplicant/src/tls\tlsv1_record.c **** 			wpa_printf(MSG_DEBUG, "TLSv1: Record Layer - Not "
 592              		.loc 1 219 3 is_stmt 1
 219:C:/Users/stapi/OneDrive/Desktop/GD32VW553/V1_MQTT_OK/GD32VW55X_Wifi_BLE_SDK/GD32VW55x_RELEASE_V1.0.2/MSDK/wpa_supplicant/src/tls\tlsv1_record.c **** 			wpa_printf(MSG_DEBUG, "TLSv1: Record Layer - Not "
 593              		.loc 1 219 6 is_stmt 0
 594 0104 63F3E702 		bgeu	a5,a4,.L38
 220:C:/Users/stapi/OneDrive/Desktop/GD32VW553/V1_MQTT_OK/GD32VW55X_Wifi_BLE_SDK/GD32VW55x_RELEASE_V1.0.2/MSDK/wpa_supplicant/src/tls\tlsv1_record.c **** 				   "enough room for MAC");
 595              		.loc 1 220 4 is_stmt 1
 596 0108 B7050000 		lui	a1,%hi(.LC5)
 597 010c 93850500 		addi	a1,a1,%lo(.LC5)
 598 0110 0945     		li	a0,2
 599 0112 97000000 		call	wpa_printf
 599      E7800000 
 600              	.LVL48:
 222:C:/Users/stapi/OneDrive/Desktop/GD32VW553/V1_MQTT_OK/GD32VW55X_Wifi_BLE_SDK/GD32VW55x_RELEASE_V1.0.2/MSDK/wpa_supplicant/src/tls\tlsv1_record.c **** 			return -1;
 601              		.loc 1 222 4
 602 011a 0146     		li	a2,0
 603 011c 8145     		li	a1,0
 604 011e 5E85     		mv	a0,s7
 605 0120 97000000 		call	crypto_hash_finish
 605      E7800000 
 606              	.LVL49:
 223:C:/Users/stapi/OneDrive/Desktop/GD32VW553/V1_MQTT_OK/GD32VW55X_Wifi_BLE_SDK/GD32VW55x_RELEASE_V1.0.2/MSDK/wpa_supplicant/src/tls\tlsv1_record.c **** 		}
 607              		.loc 1 223 4
 608 0128 FDB5     		j	.L57
 609              	.L38:
 226:C:/Users/stapi/OneDrive/Desktop/GD32VW553/V1_MQTT_OK/GD32VW55X_Wifi_BLE_SDK/GD32VW55x_RELEASE_V1.0.2/MSDK/wpa_supplicant/src/tls\tlsv1_record.c **** 			wpa_printf(MSG_DEBUG, "TLSv1: Record Layer - Failed "
 610              		.loc 1 226 3
 226:C:/Users/stapi/OneDrive/Desktop/GD32VW553/V1_MQTT_OK/GD32VW55X_Wifi_BLE_SDK/GD32VW55x_RELEASE_V1.0.2/MSDK/wpa_supplicant/src/tls\tlsv1_record.c **** 			wpa_printf(MSG_DEBUG, "TLSv1: Record Layer - Failed "
 611              		.loc 1 226 7 is_stmt 0
 612 012a 7000     		addi	a2,sp,12
 613 012c A685     		mv	a1,s1
 614 012e 5E85     		mv	a0,s7
 615 0130 97000000 		call	crypto_hash_finish
 615      E7800000 
 616              	.LVL50:
 226:C:/Users/stapi/OneDrive/Desktop/GD32VW553/V1_MQTT_OK/GD32VW55X_Wifi_BLE_SDK/GD32VW55x_RELEASE_V1.0.2/MSDK/wpa_supplicant/src/tls\tlsv1_record.c **** 			wpa_printf(MSG_DEBUG, "TLSv1: Record Layer - Failed "
 617              		.loc 1 226 6
 618 0138 63570500 		bge	a0,zero,.L39
 227:C:/Users/stapi/OneDrive/Desktop/GD32VW553/V1_MQTT_OK/GD32VW55X_Wifi_BLE_SDK/GD32VW55x_RELEASE_V1.0.2/MSDK/wpa_supplicant/src/tls\tlsv1_record.c **** 				   "to calculate HMAC");
 619              		.loc 1 227 4 is_stmt 1
 620 013c B7050000 		lui	a1,%hi(.LC6)
 621 0140 93850500 		addi	a1,a1,%lo(.LC6)
 622 0144 B5BF     		j	.L56
 623              	.L39:
 231:C:/Users/stapi/OneDrive/Desktop/GD32VW553/V1_MQTT_OK/GD32VW55X_Wifi_BLE_SDK/GD32VW55x_RELEASE_V1.0.2/MSDK/wpa_supplicant/src/tls\tlsv1_record.c **** 			    pos, clen);
 624              		.loc 1 231 3
 625 0146 B246     		lw	a3,12(sp)
 626 0148 B7050000 		lui	a1,%hi(.LC7)
 627 014c 2686     		mv	a2,s1
 628 014e 93850500 		addi	a1,a1,%lo(.LC7)
 629 0152 0545     		li	a0,1
 630 0154 97000000 		call	wpa_hexdump
 630      E7800000 
 631              	.LVL51:
 233:C:/Users/stapi/OneDrive/Desktop/GD32VW553/V1_MQTT_OK/GD32VW55X_Wifi_BLE_SDK/GD32VW55x_RELEASE_V1.0.2/MSDK/wpa_supplicant/src/tls\tlsv1_record.c **** 		if (rl->iv_size) {
 632              		.loc 1 233 3
 233:C:/Users/stapi/OneDrive/Desktop/GD32VW553/V1_MQTT_OK/GD32VW55X_Wifi_BLE_SDK/GD32VW55x_RELEASE_V1.0.2/MSDK/wpa_supplicant/src/tls\tlsv1_record.c **** 		if (rl->iv_size) {
 633              		.loc 1 233 7 is_stmt 0
 634 015c B247     		lw	a5,12(sp)
 635 015e BE94     		add	s1,s1,a5
 636              	.LVL52:
 234:C:/Users/stapi/OneDrive/Desktop/GD32VW553/V1_MQTT_OK/GD32VW55X_Wifi_BLE_SDK/GD32VW55x_RELEASE_V1.0.2/MSDK/wpa_supplicant/src/tls\tlsv1_record.c **** 			size_t len = pos - cpayload;
 637              		.loc 1 234 3 is_stmt 1
 234:C:/Users/stapi/OneDrive/Desktop/GD32VW553/V1_MQTT_OK/GD32VW55X_Wifi_BLE_SDK/GD32VW55x_RELEASE_V1.0.2/MSDK/wpa_supplicant/src/tls\tlsv1_record.c **** 			size_t len = pos - cpayload;
 638              		.loc 1 234 9 is_stmt 0
 639 0160 8327C40A 		lw	a5,172(s0)
 234:C:/Users/stapi/OneDrive/Desktop/GD32VW553/V1_MQTT_OK/GD32VW55X_Wifi_BLE_SDK/GD32VW55x_RELEASE_V1.0.2/MSDK/wpa_supplicant/src/tls\tlsv1_record.c **** 			size_t len = pos - cpayload;
 640              		.loc 1 234 6
 641 0164 95CB     		beq	a5,zero,.L40
 642              	.LBB30:
 235:C:/Users/stapi/OneDrive/Desktop/GD32VW553/V1_MQTT_OK/GD32VW55X_Wifi_BLE_SDK/GD32VW55x_RELEASE_V1.0.2/MSDK/wpa_supplicant/src/tls\tlsv1_record.c **** 			size_t pad;
 643              		.loc 1 235 4 is_stmt 1
 644              	.LVL53:
 236:C:/Users/stapi/OneDrive/Desktop/GD32VW553/V1_MQTT_OK/GD32VW55X_Wifi_BLE_SDK/GD32VW55x_RELEASE_V1.0.2/MSDK/wpa_supplicant/src/tls\tlsv1_record.c **** 			pad = (len + 1) % rl->iv_size;
 645              		.loc 1 236 4
 237:C:/Users/stapi/OneDrive/Desktop/GD32VW553/V1_MQTT_OK/GD32VW55X_Wifi_BLE_SDK/GD32VW55x_RELEASE_V1.0.2/MSDK/wpa_supplicant/src/tls\tlsv1_record.c **** 			if (pad)
 646              		.loc 1 237 4
 235:C:/Users/stapi/OneDrive/Desktop/GD32VW553/V1_MQTT_OK/GD32VW55X_Wifi_BLE_SDK/GD32VW55x_RELEASE_V1.0.2/MSDK/wpa_supplicant/src/tls\tlsv1_record.c **** 			size_t pad;
 647              		.loc 1 235 21 is_stmt 0
 648 0166 B3853441 		sub	a1,s1,s3
 649              	.LVL54:
 237:C:/Users/stapi/OneDrive/Desktop/GD32VW553/V1_MQTT_OK/GD32VW55X_Wifi_BLE_SDK/GD32VW55x_RELEASE_V1.0.2/MSDK/wpa_supplicant/src/tls\tlsv1_record.c **** 			if (pad)
 650              		.loc 1 237 15
 651 016a 8505     		addi	a1,a1,1
 652              	.LVL55:
 237:C:/Users/stapi/OneDrive/Desktop/GD32VW553/V1_MQTT_OK/GD32VW55X_Wifi_BLE_SDK/GD32VW55x_RELEASE_V1.0.2/MSDK/wpa_supplicant/src/tls\tlsv1_record.c **** 			if (pad)
 653              		.loc 1 237 8
 654 016c B3F5F502 		remu	a1,a1,a5
 655              	.LVL56:
 238:C:/Users/stapi/OneDrive/Desktop/GD32VW553/V1_MQTT_OK/GD32VW55X_Wifi_BLE_SDK/GD32VW55x_RELEASE_V1.0.2/MSDK/wpa_supplicant/src/tls\tlsv1_record.c **** 				pad = rl->iv_size - pad;
 656              		.loc 1 238 4 is_stmt 1
 238:C:/Users/stapi/OneDrive/Desktop/GD32VW553/V1_MQTT_OK/GD32VW55X_Wifi_BLE_SDK/GD32VW55x_RELEASE_V1.0.2/MSDK/wpa_supplicant/src/tls\tlsv1_record.c **** 				pad = rl->iv_size - pad;
 657              		.loc 1 238 7 is_stmt 0
 658 0170 99C1     		beq	a1,zero,.L41
 239:C:/Users/stapi/OneDrive/Desktop/GD32VW553/V1_MQTT_OK/GD32VW55X_Wifi_BLE_SDK/GD32VW55x_RELEASE_V1.0.2/MSDK/wpa_supplicant/src/tls\tlsv1_record.c **** 			if (pos + pad + 1 > buf + buf_size) {
 659              		.loc 1 239 5 is_stmt 1
 239:C:/Users/stapi/OneDrive/Desktop/GD32VW553/V1_MQTT_OK/GD32VW55X_Wifi_BLE_SDK/GD32VW55x_RELEASE_V1.0.2/MSDK/wpa_supplicant/src/tls\tlsv1_record.c **** 			if (pos + pad + 1 > buf + buf_size) {
 660              		.loc 1 239 9 is_stmt 0
 661 0172 B385B740 		sub	a1,a5,a1
 662              	.LVL57:
 663              	.L41:
 240:C:/Users/stapi/OneDrive/Desktop/GD32VW553/V1_MQTT_OK/GD32VW55X_Wifi_BLE_SDK/GD32VW55x_RELEASE_V1.0.2/MSDK/wpa_supplicant/src/tls\tlsv1_record.c **** 				wpa_printf(MSG_DEBUG, "TLSv1: No room for "
 664              		.loc 1 240 4 is_stmt 1
 240:C:/Users/stapi/OneDrive/Desktop/GD32VW553/V1_MQTT_OK/GD32VW55X_Wifi_BLE_SDK/GD32VW55x_RELEASE_V1.0.2/MSDK/wpa_supplicant/src/tls\tlsv1_record.c **** 				wpa_printf(MSG_DEBUG, "TLSv1: No room for "
 665              		.loc 1 240 18 is_stmt 0
 666 0176 13861500 		addi	a2,a1,1
 667 017a B38BC400 		add	s7,s1,a2
 668              	.LVL58:
 240:C:/Users/stapi/OneDrive/Desktop/GD32VW553/V1_MQTT_OK/GD32VW55X_Wifi_BLE_SDK/GD32VW55x_RELEASE_V1.0.2/MSDK/wpa_supplicant/src/tls\tlsv1_record.c **** 				wpa_printf(MSG_DEBUG, "TLSv1: No room for "
 669              		.loc 1 240 7
 670 017e 63777B01 		bgeu	s6,s7,.L42
 241:C:/Users/stapi/OneDrive/Desktop/GD32VW553/V1_MQTT_OK/GD32VW55X_Wifi_BLE_SDK/GD32VW55x_RELEASE_V1.0.2/MSDK/wpa_supplicant/src/tls\tlsv1_record.c **** 					   "block cipher padding");
 671              		.loc 1 241 5 is_stmt 1
 672 0182 B7050000 		lui	a1,%hi(.LC8)
 673              	.LVL59:
 674 0186 93850500 		addi	a1,a1,%lo(.LC8)
 675 018a 1DBF     		j	.L56
 676              	.LVL60:
 677              	.L42:
 245:C:/Users/stapi/OneDrive/Desktop/GD32VW553/V1_MQTT_OK/GD32VW55X_Wifi_BLE_SDK/GD32VW55x_RELEASE_V1.0.2/MSDK/wpa_supplicant/src/tls\tlsv1_record.c **** 			pos += pad + 1;
 678              		.loc 1 245 4
 679 018c 2685     		mv	a0,s1
 680 018e 97000000 		call	os_memset
 680      E7800000 
 681              	.LVL61:
 246:C:/Users/stapi/OneDrive/Desktop/GD32VW553/V1_MQTT_OK/GD32VW55X_Wifi_BLE_SDK/GD32VW55x_RELEASE_V1.0.2/MSDK/wpa_supplicant/src/tls\tlsv1_record.c **** 		}
 682              		.loc 1 246 4
 245:C:/Users/stapi/OneDrive/Desktop/GD32VW553/V1_MQTT_OK/GD32VW55X_Wifi_BLE_SDK/GD32VW55x_RELEASE_V1.0.2/MSDK/wpa_supplicant/src/tls\tlsv1_record.c **** 			pos += pad + 1;
 683              		.loc 1 245 4 is_stmt 0
 684 0196 DE84     		mv	s1,s7
 685              	.LVL62:
 686              	.L40:
 687              	.LBE30:
 249:C:/Users/stapi/OneDrive/Desktop/GD32VW553/V1_MQTT_OK/GD32VW55X_Wifi_BLE_SDK/GD32VW55x_RELEASE_V1.0.2/MSDK/wpa_supplicant/src/tls\tlsv1_record.c **** 					  cpayload, pos - cpayload) < 0)
 688              		.loc 1 249 3 is_stmt 1
 249:C:/Users/stapi/OneDrive/Desktop/GD32VW553/V1_MQTT_OK/GD32VW55X_Wifi_BLE_SDK/GD32VW55x_RELEASE_V1.0.2/MSDK/wpa_supplicant/src/tls\tlsv1_record.c **** 					  cpayload, pos - cpayload) < 0)
 689              		.loc 1 249 7 is_stmt 0
 690 0198 0325040D 		lw	a0,208(s0)
 691 019c B3863441 		sub	a3,s1,s3
 692 01a0 4E86     		mv	a2,s3
 693 01a2 CE85     		mv	a1,s3
 694 01a4 97000000 		call	crypto_cipher_encrypt
 694      E7800000 
 695              	.LVL63:
 249:C:/Users/stapi/OneDrive/Desktop/GD32VW553/V1_MQTT_OK/GD32VW55X_Wifi_BLE_SDK/GD32VW55x_RELEASE_V1.0.2/MSDK/wpa_supplicant/src/tls\tlsv1_record.c **** 					  cpayload, pos - cpayload) < 0)
 696              		.loc 1 249 6
 697 01ac E34505E6 		blt	a0,zero,.L57
 698              	.L36:
 254:C:/Users/stapi/OneDrive/Desktop/GD32VW553/V1_MQTT_OK/GD32VW55X_Wifi_BLE_SDK/GD32VW55x_RELEASE_V1.0.2/MSDK/wpa_supplicant/src/tls\tlsv1_record.c **** 	inc_byte_array(rl->write_seq_num, TLS_SEQ_NUM_LEN);
 699              		.loc 1 254 2 is_stmt 1
 254:C:/Users/stapi/OneDrive/Desktop/GD32VW553/V1_MQTT_OK/GD32VW55X_Wifi_BLE_SDK/GD32VW55x_RELEASE_V1.0.2/MSDK/wpa_supplicant/src/tls\tlsv1_record.c **** 	inc_byte_array(rl->write_seq_num, TLS_SEQ_NUM_LEN);
 700              		.loc 1 254 27 is_stmt 0
 701 01b0 B3874441 		sub	a5,s1,s4
 254:C:/Users/stapi/OneDrive/Desktop/GD32VW553/V1_MQTT_OK/GD32VW55X_Wifi_BLE_SDK/GD32VW55x_RELEASE_V1.0.2/MSDK/wpa_supplicant/src/tls\tlsv1_record.c **** 	inc_byte_array(rl->write_seq_num, TLS_SEQ_NUM_LEN);
 702              		.loc 1 254 2
 703 01b4 F917     		addi	a5,a5,-2
 704 01b6 B3C70708 		zext.h	a5,a5
 705              	.LVL64:
 706              	.LBB31:
 707              	.LBB32:
 247:..\..\..\..\wpa_supplicant\src\utils/common.h **** 	a[1] = val & 0xff;
 708              		.loc 2 247 2 is_stmt 1
 247:..\..\..\..\wpa_supplicant\src\utils/common.h **** 	a[1] = val & 0xff;
 709              		.loc 2 247 7 is_stmt 0
 710 01ba 13D78700 		srli	a4,a5,8
 711              	.LBE32:
 712              	.LBE31:
 255:C:/Users/stapi/OneDrive/Desktop/GD32VW553/V1_MQTT_OK/GD32VW55X_Wifi_BLE_SDK/GD32VW55x_RELEASE_V1.0.2/MSDK/wpa_supplicant/src/tls\tlsv1_record.c **** 
 713              		.loc 1 255 2
 714 01be 1305840B 		addi	a0,s0,184
 715              	.LBB34:
 716              	.LBB33:
 247:..\..\..\..\wpa_supplicant\src\utils/common.h **** 	a[1] = val & 0xff;
 717              		.loc 2 247 7
 718 01c2 A301E900 		sb	a4,3(s2)
 719              		.loc 2 248 2 is_stmt 1
 720              		.loc 2 248 7 is_stmt 0
 721 01c6 2302F900 		sb	a5,4(s2)
 722              	.LVL65:
 723              	.LBE33:
 724              	.LBE34:
 255:C:/Users/stapi/OneDrive/Desktop/GD32VW553/V1_MQTT_OK/GD32VW55X_Wifi_BLE_SDK/GD32VW55x_RELEASE_V1.0.2/MSDK/wpa_supplicant/src/tls\tlsv1_record.c **** 
 725              		.loc 1 255 2 is_stmt 1
 726 01ca A145     		li	a1,8
 727 01cc 97000000 		call	inc_byte_array
 727      E7800000 
 728              	.LVL66:
 257:C:/Users/stapi/OneDrive/Desktop/GD32VW553/V1_MQTT_OK/GD32VW55X_Wifi_BLE_SDK/GD32VW55x_RELEASE_V1.0.2/MSDK/wpa_supplicant/src/tls\tlsv1_record.c **** 
 729              		.loc 1 257 2
 257:C:/Users/stapi/OneDrive/Desktop/GD32VW553/V1_MQTT_OK/GD32VW55X_Wifi_BLE_SDK/GD32VW55x_RELEASE_V1.0.2/MSDK/wpa_supplicant/src/tls\tlsv1_record.c **** 
 730              		.loc 1 257 17 is_stmt 0
 731 01d4 B3842441 		sub	s1,s1,s2
 732              	.LVL67:
 257:C:/Users/stapi/OneDrive/Desktop/GD32VW553/V1_MQTT_OK/GD32VW55X_Wifi_BLE_SDK/GD32VW55x_RELEASE_V1.0.2/MSDK/wpa_supplicant/src/tls\tlsv1_record.c **** 
 733              		.loc 1 257 11
 734 01d8 23A09A00 		sw	s1,0(s5)
 259:C:/Users/stapi/OneDrive/Desktop/GD32VW553/V1_MQTT_OK/GD32VW55X_Wifi_BLE_SDK/GD32VW55x_RELEASE_V1.0.2/MSDK/wpa_supplicant/src/tls\tlsv1_record.c **** }
 735              		.loc 1 259 2 is_stmt 1
 259:C:/Users/stapi/OneDrive/Desktop/GD32VW553/V1_MQTT_OK/GD32VW55X_Wifi_BLE_SDK/GD32VW55x_RELEASE_V1.0.2/MSDK/wpa_supplicant/src/tls\tlsv1_record.c **** }
 736              		.loc 1 259 9 is_stmt 0
 737 01dc 0145     		li	a0,0
 738 01de 2DBD     		j	.L31
 739              		.cfi_endproc
 740              	.LFE74:
 742              		.section	.rodata.tlsv1_record_receive.str1.4,"aMS",@progbits,1
 743              		.align	2
 744              	.LC9:
 745 0000 544C5376 		.string	"TLSv1: Too short record (in_len=%lu) - need more data"
 745      313A2054 
 745      6F6F2073 
 745      686F7274 
 745      20726563 
 746 0036 0000     		.align	2
 747              	.LC10:
 748 0038 544C5376 		.string	"TLSv1: Record Layer - Received"
 748      313A2052 
 748      65636F72 
 748      64204C61 
 748      79657220 
 749 0057 00       		.align	2
 750              	.LC11:
 751 0058 544C5376 		.string	"TLSv1: Received content type %d version %d.%d length %d"
 751      313A2052 
 751      65636569 
 751      76656420 
 751      636F6E74 
 752              		.align	2
 753              	.LC12:
 754 0090 544C5376 		.string	"TLSv1: Unexpected protocol version %u.%u"
 754      313A2055 
 754      6E657870 
 754      65637465 
 754      64207072 
 755 00b9 000000   		.align	2
 756              	.LC13:
 757 00bc 544C5376 		.string	"TLSv1: Record overflow (len=%lu)"
 757      313A2052 
 757      65636F72 
 757      64206F76 
 757      6572666C 
 758 00dd 000000   		.align	2
 759              	.LC14:
 760 00e0 544C5376 		.string	"TLSv1: Not all record data included (rlen=%lu > in_len=%lu)"
 760      313A204E 
 760      6F742061 
 760      6C6C2072 
 760      65636F72 
 761              		.align	2
 762              	.LC15:
 763 011c 544C5376 		.string	"TLSv1: Ignore record with unknown content type 0x%x"
 763      313A2049 
 763      676E6F72 
 763      65207265 
 763      636F7264 
 764              		.align	2
 765              	.LC16:
 766 0150 544C5376 		.string	"TLSv1: Not enough output buffer for processing received record"
 766      313A204E 
 766      6F742065 
 766      6E6F7567 
 766      68206F75 
 767 018f 00       		.align	2
 768              	.LC17:
 769 0190 544C5376 		.string	"TLSv1: Record Layer - Decrypted data"
 769      313A2052 
 769      65636F72 
 769      64204C61 
 769      79657220 
 770 01b5 000000   		.align	2
 771              	.LC18:
 772 01b8 544C5376 		.string	"TLSv1.1: Not enough room for IV"
 772      312E313A 
 772      204E6F74 
 772      20656E6F 
 772      75676820 
 773              		.align	2
 774              	.LC19:
 775 01d8 544C5376 		.string	"TLSv1: Too short record (no pad)"
 775      313A2054 
 775      6F6F2073 
 775      686F7274 
 775      20726563 
 776 01f9 000000   		.align	2
 777              	.LC20:
 778 01fc 544C5376 		.string	"TLSv1: Incorrect pad length (%u, plen=%lu) in received record"
 778      313A2049 
 778      6E636F72 
 778      72656374 
 778      20706164 
 779 023a 0000     		.align	2
 780              	.LC21:
 781 023c 544C5376 		.string	"TLSv1: Invalid pad in received record"
 781      313A2049 
 781      6E76616C 
 781      69642070 
 781      61642069 
 782 0262 0000     		.align	2
 783              	.LC22:
 784 0264 544C5376 		.string	"TLSv1: Record Layer - Decrypted data with IV and padding removed"
 784      313A2052 
 784      65636F72 
 784      64204C61 
 784      79657220 
 785 02a5 000000   		.align	2
 786              	.LC23:
 787 02a8 544C5376 		.string	"TLSv1: Too short record; no hash value"
 787      313A2054 
 787      6F6F2073 
 787      686F7274 
 787      20726563 
 788 02cf 00       		.align	2
 789              	.LC24:
 790 02d0 544C5376 		.string	"TLSv1: Invalid HMAC value in received message (force_mac_error=%d)"
 790      313A2049 
 790      6E76616C 
 790      69642048 
 790      4D414320 
 791              		.section	.text.tlsv1_record_receive,"ax",@progbits
 792              		.align	1
 793              		.globl	tlsv1_record_receive
 795              	tlsv1_record_receive:
 796              	.LFB75:
 261:C:/Users/stapi/OneDrive/Desktop/GD32VW553/V1_MQTT_OK/GD32VW55X_Wifi_BLE_SDK/GD32VW55x_RELEASE_V1.0.2/MSDK/wpa_supplicant/src/tls\tlsv1_record.c **** 
 262:C:/Users/stapi/OneDrive/Desktop/GD32VW553/V1_MQTT_OK/GD32VW55X_Wifi_BLE_SDK/GD32VW55x_RELEASE_V1.0.2/MSDK/wpa_supplicant/src/tls\tlsv1_record.c **** 
 263:C:/Users/stapi/OneDrive/Desktop/GD32VW553/V1_MQTT_OK/GD32VW55X_Wifi_BLE_SDK/GD32VW55x_RELEASE_V1.0.2/MSDK/wpa_supplicant/src/tls\tlsv1_record.c **** /**
 264:C:/Users/stapi/OneDrive/Desktop/GD32VW553/V1_MQTT_OK/GD32VW55X_Wifi_BLE_SDK/GD32VW55x_RELEASE_V1.0.2/MSDK/wpa_supplicant/src/tls\tlsv1_record.c ****  * tlsv1_record_receive - TLS record layer: Process a received message
 265:C:/Users/stapi/OneDrive/Desktop/GD32VW553/V1_MQTT_OK/GD32VW55X_Wifi_BLE_SDK/GD32VW55x_RELEASE_V1.0.2/MSDK/wpa_supplicant/src/tls\tlsv1_record.c ****  * @rl: Pointer to TLS record layer data
 266:C:/Users/stapi/OneDrive/Desktop/GD32VW553/V1_MQTT_OK/GD32VW55X_Wifi_BLE_SDK/GD32VW55x_RELEASE_V1.0.2/MSDK/wpa_supplicant/src/tls\tlsv1_record.c ****  * @in_data: Received data
 267:C:/Users/stapi/OneDrive/Desktop/GD32VW553/V1_MQTT_OK/GD32VW55X_Wifi_BLE_SDK/GD32VW55x_RELEASE_V1.0.2/MSDK/wpa_supplicant/src/tls\tlsv1_record.c ****  * @in_len: Length of the received data
 268:C:/Users/stapi/OneDrive/Desktop/GD32VW553/V1_MQTT_OK/GD32VW55X_Wifi_BLE_SDK/GD32VW55x_RELEASE_V1.0.2/MSDK/wpa_supplicant/src/tls\tlsv1_record.c ****  * @out_data: Buffer for output data (must be at least as long as in_data)
 269:C:/Users/stapi/OneDrive/Desktop/GD32VW553/V1_MQTT_OK/GD32VW55X_Wifi_BLE_SDK/GD32VW55x_RELEASE_V1.0.2/MSDK/wpa_supplicant/src/tls\tlsv1_record.c ****  * @out_len: Set to maximum out_data length by caller; used to return the
 270:C:/Users/stapi/OneDrive/Desktop/GD32VW553/V1_MQTT_OK/GD32VW55X_Wifi_BLE_SDK/GD32VW55x_RELEASE_V1.0.2/MSDK/wpa_supplicant/src/tls\tlsv1_record.c ****  * length of the used data
 271:C:/Users/stapi/OneDrive/Desktop/GD32VW553/V1_MQTT_OK/GD32VW55X_Wifi_BLE_SDK/GD32VW55x_RELEASE_V1.0.2/MSDK/wpa_supplicant/src/tls\tlsv1_record.c ****  * @alert: Buffer for returning an alert value on failure
 272:C:/Users/stapi/OneDrive/Desktop/GD32VW553/V1_MQTT_OK/GD32VW55X_Wifi_BLE_SDK/GD32VW55x_RELEASE_V1.0.2/MSDK/wpa_supplicant/src/tls\tlsv1_record.c ****  * Returns: Number of bytes used from in_data on success, 0 if record was not
 273:C:/Users/stapi/OneDrive/Desktop/GD32VW553/V1_MQTT_OK/GD32VW55X_Wifi_BLE_SDK/GD32VW55x_RELEASE_V1.0.2/MSDK/wpa_supplicant/src/tls\tlsv1_record.c ****  *	complete (more data needed), or -1 on failure
 274:C:/Users/stapi/OneDrive/Desktop/GD32VW553/V1_MQTT_OK/GD32VW55X_Wifi_BLE_SDK/GD32VW55x_RELEASE_V1.0.2/MSDK/wpa_supplicant/src/tls\tlsv1_record.c ****  *
 275:C:/Users/stapi/OneDrive/Desktop/GD32VW553/V1_MQTT_OK/GD32VW55X_Wifi_BLE_SDK/GD32VW55x_RELEASE_V1.0.2/MSDK/wpa_supplicant/src/tls\tlsv1_record.c ****  * This function decrypts the received message, verifies HMAC and TLS record
 276:C:/Users/stapi/OneDrive/Desktop/GD32VW553/V1_MQTT_OK/GD32VW55X_Wifi_BLE_SDK/GD32VW55x_RELEASE_V1.0.2/MSDK/wpa_supplicant/src/tls\tlsv1_record.c ****  * layer header.
 277:C:/Users/stapi/OneDrive/Desktop/GD32VW553/V1_MQTT_OK/GD32VW55X_Wifi_BLE_SDK/GD32VW55x_RELEASE_V1.0.2/MSDK/wpa_supplicant/src/tls\tlsv1_record.c ****  */
 278:C:/Users/stapi/OneDrive/Desktop/GD32VW553/V1_MQTT_OK/GD32VW55X_Wifi_BLE_SDK/GD32VW55x_RELEASE_V1.0.2/MSDK/wpa_supplicant/src/tls\tlsv1_record.c **** int tlsv1_record_receive(struct tlsv1_record_layer *rl,
 279:C:/Users/stapi/OneDrive/Desktop/GD32VW553/V1_MQTT_OK/GD32VW55X_Wifi_BLE_SDK/GD32VW55x_RELEASE_V1.0.2/MSDK/wpa_supplicant/src/tls\tlsv1_record.c **** 			 const u8 *in_data, size_t in_len,
 280:C:/Users/stapi/OneDrive/Desktop/GD32VW553/V1_MQTT_OK/GD32VW55X_Wifi_BLE_SDK/GD32VW55x_RELEASE_V1.0.2/MSDK/wpa_supplicant/src/tls\tlsv1_record.c **** 			 u8 *out_data, size_t *out_len, u8 *alert)
 281:C:/Users/stapi/OneDrive/Desktop/GD32VW553/V1_MQTT_OK/GD32VW55X_Wifi_BLE_SDK/GD32VW55x_RELEASE_V1.0.2/MSDK/wpa_supplicant/src/tls\tlsv1_record.c **** {
 797              		.loc 1 281 1 is_stmt 1
 798              		.cfi_startproc
 799              	.LVL68:
 800 0000 17030000 		call	t0,__riscv_save_10
 800      E7020300 
 801              		.cfi_offset 25, -44
 802              		.cfi_offset 24, -40
 803              		.cfi_offset 23, -36
 804              		.cfi_offset 22, -32
 805              		.cfi_offset 21, -28
 806              		.cfi_offset 20, -24
 807              		.cfi_offset 19, -20
 808              		.cfi_offset 18, -16
 809              		.cfi_offset 9, -12
 810              		.cfi_offset 8, -8
 811              		.cfi_offset 1, -4
 812              		.cfi_def_cfa_offset 48
 282:C:/Users/stapi/OneDrive/Desktop/GD32VW553/V1_MQTT_OK/GD32VW55X_Wifi_BLE_SDK/GD32VW55x_RELEASE_V1.0.2/MSDK/wpa_supplicant/src/tls\tlsv1_record.c **** 	size_t i, rlen, hlen;
 813              		.loc 1 282 2
 283:C:/Users/stapi/OneDrive/Desktop/GD32VW553/V1_MQTT_OK/GD32VW55X_Wifi_BLE_SDK/GD32VW55x_RELEASE_V1.0.2/MSDK/wpa_supplicant/src/tls\tlsv1_record.c **** 	u8 padlen;
 814              		.loc 1 283 2
 284:C:/Users/stapi/OneDrive/Desktop/GD32VW553/V1_MQTT_OK/GD32VW55X_Wifi_BLE_SDK/GD32VW55x_RELEASE_V1.0.2/MSDK/wpa_supplicant/src/tls\tlsv1_record.c **** 	struct crypto_hash *hmac;
 815              		.loc 1 284 2
 285:C:/Users/stapi/OneDrive/Desktop/GD32VW553/V1_MQTT_OK/GD32VW55X_Wifi_BLE_SDK/GD32VW55x_RELEASE_V1.0.2/MSDK/wpa_supplicant/src/tls\tlsv1_record.c **** 	u8 len[2], hash[100];
 816              		.loc 1 285 2
 286:C:/Users/stapi/OneDrive/Desktop/GD32VW553/V1_MQTT_OK/GD32VW55X_Wifi_BLE_SDK/GD32VW55x_RELEASE_V1.0.2/MSDK/wpa_supplicant/src/tls\tlsv1_record.c **** 	int force_mac_error = 0;
 817              		.loc 1 286 2
 818              	.LVL69:
 287:C:/Users/stapi/OneDrive/Desktop/GD32VW553/V1_MQTT_OK/GD32VW55X_Wifi_BLE_SDK/GD32VW55x_RELEASE_V1.0.2/MSDK/wpa_supplicant/src/tls\tlsv1_record.c **** 	u8 ct;
 819              		.loc 1 287 2
 288:C:/Users/stapi/OneDrive/Desktop/GD32VW553/V1_MQTT_OK/GD32VW55X_Wifi_BLE_SDK/GD32VW55x_RELEASE_V1.0.2/MSDK/wpa_supplicant/src/tls\tlsv1_record.c **** 
 289:C:/Users/stapi/OneDrive/Desktop/GD32VW553/V1_MQTT_OK/GD32VW55X_Wifi_BLE_SDK/GD32VW55x_RELEASE_V1.0.2/MSDK/wpa_supplicant/src/tls\tlsv1_record.c **** 	if (in_len < TLS_RECORD_HEADER_LEN) {
 820              		.loc 1 289 2
 281:C:/Users/stapi/OneDrive/Desktop/GD32VW553/V1_MQTT_OK/GD32VW55X_Wifi_BLE_SDK/GD32VW55x_RELEASE_V1.0.2/MSDK/wpa_supplicant/src/tls\tlsv1_record.c **** 	size_t i, rlen, hlen;
 821              		.loc 1 281 1 is_stmt 0
 822 0008 3E8A     		mv	s4,a5
 823              		.loc 1 289 5
 824 000a 9147     		li	a5,4
 825              	.LVL70:
 281:C:/Users/stapi/OneDrive/Desktop/GD32VW553/V1_MQTT_OK/GD32VW55X_Wifi_BLE_SDK/GD32VW55x_RELEASE_V1.0.2/MSDK/wpa_supplicant/src/tls\tlsv1_record.c **** 	size_t i, rlen, hlen;
 826              		.loc 1 281 1
 827 000c 5971     		addi	sp,sp,-112
 828              		.cfi_def_cfa_offset 160
 281:C:/Users/stapi/OneDrive/Desktop/GD32VW553/V1_MQTT_OK/GD32VW55X_Wifi_BLE_SDK/GD32VW55x_RELEASE_V1.0.2/MSDK/wpa_supplicant/src/tls\tlsv1_record.c **** 	size_t i, rlen, hlen;
 829              		.loc 1 281 1
 830 000e AE8A     		mv	s5,a1
 831 0010 328B     		mv	s6,a2
 832              		.loc 1 289 5
 833 0012 63ECC702 		bgtu	a2,a5,.L59
 290:C:/Users/stapi/OneDrive/Desktop/GD32VW553/V1_MQTT_OK/GD32VW55X_Wifi_BLE_SDK/GD32VW55x_RELEASE_V1.0.2/MSDK/wpa_supplicant/src/tls\tlsv1_record.c **** 		wpa_printf(MSG_DEBUG, "TLSv1: Too short record (in_len=%lu) - "
 834              		.loc 1 290 3 is_stmt 1
 835 0016 B7050000 		lui	a1,%hi(.LC9)
 836              	.LVL71:
 837 001a 93850500 		addi	a1,a1,%lo(.LC9)
 838 001e 0945     		li	a0,2
 839              	.LVL72:
 840 0020 97000000 		call	wpa_printf
 840      E7800000 
 841              	.LVL73:
 291:C:/Users/stapi/OneDrive/Desktop/GD32VW553/V1_MQTT_OK/GD32VW55X_Wifi_BLE_SDK/GD32VW55x_RELEASE_V1.0.2/MSDK/wpa_supplicant/src/tls\tlsv1_record.c **** 			   "need more data",
 292:C:/Users/stapi/OneDrive/Desktop/GD32VW553/V1_MQTT_OK/GD32VW55X_Wifi_BLE_SDK/GD32VW55x_RELEASE_V1.0.2/MSDK/wpa_supplicant/src/tls\tlsv1_record.c **** 			   (unsigned long) in_len);
 293:C:/Users/stapi/OneDrive/Desktop/GD32VW553/V1_MQTT_OK/GD32VW55X_Wifi_BLE_SDK/GD32VW55x_RELEASE_V1.0.2/MSDK/wpa_supplicant/src/tls\tlsv1_record.c **** 		wpa_hexdump(MSG_MSGDUMP, "TLSv1: Record Layer - Received",
 842              		.loc 1 293 3
 843 0028 B7050000 		lui	a1,%hi(.LC10)
 844 002c DA86     		mv	a3,s6
 845 002e 5686     		mv	a2,s5
 846 0030 93850500 		addi	a1,a1,%lo(.LC10)
 847 0034 0545     		li	a0,1
 848 0036 97000000 		call	wpa_hexdump
 848      E7800000 
 849              	.LVL74:
 294:C:/Users/stapi/OneDrive/Desktop/GD32VW553/V1_MQTT_OK/GD32VW55X_Wifi_BLE_SDK/GD32VW55x_RELEASE_V1.0.2/MSDK/wpa_supplicant/src/tls\tlsv1_record.c **** 			    in_data, in_len);
 295:C:/Users/stapi/OneDrive/Desktop/GD32VW553/V1_MQTT_OK/GD32VW55X_Wifi_BLE_SDK/GD32VW55x_RELEASE_V1.0.2/MSDK/wpa_supplicant/src/tls\tlsv1_record.c **** 		return 0;
 850              		.loc 1 295 3
 851              	.L90:
 296:C:/Users/stapi/OneDrive/Desktop/GD32VW553/V1_MQTT_OK/GD32VW55X_Wifi_BLE_SDK/GD32VW55x_RELEASE_V1.0.2/MSDK/wpa_supplicant/src/tls\tlsv1_record.c **** 	}
 297:C:/Users/stapi/OneDrive/Desktop/GD32VW553/V1_MQTT_OK/GD32VW55X_Wifi_BLE_SDK/GD32VW55x_RELEASE_V1.0.2/MSDK/wpa_supplicant/src/tls\tlsv1_record.c **** 
 298:C:/Users/stapi/OneDrive/Desktop/GD32VW553/V1_MQTT_OK/GD32VW55X_Wifi_BLE_SDK/GD32VW55x_RELEASE_V1.0.2/MSDK/wpa_supplicant/src/tls\tlsv1_record.c **** 	ct = in_data[0];
 299:C:/Users/stapi/OneDrive/Desktop/GD32VW553/V1_MQTT_OK/GD32VW55X_Wifi_BLE_SDK/GD32VW55x_RELEASE_V1.0.2/MSDK/wpa_supplicant/src/tls\tlsv1_record.c **** 	rlen = WPA_GET_BE16(in_data + 3);
 300:C:/Users/stapi/OneDrive/Desktop/GD32VW553/V1_MQTT_OK/GD32VW55X_Wifi_BLE_SDK/GD32VW55x_RELEASE_V1.0.2/MSDK/wpa_supplicant/src/tls\tlsv1_record.c **** 	wpa_printf(MSG_DEBUG, "TLSv1: Received content type %d version %d.%d "
 301:C:/Users/stapi/OneDrive/Desktop/GD32VW553/V1_MQTT_OK/GD32VW55X_Wifi_BLE_SDK/GD32VW55x_RELEASE_V1.0.2/MSDK/wpa_supplicant/src/tls\tlsv1_record.c **** 		   "length %d", ct, in_data[1], in_data[2], (int) rlen);
 302:C:/Users/stapi/OneDrive/Desktop/GD32VW553/V1_MQTT_OK/GD32VW55X_Wifi_BLE_SDK/GD32VW55x_RELEASE_V1.0.2/MSDK/wpa_supplicant/src/tls\tlsv1_record.c **** 
 303:C:/Users/stapi/OneDrive/Desktop/GD32VW553/V1_MQTT_OK/GD32VW55X_Wifi_BLE_SDK/GD32VW55x_RELEASE_V1.0.2/MSDK/wpa_supplicant/src/tls\tlsv1_record.c **** 	/*
 304:C:/Users/stapi/OneDrive/Desktop/GD32VW553/V1_MQTT_OK/GD32VW55X_Wifi_BLE_SDK/GD32VW55x_RELEASE_V1.0.2/MSDK/wpa_supplicant/src/tls\tlsv1_record.c **** 	 * TLS v1.0 and v1.1 RFCs were not exactly clear on the use of the
 305:C:/Users/stapi/OneDrive/Desktop/GD32VW553/V1_MQTT_OK/GD32VW55X_Wifi_BLE_SDK/GD32VW55x_RELEASE_V1.0.2/MSDK/wpa_supplicant/src/tls\tlsv1_record.c **** 	 * protocol version in record layer. As such, accept any {03,xx} value
 306:C:/Users/stapi/OneDrive/Desktop/GD32VW553/V1_MQTT_OK/GD32VW55X_Wifi_BLE_SDK/GD32VW55x_RELEASE_V1.0.2/MSDK/wpa_supplicant/src/tls\tlsv1_record.c **** 	 * to remain compatible with existing implementations.
 307:C:/Users/stapi/OneDrive/Desktop/GD32VW553/V1_MQTT_OK/GD32VW55X_Wifi_BLE_SDK/GD32VW55x_RELEASE_V1.0.2/MSDK/wpa_supplicant/src/tls\tlsv1_record.c **** 	 */
 308:C:/Users/stapi/OneDrive/Desktop/GD32VW553/V1_MQTT_OK/GD32VW55X_Wifi_BLE_SDK/GD32VW55x_RELEASE_V1.0.2/MSDK/wpa_supplicant/src/tls\tlsv1_record.c **** 	if (in_data[1] != 0x03) {
 309:C:/Users/stapi/OneDrive/Desktop/GD32VW553/V1_MQTT_OK/GD32VW55X_Wifi_BLE_SDK/GD32VW55x_RELEASE_V1.0.2/MSDK/wpa_supplicant/src/tls\tlsv1_record.c **** 		wpa_printf(MSG_DEBUG, "TLSv1: Unexpected protocol version "
 310:C:/Users/stapi/OneDrive/Desktop/GD32VW553/V1_MQTT_OK/GD32VW55X_Wifi_BLE_SDK/GD32VW55x_RELEASE_V1.0.2/MSDK/wpa_supplicant/src/tls\tlsv1_record.c **** 			   "%u.%u", in_data[1], in_data[2]);
 311:C:/Users/stapi/OneDrive/Desktop/GD32VW553/V1_MQTT_OK/GD32VW55X_Wifi_BLE_SDK/GD32VW55x_RELEASE_V1.0.2/MSDK/wpa_supplicant/src/tls\tlsv1_record.c **** 		*alert = TLS_ALERT_PROTOCOL_VERSION;
 312:C:/Users/stapi/OneDrive/Desktop/GD32VW553/V1_MQTT_OK/GD32VW55X_Wifi_BLE_SDK/GD32VW55x_RELEASE_V1.0.2/MSDK/wpa_supplicant/src/tls\tlsv1_record.c **** 		return -1;
 313:C:/Users/stapi/OneDrive/Desktop/GD32VW553/V1_MQTT_OK/GD32VW55X_Wifi_BLE_SDK/GD32VW55x_RELEASE_V1.0.2/MSDK/wpa_supplicant/src/tls\tlsv1_record.c **** 	}
 314:C:/Users/stapi/OneDrive/Desktop/GD32VW553/V1_MQTT_OK/GD32VW55X_Wifi_BLE_SDK/GD32VW55x_RELEASE_V1.0.2/MSDK/wpa_supplicant/src/tls\tlsv1_record.c **** 
 315:C:/Users/stapi/OneDrive/Desktop/GD32VW553/V1_MQTT_OK/GD32VW55X_Wifi_BLE_SDK/GD32VW55x_RELEASE_V1.0.2/MSDK/wpa_supplicant/src/tls\tlsv1_record.c **** 	/* TLSCiphertext must not be more than 2^14+2048 bytes */
 316:C:/Users/stapi/OneDrive/Desktop/GD32VW553/V1_MQTT_OK/GD32VW55X_Wifi_BLE_SDK/GD32VW55x_RELEASE_V1.0.2/MSDK/wpa_supplicant/src/tls\tlsv1_record.c **** 	if (TLS_RECORD_HEADER_LEN + rlen > 18432) {
 317:C:/Users/stapi/OneDrive/Desktop/GD32VW553/V1_MQTT_OK/GD32VW55X_Wifi_BLE_SDK/GD32VW55x_RELEASE_V1.0.2/MSDK/wpa_supplicant/src/tls\tlsv1_record.c **** 		wpa_printf(MSG_DEBUG, "TLSv1: Record overflow (len=%lu)",
 318:C:/Users/stapi/OneDrive/Desktop/GD32VW553/V1_MQTT_OK/GD32VW55X_Wifi_BLE_SDK/GD32VW55x_RELEASE_V1.0.2/MSDK/wpa_supplicant/src/tls\tlsv1_record.c **** 			   (unsigned long) (TLS_RECORD_HEADER_LEN + rlen));
 319:C:/Users/stapi/OneDrive/Desktop/GD32VW553/V1_MQTT_OK/GD32VW55X_Wifi_BLE_SDK/GD32VW55x_RELEASE_V1.0.2/MSDK/wpa_supplicant/src/tls\tlsv1_record.c **** 		*alert = TLS_ALERT_RECORD_OVERFLOW;
 320:C:/Users/stapi/OneDrive/Desktop/GD32VW553/V1_MQTT_OK/GD32VW55X_Wifi_BLE_SDK/GD32VW55x_RELEASE_V1.0.2/MSDK/wpa_supplicant/src/tls\tlsv1_record.c **** 		return -1;
 321:C:/Users/stapi/OneDrive/Desktop/GD32VW553/V1_MQTT_OK/GD32VW55X_Wifi_BLE_SDK/GD32VW55x_RELEASE_V1.0.2/MSDK/wpa_supplicant/src/tls\tlsv1_record.c **** 	}
 322:C:/Users/stapi/OneDrive/Desktop/GD32VW553/V1_MQTT_OK/GD32VW55X_Wifi_BLE_SDK/GD32VW55x_RELEASE_V1.0.2/MSDK/wpa_supplicant/src/tls\tlsv1_record.c **** 
 323:C:/Users/stapi/OneDrive/Desktop/GD32VW553/V1_MQTT_OK/GD32VW55X_Wifi_BLE_SDK/GD32VW55x_RELEASE_V1.0.2/MSDK/wpa_supplicant/src/tls\tlsv1_record.c **** 	in_data += TLS_RECORD_HEADER_LEN;
 324:C:/Users/stapi/OneDrive/Desktop/GD32VW553/V1_MQTT_OK/GD32VW55X_Wifi_BLE_SDK/GD32VW55x_RELEASE_V1.0.2/MSDK/wpa_supplicant/src/tls\tlsv1_record.c **** 	in_len -= TLS_RECORD_HEADER_LEN;
 325:C:/Users/stapi/OneDrive/Desktop/GD32VW553/V1_MQTT_OK/GD32VW55X_Wifi_BLE_SDK/GD32VW55x_RELEASE_V1.0.2/MSDK/wpa_supplicant/src/tls\tlsv1_record.c **** 
 326:C:/Users/stapi/OneDrive/Desktop/GD32VW553/V1_MQTT_OK/GD32VW55X_Wifi_BLE_SDK/GD32VW55x_RELEASE_V1.0.2/MSDK/wpa_supplicant/src/tls\tlsv1_record.c **** 	if (rlen > in_len) {
 327:C:/Users/stapi/OneDrive/Desktop/GD32VW553/V1_MQTT_OK/GD32VW55X_Wifi_BLE_SDK/GD32VW55x_RELEASE_V1.0.2/MSDK/wpa_supplicant/src/tls\tlsv1_record.c **** 		wpa_printf(MSG_DEBUG, "TLSv1: Not all record data included "
 328:C:/Users/stapi/OneDrive/Desktop/GD32VW553/V1_MQTT_OK/GD32VW55X_Wifi_BLE_SDK/GD32VW55x_RELEASE_V1.0.2/MSDK/wpa_supplicant/src/tls\tlsv1_record.c **** 			   "(rlen=%lu > in_len=%lu)",
 329:C:/Users/stapi/OneDrive/Desktop/GD32VW553/V1_MQTT_OK/GD32VW55X_Wifi_BLE_SDK/GD32VW55x_RELEASE_V1.0.2/MSDK/wpa_supplicant/src/tls\tlsv1_record.c **** 			   (unsigned long) rlen, (unsigned long) in_len);
 330:C:/Users/stapi/OneDrive/Desktop/GD32VW553/V1_MQTT_OK/GD32VW55X_Wifi_BLE_SDK/GD32VW55x_RELEASE_V1.0.2/MSDK/wpa_supplicant/src/tls\tlsv1_record.c **** 		return 0;
 852              		.loc 1 330 3
 853              		.loc 1 330 10 is_stmt 0
 854 003e 0145     		li	a0,0
 855              	.LVL75:
 856              	.L58:
 331:C:/Users/stapi/OneDrive/Desktop/GD32VW553/V1_MQTT_OK/GD32VW55X_Wifi_BLE_SDK/GD32VW55x_RELEASE_V1.0.2/MSDK/wpa_supplicant/src/tls\tlsv1_record.c **** 	}
 332:C:/Users/stapi/OneDrive/Desktop/GD32VW553/V1_MQTT_OK/GD32VW55X_Wifi_BLE_SDK/GD32VW55x_RELEASE_V1.0.2/MSDK/wpa_supplicant/src/tls\tlsv1_record.c **** 
 333:C:/Users/stapi/OneDrive/Desktop/GD32VW553/V1_MQTT_OK/GD32VW55X_Wifi_BLE_SDK/GD32VW55x_RELEASE_V1.0.2/MSDK/wpa_supplicant/src/tls\tlsv1_record.c **** 	wpa_hexdump(MSG_MSGDUMP, "TLSv1: Record Layer - Received",
 334:C:/Users/stapi/OneDrive/Desktop/GD32VW553/V1_MQTT_OK/GD32VW55X_Wifi_BLE_SDK/GD32VW55x_RELEASE_V1.0.2/MSDK/wpa_supplicant/src/tls\tlsv1_record.c **** 		    in_data, rlen);
 335:C:/Users/stapi/OneDrive/Desktop/GD32VW553/V1_MQTT_OK/GD32VW55X_Wifi_BLE_SDK/GD32VW55x_RELEASE_V1.0.2/MSDK/wpa_supplicant/src/tls\tlsv1_record.c **** 
 336:C:/Users/stapi/OneDrive/Desktop/GD32VW553/V1_MQTT_OK/GD32VW55X_Wifi_BLE_SDK/GD32VW55x_RELEASE_V1.0.2/MSDK/wpa_supplicant/src/tls\tlsv1_record.c **** 	if (ct != TLS_CONTENT_TYPE_HANDSHAKE &&
 337:C:/Users/stapi/OneDrive/Desktop/GD32VW553/V1_MQTT_OK/GD32VW55X_Wifi_BLE_SDK/GD32VW55x_RELEASE_V1.0.2/MSDK/wpa_supplicant/src/tls\tlsv1_record.c **** 	    ct != TLS_CONTENT_TYPE_CHANGE_CIPHER_SPEC &&
 338:C:/Users/stapi/OneDrive/Desktop/GD32VW553/V1_MQTT_OK/GD32VW55X_Wifi_BLE_SDK/GD32VW55x_RELEASE_V1.0.2/MSDK/wpa_supplicant/src/tls\tlsv1_record.c **** 	    ct != TLS_CONTENT_TYPE_ALERT &&
 339:C:/Users/stapi/OneDrive/Desktop/GD32VW553/V1_MQTT_OK/GD32VW55X_Wifi_BLE_SDK/GD32VW55x_RELEASE_V1.0.2/MSDK/wpa_supplicant/src/tls\tlsv1_record.c **** 	    ct != TLS_CONTENT_TYPE_APPLICATION_DATA) {
 340:C:/Users/stapi/OneDrive/Desktop/GD32VW553/V1_MQTT_OK/GD32VW55X_Wifi_BLE_SDK/GD32VW55x_RELEASE_V1.0.2/MSDK/wpa_supplicant/src/tls\tlsv1_record.c **** 		wpa_printf(MSG_DEBUG, "TLSv1: Ignore record with unknown "
 341:C:/Users/stapi/OneDrive/Desktop/GD32VW553/V1_MQTT_OK/GD32VW55X_Wifi_BLE_SDK/GD32VW55x_RELEASE_V1.0.2/MSDK/wpa_supplicant/src/tls\tlsv1_record.c **** 			   "content type 0x%x", ct);
 342:C:/Users/stapi/OneDrive/Desktop/GD32VW553/V1_MQTT_OK/GD32VW55X_Wifi_BLE_SDK/GD32VW55x_RELEASE_V1.0.2/MSDK/wpa_supplicant/src/tls\tlsv1_record.c **** 		*alert = TLS_ALERT_UNEXPECTED_MESSAGE;
 343:C:/Users/stapi/OneDrive/Desktop/GD32VW553/V1_MQTT_OK/GD32VW55X_Wifi_BLE_SDK/GD32VW55x_RELEASE_V1.0.2/MSDK/wpa_supplicant/src/tls\tlsv1_record.c **** 		return -1;
 344:C:/Users/stapi/OneDrive/Desktop/GD32VW553/V1_MQTT_OK/GD32VW55X_Wifi_BLE_SDK/GD32VW55x_RELEASE_V1.0.2/MSDK/wpa_supplicant/src/tls\tlsv1_record.c **** 	}
 345:C:/Users/stapi/OneDrive/Desktop/GD32VW553/V1_MQTT_OK/GD32VW55X_Wifi_BLE_SDK/GD32VW55x_RELEASE_V1.0.2/MSDK/wpa_supplicant/src/tls\tlsv1_record.c **** 
 346:C:/Users/stapi/OneDrive/Desktop/GD32VW553/V1_MQTT_OK/GD32VW55X_Wifi_BLE_SDK/GD32VW55x_RELEASE_V1.0.2/MSDK/wpa_supplicant/src/tls\tlsv1_record.c **** 	in_len = rlen;
 347:C:/Users/stapi/OneDrive/Desktop/GD32VW553/V1_MQTT_OK/GD32VW55X_Wifi_BLE_SDK/GD32VW55x_RELEASE_V1.0.2/MSDK/wpa_supplicant/src/tls\tlsv1_record.c **** 
 348:C:/Users/stapi/OneDrive/Desktop/GD32VW553/V1_MQTT_OK/GD32VW55X_Wifi_BLE_SDK/GD32VW55x_RELEASE_V1.0.2/MSDK/wpa_supplicant/src/tls\tlsv1_record.c **** 	if (*out_len < in_len) {
 349:C:/Users/stapi/OneDrive/Desktop/GD32VW553/V1_MQTT_OK/GD32VW55X_Wifi_BLE_SDK/GD32VW55x_RELEASE_V1.0.2/MSDK/wpa_supplicant/src/tls\tlsv1_record.c **** 		wpa_printf(MSG_DEBUG, "TLSv1: Not enough output buffer for "
 350:C:/Users/stapi/OneDrive/Desktop/GD32VW553/V1_MQTT_OK/GD32VW55X_Wifi_BLE_SDK/GD32VW55x_RELEASE_V1.0.2/MSDK/wpa_supplicant/src/tls\tlsv1_record.c **** 			   "processing received record");
 351:C:/Users/stapi/OneDrive/Desktop/GD32VW553/V1_MQTT_OK/GD32VW55X_Wifi_BLE_SDK/GD32VW55x_RELEASE_V1.0.2/MSDK/wpa_supplicant/src/tls\tlsv1_record.c **** 		*alert = TLS_ALERT_INTERNAL_ERROR;
 352:C:/Users/stapi/OneDrive/Desktop/GD32VW553/V1_MQTT_OK/GD32VW55X_Wifi_BLE_SDK/GD32VW55x_RELEASE_V1.0.2/MSDK/wpa_supplicant/src/tls\tlsv1_record.c **** 		return -1;
 353:C:/Users/stapi/OneDrive/Desktop/GD32VW553/V1_MQTT_OK/GD32VW55X_Wifi_BLE_SDK/GD32VW55x_RELEASE_V1.0.2/MSDK/wpa_supplicant/src/tls\tlsv1_record.c **** 	}
 354:C:/Users/stapi/OneDrive/Desktop/GD32VW553/V1_MQTT_OK/GD32VW55X_Wifi_BLE_SDK/GD32VW55x_RELEASE_V1.0.2/MSDK/wpa_supplicant/src/tls\tlsv1_record.c **** 
 355:C:/Users/stapi/OneDrive/Desktop/GD32VW553/V1_MQTT_OK/GD32VW55X_Wifi_BLE_SDK/GD32VW55x_RELEASE_V1.0.2/MSDK/wpa_supplicant/src/tls\tlsv1_record.c **** 	if (rl->read_cipher_suite != TLS_NULL_WITH_NULL_NULL) {
 356:C:/Users/stapi/OneDrive/Desktop/GD32VW553/V1_MQTT_OK/GD32VW55X_Wifi_BLE_SDK/GD32VW55x_RELEASE_V1.0.2/MSDK/wpa_supplicant/src/tls\tlsv1_record.c **** 		size_t plen;
 357:C:/Users/stapi/OneDrive/Desktop/GD32VW553/V1_MQTT_OK/GD32VW55X_Wifi_BLE_SDK/GD32VW55x_RELEASE_V1.0.2/MSDK/wpa_supplicant/src/tls\tlsv1_record.c **** 		if (crypto_cipher_decrypt(rl->read_cbc, in_data,
 358:C:/Users/stapi/OneDrive/Desktop/GD32VW553/V1_MQTT_OK/GD32VW55X_Wifi_BLE_SDK/GD32VW55x_RELEASE_V1.0.2/MSDK/wpa_supplicant/src/tls\tlsv1_record.c **** 					  out_data, in_len) < 0) {
 359:C:/Users/stapi/OneDrive/Desktop/GD32VW553/V1_MQTT_OK/GD32VW55X_Wifi_BLE_SDK/GD32VW55x_RELEASE_V1.0.2/MSDK/wpa_supplicant/src/tls\tlsv1_record.c **** 			*alert = TLS_ALERT_DECRYPTION_FAILED;
 360:C:/Users/stapi/OneDrive/Desktop/GD32VW553/V1_MQTT_OK/GD32VW55X_Wifi_BLE_SDK/GD32VW55x_RELEASE_V1.0.2/MSDK/wpa_supplicant/src/tls\tlsv1_record.c **** 			return -1;
 361:C:/Users/stapi/OneDrive/Desktop/GD32VW553/V1_MQTT_OK/GD32VW55X_Wifi_BLE_SDK/GD32VW55x_RELEASE_V1.0.2/MSDK/wpa_supplicant/src/tls\tlsv1_record.c **** 		}
 362:C:/Users/stapi/OneDrive/Desktop/GD32VW553/V1_MQTT_OK/GD32VW55X_Wifi_BLE_SDK/GD32VW55x_RELEASE_V1.0.2/MSDK/wpa_supplicant/src/tls\tlsv1_record.c **** 		plen = in_len;
 363:C:/Users/stapi/OneDrive/Desktop/GD32VW553/V1_MQTT_OK/GD32VW55X_Wifi_BLE_SDK/GD32VW55x_RELEASE_V1.0.2/MSDK/wpa_supplicant/src/tls\tlsv1_record.c **** 		wpa_hexdump_key(MSG_MSGDUMP, "TLSv1: Record Layer - Decrypted "
 364:C:/Users/stapi/OneDrive/Desktop/GD32VW553/V1_MQTT_OK/GD32VW55X_Wifi_BLE_SDK/GD32VW55x_RELEASE_V1.0.2/MSDK/wpa_supplicant/src/tls\tlsv1_record.c **** 				"data", out_data, plen);
 365:C:/Users/stapi/OneDrive/Desktop/GD32VW553/V1_MQTT_OK/GD32VW55X_Wifi_BLE_SDK/GD32VW55x_RELEASE_V1.0.2/MSDK/wpa_supplicant/src/tls\tlsv1_record.c **** 
 366:C:/Users/stapi/OneDrive/Desktop/GD32VW553/V1_MQTT_OK/GD32VW55X_Wifi_BLE_SDK/GD32VW55x_RELEASE_V1.0.2/MSDK/wpa_supplicant/src/tls\tlsv1_record.c **** 		if (rl->iv_size) {
 367:C:/Users/stapi/OneDrive/Desktop/GD32VW553/V1_MQTT_OK/GD32VW55X_Wifi_BLE_SDK/GD32VW55x_RELEASE_V1.0.2/MSDK/wpa_supplicant/src/tls\tlsv1_record.c **** 			/*
 368:C:/Users/stapi/OneDrive/Desktop/GD32VW553/V1_MQTT_OK/GD32VW55X_Wifi_BLE_SDK/GD32VW55x_RELEASE_V1.0.2/MSDK/wpa_supplicant/src/tls\tlsv1_record.c **** 			 * TLS v1.0 defines different alert values for various
 369:C:/Users/stapi/OneDrive/Desktop/GD32VW553/V1_MQTT_OK/GD32VW55X_Wifi_BLE_SDK/GD32VW55x_RELEASE_V1.0.2/MSDK/wpa_supplicant/src/tls\tlsv1_record.c **** 			 * failures. That may information to aid in attacks, so
 370:C:/Users/stapi/OneDrive/Desktop/GD32VW553/V1_MQTT_OK/GD32VW55X_Wifi_BLE_SDK/GD32VW55x_RELEASE_V1.0.2/MSDK/wpa_supplicant/src/tls\tlsv1_record.c **** 			 * use the same bad_record_mac alert regardless of the
 371:C:/Users/stapi/OneDrive/Desktop/GD32VW553/V1_MQTT_OK/GD32VW55X_Wifi_BLE_SDK/GD32VW55x_RELEASE_V1.0.2/MSDK/wpa_supplicant/src/tls\tlsv1_record.c **** 			 * issues.
 372:C:/Users/stapi/OneDrive/Desktop/GD32VW553/V1_MQTT_OK/GD32VW55X_Wifi_BLE_SDK/GD32VW55x_RELEASE_V1.0.2/MSDK/wpa_supplicant/src/tls\tlsv1_record.c **** 			 *
 373:C:/Users/stapi/OneDrive/Desktop/GD32VW553/V1_MQTT_OK/GD32VW55X_Wifi_BLE_SDK/GD32VW55x_RELEASE_V1.0.2/MSDK/wpa_supplicant/src/tls\tlsv1_record.c **** 			 * In addition, instead of returning immediately on
 374:C:/Users/stapi/OneDrive/Desktop/GD32VW553/V1_MQTT_OK/GD32VW55X_Wifi_BLE_SDK/GD32VW55x_RELEASE_V1.0.2/MSDK/wpa_supplicant/src/tls\tlsv1_record.c **** 			 * error, run through the MAC check to make timing
 375:C:/Users/stapi/OneDrive/Desktop/GD32VW553/V1_MQTT_OK/GD32VW55X_Wifi_BLE_SDK/GD32VW55x_RELEASE_V1.0.2/MSDK/wpa_supplicant/src/tls\tlsv1_record.c **** 			 * attacks more difficult.
 376:C:/Users/stapi/OneDrive/Desktop/GD32VW553/V1_MQTT_OK/GD32VW55X_Wifi_BLE_SDK/GD32VW55x_RELEASE_V1.0.2/MSDK/wpa_supplicant/src/tls\tlsv1_record.c **** 			 */
 377:C:/Users/stapi/OneDrive/Desktop/GD32VW553/V1_MQTT_OK/GD32VW55X_Wifi_BLE_SDK/GD32VW55x_RELEASE_V1.0.2/MSDK/wpa_supplicant/src/tls\tlsv1_record.c **** 
 378:C:/Users/stapi/OneDrive/Desktop/GD32VW553/V1_MQTT_OK/GD32VW55X_Wifi_BLE_SDK/GD32VW55x_RELEASE_V1.0.2/MSDK/wpa_supplicant/src/tls\tlsv1_record.c **** 			if (rl->tls_version >= TLS_VERSION_1_1) {
 379:C:/Users/stapi/OneDrive/Desktop/GD32VW553/V1_MQTT_OK/GD32VW55X_Wifi_BLE_SDK/GD32VW55x_RELEASE_V1.0.2/MSDK/wpa_supplicant/src/tls\tlsv1_record.c **** 				/* Remove opaque IV[Cipherspec.block_length] */
 380:C:/Users/stapi/OneDrive/Desktop/GD32VW553/V1_MQTT_OK/GD32VW55X_Wifi_BLE_SDK/GD32VW55x_RELEASE_V1.0.2/MSDK/wpa_supplicant/src/tls\tlsv1_record.c **** 				if (plen < rl->iv_size) {
 381:C:/Users/stapi/OneDrive/Desktop/GD32VW553/V1_MQTT_OK/GD32VW55X_Wifi_BLE_SDK/GD32VW55x_RELEASE_V1.0.2/MSDK/wpa_supplicant/src/tls\tlsv1_record.c **** 					wpa_printf(MSG_DEBUG, "TLSv1.1: Not "
 382:C:/Users/stapi/OneDrive/Desktop/GD32VW553/V1_MQTT_OK/GD32VW55X_Wifi_BLE_SDK/GD32VW55x_RELEASE_V1.0.2/MSDK/wpa_supplicant/src/tls\tlsv1_record.c **** 						   "enough room for IV");
 383:C:/Users/stapi/OneDrive/Desktop/GD32VW553/V1_MQTT_OK/GD32VW55X_Wifi_BLE_SDK/GD32VW55x_RELEASE_V1.0.2/MSDK/wpa_supplicant/src/tls\tlsv1_record.c **** 					force_mac_error = 1;
 384:C:/Users/stapi/OneDrive/Desktop/GD32VW553/V1_MQTT_OK/GD32VW55X_Wifi_BLE_SDK/GD32VW55x_RELEASE_V1.0.2/MSDK/wpa_supplicant/src/tls\tlsv1_record.c **** 					goto check_mac;
 385:C:/Users/stapi/OneDrive/Desktop/GD32VW553/V1_MQTT_OK/GD32VW55X_Wifi_BLE_SDK/GD32VW55x_RELEASE_V1.0.2/MSDK/wpa_supplicant/src/tls\tlsv1_record.c **** 				}
 386:C:/Users/stapi/OneDrive/Desktop/GD32VW553/V1_MQTT_OK/GD32VW55X_Wifi_BLE_SDK/GD32VW55x_RELEASE_V1.0.2/MSDK/wpa_supplicant/src/tls\tlsv1_record.c **** 				os_memmove(out_data, out_data + rl->iv_size,
 387:C:/Users/stapi/OneDrive/Desktop/GD32VW553/V1_MQTT_OK/GD32VW55X_Wifi_BLE_SDK/GD32VW55x_RELEASE_V1.0.2/MSDK/wpa_supplicant/src/tls\tlsv1_record.c **** 					   plen - rl->iv_size);
 388:C:/Users/stapi/OneDrive/Desktop/GD32VW553/V1_MQTT_OK/GD32VW55X_Wifi_BLE_SDK/GD32VW55x_RELEASE_V1.0.2/MSDK/wpa_supplicant/src/tls\tlsv1_record.c **** 				plen -= rl->iv_size;
 389:C:/Users/stapi/OneDrive/Desktop/GD32VW553/V1_MQTT_OK/GD32VW55X_Wifi_BLE_SDK/GD32VW55x_RELEASE_V1.0.2/MSDK/wpa_supplicant/src/tls\tlsv1_record.c **** 			}
 390:C:/Users/stapi/OneDrive/Desktop/GD32VW553/V1_MQTT_OK/GD32VW55X_Wifi_BLE_SDK/GD32VW55x_RELEASE_V1.0.2/MSDK/wpa_supplicant/src/tls\tlsv1_record.c **** 
 391:C:/Users/stapi/OneDrive/Desktop/GD32VW553/V1_MQTT_OK/GD32VW55X_Wifi_BLE_SDK/GD32VW55x_RELEASE_V1.0.2/MSDK/wpa_supplicant/src/tls\tlsv1_record.c **** 			/* Verify and remove padding */
 392:C:/Users/stapi/OneDrive/Desktop/GD32VW553/V1_MQTT_OK/GD32VW55X_Wifi_BLE_SDK/GD32VW55x_RELEASE_V1.0.2/MSDK/wpa_supplicant/src/tls\tlsv1_record.c **** 			if (plen == 0) {
 393:C:/Users/stapi/OneDrive/Desktop/GD32VW553/V1_MQTT_OK/GD32VW55X_Wifi_BLE_SDK/GD32VW55x_RELEASE_V1.0.2/MSDK/wpa_supplicant/src/tls\tlsv1_record.c **** 				wpa_printf(MSG_DEBUG, "TLSv1: Too short record"
 394:C:/Users/stapi/OneDrive/Desktop/GD32VW553/V1_MQTT_OK/GD32VW55X_Wifi_BLE_SDK/GD32VW55x_RELEASE_V1.0.2/MSDK/wpa_supplicant/src/tls\tlsv1_record.c **** 					   " (no pad)");
 395:C:/Users/stapi/OneDrive/Desktop/GD32VW553/V1_MQTT_OK/GD32VW55X_Wifi_BLE_SDK/GD32VW55x_RELEASE_V1.0.2/MSDK/wpa_supplicant/src/tls\tlsv1_record.c **** 				force_mac_error = 1;
 396:C:/Users/stapi/OneDrive/Desktop/GD32VW553/V1_MQTT_OK/GD32VW55X_Wifi_BLE_SDK/GD32VW55x_RELEASE_V1.0.2/MSDK/wpa_supplicant/src/tls\tlsv1_record.c **** 				goto check_mac;
 397:C:/Users/stapi/OneDrive/Desktop/GD32VW553/V1_MQTT_OK/GD32VW55X_Wifi_BLE_SDK/GD32VW55x_RELEASE_V1.0.2/MSDK/wpa_supplicant/src/tls\tlsv1_record.c **** 			}
 398:C:/Users/stapi/OneDrive/Desktop/GD32VW553/V1_MQTT_OK/GD32VW55X_Wifi_BLE_SDK/GD32VW55x_RELEASE_V1.0.2/MSDK/wpa_supplicant/src/tls\tlsv1_record.c **** 			padlen = out_data[plen - 1];
 399:C:/Users/stapi/OneDrive/Desktop/GD32VW553/V1_MQTT_OK/GD32VW55X_Wifi_BLE_SDK/GD32VW55x_RELEASE_V1.0.2/MSDK/wpa_supplicant/src/tls\tlsv1_record.c **** 			if (padlen >= plen) {
 400:C:/Users/stapi/OneDrive/Desktop/GD32VW553/V1_MQTT_OK/GD32VW55X_Wifi_BLE_SDK/GD32VW55x_RELEASE_V1.0.2/MSDK/wpa_supplicant/src/tls\tlsv1_record.c **** 				wpa_printf(MSG_DEBUG, "TLSv1: Incorrect pad "
 401:C:/Users/stapi/OneDrive/Desktop/GD32VW553/V1_MQTT_OK/GD32VW55X_Wifi_BLE_SDK/GD32VW55x_RELEASE_V1.0.2/MSDK/wpa_supplicant/src/tls\tlsv1_record.c **** 					   "length (%u, plen=%lu) in "
 402:C:/Users/stapi/OneDrive/Desktop/GD32VW553/V1_MQTT_OK/GD32VW55X_Wifi_BLE_SDK/GD32VW55x_RELEASE_V1.0.2/MSDK/wpa_supplicant/src/tls\tlsv1_record.c **** 					   "received record",
 403:C:/Users/stapi/OneDrive/Desktop/GD32VW553/V1_MQTT_OK/GD32VW55X_Wifi_BLE_SDK/GD32VW55x_RELEASE_V1.0.2/MSDK/wpa_supplicant/src/tls\tlsv1_record.c **** 					   padlen, (unsigned long) plen);
 404:C:/Users/stapi/OneDrive/Desktop/GD32VW553/V1_MQTT_OK/GD32VW55X_Wifi_BLE_SDK/GD32VW55x_RELEASE_V1.0.2/MSDK/wpa_supplicant/src/tls\tlsv1_record.c **** 				force_mac_error = 1;
 405:C:/Users/stapi/OneDrive/Desktop/GD32VW553/V1_MQTT_OK/GD32VW55X_Wifi_BLE_SDK/GD32VW55x_RELEASE_V1.0.2/MSDK/wpa_supplicant/src/tls\tlsv1_record.c **** 				goto check_mac;
 406:C:/Users/stapi/OneDrive/Desktop/GD32VW553/V1_MQTT_OK/GD32VW55X_Wifi_BLE_SDK/GD32VW55x_RELEASE_V1.0.2/MSDK/wpa_supplicant/src/tls\tlsv1_record.c **** 			}
 407:C:/Users/stapi/OneDrive/Desktop/GD32VW553/V1_MQTT_OK/GD32VW55X_Wifi_BLE_SDK/GD32VW55x_RELEASE_V1.0.2/MSDK/wpa_supplicant/src/tls\tlsv1_record.c **** 			for (i = plen - padlen - 1; i < plen - 1; i++) {
 408:C:/Users/stapi/OneDrive/Desktop/GD32VW553/V1_MQTT_OK/GD32VW55X_Wifi_BLE_SDK/GD32VW55x_RELEASE_V1.0.2/MSDK/wpa_supplicant/src/tls\tlsv1_record.c **** 				if (out_data[i] != padlen) {
 409:C:/Users/stapi/OneDrive/Desktop/GD32VW553/V1_MQTT_OK/GD32VW55X_Wifi_BLE_SDK/GD32VW55x_RELEASE_V1.0.2/MSDK/wpa_supplicant/src/tls\tlsv1_record.c **** 					wpa_hexdump(MSG_DEBUG,
 410:C:/Users/stapi/OneDrive/Desktop/GD32VW553/V1_MQTT_OK/GD32VW55X_Wifi_BLE_SDK/GD32VW55x_RELEASE_V1.0.2/MSDK/wpa_supplicant/src/tls\tlsv1_record.c **** 						    "TLSv1: Invalid pad in "
 411:C:/Users/stapi/OneDrive/Desktop/GD32VW553/V1_MQTT_OK/GD32VW55X_Wifi_BLE_SDK/GD32VW55x_RELEASE_V1.0.2/MSDK/wpa_supplicant/src/tls\tlsv1_record.c **** 						    "received record",
 412:C:/Users/stapi/OneDrive/Desktop/GD32VW553/V1_MQTT_OK/GD32VW55X_Wifi_BLE_SDK/GD32VW55x_RELEASE_V1.0.2/MSDK/wpa_supplicant/src/tls\tlsv1_record.c **** 						    out_data + plen - padlen -
 413:C:/Users/stapi/OneDrive/Desktop/GD32VW553/V1_MQTT_OK/GD32VW55X_Wifi_BLE_SDK/GD32VW55x_RELEASE_V1.0.2/MSDK/wpa_supplicant/src/tls\tlsv1_record.c **** 						    1, padlen + 1);
 414:C:/Users/stapi/OneDrive/Desktop/GD32VW553/V1_MQTT_OK/GD32VW55X_Wifi_BLE_SDK/GD32VW55x_RELEASE_V1.0.2/MSDK/wpa_supplicant/src/tls\tlsv1_record.c **** 					force_mac_error = 1;
 415:C:/Users/stapi/OneDrive/Desktop/GD32VW553/V1_MQTT_OK/GD32VW55X_Wifi_BLE_SDK/GD32VW55x_RELEASE_V1.0.2/MSDK/wpa_supplicant/src/tls\tlsv1_record.c **** 					goto check_mac;
 416:C:/Users/stapi/OneDrive/Desktop/GD32VW553/V1_MQTT_OK/GD32VW55X_Wifi_BLE_SDK/GD32VW55x_RELEASE_V1.0.2/MSDK/wpa_supplicant/src/tls\tlsv1_record.c **** 				}
 417:C:/Users/stapi/OneDrive/Desktop/GD32VW553/V1_MQTT_OK/GD32VW55X_Wifi_BLE_SDK/GD32VW55x_RELEASE_V1.0.2/MSDK/wpa_supplicant/src/tls\tlsv1_record.c **** 			}
 418:C:/Users/stapi/OneDrive/Desktop/GD32VW553/V1_MQTT_OK/GD32VW55X_Wifi_BLE_SDK/GD32VW55x_RELEASE_V1.0.2/MSDK/wpa_supplicant/src/tls\tlsv1_record.c **** 
 419:C:/Users/stapi/OneDrive/Desktop/GD32VW553/V1_MQTT_OK/GD32VW55X_Wifi_BLE_SDK/GD32VW55x_RELEASE_V1.0.2/MSDK/wpa_supplicant/src/tls\tlsv1_record.c **** 			plen -= padlen + 1;
 420:C:/Users/stapi/OneDrive/Desktop/GD32VW553/V1_MQTT_OK/GD32VW55X_Wifi_BLE_SDK/GD32VW55x_RELEASE_V1.0.2/MSDK/wpa_supplicant/src/tls\tlsv1_record.c **** 
 421:C:/Users/stapi/OneDrive/Desktop/GD32VW553/V1_MQTT_OK/GD32VW55X_Wifi_BLE_SDK/GD32VW55x_RELEASE_V1.0.2/MSDK/wpa_supplicant/src/tls\tlsv1_record.c **** 			wpa_hexdump_key(MSG_MSGDUMP, "TLSv1: Record Layer - "
 422:C:/Users/stapi/OneDrive/Desktop/GD32VW553/V1_MQTT_OK/GD32VW55X_Wifi_BLE_SDK/GD32VW55x_RELEASE_V1.0.2/MSDK/wpa_supplicant/src/tls\tlsv1_record.c **** 					"Decrypted data with IV and padding "
 423:C:/Users/stapi/OneDrive/Desktop/GD32VW553/V1_MQTT_OK/GD32VW55X_Wifi_BLE_SDK/GD32VW55x_RELEASE_V1.0.2/MSDK/wpa_supplicant/src/tls\tlsv1_record.c **** 					"removed", out_data, plen);
 424:C:/Users/stapi/OneDrive/Desktop/GD32VW553/V1_MQTT_OK/GD32VW55X_Wifi_BLE_SDK/GD32VW55x_RELEASE_V1.0.2/MSDK/wpa_supplicant/src/tls\tlsv1_record.c **** 		}
 425:C:/Users/stapi/OneDrive/Desktop/GD32VW553/V1_MQTT_OK/GD32VW55X_Wifi_BLE_SDK/GD32VW55x_RELEASE_V1.0.2/MSDK/wpa_supplicant/src/tls\tlsv1_record.c **** 
 426:C:/Users/stapi/OneDrive/Desktop/GD32VW553/V1_MQTT_OK/GD32VW55X_Wifi_BLE_SDK/GD32VW55x_RELEASE_V1.0.2/MSDK/wpa_supplicant/src/tls\tlsv1_record.c **** 	check_mac:
 427:C:/Users/stapi/OneDrive/Desktop/GD32VW553/V1_MQTT_OK/GD32VW55X_Wifi_BLE_SDK/GD32VW55x_RELEASE_V1.0.2/MSDK/wpa_supplicant/src/tls\tlsv1_record.c **** 		if (plen < rl->hash_size) {
 428:C:/Users/stapi/OneDrive/Desktop/GD32VW553/V1_MQTT_OK/GD32VW55X_Wifi_BLE_SDK/GD32VW55x_RELEASE_V1.0.2/MSDK/wpa_supplicant/src/tls\tlsv1_record.c **** 			wpa_printf(MSG_DEBUG, "TLSv1: Too short record; no "
 429:C:/Users/stapi/OneDrive/Desktop/GD32VW553/V1_MQTT_OK/GD32VW55X_Wifi_BLE_SDK/GD32VW55x_RELEASE_V1.0.2/MSDK/wpa_supplicant/src/tls\tlsv1_record.c **** 				   "hash value");
 430:C:/Users/stapi/OneDrive/Desktop/GD32VW553/V1_MQTT_OK/GD32VW55X_Wifi_BLE_SDK/GD32VW55x_RELEASE_V1.0.2/MSDK/wpa_supplicant/src/tls\tlsv1_record.c **** 			*alert = TLS_ALERT_BAD_RECORD_MAC;
 431:C:/Users/stapi/OneDrive/Desktop/GD32VW553/V1_MQTT_OK/GD32VW55X_Wifi_BLE_SDK/GD32VW55x_RELEASE_V1.0.2/MSDK/wpa_supplicant/src/tls\tlsv1_record.c **** 			return -1;
 432:C:/Users/stapi/OneDrive/Desktop/GD32VW553/V1_MQTT_OK/GD32VW55X_Wifi_BLE_SDK/GD32VW55x_RELEASE_V1.0.2/MSDK/wpa_supplicant/src/tls\tlsv1_record.c **** 		}
 433:C:/Users/stapi/OneDrive/Desktop/GD32VW553/V1_MQTT_OK/GD32VW55X_Wifi_BLE_SDK/GD32VW55x_RELEASE_V1.0.2/MSDK/wpa_supplicant/src/tls\tlsv1_record.c **** 
 434:C:/Users/stapi/OneDrive/Desktop/GD32VW553/V1_MQTT_OK/GD32VW55X_Wifi_BLE_SDK/GD32VW55x_RELEASE_V1.0.2/MSDK/wpa_supplicant/src/tls\tlsv1_record.c **** 		plen -= rl->hash_size;
 435:C:/Users/stapi/OneDrive/Desktop/GD32VW553/V1_MQTT_OK/GD32VW55X_Wifi_BLE_SDK/GD32VW55x_RELEASE_V1.0.2/MSDK/wpa_supplicant/src/tls\tlsv1_record.c **** 
 436:C:/Users/stapi/OneDrive/Desktop/GD32VW553/V1_MQTT_OK/GD32VW55X_Wifi_BLE_SDK/GD32VW55x_RELEASE_V1.0.2/MSDK/wpa_supplicant/src/tls\tlsv1_record.c **** 		hmac = crypto_hash_init(rl->hash_alg, rl->read_mac_secret,
 437:C:/Users/stapi/OneDrive/Desktop/GD32VW553/V1_MQTT_OK/GD32VW55X_Wifi_BLE_SDK/GD32VW55x_RELEASE_V1.0.2/MSDK/wpa_supplicant/src/tls\tlsv1_record.c **** 					rl->hash_size);
 438:C:/Users/stapi/OneDrive/Desktop/GD32VW553/V1_MQTT_OK/GD32VW55X_Wifi_BLE_SDK/GD32VW55x_RELEASE_V1.0.2/MSDK/wpa_supplicant/src/tls\tlsv1_record.c **** 		if (hmac == NULL) {
 439:C:/Users/stapi/OneDrive/Desktop/GD32VW553/V1_MQTT_OK/GD32VW55X_Wifi_BLE_SDK/GD32VW55x_RELEASE_V1.0.2/MSDK/wpa_supplicant/src/tls\tlsv1_record.c **** 			wpa_printf(MSG_DEBUG, "TLSv1: Record Layer - Failed "
 440:C:/Users/stapi/OneDrive/Desktop/GD32VW553/V1_MQTT_OK/GD32VW55X_Wifi_BLE_SDK/GD32VW55x_RELEASE_V1.0.2/MSDK/wpa_supplicant/src/tls\tlsv1_record.c **** 				   "to initialize HMAC");
 441:C:/Users/stapi/OneDrive/Desktop/GD32VW553/V1_MQTT_OK/GD32VW55X_Wifi_BLE_SDK/GD32VW55x_RELEASE_V1.0.2/MSDK/wpa_supplicant/src/tls\tlsv1_record.c **** 			*alert = TLS_ALERT_INTERNAL_ERROR;
 442:C:/Users/stapi/OneDrive/Desktop/GD32VW553/V1_MQTT_OK/GD32VW55X_Wifi_BLE_SDK/GD32VW55x_RELEASE_V1.0.2/MSDK/wpa_supplicant/src/tls\tlsv1_record.c **** 			return -1;
 443:C:/Users/stapi/OneDrive/Desktop/GD32VW553/V1_MQTT_OK/GD32VW55X_Wifi_BLE_SDK/GD32VW55x_RELEASE_V1.0.2/MSDK/wpa_supplicant/src/tls\tlsv1_record.c **** 		}
 444:C:/Users/stapi/OneDrive/Desktop/GD32VW553/V1_MQTT_OK/GD32VW55X_Wifi_BLE_SDK/GD32VW55x_RELEASE_V1.0.2/MSDK/wpa_supplicant/src/tls\tlsv1_record.c **** 
 445:C:/Users/stapi/OneDrive/Desktop/GD32VW553/V1_MQTT_OK/GD32VW55X_Wifi_BLE_SDK/GD32VW55x_RELEASE_V1.0.2/MSDK/wpa_supplicant/src/tls\tlsv1_record.c **** 		crypto_hash_update(hmac, rl->read_seq_num, TLS_SEQ_NUM_LEN);
 446:C:/Users/stapi/OneDrive/Desktop/GD32VW553/V1_MQTT_OK/GD32VW55X_Wifi_BLE_SDK/GD32VW55x_RELEASE_V1.0.2/MSDK/wpa_supplicant/src/tls\tlsv1_record.c **** 		/* type + version + length + fragment */
 447:C:/Users/stapi/OneDrive/Desktop/GD32VW553/V1_MQTT_OK/GD32VW55X_Wifi_BLE_SDK/GD32VW55x_RELEASE_V1.0.2/MSDK/wpa_supplicant/src/tls\tlsv1_record.c **** 		crypto_hash_update(hmac, in_data - TLS_RECORD_HEADER_LEN, 3);
 448:C:/Users/stapi/OneDrive/Desktop/GD32VW553/V1_MQTT_OK/GD32VW55X_Wifi_BLE_SDK/GD32VW55x_RELEASE_V1.0.2/MSDK/wpa_supplicant/src/tls\tlsv1_record.c **** 		WPA_PUT_BE16(len, plen);
 449:C:/Users/stapi/OneDrive/Desktop/GD32VW553/V1_MQTT_OK/GD32VW55X_Wifi_BLE_SDK/GD32VW55x_RELEASE_V1.0.2/MSDK/wpa_supplicant/src/tls\tlsv1_record.c **** 		crypto_hash_update(hmac, len, 2);
 450:C:/Users/stapi/OneDrive/Desktop/GD32VW553/V1_MQTT_OK/GD32VW55X_Wifi_BLE_SDK/GD32VW55x_RELEASE_V1.0.2/MSDK/wpa_supplicant/src/tls\tlsv1_record.c **** 		crypto_hash_update(hmac, out_data, plen);
 451:C:/Users/stapi/OneDrive/Desktop/GD32VW553/V1_MQTT_OK/GD32VW55X_Wifi_BLE_SDK/GD32VW55x_RELEASE_V1.0.2/MSDK/wpa_supplicant/src/tls\tlsv1_record.c **** 		hlen = sizeof(hash);
 452:C:/Users/stapi/OneDrive/Desktop/GD32VW553/V1_MQTT_OK/GD32VW55X_Wifi_BLE_SDK/GD32VW55x_RELEASE_V1.0.2/MSDK/wpa_supplicant/src/tls\tlsv1_record.c **** 		if (crypto_hash_finish(hmac, hash, &hlen) < 0) {
 453:C:/Users/stapi/OneDrive/Desktop/GD32VW553/V1_MQTT_OK/GD32VW55X_Wifi_BLE_SDK/GD32VW55x_RELEASE_V1.0.2/MSDK/wpa_supplicant/src/tls\tlsv1_record.c **** 			wpa_printf(MSG_DEBUG, "TLSv1: Record Layer - Failed "
 454:C:/Users/stapi/OneDrive/Desktop/GD32VW553/V1_MQTT_OK/GD32VW55X_Wifi_BLE_SDK/GD32VW55x_RELEASE_V1.0.2/MSDK/wpa_supplicant/src/tls\tlsv1_record.c **** 				   "to calculate HMAC");
 455:C:/Users/stapi/OneDrive/Desktop/GD32VW553/V1_MQTT_OK/GD32VW55X_Wifi_BLE_SDK/GD32VW55x_RELEASE_V1.0.2/MSDK/wpa_supplicant/src/tls\tlsv1_record.c **** 			*alert = TLS_ALERT_INTERNAL_ERROR;
 456:C:/Users/stapi/OneDrive/Desktop/GD32VW553/V1_MQTT_OK/GD32VW55X_Wifi_BLE_SDK/GD32VW55x_RELEASE_V1.0.2/MSDK/wpa_supplicant/src/tls\tlsv1_record.c **** 			return -1;
 457:C:/Users/stapi/OneDrive/Desktop/GD32VW553/V1_MQTT_OK/GD32VW55X_Wifi_BLE_SDK/GD32VW55x_RELEASE_V1.0.2/MSDK/wpa_supplicant/src/tls\tlsv1_record.c **** 		}
 458:C:/Users/stapi/OneDrive/Desktop/GD32VW553/V1_MQTT_OK/GD32VW55X_Wifi_BLE_SDK/GD32VW55x_RELEASE_V1.0.2/MSDK/wpa_supplicant/src/tls\tlsv1_record.c **** 		if (hlen != rl->hash_size ||
 459:C:/Users/stapi/OneDrive/Desktop/GD32VW553/V1_MQTT_OK/GD32VW55X_Wifi_BLE_SDK/GD32VW55x_RELEASE_V1.0.2/MSDK/wpa_supplicant/src/tls\tlsv1_record.c **** 		    os_memcmp_const(hash, out_data + plen, hlen) != 0 ||
 460:C:/Users/stapi/OneDrive/Desktop/GD32VW553/V1_MQTT_OK/GD32VW55X_Wifi_BLE_SDK/GD32VW55x_RELEASE_V1.0.2/MSDK/wpa_supplicant/src/tls\tlsv1_record.c **** 		    force_mac_error) {
 461:C:/Users/stapi/OneDrive/Desktop/GD32VW553/V1_MQTT_OK/GD32VW55X_Wifi_BLE_SDK/GD32VW55x_RELEASE_V1.0.2/MSDK/wpa_supplicant/src/tls\tlsv1_record.c **** 			wpa_printf(MSG_DEBUG, "TLSv1: Invalid HMAC value in "
 462:C:/Users/stapi/OneDrive/Desktop/GD32VW553/V1_MQTT_OK/GD32VW55X_Wifi_BLE_SDK/GD32VW55x_RELEASE_V1.0.2/MSDK/wpa_supplicant/src/tls\tlsv1_record.c **** 				   "received message (force_mac_error=%d)",
 463:C:/Users/stapi/OneDrive/Desktop/GD32VW553/V1_MQTT_OK/GD32VW55X_Wifi_BLE_SDK/GD32VW55x_RELEASE_V1.0.2/MSDK/wpa_supplicant/src/tls\tlsv1_record.c **** 				   force_mac_error);
 464:C:/Users/stapi/OneDrive/Desktop/GD32VW553/V1_MQTT_OK/GD32VW55X_Wifi_BLE_SDK/GD32VW55x_RELEASE_V1.0.2/MSDK/wpa_supplicant/src/tls\tlsv1_record.c **** 			*alert = TLS_ALERT_BAD_RECORD_MAC;
 465:C:/Users/stapi/OneDrive/Desktop/GD32VW553/V1_MQTT_OK/GD32VW55X_Wifi_BLE_SDK/GD32VW55x_RELEASE_V1.0.2/MSDK/wpa_supplicant/src/tls\tlsv1_record.c **** 			return -1;
 466:C:/Users/stapi/OneDrive/Desktop/GD32VW553/V1_MQTT_OK/GD32VW55X_Wifi_BLE_SDK/GD32VW55x_RELEASE_V1.0.2/MSDK/wpa_supplicant/src/tls\tlsv1_record.c **** 		}
 467:C:/Users/stapi/OneDrive/Desktop/GD32VW553/V1_MQTT_OK/GD32VW55X_Wifi_BLE_SDK/GD32VW55x_RELEASE_V1.0.2/MSDK/wpa_supplicant/src/tls\tlsv1_record.c **** 
 468:C:/Users/stapi/OneDrive/Desktop/GD32VW553/V1_MQTT_OK/GD32VW55X_Wifi_BLE_SDK/GD32VW55x_RELEASE_V1.0.2/MSDK/wpa_supplicant/src/tls\tlsv1_record.c **** 		*out_len = plen;
 469:C:/Users/stapi/OneDrive/Desktop/GD32VW553/V1_MQTT_OK/GD32VW55X_Wifi_BLE_SDK/GD32VW55x_RELEASE_V1.0.2/MSDK/wpa_supplicant/src/tls\tlsv1_record.c **** 	} else {
 470:C:/Users/stapi/OneDrive/Desktop/GD32VW553/V1_MQTT_OK/GD32VW55X_Wifi_BLE_SDK/GD32VW55x_RELEASE_V1.0.2/MSDK/wpa_supplicant/src/tls\tlsv1_record.c **** 		os_memcpy(out_data, in_data, in_len);
 471:C:/Users/stapi/OneDrive/Desktop/GD32VW553/V1_MQTT_OK/GD32VW55X_Wifi_BLE_SDK/GD32VW55x_RELEASE_V1.0.2/MSDK/wpa_supplicant/src/tls\tlsv1_record.c **** 		*out_len = in_len;
 472:C:/Users/stapi/OneDrive/Desktop/GD32VW553/V1_MQTT_OK/GD32VW55X_Wifi_BLE_SDK/GD32VW55x_RELEASE_V1.0.2/MSDK/wpa_supplicant/src/tls\tlsv1_record.c **** 	}
 473:C:/Users/stapi/OneDrive/Desktop/GD32VW553/V1_MQTT_OK/GD32VW55X_Wifi_BLE_SDK/GD32VW55x_RELEASE_V1.0.2/MSDK/wpa_supplicant/src/tls\tlsv1_record.c **** 
 474:C:/Users/stapi/OneDrive/Desktop/GD32VW553/V1_MQTT_OK/GD32VW55X_Wifi_BLE_SDK/GD32VW55x_RELEASE_V1.0.2/MSDK/wpa_supplicant/src/tls\tlsv1_record.c **** 	/* TLSCompressed must not be more than 2^14+1024 bytes */
 475:C:/Users/stapi/OneDrive/Desktop/GD32VW553/V1_MQTT_OK/GD32VW55X_Wifi_BLE_SDK/GD32VW55x_RELEASE_V1.0.2/MSDK/wpa_supplicant/src/tls\tlsv1_record.c **** 	if (TLS_RECORD_HEADER_LEN + *out_len > 17408) {
 476:C:/Users/stapi/OneDrive/Desktop/GD32VW553/V1_MQTT_OK/GD32VW55X_Wifi_BLE_SDK/GD32VW55x_RELEASE_V1.0.2/MSDK/wpa_supplicant/src/tls\tlsv1_record.c **** 		wpa_printf(MSG_DEBUG, "TLSv1: Record overflow (len=%lu)",
 477:C:/Users/stapi/OneDrive/Desktop/GD32VW553/V1_MQTT_OK/GD32VW55X_Wifi_BLE_SDK/GD32VW55x_RELEASE_V1.0.2/MSDK/wpa_supplicant/src/tls\tlsv1_record.c **** 			   (unsigned long) (TLS_RECORD_HEADER_LEN + *out_len));
 478:C:/Users/stapi/OneDrive/Desktop/GD32VW553/V1_MQTT_OK/GD32VW55X_Wifi_BLE_SDK/GD32VW55x_RELEASE_V1.0.2/MSDK/wpa_supplicant/src/tls\tlsv1_record.c **** 		*alert = TLS_ALERT_RECORD_OVERFLOW;
 479:C:/Users/stapi/OneDrive/Desktop/GD32VW553/V1_MQTT_OK/GD32VW55X_Wifi_BLE_SDK/GD32VW55x_RELEASE_V1.0.2/MSDK/wpa_supplicant/src/tls\tlsv1_record.c **** 		return -1;
 480:C:/Users/stapi/OneDrive/Desktop/GD32VW553/V1_MQTT_OK/GD32VW55X_Wifi_BLE_SDK/GD32VW55x_RELEASE_V1.0.2/MSDK/wpa_supplicant/src/tls\tlsv1_record.c **** 	}
 481:C:/Users/stapi/OneDrive/Desktop/GD32VW553/V1_MQTT_OK/GD32VW55X_Wifi_BLE_SDK/GD32VW55x_RELEASE_V1.0.2/MSDK/wpa_supplicant/src/tls\tlsv1_record.c **** 
 482:C:/Users/stapi/OneDrive/Desktop/GD32VW553/V1_MQTT_OK/GD32VW55X_Wifi_BLE_SDK/GD32VW55x_RELEASE_V1.0.2/MSDK/wpa_supplicant/src/tls\tlsv1_record.c **** 	inc_byte_array(rl->read_seq_num, TLS_SEQ_NUM_LEN);
 483:C:/Users/stapi/OneDrive/Desktop/GD32VW553/V1_MQTT_OK/GD32VW55X_Wifi_BLE_SDK/GD32VW55x_RELEASE_V1.0.2/MSDK/wpa_supplicant/src/tls\tlsv1_record.c **** 
 484:C:/Users/stapi/OneDrive/Desktop/GD32VW553/V1_MQTT_OK/GD32VW55X_Wifi_BLE_SDK/GD32VW55x_RELEASE_V1.0.2/MSDK/wpa_supplicant/src/tls\tlsv1_record.c **** 	return TLS_RECORD_HEADER_LEN + rlen;
 485:C:/Users/stapi/OneDrive/Desktop/GD32VW553/V1_MQTT_OK/GD32VW55X_Wifi_BLE_SDK/GD32VW55x_RELEASE_V1.0.2/MSDK/wpa_supplicant/src/tls\tlsv1_record.c **** }
 857              		.loc 1 485 1
 858 0040 6561     		addi	sp,sp,112
 859              		.cfi_remember_state
 860              		.cfi_def_cfa_offset 0
 861 0042 17030000 		tail	__riscv_restore_10
 861      67000300 
 862              		.cfi_restore 25
 863              		.cfi_restore 24
 864              		.cfi_restore 23
 865              		.cfi_restore 22
 866              		.cfi_restore 21
 867              		.cfi_restore 20
 868              		.cfi_restore 19
 869              		.cfi_restore 18
 870              		.cfi_restore 9
 871              		.cfi_restore 8
 872              		.cfi_restore 1
 873              		.cfi_def_cfa_offset -48
 874              	.LVL76:
 875              	.L59:
 876              		.cfi_restore_state
 877 004a 83C74500 		lbu	a5,4(a1)
 878 004e 03C43500 		lbu	s0,3(a1)
 298:C:/Users/stapi/OneDrive/Desktop/GD32VW553/V1_MQTT_OK/GD32VW55X_Wifi_BLE_SDK/GD32VW55x_RELEASE_V1.0.2/MSDK/wpa_supplicant/src/tls\tlsv1_record.c **** 	rlen = WPA_GET_BE16(in_data + 3);
 879              		.loc 1 298 5
 880 0052 03CC0500 		lbu	s8,0(a1)
 881 0056 A207     		slli	a5,a5,8
 882 0058 C18F     		or	a5,a5,s0
 883 005a 13948700 		slli	s0,a5,8
 884 005e B689     		mv	s3,a3
 885 0060 BA8B     		mv	s7,a4
 298:C:/Users/stapi/OneDrive/Desktop/GD32VW553/V1_MQTT_OK/GD32VW55X_Wifi_BLE_SDK/GD32VW55x_RELEASE_V1.0.2/MSDK/wpa_supplicant/src/tls\tlsv1_record.c **** 	rlen = WPA_GET_BE16(in_data + 3);
 886              		.loc 1 298 2 is_stmt 1
 887              	.LVL77:
 299:C:/Users/stapi/OneDrive/Desktop/GD32VW553/V1_MQTT_OK/GD32VW55X_Wifi_BLE_SDK/GD32VW55x_RELEASE_V1.0.2/MSDK/wpa_supplicant/src/tls\tlsv1_record.c **** 	wpa_printf(MSG_DEBUG, "TLSv1: Received content type %d version %d.%d "
 888              		.loc 1 299 2
 242:..\..\..\..\wpa_supplicant\src\utils/common.h **** }
 889              		.loc 2 242 2
 300:C:/Users/stapi/OneDrive/Desktop/GD32VW553/V1_MQTT_OK/GD32VW55X_Wifi_BLE_SDK/GD32VW55x_RELEASE_V1.0.2/MSDK/wpa_supplicant/src/tls\tlsv1_record.c **** 		   "length %d", ct, in_data[1], in_data[2], (int) rlen);
 890              		.loc 1 300 2 is_stmt 0
 891 0062 83C61500 		lbu	a3,1(a1)
 892              	.LVL78:
 893 0066 03C72500 		lbu	a4,2(a1)
 894              	.LVL79:
 895 006a A183     		srli	a5,a5,8
 896 006c C18F     		or	a5,s0,a5
 897 006e B7050000 		lui	a1,%hi(.LC11)
 898              	.LVL80:
 899 0072 2A89     		mv	s2,a0
 900 0074 6286     		mv	a2,s8
 901              	.LVL81:
 902 0076 93850500 		addi	a1,a1,%lo(.LC11)
 903 007a 0945     		li	a0,2
 904              	.LVL82:
 905 007c 33C40708 		zext.h	s0,a5
 906              	.LVL83:
 300:C:/Users/stapi/OneDrive/Desktop/GD32VW553/V1_MQTT_OK/GD32VW55X_Wifi_BLE_SDK/GD32VW55x_RELEASE_V1.0.2/MSDK/wpa_supplicant/src/tls\tlsv1_record.c **** 		   "length %d", ct, in_data[1], in_data[2], (int) rlen);
 907              		.loc 1 300 2 is_stmt 1
 908 0080 A287     		mv	a5,s0
 909 0082 97000000 		call	wpa_printf
 909      E7800000 
 910              	.LVL84:
 308:C:/Users/stapi/OneDrive/Desktop/GD32VW553/V1_MQTT_OK/GD32VW55X_Wifi_BLE_SDK/GD32VW55x_RELEASE_V1.0.2/MSDK/wpa_supplicant/src/tls\tlsv1_record.c **** 		wpa_printf(MSG_DEBUG, "TLSv1: Unexpected protocol version "
 911              		.loc 1 308 2
 308:C:/Users/stapi/OneDrive/Desktop/GD32VW553/V1_MQTT_OK/GD32VW55X_Wifi_BLE_SDK/GD32VW55x_RELEASE_V1.0.2/MSDK/wpa_supplicant/src/tls\tlsv1_record.c **** 		wpa_printf(MSG_DEBUG, "TLSv1: Unexpected protocol version "
 912              		.loc 1 308 13 is_stmt 0
 913 008a 83CC1A00 		lbu	s9,1(s5)
 308:C:/Users/stapi/OneDrive/Desktop/GD32VW553/V1_MQTT_OK/GD32VW55X_Wifi_BLE_SDK/GD32VW55x_RELEASE_V1.0.2/MSDK/wpa_supplicant/src/tls\tlsv1_record.c **** 		wpa_printf(MSG_DEBUG, "TLSv1: Unexpected protocol version "
 914              		.loc 1 308 5
 915 008e 8D47     		li	a5,3
 916 0090 6384FC02 		beq	s9,a5,.L61
 309:C:/Users/stapi/OneDrive/Desktop/GD32VW553/V1_MQTT_OK/GD32VW55X_Wifi_BLE_SDK/GD32VW55x_RELEASE_V1.0.2/MSDK/wpa_supplicant/src/tls\tlsv1_record.c **** 			   "%u.%u", in_data[1], in_data[2]);
 917              		.loc 1 309 3 is_stmt 1
 918 0094 83C62A00 		lbu	a3,2(s5)
 919 0098 B7050000 		lui	a1,%hi(.LC12)
 920 009c 6686     		mv	a2,s9
 921 009e 93850500 		addi	a1,a1,%lo(.LC12)
 922 00a2 0945     		li	a0,2
 923 00a4 97000000 		call	wpa_printf
 923      E7800000 
 924              	.LVL85:
 311:C:/Users/stapi/OneDrive/Desktop/GD32VW553/V1_MQTT_OK/GD32VW55X_Wifi_BLE_SDK/GD32VW55x_RELEASE_V1.0.2/MSDK/wpa_supplicant/src/tls\tlsv1_record.c **** 		return -1;
 925              		.loc 1 311 3
 311:C:/Users/stapi/OneDrive/Desktop/GD32VW553/V1_MQTT_OK/GD32VW55X_Wifi_BLE_SDK/GD32VW55x_RELEASE_V1.0.2/MSDK/wpa_supplicant/src/tls\tlsv1_record.c **** 		return -1;
 926              		.loc 1 311 10 is_stmt 0
 927 00ac 93076004 		li	a5,70
 928              	.LVL86:
 929              	.L89:
 478:C:/Users/stapi/OneDrive/Desktop/GD32VW553/V1_MQTT_OK/GD32VW55X_Wifi_BLE_SDK/GD32VW55x_RELEASE_V1.0.2/MSDK/wpa_supplicant/src/tls\tlsv1_record.c **** 		return -1;
 930              		.loc 1 478 10
 931 00b0 2300FA00 		sb	a5,0(s4)
 479:C:/Users/stapi/OneDrive/Desktop/GD32VW553/V1_MQTT_OK/GD32VW55X_Wifi_BLE_SDK/GD32VW55x_RELEASE_V1.0.2/MSDK/wpa_supplicant/src/tls\tlsv1_record.c **** 	}
 932              		.loc 1 479 3 is_stmt 1
 479:C:/Users/stapi/OneDrive/Desktop/GD32VW553/V1_MQTT_OK/GD32VW55X_Wifi_BLE_SDK/GD32VW55x_RELEASE_V1.0.2/MSDK/wpa_supplicant/src/tls\tlsv1_record.c **** 	}
 933              		.loc 1 479 10 is_stmt 0
 934 00b4 7D55     		li	a0,-1
 935 00b6 69B7     		j	.L58
 936              	.LVL87:
 937              	.L61:
 316:C:/Users/stapi/OneDrive/Desktop/GD32VW553/V1_MQTT_OK/GD32VW55X_Wifi_BLE_SDK/GD32VW55x_RELEASE_V1.0.2/MSDK/wpa_supplicant/src/tls\tlsv1_record.c **** 		wpa_printf(MSG_DEBUG, "TLSv1: Record overflow (len=%lu)",
 938              		.loc 1 316 2 is_stmt 1
 316:C:/Users/stapi/OneDrive/Desktop/GD32VW553/V1_MQTT_OK/GD32VW55X_Wifi_BLE_SDK/GD32VW55x_RELEASE_V1.0.2/MSDK/wpa_supplicant/src/tls\tlsv1_record.c **** 		wpa_printf(MSG_DEBUG, "TLSv1: Record overflow (len=%lu)",
 939              		.loc 1 316 5 is_stmt 0
 940 00b8 9567     		li	a5,20480
 316:C:/Users/stapi/OneDrive/Desktop/GD32VW553/V1_MQTT_OK/GD32VW55X_Wifi_BLE_SDK/GD32VW55x_RELEASE_V1.0.2/MSDK/wpa_supplicant/src/tls\tlsv1_record.c **** 		wpa_printf(MSG_DEBUG, "TLSv1: Record overflow (len=%lu)",
 941              		.loc 1 316 28
 942 00ba 93045400 		addi	s1,s0,5
 316:C:/Users/stapi/OneDrive/Desktop/GD32VW553/V1_MQTT_OK/GD32VW55X_Wifi_BLE_SDK/GD32VW55x_RELEASE_V1.0.2/MSDK/wpa_supplicant/src/tls\tlsv1_record.c **** 		wpa_printf(MSG_DEBUG, "TLSv1: Record overflow (len=%lu)",
 943              		.loc 1 316 5
 944 00be 93870780 		addi	a5,a5,-2048
 317:C:/Users/stapi/OneDrive/Desktop/GD32VW553/V1_MQTT_OK/GD32VW55X_Wifi_BLE_SDK/GD32VW55x_RELEASE_V1.0.2/MSDK/wpa_supplicant/src/tls\tlsv1_record.c **** 			   (unsigned long) (TLS_RECORD_HEADER_LEN + rlen));
 945              		.loc 1 317 3
 946 00c2 2686     		mv	a2,s1
 316:C:/Users/stapi/OneDrive/Desktop/GD32VW553/V1_MQTT_OK/GD32VW55X_Wifi_BLE_SDK/GD32VW55x_RELEASE_V1.0.2/MSDK/wpa_supplicant/src/tls\tlsv1_record.c **** 		wpa_printf(MSG_DEBUG, "TLSv1: Record overflow (len=%lu)",
 947              		.loc 1 316 5
 948 00c4 63E69726 		bgtu	s1,a5,.L91
 323:C:/Users/stapi/OneDrive/Desktop/GD32VW553/V1_MQTT_OK/GD32VW55X_Wifi_BLE_SDK/GD32VW55x_RELEASE_V1.0.2/MSDK/wpa_supplicant/src/tls\tlsv1_record.c **** 	in_len -= TLS_RECORD_HEADER_LEN;
 949              		.loc 1 323 2 is_stmt 1
 950              	.LVL88:
 324:C:/Users/stapi/OneDrive/Desktop/GD32VW553/V1_MQTT_OK/GD32VW55X_Wifi_BLE_SDK/GD32VW55x_RELEASE_V1.0.2/MSDK/wpa_supplicant/src/tls\tlsv1_record.c **** 
 951              		.loc 1 324 2
 324:C:/Users/stapi/OneDrive/Desktop/GD32VW553/V1_MQTT_OK/GD32VW55X_Wifi_BLE_SDK/GD32VW55x_RELEASE_V1.0.2/MSDK/wpa_supplicant/src/tls\tlsv1_record.c **** 
 952              		.loc 1 324 9 is_stmt 0
 953 00c8 9306BBFF 		addi	a3,s6,-5
 954              	.LVL89:
 326:C:/Users/stapi/OneDrive/Desktop/GD32VW553/V1_MQTT_OK/GD32VW55X_Wifi_BLE_SDK/GD32VW55x_RELEASE_V1.0.2/MSDK/wpa_supplicant/src/tls\tlsv1_record.c **** 		wpa_printf(MSG_DEBUG, "TLSv1: Not all record data included "
 955              		.loc 1 326 2 is_stmt 1
 326:C:/Users/stapi/OneDrive/Desktop/GD32VW553/V1_MQTT_OK/GD32VW55X_Wifi_BLE_SDK/GD32VW55x_RELEASE_V1.0.2/MSDK/wpa_supplicant/src/tls\tlsv1_record.c **** 		wpa_printf(MSG_DEBUG, "TLSv1: Not all record data included "
 956              		.loc 1 326 5 is_stmt 0
 957 00cc 63FD8600 		bleu	s0,a3,.L63
 327:C:/Users/stapi/OneDrive/Desktop/GD32VW553/V1_MQTT_OK/GD32VW55X_Wifi_BLE_SDK/GD32VW55x_RELEASE_V1.0.2/MSDK/wpa_supplicant/src/tls\tlsv1_record.c **** 			   "(rlen=%lu > in_len=%lu)",
 958              		.loc 1 327 3 is_stmt 1
 959 00d0 B7050000 		lui	a1,%hi(.LC14)
 960 00d4 2286     		mv	a2,s0
 961 00d6 93850500 		addi	a1,a1,%lo(.LC14)
 962 00da 0945     		li	a0,2
 963 00dc 97000000 		call	wpa_printf
 963      E7800000 
 964              	.LVL90:
 965 00e4 A9BF     		j	.L90
 966              	.LVL91:
 967              	.L63:
 323:C:/Users/stapi/OneDrive/Desktop/GD32VW553/V1_MQTT_OK/GD32VW55X_Wifi_BLE_SDK/GD32VW55x_RELEASE_V1.0.2/MSDK/wpa_supplicant/src/tls\tlsv1_record.c **** 	in_len -= TLS_RECORD_HEADER_LEN;
 968              		.loc 1 323 10 is_stmt 0
 969 00e6 138B5A00 		addi	s6,s5,5
 333:C:/Users/stapi/OneDrive/Desktop/GD32VW553/V1_MQTT_OK/GD32VW55X_Wifi_BLE_SDK/GD32VW55x_RELEASE_V1.0.2/MSDK/wpa_supplicant/src/tls\tlsv1_record.c **** 		    in_data, rlen);
 970              		.loc 1 333 2 is_stmt 1
 971 00ea B7050000 		lui	a1,%hi(.LC10)
 972 00ee A286     		mv	a3,s0
 973              	.LVL92:
 974 00f0 5A86     		mv	a2,s6
 975 00f2 93850500 		addi	a1,a1,%lo(.LC10)
 976 00f6 0545     		li	a0,1
 977 00f8 97000000 		call	wpa_hexdump
 977      E7800000 
 978              	.LVL93:
 336:C:/Users/stapi/OneDrive/Desktop/GD32VW553/V1_MQTT_OK/GD32VW55X_Wifi_BLE_SDK/GD32VW55x_RELEASE_V1.0.2/MSDK/wpa_supplicant/src/tls\tlsv1_record.c **** 	    ct != TLS_CONTENT_TYPE_CHANGE_CIPHER_SPEC &&
 979              		.loc 1 336 2
 336:C:/Users/stapi/OneDrive/Desktop/GD32VW553/V1_MQTT_OK/GD32VW55X_Wifi_BLE_SDK/GD32VW55x_RELEASE_V1.0.2/MSDK/wpa_supplicant/src/tls\tlsv1_record.c **** 	    ct != TLS_CONTENT_TYPE_CHANGE_CIPHER_SPEC &&
 980              		.loc 1 336 39 is_stmt 0
 981 0100 9307CCFE 		addi	a5,s8,-20
 982 0104 93F7F70F 		andi	a5,a5,0xff
 983 0108 63FEFC00 		bleu	a5,s9,.L64
 340:C:/Users/stapi/OneDrive/Desktop/GD32VW553/V1_MQTT_OK/GD32VW55X_Wifi_BLE_SDK/GD32VW55x_RELEASE_V1.0.2/MSDK/wpa_supplicant/src/tls\tlsv1_record.c **** 			   "content type 0x%x", ct);
 984              		.loc 1 340 3 is_stmt 1
 985 010c B7050000 		lui	a1,%hi(.LC15)
 986 0110 6286     		mv	a2,s8
 987 0112 93850500 		addi	a1,a1,%lo(.LC15)
 988 0116 0945     		li	a0,2
 989 0118 97000000 		call	wpa_printf
 989      E7800000 
 990              	.LVL94:
 342:C:/Users/stapi/OneDrive/Desktop/GD32VW553/V1_MQTT_OK/GD32VW55X_Wifi_BLE_SDK/GD32VW55x_RELEASE_V1.0.2/MSDK/wpa_supplicant/src/tls\tlsv1_record.c **** 		return -1;
 991              		.loc 1 342 3
 342:C:/Users/stapi/OneDrive/Desktop/GD32VW553/V1_MQTT_OK/GD32VW55X_Wifi_BLE_SDK/GD32VW55x_RELEASE_V1.0.2/MSDK/wpa_supplicant/src/tls\tlsv1_record.c **** 		return -1;
 992              		.loc 1 342 10 is_stmt 0
 993 0120 A947     		li	a5,10
 994 0122 79B7     		j	.L89
 995              	.L64:
 346:C:/Users/stapi/OneDrive/Desktop/GD32VW553/V1_MQTT_OK/GD32VW55X_Wifi_BLE_SDK/GD32VW55x_RELEASE_V1.0.2/MSDK/wpa_supplicant/src/tls\tlsv1_record.c **** 
 996              		.loc 1 346 2 is_stmt 1
 997              	.LVL95:
 348:C:/Users/stapi/OneDrive/Desktop/GD32VW553/V1_MQTT_OK/GD32VW55X_Wifi_BLE_SDK/GD32VW55x_RELEASE_V1.0.2/MSDK/wpa_supplicant/src/tls\tlsv1_record.c **** 		wpa_printf(MSG_DEBUG, "TLSv1: Not enough output buffer for "
 998              		.loc 1 348 2
 348:C:/Users/stapi/OneDrive/Desktop/GD32VW553/V1_MQTT_OK/GD32VW55X_Wifi_BLE_SDK/GD32VW55x_RELEASE_V1.0.2/MSDK/wpa_supplicant/src/tls\tlsv1_record.c **** 		wpa_printf(MSG_DEBUG, "TLSv1: Not enough output buffer for "
 999              		.loc 1 348 5 is_stmt 0
 1000 0124 83A70B00 		lw	a5,0(s7)
 1001 0128 63FE8700 		bgeu	a5,s0,.L65
 349:C:/Users/stapi/OneDrive/Desktop/GD32VW553/V1_MQTT_OK/GD32VW55X_Wifi_BLE_SDK/GD32VW55x_RELEASE_V1.0.2/MSDK/wpa_supplicant/src/tls\tlsv1_record.c **** 			   "processing received record");
 1002              		.loc 1 349 3 is_stmt 1
 1003 012c B7050000 		lui	a1,%hi(.LC16)
 1004 0130 93850500 		addi	a1,a1,%lo(.LC16)
 1005              	.LVL96:
 1006              	.L92:
 1007              	.LBB35:
 453:C:/Users/stapi/OneDrive/Desktop/GD32VW553/V1_MQTT_OK/GD32VW55X_Wifi_BLE_SDK/GD32VW55x_RELEASE_V1.0.2/MSDK/wpa_supplicant/src/tls\tlsv1_record.c **** 				   "to calculate HMAC");
 1008              		.loc 1 453 4 is_stmt 0
 1009 0134 0945     		li	a0,2
 1010 0136 97000000 		call	wpa_printf
 1010      E7800000 
 1011              	.LVL97:
 455:C:/Users/stapi/OneDrive/Desktop/GD32VW553/V1_MQTT_OK/GD32VW55X_Wifi_BLE_SDK/GD32VW55x_RELEASE_V1.0.2/MSDK/wpa_supplicant/src/tls\tlsv1_record.c **** 			return -1;
 1012              		.loc 1 455 4 is_stmt 1
 455:C:/Users/stapi/OneDrive/Desktop/GD32VW553/V1_MQTT_OK/GD32VW55X_Wifi_BLE_SDK/GD32VW55x_RELEASE_V1.0.2/MSDK/wpa_supplicant/src/tls\tlsv1_record.c **** 			return -1;
 1013              		.loc 1 455 11 is_stmt 0
 1014 013e 93070005 		li	a5,80
 1015 0142 BDB7     		j	.L89
 1016              	.LVL98:
 1017              	.L65:
 1018              	.LBE35:
 355:C:/Users/stapi/OneDrive/Desktop/GD32VW553/V1_MQTT_OK/GD32VW55X_Wifi_BLE_SDK/GD32VW55x_RELEASE_V1.0.2/MSDK/wpa_supplicant/src/tls\tlsv1_record.c **** 		size_t plen;
 1019              		.loc 1 355 2 is_stmt 1
 355:C:/Users/stapi/OneDrive/Desktop/GD32VW553/V1_MQTT_OK/GD32VW55X_Wifi_BLE_SDK/GD32VW55x_RELEASE_V1.0.2/MSDK/wpa_supplicant/src/tls\tlsv1_record.c **** 		size_t plen;
 1020              		.loc 1 355 5 is_stmt 0
 1021 0144 8357C90C 		lhu	a5,204(s2)
 1022 0148 638F071E 		beq	a5,zero,.L66
 1023              	.LBB40:
 356:C:/Users/stapi/OneDrive/Desktop/GD32VW553/V1_MQTT_OK/GD32VW55X_Wifi_BLE_SDK/GD32VW55x_RELEASE_V1.0.2/MSDK/wpa_supplicant/src/tls\tlsv1_record.c **** 		if (crypto_cipher_decrypt(rl->read_cbc, in_data,
 1024              		.loc 1 356 3 is_stmt 1
 357:C:/Users/stapi/OneDrive/Desktop/GD32VW553/V1_MQTT_OK/GD32VW55X_Wifi_BLE_SDK/GD32VW55x_RELEASE_V1.0.2/MSDK/wpa_supplicant/src/tls\tlsv1_record.c **** 					  out_data, in_len) < 0) {
 1025              		.loc 1 357 3
 357:C:/Users/stapi/OneDrive/Desktop/GD32VW553/V1_MQTT_OK/GD32VW55X_Wifi_BLE_SDK/GD32VW55x_RELEASE_V1.0.2/MSDK/wpa_supplicant/src/tls\tlsv1_record.c **** 					  out_data, in_len) < 0) {
 1026              		.loc 1 357 7 is_stmt 0
 1027 014c 0325490D 		lw	a0,212(s2)
 1028 0150 A286     		mv	a3,s0
 1029 0152 4E86     		mv	a2,s3
 1030 0154 DA85     		mv	a1,s6
 1031 0156 97000000 		call	crypto_cipher_decrypt
 1031      E7800000 
 1032              	.LVL99:
 359:C:/Users/stapi/OneDrive/Desktop/GD32VW553/V1_MQTT_OK/GD32VW55X_Wifi_BLE_SDK/GD32VW55x_RELEASE_V1.0.2/MSDK/wpa_supplicant/src/tls\tlsv1_record.c **** 			return -1;
 1033              		.loc 1 359 11
 1034 015e D547     		li	a5,21
 357:C:/Users/stapi/OneDrive/Desktop/GD32VW553/V1_MQTT_OK/GD32VW55X_Wifi_BLE_SDK/GD32VW55x_RELEASE_V1.0.2/MSDK/wpa_supplicant/src/tls\tlsv1_record.c **** 					  out_data, in_len) < 0) {
 1035              		.loc 1 357 6
 1036 0160 E34805F4 		blt	a0,zero,.L89
 362:C:/Users/stapi/OneDrive/Desktop/GD32VW553/V1_MQTT_OK/GD32VW55X_Wifi_BLE_SDK/GD32VW55x_RELEASE_V1.0.2/MSDK/wpa_supplicant/src/tls\tlsv1_record.c **** 		wpa_hexdump_key(MSG_MSGDUMP, "TLSv1: Record Layer - Decrypted "
 1037              		.loc 1 362 3 is_stmt 1
 1038              	.LVL100:
 363:C:/Users/stapi/OneDrive/Desktop/GD32VW553/V1_MQTT_OK/GD32VW55X_Wifi_BLE_SDK/GD32VW55x_RELEASE_V1.0.2/MSDK/wpa_supplicant/src/tls\tlsv1_record.c **** 				"data", out_data, plen);
 1039              		.loc 1 363 3
 1040 0164 B7050000 		lui	a1,%hi(.LC17)
 1041 0168 93850500 		addi	a1,a1,%lo(.LC17)
 1042 016c A286     		mv	a3,s0
 1043 016e 4E86     		mv	a2,s3
 1044 0170 0545     		li	a0,1
 1045 0172 97000000 		call	wpa_hexdump_key
 1045      E7800000 
 1046              	.LVL101:
 366:C:/Users/stapi/OneDrive/Desktop/GD32VW553/V1_MQTT_OK/GD32VW55X_Wifi_BLE_SDK/GD32VW55x_RELEASE_V1.0.2/MSDK/wpa_supplicant/src/tls\tlsv1_record.c **** 			/*
 1047              		.loc 1 366 3
 366:C:/Users/stapi/OneDrive/Desktop/GD32VW553/V1_MQTT_OK/GD32VW55X_Wifi_BLE_SDK/GD32VW55x_RELEASE_V1.0.2/MSDK/wpa_supplicant/src/tls\tlsv1_record.c **** 			/*
 1048              		.loc 1 366 9 is_stmt 0
 1049 017a 8325C90A 		lw	a1,172(s2)
 1050              	.LBE40:
 286:C:/Users/stapi/OneDrive/Desktop/GD32VW553/V1_MQTT_OK/GD32VW55X_Wifi_BLE_SDK/GD32VW55x_RELEASE_V1.0.2/MSDK/wpa_supplicant/src/tls\tlsv1_record.c **** 	u8 ct;
 1051              		.loc 1 286 6
 1052 017e 014B     		li	s6,0
 1053              	.LBB41:
 366:C:/Users/stapi/OneDrive/Desktop/GD32VW553/V1_MQTT_OK/GD32VW55X_Wifi_BLE_SDK/GD32VW55x_RELEASE_V1.0.2/MSDK/wpa_supplicant/src/tls\tlsv1_record.c **** 			/*
 1054              		.loc 1 366 6
 1055 0180 9DC1     		beq	a1,zero,.L68
 378:C:/Users/stapi/OneDrive/Desktop/GD32VW553/V1_MQTT_OK/GD32VW55X_Wifi_BLE_SDK/GD32VW55x_RELEASE_V1.0.2/MSDK/wpa_supplicant/src/tls\tlsv1_record.c **** 				/* Remove opaque IV[Cipherspec.block_length] */
 1056              		.loc 1 378 4 is_stmt 1
 378:C:/Users/stapi/OneDrive/Desktop/GD32VW553/V1_MQTT_OK/GD32VW55X_Wifi_BLE_SDK/GD32VW55x_RELEASE_V1.0.2/MSDK/wpa_supplicant/src/tls\tlsv1_record.c **** 				/* Remove opaque IV[Cipherspec.block_length] */
 1057              		.loc 1 378 7 is_stmt 0
 1058 0182 03570900 		lhu	a4,0(s2)
 1059 0186 93071030 		li	a5,769
 1060 018a 63F8E704 		bleu	a4,a5,.L69
 380:C:/Users/stapi/OneDrive/Desktop/GD32VW553/V1_MQTT_OK/GD32VW55X_Wifi_BLE_SDK/GD32VW55x_RELEASE_V1.0.2/MSDK/wpa_supplicant/src/tls\tlsv1_record.c **** 					wpa_printf(MSG_DEBUG, "TLSv1.1: Not "
 1061              		.loc 1 380 5 is_stmt 1
 380:C:/Users/stapi/OneDrive/Desktop/GD32VW553/V1_MQTT_OK/GD32VW55X_Wifi_BLE_SDK/GD32VW55x_RELEASE_V1.0.2/MSDK/wpa_supplicant/src/tls\tlsv1_record.c **** 					wpa_printf(MSG_DEBUG, "TLSv1.1: Not "
 1062              		.loc 1 380 8 is_stmt 0
 1063 018e 637BB402 		bleu	a1,s0,.L70
 381:C:/Users/stapi/OneDrive/Desktop/GD32VW553/V1_MQTT_OK/GD32VW55X_Wifi_BLE_SDK/GD32VW55x_RELEASE_V1.0.2/MSDK/wpa_supplicant/src/tls\tlsv1_record.c **** 						   "enough room for IV");
 1064              		.loc 1 381 6 is_stmt 1
 1065 0192 B7050000 		lui	a1,%hi(.LC18)
 1066 0196 93850500 		addi	a1,a1,%lo(.LC18)
 1067              	.LVL102:
 1068              	.L86:
 393:C:/Users/stapi/OneDrive/Desktop/GD32VW553/V1_MQTT_OK/GD32VW55X_Wifi_BLE_SDK/GD32VW55x_RELEASE_V1.0.2/MSDK/wpa_supplicant/src/tls\tlsv1_record.c **** 					   " (no pad)");
 1069              		.loc 1 393 5 is_stmt 0
 1070 019a 0945     		li	a0,2
 1071 019c 97000000 		call	wpa_printf
 1071      E7800000 
 1072              	.LVL103:
 1073              	.L87:
 395:C:/Users/stapi/OneDrive/Desktop/GD32VW553/V1_MQTT_OK/GD32VW55X_Wifi_BLE_SDK/GD32VW55x_RELEASE_V1.0.2/MSDK/wpa_supplicant/src/tls\tlsv1_record.c **** 				goto check_mac;
 1074              		.loc 1 395 5 is_stmt 1
 396:C:/Users/stapi/OneDrive/Desktop/GD32VW553/V1_MQTT_OK/GD32VW55X_Wifi_BLE_SDK/GD32VW55x_RELEASE_V1.0.2/MSDK/wpa_supplicant/src/tls\tlsv1_record.c **** 			}
 1075              		.loc 1 396 5
 395:C:/Users/stapi/OneDrive/Desktop/GD32VW553/V1_MQTT_OK/GD32VW55X_Wifi_BLE_SDK/GD32VW55x_RELEASE_V1.0.2/MSDK/wpa_supplicant/src/tls\tlsv1_record.c **** 				goto check_mac;
 1076              		.loc 1 395 21 is_stmt 0
 1077 01a4 054B     		li	s6,1
 1078              	.LVL104:
 1079              	.L68:
 427:C:/Users/stapi/OneDrive/Desktop/GD32VW553/V1_MQTT_OK/GD32VW55X_Wifi_BLE_SDK/GD32VW55x_RELEASE_V1.0.2/MSDK/wpa_supplicant/src/tls\tlsv1_record.c **** 			wpa_printf(MSG_DEBUG, "TLSv1: Too short record; no "
 1080              		.loc 1 427 3 is_stmt 1
 427:C:/Users/stapi/OneDrive/Desktop/GD32VW553/V1_MQTT_OK/GD32VW55X_Wifi_BLE_SDK/GD32VW55x_RELEASE_V1.0.2/MSDK/wpa_supplicant/src/tls\tlsv1_record.c **** 			wpa_printf(MSG_DEBUG, "TLSv1: Too short record; no "
 1081              		.loc 1 427 16 is_stmt 0
 1082 01a6 0326490A 		lw	a2,164(s2)
 427:C:/Users/stapi/OneDrive/Desktop/GD32VW553/V1_MQTT_OK/GD32VW55X_Wifi_BLE_SDK/GD32VW55x_RELEASE_V1.0.2/MSDK/wpa_supplicant/src/tls\tlsv1_record.c **** 			wpa_printf(MSG_DEBUG, "TLSv1: Too short record; no "
 1083              		.loc 1 427 6
 1084 01aa 637AC40A 		bleu	a2,s0,.L76
 428:C:/Users/stapi/OneDrive/Desktop/GD32VW553/V1_MQTT_OK/GD32VW55X_Wifi_BLE_SDK/GD32VW55x_RELEASE_V1.0.2/MSDK/wpa_supplicant/src/tls\tlsv1_record.c **** 				   "hash value");
 1085              		.loc 1 428 4 is_stmt 1
 1086 01ae B7050000 		lui	a1,%hi(.LC23)
 1087 01b2 93850500 		addi	a1,a1,%lo(.LC23)
 1088 01b6 0945     		li	a0,2
 1089 01b8 97000000 		call	wpa_printf
 1089      E7800000 
 1090              	.LVL105:
 430:C:/Users/stapi/OneDrive/Desktop/GD32VW553/V1_MQTT_OK/GD32VW55X_Wifi_BLE_SDK/GD32VW55x_RELEASE_V1.0.2/MSDK/wpa_supplicant/src/tls\tlsv1_record.c **** 			return -1;
 1091              		.loc 1 430 4
 1092              	.L93:
 464:C:/Users/stapi/OneDrive/Desktop/GD32VW553/V1_MQTT_OK/GD32VW55X_Wifi_BLE_SDK/GD32VW55x_RELEASE_V1.0.2/MSDK/wpa_supplicant/src/tls\tlsv1_record.c **** 			return -1;
 1093              		.loc 1 464 4
 464:C:/Users/stapi/OneDrive/Desktop/GD32VW553/V1_MQTT_OK/GD32VW55X_Wifi_BLE_SDK/GD32VW55x_RELEASE_V1.0.2/MSDK/wpa_supplicant/src/tls\tlsv1_record.c **** 			return -1;
 1094              		.loc 1 464 11 is_stmt 0
 1095 01c0 D147     		li	a5,20
 1096 01c2 FDB5     		j	.L89
 1097              	.LVL106:
 1098              	.L70:
 386:C:/Users/stapi/OneDrive/Desktop/GD32VW553/V1_MQTT_OK/GD32VW55X_Wifi_BLE_SDK/GD32VW55x_RELEASE_V1.0.2/MSDK/wpa_supplicant/src/tls\tlsv1_record.c **** 					   plen - rl->iv_size);
 1099              		.loc 1 386 5 is_stmt 1
 1100 01c4 3306B440 		sub	a2,s0,a1
 1101 01c8 4E85     		mv	a0,s3
 1102 01ca CE95     		add	a1,s3,a1
 1103 01cc 97000000 		call	os_memmove
 1103      E7800000 
 1104              	.LVL107:
 388:C:/Users/stapi/OneDrive/Desktop/GD32VW553/V1_MQTT_OK/GD32VW55X_Wifi_BLE_SDK/GD32VW55x_RELEASE_V1.0.2/MSDK/wpa_supplicant/src/tls\tlsv1_record.c **** 			}
 1105              		.loc 1 388 5
 388:C:/Users/stapi/OneDrive/Desktop/GD32VW553/V1_MQTT_OK/GD32VW55X_Wifi_BLE_SDK/GD32VW55x_RELEASE_V1.0.2/MSDK/wpa_supplicant/src/tls\tlsv1_record.c **** 			}
 1106              		.loc 1 388 10 is_stmt 0
 1107 01d4 8327C90A 		lw	a5,172(s2)
 1108 01d8 1D8C     		sub	s0,s0,a5
 1109              	.LVL108:
 1110              	.L69:
 392:C:/Users/stapi/OneDrive/Desktop/GD32VW553/V1_MQTT_OK/GD32VW55X_Wifi_BLE_SDK/GD32VW55x_RELEASE_V1.0.2/MSDK/wpa_supplicant/src/tls\tlsv1_record.c **** 				wpa_printf(MSG_DEBUG, "TLSv1: Too short record"
 1111              		.loc 1 392 4 is_stmt 1
 392:C:/Users/stapi/OneDrive/Desktop/GD32VW553/V1_MQTT_OK/GD32VW55X_Wifi_BLE_SDK/GD32VW55x_RELEASE_V1.0.2/MSDK/wpa_supplicant/src/tls\tlsv1_record.c **** 				wpa_printf(MSG_DEBUG, "TLSv1: Too short record"
 1112              		.loc 1 392 7 is_stmt 0
 1113 01da 11E4     		bne	s0,zero,.L71
 393:C:/Users/stapi/OneDrive/Desktop/GD32VW553/V1_MQTT_OK/GD32VW55X_Wifi_BLE_SDK/GD32VW55x_RELEASE_V1.0.2/MSDK/wpa_supplicant/src/tls\tlsv1_record.c **** 					   " (no pad)");
 1114              		.loc 1 393 5 is_stmt 1
 1115 01dc B7050000 		lui	a1,%hi(.LC19)
 1116 01e0 93850500 		addi	a1,a1,%lo(.LC19)
 1117 01e4 5DBF     		j	.L86
 1118              	.L71:
 398:C:/Users/stapi/OneDrive/Desktop/GD32VW553/V1_MQTT_OK/GD32VW55X_Wifi_BLE_SDK/GD32VW55x_RELEASE_V1.0.2/MSDK/wpa_supplicant/src/tls\tlsv1_record.c **** 			if (padlen >= plen) {
 1119              		.loc 1 398 4
 398:C:/Users/stapi/OneDrive/Desktop/GD32VW553/V1_MQTT_OK/GD32VW55X_Wifi_BLE_SDK/GD32VW55x_RELEASE_V1.0.2/MSDK/wpa_supplicant/src/tls\tlsv1_record.c **** 			if (padlen >= plen) {
 1120              		.loc 1 398 21 is_stmt 0
 1121 01e6 1307F4FF 		addi	a4,s0,-1
 398:C:/Users/stapi/OneDrive/Desktop/GD32VW553/V1_MQTT_OK/GD32VW55X_Wifi_BLE_SDK/GD32VW55x_RELEASE_V1.0.2/MSDK/wpa_supplicant/src/tls\tlsv1_record.c **** 			if (padlen >= plen) {
 1122              		.loc 1 398 11
 1123 01ea B387E900 		add	a5,s3,a4
 1124 01ee 03C60700 		lbu	a2,0(a5)
 1125              	.LVL109:
 399:C:/Users/stapi/OneDrive/Desktop/GD32VW553/V1_MQTT_OK/GD32VW55X_Wifi_BLE_SDK/GD32VW55x_RELEASE_V1.0.2/MSDK/wpa_supplicant/src/tls\tlsv1_record.c **** 				wpa_printf(MSG_DEBUG, "TLSv1: Incorrect pad "
 1126              		.loc 1 399 4 is_stmt 1
 399:C:/Users/stapi/OneDrive/Desktop/GD32VW553/V1_MQTT_OK/GD32VW55X_Wifi_BLE_SDK/GD32VW55x_RELEASE_V1.0.2/MSDK/wpa_supplicant/src/tls\tlsv1_record.c **** 				wpa_printf(MSG_DEBUG, "TLSv1: Incorrect pad "
 1127              		.loc 1 399 7 is_stmt 0
 1128 01f2 636D8600 		bltu	a2,s0,.L72
 400:C:/Users/stapi/OneDrive/Desktop/GD32VW553/V1_MQTT_OK/GD32VW55X_Wifi_BLE_SDK/GD32VW55x_RELEASE_V1.0.2/MSDK/wpa_supplicant/src/tls\tlsv1_record.c **** 					   "length (%u, plen=%lu) in "
 1129              		.loc 1 400 5 is_stmt 1
 1130 01f6 B7050000 		lui	a1,%hi(.LC20)
 1131 01fa A286     		mv	a3,s0
 1132 01fc 93850500 		addi	a1,a1,%lo(.LC20)
 1133 0200 0945     		li	a0,2
 1134 0202 97000000 		call	wpa_printf
 1134      E7800000 
 1135              	.LVL110:
 404:C:/Users/stapi/OneDrive/Desktop/GD32VW553/V1_MQTT_OK/GD32VW55X_Wifi_BLE_SDK/GD32VW55x_RELEASE_V1.0.2/MSDK/wpa_supplicant/src/tls\tlsv1_record.c **** 				goto check_mac;
 1136              		.loc 1 404 5
 405:C:/Users/stapi/OneDrive/Desktop/GD32VW553/V1_MQTT_OK/GD32VW55X_Wifi_BLE_SDK/GD32VW55x_RELEASE_V1.0.2/MSDK/wpa_supplicant/src/tls\tlsv1_record.c **** 			}
 1137              		.loc 1 405 5
 1138 020a 69BF     		j	.L87
 1139              	.LVL111:
 1140              	.L72:
 407:C:/Users/stapi/OneDrive/Desktop/GD32VW553/V1_MQTT_OK/GD32VW55X_Wifi_BLE_SDK/GD32VW55x_RELEASE_V1.0.2/MSDK/wpa_supplicant/src/tls\tlsv1_record.c **** 				if (out_data[i] != padlen) {
 1141              		.loc 1 407 4
 407:C:/Users/stapi/OneDrive/Desktop/GD32VW553/V1_MQTT_OK/GD32VW55X_Wifi_BLE_SDK/GD32VW55x_RELEASE_V1.0.2/MSDK/wpa_supplicant/src/tls\tlsv1_record.c **** 				if (out_data[i] != padlen) {
 1142              		.loc 1 407 11 is_stmt 0
 1143 020c 330BC740 		sub	s6,a4,a2
 1144              	.LVL112:
 1145 0210 DA87     		mv	a5,s6
 1146              	.LVL113:
 1147              	.L73:
 407:C:/Users/stapi/OneDrive/Desktop/GD32VW553/V1_MQTT_OK/GD32VW55X_Wifi_BLE_SDK/GD32VW55x_RELEASE_V1.0.2/MSDK/wpa_supplicant/src/tls\tlsv1_record.c **** 				if (out_data[i] != padlen) {
 1148              		.loc 1 407 32 is_stmt 1 discriminator 1
 407:C:/Users/stapi/OneDrive/Desktop/GD32VW553/V1_MQTT_OK/GD32VW55X_Wifi_BLE_SDK/GD32VW55x_RELEASE_V1.0.2/MSDK/wpa_supplicant/src/tls\tlsv1_record.c **** 				if (out_data[i] != padlen) {
 1149              		.loc 1 407 4 is_stmt 0 discriminator 1
 1150 0212 63E0E702 		bgtu	a4,a5,.L75
 419:C:/Users/stapi/OneDrive/Desktop/GD32VW553/V1_MQTT_OK/GD32VW55X_Wifi_BLE_SDK/GD32VW55x_RELEASE_V1.0.2/MSDK/wpa_supplicant/src/tls\tlsv1_record.c **** 
 1151              		.loc 1 419 4 is_stmt 1
 1152              	.LVL114:
 421:C:/Users/stapi/OneDrive/Desktop/GD32VW553/V1_MQTT_OK/GD32VW55X_Wifi_BLE_SDK/GD32VW55x_RELEASE_V1.0.2/MSDK/wpa_supplicant/src/tls\tlsv1_record.c **** 					"Decrypted data with IV and padding "
 1153              		.loc 1 421 4
 1154 0216 B7050000 		lui	a1,%hi(.LC22)
 1155 021a DA86     		mv	a3,s6
 1156 021c 4E86     		mv	a2,s3
 1157              	.LVL115:
 1158 021e 93850500 		addi	a1,a1,%lo(.LC22)
 1159 0222 0545     		li	a0,1
 419:C:/Users/stapi/OneDrive/Desktop/GD32VW553/V1_MQTT_OK/GD32VW55X_Wifi_BLE_SDK/GD32VW55x_RELEASE_V1.0.2/MSDK/wpa_supplicant/src/tls\tlsv1_record.c **** 
 1160              		.loc 1 419 9 is_stmt 0
 1161 0224 5A84     		mv	s0,s6
 421:C:/Users/stapi/OneDrive/Desktop/GD32VW553/V1_MQTT_OK/GD32VW55X_Wifi_BLE_SDK/GD32VW55x_RELEASE_V1.0.2/MSDK/wpa_supplicant/src/tls\tlsv1_record.c **** 					"Decrypted data with IV and padding "
 1162              		.loc 1 421 4
 1163 0226 97000000 		call	wpa_hexdump_key
 1163      E7800000 
 1164              	.LVL116:
 1165              	.LBE41:
 286:C:/Users/stapi/OneDrive/Desktop/GD32VW553/V1_MQTT_OK/GD32VW55X_Wifi_BLE_SDK/GD32VW55x_RELEASE_V1.0.2/MSDK/wpa_supplicant/src/tls\tlsv1_record.c **** 	u8 ct;
 1166              		.loc 1 286 6
 1167 022e 014B     		li	s6,0
 1168              	.LVL117:
 1169 0230 9DBF     		j	.L68
 1170              	.LVL118:
 1171              	.L75:
 1172              	.LBB42:
 408:C:/Users/stapi/OneDrive/Desktop/GD32VW553/V1_MQTT_OK/GD32VW55X_Wifi_BLE_SDK/GD32VW55x_RELEASE_V1.0.2/MSDK/wpa_supplicant/src/tls\tlsv1_record.c **** 					wpa_hexdump(MSG_DEBUG,
 1173              		.loc 1 408 5 is_stmt 1
 408:C:/Users/stapi/OneDrive/Desktop/GD32VW553/V1_MQTT_OK/GD32VW55X_Wifi_BLE_SDK/GD32VW55x_RELEASE_V1.0.2/MSDK/wpa_supplicant/src/tls\tlsv1_record.c **** 					wpa_hexdump(MSG_DEBUG,
 1174              		.loc 1 408 17 is_stmt 0
 1175 0232 B386F900 		add	a3,s3,a5
 408:C:/Users/stapi/OneDrive/Desktop/GD32VW553/V1_MQTT_OK/GD32VW55X_Wifi_BLE_SDK/GD32VW55x_RELEASE_V1.0.2/MSDK/wpa_supplicant/src/tls\tlsv1_record.c **** 					wpa_hexdump(MSG_DEBUG,
 1176              		.loc 1 408 8
 1177 0236 83C60600 		lbu	a3,0(a3)
 1178 023a 6380C602 		beq	a3,a2,.L74
 409:C:/Users/stapi/OneDrive/Desktop/GD32VW553/V1_MQTT_OK/GD32VW55X_Wifi_BLE_SDK/GD32VW55x_RELEASE_V1.0.2/MSDK/wpa_supplicant/src/tls\tlsv1_record.c **** 						    "TLSv1: Invalid pad in "
 1179              		.loc 1 409 6 is_stmt 1
 1180 023e B7050000 		lui	a1,%hi(.LC21)
 1181 0242 93061600 		addi	a3,a2,1
 1182 0246 93850500 		addi	a1,a1,%lo(.LC21)
 1183 024a 33866901 		add	a2,s3,s6
 1184              	.LVL119:
 1185 024e 0945     		li	a0,2
 1186 0250 97000000 		call	wpa_hexdump
 1186      E7800000 
 1187              	.LVL120:
 414:C:/Users/stapi/OneDrive/Desktop/GD32VW553/V1_MQTT_OK/GD32VW55X_Wifi_BLE_SDK/GD32VW55x_RELEASE_V1.0.2/MSDK/wpa_supplicant/src/tls\tlsv1_record.c **** 					goto check_mac;
 1188              		.loc 1 414 6
 415:C:/Users/stapi/OneDrive/Desktop/GD32VW553/V1_MQTT_OK/GD32VW55X_Wifi_BLE_SDK/GD32VW55x_RELEASE_V1.0.2/MSDK/wpa_supplicant/src/tls\tlsv1_record.c **** 				}
 1189              		.loc 1 415 6
 1190 0258 B1B7     		j	.L87
 1191              	.LVL121:
 1192              	.L74:
 407:C:/Users/stapi/OneDrive/Desktop/GD32VW553/V1_MQTT_OK/GD32VW55X_Wifi_BLE_SDK/GD32VW55x_RELEASE_V1.0.2/MSDK/wpa_supplicant/src/tls\tlsv1_record.c **** 				if (out_data[i] != padlen) {
 1193              		.loc 1 407 46 discriminator 2
 407:C:/Users/stapi/OneDrive/Desktop/GD32VW553/V1_MQTT_OK/GD32VW55X_Wifi_BLE_SDK/GD32VW55x_RELEASE_V1.0.2/MSDK/wpa_supplicant/src/tls\tlsv1_record.c **** 				if (out_data[i] != padlen) {
 1194              		.loc 1 407 47 is_stmt 0 discriminator 2
 1195 025a 8507     		addi	a5,a5,1
 1196              	.LVL122:
 1197 025c 5DBF     		j	.L73
 1198              	.LVL123:
 1199              	.L76:
 434:C:/Users/stapi/OneDrive/Desktop/GD32VW553/V1_MQTT_OK/GD32VW55X_Wifi_BLE_SDK/GD32VW55x_RELEASE_V1.0.2/MSDK/wpa_supplicant/src/tls\tlsv1_record.c **** 
 1200              		.loc 1 434 3 is_stmt 1
 436:C:/Users/stapi/OneDrive/Desktop/GD32VW553/V1_MQTT_OK/GD32VW55X_Wifi_BLE_SDK/GD32VW55x_RELEASE_V1.0.2/MSDK/wpa_supplicant/src/tls\tlsv1_record.c **** 					rl->hash_size);
 1201              		.loc 1 436 10 is_stmt 0
 1202 025e 0325090B 		lw	a0,176(s2)
 1203 0262 93052902 		addi	a1,s2,34
 434:C:/Users/stapi/OneDrive/Desktop/GD32VW553/V1_MQTT_OK/GD32VW55X_Wifi_BLE_SDK/GD32VW55x_RELEASE_V1.0.2/MSDK/wpa_supplicant/src/tls\tlsv1_record.c **** 
 1204              		.loc 1 434 8
 1205 0266 118C     		sub	s0,s0,a2
 1206              	.LVL124:
 436:C:/Users/stapi/OneDrive/Desktop/GD32VW553/V1_MQTT_OK/GD32VW55X_Wifi_BLE_SDK/GD32VW55x_RELEASE_V1.0.2/MSDK/wpa_supplicant/src/tls\tlsv1_record.c **** 					rl->hash_size);
 1207              		.loc 1 436 3 is_stmt 1
 436:C:/Users/stapi/OneDrive/Desktop/GD32VW553/V1_MQTT_OK/GD32VW55X_Wifi_BLE_SDK/GD32VW55x_RELEASE_V1.0.2/MSDK/wpa_supplicant/src/tls\tlsv1_record.c **** 					rl->hash_size);
 1208              		.loc 1 436 10 is_stmt 0
 1209 0268 97000000 		call	crypto_hash_init
 1209      E7800000 
 1210              	.LVL125:
 1211 0270 2A8C     		mv	s8,a0
 1212              	.LVL126:
 438:C:/Users/stapi/OneDrive/Desktop/GD32VW553/V1_MQTT_OK/GD32VW55X_Wifi_BLE_SDK/GD32VW55x_RELEASE_V1.0.2/MSDK/wpa_supplicant/src/tls\tlsv1_record.c **** 			wpa_printf(MSG_DEBUG, "TLSv1: Record Layer - Failed "
 1213              		.loc 1 438 3 is_stmt 1
 438:C:/Users/stapi/OneDrive/Desktop/GD32VW553/V1_MQTT_OK/GD32VW55X_Wifi_BLE_SDK/GD32VW55x_RELEASE_V1.0.2/MSDK/wpa_supplicant/src/tls\tlsv1_record.c **** 			wpa_printf(MSG_DEBUG, "TLSv1: Record Layer - Failed "
 1214              		.loc 1 438 6 is_stmt 0
 1215 0272 11E5     		bne	a0,zero,.L77
 439:C:/Users/stapi/OneDrive/Desktop/GD32VW553/V1_MQTT_OK/GD32VW55X_Wifi_BLE_SDK/GD32VW55x_RELEASE_V1.0.2/MSDK/wpa_supplicant/src/tls\tlsv1_record.c **** 				   "to initialize HMAC");
 1216              		.loc 1 439 4 is_stmt 1
 1217 0274 B7050000 		lui	a1,%hi(.LC4)
 1218 0278 93850500 		addi	a1,a1,%lo(.LC4)
 1219 027c 65BD     		j	.L92
 1220              	.L77:
 445:C:/Users/stapi/OneDrive/Desktop/GD32VW553/V1_MQTT_OK/GD32VW55X_Wifi_BLE_SDK/GD32VW55x_RELEASE_V1.0.2/MSDK/wpa_supplicant/src/tls\tlsv1_record.c **** 		/* type + version + length + fragment */
 1221              		.loc 1 445 3
 1222 027e 2146     		li	a2,8
 1223 0280 9305090C 		addi	a1,s2,192
 1224 0284 97000000 		call	crypto_hash_update
 1224      E7800000 
 1225              	.LVL127:
 447:C:/Users/stapi/OneDrive/Desktop/GD32VW553/V1_MQTT_OK/GD32VW55X_Wifi_BLE_SDK/GD32VW55x_RELEASE_V1.0.2/MSDK/wpa_supplicant/src/tls\tlsv1_record.c **** 		WPA_PUT_BE16(len, plen);
 1226              		.loc 1 447 3
 1227 028c 0D46     		li	a2,3
 1228 028e D685     		mv	a1,s5
 1229 0290 6285     		mv	a0,s8
 1230 0292 97000000 		call	crypto_hash_update
 1230      E7800000 
 1231              	.LVL128:
 448:C:/Users/stapi/OneDrive/Desktop/GD32VW553/V1_MQTT_OK/GD32VW55X_Wifi_BLE_SDK/GD32VW55x_RELEASE_V1.0.2/MSDK/wpa_supplicant/src/tls\tlsv1_record.c **** 		crypto_hash_update(hmac, len, 2);
 1232              		.loc 1 448 3
 1233              	.LBB36:
 1234              	.LBB37:
 247:..\..\..\..\wpa_supplicant\src\utils/common.h **** 	a[1] = val & 0xff;
 1235              		.loc 2 247 2
 1236              		.loc 2 248 2
 247:..\..\..\..\wpa_supplicant\src\utils/common.h **** 	a[1] = val & 0xff;
 1237              		.loc 2 247 7 is_stmt 0
 1238 029a 93178400 		slli	a5,s0,8
 1239 029e 33470408 		zext.h	a4,s0
 1240 02a2 2183     		srli	a4,a4,8
 1241 02a4 D98F     		or	a5,a5,a4
 1242              	.LBE37:
 1243              	.LBE36:
 449:C:/Users/stapi/OneDrive/Desktop/GD32VW553/V1_MQTT_OK/GD32VW55X_Wifi_BLE_SDK/GD32VW55x_RELEASE_V1.0.2/MSDK/wpa_supplicant/src/tls\tlsv1_record.c **** 		crypto_hash_update(hmac, out_data, plen);
 1244              		.loc 1 449 3
 1245 02a6 0946     		li	a2,2
 1246 02a8 4C00     		addi	a1,sp,4
 1247              	.LVL129:
 1248 02aa 6285     		mv	a0,s8
 1249              	.LBB39:
 1250              	.LBB38:
 247:..\..\..\..\wpa_supplicant\src\utils/common.h **** 	a[1] = val & 0xff;
 1251              		.loc 2 247 7
 1252 02ac 2312F100 		sh	a5,4(sp)
 1253              	.LVL130:
 1254              	.LBE38:
 1255              	.LBE39:
 449:C:/Users/stapi/OneDrive/Desktop/GD32VW553/V1_MQTT_OK/GD32VW55X_Wifi_BLE_SDK/GD32VW55x_RELEASE_V1.0.2/MSDK/wpa_supplicant/src/tls\tlsv1_record.c **** 		crypto_hash_update(hmac, out_data, plen);
 1256              		.loc 1 449 3 is_stmt 1
 1257 02b0 97000000 		call	crypto_hash_update
 1257      E7800000 
 1258              	.LVL131:
 450:C:/Users/stapi/OneDrive/Desktop/GD32VW553/V1_MQTT_OK/GD32VW55X_Wifi_BLE_SDK/GD32VW55x_RELEASE_V1.0.2/MSDK/wpa_supplicant/src/tls\tlsv1_record.c **** 		hlen = sizeof(hash);
 1259              		.loc 1 450 3
 1260 02b8 2286     		mv	a2,s0
 1261 02ba CE85     		mv	a1,s3
 1262 02bc 6285     		mv	a0,s8
 1263 02be 97000000 		call	crypto_hash_update
 1263      E7800000 
 1264              	.LVL132:
 451:C:/Users/stapi/OneDrive/Desktop/GD32VW553/V1_MQTT_OK/GD32VW55X_Wifi_BLE_SDK/GD32VW55x_RELEASE_V1.0.2/MSDK/wpa_supplicant/src/tls\tlsv1_record.c **** 		if (crypto_hash_finish(hmac, hash, &hlen) < 0) {
 1265              		.loc 1 451 3
 451:C:/Users/stapi/OneDrive/Desktop/GD32VW553/V1_MQTT_OK/GD32VW55X_Wifi_BLE_SDK/GD32VW55x_RELEASE_V1.0.2/MSDK/wpa_supplicant/src/tls\tlsv1_record.c **** 		if (crypto_hash_finish(hmac, hash, &hlen) < 0) {
 1266              		.loc 1 451 8 is_stmt 0
 1267 02c6 93074006 		li	a5,100
 452:C:/Users/stapi/OneDrive/Desktop/GD32VW553/V1_MQTT_OK/GD32VW55X_Wifi_BLE_SDK/GD32VW55x_RELEASE_V1.0.2/MSDK/wpa_supplicant/src/tls\tlsv1_record.c **** 			wpa_printf(MSG_DEBUG, "TLSv1: Record Layer - Failed "
 1268              		.loc 1 452 7
 1269 02ca 3000     		addi	a2,sp,8
 1270 02cc 6C00     		addi	a1,sp,12
 1271 02ce 6285     		mv	a0,s8
 451:C:/Users/stapi/OneDrive/Desktop/GD32VW553/V1_MQTT_OK/GD32VW55X_Wifi_BLE_SDK/GD32VW55x_RELEASE_V1.0.2/MSDK/wpa_supplicant/src/tls\tlsv1_record.c **** 		if (crypto_hash_finish(hmac, hash, &hlen) < 0) {
 1272              		.loc 1 451 8
 1273 02d0 3EC4     		sw	a5,8(sp)
 452:C:/Users/stapi/OneDrive/Desktop/GD32VW553/V1_MQTT_OK/GD32VW55X_Wifi_BLE_SDK/GD32VW55x_RELEASE_V1.0.2/MSDK/wpa_supplicant/src/tls\tlsv1_record.c **** 			wpa_printf(MSG_DEBUG, "TLSv1: Record Layer - Failed "
 1274              		.loc 1 452 3 is_stmt 1
 452:C:/Users/stapi/OneDrive/Desktop/GD32VW553/V1_MQTT_OK/GD32VW55X_Wifi_BLE_SDK/GD32VW55x_RELEASE_V1.0.2/MSDK/wpa_supplicant/src/tls\tlsv1_record.c **** 			wpa_printf(MSG_DEBUG, "TLSv1: Record Layer - Failed "
 1275              		.loc 1 452 7 is_stmt 0
 1276 02d2 97000000 		call	crypto_hash_finish
 1276      E7800000 
 1277              	.LVL133:
 452:C:/Users/stapi/OneDrive/Desktop/GD32VW553/V1_MQTT_OK/GD32VW55X_Wifi_BLE_SDK/GD32VW55x_RELEASE_V1.0.2/MSDK/wpa_supplicant/src/tls\tlsv1_record.c **** 			wpa_printf(MSG_DEBUG, "TLSv1: Record Layer - Failed "
 1278              		.loc 1 452 6
 1279 02da 63570500 		bge	a0,zero,.L78
 453:C:/Users/stapi/OneDrive/Desktop/GD32VW553/V1_MQTT_OK/GD32VW55X_Wifi_BLE_SDK/GD32VW55x_RELEASE_V1.0.2/MSDK/wpa_supplicant/src/tls\tlsv1_record.c **** 				   "to calculate HMAC");
 1280              		.loc 1 453 4 is_stmt 1
 1281 02de B7050000 		lui	a1,%hi(.LC6)
 1282 02e2 93850500 		addi	a1,a1,%lo(.LC6)
 1283 02e6 B9B5     		j	.L92
 1284              	.L78:
 458:C:/Users/stapi/OneDrive/Desktop/GD32VW553/V1_MQTT_OK/GD32VW55X_Wifi_BLE_SDK/GD32VW55x_RELEASE_V1.0.2/MSDK/wpa_supplicant/src/tls\tlsv1_record.c **** 		    os_memcmp_const(hash, out_data + plen, hlen) != 0 ||
 1285              		.loc 1 458 3
 458:C:/Users/stapi/OneDrive/Desktop/GD32VW553/V1_MQTT_OK/GD32VW55X_Wifi_BLE_SDK/GD32VW55x_RELEASE_V1.0.2/MSDK/wpa_supplicant/src/tls\tlsv1_record.c **** 		    os_memcmp_const(hash, out_data + plen, hlen) != 0 ||
 1286              		.loc 1 458 12 is_stmt 0
 1287 02e8 A247     		lw	a5,8(sp)
 458:C:/Users/stapi/OneDrive/Desktop/GD32VW553/V1_MQTT_OK/GD32VW55X_Wifi_BLE_SDK/GD32VW55x_RELEASE_V1.0.2/MSDK/wpa_supplicant/src/tls\tlsv1_record.c **** 		    os_memcmp_const(hash, out_data + plen, hlen) != 0 ||
 1288              		.loc 1 458 6
 1289 02ea 0326490A 		lw	a2,164(s2)
 1290 02ee 630DF600 		beq	a2,a5,.L79
 1291              	.L80:
 461:C:/Users/stapi/OneDrive/Desktop/GD32VW553/V1_MQTT_OK/GD32VW55X_Wifi_BLE_SDK/GD32VW55x_RELEASE_V1.0.2/MSDK/wpa_supplicant/src/tls\tlsv1_record.c **** 				   "received message (force_mac_error=%d)",
 1292              		.loc 1 461 4 is_stmt 1
 1293 02f2 B7050000 		lui	a1,%hi(.LC24)
 1294 02f6 5A86     		mv	a2,s6
 1295 02f8 93850500 		addi	a1,a1,%lo(.LC24)
 1296 02fc 0945     		li	a0,2
 1297 02fe 97000000 		call	wpa_printf
 1297      E7800000 
 1298              	.LVL134:
 1299 0306 6DBD     		j	.L93
 1300              	.L79:
 459:C:/Users/stapi/OneDrive/Desktop/GD32VW553/V1_MQTT_OK/GD32VW55X_Wifi_BLE_SDK/GD32VW55x_RELEASE_V1.0.2/MSDK/wpa_supplicant/src/tls\tlsv1_record.c **** 		    force_mac_error) {
 1301              		.loc 1 459 7 is_stmt 0 discriminator 1
 1302 0308 B3858900 		add	a1,s3,s0
 1303 030c 6800     		addi	a0,sp,12
 1304 030e 97000000 		call	os_memcmp_const
 1304      E7800000 
 1305              	.LVL135:
 458:C:/Users/stapi/OneDrive/Desktop/GD32VW553/V1_MQTT_OK/GD32VW55X_Wifi_BLE_SDK/GD32VW55x_RELEASE_V1.0.2/MSDK/wpa_supplicant/src/tls\tlsv1_record.c **** 		    os_memcmp_const(hash, out_data + plen, hlen) != 0 ||
 1306              		.loc 1 458 29 discriminator 1
 1307 0316 33656501 		or	a0,a0,s6
 1308 031a 61FD     		bne	a0,zero,.L80
 1309              	.LVL136:
 1310              	.L88:
 1311              	.LBE42:
 471:C:/Users/stapi/OneDrive/Desktop/GD32VW553/V1_MQTT_OK/GD32VW55X_Wifi_BLE_SDK/GD32VW55x_RELEASE_V1.0.2/MSDK/wpa_supplicant/src/tls\tlsv1_record.c **** 	}
 1312              		.loc 1 471 3 is_stmt 1
 471:C:/Users/stapi/OneDrive/Desktop/GD32VW553/V1_MQTT_OK/GD32VW55X_Wifi_BLE_SDK/GD32VW55x_RELEASE_V1.0.2/MSDK/wpa_supplicant/src/tls\tlsv1_record.c **** 	}
 1313              		.loc 1 471 12 is_stmt 0
 1314 031c 23A08B00 		sw	s0,0(s7)
 475:C:/Users/stapi/OneDrive/Desktop/GD32VW553/V1_MQTT_OK/GD32VW55X_Wifi_BLE_SDK/GD32VW55x_RELEASE_V1.0.2/MSDK/wpa_supplicant/src/tls\tlsv1_record.c **** 		wpa_printf(MSG_DEBUG, "TLSv1: Record overflow (len=%lu)",
 1315              		.loc 1 475 2 is_stmt 1
 475:C:/Users/stapi/OneDrive/Desktop/GD32VW553/V1_MQTT_OK/GD32VW55X_Wifi_BLE_SDK/GD32VW55x_RELEASE_V1.0.2/MSDK/wpa_supplicant/src/tls\tlsv1_record.c **** 		wpa_printf(MSG_DEBUG, "TLSv1: Record overflow (len=%lu)",
 1316              		.loc 1 475 28 is_stmt 0
 1317 0320 03A60B00 		lw	a2,0(s7)
 475:C:/Users/stapi/OneDrive/Desktop/GD32VW553/V1_MQTT_OK/GD32VW55X_Wifi_BLE_SDK/GD32VW55x_RELEASE_V1.0.2/MSDK/wpa_supplicant/src/tls\tlsv1_record.c **** 		wpa_printf(MSG_DEBUG, "TLSv1: Record overflow (len=%lu)",
 1318              		.loc 1 475 5
 1319 0324 9167     		li	a5,16384
 1320 0326 93870740 		addi	a5,a5,1024
 475:C:/Users/stapi/OneDrive/Desktop/GD32VW553/V1_MQTT_OK/GD32VW55X_Wifi_BLE_SDK/GD32VW55x_RELEASE_V1.0.2/MSDK/wpa_supplicant/src/tls\tlsv1_record.c **** 		wpa_printf(MSG_DEBUG, "TLSv1: Record overflow (len=%lu)",
 1321              		.loc 1 475 28
 1322 032a 1506     		addi	a2,a2,5
 475:C:/Users/stapi/OneDrive/Desktop/GD32VW553/V1_MQTT_OK/GD32VW55X_Wifi_BLE_SDK/GD32VW55x_RELEASE_V1.0.2/MSDK/wpa_supplicant/src/tls\tlsv1_record.c **** 		wpa_printf(MSG_DEBUG, "TLSv1: Record overflow (len=%lu)",
 1323              		.loc 1 475 5
 1324 032c 63F5C702 		bleu	a2,a5,.L82
 1325              	.LVL137:
 1326              	.L91:
 476:C:/Users/stapi/OneDrive/Desktop/GD32VW553/V1_MQTT_OK/GD32VW55X_Wifi_BLE_SDK/GD32VW55x_RELEASE_V1.0.2/MSDK/wpa_supplicant/src/tls\tlsv1_record.c **** 			   (unsigned long) (TLS_RECORD_HEADER_LEN + *out_len));
 1327              		.loc 1 476 3 is_stmt 1
 1328 0330 B7050000 		lui	a1,%hi(.LC13)
 1329 0334 93850500 		addi	a1,a1,%lo(.LC13)
 1330 0338 0945     		li	a0,2
 1331 033a 97000000 		call	wpa_printf
 1331      E7800000 
 1332              	.LVL138:
 478:C:/Users/stapi/OneDrive/Desktop/GD32VW553/V1_MQTT_OK/GD32VW55X_Wifi_BLE_SDK/GD32VW55x_RELEASE_V1.0.2/MSDK/wpa_supplicant/src/tls\tlsv1_record.c **** 		return -1;
 1333              		.loc 1 478 3
 478:C:/Users/stapi/OneDrive/Desktop/GD32VW553/V1_MQTT_OK/GD32VW55X_Wifi_BLE_SDK/GD32VW55x_RELEASE_V1.0.2/MSDK/wpa_supplicant/src/tls\tlsv1_record.c **** 		return -1;
 1334              		.loc 1 478 10 is_stmt 0
 1335 0342 D947     		li	a5,22
 1336 0344 B5B3     		j	.L89
 1337              	.LVL139:
 1338              	.L66:
 470:C:/Users/stapi/OneDrive/Desktop/GD32VW553/V1_MQTT_OK/GD32VW55X_Wifi_BLE_SDK/GD32VW55x_RELEASE_V1.0.2/MSDK/wpa_supplicant/src/tls\tlsv1_record.c **** 		*out_len = in_len;
 1339              		.loc 1 470 3 is_stmt 1
 1340 0346 2286     		mv	a2,s0
 1341 0348 DA85     		mv	a1,s6
 1342 034a 4E85     		mv	a0,s3
 1343 034c 97000000 		call	os_memcpy
 1343      E7800000 
 1344              	.LVL140:
 1345 0354 E1B7     		j	.L88
 1346              	.LVL141:
 1347              	.L82:
 482:C:/Users/stapi/OneDrive/Desktop/GD32VW553/V1_MQTT_OK/GD32VW55X_Wifi_BLE_SDK/GD32VW55x_RELEASE_V1.0.2/MSDK/wpa_supplicant/src/tls\tlsv1_record.c **** 
 1348              		.loc 1 482 2
 1349 0356 1305090C 		addi	a0,s2,192
 1350 035a A145     		li	a1,8
 1351 035c 97000000 		call	inc_byte_array
 1351      E7800000 
 1352              	.LVL142:
 484:C:/Users/stapi/OneDrive/Desktop/GD32VW553/V1_MQTT_OK/GD32VW55X_Wifi_BLE_SDK/GD32VW55x_RELEASE_V1.0.2/MSDK/wpa_supplicant/src/tls\tlsv1_record.c **** }
 1353              		.loc 1 484 2
 484:C:/Users/stapi/OneDrive/Desktop/GD32VW553/V1_MQTT_OK/GD32VW55X_Wifi_BLE_SDK/GD32VW55x_RELEASE_V1.0.2/MSDK/wpa_supplicant/src/tls\tlsv1_record.c **** }
 1354              		.loc 1 484 31 is_stmt 0
 1355 0364 2685     		mv	a0,s1
 1356 0366 E9B9     		j	.L58
 1357              		.cfi_endproc
 1358              	.LFE75:
 1360              		.text
 1361              	.Letext0:
 1362              		.file 3 "c:\\users\\stapi\\onedrive\\desktop\\gd32vw553\\embeddedbuilder_v1.4.7.26843\\tools\\nucl
 1363              		.file 4 "c:\\users\\stapi\\onedrive\\desktop\\gd32vw553\\embeddedbuilder_v1.4.7.26843\\tools\\nucl
 1364              		.file 5 "c:\\users\\stapi\\onedrive\\desktop\\gd32vw553\\embeddedbuilder_v1.4.7.26843\\tools\\nucl
 1365              		.file 6 "..\\..\\..\\..\\wpa_supplicant\\src/crypto/crypto.h"
 1366              		.file 7 "..\\..\\..\\..\\wpa_supplicant\\src\\utils/wpa_debug.h"
 1367              		.file 8 "C:/Users/stapi/OneDrive/Desktop/GD32VW553/V1_MQTT_OK/GD32VW55X_Wifi_BLE_SDK/GD32VW55x_REL
 1368              		.file 9 "C:/Users/stapi/OneDrive/Desktop/GD32VW553/V1_MQTT_OK/GD32VW55X_Wifi_BLE_SDK/GD32VW55x_REL
 1369              		.file 10 "..\\..\\..\\..\\wpa_supplicant\\src\\utils/os.h"