   1              		.file	"tlsv1_cred.c"
   2              		.option nopic
   3              		.attribute arch, "rv32i2p0_m2p0_a2p0_f2p0_c2p0_b_p0p94"
   4              		.attribute unaligned_access, 0
   5              		.attribute stack_align, 16
   6              		.text
   7              	.Ltext0:
   8              		.cfi_sections	.debug_frame
   9              		.section	.rodata.tlsv1_add_cert_der.str1.4,"aMS",@progbits,1
  10              		.align	2
  11              	.LC0:
  12 0000 544C5376 		.string	"TLSv1: %s - failed to parse certificate"
  12      313A2025 
  12      73202D20 
  12      6661696C 
  12      65642074 
  13              		.align	2
  14              	.LC1:
  15 0028 544C5376 		.string	"TLSv1: Added certificate: %s"
  15      313A2041 
  15      64646564 
  15      20636572 
  15      74696669 
  16              		.section	.text.tlsv1_add_cert_der,"ax",@progbits
  17              		.align	1
  19              	tlsv1_add_cert_der:
  20              	.LFB88:
  21              		.file 1 "C:/Users/stapi/OneDrive/Desktop/GD32VW553/V1_MQTT_OK/GD32VW55X_Wifi_BLE_SDK/GD32VW55x_REL
   1:C:/Users/stapi/OneDrive/Desktop/GD32VW553/V1_MQTT_OK/GD32VW55X_Wifi_BLE_SDK/GD32VW55x_RELEASE_V1.0.2/MSDK/wpa_supplicant/src/tls\tlsv1_cred.c **** /*
   2:C:/Users/stapi/OneDrive/Desktop/GD32VW553/V1_MQTT_OK/GD32VW55X_Wifi_BLE_SDK/GD32VW55x_RELEASE_V1.0.2/MSDK/wpa_supplicant/src/tls\tlsv1_cred.c ****  * TLSv1 credentials
   3:C:/Users/stapi/OneDrive/Desktop/GD32VW553/V1_MQTT_OK/GD32VW55X_Wifi_BLE_SDK/GD32VW55x_RELEASE_V1.0.2/MSDK/wpa_supplicant/src/tls\tlsv1_cred.c ****  * Copyright (c) 2006-2015, Jouni Malinen <j@w1.fi>
   4:C:/Users/stapi/OneDrive/Desktop/GD32VW553/V1_MQTT_OK/GD32VW55X_Wifi_BLE_SDK/GD32VW55x_RELEASE_V1.0.2/MSDK/wpa_supplicant/src/tls\tlsv1_cred.c ****  *
   5:C:/Users/stapi/OneDrive/Desktop/GD32VW553/V1_MQTT_OK/GD32VW55X_Wifi_BLE_SDK/GD32VW55x_RELEASE_V1.0.2/MSDK/wpa_supplicant/src/tls\tlsv1_cred.c ****  * This software may be distributed under the terms of the BSD license.
   6:C:/Users/stapi/OneDrive/Desktop/GD32VW553/V1_MQTT_OK/GD32VW55X_Wifi_BLE_SDK/GD32VW55x_RELEASE_V1.0.2/MSDK/wpa_supplicant/src/tls\tlsv1_cred.c ****  * See README for more details.
   7:C:/Users/stapi/OneDrive/Desktop/GD32VW553/V1_MQTT_OK/GD32VW55X_Wifi_BLE_SDK/GD32VW55x_RELEASE_V1.0.2/MSDK/wpa_supplicant/src/tls\tlsv1_cred.c ****  */
   8:C:/Users/stapi/OneDrive/Desktop/GD32VW553/V1_MQTT_OK/GD32VW55X_Wifi_BLE_SDK/GD32VW55x_RELEASE_V1.0.2/MSDK/wpa_supplicant/src/tls\tlsv1_cred.c **** 
   9:C:/Users/stapi/OneDrive/Desktop/GD32VW553/V1_MQTT_OK/GD32VW55X_Wifi_BLE_SDK/GD32VW55x_RELEASE_V1.0.2/MSDK/wpa_supplicant/src/tls\tlsv1_cred.c **** #include "includes.h"
  10:C:/Users/stapi/OneDrive/Desktop/GD32VW553/V1_MQTT_OK/GD32VW55X_Wifi_BLE_SDK/GD32VW55x_RELEASE_V1.0.2/MSDK/wpa_supplicant/src/tls\tlsv1_cred.c **** 
  11:C:/Users/stapi/OneDrive/Desktop/GD32VW553/V1_MQTT_OK/GD32VW55X_Wifi_BLE_SDK/GD32VW55x_RELEASE_V1.0.2/MSDK/wpa_supplicant/src/tls\tlsv1_cred.c **** #include "common.h"
  12:C:/Users/stapi/OneDrive/Desktop/GD32VW553/V1_MQTT_OK/GD32VW55X_Wifi_BLE_SDK/GD32VW55x_RELEASE_V1.0.2/MSDK/wpa_supplicant/src/tls\tlsv1_cred.c **** #include "base64.h"
  13:C:/Users/stapi/OneDrive/Desktop/GD32VW553/V1_MQTT_OK/GD32VW55X_Wifi_BLE_SDK/GD32VW55x_RELEASE_V1.0.2/MSDK/wpa_supplicant/src/tls\tlsv1_cred.c **** #include "crypto/crypto.h"
  14:C:/Users/stapi/OneDrive/Desktop/GD32VW553/V1_MQTT_OK/GD32VW55X_Wifi_BLE_SDK/GD32VW55x_RELEASE_V1.0.2/MSDK/wpa_supplicant/src/tls\tlsv1_cred.c **** #include "crypto/sha1.h"
  15:C:/Users/stapi/OneDrive/Desktop/GD32VW553/V1_MQTT_OK/GD32VW55X_Wifi_BLE_SDK/GD32VW55x_RELEASE_V1.0.2/MSDK/wpa_supplicant/src/tls\tlsv1_cred.c **** #include "pkcs5.h"
  16:C:/Users/stapi/OneDrive/Desktop/GD32VW553/V1_MQTT_OK/GD32VW55X_Wifi_BLE_SDK/GD32VW55x_RELEASE_V1.0.2/MSDK/wpa_supplicant/src/tls\tlsv1_cred.c **** #include "pkcs8.h"
  17:C:/Users/stapi/OneDrive/Desktop/GD32VW553/V1_MQTT_OK/GD32VW55X_Wifi_BLE_SDK/GD32VW55x_RELEASE_V1.0.2/MSDK/wpa_supplicant/src/tls\tlsv1_cred.c **** #include "x509v3.h"
  18:C:/Users/stapi/OneDrive/Desktop/GD32VW553/V1_MQTT_OK/GD32VW55X_Wifi_BLE_SDK/GD32VW55x_RELEASE_V1.0.2/MSDK/wpa_supplicant/src/tls\tlsv1_cred.c **** #include "tlsv1_cred.h"
  19:C:/Users/stapi/OneDrive/Desktop/GD32VW553/V1_MQTT_OK/GD32VW55X_Wifi_BLE_SDK/GD32VW55x_RELEASE_V1.0.2/MSDK/wpa_supplicant/src/tls\tlsv1_cred.c **** 
  20:C:/Users/stapi/OneDrive/Desktop/GD32VW553/V1_MQTT_OK/GD32VW55X_Wifi_BLE_SDK/GD32VW55x_RELEASE_V1.0.2/MSDK/wpa_supplicant/src/tls\tlsv1_cred.c **** 
  21:C:/Users/stapi/OneDrive/Desktop/GD32VW553/V1_MQTT_OK/GD32VW55X_Wifi_BLE_SDK/GD32VW55x_RELEASE_V1.0.2/MSDK/wpa_supplicant/src/tls\tlsv1_cred.c **** struct tlsv1_credentials * tlsv1_cred_alloc(void)
  22:C:/Users/stapi/OneDrive/Desktop/GD32VW553/V1_MQTT_OK/GD32VW55X_Wifi_BLE_SDK/GD32VW55x_RELEASE_V1.0.2/MSDK/wpa_supplicant/src/tls\tlsv1_cred.c **** {
  23:C:/Users/stapi/OneDrive/Desktop/GD32VW553/V1_MQTT_OK/GD32VW55X_Wifi_BLE_SDK/GD32VW55x_RELEASE_V1.0.2/MSDK/wpa_supplicant/src/tls\tlsv1_cred.c **** 	struct tlsv1_credentials *cred;
  24:C:/Users/stapi/OneDrive/Desktop/GD32VW553/V1_MQTT_OK/GD32VW55X_Wifi_BLE_SDK/GD32VW55x_RELEASE_V1.0.2/MSDK/wpa_supplicant/src/tls\tlsv1_cred.c **** 	cred = os_zalloc(sizeof(*cred));
  25:C:/Users/stapi/OneDrive/Desktop/GD32VW553/V1_MQTT_OK/GD32VW55X_Wifi_BLE_SDK/GD32VW55x_RELEASE_V1.0.2/MSDK/wpa_supplicant/src/tls\tlsv1_cred.c **** 	return cred;
  26:C:/Users/stapi/OneDrive/Desktop/GD32VW553/V1_MQTT_OK/GD32VW55X_Wifi_BLE_SDK/GD32VW55x_RELEASE_V1.0.2/MSDK/wpa_supplicant/src/tls\tlsv1_cred.c **** }
  27:C:/Users/stapi/OneDrive/Desktop/GD32VW553/V1_MQTT_OK/GD32VW55X_Wifi_BLE_SDK/GD32VW55x_RELEASE_V1.0.2/MSDK/wpa_supplicant/src/tls\tlsv1_cred.c **** 
  28:C:/Users/stapi/OneDrive/Desktop/GD32VW553/V1_MQTT_OK/GD32VW55X_Wifi_BLE_SDK/GD32VW55x_RELEASE_V1.0.2/MSDK/wpa_supplicant/src/tls\tlsv1_cred.c **** 
  29:C:/Users/stapi/OneDrive/Desktop/GD32VW553/V1_MQTT_OK/GD32VW55X_Wifi_BLE_SDK/GD32VW55x_RELEASE_V1.0.2/MSDK/wpa_supplicant/src/tls\tlsv1_cred.c **** void tlsv1_cred_free(struct tlsv1_credentials *cred)
  30:C:/Users/stapi/OneDrive/Desktop/GD32VW553/V1_MQTT_OK/GD32VW55X_Wifi_BLE_SDK/GD32VW55x_RELEASE_V1.0.2/MSDK/wpa_supplicant/src/tls\tlsv1_cred.c **** {
  31:C:/Users/stapi/OneDrive/Desktop/GD32VW553/V1_MQTT_OK/GD32VW55X_Wifi_BLE_SDK/GD32VW55x_RELEASE_V1.0.2/MSDK/wpa_supplicant/src/tls\tlsv1_cred.c **** 	if (cred == NULL)
  32:C:/Users/stapi/OneDrive/Desktop/GD32VW553/V1_MQTT_OK/GD32VW55X_Wifi_BLE_SDK/GD32VW55x_RELEASE_V1.0.2/MSDK/wpa_supplicant/src/tls\tlsv1_cred.c **** 		return;
  33:C:/Users/stapi/OneDrive/Desktop/GD32VW553/V1_MQTT_OK/GD32VW55X_Wifi_BLE_SDK/GD32VW55x_RELEASE_V1.0.2/MSDK/wpa_supplicant/src/tls\tlsv1_cred.c **** 
  34:C:/Users/stapi/OneDrive/Desktop/GD32VW553/V1_MQTT_OK/GD32VW55X_Wifi_BLE_SDK/GD32VW55x_RELEASE_V1.0.2/MSDK/wpa_supplicant/src/tls\tlsv1_cred.c **** 	x509_certificate_chain_free(cred->trusted_certs);
  35:C:/Users/stapi/OneDrive/Desktop/GD32VW553/V1_MQTT_OK/GD32VW55X_Wifi_BLE_SDK/GD32VW55x_RELEASE_V1.0.2/MSDK/wpa_supplicant/src/tls\tlsv1_cred.c **** 	x509_certificate_chain_free(cred->cert);
  36:C:/Users/stapi/OneDrive/Desktop/GD32VW553/V1_MQTT_OK/GD32VW55X_Wifi_BLE_SDK/GD32VW55x_RELEASE_V1.0.2/MSDK/wpa_supplicant/src/tls\tlsv1_cred.c **** 	crypto_private_key_free(cred->key);
  37:C:/Users/stapi/OneDrive/Desktop/GD32VW553/V1_MQTT_OK/GD32VW55X_Wifi_BLE_SDK/GD32VW55x_RELEASE_V1.0.2/MSDK/wpa_supplicant/src/tls\tlsv1_cred.c **** 	os_free(cred->dh_p);
  38:C:/Users/stapi/OneDrive/Desktop/GD32VW553/V1_MQTT_OK/GD32VW55X_Wifi_BLE_SDK/GD32VW55x_RELEASE_V1.0.2/MSDK/wpa_supplicant/src/tls\tlsv1_cred.c **** 	os_free(cred->dh_g);
  39:C:/Users/stapi/OneDrive/Desktop/GD32VW553/V1_MQTT_OK/GD32VW55X_Wifi_BLE_SDK/GD32VW55x_RELEASE_V1.0.2/MSDK/wpa_supplicant/src/tls\tlsv1_cred.c **** 	os_free(cred->ocsp_stapling_response);
  40:C:/Users/stapi/OneDrive/Desktop/GD32VW553/V1_MQTT_OK/GD32VW55X_Wifi_BLE_SDK/GD32VW55x_RELEASE_V1.0.2/MSDK/wpa_supplicant/src/tls\tlsv1_cred.c **** 	os_free(cred->ocsp_stapling_response_multi);
  41:C:/Users/stapi/OneDrive/Desktop/GD32VW553/V1_MQTT_OK/GD32VW55X_Wifi_BLE_SDK/GD32VW55x_RELEASE_V1.0.2/MSDK/wpa_supplicant/src/tls\tlsv1_cred.c **** 	os_free(cred);
  42:C:/Users/stapi/OneDrive/Desktop/GD32VW553/V1_MQTT_OK/GD32VW55X_Wifi_BLE_SDK/GD32VW55x_RELEASE_V1.0.2/MSDK/wpa_supplicant/src/tls\tlsv1_cred.c **** }
  43:C:/Users/stapi/OneDrive/Desktop/GD32VW553/V1_MQTT_OK/GD32VW55X_Wifi_BLE_SDK/GD32VW55x_RELEASE_V1.0.2/MSDK/wpa_supplicant/src/tls\tlsv1_cred.c **** 
  44:C:/Users/stapi/OneDrive/Desktop/GD32VW553/V1_MQTT_OK/GD32VW55X_Wifi_BLE_SDK/GD32VW55x_RELEASE_V1.0.2/MSDK/wpa_supplicant/src/tls\tlsv1_cred.c **** 
  45:C:/Users/stapi/OneDrive/Desktop/GD32VW553/V1_MQTT_OK/GD32VW55X_Wifi_BLE_SDK/GD32VW55x_RELEASE_V1.0.2/MSDK/wpa_supplicant/src/tls\tlsv1_cred.c **** static int tlsv1_add_cert_der(struct x509_certificate **chain,
  46:C:/Users/stapi/OneDrive/Desktop/GD32VW553/V1_MQTT_OK/GD32VW55X_Wifi_BLE_SDK/GD32VW55x_RELEASE_V1.0.2/MSDK/wpa_supplicant/src/tls\tlsv1_cred.c **** 			      const u8 *buf, size_t len)
  47:C:/Users/stapi/OneDrive/Desktop/GD32VW553/V1_MQTT_OK/GD32VW55X_Wifi_BLE_SDK/GD32VW55x_RELEASE_V1.0.2/MSDK/wpa_supplicant/src/tls\tlsv1_cred.c **** {
  22              		.loc 1 47 1
  23              		.cfi_startproc
  24              	.LVL0:
  25 0000 17030000 		call	t0,__riscv_save_3
  25      E7020300 
  26              		.cfi_offset 18, -16
  27              		.cfi_offset 9, -12
  28              		.cfi_offset 8, -8
  29              		.cfi_offset 1, -4
  30              		.cfi_def_cfa_offset 16
  48:C:/Users/stapi/OneDrive/Desktop/GD32VW553/V1_MQTT_OK/GD32VW55X_Wifi_BLE_SDK/GD32VW55x_RELEASE_V1.0.2/MSDK/wpa_supplicant/src/tls\tlsv1_cred.c **** 	struct x509_certificate *cert, *p;
  31              		.loc 1 48 2
  49:C:/Users/stapi/OneDrive/Desktop/GD32VW553/V1_MQTT_OK/GD32VW55X_Wifi_BLE_SDK/GD32VW55x_RELEASE_V1.0.2/MSDK/wpa_supplicant/src/tls\tlsv1_cred.c **** 	char name[128];
  32              		.loc 1 49 2
  50:C:/Users/stapi/OneDrive/Desktop/GD32VW553/V1_MQTT_OK/GD32VW55X_Wifi_BLE_SDK/GD32VW55x_RELEASE_V1.0.2/MSDK/wpa_supplicant/src/tls\tlsv1_cred.c **** 
  51:C:/Users/stapi/OneDrive/Desktop/GD32VW553/V1_MQTT_OK/GD32VW55X_Wifi_BLE_SDK/GD32VW55x_RELEASE_V1.0.2/MSDK/wpa_supplicant/src/tls\tlsv1_cred.c **** 	cert = x509_certificate_parse(buf, len);
  33              		.loc 1 51 2
  47:C:/Users/stapi/OneDrive/Desktop/GD32VW553/V1_MQTT_OK/GD32VW55X_Wifi_BLE_SDK/GD32VW55x_RELEASE_V1.0.2/MSDK/wpa_supplicant/src/tls\tlsv1_cred.c **** 	struct x509_certificate *cert, *p;
  34              		.loc 1 47 1 is_stmt 0
  35 0008 1971     		addi	sp,sp,-128
  36              		.cfi_def_cfa_offset 144
  47:C:/Users/stapi/OneDrive/Desktop/GD32VW553/V1_MQTT_OK/GD32VW55X_Wifi_BLE_SDK/GD32VW55x_RELEASE_V1.0.2/MSDK/wpa_supplicant/src/tls\tlsv1_cred.c **** 	struct x509_certificate *cert, *p;
  37              		.loc 1 47 1
  38 000a AA84     		mv	s1,a0
  39 000c 2E85     		mv	a0,a1
  40              	.LVL1:
  41              		.loc 1 51 9
  42 000e B285     		mv	a1,a2
  43              	.LVL2:
  44 0010 97000000 		call	x509_certificate_parse
  44      E7800000 
  45              	.LVL3:
  52:C:/Users/stapi/OneDrive/Desktop/GD32VW553/V1_MQTT_OK/GD32VW55X_Wifi_BLE_SDK/GD32VW55x_RELEASE_V1.0.2/MSDK/wpa_supplicant/src/tls\tlsv1_cred.c **** 	if (cert == NULL) {
  46              		.loc 1 52 2 is_stmt 1
  47              		.loc 1 52 5 is_stmt 0
  48 0018 05E5     		bne	a0,zero,.L2
  53:C:/Users/stapi/OneDrive/Desktop/GD32VW553/V1_MQTT_OK/GD32VW55X_Wifi_BLE_SDK/GD32VW55x_RELEASE_V1.0.2/MSDK/wpa_supplicant/src/tls\tlsv1_cred.c **** 		wpa_printf(MSG_INFO, "TLSv1: %s - failed to parse certificate",
  49              		.loc 1 53 3 is_stmt 1
  50 001a 37060000 		lui	a2,%hi(.LANCHOR0)
  51 001e B7050000 		lui	a1,%hi(.LC0)
  52 0022 0D45     		li	a0,3
  53              	.LVL4:
  54 0024 13060600 		addi	a2,a2,%lo(.LANCHOR0)
  55 0028 93850500 		addi	a1,a1,%lo(.LC0)
  56 002c 97000000 		call	wpa_printf
  56      E7800000 
  57              	.LVL5:
  54:C:/Users/stapi/OneDrive/Desktop/GD32VW553/V1_MQTT_OK/GD32VW55X_Wifi_BLE_SDK/GD32VW55x_RELEASE_V1.0.2/MSDK/wpa_supplicant/src/tls\tlsv1_cred.c **** 			   __func__);
  55:C:/Users/stapi/OneDrive/Desktop/GD32VW553/V1_MQTT_OK/GD32VW55X_Wifi_BLE_SDK/GD32VW55x_RELEASE_V1.0.2/MSDK/wpa_supplicant/src/tls\tlsv1_cred.c **** 		return -1;
  58              		.loc 1 55 3
  59              		.loc 1 55 10 is_stmt 0
  60 0034 7D55     		li	a0,-1
  61              	.L1:
  56:C:/Users/stapi/OneDrive/Desktop/GD32VW553/V1_MQTT_OK/GD32VW55X_Wifi_BLE_SDK/GD32VW55x_RELEASE_V1.0.2/MSDK/wpa_supplicant/src/tls\tlsv1_cred.c **** 	}
  57:C:/Users/stapi/OneDrive/Desktop/GD32VW553/V1_MQTT_OK/GD32VW55X_Wifi_BLE_SDK/GD32VW55x_RELEASE_V1.0.2/MSDK/wpa_supplicant/src/tls\tlsv1_cred.c **** 
  58:C:/Users/stapi/OneDrive/Desktop/GD32VW553/V1_MQTT_OK/GD32VW55X_Wifi_BLE_SDK/GD32VW55x_RELEASE_V1.0.2/MSDK/wpa_supplicant/src/tls\tlsv1_cred.c **** 	p = *chain;
  59:C:/Users/stapi/OneDrive/Desktop/GD32VW553/V1_MQTT_OK/GD32VW55X_Wifi_BLE_SDK/GD32VW55x_RELEASE_V1.0.2/MSDK/wpa_supplicant/src/tls\tlsv1_cred.c **** 	while (p && p->next)
  60:C:/Users/stapi/OneDrive/Desktop/GD32VW553/V1_MQTT_OK/GD32VW55X_Wifi_BLE_SDK/GD32VW55x_RELEASE_V1.0.2/MSDK/wpa_supplicant/src/tls\tlsv1_cred.c **** 		p = p->next;
  61:C:/Users/stapi/OneDrive/Desktop/GD32VW553/V1_MQTT_OK/GD32VW55X_Wifi_BLE_SDK/GD32VW55x_RELEASE_V1.0.2/MSDK/wpa_supplicant/src/tls\tlsv1_cred.c **** 	if (p && x509_name_compare(&cert->subject, &p->issuer) == 0) {
  62:C:/Users/stapi/OneDrive/Desktop/GD32VW553/V1_MQTT_OK/GD32VW55X_Wifi_BLE_SDK/GD32VW55x_RELEASE_V1.0.2/MSDK/wpa_supplicant/src/tls\tlsv1_cred.c **** 		/*
  63:C:/Users/stapi/OneDrive/Desktop/GD32VW553/V1_MQTT_OK/GD32VW55X_Wifi_BLE_SDK/GD32VW55x_RELEASE_V1.0.2/MSDK/wpa_supplicant/src/tls\tlsv1_cred.c **** 		 * The new certificate is the issuer of the last certificate in
  64:C:/Users/stapi/OneDrive/Desktop/GD32VW553/V1_MQTT_OK/GD32VW55X_Wifi_BLE_SDK/GD32VW55x_RELEASE_V1.0.2/MSDK/wpa_supplicant/src/tls\tlsv1_cred.c **** 		 * the chain - add the new certificate to the end.
  65:C:/Users/stapi/OneDrive/Desktop/GD32VW553/V1_MQTT_OK/GD32VW55X_Wifi_BLE_SDK/GD32VW55x_RELEASE_V1.0.2/MSDK/wpa_supplicant/src/tls\tlsv1_cred.c **** 		 */
  66:C:/Users/stapi/OneDrive/Desktop/GD32VW553/V1_MQTT_OK/GD32VW55X_Wifi_BLE_SDK/GD32VW55x_RELEASE_V1.0.2/MSDK/wpa_supplicant/src/tls\tlsv1_cred.c **** 		p->next = cert;
  67:C:/Users/stapi/OneDrive/Desktop/GD32VW553/V1_MQTT_OK/GD32VW55X_Wifi_BLE_SDK/GD32VW55x_RELEASE_V1.0.2/MSDK/wpa_supplicant/src/tls\tlsv1_cred.c **** 	} else {
  68:C:/Users/stapi/OneDrive/Desktop/GD32VW553/V1_MQTT_OK/GD32VW55X_Wifi_BLE_SDK/GD32VW55x_RELEASE_V1.0.2/MSDK/wpa_supplicant/src/tls\tlsv1_cred.c **** 		/* Add to the beginning of the chain */
  69:C:/Users/stapi/OneDrive/Desktop/GD32VW553/V1_MQTT_OK/GD32VW55X_Wifi_BLE_SDK/GD32VW55x_RELEASE_V1.0.2/MSDK/wpa_supplicant/src/tls\tlsv1_cred.c **** 		cert->next = *chain;
  70:C:/Users/stapi/OneDrive/Desktop/GD32VW553/V1_MQTT_OK/GD32VW55X_Wifi_BLE_SDK/GD32VW55x_RELEASE_V1.0.2/MSDK/wpa_supplicant/src/tls\tlsv1_cred.c **** 		*chain = cert;
  71:C:/Users/stapi/OneDrive/Desktop/GD32VW553/V1_MQTT_OK/GD32VW55X_Wifi_BLE_SDK/GD32VW55x_RELEASE_V1.0.2/MSDK/wpa_supplicant/src/tls\tlsv1_cred.c **** 	}
  72:C:/Users/stapi/OneDrive/Desktop/GD32VW553/V1_MQTT_OK/GD32VW55X_Wifi_BLE_SDK/GD32VW55x_RELEASE_V1.0.2/MSDK/wpa_supplicant/src/tls\tlsv1_cred.c **** 
  73:C:/Users/stapi/OneDrive/Desktop/GD32VW553/V1_MQTT_OK/GD32VW55X_Wifi_BLE_SDK/GD32VW55x_RELEASE_V1.0.2/MSDK/wpa_supplicant/src/tls\tlsv1_cred.c **** 	x509_name_string(&cert->subject, name, sizeof(name));
  74:C:/Users/stapi/OneDrive/Desktop/GD32VW553/V1_MQTT_OK/GD32VW55X_Wifi_BLE_SDK/GD32VW55x_RELEASE_V1.0.2/MSDK/wpa_supplicant/src/tls\tlsv1_cred.c **** 	wpa_printf(MSG_DEBUG, "TLSv1: Added certificate: %s", name);
  75:C:/Users/stapi/OneDrive/Desktop/GD32VW553/V1_MQTT_OK/GD32VW55X_Wifi_BLE_SDK/GD32VW55x_RELEASE_V1.0.2/MSDK/wpa_supplicant/src/tls\tlsv1_cred.c **** 
  76:C:/Users/stapi/OneDrive/Desktop/GD32VW553/V1_MQTT_OK/GD32VW55X_Wifi_BLE_SDK/GD32VW55x_RELEASE_V1.0.2/MSDK/wpa_supplicant/src/tls\tlsv1_cred.c **** 	return 0;
  77:C:/Users/stapi/OneDrive/Desktop/GD32VW553/V1_MQTT_OK/GD32VW55X_Wifi_BLE_SDK/GD32VW55x_RELEASE_V1.0.2/MSDK/wpa_supplicant/src/tls\tlsv1_cred.c **** }
  62              		.loc 1 77 1
  63 0036 0961     		addi	sp,sp,128
  64              		.cfi_remember_state
  65              		.cfi_def_cfa_offset 0
  66 0038 17030000 		tail	__riscv_restore_3
  66      67000300 
  67              		.cfi_restore 18
  68              		.cfi_restore 9
  69              		.cfi_restore 8
  70              		.cfi_restore 1
  71              		.cfi_def_cfa_offset -16
  72              	.LVL6:
  73              	.L2:
  74              		.cfi_restore_state
  58:C:/Users/stapi/OneDrive/Desktop/GD32VW553/V1_MQTT_OK/GD32VW55X_Wifi_BLE_SDK/GD32VW55x_RELEASE_V1.0.2/MSDK/wpa_supplicant/src/tls\tlsv1_cred.c **** 	while (p && p->next)
  75              		.loc 1 58 4
  76 0040 03A90400 		lw	s2,0(s1)
  77 0044 2A84     		mv	s0,a0
  58:C:/Users/stapi/OneDrive/Desktop/GD32VW553/V1_MQTT_OK/GD32VW55X_Wifi_BLE_SDK/GD32VW55x_RELEASE_V1.0.2/MSDK/wpa_supplicant/src/tls\tlsv1_cred.c **** 	while (p && p->next)
  78              		.loc 1 58 2 is_stmt 1
  79              	.LVL7:
  59:C:/Users/stapi/OneDrive/Desktop/GD32VW553/V1_MQTT_OK/GD32VW55X_Wifi_BLE_SDK/GD32VW55x_RELEASE_V1.0.2/MSDK/wpa_supplicant/src/tls\tlsv1_cred.c **** 		p = p->next;
  80              		.loc 1 59 2
  81              	.L5:
  59:C:/Users/stapi/OneDrive/Desktop/GD32VW553/V1_MQTT_OK/GD32VW55X_Wifi_BLE_SDK/GD32VW55x_RELEASE_V1.0.2/MSDK/wpa_supplicant/src/tls\tlsv1_cred.c **** 		p = p->next;
  82              		.loc 1 59 8
  83 0046 630E0900 		beq	s2,zero,.L4
  59:C:/Users/stapi/OneDrive/Desktop/GD32VW553/V1_MQTT_OK/GD32VW55X_Wifi_BLE_SDK/GD32VW55x_RELEASE_V1.0.2/MSDK/wpa_supplicant/src/tls\tlsv1_cred.c **** 		p = p->next;
  84              		.loc 1 59 15 is_stmt 0 discriminator 1
  85 004a 83270900 		lw	a5,0(s2)
  59:C:/Users/stapi/OneDrive/Desktop/GD32VW553/V1_MQTT_OK/GD32VW55X_Wifi_BLE_SDK/GD32VW55x_RELEASE_V1.0.2/MSDK/wpa_supplicant/src/tls\tlsv1_cred.c **** 		p = p->next;
  86              		.loc 1 59 11 discriminator 1
  87 004e 91EF     		bne	a5,zero,.L9
  61:C:/Users/stapi/OneDrive/Desktop/GD32VW553/V1_MQTT_OK/GD32VW55X_Wifi_BLE_SDK/GD32VW55x_RELEASE_V1.0.2/MSDK/wpa_supplicant/src/tls\tlsv1_cred.c **** 		/*
  88              		.loc 1 61 2 is_stmt 1
  61:C:/Users/stapi/OneDrive/Desktop/GD32VW553/V1_MQTT_OK/GD32VW55X_Wifi_BLE_SDK/GD32VW55x_RELEASE_V1.0.2/MSDK/wpa_supplicant/src/tls\tlsv1_cred.c **** 		/*
  89              		.loc 1 61 11 is_stmt 0
  90 0050 93054907 		addi	a1,s2,116
  91 0054 13054418 		addi	a0,s0,388
  92 0058 97000000 		call	x509_name_compare
  92      E7800000 
  93              	.LVL8:
  61:C:/Users/stapi/OneDrive/Desktop/GD32VW553/V1_MQTT_OK/GD32VW55X_Wifi_BLE_SDK/GD32VW55x_RELEASE_V1.0.2/MSDK/wpa_supplicant/src/tls\tlsv1_cred.c **** 		/*
  94              		.loc 1 61 8
  95 0060 19C5     		beq	a0,zero,.L8
  96              	.L4:
  69:C:/Users/stapi/OneDrive/Desktop/GD32VW553/V1_MQTT_OK/GD32VW55X_Wifi_BLE_SDK/GD32VW55x_RELEASE_V1.0.2/MSDK/wpa_supplicant/src/tls\tlsv1_cred.c **** 		*chain = cert;
  97              		.loc 1 69 3 is_stmt 1
  69:C:/Users/stapi/OneDrive/Desktop/GD32VW553/V1_MQTT_OK/GD32VW55X_Wifi_BLE_SDK/GD32VW55x_RELEASE_V1.0.2/MSDK/wpa_supplicant/src/tls\tlsv1_cred.c **** 		*chain = cert;
  98              		.loc 1 69 16 is_stmt 0
  99 0062 9C40     		lw	a5,0(s1)
  69:C:/Users/stapi/OneDrive/Desktop/GD32VW553/V1_MQTT_OK/GD32VW55X_Wifi_BLE_SDK/GD32VW55x_RELEASE_V1.0.2/MSDK/wpa_supplicant/src/tls\tlsv1_cred.c **** 		*chain = cert;
 100              		.loc 1 69 14
 101 0064 1CC0     		sw	a5,0(s0)
  70:C:/Users/stapi/OneDrive/Desktop/GD32VW553/V1_MQTT_OK/GD32VW55X_Wifi_BLE_SDK/GD32VW55x_RELEASE_V1.0.2/MSDK/wpa_supplicant/src/tls\tlsv1_cred.c **** 	}
 102              		.loc 1 70 3 is_stmt 1
  70:C:/Users/stapi/OneDrive/Desktop/GD32VW553/V1_MQTT_OK/GD32VW55X_Wifi_BLE_SDK/GD32VW55x_RELEASE_V1.0.2/MSDK/wpa_supplicant/src/tls\tlsv1_cred.c **** 	}
 103              		.loc 1 70 10 is_stmt 0
 104 0066 80C0     		sw	s0,0(s1)
 105 0068 29A0     		j	.L7
 106              	.L9:
 107 006a 3E89     		mv	s2,a5
 108              	.LVL9:
 109 006c E9BF     		j	.L5
 110              	.LVL10:
 111              	.L8:
  66:C:/Users/stapi/OneDrive/Desktop/GD32VW553/V1_MQTT_OK/GD32VW55X_Wifi_BLE_SDK/GD32VW55x_RELEASE_V1.0.2/MSDK/wpa_supplicant/src/tls\tlsv1_cred.c **** 	} else {
 112              		.loc 1 66 3 is_stmt 1
  66:C:/Users/stapi/OneDrive/Desktop/GD32VW553/V1_MQTT_OK/GD32VW55X_Wifi_BLE_SDK/GD32VW55x_RELEASE_V1.0.2/MSDK/wpa_supplicant/src/tls\tlsv1_cred.c **** 	} else {
 113              		.loc 1 66 11 is_stmt 0
 114 006e 23208900 		sw	s0,0(s2)
 115              	.L7:
  73:C:/Users/stapi/OneDrive/Desktop/GD32VW553/V1_MQTT_OK/GD32VW55X_Wifi_BLE_SDK/GD32VW55x_RELEASE_V1.0.2/MSDK/wpa_supplicant/src/tls\tlsv1_cred.c **** 	wpa_printf(MSG_DEBUG, "TLSv1: Added certificate: %s", name);
 116              		.loc 1 73 2 is_stmt 1
 117 0072 13060008 		li	a2,128
 118 0076 8A85     		mv	a1,sp
 119 0078 13054418 		addi	a0,s0,388
 120 007c 97000000 		call	x509_name_string
 120      E7800000 
 121              	.LVL11:
  74:C:/Users/stapi/OneDrive/Desktop/GD32VW553/V1_MQTT_OK/GD32VW55X_Wifi_BLE_SDK/GD32VW55x_RELEASE_V1.0.2/MSDK/wpa_supplicant/src/tls\tlsv1_cred.c **** 
 122              		.loc 1 74 2
 123 0084 B7050000 		lui	a1,%hi(.LC1)
 124 0088 0945     		li	a0,2
 125 008a 0A86     		mv	a2,sp
 126 008c 93850500 		addi	a1,a1,%lo(.LC1)
 127 0090 97000000 		call	wpa_printf
 127      E7800000 
 128              	.LVL12:
  76:C:/Users/stapi/OneDrive/Desktop/GD32VW553/V1_MQTT_OK/GD32VW55X_Wifi_BLE_SDK/GD32VW55x_RELEASE_V1.0.2/MSDK/wpa_supplicant/src/tls\tlsv1_cred.c **** }
 129              		.loc 1 76 2
  76:C:/Users/stapi/OneDrive/Desktop/GD32VW553/V1_MQTT_OK/GD32VW55X_Wifi_BLE_SDK/GD32VW55x_RELEASE_V1.0.2/MSDK/wpa_supplicant/src/tls\tlsv1_cred.c **** }
 130              		.loc 1 76 9 is_stmt 0
 131 0098 0145     		li	a0,0
 132 009a 71BF     		j	.L1
 133              		.cfi_endproc
 134              	.LFE88:
 136              		.section	.text.search_tag,"ax",@progbits
 137              		.align	1
 139              	search_tag:
 140              	.LFB89:
  78:C:/Users/stapi/OneDrive/Desktop/GD32VW553/V1_MQTT_OK/GD32VW55X_Wifi_BLE_SDK/GD32VW55x_RELEASE_V1.0.2/MSDK/wpa_supplicant/src/tls\tlsv1_cred.c **** 
  79:C:/Users/stapi/OneDrive/Desktop/GD32VW553/V1_MQTT_OK/GD32VW55X_Wifi_BLE_SDK/GD32VW55x_RELEASE_V1.0.2/MSDK/wpa_supplicant/src/tls\tlsv1_cred.c **** 
  80:C:/Users/stapi/OneDrive/Desktop/GD32VW553/V1_MQTT_OK/GD32VW55X_Wifi_BLE_SDK/GD32VW55x_RELEASE_V1.0.2/MSDK/wpa_supplicant/src/tls\tlsv1_cred.c **** static const char *pem_cert_begin = "-----BEGIN CERTIFICATE-----";
  81:C:/Users/stapi/OneDrive/Desktop/GD32VW553/V1_MQTT_OK/GD32VW55X_Wifi_BLE_SDK/GD32VW55x_RELEASE_V1.0.2/MSDK/wpa_supplicant/src/tls\tlsv1_cred.c **** static const char *pem_cert_end = "-----END CERTIFICATE-----";
  82:C:/Users/stapi/OneDrive/Desktop/GD32VW553/V1_MQTT_OK/GD32VW55X_Wifi_BLE_SDK/GD32VW55x_RELEASE_V1.0.2/MSDK/wpa_supplicant/src/tls\tlsv1_cred.c **** static const char *pem_key_begin = "-----BEGIN RSA PRIVATE KEY-----";
  83:C:/Users/stapi/OneDrive/Desktop/GD32VW553/V1_MQTT_OK/GD32VW55X_Wifi_BLE_SDK/GD32VW55x_RELEASE_V1.0.2/MSDK/wpa_supplicant/src/tls\tlsv1_cred.c **** static const char *pem_key_end = "-----END RSA PRIVATE KEY-----";
  84:C:/Users/stapi/OneDrive/Desktop/GD32VW553/V1_MQTT_OK/GD32VW55X_Wifi_BLE_SDK/GD32VW55x_RELEASE_V1.0.2/MSDK/wpa_supplicant/src/tls\tlsv1_cred.c **** static const char *pem_key2_begin = "-----BEGIN PRIVATE KEY-----";
  85:C:/Users/stapi/OneDrive/Desktop/GD32VW553/V1_MQTT_OK/GD32VW55X_Wifi_BLE_SDK/GD32VW55x_RELEASE_V1.0.2/MSDK/wpa_supplicant/src/tls\tlsv1_cred.c **** static const char *pem_key2_end = "-----END PRIVATE KEY-----";
  86:C:/Users/stapi/OneDrive/Desktop/GD32VW553/V1_MQTT_OK/GD32VW55X_Wifi_BLE_SDK/GD32VW55x_RELEASE_V1.0.2/MSDK/wpa_supplicant/src/tls\tlsv1_cred.c **** static const char *pem_key_enc_begin = "-----BEGIN ENCRYPTED PRIVATE KEY-----";
  87:C:/Users/stapi/OneDrive/Desktop/GD32VW553/V1_MQTT_OK/GD32VW55X_Wifi_BLE_SDK/GD32VW55x_RELEASE_V1.0.2/MSDK/wpa_supplicant/src/tls\tlsv1_cred.c **** static const char *pem_key_enc_end = "-----END ENCRYPTED PRIVATE KEY-----";
  88:C:/Users/stapi/OneDrive/Desktop/GD32VW553/V1_MQTT_OK/GD32VW55X_Wifi_BLE_SDK/GD32VW55x_RELEASE_V1.0.2/MSDK/wpa_supplicant/src/tls\tlsv1_cred.c **** 
  89:C:/Users/stapi/OneDrive/Desktop/GD32VW553/V1_MQTT_OK/GD32VW55X_Wifi_BLE_SDK/GD32VW55x_RELEASE_V1.0.2/MSDK/wpa_supplicant/src/tls\tlsv1_cred.c **** 
  90:C:/Users/stapi/OneDrive/Desktop/GD32VW553/V1_MQTT_OK/GD32VW55X_Wifi_BLE_SDK/GD32VW55x_RELEASE_V1.0.2/MSDK/wpa_supplicant/src/tls\tlsv1_cred.c **** static const u8 * search_tag(const char *tag, const u8 *buf, size_t len)
  91:C:/Users/stapi/OneDrive/Desktop/GD32VW553/V1_MQTT_OK/GD32VW55X_Wifi_BLE_SDK/GD32VW55x_RELEASE_V1.0.2/MSDK/wpa_supplicant/src/tls\tlsv1_cred.c **** {
 141              		.loc 1 91 1 is_stmt 1
 142              		.cfi_startproc
 143              	.LVL13:
 144 0000 17030000 		call	t0,__riscv_save_6
 144      E7020300 
 145              		.cfi_offset 21, -28
 146              		.cfi_offset 20, -24
 147              		.cfi_offset 19, -20
 148              		.cfi_offset 18, -16
 149              		.cfi_offset 9, -12
 150              		.cfi_offset 8, -8
 151              		.cfi_offset 1, -4
 152              		.cfi_def_cfa_offset 32
  92:C:/Users/stapi/OneDrive/Desktop/GD32VW553/V1_MQTT_OK/GD32VW55X_Wifi_BLE_SDK/GD32VW55x_RELEASE_V1.0.2/MSDK/wpa_supplicant/src/tls\tlsv1_cred.c **** 	size_t i, plen;
 153              		.loc 1 92 2
  93:C:/Users/stapi/OneDrive/Desktop/GD32VW553/V1_MQTT_OK/GD32VW55X_Wifi_BLE_SDK/GD32VW55x_RELEASE_V1.0.2/MSDK/wpa_supplicant/src/tls\tlsv1_cred.c **** 
  94:C:/Users/stapi/OneDrive/Desktop/GD32VW553/V1_MQTT_OK/GD32VW55X_Wifi_BLE_SDK/GD32VW55x_RELEASE_V1.0.2/MSDK/wpa_supplicant/src/tls\tlsv1_cred.c **** 	plen = os_strlen(tag);
 154              		.loc 1 94 2
  91:C:/Users/stapi/OneDrive/Desktop/GD32VW553/V1_MQTT_OK/GD32VW55X_Wifi_BLE_SDK/GD32VW55x_RELEASE_V1.0.2/MSDK/wpa_supplicant/src/tls\tlsv1_cred.c **** 	size_t i, plen;
 155              		.loc 1 91 1 is_stmt 0
 156 0008 3289     		mv	s2,a2
 157 000a AA89     		mv	s3,a0
 158 000c 2E8A     		mv	s4,a1
 159              		.loc 1 94 9
 160 000e 97000000 		call	os_strlen
 160      E7800000 
 161              	.LVL14:
  95:C:/Users/stapi/OneDrive/Desktop/GD32VW553/V1_MQTT_OK/GD32VW55X_Wifi_BLE_SDK/GD32VW55x_RELEASE_V1.0.2/MSDK/wpa_supplicant/src/tls\tlsv1_cred.c **** 	if (len < plen)
 162              		.loc 1 95 2 is_stmt 1
  96:C:/Users/stapi/OneDrive/Desktop/GD32VW553/V1_MQTT_OK/GD32VW55X_Wifi_BLE_SDK/GD32VW55x_RELEASE_V1.0.2/MSDK/wpa_supplicant/src/tls\tlsv1_cred.c **** 		return NULL;
  97:C:/Users/stapi/OneDrive/Desktop/GD32VW553/V1_MQTT_OK/GD32VW55X_Wifi_BLE_SDK/GD32VW55x_RELEASE_V1.0.2/MSDK/wpa_supplicant/src/tls\tlsv1_cred.c **** 
  98:C:/Users/stapi/OneDrive/Desktop/GD32VW553/V1_MQTT_OK/GD32VW55X_Wifi_BLE_SDK/GD32VW55x_RELEASE_V1.0.2/MSDK/wpa_supplicant/src/tls\tlsv1_cred.c **** 	for (i = 0; i < len - plen; i++) {
 163              		.loc 1 98 22 is_stmt 0
 164 0016 B30AA940 		sub	s5,s2,a0
  95:C:/Users/stapi/OneDrive/Desktop/GD32VW553/V1_MQTT_OK/GD32VW55X_Wifi_BLE_SDK/GD32VW55x_RELEASE_V1.0.2/MSDK/wpa_supplicant/src/tls\tlsv1_cred.c **** 	if (len < plen)
 165              		.loc 1 95 5
 166 001a 6376A902 		bleu	a0,s2,.L25
 167              	.LVL15:
 168              	.L19:
  96:C:/Users/stapi/OneDrive/Desktop/GD32VW553/V1_MQTT_OK/GD32VW55X_Wifi_BLE_SDK/GD32VW55x_RELEASE_V1.0.2/MSDK/wpa_supplicant/src/tls\tlsv1_cred.c **** 		return NULL;
 169              		.loc 1 96 10
 170 001e 0149     		li	s2,0
 171              	.L15:
  99:C:/Users/stapi/OneDrive/Desktop/GD32VW553/V1_MQTT_OK/GD32VW55X_Wifi_BLE_SDK/GD32VW55x_RELEASE_V1.0.2/MSDK/wpa_supplicant/src/tls\tlsv1_cred.c **** 		if (os_memcmp(buf + i, tag, plen) == 0)
 100:C:/Users/stapi/OneDrive/Desktop/GD32VW553/V1_MQTT_OK/GD32VW55X_Wifi_BLE_SDK/GD32VW55x_RELEASE_V1.0.2/MSDK/wpa_supplicant/src/tls\tlsv1_cred.c **** 			return buf + i;
 101:C:/Users/stapi/OneDrive/Desktop/GD32VW553/V1_MQTT_OK/GD32VW55X_Wifi_BLE_SDK/GD32VW55x_RELEASE_V1.0.2/MSDK/wpa_supplicant/src/tls\tlsv1_cred.c **** 	}
 102:C:/Users/stapi/OneDrive/Desktop/GD32VW553/V1_MQTT_OK/GD32VW55X_Wifi_BLE_SDK/GD32VW55x_RELEASE_V1.0.2/MSDK/wpa_supplicant/src/tls\tlsv1_cred.c **** 
 103:C:/Users/stapi/OneDrive/Desktop/GD32VW553/V1_MQTT_OK/GD32VW55X_Wifi_BLE_SDK/GD32VW55x_RELEASE_V1.0.2/MSDK/wpa_supplicant/src/tls\tlsv1_cred.c **** 	return NULL;
 104:C:/Users/stapi/OneDrive/Desktop/GD32VW553/V1_MQTT_OK/GD32VW55X_Wifi_BLE_SDK/GD32VW55x_RELEASE_V1.0.2/MSDK/wpa_supplicant/src/tls\tlsv1_cred.c **** }
 172              		.loc 1 104 1
 173 0020 4A85     		mv	a0,s2
 174 0022 17030000 		tail	__riscv_restore_6
 174      67000300 
 175              		.cfi_remember_state
 176              		.cfi_restore 21
 177              		.cfi_restore 20
 178              		.cfi_restore 19
 179              		.cfi_restore 18
 180              		.cfi_restore 9
 181              		.cfi_restore 8
 182              		.cfi_restore 1
 183              		.cfi_def_cfa_offset 0
 184              	.LVL16:
 185              	.L18:
 186              		.cfi_restore_state
  99:C:/Users/stapi/OneDrive/Desktop/GD32VW553/V1_MQTT_OK/GD32VW55X_Wifi_BLE_SDK/GD32VW55x_RELEASE_V1.0.2/MSDK/wpa_supplicant/src/tls\tlsv1_cred.c **** 		if (os_memcmp(buf + i, tag, plen) == 0)
 187              		.loc 1 99 3 is_stmt 1
 188 002a 33099A00 		add	s2,s4,s1
  99:C:/Users/stapi/OneDrive/Desktop/GD32VW553/V1_MQTT_OK/GD32VW55X_Wifi_BLE_SDK/GD32VW55x_RELEASE_V1.0.2/MSDK/wpa_supplicant/src/tls\tlsv1_cred.c **** 		if (os_memcmp(buf + i, tag, plen) == 0)
 189              		.loc 1 99 7 is_stmt 0
 190 002e 2286     		mv	a2,s0
 191 0030 CE85     		mv	a1,s3
 192 0032 4A85     		mv	a0,s2
 193 0034 97000000 		call	os_memcmp
 193      E7800000 
 194              	.LVL17:
  99:C:/Users/stapi/OneDrive/Desktop/GD32VW553/V1_MQTT_OK/GD32VW55X_Wifi_BLE_SDK/GD32VW55x_RELEASE_V1.0.2/MSDK/wpa_supplicant/src/tls\tlsv1_cred.c **** 		if (os_memcmp(buf + i, tag, plen) == 0)
 195              		.loc 1 99 6
 196 003c 75D1     		beq	a0,zero,.L15
  98:C:/Users/stapi/OneDrive/Desktop/GD32VW553/V1_MQTT_OK/GD32VW55X_Wifi_BLE_SDK/GD32VW55x_RELEASE_V1.0.2/MSDK/wpa_supplicant/src/tls\tlsv1_cred.c **** 		if (os_memcmp(buf + i, tag, plen) == 0)
 197              		.loc 1 98 30 is_stmt 1 discriminator 2
  98:C:/Users/stapi/OneDrive/Desktop/GD32VW553/V1_MQTT_OK/GD32VW55X_Wifi_BLE_SDK/GD32VW55x_RELEASE_V1.0.2/MSDK/wpa_supplicant/src/tls\tlsv1_cred.c **** 		if (os_memcmp(buf + i, tag, plen) == 0)
 198              		.loc 1 98 31 is_stmt 0 discriminator 2
 199 003e 8504     		addi	s1,s1,1
 200              	.LVL18:
 201              	.L16:
  98:C:/Users/stapi/OneDrive/Desktop/GD32VW553/V1_MQTT_OK/GD32VW55X_Wifi_BLE_SDK/GD32VW55x_RELEASE_V1.0.2/MSDK/wpa_supplicant/src/tls\tlsv1_cred.c **** 		if (os_memcmp(buf + i, tag, plen) == 0)
 202              		.loc 1 98 14 is_stmt 1 discriminator 1
  98:C:/Users/stapi/OneDrive/Desktop/GD32VW553/V1_MQTT_OK/GD32VW55X_Wifi_BLE_SDK/GD32VW55x_RELEASE_V1.0.2/MSDK/wpa_supplicant/src/tls\tlsv1_cred.c **** 		if (os_memcmp(buf + i, tag, plen) == 0)
 203              		.loc 1 98 2 is_stmt 0 discriminator 1
 204 0040 E3E554FF 		bgtu	s5,s1,.L18
 205 0044 E9BF     		j	.L19
 206              	.LVL19:
 207              	.L25:
 208 0046 2A84     		mv	s0,a0
 209 0048 8144     		li	s1,0
 210 004a DDBF     		j	.L16
 211              		.cfi_endproc
 212              	.LFE89:
 214              		.section	.rodata.tlsv1_add_cert.str1.4,"aMS",@progbits,1
 215              		.align	2
 216              	.LC2:
 217 0000 2D2D2D2D 		.string	"-----BEGIN CERTIFICATE-----"
 217      2D424547 
 217      494E2043 
 217      45525449 
 217      46494341 
 218              		.align	2
 219              	.LC3:
 220 001c 544C5376 		.string	"TLSv1: No PEM certificate tag found - assume DER format"
 220      313A204E 
 220      6F205045 
 220      4D206365 
 220      72746966 
 221              		.align	2
 222              	.LC4:
 223 0054 544C5376 		.string	"TLSv1: Converting PEM format certificate into DER format"
 223      313A2043 
 223      6F6E7665 
 223      7274696E 
 223      67205045 
 224 008d 000000   		.align	2
 225              	.LC5:
 226 0090 2D2D2D2D 		.string	"-----END CERTIFICATE-----"
 226      2D454E44 
 226      20434552 
 226      54494649 
 226      43415445 
 227 00aa 0000     		.align	2
 228              	.LC6:
 229 00ac 544C5376 		.string	"TLSv1: Could not find PEM certificate end tag (%s)"
 229      313A2043 
 229      6F756C64 
 229      206E6F74 
 229      2066696E 
 230 00df 00       		.align	2
 231              	.LC7:
 232 00e0 544C5376 		.string	"TLSv1: Could not decode PEM certificate"
 232      313A2043 
 232      6F756C64 
 232      206E6F74 
 232      20646563 
 233              		.align	2
 234              	.LC8:
 235 0108 544C5376 		.string	"TLSv1: Failed to parse PEM certificate after DER conversion"
 235      313A2046 
 235      61696C65 
 235      6420746F 
 235      20706172 
 236              		.section	.text.tlsv1_add_cert,"ax",@progbits
 237              		.align	1
 239              	tlsv1_add_cert:
 240              	.LFB90:
 105:C:/Users/stapi/OneDrive/Desktop/GD32VW553/V1_MQTT_OK/GD32VW55X_Wifi_BLE_SDK/GD32VW55x_RELEASE_V1.0.2/MSDK/wpa_supplicant/src/tls\tlsv1_cred.c **** 
 106:C:/Users/stapi/OneDrive/Desktop/GD32VW553/V1_MQTT_OK/GD32VW55X_Wifi_BLE_SDK/GD32VW55x_RELEASE_V1.0.2/MSDK/wpa_supplicant/src/tls\tlsv1_cred.c **** 
 107:C:/Users/stapi/OneDrive/Desktop/GD32VW553/V1_MQTT_OK/GD32VW55X_Wifi_BLE_SDK/GD32VW55x_RELEASE_V1.0.2/MSDK/wpa_supplicant/src/tls\tlsv1_cred.c **** static int tlsv1_add_cert(struct x509_certificate **chain,
 108:C:/Users/stapi/OneDrive/Desktop/GD32VW553/V1_MQTT_OK/GD32VW55X_Wifi_BLE_SDK/GD32VW55x_RELEASE_V1.0.2/MSDK/wpa_supplicant/src/tls\tlsv1_cred.c **** 			  const u8 *buf, size_t len)
 109:C:/Users/stapi/OneDrive/Desktop/GD32VW553/V1_MQTT_OK/GD32VW55X_Wifi_BLE_SDK/GD32VW55x_RELEASE_V1.0.2/MSDK/wpa_supplicant/src/tls\tlsv1_cred.c **** {
 241              		.loc 1 109 1 is_stmt 1
 242              		.cfi_startproc
 243              	.LVL20:
 244 0000 17030000 		call	t0,__riscv_save_6
 244      E7020300 
 245              		.cfi_offset 21, -28
 246              		.cfi_offset 20, -24
 247              		.cfi_offset 19, -20
 248              		.cfi_offset 18, -16
 249              		.cfi_offset 9, -12
 250              		.cfi_offset 8, -8
 251              		.cfi_offset 1, -4
 252              		.cfi_def_cfa_offset 32
 110:C:/Users/stapi/OneDrive/Desktop/GD32VW553/V1_MQTT_OK/GD32VW55X_Wifi_BLE_SDK/GD32VW55x_RELEASE_V1.0.2/MSDK/wpa_supplicant/src/tls\tlsv1_cred.c **** 	const u8 *pos, *end;
 253              		.loc 1 110 2
 111:C:/Users/stapi/OneDrive/Desktop/GD32VW553/V1_MQTT_OK/GD32VW55X_Wifi_BLE_SDK/GD32VW55x_RELEASE_V1.0.2/MSDK/wpa_supplicant/src/tls\tlsv1_cred.c **** 	unsigned char *der;
 254              		.loc 1 111 2
 112:C:/Users/stapi/OneDrive/Desktop/GD32VW553/V1_MQTT_OK/GD32VW55X_Wifi_BLE_SDK/GD32VW55x_RELEASE_V1.0.2/MSDK/wpa_supplicant/src/tls\tlsv1_cred.c **** 	size_t der_len;
 255              		.loc 1 112 2
 113:C:/Users/stapi/OneDrive/Desktop/GD32VW553/V1_MQTT_OK/GD32VW55X_Wifi_BLE_SDK/GD32VW55x_RELEASE_V1.0.2/MSDK/wpa_supplicant/src/tls\tlsv1_cred.c **** 
 114:C:/Users/stapi/OneDrive/Desktop/GD32VW553/V1_MQTT_OK/GD32VW55X_Wifi_BLE_SDK/GD32VW55x_RELEASE_V1.0.2/MSDK/wpa_supplicant/src/tls\tlsv1_cred.c **** 	pos = search_tag(pem_cert_begin, buf, len);
 256              		.loc 1 114 2
 257              		.loc 1 114 8 is_stmt 0
 258 0008 B7090000 		lui	s3,%hi(.LC2)
 109:C:/Users/stapi/OneDrive/Desktop/GD32VW553/V1_MQTT_OK/GD32VW55X_Wifi_BLE_SDK/GD32VW55x_RELEASE_V1.0.2/MSDK/wpa_supplicant/src/tls\tlsv1_cred.c **** 	const u8 *pos, *end;
 259              		.loc 1 109 1
 260 000c 4111     		addi	sp,sp,-16
 261              		.cfi_def_cfa_offset 48
 109:C:/Users/stapi/OneDrive/Desktop/GD32VW553/V1_MQTT_OK/GD32VW55X_Wifi_BLE_SDK/GD32VW55x_RELEASE_V1.0.2/MSDK/wpa_supplicant/src/tls\tlsv1_cred.c **** 	const u8 *pos, *end;
 262              		.loc 1 109 1
 263 000e 2A8A     		mv	s4,a0
 264              		.loc 1 114 8
 265 0010 13850900 		addi	a0,s3,%lo(.LC2)
 266              	.LVL21:
 109:C:/Users/stapi/OneDrive/Desktop/GD32VW553/V1_MQTT_OK/GD32VW55X_Wifi_BLE_SDK/GD32VW55x_RELEASE_V1.0.2/MSDK/wpa_supplicant/src/tls\tlsv1_cred.c **** 	const u8 *pos, *end;
 267              		.loc 1 109 1
 268 0014 2E89     		mv	s2,a1
 269 0016 B284     		mv	s1,a2
 270              		.loc 1 114 8
 271 0018 97000000 		call	search_tag
 271      E7800000 
 272              	.LVL22:
 115:C:/Users/stapi/OneDrive/Desktop/GD32VW553/V1_MQTT_OK/GD32VW55X_Wifi_BLE_SDK/GD32VW55x_RELEASE_V1.0.2/MSDK/wpa_supplicant/src/tls\tlsv1_cred.c **** 	if (!pos) {
 273              		.loc 1 115 2 is_stmt 1
 274              		.loc 1 115 5 is_stmt 0
 275 0020 15E5     		bne	a0,zero,.L28
 116:C:/Users/stapi/OneDrive/Desktop/GD32VW553/V1_MQTT_OK/GD32VW55X_Wifi_BLE_SDK/GD32VW55x_RELEASE_V1.0.2/MSDK/wpa_supplicant/src/tls\tlsv1_cred.c **** 		wpa_printf(MSG_DEBUG, "TLSv1: No PEM certificate tag found - "
 276              		.loc 1 116 3 is_stmt 1
 277 0022 B7050000 		lui	a1,%hi(.LC3)
 278 0026 93850500 		addi	a1,a1,%lo(.LC3)
 279 002a 0945     		li	a0,2
 280              	.LVL23:
 281 002c 97000000 		call	wpa_printf
 281      E7800000 
 282              	.LVL24:
 117:C:/Users/stapi/OneDrive/Desktop/GD32VW553/V1_MQTT_OK/GD32VW55X_Wifi_BLE_SDK/GD32VW55x_RELEASE_V1.0.2/MSDK/wpa_supplicant/src/tls\tlsv1_cred.c **** 			   "assume DER format");
 118:C:/Users/stapi/OneDrive/Desktop/GD32VW553/V1_MQTT_OK/GD32VW55X_Wifi_BLE_SDK/GD32VW55x_RELEASE_V1.0.2/MSDK/wpa_supplicant/src/tls\tlsv1_cred.c **** 		return tlsv1_add_cert_der(chain, buf, len);
 283              		.loc 1 118 3
 284              		.loc 1 118 10 is_stmt 0
 285 0034 2686     		mv	a2,s1
 286 0036 CA85     		mv	a1,s2
 287 0038 5285     		mv	a0,s4
 288 003a 97000000 		call	tlsv1_add_cert_der
 288      E7800000 
 289              	.LVL25:
 290              	.L27:
 119:C:/Users/stapi/OneDrive/Desktop/GD32VW553/V1_MQTT_OK/GD32VW55X_Wifi_BLE_SDK/GD32VW55x_RELEASE_V1.0.2/MSDK/wpa_supplicant/src/tls\tlsv1_cred.c **** 	}
 120:C:/Users/stapi/OneDrive/Desktop/GD32VW553/V1_MQTT_OK/GD32VW55X_Wifi_BLE_SDK/GD32VW55x_RELEASE_V1.0.2/MSDK/wpa_supplicant/src/tls\tlsv1_cred.c **** 
 121:C:/Users/stapi/OneDrive/Desktop/GD32VW553/V1_MQTT_OK/GD32VW55X_Wifi_BLE_SDK/GD32VW55x_RELEASE_V1.0.2/MSDK/wpa_supplicant/src/tls\tlsv1_cred.c **** 	wpa_printf(MSG_DEBUG, "TLSv1: Converting PEM format certificate into "
 122:C:/Users/stapi/OneDrive/Desktop/GD32VW553/V1_MQTT_OK/GD32VW55X_Wifi_BLE_SDK/GD32VW55x_RELEASE_V1.0.2/MSDK/wpa_supplicant/src/tls\tlsv1_cred.c **** 		   "DER format");
 123:C:/Users/stapi/OneDrive/Desktop/GD32VW553/V1_MQTT_OK/GD32VW55X_Wifi_BLE_SDK/GD32VW55x_RELEASE_V1.0.2/MSDK/wpa_supplicant/src/tls\tlsv1_cred.c **** 
 124:C:/Users/stapi/OneDrive/Desktop/GD32VW553/V1_MQTT_OK/GD32VW55X_Wifi_BLE_SDK/GD32VW55x_RELEASE_V1.0.2/MSDK/wpa_supplicant/src/tls\tlsv1_cred.c **** 	while (pos) {
 125:C:/Users/stapi/OneDrive/Desktop/GD32VW553/V1_MQTT_OK/GD32VW55X_Wifi_BLE_SDK/GD32VW55x_RELEASE_V1.0.2/MSDK/wpa_supplicant/src/tls\tlsv1_cred.c **** 		pos += os_strlen(pem_cert_begin);
 126:C:/Users/stapi/OneDrive/Desktop/GD32VW553/V1_MQTT_OK/GD32VW55X_Wifi_BLE_SDK/GD32VW55x_RELEASE_V1.0.2/MSDK/wpa_supplicant/src/tls\tlsv1_cred.c **** 		end = search_tag(pem_cert_end, pos, buf + len - pos);
 127:C:/Users/stapi/OneDrive/Desktop/GD32VW553/V1_MQTT_OK/GD32VW55X_Wifi_BLE_SDK/GD32VW55x_RELEASE_V1.0.2/MSDK/wpa_supplicant/src/tls\tlsv1_cred.c **** 		if (end == NULL) {
 128:C:/Users/stapi/OneDrive/Desktop/GD32VW553/V1_MQTT_OK/GD32VW55X_Wifi_BLE_SDK/GD32VW55x_RELEASE_V1.0.2/MSDK/wpa_supplicant/src/tls\tlsv1_cred.c **** 			wpa_printf(MSG_INFO, "TLSv1: Could not find PEM "
 129:C:/Users/stapi/OneDrive/Desktop/GD32VW553/V1_MQTT_OK/GD32VW55X_Wifi_BLE_SDK/GD32VW55x_RELEASE_V1.0.2/MSDK/wpa_supplicant/src/tls\tlsv1_cred.c **** 				   "certificate end tag (%s)", pem_cert_end);
 130:C:/Users/stapi/OneDrive/Desktop/GD32VW553/V1_MQTT_OK/GD32VW55X_Wifi_BLE_SDK/GD32VW55x_RELEASE_V1.0.2/MSDK/wpa_supplicant/src/tls\tlsv1_cred.c **** 			return -1;
 131:C:/Users/stapi/OneDrive/Desktop/GD32VW553/V1_MQTT_OK/GD32VW55X_Wifi_BLE_SDK/GD32VW55x_RELEASE_V1.0.2/MSDK/wpa_supplicant/src/tls\tlsv1_cred.c **** 		}
 132:C:/Users/stapi/OneDrive/Desktop/GD32VW553/V1_MQTT_OK/GD32VW55X_Wifi_BLE_SDK/GD32VW55x_RELEASE_V1.0.2/MSDK/wpa_supplicant/src/tls\tlsv1_cred.c **** 
 133:C:/Users/stapi/OneDrive/Desktop/GD32VW553/V1_MQTT_OK/GD32VW55X_Wifi_BLE_SDK/GD32VW55x_RELEASE_V1.0.2/MSDK/wpa_supplicant/src/tls\tlsv1_cred.c **** 		der = base64_decode((const char *) pos, end - pos, &der_len);
 134:C:/Users/stapi/OneDrive/Desktop/GD32VW553/V1_MQTT_OK/GD32VW55X_Wifi_BLE_SDK/GD32VW55x_RELEASE_V1.0.2/MSDK/wpa_supplicant/src/tls\tlsv1_cred.c **** 		if (der == NULL) {
 135:C:/Users/stapi/OneDrive/Desktop/GD32VW553/V1_MQTT_OK/GD32VW55X_Wifi_BLE_SDK/GD32VW55x_RELEASE_V1.0.2/MSDK/wpa_supplicant/src/tls\tlsv1_cred.c **** 			wpa_printf(MSG_INFO, "TLSv1: Could not decode PEM "
 136:C:/Users/stapi/OneDrive/Desktop/GD32VW553/V1_MQTT_OK/GD32VW55X_Wifi_BLE_SDK/GD32VW55x_RELEASE_V1.0.2/MSDK/wpa_supplicant/src/tls\tlsv1_cred.c **** 				   "certificate");
 137:C:/Users/stapi/OneDrive/Desktop/GD32VW553/V1_MQTT_OK/GD32VW55X_Wifi_BLE_SDK/GD32VW55x_RELEASE_V1.0.2/MSDK/wpa_supplicant/src/tls\tlsv1_cred.c **** 			return -1;
 138:C:/Users/stapi/OneDrive/Desktop/GD32VW553/V1_MQTT_OK/GD32VW55X_Wifi_BLE_SDK/GD32VW55x_RELEASE_V1.0.2/MSDK/wpa_supplicant/src/tls\tlsv1_cred.c **** 		}
 139:C:/Users/stapi/OneDrive/Desktop/GD32VW553/V1_MQTT_OK/GD32VW55X_Wifi_BLE_SDK/GD32VW55x_RELEASE_V1.0.2/MSDK/wpa_supplicant/src/tls\tlsv1_cred.c **** 
 140:C:/Users/stapi/OneDrive/Desktop/GD32VW553/V1_MQTT_OK/GD32VW55X_Wifi_BLE_SDK/GD32VW55x_RELEASE_V1.0.2/MSDK/wpa_supplicant/src/tls\tlsv1_cred.c **** 		if (tlsv1_add_cert_der(chain, der, der_len) < 0) {
 141:C:/Users/stapi/OneDrive/Desktop/GD32VW553/V1_MQTT_OK/GD32VW55X_Wifi_BLE_SDK/GD32VW55x_RELEASE_V1.0.2/MSDK/wpa_supplicant/src/tls\tlsv1_cred.c **** 			wpa_printf(MSG_INFO, "TLSv1: Failed to parse PEM "
 142:C:/Users/stapi/OneDrive/Desktop/GD32VW553/V1_MQTT_OK/GD32VW55X_Wifi_BLE_SDK/GD32VW55x_RELEASE_V1.0.2/MSDK/wpa_supplicant/src/tls\tlsv1_cred.c **** 				   "certificate after DER conversion");
 143:C:/Users/stapi/OneDrive/Desktop/GD32VW553/V1_MQTT_OK/GD32VW55X_Wifi_BLE_SDK/GD32VW55x_RELEASE_V1.0.2/MSDK/wpa_supplicant/src/tls\tlsv1_cred.c **** 			os_free(der);
 144:C:/Users/stapi/OneDrive/Desktop/GD32VW553/V1_MQTT_OK/GD32VW55X_Wifi_BLE_SDK/GD32VW55x_RELEASE_V1.0.2/MSDK/wpa_supplicant/src/tls\tlsv1_cred.c **** 			return -1;
 145:C:/Users/stapi/OneDrive/Desktop/GD32VW553/V1_MQTT_OK/GD32VW55X_Wifi_BLE_SDK/GD32VW55x_RELEASE_V1.0.2/MSDK/wpa_supplicant/src/tls\tlsv1_cred.c **** 		}
 146:C:/Users/stapi/OneDrive/Desktop/GD32VW553/V1_MQTT_OK/GD32VW55X_Wifi_BLE_SDK/GD32VW55x_RELEASE_V1.0.2/MSDK/wpa_supplicant/src/tls\tlsv1_cred.c **** 
 147:C:/Users/stapi/OneDrive/Desktop/GD32VW553/V1_MQTT_OK/GD32VW55X_Wifi_BLE_SDK/GD32VW55x_RELEASE_V1.0.2/MSDK/wpa_supplicant/src/tls\tlsv1_cred.c **** 		os_free(der);
 148:C:/Users/stapi/OneDrive/Desktop/GD32VW553/V1_MQTT_OK/GD32VW55X_Wifi_BLE_SDK/GD32VW55x_RELEASE_V1.0.2/MSDK/wpa_supplicant/src/tls\tlsv1_cred.c **** 
 149:C:/Users/stapi/OneDrive/Desktop/GD32VW553/V1_MQTT_OK/GD32VW55X_Wifi_BLE_SDK/GD32VW55x_RELEASE_V1.0.2/MSDK/wpa_supplicant/src/tls\tlsv1_cred.c **** 		end += os_strlen(pem_cert_end);
 150:C:/Users/stapi/OneDrive/Desktop/GD32VW553/V1_MQTT_OK/GD32VW55X_Wifi_BLE_SDK/GD32VW55x_RELEASE_V1.0.2/MSDK/wpa_supplicant/src/tls\tlsv1_cred.c **** 		pos = search_tag(pem_cert_begin, end, buf + len - end);
 151:C:/Users/stapi/OneDrive/Desktop/GD32VW553/V1_MQTT_OK/GD32VW55X_Wifi_BLE_SDK/GD32VW55x_RELEASE_V1.0.2/MSDK/wpa_supplicant/src/tls\tlsv1_cred.c **** 	}
 152:C:/Users/stapi/OneDrive/Desktop/GD32VW553/V1_MQTT_OK/GD32VW55X_Wifi_BLE_SDK/GD32VW55x_RELEASE_V1.0.2/MSDK/wpa_supplicant/src/tls\tlsv1_cred.c **** 
 153:C:/Users/stapi/OneDrive/Desktop/GD32VW553/V1_MQTT_OK/GD32VW55X_Wifi_BLE_SDK/GD32VW55x_RELEASE_V1.0.2/MSDK/wpa_supplicant/src/tls\tlsv1_cred.c **** 	return 0;
 154:C:/Users/stapi/OneDrive/Desktop/GD32VW553/V1_MQTT_OK/GD32VW55X_Wifi_BLE_SDK/GD32VW55x_RELEASE_V1.0.2/MSDK/wpa_supplicant/src/tls\tlsv1_cred.c **** }
 291              		.loc 1 154 1
 292 0042 4101     		addi	sp,sp,16
 293              		.cfi_remember_state
 294              		.cfi_def_cfa_offset 0
 295 0044 17030000 		tail	__riscv_restore_6
 295      67000300 
 296              		.cfi_restore 21
 297              		.cfi_restore 20
 298              		.cfi_restore 19
 299              		.cfi_restore 18
 300              		.cfi_restore 9
 301              		.cfi_restore 8
 302              		.cfi_restore 1
 303              		.cfi_def_cfa_offset -32
 304              	.LVL26:
 305              	.L28:
 306              		.cfi_restore_state
 121:C:/Users/stapi/OneDrive/Desktop/GD32VW553/V1_MQTT_OK/GD32VW55X_Wifi_BLE_SDK/GD32VW55x_RELEASE_V1.0.2/MSDK/wpa_supplicant/src/tls\tlsv1_cred.c **** 		   "DER format");
 307              		.loc 1 121 2
 308 004c B7050000 		lui	a1,%hi(.LC4)
 309 0050 2A84     		mv	s0,a0
 121:C:/Users/stapi/OneDrive/Desktop/GD32VW553/V1_MQTT_OK/GD32VW55X_Wifi_BLE_SDK/GD32VW55x_RELEASE_V1.0.2/MSDK/wpa_supplicant/src/tls\tlsv1_cred.c **** 		   "DER format");
 310              		.loc 1 121 2 is_stmt 1
 311 0052 93850500 		addi	a1,a1,%lo(.LC4)
 312 0056 0945     		li	a0,2
 313              	.LVL27:
 314 0058 97000000 		call	wpa_printf
 314      E7800000 
 315              	.LVL28:
 124:C:/Users/stapi/OneDrive/Desktop/GD32VW553/V1_MQTT_OK/GD32VW55X_Wifi_BLE_SDK/GD32VW55x_RELEASE_V1.0.2/MSDK/wpa_supplicant/src/tls\tlsv1_cred.c **** 		pos += os_strlen(pem_cert_begin);
 316              		.loc 1 124 2
 124:C:/Users/stapi/OneDrive/Desktop/GD32VW553/V1_MQTT_OK/GD32VW55X_Wifi_BLE_SDK/GD32VW55x_RELEASE_V1.0.2/MSDK/wpa_supplicant/src/tls\tlsv1_cred.c **** 		pos += os_strlen(pem_cert_begin);
 317              		.loc 1 124 8
 126:C:/Users/stapi/OneDrive/Desktop/GD32VW553/V1_MQTT_OK/GD32VW55X_Wifi_BLE_SDK/GD32VW55x_RELEASE_V1.0.2/MSDK/wpa_supplicant/src/tls\tlsv1_cred.c **** 		if (end == NULL) {
 318              		.loc 1 126 43 is_stmt 0
 319 0060 2699     		add	s2,s2,s1
 320              	.LVL29:
 126:C:/Users/stapi/OneDrive/Desktop/GD32VW553/V1_MQTT_OK/GD32VW55X_Wifi_BLE_SDK/GD32VW55x_RELEASE_V1.0.2/MSDK/wpa_supplicant/src/tls\tlsv1_cred.c **** 		if (end == NULL) {
 321              		.loc 1 126 9
 322 0062 B70A0000 		lui	s5,%hi(.LC5)
 323              	.LVL30:
 324              	.L33:
 125:C:/Users/stapi/OneDrive/Desktop/GD32VW553/V1_MQTT_OK/GD32VW55X_Wifi_BLE_SDK/GD32VW55x_RELEASE_V1.0.2/MSDK/wpa_supplicant/src/tls\tlsv1_cred.c **** 		end = search_tag(pem_cert_end, pos, buf + len - pos);
 325              		.loc 1 125 3 is_stmt 1
 125:C:/Users/stapi/OneDrive/Desktop/GD32VW553/V1_MQTT_OK/GD32VW55X_Wifi_BLE_SDK/GD32VW55x_RELEASE_V1.0.2/MSDK/wpa_supplicant/src/tls\tlsv1_cred.c **** 		end = search_tag(pem_cert_end, pos, buf + len - pos);
 326              		.loc 1 125 10 is_stmt 0
 327 0066 13850900 		addi	a0,s3,%lo(.LC2)
 328 006a 97000000 		call	os_strlen
 328      E7800000 
 329              	.LVL31:
 125:C:/Users/stapi/OneDrive/Desktop/GD32VW553/V1_MQTT_OK/GD32VW55X_Wifi_BLE_SDK/GD32VW55x_RELEASE_V1.0.2/MSDK/wpa_supplicant/src/tls\tlsv1_cred.c **** 		end = search_tag(pem_cert_end, pos, buf + len - pos);
 330              		.loc 1 125 7
 331 0072 2A94     		add	s0,s0,a0
 332              	.LVL32:
 126:C:/Users/stapi/OneDrive/Desktop/GD32VW553/V1_MQTT_OK/GD32VW55X_Wifi_BLE_SDK/GD32VW55x_RELEASE_V1.0.2/MSDK/wpa_supplicant/src/tls\tlsv1_cred.c **** 		if (end == NULL) {
 333              		.loc 1 126 3 is_stmt 1
 126:C:/Users/stapi/OneDrive/Desktop/GD32VW553/V1_MQTT_OK/GD32VW55X_Wifi_BLE_SDK/GD32VW55x_RELEASE_V1.0.2/MSDK/wpa_supplicant/src/tls\tlsv1_cred.c **** 		if (end == NULL) {
 334              		.loc 1 126 9 is_stmt 0
 335 0074 33068940 		sub	a2,s2,s0
 336 0078 A285     		mv	a1,s0
 337 007a 13850A00 		addi	a0,s5,%lo(.LC5)
 338 007e 97000000 		call	search_tag
 338      E7800000 
 339              	.LVL33:
 340 0086 AA84     		mv	s1,a0
 341              	.LVL34:
 127:C:/Users/stapi/OneDrive/Desktop/GD32VW553/V1_MQTT_OK/GD32VW55X_Wifi_BLE_SDK/GD32VW55x_RELEASE_V1.0.2/MSDK/wpa_supplicant/src/tls\tlsv1_cred.c **** 			wpa_printf(MSG_INFO, "TLSv1: Could not find PEM "
 342              		.loc 1 127 3 is_stmt 1
 127:C:/Users/stapi/OneDrive/Desktop/GD32VW553/V1_MQTT_OK/GD32VW55X_Wifi_BLE_SDK/GD32VW55x_RELEASE_V1.0.2/MSDK/wpa_supplicant/src/tls\tlsv1_cred.c **** 			wpa_printf(MSG_INFO, "TLSv1: Could not find PEM "
 343              		.loc 1 127 6 is_stmt 0
 344 0088 11ED     		bne	a0,zero,.L30
 128:C:/Users/stapi/OneDrive/Desktop/GD32VW553/V1_MQTT_OK/GD32VW55X_Wifi_BLE_SDK/GD32VW55x_RELEASE_V1.0.2/MSDK/wpa_supplicant/src/tls\tlsv1_cred.c **** 				   "certificate end tag (%s)", pem_cert_end);
 345              		.loc 1 128 4 is_stmt 1
 346 008a B7050000 		lui	a1,%hi(.LC6)
 347 008e 13860A00 		addi	a2,s5,%lo(.LC5)
 348 0092 93850500 		addi	a1,a1,%lo(.LC6)
 349 0096 0D45     		li	a0,3
 350 0098 97000000 		call	wpa_printf
 350      E7800000 
 351              	.LVL35:
 130:C:/Users/stapi/OneDrive/Desktop/GD32VW553/V1_MQTT_OK/GD32VW55X_Wifi_BLE_SDK/GD32VW55x_RELEASE_V1.0.2/MSDK/wpa_supplicant/src/tls\tlsv1_cred.c **** 		}
 352              		.loc 1 130 4
 353              	.L36:
 144:C:/Users/stapi/OneDrive/Desktop/GD32VW553/V1_MQTT_OK/GD32VW55X_Wifi_BLE_SDK/GD32VW55x_RELEASE_V1.0.2/MSDK/wpa_supplicant/src/tls\tlsv1_cred.c **** 		}
 354              		.loc 1 144 4
 144:C:/Users/stapi/OneDrive/Desktop/GD32VW553/V1_MQTT_OK/GD32VW55X_Wifi_BLE_SDK/GD32VW55x_RELEASE_V1.0.2/MSDK/wpa_supplicant/src/tls\tlsv1_cred.c **** 		}
 355              		.loc 1 144 11 is_stmt 0
 356 00a0 7D55     		li	a0,-1
 357 00a2 45B7     		j	.L27
 358              	.LVL36:
 359              	.L30:
 133:C:/Users/stapi/OneDrive/Desktop/GD32VW553/V1_MQTT_OK/GD32VW55X_Wifi_BLE_SDK/GD32VW55x_RELEASE_V1.0.2/MSDK/wpa_supplicant/src/tls\tlsv1_cred.c **** 		if (der == NULL) {
 360              		.loc 1 133 3 is_stmt 1
 133:C:/Users/stapi/OneDrive/Desktop/GD32VW553/V1_MQTT_OK/GD32VW55X_Wifi_BLE_SDK/GD32VW55x_RELEASE_V1.0.2/MSDK/wpa_supplicant/src/tls\tlsv1_cred.c **** 		if (der == NULL) {
 361              		.loc 1 133 9 is_stmt 0
 362 00a4 B3058540 		sub	a1,a0,s0
 363 00a8 7000     		addi	a2,sp,12
 364 00aa 2285     		mv	a0,s0
 365 00ac 97000000 		call	base64_decode
 365      E7800000 
 366              	.LVL37:
 367 00b4 2A84     		mv	s0,a0
 368              	.LVL38:
 134:C:/Users/stapi/OneDrive/Desktop/GD32VW553/V1_MQTT_OK/GD32VW55X_Wifi_BLE_SDK/GD32VW55x_RELEASE_V1.0.2/MSDK/wpa_supplicant/src/tls\tlsv1_cred.c **** 			wpa_printf(MSG_INFO, "TLSv1: Could not decode PEM "
 369              		.loc 1 134 3 is_stmt 1
 134:C:/Users/stapi/OneDrive/Desktop/GD32VW553/V1_MQTT_OK/GD32VW55X_Wifi_BLE_SDK/GD32VW55x_RELEASE_V1.0.2/MSDK/wpa_supplicant/src/tls\tlsv1_cred.c **** 			wpa_printf(MSG_INFO, "TLSv1: Could not decode PEM "
 370              		.loc 1 134 6 is_stmt 0
 371 00b6 19E9     		bne	a0,zero,.L31
 135:C:/Users/stapi/OneDrive/Desktop/GD32VW553/V1_MQTT_OK/GD32VW55X_Wifi_BLE_SDK/GD32VW55x_RELEASE_V1.0.2/MSDK/wpa_supplicant/src/tls\tlsv1_cred.c **** 				   "certificate");
 372              		.loc 1 135 4 is_stmt 1
 373 00b8 B7050000 		lui	a1,%hi(.LC7)
 374 00bc 93850500 		addi	a1,a1,%lo(.LC7)
 375 00c0 0D45     		li	a0,3
 376 00c2 97000000 		call	wpa_printf
 376      E7800000 
 377              	.LVL39:
 137:C:/Users/stapi/OneDrive/Desktop/GD32VW553/V1_MQTT_OK/GD32VW55X_Wifi_BLE_SDK/GD32VW55x_RELEASE_V1.0.2/MSDK/wpa_supplicant/src/tls\tlsv1_cred.c **** 		}
 378              		.loc 1 137 4
 379 00ca D9BF     		j	.L36
 380              	.L31:
 140:C:/Users/stapi/OneDrive/Desktop/GD32VW553/V1_MQTT_OK/GD32VW55X_Wifi_BLE_SDK/GD32VW55x_RELEASE_V1.0.2/MSDK/wpa_supplicant/src/tls\tlsv1_cred.c **** 			wpa_printf(MSG_INFO, "TLSv1: Failed to parse PEM "
 381              		.loc 1 140 3
 140:C:/Users/stapi/OneDrive/Desktop/GD32VW553/V1_MQTT_OK/GD32VW55X_Wifi_BLE_SDK/GD32VW55x_RELEASE_V1.0.2/MSDK/wpa_supplicant/src/tls\tlsv1_cred.c **** 			wpa_printf(MSG_INFO, "TLSv1: Failed to parse PEM "
 382              		.loc 1 140 7 is_stmt 0
 383 00cc 3246     		lw	a2,12(sp)
 384 00ce AA85     		mv	a1,a0
 385 00d0 5285     		mv	a0,s4
 386 00d2 97000000 		call	tlsv1_add_cert_der
 386      E7800000 
 387              	.LVL40:
 140:C:/Users/stapi/OneDrive/Desktop/GD32VW553/V1_MQTT_OK/GD32VW55X_Wifi_BLE_SDK/GD32VW55x_RELEASE_V1.0.2/MSDK/wpa_supplicant/src/tls\tlsv1_cred.c **** 			wpa_printf(MSG_INFO, "TLSv1: Failed to parse PEM "
 388              		.loc 1 140 6
 389 00da 63510502 		bge	a0,zero,.L32
 141:C:/Users/stapi/OneDrive/Desktop/GD32VW553/V1_MQTT_OK/GD32VW55X_Wifi_BLE_SDK/GD32VW55x_RELEASE_V1.0.2/MSDK/wpa_supplicant/src/tls\tlsv1_cred.c **** 				   "certificate after DER conversion");
 390              		.loc 1 141 4 is_stmt 1
 391 00de B7050000 		lui	a1,%hi(.LC8)
 392 00e2 93850500 		addi	a1,a1,%lo(.LC8)
 393 00e6 0D45     		li	a0,3
 394 00e8 97000000 		call	wpa_printf
 394      E7800000 
 395              	.LVL41:
 143:C:/Users/stapi/OneDrive/Desktop/GD32VW553/V1_MQTT_OK/GD32VW55X_Wifi_BLE_SDK/GD32VW55x_RELEASE_V1.0.2/MSDK/wpa_supplicant/src/tls\tlsv1_cred.c **** 			return -1;
 396              		.loc 1 143 4
 397 00f0 2285     		mv	a0,s0
 398 00f2 97000000 		call	os_free
 398      E7800000 
 399              	.LVL42:
 400 00fa 5DB7     		j	.L36
 401              	.L32:
 147:C:/Users/stapi/OneDrive/Desktop/GD32VW553/V1_MQTT_OK/GD32VW55X_Wifi_BLE_SDK/GD32VW55x_RELEASE_V1.0.2/MSDK/wpa_supplicant/src/tls\tlsv1_cred.c **** 
 402              		.loc 1 147 3
 403 00fc 2285     		mv	a0,s0
 404 00fe 97000000 		call	os_free
 404      E7800000 
 405              	.LVL43:
 149:C:/Users/stapi/OneDrive/Desktop/GD32VW553/V1_MQTT_OK/GD32VW55X_Wifi_BLE_SDK/GD32VW55x_RELEASE_V1.0.2/MSDK/wpa_supplicant/src/tls\tlsv1_cred.c **** 		pos = search_tag(pem_cert_begin, end, buf + len - end);
 406              		.loc 1 149 3
 149:C:/Users/stapi/OneDrive/Desktop/GD32VW553/V1_MQTT_OK/GD32VW55X_Wifi_BLE_SDK/GD32VW55x_RELEASE_V1.0.2/MSDK/wpa_supplicant/src/tls\tlsv1_cred.c **** 		pos = search_tag(pem_cert_begin, end, buf + len - end);
 407              		.loc 1 149 10 is_stmt 0
 408 0106 13850A00 		addi	a0,s5,%lo(.LC5)
 409 010a 97000000 		call	os_strlen
 409      E7800000 
 410              	.LVL44:
 149:C:/Users/stapi/OneDrive/Desktop/GD32VW553/V1_MQTT_OK/GD32VW55X_Wifi_BLE_SDK/GD32VW55x_RELEASE_V1.0.2/MSDK/wpa_supplicant/src/tls\tlsv1_cred.c **** 		pos = search_tag(pem_cert_begin, end, buf + len - end);
 411              		.loc 1 149 7
 412 0112 B385A400 		add	a1,s1,a0
 413              	.LVL45:
 150:C:/Users/stapi/OneDrive/Desktop/GD32VW553/V1_MQTT_OK/GD32VW55X_Wifi_BLE_SDK/GD32VW55x_RELEASE_V1.0.2/MSDK/wpa_supplicant/src/tls\tlsv1_cred.c **** 	}
 414              		.loc 1 150 3 is_stmt 1
 150:C:/Users/stapi/OneDrive/Desktop/GD32VW553/V1_MQTT_OK/GD32VW55X_Wifi_BLE_SDK/GD32VW55x_RELEASE_V1.0.2/MSDK/wpa_supplicant/src/tls\tlsv1_cred.c **** 	}
 415              		.loc 1 150 9 is_stmt 0
 416 0116 3306B940 		sub	a2,s2,a1
 417 011a 13850900 		addi	a0,s3,%lo(.LC2)
 418 011e 97000000 		call	search_tag
 418      E7800000 
 419              	.LVL46:
 420 0126 2A84     		mv	s0,a0
 421              	.LVL47:
 124:C:/Users/stapi/OneDrive/Desktop/GD32VW553/V1_MQTT_OK/GD32VW55X_Wifi_BLE_SDK/GD32VW55x_RELEASE_V1.0.2/MSDK/wpa_supplicant/src/tls\tlsv1_cred.c **** 		pos += os_strlen(pem_cert_begin);
 422              		.loc 1 124 8 is_stmt 1
 423 0128 1DFD     		bne	a0,zero,.L33
 153:C:/Users/stapi/OneDrive/Desktop/GD32VW553/V1_MQTT_OK/GD32VW55X_Wifi_BLE_SDK/GD32VW55x_RELEASE_V1.0.2/MSDK/wpa_supplicant/src/tls\tlsv1_cred.c **** }
 424              		.loc 1 153 9 is_stmt 0
 425 012a 0145     		li	a0,0
 426 012c 19BF     		j	.L27
 427              		.cfi_endproc
 428              	.LFE90:
 430              		.section	.rodata.tlsv1_set_key.str1.4,"aMS",@progbits,1
 431              		.align	2
 432              	.LC9:
 433 0000 2D2D2D2D 		.string	"-----BEGIN RSA PRIVATE KEY-----"
 433      2D424547 
 433      494E2052 
 433      53412050 
 433      52495641 
 434              		.align	2
 435              	.LC10:
 436 0020 2D2D2D2D 		.string	"-----BEGIN PRIVATE KEY-----"
 436      2D424547 
 436      494E2050 
 436      52495641 
 436      5445204B 
 437              		.align	2
 438              	.LC11:
 439 003c 2D2D2D2D 		.string	"-----END PRIVATE KEY-----"
 439      2D454E44 
 439      20505249 
 439      56415445 
 439      204B4559 
 440 0056 0000     		.align	2
 441              	.LC12:
 442 0058 2D2D2D2D 		.string	"-----END RSA PRIVATE KEY-----"
 442      2D454E44 
 442      20525341 
 442      20505249 
 442      56415445 
 443 0076 0000     		.align	2
 444              	.LC13:
 445 0078 50726F63 		.string	"Proc-Type: 4,ENCRYPTED"
 445      2D547970 
 445      653A2034 
 445      2C454E43 
 445      52595054 
 446 008f 00       		.align	2
 447              	.LC14:
 448 0090 544C5376 		.string	"TLSv1: Unsupported private key format (Proc-Type/DEK-Info)"
 448      313A2055 
 448      6E737570 
 448      706F7274 
 448      65642070 
 449 00cb 00       		.align	2
 450              	.LC15:
 451 00cc 2D2D2D2D 		.string	"-----BEGIN ENCRYPTED PRIVATE KEY-----"
 451      2D424547 
 451      494E2045 
 451      4E435259 
 451      50544544 
 452 00f2 0000     		.align	2
 453              	.LC16:
 454 00f4 2D2D2D2D 		.string	"-----END ENCRYPTED PRIVATE KEY-----"
 454      2D454E44 
 454      20454E43 
 454      52595054 
 454      45442050 
 455              		.align	2
 456              	.LC17:
 457 0118 544C5376 		.string	"TLSv1: Failed to parse private key"
 457      313A2046 
 457      61696C65 
 457      6420746F 
 457      20706172 
 458              		.section	.text.tlsv1_set_key,"ax",@progbits
 459              		.align	1
 461              	tlsv1_set_key:
 462              	.LFB96:
 155:C:/Users/stapi/OneDrive/Desktop/GD32VW553/V1_MQTT_OK/GD32VW55X_Wifi_BLE_SDK/GD32VW55x_RELEASE_V1.0.2/MSDK/wpa_supplicant/src/tls\tlsv1_cred.c **** 
 156:C:/Users/stapi/OneDrive/Desktop/GD32VW553/V1_MQTT_OK/GD32VW55X_Wifi_BLE_SDK/GD32VW55x_RELEASE_V1.0.2/MSDK/wpa_supplicant/src/tls\tlsv1_cred.c **** 
 157:C:/Users/stapi/OneDrive/Desktop/GD32VW553/V1_MQTT_OK/GD32VW55X_Wifi_BLE_SDK/GD32VW55x_RELEASE_V1.0.2/MSDK/wpa_supplicant/src/tls\tlsv1_cred.c **** static int tlsv1_set_cert_chain(struct x509_certificate **chain,
 158:C:/Users/stapi/OneDrive/Desktop/GD32VW553/V1_MQTT_OK/GD32VW55X_Wifi_BLE_SDK/GD32VW55x_RELEASE_V1.0.2/MSDK/wpa_supplicant/src/tls\tlsv1_cred.c **** 				const char *cert, const u8 *cert_blob,
 159:C:/Users/stapi/OneDrive/Desktop/GD32VW553/V1_MQTT_OK/GD32VW55X_Wifi_BLE_SDK/GD32VW55x_RELEASE_V1.0.2/MSDK/wpa_supplicant/src/tls\tlsv1_cred.c **** 				size_t cert_blob_len)
 160:C:/Users/stapi/OneDrive/Desktop/GD32VW553/V1_MQTT_OK/GD32VW55X_Wifi_BLE_SDK/GD32VW55x_RELEASE_V1.0.2/MSDK/wpa_supplicant/src/tls\tlsv1_cred.c **** {
 161:C:/Users/stapi/OneDrive/Desktop/GD32VW553/V1_MQTT_OK/GD32VW55X_Wifi_BLE_SDK/GD32VW55x_RELEASE_V1.0.2/MSDK/wpa_supplicant/src/tls\tlsv1_cred.c **** 	if (cert_blob)
 162:C:/Users/stapi/OneDrive/Desktop/GD32VW553/V1_MQTT_OK/GD32VW55X_Wifi_BLE_SDK/GD32VW55x_RELEASE_V1.0.2/MSDK/wpa_supplicant/src/tls\tlsv1_cred.c **** 		return tlsv1_add_cert(chain, cert_blob, cert_blob_len);
 163:C:/Users/stapi/OneDrive/Desktop/GD32VW553/V1_MQTT_OK/GD32VW55X_Wifi_BLE_SDK/GD32VW55x_RELEASE_V1.0.2/MSDK/wpa_supplicant/src/tls\tlsv1_cred.c **** 
 164:C:/Users/stapi/OneDrive/Desktop/GD32VW553/V1_MQTT_OK/GD32VW55X_Wifi_BLE_SDK/GD32VW55x_RELEASE_V1.0.2/MSDK/wpa_supplicant/src/tls\tlsv1_cred.c **** 	if (cert) {
 165:C:/Users/stapi/OneDrive/Desktop/GD32VW553/V1_MQTT_OK/GD32VW55X_Wifi_BLE_SDK/GD32VW55x_RELEASE_V1.0.2/MSDK/wpa_supplicant/src/tls\tlsv1_cred.c **** 		u8 *buf;
 166:C:/Users/stapi/OneDrive/Desktop/GD32VW553/V1_MQTT_OK/GD32VW55X_Wifi_BLE_SDK/GD32VW55x_RELEASE_V1.0.2/MSDK/wpa_supplicant/src/tls\tlsv1_cred.c **** 		size_t len;
 167:C:/Users/stapi/OneDrive/Desktop/GD32VW553/V1_MQTT_OK/GD32VW55X_Wifi_BLE_SDK/GD32VW55x_RELEASE_V1.0.2/MSDK/wpa_supplicant/src/tls\tlsv1_cred.c **** 		int ret;
 168:C:/Users/stapi/OneDrive/Desktop/GD32VW553/V1_MQTT_OK/GD32VW55X_Wifi_BLE_SDK/GD32VW55x_RELEASE_V1.0.2/MSDK/wpa_supplicant/src/tls\tlsv1_cred.c **** 
 169:C:/Users/stapi/OneDrive/Desktop/GD32VW553/V1_MQTT_OK/GD32VW55X_Wifi_BLE_SDK/GD32VW55x_RELEASE_V1.0.2/MSDK/wpa_supplicant/src/tls\tlsv1_cred.c **** 		buf = (u8 *) os_readfile(cert, &len);
 170:C:/Users/stapi/OneDrive/Desktop/GD32VW553/V1_MQTT_OK/GD32VW55X_Wifi_BLE_SDK/GD32VW55x_RELEASE_V1.0.2/MSDK/wpa_supplicant/src/tls\tlsv1_cred.c **** 		if (buf == NULL) {
 171:C:/Users/stapi/OneDrive/Desktop/GD32VW553/V1_MQTT_OK/GD32VW55X_Wifi_BLE_SDK/GD32VW55x_RELEASE_V1.0.2/MSDK/wpa_supplicant/src/tls\tlsv1_cred.c **** 			wpa_printf(MSG_INFO, "TLSv1: Failed to read '%s'",
 172:C:/Users/stapi/OneDrive/Desktop/GD32VW553/V1_MQTT_OK/GD32VW55X_Wifi_BLE_SDK/GD32VW55x_RELEASE_V1.0.2/MSDK/wpa_supplicant/src/tls\tlsv1_cred.c **** 				   cert);
 173:C:/Users/stapi/OneDrive/Desktop/GD32VW553/V1_MQTT_OK/GD32VW55X_Wifi_BLE_SDK/GD32VW55x_RELEASE_V1.0.2/MSDK/wpa_supplicant/src/tls\tlsv1_cred.c **** 			return -1;
 174:C:/Users/stapi/OneDrive/Desktop/GD32VW553/V1_MQTT_OK/GD32VW55X_Wifi_BLE_SDK/GD32VW55x_RELEASE_V1.0.2/MSDK/wpa_supplicant/src/tls\tlsv1_cred.c **** 		}
 175:C:/Users/stapi/OneDrive/Desktop/GD32VW553/V1_MQTT_OK/GD32VW55X_Wifi_BLE_SDK/GD32VW55x_RELEASE_V1.0.2/MSDK/wpa_supplicant/src/tls\tlsv1_cred.c **** 
 176:C:/Users/stapi/OneDrive/Desktop/GD32VW553/V1_MQTT_OK/GD32VW55X_Wifi_BLE_SDK/GD32VW55x_RELEASE_V1.0.2/MSDK/wpa_supplicant/src/tls\tlsv1_cred.c **** 		ret = tlsv1_add_cert(chain, buf, len);
 177:C:/Users/stapi/OneDrive/Desktop/GD32VW553/V1_MQTT_OK/GD32VW55X_Wifi_BLE_SDK/GD32VW55x_RELEASE_V1.0.2/MSDK/wpa_supplicant/src/tls\tlsv1_cred.c **** 		os_free(buf);
 178:C:/Users/stapi/OneDrive/Desktop/GD32VW553/V1_MQTT_OK/GD32VW55X_Wifi_BLE_SDK/GD32VW55x_RELEASE_V1.0.2/MSDK/wpa_supplicant/src/tls\tlsv1_cred.c **** 		return ret;
 179:C:/Users/stapi/OneDrive/Desktop/GD32VW553/V1_MQTT_OK/GD32VW55X_Wifi_BLE_SDK/GD32VW55x_RELEASE_V1.0.2/MSDK/wpa_supplicant/src/tls\tlsv1_cred.c **** 	}
 180:C:/Users/stapi/OneDrive/Desktop/GD32VW553/V1_MQTT_OK/GD32VW55X_Wifi_BLE_SDK/GD32VW55x_RELEASE_V1.0.2/MSDK/wpa_supplicant/src/tls\tlsv1_cred.c **** 
 181:C:/Users/stapi/OneDrive/Desktop/GD32VW553/V1_MQTT_OK/GD32VW55X_Wifi_BLE_SDK/GD32VW55x_RELEASE_V1.0.2/MSDK/wpa_supplicant/src/tls\tlsv1_cred.c **** 	return 0;
 182:C:/Users/stapi/OneDrive/Desktop/GD32VW553/V1_MQTT_OK/GD32VW55X_Wifi_BLE_SDK/GD32VW55x_RELEASE_V1.0.2/MSDK/wpa_supplicant/src/tls\tlsv1_cred.c **** }
 183:C:/Users/stapi/OneDrive/Desktop/GD32VW553/V1_MQTT_OK/GD32VW55X_Wifi_BLE_SDK/GD32VW55x_RELEASE_V1.0.2/MSDK/wpa_supplicant/src/tls\tlsv1_cred.c **** 
 184:C:/Users/stapi/OneDrive/Desktop/GD32VW553/V1_MQTT_OK/GD32VW55X_Wifi_BLE_SDK/GD32VW55x_RELEASE_V1.0.2/MSDK/wpa_supplicant/src/tls\tlsv1_cred.c **** 
 185:C:/Users/stapi/OneDrive/Desktop/GD32VW553/V1_MQTT_OK/GD32VW55X_Wifi_BLE_SDK/GD32VW55x_RELEASE_V1.0.2/MSDK/wpa_supplicant/src/tls\tlsv1_cred.c **** /**
 186:C:/Users/stapi/OneDrive/Desktop/GD32VW553/V1_MQTT_OK/GD32VW55X_Wifi_BLE_SDK/GD32VW55x_RELEASE_V1.0.2/MSDK/wpa_supplicant/src/tls\tlsv1_cred.c ****  * tlsv1_set_ca_cert - Set trusted CA certificate(s)
 187:C:/Users/stapi/OneDrive/Desktop/GD32VW553/V1_MQTT_OK/GD32VW55X_Wifi_BLE_SDK/GD32VW55x_RELEASE_V1.0.2/MSDK/wpa_supplicant/src/tls\tlsv1_cred.c ****  * @cred: TLSv1 credentials from tlsv1_cred_alloc()
 188:C:/Users/stapi/OneDrive/Desktop/GD32VW553/V1_MQTT_OK/GD32VW55X_Wifi_BLE_SDK/GD32VW55x_RELEASE_V1.0.2/MSDK/wpa_supplicant/src/tls\tlsv1_cred.c ****  * @cert: File or reference name for X.509 certificate in PEM or DER format
 189:C:/Users/stapi/OneDrive/Desktop/GD32VW553/V1_MQTT_OK/GD32VW55X_Wifi_BLE_SDK/GD32VW55x_RELEASE_V1.0.2/MSDK/wpa_supplicant/src/tls\tlsv1_cred.c ****  * @cert_blob: cert as inlined data or %NULL if not used
 190:C:/Users/stapi/OneDrive/Desktop/GD32VW553/V1_MQTT_OK/GD32VW55X_Wifi_BLE_SDK/GD32VW55x_RELEASE_V1.0.2/MSDK/wpa_supplicant/src/tls\tlsv1_cred.c ****  * @cert_blob_len: ca_cert_blob length
 191:C:/Users/stapi/OneDrive/Desktop/GD32VW553/V1_MQTT_OK/GD32VW55X_Wifi_BLE_SDK/GD32VW55x_RELEASE_V1.0.2/MSDK/wpa_supplicant/src/tls\tlsv1_cred.c ****  * @path: Path to CA certificates (not yet supported)
 192:C:/Users/stapi/OneDrive/Desktop/GD32VW553/V1_MQTT_OK/GD32VW55X_Wifi_BLE_SDK/GD32VW55x_RELEASE_V1.0.2/MSDK/wpa_supplicant/src/tls\tlsv1_cred.c ****  * Returns: 0 on success, -1 on failure
 193:C:/Users/stapi/OneDrive/Desktop/GD32VW553/V1_MQTT_OK/GD32VW55X_Wifi_BLE_SDK/GD32VW55x_RELEASE_V1.0.2/MSDK/wpa_supplicant/src/tls\tlsv1_cred.c ****  */
 194:C:/Users/stapi/OneDrive/Desktop/GD32VW553/V1_MQTT_OK/GD32VW55X_Wifi_BLE_SDK/GD32VW55x_RELEASE_V1.0.2/MSDK/wpa_supplicant/src/tls\tlsv1_cred.c **** int tlsv1_set_ca_cert(struct tlsv1_credentials *cred, const char *cert,
 195:C:/Users/stapi/OneDrive/Desktop/GD32VW553/V1_MQTT_OK/GD32VW55X_Wifi_BLE_SDK/GD32VW55x_RELEASE_V1.0.2/MSDK/wpa_supplicant/src/tls\tlsv1_cred.c **** 		      const u8 *cert_blob, size_t cert_blob_len,
 196:C:/Users/stapi/OneDrive/Desktop/GD32VW553/V1_MQTT_OK/GD32VW55X_Wifi_BLE_SDK/GD32VW55x_RELEASE_V1.0.2/MSDK/wpa_supplicant/src/tls\tlsv1_cred.c **** 		      const char *path)
 197:C:/Users/stapi/OneDrive/Desktop/GD32VW553/V1_MQTT_OK/GD32VW55X_Wifi_BLE_SDK/GD32VW55x_RELEASE_V1.0.2/MSDK/wpa_supplicant/src/tls\tlsv1_cred.c **** {
 198:C:/Users/stapi/OneDrive/Desktop/GD32VW553/V1_MQTT_OK/GD32VW55X_Wifi_BLE_SDK/GD32VW55x_RELEASE_V1.0.2/MSDK/wpa_supplicant/src/tls\tlsv1_cred.c **** 	if (cert && os_strncmp(cert, "hash://", 7) == 0) {
 199:C:/Users/stapi/OneDrive/Desktop/GD32VW553/V1_MQTT_OK/GD32VW55X_Wifi_BLE_SDK/GD32VW55x_RELEASE_V1.0.2/MSDK/wpa_supplicant/src/tls\tlsv1_cred.c **** 		const char *pos = cert + 7;
 200:C:/Users/stapi/OneDrive/Desktop/GD32VW553/V1_MQTT_OK/GD32VW55X_Wifi_BLE_SDK/GD32VW55x_RELEASE_V1.0.2/MSDK/wpa_supplicant/src/tls\tlsv1_cred.c **** 		if (os_strncmp(pos, "server/sha256/", 14) != 0) {
 201:C:/Users/stapi/OneDrive/Desktop/GD32VW553/V1_MQTT_OK/GD32VW55X_Wifi_BLE_SDK/GD32VW55x_RELEASE_V1.0.2/MSDK/wpa_supplicant/src/tls\tlsv1_cred.c **** 			wpa_printf(MSG_DEBUG,
 202:C:/Users/stapi/OneDrive/Desktop/GD32VW553/V1_MQTT_OK/GD32VW55X_Wifi_BLE_SDK/GD32VW55x_RELEASE_V1.0.2/MSDK/wpa_supplicant/src/tls\tlsv1_cred.c **** 				   "TLSv1: Unsupported ca_cert hash value '%s'",
 203:C:/Users/stapi/OneDrive/Desktop/GD32VW553/V1_MQTT_OK/GD32VW55X_Wifi_BLE_SDK/GD32VW55x_RELEASE_V1.0.2/MSDK/wpa_supplicant/src/tls\tlsv1_cred.c **** 				   cert);
 204:C:/Users/stapi/OneDrive/Desktop/GD32VW553/V1_MQTT_OK/GD32VW55X_Wifi_BLE_SDK/GD32VW55x_RELEASE_V1.0.2/MSDK/wpa_supplicant/src/tls\tlsv1_cred.c **** 			return -1;
 205:C:/Users/stapi/OneDrive/Desktop/GD32VW553/V1_MQTT_OK/GD32VW55X_Wifi_BLE_SDK/GD32VW55x_RELEASE_V1.0.2/MSDK/wpa_supplicant/src/tls\tlsv1_cred.c **** 		}
 206:C:/Users/stapi/OneDrive/Desktop/GD32VW553/V1_MQTT_OK/GD32VW55X_Wifi_BLE_SDK/GD32VW55x_RELEASE_V1.0.2/MSDK/wpa_supplicant/src/tls\tlsv1_cred.c **** 		pos += 14;
 207:C:/Users/stapi/OneDrive/Desktop/GD32VW553/V1_MQTT_OK/GD32VW55X_Wifi_BLE_SDK/GD32VW55x_RELEASE_V1.0.2/MSDK/wpa_supplicant/src/tls\tlsv1_cred.c **** 		if (os_strlen(pos) != 32 * 2) {
 208:C:/Users/stapi/OneDrive/Desktop/GD32VW553/V1_MQTT_OK/GD32VW55X_Wifi_BLE_SDK/GD32VW55x_RELEASE_V1.0.2/MSDK/wpa_supplicant/src/tls\tlsv1_cred.c **** 			wpa_printf(MSG_DEBUG,
 209:C:/Users/stapi/OneDrive/Desktop/GD32VW553/V1_MQTT_OK/GD32VW55X_Wifi_BLE_SDK/GD32VW55x_RELEASE_V1.0.2/MSDK/wpa_supplicant/src/tls\tlsv1_cred.c **** 				   "TLSv1: Unexpected SHA256 hash length in ca_cert '%s'",
 210:C:/Users/stapi/OneDrive/Desktop/GD32VW553/V1_MQTT_OK/GD32VW55X_Wifi_BLE_SDK/GD32VW55x_RELEASE_V1.0.2/MSDK/wpa_supplicant/src/tls\tlsv1_cred.c **** 				   cert);
 211:C:/Users/stapi/OneDrive/Desktop/GD32VW553/V1_MQTT_OK/GD32VW55X_Wifi_BLE_SDK/GD32VW55x_RELEASE_V1.0.2/MSDK/wpa_supplicant/src/tls\tlsv1_cred.c **** 			return -1;
 212:C:/Users/stapi/OneDrive/Desktop/GD32VW553/V1_MQTT_OK/GD32VW55X_Wifi_BLE_SDK/GD32VW55x_RELEASE_V1.0.2/MSDK/wpa_supplicant/src/tls\tlsv1_cred.c **** 		}
 213:C:/Users/stapi/OneDrive/Desktop/GD32VW553/V1_MQTT_OK/GD32VW55X_Wifi_BLE_SDK/GD32VW55x_RELEASE_V1.0.2/MSDK/wpa_supplicant/src/tls\tlsv1_cred.c **** 		if (hexstr2bin(pos, cred->srv_cert_hash, 32) < 0) {
 214:C:/Users/stapi/OneDrive/Desktop/GD32VW553/V1_MQTT_OK/GD32VW55X_Wifi_BLE_SDK/GD32VW55x_RELEASE_V1.0.2/MSDK/wpa_supplicant/src/tls\tlsv1_cred.c **** 			wpa_printf(MSG_DEBUG,
 215:C:/Users/stapi/OneDrive/Desktop/GD32VW553/V1_MQTT_OK/GD32VW55X_Wifi_BLE_SDK/GD32VW55x_RELEASE_V1.0.2/MSDK/wpa_supplicant/src/tls\tlsv1_cred.c **** 				   "TLSv1: Invalid SHA256 hash value in ca_cert '%s'",
 216:C:/Users/stapi/OneDrive/Desktop/GD32VW553/V1_MQTT_OK/GD32VW55X_Wifi_BLE_SDK/GD32VW55x_RELEASE_V1.0.2/MSDK/wpa_supplicant/src/tls\tlsv1_cred.c **** 				   cert);
 217:C:/Users/stapi/OneDrive/Desktop/GD32VW553/V1_MQTT_OK/GD32VW55X_Wifi_BLE_SDK/GD32VW55x_RELEASE_V1.0.2/MSDK/wpa_supplicant/src/tls\tlsv1_cred.c **** 			return -1;
 218:C:/Users/stapi/OneDrive/Desktop/GD32VW553/V1_MQTT_OK/GD32VW55X_Wifi_BLE_SDK/GD32VW55x_RELEASE_V1.0.2/MSDK/wpa_supplicant/src/tls\tlsv1_cred.c **** 		}
 219:C:/Users/stapi/OneDrive/Desktop/GD32VW553/V1_MQTT_OK/GD32VW55X_Wifi_BLE_SDK/GD32VW55x_RELEASE_V1.0.2/MSDK/wpa_supplicant/src/tls\tlsv1_cred.c **** 		cred->server_cert_only = 1;
 220:C:/Users/stapi/OneDrive/Desktop/GD32VW553/V1_MQTT_OK/GD32VW55X_Wifi_BLE_SDK/GD32VW55x_RELEASE_V1.0.2/MSDK/wpa_supplicant/src/tls\tlsv1_cred.c **** 		cred->ca_cert_verify = 0;
 221:C:/Users/stapi/OneDrive/Desktop/GD32VW553/V1_MQTT_OK/GD32VW55X_Wifi_BLE_SDK/GD32VW55x_RELEASE_V1.0.2/MSDK/wpa_supplicant/src/tls\tlsv1_cred.c **** 		wpa_printf(MSG_DEBUG,
 222:C:/Users/stapi/OneDrive/Desktop/GD32VW553/V1_MQTT_OK/GD32VW55X_Wifi_BLE_SDK/GD32VW55x_RELEASE_V1.0.2/MSDK/wpa_supplicant/src/tls\tlsv1_cred.c **** 			   "TLSv1: Checking only server certificate match");
 223:C:/Users/stapi/OneDrive/Desktop/GD32VW553/V1_MQTT_OK/GD32VW55X_Wifi_BLE_SDK/GD32VW55x_RELEASE_V1.0.2/MSDK/wpa_supplicant/src/tls\tlsv1_cred.c **** 		return 0;
 224:C:/Users/stapi/OneDrive/Desktop/GD32VW553/V1_MQTT_OK/GD32VW55X_Wifi_BLE_SDK/GD32VW55x_RELEASE_V1.0.2/MSDK/wpa_supplicant/src/tls\tlsv1_cred.c **** 	}
 225:C:/Users/stapi/OneDrive/Desktop/GD32VW553/V1_MQTT_OK/GD32VW55X_Wifi_BLE_SDK/GD32VW55x_RELEASE_V1.0.2/MSDK/wpa_supplicant/src/tls\tlsv1_cred.c **** 
 226:C:/Users/stapi/OneDrive/Desktop/GD32VW553/V1_MQTT_OK/GD32VW55X_Wifi_BLE_SDK/GD32VW55x_RELEASE_V1.0.2/MSDK/wpa_supplicant/src/tls\tlsv1_cred.c **** 	if (cert && os_strncmp(cert, "probe://", 8) == 0) {
 227:C:/Users/stapi/OneDrive/Desktop/GD32VW553/V1_MQTT_OK/GD32VW55X_Wifi_BLE_SDK/GD32VW55x_RELEASE_V1.0.2/MSDK/wpa_supplicant/src/tls\tlsv1_cred.c **** 		cred->cert_probe = 1;
 228:C:/Users/stapi/OneDrive/Desktop/GD32VW553/V1_MQTT_OK/GD32VW55X_Wifi_BLE_SDK/GD32VW55x_RELEASE_V1.0.2/MSDK/wpa_supplicant/src/tls\tlsv1_cred.c **** 		cred->ca_cert_verify = 0;
 229:C:/Users/stapi/OneDrive/Desktop/GD32VW553/V1_MQTT_OK/GD32VW55X_Wifi_BLE_SDK/GD32VW55x_RELEASE_V1.0.2/MSDK/wpa_supplicant/src/tls\tlsv1_cred.c **** 		wpa_printf(MSG_DEBUG, "TLSv1: Only probe server certificate");
 230:C:/Users/stapi/OneDrive/Desktop/GD32VW553/V1_MQTT_OK/GD32VW55X_Wifi_BLE_SDK/GD32VW55x_RELEASE_V1.0.2/MSDK/wpa_supplicant/src/tls\tlsv1_cred.c **** 		return 0;
 231:C:/Users/stapi/OneDrive/Desktop/GD32VW553/V1_MQTT_OK/GD32VW55X_Wifi_BLE_SDK/GD32VW55x_RELEASE_V1.0.2/MSDK/wpa_supplicant/src/tls\tlsv1_cred.c **** 	}
 232:C:/Users/stapi/OneDrive/Desktop/GD32VW553/V1_MQTT_OK/GD32VW55X_Wifi_BLE_SDK/GD32VW55x_RELEASE_V1.0.2/MSDK/wpa_supplicant/src/tls\tlsv1_cred.c **** 
 233:C:/Users/stapi/OneDrive/Desktop/GD32VW553/V1_MQTT_OK/GD32VW55X_Wifi_BLE_SDK/GD32VW55x_RELEASE_V1.0.2/MSDK/wpa_supplicant/src/tls\tlsv1_cred.c **** 	cred->ca_cert_verify = cert || cert_blob || path;
 234:C:/Users/stapi/OneDrive/Desktop/GD32VW553/V1_MQTT_OK/GD32VW55X_Wifi_BLE_SDK/GD32VW55x_RELEASE_V1.0.2/MSDK/wpa_supplicant/src/tls\tlsv1_cred.c **** 
 235:C:/Users/stapi/OneDrive/Desktop/GD32VW553/V1_MQTT_OK/GD32VW55X_Wifi_BLE_SDK/GD32VW55x_RELEASE_V1.0.2/MSDK/wpa_supplicant/src/tls\tlsv1_cred.c **** 	if (tlsv1_set_cert_chain(&cred->trusted_certs, cert,
 236:C:/Users/stapi/OneDrive/Desktop/GD32VW553/V1_MQTT_OK/GD32VW55X_Wifi_BLE_SDK/GD32VW55x_RELEASE_V1.0.2/MSDK/wpa_supplicant/src/tls\tlsv1_cred.c **** 				 cert_blob, cert_blob_len) < 0)
 237:C:/Users/stapi/OneDrive/Desktop/GD32VW553/V1_MQTT_OK/GD32VW55X_Wifi_BLE_SDK/GD32VW55x_RELEASE_V1.0.2/MSDK/wpa_supplicant/src/tls\tlsv1_cred.c **** 		return -1;
 238:C:/Users/stapi/OneDrive/Desktop/GD32VW553/V1_MQTT_OK/GD32VW55X_Wifi_BLE_SDK/GD32VW55x_RELEASE_V1.0.2/MSDK/wpa_supplicant/src/tls\tlsv1_cred.c **** 
 239:C:/Users/stapi/OneDrive/Desktop/GD32VW553/V1_MQTT_OK/GD32VW55X_Wifi_BLE_SDK/GD32VW55x_RELEASE_V1.0.2/MSDK/wpa_supplicant/src/tls\tlsv1_cred.c **** 	if (path) {
 240:C:/Users/stapi/OneDrive/Desktop/GD32VW553/V1_MQTT_OK/GD32VW55X_Wifi_BLE_SDK/GD32VW55x_RELEASE_V1.0.2/MSDK/wpa_supplicant/src/tls\tlsv1_cred.c **** 		/* TODO: add support for reading number of certificate files */
 241:C:/Users/stapi/OneDrive/Desktop/GD32VW553/V1_MQTT_OK/GD32VW55X_Wifi_BLE_SDK/GD32VW55x_RELEASE_V1.0.2/MSDK/wpa_supplicant/src/tls\tlsv1_cred.c **** 		wpa_printf(MSG_INFO, "TLSv1: Use of CA certificate directory "
 242:C:/Users/stapi/OneDrive/Desktop/GD32VW553/V1_MQTT_OK/GD32VW55X_Wifi_BLE_SDK/GD32VW55x_RELEASE_V1.0.2/MSDK/wpa_supplicant/src/tls\tlsv1_cred.c **** 			   "not yet supported");
 243:C:/Users/stapi/OneDrive/Desktop/GD32VW553/V1_MQTT_OK/GD32VW55X_Wifi_BLE_SDK/GD32VW55x_RELEASE_V1.0.2/MSDK/wpa_supplicant/src/tls\tlsv1_cred.c **** 		return -1;
 244:C:/Users/stapi/OneDrive/Desktop/GD32VW553/V1_MQTT_OK/GD32VW55X_Wifi_BLE_SDK/GD32VW55x_RELEASE_V1.0.2/MSDK/wpa_supplicant/src/tls\tlsv1_cred.c **** 	}
 245:C:/Users/stapi/OneDrive/Desktop/GD32VW553/V1_MQTT_OK/GD32VW55X_Wifi_BLE_SDK/GD32VW55x_RELEASE_V1.0.2/MSDK/wpa_supplicant/src/tls\tlsv1_cred.c **** 
 246:C:/Users/stapi/OneDrive/Desktop/GD32VW553/V1_MQTT_OK/GD32VW55X_Wifi_BLE_SDK/GD32VW55x_RELEASE_V1.0.2/MSDK/wpa_supplicant/src/tls\tlsv1_cred.c **** 	return 0;
 247:C:/Users/stapi/OneDrive/Desktop/GD32VW553/V1_MQTT_OK/GD32VW55X_Wifi_BLE_SDK/GD32VW55x_RELEASE_V1.0.2/MSDK/wpa_supplicant/src/tls\tlsv1_cred.c **** }
 248:C:/Users/stapi/OneDrive/Desktop/GD32VW553/V1_MQTT_OK/GD32VW55X_Wifi_BLE_SDK/GD32VW55x_RELEASE_V1.0.2/MSDK/wpa_supplicant/src/tls\tlsv1_cred.c **** 
 249:C:/Users/stapi/OneDrive/Desktop/GD32VW553/V1_MQTT_OK/GD32VW55X_Wifi_BLE_SDK/GD32VW55x_RELEASE_V1.0.2/MSDK/wpa_supplicant/src/tls\tlsv1_cred.c **** 
 250:C:/Users/stapi/OneDrive/Desktop/GD32VW553/V1_MQTT_OK/GD32VW55X_Wifi_BLE_SDK/GD32VW55x_RELEASE_V1.0.2/MSDK/wpa_supplicant/src/tls\tlsv1_cred.c **** /**
 251:C:/Users/stapi/OneDrive/Desktop/GD32VW553/V1_MQTT_OK/GD32VW55X_Wifi_BLE_SDK/GD32VW55x_RELEASE_V1.0.2/MSDK/wpa_supplicant/src/tls\tlsv1_cred.c ****  * tlsv1_set_cert - Set certificate
 252:C:/Users/stapi/OneDrive/Desktop/GD32VW553/V1_MQTT_OK/GD32VW55X_Wifi_BLE_SDK/GD32VW55x_RELEASE_V1.0.2/MSDK/wpa_supplicant/src/tls\tlsv1_cred.c ****  * @cred: TLSv1 credentials from tlsv1_cred_alloc()
 253:C:/Users/stapi/OneDrive/Desktop/GD32VW553/V1_MQTT_OK/GD32VW55X_Wifi_BLE_SDK/GD32VW55x_RELEASE_V1.0.2/MSDK/wpa_supplicant/src/tls\tlsv1_cred.c ****  * @cert: File or reference name for X.509 certificate in PEM or DER format
 254:C:/Users/stapi/OneDrive/Desktop/GD32VW553/V1_MQTT_OK/GD32VW55X_Wifi_BLE_SDK/GD32VW55x_RELEASE_V1.0.2/MSDK/wpa_supplicant/src/tls\tlsv1_cred.c ****  * @cert_blob: cert as inlined data or %NULL if not used
 255:C:/Users/stapi/OneDrive/Desktop/GD32VW553/V1_MQTT_OK/GD32VW55X_Wifi_BLE_SDK/GD32VW55x_RELEASE_V1.0.2/MSDK/wpa_supplicant/src/tls\tlsv1_cred.c ****  * @cert_blob_len: cert_blob length
 256:C:/Users/stapi/OneDrive/Desktop/GD32VW553/V1_MQTT_OK/GD32VW55X_Wifi_BLE_SDK/GD32VW55x_RELEASE_V1.0.2/MSDK/wpa_supplicant/src/tls\tlsv1_cred.c ****  * Returns: 0 on success, -1 on failure
 257:C:/Users/stapi/OneDrive/Desktop/GD32VW553/V1_MQTT_OK/GD32VW55X_Wifi_BLE_SDK/GD32VW55x_RELEASE_V1.0.2/MSDK/wpa_supplicant/src/tls\tlsv1_cred.c ****  */
 258:C:/Users/stapi/OneDrive/Desktop/GD32VW553/V1_MQTT_OK/GD32VW55X_Wifi_BLE_SDK/GD32VW55x_RELEASE_V1.0.2/MSDK/wpa_supplicant/src/tls\tlsv1_cred.c **** int tlsv1_set_cert(struct tlsv1_credentials *cred, const char *cert,
 259:C:/Users/stapi/OneDrive/Desktop/GD32VW553/V1_MQTT_OK/GD32VW55X_Wifi_BLE_SDK/GD32VW55x_RELEASE_V1.0.2/MSDK/wpa_supplicant/src/tls\tlsv1_cred.c **** 		   const u8 *cert_blob, size_t cert_blob_len)
 260:C:/Users/stapi/OneDrive/Desktop/GD32VW553/V1_MQTT_OK/GD32VW55X_Wifi_BLE_SDK/GD32VW55x_RELEASE_V1.0.2/MSDK/wpa_supplicant/src/tls\tlsv1_cred.c **** {
 261:C:/Users/stapi/OneDrive/Desktop/GD32VW553/V1_MQTT_OK/GD32VW55X_Wifi_BLE_SDK/GD32VW55x_RELEASE_V1.0.2/MSDK/wpa_supplicant/src/tls\tlsv1_cred.c **** 	return tlsv1_set_cert_chain(&cred->cert, cert,
 262:C:/Users/stapi/OneDrive/Desktop/GD32VW553/V1_MQTT_OK/GD32VW55X_Wifi_BLE_SDK/GD32VW55x_RELEASE_V1.0.2/MSDK/wpa_supplicant/src/tls\tlsv1_cred.c **** 				    cert_blob, cert_blob_len);
 263:C:/Users/stapi/OneDrive/Desktop/GD32VW553/V1_MQTT_OK/GD32VW55X_Wifi_BLE_SDK/GD32VW55x_RELEASE_V1.0.2/MSDK/wpa_supplicant/src/tls\tlsv1_cred.c **** }
 264:C:/Users/stapi/OneDrive/Desktop/GD32VW553/V1_MQTT_OK/GD32VW55X_Wifi_BLE_SDK/GD32VW55x_RELEASE_V1.0.2/MSDK/wpa_supplicant/src/tls\tlsv1_cred.c **** 
 265:C:/Users/stapi/OneDrive/Desktop/GD32VW553/V1_MQTT_OK/GD32VW55X_Wifi_BLE_SDK/GD32VW55x_RELEASE_V1.0.2/MSDK/wpa_supplicant/src/tls\tlsv1_cred.c **** 
 266:C:/Users/stapi/OneDrive/Desktop/GD32VW553/V1_MQTT_OK/GD32VW55X_Wifi_BLE_SDK/GD32VW55x_RELEASE_V1.0.2/MSDK/wpa_supplicant/src/tls\tlsv1_cred.c **** static struct crypto_private_key * tlsv1_set_key_pem(const u8 *key, size_t len)
 267:C:/Users/stapi/OneDrive/Desktop/GD32VW553/V1_MQTT_OK/GD32VW55X_Wifi_BLE_SDK/GD32VW55x_RELEASE_V1.0.2/MSDK/wpa_supplicant/src/tls\tlsv1_cred.c **** {
 268:C:/Users/stapi/OneDrive/Desktop/GD32VW553/V1_MQTT_OK/GD32VW55X_Wifi_BLE_SDK/GD32VW55x_RELEASE_V1.0.2/MSDK/wpa_supplicant/src/tls\tlsv1_cred.c **** 	const u8 *pos, *end;
 269:C:/Users/stapi/OneDrive/Desktop/GD32VW553/V1_MQTT_OK/GD32VW55X_Wifi_BLE_SDK/GD32VW55x_RELEASE_V1.0.2/MSDK/wpa_supplicant/src/tls\tlsv1_cred.c **** 	unsigned char *der;
 270:C:/Users/stapi/OneDrive/Desktop/GD32VW553/V1_MQTT_OK/GD32VW55X_Wifi_BLE_SDK/GD32VW55x_RELEASE_V1.0.2/MSDK/wpa_supplicant/src/tls\tlsv1_cred.c **** 	size_t der_len;
 271:C:/Users/stapi/OneDrive/Desktop/GD32VW553/V1_MQTT_OK/GD32VW55X_Wifi_BLE_SDK/GD32VW55x_RELEASE_V1.0.2/MSDK/wpa_supplicant/src/tls\tlsv1_cred.c **** 	struct crypto_private_key *pkey;
 272:C:/Users/stapi/OneDrive/Desktop/GD32VW553/V1_MQTT_OK/GD32VW55X_Wifi_BLE_SDK/GD32VW55x_RELEASE_V1.0.2/MSDK/wpa_supplicant/src/tls\tlsv1_cred.c **** 
 273:C:/Users/stapi/OneDrive/Desktop/GD32VW553/V1_MQTT_OK/GD32VW55X_Wifi_BLE_SDK/GD32VW55x_RELEASE_V1.0.2/MSDK/wpa_supplicant/src/tls\tlsv1_cred.c **** 	pos = search_tag(pem_key_begin, key, len);
 274:C:/Users/stapi/OneDrive/Desktop/GD32VW553/V1_MQTT_OK/GD32VW55X_Wifi_BLE_SDK/GD32VW55x_RELEASE_V1.0.2/MSDK/wpa_supplicant/src/tls\tlsv1_cred.c **** 	if (!pos) {
 275:C:/Users/stapi/OneDrive/Desktop/GD32VW553/V1_MQTT_OK/GD32VW55X_Wifi_BLE_SDK/GD32VW55x_RELEASE_V1.0.2/MSDK/wpa_supplicant/src/tls\tlsv1_cred.c **** 		pos = search_tag(pem_key2_begin, key, len);
 276:C:/Users/stapi/OneDrive/Desktop/GD32VW553/V1_MQTT_OK/GD32VW55X_Wifi_BLE_SDK/GD32VW55x_RELEASE_V1.0.2/MSDK/wpa_supplicant/src/tls\tlsv1_cred.c **** 		if (!pos)
 277:C:/Users/stapi/OneDrive/Desktop/GD32VW553/V1_MQTT_OK/GD32VW55X_Wifi_BLE_SDK/GD32VW55x_RELEASE_V1.0.2/MSDK/wpa_supplicant/src/tls\tlsv1_cred.c **** 			return NULL;
 278:C:/Users/stapi/OneDrive/Desktop/GD32VW553/V1_MQTT_OK/GD32VW55X_Wifi_BLE_SDK/GD32VW55x_RELEASE_V1.0.2/MSDK/wpa_supplicant/src/tls\tlsv1_cred.c **** 		pos += os_strlen(pem_key2_begin);
 279:C:/Users/stapi/OneDrive/Desktop/GD32VW553/V1_MQTT_OK/GD32VW55X_Wifi_BLE_SDK/GD32VW55x_RELEASE_V1.0.2/MSDK/wpa_supplicant/src/tls\tlsv1_cred.c **** 		end = search_tag(pem_key2_end, pos, key + len - pos);
 280:C:/Users/stapi/OneDrive/Desktop/GD32VW553/V1_MQTT_OK/GD32VW55X_Wifi_BLE_SDK/GD32VW55x_RELEASE_V1.0.2/MSDK/wpa_supplicant/src/tls\tlsv1_cred.c **** 		if (!end)
 281:C:/Users/stapi/OneDrive/Desktop/GD32VW553/V1_MQTT_OK/GD32VW55X_Wifi_BLE_SDK/GD32VW55x_RELEASE_V1.0.2/MSDK/wpa_supplicant/src/tls\tlsv1_cred.c **** 			return NULL;
 282:C:/Users/stapi/OneDrive/Desktop/GD32VW553/V1_MQTT_OK/GD32VW55X_Wifi_BLE_SDK/GD32VW55x_RELEASE_V1.0.2/MSDK/wpa_supplicant/src/tls\tlsv1_cred.c **** 	} else {
 283:C:/Users/stapi/OneDrive/Desktop/GD32VW553/V1_MQTT_OK/GD32VW55X_Wifi_BLE_SDK/GD32VW55x_RELEASE_V1.0.2/MSDK/wpa_supplicant/src/tls\tlsv1_cred.c **** 		const u8 *pos2;
 284:C:/Users/stapi/OneDrive/Desktop/GD32VW553/V1_MQTT_OK/GD32VW55X_Wifi_BLE_SDK/GD32VW55x_RELEASE_V1.0.2/MSDK/wpa_supplicant/src/tls\tlsv1_cred.c **** 		pos += os_strlen(pem_key_begin);
 285:C:/Users/stapi/OneDrive/Desktop/GD32VW553/V1_MQTT_OK/GD32VW55X_Wifi_BLE_SDK/GD32VW55x_RELEASE_V1.0.2/MSDK/wpa_supplicant/src/tls\tlsv1_cred.c **** 		end = search_tag(pem_key_end, pos, key + len - pos);
 286:C:/Users/stapi/OneDrive/Desktop/GD32VW553/V1_MQTT_OK/GD32VW55X_Wifi_BLE_SDK/GD32VW55x_RELEASE_V1.0.2/MSDK/wpa_supplicant/src/tls\tlsv1_cred.c **** 		if (!end)
 287:C:/Users/stapi/OneDrive/Desktop/GD32VW553/V1_MQTT_OK/GD32VW55X_Wifi_BLE_SDK/GD32VW55x_RELEASE_V1.0.2/MSDK/wpa_supplicant/src/tls\tlsv1_cred.c **** 			return NULL;
 288:C:/Users/stapi/OneDrive/Desktop/GD32VW553/V1_MQTT_OK/GD32VW55X_Wifi_BLE_SDK/GD32VW55x_RELEASE_V1.0.2/MSDK/wpa_supplicant/src/tls\tlsv1_cred.c **** 		pos2 = search_tag("Proc-Type: 4,ENCRYPTED", pos, end - pos);
 289:C:/Users/stapi/OneDrive/Desktop/GD32VW553/V1_MQTT_OK/GD32VW55X_Wifi_BLE_SDK/GD32VW55x_RELEASE_V1.0.2/MSDK/wpa_supplicant/src/tls\tlsv1_cred.c **** 		if (pos2) {
 290:C:/Users/stapi/OneDrive/Desktop/GD32VW553/V1_MQTT_OK/GD32VW55X_Wifi_BLE_SDK/GD32VW55x_RELEASE_V1.0.2/MSDK/wpa_supplicant/src/tls\tlsv1_cred.c **** 			wpa_printf(MSG_DEBUG, "TLSv1: Unsupported private key "
 291:C:/Users/stapi/OneDrive/Desktop/GD32VW553/V1_MQTT_OK/GD32VW55X_Wifi_BLE_SDK/GD32VW55x_RELEASE_V1.0.2/MSDK/wpa_supplicant/src/tls\tlsv1_cred.c **** 				   "format (Proc-Type/DEK-Info)");
 292:C:/Users/stapi/OneDrive/Desktop/GD32VW553/V1_MQTT_OK/GD32VW55X_Wifi_BLE_SDK/GD32VW55x_RELEASE_V1.0.2/MSDK/wpa_supplicant/src/tls\tlsv1_cred.c **** 			return NULL;
 293:C:/Users/stapi/OneDrive/Desktop/GD32VW553/V1_MQTT_OK/GD32VW55X_Wifi_BLE_SDK/GD32VW55x_RELEASE_V1.0.2/MSDK/wpa_supplicant/src/tls\tlsv1_cred.c **** 		}
 294:C:/Users/stapi/OneDrive/Desktop/GD32VW553/V1_MQTT_OK/GD32VW55X_Wifi_BLE_SDK/GD32VW55x_RELEASE_V1.0.2/MSDK/wpa_supplicant/src/tls\tlsv1_cred.c **** 	}
 295:C:/Users/stapi/OneDrive/Desktop/GD32VW553/V1_MQTT_OK/GD32VW55X_Wifi_BLE_SDK/GD32VW55x_RELEASE_V1.0.2/MSDK/wpa_supplicant/src/tls\tlsv1_cred.c **** 
 296:C:/Users/stapi/OneDrive/Desktop/GD32VW553/V1_MQTT_OK/GD32VW55X_Wifi_BLE_SDK/GD32VW55x_RELEASE_V1.0.2/MSDK/wpa_supplicant/src/tls\tlsv1_cred.c **** 	der = base64_decode((const char *) pos, end - pos, &der_len);
 297:C:/Users/stapi/OneDrive/Desktop/GD32VW553/V1_MQTT_OK/GD32VW55X_Wifi_BLE_SDK/GD32VW55x_RELEASE_V1.0.2/MSDK/wpa_supplicant/src/tls\tlsv1_cred.c **** 	if (!der)
 298:C:/Users/stapi/OneDrive/Desktop/GD32VW553/V1_MQTT_OK/GD32VW55X_Wifi_BLE_SDK/GD32VW55x_RELEASE_V1.0.2/MSDK/wpa_supplicant/src/tls\tlsv1_cred.c **** 		return NULL;
 299:C:/Users/stapi/OneDrive/Desktop/GD32VW553/V1_MQTT_OK/GD32VW55X_Wifi_BLE_SDK/GD32VW55x_RELEASE_V1.0.2/MSDK/wpa_supplicant/src/tls\tlsv1_cred.c **** 	pkey = crypto_private_key_import(der, der_len, NULL);
 300:C:/Users/stapi/OneDrive/Desktop/GD32VW553/V1_MQTT_OK/GD32VW55X_Wifi_BLE_SDK/GD32VW55x_RELEASE_V1.0.2/MSDK/wpa_supplicant/src/tls\tlsv1_cred.c **** 	os_free(der);
 301:C:/Users/stapi/OneDrive/Desktop/GD32VW553/V1_MQTT_OK/GD32VW55X_Wifi_BLE_SDK/GD32VW55x_RELEASE_V1.0.2/MSDK/wpa_supplicant/src/tls\tlsv1_cred.c **** 	return pkey;
 302:C:/Users/stapi/OneDrive/Desktop/GD32VW553/V1_MQTT_OK/GD32VW55X_Wifi_BLE_SDK/GD32VW55x_RELEASE_V1.0.2/MSDK/wpa_supplicant/src/tls\tlsv1_cred.c **** }
 303:C:/Users/stapi/OneDrive/Desktop/GD32VW553/V1_MQTT_OK/GD32VW55X_Wifi_BLE_SDK/GD32VW55x_RELEASE_V1.0.2/MSDK/wpa_supplicant/src/tls\tlsv1_cred.c **** 
 304:C:/Users/stapi/OneDrive/Desktop/GD32VW553/V1_MQTT_OK/GD32VW55X_Wifi_BLE_SDK/GD32VW55x_RELEASE_V1.0.2/MSDK/wpa_supplicant/src/tls\tlsv1_cred.c **** 
 305:C:/Users/stapi/OneDrive/Desktop/GD32VW553/V1_MQTT_OK/GD32VW55X_Wifi_BLE_SDK/GD32VW55x_RELEASE_V1.0.2/MSDK/wpa_supplicant/src/tls\tlsv1_cred.c **** static struct crypto_private_key * tlsv1_set_key_enc_pem(const u8 *key,
 306:C:/Users/stapi/OneDrive/Desktop/GD32VW553/V1_MQTT_OK/GD32VW55X_Wifi_BLE_SDK/GD32VW55x_RELEASE_V1.0.2/MSDK/wpa_supplicant/src/tls\tlsv1_cred.c **** 							 size_t len,
 307:C:/Users/stapi/OneDrive/Desktop/GD32VW553/V1_MQTT_OK/GD32VW55X_Wifi_BLE_SDK/GD32VW55x_RELEASE_V1.0.2/MSDK/wpa_supplicant/src/tls\tlsv1_cred.c **** 							 const char *passwd)
 308:C:/Users/stapi/OneDrive/Desktop/GD32VW553/V1_MQTT_OK/GD32VW55X_Wifi_BLE_SDK/GD32VW55x_RELEASE_V1.0.2/MSDK/wpa_supplicant/src/tls\tlsv1_cred.c **** {
 309:C:/Users/stapi/OneDrive/Desktop/GD32VW553/V1_MQTT_OK/GD32VW55X_Wifi_BLE_SDK/GD32VW55x_RELEASE_V1.0.2/MSDK/wpa_supplicant/src/tls\tlsv1_cred.c **** 	const u8 *pos, *end;
 310:C:/Users/stapi/OneDrive/Desktop/GD32VW553/V1_MQTT_OK/GD32VW55X_Wifi_BLE_SDK/GD32VW55x_RELEASE_V1.0.2/MSDK/wpa_supplicant/src/tls\tlsv1_cred.c **** 	unsigned char *der;
 311:C:/Users/stapi/OneDrive/Desktop/GD32VW553/V1_MQTT_OK/GD32VW55X_Wifi_BLE_SDK/GD32VW55x_RELEASE_V1.0.2/MSDK/wpa_supplicant/src/tls\tlsv1_cred.c **** 	size_t der_len;
 312:C:/Users/stapi/OneDrive/Desktop/GD32VW553/V1_MQTT_OK/GD32VW55X_Wifi_BLE_SDK/GD32VW55x_RELEASE_V1.0.2/MSDK/wpa_supplicant/src/tls\tlsv1_cred.c **** 	struct crypto_private_key *pkey;
 313:C:/Users/stapi/OneDrive/Desktop/GD32VW553/V1_MQTT_OK/GD32VW55X_Wifi_BLE_SDK/GD32VW55x_RELEASE_V1.0.2/MSDK/wpa_supplicant/src/tls\tlsv1_cred.c **** 
 314:C:/Users/stapi/OneDrive/Desktop/GD32VW553/V1_MQTT_OK/GD32VW55X_Wifi_BLE_SDK/GD32VW55x_RELEASE_V1.0.2/MSDK/wpa_supplicant/src/tls\tlsv1_cred.c **** 	if (passwd == NULL)
 315:C:/Users/stapi/OneDrive/Desktop/GD32VW553/V1_MQTT_OK/GD32VW55X_Wifi_BLE_SDK/GD32VW55x_RELEASE_V1.0.2/MSDK/wpa_supplicant/src/tls\tlsv1_cred.c **** 		return NULL;
 316:C:/Users/stapi/OneDrive/Desktop/GD32VW553/V1_MQTT_OK/GD32VW55X_Wifi_BLE_SDK/GD32VW55x_RELEASE_V1.0.2/MSDK/wpa_supplicant/src/tls\tlsv1_cred.c **** 	pos = search_tag(pem_key_enc_begin, key, len);
 317:C:/Users/stapi/OneDrive/Desktop/GD32VW553/V1_MQTT_OK/GD32VW55X_Wifi_BLE_SDK/GD32VW55x_RELEASE_V1.0.2/MSDK/wpa_supplicant/src/tls\tlsv1_cred.c **** 	if (!pos)
 318:C:/Users/stapi/OneDrive/Desktop/GD32VW553/V1_MQTT_OK/GD32VW55X_Wifi_BLE_SDK/GD32VW55x_RELEASE_V1.0.2/MSDK/wpa_supplicant/src/tls\tlsv1_cred.c **** 		return NULL;
 319:C:/Users/stapi/OneDrive/Desktop/GD32VW553/V1_MQTT_OK/GD32VW55X_Wifi_BLE_SDK/GD32VW55x_RELEASE_V1.0.2/MSDK/wpa_supplicant/src/tls\tlsv1_cred.c **** 	pos += os_strlen(pem_key_enc_begin);
 320:C:/Users/stapi/OneDrive/Desktop/GD32VW553/V1_MQTT_OK/GD32VW55X_Wifi_BLE_SDK/GD32VW55x_RELEASE_V1.0.2/MSDK/wpa_supplicant/src/tls\tlsv1_cred.c **** 	end = search_tag(pem_key_enc_end, pos, key + len - pos);
 321:C:/Users/stapi/OneDrive/Desktop/GD32VW553/V1_MQTT_OK/GD32VW55X_Wifi_BLE_SDK/GD32VW55x_RELEASE_V1.0.2/MSDK/wpa_supplicant/src/tls\tlsv1_cred.c **** 	if (!end)
 322:C:/Users/stapi/OneDrive/Desktop/GD32VW553/V1_MQTT_OK/GD32VW55X_Wifi_BLE_SDK/GD32VW55x_RELEASE_V1.0.2/MSDK/wpa_supplicant/src/tls\tlsv1_cred.c **** 		return NULL;
 323:C:/Users/stapi/OneDrive/Desktop/GD32VW553/V1_MQTT_OK/GD32VW55X_Wifi_BLE_SDK/GD32VW55x_RELEASE_V1.0.2/MSDK/wpa_supplicant/src/tls\tlsv1_cred.c **** 
 324:C:/Users/stapi/OneDrive/Desktop/GD32VW553/V1_MQTT_OK/GD32VW55X_Wifi_BLE_SDK/GD32VW55x_RELEASE_V1.0.2/MSDK/wpa_supplicant/src/tls\tlsv1_cred.c **** 	der = base64_decode((const char *) pos, end - pos, &der_len);
 325:C:/Users/stapi/OneDrive/Desktop/GD32VW553/V1_MQTT_OK/GD32VW55X_Wifi_BLE_SDK/GD32VW55x_RELEASE_V1.0.2/MSDK/wpa_supplicant/src/tls\tlsv1_cred.c **** 	if (!der)
 326:C:/Users/stapi/OneDrive/Desktop/GD32VW553/V1_MQTT_OK/GD32VW55X_Wifi_BLE_SDK/GD32VW55x_RELEASE_V1.0.2/MSDK/wpa_supplicant/src/tls\tlsv1_cred.c **** 		return NULL;
 327:C:/Users/stapi/OneDrive/Desktop/GD32VW553/V1_MQTT_OK/GD32VW55X_Wifi_BLE_SDK/GD32VW55x_RELEASE_V1.0.2/MSDK/wpa_supplicant/src/tls\tlsv1_cred.c **** 	pkey = crypto_private_key_import(der, der_len, passwd);
 328:C:/Users/stapi/OneDrive/Desktop/GD32VW553/V1_MQTT_OK/GD32VW55X_Wifi_BLE_SDK/GD32VW55x_RELEASE_V1.0.2/MSDK/wpa_supplicant/src/tls\tlsv1_cred.c **** 	os_free(der);
 329:C:/Users/stapi/OneDrive/Desktop/GD32VW553/V1_MQTT_OK/GD32VW55X_Wifi_BLE_SDK/GD32VW55x_RELEASE_V1.0.2/MSDK/wpa_supplicant/src/tls\tlsv1_cred.c **** 	return pkey;
 330:C:/Users/stapi/OneDrive/Desktop/GD32VW553/V1_MQTT_OK/GD32VW55X_Wifi_BLE_SDK/GD32VW55x_RELEASE_V1.0.2/MSDK/wpa_supplicant/src/tls\tlsv1_cred.c **** }
 331:C:/Users/stapi/OneDrive/Desktop/GD32VW553/V1_MQTT_OK/GD32VW55X_Wifi_BLE_SDK/GD32VW55x_RELEASE_V1.0.2/MSDK/wpa_supplicant/src/tls\tlsv1_cred.c **** 
 332:C:/Users/stapi/OneDrive/Desktop/GD32VW553/V1_MQTT_OK/GD32VW55X_Wifi_BLE_SDK/GD32VW55x_RELEASE_V1.0.2/MSDK/wpa_supplicant/src/tls\tlsv1_cred.c **** 
 333:C:/Users/stapi/OneDrive/Desktop/GD32VW553/V1_MQTT_OK/GD32VW55X_Wifi_BLE_SDK/GD32VW55x_RELEASE_V1.0.2/MSDK/wpa_supplicant/src/tls\tlsv1_cred.c **** #ifdef PKCS12_FUNCS
 334:C:/Users/stapi/OneDrive/Desktop/GD32VW553/V1_MQTT_OK/GD32VW55X_Wifi_BLE_SDK/GD32VW55x_RELEASE_V1.0.2/MSDK/wpa_supplicant/src/tls\tlsv1_cred.c **** 
 335:C:/Users/stapi/OneDrive/Desktop/GD32VW553/V1_MQTT_OK/GD32VW55X_Wifi_BLE_SDK/GD32VW55x_RELEASE_V1.0.2/MSDK/wpa_supplicant/src/tls\tlsv1_cred.c **** static int oid_is_rsadsi(struct asn1_oid *oid)
 336:C:/Users/stapi/OneDrive/Desktop/GD32VW553/V1_MQTT_OK/GD32VW55X_Wifi_BLE_SDK/GD32VW55x_RELEASE_V1.0.2/MSDK/wpa_supplicant/src/tls\tlsv1_cred.c **** {
 337:C:/Users/stapi/OneDrive/Desktop/GD32VW553/V1_MQTT_OK/GD32VW55X_Wifi_BLE_SDK/GD32VW55x_RELEASE_V1.0.2/MSDK/wpa_supplicant/src/tls\tlsv1_cred.c **** 	return oid->len >= 4 &&
 338:C:/Users/stapi/OneDrive/Desktop/GD32VW553/V1_MQTT_OK/GD32VW55X_Wifi_BLE_SDK/GD32VW55x_RELEASE_V1.0.2/MSDK/wpa_supplicant/src/tls\tlsv1_cred.c **** 		oid->oid[0] == 1 /* iso */ &&
 339:C:/Users/stapi/OneDrive/Desktop/GD32VW553/V1_MQTT_OK/GD32VW55X_Wifi_BLE_SDK/GD32VW55x_RELEASE_V1.0.2/MSDK/wpa_supplicant/src/tls\tlsv1_cred.c **** 		oid->oid[1] == 2 /* member-body */ &&
 340:C:/Users/stapi/OneDrive/Desktop/GD32VW553/V1_MQTT_OK/GD32VW55X_Wifi_BLE_SDK/GD32VW55x_RELEASE_V1.0.2/MSDK/wpa_supplicant/src/tls\tlsv1_cred.c **** 		oid->oid[2] == 840 /* us */ &&
 341:C:/Users/stapi/OneDrive/Desktop/GD32VW553/V1_MQTT_OK/GD32VW55X_Wifi_BLE_SDK/GD32VW55x_RELEASE_V1.0.2/MSDK/wpa_supplicant/src/tls\tlsv1_cred.c **** 		oid->oid[3] == 113549 /* rsadsi */;
 342:C:/Users/stapi/OneDrive/Desktop/GD32VW553/V1_MQTT_OK/GD32VW55X_Wifi_BLE_SDK/GD32VW55x_RELEASE_V1.0.2/MSDK/wpa_supplicant/src/tls\tlsv1_cred.c **** }
 343:C:/Users/stapi/OneDrive/Desktop/GD32VW553/V1_MQTT_OK/GD32VW55X_Wifi_BLE_SDK/GD32VW55x_RELEASE_V1.0.2/MSDK/wpa_supplicant/src/tls\tlsv1_cred.c **** 
 344:C:/Users/stapi/OneDrive/Desktop/GD32VW553/V1_MQTT_OK/GD32VW55X_Wifi_BLE_SDK/GD32VW55x_RELEASE_V1.0.2/MSDK/wpa_supplicant/src/tls\tlsv1_cred.c **** 
 345:C:/Users/stapi/OneDrive/Desktop/GD32VW553/V1_MQTT_OK/GD32VW55X_Wifi_BLE_SDK/GD32VW55x_RELEASE_V1.0.2/MSDK/wpa_supplicant/src/tls\tlsv1_cred.c **** static int pkcs12_is_bagtype_oid(struct asn1_oid *oid, unsigned long type)
 346:C:/Users/stapi/OneDrive/Desktop/GD32VW553/V1_MQTT_OK/GD32VW55X_Wifi_BLE_SDK/GD32VW55x_RELEASE_V1.0.2/MSDK/wpa_supplicant/src/tls\tlsv1_cred.c **** {
 347:C:/Users/stapi/OneDrive/Desktop/GD32VW553/V1_MQTT_OK/GD32VW55X_Wifi_BLE_SDK/GD32VW55x_RELEASE_V1.0.2/MSDK/wpa_supplicant/src/tls\tlsv1_cred.c **** 	return oid->len == 9 &&
 348:C:/Users/stapi/OneDrive/Desktop/GD32VW553/V1_MQTT_OK/GD32VW55X_Wifi_BLE_SDK/GD32VW55x_RELEASE_V1.0.2/MSDK/wpa_supplicant/src/tls\tlsv1_cred.c **** 		oid_is_rsadsi(oid) &&
 349:C:/Users/stapi/OneDrive/Desktop/GD32VW553/V1_MQTT_OK/GD32VW55X_Wifi_BLE_SDK/GD32VW55x_RELEASE_V1.0.2/MSDK/wpa_supplicant/src/tls\tlsv1_cred.c **** 		oid->oid[4] == 1 /* pkcs */ &&
 350:C:/Users/stapi/OneDrive/Desktop/GD32VW553/V1_MQTT_OK/GD32VW55X_Wifi_BLE_SDK/GD32VW55x_RELEASE_V1.0.2/MSDK/wpa_supplicant/src/tls\tlsv1_cred.c **** 		oid->oid[5] == 12 /* pkcs-12 */ &&
 351:C:/Users/stapi/OneDrive/Desktop/GD32VW553/V1_MQTT_OK/GD32VW55X_Wifi_BLE_SDK/GD32VW55x_RELEASE_V1.0.2/MSDK/wpa_supplicant/src/tls\tlsv1_cred.c **** 		oid->oid[6] == 10 &&
 352:C:/Users/stapi/OneDrive/Desktop/GD32VW553/V1_MQTT_OK/GD32VW55X_Wifi_BLE_SDK/GD32VW55x_RELEASE_V1.0.2/MSDK/wpa_supplicant/src/tls\tlsv1_cred.c **** 		oid->oid[7] == 1 /* bagtypes */ &&
 353:C:/Users/stapi/OneDrive/Desktop/GD32VW553/V1_MQTT_OK/GD32VW55X_Wifi_BLE_SDK/GD32VW55x_RELEASE_V1.0.2/MSDK/wpa_supplicant/src/tls\tlsv1_cred.c **** 		oid->oid[8] == type;
 354:C:/Users/stapi/OneDrive/Desktop/GD32VW553/V1_MQTT_OK/GD32VW55X_Wifi_BLE_SDK/GD32VW55x_RELEASE_V1.0.2/MSDK/wpa_supplicant/src/tls\tlsv1_cred.c **** }
 355:C:/Users/stapi/OneDrive/Desktop/GD32VW553/V1_MQTT_OK/GD32VW55X_Wifi_BLE_SDK/GD32VW55x_RELEASE_V1.0.2/MSDK/wpa_supplicant/src/tls\tlsv1_cred.c **** 
 356:C:/Users/stapi/OneDrive/Desktop/GD32VW553/V1_MQTT_OK/GD32VW55X_Wifi_BLE_SDK/GD32VW55x_RELEASE_V1.0.2/MSDK/wpa_supplicant/src/tls\tlsv1_cred.c **** 
 357:C:/Users/stapi/OneDrive/Desktop/GD32VW553/V1_MQTT_OK/GD32VW55X_Wifi_BLE_SDK/GD32VW55x_RELEASE_V1.0.2/MSDK/wpa_supplicant/src/tls\tlsv1_cred.c **** static int is_oid_pkcs7(struct asn1_oid *oid)
 358:C:/Users/stapi/OneDrive/Desktop/GD32VW553/V1_MQTT_OK/GD32VW55X_Wifi_BLE_SDK/GD32VW55x_RELEASE_V1.0.2/MSDK/wpa_supplicant/src/tls\tlsv1_cred.c **** {
 359:C:/Users/stapi/OneDrive/Desktop/GD32VW553/V1_MQTT_OK/GD32VW55X_Wifi_BLE_SDK/GD32VW55x_RELEASE_V1.0.2/MSDK/wpa_supplicant/src/tls\tlsv1_cred.c **** 	return oid->len == 7 &&
 360:C:/Users/stapi/OneDrive/Desktop/GD32VW553/V1_MQTT_OK/GD32VW55X_Wifi_BLE_SDK/GD32VW55x_RELEASE_V1.0.2/MSDK/wpa_supplicant/src/tls\tlsv1_cred.c **** 		oid->oid[0] == 1 /* iso */ &&
 361:C:/Users/stapi/OneDrive/Desktop/GD32VW553/V1_MQTT_OK/GD32VW55X_Wifi_BLE_SDK/GD32VW55x_RELEASE_V1.0.2/MSDK/wpa_supplicant/src/tls\tlsv1_cred.c **** 		oid->oid[1] == 2 /* member-body */ &&
 362:C:/Users/stapi/OneDrive/Desktop/GD32VW553/V1_MQTT_OK/GD32VW55X_Wifi_BLE_SDK/GD32VW55x_RELEASE_V1.0.2/MSDK/wpa_supplicant/src/tls\tlsv1_cred.c **** 		oid->oid[2] == 840 /* us */ &&
 363:C:/Users/stapi/OneDrive/Desktop/GD32VW553/V1_MQTT_OK/GD32VW55X_Wifi_BLE_SDK/GD32VW55x_RELEASE_V1.0.2/MSDK/wpa_supplicant/src/tls\tlsv1_cred.c **** 		oid->oid[3] == 113549 /* rsadsi */ &&
 364:C:/Users/stapi/OneDrive/Desktop/GD32VW553/V1_MQTT_OK/GD32VW55X_Wifi_BLE_SDK/GD32VW55x_RELEASE_V1.0.2/MSDK/wpa_supplicant/src/tls\tlsv1_cred.c **** 		oid->oid[4] == 1 /* pkcs */ &&
 365:C:/Users/stapi/OneDrive/Desktop/GD32VW553/V1_MQTT_OK/GD32VW55X_Wifi_BLE_SDK/GD32VW55x_RELEASE_V1.0.2/MSDK/wpa_supplicant/src/tls\tlsv1_cred.c **** 		oid->oid[5] == 7 /* pkcs-7 */;
 366:C:/Users/stapi/OneDrive/Desktop/GD32VW553/V1_MQTT_OK/GD32VW55X_Wifi_BLE_SDK/GD32VW55x_RELEASE_V1.0.2/MSDK/wpa_supplicant/src/tls\tlsv1_cred.c **** }
 367:C:/Users/stapi/OneDrive/Desktop/GD32VW553/V1_MQTT_OK/GD32VW55X_Wifi_BLE_SDK/GD32VW55x_RELEASE_V1.0.2/MSDK/wpa_supplicant/src/tls\tlsv1_cred.c **** 
 368:C:/Users/stapi/OneDrive/Desktop/GD32VW553/V1_MQTT_OK/GD32VW55X_Wifi_BLE_SDK/GD32VW55x_RELEASE_V1.0.2/MSDK/wpa_supplicant/src/tls\tlsv1_cred.c **** 
 369:C:/Users/stapi/OneDrive/Desktop/GD32VW553/V1_MQTT_OK/GD32VW55X_Wifi_BLE_SDK/GD32VW55x_RELEASE_V1.0.2/MSDK/wpa_supplicant/src/tls\tlsv1_cred.c **** static int is_oid_pkcs7_data(struct asn1_oid *oid)
 370:C:/Users/stapi/OneDrive/Desktop/GD32VW553/V1_MQTT_OK/GD32VW55X_Wifi_BLE_SDK/GD32VW55x_RELEASE_V1.0.2/MSDK/wpa_supplicant/src/tls\tlsv1_cred.c **** {
 371:C:/Users/stapi/OneDrive/Desktop/GD32VW553/V1_MQTT_OK/GD32VW55X_Wifi_BLE_SDK/GD32VW55x_RELEASE_V1.0.2/MSDK/wpa_supplicant/src/tls\tlsv1_cred.c **** 	return is_oid_pkcs7(oid) && oid->oid[6] == 1 /* data */;
 372:C:/Users/stapi/OneDrive/Desktop/GD32VW553/V1_MQTT_OK/GD32VW55X_Wifi_BLE_SDK/GD32VW55x_RELEASE_V1.0.2/MSDK/wpa_supplicant/src/tls\tlsv1_cred.c **** }
 373:C:/Users/stapi/OneDrive/Desktop/GD32VW553/V1_MQTT_OK/GD32VW55X_Wifi_BLE_SDK/GD32VW55x_RELEASE_V1.0.2/MSDK/wpa_supplicant/src/tls\tlsv1_cred.c **** 
 374:C:/Users/stapi/OneDrive/Desktop/GD32VW553/V1_MQTT_OK/GD32VW55X_Wifi_BLE_SDK/GD32VW55x_RELEASE_V1.0.2/MSDK/wpa_supplicant/src/tls\tlsv1_cred.c **** 
 375:C:/Users/stapi/OneDrive/Desktop/GD32VW553/V1_MQTT_OK/GD32VW55X_Wifi_BLE_SDK/GD32VW55x_RELEASE_V1.0.2/MSDK/wpa_supplicant/src/tls\tlsv1_cred.c **** static int is_oid_pkcs7_enc_data(struct asn1_oid *oid)
 376:C:/Users/stapi/OneDrive/Desktop/GD32VW553/V1_MQTT_OK/GD32VW55X_Wifi_BLE_SDK/GD32VW55x_RELEASE_V1.0.2/MSDK/wpa_supplicant/src/tls\tlsv1_cred.c **** {
 377:C:/Users/stapi/OneDrive/Desktop/GD32VW553/V1_MQTT_OK/GD32VW55X_Wifi_BLE_SDK/GD32VW55x_RELEASE_V1.0.2/MSDK/wpa_supplicant/src/tls\tlsv1_cred.c **** 	return is_oid_pkcs7(oid) && oid->oid[6] == 6 /* encryptedData */;
 378:C:/Users/stapi/OneDrive/Desktop/GD32VW553/V1_MQTT_OK/GD32VW55X_Wifi_BLE_SDK/GD32VW55x_RELEASE_V1.0.2/MSDK/wpa_supplicant/src/tls\tlsv1_cred.c **** }
 379:C:/Users/stapi/OneDrive/Desktop/GD32VW553/V1_MQTT_OK/GD32VW55X_Wifi_BLE_SDK/GD32VW55x_RELEASE_V1.0.2/MSDK/wpa_supplicant/src/tls\tlsv1_cred.c **** 
 380:C:/Users/stapi/OneDrive/Desktop/GD32VW553/V1_MQTT_OK/GD32VW55X_Wifi_BLE_SDK/GD32VW55x_RELEASE_V1.0.2/MSDK/wpa_supplicant/src/tls\tlsv1_cred.c **** 
 381:C:/Users/stapi/OneDrive/Desktop/GD32VW553/V1_MQTT_OK/GD32VW55X_Wifi_BLE_SDK/GD32VW55x_RELEASE_V1.0.2/MSDK/wpa_supplicant/src/tls\tlsv1_cred.c **** static int is_oid_pkcs9(struct asn1_oid *oid)
 382:C:/Users/stapi/OneDrive/Desktop/GD32VW553/V1_MQTT_OK/GD32VW55X_Wifi_BLE_SDK/GD32VW55x_RELEASE_V1.0.2/MSDK/wpa_supplicant/src/tls\tlsv1_cred.c **** {
 383:C:/Users/stapi/OneDrive/Desktop/GD32VW553/V1_MQTT_OK/GD32VW55X_Wifi_BLE_SDK/GD32VW55x_RELEASE_V1.0.2/MSDK/wpa_supplicant/src/tls\tlsv1_cred.c **** 	return oid->len >= 6 &&
 384:C:/Users/stapi/OneDrive/Desktop/GD32VW553/V1_MQTT_OK/GD32VW55X_Wifi_BLE_SDK/GD32VW55x_RELEASE_V1.0.2/MSDK/wpa_supplicant/src/tls\tlsv1_cred.c **** 		oid->oid[0] == 1 /* iso */ &&
 385:C:/Users/stapi/OneDrive/Desktop/GD32VW553/V1_MQTT_OK/GD32VW55X_Wifi_BLE_SDK/GD32VW55x_RELEASE_V1.0.2/MSDK/wpa_supplicant/src/tls\tlsv1_cred.c **** 		oid->oid[1] == 2 /* member-body */ &&
 386:C:/Users/stapi/OneDrive/Desktop/GD32VW553/V1_MQTT_OK/GD32VW55X_Wifi_BLE_SDK/GD32VW55x_RELEASE_V1.0.2/MSDK/wpa_supplicant/src/tls\tlsv1_cred.c **** 		oid->oid[2] == 840 /* us */ &&
 387:C:/Users/stapi/OneDrive/Desktop/GD32VW553/V1_MQTT_OK/GD32VW55X_Wifi_BLE_SDK/GD32VW55x_RELEASE_V1.0.2/MSDK/wpa_supplicant/src/tls\tlsv1_cred.c **** 		oid->oid[3] == 113549 /* rsadsi */ &&
 388:C:/Users/stapi/OneDrive/Desktop/GD32VW553/V1_MQTT_OK/GD32VW55X_Wifi_BLE_SDK/GD32VW55x_RELEASE_V1.0.2/MSDK/wpa_supplicant/src/tls\tlsv1_cred.c **** 		oid->oid[4] == 1 /* pkcs */ &&
 389:C:/Users/stapi/OneDrive/Desktop/GD32VW553/V1_MQTT_OK/GD32VW55X_Wifi_BLE_SDK/GD32VW55x_RELEASE_V1.0.2/MSDK/wpa_supplicant/src/tls\tlsv1_cred.c **** 		oid->oid[5] == 9 /* pkcs-9 */;
 390:C:/Users/stapi/OneDrive/Desktop/GD32VW553/V1_MQTT_OK/GD32VW55X_Wifi_BLE_SDK/GD32VW55x_RELEASE_V1.0.2/MSDK/wpa_supplicant/src/tls\tlsv1_cred.c **** }
 391:C:/Users/stapi/OneDrive/Desktop/GD32VW553/V1_MQTT_OK/GD32VW55X_Wifi_BLE_SDK/GD32VW55x_RELEASE_V1.0.2/MSDK/wpa_supplicant/src/tls\tlsv1_cred.c **** 
 392:C:/Users/stapi/OneDrive/Desktop/GD32VW553/V1_MQTT_OK/GD32VW55X_Wifi_BLE_SDK/GD32VW55x_RELEASE_V1.0.2/MSDK/wpa_supplicant/src/tls\tlsv1_cred.c **** 
 393:C:/Users/stapi/OneDrive/Desktop/GD32VW553/V1_MQTT_OK/GD32VW55X_Wifi_BLE_SDK/GD32VW55x_RELEASE_V1.0.2/MSDK/wpa_supplicant/src/tls\tlsv1_cred.c **** static int is_oid_pkcs9_friendly_name(struct asn1_oid *oid)
 394:C:/Users/stapi/OneDrive/Desktop/GD32VW553/V1_MQTT_OK/GD32VW55X_Wifi_BLE_SDK/GD32VW55x_RELEASE_V1.0.2/MSDK/wpa_supplicant/src/tls\tlsv1_cred.c **** {
 395:C:/Users/stapi/OneDrive/Desktop/GD32VW553/V1_MQTT_OK/GD32VW55X_Wifi_BLE_SDK/GD32VW55x_RELEASE_V1.0.2/MSDK/wpa_supplicant/src/tls\tlsv1_cred.c **** 	return oid->len == 7 && is_oid_pkcs9(oid) &&
 396:C:/Users/stapi/OneDrive/Desktop/GD32VW553/V1_MQTT_OK/GD32VW55X_Wifi_BLE_SDK/GD32VW55x_RELEASE_V1.0.2/MSDK/wpa_supplicant/src/tls\tlsv1_cred.c **** 		oid->oid[6] == 20;
 397:C:/Users/stapi/OneDrive/Desktop/GD32VW553/V1_MQTT_OK/GD32VW55X_Wifi_BLE_SDK/GD32VW55x_RELEASE_V1.0.2/MSDK/wpa_supplicant/src/tls\tlsv1_cred.c **** }
 398:C:/Users/stapi/OneDrive/Desktop/GD32VW553/V1_MQTT_OK/GD32VW55X_Wifi_BLE_SDK/GD32VW55x_RELEASE_V1.0.2/MSDK/wpa_supplicant/src/tls\tlsv1_cred.c **** 
 399:C:/Users/stapi/OneDrive/Desktop/GD32VW553/V1_MQTT_OK/GD32VW55X_Wifi_BLE_SDK/GD32VW55x_RELEASE_V1.0.2/MSDK/wpa_supplicant/src/tls\tlsv1_cred.c **** 
 400:C:/Users/stapi/OneDrive/Desktop/GD32VW553/V1_MQTT_OK/GD32VW55X_Wifi_BLE_SDK/GD32VW55x_RELEASE_V1.0.2/MSDK/wpa_supplicant/src/tls\tlsv1_cred.c **** static int is_oid_pkcs9_local_key_id(struct asn1_oid *oid)
 401:C:/Users/stapi/OneDrive/Desktop/GD32VW553/V1_MQTT_OK/GD32VW55X_Wifi_BLE_SDK/GD32VW55x_RELEASE_V1.0.2/MSDK/wpa_supplicant/src/tls\tlsv1_cred.c **** {
 402:C:/Users/stapi/OneDrive/Desktop/GD32VW553/V1_MQTT_OK/GD32VW55X_Wifi_BLE_SDK/GD32VW55x_RELEASE_V1.0.2/MSDK/wpa_supplicant/src/tls\tlsv1_cred.c **** 	return oid->len == 7 && is_oid_pkcs9(oid) &&
 403:C:/Users/stapi/OneDrive/Desktop/GD32VW553/V1_MQTT_OK/GD32VW55X_Wifi_BLE_SDK/GD32VW55x_RELEASE_V1.0.2/MSDK/wpa_supplicant/src/tls\tlsv1_cred.c **** 		oid->oid[6] == 21;
 404:C:/Users/stapi/OneDrive/Desktop/GD32VW553/V1_MQTT_OK/GD32VW55X_Wifi_BLE_SDK/GD32VW55x_RELEASE_V1.0.2/MSDK/wpa_supplicant/src/tls\tlsv1_cred.c **** }
 405:C:/Users/stapi/OneDrive/Desktop/GD32VW553/V1_MQTT_OK/GD32VW55X_Wifi_BLE_SDK/GD32VW55x_RELEASE_V1.0.2/MSDK/wpa_supplicant/src/tls\tlsv1_cred.c **** 
 406:C:/Users/stapi/OneDrive/Desktop/GD32VW553/V1_MQTT_OK/GD32VW55X_Wifi_BLE_SDK/GD32VW55x_RELEASE_V1.0.2/MSDK/wpa_supplicant/src/tls\tlsv1_cred.c **** 
 407:C:/Users/stapi/OneDrive/Desktop/GD32VW553/V1_MQTT_OK/GD32VW55X_Wifi_BLE_SDK/GD32VW55x_RELEASE_V1.0.2/MSDK/wpa_supplicant/src/tls\tlsv1_cred.c **** static int is_oid_pkcs9_x509_cert(struct asn1_oid *oid)
 408:C:/Users/stapi/OneDrive/Desktop/GD32VW553/V1_MQTT_OK/GD32VW55X_Wifi_BLE_SDK/GD32VW55x_RELEASE_V1.0.2/MSDK/wpa_supplicant/src/tls\tlsv1_cred.c **** {
 409:C:/Users/stapi/OneDrive/Desktop/GD32VW553/V1_MQTT_OK/GD32VW55X_Wifi_BLE_SDK/GD32VW55x_RELEASE_V1.0.2/MSDK/wpa_supplicant/src/tls\tlsv1_cred.c **** 	return oid->len == 8 && is_oid_pkcs9(oid) &&
 410:C:/Users/stapi/OneDrive/Desktop/GD32VW553/V1_MQTT_OK/GD32VW55X_Wifi_BLE_SDK/GD32VW55x_RELEASE_V1.0.2/MSDK/wpa_supplicant/src/tls\tlsv1_cred.c **** 		oid->oid[6] == 22 /* certTypes */ &&
 411:C:/Users/stapi/OneDrive/Desktop/GD32VW553/V1_MQTT_OK/GD32VW55X_Wifi_BLE_SDK/GD32VW55x_RELEASE_V1.0.2/MSDK/wpa_supplicant/src/tls\tlsv1_cred.c **** 		oid->oid[7] == 1 /* x509Certificate */;
 412:C:/Users/stapi/OneDrive/Desktop/GD32VW553/V1_MQTT_OK/GD32VW55X_Wifi_BLE_SDK/GD32VW55x_RELEASE_V1.0.2/MSDK/wpa_supplicant/src/tls\tlsv1_cred.c **** }
 413:C:/Users/stapi/OneDrive/Desktop/GD32VW553/V1_MQTT_OK/GD32VW55X_Wifi_BLE_SDK/GD32VW55x_RELEASE_V1.0.2/MSDK/wpa_supplicant/src/tls\tlsv1_cred.c **** 
 414:C:/Users/stapi/OneDrive/Desktop/GD32VW553/V1_MQTT_OK/GD32VW55X_Wifi_BLE_SDK/GD32VW55x_RELEASE_V1.0.2/MSDK/wpa_supplicant/src/tls\tlsv1_cred.c **** 
 415:C:/Users/stapi/OneDrive/Desktop/GD32VW553/V1_MQTT_OK/GD32VW55X_Wifi_BLE_SDK/GD32VW55x_RELEASE_V1.0.2/MSDK/wpa_supplicant/src/tls\tlsv1_cred.c **** static int pkcs12_keybag(struct tlsv1_credentials *cred,
 416:C:/Users/stapi/OneDrive/Desktop/GD32VW553/V1_MQTT_OK/GD32VW55X_Wifi_BLE_SDK/GD32VW55x_RELEASE_V1.0.2/MSDK/wpa_supplicant/src/tls\tlsv1_cred.c **** 			 const u8 *buf, size_t len)
 417:C:/Users/stapi/OneDrive/Desktop/GD32VW553/V1_MQTT_OK/GD32VW55X_Wifi_BLE_SDK/GD32VW55x_RELEASE_V1.0.2/MSDK/wpa_supplicant/src/tls\tlsv1_cred.c **** {
 418:C:/Users/stapi/OneDrive/Desktop/GD32VW553/V1_MQTT_OK/GD32VW55X_Wifi_BLE_SDK/GD32VW55x_RELEASE_V1.0.2/MSDK/wpa_supplicant/src/tls\tlsv1_cred.c **** 	/* TODO */
 419:C:/Users/stapi/OneDrive/Desktop/GD32VW553/V1_MQTT_OK/GD32VW55X_Wifi_BLE_SDK/GD32VW55x_RELEASE_V1.0.2/MSDK/wpa_supplicant/src/tls\tlsv1_cred.c **** 	return 0;
 420:C:/Users/stapi/OneDrive/Desktop/GD32VW553/V1_MQTT_OK/GD32VW55X_Wifi_BLE_SDK/GD32VW55x_RELEASE_V1.0.2/MSDK/wpa_supplicant/src/tls\tlsv1_cred.c **** }
 421:C:/Users/stapi/OneDrive/Desktop/GD32VW553/V1_MQTT_OK/GD32VW55X_Wifi_BLE_SDK/GD32VW55x_RELEASE_V1.0.2/MSDK/wpa_supplicant/src/tls\tlsv1_cred.c **** 
 422:C:/Users/stapi/OneDrive/Desktop/GD32VW553/V1_MQTT_OK/GD32VW55X_Wifi_BLE_SDK/GD32VW55x_RELEASE_V1.0.2/MSDK/wpa_supplicant/src/tls\tlsv1_cred.c **** 
 423:C:/Users/stapi/OneDrive/Desktop/GD32VW553/V1_MQTT_OK/GD32VW55X_Wifi_BLE_SDK/GD32VW55x_RELEASE_V1.0.2/MSDK/wpa_supplicant/src/tls\tlsv1_cred.c **** static int pkcs12_pkcs8_keybag(struct tlsv1_credentials *cred,
 424:C:/Users/stapi/OneDrive/Desktop/GD32VW553/V1_MQTT_OK/GD32VW55X_Wifi_BLE_SDK/GD32VW55x_RELEASE_V1.0.2/MSDK/wpa_supplicant/src/tls\tlsv1_cred.c **** 			       const u8 *buf, size_t len,
 425:C:/Users/stapi/OneDrive/Desktop/GD32VW553/V1_MQTT_OK/GD32VW55X_Wifi_BLE_SDK/GD32VW55x_RELEASE_V1.0.2/MSDK/wpa_supplicant/src/tls\tlsv1_cred.c **** 			       const char *passwd)
 426:C:/Users/stapi/OneDrive/Desktop/GD32VW553/V1_MQTT_OK/GD32VW55X_Wifi_BLE_SDK/GD32VW55x_RELEASE_V1.0.2/MSDK/wpa_supplicant/src/tls\tlsv1_cred.c **** {
 427:C:/Users/stapi/OneDrive/Desktop/GD32VW553/V1_MQTT_OK/GD32VW55X_Wifi_BLE_SDK/GD32VW55x_RELEASE_V1.0.2/MSDK/wpa_supplicant/src/tls\tlsv1_cred.c **** 	struct crypto_private_key *key;
 428:C:/Users/stapi/OneDrive/Desktop/GD32VW553/V1_MQTT_OK/GD32VW55X_Wifi_BLE_SDK/GD32VW55x_RELEASE_V1.0.2/MSDK/wpa_supplicant/src/tls\tlsv1_cred.c **** 
 429:C:/Users/stapi/OneDrive/Desktop/GD32VW553/V1_MQTT_OK/GD32VW55X_Wifi_BLE_SDK/GD32VW55x_RELEASE_V1.0.2/MSDK/wpa_supplicant/src/tls\tlsv1_cred.c **** 	/* PKCS8ShroudedKeyBag ::= EncryptedPrivateKeyInfo */
 430:C:/Users/stapi/OneDrive/Desktop/GD32VW553/V1_MQTT_OK/GD32VW55X_Wifi_BLE_SDK/GD32VW55x_RELEASE_V1.0.2/MSDK/wpa_supplicant/src/tls\tlsv1_cred.c **** 	key = pkcs8_enc_key_import(buf, len, passwd);
 431:C:/Users/stapi/OneDrive/Desktop/GD32VW553/V1_MQTT_OK/GD32VW55X_Wifi_BLE_SDK/GD32VW55x_RELEASE_V1.0.2/MSDK/wpa_supplicant/src/tls\tlsv1_cred.c **** 	if (!key)
 432:C:/Users/stapi/OneDrive/Desktop/GD32VW553/V1_MQTT_OK/GD32VW55X_Wifi_BLE_SDK/GD32VW55x_RELEASE_V1.0.2/MSDK/wpa_supplicant/src/tls\tlsv1_cred.c **** 		return -1;
 433:C:/Users/stapi/OneDrive/Desktop/GD32VW553/V1_MQTT_OK/GD32VW55X_Wifi_BLE_SDK/GD32VW55x_RELEASE_V1.0.2/MSDK/wpa_supplicant/src/tls\tlsv1_cred.c **** 
 434:C:/Users/stapi/OneDrive/Desktop/GD32VW553/V1_MQTT_OK/GD32VW55X_Wifi_BLE_SDK/GD32VW55x_RELEASE_V1.0.2/MSDK/wpa_supplicant/src/tls\tlsv1_cred.c **** 	wpa_printf(MSG_DEBUG,
 435:C:/Users/stapi/OneDrive/Desktop/GD32VW553/V1_MQTT_OK/GD32VW55X_Wifi_BLE_SDK/GD32VW55x_RELEASE_V1.0.2/MSDK/wpa_supplicant/src/tls\tlsv1_cred.c **** 		   "PKCS #12: Successfully decrypted PKCS8ShroudedKeyBag");
 436:C:/Users/stapi/OneDrive/Desktop/GD32VW553/V1_MQTT_OK/GD32VW55X_Wifi_BLE_SDK/GD32VW55x_RELEASE_V1.0.2/MSDK/wpa_supplicant/src/tls\tlsv1_cred.c **** 	crypto_private_key_free(cred->key);
 437:C:/Users/stapi/OneDrive/Desktop/GD32VW553/V1_MQTT_OK/GD32VW55X_Wifi_BLE_SDK/GD32VW55x_RELEASE_V1.0.2/MSDK/wpa_supplicant/src/tls\tlsv1_cred.c **** 	cred->key = key;
 438:C:/Users/stapi/OneDrive/Desktop/GD32VW553/V1_MQTT_OK/GD32VW55X_Wifi_BLE_SDK/GD32VW55x_RELEASE_V1.0.2/MSDK/wpa_supplicant/src/tls\tlsv1_cred.c **** 
 439:C:/Users/stapi/OneDrive/Desktop/GD32VW553/V1_MQTT_OK/GD32VW55X_Wifi_BLE_SDK/GD32VW55x_RELEASE_V1.0.2/MSDK/wpa_supplicant/src/tls\tlsv1_cred.c **** 	return 0;
 440:C:/Users/stapi/OneDrive/Desktop/GD32VW553/V1_MQTT_OK/GD32VW55X_Wifi_BLE_SDK/GD32VW55x_RELEASE_V1.0.2/MSDK/wpa_supplicant/src/tls\tlsv1_cred.c **** }
 441:C:/Users/stapi/OneDrive/Desktop/GD32VW553/V1_MQTT_OK/GD32VW55X_Wifi_BLE_SDK/GD32VW55x_RELEASE_V1.0.2/MSDK/wpa_supplicant/src/tls\tlsv1_cred.c **** 
 442:C:/Users/stapi/OneDrive/Desktop/GD32VW553/V1_MQTT_OK/GD32VW55X_Wifi_BLE_SDK/GD32VW55x_RELEASE_V1.0.2/MSDK/wpa_supplicant/src/tls\tlsv1_cred.c **** 
 443:C:/Users/stapi/OneDrive/Desktop/GD32VW553/V1_MQTT_OK/GD32VW55X_Wifi_BLE_SDK/GD32VW55x_RELEASE_V1.0.2/MSDK/wpa_supplicant/src/tls\tlsv1_cred.c **** static int pkcs12_certbag(struct tlsv1_credentials *cred,
 444:C:/Users/stapi/OneDrive/Desktop/GD32VW553/V1_MQTT_OK/GD32VW55X_Wifi_BLE_SDK/GD32VW55x_RELEASE_V1.0.2/MSDK/wpa_supplicant/src/tls\tlsv1_cred.c **** 			  const u8 *buf, size_t len)
 445:C:/Users/stapi/OneDrive/Desktop/GD32VW553/V1_MQTT_OK/GD32VW55X_Wifi_BLE_SDK/GD32VW55x_RELEASE_V1.0.2/MSDK/wpa_supplicant/src/tls\tlsv1_cred.c **** {
 446:C:/Users/stapi/OneDrive/Desktop/GD32VW553/V1_MQTT_OK/GD32VW55X_Wifi_BLE_SDK/GD32VW55x_RELEASE_V1.0.2/MSDK/wpa_supplicant/src/tls\tlsv1_cred.c **** 	struct asn1_hdr hdr;
 447:C:/Users/stapi/OneDrive/Desktop/GD32VW553/V1_MQTT_OK/GD32VW55X_Wifi_BLE_SDK/GD32VW55x_RELEASE_V1.0.2/MSDK/wpa_supplicant/src/tls\tlsv1_cred.c **** 	struct asn1_oid oid;
 448:C:/Users/stapi/OneDrive/Desktop/GD32VW553/V1_MQTT_OK/GD32VW55X_Wifi_BLE_SDK/GD32VW55x_RELEASE_V1.0.2/MSDK/wpa_supplicant/src/tls\tlsv1_cred.c **** 	char obuf[80];
 449:C:/Users/stapi/OneDrive/Desktop/GD32VW553/V1_MQTT_OK/GD32VW55X_Wifi_BLE_SDK/GD32VW55x_RELEASE_V1.0.2/MSDK/wpa_supplicant/src/tls\tlsv1_cred.c **** 	const u8 *pos, *end;
 450:C:/Users/stapi/OneDrive/Desktop/GD32VW553/V1_MQTT_OK/GD32VW55X_Wifi_BLE_SDK/GD32VW55x_RELEASE_V1.0.2/MSDK/wpa_supplicant/src/tls\tlsv1_cred.c **** 
 451:C:/Users/stapi/OneDrive/Desktop/GD32VW553/V1_MQTT_OK/GD32VW55X_Wifi_BLE_SDK/GD32VW55x_RELEASE_V1.0.2/MSDK/wpa_supplicant/src/tls\tlsv1_cred.c **** 	/*
 452:C:/Users/stapi/OneDrive/Desktop/GD32VW553/V1_MQTT_OK/GD32VW55X_Wifi_BLE_SDK/GD32VW55x_RELEASE_V1.0.2/MSDK/wpa_supplicant/src/tls\tlsv1_cred.c **** 	 * CertBag ::= SEQUENCE {
 453:C:/Users/stapi/OneDrive/Desktop/GD32VW553/V1_MQTT_OK/GD32VW55X_Wifi_BLE_SDK/GD32VW55x_RELEASE_V1.0.2/MSDK/wpa_supplicant/src/tls\tlsv1_cred.c **** 	 *     certId      BAG-TYPE.&id   ({CertTypes}),
 454:C:/Users/stapi/OneDrive/Desktop/GD32VW553/V1_MQTT_OK/GD32VW55X_Wifi_BLE_SDK/GD32VW55x_RELEASE_V1.0.2/MSDK/wpa_supplicant/src/tls\tlsv1_cred.c **** 	 *     certValue   [0] EXPLICIT BAG-TYPE.&Type ({CertTypes}{@certId})
 455:C:/Users/stapi/OneDrive/Desktop/GD32VW553/V1_MQTT_OK/GD32VW55X_Wifi_BLE_SDK/GD32VW55x_RELEASE_V1.0.2/MSDK/wpa_supplicant/src/tls\tlsv1_cred.c **** 	 * }
 456:C:/Users/stapi/OneDrive/Desktop/GD32VW553/V1_MQTT_OK/GD32VW55X_Wifi_BLE_SDK/GD32VW55x_RELEASE_V1.0.2/MSDK/wpa_supplicant/src/tls\tlsv1_cred.c **** 	 */
 457:C:/Users/stapi/OneDrive/Desktop/GD32VW553/V1_MQTT_OK/GD32VW55X_Wifi_BLE_SDK/GD32VW55x_RELEASE_V1.0.2/MSDK/wpa_supplicant/src/tls\tlsv1_cred.c **** 
 458:C:/Users/stapi/OneDrive/Desktop/GD32VW553/V1_MQTT_OK/GD32VW55X_Wifi_BLE_SDK/GD32VW55x_RELEASE_V1.0.2/MSDK/wpa_supplicant/src/tls\tlsv1_cred.c **** 	if (asn1_get_next(buf, len, &hdr) < 0 || !asn1_is_sequence(&hdr)) {
 459:C:/Users/stapi/OneDrive/Desktop/GD32VW553/V1_MQTT_OK/GD32VW55X_Wifi_BLE_SDK/GD32VW55x_RELEASE_V1.0.2/MSDK/wpa_supplicant/src/tls\tlsv1_cred.c **** 		asn1_unexpected(&hdr, "PKCS #12: Expected SEQUENCE (CertBag)");
 460:C:/Users/stapi/OneDrive/Desktop/GD32VW553/V1_MQTT_OK/GD32VW55X_Wifi_BLE_SDK/GD32VW55x_RELEASE_V1.0.2/MSDK/wpa_supplicant/src/tls\tlsv1_cred.c **** 		return -1;
 461:C:/Users/stapi/OneDrive/Desktop/GD32VW553/V1_MQTT_OK/GD32VW55X_Wifi_BLE_SDK/GD32VW55x_RELEASE_V1.0.2/MSDK/wpa_supplicant/src/tls\tlsv1_cred.c **** 	}
 462:C:/Users/stapi/OneDrive/Desktop/GD32VW553/V1_MQTT_OK/GD32VW55X_Wifi_BLE_SDK/GD32VW55x_RELEASE_V1.0.2/MSDK/wpa_supplicant/src/tls\tlsv1_cred.c **** 
 463:C:/Users/stapi/OneDrive/Desktop/GD32VW553/V1_MQTT_OK/GD32VW55X_Wifi_BLE_SDK/GD32VW55x_RELEASE_V1.0.2/MSDK/wpa_supplicant/src/tls\tlsv1_cred.c **** 	pos = hdr.payload;
 464:C:/Users/stapi/OneDrive/Desktop/GD32VW553/V1_MQTT_OK/GD32VW55X_Wifi_BLE_SDK/GD32VW55x_RELEASE_V1.0.2/MSDK/wpa_supplicant/src/tls\tlsv1_cred.c **** 	end = hdr.payload + hdr.length;
 465:C:/Users/stapi/OneDrive/Desktop/GD32VW553/V1_MQTT_OK/GD32VW55X_Wifi_BLE_SDK/GD32VW55x_RELEASE_V1.0.2/MSDK/wpa_supplicant/src/tls\tlsv1_cred.c **** 
 466:C:/Users/stapi/OneDrive/Desktop/GD32VW553/V1_MQTT_OK/GD32VW55X_Wifi_BLE_SDK/GD32VW55x_RELEASE_V1.0.2/MSDK/wpa_supplicant/src/tls\tlsv1_cred.c **** 	if (asn1_get_oid(pos, end - pos, &oid, &pos)) {
 467:C:/Users/stapi/OneDrive/Desktop/GD32VW553/V1_MQTT_OK/GD32VW55X_Wifi_BLE_SDK/GD32VW55x_RELEASE_V1.0.2/MSDK/wpa_supplicant/src/tls\tlsv1_cred.c **** 		wpa_printf(MSG_DEBUG,
 468:C:/Users/stapi/OneDrive/Desktop/GD32VW553/V1_MQTT_OK/GD32VW55X_Wifi_BLE_SDK/GD32VW55x_RELEASE_V1.0.2/MSDK/wpa_supplicant/src/tls\tlsv1_cred.c **** 			   "PKCS #12: Failed to parse OID (certId)");
 469:C:/Users/stapi/OneDrive/Desktop/GD32VW553/V1_MQTT_OK/GD32VW55X_Wifi_BLE_SDK/GD32VW55x_RELEASE_V1.0.2/MSDK/wpa_supplicant/src/tls\tlsv1_cred.c **** 		return -1;
 470:C:/Users/stapi/OneDrive/Desktop/GD32VW553/V1_MQTT_OK/GD32VW55X_Wifi_BLE_SDK/GD32VW55x_RELEASE_V1.0.2/MSDK/wpa_supplicant/src/tls\tlsv1_cred.c **** 	}
 471:C:/Users/stapi/OneDrive/Desktop/GD32VW553/V1_MQTT_OK/GD32VW55X_Wifi_BLE_SDK/GD32VW55x_RELEASE_V1.0.2/MSDK/wpa_supplicant/src/tls\tlsv1_cred.c **** 
 472:C:/Users/stapi/OneDrive/Desktop/GD32VW553/V1_MQTT_OK/GD32VW55X_Wifi_BLE_SDK/GD32VW55x_RELEASE_V1.0.2/MSDK/wpa_supplicant/src/tls\tlsv1_cred.c **** 	asn1_oid_to_str(&oid, obuf, sizeof(obuf));
 473:C:/Users/stapi/OneDrive/Desktop/GD32VW553/V1_MQTT_OK/GD32VW55X_Wifi_BLE_SDK/GD32VW55x_RELEASE_V1.0.2/MSDK/wpa_supplicant/src/tls\tlsv1_cred.c **** 	wpa_printf(MSG_DEBUG, "PKCS #12: certId %s", obuf);
 474:C:/Users/stapi/OneDrive/Desktop/GD32VW553/V1_MQTT_OK/GD32VW55X_Wifi_BLE_SDK/GD32VW55x_RELEASE_V1.0.2/MSDK/wpa_supplicant/src/tls\tlsv1_cred.c **** 
 475:C:/Users/stapi/OneDrive/Desktop/GD32VW553/V1_MQTT_OK/GD32VW55X_Wifi_BLE_SDK/GD32VW55x_RELEASE_V1.0.2/MSDK/wpa_supplicant/src/tls\tlsv1_cred.c **** 	if (!is_oid_pkcs9_x509_cert(&oid)) {
 476:C:/Users/stapi/OneDrive/Desktop/GD32VW553/V1_MQTT_OK/GD32VW55X_Wifi_BLE_SDK/GD32VW55x_RELEASE_V1.0.2/MSDK/wpa_supplicant/src/tls\tlsv1_cred.c **** 		wpa_printf(MSG_DEBUG,
 477:C:/Users/stapi/OneDrive/Desktop/GD32VW553/V1_MQTT_OK/GD32VW55X_Wifi_BLE_SDK/GD32VW55x_RELEASE_V1.0.2/MSDK/wpa_supplicant/src/tls\tlsv1_cred.c **** 			   "PKCS #12: Ignored unsupported certificate type (certId %s)",
 478:C:/Users/stapi/OneDrive/Desktop/GD32VW553/V1_MQTT_OK/GD32VW55X_Wifi_BLE_SDK/GD32VW55x_RELEASE_V1.0.2/MSDK/wpa_supplicant/src/tls\tlsv1_cred.c **** 			   obuf);
 479:C:/Users/stapi/OneDrive/Desktop/GD32VW553/V1_MQTT_OK/GD32VW55X_Wifi_BLE_SDK/GD32VW55x_RELEASE_V1.0.2/MSDK/wpa_supplicant/src/tls\tlsv1_cred.c **** 	}
 480:C:/Users/stapi/OneDrive/Desktop/GD32VW553/V1_MQTT_OK/GD32VW55X_Wifi_BLE_SDK/GD32VW55x_RELEASE_V1.0.2/MSDK/wpa_supplicant/src/tls\tlsv1_cred.c **** 
 481:C:/Users/stapi/OneDrive/Desktop/GD32VW553/V1_MQTT_OK/GD32VW55X_Wifi_BLE_SDK/GD32VW55x_RELEASE_V1.0.2/MSDK/wpa_supplicant/src/tls\tlsv1_cred.c **** 	if (asn1_get_next(pos, end - pos, &hdr) < 0 || !hdr.constructed ||
 482:C:/Users/stapi/OneDrive/Desktop/GD32VW553/V1_MQTT_OK/GD32VW55X_Wifi_BLE_SDK/GD32VW55x_RELEASE_V1.0.2/MSDK/wpa_supplicant/src/tls\tlsv1_cred.c **** 	    !asn1_is_cs_tag(&hdr, 0)) {
 483:C:/Users/stapi/OneDrive/Desktop/GD32VW553/V1_MQTT_OK/GD32VW55X_Wifi_BLE_SDK/GD32VW55x_RELEASE_V1.0.2/MSDK/wpa_supplicant/src/tls\tlsv1_cred.c **** 		asn1_unexpected(&hdr,
 484:C:/Users/stapi/OneDrive/Desktop/GD32VW553/V1_MQTT_OK/GD32VW55X_Wifi_BLE_SDK/GD32VW55x_RELEASE_V1.0.2/MSDK/wpa_supplicant/src/tls\tlsv1_cred.c **** 				"PKCS #12: Expected [0] EXPLICIT (certValue)");
 485:C:/Users/stapi/OneDrive/Desktop/GD32VW553/V1_MQTT_OK/GD32VW55X_Wifi_BLE_SDK/GD32VW55x_RELEASE_V1.0.2/MSDK/wpa_supplicant/src/tls\tlsv1_cred.c **** 		return -1;
 486:C:/Users/stapi/OneDrive/Desktop/GD32VW553/V1_MQTT_OK/GD32VW55X_Wifi_BLE_SDK/GD32VW55x_RELEASE_V1.0.2/MSDK/wpa_supplicant/src/tls\tlsv1_cred.c **** 	}
 487:C:/Users/stapi/OneDrive/Desktop/GD32VW553/V1_MQTT_OK/GD32VW55X_Wifi_BLE_SDK/GD32VW55x_RELEASE_V1.0.2/MSDK/wpa_supplicant/src/tls\tlsv1_cred.c **** 
 488:C:/Users/stapi/OneDrive/Desktop/GD32VW553/V1_MQTT_OK/GD32VW55X_Wifi_BLE_SDK/GD32VW55x_RELEASE_V1.0.2/MSDK/wpa_supplicant/src/tls\tlsv1_cred.c **** 	if (asn1_get_next(hdr.payload, hdr.length, &hdr) < 0 ||
 489:C:/Users/stapi/OneDrive/Desktop/GD32VW553/V1_MQTT_OK/GD32VW55X_Wifi_BLE_SDK/GD32VW55x_RELEASE_V1.0.2/MSDK/wpa_supplicant/src/tls\tlsv1_cred.c **** 	    !asn1_is_octetstring(&hdr)) {
 490:C:/Users/stapi/OneDrive/Desktop/GD32VW553/V1_MQTT_OK/GD32VW55X_Wifi_BLE_SDK/GD32VW55x_RELEASE_V1.0.2/MSDK/wpa_supplicant/src/tls\tlsv1_cred.c **** 		asn1_unexpected(&hdr,
 491:C:/Users/stapi/OneDrive/Desktop/GD32VW553/V1_MQTT_OK/GD32VW55X_Wifi_BLE_SDK/GD32VW55x_RELEASE_V1.0.2/MSDK/wpa_supplicant/src/tls\tlsv1_cred.c **** 				"PKCS #12: Expected OCTET STRING (x509Certificate)");
 492:C:/Users/stapi/OneDrive/Desktop/GD32VW553/V1_MQTT_OK/GD32VW55X_Wifi_BLE_SDK/GD32VW55x_RELEASE_V1.0.2/MSDK/wpa_supplicant/src/tls\tlsv1_cred.c **** 		return -1;
 493:C:/Users/stapi/OneDrive/Desktop/GD32VW553/V1_MQTT_OK/GD32VW55X_Wifi_BLE_SDK/GD32VW55x_RELEASE_V1.0.2/MSDK/wpa_supplicant/src/tls\tlsv1_cred.c **** 	}
 494:C:/Users/stapi/OneDrive/Desktop/GD32VW553/V1_MQTT_OK/GD32VW55X_Wifi_BLE_SDK/GD32VW55x_RELEASE_V1.0.2/MSDK/wpa_supplicant/src/tls\tlsv1_cred.c **** 
 495:C:/Users/stapi/OneDrive/Desktop/GD32VW553/V1_MQTT_OK/GD32VW55X_Wifi_BLE_SDK/GD32VW55x_RELEASE_V1.0.2/MSDK/wpa_supplicant/src/tls\tlsv1_cred.c **** 	wpa_hexdump(MSG_DEBUG, "PKCS #12: x509Certificate",
 496:C:/Users/stapi/OneDrive/Desktop/GD32VW553/V1_MQTT_OK/GD32VW55X_Wifi_BLE_SDK/GD32VW55x_RELEASE_V1.0.2/MSDK/wpa_supplicant/src/tls\tlsv1_cred.c **** 		    hdr.payload, hdr.length);
 497:C:/Users/stapi/OneDrive/Desktop/GD32VW553/V1_MQTT_OK/GD32VW55X_Wifi_BLE_SDK/GD32VW55x_RELEASE_V1.0.2/MSDK/wpa_supplicant/src/tls\tlsv1_cred.c **** 	if (cred->cert) {
 498:C:/Users/stapi/OneDrive/Desktop/GD32VW553/V1_MQTT_OK/GD32VW55X_Wifi_BLE_SDK/GD32VW55x_RELEASE_V1.0.2/MSDK/wpa_supplicant/src/tls\tlsv1_cred.c **** 		struct x509_certificate *cert;
 499:C:/Users/stapi/OneDrive/Desktop/GD32VW553/V1_MQTT_OK/GD32VW55X_Wifi_BLE_SDK/GD32VW55x_RELEASE_V1.0.2/MSDK/wpa_supplicant/src/tls\tlsv1_cred.c **** 
 500:C:/Users/stapi/OneDrive/Desktop/GD32VW553/V1_MQTT_OK/GD32VW55X_Wifi_BLE_SDK/GD32VW55x_RELEASE_V1.0.2/MSDK/wpa_supplicant/src/tls\tlsv1_cred.c **** 		wpa_printf(MSG_DEBUG, "PKCS #12: Ignore extra certificate");
 501:C:/Users/stapi/OneDrive/Desktop/GD32VW553/V1_MQTT_OK/GD32VW55X_Wifi_BLE_SDK/GD32VW55x_RELEASE_V1.0.2/MSDK/wpa_supplicant/src/tls\tlsv1_cred.c **** 		cert = x509_certificate_parse(hdr.payload, hdr.length);
 502:C:/Users/stapi/OneDrive/Desktop/GD32VW553/V1_MQTT_OK/GD32VW55X_Wifi_BLE_SDK/GD32VW55x_RELEASE_V1.0.2/MSDK/wpa_supplicant/src/tls\tlsv1_cred.c **** 		if (!cert) {
 503:C:/Users/stapi/OneDrive/Desktop/GD32VW553/V1_MQTT_OK/GD32VW55X_Wifi_BLE_SDK/GD32VW55x_RELEASE_V1.0.2/MSDK/wpa_supplicant/src/tls\tlsv1_cred.c **** 			wpa_printf(MSG_DEBUG,
 504:C:/Users/stapi/OneDrive/Desktop/GD32VW553/V1_MQTT_OK/GD32VW55X_Wifi_BLE_SDK/GD32VW55x_RELEASE_V1.0.2/MSDK/wpa_supplicant/src/tls\tlsv1_cred.c **** 				   "PKCS #12: Failed to parse x509Certificate");
 505:C:/Users/stapi/OneDrive/Desktop/GD32VW553/V1_MQTT_OK/GD32VW55X_Wifi_BLE_SDK/GD32VW55x_RELEASE_V1.0.2/MSDK/wpa_supplicant/src/tls\tlsv1_cred.c **** 			return 0;
 506:C:/Users/stapi/OneDrive/Desktop/GD32VW553/V1_MQTT_OK/GD32VW55X_Wifi_BLE_SDK/GD32VW55x_RELEASE_V1.0.2/MSDK/wpa_supplicant/src/tls\tlsv1_cred.c **** 		}
 507:C:/Users/stapi/OneDrive/Desktop/GD32VW553/V1_MQTT_OK/GD32VW55X_Wifi_BLE_SDK/GD32VW55x_RELEASE_V1.0.2/MSDK/wpa_supplicant/src/tls\tlsv1_cred.c **** 		x509_certificate_chain_free(cert);
 508:C:/Users/stapi/OneDrive/Desktop/GD32VW553/V1_MQTT_OK/GD32VW55X_Wifi_BLE_SDK/GD32VW55x_RELEASE_V1.0.2/MSDK/wpa_supplicant/src/tls\tlsv1_cred.c **** 
 509:C:/Users/stapi/OneDrive/Desktop/GD32VW553/V1_MQTT_OK/GD32VW55X_Wifi_BLE_SDK/GD32VW55x_RELEASE_V1.0.2/MSDK/wpa_supplicant/src/tls\tlsv1_cred.c **** 		return 0;
 510:C:/Users/stapi/OneDrive/Desktop/GD32VW553/V1_MQTT_OK/GD32VW55X_Wifi_BLE_SDK/GD32VW55x_RELEASE_V1.0.2/MSDK/wpa_supplicant/src/tls\tlsv1_cred.c **** 	}
 511:C:/Users/stapi/OneDrive/Desktop/GD32VW553/V1_MQTT_OK/GD32VW55X_Wifi_BLE_SDK/GD32VW55x_RELEASE_V1.0.2/MSDK/wpa_supplicant/src/tls\tlsv1_cred.c **** 	return tlsv1_set_cert(cred, NULL, hdr.payload, hdr.length);
 512:C:/Users/stapi/OneDrive/Desktop/GD32VW553/V1_MQTT_OK/GD32VW55X_Wifi_BLE_SDK/GD32VW55x_RELEASE_V1.0.2/MSDK/wpa_supplicant/src/tls\tlsv1_cred.c **** }
 513:C:/Users/stapi/OneDrive/Desktop/GD32VW553/V1_MQTT_OK/GD32VW55X_Wifi_BLE_SDK/GD32VW55x_RELEASE_V1.0.2/MSDK/wpa_supplicant/src/tls\tlsv1_cred.c **** 
 514:C:/Users/stapi/OneDrive/Desktop/GD32VW553/V1_MQTT_OK/GD32VW55X_Wifi_BLE_SDK/GD32VW55x_RELEASE_V1.0.2/MSDK/wpa_supplicant/src/tls\tlsv1_cred.c **** 
 515:C:/Users/stapi/OneDrive/Desktop/GD32VW553/V1_MQTT_OK/GD32VW55X_Wifi_BLE_SDK/GD32VW55x_RELEASE_V1.0.2/MSDK/wpa_supplicant/src/tls\tlsv1_cred.c **** static int pkcs12_parse_attr_friendly_name(const u8 *pos, const u8 *end)
 516:C:/Users/stapi/OneDrive/Desktop/GD32VW553/V1_MQTT_OK/GD32VW55X_Wifi_BLE_SDK/GD32VW55x_RELEASE_V1.0.2/MSDK/wpa_supplicant/src/tls\tlsv1_cred.c **** {
 517:C:/Users/stapi/OneDrive/Desktop/GD32VW553/V1_MQTT_OK/GD32VW55X_Wifi_BLE_SDK/GD32VW55x_RELEASE_V1.0.2/MSDK/wpa_supplicant/src/tls\tlsv1_cred.c **** 	struct asn1_hdr hdr;
 518:C:/Users/stapi/OneDrive/Desktop/GD32VW553/V1_MQTT_OK/GD32VW55X_Wifi_BLE_SDK/GD32VW55x_RELEASE_V1.0.2/MSDK/wpa_supplicant/src/tls\tlsv1_cred.c **** 
 519:C:/Users/stapi/OneDrive/Desktop/GD32VW553/V1_MQTT_OK/GD32VW55X_Wifi_BLE_SDK/GD32VW55x_RELEASE_V1.0.2/MSDK/wpa_supplicant/src/tls\tlsv1_cred.c **** 	/*
 520:C:/Users/stapi/OneDrive/Desktop/GD32VW553/V1_MQTT_OK/GD32VW55X_Wifi_BLE_SDK/GD32VW55x_RELEASE_V1.0.2/MSDK/wpa_supplicant/src/tls\tlsv1_cred.c **** 	 * RFC 2985, 5.5.1:
 521:C:/Users/stapi/OneDrive/Desktop/GD32VW553/V1_MQTT_OK/GD32VW55X_Wifi_BLE_SDK/GD32VW55x_RELEASE_V1.0.2/MSDK/wpa_supplicant/src/tls\tlsv1_cred.c **** 	 * friendlyName ATTRIBUTE ::= {
 522:C:/Users/stapi/OneDrive/Desktop/GD32VW553/V1_MQTT_OK/GD32VW55X_Wifi_BLE_SDK/GD32VW55x_RELEASE_V1.0.2/MSDK/wpa_supplicant/src/tls\tlsv1_cred.c **** 	 *         WITH SYNTAX BMPString (SIZE(1..pkcs-9-ub-friendlyName))
 523:C:/Users/stapi/OneDrive/Desktop/GD32VW553/V1_MQTT_OK/GD32VW55X_Wifi_BLE_SDK/GD32VW55x_RELEASE_V1.0.2/MSDK/wpa_supplicant/src/tls\tlsv1_cred.c **** 	 *         EQUALITY MATCHING RULE caseIgnoreMatch
 524:C:/Users/stapi/OneDrive/Desktop/GD32VW553/V1_MQTT_OK/GD32VW55X_Wifi_BLE_SDK/GD32VW55x_RELEASE_V1.0.2/MSDK/wpa_supplicant/src/tls\tlsv1_cred.c **** 	 *         SINGLE VALUE TRUE
 525:C:/Users/stapi/OneDrive/Desktop/GD32VW553/V1_MQTT_OK/GD32VW55X_Wifi_BLE_SDK/GD32VW55x_RELEASE_V1.0.2/MSDK/wpa_supplicant/src/tls\tlsv1_cred.c **** 	 *          ID pkcs-9-at-friendlyName
 526:C:/Users/stapi/OneDrive/Desktop/GD32VW553/V1_MQTT_OK/GD32VW55X_Wifi_BLE_SDK/GD32VW55x_RELEASE_V1.0.2/MSDK/wpa_supplicant/src/tls\tlsv1_cred.c **** 	 * }
 527:C:/Users/stapi/OneDrive/Desktop/GD32VW553/V1_MQTT_OK/GD32VW55X_Wifi_BLE_SDK/GD32VW55x_RELEASE_V1.0.2/MSDK/wpa_supplicant/src/tls\tlsv1_cred.c **** 	 */
 528:C:/Users/stapi/OneDrive/Desktop/GD32VW553/V1_MQTT_OK/GD32VW55X_Wifi_BLE_SDK/GD32VW55x_RELEASE_V1.0.2/MSDK/wpa_supplicant/src/tls\tlsv1_cred.c **** 	if (asn1_get_next(pos, end - pos, &hdr) < 0 ||
 529:C:/Users/stapi/OneDrive/Desktop/GD32VW553/V1_MQTT_OK/GD32VW55X_Wifi_BLE_SDK/GD32VW55x_RELEASE_V1.0.2/MSDK/wpa_supplicant/src/tls\tlsv1_cred.c **** 	    !asn1_is_bmpstring(&hdr)) {
 530:C:/Users/stapi/OneDrive/Desktop/GD32VW553/V1_MQTT_OK/GD32VW55X_Wifi_BLE_SDK/GD32VW55x_RELEASE_V1.0.2/MSDK/wpa_supplicant/src/tls\tlsv1_cred.c **** 		asn1_unexpected(&hdr,
 531:C:/Users/stapi/OneDrive/Desktop/GD32VW553/V1_MQTT_OK/GD32VW55X_Wifi_BLE_SDK/GD32VW55x_RELEASE_V1.0.2/MSDK/wpa_supplicant/src/tls\tlsv1_cred.c **** 				"PKCS #12: Expected BMPSTRING (friendlyName)");
 532:C:/Users/stapi/OneDrive/Desktop/GD32VW553/V1_MQTT_OK/GD32VW55X_Wifi_BLE_SDK/GD32VW55x_RELEASE_V1.0.2/MSDK/wpa_supplicant/src/tls\tlsv1_cred.c **** 		return 0;
 533:C:/Users/stapi/OneDrive/Desktop/GD32VW553/V1_MQTT_OK/GD32VW55X_Wifi_BLE_SDK/GD32VW55x_RELEASE_V1.0.2/MSDK/wpa_supplicant/src/tls\tlsv1_cred.c **** 	}
 534:C:/Users/stapi/OneDrive/Desktop/GD32VW553/V1_MQTT_OK/GD32VW55X_Wifi_BLE_SDK/GD32VW55x_RELEASE_V1.0.2/MSDK/wpa_supplicant/src/tls\tlsv1_cred.c **** 	wpa_hexdump_ascii(MSG_DEBUG, "PKCS #12: friendlyName",
 535:C:/Users/stapi/OneDrive/Desktop/GD32VW553/V1_MQTT_OK/GD32VW55X_Wifi_BLE_SDK/GD32VW55x_RELEASE_V1.0.2/MSDK/wpa_supplicant/src/tls\tlsv1_cred.c **** 			  hdr.payload, hdr.length);
 536:C:/Users/stapi/OneDrive/Desktop/GD32VW553/V1_MQTT_OK/GD32VW55X_Wifi_BLE_SDK/GD32VW55x_RELEASE_V1.0.2/MSDK/wpa_supplicant/src/tls\tlsv1_cred.c **** 	return 0;
 537:C:/Users/stapi/OneDrive/Desktop/GD32VW553/V1_MQTT_OK/GD32VW55X_Wifi_BLE_SDK/GD32VW55x_RELEASE_V1.0.2/MSDK/wpa_supplicant/src/tls\tlsv1_cred.c **** }
 538:C:/Users/stapi/OneDrive/Desktop/GD32VW553/V1_MQTT_OK/GD32VW55X_Wifi_BLE_SDK/GD32VW55x_RELEASE_V1.0.2/MSDK/wpa_supplicant/src/tls\tlsv1_cred.c **** 
 539:C:/Users/stapi/OneDrive/Desktop/GD32VW553/V1_MQTT_OK/GD32VW55X_Wifi_BLE_SDK/GD32VW55x_RELEASE_V1.0.2/MSDK/wpa_supplicant/src/tls\tlsv1_cred.c **** 
 540:C:/Users/stapi/OneDrive/Desktop/GD32VW553/V1_MQTT_OK/GD32VW55X_Wifi_BLE_SDK/GD32VW55x_RELEASE_V1.0.2/MSDK/wpa_supplicant/src/tls\tlsv1_cred.c **** static int pkcs12_parse_attr_local_key_id(const u8 *pos, const u8 *end)
 541:C:/Users/stapi/OneDrive/Desktop/GD32VW553/V1_MQTT_OK/GD32VW55X_Wifi_BLE_SDK/GD32VW55x_RELEASE_V1.0.2/MSDK/wpa_supplicant/src/tls\tlsv1_cred.c **** {
 542:C:/Users/stapi/OneDrive/Desktop/GD32VW553/V1_MQTT_OK/GD32VW55X_Wifi_BLE_SDK/GD32VW55x_RELEASE_V1.0.2/MSDK/wpa_supplicant/src/tls\tlsv1_cred.c **** 	struct asn1_hdr hdr;
 543:C:/Users/stapi/OneDrive/Desktop/GD32VW553/V1_MQTT_OK/GD32VW55X_Wifi_BLE_SDK/GD32VW55x_RELEASE_V1.0.2/MSDK/wpa_supplicant/src/tls\tlsv1_cred.c **** 
 544:C:/Users/stapi/OneDrive/Desktop/GD32VW553/V1_MQTT_OK/GD32VW55X_Wifi_BLE_SDK/GD32VW55x_RELEASE_V1.0.2/MSDK/wpa_supplicant/src/tls\tlsv1_cred.c **** 	/*
 545:C:/Users/stapi/OneDrive/Desktop/GD32VW553/V1_MQTT_OK/GD32VW55X_Wifi_BLE_SDK/GD32VW55x_RELEASE_V1.0.2/MSDK/wpa_supplicant/src/tls\tlsv1_cred.c **** 	 * RFC 2985, 5.5.2:
 546:C:/Users/stapi/OneDrive/Desktop/GD32VW553/V1_MQTT_OK/GD32VW55X_Wifi_BLE_SDK/GD32VW55x_RELEASE_V1.0.2/MSDK/wpa_supplicant/src/tls\tlsv1_cred.c **** 	 * localKeyId ATTRIBUTE ::= {
 547:C:/Users/stapi/OneDrive/Desktop/GD32VW553/V1_MQTT_OK/GD32VW55X_Wifi_BLE_SDK/GD32VW55x_RELEASE_V1.0.2/MSDK/wpa_supplicant/src/tls\tlsv1_cred.c **** 	 *         WITH SYNTAX OCTET STRING
 548:C:/Users/stapi/OneDrive/Desktop/GD32VW553/V1_MQTT_OK/GD32VW55X_Wifi_BLE_SDK/GD32VW55x_RELEASE_V1.0.2/MSDK/wpa_supplicant/src/tls\tlsv1_cred.c **** 	 *         EQUALITY MATCHING RULE octetStringMatch
 549:C:/Users/stapi/OneDrive/Desktop/GD32VW553/V1_MQTT_OK/GD32VW55X_Wifi_BLE_SDK/GD32VW55x_RELEASE_V1.0.2/MSDK/wpa_supplicant/src/tls\tlsv1_cred.c **** 	 *         SINGLE VALUE TRUE
 550:C:/Users/stapi/OneDrive/Desktop/GD32VW553/V1_MQTT_OK/GD32VW55X_Wifi_BLE_SDK/GD32VW55x_RELEASE_V1.0.2/MSDK/wpa_supplicant/src/tls\tlsv1_cred.c **** 	 *         ID pkcs-9-at-localKeyId
 551:C:/Users/stapi/OneDrive/Desktop/GD32VW553/V1_MQTT_OK/GD32VW55X_Wifi_BLE_SDK/GD32VW55x_RELEASE_V1.0.2/MSDK/wpa_supplicant/src/tls\tlsv1_cred.c **** 	 * }
 552:C:/Users/stapi/OneDrive/Desktop/GD32VW553/V1_MQTT_OK/GD32VW55X_Wifi_BLE_SDK/GD32VW55x_RELEASE_V1.0.2/MSDK/wpa_supplicant/src/tls\tlsv1_cred.c **** 	 */
 553:C:/Users/stapi/OneDrive/Desktop/GD32VW553/V1_MQTT_OK/GD32VW55X_Wifi_BLE_SDK/GD32VW55x_RELEASE_V1.0.2/MSDK/wpa_supplicant/src/tls\tlsv1_cred.c **** 	if (asn1_get_next(pos, end - pos, &hdr) < 0 ||
 554:C:/Users/stapi/OneDrive/Desktop/GD32VW553/V1_MQTT_OK/GD32VW55X_Wifi_BLE_SDK/GD32VW55x_RELEASE_V1.0.2/MSDK/wpa_supplicant/src/tls\tlsv1_cred.c **** 	    !asn1_is_octetstring(&hdr)) {
 555:C:/Users/stapi/OneDrive/Desktop/GD32VW553/V1_MQTT_OK/GD32VW55X_Wifi_BLE_SDK/GD32VW55x_RELEASE_V1.0.2/MSDK/wpa_supplicant/src/tls\tlsv1_cred.c **** 		asn1_unexpected(&hdr,
 556:C:/Users/stapi/OneDrive/Desktop/GD32VW553/V1_MQTT_OK/GD32VW55X_Wifi_BLE_SDK/GD32VW55x_RELEASE_V1.0.2/MSDK/wpa_supplicant/src/tls\tlsv1_cred.c **** 				"PKCS #12: Expected OCTET STRING (localKeyID)");
 557:C:/Users/stapi/OneDrive/Desktop/GD32VW553/V1_MQTT_OK/GD32VW55X_Wifi_BLE_SDK/GD32VW55x_RELEASE_V1.0.2/MSDK/wpa_supplicant/src/tls\tlsv1_cred.c **** 		return -1;
 558:C:/Users/stapi/OneDrive/Desktop/GD32VW553/V1_MQTT_OK/GD32VW55X_Wifi_BLE_SDK/GD32VW55x_RELEASE_V1.0.2/MSDK/wpa_supplicant/src/tls\tlsv1_cred.c **** 	}
 559:C:/Users/stapi/OneDrive/Desktop/GD32VW553/V1_MQTT_OK/GD32VW55X_Wifi_BLE_SDK/GD32VW55x_RELEASE_V1.0.2/MSDK/wpa_supplicant/src/tls\tlsv1_cred.c **** 	wpa_hexdump_key(MSG_DEBUG, "PKCS #12: localKeyID",
 560:C:/Users/stapi/OneDrive/Desktop/GD32VW553/V1_MQTT_OK/GD32VW55X_Wifi_BLE_SDK/GD32VW55x_RELEASE_V1.0.2/MSDK/wpa_supplicant/src/tls\tlsv1_cred.c **** 			hdr.payload, hdr.length);
 561:C:/Users/stapi/OneDrive/Desktop/GD32VW553/V1_MQTT_OK/GD32VW55X_Wifi_BLE_SDK/GD32VW55x_RELEASE_V1.0.2/MSDK/wpa_supplicant/src/tls\tlsv1_cred.c **** 	return 0;
 562:C:/Users/stapi/OneDrive/Desktop/GD32VW553/V1_MQTT_OK/GD32VW55X_Wifi_BLE_SDK/GD32VW55x_RELEASE_V1.0.2/MSDK/wpa_supplicant/src/tls\tlsv1_cred.c **** }
 563:C:/Users/stapi/OneDrive/Desktop/GD32VW553/V1_MQTT_OK/GD32VW55X_Wifi_BLE_SDK/GD32VW55x_RELEASE_V1.0.2/MSDK/wpa_supplicant/src/tls\tlsv1_cred.c **** 
 564:C:/Users/stapi/OneDrive/Desktop/GD32VW553/V1_MQTT_OK/GD32VW55X_Wifi_BLE_SDK/GD32VW55x_RELEASE_V1.0.2/MSDK/wpa_supplicant/src/tls\tlsv1_cred.c **** 
 565:C:/Users/stapi/OneDrive/Desktop/GD32VW553/V1_MQTT_OK/GD32VW55X_Wifi_BLE_SDK/GD32VW55x_RELEASE_V1.0.2/MSDK/wpa_supplicant/src/tls\tlsv1_cred.c **** static int pkcs12_parse_attr(const u8 *pos, size_t len)
 566:C:/Users/stapi/OneDrive/Desktop/GD32VW553/V1_MQTT_OK/GD32VW55X_Wifi_BLE_SDK/GD32VW55x_RELEASE_V1.0.2/MSDK/wpa_supplicant/src/tls\tlsv1_cred.c **** {
 567:C:/Users/stapi/OneDrive/Desktop/GD32VW553/V1_MQTT_OK/GD32VW55X_Wifi_BLE_SDK/GD32VW55x_RELEASE_V1.0.2/MSDK/wpa_supplicant/src/tls\tlsv1_cred.c **** 	const u8 *end = pos + len;
 568:C:/Users/stapi/OneDrive/Desktop/GD32VW553/V1_MQTT_OK/GD32VW55X_Wifi_BLE_SDK/GD32VW55x_RELEASE_V1.0.2/MSDK/wpa_supplicant/src/tls\tlsv1_cred.c **** 	struct asn1_hdr hdr;
 569:C:/Users/stapi/OneDrive/Desktop/GD32VW553/V1_MQTT_OK/GD32VW55X_Wifi_BLE_SDK/GD32VW55x_RELEASE_V1.0.2/MSDK/wpa_supplicant/src/tls\tlsv1_cred.c **** 	struct asn1_oid a_oid;
 570:C:/Users/stapi/OneDrive/Desktop/GD32VW553/V1_MQTT_OK/GD32VW55X_Wifi_BLE_SDK/GD32VW55x_RELEASE_V1.0.2/MSDK/wpa_supplicant/src/tls\tlsv1_cred.c **** 	char obuf[80];
 571:C:/Users/stapi/OneDrive/Desktop/GD32VW553/V1_MQTT_OK/GD32VW55X_Wifi_BLE_SDK/GD32VW55x_RELEASE_V1.0.2/MSDK/wpa_supplicant/src/tls\tlsv1_cred.c **** 
 572:C:/Users/stapi/OneDrive/Desktop/GD32VW553/V1_MQTT_OK/GD32VW55X_Wifi_BLE_SDK/GD32VW55x_RELEASE_V1.0.2/MSDK/wpa_supplicant/src/tls\tlsv1_cred.c **** 	/*
 573:C:/Users/stapi/OneDrive/Desktop/GD32VW553/V1_MQTT_OK/GD32VW55X_Wifi_BLE_SDK/GD32VW55x_RELEASE_V1.0.2/MSDK/wpa_supplicant/src/tls\tlsv1_cred.c **** 	 * PKCS12Attribute ::= SEQUENCE {
 574:C:/Users/stapi/OneDrive/Desktop/GD32VW553/V1_MQTT_OK/GD32VW55X_Wifi_BLE_SDK/GD32VW55x_RELEASE_V1.0.2/MSDK/wpa_supplicant/src/tls\tlsv1_cred.c **** 	 * attrId      ATTRIBUTE.&id ({PKCS12AttrSet}),
 575:C:/Users/stapi/OneDrive/Desktop/GD32VW553/V1_MQTT_OK/GD32VW55X_Wifi_BLE_SDK/GD32VW55x_RELEASE_V1.0.2/MSDK/wpa_supplicant/src/tls\tlsv1_cred.c **** 	 * attrValues  SET OF ATTRIBUTE.&Type ({PKCS12AttrSet}{@attrId})
 576:C:/Users/stapi/OneDrive/Desktop/GD32VW553/V1_MQTT_OK/GD32VW55X_Wifi_BLE_SDK/GD32VW55x_RELEASE_V1.0.2/MSDK/wpa_supplicant/src/tls\tlsv1_cred.c **** 	 * }
 577:C:/Users/stapi/OneDrive/Desktop/GD32VW553/V1_MQTT_OK/GD32VW55X_Wifi_BLE_SDK/GD32VW55x_RELEASE_V1.0.2/MSDK/wpa_supplicant/src/tls\tlsv1_cred.c **** 	 */
 578:C:/Users/stapi/OneDrive/Desktop/GD32VW553/V1_MQTT_OK/GD32VW55X_Wifi_BLE_SDK/GD32VW55x_RELEASE_V1.0.2/MSDK/wpa_supplicant/src/tls\tlsv1_cred.c **** 
 579:C:/Users/stapi/OneDrive/Desktop/GD32VW553/V1_MQTT_OK/GD32VW55X_Wifi_BLE_SDK/GD32VW55x_RELEASE_V1.0.2/MSDK/wpa_supplicant/src/tls\tlsv1_cred.c **** 	if (asn1_get_oid(pos, end - pos, &a_oid, &pos)) {
 580:C:/Users/stapi/OneDrive/Desktop/GD32VW553/V1_MQTT_OK/GD32VW55X_Wifi_BLE_SDK/GD32VW55x_RELEASE_V1.0.2/MSDK/wpa_supplicant/src/tls\tlsv1_cred.c **** 		wpa_printf(MSG_DEBUG, "PKCS #12: Failed to parse OID (attrId)");
 581:C:/Users/stapi/OneDrive/Desktop/GD32VW553/V1_MQTT_OK/GD32VW55X_Wifi_BLE_SDK/GD32VW55x_RELEASE_V1.0.2/MSDK/wpa_supplicant/src/tls\tlsv1_cred.c **** 		return -1;
 582:C:/Users/stapi/OneDrive/Desktop/GD32VW553/V1_MQTT_OK/GD32VW55X_Wifi_BLE_SDK/GD32VW55x_RELEASE_V1.0.2/MSDK/wpa_supplicant/src/tls\tlsv1_cred.c **** 	}
 583:C:/Users/stapi/OneDrive/Desktop/GD32VW553/V1_MQTT_OK/GD32VW55X_Wifi_BLE_SDK/GD32VW55x_RELEASE_V1.0.2/MSDK/wpa_supplicant/src/tls\tlsv1_cred.c **** 
 584:C:/Users/stapi/OneDrive/Desktop/GD32VW553/V1_MQTT_OK/GD32VW55X_Wifi_BLE_SDK/GD32VW55x_RELEASE_V1.0.2/MSDK/wpa_supplicant/src/tls\tlsv1_cred.c **** 	asn1_oid_to_str(&a_oid, obuf, sizeof(obuf));
 585:C:/Users/stapi/OneDrive/Desktop/GD32VW553/V1_MQTT_OK/GD32VW55X_Wifi_BLE_SDK/GD32VW55x_RELEASE_V1.0.2/MSDK/wpa_supplicant/src/tls\tlsv1_cred.c **** 	wpa_printf(MSG_DEBUG, "PKCS #12: attrId %s", obuf);
 586:C:/Users/stapi/OneDrive/Desktop/GD32VW553/V1_MQTT_OK/GD32VW55X_Wifi_BLE_SDK/GD32VW55x_RELEASE_V1.0.2/MSDK/wpa_supplicant/src/tls\tlsv1_cred.c **** 
 587:C:/Users/stapi/OneDrive/Desktop/GD32VW553/V1_MQTT_OK/GD32VW55X_Wifi_BLE_SDK/GD32VW55x_RELEASE_V1.0.2/MSDK/wpa_supplicant/src/tls\tlsv1_cred.c **** 	if (asn1_get_next(pos, end - pos, &hdr) < 0 || !asn1_is_set(&hdr)) {
 588:C:/Users/stapi/OneDrive/Desktop/GD32VW553/V1_MQTT_OK/GD32VW55X_Wifi_BLE_SDK/GD32VW55x_RELEASE_V1.0.2/MSDK/wpa_supplicant/src/tls\tlsv1_cred.c **** 		asn1_unexpected(&hdr, "PKCS #12: Expected SET (attrValues)");
 589:C:/Users/stapi/OneDrive/Desktop/GD32VW553/V1_MQTT_OK/GD32VW55X_Wifi_BLE_SDK/GD32VW55x_RELEASE_V1.0.2/MSDK/wpa_supplicant/src/tls\tlsv1_cred.c **** 		return -1;
 590:C:/Users/stapi/OneDrive/Desktop/GD32VW553/V1_MQTT_OK/GD32VW55X_Wifi_BLE_SDK/GD32VW55x_RELEASE_V1.0.2/MSDK/wpa_supplicant/src/tls\tlsv1_cred.c **** 	}
 591:C:/Users/stapi/OneDrive/Desktop/GD32VW553/V1_MQTT_OK/GD32VW55X_Wifi_BLE_SDK/GD32VW55x_RELEASE_V1.0.2/MSDK/wpa_supplicant/src/tls\tlsv1_cred.c **** 	wpa_hexdump_key(MSG_MSGDUMP, "PKCS #12: attrValues",
 592:C:/Users/stapi/OneDrive/Desktop/GD32VW553/V1_MQTT_OK/GD32VW55X_Wifi_BLE_SDK/GD32VW55x_RELEASE_V1.0.2/MSDK/wpa_supplicant/src/tls\tlsv1_cred.c **** 			hdr.payload, hdr.length);
 593:C:/Users/stapi/OneDrive/Desktop/GD32VW553/V1_MQTT_OK/GD32VW55X_Wifi_BLE_SDK/GD32VW55x_RELEASE_V1.0.2/MSDK/wpa_supplicant/src/tls\tlsv1_cred.c **** 	pos = hdr.payload;
 594:C:/Users/stapi/OneDrive/Desktop/GD32VW553/V1_MQTT_OK/GD32VW55X_Wifi_BLE_SDK/GD32VW55x_RELEASE_V1.0.2/MSDK/wpa_supplicant/src/tls\tlsv1_cred.c **** 	end = hdr.payload + hdr.length;
 595:C:/Users/stapi/OneDrive/Desktop/GD32VW553/V1_MQTT_OK/GD32VW55X_Wifi_BLE_SDK/GD32VW55x_RELEASE_V1.0.2/MSDK/wpa_supplicant/src/tls\tlsv1_cred.c **** 
 596:C:/Users/stapi/OneDrive/Desktop/GD32VW553/V1_MQTT_OK/GD32VW55X_Wifi_BLE_SDK/GD32VW55x_RELEASE_V1.0.2/MSDK/wpa_supplicant/src/tls\tlsv1_cred.c **** 	if (is_oid_pkcs9_friendly_name(&a_oid))
 597:C:/Users/stapi/OneDrive/Desktop/GD32VW553/V1_MQTT_OK/GD32VW55X_Wifi_BLE_SDK/GD32VW55x_RELEASE_V1.0.2/MSDK/wpa_supplicant/src/tls\tlsv1_cred.c **** 		return pkcs12_parse_attr_friendly_name(pos, end);
 598:C:/Users/stapi/OneDrive/Desktop/GD32VW553/V1_MQTT_OK/GD32VW55X_Wifi_BLE_SDK/GD32VW55x_RELEASE_V1.0.2/MSDK/wpa_supplicant/src/tls\tlsv1_cred.c **** 	if (is_oid_pkcs9_local_key_id(&a_oid))
 599:C:/Users/stapi/OneDrive/Desktop/GD32VW553/V1_MQTT_OK/GD32VW55X_Wifi_BLE_SDK/GD32VW55x_RELEASE_V1.0.2/MSDK/wpa_supplicant/src/tls\tlsv1_cred.c **** 		return pkcs12_parse_attr_local_key_id(pos, end);
 600:C:/Users/stapi/OneDrive/Desktop/GD32VW553/V1_MQTT_OK/GD32VW55X_Wifi_BLE_SDK/GD32VW55x_RELEASE_V1.0.2/MSDK/wpa_supplicant/src/tls\tlsv1_cred.c **** 
 601:C:/Users/stapi/OneDrive/Desktop/GD32VW553/V1_MQTT_OK/GD32VW55X_Wifi_BLE_SDK/GD32VW55x_RELEASE_V1.0.2/MSDK/wpa_supplicant/src/tls\tlsv1_cred.c **** 	wpa_printf(MSG_DEBUG, "PKCS #12: Ignore unknown attribute");
 602:C:/Users/stapi/OneDrive/Desktop/GD32VW553/V1_MQTT_OK/GD32VW55X_Wifi_BLE_SDK/GD32VW55x_RELEASE_V1.0.2/MSDK/wpa_supplicant/src/tls\tlsv1_cred.c **** 	return 0;
 603:C:/Users/stapi/OneDrive/Desktop/GD32VW553/V1_MQTT_OK/GD32VW55X_Wifi_BLE_SDK/GD32VW55x_RELEASE_V1.0.2/MSDK/wpa_supplicant/src/tls\tlsv1_cred.c **** }
 604:C:/Users/stapi/OneDrive/Desktop/GD32VW553/V1_MQTT_OK/GD32VW55X_Wifi_BLE_SDK/GD32VW55x_RELEASE_V1.0.2/MSDK/wpa_supplicant/src/tls\tlsv1_cred.c **** 
 605:C:/Users/stapi/OneDrive/Desktop/GD32VW553/V1_MQTT_OK/GD32VW55X_Wifi_BLE_SDK/GD32VW55x_RELEASE_V1.0.2/MSDK/wpa_supplicant/src/tls\tlsv1_cred.c **** 
 606:C:/Users/stapi/OneDrive/Desktop/GD32VW553/V1_MQTT_OK/GD32VW55X_Wifi_BLE_SDK/GD32VW55x_RELEASE_V1.0.2/MSDK/wpa_supplicant/src/tls\tlsv1_cred.c **** static int pkcs12_safebag(struct tlsv1_credentials *cred,
 607:C:/Users/stapi/OneDrive/Desktop/GD32VW553/V1_MQTT_OK/GD32VW55X_Wifi_BLE_SDK/GD32VW55x_RELEASE_V1.0.2/MSDK/wpa_supplicant/src/tls\tlsv1_cred.c **** 			  const u8 *buf, size_t len, const char *passwd)
 608:C:/Users/stapi/OneDrive/Desktop/GD32VW553/V1_MQTT_OK/GD32VW55X_Wifi_BLE_SDK/GD32VW55x_RELEASE_V1.0.2/MSDK/wpa_supplicant/src/tls\tlsv1_cred.c **** {
 609:C:/Users/stapi/OneDrive/Desktop/GD32VW553/V1_MQTT_OK/GD32VW55X_Wifi_BLE_SDK/GD32VW55x_RELEASE_V1.0.2/MSDK/wpa_supplicant/src/tls\tlsv1_cred.c **** 	struct asn1_hdr hdr;
 610:C:/Users/stapi/OneDrive/Desktop/GD32VW553/V1_MQTT_OK/GD32VW55X_Wifi_BLE_SDK/GD32VW55x_RELEASE_V1.0.2/MSDK/wpa_supplicant/src/tls\tlsv1_cred.c **** 	struct asn1_oid oid;
 611:C:/Users/stapi/OneDrive/Desktop/GD32VW553/V1_MQTT_OK/GD32VW55X_Wifi_BLE_SDK/GD32VW55x_RELEASE_V1.0.2/MSDK/wpa_supplicant/src/tls\tlsv1_cred.c **** 	char obuf[80];
 612:C:/Users/stapi/OneDrive/Desktop/GD32VW553/V1_MQTT_OK/GD32VW55X_Wifi_BLE_SDK/GD32VW55x_RELEASE_V1.0.2/MSDK/wpa_supplicant/src/tls\tlsv1_cred.c **** 	const u8 *pos = buf, *end = buf + len;
 613:C:/Users/stapi/OneDrive/Desktop/GD32VW553/V1_MQTT_OK/GD32VW55X_Wifi_BLE_SDK/GD32VW55x_RELEASE_V1.0.2/MSDK/wpa_supplicant/src/tls\tlsv1_cred.c **** 	const u8 *value;
 614:C:/Users/stapi/OneDrive/Desktop/GD32VW553/V1_MQTT_OK/GD32VW55X_Wifi_BLE_SDK/GD32VW55x_RELEASE_V1.0.2/MSDK/wpa_supplicant/src/tls\tlsv1_cred.c **** 	size_t value_len;
 615:C:/Users/stapi/OneDrive/Desktop/GD32VW553/V1_MQTT_OK/GD32VW55X_Wifi_BLE_SDK/GD32VW55x_RELEASE_V1.0.2/MSDK/wpa_supplicant/src/tls\tlsv1_cred.c **** 
 616:C:/Users/stapi/OneDrive/Desktop/GD32VW553/V1_MQTT_OK/GD32VW55X_Wifi_BLE_SDK/GD32VW55x_RELEASE_V1.0.2/MSDK/wpa_supplicant/src/tls\tlsv1_cred.c **** 	wpa_hexdump_key(MSG_MSGDUMP, "PKCS #12: SafeBag", buf, len);
 617:C:/Users/stapi/OneDrive/Desktop/GD32VW553/V1_MQTT_OK/GD32VW55X_Wifi_BLE_SDK/GD32VW55x_RELEASE_V1.0.2/MSDK/wpa_supplicant/src/tls\tlsv1_cred.c **** 
 618:C:/Users/stapi/OneDrive/Desktop/GD32VW553/V1_MQTT_OK/GD32VW55X_Wifi_BLE_SDK/GD32VW55x_RELEASE_V1.0.2/MSDK/wpa_supplicant/src/tls\tlsv1_cred.c **** 	/* BAG-TYPE ::= TYPE-IDENTIFIER */
 619:C:/Users/stapi/OneDrive/Desktop/GD32VW553/V1_MQTT_OK/GD32VW55X_Wifi_BLE_SDK/GD32VW55x_RELEASE_V1.0.2/MSDK/wpa_supplicant/src/tls\tlsv1_cred.c **** 	if (asn1_get_oid(pos, end - pos, &oid, &pos)) {
 620:C:/Users/stapi/OneDrive/Desktop/GD32VW553/V1_MQTT_OK/GD32VW55X_Wifi_BLE_SDK/GD32VW55x_RELEASE_V1.0.2/MSDK/wpa_supplicant/src/tls\tlsv1_cred.c **** 		wpa_printf(MSG_DEBUG,
 621:C:/Users/stapi/OneDrive/Desktop/GD32VW553/V1_MQTT_OK/GD32VW55X_Wifi_BLE_SDK/GD32VW55x_RELEASE_V1.0.2/MSDK/wpa_supplicant/src/tls\tlsv1_cred.c **** 			   "PKCS #12: Failed to parse OID (BAG-TYPE)");
 622:C:/Users/stapi/OneDrive/Desktop/GD32VW553/V1_MQTT_OK/GD32VW55X_Wifi_BLE_SDK/GD32VW55x_RELEASE_V1.0.2/MSDK/wpa_supplicant/src/tls\tlsv1_cred.c **** 		return -1;
 623:C:/Users/stapi/OneDrive/Desktop/GD32VW553/V1_MQTT_OK/GD32VW55X_Wifi_BLE_SDK/GD32VW55x_RELEASE_V1.0.2/MSDK/wpa_supplicant/src/tls\tlsv1_cred.c **** 	}
 624:C:/Users/stapi/OneDrive/Desktop/GD32VW553/V1_MQTT_OK/GD32VW55X_Wifi_BLE_SDK/GD32VW55x_RELEASE_V1.0.2/MSDK/wpa_supplicant/src/tls\tlsv1_cred.c **** 
 625:C:/Users/stapi/OneDrive/Desktop/GD32VW553/V1_MQTT_OK/GD32VW55X_Wifi_BLE_SDK/GD32VW55x_RELEASE_V1.0.2/MSDK/wpa_supplicant/src/tls\tlsv1_cred.c **** 	asn1_oid_to_str(&oid, obuf, sizeof(obuf));
 626:C:/Users/stapi/OneDrive/Desktop/GD32VW553/V1_MQTT_OK/GD32VW55X_Wifi_BLE_SDK/GD32VW55x_RELEASE_V1.0.2/MSDK/wpa_supplicant/src/tls\tlsv1_cred.c **** 	wpa_printf(MSG_DEBUG, "PKCS #12: BAG-TYPE %s", obuf);
 627:C:/Users/stapi/OneDrive/Desktop/GD32VW553/V1_MQTT_OK/GD32VW55X_Wifi_BLE_SDK/GD32VW55x_RELEASE_V1.0.2/MSDK/wpa_supplicant/src/tls\tlsv1_cred.c **** 
 628:C:/Users/stapi/OneDrive/Desktop/GD32VW553/V1_MQTT_OK/GD32VW55X_Wifi_BLE_SDK/GD32VW55x_RELEASE_V1.0.2/MSDK/wpa_supplicant/src/tls\tlsv1_cred.c **** 	if (asn1_get_next(pos, end - pos, &hdr) < 0 || !hdr.constructed ||
 629:C:/Users/stapi/OneDrive/Desktop/GD32VW553/V1_MQTT_OK/GD32VW55X_Wifi_BLE_SDK/GD32VW55x_RELEASE_V1.0.2/MSDK/wpa_supplicant/src/tls\tlsv1_cred.c **** 	    !asn1_is_cs_tag(&hdr, 0)) {
 630:C:/Users/stapi/OneDrive/Desktop/GD32VW553/V1_MQTT_OK/GD32VW55X_Wifi_BLE_SDK/GD32VW55x_RELEASE_V1.0.2/MSDK/wpa_supplicant/src/tls\tlsv1_cred.c **** 		asn1_unexpected(&hdr,
 631:C:/Users/stapi/OneDrive/Desktop/GD32VW553/V1_MQTT_OK/GD32VW55X_Wifi_BLE_SDK/GD32VW55x_RELEASE_V1.0.2/MSDK/wpa_supplicant/src/tls\tlsv1_cred.c **** 				"PKCS #12: Expected [0] EXPLICIT (bagValue)");
 632:C:/Users/stapi/OneDrive/Desktop/GD32VW553/V1_MQTT_OK/GD32VW55X_Wifi_BLE_SDK/GD32VW55x_RELEASE_V1.0.2/MSDK/wpa_supplicant/src/tls\tlsv1_cred.c **** 		return 0;
 633:C:/Users/stapi/OneDrive/Desktop/GD32VW553/V1_MQTT_OK/GD32VW55X_Wifi_BLE_SDK/GD32VW55x_RELEASE_V1.0.2/MSDK/wpa_supplicant/src/tls\tlsv1_cred.c **** 	}
 634:C:/Users/stapi/OneDrive/Desktop/GD32VW553/V1_MQTT_OK/GD32VW55X_Wifi_BLE_SDK/GD32VW55x_RELEASE_V1.0.2/MSDK/wpa_supplicant/src/tls\tlsv1_cred.c **** 	value = hdr.payload;
 635:C:/Users/stapi/OneDrive/Desktop/GD32VW553/V1_MQTT_OK/GD32VW55X_Wifi_BLE_SDK/GD32VW55x_RELEASE_V1.0.2/MSDK/wpa_supplicant/src/tls\tlsv1_cred.c **** 	value_len = hdr.length;
 636:C:/Users/stapi/OneDrive/Desktop/GD32VW553/V1_MQTT_OK/GD32VW55X_Wifi_BLE_SDK/GD32VW55x_RELEASE_V1.0.2/MSDK/wpa_supplicant/src/tls\tlsv1_cred.c **** 	wpa_hexdump_key(MSG_MSGDUMP, "PKCS #12: bagValue", value, value_len);
 637:C:/Users/stapi/OneDrive/Desktop/GD32VW553/V1_MQTT_OK/GD32VW55X_Wifi_BLE_SDK/GD32VW55x_RELEASE_V1.0.2/MSDK/wpa_supplicant/src/tls\tlsv1_cred.c **** 	pos = hdr.payload + hdr.length;
 638:C:/Users/stapi/OneDrive/Desktop/GD32VW553/V1_MQTT_OK/GD32VW55X_Wifi_BLE_SDK/GD32VW55x_RELEASE_V1.0.2/MSDK/wpa_supplicant/src/tls\tlsv1_cred.c **** 
 639:C:/Users/stapi/OneDrive/Desktop/GD32VW553/V1_MQTT_OK/GD32VW55X_Wifi_BLE_SDK/GD32VW55x_RELEASE_V1.0.2/MSDK/wpa_supplicant/src/tls\tlsv1_cred.c **** 	if (pos < end) {
 640:C:/Users/stapi/OneDrive/Desktop/GD32VW553/V1_MQTT_OK/GD32VW55X_Wifi_BLE_SDK/GD32VW55x_RELEASE_V1.0.2/MSDK/wpa_supplicant/src/tls\tlsv1_cred.c **** 		/* bagAttributes  SET OF PKCS12Attribute OPTIONAL */
 641:C:/Users/stapi/OneDrive/Desktop/GD32VW553/V1_MQTT_OK/GD32VW55X_Wifi_BLE_SDK/GD32VW55x_RELEASE_V1.0.2/MSDK/wpa_supplicant/src/tls\tlsv1_cred.c **** 		if (asn1_get_next(pos, end - pos, &hdr) < 0 ||
 642:C:/Users/stapi/OneDrive/Desktop/GD32VW553/V1_MQTT_OK/GD32VW55X_Wifi_BLE_SDK/GD32VW55x_RELEASE_V1.0.2/MSDK/wpa_supplicant/src/tls\tlsv1_cred.c **** 		    !asn1_is_set(&hdr)) {
 643:C:/Users/stapi/OneDrive/Desktop/GD32VW553/V1_MQTT_OK/GD32VW55X_Wifi_BLE_SDK/GD32VW55x_RELEASE_V1.0.2/MSDK/wpa_supplicant/src/tls\tlsv1_cred.c **** 			asn1_unexpected(&hdr,
 644:C:/Users/stapi/OneDrive/Desktop/GD32VW553/V1_MQTT_OK/GD32VW55X_Wifi_BLE_SDK/GD32VW55x_RELEASE_V1.0.2/MSDK/wpa_supplicant/src/tls\tlsv1_cred.c **** 					"PKCS #12: Expected SET (bagAttributes)");
 645:C:/Users/stapi/OneDrive/Desktop/GD32VW553/V1_MQTT_OK/GD32VW55X_Wifi_BLE_SDK/GD32VW55x_RELEASE_V1.0.2/MSDK/wpa_supplicant/src/tls\tlsv1_cred.c **** 			return -1;
 646:C:/Users/stapi/OneDrive/Desktop/GD32VW553/V1_MQTT_OK/GD32VW55X_Wifi_BLE_SDK/GD32VW55x_RELEASE_V1.0.2/MSDK/wpa_supplicant/src/tls\tlsv1_cred.c **** 		}
 647:C:/Users/stapi/OneDrive/Desktop/GD32VW553/V1_MQTT_OK/GD32VW55X_Wifi_BLE_SDK/GD32VW55x_RELEASE_V1.0.2/MSDK/wpa_supplicant/src/tls\tlsv1_cred.c **** 		wpa_hexdump_key(MSG_MSGDUMP, "PKCS #12: bagAttributes",
 648:C:/Users/stapi/OneDrive/Desktop/GD32VW553/V1_MQTT_OK/GD32VW55X_Wifi_BLE_SDK/GD32VW55x_RELEASE_V1.0.2/MSDK/wpa_supplicant/src/tls\tlsv1_cred.c **** 				hdr.payload, hdr.length);
 649:C:/Users/stapi/OneDrive/Desktop/GD32VW553/V1_MQTT_OK/GD32VW55X_Wifi_BLE_SDK/GD32VW55x_RELEASE_V1.0.2/MSDK/wpa_supplicant/src/tls\tlsv1_cred.c **** 
 650:C:/Users/stapi/OneDrive/Desktop/GD32VW553/V1_MQTT_OK/GD32VW55X_Wifi_BLE_SDK/GD32VW55x_RELEASE_V1.0.2/MSDK/wpa_supplicant/src/tls\tlsv1_cred.c **** 		pos = hdr.payload;
 651:C:/Users/stapi/OneDrive/Desktop/GD32VW553/V1_MQTT_OK/GD32VW55X_Wifi_BLE_SDK/GD32VW55x_RELEASE_V1.0.2/MSDK/wpa_supplicant/src/tls\tlsv1_cred.c **** 		end = hdr.payload + hdr.length;
 652:C:/Users/stapi/OneDrive/Desktop/GD32VW553/V1_MQTT_OK/GD32VW55X_Wifi_BLE_SDK/GD32VW55x_RELEASE_V1.0.2/MSDK/wpa_supplicant/src/tls\tlsv1_cred.c **** 		while (pos < end) {
 653:C:/Users/stapi/OneDrive/Desktop/GD32VW553/V1_MQTT_OK/GD32VW55X_Wifi_BLE_SDK/GD32VW55x_RELEASE_V1.0.2/MSDK/wpa_supplicant/src/tls\tlsv1_cred.c **** 			/* PKCS12Attribute ::= SEQUENCE */
 654:C:/Users/stapi/OneDrive/Desktop/GD32VW553/V1_MQTT_OK/GD32VW55X_Wifi_BLE_SDK/GD32VW55x_RELEASE_V1.0.2/MSDK/wpa_supplicant/src/tls\tlsv1_cred.c **** 			if (asn1_get_next(pos, end - pos, &hdr) < 0 ||
 655:C:/Users/stapi/OneDrive/Desktop/GD32VW553/V1_MQTT_OK/GD32VW55X_Wifi_BLE_SDK/GD32VW55x_RELEASE_V1.0.2/MSDK/wpa_supplicant/src/tls\tlsv1_cred.c **** 			    !asn1_is_sequence(&hdr)) {
 656:C:/Users/stapi/OneDrive/Desktop/GD32VW553/V1_MQTT_OK/GD32VW55X_Wifi_BLE_SDK/GD32VW55x_RELEASE_V1.0.2/MSDK/wpa_supplicant/src/tls\tlsv1_cred.c **** 				asn1_unexpected(&hdr,
 657:C:/Users/stapi/OneDrive/Desktop/GD32VW553/V1_MQTT_OK/GD32VW55X_Wifi_BLE_SDK/GD32VW55x_RELEASE_V1.0.2/MSDK/wpa_supplicant/src/tls\tlsv1_cred.c **** 						"PKCS #12: Expected SEQUENCE (PKCS12Attribute)");
 658:C:/Users/stapi/OneDrive/Desktop/GD32VW553/V1_MQTT_OK/GD32VW55X_Wifi_BLE_SDK/GD32VW55x_RELEASE_V1.0.2/MSDK/wpa_supplicant/src/tls\tlsv1_cred.c **** 				return -1;
 659:C:/Users/stapi/OneDrive/Desktop/GD32VW553/V1_MQTT_OK/GD32VW55X_Wifi_BLE_SDK/GD32VW55x_RELEASE_V1.0.2/MSDK/wpa_supplicant/src/tls\tlsv1_cred.c **** 			}
 660:C:/Users/stapi/OneDrive/Desktop/GD32VW553/V1_MQTT_OK/GD32VW55X_Wifi_BLE_SDK/GD32VW55x_RELEASE_V1.0.2/MSDK/wpa_supplicant/src/tls\tlsv1_cred.c **** 			if (pkcs12_parse_attr(hdr.payload, hdr.length) < 0)
 661:C:/Users/stapi/OneDrive/Desktop/GD32VW553/V1_MQTT_OK/GD32VW55X_Wifi_BLE_SDK/GD32VW55x_RELEASE_V1.0.2/MSDK/wpa_supplicant/src/tls\tlsv1_cred.c **** 				return -1;
 662:C:/Users/stapi/OneDrive/Desktop/GD32VW553/V1_MQTT_OK/GD32VW55X_Wifi_BLE_SDK/GD32VW55x_RELEASE_V1.0.2/MSDK/wpa_supplicant/src/tls\tlsv1_cred.c **** 			pos = hdr.payload + hdr.length;
 663:C:/Users/stapi/OneDrive/Desktop/GD32VW553/V1_MQTT_OK/GD32VW55X_Wifi_BLE_SDK/GD32VW55x_RELEASE_V1.0.2/MSDK/wpa_supplicant/src/tls\tlsv1_cred.c **** 		}
 664:C:/Users/stapi/OneDrive/Desktop/GD32VW553/V1_MQTT_OK/GD32VW55X_Wifi_BLE_SDK/GD32VW55x_RELEASE_V1.0.2/MSDK/wpa_supplicant/src/tls\tlsv1_cred.c **** 	}
 665:C:/Users/stapi/OneDrive/Desktop/GD32VW553/V1_MQTT_OK/GD32VW55X_Wifi_BLE_SDK/GD32VW55x_RELEASE_V1.0.2/MSDK/wpa_supplicant/src/tls\tlsv1_cred.c **** 
 666:C:/Users/stapi/OneDrive/Desktop/GD32VW553/V1_MQTT_OK/GD32VW55X_Wifi_BLE_SDK/GD32VW55x_RELEASE_V1.0.2/MSDK/wpa_supplicant/src/tls\tlsv1_cred.c **** 	if (pkcs12_is_bagtype_oid(&oid, 1))
 667:C:/Users/stapi/OneDrive/Desktop/GD32VW553/V1_MQTT_OK/GD32VW55X_Wifi_BLE_SDK/GD32VW55x_RELEASE_V1.0.2/MSDK/wpa_supplicant/src/tls\tlsv1_cred.c **** 		return pkcs12_keybag(cred, value, value_len);
 668:C:/Users/stapi/OneDrive/Desktop/GD32VW553/V1_MQTT_OK/GD32VW55X_Wifi_BLE_SDK/GD32VW55x_RELEASE_V1.0.2/MSDK/wpa_supplicant/src/tls\tlsv1_cred.c **** 	if (pkcs12_is_bagtype_oid(&oid, 2))
 669:C:/Users/stapi/OneDrive/Desktop/GD32VW553/V1_MQTT_OK/GD32VW55X_Wifi_BLE_SDK/GD32VW55x_RELEASE_V1.0.2/MSDK/wpa_supplicant/src/tls\tlsv1_cred.c **** 		return pkcs12_pkcs8_keybag(cred, value, value_len, passwd);
 670:C:/Users/stapi/OneDrive/Desktop/GD32VW553/V1_MQTT_OK/GD32VW55X_Wifi_BLE_SDK/GD32VW55x_RELEASE_V1.0.2/MSDK/wpa_supplicant/src/tls\tlsv1_cred.c **** 	if (pkcs12_is_bagtype_oid(&oid, 3))
 671:C:/Users/stapi/OneDrive/Desktop/GD32VW553/V1_MQTT_OK/GD32VW55X_Wifi_BLE_SDK/GD32VW55x_RELEASE_V1.0.2/MSDK/wpa_supplicant/src/tls\tlsv1_cred.c **** 		return pkcs12_certbag(cred, value, value_len);
 672:C:/Users/stapi/OneDrive/Desktop/GD32VW553/V1_MQTT_OK/GD32VW55X_Wifi_BLE_SDK/GD32VW55x_RELEASE_V1.0.2/MSDK/wpa_supplicant/src/tls\tlsv1_cred.c **** 
 673:C:/Users/stapi/OneDrive/Desktop/GD32VW553/V1_MQTT_OK/GD32VW55X_Wifi_BLE_SDK/GD32VW55x_RELEASE_V1.0.2/MSDK/wpa_supplicant/src/tls\tlsv1_cred.c **** 	wpa_printf(MSG_DEBUG, "PKCS #12: Ignore unsupported BAG-TYPE");
 674:C:/Users/stapi/OneDrive/Desktop/GD32VW553/V1_MQTT_OK/GD32VW55X_Wifi_BLE_SDK/GD32VW55x_RELEASE_V1.0.2/MSDK/wpa_supplicant/src/tls\tlsv1_cred.c **** 	return 0;
 675:C:/Users/stapi/OneDrive/Desktop/GD32VW553/V1_MQTT_OK/GD32VW55X_Wifi_BLE_SDK/GD32VW55x_RELEASE_V1.0.2/MSDK/wpa_supplicant/src/tls\tlsv1_cred.c **** }
 676:C:/Users/stapi/OneDrive/Desktop/GD32VW553/V1_MQTT_OK/GD32VW55X_Wifi_BLE_SDK/GD32VW55x_RELEASE_V1.0.2/MSDK/wpa_supplicant/src/tls\tlsv1_cred.c **** 
 677:C:/Users/stapi/OneDrive/Desktop/GD32VW553/V1_MQTT_OK/GD32VW55X_Wifi_BLE_SDK/GD32VW55x_RELEASE_V1.0.2/MSDK/wpa_supplicant/src/tls\tlsv1_cred.c **** 
 678:C:/Users/stapi/OneDrive/Desktop/GD32VW553/V1_MQTT_OK/GD32VW55X_Wifi_BLE_SDK/GD32VW55x_RELEASE_V1.0.2/MSDK/wpa_supplicant/src/tls\tlsv1_cred.c **** static int pkcs12_safecontents(struct tlsv1_credentials *cred,
 679:C:/Users/stapi/OneDrive/Desktop/GD32VW553/V1_MQTT_OK/GD32VW55X_Wifi_BLE_SDK/GD32VW55x_RELEASE_V1.0.2/MSDK/wpa_supplicant/src/tls\tlsv1_cred.c **** 			       const u8 *buf, size_t len,
 680:C:/Users/stapi/OneDrive/Desktop/GD32VW553/V1_MQTT_OK/GD32VW55X_Wifi_BLE_SDK/GD32VW55x_RELEASE_V1.0.2/MSDK/wpa_supplicant/src/tls\tlsv1_cred.c **** 			       const char *passwd)
 681:C:/Users/stapi/OneDrive/Desktop/GD32VW553/V1_MQTT_OK/GD32VW55X_Wifi_BLE_SDK/GD32VW55x_RELEASE_V1.0.2/MSDK/wpa_supplicant/src/tls\tlsv1_cred.c **** {
 682:C:/Users/stapi/OneDrive/Desktop/GD32VW553/V1_MQTT_OK/GD32VW55X_Wifi_BLE_SDK/GD32VW55x_RELEASE_V1.0.2/MSDK/wpa_supplicant/src/tls\tlsv1_cred.c **** 	struct asn1_hdr hdr;
 683:C:/Users/stapi/OneDrive/Desktop/GD32VW553/V1_MQTT_OK/GD32VW55X_Wifi_BLE_SDK/GD32VW55x_RELEASE_V1.0.2/MSDK/wpa_supplicant/src/tls\tlsv1_cred.c **** 	const u8 *pos, *end;
 684:C:/Users/stapi/OneDrive/Desktop/GD32VW553/V1_MQTT_OK/GD32VW55X_Wifi_BLE_SDK/GD32VW55x_RELEASE_V1.0.2/MSDK/wpa_supplicant/src/tls\tlsv1_cred.c **** 
 685:C:/Users/stapi/OneDrive/Desktop/GD32VW553/V1_MQTT_OK/GD32VW55X_Wifi_BLE_SDK/GD32VW55x_RELEASE_V1.0.2/MSDK/wpa_supplicant/src/tls\tlsv1_cred.c **** 	/* SafeContents ::= SEQUENCE OF SafeBag */
 686:C:/Users/stapi/OneDrive/Desktop/GD32VW553/V1_MQTT_OK/GD32VW55X_Wifi_BLE_SDK/GD32VW55x_RELEASE_V1.0.2/MSDK/wpa_supplicant/src/tls\tlsv1_cred.c **** 	if (asn1_get_next(buf, len, &hdr) < 0 || !asn1_is_sequence(&hdr)) {
 687:C:/Users/stapi/OneDrive/Desktop/GD32VW553/V1_MQTT_OK/GD32VW55X_Wifi_BLE_SDK/GD32VW55x_RELEASE_V1.0.2/MSDK/wpa_supplicant/src/tls\tlsv1_cred.c **** 		asn1_unexpected(&hdr,
 688:C:/Users/stapi/OneDrive/Desktop/GD32VW553/V1_MQTT_OK/GD32VW55X_Wifi_BLE_SDK/GD32VW55x_RELEASE_V1.0.2/MSDK/wpa_supplicant/src/tls\tlsv1_cred.c **** 				"PKCS #12: Expected SEQUENCE (SafeContents)");
 689:C:/Users/stapi/OneDrive/Desktop/GD32VW553/V1_MQTT_OK/GD32VW55X_Wifi_BLE_SDK/GD32VW55x_RELEASE_V1.0.2/MSDK/wpa_supplicant/src/tls\tlsv1_cred.c **** 		return -1;
 690:C:/Users/stapi/OneDrive/Desktop/GD32VW553/V1_MQTT_OK/GD32VW55X_Wifi_BLE_SDK/GD32VW55x_RELEASE_V1.0.2/MSDK/wpa_supplicant/src/tls\tlsv1_cred.c **** 	}
 691:C:/Users/stapi/OneDrive/Desktop/GD32VW553/V1_MQTT_OK/GD32VW55X_Wifi_BLE_SDK/GD32VW55x_RELEASE_V1.0.2/MSDK/wpa_supplicant/src/tls\tlsv1_cred.c **** 	pos = hdr.payload;
 692:C:/Users/stapi/OneDrive/Desktop/GD32VW553/V1_MQTT_OK/GD32VW55X_Wifi_BLE_SDK/GD32VW55x_RELEASE_V1.0.2/MSDK/wpa_supplicant/src/tls\tlsv1_cred.c **** 	end = hdr.payload + hdr.length;
 693:C:/Users/stapi/OneDrive/Desktop/GD32VW553/V1_MQTT_OK/GD32VW55X_Wifi_BLE_SDK/GD32VW55x_RELEASE_V1.0.2/MSDK/wpa_supplicant/src/tls\tlsv1_cred.c **** 
 694:C:/Users/stapi/OneDrive/Desktop/GD32VW553/V1_MQTT_OK/GD32VW55X_Wifi_BLE_SDK/GD32VW55x_RELEASE_V1.0.2/MSDK/wpa_supplicant/src/tls\tlsv1_cred.c **** 	/*
 695:C:/Users/stapi/OneDrive/Desktop/GD32VW553/V1_MQTT_OK/GD32VW55X_Wifi_BLE_SDK/GD32VW55x_RELEASE_V1.0.2/MSDK/wpa_supplicant/src/tls\tlsv1_cred.c **** 	 * SafeBag ::= SEQUENCE {
 696:C:/Users/stapi/OneDrive/Desktop/GD32VW553/V1_MQTT_OK/GD32VW55X_Wifi_BLE_SDK/GD32VW55x_RELEASE_V1.0.2/MSDK/wpa_supplicant/src/tls\tlsv1_cred.c **** 	 *   bagId          BAG-TYPE.&id ({PKCS12BagSet})
 697:C:/Users/stapi/OneDrive/Desktop/GD32VW553/V1_MQTT_OK/GD32VW55X_Wifi_BLE_SDK/GD32VW55x_RELEASE_V1.0.2/MSDK/wpa_supplicant/src/tls\tlsv1_cred.c **** 	 *   bagValue       [0] EXPLICIT BAG-TYPE.&Type({PKCS12BagSet}{@bagId}),
 698:C:/Users/stapi/OneDrive/Desktop/GD32VW553/V1_MQTT_OK/GD32VW55X_Wifi_BLE_SDK/GD32VW55x_RELEASE_V1.0.2/MSDK/wpa_supplicant/src/tls\tlsv1_cred.c **** 	 *   bagAttributes  SET OF PKCS12Attribute OPTIONAL
 699:C:/Users/stapi/OneDrive/Desktop/GD32VW553/V1_MQTT_OK/GD32VW55X_Wifi_BLE_SDK/GD32VW55x_RELEASE_V1.0.2/MSDK/wpa_supplicant/src/tls\tlsv1_cred.c **** 	 * }
 700:C:/Users/stapi/OneDrive/Desktop/GD32VW553/V1_MQTT_OK/GD32VW55X_Wifi_BLE_SDK/GD32VW55x_RELEASE_V1.0.2/MSDK/wpa_supplicant/src/tls\tlsv1_cred.c **** 	 */
 701:C:/Users/stapi/OneDrive/Desktop/GD32VW553/V1_MQTT_OK/GD32VW55X_Wifi_BLE_SDK/GD32VW55x_RELEASE_V1.0.2/MSDK/wpa_supplicant/src/tls\tlsv1_cred.c **** 
 702:C:/Users/stapi/OneDrive/Desktop/GD32VW553/V1_MQTT_OK/GD32VW55X_Wifi_BLE_SDK/GD32VW55x_RELEASE_V1.0.2/MSDK/wpa_supplicant/src/tls\tlsv1_cred.c **** 	while (pos < end) {
 703:C:/Users/stapi/OneDrive/Desktop/GD32VW553/V1_MQTT_OK/GD32VW55X_Wifi_BLE_SDK/GD32VW55x_RELEASE_V1.0.2/MSDK/wpa_supplicant/src/tls\tlsv1_cred.c **** 		if (asn1_get_next(pos, end - pos, &hdr) < 0 ||
 704:C:/Users/stapi/OneDrive/Desktop/GD32VW553/V1_MQTT_OK/GD32VW55X_Wifi_BLE_SDK/GD32VW55x_RELEASE_V1.0.2/MSDK/wpa_supplicant/src/tls\tlsv1_cred.c **** 		    !asn1_is_sequence(&hdr)) {
 705:C:/Users/stapi/OneDrive/Desktop/GD32VW553/V1_MQTT_OK/GD32VW55X_Wifi_BLE_SDK/GD32VW55x_RELEASE_V1.0.2/MSDK/wpa_supplicant/src/tls\tlsv1_cred.c **** 			asn1_unexpected(&hdr,
 706:C:/Users/stapi/OneDrive/Desktop/GD32VW553/V1_MQTT_OK/GD32VW55X_Wifi_BLE_SDK/GD32VW55x_RELEASE_V1.0.2/MSDK/wpa_supplicant/src/tls\tlsv1_cred.c **** 					"PKCS #12: Expected SEQUENCE (SafeBag)");
 707:C:/Users/stapi/OneDrive/Desktop/GD32VW553/V1_MQTT_OK/GD32VW55X_Wifi_BLE_SDK/GD32VW55x_RELEASE_V1.0.2/MSDK/wpa_supplicant/src/tls\tlsv1_cred.c **** 			return -1;
 708:C:/Users/stapi/OneDrive/Desktop/GD32VW553/V1_MQTT_OK/GD32VW55X_Wifi_BLE_SDK/GD32VW55x_RELEASE_V1.0.2/MSDK/wpa_supplicant/src/tls\tlsv1_cred.c **** 		}
 709:C:/Users/stapi/OneDrive/Desktop/GD32VW553/V1_MQTT_OK/GD32VW55X_Wifi_BLE_SDK/GD32VW55x_RELEASE_V1.0.2/MSDK/wpa_supplicant/src/tls\tlsv1_cred.c **** 		if (pkcs12_safebag(cred, hdr.payload, hdr.length, passwd) < 0)
 710:C:/Users/stapi/OneDrive/Desktop/GD32VW553/V1_MQTT_OK/GD32VW55X_Wifi_BLE_SDK/GD32VW55x_RELEASE_V1.0.2/MSDK/wpa_supplicant/src/tls\tlsv1_cred.c **** 			return -1;
 711:C:/Users/stapi/OneDrive/Desktop/GD32VW553/V1_MQTT_OK/GD32VW55X_Wifi_BLE_SDK/GD32VW55x_RELEASE_V1.0.2/MSDK/wpa_supplicant/src/tls\tlsv1_cred.c **** 		pos = hdr.payload + hdr.length;
 712:C:/Users/stapi/OneDrive/Desktop/GD32VW553/V1_MQTT_OK/GD32VW55X_Wifi_BLE_SDK/GD32VW55x_RELEASE_V1.0.2/MSDK/wpa_supplicant/src/tls\tlsv1_cred.c **** 	}
 713:C:/Users/stapi/OneDrive/Desktop/GD32VW553/V1_MQTT_OK/GD32VW55X_Wifi_BLE_SDK/GD32VW55x_RELEASE_V1.0.2/MSDK/wpa_supplicant/src/tls\tlsv1_cred.c **** 
 714:C:/Users/stapi/OneDrive/Desktop/GD32VW553/V1_MQTT_OK/GD32VW55X_Wifi_BLE_SDK/GD32VW55x_RELEASE_V1.0.2/MSDK/wpa_supplicant/src/tls\tlsv1_cred.c **** 	return 0;
 715:C:/Users/stapi/OneDrive/Desktop/GD32VW553/V1_MQTT_OK/GD32VW55X_Wifi_BLE_SDK/GD32VW55x_RELEASE_V1.0.2/MSDK/wpa_supplicant/src/tls\tlsv1_cred.c **** }
 716:C:/Users/stapi/OneDrive/Desktop/GD32VW553/V1_MQTT_OK/GD32VW55X_Wifi_BLE_SDK/GD32VW55x_RELEASE_V1.0.2/MSDK/wpa_supplicant/src/tls\tlsv1_cred.c **** 
 717:C:/Users/stapi/OneDrive/Desktop/GD32VW553/V1_MQTT_OK/GD32VW55X_Wifi_BLE_SDK/GD32VW55x_RELEASE_V1.0.2/MSDK/wpa_supplicant/src/tls\tlsv1_cred.c **** 
 718:C:/Users/stapi/OneDrive/Desktop/GD32VW553/V1_MQTT_OK/GD32VW55X_Wifi_BLE_SDK/GD32VW55x_RELEASE_V1.0.2/MSDK/wpa_supplicant/src/tls\tlsv1_cred.c **** static int pkcs12_parse_content_data(struct tlsv1_credentials *cred,
 719:C:/Users/stapi/OneDrive/Desktop/GD32VW553/V1_MQTT_OK/GD32VW55X_Wifi_BLE_SDK/GD32VW55x_RELEASE_V1.0.2/MSDK/wpa_supplicant/src/tls\tlsv1_cred.c **** 				     const u8 *pos, const u8 *end,
 720:C:/Users/stapi/OneDrive/Desktop/GD32VW553/V1_MQTT_OK/GD32VW55X_Wifi_BLE_SDK/GD32VW55x_RELEASE_V1.0.2/MSDK/wpa_supplicant/src/tls\tlsv1_cred.c **** 				     const char *passwd)
 721:C:/Users/stapi/OneDrive/Desktop/GD32VW553/V1_MQTT_OK/GD32VW55X_Wifi_BLE_SDK/GD32VW55x_RELEASE_V1.0.2/MSDK/wpa_supplicant/src/tls\tlsv1_cred.c **** {
 722:C:/Users/stapi/OneDrive/Desktop/GD32VW553/V1_MQTT_OK/GD32VW55X_Wifi_BLE_SDK/GD32VW55x_RELEASE_V1.0.2/MSDK/wpa_supplicant/src/tls\tlsv1_cred.c **** 	struct asn1_hdr hdr;
 723:C:/Users/stapi/OneDrive/Desktop/GD32VW553/V1_MQTT_OK/GD32VW55X_Wifi_BLE_SDK/GD32VW55x_RELEASE_V1.0.2/MSDK/wpa_supplicant/src/tls\tlsv1_cred.c **** 
 724:C:/Users/stapi/OneDrive/Desktop/GD32VW553/V1_MQTT_OK/GD32VW55X_Wifi_BLE_SDK/GD32VW55x_RELEASE_V1.0.2/MSDK/wpa_supplicant/src/tls\tlsv1_cred.c **** 	/* Data ::= OCTET STRING */
 725:C:/Users/stapi/OneDrive/Desktop/GD32VW553/V1_MQTT_OK/GD32VW55X_Wifi_BLE_SDK/GD32VW55x_RELEASE_V1.0.2/MSDK/wpa_supplicant/src/tls\tlsv1_cred.c **** 	if (asn1_get_next(pos, end - pos, &hdr) < 0 ||
 726:C:/Users/stapi/OneDrive/Desktop/GD32VW553/V1_MQTT_OK/GD32VW55X_Wifi_BLE_SDK/GD32VW55x_RELEASE_V1.0.2/MSDK/wpa_supplicant/src/tls\tlsv1_cred.c **** 	    !asn1_is_octetstring(&hdr)) {
 727:C:/Users/stapi/OneDrive/Desktop/GD32VW553/V1_MQTT_OK/GD32VW55X_Wifi_BLE_SDK/GD32VW55x_RELEASE_V1.0.2/MSDK/wpa_supplicant/src/tls\tlsv1_cred.c **** 		asn1_unexpected(&hdr, "PKCS #12: Expected OCTET STRING (Data)");
 728:C:/Users/stapi/OneDrive/Desktop/GD32VW553/V1_MQTT_OK/GD32VW55X_Wifi_BLE_SDK/GD32VW55x_RELEASE_V1.0.2/MSDK/wpa_supplicant/src/tls\tlsv1_cred.c **** 		return -1;
 729:C:/Users/stapi/OneDrive/Desktop/GD32VW553/V1_MQTT_OK/GD32VW55X_Wifi_BLE_SDK/GD32VW55x_RELEASE_V1.0.2/MSDK/wpa_supplicant/src/tls\tlsv1_cred.c **** 	}
 730:C:/Users/stapi/OneDrive/Desktop/GD32VW553/V1_MQTT_OK/GD32VW55X_Wifi_BLE_SDK/GD32VW55x_RELEASE_V1.0.2/MSDK/wpa_supplicant/src/tls\tlsv1_cred.c **** 
 731:C:/Users/stapi/OneDrive/Desktop/GD32VW553/V1_MQTT_OK/GD32VW55X_Wifi_BLE_SDK/GD32VW55x_RELEASE_V1.0.2/MSDK/wpa_supplicant/src/tls\tlsv1_cred.c **** 	wpa_hexdump(MSG_MSGDUMP, "PKCS #12: Data", hdr.payload, hdr.length);
 732:C:/Users/stapi/OneDrive/Desktop/GD32VW553/V1_MQTT_OK/GD32VW55X_Wifi_BLE_SDK/GD32VW55x_RELEASE_V1.0.2/MSDK/wpa_supplicant/src/tls\tlsv1_cred.c **** 
 733:C:/Users/stapi/OneDrive/Desktop/GD32VW553/V1_MQTT_OK/GD32VW55X_Wifi_BLE_SDK/GD32VW55x_RELEASE_V1.0.2/MSDK/wpa_supplicant/src/tls\tlsv1_cred.c **** 	return pkcs12_safecontents(cred, hdr.payload, hdr.length, passwd);
 734:C:/Users/stapi/OneDrive/Desktop/GD32VW553/V1_MQTT_OK/GD32VW55X_Wifi_BLE_SDK/GD32VW55x_RELEASE_V1.0.2/MSDK/wpa_supplicant/src/tls\tlsv1_cred.c **** }
 735:C:/Users/stapi/OneDrive/Desktop/GD32VW553/V1_MQTT_OK/GD32VW55X_Wifi_BLE_SDK/GD32VW55x_RELEASE_V1.0.2/MSDK/wpa_supplicant/src/tls\tlsv1_cred.c **** 
 736:C:/Users/stapi/OneDrive/Desktop/GD32VW553/V1_MQTT_OK/GD32VW55X_Wifi_BLE_SDK/GD32VW55x_RELEASE_V1.0.2/MSDK/wpa_supplicant/src/tls\tlsv1_cred.c **** 
 737:C:/Users/stapi/OneDrive/Desktop/GD32VW553/V1_MQTT_OK/GD32VW55X_Wifi_BLE_SDK/GD32VW55x_RELEASE_V1.0.2/MSDK/wpa_supplicant/src/tls\tlsv1_cred.c **** static int pkcs12_parse_content_enc_data(struct tlsv1_credentials *cred,
 738:C:/Users/stapi/OneDrive/Desktop/GD32VW553/V1_MQTT_OK/GD32VW55X_Wifi_BLE_SDK/GD32VW55x_RELEASE_V1.0.2/MSDK/wpa_supplicant/src/tls\tlsv1_cred.c **** 					 const u8 *pos, const u8 *end,
 739:C:/Users/stapi/OneDrive/Desktop/GD32VW553/V1_MQTT_OK/GD32VW55X_Wifi_BLE_SDK/GD32VW55x_RELEASE_V1.0.2/MSDK/wpa_supplicant/src/tls\tlsv1_cred.c **** 					 const char *passwd)
 740:C:/Users/stapi/OneDrive/Desktop/GD32VW553/V1_MQTT_OK/GD32VW55X_Wifi_BLE_SDK/GD32VW55x_RELEASE_V1.0.2/MSDK/wpa_supplicant/src/tls\tlsv1_cred.c **** {
 741:C:/Users/stapi/OneDrive/Desktop/GD32VW553/V1_MQTT_OK/GD32VW55X_Wifi_BLE_SDK/GD32VW55x_RELEASE_V1.0.2/MSDK/wpa_supplicant/src/tls\tlsv1_cred.c **** 	struct asn1_hdr hdr;
 742:C:/Users/stapi/OneDrive/Desktop/GD32VW553/V1_MQTT_OK/GD32VW55X_Wifi_BLE_SDK/GD32VW55x_RELEASE_V1.0.2/MSDK/wpa_supplicant/src/tls\tlsv1_cred.c **** 	struct asn1_oid oid;
 743:C:/Users/stapi/OneDrive/Desktop/GD32VW553/V1_MQTT_OK/GD32VW55X_Wifi_BLE_SDK/GD32VW55x_RELEASE_V1.0.2/MSDK/wpa_supplicant/src/tls\tlsv1_cred.c **** 	char buf[80];
 744:C:/Users/stapi/OneDrive/Desktop/GD32VW553/V1_MQTT_OK/GD32VW55X_Wifi_BLE_SDK/GD32VW55x_RELEASE_V1.0.2/MSDK/wpa_supplicant/src/tls\tlsv1_cred.c **** 	const u8 *enc_alg;
 745:C:/Users/stapi/OneDrive/Desktop/GD32VW553/V1_MQTT_OK/GD32VW55X_Wifi_BLE_SDK/GD32VW55x_RELEASE_V1.0.2/MSDK/wpa_supplicant/src/tls\tlsv1_cred.c **** 	u8 *data;
 746:C:/Users/stapi/OneDrive/Desktop/GD32VW553/V1_MQTT_OK/GD32VW55X_Wifi_BLE_SDK/GD32VW55x_RELEASE_V1.0.2/MSDK/wpa_supplicant/src/tls\tlsv1_cred.c **** 	size_t enc_alg_len, data_len;
 747:C:/Users/stapi/OneDrive/Desktop/GD32VW553/V1_MQTT_OK/GD32VW55X_Wifi_BLE_SDK/GD32VW55x_RELEASE_V1.0.2/MSDK/wpa_supplicant/src/tls\tlsv1_cred.c **** 	int res = -1;
 748:C:/Users/stapi/OneDrive/Desktop/GD32VW553/V1_MQTT_OK/GD32VW55X_Wifi_BLE_SDK/GD32VW55x_RELEASE_V1.0.2/MSDK/wpa_supplicant/src/tls\tlsv1_cred.c **** 
 749:C:/Users/stapi/OneDrive/Desktop/GD32VW553/V1_MQTT_OK/GD32VW55X_Wifi_BLE_SDK/GD32VW55x_RELEASE_V1.0.2/MSDK/wpa_supplicant/src/tls\tlsv1_cred.c **** 	/*
 750:C:/Users/stapi/OneDrive/Desktop/GD32VW553/V1_MQTT_OK/GD32VW55X_Wifi_BLE_SDK/GD32VW55x_RELEASE_V1.0.2/MSDK/wpa_supplicant/src/tls\tlsv1_cred.c **** 	 * EncryptedData ::= SEQUENCE {
 751:C:/Users/stapi/OneDrive/Desktop/GD32VW553/V1_MQTT_OK/GD32VW55X_Wifi_BLE_SDK/GD32VW55x_RELEASE_V1.0.2/MSDK/wpa_supplicant/src/tls\tlsv1_cred.c **** 	 *   version Version,
 752:C:/Users/stapi/OneDrive/Desktop/GD32VW553/V1_MQTT_OK/GD32VW55X_Wifi_BLE_SDK/GD32VW55x_RELEASE_V1.0.2/MSDK/wpa_supplicant/src/tls\tlsv1_cred.c **** 	 *   encryptedContentInfo EncryptedContentInfo }
 753:C:/Users/stapi/OneDrive/Desktop/GD32VW553/V1_MQTT_OK/GD32VW55X_Wifi_BLE_SDK/GD32VW55x_RELEASE_V1.0.2/MSDK/wpa_supplicant/src/tls\tlsv1_cred.c **** 	 */
 754:C:/Users/stapi/OneDrive/Desktop/GD32VW553/V1_MQTT_OK/GD32VW55X_Wifi_BLE_SDK/GD32VW55x_RELEASE_V1.0.2/MSDK/wpa_supplicant/src/tls\tlsv1_cred.c **** 	if (asn1_get_next(pos, end - pos, &hdr) < 0 ||
 755:C:/Users/stapi/OneDrive/Desktop/GD32VW553/V1_MQTT_OK/GD32VW55X_Wifi_BLE_SDK/GD32VW55x_RELEASE_V1.0.2/MSDK/wpa_supplicant/src/tls\tlsv1_cred.c **** 	    !asn1_is_sequence(&hdr)) {
 756:C:/Users/stapi/OneDrive/Desktop/GD32VW553/V1_MQTT_OK/GD32VW55X_Wifi_BLE_SDK/GD32VW55x_RELEASE_V1.0.2/MSDK/wpa_supplicant/src/tls\tlsv1_cred.c **** 		asn1_unexpected(&hdr,
 757:C:/Users/stapi/OneDrive/Desktop/GD32VW553/V1_MQTT_OK/GD32VW55X_Wifi_BLE_SDK/GD32VW55x_RELEASE_V1.0.2/MSDK/wpa_supplicant/src/tls\tlsv1_cred.c **** 				"PKCS #12: Expected SEQUENCE (EncryptedData)");
 758:C:/Users/stapi/OneDrive/Desktop/GD32VW553/V1_MQTT_OK/GD32VW55X_Wifi_BLE_SDK/GD32VW55x_RELEASE_V1.0.2/MSDK/wpa_supplicant/src/tls\tlsv1_cred.c **** 		return 0;
 759:C:/Users/stapi/OneDrive/Desktop/GD32VW553/V1_MQTT_OK/GD32VW55X_Wifi_BLE_SDK/GD32VW55x_RELEASE_V1.0.2/MSDK/wpa_supplicant/src/tls\tlsv1_cred.c **** 	}
 760:C:/Users/stapi/OneDrive/Desktop/GD32VW553/V1_MQTT_OK/GD32VW55X_Wifi_BLE_SDK/GD32VW55x_RELEASE_V1.0.2/MSDK/wpa_supplicant/src/tls\tlsv1_cred.c **** 	pos = hdr.payload;
 761:C:/Users/stapi/OneDrive/Desktop/GD32VW553/V1_MQTT_OK/GD32VW55X_Wifi_BLE_SDK/GD32VW55x_RELEASE_V1.0.2/MSDK/wpa_supplicant/src/tls\tlsv1_cred.c **** 
 762:C:/Users/stapi/OneDrive/Desktop/GD32VW553/V1_MQTT_OK/GD32VW55X_Wifi_BLE_SDK/GD32VW55x_RELEASE_V1.0.2/MSDK/wpa_supplicant/src/tls\tlsv1_cred.c **** 	/* Version ::= INTEGER */
 763:C:/Users/stapi/OneDrive/Desktop/GD32VW553/V1_MQTT_OK/GD32VW55X_Wifi_BLE_SDK/GD32VW55x_RELEASE_V1.0.2/MSDK/wpa_supplicant/src/tls\tlsv1_cred.c **** 	if (asn1_get_next(pos, end - pos, &hdr) < 0 || !asn1_is_integer(&hdr)) {
 764:C:/Users/stapi/OneDrive/Desktop/GD32VW553/V1_MQTT_OK/GD32VW55X_Wifi_BLE_SDK/GD32VW55x_RELEASE_V1.0.2/MSDK/wpa_supplicant/src/tls\tlsv1_cred.c **** 		asn1_unexpected(&hdr,
 765:C:/Users/stapi/OneDrive/Desktop/GD32VW553/V1_MQTT_OK/GD32VW55X_Wifi_BLE_SDK/GD32VW55x_RELEASE_V1.0.2/MSDK/wpa_supplicant/src/tls\tlsv1_cred.c **** 				"PKCS #12: No INTEGER tag found for version");
 766:C:/Users/stapi/OneDrive/Desktop/GD32VW553/V1_MQTT_OK/GD32VW55X_Wifi_BLE_SDK/GD32VW55x_RELEASE_V1.0.2/MSDK/wpa_supplicant/src/tls\tlsv1_cred.c **** 		return -1;
 767:C:/Users/stapi/OneDrive/Desktop/GD32VW553/V1_MQTT_OK/GD32VW55X_Wifi_BLE_SDK/GD32VW55x_RELEASE_V1.0.2/MSDK/wpa_supplicant/src/tls\tlsv1_cred.c **** 	}
 768:C:/Users/stapi/OneDrive/Desktop/GD32VW553/V1_MQTT_OK/GD32VW55X_Wifi_BLE_SDK/GD32VW55x_RELEASE_V1.0.2/MSDK/wpa_supplicant/src/tls\tlsv1_cred.c **** 	if (hdr.length != 1 || hdr.payload[0] != 0) {
 769:C:/Users/stapi/OneDrive/Desktop/GD32VW553/V1_MQTT_OK/GD32VW55X_Wifi_BLE_SDK/GD32VW55x_RELEASE_V1.0.2/MSDK/wpa_supplicant/src/tls\tlsv1_cred.c **** 		wpa_printf(MSG_DEBUG, "PKCS #12: Unrecognized PKCS #7 version");
 770:C:/Users/stapi/OneDrive/Desktop/GD32VW553/V1_MQTT_OK/GD32VW55X_Wifi_BLE_SDK/GD32VW55x_RELEASE_V1.0.2/MSDK/wpa_supplicant/src/tls\tlsv1_cred.c **** 		return -1;
 771:C:/Users/stapi/OneDrive/Desktop/GD32VW553/V1_MQTT_OK/GD32VW55X_Wifi_BLE_SDK/GD32VW55x_RELEASE_V1.0.2/MSDK/wpa_supplicant/src/tls\tlsv1_cred.c **** 	}
 772:C:/Users/stapi/OneDrive/Desktop/GD32VW553/V1_MQTT_OK/GD32VW55X_Wifi_BLE_SDK/GD32VW55x_RELEASE_V1.0.2/MSDK/wpa_supplicant/src/tls\tlsv1_cred.c **** 	pos = hdr.payload + hdr.length;
 773:C:/Users/stapi/OneDrive/Desktop/GD32VW553/V1_MQTT_OK/GD32VW55X_Wifi_BLE_SDK/GD32VW55x_RELEASE_V1.0.2/MSDK/wpa_supplicant/src/tls\tlsv1_cred.c **** 
 774:C:/Users/stapi/OneDrive/Desktop/GD32VW553/V1_MQTT_OK/GD32VW55X_Wifi_BLE_SDK/GD32VW55x_RELEASE_V1.0.2/MSDK/wpa_supplicant/src/tls\tlsv1_cred.c **** 	wpa_hexdump(MSG_MSGDUMP, "PKCS #12: EncryptedContentInfo",
 775:C:/Users/stapi/OneDrive/Desktop/GD32VW553/V1_MQTT_OK/GD32VW55X_Wifi_BLE_SDK/GD32VW55x_RELEASE_V1.0.2/MSDK/wpa_supplicant/src/tls\tlsv1_cred.c **** 		    pos, end - pos);
 776:C:/Users/stapi/OneDrive/Desktop/GD32VW553/V1_MQTT_OK/GD32VW55X_Wifi_BLE_SDK/GD32VW55x_RELEASE_V1.0.2/MSDK/wpa_supplicant/src/tls\tlsv1_cred.c **** 
 777:C:/Users/stapi/OneDrive/Desktop/GD32VW553/V1_MQTT_OK/GD32VW55X_Wifi_BLE_SDK/GD32VW55x_RELEASE_V1.0.2/MSDK/wpa_supplicant/src/tls\tlsv1_cred.c **** 	/*
 778:C:/Users/stapi/OneDrive/Desktop/GD32VW553/V1_MQTT_OK/GD32VW55X_Wifi_BLE_SDK/GD32VW55x_RELEASE_V1.0.2/MSDK/wpa_supplicant/src/tls\tlsv1_cred.c **** 	 * EncryptedContentInfo ::= SEQUENCE {
 779:C:/Users/stapi/OneDrive/Desktop/GD32VW553/V1_MQTT_OK/GD32VW55X_Wifi_BLE_SDK/GD32VW55x_RELEASE_V1.0.2/MSDK/wpa_supplicant/src/tls\tlsv1_cred.c **** 	 *   contentType ContentType,
 780:C:/Users/stapi/OneDrive/Desktop/GD32VW553/V1_MQTT_OK/GD32VW55X_Wifi_BLE_SDK/GD32VW55x_RELEASE_V1.0.2/MSDK/wpa_supplicant/src/tls\tlsv1_cred.c **** 	 *   contentEncryptionAlgorithm ContentEncryptionAlgorithmIdentifier,
 781:C:/Users/stapi/OneDrive/Desktop/GD32VW553/V1_MQTT_OK/GD32VW55X_Wifi_BLE_SDK/GD32VW55x_RELEASE_V1.0.2/MSDK/wpa_supplicant/src/tls\tlsv1_cred.c **** 	 *   encryptedContent [0] IMPLICIT EncryptedContent OPTIONAL }
 782:C:/Users/stapi/OneDrive/Desktop/GD32VW553/V1_MQTT_OK/GD32VW55X_Wifi_BLE_SDK/GD32VW55x_RELEASE_V1.0.2/MSDK/wpa_supplicant/src/tls\tlsv1_cred.c **** 	 */
 783:C:/Users/stapi/OneDrive/Desktop/GD32VW553/V1_MQTT_OK/GD32VW55X_Wifi_BLE_SDK/GD32VW55x_RELEASE_V1.0.2/MSDK/wpa_supplicant/src/tls\tlsv1_cred.c **** 	if (asn1_get_next(pos, end - pos, &hdr) < 0 ||
 784:C:/Users/stapi/OneDrive/Desktop/GD32VW553/V1_MQTT_OK/GD32VW55X_Wifi_BLE_SDK/GD32VW55x_RELEASE_V1.0.2/MSDK/wpa_supplicant/src/tls\tlsv1_cred.c **** 	    !asn1_is_sequence(&hdr)) {
 785:C:/Users/stapi/OneDrive/Desktop/GD32VW553/V1_MQTT_OK/GD32VW55X_Wifi_BLE_SDK/GD32VW55x_RELEASE_V1.0.2/MSDK/wpa_supplicant/src/tls\tlsv1_cred.c **** 		asn1_unexpected(&hdr,
 786:C:/Users/stapi/OneDrive/Desktop/GD32VW553/V1_MQTT_OK/GD32VW55X_Wifi_BLE_SDK/GD32VW55x_RELEASE_V1.0.2/MSDK/wpa_supplicant/src/tls\tlsv1_cred.c **** 				"PKCS #12: Expected SEQUENCE (EncryptedContentInfo)");
 787:C:/Users/stapi/OneDrive/Desktop/GD32VW553/V1_MQTT_OK/GD32VW55X_Wifi_BLE_SDK/GD32VW55x_RELEASE_V1.0.2/MSDK/wpa_supplicant/src/tls\tlsv1_cred.c **** 		return -1;
 788:C:/Users/stapi/OneDrive/Desktop/GD32VW553/V1_MQTT_OK/GD32VW55X_Wifi_BLE_SDK/GD32VW55x_RELEASE_V1.0.2/MSDK/wpa_supplicant/src/tls\tlsv1_cred.c **** 	}
 789:C:/Users/stapi/OneDrive/Desktop/GD32VW553/V1_MQTT_OK/GD32VW55X_Wifi_BLE_SDK/GD32VW55x_RELEASE_V1.0.2/MSDK/wpa_supplicant/src/tls\tlsv1_cred.c **** 
 790:C:/Users/stapi/OneDrive/Desktop/GD32VW553/V1_MQTT_OK/GD32VW55X_Wifi_BLE_SDK/GD32VW55x_RELEASE_V1.0.2/MSDK/wpa_supplicant/src/tls\tlsv1_cred.c **** 	pos = hdr.payload;
 791:C:/Users/stapi/OneDrive/Desktop/GD32VW553/V1_MQTT_OK/GD32VW55X_Wifi_BLE_SDK/GD32VW55x_RELEASE_V1.0.2/MSDK/wpa_supplicant/src/tls\tlsv1_cred.c **** 	end = pos + hdr.length;
 792:C:/Users/stapi/OneDrive/Desktop/GD32VW553/V1_MQTT_OK/GD32VW55X_Wifi_BLE_SDK/GD32VW55x_RELEASE_V1.0.2/MSDK/wpa_supplicant/src/tls\tlsv1_cred.c **** 
 793:C:/Users/stapi/OneDrive/Desktop/GD32VW553/V1_MQTT_OK/GD32VW55X_Wifi_BLE_SDK/GD32VW55x_RELEASE_V1.0.2/MSDK/wpa_supplicant/src/tls\tlsv1_cred.c **** 	/* ContentType ::= OBJECT IDENTIFIER */
 794:C:/Users/stapi/OneDrive/Desktop/GD32VW553/V1_MQTT_OK/GD32VW55X_Wifi_BLE_SDK/GD32VW55x_RELEASE_V1.0.2/MSDK/wpa_supplicant/src/tls\tlsv1_cred.c **** 	if (asn1_get_oid(pos, end - pos, &oid, &pos)) {
 795:C:/Users/stapi/OneDrive/Desktop/GD32VW553/V1_MQTT_OK/GD32VW55X_Wifi_BLE_SDK/GD32VW55x_RELEASE_V1.0.2/MSDK/wpa_supplicant/src/tls\tlsv1_cred.c **** 		wpa_printf(MSG_DEBUG,
 796:C:/Users/stapi/OneDrive/Desktop/GD32VW553/V1_MQTT_OK/GD32VW55X_Wifi_BLE_SDK/GD32VW55x_RELEASE_V1.0.2/MSDK/wpa_supplicant/src/tls\tlsv1_cred.c **** 			   "PKCS #12: Could not find OBJECT IDENTIFIER (contentType)");
 797:C:/Users/stapi/OneDrive/Desktop/GD32VW553/V1_MQTT_OK/GD32VW55X_Wifi_BLE_SDK/GD32VW55x_RELEASE_V1.0.2/MSDK/wpa_supplicant/src/tls\tlsv1_cred.c **** 		return -1;
 798:C:/Users/stapi/OneDrive/Desktop/GD32VW553/V1_MQTT_OK/GD32VW55X_Wifi_BLE_SDK/GD32VW55x_RELEASE_V1.0.2/MSDK/wpa_supplicant/src/tls\tlsv1_cred.c **** 	}
 799:C:/Users/stapi/OneDrive/Desktop/GD32VW553/V1_MQTT_OK/GD32VW55X_Wifi_BLE_SDK/GD32VW55x_RELEASE_V1.0.2/MSDK/wpa_supplicant/src/tls\tlsv1_cred.c **** 	asn1_oid_to_str(&oid, buf, sizeof(buf));
 800:C:/Users/stapi/OneDrive/Desktop/GD32VW553/V1_MQTT_OK/GD32VW55X_Wifi_BLE_SDK/GD32VW55x_RELEASE_V1.0.2/MSDK/wpa_supplicant/src/tls\tlsv1_cred.c **** 	wpa_printf(MSG_DEBUG, "PKCS #12: EncryptedContentInfo::contentType %s",
 801:C:/Users/stapi/OneDrive/Desktop/GD32VW553/V1_MQTT_OK/GD32VW55X_Wifi_BLE_SDK/GD32VW55x_RELEASE_V1.0.2/MSDK/wpa_supplicant/src/tls\tlsv1_cred.c **** 		   buf);
 802:C:/Users/stapi/OneDrive/Desktop/GD32VW553/V1_MQTT_OK/GD32VW55X_Wifi_BLE_SDK/GD32VW55x_RELEASE_V1.0.2/MSDK/wpa_supplicant/src/tls\tlsv1_cred.c **** 
 803:C:/Users/stapi/OneDrive/Desktop/GD32VW553/V1_MQTT_OK/GD32VW55X_Wifi_BLE_SDK/GD32VW55x_RELEASE_V1.0.2/MSDK/wpa_supplicant/src/tls\tlsv1_cred.c **** 	if (!is_oid_pkcs7_data(&oid)) {
 804:C:/Users/stapi/OneDrive/Desktop/GD32VW553/V1_MQTT_OK/GD32VW55X_Wifi_BLE_SDK/GD32VW55x_RELEASE_V1.0.2/MSDK/wpa_supplicant/src/tls\tlsv1_cred.c **** 		wpa_printf(MSG_DEBUG,
 805:C:/Users/stapi/OneDrive/Desktop/GD32VW553/V1_MQTT_OK/GD32VW55X_Wifi_BLE_SDK/GD32VW55x_RELEASE_V1.0.2/MSDK/wpa_supplicant/src/tls\tlsv1_cred.c **** 			   "PKCS #12: Unsupported EncryptedContentInfo::contentType %s",
 806:C:/Users/stapi/OneDrive/Desktop/GD32VW553/V1_MQTT_OK/GD32VW55X_Wifi_BLE_SDK/GD32VW55x_RELEASE_V1.0.2/MSDK/wpa_supplicant/src/tls\tlsv1_cred.c **** 			   buf);
 807:C:/Users/stapi/OneDrive/Desktop/GD32VW553/V1_MQTT_OK/GD32VW55X_Wifi_BLE_SDK/GD32VW55x_RELEASE_V1.0.2/MSDK/wpa_supplicant/src/tls\tlsv1_cred.c **** 		return 0;
 808:C:/Users/stapi/OneDrive/Desktop/GD32VW553/V1_MQTT_OK/GD32VW55X_Wifi_BLE_SDK/GD32VW55x_RELEASE_V1.0.2/MSDK/wpa_supplicant/src/tls\tlsv1_cred.c **** 	}
 809:C:/Users/stapi/OneDrive/Desktop/GD32VW553/V1_MQTT_OK/GD32VW55X_Wifi_BLE_SDK/GD32VW55x_RELEASE_V1.0.2/MSDK/wpa_supplicant/src/tls\tlsv1_cred.c **** 
 810:C:/Users/stapi/OneDrive/Desktop/GD32VW553/V1_MQTT_OK/GD32VW55X_Wifi_BLE_SDK/GD32VW55x_RELEASE_V1.0.2/MSDK/wpa_supplicant/src/tls\tlsv1_cred.c **** 	/* ContentEncryptionAlgorithmIdentifier ::= AlgorithmIdentifier */
 811:C:/Users/stapi/OneDrive/Desktop/GD32VW553/V1_MQTT_OK/GD32VW55X_Wifi_BLE_SDK/GD32VW55x_RELEASE_V1.0.2/MSDK/wpa_supplicant/src/tls\tlsv1_cred.c **** 	if (asn1_get_next(pos, end - pos, &hdr) < 0 ||
 812:C:/Users/stapi/OneDrive/Desktop/GD32VW553/V1_MQTT_OK/GD32VW55X_Wifi_BLE_SDK/GD32VW55x_RELEASE_V1.0.2/MSDK/wpa_supplicant/src/tls\tlsv1_cred.c **** 	    !asn1_is_sequence(&hdr)) {
 813:C:/Users/stapi/OneDrive/Desktop/GD32VW553/V1_MQTT_OK/GD32VW55X_Wifi_BLE_SDK/GD32VW55x_RELEASE_V1.0.2/MSDK/wpa_supplicant/src/tls\tlsv1_cred.c **** 		asn1_unexpected(&hdr,
 814:C:/Users/stapi/OneDrive/Desktop/GD32VW553/V1_MQTT_OK/GD32VW55X_Wifi_BLE_SDK/GD32VW55x_RELEASE_V1.0.2/MSDK/wpa_supplicant/src/tls\tlsv1_cred.c **** 				"PKCS #12: Expected SEQUENCE (ContentEncryptionAlgorithmIdentifier)");
 815:C:/Users/stapi/OneDrive/Desktop/GD32VW553/V1_MQTT_OK/GD32VW55X_Wifi_BLE_SDK/GD32VW55x_RELEASE_V1.0.2/MSDK/wpa_supplicant/src/tls\tlsv1_cred.c **** 		return -1;
 816:C:/Users/stapi/OneDrive/Desktop/GD32VW553/V1_MQTT_OK/GD32VW55X_Wifi_BLE_SDK/GD32VW55x_RELEASE_V1.0.2/MSDK/wpa_supplicant/src/tls\tlsv1_cred.c **** 	}
 817:C:/Users/stapi/OneDrive/Desktop/GD32VW553/V1_MQTT_OK/GD32VW55X_Wifi_BLE_SDK/GD32VW55x_RELEASE_V1.0.2/MSDK/wpa_supplicant/src/tls\tlsv1_cred.c **** 	enc_alg = hdr.payload;
 818:C:/Users/stapi/OneDrive/Desktop/GD32VW553/V1_MQTT_OK/GD32VW55X_Wifi_BLE_SDK/GD32VW55x_RELEASE_V1.0.2/MSDK/wpa_supplicant/src/tls\tlsv1_cred.c **** 	enc_alg_len = hdr.length;
 819:C:/Users/stapi/OneDrive/Desktop/GD32VW553/V1_MQTT_OK/GD32VW55X_Wifi_BLE_SDK/GD32VW55x_RELEASE_V1.0.2/MSDK/wpa_supplicant/src/tls\tlsv1_cred.c **** 	pos = hdr.payload + hdr.length;
 820:C:/Users/stapi/OneDrive/Desktop/GD32VW553/V1_MQTT_OK/GD32VW55X_Wifi_BLE_SDK/GD32VW55x_RELEASE_V1.0.2/MSDK/wpa_supplicant/src/tls\tlsv1_cred.c **** 
 821:C:/Users/stapi/OneDrive/Desktop/GD32VW553/V1_MQTT_OK/GD32VW55X_Wifi_BLE_SDK/GD32VW55x_RELEASE_V1.0.2/MSDK/wpa_supplicant/src/tls\tlsv1_cred.c **** 	if (asn1_get_next(pos, end - pos, &hdr) < 0 || hdr.constructed ||
 822:C:/Users/stapi/OneDrive/Desktop/GD32VW553/V1_MQTT_OK/GD32VW55X_Wifi_BLE_SDK/GD32VW55x_RELEASE_V1.0.2/MSDK/wpa_supplicant/src/tls\tlsv1_cred.c **** 	    !asn1_is_cs_tag(&hdr, 0)) {
 823:C:/Users/stapi/OneDrive/Desktop/GD32VW553/V1_MQTT_OK/GD32VW55X_Wifi_BLE_SDK/GD32VW55x_RELEASE_V1.0.2/MSDK/wpa_supplicant/src/tls\tlsv1_cred.c **** 		asn1_unexpected(&hdr,
 824:C:/Users/stapi/OneDrive/Desktop/GD32VW553/V1_MQTT_OK/GD32VW55X_Wifi_BLE_SDK/GD32VW55x_RELEASE_V1.0.2/MSDK/wpa_supplicant/src/tls\tlsv1_cred.c **** 				"PKCS #12: Expected [0] IMPLICIT (encryptedContent)");
 825:C:/Users/stapi/OneDrive/Desktop/GD32VW553/V1_MQTT_OK/GD32VW55X_Wifi_BLE_SDK/GD32VW55x_RELEASE_V1.0.2/MSDK/wpa_supplicant/src/tls\tlsv1_cred.c **** 		return -1;
 826:C:/Users/stapi/OneDrive/Desktop/GD32VW553/V1_MQTT_OK/GD32VW55X_Wifi_BLE_SDK/GD32VW55x_RELEASE_V1.0.2/MSDK/wpa_supplicant/src/tls\tlsv1_cred.c **** 	}
 827:C:/Users/stapi/OneDrive/Desktop/GD32VW553/V1_MQTT_OK/GD32VW55X_Wifi_BLE_SDK/GD32VW55x_RELEASE_V1.0.2/MSDK/wpa_supplicant/src/tls\tlsv1_cred.c **** 
 828:C:/Users/stapi/OneDrive/Desktop/GD32VW553/V1_MQTT_OK/GD32VW55X_Wifi_BLE_SDK/GD32VW55x_RELEASE_V1.0.2/MSDK/wpa_supplicant/src/tls\tlsv1_cred.c **** 	/* EncryptedContent ::= OCTET STRING */
 829:C:/Users/stapi/OneDrive/Desktop/GD32VW553/V1_MQTT_OK/GD32VW55X_Wifi_BLE_SDK/GD32VW55x_RELEASE_V1.0.2/MSDK/wpa_supplicant/src/tls\tlsv1_cred.c **** 	data = pkcs5_decrypt(enc_alg, enc_alg_len, hdr.payload, hdr.length,
 830:C:/Users/stapi/OneDrive/Desktop/GD32VW553/V1_MQTT_OK/GD32VW55X_Wifi_BLE_SDK/GD32VW55x_RELEASE_V1.0.2/MSDK/wpa_supplicant/src/tls\tlsv1_cred.c **** 			     passwd, &data_len);
 831:C:/Users/stapi/OneDrive/Desktop/GD32VW553/V1_MQTT_OK/GD32VW55X_Wifi_BLE_SDK/GD32VW55x_RELEASE_V1.0.2/MSDK/wpa_supplicant/src/tls\tlsv1_cred.c **** 	if (data) {
 832:C:/Users/stapi/OneDrive/Desktop/GD32VW553/V1_MQTT_OK/GD32VW55X_Wifi_BLE_SDK/GD32VW55x_RELEASE_V1.0.2/MSDK/wpa_supplicant/src/tls\tlsv1_cred.c **** 		wpa_hexdump_key(MSG_MSGDUMP,
 833:C:/Users/stapi/OneDrive/Desktop/GD32VW553/V1_MQTT_OK/GD32VW55X_Wifi_BLE_SDK/GD32VW55x_RELEASE_V1.0.2/MSDK/wpa_supplicant/src/tls\tlsv1_cred.c **** 				"PKCS #12: Decrypted encryptedContent",
 834:C:/Users/stapi/OneDrive/Desktop/GD32VW553/V1_MQTT_OK/GD32VW55X_Wifi_BLE_SDK/GD32VW55x_RELEASE_V1.0.2/MSDK/wpa_supplicant/src/tls\tlsv1_cred.c **** 				data, data_len);
 835:C:/Users/stapi/OneDrive/Desktop/GD32VW553/V1_MQTT_OK/GD32VW55X_Wifi_BLE_SDK/GD32VW55x_RELEASE_V1.0.2/MSDK/wpa_supplicant/src/tls\tlsv1_cred.c **** 		res = pkcs12_safecontents(cred, data, data_len, passwd);
 836:C:/Users/stapi/OneDrive/Desktop/GD32VW553/V1_MQTT_OK/GD32VW55X_Wifi_BLE_SDK/GD32VW55x_RELEASE_V1.0.2/MSDK/wpa_supplicant/src/tls\tlsv1_cred.c **** 		os_free(data);
 837:C:/Users/stapi/OneDrive/Desktop/GD32VW553/V1_MQTT_OK/GD32VW55X_Wifi_BLE_SDK/GD32VW55x_RELEASE_V1.0.2/MSDK/wpa_supplicant/src/tls\tlsv1_cred.c **** 	}
 838:C:/Users/stapi/OneDrive/Desktop/GD32VW553/V1_MQTT_OK/GD32VW55X_Wifi_BLE_SDK/GD32VW55x_RELEASE_V1.0.2/MSDK/wpa_supplicant/src/tls\tlsv1_cred.c **** 
 839:C:/Users/stapi/OneDrive/Desktop/GD32VW553/V1_MQTT_OK/GD32VW55X_Wifi_BLE_SDK/GD32VW55x_RELEASE_V1.0.2/MSDK/wpa_supplicant/src/tls\tlsv1_cred.c **** 	return res;
 840:C:/Users/stapi/OneDrive/Desktop/GD32VW553/V1_MQTT_OK/GD32VW55X_Wifi_BLE_SDK/GD32VW55x_RELEASE_V1.0.2/MSDK/wpa_supplicant/src/tls\tlsv1_cred.c **** }
 841:C:/Users/stapi/OneDrive/Desktop/GD32VW553/V1_MQTT_OK/GD32VW55X_Wifi_BLE_SDK/GD32VW55x_RELEASE_V1.0.2/MSDK/wpa_supplicant/src/tls\tlsv1_cred.c **** 
 842:C:/Users/stapi/OneDrive/Desktop/GD32VW553/V1_MQTT_OK/GD32VW55X_Wifi_BLE_SDK/GD32VW55x_RELEASE_V1.0.2/MSDK/wpa_supplicant/src/tls\tlsv1_cred.c **** 
 843:C:/Users/stapi/OneDrive/Desktop/GD32VW553/V1_MQTT_OK/GD32VW55X_Wifi_BLE_SDK/GD32VW55x_RELEASE_V1.0.2/MSDK/wpa_supplicant/src/tls\tlsv1_cred.c **** static int pkcs12_parse_content(struct tlsv1_credentials *cred,
 844:C:/Users/stapi/OneDrive/Desktop/GD32VW553/V1_MQTT_OK/GD32VW55X_Wifi_BLE_SDK/GD32VW55x_RELEASE_V1.0.2/MSDK/wpa_supplicant/src/tls\tlsv1_cred.c **** 				const u8 *buf, size_t len,
 845:C:/Users/stapi/OneDrive/Desktop/GD32VW553/V1_MQTT_OK/GD32VW55X_Wifi_BLE_SDK/GD32VW55x_RELEASE_V1.0.2/MSDK/wpa_supplicant/src/tls\tlsv1_cred.c **** 				const char *passwd)
 846:C:/Users/stapi/OneDrive/Desktop/GD32VW553/V1_MQTT_OK/GD32VW55X_Wifi_BLE_SDK/GD32VW55x_RELEASE_V1.0.2/MSDK/wpa_supplicant/src/tls\tlsv1_cred.c **** {
 847:C:/Users/stapi/OneDrive/Desktop/GD32VW553/V1_MQTT_OK/GD32VW55X_Wifi_BLE_SDK/GD32VW55x_RELEASE_V1.0.2/MSDK/wpa_supplicant/src/tls\tlsv1_cred.c **** 	const u8 *pos = buf;
 848:C:/Users/stapi/OneDrive/Desktop/GD32VW553/V1_MQTT_OK/GD32VW55X_Wifi_BLE_SDK/GD32VW55x_RELEASE_V1.0.2/MSDK/wpa_supplicant/src/tls\tlsv1_cred.c **** 	const u8 *end = buf + len;
 849:C:/Users/stapi/OneDrive/Desktop/GD32VW553/V1_MQTT_OK/GD32VW55X_Wifi_BLE_SDK/GD32VW55x_RELEASE_V1.0.2/MSDK/wpa_supplicant/src/tls\tlsv1_cred.c **** 	struct asn1_oid oid;
 850:C:/Users/stapi/OneDrive/Desktop/GD32VW553/V1_MQTT_OK/GD32VW55X_Wifi_BLE_SDK/GD32VW55x_RELEASE_V1.0.2/MSDK/wpa_supplicant/src/tls\tlsv1_cred.c **** 	char txt[80];
 851:C:/Users/stapi/OneDrive/Desktop/GD32VW553/V1_MQTT_OK/GD32VW55X_Wifi_BLE_SDK/GD32VW55x_RELEASE_V1.0.2/MSDK/wpa_supplicant/src/tls\tlsv1_cred.c **** 	struct asn1_hdr hdr;
 852:C:/Users/stapi/OneDrive/Desktop/GD32VW553/V1_MQTT_OK/GD32VW55X_Wifi_BLE_SDK/GD32VW55x_RELEASE_V1.0.2/MSDK/wpa_supplicant/src/tls\tlsv1_cred.c **** 
 853:C:/Users/stapi/OneDrive/Desktop/GD32VW553/V1_MQTT_OK/GD32VW55X_Wifi_BLE_SDK/GD32VW55x_RELEASE_V1.0.2/MSDK/wpa_supplicant/src/tls\tlsv1_cred.c **** 	wpa_hexdump(MSG_MSGDUMP, "PKCS #12: ContentInfo", buf, len);
 854:C:/Users/stapi/OneDrive/Desktop/GD32VW553/V1_MQTT_OK/GD32VW55X_Wifi_BLE_SDK/GD32VW55x_RELEASE_V1.0.2/MSDK/wpa_supplicant/src/tls\tlsv1_cred.c **** 
 855:C:/Users/stapi/OneDrive/Desktop/GD32VW553/V1_MQTT_OK/GD32VW55X_Wifi_BLE_SDK/GD32VW55x_RELEASE_V1.0.2/MSDK/wpa_supplicant/src/tls\tlsv1_cred.c **** 	if (asn1_get_oid(pos, end - pos, &oid, &pos)) {
 856:C:/Users/stapi/OneDrive/Desktop/GD32VW553/V1_MQTT_OK/GD32VW55X_Wifi_BLE_SDK/GD32VW55x_RELEASE_V1.0.2/MSDK/wpa_supplicant/src/tls\tlsv1_cred.c **** 		wpa_printf(MSG_DEBUG,
 857:C:/Users/stapi/OneDrive/Desktop/GD32VW553/V1_MQTT_OK/GD32VW55X_Wifi_BLE_SDK/GD32VW55x_RELEASE_V1.0.2/MSDK/wpa_supplicant/src/tls\tlsv1_cred.c **** 			   "PKCS #12: Could not find OBJECT IDENTIFIER (contentType)");
 858:C:/Users/stapi/OneDrive/Desktop/GD32VW553/V1_MQTT_OK/GD32VW55X_Wifi_BLE_SDK/GD32VW55x_RELEASE_V1.0.2/MSDK/wpa_supplicant/src/tls\tlsv1_cred.c **** 		return 0;
 859:C:/Users/stapi/OneDrive/Desktop/GD32VW553/V1_MQTT_OK/GD32VW55X_Wifi_BLE_SDK/GD32VW55x_RELEASE_V1.0.2/MSDK/wpa_supplicant/src/tls\tlsv1_cred.c **** 	}
 860:C:/Users/stapi/OneDrive/Desktop/GD32VW553/V1_MQTT_OK/GD32VW55X_Wifi_BLE_SDK/GD32VW55x_RELEASE_V1.0.2/MSDK/wpa_supplicant/src/tls\tlsv1_cred.c **** 
 861:C:/Users/stapi/OneDrive/Desktop/GD32VW553/V1_MQTT_OK/GD32VW55X_Wifi_BLE_SDK/GD32VW55x_RELEASE_V1.0.2/MSDK/wpa_supplicant/src/tls\tlsv1_cred.c **** 	asn1_oid_to_str(&oid, txt, sizeof(txt));
 862:C:/Users/stapi/OneDrive/Desktop/GD32VW553/V1_MQTT_OK/GD32VW55X_Wifi_BLE_SDK/GD32VW55x_RELEASE_V1.0.2/MSDK/wpa_supplicant/src/tls\tlsv1_cred.c **** 	wpa_printf(MSG_DEBUG, "PKCS #12: contentType %s", txt);
 863:C:/Users/stapi/OneDrive/Desktop/GD32VW553/V1_MQTT_OK/GD32VW55X_Wifi_BLE_SDK/GD32VW55x_RELEASE_V1.0.2/MSDK/wpa_supplicant/src/tls\tlsv1_cred.c **** 
 864:C:/Users/stapi/OneDrive/Desktop/GD32VW553/V1_MQTT_OK/GD32VW55X_Wifi_BLE_SDK/GD32VW55x_RELEASE_V1.0.2/MSDK/wpa_supplicant/src/tls\tlsv1_cred.c **** 	if (asn1_get_next(pos, end - pos, &hdr) < 0 || !hdr.constructed ||
 865:C:/Users/stapi/OneDrive/Desktop/GD32VW553/V1_MQTT_OK/GD32VW55X_Wifi_BLE_SDK/GD32VW55x_RELEASE_V1.0.2/MSDK/wpa_supplicant/src/tls\tlsv1_cred.c **** 	    !asn1_is_cs_tag(&hdr, 0)) {
 866:C:/Users/stapi/OneDrive/Desktop/GD32VW553/V1_MQTT_OK/GD32VW55X_Wifi_BLE_SDK/GD32VW55x_RELEASE_V1.0.2/MSDK/wpa_supplicant/src/tls\tlsv1_cred.c **** 		asn1_unexpected(&hdr,
 867:C:/Users/stapi/OneDrive/Desktop/GD32VW553/V1_MQTT_OK/GD32VW55X_Wifi_BLE_SDK/GD32VW55x_RELEASE_V1.0.2/MSDK/wpa_supplicant/src/tls\tlsv1_cred.c **** 				"PKCS #12: Expected [0] EXPLICIT (content)");
 868:C:/Users/stapi/OneDrive/Desktop/GD32VW553/V1_MQTT_OK/GD32VW55X_Wifi_BLE_SDK/GD32VW55x_RELEASE_V1.0.2/MSDK/wpa_supplicant/src/tls\tlsv1_cred.c **** 		return 0;
 869:C:/Users/stapi/OneDrive/Desktop/GD32VW553/V1_MQTT_OK/GD32VW55X_Wifi_BLE_SDK/GD32VW55x_RELEASE_V1.0.2/MSDK/wpa_supplicant/src/tls\tlsv1_cred.c **** 	}
 870:C:/Users/stapi/OneDrive/Desktop/GD32VW553/V1_MQTT_OK/GD32VW55X_Wifi_BLE_SDK/GD32VW55x_RELEASE_V1.0.2/MSDK/wpa_supplicant/src/tls\tlsv1_cred.c **** 	pos = hdr.payload;
 871:C:/Users/stapi/OneDrive/Desktop/GD32VW553/V1_MQTT_OK/GD32VW55X_Wifi_BLE_SDK/GD32VW55x_RELEASE_V1.0.2/MSDK/wpa_supplicant/src/tls\tlsv1_cred.c **** 
 872:C:/Users/stapi/OneDrive/Desktop/GD32VW553/V1_MQTT_OK/GD32VW55X_Wifi_BLE_SDK/GD32VW55x_RELEASE_V1.0.2/MSDK/wpa_supplicant/src/tls\tlsv1_cred.c **** 	if (is_oid_pkcs7_data(&oid))
 873:C:/Users/stapi/OneDrive/Desktop/GD32VW553/V1_MQTT_OK/GD32VW55X_Wifi_BLE_SDK/GD32VW55x_RELEASE_V1.0.2/MSDK/wpa_supplicant/src/tls\tlsv1_cred.c **** 		return pkcs12_parse_content_data(cred, pos, end, passwd);
 874:C:/Users/stapi/OneDrive/Desktop/GD32VW553/V1_MQTT_OK/GD32VW55X_Wifi_BLE_SDK/GD32VW55x_RELEASE_V1.0.2/MSDK/wpa_supplicant/src/tls\tlsv1_cred.c **** 	if (is_oid_pkcs7_enc_data(&oid))
 875:C:/Users/stapi/OneDrive/Desktop/GD32VW553/V1_MQTT_OK/GD32VW55X_Wifi_BLE_SDK/GD32VW55x_RELEASE_V1.0.2/MSDK/wpa_supplicant/src/tls\tlsv1_cred.c **** 		return pkcs12_parse_content_enc_data(cred, pos, end, passwd);
 876:C:/Users/stapi/OneDrive/Desktop/GD32VW553/V1_MQTT_OK/GD32VW55X_Wifi_BLE_SDK/GD32VW55x_RELEASE_V1.0.2/MSDK/wpa_supplicant/src/tls\tlsv1_cred.c **** 
 877:C:/Users/stapi/OneDrive/Desktop/GD32VW553/V1_MQTT_OK/GD32VW55X_Wifi_BLE_SDK/GD32VW55x_RELEASE_V1.0.2/MSDK/wpa_supplicant/src/tls\tlsv1_cred.c **** 	wpa_printf(MSG_DEBUG, "PKCS #12: Ignored unsupported contentType %s",
 878:C:/Users/stapi/OneDrive/Desktop/GD32VW553/V1_MQTT_OK/GD32VW55X_Wifi_BLE_SDK/GD32VW55x_RELEASE_V1.0.2/MSDK/wpa_supplicant/src/tls\tlsv1_cred.c **** 		   txt);
 879:C:/Users/stapi/OneDrive/Desktop/GD32VW553/V1_MQTT_OK/GD32VW55X_Wifi_BLE_SDK/GD32VW55x_RELEASE_V1.0.2/MSDK/wpa_supplicant/src/tls\tlsv1_cred.c **** 
 880:C:/Users/stapi/OneDrive/Desktop/GD32VW553/V1_MQTT_OK/GD32VW55X_Wifi_BLE_SDK/GD32VW55x_RELEASE_V1.0.2/MSDK/wpa_supplicant/src/tls\tlsv1_cred.c **** 	return 0;
 881:C:/Users/stapi/OneDrive/Desktop/GD32VW553/V1_MQTT_OK/GD32VW55X_Wifi_BLE_SDK/GD32VW55x_RELEASE_V1.0.2/MSDK/wpa_supplicant/src/tls\tlsv1_cred.c **** }
 882:C:/Users/stapi/OneDrive/Desktop/GD32VW553/V1_MQTT_OK/GD32VW55X_Wifi_BLE_SDK/GD32VW55x_RELEASE_V1.0.2/MSDK/wpa_supplicant/src/tls\tlsv1_cred.c **** 
 883:C:/Users/stapi/OneDrive/Desktop/GD32VW553/V1_MQTT_OK/GD32VW55X_Wifi_BLE_SDK/GD32VW55x_RELEASE_V1.0.2/MSDK/wpa_supplicant/src/tls\tlsv1_cred.c **** 
 884:C:/Users/stapi/OneDrive/Desktop/GD32VW553/V1_MQTT_OK/GD32VW55X_Wifi_BLE_SDK/GD32VW55x_RELEASE_V1.0.2/MSDK/wpa_supplicant/src/tls\tlsv1_cred.c **** static int pkcs12_parse(struct tlsv1_credentials *cred,
 885:C:/Users/stapi/OneDrive/Desktop/GD32VW553/V1_MQTT_OK/GD32VW55X_Wifi_BLE_SDK/GD32VW55x_RELEASE_V1.0.2/MSDK/wpa_supplicant/src/tls\tlsv1_cred.c **** 			const u8 *key, size_t len, const char *passwd)
 886:C:/Users/stapi/OneDrive/Desktop/GD32VW553/V1_MQTT_OK/GD32VW55X_Wifi_BLE_SDK/GD32VW55x_RELEASE_V1.0.2/MSDK/wpa_supplicant/src/tls\tlsv1_cred.c **** {
 887:C:/Users/stapi/OneDrive/Desktop/GD32VW553/V1_MQTT_OK/GD32VW55X_Wifi_BLE_SDK/GD32VW55x_RELEASE_V1.0.2/MSDK/wpa_supplicant/src/tls\tlsv1_cred.c **** 	struct asn1_hdr hdr;
 888:C:/Users/stapi/OneDrive/Desktop/GD32VW553/V1_MQTT_OK/GD32VW55X_Wifi_BLE_SDK/GD32VW55x_RELEASE_V1.0.2/MSDK/wpa_supplicant/src/tls\tlsv1_cred.c **** 	const u8 *pos, *end;
 889:C:/Users/stapi/OneDrive/Desktop/GD32VW553/V1_MQTT_OK/GD32VW55X_Wifi_BLE_SDK/GD32VW55x_RELEASE_V1.0.2/MSDK/wpa_supplicant/src/tls\tlsv1_cred.c **** 	struct asn1_oid oid;
 890:C:/Users/stapi/OneDrive/Desktop/GD32VW553/V1_MQTT_OK/GD32VW55X_Wifi_BLE_SDK/GD32VW55x_RELEASE_V1.0.2/MSDK/wpa_supplicant/src/tls\tlsv1_cred.c **** 	char buf[80];
 891:C:/Users/stapi/OneDrive/Desktop/GD32VW553/V1_MQTT_OK/GD32VW55X_Wifi_BLE_SDK/GD32VW55x_RELEASE_V1.0.2/MSDK/wpa_supplicant/src/tls\tlsv1_cred.c **** 
 892:C:/Users/stapi/OneDrive/Desktop/GD32VW553/V1_MQTT_OK/GD32VW55X_Wifi_BLE_SDK/GD32VW55x_RELEASE_V1.0.2/MSDK/wpa_supplicant/src/tls\tlsv1_cred.c **** 	/*
 893:C:/Users/stapi/OneDrive/Desktop/GD32VW553/V1_MQTT_OK/GD32VW55X_Wifi_BLE_SDK/GD32VW55x_RELEASE_V1.0.2/MSDK/wpa_supplicant/src/tls\tlsv1_cred.c **** 	 * PFX ::= SEQUENCE {
 894:C:/Users/stapi/OneDrive/Desktop/GD32VW553/V1_MQTT_OK/GD32VW55X_Wifi_BLE_SDK/GD32VW55x_RELEASE_V1.0.2/MSDK/wpa_supplicant/src/tls\tlsv1_cred.c **** 	 *     version     INTEGER {v3(3)}(v3,...),
 895:C:/Users/stapi/OneDrive/Desktop/GD32VW553/V1_MQTT_OK/GD32VW55X_Wifi_BLE_SDK/GD32VW55x_RELEASE_V1.0.2/MSDK/wpa_supplicant/src/tls\tlsv1_cred.c **** 	 *     authSafe    ContentInfo,
 896:C:/Users/stapi/OneDrive/Desktop/GD32VW553/V1_MQTT_OK/GD32VW55X_Wifi_BLE_SDK/GD32VW55x_RELEASE_V1.0.2/MSDK/wpa_supplicant/src/tls\tlsv1_cred.c **** 	 *     macData     MacData OPTIONAL
 897:C:/Users/stapi/OneDrive/Desktop/GD32VW553/V1_MQTT_OK/GD32VW55X_Wifi_BLE_SDK/GD32VW55x_RELEASE_V1.0.2/MSDK/wpa_supplicant/src/tls\tlsv1_cred.c **** 	 * }
 898:C:/Users/stapi/OneDrive/Desktop/GD32VW553/V1_MQTT_OK/GD32VW55X_Wifi_BLE_SDK/GD32VW55x_RELEASE_V1.0.2/MSDK/wpa_supplicant/src/tls\tlsv1_cred.c **** 	 */
 899:C:/Users/stapi/OneDrive/Desktop/GD32VW553/V1_MQTT_OK/GD32VW55X_Wifi_BLE_SDK/GD32VW55x_RELEASE_V1.0.2/MSDK/wpa_supplicant/src/tls\tlsv1_cred.c **** 
 900:C:/Users/stapi/OneDrive/Desktop/GD32VW553/V1_MQTT_OK/GD32VW55X_Wifi_BLE_SDK/GD32VW55x_RELEASE_V1.0.2/MSDK/wpa_supplicant/src/tls\tlsv1_cred.c **** 	if (asn1_get_next(key, len, &hdr) < 0 || !asn1_is_sequence(&hdr)) {
 901:C:/Users/stapi/OneDrive/Desktop/GD32VW553/V1_MQTT_OK/GD32VW55X_Wifi_BLE_SDK/GD32VW55x_RELEASE_V1.0.2/MSDK/wpa_supplicant/src/tls\tlsv1_cred.c **** 		asn1_unexpected(&hdr,
 902:C:/Users/stapi/OneDrive/Desktop/GD32VW553/V1_MQTT_OK/GD32VW55X_Wifi_BLE_SDK/GD32VW55x_RELEASE_V1.0.2/MSDK/wpa_supplicant/src/tls\tlsv1_cred.c **** 				"PKCS #12: Expected SEQUENCE (PFX); assume PKCS #12 not used");
 903:C:/Users/stapi/OneDrive/Desktop/GD32VW553/V1_MQTT_OK/GD32VW55X_Wifi_BLE_SDK/GD32VW55x_RELEASE_V1.0.2/MSDK/wpa_supplicant/src/tls\tlsv1_cred.c **** 		return -1;
 904:C:/Users/stapi/OneDrive/Desktop/GD32VW553/V1_MQTT_OK/GD32VW55X_Wifi_BLE_SDK/GD32VW55x_RELEASE_V1.0.2/MSDK/wpa_supplicant/src/tls\tlsv1_cred.c **** 	}
 905:C:/Users/stapi/OneDrive/Desktop/GD32VW553/V1_MQTT_OK/GD32VW55X_Wifi_BLE_SDK/GD32VW55x_RELEASE_V1.0.2/MSDK/wpa_supplicant/src/tls\tlsv1_cred.c **** 
 906:C:/Users/stapi/OneDrive/Desktop/GD32VW553/V1_MQTT_OK/GD32VW55X_Wifi_BLE_SDK/GD32VW55x_RELEASE_V1.0.2/MSDK/wpa_supplicant/src/tls\tlsv1_cred.c **** 	pos = hdr.payload;
 907:C:/Users/stapi/OneDrive/Desktop/GD32VW553/V1_MQTT_OK/GD32VW55X_Wifi_BLE_SDK/GD32VW55x_RELEASE_V1.0.2/MSDK/wpa_supplicant/src/tls\tlsv1_cred.c **** 	end = pos + hdr.length;
 908:C:/Users/stapi/OneDrive/Desktop/GD32VW553/V1_MQTT_OK/GD32VW55X_Wifi_BLE_SDK/GD32VW55x_RELEASE_V1.0.2/MSDK/wpa_supplicant/src/tls\tlsv1_cred.c **** 
 909:C:/Users/stapi/OneDrive/Desktop/GD32VW553/V1_MQTT_OK/GD32VW55X_Wifi_BLE_SDK/GD32VW55x_RELEASE_V1.0.2/MSDK/wpa_supplicant/src/tls\tlsv1_cred.c **** 	if (asn1_get_next(pos, end - pos, &hdr) < 0 || !asn1_is_integer(&hdr)) {
 910:C:/Users/stapi/OneDrive/Desktop/GD32VW553/V1_MQTT_OK/GD32VW55X_Wifi_BLE_SDK/GD32VW55x_RELEASE_V1.0.2/MSDK/wpa_supplicant/src/tls\tlsv1_cred.c **** 		asn1_unexpected(&hdr,
 911:C:/Users/stapi/OneDrive/Desktop/GD32VW553/V1_MQTT_OK/GD32VW55X_Wifi_BLE_SDK/GD32VW55x_RELEASE_V1.0.2/MSDK/wpa_supplicant/src/tls\tlsv1_cred.c **** 				"PKCS #12: No INTEGER tag found for version");
 912:C:/Users/stapi/OneDrive/Desktop/GD32VW553/V1_MQTT_OK/GD32VW55X_Wifi_BLE_SDK/GD32VW55x_RELEASE_V1.0.2/MSDK/wpa_supplicant/src/tls\tlsv1_cred.c **** 		return -1;
 913:C:/Users/stapi/OneDrive/Desktop/GD32VW553/V1_MQTT_OK/GD32VW55X_Wifi_BLE_SDK/GD32VW55x_RELEASE_V1.0.2/MSDK/wpa_supplicant/src/tls\tlsv1_cred.c **** 	}
 914:C:/Users/stapi/OneDrive/Desktop/GD32VW553/V1_MQTT_OK/GD32VW55X_Wifi_BLE_SDK/GD32VW55x_RELEASE_V1.0.2/MSDK/wpa_supplicant/src/tls\tlsv1_cred.c **** 	if (hdr.length != 1 || hdr.payload[0] != 3) {
 915:C:/Users/stapi/OneDrive/Desktop/GD32VW553/V1_MQTT_OK/GD32VW55X_Wifi_BLE_SDK/GD32VW55x_RELEASE_V1.0.2/MSDK/wpa_supplicant/src/tls\tlsv1_cred.c **** 		wpa_printf(MSG_DEBUG, "PKCS #12: Unrecognized version");
 916:C:/Users/stapi/OneDrive/Desktop/GD32VW553/V1_MQTT_OK/GD32VW55X_Wifi_BLE_SDK/GD32VW55x_RELEASE_V1.0.2/MSDK/wpa_supplicant/src/tls\tlsv1_cred.c **** 		return -1;
 917:C:/Users/stapi/OneDrive/Desktop/GD32VW553/V1_MQTT_OK/GD32VW55X_Wifi_BLE_SDK/GD32VW55x_RELEASE_V1.0.2/MSDK/wpa_supplicant/src/tls\tlsv1_cred.c **** 	}
 918:C:/Users/stapi/OneDrive/Desktop/GD32VW553/V1_MQTT_OK/GD32VW55X_Wifi_BLE_SDK/GD32VW55x_RELEASE_V1.0.2/MSDK/wpa_supplicant/src/tls\tlsv1_cred.c **** 	pos = hdr.payload + hdr.length;
 919:C:/Users/stapi/OneDrive/Desktop/GD32VW553/V1_MQTT_OK/GD32VW55X_Wifi_BLE_SDK/GD32VW55x_RELEASE_V1.0.2/MSDK/wpa_supplicant/src/tls\tlsv1_cred.c **** 
 920:C:/Users/stapi/OneDrive/Desktop/GD32VW553/V1_MQTT_OK/GD32VW55X_Wifi_BLE_SDK/GD32VW55x_RELEASE_V1.0.2/MSDK/wpa_supplicant/src/tls\tlsv1_cred.c **** 	/*
 921:C:/Users/stapi/OneDrive/Desktop/GD32VW553/V1_MQTT_OK/GD32VW55X_Wifi_BLE_SDK/GD32VW55x_RELEASE_V1.0.2/MSDK/wpa_supplicant/src/tls\tlsv1_cred.c **** 	 * ContentInfo ::= SEQUENCE {
 922:C:/Users/stapi/OneDrive/Desktop/GD32VW553/V1_MQTT_OK/GD32VW55X_Wifi_BLE_SDK/GD32VW55x_RELEASE_V1.0.2/MSDK/wpa_supplicant/src/tls\tlsv1_cred.c **** 	 *   contentType ContentType,
 923:C:/Users/stapi/OneDrive/Desktop/GD32VW553/V1_MQTT_OK/GD32VW55X_Wifi_BLE_SDK/GD32VW55x_RELEASE_V1.0.2/MSDK/wpa_supplicant/src/tls\tlsv1_cred.c **** 	 *   content [0] EXPLICIT ANY DEFINED BY contentType OPTIONAL }
 924:C:/Users/stapi/OneDrive/Desktop/GD32VW553/V1_MQTT_OK/GD32VW55X_Wifi_BLE_SDK/GD32VW55x_RELEASE_V1.0.2/MSDK/wpa_supplicant/src/tls\tlsv1_cred.c **** 	 */
 925:C:/Users/stapi/OneDrive/Desktop/GD32VW553/V1_MQTT_OK/GD32VW55X_Wifi_BLE_SDK/GD32VW55x_RELEASE_V1.0.2/MSDK/wpa_supplicant/src/tls\tlsv1_cred.c **** 
 926:C:/Users/stapi/OneDrive/Desktop/GD32VW553/V1_MQTT_OK/GD32VW55X_Wifi_BLE_SDK/GD32VW55x_RELEASE_V1.0.2/MSDK/wpa_supplicant/src/tls\tlsv1_cred.c **** 	if (asn1_get_next(pos, end - pos, &hdr) < 0 ||
 927:C:/Users/stapi/OneDrive/Desktop/GD32VW553/V1_MQTT_OK/GD32VW55X_Wifi_BLE_SDK/GD32VW55x_RELEASE_V1.0.2/MSDK/wpa_supplicant/src/tls\tlsv1_cred.c **** 	    !asn1_is_sequence(&hdr)) {
 928:C:/Users/stapi/OneDrive/Desktop/GD32VW553/V1_MQTT_OK/GD32VW55X_Wifi_BLE_SDK/GD32VW55x_RELEASE_V1.0.2/MSDK/wpa_supplicant/src/tls\tlsv1_cred.c **** 		asn1_unexpected(&hdr,
 929:C:/Users/stapi/OneDrive/Desktop/GD32VW553/V1_MQTT_OK/GD32VW55X_Wifi_BLE_SDK/GD32VW55x_RELEASE_V1.0.2/MSDK/wpa_supplicant/src/tls\tlsv1_cred.c **** 				"PKCS #12: Expected SEQUENCE (authSafe); assume PKCS #12 not used");
 930:C:/Users/stapi/OneDrive/Desktop/GD32VW553/V1_MQTT_OK/GD32VW55X_Wifi_BLE_SDK/GD32VW55x_RELEASE_V1.0.2/MSDK/wpa_supplicant/src/tls\tlsv1_cred.c **** 		return -1;
 931:C:/Users/stapi/OneDrive/Desktop/GD32VW553/V1_MQTT_OK/GD32VW55X_Wifi_BLE_SDK/GD32VW55x_RELEASE_V1.0.2/MSDK/wpa_supplicant/src/tls\tlsv1_cred.c **** 	}
 932:C:/Users/stapi/OneDrive/Desktop/GD32VW553/V1_MQTT_OK/GD32VW55X_Wifi_BLE_SDK/GD32VW55x_RELEASE_V1.0.2/MSDK/wpa_supplicant/src/tls\tlsv1_cred.c **** 
 933:C:/Users/stapi/OneDrive/Desktop/GD32VW553/V1_MQTT_OK/GD32VW55X_Wifi_BLE_SDK/GD32VW55x_RELEASE_V1.0.2/MSDK/wpa_supplicant/src/tls\tlsv1_cred.c **** 	pos = hdr.payload;
 934:C:/Users/stapi/OneDrive/Desktop/GD32VW553/V1_MQTT_OK/GD32VW55X_Wifi_BLE_SDK/GD32VW55x_RELEASE_V1.0.2/MSDK/wpa_supplicant/src/tls\tlsv1_cred.c **** 	end = pos + hdr.length;
 935:C:/Users/stapi/OneDrive/Desktop/GD32VW553/V1_MQTT_OK/GD32VW55X_Wifi_BLE_SDK/GD32VW55x_RELEASE_V1.0.2/MSDK/wpa_supplicant/src/tls\tlsv1_cred.c **** 
 936:C:/Users/stapi/OneDrive/Desktop/GD32VW553/V1_MQTT_OK/GD32VW55X_Wifi_BLE_SDK/GD32VW55x_RELEASE_V1.0.2/MSDK/wpa_supplicant/src/tls\tlsv1_cred.c **** 	/* ContentType ::= OBJECT IDENTIFIER */
 937:C:/Users/stapi/OneDrive/Desktop/GD32VW553/V1_MQTT_OK/GD32VW55X_Wifi_BLE_SDK/GD32VW55x_RELEASE_V1.0.2/MSDK/wpa_supplicant/src/tls\tlsv1_cred.c **** 	if (asn1_get_oid(pos, end - pos, &oid, &pos)) {
 938:C:/Users/stapi/OneDrive/Desktop/GD32VW553/V1_MQTT_OK/GD32VW55X_Wifi_BLE_SDK/GD32VW55x_RELEASE_V1.0.2/MSDK/wpa_supplicant/src/tls\tlsv1_cred.c **** 		wpa_printf(MSG_DEBUG,
 939:C:/Users/stapi/OneDrive/Desktop/GD32VW553/V1_MQTT_OK/GD32VW55X_Wifi_BLE_SDK/GD32VW55x_RELEASE_V1.0.2/MSDK/wpa_supplicant/src/tls\tlsv1_cred.c **** 			   "PKCS #12: Could not find OBJECT IDENTIFIER (contentType); assume PKCS #12 not used");
 940:C:/Users/stapi/OneDrive/Desktop/GD32VW553/V1_MQTT_OK/GD32VW55X_Wifi_BLE_SDK/GD32VW55x_RELEASE_V1.0.2/MSDK/wpa_supplicant/src/tls\tlsv1_cred.c **** 		return -1;
 941:C:/Users/stapi/OneDrive/Desktop/GD32VW553/V1_MQTT_OK/GD32VW55X_Wifi_BLE_SDK/GD32VW55x_RELEASE_V1.0.2/MSDK/wpa_supplicant/src/tls\tlsv1_cred.c **** 	}
 942:C:/Users/stapi/OneDrive/Desktop/GD32VW553/V1_MQTT_OK/GD32VW55X_Wifi_BLE_SDK/GD32VW55x_RELEASE_V1.0.2/MSDK/wpa_supplicant/src/tls\tlsv1_cred.c **** 	asn1_oid_to_str(&oid, buf, sizeof(buf));
 943:C:/Users/stapi/OneDrive/Desktop/GD32VW553/V1_MQTT_OK/GD32VW55X_Wifi_BLE_SDK/GD32VW55x_RELEASE_V1.0.2/MSDK/wpa_supplicant/src/tls\tlsv1_cred.c **** 	wpa_printf(MSG_DEBUG, "PKCS #12: contentType %s", buf);
 944:C:/Users/stapi/OneDrive/Desktop/GD32VW553/V1_MQTT_OK/GD32VW55X_Wifi_BLE_SDK/GD32VW55x_RELEASE_V1.0.2/MSDK/wpa_supplicant/src/tls\tlsv1_cred.c **** 	if (!is_oid_pkcs7_data(&oid)) {
 945:C:/Users/stapi/OneDrive/Desktop/GD32VW553/V1_MQTT_OK/GD32VW55X_Wifi_BLE_SDK/GD32VW55x_RELEASE_V1.0.2/MSDK/wpa_supplicant/src/tls\tlsv1_cred.c **** 		wpa_printf(MSG_DEBUG, "PKCS #12: Unsupported contentType %s",
 946:C:/Users/stapi/OneDrive/Desktop/GD32VW553/V1_MQTT_OK/GD32VW55X_Wifi_BLE_SDK/GD32VW55x_RELEASE_V1.0.2/MSDK/wpa_supplicant/src/tls\tlsv1_cred.c **** 			   buf);
 947:C:/Users/stapi/OneDrive/Desktop/GD32VW553/V1_MQTT_OK/GD32VW55X_Wifi_BLE_SDK/GD32VW55x_RELEASE_V1.0.2/MSDK/wpa_supplicant/src/tls\tlsv1_cred.c **** 		return -1;
 948:C:/Users/stapi/OneDrive/Desktop/GD32VW553/V1_MQTT_OK/GD32VW55X_Wifi_BLE_SDK/GD32VW55x_RELEASE_V1.0.2/MSDK/wpa_supplicant/src/tls\tlsv1_cred.c **** 	}
 949:C:/Users/stapi/OneDrive/Desktop/GD32VW553/V1_MQTT_OK/GD32VW55X_Wifi_BLE_SDK/GD32VW55x_RELEASE_V1.0.2/MSDK/wpa_supplicant/src/tls\tlsv1_cred.c **** 
 950:C:/Users/stapi/OneDrive/Desktop/GD32VW553/V1_MQTT_OK/GD32VW55X_Wifi_BLE_SDK/GD32VW55x_RELEASE_V1.0.2/MSDK/wpa_supplicant/src/tls\tlsv1_cred.c **** 	if (asn1_get_next(pos, end - pos, &hdr) < 0 || !hdr.constructed ||
 951:C:/Users/stapi/OneDrive/Desktop/GD32VW553/V1_MQTT_OK/GD32VW55X_Wifi_BLE_SDK/GD32VW55x_RELEASE_V1.0.2/MSDK/wpa_supplicant/src/tls\tlsv1_cred.c **** 	    !asn1_is_cs_tag(&hdr, 0)) {
 952:C:/Users/stapi/OneDrive/Desktop/GD32VW553/V1_MQTT_OK/GD32VW55X_Wifi_BLE_SDK/GD32VW55x_RELEASE_V1.0.2/MSDK/wpa_supplicant/src/tls\tlsv1_cred.c **** 		asn1_unexpected(&hdr,
 953:C:/Users/stapi/OneDrive/Desktop/GD32VW553/V1_MQTT_OK/GD32VW55X_Wifi_BLE_SDK/GD32VW55x_RELEASE_V1.0.2/MSDK/wpa_supplicant/src/tls\tlsv1_cred.c **** 				"PKCS #12: Expected [0] EXPLICIT (content); assume PKCS #12 not used");
 954:C:/Users/stapi/OneDrive/Desktop/GD32VW553/V1_MQTT_OK/GD32VW55X_Wifi_BLE_SDK/GD32VW55x_RELEASE_V1.0.2/MSDK/wpa_supplicant/src/tls\tlsv1_cred.c **** 		return -1;
 955:C:/Users/stapi/OneDrive/Desktop/GD32VW553/V1_MQTT_OK/GD32VW55X_Wifi_BLE_SDK/GD32VW55x_RELEASE_V1.0.2/MSDK/wpa_supplicant/src/tls\tlsv1_cred.c **** 	}
 956:C:/Users/stapi/OneDrive/Desktop/GD32VW553/V1_MQTT_OK/GD32VW55X_Wifi_BLE_SDK/GD32VW55x_RELEASE_V1.0.2/MSDK/wpa_supplicant/src/tls\tlsv1_cred.c **** 
 957:C:/Users/stapi/OneDrive/Desktop/GD32VW553/V1_MQTT_OK/GD32VW55X_Wifi_BLE_SDK/GD32VW55x_RELEASE_V1.0.2/MSDK/wpa_supplicant/src/tls\tlsv1_cred.c **** 	pos = hdr.payload;
 958:C:/Users/stapi/OneDrive/Desktop/GD32VW553/V1_MQTT_OK/GD32VW55X_Wifi_BLE_SDK/GD32VW55x_RELEASE_V1.0.2/MSDK/wpa_supplicant/src/tls\tlsv1_cred.c **** 
 959:C:/Users/stapi/OneDrive/Desktop/GD32VW553/V1_MQTT_OK/GD32VW55X_Wifi_BLE_SDK/GD32VW55x_RELEASE_V1.0.2/MSDK/wpa_supplicant/src/tls\tlsv1_cred.c **** 	/* Data ::= OCTET STRING */
 960:C:/Users/stapi/OneDrive/Desktop/GD32VW553/V1_MQTT_OK/GD32VW55X_Wifi_BLE_SDK/GD32VW55x_RELEASE_V1.0.2/MSDK/wpa_supplicant/src/tls\tlsv1_cred.c **** 	if (asn1_get_next(pos, end - pos, &hdr) < 0 ||
 961:C:/Users/stapi/OneDrive/Desktop/GD32VW553/V1_MQTT_OK/GD32VW55X_Wifi_BLE_SDK/GD32VW55x_RELEASE_V1.0.2/MSDK/wpa_supplicant/src/tls\tlsv1_cred.c **** 	    !asn1_is_octetstring(&hdr)) {
 962:C:/Users/stapi/OneDrive/Desktop/GD32VW553/V1_MQTT_OK/GD32VW55X_Wifi_BLE_SDK/GD32VW55x_RELEASE_V1.0.2/MSDK/wpa_supplicant/src/tls\tlsv1_cred.c **** 		asn1_unexpected(&hdr,
 963:C:/Users/stapi/OneDrive/Desktop/GD32VW553/V1_MQTT_OK/GD32VW55X_Wifi_BLE_SDK/GD32VW55x_RELEASE_V1.0.2/MSDK/wpa_supplicant/src/tls\tlsv1_cred.c **** 				"PKCS #12: Expected OCTET STRING (Data); assume PKCS #12 not used");
 964:C:/Users/stapi/OneDrive/Desktop/GD32VW553/V1_MQTT_OK/GD32VW55X_Wifi_BLE_SDK/GD32VW55x_RELEASE_V1.0.2/MSDK/wpa_supplicant/src/tls\tlsv1_cred.c **** 		return -1;
 965:C:/Users/stapi/OneDrive/Desktop/GD32VW553/V1_MQTT_OK/GD32VW55X_Wifi_BLE_SDK/GD32VW55x_RELEASE_V1.0.2/MSDK/wpa_supplicant/src/tls\tlsv1_cred.c **** 	}
 966:C:/Users/stapi/OneDrive/Desktop/GD32VW553/V1_MQTT_OK/GD32VW55X_Wifi_BLE_SDK/GD32VW55x_RELEASE_V1.0.2/MSDK/wpa_supplicant/src/tls\tlsv1_cred.c **** 
 967:C:/Users/stapi/OneDrive/Desktop/GD32VW553/V1_MQTT_OK/GD32VW55X_Wifi_BLE_SDK/GD32VW55x_RELEASE_V1.0.2/MSDK/wpa_supplicant/src/tls\tlsv1_cred.c **** 	/*
 968:C:/Users/stapi/OneDrive/Desktop/GD32VW553/V1_MQTT_OK/GD32VW55X_Wifi_BLE_SDK/GD32VW55x_RELEASE_V1.0.2/MSDK/wpa_supplicant/src/tls\tlsv1_cred.c **** 	 * AuthenticatedSafe ::= SEQUENCE OF ContentInfo
 969:C:/Users/stapi/OneDrive/Desktop/GD32VW553/V1_MQTT_OK/GD32VW55X_Wifi_BLE_SDK/GD32VW55x_RELEASE_V1.0.2/MSDK/wpa_supplicant/src/tls\tlsv1_cred.c **** 	 *     -- Data if unencrypted
 970:C:/Users/stapi/OneDrive/Desktop/GD32VW553/V1_MQTT_OK/GD32VW55X_Wifi_BLE_SDK/GD32VW55x_RELEASE_V1.0.2/MSDK/wpa_supplicant/src/tls\tlsv1_cred.c **** 	 *     -- EncryptedData if password-encrypted
 971:C:/Users/stapi/OneDrive/Desktop/GD32VW553/V1_MQTT_OK/GD32VW55X_Wifi_BLE_SDK/GD32VW55x_RELEASE_V1.0.2/MSDK/wpa_supplicant/src/tls\tlsv1_cred.c **** 	 *     -- EnvelopedData if public key-encrypted
 972:C:/Users/stapi/OneDrive/Desktop/GD32VW553/V1_MQTT_OK/GD32VW55X_Wifi_BLE_SDK/GD32VW55x_RELEASE_V1.0.2/MSDK/wpa_supplicant/src/tls\tlsv1_cred.c **** 	 */
 973:C:/Users/stapi/OneDrive/Desktop/GD32VW553/V1_MQTT_OK/GD32VW55X_Wifi_BLE_SDK/GD32VW55x_RELEASE_V1.0.2/MSDK/wpa_supplicant/src/tls\tlsv1_cred.c **** 	wpa_hexdump(MSG_MSGDUMP, "PKCS #12: Data content",
 974:C:/Users/stapi/OneDrive/Desktop/GD32VW553/V1_MQTT_OK/GD32VW55X_Wifi_BLE_SDK/GD32VW55x_RELEASE_V1.0.2/MSDK/wpa_supplicant/src/tls\tlsv1_cred.c **** 		    hdr.payload, hdr.length);
 975:C:/Users/stapi/OneDrive/Desktop/GD32VW553/V1_MQTT_OK/GD32VW55X_Wifi_BLE_SDK/GD32VW55x_RELEASE_V1.0.2/MSDK/wpa_supplicant/src/tls\tlsv1_cred.c **** 
 976:C:/Users/stapi/OneDrive/Desktop/GD32VW553/V1_MQTT_OK/GD32VW55X_Wifi_BLE_SDK/GD32VW55x_RELEASE_V1.0.2/MSDK/wpa_supplicant/src/tls\tlsv1_cred.c **** 	if (asn1_get_next(hdr.payload, hdr.length, &hdr) < 0 ||
 977:C:/Users/stapi/OneDrive/Desktop/GD32VW553/V1_MQTT_OK/GD32VW55X_Wifi_BLE_SDK/GD32VW55x_RELEASE_V1.0.2/MSDK/wpa_supplicant/src/tls\tlsv1_cred.c **** 	    !asn1_is_sequence(&hdr)) {
 978:C:/Users/stapi/OneDrive/Desktop/GD32VW553/V1_MQTT_OK/GD32VW55X_Wifi_BLE_SDK/GD32VW55x_RELEASE_V1.0.2/MSDK/wpa_supplicant/src/tls\tlsv1_cred.c **** 		asn1_unexpected(&hdr,
 979:C:/Users/stapi/OneDrive/Desktop/GD32VW553/V1_MQTT_OK/GD32VW55X_Wifi_BLE_SDK/GD32VW55x_RELEASE_V1.0.2/MSDK/wpa_supplicant/src/tls\tlsv1_cred.c **** 				"PKCS #12: Expected SEQUENCE within Data content; assume PKCS #12 not used");
 980:C:/Users/stapi/OneDrive/Desktop/GD32VW553/V1_MQTT_OK/GD32VW55X_Wifi_BLE_SDK/GD32VW55x_RELEASE_V1.0.2/MSDK/wpa_supplicant/src/tls\tlsv1_cred.c **** 		return -1;
 981:C:/Users/stapi/OneDrive/Desktop/GD32VW553/V1_MQTT_OK/GD32VW55X_Wifi_BLE_SDK/GD32VW55x_RELEASE_V1.0.2/MSDK/wpa_supplicant/src/tls\tlsv1_cred.c **** 	}
 982:C:/Users/stapi/OneDrive/Desktop/GD32VW553/V1_MQTT_OK/GD32VW55X_Wifi_BLE_SDK/GD32VW55x_RELEASE_V1.0.2/MSDK/wpa_supplicant/src/tls\tlsv1_cred.c **** 
 983:C:/Users/stapi/OneDrive/Desktop/GD32VW553/V1_MQTT_OK/GD32VW55X_Wifi_BLE_SDK/GD32VW55x_RELEASE_V1.0.2/MSDK/wpa_supplicant/src/tls\tlsv1_cred.c **** 	pos = hdr.payload;
 984:C:/Users/stapi/OneDrive/Desktop/GD32VW553/V1_MQTT_OK/GD32VW55X_Wifi_BLE_SDK/GD32VW55x_RELEASE_V1.0.2/MSDK/wpa_supplicant/src/tls\tlsv1_cred.c **** 	end = pos + hdr.length;
 985:C:/Users/stapi/OneDrive/Desktop/GD32VW553/V1_MQTT_OK/GD32VW55X_Wifi_BLE_SDK/GD32VW55x_RELEASE_V1.0.2/MSDK/wpa_supplicant/src/tls\tlsv1_cred.c **** 
 986:C:/Users/stapi/OneDrive/Desktop/GD32VW553/V1_MQTT_OK/GD32VW55X_Wifi_BLE_SDK/GD32VW55x_RELEASE_V1.0.2/MSDK/wpa_supplicant/src/tls\tlsv1_cred.c **** 	while (end > pos) {
 987:C:/Users/stapi/OneDrive/Desktop/GD32VW553/V1_MQTT_OK/GD32VW55X_Wifi_BLE_SDK/GD32VW55x_RELEASE_V1.0.2/MSDK/wpa_supplicant/src/tls\tlsv1_cred.c **** 		if (asn1_get_next(pos, end - pos, &hdr) < 0 ||
 988:C:/Users/stapi/OneDrive/Desktop/GD32VW553/V1_MQTT_OK/GD32VW55X_Wifi_BLE_SDK/GD32VW55x_RELEASE_V1.0.2/MSDK/wpa_supplicant/src/tls\tlsv1_cred.c **** 		    !asn1_is_sequence(&hdr)) {
 989:C:/Users/stapi/OneDrive/Desktop/GD32VW553/V1_MQTT_OK/GD32VW55X_Wifi_BLE_SDK/GD32VW55x_RELEASE_V1.0.2/MSDK/wpa_supplicant/src/tls\tlsv1_cred.c **** 			asn1_unexpected(&hdr,
 990:C:/Users/stapi/OneDrive/Desktop/GD32VW553/V1_MQTT_OK/GD32VW55X_Wifi_BLE_SDK/GD32VW55x_RELEASE_V1.0.2/MSDK/wpa_supplicant/src/tls\tlsv1_cred.c **** 					"PKCS #12: Expected SEQUENCE (ContentInfo); assume PKCS #12 not used");
 991:C:/Users/stapi/OneDrive/Desktop/GD32VW553/V1_MQTT_OK/GD32VW55X_Wifi_BLE_SDK/GD32VW55x_RELEASE_V1.0.2/MSDK/wpa_supplicant/src/tls\tlsv1_cred.c **** 			return -1;
 992:C:/Users/stapi/OneDrive/Desktop/GD32VW553/V1_MQTT_OK/GD32VW55X_Wifi_BLE_SDK/GD32VW55x_RELEASE_V1.0.2/MSDK/wpa_supplicant/src/tls\tlsv1_cred.c **** 		}
 993:C:/Users/stapi/OneDrive/Desktop/GD32VW553/V1_MQTT_OK/GD32VW55X_Wifi_BLE_SDK/GD32VW55x_RELEASE_V1.0.2/MSDK/wpa_supplicant/src/tls\tlsv1_cred.c **** 		if (pkcs12_parse_content(cred, hdr.payload, hdr.length,
 994:C:/Users/stapi/OneDrive/Desktop/GD32VW553/V1_MQTT_OK/GD32VW55X_Wifi_BLE_SDK/GD32VW55x_RELEASE_V1.0.2/MSDK/wpa_supplicant/src/tls\tlsv1_cred.c **** 					 passwd) < 0)
 995:C:/Users/stapi/OneDrive/Desktop/GD32VW553/V1_MQTT_OK/GD32VW55X_Wifi_BLE_SDK/GD32VW55x_RELEASE_V1.0.2/MSDK/wpa_supplicant/src/tls\tlsv1_cred.c **** 			return -1;
 996:C:/Users/stapi/OneDrive/Desktop/GD32VW553/V1_MQTT_OK/GD32VW55X_Wifi_BLE_SDK/GD32VW55x_RELEASE_V1.0.2/MSDK/wpa_supplicant/src/tls\tlsv1_cred.c **** 
 997:C:/Users/stapi/OneDrive/Desktop/GD32VW553/V1_MQTT_OK/GD32VW55X_Wifi_BLE_SDK/GD32VW55x_RELEASE_V1.0.2/MSDK/wpa_supplicant/src/tls\tlsv1_cred.c **** 		pos = hdr.payload + hdr.length;
 998:C:/Users/stapi/OneDrive/Desktop/GD32VW553/V1_MQTT_OK/GD32VW55X_Wifi_BLE_SDK/GD32VW55x_RELEASE_V1.0.2/MSDK/wpa_supplicant/src/tls\tlsv1_cred.c **** 	}
 999:C:/Users/stapi/OneDrive/Desktop/GD32VW553/V1_MQTT_OK/GD32VW55X_Wifi_BLE_SDK/GD32VW55x_RELEASE_V1.0.2/MSDK/wpa_supplicant/src/tls\tlsv1_cred.c **** 
1000:C:/Users/stapi/OneDrive/Desktop/GD32VW553/V1_MQTT_OK/GD32VW55X_Wifi_BLE_SDK/GD32VW55x_RELEASE_V1.0.2/MSDK/wpa_supplicant/src/tls\tlsv1_cred.c **** 	return 0;
1001:C:/Users/stapi/OneDrive/Desktop/GD32VW553/V1_MQTT_OK/GD32VW55X_Wifi_BLE_SDK/GD32VW55x_RELEASE_V1.0.2/MSDK/wpa_supplicant/src/tls\tlsv1_cred.c **** }
1002:C:/Users/stapi/OneDrive/Desktop/GD32VW553/V1_MQTT_OK/GD32VW55X_Wifi_BLE_SDK/GD32VW55x_RELEASE_V1.0.2/MSDK/wpa_supplicant/src/tls\tlsv1_cred.c **** 
1003:C:/Users/stapi/OneDrive/Desktop/GD32VW553/V1_MQTT_OK/GD32VW55X_Wifi_BLE_SDK/GD32VW55x_RELEASE_V1.0.2/MSDK/wpa_supplicant/src/tls\tlsv1_cred.c **** #endif /* PKCS12_FUNCS */
1004:C:/Users/stapi/OneDrive/Desktop/GD32VW553/V1_MQTT_OK/GD32VW55X_Wifi_BLE_SDK/GD32VW55x_RELEASE_V1.0.2/MSDK/wpa_supplicant/src/tls\tlsv1_cred.c **** 
1005:C:/Users/stapi/OneDrive/Desktop/GD32VW553/V1_MQTT_OK/GD32VW55X_Wifi_BLE_SDK/GD32VW55x_RELEASE_V1.0.2/MSDK/wpa_supplicant/src/tls\tlsv1_cred.c **** 
1006:C:/Users/stapi/OneDrive/Desktop/GD32VW553/V1_MQTT_OK/GD32VW55X_Wifi_BLE_SDK/GD32VW55x_RELEASE_V1.0.2/MSDK/wpa_supplicant/src/tls\tlsv1_cred.c **** static int tlsv1_set_key(struct tlsv1_credentials *cred,
1007:C:/Users/stapi/OneDrive/Desktop/GD32VW553/V1_MQTT_OK/GD32VW55X_Wifi_BLE_SDK/GD32VW55x_RELEASE_V1.0.2/MSDK/wpa_supplicant/src/tls\tlsv1_cred.c **** 			 const u8 *key, size_t len, const char *passwd)
1008:C:/Users/stapi/OneDrive/Desktop/GD32VW553/V1_MQTT_OK/GD32VW55X_Wifi_BLE_SDK/GD32VW55x_RELEASE_V1.0.2/MSDK/wpa_supplicant/src/tls\tlsv1_cred.c **** {
 463              		.loc 1 1008 1 is_stmt 1
 464              		.cfi_startproc
 465              	.LVL48:
 466 0000 17030000 		call	t0,__riscv_save_6
 466      E7020300 
 467              		.cfi_offset 21, -28
 468              		.cfi_offset 20, -24
 469              		.cfi_offset 19, -20
 470              		.cfi_offset 18, -16
 471              		.cfi_offset 9, -12
 472              		.cfi_offset 8, -8
 473              		.cfi_offset 1, -4
 474              		.cfi_def_cfa_offset 32
1009:C:/Users/stapi/OneDrive/Desktop/GD32VW553/V1_MQTT_OK/GD32VW55X_Wifi_BLE_SDK/GD32VW55x_RELEASE_V1.0.2/MSDK/wpa_supplicant/src/tls\tlsv1_cred.c **** 	cred->key = crypto_private_key_import(key, len, passwd);
 475              		.loc 1 1009 2
1008:C:/Users/stapi/OneDrive/Desktop/GD32VW553/V1_MQTT_OK/GD32VW55X_Wifi_BLE_SDK/GD32VW55x_RELEASE_V1.0.2/MSDK/wpa_supplicant/src/tls\tlsv1_cred.c **** 	cred->key = crypto_private_key_import(key, len, passwd);
 476              		.loc 1 1008 1 is_stmt 0
 477 0008 AE84     		mv	s1,a1
 478 000a 328A     		mv	s4,a2
 479 000c 2A89     		mv	s2,a0
 480 000e 4111     		addi	sp,sp,-16
 481              		.cfi_def_cfa_offset 48
 482              		.loc 1 1009 14
 483 0010 3686     		mv	a2,a3
 484              	.LVL49:
 485 0012 D285     		mv	a1,s4
 486              	.LVL50:
 487 0014 2685     		mv	a0,s1
 488              	.LVL51:
1008:C:/Users/stapi/OneDrive/Desktop/GD32VW553/V1_MQTT_OK/GD32VW55X_Wifi_BLE_SDK/GD32VW55x_RELEASE_V1.0.2/MSDK/wpa_supplicant/src/tls\tlsv1_cred.c **** 	cred->key = crypto_private_key_import(key, len, passwd);
 489              		.loc 1 1008 1
 490 0016 B689     		mv	s3,a3
 491              		.loc 1 1009 14
 492 0018 97000000 		call	crypto_private_key_import
 492      E7800000 
 493              	.LVL52:
 494              		.loc 1 1009 12
 495 0020 2324A900 		sw	a0,8(s2)
1010:C:/Users/stapi/OneDrive/Desktop/GD32VW553/V1_MQTT_OK/GD32VW55X_Wifi_BLE_SDK/GD32VW55x_RELEASE_V1.0.2/MSDK/wpa_supplicant/src/tls\tlsv1_cred.c **** 	if (cred->key == NULL)
 496              		.loc 1 1010 2 is_stmt 1
 497              		.loc 1 1010 5 is_stmt 0
 498 0024 45ED     		bne	a0,zero,.L47
1011:C:/Users/stapi/OneDrive/Desktop/GD32VW553/V1_MQTT_OK/GD32VW55X_Wifi_BLE_SDK/GD32VW55x_RELEASE_V1.0.2/MSDK/wpa_supplicant/src/tls\tlsv1_cred.c **** 		cred->key = tlsv1_set_key_pem(key, len);
 499              		.loc 1 1011 3 is_stmt 1
 500              	.LVL53:
 501              	.LBB8:
 502              	.LBB9:
 268:C:/Users/stapi/OneDrive/Desktop/GD32VW553/V1_MQTT_OK/GD32VW55X_Wifi_BLE_SDK/GD32VW55x_RELEASE_V1.0.2/MSDK/wpa_supplicant/src/tls\tlsv1_cred.c **** 	unsigned char *der;
 503              		.loc 1 268 2
 269:C:/Users/stapi/OneDrive/Desktop/GD32VW553/V1_MQTT_OK/GD32VW55X_Wifi_BLE_SDK/GD32VW55x_RELEASE_V1.0.2/MSDK/wpa_supplicant/src/tls\tlsv1_cred.c **** 	size_t der_len;
 504              		.loc 1 269 2
 270:C:/Users/stapi/OneDrive/Desktop/GD32VW553/V1_MQTT_OK/GD32VW55X_Wifi_BLE_SDK/GD32VW55x_RELEASE_V1.0.2/MSDK/wpa_supplicant/src/tls\tlsv1_cred.c **** 	struct crypto_private_key *pkey;
 505              		.loc 1 270 2
 271:C:/Users/stapi/OneDrive/Desktop/GD32VW553/V1_MQTT_OK/GD32VW55X_Wifi_BLE_SDK/GD32VW55x_RELEASE_V1.0.2/MSDK/wpa_supplicant/src/tls\tlsv1_cred.c **** 
 506              		.loc 1 271 2
 273:C:/Users/stapi/OneDrive/Desktop/GD32VW553/V1_MQTT_OK/GD32VW55X_Wifi_BLE_SDK/GD32VW55x_RELEASE_V1.0.2/MSDK/wpa_supplicant/src/tls\tlsv1_cred.c **** 	if (!pos) {
 507              		.loc 1 273 2
 273:C:/Users/stapi/OneDrive/Desktop/GD32VW553/V1_MQTT_OK/GD32VW55X_Wifi_BLE_SDK/GD32VW55x_RELEASE_V1.0.2/MSDK/wpa_supplicant/src/tls\tlsv1_cred.c **** 	if (!pos) {
 508              		.loc 1 273 8 is_stmt 0
 509 0026 B70A0000 		lui	s5,%hi(.LC9)
 510 002a 5286     		mv	a2,s4
 511 002c A685     		mv	a1,s1
 512 002e 13850A00 		addi	a0,s5,%lo(.LC9)
 513 0032 97000000 		call	search_tag
 513      E7800000 
 514              	.LVL54:
 515 003a 2A84     		mv	s0,a0
 516              	.LVL55:
 274:C:/Users/stapi/OneDrive/Desktop/GD32VW553/V1_MQTT_OK/GD32VW55X_Wifi_BLE_SDK/GD32VW55x_RELEASE_V1.0.2/MSDK/wpa_supplicant/src/tls\tlsv1_cred.c **** 		pos = search_tag(pem_key2_begin, key, len);
 517              		.loc 1 274 2 is_stmt 1
 274:C:/Users/stapi/OneDrive/Desktop/GD32VW553/V1_MQTT_OK/GD32VW55X_Wifi_BLE_SDK/GD32VW55x_RELEASE_V1.0.2/MSDK/wpa_supplicant/src/tls\tlsv1_cred.c **** 		pos = search_tag(pem_key2_begin, key, len);
 518              		.loc 1 274 5 is_stmt 0
 519 003c 55E1     		bne	a0,zero,.L39
 275:C:/Users/stapi/OneDrive/Desktop/GD32VW553/V1_MQTT_OK/GD32VW55X_Wifi_BLE_SDK/GD32VW55x_RELEASE_V1.0.2/MSDK/wpa_supplicant/src/tls\tlsv1_cred.c **** 		if (!pos)
 520              		.loc 1 275 3 is_stmt 1
 275:C:/Users/stapi/OneDrive/Desktop/GD32VW553/V1_MQTT_OK/GD32VW55X_Wifi_BLE_SDK/GD32VW55x_RELEASE_V1.0.2/MSDK/wpa_supplicant/src/tls\tlsv1_cred.c **** 		if (!pos)
 521              		.loc 1 275 9 is_stmt 0
 522 003e B70A0000 		lui	s5,%hi(.LC10)
 523 0042 5286     		mv	a2,s4
 524 0044 A685     		mv	a1,s1
 525 0046 13850A00 		addi	a0,s5,%lo(.LC10)
 526 004a 97000000 		call	search_tag
 526      E7800000 
 527              	.LVL56:
 528 0052 2A84     		mv	s0,a0
 529              	.LVL57:
 276:C:/Users/stapi/OneDrive/Desktop/GD32VW553/V1_MQTT_OK/GD32VW55X_Wifi_BLE_SDK/GD32VW55x_RELEASE_V1.0.2/MSDK/wpa_supplicant/src/tls\tlsv1_cred.c **** 			return NULL;
 530              		.loc 1 276 3 is_stmt 1
 276:C:/Users/stapi/OneDrive/Desktop/GD32VW553/V1_MQTT_OK/GD32VW55X_Wifi_BLE_SDK/GD32VW55x_RELEASE_V1.0.2/MSDK/wpa_supplicant/src/tls\tlsv1_cred.c **** 			return NULL;
 531              		.loc 1 276 6 is_stmt 0
 532 0054 15E5     		bne	a0,zero,.L40
 533              	.L71:
 534              	.LBB10:
 292:C:/Users/stapi/OneDrive/Desktop/GD32VW553/V1_MQTT_OK/GD32VW55X_Wifi_BLE_SDK/GD32VW55x_RELEASE_V1.0.2/MSDK/wpa_supplicant/src/tls\tlsv1_cred.c **** 		}
 535              		.loc 1 292 4 is_stmt 1
 536              	.LVL58:
 537              	.LBE10:
 538              	.LBE9:
 539              	.LBE8:
 540              		.loc 1 1011 13 is_stmt 0
 541 0056 23240900 		sw	zero,8(s2)
1012:C:/Users/stapi/OneDrive/Desktop/GD32VW553/V1_MQTT_OK/GD32VW55X_Wifi_BLE_SDK/GD32VW55x_RELEASE_V1.0.2/MSDK/wpa_supplicant/src/tls\tlsv1_cred.c **** 	if (cred->key == NULL)
 542              		.loc 1 1012 2 is_stmt 1
 543              	.L41:
1013:C:/Users/stapi/OneDrive/Desktop/GD32VW553/V1_MQTT_OK/GD32VW55X_Wifi_BLE_SDK/GD32VW55x_RELEASE_V1.0.2/MSDK/wpa_supplicant/src/tls\tlsv1_cred.c **** 		cred->key = tlsv1_set_key_enc_pem(key, len, passwd);
 544              		.loc 1 1013 3
 545              	.LVL59:
 546              	.LBB14:
 547              	.LBB15:
 309:C:/Users/stapi/OneDrive/Desktop/GD32VW553/V1_MQTT_OK/GD32VW55X_Wifi_BLE_SDK/GD32VW55x_RELEASE_V1.0.2/MSDK/wpa_supplicant/src/tls\tlsv1_cred.c **** 	unsigned char *der;
 548              		.loc 1 309 2
 310:C:/Users/stapi/OneDrive/Desktop/GD32VW553/V1_MQTT_OK/GD32VW55X_Wifi_BLE_SDK/GD32VW55x_RELEASE_V1.0.2/MSDK/wpa_supplicant/src/tls\tlsv1_cred.c **** 	size_t der_len;
 549              		.loc 1 310 2
 311:C:/Users/stapi/OneDrive/Desktop/GD32VW553/V1_MQTT_OK/GD32VW55X_Wifi_BLE_SDK/GD32VW55x_RELEASE_V1.0.2/MSDK/wpa_supplicant/src/tls\tlsv1_cred.c **** 	struct crypto_private_key *pkey;
 550              		.loc 1 311 2
 312:C:/Users/stapi/OneDrive/Desktop/GD32VW553/V1_MQTT_OK/GD32VW55X_Wifi_BLE_SDK/GD32VW55x_RELEASE_V1.0.2/MSDK/wpa_supplicant/src/tls\tlsv1_cred.c **** 
 551              		.loc 1 312 2
 314:C:/Users/stapi/OneDrive/Desktop/GD32VW553/V1_MQTT_OK/GD32VW55X_Wifi_BLE_SDK/GD32VW55x_RELEASE_V1.0.2/MSDK/wpa_supplicant/src/tls\tlsv1_cred.c **** 		return NULL;
 552              		.loc 1 314 2
 314:C:/Users/stapi/OneDrive/Desktop/GD32VW553/V1_MQTT_OK/GD32VW55X_Wifi_BLE_SDK/GD32VW55x_RELEASE_V1.0.2/MSDK/wpa_supplicant/src/tls\tlsv1_cred.c **** 		return NULL;
 553              		.loc 1 314 5 is_stmt 0
 554 005a 639E090C 		bne	s3,zero,.L44
 555              	.LVL60:
 556              	.L46:
 557              	.LBE15:
 558              	.LBE14:
 559              		.loc 1 1013 13
 560 005e 23240900 		sw	zero,8(s2)
1014:C:/Users/stapi/OneDrive/Desktop/GD32VW553/V1_MQTT_OK/GD32VW55X_Wifi_BLE_SDK/GD32VW55x_RELEASE_V1.0.2/MSDK/wpa_supplicant/src/tls\tlsv1_cred.c **** #ifdef PKCS12_FUNCS
1015:C:/Users/stapi/OneDrive/Desktop/GD32VW553/V1_MQTT_OK/GD32VW55X_Wifi_BLE_SDK/GD32VW55x_RELEASE_V1.0.2/MSDK/wpa_supplicant/src/tls\tlsv1_cred.c **** 	if (!cred->key)
1016:C:/Users/stapi/OneDrive/Desktop/GD32VW553/V1_MQTT_OK/GD32VW55X_Wifi_BLE_SDK/GD32VW55x_RELEASE_V1.0.2/MSDK/wpa_supplicant/src/tls\tlsv1_cred.c **** 		pkcs12_parse(cred, key, len, passwd);
1017:C:/Users/stapi/OneDrive/Desktop/GD32VW553/V1_MQTT_OK/GD32VW55X_Wifi_BLE_SDK/GD32VW55x_RELEASE_V1.0.2/MSDK/wpa_supplicant/src/tls\tlsv1_cred.c **** #endif /* PKCS12_FUNCS */
1018:C:/Users/stapi/OneDrive/Desktop/GD32VW553/V1_MQTT_OK/GD32VW55X_Wifi_BLE_SDK/GD32VW55x_RELEASE_V1.0.2/MSDK/wpa_supplicant/src/tls\tlsv1_cred.c **** 	if (cred->key == NULL) {
 561              		.loc 1 1018 2 is_stmt 1
 562              	.L45:
1019:C:/Users/stapi/OneDrive/Desktop/GD32VW553/V1_MQTT_OK/GD32VW55X_Wifi_BLE_SDK/GD32VW55x_RELEASE_V1.0.2/MSDK/wpa_supplicant/src/tls\tlsv1_cred.c **** 		wpa_printf(MSG_INFO, "TLSv1: Failed to parse private key");
 563              		.loc 1 1019 3
 564 0062 B7050000 		lui	a1,%hi(.LC17)
 565 0066 0D45     		li	a0,3
 566 0068 93850500 		addi	a1,a1,%lo(.LC17)
 567 006c 97000000 		call	wpa_printf
 567      E7800000 
 568              	.LVL61:
1020:C:/Users/stapi/OneDrive/Desktop/GD32VW553/V1_MQTT_OK/GD32VW55X_Wifi_BLE_SDK/GD32VW55x_RELEASE_V1.0.2/MSDK/wpa_supplicant/src/tls\tlsv1_cred.c **** 		return -1;
 569              		.loc 1 1020 3
 570              		.loc 1 1020 10 is_stmt 0
 571 0074 7D55     		li	a0,-1
 572              	.L37:
1021:C:/Users/stapi/OneDrive/Desktop/GD32VW553/V1_MQTT_OK/GD32VW55X_Wifi_BLE_SDK/GD32VW55x_RELEASE_V1.0.2/MSDK/wpa_supplicant/src/tls\tlsv1_cred.c **** 	}
1022:C:/Users/stapi/OneDrive/Desktop/GD32VW553/V1_MQTT_OK/GD32VW55X_Wifi_BLE_SDK/GD32VW55x_RELEASE_V1.0.2/MSDK/wpa_supplicant/src/tls\tlsv1_cred.c **** 	return 0;
1023:C:/Users/stapi/OneDrive/Desktop/GD32VW553/V1_MQTT_OK/GD32VW55X_Wifi_BLE_SDK/GD32VW55x_RELEASE_V1.0.2/MSDK/wpa_supplicant/src/tls\tlsv1_cred.c **** }
 573              		.loc 1 1023 1
 574 0076 4101     		addi	sp,sp,16
 575              		.cfi_remember_state
 576              		.cfi_def_cfa_offset 0
 577 0078 17030000 		tail	__riscv_restore_6
 577      67000300 
 578              		.cfi_restore 21
 579              		.cfi_restore 20
 580              		.cfi_restore 19
 581              		.cfi_restore 18
 582              		.cfi_restore 9
 583              		.cfi_restore 8
 584              		.cfi_restore 1
 585              		.cfi_def_cfa_offset -32
 586              	.LVL62:
 587              	.L40:
 588              		.cfi_restore_state
 589              	.LBB17:
 590              	.LBB12:
 278:C:/Users/stapi/OneDrive/Desktop/GD32VW553/V1_MQTT_OK/GD32VW55X_Wifi_BLE_SDK/GD32VW55x_RELEASE_V1.0.2/MSDK/wpa_supplicant/src/tls\tlsv1_cred.c **** 		end = search_tag(pem_key2_end, pos, key + len - pos);
 591              		.loc 1 278 3 is_stmt 1
 278:C:/Users/stapi/OneDrive/Desktop/GD32VW553/V1_MQTT_OK/GD32VW55X_Wifi_BLE_SDK/GD32VW55x_RELEASE_V1.0.2/MSDK/wpa_supplicant/src/tls\tlsv1_cred.c **** 		end = search_tag(pem_key2_end, pos, key + len - pos);
 592              		.loc 1 278 10 is_stmt 0
 593 0080 13850A00 		addi	a0,s5,%lo(.LC10)
 594 0084 97000000 		call	os_strlen
 594      E7800000 
 595              	.LVL63:
 278:C:/Users/stapi/OneDrive/Desktop/GD32VW553/V1_MQTT_OK/GD32VW55X_Wifi_BLE_SDK/GD32VW55x_RELEASE_V1.0.2/MSDK/wpa_supplicant/src/tls\tlsv1_cred.c **** 		end = search_tag(pem_key2_end, pos, key + len - pos);
 596              		.loc 1 278 7
 597 008c 2A94     		add	s0,s0,a0
 598              	.LVL64:
 279:C:/Users/stapi/OneDrive/Desktop/GD32VW553/V1_MQTT_OK/GD32VW55X_Wifi_BLE_SDK/GD32VW55x_RELEASE_V1.0.2/MSDK/wpa_supplicant/src/tls\tlsv1_cred.c **** 		if (!end)
 599              		.loc 1 279 3 is_stmt 1
 279:C:/Users/stapi/OneDrive/Desktop/GD32VW553/V1_MQTT_OK/GD32VW55X_Wifi_BLE_SDK/GD32VW55x_RELEASE_V1.0.2/MSDK/wpa_supplicant/src/tls\tlsv1_cred.c **** 		if (!end)
 600              		.loc 1 279 43 is_stmt 0
 601 008e 33864401 		add	a2,s1,s4
 279:C:/Users/stapi/OneDrive/Desktop/GD32VW553/V1_MQTT_OK/GD32VW55X_Wifi_BLE_SDK/GD32VW55x_RELEASE_V1.0.2/MSDK/wpa_supplicant/src/tls\tlsv1_cred.c **** 		if (!end)
 602              		.loc 1 279 9
 603 0092 37050000 		lui	a0,%hi(.LC11)
 604 0096 018E     		sub	a2,a2,s0
 605 0098 A285     		mv	a1,s0
 606 009a 13050500 		addi	a0,a0,%lo(.LC11)
 607 009e 97000000 		call	search_tag
 607      E7800000 
 608              	.LVL65:
 609 00a6 AA8A     		mv	s5,a0
 610              	.LVL66:
 280:C:/Users/stapi/OneDrive/Desktop/GD32VW553/V1_MQTT_OK/GD32VW55X_Wifi_BLE_SDK/GD32VW55x_RELEASE_V1.0.2/MSDK/wpa_supplicant/src/tls\tlsv1_cred.c **** 			return NULL;
 611              		.loc 1 280 3 is_stmt 1
 280:C:/Users/stapi/OneDrive/Desktop/GD32VW553/V1_MQTT_OK/GD32VW55X_Wifi_BLE_SDK/GD32VW55x_RELEASE_V1.0.2/MSDK/wpa_supplicant/src/tls\tlsv1_cred.c **** 			return NULL;
 612              		.loc 1 280 6 is_stmt 0
 613 00a8 5DD5     		beq	a0,zero,.L71
 614              	.LVL67:
 615              	.L43:
 296:C:/Users/stapi/OneDrive/Desktop/GD32VW553/V1_MQTT_OK/GD32VW55X_Wifi_BLE_SDK/GD32VW55x_RELEASE_V1.0.2/MSDK/wpa_supplicant/src/tls\tlsv1_cred.c **** 	if (!der)
 616              		.loc 1 296 2 is_stmt 1
 296:C:/Users/stapi/OneDrive/Desktop/GD32VW553/V1_MQTT_OK/GD32VW55X_Wifi_BLE_SDK/GD32VW55x_RELEASE_V1.0.2/MSDK/wpa_supplicant/src/tls\tlsv1_cred.c **** 	if (!der)
 617              		.loc 1 296 8 is_stmt 0
 618 00aa B3858A40 		sub	a1,s5,s0
 619 00ae 7000     		addi	a2,sp,12
 620 00b0 2285     		mv	a0,s0
 621 00b2 97000000 		call	base64_decode
 621      E7800000 
 622              	.LVL68:
 623 00ba AA8A     		mv	s5,a0
 624              	.LVL69:
 297:C:/Users/stapi/OneDrive/Desktop/GD32VW553/V1_MQTT_OK/GD32VW55X_Wifi_BLE_SDK/GD32VW55x_RELEASE_V1.0.2/MSDK/wpa_supplicant/src/tls\tlsv1_cred.c **** 		return NULL;
 625              		.loc 1 297 2 is_stmt 1
 297:C:/Users/stapi/OneDrive/Desktop/GD32VW553/V1_MQTT_OK/GD32VW55X_Wifi_BLE_SDK/GD32VW55x_RELEASE_V1.0.2/MSDK/wpa_supplicant/src/tls\tlsv1_cred.c **** 		return NULL;
 626              		.loc 1 297 5 is_stmt 0
 627 00bc 49DD     		beq	a0,zero,.L71
 299:C:/Users/stapi/OneDrive/Desktop/GD32VW553/V1_MQTT_OK/GD32VW55X_Wifi_BLE_SDK/GD32VW55x_RELEASE_V1.0.2/MSDK/wpa_supplicant/src/tls\tlsv1_cred.c **** 	os_free(der);
 628              		.loc 1 299 2 is_stmt 1
 299:C:/Users/stapi/OneDrive/Desktop/GD32VW553/V1_MQTT_OK/GD32VW55X_Wifi_BLE_SDK/GD32VW55x_RELEASE_V1.0.2/MSDK/wpa_supplicant/src/tls\tlsv1_cred.c **** 	os_free(der);
 629              		.loc 1 299 9 is_stmt 0
 630 00be B245     		lw	a1,12(sp)
 631 00c0 0146     		li	a2,0
 632 00c2 97000000 		call	crypto_private_key_import
 632      E7800000 
 633              	.LVL70:
 634 00ca 2A84     		mv	s0,a0
 635              	.LVL71:
 300:C:/Users/stapi/OneDrive/Desktop/GD32VW553/V1_MQTT_OK/GD32VW55X_Wifi_BLE_SDK/GD32VW55x_RELEASE_V1.0.2/MSDK/wpa_supplicant/src/tls\tlsv1_cred.c **** 	return pkey;
 636              		.loc 1 300 2 is_stmt 1
 637 00cc 5685     		mv	a0,s5
 638 00ce 97000000 		call	os_free
 638      E7800000 
 639              	.LVL72:
 301:C:/Users/stapi/OneDrive/Desktop/GD32VW553/V1_MQTT_OK/GD32VW55X_Wifi_BLE_SDK/GD32VW55x_RELEASE_V1.0.2/MSDK/wpa_supplicant/src/tls\tlsv1_cred.c **** }
 640              		.loc 1 301 2
 641              	.LBE12:
 642              	.LBE17:
1011:C:/Users/stapi/OneDrive/Desktop/GD32VW553/V1_MQTT_OK/GD32VW55X_Wifi_BLE_SDK/GD32VW55x_RELEASE_V1.0.2/MSDK/wpa_supplicant/src/tls\tlsv1_cred.c **** 	if (cred->key == NULL)
 643              		.loc 1 1011 13 is_stmt 0
 644 00d6 23248900 		sw	s0,8(s2)
1012:C:/Users/stapi/OneDrive/Desktop/GD32VW553/V1_MQTT_OK/GD32VW55X_Wifi_BLE_SDK/GD32VW55x_RELEASE_V1.0.2/MSDK/wpa_supplicant/src/tls\tlsv1_cred.c **** 		cred->key = tlsv1_set_key_enc_pem(key, len, passwd);
 645              		.loc 1 1012 2 is_stmt 1
1012:C:/Users/stapi/OneDrive/Desktop/GD32VW553/V1_MQTT_OK/GD32VW55X_Wifi_BLE_SDK/GD32VW55x_RELEASE_V1.0.2/MSDK/wpa_supplicant/src/tls\tlsv1_cred.c **** 		cred->key = tlsv1_set_key_enc_pem(key, len, passwd);
 646              		.loc 1 1012 5 is_stmt 0
 647 00da 41D0     		beq	s0,zero,.L41
 648              	.LVL73:
 649              	.L47:
1018:C:/Users/stapi/OneDrive/Desktop/GD32VW553/V1_MQTT_OK/GD32VW55X_Wifi_BLE_SDK/GD32VW55x_RELEASE_V1.0.2/MSDK/wpa_supplicant/src/tls\tlsv1_cred.c **** 		wpa_printf(MSG_INFO, "TLSv1: Failed to parse private key");
 650              		.loc 1 1018 2 is_stmt 1
1022:C:/Users/stapi/OneDrive/Desktop/GD32VW553/V1_MQTT_OK/GD32VW55X_Wifi_BLE_SDK/GD32VW55x_RELEASE_V1.0.2/MSDK/wpa_supplicant/src/tls\tlsv1_cred.c **** }
 651              		.loc 1 1022 9 is_stmt 0
 652 00dc 0145     		li	a0,0
 653 00de 61BF     		j	.L37
 654              	.LVL74:
 655              	.L39:
 656              	.LBB18:
 657              	.LBB13:
 658              	.LBB11:
 283:C:/Users/stapi/OneDrive/Desktop/GD32VW553/V1_MQTT_OK/GD32VW55X_Wifi_BLE_SDK/GD32VW55x_RELEASE_V1.0.2/MSDK/wpa_supplicant/src/tls\tlsv1_cred.c **** 		pos += os_strlen(pem_key_begin);
 659              		.loc 1 283 3 is_stmt 1
 284:C:/Users/stapi/OneDrive/Desktop/GD32VW553/V1_MQTT_OK/GD32VW55X_Wifi_BLE_SDK/GD32VW55x_RELEASE_V1.0.2/MSDK/wpa_supplicant/src/tls\tlsv1_cred.c **** 		end = search_tag(pem_key_end, pos, key + len - pos);
 660              		.loc 1 284 3
 284:C:/Users/stapi/OneDrive/Desktop/GD32VW553/V1_MQTT_OK/GD32VW55X_Wifi_BLE_SDK/GD32VW55x_RELEASE_V1.0.2/MSDK/wpa_supplicant/src/tls\tlsv1_cred.c **** 		end = search_tag(pem_key_end, pos, key + len - pos);
 661              		.loc 1 284 10 is_stmt 0
 662 00e0 13850A00 		addi	a0,s5,%lo(.LC9)
 663 00e4 97000000 		call	os_strlen
 663      E7800000 
 664              	.LVL75:
 284:C:/Users/stapi/OneDrive/Desktop/GD32VW553/V1_MQTT_OK/GD32VW55X_Wifi_BLE_SDK/GD32VW55x_RELEASE_V1.0.2/MSDK/wpa_supplicant/src/tls\tlsv1_cred.c **** 		end = search_tag(pem_key_end, pos, key + len - pos);
 665              		.loc 1 284 7
 666 00ec 2A94     		add	s0,s0,a0
 667              	.LVL76:
 285:C:/Users/stapi/OneDrive/Desktop/GD32VW553/V1_MQTT_OK/GD32VW55X_Wifi_BLE_SDK/GD32VW55x_RELEASE_V1.0.2/MSDK/wpa_supplicant/src/tls\tlsv1_cred.c **** 		if (!end)
 668              		.loc 1 285 3 is_stmt 1
 285:C:/Users/stapi/OneDrive/Desktop/GD32VW553/V1_MQTT_OK/GD32VW55X_Wifi_BLE_SDK/GD32VW55x_RELEASE_V1.0.2/MSDK/wpa_supplicant/src/tls\tlsv1_cred.c **** 		if (!end)
 669              		.loc 1 285 42 is_stmt 0
 670 00ee 33864401 		add	a2,s1,s4
 285:C:/Users/stapi/OneDrive/Desktop/GD32VW553/V1_MQTT_OK/GD32VW55X_Wifi_BLE_SDK/GD32VW55x_RELEASE_V1.0.2/MSDK/wpa_supplicant/src/tls\tlsv1_cred.c **** 		if (!end)
 671              		.loc 1 285 9
 672 00f2 37050000 		lui	a0,%hi(.LC12)
 673 00f6 018E     		sub	a2,a2,s0
 674 00f8 A285     		mv	a1,s0
 675 00fa 13050500 		addi	a0,a0,%lo(.LC12)
 676 00fe 97000000 		call	search_tag
 676      E7800000 
 677              	.LVL77:
 678 0106 AA8A     		mv	s5,a0
 679              	.LVL78:
 286:C:/Users/stapi/OneDrive/Desktop/GD32VW553/V1_MQTT_OK/GD32VW55X_Wifi_BLE_SDK/GD32VW55x_RELEASE_V1.0.2/MSDK/wpa_supplicant/src/tls\tlsv1_cred.c **** 			return NULL;
 680              		.loc 1 286 3 is_stmt 1
 286:C:/Users/stapi/OneDrive/Desktop/GD32VW553/V1_MQTT_OK/GD32VW55X_Wifi_BLE_SDK/GD32VW55x_RELEASE_V1.0.2/MSDK/wpa_supplicant/src/tls\tlsv1_cred.c **** 			return NULL;
 681              		.loc 1 286 6 is_stmt 0
 682 0108 39D5     		beq	a0,zero,.L71
 288:C:/Users/stapi/OneDrive/Desktop/GD32VW553/V1_MQTT_OK/GD32VW55X_Wifi_BLE_SDK/GD32VW55x_RELEASE_V1.0.2/MSDK/wpa_supplicant/src/tls\tlsv1_cred.c **** 		if (pos2) {
 683              		.loc 1 288 3 is_stmt 1
 288:C:/Users/stapi/OneDrive/Desktop/GD32VW553/V1_MQTT_OK/GD32VW55X_Wifi_BLE_SDK/GD32VW55x_RELEASE_V1.0.2/MSDK/wpa_supplicant/src/tls\tlsv1_cred.c **** 		if (pos2) {
 684              		.loc 1 288 10 is_stmt 0
 685 010a 33068540 		sub	a2,a0,s0
 686 010e 37050000 		lui	a0,%hi(.LC13)
 687              	.LVL79:
 688 0112 A285     		mv	a1,s0
 689 0114 13050500 		addi	a0,a0,%lo(.LC13)
 690 0118 97000000 		call	search_tag
 690      E7800000 
 691              	.LVL80:
 289:C:/Users/stapi/OneDrive/Desktop/GD32VW553/V1_MQTT_OK/GD32VW55X_Wifi_BLE_SDK/GD32VW55x_RELEASE_V1.0.2/MSDK/wpa_supplicant/src/tls\tlsv1_cred.c **** 			wpa_printf(MSG_DEBUG, "TLSv1: Unsupported private key "
 692              		.loc 1 289 3 is_stmt 1
 289:C:/Users/stapi/OneDrive/Desktop/GD32VW553/V1_MQTT_OK/GD32VW55X_Wifi_BLE_SDK/GD32VW55x_RELEASE_V1.0.2/MSDK/wpa_supplicant/src/tls\tlsv1_cred.c **** 			wpa_printf(MSG_DEBUG, "TLSv1: Unsupported private key "
 693              		.loc 1 289 6 is_stmt 0
 694 0120 49D5     		beq	a0,zero,.L43
 290:C:/Users/stapi/OneDrive/Desktop/GD32VW553/V1_MQTT_OK/GD32VW55X_Wifi_BLE_SDK/GD32VW55x_RELEASE_V1.0.2/MSDK/wpa_supplicant/src/tls\tlsv1_cred.c **** 				   "format (Proc-Type/DEK-Info)");
 695              		.loc 1 290 4 is_stmt 1
 696 0122 B7050000 		lui	a1,%hi(.LC14)
 697 0126 93850500 		addi	a1,a1,%lo(.LC14)
 698 012a 0945     		li	a0,2
 699              	.LVL81:
 700 012c 97000000 		call	wpa_printf
 700      E7800000 
 701              	.LVL82:
 702 0134 0DB7     		j	.L71
 703              	.LVL83:
 704              	.L44:
 705              	.LBE11:
 706              	.LBE13:
 707              	.LBE18:
 708              	.LBB19:
 709              	.LBB16:
 316:C:/Users/stapi/OneDrive/Desktop/GD32VW553/V1_MQTT_OK/GD32VW55X_Wifi_BLE_SDK/GD32VW55x_RELEASE_V1.0.2/MSDK/wpa_supplicant/src/tls\tlsv1_cred.c **** 	if (!pos)
 710              		.loc 1 316 2
 316:C:/Users/stapi/OneDrive/Desktop/GD32VW553/V1_MQTT_OK/GD32VW55X_Wifi_BLE_SDK/GD32VW55x_RELEASE_V1.0.2/MSDK/wpa_supplicant/src/tls\tlsv1_cred.c **** 	if (!pos)
 711              		.loc 1 316 8 is_stmt 0
 712 0136 B70A0000 		lui	s5,%hi(.LC15)
 713 013a 5286     		mv	a2,s4
 714 013c A685     		mv	a1,s1
 715 013e 13850A00 		addi	a0,s5,%lo(.LC15)
 716 0142 97000000 		call	search_tag
 716      E7800000 
 717              	.LVL84:
 718 014a 2A84     		mv	s0,a0
 719              	.LVL85:
 317:C:/Users/stapi/OneDrive/Desktop/GD32VW553/V1_MQTT_OK/GD32VW55X_Wifi_BLE_SDK/GD32VW55x_RELEASE_V1.0.2/MSDK/wpa_supplicant/src/tls\tlsv1_cred.c **** 		return NULL;
 720              		.loc 1 317 2 is_stmt 1
 317:C:/Users/stapi/OneDrive/Desktop/GD32VW553/V1_MQTT_OK/GD32VW55X_Wifi_BLE_SDK/GD32VW55x_RELEASE_V1.0.2/MSDK/wpa_supplicant/src/tls\tlsv1_cred.c **** 		return NULL;
 721              		.loc 1 317 5 is_stmt 0
 722 014c 09D9     		beq	a0,zero,.L46
 319:C:/Users/stapi/OneDrive/Desktop/GD32VW553/V1_MQTT_OK/GD32VW55X_Wifi_BLE_SDK/GD32VW55x_RELEASE_V1.0.2/MSDK/wpa_supplicant/src/tls\tlsv1_cred.c **** 	end = search_tag(pem_key_enc_end, pos, key + len - pos);
 723              		.loc 1 319 2 is_stmt 1
 319:C:/Users/stapi/OneDrive/Desktop/GD32VW553/V1_MQTT_OK/GD32VW55X_Wifi_BLE_SDK/GD32VW55x_RELEASE_V1.0.2/MSDK/wpa_supplicant/src/tls\tlsv1_cred.c **** 	end = search_tag(pem_key_enc_end, pos, key + len - pos);
 724              		.loc 1 319 9 is_stmt 0
 725 014e 13850A00 		addi	a0,s5,%lo(.LC15)
 726 0152 97000000 		call	os_strlen
 726      E7800000 
 727              	.LVL86:
 319:C:/Users/stapi/OneDrive/Desktop/GD32VW553/V1_MQTT_OK/GD32VW55X_Wifi_BLE_SDK/GD32VW55x_RELEASE_V1.0.2/MSDK/wpa_supplicant/src/tls\tlsv1_cred.c **** 	end = search_tag(pem_key_enc_end, pos, key + len - pos);
 728              		.loc 1 319 6
 729 015a 2A94     		add	s0,s0,a0
 730              	.LVL87:
 320:C:/Users/stapi/OneDrive/Desktop/GD32VW553/V1_MQTT_OK/GD32VW55X_Wifi_BLE_SDK/GD32VW55x_RELEASE_V1.0.2/MSDK/wpa_supplicant/src/tls\tlsv1_cred.c **** 	if (!end)
 731              		.loc 1 320 2 is_stmt 1
 320:C:/Users/stapi/OneDrive/Desktop/GD32VW553/V1_MQTT_OK/GD32VW55X_Wifi_BLE_SDK/GD32VW55x_RELEASE_V1.0.2/MSDK/wpa_supplicant/src/tls\tlsv1_cred.c **** 	if (!end)
 732              		.loc 1 320 45 is_stmt 0
 733 015c 33864401 		add	a2,s1,s4
 320:C:/Users/stapi/OneDrive/Desktop/GD32VW553/V1_MQTT_OK/GD32VW55X_Wifi_BLE_SDK/GD32VW55x_RELEASE_V1.0.2/MSDK/wpa_supplicant/src/tls\tlsv1_cred.c **** 	if (!end)
 734              		.loc 1 320 8
 735 0160 37050000 		lui	a0,%hi(.LC16)
 736 0164 018E     		sub	a2,a2,s0
 737 0166 A285     		mv	a1,s0
 738 0168 13050500 		addi	a0,a0,%lo(.LC16)
 739 016c 97000000 		call	search_tag
 739      E7800000 
 740              	.LVL88:
 321:C:/Users/stapi/OneDrive/Desktop/GD32VW553/V1_MQTT_OK/GD32VW55X_Wifi_BLE_SDK/GD32VW55x_RELEASE_V1.0.2/MSDK/wpa_supplicant/src/tls\tlsv1_cred.c **** 		return NULL;
 741              		.loc 1 321 2 is_stmt 1
 321:C:/Users/stapi/OneDrive/Desktop/GD32VW553/V1_MQTT_OK/GD32VW55X_Wifi_BLE_SDK/GD32VW55x_RELEASE_V1.0.2/MSDK/wpa_supplicant/src/tls\tlsv1_cred.c **** 		return NULL;
 742              		.loc 1 321 5 is_stmt 0
 743 0174 E30505EE 		beq	a0,zero,.L46
 324:C:/Users/stapi/OneDrive/Desktop/GD32VW553/V1_MQTT_OK/GD32VW55X_Wifi_BLE_SDK/GD32VW55x_RELEASE_V1.0.2/MSDK/wpa_supplicant/src/tls\tlsv1_cred.c **** 	if (!der)
 744              		.loc 1 324 2 is_stmt 1
 324:C:/Users/stapi/OneDrive/Desktop/GD32VW553/V1_MQTT_OK/GD32VW55X_Wifi_BLE_SDK/GD32VW55x_RELEASE_V1.0.2/MSDK/wpa_supplicant/src/tls\tlsv1_cred.c **** 	if (!der)
 745              		.loc 1 324 8 is_stmt 0
 746 0178 B3058540 		sub	a1,a0,s0
 747 017c 7000     		addi	a2,sp,12
 748 017e 2285     		mv	a0,s0
 749              	.LVL89:
 750 0180 97000000 		call	base64_decode
 750      E7800000 
 751              	.LVL90:
 752 0188 AA84     		mv	s1,a0
 753              	.LVL91:
 325:C:/Users/stapi/OneDrive/Desktop/GD32VW553/V1_MQTT_OK/GD32VW55X_Wifi_BLE_SDK/GD32VW55x_RELEASE_V1.0.2/MSDK/wpa_supplicant/src/tls\tlsv1_cred.c **** 		return NULL;
 754              		.loc 1 325 2 is_stmt 1
 325:C:/Users/stapi/OneDrive/Desktop/GD32VW553/V1_MQTT_OK/GD32VW55X_Wifi_BLE_SDK/GD32VW55x_RELEASE_V1.0.2/MSDK/wpa_supplicant/src/tls\tlsv1_cred.c **** 		return NULL;
 755              		.loc 1 325 5 is_stmt 0
 756 018a E30A05EC 		beq	a0,zero,.L46
 327:C:/Users/stapi/OneDrive/Desktop/GD32VW553/V1_MQTT_OK/GD32VW55X_Wifi_BLE_SDK/GD32VW55x_RELEASE_V1.0.2/MSDK/wpa_supplicant/src/tls\tlsv1_cred.c **** 	os_free(der);
 757              		.loc 1 327 2 is_stmt 1
 327:C:/Users/stapi/OneDrive/Desktop/GD32VW553/V1_MQTT_OK/GD32VW55X_Wifi_BLE_SDK/GD32VW55x_RELEASE_V1.0.2/MSDK/wpa_supplicant/src/tls\tlsv1_cred.c **** 	os_free(der);
 758              		.loc 1 327 9 is_stmt 0
 759 018e B245     		lw	a1,12(sp)
 760 0190 4E86     		mv	a2,s3
 761 0192 97000000 		call	crypto_private_key_import
 761      E7800000 
 762              	.LVL92:
 763 019a 2A84     		mv	s0,a0
 764              	.LVL93:
 328:C:/Users/stapi/OneDrive/Desktop/GD32VW553/V1_MQTT_OK/GD32VW55X_Wifi_BLE_SDK/GD32VW55x_RELEASE_V1.0.2/MSDK/wpa_supplicant/src/tls\tlsv1_cred.c **** 	return pkey;
 765              		.loc 1 328 2 is_stmt 1
 766 019c 2685     		mv	a0,s1
 767 019e 97000000 		call	os_free
 767      E7800000 
 768              	.LVL94:
 329:C:/Users/stapi/OneDrive/Desktop/GD32VW553/V1_MQTT_OK/GD32VW55X_Wifi_BLE_SDK/GD32VW55x_RELEASE_V1.0.2/MSDK/wpa_supplicant/src/tls\tlsv1_cred.c **** }
 769              		.loc 1 329 2
 770              	.LBE16:
 771              	.LBE19:
1013:C:/Users/stapi/OneDrive/Desktop/GD32VW553/V1_MQTT_OK/GD32VW55X_Wifi_BLE_SDK/GD32VW55x_RELEASE_V1.0.2/MSDK/wpa_supplicant/src/tls\tlsv1_cred.c **** #ifdef PKCS12_FUNCS
 772              		.loc 1 1013 13 is_stmt 0
 773 01a6 23248900 		sw	s0,8(s2)
1018:C:/Users/stapi/OneDrive/Desktop/GD32VW553/V1_MQTT_OK/GD32VW55X_Wifi_BLE_SDK/GD32VW55x_RELEASE_V1.0.2/MSDK/wpa_supplicant/src/tls\tlsv1_cred.c **** 		wpa_printf(MSG_INFO, "TLSv1: Failed to parse private key");
 774              		.loc 1 1018 2 is_stmt 1
1018:C:/Users/stapi/OneDrive/Desktop/GD32VW553/V1_MQTT_OK/GD32VW55X_Wifi_BLE_SDK/GD32VW55x_RELEASE_V1.0.2/MSDK/wpa_supplicant/src/tls\tlsv1_cred.c **** 		wpa_printf(MSG_INFO, "TLSv1: Failed to parse private key");
 775              		.loc 1 1018 5 is_stmt 0
 776 01aa 0DF8     		bne	s0,zero,.L47
 777 01ac 5DBD     		j	.L45
 778              		.cfi_endproc
 779              	.LFE96:
 781              		.section	.rodata.tlsv1_set_cert_chain.str1.4,"aMS",@progbits,1
 782              		.align	2
 783              	.LC18:
 784 0000 544C5376 		.string	"TLSv1: Failed to read '%s'"
 784      313A2046 
 784      61696C65 
 784      6420746F 
 784      20726561 
 785              		.section	.text.tlsv1_set_cert_chain,"ax",@progbits
 786              		.align	1
 788              	tlsv1_set_cert_chain:
 789              	.LFB91:
 160:C:/Users/stapi/OneDrive/Desktop/GD32VW553/V1_MQTT_OK/GD32VW55X_Wifi_BLE_SDK/GD32VW55x_RELEASE_V1.0.2/MSDK/wpa_supplicant/src/tls\tlsv1_cred.c **** 	if (cert_blob)
 790              		.loc 1 160 1 is_stmt 1
 791              		.cfi_startproc
 792              	.LVL95:
 793 0000 17030000 		call	t0,__riscv_save_4
 793      E7020300 
 794              		.cfi_offset 19, -20
 795              		.cfi_offset 18, -16
 796              		.cfi_offset 9, -12
 797              		.cfi_offset 8, -8
 798              		.cfi_offset 1, -4
 799              		.cfi_def_cfa_offset 32
 800 0008 2E89     		mv	s2,a1
 801 000a 4111     		addi	sp,sp,-16
 802              		.cfi_def_cfa_offset 48
 160:C:/Users/stapi/OneDrive/Desktop/GD32VW553/V1_MQTT_OK/GD32VW55X_Wifi_BLE_SDK/GD32VW55x_RELEASE_V1.0.2/MSDK/wpa_supplicant/src/tls\tlsv1_cred.c **** 	if (cert_blob)
 803              		.loc 1 160 1 is_stmt 0
 804 000c B285     		mv	a1,a2
 805              	.LVL96:
 161:C:/Users/stapi/OneDrive/Desktop/GD32VW553/V1_MQTT_OK/GD32VW55X_Wifi_BLE_SDK/GD32VW55x_RELEASE_V1.0.2/MSDK/wpa_supplicant/src/tls\tlsv1_cred.c **** 		return tlsv1_add_cert(chain, cert_blob, cert_blob_len);
 806              		.loc 1 161 2 is_stmt 1
 161:C:/Users/stapi/OneDrive/Desktop/GD32VW553/V1_MQTT_OK/GD32VW55X_Wifi_BLE_SDK/GD32VW55x_RELEASE_V1.0.2/MSDK/wpa_supplicant/src/tls\tlsv1_cred.c **** 		return tlsv1_add_cert(chain, cert_blob, cert_blob_len);
 807              		.loc 1 161 5 is_stmt 0
 808 000e 09CE     		beq	a2,zero,.L73
 809 0010 3686     		mv	a2,a3
 810              	.LVL97:
 162:C:/Users/stapi/OneDrive/Desktop/GD32VW553/V1_MQTT_OK/GD32VW55X_Wifi_BLE_SDK/GD32VW55x_RELEASE_V1.0.2/MSDK/wpa_supplicant/src/tls\tlsv1_cred.c **** 
 811              		.loc 1 162 3 is_stmt 1
 162:C:/Users/stapi/OneDrive/Desktop/GD32VW553/V1_MQTT_OK/GD32VW55X_Wifi_BLE_SDK/GD32VW55x_RELEASE_V1.0.2/MSDK/wpa_supplicant/src/tls\tlsv1_cred.c **** 
 812              		.loc 1 162 10 is_stmt 0
 813 0012 97000000 		call	tlsv1_add_cert
 813      E7800000 
 814              	.LVL98:
 815 001a 2A84     		mv	s0,a0
 816              	.L72:
 182:C:/Users/stapi/OneDrive/Desktop/GD32VW553/V1_MQTT_OK/GD32VW55X_Wifi_BLE_SDK/GD32VW55x_RELEASE_V1.0.2/MSDK/wpa_supplicant/src/tls\tlsv1_cred.c **** 
 817              		.loc 1 182 1
 818 001c 2285     		mv	a0,s0
 819 001e 4101     		addi	sp,sp,16
 820              		.cfi_remember_state
 821              		.cfi_def_cfa_offset 0
 822 0020 17030000 		tail	__riscv_restore_4
 822      67000300 
 823              		.cfi_restore 19
 824              		.cfi_restore 18
 825              		.cfi_restore 9
 826              		.cfi_restore 8
 827              		.cfi_restore 1
 828              		.cfi_def_cfa_offset -32
 829              	.LVL99:
 830              	.L73:
 831              		.cfi_restore_state
 164:C:/Users/stapi/OneDrive/Desktop/GD32VW553/V1_MQTT_OK/GD32VW55X_Wifi_BLE_SDK/GD32VW55x_RELEASE_V1.0.2/MSDK/wpa_supplicant/src/tls\tlsv1_cred.c **** 		u8 *buf;
 832              		.loc 1 164 2 is_stmt 1
 181:C:/Users/stapi/OneDrive/Desktop/GD32VW553/V1_MQTT_OK/GD32VW55X_Wifi_BLE_SDK/GD32VW55x_RELEASE_V1.0.2/MSDK/wpa_supplicant/src/tls\tlsv1_cred.c **** }
 833              		.loc 1 181 9 is_stmt 0
 834 0028 0144     		li	s0,0
 164:C:/Users/stapi/OneDrive/Desktop/GD32VW553/V1_MQTT_OK/GD32VW55X_Wifi_BLE_SDK/GD32VW55x_RELEASE_V1.0.2/MSDK/wpa_supplicant/src/tls\tlsv1_cred.c **** 		u8 *buf;
 835              		.loc 1 164 5
 836 002a E30909FE 		beq	s2,zero,.L72
 837 002e AA89     		mv	s3,a0
 838              	.LVL100:
 839              	.LBB23:
 840              	.LBB24:
 165:C:/Users/stapi/OneDrive/Desktop/GD32VW553/V1_MQTT_OK/GD32VW55X_Wifi_BLE_SDK/GD32VW55x_RELEASE_V1.0.2/MSDK/wpa_supplicant/src/tls\tlsv1_cred.c **** 		size_t len;
 841              		.loc 1 165 3 is_stmt 1
 166:C:/Users/stapi/OneDrive/Desktop/GD32VW553/V1_MQTT_OK/GD32VW55X_Wifi_BLE_SDK/GD32VW55x_RELEASE_V1.0.2/MSDK/wpa_supplicant/src/tls\tlsv1_cred.c **** 		int ret;
 842              		.loc 1 166 3
 167:C:/Users/stapi/OneDrive/Desktop/GD32VW553/V1_MQTT_OK/GD32VW55X_Wifi_BLE_SDK/GD32VW55x_RELEASE_V1.0.2/MSDK/wpa_supplicant/src/tls\tlsv1_cred.c **** 
 843              		.loc 1 167 3
 169:C:/Users/stapi/OneDrive/Desktop/GD32VW553/V1_MQTT_OK/GD32VW55X_Wifi_BLE_SDK/GD32VW55x_RELEASE_V1.0.2/MSDK/wpa_supplicant/src/tls\tlsv1_cred.c **** 		if (buf == NULL) {
 844              		.loc 1 169 3
 169:C:/Users/stapi/OneDrive/Desktop/GD32VW553/V1_MQTT_OK/GD32VW55X_Wifi_BLE_SDK/GD32VW55x_RELEASE_V1.0.2/MSDK/wpa_supplicant/src/tls\tlsv1_cred.c **** 		if (buf == NULL) {
 845              		.loc 1 169 16 is_stmt 0
 846 0030 6C00     		addi	a1,sp,12
 847              	.LVL101:
 848 0032 4A85     		mv	a0,s2
 849              	.LVL102:
 850 0034 97000000 		call	os_readfile
 850      E7800000 
 851              	.LVL103:
 852 003c AA84     		mv	s1,a0
 853              	.LVL104:
 170:C:/Users/stapi/OneDrive/Desktop/GD32VW553/V1_MQTT_OK/GD32VW55X_Wifi_BLE_SDK/GD32VW55x_RELEASE_V1.0.2/MSDK/wpa_supplicant/src/tls\tlsv1_cred.c **** 			wpa_printf(MSG_INFO, "TLSv1: Failed to read '%s'",
 854              		.loc 1 170 3 is_stmt 1
 170:C:/Users/stapi/OneDrive/Desktop/GD32VW553/V1_MQTT_OK/GD32VW55X_Wifi_BLE_SDK/GD32VW55x_RELEASE_V1.0.2/MSDK/wpa_supplicant/src/tls\tlsv1_cred.c **** 			wpa_printf(MSG_INFO, "TLSv1: Failed to read '%s'",
 855              		.loc 1 170 6 is_stmt 0
 856 003e 09ED     		bne	a0,zero,.L75
 171:C:/Users/stapi/OneDrive/Desktop/GD32VW553/V1_MQTT_OK/GD32VW55X_Wifi_BLE_SDK/GD32VW55x_RELEASE_V1.0.2/MSDK/wpa_supplicant/src/tls\tlsv1_cred.c **** 				   cert);
 857              		.loc 1 171 4 is_stmt 1
 858 0040 B7050000 		lui	a1,%hi(.LC18)
 859 0044 4A86     		mv	a2,s2
 860 0046 93850500 		addi	a1,a1,%lo(.LC18)
 861 004a 0D45     		li	a0,3
 862 004c 97000000 		call	wpa_printf
 862      E7800000 
 863              	.LVL105:
 173:C:/Users/stapi/OneDrive/Desktop/GD32VW553/V1_MQTT_OK/GD32VW55X_Wifi_BLE_SDK/GD32VW55x_RELEASE_V1.0.2/MSDK/wpa_supplicant/src/tls\tlsv1_cred.c **** 		}
 864              		.loc 1 173 4
 173:C:/Users/stapi/OneDrive/Desktop/GD32VW553/V1_MQTT_OK/GD32VW55X_Wifi_BLE_SDK/GD32VW55x_RELEASE_V1.0.2/MSDK/wpa_supplicant/src/tls\tlsv1_cred.c **** 		}
 865              		.loc 1 173 11 is_stmt 0
 866 0054 7D54     		li	s0,-1
 867 0056 D9B7     		j	.L72
 868              	.L75:
 176:C:/Users/stapi/OneDrive/Desktop/GD32VW553/V1_MQTT_OK/GD32VW55X_Wifi_BLE_SDK/GD32VW55x_RELEASE_V1.0.2/MSDK/wpa_supplicant/src/tls\tlsv1_cred.c **** 		os_free(buf);
 869              		.loc 1 176 3 is_stmt 1
 176:C:/Users/stapi/OneDrive/Desktop/GD32VW553/V1_MQTT_OK/GD32VW55X_Wifi_BLE_SDK/GD32VW55x_RELEASE_V1.0.2/MSDK/wpa_supplicant/src/tls\tlsv1_cred.c **** 		os_free(buf);
 870              		.loc 1 176 9 is_stmt 0
 871 0058 3246     		lw	a2,12(sp)
 872 005a AA85     		mv	a1,a0
 873 005c 4E85     		mv	a0,s3
 874 005e 97000000 		call	tlsv1_add_cert
 874      E7800000 
 875              	.LVL106:
 876 0066 2A84     		mv	s0,a0
 877              	.LVL107:
 177:C:/Users/stapi/OneDrive/Desktop/GD32VW553/V1_MQTT_OK/GD32VW55X_Wifi_BLE_SDK/GD32VW55x_RELEASE_V1.0.2/MSDK/wpa_supplicant/src/tls\tlsv1_cred.c **** 		return ret;
 878              		.loc 1 177 3 is_stmt 1
 879 0068 2685     		mv	a0,s1
 880 006a 97000000 		call	os_free
 880      E7800000 
 881              	.LVL108:
 178:C:/Users/stapi/OneDrive/Desktop/GD32VW553/V1_MQTT_OK/GD32VW55X_Wifi_BLE_SDK/GD32VW55x_RELEASE_V1.0.2/MSDK/wpa_supplicant/src/tls\tlsv1_cred.c **** 	}
 882              		.loc 1 178 3
 178:C:/Users/stapi/OneDrive/Desktop/GD32VW553/V1_MQTT_OK/GD32VW55X_Wifi_BLE_SDK/GD32VW55x_RELEASE_V1.0.2/MSDK/wpa_supplicant/src/tls\tlsv1_cred.c **** 	}
 883              		.loc 1 178 10 is_stmt 0
 884 0072 6DB7     		j	.L72
 885              	.LBE24:
 886              	.LBE23:
 887              		.cfi_endproc
 888              	.LFE91:
 890              		.section	.rodata.tlsv1_set_dhparams_der.str1.4,"aMS",@progbits,1
 891              		.align	2
 892              	.LC19:
 893 0000 44483A20 		.string	"DH: DH parameters did not start with a valid SEQUENCE"
 893      44482070 
 893      6172616D 
 893      65746572 
 893      73206469 
 894 0036 0000     		.align	2
 895              	.LC20:
 896 0038 44483A20 		.string	"DH: prime (p)"
 896      7072696D 
 896      65202870 
 896      2900
 897 0046 0000     		.align	2
 898              	.LC21:
 899 0048 44483A20 		.string	"DH: No INTEGER tag found for p"
 899      4E6F2049 
 899      4E544547 
 899      45522074 
 899      61672066 
 900 0067 00       		.align	2
 901              	.LC22:
 902 0068 44483A20 		.string	"DH: base (g)"
 902      62617365 
 902      20286729 
 902      00
 903 0075 000000   		.align	2
 904              	.LC23:
 905 0078 44483A20 		.string	"DH: No INTEGER tag found for g"
 905      4E6F2049 
 905      4E544547 
 905      45522074 
 905      61672066 
 906              		.section	.text.tlsv1_set_dhparams_der,"ax",@progbits
 907              		.align	1
 909              	tlsv1_set_dhparams_der:
 910              	.LFB98:
1024:C:/Users/stapi/OneDrive/Desktop/GD32VW553/V1_MQTT_OK/GD32VW55X_Wifi_BLE_SDK/GD32VW55x_RELEASE_V1.0.2/MSDK/wpa_supplicant/src/tls\tlsv1_cred.c **** 
1025:C:/Users/stapi/OneDrive/Desktop/GD32VW553/V1_MQTT_OK/GD32VW55X_Wifi_BLE_SDK/GD32VW55x_RELEASE_V1.0.2/MSDK/wpa_supplicant/src/tls\tlsv1_cred.c **** 
1026:C:/Users/stapi/OneDrive/Desktop/GD32VW553/V1_MQTT_OK/GD32VW55X_Wifi_BLE_SDK/GD32VW55x_RELEASE_V1.0.2/MSDK/wpa_supplicant/src/tls\tlsv1_cred.c **** /**
1027:C:/Users/stapi/OneDrive/Desktop/GD32VW553/V1_MQTT_OK/GD32VW55X_Wifi_BLE_SDK/GD32VW55x_RELEASE_V1.0.2/MSDK/wpa_supplicant/src/tls\tlsv1_cred.c ****  * tlsv1_set_private_key - Set private key
1028:C:/Users/stapi/OneDrive/Desktop/GD32VW553/V1_MQTT_OK/GD32VW55X_Wifi_BLE_SDK/GD32VW55x_RELEASE_V1.0.2/MSDK/wpa_supplicant/src/tls\tlsv1_cred.c ****  * @cred: TLSv1 credentials from tlsv1_cred_alloc()
1029:C:/Users/stapi/OneDrive/Desktop/GD32VW553/V1_MQTT_OK/GD32VW55X_Wifi_BLE_SDK/GD32VW55x_RELEASE_V1.0.2/MSDK/wpa_supplicant/src/tls\tlsv1_cred.c ****  * @private_key: File or reference name for the key in PEM or DER format
1030:C:/Users/stapi/OneDrive/Desktop/GD32VW553/V1_MQTT_OK/GD32VW55X_Wifi_BLE_SDK/GD32VW55x_RELEASE_V1.0.2/MSDK/wpa_supplicant/src/tls\tlsv1_cred.c ****  * @private_key_passwd: Passphrase for decrypted private key, %NULL if no
1031:C:/Users/stapi/OneDrive/Desktop/GD32VW553/V1_MQTT_OK/GD32VW55X_Wifi_BLE_SDK/GD32VW55x_RELEASE_V1.0.2/MSDK/wpa_supplicant/src/tls\tlsv1_cred.c ****  * passphrase is used.
1032:C:/Users/stapi/OneDrive/Desktop/GD32VW553/V1_MQTT_OK/GD32VW55X_Wifi_BLE_SDK/GD32VW55x_RELEASE_V1.0.2/MSDK/wpa_supplicant/src/tls\tlsv1_cred.c ****  * @private_key_blob: private_key as inlined data or %NULL if not used
1033:C:/Users/stapi/OneDrive/Desktop/GD32VW553/V1_MQTT_OK/GD32VW55X_Wifi_BLE_SDK/GD32VW55x_RELEASE_V1.0.2/MSDK/wpa_supplicant/src/tls\tlsv1_cred.c ****  * @private_key_blob_len: private_key_blob length
1034:C:/Users/stapi/OneDrive/Desktop/GD32VW553/V1_MQTT_OK/GD32VW55X_Wifi_BLE_SDK/GD32VW55x_RELEASE_V1.0.2/MSDK/wpa_supplicant/src/tls\tlsv1_cred.c ****  * Returns: 0 on success, -1 on failure
1035:C:/Users/stapi/OneDrive/Desktop/GD32VW553/V1_MQTT_OK/GD32VW55X_Wifi_BLE_SDK/GD32VW55x_RELEASE_V1.0.2/MSDK/wpa_supplicant/src/tls\tlsv1_cred.c ****  */
1036:C:/Users/stapi/OneDrive/Desktop/GD32VW553/V1_MQTT_OK/GD32VW55X_Wifi_BLE_SDK/GD32VW55x_RELEASE_V1.0.2/MSDK/wpa_supplicant/src/tls\tlsv1_cred.c **** int tlsv1_set_private_key(struct tlsv1_credentials *cred,
1037:C:/Users/stapi/OneDrive/Desktop/GD32VW553/V1_MQTT_OK/GD32VW55X_Wifi_BLE_SDK/GD32VW55x_RELEASE_V1.0.2/MSDK/wpa_supplicant/src/tls\tlsv1_cred.c **** 			  const char *private_key,
1038:C:/Users/stapi/OneDrive/Desktop/GD32VW553/V1_MQTT_OK/GD32VW55X_Wifi_BLE_SDK/GD32VW55x_RELEASE_V1.0.2/MSDK/wpa_supplicant/src/tls\tlsv1_cred.c **** 			  const char *private_key_passwd,
1039:C:/Users/stapi/OneDrive/Desktop/GD32VW553/V1_MQTT_OK/GD32VW55X_Wifi_BLE_SDK/GD32VW55x_RELEASE_V1.0.2/MSDK/wpa_supplicant/src/tls\tlsv1_cred.c **** 			  const u8 *private_key_blob,
1040:C:/Users/stapi/OneDrive/Desktop/GD32VW553/V1_MQTT_OK/GD32VW55X_Wifi_BLE_SDK/GD32VW55x_RELEASE_V1.0.2/MSDK/wpa_supplicant/src/tls\tlsv1_cred.c **** 			  size_t private_key_blob_len)
1041:C:/Users/stapi/OneDrive/Desktop/GD32VW553/V1_MQTT_OK/GD32VW55X_Wifi_BLE_SDK/GD32VW55x_RELEASE_V1.0.2/MSDK/wpa_supplicant/src/tls\tlsv1_cred.c **** {
1042:C:/Users/stapi/OneDrive/Desktop/GD32VW553/V1_MQTT_OK/GD32VW55X_Wifi_BLE_SDK/GD32VW55x_RELEASE_V1.0.2/MSDK/wpa_supplicant/src/tls\tlsv1_cred.c **** 	crypto_private_key_free(cred->key);
1043:C:/Users/stapi/OneDrive/Desktop/GD32VW553/V1_MQTT_OK/GD32VW55X_Wifi_BLE_SDK/GD32VW55x_RELEASE_V1.0.2/MSDK/wpa_supplicant/src/tls\tlsv1_cred.c **** 	cred->key = NULL;
1044:C:/Users/stapi/OneDrive/Desktop/GD32VW553/V1_MQTT_OK/GD32VW55X_Wifi_BLE_SDK/GD32VW55x_RELEASE_V1.0.2/MSDK/wpa_supplicant/src/tls\tlsv1_cred.c **** 
1045:C:/Users/stapi/OneDrive/Desktop/GD32VW553/V1_MQTT_OK/GD32VW55X_Wifi_BLE_SDK/GD32VW55x_RELEASE_V1.0.2/MSDK/wpa_supplicant/src/tls\tlsv1_cred.c **** 	if (private_key_blob)
1046:C:/Users/stapi/OneDrive/Desktop/GD32VW553/V1_MQTT_OK/GD32VW55X_Wifi_BLE_SDK/GD32VW55x_RELEASE_V1.0.2/MSDK/wpa_supplicant/src/tls\tlsv1_cred.c **** 		return tlsv1_set_key(cred, private_key_blob,
1047:C:/Users/stapi/OneDrive/Desktop/GD32VW553/V1_MQTT_OK/GD32VW55X_Wifi_BLE_SDK/GD32VW55x_RELEASE_V1.0.2/MSDK/wpa_supplicant/src/tls\tlsv1_cred.c **** 				     private_key_blob_len,
1048:C:/Users/stapi/OneDrive/Desktop/GD32VW553/V1_MQTT_OK/GD32VW55X_Wifi_BLE_SDK/GD32VW55x_RELEASE_V1.0.2/MSDK/wpa_supplicant/src/tls\tlsv1_cred.c **** 				     private_key_passwd);
1049:C:/Users/stapi/OneDrive/Desktop/GD32VW553/V1_MQTT_OK/GD32VW55X_Wifi_BLE_SDK/GD32VW55x_RELEASE_V1.0.2/MSDK/wpa_supplicant/src/tls\tlsv1_cred.c **** 
1050:C:/Users/stapi/OneDrive/Desktop/GD32VW553/V1_MQTT_OK/GD32VW55X_Wifi_BLE_SDK/GD32VW55x_RELEASE_V1.0.2/MSDK/wpa_supplicant/src/tls\tlsv1_cred.c **** 	if (private_key) {
1051:C:/Users/stapi/OneDrive/Desktop/GD32VW553/V1_MQTT_OK/GD32VW55X_Wifi_BLE_SDK/GD32VW55x_RELEASE_V1.0.2/MSDK/wpa_supplicant/src/tls\tlsv1_cred.c **** 		u8 *buf;
1052:C:/Users/stapi/OneDrive/Desktop/GD32VW553/V1_MQTT_OK/GD32VW55X_Wifi_BLE_SDK/GD32VW55x_RELEASE_V1.0.2/MSDK/wpa_supplicant/src/tls\tlsv1_cred.c **** 		size_t len;
1053:C:/Users/stapi/OneDrive/Desktop/GD32VW553/V1_MQTT_OK/GD32VW55X_Wifi_BLE_SDK/GD32VW55x_RELEASE_V1.0.2/MSDK/wpa_supplicant/src/tls\tlsv1_cred.c **** 		int ret;
1054:C:/Users/stapi/OneDrive/Desktop/GD32VW553/V1_MQTT_OK/GD32VW55X_Wifi_BLE_SDK/GD32VW55x_RELEASE_V1.0.2/MSDK/wpa_supplicant/src/tls\tlsv1_cred.c **** 
1055:C:/Users/stapi/OneDrive/Desktop/GD32VW553/V1_MQTT_OK/GD32VW55X_Wifi_BLE_SDK/GD32VW55x_RELEASE_V1.0.2/MSDK/wpa_supplicant/src/tls\tlsv1_cred.c **** 		buf = (u8 *) os_readfile(private_key, &len);
1056:C:/Users/stapi/OneDrive/Desktop/GD32VW553/V1_MQTT_OK/GD32VW55X_Wifi_BLE_SDK/GD32VW55x_RELEASE_V1.0.2/MSDK/wpa_supplicant/src/tls\tlsv1_cred.c **** 		if (buf == NULL) {
1057:C:/Users/stapi/OneDrive/Desktop/GD32VW553/V1_MQTT_OK/GD32VW55X_Wifi_BLE_SDK/GD32VW55x_RELEASE_V1.0.2/MSDK/wpa_supplicant/src/tls\tlsv1_cred.c **** 			wpa_printf(MSG_INFO, "TLSv1: Failed to read '%s'",
1058:C:/Users/stapi/OneDrive/Desktop/GD32VW553/V1_MQTT_OK/GD32VW55X_Wifi_BLE_SDK/GD32VW55x_RELEASE_V1.0.2/MSDK/wpa_supplicant/src/tls\tlsv1_cred.c **** 				   private_key);
1059:C:/Users/stapi/OneDrive/Desktop/GD32VW553/V1_MQTT_OK/GD32VW55X_Wifi_BLE_SDK/GD32VW55x_RELEASE_V1.0.2/MSDK/wpa_supplicant/src/tls\tlsv1_cred.c **** 			return -1;
1060:C:/Users/stapi/OneDrive/Desktop/GD32VW553/V1_MQTT_OK/GD32VW55X_Wifi_BLE_SDK/GD32VW55x_RELEASE_V1.0.2/MSDK/wpa_supplicant/src/tls\tlsv1_cred.c **** 		}
1061:C:/Users/stapi/OneDrive/Desktop/GD32VW553/V1_MQTT_OK/GD32VW55X_Wifi_BLE_SDK/GD32VW55x_RELEASE_V1.0.2/MSDK/wpa_supplicant/src/tls\tlsv1_cred.c **** 
1062:C:/Users/stapi/OneDrive/Desktop/GD32VW553/V1_MQTT_OK/GD32VW55X_Wifi_BLE_SDK/GD32VW55x_RELEASE_V1.0.2/MSDK/wpa_supplicant/src/tls\tlsv1_cred.c **** 		ret = tlsv1_set_key(cred, buf, len, private_key_passwd);
1063:C:/Users/stapi/OneDrive/Desktop/GD32VW553/V1_MQTT_OK/GD32VW55X_Wifi_BLE_SDK/GD32VW55x_RELEASE_V1.0.2/MSDK/wpa_supplicant/src/tls\tlsv1_cred.c **** 		os_free(buf);
1064:C:/Users/stapi/OneDrive/Desktop/GD32VW553/V1_MQTT_OK/GD32VW55X_Wifi_BLE_SDK/GD32VW55x_RELEASE_V1.0.2/MSDK/wpa_supplicant/src/tls\tlsv1_cred.c **** 		return ret;
1065:C:/Users/stapi/OneDrive/Desktop/GD32VW553/V1_MQTT_OK/GD32VW55X_Wifi_BLE_SDK/GD32VW55x_RELEASE_V1.0.2/MSDK/wpa_supplicant/src/tls\tlsv1_cred.c **** 	}
1066:C:/Users/stapi/OneDrive/Desktop/GD32VW553/V1_MQTT_OK/GD32VW55X_Wifi_BLE_SDK/GD32VW55x_RELEASE_V1.0.2/MSDK/wpa_supplicant/src/tls\tlsv1_cred.c **** 
1067:C:/Users/stapi/OneDrive/Desktop/GD32VW553/V1_MQTT_OK/GD32VW55X_Wifi_BLE_SDK/GD32VW55x_RELEASE_V1.0.2/MSDK/wpa_supplicant/src/tls\tlsv1_cred.c **** 	return 0;
1068:C:/Users/stapi/OneDrive/Desktop/GD32VW553/V1_MQTT_OK/GD32VW55X_Wifi_BLE_SDK/GD32VW55x_RELEASE_V1.0.2/MSDK/wpa_supplicant/src/tls\tlsv1_cred.c **** }
1069:C:/Users/stapi/OneDrive/Desktop/GD32VW553/V1_MQTT_OK/GD32VW55X_Wifi_BLE_SDK/GD32VW55x_RELEASE_V1.0.2/MSDK/wpa_supplicant/src/tls\tlsv1_cred.c **** 
1070:C:/Users/stapi/OneDrive/Desktop/GD32VW553/V1_MQTT_OK/GD32VW55X_Wifi_BLE_SDK/GD32VW55x_RELEASE_V1.0.2/MSDK/wpa_supplicant/src/tls\tlsv1_cred.c **** 
1071:C:/Users/stapi/OneDrive/Desktop/GD32VW553/V1_MQTT_OK/GD32VW55X_Wifi_BLE_SDK/GD32VW55x_RELEASE_V1.0.2/MSDK/wpa_supplicant/src/tls\tlsv1_cred.c **** static int tlsv1_set_dhparams_der(struct tlsv1_credentials *cred,
1072:C:/Users/stapi/OneDrive/Desktop/GD32VW553/V1_MQTT_OK/GD32VW55X_Wifi_BLE_SDK/GD32VW55x_RELEASE_V1.0.2/MSDK/wpa_supplicant/src/tls\tlsv1_cred.c **** 				  const u8 *dh, size_t len)
1073:C:/Users/stapi/OneDrive/Desktop/GD32VW553/V1_MQTT_OK/GD32VW55X_Wifi_BLE_SDK/GD32VW55x_RELEASE_V1.0.2/MSDK/wpa_supplicant/src/tls\tlsv1_cred.c **** {
 911              		.loc 1 1073 1 is_stmt 1
 912              		.cfi_startproc
 913              	.LVL109:
 914 0000 17030000 		call	t0,__riscv_save_2
 914      E7020300 
 915              		.cfi_offset 9, -12
 916              		.cfi_offset 8, -8
 917              		.cfi_offset 1, -4
 918              		.cfi_def_cfa_offset 16
1074:C:/Users/stapi/OneDrive/Desktop/GD32VW553/V1_MQTT_OK/GD32VW55X_Wifi_BLE_SDK/GD32VW55x_RELEASE_V1.0.2/MSDK/wpa_supplicant/src/tls\tlsv1_cred.c **** 	struct asn1_hdr hdr;
 919              		.loc 1 1074 2
1075:C:/Users/stapi/OneDrive/Desktop/GD32VW553/V1_MQTT_OK/GD32VW55X_Wifi_BLE_SDK/GD32VW55x_RELEASE_V1.0.2/MSDK/wpa_supplicant/src/tls\tlsv1_cred.c **** 	const u8 *pos, *end;
 920              		.loc 1 1075 2
1076:C:/Users/stapi/OneDrive/Desktop/GD32VW553/V1_MQTT_OK/GD32VW55X_Wifi_BLE_SDK/GD32VW55x_RELEASE_V1.0.2/MSDK/wpa_supplicant/src/tls\tlsv1_cred.c **** 
1077:C:/Users/stapi/OneDrive/Desktop/GD32VW553/V1_MQTT_OK/GD32VW55X_Wifi_BLE_SDK/GD32VW55x_RELEASE_V1.0.2/MSDK/wpa_supplicant/src/tls\tlsv1_cred.c **** 	pos = dh;
 921              		.loc 1 1077 2
1073:C:/Users/stapi/OneDrive/Desktop/GD32VW553/V1_MQTT_OK/GD32VW55X_Wifi_BLE_SDK/GD32VW55x_RELEASE_V1.0.2/MSDK/wpa_supplicant/src/tls\tlsv1_cred.c **** 	struct asn1_hdr hdr;
 922              		.loc 1 1073 1 is_stmt 0
 923 0008 4111     		addi	sp,sp,-16
 924              		.cfi_def_cfa_offset 32
1073:C:/Users/stapi/OneDrive/Desktop/GD32VW553/V1_MQTT_OK/GD32VW55X_Wifi_BLE_SDK/GD32VW55x_RELEASE_V1.0.2/MSDK/wpa_supplicant/src/tls\tlsv1_cred.c **** 	struct asn1_hdr hdr;
 925              		.loc 1 1073 1
 926 000a 2A84     		mv	s0,a0
 927 000c 2E85     		mv	a0,a1
 928              	.LVL110:
1078:C:/Users/stapi/OneDrive/Desktop/GD32VW553/V1_MQTT_OK/GD32VW55X_Wifi_BLE_SDK/GD32VW55x_RELEASE_V1.0.2/MSDK/wpa_supplicant/src/tls\tlsv1_cred.c **** 	end = dh + len;
 929              		.loc 1 1078 2 is_stmt 1
 930              		.loc 1 1078 6 is_stmt 0
 931 000e B304C500 		add	s1,a0,a2
 932              	.LVL111:
1079:C:/Users/stapi/OneDrive/Desktop/GD32VW553/V1_MQTT_OK/GD32VW55X_Wifi_BLE_SDK/GD32VW55x_RELEASE_V1.0.2/MSDK/wpa_supplicant/src/tls\tlsv1_cred.c **** 
1080:C:/Users/stapi/OneDrive/Desktop/GD32VW553/V1_MQTT_OK/GD32VW55X_Wifi_BLE_SDK/GD32VW55x_RELEASE_V1.0.2/MSDK/wpa_supplicant/src/tls\tlsv1_cred.c **** 	/*
1081:C:/Users/stapi/OneDrive/Desktop/GD32VW553/V1_MQTT_OK/GD32VW55X_Wifi_BLE_SDK/GD32VW55x_RELEASE_V1.0.2/MSDK/wpa_supplicant/src/tls\tlsv1_cred.c **** 	 * DHParameter ::= SEQUENCE {
1082:C:/Users/stapi/OneDrive/Desktop/GD32VW553/V1_MQTT_OK/GD32VW55X_Wifi_BLE_SDK/GD32VW55x_RELEASE_V1.0.2/MSDK/wpa_supplicant/src/tls\tlsv1_cred.c **** 	 *   prime INTEGER, -- p
1083:C:/Users/stapi/OneDrive/Desktop/GD32VW553/V1_MQTT_OK/GD32VW55X_Wifi_BLE_SDK/GD32VW55x_RELEASE_V1.0.2/MSDK/wpa_supplicant/src/tls\tlsv1_cred.c **** 	 *   base INTEGER, -- g
1084:C:/Users/stapi/OneDrive/Desktop/GD32VW553/V1_MQTT_OK/GD32VW55X_Wifi_BLE_SDK/GD32VW55x_RELEASE_V1.0.2/MSDK/wpa_supplicant/src/tls\tlsv1_cred.c **** 	 *   privateValueLength INTEGER OPTIONAL }
1085:C:/Users/stapi/OneDrive/Desktop/GD32VW553/V1_MQTT_OK/GD32VW55X_Wifi_BLE_SDK/GD32VW55x_RELEASE_V1.0.2/MSDK/wpa_supplicant/src/tls\tlsv1_cred.c **** 	 */
1086:C:/Users/stapi/OneDrive/Desktop/GD32VW553/V1_MQTT_OK/GD32VW55X_Wifi_BLE_SDK/GD32VW55x_RELEASE_V1.0.2/MSDK/wpa_supplicant/src/tls\tlsv1_cred.c **** 
1087:C:/Users/stapi/OneDrive/Desktop/GD32VW553/V1_MQTT_OK/GD32VW55X_Wifi_BLE_SDK/GD32VW55x_RELEASE_V1.0.2/MSDK/wpa_supplicant/src/tls\tlsv1_cred.c **** 	/* DHParamer ::= SEQUENCE */
1088:C:/Users/stapi/OneDrive/Desktop/GD32VW553/V1_MQTT_OK/GD32VW55X_Wifi_BLE_SDK/GD32VW55x_RELEASE_V1.0.2/MSDK/wpa_supplicant/src/tls\tlsv1_cred.c **** 	if (asn1_get_next(pos, len, &hdr) < 0 || !asn1_is_sequence(&hdr)) {
 933              		.loc 1 1088 2 is_stmt 1
1073:C:/Users/stapi/OneDrive/Desktop/GD32VW553/V1_MQTT_OK/GD32VW55X_Wifi_BLE_SDK/GD32VW55x_RELEASE_V1.0.2/MSDK/wpa_supplicant/src/tls\tlsv1_cred.c **** 	struct asn1_hdr hdr;
 934              		.loc 1 1073 1 is_stmt 0
 935 0012 B285     		mv	a1,a2
 936              	.LVL112:
 937              		.loc 1 1088 6
 938 0014 0A86     		mv	a2,sp
 939              	.LVL113:
 940 0016 97000000 		call	asn1_get_next
 940      E7800000 
 941              	.LVL114:
 942              		.loc 1 1088 5
 943 001e 63480502 		blt	a0,zero,.L81
 944              	.LVL115:
 945              	.LBB31:
 946              	.LBB32:
 947              		.file 2 "C:/Users/stapi/OneDrive/Desktop/GD32VW553/V1_MQTT_OK/GD32VW55X_Wifi_BLE_SDK/GD32VW55x_REL
   1:C:/Users/stapi/OneDrive/Desktop/GD32VW553/V1_MQTT_OK/GD32VW55X_Wifi_BLE_SDK/GD32VW55x_RELEASE_V1.0.2/MSDK/wpa_supplicant/src/tls\asn1.h **** /*
   2:C:/Users/stapi/OneDrive/Desktop/GD32VW553/V1_MQTT_OK/GD32VW55X_Wifi_BLE_SDK/GD32VW55x_RELEASE_V1.0.2/MSDK/wpa_supplicant/src/tls\asn1.h ****  * ASN.1 DER parsing
   3:C:/Users/stapi/OneDrive/Desktop/GD32VW553/V1_MQTT_OK/GD32VW55X_Wifi_BLE_SDK/GD32VW55x_RELEASE_V1.0.2/MSDK/wpa_supplicant/src/tls\asn1.h ****  * Copyright (c) 2006, Jouni Malinen <j@w1.fi>
   4:C:/Users/stapi/OneDrive/Desktop/GD32VW553/V1_MQTT_OK/GD32VW55X_Wifi_BLE_SDK/GD32VW55x_RELEASE_V1.0.2/MSDK/wpa_supplicant/src/tls\asn1.h ****  *
   5:C:/Users/stapi/OneDrive/Desktop/GD32VW553/V1_MQTT_OK/GD32VW55X_Wifi_BLE_SDK/GD32VW55x_RELEASE_V1.0.2/MSDK/wpa_supplicant/src/tls\asn1.h ****  * This software may be distributed under the terms of the BSD license.
   6:C:/Users/stapi/OneDrive/Desktop/GD32VW553/V1_MQTT_OK/GD32VW55X_Wifi_BLE_SDK/GD32VW55x_RELEASE_V1.0.2/MSDK/wpa_supplicant/src/tls\asn1.h ****  * See README for more details.
   7:C:/Users/stapi/OneDrive/Desktop/GD32VW553/V1_MQTT_OK/GD32VW55X_Wifi_BLE_SDK/GD32VW55x_RELEASE_V1.0.2/MSDK/wpa_supplicant/src/tls\asn1.h ****  */
   8:C:/Users/stapi/OneDrive/Desktop/GD32VW553/V1_MQTT_OK/GD32VW55X_Wifi_BLE_SDK/GD32VW55x_RELEASE_V1.0.2/MSDK/wpa_supplicant/src/tls\asn1.h **** 
   9:C:/Users/stapi/OneDrive/Desktop/GD32VW553/V1_MQTT_OK/GD32VW55X_Wifi_BLE_SDK/GD32VW55x_RELEASE_V1.0.2/MSDK/wpa_supplicant/src/tls\asn1.h **** #ifndef ASN1_H
  10:C:/Users/stapi/OneDrive/Desktop/GD32VW553/V1_MQTT_OK/GD32VW55X_Wifi_BLE_SDK/GD32VW55x_RELEASE_V1.0.2/MSDK/wpa_supplicant/src/tls\asn1.h **** #define ASN1_H
  11:C:/Users/stapi/OneDrive/Desktop/GD32VW553/V1_MQTT_OK/GD32VW55X_Wifi_BLE_SDK/GD32VW55x_RELEASE_V1.0.2/MSDK/wpa_supplicant/src/tls\asn1.h **** 
  12:C:/Users/stapi/OneDrive/Desktop/GD32VW553/V1_MQTT_OK/GD32VW55X_Wifi_BLE_SDK/GD32VW55x_RELEASE_V1.0.2/MSDK/wpa_supplicant/src/tls\asn1.h **** #define ASN1_TAG_EOC		0x00 /* not used with DER */
  13:C:/Users/stapi/OneDrive/Desktop/GD32VW553/V1_MQTT_OK/GD32VW55X_Wifi_BLE_SDK/GD32VW55x_RELEASE_V1.0.2/MSDK/wpa_supplicant/src/tls\asn1.h **** #define ASN1_TAG_BOOLEAN	0x01
  14:C:/Users/stapi/OneDrive/Desktop/GD32VW553/V1_MQTT_OK/GD32VW55X_Wifi_BLE_SDK/GD32VW55x_RELEASE_V1.0.2/MSDK/wpa_supplicant/src/tls\asn1.h **** #define ASN1_TAG_INTEGER	0x02
  15:C:/Users/stapi/OneDrive/Desktop/GD32VW553/V1_MQTT_OK/GD32VW55X_Wifi_BLE_SDK/GD32VW55x_RELEASE_V1.0.2/MSDK/wpa_supplicant/src/tls\asn1.h **** #define ASN1_TAG_BITSTRING	0x03
  16:C:/Users/stapi/OneDrive/Desktop/GD32VW553/V1_MQTT_OK/GD32VW55X_Wifi_BLE_SDK/GD32VW55x_RELEASE_V1.0.2/MSDK/wpa_supplicant/src/tls\asn1.h **** #define ASN1_TAG_OCTETSTRING	0x04
  17:C:/Users/stapi/OneDrive/Desktop/GD32VW553/V1_MQTT_OK/GD32VW55X_Wifi_BLE_SDK/GD32VW55x_RELEASE_V1.0.2/MSDK/wpa_supplicant/src/tls\asn1.h **** #define ASN1_TAG_NULL		0x05
  18:C:/Users/stapi/OneDrive/Desktop/GD32VW553/V1_MQTT_OK/GD32VW55X_Wifi_BLE_SDK/GD32VW55x_RELEASE_V1.0.2/MSDK/wpa_supplicant/src/tls\asn1.h **** #define ASN1_TAG_OID		0x06
  19:C:/Users/stapi/OneDrive/Desktop/GD32VW553/V1_MQTT_OK/GD32VW55X_Wifi_BLE_SDK/GD32VW55x_RELEASE_V1.0.2/MSDK/wpa_supplicant/src/tls\asn1.h **** #define ASN1_TAG_OBJECT_DESCRIPTOR	0x07 /* not yet parsed */
  20:C:/Users/stapi/OneDrive/Desktop/GD32VW553/V1_MQTT_OK/GD32VW55X_Wifi_BLE_SDK/GD32VW55x_RELEASE_V1.0.2/MSDK/wpa_supplicant/src/tls\asn1.h **** #define ASN1_TAG_EXTERNAL	0x08 /* not yet parsed */
  21:C:/Users/stapi/OneDrive/Desktop/GD32VW553/V1_MQTT_OK/GD32VW55X_Wifi_BLE_SDK/GD32VW55x_RELEASE_V1.0.2/MSDK/wpa_supplicant/src/tls\asn1.h **** #define ASN1_TAG_REAL		0x09 /* not yet parsed */
  22:C:/Users/stapi/OneDrive/Desktop/GD32VW553/V1_MQTT_OK/GD32VW55X_Wifi_BLE_SDK/GD32VW55x_RELEASE_V1.0.2/MSDK/wpa_supplicant/src/tls\asn1.h **** #define ASN1_TAG_ENUMERATED	0x0A /* not yet parsed */
  23:C:/Users/stapi/OneDrive/Desktop/GD32VW553/V1_MQTT_OK/GD32VW55X_Wifi_BLE_SDK/GD32VW55x_RELEASE_V1.0.2/MSDK/wpa_supplicant/src/tls\asn1.h **** #define ASN1_TAG_EMBEDDED_PDV	0x0B /* not yet parsed */
  24:C:/Users/stapi/OneDrive/Desktop/GD32VW553/V1_MQTT_OK/GD32VW55X_Wifi_BLE_SDK/GD32VW55x_RELEASE_V1.0.2/MSDK/wpa_supplicant/src/tls\asn1.h **** #define ASN1_TAG_UTF8STRING	0x0C /* not yet parsed */
  25:C:/Users/stapi/OneDrive/Desktop/GD32VW553/V1_MQTT_OK/GD32VW55X_Wifi_BLE_SDK/GD32VW55x_RELEASE_V1.0.2/MSDK/wpa_supplicant/src/tls\asn1.h **** #define ANS1_TAG_RELATIVE_OID	0x0D
  26:C:/Users/stapi/OneDrive/Desktop/GD32VW553/V1_MQTT_OK/GD32VW55X_Wifi_BLE_SDK/GD32VW55x_RELEASE_V1.0.2/MSDK/wpa_supplicant/src/tls\asn1.h **** #define ASN1_TAG_TIME		0x0E
  27:C:/Users/stapi/OneDrive/Desktop/GD32VW553/V1_MQTT_OK/GD32VW55X_Wifi_BLE_SDK/GD32VW55x_RELEASE_V1.0.2/MSDK/wpa_supplicant/src/tls\asn1.h **** #define ASN1_TAG_SEQUENCE	0x10 /* shall be constructed */
  28:C:/Users/stapi/OneDrive/Desktop/GD32VW553/V1_MQTT_OK/GD32VW55X_Wifi_BLE_SDK/GD32VW55x_RELEASE_V1.0.2/MSDK/wpa_supplicant/src/tls\asn1.h **** #define ASN1_TAG_SET		0x11
  29:C:/Users/stapi/OneDrive/Desktop/GD32VW553/V1_MQTT_OK/GD32VW55X_Wifi_BLE_SDK/GD32VW55x_RELEASE_V1.0.2/MSDK/wpa_supplicant/src/tls\asn1.h **** #define ASN1_TAG_NUMERICSTRING	0x12 /* not yet parsed */
  30:C:/Users/stapi/OneDrive/Desktop/GD32VW553/V1_MQTT_OK/GD32VW55X_Wifi_BLE_SDK/GD32VW55x_RELEASE_V1.0.2/MSDK/wpa_supplicant/src/tls\asn1.h **** #define ASN1_TAG_PRINTABLESTRING	0x13
  31:C:/Users/stapi/OneDrive/Desktop/GD32VW553/V1_MQTT_OK/GD32VW55X_Wifi_BLE_SDK/GD32VW55x_RELEASE_V1.0.2/MSDK/wpa_supplicant/src/tls\asn1.h **** #define ASN1_TAG_T61STRING	0x14 /* not yet parsed */
  32:C:/Users/stapi/OneDrive/Desktop/GD32VW553/V1_MQTT_OK/GD32VW55X_Wifi_BLE_SDK/GD32VW55x_RELEASE_V1.0.2/MSDK/wpa_supplicant/src/tls\asn1.h **** #define ASN1_TAG_VIDEOTEXSTRING	0x15 /* not yet parsed */
  33:C:/Users/stapi/OneDrive/Desktop/GD32VW553/V1_MQTT_OK/GD32VW55X_Wifi_BLE_SDK/GD32VW55x_RELEASE_V1.0.2/MSDK/wpa_supplicant/src/tls\asn1.h **** #define ASN1_TAG_IA5STRING	0x16
  34:C:/Users/stapi/OneDrive/Desktop/GD32VW553/V1_MQTT_OK/GD32VW55X_Wifi_BLE_SDK/GD32VW55x_RELEASE_V1.0.2/MSDK/wpa_supplicant/src/tls\asn1.h **** #define ASN1_TAG_UTCTIME	0x17
  35:C:/Users/stapi/OneDrive/Desktop/GD32VW553/V1_MQTT_OK/GD32VW55X_Wifi_BLE_SDK/GD32VW55x_RELEASE_V1.0.2/MSDK/wpa_supplicant/src/tls\asn1.h **** #define ASN1_TAG_GENERALIZEDTIME	0x18 /* not yet parsed */
  36:C:/Users/stapi/OneDrive/Desktop/GD32VW553/V1_MQTT_OK/GD32VW55X_Wifi_BLE_SDK/GD32VW55x_RELEASE_V1.0.2/MSDK/wpa_supplicant/src/tls\asn1.h **** #define ASN1_TAG_GRAPHICSTRING	0x19 /* not yet parsed */
  37:C:/Users/stapi/OneDrive/Desktop/GD32VW553/V1_MQTT_OK/GD32VW55X_Wifi_BLE_SDK/GD32VW55x_RELEASE_V1.0.2/MSDK/wpa_supplicant/src/tls\asn1.h **** #define ASN1_TAG_VISIBLESTRING	0x1A
  38:C:/Users/stapi/OneDrive/Desktop/GD32VW553/V1_MQTT_OK/GD32VW55X_Wifi_BLE_SDK/GD32VW55x_RELEASE_V1.0.2/MSDK/wpa_supplicant/src/tls\asn1.h **** #define ASN1_TAG_GENERALSTRING	0x1B /* not yet parsed */
  39:C:/Users/stapi/OneDrive/Desktop/GD32VW553/V1_MQTT_OK/GD32VW55X_Wifi_BLE_SDK/GD32VW55x_RELEASE_V1.0.2/MSDK/wpa_supplicant/src/tls\asn1.h **** #define ASN1_TAG_UNIVERSALSTRING	0x1C /* not yet parsed */
  40:C:/Users/stapi/OneDrive/Desktop/GD32VW553/V1_MQTT_OK/GD32VW55X_Wifi_BLE_SDK/GD32VW55x_RELEASE_V1.0.2/MSDK/wpa_supplicant/src/tls\asn1.h **** #define ASN1_TAG_CHARACTERSTRING	0x1D /* not yet parsed */
  41:C:/Users/stapi/OneDrive/Desktop/GD32VW553/V1_MQTT_OK/GD32VW55X_Wifi_BLE_SDK/GD32VW55x_RELEASE_V1.0.2/MSDK/wpa_supplicant/src/tls\asn1.h **** #define ASN1_TAG_BMPSTRING	0x1E /* not yet parsed */
  42:C:/Users/stapi/OneDrive/Desktop/GD32VW553/V1_MQTT_OK/GD32VW55X_Wifi_BLE_SDK/GD32VW55x_RELEASE_V1.0.2/MSDK/wpa_supplicant/src/tls\asn1.h **** 
  43:C:/Users/stapi/OneDrive/Desktop/GD32VW553/V1_MQTT_OK/GD32VW55X_Wifi_BLE_SDK/GD32VW55x_RELEASE_V1.0.2/MSDK/wpa_supplicant/src/tls\asn1.h **** #define ASN1_CLASS_UNIVERSAL		0
  44:C:/Users/stapi/OneDrive/Desktop/GD32VW553/V1_MQTT_OK/GD32VW55X_Wifi_BLE_SDK/GD32VW55x_RELEASE_V1.0.2/MSDK/wpa_supplicant/src/tls\asn1.h **** #define ASN1_CLASS_APPLICATION		1
  45:C:/Users/stapi/OneDrive/Desktop/GD32VW553/V1_MQTT_OK/GD32VW55X_Wifi_BLE_SDK/GD32VW55x_RELEASE_V1.0.2/MSDK/wpa_supplicant/src/tls\asn1.h **** #define ASN1_CLASS_CONTEXT_SPECIFIC	2
  46:C:/Users/stapi/OneDrive/Desktop/GD32VW553/V1_MQTT_OK/GD32VW55X_Wifi_BLE_SDK/GD32VW55x_RELEASE_V1.0.2/MSDK/wpa_supplicant/src/tls\asn1.h **** #define ASN1_CLASS_PRIVATE		3
  47:C:/Users/stapi/OneDrive/Desktop/GD32VW553/V1_MQTT_OK/GD32VW55X_Wifi_BLE_SDK/GD32VW55x_RELEASE_V1.0.2/MSDK/wpa_supplicant/src/tls\asn1.h **** 
  48:C:/Users/stapi/OneDrive/Desktop/GD32VW553/V1_MQTT_OK/GD32VW55X_Wifi_BLE_SDK/GD32VW55x_RELEASE_V1.0.2/MSDK/wpa_supplicant/src/tls\asn1.h **** 
  49:C:/Users/stapi/OneDrive/Desktop/GD32VW553/V1_MQTT_OK/GD32VW55X_Wifi_BLE_SDK/GD32VW55x_RELEASE_V1.0.2/MSDK/wpa_supplicant/src/tls\asn1.h **** struct asn1_hdr {
  50:C:/Users/stapi/OneDrive/Desktop/GD32VW553/V1_MQTT_OK/GD32VW55X_Wifi_BLE_SDK/GD32VW55x_RELEASE_V1.0.2/MSDK/wpa_supplicant/src/tls\asn1.h **** 	const u8 *payload;
  51:C:/Users/stapi/OneDrive/Desktop/GD32VW553/V1_MQTT_OK/GD32VW55X_Wifi_BLE_SDK/GD32VW55x_RELEASE_V1.0.2/MSDK/wpa_supplicant/src/tls\asn1.h **** 	u8 identifier, class, constructed;
  52:C:/Users/stapi/OneDrive/Desktop/GD32VW553/V1_MQTT_OK/GD32VW55X_Wifi_BLE_SDK/GD32VW55x_RELEASE_V1.0.2/MSDK/wpa_supplicant/src/tls\asn1.h **** 	unsigned int tag, length;
  53:C:/Users/stapi/OneDrive/Desktop/GD32VW553/V1_MQTT_OK/GD32VW55X_Wifi_BLE_SDK/GD32VW55x_RELEASE_V1.0.2/MSDK/wpa_supplicant/src/tls\asn1.h **** };
  54:C:/Users/stapi/OneDrive/Desktop/GD32VW553/V1_MQTT_OK/GD32VW55X_Wifi_BLE_SDK/GD32VW55x_RELEASE_V1.0.2/MSDK/wpa_supplicant/src/tls\asn1.h **** 
  55:C:/Users/stapi/OneDrive/Desktop/GD32VW553/V1_MQTT_OK/GD32VW55X_Wifi_BLE_SDK/GD32VW55x_RELEASE_V1.0.2/MSDK/wpa_supplicant/src/tls\asn1.h **** #define ASN1_MAX_OID_LEN 20
  56:C:/Users/stapi/OneDrive/Desktop/GD32VW553/V1_MQTT_OK/GD32VW55X_Wifi_BLE_SDK/GD32VW55x_RELEASE_V1.0.2/MSDK/wpa_supplicant/src/tls\asn1.h **** struct asn1_oid {
  57:C:/Users/stapi/OneDrive/Desktop/GD32VW553/V1_MQTT_OK/GD32VW55X_Wifi_BLE_SDK/GD32VW55x_RELEASE_V1.0.2/MSDK/wpa_supplicant/src/tls\asn1.h **** 	unsigned long oid[ASN1_MAX_OID_LEN];
  58:C:/Users/stapi/OneDrive/Desktop/GD32VW553/V1_MQTT_OK/GD32VW55X_Wifi_BLE_SDK/GD32VW55x_RELEASE_V1.0.2/MSDK/wpa_supplicant/src/tls\asn1.h **** 	size_t len;
  59:C:/Users/stapi/OneDrive/Desktop/GD32VW553/V1_MQTT_OK/GD32VW55X_Wifi_BLE_SDK/GD32VW55x_RELEASE_V1.0.2/MSDK/wpa_supplicant/src/tls\asn1.h **** };
  60:C:/Users/stapi/OneDrive/Desktop/GD32VW553/V1_MQTT_OK/GD32VW55X_Wifi_BLE_SDK/GD32VW55x_RELEASE_V1.0.2/MSDK/wpa_supplicant/src/tls\asn1.h **** 
  61:C:/Users/stapi/OneDrive/Desktop/GD32VW553/V1_MQTT_OK/GD32VW55X_Wifi_BLE_SDK/GD32VW55x_RELEASE_V1.0.2/MSDK/wpa_supplicant/src/tls\asn1.h **** 
  62:C:/Users/stapi/OneDrive/Desktop/GD32VW553/V1_MQTT_OK/GD32VW55X_Wifi_BLE_SDK/GD32VW55x_RELEASE_V1.0.2/MSDK/wpa_supplicant/src/tls\asn1.h **** int asn1_get_next(const u8 *buf, size_t len, struct asn1_hdr *hdr);
  63:C:/Users/stapi/OneDrive/Desktop/GD32VW553/V1_MQTT_OK/GD32VW55X_Wifi_BLE_SDK/GD32VW55x_RELEASE_V1.0.2/MSDK/wpa_supplicant/src/tls\asn1.h **** void asn1_print_hdr(const struct asn1_hdr *hdr, const char *title);
  64:C:/Users/stapi/OneDrive/Desktop/GD32VW553/V1_MQTT_OK/GD32VW55X_Wifi_BLE_SDK/GD32VW55x_RELEASE_V1.0.2/MSDK/wpa_supplicant/src/tls\asn1.h **** void asn1_unexpected(const struct asn1_hdr *hdr, const char *title);
  65:C:/Users/stapi/OneDrive/Desktop/GD32VW553/V1_MQTT_OK/GD32VW55X_Wifi_BLE_SDK/GD32VW55x_RELEASE_V1.0.2/MSDK/wpa_supplicant/src/tls\asn1.h **** int asn1_parse_oid(const u8 *buf, size_t len, struct asn1_oid *oid);
  66:C:/Users/stapi/OneDrive/Desktop/GD32VW553/V1_MQTT_OK/GD32VW55X_Wifi_BLE_SDK/GD32VW55x_RELEASE_V1.0.2/MSDK/wpa_supplicant/src/tls\asn1.h **** int asn1_get_oid(const u8 *buf, size_t len, struct asn1_oid *oid,
  67:C:/Users/stapi/OneDrive/Desktop/GD32VW553/V1_MQTT_OK/GD32VW55X_Wifi_BLE_SDK/GD32VW55x_RELEASE_V1.0.2/MSDK/wpa_supplicant/src/tls\asn1.h **** 		 const u8 **next);
  68:C:/Users/stapi/OneDrive/Desktop/GD32VW553/V1_MQTT_OK/GD32VW55X_Wifi_BLE_SDK/GD32VW55x_RELEASE_V1.0.2/MSDK/wpa_supplicant/src/tls\asn1.h **** void asn1_oid_to_str(const struct asn1_oid *oid, char *buf, size_t len);
  69:C:/Users/stapi/OneDrive/Desktop/GD32VW553/V1_MQTT_OK/GD32VW55X_Wifi_BLE_SDK/GD32VW55x_RELEASE_V1.0.2/MSDK/wpa_supplicant/src/tls\asn1.h **** unsigned long asn1_bit_string_to_long(const u8 *buf, size_t len);
  70:C:/Users/stapi/OneDrive/Desktop/GD32VW553/V1_MQTT_OK/GD32VW55X_Wifi_BLE_SDK/GD32VW55x_RELEASE_V1.0.2/MSDK/wpa_supplicant/src/tls\asn1.h **** int asn1_oid_equal(const struct asn1_oid *a, const struct asn1_oid *b);
  71:C:/Users/stapi/OneDrive/Desktop/GD32VW553/V1_MQTT_OK/GD32VW55X_Wifi_BLE_SDK/GD32VW55x_RELEASE_V1.0.2/MSDK/wpa_supplicant/src/tls\asn1.h **** int asn1_get_integer(const u8 *buf, size_t len, int *integer, const u8 **next);
  72:C:/Users/stapi/OneDrive/Desktop/GD32VW553/V1_MQTT_OK/GD32VW55X_Wifi_BLE_SDK/GD32VW55x_RELEASE_V1.0.2/MSDK/wpa_supplicant/src/tls\asn1.h **** int asn1_get_sequence(const u8 *buf, size_t len, struct asn1_hdr *hdr,
  73:C:/Users/stapi/OneDrive/Desktop/GD32VW553/V1_MQTT_OK/GD32VW55X_Wifi_BLE_SDK/GD32VW55x_RELEASE_V1.0.2/MSDK/wpa_supplicant/src/tls\asn1.h **** 		      const u8 **next);
  74:C:/Users/stapi/OneDrive/Desktop/GD32VW553/V1_MQTT_OK/GD32VW55X_Wifi_BLE_SDK/GD32VW55x_RELEASE_V1.0.2/MSDK/wpa_supplicant/src/tls\asn1.h **** int asn1_get_alg_id(const u8 *buf, size_t len, struct asn1_oid *oid,
  75:C:/Users/stapi/OneDrive/Desktop/GD32VW553/V1_MQTT_OK/GD32VW55X_Wifi_BLE_SDK/GD32VW55x_RELEASE_V1.0.2/MSDK/wpa_supplicant/src/tls\asn1.h **** 		    const u8 **params, size_t *params_len, const u8 **next);
  76:C:/Users/stapi/OneDrive/Desktop/GD32VW553/V1_MQTT_OK/GD32VW55X_Wifi_BLE_SDK/GD32VW55x_RELEASE_V1.0.2/MSDK/wpa_supplicant/src/tls\asn1.h **** void asn1_put_integer(struct wpabuf *buf, int val);
  77:C:/Users/stapi/OneDrive/Desktop/GD32VW553/V1_MQTT_OK/GD32VW55X_Wifi_BLE_SDK/GD32VW55x_RELEASE_V1.0.2/MSDK/wpa_supplicant/src/tls\asn1.h **** void asn1_put_octet_string(struct wpabuf *buf, const struct wpabuf *val);
  78:C:/Users/stapi/OneDrive/Desktop/GD32VW553/V1_MQTT_OK/GD32VW55X_Wifi_BLE_SDK/GD32VW55x_RELEASE_V1.0.2/MSDK/wpa_supplicant/src/tls\asn1.h **** void asn1_put_oid(struct wpabuf *buf, const struct asn1_oid *oid);
  79:C:/Users/stapi/OneDrive/Desktop/GD32VW553/V1_MQTT_OK/GD32VW55X_Wifi_BLE_SDK/GD32VW55x_RELEASE_V1.0.2/MSDK/wpa_supplicant/src/tls\asn1.h **** void asn1_put_hdr(struct wpabuf *buf, u8 class, int constructed, u8 tag,
  80:C:/Users/stapi/OneDrive/Desktop/GD32VW553/V1_MQTT_OK/GD32VW55X_Wifi_BLE_SDK/GD32VW55x_RELEASE_V1.0.2/MSDK/wpa_supplicant/src/tls\asn1.h **** 		  size_t len);
  81:C:/Users/stapi/OneDrive/Desktop/GD32VW553/V1_MQTT_OK/GD32VW55X_Wifi_BLE_SDK/GD32VW55x_RELEASE_V1.0.2/MSDK/wpa_supplicant/src/tls\asn1.h **** void asn1_put_sequence(struct wpabuf *buf, const struct wpabuf *payload);
  82:C:/Users/stapi/OneDrive/Desktop/GD32VW553/V1_MQTT_OK/GD32VW55X_Wifi_BLE_SDK/GD32VW55x_RELEASE_V1.0.2/MSDK/wpa_supplicant/src/tls\asn1.h **** void asn1_put_set(struct wpabuf *buf, const struct wpabuf *payload);
  83:C:/Users/stapi/OneDrive/Desktop/GD32VW553/V1_MQTT_OK/GD32VW55X_Wifi_BLE_SDK/GD32VW55x_RELEASE_V1.0.2/MSDK/wpa_supplicant/src/tls\asn1.h **** void asn1_put_utf8string(struct wpabuf *buf, const char *val);
  84:C:/Users/stapi/OneDrive/Desktop/GD32VW553/V1_MQTT_OK/GD32VW55X_Wifi_BLE_SDK/GD32VW55x_RELEASE_V1.0.2/MSDK/wpa_supplicant/src/tls\asn1.h **** struct wpabuf * asn1_build_alg_id(const struct asn1_oid *oid,
  85:C:/Users/stapi/OneDrive/Desktop/GD32VW553/V1_MQTT_OK/GD32VW55X_Wifi_BLE_SDK/GD32VW55x_RELEASE_V1.0.2/MSDK/wpa_supplicant/src/tls\asn1.h **** 				  const struct wpabuf *params);
  86:C:/Users/stapi/OneDrive/Desktop/GD32VW553/V1_MQTT_OK/GD32VW55X_Wifi_BLE_SDK/GD32VW55x_RELEASE_V1.0.2/MSDK/wpa_supplicant/src/tls\asn1.h **** struct wpabuf * asn1_encaps(struct wpabuf *buf, u8 class, u8 tag);
  87:C:/Users/stapi/OneDrive/Desktop/GD32VW553/V1_MQTT_OK/GD32VW55X_Wifi_BLE_SDK/GD32VW55x_RELEASE_V1.0.2/MSDK/wpa_supplicant/src/tls\asn1.h **** 
  88:C:/Users/stapi/OneDrive/Desktop/GD32VW553/V1_MQTT_OK/GD32VW55X_Wifi_BLE_SDK/GD32VW55x_RELEASE_V1.0.2/MSDK/wpa_supplicant/src/tls\asn1.h **** static inline bool asn1_is_oid(const struct asn1_hdr *hdr)
  89:C:/Users/stapi/OneDrive/Desktop/GD32VW553/V1_MQTT_OK/GD32VW55X_Wifi_BLE_SDK/GD32VW55x_RELEASE_V1.0.2/MSDK/wpa_supplicant/src/tls\asn1.h **** {
  90:C:/Users/stapi/OneDrive/Desktop/GD32VW553/V1_MQTT_OK/GD32VW55X_Wifi_BLE_SDK/GD32VW55x_RELEASE_V1.0.2/MSDK/wpa_supplicant/src/tls\asn1.h **** 	return hdr->class == ASN1_CLASS_UNIVERSAL &&
  91:C:/Users/stapi/OneDrive/Desktop/GD32VW553/V1_MQTT_OK/GD32VW55X_Wifi_BLE_SDK/GD32VW55x_RELEASE_V1.0.2/MSDK/wpa_supplicant/src/tls\asn1.h **** 		hdr->tag == ASN1_TAG_OID;
  92:C:/Users/stapi/OneDrive/Desktop/GD32VW553/V1_MQTT_OK/GD32VW55X_Wifi_BLE_SDK/GD32VW55x_RELEASE_V1.0.2/MSDK/wpa_supplicant/src/tls\asn1.h **** }
  93:C:/Users/stapi/OneDrive/Desktop/GD32VW553/V1_MQTT_OK/GD32VW55X_Wifi_BLE_SDK/GD32VW55x_RELEASE_V1.0.2/MSDK/wpa_supplicant/src/tls\asn1.h **** 
  94:C:/Users/stapi/OneDrive/Desktop/GD32VW553/V1_MQTT_OK/GD32VW55X_Wifi_BLE_SDK/GD32VW55x_RELEASE_V1.0.2/MSDK/wpa_supplicant/src/tls\asn1.h **** static inline bool asn1_is_boolean(const struct asn1_hdr *hdr)
  95:C:/Users/stapi/OneDrive/Desktop/GD32VW553/V1_MQTT_OK/GD32VW55X_Wifi_BLE_SDK/GD32VW55x_RELEASE_V1.0.2/MSDK/wpa_supplicant/src/tls\asn1.h **** {
  96:C:/Users/stapi/OneDrive/Desktop/GD32VW553/V1_MQTT_OK/GD32VW55X_Wifi_BLE_SDK/GD32VW55x_RELEASE_V1.0.2/MSDK/wpa_supplicant/src/tls\asn1.h **** 	return hdr->class == ASN1_CLASS_UNIVERSAL &&
  97:C:/Users/stapi/OneDrive/Desktop/GD32VW553/V1_MQTT_OK/GD32VW55X_Wifi_BLE_SDK/GD32VW55x_RELEASE_V1.0.2/MSDK/wpa_supplicant/src/tls\asn1.h **** 		hdr->tag == ASN1_TAG_BOOLEAN;
  98:C:/Users/stapi/OneDrive/Desktop/GD32VW553/V1_MQTT_OK/GD32VW55X_Wifi_BLE_SDK/GD32VW55x_RELEASE_V1.0.2/MSDK/wpa_supplicant/src/tls\asn1.h **** }
  99:C:/Users/stapi/OneDrive/Desktop/GD32VW553/V1_MQTT_OK/GD32VW55X_Wifi_BLE_SDK/GD32VW55x_RELEASE_V1.0.2/MSDK/wpa_supplicant/src/tls\asn1.h **** 
 100:C:/Users/stapi/OneDrive/Desktop/GD32VW553/V1_MQTT_OK/GD32VW55X_Wifi_BLE_SDK/GD32VW55x_RELEASE_V1.0.2/MSDK/wpa_supplicant/src/tls\asn1.h **** static inline bool asn1_is_integer(const struct asn1_hdr *hdr)
 101:C:/Users/stapi/OneDrive/Desktop/GD32VW553/V1_MQTT_OK/GD32VW55X_Wifi_BLE_SDK/GD32VW55x_RELEASE_V1.0.2/MSDK/wpa_supplicant/src/tls\asn1.h **** {
 102:C:/Users/stapi/OneDrive/Desktop/GD32VW553/V1_MQTT_OK/GD32VW55X_Wifi_BLE_SDK/GD32VW55x_RELEASE_V1.0.2/MSDK/wpa_supplicant/src/tls\asn1.h **** 	return hdr->class == ASN1_CLASS_UNIVERSAL &&
 103:C:/Users/stapi/OneDrive/Desktop/GD32VW553/V1_MQTT_OK/GD32VW55X_Wifi_BLE_SDK/GD32VW55x_RELEASE_V1.0.2/MSDK/wpa_supplicant/src/tls\asn1.h **** 		hdr->tag == ASN1_TAG_INTEGER;
 104:C:/Users/stapi/OneDrive/Desktop/GD32VW553/V1_MQTT_OK/GD32VW55X_Wifi_BLE_SDK/GD32VW55x_RELEASE_V1.0.2/MSDK/wpa_supplicant/src/tls\asn1.h **** }
 105:C:/Users/stapi/OneDrive/Desktop/GD32VW553/V1_MQTT_OK/GD32VW55X_Wifi_BLE_SDK/GD32VW55x_RELEASE_V1.0.2/MSDK/wpa_supplicant/src/tls\asn1.h **** 
 106:C:/Users/stapi/OneDrive/Desktop/GD32VW553/V1_MQTT_OK/GD32VW55X_Wifi_BLE_SDK/GD32VW55x_RELEASE_V1.0.2/MSDK/wpa_supplicant/src/tls\asn1.h **** static inline bool asn1_is_enumerated(const struct asn1_hdr *hdr)
 107:C:/Users/stapi/OneDrive/Desktop/GD32VW553/V1_MQTT_OK/GD32VW55X_Wifi_BLE_SDK/GD32VW55x_RELEASE_V1.0.2/MSDK/wpa_supplicant/src/tls\asn1.h **** {
 108:C:/Users/stapi/OneDrive/Desktop/GD32VW553/V1_MQTT_OK/GD32VW55X_Wifi_BLE_SDK/GD32VW55x_RELEASE_V1.0.2/MSDK/wpa_supplicant/src/tls\asn1.h **** 	return hdr->class == ASN1_CLASS_UNIVERSAL &&
 109:C:/Users/stapi/OneDrive/Desktop/GD32VW553/V1_MQTT_OK/GD32VW55X_Wifi_BLE_SDK/GD32VW55x_RELEASE_V1.0.2/MSDK/wpa_supplicant/src/tls\asn1.h **** 		hdr->tag == ASN1_TAG_ENUMERATED;
 110:C:/Users/stapi/OneDrive/Desktop/GD32VW553/V1_MQTT_OK/GD32VW55X_Wifi_BLE_SDK/GD32VW55x_RELEASE_V1.0.2/MSDK/wpa_supplicant/src/tls\asn1.h **** }
 111:C:/Users/stapi/OneDrive/Desktop/GD32VW553/V1_MQTT_OK/GD32VW55X_Wifi_BLE_SDK/GD32VW55x_RELEASE_V1.0.2/MSDK/wpa_supplicant/src/tls\asn1.h **** 
 112:C:/Users/stapi/OneDrive/Desktop/GD32VW553/V1_MQTT_OK/GD32VW55X_Wifi_BLE_SDK/GD32VW55x_RELEASE_V1.0.2/MSDK/wpa_supplicant/src/tls\asn1.h **** static inline bool asn1_is_sequence(const struct asn1_hdr *hdr)
 113:C:/Users/stapi/OneDrive/Desktop/GD32VW553/V1_MQTT_OK/GD32VW55X_Wifi_BLE_SDK/GD32VW55x_RELEASE_V1.0.2/MSDK/wpa_supplicant/src/tls\asn1.h **** {
 114:C:/Users/stapi/OneDrive/Desktop/GD32VW553/V1_MQTT_OK/GD32VW55X_Wifi_BLE_SDK/GD32VW55x_RELEASE_V1.0.2/MSDK/wpa_supplicant/src/tls\asn1.h **** 	return hdr->class == ASN1_CLASS_UNIVERSAL &&
 948              		.loc 2 114 2 is_stmt 1
 949              		.loc 2 114 44 is_stmt 0
 950 0022 83475100 		lbu	a5,5(sp)
 951 0026 85E7     		bne	a5,zero,.L81
 952 0028 2247     		lw	a4,8(sp)
 953 002a C147     		li	a5,16
 954 002c 6311F702 		bne	a4,a5,.L81
 955              	.LVL116:
 956              	.LBE32:
 957              	.LBE31:
1089:C:/Users/stapi/OneDrive/Desktop/GD32VW553/V1_MQTT_OK/GD32VW55X_Wifi_BLE_SDK/GD32VW55x_RELEASE_V1.0.2/MSDK/wpa_supplicant/src/tls\tlsv1_cred.c **** 		asn1_unexpected(&hdr,
1090:C:/Users/stapi/OneDrive/Desktop/GD32VW553/V1_MQTT_OK/GD32VW55X_Wifi_BLE_SDK/GD32VW55x_RELEASE_V1.0.2/MSDK/wpa_supplicant/src/tls\tlsv1_cred.c **** 				"DH: DH parameters did not start with a valid SEQUENCE");
1091:C:/Users/stapi/OneDrive/Desktop/GD32VW553/V1_MQTT_OK/GD32VW55X_Wifi_BLE_SDK/GD32VW55x_RELEASE_V1.0.2/MSDK/wpa_supplicant/src/tls\tlsv1_cred.c **** 		return -1;
1092:C:/Users/stapi/OneDrive/Desktop/GD32VW553/V1_MQTT_OK/GD32VW55X_Wifi_BLE_SDK/GD32VW55x_RELEASE_V1.0.2/MSDK/wpa_supplicant/src/tls\tlsv1_cred.c **** 	}
1093:C:/Users/stapi/OneDrive/Desktop/GD32VW553/V1_MQTT_OK/GD32VW55X_Wifi_BLE_SDK/GD32VW55x_RELEASE_V1.0.2/MSDK/wpa_supplicant/src/tls\tlsv1_cred.c **** 	pos = hdr.payload;
 958              		.loc 1 1093 2 is_stmt 1
 959              		.loc 1 1093 6 is_stmt 0
 960 0030 0245     		lw	a0,0(sp)
 961              	.LVL117:
1094:C:/Users/stapi/OneDrive/Desktop/GD32VW553/V1_MQTT_OK/GD32VW55X_Wifi_BLE_SDK/GD32VW55x_RELEASE_V1.0.2/MSDK/wpa_supplicant/src/tls\tlsv1_cred.c **** 
1095:C:/Users/stapi/OneDrive/Desktop/GD32VW553/V1_MQTT_OK/GD32VW55X_Wifi_BLE_SDK/GD32VW55x_RELEASE_V1.0.2/MSDK/wpa_supplicant/src/tls\tlsv1_cred.c **** 	/* prime INTEGER */
1096:C:/Users/stapi/OneDrive/Desktop/GD32VW553/V1_MQTT_OK/GD32VW55X_Wifi_BLE_SDK/GD32VW55x_RELEASE_V1.0.2/MSDK/wpa_supplicant/src/tls\tlsv1_cred.c **** 	if (asn1_get_next(pos, end - pos, &hdr) < 0 ||
 962              		.loc 1 1096 2 is_stmt 1
 963              		.loc 1 1096 6 is_stmt 0
 964 0032 0A86     		mv	a2,sp
 965 0034 B385A440 		sub	a1,s1,a0
 966 0038 97000000 		call	asn1_get_next
 966      E7800000 
 967              	.LVL118:
 968              		.loc 1 1096 5
 969 0040 63510502 		bge	a0,zero,.L98
 970              	.L82:
1097:C:/Users/stapi/OneDrive/Desktop/GD32VW553/V1_MQTT_OK/GD32VW55X_Wifi_BLE_SDK/GD32VW55x_RELEASE_V1.0.2/MSDK/wpa_supplicant/src/tls\tlsv1_cred.c **** 	    !asn1_is_integer(&hdr)) {
1098:C:/Users/stapi/OneDrive/Desktop/GD32VW553/V1_MQTT_OK/GD32VW55X_Wifi_BLE_SDK/GD32VW55x_RELEASE_V1.0.2/MSDK/wpa_supplicant/src/tls\tlsv1_cred.c **** 		asn1_unexpected(&hdr, "DH: No INTEGER tag found for p");
 971              		.loc 1 1098 3 is_stmt 1
 972 0044 B7050000 		lui	a1,%hi(.LC21)
 973 0048 93850500 		addi	a1,a1,%lo(.LC21)
 974 004c 29A0     		j	.L101
 975              	.LVL119:
 976              	.L81:
1089:C:/Users/stapi/OneDrive/Desktop/GD32VW553/V1_MQTT_OK/GD32VW55X_Wifi_BLE_SDK/GD32VW55x_RELEASE_V1.0.2/MSDK/wpa_supplicant/src/tls\tlsv1_cred.c **** 				"DH: DH parameters did not start with a valid SEQUENCE");
 977              		.loc 1 1089 3
 978 004e B7050000 		lui	a1,%hi(.LC19)
 979 0052 93850500 		addi	a1,a1,%lo(.LC19)
 980              	.LVL120:
 981              	.L101:
1099:C:/Users/stapi/OneDrive/Desktop/GD32VW553/V1_MQTT_OK/GD32VW55X_Wifi_BLE_SDK/GD32VW55x_RELEASE_V1.0.2/MSDK/wpa_supplicant/src/tls\tlsv1_cred.c **** 		return -1;
1100:C:/Users/stapi/OneDrive/Desktop/GD32VW553/V1_MQTT_OK/GD32VW55X_Wifi_BLE_SDK/GD32VW55x_RELEASE_V1.0.2/MSDK/wpa_supplicant/src/tls\tlsv1_cred.c **** 	}
1101:C:/Users/stapi/OneDrive/Desktop/GD32VW553/V1_MQTT_OK/GD32VW55X_Wifi_BLE_SDK/GD32VW55x_RELEASE_V1.0.2/MSDK/wpa_supplicant/src/tls\tlsv1_cred.c **** 
1102:C:/Users/stapi/OneDrive/Desktop/GD32VW553/V1_MQTT_OK/GD32VW55X_Wifi_BLE_SDK/GD32VW55x_RELEASE_V1.0.2/MSDK/wpa_supplicant/src/tls\tlsv1_cred.c **** 	wpa_hexdump(MSG_MSGDUMP, "DH: prime (p)", hdr.payload, hdr.length);
1103:C:/Users/stapi/OneDrive/Desktop/GD32VW553/V1_MQTT_OK/GD32VW55X_Wifi_BLE_SDK/GD32VW55x_RELEASE_V1.0.2/MSDK/wpa_supplicant/src/tls\tlsv1_cred.c **** 	if (hdr.length == 0)
1104:C:/Users/stapi/OneDrive/Desktop/GD32VW553/V1_MQTT_OK/GD32VW55X_Wifi_BLE_SDK/GD32VW55x_RELEASE_V1.0.2/MSDK/wpa_supplicant/src/tls\tlsv1_cred.c **** 		return -1;
1105:C:/Users/stapi/OneDrive/Desktop/GD32VW553/V1_MQTT_OK/GD32VW55X_Wifi_BLE_SDK/GD32VW55x_RELEASE_V1.0.2/MSDK/wpa_supplicant/src/tls\tlsv1_cred.c **** 	os_free(cred->dh_p);
1106:C:/Users/stapi/OneDrive/Desktop/GD32VW553/V1_MQTT_OK/GD32VW55X_Wifi_BLE_SDK/GD32VW55x_RELEASE_V1.0.2/MSDK/wpa_supplicant/src/tls\tlsv1_cred.c **** 	cred->dh_p = os_memdup(hdr.payload, hdr.length);
1107:C:/Users/stapi/OneDrive/Desktop/GD32VW553/V1_MQTT_OK/GD32VW55X_Wifi_BLE_SDK/GD32VW55x_RELEASE_V1.0.2/MSDK/wpa_supplicant/src/tls\tlsv1_cred.c **** 	if (cred->dh_p == NULL)
1108:C:/Users/stapi/OneDrive/Desktop/GD32VW553/V1_MQTT_OK/GD32VW55X_Wifi_BLE_SDK/GD32VW55x_RELEASE_V1.0.2/MSDK/wpa_supplicant/src/tls\tlsv1_cred.c **** 		return -1;
1109:C:/Users/stapi/OneDrive/Desktop/GD32VW553/V1_MQTT_OK/GD32VW55X_Wifi_BLE_SDK/GD32VW55x_RELEASE_V1.0.2/MSDK/wpa_supplicant/src/tls\tlsv1_cred.c **** 	cred->dh_p_len = hdr.length;
1110:C:/Users/stapi/OneDrive/Desktop/GD32VW553/V1_MQTT_OK/GD32VW55X_Wifi_BLE_SDK/GD32VW55x_RELEASE_V1.0.2/MSDK/wpa_supplicant/src/tls\tlsv1_cred.c **** 	pos = hdr.payload + hdr.length;
1111:C:/Users/stapi/OneDrive/Desktop/GD32VW553/V1_MQTT_OK/GD32VW55X_Wifi_BLE_SDK/GD32VW55x_RELEASE_V1.0.2/MSDK/wpa_supplicant/src/tls\tlsv1_cred.c **** 
1112:C:/Users/stapi/OneDrive/Desktop/GD32VW553/V1_MQTT_OK/GD32VW55X_Wifi_BLE_SDK/GD32VW55x_RELEASE_V1.0.2/MSDK/wpa_supplicant/src/tls\tlsv1_cred.c **** 	/* base INTEGER */
1113:C:/Users/stapi/OneDrive/Desktop/GD32VW553/V1_MQTT_OK/GD32VW55X_Wifi_BLE_SDK/GD32VW55x_RELEASE_V1.0.2/MSDK/wpa_supplicant/src/tls\tlsv1_cred.c **** 	if (asn1_get_next(pos, end - pos, &hdr) < 0 ||
1114:C:/Users/stapi/OneDrive/Desktop/GD32VW553/V1_MQTT_OK/GD32VW55X_Wifi_BLE_SDK/GD32VW55x_RELEASE_V1.0.2/MSDK/wpa_supplicant/src/tls\tlsv1_cred.c **** 	    !asn1_is_integer(&hdr)) {
1115:C:/Users/stapi/OneDrive/Desktop/GD32VW553/V1_MQTT_OK/GD32VW55X_Wifi_BLE_SDK/GD32VW55x_RELEASE_V1.0.2/MSDK/wpa_supplicant/src/tls\tlsv1_cred.c **** 		asn1_unexpected(&hdr, "DH: No INTEGER tag found for g");
 982              		.loc 1 1115 3 is_stmt 0
 983 0056 0A85     		mv	a0,sp
 984 0058 97000000 		call	asn1_unexpected
 984      E7800000 
 985              	.LVL121:
 986 0060 2DA0     		j	.L102
 987              	.L98:
 988              	.LVL122:
 989              	.LBB33:
 990              	.LBB34:
 102:C:/Users/stapi/OneDrive/Desktop/GD32VW553/V1_MQTT_OK/GD32VW55X_Wifi_BLE_SDK/GD32VW55x_RELEASE_V1.0.2/MSDK/wpa_supplicant/src/tls\asn1.h **** 		hdr->tag == ASN1_TAG_INTEGER;
 991              		.loc 2 102 2 is_stmt 1
 102:C:/Users/stapi/OneDrive/Desktop/GD32VW553/V1_MQTT_OK/GD32VW55X_Wifi_BLE_SDK/GD32VW55x_RELEASE_V1.0.2/MSDK/wpa_supplicant/src/tls\asn1.h **** 		hdr->tag == ASN1_TAG_INTEGER;
 992              		.loc 2 102 44 is_stmt 0
 993 0062 83475100 		lbu	a5,5(sp)
 994 0066 F9FF     		bne	a5,zero,.L82
 995 0068 2247     		lw	a4,8(sp)
 996 006a 8947     		li	a5,2
 997 006c E31CF7FC 		bne	a4,a5,.L82
 998              	.LVL123:
 999              	.LBE34:
 1000              	.LBE33:
1102:C:/Users/stapi/OneDrive/Desktop/GD32VW553/V1_MQTT_OK/GD32VW55X_Wifi_BLE_SDK/GD32VW55x_RELEASE_V1.0.2/MSDK/wpa_supplicant/src/tls\tlsv1_cred.c **** 	if (hdr.length == 0)
 1001              		.loc 1 1102 2 is_stmt 1
 1002 0070 B246     		lw	a3,12(sp)
 1003 0072 0246     		lw	a2,0(sp)
 1004 0074 B7050000 		lui	a1,%hi(.LC20)
 1005 0078 93850500 		addi	a1,a1,%lo(.LC20)
 1006 007c 0545     		li	a0,1
 1007 007e 97000000 		call	wpa_hexdump
 1007      E7800000 
 1008              	.LVL124:
1103:C:/Users/stapi/OneDrive/Desktop/GD32VW553/V1_MQTT_OK/GD32VW55X_Wifi_BLE_SDK/GD32VW55x_RELEASE_V1.0.2/MSDK/wpa_supplicant/src/tls\tlsv1_cred.c **** 		return -1;
 1009              		.loc 1 1103 2
1103:C:/Users/stapi/OneDrive/Desktop/GD32VW553/V1_MQTT_OK/GD32VW55X_Wifi_BLE_SDK/GD32VW55x_RELEASE_V1.0.2/MSDK/wpa_supplicant/src/tls\tlsv1_cred.c **** 		return -1;
 1010              		.loc 1 1103 5 is_stmt 0
 1011 0086 B247     		lw	a5,12(sp)
 1012 0088 99E7     		bne	a5,zero,.L85
 1013              	.L102:
1116:C:/Users/stapi/OneDrive/Desktop/GD32VW553/V1_MQTT_OK/GD32VW55X_Wifi_BLE_SDK/GD32VW55x_RELEASE_V1.0.2/MSDK/wpa_supplicant/src/tls\tlsv1_cred.c **** 		return -1;
 1014              		.loc 1 1116 3 is_stmt 1
 1015              		.loc 1 1116 10 is_stmt 0
 1016 008a 7D55     		li	a0,-1
 1017              	.L80:
1117:C:/Users/stapi/OneDrive/Desktop/GD32VW553/V1_MQTT_OK/GD32VW55X_Wifi_BLE_SDK/GD32VW55x_RELEASE_V1.0.2/MSDK/wpa_supplicant/src/tls\tlsv1_cred.c **** 	}
1118:C:/Users/stapi/OneDrive/Desktop/GD32VW553/V1_MQTT_OK/GD32VW55X_Wifi_BLE_SDK/GD32VW55x_RELEASE_V1.0.2/MSDK/wpa_supplicant/src/tls\tlsv1_cred.c **** 
1119:C:/Users/stapi/OneDrive/Desktop/GD32VW553/V1_MQTT_OK/GD32VW55X_Wifi_BLE_SDK/GD32VW55x_RELEASE_V1.0.2/MSDK/wpa_supplicant/src/tls\tlsv1_cred.c **** 	wpa_hexdump(MSG_MSGDUMP, "DH: base (g)", hdr.payload, hdr.length);
1120:C:/Users/stapi/OneDrive/Desktop/GD32VW553/V1_MQTT_OK/GD32VW55X_Wifi_BLE_SDK/GD32VW55x_RELEASE_V1.0.2/MSDK/wpa_supplicant/src/tls\tlsv1_cred.c **** 	if (hdr.length == 0)
1121:C:/Users/stapi/OneDrive/Desktop/GD32VW553/V1_MQTT_OK/GD32VW55X_Wifi_BLE_SDK/GD32VW55x_RELEASE_V1.0.2/MSDK/wpa_supplicant/src/tls\tlsv1_cred.c **** 		return -1;
1122:C:/Users/stapi/OneDrive/Desktop/GD32VW553/V1_MQTT_OK/GD32VW55X_Wifi_BLE_SDK/GD32VW55x_RELEASE_V1.0.2/MSDK/wpa_supplicant/src/tls\tlsv1_cred.c **** 	os_free(cred->dh_g);
1123:C:/Users/stapi/OneDrive/Desktop/GD32VW553/V1_MQTT_OK/GD32VW55X_Wifi_BLE_SDK/GD32VW55x_RELEASE_V1.0.2/MSDK/wpa_supplicant/src/tls\tlsv1_cred.c **** 	cred->dh_g = os_memdup(hdr.payload, hdr.length);
1124:C:/Users/stapi/OneDrive/Desktop/GD32VW553/V1_MQTT_OK/GD32VW55X_Wifi_BLE_SDK/GD32VW55x_RELEASE_V1.0.2/MSDK/wpa_supplicant/src/tls\tlsv1_cred.c **** 	if (cred->dh_g == NULL)
1125:C:/Users/stapi/OneDrive/Desktop/GD32VW553/V1_MQTT_OK/GD32VW55X_Wifi_BLE_SDK/GD32VW55x_RELEASE_V1.0.2/MSDK/wpa_supplicant/src/tls\tlsv1_cred.c **** 		return -1;
1126:C:/Users/stapi/OneDrive/Desktop/GD32VW553/V1_MQTT_OK/GD32VW55X_Wifi_BLE_SDK/GD32VW55x_RELEASE_V1.0.2/MSDK/wpa_supplicant/src/tls\tlsv1_cred.c **** 	cred->dh_g_len = hdr.length;
1127:C:/Users/stapi/OneDrive/Desktop/GD32VW553/V1_MQTT_OK/GD32VW55X_Wifi_BLE_SDK/GD32VW55x_RELEASE_V1.0.2/MSDK/wpa_supplicant/src/tls\tlsv1_cred.c **** 
1128:C:/Users/stapi/OneDrive/Desktop/GD32VW553/V1_MQTT_OK/GD32VW55X_Wifi_BLE_SDK/GD32VW55x_RELEASE_V1.0.2/MSDK/wpa_supplicant/src/tls\tlsv1_cred.c **** 	return 0;
1129:C:/Users/stapi/OneDrive/Desktop/GD32VW553/V1_MQTT_OK/GD32VW55X_Wifi_BLE_SDK/GD32VW55x_RELEASE_V1.0.2/MSDK/wpa_supplicant/src/tls\tlsv1_cred.c **** }
 1018              		.loc 1 1129 1
 1019 008c 4101     		addi	sp,sp,16
 1020              		.cfi_remember_state
 1021              		.cfi_def_cfa_offset 0
 1022 008e 17030000 		tail	__riscv_restore_2
 1022      67000300 
 1023              		.cfi_restore 9
 1024              		.cfi_restore 8
 1025              		.cfi_restore 1
 1026              		.cfi_def_cfa_offset -16
 1027              	.L85:
 1028              		.cfi_restore_state
1105:C:/Users/stapi/OneDrive/Desktop/GD32VW553/V1_MQTT_OK/GD32VW55X_Wifi_BLE_SDK/GD32VW55x_RELEASE_V1.0.2/MSDK/wpa_supplicant/src/tls\tlsv1_cred.c **** 	cred->dh_p = os_memdup(hdr.payload, hdr.length);
 1029              		.loc 1 1105 2 is_stmt 1
 1030 0096 0858     		lw	a0,48(s0)
 1031 0098 97000000 		call	os_free
 1031      E7800000 
 1032              	.LVL125:
1106:C:/Users/stapi/OneDrive/Desktop/GD32VW553/V1_MQTT_OK/GD32VW55X_Wifi_BLE_SDK/GD32VW55x_RELEASE_V1.0.2/MSDK/wpa_supplicant/src/tls\tlsv1_cred.c **** 	if (cred->dh_p == NULL)
 1033              		.loc 1 1106 2
1106:C:/Users/stapi/OneDrive/Desktop/GD32VW553/V1_MQTT_OK/GD32VW55X_Wifi_BLE_SDK/GD32VW55x_RELEASE_V1.0.2/MSDK/wpa_supplicant/src/tls\tlsv1_cred.c **** 	if (cred->dh_p == NULL)
 1034              		.loc 1 1106 15 is_stmt 0
 1035 00a0 B245     		lw	a1,12(sp)
 1036 00a2 0245     		lw	a0,0(sp)
 1037 00a4 97000000 		call	os_memdup
 1037      E7800000 
 1038              	.LVL126:
1106:C:/Users/stapi/OneDrive/Desktop/GD32VW553/V1_MQTT_OK/GD32VW55X_Wifi_BLE_SDK/GD32VW55x_RELEASE_V1.0.2/MSDK/wpa_supplicant/src/tls\tlsv1_cred.c **** 	if (cred->dh_p == NULL)
 1039              		.loc 1 1106 13
 1040 00ac 08D8     		sw	a0,48(s0)
1107:C:/Users/stapi/OneDrive/Desktop/GD32VW553/V1_MQTT_OK/GD32VW55X_Wifi_BLE_SDK/GD32VW55x_RELEASE_V1.0.2/MSDK/wpa_supplicant/src/tls\tlsv1_cred.c **** 		return -1;
 1041              		.loc 1 1107 2 is_stmt 1
1107:C:/Users/stapi/OneDrive/Desktop/GD32VW553/V1_MQTT_OK/GD32VW55X_Wifi_BLE_SDK/GD32VW55x_RELEASE_V1.0.2/MSDK/wpa_supplicant/src/tls\tlsv1_cred.c **** 		return -1;
 1042              		.loc 1 1107 5 is_stmt 0
 1043 00ae 71DD     		beq	a0,zero,.L102
1109:C:/Users/stapi/OneDrive/Desktop/GD32VW553/V1_MQTT_OK/GD32VW55X_Wifi_BLE_SDK/GD32VW55x_RELEASE_V1.0.2/MSDK/wpa_supplicant/src/tls\tlsv1_cred.c **** 	pos = hdr.payload + hdr.length;
 1044              		.loc 1 1109 2 is_stmt 1
1109:C:/Users/stapi/OneDrive/Desktop/GD32VW553/V1_MQTT_OK/GD32VW55X_Wifi_BLE_SDK/GD32VW55x_RELEASE_V1.0.2/MSDK/wpa_supplicant/src/tls\tlsv1_cred.c **** 	pos = hdr.payload + hdr.length;
 1045              		.loc 1 1109 22 is_stmt 0
 1046 00b0 B247     		lw	a5,12(sp)
1110:C:/Users/stapi/OneDrive/Desktop/GD32VW553/V1_MQTT_OK/GD32VW55X_Wifi_BLE_SDK/GD32VW55x_RELEASE_V1.0.2/MSDK/wpa_supplicant/src/tls\tlsv1_cred.c **** 
 1047              		.loc 1 1110 6
 1048 00b2 0245     		lw	a0,0(sp)
1113:C:/Users/stapi/OneDrive/Desktop/GD32VW553/V1_MQTT_OK/GD32VW55X_Wifi_BLE_SDK/GD32VW55x_RELEASE_V1.0.2/MSDK/wpa_supplicant/src/tls\tlsv1_cred.c **** 	    !asn1_is_integer(&hdr)) {
 1049              		.loc 1 1113 6
 1050 00b4 0A86     		mv	a2,sp
1109:C:/Users/stapi/OneDrive/Desktop/GD32VW553/V1_MQTT_OK/GD32VW55X_Wifi_BLE_SDK/GD32VW55x_RELEASE_V1.0.2/MSDK/wpa_supplicant/src/tls\tlsv1_cred.c **** 	pos = hdr.payload + hdr.length;
 1051              		.loc 1 1109 17
 1052 00b6 5CD8     		sw	a5,52(s0)
1110:C:/Users/stapi/OneDrive/Desktop/GD32VW553/V1_MQTT_OK/GD32VW55X_Wifi_BLE_SDK/GD32VW55x_RELEASE_V1.0.2/MSDK/wpa_supplicant/src/tls\tlsv1_cred.c **** 
 1053              		.loc 1 1110 2 is_stmt 1
1110:C:/Users/stapi/OneDrive/Desktop/GD32VW553/V1_MQTT_OK/GD32VW55X_Wifi_BLE_SDK/GD32VW55x_RELEASE_V1.0.2/MSDK/wpa_supplicant/src/tls\tlsv1_cred.c **** 
 1054              		.loc 1 1110 6 is_stmt 0
 1055 00b8 3E95     		add	a0,a0,a5
 1056              	.LVL127:
1113:C:/Users/stapi/OneDrive/Desktop/GD32VW553/V1_MQTT_OK/GD32VW55X_Wifi_BLE_SDK/GD32VW55x_RELEASE_V1.0.2/MSDK/wpa_supplicant/src/tls\tlsv1_cred.c **** 	    !asn1_is_integer(&hdr)) {
 1057              		.loc 1 1113 2 is_stmt 1
1113:C:/Users/stapi/OneDrive/Desktop/GD32VW553/V1_MQTT_OK/GD32VW55X_Wifi_BLE_SDK/GD32VW55x_RELEASE_V1.0.2/MSDK/wpa_supplicant/src/tls\tlsv1_cred.c **** 	    !asn1_is_integer(&hdr)) {
 1058              		.loc 1 1113 6 is_stmt 0
 1059 00ba B385A440 		sub	a1,s1,a0
 1060 00be 97000000 		call	asn1_get_next
 1060      E7800000 
 1061              	.LVL128:
1113:C:/Users/stapi/OneDrive/Desktop/GD32VW553/V1_MQTT_OK/GD32VW55X_Wifi_BLE_SDK/GD32VW55x_RELEASE_V1.0.2/MSDK/wpa_supplicant/src/tls\tlsv1_cred.c **** 	    !asn1_is_integer(&hdr)) {
 1062              		.loc 1 1113 5
 1063 00c6 63470504 		blt	a0,zero,.L87
 1064              	.LVL129:
 1065              	.LBB35:
 1066              	.LBB36:
 102:C:/Users/stapi/OneDrive/Desktop/GD32VW553/V1_MQTT_OK/GD32VW55X_Wifi_BLE_SDK/GD32VW55x_RELEASE_V1.0.2/MSDK/wpa_supplicant/src/tls\asn1.h **** 		hdr->tag == ASN1_TAG_INTEGER;
 1067              		.loc 2 102 2 is_stmt 1
 102:C:/Users/stapi/OneDrive/Desktop/GD32VW553/V1_MQTT_OK/GD32VW55X_Wifi_BLE_SDK/GD32VW55x_RELEASE_V1.0.2/MSDK/wpa_supplicant/src/tls\asn1.h **** 		hdr->tag == ASN1_TAG_INTEGER;
 1068              		.loc 2 102 44 is_stmt 0
 1069 00ca 83475100 		lbu	a5,5(sp)
 1070 00ce B9E3     		bne	a5,zero,.L87
 1071 00d0 2247     		lw	a4,8(sp)
 1072 00d2 8947     		li	a5,2
 1073 00d4 6310F704 		bne	a4,a5,.L87
 1074              	.LVL130:
 1075              	.LBE36:
 1076              	.LBE35:
1119:C:/Users/stapi/OneDrive/Desktop/GD32VW553/V1_MQTT_OK/GD32VW55X_Wifi_BLE_SDK/GD32VW55x_RELEASE_V1.0.2/MSDK/wpa_supplicant/src/tls\tlsv1_cred.c **** 	if (hdr.length == 0)
 1077              		.loc 1 1119 2 is_stmt 1
 1078 00d8 B246     		lw	a3,12(sp)
 1079 00da 0246     		lw	a2,0(sp)
 1080 00dc B7050000 		lui	a1,%hi(.LC22)
 1081 00e0 93850500 		addi	a1,a1,%lo(.LC22)
 1082 00e4 0545     		li	a0,1
 1083 00e6 97000000 		call	wpa_hexdump
 1083      E7800000 
 1084              	.LVL131:
1120:C:/Users/stapi/OneDrive/Desktop/GD32VW553/V1_MQTT_OK/GD32VW55X_Wifi_BLE_SDK/GD32VW55x_RELEASE_V1.0.2/MSDK/wpa_supplicant/src/tls\tlsv1_cred.c **** 		return -1;
 1085              		.loc 1 1120 2
1120:C:/Users/stapi/OneDrive/Desktop/GD32VW553/V1_MQTT_OK/GD32VW55X_Wifi_BLE_SDK/GD32VW55x_RELEASE_V1.0.2/MSDK/wpa_supplicant/src/tls\tlsv1_cred.c **** 		return -1;
 1086              		.loc 1 1120 5 is_stmt 0
 1087 00ee B247     		lw	a5,12(sp)
 1088 00f0 C9DF     		beq	a5,zero,.L102
1122:C:/Users/stapi/OneDrive/Desktop/GD32VW553/V1_MQTT_OK/GD32VW55X_Wifi_BLE_SDK/GD32VW55x_RELEASE_V1.0.2/MSDK/wpa_supplicant/src/tls\tlsv1_cred.c **** 	cred->dh_g = os_memdup(hdr.payload, hdr.length);
 1089              		.loc 1 1122 2 is_stmt 1
 1090 00f2 085C     		lw	a0,56(s0)
 1091 00f4 97000000 		call	os_free
 1091      E7800000 
 1092              	.LVL132:
1123:C:/Users/stapi/OneDrive/Desktop/GD32VW553/V1_MQTT_OK/GD32VW55X_Wifi_BLE_SDK/GD32VW55x_RELEASE_V1.0.2/MSDK/wpa_supplicant/src/tls\tlsv1_cred.c **** 	if (cred->dh_g == NULL)
 1093              		.loc 1 1123 2
1123:C:/Users/stapi/OneDrive/Desktop/GD32VW553/V1_MQTT_OK/GD32VW55X_Wifi_BLE_SDK/GD32VW55x_RELEASE_V1.0.2/MSDK/wpa_supplicant/src/tls\tlsv1_cred.c **** 	if (cred->dh_g == NULL)
 1094              		.loc 1 1123 15 is_stmt 0
 1095 00fc B245     		lw	a1,12(sp)
 1096 00fe 0245     		lw	a0,0(sp)
 1097 0100 97000000 		call	os_memdup
 1097      E7800000 
 1098              	.LVL133:
1123:C:/Users/stapi/OneDrive/Desktop/GD32VW553/V1_MQTT_OK/GD32VW55X_Wifi_BLE_SDK/GD32VW55x_RELEASE_V1.0.2/MSDK/wpa_supplicant/src/tls\tlsv1_cred.c **** 	if (cred->dh_g == NULL)
 1099              		.loc 1 1123 13
 1100 0108 08DC     		sw	a0,56(s0)
1124:C:/Users/stapi/OneDrive/Desktop/GD32VW553/V1_MQTT_OK/GD32VW55X_Wifi_BLE_SDK/GD32VW55x_RELEASE_V1.0.2/MSDK/wpa_supplicant/src/tls\tlsv1_cred.c **** 		return -1;
 1101              		.loc 1 1124 2 is_stmt 1
1124:C:/Users/stapi/OneDrive/Desktop/GD32VW553/V1_MQTT_OK/GD32VW55X_Wifi_BLE_SDK/GD32VW55x_RELEASE_V1.0.2/MSDK/wpa_supplicant/src/tls\tlsv1_cred.c **** 		return -1;
 1102              		.loc 1 1124 5 is_stmt 0
 1103 010a 41D1     		beq	a0,zero,.L102
1126:C:/Users/stapi/OneDrive/Desktop/GD32VW553/V1_MQTT_OK/GD32VW55X_Wifi_BLE_SDK/GD32VW55x_RELEASE_V1.0.2/MSDK/wpa_supplicant/src/tls\tlsv1_cred.c **** 
 1104              		.loc 1 1126 2 is_stmt 1
1126:C:/Users/stapi/OneDrive/Desktop/GD32VW553/V1_MQTT_OK/GD32VW55X_Wifi_BLE_SDK/GD32VW55x_RELEASE_V1.0.2/MSDK/wpa_supplicant/src/tls\tlsv1_cred.c **** 
 1105              		.loc 1 1126 17 is_stmt 0
 1106 010c B247     		lw	a5,12(sp)
1128:C:/Users/stapi/OneDrive/Desktop/GD32VW553/V1_MQTT_OK/GD32VW55X_Wifi_BLE_SDK/GD32VW55x_RELEASE_V1.0.2/MSDK/wpa_supplicant/src/tls\tlsv1_cred.c **** }
 1107              		.loc 1 1128 9
 1108 010e 0145     		li	a0,0
1126:C:/Users/stapi/OneDrive/Desktop/GD32VW553/V1_MQTT_OK/GD32VW55X_Wifi_BLE_SDK/GD32VW55x_RELEASE_V1.0.2/MSDK/wpa_supplicant/src/tls\tlsv1_cred.c **** 
 1109              		.loc 1 1126 17
 1110 0110 5CDC     		sw	a5,60(s0)
1128:C:/Users/stapi/OneDrive/Desktop/GD32VW553/V1_MQTT_OK/GD32VW55X_Wifi_BLE_SDK/GD32VW55x_RELEASE_V1.0.2/MSDK/wpa_supplicant/src/tls\tlsv1_cred.c **** }
 1111              		.loc 1 1128 2 is_stmt 1
1128:C:/Users/stapi/OneDrive/Desktop/GD32VW553/V1_MQTT_OK/GD32VW55X_Wifi_BLE_SDK/GD32VW55x_RELEASE_V1.0.2/MSDK/wpa_supplicant/src/tls\tlsv1_cred.c **** }
 1112              		.loc 1 1128 9 is_stmt 0
 1113 0112 ADBF     		j	.L80
 1114              	.L87:
1115:C:/Users/stapi/OneDrive/Desktop/GD32VW553/V1_MQTT_OK/GD32VW55X_Wifi_BLE_SDK/GD32VW55x_RELEASE_V1.0.2/MSDK/wpa_supplicant/src/tls\tlsv1_cred.c **** 		return -1;
 1115              		.loc 1 1115 3 is_stmt 1
 1116 0114 B7050000 		lui	a1,%hi(.LC23)
 1117 0118 93850500 		addi	a1,a1,%lo(.LC23)
 1118 011c 2DBF     		j	.L101
 1119              		.cfi_endproc
 1120              	.LFE98:
 1122              		.section	.rodata.tlsv1_set_dhparams_blob.str1.4,"aMS",@progbits,1
 1123              		.align	2
 1124              	.LC24:
 1125 0000 2D2D2D2D 		.string	"-----BEGIN DH PARAMETERS-----"
 1125      2D424547 
 1125      494E2044 
 1125      48205041 
 1125      52414D45 
 1126 001e 0000     		.align	2
 1127              	.LC25:
 1128 0020 544C5376 		.string	"TLSv1: No PEM dhparams tag found - assume DER format"
 1128      313A204E 
 1128      6F205045 
 1128      4D206468 
 1128      70617261 
 1129 0055 000000   		.align	2
 1130              	.LC26:
 1131 0058 544C5376 		.string	"TLSv1: Converting PEM format dhparams into DER format"
 1131      313A2043 
 1131      6F6E7665 
 1131      7274696E 
 1131      67205045 
 1132 008e 0000     		.align	2
 1133              	.LC27:
 1134 0090 2D2D2D2D 		.string	"-----END DH PARAMETERS-----"
 1134      2D454E44 
 1134      20444820 
 1134      50415241 
 1134      4D455445 
 1135              		.align	2
 1136              	.LC28:
 1137 00ac 544C5376 		.string	"TLSv1: Could not find PEM dhparams end tag (%s)"
 1137      313A2043 
 1137      6F756C64 
 1137      206E6F74 
 1137      2066696E 
 1138              		.align	2
 1139              	.LC29:
 1140 00dc 544C5376 		.string	"TLSv1: Could not decode PEM dhparams"
 1140      313A2043 
 1140      6F756C64 
 1140      206E6F74 
 1140      20646563 
 1141 0101 000000   		.align	2
 1142              	.LC30:
 1143 0104 544C5376 		.string	"TLSv1: Failed to parse PEM dhparams DER conversion"
 1143      313A2046 
 1143      61696C65 
 1143      6420746F 
 1143      20706172 
 1144              		.section	.text.tlsv1_set_dhparams_blob,"ax",@progbits
 1145              		.align	1
 1147              	tlsv1_set_dhparams_blob:
 1148              	.LFB99:
1130:C:/Users/stapi/OneDrive/Desktop/GD32VW553/V1_MQTT_OK/GD32VW55X_Wifi_BLE_SDK/GD32VW55x_RELEASE_V1.0.2/MSDK/wpa_supplicant/src/tls\tlsv1_cred.c **** 
1131:C:/Users/stapi/OneDrive/Desktop/GD32VW553/V1_MQTT_OK/GD32VW55X_Wifi_BLE_SDK/GD32VW55x_RELEASE_V1.0.2/MSDK/wpa_supplicant/src/tls\tlsv1_cred.c **** 
1132:C:/Users/stapi/OneDrive/Desktop/GD32VW553/V1_MQTT_OK/GD32VW55X_Wifi_BLE_SDK/GD32VW55x_RELEASE_V1.0.2/MSDK/wpa_supplicant/src/tls\tlsv1_cred.c **** static const char *pem_dhparams_begin = "-----BEGIN DH PARAMETERS-----";
1133:C:/Users/stapi/OneDrive/Desktop/GD32VW553/V1_MQTT_OK/GD32VW55X_Wifi_BLE_SDK/GD32VW55x_RELEASE_V1.0.2/MSDK/wpa_supplicant/src/tls\tlsv1_cred.c **** static const char *pem_dhparams_end = "-----END DH PARAMETERS-----";
1134:C:/Users/stapi/OneDrive/Desktop/GD32VW553/V1_MQTT_OK/GD32VW55X_Wifi_BLE_SDK/GD32VW55x_RELEASE_V1.0.2/MSDK/wpa_supplicant/src/tls\tlsv1_cred.c **** 
1135:C:/Users/stapi/OneDrive/Desktop/GD32VW553/V1_MQTT_OK/GD32VW55X_Wifi_BLE_SDK/GD32VW55x_RELEASE_V1.0.2/MSDK/wpa_supplicant/src/tls\tlsv1_cred.c **** 
1136:C:/Users/stapi/OneDrive/Desktop/GD32VW553/V1_MQTT_OK/GD32VW55X_Wifi_BLE_SDK/GD32VW55x_RELEASE_V1.0.2/MSDK/wpa_supplicant/src/tls\tlsv1_cred.c **** static int tlsv1_set_dhparams_blob(struct tlsv1_credentials *cred,
1137:C:/Users/stapi/OneDrive/Desktop/GD32VW553/V1_MQTT_OK/GD32VW55X_Wifi_BLE_SDK/GD32VW55x_RELEASE_V1.0.2/MSDK/wpa_supplicant/src/tls\tlsv1_cred.c **** 				   const u8 *buf, size_t len)
1138:C:/Users/stapi/OneDrive/Desktop/GD32VW553/V1_MQTT_OK/GD32VW55X_Wifi_BLE_SDK/GD32VW55x_RELEASE_V1.0.2/MSDK/wpa_supplicant/src/tls\tlsv1_cred.c **** {
 1149              		.loc 1 1138 1
 1150              		.cfi_startproc
 1151              	.LVL134:
 1152 0000 17030000 		call	t0,__riscv_save_5
 1152      E7020300 
 1153              		.cfi_offset 20, -24
 1154              		.cfi_offset 19, -20
 1155              		.cfi_offset 18, -16
 1156              		.cfi_offset 9, -12
 1157              		.cfi_offset 8, -8
 1158              		.cfi_offset 1, -4
 1159              		.cfi_def_cfa_offset 32
1139:C:/Users/stapi/OneDrive/Desktop/GD32VW553/V1_MQTT_OK/GD32VW55X_Wifi_BLE_SDK/GD32VW55x_RELEASE_V1.0.2/MSDK/wpa_supplicant/src/tls\tlsv1_cred.c **** 	const u8 *pos, *end;
 1160              		.loc 1 1139 2
1140:C:/Users/stapi/OneDrive/Desktop/GD32VW553/V1_MQTT_OK/GD32VW55X_Wifi_BLE_SDK/GD32VW55x_RELEASE_V1.0.2/MSDK/wpa_supplicant/src/tls\tlsv1_cred.c **** 	unsigned char *der;
 1161              		.loc 1 1140 2
1141:C:/Users/stapi/OneDrive/Desktop/GD32VW553/V1_MQTT_OK/GD32VW55X_Wifi_BLE_SDK/GD32VW55x_RELEASE_V1.0.2/MSDK/wpa_supplicant/src/tls\tlsv1_cred.c **** 	size_t der_len;
 1162              		.loc 1 1141 2
1142:C:/Users/stapi/OneDrive/Desktop/GD32VW553/V1_MQTT_OK/GD32VW55X_Wifi_BLE_SDK/GD32VW55x_RELEASE_V1.0.2/MSDK/wpa_supplicant/src/tls\tlsv1_cred.c **** 
1143:C:/Users/stapi/OneDrive/Desktop/GD32VW553/V1_MQTT_OK/GD32VW55X_Wifi_BLE_SDK/GD32VW55x_RELEASE_V1.0.2/MSDK/wpa_supplicant/src/tls\tlsv1_cred.c **** 	pos = search_tag(pem_dhparams_begin, buf, len);
 1163              		.loc 1 1143 2
 1164              		.loc 1 1143 8 is_stmt 0
 1165 0008 370A0000 		lui	s4,%hi(.LC24)
1138:C:/Users/stapi/OneDrive/Desktop/GD32VW553/V1_MQTT_OK/GD32VW55X_Wifi_BLE_SDK/GD32VW55x_RELEASE_V1.0.2/MSDK/wpa_supplicant/src/tls\tlsv1_cred.c **** 	const u8 *pos, *end;
 1166              		.loc 1 1138 1
 1167 000c 4111     		addi	sp,sp,-16
 1168              		.cfi_def_cfa_offset 48
1138:C:/Users/stapi/OneDrive/Desktop/GD32VW553/V1_MQTT_OK/GD32VW55X_Wifi_BLE_SDK/GD32VW55x_RELEASE_V1.0.2/MSDK/wpa_supplicant/src/tls\tlsv1_cred.c **** 	const u8 *pos, *end;
 1169              		.loc 1 1138 1
 1170 000e 2A89     		mv	s2,a0
 1171              		.loc 1 1143 8
 1172 0010 13050A00 		addi	a0,s4,%lo(.LC24)
 1173              	.LVL135:
1138:C:/Users/stapi/OneDrive/Desktop/GD32VW553/V1_MQTT_OK/GD32VW55X_Wifi_BLE_SDK/GD32VW55x_RELEASE_V1.0.2/MSDK/wpa_supplicant/src/tls\tlsv1_cred.c **** 	const u8 *pos, *end;
 1174              		.loc 1 1138 1
 1175 0014 AE84     		mv	s1,a1
 1176 0016 B289     		mv	s3,a2
 1177              		.loc 1 1143 8
 1178 0018 97000000 		call	search_tag
 1178      E7800000 
 1179              	.LVL136:
1144:C:/Users/stapi/OneDrive/Desktop/GD32VW553/V1_MQTT_OK/GD32VW55X_Wifi_BLE_SDK/GD32VW55x_RELEASE_V1.0.2/MSDK/wpa_supplicant/src/tls\tlsv1_cred.c **** 	if (!pos) {
 1180              		.loc 1 1144 2 is_stmt 1
 1181              		.loc 1 1144 5 is_stmt 0
 1182 0020 15E5     		bne	a0,zero,.L104
1145:C:/Users/stapi/OneDrive/Desktop/GD32VW553/V1_MQTT_OK/GD32VW55X_Wifi_BLE_SDK/GD32VW55x_RELEASE_V1.0.2/MSDK/wpa_supplicant/src/tls\tlsv1_cred.c **** 		wpa_printf(MSG_DEBUG, "TLSv1: No PEM dhparams tag found - "
 1183              		.loc 1 1145 3 is_stmt 1
 1184 0022 B7050000 		lui	a1,%hi(.LC25)
 1185 0026 93850500 		addi	a1,a1,%lo(.LC25)
 1186 002a 0945     		li	a0,2
 1187              	.LVL137:
 1188 002c 97000000 		call	wpa_printf
 1188      E7800000 
 1189              	.LVL138:
1146:C:/Users/stapi/OneDrive/Desktop/GD32VW553/V1_MQTT_OK/GD32VW55X_Wifi_BLE_SDK/GD32VW55x_RELEASE_V1.0.2/MSDK/wpa_supplicant/src/tls\tlsv1_cred.c **** 			   "assume DER format");
1147:C:/Users/stapi/OneDrive/Desktop/GD32VW553/V1_MQTT_OK/GD32VW55X_Wifi_BLE_SDK/GD32VW55x_RELEASE_V1.0.2/MSDK/wpa_supplicant/src/tls\tlsv1_cred.c **** 		return tlsv1_set_dhparams_der(cred, buf, len);
 1190              		.loc 1 1147 3
 1191              		.loc 1 1147 10 is_stmt 0
 1192 0034 4E86     		mv	a2,s3
 1193 0036 A685     		mv	a1,s1
 1194 0038 4A85     		mv	a0,s2
 1195 003a 97000000 		call	tlsv1_set_dhparams_der
 1195      E7800000 
 1196              	.LVL139:
 1197              	.L103:
1148:C:/Users/stapi/OneDrive/Desktop/GD32VW553/V1_MQTT_OK/GD32VW55X_Wifi_BLE_SDK/GD32VW55x_RELEASE_V1.0.2/MSDK/wpa_supplicant/src/tls\tlsv1_cred.c **** 	}
1149:C:/Users/stapi/OneDrive/Desktop/GD32VW553/V1_MQTT_OK/GD32VW55X_Wifi_BLE_SDK/GD32VW55x_RELEASE_V1.0.2/MSDK/wpa_supplicant/src/tls\tlsv1_cred.c **** 
1150:C:/Users/stapi/OneDrive/Desktop/GD32VW553/V1_MQTT_OK/GD32VW55X_Wifi_BLE_SDK/GD32VW55x_RELEASE_V1.0.2/MSDK/wpa_supplicant/src/tls\tlsv1_cred.c **** 	wpa_printf(MSG_DEBUG, "TLSv1: Converting PEM format dhparams into DER "
1151:C:/Users/stapi/OneDrive/Desktop/GD32VW553/V1_MQTT_OK/GD32VW55X_Wifi_BLE_SDK/GD32VW55x_RELEASE_V1.0.2/MSDK/wpa_supplicant/src/tls\tlsv1_cred.c **** 		   "format");
1152:C:/Users/stapi/OneDrive/Desktop/GD32VW553/V1_MQTT_OK/GD32VW55X_Wifi_BLE_SDK/GD32VW55x_RELEASE_V1.0.2/MSDK/wpa_supplicant/src/tls\tlsv1_cred.c **** 
1153:C:/Users/stapi/OneDrive/Desktop/GD32VW553/V1_MQTT_OK/GD32VW55X_Wifi_BLE_SDK/GD32VW55x_RELEASE_V1.0.2/MSDK/wpa_supplicant/src/tls\tlsv1_cred.c **** 	pos += os_strlen(pem_dhparams_begin);
1154:C:/Users/stapi/OneDrive/Desktop/GD32VW553/V1_MQTT_OK/GD32VW55X_Wifi_BLE_SDK/GD32VW55x_RELEASE_V1.0.2/MSDK/wpa_supplicant/src/tls\tlsv1_cred.c **** 	end = search_tag(pem_dhparams_end, pos, buf + len - pos);
1155:C:/Users/stapi/OneDrive/Desktop/GD32VW553/V1_MQTT_OK/GD32VW55X_Wifi_BLE_SDK/GD32VW55x_RELEASE_V1.0.2/MSDK/wpa_supplicant/src/tls\tlsv1_cred.c **** 	if (end == NULL) {
1156:C:/Users/stapi/OneDrive/Desktop/GD32VW553/V1_MQTT_OK/GD32VW55X_Wifi_BLE_SDK/GD32VW55x_RELEASE_V1.0.2/MSDK/wpa_supplicant/src/tls\tlsv1_cred.c **** 		wpa_printf(MSG_INFO, "TLSv1: Could not find PEM dhparams end "
1157:C:/Users/stapi/OneDrive/Desktop/GD32VW553/V1_MQTT_OK/GD32VW55X_Wifi_BLE_SDK/GD32VW55x_RELEASE_V1.0.2/MSDK/wpa_supplicant/src/tls\tlsv1_cred.c **** 			   "tag (%s)", pem_dhparams_end);
1158:C:/Users/stapi/OneDrive/Desktop/GD32VW553/V1_MQTT_OK/GD32VW55X_Wifi_BLE_SDK/GD32VW55x_RELEASE_V1.0.2/MSDK/wpa_supplicant/src/tls\tlsv1_cred.c **** 		return -1;
1159:C:/Users/stapi/OneDrive/Desktop/GD32VW553/V1_MQTT_OK/GD32VW55X_Wifi_BLE_SDK/GD32VW55x_RELEASE_V1.0.2/MSDK/wpa_supplicant/src/tls\tlsv1_cred.c **** 	}
1160:C:/Users/stapi/OneDrive/Desktop/GD32VW553/V1_MQTT_OK/GD32VW55X_Wifi_BLE_SDK/GD32VW55x_RELEASE_V1.0.2/MSDK/wpa_supplicant/src/tls\tlsv1_cred.c **** 
1161:C:/Users/stapi/OneDrive/Desktop/GD32VW553/V1_MQTT_OK/GD32VW55X_Wifi_BLE_SDK/GD32VW55x_RELEASE_V1.0.2/MSDK/wpa_supplicant/src/tls\tlsv1_cred.c **** 	der = base64_decode((const char *) pos, end - pos, &der_len);
1162:C:/Users/stapi/OneDrive/Desktop/GD32VW553/V1_MQTT_OK/GD32VW55X_Wifi_BLE_SDK/GD32VW55x_RELEASE_V1.0.2/MSDK/wpa_supplicant/src/tls\tlsv1_cred.c **** 	if (der == NULL) {
1163:C:/Users/stapi/OneDrive/Desktop/GD32VW553/V1_MQTT_OK/GD32VW55X_Wifi_BLE_SDK/GD32VW55x_RELEASE_V1.0.2/MSDK/wpa_supplicant/src/tls\tlsv1_cred.c **** 		wpa_printf(MSG_INFO, "TLSv1: Could not decode PEM dhparams");
1164:C:/Users/stapi/OneDrive/Desktop/GD32VW553/V1_MQTT_OK/GD32VW55X_Wifi_BLE_SDK/GD32VW55x_RELEASE_V1.0.2/MSDK/wpa_supplicant/src/tls\tlsv1_cred.c **** 		return -1;
1165:C:/Users/stapi/OneDrive/Desktop/GD32VW553/V1_MQTT_OK/GD32VW55X_Wifi_BLE_SDK/GD32VW55x_RELEASE_V1.0.2/MSDK/wpa_supplicant/src/tls\tlsv1_cred.c **** 	}
1166:C:/Users/stapi/OneDrive/Desktop/GD32VW553/V1_MQTT_OK/GD32VW55X_Wifi_BLE_SDK/GD32VW55x_RELEASE_V1.0.2/MSDK/wpa_supplicant/src/tls\tlsv1_cred.c **** 
1167:C:/Users/stapi/OneDrive/Desktop/GD32VW553/V1_MQTT_OK/GD32VW55X_Wifi_BLE_SDK/GD32VW55x_RELEASE_V1.0.2/MSDK/wpa_supplicant/src/tls\tlsv1_cred.c **** 	if (tlsv1_set_dhparams_der(cred, der, der_len) < 0) {
1168:C:/Users/stapi/OneDrive/Desktop/GD32VW553/V1_MQTT_OK/GD32VW55X_Wifi_BLE_SDK/GD32VW55x_RELEASE_V1.0.2/MSDK/wpa_supplicant/src/tls\tlsv1_cred.c **** 		wpa_printf(MSG_INFO, "TLSv1: Failed to parse PEM dhparams "
1169:C:/Users/stapi/OneDrive/Desktop/GD32VW553/V1_MQTT_OK/GD32VW55X_Wifi_BLE_SDK/GD32VW55x_RELEASE_V1.0.2/MSDK/wpa_supplicant/src/tls\tlsv1_cred.c **** 			   "DER conversion");
1170:C:/Users/stapi/OneDrive/Desktop/GD32VW553/V1_MQTT_OK/GD32VW55X_Wifi_BLE_SDK/GD32VW55x_RELEASE_V1.0.2/MSDK/wpa_supplicant/src/tls\tlsv1_cred.c **** 		os_free(der);
1171:C:/Users/stapi/OneDrive/Desktop/GD32VW553/V1_MQTT_OK/GD32VW55X_Wifi_BLE_SDK/GD32VW55x_RELEASE_V1.0.2/MSDK/wpa_supplicant/src/tls\tlsv1_cred.c **** 		return -1;
1172:C:/Users/stapi/OneDrive/Desktop/GD32VW553/V1_MQTT_OK/GD32VW55X_Wifi_BLE_SDK/GD32VW55x_RELEASE_V1.0.2/MSDK/wpa_supplicant/src/tls\tlsv1_cred.c **** 	}
1173:C:/Users/stapi/OneDrive/Desktop/GD32VW553/V1_MQTT_OK/GD32VW55X_Wifi_BLE_SDK/GD32VW55x_RELEASE_V1.0.2/MSDK/wpa_supplicant/src/tls\tlsv1_cred.c **** 
1174:C:/Users/stapi/OneDrive/Desktop/GD32VW553/V1_MQTT_OK/GD32VW55X_Wifi_BLE_SDK/GD32VW55x_RELEASE_V1.0.2/MSDK/wpa_supplicant/src/tls\tlsv1_cred.c **** 	os_free(der);
1175:C:/Users/stapi/OneDrive/Desktop/GD32VW553/V1_MQTT_OK/GD32VW55X_Wifi_BLE_SDK/GD32VW55x_RELEASE_V1.0.2/MSDK/wpa_supplicant/src/tls\tlsv1_cred.c **** 
1176:C:/Users/stapi/OneDrive/Desktop/GD32VW553/V1_MQTT_OK/GD32VW55X_Wifi_BLE_SDK/GD32VW55x_RELEASE_V1.0.2/MSDK/wpa_supplicant/src/tls\tlsv1_cred.c **** 	return 0;
1177:C:/Users/stapi/OneDrive/Desktop/GD32VW553/V1_MQTT_OK/GD32VW55X_Wifi_BLE_SDK/GD32VW55x_RELEASE_V1.0.2/MSDK/wpa_supplicant/src/tls\tlsv1_cred.c **** }
 1198              		.loc 1 1177 1
 1199 0042 4101     		addi	sp,sp,16
 1200              		.cfi_remember_state
 1201              		.cfi_def_cfa_offset 0
 1202 0044 17030000 		tail	__riscv_restore_5
 1202      67000300 
 1203              		.cfi_restore 20
 1204              		.cfi_restore 19
 1205              		.cfi_restore 18
 1206              		.cfi_restore 9
 1207              		.cfi_restore 8
 1208              		.cfi_restore 1
 1209              		.cfi_def_cfa_offset -32
 1210              	.LVL140:
 1211              	.L104:
 1212              		.cfi_restore_state
1150:C:/Users/stapi/OneDrive/Desktop/GD32VW553/V1_MQTT_OK/GD32VW55X_Wifi_BLE_SDK/GD32VW55x_RELEASE_V1.0.2/MSDK/wpa_supplicant/src/tls\tlsv1_cred.c **** 		   "format");
 1213              		.loc 1 1150 2
 1214 004c B7050000 		lui	a1,%hi(.LC26)
 1215 0050 93850500 		addi	a1,a1,%lo(.LC26)
 1216 0054 2A84     		mv	s0,a0
1150:C:/Users/stapi/OneDrive/Desktop/GD32VW553/V1_MQTT_OK/GD32VW55X_Wifi_BLE_SDK/GD32VW55x_RELEASE_V1.0.2/MSDK/wpa_supplicant/src/tls\tlsv1_cred.c **** 		   "format");
 1217              		.loc 1 1150 2 is_stmt 1
 1218 0056 0945     		li	a0,2
 1219              	.LVL141:
 1220 0058 97000000 		call	wpa_printf
 1220      E7800000 
 1221              	.LVL142:
1153:C:/Users/stapi/OneDrive/Desktop/GD32VW553/V1_MQTT_OK/GD32VW55X_Wifi_BLE_SDK/GD32VW55x_RELEASE_V1.0.2/MSDK/wpa_supplicant/src/tls\tlsv1_cred.c **** 	end = search_tag(pem_dhparams_end, pos, buf + len - pos);
 1222              		.loc 1 1153 2
1153:C:/Users/stapi/OneDrive/Desktop/GD32VW553/V1_MQTT_OK/GD32VW55X_Wifi_BLE_SDK/GD32VW55x_RELEASE_V1.0.2/MSDK/wpa_supplicant/src/tls\tlsv1_cred.c **** 	end = search_tag(pem_dhparams_end, pos, buf + len - pos);
 1223              		.loc 1 1153 9 is_stmt 0
 1224 0060 13050A00 		addi	a0,s4,%lo(.LC24)
 1225 0064 97000000 		call	os_strlen
 1225      E7800000 
 1226              	.LVL143:
1153:C:/Users/stapi/OneDrive/Desktop/GD32VW553/V1_MQTT_OK/GD32VW55X_Wifi_BLE_SDK/GD32VW55x_RELEASE_V1.0.2/MSDK/wpa_supplicant/src/tls\tlsv1_cred.c **** 	end = search_tag(pem_dhparams_end, pos, buf + len - pos);
 1227              		.loc 1 1153 6
 1228 006c 2A94     		add	s0,s0,a0
 1229              	.LVL144:
1154:C:/Users/stapi/OneDrive/Desktop/GD32VW553/V1_MQTT_OK/GD32VW55X_Wifi_BLE_SDK/GD32VW55x_RELEASE_V1.0.2/MSDK/wpa_supplicant/src/tls\tlsv1_cred.c **** 	if (end == NULL) {
 1230              		.loc 1 1154 2 is_stmt 1
1154:C:/Users/stapi/OneDrive/Desktop/GD32VW553/V1_MQTT_OK/GD32VW55X_Wifi_BLE_SDK/GD32VW55x_RELEASE_V1.0.2/MSDK/wpa_supplicant/src/tls\tlsv1_cred.c **** 	if (end == NULL) {
 1231              		.loc 1 1154 46 is_stmt 0
 1232 006e 33863401 		add	a2,s1,s3
1154:C:/Users/stapi/OneDrive/Desktop/GD32VW553/V1_MQTT_OK/GD32VW55X_Wifi_BLE_SDK/GD32VW55x_RELEASE_V1.0.2/MSDK/wpa_supplicant/src/tls\tlsv1_cred.c **** 	if (end == NULL) {
 1233              		.loc 1 1154 8
 1234 0072 B7040000 		lui	s1,%hi(.LC27)
 1235              	.LVL145:
 1236 0076 018E     		sub	a2,a2,s0
 1237 0078 A285     		mv	a1,s0
 1238 007a 13850400 		addi	a0,s1,%lo(.LC27)
 1239 007e 97000000 		call	search_tag
 1239      E7800000 
 1240              	.LVL146:
1155:C:/Users/stapi/OneDrive/Desktop/GD32VW553/V1_MQTT_OK/GD32VW55X_Wifi_BLE_SDK/GD32VW55x_RELEASE_V1.0.2/MSDK/wpa_supplicant/src/tls\tlsv1_cred.c **** 		wpa_printf(MSG_INFO, "TLSv1: Could not find PEM dhparams end "
 1241              		.loc 1 1155 2 is_stmt 1
1155:C:/Users/stapi/OneDrive/Desktop/GD32VW553/V1_MQTT_OK/GD32VW55X_Wifi_BLE_SDK/GD32VW55x_RELEASE_V1.0.2/MSDK/wpa_supplicant/src/tls\tlsv1_cred.c **** 		wpa_printf(MSG_INFO, "TLSv1: Could not find PEM dhparams end "
 1242              		.loc 1 1155 5 is_stmt 0
 1243 0086 11ED     		bne	a0,zero,.L106
1156:C:/Users/stapi/OneDrive/Desktop/GD32VW553/V1_MQTT_OK/GD32VW55X_Wifi_BLE_SDK/GD32VW55x_RELEASE_V1.0.2/MSDK/wpa_supplicant/src/tls\tlsv1_cred.c **** 			   "tag (%s)", pem_dhparams_end);
 1244              		.loc 1 1156 3 is_stmt 1
 1245 0088 B7050000 		lui	a1,%hi(.LC28)
 1246 008c 13860400 		addi	a2,s1,%lo(.LC27)
 1247 0090 93850500 		addi	a1,a1,%lo(.LC28)
 1248 0094 0D45     		li	a0,3
 1249              	.LVL147:
 1250 0096 97000000 		call	wpa_printf
 1250      E7800000 
 1251              	.LVL148:
1158:C:/Users/stapi/OneDrive/Desktop/GD32VW553/V1_MQTT_OK/GD32VW55X_Wifi_BLE_SDK/GD32VW55x_RELEASE_V1.0.2/MSDK/wpa_supplicant/src/tls\tlsv1_cred.c **** 	}
 1252              		.loc 1 1158 3
 1253              	.L110:
1171:C:/Users/stapi/OneDrive/Desktop/GD32VW553/V1_MQTT_OK/GD32VW55X_Wifi_BLE_SDK/GD32VW55x_RELEASE_V1.0.2/MSDK/wpa_supplicant/src/tls\tlsv1_cred.c **** 	}
 1254              		.loc 1 1171 3
1171:C:/Users/stapi/OneDrive/Desktop/GD32VW553/V1_MQTT_OK/GD32VW55X_Wifi_BLE_SDK/GD32VW55x_RELEASE_V1.0.2/MSDK/wpa_supplicant/src/tls\tlsv1_cred.c **** 	}
 1255              		.loc 1 1171 10 is_stmt 0
 1256 009e 7D55     		li	a0,-1
 1257 00a0 4DB7     		j	.L103
 1258              	.LVL149:
 1259              	.L106:
1161:C:/Users/stapi/OneDrive/Desktop/GD32VW553/V1_MQTT_OK/GD32VW55X_Wifi_BLE_SDK/GD32VW55x_RELEASE_V1.0.2/MSDK/wpa_supplicant/src/tls\tlsv1_cred.c **** 	if (der == NULL) {
 1260              		.loc 1 1161 2 is_stmt 1
1161:C:/Users/stapi/OneDrive/Desktop/GD32VW553/V1_MQTT_OK/GD32VW55X_Wifi_BLE_SDK/GD32VW55x_RELEASE_V1.0.2/MSDK/wpa_supplicant/src/tls\tlsv1_cred.c **** 	if (der == NULL) {
 1261              		.loc 1 1161 8 is_stmt 0
 1262 00a2 B3058540 		sub	a1,a0,s0
 1263 00a6 7000     		addi	a2,sp,12
 1264 00a8 2285     		mv	a0,s0
 1265              	.LVL150:
 1266 00aa 97000000 		call	base64_decode
 1266      E7800000 
 1267              	.LVL151:
 1268 00b2 2A84     		mv	s0,a0
 1269              	.LVL152:
1162:C:/Users/stapi/OneDrive/Desktop/GD32VW553/V1_MQTT_OK/GD32VW55X_Wifi_BLE_SDK/GD32VW55x_RELEASE_V1.0.2/MSDK/wpa_supplicant/src/tls\tlsv1_cred.c **** 		wpa_printf(MSG_INFO, "TLSv1: Could not decode PEM dhparams");
 1270              		.loc 1 1162 2 is_stmt 1
1162:C:/Users/stapi/OneDrive/Desktop/GD32VW553/V1_MQTT_OK/GD32VW55X_Wifi_BLE_SDK/GD32VW55x_RELEASE_V1.0.2/MSDK/wpa_supplicant/src/tls\tlsv1_cred.c **** 		wpa_printf(MSG_INFO, "TLSv1: Could not decode PEM dhparams");
 1271              		.loc 1 1162 5 is_stmt 0
 1272 00b4 19E9     		bne	a0,zero,.L107
1163:C:/Users/stapi/OneDrive/Desktop/GD32VW553/V1_MQTT_OK/GD32VW55X_Wifi_BLE_SDK/GD32VW55x_RELEASE_V1.0.2/MSDK/wpa_supplicant/src/tls\tlsv1_cred.c **** 		return -1;
 1273              		.loc 1 1163 3 is_stmt 1
 1274 00b6 B7050000 		lui	a1,%hi(.LC29)
 1275 00ba 93850500 		addi	a1,a1,%lo(.LC29)
 1276 00be 0D45     		li	a0,3
 1277 00c0 97000000 		call	wpa_printf
 1277      E7800000 
 1278              	.LVL153:
1164:C:/Users/stapi/OneDrive/Desktop/GD32VW553/V1_MQTT_OK/GD32VW55X_Wifi_BLE_SDK/GD32VW55x_RELEASE_V1.0.2/MSDK/wpa_supplicant/src/tls\tlsv1_cred.c **** 	}
 1279              		.loc 1 1164 3
 1280 00c8 D9BF     		j	.L110
 1281              	.L107:
1167:C:/Users/stapi/OneDrive/Desktop/GD32VW553/V1_MQTT_OK/GD32VW55X_Wifi_BLE_SDK/GD32VW55x_RELEASE_V1.0.2/MSDK/wpa_supplicant/src/tls\tlsv1_cred.c **** 		wpa_printf(MSG_INFO, "TLSv1: Failed to parse PEM dhparams "
 1282              		.loc 1 1167 2
1167:C:/Users/stapi/OneDrive/Desktop/GD32VW553/V1_MQTT_OK/GD32VW55X_Wifi_BLE_SDK/GD32VW55x_RELEASE_V1.0.2/MSDK/wpa_supplicant/src/tls\tlsv1_cred.c **** 		wpa_printf(MSG_INFO, "TLSv1: Failed to parse PEM dhparams "
 1283              		.loc 1 1167 6 is_stmt 0
 1284 00ca 3246     		lw	a2,12(sp)
 1285 00cc AA85     		mv	a1,a0
 1286 00ce 4A85     		mv	a0,s2
 1287 00d0 97000000 		call	tlsv1_set_dhparams_der
 1287      E7800000 
 1288              	.LVL154:
1167:C:/Users/stapi/OneDrive/Desktop/GD32VW553/V1_MQTT_OK/GD32VW55X_Wifi_BLE_SDK/GD32VW55x_RELEASE_V1.0.2/MSDK/wpa_supplicant/src/tls\tlsv1_cred.c **** 		wpa_printf(MSG_INFO, "TLSv1: Failed to parse PEM dhparams "
 1289              		.loc 1 1167 5
 1290 00d8 63510502 		bge	a0,zero,.L108
1168:C:/Users/stapi/OneDrive/Desktop/GD32VW553/V1_MQTT_OK/GD32VW55X_Wifi_BLE_SDK/GD32VW55x_RELEASE_V1.0.2/MSDK/wpa_supplicant/src/tls\tlsv1_cred.c **** 			   "DER conversion");
 1291              		.loc 1 1168 3 is_stmt 1
 1292 00dc B7050000 		lui	a1,%hi(.LC30)
 1293 00e0 93850500 		addi	a1,a1,%lo(.LC30)
 1294 00e4 0D45     		li	a0,3
 1295 00e6 97000000 		call	wpa_printf
 1295      E7800000 
 1296              	.LVL155:
1170:C:/Users/stapi/OneDrive/Desktop/GD32VW553/V1_MQTT_OK/GD32VW55X_Wifi_BLE_SDK/GD32VW55x_RELEASE_V1.0.2/MSDK/wpa_supplicant/src/tls\tlsv1_cred.c **** 		return -1;
 1297              		.loc 1 1170 3
 1298 00ee 2285     		mv	a0,s0
 1299 00f0 97000000 		call	os_free
 1299      E7800000 
 1300              	.LVL156:
 1301 00f8 5DB7     		j	.L110
 1302              	.L108:
1174:C:/Users/stapi/OneDrive/Desktop/GD32VW553/V1_MQTT_OK/GD32VW55X_Wifi_BLE_SDK/GD32VW55x_RELEASE_V1.0.2/MSDK/wpa_supplicant/src/tls\tlsv1_cred.c **** 
 1303              		.loc 1 1174 2
 1304 00fa 2285     		mv	a0,s0
 1305 00fc 97000000 		call	os_free
 1305      E7800000 
 1306              	.LVL157:
1176:C:/Users/stapi/OneDrive/Desktop/GD32VW553/V1_MQTT_OK/GD32VW55X_Wifi_BLE_SDK/GD32VW55x_RELEASE_V1.0.2/MSDK/wpa_supplicant/src/tls\tlsv1_cred.c **** }
 1307              		.loc 1 1176 2
1176:C:/Users/stapi/OneDrive/Desktop/GD32VW553/V1_MQTT_OK/GD32VW55X_Wifi_BLE_SDK/GD32VW55x_RELEASE_V1.0.2/MSDK/wpa_supplicant/src/tls\tlsv1_cred.c **** }
 1308              		.loc 1 1176 9 is_stmt 0
 1309 0104 0145     		li	a0,0
 1310 0106 35BF     		j	.L103
 1311              		.cfi_endproc
 1312              	.LFE99:
 1314              		.section	.text.tlsv1_cred_alloc,"ax",@progbits
 1315              		.align	1
 1316              		.globl	tlsv1_cred_alloc
 1318              	tlsv1_cred_alloc:
 1319              	.LFB86:
  22:C:/Users/stapi/OneDrive/Desktop/GD32VW553/V1_MQTT_OK/GD32VW55X_Wifi_BLE_SDK/GD32VW55x_RELEASE_V1.0.2/MSDK/wpa_supplicant/src/tls\tlsv1_cred.c **** 	struct tlsv1_credentials *cred;
 1320              		.loc 1 22 1 is_stmt 1
 1321              		.cfi_startproc
  23:C:/Users/stapi/OneDrive/Desktop/GD32VW553/V1_MQTT_OK/GD32VW55X_Wifi_BLE_SDK/GD32VW55x_RELEASE_V1.0.2/MSDK/wpa_supplicant/src/tls\tlsv1_cred.c **** 	cred = os_zalloc(sizeof(*cred));
 1322              		.loc 1 23 2
  24:C:/Users/stapi/OneDrive/Desktop/GD32VW553/V1_MQTT_OK/GD32VW55X_Wifi_BLE_SDK/GD32VW55x_RELEASE_V1.0.2/MSDK/wpa_supplicant/src/tls\tlsv1_cred.c **** 	return cred;
 1323              		.loc 1 24 2
  24:C:/Users/stapi/OneDrive/Desktop/GD32VW553/V1_MQTT_OK/GD32VW55X_Wifi_BLE_SDK/GD32VW55x_RELEASE_V1.0.2/MSDK/wpa_supplicant/src/tls\tlsv1_cred.c **** 	return cred;
 1324              		.loc 1 24 9 is_stmt 0
 1325 0000 13058004 		li	a0,72
 1326 0004 17030000 		tail	os_zalloc
 1326      67000300 
 1327              	.LVL158:
  25:C:/Users/stapi/OneDrive/Desktop/GD32VW553/V1_MQTT_OK/GD32VW55X_Wifi_BLE_SDK/GD32VW55x_RELEASE_V1.0.2/MSDK/wpa_supplicant/src/tls\tlsv1_cred.c **** }
 1328              		.loc 1 25 2 is_stmt 1
 1329              		.cfi_endproc
 1330              	.LFE86:
 1332              		.section	.text.tlsv1_cred_free,"ax",@progbits
 1333              		.align	1
 1334              		.globl	tlsv1_cred_free
 1336              	tlsv1_cred_free:
 1337              	.LFB87:
  30:C:/Users/stapi/OneDrive/Desktop/GD32VW553/V1_MQTT_OK/GD32VW55X_Wifi_BLE_SDK/GD32VW55x_RELEASE_V1.0.2/MSDK/wpa_supplicant/src/tls\tlsv1_cred.c **** 	if (cred == NULL)
 1338              		.loc 1 30 1
 1339              		.cfi_startproc
 1340              	.LVL159:
  31:C:/Users/stapi/OneDrive/Desktop/GD32VW553/V1_MQTT_OK/GD32VW55X_Wifi_BLE_SDK/GD32VW55x_RELEASE_V1.0.2/MSDK/wpa_supplicant/src/tls\tlsv1_cred.c **** 		return;
 1341              		.loc 1 31 2
  31:C:/Users/stapi/OneDrive/Desktop/GD32VW553/V1_MQTT_OK/GD32VW55X_Wifi_BLE_SDK/GD32VW55x_RELEASE_V1.0.2/MSDK/wpa_supplicant/src/tls\tlsv1_cred.c **** 		return;
 1342              		.loc 1 31 5 is_stmt 0
 1343 0000 35C1     		beq	a0,zero,.L119
  30:C:/Users/stapi/OneDrive/Desktop/GD32VW553/V1_MQTT_OK/GD32VW55X_Wifi_BLE_SDK/GD32VW55x_RELEASE_V1.0.2/MSDK/wpa_supplicant/src/tls\tlsv1_cred.c **** 	if (cred == NULL)
 1344              		.loc 1 30 1
 1345 0002 17030000 		call	t0,__riscv_save_1
 1345      E7020300 
 1346              		.cfi_offset 8, -8
 1347              		.cfi_offset 1, -4
 1348              		.cfi_def_cfa_offset 16
 1349 000a 2A84     		mv	s0,a0
  34:C:/Users/stapi/OneDrive/Desktop/GD32VW553/V1_MQTT_OK/GD32VW55X_Wifi_BLE_SDK/GD32VW55x_RELEASE_V1.0.2/MSDK/wpa_supplicant/src/tls\tlsv1_cred.c **** 	x509_certificate_chain_free(cred->cert);
 1350              		.loc 1 34 2 is_stmt 1
 1351 000c 0841     		lw	a0,0(a0)
 1352              	.LVL160:
 1353 000e 97000000 		call	x509_certificate_chain_free
 1353      E7800000 
 1354              	.LVL161:
  35:C:/Users/stapi/OneDrive/Desktop/GD32VW553/V1_MQTT_OK/GD32VW55X_Wifi_BLE_SDK/GD32VW55x_RELEASE_V1.0.2/MSDK/wpa_supplicant/src/tls\tlsv1_cred.c **** 	crypto_private_key_free(cred->key);
 1355              		.loc 1 35 2
 1356 0016 4840     		lw	a0,4(s0)
 1357 0018 97000000 		call	x509_certificate_chain_free
 1357      E7800000 
 1358              	.LVL162:
  36:C:/Users/stapi/OneDrive/Desktop/GD32VW553/V1_MQTT_OK/GD32VW55X_Wifi_BLE_SDK/GD32VW55x_RELEASE_V1.0.2/MSDK/wpa_supplicant/src/tls\tlsv1_cred.c **** 	os_free(cred->dh_p);
 1359              		.loc 1 36 2
 1360 0020 0844     		lw	a0,8(s0)
 1361 0022 97000000 		call	crypto_private_key_free
 1361      E7800000 
 1362              	.LVL163:
  37:C:/Users/stapi/OneDrive/Desktop/GD32VW553/V1_MQTT_OK/GD32VW55X_Wifi_BLE_SDK/GD32VW55x_RELEASE_V1.0.2/MSDK/wpa_supplicant/src/tls\tlsv1_cred.c **** 	os_free(cred->dh_g);
 1363              		.loc 1 37 2
 1364 002a 0858     		lw	a0,48(s0)
 1365 002c 97000000 		call	os_free
 1365      E7800000 
 1366              	.LVL164:
  38:C:/Users/stapi/OneDrive/Desktop/GD32VW553/V1_MQTT_OK/GD32VW55X_Wifi_BLE_SDK/GD32VW55x_RELEASE_V1.0.2/MSDK/wpa_supplicant/src/tls\tlsv1_cred.c **** 	os_free(cred->ocsp_stapling_response);
 1367              		.loc 1 38 2
 1368 0034 085C     		lw	a0,56(s0)
 1369 0036 97000000 		call	os_free
 1369      E7800000 
 1370              	.LVL165:
  39:C:/Users/stapi/OneDrive/Desktop/GD32VW553/V1_MQTT_OK/GD32VW55X_Wifi_BLE_SDK/GD32VW55x_RELEASE_V1.0.2/MSDK/wpa_supplicant/src/tls\tlsv1_cred.c **** 	os_free(cred->ocsp_stapling_response_multi);
 1371              		.loc 1 39 2
 1372 003e 2840     		lw	a0,64(s0)
 1373 0040 97000000 		call	os_free
 1373      E7800000 
 1374              	.LVL166:
  40:C:/Users/stapi/OneDrive/Desktop/GD32VW553/V1_MQTT_OK/GD32VW55X_Wifi_BLE_SDK/GD32VW55x_RELEASE_V1.0.2/MSDK/wpa_supplicant/src/tls\tlsv1_cred.c **** 	os_free(cred);
 1375              		.loc 1 40 2
 1376 0048 6840     		lw	a0,68(s0)
 1377 004a 97000000 		call	os_free
 1377      E7800000 
 1378              	.LVL167:
  41:C:/Users/stapi/OneDrive/Desktop/GD32VW553/V1_MQTT_OK/GD32VW55X_Wifi_BLE_SDK/GD32VW55x_RELEASE_V1.0.2/MSDK/wpa_supplicant/src/tls\tlsv1_cred.c **** }
 1379              		.loc 1 41 2
 1380 0052 2285     		mv	a0,s0
 1381 0054 97000000 		call	os_free
 1381      E7800000 
 1382              	.LVL168:
  42:C:/Users/stapi/OneDrive/Desktop/GD32VW553/V1_MQTT_OK/GD32VW55X_Wifi_BLE_SDK/GD32VW55x_RELEASE_V1.0.2/MSDK/wpa_supplicant/src/tls\tlsv1_cred.c **** 
 1383              		.loc 1 42 1 is_stmt 0
 1384 005c 17030000 		tail	__riscv_restore_1
 1384      67000300 
 1385              		.cfi_restore 8
 1386              		.cfi_restore 1
 1387              		.cfi_def_cfa_offset 0
 1388              	.LVL169:
 1389              	.L119:
 1390 0064 8280     		ret
 1391              		.cfi_endproc
 1392              	.LFE87:
 1394              		.section	.rodata.tlsv1_set_ca_cert.str1.4,"aMS",@progbits,1
 1395              		.align	2
 1396              	.LC31:
 1397 0000 68617368 		.string	"hash://"
 1397      3A2F2F00 
 1398              		.align	2
 1399              	.LC32:
 1400 0008 73657276 		.string	"server/sha256/"
 1400      65722F73 
 1400      68613235 
 1400      362F00
 1401 0017 00       		.align	2
 1402              	.LC33:
 1403 0018 544C5376 		.string	"TLSv1: Unsupported ca_cert hash value '%s'"
 1403      313A2055 
 1403      6E737570 
 1403      706F7274 
 1403      65642063 
 1404 0043 00       		.align	2
 1405              	.LC34:
 1406 0044 544C5376 		.string	"TLSv1: Unexpected SHA256 hash length in ca_cert '%s'"
 1406      313A2055 
 1406      6E657870 
 1406      65637465 
 1406      64205348 
 1407 0079 000000   		.align	2
 1408              	.LC35:
 1409 007c 544C5376 		.string	"TLSv1: Invalid SHA256 hash value in ca_cert '%s'"
 1409      313A2049 
 1409      6E76616C 
 1409      69642053 
 1409      48413235 
 1410 00ad 000000   		.align	2
 1411              	.LC36:
 1412 00b0 544C5376 		.string	"TLSv1: Checking only server certificate match"
 1412      313A2043 
 1412      6865636B 
 1412      696E6720 
 1412      6F6E6C79 
 1413 00de 0000     		.align	2
 1414              	.LC37:
 1415 00e0 544C5376 		.string	"TLSv1: Only probe server certificate"
 1415      313A204F 
 1415      6E6C7920 
 1415      70726F62 
 1415      65207365 
 1416 0105 000000   		.align	2
 1417              	.LC38:
 1418 0108 544C5376 		.string	"TLSv1: Use of CA certificate directory not yet supported"
 1418      313A2055 
 1418      7365206F 
 1418      66204341 
 1418      20636572 
 1419 0141 000000   		.align	2
 1420              	.LC39:
 1421 0144 70726F62 		.string	"probe://"
 1421      653A2F2F 
 1421      00
 1422              		.section	.text.tlsv1_set_ca_cert,"ax",@progbits
 1423              		.align	1
 1424              		.globl	tlsv1_set_ca_cert
 1426              	tlsv1_set_ca_cert:
 1427              	.LFB92:
 197:C:/Users/stapi/OneDrive/Desktop/GD32VW553/V1_MQTT_OK/GD32VW55X_Wifi_BLE_SDK/GD32VW55x_RELEASE_V1.0.2/MSDK/wpa_supplicant/src/tls\tlsv1_cred.c **** 	if (cert && os_strncmp(cert, "hash://", 7) == 0) {
 1428              		.loc 1 197 1 is_stmt 1
 1429              		.cfi_startproc
 1430              	.LVL170:
 1431 0000 17030000 		call	t0,__riscv_save_6
 1431      E7020300 
 1432              		.cfi_offset 21, -28
 1433              		.cfi_offset 20, -24
 1434              		.cfi_offset 19, -20
 1435              		.cfi_offset 18, -16
 1436              		.cfi_offset 9, -12
 1437              		.cfi_offset 8, -8
 1438              		.cfi_offset 1, -4
 1439              		.cfi_def_cfa_offset 32
 198:C:/Users/stapi/OneDrive/Desktop/GD32VW553/V1_MQTT_OK/GD32VW55X_Wifi_BLE_SDK/GD32VW55x_RELEASE_V1.0.2/MSDK/wpa_supplicant/src/tls\tlsv1_cred.c **** 		const char *pos = cert + 7;
 1440              		.loc 1 198 2
 197:C:/Users/stapi/OneDrive/Desktop/GD32VW553/V1_MQTT_OK/GD32VW55X_Wifi_BLE_SDK/GD32VW55x_RELEASE_V1.0.2/MSDK/wpa_supplicant/src/tls\tlsv1_cred.c **** 	if (cert && os_strncmp(cert, "hash://", 7) == 0) {
 1441              		.loc 1 197 1 is_stmt 0
 1442 0008 2A89     		mv	s2,a0
 1443 000a AE84     		mv	s1,a1
 1444 000c B289     		mv	s3,a2
 1445 000e B68A     		mv	s5,a3
 1446 0010 3A8A     		mv	s4,a4
 198:C:/Users/stapi/OneDrive/Desktop/GD32VW553/V1_MQTT_OK/GD32VW55X_Wifi_BLE_SDK/GD32VW55x_RELEASE_V1.0.2/MSDK/wpa_supplicant/src/tls\tlsv1_cred.c **** 		const char *pos = cert + 7;
 1447              		.loc 1 198 5
 1448 0012 C5CD     		beq	a1,zero,.L123
 198:C:/Users/stapi/OneDrive/Desktop/GD32VW553/V1_MQTT_OK/GD32VW55X_Wifi_BLE_SDK/GD32VW55x_RELEASE_V1.0.2/MSDK/wpa_supplicant/src/tls\tlsv1_cred.c **** 		const char *pos = cert + 7;
 1449              		.loc 1 198 14 discriminator 1
 1450 0014 B7050000 		lui	a1,%hi(.LC31)
 1451              	.LVL171:
 1452 0018 1D46     		li	a2,7
 1453              	.LVL172:
 1454 001a 93850500 		addi	a1,a1,%lo(.LC31)
 1455 001e 2685     		mv	a0,s1
 1456              	.LVL173:
 1457 0020 97000000 		call	os_strncmp
 1457      E7800000 
 1458              	.LVL174:
 198:C:/Users/stapi/OneDrive/Desktop/GD32VW553/V1_MQTT_OK/GD32VW55X_Wifi_BLE_SDK/GD32VW55x_RELEASE_V1.0.2/MSDK/wpa_supplicant/src/tls\tlsv1_cred.c **** 		const char *pos = cert + 7;
 1459              		.loc 1 198 11 discriminator 1
 1460 0028 6DE5     		bne	a0,zero,.L124
 1461              	.LBB37:
 199:C:/Users/stapi/OneDrive/Desktop/GD32VW553/V1_MQTT_OK/GD32VW55X_Wifi_BLE_SDK/GD32VW55x_RELEASE_V1.0.2/MSDK/wpa_supplicant/src/tls\tlsv1_cred.c **** 		if (os_strncmp(pos, "server/sha256/", 14) != 0) {
 1462              		.loc 1 199 3 is_stmt 1
 1463              	.LVL175:
 200:C:/Users/stapi/OneDrive/Desktop/GD32VW553/V1_MQTT_OK/GD32VW55X_Wifi_BLE_SDK/GD32VW55x_RELEASE_V1.0.2/MSDK/wpa_supplicant/src/tls\tlsv1_cred.c **** 			wpa_printf(MSG_DEBUG,
 1464              		.loc 1 200 3
 200:C:/Users/stapi/OneDrive/Desktop/GD32VW553/V1_MQTT_OK/GD32VW55X_Wifi_BLE_SDK/GD32VW55x_RELEASE_V1.0.2/MSDK/wpa_supplicant/src/tls\tlsv1_cred.c **** 			wpa_printf(MSG_DEBUG,
 1465              		.loc 1 200 7 is_stmt 0
 1466 002a B7050000 		lui	a1,%hi(.LC32)
 1467 002e 3946     		li	a2,14
 1468 0030 93850500 		addi	a1,a1,%lo(.LC32)
 1469 0034 13857400 		addi	a0,s1,7
 1470              	.LVL176:
 1471 0038 97000000 		call	os_strncmp
 1471      E7800000 
 1472              	.LVL177:
 1473 0040 2A84     		mv	s0,a0
 200:C:/Users/stapi/OneDrive/Desktop/GD32VW553/V1_MQTT_OK/GD32VW55X_Wifi_BLE_SDK/GD32VW55x_RELEASE_V1.0.2/MSDK/wpa_supplicant/src/tls\tlsv1_cred.c **** 			wpa_printf(MSG_DEBUG,
 1474              		.loc 1 200 6
 1475 0042 0DC1     		beq	a0,zero,.L125
 201:C:/Users/stapi/OneDrive/Desktop/GD32VW553/V1_MQTT_OK/GD32VW55X_Wifi_BLE_SDK/GD32VW55x_RELEASE_V1.0.2/MSDK/wpa_supplicant/src/tls\tlsv1_cred.c **** 				   "TLSv1: Unsupported ca_cert hash value '%s'",
 1476              		.loc 1 201 4 is_stmt 1
 1477 0044 B7050000 		lui	a1,%hi(.LC33)
 1478 0048 2686     		mv	a2,s1
 1479 004a 93850500 		addi	a1,a1,%lo(.LC33)
 1480              	.LVL178:
 1481              	.L137:
 208:C:/Users/stapi/OneDrive/Desktop/GD32VW553/V1_MQTT_OK/GD32VW55X_Wifi_BLE_SDK/GD32VW55x_RELEASE_V1.0.2/MSDK/wpa_supplicant/src/tls\tlsv1_cred.c **** 				   "TLSv1: Unexpected SHA256 hash length in ca_cert '%s'",
 1482              		.loc 1 208 4 is_stmt 0
 1483 004e 0945     		li	a0,2
 1484 0050 97000000 		call	wpa_printf
 1484      E7800000 
 1485              	.LVL179:
 1486              	.L138:
 211:C:/Users/stapi/OneDrive/Desktop/GD32VW553/V1_MQTT_OK/GD32VW55X_Wifi_BLE_SDK/GD32VW55x_RELEASE_V1.0.2/MSDK/wpa_supplicant/src/tls\tlsv1_cred.c **** 		}
 1487              		.loc 1 211 4 is_stmt 1
 211:C:/Users/stapi/OneDrive/Desktop/GD32VW553/V1_MQTT_OK/GD32VW55X_Wifi_BLE_SDK/GD32VW55x_RELEASE_V1.0.2/MSDK/wpa_supplicant/src/tls\tlsv1_cred.c **** 		}
 1488              		.loc 1 211 11 is_stmt 0
 1489 0058 7D54     		li	s0,-1
 1490              	.L122:
 1491              	.LBE37:
 247:C:/Users/stapi/OneDrive/Desktop/GD32VW553/V1_MQTT_OK/GD32VW55X_Wifi_BLE_SDK/GD32VW55x_RELEASE_V1.0.2/MSDK/wpa_supplicant/src/tls\tlsv1_cred.c **** 
 1492              		.loc 1 247 1
 1493 005a 2285     		mv	a0,s0
 1494 005c 17030000 		tail	__riscv_restore_6
 1494      67000300 
 1495              		.cfi_remember_state
 1496              		.cfi_restore 21
 1497              		.cfi_restore 20
 1498              		.cfi_restore 19
 1499              		.cfi_restore 18
 1500              		.cfi_restore 9
 1501              		.cfi_restore 8
 1502              		.cfi_restore 1
 1503              		.cfi_def_cfa_offset 0
 1504              	.LVL180:
 1505              	.L125:
 1506              		.cfi_restore_state
 1507              	.LBB38:
 206:C:/Users/stapi/OneDrive/Desktop/GD32VW553/V1_MQTT_OK/GD32VW55X_Wifi_BLE_SDK/GD32VW55x_RELEASE_V1.0.2/MSDK/wpa_supplicant/src/tls\tlsv1_cred.c **** 		if (os_strlen(pos) != 32 * 2) {
 1508              		.loc 1 206 3 is_stmt 1
 206:C:/Users/stapi/OneDrive/Desktop/GD32VW553/V1_MQTT_OK/GD32VW55X_Wifi_BLE_SDK/GD32VW55x_RELEASE_V1.0.2/MSDK/wpa_supplicant/src/tls\tlsv1_cred.c **** 		if (os_strlen(pos) != 32 * 2) {
 1509              		.loc 1 206 7 is_stmt 0
 1510 0064 93895401 		addi	s3,s1,21
 1511              	.LVL181:
 207:C:/Users/stapi/OneDrive/Desktop/GD32VW553/V1_MQTT_OK/GD32VW55X_Wifi_BLE_SDK/GD32VW55x_RELEASE_V1.0.2/MSDK/wpa_supplicant/src/tls\tlsv1_cred.c **** 			wpa_printf(MSG_DEBUG,
 1512              		.loc 1 207 3 is_stmt 1
 207:C:/Users/stapi/OneDrive/Desktop/GD32VW553/V1_MQTT_OK/GD32VW55X_Wifi_BLE_SDK/GD32VW55x_RELEASE_V1.0.2/MSDK/wpa_supplicant/src/tls\tlsv1_cred.c **** 			wpa_printf(MSG_DEBUG,
 1513              		.loc 1 207 7 is_stmt 0
 1514 0068 4E85     		mv	a0,s3
 1515 006a 97000000 		call	os_strlen
 1515      E7800000 
 1516              	.LVL182:
 207:C:/Users/stapi/OneDrive/Desktop/GD32VW553/V1_MQTT_OK/GD32VW55X_Wifi_BLE_SDK/GD32VW55x_RELEASE_V1.0.2/MSDK/wpa_supplicant/src/tls\tlsv1_cred.c **** 			wpa_printf(MSG_DEBUG,
 1517              		.loc 1 207 6
 1518 0072 93070004 		li	a5,64
 1519 0076 6308F500 		beq	a0,a5,.L127
 208:C:/Users/stapi/OneDrive/Desktop/GD32VW553/V1_MQTT_OK/GD32VW55X_Wifi_BLE_SDK/GD32VW55x_RELEASE_V1.0.2/MSDK/wpa_supplicant/src/tls\tlsv1_cred.c **** 				   "TLSv1: Unexpected SHA256 hash length in ca_cert '%s'",
 1520              		.loc 1 208 4 is_stmt 1
 1521 007a B7050000 		lui	a1,%hi(.LC34)
 1522 007e 2686     		mv	a2,s1
 1523 0080 93850500 		addi	a1,a1,%lo(.LC34)
 1524 0084 E9B7     		j	.L137
 1525              	.L127:
 213:C:/Users/stapi/OneDrive/Desktop/GD32VW553/V1_MQTT_OK/GD32VW55X_Wifi_BLE_SDK/GD32VW55x_RELEASE_V1.0.2/MSDK/wpa_supplicant/src/tls\tlsv1_cred.c **** 			wpa_printf(MSG_DEBUG,
 1526              		.loc 1 213 3
 213:C:/Users/stapi/OneDrive/Desktop/GD32VW553/V1_MQTT_OK/GD32VW55X_Wifi_BLE_SDK/GD32VW55x_RELEASE_V1.0.2/MSDK/wpa_supplicant/src/tls\tlsv1_cred.c **** 			wpa_printf(MSG_DEBUG,
 1527              		.loc 1 213 7 is_stmt 0
 1528 0086 13060002 		li	a2,32
 1529 008a 9305D900 		addi	a1,s2,13
 1530 008e 4E85     		mv	a0,s3
 1531 0090 97000000 		call	hexstr2bin
 1531      E7800000 
 1532              	.LVL183:
 213:C:/Users/stapi/OneDrive/Desktop/GD32VW553/V1_MQTT_OK/GD32VW55X_Wifi_BLE_SDK/GD32VW55x_RELEASE_V1.0.2/MSDK/wpa_supplicant/src/tls\tlsv1_cred.c **** 			wpa_printf(MSG_DEBUG,
 1533              		.loc 1 213 6
 1534 0098 63580500 		bge	a0,zero,.L128
 214:C:/Users/stapi/OneDrive/Desktop/GD32VW553/V1_MQTT_OK/GD32VW55X_Wifi_BLE_SDK/GD32VW55x_RELEASE_V1.0.2/MSDK/wpa_supplicant/src/tls\tlsv1_cred.c **** 				   "TLSv1: Invalid SHA256 hash value in ca_cert '%s'",
 1535              		.loc 1 214 4 is_stmt 1
 1536 009c B7050000 		lui	a1,%hi(.LC35)
 1537 00a0 2686     		mv	a2,s1
 1538 00a2 93850500 		addi	a1,a1,%lo(.LC35)
 1539 00a6 65B7     		j	.L137
 1540              	.L128:
 219:C:/Users/stapi/OneDrive/Desktop/GD32VW553/V1_MQTT_OK/GD32VW55X_Wifi_BLE_SDK/GD32VW55x_RELEASE_V1.0.2/MSDK/wpa_supplicant/src/tls\tlsv1_cred.c **** 		cred->ca_cert_verify = 0;
 1541              		.loc 1 219 3
 220:C:/Users/stapi/OneDrive/Desktop/GD32VW553/V1_MQTT_OK/GD32VW55X_Wifi_BLE_SDK/GD32VW55x_RELEASE_V1.0.2/MSDK/wpa_supplicant/src/tls\tlsv1_cred.c **** 		wpa_printf(MSG_DEBUG,
 1542              		.loc 1 220 3
 220:C:/Users/stapi/OneDrive/Desktop/GD32VW553/V1_MQTT_OK/GD32VW55X_Wifi_BLE_SDK/GD32VW55x_RELEASE_V1.0.2/MSDK/wpa_supplicant/src/tls\tlsv1_cred.c **** 		wpa_printf(MSG_DEBUG,
 1543              		.loc 1 220 24 is_stmt 0
 1544 00a8 8347C900 		lbu	a5,12(s2)
 221:C:/Users/stapi/OneDrive/Desktop/GD32VW553/V1_MQTT_OK/GD32VW55X_Wifi_BLE_SDK/GD32VW55x_RELEASE_V1.0.2/MSDK/wpa_supplicant/src/tls\tlsv1_cred.c **** 			   "TLSv1: Checking only server certificate match");
 1545              		.loc 1 221 3
 1546 00ac B7050000 		lui	a1,%hi(.LC36)
 1547 00b0 93850500 		addi	a1,a1,%lo(.LC36)
 220:C:/Users/stapi/OneDrive/Desktop/GD32VW553/V1_MQTT_OK/GD32VW55X_Wifi_BLE_SDK/GD32VW55x_RELEASE_V1.0.2/MSDK/wpa_supplicant/src/tls\tlsv1_cred.c **** 		wpa_printf(MSG_DEBUG,
 1548              		.loc 1 220 24
 1549 00b4 E59B     		andi	a5,a5,-7
 1550 00b6 93E74700 		ori	a5,a5,4
 1551 00ba 2306F900 		sb	a5,12(s2)
 221:C:/Users/stapi/OneDrive/Desktop/GD32VW553/V1_MQTT_OK/GD32VW55X_Wifi_BLE_SDK/GD32VW55x_RELEASE_V1.0.2/MSDK/wpa_supplicant/src/tls\tlsv1_cred.c **** 			   "TLSv1: Checking only server certificate match");
 1552              		.loc 1 221 3 is_stmt 1
 1553              	.LVL184:
 1554              	.L139:
 1555              	.LBE38:
 229:C:/Users/stapi/OneDrive/Desktop/GD32VW553/V1_MQTT_OK/GD32VW55X_Wifi_BLE_SDK/GD32VW55x_RELEASE_V1.0.2/MSDK/wpa_supplicant/src/tls\tlsv1_cred.c **** 		return 0;
 1556              		.loc 1 229 3 is_stmt 0
 1557 00be 0945     		li	a0,2
 1558 00c0 97000000 		call	wpa_printf
 1558      E7800000 
 1559              	.LVL185:
 230:C:/Users/stapi/OneDrive/Desktop/GD32VW553/V1_MQTT_OK/GD32VW55X_Wifi_BLE_SDK/GD32VW55x_RELEASE_V1.0.2/MSDK/wpa_supplicant/src/tls\tlsv1_cred.c **** 	}
 1560              		.loc 1 230 3 is_stmt 1
 230:C:/Users/stapi/OneDrive/Desktop/GD32VW553/V1_MQTT_OK/GD32VW55X_Wifi_BLE_SDK/GD32VW55x_RELEASE_V1.0.2/MSDK/wpa_supplicant/src/tls\tlsv1_cred.c **** 	}
 1561              		.loc 1 230 10 is_stmt 0
 1562 00c8 49BF     		j	.L122
 1563              	.LVL186:
 1564              	.L123:
 226:C:/Users/stapi/OneDrive/Desktop/GD32VW553/V1_MQTT_OK/GD32VW55X_Wifi_BLE_SDK/GD32VW55x_RELEASE_V1.0.2/MSDK/wpa_supplicant/src/tls\tlsv1_cred.c **** 		cred->cert_probe = 1;
 1565              		.loc 1 226 2 is_stmt 1
 233:C:/Users/stapi/OneDrive/Desktop/GD32VW553/V1_MQTT_OK/GD32VW55X_Wifi_BLE_SDK/GD32VW55x_RELEASE_V1.0.2/MSDK/wpa_supplicant/src/tls\tlsv1_cred.c **** 
 1566              		.loc 1 233 2
 233:C:/Users/stapi/OneDrive/Desktop/GD32VW553/V1_MQTT_OK/GD32VW55X_Wifi_BLE_SDK/GD32VW55x_RELEASE_V1.0.2/MSDK/wpa_supplicant/src/tls\tlsv1_cred.c **** 
 1567              		.loc 1 233 43 is_stmt 0
 1568 00ca B337E000 		snez	a5,a4
 233:C:/Users/stapi/OneDrive/Desktop/GD32VW553/V1_MQTT_OK/GD32VW55X_Wifi_BLE_SDK/GD32VW55x_RELEASE_V1.0.2/MSDK/wpa_supplicant/src/tls\tlsv1_cred.c **** 
 1569              		.loc 1 233 30
 1570 00ce 11C2     		beq	a2,zero,.L130
 1571              	.LVL187:
 1572              	.L132:
 233:C:/Users/stapi/OneDrive/Desktop/GD32VW553/V1_MQTT_OK/GD32VW55X_Wifi_BLE_SDK/GD32VW55x_RELEASE_V1.0.2/MSDK/wpa_supplicant/src/tls\tlsv1_cred.c **** 
 1573              		.loc 1 233 43
 1574 00d0 8547     		li	a5,1
 1575              	.L130:
 233:C:/Users/stapi/OneDrive/Desktop/GD32VW553/V1_MQTT_OK/GD32VW55X_Wifi_BLE_SDK/GD32VW55x_RELEASE_V1.0.2/MSDK/wpa_supplicant/src/tls\tlsv1_cred.c **** 
 1576              		.loc 1 233 23 discriminator 8
 1577 00d2 13971700 		slli	a4,a5,1
 1578 00d6 8347C900 		lbu	a5,12(s2)
 235:C:/Users/stapi/OneDrive/Desktop/GD32VW553/V1_MQTT_OK/GD32VW55X_Wifi_BLE_SDK/GD32VW55x_RELEASE_V1.0.2/MSDK/wpa_supplicant/src/tls\tlsv1_cred.c **** 				 cert_blob, cert_blob_len) < 0)
 1579              		.loc 1 235 6 discriminator 8
 1580 00da D686     		mv	a3,s5
 1581 00dc 4E86     		mv	a2,s3
 233:C:/Users/stapi/OneDrive/Desktop/GD32VW553/V1_MQTT_OK/GD32VW55X_Wifi_BLE_SDK/GD32VW55x_RELEASE_V1.0.2/MSDK/wpa_supplicant/src/tls\tlsv1_cred.c **** 
 1582              		.loc 1 233 23 discriminator 8
 1583 00de F59B     		andi	a5,a5,-3
 1584 00e0 D98F     		or	a5,a5,a4
 1585 00e2 2306F900 		sb	a5,12(s2)
 235:C:/Users/stapi/OneDrive/Desktop/GD32VW553/V1_MQTT_OK/GD32VW55X_Wifi_BLE_SDK/GD32VW55x_RELEASE_V1.0.2/MSDK/wpa_supplicant/src/tls\tlsv1_cred.c **** 				 cert_blob, cert_blob_len) < 0)
 1586              		.loc 1 235 2 is_stmt 1 discriminator 8
 235:C:/Users/stapi/OneDrive/Desktop/GD32VW553/V1_MQTT_OK/GD32VW55X_Wifi_BLE_SDK/GD32VW55x_RELEASE_V1.0.2/MSDK/wpa_supplicant/src/tls\tlsv1_cred.c **** 				 cert_blob, cert_blob_len) < 0)
 1587              		.loc 1 235 6 is_stmt 0 discriminator 8
 1588 00e6 A685     		mv	a1,s1
 1589 00e8 4A85     		mv	a0,s2
 1590 00ea 97000000 		call	tlsv1_set_cert_chain
 1590      E7800000 
 1591              	.LVL188:
 237:C:/Users/stapi/OneDrive/Desktop/GD32VW553/V1_MQTT_OK/GD32VW55X_Wifi_BLE_SDK/GD32VW55x_RELEASE_V1.0.2/MSDK/wpa_supplicant/src/tls\tlsv1_cred.c **** 
 1592              		.loc 1 237 10 discriminator 8
 1593 00f2 7D54     		li	s0,-1
 235:C:/Users/stapi/OneDrive/Desktop/GD32VW553/V1_MQTT_OK/GD32VW55X_Wifi_BLE_SDK/GD32VW55x_RELEASE_V1.0.2/MSDK/wpa_supplicant/src/tls\tlsv1_cred.c **** 				 cert_blob, cert_blob_len) < 0)
 1594              		.loc 1 235 5 discriminator 8
 1595 00f4 E34305F6 		blt	a0,zero,.L122
 239:C:/Users/stapi/OneDrive/Desktop/GD32VW553/V1_MQTT_OK/GD32VW55X_Wifi_BLE_SDK/GD32VW55x_RELEASE_V1.0.2/MSDK/wpa_supplicant/src/tls\tlsv1_cred.c **** 		/* TODO: add support for reading number of certificate files */
 1596              		.loc 1 239 2 is_stmt 1
 246:C:/Users/stapi/OneDrive/Desktop/GD32VW553/V1_MQTT_OK/GD32VW55X_Wifi_BLE_SDK/GD32VW55x_RELEASE_V1.0.2/MSDK/wpa_supplicant/src/tls\tlsv1_cred.c **** }
 1597              		.loc 1 246 9 is_stmt 0
 1598 00f8 0144     		li	s0,0
 239:C:/Users/stapi/OneDrive/Desktop/GD32VW553/V1_MQTT_OK/GD32VW55X_Wifi_BLE_SDK/GD32VW55x_RELEASE_V1.0.2/MSDK/wpa_supplicant/src/tls\tlsv1_cred.c **** 		/* TODO: add support for reading number of certificate files */
 1599              		.loc 1 239 5
 1600 00fa E3000AF6 		beq	s4,zero,.L122
 241:C:/Users/stapi/OneDrive/Desktop/GD32VW553/V1_MQTT_OK/GD32VW55X_Wifi_BLE_SDK/GD32VW55x_RELEASE_V1.0.2/MSDK/wpa_supplicant/src/tls\tlsv1_cred.c **** 			   "not yet supported");
 1601              		.loc 1 241 3 is_stmt 1
 1602 00fe B7050000 		lui	a1,%hi(.LC38)
 1603 0102 93850500 		addi	a1,a1,%lo(.LC38)
 1604 0106 0D45     		li	a0,3
 1605 0108 97000000 		call	wpa_printf
 1605      E7800000 
 1606              	.LVL189:
 243:C:/Users/stapi/OneDrive/Desktop/GD32VW553/V1_MQTT_OK/GD32VW55X_Wifi_BLE_SDK/GD32VW55x_RELEASE_V1.0.2/MSDK/wpa_supplicant/src/tls\tlsv1_cred.c **** 	}
 1607              		.loc 1 243 3
 1608 0110 A1B7     		j	.L138
 1609              	.L124:
 226:C:/Users/stapi/OneDrive/Desktop/GD32VW553/V1_MQTT_OK/GD32VW55X_Wifi_BLE_SDK/GD32VW55x_RELEASE_V1.0.2/MSDK/wpa_supplicant/src/tls\tlsv1_cred.c **** 		cred->cert_probe = 1;
 1610              		.loc 1 226 2
 226:C:/Users/stapi/OneDrive/Desktop/GD32VW553/V1_MQTT_OK/GD32VW55X_Wifi_BLE_SDK/GD32VW55x_RELEASE_V1.0.2/MSDK/wpa_supplicant/src/tls\tlsv1_cred.c **** 		cred->cert_probe = 1;
 1611              		.loc 1 226 14 is_stmt 0
 1612 0112 B7050000 		lui	a1,%hi(.LC39)
 1613 0116 2146     		li	a2,8
 1614 0118 93850500 		addi	a1,a1,%lo(.LC39)
 1615 011c 2685     		mv	a0,s1
 1616 011e 97000000 		call	os_strncmp
 1616      E7800000 
 1617              	.LVL190:
 1618 0126 2A84     		mv	s0,a0
 226:C:/Users/stapi/OneDrive/Desktop/GD32VW553/V1_MQTT_OK/GD32VW55X_Wifi_BLE_SDK/GD32VW55x_RELEASE_V1.0.2/MSDK/wpa_supplicant/src/tls\tlsv1_cred.c **** 		cred->cert_probe = 1;
 1619              		.loc 1 226 11
 1620 0128 45F5     		bne	a0,zero,.L132
 227:C:/Users/stapi/OneDrive/Desktop/GD32VW553/V1_MQTT_OK/GD32VW55X_Wifi_BLE_SDK/GD32VW55x_RELEASE_V1.0.2/MSDK/wpa_supplicant/src/tls\tlsv1_cred.c **** 		cred->ca_cert_verify = 0;
 1621              		.loc 1 227 3 is_stmt 1
 228:C:/Users/stapi/OneDrive/Desktop/GD32VW553/V1_MQTT_OK/GD32VW55X_Wifi_BLE_SDK/GD32VW55x_RELEASE_V1.0.2/MSDK/wpa_supplicant/src/tls\tlsv1_cred.c **** 		wpa_printf(MSG_DEBUG, "TLSv1: Only probe server certificate");
 1622              		.loc 1 228 3
 227:C:/Users/stapi/OneDrive/Desktop/GD32VW553/V1_MQTT_OK/GD32VW55X_Wifi_BLE_SDK/GD32VW55x_RELEASE_V1.0.2/MSDK/wpa_supplicant/src/tls\tlsv1_cred.c **** 		cred->ca_cert_verify = 0;
 1623              		.loc 1 227 20 is_stmt 0
 1624 012a 8347C900 		lbu	a5,12(s2)
 229:C:/Users/stapi/OneDrive/Desktop/GD32VW553/V1_MQTT_OK/GD32VW55X_Wifi_BLE_SDK/GD32VW55x_RELEASE_V1.0.2/MSDK/wpa_supplicant/src/tls\tlsv1_cred.c **** 		return 0;
 1625              		.loc 1 229 3
 1626 012e B7050000 		lui	a1,%hi(.LC37)
 1627 0132 93850500 		addi	a1,a1,%lo(.LC37)
 227:C:/Users/stapi/OneDrive/Desktop/GD32VW553/V1_MQTT_OK/GD32VW55X_Wifi_BLE_SDK/GD32VW55x_RELEASE_V1.0.2/MSDK/wpa_supplicant/src/tls\tlsv1_cred.c **** 		cred->ca_cert_verify = 0;
 1628              		.loc 1 227 20
 1629 0136 F19B     		andi	a5,a5,-4
 1630 0138 93E71700 		ori	a5,a5,1
 1631 013c 2306F900 		sb	a5,12(s2)
 229:C:/Users/stapi/OneDrive/Desktop/GD32VW553/V1_MQTT_OK/GD32VW55X_Wifi_BLE_SDK/GD32VW55x_RELEASE_V1.0.2/MSDK/wpa_supplicant/src/tls\tlsv1_cred.c **** 		return 0;
 1632              		.loc 1 229 3 is_stmt 1
 1633 0140 BDBF     		j	.L139
 1634              		.cfi_endproc
 1635              	.LFE92:
 1637              		.section	.text.tlsv1_set_cert,"ax",@progbits
 1638              		.align	1
 1639              		.globl	tlsv1_set_cert
 1641              	tlsv1_set_cert:
 1642              	.LFB93:
 260:C:/Users/stapi/OneDrive/Desktop/GD32VW553/V1_MQTT_OK/GD32VW55X_Wifi_BLE_SDK/GD32VW55x_RELEASE_V1.0.2/MSDK/wpa_supplicant/src/tls\tlsv1_cred.c **** 	return tlsv1_set_cert_chain(&cred->cert, cert,
 1643              		.loc 1 260 1
 1644              		.cfi_startproc
 1645              	.LVL191:
 261:C:/Users/stapi/OneDrive/Desktop/GD32VW553/V1_MQTT_OK/GD32VW55X_Wifi_BLE_SDK/GD32VW55x_RELEASE_V1.0.2/MSDK/wpa_supplicant/src/tls\tlsv1_cred.c **** 				    cert_blob, cert_blob_len);
 1646              		.loc 1 261 2
 261:C:/Users/stapi/OneDrive/Desktop/GD32VW553/V1_MQTT_OK/GD32VW55X_Wifi_BLE_SDK/GD32VW55x_RELEASE_V1.0.2/MSDK/wpa_supplicant/src/tls\tlsv1_cred.c **** 				    cert_blob, cert_blob_len);
 1647              		.loc 1 261 9 is_stmt 0
 1648 0000 1105     		addi	a0,a0,4
 1649              	.LVL192:
 1650 0002 17030000 		tail	tlsv1_set_cert_chain
 1650      67000300 
 1651              	.LVL193:
 1652              		.cfi_endproc
 1653              	.LFE93:
 1655              		.section	.text.tlsv1_set_private_key,"ax",@progbits
 1656              		.align	1
 1657              		.globl	tlsv1_set_private_key
 1659              	tlsv1_set_private_key:
 1660              	.LFB97:
1041:C:/Users/stapi/OneDrive/Desktop/GD32VW553/V1_MQTT_OK/GD32VW55X_Wifi_BLE_SDK/GD32VW55x_RELEASE_V1.0.2/MSDK/wpa_supplicant/src/tls\tlsv1_cred.c **** 	crypto_private_key_free(cred->key);
 1661              		.loc 1 1041 1 is_stmt 1
 1662              		.cfi_startproc
 1663              	.LVL194:
 1664 0000 17030000 		call	t0,__riscv_save_5
 1664      E7020300 
 1665              		.cfi_offset 20, -24
 1666              		.cfi_offset 19, -20
 1667              		.cfi_offset 18, -16
 1668              		.cfi_offset 9, -12
 1669              		.cfi_offset 8, -8
 1670              		.cfi_offset 1, -4
 1671              		.cfi_def_cfa_offset 32
1042:C:/Users/stapi/OneDrive/Desktop/GD32VW553/V1_MQTT_OK/GD32VW55X_Wifi_BLE_SDK/GD32VW55x_RELEASE_V1.0.2/MSDK/wpa_supplicant/src/tls\tlsv1_cred.c **** 	cred->key = NULL;
 1672              		.loc 1 1042 2
1041:C:/Users/stapi/OneDrive/Desktop/GD32VW553/V1_MQTT_OK/GD32VW55X_Wifi_BLE_SDK/GD32VW55x_RELEASE_V1.0.2/MSDK/wpa_supplicant/src/tls\tlsv1_cred.c **** 	crypto_private_key_free(cred->key);
 1673              		.loc 1 1041 1 is_stmt 0
 1674 0008 AA84     		mv	s1,a0
1042:C:/Users/stapi/OneDrive/Desktop/GD32VW553/V1_MQTT_OK/GD32VW55X_Wifi_BLE_SDK/GD32VW55x_RELEASE_V1.0.2/MSDK/wpa_supplicant/src/tls\tlsv1_cred.c **** 	cred->key = NULL;
 1675              		.loc 1 1042 2
 1676 000a 0845     		lw	a0,8(a0)
 1677              	.LVL195:
1041:C:/Users/stapi/OneDrive/Desktop/GD32VW553/V1_MQTT_OK/GD32VW55X_Wifi_BLE_SDK/GD32VW55x_RELEASE_V1.0.2/MSDK/wpa_supplicant/src/tls\tlsv1_cred.c **** 	crypto_private_key_free(cred->key);
 1678              		.loc 1 1041 1
 1679 000c 0111     		addi	sp,sp,-32
 1680              		.cfi_def_cfa_offset 64
1041:C:/Users/stapi/OneDrive/Desktop/GD32VW553/V1_MQTT_OK/GD32VW55X_Wifi_BLE_SDK/GD32VW55x_RELEASE_V1.0.2/MSDK/wpa_supplicant/src/tls\tlsv1_cred.c **** 	crypto_private_key_free(cred->key);
 1681              		.loc 1 1041 1
 1682 000e AE89     		mv	s3,a1
 1683 0010 328A     		mv	s4,a2
 1684 0012 36C6     		sw	a3,12(sp)
 1685 0014 3AC4     		sw	a4,8(sp)
1042:C:/Users/stapi/OneDrive/Desktop/GD32VW553/V1_MQTT_OK/GD32VW55X_Wifi_BLE_SDK/GD32VW55x_RELEASE_V1.0.2/MSDK/wpa_supplicant/src/tls\tlsv1_cred.c **** 	cred->key = NULL;
 1686              		.loc 1 1042 2
 1687 0016 97000000 		call	crypto_private_key_free
 1687      E7800000 
 1688              	.LVL196:
1043:C:/Users/stapi/OneDrive/Desktop/GD32VW553/V1_MQTT_OK/GD32VW55X_Wifi_BLE_SDK/GD32VW55x_RELEASE_V1.0.2/MSDK/wpa_supplicant/src/tls\tlsv1_cred.c **** 
 1689              		.loc 1 1043 2 is_stmt 1
1045:C:/Users/stapi/OneDrive/Desktop/GD32VW553/V1_MQTT_OK/GD32VW55X_Wifi_BLE_SDK/GD32VW55x_RELEASE_V1.0.2/MSDK/wpa_supplicant/src/tls\tlsv1_cred.c **** 		return tlsv1_set_key(cred, private_key_blob,
 1690              		.loc 1 1045 5 is_stmt 0
 1691 001e B245     		lw	a1,12(sp)
1043:C:/Users/stapi/OneDrive/Desktop/GD32VW553/V1_MQTT_OK/GD32VW55X_Wifi_BLE_SDK/GD32VW55x_RELEASE_V1.0.2/MSDK/wpa_supplicant/src/tls\tlsv1_cred.c **** 
 1692              		.loc 1 1043 12
 1693 0020 23A40400 		sw	zero,8(s1)
1045:C:/Users/stapi/OneDrive/Desktop/GD32VW553/V1_MQTT_OK/GD32VW55X_Wifi_BLE_SDK/GD32VW55x_RELEASE_V1.0.2/MSDK/wpa_supplicant/src/tls\tlsv1_cred.c **** 		return tlsv1_set_key(cred, private_key_blob,
 1694              		.loc 1 1045 2 is_stmt 1
1045:C:/Users/stapi/OneDrive/Desktop/GD32VW553/V1_MQTT_OK/GD32VW55X_Wifi_BLE_SDK/GD32VW55x_RELEASE_V1.0.2/MSDK/wpa_supplicant/src/tls\tlsv1_cred.c **** 		return tlsv1_set_key(cred, private_key_blob,
 1695              		.loc 1 1045 5 is_stmt 0
 1696 0024 2246     		lw	a2,8(sp)
 1697 0026 91CD     		beq	a1,zero,.L143
1046:C:/Users/stapi/OneDrive/Desktop/GD32VW553/V1_MQTT_OK/GD32VW55X_Wifi_BLE_SDK/GD32VW55x_RELEASE_V1.0.2/MSDK/wpa_supplicant/src/tls\tlsv1_cred.c **** 				     private_key_blob_len,
 1698              		.loc 1 1046 3 is_stmt 1
1046:C:/Users/stapi/OneDrive/Desktop/GD32VW553/V1_MQTT_OK/GD32VW55X_Wifi_BLE_SDK/GD32VW55x_RELEASE_V1.0.2/MSDK/wpa_supplicant/src/tls\tlsv1_cred.c **** 				     private_key_blob_len,
 1699              		.loc 1 1046 10 is_stmt 0
 1700 0028 D286     		mv	a3,s4
 1701 002a 2685     		mv	a0,s1
 1702 002c 97000000 		call	tlsv1_set_key
 1702      E7800000 
 1703              	.LVL197:
 1704 0034 2A84     		mv	s0,a0
 1705              	.L142:
1068:C:/Users/stapi/OneDrive/Desktop/GD32VW553/V1_MQTT_OK/GD32VW55X_Wifi_BLE_SDK/GD32VW55x_RELEASE_V1.0.2/MSDK/wpa_supplicant/src/tls\tlsv1_cred.c **** 
 1706              		.loc 1 1068 1
 1707 0036 2285     		mv	a0,s0
 1708 0038 0561     		addi	sp,sp,32
 1709              		.cfi_remember_state
 1710              		.cfi_def_cfa_offset 0
 1711              	.LVL198:
 1712 003a 17030000 		tail	__riscv_restore_5
 1712      67000300 
 1713              		.cfi_restore 20
 1714              		.cfi_restore 19
 1715              		.cfi_restore 18
 1716              		.cfi_restore 9
 1717              		.cfi_restore 8
 1718              		.cfi_restore 1
 1719              		.cfi_def_cfa_offset -32
 1720              	.LVL199:
 1721              	.L143:
 1722              		.cfi_restore_state
1050:C:/Users/stapi/OneDrive/Desktop/GD32VW553/V1_MQTT_OK/GD32VW55X_Wifi_BLE_SDK/GD32VW55x_RELEASE_V1.0.2/MSDK/wpa_supplicant/src/tls\tlsv1_cred.c **** 		u8 *buf;
 1723              		.loc 1 1050 2 is_stmt 1
1067:C:/Users/stapi/OneDrive/Desktop/GD32VW553/V1_MQTT_OK/GD32VW55X_Wifi_BLE_SDK/GD32VW55x_RELEASE_V1.0.2/MSDK/wpa_supplicant/src/tls\tlsv1_cred.c **** }
 1724              		.loc 1 1067 9 is_stmt 0
 1725 0042 0144     		li	s0,0
1050:C:/Users/stapi/OneDrive/Desktop/GD32VW553/V1_MQTT_OK/GD32VW55X_Wifi_BLE_SDK/GD32VW55x_RELEASE_V1.0.2/MSDK/wpa_supplicant/src/tls\tlsv1_cred.c **** 		u8 *buf;
 1726              		.loc 1 1050 5
 1727 0044 E38909FE 		beq	s3,zero,.L142
 1728              	.LBB39:
1051:C:/Users/stapi/OneDrive/Desktop/GD32VW553/V1_MQTT_OK/GD32VW55X_Wifi_BLE_SDK/GD32VW55x_RELEASE_V1.0.2/MSDK/wpa_supplicant/src/tls\tlsv1_cred.c **** 		size_t len;
 1729              		.loc 1 1051 3 is_stmt 1
1052:C:/Users/stapi/OneDrive/Desktop/GD32VW553/V1_MQTT_OK/GD32VW55X_Wifi_BLE_SDK/GD32VW55x_RELEASE_V1.0.2/MSDK/wpa_supplicant/src/tls\tlsv1_cred.c **** 		int ret;
 1730              		.loc 1 1052 3
1053:C:/Users/stapi/OneDrive/Desktop/GD32VW553/V1_MQTT_OK/GD32VW55X_Wifi_BLE_SDK/GD32VW55x_RELEASE_V1.0.2/MSDK/wpa_supplicant/src/tls\tlsv1_cred.c **** 
 1731              		.loc 1 1053 3
1055:C:/Users/stapi/OneDrive/Desktop/GD32VW553/V1_MQTT_OK/GD32VW55X_Wifi_BLE_SDK/GD32VW55x_RELEASE_V1.0.2/MSDK/wpa_supplicant/src/tls\tlsv1_cred.c **** 		if (buf == NULL) {
 1732              		.loc 1 1055 3
1055:C:/Users/stapi/OneDrive/Desktop/GD32VW553/V1_MQTT_OK/GD32VW55X_Wifi_BLE_SDK/GD32VW55x_RELEASE_V1.0.2/MSDK/wpa_supplicant/src/tls\tlsv1_cred.c **** 		if (buf == NULL) {
 1733              		.loc 1 1055 16 is_stmt 0
 1734 0048 6C08     		addi	a1,sp,28
 1735 004a 4E85     		mv	a0,s3
 1736 004c 97000000 		call	os_readfile
 1736      E7800000 
 1737              	.LVL200:
 1738 0054 2A89     		mv	s2,a0
 1739              	.LVL201:
1056:C:/Users/stapi/OneDrive/Desktop/GD32VW553/V1_MQTT_OK/GD32VW55X_Wifi_BLE_SDK/GD32VW55x_RELEASE_V1.0.2/MSDK/wpa_supplicant/src/tls\tlsv1_cred.c **** 			wpa_printf(MSG_INFO, "TLSv1: Failed to read '%s'",
 1740              		.loc 1 1056 3 is_stmt 1
1056:C:/Users/stapi/OneDrive/Desktop/GD32VW553/V1_MQTT_OK/GD32VW55X_Wifi_BLE_SDK/GD32VW55x_RELEASE_V1.0.2/MSDK/wpa_supplicant/src/tls\tlsv1_cred.c **** 			wpa_printf(MSG_INFO, "TLSv1: Failed to read '%s'",
 1741              		.loc 1 1056 6 is_stmt 0
 1742 0056 09ED     		bne	a0,zero,.L145
1057:C:/Users/stapi/OneDrive/Desktop/GD32VW553/V1_MQTT_OK/GD32VW55X_Wifi_BLE_SDK/GD32VW55x_RELEASE_V1.0.2/MSDK/wpa_supplicant/src/tls\tlsv1_cred.c **** 				   private_key);
 1743              		.loc 1 1057 4 is_stmt 1
 1744 0058 B7050000 		lui	a1,%hi(.LC18)
 1745 005c 4E86     		mv	a2,s3
 1746 005e 93850500 		addi	a1,a1,%lo(.LC18)
 1747 0062 0D45     		li	a0,3
 1748              	.LVL202:
 1749 0064 97000000 		call	wpa_printf
 1749      E7800000 
 1750              	.LVL203:
1059:C:/Users/stapi/OneDrive/Desktop/GD32VW553/V1_MQTT_OK/GD32VW55X_Wifi_BLE_SDK/GD32VW55x_RELEASE_V1.0.2/MSDK/wpa_supplicant/src/tls\tlsv1_cred.c **** 		}
 1751              		.loc 1 1059 4
1059:C:/Users/stapi/OneDrive/Desktop/GD32VW553/V1_MQTT_OK/GD32VW55X_Wifi_BLE_SDK/GD32VW55x_RELEASE_V1.0.2/MSDK/wpa_supplicant/src/tls\tlsv1_cred.c **** 		}
 1752              		.loc 1 1059 11 is_stmt 0
 1753 006c 7D54     		li	s0,-1
 1754 006e E1B7     		j	.L142
 1755              	.LVL204:
 1756              	.L145:
1062:C:/Users/stapi/OneDrive/Desktop/GD32VW553/V1_MQTT_OK/GD32VW55X_Wifi_BLE_SDK/GD32VW55x_RELEASE_V1.0.2/MSDK/wpa_supplicant/src/tls\tlsv1_cred.c **** 		os_free(buf);
 1757              		.loc 1 1062 3 is_stmt 1
1062:C:/Users/stapi/OneDrive/Desktop/GD32VW553/V1_MQTT_OK/GD32VW55X_Wifi_BLE_SDK/GD32VW55x_RELEASE_V1.0.2/MSDK/wpa_supplicant/src/tls\tlsv1_cred.c **** 		os_free(buf);
 1758              		.loc 1 1062 9 is_stmt 0
 1759 0070 7246     		lw	a2,28(sp)
 1760 0072 AA85     		mv	a1,a0
 1761 0074 D286     		mv	a3,s4
 1762 0076 2685     		mv	a0,s1
 1763              	.LVL205:
 1764 0078 97000000 		call	tlsv1_set_key
 1764      E7800000 
 1765              	.LVL206:
 1766 0080 2A84     		mv	s0,a0
 1767              	.LVL207:
1063:C:/Users/stapi/OneDrive/Desktop/GD32VW553/V1_MQTT_OK/GD32VW55X_Wifi_BLE_SDK/GD32VW55x_RELEASE_V1.0.2/MSDK/wpa_supplicant/src/tls\tlsv1_cred.c **** 		return ret;
 1768              		.loc 1 1063 3 is_stmt 1
 1769 0082 4A85     		mv	a0,s2
 1770 0084 97000000 		call	os_free
 1770      E7800000 
 1771              	.LVL208:
1064:C:/Users/stapi/OneDrive/Desktop/GD32VW553/V1_MQTT_OK/GD32VW55X_Wifi_BLE_SDK/GD32VW55x_RELEASE_V1.0.2/MSDK/wpa_supplicant/src/tls\tlsv1_cred.c **** 	}
 1772              		.loc 1 1064 3
1064:C:/Users/stapi/OneDrive/Desktop/GD32VW553/V1_MQTT_OK/GD32VW55X_Wifi_BLE_SDK/GD32VW55x_RELEASE_V1.0.2/MSDK/wpa_supplicant/src/tls\tlsv1_cred.c **** 	}
 1773              		.loc 1 1064 10 is_stmt 0
 1774 008c 6DB7     		j	.L142
 1775              	.LBE39:
 1776              		.cfi_endproc
 1777              	.LFE97:
 1779              		.section	.text.tlsv1_set_dhparams,"ax",@progbits
 1780              		.align	1
 1781              		.globl	tlsv1_set_dhparams
 1783              	tlsv1_set_dhparams:
 1784              	.LFB100:
1178:C:/Users/stapi/OneDrive/Desktop/GD32VW553/V1_MQTT_OK/GD32VW55X_Wifi_BLE_SDK/GD32VW55x_RELEASE_V1.0.2/MSDK/wpa_supplicant/src/tls\tlsv1_cred.c **** 
1179:C:/Users/stapi/OneDrive/Desktop/GD32VW553/V1_MQTT_OK/GD32VW55X_Wifi_BLE_SDK/GD32VW55x_RELEASE_V1.0.2/MSDK/wpa_supplicant/src/tls\tlsv1_cred.c **** 
1180:C:/Users/stapi/OneDrive/Desktop/GD32VW553/V1_MQTT_OK/GD32VW55X_Wifi_BLE_SDK/GD32VW55x_RELEASE_V1.0.2/MSDK/wpa_supplicant/src/tls\tlsv1_cred.c **** /**
1181:C:/Users/stapi/OneDrive/Desktop/GD32VW553/V1_MQTT_OK/GD32VW55X_Wifi_BLE_SDK/GD32VW55x_RELEASE_V1.0.2/MSDK/wpa_supplicant/src/tls\tlsv1_cred.c ****  * tlsv1_set_dhparams - Set Diffie-Hellman parameters
1182:C:/Users/stapi/OneDrive/Desktop/GD32VW553/V1_MQTT_OK/GD32VW55X_Wifi_BLE_SDK/GD32VW55x_RELEASE_V1.0.2/MSDK/wpa_supplicant/src/tls\tlsv1_cred.c ****  * @cred: TLSv1 credentials from tlsv1_cred_alloc()
1183:C:/Users/stapi/OneDrive/Desktop/GD32VW553/V1_MQTT_OK/GD32VW55X_Wifi_BLE_SDK/GD32VW55x_RELEASE_V1.0.2/MSDK/wpa_supplicant/src/tls\tlsv1_cred.c ****  * @dh_file: File or reference name for the DH params in PEM or DER format
1184:C:/Users/stapi/OneDrive/Desktop/GD32VW553/V1_MQTT_OK/GD32VW55X_Wifi_BLE_SDK/GD32VW55x_RELEASE_V1.0.2/MSDK/wpa_supplicant/src/tls\tlsv1_cred.c ****  * @dh_blob: DH params as inlined data or %NULL if not used
1185:C:/Users/stapi/OneDrive/Desktop/GD32VW553/V1_MQTT_OK/GD32VW55X_Wifi_BLE_SDK/GD32VW55x_RELEASE_V1.0.2/MSDK/wpa_supplicant/src/tls\tlsv1_cred.c ****  * @dh_blob_len: dh_blob length
1186:C:/Users/stapi/OneDrive/Desktop/GD32VW553/V1_MQTT_OK/GD32VW55X_Wifi_BLE_SDK/GD32VW55x_RELEASE_V1.0.2/MSDK/wpa_supplicant/src/tls\tlsv1_cred.c ****  * Returns: 0 on success, -1 on failure
1187:C:/Users/stapi/OneDrive/Desktop/GD32VW553/V1_MQTT_OK/GD32VW55X_Wifi_BLE_SDK/GD32VW55x_RELEASE_V1.0.2/MSDK/wpa_supplicant/src/tls\tlsv1_cred.c ****  */
1188:C:/Users/stapi/OneDrive/Desktop/GD32VW553/V1_MQTT_OK/GD32VW55X_Wifi_BLE_SDK/GD32VW55x_RELEASE_V1.0.2/MSDK/wpa_supplicant/src/tls\tlsv1_cred.c **** int tlsv1_set_dhparams(struct tlsv1_credentials *cred, const char *dh_file,
1189:C:/Users/stapi/OneDrive/Desktop/GD32VW553/V1_MQTT_OK/GD32VW55X_Wifi_BLE_SDK/GD32VW55x_RELEASE_V1.0.2/MSDK/wpa_supplicant/src/tls\tlsv1_cred.c **** 		       const u8 *dh_blob, size_t dh_blob_len)
1190:C:/Users/stapi/OneDrive/Desktop/GD32VW553/V1_MQTT_OK/GD32VW55X_Wifi_BLE_SDK/GD32VW55x_RELEASE_V1.0.2/MSDK/wpa_supplicant/src/tls\tlsv1_cred.c **** {
 1785              		.loc 1 1190 1 is_stmt 1
 1786              		.cfi_startproc
 1787              	.LVL209:
 1788 0000 17030000 		call	t0,__riscv_save_4
 1788      E7020300 
 1789              		.cfi_offset 19, -20
 1790              		.cfi_offset 18, -16
 1791              		.cfi_offset 9, -12
 1792              		.cfi_offset 8, -8
 1793              		.cfi_offset 1, -4
 1794              		.cfi_def_cfa_offset 32
1191:C:/Users/stapi/OneDrive/Desktop/GD32VW553/V1_MQTT_OK/GD32VW55X_Wifi_BLE_SDK/GD32VW55x_RELEASE_V1.0.2/MSDK/wpa_supplicant/src/tls\tlsv1_cred.c **** 	if (dh_blob)
 1795              		.loc 1 1191 2
1190:C:/Users/stapi/OneDrive/Desktop/GD32VW553/V1_MQTT_OK/GD32VW55X_Wifi_BLE_SDK/GD32VW55x_RELEASE_V1.0.2/MSDK/wpa_supplicant/src/tls\tlsv1_cred.c **** 	if (dh_blob)
 1796              		.loc 1 1190 1 is_stmt 0
 1797 0008 2E89     		mv	s2,a1
 1798 000a 4111     		addi	sp,sp,-16
 1799              		.cfi_def_cfa_offset 48
1190:C:/Users/stapi/OneDrive/Desktop/GD32VW553/V1_MQTT_OK/GD32VW55X_Wifi_BLE_SDK/GD32VW55x_RELEASE_V1.0.2/MSDK/wpa_supplicant/src/tls\tlsv1_cred.c **** 	if (dh_blob)
 1800              		.loc 1 1190 1
 1801 000c B285     		mv	a1,a2
 1802              	.LVL210:
 1803              		.loc 1 1191 5
 1804 000e 09CE     		beq	a2,zero,.L151
 1805 0010 3686     		mv	a2,a3
 1806              	.LVL211:
1192:C:/Users/stapi/OneDrive/Desktop/GD32VW553/V1_MQTT_OK/GD32VW55X_Wifi_BLE_SDK/GD32VW55x_RELEASE_V1.0.2/MSDK/wpa_supplicant/src/tls\tlsv1_cred.c **** 		return tlsv1_set_dhparams_blob(cred, dh_blob, dh_blob_len);
 1807              		.loc 1 1192 3 is_stmt 1
 1808              		.loc 1 1192 10 is_stmt 0
 1809 0012 97000000 		call	tlsv1_set_dhparams_blob
 1809      E7800000 
 1810              	.LVL212:
 1811 001a 2A84     		mv	s0,a0
 1812              	.L150:
1193:C:/Users/stapi/OneDrive/Desktop/GD32VW553/V1_MQTT_OK/GD32VW55X_Wifi_BLE_SDK/GD32VW55x_RELEASE_V1.0.2/MSDK/wpa_supplicant/src/tls\tlsv1_cred.c **** 
1194:C:/Users/stapi/OneDrive/Desktop/GD32VW553/V1_MQTT_OK/GD32VW55X_Wifi_BLE_SDK/GD32VW55x_RELEASE_V1.0.2/MSDK/wpa_supplicant/src/tls\tlsv1_cred.c **** 	if (dh_file) {
1195:C:/Users/stapi/OneDrive/Desktop/GD32VW553/V1_MQTT_OK/GD32VW55X_Wifi_BLE_SDK/GD32VW55x_RELEASE_V1.0.2/MSDK/wpa_supplicant/src/tls\tlsv1_cred.c **** 		u8 *buf;
1196:C:/Users/stapi/OneDrive/Desktop/GD32VW553/V1_MQTT_OK/GD32VW55X_Wifi_BLE_SDK/GD32VW55x_RELEASE_V1.0.2/MSDK/wpa_supplicant/src/tls\tlsv1_cred.c **** 		size_t len;
1197:C:/Users/stapi/OneDrive/Desktop/GD32VW553/V1_MQTT_OK/GD32VW55X_Wifi_BLE_SDK/GD32VW55x_RELEASE_V1.0.2/MSDK/wpa_supplicant/src/tls\tlsv1_cred.c **** 		int ret;
1198:C:/Users/stapi/OneDrive/Desktop/GD32VW553/V1_MQTT_OK/GD32VW55X_Wifi_BLE_SDK/GD32VW55x_RELEASE_V1.0.2/MSDK/wpa_supplicant/src/tls\tlsv1_cred.c **** 
1199:C:/Users/stapi/OneDrive/Desktop/GD32VW553/V1_MQTT_OK/GD32VW55X_Wifi_BLE_SDK/GD32VW55x_RELEASE_V1.0.2/MSDK/wpa_supplicant/src/tls\tlsv1_cred.c **** 		buf = (u8 *) os_readfile(dh_file, &len);
1200:C:/Users/stapi/OneDrive/Desktop/GD32VW553/V1_MQTT_OK/GD32VW55X_Wifi_BLE_SDK/GD32VW55x_RELEASE_V1.0.2/MSDK/wpa_supplicant/src/tls\tlsv1_cred.c **** 		if (buf == NULL) {
1201:C:/Users/stapi/OneDrive/Desktop/GD32VW553/V1_MQTT_OK/GD32VW55X_Wifi_BLE_SDK/GD32VW55x_RELEASE_V1.0.2/MSDK/wpa_supplicant/src/tls\tlsv1_cred.c **** 			wpa_printf(MSG_INFO, "TLSv1: Failed to read '%s'",
1202:C:/Users/stapi/OneDrive/Desktop/GD32VW553/V1_MQTT_OK/GD32VW55X_Wifi_BLE_SDK/GD32VW55x_RELEASE_V1.0.2/MSDK/wpa_supplicant/src/tls\tlsv1_cred.c **** 				   dh_file);
1203:C:/Users/stapi/OneDrive/Desktop/GD32VW553/V1_MQTT_OK/GD32VW55X_Wifi_BLE_SDK/GD32VW55x_RELEASE_V1.0.2/MSDK/wpa_supplicant/src/tls\tlsv1_cred.c **** 			return -1;
1204:C:/Users/stapi/OneDrive/Desktop/GD32VW553/V1_MQTT_OK/GD32VW55X_Wifi_BLE_SDK/GD32VW55x_RELEASE_V1.0.2/MSDK/wpa_supplicant/src/tls\tlsv1_cred.c **** 		}
1205:C:/Users/stapi/OneDrive/Desktop/GD32VW553/V1_MQTT_OK/GD32VW55X_Wifi_BLE_SDK/GD32VW55x_RELEASE_V1.0.2/MSDK/wpa_supplicant/src/tls\tlsv1_cred.c **** 
1206:C:/Users/stapi/OneDrive/Desktop/GD32VW553/V1_MQTT_OK/GD32VW55X_Wifi_BLE_SDK/GD32VW55x_RELEASE_V1.0.2/MSDK/wpa_supplicant/src/tls\tlsv1_cred.c **** 		ret = tlsv1_set_dhparams_blob(cred, buf, len);
1207:C:/Users/stapi/OneDrive/Desktop/GD32VW553/V1_MQTT_OK/GD32VW55X_Wifi_BLE_SDK/GD32VW55x_RELEASE_V1.0.2/MSDK/wpa_supplicant/src/tls\tlsv1_cred.c **** 		os_free(buf);
1208:C:/Users/stapi/OneDrive/Desktop/GD32VW553/V1_MQTT_OK/GD32VW55X_Wifi_BLE_SDK/GD32VW55x_RELEASE_V1.0.2/MSDK/wpa_supplicant/src/tls\tlsv1_cred.c **** 		return ret;
1209:C:/Users/stapi/OneDrive/Desktop/GD32VW553/V1_MQTT_OK/GD32VW55X_Wifi_BLE_SDK/GD32VW55x_RELEASE_V1.0.2/MSDK/wpa_supplicant/src/tls\tlsv1_cred.c **** 	}
1210:C:/Users/stapi/OneDrive/Desktop/GD32VW553/V1_MQTT_OK/GD32VW55X_Wifi_BLE_SDK/GD32VW55x_RELEASE_V1.0.2/MSDK/wpa_supplicant/src/tls\tlsv1_cred.c **** 
1211:C:/Users/stapi/OneDrive/Desktop/GD32VW553/V1_MQTT_OK/GD32VW55X_Wifi_BLE_SDK/GD32VW55x_RELEASE_V1.0.2/MSDK/wpa_supplicant/src/tls\tlsv1_cred.c **** 	return 0;
1212:C:/Users/stapi/OneDrive/Desktop/GD32VW553/V1_MQTT_OK/GD32VW55X_Wifi_BLE_SDK/GD32VW55x_RELEASE_V1.0.2/MSDK/wpa_supplicant/src/tls\tlsv1_cred.c **** }
 1813              		.loc 1 1212 1
 1814 001c 2285     		mv	a0,s0
 1815 001e 4101     		addi	sp,sp,16
 1816              		.cfi_remember_state
 1817              		.cfi_def_cfa_offset 0
 1818 0020 17030000 		tail	__riscv_restore_4
 1818      67000300 
 1819              		.cfi_restore 19
 1820              		.cfi_restore 18
 1821              		.cfi_restore 9
 1822              		.cfi_restore 8
 1823              		.cfi_restore 1
 1824              		.cfi_def_cfa_offset -32
 1825              	.LVL213:
 1826              	.L151:
 1827              		.cfi_restore_state
1194:C:/Users/stapi/OneDrive/Desktop/GD32VW553/V1_MQTT_OK/GD32VW55X_Wifi_BLE_SDK/GD32VW55x_RELEASE_V1.0.2/MSDK/wpa_supplicant/src/tls\tlsv1_cred.c **** 		u8 *buf;
 1828              		.loc 1 1194 2 is_stmt 1
1211:C:/Users/stapi/OneDrive/Desktop/GD32VW553/V1_MQTT_OK/GD32VW55X_Wifi_BLE_SDK/GD32VW55x_RELEASE_V1.0.2/MSDK/wpa_supplicant/src/tls\tlsv1_cred.c **** }
 1829              		.loc 1 1211 9 is_stmt 0
 1830 0028 0144     		li	s0,0
1194:C:/Users/stapi/OneDrive/Desktop/GD32VW553/V1_MQTT_OK/GD32VW55X_Wifi_BLE_SDK/GD32VW55x_RELEASE_V1.0.2/MSDK/wpa_supplicant/src/tls\tlsv1_cred.c **** 		u8 *buf;
 1831              		.loc 1 1194 5
 1832 002a E30909FE 		beq	s2,zero,.L150
 1833 002e AA89     		mv	s3,a0
 1834              	.LBB40:
1195:C:/Users/stapi/OneDrive/Desktop/GD32VW553/V1_MQTT_OK/GD32VW55X_Wifi_BLE_SDK/GD32VW55x_RELEASE_V1.0.2/MSDK/wpa_supplicant/src/tls\tlsv1_cred.c **** 		size_t len;
 1835              		.loc 1 1195 3 is_stmt 1
1196:C:/Users/stapi/OneDrive/Desktop/GD32VW553/V1_MQTT_OK/GD32VW55X_Wifi_BLE_SDK/GD32VW55x_RELEASE_V1.0.2/MSDK/wpa_supplicant/src/tls\tlsv1_cred.c **** 		int ret;
 1836              		.loc 1 1196 3
1197:C:/Users/stapi/OneDrive/Desktop/GD32VW553/V1_MQTT_OK/GD32VW55X_Wifi_BLE_SDK/GD32VW55x_RELEASE_V1.0.2/MSDK/wpa_supplicant/src/tls\tlsv1_cred.c **** 
 1837              		.loc 1 1197 3
1199:C:/Users/stapi/OneDrive/Desktop/GD32VW553/V1_MQTT_OK/GD32VW55X_Wifi_BLE_SDK/GD32VW55x_RELEASE_V1.0.2/MSDK/wpa_supplicant/src/tls\tlsv1_cred.c **** 		if (buf == NULL) {
 1838              		.loc 1 1199 3
1199:C:/Users/stapi/OneDrive/Desktop/GD32VW553/V1_MQTT_OK/GD32VW55X_Wifi_BLE_SDK/GD32VW55x_RELEASE_V1.0.2/MSDK/wpa_supplicant/src/tls\tlsv1_cred.c **** 		if (buf == NULL) {
 1839              		.loc 1 1199 16 is_stmt 0
 1840 0030 6C00     		addi	a1,sp,12
 1841              	.LVL214:
 1842 0032 4A85     		mv	a0,s2
 1843              	.LVL215:
 1844 0034 97000000 		call	os_readfile
 1844      E7800000 
 1845              	.LVL216:
 1846 003c AA84     		mv	s1,a0
 1847              	.LVL217:
1200:C:/Users/stapi/OneDrive/Desktop/GD32VW553/V1_MQTT_OK/GD32VW55X_Wifi_BLE_SDK/GD32VW55x_RELEASE_V1.0.2/MSDK/wpa_supplicant/src/tls\tlsv1_cred.c **** 			wpa_printf(MSG_INFO, "TLSv1: Failed to read '%s'",
 1848              		.loc 1 1200 3 is_stmt 1
1200:C:/Users/stapi/OneDrive/Desktop/GD32VW553/V1_MQTT_OK/GD32VW55X_Wifi_BLE_SDK/GD32VW55x_RELEASE_V1.0.2/MSDK/wpa_supplicant/src/tls\tlsv1_cred.c **** 			wpa_printf(MSG_INFO, "TLSv1: Failed to read '%s'",
 1849              		.loc 1 1200 6 is_stmt 0
 1850 003e 09ED     		bne	a0,zero,.L153
1201:C:/Users/stapi/OneDrive/Desktop/GD32VW553/V1_MQTT_OK/GD32VW55X_Wifi_BLE_SDK/GD32VW55x_RELEASE_V1.0.2/MSDK/wpa_supplicant/src/tls\tlsv1_cred.c **** 				   dh_file);
 1851              		.loc 1 1201 4 is_stmt 1
 1852 0040 B7050000 		lui	a1,%hi(.LC18)
 1853 0044 4A86     		mv	a2,s2
 1854 0046 93850500 		addi	a1,a1,%lo(.LC18)
 1855 004a 0D45     		li	a0,3
 1856 004c 97000000 		call	wpa_printf
 1856      E7800000 
 1857              	.LVL218:
1203:C:/Users/stapi/OneDrive/Desktop/GD32VW553/V1_MQTT_OK/GD32VW55X_Wifi_BLE_SDK/GD32VW55x_RELEASE_V1.0.2/MSDK/wpa_supplicant/src/tls\tlsv1_cred.c **** 		}
 1858              		.loc 1 1203 4
1203:C:/Users/stapi/OneDrive/Desktop/GD32VW553/V1_MQTT_OK/GD32VW55X_Wifi_BLE_SDK/GD32VW55x_RELEASE_V1.0.2/MSDK/wpa_supplicant/src/tls\tlsv1_cred.c **** 		}
 1859              		.loc 1 1203 11 is_stmt 0
 1860 0054 7D54     		li	s0,-1
 1861 0056 D9B7     		j	.L150
 1862              	.L153:
1206:C:/Users/stapi/OneDrive/Desktop/GD32VW553/V1_MQTT_OK/GD32VW55X_Wifi_BLE_SDK/GD32VW55x_RELEASE_V1.0.2/MSDK/wpa_supplicant/src/tls\tlsv1_cred.c **** 		os_free(buf);
 1863              		.loc 1 1206 3 is_stmt 1
1206:C:/Users/stapi/OneDrive/Desktop/GD32VW553/V1_MQTT_OK/GD32VW55X_Wifi_BLE_SDK/GD32VW55x_RELEASE_V1.0.2/MSDK/wpa_supplicant/src/tls\tlsv1_cred.c **** 		os_free(buf);
 1864              		.loc 1 1206 9 is_stmt 0
 1865 0058 3246     		lw	a2,12(sp)
 1866 005a AA85     		mv	a1,a0
 1867 005c 4E85     		mv	a0,s3
 1868 005e 97000000 		call	tlsv1_set_dhparams_blob
 1868      E7800000 
 1869              	.LVL219:
 1870 0066 2A84     		mv	s0,a0
 1871              	.LVL220:
1207:C:/Users/stapi/OneDrive/Desktop/GD32VW553/V1_MQTT_OK/GD32VW55X_Wifi_BLE_SDK/GD32VW55x_RELEASE_V1.0.2/MSDK/wpa_supplicant/src/tls\tlsv1_cred.c **** 		return ret;
 1872              		.loc 1 1207 3 is_stmt 1
 1873 0068 2685     		mv	a0,s1
 1874 006a 97000000 		call	os_free
 1874      E7800000 
 1875              	.LVL221:
1208:C:/Users/stapi/OneDrive/Desktop/GD32VW553/V1_MQTT_OK/GD32VW55X_Wifi_BLE_SDK/GD32VW55x_RELEASE_V1.0.2/MSDK/wpa_supplicant/src/tls\tlsv1_cred.c **** 	}
 1876              		.loc 1 1208 3
1208:C:/Users/stapi/OneDrive/Desktop/GD32VW553/V1_MQTT_OK/GD32VW55X_Wifi_BLE_SDK/GD32VW55x_RELEASE_V1.0.2/MSDK/wpa_supplicant/src/tls\tlsv1_cred.c **** 	}
 1877              		.loc 1 1208 10 is_stmt 0
 1878 0072 6DB7     		j	.L150
 1879              	.LBE40:
 1880              		.cfi_endproc
 1881              	.LFE100:
 1883              		.section	.rodata.__func__.0,"a"
 1884              		.align	2
 1885              		.set	.LANCHOR0,. + 0
 1888              	__func__.0:
 1889 0000 746C7376 		.string	"tlsv1_add_cert_der"
 1889      315F6164 
 1889      645F6365 
 1889      72745F64 
 1889      657200
 1890              		.text
 1891              	.Letext0:
 1892              		.file 3 "c:\\users\\stapi\\onedrive\\desktop\\gd32vw553\\embeddedbuilder_v1.4.7.26843\\tools\\nucl
 1893              		.file 4 "c:\\users\\stapi\\onedrive\\desktop\\gd32vw553\\embeddedbuilder_v1.4.7.26843\\tools\\nucl
 1894              		.file 5 "c:\\users\\stapi\\onedrive\\desktop\\gd32vw553\\embeddedbuilder_v1.4.7.26843\\tools\\nucl
 1895              		.file 6 "..\\..\\..\\..\\wpa_supplicant\\src\\utils/os.h"
 1896              		.file 7 "..\\..\\..\\..\\lwip\\lwip-2.1.2\\src\\include/lwip/memp.h"
 1897              		.file 8 "..\\..\\..\\..\\wpa_supplicant\\src\\utils/wpa_debug.h"
 1898              		.file 9 "C:/Users/stapi/OneDrive/Desktop/GD32VW553/V1_MQTT_OK/GD32VW55X_Wifi_BLE_SDK/GD32VW55x_REL
 1899              		.file 10 "..\\..\\..\\..\\lwip\\lwip-2.1.2\\src\\include/lwip/netif.h"
 1900              		.file 11 "C:/Users/stapi/OneDrive/Desktop/GD32VW553/V1_MQTT_OK/GD32VW55X_Wifi_BLE_SDK/GD32VW55x_RE
 1901              		.file 12 "..\\..\\..\\..\\wpa_supplicant\\src\\utils/base64.h"
 1902              		.file 13 "..\\..\\..\\..\\wpa_supplicant\\src/crypto/crypto.h"
 1903              		.file 14 "..\\..\\..\\..\\wpa_supplicant\\src\\utils/common.h"
DEFINED SYMBOLS
                            *ABS*:0000000000000000 tlsv1_cred.c
C:\Users\stapi\AppData\Local\Temp\cc4gZHfW.s:19     .text.tlsv1_add_cert_der:0000000000000000 tlsv1_add_cert_der
C:\Users\stapi\AppData\Local\Temp\cc4gZHfW.s:23     .text.tlsv1_add_cert_der:0000000000000000 .L0 
C:\Users\stapi\AppData\Local\Temp\cc4gZHfW.s:25     .text.tlsv1_add_cert_der:0000000000000000 .L0 
C:\Users\stapi\AppData\Local\Temp\cc4gZHfW.s:26     .text.tlsv1_add_cert_der:0000000000000008 .L0 
C:\Users\stapi\AppData\Local\Temp\cc4gZHfW.s:27     .text.tlsv1_add_cert_der:0000000000000008 .L0 
C:\Users\stapi\AppData\Local\Temp\cc4gZHfW.s:28     .text.tlsv1_add_cert_der:0000000000000008 .L0 
C:\Users\stapi\AppData\Local\Temp\cc4gZHfW.s:29     .text.tlsv1_add_cert_der:0000000000000008 .L0 
C:\Users\stapi\AppData\Local\Temp\cc4gZHfW.s:30     .text.tlsv1_add_cert_der:0000000000000008 .L0 
C:\Users\stapi\AppData\Local\Temp\cc4gZHfW.s:32     .text.tlsv1_add_cert_der:0000000000000008 .L0 
C:\Users\stapi\AppData\Local\Temp\cc4gZHfW.s:33     .text.tlsv1_add_cert_der:0000000000000008 .L0 
C:\Users\stapi\AppData\Local\Temp\cc4gZHfW.s:34     .text.tlsv1_add_cert_der:0000000000000008 .L0 
C:\Users\stapi\AppData\Local\Temp\cc4gZHfW.s:35     .text.tlsv1_add_cert_der:0000000000000008 .L0 
C:\Users\stapi\AppData\Local\Temp\cc4gZHfW.s:36     .text.tlsv1_add_cert_der:000000000000000a .L0 
C:\Users\stapi\AppData\Local\Temp\cc4gZHfW.s:38     .text.tlsv1_add_cert_der:000000000000000a .L0 
C:\Users\stapi\AppData\Local\Temp\cc4gZHfW.s:42     .text.tlsv1_add_cert_der:000000000000000e .L0 
C:\Users\stapi\AppData\Local\Temp\cc4gZHfW.s:47     .text.tlsv1_add_cert_der:0000000000000018 .L0 
C:\Users\stapi\AppData\Local\Temp\cc4gZHfW.s:48     .text.tlsv1_add_cert_der:0000000000000018 .L0 
C:\Users\stapi\AppData\Local\Temp\cc4gZHfW.s:50     .text.tlsv1_add_cert_der:000000000000001a .L0 
C:\Users\stapi\AppData\Local\Temp\cc4gZHfW.s:59     .text.tlsv1_add_cert_der:0000000000000034 .L0 
C:\Users\stapi\AppData\Local\Temp\cc4gZHfW.s:60     .text.tlsv1_add_cert_der:0000000000000034 .L0 
C:\Users\stapi\AppData\Local\Temp\cc4gZHfW.s:63     .text.tlsv1_add_cert_der:0000000000000036 .L0 
C:\Users\stapi\AppData\Local\Temp\cc4gZHfW.s:64     .text.tlsv1_add_cert_der:0000000000000038 .L0 
C:\Users\stapi\AppData\Local\Temp\cc4gZHfW.s:65     .text.tlsv1_add_cert_der:0000000000000038 .L0 
C:\Users\stapi\AppData\Local\Temp\cc4gZHfW.s:67     .text.tlsv1_add_cert_der:0000000000000040 .L0 
C:\Users\stapi\AppData\Local\Temp\cc4gZHfW.s:68     .text.tlsv1_add_cert_der:0000000000000040 .L0 
C:\Users\stapi\AppData\Local\Temp\cc4gZHfW.s:69     .text.tlsv1_add_cert_der:0000000000000040 .L0 
C:\Users\stapi\AppData\Local\Temp\cc4gZHfW.s:70     .text.tlsv1_add_cert_der:0000000000000040 .L0 
C:\Users\stapi\AppData\Local\Temp\cc4gZHfW.s:71     .text.tlsv1_add_cert_der:0000000000000040 .L0 
C:\Users\stapi\AppData\Local\Temp\cc4gZHfW.s:74     .text.tlsv1_add_cert_der:0000000000000040 .L0 
C:\Users\stapi\AppData\Local\Temp\cc4gZHfW.s:76     .text.tlsv1_add_cert_der:0000000000000040 .L0 
C:\Users\stapi\AppData\Local\Temp\cc4gZHfW.s:80     .text.tlsv1_add_cert_der:0000000000000046 .L0 
C:\Users\stapi\AppData\Local\Temp\cc4gZHfW.s:82     .text.tlsv1_add_cert_der:0000000000000046 .L0 
C:\Users\stapi\AppData\Local\Temp\cc4gZHfW.s:83     .text.tlsv1_add_cert_der:0000000000000046 .L0 
C:\Users\stapi\AppData\Local\Temp\cc4gZHfW.s:85     .text.tlsv1_add_cert_der:000000000000004a .L0 
C:\Users\stapi\AppData\Local\Temp\cc4gZHfW.s:87     .text.tlsv1_add_cert_der:000000000000004e .L0 
C:\Users\stapi\AppData\Local\Temp\cc4gZHfW.s:89     .text.tlsv1_add_cert_der:0000000000000050 .L0 
C:\Users\stapi\AppData\Local\Temp\cc4gZHfW.s:90     .text.tlsv1_add_cert_der:0000000000000050 .L0 
C:\Users\stapi\AppData\Local\Temp\cc4gZHfW.s:95     .text.tlsv1_add_cert_der:0000000000000060 .L0 
C:\Users\stapi\AppData\Local\Temp\cc4gZHfW.s:98     .text.tlsv1_add_cert_der:0000000000000062 .L0 
C:\Users\stapi\AppData\Local\Temp\cc4gZHfW.s:99     .text.tlsv1_add_cert_der:0000000000000062 .L0 
C:\Users\stapi\AppData\Local\Temp\cc4gZHfW.s:101    .text.tlsv1_add_cert_der:0000000000000064 .L0 
C:\Users\stapi\AppData\Local\Temp\cc4gZHfW.s:103    .text.tlsv1_add_cert_der:0000000000000066 .L0 
C:\Users\stapi\AppData\Local\Temp\cc4gZHfW.s:104    .text.tlsv1_add_cert_der:0000000000000066 .L0 
C:\Users\stapi\AppData\Local\Temp\cc4gZHfW.s:113    .text.tlsv1_add_cert_der:000000000000006e .L0 
C:\Users\stapi\AppData\Local\Temp\cc4gZHfW.s:114    .text.tlsv1_add_cert_der:000000000000006e .L0 
C:\Users\stapi\AppData\Local\Temp\cc4gZHfW.s:117    .text.tlsv1_add_cert_der:0000000000000072 .L0 
C:\Users\stapi\AppData\Local\Temp\cc4gZHfW.s:123    .text.tlsv1_add_cert_der:0000000000000084 .L0 
C:\Users\stapi\AppData\Local\Temp\cc4gZHfW.s:130    .text.tlsv1_add_cert_der:0000000000000098 .L0 
C:\Users\stapi\AppData\Local\Temp\cc4gZHfW.s:131    .text.tlsv1_add_cert_der:0000000000000098 .L0 
C:\Users\stapi\AppData\Local\Temp\cc4gZHfW.s:133    .text.tlsv1_add_cert_der:000000000000009c .L0 
C:\Users\stapi\AppData\Local\Temp\cc4gZHfW.s:139    .text.search_tag:0000000000000000 search_tag
C:\Users\stapi\AppData\Local\Temp\cc4gZHfW.s:142    .text.search_tag:0000000000000000 .L0 
C:\Users\stapi\AppData\Local\Temp\cc4gZHfW.s:144    .text.search_tag:0000000000000000 .L0 
C:\Users\stapi\AppData\Local\Temp\cc4gZHfW.s:145    .text.search_tag:0000000000000008 .L0 
C:\Users\stapi\AppData\Local\Temp\cc4gZHfW.s:146    .text.search_tag:0000000000000008 .L0 
C:\Users\stapi\AppData\Local\Temp\cc4gZHfW.s:147    .text.search_tag:0000000000000008 .L0 
C:\Users\stapi\AppData\Local\Temp\cc4gZHfW.s:148    .text.search_tag:0000000000000008 .L0 
C:\Users\stapi\AppData\Local\Temp\cc4gZHfW.s:149    .text.search_tag:0000000000000008 .L0 
C:\Users\stapi\AppData\Local\Temp\cc4gZHfW.s:150    .text.search_tag:0000000000000008 .L0 
C:\Users\stapi\AppData\Local\Temp\cc4gZHfW.s:151    .text.search_tag:0000000000000008 .L0 
C:\Users\stapi\AppData\Local\Temp\cc4gZHfW.s:152    .text.search_tag:0000000000000008 .L0 
C:\Users\stapi\AppData\Local\Temp\cc4gZHfW.s:154    .text.search_tag:0000000000000008 .L0 
C:\Users\stapi\AppData\Local\Temp\cc4gZHfW.s:155    .text.search_tag:0000000000000008 .L0 
C:\Users\stapi\AppData\Local\Temp\cc4gZHfW.s:156    .text.search_tag:0000000000000008 .L0 
C:\Users\stapi\AppData\Local\Temp\cc4gZHfW.s:160    .text.search_tag:000000000000000e .L0 
C:\Users\stapi\AppData\Local\Temp\cc4gZHfW.s:163    .text.search_tag:0000000000000016 .L0 
C:\Users\stapi\AppData\Local\Temp\cc4gZHfW.s:164    .text.search_tag:0000000000000016 .L0 
C:\Users\stapi\AppData\Local\Temp\cc4gZHfW.s:166    .text.search_tag:000000000000001a .L0 
C:\Users\stapi\AppData\Local\Temp\cc4gZHfW.s:170    .text.search_tag:000000000000001e .L0 
C:\Users\stapi\AppData\Local\Temp\cc4gZHfW.s:173    .text.search_tag:0000000000000020 .L0 
C:\Users\stapi\AppData\Local\Temp\cc4gZHfW.s:175    .text.search_tag:000000000000002a .L0 
C:\Users\stapi\AppData\Local\Temp\cc4gZHfW.s:176    .text.search_tag:000000000000002a .L0 
C:\Users\stapi\AppData\Local\Temp\cc4gZHfW.s:177    .text.search_tag:000000000000002a .L0 
C:\Users\stapi\AppData\Local\Temp\cc4gZHfW.s:178    .text.search_tag:000000000000002a .L0 
C:\Users\stapi\AppData\Local\Temp\cc4gZHfW.s:179    .text.search_tag:000000000000002a .L0 
C:\Users\stapi\AppData\Local\Temp\cc4gZHfW.s:180    .text.search_tag:000000000000002a .L0 
C:\Users\stapi\AppData\Local\Temp\cc4gZHfW.s:181    .text.search_tag:000000000000002a .L0 
C:\Users\stapi\AppData\Local\Temp\cc4gZHfW.s:182    .text.search_tag:000000000000002a .L0 
C:\Users\stapi\AppData\Local\Temp\cc4gZHfW.s:183    .text.search_tag:000000000000002a .L0 
C:\Users\stapi\AppData\Local\Temp\cc4gZHfW.s:186    .text.search_tag:000000000000002a .L0 
C:\Users\stapi\AppData\Local\Temp\cc4gZHfW.s:188    .text.search_tag:000000000000002a .L0 
C:\Users\stapi\AppData\Local\Temp\cc4gZHfW.s:190    .text.search_tag:000000000000002e .L0 
C:\Users\stapi\AppData\Local\Temp\cc4gZHfW.s:196    .text.search_tag:000000000000003c .L0 
C:\Users\stapi\AppData\Local\Temp\cc4gZHfW.s:198    .text.search_tag:000000000000003e .L0 
C:\Users\stapi\AppData\Local\Temp\cc4gZHfW.s:199    .text.search_tag:000000000000003e .L0 
C:\Users\stapi\AppData\Local\Temp\cc4gZHfW.s:203    .text.search_tag:0000000000000040 .L0 
C:\Users\stapi\AppData\Local\Temp\cc4gZHfW.s:204    .text.search_tag:0000000000000040 .L0 
C:\Users\stapi\AppData\Local\Temp\cc4gZHfW.s:211    .text.search_tag:000000000000004c .L0 
C:\Users\stapi\AppData\Local\Temp\cc4gZHfW.s:239    .text.tlsv1_add_cert:0000000000000000 tlsv1_add_cert
C:\Users\stapi\AppData\Local\Temp\cc4gZHfW.s:242    .text.tlsv1_add_cert:0000000000000000 .L0 
C:\Users\stapi\AppData\Local\Temp\cc4gZHfW.s:244    .text.tlsv1_add_cert:0000000000000000 .L0 
C:\Users\stapi\AppData\Local\Temp\cc4gZHfW.s:245    .text.tlsv1_add_cert:0000000000000008 .L0 
C:\Users\stapi\AppData\Local\Temp\cc4gZHfW.s:246    .text.tlsv1_add_cert:0000000000000008 .L0 
C:\Users\stapi\AppData\Local\Temp\cc4gZHfW.s:247    .text.tlsv1_add_cert:0000000000000008 .L0 
C:\Users\stapi\AppData\Local\Temp\cc4gZHfW.s:248    .text.tlsv1_add_cert:0000000000000008 .L0 
C:\Users\stapi\AppData\Local\Temp\cc4gZHfW.s:249    .text.tlsv1_add_cert:0000000000000008 .L0 
C:\Users\stapi\AppData\Local\Temp\cc4gZHfW.s:250    .text.tlsv1_add_cert:0000000000000008 .L0 
C:\Users\stapi\AppData\Local\Temp\cc4gZHfW.s:251    .text.tlsv1_add_cert:0000000000000008 .L0 
C:\Users\stapi\AppData\Local\Temp\cc4gZHfW.s:252    .text.tlsv1_add_cert:0000000000000008 .L0 
C:\Users\stapi\AppData\Local\Temp\cc4gZHfW.s:254    .text.tlsv1_add_cert:0000000000000008 .L0 
C:\Users\stapi\AppData\Local\Temp\cc4gZHfW.s:255    .text.tlsv1_add_cert:0000000000000008 .L0 
C:\Users\stapi\AppData\Local\Temp\cc4gZHfW.s:256    .text.tlsv1_add_cert:0000000000000008 .L0 
C:\Users\stapi\AppData\Local\Temp\cc4gZHfW.s:257    .text.tlsv1_add_cert:0000000000000008 .L0 
C:\Users\stapi\AppData\Local\Temp\cc4gZHfW.s:258    .text.tlsv1_add_cert:0000000000000008 .L0 
C:\Users\stapi\AppData\Local\Temp\cc4gZHfW.s:260    .text.tlsv1_add_cert:000000000000000c .L0 
C:\Users\stapi\AppData\Local\Temp\cc4gZHfW.s:261    .text.tlsv1_add_cert:000000000000000e .L0 
C:\Users\stapi\AppData\Local\Temp\cc4gZHfW.s:263    .text.tlsv1_add_cert:000000000000000e .L0 
C:\Users\stapi\AppData\Local\Temp\cc4gZHfW.s:265    .text.tlsv1_add_cert:0000000000000010 .L0 
C:\Users\stapi\AppData\Local\Temp\cc4gZHfW.s:268    .text.tlsv1_add_cert:0000000000000014 .L0 
C:\Users\stapi\AppData\Local\Temp\cc4gZHfW.s:271    .text.tlsv1_add_cert:0000000000000018 .L0 
C:\Users\stapi\AppData\Local\Temp\cc4gZHfW.s:274    .text.tlsv1_add_cert:0000000000000020 .L0 
C:\Users\stapi\AppData\Local\Temp\cc4gZHfW.s:275    .text.tlsv1_add_cert:0000000000000020 .L0 
C:\Users\stapi\AppData\Local\Temp\cc4gZHfW.s:277    .text.tlsv1_add_cert:0000000000000022 .L0 
C:\Users\stapi\AppData\Local\Temp\cc4gZHfW.s:284    .text.tlsv1_add_cert:0000000000000034 .L0 
C:\Users\stapi\AppData\Local\Temp\cc4gZHfW.s:285    .text.tlsv1_add_cert:0000000000000034 .L0 
C:\Users\stapi\AppData\Local\Temp\cc4gZHfW.s:292    .text.tlsv1_add_cert:0000000000000042 .L0 
C:\Users\stapi\AppData\Local\Temp\cc4gZHfW.s:293    .text.tlsv1_add_cert:0000000000000044 .L0 
C:\Users\stapi\AppData\Local\Temp\cc4gZHfW.s:294    .text.tlsv1_add_cert:0000000000000044 .L0 
C:\Users\stapi\AppData\Local\Temp\cc4gZHfW.s:296    .text.tlsv1_add_cert:000000000000004c .L0 
C:\Users\stapi\AppData\Local\Temp\cc4gZHfW.s:297    .text.tlsv1_add_cert:000000000000004c .L0 
C:\Users\stapi\AppData\Local\Temp\cc4gZHfW.s:298    .text.tlsv1_add_cert:000000000000004c .L0 
C:\Users\stapi\AppData\Local\Temp\cc4gZHfW.s:299    .text.tlsv1_add_cert:000000000000004c .L0 
C:\Users\stapi\AppData\Local\Temp\cc4gZHfW.s:300    .text.tlsv1_add_cert:000000000000004c .L0 
C:\Users\stapi\AppData\Local\Temp\cc4gZHfW.s:301    .text.tlsv1_add_cert:000000000000004c .L0 
C:\Users\stapi\AppData\Local\Temp\cc4gZHfW.s:302    .text.tlsv1_add_cert:000000000000004c .L0 
C:\Users\stapi\AppData\Local\Temp\cc4gZHfW.s:303    .text.tlsv1_add_cert:000000000000004c .L0 
C:\Users\stapi\AppData\Local\Temp\cc4gZHfW.s:306    .text.tlsv1_add_cert:000000000000004c .L0 
C:\Users\stapi\AppData\Local\Temp\cc4gZHfW.s:308    .text.tlsv1_add_cert:000000000000004c .L0 
C:\Users\stapi\AppData\Local\Temp\cc4gZHfW.s:311    .text.tlsv1_add_cert:0000000000000052 .L0 
C:\Users\stapi\AppData\Local\Temp\cc4gZHfW.s:317    .text.tlsv1_add_cert:0000000000000060 .L0 
C:\Users\stapi\AppData\Local\Temp\cc4gZHfW.s:318    .text.tlsv1_add_cert:0000000000000060 .L0 
C:\Users\stapi\AppData\Local\Temp\cc4gZHfW.s:319    .text.tlsv1_add_cert:0000000000000060 .L0 
C:\Users\stapi\AppData\Local\Temp\cc4gZHfW.s:322    .text.tlsv1_add_cert:0000000000000062 .L0 
C:\Users\stapi\AppData\Local\Temp\cc4gZHfW.s:326    .text.tlsv1_add_cert:0000000000000066 .L0 
C:\Users\stapi\AppData\Local\Temp\cc4gZHfW.s:327    .text.tlsv1_add_cert:0000000000000066 .L0 
C:\Users\stapi\AppData\Local\Temp\cc4gZHfW.s:331    .text.tlsv1_add_cert:0000000000000072 .L0 
C:\Users\stapi\AppData\Local\Temp\cc4gZHfW.s:334    .text.tlsv1_add_cert:0000000000000074 .L0 
C:\Users\stapi\AppData\Local\Temp\cc4gZHfW.s:335    .text.tlsv1_add_cert:0000000000000074 .L0 
C:\Users\stapi\AppData\Local\Temp\cc4gZHfW.s:343    .text.tlsv1_add_cert:0000000000000088 .L0 
C:\Users\stapi\AppData\Local\Temp\cc4gZHfW.s:344    .text.tlsv1_add_cert:0000000000000088 .L0 
C:\Users\stapi\AppData\Local\Temp\cc4gZHfW.s:346    .text.tlsv1_add_cert:000000000000008a .L0 
C:\Users\stapi\AppData\Local\Temp\cc4gZHfW.s:354    .text.tlsv1_add_cert:00000000000000a0 .L0 
C:\Users\stapi\AppData\Local\Temp\cc4gZHfW.s:355    .text.tlsv1_add_cert:00000000000000a0 .L0 
C:\Users\stapi\AppData\Local\Temp\cc4gZHfW.s:356    .text.tlsv1_add_cert:00000000000000a0 .L0 
C:\Users\stapi\AppData\Local\Temp\cc4gZHfW.s:361    .text.tlsv1_add_cert:00000000000000a4 .L0 
C:\Users\stapi\AppData\Local\Temp\cc4gZHfW.s:362    .text.tlsv1_add_cert:00000000000000a4 .L0 
C:\Users\stapi\AppData\Local\Temp\cc4gZHfW.s:370    .text.tlsv1_add_cert:00000000000000b6 .L0 
C:\Users\stapi\AppData\Local\Temp\cc4gZHfW.s:371    .text.tlsv1_add_cert:00000000000000b6 .L0 
C:\Users\stapi\AppData\Local\Temp\cc4gZHfW.s:373    .text.tlsv1_add_cert:00000000000000b8 .L0 
C:\Users\stapi\AppData\Local\Temp\cc4gZHfW.s:379    .text.tlsv1_add_cert:00000000000000ca .L0 
C:\Users\stapi\AppData\Local\Temp\cc4gZHfW.s:382    .text.tlsv1_add_cert:00000000000000cc .L0 
C:\Users\stapi\AppData\Local\Temp\cc4gZHfW.s:383    .text.tlsv1_add_cert:00000000000000cc .L0 
C:\Users\stapi\AppData\Local\Temp\cc4gZHfW.s:389    .text.tlsv1_add_cert:00000000000000da .L0 
C:\Users\stapi\AppData\Local\Temp\cc4gZHfW.s:391    .text.tlsv1_add_cert:00000000000000de .L0 
C:\Users\stapi\AppData\Local\Temp\cc4gZHfW.s:397    .text.tlsv1_add_cert:00000000000000f0 .L0 
C:\Users\stapi\AppData\Local\Temp\cc4gZHfW.s:403    .text.tlsv1_add_cert:00000000000000fc .L0 
C:\Users\stapi\AppData\Local\Temp\cc4gZHfW.s:407    .text.tlsv1_add_cert:0000000000000106 .L0 
C:\Users\stapi\AppData\Local\Temp\cc4gZHfW.s:408    .text.tlsv1_add_cert:0000000000000106 .L0 
C:\Users\stapi\AppData\Local\Temp\cc4gZHfW.s:412    .text.tlsv1_add_cert:0000000000000112 .L0 
C:\Users\stapi\AppData\Local\Temp\cc4gZHfW.s:415    .text.tlsv1_add_cert:0000000000000116 .L0 
C:\Users\stapi\AppData\Local\Temp\cc4gZHfW.s:416    .text.tlsv1_add_cert:0000000000000116 .L0 
C:\Users\stapi\AppData\Local\Temp\cc4gZHfW.s:423    .text.tlsv1_add_cert:0000000000000128 .L0 
C:\Users\stapi\AppData\Local\Temp\cc4gZHfW.s:425    .text.tlsv1_add_cert:000000000000012a .L0 
C:\Users\stapi\AppData\Local\Temp\cc4gZHfW.s:427    .text.tlsv1_add_cert:000000000000012e .L0 
C:\Users\stapi\AppData\Local\Temp\cc4gZHfW.s:461    .text.tlsv1_set_key:0000000000000000 tlsv1_set_key
C:\Users\stapi\AppData\Local\Temp\cc4gZHfW.s:464    .text.tlsv1_set_key:0000000000000000 .L0 
C:\Users\stapi\AppData\Local\Temp\cc4gZHfW.s:466    .text.tlsv1_set_key:0000000000000000 .L0 
C:\Users\stapi\AppData\Local\Temp\cc4gZHfW.s:467    .text.tlsv1_set_key:0000000000000008 .L0 
C:\Users\stapi\AppData\Local\Temp\cc4gZHfW.s:468    .text.tlsv1_set_key:0000000000000008 .L0 
C:\Users\stapi\AppData\Local\Temp\cc4gZHfW.s:469    .text.tlsv1_set_key:0000000000000008 .L0 
C:\Users\stapi\AppData\Local\Temp\cc4gZHfW.s:470    .text.tlsv1_set_key:0000000000000008 .L0 
C:\Users\stapi\AppData\Local\Temp\cc4gZHfW.s:471    .text.tlsv1_set_key:0000000000000008 .L0 
C:\Users\stapi\AppData\Local\Temp\cc4gZHfW.s:472    .text.tlsv1_set_key:0000000000000008 .L0 
C:\Users\stapi\AppData\Local\Temp\cc4gZHfW.s:473    .text.tlsv1_set_key:0000000000000008 .L0 
C:\Users\stapi\AppData\Local\Temp\cc4gZHfW.s:474    .text.tlsv1_set_key:0000000000000008 .L0 
C:\Users\stapi\AppData\Local\Temp\cc4gZHfW.s:476    .text.tlsv1_set_key:0000000000000008 .L0 
C:\Users\stapi\AppData\Local\Temp\cc4gZHfW.s:477    .text.tlsv1_set_key:0000000000000008 .L0 
C:\Users\stapi\AppData\Local\Temp\cc4gZHfW.s:481    .text.tlsv1_set_key:0000000000000010 .L0 
C:\Users\stapi\AppData\Local\Temp\cc4gZHfW.s:483    .text.tlsv1_set_key:0000000000000010 .L0 
C:\Users\stapi\AppData\Local\Temp\cc4gZHfW.s:490    .text.tlsv1_set_key:0000000000000016 .L0 
C:\Users\stapi\AppData\Local\Temp\cc4gZHfW.s:492    .text.tlsv1_set_key:0000000000000018 .L0 
C:\Users\stapi\AppData\Local\Temp\cc4gZHfW.s:495    .text.tlsv1_set_key:0000000000000020 .L0 
C:\Users\stapi\AppData\Local\Temp\cc4gZHfW.s:497    .text.tlsv1_set_key:0000000000000024 .L0 
C:\Users\stapi\AppData\Local\Temp\cc4gZHfW.s:498    .text.tlsv1_set_key:0000000000000024 .L0 
C:\Users\stapi\AppData\Local\Temp\cc4gZHfW.s:503    .text.tlsv1_set_key:0000000000000026 .L0 
C:\Users\stapi\AppData\Local\Temp\cc4gZHfW.s:504    .text.tlsv1_set_key:0000000000000026 .L0 
C:\Users\stapi\AppData\Local\Temp\cc4gZHfW.s:505    .text.tlsv1_set_key:0000000000000026 .L0 
C:\Users\stapi\AppData\Local\Temp\cc4gZHfW.s:506    .text.tlsv1_set_key:0000000000000026 .L0 
C:\Users\stapi\AppData\Local\Temp\cc4gZHfW.s:507    .text.tlsv1_set_key:0000000000000026 .L0 
C:\Users\stapi\AppData\Local\Temp\cc4gZHfW.s:508    .text.tlsv1_set_key:0000000000000026 .L0 
C:\Users\stapi\AppData\Local\Temp\cc4gZHfW.s:509    .text.tlsv1_set_key:0000000000000026 .L0 
C:\Users\stapi\AppData\Local\Temp\cc4gZHfW.s:518    .text.tlsv1_set_key:000000000000003c .L0 
C:\Users\stapi\AppData\Local\Temp\cc4gZHfW.s:519    .text.tlsv1_set_key:000000000000003c .L0 
C:\Users\stapi\AppData\Local\Temp\cc4gZHfW.s:521    .text.tlsv1_set_key:000000000000003e .L0 
C:\Users\stapi\AppData\Local\Temp\cc4gZHfW.s:522    .text.tlsv1_set_key:000000000000003e .L0 
C:\Users\stapi\AppData\Local\Temp\cc4gZHfW.s:531    .text.tlsv1_set_key:0000000000000054 .L0 
C:\Users\stapi\AppData\Local\Temp\cc4gZHfW.s:532    .text.tlsv1_set_key:0000000000000054 .L0 
C:\Users\stapi\AppData\Local\Temp\cc4gZHfW.s:540    .text.tlsv1_set_key:0000000000000056 .L0 
C:\Users\stapi\AppData\Local\Temp\cc4gZHfW.s:541    .text.tlsv1_set_key:0000000000000056 .L0 
C:\Users\stapi\AppData\Local\Temp\cc4gZHfW.s:544    .text.tlsv1_set_key:000000000000005a .L0 
C:\Users\stapi\AppData\Local\Temp\cc4gZHfW.s:548    .text.tlsv1_set_key:000000000000005a .L0 
C:\Users\stapi\AppData\Local\Temp\cc4gZHfW.s:549    .text.tlsv1_set_key:000000000000005a .L0 
C:\Users\stapi\AppData\Local\Temp\cc4gZHfW.s:550    .text.tlsv1_set_key:000000000000005a .L0 
C:\Users\stapi\AppData\Local\Temp\cc4gZHfW.s:551    .text.tlsv1_set_key:000000000000005a .L0 
C:\Users\stapi\AppData\Local\Temp\cc4gZHfW.s:552    .text.tlsv1_set_key:000000000000005a .L0 
C:\Users\stapi\AppData\Local\Temp\cc4gZHfW.s:553    .text.tlsv1_set_key:000000000000005a .L0 
C:\Users\stapi\AppData\Local\Temp\cc4gZHfW.s:554    .text.tlsv1_set_key:000000000000005a .L0 
C:\Users\stapi\AppData\Local\Temp\cc4gZHfW.s:560    .text.tlsv1_set_key:000000000000005e .L0 
C:\Users\stapi\AppData\Local\Temp\cc4gZHfW.s:563    .text.tlsv1_set_key:0000000000000062 .L0 
C:\Users\stapi\AppData\Local\Temp\cc4gZHfW.s:564    .text.tlsv1_set_key:0000000000000062 .L0 
C:\Users\stapi\AppData\Local\Temp\cc4gZHfW.s:570    .text.tlsv1_set_key:0000000000000074 .L0 
C:\Users\stapi\AppData\Local\Temp\cc4gZHfW.s:571    .text.tlsv1_set_key:0000000000000074 .L0 
C:\Users\stapi\AppData\Local\Temp\cc4gZHfW.s:574    .text.tlsv1_set_key:0000000000000076 .L0 
C:\Users\stapi\AppData\Local\Temp\cc4gZHfW.s:575    .text.tlsv1_set_key:0000000000000078 .L0 
C:\Users\stapi\AppData\Local\Temp\cc4gZHfW.s:576    .text.tlsv1_set_key:0000000000000078 .L0 
C:\Users\stapi\AppData\Local\Temp\cc4gZHfW.s:578    .text.tlsv1_set_key:0000000000000080 .L0 
C:\Users\stapi\AppData\Local\Temp\cc4gZHfW.s:579    .text.tlsv1_set_key:0000000000000080 .L0 
C:\Users\stapi\AppData\Local\Temp\cc4gZHfW.s:580    .text.tlsv1_set_key:0000000000000080 .L0 
C:\Users\stapi\AppData\Local\Temp\cc4gZHfW.s:581    .text.tlsv1_set_key:0000000000000080 .L0 
C:\Users\stapi\AppData\Local\Temp\cc4gZHfW.s:582    .text.tlsv1_set_key:0000000000000080 .L0 
C:\Users\stapi\AppData\Local\Temp\cc4gZHfW.s:583    .text.tlsv1_set_key:0000000000000080 .L0 
C:\Users\stapi\AppData\Local\Temp\cc4gZHfW.s:584    .text.tlsv1_set_key:0000000000000080 .L0 
C:\Users\stapi\AppData\Local\Temp\cc4gZHfW.s:585    .text.tlsv1_set_key:0000000000000080 .L0 
C:\Users\stapi\AppData\Local\Temp\cc4gZHfW.s:588    .text.tlsv1_set_key:0000000000000080 .L0 
C:\Users\stapi\AppData\Local\Temp\cc4gZHfW.s:592    .text.tlsv1_set_key:0000000000000080 .L0 
C:\Users\stapi\AppData\Local\Temp\cc4gZHfW.s:593    .text.tlsv1_set_key:0000000000000080 .L0 
C:\Users\stapi\AppData\Local\Temp\cc4gZHfW.s:597    .text.tlsv1_set_key:000000000000008c .L0 
C:\Users\stapi\AppData\Local\Temp\cc4gZHfW.s:600    .text.tlsv1_set_key:000000000000008e .L0 
C:\Users\stapi\AppData\Local\Temp\cc4gZHfW.s:601    .text.tlsv1_set_key:000000000000008e .L0 
C:\Users\stapi\AppData\Local\Temp\cc4gZHfW.s:603    .text.tlsv1_set_key:0000000000000092 .L0 
C:\Users\stapi\AppData\Local\Temp\cc4gZHfW.s:612    .text.tlsv1_set_key:00000000000000a8 .L0 
C:\Users\stapi\AppData\Local\Temp\cc4gZHfW.s:613    .text.tlsv1_set_key:00000000000000a8 .L0 
C:\Users\stapi\AppData\Local\Temp\cc4gZHfW.s:617    .text.tlsv1_set_key:00000000000000aa .L0 
C:\Users\stapi\AppData\Local\Temp\cc4gZHfW.s:618    .text.tlsv1_set_key:00000000000000aa .L0 
C:\Users\stapi\AppData\Local\Temp\cc4gZHfW.s:626    .text.tlsv1_set_key:00000000000000bc .L0 
C:\Users\stapi\AppData\Local\Temp\cc4gZHfW.s:627    .text.tlsv1_set_key:00000000000000bc .L0 
C:\Users\stapi\AppData\Local\Temp\cc4gZHfW.s:629    .text.tlsv1_set_key:00000000000000be .L0 
C:\Users\stapi\AppData\Local\Temp\cc4gZHfW.s:630    .text.tlsv1_set_key:00000000000000be .L0 
C:\Users\stapi\AppData\Local\Temp\cc4gZHfW.s:637    .text.tlsv1_set_key:00000000000000cc .L0 
C:\Users\stapi\AppData\Local\Temp\cc4gZHfW.s:643    .text.tlsv1_set_key:00000000000000d6 .L0 
C:\Users\stapi\AppData\Local\Temp\cc4gZHfW.s:644    .text.tlsv1_set_key:00000000000000d6 .L0 
C:\Users\stapi\AppData\Local\Temp\cc4gZHfW.s:646    .text.tlsv1_set_key:00000000000000da .L0 
C:\Users\stapi\AppData\Local\Temp\cc4gZHfW.s:647    .text.tlsv1_set_key:00000000000000da .L0 
C:\Users\stapi\AppData\Local\Temp\cc4gZHfW.s:651    .text.tlsv1_set_key:00000000000000dc .L0 
C:\Users\stapi\AppData\Local\Temp\cc4gZHfW.s:652    .text.tlsv1_set_key:00000000000000dc .L0 
C:\Users\stapi\AppData\Local\Temp\cc4gZHfW.s:660    .text.tlsv1_set_key:00000000000000e0 .L0 
C:\Users\stapi\AppData\Local\Temp\cc4gZHfW.s:661    .text.tlsv1_set_key:00000000000000e0 .L0 
C:\Users\stapi\AppData\Local\Temp\cc4gZHfW.s:662    .text.tlsv1_set_key:00000000000000e0 .L0 
C:\Users\stapi\AppData\Local\Temp\cc4gZHfW.s:666    .text.tlsv1_set_key:00000000000000ec .L0 
C:\Users\stapi\AppData\Local\Temp\cc4gZHfW.s:669    .text.tlsv1_set_key:00000000000000ee .L0 
C:\Users\stapi\AppData\Local\Temp\cc4gZHfW.s:670    .text.tlsv1_set_key:00000000000000ee .L0 
C:\Users\stapi\AppData\Local\Temp\cc4gZHfW.s:672    .text.tlsv1_set_key:00000000000000f2 .L0 
C:\Users\stapi\AppData\Local\Temp\cc4gZHfW.s:681    .text.tlsv1_set_key:0000000000000108 .L0 
C:\Users\stapi\AppData\Local\Temp\cc4gZHfW.s:682    .text.tlsv1_set_key:0000000000000108 .L0 
C:\Users\stapi\AppData\Local\Temp\cc4gZHfW.s:684    .text.tlsv1_set_key:000000000000010a .L0 
C:\Users\stapi\AppData\Local\Temp\cc4gZHfW.s:685    .text.tlsv1_set_key:000000000000010a .L0 
C:\Users\stapi\AppData\Local\Temp\cc4gZHfW.s:693    .text.tlsv1_set_key:0000000000000120 .L0 
C:\Users\stapi\AppData\Local\Temp\cc4gZHfW.s:694    .text.tlsv1_set_key:0000000000000120 .L0 
C:\Users\stapi\AppData\Local\Temp\cc4gZHfW.s:696    .text.tlsv1_set_key:0000000000000122 .L0 
C:\Users\stapi\AppData\Local\Temp\cc4gZHfW.s:711    .text.tlsv1_set_key:0000000000000136 .L0 
C:\Users\stapi\AppData\Local\Temp\cc4gZHfW.s:712    .text.tlsv1_set_key:0000000000000136 .L0 
C:\Users\stapi\AppData\Local\Temp\cc4gZHfW.s:721    .text.tlsv1_set_key:000000000000014c .L0 
C:\Users\stapi\AppData\Local\Temp\cc4gZHfW.s:722    .text.tlsv1_set_key:000000000000014c .L0 
C:\Users\stapi\AppData\Local\Temp\cc4gZHfW.s:724    .text.tlsv1_set_key:000000000000014e .L0 
C:\Users\stapi\AppData\Local\Temp\cc4gZHfW.s:725    .text.tlsv1_set_key:000000000000014e .L0 
C:\Users\stapi\AppData\Local\Temp\cc4gZHfW.s:729    .text.tlsv1_set_key:000000000000015a .L0 
C:\Users\stapi\AppData\Local\Temp\cc4gZHfW.s:732    .text.tlsv1_set_key:000000000000015c .L0 
C:\Users\stapi\AppData\Local\Temp\cc4gZHfW.s:733    .text.tlsv1_set_key:000000000000015c .L0 
C:\Users\stapi\AppData\Local\Temp\cc4gZHfW.s:735    .text.tlsv1_set_key:0000000000000160 .L0 
C:\Users\stapi\AppData\Local\Temp\cc4gZHfW.s:742    .text.tlsv1_set_key:0000000000000174 .L0 
C:\Users\stapi\AppData\Local\Temp\cc4gZHfW.s:743    .text.tlsv1_set_key:0000000000000174 .L0 
C:\Users\stapi\AppData\Local\Temp\cc4gZHfW.s:745    .text.tlsv1_set_key:0000000000000178 .L0 
C:\Users\stapi\AppData\Local\Temp\cc4gZHfW.s:746    .text.tlsv1_set_key:0000000000000178 .L0 
C:\Users\stapi\AppData\Local\Temp\cc4gZHfW.s:755    .text.tlsv1_set_key:000000000000018a .L0 
C:\Users\stapi\AppData\Local\Temp\cc4gZHfW.s:756    .text.tlsv1_set_key:000000000000018a .L0 
C:\Users\stapi\AppData\Local\Temp\cc4gZHfW.s:758    .text.tlsv1_set_key:000000000000018e .L0 
C:\Users\stapi\AppData\Local\Temp\cc4gZHfW.s:759    .text.tlsv1_set_key:000000000000018e .L0 
C:\Users\stapi\AppData\Local\Temp\cc4gZHfW.s:766    .text.tlsv1_set_key:000000000000019c .L0 
C:\Users\stapi\AppData\Local\Temp\cc4gZHfW.s:772    .text.tlsv1_set_key:00000000000001a6 .L0 
C:\Users\stapi\AppData\Local\Temp\cc4gZHfW.s:773    .text.tlsv1_set_key:00000000000001a6 .L0 
C:\Users\stapi\AppData\Local\Temp\cc4gZHfW.s:775    .text.tlsv1_set_key:00000000000001aa .L0 
C:\Users\stapi\AppData\Local\Temp\cc4gZHfW.s:776    .text.tlsv1_set_key:00000000000001aa .L0 
C:\Users\stapi\AppData\Local\Temp\cc4gZHfW.s:778    .text.tlsv1_set_key:00000000000001ae .L0 
C:\Users\stapi\AppData\Local\Temp\cc4gZHfW.s:788    .text.tlsv1_set_cert_chain:0000000000000000 tlsv1_set_cert_chain
C:\Users\stapi\AppData\Local\Temp\cc4gZHfW.s:791    .text.tlsv1_set_cert_chain:0000000000000000 .L0 
C:\Users\stapi\AppData\Local\Temp\cc4gZHfW.s:793    .text.tlsv1_set_cert_chain:0000000000000000 .L0 
C:\Users\stapi\AppData\Local\Temp\cc4gZHfW.s:794    .text.tlsv1_set_cert_chain:0000000000000008 .L0 
C:\Users\stapi\AppData\Local\Temp\cc4gZHfW.s:795    .text.tlsv1_set_cert_chain:0000000000000008 .L0 
C:\Users\stapi\AppData\Local\Temp\cc4gZHfW.s:796    .text.tlsv1_set_cert_chain:0000000000000008 .L0 
C:\Users\stapi\AppData\Local\Temp\cc4gZHfW.s:797    .text.tlsv1_set_cert_chain:0000000000000008 .L0 
C:\Users\stapi\AppData\Local\Temp\cc4gZHfW.s:798    .text.tlsv1_set_cert_chain:0000000000000008 .L0 
C:\Users\stapi\AppData\Local\Temp\cc4gZHfW.s:799    .text.tlsv1_set_cert_chain:0000000000000008 .L0 
C:\Users\stapi\AppData\Local\Temp\cc4gZHfW.s:802    .text.tlsv1_set_cert_chain:000000000000000c .L0 
C:\Users\stapi\AppData\Local\Temp\cc4gZHfW.s:804    .text.tlsv1_set_cert_chain:000000000000000c .L0 
C:\Users\stapi\AppData\Local\Temp\cc4gZHfW.s:807    .text.tlsv1_set_cert_chain:000000000000000e .L0 
C:\Users\stapi\AppData\Local\Temp\cc4gZHfW.s:808    .text.tlsv1_set_cert_chain:000000000000000e .L0 
C:\Users\stapi\AppData\Local\Temp\cc4gZHfW.s:812    .text.tlsv1_set_cert_chain:0000000000000012 .L0 
C:\Users\stapi\AppData\Local\Temp\cc4gZHfW.s:813    .text.tlsv1_set_cert_chain:0000000000000012 .L0 
C:\Users\stapi\AppData\Local\Temp\cc4gZHfW.s:818    .text.tlsv1_set_cert_chain:000000000000001c .L0 
C:\Users\stapi\AppData\Local\Temp\cc4gZHfW.s:820    .text.tlsv1_set_cert_chain:0000000000000020 .L0 
C:\Users\stapi\AppData\Local\Temp\cc4gZHfW.s:821    .text.tlsv1_set_cert_chain:0000000000000020 .L0 
C:\Users\stapi\AppData\Local\Temp\cc4gZHfW.s:823    .text.tlsv1_set_cert_chain:0000000000000028 .L0 
C:\Users\stapi\AppData\Local\Temp\cc4gZHfW.s:824    .text.tlsv1_set_cert_chain:0000000000000028 .L0 
C:\Users\stapi\AppData\Local\Temp\cc4gZHfW.s:825    .text.tlsv1_set_cert_chain:0000000000000028 .L0 
C:\Users\stapi\AppData\Local\Temp\cc4gZHfW.s:826    .text.tlsv1_set_cert_chain:0000000000000028 .L0 
C:\Users\stapi\AppData\Local\Temp\cc4gZHfW.s:827    .text.tlsv1_set_cert_chain:0000000000000028 .L0 
C:\Users\stapi\AppData\Local\Temp\cc4gZHfW.s:828    .text.tlsv1_set_cert_chain:0000000000000028 .L0 
C:\Users\stapi\AppData\Local\Temp\cc4gZHfW.s:831    .text.tlsv1_set_cert_chain:0000000000000028 .L0 
C:\Users\stapi\AppData\Local\Temp\cc4gZHfW.s:833    .text.tlsv1_set_cert_chain:0000000000000028 .L0 
C:\Users\stapi\AppData\Local\Temp\cc4gZHfW.s:834    .text.tlsv1_set_cert_chain:0000000000000028 .L0 
C:\Users\stapi\AppData\Local\Temp\cc4gZHfW.s:836    .text.tlsv1_set_cert_chain:000000000000002a .L0 
C:\Users\stapi\AppData\Local\Temp\cc4gZHfW.s:842    .text.tlsv1_set_cert_chain:0000000000000030 .L0 
C:\Users\stapi\AppData\Local\Temp\cc4gZHfW.s:843    .text.tlsv1_set_cert_chain:0000000000000030 .L0 
C:\Users\stapi\AppData\Local\Temp\cc4gZHfW.s:844    .text.tlsv1_set_cert_chain:0000000000000030 .L0 
C:\Users\stapi\AppData\Local\Temp\cc4gZHfW.s:845    .text.tlsv1_set_cert_chain:0000000000000030 .L0 
C:\Users\stapi\AppData\Local\Temp\cc4gZHfW.s:846    .text.tlsv1_set_cert_chain:0000000000000030 .L0 
C:\Users\stapi\AppData\Local\Temp\cc4gZHfW.s:855    .text.tlsv1_set_cert_chain:000000000000003e .L0 
C:\Users\stapi\AppData\Local\Temp\cc4gZHfW.s:856    .text.tlsv1_set_cert_chain:000000000000003e .L0 
C:\Users\stapi\AppData\Local\Temp\cc4gZHfW.s:858    .text.tlsv1_set_cert_chain:0000000000000040 .L0 
C:\Users\stapi\AppData\Local\Temp\cc4gZHfW.s:865    .text.tlsv1_set_cert_chain:0000000000000054 .L0 
C:\Users\stapi\AppData\Local\Temp\cc4gZHfW.s:866    .text.tlsv1_set_cert_chain:0000000000000054 .L0 
C:\Users\stapi\AppData\Local\Temp\cc4gZHfW.s:870    .text.tlsv1_set_cert_chain:0000000000000058 .L0 
C:\Users\stapi\AppData\Local\Temp\cc4gZHfW.s:871    .text.tlsv1_set_cert_chain:0000000000000058 .L0 
C:\Users\stapi\AppData\Local\Temp\cc4gZHfW.s:879    .text.tlsv1_set_cert_chain:0000000000000068 .L0 
C:\Users\stapi\AppData\Local\Temp\cc4gZHfW.s:883    .text.tlsv1_set_cert_chain:0000000000000072 .L0 
C:\Users\stapi\AppData\Local\Temp\cc4gZHfW.s:884    .text.tlsv1_set_cert_chain:0000000000000072 .L0 
C:\Users\stapi\AppData\Local\Temp\cc4gZHfW.s:887    .text.tlsv1_set_cert_chain:0000000000000074 .L0 
C:\Users\stapi\AppData\Local\Temp\cc4gZHfW.s:909    .text.tlsv1_set_dhparams_der:0000000000000000 tlsv1_set_dhparams_der
C:\Users\stapi\AppData\Local\Temp\cc4gZHfW.s:912    .text.tlsv1_set_dhparams_der:0000000000000000 .L0 
C:\Users\stapi\AppData\Local\Temp\cc4gZHfW.s:914    .text.tlsv1_set_dhparams_der:0000000000000000 .L0 
C:\Users\stapi\AppData\Local\Temp\cc4gZHfW.s:915    .text.tlsv1_set_dhparams_der:0000000000000008 .L0 
C:\Users\stapi\AppData\Local\Temp\cc4gZHfW.s:916    .text.tlsv1_set_dhparams_der:0000000000000008 .L0 
C:\Users\stapi\AppData\Local\Temp\cc4gZHfW.s:917    .text.tlsv1_set_dhparams_der:0000000000000008 .L0 
C:\Users\stapi\AppData\Local\Temp\cc4gZHfW.s:918    .text.tlsv1_set_dhparams_der:0000000000000008 .L0 
C:\Users\stapi\AppData\Local\Temp\cc4gZHfW.s:920    .text.tlsv1_set_dhparams_der:0000000000000008 .L0 
C:\Users\stapi\AppData\Local\Temp\cc4gZHfW.s:921    .text.tlsv1_set_dhparams_der:0000000000000008 .L0 
C:\Users\stapi\AppData\Local\Temp\cc4gZHfW.s:922    .text.tlsv1_set_dhparams_der:0000000000000008 .L0 
C:\Users\stapi\AppData\Local\Temp\cc4gZHfW.s:923    .text.tlsv1_set_dhparams_der:0000000000000008 .L0 
C:\Users\stapi\AppData\Local\Temp\cc4gZHfW.s:924    .text.tlsv1_set_dhparams_der:000000000000000a .L0 
C:\Users\stapi\AppData\Local\Temp\cc4gZHfW.s:926    .text.tlsv1_set_dhparams_der:000000000000000a .L0 
C:\Users\stapi\AppData\Local\Temp\cc4gZHfW.s:930    .text.tlsv1_set_dhparams_der:000000000000000e .L0 
C:\Users\stapi\AppData\Local\Temp\cc4gZHfW.s:931    .text.tlsv1_set_dhparams_der:000000000000000e .L0 
C:\Users\stapi\AppData\Local\Temp\cc4gZHfW.s:934    .text.tlsv1_set_dhparams_der:0000000000000012 .L0 
C:\Users\stapi\AppData\Local\Temp\cc4gZHfW.s:935    .text.tlsv1_set_dhparams_der:0000000000000012 .L0 
C:\Users\stapi\AppData\Local\Temp\cc4gZHfW.s:938    .text.tlsv1_set_dhparams_der:0000000000000014 .L0 
C:\Users\stapi\AppData\Local\Temp\cc4gZHfW.s:943    .text.tlsv1_set_dhparams_der:000000000000001e .L0 
C:\Users\stapi\AppData\Local\Temp\cc4gZHfW.s:949    .text.tlsv1_set_dhparams_der:0000000000000022 .L0 
C:\Users\stapi\AppData\Local\Temp\cc4gZHfW.s:950    .text.tlsv1_set_dhparams_der:0000000000000022 .L0 
C:\Users\stapi\AppData\Local\Temp\cc4gZHfW.s:959    .text.tlsv1_set_dhparams_der:0000000000000030 .L0 
C:\Users\stapi\AppData\Local\Temp\cc4gZHfW.s:960    .text.tlsv1_set_dhparams_der:0000000000000030 .L0 
C:\Users\stapi\AppData\Local\Temp\cc4gZHfW.s:963    .text.tlsv1_set_dhparams_der:0000000000000032 .L0 
C:\Users\stapi\AppData\Local\Temp\cc4gZHfW.s:964    .text.tlsv1_set_dhparams_der:0000000000000032 .L0 
C:\Users\stapi\AppData\Local\Temp\cc4gZHfW.s:969    .text.tlsv1_set_dhparams_der:0000000000000040 .L0 
C:\Users\stapi\AppData\Local\Temp\cc4gZHfW.s:972    .text.tlsv1_set_dhparams_der:0000000000000044 .L0 
C:\Users\stapi\AppData\Local\Temp\cc4gZHfW.s:978    .text.tlsv1_set_dhparams_der:000000000000004e .L0 
C:\Users\stapi\AppData\Local\Temp\cc4gZHfW.s:983    .text.tlsv1_set_dhparams_der:0000000000000056 .L0 
C:\Users\stapi\AppData\Local\Temp\cc4gZHfW.s:992    .text.tlsv1_set_dhparams_der:0000000000000062 .L0 
C:\Users\stapi\AppData\Local\Temp\cc4gZHfW.s:993    .text.tlsv1_set_dhparams_der:0000000000000062 .L0 
C:\Users\stapi\AppData\Local\Temp\cc4gZHfW.s:1002   .text.tlsv1_set_dhparams_der:0000000000000070 .L0 
C:\Users\stapi\AppData\Local\Temp\cc4gZHfW.s:1010   .text.tlsv1_set_dhparams_der:0000000000000086 .L0 
C:\Users\stapi\AppData\Local\Temp\cc4gZHfW.s:1011   .text.tlsv1_set_dhparams_der:0000000000000086 .L0 
C:\Users\stapi\AppData\Local\Temp\cc4gZHfW.s:1015   .text.tlsv1_set_dhparams_der:000000000000008a .L0 
C:\Users\stapi\AppData\Local\Temp\cc4gZHfW.s:1016   .text.tlsv1_set_dhparams_der:000000000000008a .L0 
C:\Users\stapi\AppData\Local\Temp\cc4gZHfW.s:1019   .text.tlsv1_set_dhparams_der:000000000000008c .L0 
C:\Users\stapi\AppData\Local\Temp\cc4gZHfW.s:1020   .text.tlsv1_set_dhparams_der:000000000000008e .L0 
C:\Users\stapi\AppData\Local\Temp\cc4gZHfW.s:1021   .text.tlsv1_set_dhparams_der:000000000000008e .L0 
C:\Users\stapi\AppData\Local\Temp\cc4gZHfW.s:1023   .text.tlsv1_set_dhparams_der:0000000000000096 .L0 
C:\Users\stapi\AppData\Local\Temp\cc4gZHfW.s:1024   .text.tlsv1_set_dhparams_der:0000000000000096 .L0 
C:\Users\stapi\AppData\Local\Temp\cc4gZHfW.s:1025   .text.tlsv1_set_dhparams_der:0000000000000096 .L0 
C:\Users\stapi\AppData\Local\Temp\cc4gZHfW.s:1026   .text.tlsv1_set_dhparams_der:0000000000000096 .L0 
C:\Users\stapi\AppData\Local\Temp\cc4gZHfW.s:1028   .text.tlsv1_set_dhparams_der:0000000000000096 .L0 
C:\Users\stapi\AppData\Local\Temp\cc4gZHfW.s:1030   .text.tlsv1_set_dhparams_der:0000000000000096 .L0 
C:\Users\stapi\AppData\Local\Temp\cc4gZHfW.s:1034   .text.tlsv1_set_dhparams_der:00000000000000a0 .L0 
C:\Users\stapi\AppData\Local\Temp\cc4gZHfW.s:1035   .text.tlsv1_set_dhparams_der:00000000000000a0 .L0 
C:\Users\stapi\AppData\Local\Temp\cc4gZHfW.s:1040   .text.tlsv1_set_dhparams_der:00000000000000ac .L0 
C:\Users\stapi\AppData\Local\Temp\cc4gZHfW.s:1042   .text.tlsv1_set_dhparams_der:00000000000000ae .L0 
C:\Users\stapi\AppData\Local\Temp\cc4gZHfW.s:1043   .text.tlsv1_set_dhparams_der:00000000000000ae .L0 
C:\Users\stapi\AppData\Local\Temp\cc4gZHfW.s:1045   .text.tlsv1_set_dhparams_der:00000000000000b0 .L0 
C:\Users\stapi\AppData\Local\Temp\cc4gZHfW.s:1046   .text.tlsv1_set_dhparams_der:00000000000000b0 .L0 
C:\Users\stapi\AppData\Local\Temp\cc4gZHfW.s:1048   .text.tlsv1_set_dhparams_der:00000000000000b2 .L0 
C:\Users\stapi\AppData\Local\Temp\cc4gZHfW.s:1050   .text.tlsv1_set_dhparams_der:00000000000000b4 .L0 
C:\Users\stapi\AppData\Local\Temp\cc4gZHfW.s:1052   .text.tlsv1_set_dhparams_der:00000000000000b6 .L0 
C:\Users\stapi\AppData\Local\Temp\cc4gZHfW.s:1054   .text.tlsv1_set_dhparams_der:00000000000000b8 .L0 
C:\Users\stapi\AppData\Local\Temp\cc4gZHfW.s:1055   .text.tlsv1_set_dhparams_der:00000000000000b8 .L0 
C:\Users\stapi\AppData\Local\Temp\cc4gZHfW.s:1058   .text.tlsv1_set_dhparams_der:00000000000000ba .L0 
C:\Users\stapi\AppData\Local\Temp\cc4gZHfW.s:1059   .text.tlsv1_set_dhparams_der:00000000000000ba .L0 
C:\Users\stapi\AppData\Local\Temp\cc4gZHfW.s:1063   .text.tlsv1_set_dhparams_der:00000000000000c6 .L0 
C:\Users\stapi\AppData\Local\Temp\cc4gZHfW.s:1068   .text.tlsv1_set_dhparams_der:00000000000000ca .L0 
C:\Users\stapi\AppData\Local\Temp\cc4gZHfW.s:1069   .text.tlsv1_set_dhparams_der:00000000000000ca .L0 
C:\Users\stapi\AppData\Local\Temp\cc4gZHfW.s:1078   .text.tlsv1_set_dhparams_der:00000000000000d8 .L0 
C:\Users\stapi\AppData\Local\Temp\cc4gZHfW.s:1086   .text.tlsv1_set_dhparams_der:00000000000000ee .L0 
C:\Users\stapi\AppData\Local\Temp\cc4gZHfW.s:1087   .text.tlsv1_set_dhparams_der:00000000000000ee .L0 
C:\Users\stapi\AppData\Local\Temp\cc4gZHfW.s:1090   .text.tlsv1_set_dhparams_der:00000000000000f2 .L0 
C:\Users\stapi\AppData\Local\Temp\cc4gZHfW.s:1094   .text.tlsv1_set_dhparams_der:00000000000000fc .L0 
C:\Users\stapi\AppData\Local\Temp\cc4gZHfW.s:1095   .text.tlsv1_set_dhparams_der:00000000000000fc .L0 
C:\Users\stapi\AppData\Local\Temp\cc4gZHfW.s:1100   .text.tlsv1_set_dhparams_der:0000000000000108 .L0 
C:\Users\stapi\AppData\Local\Temp\cc4gZHfW.s:1102   .text.tlsv1_set_dhparams_der:000000000000010a .L0 
C:\Users\stapi\AppData\Local\Temp\cc4gZHfW.s:1103   .text.tlsv1_set_dhparams_der:000000000000010a .L0 
C:\Users\stapi\AppData\Local\Temp\cc4gZHfW.s:1105   .text.tlsv1_set_dhparams_der:000000000000010c .L0 
C:\Users\stapi\AppData\Local\Temp\cc4gZHfW.s:1106   .text.tlsv1_set_dhparams_der:000000000000010c .L0 
C:\Users\stapi\AppData\Local\Temp\cc4gZHfW.s:1108   .text.tlsv1_set_dhparams_der:000000000000010e .L0 
C:\Users\stapi\AppData\Local\Temp\cc4gZHfW.s:1110   .text.tlsv1_set_dhparams_der:0000000000000110 .L0 
C:\Users\stapi\AppData\Local\Temp\cc4gZHfW.s:1112   .text.tlsv1_set_dhparams_der:0000000000000112 .L0 
C:\Users\stapi\AppData\Local\Temp\cc4gZHfW.s:1113   .text.tlsv1_set_dhparams_der:0000000000000112 .L0 
C:\Users\stapi\AppData\Local\Temp\cc4gZHfW.s:1116   .text.tlsv1_set_dhparams_der:0000000000000114 .L0 
C:\Users\stapi\AppData\Local\Temp\cc4gZHfW.s:1119   .text.tlsv1_set_dhparams_der:000000000000011e .L0 
C:\Users\stapi\AppData\Local\Temp\cc4gZHfW.s:1147   .text.tlsv1_set_dhparams_blob:0000000000000000 tlsv1_set_dhparams_blob
C:\Users\stapi\AppData\Local\Temp\cc4gZHfW.s:1150   .text.tlsv1_set_dhparams_blob:0000000000000000 .L0 
C:\Users\stapi\AppData\Local\Temp\cc4gZHfW.s:1152   .text.tlsv1_set_dhparams_blob:0000000000000000 .L0 
C:\Users\stapi\AppData\Local\Temp\cc4gZHfW.s:1153   .text.tlsv1_set_dhparams_blob:0000000000000008 .L0 
C:\Users\stapi\AppData\Local\Temp\cc4gZHfW.s:1154   .text.tlsv1_set_dhparams_blob:0000000000000008 .L0 
C:\Users\stapi\AppData\Local\Temp\cc4gZHfW.s:1155   .text.tlsv1_set_dhparams_blob:0000000000000008 .L0 
C:\Users\stapi\AppData\Local\Temp\cc4gZHfW.s:1156   .text.tlsv1_set_dhparams_blob:0000000000000008 .L0 
C:\Users\stapi\AppData\Local\Temp\cc4gZHfW.s:1157   .text.tlsv1_set_dhparams_blob:0000000000000008 .L0 
C:\Users\stapi\AppData\Local\Temp\cc4gZHfW.s:1158   .text.tlsv1_set_dhparams_blob:0000000000000008 .L0 
C:\Users\stapi\AppData\Local\Temp\cc4gZHfW.s:1159   .text.tlsv1_set_dhparams_blob:0000000000000008 .L0 
C:\Users\stapi\AppData\Local\Temp\cc4gZHfW.s:1161   .text.tlsv1_set_dhparams_blob:0000000000000008 .L0 
C:\Users\stapi\AppData\Local\Temp\cc4gZHfW.s:1162   .text.tlsv1_set_dhparams_blob:0000000000000008 .L0 
C:\Users\stapi\AppData\Local\Temp\cc4gZHfW.s:1163   .text.tlsv1_set_dhparams_blob:0000000000000008 .L0 
C:\Users\stapi\AppData\Local\Temp\cc4gZHfW.s:1164   .text.tlsv1_set_dhparams_blob:0000000000000008 .L0 
C:\Users\stapi\AppData\Local\Temp\cc4gZHfW.s:1165   .text.tlsv1_set_dhparams_blob:0000000000000008 .L0 
C:\Users\stapi\AppData\Local\Temp\cc4gZHfW.s:1167   .text.tlsv1_set_dhparams_blob:000000000000000c .L0 
C:\Users\stapi\AppData\Local\Temp\cc4gZHfW.s:1168   .text.tlsv1_set_dhparams_blob:000000000000000e .L0 
C:\Users\stapi\AppData\Local\Temp\cc4gZHfW.s:1170   .text.tlsv1_set_dhparams_blob:000000000000000e .L0 
C:\Users\stapi\AppData\Local\Temp\cc4gZHfW.s:1172   .text.tlsv1_set_dhparams_blob:0000000000000010 .L0 
C:\Users\stapi\AppData\Local\Temp\cc4gZHfW.s:1175   .text.tlsv1_set_dhparams_blob:0000000000000014 .L0 
C:\Users\stapi\AppData\Local\Temp\cc4gZHfW.s:1178   .text.tlsv1_set_dhparams_blob:0000000000000018 .L0 
C:\Users\stapi\AppData\Local\Temp\cc4gZHfW.s:1181   .text.tlsv1_set_dhparams_blob:0000000000000020 .L0 
C:\Users\stapi\AppData\Local\Temp\cc4gZHfW.s:1182   .text.tlsv1_set_dhparams_blob:0000000000000020 .L0 
C:\Users\stapi\AppData\Local\Temp\cc4gZHfW.s:1184   .text.tlsv1_set_dhparams_blob:0000000000000022 .L0 
C:\Users\stapi\AppData\Local\Temp\cc4gZHfW.s:1191   .text.tlsv1_set_dhparams_blob:0000000000000034 .L0 
C:\Users\stapi\AppData\Local\Temp\cc4gZHfW.s:1192   .text.tlsv1_set_dhparams_blob:0000000000000034 .L0 
C:\Users\stapi\AppData\Local\Temp\cc4gZHfW.s:1199   .text.tlsv1_set_dhparams_blob:0000000000000042 .L0 
C:\Users\stapi\AppData\Local\Temp\cc4gZHfW.s:1200   .text.tlsv1_set_dhparams_blob:0000000000000044 .L0 
C:\Users\stapi\AppData\Local\Temp\cc4gZHfW.s:1201   .text.tlsv1_set_dhparams_blob:0000000000000044 .L0 
C:\Users\stapi\AppData\Local\Temp\cc4gZHfW.s:1203   .text.tlsv1_set_dhparams_blob:000000000000004c .L0 
C:\Users\stapi\AppData\Local\Temp\cc4gZHfW.s:1204   .text.tlsv1_set_dhparams_blob:000000000000004c .L0 
C:\Users\stapi\AppData\Local\Temp\cc4gZHfW.s:1205   .text.tlsv1_set_dhparams_blob:000000000000004c .L0 
C:\Users\stapi\AppData\Local\Temp\cc4gZHfW.s:1206   .text.tlsv1_set_dhparams_blob:000000000000004c .L0 
C:\Users\stapi\AppData\Local\Temp\cc4gZHfW.s:1207   .text.tlsv1_set_dhparams_blob:000000000000004c .L0 
C:\Users\stapi\AppData\Local\Temp\cc4gZHfW.s:1208   .text.tlsv1_set_dhparams_blob:000000000000004c .L0 
C:\Users\stapi\AppData\Local\Temp\cc4gZHfW.s:1209   .text.tlsv1_set_dhparams_blob:000000000000004c .L0 
C:\Users\stapi\AppData\Local\Temp\cc4gZHfW.s:1212   .text.tlsv1_set_dhparams_blob:000000000000004c .L0 
C:\Users\stapi\AppData\Local\Temp\cc4gZHfW.s:1214   .text.tlsv1_set_dhparams_blob:000000000000004c .L0 
C:\Users\stapi\AppData\Local\Temp\cc4gZHfW.s:1218   .text.tlsv1_set_dhparams_blob:0000000000000056 .L0 
C:\Users\stapi\AppData\Local\Temp\cc4gZHfW.s:1223   .text.tlsv1_set_dhparams_blob:0000000000000060 .L0 
C:\Users\stapi\AppData\Local\Temp\cc4gZHfW.s:1224   .text.tlsv1_set_dhparams_blob:0000000000000060 .L0 
C:\Users\stapi\AppData\Local\Temp\cc4gZHfW.s:1228   .text.tlsv1_set_dhparams_blob:000000000000006c .L0 
C:\Users\stapi\AppData\Local\Temp\cc4gZHfW.s:1231   .text.tlsv1_set_dhparams_blob:000000000000006e .L0 
C:\Users\stapi\AppData\Local\Temp\cc4gZHfW.s:1232   .text.tlsv1_set_dhparams_blob:000000000000006e .L0 
C:\Users\stapi\AppData\Local\Temp\cc4gZHfW.s:1234   .text.tlsv1_set_dhparams_blob:0000000000000072 .L0 
C:\Users\stapi\AppData\Local\Temp\cc4gZHfW.s:1242   .text.tlsv1_set_dhparams_blob:0000000000000086 .L0 
C:\Users\stapi\AppData\Local\Temp\cc4gZHfW.s:1243   .text.tlsv1_set_dhparams_blob:0000000000000086 .L0 
C:\Users\stapi\AppData\Local\Temp\cc4gZHfW.s:1245   .text.tlsv1_set_dhparams_blob:0000000000000088 .L0 
C:\Users\stapi\AppData\Local\Temp\cc4gZHfW.s:1254   .text.tlsv1_set_dhparams_blob:000000000000009e .L0 
C:\Users\stapi\AppData\Local\Temp\cc4gZHfW.s:1255   .text.tlsv1_set_dhparams_blob:000000000000009e .L0 
C:\Users\stapi\AppData\Local\Temp\cc4gZHfW.s:1256   .text.tlsv1_set_dhparams_blob:000000000000009e .L0 
C:\Users\stapi\AppData\Local\Temp\cc4gZHfW.s:1261   .text.tlsv1_set_dhparams_blob:00000000000000a2 .L0 
C:\Users\stapi\AppData\Local\Temp\cc4gZHfW.s:1262   .text.tlsv1_set_dhparams_blob:00000000000000a2 .L0 
C:\Users\stapi\AppData\Local\Temp\cc4gZHfW.s:1271   .text.tlsv1_set_dhparams_blob:00000000000000b4 .L0 
C:\Users\stapi\AppData\Local\Temp\cc4gZHfW.s:1272   .text.tlsv1_set_dhparams_blob:00000000000000b4 .L0 
C:\Users\stapi\AppData\Local\Temp\cc4gZHfW.s:1274   .text.tlsv1_set_dhparams_blob:00000000000000b6 .L0 
C:\Users\stapi\AppData\Local\Temp\cc4gZHfW.s:1280   .text.tlsv1_set_dhparams_blob:00000000000000c8 .L0 
C:\Users\stapi\AppData\Local\Temp\cc4gZHfW.s:1283   .text.tlsv1_set_dhparams_blob:00000000000000ca .L0 
C:\Users\stapi\AppData\Local\Temp\cc4gZHfW.s:1284   .text.tlsv1_set_dhparams_blob:00000000000000ca .L0 
C:\Users\stapi\AppData\Local\Temp\cc4gZHfW.s:1290   .text.tlsv1_set_dhparams_blob:00000000000000d8 .L0 
C:\Users\stapi\AppData\Local\Temp\cc4gZHfW.s:1292   .text.tlsv1_set_dhparams_blob:00000000000000dc .L0 
C:\Users\stapi\AppData\Local\Temp\cc4gZHfW.s:1298   .text.tlsv1_set_dhparams_blob:00000000000000ee .L0 
C:\Users\stapi\AppData\Local\Temp\cc4gZHfW.s:1304   .text.tlsv1_set_dhparams_blob:00000000000000fa .L0 
C:\Users\stapi\AppData\Local\Temp\cc4gZHfW.s:1308   .text.tlsv1_set_dhparams_blob:0000000000000104 .L0 
C:\Users\stapi\AppData\Local\Temp\cc4gZHfW.s:1309   .text.tlsv1_set_dhparams_blob:0000000000000104 .L0 
C:\Users\stapi\AppData\Local\Temp\cc4gZHfW.s:1311   .text.tlsv1_set_dhparams_blob:0000000000000108 .L0 
C:\Users\stapi\AppData\Local\Temp\cc4gZHfW.s:1318   .text.tlsv1_cred_alloc:0000000000000000 tlsv1_cred_alloc
C:\Users\stapi\AppData\Local\Temp\cc4gZHfW.s:1321   .text.tlsv1_cred_alloc:0000000000000000 .L0 
C:\Users\stapi\AppData\Local\Temp\cc4gZHfW.s:1322   .text.tlsv1_cred_alloc:0000000000000000 .L0 
C:\Users\stapi\AppData\Local\Temp\cc4gZHfW.s:1323   .text.tlsv1_cred_alloc:0000000000000000 .L0 
C:\Users\stapi\AppData\Local\Temp\cc4gZHfW.s:1324   .text.tlsv1_cred_alloc:0000000000000000 .L0 
C:\Users\stapi\AppData\Local\Temp\cc4gZHfW.s:1325   .text.tlsv1_cred_alloc:0000000000000000 .L0 
C:\Users\stapi\AppData\Local\Temp\cc4gZHfW.s:1329   .text.tlsv1_cred_alloc:000000000000000c .L0 
C:\Users\stapi\AppData\Local\Temp\cc4gZHfW.s:1336   .text.tlsv1_cred_free:0000000000000000 tlsv1_cred_free
C:\Users\stapi\AppData\Local\Temp\cc4gZHfW.s:1338   .text.tlsv1_cred_free:0000000000000000 .L0 
C:\Users\stapi\AppData\Local\Temp\cc4gZHfW.s:1339   .text.tlsv1_cred_free:0000000000000000 .L0 
C:\Users\stapi\AppData\Local\Temp\cc4gZHfW.s:1341   .text.tlsv1_cred_free:0000000000000000 .L0 
C:\Users\stapi\AppData\Local\Temp\cc4gZHfW.s:1342   .text.tlsv1_cred_free:0000000000000000 .L0 
C:\Users\stapi\AppData\Local\Temp\cc4gZHfW.s:1343   .text.tlsv1_cred_free:0000000000000000 .L0 
C:\Users\stapi\AppData\Local\Temp\cc4gZHfW.s:1345   .text.tlsv1_cred_free:0000000000000002 .L0 
C:\Users\stapi\AppData\Local\Temp\cc4gZHfW.s:1346   .text.tlsv1_cred_free:000000000000000a .L0 
C:\Users\stapi\AppData\Local\Temp\cc4gZHfW.s:1347   .text.tlsv1_cred_free:000000000000000a .L0 
C:\Users\stapi\AppData\Local\Temp\cc4gZHfW.s:1348   .text.tlsv1_cred_free:000000000000000a .L0 
C:\Users\stapi\AppData\Local\Temp\cc4gZHfW.s:1351   .text.tlsv1_cred_free:000000000000000c .L0 
C:\Users\stapi\AppData\Local\Temp\cc4gZHfW.s:1356   .text.tlsv1_cred_free:0000000000000016 .L0 
C:\Users\stapi\AppData\Local\Temp\cc4gZHfW.s:1360   .text.tlsv1_cred_free:0000000000000020 .L0 
C:\Users\stapi\AppData\Local\Temp\cc4gZHfW.s:1364   .text.tlsv1_cred_free:000000000000002a .L0 
C:\Users\stapi\AppData\Local\Temp\cc4gZHfW.s:1368   .text.tlsv1_cred_free:0000000000000034 .L0 
C:\Users\stapi\AppData\Local\Temp\cc4gZHfW.s:1372   .text.tlsv1_cred_free:000000000000003e .L0 
C:\Users\stapi\AppData\Local\Temp\cc4gZHfW.s:1376   .text.tlsv1_cred_free:0000000000000048 .L0 
C:\Users\stapi\AppData\Local\Temp\cc4gZHfW.s:1380   .text.tlsv1_cred_free:0000000000000052 .L0 
C:\Users\stapi\AppData\Local\Temp\cc4gZHfW.s:1384   .text.tlsv1_cred_free:000000000000005c .L0 
C:\Users\stapi\AppData\Local\Temp\cc4gZHfW.s:1385   .text.tlsv1_cred_free:0000000000000064 .L0 
C:\Users\stapi\AppData\Local\Temp\cc4gZHfW.s:1386   .text.tlsv1_cred_free:0000000000000064 .L0 
C:\Users\stapi\AppData\Local\Temp\cc4gZHfW.s:1387   .text.tlsv1_cred_free:0000000000000064 .L0 
C:\Users\stapi\AppData\Local\Temp\cc4gZHfW.s:1391   .text.tlsv1_cred_free:0000000000000066 .L0 
C:\Users\stapi\AppData\Local\Temp\cc4gZHfW.s:1426   .text.tlsv1_set_ca_cert:0000000000000000 tlsv1_set_ca_cert
C:\Users\stapi\AppData\Local\Temp\cc4gZHfW.s:1429   .text.tlsv1_set_ca_cert:0000000000000000 .L0 
C:\Users\stapi\AppData\Local\Temp\cc4gZHfW.s:1431   .text.tlsv1_set_ca_cert:0000000000000000 .L0 
C:\Users\stapi\AppData\Local\Temp\cc4gZHfW.s:1432   .text.tlsv1_set_ca_cert:0000000000000008 .L0 
C:\Users\stapi\AppData\Local\Temp\cc4gZHfW.s:1433   .text.tlsv1_set_ca_cert:0000000000000008 .L0 
C:\Users\stapi\AppData\Local\Temp\cc4gZHfW.s:1434   .text.tlsv1_set_ca_cert:0000000000000008 .L0 
C:\Users\stapi\AppData\Local\Temp\cc4gZHfW.s:1435   .text.tlsv1_set_ca_cert:0000000000000008 .L0 
C:\Users\stapi\AppData\Local\Temp\cc4gZHfW.s:1436   .text.tlsv1_set_ca_cert:0000000000000008 .L0 
C:\Users\stapi\AppData\Local\Temp\cc4gZHfW.s:1437   .text.tlsv1_set_ca_cert:0000000000000008 .L0 
C:\Users\stapi\AppData\Local\Temp\cc4gZHfW.s:1438   .text.tlsv1_set_ca_cert:0000000000000008 .L0 
C:\Users\stapi\AppData\Local\Temp\cc4gZHfW.s:1439   .text.tlsv1_set_ca_cert:0000000000000008 .L0 
C:\Users\stapi\AppData\Local\Temp\cc4gZHfW.s:1441   .text.tlsv1_set_ca_cert:0000000000000008 .L0 
C:\Users\stapi\AppData\Local\Temp\cc4gZHfW.s:1442   .text.tlsv1_set_ca_cert:0000000000000008 .L0 
C:\Users\stapi\AppData\Local\Temp\cc4gZHfW.s:1448   .text.tlsv1_set_ca_cert:0000000000000012 .L0 
C:\Users\stapi\AppData\Local\Temp\cc4gZHfW.s:1450   .text.tlsv1_set_ca_cert:0000000000000014 .L0 
C:\Users\stapi\AppData\Local\Temp\cc4gZHfW.s:1460   .text.tlsv1_set_ca_cert:0000000000000028 .L0 
C:\Users\stapi\AppData\Local\Temp\cc4gZHfW.s:1464   .text.tlsv1_set_ca_cert:000000000000002a .L0 
C:\Users\stapi\AppData\Local\Temp\cc4gZHfW.s:1465   .text.tlsv1_set_ca_cert:000000000000002a .L0 
C:\Users\stapi\AppData\Local\Temp\cc4gZHfW.s:1466   .text.tlsv1_set_ca_cert:000000000000002a .L0 
C:\Users\stapi\AppData\Local\Temp\cc4gZHfW.s:1475   .text.tlsv1_set_ca_cert:0000000000000042 .L0 
C:\Users\stapi\AppData\Local\Temp\cc4gZHfW.s:1477   .text.tlsv1_set_ca_cert:0000000000000044 .L0 
C:\Users\stapi\AppData\Local\Temp\cc4gZHfW.s:1483   .text.tlsv1_set_ca_cert:000000000000004e .L0 
C:\Users\stapi\AppData\Local\Temp\cc4gZHfW.s:1488   .text.tlsv1_set_ca_cert:0000000000000058 .L0 
C:\Users\stapi\AppData\Local\Temp\cc4gZHfW.s:1489   .text.tlsv1_set_ca_cert:0000000000000058 .L0 
C:\Users\stapi\AppData\Local\Temp\cc4gZHfW.s:1493   .text.tlsv1_set_ca_cert:000000000000005a .L0 
C:\Users\stapi\AppData\Local\Temp\cc4gZHfW.s:1495   .text.tlsv1_set_ca_cert:0000000000000064 .L0 
C:\Users\stapi\AppData\Local\Temp\cc4gZHfW.s:1496   .text.tlsv1_set_ca_cert:0000000000000064 .L0 
C:\Users\stapi\AppData\Local\Temp\cc4gZHfW.s:1497   .text.tlsv1_set_ca_cert:0000000000000064 .L0 
C:\Users\stapi\AppData\Local\Temp\cc4gZHfW.s:1498   .text.tlsv1_set_ca_cert:0000000000000064 .L0 
C:\Users\stapi\AppData\Local\Temp\cc4gZHfW.s:1499   .text.tlsv1_set_ca_cert:0000000000000064 .L0 
C:\Users\stapi\AppData\Local\Temp\cc4gZHfW.s:1500   .text.tlsv1_set_ca_cert:0000000000000064 .L0 
C:\Users\stapi\AppData\Local\Temp\cc4gZHfW.s:1501   .text.tlsv1_set_ca_cert:0000000000000064 .L0 
C:\Users\stapi\AppData\Local\Temp\cc4gZHfW.s:1502   .text.tlsv1_set_ca_cert:0000000000000064 .L0 
C:\Users\stapi\AppData\Local\Temp\cc4gZHfW.s:1503   .text.tlsv1_set_ca_cert:0000000000000064 .L0 
C:\Users\stapi\AppData\Local\Temp\cc4gZHfW.s:1506   .text.tlsv1_set_ca_cert:0000000000000064 .L0 
C:\Users\stapi\AppData\Local\Temp\cc4gZHfW.s:1509   .text.tlsv1_set_ca_cert:0000000000000064 .L0 
C:\Users\stapi\AppData\Local\Temp\cc4gZHfW.s:1510   .text.tlsv1_set_ca_cert:0000000000000064 .L0 
C:\Users\stapi\AppData\Local\Temp\cc4gZHfW.s:1513   .text.tlsv1_set_ca_cert:0000000000000068 .L0 
C:\Users\stapi\AppData\Local\Temp\cc4gZHfW.s:1514   .text.tlsv1_set_ca_cert:0000000000000068 .L0 
C:\Users\stapi\AppData\Local\Temp\cc4gZHfW.s:1518   .text.tlsv1_set_ca_cert:0000000000000072 .L0 
C:\Users\stapi\AppData\Local\Temp\cc4gZHfW.s:1521   .text.tlsv1_set_ca_cert:000000000000007a .L0 
C:\Users\stapi\AppData\Local\Temp\cc4gZHfW.s:1527   .text.tlsv1_set_ca_cert:0000000000000086 .L0 
C:\Users\stapi\AppData\Local\Temp\cc4gZHfW.s:1528   .text.tlsv1_set_ca_cert:0000000000000086 .L0 
C:\Users\stapi\AppData\Local\Temp\cc4gZHfW.s:1534   .text.tlsv1_set_ca_cert:0000000000000098 .L0 
C:\Users\stapi\AppData\Local\Temp\cc4gZHfW.s:1536   .text.tlsv1_set_ca_cert:000000000000009c .L0 
C:\Users\stapi\AppData\Local\Temp\cc4gZHfW.s:1542   .text.tlsv1_set_ca_cert:00000000000000a8 .L0 
C:\Users\stapi\AppData\Local\Temp\cc4gZHfW.s:1543   .text.tlsv1_set_ca_cert:00000000000000a8 .L0 
C:\Users\stapi\AppData\Local\Temp\cc4gZHfW.s:1544   .text.tlsv1_set_ca_cert:00000000000000a8 .L0 
C:\Users\stapi\AppData\Local\Temp\cc4gZHfW.s:1546   .text.tlsv1_set_ca_cert:00000000000000ac .L0 
C:\Users\stapi\AppData\Local\Temp\cc4gZHfW.s:1549   .text.tlsv1_set_ca_cert:00000000000000b4 .L0 
C:\Users\stapi\AppData\Local\Temp\cc4gZHfW.s:1556   .text.tlsv1_set_ca_cert:00000000000000be .L0 
C:\Users\stapi\AppData\Local\Temp\cc4gZHfW.s:1557   .text.tlsv1_set_ca_cert:00000000000000be .L0 
C:\Users\stapi\AppData\Local\Temp\cc4gZHfW.s:1561   .text.tlsv1_set_ca_cert:00000000000000c8 .L0 
C:\Users\stapi\AppData\Local\Temp\cc4gZHfW.s:1562   .text.tlsv1_set_ca_cert:00000000000000c8 .L0 
C:\Users\stapi\AppData\Local\Temp\cc4gZHfW.s:1566   .text.tlsv1_set_ca_cert:00000000000000ca .L0 
C:\Users\stapi\AppData\Local\Temp\cc4gZHfW.s:1567   .text.tlsv1_set_ca_cert:00000000000000ca .L0 
C:\Users\stapi\AppData\Local\Temp\cc4gZHfW.s:1568   .text.tlsv1_set_ca_cert:00000000000000ca .L0 
C:\Users\stapi\AppData\Local\Temp\cc4gZHfW.s:1570   .text.tlsv1_set_ca_cert:00000000000000ce .L0 
C:\Users\stapi\AppData\Local\Temp\cc4gZHfW.s:1574   .text.tlsv1_set_ca_cert:00000000000000d0 .L0 
C:\Users\stapi\AppData\Local\Temp\cc4gZHfW.s:1577   .text.tlsv1_set_ca_cert:00000000000000d2 .L0 
C:\Users\stapi\AppData\Local\Temp\cc4gZHfW.s:1580   .text.tlsv1_set_ca_cert:00000000000000da .L0 
C:\Users\stapi\AppData\Local\Temp\cc4gZHfW.s:1583   .text.tlsv1_set_ca_cert:00000000000000de .L0 
C:\Users\stapi\AppData\Local\Temp\cc4gZHfW.s:1587   .text.tlsv1_set_ca_cert:00000000000000e6 .L0 
C:\Users\stapi\AppData\Local\Temp\cc4gZHfW.s:1588   .text.tlsv1_set_ca_cert:00000000000000e6 .L0 
C:\Users\stapi\AppData\Local\Temp\cc4gZHfW.s:1593   .text.tlsv1_set_ca_cert:00000000000000f2 .L0 
C:\Users\stapi\AppData\Local\Temp\cc4gZHfW.s:1595   .text.tlsv1_set_ca_cert:00000000000000f4 .L0 
C:\Users\stapi\AppData\Local\Temp\cc4gZHfW.s:1597   .text.tlsv1_set_ca_cert:00000000000000f8 .L0 
C:\Users\stapi\AppData\Local\Temp\cc4gZHfW.s:1598   .text.tlsv1_set_ca_cert:00000000000000f8 .L0 
C:\Users\stapi\AppData\Local\Temp\cc4gZHfW.s:1600   .text.tlsv1_set_ca_cert:00000000000000fa .L0 
C:\Users\stapi\AppData\Local\Temp\cc4gZHfW.s:1602   .text.tlsv1_set_ca_cert:00000000000000fe .L0 
C:\Users\stapi\AppData\Local\Temp\cc4gZHfW.s:1608   .text.tlsv1_set_ca_cert:0000000000000110 .L0 
C:\Users\stapi\AppData\Local\Temp\cc4gZHfW.s:1611   .text.tlsv1_set_ca_cert:0000000000000112 .L0 
C:\Users\stapi\AppData\Local\Temp\cc4gZHfW.s:1612   .text.tlsv1_set_ca_cert:0000000000000112 .L0 
C:\Users\stapi\AppData\Local\Temp\cc4gZHfW.s:1620   .text.tlsv1_set_ca_cert:0000000000000128 .L0 
C:\Users\stapi\AppData\Local\Temp\cc4gZHfW.s:1622   .text.tlsv1_set_ca_cert:000000000000012a .L0 
C:\Users\stapi\AppData\Local\Temp\cc4gZHfW.s:1623   .text.tlsv1_set_ca_cert:000000000000012a .L0 
C:\Users\stapi\AppData\Local\Temp\cc4gZHfW.s:1624   .text.tlsv1_set_ca_cert:000000000000012a .L0 
C:\Users\stapi\AppData\Local\Temp\cc4gZHfW.s:1626   .text.tlsv1_set_ca_cert:000000000000012e .L0 
C:\Users\stapi\AppData\Local\Temp\cc4gZHfW.s:1629   .text.tlsv1_set_ca_cert:0000000000000136 .L0 
C:\Users\stapi\AppData\Local\Temp\cc4gZHfW.s:1633   .text.tlsv1_set_ca_cert:0000000000000140 .L0 
C:\Users\stapi\AppData\Local\Temp\cc4gZHfW.s:1634   .text.tlsv1_set_ca_cert:0000000000000142 .L0 
C:\Users\stapi\AppData\Local\Temp\cc4gZHfW.s:1641   .text.tlsv1_set_cert:0000000000000000 tlsv1_set_cert
C:\Users\stapi\AppData\Local\Temp\cc4gZHfW.s:1644   .text.tlsv1_set_cert:0000000000000000 .L0 
C:\Users\stapi\AppData\Local\Temp\cc4gZHfW.s:1646   .text.tlsv1_set_cert:0000000000000000 .L0 
C:\Users\stapi\AppData\Local\Temp\cc4gZHfW.s:1647   .text.tlsv1_set_cert:0000000000000000 .L0 
C:\Users\stapi\AppData\Local\Temp\cc4gZHfW.s:1648   .text.tlsv1_set_cert:0000000000000000 .L0 
C:\Users\stapi\AppData\Local\Temp\cc4gZHfW.s:1652   .text.tlsv1_set_cert:000000000000000a .L0 
C:\Users\stapi\AppData\Local\Temp\cc4gZHfW.s:1659   .text.tlsv1_set_private_key:0000000000000000 tlsv1_set_private_key
C:\Users\stapi\AppData\Local\Temp\cc4gZHfW.s:1662   .text.tlsv1_set_private_key:0000000000000000 .L0 
C:\Users\stapi\AppData\Local\Temp\cc4gZHfW.s:1664   .text.tlsv1_set_private_key:0000000000000000 .L0 
C:\Users\stapi\AppData\Local\Temp\cc4gZHfW.s:1665   .text.tlsv1_set_private_key:0000000000000008 .L0 
C:\Users\stapi\AppData\Local\Temp\cc4gZHfW.s:1666   .text.tlsv1_set_private_key:0000000000000008 .L0 
C:\Users\stapi\AppData\Local\Temp\cc4gZHfW.s:1667   .text.tlsv1_set_private_key:0000000000000008 .L0 
C:\Users\stapi\AppData\Local\Temp\cc4gZHfW.s:1668   .text.tlsv1_set_private_key:0000000000000008 .L0 
C:\Users\stapi\AppData\Local\Temp\cc4gZHfW.s:1669   .text.tlsv1_set_private_key:0000000000000008 .L0 
C:\Users\stapi\AppData\Local\Temp\cc4gZHfW.s:1670   .text.tlsv1_set_private_key:0000000000000008 .L0 
C:\Users\stapi\AppData\Local\Temp\cc4gZHfW.s:1671   .text.tlsv1_set_private_key:0000000000000008 .L0 
C:\Users\stapi\AppData\Local\Temp\cc4gZHfW.s:1673   .text.tlsv1_set_private_key:0000000000000008 .L0 
C:\Users\stapi\AppData\Local\Temp\cc4gZHfW.s:1674   .text.tlsv1_set_private_key:0000000000000008 .L0 
C:\Users\stapi\AppData\Local\Temp\cc4gZHfW.s:1676   .text.tlsv1_set_private_key:000000000000000a .L0 
C:\Users\stapi\AppData\Local\Temp\cc4gZHfW.s:1679   .text.tlsv1_set_private_key:000000000000000c .L0 
C:\Users\stapi\AppData\Local\Temp\cc4gZHfW.s:1680   .text.tlsv1_set_private_key:000000000000000e .L0 
C:\Users\stapi\AppData\Local\Temp\cc4gZHfW.s:1682   .text.tlsv1_set_private_key:000000000000000e .L0 
C:\Users\stapi\AppData\Local\Temp\cc4gZHfW.s:1687   .text.tlsv1_set_private_key:0000000000000016 .L0 
C:\Users\stapi\AppData\Local\Temp\cc4gZHfW.s:1690   .text.tlsv1_set_private_key:000000000000001e .L0 
C:\Users\stapi\AppData\Local\Temp\cc4gZHfW.s:1691   .text.tlsv1_set_private_key:000000000000001e .L0 
C:\Users\stapi\AppData\Local\Temp\cc4gZHfW.s:1693   .text.tlsv1_set_private_key:0000000000000020 .L0 
C:\Users\stapi\AppData\Local\Temp\cc4gZHfW.s:1695   .text.tlsv1_set_private_key:0000000000000024 .L0 
C:\Users\stapi\AppData\Local\Temp\cc4gZHfW.s:1696   .text.tlsv1_set_private_key:0000000000000024 .L0 
C:\Users\stapi\AppData\Local\Temp\cc4gZHfW.s:1699   .text.tlsv1_set_private_key:0000000000000028 .L0 
C:\Users\stapi\AppData\Local\Temp\cc4gZHfW.s:1700   .text.tlsv1_set_private_key:0000000000000028 .L0 
C:\Users\stapi\AppData\Local\Temp\cc4gZHfW.s:1707   .text.tlsv1_set_private_key:0000000000000036 .L0 
C:\Users\stapi\AppData\Local\Temp\cc4gZHfW.s:1709   .text.tlsv1_set_private_key:000000000000003a .L0 
C:\Users\stapi\AppData\Local\Temp\cc4gZHfW.s:1710   .text.tlsv1_set_private_key:000000000000003a .L0 
C:\Users\stapi\AppData\Local\Temp\cc4gZHfW.s:1713   .text.tlsv1_set_private_key:0000000000000042 .L0 
C:\Users\stapi\AppData\Local\Temp\cc4gZHfW.s:1714   .text.tlsv1_set_private_key:0000000000000042 .L0 
C:\Users\stapi\AppData\Local\Temp\cc4gZHfW.s:1715   .text.tlsv1_set_private_key:0000000000000042 .L0 
C:\Users\stapi\AppData\Local\Temp\cc4gZHfW.s:1716   .text.tlsv1_set_private_key:0000000000000042 .L0 
C:\Users\stapi\AppData\Local\Temp\cc4gZHfW.s:1717   .text.tlsv1_set_private_key:0000000000000042 .L0 
C:\Users\stapi\AppData\Local\Temp\cc4gZHfW.s:1718   .text.tlsv1_set_private_key:0000000000000042 .L0 
C:\Users\stapi\AppData\Local\Temp\cc4gZHfW.s:1719   .text.tlsv1_set_private_key:0000000000000042 .L0 
C:\Users\stapi\AppData\Local\Temp\cc4gZHfW.s:1722   .text.tlsv1_set_private_key:0000000000000042 .L0 
C:\Users\stapi\AppData\Local\Temp\cc4gZHfW.s:1724   .text.tlsv1_set_private_key:0000000000000042 .L0 
C:\Users\stapi\AppData\Local\Temp\cc4gZHfW.s:1725   .text.tlsv1_set_private_key:0000000000000042 .L0 
C:\Users\stapi\AppData\Local\Temp\cc4gZHfW.s:1727   .text.tlsv1_set_private_key:0000000000000044 .L0 
C:\Users\stapi\AppData\Local\Temp\cc4gZHfW.s:1730   .text.tlsv1_set_private_key:0000000000000048 .L0 
C:\Users\stapi\AppData\Local\Temp\cc4gZHfW.s:1731   .text.tlsv1_set_private_key:0000000000000048 .L0 
C:\Users\stapi\AppData\Local\Temp\cc4gZHfW.s:1732   .text.tlsv1_set_private_key:0000000000000048 .L0 
C:\Users\stapi\AppData\Local\Temp\cc4gZHfW.s:1733   .text.tlsv1_set_private_key:0000000000000048 .L0 
C:\Users\stapi\AppData\Local\Temp\cc4gZHfW.s:1734   .text.tlsv1_set_private_key:0000000000000048 .L0 
C:\Users\stapi\AppData\Local\Temp\cc4gZHfW.s:1741   .text.tlsv1_set_private_key:0000000000000056 .L0 
C:\Users\stapi\AppData\Local\Temp\cc4gZHfW.s:1742   .text.tlsv1_set_private_key:0000000000000056 .L0 
C:\Users\stapi\AppData\Local\Temp\cc4gZHfW.s:1744   .text.tlsv1_set_private_key:0000000000000058 .L0 
C:\Users\stapi\AppData\Local\Temp\cc4gZHfW.s:1752   .text.tlsv1_set_private_key:000000000000006c .L0 
C:\Users\stapi\AppData\Local\Temp\cc4gZHfW.s:1753   .text.tlsv1_set_private_key:000000000000006c .L0 
C:\Users\stapi\AppData\Local\Temp\cc4gZHfW.s:1758   .text.tlsv1_set_private_key:0000000000000070 .L0 
C:\Users\stapi\AppData\Local\Temp\cc4gZHfW.s:1759   .text.tlsv1_set_private_key:0000000000000070 .L0 
C:\Users\stapi\AppData\Local\Temp\cc4gZHfW.s:1769   .text.tlsv1_set_private_key:0000000000000082 .L0 
C:\Users\stapi\AppData\Local\Temp\cc4gZHfW.s:1773   .text.tlsv1_set_private_key:000000000000008c .L0 
C:\Users\stapi\AppData\Local\Temp\cc4gZHfW.s:1774   .text.tlsv1_set_private_key:000000000000008c .L0 
C:\Users\stapi\AppData\Local\Temp\cc4gZHfW.s:1776   .text.tlsv1_set_private_key:000000000000008e .L0 
C:\Users\stapi\AppData\Local\Temp\cc4gZHfW.s:1783   .text.tlsv1_set_dhparams:0000000000000000 tlsv1_set_dhparams
C:\Users\stapi\AppData\Local\Temp\cc4gZHfW.s:1786   .text.tlsv1_set_dhparams:0000000000000000 .L0 
C:\Users\stapi\AppData\Local\Temp\cc4gZHfW.s:1788   .text.tlsv1_set_dhparams:0000000000000000 .L0 
C:\Users\stapi\AppData\Local\Temp\cc4gZHfW.s:1789   .text.tlsv1_set_dhparams:0000000000000008 .L0 
C:\Users\stapi\AppData\Local\Temp\cc4gZHfW.s:1790   .text.tlsv1_set_dhparams:0000000000000008 .L0 
C:\Users\stapi\AppData\Local\Temp\cc4gZHfW.s:1791   .text.tlsv1_set_dhparams:0000000000000008 .L0 
C:\Users\stapi\AppData\Local\Temp\cc4gZHfW.s:1792   .text.tlsv1_set_dhparams:0000000000000008 .L0 
C:\Users\stapi\AppData\Local\Temp\cc4gZHfW.s:1793   .text.tlsv1_set_dhparams:0000000000000008 .L0 
C:\Users\stapi\AppData\Local\Temp\cc4gZHfW.s:1794   .text.tlsv1_set_dhparams:0000000000000008 .L0 
C:\Users\stapi\AppData\Local\Temp\cc4gZHfW.s:1796   .text.tlsv1_set_dhparams:0000000000000008 .L0 
C:\Users\stapi\AppData\Local\Temp\cc4gZHfW.s:1797   .text.tlsv1_set_dhparams:0000000000000008 .L0 
C:\Users\stapi\AppData\Local\Temp\cc4gZHfW.s:1799   .text.tlsv1_set_dhparams:000000000000000c .L0 
C:\Users\stapi\AppData\Local\Temp\cc4gZHfW.s:1801   .text.tlsv1_set_dhparams:000000000000000c .L0 
C:\Users\stapi\AppData\Local\Temp\cc4gZHfW.s:1804   .text.tlsv1_set_dhparams:000000000000000e .L0 
C:\Users\stapi\AppData\Local\Temp\cc4gZHfW.s:1808   .text.tlsv1_set_dhparams:0000000000000012 .L0 
C:\Users\stapi\AppData\Local\Temp\cc4gZHfW.s:1809   .text.tlsv1_set_dhparams:0000000000000012 .L0 
C:\Users\stapi\AppData\Local\Temp\cc4gZHfW.s:1814   .text.tlsv1_set_dhparams:000000000000001c .L0 
C:\Users\stapi\AppData\Local\Temp\cc4gZHfW.s:1816   .text.tlsv1_set_dhparams:0000000000000020 .L0 
C:\Users\stapi\AppData\Local\Temp\cc4gZHfW.s:1817   .text.tlsv1_set_dhparams:0000000000000020 .L0 
C:\Users\stapi\AppData\Local\Temp\cc4gZHfW.s:1819   .text.tlsv1_set_dhparams:0000000000000028 .L0 
C:\Users\stapi\AppData\Local\Temp\cc4gZHfW.s:1820   .text.tlsv1_set_dhparams:0000000000000028 .L0 
C:\Users\stapi\AppData\Local\Temp\cc4gZHfW.s:1821   .text.tlsv1_set_dhparams:0000000000000028 .L0 
C:\Users\stapi\AppData\Local\Temp\cc4gZHfW.s:1822   .text.tlsv1_set_dhparams:0000000000000028 .L0 
C:\Users\stapi\AppData\Local\Temp\cc4gZHfW.s:1823   .text.tlsv1_set_dhparams:0000000000000028 .L0 
C:\Users\stapi\AppData\Local\Temp\cc4gZHfW.s:1824   .text.tlsv1_set_dhparams:0000000000000028 .L0 
C:\Users\stapi\AppData\Local\Temp\cc4gZHfW.s:1827   .text.tlsv1_set_dhparams:0000000000000028 .L0 
C:\Users\stapi\AppData\Local\Temp\cc4gZHfW.s:1829   .text.tlsv1_set_dhparams:0000000000000028 .L0 
C:\Users\stapi\AppData\Local\Temp\cc4gZHfW.s:1830   .text.tlsv1_set_dhparams:0000000000000028 .L0 
C:\Users\stapi\AppData\Local\Temp\cc4gZHfW.s:1832   .text.tlsv1_set_dhparams:000000000000002a .L0 
C:\Users\stapi\AppData\Local\Temp\cc4gZHfW.s:1836   .text.tlsv1_set_dhparams:0000000000000030 .L0 
C:\Users\stapi\AppData\Local\Temp\cc4gZHfW.s:1837   .text.tlsv1_set_dhparams:0000000000000030 .L0 
C:\Users\stapi\AppData\Local\Temp\cc4gZHfW.s:1838   .text.tlsv1_set_dhparams:0000000000000030 .L0 
C:\Users\stapi\AppData\Local\Temp\cc4gZHfW.s:1839   .text.tlsv1_set_dhparams:0000000000000030 .L0 
C:\Users\stapi\AppData\Local\Temp\cc4gZHfW.s:1840   .text.tlsv1_set_dhparams:0000000000000030 .L0 
C:\Users\stapi\AppData\Local\Temp\cc4gZHfW.s:1849   .text.tlsv1_set_dhparams:000000000000003e .L0 
C:\Users\stapi\AppData\Local\Temp\cc4gZHfW.s:1850   .text.tlsv1_set_dhparams:000000000000003e .L0 
C:\Users\stapi\AppData\Local\Temp\cc4gZHfW.s:1852   .text.tlsv1_set_dhparams:0000000000000040 .L0 
C:\Users\stapi\AppData\Local\Temp\cc4gZHfW.s:1859   .text.tlsv1_set_dhparams:0000000000000054 .L0 
C:\Users\stapi\AppData\Local\Temp\cc4gZHfW.s:1860   .text.tlsv1_set_dhparams:0000000000000054 .L0 
C:\Users\stapi\AppData\Local\Temp\cc4gZHfW.s:1864   .text.tlsv1_set_dhparams:0000000000000058 .L0 
C:\Users\stapi\AppData\Local\Temp\cc4gZHfW.s:1865   .text.tlsv1_set_dhparams:0000000000000058 .L0 
C:\Users\stapi\AppData\Local\Temp\cc4gZHfW.s:1873   .text.tlsv1_set_dhparams:0000000000000068 .L0 
C:\Users\stapi\AppData\Local\Temp\cc4gZHfW.s:1877   .text.tlsv1_set_dhparams:0000000000000072 .L0 
C:\Users\stapi\AppData\Local\Temp\cc4gZHfW.s:1878   .text.tlsv1_set_dhparams:0000000000000072 .L0 
C:\Users\stapi\AppData\Local\Temp\cc4gZHfW.s:1880   .text.tlsv1_set_dhparams:0000000000000074 .L0 
C:\Users\stapi\AppData\Local\Temp\cc4gZHfW.s:1885   .rodata.__func__.0:0000000000000000 .LANCHOR0
C:\Users\stapi\AppData\Local\Temp\cc4gZHfW.s:1888   .rodata.__func__.0:0000000000000000 __func__.0
C:\Users\stapi\AppData\Local\Temp\cc4gZHfW.s:136    .text.tlsv1_add_cert_der:000000000000009c .L0 
C:\Users\stapi\AppData\Local\Temp\cc4gZHfW.s:214    .text.search_tag:000000000000004c .L0 
C:\Users\stapi\AppData\Local\Temp\cc4gZHfW.s:430    .text.tlsv1_add_cert:000000000000012e .L0 
C:\Users\stapi\AppData\Local\Temp\cc4gZHfW.s:781    .text.tlsv1_set_key:00000000000001ae .L0 
C:\Users\stapi\AppData\Local\Temp\cc4gZHfW.s:890    .text.tlsv1_set_cert_chain:0000000000000074 .L0 
C:\Users\stapi\AppData\Local\Temp\cc4gZHfW.s:1122   .text.tlsv1_set_dhparams_der:000000000000011e .L0 
C:\Users\stapi\AppData\Local\Temp\cc4gZHfW.s:1314   .text.tlsv1_set_dhparams_blob:0000000000000108 .L0 
C:\Users\stapi\AppData\Local\Temp\cc4gZHfW.s:1332   .text.tlsv1_cred_alloc:000000000000000c .L0 
C:\Users\stapi\AppData\Local\Temp\cc4gZHfW.s:1394   .text.tlsv1_cred_free:0000000000000066 .L0 
C:\Users\stapi\AppData\Local\Temp\cc4gZHfW.s:1637   .text.tlsv1_set_ca_cert:0000000000000142 .L0 
C:\Users\stapi\AppData\Local\Temp\cc4gZHfW.s:1655   .text.tlsv1_set_cert:000000000000000a .L0 
C:\Users\stapi\AppData\Local\Temp\cc4gZHfW.s:1779   .text.tlsv1_set_private_key:000000000000008e .L0 
C:\Users\stapi\AppData\Local\Temp\cc4gZHfW.s:1883   .text.tlsv1_set_dhparams:0000000000000074 .L0 
                     .debug_frame:0000000000000000 .L0 
C:\Users\stapi\AppData\Local\Temp\cc4gZHfW.s:11     .rodata.tlsv1_add_cert_der.str1.4:0000000000000000 .LC0
C:\Users\stapi\AppData\Local\Temp\cc4gZHfW.s:14     .rodata.tlsv1_add_cert_der.str1.4:0000000000000028 .LC1
C:\Users\stapi\AppData\Local\Temp\cc4gZHfW.s:73     .text.tlsv1_add_cert_der:0000000000000040 .L2
C:\Users\stapi\AppData\Local\Temp\cc4gZHfW.s:96     .text.tlsv1_add_cert_der:0000000000000062 .L4
C:\Users\stapi\AppData\Local\Temp\cc4gZHfW.s:106    .text.tlsv1_add_cert_der:000000000000006a .L9
C:\Users\stapi\AppData\Local\Temp\cc4gZHfW.s:111    .text.tlsv1_add_cert_der:000000000000006e .L8
C:\Users\stapi\AppData\Local\Temp\cc4gZHfW.s:115    .text.tlsv1_add_cert_der:0000000000000072 .L7
C:\Users\stapi\AppData\Local\Temp\cc4gZHfW.s:81     .text.tlsv1_add_cert_der:0000000000000046 .L5
C:\Users\stapi\AppData\Local\Temp\cc4gZHfW.s:61     .text.tlsv1_add_cert_der:0000000000000036 .L1
C:\Users\stapi\AppData\Local\Temp\cc4gZHfW.s:207    .text.search_tag:0000000000000046 .L25
C:\Users\stapi\AppData\Local\Temp\cc4gZHfW.s:171    .text.search_tag:0000000000000020 .L15
C:\Users\stapi\AppData\Local\Temp\cc4gZHfW.s:185    .text.search_tag:000000000000002a .L18
C:\Users\stapi\AppData\Local\Temp\cc4gZHfW.s:168    .text.search_tag:000000000000001e .L19
C:\Users\stapi\AppData\Local\Temp\cc4gZHfW.s:201    .text.search_tag:0000000000000040 .L16
C:\Users\stapi\AppData\Local\Temp\cc4gZHfW.s:216    .rodata.tlsv1_add_cert.str1.4:0000000000000000 .LC2
C:\Users\stapi\AppData\Local\Temp\cc4gZHfW.s:219    .rodata.tlsv1_add_cert.str1.4:000000000000001c .LC3
C:\Users\stapi\AppData\Local\Temp\cc4gZHfW.s:222    .rodata.tlsv1_add_cert.str1.4:0000000000000054 .LC4
C:\Users\stapi\AppData\Local\Temp\cc4gZHfW.s:225    .rodata.tlsv1_add_cert.str1.4:0000000000000090 .LC5
C:\Users\stapi\AppData\Local\Temp\cc4gZHfW.s:228    .rodata.tlsv1_add_cert.str1.4:00000000000000ac .LC6
C:\Users\stapi\AppData\Local\Temp\cc4gZHfW.s:231    .rodata.tlsv1_add_cert.str1.4:00000000000000e0 .LC7
C:\Users\stapi\AppData\Local\Temp\cc4gZHfW.s:234    .rodata.tlsv1_add_cert.str1.4:0000000000000108 .LC8
C:\Users\stapi\AppData\Local\Temp\cc4gZHfW.s:305    .text.tlsv1_add_cert:000000000000004c .L28
C:\Users\stapi\AppData\Local\Temp\cc4gZHfW.s:359    .text.tlsv1_add_cert:00000000000000a4 .L30
C:\Users\stapi\AppData\Local\Temp\cc4gZHfW.s:290    .text.tlsv1_add_cert:0000000000000042 .L27
C:\Users\stapi\AppData\Local\Temp\cc4gZHfW.s:380    .text.tlsv1_add_cert:00000000000000cc .L31
C:\Users\stapi\AppData\Local\Temp\cc4gZHfW.s:353    .text.tlsv1_add_cert:00000000000000a0 .L36
C:\Users\stapi\AppData\Local\Temp\cc4gZHfW.s:401    .text.tlsv1_add_cert:00000000000000fc .L32
C:\Users\stapi\AppData\Local\Temp\cc4gZHfW.s:324    .text.tlsv1_add_cert:0000000000000066 .L33
C:\Users\stapi\AppData\Local\Temp\cc4gZHfW.s:432    .rodata.tlsv1_set_key.str1.4:0000000000000000 .LC9
C:\Users\stapi\AppData\Local\Temp\cc4gZHfW.s:435    .rodata.tlsv1_set_key.str1.4:0000000000000020 .LC10
C:\Users\stapi\AppData\Local\Temp\cc4gZHfW.s:456    .rodata.tlsv1_set_key.str1.4:0000000000000118 .LC17
C:\Users\stapi\AppData\Local\Temp\cc4gZHfW.s:438    .rodata.tlsv1_set_key.str1.4:000000000000003c .LC11
C:\Users\stapi\AppData\Local\Temp\cc4gZHfW.s:441    .rodata.tlsv1_set_key.str1.4:0000000000000058 .LC12
C:\Users\stapi\AppData\Local\Temp\cc4gZHfW.s:444    .rodata.tlsv1_set_key.str1.4:0000000000000078 .LC13
C:\Users\stapi\AppData\Local\Temp\cc4gZHfW.s:447    .rodata.tlsv1_set_key.str1.4:0000000000000090 .LC14
C:\Users\stapi\AppData\Local\Temp\cc4gZHfW.s:450    .rodata.tlsv1_set_key.str1.4:00000000000000cc .LC15
C:\Users\stapi\AppData\Local\Temp\cc4gZHfW.s:453    .rodata.tlsv1_set_key.str1.4:00000000000000f4 .LC16
C:\Users\stapi\AppData\Local\Temp\cc4gZHfW.s:649    .text.tlsv1_set_key:00000000000000dc .L47
C:\Users\stapi\AppData\Local\Temp\cc4gZHfW.s:655    .text.tlsv1_set_key:00000000000000e0 .L39
C:\Users\stapi\AppData\Local\Temp\cc4gZHfW.s:587    .text.tlsv1_set_key:0000000000000080 .L40
C:\Users\stapi\AppData\Local\Temp\cc4gZHfW.s:704    .text.tlsv1_set_key:0000000000000136 .L44
C:\Users\stapi\AppData\Local\Temp\cc4gZHfW.s:533    .text.tlsv1_set_key:0000000000000056 .L71
C:\Users\stapi\AppData\Local\Temp\cc4gZHfW.s:543    .text.tlsv1_set_key:000000000000005a .L41
C:\Users\stapi\AppData\Local\Temp\cc4gZHfW.s:572    .text.tlsv1_set_key:0000000000000076 .L37
C:\Users\stapi\AppData\Local\Temp\cc4gZHfW.s:615    .text.tlsv1_set_key:00000000000000aa .L43
C:\Users\stapi\AppData\Local\Temp\cc4gZHfW.s:556    .text.tlsv1_set_key:000000000000005e .L46
C:\Users\stapi\AppData\Local\Temp\cc4gZHfW.s:562    .text.tlsv1_set_key:0000000000000062 .L45
C:\Users\stapi\AppData\Local\Temp\cc4gZHfW.s:783    .rodata.tlsv1_set_cert_chain.str1.4:0000000000000000 .LC18
C:\Users\stapi\AppData\Local\Temp\cc4gZHfW.s:830    .text.tlsv1_set_cert_chain:0000000000000028 .L73
C:\Users\stapi\AppData\Local\Temp\cc4gZHfW.s:816    .text.tlsv1_set_cert_chain:000000000000001c .L72
C:\Users\stapi\AppData\Local\Temp\cc4gZHfW.s:868    .text.tlsv1_set_cert_chain:0000000000000058 .L75
C:\Users\stapi\AppData\Local\Temp\cc4gZHfW.s:898    .rodata.tlsv1_set_dhparams_der.str1.4:0000000000000048 .LC21
C:\Users\stapi\AppData\Local\Temp\cc4gZHfW.s:892    .rodata.tlsv1_set_dhparams_der.str1.4:0000000000000000 .LC19
C:\Users\stapi\AppData\Local\Temp\cc4gZHfW.s:895    .rodata.tlsv1_set_dhparams_der.str1.4:0000000000000038 .LC20
C:\Users\stapi\AppData\Local\Temp\cc4gZHfW.s:901    .rodata.tlsv1_set_dhparams_der.str1.4:0000000000000068 .LC22
C:\Users\stapi\AppData\Local\Temp\cc4gZHfW.s:904    .rodata.tlsv1_set_dhparams_der.str1.4:0000000000000078 .LC23
C:\Users\stapi\AppData\Local\Temp\cc4gZHfW.s:976    .text.tlsv1_set_dhparams_der:000000000000004e .L81
C:\Users\stapi\AppData\Local\Temp\cc4gZHfW.s:987    .text.tlsv1_set_dhparams_der:0000000000000062 .L98
C:\Users\stapi\AppData\Local\Temp\cc4gZHfW.s:981    .text.tlsv1_set_dhparams_der:0000000000000056 .L101
C:\Users\stapi\AppData\Local\Temp\cc4gZHfW.s:1013   .text.tlsv1_set_dhparams_der:000000000000008a .L102
C:\Users\stapi\AppData\Local\Temp\cc4gZHfW.s:970    .text.tlsv1_set_dhparams_der:0000000000000044 .L82
C:\Users\stapi\AppData\Local\Temp\cc4gZHfW.s:1027   .text.tlsv1_set_dhparams_der:0000000000000096 .L85
C:\Users\stapi\AppData\Local\Temp\cc4gZHfW.s:1114   .text.tlsv1_set_dhparams_der:0000000000000114 .L87
C:\Users\stapi\AppData\Local\Temp\cc4gZHfW.s:1017   .text.tlsv1_set_dhparams_der:000000000000008c .L80
C:\Users\stapi\AppData\Local\Temp\cc4gZHfW.s:1124   .rodata.tlsv1_set_dhparams_blob.str1.4:0000000000000000 .LC24
C:\Users\stapi\AppData\Local\Temp\cc4gZHfW.s:1127   .rodata.tlsv1_set_dhparams_blob.str1.4:0000000000000020 .LC25
C:\Users\stapi\AppData\Local\Temp\cc4gZHfW.s:1130   .rodata.tlsv1_set_dhparams_blob.str1.4:0000000000000058 .LC26
C:\Users\stapi\AppData\Local\Temp\cc4gZHfW.s:1133   .rodata.tlsv1_set_dhparams_blob.str1.4:0000000000000090 .LC27
C:\Users\stapi\AppData\Local\Temp\cc4gZHfW.s:1136   .rodata.tlsv1_set_dhparams_blob.str1.4:00000000000000ac .LC28
C:\Users\stapi\AppData\Local\Temp\cc4gZHfW.s:1139   .rodata.tlsv1_set_dhparams_blob.str1.4:00000000000000dc .LC29
C:\Users\stapi\AppData\Local\Temp\cc4gZHfW.s:1142   .rodata.tlsv1_set_dhparams_blob.str1.4:0000000000000104 .LC30
C:\Users\stapi\AppData\Local\Temp\cc4gZHfW.s:1211   .text.tlsv1_set_dhparams_blob:000000000000004c .L104
C:\Users\stapi\AppData\Local\Temp\cc4gZHfW.s:1259   .text.tlsv1_set_dhparams_blob:00000000000000a2 .L106
C:\Users\stapi\AppData\Local\Temp\cc4gZHfW.s:1197   .text.tlsv1_set_dhparams_blob:0000000000000042 .L103
C:\Users\stapi\AppData\Local\Temp\cc4gZHfW.s:1281   .text.tlsv1_set_dhparams_blob:00000000000000ca .L107
C:\Users\stapi\AppData\Local\Temp\cc4gZHfW.s:1253   .text.tlsv1_set_dhparams_blob:000000000000009e .L110
C:\Users\stapi\AppData\Local\Temp\cc4gZHfW.s:1302   .text.tlsv1_set_dhparams_blob:00000000000000fa .L108
C:\Users\stapi\AppData\Local\Temp\cc4gZHfW.s:1389   .text.tlsv1_cred_free:0000000000000064 .L119
C:\Users\stapi\AppData\Local\Temp\cc4gZHfW.s:1396   .rodata.tlsv1_set_ca_cert.str1.4:0000000000000000 .LC31
C:\Users\stapi\AppData\Local\Temp\cc4gZHfW.s:1399   .rodata.tlsv1_set_ca_cert.str1.4:0000000000000008 .LC32
C:\Users\stapi\AppData\Local\Temp\cc4gZHfW.s:1402   .rodata.tlsv1_set_ca_cert.str1.4:0000000000000018 .LC33
C:\Users\stapi\AppData\Local\Temp\cc4gZHfW.s:1405   .rodata.tlsv1_set_ca_cert.str1.4:0000000000000044 .LC34
C:\Users\stapi\AppData\Local\Temp\cc4gZHfW.s:1408   .rodata.tlsv1_set_ca_cert.str1.4:000000000000007c .LC35
C:\Users\stapi\AppData\Local\Temp\cc4gZHfW.s:1411   .rodata.tlsv1_set_ca_cert.str1.4:00000000000000b0 .LC36
C:\Users\stapi\AppData\Local\Temp\cc4gZHfW.s:1417   .rodata.tlsv1_set_ca_cert.str1.4:0000000000000108 .LC38
C:\Users\stapi\AppData\Local\Temp\cc4gZHfW.s:1420   .rodata.tlsv1_set_ca_cert.str1.4:0000000000000144 .LC39
C:\Users\stapi\AppData\Local\Temp\cc4gZHfW.s:1414   .rodata.tlsv1_set_ca_cert.str1.4:00000000000000e0 .LC37
C:\Users\stapi\AppData\Local\Temp\cc4gZHfW.s:1564   .text.tlsv1_set_ca_cert:00000000000000ca .L123
C:\Users\stapi\AppData\Local\Temp\cc4gZHfW.s:1609   .text.tlsv1_set_ca_cert:0000000000000112 .L124
C:\Users\stapi\AppData\Local\Temp\cc4gZHfW.s:1505   .text.tlsv1_set_ca_cert:0000000000000064 .L125
C:\Users\stapi\AppData\Local\Temp\cc4gZHfW.s:1525   .text.tlsv1_set_ca_cert:0000000000000086 .L127
C:\Users\stapi\AppData\Local\Temp\cc4gZHfW.s:1481   .text.tlsv1_set_ca_cert:000000000000004e .L137
C:\Users\stapi\AppData\Local\Temp\cc4gZHfW.s:1540   .text.tlsv1_set_ca_cert:00000000000000a8 .L128
C:\Users\stapi\AppData\Local\Temp\cc4gZHfW.s:1490   .text.tlsv1_set_ca_cert:000000000000005a .L122
C:\Users\stapi\AppData\Local\Temp\cc4gZHfW.s:1575   .text.tlsv1_set_ca_cert:00000000000000d2 .L130
C:\Users\stapi\AppData\Local\Temp\cc4gZHfW.s:1486   .text.tlsv1_set_ca_cert:0000000000000058 .L138
C:\Users\stapi\AppData\Local\Temp\cc4gZHfW.s:1572   .text.tlsv1_set_ca_cert:00000000000000d0 .L132
C:\Users\stapi\AppData\Local\Temp\cc4gZHfW.s:1554   .text.tlsv1_set_ca_cert:00000000000000be .L139
C:\Users\stapi\AppData\Local\Temp\cc4gZHfW.s:1721   .text.tlsv1_set_private_key:0000000000000042 .L143
C:\Users\stapi\AppData\Local\Temp\cc4gZHfW.s:1705   .text.tlsv1_set_private_key:0000000000000036 .L142
C:\Users\stapi\AppData\Local\Temp\cc4gZHfW.s:1756   .text.tlsv1_set_private_key:0000000000000070 .L145
C:\Users\stapi\AppData\Local\Temp\cc4gZHfW.s:1826   .text.tlsv1_set_dhparams:0000000000000028 .L151
C:\Users\stapi\AppData\Local\Temp\cc4gZHfW.s:1812   .text.tlsv1_set_dhparams:000000000000001c .L150
C:\Users\stapi\AppData\Local\Temp\cc4gZHfW.s:1862   .text.tlsv1_set_dhparams:0000000000000058 .L153
C:\Users\stapi\AppData\Local\Temp\cc4gZHfW.s:5525   .debug_abbrev:0000000000000000 .Ldebug_abbrev0
C:\Users\stapi\AppData\Local\Temp\cc4gZHfW.s:7993   .debug_str:000000000000041c .LASF178
C:\Users\stapi\AppData\Local\Temp\cc4gZHfW.s:7895   .debug_str:00000000000000fb .LASF179
C:\Users\stapi\AppData\Local\Temp\cc4gZHfW.s:8009   .debug_str:000000000000056a .LASF180
C:\Users\stapi\AppData\Local\Temp\cc4gZHfW.s:7799   .debug_ranges:0000000000000000 .Ldebug_ranges0
C:\Users\stapi\AppData\Local\Temp\cc4gZHfW.s:7855   .debug_line:0000000000000000 .Ldebug_line0
C:\Users\stapi\AppData\Local\Temp\cc4gZHfW.s:7865   .debug_str:0000000000000039 .LASF2
C:\Users\stapi\AppData\Local\Temp\cc4gZHfW.s:7985   .debug_str:00000000000003e8 .LASF0
C:\Users\stapi\AppData\Local\Temp\cc4gZHfW.s:7913   .debug_str:00000000000001ed .LASF1
C:\Users\stapi\AppData\Local\Temp\cc4gZHfW.s:7877   .debug_str:0000000000000082 .LASF3
C:\Users\stapi\AppData\Local\Temp\cc4gZHfW.s:8097   .debug_str:000000000000082f .LASF4
C:\Users\stapi\AppData\Local\Temp\cc4gZHfW.s:8105   .debug_str:000000000000087b .LASF5
C:\Users\stapi\AppData\Local\Temp\cc4gZHfW.s:8175   .debug_str:0000000000000a6e .LASF6
C:\Users\stapi\AppData\Local\Temp\cc4gZHfW.s:7929   .debug_str:000000000000026a .LASF7
C:\Users\stapi\AppData\Local\Temp\cc4gZHfW.s:8001   .debug_str:0000000000000545 .LASF8
C:\Users\stapi\AppData\Local\Temp\cc4gZHfW.s:7971   .debug_str:00000000000003a1 .LASF9
C:\Users\stapi\AppData\Local\Temp\cc4gZHfW.s:7893   .debug_str:00000000000000e4 .LASF10
C:\Users\stapi\AppData\Local\Temp\cc4gZHfW.s:8149   .debug_str:00000000000009be .LASF11
C:\Users\stapi\AppData\Local\Temp\cc4gZHfW.s:8195   .debug_str:0000000000000b14 .LASF12
C:\Users\stapi\AppData\Local\Temp\cc4gZHfW.s:8093   .debug_str:000000000000081c .LASF13
C:\Users\stapi\AppData\Local\Temp\cc4gZHfW.s:7933   .debug_str:000000000000028b .LASF14
C:\Users\stapi\AppData\Local\Temp\cc4gZHfW.s:7861   .debug_str:000000000000001b .LASF15
C:\Users\stapi\AppData\Local\Temp\cc4gZHfW.s:8011   .debug_str:00000000000005fc .LASF16
C:\Users\stapi\AppData\Local\Temp\cc4gZHfW.s:8159   .debug_str:00000000000009f8 .LASF17
C:\Users\stapi\AppData\Local\Temp\cc4gZHfW.s:7899   .debug_str:0000000000000193 .LASF18
C:\Users\stapi\AppData\Local\Temp\cc4gZHfW.s:8163   .debug_str:0000000000000a19 .LASF19
C:\Users\stapi\AppData\Local\Temp\cc4gZHfW.s:7927   .debug_str:000000000000025b .LASF20
C:\Users\stapi\AppData\Local\Temp\cc4gZHfW.s:8125   .debug_str:0000000000000900 .LASF21
C:\Users\stapi\AppData\Local\Temp\cc4gZHfW.s:8155   .debug_str:00000000000009de .LASF22
C:\Users\stapi\AppData\Local\Temp\cc4gZHfW.s:8161   .debug_str:0000000000000a0c .LASF23
C:\Users\stapi\AppData\Local\Temp\cc4gZHfW.s:8145   .debug_str:00000000000009a4 .LASF24
C:\Users\stapi\AppData\Local\Temp\cc4gZHfW.s:8221   .debug_str:0000000000000bc9 .LASF25
C:\Users\stapi\AppData\Local\Temp\cc4gZHfW.s:7959   .debug_str:0000000000000346 .LASF26
C:\Users\stapi\AppData\Local\Temp\cc4gZHfW.s:7863   .debug_str:0000000000000028 .LASF27
C:\Users\stapi\AppData\Local\Temp\cc4gZHfW.s:7871   .debug_str:000000000000005e .LASF28
C:\Users\stapi\AppData\Local\Temp\cc4gZHfW.s:7999   .debug_str:000000000000053b .LASF29
C:\Users\stapi\AppData\Local\Temp\cc4gZHfW.s:8169   .debug_str:0000000000000a3a .LASF30
C:\Users\stapi\AppData\Local\Temp\cc4gZHfW.s:8043   .debug_str:00000000000006cd .LASF31
C:\Users\stapi\AppData\Local\Temp\cc4gZHfW.s:8187   .debug_str:0000000000000ac7 .LASF50
C:\Users\stapi\AppData\Local\Temp\cc4gZHfW.s:8133   .debug_str:000000000000092d .LASF32
C:\Users\stapi\AppData\Local\Temp\cc4gZHfW.s:8103   .debug_str:0000000000000859 .LASF33
C:\Users\stapi\AppData\Local\Temp\cc4gZHfW.s:7941   .debug_str:00000000000002bc .LASF34
C:\Users\stapi\AppData\Local\Temp\cc4gZHfW.s:8027   .debug_str:000000000000067c .LASF35
C:\Users\stapi\AppData\Local\Temp\cc4gZHfW.s:8089   .debug_str:00000000000007f7 .LASF36
C:\Users\stapi\AppData\Local\Temp\cc4gZHfW.s:8075   .debug_str:000000000000079f .LASF37
C:\Users\stapi\AppData\Local\Temp\cc4gZHfW.s:8041   .debug_str:00000000000006c3 .LASF38
C:\Users\stapi\AppData\Local\Temp\cc4gZHfW.s:8217   .debug_str:0000000000000bb1 .LASF39
C:\Users\stapi\AppData\Local\Temp\cc4gZHfW.s:7907   .debug_str:00000000000001be .LASF40
C:\Users\stapi\AppData\Local\Temp\cc4gZHfW.s:7885   .debug_str:00000000000000b1 .LASF41
C:\Users\stapi\AppData\Local\Temp\cc4gZHfW.s:8213   .debug_str:0000000000000b8b .LASF47
C:\Users\stapi\AppData\Local\Temp\cc4gZHfW.s:8061   .debug_str:0000000000000738 .LASF42
C:\Users\stapi\AppData\Local\Temp\cc4gZHfW.s:7939   .debug_str:00000000000002b1 .LASF43
C:\Users\stapi\AppData\Local\Temp\cc4gZHfW.s:8081   .debug_str:00000000000007c5 .LASF44
C:\Users\stapi\AppData\Local\Temp\cc4gZHfW.s:7867   .debug_str:0000000000000040 .LASF45
C:\Users\stapi\AppData\Local\Temp\cc4gZHfW.s:8147   .debug_str:00000000000009b7 .LASF46
C:\Users\stapi\AppData\Local\Temp\cc4gZHfW.s:7981   .debug_str:00000000000003d7 .LASF48
C:\Users\stapi\AppData\Local\Temp\cc4gZHfW.s:7891   .debug_str:00000000000000ca .LASF49
C:\Users\stapi\AppData\Local\Temp\cc4gZHfW.s:8073   .debug_str:000000000000078b .LASF51
C:\Users\stapi\AppData\Local\Temp\cc4gZHfW.s:7997   .debug_str:0000000000000523 .LASF52
C:\Users\stapi\AppData\Local\Temp\cc4gZHfW.s:7869   .debug_str:000000000000004c .LASF53
C:\Users\stapi\AppData\Local\Temp\cc4gZHfW.s:8143   .debug_str:0000000000000992 .LASF54
C:\Users\stapi\AppData\Local\Temp\cc4gZHfW.s:8019   .debug_str:0000000000000634 .LASF55
C:\Users\stapi\AppData\Local\Temp\cc4gZHfW.s:8121   .debug_str:00000000000008e3 .LASF56
C:\Users\stapi\AppData\Local\Temp\cc4gZHfW.s:7875   .debug_str:0000000000000070 .LASF57
C:\Users\stapi\AppData\Local\Temp\cc4gZHfW.s:8029   .debug_str:0000000000000686 .LASF58
C:\Users\stapi\AppData\Local\Temp\cc4gZHfW.s:8057   .debug_str:0000000000000717 .LASF59
C:\Users\stapi\AppData\Local\Temp\cc4gZHfW.s:8201   .debug_str:0000000000000b3d .LASF60
C:\Users\stapi\AppData\Local\Temp\cc4gZHfW.s:7883   .debug_str:00000000000000ac .LASF61
C:\Users\stapi\AppData\Local\Temp\cc4gZHfW.s:7973   .debug_str:00000000000003af .LASF62
C:\Users\stapi\AppData\Local\Temp\cc4gZHfW.s:8049   .debug_str:00000000000006e6 .LASF63
C:\Users\stapi\AppData\Local\Temp\cc4gZHfW.s:7975   .debug_str:00000000000003b5 .LASF64
C:\Users\stapi\AppData\Local\Temp\cc4gZHfW.s:8077   .debug_str:00000000000007ab .LASF65
C:\Users\stapi\AppData\Local\Temp\cc4gZHfW.s:8031   .debug_str:0000000000000697 .LASF66
C:\Users\stapi\AppData\Local\Temp\cc4gZHfW.s:7889   .debug_str:00000000000000c0 .LASF67
C:\Users\stapi\AppData\Local\Temp\cc4gZHfW.s:8165   .debug_str:0000000000000a28 .LASF68
C:\Users\stapi\AppData\Local\Temp\cc4gZHfW.s:8189   .debug_str:0000000000000aed .LASF69
C:\Users\stapi\AppData\Local\Temp\cc4gZHfW.s:8191   .debug_str:0000000000000afa .LASF70
C:\Users\stapi\AppData\Local\Temp\cc4gZHfW.s:8193   .debug_str:0000000000000b07 .LASF71
C:\Users\stapi\AppData\Local\Temp\cc4gZHfW.s:8071   .debug_str:000000000000077a .LASF72
C:\Users\stapi\AppData\Local\Temp\cc4gZHfW.s:7903   .debug_str:00000000000001b4 .LASF73
C:\Users\stapi\AppData\Local\Temp\cc4gZHfW.s:8045   .debug_str:00000000000006d6 .LASF74
C:\Users\stapi\AppData\Local\Temp\cc4gZHfW.s:8025   .debug_str:000000000000066e .LASF75
C:\Users\stapi\AppData\Local\Temp\cc4gZHfW.s:8171   .debug_str:0000000000000a49 .LASF76
C:\Users\stapi\AppData\Local\Temp\cc4gZHfW.s:7967   .debug_str:0000000000000388 .LASF77
C:\Users\stapi\AppData\Local\Temp\cc4gZHfW.s:8183   .debug_str:0000000000000ab6 .LASF78
C:\Users\stapi\AppData\Local\Temp\cc4gZHfW.s:8047   .debug_str:00000000000006de .LASF79
C:\Users\stapi\AppData\Local\Temp\cc4gZHfW.s:7917   .debug_str:000000000000020f .LASF80
C:\Users\stapi\AppData\Local\Temp\cc4gZHfW.s:8219   .debug_str:0000000000000bba .LASF81
C:\Users\stapi\AppData\Local\Temp\cc4gZHfW.s:7859   .debug_str:0000000000000010 .LASF82
C:\Users\stapi\AppData\Local\Temp\cc4gZHfW.s:8131   .debug_str:0000000000000923 .LASF83
C:\Users\stapi\AppData\Local\Temp\cc4gZHfW.s:8135   .debug_str:000000000000094f .LASF84
C:\Users\stapi\AppData\Local\Temp\cc4gZHfW.s:8153   .debug_str:00000000000009d3 .LASF85
C:\Users\stapi\AppData\Local\Temp\cc4gZHfW.s:8085   .debug_str:00000000000007d9 .LASF86
C:\Users\stapi\AppData\Local\Temp\cc4gZHfW.s:8083   .debug_str:00000000000007cb .LASF87
C:\Users\stapi\AppData\Local\Temp\cc4gZHfW.s:8223   .debug_str:0000000000000bde .LASF88
C:\Users\stapi\AppData\Local\Temp\cc4gZHfW.s:8179   .debug_str:0000000000000a98 .LASF89
C:\Users\stapi\AppData\Local\Temp\cc4gZHfW.s:8199   .debug_str:0000000000000b2a .LASF90
C:\Users\stapi\AppData\Local\Temp\cc4gZHfW.s:7901   .debug_str:00000000000001a0 .LASF91
C:\Users\stapi\AppData\Local\Temp\cc4gZHfW.s:8017   .debug_str:000000000000062a .LASF92
C:\Users\stapi\AppData\Local\Temp\cc4gZHfW.s:7995   .debug_str:0000000000000515 .LASF93
C:\Users\stapi\AppData\Local\Temp\cc4gZHfW.s:8055   .debug_str:0000000000000704 .LASF94
C:\Users\stapi\AppData\Local\Temp\cc4gZHfW.s:8099   .debug_str:000000000000083d .LASF95
C:\Users\stapi\AppData\Local\Temp\cc4gZHfW.s:8035   .debug_str:00000000000006a2 .LASF96
C:\Users\stapi\AppData\Local\Temp\cc4gZHfW.s:8051   .debug_str:00000000000006f0 .LASF97
C:\Users\stapi\AppData\Local\Temp\cc4gZHfW.s:8095   .debug_str:0000000000000822 .LASF98
C:\Users\stapi\AppData\Local\Temp\cc4gZHfW.s:7897   .debug_str:0000000000000189 .LASF99
C:\Users\stapi\AppData\Local\Temp\cc4gZHfW.s:7923   .debug_str:000000000000023d .LASF100
C:\Users\stapi\AppData\Local\Temp\cc4gZHfW.s:7937   .debug_str:00000000000002a2 .LASF101
C:\Users\stapi\AppData\Local\Temp\cc4gZHfW.s:7979   .debug_str:00000000000003c5 .LASF102
C:\Users\stapi\AppData\Local\Temp\cc4gZHfW.s:8129   .debug_str:0000000000000915 .LASF103
C:\Users\stapi\AppData\Local\Temp\cc4gZHfW.s:7943   .debug_str:00000000000002dd .LASF104
C:\Users\stapi\AppData\Local\Temp\cc4gZHfW.s:7977   .debug_str:00000000000003ba .LASF105
C:\Users\stapi\AppData\Local\Temp\cc4gZHfW.s:8087   .debug_str:00000000000007e8 .LASF106
C:\Users\stapi\AppData\Local\Temp\cc4gZHfW.s:8079   .debug_str:00000000000007b4 .LASF107
C:\Users\stapi\AppData\Local\Temp\cc4gZHfW.s:8107   .debug_str:0000000000000885 .LASF108
C:\Users\stapi\AppData\Local\Temp\cc4gZHfW.s:8015   .debug_str:0000000000000625 .LASF109
C:\Users\stapi\AppData\Local\Temp\cc4gZHfW.s:8003   .debug_str:0000000000000557 .LASF110
C:\Users\stapi\AppData\Local\Temp\cc4gZHfW.s:8005   .debug_str:0000000000000560 .LASF111
C:\Users\stapi\AppData\Local\Temp\cc4gZHfW.s:8119   .debug_str:00000000000008da .LASF112
C:\Users\stapi\AppData\Local\Temp\cc4gZHfW.s:8021   .debug_str:0000000000000645 .LASF113
C:\Users\stapi\AppData\Local\Temp\cc4gZHfW.s:8215   .debug_str:0000000000000b94 .LASF114
C:\Users\stapi\AppData\Local\Temp\cc4gZHfW.s:8173   .debug_str:0000000000000a5b .LASF181
C:\Users\stapi\AppData\Local\Temp\cc4gZHfW.s:7955   .debug_str:000000000000032c .LASF115
C:\Users\stapi\AppData\Local\Temp\cc4gZHfW.s:8065   .debug_str:0000000000000751 .LASF116
C:\Users\stapi\AppData\Local\Temp\cc4gZHfW.s:7965   .debug_str:000000000000037a .LASF117
C:\Users\stapi\AppData\Local\Temp\cc4gZHfW.s:8139   .debug_str:0000000000000973 .LASF118
C:\Users\stapi\AppData\Local\Temp\cc4gZHfW.s:7969   .debug_str:0000000000000392 .LASF119
C:\Users\stapi\AppData\Local\Temp\cc4gZHfW.s:8203   .debug_str:0000000000000b4c .LASF120
C:\Users\stapi\AppData\Local\Temp\cc4gZHfW.s:8209   .debug_str:0000000000000b71 .LASF121
C:\Users\stapi\AppData\Local\Temp\cc4gZHfW.s:8151   .debug_str:00000000000009c3 .LASF122
C:\Users\stapi\AppData\Local\Temp\cc4gZHfW.s:8141   .debug_str:000000000000097f .LASF123
C:\Users\stapi\AppData\Local\Temp\cc4gZHfW.s:7961   .debug_str:0000000000000356 .LASF124
C:\Users\stapi\AppData\Local\Temp\cc4gZHfW.s:7963   .debug_str:0000000000000367 .LASF132
C:\Users\stapi\AppData\Local\Temp\cc4gZHfW.s:1784   .text.tlsv1_set_dhparams:0000000000000000 .LFB100
C:\Users\stapi\AppData\Local\Temp\cc4gZHfW.s:1881   .text.tlsv1_set_dhparams:0000000000000074 .LFE100
C:\Users\stapi\AppData\Local\Temp\cc4gZHfW.s:8033   .debug_str:000000000000069d .LASF125
C:\Users\stapi\AppData\Local\Temp\cc4gZHfW.s:6566   .debug_loc:0000000000000000 .LLST73
C:\Users\stapi\AppData\Local\Temp\cc4gZHfW.s:7947   .debug_str:00000000000002f7 .LASF126
C:\Users\stapi\AppData\Local\Temp\cc4gZHfW.s:6588   .debug_loc:0000000000000037 .LLST74
C:\Users\stapi\AppData\Local\Temp\cc4gZHfW.s:8211   .debug_str:0000000000000b83 .LASF127
C:\Users\stapi\AppData\Local\Temp\cc4gZHfW.s:6599   .debug_loc:0000000000000055 .LLST75
C:\Users\stapi\AppData\Local\Temp\cc4gZHfW.s:8205   .debug_str:0000000000000b59 .LASF128
C:\Users\stapi\AppData\Local\Temp\cc4gZHfW.s:6632   .debug_loc:00000000000000a5 .LLST76
C:\Users\stapi\AppData\Local\Temp\cc4gZHfW.s:1834   .text.tlsv1_set_dhparams:0000000000000030 .LBB40
C:\Users\stapi\AppData\Local\Temp\cc4gZHfW.s:1879   .text.tlsv1_set_dhparams:0000000000000074 .LBE40
C:\Users\stapi\AppData\Local\Temp\cc4gZHfW.s:1845   .text.tlsv1_set_dhparams:000000000000003c .LVL216
C:\Users\stapi\AppData\Local\Temp\cc4gZHfW.s:1857   .text.tlsv1_set_dhparams:0000000000000054 .LVL218
C:\Users\stapi\AppData\Local\Temp\cc4gZHfW.s:1869   .text.tlsv1_set_dhparams:0000000000000066 .LVL219
C:\Users\stapi\AppData\Local\Temp\cc4gZHfW.s:1875   .text.tlsv1_set_dhparams:0000000000000072 .LVL221
C:\Users\stapi\AppData\Local\Temp\cc4gZHfW.s:1810   .text.tlsv1_set_dhparams:000000000000001a .LVL212
C:\Users\stapi\AppData\Local\Temp\cc4gZHfW.s:7931   .debug_str:0000000000000273 .LASF130
C:\Users\stapi\AppData\Local\Temp\cc4gZHfW.s:1148   .text.tlsv1_set_dhparams_blob:0000000000000000 .LFB99
C:\Users\stapi\AppData\Local\Temp\cc4gZHfW.s:1312   .text.tlsv1_set_dhparams_blob:0000000000000108 .LFE99
C:\Users\stapi\AppData\Local\Temp\cc4gZHfW.s:6657   .debug_loc:00000000000000df .LLST51
C:\Users\stapi\AppData\Local\Temp\cc4gZHfW.s:6668   .debug_loc:00000000000000fd .LLST52
C:\Users\stapi\AppData\Local\Temp\cc4gZHfW.s:6697   .debug_loc:0000000000000142 .LLST53
C:\Users\stapi\AppData\Local\Temp\cc4gZHfW.s:6708   .debug_loc:0000000000000160 .LLST54
C:\Users\stapi\AppData\Local\Temp\cc4gZHfW.s:6727   .debug_loc:0000000000000194 .LLST55
C:\Users\stapi\AppData\Local\Temp\cc4gZHfW.s:7953   .debug_str:0000000000000324 .LASF129
C:\Users\stapi\AppData\Local\Temp\cc4gZHfW.s:1179   .text.tlsv1_set_dhparams_blob:0000000000000020 .LVL136
C:\Users\stapi\AppData\Local\Temp\cc4gZHfW.s:1189   .text.tlsv1_set_dhparams_blob:0000000000000034 .LVL138
C:\Users\stapi\AppData\Local\Temp\cc4gZHfW.s:1196   .text.tlsv1_set_dhparams_blob:0000000000000042 .LVL139
C:\Users\stapi\AppData\Local\Temp\cc4gZHfW.s:1221   .text.tlsv1_set_dhparams_blob:0000000000000060 .LVL142
C:\Users\stapi\AppData\Local\Temp\cc4gZHfW.s:1226   .text.tlsv1_set_dhparams_blob:000000000000006c .LVL143
C:\Users\stapi\AppData\Local\Temp\cc4gZHfW.s:1240   .text.tlsv1_set_dhparams_blob:0000000000000086 .LVL146
C:\Users\stapi\AppData\Local\Temp\cc4gZHfW.s:1251   .text.tlsv1_set_dhparams_blob:000000000000009e .LVL148
C:\Users\stapi\AppData\Local\Temp\cc4gZHfW.s:1267   .text.tlsv1_set_dhparams_blob:00000000000000b2 .LVL151
C:\Users\stapi\AppData\Local\Temp\cc4gZHfW.s:1278   .text.tlsv1_set_dhparams_blob:00000000000000c8 .LVL153
C:\Users\stapi\AppData\Local\Temp\cc4gZHfW.s:1288   .text.tlsv1_set_dhparams_blob:00000000000000d8 .LVL154
C:\Users\stapi\AppData\Local\Temp\cc4gZHfW.s:1296   .text.tlsv1_set_dhparams_blob:00000000000000ee .LVL155
C:\Users\stapi\AppData\Local\Temp\cc4gZHfW.s:1300   .text.tlsv1_set_dhparams_blob:00000000000000f8 .LVL156
C:\Users\stapi\AppData\Local\Temp\cc4gZHfW.s:1306   .text.tlsv1_set_dhparams_blob:0000000000000104 .LVL157
C:\Users\stapi\AppData\Local\Temp\cc4gZHfW.s:8091   .debug_str:0000000000000805 .LASF131
C:\Users\stapi\AppData\Local\Temp\cc4gZHfW.s:910    .text.tlsv1_set_dhparams_der:0000000000000000 .LFB98
C:\Users\stapi\AppData\Local\Temp\cc4gZHfW.s:1120   .text.tlsv1_set_dhparams_der:000000000000011e .LFE98
C:\Users\stapi\AppData\Local\Temp\cc4gZHfW.s:6738   .debug_loc:00000000000001b2 .LLST44
C:\Users\stapi\AppData\Local\Temp\cc4gZHfW.s:6749   .debug_loc:00000000000001d0 .LLST45
C:\Users\stapi\AppData\Local\Temp\cc4gZHfW.s:6767   .debug_loc:00000000000001fc .LLST46
C:\Users\stapi\AppData\Local\Temp\cc4gZHfW.s:6785   .debug_loc:0000000000000228 .LLST47
C:\Users\stapi\AppData\Local\Temp\cc4gZHfW.s:945    .text.tlsv1_set_dhparams_der:0000000000000022 .LBB31
C:\Users\stapi\AppData\Local\Temp\cc4gZHfW.s:957    .text.tlsv1_set_dhparams_der:0000000000000030 .LBE31
C:\Users\stapi\AppData\Local\Temp\cc4gZHfW.s:6818   .debug_loc:0000000000000278 .LLST48
C:\Users\stapi\AppData\Local\Temp\cc4gZHfW.s:989    .text.tlsv1_set_dhparams_der:0000000000000062 .LBB33
C:\Users\stapi\AppData\Local\Temp\cc4gZHfW.s:1000   .text.tlsv1_set_dhparams_der:0000000000000070 .LBE33
C:\Users\stapi\AppData\Local\Temp\cc4gZHfW.s:6825   .debug_loc:000000000000028b .LLST49
C:\Users\stapi\AppData\Local\Temp\cc4gZHfW.s:1065   .text.tlsv1_set_dhparams_der:00000000000000ca .LBB35
C:\Users\stapi\AppData\Local\Temp\cc4gZHfW.s:1076   .text.tlsv1_set_dhparams_der:00000000000000d8 .LBE35
C:\Users\stapi\AppData\Local\Temp\cc4gZHfW.s:6832   .debug_loc:000000000000029e .LLST50
C:\Users\stapi\AppData\Local\Temp\cc4gZHfW.s:941    .text.tlsv1_set_dhparams_der:000000000000001e .LVL114
C:\Users\stapi\AppData\Local\Temp\cc4gZHfW.s:967    .text.tlsv1_set_dhparams_der:0000000000000040 .LVL118
C:\Users\stapi\AppData\Local\Temp\cc4gZHfW.s:985    .text.tlsv1_set_dhparams_der:0000000000000060 .LVL121
C:\Users\stapi\AppData\Local\Temp\cc4gZHfW.s:1008   .text.tlsv1_set_dhparams_der:0000000000000086 .LVL124
C:\Users\stapi\AppData\Local\Temp\cc4gZHfW.s:1032   .text.tlsv1_set_dhparams_der:00000000000000a0 .LVL125
C:\Users\stapi\AppData\Local\Temp\cc4gZHfW.s:1038   .text.tlsv1_set_dhparams_der:00000000000000ac .LVL126
C:\Users\stapi\AppData\Local\Temp\cc4gZHfW.s:1061   .text.tlsv1_set_dhparams_der:00000000000000c6 .LVL128
C:\Users\stapi\AppData\Local\Temp\cc4gZHfW.s:1084   .text.tlsv1_set_dhparams_der:00000000000000ee .LVL131
C:\Users\stapi\AppData\Local\Temp\cc4gZHfW.s:1092   .text.tlsv1_set_dhparams_der:00000000000000fc .LVL132
C:\Users\stapi\AppData\Local\Temp\cc4gZHfW.s:1098   .text.tlsv1_set_dhparams_der:0000000000000108 .LVL133
C:\Users\stapi\AppData\Local\Temp\cc4gZHfW.s:7881   .debug_str:0000000000000096 .LASF133
C:\Users\stapi\AppData\Local\Temp\cc4gZHfW.s:1660   .text.tlsv1_set_private_key:0000000000000000 .LFB97
C:\Users\stapi\AppData\Local\Temp\cc4gZHfW.s:1777   .text.tlsv1_set_private_key:000000000000008e .LFE97
C:\Users\stapi\AppData\Local\Temp\cc4gZHfW.s:6839   .debug_loc:00000000000002b1 .LLST67
C:\Users\stapi\AppData\Local\Temp\cc4gZHfW.s:8207   .debug_str:0000000000000b65 .LASF134
C:\Users\stapi\AppData\Local\Temp\cc4gZHfW.s:6850   .debug_loc:00000000000002cf .LLST68
C:\Users\stapi\AppData\Local\Temp\cc4gZHfW.s:7919   .debug_str:000000000000021a .LASF135
C:\Users\stapi\AppData\Local\Temp\cc4gZHfW.s:6861   .debug_loc:00000000000002ed .LLST69
C:\Users\stapi\AppData\Local\Temp\cc4gZHfW.s:8063   .debug_str:0000000000000740 .LASF136
C:\Users\stapi\AppData\Local\Temp\cc4gZHfW.s:6872   .debug_loc:000000000000030b .LLST70
C:\Users\stapi\AppData\Local\Temp\cc4gZHfW.s:7945   .debug_str:00000000000002e2 .LASF137
C:\Users\stapi\AppData\Local\Temp\cc4gZHfW.s:6894   .debug_loc:0000000000000342 .LLST71
C:\Users\stapi\AppData\Local\Temp\cc4gZHfW.s:1728   .text.tlsv1_set_private_key:0000000000000048 .LBB39
C:\Users\stapi\AppData\Local\Temp\cc4gZHfW.s:1775   .text.tlsv1_set_private_key:000000000000008e .LBE39
C:\Users\stapi\AppData\Local\Temp\cc4gZHfW.s:6916   .debug_loc:0000000000000379 .LLST72
C:\Users\stapi\AppData\Local\Temp\cc4gZHfW.s:1737   .text.tlsv1_set_private_key:0000000000000054 .LVL200
C:\Users\stapi\AppData\Local\Temp\cc4gZHfW.s:1750   .text.tlsv1_set_private_key:000000000000006c .LVL203
C:\Users\stapi\AppData\Local\Temp\cc4gZHfW.s:1765   .text.tlsv1_set_private_key:0000000000000080 .LVL206
C:\Users\stapi\AppData\Local\Temp\cc4gZHfW.s:1771   .text.tlsv1_set_private_key:000000000000008c .LVL208
C:\Users\stapi\AppData\Local\Temp\cc4gZHfW.s:1688   .text.tlsv1_set_private_key:000000000000001e .LVL196
C:\Users\stapi\AppData\Local\Temp\cc4gZHfW.s:1703   .text.tlsv1_set_private_key:0000000000000034 .LVL197
C:\Users\stapi\AppData\Local\Temp\cc4gZHfW.s:8037   .debug_str:00000000000006ab .LASF138
C:\Users\stapi\AppData\Local\Temp\cc4gZHfW.s:462    .text.tlsv1_set_key:0000000000000000 .LFB96
C:\Users\stapi\AppData\Local\Temp\cc4gZHfW.s:779    .text.tlsv1_set_key:00000000000001ae .LFE96
C:\Users\stapi\AppData\Local\Temp\cc4gZHfW.s:6935   .debug_loc:00000000000003ad .LLST16
C:\Users\stapi\AppData\Local\Temp\cc4gZHfW.s:6946   .debug_loc:00000000000003cb .LLST17
C:\Users\stapi\AppData\Local\Temp\cc4gZHfW.s:6986   .debug_loc:0000000000000429 .LLST18
C:\Users\stapi\AppData\Local\Temp\cc4gZHfW.s:7873   .debug_str:0000000000000069 .LASF139
C:\Users\stapi\AppData\Local\Temp\cc4gZHfW.s:6997   .debug_loc:0000000000000447 .LLST19
C:\Users\stapi\AppData\Local\Temp\cc4gZHfW.s:501    .text.tlsv1_set_key:0000000000000026 .LBB8
C:\Users\stapi\AppData\Local\Temp\cc4gZHfW.s:7008   .debug_loc:0000000000000465 .LLST20
C:\Users\stapi\AppData\Local\Temp\cc4gZHfW.s:7023   .debug_loc:000000000000048e .LLST21
C:\Users\stapi\AppData\Local\Temp\cc4gZHfW.s:7038   .debug_loc:00000000000004b7 .LLST22
C:\Users\stapi\AppData\Local\Temp\cc4gZHfW.s:7053   .debug_loc:00000000000004e0 .LLST23
C:\Users\stapi\AppData\Local\Temp\cc4gZHfW.s:7072   .debug_loc:0000000000000514 .LLST24
C:\Users\stapi\AppData\Local\Temp\cc4gZHfW.s:7083   .debug_loc:0000000000000532 .LLST25
C:\Users\stapi\AppData\Local\Temp\cc4gZHfW.s:7090   .debug_loc:0000000000000545 .LLST26
C:\Users\stapi\AppData\Local\Temp\cc4gZHfW.s:664    .text.tlsv1_set_key:00000000000000ec .LVL75
C:\Users\stapi\AppData\Local\Temp\cc4gZHfW.s:677    .text.tlsv1_set_key:0000000000000106 .LVL77
C:\Users\stapi\AppData\Local\Temp\cc4gZHfW.s:691    .text.tlsv1_set_key:0000000000000120 .LVL80
C:\Users\stapi\AppData\Local\Temp\cc4gZHfW.s:701    .text.tlsv1_set_key:0000000000000134 .LVL82
C:\Users\stapi\AppData\Local\Temp\cc4gZHfW.s:514    .text.tlsv1_set_key:000000000000003a .LVL54
C:\Users\stapi\AppData\Local\Temp\cc4gZHfW.s:527    .text.tlsv1_set_key:0000000000000052 .LVL56
C:\Users\stapi\AppData\Local\Temp\cc4gZHfW.s:595    .text.tlsv1_set_key:000000000000008c .LVL63
C:\Users\stapi\AppData\Local\Temp\cc4gZHfW.s:608    .text.tlsv1_set_key:00000000000000a6 .LVL65
C:\Users\stapi\AppData\Local\Temp\cc4gZHfW.s:622    .text.tlsv1_set_key:00000000000000ba .LVL68
C:\Users\stapi\AppData\Local\Temp\cc4gZHfW.s:633    .text.tlsv1_set_key:00000000000000ca .LVL70
C:\Users\stapi\AppData\Local\Temp\cc4gZHfW.s:639    .text.tlsv1_set_key:00000000000000d6 .LVL72
C:\Users\stapi\AppData\Local\Temp\cc4gZHfW.s:546    .text.tlsv1_set_key:000000000000005a .LBB14
C:\Users\stapi\AppData\Local\Temp\cc4gZHfW.s:7097   .debug_loc:0000000000000558 .LLST27
C:\Users\stapi\AppData\Local\Temp\cc4gZHfW.s:7108   .debug_loc:0000000000000576 .LLST28
C:\Users\stapi\AppData\Local\Temp\cc4gZHfW.s:7119   .debug_loc:0000000000000594 .LLST29
C:\Users\stapi\AppData\Local\Temp\cc4gZHfW.s:7137   .debug_loc:00000000000005c0 .LLST30
C:\Users\stapi\AppData\Local\Temp\cc4gZHfW.s:7144   .debug_loc:00000000000005d3 .LLST31
C:\Users\stapi\AppData\Local\Temp\cc4gZHfW.s:7151   .debug_loc:00000000000005e6 .LLST32
C:\Users\stapi\AppData\Local\Temp\cc4gZHfW.s:7158   .debug_loc:00000000000005f9 .LLST33
C:\Users\stapi\AppData\Local\Temp\cc4gZHfW.s:717    .text.tlsv1_set_key:000000000000014a .LVL84
C:\Users\stapi\AppData\Local\Temp\cc4gZHfW.s:727    .text.tlsv1_set_key:000000000000015a .LVL86
C:\Users\stapi\AppData\Local\Temp\cc4gZHfW.s:740    .text.tlsv1_set_key:0000000000000174 .LVL88
C:\Users\stapi\AppData\Local\Temp\cc4gZHfW.s:751    .text.tlsv1_set_key:0000000000000188 .LVL90
C:\Users\stapi\AppData\Local\Temp\cc4gZHfW.s:762    .text.tlsv1_set_key:000000000000019a .LVL92
C:\Users\stapi\AppData\Local\Temp\cc4gZHfW.s:768    .text.tlsv1_set_key:00000000000001a6 .LVL94
C:\Users\stapi\AppData\Local\Temp\cc4gZHfW.s:493    .text.tlsv1_set_key:0000000000000020 .LVL52
C:\Users\stapi\AppData\Local\Temp\cc4gZHfW.s:568    .text.tlsv1_set_key:0000000000000074 .LVL61
C:\Users\stapi\AppData\Local\Temp\cc4gZHfW.s:7915   .debug_str:00000000000001f9 .LASF141
C:\Users\stapi\AppData\Local\Temp\cc4gZHfW.s:7987   .debug_str:00000000000003f5 .LASF140
C:\Users\stapi\AppData\Local\Temp\cc4gZHfW.s:8111   .debug_str:000000000000089f .LASF142
C:\Users\stapi\AppData\Local\Temp\cc4gZHfW.s:8053   .debug_str:00000000000006ff .LASF143
C:\Users\stapi\AppData\Local\Temp\cc4gZHfW.s:8181   .debug_str:0000000000000aa7 .LASF144
C:\Users\stapi\AppData\Local\Temp\cc4gZHfW.s:1642   .text.tlsv1_set_cert:0000000000000000 .LFB93
C:\Users\stapi\AppData\Local\Temp\cc4gZHfW.s:1653   .text.tlsv1_set_cert:000000000000000a .LFE93
C:\Users\stapi\AppData\Local\Temp\cc4gZHfW.s:7165   .debug_loc:000000000000060c .LLST63
C:\Users\stapi\AppData\Local\Temp\cc4gZHfW.s:7185   .debug_loc:000000000000063a .LLST64
C:\Users\stapi\AppData\Local\Temp\cc4gZHfW.s:7879   .debug_str:000000000000008c .LASF145
C:\Users\stapi\AppData\Local\Temp\cc4gZHfW.s:7199   .debug_loc:000000000000065b .LLST65
C:\Users\stapi\AppData\Local\Temp\cc4gZHfW.s:8117   .debug_str:00000000000008cc .LASF146
C:\Users\stapi\AppData\Local\Temp\cc4gZHfW.s:7213   .debug_loc:000000000000067c .LLST66
C:\Users\stapi\AppData\Local\Temp\cc4gZHfW.s:1651   .text.tlsv1_set_cert:000000000000000a .LVL193
C:\Users\stapi\AppData\Local\Temp\cc4gZHfW.s:8023   .debug_str:000000000000065c .LASF147
C:\Users\stapi\AppData\Local\Temp\cc4gZHfW.s:1427   .text.tlsv1_set_ca_cert:0000000000000000 .LFB92
C:\Users\stapi\AppData\Local\Temp\cc4gZHfW.s:1635   .text.tlsv1_set_ca_cert:0000000000000142 .LFE92
C:\Users\stapi\AppData\Local\Temp\cc4gZHfW.s:7227   .debug_loc:000000000000069d .LLST57
C:\Users\stapi\AppData\Local\Temp\cc4gZHfW.s:7246   .debug_loc:00000000000006d1 .LLST58
C:\Users\stapi\AppData\Local\Temp\cc4gZHfW.s:7257   .debug_loc:00000000000006ef .LLST59
C:\Users\stapi\AppData\Local\Temp\cc4gZHfW.s:7294   .debug_loc:000000000000074a .LLST60
C:\Users\stapi\AppData\Local\Temp\cc4gZHfW.s:7887   .debug_str:00000000000000bb .LASF148
C:\Users\stapi\AppData\Local\Temp\cc4gZHfW.s:7313   .debug_loc:000000000000077e .LLST61
C:\Users\stapi\AppData\Local\Temp\cc4gZHfW.s:7332   .debug_loc:00000000000007b2 .LLST62
C:\Users\stapi\AppData\Local\Temp\cc4gZHfW.s:1472   .text.tlsv1_set_ca_cert:0000000000000040 .LVL177
C:\Users\stapi\AppData\Local\Temp\cc4gZHfW.s:1485   .text.tlsv1_set_ca_cert:0000000000000058 .LVL179
C:\Users\stapi\AppData\Local\Temp\cc4gZHfW.s:1516   .text.tlsv1_set_ca_cert:0000000000000072 .LVL182
C:\Users\stapi\AppData\Local\Temp\cc4gZHfW.s:1532   .text.tlsv1_set_ca_cert:0000000000000098 .LVL183
C:\Users\stapi\AppData\Local\Temp\cc4gZHfW.s:1458   .text.tlsv1_set_ca_cert:0000000000000028 .LVL174
C:\Users\stapi\AppData\Local\Temp\cc4gZHfW.s:1559   .text.tlsv1_set_ca_cert:00000000000000c8 .LVL185
C:\Users\stapi\AppData\Local\Temp\cc4gZHfW.s:1591   .text.tlsv1_set_ca_cert:00000000000000f2 .LVL188
C:\Users\stapi\AppData\Local\Temp\cc4gZHfW.s:1606   .text.tlsv1_set_ca_cert:0000000000000110 .LVL189
C:\Users\stapi\AppData\Local\Temp\cc4gZHfW.s:1617   .text.tlsv1_set_ca_cert:0000000000000126 .LVL190
C:\Users\stapi\AppData\Local\Temp\cc4gZHfW.s:8137   .debug_str:000000000000095e .LASF149
C:\Users\stapi\AppData\Local\Temp\cc4gZHfW.s:8127   .debug_str:000000000000090f .LASF150
C:\Users\stapi\AppData\Local\Temp\cc4gZHfW.s:8059   .debug_str:0000000000000729 .LASF151
C:\Users\stapi\AppData\Local\Temp\cc4gZHfW.s:240    .text.tlsv1_add_cert:0000000000000000 .LFB90
C:\Users\stapi\AppData\Local\Temp\cc4gZHfW.s:428    .text.tlsv1_add_cert:000000000000012e .LFE90
C:\Users\stapi\AppData\Local\Temp\cc4gZHfW.s:7361   .debug_loc:00000000000007f7 .LLST10
C:\Users\stapi\AppData\Local\Temp\cc4gZHfW.s:7372   .debug_loc:0000000000000815 .LLST11
C:\Users\stapi\AppData\Local\Temp\cc4gZHfW.s:7401   .debug_loc:000000000000085a .LLST12
C:\Users\stapi\AppData\Local\Temp\cc4gZHfW.s:7430   .debug_loc:000000000000089f .LLST13
C:\Users\stapi\AppData\Local\Temp\cc4gZHfW.s:7453   .debug_loc:00000000000008de .LLST14
C:\Users\stapi\AppData\Local\Temp\cc4gZHfW.s:7464   .debug_loc:00000000000008fc .LLST15
C:\Users\stapi\AppData\Local\Temp\cc4gZHfW.s:272    .text.tlsv1_add_cert:0000000000000020 .LVL22
C:\Users\stapi\AppData\Local\Temp\cc4gZHfW.s:282    .text.tlsv1_add_cert:0000000000000034 .LVL24
C:\Users\stapi\AppData\Local\Temp\cc4gZHfW.s:289    .text.tlsv1_add_cert:0000000000000042 .LVL25
C:\Users\stapi\AppData\Local\Temp\cc4gZHfW.s:315    .text.tlsv1_add_cert:0000000000000060 .LVL28
C:\Users\stapi\AppData\Local\Temp\cc4gZHfW.s:329    .text.tlsv1_add_cert:0000000000000072 .LVL31
C:\Users\stapi\AppData\Local\Temp\cc4gZHfW.s:339    .text.tlsv1_add_cert:0000000000000086 .LVL33
C:\Users\stapi\AppData\Local\Temp\cc4gZHfW.s:351    .text.tlsv1_add_cert:00000000000000a0 .LVL35
C:\Users\stapi\AppData\Local\Temp\cc4gZHfW.s:366    .text.tlsv1_add_cert:00000000000000b4 .LVL37
C:\Users\stapi\AppData\Local\Temp\cc4gZHfW.s:377    .text.tlsv1_add_cert:00000000000000ca .LVL39
C:\Users\stapi\AppData\Local\Temp\cc4gZHfW.s:387    .text.tlsv1_add_cert:00000000000000da .LVL40
C:\Users\stapi\AppData\Local\Temp\cc4gZHfW.s:395    .text.tlsv1_add_cert:00000000000000f0 .LVL41
C:\Users\stapi\AppData\Local\Temp\cc4gZHfW.s:399    .text.tlsv1_add_cert:00000000000000fa .LVL42
C:\Users\stapi\AppData\Local\Temp\cc4gZHfW.s:405    .text.tlsv1_add_cert:0000000000000106 .LVL43
C:\Users\stapi\AppData\Local\Temp\cc4gZHfW.s:410    .text.tlsv1_add_cert:0000000000000112 .LVL44
C:\Users\stapi\AppData\Local\Temp\cc4gZHfW.s:419    .text.tlsv1_add_cert:0000000000000126 .LVL46
C:\Users\stapi\AppData\Local\Temp\cc4gZHfW.s:7951   .debug_str:0000000000000319 .LASF152
C:\Users\stapi\AppData\Local\Temp\cc4gZHfW.s:140    .text.search_tag:0000000000000000 .LFB89
C:\Users\stapi\AppData\Local\Temp\cc4gZHfW.s:212    .text.search_tag:000000000000004c .LFE89
C:\Users\stapi\AppData\Local\Temp\cc4gZHfW.s:7471   .debug_loc:000000000000090f .LLST5
C:\Users\stapi\AppData\Local\Temp\cc4gZHfW.s:7482   .debug_loc:000000000000092d .LLST6
C:\Users\stapi\AppData\Local\Temp\cc4gZHfW.s:7493   .debug_loc:000000000000094b .LLST7
C:\Users\stapi\AppData\Local\Temp\cc4gZHfW.s:7515   .debug_loc:0000000000000982 .LLST8
C:\Users\stapi\AppData\Local\Temp\cc4gZHfW.s:7905   .debug_str:00000000000001b9 .LASF153
C:\Users\stapi\AppData\Local\Temp\cc4gZHfW.s:7522   .debug_loc:0000000000000995 .LLST9
C:\Users\stapi\AppData\Local\Temp\cc4gZHfW.s:161    .text.search_tag:0000000000000016 .LVL14
C:\Users\stapi\AppData\Local\Temp\cc4gZHfW.s:194    .text.search_tag:000000000000003c .LVL17
C:\Users\stapi\AppData\Local\Temp\cc4gZHfW.s:7911   .debug_str:00000000000001da .LASF154
C:\Users\stapi\AppData\Local\Temp\cc4gZHfW.s:20     .text.tlsv1_add_cert_der:0000000000000000 .LFB88
C:\Users\stapi\AppData\Local\Temp\cc4gZHfW.s:134    .text.tlsv1_add_cert_der:000000000000009c .LFE88
C:\Users\stapi\AppData\Local\Temp\cc4gZHfW.s:7537   .debug_loc:00000000000009be .LLST0
C:\Users\stapi\AppData\Local\Temp\cc4gZHfW.s:7548   .debug_loc:00000000000009dc .LLST1
C:\Users\stapi\AppData\Local\Temp\cc4gZHfW.s:7566   .debug_loc:0000000000000a08 .LLST2
C:\Users\stapi\AppData\Local\Temp\cc4gZHfW.s:7580   .debug_loc:0000000000000a29 .LLST3
C:\Users\stapi\AppData\Local\Temp\cc4gZHfW.s:7595   .debug_loc:0000000000000a52 .LLST4
C:\Users\stapi\AppData\Local\Temp\cc4gZHfW.s:8007   .debug_str:0000000000000565 .LASF155
C:\Users\stapi\AppData\Local\Temp\cc4gZHfW.s:8115   .debug_str:00000000000008c3 .LASF182
C:\Users\stapi\AppData\Local\Temp\cc4gZHfW.s:45     .text.tlsv1_add_cert_der:0000000000000018 .LVL3
C:\Users\stapi\AppData\Local\Temp\cc4gZHfW.s:57     .text.tlsv1_add_cert_der:0000000000000034 .LVL5
C:\Users\stapi\AppData\Local\Temp\cc4gZHfW.s:93     .text.tlsv1_add_cert_der:0000000000000060 .LVL8
C:\Users\stapi\AppData\Local\Temp\cc4gZHfW.s:121    .text.tlsv1_add_cert_der:0000000000000084 .LVL11
C:\Users\stapi\AppData\Local\Temp\cc4gZHfW.s:128    .text.tlsv1_add_cert_der:0000000000000098 .LVL12
C:\Users\stapi\AppData\Local\Temp\cc4gZHfW.s:7909   .debug_str:00000000000001ca .LASF183
C:\Users\stapi\AppData\Local\Temp\cc4gZHfW.s:1337   .text.tlsv1_cred_free:0000000000000000 .LFB87
C:\Users\stapi\AppData\Local\Temp\cc4gZHfW.s:1392   .text.tlsv1_cred_free:0000000000000066 .LFE87
C:\Users\stapi\AppData\Local\Temp\cc4gZHfW.s:7606   .debug_loc:0000000000000a70 .LLST56
C:\Users\stapi\AppData\Local\Temp\cc4gZHfW.s:1354   .text.tlsv1_cred_free:0000000000000016 .LVL161
C:\Users\stapi\AppData\Local\Temp\cc4gZHfW.s:1358   .text.tlsv1_cred_free:0000000000000020 .LVL162
C:\Users\stapi\AppData\Local\Temp\cc4gZHfW.s:1362   .text.tlsv1_cred_free:000000000000002a .LVL163
C:\Users\stapi\AppData\Local\Temp\cc4gZHfW.s:1366   .text.tlsv1_cred_free:0000000000000034 .LVL164
C:\Users\stapi\AppData\Local\Temp\cc4gZHfW.s:1370   .text.tlsv1_cred_free:000000000000003e .LVL165
C:\Users\stapi\AppData\Local\Temp\cc4gZHfW.s:1374   .text.tlsv1_cred_free:0000000000000048 .LVL166
C:\Users\stapi\AppData\Local\Temp\cc4gZHfW.s:1378   .text.tlsv1_cred_free:0000000000000052 .LVL167
C:\Users\stapi\AppData\Local\Temp\cc4gZHfW.s:1382   .text.tlsv1_cred_free:000000000000005c .LVL168
C:\Users\stapi\AppData\Local\Temp\cc4gZHfW.s:8101   .debug_str:0000000000000848 .LASF156
C:\Users\stapi\AppData\Local\Temp\cc4gZHfW.s:1319   .text.tlsv1_cred_alloc:0000000000000000 .LFB86
C:\Users\stapi\AppData\Local\Temp\cc4gZHfW.s:1330   .text.tlsv1_cred_alloc:000000000000000c .LFE86
C:\Users\stapi\AppData\Local\Temp\cc4gZHfW.s:1327   .text.tlsv1_cred_alloc:000000000000000c .LVL158
C:\Users\stapi\AppData\Local\Temp\cc4gZHfW.s:7925   .debug_str:000000000000024a .LASF157
C:\Users\stapi\AppData\Local\Temp\cc4gZHfW.s:7857   .debug_str:0000000000000000 .LASF158
C:\Users\stapi\AppData\Local\Temp\cc4gZHfW.s:789    .text.tlsv1_set_cert_chain:0000000000000000 .LFB91
C:\Users\stapi\AppData\Local\Temp\cc4gZHfW.s:888    .text.tlsv1_set_cert_chain:0000000000000074 .LFE91
C:\Users\stapi\AppData\Local\Temp\cc4gZHfW.s:7621   .debug_loc:0000000000000a99 .LLST34
C:\Users\stapi\AppData\Local\Temp\cc4gZHfW.s:7643   .debug_loc:0000000000000ad0 .LLST35
C:\Users\stapi\AppData\Local\Temp\cc4gZHfW.s:7654   .debug_loc:0000000000000aee .LLST36
C:\Users\stapi\AppData\Local\Temp\cc4gZHfW.s:7687   .debug_loc:0000000000000b3e .LLST37
C:\Users\stapi\AppData\Local\Temp\cc4gZHfW.s:839    .text.tlsv1_set_cert_chain:0000000000000030 .LBB23
C:\Users\stapi\AppData\Local\Temp\cc4gZHfW.s:886    .text.tlsv1_set_cert_chain:0000000000000074 .LBE23
C:\Users\stapi\AppData\Local\Temp\cc4gZHfW.s:7712   .debug_loc:0000000000000b78 .LLST38
C:\Users\stapi\AppData\Local\Temp\cc4gZHfW.s:7720   .debug_loc:0000000000000b8c .LLST39
C:\Users\stapi\AppData\Local\Temp\cc4gZHfW.s:7734   .debug_loc:0000000000000bad .LLST40
C:\Users\stapi\AppData\Local\Temp\cc4gZHfW.s:7741   .debug_loc:0000000000000bc0 .LLST41
C:\Users\stapi\AppData\Local\Temp\cc4gZHfW.s:840    .text.tlsv1_set_cert_chain:0000000000000030 .LBB24
C:\Users\stapi\AppData\Local\Temp\cc4gZHfW.s:885    .text.tlsv1_set_cert_chain:0000000000000074 .LBE24
C:\Users\stapi\AppData\Local\Temp\cc4gZHfW.s:7748   .debug_loc:0000000000000bd3 .LLST42
C:\Users\stapi\AppData\Local\Temp\cc4gZHfW.s:7755   .debug_loc:0000000000000be6 .LLST43
C:\Users\stapi\AppData\Local\Temp\cc4gZHfW.s:851    .text.tlsv1_set_cert_chain:000000000000003c .LVL103
C:\Users\stapi\AppData\Local\Temp\cc4gZHfW.s:863    .text.tlsv1_set_cert_chain:0000000000000054 .LVL105
C:\Users\stapi\AppData\Local\Temp\cc4gZHfW.s:875    .text.tlsv1_set_cert_chain:0000000000000066 .LVL106
C:\Users\stapi\AppData\Local\Temp\cc4gZHfW.s:881    .text.tlsv1_set_cert_chain:0000000000000072 .LVL108
C:\Users\stapi\AppData\Local\Temp\cc4gZHfW.s:814    .text.tlsv1_set_cert_chain:000000000000001a .LVL98
C:\Users\stapi\AppData\Local\Temp\cc4gZHfW.s:8109   .debug_str:0000000000000893 .LASF159
C:\Users\stapi\AppData\Local\Temp\cc4gZHfW.s:8067   .debug_str:000000000000075e .LASF160
C:\Users\stapi\AppData\Local\Temp\cc4gZHfW.s:7983   .debug_str:00000000000003e0 .LASF161
C:\Users\stapi\AppData\Local\Temp\cc4gZHfW.s:8185   .debug_str:0000000000000abd .LASF162
C:\Users\stapi\AppData\Local\Temp\cc4gZHfW.s:8157   .debug_str:00000000000009ea .LASF163
C:\Users\stapi\AppData\Local\Temp\cc4gZHfW.s:8197   .debug_str:0000000000000b1c .LASF164
C:\Users\stapi\AppData\Local\Temp\cc4gZHfW.s:7921   .debug_str:000000000000022d .LASF165
C:\Users\stapi\AppData\Local\Temp\cc4gZHfW.s:8123   .debug_str:00000000000008f4 .LASF166
C:\Users\stapi\AppData\Local\Temp\cc4gZHfW.s:7935   .debug_str:0000000000000298 .LASF167
C:\Users\stapi\AppData\Local\Temp\cc4gZHfW.s:7989   .debug_str:00000000000003fa .LASF168
C:\Users\stapi\AppData\Local\Temp\cc4gZHfW.s:7949   .debug_str:00000000000002ff .LASF169
C:\Users\stapi\AppData\Local\Temp\cc4gZHfW.s:8167   .debug_str:0000000000000a2f .LASF170
C:\Users\stapi\AppData\Local\Temp\cc4gZHfW.s:7957   .debug_str:000000000000033b .LASF171
C:\Users\stapi\AppData\Local\Temp\cc4gZHfW.s:8039   .debug_str:00000000000006b9 .LASF172
C:\Users\stapi\AppData\Local\Temp\cc4gZHfW.s:8177   .debug_str:0000000000000a81 .LASF173
C:\Users\stapi\AppData\Local\Temp\cc4gZHfW.s:8113   .debug_str:00000000000008b1 .LASF174
C:\Users\stapi\AppData\Local\Temp\cc4gZHfW.s:8069   .debug_str:0000000000000769 .LASF175
C:\Users\stapi\AppData\Local\Temp\cc4gZHfW.s:8013   .debug_str:0000000000000609 .LASF176
C:\Users\stapi\AppData\Local\Temp\cc4gZHfW.s:7991   .debug_str:0000000000000412 .LASF177
C:\Users\stapi\AppData\Local\Temp\cc4gZHfW.s:1787   .text.tlsv1_set_dhparams:0000000000000000 .LVL209
C:\Users\stapi\AppData\Local\Temp\cc4gZHfW.s:1825   .text.tlsv1_set_dhparams:0000000000000028 .LVL213
C:\Users\stapi\AppData\Local\Temp\cc4gZHfW.s:1843   .text.tlsv1_set_dhparams:0000000000000034 .LVL215
C:\Users\stapi\AppData\Local\Temp\cc4gZHfW.s:1802   .text.tlsv1_set_dhparams:000000000000000e .LVL210
C:\Users\stapi\AppData\Local\Temp\cc4gZHfW.s:1806   .text.tlsv1_set_dhparams:0000000000000012 .LVL211
C:\Users\stapi\AppData\Local\Temp\cc4gZHfW.s:1841   .text.tlsv1_set_dhparams:0000000000000032 .LVL214
C:\Users\stapi\AppData\Local\Temp\cc4gZHfW.s:1151   .text.tlsv1_set_dhparams_blob:0000000000000000 .LVL134
C:\Users\stapi\AppData\Local\Temp\cc4gZHfW.s:1173   .text.tlsv1_set_dhparams_blob:0000000000000014 .LVL135
C:\Users\stapi\AppData\Local\Temp\cc4gZHfW.s:1210   .text.tlsv1_set_dhparams_blob:000000000000004c .LVL140
C:\Users\stapi\AppData\Local\Temp\cc4gZHfW.s:1235   .text.tlsv1_set_dhparams_blob:0000000000000076 .LVL145
C:\Users\stapi\AppData\Local\Temp\cc4gZHfW.s:1187   .text.tlsv1_set_dhparams_blob:000000000000002c .LVL137
C:\Users\stapi\AppData\Local\Temp\cc4gZHfW.s:1219   .text.tlsv1_set_dhparams_blob:0000000000000058 .LVL141
C:\Users\stapi\AppData\Local\Temp\cc4gZHfW.s:1258   .text.tlsv1_set_dhparams_blob:00000000000000a2 .LVL149
C:\Users\stapi\AppData\Local\Temp\cc4gZHfW.s:1269   .text.tlsv1_set_dhparams_blob:00000000000000b4 .LVL152
C:\Users\stapi\AppData\Local\Temp\cc4gZHfW.s:1249   .text.tlsv1_set_dhparams_blob:0000000000000096 .LVL147
C:\Users\stapi\AppData\Local\Temp\cc4gZHfW.s:1265   .text.tlsv1_set_dhparams_blob:00000000000000aa .LVL150
C:\Users\stapi\AppData\Local\Temp\cc4gZHfW.s:913    .text.tlsv1_set_dhparams_der:0000000000000000 .LVL109
C:\Users\stapi\AppData\Local\Temp\cc4gZHfW.s:928    .text.tlsv1_set_dhparams_der:000000000000000e .LVL110
C:\Users\stapi\AppData\Local\Temp\cc4gZHfW.s:936    .text.tlsv1_set_dhparams_der:0000000000000014 .LVL112
C:\Users\stapi\AppData\Local\Temp\cc4gZHfW.s:939    .text.tlsv1_set_dhparams_der:0000000000000016 .LVL113
C:\Users\stapi\AppData\Local\Temp\cc4gZHfW.s:961    .text.tlsv1_set_dhparams_der:0000000000000032 .LVL117
C:\Users\stapi\AppData\Local\Temp\cc4gZHfW.s:975    .text.tlsv1_set_dhparams_der:000000000000004e .LVL119
C:\Users\stapi\AppData\Local\Temp\cc4gZHfW.s:980    .text.tlsv1_set_dhparams_der:0000000000000056 .LVL120
C:\Users\stapi\AppData\Local\Temp\cc4gZHfW.s:1056   .text.tlsv1_set_dhparams_der:00000000000000ba .LVL127
C:\Users\stapi\AppData\Local\Temp\cc4gZHfW.s:944    .text.tlsv1_set_dhparams_der:0000000000000022 .LVL115
C:\Users\stapi\AppData\Local\Temp\cc4gZHfW.s:955    .text.tlsv1_set_dhparams_der:0000000000000030 .LVL116
C:\Users\stapi\AppData\Local\Temp\cc4gZHfW.s:988    .text.tlsv1_set_dhparams_der:0000000000000062 .LVL122
C:\Users\stapi\AppData\Local\Temp\cc4gZHfW.s:998    .text.tlsv1_set_dhparams_der:0000000000000070 .LVL123
C:\Users\stapi\AppData\Local\Temp\cc4gZHfW.s:1064   .text.tlsv1_set_dhparams_der:00000000000000ca .LVL129
C:\Users\stapi\AppData\Local\Temp\cc4gZHfW.s:1074   .text.tlsv1_set_dhparams_der:00000000000000d8 .LVL130
C:\Users\stapi\AppData\Local\Temp\cc4gZHfW.s:1663   .text.tlsv1_set_private_key:0000000000000000 .LVL194
C:\Users\stapi\AppData\Local\Temp\cc4gZHfW.s:1677   .text.tlsv1_set_private_key:000000000000000c .LVL195
C:\Users\stapi\AppData\Local\Temp\cc4gZHfW.s:1711   .text.tlsv1_set_private_key:000000000000003a .LVL198
C:\Users\stapi\AppData\Local\Temp\cc4gZHfW.s:1720   .text.tlsv1_set_private_key:0000000000000042 .LVL199
C:\Users\stapi\AppData\Local\Temp\cc4gZHfW.s:1739   .text.tlsv1_set_private_key:0000000000000056 .LVL201
C:\Users\stapi\AppData\Local\Temp\cc4gZHfW.s:1748   .text.tlsv1_set_private_key:0000000000000064 .LVL202
C:\Users\stapi\AppData\Local\Temp\cc4gZHfW.s:1755   .text.tlsv1_set_private_key:0000000000000070 .LVL204
C:\Users\stapi\AppData\Local\Temp\cc4gZHfW.s:1763   .text.tlsv1_set_private_key:0000000000000078 .LVL205
C:\Users\stapi\AppData\Local\Temp\cc4gZHfW.s:465    .text.tlsv1_set_key:0000000000000000 .LVL48
C:\Users\stapi\AppData\Local\Temp\cc4gZHfW.s:488    .text.tlsv1_set_key:0000000000000016 .LVL51
C:\Users\stapi\AppData\Local\Temp\cc4gZHfW.s:486    .text.tlsv1_set_key:0000000000000014 .LVL50
C:\Users\stapi\AppData\Local\Temp\cc4gZHfW.s:555    .text.tlsv1_set_key:000000000000005e .LVL60
C:\Users\stapi\AppData\Local\Temp\cc4gZHfW.s:586    .text.tlsv1_set_key:0000000000000080 .LVL62
C:\Users\stapi\AppData\Local\Temp\cc4gZHfW.s:648    .text.tlsv1_set_key:00000000000000dc .LVL73
C:\Users\stapi\AppData\Local\Temp\cc4gZHfW.s:654    .text.tlsv1_set_key:00000000000000e0 .LVL74
C:\Users\stapi\AppData\Local\Temp\cc4gZHfW.s:753    .text.tlsv1_set_key:000000000000018a .LVL91
C:\Users\stapi\AppData\Local\Temp\cc4gZHfW.s:484    .text.tlsv1_set_key:0000000000000012 .LVL49
C:\Users\stapi\AppData\Local\Temp\cc4gZHfW.s:500    .text.tlsv1_set_key:0000000000000026 .LVL53
C:\Users\stapi\AppData\Local\Temp\cc4gZHfW.s:536    .text.tlsv1_set_key:0000000000000056 .LVL58
C:\Users\stapi\AppData\Local\Temp\cc4gZHfW.s:703    .text.tlsv1_set_key:0000000000000136 .LVL83
C:\Users\stapi\AppData\Local\Temp\cc4gZHfW.s:516    .text.tlsv1_set_key:000000000000003c .LVL55
C:\Users\stapi\AppData\Local\Temp\cc4gZHfW.s:635    .text.tlsv1_set_key:00000000000000cc .LVL71
C:\Users\stapi\AppData\Local\Temp\cc4gZHfW.s:610    .text.tlsv1_set_key:00000000000000a8 .LVL66
C:\Users\stapi\AppData\Local\Temp\cc4gZHfW.s:614    .text.tlsv1_set_key:00000000000000aa .LVL67
C:\Users\stapi\AppData\Local\Temp\cc4gZHfW.s:624    .text.tlsv1_set_key:00000000000000bc .LVL69
C:\Users\stapi\AppData\Local\Temp\cc4gZHfW.s:679    .text.tlsv1_set_key:0000000000000108 .LVL78
C:\Users\stapi\AppData\Local\Temp\cc4gZHfW.s:687    .text.tlsv1_set_key:0000000000000112 .LVL79
C:\Users\stapi\AppData\Local\Temp\cc4gZHfW.s:699    .text.tlsv1_set_key:000000000000012c .LVL81
C:\Users\stapi\AppData\Local\Temp\cc4gZHfW.s:545    .text.tlsv1_set_key:000000000000005a .LVL59
C:\Users\stapi\AppData\Local\Temp\cc4gZHfW.s:719    .text.tlsv1_set_key:000000000000014c .LVL85
C:\Users\stapi\AppData\Local\Temp\cc4gZHfW.s:764    .text.tlsv1_set_key:000000000000019c .LVL93
C:\Users\stapi\AppData\Local\Temp\cc4gZHfW.s:749    .text.tlsv1_set_key:0000000000000180 .LVL89
C:\Users\stapi\AppData\Local\Temp\cc4gZHfW.s:1645   .text.tlsv1_set_cert:0000000000000000 .LVL191
C:\Users\stapi\AppData\Local\Temp\cc4gZHfW.s:1649   .text.tlsv1_set_cert:0000000000000002 .LVL192
C:\Users\stapi\AppData\Local\Temp\cc4gZHfW.s:1430   .text.tlsv1_set_ca_cert:0000000000000000 .LVL170
C:\Users\stapi\AppData\Local\Temp\cc4gZHfW.s:1456   .text.tlsv1_set_ca_cert:0000000000000020 .LVL173
C:\Users\stapi\AppData\Local\Temp\cc4gZHfW.s:1563   .text.tlsv1_set_ca_cert:00000000000000ca .LVL186
C:\Users\stapi\AppData\Local\Temp\cc4gZHfW.s:1571   .text.tlsv1_set_ca_cert:00000000000000d0 .LVL187
C:\Users\stapi\AppData\Local\Temp\cc4gZHfW.s:1451   .text.tlsv1_set_ca_cert:0000000000000018 .LVL171
C:\Users\stapi\AppData\Local\Temp\cc4gZHfW.s:1453   .text.tlsv1_set_ca_cert:000000000000001a .LVL172
C:\Users\stapi\AppData\Local\Temp\cc4gZHfW.s:1480   .text.tlsv1_set_ca_cert:000000000000004e .LVL178
C:\Users\stapi\AppData\Local\Temp\cc4gZHfW.s:1504   .text.tlsv1_set_ca_cert:0000000000000064 .LVL180
C:\Users\stapi\AppData\Local\Temp\cc4gZHfW.s:1511   .text.tlsv1_set_ca_cert:0000000000000068 .LVL181
C:\Users\stapi\AppData\Local\Temp\cc4gZHfW.s:1463   .text.tlsv1_set_ca_cert:000000000000002a .LVL175
C:\Users\stapi\AppData\Local\Temp\cc4gZHfW.s:1470   .text.tlsv1_set_ca_cert:0000000000000038 .LVL176
C:\Users\stapi\AppData\Local\Temp\cc4gZHfW.s:1553   .text.tlsv1_set_ca_cert:00000000000000be .LVL184
C:\Users\stapi\AppData\Local\Temp\cc4gZHfW.s:243    .text.tlsv1_add_cert:0000000000000000 .LVL20
C:\Users\stapi\AppData\Local\Temp\cc4gZHfW.s:266    .text.tlsv1_add_cert:0000000000000014 .LVL21
C:\Users\stapi\AppData\Local\Temp\cc4gZHfW.s:304    .text.tlsv1_add_cert:000000000000004c .LVL26
C:\Users\stapi\AppData\Local\Temp\cc4gZHfW.s:320    .text.tlsv1_add_cert:0000000000000062 .LVL29
C:\Users\stapi\AppData\Local\Temp\cc4gZHfW.s:323    .text.tlsv1_add_cert:0000000000000066 .LVL30
C:\Users\stapi\AppData\Local\Temp\cc4gZHfW.s:280    .text.tlsv1_add_cert:000000000000002c .LVL23
C:\Users\stapi\AppData\Local\Temp\cc4gZHfW.s:313    .text.tlsv1_add_cert:0000000000000058 .LVL27
C:\Users\stapi\AppData\Local\Temp\cc4gZHfW.s:358    .text.tlsv1_add_cert:00000000000000a4 .LVL36
C:\Users\stapi\AppData\Local\Temp\cc4gZHfW.s:368    .text.tlsv1_add_cert:00000000000000b6 .LVL38
C:\Users\stapi\AppData\Local\Temp\cc4gZHfW.s:421    .text.tlsv1_add_cert:0000000000000128 .LVL47
C:\Users\stapi\AppData\Local\Temp\cc4gZHfW.s:341    .text.tlsv1_add_cert:0000000000000088 .LVL34
C:\Users\stapi\AppData\Local\Temp\cc4gZHfW.s:413    .text.tlsv1_add_cert:0000000000000116 .LVL45
C:\Users\stapi\AppData\Local\Temp\cc4gZHfW.s:143    .text.search_tag:0000000000000000 .LVL13
C:\Users\stapi\AppData\Local\Temp\cc4gZHfW.s:167    .text.search_tag:000000000000001e .LVL15
C:\Users\stapi\AppData\Local\Temp\cc4gZHfW.s:206    .text.search_tag:0000000000000046 .LVL19
C:\Users\stapi\AppData\Local\Temp\cc4gZHfW.s:184    .text.search_tag:000000000000002a .LVL16
C:\Users\stapi\AppData\Local\Temp\cc4gZHfW.s:24     .text.tlsv1_add_cert_der:0000000000000000 .LVL0
C:\Users\stapi\AppData\Local\Temp\cc4gZHfW.s:40     .text.tlsv1_add_cert_der:000000000000000e .LVL1
C:\Users\stapi\AppData\Local\Temp\cc4gZHfW.s:43     .text.tlsv1_add_cert_der:0000000000000010 .LVL2
C:\Users\stapi\AppData\Local\Temp\cc4gZHfW.s:53     .text.tlsv1_add_cert_der:0000000000000024 .LVL4
C:\Users\stapi\AppData\Local\Temp\cc4gZHfW.s:72     .text.tlsv1_add_cert_der:0000000000000040 .LVL6
C:\Users\stapi\AppData\Local\Temp\cc4gZHfW.s:79     .text.tlsv1_add_cert_der:0000000000000046 .LVL7
C:\Users\stapi\AppData\Local\Temp\cc4gZHfW.s:108    .text.tlsv1_add_cert_der:000000000000006c .LVL9
C:\Users\stapi\AppData\Local\Temp\cc4gZHfW.s:110    .text.tlsv1_add_cert_der:000000000000006e .LVL10
C:\Users\stapi\AppData\Local\Temp\cc4gZHfW.s:1340   .text.tlsv1_cred_free:0000000000000000 .LVL159
C:\Users\stapi\AppData\Local\Temp\cc4gZHfW.s:1352   .text.tlsv1_cred_free:000000000000000e .LVL160
C:\Users\stapi\AppData\Local\Temp\cc4gZHfW.s:1388   .text.tlsv1_cred_free:0000000000000064 .LVL169
C:\Users\stapi\AppData\Local\Temp\cc4gZHfW.s:792    .text.tlsv1_set_cert_chain:0000000000000000 .LVL95
C:\Users\stapi\AppData\Local\Temp\cc4gZHfW.s:829    .text.tlsv1_set_cert_chain:0000000000000028 .LVL99
C:\Users\stapi\AppData\Local\Temp\cc4gZHfW.s:849    .text.tlsv1_set_cert_chain:0000000000000034 .LVL102
C:\Users\stapi\AppData\Local\Temp\cc4gZHfW.s:805    .text.tlsv1_set_cert_chain:000000000000000e .LVL96
C:\Users\stapi\AppData\Local\Temp\cc4gZHfW.s:810    .text.tlsv1_set_cert_chain:0000000000000012 .LVL97
C:\Users\stapi\AppData\Local\Temp\cc4gZHfW.s:847    .text.tlsv1_set_cert_chain:0000000000000032 .LVL101
C:\Users\stapi\AppData\Local\Temp\cc4gZHfW.s:838    .text.tlsv1_set_cert_chain:0000000000000030 .LVL100
C:\Users\stapi\AppData\Local\Temp\cc4gZHfW.s:853    .text.tlsv1_set_cert_chain:000000000000003e .LVL104
C:\Users\stapi\AppData\Local\Temp\cc4gZHfW.s:877    .text.tlsv1_set_cert_chain:0000000000000068 .LVL107
C:\Users\stapi\AppData\Local\Temp\cc4gZHfW.s:1905   .debug_info:0000000000000000 .Ldebug_info0
C:\Users\stapi\AppData\Local\Temp\cc4gZHfW.s:539    .text.tlsv1_set_key:0000000000000056 .LBE8
C:\Users\stapi\AppData\Local\Temp\cc4gZHfW.s:589    .text.tlsv1_set_key:0000000000000080 .LBB17
C:\Users\stapi\AppData\Local\Temp\cc4gZHfW.s:642    .text.tlsv1_set_key:00000000000000d6 .LBE17
C:\Users\stapi\AppData\Local\Temp\cc4gZHfW.s:656    .text.tlsv1_set_key:00000000000000e0 .LBB18
C:\Users\stapi\AppData\Local\Temp\cc4gZHfW.s:707    .text.tlsv1_set_key:0000000000000136 .LBE18
C:\Users\stapi\AppData\Local\Temp\cc4gZHfW.s:534    .text.tlsv1_set_key:0000000000000056 .LBB10
C:\Users\stapi\AppData\Local\Temp\cc4gZHfW.s:537    .text.tlsv1_set_key:0000000000000056 .LBE10
C:\Users\stapi\AppData\Local\Temp\cc4gZHfW.s:658    .text.tlsv1_set_key:00000000000000e0 .LBB11
C:\Users\stapi\AppData\Local\Temp\cc4gZHfW.s:705    .text.tlsv1_set_key:0000000000000136 .LBE11
C:\Users\stapi\AppData\Local\Temp\cc4gZHfW.s:558    .text.tlsv1_set_key:000000000000005e .LBE14
C:\Users\stapi\AppData\Local\Temp\cc4gZHfW.s:708    .text.tlsv1_set_key:0000000000000136 .LBB19
C:\Users\stapi\AppData\Local\Temp\cc4gZHfW.s:771    .text.tlsv1_set_key:00000000000001a6 .LBE19
C:\Users\stapi\AppData\Local\Temp\cc4gZHfW.s:1461   .text.tlsv1_set_ca_cert:000000000000002a .LBB37
C:\Users\stapi\AppData\Local\Temp\cc4gZHfW.s:1491   .text.tlsv1_set_ca_cert:000000000000005a .LBE37
C:\Users\stapi\AppData\Local\Temp\cc4gZHfW.s:1507   .text.tlsv1_set_ca_cert:0000000000000064 .LBB38
C:\Users\stapi\AppData\Local\Temp\cc4gZHfW.s:1555   .text.tlsv1_set_ca_cert:00000000000000be .LBE38

UNDEFINED SYMBOLS
__riscv_save_3
x509_certificate_parse
wpa_printf
__riscv_restore_3
x509_name_compare
x509_name_string
__riscv_save_6
os_strlen
__riscv_restore_6
os_memcmp
base64_decode
os_free
crypto_private_key_import
__riscv_save_4
__riscv_restore_4
os_readfile
__riscv_save_2
asn1_get_next
asn1_unexpected
wpa_hexdump
__riscv_restore_2
os_memdup
__riscv_save_5
__riscv_restore_5
os_zalloc
__riscv_save_1
x509_certificate_chain_free
crypto_private_key_free
__riscv_restore_1
os_strncmp
hexstr2bin
