   1              		.file	"tlsv1_client.c"
   2              		.option nopic
   3              		.attribute arch, "rv32i2p0_m2p0_a2p0_f2p0_c2p0_b_p0p94"
   4              		.attribute unaligned_access, 0
   5              		.attribute stack_align, 16
   6              		.text
   7              	.Ltext0:
   8              		.cfi_sections	.debug_frame
   9              		.section	.text.tls_alert,"ax",@progbits
  10              		.align	1
  11              		.globl	tls_alert
  13              	tls_alert:
  14              	.LFB86:
  15              		.file 1 "C:/Users/stapi/OneDrive/Desktop/GD32VW553/V1_MQTT_OK/GD32VW55X_Wifi_BLE_SDK/GD32VW55x_REL
   1:C:/Users/stapi/OneDrive/Desktop/GD32VW553/V1_MQTT_OK/GD32VW55X_Wifi_BLE_SDK/GD32VW55x_RELEASE_V1.0.2/MSDK/wpa_supplicant/src/tls\tlsv1_client.c **** /*
   2:C:/Users/stapi/OneDrive/Desktop/GD32VW553/V1_MQTT_OK/GD32VW55X_Wifi_BLE_SDK/GD32VW55x_RELEASE_V1.0.2/MSDK/wpa_supplicant/src/tls\tlsv1_client.c ****  * TLS v1.0/v1.1/v1.2 client (RFC 2246, RFC 4346, RFC 5246)
   3:C:/Users/stapi/OneDrive/Desktop/GD32VW553/V1_MQTT_OK/GD32VW55X_Wifi_BLE_SDK/GD32VW55x_RELEASE_V1.0.2/MSDK/wpa_supplicant/src/tls\tlsv1_client.c ****  * Copyright (c) 2006-2019, Jouni Malinen <j@w1.fi>
   4:C:/Users/stapi/OneDrive/Desktop/GD32VW553/V1_MQTT_OK/GD32VW55X_Wifi_BLE_SDK/GD32VW55x_RELEASE_V1.0.2/MSDK/wpa_supplicant/src/tls\tlsv1_client.c ****  *
   5:C:/Users/stapi/OneDrive/Desktop/GD32VW553/V1_MQTT_OK/GD32VW55X_Wifi_BLE_SDK/GD32VW55x_RELEASE_V1.0.2/MSDK/wpa_supplicant/src/tls\tlsv1_client.c ****  * This software may be distributed under the terms of the BSD license.
   6:C:/Users/stapi/OneDrive/Desktop/GD32VW553/V1_MQTT_OK/GD32VW55X_Wifi_BLE_SDK/GD32VW55x_RELEASE_V1.0.2/MSDK/wpa_supplicant/src/tls\tlsv1_client.c ****  * See README for more details.
   7:C:/Users/stapi/OneDrive/Desktop/GD32VW553/V1_MQTT_OK/GD32VW55X_Wifi_BLE_SDK/GD32VW55x_RELEASE_V1.0.2/MSDK/wpa_supplicant/src/tls\tlsv1_client.c ****  */
   8:C:/Users/stapi/OneDrive/Desktop/GD32VW553/V1_MQTT_OK/GD32VW55X_Wifi_BLE_SDK/GD32VW55x_RELEASE_V1.0.2/MSDK/wpa_supplicant/src/tls\tlsv1_client.c **** 
   9:C:/Users/stapi/OneDrive/Desktop/GD32VW553/V1_MQTT_OK/GD32VW55X_Wifi_BLE_SDK/GD32VW55x_RELEASE_V1.0.2/MSDK/wpa_supplicant/src/tls\tlsv1_client.c **** #include "includes.h"
  10:C:/Users/stapi/OneDrive/Desktop/GD32VW553/V1_MQTT_OK/GD32VW55X_Wifi_BLE_SDK/GD32VW55x_RELEASE_V1.0.2/MSDK/wpa_supplicant/src/tls\tlsv1_client.c **** 
  11:C:/Users/stapi/OneDrive/Desktop/GD32VW553/V1_MQTT_OK/GD32VW55X_Wifi_BLE_SDK/GD32VW55x_RELEASE_V1.0.2/MSDK/wpa_supplicant/src/tls\tlsv1_client.c **** #include "common.h"
  12:C:/Users/stapi/OneDrive/Desktop/GD32VW553/V1_MQTT_OK/GD32VW55X_Wifi_BLE_SDK/GD32VW55x_RELEASE_V1.0.2/MSDK/wpa_supplicant/src/tls\tlsv1_client.c **** #include "crypto/sha1.h"
  13:C:/Users/stapi/OneDrive/Desktop/GD32VW553/V1_MQTT_OK/GD32VW55X_Wifi_BLE_SDK/GD32VW55x_RELEASE_V1.0.2/MSDK/wpa_supplicant/src/tls\tlsv1_client.c **** #include "crypto/tls.h"
  14:C:/Users/stapi/OneDrive/Desktop/GD32VW553/V1_MQTT_OK/GD32VW55X_Wifi_BLE_SDK/GD32VW55x_RELEASE_V1.0.2/MSDK/wpa_supplicant/src/tls\tlsv1_client.c **** #include "x509v3.h"
  15:C:/Users/stapi/OneDrive/Desktop/GD32VW553/V1_MQTT_OK/GD32VW55X_Wifi_BLE_SDK/GD32VW55x_RELEASE_V1.0.2/MSDK/wpa_supplicant/src/tls\tlsv1_client.c **** #include "tlsv1_common.h"
  16:C:/Users/stapi/OneDrive/Desktop/GD32VW553/V1_MQTT_OK/GD32VW55X_Wifi_BLE_SDK/GD32VW55x_RELEASE_V1.0.2/MSDK/wpa_supplicant/src/tls\tlsv1_client.c **** #include "tlsv1_record.h"
  17:C:/Users/stapi/OneDrive/Desktop/GD32VW553/V1_MQTT_OK/GD32VW55X_Wifi_BLE_SDK/GD32VW55x_RELEASE_V1.0.2/MSDK/wpa_supplicant/src/tls\tlsv1_client.c **** #include "tlsv1_client.h"
  18:C:/Users/stapi/OneDrive/Desktop/GD32VW553/V1_MQTT_OK/GD32VW55X_Wifi_BLE_SDK/GD32VW55x_RELEASE_V1.0.2/MSDK/wpa_supplicant/src/tls\tlsv1_client.c **** #include "tlsv1_client_i.h"
  19:C:/Users/stapi/OneDrive/Desktop/GD32VW553/V1_MQTT_OK/GD32VW55X_Wifi_BLE_SDK/GD32VW55x_RELEASE_V1.0.2/MSDK/wpa_supplicant/src/tls\tlsv1_client.c **** 
  20:C:/Users/stapi/OneDrive/Desktop/GD32VW553/V1_MQTT_OK/GD32VW55X_Wifi_BLE_SDK/GD32VW55x_RELEASE_V1.0.2/MSDK/wpa_supplicant/src/tls\tlsv1_client.c **** /* TODO:
  21:C:/Users/stapi/OneDrive/Desktop/GD32VW553/V1_MQTT_OK/GD32VW55X_Wifi_BLE_SDK/GD32VW55x_RELEASE_V1.0.2/MSDK/wpa_supplicant/src/tls\tlsv1_client.c ****  * Support for a message fragmented across several records (RFC 2246, 6.2.1)
  22:C:/Users/stapi/OneDrive/Desktop/GD32VW553/V1_MQTT_OK/GD32VW55X_Wifi_BLE_SDK/GD32VW55x_RELEASE_V1.0.2/MSDK/wpa_supplicant/src/tls\tlsv1_client.c ****  */
  23:C:/Users/stapi/OneDrive/Desktop/GD32VW553/V1_MQTT_OK/GD32VW55X_Wifi_BLE_SDK/GD32VW55x_RELEASE_V1.0.2/MSDK/wpa_supplicant/src/tls\tlsv1_client.c **** 
  24:C:/Users/stapi/OneDrive/Desktop/GD32VW553/V1_MQTT_OK/GD32VW55X_Wifi_BLE_SDK/GD32VW55x_RELEASE_V1.0.2/MSDK/wpa_supplicant/src/tls\tlsv1_client.c **** 
  25:C:/Users/stapi/OneDrive/Desktop/GD32VW553/V1_MQTT_OK/GD32VW55X_Wifi_BLE_SDK/GD32VW55x_RELEASE_V1.0.2/MSDK/wpa_supplicant/src/tls\tlsv1_client.c **** void tls_alert(struct tlsv1_client *conn, u8 level, u8 description)
  26:C:/Users/stapi/OneDrive/Desktop/GD32VW553/V1_MQTT_OK/GD32VW55X_Wifi_BLE_SDK/GD32VW55x_RELEASE_V1.0.2/MSDK/wpa_supplicant/src/tls\tlsv1_client.c **** {
  16              		.loc 1 26 1
  17              		.cfi_startproc
  18              	.LVL0:
  27:C:/Users/stapi/OneDrive/Desktop/GD32VW553/V1_MQTT_OK/GD32VW55X_Wifi_BLE_SDK/GD32VW55x_RELEASE_V1.0.2/MSDK/wpa_supplicant/src/tls\tlsv1_client.c **** 	conn->alert_level = level;
  19              		.loc 1 27 2
  20              		.loc 1 27 20 is_stmt 0
  21 0000 2308B516 		sb	a1,368(a0)
  28:C:/Users/stapi/OneDrive/Desktop/GD32VW553/V1_MQTT_OK/GD32VW55X_Wifi_BLE_SDK/GD32VW55x_RELEASE_V1.0.2/MSDK/wpa_supplicant/src/tls\tlsv1_client.c **** 	conn->alert_description = description;
  22              		.loc 1 28 2 is_stmt 1
  23              		.loc 1 28 26 is_stmt 0
  24 0004 A308C516 		sb	a2,369(a0)
  29:C:/Users/stapi/OneDrive/Desktop/GD32VW553/V1_MQTT_OK/GD32VW55X_Wifi_BLE_SDK/GD32VW55x_RELEASE_V1.0.2/MSDK/wpa_supplicant/src/tls\tlsv1_client.c **** }
  25              		.loc 1 29 1
  26 0008 8280     		ret
  27              		.cfi_endproc
  28              	.LFE86:
  30              		.section	.text.tlsv1_client_free_dh,"ax",@progbits
  31              		.align	1
  32              		.globl	tlsv1_client_free_dh
  34              	tlsv1_client_free_dh:
  35              	.LFB87:
  30:C:/Users/stapi/OneDrive/Desktop/GD32VW553/V1_MQTT_OK/GD32VW55X_Wifi_BLE_SDK/GD32VW55x_RELEASE_V1.0.2/MSDK/wpa_supplicant/src/tls\tlsv1_client.c **** 
  31:C:/Users/stapi/OneDrive/Desktop/GD32VW553/V1_MQTT_OK/GD32VW55X_Wifi_BLE_SDK/GD32VW55x_RELEASE_V1.0.2/MSDK/wpa_supplicant/src/tls\tlsv1_client.c **** 
  32:C:/Users/stapi/OneDrive/Desktop/GD32VW553/V1_MQTT_OK/GD32VW55X_Wifi_BLE_SDK/GD32VW55x_RELEASE_V1.0.2/MSDK/wpa_supplicant/src/tls\tlsv1_client.c **** void tlsv1_client_free_dh(struct tlsv1_client *conn)
  33:C:/Users/stapi/OneDrive/Desktop/GD32VW553/V1_MQTT_OK/GD32VW55X_Wifi_BLE_SDK/GD32VW55x_RELEASE_V1.0.2/MSDK/wpa_supplicant/src/tls\tlsv1_client.c **** {
  36              		.loc 1 33 1 is_stmt 1
  37              		.cfi_startproc
  38              	.LVL1:
  39 0000 17030000 		call	t0,__riscv_save_1
  39      E7020300 
  40              		.cfi_offset 8, -8
  41              		.cfi_offset 1, -4
  42              		.cfi_def_cfa_offset 16
  34:C:/Users/stapi/OneDrive/Desktop/GD32VW553/V1_MQTT_OK/GD32VW55X_Wifi_BLE_SDK/GD32VW55x_RELEASE_V1.0.2/MSDK/wpa_supplicant/src/tls\tlsv1_client.c **** 	os_free(conn->dh_p);
  43              		.loc 1 34 2
  33:C:/Users/stapi/OneDrive/Desktop/GD32VW553/V1_MQTT_OK/GD32VW55X_Wifi_BLE_SDK/GD32VW55x_RELEASE_V1.0.2/MSDK/wpa_supplicant/src/tls\tlsv1_client.c **** 	os_free(conn->dh_p);
  44              		.loc 1 33 1 is_stmt 0
  45 0008 2A84     		mv	s0,a0
  46              		.loc 1 34 2
  47 000a 0325051F 		lw	a0,496(a0)
  48              	.LVL2:
  49 000e 97000000 		call	os_free
  49      E7800000 
  50              	.LVL3:
  35:C:/Users/stapi/OneDrive/Desktop/GD32VW553/V1_MQTT_OK/GD32VW55X_Wifi_BLE_SDK/GD32VW55x_RELEASE_V1.0.2/MSDK/wpa_supplicant/src/tls\tlsv1_client.c **** 	os_free(conn->dh_g);
  51              		.loc 1 35 2 is_stmt 1
  52 0016 0325841F 		lw	a0,504(s0)
  53 001a 97000000 		call	os_free
  53      E7800000 
  54              	.LVL4:
  36:C:/Users/stapi/OneDrive/Desktop/GD32VW553/V1_MQTT_OK/GD32VW55X_Wifi_BLE_SDK/GD32VW55x_RELEASE_V1.0.2/MSDK/wpa_supplicant/src/tls\tlsv1_client.c **** 	os_free(conn->dh_ys);
  55              		.loc 1 36 2
  56 0022 03250420 		lw	a0,512(s0)
  57 0026 97000000 		call	os_free
  57      E7800000 
  58              	.LVL5:
  37:C:/Users/stapi/OneDrive/Desktop/GD32VW553/V1_MQTT_OK/GD32VW55X_Wifi_BLE_SDK/GD32VW55x_RELEASE_V1.0.2/MSDK/wpa_supplicant/src/tls\tlsv1_client.c **** 	conn->dh_p = conn->dh_g = conn->dh_ys = NULL;
  59              		.loc 1 37 2
  60              		.loc 1 37 40 is_stmt 0
  61 002e 23200420 		sw	zero,512(s0)
  62              		.loc 1 37 26
  63 0032 232C041E 		sw	zero,504(s0)
  64              		.loc 1 37 13
  65 0036 2328041E 		sw	zero,496(s0)
  38:C:/Users/stapi/OneDrive/Desktop/GD32VW553/V1_MQTT_OK/GD32VW55X_Wifi_BLE_SDK/GD32VW55x_RELEASE_V1.0.2/MSDK/wpa_supplicant/src/tls\tlsv1_client.c **** }
  66              		.loc 1 38 1
  67 003a 17030000 		tail	__riscv_restore_1
  67      67000300 
  68              		.cfi_restore 8
  69              		.cfi_restore 1
  70              		.cfi_def_cfa_offset 0
  71              		.cfi_endproc
  72              	.LFE87:
  74              		.section	.text.tls_client_highest_ver,"ax",@progbits
  75              		.align	1
  76              		.globl	tls_client_highest_ver
  78              	tls_client_highest_ver:
  79              	.LFB88:
  39:C:/Users/stapi/OneDrive/Desktop/GD32VW553/V1_MQTT_OK/GD32VW55X_Wifi_BLE_SDK/GD32VW55x_RELEASE_V1.0.2/MSDK/wpa_supplicant/src/tls\tlsv1_client.c **** 
  40:C:/Users/stapi/OneDrive/Desktop/GD32VW553/V1_MQTT_OK/GD32VW55X_Wifi_BLE_SDK/GD32VW55x_RELEASE_V1.0.2/MSDK/wpa_supplicant/src/tls\tlsv1_client.c **** 
  41:C:/Users/stapi/OneDrive/Desktop/GD32VW553/V1_MQTT_OK/GD32VW55X_Wifi_BLE_SDK/GD32VW55x_RELEASE_V1.0.2/MSDK/wpa_supplicant/src/tls\tlsv1_client.c **** u16 tls_client_highest_ver(struct tlsv1_client *conn)
  42:C:/Users/stapi/OneDrive/Desktop/GD32VW553/V1_MQTT_OK/GD32VW55X_Wifi_BLE_SDK/GD32VW55x_RELEASE_V1.0.2/MSDK/wpa_supplicant/src/tls\tlsv1_client.c **** {
  80              		.loc 1 42 1 is_stmt 1
  81              		.cfi_startproc
  82              	.LVL6:
  43:C:/Users/stapi/OneDrive/Desktop/GD32VW553/V1_MQTT_OK/GD32VW55X_Wifi_BLE_SDK/GD32VW55x_RELEASE_V1.0.2/MSDK/wpa_supplicant/src/tls\tlsv1_client.c **** 	u16 tls_version = TLS_VERSION;
  83              		.loc 1 43 2
  44:C:/Users/stapi/OneDrive/Desktop/GD32VW553/V1_MQTT_OK/GD32VW55X_Wifi_BLE_SDK/GD32VW55x_RELEASE_V1.0.2/MSDK/wpa_supplicant/src/tls\tlsv1_client.c **** 
  45:C:/Users/stapi/OneDrive/Desktop/GD32VW553/V1_MQTT_OK/GD32VW55X_Wifi_BLE_SDK/GD32VW55x_RELEASE_V1.0.2/MSDK/wpa_supplicant/src/tls\tlsv1_client.c **** 	/* Pick the highest locally enabled TLS version */
  46:C:/Users/stapi/OneDrive/Desktop/GD32VW553/V1_MQTT_OK/GD32VW55X_Wifi_BLE_SDK/GD32VW55x_RELEASE_V1.0.2/MSDK/wpa_supplicant/src/tls\tlsv1_client.c **** #ifdef CONFIG_TLSV12
  47:C:/Users/stapi/OneDrive/Desktop/GD32VW553/V1_MQTT_OK/GD32VW55X_Wifi_BLE_SDK/GD32VW55x_RELEASE_V1.0.2/MSDK/wpa_supplicant/src/tls\tlsv1_client.c **** 	if ((conn->flags & TLS_CONN_DISABLE_TLSv1_2) &&
  48:C:/Users/stapi/OneDrive/Desktop/GD32VW553/V1_MQTT_OK/GD32VW55X_Wifi_BLE_SDK/GD32VW55x_RELEASE_V1.0.2/MSDK/wpa_supplicant/src/tls\tlsv1_client.c **** 	    tls_version == TLS_VERSION_1_2)
  49:C:/Users/stapi/OneDrive/Desktop/GD32VW553/V1_MQTT_OK/GD32VW55X_Wifi_BLE_SDK/GD32VW55x_RELEASE_V1.0.2/MSDK/wpa_supplicant/src/tls\tlsv1_client.c **** 		tls_version = TLS_VERSION_1_1;
  50:C:/Users/stapi/OneDrive/Desktop/GD32VW553/V1_MQTT_OK/GD32VW55X_Wifi_BLE_SDK/GD32VW55x_RELEASE_V1.0.2/MSDK/wpa_supplicant/src/tls\tlsv1_client.c **** #endif /* CONFIG_TLSV12 */
  51:C:/Users/stapi/OneDrive/Desktop/GD32VW553/V1_MQTT_OK/GD32VW55X_Wifi_BLE_SDK/GD32VW55x_RELEASE_V1.0.2/MSDK/wpa_supplicant/src/tls\tlsv1_client.c **** #ifdef CONFIG_TLSV11
  52:C:/Users/stapi/OneDrive/Desktop/GD32VW553/V1_MQTT_OK/GD32VW55X_Wifi_BLE_SDK/GD32VW55x_RELEASE_V1.0.2/MSDK/wpa_supplicant/src/tls\tlsv1_client.c **** 	if ((conn->flags & TLS_CONN_DISABLE_TLSv1_1) &&
  53:C:/Users/stapi/OneDrive/Desktop/GD32VW553/V1_MQTT_OK/GD32VW55X_Wifi_BLE_SDK/GD32VW55x_RELEASE_V1.0.2/MSDK/wpa_supplicant/src/tls\tlsv1_client.c **** 	    tls_version == TLS_VERSION_1_1)
  54:C:/Users/stapi/OneDrive/Desktop/GD32VW553/V1_MQTT_OK/GD32VW55X_Wifi_BLE_SDK/GD32VW55x_RELEASE_V1.0.2/MSDK/wpa_supplicant/src/tls\tlsv1_client.c **** 		tls_version = TLS_VERSION_1;
  55:C:/Users/stapi/OneDrive/Desktop/GD32VW553/V1_MQTT_OK/GD32VW55X_Wifi_BLE_SDK/GD32VW55x_RELEASE_V1.0.2/MSDK/wpa_supplicant/src/tls\tlsv1_client.c **** #endif /* CONFIG_TLSV11 */
  56:C:/Users/stapi/OneDrive/Desktop/GD32VW553/V1_MQTT_OK/GD32VW55X_Wifi_BLE_SDK/GD32VW55x_RELEASE_V1.0.2/MSDK/wpa_supplicant/src/tls\tlsv1_client.c **** 	if ((conn->flags & TLS_CONN_DISABLE_TLSv1_0) &&
  84              		.loc 1 56 2
  85              		.loc 1 56 19 is_stmt 0
  86 0000 83274517 		lw	a5,372(a0)
  87 0004 93F70710 		andi	a5,a5,256
  88              		.loc 1 56 5
  89 0008 99C3     		beq	a5,zero,.L6
  57:C:/Users/stapi/OneDrive/Desktop/GD32VW553/V1_MQTT_OK/GD32VW55X_Wifi_BLE_SDK/GD32VW55x_RELEASE_V1.0.2/MSDK/wpa_supplicant/src/tls\tlsv1_client.c **** 	    tls_version == TLS_VERSION_1)
  58:C:/Users/stapi/OneDrive/Desktop/GD32VW553/V1_MQTT_OK/GD32VW55X_Wifi_BLE_SDK/GD32VW55x_RELEASE_V1.0.2/MSDK/wpa_supplicant/src/tls\tlsv1_client.c **** 		return 0;
  90              		.loc 1 58 10
  91 000a 0145     		li	a0,0
  92              	.LVL7:
  93 000c 8280     		ret
  94              	.LVL8:
  95              	.L6:
  59:C:/Users/stapi/OneDrive/Desktop/GD32VW553/V1_MQTT_OK/GD32VW55X_Wifi_BLE_SDK/GD32VW55x_RELEASE_V1.0.2/MSDK/wpa_supplicant/src/tls\tlsv1_client.c **** 
  60:C:/Users/stapi/OneDrive/Desktop/GD32VW553/V1_MQTT_OK/GD32VW55X_Wifi_BLE_SDK/GD32VW55x_RELEASE_V1.0.2/MSDK/wpa_supplicant/src/tls\tlsv1_client.c **** 	return tls_version;
  96              		.loc 1 60 9
  97 000e 13051030 		li	a0,769
  98              	.LVL9:
  61:C:/Users/stapi/OneDrive/Desktop/GD32VW553/V1_MQTT_OK/GD32VW55X_Wifi_BLE_SDK/GD32VW55x_RELEASE_V1.0.2/MSDK/wpa_supplicant/src/tls\tlsv1_client.c **** }
  99              		.loc 1 61 1
 100 0012 8280     		ret
 101              		.cfi_endproc
 102              	.LFE88:
 104              		.section	.text.tls_derive_pre_master_secret,"ax",@progbits
 105              		.align	1
 106              		.globl	tls_derive_pre_master_secret
 108              	tls_derive_pre_master_secret:
 109              	.LFB89:
  62:C:/Users/stapi/OneDrive/Desktop/GD32VW553/V1_MQTT_OK/GD32VW55X_Wifi_BLE_SDK/GD32VW55x_RELEASE_V1.0.2/MSDK/wpa_supplicant/src/tls\tlsv1_client.c **** 
  63:C:/Users/stapi/OneDrive/Desktop/GD32VW553/V1_MQTT_OK/GD32VW55X_Wifi_BLE_SDK/GD32VW55x_RELEASE_V1.0.2/MSDK/wpa_supplicant/src/tls\tlsv1_client.c **** 
  64:C:/Users/stapi/OneDrive/Desktop/GD32VW553/V1_MQTT_OK/GD32VW55X_Wifi_BLE_SDK/GD32VW55x_RELEASE_V1.0.2/MSDK/wpa_supplicant/src/tls\tlsv1_client.c **** int tls_derive_pre_master_secret(struct tlsv1_client *conn,
  65:C:/Users/stapi/OneDrive/Desktop/GD32VW553/V1_MQTT_OK/GD32VW55X_Wifi_BLE_SDK/GD32VW55x_RELEASE_V1.0.2/MSDK/wpa_supplicant/src/tls\tlsv1_client.c **** 				 u8 *pre_master_secret)
  66:C:/Users/stapi/OneDrive/Desktop/GD32VW553/V1_MQTT_OK/GD32VW55X_Wifi_BLE_SDK/GD32VW55x_RELEASE_V1.0.2/MSDK/wpa_supplicant/src/tls\tlsv1_client.c **** {
 110              		.loc 1 66 1 is_stmt 1
 111              		.cfi_startproc
 112              	.LVL10:
 113 0000 17030000 		call	t0,__riscv_save_1
 113      E7020300 
 114              		.cfi_offset 8, -8
 115              		.cfi_offset 1, -4
 116              		.cfi_def_cfa_offset 16
  67:C:/Users/stapi/OneDrive/Desktop/GD32VW553/V1_MQTT_OK/GD32VW55X_Wifi_BLE_SDK/GD32VW55x_RELEASE_V1.0.2/MSDK/wpa_supplicant/src/tls\tlsv1_client.c **** 	WPA_PUT_BE16(pre_master_secret, tls_client_highest_ver(conn));
 117              		.loc 1 67 2
  66:C:/Users/stapi/OneDrive/Desktop/GD32VW553/V1_MQTT_OK/GD32VW55X_Wifi_BLE_SDK/GD32VW55x_RELEASE_V1.0.2/MSDK/wpa_supplicant/src/tls\tlsv1_client.c **** 	WPA_PUT_BE16(pre_master_secret, tls_client_highest_ver(conn));
 118              		.loc 1 66 1 is_stmt 0
 119 0008 2E84     		mv	s0,a1
 120              		.loc 1 67 2
 121 000a 97000000 		call	tls_client_highest_ver
 121      E7800000 
 122              	.LVL11:
 123              	.LBB32:
 124              	.LBB33:
 125              		.file 2 "..\\..\\..\\..\\wpa_supplicant\\src\\utils/common.h"
   1:..\..\..\..\wpa_supplicant\src\utils/common.h **** /*
   2:..\..\..\..\wpa_supplicant\src\utils/common.h ****  * wpa_supplicant/hostapd / common helper functions, etc.
   3:..\..\..\..\wpa_supplicant\src\utils/common.h ****  * Copyright (c) 2002-2007, Jouni Malinen <j@w1.fi>
   4:..\..\..\..\wpa_supplicant\src\utils/common.h ****  *
   5:..\..\..\..\wpa_supplicant\src\utils/common.h ****  * This software may be distributed under the terms of the BSD license.
   6:..\..\..\..\wpa_supplicant\src\utils/common.h ****  * See README for more details.
   7:..\..\..\..\wpa_supplicant\src\utils/common.h ****  */
   8:..\..\..\..\wpa_supplicant\src\utils/common.h **** 
   9:..\..\..\..\wpa_supplicant\src\utils/common.h **** #ifndef COMMON_H
  10:..\..\..\..\wpa_supplicant\src\utils/common.h **** #define COMMON_H
  11:..\..\..\..\wpa_supplicant\src\utils/common.h **** 
  12:..\..\..\..\wpa_supplicant\src\utils/common.h **** #include "os.h"
  13:..\..\..\..\wpa_supplicant\src\utils/common.h **** 
  14:..\..\..\..\wpa_supplicant\src\utils/common.h **** #if defined(__linux__) || defined(__GLIBC__)
  15:..\..\..\..\wpa_supplicant\src\utils/common.h **** #include <endian.h>
  16:..\..\..\..\wpa_supplicant\src\utils/common.h **** #include <byteswap.h>
  17:..\..\..\..\wpa_supplicant\src\utils/common.h **** #endif /* __linux__ */
  18:..\..\..\..\wpa_supplicant\src\utils/common.h **** 
  19:..\..\..\..\wpa_supplicant\src\utils/common.h **** #if defined(__FreeBSD__) || defined(__NetBSD__) || defined(__DragonFly__) || \
  20:..\..\..\..\wpa_supplicant\src\utils/common.h ****     defined(__OpenBSD__)
  21:..\..\..\..\wpa_supplicant\src\utils/common.h **** #include <sys/types.h>
  22:..\..\..\..\wpa_supplicant\src\utils/common.h **** #include <sys/endian.h>
  23:..\..\..\..\wpa_supplicant\src\utils/common.h **** #define __BYTE_ORDER	_BYTE_ORDER
  24:..\..\..\..\wpa_supplicant\src\utils/common.h **** #define	__LITTLE_ENDIAN	_LITTLE_ENDIAN
  25:..\..\..\..\wpa_supplicant\src\utils/common.h **** #define	__BIG_ENDIAN	_BIG_ENDIAN
  26:..\..\..\..\wpa_supplicant\src\utils/common.h **** #ifdef __OpenBSD__
  27:..\..\..\..\wpa_supplicant\src\utils/common.h **** #define bswap_16 swap16
  28:..\..\..\..\wpa_supplicant\src\utils/common.h **** #define bswap_32 swap32
  29:..\..\..\..\wpa_supplicant\src\utils/common.h **** #define bswap_64 swap64
  30:..\..\..\..\wpa_supplicant\src\utils/common.h **** #else /* __OpenBSD__ */
  31:..\..\..\..\wpa_supplicant\src\utils/common.h **** #define bswap_16 bswap16
  32:..\..\..\..\wpa_supplicant\src\utils/common.h **** #define bswap_32 bswap32
  33:..\..\..\..\wpa_supplicant\src\utils/common.h **** #define bswap_64 bswap64
  34:..\..\..\..\wpa_supplicant\src\utils/common.h **** #endif /* __OpenBSD__ */
  35:..\..\..\..\wpa_supplicant\src\utils/common.h **** #endif /* defined(__FreeBSD__) || defined(__NetBSD__) ||
  36:..\..\..\..\wpa_supplicant\src\utils/common.h **** 	* defined(__DragonFly__) || defined(__OpenBSD__) */
  37:..\..\..\..\wpa_supplicant\src\utils/common.h **** 
  38:..\..\..\..\wpa_supplicant\src\utils/common.h **** #ifdef __APPLE__
  39:..\..\..\..\wpa_supplicant\src\utils/common.h **** #include <sys/types.h>
  40:..\..\..\..\wpa_supplicant\src\utils/common.h **** #include <machine/endian.h>
  41:..\..\..\..\wpa_supplicant\src\utils/common.h **** #define __BYTE_ORDER	_BYTE_ORDER
  42:..\..\..\..\wpa_supplicant\src\utils/common.h **** #define __LITTLE_ENDIAN	_LITTLE_ENDIAN
  43:..\..\..\..\wpa_supplicant\src\utils/common.h **** #define __BIG_ENDIAN	_BIG_ENDIAN
  44:..\..\..\..\wpa_supplicant\src\utils/common.h **** static inline unsigned short bswap_16(unsigned short v)
  45:..\..\..\..\wpa_supplicant\src\utils/common.h **** {
  46:..\..\..\..\wpa_supplicant\src\utils/common.h **** 	return ((v & 0xff) << 8) | (v >> 8);
  47:..\..\..\..\wpa_supplicant\src\utils/common.h **** }
  48:..\..\..\..\wpa_supplicant\src\utils/common.h **** 
  49:..\..\..\..\wpa_supplicant\src\utils/common.h **** static inline unsigned int bswap_32(unsigned int v)
  50:..\..\..\..\wpa_supplicant\src\utils/common.h **** {
  51:..\..\..\..\wpa_supplicant\src\utils/common.h **** 	return ((v & 0xff) << 24) | ((v & 0xff00) << 8) |
  52:..\..\..\..\wpa_supplicant\src\utils/common.h **** 		((v & 0xff0000) >> 8) | (v >> 24);
  53:..\..\..\..\wpa_supplicant\src\utils/common.h **** }
  54:..\..\..\..\wpa_supplicant\src\utils/common.h **** #endif /* __APPLE__ */
  55:..\..\..\..\wpa_supplicant\src\utils/common.h **** 
  56:..\..\..\..\wpa_supplicant\src\utils/common.h **** #ifdef CONFIG_GDWIFI
  57:..\..\..\..\wpa_supplicant\src\utils/common.h **** // #include <sys/types.h>
  58:..\..\..\..\wpa_supplicant\src\utils/common.h **** // #include <machine/endian.h>
  59:..\..\..\..\wpa_supplicant\src\utils/common.h **** #define __BYTE_ORDER	BYTE_ORDER
  60:..\..\..\..\wpa_supplicant\src\utils/common.h **** #define __LITTLE_ENDIAN	LITTLE_ENDIAN
  61:..\..\..\..\wpa_supplicant\src\utils/common.h **** #define __BIG_ENDIAN	BIG_ENDIAN
  62:..\..\..\..\wpa_supplicant\src\utils/common.h **** #define ETHER_ADDR_LEN	6
  63:..\..\..\..\wpa_supplicant\src\utils/common.h **** #define ETH_P_802_3	0x0001		/* Dummy type for 802.3 frames  */
  64:..\..\..\..\wpa_supplicant\src\utils/common.h **** 
  65:..\..\..\..\wpa_supplicant\src\utils/common.h **** static inline unsigned short bswap_16(unsigned short v)
  66:..\..\..\..\wpa_supplicant\src\utils/common.h **** {
  67:..\..\..\..\wpa_supplicant\src\utils/common.h **** 	return ((v & 0xff) << 8) | (v >> 8);
  68:..\..\..\..\wpa_supplicant\src\utils/common.h **** }
  69:..\..\..\..\wpa_supplicant\src\utils/common.h **** 
  70:..\..\..\..\wpa_supplicant\src\utils/common.h **** static inline unsigned int bswap_32(unsigned int v)
  71:..\..\..\..\wpa_supplicant\src\utils/common.h **** {
  72:..\..\..\..\wpa_supplicant\src\utils/common.h **** 	return ((v & 0xff) << 24) | ((v & 0xff00) << 8) |
  73:..\..\..\..\wpa_supplicant\src\utils/common.h **** 		((v & 0xff0000) >> 8) | (v >> 24);
  74:..\..\..\..\wpa_supplicant\src\utils/common.h **** }
  75:..\..\..\..\wpa_supplicant\src\utils/common.h **** 
  76:..\..\..\..\wpa_supplicant\src\utils/common.h **** struct ether_header
  77:..\..\..\..\wpa_supplicant\src\utils/common.h **** {
  78:..\..\..\..\wpa_supplicant\src\utils/common.h **** 	uint8_t  ether_dhost[ETHER_ADDR_LEN];
  79:..\..\..\..\wpa_supplicant\src\utils/common.h **** 	uint8_t  ether_shost[ETHER_ADDR_LEN];
  80:..\..\..\..\wpa_supplicant\src\utils/common.h **** 	uint16_t ether_type;
  81:..\..\..\..\wpa_supplicant\src\utils/common.h **** } __PACKED;
  82:..\..\..\..\wpa_supplicant\src\utils/common.h **** #endif /* CONFIG_GDWIFI */
  83:..\..\..\..\wpa_supplicant\src\utils/common.h **** #ifdef __rtems__
  84:..\..\..\..\wpa_supplicant\src\utils/common.h **** #include <rtems/endian.h>
  85:..\..\..\..\wpa_supplicant\src\utils/common.h **** #define __BYTE_ORDER BYTE_ORDER
  86:..\..\..\..\wpa_supplicant\src\utils/common.h **** #define __LITTLE_ENDIAN LITTLE_ENDIAN
  87:..\..\..\..\wpa_supplicant\src\utils/common.h **** #define __BIG_ENDIAN BIG_ENDIAN
  88:..\..\..\..\wpa_supplicant\src\utils/common.h **** #define bswap_16 CPU_swap_u16
  89:..\..\..\..\wpa_supplicant\src\utils/common.h **** #define bswap_32 CPU_swap_u32
  90:..\..\..\..\wpa_supplicant\src\utils/common.h **** #endif /* __rtems__ */
  91:..\..\..\..\wpa_supplicant\src\utils/common.h **** 
  92:..\..\..\..\wpa_supplicant\src\utils/common.h **** #ifdef CONFIG_NATIVE_WINDOWS
  93:..\..\..\..\wpa_supplicant\src\utils/common.h **** #include <winsock.h>
  94:..\..\..\..\wpa_supplicant\src\utils/common.h **** 
  95:..\..\..\..\wpa_supplicant\src\utils/common.h **** typedef int socklen_t;
  96:..\..\..\..\wpa_supplicant\src\utils/common.h **** 
  97:..\..\..\..\wpa_supplicant\src\utils/common.h **** #ifndef MSG_DONTWAIT
  98:..\..\..\..\wpa_supplicant\src\utils/common.h **** #define MSG_DONTWAIT 0 /* not supported */
  99:..\..\..\..\wpa_supplicant\src\utils/common.h **** #endif
 100:..\..\..\..\wpa_supplicant\src\utils/common.h **** 
 101:..\..\..\..\wpa_supplicant\src\utils/common.h **** #endif /* CONFIG_NATIVE_WINDOWS */
 102:..\..\..\..\wpa_supplicant\src\utils/common.h **** 
 103:..\..\..\..\wpa_supplicant\src\utils/common.h **** #ifdef _MSC_VER
 104:..\..\..\..\wpa_supplicant\src\utils/common.h **** #define inline __inline
 105:..\..\..\..\wpa_supplicant\src\utils/common.h **** 
 106:..\..\..\..\wpa_supplicant\src\utils/common.h **** #undef vsnprintf
 107:..\..\..\..\wpa_supplicant\src\utils/common.h **** #define vsnprintf _vsnprintf
 108:..\..\..\..\wpa_supplicant\src\utils/common.h **** #undef close
 109:..\..\..\..\wpa_supplicant\src\utils/common.h **** #define close closesocket
 110:..\..\..\..\wpa_supplicant\src\utils/common.h **** #endif /* _MSC_VER */
 111:..\..\..\..\wpa_supplicant\src\utils/common.h **** 
 112:..\..\..\..\wpa_supplicant\src\utils/common.h **** 
 113:..\..\..\..\wpa_supplicant\src\utils/common.h **** /* Define platform specific integer types */
 114:..\..\..\..\wpa_supplicant\src\utils/common.h **** 
 115:..\..\..\..\wpa_supplicant\src\utils/common.h **** #ifdef _MSC_VER
 116:..\..\..\..\wpa_supplicant\src\utils/common.h **** typedef UINT64 u64;
 117:..\..\..\..\wpa_supplicant\src\utils/common.h **** typedef UINT32 u32;
 118:..\..\..\..\wpa_supplicant\src\utils/common.h **** typedef UINT16 u16;
 119:..\..\..\..\wpa_supplicant\src\utils/common.h **** typedef UINT8 u8;
 120:..\..\..\..\wpa_supplicant\src\utils/common.h **** typedef INT64 s64;
 121:..\..\..\..\wpa_supplicant\src\utils/common.h **** typedef INT32 s32;
 122:..\..\..\..\wpa_supplicant\src\utils/common.h **** typedef INT16 s16;
 123:..\..\..\..\wpa_supplicant\src\utils/common.h **** typedef INT8 s8;
 124:..\..\..\..\wpa_supplicant\src\utils/common.h **** #define WPA_TYPES_DEFINED
 125:..\..\..\..\wpa_supplicant\src\utils/common.h **** #endif /* _MSC_VER */
 126:..\..\..\..\wpa_supplicant\src\utils/common.h **** 
 127:..\..\..\..\wpa_supplicant\src\utils/common.h **** #ifdef __vxworks
 128:..\..\..\..\wpa_supplicant\src\utils/common.h **** typedef unsigned long long u64;
 129:..\..\..\..\wpa_supplicant\src\utils/common.h **** typedef UINT32 u32;
 130:..\..\..\..\wpa_supplicant\src\utils/common.h **** typedef UINT16 u16;
 131:..\..\..\..\wpa_supplicant\src\utils/common.h **** typedef UINT8 u8;
 132:..\..\..\..\wpa_supplicant\src\utils/common.h **** typedef long long s64;
 133:..\..\..\..\wpa_supplicant\src\utils/common.h **** typedef INT32 s32;
 134:..\..\..\..\wpa_supplicant\src\utils/common.h **** typedef INT16 s16;
 135:..\..\..\..\wpa_supplicant\src\utils/common.h **** typedef INT8 s8;
 136:..\..\..\..\wpa_supplicant\src\utils/common.h **** #define WPA_TYPES_DEFINED
 137:..\..\..\..\wpa_supplicant\src\utils/common.h **** #endif /* __vxworks */
 138:..\..\..\..\wpa_supplicant\src\utils/common.h **** 
 139:..\..\..\..\wpa_supplicant\src\utils/common.h **** #ifndef WPA_TYPES_DEFINED
 140:..\..\..\..\wpa_supplicant\src\utils/common.h **** #ifdef CONFIG_USE_INTTYPES_H
 141:..\..\..\..\wpa_supplicant\src\utils/common.h **** #include <inttypes.h>
 142:..\..\..\..\wpa_supplicant\src\utils/common.h **** #else
 143:..\..\..\..\wpa_supplicant\src\utils/common.h **** #include <stdint.h>
 144:..\..\..\..\wpa_supplicant\src\utils/common.h **** #endif
 145:..\..\..\..\wpa_supplicant\src\utils/common.h **** typedef uint64_t u64;
 146:..\..\..\..\wpa_supplicant\src\utils/common.h **** typedef uint32_t u32;
 147:..\..\..\..\wpa_supplicant\src\utils/common.h **** typedef uint16_t u16;
 148:..\..\..\..\wpa_supplicant\src\utils/common.h **** typedef uint8_t u8;
 149:..\..\..\..\wpa_supplicant\src\utils/common.h **** typedef int64_t s64;
 150:..\..\..\..\wpa_supplicant\src\utils/common.h **** typedef int32_t s32;
 151:..\..\..\..\wpa_supplicant\src\utils/common.h **** typedef int16_t s16;
 152:..\..\..\..\wpa_supplicant\src\utils/common.h **** typedef int8_t s8;
 153:..\..\..\..\wpa_supplicant\src\utils/common.h **** #define WPA_TYPES_DEFINED
 154:..\..\..\..\wpa_supplicant\src\utils/common.h **** #endif /* !WPA_TYPES_DEFINED */
 155:..\..\..\..\wpa_supplicant\src\utils/common.h **** 
 156:..\..\..\..\wpa_supplicant\src\utils/common.h **** 
 157:..\..\..\..\wpa_supplicant\src\utils/common.h **** /* Define platform specific byte swapping macros */
 158:..\..\..\..\wpa_supplicant\src\utils/common.h **** 
 159:..\..\..\..\wpa_supplicant\src\utils/common.h **** #if defined(__CYGWIN__) || defined(CONFIG_NATIVE_WINDOWS)
 160:..\..\..\..\wpa_supplicant\src\utils/common.h **** 
 161:..\..\..\..\wpa_supplicant\src\utils/common.h **** static inline unsigned short wpa_swap_16(unsigned short v)
 162:..\..\..\..\wpa_supplicant\src\utils/common.h **** {
 163:..\..\..\..\wpa_supplicant\src\utils/common.h **** 	return ((v & 0xff) << 8) | (v >> 8);
 164:..\..\..\..\wpa_supplicant\src\utils/common.h **** }
 165:..\..\..\..\wpa_supplicant\src\utils/common.h **** 
 166:..\..\..\..\wpa_supplicant\src\utils/common.h **** static inline unsigned int wpa_swap_32(unsigned int v)
 167:..\..\..\..\wpa_supplicant\src\utils/common.h **** {
 168:..\..\..\..\wpa_supplicant\src\utils/common.h **** 	return ((v & 0xff) << 24) | ((v & 0xff00) << 8) |
 169:..\..\..\..\wpa_supplicant\src\utils/common.h **** 		((v & 0xff0000) >> 8) | (v >> 24);
 170:..\..\..\..\wpa_supplicant\src\utils/common.h **** }
 171:..\..\..\..\wpa_supplicant\src\utils/common.h **** 
 172:..\..\..\..\wpa_supplicant\src\utils/common.h **** #define le_to_host16(n) (n)
 173:..\..\..\..\wpa_supplicant\src\utils/common.h **** #define host_to_le16(n) (n)
 174:..\..\..\..\wpa_supplicant\src\utils/common.h **** #define be_to_host16(n) wpa_swap_16(n)
 175:..\..\..\..\wpa_supplicant\src\utils/common.h **** #define host_to_be16(n) wpa_swap_16(n)
 176:..\..\..\..\wpa_supplicant\src\utils/common.h **** #define le_to_host32(n) (n)
 177:..\..\..\..\wpa_supplicant\src\utils/common.h **** #define host_to_le32(n) (n)
 178:..\..\..\..\wpa_supplicant\src\utils/common.h **** #define be_to_host32(n) wpa_swap_32(n)
 179:..\..\..\..\wpa_supplicant\src\utils/common.h **** #define host_to_be32(n) wpa_swap_32(n)
 180:..\..\..\..\wpa_supplicant\src\utils/common.h **** #define host_to_le64(n) (n)
 181:..\..\..\..\wpa_supplicant\src\utils/common.h **** 
 182:..\..\..\..\wpa_supplicant\src\utils/common.h **** #define WPA_BYTE_SWAP_DEFINED
 183:..\..\..\..\wpa_supplicant\src\utils/common.h **** 
 184:..\..\..\..\wpa_supplicant\src\utils/common.h **** #endif /* __CYGWIN__ || CONFIG_NATIVE_WINDOWS */
 185:..\..\..\..\wpa_supplicant\src\utils/common.h **** 
 186:..\..\..\..\wpa_supplicant\src\utils/common.h **** 
 187:..\..\..\..\wpa_supplicant\src\utils/common.h **** #ifndef WPA_BYTE_SWAP_DEFINED
 188:..\..\..\..\wpa_supplicant\src\utils/common.h **** 
 189:..\..\..\..\wpa_supplicant\src\utils/common.h **** #ifndef __BYTE_ORDER
 190:..\..\..\..\wpa_supplicant\src\utils/common.h **** #ifndef __LITTLE_ENDIAN
 191:..\..\..\..\wpa_supplicant\src\utils/common.h **** #ifndef __BIG_ENDIAN
 192:..\..\..\..\wpa_supplicant\src\utils/common.h **** #define __LITTLE_ENDIAN 1234
 193:..\..\..\..\wpa_supplicant\src\utils/common.h **** #define __BIG_ENDIAN 4321
 194:..\..\..\..\wpa_supplicant\src\utils/common.h **** #if defined(sparc)
 195:..\..\..\..\wpa_supplicant\src\utils/common.h **** #define __BYTE_ORDER __BIG_ENDIAN
 196:..\..\..\..\wpa_supplicant\src\utils/common.h **** #endif
 197:..\..\..\..\wpa_supplicant\src\utils/common.h **** #endif /* __BIG_ENDIAN */
 198:..\..\..\..\wpa_supplicant\src\utils/common.h **** #endif /* __LITTLE_ENDIAN */
 199:..\..\..\..\wpa_supplicant\src\utils/common.h **** #endif /* __BYTE_ORDER */
 200:..\..\..\..\wpa_supplicant\src\utils/common.h **** 
 201:..\..\..\..\wpa_supplicant\src\utils/common.h **** #if __BYTE_ORDER == __LITTLE_ENDIAN
 202:..\..\..\..\wpa_supplicant\src\utils/common.h **** #define le_to_host16(n) ((__force u16) (le16) (n))
 203:..\..\..\..\wpa_supplicant\src\utils/common.h **** #define host_to_le16(n) ((__force le16) (u16) (n))
 204:..\..\..\..\wpa_supplicant\src\utils/common.h **** #define be_to_host16(n) bswap_16((__force u16) (be16) (n))
 205:..\..\..\..\wpa_supplicant\src\utils/common.h **** #define host_to_be16(n) ((__force be16) bswap_16((n)))
 206:..\..\..\..\wpa_supplicant\src\utils/common.h **** #define le_to_host32(n) ((__force u32) (le32) (n))
 207:..\..\..\..\wpa_supplicant\src\utils/common.h **** #define host_to_le32(n) ((__force le32) (u32) (n))
 208:..\..\..\..\wpa_supplicant\src\utils/common.h **** #define be_to_host32(n) bswap_32((__force u32) (be32) (n))
 209:..\..\..\..\wpa_supplicant\src\utils/common.h **** #define host_to_be32(n) ((__force be32) bswap_32((n)))
 210:..\..\..\..\wpa_supplicant\src\utils/common.h **** #define le_to_host64(n) ((__force u64) (le64) (n))
 211:..\..\..\..\wpa_supplicant\src\utils/common.h **** #define host_to_le64(n) ((__force le64) (u64) (n))
 212:..\..\..\..\wpa_supplicant\src\utils/common.h **** #define be_to_host64(n) bswap_64((__force u64) (be64) (n))
 213:..\..\..\..\wpa_supplicant\src\utils/common.h **** #define host_to_be64(n) ((__force be64) bswap_64((n)))
 214:..\..\..\..\wpa_supplicant\src\utils/common.h **** #elif __BYTE_ORDER == __BIG_ENDIAN
 215:..\..\..\..\wpa_supplicant\src\utils/common.h **** #define le_to_host16(n) bswap_16(n)
 216:..\..\..\..\wpa_supplicant\src\utils/common.h **** #define host_to_le16(n) bswap_16(n)
 217:..\..\..\..\wpa_supplicant\src\utils/common.h **** #define be_to_host16(n) (n)
 218:..\..\..\..\wpa_supplicant\src\utils/common.h **** #define host_to_be16(n) (n)
 219:..\..\..\..\wpa_supplicant\src\utils/common.h **** #define le_to_host32(n) bswap_32(n)
 220:..\..\..\..\wpa_supplicant\src\utils/common.h **** #define host_to_le32(n) bswap_32(n)
 221:..\..\..\..\wpa_supplicant\src\utils/common.h **** #define be_to_host32(n) (n)
 222:..\..\..\..\wpa_supplicant\src\utils/common.h **** #define host_to_be32(n) (n)
 223:..\..\..\..\wpa_supplicant\src\utils/common.h **** #define le_to_host64(n) bswap_64(n)
 224:..\..\..\..\wpa_supplicant\src\utils/common.h **** #define host_to_le64(n) bswap_64(n)
 225:..\..\..\..\wpa_supplicant\src\utils/common.h **** #define be_to_host64(n) (n)
 226:..\..\..\..\wpa_supplicant\src\utils/common.h **** #define host_to_be64(n) (n)
 227:..\..\..\..\wpa_supplicant\src\utils/common.h **** #ifndef WORDS_BIGENDIAN
 228:..\..\..\..\wpa_supplicant\src\utils/common.h **** #define WORDS_BIGENDIAN
 229:..\..\..\..\wpa_supplicant\src\utils/common.h **** #endif
 230:..\..\..\..\wpa_supplicant\src\utils/common.h **** #else
 231:..\..\..\..\wpa_supplicant\src\utils/common.h **** #error Could not determine CPU byte order
 232:..\..\..\..\wpa_supplicant\src\utils/common.h **** #endif
 233:..\..\..\..\wpa_supplicant\src\utils/common.h **** 
 234:..\..\..\..\wpa_supplicant\src\utils/common.h **** #define WPA_BYTE_SWAP_DEFINED
 235:..\..\..\..\wpa_supplicant\src\utils/common.h **** #endif /* !WPA_BYTE_SWAP_DEFINED */
 236:..\..\..\..\wpa_supplicant\src\utils/common.h **** 
 237:..\..\..\..\wpa_supplicant\src\utils/common.h **** 
 238:..\..\..\..\wpa_supplicant\src\utils/common.h **** /* Macros for handling unaligned memory accesses */
 239:..\..\..\..\wpa_supplicant\src\utils/common.h **** 
 240:..\..\..\..\wpa_supplicant\src\utils/common.h **** static inline u16 WPA_GET_BE16(const u8 *a)
 241:..\..\..\..\wpa_supplicant\src\utils/common.h **** {
 242:..\..\..\..\wpa_supplicant\src\utils/common.h **** 	return (a[0] << 8) | a[1];
 243:..\..\..\..\wpa_supplicant\src\utils/common.h **** }
 244:..\..\..\..\wpa_supplicant\src\utils/common.h **** 
 245:..\..\..\..\wpa_supplicant\src\utils/common.h **** static inline void WPA_PUT_BE16(u8 *a, u16 val)
 246:..\..\..\..\wpa_supplicant\src\utils/common.h **** {
 247:..\..\..\..\wpa_supplicant\src\utils/common.h **** 	a[0] = val >> 8;
 126              		.loc 2 247 2 is_stmt 1
 127              		.loc 2 247 7 is_stmt 0
 128 0012 93578500 		srli	a5,a0,8
 248:..\..\..\..\wpa_supplicant\src\utils/common.h **** 	a[1] = val & 0xff;
 129              		.loc 2 248 7
 130 0016 A300A400 		sb	a0,1(s0)
 247:..\..\..\..\wpa_supplicant\src\utils/common.h **** 	a[1] = val & 0xff;
 131              		.loc 2 247 7
 132 001a 2300F400 		sb	a5,0(s0)
 133              		.loc 2 248 2 is_stmt 1
 134              	.LVL12:
 135              	.LBE33:
 136              	.LBE32:
  68:C:/Users/stapi/OneDrive/Desktop/GD32VW553/V1_MQTT_OK/GD32VW55X_Wifi_BLE_SDK/GD32VW55x_RELEASE_V1.0.2/MSDK/wpa_supplicant/src/tls\tlsv1_client.c **** 	if (os_get_random(pre_master_secret + 2,
 137              		.loc 1 68 2
 138              		.loc 1 68 6 is_stmt 0
 139 001e 9305E002 		li	a1,46
 140 0022 13052400 		addi	a0,s0,2
 141 0026 97000000 		call	os_get_random
 141      E7800000 
 142              	.LVL13:
 143              		.loc 1 68 5
 144 002e 3335A000 		snez	a0,a0
  69:C:/Users/stapi/OneDrive/Desktop/GD32VW553/V1_MQTT_OK/GD32VW55X_Wifi_BLE_SDK/GD32VW55x_RELEASE_V1.0.2/MSDK/wpa_supplicant/src/tls\tlsv1_client.c **** 			  TLS_PRE_MASTER_SECRET_LEN - 2))
  70:C:/Users/stapi/OneDrive/Desktop/GD32VW553/V1_MQTT_OK/GD32VW55X_Wifi_BLE_SDK/GD32VW55x_RELEASE_V1.0.2/MSDK/wpa_supplicant/src/tls\tlsv1_client.c **** 		return -1;
  71:C:/Users/stapi/OneDrive/Desktop/GD32VW553/V1_MQTT_OK/GD32VW55X_Wifi_BLE_SDK/GD32VW55x_RELEASE_V1.0.2/MSDK/wpa_supplicant/src/tls\tlsv1_client.c **** 	return 0;
  72:C:/Users/stapi/OneDrive/Desktop/GD32VW553/V1_MQTT_OK/GD32VW55X_Wifi_BLE_SDK/GD32VW55x_RELEASE_V1.0.2/MSDK/wpa_supplicant/src/tls\tlsv1_client.c **** }
 145              		.loc 1 72 1
 146 0032 3305A040 		neg	a0,a0
 147 0036 17030000 		tail	__riscv_restore_1
 147      67000300 
 148              		.cfi_restore 8
 149              		.cfi_restore 1
 150              		.cfi_def_cfa_offset 0
 151              		.cfi_endproc
 152              	.LFE89:
 154              		.section	.rodata.tls_derive_keys.str1.4,"aMS",@progbits,1
 155              		.align	2
 156              	.LC0:
 157 0000 544C5376 		.string	"TLSv1: pre_master_secret"
 157      313A2070 
 157      72655F6D 
 157      61737465 
 157      725F7365 
 158 0019 000000   		.align	2
 159              	.LC1:
 160 001c 6D617374 		.string	"master secret"
 160      65722073 
 160      65637265 
 160      7400
 161 002a 0000     		.align	2
 162              	.LC2:
 163 002c 544C5376 		.string	"TLSv1: Failed to derive master_secret"
 163      313A2046 
 163      61696C65 
 163      6420746F 
 163      20646572 
 164 0052 0000     		.align	2
 165              	.LC3:
 166 0054 544C5376 		.string	"TLSv1: master_secret"
 166      313A206D 
 166      61737465 
 166      725F7365 
 166      63726574 
 167 0069 000000   		.align	2
 168              	.LC4:
 169 006c 6B657920 		.string	"key expansion"
 169      65787061 
 169      6E73696F 
 169      6E00
 170 007a 0000     		.align	2
 171              	.LC5:
 172 007c 544C5376 		.string	"TLSv1: Failed to derive key_block"
 172      313A2046 
 172      61696C65 
 172      6420746F 
 172      20646572 
 173 009e 0000     		.align	2
 174              	.LC6:
 175 00a0 544C5376 		.string	"TLSv1: key_block"
 175      313A206B 
 175      65795F62 
 175      6C6F636B 
 175      00
 176              		.section	.text.tls_derive_keys,"ax",@progbits
 177              		.align	1
 178              		.globl	tls_derive_keys
 180              	tls_derive_keys:
 181              	.LFB90:
  73:C:/Users/stapi/OneDrive/Desktop/GD32VW553/V1_MQTT_OK/GD32VW55X_Wifi_BLE_SDK/GD32VW55x_RELEASE_V1.0.2/MSDK/wpa_supplicant/src/tls\tlsv1_client.c **** 
  74:C:/Users/stapi/OneDrive/Desktop/GD32VW553/V1_MQTT_OK/GD32VW55X_Wifi_BLE_SDK/GD32VW55x_RELEASE_V1.0.2/MSDK/wpa_supplicant/src/tls\tlsv1_client.c **** 
  75:C:/Users/stapi/OneDrive/Desktop/GD32VW553/V1_MQTT_OK/GD32VW55X_Wifi_BLE_SDK/GD32VW55x_RELEASE_V1.0.2/MSDK/wpa_supplicant/src/tls\tlsv1_client.c **** int tls_derive_keys(struct tlsv1_client *conn,
  76:C:/Users/stapi/OneDrive/Desktop/GD32VW553/V1_MQTT_OK/GD32VW55X_Wifi_BLE_SDK/GD32VW55x_RELEASE_V1.0.2/MSDK/wpa_supplicant/src/tls\tlsv1_client.c **** 		    const u8 *pre_master_secret, size_t pre_master_secret_len)
  77:C:/Users/stapi/OneDrive/Desktop/GD32VW553/V1_MQTT_OK/GD32VW55X_Wifi_BLE_SDK/GD32VW55x_RELEASE_V1.0.2/MSDK/wpa_supplicant/src/tls\tlsv1_client.c **** {
 182              		.loc 1 77 1 is_stmt 1
 183              		.cfi_startproc
 184              	.LVL14:
 185 0000 17030000 		call	t0,__riscv_save_6
 185      E7020300 
 186              		.cfi_offset 21, -28
 187              		.cfi_offset 20, -24
 188              		.cfi_offset 19, -20
 189              		.cfi_offset 18, -16
 190              		.cfi_offset 9, -12
 191              		.cfi_offset 8, -8
 192              		.cfi_offset 1, -4
 193              		.cfi_def_cfa_offset 32
  78:C:/Users/stapi/OneDrive/Desktop/GD32VW553/V1_MQTT_OK/GD32VW55X_Wifi_BLE_SDK/GD32VW55x_RELEASE_V1.0.2/MSDK/wpa_supplicant/src/tls\tlsv1_client.c **** 	u8 seed[2 * TLS_RANDOM_LEN];
 194              		.loc 1 78 2
  79:C:/Users/stapi/OneDrive/Desktop/GD32VW553/V1_MQTT_OK/GD32VW55X_Wifi_BLE_SDK/GD32VW55x_RELEASE_V1.0.2/MSDK/wpa_supplicant/src/tls\tlsv1_client.c **** 	u8 key_block[TLS_MAX_KEY_BLOCK_LEN];
 195              		.loc 1 79 2
  80:C:/Users/stapi/OneDrive/Desktop/GD32VW553/V1_MQTT_OK/GD32VW55X_Wifi_BLE_SDK/GD32VW55x_RELEASE_V1.0.2/MSDK/wpa_supplicant/src/tls\tlsv1_client.c **** 	u8 *pos;
 196              		.loc 1 80 2
  81:C:/Users/stapi/OneDrive/Desktop/GD32VW553/V1_MQTT_OK/GD32VW55X_Wifi_BLE_SDK/GD32VW55x_RELEASE_V1.0.2/MSDK/wpa_supplicant/src/tls\tlsv1_client.c **** 	size_t key_block_len;
 197              		.loc 1 81 2
  82:C:/Users/stapi/OneDrive/Desktop/GD32VW553/V1_MQTT_OK/GD32VW55X_Wifi_BLE_SDK/GD32VW55x_RELEASE_V1.0.2/MSDK/wpa_supplicant/src/tls\tlsv1_client.c **** 
  83:C:/Users/stapi/OneDrive/Desktop/GD32VW553/V1_MQTT_OK/GD32VW55X_Wifi_BLE_SDK/GD32VW55x_RELEASE_V1.0.2/MSDK/wpa_supplicant/src/tls\tlsv1_client.c **** 	if (pre_master_secret) {
 198              		.loc 1 83 2
  77:C:/Users/stapi/OneDrive/Desktop/GD32VW553/V1_MQTT_OK/GD32VW55X_Wifi_BLE_SDK/GD32VW55x_RELEASE_V1.0.2/MSDK/wpa_supplicant/src/tls\tlsv1_client.c **** 	u8 seed[2 * TLS_RANDOM_LEN];
 199              		.loc 1 77 1 is_stmt 0
 200 0008 1571     		addi	sp,sp,-224
 201              		.cfi_def_cfa_offset 256
  77:C:/Users/stapi/OneDrive/Desktop/GD32VW553/V1_MQTT_OK/GD32VW55X_Wifi_BLE_SDK/GD32VW55x_RELEASE_V1.0.2/MSDK/wpa_supplicant/src/tls\tlsv1_client.c **** 	u8 seed[2 * TLS_RANDOM_LEN];
 202              		.loc 1 77 1
 203 000a 2A84     		mv	s0,a0
  84:C:/Users/stapi/OneDrive/Desktop/GD32VW553/V1_MQTT_OK/GD32VW55X_Wifi_BLE_SDK/GD32VW55x_RELEASE_V1.0.2/MSDK/wpa_supplicant/src/tls\tlsv1_client.c **** 		wpa_hexdump_key(MSG_MSGDUMP, "TLSv1: pre_master_secret",
  85:C:/Users/stapi/OneDrive/Desktop/GD32VW553/V1_MQTT_OK/GD32VW55X_Wifi_BLE_SDK/GD32VW55x_RELEASE_V1.0.2/MSDK/wpa_supplicant/src/tls\tlsv1_client.c **** 				pre_master_secret, pre_master_secret_len);
  86:C:/Users/stapi/OneDrive/Desktop/GD32VW553/V1_MQTT_OK/GD32VW55X_Wifi_BLE_SDK/GD32VW55x_RELEASE_V1.0.2/MSDK/wpa_supplicant/src/tls\tlsv1_client.c **** 		os_memcpy(seed, conn->client_random, TLS_RANDOM_LEN);
 204              		.loc 1 86 23
 205 000c 130A0510 		addi	s4,a0,256
  87:C:/Users/stapi/OneDrive/Desktop/GD32VW553/V1_MQTT_OK/GD32VW55X_Wifi_BLE_SDK/GD32VW55x_RELEASE_V1.0.2/MSDK/wpa_supplicant/src/tls\tlsv1_client.c **** 		os_memcpy(seed + TLS_RANDOM_LEN, conn->server_random,
 206              		.loc 1 87 40
 207 0010 930A0512 		addi	s5,a0,288
  88:C:/Users/stapi/OneDrive/Desktop/GD32VW553/V1_MQTT_OK/GD32VW55X_Wifi_BLE_SDK/GD32VW55x_RELEASE_V1.0.2/MSDK/wpa_supplicant/src/tls\tlsv1_client.c **** 			  TLS_RANDOM_LEN);
  89:C:/Users/stapi/OneDrive/Desktop/GD32VW553/V1_MQTT_OK/GD32VW55X_Wifi_BLE_SDK/GD32VW55x_RELEASE_V1.0.2/MSDK/wpa_supplicant/src/tls\tlsv1_client.c **** 		if (tls_prf(conn->rl.tls_version,
  90:C:/Users/stapi/OneDrive/Desktop/GD32VW553/V1_MQTT_OK/GD32VW55X_Wifi_BLE_SDK/GD32VW55x_RELEASE_V1.0.2/MSDK/wpa_supplicant/src/tls\tlsv1_client.c **** 			    pre_master_secret, pre_master_secret_len,
  91:C:/Users/stapi/OneDrive/Desktop/GD32VW553/V1_MQTT_OK/GD32VW55X_Wifi_BLE_SDK/GD32VW55x_RELEASE_V1.0.2/MSDK/wpa_supplicant/src/tls\tlsv1_client.c **** 			    "master secret", seed, 2 * TLS_RANDOM_LEN,
  92:C:/Users/stapi/OneDrive/Desktop/GD32VW553/V1_MQTT_OK/GD32VW55X_Wifi_BLE_SDK/GD32VW55x_RELEASE_V1.0.2/MSDK/wpa_supplicant/src/tls\tlsv1_client.c **** 			    conn->master_secret, TLS_MASTER_SECRET_LEN)) {
 208              		.loc 1 92 12
 209 0014 93090514 		addi	s3,a0,320
  83:C:/Users/stapi/OneDrive/Desktop/GD32VW553/V1_MQTT_OK/GD32VW55X_Wifi_BLE_SDK/GD32VW55x_RELEASE_V1.0.2/MSDK/wpa_supplicant/src/tls\tlsv1_client.c **** 		wpa_hexdump_key(MSG_MSGDUMP, "TLSv1: pre_master_secret",
 210              		.loc 1 83 5
 211 0018 C9CD     		beq	a1,zero,.L10
  84:C:/Users/stapi/OneDrive/Desktop/GD32VW553/V1_MQTT_OK/GD32VW55X_Wifi_BLE_SDK/GD32VW55x_RELEASE_V1.0.2/MSDK/wpa_supplicant/src/tls\tlsv1_client.c **** 				pre_master_secret, pre_master_secret_len);
 212              		.loc 1 84 3
 213 001a B286     		mv	a3,a2
 214 001c AE84     		mv	s1,a1
 215 001e 3289     		mv	s2,a2
  84:C:/Users/stapi/OneDrive/Desktop/GD32VW553/V1_MQTT_OK/GD32VW55X_Wifi_BLE_SDK/GD32VW55x_RELEASE_V1.0.2/MSDK/wpa_supplicant/src/tls\tlsv1_client.c **** 				pre_master_secret, pre_master_secret_len);
 216              		.loc 1 84 3 is_stmt 1
 217 0020 2E86     		mv	a2,a1
 218              	.LVL15:
 219 0022 B7050000 		lui	a1,%hi(.LC0)
 220              	.LVL16:
 221 0026 93850500 		addi	a1,a1,%lo(.LC0)
 222 002a 0545     		li	a0,1
 223              	.LVL17:
 224 002c 97000000 		call	wpa_hexdump_key
 224      E7800000 
 225              	.LVL18:
  86:C:/Users/stapi/OneDrive/Desktop/GD32VW553/V1_MQTT_OK/GD32VW55X_Wifi_BLE_SDK/GD32VW55x_RELEASE_V1.0.2/MSDK/wpa_supplicant/src/tls\tlsv1_client.c **** 		os_memcpy(seed + TLS_RANDOM_LEN, conn->server_random,
 226              		.loc 1 86 3
 227 0034 13060002 		li	a2,32
 228 0038 D285     		mv	a1,s4
 229 003a 0A85     		mv	a0,sp
 230 003c 97000000 		call	os_memcpy
 230      E7800000 
 231              	.LVL19:
  87:C:/Users/stapi/OneDrive/Desktop/GD32VW553/V1_MQTT_OK/GD32VW55X_Wifi_BLE_SDK/GD32VW55x_RELEASE_V1.0.2/MSDK/wpa_supplicant/src/tls\tlsv1_client.c **** 			  TLS_RANDOM_LEN);
 232              		.loc 1 87 3
 233 0044 13060002 		li	a2,32
 234 0048 D685     		mv	a1,s5
 235 004a 0810     		addi	a0,sp,32
 236 004c 97000000 		call	os_memcpy
 236      E7800000 
 237              	.LVL20:
  89:C:/Users/stapi/OneDrive/Desktop/GD32VW553/V1_MQTT_OK/GD32VW55X_Wifi_BLE_SDK/GD32VW55x_RELEASE_V1.0.2/MSDK/wpa_supplicant/src/tls\tlsv1_client.c **** 			    pre_master_secret, pre_master_secret_len,
 238              		.loc 1 89 3
  89:C:/Users/stapi/OneDrive/Desktop/GD32VW553/V1_MQTT_OK/GD32VW55X_Wifi_BLE_SDK/GD32VW55x_RELEASE_V1.0.2/MSDK/wpa_supplicant/src/tls\tlsv1_client.c **** 			    pre_master_secret, pre_master_secret_len,
 239              		.loc 1 89 7 is_stmt 0
 240 0054 03554400 		lhu	a0,4(s0)
 241 0058 B7060000 		lui	a3,%hi(.LC1)
 242 005c 93080003 		li	a7,48
 243 0060 4E88     		mv	a6,s3
 244 0062 93070004 		li	a5,64
 245 0066 0A87     		mv	a4,sp
 246 0068 93860600 		addi	a3,a3,%lo(.LC1)
 247 006c 4A86     		mv	a2,s2
 248 006e A685     		mv	a1,s1
 249 0070 97000000 		call	tls_prf
 249      E7800000 
 250              	.LVL21:
  89:C:/Users/stapi/OneDrive/Desktop/GD32VW553/V1_MQTT_OK/GD32VW55X_Wifi_BLE_SDK/GD32VW55x_RELEASE_V1.0.2/MSDK/wpa_supplicant/src/tls\tlsv1_client.c **** 			    pre_master_secret, pre_master_secret_len,
 251              		.loc 1 89 6
 252 0078 0DC1     		beq	a0,zero,.L11
  93:C:/Users/stapi/OneDrive/Desktop/GD32VW553/V1_MQTT_OK/GD32VW55X_Wifi_BLE_SDK/GD32VW55x_RELEASE_V1.0.2/MSDK/wpa_supplicant/src/tls\tlsv1_client.c **** 			wpa_printf(MSG_DEBUG, "TLSv1: Failed to derive "
 253              		.loc 1 93 4 is_stmt 1
 254 007a B7050000 		lui	a1,%hi(.LC2)
 255 007e 93850500 		addi	a1,a1,%lo(.LC2)
 256              	.LVL22:
 257              	.L20:
  94:C:/Users/stapi/OneDrive/Desktop/GD32VW553/V1_MQTT_OK/GD32VW55X_Wifi_BLE_SDK/GD32VW55x_RELEASE_V1.0.2/MSDK/wpa_supplicant/src/tls\tlsv1_client.c **** 				   "master_secret");
  95:C:/Users/stapi/OneDrive/Desktop/GD32VW553/V1_MQTT_OK/GD32VW55X_Wifi_BLE_SDK/GD32VW55x_RELEASE_V1.0.2/MSDK/wpa_supplicant/src/tls\tlsv1_client.c **** 			return -1;
  96:C:/Users/stapi/OneDrive/Desktop/GD32VW553/V1_MQTT_OK/GD32VW55X_Wifi_BLE_SDK/GD32VW55x_RELEASE_V1.0.2/MSDK/wpa_supplicant/src/tls\tlsv1_client.c **** 		}
  97:C:/Users/stapi/OneDrive/Desktop/GD32VW553/V1_MQTT_OK/GD32VW55X_Wifi_BLE_SDK/GD32VW55x_RELEASE_V1.0.2/MSDK/wpa_supplicant/src/tls\tlsv1_client.c **** 		wpa_hexdump_key(MSG_MSGDUMP, "TLSv1: master_secret",
  98:C:/Users/stapi/OneDrive/Desktop/GD32VW553/V1_MQTT_OK/GD32VW55X_Wifi_BLE_SDK/GD32VW55x_RELEASE_V1.0.2/MSDK/wpa_supplicant/src/tls\tlsv1_client.c **** 				conn->master_secret, TLS_MASTER_SECRET_LEN);
  99:C:/Users/stapi/OneDrive/Desktop/GD32VW553/V1_MQTT_OK/GD32VW55X_Wifi_BLE_SDK/GD32VW55x_RELEASE_V1.0.2/MSDK/wpa_supplicant/src/tls\tlsv1_client.c **** 	}
 100:C:/Users/stapi/OneDrive/Desktop/GD32VW553/V1_MQTT_OK/GD32VW55X_Wifi_BLE_SDK/GD32VW55x_RELEASE_V1.0.2/MSDK/wpa_supplicant/src/tls\tlsv1_client.c **** 
 101:C:/Users/stapi/OneDrive/Desktop/GD32VW553/V1_MQTT_OK/GD32VW55X_Wifi_BLE_SDK/GD32VW55x_RELEASE_V1.0.2/MSDK/wpa_supplicant/src/tls\tlsv1_client.c **** 	os_memcpy(seed, conn->server_random, TLS_RANDOM_LEN);
 102:C:/Users/stapi/OneDrive/Desktop/GD32VW553/V1_MQTT_OK/GD32VW55X_Wifi_BLE_SDK/GD32VW55x_RELEASE_V1.0.2/MSDK/wpa_supplicant/src/tls\tlsv1_client.c **** 	os_memcpy(seed + TLS_RANDOM_LEN, conn->client_random, TLS_RANDOM_LEN);
 103:C:/Users/stapi/OneDrive/Desktop/GD32VW553/V1_MQTT_OK/GD32VW55X_Wifi_BLE_SDK/GD32VW55x_RELEASE_V1.0.2/MSDK/wpa_supplicant/src/tls\tlsv1_client.c **** 	key_block_len = 2 * (conn->rl.hash_size + conn->rl.key_material_len);
 104:C:/Users/stapi/OneDrive/Desktop/GD32VW553/V1_MQTT_OK/GD32VW55X_Wifi_BLE_SDK/GD32VW55x_RELEASE_V1.0.2/MSDK/wpa_supplicant/src/tls\tlsv1_client.c **** 	if (conn->rl.tls_version == TLS_VERSION_1)
 105:C:/Users/stapi/OneDrive/Desktop/GD32VW553/V1_MQTT_OK/GD32VW55X_Wifi_BLE_SDK/GD32VW55x_RELEASE_V1.0.2/MSDK/wpa_supplicant/src/tls\tlsv1_client.c **** 		key_block_len += 2 * conn->rl.iv_size;
 106:C:/Users/stapi/OneDrive/Desktop/GD32VW553/V1_MQTT_OK/GD32VW55X_Wifi_BLE_SDK/GD32VW55x_RELEASE_V1.0.2/MSDK/wpa_supplicant/src/tls\tlsv1_client.c **** 	if (tls_prf(conn->rl.tls_version,
 107:C:/Users/stapi/OneDrive/Desktop/GD32VW553/V1_MQTT_OK/GD32VW55X_Wifi_BLE_SDK/GD32VW55x_RELEASE_V1.0.2/MSDK/wpa_supplicant/src/tls\tlsv1_client.c **** 		    conn->master_secret, TLS_MASTER_SECRET_LEN,
 108:C:/Users/stapi/OneDrive/Desktop/GD32VW553/V1_MQTT_OK/GD32VW55X_Wifi_BLE_SDK/GD32VW55x_RELEASE_V1.0.2/MSDK/wpa_supplicant/src/tls\tlsv1_client.c **** 		    "key expansion", seed, 2 * TLS_RANDOM_LEN,
 109:C:/Users/stapi/OneDrive/Desktop/GD32VW553/V1_MQTT_OK/GD32VW55X_Wifi_BLE_SDK/GD32VW55x_RELEASE_V1.0.2/MSDK/wpa_supplicant/src/tls\tlsv1_client.c **** 		    key_block, key_block_len)) {
 110:C:/Users/stapi/OneDrive/Desktop/GD32VW553/V1_MQTT_OK/GD32VW55X_Wifi_BLE_SDK/GD32VW55x_RELEASE_V1.0.2/MSDK/wpa_supplicant/src/tls\tlsv1_client.c **** 		wpa_printf(MSG_DEBUG, "TLSv1: Failed to derive key_block");
 258              		.loc 1 110 3 is_stmt 0
 259 0082 0945     		li	a0,2
 260 0084 97000000 		call	wpa_printf
 260      E7800000 
 261              	.LVL23:
 111:C:/Users/stapi/OneDrive/Desktop/GD32VW553/V1_MQTT_OK/GD32VW55X_Wifi_BLE_SDK/GD32VW55x_RELEASE_V1.0.2/MSDK/wpa_supplicant/src/tls\tlsv1_client.c **** 		return -1;
 262              		.loc 1 111 3 is_stmt 1
 263              		.loc 1 111 10 is_stmt 0
 264 008c 7D59     		li	s2,-1
 265              	.L9:
 112:C:/Users/stapi/OneDrive/Desktop/GD32VW553/V1_MQTT_OK/GD32VW55X_Wifi_BLE_SDK/GD32VW55x_RELEASE_V1.0.2/MSDK/wpa_supplicant/src/tls\tlsv1_client.c **** 	}
 113:C:/Users/stapi/OneDrive/Desktop/GD32VW553/V1_MQTT_OK/GD32VW55X_Wifi_BLE_SDK/GD32VW55x_RELEASE_V1.0.2/MSDK/wpa_supplicant/src/tls\tlsv1_client.c **** 	wpa_hexdump_key(MSG_MSGDUMP, "TLSv1: key_block",
 114:C:/Users/stapi/OneDrive/Desktop/GD32VW553/V1_MQTT_OK/GD32VW55X_Wifi_BLE_SDK/GD32VW55x_RELEASE_V1.0.2/MSDK/wpa_supplicant/src/tls\tlsv1_client.c **** 			key_block, key_block_len);
 115:C:/Users/stapi/OneDrive/Desktop/GD32VW553/V1_MQTT_OK/GD32VW55X_Wifi_BLE_SDK/GD32VW55x_RELEASE_V1.0.2/MSDK/wpa_supplicant/src/tls\tlsv1_client.c **** 
 116:C:/Users/stapi/OneDrive/Desktop/GD32VW553/V1_MQTT_OK/GD32VW55X_Wifi_BLE_SDK/GD32VW55x_RELEASE_V1.0.2/MSDK/wpa_supplicant/src/tls\tlsv1_client.c **** 	pos = key_block;
 117:C:/Users/stapi/OneDrive/Desktop/GD32VW553/V1_MQTT_OK/GD32VW55X_Wifi_BLE_SDK/GD32VW55x_RELEASE_V1.0.2/MSDK/wpa_supplicant/src/tls\tlsv1_client.c **** 
 118:C:/Users/stapi/OneDrive/Desktop/GD32VW553/V1_MQTT_OK/GD32VW55X_Wifi_BLE_SDK/GD32VW55x_RELEASE_V1.0.2/MSDK/wpa_supplicant/src/tls\tlsv1_client.c **** 	/* client_write_MAC_secret */
 119:C:/Users/stapi/OneDrive/Desktop/GD32VW553/V1_MQTT_OK/GD32VW55X_Wifi_BLE_SDK/GD32VW55x_RELEASE_V1.0.2/MSDK/wpa_supplicant/src/tls\tlsv1_client.c **** 	os_memcpy(conn->rl.write_mac_secret, pos, conn->rl.hash_size);
 120:C:/Users/stapi/OneDrive/Desktop/GD32VW553/V1_MQTT_OK/GD32VW55X_Wifi_BLE_SDK/GD32VW55x_RELEASE_V1.0.2/MSDK/wpa_supplicant/src/tls\tlsv1_client.c **** 	pos += conn->rl.hash_size;
 121:C:/Users/stapi/OneDrive/Desktop/GD32VW553/V1_MQTT_OK/GD32VW55X_Wifi_BLE_SDK/GD32VW55x_RELEASE_V1.0.2/MSDK/wpa_supplicant/src/tls\tlsv1_client.c **** 	/* server_write_MAC_secret */
 122:C:/Users/stapi/OneDrive/Desktop/GD32VW553/V1_MQTT_OK/GD32VW55X_Wifi_BLE_SDK/GD32VW55x_RELEASE_V1.0.2/MSDK/wpa_supplicant/src/tls\tlsv1_client.c **** 	os_memcpy(conn->rl.read_mac_secret, pos, conn->rl.hash_size);
 123:C:/Users/stapi/OneDrive/Desktop/GD32VW553/V1_MQTT_OK/GD32VW55X_Wifi_BLE_SDK/GD32VW55x_RELEASE_V1.0.2/MSDK/wpa_supplicant/src/tls\tlsv1_client.c **** 	pos += conn->rl.hash_size;
 124:C:/Users/stapi/OneDrive/Desktop/GD32VW553/V1_MQTT_OK/GD32VW55X_Wifi_BLE_SDK/GD32VW55x_RELEASE_V1.0.2/MSDK/wpa_supplicant/src/tls\tlsv1_client.c **** 
 125:C:/Users/stapi/OneDrive/Desktop/GD32VW553/V1_MQTT_OK/GD32VW55X_Wifi_BLE_SDK/GD32VW55x_RELEASE_V1.0.2/MSDK/wpa_supplicant/src/tls\tlsv1_client.c **** 	/* client_write_key */
 126:C:/Users/stapi/OneDrive/Desktop/GD32VW553/V1_MQTT_OK/GD32VW55X_Wifi_BLE_SDK/GD32VW55x_RELEASE_V1.0.2/MSDK/wpa_supplicant/src/tls\tlsv1_client.c **** 	os_memcpy(conn->rl.write_key, pos, conn->rl.key_material_len);
 127:C:/Users/stapi/OneDrive/Desktop/GD32VW553/V1_MQTT_OK/GD32VW55X_Wifi_BLE_SDK/GD32VW55x_RELEASE_V1.0.2/MSDK/wpa_supplicant/src/tls\tlsv1_client.c **** 	pos += conn->rl.key_material_len;
 128:C:/Users/stapi/OneDrive/Desktop/GD32VW553/V1_MQTT_OK/GD32VW55X_Wifi_BLE_SDK/GD32VW55x_RELEASE_V1.0.2/MSDK/wpa_supplicant/src/tls\tlsv1_client.c **** 	/* server_write_key */
 129:C:/Users/stapi/OneDrive/Desktop/GD32VW553/V1_MQTT_OK/GD32VW55X_Wifi_BLE_SDK/GD32VW55x_RELEASE_V1.0.2/MSDK/wpa_supplicant/src/tls\tlsv1_client.c **** 	os_memcpy(conn->rl.read_key, pos, conn->rl.key_material_len);
 130:C:/Users/stapi/OneDrive/Desktop/GD32VW553/V1_MQTT_OK/GD32VW55X_Wifi_BLE_SDK/GD32VW55x_RELEASE_V1.0.2/MSDK/wpa_supplicant/src/tls\tlsv1_client.c **** 	pos += conn->rl.key_material_len;
 131:C:/Users/stapi/OneDrive/Desktop/GD32VW553/V1_MQTT_OK/GD32VW55X_Wifi_BLE_SDK/GD32VW55x_RELEASE_V1.0.2/MSDK/wpa_supplicant/src/tls\tlsv1_client.c **** 
 132:C:/Users/stapi/OneDrive/Desktop/GD32VW553/V1_MQTT_OK/GD32VW55X_Wifi_BLE_SDK/GD32VW55x_RELEASE_V1.0.2/MSDK/wpa_supplicant/src/tls\tlsv1_client.c **** 	if (conn->rl.tls_version == TLS_VERSION_1) {
 133:C:/Users/stapi/OneDrive/Desktop/GD32VW553/V1_MQTT_OK/GD32VW55X_Wifi_BLE_SDK/GD32VW55x_RELEASE_V1.0.2/MSDK/wpa_supplicant/src/tls\tlsv1_client.c **** 		/* client_write_IV */
 134:C:/Users/stapi/OneDrive/Desktop/GD32VW553/V1_MQTT_OK/GD32VW55X_Wifi_BLE_SDK/GD32VW55x_RELEASE_V1.0.2/MSDK/wpa_supplicant/src/tls\tlsv1_client.c **** 		os_memcpy(conn->rl.write_iv, pos, conn->rl.iv_size);
 135:C:/Users/stapi/OneDrive/Desktop/GD32VW553/V1_MQTT_OK/GD32VW55X_Wifi_BLE_SDK/GD32VW55x_RELEASE_V1.0.2/MSDK/wpa_supplicant/src/tls\tlsv1_client.c **** 		pos += conn->rl.iv_size;
 136:C:/Users/stapi/OneDrive/Desktop/GD32VW553/V1_MQTT_OK/GD32VW55X_Wifi_BLE_SDK/GD32VW55x_RELEASE_V1.0.2/MSDK/wpa_supplicant/src/tls\tlsv1_client.c **** 		/* server_write_IV */
 137:C:/Users/stapi/OneDrive/Desktop/GD32VW553/V1_MQTT_OK/GD32VW55X_Wifi_BLE_SDK/GD32VW55x_RELEASE_V1.0.2/MSDK/wpa_supplicant/src/tls\tlsv1_client.c **** 		os_memcpy(conn->rl.read_iv, pos, conn->rl.iv_size);
 138:C:/Users/stapi/OneDrive/Desktop/GD32VW553/V1_MQTT_OK/GD32VW55X_Wifi_BLE_SDK/GD32VW55x_RELEASE_V1.0.2/MSDK/wpa_supplicant/src/tls\tlsv1_client.c **** 	} else {
 139:C:/Users/stapi/OneDrive/Desktop/GD32VW553/V1_MQTT_OK/GD32VW55X_Wifi_BLE_SDK/GD32VW55x_RELEASE_V1.0.2/MSDK/wpa_supplicant/src/tls\tlsv1_client.c **** 		/*
 140:C:/Users/stapi/OneDrive/Desktop/GD32VW553/V1_MQTT_OK/GD32VW55X_Wifi_BLE_SDK/GD32VW55x_RELEASE_V1.0.2/MSDK/wpa_supplicant/src/tls\tlsv1_client.c **** 		 * Use IV field to set the mask value for TLS v1.1. A fixed
 141:C:/Users/stapi/OneDrive/Desktop/GD32VW553/V1_MQTT_OK/GD32VW55X_Wifi_BLE_SDK/GD32VW55x_RELEASE_V1.0.2/MSDK/wpa_supplicant/src/tls\tlsv1_client.c **** 		 * mask of zero is used per the RFC 4346, 6.2.3.2 CBC Block
 142:C:/Users/stapi/OneDrive/Desktop/GD32VW553/V1_MQTT_OK/GD32VW55X_Wifi_BLE_SDK/GD32VW55x_RELEASE_V1.0.2/MSDK/wpa_supplicant/src/tls\tlsv1_client.c **** 		 * Cipher option 2a.
 143:C:/Users/stapi/OneDrive/Desktop/GD32VW553/V1_MQTT_OK/GD32VW55X_Wifi_BLE_SDK/GD32VW55x_RELEASE_V1.0.2/MSDK/wpa_supplicant/src/tls\tlsv1_client.c **** 		 */
 144:C:/Users/stapi/OneDrive/Desktop/GD32VW553/V1_MQTT_OK/GD32VW55X_Wifi_BLE_SDK/GD32VW55x_RELEASE_V1.0.2/MSDK/wpa_supplicant/src/tls\tlsv1_client.c **** 		os_memset(conn->rl.write_iv, 0, conn->rl.iv_size);
 145:C:/Users/stapi/OneDrive/Desktop/GD32VW553/V1_MQTT_OK/GD32VW55X_Wifi_BLE_SDK/GD32VW55x_RELEASE_V1.0.2/MSDK/wpa_supplicant/src/tls\tlsv1_client.c **** 	}
 146:C:/Users/stapi/OneDrive/Desktop/GD32VW553/V1_MQTT_OK/GD32VW55X_Wifi_BLE_SDK/GD32VW55x_RELEASE_V1.0.2/MSDK/wpa_supplicant/src/tls\tlsv1_client.c **** 
 147:C:/Users/stapi/OneDrive/Desktop/GD32VW553/V1_MQTT_OK/GD32VW55X_Wifi_BLE_SDK/GD32VW55x_RELEASE_V1.0.2/MSDK/wpa_supplicant/src/tls\tlsv1_client.c **** 	return 0;
 148:C:/Users/stapi/OneDrive/Desktop/GD32VW553/V1_MQTT_OK/GD32VW55X_Wifi_BLE_SDK/GD32VW55x_RELEASE_V1.0.2/MSDK/wpa_supplicant/src/tls\tlsv1_client.c **** }
 266              		.loc 1 148 1
 267 008e 4A85     		mv	a0,s2
 268 0090 2D61     		addi	sp,sp,224
 269              		.cfi_remember_state
 270              		.cfi_def_cfa_offset 0
 271 0092 17030000 		tail	__riscv_restore_6
 271      67000300 
 272              		.cfi_restore 21
 273              		.cfi_restore 20
 274              		.cfi_restore 19
 275              		.cfi_restore 18
 276              		.cfi_restore 9
 277              		.cfi_restore 8
 278              		.cfi_restore 1
 279              		.cfi_def_cfa_offset -32
 280              	.LVL24:
 281              	.L11:
 282              		.cfi_restore_state
  97:C:/Users/stapi/OneDrive/Desktop/GD32VW553/V1_MQTT_OK/GD32VW55X_Wifi_BLE_SDK/GD32VW55x_RELEASE_V1.0.2/MSDK/wpa_supplicant/src/tls\tlsv1_client.c **** 				conn->master_secret, TLS_MASTER_SECRET_LEN);
 283              		.loc 1 97 3 is_stmt 1
 284 009a B7050000 		lui	a1,%hi(.LC3)
 285 009e 93060003 		li	a3,48
 286 00a2 4E86     		mv	a2,s3
 287 00a4 93850500 		addi	a1,a1,%lo(.LC3)
 288 00a8 0545     		li	a0,1
 289 00aa 97000000 		call	wpa_hexdump_key
 289      E7800000 
 290              	.LVL25:
 291              	.L10:
 101:C:/Users/stapi/OneDrive/Desktop/GD32VW553/V1_MQTT_OK/GD32VW55X_Wifi_BLE_SDK/GD32VW55x_RELEASE_V1.0.2/MSDK/wpa_supplicant/src/tls\tlsv1_client.c **** 	os_memcpy(seed + TLS_RANDOM_LEN, conn->client_random, TLS_RANDOM_LEN);
 292              		.loc 1 101 2
 293 00b2 13060002 		li	a2,32
 294 00b6 D685     		mv	a1,s5
 295 00b8 0A85     		mv	a0,sp
 296 00ba 97000000 		call	os_memcpy
 296      E7800000 
 297              	.LVL26:
 102:C:/Users/stapi/OneDrive/Desktop/GD32VW553/V1_MQTT_OK/GD32VW55X_Wifi_BLE_SDK/GD32VW55x_RELEASE_V1.0.2/MSDK/wpa_supplicant/src/tls\tlsv1_client.c **** 	key_block_len = 2 * (conn->rl.hash_size + conn->rl.key_material_len);
 298              		.loc 1 102 2
 299 00c2 13060002 		li	a2,32
 300 00c6 D285     		mv	a1,s4
 301 00c8 0810     		addi	a0,sp,32
 302 00ca 97000000 		call	os_memcpy
 302      E7800000 
 303              	.LVL27:
 103:C:/Users/stapi/OneDrive/Desktop/GD32VW553/V1_MQTT_OK/GD32VW55X_Wifi_BLE_SDK/GD32VW55x_RELEASE_V1.0.2/MSDK/wpa_supplicant/src/tls\tlsv1_client.c **** 	if (conn->rl.tls_version == TLS_VERSION_1)
 304              		.loc 1 103 2
 103:C:/Users/stapi/OneDrive/Desktop/GD32VW553/V1_MQTT_OK/GD32VW55X_Wifi_BLE_SDK/GD32VW55x_RELEASE_V1.0.2/MSDK/wpa_supplicant/src/tls\tlsv1_client.c **** 	if (conn->rl.tls_version == TLS_VERSION_1)
 305              		.loc 1 103 42 is_stmt 0
 306 00d2 8328C40A 		lw	a7,172(s0)
 307 00d6 8324840A 		lw	s1,168(s0)
 104:C:/Users/stapi/OneDrive/Desktop/GD32VW553/V1_MQTT_OK/GD32VW55X_Wifi_BLE_SDK/GD32VW55x_RELEASE_V1.0.2/MSDK/wpa_supplicant/src/tls\tlsv1_client.c **** 		key_block_len += 2 * conn->rl.iv_size;
 308              		.loc 1 104 14
 309 00da 03554400 		lhu	a0,4(s0)
 104:C:/Users/stapi/OneDrive/Desktop/GD32VW553/V1_MQTT_OK/GD32VW55X_Wifi_BLE_SDK/GD32VW55x_RELEASE_V1.0.2/MSDK/wpa_supplicant/src/tls\tlsv1_client.c **** 		key_block_len += 2 * conn->rl.iv_size;
 310              		.loc 1 104 5
 311 00de 93071030 		li	a5,769
 103:C:/Users/stapi/OneDrive/Desktop/GD32VW553/V1_MQTT_OK/GD32VW55X_Wifi_BLE_SDK/GD32VW55x_RELEASE_V1.0.2/MSDK/wpa_supplicant/src/tls\tlsv1_client.c **** 	if (conn->rl.tls_version == TLS_VERSION_1)
 312              		.loc 1 103 42
 313 00e2 C694     		add	s1,s1,a7
 103:C:/Users/stapi/OneDrive/Desktop/GD32VW553/V1_MQTT_OK/GD32VW55X_Wifi_BLE_SDK/GD32VW55x_RELEASE_V1.0.2/MSDK/wpa_supplicant/src/tls\tlsv1_client.c **** 	if (conn->rl.tls_version == TLS_VERSION_1)
 314              		.loc 1 103 16
 315 00e4 8604     		slli	s1,s1,1
 316              	.LVL28:
 104:C:/Users/stapi/OneDrive/Desktop/GD32VW553/V1_MQTT_OK/GD32VW55X_Wifi_BLE_SDK/GD32VW55x_RELEASE_V1.0.2/MSDK/wpa_supplicant/src/tls\tlsv1_client.c **** 		key_block_len += 2 * conn->rl.iv_size;
 317              		.loc 1 104 2 is_stmt 1
 104:C:/Users/stapi/OneDrive/Desktop/GD32VW553/V1_MQTT_OK/GD32VW55X_Wifi_BLE_SDK/GD32VW55x_RELEASE_V1.0.2/MSDK/wpa_supplicant/src/tls\tlsv1_client.c **** 		key_block_len += 2 * conn->rl.iv_size;
 318              		.loc 1 104 5 is_stmt 0
 319 00e6 6316F500 		bne	a0,a5,.L13
 105:C:/Users/stapi/OneDrive/Desktop/GD32VW553/V1_MQTT_OK/GD32VW55X_Wifi_BLE_SDK/GD32VW55x_RELEASE_V1.0.2/MSDK/wpa_supplicant/src/tls\tlsv1_client.c **** 	if (tls_prf(conn->rl.tls_version,
 320              		.loc 1 105 3 is_stmt 1
 105:C:/Users/stapi/OneDrive/Desktop/GD32VW553/V1_MQTT_OK/GD32VW55X_Wifi_BLE_SDK/GD32VW55x_RELEASE_V1.0.2/MSDK/wpa_supplicant/src/tls\tlsv1_client.c **** 	if (tls_prf(conn->rl.tls_version,
 321              		.loc 1 105 22 is_stmt 0
 322 00ea 8327040B 		lw	a5,176(s0)
 105:C:/Users/stapi/OneDrive/Desktop/GD32VW553/V1_MQTT_OK/GD32VW55X_Wifi_BLE_SDK/GD32VW55x_RELEASE_V1.0.2/MSDK/wpa_supplicant/src/tls\tlsv1_client.c **** 	if (tls_prf(conn->rl.tls_version,
 323              		.loc 1 105 17
 324 00ee B3A49720 		sh1add	s1,a5,s1
 325              	.LVL29:
 326              	.L13:
 106:C:/Users/stapi/OneDrive/Desktop/GD32VW553/V1_MQTT_OK/GD32VW55X_Wifi_BLE_SDK/GD32VW55x_RELEASE_V1.0.2/MSDK/wpa_supplicant/src/tls\tlsv1_client.c **** 		    conn->master_secret, TLS_MASTER_SECRET_LEN,
 327              		.loc 1 106 2 is_stmt 1
 106:C:/Users/stapi/OneDrive/Desktop/GD32VW553/V1_MQTT_OK/GD32VW55X_Wifi_BLE_SDK/GD32VW55x_RELEASE_V1.0.2/MSDK/wpa_supplicant/src/tls\tlsv1_client.c **** 		    conn->master_secret, TLS_MASTER_SECRET_LEN,
 328              		.loc 1 106 6 is_stmt 0
 329 00f2 B7060000 		lui	a3,%hi(.LC4)
 330 00f6 A688     		mv	a7,s1
 331 00f8 13080104 		addi	a6,sp,64
 332 00fc 93070004 		li	a5,64
 333 0100 0A87     		mv	a4,sp
 334 0102 93860600 		addi	a3,a3,%lo(.LC4)
 335 0106 13060003 		li	a2,48
 336 010a CE85     		mv	a1,s3
 337 010c 97000000 		call	tls_prf
 337      E7800000 
 338              	.LVL30:
 339 0114 2A89     		mv	s2,a0
 106:C:/Users/stapi/OneDrive/Desktop/GD32VW553/V1_MQTT_OK/GD32VW55X_Wifi_BLE_SDK/GD32VW55x_RELEASE_V1.0.2/MSDK/wpa_supplicant/src/tls\tlsv1_client.c **** 		    conn->master_secret, TLS_MASTER_SECRET_LEN,
 340              		.loc 1 106 5
 341 0116 11C5     		beq	a0,zero,.L14
 110:C:/Users/stapi/OneDrive/Desktop/GD32VW553/V1_MQTT_OK/GD32VW55X_Wifi_BLE_SDK/GD32VW55x_RELEASE_V1.0.2/MSDK/wpa_supplicant/src/tls\tlsv1_client.c **** 		return -1;
 342              		.loc 1 110 3 is_stmt 1
 343 0118 B7050000 		lui	a1,%hi(.LC5)
 344 011c 93850500 		addi	a1,a1,%lo(.LC5)
 345 0120 8DB7     		j	.L20
 346              	.L14:
 113:C:/Users/stapi/OneDrive/Desktop/GD32VW553/V1_MQTT_OK/GD32VW55X_Wifi_BLE_SDK/GD32VW55x_RELEASE_V1.0.2/MSDK/wpa_supplicant/src/tls\tlsv1_client.c **** 			key_block, key_block_len);
 347              		.loc 1 113 2
 348 0122 B7050000 		lui	a1,%hi(.LC6)
 349 0126 A686     		mv	a3,s1
 350 0128 9000     		addi	a2,sp,64
 351 012a 93850500 		addi	a1,a1,%lo(.LC6)
 352 012e 0545     		li	a0,1
 353 0130 97000000 		call	wpa_hexdump_key
 353      E7800000 
 354              	.LVL31:
 116:C:/Users/stapi/OneDrive/Desktop/GD32VW553/V1_MQTT_OK/GD32VW55X_Wifi_BLE_SDK/GD32VW55x_RELEASE_V1.0.2/MSDK/wpa_supplicant/src/tls\tlsv1_client.c **** 
 355              		.loc 1 116 2
 119:C:/Users/stapi/OneDrive/Desktop/GD32VW553/V1_MQTT_OK/GD32VW55X_Wifi_BLE_SDK/GD32VW55x_RELEASE_V1.0.2/MSDK/wpa_supplicant/src/tls\tlsv1_client.c **** 	pos += conn->rl.hash_size;
 356              		.loc 1 119 2
 357 0138 0326840A 		lw	a2,168(s0)
 358 013c 8C00     		addi	a1,sp,64
 359              	.LVL32:
 360 013e 13056400 		addi	a0,s0,6
 361 0142 97000000 		call	os_memcpy
 361      E7800000 
 362              	.LVL33:
 120:C:/Users/stapi/OneDrive/Desktop/GD32VW553/V1_MQTT_OK/GD32VW55X_Wifi_BLE_SDK/GD32VW55x_RELEASE_V1.0.2/MSDK/wpa_supplicant/src/tls\tlsv1_client.c **** 	/* server_write_MAC_secret */
 363              		.loc 1 120 2
 120:C:/Users/stapi/OneDrive/Desktop/GD32VW553/V1_MQTT_OK/GD32VW55X_Wifi_BLE_SDK/GD32VW55x_RELEASE_V1.0.2/MSDK/wpa_supplicant/src/tls\tlsv1_client.c **** 	/* server_write_MAC_secret */
 364              		.loc 1 120 17 is_stmt 0
 365 014a 0326840A 		lw	a2,168(s0)
 120:C:/Users/stapi/OneDrive/Desktop/GD32VW553/V1_MQTT_OK/GD32VW55X_Wifi_BLE_SDK/GD32VW55x_RELEASE_V1.0.2/MSDK/wpa_supplicant/src/tls\tlsv1_client.c **** 	/* server_write_MAC_secret */
 366              		.loc 1 120 6
 367 014e 9C00     		addi	a5,sp,64
 368              	.LVL34:
 122:C:/Users/stapi/OneDrive/Desktop/GD32VW553/V1_MQTT_OK/GD32VW55X_Wifi_BLE_SDK/GD32VW55x_RELEASE_V1.0.2/MSDK/wpa_supplicant/src/tls\tlsv1_client.c **** 	pos += conn->rl.hash_size;
 369              		.loc 1 122 2
 370 0150 13056402 		addi	a0,s0,38
 120:C:/Users/stapi/OneDrive/Desktop/GD32VW553/V1_MQTT_OK/GD32VW55X_Wifi_BLE_SDK/GD32VW55x_RELEASE_V1.0.2/MSDK/wpa_supplicant/src/tls\tlsv1_client.c **** 	/* server_write_MAC_secret */
 371              		.loc 1 120 6
 372 0154 B384C700 		add	s1,a5,a2
 373              	.LVL35:
 122:C:/Users/stapi/OneDrive/Desktop/GD32VW553/V1_MQTT_OK/GD32VW55X_Wifi_BLE_SDK/GD32VW55x_RELEASE_V1.0.2/MSDK/wpa_supplicant/src/tls\tlsv1_client.c **** 	pos += conn->rl.hash_size;
 374              		.loc 1 122 2 is_stmt 1
 375 0158 A685     		mv	a1,s1
 376 015a 97000000 		call	os_memcpy
 376      E7800000 
 377              	.LVL36:
 123:C:/Users/stapi/OneDrive/Desktop/GD32VW553/V1_MQTT_OK/GD32VW55X_Wifi_BLE_SDK/GD32VW55x_RELEASE_V1.0.2/MSDK/wpa_supplicant/src/tls\tlsv1_client.c **** 
 378              		.loc 1 123 2
 123:C:/Users/stapi/OneDrive/Desktop/GD32VW553/V1_MQTT_OK/GD32VW55X_Wifi_BLE_SDK/GD32VW55x_RELEASE_V1.0.2/MSDK/wpa_supplicant/src/tls\tlsv1_client.c **** 
 379              		.loc 1 123 6 is_stmt 0
 380 0162 8325840A 		lw	a1,168(s0)
 126:C:/Users/stapi/OneDrive/Desktop/GD32VW553/V1_MQTT_OK/GD32VW55X_Wifi_BLE_SDK/GD32VW55x_RELEASE_V1.0.2/MSDK/wpa_supplicant/src/tls\tlsv1_client.c **** 	pos += conn->rl.key_material_len;
 381              		.loc 1 126 2
 382 0166 0326C40A 		lw	a2,172(s0)
 383 016a 13056404 		addi	a0,s0,70
 123:C:/Users/stapi/OneDrive/Desktop/GD32VW553/V1_MQTT_OK/GD32VW55X_Wifi_BLE_SDK/GD32VW55x_RELEASE_V1.0.2/MSDK/wpa_supplicant/src/tls\tlsv1_client.c **** 
 384              		.loc 1 123 6
 385 016e AE94     		add	s1,s1,a1
 386              	.LVL37:
 126:C:/Users/stapi/OneDrive/Desktop/GD32VW553/V1_MQTT_OK/GD32VW55X_Wifi_BLE_SDK/GD32VW55x_RELEASE_V1.0.2/MSDK/wpa_supplicant/src/tls\tlsv1_client.c **** 	pos += conn->rl.key_material_len;
 387              		.loc 1 126 2 is_stmt 1
 388 0170 A685     		mv	a1,s1
 389 0172 97000000 		call	os_memcpy
 389      E7800000 
 390              	.LVL38:
 127:C:/Users/stapi/OneDrive/Desktop/GD32VW553/V1_MQTT_OK/GD32VW55X_Wifi_BLE_SDK/GD32VW55x_RELEASE_V1.0.2/MSDK/wpa_supplicant/src/tls\tlsv1_client.c **** 	/* server_write_key */
 391              		.loc 1 127 2
 127:C:/Users/stapi/OneDrive/Desktop/GD32VW553/V1_MQTT_OK/GD32VW55X_Wifi_BLE_SDK/GD32VW55x_RELEASE_V1.0.2/MSDK/wpa_supplicant/src/tls\tlsv1_client.c **** 	/* server_write_key */
 392              		.loc 1 127 17 is_stmt 0
 393 017a 0326C40A 		lw	a2,172(s0)
 129:C:/Users/stapi/OneDrive/Desktop/GD32VW553/V1_MQTT_OK/GD32VW55X_Wifi_BLE_SDK/GD32VW55x_RELEASE_V1.0.2/MSDK/wpa_supplicant/src/tls\tlsv1_client.c **** 	pos += conn->rl.key_material_len;
 394              		.loc 1 129 2
 395 017e 13056406 		addi	a0,s0,102
 119:C:/Users/stapi/OneDrive/Desktop/GD32VW553/V1_MQTT_OK/GD32VW55X_Wifi_BLE_SDK/GD32VW55x_RELEASE_V1.0.2/MSDK/wpa_supplicant/src/tls\tlsv1_client.c **** 	pos += conn->rl.hash_size;
 396              		.loc 1 119 2
 397 0182 93090408 		addi	s3,s0,128
 127:C:/Users/stapi/OneDrive/Desktop/GD32VW553/V1_MQTT_OK/GD32VW55X_Wifi_BLE_SDK/GD32VW55x_RELEASE_V1.0.2/MSDK/wpa_supplicant/src/tls\tlsv1_client.c **** 	/* server_write_key */
 398              		.loc 1 127 6
 399 0186 B294     		add	s1,s1,a2
 400              	.LVL39:
 129:C:/Users/stapi/OneDrive/Desktop/GD32VW553/V1_MQTT_OK/GD32VW55X_Wifi_BLE_SDK/GD32VW55x_RELEASE_V1.0.2/MSDK/wpa_supplicant/src/tls\tlsv1_client.c **** 	pos += conn->rl.key_material_len;
 401              		.loc 1 129 2 is_stmt 1
 402 0188 A685     		mv	a1,s1
 403 018a 97000000 		call	os_memcpy
 403      E7800000 
 404              	.LVL40:
 130:C:/Users/stapi/OneDrive/Desktop/GD32VW553/V1_MQTT_OK/GD32VW55X_Wifi_BLE_SDK/GD32VW55x_RELEASE_V1.0.2/MSDK/wpa_supplicant/src/tls\tlsv1_client.c **** 
 405              		.loc 1 130 2
 132:C:/Users/stapi/OneDrive/Desktop/GD32VW553/V1_MQTT_OK/GD32VW55X_Wifi_BLE_SDK/GD32VW55x_RELEASE_V1.0.2/MSDK/wpa_supplicant/src/tls\tlsv1_client.c **** 		/* client_write_IV */
 406              		.loc 1 132 2
 132:C:/Users/stapi/OneDrive/Desktop/GD32VW553/V1_MQTT_OK/GD32VW55X_Wifi_BLE_SDK/GD32VW55x_RELEASE_V1.0.2/MSDK/wpa_supplicant/src/tls\tlsv1_client.c **** 		/* client_write_IV */
 407              		.loc 1 132 5 is_stmt 0
 408 0192 03574400 		lhu	a4,4(s0)
 409 0196 93071030 		li	a5,769
 410 019a 0326040B 		lw	a2,176(s0)
 134:C:/Users/stapi/OneDrive/Desktop/GD32VW553/V1_MQTT_OK/GD32VW55X_Wifi_BLE_SDK/GD32VW55x_RELEASE_V1.0.2/MSDK/wpa_supplicant/src/tls\tlsv1_client.c **** 		pos += conn->rl.iv_size;
 411              		.loc 1 134 21
 412 019e 13056408 		addi	a0,s0,134
 132:C:/Users/stapi/OneDrive/Desktop/GD32VW553/V1_MQTT_OK/GD32VW55X_Wifi_BLE_SDK/GD32VW55x_RELEASE_V1.0.2/MSDK/wpa_supplicant/src/tls\tlsv1_client.c **** 		/* client_write_IV */
 413              		.loc 1 132 5
 414 01a2 6315F702 		bne	a4,a5,.L15
 130:C:/Users/stapi/OneDrive/Desktop/GD32VW553/V1_MQTT_OK/GD32VW55X_Wifi_BLE_SDK/GD32VW55x_RELEASE_V1.0.2/MSDK/wpa_supplicant/src/tls\tlsv1_client.c **** 
 415              		.loc 1 130 6
 416 01a6 8325C40A 		lw	a1,172(s0)
 417 01aa AE94     		add	s1,s1,a1
 418              	.LVL41:
 134:C:/Users/stapi/OneDrive/Desktop/GD32VW553/V1_MQTT_OK/GD32VW55X_Wifi_BLE_SDK/GD32VW55x_RELEASE_V1.0.2/MSDK/wpa_supplicant/src/tls\tlsv1_client.c **** 		pos += conn->rl.iv_size;
 419              		.loc 1 134 3 is_stmt 1
 420 01ac A685     		mv	a1,s1
 421 01ae 97000000 		call	os_memcpy
 421      E7800000 
 422              	.LVL42:
 135:C:/Users/stapi/OneDrive/Desktop/GD32VW553/V1_MQTT_OK/GD32VW55X_Wifi_BLE_SDK/GD32VW55x_RELEASE_V1.0.2/MSDK/wpa_supplicant/src/tls\tlsv1_client.c **** 		/* server_write_IV */
 423              		.loc 1 135 3
 137:C:/Users/stapi/OneDrive/Desktop/GD32VW553/V1_MQTT_OK/GD32VW55X_Wifi_BLE_SDK/GD32VW55x_RELEASE_V1.0.2/MSDK/wpa_supplicant/src/tls\tlsv1_client.c **** 	} else {
 424              		.loc 1 137 3
 425 01b6 0326040B 		lw	a2,176(s0)
 426 01ba 13056409 		addi	a0,s0,150
 427 01be B385C400 		add	a1,s1,a2
 428              	.LVL43:
 429 01c2 97000000 		call	os_memcpy
 429      E7800000 
 430              	.LVL44:
 431 01ca D1B5     		j	.L9
 432              	.LVL45:
 433              	.L15:
 144:C:/Users/stapi/OneDrive/Desktop/GD32VW553/V1_MQTT_OK/GD32VW55X_Wifi_BLE_SDK/GD32VW55x_RELEASE_V1.0.2/MSDK/wpa_supplicant/src/tls\tlsv1_client.c **** 	}
 434              		.loc 1 144 3
 435 01cc 8145     		li	a1,0
 436 01ce 97000000 		call	os_memset
 436      E7800000 
 437              	.LVL46:
 438 01d6 65BD     		j	.L9
 439              		.cfi_endproc
 440              	.LFE90:
 442              		.section	.rodata.tlsv1_client_handshake.str1.4,"aMS",@progbits,1
 443              		.align	2
 444              	.LC7:
 445 0000 544C5376 		.string	"TLSv1: Failed to allocate memory for pending record"
 445      313A2046 
 445      61696C65 
 445      6420746F 
 445      20616C6C 
 446              		.align	2
 447              	.LC8:
 448 0034 544C5376 		.string	"TLSv1: Processing received record failed"
 448      313A2050 
 448      726F6365 
 448      7373696E 
 448      67207265 
 449 005d 000000   		.align	2
 450              	.LC9:
 451 0060 544C5376 		.string	"TLSv1: Need more data"
 451      313A204E 
 451      65656420 
 451      6D6F7265 
 451      20646174 
 452              		.section	.text.tlsv1_client_handshake,"ax",@progbits
 453              		.align	1
 454              		.globl	tlsv1_client_handshake
 456              	tlsv1_client_handshake:
 457              	.LFB91:
 149:C:/Users/stapi/OneDrive/Desktop/GD32VW553/V1_MQTT_OK/GD32VW55X_Wifi_BLE_SDK/GD32VW55x_RELEASE_V1.0.2/MSDK/wpa_supplicant/src/tls\tlsv1_client.c **** 
 150:C:/Users/stapi/OneDrive/Desktop/GD32VW553/V1_MQTT_OK/GD32VW55X_Wifi_BLE_SDK/GD32VW55x_RELEASE_V1.0.2/MSDK/wpa_supplicant/src/tls\tlsv1_client.c **** 
 151:C:/Users/stapi/OneDrive/Desktop/GD32VW553/V1_MQTT_OK/GD32VW55X_Wifi_BLE_SDK/GD32VW55x_RELEASE_V1.0.2/MSDK/wpa_supplicant/src/tls\tlsv1_client.c **** /**
 152:C:/Users/stapi/OneDrive/Desktop/GD32VW553/V1_MQTT_OK/GD32VW55X_Wifi_BLE_SDK/GD32VW55x_RELEASE_V1.0.2/MSDK/wpa_supplicant/src/tls\tlsv1_client.c ****  * tlsv1_client_handshake - Process TLS handshake
 153:C:/Users/stapi/OneDrive/Desktop/GD32VW553/V1_MQTT_OK/GD32VW55X_Wifi_BLE_SDK/GD32VW55x_RELEASE_V1.0.2/MSDK/wpa_supplicant/src/tls\tlsv1_client.c ****  * @conn: TLSv1 client connection data from tlsv1_client_init()
 154:C:/Users/stapi/OneDrive/Desktop/GD32VW553/V1_MQTT_OK/GD32VW55X_Wifi_BLE_SDK/GD32VW55x_RELEASE_V1.0.2/MSDK/wpa_supplicant/src/tls\tlsv1_client.c ****  * @in_data: Input data from TLS peer
 155:C:/Users/stapi/OneDrive/Desktop/GD32VW553/V1_MQTT_OK/GD32VW55X_Wifi_BLE_SDK/GD32VW55x_RELEASE_V1.0.2/MSDK/wpa_supplicant/src/tls\tlsv1_client.c ****  * @in_len: Input data length
 156:C:/Users/stapi/OneDrive/Desktop/GD32VW553/V1_MQTT_OK/GD32VW55X_Wifi_BLE_SDK/GD32VW55x_RELEASE_V1.0.2/MSDK/wpa_supplicant/src/tls\tlsv1_client.c ****  * @out_len: Length of the output buffer.
 157:C:/Users/stapi/OneDrive/Desktop/GD32VW553/V1_MQTT_OK/GD32VW55X_Wifi_BLE_SDK/GD32VW55x_RELEASE_V1.0.2/MSDK/wpa_supplicant/src/tls\tlsv1_client.c ****  * @appl_data: Pointer to application data pointer, or %NULL if dropped
 158:C:/Users/stapi/OneDrive/Desktop/GD32VW553/V1_MQTT_OK/GD32VW55X_Wifi_BLE_SDK/GD32VW55x_RELEASE_V1.0.2/MSDK/wpa_supplicant/src/tls\tlsv1_client.c ****  * @appl_data_len: Pointer to variable that is set to appl_data length
 159:C:/Users/stapi/OneDrive/Desktop/GD32VW553/V1_MQTT_OK/GD32VW55X_Wifi_BLE_SDK/GD32VW55x_RELEASE_V1.0.2/MSDK/wpa_supplicant/src/tls\tlsv1_client.c ****  * @need_more_data: Set to 1 if more data would be needed to complete
 160:C:/Users/stapi/OneDrive/Desktop/GD32VW553/V1_MQTT_OK/GD32VW55X_Wifi_BLE_SDK/GD32VW55x_RELEASE_V1.0.2/MSDK/wpa_supplicant/src/tls\tlsv1_client.c ****  *	processing
 161:C:/Users/stapi/OneDrive/Desktop/GD32VW553/V1_MQTT_OK/GD32VW55X_Wifi_BLE_SDK/GD32VW55x_RELEASE_V1.0.2/MSDK/wpa_supplicant/src/tls\tlsv1_client.c ****  * Returns: Pointer to output data, %NULL on failure
 162:C:/Users/stapi/OneDrive/Desktop/GD32VW553/V1_MQTT_OK/GD32VW55X_Wifi_BLE_SDK/GD32VW55x_RELEASE_V1.0.2/MSDK/wpa_supplicant/src/tls\tlsv1_client.c ****  */
 163:C:/Users/stapi/OneDrive/Desktop/GD32VW553/V1_MQTT_OK/GD32VW55X_Wifi_BLE_SDK/GD32VW55x_RELEASE_V1.0.2/MSDK/wpa_supplicant/src/tls\tlsv1_client.c **** u8 * tlsv1_client_handshake(struct tlsv1_client *conn,
 164:C:/Users/stapi/OneDrive/Desktop/GD32VW553/V1_MQTT_OK/GD32VW55X_Wifi_BLE_SDK/GD32VW55x_RELEASE_V1.0.2/MSDK/wpa_supplicant/src/tls\tlsv1_client.c **** 			    const u8 *in_data, size_t in_len,
 165:C:/Users/stapi/OneDrive/Desktop/GD32VW553/V1_MQTT_OK/GD32VW55X_Wifi_BLE_SDK/GD32VW55x_RELEASE_V1.0.2/MSDK/wpa_supplicant/src/tls\tlsv1_client.c **** 			    size_t *out_len, u8 **appl_data,
 166:C:/Users/stapi/OneDrive/Desktop/GD32VW553/V1_MQTT_OK/GD32VW55X_Wifi_BLE_SDK/GD32VW55x_RELEASE_V1.0.2/MSDK/wpa_supplicant/src/tls\tlsv1_client.c **** 			    size_t *appl_data_len, int *need_more_data)
 167:C:/Users/stapi/OneDrive/Desktop/GD32VW553/V1_MQTT_OK/GD32VW55X_Wifi_BLE_SDK/GD32VW55x_RELEASE_V1.0.2/MSDK/wpa_supplicant/src/tls\tlsv1_client.c **** {
 458              		.loc 1 167 1
 459              		.cfi_startproc
 460              	.LVL47:
 461 0000 17030000 		call	t0,__riscv_save_12
 461      E7020300 
 462              		.cfi_offset 27, -52
 463              		.cfi_offset 26, -48
 464              		.cfi_offset 25, -44
 465              		.cfi_offset 24, -40
 466              		.cfi_offset 23, -36
 467              		.cfi_offset 22, -32
 468              		.cfi_offset 21, -28
 469              		.cfi_offset 20, -24
 470              		.cfi_offset 19, -20
 471              		.cfi_offset 18, -16
 472              		.cfi_offset 9, -12
 473              		.cfi_offset 8, -8
 474              		.cfi_offset 1, -4
 475              		.cfi_def_cfa_offset 64
 168:C:/Users/stapi/OneDrive/Desktop/GD32VW553/V1_MQTT_OK/GD32VW55X_Wifi_BLE_SDK/GD32VW55x_RELEASE_V1.0.2/MSDK/wpa_supplicant/src/tls\tlsv1_client.c **** 	const u8 *pos, *end;
 476              		.loc 1 168 2
 169:C:/Users/stapi/OneDrive/Desktop/GD32VW553/V1_MQTT_OK/GD32VW55X_Wifi_BLE_SDK/GD32VW55x_RELEASE_V1.0.2/MSDK/wpa_supplicant/src/tls\tlsv1_client.c **** 	u8 *msg = NULL, *in_msg = NULL, *in_pos, *in_end, alert, ct;
 477              		.loc 1 169 2
 478              	.LVL48:
 170:C:/Users/stapi/OneDrive/Desktop/GD32VW553/V1_MQTT_OK/GD32VW55X_Wifi_BLE_SDK/GD32VW55x_RELEASE_V1.0.2/MSDK/wpa_supplicant/src/tls\tlsv1_client.c **** 	size_t in_msg_len;
 479              		.loc 1 170 2
 171:C:/Users/stapi/OneDrive/Desktop/GD32VW553/V1_MQTT_OK/GD32VW55X_Wifi_BLE_SDK/GD32VW55x_RELEASE_V1.0.2/MSDK/wpa_supplicant/src/tls\tlsv1_client.c **** 	int no_appl_data;
 480              		.loc 1 171 2
 172:C:/Users/stapi/OneDrive/Desktop/GD32VW553/V1_MQTT_OK/GD32VW55X_Wifi_BLE_SDK/GD32VW55x_RELEASE_V1.0.2/MSDK/wpa_supplicant/src/tls\tlsv1_client.c **** 	int used;
 481              		.loc 1 172 2
 173:C:/Users/stapi/OneDrive/Desktop/GD32VW553/V1_MQTT_OK/GD32VW55X_Wifi_BLE_SDK/GD32VW55x_RELEASE_V1.0.2/MSDK/wpa_supplicant/src/tls\tlsv1_client.c **** 
 174:C:/Users/stapi/OneDrive/Desktop/GD32VW553/V1_MQTT_OK/GD32VW55X_Wifi_BLE_SDK/GD32VW55x_RELEASE_V1.0.2/MSDK/wpa_supplicant/src/tls\tlsv1_client.c **** 	if (need_more_data)
 482              		.loc 1 174 2
 167:C:/Users/stapi/OneDrive/Desktop/GD32VW553/V1_MQTT_OK/GD32VW55X_Wifi_BLE_SDK/GD32VW55x_RELEASE_V1.0.2/MSDK/wpa_supplicant/src/tls\tlsv1_client.c **** 	const u8 *pos, *end;
 483              		.loc 1 167 1 is_stmt 0
 484 0008 0111     		addi	sp,sp,-32
 485              		.cfi_def_cfa_offset 96
 167:C:/Users/stapi/OneDrive/Desktop/GD32VW553/V1_MQTT_OK/GD32VW55X_Wifi_BLE_SDK/GD32VW55x_RELEASE_V1.0.2/MSDK/wpa_supplicant/src/tls\tlsv1_client.c **** 	const u8 *pos, *end;
 486              		.loc 1 167 1
 487 000a 2A84     		mv	s0,a0
 488 000c AE84     		mv	s1,a1
 489 000e B289     		mv	s3,a2
 490 0010 B68A     		mv	s5,a3
 491 0012 3A8B     		mv	s6,a4
 492 0014 3E8C     		mv	s8,a5
 493 0016 428A     		mv	s4,a6
 494              		.loc 1 174 5
 495 0018 63040800 		beq	a6,zero,.L22
 175:C:/Users/stapi/OneDrive/Desktop/GD32VW553/V1_MQTT_OK/GD32VW55X_Wifi_BLE_SDK/GD32VW55x_RELEASE_V1.0.2/MSDK/wpa_supplicant/src/tls\tlsv1_client.c **** 		*need_more_data = 0;
 496              		.loc 1 175 3 is_stmt 1
 497              		.loc 1 175 19 is_stmt 0
 498 001c 23200800 		sw	zero,0(a6)
 499              	.L22:
 176:C:/Users/stapi/OneDrive/Desktop/GD32VW553/V1_MQTT_OK/GD32VW55X_Wifi_BLE_SDK/GD32VW55x_RELEASE_V1.0.2/MSDK/wpa_supplicant/src/tls\tlsv1_client.c **** 
 177:C:/Users/stapi/OneDrive/Desktop/GD32VW553/V1_MQTT_OK/GD32VW55X_Wifi_BLE_SDK/GD32VW55x_RELEASE_V1.0.2/MSDK/wpa_supplicant/src/tls\tlsv1_client.c **** 	if (conn->state == CLIENT_HELLO) {
 500              		.loc 1 177 2 is_stmt 1
 501              		.loc 1 177 5 is_stmt 0
 502 0020 1C40     		lw	a5,0(s0)
 503              	.LVL49:
 504 0022 95E3     		bne	a5,zero,.L23
 178:C:/Users/stapi/OneDrive/Desktop/GD32VW553/V1_MQTT_OK/GD32VW55X_Wifi_BLE_SDK/GD32VW55x_RELEASE_V1.0.2/MSDK/wpa_supplicant/src/tls\tlsv1_client.c **** 		if (in_len)
 505              		.loc 1 178 3 is_stmt 1
 506              		.loc 1 178 6 is_stmt 0
 507 0024 63840900 		beq	s3,zero,.L24
 508              	.LVL50:
 509              	.L69:
 510              	.LBB49:
 179:C:/Users/stapi/OneDrive/Desktop/GD32VW553/V1_MQTT_OK/GD32VW55X_Wifi_BLE_SDK/GD32VW55x_RELEASE_V1.0.2/MSDK/wpa_supplicant/src/tls\tlsv1_client.c **** 			return NULL;
 180:C:/Users/stapi/OneDrive/Desktop/GD32VW553/V1_MQTT_OK/GD32VW55X_Wifi_BLE_SDK/GD32VW55x_RELEASE_V1.0.2/MSDK/wpa_supplicant/src/tls\tlsv1_client.c **** 		return tls_send_client_hello(conn, out_len);
 181:C:/Users/stapi/OneDrive/Desktop/GD32VW553/V1_MQTT_OK/GD32VW55X_Wifi_BLE_SDK/GD32VW55x_RELEASE_V1.0.2/MSDK/wpa_supplicant/src/tls\tlsv1_client.c **** 	}
 182:C:/Users/stapi/OneDrive/Desktop/GD32VW553/V1_MQTT_OK/GD32VW55X_Wifi_BLE_SDK/GD32VW55x_RELEASE_V1.0.2/MSDK/wpa_supplicant/src/tls\tlsv1_client.c **** 
 183:C:/Users/stapi/OneDrive/Desktop/GD32VW553/V1_MQTT_OK/GD32VW55X_Wifi_BLE_SDK/GD32VW55x_RELEASE_V1.0.2/MSDK/wpa_supplicant/src/tls\tlsv1_client.c **** 	if (conn->partial_input) {
 184:C:/Users/stapi/OneDrive/Desktop/GD32VW553/V1_MQTT_OK/GD32VW55X_Wifi_BLE_SDK/GD32VW55x_RELEASE_V1.0.2/MSDK/wpa_supplicant/src/tls\tlsv1_client.c **** 		if (wpabuf_resize(&conn->partial_input, in_len) < 0) {
 185:C:/Users/stapi/OneDrive/Desktop/GD32VW553/V1_MQTT_OK/GD32VW55X_Wifi_BLE_SDK/GD32VW55x_RELEASE_V1.0.2/MSDK/wpa_supplicant/src/tls\tlsv1_client.c **** 			wpa_printf(MSG_DEBUG, "TLSv1: Failed to allocate "
 186:C:/Users/stapi/OneDrive/Desktop/GD32VW553/V1_MQTT_OK/GD32VW55X_Wifi_BLE_SDK/GD32VW55x_RELEASE_V1.0.2/MSDK/wpa_supplicant/src/tls\tlsv1_client.c **** 				   "memory for pending record");
 187:C:/Users/stapi/OneDrive/Desktop/GD32VW553/V1_MQTT_OK/GD32VW55X_Wifi_BLE_SDK/GD32VW55x_RELEASE_V1.0.2/MSDK/wpa_supplicant/src/tls\tlsv1_client.c **** 			tls_alert(conn, TLS_ALERT_LEVEL_FATAL,
 188:C:/Users/stapi/OneDrive/Desktop/GD32VW553/V1_MQTT_OK/GD32VW55X_Wifi_BLE_SDK/GD32VW55x_RELEASE_V1.0.2/MSDK/wpa_supplicant/src/tls\tlsv1_client.c **** 				  TLS_ALERT_INTERNAL_ERROR);
 189:C:/Users/stapi/OneDrive/Desktop/GD32VW553/V1_MQTT_OK/GD32VW55X_Wifi_BLE_SDK/GD32VW55x_RELEASE_V1.0.2/MSDK/wpa_supplicant/src/tls\tlsv1_client.c **** 			goto failed;
 190:C:/Users/stapi/OneDrive/Desktop/GD32VW553/V1_MQTT_OK/GD32VW55X_Wifi_BLE_SDK/GD32VW55x_RELEASE_V1.0.2/MSDK/wpa_supplicant/src/tls\tlsv1_client.c **** 		}
 191:C:/Users/stapi/OneDrive/Desktop/GD32VW553/V1_MQTT_OK/GD32VW55X_Wifi_BLE_SDK/GD32VW55x_RELEASE_V1.0.2/MSDK/wpa_supplicant/src/tls\tlsv1_client.c **** 		wpabuf_put_data(conn->partial_input, in_data, in_len);
 192:C:/Users/stapi/OneDrive/Desktop/GD32VW553/V1_MQTT_OK/GD32VW55X_Wifi_BLE_SDK/GD32VW55x_RELEASE_V1.0.2/MSDK/wpa_supplicant/src/tls\tlsv1_client.c **** 		in_data = wpabuf_head(conn->partial_input);
 193:C:/Users/stapi/OneDrive/Desktop/GD32VW553/V1_MQTT_OK/GD32VW55X_Wifi_BLE_SDK/GD32VW55x_RELEASE_V1.0.2/MSDK/wpa_supplicant/src/tls\tlsv1_client.c **** 		in_len = wpabuf_len(conn->partial_input);
 194:C:/Users/stapi/OneDrive/Desktop/GD32VW553/V1_MQTT_OK/GD32VW55X_Wifi_BLE_SDK/GD32VW55x_RELEASE_V1.0.2/MSDK/wpa_supplicant/src/tls\tlsv1_client.c **** 	}
 195:C:/Users/stapi/OneDrive/Desktop/GD32VW553/V1_MQTT_OK/GD32VW55X_Wifi_BLE_SDK/GD32VW55x_RELEASE_V1.0.2/MSDK/wpa_supplicant/src/tls\tlsv1_client.c **** 
 196:C:/Users/stapi/OneDrive/Desktop/GD32VW553/V1_MQTT_OK/GD32VW55X_Wifi_BLE_SDK/GD32VW55x_RELEASE_V1.0.2/MSDK/wpa_supplicant/src/tls\tlsv1_client.c **** 	if (in_data == NULL || in_len == 0)
 197:C:/Users/stapi/OneDrive/Desktop/GD32VW553/V1_MQTT_OK/GD32VW55X_Wifi_BLE_SDK/GD32VW55x_RELEASE_V1.0.2/MSDK/wpa_supplicant/src/tls\tlsv1_client.c **** 		return NULL;
 198:C:/Users/stapi/OneDrive/Desktop/GD32VW553/V1_MQTT_OK/GD32VW55X_Wifi_BLE_SDK/GD32VW55x_RELEASE_V1.0.2/MSDK/wpa_supplicant/src/tls\tlsv1_client.c **** 
 199:C:/Users/stapi/OneDrive/Desktop/GD32VW553/V1_MQTT_OK/GD32VW55X_Wifi_BLE_SDK/GD32VW55x_RELEASE_V1.0.2/MSDK/wpa_supplicant/src/tls\tlsv1_client.c **** 	pos = in_data;
 200:C:/Users/stapi/OneDrive/Desktop/GD32VW553/V1_MQTT_OK/GD32VW55X_Wifi_BLE_SDK/GD32VW55x_RELEASE_V1.0.2/MSDK/wpa_supplicant/src/tls\tlsv1_client.c **** 	end = in_data + in_len;
 201:C:/Users/stapi/OneDrive/Desktop/GD32VW553/V1_MQTT_OK/GD32VW55X_Wifi_BLE_SDK/GD32VW55x_RELEASE_V1.0.2/MSDK/wpa_supplicant/src/tls\tlsv1_client.c **** 	in_msg = os_malloc(in_len);
 202:C:/Users/stapi/OneDrive/Desktop/GD32VW553/V1_MQTT_OK/GD32VW55X_Wifi_BLE_SDK/GD32VW55x_RELEASE_V1.0.2/MSDK/wpa_supplicant/src/tls\tlsv1_client.c **** 	if (in_msg == NULL)
 203:C:/Users/stapi/OneDrive/Desktop/GD32VW553/V1_MQTT_OK/GD32VW55X_Wifi_BLE_SDK/GD32VW55x_RELEASE_V1.0.2/MSDK/wpa_supplicant/src/tls\tlsv1_client.c **** 		return NULL;
 204:C:/Users/stapi/OneDrive/Desktop/GD32VW553/V1_MQTT_OK/GD32VW55X_Wifi_BLE_SDK/GD32VW55x_RELEASE_V1.0.2/MSDK/wpa_supplicant/src/tls\tlsv1_client.c **** 
 205:C:/Users/stapi/OneDrive/Desktop/GD32VW553/V1_MQTT_OK/GD32VW55X_Wifi_BLE_SDK/GD32VW55x_RELEASE_V1.0.2/MSDK/wpa_supplicant/src/tls\tlsv1_client.c **** 	/* Each received packet may include multiple records */
 206:C:/Users/stapi/OneDrive/Desktop/GD32VW553/V1_MQTT_OK/GD32VW55X_Wifi_BLE_SDK/GD32VW55x_RELEASE_V1.0.2/MSDK/wpa_supplicant/src/tls\tlsv1_client.c **** 	while (pos < end) {
 207:C:/Users/stapi/OneDrive/Desktop/GD32VW553/V1_MQTT_OK/GD32VW55X_Wifi_BLE_SDK/GD32VW55x_RELEASE_V1.0.2/MSDK/wpa_supplicant/src/tls\tlsv1_client.c **** 		in_msg_len = in_len;
 208:C:/Users/stapi/OneDrive/Desktop/GD32VW553/V1_MQTT_OK/GD32VW55X_Wifi_BLE_SDK/GD32VW55x_RELEASE_V1.0.2/MSDK/wpa_supplicant/src/tls\tlsv1_client.c **** 		used = tlsv1_record_receive(&conn->rl, pos, end - pos,
 209:C:/Users/stapi/OneDrive/Desktop/GD32VW553/V1_MQTT_OK/GD32VW55X_Wifi_BLE_SDK/GD32VW55x_RELEASE_V1.0.2/MSDK/wpa_supplicant/src/tls\tlsv1_client.c **** 					    in_msg, &in_msg_len, &alert);
 210:C:/Users/stapi/OneDrive/Desktop/GD32VW553/V1_MQTT_OK/GD32VW55X_Wifi_BLE_SDK/GD32VW55x_RELEASE_V1.0.2/MSDK/wpa_supplicant/src/tls\tlsv1_client.c **** 		if (used < 0) {
 211:C:/Users/stapi/OneDrive/Desktop/GD32VW553/V1_MQTT_OK/GD32VW55X_Wifi_BLE_SDK/GD32VW55x_RELEASE_V1.0.2/MSDK/wpa_supplicant/src/tls\tlsv1_client.c **** 			wpa_printf(MSG_DEBUG, "TLSv1: Processing received "
 212:C:/Users/stapi/OneDrive/Desktop/GD32VW553/V1_MQTT_OK/GD32VW55X_Wifi_BLE_SDK/GD32VW55x_RELEASE_V1.0.2/MSDK/wpa_supplicant/src/tls\tlsv1_client.c **** 				   "record failed");
 213:C:/Users/stapi/OneDrive/Desktop/GD32VW553/V1_MQTT_OK/GD32VW55X_Wifi_BLE_SDK/GD32VW55x_RELEASE_V1.0.2/MSDK/wpa_supplicant/src/tls\tlsv1_client.c **** 			tls_alert(conn, TLS_ALERT_LEVEL_FATAL, alert);
 214:C:/Users/stapi/OneDrive/Desktop/GD32VW553/V1_MQTT_OK/GD32VW55X_Wifi_BLE_SDK/GD32VW55x_RELEASE_V1.0.2/MSDK/wpa_supplicant/src/tls\tlsv1_client.c **** 			goto failed;
 215:C:/Users/stapi/OneDrive/Desktop/GD32VW553/V1_MQTT_OK/GD32VW55X_Wifi_BLE_SDK/GD32VW55x_RELEASE_V1.0.2/MSDK/wpa_supplicant/src/tls\tlsv1_client.c **** 		}
 216:C:/Users/stapi/OneDrive/Desktop/GD32VW553/V1_MQTT_OK/GD32VW55X_Wifi_BLE_SDK/GD32VW55x_RELEASE_V1.0.2/MSDK/wpa_supplicant/src/tls\tlsv1_client.c **** 		if (used == 0) {
 217:C:/Users/stapi/OneDrive/Desktop/GD32VW553/V1_MQTT_OK/GD32VW55X_Wifi_BLE_SDK/GD32VW55x_RELEASE_V1.0.2/MSDK/wpa_supplicant/src/tls\tlsv1_client.c **** 			struct wpabuf *partial;
 218:C:/Users/stapi/OneDrive/Desktop/GD32VW553/V1_MQTT_OK/GD32VW55X_Wifi_BLE_SDK/GD32VW55x_RELEASE_V1.0.2/MSDK/wpa_supplicant/src/tls\tlsv1_client.c **** 			wpa_printf(MSG_DEBUG, "TLSv1: Need more data");
 219:C:/Users/stapi/OneDrive/Desktop/GD32VW553/V1_MQTT_OK/GD32VW55X_Wifi_BLE_SDK/GD32VW55x_RELEASE_V1.0.2/MSDK/wpa_supplicant/src/tls\tlsv1_client.c **** 			partial = wpabuf_alloc_copy(pos, end - pos);
 220:C:/Users/stapi/OneDrive/Desktop/GD32VW553/V1_MQTT_OK/GD32VW55X_Wifi_BLE_SDK/GD32VW55x_RELEASE_V1.0.2/MSDK/wpa_supplicant/src/tls\tlsv1_client.c **** 			wpabuf_free(conn->partial_input);
 221:C:/Users/stapi/OneDrive/Desktop/GD32VW553/V1_MQTT_OK/GD32VW55X_Wifi_BLE_SDK/GD32VW55x_RELEASE_V1.0.2/MSDK/wpa_supplicant/src/tls\tlsv1_client.c **** 			conn->partial_input = partial;
 222:C:/Users/stapi/OneDrive/Desktop/GD32VW553/V1_MQTT_OK/GD32VW55X_Wifi_BLE_SDK/GD32VW55x_RELEASE_V1.0.2/MSDK/wpa_supplicant/src/tls\tlsv1_client.c **** 			if (conn->partial_input == NULL) {
 223:C:/Users/stapi/OneDrive/Desktop/GD32VW553/V1_MQTT_OK/GD32VW55X_Wifi_BLE_SDK/GD32VW55x_RELEASE_V1.0.2/MSDK/wpa_supplicant/src/tls\tlsv1_client.c **** 				wpa_printf(MSG_DEBUG, "TLSv1: Failed to "
 224:C:/Users/stapi/OneDrive/Desktop/GD32VW553/V1_MQTT_OK/GD32VW55X_Wifi_BLE_SDK/GD32VW55x_RELEASE_V1.0.2/MSDK/wpa_supplicant/src/tls\tlsv1_client.c **** 					   "allocate memory for pending "
 225:C:/Users/stapi/OneDrive/Desktop/GD32VW553/V1_MQTT_OK/GD32VW55X_Wifi_BLE_SDK/GD32VW55x_RELEASE_V1.0.2/MSDK/wpa_supplicant/src/tls\tlsv1_client.c **** 					   "record");
 226:C:/Users/stapi/OneDrive/Desktop/GD32VW553/V1_MQTT_OK/GD32VW55X_Wifi_BLE_SDK/GD32VW55x_RELEASE_V1.0.2/MSDK/wpa_supplicant/src/tls\tlsv1_client.c **** 				tls_alert(conn, TLS_ALERT_LEVEL_FATAL,
 227:C:/Users/stapi/OneDrive/Desktop/GD32VW553/V1_MQTT_OK/GD32VW55X_Wifi_BLE_SDK/GD32VW55x_RELEASE_V1.0.2/MSDK/wpa_supplicant/src/tls\tlsv1_client.c **** 					  TLS_ALERT_INTERNAL_ERROR);
 228:C:/Users/stapi/OneDrive/Desktop/GD32VW553/V1_MQTT_OK/GD32VW55X_Wifi_BLE_SDK/GD32VW55x_RELEASE_V1.0.2/MSDK/wpa_supplicant/src/tls\tlsv1_client.c **** 				goto failed;
 229:C:/Users/stapi/OneDrive/Desktop/GD32VW553/V1_MQTT_OK/GD32VW55X_Wifi_BLE_SDK/GD32VW55x_RELEASE_V1.0.2/MSDK/wpa_supplicant/src/tls\tlsv1_client.c **** 			}
 230:C:/Users/stapi/OneDrive/Desktop/GD32VW553/V1_MQTT_OK/GD32VW55X_Wifi_BLE_SDK/GD32VW55x_RELEASE_V1.0.2/MSDK/wpa_supplicant/src/tls\tlsv1_client.c **** 			os_free(in_msg);
 231:C:/Users/stapi/OneDrive/Desktop/GD32VW553/V1_MQTT_OK/GD32VW55X_Wifi_BLE_SDK/GD32VW55x_RELEASE_V1.0.2/MSDK/wpa_supplicant/src/tls\tlsv1_client.c **** 			if (need_more_data)
 232:C:/Users/stapi/OneDrive/Desktop/GD32VW553/V1_MQTT_OK/GD32VW55X_Wifi_BLE_SDK/GD32VW55x_RELEASE_V1.0.2/MSDK/wpa_supplicant/src/tls\tlsv1_client.c **** 				*need_more_data = 1;
 233:C:/Users/stapi/OneDrive/Desktop/GD32VW553/V1_MQTT_OK/GD32VW55X_Wifi_BLE_SDK/GD32VW55x_RELEASE_V1.0.2/MSDK/wpa_supplicant/src/tls\tlsv1_client.c **** 			return NULL;
 511              		.loc 1 233 11
 512 0028 8144     		li	s1,0
 513 002a 01A8     		j	.L21
 514              	.LVL51:
 515              	.L24:
 516              	.LBE49:
 180:C:/Users/stapi/OneDrive/Desktop/GD32VW553/V1_MQTT_OK/GD32VW55X_Wifi_BLE_SDK/GD32VW55x_RELEASE_V1.0.2/MSDK/wpa_supplicant/src/tls\tlsv1_client.c **** 	}
 517              		.loc 1 180 3 is_stmt 1
 180:C:/Users/stapi/OneDrive/Desktop/GD32VW553/V1_MQTT_OK/GD32VW55X_Wifi_BLE_SDK/GD32VW55x_RELEASE_V1.0.2/MSDK/wpa_supplicant/src/tls\tlsv1_client.c **** 	}
 518              		.loc 1 180 10 is_stmt 0
 519 002c D685     		mv	a1,s5
 520 002e 2285     		mv	a0,s0
 521 0030 97000000 		call	tls_send_client_hello
 521      E7800000 
 522              	.LVL52:
 523 0038 AA84     		mv	s1,a0
 524              	.LVL53:
 525              	.L21:
 234:C:/Users/stapi/OneDrive/Desktop/GD32VW553/V1_MQTT_OK/GD32VW55X_Wifi_BLE_SDK/GD32VW55x_RELEASE_V1.0.2/MSDK/wpa_supplicant/src/tls\tlsv1_client.c **** 		}
 235:C:/Users/stapi/OneDrive/Desktop/GD32VW553/V1_MQTT_OK/GD32VW55X_Wifi_BLE_SDK/GD32VW55x_RELEASE_V1.0.2/MSDK/wpa_supplicant/src/tls\tlsv1_client.c **** 		ct = pos[0];
 236:C:/Users/stapi/OneDrive/Desktop/GD32VW553/V1_MQTT_OK/GD32VW55X_Wifi_BLE_SDK/GD32VW55x_RELEASE_V1.0.2/MSDK/wpa_supplicant/src/tls\tlsv1_client.c **** 
 237:C:/Users/stapi/OneDrive/Desktop/GD32VW553/V1_MQTT_OK/GD32VW55X_Wifi_BLE_SDK/GD32VW55x_RELEASE_V1.0.2/MSDK/wpa_supplicant/src/tls\tlsv1_client.c **** 		in_pos = in_msg;
 238:C:/Users/stapi/OneDrive/Desktop/GD32VW553/V1_MQTT_OK/GD32VW55X_Wifi_BLE_SDK/GD32VW55x_RELEASE_V1.0.2/MSDK/wpa_supplicant/src/tls\tlsv1_client.c **** 		in_end = in_msg + in_msg_len;
 239:C:/Users/stapi/OneDrive/Desktop/GD32VW553/V1_MQTT_OK/GD32VW55X_Wifi_BLE_SDK/GD32VW55x_RELEASE_V1.0.2/MSDK/wpa_supplicant/src/tls\tlsv1_client.c **** 
 240:C:/Users/stapi/OneDrive/Desktop/GD32VW553/V1_MQTT_OK/GD32VW55X_Wifi_BLE_SDK/GD32VW55x_RELEASE_V1.0.2/MSDK/wpa_supplicant/src/tls\tlsv1_client.c **** 		/* Each received record may include multiple messages of the
 241:C:/Users/stapi/OneDrive/Desktop/GD32VW553/V1_MQTT_OK/GD32VW55X_Wifi_BLE_SDK/GD32VW55x_RELEASE_V1.0.2/MSDK/wpa_supplicant/src/tls\tlsv1_client.c **** 		 * same ContentType. */
 242:C:/Users/stapi/OneDrive/Desktop/GD32VW553/V1_MQTT_OK/GD32VW55X_Wifi_BLE_SDK/GD32VW55x_RELEASE_V1.0.2/MSDK/wpa_supplicant/src/tls\tlsv1_client.c **** 		while (in_pos < in_end) {
 243:C:/Users/stapi/OneDrive/Desktop/GD32VW553/V1_MQTT_OK/GD32VW55X_Wifi_BLE_SDK/GD32VW55x_RELEASE_V1.0.2/MSDK/wpa_supplicant/src/tls\tlsv1_client.c **** 			in_msg_len = in_end - in_pos;
 244:C:/Users/stapi/OneDrive/Desktop/GD32VW553/V1_MQTT_OK/GD32VW55X_Wifi_BLE_SDK/GD32VW55x_RELEASE_V1.0.2/MSDK/wpa_supplicant/src/tls\tlsv1_client.c **** 			if (tlsv1_client_process_handshake(conn, ct, in_pos,
 245:C:/Users/stapi/OneDrive/Desktop/GD32VW553/V1_MQTT_OK/GD32VW55X_Wifi_BLE_SDK/GD32VW55x_RELEASE_V1.0.2/MSDK/wpa_supplicant/src/tls\tlsv1_client.c **** 							   &in_msg_len,
 246:C:/Users/stapi/OneDrive/Desktop/GD32VW553/V1_MQTT_OK/GD32VW55X_Wifi_BLE_SDK/GD32VW55x_RELEASE_V1.0.2/MSDK/wpa_supplicant/src/tls\tlsv1_client.c **** 							   appl_data,
 247:C:/Users/stapi/OneDrive/Desktop/GD32VW553/V1_MQTT_OK/GD32VW55X_Wifi_BLE_SDK/GD32VW55x_RELEASE_V1.0.2/MSDK/wpa_supplicant/src/tls\tlsv1_client.c **** 							   appl_data_len) < 0)
 248:C:/Users/stapi/OneDrive/Desktop/GD32VW553/V1_MQTT_OK/GD32VW55X_Wifi_BLE_SDK/GD32VW55x_RELEASE_V1.0.2/MSDK/wpa_supplicant/src/tls\tlsv1_client.c **** 				goto failed;
 249:C:/Users/stapi/OneDrive/Desktop/GD32VW553/V1_MQTT_OK/GD32VW55X_Wifi_BLE_SDK/GD32VW55x_RELEASE_V1.0.2/MSDK/wpa_supplicant/src/tls\tlsv1_client.c **** 			in_pos += in_msg_len;
 250:C:/Users/stapi/OneDrive/Desktop/GD32VW553/V1_MQTT_OK/GD32VW55X_Wifi_BLE_SDK/GD32VW55x_RELEASE_V1.0.2/MSDK/wpa_supplicant/src/tls\tlsv1_client.c **** 		}
 251:C:/Users/stapi/OneDrive/Desktop/GD32VW553/V1_MQTT_OK/GD32VW55X_Wifi_BLE_SDK/GD32VW55x_RELEASE_V1.0.2/MSDK/wpa_supplicant/src/tls\tlsv1_client.c **** 
 252:C:/Users/stapi/OneDrive/Desktop/GD32VW553/V1_MQTT_OK/GD32VW55X_Wifi_BLE_SDK/GD32VW55x_RELEASE_V1.0.2/MSDK/wpa_supplicant/src/tls\tlsv1_client.c **** 		pos += used;
 253:C:/Users/stapi/OneDrive/Desktop/GD32VW553/V1_MQTT_OK/GD32VW55X_Wifi_BLE_SDK/GD32VW55x_RELEASE_V1.0.2/MSDK/wpa_supplicant/src/tls\tlsv1_client.c **** 	}
 254:C:/Users/stapi/OneDrive/Desktop/GD32VW553/V1_MQTT_OK/GD32VW55X_Wifi_BLE_SDK/GD32VW55x_RELEASE_V1.0.2/MSDK/wpa_supplicant/src/tls\tlsv1_client.c **** 
 255:C:/Users/stapi/OneDrive/Desktop/GD32VW553/V1_MQTT_OK/GD32VW55X_Wifi_BLE_SDK/GD32VW55x_RELEASE_V1.0.2/MSDK/wpa_supplicant/src/tls\tlsv1_client.c **** 	os_free(in_msg);
 256:C:/Users/stapi/OneDrive/Desktop/GD32VW553/V1_MQTT_OK/GD32VW55X_Wifi_BLE_SDK/GD32VW55x_RELEASE_V1.0.2/MSDK/wpa_supplicant/src/tls\tlsv1_client.c **** 	in_msg = NULL;
 257:C:/Users/stapi/OneDrive/Desktop/GD32VW553/V1_MQTT_OK/GD32VW55X_Wifi_BLE_SDK/GD32VW55x_RELEASE_V1.0.2/MSDK/wpa_supplicant/src/tls\tlsv1_client.c **** 
 258:C:/Users/stapi/OneDrive/Desktop/GD32VW553/V1_MQTT_OK/GD32VW55X_Wifi_BLE_SDK/GD32VW55x_RELEASE_V1.0.2/MSDK/wpa_supplicant/src/tls\tlsv1_client.c **** 	no_appl_data = appl_data == NULL || *appl_data == NULL;
 259:C:/Users/stapi/OneDrive/Desktop/GD32VW553/V1_MQTT_OK/GD32VW55X_Wifi_BLE_SDK/GD32VW55x_RELEASE_V1.0.2/MSDK/wpa_supplicant/src/tls\tlsv1_client.c **** 	msg = tlsv1_client_handshake_write(conn, out_len, no_appl_data);
 260:C:/Users/stapi/OneDrive/Desktop/GD32VW553/V1_MQTT_OK/GD32VW55X_Wifi_BLE_SDK/GD32VW55x_RELEASE_V1.0.2/MSDK/wpa_supplicant/src/tls\tlsv1_client.c **** 
 261:C:/Users/stapi/OneDrive/Desktop/GD32VW553/V1_MQTT_OK/GD32VW55X_Wifi_BLE_SDK/GD32VW55x_RELEASE_V1.0.2/MSDK/wpa_supplicant/src/tls\tlsv1_client.c **** failed:
 262:C:/Users/stapi/OneDrive/Desktop/GD32VW553/V1_MQTT_OK/GD32VW55X_Wifi_BLE_SDK/GD32VW55x_RELEASE_V1.0.2/MSDK/wpa_supplicant/src/tls\tlsv1_client.c **** 	os_free(in_msg);
 263:C:/Users/stapi/OneDrive/Desktop/GD32VW553/V1_MQTT_OK/GD32VW55X_Wifi_BLE_SDK/GD32VW55x_RELEASE_V1.0.2/MSDK/wpa_supplicant/src/tls\tlsv1_client.c **** 	if (conn->alert_level) {
 264:C:/Users/stapi/OneDrive/Desktop/GD32VW553/V1_MQTT_OK/GD32VW55X_Wifi_BLE_SDK/GD32VW55x_RELEASE_V1.0.2/MSDK/wpa_supplicant/src/tls\tlsv1_client.c **** 		wpabuf_free(conn->partial_input);
 265:C:/Users/stapi/OneDrive/Desktop/GD32VW553/V1_MQTT_OK/GD32VW55X_Wifi_BLE_SDK/GD32VW55x_RELEASE_V1.0.2/MSDK/wpa_supplicant/src/tls\tlsv1_client.c **** 		conn->partial_input = NULL;
 266:C:/Users/stapi/OneDrive/Desktop/GD32VW553/V1_MQTT_OK/GD32VW55X_Wifi_BLE_SDK/GD32VW55x_RELEASE_V1.0.2/MSDK/wpa_supplicant/src/tls\tlsv1_client.c **** 		conn->state = FAILED;
 267:C:/Users/stapi/OneDrive/Desktop/GD32VW553/V1_MQTT_OK/GD32VW55X_Wifi_BLE_SDK/GD32VW55x_RELEASE_V1.0.2/MSDK/wpa_supplicant/src/tls\tlsv1_client.c **** 		os_free(msg);
 268:C:/Users/stapi/OneDrive/Desktop/GD32VW553/V1_MQTT_OK/GD32VW55X_Wifi_BLE_SDK/GD32VW55x_RELEASE_V1.0.2/MSDK/wpa_supplicant/src/tls\tlsv1_client.c **** 		msg = tlsv1_client_send_alert(conn, conn->alert_level,
 269:C:/Users/stapi/OneDrive/Desktop/GD32VW553/V1_MQTT_OK/GD32VW55X_Wifi_BLE_SDK/GD32VW55x_RELEASE_V1.0.2/MSDK/wpa_supplicant/src/tls\tlsv1_client.c **** 					      conn->alert_description,
 270:C:/Users/stapi/OneDrive/Desktop/GD32VW553/V1_MQTT_OK/GD32VW55X_Wifi_BLE_SDK/GD32VW55x_RELEASE_V1.0.2/MSDK/wpa_supplicant/src/tls\tlsv1_client.c **** 					      out_len);
 271:C:/Users/stapi/OneDrive/Desktop/GD32VW553/V1_MQTT_OK/GD32VW55X_Wifi_BLE_SDK/GD32VW55x_RELEASE_V1.0.2/MSDK/wpa_supplicant/src/tls\tlsv1_client.c **** 	} else if (msg == NULL) {
 272:C:/Users/stapi/OneDrive/Desktop/GD32VW553/V1_MQTT_OK/GD32VW55X_Wifi_BLE_SDK/GD32VW55x_RELEASE_V1.0.2/MSDK/wpa_supplicant/src/tls\tlsv1_client.c **** 		msg = os_zalloc(1);
 273:C:/Users/stapi/OneDrive/Desktop/GD32VW553/V1_MQTT_OK/GD32VW55X_Wifi_BLE_SDK/GD32VW55x_RELEASE_V1.0.2/MSDK/wpa_supplicant/src/tls\tlsv1_client.c **** 		*out_len = 0;
 274:C:/Users/stapi/OneDrive/Desktop/GD32VW553/V1_MQTT_OK/GD32VW55X_Wifi_BLE_SDK/GD32VW55x_RELEASE_V1.0.2/MSDK/wpa_supplicant/src/tls\tlsv1_client.c **** 	}
 275:C:/Users/stapi/OneDrive/Desktop/GD32VW553/V1_MQTT_OK/GD32VW55X_Wifi_BLE_SDK/GD32VW55x_RELEASE_V1.0.2/MSDK/wpa_supplicant/src/tls\tlsv1_client.c **** 
 276:C:/Users/stapi/OneDrive/Desktop/GD32VW553/V1_MQTT_OK/GD32VW55X_Wifi_BLE_SDK/GD32VW55x_RELEASE_V1.0.2/MSDK/wpa_supplicant/src/tls\tlsv1_client.c **** 	if (need_more_data == NULL || !(*need_more_data)) {
 277:C:/Users/stapi/OneDrive/Desktop/GD32VW553/V1_MQTT_OK/GD32VW55X_Wifi_BLE_SDK/GD32VW55x_RELEASE_V1.0.2/MSDK/wpa_supplicant/src/tls\tlsv1_client.c **** 		wpabuf_free(conn->partial_input);
 278:C:/Users/stapi/OneDrive/Desktop/GD32VW553/V1_MQTT_OK/GD32VW55X_Wifi_BLE_SDK/GD32VW55x_RELEASE_V1.0.2/MSDK/wpa_supplicant/src/tls\tlsv1_client.c **** 		conn->partial_input = NULL;
 279:C:/Users/stapi/OneDrive/Desktop/GD32VW553/V1_MQTT_OK/GD32VW55X_Wifi_BLE_SDK/GD32VW55x_RELEASE_V1.0.2/MSDK/wpa_supplicant/src/tls\tlsv1_client.c **** 	}
 280:C:/Users/stapi/OneDrive/Desktop/GD32VW553/V1_MQTT_OK/GD32VW55X_Wifi_BLE_SDK/GD32VW55x_RELEASE_V1.0.2/MSDK/wpa_supplicant/src/tls\tlsv1_client.c **** 
 281:C:/Users/stapi/OneDrive/Desktop/GD32VW553/V1_MQTT_OK/GD32VW55X_Wifi_BLE_SDK/GD32VW55x_RELEASE_V1.0.2/MSDK/wpa_supplicant/src/tls\tlsv1_client.c **** 	return msg;
 282:C:/Users/stapi/OneDrive/Desktop/GD32VW553/V1_MQTT_OK/GD32VW55X_Wifi_BLE_SDK/GD32VW55x_RELEASE_V1.0.2/MSDK/wpa_supplicant/src/tls\tlsv1_client.c **** }
 526              		.loc 1 282 1
 527 003a 2685     		mv	a0,s1
 528 003c 0561     		addi	sp,sp,32
 529              		.cfi_remember_state
 530              		.cfi_def_cfa_offset 0
 531 003e 17030000 		tail	__riscv_restore_12
 531      67000300 
 532              		.cfi_restore 27
 533              		.cfi_restore 26
 534              		.cfi_restore 25
 535              		.cfi_restore 24
 536              		.cfi_restore 23
 537              		.cfi_restore 22
 538              		.cfi_restore 21
 539              		.cfi_restore 20
 540              		.cfi_restore 19
 541              		.cfi_restore 18
 542              		.cfi_restore 9
 543              		.cfi_restore 8
 544              		.cfi_restore 1
 545              		.cfi_def_cfa_offset -64
 546              	.LVL54:
 547              	.L23:
 548              		.cfi_restore_state
 183:C:/Users/stapi/OneDrive/Desktop/GD32VW553/V1_MQTT_OK/GD32VW55X_Wifi_BLE_SDK/GD32VW55x_RELEASE_V1.0.2/MSDK/wpa_supplicant/src/tls\tlsv1_client.c **** 		if (wpabuf_resize(&conn->partial_input, in_len) < 0) {
 549              		.loc 1 183 2 is_stmt 1
 183:C:/Users/stapi/OneDrive/Desktop/GD32VW553/V1_MQTT_OK/GD32VW55X_Wifi_BLE_SDK/GD32VW55x_RELEASE_V1.0.2/MSDK/wpa_supplicant/src/tls\tlsv1_client.c **** 		if (wpabuf_resize(&conn->partial_input, in_len) < 0) {
 550              		.loc 1 183 5 is_stmt 0
 551 0046 83274421 		lw	a5,532(s0)
 552 004a A9CF     		beq	a5,zero,.L26
 184:C:/Users/stapi/OneDrive/Desktop/GD32VW553/V1_MQTT_OK/GD32VW55X_Wifi_BLE_SDK/GD32VW55x_RELEASE_V1.0.2/MSDK/wpa_supplicant/src/tls\tlsv1_client.c **** 			wpa_printf(MSG_DEBUG, "TLSv1: Failed to allocate "
 553              		.loc 1 184 3 is_stmt 1
 184:C:/Users/stapi/OneDrive/Desktop/GD32VW553/V1_MQTT_OK/GD32VW55X_Wifi_BLE_SDK/GD32VW55x_RELEASE_V1.0.2/MSDK/wpa_supplicant/src/tls\tlsv1_client.c **** 			wpa_printf(MSG_DEBUG, "TLSv1: Failed to allocate "
 554              		.loc 1 184 7 is_stmt 0
 555 004c CE85     		mv	a1,s3
 556 004e 13054421 		addi	a0,s0,532
 557 0052 97000000 		call	wpabuf_resize
 557      E7800000 
 558              	.LVL55:
 184:C:/Users/stapi/OneDrive/Desktop/GD32VW553/V1_MQTT_OK/GD32VW55X_Wifi_BLE_SDK/GD32VW55x_RELEASE_V1.0.2/MSDK/wpa_supplicant/src/tls\tlsv1_client.c **** 			wpa_printf(MSG_DEBUG, "TLSv1: Failed to allocate "
 559              		.loc 1 184 6
 560 005a 63520502 		bge	a0,zero,.L27
 185:C:/Users/stapi/OneDrive/Desktop/GD32VW553/V1_MQTT_OK/GD32VW55X_Wifi_BLE_SDK/GD32VW55x_RELEASE_V1.0.2/MSDK/wpa_supplicant/src/tls\tlsv1_client.c **** 				   "memory for pending record");
 561              		.loc 1 185 4 is_stmt 1
 562 005e B7050000 		lui	a1,%hi(.LC7)
 563 0062 93850500 		addi	a1,a1,%lo(.LC7)
 564 0066 0945     		li	a0,2
 565 0068 97000000 		call	wpa_printf
 565      E7800000 
 566              	.LVL56:
 187:C:/Users/stapi/OneDrive/Desktop/GD32VW553/V1_MQTT_OK/GD32VW55X_Wifi_BLE_SDK/GD32VW55x_RELEASE_V1.0.2/MSDK/wpa_supplicant/src/tls\tlsv1_client.c **** 				  TLS_ALERT_INTERNAL_ERROR);
 567              		.loc 1 187 4
 568              	.LBB52:
 569              	.LBB53:
  27:C:/Users/stapi/OneDrive/Desktop/GD32VW553/V1_MQTT_OK/GD32VW55X_Wifi_BLE_SDK/GD32VW55x_RELEASE_V1.0.2/MSDK/wpa_supplicant/src/tls\tlsv1_client.c **** 	conn->alert_description = description;
 570              		.loc 1 27 2
  28:C:/Users/stapi/OneDrive/Desktop/GD32VW553/V1_MQTT_OK/GD32VW55X_Wifi_BLE_SDK/GD32VW55x_RELEASE_V1.0.2/MSDK/wpa_supplicant/src/tls\tlsv1_client.c **** }
 571              		.loc 1 28 2
  27:C:/Users/stapi/OneDrive/Desktop/GD32VW553/V1_MQTT_OK/GD32VW55X_Wifi_BLE_SDK/GD32VW55x_RELEASE_V1.0.2/MSDK/wpa_supplicant/src/tls\tlsv1_client.c **** 	conn->alert_description = description;
 572              		.loc 1 27 20 is_stmt 0
 573 0070 9567     		li	a5,20480
 574 0072 8907     		addi	a5,a5,2
 575 0074 2318F416 		sh	a5,368(s0)
 576              	.LVL57:
 577              	.LBE53:
 578              	.LBE52:
 189:C:/Users/stapi/OneDrive/Desktop/GD32VW553/V1_MQTT_OK/GD32VW55X_Wifi_BLE_SDK/GD32VW55x_RELEASE_V1.0.2/MSDK/wpa_supplicant/src/tls\tlsv1_client.c **** 		}
 579              		.loc 1 189 4 is_stmt 1
 169:C:/Users/stapi/OneDrive/Desktop/GD32VW553/V1_MQTT_OK/GD32VW55X_Wifi_BLE_SDK/GD32VW55x_RELEASE_V1.0.2/MSDK/wpa_supplicant/src/tls\tlsv1_client.c **** 	size_t in_msg_len;
 580              		.loc 1 169 19 is_stmt 0
 581 0078 0149     		li	s2,0
 582              	.LVL58:
 583              	.L42:
 169:C:/Users/stapi/OneDrive/Desktop/GD32VW553/V1_MQTT_OK/GD32VW55X_Wifi_BLE_SDK/GD32VW55x_RELEASE_V1.0.2/MSDK/wpa_supplicant/src/tls\tlsv1_client.c **** 	size_t in_msg_len;
 584              		.loc 1 169 6
 585 007a 8144     		li	s1,0
 586 007c 11A2     		j	.L28
 587              	.LVL59:
 588              	.L27:
 191:C:/Users/stapi/OneDrive/Desktop/GD32VW553/V1_MQTT_OK/GD32VW55X_Wifi_BLE_SDK/GD32VW55x_RELEASE_V1.0.2/MSDK/wpa_supplicant/src/tls\tlsv1_client.c **** 		in_data = wpabuf_head(conn->partial_input);
 589              		.loc 1 191 3 is_stmt 1
 590              	.LBB54:
 591              	.LBB55:
 592              		.file 3 "..\\..\\..\\..\\wpa_supplicant\\src\\utils/wpabuf.h"
   1:..\..\..\..\wpa_supplicant\src\utils/wpabuf.h **** /*
   2:..\..\..\..\wpa_supplicant\src\utils/wpabuf.h ****  * Dynamic data buffer
   3:..\..\..\..\wpa_supplicant\src\utils/wpabuf.h ****  * Copyright (c) 2007-2012, Jouni Malinen <j@w1.fi>
   4:..\..\..\..\wpa_supplicant\src\utils/wpabuf.h ****  *
   5:..\..\..\..\wpa_supplicant\src\utils/wpabuf.h ****  * This software may be distributed under the terms of the BSD license.
   6:..\..\..\..\wpa_supplicant\src\utils/wpabuf.h ****  * See README for more details.
   7:..\..\..\..\wpa_supplicant\src\utils/wpabuf.h ****  */
   8:..\..\..\..\wpa_supplicant\src\utils/wpabuf.h **** 
   9:..\..\..\..\wpa_supplicant\src\utils/wpabuf.h **** #ifndef WPABUF_H
  10:..\..\..\..\wpa_supplicant\src\utils/wpabuf.h **** #define WPABUF_H
  11:..\..\..\..\wpa_supplicant\src\utils/wpabuf.h **** 
  12:..\..\..\..\wpa_supplicant\src\utils/wpabuf.h **** /* wpabuf::buf is a pointer to external data */
  13:..\..\..\..\wpa_supplicant\src\utils/wpabuf.h **** #define WPABUF_FLAG_EXT_DATA BIT(0)
  14:..\..\..\..\wpa_supplicant\src\utils/wpabuf.h **** 
  15:..\..\..\..\wpa_supplicant\src\utils/wpabuf.h **** /*
  16:..\..\..\..\wpa_supplicant\src\utils/wpabuf.h ****  * Internal data structure for wpabuf. Please do not touch this directly from
  17:..\..\..\..\wpa_supplicant\src\utils/wpabuf.h ****  * elsewhere. This is only defined in header file to allow inline functions
  18:..\..\..\..\wpa_supplicant\src\utils/wpabuf.h ****  * from this file to access data.
  19:..\..\..\..\wpa_supplicant\src\utils/wpabuf.h ****  */
  20:..\..\..\..\wpa_supplicant\src\utils/wpabuf.h **** struct wpabuf {
  21:..\..\..\..\wpa_supplicant\src\utils/wpabuf.h **** 	size_t size; /* total size of the allocated buffer */
  22:..\..\..\..\wpa_supplicant\src\utils/wpabuf.h **** 	size_t used; /* length of data in the buffer */
  23:..\..\..\..\wpa_supplicant\src\utils/wpabuf.h **** 	u8 *buf; /* pointer to the head of the buffer */
  24:..\..\..\..\wpa_supplicant\src\utils/wpabuf.h **** 	unsigned int flags;
  25:..\..\..\..\wpa_supplicant\src\utils/wpabuf.h **** 	/* optionally followed by the allocated buffer */
  26:..\..\..\..\wpa_supplicant\src\utils/wpabuf.h **** };
  27:..\..\..\..\wpa_supplicant\src\utils/wpabuf.h **** 
  28:..\..\..\..\wpa_supplicant\src\utils/wpabuf.h **** 
  29:..\..\..\..\wpa_supplicant\src\utils/wpabuf.h **** int wpabuf_resize(struct wpabuf **buf, size_t add_len);
  30:..\..\..\..\wpa_supplicant\src\utils/wpabuf.h **** struct wpabuf * wpabuf_alloc(size_t len);
  31:..\..\..\..\wpa_supplicant\src\utils/wpabuf.h **** struct wpabuf * wpabuf_alloc_ext_data(u8 *data, size_t len);
  32:..\..\..\..\wpa_supplicant\src\utils/wpabuf.h **** struct wpabuf * wpabuf_alloc_copy(const void *data, size_t len);
  33:..\..\..\..\wpa_supplicant\src\utils/wpabuf.h **** struct wpabuf * wpabuf_dup(const struct wpabuf *src);
  34:..\..\..\..\wpa_supplicant\src\utils/wpabuf.h **** void wpabuf_free(struct wpabuf *buf);
  35:..\..\..\..\wpa_supplicant\src\utils/wpabuf.h **** void wpabuf_clear_free(struct wpabuf *buf);
  36:..\..\..\..\wpa_supplicant\src\utils/wpabuf.h **** void * wpabuf_put(struct wpabuf *buf, size_t len);
  37:..\..\..\..\wpa_supplicant\src\utils/wpabuf.h **** struct wpabuf * wpabuf_concat(struct wpabuf *a, struct wpabuf *b);
  38:..\..\..\..\wpa_supplicant\src\utils/wpabuf.h **** struct wpabuf * wpabuf_zeropad(struct wpabuf *buf, size_t len);
  39:..\..\..\..\wpa_supplicant\src\utils/wpabuf.h **** void wpabuf_printf(struct wpabuf *buf, char *fmt, ...) PRINTF_FORMAT(2, 3);
  40:..\..\..\..\wpa_supplicant\src\utils/wpabuf.h **** struct wpabuf * wpabuf_parse_bin(const char *buf);
  41:..\..\..\..\wpa_supplicant\src\utils/wpabuf.h **** 
  42:..\..\..\..\wpa_supplicant\src\utils/wpabuf.h **** 
  43:..\..\..\..\wpa_supplicant\src\utils/wpabuf.h **** /**
  44:..\..\..\..\wpa_supplicant\src\utils/wpabuf.h ****  * wpabuf_size - Get the currently allocated size of a wpabuf buffer
  45:..\..\..\..\wpa_supplicant\src\utils/wpabuf.h ****  * @buf: wpabuf buffer
  46:..\..\..\..\wpa_supplicant\src\utils/wpabuf.h ****  * Returns: Currently allocated size of the buffer
  47:..\..\..\..\wpa_supplicant\src\utils/wpabuf.h ****  */
  48:..\..\..\..\wpa_supplicant\src\utils/wpabuf.h **** static inline size_t wpabuf_size(const struct wpabuf *buf)
  49:..\..\..\..\wpa_supplicant\src\utils/wpabuf.h **** {
  50:..\..\..\..\wpa_supplicant\src\utils/wpabuf.h **** 	return buf->size;
  51:..\..\..\..\wpa_supplicant\src\utils/wpabuf.h **** }
  52:..\..\..\..\wpa_supplicant\src\utils/wpabuf.h **** 
  53:..\..\..\..\wpa_supplicant\src\utils/wpabuf.h **** /**
  54:..\..\..\..\wpa_supplicant\src\utils/wpabuf.h ****  * wpabuf_len - Get the current length of a wpabuf buffer data
  55:..\..\..\..\wpa_supplicant\src\utils/wpabuf.h ****  * @buf: wpabuf buffer
  56:..\..\..\..\wpa_supplicant\src\utils/wpabuf.h ****  * Returns: Currently used length of the buffer
  57:..\..\..\..\wpa_supplicant\src\utils/wpabuf.h ****  */
  58:..\..\..\..\wpa_supplicant\src\utils/wpabuf.h **** static inline size_t wpabuf_len(const struct wpabuf *buf)
  59:..\..\..\..\wpa_supplicant\src\utils/wpabuf.h **** {
  60:..\..\..\..\wpa_supplicant\src\utils/wpabuf.h **** 	return buf->used;
  61:..\..\..\..\wpa_supplicant\src\utils/wpabuf.h **** }
  62:..\..\..\..\wpa_supplicant\src\utils/wpabuf.h **** 
  63:..\..\..\..\wpa_supplicant\src\utils/wpabuf.h **** /**
  64:..\..\..\..\wpa_supplicant\src\utils/wpabuf.h ****  * wpabuf_tailroom - Get size of available tail room in the end of the buffer
  65:..\..\..\..\wpa_supplicant\src\utils/wpabuf.h ****  * @buf: wpabuf buffer
  66:..\..\..\..\wpa_supplicant\src\utils/wpabuf.h ****  * Returns: Tail room (in bytes) of available space in the end of the buffer
  67:..\..\..\..\wpa_supplicant\src\utils/wpabuf.h ****  */
  68:..\..\..\..\wpa_supplicant\src\utils/wpabuf.h **** static inline size_t wpabuf_tailroom(const struct wpabuf *buf)
  69:..\..\..\..\wpa_supplicant\src\utils/wpabuf.h **** {
  70:..\..\..\..\wpa_supplicant\src\utils/wpabuf.h **** 	return buf->size - buf->used;
  71:..\..\..\..\wpa_supplicant\src\utils/wpabuf.h **** }
  72:..\..\..\..\wpa_supplicant\src\utils/wpabuf.h **** 
  73:..\..\..\..\wpa_supplicant\src\utils/wpabuf.h **** /**
  74:..\..\..\..\wpa_supplicant\src\utils/wpabuf.h ****  * wpabuf_cmp - Check if two buffers contain the same data
  75:..\..\..\..\wpa_supplicant\src\utils/wpabuf.h ****  * @a: wpabuf buffer
  76:..\..\..\..\wpa_supplicant\src\utils/wpabuf.h ****  * @b: wpabuf buffer
  77:..\..\..\..\wpa_supplicant\src\utils/wpabuf.h ****  * Returns: 0 if the two buffers contain the same data and non-zero otherwise
  78:..\..\..\..\wpa_supplicant\src\utils/wpabuf.h ****  */
  79:..\..\..\..\wpa_supplicant\src\utils/wpabuf.h **** static inline int wpabuf_cmp(const struct wpabuf *a, const struct wpabuf *b)
  80:..\..\..\..\wpa_supplicant\src\utils/wpabuf.h **** {
  81:..\..\..\..\wpa_supplicant\src\utils/wpabuf.h **** 	if (!a && !b)
  82:..\..\..\..\wpa_supplicant\src\utils/wpabuf.h **** 		return 0;
  83:..\..\..\..\wpa_supplicant\src\utils/wpabuf.h **** 	if (a && b && wpabuf_size(a) == wpabuf_size(b))
  84:..\..\..\..\wpa_supplicant\src\utils/wpabuf.h **** 		return os_memcmp(a->buf, b->buf, wpabuf_size(a));
  85:..\..\..\..\wpa_supplicant\src\utils/wpabuf.h **** 	return -1;
  86:..\..\..\..\wpa_supplicant\src\utils/wpabuf.h **** }
  87:..\..\..\..\wpa_supplicant\src\utils/wpabuf.h **** 
  88:..\..\..\..\wpa_supplicant\src\utils/wpabuf.h **** /**
  89:..\..\..\..\wpa_supplicant\src\utils/wpabuf.h ****  * wpabuf_head - Get pointer to the head of the buffer data
  90:..\..\..\..\wpa_supplicant\src\utils/wpabuf.h ****  * @buf: wpabuf buffer
  91:..\..\..\..\wpa_supplicant\src\utils/wpabuf.h ****  * Returns: Pointer to the head of the buffer data
  92:..\..\..\..\wpa_supplicant\src\utils/wpabuf.h ****  */
  93:..\..\..\..\wpa_supplicant\src\utils/wpabuf.h **** static inline const void * wpabuf_head(const struct wpabuf *buf)
  94:..\..\..\..\wpa_supplicant\src\utils/wpabuf.h **** {
  95:..\..\..\..\wpa_supplicant\src\utils/wpabuf.h **** 	return buf->buf;
  96:..\..\..\..\wpa_supplicant\src\utils/wpabuf.h **** }
  97:..\..\..\..\wpa_supplicant\src\utils/wpabuf.h **** 
  98:..\..\..\..\wpa_supplicant\src\utils/wpabuf.h **** static inline const u8 * wpabuf_head_u8(const struct wpabuf *buf)
  99:..\..\..\..\wpa_supplicant\src\utils/wpabuf.h **** {
 100:..\..\..\..\wpa_supplicant\src\utils/wpabuf.h **** 	return (const u8 *) wpabuf_head(buf);
 101:..\..\..\..\wpa_supplicant\src\utils/wpabuf.h **** }
 102:..\..\..\..\wpa_supplicant\src\utils/wpabuf.h **** 
 103:..\..\..\..\wpa_supplicant\src\utils/wpabuf.h **** /**
 104:..\..\..\..\wpa_supplicant\src\utils/wpabuf.h ****  * wpabuf_mhead - Get modifiable pointer to the head of the buffer data
 105:..\..\..\..\wpa_supplicant\src\utils/wpabuf.h ****  * @buf: wpabuf buffer
 106:..\..\..\..\wpa_supplicant\src\utils/wpabuf.h ****  * Returns: Pointer to the head of the buffer data
 107:..\..\..\..\wpa_supplicant\src\utils/wpabuf.h ****  */
 108:..\..\..\..\wpa_supplicant\src\utils/wpabuf.h **** static inline void * wpabuf_mhead(struct wpabuf *buf)
 109:..\..\..\..\wpa_supplicant\src\utils/wpabuf.h **** {
 110:..\..\..\..\wpa_supplicant\src\utils/wpabuf.h **** 	return buf->buf;
 111:..\..\..\..\wpa_supplicant\src\utils/wpabuf.h **** }
 112:..\..\..\..\wpa_supplicant\src\utils/wpabuf.h **** 
 113:..\..\..\..\wpa_supplicant\src\utils/wpabuf.h **** static inline u8 * wpabuf_mhead_u8(struct wpabuf *buf)
 114:..\..\..\..\wpa_supplicant\src\utils/wpabuf.h **** {
 115:..\..\..\..\wpa_supplicant\src\utils/wpabuf.h **** 	return (u8 *) wpabuf_mhead(buf);
 116:..\..\..\..\wpa_supplicant\src\utils/wpabuf.h **** }
 117:..\..\..\..\wpa_supplicant\src\utils/wpabuf.h **** 
 118:..\..\..\..\wpa_supplicant\src\utils/wpabuf.h **** static inline void wpabuf_put_u8(struct wpabuf *buf, u8 data)
 119:..\..\..\..\wpa_supplicant\src\utils/wpabuf.h **** {
 120:..\..\..\..\wpa_supplicant\src\utils/wpabuf.h **** 	u8 *pos = (u8 *) wpabuf_put(buf, 1);
 121:..\..\..\..\wpa_supplicant\src\utils/wpabuf.h **** 	*pos = data;
 122:..\..\..\..\wpa_supplicant\src\utils/wpabuf.h **** }
 123:..\..\..\..\wpa_supplicant\src\utils/wpabuf.h **** 
 124:..\..\..\..\wpa_supplicant\src\utils/wpabuf.h **** static inline void wpabuf_put_le16(struct wpabuf *buf, u16 data)
 125:..\..\..\..\wpa_supplicant\src\utils/wpabuf.h **** {
 126:..\..\..\..\wpa_supplicant\src\utils/wpabuf.h **** 	u8 *pos = (u8 *) wpabuf_put(buf, 2);
 127:..\..\..\..\wpa_supplicant\src\utils/wpabuf.h **** 	WPA_PUT_LE16(pos, data);
 128:..\..\..\..\wpa_supplicant\src\utils/wpabuf.h **** }
 129:..\..\..\..\wpa_supplicant\src\utils/wpabuf.h **** 
 130:..\..\..\..\wpa_supplicant\src\utils/wpabuf.h **** static inline void wpabuf_put_le32(struct wpabuf *buf, u32 data)
 131:..\..\..\..\wpa_supplicant\src\utils/wpabuf.h **** {
 132:..\..\..\..\wpa_supplicant\src\utils/wpabuf.h **** 	u8 *pos = (u8 *) wpabuf_put(buf, 4);
 133:..\..\..\..\wpa_supplicant\src\utils/wpabuf.h **** 	WPA_PUT_LE32(pos, data);
 134:..\..\..\..\wpa_supplicant\src\utils/wpabuf.h **** }
 135:..\..\..\..\wpa_supplicant\src\utils/wpabuf.h **** 
 136:..\..\..\..\wpa_supplicant\src\utils/wpabuf.h **** static inline void wpabuf_put_le64(struct wpabuf *buf, u64 data)
 137:..\..\..\..\wpa_supplicant\src\utils/wpabuf.h **** {
 138:..\..\..\..\wpa_supplicant\src\utils/wpabuf.h **** 	u8 *pos = (u8 *) wpabuf_put(buf, 8);
 139:..\..\..\..\wpa_supplicant\src\utils/wpabuf.h **** 	WPA_PUT_LE64(pos, data);
 140:..\..\..\..\wpa_supplicant\src\utils/wpabuf.h **** }
 141:..\..\..\..\wpa_supplicant\src\utils/wpabuf.h **** 
 142:..\..\..\..\wpa_supplicant\src\utils/wpabuf.h **** static inline void wpabuf_put_be16(struct wpabuf *buf, u16 data)
 143:..\..\..\..\wpa_supplicant\src\utils/wpabuf.h **** {
 144:..\..\..\..\wpa_supplicant\src\utils/wpabuf.h **** 	u8 *pos = (u8 *) wpabuf_put(buf, 2);
 145:..\..\..\..\wpa_supplicant\src\utils/wpabuf.h **** 	WPA_PUT_BE16(pos, data);
 146:..\..\..\..\wpa_supplicant\src\utils/wpabuf.h **** }
 147:..\..\..\..\wpa_supplicant\src\utils/wpabuf.h **** 
 148:..\..\..\..\wpa_supplicant\src\utils/wpabuf.h **** static inline void wpabuf_put_be24(struct wpabuf *buf, u32 data)
 149:..\..\..\..\wpa_supplicant\src\utils/wpabuf.h **** {
 150:..\..\..\..\wpa_supplicant\src\utils/wpabuf.h **** 	u8 *pos = (u8 *) wpabuf_put(buf, 3);
 151:..\..\..\..\wpa_supplicant\src\utils/wpabuf.h **** 	WPA_PUT_BE24(pos, data);
 152:..\..\..\..\wpa_supplicant\src\utils/wpabuf.h **** }
 153:..\..\..\..\wpa_supplicant\src\utils/wpabuf.h **** 
 154:..\..\..\..\wpa_supplicant\src\utils/wpabuf.h **** static inline void wpabuf_put_be32(struct wpabuf *buf, u32 data)
 155:..\..\..\..\wpa_supplicant\src\utils/wpabuf.h **** {
 156:..\..\..\..\wpa_supplicant\src\utils/wpabuf.h **** 	u8 *pos = (u8 *) wpabuf_put(buf, 4);
 157:..\..\..\..\wpa_supplicant\src\utils/wpabuf.h **** 	WPA_PUT_BE32(pos, data);
 158:..\..\..\..\wpa_supplicant\src\utils/wpabuf.h **** }
 159:..\..\..\..\wpa_supplicant\src\utils/wpabuf.h **** 
 160:..\..\..\..\wpa_supplicant\src\utils/wpabuf.h **** static inline void wpabuf_put_be64(struct wpabuf *buf, u64 data)
 161:..\..\..\..\wpa_supplicant\src\utils/wpabuf.h **** {
 162:..\..\..\..\wpa_supplicant\src\utils/wpabuf.h **** 	u8 *pos = (u8 *) wpabuf_put(buf, 8);
 163:..\..\..\..\wpa_supplicant\src\utils/wpabuf.h **** 	WPA_PUT_BE64(pos, data);
 164:..\..\..\..\wpa_supplicant\src\utils/wpabuf.h **** }
 165:..\..\..\..\wpa_supplicant\src\utils/wpabuf.h **** 
 166:..\..\..\..\wpa_supplicant\src\utils/wpabuf.h **** static inline void wpabuf_put_data(struct wpabuf *buf, const void *data,
 167:..\..\..\..\wpa_supplicant\src\utils/wpabuf.h **** 				   size_t len)
 168:..\..\..\..\wpa_supplicant\src\utils/wpabuf.h **** {
 169:..\..\..\..\wpa_supplicant\src\utils/wpabuf.h **** 	if (data)
 593              		.loc 3 169 2
 594              		.loc 3 169 5 is_stmt 0
 595 007e 91CC     		beq	s1,zero,.L29
 596              	.LVL60:
 597              	.LBB56:
 598              	.LBB57:
 170:..\..\..\..\wpa_supplicant\src\utils/wpabuf.h **** 		os_memcpy(wpabuf_put(buf, len), data, len);
 599              		.loc 3 170 3 is_stmt 1
 600 0080 03254421 		lw	a0,532(s0)
 601 0084 CE85     		mv	a1,s3
 602 0086 97000000 		call	wpabuf_put
 602      E7800000 
 603              	.LVL61:
 604 008e 4E86     		mv	a2,s3
 605 0090 A685     		mv	a1,s1
 606 0092 97000000 		call	os_memcpy
 606      E7800000 
 607              	.LVL62:
 608              	.L29:
 609              	.LBE57:
 610              	.LBE56:
 611              	.LBE55:
 612              	.LBE54:
 192:C:/Users/stapi/OneDrive/Desktop/GD32VW553/V1_MQTT_OK/GD32VW55X_Wifi_BLE_SDK/GD32VW55x_RELEASE_V1.0.2/MSDK/wpa_supplicant/src/tls\tlsv1_client.c **** 		in_len = wpabuf_len(conn->partial_input);
 613              		.loc 1 192 3
 192:C:/Users/stapi/OneDrive/Desktop/GD32VW553/V1_MQTT_OK/GD32VW55X_Wifi_BLE_SDK/GD32VW55x_RELEASE_V1.0.2/MSDK/wpa_supplicant/src/tls\tlsv1_client.c **** 		in_len = wpabuf_len(conn->partial_input);
 614              		.loc 1 192 29 is_stmt 0
 615 009a 83274421 		lw	a5,532(s0)
 616              	.LVL63:
 617              	.LBB58:
 618              	.LBB59:
  95:..\..\..\..\wpa_supplicant\src\utils/wpabuf.h **** }
 619              		.loc 3 95 2 is_stmt 1
  95:..\..\..\..\wpa_supplicant\src\utils/wpabuf.h **** }
 620              		.loc 3 95 12 is_stmt 0
 621 009e 8447     		lw	s1,8(a5)
 622              	.LVL64:
 623              	.LBE59:
 624              	.LBE58:
 193:C:/Users/stapi/OneDrive/Desktop/GD32VW553/V1_MQTT_OK/GD32VW55X_Wifi_BLE_SDK/GD32VW55x_RELEASE_V1.0.2/MSDK/wpa_supplicant/src/tls\tlsv1_client.c **** 	}
 625              		.loc 1 193 3 is_stmt 1
 626              	.LBB60:
 627              	.LBB61:
  60:..\..\..\..\wpa_supplicant\src\utils/wpabuf.h **** }
 628              		.loc 3 60 2
  60:..\..\..\..\wpa_supplicant\src\utils/wpabuf.h **** }
 629              		.loc 3 60 12 is_stmt 0
 630 00a0 83A94700 		lw	s3,4(a5)
 631              	.LVL65:
 632              	.L26:
 633              	.LBE61:
 634              	.LBE60:
 196:C:/Users/stapi/OneDrive/Desktop/GD32VW553/V1_MQTT_OK/GD32VW55X_Wifi_BLE_SDK/GD32VW55x_RELEASE_V1.0.2/MSDK/wpa_supplicant/src/tls\tlsv1_client.c **** 		return NULL;
 635              		.loc 1 196 2 is_stmt 1
 196:C:/Users/stapi/OneDrive/Desktop/GD32VW553/V1_MQTT_OK/GD32VW55X_Wifi_BLE_SDK/GD32VW55x_RELEASE_V1.0.2/MSDK/wpa_supplicant/src/tls\tlsv1_client.c **** 		return NULL;
 636              		.loc 1 196 5 is_stmt 0
 637 00a4 D1D0     		beq	s1,zero,.L69
 196:C:/Users/stapi/OneDrive/Desktop/GD32VW553/V1_MQTT_OK/GD32VW55X_Wifi_BLE_SDK/GD32VW55x_RELEASE_V1.0.2/MSDK/wpa_supplicant/src/tls\tlsv1_client.c **** 		return NULL;
 638              		.loc 1 196 22 discriminator 1
 639 00a6 E38109F8 		beq	s3,zero,.L69
 199:C:/Users/stapi/OneDrive/Desktop/GD32VW553/V1_MQTT_OK/GD32VW55X_Wifi_BLE_SDK/GD32VW55x_RELEASE_V1.0.2/MSDK/wpa_supplicant/src/tls\tlsv1_client.c **** 	end = in_data + in_len;
 640              		.loc 1 199 2 is_stmt 1
 641              	.LVL66:
 200:C:/Users/stapi/OneDrive/Desktop/GD32VW553/V1_MQTT_OK/GD32VW55X_Wifi_BLE_SDK/GD32VW55x_RELEASE_V1.0.2/MSDK/wpa_supplicant/src/tls\tlsv1_client.c **** 	in_msg = os_malloc(in_len);
 642              		.loc 1 200 2
 201:C:/Users/stapi/OneDrive/Desktop/GD32VW553/V1_MQTT_OK/GD32VW55X_Wifi_BLE_SDK/GD32VW55x_RELEASE_V1.0.2/MSDK/wpa_supplicant/src/tls\tlsv1_client.c **** 	if (in_msg == NULL)
 643              		.loc 1 201 11 is_stmt 0
 644 00aa 4E85     		mv	a0,s3
 645 00ac 97000000 		call	os_malloc
 645      E7800000 
 646              	.LVL67:
 200:C:/Users/stapi/OneDrive/Desktop/GD32VW553/V1_MQTT_OK/GD32VW55X_Wifi_BLE_SDK/GD32VW55x_RELEASE_V1.0.2/MSDK/wpa_supplicant/src/tls\tlsv1_client.c **** 	in_msg = os_malloc(in_len);
 647              		.loc 1 200 6
 648 00b4 B38C3401 		add	s9,s1,s3
 649              	.LVL68:
 201:C:/Users/stapi/OneDrive/Desktop/GD32VW553/V1_MQTT_OK/GD32VW55X_Wifi_BLE_SDK/GD32VW55x_RELEASE_V1.0.2/MSDK/wpa_supplicant/src/tls\tlsv1_client.c **** 	if (in_msg == NULL)
 650              		.loc 1 201 2 is_stmt 1
 201:C:/Users/stapi/OneDrive/Desktop/GD32VW553/V1_MQTT_OK/GD32VW55X_Wifi_BLE_SDK/GD32VW55x_RELEASE_V1.0.2/MSDK/wpa_supplicant/src/tls\tlsv1_client.c **** 	if (in_msg == NULL)
 651              		.loc 1 201 11 is_stmt 0
 652 00b8 2A89     		mv	s2,a0
 653              	.LVL69:
 202:C:/Users/stapi/OneDrive/Desktop/GD32VW553/V1_MQTT_OK/GD32VW55X_Wifi_BLE_SDK/GD32VW55x_RELEASE_V1.0.2/MSDK/wpa_supplicant/src/tls\tlsv1_client.c **** 		return NULL;
 654              		.loc 1 202 2 is_stmt 1
 202:C:/Users/stapi/OneDrive/Desktop/GD32VW553/V1_MQTT_OK/GD32VW55X_Wifi_BLE_SDK/GD32VW55x_RELEASE_V1.0.2/MSDK/wpa_supplicant/src/tls\tlsv1_client.c **** 		return NULL;
 655              		.loc 1 202 5 is_stmt 0
 656 00ba 3DD5     		beq	a0,zero,.L69
 208:C:/Users/stapi/OneDrive/Desktop/GD32VW553/V1_MQTT_OK/GD32VW55X_Wifi_BLE_SDK/GD32VW55x_RELEASE_V1.0.2/MSDK/wpa_supplicant/src/tls\tlsv1_client.c **** 					    in_msg, &in_msg_len, &alert);
 657              		.loc 1 208 10
 658 00bc 130D4400 		addi	s10,s0,4
 659              	.LVL70:
 660              	.L31:
 206:C:/Users/stapi/OneDrive/Desktop/GD32VW553/V1_MQTT_OK/GD32VW55X_Wifi_BLE_SDK/GD32VW55x_RELEASE_V1.0.2/MSDK/wpa_supplicant/src/tls\tlsv1_client.c **** 		in_msg_len = in_len;
 661              		.loc 1 206 8 is_stmt 1
 662 00c0 63E79403 		bltu	s1,s9,.L37
 255:C:/Users/stapi/OneDrive/Desktop/GD32VW553/V1_MQTT_OK/GD32VW55X_Wifi_BLE_SDK/GD32VW55x_RELEASE_V1.0.2/MSDK/wpa_supplicant/src/tls\tlsv1_client.c **** 	in_msg = NULL;
 663              		.loc 1 255 2
 664 00c4 4A85     		mv	a0,s2
 665 00c6 97000000 		call	os_free
 665      E7800000 
 666              	.LVL71:
 256:C:/Users/stapi/OneDrive/Desktop/GD32VW553/V1_MQTT_OK/GD32VW55X_Wifi_BLE_SDK/GD32VW55x_RELEASE_V1.0.2/MSDK/wpa_supplicant/src/tls\tlsv1_client.c **** 
 667              		.loc 1 256 2
 258:C:/Users/stapi/OneDrive/Desktop/GD32VW553/V1_MQTT_OK/GD32VW55X_Wifi_BLE_SDK/GD32VW55x_RELEASE_V1.0.2/MSDK/wpa_supplicant/src/tls\tlsv1_client.c **** 	msg = tlsv1_client_handshake_write(conn, out_len, no_appl_data);
 668              		.loc 1 258 2
 258:C:/Users/stapi/OneDrive/Desktop/GD32VW553/V1_MQTT_OK/GD32VW55X_Wifi_BLE_SDK/GD32VW55x_RELEASE_V1.0.2/MSDK/wpa_supplicant/src/tls\tlsv1_client.c **** 	msg = tlsv1_client_handshake_write(conn, out_len, no_appl_data);
 669              		.loc 1 258 35 is_stmt 0
 670 00ce 0546     		li	a2,1
 671 00d0 63060B00 		beq	s6,zero,.L38
 258:C:/Users/stapi/OneDrive/Desktop/GD32VW553/V1_MQTT_OK/GD32VW55X_Wifi_BLE_SDK/GD32VW55x_RELEASE_V1.0.2/MSDK/wpa_supplicant/src/tls\tlsv1_client.c **** 	msg = tlsv1_client_handshake_write(conn, out_len, no_appl_data);
 672              		.loc 1 258 35 discriminator 2
 673 00d4 03260B00 		lw	a2,0(s6)
 674 00d8 13361600 		seqz	a2,a2
 675              	.L38:
 676              	.LVL72:
 259:C:/Users/stapi/OneDrive/Desktop/GD32VW553/V1_MQTT_OK/GD32VW55X_Wifi_BLE_SDK/GD32VW55x_RELEASE_V1.0.2/MSDK/wpa_supplicant/src/tls\tlsv1_client.c **** 
 677              		.loc 1 259 2 is_stmt 1 discriminator 6
 259:C:/Users/stapi/OneDrive/Desktop/GD32VW553/V1_MQTT_OK/GD32VW55X_Wifi_BLE_SDK/GD32VW55x_RELEASE_V1.0.2/MSDK/wpa_supplicant/src/tls\tlsv1_client.c **** 
 678              		.loc 1 259 8 is_stmt 0 discriminator 6
 679 00dc D685     		mv	a1,s5
 680 00de 2285     		mv	a0,s0
 681 00e0 97000000 		call	tlsv1_client_handshake_write
 681      E7800000 
 682              	.LVL73:
 683 00e8 AA84     		mv	s1,a0
 684              	.LVL74:
 256:C:/Users/stapi/OneDrive/Desktop/GD32VW553/V1_MQTT_OK/GD32VW55X_Wifi_BLE_SDK/GD32VW55x_RELEASE_V1.0.2/MSDK/wpa_supplicant/src/tls\tlsv1_client.c **** 
 685              		.loc 1 256 9 discriminator 6
 686 00ea 0149     		li	s2,0
 687 00ec 51A8     		j	.L28
 688              	.LVL75:
 689              	.L37:
 207:C:/Users/stapi/OneDrive/Desktop/GD32VW553/V1_MQTT_OK/GD32VW55X_Wifi_BLE_SDK/GD32VW55x_RELEASE_V1.0.2/MSDK/wpa_supplicant/src/tls\tlsv1_client.c **** 		used = tlsv1_record_receive(&conn->rl, pos, end - pos,
 690              		.loc 1 207 3 is_stmt 1
 208:C:/Users/stapi/OneDrive/Desktop/GD32VW553/V1_MQTT_OK/GD32VW55X_Wifi_BLE_SDK/GD32VW55x_RELEASE_V1.0.2/MSDK/wpa_supplicant/src/tls\tlsv1_client.c **** 					    in_msg, &in_msg_len, &alert);
 691              		.loc 1 208 51 is_stmt 0
 692 00ee B38D9C40 		sub	s11,s9,s1
 208:C:/Users/stapi/OneDrive/Desktop/GD32VW553/V1_MQTT_OK/GD32VW55X_Wifi_BLE_SDK/GD32VW55x_RELEASE_V1.0.2/MSDK/wpa_supplicant/src/tls\tlsv1_client.c **** 					    in_msg, &in_msg_len, &alert);
 693              		.loc 1 208 10
 694 00f2 9307B101 		addi	a5,sp,27
 695 00f6 7808     		addi	a4,sp,28
 696 00f8 CA86     		mv	a3,s2
 697 00fa 6E86     		mv	a2,s11
 698 00fc A685     		mv	a1,s1
 699 00fe 6A85     		mv	a0,s10
 207:C:/Users/stapi/OneDrive/Desktop/GD32VW553/V1_MQTT_OK/GD32VW55X_Wifi_BLE_SDK/GD32VW55x_RELEASE_V1.0.2/MSDK/wpa_supplicant/src/tls\tlsv1_client.c **** 		used = tlsv1_record_receive(&conn->rl, pos, end - pos,
 700              		.loc 1 207 14
 701 0100 4ECE     		sw	s3,28(sp)
 208:C:/Users/stapi/OneDrive/Desktop/GD32VW553/V1_MQTT_OK/GD32VW55X_Wifi_BLE_SDK/GD32VW55x_RELEASE_V1.0.2/MSDK/wpa_supplicant/src/tls\tlsv1_client.c **** 					    in_msg, &in_msg_len, &alert);
 702              		.loc 1 208 3 is_stmt 1
 208:C:/Users/stapi/OneDrive/Desktop/GD32VW553/V1_MQTT_OK/GD32VW55X_Wifi_BLE_SDK/GD32VW55x_RELEASE_V1.0.2/MSDK/wpa_supplicant/src/tls\tlsv1_client.c **** 					    in_msg, &in_msg_len, &alert);
 703              		.loc 1 208 10 is_stmt 0
 704 0102 97000000 		call	tlsv1_record_receive
 704      E7800000 
 705              	.LVL76:
 706 010a AA8B     		mv	s7,a0
 707              	.LVL77:
 210:C:/Users/stapi/OneDrive/Desktop/GD32VW553/V1_MQTT_OK/GD32VW55X_Wifi_BLE_SDK/GD32VW55x_RELEASE_V1.0.2/MSDK/wpa_supplicant/src/tls\tlsv1_client.c **** 			wpa_printf(MSG_DEBUG, "TLSv1: Processing received "
 708              		.loc 1 210 3 is_stmt 1
 210:C:/Users/stapi/OneDrive/Desktop/GD32VW553/V1_MQTT_OK/GD32VW55X_Wifi_BLE_SDK/GD32VW55x_RELEASE_V1.0.2/MSDK/wpa_supplicant/src/tls\tlsv1_client.c **** 			wpa_printf(MSG_DEBUG, "TLSv1: Processing received "
 709              		.loc 1 210 6 is_stmt 0
 710 010c 63530502 		bge	a0,zero,.L32
 211:C:/Users/stapi/OneDrive/Desktop/GD32VW553/V1_MQTT_OK/GD32VW55X_Wifi_BLE_SDK/GD32VW55x_RELEASE_V1.0.2/MSDK/wpa_supplicant/src/tls\tlsv1_client.c **** 				   "record failed");
 711              		.loc 1 211 4 is_stmt 1
 712 0110 B7050000 		lui	a1,%hi(.LC8)
 713 0114 93850500 		addi	a1,a1,%lo(.LC8)
 714 0118 0945     		li	a0,2
 715              	.LVL78:
 716 011a 97000000 		call	wpa_printf
 716      E7800000 
 717              	.LVL79:
 213:C:/Users/stapi/OneDrive/Desktop/GD32VW553/V1_MQTT_OK/GD32VW55X_Wifi_BLE_SDK/GD32VW55x_RELEASE_V1.0.2/MSDK/wpa_supplicant/src/tls\tlsv1_client.c **** 			goto failed;
 718              		.loc 1 213 4
 719 0122 8347B101 		lbu	a5,27(sp)
 720              	.LVL80:
 721              	.LBB62:
 722              	.LBB63:
  27:C:/Users/stapi/OneDrive/Desktop/GD32VW553/V1_MQTT_OK/GD32VW55X_Wifi_BLE_SDK/GD32VW55x_RELEASE_V1.0.2/MSDK/wpa_supplicant/src/tls\tlsv1_client.c **** 	conn->alert_description = description;
 723              		.loc 1 27 2
  27:C:/Users/stapi/OneDrive/Desktop/GD32VW553/V1_MQTT_OK/GD32VW55X_Wifi_BLE_SDK/GD32VW55x_RELEASE_V1.0.2/MSDK/wpa_supplicant/src/tls\tlsv1_client.c **** 	conn->alert_description = description;
 724              		.loc 1 27 20 is_stmt 0
 725 0126 0947     		li	a4,2
 726 0128 2308E416 		sb	a4,368(s0)
  28:C:/Users/stapi/OneDrive/Desktop/GD32VW553/V1_MQTT_OK/GD32VW55X_Wifi_BLE_SDK/GD32VW55x_RELEASE_V1.0.2/MSDK/wpa_supplicant/src/tls\tlsv1_client.c **** }
 727              		.loc 1 28 2 is_stmt 1
  28:C:/Users/stapi/OneDrive/Desktop/GD32VW553/V1_MQTT_OK/GD32VW55X_Wifi_BLE_SDK/GD32VW55x_RELEASE_V1.0.2/MSDK/wpa_supplicant/src/tls\tlsv1_client.c **** }
 728              		.loc 1 28 26 is_stmt 0
 729 012c A308F416 		sb	a5,369(s0)
 730              	.LVL81:
 731              	.LBE63:
 732              	.LBE62:
 214:C:/Users/stapi/OneDrive/Desktop/GD32VW553/V1_MQTT_OK/GD32VW55X_Wifi_BLE_SDK/GD32VW55x_RELEASE_V1.0.2/MSDK/wpa_supplicant/src/tls\tlsv1_client.c **** 		}
 733              		.loc 1 214 4 is_stmt 1
 734 0130 A9B7     		j	.L42
 735              	.LVL82:
 736              	.L32:
 216:C:/Users/stapi/OneDrive/Desktop/GD32VW553/V1_MQTT_OK/GD32VW55X_Wifi_BLE_SDK/GD32VW55x_RELEASE_V1.0.2/MSDK/wpa_supplicant/src/tls\tlsv1_client.c **** 			struct wpabuf *partial;
 737              		.loc 1 216 3
 216:C:/Users/stapi/OneDrive/Desktop/GD32VW553/V1_MQTT_OK/GD32VW55X_Wifi_BLE_SDK/GD32VW55x_RELEASE_V1.0.2/MSDK/wpa_supplicant/src/tls\tlsv1_client.c **** 			struct wpabuf *partial;
 738              		.loc 1 216 6 is_stmt 0
 739 0132 79E1     		bne	a0,zero,.L33
 740              	.LBB64:
 217:C:/Users/stapi/OneDrive/Desktop/GD32VW553/V1_MQTT_OK/GD32VW55X_Wifi_BLE_SDK/GD32VW55x_RELEASE_V1.0.2/MSDK/wpa_supplicant/src/tls\tlsv1_client.c **** 			wpa_printf(MSG_DEBUG, "TLSv1: Need more data");
 741              		.loc 1 217 4 is_stmt 1
 218:C:/Users/stapi/OneDrive/Desktop/GD32VW553/V1_MQTT_OK/GD32VW55X_Wifi_BLE_SDK/GD32VW55x_RELEASE_V1.0.2/MSDK/wpa_supplicant/src/tls\tlsv1_client.c **** 			partial = wpabuf_alloc_copy(pos, end - pos);
 742              		.loc 1 218 4
 743 0134 B7050000 		lui	a1,%hi(.LC9)
 744 0138 93850500 		addi	a1,a1,%lo(.LC9)
 745 013c 0945     		li	a0,2
 746              	.LVL83:
 747 013e 97000000 		call	wpa_printf
 747      E7800000 
 748              	.LVL84:
 219:C:/Users/stapi/OneDrive/Desktop/GD32VW553/V1_MQTT_OK/GD32VW55X_Wifi_BLE_SDK/GD32VW55x_RELEASE_V1.0.2/MSDK/wpa_supplicant/src/tls\tlsv1_client.c **** 			wpabuf_free(conn->partial_input);
 749              		.loc 1 219 4
 219:C:/Users/stapi/OneDrive/Desktop/GD32VW553/V1_MQTT_OK/GD32VW55X_Wifi_BLE_SDK/GD32VW55x_RELEASE_V1.0.2/MSDK/wpa_supplicant/src/tls\tlsv1_client.c **** 			wpabuf_free(conn->partial_input);
 750              		.loc 1 219 14 is_stmt 0
 751 0146 EE85     		mv	a1,s11
 752 0148 2685     		mv	a0,s1
 753 014a 97000000 		call	wpabuf_alloc_copy
 753      E7800000 
 754              	.LVL85:
 755 0152 AA84     		mv	s1,a0
 756              	.LVL86:
 220:C:/Users/stapi/OneDrive/Desktop/GD32VW553/V1_MQTT_OK/GD32VW55X_Wifi_BLE_SDK/GD32VW55x_RELEASE_V1.0.2/MSDK/wpa_supplicant/src/tls\tlsv1_client.c **** 			conn->partial_input = partial;
 757              		.loc 1 220 4 is_stmt 1
 758 0154 03254421 		lw	a0,532(s0)
 759 0158 97000000 		call	wpabuf_free
 759      E7800000 
 760              	.LVL87:
 221:C:/Users/stapi/OneDrive/Desktop/GD32VW553/V1_MQTT_OK/GD32VW55X_Wifi_BLE_SDK/GD32VW55x_RELEASE_V1.0.2/MSDK/wpa_supplicant/src/tls\tlsv1_client.c **** 			if (conn->partial_input == NULL) {
 761              		.loc 1 221 4
 221:C:/Users/stapi/OneDrive/Desktop/GD32VW553/V1_MQTT_OK/GD32VW55X_Wifi_BLE_SDK/GD32VW55x_RELEASE_V1.0.2/MSDK/wpa_supplicant/src/tls\tlsv1_client.c **** 			if (conn->partial_input == NULL) {
 762              		.loc 1 221 24 is_stmt 0
 763 0160 232A9420 		sw	s1,532(s0)
 222:C:/Users/stapi/OneDrive/Desktop/GD32VW553/V1_MQTT_OK/GD32VW55X_Wifi_BLE_SDK/GD32VW55x_RELEASE_V1.0.2/MSDK/wpa_supplicant/src/tls\tlsv1_client.c **** 				wpa_printf(MSG_DEBUG, "TLSv1: Failed to "
 764              		.loc 1 222 4 is_stmt 1
 222:C:/Users/stapi/OneDrive/Desktop/GD32VW553/V1_MQTT_OK/GD32VW55X_Wifi_BLE_SDK/GD32VW55x_RELEASE_V1.0.2/MSDK/wpa_supplicant/src/tls\tlsv1_client.c **** 				wpa_printf(MSG_DEBUG, "TLSv1: Failed to "
 765              		.loc 1 222 7 is_stmt 0
 766 0164 BDEC     		bne	s1,zero,.L34
 223:C:/Users/stapi/OneDrive/Desktop/GD32VW553/V1_MQTT_OK/GD32VW55X_Wifi_BLE_SDK/GD32VW55x_RELEASE_V1.0.2/MSDK/wpa_supplicant/src/tls\tlsv1_client.c **** 					   "allocate memory for pending "
 767              		.loc 1 223 5 is_stmt 1
 768 0166 B7050000 		lui	a1,%hi(.LC7)
 769 016a 93850500 		addi	a1,a1,%lo(.LC7)
 770 016e 0945     		li	a0,2
 771 0170 97000000 		call	wpa_printf
 771      E7800000 
 772              	.LVL88:
 226:C:/Users/stapi/OneDrive/Desktop/GD32VW553/V1_MQTT_OK/GD32VW55X_Wifi_BLE_SDK/GD32VW55x_RELEASE_V1.0.2/MSDK/wpa_supplicant/src/tls\tlsv1_client.c **** 					  TLS_ALERT_INTERNAL_ERROR);
 773              		.loc 1 226 5
 774              	.LBB50:
 775              	.LBB51:
  27:C:/Users/stapi/OneDrive/Desktop/GD32VW553/V1_MQTT_OK/GD32VW55X_Wifi_BLE_SDK/GD32VW55x_RELEASE_V1.0.2/MSDK/wpa_supplicant/src/tls\tlsv1_client.c **** 	conn->alert_description = description;
 776              		.loc 1 27 2
  28:C:/Users/stapi/OneDrive/Desktop/GD32VW553/V1_MQTT_OK/GD32VW55X_Wifi_BLE_SDK/GD32VW55x_RELEASE_V1.0.2/MSDK/wpa_supplicant/src/tls\tlsv1_client.c **** }
 777              		.loc 1 28 2
  27:C:/Users/stapi/OneDrive/Desktop/GD32VW553/V1_MQTT_OK/GD32VW55X_Wifi_BLE_SDK/GD32VW55x_RELEASE_V1.0.2/MSDK/wpa_supplicant/src/tls\tlsv1_client.c **** 	conn->alert_description = description;
 778              		.loc 1 27 20 is_stmt 0
 779 0178 9567     		li	a5,20480
 780 017a 8907     		addi	a5,a5,2
 781 017c 2318F416 		sh	a5,368(s0)
 782              	.LVL89:
 783              	.LBE51:
 784              	.LBE50:
 228:C:/Users/stapi/OneDrive/Desktop/GD32VW553/V1_MQTT_OK/GD32VW55X_Wifi_BLE_SDK/GD32VW55x_RELEASE_V1.0.2/MSDK/wpa_supplicant/src/tls\tlsv1_client.c **** 			}
 785              		.loc 1 228 5 is_stmt 1
 786              	.L28:
 787              	.LBE64:
 262:C:/Users/stapi/OneDrive/Desktop/GD32VW553/V1_MQTT_OK/GD32VW55X_Wifi_BLE_SDK/GD32VW55x_RELEASE_V1.0.2/MSDK/wpa_supplicant/src/tls\tlsv1_client.c **** 	if (conn->alert_level) {
 788              		.loc 1 262 2
 789 0180 4A85     		mv	a0,s2
 790 0182 97000000 		call	os_free
 790      E7800000 
 791              	.LVL90:
 263:C:/Users/stapi/OneDrive/Desktop/GD32VW553/V1_MQTT_OK/GD32VW55X_Wifi_BLE_SDK/GD32VW55x_RELEASE_V1.0.2/MSDK/wpa_supplicant/src/tls\tlsv1_client.c **** 		wpabuf_free(conn->partial_input);
 792              		.loc 1 263 2
 263:C:/Users/stapi/OneDrive/Desktop/GD32VW553/V1_MQTT_OK/GD32VW55X_Wifi_BLE_SDK/GD32VW55x_RELEASE_V1.0.2/MSDK/wpa_supplicant/src/tls\tlsv1_client.c **** 		wpabuf_free(conn->partial_input);
 793              		.loc 1 263 5 is_stmt 0
 794 018a 83470417 		lbu	a5,368(s0)
 795 018e DDC3     		beq	a5,zero,.L39
 264:C:/Users/stapi/OneDrive/Desktop/GD32VW553/V1_MQTT_OK/GD32VW55X_Wifi_BLE_SDK/GD32VW55x_RELEASE_V1.0.2/MSDK/wpa_supplicant/src/tls\tlsv1_client.c **** 		conn->partial_input = NULL;
 796              		.loc 1 264 3 is_stmt 1
 797 0190 03254421 		lw	a0,532(s0)
 798 0194 97000000 		call	wpabuf_free
 798      E7800000 
 799              	.LVL91:
 265:C:/Users/stapi/OneDrive/Desktop/GD32VW553/V1_MQTT_OK/GD32VW55X_Wifi_BLE_SDK/GD32VW55x_RELEASE_V1.0.2/MSDK/wpa_supplicant/src/tls\tlsv1_client.c **** 		conn->state = FAILED;
 800              		.loc 1 265 3
 266:C:/Users/stapi/OneDrive/Desktop/GD32VW553/V1_MQTT_OK/GD32VW55X_Wifi_BLE_SDK/GD32VW55x_RELEASE_V1.0.2/MSDK/wpa_supplicant/src/tls\tlsv1_client.c **** 		os_free(msg);
 801              		.loc 1 266 15 is_stmt 0
 802 019c B147     		li	a5,12
 267:C:/Users/stapi/OneDrive/Desktop/GD32VW553/V1_MQTT_OK/GD32VW55X_Wifi_BLE_SDK/GD32VW55x_RELEASE_V1.0.2/MSDK/wpa_supplicant/src/tls\tlsv1_client.c **** 		msg = tlsv1_client_send_alert(conn, conn->alert_level,
 803              		.loc 1 267 3
 804 019e 2685     		mv	a0,s1
 266:C:/Users/stapi/OneDrive/Desktop/GD32VW553/V1_MQTT_OK/GD32VW55X_Wifi_BLE_SDK/GD32VW55x_RELEASE_V1.0.2/MSDK/wpa_supplicant/src/tls\tlsv1_client.c **** 		os_free(msg);
 805              		.loc 1 266 15
 806 01a0 1CC0     		sw	a5,0(s0)
 265:C:/Users/stapi/OneDrive/Desktop/GD32VW553/V1_MQTT_OK/GD32VW55X_Wifi_BLE_SDK/GD32VW55x_RELEASE_V1.0.2/MSDK/wpa_supplicant/src/tls\tlsv1_client.c **** 		conn->state = FAILED;
 807              		.loc 1 265 23
 808 01a2 232A0420 		sw	zero,532(s0)
 266:C:/Users/stapi/OneDrive/Desktop/GD32VW553/V1_MQTT_OK/GD32VW55X_Wifi_BLE_SDK/GD32VW55x_RELEASE_V1.0.2/MSDK/wpa_supplicant/src/tls\tlsv1_client.c **** 		os_free(msg);
 809              		.loc 1 266 3 is_stmt 1
 267:C:/Users/stapi/OneDrive/Desktop/GD32VW553/V1_MQTT_OK/GD32VW55X_Wifi_BLE_SDK/GD32VW55x_RELEASE_V1.0.2/MSDK/wpa_supplicant/src/tls\tlsv1_client.c **** 		msg = tlsv1_client_send_alert(conn, conn->alert_level,
 810              		.loc 1 267 3
 811 01a6 97000000 		call	os_free
 811      E7800000 
 812              	.LVL92:
 268:C:/Users/stapi/OneDrive/Desktop/GD32VW553/V1_MQTT_OK/GD32VW55X_Wifi_BLE_SDK/GD32VW55x_RELEASE_V1.0.2/MSDK/wpa_supplicant/src/tls\tlsv1_client.c **** 					      conn->alert_description,
 813              		.loc 1 268 3
 268:C:/Users/stapi/OneDrive/Desktop/GD32VW553/V1_MQTT_OK/GD32VW55X_Wifi_BLE_SDK/GD32VW55x_RELEASE_V1.0.2/MSDK/wpa_supplicant/src/tls\tlsv1_client.c **** 					      conn->alert_description,
 814              		.loc 1 268 9 is_stmt 0
 815 01ae 03461417 		lbu	a2,369(s0)
 816 01b2 83450417 		lbu	a1,368(s0)
 817 01b6 D686     		mv	a3,s5
 818 01b8 2285     		mv	a0,s0
 819 01ba 97000000 		call	tlsv1_client_send_alert
 819      E7800000 
 820              	.LVL93:
 821 01c2 AA84     		mv	s1,a0
 822              	.LVL94:
 823              	.L40:
 276:C:/Users/stapi/OneDrive/Desktop/GD32VW553/V1_MQTT_OK/GD32VW55X_Wifi_BLE_SDK/GD32VW55x_RELEASE_V1.0.2/MSDK/wpa_supplicant/src/tls\tlsv1_client.c **** 		wpabuf_free(conn->partial_input);
 824              		.loc 1 276 2 is_stmt 1
 276:C:/Users/stapi/OneDrive/Desktop/GD32VW553/V1_MQTT_OK/GD32VW55X_Wifi_BLE_SDK/GD32VW55x_RELEASE_V1.0.2/MSDK/wpa_supplicant/src/tls\tlsv1_client.c **** 		wpabuf_free(conn->partial_input);
 825              		.loc 1 276 5 is_stmt 0
 826 01c4 63060A00 		beq	s4,zero,.L41
 276:C:/Users/stapi/OneDrive/Desktop/GD32VW553/V1_MQTT_OK/GD32VW55X_Wifi_BLE_SDK/GD32VW55x_RELEASE_V1.0.2/MSDK/wpa_supplicant/src/tls\tlsv1_client.c **** 		wpabuf_free(conn->partial_input);
 827              		.loc 1 276 29 discriminator 1
 828 01c8 83270A00 		lw	a5,0(s4)
 829 01cc E39707E6 		bne	a5,zero,.L21
 830              	.L41:
 277:C:/Users/stapi/OneDrive/Desktop/GD32VW553/V1_MQTT_OK/GD32VW55X_Wifi_BLE_SDK/GD32VW55x_RELEASE_V1.0.2/MSDK/wpa_supplicant/src/tls\tlsv1_client.c **** 		conn->partial_input = NULL;
 831              		.loc 1 277 3 is_stmt 1
 832 01d0 03254421 		lw	a0,532(s0)
 833 01d4 97000000 		call	wpabuf_free
 833      E7800000 
 834              	.LVL95:
 278:C:/Users/stapi/OneDrive/Desktop/GD32VW553/V1_MQTT_OK/GD32VW55X_Wifi_BLE_SDK/GD32VW55x_RELEASE_V1.0.2/MSDK/wpa_supplicant/src/tls\tlsv1_client.c **** 	}
 835              		.loc 1 278 3
 278:C:/Users/stapi/OneDrive/Desktop/GD32VW553/V1_MQTT_OK/GD32VW55X_Wifi_BLE_SDK/GD32VW55x_RELEASE_V1.0.2/MSDK/wpa_supplicant/src/tls\tlsv1_client.c **** 	}
 836              		.loc 1 278 23 is_stmt 0
 837 01dc 232A0420 		sw	zero,532(s0)
 838 01e0 A9BD     		j	.L21
 839              	.LVL96:
 840              	.L34:
 841              	.LBB65:
 230:C:/Users/stapi/OneDrive/Desktop/GD32VW553/V1_MQTT_OK/GD32VW55X_Wifi_BLE_SDK/GD32VW55x_RELEASE_V1.0.2/MSDK/wpa_supplicant/src/tls\tlsv1_client.c **** 			if (need_more_data)
 842              		.loc 1 230 4 is_stmt 1
 843 01e2 4A85     		mv	a0,s2
 844 01e4 97000000 		call	os_free
 844      E7800000 
 845              	.LVL97:
 231:C:/Users/stapi/OneDrive/Desktop/GD32VW553/V1_MQTT_OK/GD32VW55X_Wifi_BLE_SDK/GD32VW55x_RELEASE_V1.0.2/MSDK/wpa_supplicant/src/tls\tlsv1_client.c **** 				*need_more_data = 1;
 846              		.loc 1 231 4
 231:C:/Users/stapi/OneDrive/Desktop/GD32VW553/V1_MQTT_OK/GD32VW55X_Wifi_BLE_SDK/GD32VW55x_RELEASE_V1.0.2/MSDK/wpa_supplicant/src/tls\tlsv1_client.c **** 				*need_more_data = 1;
 847              		.loc 1 231 7 is_stmt 0
 848 01ec E30E0AE2 		beq	s4,zero,.L69
 232:C:/Users/stapi/OneDrive/Desktop/GD32VW553/V1_MQTT_OK/GD32VW55X_Wifi_BLE_SDK/GD32VW55x_RELEASE_V1.0.2/MSDK/wpa_supplicant/src/tls\tlsv1_client.c **** 			return NULL;
 849              		.loc 1 232 5 is_stmt 1
 232:C:/Users/stapi/OneDrive/Desktop/GD32VW553/V1_MQTT_OK/GD32VW55X_Wifi_BLE_SDK/GD32VW55x_RELEASE_V1.0.2/MSDK/wpa_supplicant/src/tls\tlsv1_client.c **** 			return NULL;
 850              		.loc 1 232 21 is_stmt 0
 851 01f0 8547     		li	a5,1
 852 01f2 2320FA00 		sw	a5,0(s4)
 853 01f6 0DBD     		j	.L69
 854              	.LVL98:
 855              	.L33:
 856              	.LBE65:
 235:C:/Users/stapi/OneDrive/Desktop/GD32VW553/V1_MQTT_OK/GD32VW55X_Wifi_BLE_SDK/GD32VW55x_RELEASE_V1.0.2/MSDK/wpa_supplicant/src/tls\tlsv1_client.c **** 
 857              		.loc 1 235 3 is_stmt 1
 238:C:/Users/stapi/OneDrive/Desktop/GD32VW553/V1_MQTT_OK/GD32VW55X_Wifi_BLE_SDK/GD32VW55x_RELEASE_V1.0.2/MSDK/wpa_supplicant/src/tls\tlsv1_client.c **** 
 858              		.loc 1 238 10 is_stmt 0
 859 01f8 7248     		lw	a6,28(sp)
 235:C:/Users/stapi/OneDrive/Desktop/GD32VW553/V1_MQTT_OK/GD32VW55X_Wifi_BLE_SDK/GD32VW55x_RELEASE_V1.0.2/MSDK/wpa_supplicant/src/tls\tlsv1_client.c **** 
 860              		.loc 1 235 6
 861 01fa 83C50400 		lbu	a1,0(s1)
 862              	.LVL99:
 237:C:/Users/stapi/OneDrive/Desktop/GD32VW553/V1_MQTT_OK/GD32VW55X_Wifi_BLE_SDK/GD32VW55x_RELEASE_V1.0.2/MSDK/wpa_supplicant/src/tls\tlsv1_client.c **** 		in_end = in_msg + in_msg_len;
 863              		.loc 1 237 3 is_stmt 1
 238:C:/Users/stapi/OneDrive/Desktop/GD32VW553/V1_MQTT_OK/GD32VW55X_Wifi_BLE_SDK/GD32VW55x_RELEASE_V1.0.2/MSDK/wpa_supplicant/src/tls\tlsv1_client.c **** 
 864              		.loc 1 238 3
 242:C:/Users/stapi/OneDrive/Desktop/GD32VW553/V1_MQTT_OK/GD32VW55X_Wifi_BLE_SDK/GD32VW55x_RELEASE_V1.0.2/MSDK/wpa_supplicant/src/tls\tlsv1_client.c **** 			in_msg_len = in_end - in_pos;
 865              		.loc 1 242 9 is_stmt 0
 866 01fe CA8D     		mv	s11,s2
 238:C:/Users/stapi/OneDrive/Desktop/GD32VW553/V1_MQTT_OK/GD32VW55X_Wifi_BLE_SDK/GD32VW55x_RELEASE_V1.0.2/MSDK/wpa_supplicant/src/tls\tlsv1_client.c **** 
 867              		.loc 1 238 10
 868 0200 4A98     		add	a6,s2,a6
 869              	.LVL100:
 242:C:/Users/stapi/OneDrive/Desktop/GD32VW553/V1_MQTT_OK/GD32VW55X_Wifi_BLE_SDK/GD32VW55x_RELEASE_V1.0.2/MSDK/wpa_supplicant/src/tls\tlsv1_client.c **** 			in_msg_len = in_end - in_pos;
 870              		.loc 1 242 3 is_stmt 1
 871              	.L35:
 242:C:/Users/stapi/OneDrive/Desktop/GD32VW553/V1_MQTT_OK/GD32VW55X_Wifi_BLE_SDK/GD32VW55x_RELEASE_V1.0.2/MSDK/wpa_supplicant/src/tls\tlsv1_client.c **** 			in_msg_len = in_end - in_pos;
 872              		.loc 1 242 9
 873 0202 63E40D01 		bltu	s11,a6,.L36
 252:C:/Users/stapi/OneDrive/Desktop/GD32VW553/V1_MQTT_OK/GD32VW55X_Wifi_BLE_SDK/GD32VW55x_RELEASE_V1.0.2/MSDK/wpa_supplicant/src/tls\tlsv1_client.c **** 	}
 874              		.loc 1 252 3
 252:C:/Users/stapi/OneDrive/Desktop/GD32VW553/V1_MQTT_OK/GD32VW55X_Wifi_BLE_SDK/GD32VW55x_RELEASE_V1.0.2/MSDK/wpa_supplicant/src/tls\tlsv1_client.c **** 	}
 875              		.loc 1 252 7 is_stmt 0
 876 0206 DE94     		add	s1,s1,s7
 877              	.LVL101:
 878 0208 65BD     		j	.L31
 879              	.L36:
 243:C:/Users/stapi/OneDrive/Desktop/GD32VW553/V1_MQTT_OK/GD32VW55X_Wifi_BLE_SDK/GD32VW55x_RELEASE_V1.0.2/MSDK/wpa_supplicant/src/tls\tlsv1_client.c **** 			if (tlsv1_client_process_handshake(conn, ct, in_pos,
 880              		.loc 1 243 4 is_stmt 1
 243:C:/Users/stapi/OneDrive/Desktop/GD32VW553/V1_MQTT_OK/GD32VW55X_Wifi_BLE_SDK/GD32VW55x_RELEASE_V1.0.2/MSDK/wpa_supplicant/src/tls\tlsv1_client.c **** 			if (tlsv1_client_process_handshake(conn, ct, in_pos,
 881              		.loc 1 243 24 is_stmt 0
 882 020a B307B841 		sub	a5,a6,s11
 243:C:/Users/stapi/OneDrive/Desktop/GD32VW553/V1_MQTT_OK/GD32VW55X_Wifi_BLE_SDK/GD32VW55x_RELEASE_V1.0.2/MSDK/wpa_supplicant/src/tls\tlsv1_client.c **** 			if (tlsv1_client_process_handshake(conn, ct, in_pos,
 883              		.loc 1 243 15
 884 020e 3ECE     		sw	a5,28(sp)
 244:C:/Users/stapi/OneDrive/Desktop/GD32VW553/V1_MQTT_OK/GD32VW55X_Wifi_BLE_SDK/GD32VW55x_RELEASE_V1.0.2/MSDK/wpa_supplicant/src/tls\tlsv1_client.c **** 							   &in_msg_len,
 885              		.loc 1 244 4 is_stmt 1
 244:C:/Users/stapi/OneDrive/Desktop/GD32VW553/V1_MQTT_OK/GD32VW55X_Wifi_BLE_SDK/GD32VW55x_RELEASE_V1.0.2/MSDK/wpa_supplicant/src/tls\tlsv1_client.c **** 							   &in_msg_len,
 886              		.loc 1 244 8 is_stmt 0
 887 0210 5A87     		mv	a4,s6
 888 0212 E287     		mv	a5,s8
 889 0214 7408     		addi	a3,sp,28
 890 0216 6E86     		mv	a2,s11
 891 0218 2285     		mv	a0,s0
 243:C:/Users/stapi/OneDrive/Desktop/GD32VW553/V1_MQTT_OK/GD32VW55X_Wifi_BLE_SDK/GD32VW55x_RELEASE_V1.0.2/MSDK/wpa_supplicant/src/tls\tlsv1_client.c **** 			if (tlsv1_client_process_handshake(conn, ct, in_pos,
 892              		.loc 1 243 24
 893 021a 42C6     		sw	a6,12(sp)
 244:C:/Users/stapi/OneDrive/Desktop/GD32VW553/V1_MQTT_OK/GD32VW55X_Wifi_BLE_SDK/GD32VW55x_RELEASE_V1.0.2/MSDK/wpa_supplicant/src/tls\tlsv1_client.c **** 							   &in_msg_len,
 894              		.loc 1 244 8
 895 021c 2EC4     		sw	a1,8(sp)
 896 021e 97000000 		call	tlsv1_client_process_handshake
 896      E7800000 
 897              	.LVL102:
 244:C:/Users/stapi/OneDrive/Desktop/GD32VW553/V1_MQTT_OK/GD32VW55X_Wifi_BLE_SDK/GD32VW55x_RELEASE_V1.0.2/MSDK/wpa_supplicant/src/tls\tlsv1_client.c **** 							   &in_msg_len,
 898              		.loc 1 244 7
 899 0226 E34A05E4 		blt	a0,zero,.L42
 249:C:/Users/stapi/OneDrive/Desktop/GD32VW553/V1_MQTT_OK/GD32VW55X_Wifi_BLE_SDK/GD32VW55x_RELEASE_V1.0.2/MSDK/wpa_supplicant/src/tls\tlsv1_client.c **** 		}
 900              		.loc 1 249 4 is_stmt 1
 249:C:/Users/stapi/OneDrive/Desktop/GD32VW553/V1_MQTT_OK/GD32VW55X_Wifi_BLE_SDK/GD32VW55x_RELEASE_V1.0.2/MSDK/wpa_supplicant/src/tls\tlsv1_client.c **** 		}
 901              		.loc 1 249 11 is_stmt 0
 902 022a F247     		lw	a5,28(sp)
 903 022c 3248     		lw	a6,12(sp)
 904 022e A245     		lw	a1,8(sp)
 905 0230 BE9D     		add	s11,s11,a5
 906              	.LVL103:
 907 0232 C1BF     		j	.L35
 908              	.LVL104:
 909              	.L39:
 271:C:/Users/stapi/OneDrive/Desktop/GD32VW553/V1_MQTT_OK/GD32VW55X_Wifi_BLE_SDK/GD32VW55x_RELEASE_V1.0.2/MSDK/wpa_supplicant/src/tls\tlsv1_client.c **** 		msg = os_zalloc(1);
 910              		.loc 1 271 9 is_stmt 1
 271:C:/Users/stapi/OneDrive/Desktop/GD32VW553/V1_MQTT_OK/GD32VW55X_Wifi_BLE_SDK/GD32VW55x_RELEASE_V1.0.2/MSDK/wpa_supplicant/src/tls\tlsv1_client.c **** 		msg = os_zalloc(1);
 911              		.loc 1 271 12 is_stmt 0
 912 0234 C1F8     		bne	s1,zero,.L40
 272:C:/Users/stapi/OneDrive/Desktop/GD32VW553/V1_MQTT_OK/GD32VW55X_Wifi_BLE_SDK/GD32VW55x_RELEASE_V1.0.2/MSDK/wpa_supplicant/src/tls\tlsv1_client.c **** 		*out_len = 0;
 913              		.loc 1 272 3 is_stmt 1
 272:C:/Users/stapi/OneDrive/Desktop/GD32VW553/V1_MQTT_OK/GD32VW55X_Wifi_BLE_SDK/GD32VW55x_RELEASE_V1.0.2/MSDK/wpa_supplicant/src/tls\tlsv1_client.c **** 		*out_len = 0;
 914              		.loc 1 272 9 is_stmt 0
 915 0236 0545     		li	a0,1
 916 0238 97000000 		call	os_zalloc
 916      E7800000 
 917              	.LVL105:
 918 0240 AA84     		mv	s1,a0
 919              	.LVL106:
 273:C:/Users/stapi/OneDrive/Desktop/GD32VW553/V1_MQTT_OK/GD32VW55X_Wifi_BLE_SDK/GD32VW55x_RELEASE_V1.0.2/MSDK/wpa_supplicant/src/tls\tlsv1_client.c **** 	}
 920              		.loc 1 273 3 is_stmt 1
 273:C:/Users/stapi/OneDrive/Desktop/GD32VW553/V1_MQTT_OK/GD32VW55X_Wifi_BLE_SDK/GD32VW55x_RELEASE_V1.0.2/MSDK/wpa_supplicant/src/tls\tlsv1_client.c **** 	}
 921              		.loc 1 273 12 is_stmt 0
 922 0242 23A00A00 		sw	zero,0(s5)
 923 0246 BDBF     		j	.L40
 924              		.cfi_endproc
 925              	.LFE91:
 927              		.section	.rodata.tlsv1_client_encrypt.str1.4,"aMS",@progbits,1
 928              		.align	2
 929              	.LC10:
 930 0000 544C5376 		.string	"TLSv1: Plaintext AppData"
 930      313A2050 
 930      6C61696E 
 930      74657874 
 930      20417070 
 931 0019 000000   		.align	2
 932              	.LC11:
 933 001c 544C5376 		.string	"TLSv1: Failed to create a record"
 933      313A2046 
 933      61696C65 
 933      6420746F 
 933      20637265 
 934              		.section	.text.tlsv1_client_encrypt,"ax",@progbits
 935              		.align	1
 936              		.globl	tlsv1_client_encrypt
 938              	tlsv1_client_encrypt:
 939              	.LFB92:
 283:C:/Users/stapi/OneDrive/Desktop/GD32VW553/V1_MQTT_OK/GD32VW55X_Wifi_BLE_SDK/GD32VW55x_RELEASE_V1.0.2/MSDK/wpa_supplicant/src/tls\tlsv1_client.c **** 
 284:C:/Users/stapi/OneDrive/Desktop/GD32VW553/V1_MQTT_OK/GD32VW55X_Wifi_BLE_SDK/GD32VW55x_RELEASE_V1.0.2/MSDK/wpa_supplicant/src/tls\tlsv1_client.c **** 
 285:C:/Users/stapi/OneDrive/Desktop/GD32VW553/V1_MQTT_OK/GD32VW55X_Wifi_BLE_SDK/GD32VW55x_RELEASE_V1.0.2/MSDK/wpa_supplicant/src/tls\tlsv1_client.c **** /**
 286:C:/Users/stapi/OneDrive/Desktop/GD32VW553/V1_MQTT_OK/GD32VW55X_Wifi_BLE_SDK/GD32VW55x_RELEASE_V1.0.2/MSDK/wpa_supplicant/src/tls\tlsv1_client.c ****  * tlsv1_client_encrypt - Encrypt data into TLS tunnel
 287:C:/Users/stapi/OneDrive/Desktop/GD32VW553/V1_MQTT_OK/GD32VW55X_Wifi_BLE_SDK/GD32VW55x_RELEASE_V1.0.2/MSDK/wpa_supplicant/src/tls\tlsv1_client.c ****  * @conn: TLSv1 client connection data from tlsv1_client_init()
 288:C:/Users/stapi/OneDrive/Desktop/GD32VW553/V1_MQTT_OK/GD32VW55X_Wifi_BLE_SDK/GD32VW55x_RELEASE_V1.0.2/MSDK/wpa_supplicant/src/tls\tlsv1_client.c ****  * @in_data: Pointer to plaintext data to be encrypted
 289:C:/Users/stapi/OneDrive/Desktop/GD32VW553/V1_MQTT_OK/GD32VW55X_Wifi_BLE_SDK/GD32VW55x_RELEASE_V1.0.2/MSDK/wpa_supplicant/src/tls\tlsv1_client.c ****  * @in_len: Input buffer length
 290:C:/Users/stapi/OneDrive/Desktop/GD32VW553/V1_MQTT_OK/GD32VW55X_Wifi_BLE_SDK/GD32VW55x_RELEASE_V1.0.2/MSDK/wpa_supplicant/src/tls\tlsv1_client.c ****  * @out_data: Pointer to output buffer (encrypted TLS data)
 291:C:/Users/stapi/OneDrive/Desktop/GD32VW553/V1_MQTT_OK/GD32VW55X_Wifi_BLE_SDK/GD32VW55x_RELEASE_V1.0.2/MSDK/wpa_supplicant/src/tls\tlsv1_client.c ****  * @out_len: Maximum out_data length
 292:C:/Users/stapi/OneDrive/Desktop/GD32VW553/V1_MQTT_OK/GD32VW55X_Wifi_BLE_SDK/GD32VW55x_RELEASE_V1.0.2/MSDK/wpa_supplicant/src/tls\tlsv1_client.c ****  * Returns: Number of bytes written to out_data, -1 on failure
 293:C:/Users/stapi/OneDrive/Desktop/GD32VW553/V1_MQTT_OK/GD32VW55X_Wifi_BLE_SDK/GD32VW55x_RELEASE_V1.0.2/MSDK/wpa_supplicant/src/tls\tlsv1_client.c ****  *
 294:C:/Users/stapi/OneDrive/Desktop/GD32VW553/V1_MQTT_OK/GD32VW55X_Wifi_BLE_SDK/GD32VW55x_RELEASE_V1.0.2/MSDK/wpa_supplicant/src/tls\tlsv1_client.c ****  * This function is used after TLS handshake has been completed successfully to
 295:C:/Users/stapi/OneDrive/Desktop/GD32VW553/V1_MQTT_OK/GD32VW55X_Wifi_BLE_SDK/GD32VW55x_RELEASE_V1.0.2/MSDK/wpa_supplicant/src/tls\tlsv1_client.c ****  * send data in the encrypted tunnel.
 296:C:/Users/stapi/OneDrive/Desktop/GD32VW553/V1_MQTT_OK/GD32VW55X_Wifi_BLE_SDK/GD32VW55x_RELEASE_V1.0.2/MSDK/wpa_supplicant/src/tls\tlsv1_client.c ****  */
 297:C:/Users/stapi/OneDrive/Desktop/GD32VW553/V1_MQTT_OK/GD32VW55X_Wifi_BLE_SDK/GD32VW55x_RELEASE_V1.0.2/MSDK/wpa_supplicant/src/tls\tlsv1_client.c **** int tlsv1_client_encrypt(struct tlsv1_client *conn,
 298:C:/Users/stapi/OneDrive/Desktop/GD32VW553/V1_MQTT_OK/GD32VW55X_Wifi_BLE_SDK/GD32VW55x_RELEASE_V1.0.2/MSDK/wpa_supplicant/src/tls\tlsv1_client.c **** 			 const u8 *in_data, size_t in_len,
 299:C:/Users/stapi/OneDrive/Desktop/GD32VW553/V1_MQTT_OK/GD32VW55X_Wifi_BLE_SDK/GD32VW55x_RELEASE_V1.0.2/MSDK/wpa_supplicant/src/tls\tlsv1_client.c **** 			 u8 *out_data, size_t out_len)
 300:C:/Users/stapi/OneDrive/Desktop/GD32VW553/V1_MQTT_OK/GD32VW55X_Wifi_BLE_SDK/GD32VW55x_RELEASE_V1.0.2/MSDK/wpa_supplicant/src/tls\tlsv1_client.c **** {
 940              		.loc 1 300 1 is_stmt 1
 941              		.cfi_startproc
 942              	.LVL107:
 943 0000 17030000 		call	t0,__riscv_save_4
 943      E7020300 
 944              		.cfi_offset 19, -20
 945              		.cfi_offset 18, -16
 946              		.cfi_offset 9, -12
 947              		.cfi_offset 8, -8
 948              		.cfi_offset 1, -4
 949              		.cfi_def_cfa_offset 32
 301:C:/Users/stapi/OneDrive/Desktop/GD32VW553/V1_MQTT_OK/GD32VW55X_Wifi_BLE_SDK/GD32VW55x_RELEASE_V1.0.2/MSDK/wpa_supplicant/src/tls\tlsv1_client.c **** 	size_t rlen;
 950              		.loc 1 301 2
 302:C:/Users/stapi/OneDrive/Desktop/GD32VW553/V1_MQTT_OK/GD32VW55X_Wifi_BLE_SDK/GD32VW55x_RELEASE_V1.0.2/MSDK/wpa_supplicant/src/tls\tlsv1_client.c **** 
 303:C:/Users/stapi/OneDrive/Desktop/GD32VW553/V1_MQTT_OK/GD32VW55X_Wifi_BLE_SDK/GD32VW55x_RELEASE_V1.0.2/MSDK/wpa_supplicant/src/tls\tlsv1_client.c **** 	wpa_hexdump_key(MSG_MSGDUMP, "TLSv1: Plaintext AppData",
 951              		.loc 1 303 2
 300:C:/Users/stapi/OneDrive/Desktop/GD32VW553/V1_MQTT_OK/GD32VW55X_Wifi_BLE_SDK/GD32VW55x_RELEASE_V1.0.2/MSDK/wpa_supplicant/src/tls\tlsv1_client.c **** 	size_t rlen;
 952              		.loc 1 300 1 is_stmt 0
 953 0008 0111     		addi	sp,sp,-32
 954              		.cfi_def_cfa_offset 64
 300:C:/Users/stapi/OneDrive/Desktop/GD32VW553/V1_MQTT_OK/GD32VW55X_Wifi_BLE_SDK/GD32VW55x_RELEASE_V1.0.2/MSDK/wpa_supplicant/src/tls\tlsv1_client.c **** 	size_t rlen;
 955              		.loc 1 300 1
 956 000a AE84     		mv	s1,a1
 957 000c 3689     		mv	s2,a3
 958              		.loc 1 303 2
 959 000e 32C6     		sw	a2,12(sp)
 960 0010 B286     		mv	a3,a2
 961              	.LVL108:
 962 0012 2E86     		mv	a2,a1
 963              	.LVL109:
 964 0014 B7050000 		lui	a1,%hi(.LC10)
 965              	.LVL110:
 300:C:/Users/stapi/OneDrive/Desktop/GD32VW553/V1_MQTT_OK/GD32VW55X_Wifi_BLE_SDK/GD32VW55x_RELEASE_V1.0.2/MSDK/wpa_supplicant/src/tls\tlsv1_client.c **** 	size_t rlen;
 966              		.loc 1 300 1
 967 0018 2A84     		mv	s0,a0
 968              		.loc 1 303 2
 969 001a 93850500 		addi	a1,a1,%lo(.LC10)
 970 001e 0545     		li	a0,1
 971              	.LVL111:
 300:C:/Users/stapi/OneDrive/Desktop/GD32VW553/V1_MQTT_OK/GD32VW55X_Wifi_BLE_SDK/GD32VW55x_RELEASE_V1.0.2/MSDK/wpa_supplicant/src/tls\tlsv1_client.c **** 	size_t rlen;
 972              		.loc 1 300 1
 973 0020 BA89     		mv	s3,a4
 974              		.loc 1 303 2
 975 0022 97000000 		call	wpa_hexdump_key
 975      E7800000 
 976              	.LVL112:
 304:C:/Users/stapi/OneDrive/Desktop/GD32VW553/V1_MQTT_OK/GD32VW55X_Wifi_BLE_SDK/GD32VW55x_RELEASE_V1.0.2/MSDK/wpa_supplicant/src/tls\tlsv1_client.c **** 			in_data, in_len);
 305:C:/Users/stapi/OneDrive/Desktop/GD32VW553/V1_MQTT_OK/GD32VW55X_Wifi_BLE_SDK/GD32VW55x_RELEASE_V1.0.2/MSDK/wpa_supplicant/src/tls\tlsv1_client.c **** 
 306:C:/Users/stapi/OneDrive/Desktop/GD32VW553/V1_MQTT_OK/GD32VW55X_Wifi_BLE_SDK/GD32VW55x_RELEASE_V1.0.2/MSDK/wpa_supplicant/src/tls\tlsv1_client.c **** 	if (tlsv1_record_send(&conn->rl, TLS_CONTENT_TYPE_APPLICATION_DATA,
 977              		.loc 1 306 2 is_stmt 1
 978              		.loc 1 306 6 is_stmt 0
 979 002a B247     		lw	a5,12(sp)
 980 002c 1308C101 		addi	a6,sp,28
 981 0030 2687     		mv	a4,s1
 982 0032 CE86     		mv	a3,s3
 983 0034 4A86     		mv	a2,s2
 984 0036 DD45     		li	a1,23
 985 0038 13054400 		addi	a0,s0,4
 986 003c 97000000 		call	tlsv1_record_send
 986      E7800000 
 987              	.LVL113:
 988              		.loc 1 306 5
 989 0044 63550502 		bge	a0,zero,.L71
 307:C:/Users/stapi/OneDrive/Desktop/GD32VW553/V1_MQTT_OK/GD32VW55X_Wifi_BLE_SDK/GD32VW55x_RELEASE_V1.0.2/MSDK/wpa_supplicant/src/tls\tlsv1_client.c **** 			      out_data, out_len, in_data, in_len, &rlen) < 0) {
 308:C:/Users/stapi/OneDrive/Desktop/GD32VW553/V1_MQTT_OK/GD32VW55X_Wifi_BLE_SDK/GD32VW55x_RELEASE_V1.0.2/MSDK/wpa_supplicant/src/tls\tlsv1_client.c **** 		wpa_printf(MSG_DEBUG, "TLSv1: Failed to create a record");
 990              		.loc 1 308 3 is_stmt 1
 991 0048 B7050000 		lui	a1,%hi(.LC11)
 992 004c 0945     		li	a0,2
 993 004e 93850500 		addi	a1,a1,%lo(.LC11)
 994 0052 97000000 		call	wpa_printf
 994      E7800000 
 995              	.LVL114:
 309:C:/Users/stapi/OneDrive/Desktop/GD32VW553/V1_MQTT_OK/GD32VW55X_Wifi_BLE_SDK/GD32VW55x_RELEASE_V1.0.2/MSDK/wpa_supplicant/src/tls\tlsv1_client.c **** 		tls_alert(conn, TLS_ALERT_LEVEL_FATAL,
 996              		.loc 1 309 3
 997              	.LBB66:
 998              	.LBB67:
  27:C:/Users/stapi/OneDrive/Desktop/GD32VW553/V1_MQTT_OK/GD32VW55X_Wifi_BLE_SDK/GD32VW55x_RELEASE_V1.0.2/MSDK/wpa_supplicant/src/tls\tlsv1_client.c **** 	conn->alert_description = description;
 999              		.loc 1 27 2
  28:C:/Users/stapi/OneDrive/Desktop/GD32VW553/V1_MQTT_OK/GD32VW55X_Wifi_BLE_SDK/GD32VW55x_RELEASE_V1.0.2/MSDK/wpa_supplicant/src/tls\tlsv1_client.c **** }
 1000              		.loc 1 28 2
  27:C:/Users/stapi/OneDrive/Desktop/GD32VW553/V1_MQTT_OK/GD32VW55X_Wifi_BLE_SDK/GD32VW55x_RELEASE_V1.0.2/MSDK/wpa_supplicant/src/tls\tlsv1_client.c **** 	conn->alert_description = description;
 1001              		.loc 1 27 20 is_stmt 0
 1002 005a 9567     		li	a5,20480
 1003 005c 8907     		addi	a5,a5,2
 1004 005e 2318F416 		sh	a5,368(s0)
 1005              	.LVL115:
 1006              	.LBE67:
 1007              	.LBE66:
 310:C:/Users/stapi/OneDrive/Desktop/GD32VW553/V1_MQTT_OK/GD32VW55X_Wifi_BLE_SDK/GD32VW55x_RELEASE_V1.0.2/MSDK/wpa_supplicant/src/tls\tlsv1_client.c **** 			  TLS_ALERT_INTERNAL_ERROR);
 311:C:/Users/stapi/OneDrive/Desktop/GD32VW553/V1_MQTT_OK/GD32VW55X_Wifi_BLE_SDK/GD32VW55x_RELEASE_V1.0.2/MSDK/wpa_supplicant/src/tls\tlsv1_client.c **** 		return -1;
 1008              		.loc 1 311 3 is_stmt 1
 1009              		.loc 1 311 10 is_stmt 0
 1010 0062 7D55     		li	a0,-1
 1011              	.L70:
 312:C:/Users/stapi/OneDrive/Desktop/GD32VW553/V1_MQTT_OK/GD32VW55X_Wifi_BLE_SDK/GD32VW55x_RELEASE_V1.0.2/MSDK/wpa_supplicant/src/tls\tlsv1_client.c **** 	}
 313:C:/Users/stapi/OneDrive/Desktop/GD32VW553/V1_MQTT_OK/GD32VW55X_Wifi_BLE_SDK/GD32VW55x_RELEASE_V1.0.2/MSDK/wpa_supplicant/src/tls\tlsv1_client.c **** 
 314:C:/Users/stapi/OneDrive/Desktop/GD32VW553/V1_MQTT_OK/GD32VW55X_Wifi_BLE_SDK/GD32VW55x_RELEASE_V1.0.2/MSDK/wpa_supplicant/src/tls\tlsv1_client.c **** 	return rlen;
 315:C:/Users/stapi/OneDrive/Desktop/GD32VW553/V1_MQTT_OK/GD32VW55X_Wifi_BLE_SDK/GD32VW55x_RELEASE_V1.0.2/MSDK/wpa_supplicant/src/tls\tlsv1_client.c **** }
 1012              		.loc 1 315 1
 1013 0064 0561     		addi	sp,sp,32
 1014              		.cfi_remember_state
 1015              		.cfi_def_cfa_offset 0
 1016              	.LVL116:
 1017 0066 17030000 		tail	__riscv_restore_4
 1017      67000300 
 1018              		.cfi_restore 19
 1019              		.cfi_restore 18
 1020              		.cfi_restore 9
 1021              		.cfi_restore 8
 1022              		.cfi_restore 1
 1023              		.cfi_def_cfa_offset -32
 1024              	.LVL117:
 1025              	.L71:
 1026              		.cfi_restore_state
 314:C:/Users/stapi/OneDrive/Desktop/GD32VW553/V1_MQTT_OK/GD32VW55X_Wifi_BLE_SDK/GD32VW55x_RELEASE_V1.0.2/MSDK/wpa_supplicant/src/tls\tlsv1_client.c **** }
 1027              		.loc 1 314 2 is_stmt 1
 314:C:/Users/stapi/OneDrive/Desktop/GD32VW553/V1_MQTT_OK/GD32VW55X_Wifi_BLE_SDK/GD32VW55x_RELEASE_V1.0.2/MSDK/wpa_supplicant/src/tls\tlsv1_client.c **** }
 1028              		.loc 1 314 9 is_stmt 0
 1029 006e 7245     		lw	a0,28(sp)
 1030 0070 D5BF     		j	.L70
 1031              		.cfi_endproc
 1032              	.LFE92:
 1034              		.section	.rodata.tlsv1_client_decrypt.str1.4,"aMS",@progbits,1
 1035              		.align	2
 1036              	.LC12:
 1037 0000 544C5376 		.string	"TLSv1: Record layer processing failed"
 1037      313A2052 
 1037      65636F72 
 1037      64206C61 
 1037      79657220 
 1038 0026 0000     		.align	2
 1039              	.LC13:
 1040 0028 544C5376 		.string	"TLSv1: Alert underflow"
 1040      313A2041 
 1040      6C657274 
 1040      20756E64 
 1040      6572666C 
 1041 003f 00       		.align	2
 1042              	.LC14:
 1043 0040 544C5376 		.string	"TLSv1: Received alert %d:%d"
 1043      313A2052 
 1043      65636569 
 1043      76656420 
 1043      616C6572 
 1044              		.align	2
 1045              	.LC15:
 1046 005c 544C5376 		.string	"TLSv1: Unexpected content type 0x%x when decrypting application data"
 1046      313A2055 
 1046      6E657870 
 1046      65637465 
 1046      6420636F 
 1047              		.section	.text.tlsv1_client_decrypt,"ax",@progbits
 1048              		.align	1
 1049              		.globl	tlsv1_client_decrypt
 1051              	tlsv1_client_decrypt:
 1052              	.LFB93:
 316:C:/Users/stapi/OneDrive/Desktop/GD32VW553/V1_MQTT_OK/GD32VW55X_Wifi_BLE_SDK/GD32VW55x_RELEASE_V1.0.2/MSDK/wpa_supplicant/src/tls\tlsv1_client.c **** 
 317:C:/Users/stapi/OneDrive/Desktop/GD32VW553/V1_MQTT_OK/GD32VW55X_Wifi_BLE_SDK/GD32VW55x_RELEASE_V1.0.2/MSDK/wpa_supplicant/src/tls\tlsv1_client.c **** 
 318:C:/Users/stapi/OneDrive/Desktop/GD32VW553/V1_MQTT_OK/GD32VW55X_Wifi_BLE_SDK/GD32VW55x_RELEASE_V1.0.2/MSDK/wpa_supplicant/src/tls\tlsv1_client.c **** /**
 319:C:/Users/stapi/OneDrive/Desktop/GD32VW553/V1_MQTT_OK/GD32VW55X_Wifi_BLE_SDK/GD32VW55x_RELEASE_V1.0.2/MSDK/wpa_supplicant/src/tls\tlsv1_client.c ****  * tlsv1_client_decrypt - Decrypt data from TLS tunnel
 320:C:/Users/stapi/OneDrive/Desktop/GD32VW553/V1_MQTT_OK/GD32VW55X_Wifi_BLE_SDK/GD32VW55x_RELEASE_V1.0.2/MSDK/wpa_supplicant/src/tls\tlsv1_client.c ****  * @conn: TLSv1 client connection data from tlsv1_client_init()
 321:C:/Users/stapi/OneDrive/Desktop/GD32VW553/V1_MQTT_OK/GD32VW55X_Wifi_BLE_SDK/GD32VW55x_RELEASE_V1.0.2/MSDK/wpa_supplicant/src/tls\tlsv1_client.c ****  * @in_data: Pointer to input buffer (encrypted TLS data)
 322:C:/Users/stapi/OneDrive/Desktop/GD32VW553/V1_MQTT_OK/GD32VW55X_Wifi_BLE_SDK/GD32VW55x_RELEASE_V1.0.2/MSDK/wpa_supplicant/src/tls\tlsv1_client.c ****  * @in_len: Input buffer length
 323:C:/Users/stapi/OneDrive/Desktop/GD32VW553/V1_MQTT_OK/GD32VW55X_Wifi_BLE_SDK/GD32VW55x_RELEASE_V1.0.2/MSDK/wpa_supplicant/src/tls\tlsv1_client.c ****  * @need_more_data: Set to 1 if more data would be needed to complete
 324:C:/Users/stapi/OneDrive/Desktop/GD32VW553/V1_MQTT_OK/GD32VW55X_Wifi_BLE_SDK/GD32VW55x_RELEASE_V1.0.2/MSDK/wpa_supplicant/src/tls\tlsv1_client.c ****  *	processing
 325:C:/Users/stapi/OneDrive/Desktop/GD32VW553/V1_MQTT_OK/GD32VW55X_Wifi_BLE_SDK/GD32VW55x_RELEASE_V1.0.2/MSDK/wpa_supplicant/src/tls\tlsv1_client.c ****  * Returns: Decrypted data or %NULL on failure
 326:C:/Users/stapi/OneDrive/Desktop/GD32VW553/V1_MQTT_OK/GD32VW55X_Wifi_BLE_SDK/GD32VW55x_RELEASE_V1.0.2/MSDK/wpa_supplicant/src/tls\tlsv1_client.c ****  *
 327:C:/Users/stapi/OneDrive/Desktop/GD32VW553/V1_MQTT_OK/GD32VW55X_Wifi_BLE_SDK/GD32VW55x_RELEASE_V1.0.2/MSDK/wpa_supplicant/src/tls\tlsv1_client.c ****  * This function is used after TLS handshake has been completed successfully to
 328:C:/Users/stapi/OneDrive/Desktop/GD32VW553/V1_MQTT_OK/GD32VW55X_Wifi_BLE_SDK/GD32VW55x_RELEASE_V1.0.2/MSDK/wpa_supplicant/src/tls\tlsv1_client.c ****  * receive data from the encrypted tunnel.
 329:C:/Users/stapi/OneDrive/Desktop/GD32VW553/V1_MQTT_OK/GD32VW55X_Wifi_BLE_SDK/GD32VW55x_RELEASE_V1.0.2/MSDK/wpa_supplicant/src/tls\tlsv1_client.c ****  */
 330:C:/Users/stapi/OneDrive/Desktop/GD32VW553/V1_MQTT_OK/GD32VW55X_Wifi_BLE_SDK/GD32VW55x_RELEASE_V1.0.2/MSDK/wpa_supplicant/src/tls\tlsv1_client.c **** struct wpabuf * tlsv1_client_decrypt(struct tlsv1_client *conn,
 331:C:/Users/stapi/OneDrive/Desktop/GD32VW553/V1_MQTT_OK/GD32VW55X_Wifi_BLE_SDK/GD32VW55x_RELEASE_V1.0.2/MSDK/wpa_supplicant/src/tls\tlsv1_client.c **** 				     const u8 *in_data, size_t in_len,
 332:C:/Users/stapi/OneDrive/Desktop/GD32VW553/V1_MQTT_OK/GD32VW55X_Wifi_BLE_SDK/GD32VW55x_RELEASE_V1.0.2/MSDK/wpa_supplicant/src/tls\tlsv1_client.c **** 				     int *need_more_data)
 333:C:/Users/stapi/OneDrive/Desktop/GD32VW553/V1_MQTT_OK/GD32VW55X_Wifi_BLE_SDK/GD32VW55x_RELEASE_V1.0.2/MSDK/wpa_supplicant/src/tls\tlsv1_client.c **** {
 1053              		.loc 1 333 1 is_stmt 1
 1054              		.cfi_startproc
 1055              	.LVL118:
 1056 0000 17030000 		call	t0,__riscv_save_12
 1056      E7020300 
 1057              		.cfi_offset 27, -52
 1058              		.cfi_offset 26, -48
 1059              		.cfi_offset 25, -44
 1060              		.cfi_offset 24, -40
 1061              		.cfi_offset 23, -36
 1062              		.cfi_offset 22, -32
 1063              		.cfi_offset 21, -28
 1064              		.cfi_offset 20, -24
 1065              		.cfi_offset 19, -20
 1066              		.cfi_offset 18, -16
 1067              		.cfi_offset 9, -12
 1068              		.cfi_offset 8, -8
 1069              		.cfi_offset 1, -4
 1070              		.cfi_def_cfa_offset 64
 334:C:/Users/stapi/OneDrive/Desktop/GD32VW553/V1_MQTT_OK/GD32VW55X_Wifi_BLE_SDK/GD32VW55x_RELEASE_V1.0.2/MSDK/wpa_supplicant/src/tls\tlsv1_client.c **** 	const u8 *in_end, *pos;
 1071              		.loc 1 334 2
 335:C:/Users/stapi/OneDrive/Desktop/GD32VW553/V1_MQTT_OK/GD32VW55X_Wifi_BLE_SDK/GD32VW55x_RELEASE_V1.0.2/MSDK/wpa_supplicant/src/tls\tlsv1_client.c **** 	int used;
 1072              		.loc 1 335 2
 336:C:/Users/stapi/OneDrive/Desktop/GD32VW553/V1_MQTT_OK/GD32VW55X_Wifi_BLE_SDK/GD32VW55x_RELEASE_V1.0.2/MSDK/wpa_supplicant/src/tls\tlsv1_client.c **** 	u8 alert, *out_pos, ct;
 1073              		.loc 1 336 2
 337:C:/Users/stapi/OneDrive/Desktop/GD32VW553/V1_MQTT_OK/GD32VW55X_Wifi_BLE_SDK/GD32VW55x_RELEASE_V1.0.2/MSDK/wpa_supplicant/src/tls\tlsv1_client.c **** 	size_t olen;
 1074              		.loc 1 337 2
 338:C:/Users/stapi/OneDrive/Desktop/GD32VW553/V1_MQTT_OK/GD32VW55X_Wifi_BLE_SDK/GD32VW55x_RELEASE_V1.0.2/MSDK/wpa_supplicant/src/tls\tlsv1_client.c **** 	struct wpabuf *buf = NULL;
 1075              		.loc 1 338 2
 333:C:/Users/stapi/OneDrive/Desktop/GD32VW553/V1_MQTT_OK/GD32VW55X_Wifi_BLE_SDK/GD32VW55x_RELEASE_V1.0.2/MSDK/wpa_supplicant/src/tls\tlsv1_client.c **** 	const u8 *in_end, *pos;
 1076              		.loc 1 333 1 is_stmt 0
 1077 0008 0111     		addi	sp,sp,-32
 1078              		.cfi_def_cfa_offset 96
 1079              		.loc 1 338 17
 1080 000a 02CE     		sw	zero,28(sp)
 339:C:/Users/stapi/OneDrive/Desktop/GD32VW553/V1_MQTT_OK/GD32VW55X_Wifi_BLE_SDK/GD32VW55x_RELEASE_V1.0.2/MSDK/wpa_supplicant/src/tls\tlsv1_client.c **** 
 340:C:/Users/stapi/OneDrive/Desktop/GD32VW553/V1_MQTT_OK/GD32VW55X_Wifi_BLE_SDK/GD32VW55x_RELEASE_V1.0.2/MSDK/wpa_supplicant/src/tls\tlsv1_client.c **** 	if (need_more_data)
 1081              		.loc 1 340 2 is_stmt 1
 333:C:/Users/stapi/OneDrive/Desktop/GD32VW553/V1_MQTT_OK/GD32VW55X_Wifi_BLE_SDK/GD32VW55x_RELEASE_V1.0.2/MSDK/wpa_supplicant/src/tls\tlsv1_client.c **** 	const u8 *in_end, *pos;
 1082              		.loc 1 333 1 is_stmt 0
 1083 000c AA84     		mv	s1,a0
 1084 000e 2E84     		mv	s0,a1
 1085 0010 3289     		mv	s2,a2
 1086 0012 368A     		mv	s4,a3
 1087              		.loc 1 340 5
 1088 0014 99C2     		beq	a3,zero,.L75
 341:C:/Users/stapi/OneDrive/Desktop/GD32VW553/V1_MQTT_OK/GD32VW55X_Wifi_BLE_SDK/GD32VW55x_RELEASE_V1.0.2/MSDK/wpa_supplicant/src/tls\tlsv1_client.c **** 		*need_more_data = 0;
 1089              		.loc 1 341 3 is_stmt 1
 1090              		.loc 1 341 19 is_stmt 0
 1091 0016 23A00600 		sw	zero,0(a3)
 1092              	.L75:
 342:C:/Users/stapi/OneDrive/Desktop/GD32VW553/V1_MQTT_OK/GD32VW55X_Wifi_BLE_SDK/GD32VW55x_RELEASE_V1.0.2/MSDK/wpa_supplicant/src/tls\tlsv1_client.c **** 
 343:C:/Users/stapi/OneDrive/Desktop/GD32VW553/V1_MQTT_OK/GD32VW55X_Wifi_BLE_SDK/GD32VW55x_RELEASE_V1.0.2/MSDK/wpa_supplicant/src/tls\tlsv1_client.c **** 	if (conn->partial_input) {
 1093              		.loc 1 343 2 is_stmt 1
 1094              		.loc 1 343 5 is_stmt 0
 1095 001a 83A74421 		lw	a5,532(s1)
 1096 001e B9CB     		beq	a5,zero,.L76
 344:C:/Users/stapi/OneDrive/Desktop/GD32VW553/V1_MQTT_OK/GD32VW55X_Wifi_BLE_SDK/GD32VW55x_RELEASE_V1.0.2/MSDK/wpa_supplicant/src/tls\tlsv1_client.c **** 		if (wpabuf_resize(&conn->partial_input, in_len) < 0) {
 1097              		.loc 1 344 3 is_stmt 1
 1098              		.loc 1 344 7 is_stmt 0
 1099 0020 CA85     		mv	a1,s2
 1100              	.LVL119:
 1101 0022 13854421 		addi	a0,s1,532
 1102              	.LVL120:
 1103 0026 97000000 		call	wpabuf_resize
 1103      E7800000 
 1104              	.LVL121:
 1105              		.loc 1 344 6
 1106 002e 63500502 		bge	a0,zero,.L77
 1107              	.LVL122:
 1108              	.L84:
 345:C:/Users/stapi/OneDrive/Desktop/GD32VW553/V1_MQTT_OK/GD32VW55X_Wifi_BLE_SDK/GD32VW55x_RELEASE_V1.0.2/MSDK/wpa_supplicant/src/tls\tlsv1_client.c **** 			wpa_printf(MSG_DEBUG, "TLSv1: Failed to allocate "
 1109              		.loc 1 345 4 is_stmt 1
 1110 0032 B7050000 		lui	a1,%hi(.LC7)
 1111 0036 93850500 		addi	a1,a1,%lo(.LC7)
 1112 003a 0945     		li	a0,2
 1113 003c 97000000 		call	wpa_printf
 1113      E7800000 
 1114              	.LVL123:
 346:C:/Users/stapi/OneDrive/Desktop/GD32VW553/V1_MQTT_OK/GD32VW55X_Wifi_BLE_SDK/GD32VW55x_RELEASE_V1.0.2/MSDK/wpa_supplicant/src/tls\tlsv1_client.c **** 				   "memory for pending record");
 347:C:/Users/stapi/OneDrive/Desktop/GD32VW553/V1_MQTT_OK/GD32VW55X_Wifi_BLE_SDK/GD32VW55x_RELEASE_V1.0.2/MSDK/wpa_supplicant/src/tls\tlsv1_client.c **** 			alert = TLS_ALERT_INTERNAL_ERROR;
 1115              		.loc 1 347 4
 1116              	.L111:
 348:C:/Users/stapi/OneDrive/Desktop/GD32VW553/V1_MQTT_OK/GD32VW55X_Wifi_BLE_SDK/GD32VW55x_RELEASE_V1.0.2/MSDK/wpa_supplicant/src/tls\tlsv1_client.c **** 			goto fail;
 349:C:/Users/stapi/OneDrive/Desktop/GD32VW553/V1_MQTT_OK/GD32VW55X_Wifi_BLE_SDK/GD32VW55x_RELEASE_V1.0.2/MSDK/wpa_supplicant/src/tls\tlsv1_client.c **** 		}
 350:C:/Users/stapi/OneDrive/Desktop/GD32VW553/V1_MQTT_OK/GD32VW55X_Wifi_BLE_SDK/GD32VW55x_RELEASE_V1.0.2/MSDK/wpa_supplicant/src/tls\tlsv1_client.c **** 		wpabuf_put_data(conn->partial_input, in_data, in_len);
 351:C:/Users/stapi/OneDrive/Desktop/GD32VW553/V1_MQTT_OK/GD32VW55X_Wifi_BLE_SDK/GD32VW55x_RELEASE_V1.0.2/MSDK/wpa_supplicant/src/tls\tlsv1_client.c **** 		in_data = wpabuf_head(conn->partial_input);
 352:C:/Users/stapi/OneDrive/Desktop/GD32VW553/V1_MQTT_OK/GD32VW55X_Wifi_BLE_SDK/GD32VW55x_RELEASE_V1.0.2/MSDK/wpa_supplicant/src/tls\tlsv1_client.c **** 		in_len = wpabuf_len(conn->partial_input);
 353:C:/Users/stapi/OneDrive/Desktop/GD32VW553/V1_MQTT_OK/GD32VW55X_Wifi_BLE_SDK/GD32VW55x_RELEASE_V1.0.2/MSDK/wpa_supplicant/src/tls\tlsv1_client.c **** 	}
 354:C:/Users/stapi/OneDrive/Desktop/GD32VW553/V1_MQTT_OK/GD32VW55X_Wifi_BLE_SDK/GD32VW55x_RELEASE_V1.0.2/MSDK/wpa_supplicant/src/tls\tlsv1_client.c **** 
 355:C:/Users/stapi/OneDrive/Desktop/GD32VW553/V1_MQTT_OK/GD32VW55X_Wifi_BLE_SDK/GD32VW55x_RELEASE_V1.0.2/MSDK/wpa_supplicant/src/tls\tlsv1_client.c **** 	pos = in_data;
 356:C:/Users/stapi/OneDrive/Desktop/GD32VW553/V1_MQTT_OK/GD32VW55X_Wifi_BLE_SDK/GD32VW55x_RELEASE_V1.0.2/MSDK/wpa_supplicant/src/tls\tlsv1_client.c **** 	in_end = in_data + in_len;
 357:C:/Users/stapi/OneDrive/Desktop/GD32VW553/V1_MQTT_OK/GD32VW55X_Wifi_BLE_SDK/GD32VW55x_RELEASE_V1.0.2/MSDK/wpa_supplicant/src/tls\tlsv1_client.c **** 
 358:C:/Users/stapi/OneDrive/Desktop/GD32VW553/V1_MQTT_OK/GD32VW55X_Wifi_BLE_SDK/GD32VW55x_RELEASE_V1.0.2/MSDK/wpa_supplicant/src/tls\tlsv1_client.c **** 	while (pos < in_end) {
 359:C:/Users/stapi/OneDrive/Desktop/GD32VW553/V1_MQTT_OK/GD32VW55X_Wifi_BLE_SDK/GD32VW55x_RELEASE_V1.0.2/MSDK/wpa_supplicant/src/tls\tlsv1_client.c **** 		ct = pos[0];
 360:C:/Users/stapi/OneDrive/Desktop/GD32VW553/V1_MQTT_OK/GD32VW55X_Wifi_BLE_SDK/GD32VW55x_RELEASE_V1.0.2/MSDK/wpa_supplicant/src/tls\tlsv1_client.c **** 		if (wpabuf_resize(&buf, in_end - pos) < 0) {
 361:C:/Users/stapi/OneDrive/Desktop/GD32VW553/V1_MQTT_OK/GD32VW55X_Wifi_BLE_SDK/GD32VW55x_RELEASE_V1.0.2/MSDK/wpa_supplicant/src/tls\tlsv1_client.c **** 			alert = TLS_ALERT_INTERNAL_ERROR;
 1117              		.loc 1 361 4
 1118              		.loc 1 361 10 is_stmt 0
 1119 0044 93070005 		li	a5,80
 1120              	.L110:
 362:C:/Users/stapi/OneDrive/Desktop/GD32VW553/V1_MQTT_OK/GD32VW55X_Wifi_BLE_SDK/GD32VW55x_RELEASE_V1.0.2/MSDK/wpa_supplicant/src/tls\tlsv1_client.c **** 			goto fail;
 363:C:/Users/stapi/OneDrive/Desktop/GD32VW553/V1_MQTT_OK/GD32VW55X_Wifi_BLE_SDK/GD32VW55x_RELEASE_V1.0.2/MSDK/wpa_supplicant/src/tls\tlsv1_client.c **** 		}
 364:C:/Users/stapi/OneDrive/Desktop/GD32VW553/V1_MQTT_OK/GD32VW55X_Wifi_BLE_SDK/GD32VW55x_RELEASE_V1.0.2/MSDK/wpa_supplicant/src/tls\tlsv1_client.c **** 		out_pos = wpabuf_put(buf, 0);
 365:C:/Users/stapi/OneDrive/Desktop/GD32VW553/V1_MQTT_OK/GD32VW55X_Wifi_BLE_SDK/GD32VW55x_RELEASE_V1.0.2/MSDK/wpa_supplicant/src/tls\tlsv1_client.c **** 		olen = wpabuf_tailroom(buf);
 366:C:/Users/stapi/OneDrive/Desktop/GD32VW553/V1_MQTT_OK/GD32VW55X_Wifi_BLE_SDK/GD32VW55x_RELEASE_V1.0.2/MSDK/wpa_supplicant/src/tls\tlsv1_client.c **** 		used = tlsv1_record_receive(&conn->rl, pos, in_end - pos,
 367:C:/Users/stapi/OneDrive/Desktop/GD32VW553/V1_MQTT_OK/GD32VW55X_Wifi_BLE_SDK/GD32VW55x_RELEASE_V1.0.2/MSDK/wpa_supplicant/src/tls\tlsv1_client.c **** 					    out_pos, &olen, &alert);
 368:C:/Users/stapi/OneDrive/Desktop/GD32VW553/V1_MQTT_OK/GD32VW55X_Wifi_BLE_SDK/GD32VW55x_RELEASE_V1.0.2/MSDK/wpa_supplicant/src/tls\tlsv1_client.c **** 		if (used < 0) {
 369:C:/Users/stapi/OneDrive/Desktop/GD32VW553/V1_MQTT_OK/GD32VW55X_Wifi_BLE_SDK/GD32VW55x_RELEASE_V1.0.2/MSDK/wpa_supplicant/src/tls\tlsv1_client.c **** 			wpa_printf(MSG_DEBUG, "TLSv1: Record layer processing "
 370:C:/Users/stapi/OneDrive/Desktop/GD32VW553/V1_MQTT_OK/GD32VW55X_Wifi_BLE_SDK/GD32VW55x_RELEASE_V1.0.2/MSDK/wpa_supplicant/src/tls\tlsv1_client.c **** 				   "failed");
 371:C:/Users/stapi/OneDrive/Desktop/GD32VW553/V1_MQTT_OK/GD32VW55X_Wifi_BLE_SDK/GD32VW55x_RELEASE_V1.0.2/MSDK/wpa_supplicant/src/tls\tlsv1_client.c **** 			goto fail;
 372:C:/Users/stapi/OneDrive/Desktop/GD32VW553/V1_MQTT_OK/GD32VW55X_Wifi_BLE_SDK/GD32VW55x_RELEASE_V1.0.2/MSDK/wpa_supplicant/src/tls\tlsv1_client.c **** 		}
 373:C:/Users/stapi/OneDrive/Desktop/GD32VW553/V1_MQTT_OK/GD32VW55X_Wifi_BLE_SDK/GD32VW55x_RELEASE_V1.0.2/MSDK/wpa_supplicant/src/tls\tlsv1_client.c **** 		if (used == 0) {
 374:C:/Users/stapi/OneDrive/Desktop/GD32VW553/V1_MQTT_OK/GD32VW55X_Wifi_BLE_SDK/GD32VW55x_RELEASE_V1.0.2/MSDK/wpa_supplicant/src/tls\tlsv1_client.c **** 			struct wpabuf *partial;
 375:C:/Users/stapi/OneDrive/Desktop/GD32VW553/V1_MQTT_OK/GD32VW55X_Wifi_BLE_SDK/GD32VW55x_RELEASE_V1.0.2/MSDK/wpa_supplicant/src/tls\tlsv1_client.c **** 			wpa_printf(MSG_DEBUG, "TLSv1: Need more data");
 376:C:/Users/stapi/OneDrive/Desktop/GD32VW553/V1_MQTT_OK/GD32VW55X_Wifi_BLE_SDK/GD32VW55x_RELEASE_V1.0.2/MSDK/wpa_supplicant/src/tls\tlsv1_client.c **** 			partial = wpabuf_alloc_copy(pos, in_end - pos);
 377:C:/Users/stapi/OneDrive/Desktop/GD32VW553/V1_MQTT_OK/GD32VW55X_Wifi_BLE_SDK/GD32VW55x_RELEASE_V1.0.2/MSDK/wpa_supplicant/src/tls\tlsv1_client.c **** 			wpabuf_free(conn->partial_input);
 378:C:/Users/stapi/OneDrive/Desktop/GD32VW553/V1_MQTT_OK/GD32VW55X_Wifi_BLE_SDK/GD32VW55x_RELEASE_V1.0.2/MSDK/wpa_supplicant/src/tls\tlsv1_client.c **** 			conn->partial_input = partial;
 379:C:/Users/stapi/OneDrive/Desktop/GD32VW553/V1_MQTT_OK/GD32VW55X_Wifi_BLE_SDK/GD32VW55x_RELEASE_V1.0.2/MSDK/wpa_supplicant/src/tls\tlsv1_client.c **** 			if (conn->partial_input == NULL) {
 380:C:/Users/stapi/OneDrive/Desktop/GD32VW553/V1_MQTT_OK/GD32VW55X_Wifi_BLE_SDK/GD32VW55x_RELEASE_V1.0.2/MSDK/wpa_supplicant/src/tls\tlsv1_client.c **** 				wpa_printf(MSG_DEBUG, "TLSv1: Failed to "
 381:C:/Users/stapi/OneDrive/Desktop/GD32VW553/V1_MQTT_OK/GD32VW55X_Wifi_BLE_SDK/GD32VW55x_RELEASE_V1.0.2/MSDK/wpa_supplicant/src/tls\tlsv1_client.c **** 					   "allocate memory for pending "
 382:C:/Users/stapi/OneDrive/Desktop/GD32VW553/V1_MQTT_OK/GD32VW55X_Wifi_BLE_SDK/GD32VW55x_RELEASE_V1.0.2/MSDK/wpa_supplicant/src/tls\tlsv1_client.c **** 					   "record");
 383:C:/Users/stapi/OneDrive/Desktop/GD32VW553/V1_MQTT_OK/GD32VW55X_Wifi_BLE_SDK/GD32VW55x_RELEASE_V1.0.2/MSDK/wpa_supplicant/src/tls\tlsv1_client.c **** 				alert = TLS_ALERT_INTERNAL_ERROR;
 384:C:/Users/stapi/OneDrive/Desktop/GD32VW553/V1_MQTT_OK/GD32VW55X_Wifi_BLE_SDK/GD32VW55x_RELEASE_V1.0.2/MSDK/wpa_supplicant/src/tls\tlsv1_client.c **** 				goto fail;
 385:C:/Users/stapi/OneDrive/Desktop/GD32VW553/V1_MQTT_OK/GD32VW55X_Wifi_BLE_SDK/GD32VW55x_RELEASE_V1.0.2/MSDK/wpa_supplicant/src/tls\tlsv1_client.c **** 			}
 386:C:/Users/stapi/OneDrive/Desktop/GD32VW553/V1_MQTT_OK/GD32VW55X_Wifi_BLE_SDK/GD32VW55x_RELEASE_V1.0.2/MSDK/wpa_supplicant/src/tls\tlsv1_client.c **** 			if (need_more_data)
 387:C:/Users/stapi/OneDrive/Desktop/GD32VW553/V1_MQTT_OK/GD32VW55X_Wifi_BLE_SDK/GD32VW55x_RELEASE_V1.0.2/MSDK/wpa_supplicant/src/tls\tlsv1_client.c **** 				*need_more_data = 1;
 388:C:/Users/stapi/OneDrive/Desktop/GD32VW553/V1_MQTT_OK/GD32VW55X_Wifi_BLE_SDK/GD32VW55x_RELEASE_V1.0.2/MSDK/wpa_supplicant/src/tls\tlsv1_client.c **** 			return buf;
 389:C:/Users/stapi/OneDrive/Desktop/GD32VW553/V1_MQTT_OK/GD32VW55X_Wifi_BLE_SDK/GD32VW55x_RELEASE_V1.0.2/MSDK/wpa_supplicant/src/tls\tlsv1_client.c **** 		}
 390:C:/Users/stapi/OneDrive/Desktop/GD32VW553/V1_MQTT_OK/GD32VW55X_Wifi_BLE_SDK/GD32VW55x_RELEASE_V1.0.2/MSDK/wpa_supplicant/src/tls\tlsv1_client.c **** 
 391:C:/Users/stapi/OneDrive/Desktop/GD32VW553/V1_MQTT_OK/GD32VW55X_Wifi_BLE_SDK/GD32VW55x_RELEASE_V1.0.2/MSDK/wpa_supplicant/src/tls\tlsv1_client.c **** 		if (ct == TLS_CONTENT_TYPE_ALERT) {
 392:C:/Users/stapi/OneDrive/Desktop/GD32VW553/V1_MQTT_OK/GD32VW55X_Wifi_BLE_SDK/GD32VW55x_RELEASE_V1.0.2/MSDK/wpa_supplicant/src/tls\tlsv1_client.c **** 			if (olen < 2) {
 393:C:/Users/stapi/OneDrive/Desktop/GD32VW553/V1_MQTT_OK/GD32VW55X_Wifi_BLE_SDK/GD32VW55x_RELEASE_V1.0.2/MSDK/wpa_supplicant/src/tls\tlsv1_client.c **** 				wpa_printf(MSG_DEBUG, "TLSv1: Alert "
 394:C:/Users/stapi/OneDrive/Desktop/GD32VW553/V1_MQTT_OK/GD32VW55X_Wifi_BLE_SDK/GD32VW55x_RELEASE_V1.0.2/MSDK/wpa_supplicant/src/tls\tlsv1_client.c **** 					   "underflow");
 395:C:/Users/stapi/OneDrive/Desktop/GD32VW553/V1_MQTT_OK/GD32VW55X_Wifi_BLE_SDK/GD32VW55x_RELEASE_V1.0.2/MSDK/wpa_supplicant/src/tls\tlsv1_client.c **** 				alert = TLS_ALERT_DECODE_ERROR;
 396:C:/Users/stapi/OneDrive/Desktop/GD32VW553/V1_MQTT_OK/GD32VW55X_Wifi_BLE_SDK/GD32VW55x_RELEASE_V1.0.2/MSDK/wpa_supplicant/src/tls\tlsv1_client.c **** 				goto fail;
 397:C:/Users/stapi/OneDrive/Desktop/GD32VW553/V1_MQTT_OK/GD32VW55X_Wifi_BLE_SDK/GD32VW55x_RELEASE_V1.0.2/MSDK/wpa_supplicant/src/tls\tlsv1_client.c **** 			}
 398:C:/Users/stapi/OneDrive/Desktop/GD32VW553/V1_MQTT_OK/GD32VW55X_Wifi_BLE_SDK/GD32VW55x_RELEASE_V1.0.2/MSDK/wpa_supplicant/src/tls\tlsv1_client.c **** 			wpa_printf(MSG_DEBUG, "TLSv1: Received alert %d:%d",
 399:C:/Users/stapi/OneDrive/Desktop/GD32VW553/V1_MQTT_OK/GD32VW55X_Wifi_BLE_SDK/GD32VW55x_RELEASE_V1.0.2/MSDK/wpa_supplicant/src/tls\tlsv1_client.c **** 				   out_pos[0], out_pos[1]);
 400:C:/Users/stapi/OneDrive/Desktop/GD32VW553/V1_MQTT_OK/GD32VW55X_Wifi_BLE_SDK/GD32VW55x_RELEASE_V1.0.2/MSDK/wpa_supplicant/src/tls\tlsv1_client.c **** 			if (out_pos[0] == TLS_ALERT_LEVEL_WARNING) {
 401:C:/Users/stapi/OneDrive/Desktop/GD32VW553/V1_MQTT_OK/GD32VW55X_Wifi_BLE_SDK/GD32VW55x_RELEASE_V1.0.2/MSDK/wpa_supplicant/src/tls\tlsv1_client.c **** 				/* Continue processing */
 402:C:/Users/stapi/OneDrive/Desktop/GD32VW553/V1_MQTT_OK/GD32VW55X_Wifi_BLE_SDK/GD32VW55x_RELEASE_V1.0.2/MSDK/wpa_supplicant/src/tls\tlsv1_client.c **** 				pos += used;
 403:C:/Users/stapi/OneDrive/Desktop/GD32VW553/V1_MQTT_OK/GD32VW55X_Wifi_BLE_SDK/GD32VW55x_RELEASE_V1.0.2/MSDK/wpa_supplicant/src/tls\tlsv1_client.c **** 				continue;
 404:C:/Users/stapi/OneDrive/Desktop/GD32VW553/V1_MQTT_OK/GD32VW55X_Wifi_BLE_SDK/GD32VW55x_RELEASE_V1.0.2/MSDK/wpa_supplicant/src/tls\tlsv1_client.c **** 			}
 405:C:/Users/stapi/OneDrive/Desktop/GD32VW553/V1_MQTT_OK/GD32VW55X_Wifi_BLE_SDK/GD32VW55x_RELEASE_V1.0.2/MSDK/wpa_supplicant/src/tls\tlsv1_client.c **** 
 406:C:/Users/stapi/OneDrive/Desktop/GD32VW553/V1_MQTT_OK/GD32VW55X_Wifi_BLE_SDK/GD32VW55x_RELEASE_V1.0.2/MSDK/wpa_supplicant/src/tls\tlsv1_client.c **** 			alert = out_pos[1];
 1121              		.loc 1 406 10
 1122 0048 A30BF100 		sb	a5,23(sp)
 407:C:/Users/stapi/OneDrive/Desktop/GD32VW553/V1_MQTT_OK/GD32VW55X_Wifi_BLE_SDK/GD32VW55x_RELEASE_V1.0.2/MSDK/wpa_supplicant/src/tls\tlsv1_client.c **** 			goto fail;
 1123              		.loc 1 407 4 is_stmt 1
 1124 004c 7DA0     		j	.L78
 1125              	.LVL124:
 1126              	.L77:
 350:C:/Users/stapi/OneDrive/Desktop/GD32VW553/V1_MQTT_OK/GD32VW55X_Wifi_BLE_SDK/GD32VW55x_RELEASE_V1.0.2/MSDK/wpa_supplicant/src/tls\tlsv1_client.c **** 		in_data = wpabuf_head(conn->partial_input);
 1127              		.loc 1 350 3
 1128              	.LBB81:
 1129              	.LBB82:
 169:..\..\..\..\wpa_supplicant\src\utils/wpabuf.h **** 		os_memcpy(wpabuf_put(buf, len), data, len);
 1130              		.loc 3 169 2
 169:..\..\..\..\wpa_supplicant\src\utils/wpabuf.h **** 		os_memcpy(wpabuf_put(buf, len), data, len);
 1131              		.loc 3 169 5 is_stmt 0
 1132 004e 11CC     		beq	s0,zero,.L79
 1133              	.LVL125:
 1134              	.LBB83:
 1135              	.LBB84:
 1136              		.loc 3 170 3 is_stmt 1
 1137 0050 03A54421 		lw	a0,532(s1)
 1138 0054 CA85     		mv	a1,s2
 1139 0056 97000000 		call	wpabuf_put
 1139      E7800000 
 1140              	.LVL126:
 1141 005e 4A86     		mv	a2,s2
 1142 0060 A285     		mv	a1,s0
 1143 0062 97000000 		call	os_memcpy
 1143      E7800000 
 1144              	.LVL127:
 1145              	.L79:
 1146              	.LBE84:
 1147              	.LBE83:
 1148              	.LBE82:
 1149              	.LBE81:
 351:C:/Users/stapi/OneDrive/Desktop/GD32VW553/V1_MQTT_OK/GD32VW55X_Wifi_BLE_SDK/GD32VW55x_RELEASE_V1.0.2/MSDK/wpa_supplicant/src/tls\tlsv1_client.c **** 		in_len = wpabuf_len(conn->partial_input);
 1150              		.loc 1 351 3
 351:C:/Users/stapi/OneDrive/Desktop/GD32VW553/V1_MQTT_OK/GD32VW55X_Wifi_BLE_SDK/GD32VW55x_RELEASE_V1.0.2/MSDK/wpa_supplicant/src/tls\tlsv1_client.c **** 		in_len = wpabuf_len(conn->partial_input);
 1151              		.loc 1 351 29 is_stmt 0
 1152 006a 83A74421 		lw	a5,532(s1)
 1153              	.LVL128:
 1154              	.LBB85:
 1155              	.LBB86:
  95:..\..\..\..\wpa_supplicant\src\utils/wpabuf.h **** }
 1156              		.loc 3 95 2 is_stmt 1
  95:..\..\..\..\wpa_supplicant\src\utils/wpabuf.h **** }
 1157              		.loc 3 95 12 is_stmt 0
 1158 006e 8047     		lw	s0,8(a5)
 1159              	.LVL129:
 1160              	.LBE86:
 1161              	.LBE85:
 352:C:/Users/stapi/OneDrive/Desktop/GD32VW553/V1_MQTT_OK/GD32VW55X_Wifi_BLE_SDK/GD32VW55x_RELEASE_V1.0.2/MSDK/wpa_supplicant/src/tls\tlsv1_client.c **** 	}
 1162              		.loc 1 352 3 is_stmt 1
 1163              	.LBB87:
 1164              	.LBB88:
  60:..\..\..\..\wpa_supplicant\src\utils/wpabuf.h **** }
 1165              		.loc 3 60 2
  60:..\..\..\..\wpa_supplicant\src\utils/wpabuf.h **** }
 1166              		.loc 3 60 12 is_stmt 0
 1167 0070 03A94700 		lw	s2,4(a5)
 1168              	.LVL130:
 1169              	.L76:
 1170              	.LBE88:
 1171              	.LBE87:
 355:C:/Users/stapi/OneDrive/Desktop/GD32VW553/V1_MQTT_OK/GD32VW55X_Wifi_BLE_SDK/GD32VW55x_RELEASE_V1.0.2/MSDK/wpa_supplicant/src/tls\tlsv1_client.c **** 	in_end = in_data + in_len;
 1172              		.loc 1 355 2 is_stmt 1
 356:C:/Users/stapi/OneDrive/Desktop/GD32VW553/V1_MQTT_OK/GD32VW55X_Wifi_BLE_SDK/GD32VW55x_RELEASE_V1.0.2/MSDK/wpa_supplicant/src/tls\tlsv1_client.c **** 
 1173              		.loc 1 356 2
 366:C:/Users/stapi/OneDrive/Desktop/GD32VW553/V1_MQTT_OK/GD32VW55X_Wifi_BLE_SDK/GD32VW55x_RELEASE_V1.0.2/MSDK/wpa_supplicant/src/tls\tlsv1_client.c **** 					    out_pos, &olen, &alert);
 1174              		.loc 1 366 10 is_stmt 0
 1175 0074 93874400 		addi	a5,s1,4
 356:C:/Users/stapi/OneDrive/Desktop/GD32VW553/V1_MQTT_OK/GD32VW55X_Wifi_BLE_SDK/GD32VW55x_RELEASE_V1.0.2/MSDK/wpa_supplicant/src/tls\tlsv1_client.c **** 
 1176              		.loc 1 356 9
 1177 0078 2299     		add	s2,s0,s2
 1178              	.LVL131:
 358:C:/Users/stapi/OneDrive/Desktop/GD32VW553/V1_MQTT_OK/GD32VW55X_Wifi_BLE_SDK/GD32VW55x_RELEASE_V1.0.2/MSDK/wpa_supplicant/src/tls\tlsv1_client.c **** 		ct = pos[0];
 1179              		.loc 1 358 2 is_stmt 1
 366:C:/Users/stapi/OneDrive/Desktop/GD32VW553/V1_MQTT_OK/GD32VW55X_Wifi_BLE_SDK/GD32VW55x_RELEASE_V1.0.2/MSDK/wpa_supplicant/src/tls\tlsv1_client.c **** 					    out_pos, &olen, &alert);
 1180              		.loc 1 366 10 is_stmt 0
 1181 007a 3EC6     		sw	a5,12(sp)
 391:C:/Users/stapi/OneDrive/Desktop/GD32VW553/V1_MQTT_OK/GD32VW55X_Wifi_BLE_SDK/GD32VW55x_RELEASE_V1.0.2/MSDK/wpa_supplicant/src/tls\tlsv1_client.c **** 			if (olen < 2) {
 1182              		.loc 1 391 6
 1183 007c D54C     		li	s9,21
 408:C:/Users/stapi/OneDrive/Desktop/GD32VW553/V1_MQTT_OK/GD32VW55X_Wifi_BLE_SDK/GD32VW55x_RELEASE_V1.0.2/MSDK/wpa_supplicant/src/tls\tlsv1_client.c **** 		}
 409:C:/Users/stapi/OneDrive/Desktop/GD32VW553/V1_MQTT_OK/GD32VW55X_Wifi_BLE_SDK/GD32VW55x_RELEASE_V1.0.2/MSDK/wpa_supplicant/src/tls\tlsv1_client.c **** 
 410:C:/Users/stapi/OneDrive/Desktop/GD32VW553/V1_MQTT_OK/GD32VW55X_Wifi_BLE_SDK/GD32VW55x_RELEASE_V1.0.2/MSDK/wpa_supplicant/src/tls\tlsv1_client.c **** 		if (ct != TLS_CONTENT_TYPE_APPLICATION_DATA) {
 1184              		.loc 1 410 6
 1185 007e 5D4D     		li	s10,23
 392:C:/Users/stapi/OneDrive/Desktop/GD32VW553/V1_MQTT_OK/GD32VW55X_Wifi_BLE_SDK/GD32VW55x_RELEASE_V1.0.2/MSDK/wpa_supplicant/src/tls\tlsv1_client.c **** 				wpa_printf(MSG_DEBUG, "TLSv1: Alert "
 1186              		.loc 1 392 7
 1187 0080 054B     		li	s6,1
 398:C:/Users/stapi/OneDrive/Desktop/GD32VW553/V1_MQTT_OK/GD32VW55X_Wifi_BLE_SDK/GD32VW55x_RELEASE_V1.0.2/MSDK/wpa_supplicant/src/tls\tlsv1_client.c **** 				   out_pos[0], out_pos[1]);
 1188              		.loc 1 398 4
 1189 0082 B70D0000 		lui	s11,%hi(.LC14)
 1190              	.LVL132:
 1191              	.L80:
 358:C:/Users/stapi/OneDrive/Desktop/GD32VW553/V1_MQTT_OK/GD32VW55X_Wifi_BLE_SDK/GD32VW55x_RELEASE_V1.0.2/MSDK/wpa_supplicant/src/tls\tlsv1_client.c **** 		ct = pos[0];
 1192              		.loc 1 358 8 is_stmt 1
 1193 0086 636B2401 		bltu	s0,s2,.L92
 411:C:/Users/stapi/OneDrive/Desktop/GD32VW553/V1_MQTT_OK/GD32VW55X_Wifi_BLE_SDK/GD32VW55x_RELEASE_V1.0.2/MSDK/wpa_supplicant/src/tls\tlsv1_client.c **** 			wpa_printf(MSG_DEBUG, "TLSv1: Unexpected content type "
 412:C:/Users/stapi/OneDrive/Desktop/GD32VW553/V1_MQTT_OK/GD32VW55X_Wifi_BLE_SDK/GD32VW55x_RELEASE_V1.0.2/MSDK/wpa_supplicant/src/tls\tlsv1_client.c **** 				   "0x%x when decrypting application data",
 413:C:/Users/stapi/OneDrive/Desktop/GD32VW553/V1_MQTT_OK/GD32VW55X_Wifi_BLE_SDK/GD32VW55x_RELEASE_V1.0.2/MSDK/wpa_supplicant/src/tls\tlsv1_client.c **** 				   pos[0]);
 414:C:/Users/stapi/OneDrive/Desktop/GD32VW553/V1_MQTT_OK/GD32VW55X_Wifi_BLE_SDK/GD32VW55x_RELEASE_V1.0.2/MSDK/wpa_supplicant/src/tls\tlsv1_client.c **** 			alert = TLS_ALERT_UNEXPECTED_MESSAGE;
 415:C:/Users/stapi/OneDrive/Desktop/GD32VW553/V1_MQTT_OK/GD32VW55X_Wifi_BLE_SDK/GD32VW55x_RELEASE_V1.0.2/MSDK/wpa_supplicant/src/tls\tlsv1_client.c **** 			goto fail;
 416:C:/Users/stapi/OneDrive/Desktop/GD32VW553/V1_MQTT_OK/GD32VW55X_Wifi_BLE_SDK/GD32VW55x_RELEASE_V1.0.2/MSDK/wpa_supplicant/src/tls\tlsv1_client.c **** 		}
 417:C:/Users/stapi/OneDrive/Desktop/GD32VW553/V1_MQTT_OK/GD32VW55X_Wifi_BLE_SDK/GD32VW55x_RELEASE_V1.0.2/MSDK/wpa_supplicant/src/tls\tlsv1_client.c **** 
 418:C:/Users/stapi/OneDrive/Desktop/GD32VW553/V1_MQTT_OK/GD32VW55X_Wifi_BLE_SDK/GD32VW55x_RELEASE_V1.0.2/MSDK/wpa_supplicant/src/tls\tlsv1_client.c **** 		wpabuf_put(buf, olen);
 419:C:/Users/stapi/OneDrive/Desktop/GD32VW553/V1_MQTT_OK/GD32VW55X_Wifi_BLE_SDK/GD32VW55x_RELEASE_V1.0.2/MSDK/wpa_supplicant/src/tls\tlsv1_client.c **** 
 420:C:/Users/stapi/OneDrive/Desktop/GD32VW553/V1_MQTT_OK/GD32VW55X_Wifi_BLE_SDK/GD32VW55x_RELEASE_V1.0.2/MSDK/wpa_supplicant/src/tls\tlsv1_client.c **** 		pos += used;
 421:C:/Users/stapi/OneDrive/Desktop/GD32VW553/V1_MQTT_OK/GD32VW55X_Wifi_BLE_SDK/GD32VW55x_RELEASE_V1.0.2/MSDK/wpa_supplicant/src/tls\tlsv1_client.c **** 	}
 422:C:/Users/stapi/OneDrive/Desktop/GD32VW553/V1_MQTT_OK/GD32VW55X_Wifi_BLE_SDK/GD32VW55x_RELEASE_V1.0.2/MSDK/wpa_supplicant/src/tls\tlsv1_client.c **** 
 423:C:/Users/stapi/OneDrive/Desktop/GD32VW553/V1_MQTT_OK/GD32VW55X_Wifi_BLE_SDK/GD32VW55x_RELEASE_V1.0.2/MSDK/wpa_supplicant/src/tls\tlsv1_client.c **** 	wpabuf_free(conn->partial_input);
 1194              		.loc 1 423 2
 1195 008a 03A54421 		lw	a0,532(s1)
 1196 008e 97000000 		call	wpabuf_free
 1196      E7800000 
 1197              	.LVL133:
 424:C:/Users/stapi/OneDrive/Desktop/GD32VW553/V1_MQTT_OK/GD32VW55X_Wifi_BLE_SDK/GD32VW55x_RELEASE_V1.0.2/MSDK/wpa_supplicant/src/tls\tlsv1_client.c **** 	conn->partial_input = NULL;
 1198              		.loc 1 424 2
 1199              		.loc 1 424 22 is_stmt 0
 1200 0096 23AA0420 		sw	zero,532(s1)
 1201 009a F1A0     		j	.L112
 1202              	.L92:
 359:C:/Users/stapi/OneDrive/Desktop/GD32VW553/V1_MQTT_OK/GD32VW55X_Wifi_BLE_SDK/GD32VW55x_RELEASE_V1.0.2/MSDK/wpa_supplicant/src/tls\tlsv1_client.c **** 		if (wpabuf_resize(&buf, in_end - pos) < 0) {
 1203              		.loc 1 359 3 is_stmt 1
 360:C:/Users/stapi/OneDrive/Desktop/GD32VW553/V1_MQTT_OK/GD32VW55X_Wifi_BLE_SDK/GD32VW55x_RELEASE_V1.0.2/MSDK/wpa_supplicant/src/tls\tlsv1_client.c **** 			alert = TLS_ALERT_INTERNAL_ERROR;
 1204              		.loc 1 360 34 is_stmt 0
 1205 009c B30A8940 		sub	s5,s2,s0
 360:C:/Users/stapi/OneDrive/Desktop/GD32VW553/V1_MQTT_OK/GD32VW55X_Wifi_BLE_SDK/GD32VW55x_RELEASE_V1.0.2/MSDK/wpa_supplicant/src/tls\tlsv1_client.c **** 			alert = TLS_ALERT_INTERNAL_ERROR;
 1206              		.loc 1 360 7
 1207 00a0 D685     		mv	a1,s5
 1208 00a2 6808     		addi	a0,sp,28
 359:C:/Users/stapi/OneDrive/Desktop/GD32VW553/V1_MQTT_OK/GD32VW55X_Wifi_BLE_SDK/GD32VW55x_RELEASE_V1.0.2/MSDK/wpa_supplicant/src/tls\tlsv1_client.c **** 		if (wpabuf_resize(&buf, in_end - pos) < 0) {
 1209              		.loc 1 359 6
 1210 00a4 834B0400 		lbu	s7,0(s0)
 1211              	.LVL134:
 360:C:/Users/stapi/OneDrive/Desktop/GD32VW553/V1_MQTT_OK/GD32VW55X_Wifi_BLE_SDK/GD32VW55x_RELEASE_V1.0.2/MSDK/wpa_supplicant/src/tls\tlsv1_client.c **** 			alert = TLS_ALERT_INTERNAL_ERROR;
 1212              		.loc 1 360 3 is_stmt 1
 360:C:/Users/stapi/OneDrive/Desktop/GD32VW553/V1_MQTT_OK/GD32VW55X_Wifi_BLE_SDK/GD32VW55x_RELEASE_V1.0.2/MSDK/wpa_supplicant/src/tls\tlsv1_client.c **** 			alert = TLS_ALERT_INTERNAL_ERROR;
 1213              		.loc 1 360 7 is_stmt 0
 1214 00a8 97000000 		call	wpabuf_resize
 1214      E7800000 
 1215              	.LVL135:
 360:C:/Users/stapi/OneDrive/Desktop/GD32VW553/V1_MQTT_OK/GD32VW55X_Wifi_BLE_SDK/GD32VW55x_RELEASE_V1.0.2/MSDK/wpa_supplicant/src/tls\tlsv1_client.c **** 			alert = TLS_ALERT_INTERNAL_ERROR;
 1216              		.loc 1 360 6
 1217 00b0 E34A05F8 		blt	a0,zero,.L111
 364:C:/Users/stapi/OneDrive/Desktop/GD32VW553/V1_MQTT_OK/GD32VW55X_Wifi_BLE_SDK/GD32VW55x_RELEASE_V1.0.2/MSDK/wpa_supplicant/src/tls\tlsv1_client.c **** 		olen = wpabuf_tailroom(buf);
 1218              		.loc 1 364 3 is_stmt 1
 364:C:/Users/stapi/OneDrive/Desktop/GD32VW553/V1_MQTT_OK/GD32VW55X_Wifi_BLE_SDK/GD32VW55x_RELEASE_V1.0.2/MSDK/wpa_supplicant/src/tls\tlsv1_client.c **** 		olen = wpabuf_tailroom(buf);
 1219              		.loc 1 364 13 is_stmt 0
 1220 00b4 7245     		lw	a0,28(sp)
 1221 00b6 8145     		li	a1,0
 1222 00b8 97000000 		call	wpabuf_put
 1222      E7800000 
 1223              	.LVL136:
 365:C:/Users/stapi/OneDrive/Desktop/GD32VW553/V1_MQTT_OK/GD32VW55X_Wifi_BLE_SDK/GD32VW55x_RELEASE_V1.0.2/MSDK/wpa_supplicant/src/tls\tlsv1_client.c **** 		used = tlsv1_record_receive(&conn->rl, pos, in_end - pos,
 1224              		.loc 1 365 10
 1225 00c0 7247     		lw	a4,28(sp)
 366:C:/Users/stapi/OneDrive/Desktop/GD32VW553/V1_MQTT_OK/GD32VW55X_Wifi_BLE_SDK/GD32VW55x_RELEASE_V1.0.2/MSDK/wpa_supplicant/src/tls\tlsv1_client.c **** 					    out_pos, &olen, &alert);
 1226              		.loc 1 366 10
 1227 00c2 AA86     		mv	a3,a0
 364:C:/Users/stapi/OneDrive/Desktop/GD32VW553/V1_MQTT_OK/GD32VW55X_Wifi_BLE_SDK/GD32VW55x_RELEASE_V1.0.2/MSDK/wpa_supplicant/src/tls\tlsv1_client.c **** 		olen = wpabuf_tailroom(buf);
 1228              		.loc 1 364 13
 1229 00c4 AA89     		mv	s3,a0
 1230              	.LVL137:
 365:C:/Users/stapi/OneDrive/Desktop/GD32VW553/V1_MQTT_OK/GD32VW55X_Wifi_BLE_SDK/GD32VW55x_RELEASE_V1.0.2/MSDK/wpa_supplicant/src/tls\tlsv1_client.c **** 		used = tlsv1_record_receive(&conn->rl, pos, in_end - pos,
 1231              		.loc 1 365 3 is_stmt 1
 1232              	.LBB89:
 1233              	.LBB90:
  70:..\..\..\..\wpa_supplicant\src\utils/wpabuf.h **** }
 1234              		.loc 3 70 2
  70:..\..\..\..\wpa_supplicant\src\utils/wpabuf.h **** }
 1235              		.loc 3 70 19 is_stmt 0
 1236 00c6 1C43     		lw	a5,0(a4)
 1237 00c8 5843     		lw	a4,4(a4)
 1238              	.LBE90:
 1239              	.LBE89:
 366:C:/Users/stapi/OneDrive/Desktop/GD32VW553/V1_MQTT_OK/GD32VW55X_Wifi_BLE_SDK/GD32VW55x_RELEASE_V1.0.2/MSDK/wpa_supplicant/src/tls\tlsv1_client.c **** 					    out_pos, &olen, &alert);
 1240              		.loc 1 366 10
 1241 00ca 3245     		lw	a0,12(sp)
 1242              	.LVL138:
 1243 00cc 5686     		mv	a2,s5
 1244              	.LBB92:
 1245              	.LBB91:
  70:..\..\..\..\wpa_supplicant\src\utils/wpabuf.h **** }
 1246              		.loc 3 70 19
 1247 00ce 998F     		sub	a5,a5,a4
 1248              	.LBE91:
 1249              	.LBE92:
 365:C:/Users/stapi/OneDrive/Desktop/GD32VW553/V1_MQTT_OK/GD32VW55X_Wifi_BLE_SDK/GD32VW55x_RELEASE_V1.0.2/MSDK/wpa_supplicant/src/tls\tlsv1_client.c **** 		used = tlsv1_record_receive(&conn->rl, pos, in_end - pos,
 1250              		.loc 1 365 8
 1251 00d0 3ECC     		sw	a5,24(sp)
 366:C:/Users/stapi/OneDrive/Desktop/GD32VW553/V1_MQTT_OK/GD32VW55X_Wifi_BLE_SDK/GD32VW55x_RELEASE_V1.0.2/MSDK/wpa_supplicant/src/tls\tlsv1_client.c **** 					    out_pos, &olen, &alert);
 1252              		.loc 1 366 3 is_stmt 1
 366:C:/Users/stapi/OneDrive/Desktop/GD32VW553/V1_MQTT_OK/GD32VW55X_Wifi_BLE_SDK/GD32VW55x_RELEASE_V1.0.2/MSDK/wpa_supplicant/src/tls\tlsv1_client.c **** 					    out_pos, &olen, &alert);
 1253              		.loc 1 366 10 is_stmt 0
 1254 00d2 3808     		addi	a4,sp,24
 1255 00d4 93077101 		addi	a5,sp,23
 1256 00d8 A285     		mv	a1,s0
 1257 00da 97000000 		call	tlsv1_record_receive
 1257      E7800000 
 1258              	.LVL139:
 1259 00e2 2A8C     		mv	s8,a0
 1260              	.LVL140:
 368:C:/Users/stapi/OneDrive/Desktop/GD32VW553/V1_MQTT_OK/GD32VW55X_Wifi_BLE_SDK/GD32VW55x_RELEASE_V1.0.2/MSDK/wpa_supplicant/src/tls\tlsv1_client.c **** 			wpa_printf(MSG_DEBUG, "TLSv1: Record layer processing "
 1261              		.loc 1 368 3 is_stmt 1
 368:C:/Users/stapi/OneDrive/Desktop/GD32VW553/V1_MQTT_OK/GD32VW55X_Wifi_BLE_SDK/GD32VW55x_RELEASE_V1.0.2/MSDK/wpa_supplicant/src/tls\tlsv1_client.c **** 			wpa_printf(MSG_DEBUG, "TLSv1: Record layer processing "
 1262              		.loc 1 368 6 is_stmt 0
 1263 00e4 63510504 		bge	a0,zero,.L82
 369:C:/Users/stapi/OneDrive/Desktop/GD32VW553/V1_MQTT_OK/GD32VW55X_Wifi_BLE_SDK/GD32VW55x_RELEASE_V1.0.2/MSDK/wpa_supplicant/src/tls\tlsv1_client.c **** 				   "failed");
 1264              		.loc 1 369 4 is_stmt 1
 1265 00e8 B7050000 		lui	a1,%hi(.LC12)
 1266 00ec 93850500 		addi	a1,a1,%lo(.LC12)
 1267 00f0 0945     		li	a0,2
 1268              	.LVL141:
 1269 00f2 97000000 		call	wpa_printf
 1269      E7800000 
 1270              	.LVL142:
 371:C:/Users/stapi/OneDrive/Desktop/GD32VW553/V1_MQTT_OK/GD32VW55X_Wifi_BLE_SDK/GD32VW55x_RELEASE_V1.0.2/MSDK/wpa_supplicant/src/tls\tlsv1_client.c **** 		}
 1271              		.loc 1 371 4
 1272              	.L78:
 425:C:/Users/stapi/OneDrive/Desktop/GD32VW553/V1_MQTT_OK/GD32VW55X_Wifi_BLE_SDK/GD32VW55x_RELEASE_V1.0.2/MSDK/wpa_supplicant/src/tls\tlsv1_client.c **** 	return buf;
 426:C:/Users/stapi/OneDrive/Desktop/GD32VW553/V1_MQTT_OK/GD32VW55X_Wifi_BLE_SDK/GD32VW55x_RELEASE_V1.0.2/MSDK/wpa_supplicant/src/tls\tlsv1_client.c **** 
 427:C:/Users/stapi/OneDrive/Desktop/GD32VW553/V1_MQTT_OK/GD32VW55X_Wifi_BLE_SDK/GD32VW55x_RELEASE_V1.0.2/MSDK/wpa_supplicant/src/tls\tlsv1_client.c **** fail:
 428:C:/Users/stapi/OneDrive/Desktop/GD32VW553/V1_MQTT_OK/GD32VW55X_Wifi_BLE_SDK/GD32VW55x_RELEASE_V1.0.2/MSDK/wpa_supplicant/src/tls\tlsv1_client.c **** 	wpabuf_free(buf);
 1273              		.loc 1 428 2
 1274 00fa 7245     		lw	a0,28(sp)
 1275 00fc 97000000 		call	wpabuf_free
 1275      E7800000 
 1276              	.LVL143:
 429:C:/Users/stapi/OneDrive/Desktop/GD32VW553/V1_MQTT_OK/GD32VW55X_Wifi_BLE_SDK/GD32VW55x_RELEASE_V1.0.2/MSDK/wpa_supplicant/src/tls\tlsv1_client.c **** 	wpabuf_free(conn->partial_input);
 1277              		.loc 1 429 2
 1278 0104 03A54421 		lw	a0,532(s1)
 1279 0108 97000000 		call	wpabuf_free
 1279      E7800000 
 1280              	.LVL144:
 430:C:/Users/stapi/OneDrive/Desktop/GD32VW553/V1_MQTT_OK/GD32VW55X_Wifi_BLE_SDK/GD32VW55x_RELEASE_V1.0.2/MSDK/wpa_supplicant/src/tls\tlsv1_client.c **** 	conn->partial_input = NULL;
 1281              		.loc 1 430 2
 431:C:/Users/stapi/OneDrive/Desktop/GD32VW553/V1_MQTT_OK/GD32VW55X_Wifi_BLE_SDK/GD32VW55x_RELEASE_V1.0.2/MSDK/wpa_supplicant/src/tls\tlsv1_client.c **** 	tls_alert(conn, TLS_ALERT_LEVEL_FATAL, alert);
 1282              		.loc 1 431 2 is_stmt 0
 1283 0110 83477101 		lbu	a5,23(sp)
 1284              	.LBB93:
 1285              	.LBB94:
  27:C:/Users/stapi/OneDrive/Desktop/GD32VW553/V1_MQTT_OK/GD32VW55X_Wifi_BLE_SDK/GD32VW55x_RELEASE_V1.0.2/MSDK/wpa_supplicant/src/tls\tlsv1_client.c **** 	conn->alert_description = description;
 1286              		.loc 1 27 20
 1287 0114 0947     		li	a4,2
 1288              	.LBE94:
 1289              	.LBE93:
 430:C:/Users/stapi/OneDrive/Desktop/GD32VW553/V1_MQTT_OK/GD32VW55X_Wifi_BLE_SDK/GD32VW55x_RELEASE_V1.0.2/MSDK/wpa_supplicant/src/tls\tlsv1_client.c **** 	conn->partial_input = NULL;
 1290              		.loc 1 430 22
 1291 0116 23AA0420 		sw	zero,532(s1)
 1292              		.loc 1 431 2 is_stmt 1
 1293              	.LVL145:
 1294              	.LBB96:
 1295              	.LBB95:
  27:C:/Users/stapi/OneDrive/Desktop/GD32VW553/V1_MQTT_OK/GD32VW55X_Wifi_BLE_SDK/GD32VW55x_RELEASE_V1.0.2/MSDK/wpa_supplicant/src/tls\tlsv1_client.c **** 	conn->alert_description = description;
 1296              		.loc 1 27 2
  27:C:/Users/stapi/OneDrive/Desktop/GD32VW553/V1_MQTT_OK/GD32VW55X_Wifi_BLE_SDK/GD32VW55x_RELEASE_V1.0.2/MSDK/wpa_supplicant/src/tls\tlsv1_client.c **** 	conn->alert_description = description;
 1297              		.loc 1 27 20 is_stmt 0
 1298 011a 2388E416 		sb	a4,368(s1)
  28:C:/Users/stapi/OneDrive/Desktop/GD32VW553/V1_MQTT_OK/GD32VW55X_Wifi_BLE_SDK/GD32VW55x_RELEASE_V1.0.2/MSDK/wpa_supplicant/src/tls\tlsv1_client.c **** }
 1299              		.loc 1 28 2 is_stmt 1
  28:C:/Users/stapi/OneDrive/Desktop/GD32VW553/V1_MQTT_OK/GD32VW55X_Wifi_BLE_SDK/GD32VW55x_RELEASE_V1.0.2/MSDK/wpa_supplicant/src/tls\tlsv1_client.c **** }
 1300              		.loc 1 28 26 is_stmt 0
 1301 011e A388F416 		sb	a5,369(s1)
 1302              	.LVL146:
 1303              	.LBE95:
 1304              	.LBE96:
 432:C:/Users/stapi/OneDrive/Desktop/GD32VW553/V1_MQTT_OK/GD32VW55X_Wifi_BLE_SDK/GD32VW55x_RELEASE_V1.0.2/MSDK/wpa_supplicant/src/tls\tlsv1_client.c **** 	return NULL;
 1305              		.loc 1 432 2 is_stmt 1
 1306              		.loc 1 432 9 is_stmt 0
 1307 0122 0145     		li	a0,0
 1308 0124 91A0     		j	.L74
 1309              	.LVL147:
 1310              	.L82:
 373:C:/Users/stapi/OneDrive/Desktop/GD32VW553/V1_MQTT_OK/GD32VW55X_Wifi_BLE_SDK/GD32VW55x_RELEASE_V1.0.2/MSDK/wpa_supplicant/src/tls\tlsv1_client.c **** 			struct wpabuf *partial;
 1311              		.loc 1 373 3 is_stmt 1
 373:C:/Users/stapi/OneDrive/Desktop/GD32VW553/V1_MQTT_OK/GD32VW55X_Wifi_BLE_SDK/GD32VW55x_RELEASE_V1.0.2/MSDK/wpa_supplicant/src/tls\tlsv1_client.c **** 			struct wpabuf *partial;
 1312              		.loc 1 373 6 is_stmt 0
 1313 0126 31E5     		bne	a0,zero,.L83
 1314              	.LBB97:
 374:C:/Users/stapi/OneDrive/Desktop/GD32VW553/V1_MQTT_OK/GD32VW55X_Wifi_BLE_SDK/GD32VW55x_RELEASE_V1.0.2/MSDK/wpa_supplicant/src/tls\tlsv1_client.c **** 			wpa_printf(MSG_DEBUG, "TLSv1: Need more data");
 1315              		.loc 1 374 4 is_stmt 1
 375:C:/Users/stapi/OneDrive/Desktop/GD32VW553/V1_MQTT_OK/GD32VW55X_Wifi_BLE_SDK/GD32VW55x_RELEASE_V1.0.2/MSDK/wpa_supplicant/src/tls\tlsv1_client.c **** 			partial = wpabuf_alloc_copy(pos, in_end - pos);
 1316              		.loc 1 375 4
 1317 0128 B7050000 		lui	a1,%hi(.LC9)
 1318 012c 93850500 		addi	a1,a1,%lo(.LC9)
 1319 0130 0945     		li	a0,2
 1320              	.LVL148:
 1321 0132 97000000 		call	wpa_printf
 1321      E7800000 
 1322              	.LVL149:
 376:C:/Users/stapi/OneDrive/Desktop/GD32VW553/V1_MQTT_OK/GD32VW55X_Wifi_BLE_SDK/GD32VW55x_RELEASE_V1.0.2/MSDK/wpa_supplicant/src/tls\tlsv1_client.c **** 			wpabuf_free(conn->partial_input);
 1323              		.loc 1 376 4
 376:C:/Users/stapi/OneDrive/Desktop/GD32VW553/V1_MQTT_OK/GD32VW55X_Wifi_BLE_SDK/GD32VW55x_RELEASE_V1.0.2/MSDK/wpa_supplicant/src/tls\tlsv1_client.c **** 			wpabuf_free(conn->partial_input);
 1324              		.loc 1 376 14 is_stmt 0
 1325 013a D685     		mv	a1,s5
 1326 013c 2285     		mv	a0,s0
 1327 013e 97000000 		call	wpabuf_alloc_copy
 1327      E7800000 
 1328              	.LVL150:
 1329 0146 2A84     		mv	s0,a0
 1330              	.LVL151:
 377:C:/Users/stapi/OneDrive/Desktop/GD32VW553/V1_MQTT_OK/GD32VW55X_Wifi_BLE_SDK/GD32VW55x_RELEASE_V1.0.2/MSDK/wpa_supplicant/src/tls\tlsv1_client.c **** 			conn->partial_input = partial;
 1331              		.loc 1 377 4 is_stmt 1
 1332 0148 03A54421 		lw	a0,532(s1)
 1333 014c 97000000 		call	wpabuf_free
 1333      E7800000 
 1334              	.LVL152:
 378:C:/Users/stapi/OneDrive/Desktop/GD32VW553/V1_MQTT_OK/GD32VW55X_Wifi_BLE_SDK/GD32VW55x_RELEASE_V1.0.2/MSDK/wpa_supplicant/src/tls\tlsv1_client.c **** 			if (conn->partial_input == NULL) {
 1335              		.loc 1 378 4
 378:C:/Users/stapi/OneDrive/Desktop/GD32VW553/V1_MQTT_OK/GD32VW55X_Wifi_BLE_SDK/GD32VW55x_RELEASE_V1.0.2/MSDK/wpa_supplicant/src/tls\tlsv1_client.c **** 			if (conn->partial_input == NULL) {
 1336              		.loc 1 378 24 is_stmt 0
 1337 0154 23AA8420 		sw	s0,532(s1)
 379:C:/Users/stapi/OneDrive/Desktop/GD32VW553/V1_MQTT_OK/GD32VW55X_Wifi_BLE_SDK/GD32VW55x_RELEASE_V1.0.2/MSDK/wpa_supplicant/src/tls\tlsv1_client.c **** 				wpa_printf(MSG_DEBUG, "TLSv1: Failed to "
 1338              		.loc 1 379 4 is_stmt 1
 379:C:/Users/stapi/OneDrive/Desktop/GD32VW553/V1_MQTT_OK/GD32VW55X_Wifi_BLE_SDK/GD32VW55x_RELEASE_V1.0.2/MSDK/wpa_supplicant/src/tls\tlsv1_client.c **** 				wpa_printf(MSG_DEBUG, "TLSv1: Failed to "
 1339              		.loc 1 379 7 is_stmt 0
 1340 0158 E30D04EC 		beq	s0,zero,.L84
 386:C:/Users/stapi/OneDrive/Desktop/GD32VW553/V1_MQTT_OK/GD32VW55X_Wifi_BLE_SDK/GD32VW55x_RELEASE_V1.0.2/MSDK/wpa_supplicant/src/tls\tlsv1_client.c **** 				*need_more_data = 1;
 1341              		.loc 1 386 4 is_stmt 1
 386:C:/Users/stapi/OneDrive/Desktop/GD32VW553/V1_MQTT_OK/GD32VW55X_Wifi_BLE_SDK/GD32VW55x_RELEASE_V1.0.2/MSDK/wpa_supplicant/src/tls\tlsv1_client.c **** 				*need_more_data = 1;
 1342              		.loc 1 386 7 is_stmt 0
 1343 015c 63050A00 		beq	s4,zero,.L112
 387:C:/Users/stapi/OneDrive/Desktop/GD32VW553/V1_MQTT_OK/GD32VW55X_Wifi_BLE_SDK/GD32VW55x_RELEASE_V1.0.2/MSDK/wpa_supplicant/src/tls\tlsv1_client.c **** 			return buf;
 1344              		.loc 1 387 5 is_stmt 1
 387:C:/Users/stapi/OneDrive/Desktop/GD32VW553/V1_MQTT_OK/GD32VW55X_Wifi_BLE_SDK/GD32VW55x_RELEASE_V1.0.2/MSDK/wpa_supplicant/src/tls\tlsv1_client.c **** 			return buf;
 1345              		.loc 1 387 21 is_stmt 0
 1346 0160 8547     		li	a5,1
 1347 0162 2320FA00 		sw	a5,0(s4)
 388:C:/Users/stapi/OneDrive/Desktop/GD32VW553/V1_MQTT_OK/GD32VW55X_Wifi_BLE_SDK/GD32VW55x_RELEASE_V1.0.2/MSDK/wpa_supplicant/src/tls\tlsv1_client.c **** 		}
 1348              		.loc 1 388 4 is_stmt 1
 1349              	.LVL153:
 1350              	.L112:
 1351              	.LBE97:
 425:C:/Users/stapi/OneDrive/Desktop/GD32VW553/V1_MQTT_OK/GD32VW55X_Wifi_BLE_SDK/GD32VW55x_RELEASE_V1.0.2/MSDK/wpa_supplicant/src/tls\tlsv1_client.c **** 
 1352              		.loc 1 425 2
 425:C:/Users/stapi/OneDrive/Desktop/GD32VW553/V1_MQTT_OK/GD32VW55X_Wifi_BLE_SDK/GD32VW55x_RELEASE_V1.0.2/MSDK/wpa_supplicant/src/tls\tlsv1_client.c **** 
 1353              		.loc 1 425 9 is_stmt 0
 1354 0166 7245     		lw	a0,28(sp)
 1355              	.LVL154:
 1356              	.L74:
 433:C:/Users/stapi/OneDrive/Desktop/GD32VW553/V1_MQTT_OK/GD32VW55X_Wifi_BLE_SDK/GD32VW55x_RELEASE_V1.0.2/MSDK/wpa_supplicant/src/tls\tlsv1_client.c **** }
 1357              		.loc 1 433 1
 1358 0168 0561     		addi	sp,sp,32
 1359              		.cfi_remember_state
 1360              		.cfi_def_cfa_offset 0
 1361 016a 17030000 		tail	__riscv_restore_12
 1361      67000300 
 1362              		.cfi_restore 27
 1363              		.cfi_restore 26
 1364              		.cfi_restore 25
 1365              		.cfi_restore 24
 1366              		.cfi_restore 23
 1367              		.cfi_restore 22
 1368              		.cfi_restore 21
 1369              		.cfi_restore 20
 1370              		.cfi_restore 19
 1371              		.cfi_restore 18
 1372              		.cfi_restore 9
 1373              		.cfi_restore 8
 1374              		.cfi_restore 1
 1375              		.cfi_def_cfa_offset -64
 1376              	.LVL155:
 1377              	.L83:
 1378              		.cfi_restore_state
 391:C:/Users/stapi/OneDrive/Desktop/GD32VW553/V1_MQTT_OK/GD32VW55X_Wifi_BLE_SDK/GD32VW55x_RELEASE_V1.0.2/MSDK/wpa_supplicant/src/tls\tlsv1_client.c **** 			if (olen < 2) {
 1379              		.loc 1 391 3 is_stmt 1
 391:C:/Users/stapi/OneDrive/Desktop/GD32VW553/V1_MQTT_OK/GD32VW55X_Wifi_BLE_SDK/GD32VW55x_RELEASE_V1.0.2/MSDK/wpa_supplicant/src/tls\tlsv1_client.c **** 			if (olen < 2) {
 1380              		.loc 1 391 6 is_stmt 0
 1381 0172 63959B05 		bne	s7,s9,.L87
 392:C:/Users/stapi/OneDrive/Desktop/GD32VW553/V1_MQTT_OK/GD32VW55X_Wifi_BLE_SDK/GD32VW55x_RELEASE_V1.0.2/MSDK/wpa_supplicant/src/tls\tlsv1_client.c **** 				wpa_printf(MSG_DEBUG, "TLSv1: Alert "
 1382              		.loc 1 392 4 is_stmt 1
 392:C:/Users/stapi/OneDrive/Desktop/GD32VW553/V1_MQTT_OK/GD32VW55X_Wifi_BLE_SDK/GD32VW55x_RELEASE_V1.0.2/MSDK/wpa_supplicant/src/tls\tlsv1_client.c **** 				wpa_printf(MSG_DEBUG, "TLSv1: Alert "
 1383              		.loc 1 392 7 is_stmt 0
 1384 0176 6247     		lw	a4,24(sp)
 1385 0178 636EEB00 		bgtu	a4,s6,.L88
 393:C:/Users/stapi/OneDrive/Desktop/GD32VW553/V1_MQTT_OK/GD32VW55X_Wifi_BLE_SDK/GD32VW55x_RELEASE_V1.0.2/MSDK/wpa_supplicant/src/tls\tlsv1_client.c **** 					   "underflow");
 1386              		.loc 1 393 5 is_stmt 1
 1387 017c B7050000 		lui	a1,%hi(.LC13)
 1388 0180 93850500 		addi	a1,a1,%lo(.LC13)
 1389 0184 0945     		li	a0,2
 1390              	.LVL156:
 1391 0186 97000000 		call	wpa_printf
 1391      E7800000 
 1392              	.LVL157:
 395:C:/Users/stapi/OneDrive/Desktop/GD32VW553/V1_MQTT_OK/GD32VW55X_Wifi_BLE_SDK/GD32VW55x_RELEASE_V1.0.2/MSDK/wpa_supplicant/src/tls\tlsv1_client.c **** 				goto fail;
 1393              		.loc 1 395 5
 395:C:/Users/stapi/OneDrive/Desktop/GD32VW553/V1_MQTT_OK/GD32VW55X_Wifi_BLE_SDK/GD32VW55x_RELEASE_V1.0.2/MSDK/wpa_supplicant/src/tls\tlsv1_client.c **** 				goto fail;
 1394              		.loc 1 395 11 is_stmt 0
 1395 018e 93072003 		li	a5,50
 1396 0192 5DBD     		j	.L110
 1397              	.LVL158:
 1398              	.L88:
 398:C:/Users/stapi/OneDrive/Desktop/GD32VW553/V1_MQTT_OK/GD32VW55X_Wifi_BLE_SDK/GD32VW55x_RELEASE_V1.0.2/MSDK/wpa_supplicant/src/tls\tlsv1_client.c **** 				   out_pos[0], out_pos[1]);
 1399              		.loc 1 398 4 is_stmt 1
 1400 0194 83C61900 		lbu	a3,1(s3)
 1401 0198 03C60900 		lbu	a2,0(s3)
 1402 019c 93850D00 		addi	a1,s11,%lo(.LC14)
 1403 01a0 0945     		li	a0,2
 1404              	.LVL159:
 1405 01a2 97000000 		call	wpa_printf
 1405      E7800000 
 1406              	.LVL160:
 400:C:/Users/stapi/OneDrive/Desktop/GD32VW553/V1_MQTT_OK/GD32VW55X_Wifi_BLE_SDK/GD32VW55x_RELEASE_V1.0.2/MSDK/wpa_supplicant/src/tls\tlsv1_client.c **** 				/* Continue processing */
 1407              		.loc 1 400 4
 400:C:/Users/stapi/OneDrive/Desktop/GD32VW553/V1_MQTT_OK/GD32VW55X_Wifi_BLE_SDK/GD32VW55x_RELEASE_V1.0.2/MSDK/wpa_supplicant/src/tls\tlsv1_client.c **** 				/* Continue processing */
 1408              		.loc 1 400 7 is_stmt 0
 1409 01aa 03C70900 		lbu	a4,0(s3)
 1410 01ae 63146701 		bne	a4,s6,.L89
 1411              	.L109:
 420:C:/Users/stapi/OneDrive/Desktop/GD32VW553/V1_MQTT_OK/GD32VW55X_Wifi_BLE_SDK/GD32VW55x_RELEASE_V1.0.2/MSDK/wpa_supplicant/src/tls\tlsv1_client.c **** 	}
 1412              		.loc 1 420 3 is_stmt 1
 420:C:/Users/stapi/OneDrive/Desktop/GD32VW553/V1_MQTT_OK/GD32VW55X_Wifi_BLE_SDK/GD32VW55x_RELEASE_V1.0.2/MSDK/wpa_supplicant/src/tls\tlsv1_client.c **** 	}
 1413              		.loc 1 420 7 is_stmt 0
 1414 01b2 6294     		add	s0,s0,s8
 1415              	.LVL161:
 1416 01b4 C9BD     		j	.L80
 1417              	.L89:
 406:C:/Users/stapi/OneDrive/Desktop/GD32VW553/V1_MQTT_OK/GD32VW55X_Wifi_BLE_SDK/GD32VW55x_RELEASE_V1.0.2/MSDK/wpa_supplicant/src/tls\tlsv1_client.c **** 			goto fail;
 1418              		.loc 1 406 4 is_stmt 1
 406:C:/Users/stapi/OneDrive/Desktop/GD32VW553/V1_MQTT_OK/GD32VW55X_Wifi_BLE_SDK/GD32VW55x_RELEASE_V1.0.2/MSDK/wpa_supplicant/src/tls\tlsv1_client.c **** 			goto fail;
 1419              		.loc 1 406 10 is_stmt 0
 1420 01b6 83C71900 		lbu	a5,1(s3)
 1421 01ba 79B5     		j	.L110
 1422              	.LVL162:
 1423              	.L87:
 410:C:/Users/stapi/OneDrive/Desktop/GD32VW553/V1_MQTT_OK/GD32VW55X_Wifi_BLE_SDK/GD32VW55x_RELEASE_V1.0.2/MSDK/wpa_supplicant/src/tls\tlsv1_client.c **** 			wpa_printf(MSG_DEBUG, "TLSv1: Unexpected content type "
 1424              		.loc 1 410 3 is_stmt 1
 410:C:/Users/stapi/OneDrive/Desktop/GD32VW553/V1_MQTT_OK/GD32VW55X_Wifi_BLE_SDK/GD32VW55x_RELEASE_V1.0.2/MSDK/wpa_supplicant/src/tls\tlsv1_client.c **** 			wpa_printf(MSG_DEBUG, "TLSv1: Unexpected content type "
 1425              		.loc 1 410 6 is_stmt 0
 1426 01bc 638FAB01 		beq	s7,s10,.L91
 411:C:/Users/stapi/OneDrive/Desktop/GD32VW553/V1_MQTT_OK/GD32VW55X_Wifi_BLE_SDK/GD32VW55x_RELEASE_V1.0.2/MSDK/wpa_supplicant/src/tls\tlsv1_client.c **** 				   "0x%x when decrypting application data",
 1427              		.loc 1 411 4 is_stmt 1
 1428 01c0 03460400 		lbu	a2,0(s0)
 1429 01c4 B7050000 		lui	a1,%hi(.LC15)
 1430 01c8 93850500 		addi	a1,a1,%lo(.LC15)
 1431 01cc 0945     		li	a0,2
 1432              	.LVL163:
 1433 01ce 97000000 		call	wpa_printf
 1433      E7800000 
 1434              	.LVL164:
 414:C:/Users/stapi/OneDrive/Desktop/GD32VW553/V1_MQTT_OK/GD32VW55X_Wifi_BLE_SDK/GD32VW55x_RELEASE_V1.0.2/MSDK/wpa_supplicant/src/tls\tlsv1_client.c **** 			goto fail;
 1435              		.loc 1 414 4
 414:C:/Users/stapi/OneDrive/Desktop/GD32VW553/V1_MQTT_OK/GD32VW55X_Wifi_BLE_SDK/GD32VW55x_RELEASE_V1.0.2/MSDK/wpa_supplicant/src/tls\tlsv1_client.c **** 			goto fail;
 1436              		.loc 1 414 10 is_stmt 0
 1437 01d6 A947     		li	a5,10
 1438 01d8 85BD     		j	.L110
 1439              	.LVL165:
 1440              	.L91:
 418:C:/Users/stapi/OneDrive/Desktop/GD32VW553/V1_MQTT_OK/GD32VW55X_Wifi_BLE_SDK/GD32VW55x_RELEASE_V1.0.2/MSDK/wpa_supplicant/src/tls\tlsv1_client.c **** 
 1441              		.loc 1 418 3 is_stmt 1
 1442 01da E245     		lw	a1,24(sp)
 1443 01dc 7245     		lw	a0,28(sp)
 1444              	.LVL166:
 1445 01de 97000000 		call	wpabuf_put
 1445      E7800000 
 1446              	.LVL167:
 1447 01e6 F1B7     		j	.L109
 1448              		.cfi_endproc
 1449              	.LFE93:
 1451              		.section	.text.tlsv1_client_global_init,"ax",@progbits
 1452              		.align	1
 1453              		.globl	tlsv1_client_global_init
 1455              	tlsv1_client_global_init:
 1456              	.LFB94:
 434:C:/Users/stapi/OneDrive/Desktop/GD32VW553/V1_MQTT_OK/GD32VW55X_Wifi_BLE_SDK/GD32VW55x_RELEASE_V1.0.2/MSDK/wpa_supplicant/src/tls\tlsv1_client.c **** 
 435:C:/Users/stapi/OneDrive/Desktop/GD32VW553/V1_MQTT_OK/GD32VW55X_Wifi_BLE_SDK/GD32VW55x_RELEASE_V1.0.2/MSDK/wpa_supplicant/src/tls\tlsv1_client.c **** 
 436:C:/Users/stapi/OneDrive/Desktop/GD32VW553/V1_MQTT_OK/GD32VW55X_Wifi_BLE_SDK/GD32VW55x_RELEASE_V1.0.2/MSDK/wpa_supplicant/src/tls\tlsv1_client.c **** /**
 437:C:/Users/stapi/OneDrive/Desktop/GD32VW553/V1_MQTT_OK/GD32VW55X_Wifi_BLE_SDK/GD32VW55x_RELEASE_V1.0.2/MSDK/wpa_supplicant/src/tls\tlsv1_client.c ****  * tlsv1_client_global_init - Initialize TLSv1 client
 438:C:/Users/stapi/OneDrive/Desktop/GD32VW553/V1_MQTT_OK/GD32VW55X_Wifi_BLE_SDK/GD32VW55x_RELEASE_V1.0.2/MSDK/wpa_supplicant/src/tls\tlsv1_client.c ****  * Returns: 0 on success, -1 on failure
 439:C:/Users/stapi/OneDrive/Desktop/GD32VW553/V1_MQTT_OK/GD32VW55X_Wifi_BLE_SDK/GD32VW55x_RELEASE_V1.0.2/MSDK/wpa_supplicant/src/tls\tlsv1_client.c ****  *
 440:C:/Users/stapi/OneDrive/Desktop/GD32VW553/V1_MQTT_OK/GD32VW55X_Wifi_BLE_SDK/GD32VW55x_RELEASE_V1.0.2/MSDK/wpa_supplicant/src/tls\tlsv1_client.c ****  * This function must be called before using any other TLSv1 client functions.
 441:C:/Users/stapi/OneDrive/Desktop/GD32VW553/V1_MQTT_OK/GD32VW55X_Wifi_BLE_SDK/GD32VW55x_RELEASE_V1.0.2/MSDK/wpa_supplicant/src/tls\tlsv1_client.c ****  */
 442:C:/Users/stapi/OneDrive/Desktop/GD32VW553/V1_MQTT_OK/GD32VW55X_Wifi_BLE_SDK/GD32VW55x_RELEASE_V1.0.2/MSDK/wpa_supplicant/src/tls\tlsv1_client.c **** int tlsv1_client_global_init(void)
 443:C:/Users/stapi/OneDrive/Desktop/GD32VW553/V1_MQTT_OK/GD32VW55X_Wifi_BLE_SDK/GD32VW55x_RELEASE_V1.0.2/MSDK/wpa_supplicant/src/tls\tlsv1_client.c **** {
 1457              		.loc 1 443 1
 1458              		.cfi_startproc
 444:C:/Users/stapi/OneDrive/Desktop/GD32VW553/V1_MQTT_OK/GD32VW55X_Wifi_BLE_SDK/GD32VW55x_RELEASE_V1.0.2/MSDK/wpa_supplicant/src/tls\tlsv1_client.c **** 	return crypto_global_init();
 1459              		.loc 1 444 2
 1460              		.loc 1 444 9 is_stmt 0
 1461 0000 17030000 		tail	crypto_global_init
 1461      67000300 
 1462              	.LVL168:
 1463              		.cfi_endproc
 1464              	.LFE94:
 1466              		.section	.text.tlsv1_client_global_deinit,"ax",@progbits
 1467              		.align	1
 1468              		.globl	tlsv1_client_global_deinit
 1470              	tlsv1_client_global_deinit:
 1471              	.LFB95:
 445:C:/Users/stapi/OneDrive/Desktop/GD32VW553/V1_MQTT_OK/GD32VW55X_Wifi_BLE_SDK/GD32VW55x_RELEASE_V1.0.2/MSDK/wpa_supplicant/src/tls\tlsv1_client.c **** }
 446:C:/Users/stapi/OneDrive/Desktop/GD32VW553/V1_MQTT_OK/GD32VW55X_Wifi_BLE_SDK/GD32VW55x_RELEASE_V1.0.2/MSDK/wpa_supplicant/src/tls\tlsv1_client.c **** 
 447:C:/Users/stapi/OneDrive/Desktop/GD32VW553/V1_MQTT_OK/GD32VW55X_Wifi_BLE_SDK/GD32VW55x_RELEASE_V1.0.2/MSDK/wpa_supplicant/src/tls\tlsv1_client.c **** 
 448:C:/Users/stapi/OneDrive/Desktop/GD32VW553/V1_MQTT_OK/GD32VW55X_Wifi_BLE_SDK/GD32VW55x_RELEASE_V1.0.2/MSDK/wpa_supplicant/src/tls\tlsv1_client.c **** /**
 449:C:/Users/stapi/OneDrive/Desktop/GD32VW553/V1_MQTT_OK/GD32VW55X_Wifi_BLE_SDK/GD32VW55x_RELEASE_V1.0.2/MSDK/wpa_supplicant/src/tls\tlsv1_client.c ****  * tlsv1_client_global_deinit - Deinitialize TLSv1 client
 450:C:/Users/stapi/OneDrive/Desktop/GD32VW553/V1_MQTT_OK/GD32VW55X_Wifi_BLE_SDK/GD32VW55x_RELEASE_V1.0.2/MSDK/wpa_supplicant/src/tls\tlsv1_client.c ****  *
 451:C:/Users/stapi/OneDrive/Desktop/GD32VW553/V1_MQTT_OK/GD32VW55X_Wifi_BLE_SDK/GD32VW55x_RELEASE_V1.0.2/MSDK/wpa_supplicant/src/tls\tlsv1_client.c ****  * This function can be used to deinitialize the TLSv1 client that was
 452:C:/Users/stapi/OneDrive/Desktop/GD32VW553/V1_MQTT_OK/GD32VW55X_Wifi_BLE_SDK/GD32VW55x_RELEASE_V1.0.2/MSDK/wpa_supplicant/src/tls\tlsv1_client.c ****  * initialized by calling tlsv1_client_global_init(). No TLSv1 client functions
 453:C:/Users/stapi/OneDrive/Desktop/GD32VW553/V1_MQTT_OK/GD32VW55X_Wifi_BLE_SDK/GD32VW55x_RELEASE_V1.0.2/MSDK/wpa_supplicant/src/tls\tlsv1_client.c ****  * can be called after this before calling tlsv1_client_global_init() again.
 454:C:/Users/stapi/OneDrive/Desktop/GD32VW553/V1_MQTT_OK/GD32VW55X_Wifi_BLE_SDK/GD32VW55x_RELEASE_V1.0.2/MSDK/wpa_supplicant/src/tls\tlsv1_client.c ****  */
 455:C:/Users/stapi/OneDrive/Desktop/GD32VW553/V1_MQTT_OK/GD32VW55X_Wifi_BLE_SDK/GD32VW55x_RELEASE_V1.0.2/MSDK/wpa_supplicant/src/tls\tlsv1_client.c **** void tlsv1_client_global_deinit(void)
 456:C:/Users/stapi/OneDrive/Desktop/GD32VW553/V1_MQTT_OK/GD32VW55X_Wifi_BLE_SDK/GD32VW55x_RELEASE_V1.0.2/MSDK/wpa_supplicant/src/tls\tlsv1_client.c **** {
 1472              		.loc 1 456 1 is_stmt 1
 1473              		.cfi_startproc
 457:C:/Users/stapi/OneDrive/Desktop/GD32VW553/V1_MQTT_OK/GD32VW55X_Wifi_BLE_SDK/GD32VW55x_RELEASE_V1.0.2/MSDK/wpa_supplicant/src/tls\tlsv1_client.c **** 	crypto_global_deinit();
 1474              		.loc 1 457 2
 1475 0000 17030000 		tail	crypto_global_deinit
 1475      67000300 
 1476              	.LVL169:
 1477              		.cfi_endproc
 1478              	.LFE95:
 1480              		.section	.rodata.tlsv1_client_init.str1.4,"aMS",@progbits,1
 1481              		.align	2
 1482              	.LC16:
 1483 0000 544C5376 		.string	"TLSv1: Failed to initialize verify hash"
 1483      313A2046 
 1483      61696C65 
 1483      6420746F 
 1483      20696E69 
 1484              		.section	.text.tlsv1_client_init,"ax",@progbits
 1485              		.align	1
 1486              		.globl	tlsv1_client_init
 1488              	tlsv1_client_init:
 1489              	.LFB96:
 458:C:/Users/stapi/OneDrive/Desktop/GD32VW553/V1_MQTT_OK/GD32VW55X_Wifi_BLE_SDK/GD32VW55x_RELEASE_V1.0.2/MSDK/wpa_supplicant/src/tls\tlsv1_client.c **** }
 459:C:/Users/stapi/OneDrive/Desktop/GD32VW553/V1_MQTT_OK/GD32VW55X_Wifi_BLE_SDK/GD32VW55x_RELEASE_V1.0.2/MSDK/wpa_supplicant/src/tls\tlsv1_client.c **** 
 460:C:/Users/stapi/OneDrive/Desktop/GD32VW553/V1_MQTT_OK/GD32VW55X_Wifi_BLE_SDK/GD32VW55x_RELEASE_V1.0.2/MSDK/wpa_supplicant/src/tls\tlsv1_client.c **** 
 461:C:/Users/stapi/OneDrive/Desktop/GD32VW553/V1_MQTT_OK/GD32VW55X_Wifi_BLE_SDK/GD32VW55x_RELEASE_V1.0.2/MSDK/wpa_supplicant/src/tls\tlsv1_client.c **** /**
 462:C:/Users/stapi/OneDrive/Desktop/GD32VW553/V1_MQTT_OK/GD32VW55X_Wifi_BLE_SDK/GD32VW55x_RELEASE_V1.0.2/MSDK/wpa_supplicant/src/tls\tlsv1_client.c ****  * tlsv1_client_init - Initialize TLSv1 client connection
 463:C:/Users/stapi/OneDrive/Desktop/GD32VW553/V1_MQTT_OK/GD32VW55X_Wifi_BLE_SDK/GD32VW55x_RELEASE_V1.0.2/MSDK/wpa_supplicant/src/tls\tlsv1_client.c ****  * Returns: Pointer to TLSv1 client connection data or %NULL on failure
 464:C:/Users/stapi/OneDrive/Desktop/GD32VW553/V1_MQTT_OK/GD32VW55X_Wifi_BLE_SDK/GD32VW55x_RELEASE_V1.0.2/MSDK/wpa_supplicant/src/tls\tlsv1_client.c ****  */
 465:C:/Users/stapi/OneDrive/Desktop/GD32VW553/V1_MQTT_OK/GD32VW55X_Wifi_BLE_SDK/GD32VW55x_RELEASE_V1.0.2/MSDK/wpa_supplicant/src/tls\tlsv1_client.c **** struct tlsv1_client * tlsv1_client_init(void)
 466:C:/Users/stapi/OneDrive/Desktop/GD32VW553/V1_MQTT_OK/GD32VW55X_Wifi_BLE_SDK/GD32VW55x_RELEASE_V1.0.2/MSDK/wpa_supplicant/src/tls\tlsv1_client.c **** {
 1490              		.loc 1 466 1
 1491              		.cfi_startproc
 1492 0000 17030000 		call	t0,__riscv_save_1
 1492      E7020300 
 1493              		.cfi_offset 8, -8
 1494              		.cfi_offset 1, -4
 1495              		.cfi_def_cfa_offset 16
 467:C:/Users/stapi/OneDrive/Desktop/GD32VW553/V1_MQTT_OK/GD32VW55X_Wifi_BLE_SDK/GD32VW55x_RELEASE_V1.0.2/MSDK/wpa_supplicant/src/tls\tlsv1_client.c **** 	struct tlsv1_client *conn;
 1496              		.loc 1 467 2
 468:C:/Users/stapi/OneDrive/Desktop/GD32VW553/V1_MQTT_OK/GD32VW55X_Wifi_BLE_SDK/GD32VW55x_RELEASE_V1.0.2/MSDK/wpa_supplicant/src/tls\tlsv1_client.c **** 	size_t count;
 1497              		.loc 1 468 2
 469:C:/Users/stapi/OneDrive/Desktop/GD32VW553/V1_MQTT_OK/GD32VW55X_Wifi_BLE_SDK/GD32VW55x_RELEASE_V1.0.2/MSDK/wpa_supplicant/src/tls\tlsv1_client.c **** 	u16 *suites;
 1498              		.loc 1 469 2
 470:C:/Users/stapi/OneDrive/Desktop/GD32VW553/V1_MQTT_OK/GD32VW55X_Wifi_BLE_SDK/GD32VW55x_RELEASE_V1.0.2/MSDK/wpa_supplicant/src/tls\tlsv1_client.c **** 
 471:C:/Users/stapi/OneDrive/Desktop/GD32VW553/V1_MQTT_OK/GD32VW55X_Wifi_BLE_SDK/GD32VW55x_RELEASE_V1.0.2/MSDK/wpa_supplicant/src/tls\tlsv1_client.c **** 	conn = os_zalloc(sizeof(*conn));
 1499              		.loc 1 471 2
 1500              		.loc 1 471 9 is_stmt 0
 1501 0008 13054022 		li	a0,548
 1502 000c 97000000 		call	os_zalloc
 1502      E7800000 
 1503              	.LVL170:
 1504 0014 2A84     		mv	s0,a0
 1505              	.LVL171:
 472:C:/Users/stapi/OneDrive/Desktop/GD32VW553/V1_MQTT_OK/GD32VW55X_Wifi_BLE_SDK/GD32VW55x_RELEASE_V1.0.2/MSDK/wpa_supplicant/src/tls\tlsv1_client.c **** 	if (conn == NULL)
 1506              		.loc 1 472 2 is_stmt 1
 1507              		.loc 1 472 5 is_stmt 0
 1508 0016 15C9     		beq	a0,zero,.L117
 473:C:/Users/stapi/OneDrive/Desktop/GD32VW553/V1_MQTT_OK/GD32VW55X_Wifi_BLE_SDK/GD32VW55x_RELEASE_V1.0.2/MSDK/wpa_supplicant/src/tls\tlsv1_client.c **** 		return NULL;
 474:C:/Users/stapi/OneDrive/Desktop/GD32VW553/V1_MQTT_OK/GD32VW55X_Wifi_BLE_SDK/GD32VW55x_RELEASE_V1.0.2/MSDK/wpa_supplicant/src/tls\tlsv1_client.c **** 
 475:C:/Users/stapi/OneDrive/Desktop/GD32VW553/V1_MQTT_OK/GD32VW55X_Wifi_BLE_SDK/GD32VW55x_RELEASE_V1.0.2/MSDK/wpa_supplicant/src/tls\tlsv1_client.c **** 	conn->state = CLIENT_HELLO;
 1509              		.loc 1 475 2 is_stmt 1
 1510              		.loc 1 475 14 is_stmt 0
 1511 0018 23200500 		sw	zero,0(a0)
 476:C:/Users/stapi/OneDrive/Desktop/GD32VW553/V1_MQTT_OK/GD32VW55X_Wifi_BLE_SDK/GD32VW55x_RELEASE_V1.0.2/MSDK/wpa_supplicant/src/tls\tlsv1_client.c **** 
 477:C:/Users/stapi/OneDrive/Desktop/GD32VW553/V1_MQTT_OK/GD32VW55X_Wifi_BLE_SDK/GD32VW55x_RELEASE_V1.0.2/MSDK/wpa_supplicant/src/tls\tlsv1_client.c **** 	if (tls_verify_hash_init(&conn->verify) < 0) {
 1512              		.loc 1 477 2 is_stmt 1
 1513              		.loc 1 477 6 is_stmt 0
 1514 001c 13050518 		addi	a0,a0,384
 1515 0020 97000000 		call	tls_verify_hash_init
 1515      E7800000 
 1516              	.LVL172:
 1517              		.loc 1 477 5
 1518 0028 63560502 		bge	a0,zero,.L119
 478:C:/Users/stapi/OneDrive/Desktop/GD32VW553/V1_MQTT_OK/GD32VW55X_Wifi_BLE_SDK/GD32VW55x_RELEASE_V1.0.2/MSDK/wpa_supplicant/src/tls\tlsv1_client.c **** 		wpa_printf(MSG_DEBUG, "TLSv1: Failed to initialize verify "
 1519              		.loc 1 478 3 is_stmt 1
 1520 002c B7050000 		lui	a1,%hi(.LC16)
 1521 0030 93850500 		addi	a1,a1,%lo(.LC16)
 1522 0034 0945     		li	a0,2
 1523 0036 97000000 		call	wpa_printf
 1523      E7800000 
 1524              	.LVL173:
 479:C:/Users/stapi/OneDrive/Desktop/GD32VW553/V1_MQTT_OK/GD32VW55X_Wifi_BLE_SDK/GD32VW55x_RELEASE_V1.0.2/MSDK/wpa_supplicant/src/tls\tlsv1_client.c **** 			   "hash");
 480:C:/Users/stapi/OneDrive/Desktop/GD32VW553/V1_MQTT_OK/GD32VW55X_Wifi_BLE_SDK/GD32VW55x_RELEASE_V1.0.2/MSDK/wpa_supplicant/src/tls\tlsv1_client.c **** 		os_free(conn);
 1525              		.loc 1 480 3
 1526 003e 2285     		mv	a0,s0
 1527 0040 97000000 		call	os_free
 1527      E7800000 
 1528              	.LVL174:
 481:C:/Users/stapi/OneDrive/Desktop/GD32VW553/V1_MQTT_OK/GD32VW55X_Wifi_BLE_SDK/GD32VW55x_RELEASE_V1.0.2/MSDK/wpa_supplicant/src/tls\tlsv1_client.c **** 		return NULL;
 1529              		.loc 1 481 3
 1530              		.loc 1 481 10 is_stmt 0
 1531 0048 0144     		li	s0,0
 1532              	.LVL175:
 1533              	.L117:
 482:C:/Users/stapi/OneDrive/Desktop/GD32VW553/V1_MQTT_OK/GD32VW55X_Wifi_BLE_SDK/GD32VW55x_RELEASE_V1.0.2/MSDK/wpa_supplicant/src/tls\tlsv1_client.c **** 	}
 483:C:/Users/stapi/OneDrive/Desktop/GD32VW553/V1_MQTT_OK/GD32VW55X_Wifi_BLE_SDK/GD32VW55x_RELEASE_V1.0.2/MSDK/wpa_supplicant/src/tls\tlsv1_client.c **** 
 484:C:/Users/stapi/OneDrive/Desktop/GD32VW553/V1_MQTT_OK/GD32VW55X_Wifi_BLE_SDK/GD32VW55x_RELEASE_V1.0.2/MSDK/wpa_supplicant/src/tls\tlsv1_client.c **** 	count = 0;
 485:C:/Users/stapi/OneDrive/Desktop/GD32VW553/V1_MQTT_OK/GD32VW55X_Wifi_BLE_SDK/GD32VW55x_RELEASE_V1.0.2/MSDK/wpa_supplicant/src/tls\tlsv1_client.c **** 	suites = conn->cipher_suites;
 486:C:/Users/stapi/OneDrive/Desktop/GD32VW553/V1_MQTT_OK/GD32VW55X_Wifi_BLE_SDK/GD32VW55x_RELEASE_V1.0.2/MSDK/wpa_supplicant/src/tls\tlsv1_client.c **** 	suites[count++] = TLS_DHE_RSA_WITH_AES_256_CBC_SHA256;
 487:C:/Users/stapi/OneDrive/Desktop/GD32VW553/V1_MQTT_OK/GD32VW55X_Wifi_BLE_SDK/GD32VW55x_RELEASE_V1.0.2/MSDK/wpa_supplicant/src/tls\tlsv1_client.c **** 	suites[count++] = TLS_RSA_WITH_AES_256_CBC_SHA256;
 488:C:/Users/stapi/OneDrive/Desktop/GD32VW553/V1_MQTT_OK/GD32VW55X_Wifi_BLE_SDK/GD32VW55x_RELEASE_V1.0.2/MSDK/wpa_supplicant/src/tls\tlsv1_client.c **** 	suites[count++] = TLS_DHE_RSA_WITH_AES_256_CBC_SHA;
 489:C:/Users/stapi/OneDrive/Desktop/GD32VW553/V1_MQTT_OK/GD32VW55X_Wifi_BLE_SDK/GD32VW55x_RELEASE_V1.0.2/MSDK/wpa_supplicant/src/tls\tlsv1_client.c **** 	suites[count++] = TLS_RSA_WITH_AES_256_CBC_SHA;
 490:C:/Users/stapi/OneDrive/Desktop/GD32VW553/V1_MQTT_OK/GD32VW55X_Wifi_BLE_SDK/GD32VW55x_RELEASE_V1.0.2/MSDK/wpa_supplicant/src/tls\tlsv1_client.c **** 	suites[count++] = TLS_DHE_RSA_WITH_AES_128_CBC_SHA256;
 491:C:/Users/stapi/OneDrive/Desktop/GD32VW553/V1_MQTT_OK/GD32VW55X_Wifi_BLE_SDK/GD32VW55x_RELEASE_V1.0.2/MSDK/wpa_supplicant/src/tls\tlsv1_client.c **** 	suites[count++] = TLS_RSA_WITH_AES_128_CBC_SHA256;
 492:C:/Users/stapi/OneDrive/Desktop/GD32VW553/V1_MQTT_OK/GD32VW55X_Wifi_BLE_SDK/GD32VW55x_RELEASE_V1.0.2/MSDK/wpa_supplicant/src/tls\tlsv1_client.c **** 	suites[count++] = TLS_DHE_RSA_WITH_AES_128_CBC_SHA;
 493:C:/Users/stapi/OneDrive/Desktop/GD32VW553/V1_MQTT_OK/GD32VW55X_Wifi_BLE_SDK/GD32VW55x_RELEASE_V1.0.2/MSDK/wpa_supplicant/src/tls\tlsv1_client.c **** 	suites[count++] = TLS_RSA_WITH_AES_128_CBC_SHA;
 494:C:/Users/stapi/OneDrive/Desktop/GD32VW553/V1_MQTT_OK/GD32VW55X_Wifi_BLE_SDK/GD32VW55x_RELEASE_V1.0.2/MSDK/wpa_supplicant/src/tls\tlsv1_client.c **** 	suites[count++] = TLS_DHE_RSA_WITH_3DES_EDE_CBC_SHA;
 495:C:/Users/stapi/OneDrive/Desktop/GD32VW553/V1_MQTT_OK/GD32VW55X_Wifi_BLE_SDK/GD32VW55x_RELEASE_V1.0.2/MSDK/wpa_supplicant/src/tls\tlsv1_client.c **** 	suites[count++] = TLS_RSA_WITH_3DES_EDE_CBC_SHA;
 496:C:/Users/stapi/OneDrive/Desktop/GD32VW553/V1_MQTT_OK/GD32VW55X_Wifi_BLE_SDK/GD32VW55x_RELEASE_V1.0.2/MSDK/wpa_supplicant/src/tls\tlsv1_client.c **** 	suites[count++] = TLS_RSA_WITH_RC4_128_SHA;
 497:C:/Users/stapi/OneDrive/Desktop/GD32VW553/V1_MQTT_OK/GD32VW55X_Wifi_BLE_SDK/GD32VW55x_RELEASE_V1.0.2/MSDK/wpa_supplicant/src/tls\tlsv1_client.c **** 	suites[count++] = TLS_RSA_WITH_RC4_128_MD5;
 498:C:/Users/stapi/OneDrive/Desktop/GD32VW553/V1_MQTT_OK/GD32VW55X_Wifi_BLE_SDK/GD32VW55x_RELEASE_V1.0.2/MSDK/wpa_supplicant/src/tls\tlsv1_client.c **** 	conn->num_cipher_suites = count;
 499:C:/Users/stapi/OneDrive/Desktop/GD32VW553/V1_MQTT_OK/GD32VW55X_Wifi_BLE_SDK/GD32VW55x_RELEASE_V1.0.2/MSDK/wpa_supplicant/src/tls\tlsv1_client.c **** 
 500:C:/Users/stapi/OneDrive/Desktop/GD32VW553/V1_MQTT_OK/GD32VW55X_Wifi_BLE_SDK/GD32VW55x_RELEASE_V1.0.2/MSDK/wpa_supplicant/src/tls\tlsv1_client.c **** 	conn->rl.tls_version = TLS_VERSION;
 501:C:/Users/stapi/OneDrive/Desktop/GD32VW553/V1_MQTT_OK/GD32VW55X_Wifi_BLE_SDK/GD32VW55x_RELEASE_V1.0.2/MSDK/wpa_supplicant/src/tls\tlsv1_client.c **** 
 502:C:/Users/stapi/OneDrive/Desktop/GD32VW553/V1_MQTT_OK/GD32VW55X_Wifi_BLE_SDK/GD32VW55x_RELEASE_V1.0.2/MSDK/wpa_supplicant/src/tls\tlsv1_client.c **** 	return conn;
 503:C:/Users/stapi/OneDrive/Desktop/GD32VW553/V1_MQTT_OK/GD32VW55X_Wifi_BLE_SDK/GD32VW55x_RELEASE_V1.0.2/MSDK/wpa_supplicant/src/tls\tlsv1_client.c **** }
 1534              		.loc 1 503 1
 1535 004a 2285     		mv	a0,s0
 1536 004c 17030000 		tail	__riscv_restore_1
 1536      67000300 
 1537              		.cfi_remember_state
 1538              		.cfi_restore 8
 1539              		.cfi_restore 1
 1540              		.cfi_def_cfa_offset 0
 1541              	.LVL176:
 1542              	.L119:
 1543              		.cfi_restore_state
 484:C:/Users/stapi/OneDrive/Desktop/GD32VW553/V1_MQTT_OK/GD32VW55X_Wifi_BLE_SDK/GD32VW55x_RELEASE_V1.0.2/MSDK/wpa_supplicant/src/tls\tlsv1_client.c **** 	suites = conn->cipher_suites;
 1544              		.loc 1 484 2 is_stmt 1
 485:C:/Users/stapi/OneDrive/Desktop/GD32VW553/V1_MQTT_OK/GD32VW55X_Wifi_BLE_SDK/GD32VW55x_RELEASE_V1.0.2/MSDK/wpa_supplicant/src/tls\tlsv1_client.c **** 	suites[count++] = TLS_DHE_RSA_WITH_AES_256_CBC_SHA256;
 1545              		.loc 1 485 2
 486:C:/Users/stapi/OneDrive/Desktop/GD32VW553/V1_MQTT_OK/GD32VW55X_Wifi_BLE_SDK/GD32VW55x_RELEASE_V1.0.2/MSDK/wpa_supplicant/src/tls\tlsv1_client.c **** 	suites[count++] = TLS_RSA_WITH_AES_256_CBC_SHA256;
 1546              		.loc 1 486 2
 486:C:/Users/stapi/OneDrive/Desktop/GD32VW553/V1_MQTT_OK/GD32VW55X_Wifi_BLE_SDK/GD32VW55x_RELEASE_V1.0.2/MSDK/wpa_supplicant/src/tls\tlsv1_client.c **** 	suites[count++] = TLS_RSA_WITH_AES_256_CBC_SHA256;
 1547              		.loc 1 486 18 is_stmt 0
 1548 0054 9307B006 		li	a5,107
 1549 0058 2312F41A 		sh	a5,420(s0)
 487:C:/Users/stapi/OneDrive/Desktop/GD32VW553/V1_MQTT_OK/GD32VW55X_Wifi_BLE_SDK/GD32VW55x_RELEASE_V1.0.2/MSDK/wpa_supplicant/src/tls\tlsv1_client.c **** 	suites[count++] = TLS_DHE_RSA_WITH_AES_256_CBC_SHA;
 1550              		.loc 1 487 2 is_stmt 1
 1551              	.LVL177:
 487:C:/Users/stapi/OneDrive/Desktop/GD32VW553/V1_MQTT_OK/GD32VW55X_Wifi_BLE_SDK/GD32VW55x_RELEASE_V1.0.2/MSDK/wpa_supplicant/src/tls\tlsv1_client.c **** 	suites[count++] = TLS_DHE_RSA_WITH_AES_256_CBC_SHA;
 1552              		.loc 1 487 18 is_stmt 0
 1553 005c 9307D003 		li	a5,61
 1554 0060 2313F41A 		sh	a5,422(s0)
 488:C:/Users/stapi/OneDrive/Desktop/GD32VW553/V1_MQTT_OK/GD32VW55X_Wifi_BLE_SDK/GD32VW55x_RELEASE_V1.0.2/MSDK/wpa_supplicant/src/tls\tlsv1_client.c **** 	suites[count++] = TLS_RSA_WITH_AES_256_CBC_SHA;
 1555              		.loc 1 488 2 is_stmt 1
 1556              	.LVL178:
 488:C:/Users/stapi/OneDrive/Desktop/GD32VW553/V1_MQTT_OK/GD32VW55X_Wifi_BLE_SDK/GD32VW55x_RELEASE_V1.0.2/MSDK/wpa_supplicant/src/tls\tlsv1_client.c **** 	suites[count++] = TLS_RSA_WITH_AES_256_CBC_SHA;
 1557              		.loc 1 488 18 is_stmt 0
 1558 0064 93079003 		li	a5,57
 1559 0068 2314F41A 		sh	a5,424(s0)
 489:C:/Users/stapi/OneDrive/Desktop/GD32VW553/V1_MQTT_OK/GD32VW55X_Wifi_BLE_SDK/GD32VW55x_RELEASE_V1.0.2/MSDK/wpa_supplicant/src/tls\tlsv1_client.c **** 	suites[count++] = TLS_DHE_RSA_WITH_AES_128_CBC_SHA256;
 1560              		.loc 1 489 2 is_stmt 1
 1561              	.LVL179:
 489:C:/Users/stapi/OneDrive/Desktop/GD32VW553/V1_MQTT_OK/GD32VW55X_Wifi_BLE_SDK/GD32VW55x_RELEASE_V1.0.2/MSDK/wpa_supplicant/src/tls\tlsv1_client.c **** 	suites[count++] = TLS_DHE_RSA_WITH_AES_128_CBC_SHA256;
 1562              		.loc 1 489 18 is_stmt 0
 1563 006c 93075003 		li	a5,53
 1564 0070 2315F41A 		sh	a5,426(s0)
 490:C:/Users/stapi/OneDrive/Desktop/GD32VW553/V1_MQTT_OK/GD32VW55X_Wifi_BLE_SDK/GD32VW55x_RELEASE_V1.0.2/MSDK/wpa_supplicant/src/tls\tlsv1_client.c **** 	suites[count++] = TLS_RSA_WITH_AES_128_CBC_SHA256;
 1565              		.loc 1 490 2 is_stmt 1
 1566              	.LVL180:
 490:C:/Users/stapi/OneDrive/Desktop/GD32VW553/V1_MQTT_OK/GD32VW55X_Wifi_BLE_SDK/GD32VW55x_RELEASE_V1.0.2/MSDK/wpa_supplicant/src/tls\tlsv1_client.c **** 	suites[count++] = TLS_RSA_WITH_AES_128_CBC_SHA256;
 1567              		.loc 1 490 18 is_stmt 0
 1568 0074 93077006 		li	a5,103
 1569 0078 2316F41A 		sh	a5,428(s0)
 491:C:/Users/stapi/OneDrive/Desktop/GD32VW553/V1_MQTT_OK/GD32VW55X_Wifi_BLE_SDK/GD32VW55x_RELEASE_V1.0.2/MSDK/wpa_supplicant/src/tls\tlsv1_client.c **** 	suites[count++] = TLS_DHE_RSA_WITH_AES_128_CBC_SHA;
 1570              		.loc 1 491 2 is_stmt 1
 1571              	.LVL181:
 491:C:/Users/stapi/OneDrive/Desktop/GD32VW553/V1_MQTT_OK/GD32VW55X_Wifi_BLE_SDK/GD32VW55x_RELEASE_V1.0.2/MSDK/wpa_supplicant/src/tls\tlsv1_client.c **** 	suites[count++] = TLS_DHE_RSA_WITH_AES_128_CBC_SHA;
 1572              		.loc 1 491 18 is_stmt 0
 1573 007c 9307C003 		li	a5,60
 1574 0080 2317F41A 		sh	a5,430(s0)
 492:C:/Users/stapi/OneDrive/Desktop/GD32VW553/V1_MQTT_OK/GD32VW55X_Wifi_BLE_SDK/GD32VW55x_RELEASE_V1.0.2/MSDK/wpa_supplicant/src/tls\tlsv1_client.c **** 	suites[count++] = TLS_RSA_WITH_AES_128_CBC_SHA;
 1575              		.loc 1 492 2 is_stmt 1
 1576              	.LVL182:
 492:C:/Users/stapi/OneDrive/Desktop/GD32VW553/V1_MQTT_OK/GD32VW55X_Wifi_BLE_SDK/GD32VW55x_RELEASE_V1.0.2/MSDK/wpa_supplicant/src/tls\tlsv1_client.c **** 	suites[count++] = TLS_RSA_WITH_AES_128_CBC_SHA;
 1577              		.loc 1 492 18 is_stmt 0
 1578 0084 93073003 		li	a5,51
 1579 0088 2318F41A 		sh	a5,432(s0)
 493:C:/Users/stapi/OneDrive/Desktop/GD32VW553/V1_MQTT_OK/GD32VW55X_Wifi_BLE_SDK/GD32VW55x_RELEASE_V1.0.2/MSDK/wpa_supplicant/src/tls\tlsv1_client.c **** 	suites[count++] = TLS_DHE_RSA_WITH_3DES_EDE_CBC_SHA;
 1580              		.loc 1 493 2 is_stmt 1
 1581              	.LVL183:
 493:C:/Users/stapi/OneDrive/Desktop/GD32VW553/V1_MQTT_OK/GD32VW55X_Wifi_BLE_SDK/GD32VW55x_RELEASE_V1.0.2/MSDK/wpa_supplicant/src/tls\tlsv1_client.c **** 	suites[count++] = TLS_DHE_RSA_WITH_3DES_EDE_CBC_SHA;
 1582              		.loc 1 493 18 is_stmt 0
 1583 008c 9307F002 		li	a5,47
 1584 0090 2319F41A 		sh	a5,434(s0)
 494:C:/Users/stapi/OneDrive/Desktop/GD32VW553/V1_MQTT_OK/GD32VW55X_Wifi_BLE_SDK/GD32VW55x_RELEASE_V1.0.2/MSDK/wpa_supplicant/src/tls\tlsv1_client.c **** 	suites[count++] = TLS_RSA_WITH_3DES_EDE_CBC_SHA;
 1585              		.loc 1 494 2 is_stmt 1
 1586              	.LVL184:
 494:C:/Users/stapi/OneDrive/Desktop/GD32VW553/V1_MQTT_OK/GD32VW55X_Wifi_BLE_SDK/GD32VW55x_RELEASE_V1.0.2/MSDK/wpa_supplicant/src/tls\tlsv1_client.c **** 	suites[count++] = TLS_RSA_WITH_3DES_EDE_CBC_SHA;
 1587              		.loc 1 494 18 is_stmt 0
 1588 0094 D947     		li	a5,22
 1589 0096 231AF41A 		sh	a5,436(s0)
 495:C:/Users/stapi/OneDrive/Desktop/GD32VW553/V1_MQTT_OK/GD32VW55X_Wifi_BLE_SDK/GD32VW55x_RELEASE_V1.0.2/MSDK/wpa_supplicant/src/tls\tlsv1_client.c **** 	suites[count++] = TLS_RSA_WITH_RC4_128_SHA;
 1590              		.loc 1 495 2 is_stmt 1
 1591              	.LVL185:
 495:C:/Users/stapi/OneDrive/Desktop/GD32VW553/V1_MQTT_OK/GD32VW55X_Wifi_BLE_SDK/GD32VW55x_RELEASE_V1.0.2/MSDK/wpa_supplicant/src/tls\tlsv1_client.c **** 	suites[count++] = TLS_RSA_WITH_RC4_128_SHA;
 1592              		.loc 1 495 18 is_stmt 0
 1593 009a A947     		li	a5,10
 1594 009c 231BF41A 		sh	a5,438(s0)
 496:C:/Users/stapi/OneDrive/Desktop/GD32VW553/V1_MQTT_OK/GD32VW55X_Wifi_BLE_SDK/GD32VW55x_RELEASE_V1.0.2/MSDK/wpa_supplicant/src/tls\tlsv1_client.c **** 	suites[count++] = TLS_RSA_WITH_RC4_128_MD5;
 1595              		.loc 1 496 2 is_stmt 1
 1596              	.LVL186:
 496:C:/Users/stapi/OneDrive/Desktop/GD32VW553/V1_MQTT_OK/GD32VW55X_Wifi_BLE_SDK/GD32VW55x_RELEASE_V1.0.2/MSDK/wpa_supplicant/src/tls\tlsv1_client.c **** 	suites[count++] = TLS_RSA_WITH_RC4_128_MD5;
 1597              		.loc 1 496 18 is_stmt 0
 1598 00a0 9547     		li	a5,5
 1599 00a2 231CF41A 		sh	a5,440(s0)
 497:C:/Users/stapi/OneDrive/Desktop/GD32VW553/V1_MQTT_OK/GD32VW55X_Wifi_BLE_SDK/GD32VW55x_RELEASE_V1.0.2/MSDK/wpa_supplicant/src/tls\tlsv1_client.c **** 	conn->num_cipher_suites = count;
 1600              		.loc 1 497 2 is_stmt 1
 1601              	.LVL187:
 497:C:/Users/stapi/OneDrive/Desktop/GD32VW553/V1_MQTT_OK/GD32VW55X_Wifi_BLE_SDK/GD32VW55x_RELEASE_V1.0.2/MSDK/wpa_supplicant/src/tls\tlsv1_client.c **** 	conn->num_cipher_suites = count;
 1602              		.loc 1 497 18 is_stmt 0
 1603 00a6 9147     		li	a5,4
 1604 00a8 231DF41A 		sh	a5,442(s0)
 498:C:/Users/stapi/OneDrive/Desktop/GD32VW553/V1_MQTT_OK/GD32VW55X_Wifi_BLE_SDK/GD32VW55x_RELEASE_V1.0.2/MSDK/wpa_supplicant/src/tls\tlsv1_client.c **** 
 1605              		.loc 1 498 2 is_stmt 1
 498:C:/Users/stapi/OneDrive/Desktop/GD32VW553/V1_MQTT_OK/GD32VW55X_Wifi_BLE_SDK/GD32VW55x_RELEASE_V1.0.2/MSDK/wpa_supplicant/src/tls\tlsv1_client.c **** 
 1606              		.loc 1 498 26 is_stmt 0
 1607 00ac B147     		li	a5,12
 1608 00ae 2320F41E 		sw	a5,480(s0)
 500:C:/Users/stapi/OneDrive/Desktop/GD32VW553/V1_MQTT_OK/GD32VW55X_Wifi_BLE_SDK/GD32VW55x_RELEASE_V1.0.2/MSDK/wpa_supplicant/src/tls\tlsv1_client.c **** 
 1609              		.loc 1 500 2 is_stmt 1
 500:C:/Users/stapi/OneDrive/Desktop/GD32VW553/V1_MQTT_OK/GD32VW55X_Wifi_BLE_SDK/GD32VW55x_RELEASE_V1.0.2/MSDK/wpa_supplicant/src/tls\tlsv1_client.c **** 
 1610              		.loc 1 500 23 is_stmt 0
 1611 00b2 93071030 		li	a5,769
 1612 00b6 2312F400 		sh	a5,4(s0)
 502:C:/Users/stapi/OneDrive/Desktop/GD32VW553/V1_MQTT_OK/GD32VW55X_Wifi_BLE_SDK/GD32VW55x_RELEASE_V1.0.2/MSDK/wpa_supplicant/src/tls\tlsv1_client.c **** }
 1613              		.loc 1 502 2 is_stmt 1
 502:C:/Users/stapi/OneDrive/Desktop/GD32VW553/V1_MQTT_OK/GD32VW55X_Wifi_BLE_SDK/GD32VW55x_RELEASE_V1.0.2/MSDK/wpa_supplicant/src/tls\tlsv1_client.c **** }
 1614              		.loc 1 502 9 is_stmt 0
 1615 00ba 41BF     		j	.L117
 1616              		.cfi_endproc
 1617              	.LFE96:
 1619              		.section	.text.tlsv1_client_deinit,"ax",@progbits
 1620              		.align	1
 1621              		.globl	tlsv1_client_deinit
 1623              	tlsv1_client_deinit:
 1624              	.LFB97:
 504:C:/Users/stapi/OneDrive/Desktop/GD32VW553/V1_MQTT_OK/GD32VW55X_Wifi_BLE_SDK/GD32VW55x_RELEASE_V1.0.2/MSDK/wpa_supplicant/src/tls\tlsv1_client.c **** 
 505:C:/Users/stapi/OneDrive/Desktop/GD32VW553/V1_MQTT_OK/GD32VW55X_Wifi_BLE_SDK/GD32VW55x_RELEASE_V1.0.2/MSDK/wpa_supplicant/src/tls\tlsv1_client.c **** 
 506:C:/Users/stapi/OneDrive/Desktop/GD32VW553/V1_MQTT_OK/GD32VW55X_Wifi_BLE_SDK/GD32VW55x_RELEASE_V1.0.2/MSDK/wpa_supplicant/src/tls\tlsv1_client.c **** /**
 507:C:/Users/stapi/OneDrive/Desktop/GD32VW553/V1_MQTT_OK/GD32VW55X_Wifi_BLE_SDK/GD32VW55x_RELEASE_V1.0.2/MSDK/wpa_supplicant/src/tls\tlsv1_client.c ****  * tlsv1_client_deinit - Deinitialize TLSv1 client connection
 508:C:/Users/stapi/OneDrive/Desktop/GD32VW553/V1_MQTT_OK/GD32VW55X_Wifi_BLE_SDK/GD32VW55x_RELEASE_V1.0.2/MSDK/wpa_supplicant/src/tls\tlsv1_client.c ****  * @conn: TLSv1 client connection data from tlsv1_client_init()
 509:C:/Users/stapi/OneDrive/Desktop/GD32VW553/V1_MQTT_OK/GD32VW55X_Wifi_BLE_SDK/GD32VW55x_RELEASE_V1.0.2/MSDK/wpa_supplicant/src/tls\tlsv1_client.c ****  */
 510:C:/Users/stapi/OneDrive/Desktop/GD32VW553/V1_MQTT_OK/GD32VW55X_Wifi_BLE_SDK/GD32VW55x_RELEASE_V1.0.2/MSDK/wpa_supplicant/src/tls\tlsv1_client.c **** void tlsv1_client_deinit(struct tlsv1_client *conn)
 511:C:/Users/stapi/OneDrive/Desktop/GD32VW553/V1_MQTT_OK/GD32VW55X_Wifi_BLE_SDK/GD32VW55x_RELEASE_V1.0.2/MSDK/wpa_supplicant/src/tls\tlsv1_client.c **** {
 1625              		.loc 1 511 1 is_stmt 1
 1626              		.cfi_startproc
 1627              	.LVL188:
 1628 0000 17030000 		call	t0,__riscv_save_2
 1628      E7020300 
 1629              		.cfi_offset 9, -12
 1630              		.cfi_offset 8, -8
 1631              		.cfi_offset 1, -4
 1632              		.cfi_def_cfa_offset 16
 512:C:/Users/stapi/OneDrive/Desktop/GD32VW553/V1_MQTT_OK/GD32VW55X_Wifi_BLE_SDK/GD32VW55x_RELEASE_V1.0.2/MSDK/wpa_supplicant/src/tls\tlsv1_client.c **** 	crypto_public_key_free(conn->server_rsa_key);
 1633              		.loc 1 512 2
 511:C:/Users/stapi/OneDrive/Desktop/GD32VW553/V1_MQTT_OK/GD32VW55X_Wifi_BLE_SDK/GD32VW55x_RELEASE_V1.0.2/MSDK/wpa_supplicant/src/tls\tlsv1_client.c **** 	crypto_public_key_free(conn->server_rsa_key);
 1634              		.loc 1 511 1 is_stmt 0
 1635 0008 2A84     		mv	s0,a0
 1636              		.loc 1 512 2
 1637 000a 0325C517 		lw	a0,380(a0)
 1638              	.LVL189:
 513:C:/Users/stapi/OneDrive/Desktop/GD32VW553/V1_MQTT_OK/GD32VW55X_Wifi_BLE_SDK/GD32VW55x_RELEASE_V1.0.2/MSDK/wpa_supplicant/src/tls\tlsv1_client.c **** 	tlsv1_record_set_cipher_suite(&conn->rl, TLS_NULL_WITH_NULL_NULL);
 1639              		.loc 1 513 2
 1640 000e 93044400 		addi	s1,s0,4
 512:C:/Users/stapi/OneDrive/Desktop/GD32VW553/V1_MQTT_OK/GD32VW55X_Wifi_BLE_SDK/GD32VW55x_RELEASE_V1.0.2/MSDK/wpa_supplicant/src/tls\tlsv1_client.c **** 	crypto_public_key_free(conn->server_rsa_key);
 1641              		.loc 1 512 2
 1642 0012 97000000 		call	crypto_public_key_free
 1642      E7800000 
 1643              	.LVL190:
 1644              		.loc 1 513 2 is_stmt 1
 1645 001a 8145     		li	a1,0
 1646 001c 2685     		mv	a0,s1
 1647 001e 97000000 		call	tlsv1_record_set_cipher_suite
 1647      E7800000 
 1648              	.LVL191:
 514:C:/Users/stapi/OneDrive/Desktop/GD32VW553/V1_MQTT_OK/GD32VW55X_Wifi_BLE_SDK/GD32VW55x_RELEASE_V1.0.2/MSDK/wpa_supplicant/src/tls\tlsv1_client.c **** 	tlsv1_record_change_write_cipher(&conn->rl);
 1649              		.loc 1 514 2
 1650 0026 2685     		mv	a0,s1
 1651 0028 97000000 		call	tlsv1_record_change_write_cipher
 1651      E7800000 
 1652              	.LVL192:
 515:C:/Users/stapi/OneDrive/Desktop/GD32VW553/V1_MQTT_OK/GD32VW55X_Wifi_BLE_SDK/GD32VW55x_RELEASE_V1.0.2/MSDK/wpa_supplicant/src/tls\tlsv1_client.c **** 	tlsv1_record_change_read_cipher(&conn->rl);
 1653              		.loc 1 515 2
 1654 0030 2685     		mv	a0,s1
 1655 0032 97000000 		call	tlsv1_record_change_read_cipher
 1655      E7800000 
 1656              	.LVL193:
 516:C:/Users/stapi/OneDrive/Desktop/GD32VW553/V1_MQTT_OK/GD32VW55X_Wifi_BLE_SDK/GD32VW55x_RELEASE_V1.0.2/MSDK/wpa_supplicant/src/tls\tlsv1_client.c **** 	tls_verify_hash_free(&conn->verify);
 1657              		.loc 1 516 2
 1658 003a 93040418 		addi	s1,s0,384
 1659 003e 2685     		mv	a0,s1
 1660 0040 97000000 		call	tls_verify_hash_free
 1660      E7800000 
 1661              	.LVL194:
 517:C:/Users/stapi/OneDrive/Desktop/GD32VW553/V1_MQTT_OK/GD32VW55X_Wifi_BLE_SDK/GD32VW55x_RELEASE_V1.0.2/MSDK/wpa_supplicant/src/tls\tlsv1_client.c **** 	os_free(conn->client_hello_ext);
 1662              		.loc 1 517 2
 1663 0048 A854     		lw	a0,104(s1)
 518:C:/Users/stapi/OneDrive/Desktop/GD32VW553/V1_MQTT_OK/GD32VW55X_Wifi_BLE_SDK/GD32VW55x_RELEASE_V1.0.2/MSDK/wpa_supplicant/src/tls\tlsv1_client.c **** 	tlsv1_client_free_dh(conn);
 519:C:/Users/stapi/OneDrive/Desktop/GD32VW553/V1_MQTT_OK/GD32VW55X_Wifi_BLE_SDK/GD32VW55x_RELEASE_V1.0.2/MSDK/wpa_supplicant/src/tls\tlsv1_client.c **** 	tlsv1_cred_free(conn->cred);
 1664              		.loc 1 519 2 is_stmt 0
 1665 004a 93040420 		addi	s1,s0,512
 517:C:/Users/stapi/OneDrive/Desktop/GD32VW553/V1_MQTT_OK/GD32VW55X_Wifi_BLE_SDK/GD32VW55x_RELEASE_V1.0.2/MSDK/wpa_supplicant/src/tls\tlsv1_client.c **** 	os_free(conn->client_hello_ext);
 1666              		.loc 1 517 2
 1667 004e 97000000 		call	os_free
 1667      E7800000 
 1668              	.LVL195:
 518:C:/Users/stapi/OneDrive/Desktop/GD32VW553/V1_MQTT_OK/GD32VW55X_Wifi_BLE_SDK/GD32VW55x_RELEASE_V1.0.2/MSDK/wpa_supplicant/src/tls\tlsv1_client.c **** 	tlsv1_client_free_dh(conn);
 1669              		.loc 1 518 2 is_stmt 1
 1670 0056 2285     		mv	a0,s0
 1671 0058 97000000 		call	tlsv1_client_free_dh
 1671      E7800000 
 1672              	.LVL196:
 1673              		.loc 1 519 2
 1674 0060 8844     		lw	a0,8(s1)
 1675 0062 97000000 		call	tlsv1_cred_free
 1675      E7800000 
 1676              	.LVL197:
 520:C:/Users/stapi/OneDrive/Desktop/GD32VW553/V1_MQTT_OK/GD32VW55X_Wifi_BLE_SDK/GD32VW55x_RELEASE_V1.0.2/MSDK/wpa_supplicant/src/tls\tlsv1_client.c **** 	wpabuf_free(conn->partial_input);
 1677              		.loc 1 520 2
 1678 006a C848     		lw	a0,20(s1)
 1679 006c 97000000 		call	wpabuf_free
 1679      E7800000 
 1680              	.LVL198:
 521:C:/Users/stapi/OneDrive/Desktop/GD32VW553/V1_MQTT_OK/GD32VW55X_Wifi_BLE_SDK/GD32VW55x_RELEASE_V1.0.2/MSDK/wpa_supplicant/src/tls\tlsv1_client.c **** 	x509_certificate_chain_free(conn->server_cert);
 1681              		.loc 1 521 2
 1682 0074 8850     		lw	a0,32(s1)
 1683 0076 97000000 		call	x509_certificate_chain_free
 1683      E7800000 
 1684              	.LVL199:
 522:C:/Users/stapi/OneDrive/Desktop/GD32VW553/V1_MQTT_OK/GD32VW55X_Wifi_BLE_SDK/GD32VW55x_RELEASE_V1.0.2/MSDK/wpa_supplicant/src/tls\tlsv1_client.c **** 	os_free(conn);
 1685              		.loc 1 522 2
 1686 007e 2285     		mv	a0,s0
 1687 0080 97000000 		call	os_free
 1687      E7800000 
 1688              	.LVL200:
 523:C:/Users/stapi/OneDrive/Desktop/GD32VW553/V1_MQTT_OK/GD32VW55X_Wifi_BLE_SDK/GD32VW55x_RELEASE_V1.0.2/MSDK/wpa_supplicant/src/tls\tlsv1_client.c **** }
 1689              		.loc 1 523 1 is_stmt 0
 1690 0088 17030000 		tail	__riscv_restore_2
 1690      67000300 
 1691              		.cfi_restore 9
 1692              		.cfi_restore 8
 1693              		.cfi_restore 1
 1694              		.cfi_def_cfa_offset 0
 1695              		.cfi_endproc
 1696              	.LFE97:
 1698              		.section	.text.tlsv1_client_established,"ax",@progbits
 1699              		.align	1
