   1              		.file	"awss_enrollee.c"
   2              		.option nopic
   3              		.attribute arch, "rv32i2p0_m2p0_a2p0_f2p0_c2p0_b_p0p94"
   4              		.attribute unaligned_access, 0
   5              		.attribute stack_align, 16
   6              		.text
   7              	.Ltext0:
   8              		.cfi_sections	.debug_frame
   9              		.section	.text.os_zalloc,"ax",@progbits
  10              		.align	1
  12              	os_zalloc:
  13              	.LFB18:
  14              		.file 1 "..\\..\\..\\..\\cloud\\alicloud\\src\\services\\dev_bind\\os/os.h"
   1:..\..\..\..\cloud\alicloud\src\services\dev_bind\os/os.h **** /*
   2:..\..\..\..\cloud\alicloud\src\services\dev_bind\os/os.h ****  * Copyright (C) 2015-2018 Alibaba Group Holding Limited
   3:..\..\..\..\cloud\alicloud\src\services\dev_bind\os/os.h ****  */
   4:..\..\..\..\cloud\alicloud\src\services\dev_bind\os/os.h **** 
   5:..\..\..\..\cloud\alicloud\src\services\dev_bind\os/os.h **** #ifndef __AWSS_OS_H__
   6:..\..\..\..\cloud\alicloud\src\services\dev_bind\os/os.h **** #define __AWSS_OS_H__
   7:..\..\..\..\cloud\alicloud\src\services\dev_bind\os/os.h **** 
   8:..\..\..\..\cloud\alicloud\src\services\dev_bind\os/os.h **** #ifdef __cplusplus
   9:..\..\..\..\cloud\alicloud\src\services\dev_bind\os/os.h **** extern "C" {
  10:..\..\..\..\cloud\alicloud\src\services\dev_bind\os/os.h **** #endif
  11:..\..\..\..\cloud\alicloud\src\services\dev_bind\os/os.h **** #include <ctype.h>
  12:..\..\..\..\cloud\alicloud\src\services\dev_bind\os/os.h **** #include "iot_import.h"
  13:..\..\..\..\cloud\alicloud\src\services\dev_bind\os/os.h **** #include "iot_export.h"
  14:..\..\..\..\cloud\alicloud\src\services\dev_bind\os/os.h **** #include "product/product.h"
  15:..\..\..\..\cloud\alicloud\src\services\dev_bind\os/os.h **** #include "platform.h"
  16:..\..\..\..\cloud\alicloud\src\services\dev_bind\os/os.h **** 
  17:..\..\..\..\cloud\alicloud\src\services\dev_bind\os/os.h **** /** @defgroup group_os os
  18:..\..\..\..\cloud\alicloud\src\services\dev_bind\os/os.h ****  *  @{
  19:..\..\..\..\cloud\alicloud\src\services\dev_bind\os/os.h ****  */
  20:..\..\..\..\cloud\alicloud\src\services\dev_bind\os/os.h **** 
  21:..\..\..\..\cloud\alicloud\src\services\dev_bind\os/os.h **** #define OS_MAX_SSID_LEN         PLATFORM_MAX_SSID_LEN
  22:..\..\..\..\cloud\alicloud\src\services\dev_bind\os/os.h **** #define OS_MAX_PASSWD_LEN       PLATFORM_MAX_PASSWD_LEN
  23:..\..\..\..\cloud\alicloud\src\services\dev_bind\os/os.h **** 
  24:..\..\..\..\cloud\alicloud\src\services\dev_bind\os/os.h **** #define OS_MAC_LEN              PLATFORM_MAC_LEN
  25:..\..\..\..\cloud\alicloud\src\services\dev_bind\os/os.h **** #define OS_IP_LEN               PLATFORM_IP_LEN
  26:..\..\..\..\cloud\alicloud\src\services\dev_bind\os/os.h **** #define OS_ETH_ALEN             ETH_ALEN
  27:..\..\..\..\cloud\alicloud\src\services\dev_bind\os/os.h **** 
  28:..\..\..\..\cloud\alicloud\src\services\dev_bind\os/os.h **** #define OS_PRODUCT_KEY_LEN      PRODUCT_KEY_LEN
  29:..\..\..\..\cloud\alicloud\src\services\dev_bind\os/os.h **** #define OS_PRODUCT_SECRET_LEN   PRODUCT_SECRET_LEN
  30:..\..\..\..\cloud\alicloud\src\services\dev_bind\os/os.h **** #define OS_DEVICE_NAME_LEN      DEVICE_NAME_LEN
  31:..\..\..\..\cloud\alicloud\src\services\dev_bind\os/os.h **** #define OS_DEVICE_SECRET_LEN    DEVICE_SECRET_LEN
  32:..\..\..\..\cloud\alicloud\src\services\dev_bind\os/os.h **** 
  33:..\..\..\..\cloud\alicloud\src\services\dev_bind\os/os.h **** /***************************************** Misc Interface *****************************************
  34:..\..\..\..\cloud\alicloud\src\services\dev_bind\os/os.h **** 
  35:..\..\..\..\cloud\alicloud\src\services\dev_bind\os/os.h **** /** @defgroup group_misc misc
  36:..\..\..\..\cloud\alicloud\src\services\dev_bind\os/os.h ****  *  @{
  37:..\..\..\..\cloud\alicloud\src\services\dev_bind\os/os.h ****  */
  38:..\..\..\..\cloud\alicloud\src\services\dev_bind\os/os.h **** /**
  39:..\..\..\..\cloud\alicloud\src\services\dev_bind\os/os.h ****  * @brief .
  40:..\..\..\..\cloud\alicloud\src\services\dev_bind\os/os.h ****  *
  41:..\..\..\..\cloud\alicloud\src\services\dev_bind\os/os.h ****  * @param None.
  42:..\..\..\..\cloud\alicloud\src\services\dev_bind\os/os.h ****  * @return
  43:..\..\..\..\cloud\alicloud\src\services\dev_bind\os/os.h ****  * @verbatim
  44:..\..\..\..\cloud\alicloud\src\services\dev_bind\os/os.h ****  * = 0, This platform is little endian.
  45:..\..\..\..\cloud\alicloud\src\services\dev_bind\os/os.h ****  * = 1, This platform is big endian.
  46:..\..\..\..\cloud\alicloud\src\services\dev_bind\os/os.h ****  * @endverbatim
  47:..\..\..\..\cloud\alicloud\src\services\dev_bind\os/os.h ****  * @see None.
  48:..\..\..\..\cloud\alicloud\src\services\dev_bind\os/os.h ****  * @note None.
  49:..\..\..\..\cloud\alicloud\src\services\dev_bind\os/os.h ****  */
  50:..\..\..\..\cloud\alicloud\src\services\dev_bind\os/os.h **** static inline int os_is_big_endian(void)
  51:..\..\..\..\cloud\alicloud\src\services\dev_bind\os/os.h **** {
  52:..\..\..\..\cloud\alicloud\src\services\dev_bind\os/os.h ****     uint32_t data = 0xFF000000;
  53:..\..\..\..\cloud\alicloud\src\services\dev_bind\os/os.h **** 
  54:..\..\..\..\cloud\alicloud\src\services\dev_bind\os/os.h ****     if (0xFF == *(uint8_t *) & data) {
  55:..\..\..\..\cloud\alicloud\src\services\dev_bind\os/os.h ****         return 1;                                    //big endian
  56:..\..\..\..\cloud\alicloud\src\services\dev_bind\os/os.h ****     }
  57:..\..\..\..\cloud\alicloud\src\services\dev_bind\os/os.h **** 
  58:..\..\..\..\cloud\alicloud\src\services\dev_bind\os/os.h ****     return 0;                                        //little endian
  59:..\..\..\..\cloud\alicloud\src\services\dev_bind\os/os.h **** }
  60:..\..\..\..\cloud\alicloud\src\services\dev_bind\os/os.h **** 
  61:..\..\..\..\cloud\alicloud\src\services\dev_bind\os/os.h **** /**
  62:..\..\..\..\cloud\alicloud\src\services\dev_bind\os/os.h ****  * @brief Convert the data from byte order of current CPU(the "host") to big-endian.
  63:..\..\..\..\cloud\alicloud\src\services\dev_bind\os/os.h ****    The size of the data is 16 bits.
  64:..\..\..\..\cloud\alicloud\src\services\dev_bind\os/os.h ****  *
  65:..\..\..\..\cloud\alicloud\src\services\dev_bind\os/os.h ****  * @param[in] data @n Data to be converted.
  66:..\..\..\..\cloud\alicloud\src\services\dev_bind\os/os.h ****  * @return Conversion result.
  67:..\..\..\..\cloud\alicloud\src\services\dev_bind\os/os.h ****  * @see None.
  68:..\..\..\..\cloud\alicloud\src\services\dev_bind\os/os.h ****  * @note None.
  69:..\..\..\..\cloud\alicloud\src\services\dev_bind\os/os.h ****  */
  70:..\..\..\..\cloud\alicloud\src\services\dev_bind\os/os.h **** uint16_t os_htobe16(uint16_t data);
  71:..\..\..\..\cloud\alicloud\src\services\dev_bind\os/os.h **** 
  72:..\..\..\..\cloud\alicloud\src\services\dev_bind\os/os.h **** /**
  73:..\..\..\..\cloud\alicloud\src\services\dev_bind\os/os.h ****  * @brief Convert the data from host to little-endian.
  74:..\..\..\..\cloud\alicloud\src\services\dev_bind\os/os.h ****    The size of the data is 16 bits.
  75:..\..\..\..\cloud\alicloud\src\services\dev_bind\os/os.h ****  *
  76:..\..\..\..\cloud\alicloud\src\services\dev_bind\os/os.h ****  * @param[in] data @n Data to be converted.
  77:..\..\..\..\cloud\alicloud\src\services\dev_bind\os/os.h ****  * @return Conversion result.
  78:..\..\..\..\cloud\alicloud\src\services\dev_bind\os/os.h ****  * @see None.
  79:..\..\..\..\cloud\alicloud\src\services\dev_bind\os/os.h ****  * @note None.
  80:..\..\..\..\cloud\alicloud\src\services\dev_bind\os/os.h ****  */
  81:..\..\..\..\cloud\alicloud\src\services\dev_bind\os/os.h **** uint16_t os_htole16(uint16_t data);
  82:..\..\..\..\cloud\alicloud\src\services\dev_bind\os/os.h **** 
  83:..\..\..\..\cloud\alicloud\src\services\dev_bind\os/os.h **** /**
  84:..\..\..\..\cloud\alicloud\src\services\dev_bind\os/os.h ****  * @brief Convert the data from big-endian to host.
  85:..\..\..\..\cloud\alicloud\src\services\dev_bind\os/os.h ****    The size of the data is 16 bits.
  86:..\..\..\..\cloud\alicloud\src\services\dev_bind\os/os.h ****  *
  87:..\..\..\..\cloud\alicloud\src\services\dev_bind\os/os.h ****  * @param[in] data @n Data to be converted.
  88:..\..\..\..\cloud\alicloud\src\services\dev_bind\os/os.h ****  * @return Conversion result.
  89:..\..\..\..\cloud\alicloud\src\services\dev_bind\os/os.h ****  * @see None.
  90:..\..\..\..\cloud\alicloud\src\services\dev_bind\os/os.h ****  * @note None.
  91:..\..\..\..\cloud\alicloud\src\services\dev_bind\os/os.h ****  */
  92:..\..\..\..\cloud\alicloud\src\services\dev_bind\os/os.h **** uint16_t os_be16toh(uint16_t data);
  93:..\..\..\..\cloud\alicloud\src\services\dev_bind\os/os.h **** 
  94:..\..\..\..\cloud\alicloud\src\services\dev_bind\os/os.h **** /**
  95:..\..\..\..\cloud\alicloud\src\services\dev_bind\os/os.h ****  * @brief Convert the data from little-endian to host.
  96:..\..\..\..\cloud\alicloud\src\services\dev_bind\os/os.h ****    The size of the data is 16 bits.
  97:..\..\..\..\cloud\alicloud\src\services\dev_bind\os/os.h ****  *
  98:..\..\..\..\cloud\alicloud\src\services\dev_bind\os/os.h ****  * @param[in] data @n Data to be converted.
  99:..\..\..\..\cloud\alicloud\src\services\dev_bind\os/os.h ****  * @return Conversion result.
 100:..\..\..\..\cloud\alicloud\src\services\dev_bind\os/os.h ****  * @see None.
 101:..\..\..\..\cloud\alicloud\src\services\dev_bind\os/os.h ****  * @note None.
 102:..\..\..\..\cloud\alicloud\src\services\dev_bind\os/os.h ****  */
 103:..\..\..\..\cloud\alicloud\src\services\dev_bind\os/os.h **** uint16_t os_le16toh(uint16_t data);
 104:..\..\..\..\cloud\alicloud\src\services\dev_bind\os/os.h **** 
 105:..\..\..\..\cloud\alicloud\src\services\dev_bind\os/os.h **** /**
 106:..\..\..\..\cloud\alicloud\src\services\dev_bind\os/os.h ****  * @brief Convert the data from little-endian to host.
 107:..\..\..\..\cloud\alicloud\src\services\dev_bind\os/os.h ****    The size of the data is 32 bits.
 108:..\..\..\..\cloud\alicloud\src\services\dev_bind\os/os.h ****  *
 109:..\..\..\..\cloud\alicloud\src\services\dev_bind\os/os.h ****  * @param[in] data @n Data to be converted.
 110:..\..\..\..\cloud\alicloud\src\services\dev_bind\os/os.h ****  * @return Conversion result.
 111:..\..\..\..\cloud\alicloud\src\services\dev_bind\os/os.h ****  * @see None.
 112:..\..\..\..\cloud\alicloud\src\services\dev_bind\os/os.h ****  * @note None.
 113:..\..\..\..\cloud\alicloud\src\services\dev_bind\os/os.h ****  */
 114:..\..\..\..\cloud\alicloud\src\services\dev_bind\os/os.h **** uint32_t os_le32toh(uint32_t data);
 115:..\..\..\..\cloud\alicloud\src\services\dev_bind\os/os.h **** 
 116:..\..\..\..\cloud\alicloud\src\services\dev_bind\os/os.h **** /**
 117:..\..\..\..\cloud\alicloud\src\services\dev_bind\os/os.h ****  * @brief Convert the data from host to big-endian.
 118:..\..\..\..\cloud\alicloud\src\services\dev_bind\os/os.h ****    The size of the data is 64 bits.
 119:..\..\..\..\cloud\alicloud\src\services\dev_bind\os/os.h ****  *
 120:..\..\..\..\cloud\alicloud\src\services\dev_bind\os/os.h ****  * @param[in] data @n Data to be converted.
 121:..\..\..\..\cloud\alicloud\src\services\dev_bind\os/os.h ****  * @return Conversion result.
 122:..\..\..\..\cloud\alicloud\src\services\dev_bind\os/os.h ****  * @see None.
 123:..\..\..\..\cloud\alicloud\src\services\dev_bind\os/os.h ****  * @note None.
 124:..\..\..\..\cloud\alicloud\src\services\dev_bind\os/os.h ****  */
 125:..\..\..\..\cloud\alicloud\src\services\dev_bind\os/os.h **** //uint64_t os_htobe64(uint64_t data);
 126:..\..\..\..\cloud\alicloud\src\services\dev_bind\os/os.h **** 
 127:..\..\..\..\cloud\alicloud\src\services\dev_bind\os/os.h **** /**
 128:..\..\..\..\cloud\alicloud\src\services\dev_bind\os/os.h ****  * @brief Convert the data from host to little-endian.
 129:..\..\..\..\cloud\alicloud\src\services\dev_bind\os/os.h ****    The size of the data is 64 bits.
 130:..\..\..\..\cloud\alicloud\src\services\dev_bind\os/os.h ****  *
 131:..\..\..\..\cloud\alicloud\src\services\dev_bind\os/os.h ****  * @param[in] data @n Data to be converted.
 132:..\..\..\..\cloud\alicloud\src\services\dev_bind\os/os.h ****  * @return Conversion result.
 133:..\..\..\..\cloud\alicloud\src\services\dev_bind\os/os.h ****  * @see None.
 134:..\..\..\..\cloud\alicloud\src\services\dev_bind\os/os.h ****  * @note None.
 135:..\..\..\..\cloud\alicloud\src\services\dev_bind\os/os.h ****  */
 136:..\..\..\..\cloud\alicloud\src\services\dev_bind\os/os.h **** //uint64_t os_htole64(uint64_t data);
 137:..\..\..\..\cloud\alicloud\src\services\dev_bind\os/os.h **** 
 138:..\..\..\..\cloud\alicloud\src\services\dev_bind\os/os.h **** /**
 139:..\..\..\..\cloud\alicloud\src\services\dev_bind\os/os.h ****  * @brief Convert the data from big-endian to host.
 140:..\..\..\..\cloud\alicloud\src\services\dev_bind\os/os.h ****    The size of the data is 64 bits.
 141:..\..\..\..\cloud\alicloud\src\services\dev_bind\os/os.h ****  *
 142:..\..\..\..\cloud\alicloud\src\services\dev_bind\os/os.h ****  * @param[in] data @n Data to be converted.
 143:..\..\..\..\cloud\alicloud\src\services\dev_bind\os/os.h ****  * @return Conversion result.
 144:..\..\..\..\cloud\alicloud\src\services\dev_bind\os/os.h ****  * @see None.
 145:..\..\..\..\cloud\alicloud\src\services\dev_bind\os/os.h ****  * @note None.
 146:..\..\..\..\cloud\alicloud\src\services\dev_bind\os/os.h ****  */
 147:..\..\..\..\cloud\alicloud\src\services\dev_bind\os/os.h **** //uint64_t os_be64toh(uint64_t data);
 148:..\..\..\..\cloud\alicloud\src\services\dev_bind\os/os.h **** 
 149:..\..\..\..\cloud\alicloud\src\services\dev_bind\os/os.h **** /**
 150:..\..\..\..\cloud\alicloud\src\services\dev_bind\os/os.h ****  * @brief Convert the data from little-endian to host.
 151:..\..\..\..\cloud\alicloud\src\services\dev_bind\os/os.h ****    The size of the data is 64 bits.
 152:..\..\..\..\cloud\alicloud\src\services\dev_bind\os/os.h ****  *
 153:..\..\..\..\cloud\alicloud\src\services\dev_bind\os/os.h ****  * @param[in] data @n Data to be converted.
 154:..\..\..\..\cloud\alicloud\src\services\dev_bind\os/os.h ****  * @return Conversion result.
 155:..\..\..\..\cloud\alicloud\src\services\dev_bind\os/os.h ****  * @see None.
 156:..\..\..\..\cloud\alicloud\src\services\dev_bind\os/os.h ****  * @note None.
 157:..\..\..\..\cloud\alicloud\src\services\dev_bind\os/os.h ****  */
 158:..\..\..\..\cloud\alicloud\src\services\dev_bind\os/os.h **** //uint64_t os_le64toh(uint64_t data);
 159:..\..\..\..\cloud\alicloud\src\services\dev_bind\os/os.h **** 
 160:..\..\..\..\cloud\alicloud\src\services\dev_bind\os/os.h **** /**
 161:..\..\..\..\cloud\alicloud\src\services\dev_bind\os/os.h ****  * @brief Get unaligned 16 bits data which is big-endian and convert to host byte order.
 162:..\..\..\..\cloud\alicloud\src\services\dev_bind\os/os.h ****  *
 163:..\..\..\..\cloud\alicloud\src\services\dev_bind\os/os.h ****  * @param[in] ptr @n The start address of the unaligned data.
 164:..\..\..\..\cloud\alicloud\src\services\dev_bind\os/os.h ****  * @return Result in host byte order.
 165:..\..\..\..\cloud\alicloud\src\services\dev_bind\os/os.h ****  * @see None.
 166:..\..\..\..\cloud\alicloud\src\services\dev_bind\os/os.h ****  * @note None.
 167:..\..\..\..\cloud\alicloud\src\services\dev_bind\os/os.h ****  */
 168:..\..\..\..\cloud\alicloud\src\services\dev_bind\os/os.h **** uint16_t os_get_unaligned_be16(uint8_t *ptr);
 169:..\..\..\..\cloud\alicloud\src\services\dev_bind\os/os.h **** 
 170:..\..\..\..\cloud\alicloud\src\services\dev_bind\os/os.h **** /**
 171:..\..\..\..\cloud\alicloud\src\services\dev_bind\os/os.h ****  * @brief Get unaligned 16 bits data which is little-endian and convert to host byte order.
 172:..\..\..\..\cloud\alicloud\src\services\dev_bind\os/os.h ****  *
 173:..\..\..\..\cloud\alicloud\src\services\dev_bind\os/os.h ****  * @param[in] ptr @n The start address of the unaligned data.
 174:..\..\..\..\cloud\alicloud\src\services\dev_bind\os/os.h ****  * @return Result in host byte order.
 175:..\..\..\..\cloud\alicloud\src\services\dev_bind\os/os.h ****  * @see None.
 176:..\..\..\..\cloud\alicloud\src\services\dev_bind\os/os.h ****  * @note None.
 177:..\..\..\..\cloud\alicloud\src\services\dev_bind\os/os.h ****  */
 178:..\..\..\..\cloud\alicloud\src\services\dev_bind\os/os.h **** uint16_t os_get_unaligned_le16(uint8_t *ptr);
 179:..\..\..\..\cloud\alicloud\src\services\dev_bind\os/os.h **** 
 180:..\..\..\..\cloud\alicloud\src\services\dev_bind\os/os.h **** /**
 181:..\..\..\..\cloud\alicloud\src\services\dev_bind\os/os.h ****  * @brief Get unaligned 32 bits data which is big-endian and convert to host byte order.
 182:..\..\..\..\cloud\alicloud\src\services\dev_bind\os/os.h ****  *
 183:..\..\..\..\cloud\alicloud\src\services\dev_bind\os/os.h ****  * @param[in] ptr @n The start address of the unaligned data.
 184:..\..\..\..\cloud\alicloud\src\services\dev_bind\os/os.h ****  * @return Result in host byte order.
 185:..\..\..\..\cloud\alicloud\src\services\dev_bind\os/os.h ****  * @see None.
 186:..\..\..\..\cloud\alicloud\src\services\dev_bind\os/os.h ****  * @note None.
 187:..\..\..\..\cloud\alicloud\src\services\dev_bind\os/os.h ****  */
 188:..\..\..\..\cloud\alicloud\src\services\dev_bind\os/os.h **** uint32_t os_get_unaligned_be32(uint8_t *ptr);
 189:..\..\..\..\cloud\alicloud\src\services\dev_bind\os/os.h **** 
 190:..\..\..\..\cloud\alicloud\src\services\dev_bind\os/os.h **** /**
 191:..\..\..\..\cloud\alicloud\src\services\dev_bind\os/os.h ****  * @brief Get unaligned 32 bits data which is little-endian and convert to host byte order.
 192:..\..\..\..\cloud\alicloud\src\services\dev_bind\os/os.h ****  *
 193:..\..\..\..\cloud\alicloud\src\services\dev_bind\os/os.h ****  * @param[in] ptr @n The start address of the unaligned data.
 194:..\..\..\..\cloud\alicloud\src\services\dev_bind\os/os.h ****  * @return Result in host byte order.
 195:..\..\..\..\cloud\alicloud\src\services\dev_bind\os/os.h ****  * @see None.
 196:..\..\..\..\cloud\alicloud\src\services\dev_bind\os/os.h ****  * @note None.
 197:..\..\..\..\cloud\alicloud\src\services\dev_bind\os/os.h ****  */
 198:..\..\..\..\cloud\alicloud\src\services\dev_bind\os/os.h **** uint32_t os_get_unaligned_le32(uint8_t *ptr);
 199:..\..\..\..\cloud\alicloud\src\services\dev_bind\os/os.h **** 
 200:..\..\..\..\cloud\alicloud\src\services\dev_bind\os/os.h **** /**
 201:..\..\..\..\cloud\alicloud\src\services\dev_bind\os/os.h ****  * @brief sleep thread itself.
 202:..\..\..\..\cloud\alicloud\src\services\dev_bind\os/os.h ****  *
 203:..\..\..\..\cloud\alicloud\src\services\dev_bind\os/os.h ****  * @param[in] ms @n the time interval for which execution is to be suspended, in milliseconds.
 204:..\..\..\..\cloud\alicloud\src\services\dev_bind\os/os.h ****  * @return None.
 205:..\..\..\..\cloud\alicloud\src\services\dev_bind\os/os.h ****  * @see None.
 206:..\..\..\..\cloud\alicloud\src\services\dev_bind\os/os.h ****  * @note None.
 207:..\..\..\..\cloud\alicloud\src\services\dev_bind\os/os.h ****  */
 208:..\..\..\..\cloud\alicloud\src\services\dev_bind\os/os.h **** static inline void os_msleep(_IN_ uint32_t ms)
 209:..\..\..\..\cloud\alicloud\src\services\dev_bind\os/os.h **** {
 210:..\..\..\..\cloud\alicloud\src\services\dev_bind\os/os.h ****     platform_msleep(ms);
 211:..\..\..\..\cloud\alicloud\src\services\dev_bind\os/os.h **** }
 212:..\..\..\..\cloud\alicloud\src\services\dev_bind\os/os.h **** 
 213:..\..\..\..\cloud\alicloud\src\services\dev_bind\os/os.h **** /**
 214:..\..\..\..\cloud\alicloud\src\services\dev_bind\os/os.h ****  * @brief sleep thread itself.
 215:..\..\..\..\cloud\alicloud\src\services\dev_bind\os/os.h ****  *
 216:..\..\..\..\cloud\alicloud\src\services\dev_bind\os/os.h ****  * @param[in] sec @n the time interval for which execution is to be suspended, in seconds.
 217:..\..\..\..\cloud\alicloud\src\services\dev_bind\os/os.h ****  * @return None.
 218:..\..\..\..\cloud\alicloud\src\services\dev_bind\os/os.h ****  * @see None.
 219:..\..\..\..\cloud\alicloud\src\services\dev_bind\os/os.h ****  * @note None.
 220:..\..\..\..\cloud\alicloud\src\services\dev_bind\os/os.h ****  */
 221:..\..\..\..\cloud\alicloud\src\services\dev_bind\os/os.h **** static inline void os_sleep(_IN_ uint32_t sec)
 222:..\..\..\..\cloud\alicloud\src\services\dev_bind\os/os.h **** {
 223:..\..\..\..\cloud\alicloud\src\services\dev_bind\os/os.h ****     platform_msleep(sec * 1000);
 224:..\..\..\..\cloud\alicloud\src\services\dev_bind\os/os.h **** }
 225:..\..\..\..\cloud\alicloud\src\services\dev_bind\os/os.h **** 
 226:..\..\..\..\cloud\alicloud\src\services\dev_bind\os/os.h **** /**
 227:..\..\..\..\cloud\alicloud\src\services\dev_bind\os/os.h ****  * @brief system reboot immediately.
 228:..\..\..\..\cloud\alicloud\src\services\dev_bind\os/os.h ****  *
 229:..\..\..\..\cloud\alicloud\src\services\dev_bind\os/os.h ****  * @return None.
 230:..\..\..\..\cloud\alicloud\src\services\dev_bind\os/os.h ****  * @see None.
 231:..\..\..\..\cloud\alicloud\src\services\dev_bind\os/os.h ****  * @note None.
 232:..\..\..\..\cloud\alicloud\src\services\dev_bind\os/os.h ****  */
 233:..\..\..\..\cloud\alicloud\src\services\dev_bind\os/os.h **** static inline void os_reboot()
 234:..\..\..\..\cloud\alicloud\src\services\dev_bind\os/os.h **** {
 235:..\..\..\..\cloud\alicloud\src\services\dev_bind\os/os.h ****     platform_reboot();
 236:..\..\..\..\cloud\alicloud\src\services\dev_bind\os/os.h **** }
 237:..\..\..\..\cloud\alicloud\src\services\dev_bind\os/os.h **** 
 238:..\..\..\..\cloud\alicloud\src\services\dev_bind\os/os.h **** /** @} *///end of os_misc
 239:..\..\..\..\cloud\alicloud\src\services\dev_bind\os/os.h **** 
 240:..\..\..\..\cloud\alicloud\src\services\dev_bind\os/os.h **** /***************************************** mutex Interface ****************************************
 241:..\..\..\..\cloud\alicloud\src\services\dev_bind\os/os.h **** 
 242:..\..\..\..\cloud\alicloud\src\services\dev_bind\os/os.h **** /** @defgroup group_os_mutex mutex
 243:..\..\..\..\cloud\alicloud\src\services\dev_bind\os/os.h ****  *  @{
 244:..\..\..\..\cloud\alicloud\src\services\dev_bind\os/os.h ****  */
 245:..\..\..\..\cloud\alicloud\src\services\dev_bind\os/os.h **** 
 246:..\..\..\..\cloud\alicloud\src\services\dev_bind\os/os.h **** /**
 247:..\..\..\..\cloud\alicloud\src\services\dev_bind\os/os.h ****  * @brief Create a mutex.
 248:..\..\..\..\cloud\alicloud\src\services\dev_bind\os/os.h ****  *
 249:..\..\..\..\cloud\alicloud\src\services\dev_bind\os/os.h ****  * @return Mutex handle.
 250:..\..\..\..\cloud\alicloud\src\services\dev_bind\os/os.h ****  * @see None.
 251:..\..\..\..\cloud\alicloud\src\services\dev_bind\os/os.h ****  * @note None.
 252:..\..\..\..\cloud\alicloud\src\services\dev_bind\os/os.h ****  */
 253:..\..\..\..\cloud\alicloud\src\services\dev_bind\os/os.h **** static inline void *os_mutex_init(void)
 254:..\..\..\..\cloud\alicloud\src\services\dev_bind\os/os.h **** {
 255:..\..\..\..\cloud\alicloud\src\services\dev_bind\os/os.h ****     return platform_mutex_init();
 256:..\..\..\..\cloud\alicloud\src\services\dev_bind\os/os.h **** }
 257:..\..\..\..\cloud\alicloud\src\services\dev_bind\os/os.h **** 
 258:..\..\..\..\cloud\alicloud\src\services\dev_bind\os/os.h **** /**
 259:..\..\..\..\cloud\alicloud\src\services\dev_bind\os/os.h ****  * @brief Destroy the specified mutex object, it will free related resource.
 260:..\..\..\..\cloud\alicloud\src\services\dev_bind\os/os.h ****  *
 261:..\..\..\..\cloud\alicloud\src\services\dev_bind\os/os.h ****  * @param[in] mutex @n The specified mutex.
 262:..\..\..\..\cloud\alicloud\src\services\dev_bind\os/os.h ****  * @return None.
 263:..\..\..\..\cloud\alicloud\src\services\dev_bind\os/os.h ****  * @see None.
 264:..\..\..\..\cloud\alicloud\src\services\dev_bind\os/os.h ****  * @note None.
 265:..\..\..\..\cloud\alicloud\src\services\dev_bind\os/os.h ****  */
 266:..\..\..\..\cloud\alicloud\src\services\dev_bind\os/os.h **** static inline void os_mutex_destroy(_IN_ void *mutex)
 267:..\..\..\..\cloud\alicloud\src\services\dev_bind\os/os.h **** {
 268:..\..\..\..\cloud\alicloud\src\services\dev_bind\os/os.h ****     platform_mutex_destroy(mutex);
 269:..\..\..\..\cloud\alicloud\src\services\dev_bind\os/os.h **** }
 270:..\..\..\..\cloud\alicloud\src\services\dev_bind\os/os.h **** 
 271:..\..\..\..\cloud\alicloud\src\services\dev_bind\os/os.h **** /**
 272:..\..\..\..\cloud\alicloud\src\services\dev_bind\os/os.h ****  * @brief Waits until the specified mutex is in the signaled state.
 273:..\..\..\..\cloud\alicloud\src\services\dev_bind\os/os.h ****  *
 274:..\..\..\..\cloud\alicloud\src\services\dev_bind\os/os.h ****  * @param[in] mutex @n the specified mutex.
 275:..\..\..\..\cloud\alicloud\src\services\dev_bind\os/os.h ****  * @return None.
 276:..\..\..\..\cloud\alicloud\src\services\dev_bind\os/os.h ****  * @see None.
 277:..\..\..\..\cloud\alicloud\src\services\dev_bind\os/os.h ****  * @note None.
 278:..\..\..\..\cloud\alicloud\src\services\dev_bind\os/os.h ****  */
 279:..\..\..\..\cloud\alicloud\src\services\dev_bind\os/os.h **** static inline void os_mutex_lock(_IN_ void *mutex)
 280:..\..\..\..\cloud\alicloud\src\services\dev_bind\os/os.h **** {
 281:..\..\..\..\cloud\alicloud\src\services\dev_bind\os/os.h ****     platform_mutex_lock(mutex);
 282:..\..\..\..\cloud\alicloud\src\services\dev_bind\os/os.h **** }
 283:..\..\..\..\cloud\alicloud\src\services\dev_bind\os/os.h **** 
 284:..\..\..\..\cloud\alicloud\src\services\dev_bind\os/os.h **** /**
 285:..\..\..\..\cloud\alicloud\src\services\dev_bind\os/os.h ****  * @brief Releases ownership of the specified mutex object..
 286:..\..\..\..\cloud\alicloud\src\services\dev_bind\os/os.h ****  *
 287:..\..\..\..\cloud\alicloud\src\services\dev_bind\os/os.h ****  * @param[in] mutex @n the specified mutex.
 288:..\..\..\..\cloud\alicloud\src\services\dev_bind\os/os.h ****  * @return None.
 289:..\..\..\..\cloud\alicloud\src\services\dev_bind\os/os.h ****  * @see None.
 290:..\..\..\..\cloud\alicloud\src\services\dev_bind\os/os.h ****  * @note None.
 291:..\..\..\..\cloud\alicloud\src\services\dev_bind\os/os.h ****  */
 292:..\..\..\..\cloud\alicloud\src\services\dev_bind\os/os.h **** static inline void os_mutex_unlock(_IN_ void *mutex)
 293:..\..\..\..\cloud\alicloud\src\services\dev_bind\os/os.h **** {
 294:..\..\..\..\cloud\alicloud\src\services\dev_bind\os/os.h ****     platform_mutex_unlock(mutex);
 295:..\..\..\..\cloud\alicloud\src\services\dev_bind\os/os.h **** }
 296:..\..\..\..\cloud\alicloud\src\services\dev_bind\os/os.h **** 
 297:..\..\..\..\cloud\alicloud\src\services\dev_bind\os/os.h **** /** @} */// end of os_mutex
 298:..\..\..\..\cloud\alicloud\src\services\dev_bind\os/os.h **** 
 299:..\..\..\..\cloud\alicloud\src\services\dev_bind\os/os.h **** /*************************************** semaphore Interface **************************************
 300:..\..\..\..\cloud\alicloud\src\services\dev_bind\os/os.h **** 
 301:..\..\..\..\cloud\alicloud\src\services\dev_bind\os/os.h **** /** @defgroup group_os_semaphore semaphore
 302:..\..\..\..\cloud\alicloud\src\services\dev_bind\os/os.h ****  *  @{
 303:..\..\..\..\cloud\alicloud\src\services\dev_bind\os/os.h ****  */
 304:..\..\..\..\cloud\alicloud\src\services\dev_bind\os/os.h **** 
 305:..\..\..\..\cloud\alicloud\src\services\dev_bind\os/os.h **** /**
 306:..\..\..\..\cloud\alicloud\src\services\dev_bind\os/os.h ****  * @brief Create a semaphore.
 307:..\..\..\..\cloud\alicloud\src\services\dev_bind\os/os.h ****  *
 308:..\..\..\..\cloud\alicloud\src\services\dev_bind\os/os.h ****  * @return semaphore handle.
 309:..\..\..\..\cloud\alicloud\src\services\dev_bind\os/os.h ****  * @see None.
 310:..\..\..\..\cloud\alicloud\src\services\dev_bind\os/os.h ****  * @note The recommended value of maximum count of the semaphore is 255.
 311:..\..\..\..\cloud\alicloud\src\services\dev_bind\os/os.h ****  */
 312:..\..\..\..\cloud\alicloud\src\services\dev_bind\os/os.h **** static inline void *os_semaphore_init(void)
 313:..\..\..\..\cloud\alicloud\src\services\dev_bind\os/os.h **** {
 314:..\..\..\..\cloud\alicloud\src\services\dev_bind\os/os.h ****     return platform_semaphore_init();
 315:..\..\..\..\cloud\alicloud\src\services\dev_bind\os/os.h **** }
 316:..\..\..\..\cloud\alicloud\src\services\dev_bind\os/os.h **** 
 317:..\..\..\..\cloud\alicloud\src\services\dev_bind\os/os.h **** /**
 318:..\..\..\..\cloud\alicloud\src\services\dev_bind\os/os.h ****  * @brief Destroy the specified semaphore object, it will free related resource.
 319:..\..\..\..\cloud\alicloud\src\services\dev_bind\os/os.h ****  *
 320:..\..\..\..\cloud\alicloud\src\services\dev_bind\os/os.h ****  * @param[in] sem @n the specified sem.
 321:..\..\..\..\cloud\alicloud\src\services\dev_bind\os/os.h ****  * @return None.
 322:..\..\..\..\cloud\alicloud\src\services\dev_bind\os/os.h ****  * @see None.
 323:..\..\..\..\cloud\alicloud\src\services\dev_bind\os/os.h ****  * @note None.
 324:..\..\..\..\cloud\alicloud\src\services\dev_bind\os/os.h ****  */
 325:..\..\..\..\cloud\alicloud\src\services\dev_bind\os/os.h **** static inline void os_semaphore_destroy(_IN_ void *sem)
 326:..\..\..\..\cloud\alicloud\src\services\dev_bind\os/os.h **** {
 327:..\..\..\..\cloud\alicloud\src\services\dev_bind\os/os.h ****     platform_semaphore_destroy(sem);
 328:..\..\..\..\cloud\alicloud\src\services\dev_bind\os/os.h **** }
 329:..\..\..\..\cloud\alicloud\src\services\dev_bind\os/os.h **** 
 330:..\..\..\..\cloud\alicloud\src\services\dev_bind\os/os.h **** /**
 331:..\..\..\..\cloud\alicloud\src\services\dev_bind\os/os.h ****  * @brief Wait until the specified mutex is in the signaled state or the time-out interval elapses.
 332:..\..\..\..\cloud\alicloud\src\services\dev_bind\os/os.h ****  *
 333:..\..\..\..\cloud\alicloud\src\services\dev_bind\os/os.h ****  * @param[in] sem @n the specified semaphore.
 334:..\..\..\..\cloud\alicloud\src\services\dev_bind\os/os.h ****  * @param[in] timeout_ms @n timeout interval in millisecond.
 335:..\..\..\..\cloud\alicloud\src\services\dev_bind\os/os.h ****      If timeout_ms is OS_WAIT_INFINITE, the function will return only when the semaphore is signale
 336:..\..\..\..\cloud\alicloud\src\services\dev_bind\os/os.h ****  * @return
 337:..\..\..\..\cloud\alicloud\src\services\dev_bind\os/os.h ****    @verbatim
 338:..\..\..\..\cloud\alicloud\src\services\dev_bind\os/os.h ****    =  0: The state of the specified object is signaled.
 339:..\..\..\..\cloud\alicloud\src\services\dev_bind\os/os.h ****    =  -1: The time-out interval elapsed, and the object's state is nonsignaled.
 340:..\..\..\..\cloud\alicloud\src\services\dev_bind\os/os.h ****    @endverbatim
 341:..\..\..\..\cloud\alicloud\src\services\dev_bind\os/os.h ****  * @see None.
 342:..\..\..\..\cloud\alicloud\src\services\dev_bind\os/os.h ****  * @note None.
 343:..\..\..\..\cloud\alicloud\src\services\dev_bind\os/os.h ****  */
 344:..\..\..\..\cloud\alicloud\src\services\dev_bind\os/os.h **** static inline int os_semaphore_wait(_IN_ void *sem, _IN_ uint32_t timeout_ms)
 345:..\..\..\..\cloud\alicloud\src\services\dev_bind\os/os.h **** {
 346:..\..\..\..\cloud\alicloud\src\services\dev_bind\os/os.h ****     return platform_semaphore_wait(sem, timeout_ms);
 347:..\..\..\..\cloud\alicloud\src\services\dev_bind\os/os.h **** }
 348:..\..\..\..\cloud\alicloud\src\services\dev_bind\os/os.h **** 
 349:..\..\..\..\cloud\alicloud\src\services\dev_bind\os/os.h **** /**
 350:..\..\..\..\cloud\alicloud\src\services\dev_bind\os/os.h ****  * @brief Increases the count of the specified semaphore object by 1.
 351:..\..\..\..\cloud\alicloud\src\services\dev_bind\os/os.h ****  *
 352:..\..\..\..\cloud\alicloud\src\services\dev_bind\os/os.h ****  * @param[in] sem @n the specified semaphore.
 353:..\..\..\..\cloud\alicloud\src\services\dev_bind\os/os.h ****  * @return None.
 354:..\..\..\..\cloud\alicloud\src\services\dev_bind\os/os.h ****  * @see None.
 355:..\..\..\..\cloud\alicloud\src\services\dev_bind\os/os.h ****  * @note None.
 356:..\..\..\..\cloud\alicloud\src\services\dev_bind\os/os.h ****  */
 357:..\..\..\..\cloud\alicloud\src\services\dev_bind\os/os.h **** static inline void os_semaphore_post(_IN_ void *sem)
 358:..\..\..\..\cloud\alicloud\src\services\dev_bind\os/os.h **** {
 359:..\..\..\..\cloud\alicloud\src\services\dev_bind\os/os.h ****     platform_semaphore_post(sem);
 360:..\..\..\..\cloud\alicloud\src\services\dev_bind\os/os.h **** }
 361:..\..\..\..\cloud\alicloud\src\services\dev_bind\os/os.h **** 
 362:..\..\..\..\cloud\alicloud\src\services\dev_bind\os/os.h **** /** @} */// end of os_semaphore
 363:..\..\..\..\cloud\alicloud\src\services\dev_bind\os/os.h **** 
 364:..\..\..\..\cloud\alicloud\src\services\dev_bind\os/os.h **** /**************************************** memory Interface ****************************************
 365:..\..\..\..\cloud\alicloud\src\services\dev_bind\os/os.h **** 
 366:..\..\..\..\cloud\alicloud\src\services\dev_bind\os/os.h **** /** @defgroup group_os_memory_manage memory
 367:..\..\..\..\cloud\alicloud\src\services\dev_bind\os/os.h ****  *  @{
 368:..\..\..\..\cloud\alicloud\src\services\dev_bind\os/os.h ****  */
 369:..\..\..\..\cloud\alicloud\src\services\dev_bind\os/os.h **** 
 370:..\..\..\..\cloud\alicloud\src\services\dev_bind\os/os.h **** /**
 371:..\..\..\..\cloud\alicloud\src\services\dev_bind\os/os.h ****  * @brief Allocates a block of size bytes of memory, returning a pointer to the beginning of the bl
 372:..\..\..\..\cloud\alicloud\src\services\dev_bind\os/os.h ****  *
 373:..\..\..\..\cloud\alicloud\src\services\dev_bind\os/os.h ****  * @param[in] size @n specify block size in bytes.
 374:..\..\..\..\cloud\alicloud\src\services\dev_bind\os/os.h ****  * @return A pointer to the beginning of the block.
 375:..\..\..\..\cloud\alicloud\src\services\dev_bind\os/os.h ****  * @see None.
 376:..\..\..\..\cloud\alicloud\src\services\dev_bind\os/os.h ****  * @note Block value is indeterminate.
 377:..\..\..\..\cloud\alicloud\src\services\dev_bind\os/os.h ****  */
 378:..\..\..\..\cloud\alicloud\src\services\dev_bind\os/os.h **** static inline void *os_malloc(_IN_ uint32_t size)
 379:..\..\..\..\cloud\alicloud\src\services\dev_bind\os/os.h **** {
 380:..\..\..\..\cloud\alicloud\src\services\dev_bind\os/os.h ****     return platform_malloc(size);
 381:..\..\..\..\cloud\alicloud\src\services\dev_bind\os/os.h **** }
 382:..\..\..\..\cloud\alicloud\src\services\dev_bind\os/os.h **** 
 383:..\..\..\..\cloud\alicloud\src\services\dev_bind\os/os.h **** 
 384:..\..\..\..\cloud\alicloud\src\services\dev_bind\os/os.h **** /**
 385:..\..\..\..\cloud\alicloud\src\services\dev_bind\os/os.h ****  * @brief Deallocate memory block
 386:..\..\..\..\cloud\alicloud\src\services\dev_bind\os/os.h ****  *
 387:..\..\..\..\cloud\alicloud\src\services\dev_bind\os/os.h ****  * @param[in] ptr @n Pointer to a memory block previously allocated with platform_malloc.
 388:..\..\..\..\cloud\alicloud\src\services\dev_bind\os/os.h ****  * @return None.
 389:..\..\..\..\cloud\alicloud\src\services\dev_bind\os/os.h ****  * @see None.
 390:..\..\..\..\cloud\alicloud\src\services\dev_bind\os/os.h ****  * @note None.
 391:..\..\..\..\cloud\alicloud\src\services\dev_bind\os/os.h ****  */
 392:..\..\..\..\cloud\alicloud\src\services\dev_bind\os/os.h **** static inline void os_free(_IN_ void *ptr)
 393:..\..\..\..\cloud\alicloud\src\services\dev_bind\os/os.h **** {
 394:..\..\..\..\cloud\alicloud\src\services\dev_bind\os/os.h ****     platform_free(ptr);
 395:..\..\..\..\cloud\alicloud\src\services\dev_bind\os/os.h **** }
 396:..\..\..\..\cloud\alicloud\src\services\dev_bind\os/os.h **** 
 397:..\..\..\..\cloud\alicloud\src\services\dev_bind\os/os.h **** /**
 398:..\..\..\..\cloud\alicloud\src\services\dev_bind\os/os.h ****  * @brief Allocates a memory block with memory initialized to 0,
 399:..\..\..\..\cloud\alicloud\src\services\dev_bind\os/os.h ****      returning a pointer to the beginning of the block.
 400:..\..\..\..\cloud\alicloud\src\services\dev_bind\os/os.h ****  *
 401:..\..\..\..\cloud\alicloud\src\services\dev_bind\os/os.h ****  * @param[in] size @n specify block size in bytes.
 402:..\..\..\..\cloud\alicloud\src\services\dev_bind\os/os.h ****  * @return A pointer to the beginning of the block.
 403:..\..\..\..\cloud\alicloud\src\services\dev_bind\os/os.h ****  * @see None.
 404:..\..\..\..\cloud\alicloud\src\services\dev_bind\os/os.h ****  * @note Block value is indeterminate.
 405:..\..\..\..\cloud\alicloud\src\services\dev_bind\os/os.h ****  */
 406:..\..\..\..\cloud\alicloud\src\services\dev_bind\os/os.h **** static inline void *os_zalloc(uint32_t size)
 407:..\..\..\..\cloud\alicloud\src\services\dev_bind\os/os.h **** {
  15              		.loc 1 407 1
  16              		.cfi_startproc
  17              	.LVL0:
  18 0000 17030000 		call	t0,__riscv_save_1
  18      E7020300 
  19              		.cfi_offset 8, -8
  20              		.cfi_offset 1, -4
  21              		.cfi_def_cfa_offset 16
 408:..\..\..\..\cloud\alicloud\src\services\dev_bind\os/os.h ****     void *ptr = os_malloc(size);
  22              		.loc 1 408 5
 407:..\..\..\..\cloud\alicloud\src\services\dev_bind\os/os.h ****     void *ptr = os_malloc(size);
  23              		.loc 1 407 1 is_stmt 0
  24 0008 4111     		addi	sp,sp,-16
  25              		.cfi_def_cfa_offset 32
  26              	.LVL1:
  27              	.LBB18:
  28              	.LBB19:
 380:..\..\..\..\cloud\alicloud\src\services\dev_bind\os/os.h **** }
  29              		.loc 1 380 5 is_stmt 1
  30              	.LBE19:
  31              	.LBE18:
 407:..\..\..\..\cloud\alicloud\src\services\dev_bind\os/os.h ****     void *ptr = os_malloc(size);
  32              		.loc 1 407 1 is_stmt 0
  33 000a 2AC6     		sw	a0,12(sp)
  34              	.LVL2:
  35              	.LBB21:
  36              	.LBB20:
 380:..\..\..\..\cloud\alicloud\src\services\dev_bind\os/os.h **** }
  37              		.loc 1 380 12
  38 000c 97000000 		call	HAL_Malloc
  38      E7800000 
  39              	.LVL3:
  40 0014 2A84     		mv	s0,a0
  41              	.LVL4:
  42              	.LBE20:
  43              	.LBE21:
 409:..\..\..\..\cloud\alicloud\src\services\dev_bind\os/os.h ****     if (ptr != NULL) {
  44              		.loc 1 409 5 is_stmt 1
  45              		.loc 1 409 8 is_stmt 0
  46 0016 19C5     		beq	a0,zero,.L1
 410:..\..\..\..\cloud\alicloud\src\services\dev_bind\os/os.h ****         memset(ptr, 0, size);
  47              		.loc 1 410 9 is_stmt 1
  48 0018 3246     		lw	a2,12(sp)
  49 001a 8145     		li	a1,0
  50 001c 97000000 		call	memset
  50      E7800000 
  51              	.LVL5:
 411:..\..\..\..\cloud\alicloud\src\services\dev_bind\os/os.h ****     }
 412:..\..\..\..\cloud\alicloud\src\services\dev_bind\os/os.h ****     return ptr;
  52              		.loc 1 412 5
  53              	.L1:
 413:..\..\..\..\cloud\alicloud\src\services\dev_bind\os/os.h **** }
  54              		.loc 1 413 1 is_stmt 0
  55 0024 2285     		mv	a0,s0
  56 0026 4101     		addi	sp,sp,16
  57              		.cfi_def_cfa_offset 0
  58              	.LVL6:
  59 0028 17030000 		tail	__riscv_restore_1
  59      67000300 
  60              		.cfi_restore 8
  61              		.cfi_restore 1
  62              		.cfi_def_cfa_offset -16
  63              		.cfi_endproc
  64              	.LFE18:
  66              		.section	.rodata.awss_enrollee_init_info.str1.4,"aMS",@progbits,1
  67              		.align	2
  68              	.LC0:
  69 0000 5B77726E 		.string	"[wrn] "
  69      5D2000
  70 0007 00       		.align	2
  71              	.LC1:
  72 0008 656E725F 		.string	"enr_frame already inited"
  72      6672616D 
  72      6520616C 
  72      72656164 
  72      7920696E 
  73 0021 000000   		.align	2
  74              	.LC2:
  75 0024 0D0A00   		.string	"\r\n"
  76 0027 00       		.align	2
  77              	.LC3:
  78 0028 5B657272 		.string	"[err] "
  78      5D2000
  79 002f 00       		.align	2
  80              	.LC4:
  81 0030 656E725F 		.string	"enr_frame init overflow(%d)"
  81      6672616D 
  81      6520696E 
  81      6974206F 
  81      76657266 
  82              		.align	2
  83              	.LC5:
  84 004c 656E725F 		.string	"enr_frame init done(%d)"
  84      6672616D 
  84      6520696E 
  84      69742064 
  84      6F6E6528 
  85              		.align	2
  86              	.LC6:
  87 0064 61777373 		.string	"awss"
  87      00
  88              		.section	.text.awss_enrollee_init_info,"ax",@progbits
  89              		.align	1
  90              		.globl	awss_enrollee_init_info
  92              	awss_enrollee_init_info:
  93              	.LFB49:
  94              		.file 2 "C:/Users/stapi/OneDrive/Desktop/GD32VW553/V1_MQTT_OK/GD32VW55X_Wifi_BLE_SDK/GD32VW55x_REL
   1:C:/Users/stapi/OneDrive/Desktop/GD32VW553/V1_MQTT_OK/GD32VW55X_Wifi_BLE_SDK/GD32VW55x_RELEASE_V1.0.2/MSDK/cloud/alicloud/src/services/awss\awss_enrollee.c **** /*
   2:C:/Users/stapi/OneDrive/Desktop/GD32VW553/V1_MQTT_OK/GD32VW55X_Wifi_BLE_SDK/GD32VW55x_RELEASE_V1.0.2/MSDK/cloud/alicloud/src/services/awss\awss_enrollee.c ****  * Copyright (C) 2015-2018 Alibaba Group Holding Limited
   3:C:/Users/stapi/OneDrive/Desktop/GD32VW553/V1_MQTT_OK/GD32VW55X_Wifi_BLE_SDK/GD32VW55x_RELEASE_V1.0.2/MSDK/cloud/alicloud/src/services/awss\awss_enrollee.c ****  */
   4:C:/Users/stapi/OneDrive/Desktop/GD32VW553/V1_MQTT_OK/GD32VW55X_Wifi_BLE_SDK/GD32VW55x_RELEASE_V1.0.2/MSDK/cloud/alicloud/src/services/awss\awss_enrollee.c **** 
   5:C:/Users/stapi/OneDrive/Desktop/GD32VW553/V1_MQTT_OK/GD32VW55X_Wifi_BLE_SDK/GD32VW55x_RELEASE_V1.0.2/MSDK/cloud/alicloud/src/services/awss\awss_enrollee.c **** #include <stdlib.h>
   6:C:/Users/stapi/OneDrive/Desktop/GD32VW553/V1_MQTT_OK/GD32VW55X_Wifi_BLE_SDK/GD32VW55x_RELEASE_V1.0.2/MSDK/cloud/alicloud/src/services/awss\awss_enrollee.c **** #include "aws_lib.h"
   7:C:/Users/stapi/OneDrive/Desktop/GD32VW553/V1_MQTT_OK/GD32VW55X_Wifi_BLE_SDK/GD32VW55x_RELEASE_V1.0.2/MSDK/cloud/alicloud/src/services/awss\awss_enrollee.c **** #include "os.h"
   8:C:/Users/stapi/OneDrive/Desktop/GD32VW553/V1_MQTT_OK/GD32VW55X_Wifi_BLE_SDK/GD32VW55x_RELEASE_V1.0.2/MSDK/cloud/alicloud/src/services/awss\awss_enrollee.c **** #include "awss.h"
   9:C:/Users/stapi/OneDrive/Desktop/GD32VW553/V1_MQTT_OK/GD32VW55X_Wifi_BLE_SDK/GD32VW55x_RELEASE_V1.0.2/MSDK/cloud/alicloud/src/services/awss\awss_enrollee.c **** #include "awss_enrollee.h"
  10:C:/Users/stapi/OneDrive/Desktop/GD32VW553/V1_MQTT_OK/GD32VW55X_Wifi_BLE_SDK/GD32VW55x_RELEASE_V1.0.2/MSDK/cloud/alicloud/src/services/awss\awss_enrollee.c **** #include "awss_main.h"
  11:C:/Users/stapi/OneDrive/Desktop/GD32VW553/V1_MQTT_OK/GD32VW55X_Wifi_BLE_SDK/GD32VW55x_RELEASE_V1.0.2/MSDK/cloud/alicloud/src/services/awss\awss_enrollee.c **** #include "passwd.h"
  12:C:/Users/stapi/OneDrive/Desktop/GD32VW553/V1_MQTT_OK/GD32VW55X_Wifi_BLE_SDK/GD32VW55x_RELEASE_V1.0.2/MSDK/cloud/alicloud/src/services/awss\awss_enrollee.c **** #include "awss_cmp.h"
  13:C:/Users/stapi/OneDrive/Desktop/GD32VW553/V1_MQTT_OK/GD32VW55X_Wifi_BLE_SDK/GD32VW55x_RELEASE_V1.0.2/MSDK/cloud/alicloud/src/services/awss\awss_enrollee.c **** #include "awss_packet.h"
  14:C:/Users/stapi/OneDrive/Desktop/GD32VW553/V1_MQTT_OK/GD32VW55X_Wifi_BLE_SDK/GD32VW55x_RELEASE_V1.0.2/MSDK/cloud/alicloud/src/services/awss\awss_enrollee.c **** #include "awss_wifimgr.h"
  15:C:/Users/stapi/OneDrive/Desktop/GD32VW553/V1_MQTT_OK/GD32VW55X_Wifi_BLE_SDK/GD32VW55x_RELEASE_V1.0.2/MSDK/cloud/alicloud/src/services/awss\awss_enrollee.c **** #include "awss_statis.h"
  16:C:/Users/stapi/OneDrive/Desktop/GD32VW553/V1_MQTT_OK/GD32VW55X_Wifi_BLE_SDK/GD32VW55x_RELEASE_V1.0.2/MSDK/cloud/alicloud/src/services/awss\awss_enrollee.c **** #include "awss_crypt.h"
  17:C:/Users/stapi/OneDrive/Desktop/GD32VW553/V1_MQTT_OK/GD32VW55X_Wifi_BLE_SDK/GD32VW55x_RELEASE_V1.0.2/MSDK/cloud/alicloud/src/services/awss\awss_enrollee.c **** #include "zconfig_utils.h"
  18:C:/Users/stapi/OneDrive/Desktop/GD32VW553/V1_MQTT_OK/GD32VW55X_Wifi_BLE_SDK/GD32VW55x_RELEASE_V1.0.2/MSDK/cloud/alicloud/src/services/awss\awss_enrollee.c **** 
  19:C:/Users/stapi/OneDrive/Desktop/GD32VW553/V1_MQTT_OK/GD32VW55X_Wifi_BLE_SDK/GD32VW55x_RELEASE_V1.0.2/MSDK/cloud/alicloud/src/services/awss\awss_enrollee.c **** #ifndef AWSS_DISABLE_ENROLLEE
  20:C:/Users/stapi/OneDrive/Desktop/GD32VW553/V1_MQTT_OK/GD32VW55X_Wifi_BLE_SDK/GD32VW55x_RELEASE_V1.0.2/MSDK/cloud/alicloud/src/services/awss\awss_enrollee.c **** 
  21:C:/Users/stapi/OneDrive/Desktop/GD32VW553/V1_MQTT_OK/GD32VW55X_Wifi_BLE_SDK/GD32VW55x_RELEASE_V1.0.2/MSDK/cloud/alicloud/src/services/awss\awss_enrollee.c **** #if defined(__cplusplus)  /* If this is a C++ compiler, use C linkage */
  22:C:/Users/stapi/OneDrive/Desktop/GD32VW553/V1_MQTT_OK/GD32VW55X_Wifi_BLE_SDK/GD32VW55x_RELEASE_V1.0.2/MSDK/cloud/alicloud/src/services/awss\awss_enrollee.c **** extern "C"
  23:C:/Users/stapi/OneDrive/Desktop/GD32VW553/V1_MQTT_OK/GD32VW55X_Wifi_BLE_SDK/GD32VW55x_RELEASE_V1.0.2/MSDK/cloud/alicloud/src/services/awss\awss_enrollee.c **** {
  24:C:/Users/stapi/OneDrive/Desktop/GD32VW553/V1_MQTT_OK/GD32VW55X_Wifi_BLE_SDK/GD32VW55x_RELEASE_V1.0.2/MSDK/cloud/alicloud/src/services/awss\awss_enrollee.c **** #endif
  25:C:/Users/stapi/OneDrive/Desktop/GD32VW553/V1_MQTT_OK/GD32VW55X_Wifi_BLE_SDK/GD32VW55x_RELEASE_V1.0.2/MSDK/cloud/alicloud/src/services/awss\awss_enrollee.c **** 
  26:C:/Users/stapi/OneDrive/Desktop/GD32VW553/V1_MQTT_OK/GD32VW55X_Wifi_BLE_SDK/GD32VW55x_RELEASE_V1.0.2/MSDK/cloud/alicloud/src/services/awss\awss_enrollee.c **** const uint8_t probe_req_frame[ZC_PROBE_LEN] = {
  27:C:/Users/stapi/OneDrive/Desktop/GD32VW553/V1_MQTT_OK/GD32VW55X_Wifi_BLE_SDK/GD32VW55x_RELEASE_V1.0.2/MSDK/cloud/alicloud/src/services/awss\awss_enrollee.c ****     0x40, 0x00,  // mgnt type, frame control
  28:C:/Users/stapi/OneDrive/Desktop/GD32VW553/V1_MQTT_OK/GD32VW55X_Wifi_BLE_SDK/GD32VW55x_RELEASE_V1.0.2/MSDK/cloud/alicloud/src/services/awss\awss_enrollee.c ****     0x00, 0x00,  // duration
  29:C:/Users/stapi/OneDrive/Desktop/GD32VW553/V1_MQTT_OK/GD32VW55X_Wifi_BLE_SDK/GD32VW55x_RELEASE_V1.0.2/MSDK/cloud/alicloud/src/services/awss\awss_enrollee.c ****     0xFF, 0xFF, 0xFF, 0xFF, 0xFF, 0xFF,  // DA
  30:C:/Users/stapi/OneDrive/Desktop/GD32VW553/V1_MQTT_OK/GD32VW55X_Wifi_BLE_SDK/GD32VW55x_RELEASE_V1.0.2/MSDK/cloud/alicloud/src/services/awss\awss_enrollee.c ****     0x28, 0xC2, 0xDD, 0x61, 0x68, 0x83,  // SA, to be replaced with wifi mac
  31:C:/Users/stapi/OneDrive/Desktop/GD32VW553/V1_MQTT_OK/GD32VW55X_Wifi_BLE_SDK/GD32VW55x_RELEASE_V1.0.2/MSDK/cloud/alicloud/src/services/awss\awss_enrollee.c ****     0xFF, 0xFF, 0xFF, 0xFF, 0xFF, 0xFF,  // BSSID
  32:C:/Users/stapi/OneDrive/Desktop/GD32VW553/V1_MQTT_OK/GD32VW55X_Wifi_BLE_SDK/GD32VW55x_RELEASE_V1.0.2/MSDK/cloud/alicloud/src/services/awss\awss_enrollee.c ****     0xC0, 0x79,  // seq
  33:C:/Users/stapi/OneDrive/Desktop/GD32VW553/V1_MQTT_OK/GD32VW55X_Wifi_BLE_SDK/GD32VW55x_RELEASE_V1.0.2/MSDK/cloud/alicloud/src/services/awss\awss_enrollee.c ****     0x00, 0x00,  // hide ssid,
  34:C:/Users/stapi/OneDrive/Desktop/GD32VW553/V1_MQTT_OK/GD32VW55X_Wifi_BLE_SDK/GD32VW55x_RELEASE_V1.0.2/MSDK/cloud/alicloud/src/services/awss\awss_enrollee.c ****     0x01, 0x08, 0x82, 0x84, 0x8B, 0x96, 0x8C, 0x92, 0x98, 0xA4,  // supported rates
  35:C:/Users/stapi/OneDrive/Desktop/GD32VW553/V1_MQTT_OK/GD32VW55X_Wifi_BLE_SDK/GD32VW55x_RELEASE_V1.0.2/MSDK/cloud/alicloud/src/services/awss\awss_enrollee.c ****     0x32, 0x04, 0xB0, 0x48, 0x60, 0x6C,  // extended supported rates
  36:C:/Users/stapi/OneDrive/Desktop/GD32VW553/V1_MQTT_OK/GD32VW55X_Wifi_BLE_SDK/GD32VW55x_RELEASE_V1.0.2/MSDK/cloud/alicloud/src/services/awss\awss_enrollee.c ****     0x3F, 0x84, 0x10, 0x9E  // FCS
  37:C:/Users/stapi/OneDrive/Desktop/GD32VW553/V1_MQTT_OK/GD32VW55X_Wifi_BLE_SDK/GD32VW55x_RELEASE_V1.0.2/MSDK/cloud/alicloud/src/services/awss\awss_enrollee.c **** };
  38:C:/Users/stapi/OneDrive/Desktop/GD32VW553/V1_MQTT_OK/GD32VW55X_Wifi_BLE_SDK/GD32VW55x_RELEASE_V1.0.2/MSDK/cloud/alicloud/src/services/awss\awss_enrollee.c **** 
  39:C:/Users/stapi/OneDrive/Desktop/GD32VW553/V1_MQTT_OK/GD32VW55X_Wifi_BLE_SDK/GD32VW55x_RELEASE_V1.0.2/MSDK/cloud/alicloud/src/services/awss\awss_enrollee.c **** static uint8_t *g_dev_sign; /* pointer to dev_name_len start pos */
  40:C:/Users/stapi/OneDrive/Desktop/GD32VW553/V1_MQTT_OK/GD32VW55X_Wifi_BLE_SDK/GD32VW55x_RELEASE_V1.0.2/MSDK/cloud/alicloud/src/services/awss\awss_enrollee.c **** static uint8_t *g_product_key; /* pointer to model_len start pos */
  41:C:/Users/stapi/OneDrive/Desktop/GD32VW553/V1_MQTT_OK/GD32VW55X_Wifi_BLE_SDK/GD32VW55x_RELEASE_V1.0.2/MSDK/cloud/alicloud/src/services/awss\awss_enrollee.c **** static uint8_t *enrollee_frame;
  42:C:/Users/stapi/OneDrive/Desktop/GD32VW553/V1_MQTT_OK/GD32VW55X_Wifi_BLE_SDK/GD32VW55x_RELEASE_V1.0.2/MSDK/cloud/alicloud/src/services/awss\awss_enrollee.c **** static uint16_t enrollee_frame_len;
  43:C:/Users/stapi/OneDrive/Desktop/GD32VW553/V1_MQTT_OK/GD32VW55X_Wifi_BLE_SDK/GD32VW55x_RELEASE_V1.0.2/MSDK/cloud/alicloud/src/services/awss\awss_enrollee.c **** 
  44:C:/Users/stapi/OneDrive/Desktop/GD32VW553/V1_MQTT_OK/GD32VW55X_Wifi_BLE_SDK/GD32VW55x_RELEASE_V1.0.2/MSDK/cloud/alicloud/src/services/awss\awss_enrollee.c **** static int awss_enrollee_decrypt_passwd(uint8_t *ie, uint8_t ie_len,
  45:C:/Users/stapi/OneDrive/Desktop/GD32VW553/V1_MQTT_OK/GD32VW55X_Wifi_BLE_SDK/GD32VW55x_RELEASE_V1.0.2/MSDK/cloud/alicloud/src/services/awss\awss_enrollee.c ****                                uint8_t out_ssid[OS_MAX_SSID_LEN],
  46:C:/Users/stapi/OneDrive/Desktop/GD32VW553/V1_MQTT_OK/GD32VW55X_Wifi_BLE_SDK/GD32VW55x_RELEASE_V1.0.2/MSDK/cloud/alicloud/src/services/awss\awss_enrollee.c ****                                uint8_t out_passwd[OS_MAX_PASSWD_LEN],
  47:C:/Users/stapi/OneDrive/Desktop/GD32VW553/V1_MQTT_OK/GD32VW55X_Wifi_BLE_SDK/GD32VW55x_RELEASE_V1.0.2/MSDK/cloud/alicloud/src/services/awss\awss_enrollee.c ****                                uint8_t out_bssid[ETH_ALEN],
  48:C:/Users/stapi/OneDrive/Desktop/GD32VW553/V1_MQTT_OK/GD32VW55X_Wifi_BLE_SDK/GD32VW55x_RELEASE_V1.0.2/MSDK/cloud/alicloud/src/services/awss\awss_enrollee.c ****                                uint8_t out_token[ZC_MAX_TOKEN_LEN],
  49:C:/Users/stapi/OneDrive/Desktop/GD32VW553/V1_MQTT_OK/GD32VW55X_Wifi_BLE_SDK/GD32VW55x_RELEASE_V1.0.2/MSDK/cloud/alicloud/src/services/awss\awss_enrollee.c ****                                uint8_t *out_token_type);
  50:C:/Users/stapi/OneDrive/Desktop/GD32VW553/V1_MQTT_OK/GD32VW55X_Wifi_BLE_SDK/GD32VW55x_RELEASE_V1.0.2/MSDK/cloud/alicloud/src/services/awss\awss_enrollee.c **** 
  51:C:/Users/stapi/OneDrive/Desktop/GD32VW553/V1_MQTT_OK/GD32VW55X_Wifi_BLE_SDK/GD32VW55x_RELEASE_V1.0.2/MSDK/cloud/alicloud/src/services/awss\awss_enrollee.c **** void awss_enrollee_init_info(void)// void enrollee_raw_frame_init(void)
  52:C:/Users/stapi/OneDrive/Desktop/GD32VW553/V1_MQTT_OK/GD32VW55X_Wifi_BLE_SDK/GD32VW55x_RELEASE_V1.0.2/MSDK/cloud/alicloud/src/services/awss\awss_enrollee.c **** {
  95              		.loc 2 52 1 is_stmt 1
  96              		.cfi_startproc
  97 0000 17030000 		call	t0,__riscv_save_9
  97      E7020300 
  98              		.cfi_offset 24, -40
  99              		.cfi_offset 23, -36
 100              		.cfi_offset 22, -32
 101              		.cfi_offset 21, -28
 102              		.cfi_offset 20, -24
 103              		.cfi_offset 19, -20
 104              		.cfi_offset 18, -16
 105              		.cfi_offset 9, -12
 106              		.cfi_offset 8, -8
 107              		.cfi_offset 1, -4
 108              		.cfi_def_cfa_offset 48
  53:C:/Users/stapi/OneDrive/Desktop/GD32VW553/V1_MQTT_OK/GD32VW55X_Wifi_BLE_SDK/GD32VW55x_RELEASE_V1.0.2/MSDK/cloud/alicloud/src/services/awss\awss_enrollee.c ****     char *pk = NULL, *dev_name = NULL, *text = NULL;
 109              		.loc 2 53 5
 110              	.LVL7:
  54:C:/Users/stapi/OneDrive/Desktop/GD32VW553/V1_MQTT_OK/GD32VW55X_Wifi_BLE_SDK/GD32VW55x_RELEASE_V1.0.2/MSDK/cloud/alicloud/src/services/awss\awss_enrollee.c ****     uint8_t sign[ENROLLEE_SIGN_SIZE + 1] = {0};
 111              		.loc 2 54 5
  52:C:/Users/stapi/OneDrive/Desktop/GD32VW553/V1_MQTT_OK/GD32VW55X_Wifi_BLE_SDK/GD32VW55x_RELEASE_V1.0.2/MSDK/cloud/alicloud/src/services/awss\awss_enrollee.c ****     char *pk = NULL, *dev_name = NULL, *text = NULL;
 112              		.loc 2 52 1 is_stmt 0
 113 0008 1D71     		addi	sp,sp,-96
 114              		.cfi_def_cfa_offset 144
  55:C:/Users/stapi/OneDrive/Desktop/GD32VW553/V1_MQTT_OK/GD32VW55X_Wifi_BLE_SDK/GD32VW55x_RELEASE_V1.0.2/MSDK/cloud/alicloud/src/services/awss\awss_enrollee.c ****     char key[OS_DEVICE_SECRET_LEN + 1] = {0};
 115              		.loc 2 55 10
 116 000a 1306D003 		li	a2,61
 117 000e 8145     		li	a1,0
 118 0010 0810     		addi	a0,sp,32
  54:C:/Users/stapi/OneDrive/Desktop/GD32VW553/V1_MQTT_OK/GD32VW55X_Wifi_BLE_SDK/GD32VW55x_RELEASE_V1.0.2/MSDK/cloud/alicloud/src/services/awss\awss_enrollee.c ****     uint8_t sign[ENROLLEE_SIGN_SIZE + 1] = {0};
 119              		.loc 2 54 13
 120 0012 02C2     		sw	zero,4(sp)
 121 0014 02C4     		sw	zero,8(sp)
 122 0016 02C6     		sw	zero,12(sp)
 123 0018 02C8     		sw	zero,16(sp)
 124 001a 02CA     		sw	zero,20(sp)
 125 001c 230C0100 		sb	zero,24(sp)
 126              		.loc 2 55 5 is_stmt 1
 127              		.loc 2 55 10 is_stmt 0
 128 0020 02CE     		sw	zero,28(sp)
  56:C:/Users/stapi/OneDrive/Desktop/GD32VW553/V1_MQTT_OK/GD32VW55X_Wifi_BLE_SDK/GD32VW55x_RELEASE_V1.0.2/MSDK/cloud/alicloud/src/services/awss\awss_enrollee.c ****     int dev_name_len, pk_len;
  57:C:/Users/stapi/OneDrive/Desktop/GD32VW553/V1_MQTT_OK/GD32VW55X_Wifi_BLE_SDK/GD32VW55x_RELEASE_V1.0.2/MSDK/cloud/alicloud/src/services/awss\awss_enrollee.c ****     int len, ie_len;
  58:C:/Users/stapi/OneDrive/Desktop/GD32VW553/V1_MQTT_OK/GD32VW55X_Wifi_BLE_SDK/GD32VW55x_RELEASE_V1.0.2/MSDK/cloud/alicloud/src/services/awss\awss_enrollee.c **** 
  59:C:/Users/stapi/OneDrive/Desktop/GD32VW553/V1_MQTT_OK/GD32VW55X_Wifi_BLE_SDK/GD32VW55x_RELEASE_V1.0.2/MSDK/cloud/alicloud/src/services/awss\awss_enrollee.c ****     if (enrollee_frame_len) {
 129              		.loc 2 59 9
 130 0022 B70A0000 		lui	s5,%hi(.LANCHOR0)
  55:C:/Users/stapi/OneDrive/Desktop/GD32VW553/V1_MQTT_OK/GD32VW55X_Wifi_BLE_SDK/GD32VW55x_RELEASE_V1.0.2/MSDK/cloud/alicloud/src/services/awss\awss_enrollee.c ****     char key[OS_DEVICE_SECRET_LEN + 1] = {0};
 131              		.loc 2 55 10
 132 0026 97000000 		call	memset
 132      E7800000 
 133              	.LVL8:
  56:C:/Users/stapi/OneDrive/Desktop/GD32VW553/V1_MQTT_OK/GD32VW55X_Wifi_BLE_SDK/GD32VW55x_RELEASE_V1.0.2/MSDK/cloud/alicloud/src/services/awss\awss_enrollee.c ****     int dev_name_len, pk_len;
 134              		.loc 2 56 5 is_stmt 1
  57:C:/Users/stapi/OneDrive/Desktop/GD32VW553/V1_MQTT_OK/GD32VW55X_Wifi_BLE_SDK/GD32VW55x_RELEASE_V1.0.2/MSDK/cloud/alicloud/src/services/awss\awss_enrollee.c **** 
 135              		.loc 2 57 5
 136              		.loc 2 59 5
 137              		.loc 2 59 8 is_stmt 0
 138 002e 83D70A00 		lhu	a5,%lo(.LANCHOR0)(s5)
 139 0032 95CF     		beq	a5,zero,.L8
  60:C:/Users/stapi/OneDrive/Desktop/GD32VW553/V1_MQTT_OK/GD32VW55X_Wifi_BLE_SDK/GD32VW55x_RELEASE_V1.0.2/MSDK/cloud/alicloud/src/services/awss\awss_enrollee.c ****         awss_warn("enr_frame already inited");
 140              		.loc 2 60 9 is_stmt 1
 141              		.loc 2 60 9
 142 0034 37050000 		lui	a0,%hi(.LC0)
 143 0038 13050500 		addi	a0,a0,%lo(.LC0)
 144 003c 97000000 		call	HAL_Printf
 144      E7800000 
 145              	.LVL9:
 146              		.loc 2 60 9
 147 0044 37050000 		lui	a0,%hi(.LC1)
 148 0048 13050500 		addi	a0,a0,%lo(.LC1)
 149 004c 97000000 		call	HAL_Printf
 149      E7800000 
 150              	.LVL10:
 151              		.loc 2 60 9
 152              	.L15:
  61:C:/Users/stapi/OneDrive/Desktop/GD32VW553/V1_MQTT_OK/GD32VW55X_Wifi_BLE_SDK/GD32VW55x_RELEASE_V1.0.2/MSDK/cloud/alicloud/src/services/awss\awss_enrollee.c ****         return;
  62:C:/Users/stapi/OneDrive/Desktop/GD32VW553/V1_MQTT_OK/GD32VW55X_Wifi_BLE_SDK/GD32VW55x_RELEASE_V1.0.2/MSDK/cloud/alicloud/src/services/awss\awss_enrollee.c ****     }
  63:C:/Users/stapi/OneDrive/Desktop/GD32VW553/V1_MQTT_OK/GD32VW55X_Wifi_BLE_SDK/GD32VW55x_RELEASE_V1.0.2/MSDK/cloud/alicloud/src/services/awss\awss_enrollee.c **** 
  64:C:/Users/stapi/OneDrive/Desktop/GD32VW553/V1_MQTT_OK/GD32VW55X_Wifi_BLE_SDK/GD32VW55x_RELEASE_V1.0.2/MSDK/cloud/alicloud/src/services/awss\awss_enrollee.c ****     dev_name = os_zalloc(OS_DEVICE_NAME_LEN + 1);
  65:C:/Users/stapi/OneDrive/Desktop/GD32VW553/V1_MQTT_OK/GD32VW55X_Wifi_BLE_SDK/GD32VW55x_RELEASE_V1.0.2/MSDK/cloud/alicloud/src/services/awss\awss_enrollee.c ****     pk = os_zalloc(OS_PRODUCT_KEY_LEN + 1);
  66:C:/Users/stapi/OneDrive/Desktop/GD32VW553/V1_MQTT_OK/GD32VW55X_Wifi_BLE_SDK/GD32VW55x_RELEASE_V1.0.2/MSDK/cloud/alicloud/src/services/awss\awss_enrollee.c **** 
  67:C:/Users/stapi/OneDrive/Desktop/GD32VW553/V1_MQTT_OK/GD32VW55X_Wifi_BLE_SDK/GD32VW55x_RELEASE_V1.0.2/MSDK/cloud/alicloud/src/services/awss\awss_enrollee.c ****     os_product_get_key(pk);
  68:C:/Users/stapi/OneDrive/Desktop/GD32VW553/V1_MQTT_OK/GD32VW55X_Wifi_BLE_SDK/GD32VW55x_RELEASE_V1.0.2/MSDK/cloud/alicloud/src/services/awss\awss_enrollee.c ****     pk_len = strlen(pk);
  69:C:/Users/stapi/OneDrive/Desktop/GD32VW553/V1_MQTT_OK/GD32VW55X_Wifi_BLE_SDK/GD32VW55x_RELEASE_V1.0.2/MSDK/cloud/alicloud/src/services/awss\awss_enrollee.c **** 
  70:C:/Users/stapi/OneDrive/Desktop/GD32VW553/V1_MQTT_OK/GD32VW55X_Wifi_BLE_SDK/GD32VW55x_RELEASE_V1.0.2/MSDK/cloud/alicloud/src/services/awss\awss_enrollee.c ****     os_device_get_name(dev_name);
  71:C:/Users/stapi/OneDrive/Desktop/GD32VW553/V1_MQTT_OK/GD32VW55X_Wifi_BLE_SDK/GD32VW55x_RELEASE_V1.0.2/MSDK/cloud/alicloud/src/services/awss\awss_enrollee.c ****     dev_name_len = strlen(dev_name);
  72:C:/Users/stapi/OneDrive/Desktop/GD32VW553/V1_MQTT_OK/GD32VW55X_Wifi_BLE_SDK/GD32VW55x_RELEASE_V1.0.2/MSDK/cloud/alicloud/src/services/awss\awss_enrollee.c **** 
  73:C:/Users/stapi/OneDrive/Desktop/GD32VW553/V1_MQTT_OK/GD32VW55X_Wifi_BLE_SDK/GD32VW55x_RELEASE_V1.0.2/MSDK/cloud/alicloud/src/services/awss\awss_enrollee.c ****     len = RANDOM_MAX_LEN + dev_name_len + pk_len;
  74:C:/Users/stapi/OneDrive/Desktop/GD32VW553/V1_MQTT_OK/GD32VW55X_Wifi_BLE_SDK/GD32VW55x_RELEASE_V1.0.2/MSDK/cloud/alicloud/src/services/awss\awss_enrollee.c ****     text = os_zalloc(len + 1); /* +1 for string print */
  75:C:/Users/stapi/OneDrive/Desktop/GD32VW553/V1_MQTT_OK/GD32VW55X_Wifi_BLE_SDK/GD32VW55x_RELEASE_V1.0.2/MSDK/cloud/alicloud/src/services/awss\awss_enrollee.c **** 
  76:C:/Users/stapi/OneDrive/Desktop/GD32VW553/V1_MQTT_OK/GD32VW55X_Wifi_BLE_SDK/GD32VW55x_RELEASE_V1.0.2/MSDK/cloud/alicloud/src/services/awss\awss_enrollee.c ****     awss_build_sign_src(text, &len);
  77:C:/Users/stapi/OneDrive/Desktop/GD32VW553/V1_MQTT_OK/GD32VW55X_Wifi_BLE_SDK/GD32VW55x_RELEASE_V1.0.2/MSDK/cloud/alicloud/src/services/awss\awss_enrollee.c ****     if (os_get_conn_encrypt_type() == 3) { // aes-key per product
  78:C:/Users/stapi/OneDrive/Desktop/GD32VW553/V1_MQTT_OK/GD32VW55X_Wifi_BLE_SDK/GD32VW55x_RELEASE_V1.0.2/MSDK/cloud/alicloud/src/services/awss\awss_enrollee.c ****         os_product_get_secret(key);
  79:C:/Users/stapi/OneDrive/Desktop/GD32VW553/V1_MQTT_OK/GD32VW55X_Wifi_BLE_SDK/GD32VW55x_RELEASE_V1.0.2/MSDK/cloud/alicloud/src/services/awss\awss_enrollee.c ****     } else { // aes-key per device
  80:C:/Users/stapi/OneDrive/Desktop/GD32VW553/V1_MQTT_OK/GD32VW55X_Wifi_BLE_SDK/GD32VW55x_RELEASE_V1.0.2/MSDK/cloud/alicloud/src/services/awss\awss_enrollee.c ****         os_device_get_secret(key);
  81:C:/Users/stapi/OneDrive/Desktop/GD32VW553/V1_MQTT_OK/GD32VW55X_Wifi_BLE_SDK/GD32VW55x_RELEASE_V1.0.2/MSDK/cloud/alicloud/src/services/awss\awss_enrollee.c ****     }
  82:C:/Users/stapi/OneDrive/Desktop/GD32VW553/V1_MQTT_OK/GD32VW55X_Wifi_BLE_SDK/GD32VW55x_RELEASE_V1.0.2/MSDK/cloud/alicloud/src/services/awss\awss_enrollee.c ****     produce_signature(sign, (uint8_t *)text, len, key);
  83:C:/Users/stapi/OneDrive/Desktop/GD32VW553/V1_MQTT_OK/GD32VW55X_Wifi_BLE_SDK/GD32VW55x_RELEASE_V1.0.2/MSDK/cloud/alicloud/src/services/awss\awss_enrollee.c **** 
  84:C:/Users/stapi/OneDrive/Desktop/GD32VW553/V1_MQTT_OK/GD32VW55X_Wifi_BLE_SDK/GD32VW55x_RELEASE_V1.0.2/MSDK/cloud/alicloud/src/services/awss\awss_enrollee.c ****     os_free(text);
  85:C:/Users/stapi/OneDrive/Desktop/GD32VW553/V1_MQTT_OK/GD32VW55X_Wifi_BLE_SDK/GD32VW55x_RELEASE_V1.0.2/MSDK/cloud/alicloud/src/services/awss\awss_enrollee.c **** 
  86:C:/Users/stapi/OneDrive/Desktop/GD32VW553/V1_MQTT_OK/GD32VW55X_Wifi_BLE_SDK/GD32VW55x_RELEASE_V1.0.2/MSDK/cloud/alicloud/src/services/awss\awss_enrollee.c ****     ie_len = pk_len + dev_name_len + ENROLLEE_IE_FIX_LEN;
  87:C:/Users/stapi/OneDrive/Desktop/GD32VW553/V1_MQTT_OK/GD32VW55X_Wifi_BLE_SDK/GD32VW55x_RELEASE_V1.0.2/MSDK/cloud/alicloud/src/services/awss\awss_enrollee.c ****     enrollee_frame_len = sizeof(probe_req_frame) + ie_len;
  88:C:/Users/stapi/OneDrive/Desktop/GD32VW553/V1_MQTT_OK/GD32VW55X_Wifi_BLE_SDK/GD32VW55x_RELEASE_V1.0.2/MSDK/cloud/alicloud/src/services/awss\awss_enrollee.c **** 
  89:C:/Users/stapi/OneDrive/Desktop/GD32VW553/V1_MQTT_OK/GD32VW55X_Wifi_BLE_SDK/GD32VW55x_RELEASE_V1.0.2/MSDK/cloud/alicloud/src/services/awss\awss_enrollee.c ****     enrollee_frame = os_zalloc(enrollee_frame_len);
  90:C:/Users/stapi/OneDrive/Desktop/GD32VW553/V1_MQTT_OK/GD32VW55X_Wifi_BLE_SDK/GD32VW55x_RELEASE_V1.0.2/MSDK/cloud/alicloud/src/services/awss\awss_enrollee.c **** 
  91:C:/Users/stapi/OneDrive/Desktop/GD32VW553/V1_MQTT_OK/GD32VW55X_Wifi_BLE_SDK/GD32VW55x_RELEASE_V1.0.2/MSDK/cloud/alicloud/src/services/awss\awss_enrollee.c ****     /* construct the enrollee frame right now */
  92:C:/Users/stapi/OneDrive/Desktop/GD32VW553/V1_MQTT_OK/GD32VW55X_Wifi_BLE_SDK/GD32VW55x_RELEASE_V1.0.2/MSDK/cloud/alicloud/src/services/awss\awss_enrollee.c ****     len = sizeof(probe_req_frame) - MGMT_FCS_SIZE;
  93:C:/Users/stapi/OneDrive/Desktop/GD32VW553/V1_MQTT_OK/GD32VW55X_Wifi_BLE_SDK/GD32VW55x_RELEASE_V1.0.2/MSDK/cloud/alicloud/src/services/awss\awss_enrollee.c ****     memcpy(enrollee_frame, probe_req_frame, len);
  94:C:/Users/stapi/OneDrive/Desktop/GD32VW553/V1_MQTT_OK/GD32VW55X_Wifi_BLE_SDK/GD32VW55x_RELEASE_V1.0.2/MSDK/cloud/alicloud/src/services/awss\awss_enrollee.c **** 
  95:C:/Users/stapi/OneDrive/Desktop/GD32VW553/V1_MQTT_OK/GD32VW55X_Wifi_BLE_SDK/GD32VW55x_RELEASE_V1.0.2/MSDK/cloud/alicloud/src/services/awss\awss_enrollee.c ****     enrollee_frame[len ++] = 221; //vendor ie
  96:C:/Users/stapi/OneDrive/Desktop/GD32VW553/V1_MQTT_OK/GD32VW55X_Wifi_BLE_SDK/GD32VW55x_RELEASE_V1.0.2/MSDK/cloud/alicloud/src/services/awss\awss_enrollee.c ****     enrollee_frame[len ++] = ie_len - 2; /* exclude 221 & len */
  97:C:/Users/stapi/OneDrive/Desktop/GD32VW553/V1_MQTT_OK/GD32VW55X_Wifi_BLE_SDK/GD32VW55x_RELEASE_V1.0.2/MSDK/cloud/alicloud/src/services/awss\awss_enrollee.c ****     enrollee_frame[len ++] = 0xD8;
  98:C:/Users/stapi/OneDrive/Desktop/GD32VW553/V1_MQTT_OK/GD32VW55X_Wifi_BLE_SDK/GD32VW55x_RELEASE_V1.0.2/MSDK/cloud/alicloud/src/services/awss\awss_enrollee.c ****     enrollee_frame[len ++] = 0x96;
  99:C:/Users/stapi/OneDrive/Desktop/GD32VW553/V1_MQTT_OK/GD32VW55X_Wifi_BLE_SDK/GD32VW55x_RELEASE_V1.0.2/MSDK/cloud/alicloud/src/services/awss\awss_enrollee.c ****     enrollee_frame[len ++] = 0xE0;
 100:C:/Users/stapi/OneDrive/Desktop/GD32VW553/V1_MQTT_OK/GD32VW55X_Wifi_BLE_SDK/GD32VW55x_RELEASE_V1.0.2/MSDK/cloud/alicloud/src/services/awss\awss_enrollee.c ****     enrollee_frame[len ++] = WLAN_OUI_TYPE_ENROLLEE;/* OUI type */
 101:C:/Users/stapi/OneDrive/Desktop/GD32VW553/V1_MQTT_OK/GD32VW55X_Wifi_BLE_SDK/GD32VW55x_RELEASE_V1.0.2/MSDK/cloud/alicloud/src/services/awss\awss_enrollee.c ****     enrollee_frame[len ++] = DEVICE_TYPE_VERSION_0;/* version & dev type */
 102:C:/Users/stapi/OneDrive/Desktop/GD32VW553/V1_MQTT_OK/GD32VW55X_Wifi_BLE_SDK/GD32VW55x_RELEASE_V1.0.2/MSDK/cloud/alicloud/src/services/awss\awss_enrollee.c **** 
 103:C:/Users/stapi/OneDrive/Desktop/GD32VW553/V1_MQTT_OK/GD32VW55X_Wifi_BLE_SDK/GD32VW55x_RELEASE_V1.0.2/MSDK/cloud/alicloud/src/services/awss\awss_enrollee.c ****     enrollee_frame[len ++] = dev_name_len;/* dev name len*/
 104:C:/Users/stapi/OneDrive/Desktop/GD32VW553/V1_MQTT_OK/GD32VW55X_Wifi_BLE_SDK/GD32VW55x_RELEASE_V1.0.2/MSDK/cloud/alicloud/src/services/awss\awss_enrollee.c ****     memcpy(&enrollee_frame[len], dev_name, dev_name_len);
 105:C:/Users/stapi/OneDrive/Desktop/GD32VW553/V1_MQTT_OK/GD32VW55X_Wifi_BLE_SDK/GD32VW55x_RELEASE_V1.0.2/MSDK/cloud/alicloud/src/services/awss\awss_enrollee.c ****     len += dev_name_len;
 106:C:/Users/stapi/OneDrive/Desktop/GD32VW553/V1_MQTT_OK/GD32VW55X_Wifi_BLE_SDK/GD32VW55x_RELEASE_V1.0.2/MSDK/cloud/alicloud/src/services/awss\awss_enrollee.c **** 
 107:C:/Users/stapi/OneDrive/Desktop/GD32VW553/V1_MQTT_OK/GD32VW55X_Wifi_BLE_SDK/GD32VW55x_RELEASE_V1.0.2/MSDK/cloud/alicloud/src/services/awss\awss_enrollee.c ****     enrollee_frame[len ++] = ENROLLEE_FRAME_TYPE;/* frame type */
 108:C:/Users/stapi/OneDrive/Desktop/GD32VW553/V1_MQTT_OK/GD32VW55X_Wifi_BLE_SDK/GD32VW55x_RELEASE_V1.0.2/MSDK/cloud/alicloud/src/services/awss\awss_enrollee.c **** 
 109:C:/Users/stapi/OneDrive/Desktop/GD32VW553/V1_MQTT_OK/GD32VW55X_Wifi_BLE_SDK/GD32VW55x_RELEASE_V1.0.2/MSDK/cloud/alicloud/src/services/awss\awss_enrollee.c ****     g_product_key = &enrollee_frame[len]; /* pointer to pk len, see decrypt func */
 110:C:/Users/stapi/OneDrive/Desktop/GD32VW553/V1_MQTT_OK/GD32VW55X_Wifi_BLE_SDK/GD32VW55x_RELEASE_V1.0.2/MSDK/cloud/alicloud/src/services/awss\awss_enrollee.c ****     enrollee_frame[len ++] = pk_len;
 111:C:/Users/stapi/OneDrive/Desktop/GD32VW553/V1_MQTT_OK/GD32VW55X_Wifi_BLE_SDK/GD32VW55x_RELEASE_V1.0.2/MSDK/cloud/alicloud/src/services/awss\awss_enrollee.c ****     memcpy(&enrollee_frame[len], pk, pk_len);
 112:C:/Users/stapi/OneDrive/Desktop/GD32VW553/V1_MQTT_OK/GD32VW55X_Wifi_BLE_SDK/GD32VW55x_RELEASE_V1.0.2/MSDK/cloud/alicloud/src/services/awss\awss_enrollee.c ****     len += pk_len;
 113:C:/Users/stapi/OneDrive/Desktop/GD32VW553/V1_MQTT_OK/GD32VW55X_Wifi_BLE_SDK/GD32VW55x_RELEASE_V1.0.2/MSDK/cloud/alicloud/src/services/awss\awss_enrollee.c **** 
 114:C:/Users/stapi/OneDrive/Desktop/GD32VW553/V1_MQTT_OK/GD32VW55X_Wifi_BLE_SDK/GD32VW55x_RELEASE_V1.0.2/MSDK/cloud/alicloud/src/services/awss\awss_enrollee.c ****     enrollee_frame[len ++] = RANDOM_MAX_LEN;
 115:C:/Users/stapi/OneDrive/Desktop/GD32VW553/V1_MQTT_OK/GD32VW55X_Wifi_BLE_SDK/GD32VW55x_RELEASE_V1.0.2/MSDK/cloud/alicloud/src/services/awss\awss_enrollee.c ****     memcpy(&enrollee_frame[len], g_aes_random, RANDOM_MAX_LEN);
 116:C:/Users/stapi/OneDrive/Desktop/GD32VW553/V1_MQTT_OK/GD32VW55X_Wifi_BLE_SDK/GD32VW55x_RELEASE_V1.0.2/MSDK/cloud/alicloud/src/services/awss\awss_enrollee.c ****     len += RANDOM_MAX_LEN;
 117:C:/Users/stapi/OneDrive/Desktop/GD32VW553/V1_MQTT_OK/GD32VW55X_Wifi_BLE_SDK/GD32VW55x_RELEASE_V1.0.2/MSDK/cloud/alicloud/src/services/awss\awss_enrollee.c **** 
 118:C:/Users/stapi/OneDrive/Desktop/GD32VW553/V1_MQTT_OK/GD32VW55X_Wifi_BLE_SDK/GD32VW55x_RELEASE_V1.0.2/MSDK/cloud/alicloud/src/services/awss\awss_enrollee.c ****     enrollee_frame[len ++] = os_get_conn_encrypt_type();  // encrypt type
 119:C:/Users/stapi/OneDrive/Desktop/GD32VW553/V1_MQTT_OK/GD32VW55X_Wifi_BLE_SDK/GD32VW55x_RELEASE_V1.0.2/MSDK/cloud/alicloud/src/services/awss\awss_enrollee.c ****     enrollee_frame[len ++] = 0;  // signature method, 0: hmacsha1, 1: hmacsha256
 120:C:/Users/stapi/OneDrive/Desktop/GD32VW553/V1_MQTT_OK/GD32VW55X_Wifi_BLE_SDK/GD32VW55x_RELEASE_V1.0.2/MSDK/cloud/alicloud/src/services/awss\awss_enrollee.c ****     enrollee_frame[len ++] = ENROLLEE_SIGN_SIZE;  // signature length
 121:C:/Users/stapi/OneDrive/Desktop/GD32VW553/V1_MQTT_OK/GD32VW55X_Wifi_BLE_SDK/GD32VW55x_RELEASE_V1.0.2/MSDK/cloud/alicloud/src/services/awss\awss_enrollee.c ****     g_dev_sign = &enrollee_frame[len];
 122:C:/Users/stapi/OneDrive/Desktop/GD32VW553/V1_MQTT_OK/GD32VW55X_Wifi_BLE_SDK/GD32VW55x_RELEASE_V1.0.2/MSDK/cloud/alicloud/src/services/awss\awss_enrollee.c ****     memcpy(&enrollee_frame[len], sign, ENROLLEE_SIGN_SIZE);
 123:C:/Users/stapi/OneDrive/Desktop/GD32VW553/V1_MQTT_OK/GD32VW55X_Wifi_BLE_SDK/GD32VW55x_RELEASE_V1.0.2/MSDK/cloud/alicloud/src/services/awss\awss_enrollee.c ****     len += ENROLLEE_SIGN_SIZE;
 124:C:/Users/stapi/OneDrive/Desktop/GD32VW553/V1_MQTT_OK/GD32VW55X_Wifi_BLE_SDK/GD32VW55x_RELEASE_V1.0.2/MSDK/cloud/alicloud/src/services/awss\awss_enrollee.c **** 
 125:C:/Users/stapi/OneDrive/Desktop/GD32VW553/V1_MQTT_OK/GD32VW55X_Wifi_BLE_SDK/GD32VW55x_RELEASE_V1.0.2/MSDK/cloud/alicloud/src/services/awss\awss_enrollee.c ****     memcpy(&enrollee_frame[len],
 126:C:/Users/stapi/OneDrive/Desktop/GD32VW553/V1_MQTT_OK/GD32VW55X_Wifi_BLE_SDK/GD32VW55x_RELEASE_V1.0.2/MSDK/cloud/alicloud/src/services/awss\awss_enrollee.c ****            &probe_req_frame[sizeof(probe_req_frame) - MGMT_FCS_SIZE], MGMT_FCS_SIZE);
 127:C:/Users/stapi/OneDrive/Desktop/GD32VW553/V1_MQTT_OK/GD32VW55X_Wifi_BLE_SDK/GD32VW55x_RELEASE_V1.0.2/MSDK/cloud/alicloud/src/services/awss\awss_enrollee.c ****     len += MGMT_FCS_SIZE;
 128:C:/Users/stapi/OneDrive/Desktop/GD32VW553/V1_MQTT_OK/GD32VW55X_Wifi_BLE_SDK/GD32VW55x_RELEASE_V1.0.2/MSDK/cloud/alicloud/src/services/awss\awss_enrollee.c **** 
 129:C:/Users/stapi/OneDrive/Desktop/GD32VW553/V1_MQTT_OK/GD32VW55X_Wifi_BLE_SDK/GD32VW55x_RELEASE_V1.0.2/MSDK/cloud/alicloud/src/services/awss\awss_enrollee.c ****     os_free(dev_name);
 130:C:/Users/stapi/OneDrive/Desktop/GD32VW553/V1_MQTT_OK/GD32VW55X_Wifi_BLE_SDK/GD32VW55x_RELEASE_V1.0.2/MSDK/cloud/alicloud/src/services/awss\awss_enrollee.c ****     os_free(pk);
 131:C:/Users/stapi/OneDrive/Desktop/GD32VW553/V1_MQTT_OK/GD32VW55X_Wifi_BLE_SDK/GD32VW55x_RELEASE_V1.0.2/MSDK/cloud/alicloud/src/services/awss\awss_enrollee.c **** 
 132:C:/Users/stapi/OneDrive/Desktop/GD32VW553/V1_MQTT_OK/GD32VW55X_Wifi_BLE_SDK/GD32VW55x_RELEASE_V1.0.2/MSDK/cloud/alicloud/src/services/awss\awss_enrollee.c ****     // make sure management frame not overflow
 133:C:/Users/stapi/OneDrive/Desktop/GD32VW553/V1_MQTT_OK/GD32VW55X_Wifi_BLE_SDK/GD32VW55x_RELEASE_V1.0.2/MSDK/cloud/alicloud/src/services/awss\awss_enrollee.c ****     if (len > enrollee_frame_len) {
 134:C:/Users/stapi/OneDrive/Desktop/GD32VW553/V1_MQTT_OK/GD32VW55X_Wifi_BLE_SDK/GD32VW55x_RELEASE_V1.0.2/MSDK/cloud/alicloud/src/services/awss\awss_enrollee.c ****         awss_err("enr_frame init overflow(%d)", len);
 153              		.loc 2 134 9
 154 0054 37050000 		lui	a0,%hi(.LC2)
 155 0058 13050500 		addi	a0,a0,%lo(.LC2)
 156 005c 97000000 		call	HAL_Printf
 156      E7800000 
 157              	.LVL11:
 158              		.loc 2 134 9
 135:C:/Users/stapi/OneDrive/Desktop/GD32VW553/V1_MQTT_OK/GD32VW55X_Wifi_BLE_SDK/GD32VW55x_RELEASE_V1.0.2/MSDK/cloud/alicloud/src/services/awss\awss_enrollee.c ****         return;
 159              		.loc 2 135 9
 160              	.L7:
 136:C:/Users/stapi/OneDrive/Desktop/GD32VW553/V1_MQTT_OK/GD32VW55X_Wifi_BLE_SDK/GD32VW55x_RELEASE_V1.0.2/MSDK/cloud/alicloud/src/services/awss\awss_enrollee.c ****     }
 137:C:/Users/stapi/OneDrive/Desktop/GD32VW553/V1_MQTT_OK/GD32VW55X_Wifi_BLE_SDK/GD32VW55x_RELEASE_V1.0.2/MSDK/cloud/alicloud/src/services/awss\awss_enrollee.c **** 
 138:C:/Users/stapi/OneDrive/Desktop/GD32VW553/V1_MQTT_OK/GD32VW55X_Wifi_BLE_SDK/GD32VW55x_RELEASE_V1.0.2/MSDK/cloud/alicloud/src/services/awss\awss_enrollee.c ****     // update probe request frame src mac
 139:C:/Users/stapi/OneDrive/Desktop/GD32VW553/V1_MQTT_OK/GD32VW55X_Wifi_BLE_SDK/GD32VW55x_RELEASE_V1.0.2/MSDK/cloud/alicloud/src/services/awss\awss_enrollee.c ****     os_wifi_get_mac(enrollee_frame + MGMT_SA_POS);
 140:C:/Users/stapi/OneDrive/Desktop/GD32VW553/V1_MQTT_OK/GD32VW55X_Wifi_BLE_SDK/GD32VW55x_RELEASE_V1.0.2/MSDK/cloud/alicloud/src/services/awss\awss_enrollee.c **** 
 141:C:/Users/stapi/OneDrive/Desktop/GD32VW553/V1_MQTT_OK/GD32VW55X_Wifi_BLE_SDK/GD32VW55x_RELEASE_V1.0.2/MSDK/cloud/alicloud/src/services/awss\awss_enrollee.c ****     awss_debug("enr_frame init done(%d)", len);
 142:C:/Users/stapi/OneDrive/Desktop/GD32VW553/V1_MQTT_OK/GD32VW55X_Wifi_BLE_SDK/GD32VW55x_RELEASE_V1.0.2/MSDK/cloud/alicloud/src/services/awss\awss_enrollee.c **** #if ZERO_AWSS_VERBOSE_DBG
 143:C:/Users/stapi/OneDrive/Desktop/GD32VW553/V1_MQTT_OK/GD32VW55X_Wifi_BLE_SDK/GD32VW55x_RELEASE_V1.0.2/MSDK/cloud/alicloud/src/services/awss\awss_enrollee.c ****     zconfig_dump_hex(enrollee_frame, enrollee_frame_len, 24);
 144:C:/Users/stapi/OneDrive/Desktop/GD32VW553/V1_MQTT_OK/GD32VW55X_Wifi_BLE_SDK/GD32VW55x_RELEASE_V1.0.2/MSDK/cloud/alicloud/src/services/awss\awss_enrollee.c **** #endif
 145:C:/Users/stapi/OneDrive/Desktop/GD32VW553/V1_MQTT_OK/GD32VW55X_Wifi_BLE_SDK/GD32VW55x_RELEASE_V1.0.2/MSDK/cloud/alicloud/src/services/awss\awss_enrollee.c **** }
 161              		.loc 2 145 1 is_stmt 0
 162 0064 2561     		addi	sp,sp,96
 163              		.cfi_remember_state
 164              		.cfi_def_cfa_offset 0
 165 0066 17030000 		tail	__riscv_restore_9
 165      67000300 
 166              		.cfi_restore 24
 167              		.cfi_restore 23
 168              		.cfi_restore 22
 169              		.cfi_restore 21
 170              		.cfi_restore 20
 171              		.cfi_restore 19
 172              		.cfi_restore 18
 173              		.cfi_restore 9
 174              		.cfi_restore 8
 175              		.cfi_restore 1
 176              		.cfi_def_cfa_offset -48
 177              	.LVL12:
 178              	.L8:
 179              		.cfi_restore_state
  64:C:/Users/stapi/OneDrive/Desktop/GD32VW553/V1_MQTT_OK/GD32VW55X_Wifi_BLE_SDK/GD32VW55x_RELEASE_V1.0.2/MSDK/cloud/alicloud/src/services/awss\awss_enrollee.c ****     pk = os_zalloc(OS_PRODUCT_KEY_LEN + 1);
 180              		.loc 2 64 16
 181 006e 13051002 		li	a0,33
 182 0072 97000000 		call	os_zalloc
 182      E7800000 
 183              	.LVL13:
 184 007a AA89     		mv	s3,a0
  65:C:/Users/stapi/OneDrive/Desktop/GD32VW553/V1_MQTT_OK/GD32VW55X_Wifi_BLE_SDK/GD32VW55x_RELEASE_V1.0.2/MSDK/cloud/alicloud/src/services/awss\awss_enrollee.c **** 
 185              		.loc 2 65 10
 186 007c 5545     		li	a0,21
 187 007e 97000000 		call	os_zalloc
 187      E7800000 
 188              	.LVL14:
 189 0086 2A8B     		mv	s6,a0
 190              	.LBB40:
 191              	.LBB41:
 414:..\..\..\..\cloud\alicloud\src\services\dev_bind\os/os.h **** 
 415:..\..\..\..\cloud\alicloud\src\services\dev_bind\os/os.h **** /** @} */// end of os_memory_manage
 416:..\..\..\..\cloud\alicloud\src\services\dev_bind\os/os.h **** 
 417:..\..\..\..\cloud\alicloud\src\services\dev_bind\os/os.h **** /**************************************** system Interface ****************************************
 418:..\..\..\..\cloud\alicloud\src\services\dev_bind\os/os.h **** 
 419:..\..\..\..\cloud\alicloud\src\services\dev_bind\os/os.h **** /** @defgroup group_os_system system
 420:..\..\..\..\cloud\alicloud\src\services\dev_bind\os/os.h ****  *  @{
 421:..\..\..\..\cloud\alicloud\src\services\dev_bind\os/os.h ****  */
 422:..\..\..\..\cloud\alicloud\src\services\dev_bind\os/os.h **** 
 423:..\..\..\..\cloud\alicloud\src\services\dev_bind\os/os.h **** /**
 424:..\..\..\..\cloud\alicloud\src\services\dev_bind\os/os.h ****  * @brief check system network is ready(get ip address) or not.
 425:..\..\..\..\cloud\alicloud\src\services\dev_bind\os/os.h ****  *
 426:..\..\..\..\cloud\alicloud\src\services\dev_bind\os/os.h ****  * @param None.
 427:..\..\..\..\cloud\alicloud\src\services\dev_bind\os/os.h ****  * @return 0, net is not ready; 1, net is ready.
 428:..\..\..\..\cloud\alicloud\src\services\dev_bind\os/os.h ****  * @see None.
 429:..\..\..\..\cloud\alicloud\src\services\dev_bind\os/os.h ****  * @note None.
 430:..\..\..\..\cloud\alicloud\src\services\dev_bind\os/os.h ****  */
 431:..\..\..\..\cloud\alicloud\src\services\dev_bind\os/os.h **** static inline int os_sys_net_is_ready(void)
 432:..\..\..\..\cloud\alicloud\src\services\dev_bind\os/os.h **** {
 433:..\..\..\..\cloud\alicloud\src\services\dev_bind\os/os.h ****     return platform_sys_net_is_ready();
 434:..\..\..\..\cloud\alicloud\src\services\dev_bind\os/os.h **** }
 435:..\..\..\..\cloud\alicloud\src\services\dev_bind\os/os.h **** 
 436:..\..\..\..\cloud\alicloud\src\services\dev_bind\os/os.h **** /**
 437:..\..\..\..\cloud\alicloud\src\services\dev_bind\os/os.h ****  * @brief Retrieves the number of milliseconds that have elapsed since the system was boot.
 438:..\..\..\..\cloud\alicloud\src\services\dev_bind\os/os.h ****  *
 439:..\..\..\..\cloud\alicloud\src\services\dev_bind\os/os.h ****  * @param None.
 440:..\..\..\..\cloud\alicloud\src\services\dev_bind\os/os.h ****  * @return the number of milliseconds.
 441:..\..\..\..\cloud\alicloud\src\services\dev_bind\os/os.h ****  * @see None.
 442:..\..\..\..\cloud\alicloud\src\services\dev_bind\os/os.h ****  * @note Add a big offset, for easier caught time overflow bug.
 443:..\..\..\..\cloud\alicloud\src\services\dev_bind\os/os.h ****  */
 444:..\..\..\..\cloud\alicloud\src\services\dev_bind\os/os.h **** static inline uint32_t os_get_time_ms(void)
 445:..\..\..\..\cloud\alicloud\src\services\dev_bind\os/os.h **** {
 446:..\..\..\..\cloud\alicloud\src\services\dev_bind\os/os.h ****     static uint32_t fixed_delta;
 447:..\..\..\..\cloud\alicloud\src\services\dev_bind\os/os.h **** 
 448:..\..\..\..\cloud\alicloud\src\services\dev_bind\os/os.h ****     if (!fixed_delta) {
 449:..\..\..\..\cloud\alicloud\src\services\dev_bind\os/os.h ****         fixed_delta = platform_get_time_ms() - 0xFFFF0000;
 450:..\..\..\..\cloud\alicloud\src\services\dev_bind\os/os.h ****     }
 451:..\..\..\..\cloud\alicloud\src\services\dev_bind\os/os.h **** 
 452:..\..\..\..\cloud\alicloud\src\services\dev_bind\os/os.h ****     /* add a big offset, for easier caught time overflow bug */
 453:..\..\..\..\cloud\alicloud\src\services\dev_bind\os/os.h ****     return platform_get_time_ms() - fixed_delta;
 454:..\..\..\..\cloud\alicloud\src\services\dev_bind\os/os.h **** }
 455:..\..\..\..\cloud\alicloud\src\services\dev_bind\os/os.h **** 
 456:..\..\..\..\cloud\alicloud\src\services\dev_bind\os/os.h **** /*
 457:..\..\..\..\cloud\alicloud\src\services\dev_bind\os/os.h ****  *  These inlines deal with timer wrapping correctly. You are
 458:..\..\..\..\cloud\alicloud\src\services\dev_bind\os/os.h ****  *  strongly encouraged to use them
 459:..\..\..\..\cloud\alicloud\src\services\dev_bind\os/os.h ****  *  1. Because people otherwise forget
 460:..\..\..\..\cloud\alicloud\src\services\dev_bind\os/os.h ****  *  2. Because if the timer wrap changes in future you won't have to
 461:..\..\..\..\cloud\alicloud\src\services\dev_bind\os/os.h ****  *     alter your code.
 462:..\..\..\..\cloud\alicloud\src\services\dev_bind\os/os.h ****  */
 463:..\..\..\..\cloud\alicloud\src\services\dev_bind\os/os.h **** static inline uint32_t time_elapsed_ms_since(uint32_t start_timestamp)
 464:..\..\..\..\cloud\alicloud\src\services\dev_bind\os/os.h **** {
 465:..\..\..\..\cloud\alicloud\src\services\dev_bind\os/os.h ****     uint32_t now = os_get_time_ms();
 466:..\..\..\..\cloud\alicloud\src\services\dev_bind\os/os.h **** 
 467:..\..\..\..\cloud\alicloud\src\services\dev_bind\os/os.h ****     return now - start_timestamp;
 468:..\..\..\..\cloud\alicloud\src\services\dev_bind\os/os.h **** }
 469:..\..\..\..\cloud\alicloud\src\services\dev_bind\os/os.h **** 
 470:..\..\..\..\cloud\alicloud\src\services\dev_bind\os/os.h **** /** @} */// end of os_system
 471:..\..\..\..\cloud\alicloud\src\services\dev_bind\os/os.h **** 
 472:..\..\..\..\cloud\alicloud\src\services\dev_bind\os/os.h **** /****************************************** io Interface ******************************************
 473:..\..\..\..\cloud\alicloud\src\services\dev_bind\os/os.h **** 
 474:..\..\..\..\cloud\alicloud\src\services\dev_bind\os/os.h **** /** @defgroup group_os_io io
 475:..\..\..\..\cloud\alicloud\src\services\dev_bind\os/os.h ****  *  @{
 476:..\..\..\..\cloud\alicloud\src\services\dev_bind\os/os.h ****  */
 477:..\..\..\..\cloud\alicloud\src\services\dev_bind\os/os.h **** 
 478:..\..\..\..\cloud\alicloud\src\services\dev_bind\os/os.h **** /**
 479:..\..\..\..\cloud\alicloud\src\services\dev_bind\os/os.h ****  * @brief Writes formatted data to stream.
 480:..\..\..\..\cloud\alicloud\src\services\dev_bind\os/os.h ****  *
 481:..\..\..\..\cloud\alicloud\src\services\dev_bind\os/os.h ****  * @param[in] fmt: @n String that contains the text to be written, it can optionally contain embedd
 482:..\..\..\..\cloud\alicloud\src\services\dev_bind\os/os.h ****      that specifies how subsequent arguments are converted for output.
 483:..\..\..\..\cloud\alicloud\src\services\dev_bind\os/os.h ****  * @param[in] ...: @n the variable argument list, for formatted and inserted in the resulting strin
 484:..\..\..\..\cloud\alicloud\src\services\dev_bind\os/os.h ****  * @return None.
 485:..\..\..\..\cloud\alicloud\src\services\dev_bind\os/os.h ****  * @see None.
 486:..\..\..\..\cloud\alicloud\src\services\dev_bind\os/os.h ****  * @note None.
 487:..\..\..\..\cloud\alicloud\src\services\dev_bind\os/os.h ****  */
 488:..\..\..\..\cloud\alicloud\src\services\dev_bind\os/os.h **** #define os_printf(fmt, ...) platform_printf(fmt, ## __VA_ARGS__)
 489:..\..\..\..\cloud\alicloud\src\services\dev_bind\os/os.h **** 
 490:..\..\..\..\cloud\alicloud\src\services\dev_bind\os/os.h **** /** @} */// end of os_io
 491:..\..\..\..\cloud\alicloud\src\services\dev_bind\os/os.h **** 
 492:..\..\..\..\cloud\alicloud\src\services\dev_bind\os/os.h **** /*************************************** wifi module Interface ************************************
 493:..\..\..\..\cloud\alicloud\src\services\dev_bind\os/os.h **** 
 494:..\..\..\..\cloud\alicloud\src\services\dev_bind\os/os.h **** /** @defgroup group_os_wifi_module wifi
 495:..\..\..\..\cloud\alicloud\src\services\dev_bind\os/os.h ****  *  @{
 496:..\..\..\..\cloud\alicloud\src\services\dev_bind\os/os.h ****  */
 497:..\..\..\..\cloud\alicloud\src\services\dev_bind\os/os.h **** 
 498:..\..\..\..\cloud\alicloud\src\services\dev_bind\os/os.h **** /**
 499:..\..\..\..\cloud\alicloud\src\services\dev_bind\os/os.h ****  * @brief Get encrypt type for smartconfig.
 500:..\..\..\..\cloud\alicloud\src\services\dev_bind\os/os.h ****  *
 501:..\..\..\..\cloud\alicloud\src\services\dev_bind\os/os.h ****  * @param None.
 502:..\..\..\..\cloud\alicloud\src\services\dev_bind\os/os.h ****  * @return.
 503:..\..\..\..\cloud\alicloud\src\services\dev_bind\os/os.h ****    @verbatim
 504:..\..\..\..\cloud\alicloud\src\services\dev_bind\os/os.h ****      = 0: open (no encrypt)
 505:..\..\..\..\cloud\alicloud\src\services\dev_bind\os/os.h ****      = 1: aes256cbc with default aes-key and aes-iv
 506:..\..\..\..\cloud\alicloud\src\services\dev_bind\os/os.h ****      = 2: aes128cbc with default aes-key and aes-iv
 507:..\..\..\..\cloud\alicloud\src\services\dev_bind\os/os.h ****      = 3: aes128cbc with aes-key per product and aes-iv = 0
 508:..\..\..\..\cloud\alicloud\src\services\dev_bind\os/os.h ****      = 4: aes128cbc with aes-key per device and aes-iv = 0
 509:..\..\..\..\cloud\alicloud\src\services\dev_bind\os/os.h ****      = 5: aes128cbc with aes-key per manufacture and aes-iv = 0
 510:..\..\..\..\cloud\alicloud\src\services\dev_bind\os/os.h ****      = others: invalid
 511:..\..\..\..\cloud\alicloud\src\services\dev_bind\os/os.h ****    @endverbatim
 512:..\..\..\..\cloud\alicloud\src\services\dev_bind\os/os.h ****  * @see None.
 513:..\..\..\..\cloud\alicloud\src\services\dev_bind\os/os.h ****  * @note None.
 514:..\..\..\..\cloud\alicloud\src\services\dev_bind\os/os.h ****  */
 515:..\..\..\..\cloud\alicloud\src\services\dev_bind\os/os.h **** static inline int os_get_encrypt_type(void)
 516:..\..\..\..\cloud\alicloud\src\services\dev_bind\os/os.h **** {
 517:..\..\..\..\cloud\alicloud\src\services\dev_bind\os/os.h ****     return platform_get_encrypt_type();
 518:..\..\..\..\cloud\alicloud\src\services\dev_bind\os/os.h **** }
 519:..\..\..\..\cloud\alicloud\src\services\dev_bind\os/os.h **** 
 520:..\..\..\..\cloud\alicloud\src\services\dev_bind\os/os.h **** /**
 521:..\..\..\..\cloud\alicloud\src\services\dev_bind\os/os.h ****  * @brief    Get Security level for wifi configuration with connection.
 522:..\..\..\..\cloud\alicloud\src\services\dev_bind\os/os.h ****  *           Used for AP solution of router and App.
 523:..\..\..\..\cloud\alicloud\src\services\dev_bind\os/os.h ****  *
 524:..\..\..\..\cloud\alicloud\src\services\dev_bind\os/os.h ****  * @param None.
 525:..\..\..\..\cloud\alicloud\src\services\dev_bind\os/os.h ****  * @return The security level:
 526:..\..\..\..\cloud\alicloud\src\services\dev_bind\os/os.h ****    @verbatim
 527:..\..\..\..\cloud\alicloud\src\services\dev_bind\os/os.h ****     3: aes128cfb with aes-key per product and aes-iv = random
 528:..\..\..\..\cloud\alicloud\src\services\dev_bind\os/os.h ****     4: aes128cfb with aes-key per device and aes-iv = random
 529:..\..\..\..\cloud\alicloud\src\services\dev_bind\os/os.h ****     5: aes128cfb with aes-key per manufacture and aes-iv = random
 530:..\..\..\..\cloud\alicloud\src\services\dev_bind\os/os.h ****     others: invalid
 531:..\..\..\..\cloud\alicloud\src\services\dev_bind\os/os.h ****    @endverbatim
 532:..\..\..\..\cloud\alicloud\src\services\dev_bind\os/os.h ****  * @see None.
 533:..\..\..\..\cloud\alicloud\src\services\dev_bind\os/os.h ****  */
 534:..\..\..\..\cloud\alicloud\src\services\dev_bind\os/os.h **** static inline int os_get_conn_encrypt_type(void)
 535:..\..\..\..\cloud\alicloud\src\services\dev_bind\os/os.h **** {
 536:..\..\..\..\cloud\alicloud\src\services\dev_bind\os/os.h ****     return platform_get_conn_encrypt_type();
 537:..\..\..\..\cloud\alicloud\src\services\dev_bind\os/os.h **** }
 538:..\..\..\..\cloud\alicloud\src\services\dev_bind\os/os.h **** 
 539:..\..\..\..\cloud\alicloud\src\services\dev_bind\os/os.h **** /**
 540:..\..\..\..\cloud\alicloud\src\services\dev_bind\os/os.h ****  * @brief   Get rssi and channel of current link
 541:..\..\..\..\cloud\alicloud\src\services\dev_bind\os/os.h ****  *
 542:..\..\..\..\cloud\alicloud\src\services\dev_bind\os/os.h ****  * @param[out] p_rssi: rssi value of current link
 543:..\..\..\..\cloud\alicloud\src\services\dev_bind\os/os.h ****  * @param[out] p_channel: channel of current link
 544:..\..\..\..\cloud\alicloud\src\services\dev_bind\os/os.h ****  * 
 545:..\..\..\..\cloud\alicloud\src\services\dev_bind\os/os.h ****  * @return
 546:..\..\..\..\cloud\alicloud\src\services\dev_bind\os/os.h ****    @verbatim
 547:..\..\..\..\cloud\alicloud\src\services\dev_bind\os/os.h ****      = 0: succeeded
 548:..\..\..\..\cloud\alicloud\src\services\dev_bind\os/os.h ****      = -1: failed
 549:..\..\..\..\cloud\alicloud\src\services\dev_bind\os/os.h ****    @endverbatim
 550:..\..\..\..\cloud\alicloud\src\services\dev_bind\os/os.h ****  * @see None.
 551:..\..\..\..\cloud\alicloud\src\services\dev_bind\os/os.h ****  * @note None.
 552:..\..\..\..\cloud\alicloud\src\services\dev_bind\os/os.h ****  * @note awss use this API to get rssi and channel of current link
 553:..\..\..\..\cloud\alicloud\src\services\dev_bind\os/os.h ****  */
 554:..\..\..\..\cloud\alicloud\src\services\dev_bind\os/os.h **** static inline int os_get_conn_link_stat(int *p_rssi, int *p_channel)
 555:..\..\..\..\cloud\alicloud\src\services\dev_bind\os/os.h **** {
 556:..\..\..\..\cloud\alicloud\src\services\dev_bind\os/os.h ****     return platform_get_conn_link_stat(p_rssi, p_channel);
 557:..\..\..\..\cloud\alicloud\src\services\dev_bind\os/os.h **** }
 558:..\..\..\..\cloud\alicloud\src\services\dev_bind\os/os.h **** 
 559:..\..\..\..\cloud\alicloud\src\services\dev_bind\os/os.h **** /**
 560:..\..\..\..\cloud\alicloud\src\services\dev_bind\os/os.h ****  * @brief Get WIFI MAC string with format like: XX:XX:XX:XX:XX:XX.
 561:..\..\..\..\cloud\alicloud\src\services\dev_bind\os/os.h ****  *
 562:..\..\..\..\cloud\alicloud\src\services\dev_bind\os/os.h ****  * @param[out] mac_str @n Buffer for using to store wifi MAC string.
 563:..\..\..\..\cloud\alicloud\src\services\dev_bind\os/os.h ****  * @return A pointer to the start address of mac_str.
 564:..\..\..\..\cloud\alicloud\src\services\dev_bind\os/os.h ****  * @see None.
 565:..\..\..\..\cloud\alicloud\src\services\dev_bind\os/os.h ****  * @note this func will format mac address string uppercase
 566:..\..\..\..\cloud\alicloud\src\services\dev_bind\os/os.h ****  */
 567:..\..\..\..\cloud\alicloud\src\services\dev_bind\os/os.h **** char *os_wifi_get_mac_str(char mac_str[OS_MAC_LEN]);
 568:..\..\..\..\cloud\alicloud\src\services\dev_bind\os/os.h **** 
 569:..\..\..\..\cloud\alicloud\src\services\dev_bind\os/os.h **** char *os_wifi_str2mac(char mac_str[OS_MAC_LEN], char mac[OS_ETH_ALEN]);
 570:..\..\..\..\cloud\alicloud\src\services\dev_bind\os/os.h **** 
 571:..\..\..\..\cloud\alicloud\src\services\dev_bind\os/os.h **** /**
 572:..\..\..\..\cloud\alicloud\src\services\dev_bind\os/os.h ****  * @brief Get WIFI MAC address(digital form)
 573:..\..\..\..\cloud\alicloud\src\services\dev_bind\os/os.h ****  *
 574:..\..\..\..\cloud\alicloud\src\services\dev_bind\os/os.h ****  * @param[out] mac @n digital buffer to hold mac address
 575:..\..\..\..\cloud\alicloud\src\services\dev_bind\os/os.h ****  * @return A pointer to the start address of mac.
 576:..\..\..\..\cloud\alicloud\src\services\dev_bind\os/os.h ****  * @see None.
 577:..\..\..\..\cloud\alicloud\src\services\dev_bind\os/os.h ****  * @note None.
 578:..\..\..\..\cloud\alicloud\src\services\dev_bind\os/os.h ****  */
 579:..\..\..\..\cloud\alicloud\src\services\dev_bind\os/os.h **** uint8_t *os_wifi_get_mac(uint8_t mac[OS_ETH_ALEN]);
 580:..\..\..\..\cloud\alicloud\src\services\dev_bind\os/os.h **** 
 581:..\..\..\..\cloud\alicloud\src\services\dev_bind\os/os.h **** /**
 582:..\..\..\..\cloud\alicloud\src\services\dev_bind\os/os.h ****  * @brief Get WIFI IP string with format like: xx:xx:xx:xx:xx:xx,
 583:..\..\..\..\cloud\alicloud\src\services\dev_bind\os/os.h ****    and return IP with binary form, in network byte order.
 584:..\..\..\..\cloud\alicloud\src\services\dev_bind\os/os.h ****  *
 585:..\..\..\..\cloud\alicloud\src\services\dev_bind\os/os.h ****  * @param[in] ifname @n Specify the interface name.The NULL value indicates the default network int
 586:..\..\..\..\cloud\alicloud\src\services\dev_bind\os/os.h ****  * @param[out] ip_str @n Buffer for using to store IP string, in numbers-and-dots notation form.
 587:..\..\..\..\cloud\alicloud\src\services\dev_bind\os/os.h ****  * @return IP address with binary form, in network byte order.
 588:..\..\..\..\cloud\alicloud\src\services\dev_bind\os/os.h ****  * @see None.
 589:..\..\..\..\cloud\alicloud\src\services\dev_bind\os/os.h ****  * @note None.
 590:..\..\..\..\cloud\alicloud\src\services\dev_bind\os/os.h ****  */
 591:..\..\..\..\cloud\alicloud\src\services\dev_bind\os/os.h **** static inline uint32_t os_wifi_get_ip(char ip_str[OS_IP_LEN], const char *ifname)
 592:..\..\..\..\cloud\alicloud\src\services\dev_bind\os/os.h **** {
 593:..\..\..\..\cloud\alicloud\src\services\dev_bind\os/os.h ****     return platform_wifi_get_ip(ip_str, ifname);
 594:..\..\..\..\cloud\alicloud\src\services\dev_bind\os/os.h **** }
 595:..\..\..\..\cloud\alicloud\src\services\dev_bind\os/os.h **** 
 596:..\..\..\..\cloud\alicloud\src\services\dev_bind\os/os.h **** /*************************************** awss interface ***************************************/
 597:..\..\..\..\cloud\alicloud\src\services\dev_bind\os/os.h **** 
 598:..\..\..\..\cloud\alicloud\src\services\dev_bind\os/os.h **** /** @defgroup group_os_awss alink wireless setup service(awss)
 599:..\..\..\..\cloud\alicloud\src\services\dev_bind\os/os.h ****  *  @{
 600:..\..\..\..\cloud\alicloud\src\services\dev_bind\os/os.h ****  */
 601:..\..\..\..\cloud\alicloud\src\services\dev_bind\os/os.h **** 
 602:..\..\..\..\cloud\alicloud\src\services\dev_bind\os/os.h **** /**
 603:..\..\..\..\cloud\alicloud\src\services\dev_bind\os/os.h ****  * @brief Get timeout interval, in millisecond, of per awss.
 604:..\..\..\..\cloud\alicloud\src\services\dev_bind\os/os.h ****  *
 605:..\..\..\..\cloud\alicloud\src\services\dev_bind\os/os.h ****  * @param None.
 606:..\..\..\..\cloud\alicloud\src\services\dev_bind\os/os.h ****  * @return The timeout interval.
 607:..\..\..\..\cloud\alicloud\src\services\dev_bind\os/os.h ****  * @see None.
 608:..\..\..\..\cloud\alicloud\src\services\dev_bind\os/os.h ****  * @note The recommended value is 60,000ms.
 609:..\..\..\..\cloud\alicloud\src\services\dev_bind\os/os.h ****  */
 610:..\..\..\..\cloud\alicloud\src\services\dev_bind\os/os.h **** static inline int os_awss_get_timeout_interval_ms(void)
 611:..\..\..\..\cloud\alicloud\src\services\dev_bind\os/os.h **** {
 612:..\..\..\..\cloud\alicloud\src\services\dev_bind\os/os.h ****     return platform_awss_get_timeout_interval_ms();
 613:..\..\..\..\cloud\alicloud\src\services\dev_bind\os/os.h **** }
 614:..\..\..\..\cloud\alicloud\src\services\dev_bind\os/os.h **** 
 615:..\..\..\..\cloud\alicloud\src\services\dev_bind\os/os.h **** /**
 616:..\..\..\..\cloud\alicloud\src\services\dev_bind\os/os.h ****  * @brief Get time length, in millisecond, of per channel scan.
 617:..\..\..\..\cloud\alicloud\src\services\dev_bind\os/os.h ****  *
 618:..\..\..\..\cloud\alicloud\src\services\dev_bind\os/os.h ****  * @param None.
 619:..\..\..\..\cloud\alicloud\src\services\dev_bind\os/os.h ****  * @return The timeout interval.
 620:..\..\..\..\cloud\alicloud\src\services\dev_bind\os/os.h ****  * @see None.
 621:..\..\..\..\cloud\alicloud\src\services\dev_bind\os/os.h ****  * @note None. The recommended value is between 200ms and 400ms.
 622:..\..\..\..\cloud\alicloud\src\services\dev_bind\os/os.h ****  */
 623:..\..\..\..\cloud\alicloud\src\services\dev_bind\os/os.h **** static inline int os_awss_get_channelscan_interval_ms(void)
 624:..\..\..\..\cloud\alicloud\src\services\dev_bind\os/os.h **** {
 625:..\..\..\..\cloud\alicloud\src\services\dev_bind\os/os.h ****     return platform_awss_get_channelscan_interval_ms();
 626:..\..\..\..\cloud\alicloud\src\services\dev_bind\os/os.h **** }
 627:..\..\..\..\cloud\alicloud\src\services\dev_bind\os/os.h **** 
 628:..\..\..\..\cloud\alicloud\src\services\dev_bind\os/os.h **** typedef platform_awss_recv_80211_frame_cb_t os_awss_recv_80211_frame_cb_t;
 629:..\..\..\..\cloud\alicloud\src\services\dev_bind\os/os.h **** /**
 630:..\..\..\..\cloud\alicloud\src\services\dev_bind\os/os.h ****  * @brief Set wifi running at monitor mode,
 631:..\..\..\..\cloud\alicloud\src\services\dev_bind\os/os.h ****    and register a callback function which will be called when wifi receive a frame.
 632:..\..\..\..\cloud\alicloud\src\services\dev_bind\os/os.h ****  *
 633:..\..\..\..\cloud\alicloud\src\services\dev_bind\os/os.h ****  * @param[in] cb @n A function pointer, called back when wifi receive a frame.
 634:..\..\..\..\cloud\alicloud\src\services\dev_bind\os/os.h ****  * @return None.
 635:..\..\..\..\cloud\alicloud\src\services\dev_bind\os/os.h ****  * @see None.
 636:..\..\..\..\cloud\alicloud\src\services\dev_bind\os/os.h ****  * @note None.
 637:..\..\..\..\cloud\alicloud\src\services\dev_bind\os/os.h ****  */
 638:..\..\..\..\cloud\alicloud\src\services\dev_bind\os/os.h **** static inline void os_awss_open_monitor(os_awss_recv_80211_frame_cb_t cb)
 639:..\..\..\..\cloud\alicloud\src\services\dev_bind\os/os.h **** {
 640:..\..\..\..\cloud\alicloud\src\services\dev_bind\os/os.h ****     platform_awss_open_monitor(cb);
 641:..\..\..\..\cloud\alicloud\src\services\dev_bind\os/os.h **** }
 642:..\..\..\..\cloud\alicloud\src\services\dev_bind\os/os.h **** 
 643:..\..\..\..\cloud\alicloud\src\services\dev_bind\os/os.h **** /**
 644:..\..\..\..\cloud\alicloud\src\services\dev_bind\os/os.h ****  * @brief Close wifi monitor mode, and set running at station mode.
 645:..\..\..\..\cloud\alicloud\src\services\dev_bind\os/os.h ****  *
 646:..\..\..\..\cloud\alicloud\src\services\dev_bind\os/os.h ****  * @param None.
 647:..\..\..\..\cloud\alicloud\src\services\dev_bind\os/os.h ****  * @return None.
 648:..\..\..\..\cloud\alicloud\src\services\dev_bind\os/os.h ****  * @see None.
 649:..\..\..\..\cloud\alicloud\src\services\dev_bind\os/os.h ****  * @note None.
 650:..\..\..\..\cloud\alicloud\src\services\dev_bind\os/os.h ****  */
 651:..\..\..\..\cloud\alicloud\src\services\dev_bind\os/os.h **** static inline void os_awss_close_monitor(void)
 652:..\..\..\..\cloud\alicloud\src\services\dev_bind\os/os.h **** {
 653:..\..\..\..\cloud\alicloud\src\services\dev_bind\os/os.h ****     platform_awss_close_monitor();
 654:..\..\..\..\cloud\alicloud\src\services\dev_bind\os/os.h **** }
 655:..\..\..\..\cloud\alicloud\src\services\dev_bind\os/os.h **** 
 656:..\..\..\..\cloud\alicloud\src\services\dev_bind\os/os.h **** /**
 657:..\..\..\..\cloud\alicloud\src\services\dev_bind\os/os.h ****   * @brief   SoftAP
 658:..\..\..\..\cloud\alicloud\src\services\dev_bind\os/os.h ****   *
 659:..\..\..\..\cloud\alicloud\src\services\dev_bind\os/os.h ****   * @param[in] ssid @n ssid
 660:..\..\..\..\cloud\alicloud\src\services\dev_bind\os/os.h ****   * @param[in] passwd @n passwd
 661:..\..\..\..\cloud\alicloud\src\services\dev_bind\os/os.h ****   * @param[in] beacon_interval @n Beacon
 662:..\..\..\..\cloud\alicloud\src\services\dev_bind\os/os.h ****   * @param[in] hide @n hide:0, , 
 663:..\..\..\..\cloud\alicloud\src\services\dev_bind\os/os.h ****   * @return
 664:..\..\..\..\cloud\alicloud\src\services\dev_bind\os/os.h ****      @verbatim
 665:..\..\..\..\cloud\alicloud\src\services\dev_bind\os/os.h ****         = 0: success
 666:..\..\..\..\cloud\alicloud\src\services\dev_bind\os/os.h ****         = -1: unsupported
 667:..\..\..\..\cloud\alicloud\src\services\dev_bind\os/os.h ****         = -2: failure with system error
 668:..\..\..\..\cloud\alicloud\src\services\dev_bind\os/os.h ****         = -3: failure with no memory
 669:..\..\..\..\cloud\alicloud\src\services\dev_bind\os/os.h ****         = -4: failure with invalid parameters
 670:..\..\..\..\cloud\alicloud\src\services\dev_bind\os/os.h ****      @endverbatim
 671:..\..\..\..\cloud\alicloud\src\services\dev_bind\os/os.h ****   * @Note:
 672:..\..\..\..\cloud\alicloud\src\services\dev_bind\os/os.h ****   *       1ssidpasswd'\0'passwd
 673:..\..\..\..\cloud\alicloud\src\services\dev_bind\os/os.h ****   *          0Open
 674:..\..\..\..\cloud\alicloud\src\services\dev_bind\os/os.h ****   *       2beacon_intervalBeacon
 675:..\..\..\..\cloud\alicloud\src\services\dev_bind\os/os.h ****   *          100ms
 676:..\..\..\..\cloud\alicloud\src\services\dev_bind\os/os.h ****   *       3hidehide=0
 677:..\..\..\..\cloud\alicloud\src\services\dev_bind\os/os.h ****   *         
 678:..\..\..\..\cloud\alicloud\src\services\dev_bind\os/os.h ****   */
 679:..\..\..\..\cloud\alicloud\src\services\dev_bind\os/os.h **** 
 680:..\..\..\..\cloud\alicloud\src\services\dev_bind\os/os.h **** static inline int os_awss_open_ap(const char *ssid, const char *passwd, int beacon_interval, int hi
 681:..\..\..\..\cloud\alicloud\src\services\dev_bind\os/os.h **** {
 682:..\..\..\..\cloud\alicloud\src\services\dev_bind\os/os.h ****     return platform_awss_open_ap(ssid, passwd, beacon_interval, hide);
 683:..\..\..\..\cloud\alicloud\src\services\dev_bind\os/os.h **** }
 684:..\..\..\..\cloud\alicloud\src\services\dev_bind\os/os.h **** 
 685:..\..\..\..\cloud\alicloud\src\services\dev_bind\os/os.h **** /**
 686:..\..\..\..\cloud\alicloud\src\services\dev_bind\os/os.h ****   * @brief   SoftAPStation
 687:..\..\..\..\cloud\alicloud\src\services\dev_bind\os/os.h ****   *
 688:..\..\..\..\cloud\alicloud\src\services\dev_bind\os/os.h ****   * @return
 689:..\..\..\..\cloud\alicloud\src\services\dev_bind\os/os.h ****      @verbatim
 690:..\..\..\..\cloud\alicloud\src\services\dev_bind\os/os.h ****         = 0: success
 691:..\..\..\..\cloud\alicloud\src\services\dev_bind\os/os.h ****         = -1: unsupported
 692:..\..\..\..\cloud\alicloud\src\services\dev_bind\os/os.h ****         = -2: failure
 693:..\..\..\..\cloud\alicloud\src\services\dev_bind\os/os.h ****      @endverbatim
 694:..\..\..\..\cloud\alicloud\src\services\dev_bind\os/os.h ****   * @Note:
 695:..\..\..\..\cloud\alicloud\src\services\dev_bind\os/os.h ****   *       1
 696:..\..\..\..\cloud\alicloud\src\services\dev_bind\os/os.h ****   *          
 697:..\..\..\..\cloud\alicloud\src\services\dev_bind\os/os.h ****   *       2StationStation+SoftAP
 698:..\..\..\..\cloud\alicloud\src\services\dev_bind\os/os.h ****   *          SoftAPStation
 699:..\..\..\..\cloud\alicloud\src\services\dev_bind\os/os.h ****   *       3Wi-Fi
 700:..\..\..\..\cloud\alicloud\src\services\dev_bind\os/os.h ****   *          
 701:..\..\..\..\cloud\alicloud\src\services\dev_bind\os/os.h ****   */
 702:..\..\..\..\cloud\alicloud\src\services\dev_bind\os/os.h **** 
 703:..\..\..\..\cloud\alicloud\src\services\dev_bind\os/os.h **** static inline int os_awss_close_ap()
 704:..\..\..\..\cloud\alicloud\src\services\dev_bind\os/os.h **** {
 705:..\..\..\..\cloud\alicloud\src\services\dev_bind\os/os.h ****     return platform_awss_close_ap();
 706:..\..\..\..\cloud\alicloud\src\services\dev_bind\os/os.h **** }
 707:..\..\..\..\cloud\alicloud\src\services\dev_bind\os/os.h **** 
 708:..\..\..\..\cloud\alicloud\src\services\dev_bind\os/os.h **** /**
 709:..\..\..\..\cloud\alicloud\src\services\dev_bind\os/os.h ****  * @brief Switch to specific wifi channel.
 710:..\..\..\..\cloud\alicloud\src\services\dev_bind\os/os.h ****  *
 711:..\..\..\..\cloud\alicloud\src\services\dev_bind\os/os.h ****  * @param[in] primary_channel @n Primary channel.
 712:..\..\..\..\cloud\alicloud\src\services\dev_bind\os/os.h ****  * @param[in] secondary_channel @n Auxiliary channel.
 713:..\..\..\..\cloud\alicloud\src\services\dev_bind\os/os.h ****  * @param[in] bssid @n A pointer to wifi BSSID.
 714:..\..\..\..\cloud\alicloud\src\services\dev_bind\os/os.h ****  * @return None.
 715:..\..\..\..\cloud\alicloud\src\services\dev_bind\os/os.h ****  * @see None.
 716:..\..\..\..\cloud\alicloud\src\services\dev_bind\os/os.h ****  * @note None.
 717:..\..\..\..\cloud\alicloud\src\services\dev_bind\os/os.h ****  */
 718:..\..\..\..\cloud\alicloud\src\services\dev_bind\os/os.h **** static inline void os_awss_switch_channel(char primary_channel, char secondary_channel, uint8_t bss
 719:..\..\..\..\cloud\alicloud\src\services\dev_bind\os/os.h **** {
 720:..\..\..\..\cloud\alicloud\src\services\dev_bind\os/os.h ****     platform_awss_switch_channel(primary_channel, secondary_channel, bssid);
 721:..\..\..\..\cloud\alicloud\src\services\dev_bind\os/os.h **** }
 722:..\..\..\..\cloud\alicloud\src\services\dev_bind\os/os.h **** 
 723:..\..\..\..\cloud\alicloud\src\services\dev_bind\os/os.h **** /**
 724:..\..\..\..\cloud\alicloud\src\services\dev_bind\os/os.h ****  * @brief Wifi AP connect function
 725:..\..\..\..\cloud\alicloud\src\services\dev_bind\os/os.h ****  *
 726:..\..\..\..\cloud\alicloud\src\services\dev_bind\os/os.h ****  * @param[in] connection_timeout_ms @n AP connection timeout in ms or PLATFORM_WAIT_INFINITE
 727:..\..\..\..\cloud\alicloud\src\services\dev_bind\os/os.h ****  * @param[in] ssid @n AP ssid
 728:..\..\..\..\cloud\alicloud\src\services\dev_bind\os/os.h ****  * @param[in] passwd @n AP passwd
 729:..\..\..\..\cloud\alicloud\src\services\dev_bind\os/os.h ****  * @param[in] auth @n optional(AWSS_AUTH_TYPE_INVALID), AP auth info
 730:..\..\..\..\cloud\alicloud\src\services\dev_bind\os/os.h ****  * @param[in] encry @n optional(AWSS_ENC_TYPE_INVALID), AP encry info
 731:..\..\..\..\cloud\alicloud\src\services\dev_bind\os/os.h ****  * @param[in] bssid @n optional(NULL or zero mac address), AP bssid info
 732:..\..\..\..\cloud\alicloud\src\services\dev_bind\os/os.h ****  * @param[in] channel @n optional, AP channel info
 733:..\..\..\..\cloud\alicloud\src\services\dev_bind\os/os.h ****  * @return
 734:..\..\..\..\cloud\alicloud\src\services\dev_bind\os/os.h ****    @verbatim
 735:..\..\..\..\cloud\alicloud\src\services\dev_bind\os/os.h ****      = 0: connect AP & DHCP success
 736:..\..\..\..\cloud\alicloud\src\services\dev_bind\os/os.h ****      = -1: connect AP or DHCP fail/timeout
 737:..\..\..\..\cloud\alicloud\src\services\dev_bind\os/os.h ****    @endverbatim
 738:..\..\..\..\cloud\alicloud\src\services\dev_bind\os/os.h ****  * @see None.
 739:..\..\..\..\cloud\alicloud\src\services\dev_bind\os/os.h ****  * @note None.
 740:..\..\..\..\cloud\alicloud\src\services\dev_bind\os/os.h ****  */
 741:..\..\..\..\cloud\alicloud\src\services\dev_bind\os/os.h **** static inline int os_awss_connect_ap(
 742:..\..\..\..\cloud\alicloud\src\services\dev_bind\os/os.h ****             _IN_ uint32_t connection_timeout_ms,
 743:..\..\..\..\cloud\alicloud\src\services\dev_bind\os/os.h ****             _IN_ char ssid[OS_MAX_SSID_LEN],
 744:..\..\..\..\cloud\alicloud\src\services\dev_bind\os/os.h ****             _IN_ char passwd[OS_MAX_PASSWD_LEN],
 745:..\..\..\..\cloud\alicloud\src\services\dev_bind\os/os.h ****             _IN_OPT_ enum AWSS_AUTH_TYPE auth,
 746:..\..\..\..\cloud\alicloud\src\services\dev_bind\os/os.h ****             _IN_OPT_ enum AWSS_ENC_TYPE encry,
 747:..\..\..\..\cloud\alicloud\src\services\dev_bind\os/os.h ****             _IN_OPT_ uint8_t bssid[ETH_ALEN],
 748:..\..\..\..\cloud\alicloud\src\services\dev_bind\os/os.h ****             _IN_OPT_ uint8_t channel)
 749:..\..\..\..\cloud\alicloud\src\services\dev_bind\os/os.h **** {
 750:..\..\..\..\cloud\alicloud\src\services\dev_bind\os/os.h ****     return platform_awss_connect_ap(connection_timeout_ms, ssid, passwd,
 751:..\..\..\..\cloud\alicloud\src\services\dev_bind\os/os.h ****                                     auth, encry, bssid, channel);
 752:..\..\..\..\cloud\alicloud\src\services\dev_bind\os/os.h **** }
 753:..\..\..\..\cloud\alicloud\src\services\dev_bind\os/os.h **** 
 754:..\..\..\..\cloud\alicloud\src\services\dev_bind\os/os.h **** #define os_wifi_scan_result_cb_t    platform_wifi_scan_result_cb_t
 755:..\..\..\..\cloud\alicloud\src\services\dev_bind\os/os.h **** 
 756:..\..\..\..\cloud\alicloud\src\services\dev_bind\os/os.h **** /**
 757:..\..\..\..\cloud\alicloud\src\services\dev_bind\os/os.h ****  * @brief send 80211 raw frame in current channel with basic rate(1Mbps)
 758:..\..\..\..\cloud\alicloud\src\services\dev_bind\os/os.h ****  *
 759:..\..\..\..\cloud\alicloud\src\services\dev_bind\os/os.h ****  * @param[in] type @n see enum platform_awss_frame_type, currently only FRAME_BEACON
 760:..\..\..\..\cloud\alicloud\src\services\dev_bind\os/os.h ****  *                      FRAME_PROBE_REQ is used
 761:..\..\..\..\cloud\alicloud\src\services\dev_bind\os/os.h ****  * @param[in] buffer @n 80211 raw frame, include complete mac header & FCS field
 762:..\..\..\..\cloud\alicloud\src\services\dev_bind\os/os.h ****  * @param[in] len @n 80211 raw frame length
 763:..\..\..\..\cloud\alicloud\src\services\dev_bind\os/os.h ****  * @return
 764:..\..\..\..\cloud\alicloud\src\services\dev_bind\os/os.h ****    @verbatim
 765:..\..\..\..\cloud\alicloud\src\services\dev_bind\os/os.h ****    =  0, send success.
 766:..\..\..\..\cloud\alicloud\src\services\dev_bind\os/os.h ****    = -1, send failure.
 767:..\..\..\..\cloud\alicloud\src\services\dev_bind\os/os.h ****    = -2, unsupported.
 768:..\..\..\..\cloud\alicloud\src\services\dev_bind\os/os.h ****    @endverbatim
 769:..\..\..\..\cloud\alicloud\src\services\dev_bind\os/os.h ****  * @see None.
 770:..\..\..\..\cloud\alicloud\src\services\dev_bind\os/os.h ****  * @note awss use this API send raw frame in wifi monitor mode & station mode
 771:..\..\..\..\cloud\alicloud\src\services\dev_bind\os/os.h ****  */
 772:..\..\..\..\cloud\alicloud\src\services\dev_bind\os/os.h **** static inline int os_wifi_send_80211_raw_frame(_IN_ enum platform_awss_frame_type type,
 773:..\..\..\..\cloud\alicloud\src\services\dev_bind\os/os.h ****         _IN_ uint8_t *buffer, _IN_ int len)
 774:..\..\..\..\cloud\alicloud\src\services\dev_bind\os/os.h **** {
 775:..\..\..\..\cloud\alicloud\src\services\dev_bind\os/os.h ****     return platform_wifi_send_80211_raw_frame(type, buffer, len);
 776:..\..\..\..\cloud\alicloud\src\services\dev_bind\os/os.h **** }
 777:..\..\..\..\cloud\alicloud\src\services\dev_bind\os/os.h **** 
 778:..\..\..\..\cloud\alicloud\src\services\dev_bind\os/os.h **** /**
 779:..\..\..\..\cloud\alicloud\src\services\dev_bind\os/os.h ****  * @brief management frame handler
 780:..\..\..\..\cloud\alicloud\src\services\dev_bind\os/os.h ****  *
 781:..\..\..\..\cloud\alicloud\src\services\dev_bind\os/os.h ****  * @param[in] buffer @n 80211 raw frame or ie(information element) buffer
 782:..\..\..\..\cloud\alicloud\src\services\dev_bind\os/os.h ****  * @param[in] len @n buffer length
 783:..\..\..\..\cloud\alicloud\src\services\dev_bind\os/os.h ****  * @param[in] buffer_type @n 0 when buffer is a 80211 frame,
 784:..\..\..\..\cloud\alicloud\src\services\dev_bind\os/os.h ****  *                          1 when buffer only contain IE info
 785:..\..\..\..\cloud\alicloud\src\services\dev_bind\os/os.h ****  * @return None.
 786:..\..\..\..\cloud\alicloud\src\services\dev_bind\os/os.h ****  * @see None.
 787:..\..\..\..\cloud\alicloud\src\services\dev_bind\os/os.h ****  * @note None.
 788:..\..\..\..\cloud\alicloud\src\services\dev_bind\os/os.h ****  */
 789:..\..\..\..\cloud\alicloud\src\services\dev_bind\os/os.h **** #define os_wifi_mgnt_frame_cb_t     platform_wifi_mgnt_frame_cb_t
 790:..\..\..\..\cloud\alicloud\src\services\dev_bind\os/os.h **** 
 791:..\..\..\..\cloud\alicloud\src\services\dev_bind\os/os.h **** /**
 792:..\..\..\..\cloud\alicloud\src\services\dev_bind\os/os.h ****  * @brief enable/disable filter specific management frame in wifi station mode
 793:..\..\..\..\cloud\alicloud\src\services\dev_bind\os/os.h ****  *
 794:..\..\..\..\cloud\alicloud\src\services\dev_bind\os/os.h ****  * @param[in] filter_mask @n see mask macro in enum platform_awss_frame_type,
 795:..\..\..\..\cloud\alicloud\src\services\dev_bind\os/os.h ****  *                      currently only FRAME_PROBE_REQ_MASK & FRAME_BEACON_MASK is used
 796:..\..\..\..\cloud\alicloud\src\services\dev_bind\os/os.h ****  * @param[in] vendor_oui @n oui can be used for precise frame match, optional
 797:..\..\..\..\cloud\alicloud\src\services\dev_bind\os/os.h ****  * @param[in] callback @n see platform_wifi_mgnt_frame_cb_t, passing 80211
 798:..\..\..\..\cloud\alicloud\src\services\dev_bind\os/os.h ****  *                      frame or ie to callback. when callback is NULL
 799:..\..\..\..\cloud\alicloud\src\services\dev_bind\os/os.h ****  *                      disable sniffer feature, otherwise enable it.
 800:..\..\..\..\cloud\alicloud\src\services\dev_bind\os/os.h ****  * @return
 801:..\..\..\..\cloud\alicloud\src\services\dev_bind\os/os.h ****    @verbatim
 802:..\..\..\..\cloud\alicloud\src\services\dev_bind\os/os.h ****    =  0, success
 803:..\..\..\..\cloud\alicloud\src\services\dev_bind\os/os.h ****    = -1, fail
 804:..\..\..\..\cloud\alicloud\src\services\dev_bind\os/os.h ****    = -2, unsupported.
 805:..\..\..\..\cloud\alicloud\src\services\dev_bind\os/os.h ****    @endverbatim
 806:..\..\..\..\cloud\alicloud\src\services\dev_bind\os/os.h ****  * @see None.
 807:..\..\..\..\cloud\alicloud\src\services\dev_bind\os/os.h ****  * @note awss use this API to filter specific mgnt frame in wifi station mode
 808:..\..\..\..\cloud\alicloud\src\services\dev_bind\os/os.h ****  */
 809:..\..\..\..\cloud\alicloud\src\services\dev_bind\os/os.h **** static inline int os_wifi_enable_mgnt_frame_filter(
 810:..\..\..\..\cloud\alicloud\src\services\dev_bind\os/os.h ****             _IN_ uint32_t filter_mask,
 811:..\..\..\..\cloud\alicloud\src\services\dev_bind\os/os.h ****             _IN_OPT_ uint8_t vendor_oui[3],
 812:..\..\..\..\cloud\alicloud\src\services\dev_bind\os/os.h ****             _IN_ platform_wifi_mgnt_frame_cb_t callback)
 813:..\..\..\..\cloud\alicloud\src\services\dev_bind\os/os.h **** {
 814:..\..\..\..\cloud\alicloud\src\services\dev_bind\os/os.h ****     return platform_wifi_enable_mgnt_frame_filter(filter_mask, vendor_oui, callback);
 815:..\..\..\..\cloud\alicloud\src\services\dev_bind\os/os.h **** }
 816:..\..\..\..\cloud\alicloud\src\services\dev_bind\os/os.h **** 
 817:..\..\..\..\cloud\alicloud\src\services\dev_bind\os/os.h **** /**
 818:..\..\..\..\cloud\alicloud\src\services\dev_bind\os/os.h ****  * @brief find all the wifi AP around adapted with device.
 819:..\..\..\..\cloud\alicloud\src\services\dev_bind\os/os.h ****  *
 820:..\..\..\..\cloud\alicloud\src\services\dev_bind\os/os.h ****  * @param[in] cb @n pass ssid info(scan result) to this callback one by one
 821:..\..\..\..\cloud\alicloud\src\services\dev_bind\os/os.h ****  * @return 0 for wifi scan is done, otherwise return -1
 822:..\..\..\..\cloud\alicloud\src\services\dev_bind\os/os.h ****  * @see None.
 823:..\..\..\..\cloud\alicloud\src\services\dev_bind\os/os.h ****  * @note
 824:..\..\..\..\cloud\alicloud\src\services\dev_bind\os/os.h ****  *      This API should NOT exit before the invoking for cb is finished.
 825:..\..\..\..\cloud\alicloud\src\services\dev_bind\os/os.h ****  *      This rule is something like the following :
 826:..\..\..\..\cloud\alicloud\src\services\dev_bind\os/os.h ****  *      platform_wifi_scan() is invoked...
 827:..\..\..\..\cloud\alicloud\src\services\dev_bind\os/os.h ****  *      ...
 828:..\..\..\..\cloud\alicloud\src\services\dev_bind\os/os.h ****  *      for (ap = first_ap; ap <= last_ap; ap = next_ap){
 829:..\..\..\..\cloud\alicloud\src\services\dev_bind\os/os.h ****  *          cb(ap)
 830:..\..\..\..\cloud\alicloud\src\services\dev_bind\os/os.h ****  *      }
 831:..\..\..\..\cloud\alicloud\src\services\dev_bind\os/os.h ****  *      ...
 832:..\..\..\..\cloud\alicloud\src\services\dev_bind\os/os.h ****  *      platform_wifi_scan() exit...
 833:..\..\..\..\cloud\alicloud\src\services\dev_bind\os/os.h ****  */
 834:..\..\..\..\cloud\alicloud\src\services\dev_bind\os/os.h **** static inline int os_wifi_scan(_IN_ platform_wifi_scan_result_cb_t cb)
 835:..\..\..\..\cloud\alicloud\src\services\dev_bind\os/os.h **** {
 836:..\..\..\..\cloud\alicloud\src\services\dev_bind\os/os.h ****     return platform_wifi_scan(cb);
 837:..\..\..\..\cloud\alicloud\src\services\dev_bind\os/os.h **** }
 838:..\..\..\..\cloud\alicloud\src\services\dev_bind\os/os.h **** 
 839:..\..\..\..\cloud\alicloud\src\services\dev_bind\os/os.h **** /**
 840:..\..\..\..\cloud\alicloud\src\services\dev_bind\os/os.h ****  * @brief initialize AES struct.
 841:..\..\..\..\cloud\alicloud\src\services\dev_bind\os/os.h ****  *
 842:..\..\..\..\cloud\alicloud\src\services\dev_bind\os/os.h ****  * @param[in] key:
 843:..\..\..\..\cloud\alicloud\src\services\dev_bind\os/os.h ****  * @param[in] iv:
 844:..\..\..\..\cloud\alicloud\src\services\dev_bind\os/os.h ****  * @param[in] dir: AES_ENCRYPTION or AES_DECRYPTION
 845:..\..\..\..\cloud\alicloud\src\services\dev_bind\os/os.h ****  * @return AES128_t
 846:..\..\..\..\cloud\alicloud\src\services\dev_bind\os/os.h ****    @verbatim None
 847:..\..\..\..\cloud\alicloud\src\services\dev_bind\os/os.h ****    @endverbatim
 848:..\..\..\..\cloud\alicloud\src\services\dev_bind\os/os.h ****  * @see None.
 849:..\..\..\..\cloud\alicloud\src\services\dev_bind\os/os.h ****  * @note None.
 850:..\..\..\..\cloud\alicloud\src\services\dev_bind\os/os.h ****  */
 851:..\..\..\..\cloud\alicloud\src\services\dev_bind\os/os.h **** static inline p_aes128_t os_aes128_init(
 852:..\..\..\..\cloud\alicloud\src\services\dev_bind\os/os.h ****             _IN_ const uint8_t *key,
 853:..\..\..\..\cloud\alicloud\src\services\dev_bind\os/os.h ****             _IN_ const uint8_t *iv,
 854:..\..\..\..\cloud\alicloud\src\services\dev_bind\os/os.h ****             _IN_ AES_DIR_t dir)
 855:..\..\..\..\cloud\alicloud\src\services\dev_bind\os/os.h **** {
 856:..\..\..\..\cloud\alicloud\src\services\dev_bind\os/os.h ****     return platform_aes128_init(key, iv, dir);
 857:..\..\..\..\cloud\alicloud\src\services\dev_bind\os/os.h **** }
 858:..\..\..\..\cloud\alicloud\src\services\dev_bind\os/os.h **** 
 859:..\..\..\..\cloud\alicloud\src\services\dev_bind\os/os.h **** /**
 860:..\..\..\..\cloud\alicloud\src\services\dev_bind\os/os.h ****  * @brief release AES struct.
 861:..\..\..\..\cloud\alicloud\src\services\dev_bind\os/os.h ****  *
 862:..\..\..\..\cloud\alicloud\src\services\dev_bind\os/os.h ****  * @param[in] aes:
 863:..\..\..\..\cloud\alicloud\src\services\dev_bind\os/os.h ****  * @return
 864:..\..\..\..\cloud\alicloud\src\services\dev_bind\os/os.h ****    @verbatim
 865:..\..\..\..\cloud\alicloud\src\services\dev_bind\os/os.h ****      = 0: succeeded
 866:..\..\..\..\cloud\alicloud\src\services\dev_bind\os/os.h ****      = -1: failed
 867:..\..\..\..\cloud\alicloud\src\services\dev_bind\os/os.h ****    @endverbatim
 868:..\..\..\..\cloud\alicloud\src\services\dev_bind\os/os.h ****  * @see None.
 869:..\..\..\..\cloud\alicloud\src\services\dev_bind\os/os.h ****  * @note None.
 870:..\..\..\..\cloud\alicloud\src\services\dev_bind\os/os.h ****  */
 871:..\..\..\..\cloud\alicloud\src\services\dev_bind\os/os.h **** static inline int os_aes128_destroy(
 872:..\..\..\..\cloud\alicloud\src\services\dev_bind\os/os.h ****             _IN_ p_aes128_t aes)
 873:..\..\..\..\cloud\alicloud\src\services\dev_bind\os/os.h **** {
 874:..\..\..\..\cloud\alicloud\src\services\dev_bind\os/os.h ****     return platform_aes128_destroy(aes);
 875:..\..\..\..\cloud\alicloud\src\services\dev_bind\os/os.h **** }
 876:..\..\..\..\cloud\alicloud\src\services\dev_bind\os/os.h **** 
 877:..\..\..\..\cloud\alicloud\src\services\dev_bind\os/os.h **** /**
 878:..\..\..\..\cloud\alicloud\src\services\dev_bind\os/os.h ****  * @brief encrypt data with aes (cbc/128bit key).
 879:..\..\..\..\cloud\alicloud\src\services\dev_bind\os/os.h ****  *
 880:..\..\..\..\cloud\alicloud\src\services\dev_bind\os/os.h ****  * @param[in] aes: AES handler
 881:..\..\..\..\cloud\alicloud\src\services\dev_bind\os/os.h ****  * @param[in] src: plain data
 882:..\..\..\..\cloud\alicloud\src\services\dev_bind\os/os.h ****  * @param[in] blockNum: plain data number of 16 bytes size
 883:..\..\..\..\cloud\alicloud\src\services\dev_bind\os/os.h ****  * @param[out] dst: cipher data
 884:..\..\..\..\cloud\alicloud\src\services\dev_bind\os/os.h ****  * @return
 885:..\..\..\..\cloud\alicloud\src\services\dev_bind\os/os.h ****    @verbatim
 886:..\..\..\..\cloud\alicloud\src\services\dev_bind\os/os.h ****      = 0: succeeded
 887:..\..\..\..\cloud\alicloud\src\services\dev_bind\os/os.h ****      = -1: failed
 888:..\..\..\..\cloud\alicloud\src\services\dev_bind\os/os.h ****    @endverbatim
 889:..\..\..\..\cloud\alicloud\src\services\dev_bind\os/os.h ****  * @see None.
 890:..\..\..\..\cloud\alicloud\src\services\dev_bind\os/os.h ****  * @note None.
 891:..\..\..\..\cloud\alicloud\src\services\dev_bind\os/os.h ****  */
 892:..\..\..\..\cloud\alicloud\src\services\dev_bind\os/os.h **** static inline int os_aes128_cbc_encrypt(
 893:..\..\..\..\cloud\alicloud\src\services\dev_bind\os/os.h ****             _IN_ p_aes128_t aes,
 894:..\..\..\..\cloud\alicloud\src\services\dev_bind\os/os.h ****             _IN_ const void *src,
 895:..\..\..\..\cloud\alicloud\src\services\dev_bind\os/os.h ****             _IN_ size_t blockNum,
 896:..\..\..\..\cloud\alicloud\src\services\dev_bind\os/os.h ****             _OUT_ void *dst)
 897:..\..\..\..\cloud\alicloud\src\services\dev_bind\os/os.h **** {
 898:..\..\..\..\cloud\alicloud\src\services\dev_bind\os/os.h ****     return platform_aes128_cbc_encrypt(aes, src, blockNum, dst);
 899:..\..\..\..\cloud\alicloud\src\services\dev_bind\os/os.h **** }
 900:..\..\..\..\cloud\alicloud\src\services\dev_bind\os/os.h **** 
 901:..\..\..\..\cloud\alicloud\src\services\dev_bind\os/os.h **** /**
 902:..\..\..\..\cloud\alicloud\src\services\dev_bind\os/os.h ****  * @brief encrypt data with aes (cfb/128bit key).
 903:..\..\..\..\cloud\alicloud\src\services\dev_bind\os/os.h ****  *
 904:..\..\..\..\cloud\alicloud\src\services\dev_bind\os/os.h ****  * @param[in] aes: AES handler
 905:..\..\..\..\cloud\alicloud\src\services\dev_bind\os/os.h ****  * @param[in] src: plain data
 906:..\..\..\..\cloud\alicloud\src\services\dev_bind\os/os.h ****  * @param[in] blockNum: plain data number of 16 bytes size
 907:..\..\..\..\cloud\alicloud\src\services\dev_bind\os/os.h ****  * @param[out] dst: cipher data
 908:..\..\..\..\cloud\alicloud\src\services\dev_bind\os/os.h ****  * @return
 909:..\..\..\..\cloud\alicloud\src\services\dev_bind\os/os.h ****    @verbatim
 910:..\..\..\..\cloud\alicloud\src\services\dev_bind\os/os.h ****      = 0: succeeded
 911:..\..\..\..\cloud\alicloud\src\services\dev_bind\os/os.h ****      = -1: failed
 912:..\..\..\..\cloud\alicloud\src\services\dev_bind\os/os.h ****    @endverbatim
 913:..\..\..\..\cloud\alicloud\src\services\dev_bind\os/os.h ****  * @see None.
 914:..\..\..\..\cloud\alicloud\src\services\dev_bind\os/os.h ****  * @note None.
 915:..\..\..\..\cloud\alicloud\src\services\dev_bind\os/os.h ****  */
 916:..\..\..\..\cloud\alicloud\src\services\dev_bind\os/os.h **** static inline int os_aes128_cfb_encrypt(
 917:..\..\..\..\cloud\alicloud\src\services\dev_bind\os/os.h ****             _IN_ p_aes128_t aes,
 918:..\..\..\..\cloud\alicloud\src\services\dev_bind\os/os.h ****             _IN_ const void *src,
 919:..\..\..\..\cloud\alicloud\src\services\dev_bind\os/os.h ****             _IN_ size_t blockNum,
 920:..\..\..\..\cloud\alicloud\src\services\dev_bind\os/os.h ****             _OUT_ void *dst)
 921:..\..\..\..\cloud\alicloud\src\services\dev_bind\os/os.h **** {
 922:..\..\..\..\cloud\alicloud\src\services\dev_bind\os/os.h ****     return platform_aes128_cfb_encrypt(aes, src, blockNum, dst);
 923:..\..\..\..\cloud\alicloud\src\services\dev_bind\os/os.h **** }
 924:..\..\..\..\cloud\alicloud\src\services\dev_bind\os/os.h **** 
 925:..\..\..\..\cloud\alicloud\src\services\dev_bind\os/os.h **** /**
 926:..\..\..\..\cloud\alicloud\src\services\dev_bind\os/os.h ****  * @brief decrypt data with aes (cbc/128bit key).
 927:..\..\..\..\cloud\alicloud\src\services\dev_bind\os/os.h ****  *
 928:..\..\..\..\cloud\alicloud\src\services\dev_bind\os/os.h ****  * @param[in] aes: AES handler
 929:..\..\..\..\cloud\alicloud\src\services\dev_bind\os/os.h ****  * @param[in] src: cipher data
 930:..\..\..\..\cloud\alicloud\src\services\dev_bind\os/os.h ****  * @param[in] blockNum: plain data number of 16 bytes size
 931:..\..\..\..\cloud\alicloud\src\services\dev_bind\os/os.h ****  * @param[out] dst: plain data
 932:..\..\..\..\cloud\alicloud\src\services\dev_bind\os/os.h ****  * @return
 933:..\..\..\..\cloud\alicloud\src\services\dev_bind\os/os.h ****    @verbatim
 934:..\..\..\..\cloud\alicloud\src\services\dev_bind\os/os.h ****      = 0: succeeded
 935:..\..\..\..\cloud\alicloud\src\services\dev_bind\os/os.h ****      = -1: failed
 936:..\..\..\..\cloud\alicloud\src\services\dev_bind\os/os.h ****    @endverbatim
 937:..\..\..\..\cloud\alicloud\src\services\dev_bind\os/os.h ****  * @see None.
 938:..\..\..\..\cloud\alicloud\src\services\dev_bind\os/os.h ****  * @note None.
 939:..\..\..\..\cloud\alicloud\src\services\dev_bind\os/os.h ****  */
 940:..\..\..\..\cloud\alicloud\src\services\dev_bind\os/os.h **** static inline int os_aes128_cbc_decrypt(
 941:..\..\..\..\cloud\alicloud\src\services\dev_bind\os/os.h ****             _IN_ p_aes128_t aes,
 942:..\..\..\..\cloud\alicloud\src\services\dev_bind\os/os.h ****             _IN_ const void *src,
 943:..\..\..\..\cloud\alicloud\src\services\dev_bind\os/os.h ****             _IN_ size_t blockNum,
 944:..\..\..\..\cloud\alicloud\src\services\dev_bind\os/os.h ****             _OUT_ void *dst)
 945:..\..\..\..\cloud\alicloud\src\services\dev_bind\os/os.h **** {
 946:..\..\..\..\cloud\alicloud\src\services\dev_bind\os/os.h ****     return platform_aes128_cbc_decrypt(aes, src, blockNum, dst);
 947:..\..\..\..\cloud\alicloud\src\services\dev_bind\os/os.h **** }
 948:..\..\..\..\cloud\alicloud\src\services\dev_bind\os/os.h **** 
 949:..\..\..\..\cloud\alicloud\src\services\dev_bind\os/os.h **** /**
 950:..\..\..\..\cloud\alicloud\src\services\dev_bind\os/os.h ****  * @brief decrypt data with aes (cfb/128bit key).
 951:..\..\..\..\cloud\alicloud\src\services\dev_bind\os/os.h ****  *
 952:..\..\..\..\cloud\alicloud\src\services\dev_bind\os/os.h ****  * @param[in] aes: AES handler
 953:..\..\..\..\cloud\alicloud\src\services\dev_bind\os/os.h ****  * @param[in] src: cipher data
 954:..\..\..\..\cloud\alicloud\src\services\dev_bind\os/os.h ****  * @param[in] blockNum: plain data number of 16 bytes size
 955:..\..\..\..\cloud\alicloud\src\services\dev_bind\os/os.h ****  * @param[out] dst: plain data
 956:..\..\..\..\cloud\alicloud\src\services\dev_bind\os/os.h ****  * @return
 957:..\..\..\..\cloud\alicloud\src\services\dev_bind\os/os.h ****    @verbatim
 958:..\..\..\..\cloud\alicloud\src\services\dev_bind\os/os.h ****      = 0: succeeded
 959:..\..\..\..\cloud\alicloud\src\services\dev_bind\os/os.h ****      = -1: failed
 960:..\..\..\..\cloud\alicloud\src\services\dev_bind\os/os.h ****    @endverbatim
 961:..\..\..\..\cloud\alicloud\src\services\dev_bind\os/os.h ****  * @see None.
 962:..\..\..\..\cloud\alicloud\src\services\dev_bind\os/os.h ****  * @note None.
 963:..\..\..\..\cloud\alicloud\src\services\dev_bind\os/os.h ****  */
 964:..\..\..\..\cloud\alicloud\src\services\dev_bind\os/os.h **** static inline int os_aes128_cfb_decrypt(
 965:..\..\..\..\cloud\alicloud\src\services\dev_bind\os/os.h ****             _IN_ p_aes128_t aes,
 966:..\..\..\..\cloud\alicloud\src\services\dev_bind\os/os.h ****             _IN_ const void *src,
 967:..\..\..\..\cloud\alicloud\src\services\dev_bind\os/os.h ****             _IN_ size_t blockNum,
 968:..\..\..\..\cloud\alicloud\src\services\dev_bind\os/os.h ****             _OUT_ void *dst)
 969:..\..\..\..\cloud\alicloud\src\services\dev_bind\os/os.h **** {
 970:..\..\..\..\cloud\alicloud\src\services\dev_bind\os/os.h ****     return platform_aes128_cfb_decrypt(aes, src, blockNum, dst);
 971:..\..\..\..\cloud\alicloud\src\services\dev_bind\os/os.h **** }
 972:..\..\..\..\cloud\alicloud\src\services\dev_bind\os/os.h **** 
 973:..\..\..\..\cloud\alicloud\src\services\dev_bind\os/os.h **** /**
 974:..\..\..\..\cloud\alicloud\src\services\dev_bind\os/os.h ****  * @brief get the information of the connected AP.
 975:..\..\..\..\cloud\alicloud\src\services\dev_bind\os/os.h ****  *
 976:..\..\..\..\cloud\alicloud\src\services\dev_bind\os/os.h ****  * @param[out] ssid: array to store ap ssid. It will be null if ssid is not required.
 977:..\..\..\..\cloud\alicloud\src\services\dev_bind\os/os.h ****  * @param[out] passwd: array to store ap password. It will be null if ap password is not required.
 978:..\..\..\..\cloud\alicloud\src\services\dev_bind\os/os.h ****  * @param[out] bssid: array to store ap bssid. It will be null if bssid is not required.
 979:..\..\..\..\cloud\alicloud\src\services\dev_bind\os/os.h **** * @return
 980:..\..\..\..\cloud\alicloud\src\services\dev_bind\os/os.h ****    @verbatim
 981:..\..\..\..\cloud\alicloud\src\services\dev_bind\os/os.h ****      = 0: succeeded
 982:..\..\..\..\cloud\alicloud\src\services\dev_bind\os/os.h ****      = -1: failed
 983:..\..\..\..\cloud\alicloud\src\services\dev_bind\os/os.h ****    @endverbatim
 984:..\..\..\..\cloud\alicloud\src\services\dev_bind\os/os.h ****  * @see None.
 985:..\..\..\..\cloud\alicloud\src\services\dev_bind\os/os.h ****  * @note None.
 986:..\..\..\..\cloud\alicloud\src\services\dev_bind\os/os.h ****  */
 987:..\..\..\..\cloud\alicloud\src\services\dev_bind\os/os.h **** static inline int os_wifi_get_ap_info(
 988:..\..\..\..\cloud\alicloud\src\services\dev_bind\os/os.h ****             _OUT_ char ssid[PLATFORM_MAX_SSID_LEN],
 989:..\..\..\..\cloud\alicloud\src\services\dev_bind\os/os.h ****             _OUT_ char passwd[PLATFORM_MAX_PASSWD_LEN],
 990:..\..\..\..\cloud\alicloud\src\services\dev_bind\os/os.h ****             _OUT_ uint8_t bssid[ETH_ALEN])
 991:..\..\..\..\cloud\alicloud\src\services\dev_bind\os/os.h **** {
 992:..\..\..\..\cloud\alicloud\src\services\dev_bind\os/os.h ****     return platform_wifi_get_ap_info(ssid, passwd, bssid);
 993:..\..\..\..\cloud\alicloud\src\services\dev_bind\os/os.h **** }
 994:..\..\..\..\cloud\alicloud\src\services\dev_bind\os/os.h **** 
 995:..\..\..\..\cloud\alicloud\src\services\dev_bind\os/os.h **** /** @} */// end of os_awss
 996:..\..\..\..\cloud\alicloud\src\services\dev_bind\os/os.h **** 
 997:..\..\..\..\cloud\alicloud\src\services\dev_bind\os/os.h **** /** @defgroup group_os_product product
 998:..\..\..\..\cloud\alicloud\src\services\dev_bind\os/os.h ****  *  @{
 999:..\..\..\..\cloud\alicloud\src\services\dev_bind\os/os.h ****  */
1000:..\..\..\..\cloud\alicloud\src\services\dev_bind\os/os.h **** 
1001:..\..\..\..\cloud\alicloud\src\services\dev_bind\os/os.h **** /**
1002:..\..\..\..\cloud\alicloud\src\services\dev_bind\os/os.h ****  * @brief Get product key string.
1003:..\..\..\..\cloud\alicloud\src\services\dev_bind\os/os.h ****  *
1004:..\..\..\..\cloud\alicloud\src\services\dev_bind\os/os.h ****  * @param[out] key_str @n Buffer for using to store key string.
1005:..\..\..\..\cloud\alicloud\src\services\dev_bind\os/os.h ****  * @return A pointer to the start address of key_str.
1006:..\..\..\..\cloud\alicloud\src\services\dev_bind\os/os.h ****  * @see None.
1007:..\..\..\..\cloud\alicloud\src\services\dev_bind\os/os.h ****  * @note None.
1008:..\..\..\..\cloud\alicloud\src\services\dev_bind\os/os.h ****  */
1009:..\..\..\..\cloud\alicloud\src\services\dev_bind\os/os.h **** static inline int os_product_get_key(char key_str[OS_PRODUCT_KEY_LEN])
1010:..\..\..\..\cloud\alicloud\src\services\dev_bind\os/os.h **** {
1011:..\..\..\..\cloud\alicloud\src\services\dev_bind\os/os.h ****     return product_get_key(key_str);
 192              		.loc 1 1011 12
 193 0088 97000000 		call	HAL_GetProductKey
 193      E7800000 
 194              	.LVL15:
 195              	.LBE41:
 196              	.LBE40:
  68:C:/Users/stapi/OneDrive/Desktop/GD32VW553/V1_MQTT_OK/GD32VW55X_Wifi_BLE_SDK/GD32VW55x_RELEASE_V1.0.2/MSDK/cloud/alicloud/src/services/awss\awss_enrollee.c **** 
 197              		.loc 2 68 14
 198 0090 5A85     		mv	a0,s6
 199 0092 97000000 		call	strlen
 199      E7800000 
 200              	.LVL16:
 201 009a AA84     		mv	s1,a0
 202              	.LBB43:
 203              	.LBB44:
1012:..\..\..\..\cloud\alicloud\src\services\dev_bind\os/os.h **** }
1013:..\..\..\..\cloud\alicloud\src\services\dev_bind\os/os.h **** 
1014:..\..\..\..\cloud\alicloud\src\services\dev_bind\os/os.h **** /**
1015:..\..\..\..\cloud\alicloud\src\services\dev_bind\os/os.h ****  * @brief Get product secret string.
1016:..\..\..\..\cloud\alicloud\src\services\dev_bind\os/os.h ****  *
1017:..\..\..\..\cloud\alicloud\src\services\dev_bind\os/os.h ****  * @param[out] secret_str @n Buffer for using to store secret string.
1018:..\..\..\..\cloud\alicloud\src\services\dev_bind\os/os.h ****  * @return A pointer to the start address of secret_str.
1019:..\..\..\..\cloud\alicloud\src\services\dev_bind\os/os.h ****  * @see None.
1020:..\..\..\..\cloud\alicloud\src\services\dev_bind\os/os.h ****  * @note None.
1021:..\..\..\..\cloud\alicloud\src\services\dev_bind\os/os.h ****  */
1022:..\..\..\..\cloud\alicloud\src\services\dev_bind\os/os.h **** static inline int os_product_get_secret(char secret_str[OS_PRODUCT_SECRET_LEN])
1023:..\..\..\..\cloud\alicloud\src\services\dev_bind\os/os.h **** {
1024:..\..\..\..\cloud\alicloud\src\services\dev_bind\os/os.h ****     return product_get_secret(secret_str);
1025:..\..\..\..\cloud\alicloud\src\services\dev_bind\os/os.h **** }
1026:..\..\..\..\cloud\alicloud\src\services\dev_bind\os/os.h **** 
1027:..\..\..\..\cloud\alicloud\src\services\dev_bind\os/os.h **** /**
1028:..\..\..\..\cloud\alicloud\src\services\dev_bind\os/os.h ****  * @brief Get device secret string.
1029:..\..\..\..\cloud\alicloud\src\services\dev_bind\os/os.h ****  *
1030:..\..\..\..\cloud\alicloud\src\services\dev_bind\os/os.h ****  * @param[out] secret_str @n Buffer for using to store secret string.
1031:..\..\..\..\cloud\alicloud\src\services\dev_bind\os/os.h ****  * @return A pointer to the start address of secret_str.
1032:..\..\..\..\cloud\alicloud\src\services\dev_bind\os/os.h ****  * @see None.
1033:..\..\..\..\cloud\alicloud\src\services\dev_bind\os/os.h ****  * @note None.
1034:..\..\..\..\cloud\alicloud\src\services\dev_bind\os/os.h ****  */
1035:..\..\..\..\cloud\alicloud\src\services\dev_bind\os/os.h **** static inline int os_device_get_secret(char secret_str[OS_DEVICE_SECRET_LEN])
1036:..\..\..\..\cloud\alicloud\src\services\dev_bind\os/os.h **** {
1037:..\..\..\..\cloud\alicloud\src\services\dev_bind\os/os.h ****     return device_get_secret(secret_str);
1038:..\..\..\..\cloud\alicloud\src\services\dev_bind\os/os.h **** }
1039:..\..\..\..\cloud\alicloud\src\services\dev_bind\os/os.h **** 
1040:..\..\..\..\cloud\alicloud\src\services\dev_bind\os/os.h **** /**
1041:..\..\..\..\cloud\alicloud\src\services\dev_bind\os/os.h ****  * @brief Get device key string.
1042:..\..\..\..\cloud\alicloud\src\services\dev_bind\os/os.h ****  *
1043:..\..\..\..\cloud\alicloud\src\services\dev_bind\os/os.h ****  * @param[out] key_str @n Buffer for using to store debug key string.
1044:..\..\..\..\cloud\alicloud\src\services\dev_bind\os/os.h ****  * @return A pointer to the start address of key_str.
1045:..\..\..\..\cloud\alicloud\src\services\dev_bind\os/os.h ****  * @see None.
1046:..\..\..\..\cloud\alicloud\src\services\dev_bind\os/os.h ****  * @note None.
1047:..\..\..\..\cloud\alicloud\src\services\dev_bind\os/os.h ****  */
1048:..\..\..\..\cloud\alicloud\src\services\dev_bind\os/os.h **** static inline int os_device_get_name(char key_str[OS_DEVICE_NAME_LEN])
1049:..\..\..\..\cloud\alicloud\src\services\dev_bind\os/os.h **** {
1050:..\..\..\..\cloud\alicloud\src\services\dev_bind\os/os.h ****     return device_get_name(key_str);
 204              		.loc 1 1050 12
 205 009c 4E85     		mv	a0,s3
 206 009e 97000000 		call	HAL_GetDeviceName
 206      E7800000 
 207              	.LVL17:
 208              	.LBE44:
 209              	.LBE43:
  71:C:/Users/stapi/OneDrive/Desktop/GD32VW553/V1_MQTT_OK/GD32VW55X_Wifi_BLE_SDK/GD32VW55x_RELEASE_V1.0.2/MSDK/cloud/alicloud/src/services/awss\awss_enrollee.c **** 
 210              		.loc 2 71 20
 211 00a6 4E85     		mv	a0,s3
 212 00a8 97000000 		call	strlen
 212      E7800000 
 213              	.LVL18:
 214 00b0 2A89     		mv	s2,a0
  73:C:/Users/stapi/OneDrive/Desktop/GD32VW553/V1_MQTT_OK/GD32VW55X_Wifi_BLE_SDK/GD32VW55x_RELEASE_V1.0.2/MSDK/cloud/alicloud/src/services/awss\awss_enrollee.c ****     text = os_zalloc(len + 1); /* +1 for string print */
 215              		.loc 2 73 26
 216 00b2 4105     		addi	a0,a0,16
  73:C:/Users/stapi/OneDrive/Desktop/GD32VW553/V1_MQTT_OK/GD32VW55X_Wifi_BLE_SDK/GD32VW55x_RELEASE_V1.0.2/MSDK/cloud/alicloud/src/services/awss\awss_enrollee.c ****     text = os_zalloc(len + 1); /* +1 for string print */
 217              		.loc 2 73 41
 218 00b4 2695     		add	a0,a0,s1
  73:C:/Users/stapi/OneDrive/Desktop/GD32VW553/V1_MQTT_OK/GD32VW55X_Wifi_BLE_SDK/GD32VW55x_RELEASE_V1.0.2/MSDK/cloud/alicloud/src/services/awss\awss_enrollee.c ****     text = os_zalloc(len + 1); /* +1 for string print */
 219              		.loc 2 73 9
 220 00b6 2AC0     		sw	a0,0(sp)
  74:C:/Users/stapi/OneDrive/Desktop/GD32VW553/V1_MQTT_OK/GD32VW55X_Wifi_BLE_SDK/GD32VW55x_RELEASE_V1.0.2/MSDK/cloud/alicloud/src/services/awss\awss_enrollee.c **** 
 221              		.loc 2 74 12
 222 00b8 0505     		addi	a0,a0,1
 223 00ba 97000000 		call	os_zalloc
 223      E7800000 
 224              	.LVL19:
  76:C:/Users/stapi/OneDrive/Desktop/GD32VW553/V1_MQTT_OK/GD32VW55X_Wifi_BLE_SDK/GD32VW55x_RELEASE_V1.0.2/MSDK/cloud/alicloud/src/services/awss\awss_enrollee.c ****     if (os_get_conn_encrypt_type() == 3) { // aes-key per product
 225              		.loc 2 76 5
 226 00c2 8A85     		mv	a1,sp
  74:C:/Users/stapi/OneDrive/Desktop/GD32VW553/V1_MQTT_OK/GD32VW55X_Wifi_BLE_SDK/GD32VW55x_RELEASE_V1.0.2/MSDK/cloud/alicloud/src/services/awss\awss_enrollee.c **** 
 227              		.loc 2 74 12
 228 00c4 2A84     		mv	s0,a0
  76:C:/Users/stapi/OneDrive/Desktop/GD32VW553/V1_MQTT_OK/GD32VW55X_Wifi_BLE_SDK/GD32VW55x_RELEASE_V1.0.2/MSDK/cloud/alicloud/src/services/awss\awss_enrollee.c ****     if (os_get_conn_encrypt_type() == 3) { // aes-key per product
 229              		.loc 2 76 5
 230 00c6 97000000 		call	awss_build_sign_src
 230      E7800000 
 231              	.LVL20:
 232              	.LBB46:
 233              	.LBB47:
 536:..\..\..\..\cloud\alicloud\src\services\dev_bind\os/os.h **** }
 234              		.loc 1 536 12
 235 00ce 97000000 		call	HAL_Awss_Get_Conn_Encrypt_Type
 235      E7800000 
 236              	.LVL21:
 237              	.LBE47:
 238              	.LBE46:
  77:C:/Users/stapi/OneDrive/Desktop/GD32VW553/V1_MQTT_OK/GD32VW55X_Wifi_BLE_SDK/GD32VW55x_RELEASE_V1.0.2/MSDK/cloud/alicloud/src/services/awss\awss_enrollee.c ****         os_product_get_secret(key);
 239              		.loc 2 77 8
 240 00d6 8D47     		li	a5,3
 241 00d8 938A0A00 		addi	s5,s5,%lo(.LANCHOR0)
  64:C:/Users/stapi/OneDrive/Desktop/GD32VW553/V1_MQTT_OK/GD32VW55X_Wifi_BLE_SDK/GD32VW55x_RELEASE_V1.0.2/MSDK/cloud/alicloud/src/services/awss\awss_enrollee.c ****     pk = os_zalloc(OS_PRODUCT_KEY_LEN + 1);
 242              		.loc 2 64 5 is_stmt 1
 243              	.LVL22:
  65:C:/Users/stapi/OneDrive/Desktop/GD32VW553/V1_MQTT_OK/GD32VW55X_Wifi_BLE_SDK/GD32VW55x_RELEASE_V1.0.2/MSDK/cloud/alicloud/src/services/awss\awss_enrollee.c **** 
 244              		.loc 2 65 5
  67:C:/Users/stapi/OneDrive/Desktop/GD32VW553/V1_MQTT_OK/GD32VW55X_Wifi_BLE_SDK/GD32VW55x_RELEASE_V1.0.2/MSDK/cloud/alicloud/src/services/awss\awss_enrollee.c ****     pk_len = strlen(pk);
 245              		.loc 2 67 5
 246              	.LBB49:
 247              	.LBB42:
1011:..\..\..\..\cloud\alicloud\src\services\dev_bind\os/os.h **** }
 248              		.loc 1 1011 5
 249              	.LBE42:
 250              	.LBE49:
  68:C:/Users/stapi/OneDrive/Desktop/GD32VW553/V1_MQTT_OK/GD32VW55X_Wifi_BLE_SDK/GD32VW55x_RELEASE_V1.0.2/MSDK/cloud/alicloud/src/services/awss\awss_enrollee.c **** 
 251              		.loc 2 68 5
  70:C:/Users/stapi/OneDrive/Desktop/GD32VW553/V1_MQTT_OK/GD32VW55X_Wifi_BLE_SDK/GD32VW55x_RELEASE_V1.0.2/MSDK/cloud/alicloud/src/services/awss\awss_enrollee.c ****     dev_name_len = strlen(dev_name);
 252              		.loc 2 70 5
 253              	.LBB50:
 254              	.LBB45:
 255              		.loc 1 1050 5
 256              	.LBE45:
 257              	.LBE50:
  71:C:/Users/stapi/OneDrive/Desktop/GD32VW553/V1_MQTT_OK/GD32VW55X_Wifi_BLE_SDK/GD32VW55x_RELEASE_V1.0.2/MSDK/cloud/alicloud/src/services/awss\awss_enrollee.c **** 
 258              		.loc 2 71 5
  73:C:/Users/stapi/OneDrive/Desktop/GD32VW553/V1_MQTT_OK/GD32VW55X_Wifi_BLE_SDK/GD32VW55x_RELEASE_V1.0.2/MSDK/cloud/alicloud/src/services/awss\awss_enrollee.c ****     text = os_zalloc(len + 1); /* +1 for string print */
 259              		.loc 2 73 5
  74:C:/Users/stapi/OneDrive/Desktop/GD32VW553/V1_MQTT_OK/GD32VW55X_Wifi_BLE_SDK/GD32VW55x_RELEASE_V1.0.2/MSDK/cloud/alicloud/src/services/awss\awss_enrollee.c **** 
 260              		.loc 2 74 5
  76:C:/Users/stapi/OneDrive/Desktop/GD32VW553/V1_MQTT_OK/GD32VW55X_Wifi_BLE_SDK/GD32VW55x_RELEASE_V1.0.2/MSDK/cloud/alicloud/src/services/awss\awss_enrollee.c ****     if (os_get_conn_encrypt_type() == 3) { // aes-key per product
 261              		.loc 2 76 5
  77:C:/Users/stapi/OneDrive/Desktop/GD32VW553/V1_MQTT_OK/GD32VW55X_Wifi_BLE_SDK/GD32VW55x_RELEASE_V1.0.2/MSDK/cloud/alicloud/src/services/awss\awss_enrollee.c ****         os_product_get_secret(key);
 262              		.loc 2 77 5
 263              	.LBB51:
 264              	.LBB48:
 536:..\..\..\..\cloud\alicloud\src\services\dev_bind\os/os.h **** }
 265              		.loc 1 536 5
 266              	.LBE48:
 267              	.LBE51:
  77:C:/Users/stapi/OneDrive/Desktop/GD32VW553/V1_MQTT_OK/GD32VW55X_Wifi_BLE_SDK/GD32VW55x_RELEASE_V1.0.2/MSDK/cloud/alicloud/src/services/awss\awss_enrollee.c ****         os_product_get_secret(key);
 268              		.loc 2 77 8 is_stmt 0
 269 00dc 6317F520 		bne	a0,a5,.L10
  78:C:/Users/stapi/OneDrive/Desktop/GD32VW553/V1_MQTT_OK/GD32VW55X_Wifi_BLE_SDK/GD32VW55x_RELEASE_V1.0.2/MSDK/cloud/alicloud/src/services/awss\awss_enrollee.c ****     } else { // aes-key per device
 270              		.loc 2 78 9 is_stmt 1
 271              	.LVL23:
 272              	.LBB52:
 273              	.LBB53:
1024:..\..\..\..\cloud\alicloud\src\services\dev_bind\os/os.h **** }
 274              		.loc 1 1024 5
1024:..\..\..\..\cloud\alicloud\src\services\dev_bind\os/os.h **** }
 275              		.loc 1 1024 12 is_stmt 0
 276 00e0 6808     		addi	a0,sp,28
 277              	.LVL24:
 278 00e2 97000000 		call	HAL_GetProductSecret
 278      E7800000 
 279              	.LVL25:
 280              	.L11:
 281              	.LBE53:
 282              	.LBE52:
  82:C:/Users/stapi/OneDrive/Desktop/GD32VW553/V1_MQTT_OK/GD32VW55X_Wifi_BLE_SDK/GD32VW55x_RELEASE_V1.0.2/MSDK/cloud/alicloud/src/services/awss\awss_enrollee.c **** 
 283              		.loc 2 82 5 is_stmt 1
 284 00ea 0246     		lw	a2,0(sp)
 285 00ec 7408     		addi	a3,sp,28
 286 00ee A285     		mv	a1,s0
 287 00f0 4800     		addi	a0,sp,4
 288 00f2 97000000 		call	produce_signature
 288      E7800000 
 289              	.LVL26:
  84:C:/Users/stapi/OneDrive/Desktop/GD32VW553/V1_MQTT_OK/GD32VW55X_Wifi_BLE_SDK/GD32VW55x_RELEASE_V1.0.2/MSDK/cloud/alicloud/src/services/awss\awss_enrollee.c **** 
 290              		.loc 2 84 5
 291              	.LBB54:
 292              	.LBB55:
 394:..\..\..\..\cloud\alicloud\src\services\dev_bind\os/os.h **** }
 293              		.loc 1 394 5
 294 00fa 2285     		mv	a0,s0
 295 00fc 97000000 		call	HAL_Free
 295      E7800000 
 296              	.LVL27:
 297              	.LBE55:
 298              	.LBE54:
  86:C:/Users/stapi/OneDrive/Desktop/GD32VW553/V1_MQTT_OK/GD32VW55X_Wifi_BLE_SDK/GD32VW55x_RELEASE_V1.0.2/MSDK/cloud/alicloud/src/services/awss\awss_enrollee.c ****     enrollee_frame_len = sizeof(probe_req_frame) + ie_len;
 299              		.loc 2 86 5
  86:C:/Users/stapi/OneDrive/Desktop/GD32VW553/V1_MQTT_OK/GD32VW55X_Wifi_BLE_SDK/GD32VW55x_RELEASE_V1.0.2/MSDK/cloud/alicloud/src/services/awss\awss_enrollee.c ****     enrollee_frame_len = sizeof(probe_req_frame) + ie_len;
 300              		.loc 2 86 21 is_stmt 0
 301 0104 338C2401 		add	s8,s1,s2
 302              	.LVL28:
  87:C:/Users/stapi/OneDrive/Desktop/GD32VW553/V1_MQTT_OK/GD32VW55X_Wifi_BLE_SDK/GD32VW55x_RELEASE_V1.0.2/MSDK/cloud/alicloud/src/services/awss\awss_enrollee.c **** 
 303              		.loc 2 87 5 is_stmt 1
  87:C:/Users/stapi/OneDrive/Desktop/GD32VW553/V1_MQTT_OK/GD32VW55X_Wifi_BLE_SDK/GD32VW55x_RELEASE_V1.0.2/MSDK/cloud/alicloud/src/services/awss\awss_enrollee.c **** 
 304              		.loc 2 87 50 is_stmt 0
 305 0108 13050C06 		addi	a0,s8,96
 306 010c 33450508 		zext.h	a0,a0
  87:C:/Users/stapi/OneDrive/Desktop/GD32VW553/V1_MQTT_OK/GD32VW55X_Wifi_BLE_SDK/GD32VW55x_RELEASE_V1.0.2/MSDK/cloud/alicloud/src/services/awss\awss_enrollee.c **** 
 307              		.loc 2 87 24
 308 0110 2390AA00 		sh	a0,0(s5)
  89:C:/Users/stapi/OneDrive/Desktop/GD32VW553/V1_MQTT_OK/GD32VW55X_Wifi_BLE_SDK/GD32VW55x_RELEASE_V1.0.2/MSDK/cloud/alicloud/src/services/awss\awss_enrollee.c **** 
 309              		.loc 2 89 5 is_stmt 1
  89:C:/Users/stapi/OneDrive/Desktop/GD32VW553/V1_MQTT_OK/GD32VW55X_Wifi_BLE_SDK/GD32VW55x_RELEASE_V1.0.2/MSDK/cloud/alicloud/src/services/awss\awss_enrollee.c **** 
 310              		.loc 2 89 22 is_stmt 0
 311 0114 97000000 		call	os_zalloc
 311      E7800000 
 312              	.LVL29:
  93:C:/Users/stapi/OneDrive/Desktop/GD32VW553/V1_MQTT_OK/GD32VW55X_Wifi_BLE_SDK/GD32VW55x_RELEASE_V1.0.2/MSDK/cloud/alicloud/src/services/awss\awss_enrollee.c **** 
 313              		.loc 2 93 5
 314 011c B7050000 		lui	a1,%hi(.LANCHOR2)
  89:C:/Users/stapi/OneDrive/Desktop/GD32VW553/V1_MQTT_OK/GD32VW55X_Wifi_BLE_SDK/GD32VW55x_RELEASE_V1.0.2/MSDK/cloud/alicloud/src/services/awss\awss_enrollee.c **** 
 315              		.loc 2 89 20
 316 0120 370A0000 		lui	s4,%hi(.LANCHOR1)
  92:C:/Users/stapi/OneDrive/Desktop/GD32VW553/V1_MQTT_OK/GD32VW55X_Wifi_BLE_SDK/GD32VW55x_RELEASE_V1.0.2/MSDK/cloud/alicloud/src/services/awss\awss_enrollee.c ****     memcpy(enrollee_frame, probe_req_frame, len);
 317              		.loc 2 92 9
 318 0124 9307A002 		li	a5,42
  89:C:/Users/stapi/OneDrive/Desktop/GD32VW553/V1_MQTT_OK/GD32VW55X_Wifi_BLE_SDK/GD32VW55x_RELEASE_V1.0.2/MSDK/cloud/alicloud/src/services/awss\awss_enrollee.c **** 
 319              		.loc 2 89 20
 320 0128 130A0A00 		addi	s4,s4,%lo(.LANCHOR1)
  93:C:/Users/stapi/OneDrive/Desktop/GD32VW553/V1_MQTT_OK/GD32VW55X_Wifi_BLE_SDK/GD32VW55x_RELEASE_V1.0.2/MSDK/cloud/alicloud/src/services/awss\awss_enrollee.c **** 
 321              		.loc 2 93 5
 322 012c 938B0500 		addi	s7,a1,%lo(.LANCHOR2)
 323 0130 1306A002 		li	a2,42
 324 0134 93850500 		addi	a1,a1,%lo(.LANCHOR2)
  89:C:/Users/stapi/OneDrive/Desktop/GD32VW553/V1_MQTT_OK/GD32VW55X_Wifi_BLE_SDK/GD32VW55x_RELEASE_V1.0.2/MSDK/cloud/alicloud/src/services/awss\awss_enrollee.c **** 
 325              		.loc 2 89 22
 326 0138 2A84     		mv	s0,a0
 327              	.LVL30:
  92:C:/Users/stapi/OneDrive/Desktop/GD32VW553/V1_MQTT_OK/GD32VW55X_Wifi_BLE_SDK/GD32VW55x_RELEASE_V1.0.2/MSDK/cloud/alicloud/src/services/awss\awss_enrollee.c ****     memcpy(enrollee_frame, probe_req_frame, len);
 328              		.loc 2 92 9
 329 013a 3EC0     		sw	a5,0(sp)
  89:C:/Users/stapi/OneDrive/Desktop/GD32VW553/V1_MQTT_OK/GD32VW55X_Wifi_BLE_SDK/GD32VW55x_RELEASE_V1.0.2/MSDK/cloud/alicloud/src/services/awss\awss_enrollee.c **** 
 330              		.loc 2 89 20
 331 013c 2320AA00 		sw	a0,0(s4)
  92:C:/Users/stapi/OneDrive/Desktop/GD32VW553/V1_MQTT_OK/GD32VW55X_Wifi_BLE_SDK/GD32VW55x_RELEASE_V1.0.2/MSDK/cloud/alicloud/src/services/awss\awss_enrollee.c ****     memcpy(enrollee_frame, probe_req_frame, len);
 332              		.loc 2 92 5 is_stmt 1
  93:C:/Users/stapi/OneDrive/Desktop/GD32VW553/V1_MQTT_OK/GD32VW55X_Wifi_BLE_SDK/GD32VW55x_RELEASE_V1.0.2/MSDK/cloud/alicloud/src/services/awss\awss_enrollee.c **** 
 333              		.loc 2 93 5
 334 0140 97000000 		call	memcpy
 334      E7800000 
 335              	.LVL31:
  95:C:/Users/stapi/OneDrive/Desktop/GD32VW553/V1_MQTT_OK/GD32VW55X_Wifi_BLE_SDK/GD32VW55x_RELEASE_V1.0.2/MSDK/cloud/alicloud/src/services/awss\awss_enrollee.c ****     enrollee_frame[len ++] = ie_len - 2; /* exclude 221 & len */
 336              		.loc 2 95 5
  95:C:/Users/stapi/OneDrive/Desktop/GD32VW553/V1_MQTT_OK/GD32VW55X_Wifi_BLE_SDK/GD32VW55x_RELEASE_V1.0.2/MSDK/cloud/alicloud/src/services/awss\awss_enrollee.c ****     enrollee_frame[len ++] = ie_len - 2; /* exclude 221 & len */
 337              		.loc 2 95 24 is_stmt 0
 338 0148 8247     		lw	a5,0(sp)
  96:C:/Users/stapi/OneDrive/Desktop/GD32VW553/V1_MQTT_OK/GD32VW55X_Wifi_BLE_SDK/GD32VW55x_RELEASE_V1.0.2/MSDK/cloud/alicloud/src/services/awss\awss_enrollee.c ****     enrollee_frame[len ++] = 0xD8;
 339              		.loc 2 96 37
 340 014a 130C0C03 		addi	s8,s8,48
 341              	.LVL32:
 104:C:/Users/stapi/OneDrive/Desktop/GD32VW553/V1_MQTT_OK/GD32VW55X_Wifi_BLE_SDK/GD32VW55x_RELEASE_V1.0.2/MSDK/cloud/alicloud/src/services/awss\awss_enrollee.c ****     len += dev_name_len;
 342              		.loc 2 104 5
 343 014e 4A86     		mv	a2,s2
  95:C:/Users/stapi/OneDrive/Desktop/GD32VW553/V1_MQTT_OK/GD32VW55X_Wifi_BLE_SDK/GD32VW55x_RELEASE_V1.0.2/MSDK/cloud/alicloud/src/services/awss\awss_enrollee.c ****     enrollee_frame[len ++] = ie_len - 2; /* exclude 221 & len */
 344              		.loc 2 95 24
 345 0150 13871700 		addi	a4,a5,1
 346 0154 3AC0     		sw	a4,0(sp)
  95:C:/Users/stapi/OneDrive/Desktop/GD32VW553/V1_MQTT_OK/GD32VW55X_Wifi_BLE_SDK/GD32VW55x_RELEASE_V1.0.2/MSDK/cloud/alicloud/src/services/awss\awss_enrollee.c ****     enrollee_frame[len ++] = ie_len - 2; /* exclude 221 & len */
 347              		.loc 2 95 28
 348 0156 A297     		add	a5,s0,a5
 349 0158 1307D0FD 		li	a4,-35
 350 015c 2380E700 		sb	a4,0(a5)
  96:C:/Users/stapi/OneDrive/Desktop/GD32VW553/V1_MQTT_OK/GD32VW55X_Wifi_BLE_SDK/GD32VW55x_RELEASE_V1.0.2/MSDK/cloud/alicloud/src/services/awss\awss_enrollee.c ****     enrollee_frame[len ++] = 0xD8;
 351              		.loc 2 96 5 is_stmt 1
  96:C:/Users/stapi/OneDrive/Desktop/GD32VW553/V1_MQTT_OK/GD32VW55X_Wifi_BLE_SDK/GD32VW55x_RELEASE_V1.0.2/MSDK/cloud/alicloud/src/services/awss\awss_enrollee.c ****     enrollee_frame[len ++] = 0xD8;
 352              		.loc 2 96 24 is_stmt 0
 353 0160 8247     		lw	a5,0(sp)
 104:C:/Users/stapi/OneDrive/Desktop/GD32VW553/V1_MQTT_OK/GD32VW55X_Wifi_BLE_SDK/GD32VW55x_RELEASE_V1.0.2/MSDK/cloud/alicloud/src/services/awss\awss_enrollee.c ****     len += dev_name_len;
 354              		.loc 2 104 5
 355 0162 CE85     		mv	a1,s3
  96:C:/Users/stapi/OneDrive/Desktop/GD32VW553/V1_MQTT_OK/GD32VW55X_Wifi_BLE_SDK/GD32VW55x_RELEASE_V1.0.2/MSDK/cloud/alicloud/src/services/awss\awss_enrollee.c ****     enrollee_frame[len ++] = 0xD8;
 356              		.loc 2 96 24
 357 0164 13871700 		addi	a4,a5,1
 358 0168 3AC0     		sw	a4,0(sp)
  96:C:/Users/stapi/OneDrive/Desktop/GD32VW553/V1_MQTT_OK/GD32VW55X_Wifi_BLE_SDK/GD32VW55x_RELEASE_V1.0.2/MSDK/cloud/alicloud/src/services/awss\awss_enrollee.c ****     enrollee_frame[len ++] = 0xD8;
 359              		.loc 2 96 28
 360 016a A297     		add	a5,s0,a5
 361 016c 23808701 		sb	s8,0(a5)
  97:C:/Users/stapi/OneDrive/Desktop/GD32VW553/V1_MQTT_OK/GD32VW55X_Wifi_BLE_SDK/GD32VW55x_RELEASE_V1.0.2/MSDK/cloud/alicloud/src/services/awss\awss_enrollee.c ****     enrollee_frame[len ++] = 0x96;
 362              		.loc 2 97 5 is_stmt 1
  97:C:/Users/stapi/OneDrive/Desktop/GD32VW553/V1_MQTT_OK/GD32VW55X_Wifi_BLE_SDK/GD32VW55x_RELEASE_V1.0.2/MSDK/cloud/alicloud/src/services/awss\awss_enrollee.c ****     enrollee_frame[len ++] = 0x96;
 363              		.loc 2 97 24 is_stmt 0
 364 0170 8247     		lw	a5,0(sp)
 365 0172 13871700 		addi	a4,a5,1
 366 0176 3AC0     		sw	a4,0(sp)
  97:C:/Users/stapi/OneDrive/Desktop/GD32VW553/V1_MQTT_OK/GD32VW55X_Wifi_BLE_SDK/GD32VW55x_RELEASE_V1.0.2/MSDK/cloud/alicloud/src/services/awss\awss_enrollee.c ****     enrollee_frame[len ++] = 0x96;
 367              		.loc 2 97 28
 368 0178 A297     		add	a5,s0,a5
 369 017a 130780FD 		li	a4,-40
 370 017e 2380E700 		sb	a4,0(a5)
  98:C:/Users/stapi/OneDrive/Desktop/GD32VW553/V1_MQTT_OK/GD32VW55X_Wifi_BLE_SDK/GD32VW55x_RELEASE_V1.0.2/MSDK/cloud/alicloud/src/services/awss\awss_enrollee.c ****     enrollee_frame[len ++] = 0xE0;
 371              		.loc 2 98 5 is_stmt 1
  98:C:/Users/stapi/OneDrive/Desktop/GD32VW553/V1_MQTT_OK/GD32VW55X_Wifi_BLE_SDK/GD32VW55x_RELEASE_V1.0.2/MSDK/cloud/alicloud/src/services/awss\awss_enrollee.c ****     enrollee_frame[len ++] = 0xE0;
 372              		.loc 2 98 24 is_stmt 0
 373 0182 8247     		lw	a5,0(sp)
 374 0184 13871700 		addi	a4,a5,1
 375 0188 3AC0     		sw	a4,0(sp)
  98:C:/Users/stapi/OneDrive/Desktop/GD32VW553/V1_MQTT_OK/GD32VW55X_Wifi_BLE_SDK/GD32VW55x_RELEASE_V1.0.2/MSDK/cloud/alicloud/src/services/awss\awss_enrollee.c ****     enrollee_frame[len ++] = 0xE0;
 376              		.loc 2 98 28
 377 018a A297     		add	a5,s0,a5
 378 018c 130760F9 		li	a4,-106
 379 0190 2380E700 		sb	a4,0(a5)
  99:C:/Users/stapi/OneDrive/Desktop/GD32VW553/V1_MQTT_OK/GD32VW55X_Wifi_BLE_SDK/GD32VW55x_RELEASE_V1.0.2/MSDK/cloud/alicloud/src/services/awss\awss_enrollee.c ****     enrollee_frame[len ++] = WLAN_OUI_TYPE_ENROLLEE;/* OUI type */
 380              		.loc 2 99 5 is_stmt 1
  99:C:/Users/stapi/OneDrive/Desktop/GD32VW553/V1_MQTT_OK/GD32VW55X_Wifi_BLE_SDK/GD32VW55x_RELEASE_V1.0.2/MSDK/cloud/alicloud/src/services/awss\awss_enrollee.c ****     enrollee_frame[len ++] = WLAN_OUI_TYPE_ENROLLEE;/* OUI type */
 381              		.loc 2 99 24 is_stmt 0
 382 0194 8247     		lw	a5,0(sp)
 383 0196 13871700 		addi	a4,a5,1
 384 019a 3AC0     		sw	a4,0(sp)
  99:C:/Users/stapi/OneDrive/Desktop/GD32VW553/V1_MQTT_OK/GD32VW55X_Wifi_BLE_SDK/GD32VW55x_RELEASE_V1.0.2/MSDK/cloud/alicloud/src/services/awss\awss_enrollee.c ****     enrollee_frame[len ++] = WLAN_OUI_TYPE_ENROLLEE;/* OUI type */
 385              		.loc 2 99 28
 386 019c A297     		add	a5,s0,a5
 387 019e 0157     		li	a4,-32
 388 01a0 2380E700 		sb	a4,0(a5)
 100:C:/Users/stapi/OneDrive/Desktop/GD32VW553/V1_MQTT_OK/GD32VW55X_Wifi_BLE_SDK/GD32VW55x_RELEASE_V1.0.2/MSDK/cloud/alicloud/src/services/awss\awss_enrollee.c ****     enrollee_frame[len ++] = DEVICE_TYPE_VERSION_0;/* version & dev type */
 389              		.loc 2 100 5 is_stmt 1
 100:C:/Users/stapi/OneDrive/Desktop/GD32VW553/V1_MQTT_OK/GD32VW55X_Wifi_BLE_SDK/GD32VW55x_RELEASE_V1.0.2/MSDK/cloud/alicloud/src/services/awss\awss_enrollee.c ****     enrollee_frame[len ++] = DEVICE_TYPE_VERSION_0;/* version & dev type */
 390              		.loc 2 100 24 is_stmt 0
 391 01a4 8247     		lw	a5,0(sp)
 392 01a6 13871700 		addi	a4,a5,1
 393 01aa 3AC0     		sw	a4,0(sp)
 100:C:/Users/stapi/OneDrive/Desktop/GD32VW553/V1_MQTT_OK/GD32VW55X_Wifi_BLE_SDK/GD32VW55x_RELEASE_V1.0.2/MSDK/cloud/alicloud/src/services/awss\awss_enrollee.c ****     enrollee_frame[len ++] = DEVICE_TYPE_VERSION_0;/* version & dev type */
 394              		.loc 2 100 28
 395 01ac A297     		add	a5,s0,a5
 396 01ae 1307A0FA 		li	a4,-86
 397 01b2 2380E700 		sb	a4,0(a5)
 101:C:/Users/stapi/OneDrive/Desktop/GD32VW553/V1_MQTT_OK/GD32VW55X_Wifi_BLE_SDK/GD32VW55x_RELEASE_V1.0.2/MSDK/cloud/alicloud/src/services/awss\awss_enrollee.c **** 
 398              		.loc 2 101 5 is_stmt 1
 101:C:/Users/stapi/OneDrive/Desktop/GD32VW553/V1_MQTT_OK/GD32VW55X_Wifi_BLE_SDK/GD32VW55x_RELEASE_V1.0.2/MSDK/cloud/alicloud/src/services/awss\awss_enrollee.c **** 
 399              		.loc 2 101 24 is_stmt 0
 400 01b6 8247     		lw	a5,0(sp)
 401 01b8 13871700 		addi	a4,a5,1
 402 01bc 3AC0     		sw	a4,0(sp)
 101:C:/Users/stapi/OneDrive/Desktop/GD32VW553/V1_MQTT_OK/GD32VW55X_Wifi_BLE_SDK/GD32VW55x_RELEASE_V1.0.2/MSDK/cloud/alicloud/src/services/awss\awss_enrollee.c **** 
 403              		.loc 2 101 28
 404 01be A297     		add	a5,s0,a5
 405 01c0 0547     		li	a4,1
 406 01c2 2380E700 		sb	a4,0(a5)
 103:C:/Users/stapi/OneDrive/Desktop/GD32VW553/V1_MQTT_OK/GD32VW55X_Wifi_BLE_SDK/GD32VW55x_RELEASE_V1.0.2/MSDK/cloud/alicloud/src/services/awss\awss_enrollee.c ****     memcpy(&enrollee_frame[len], dev_name, dev_name_len);
 407              		.loc 2 103 5 is_stmt 1
 103:C:/Users/stapi/OneDrive/Desktop/GD32VW553/V1_MQTT_OK/GD32VW55X_Wifi_BLE_SDK/GD32VW55x_RELEASE_V1.0.2/MSDK/cloud/alicloud/src/services/awss\awss_enrollee.c ****     memcpy(&enrollee_frame[len], dev_name, dev_name_len);
 408              		.loc 2 103 24 is_stmt 0
 409 01c6 8247     		lw	a5,0(sp)
 410 01c8 13871700 		addi	a4,a5,1
 411 01cc 3AC0     		sw	a4,0(sp)
 103:C:/Users/stapi/OneDrive/Desktop/GD32VW553/V1_MQTT_OK/GD32VW55X_Wifi_BLE_SDK/GD32VW55x_RELEASE_V1.0.2/MSDK/cloud/alicloud/src/services/awss\awss_enrollee.c ****     memcpy(&enrollee_frame[len], dev_name, dev_name_len);
 412              		.loc 2 103 28
 413 01ce A297     		add	a5,s0,a5
 414 01d0 23802701 		sb	s2,0(a5)
 104:C:/Users/stapi/OneDrive/Desktop/GD32VW553/V1_MQTT_OK/GD32VW55X_Wifi_BLE_SDK/GD32VW55x_RELEASE_V1.0.2/MSDK/cloud/alicloud/src/services/awss\awss_enrollee.c ****     len += dev_name_len;
 415              		.loc 2 104 5 is_stmt 1
 104:C:/Users/stapi/OneDrive/Desktop/GD32VW553/V1_MQTT_OK/GD32VW55X_Wifi_BLE_SDK/GD32VW55x_RELEASE_V1.0.2/MSDK/cloud/alicloud/src/services/awss\awss_enrollee.c ****     len += dev_name_len;
 416              		.loc 2 104 12 is_stmt 0
 417 01d4 0245     		lw	a0,0(sp)
 104:C:/Users/stapi/OneDrive/Desktop/GD32VW553/V1_MQTT_OK/GD32VW55X_Wifi_BLE_SDK/GD32VW55x_RELEASE_V1.0.2/MSDK/cloud/alicloud/src/services/awss\awss_enrollee.c ****     len += dev_name_len;
 418              		.loc 2 104 5
 419 01d6 2295     		add	a0,s0,a0
 420 01d8 97000000 		call	memcpy
 420      E7800000 
 421              	.LVL33:
 105:C:/Users/stapi/OneDrive/Desktop/GD32VW553/V1_MQTT_OK/GD32VW55X_Wifi_BLE_SDK/GD32VW55x_RELEASE_V1.0.2/MSDK/cloud/alicloud/src/services/awss\awss_enrollee.c **** 
 422              		.loc 2 105 5 is_stmt 1
 105:C:/Users/stapi/OneDrive/Desktop/GD32VW553/V1_MQTT_OK/GD32VW55X_Wifi_BLE_SDK/GD32VW55x_RELEASE_V1.0.2/MSDK/cloud/alicloud/src/services/awss\awss_enrollee.c **** 
 423              		.loc 2 105 9 is_stmt 0
 424 01e0 0245     		lw	a0,0(sp)
 111:C:/Users/stapi/OneDrive/Desktop/GD32VW553/V1_MQTT_OK/GD32VW55X_Wifi_BLE_SDK/GD32VW55x_RELEASE_V1.0.2/MSDK/cloud/alicloud/src/services/awss\awss_enrollee.c ****     len += pk_len;
 425              		.loc 2 111 5
 426 01e2 2686     		mv	a2,s1
 427 01e4 DA85     		mv	a1,s6
 105:C:/Users/stapi/OneDrive/Desktop/GD32VW553/V1_MQTT_OK/GD32VW55X_Wifi_BLE_SDK/GD32VW55x_RELEASE_V1.0.2/MSDK/cloud/alicloud/src/services/awss\awss_enrollee.c **** 
 428              		.loc 2 105 9
 429 01e6 2A99     		add	s2,s2,a0
 107:C:/Users/stapi/OneDrive/Desktop/GD32VW553/V1_MQTT_OK/GD32VW55X_Wifi_BLE_SDK/GD32VW55x_RELEASE_V1.0.2/MSDK/cloud/alicloud/src/services/awss\awss_enrollee.c **** 
 430              		.loc 2 107 5 is_stmt 1
 107:C:/Users/stapi/OneDrive/Desktop/GD32VW553/V1_MQTT_OK/GD32VW55X_Wifi_BLE_SDK/GD32VW55x_RELEASE_V1.0.2/MSDK/cloud/alicloud/src/services/awss\awss_enrollee.c **** 
 431              		.loc 2 107 24 is_stmt 0
 432 01e8 93071900 		addi	a5,s2,1
 433 01ec 3EC0     		sw	a5,0(sp)
 107:C:/Users/stapi/OneDrive/Desktop/GD32VW553/V1_MQTT_OK/GD32VW55X_Wifi_BLE_SDK/GD32VW55x_RELEASE_V1.0.2/MSDK/cloud/alicloud/src/services/awss\awss_enrollee.c **** 
 434              		.loc 2 107 28
 435 01ee 2299     		add	s2,s0,s2
 436 01f0 23000900 		sb	zero,0(s2)
 109:C:/Users/stapi/OneDrive/Desktop/GD32VW553/V1_MQTT_OK/GD32VW55X_Wifi_BLE_SDK/GD32VW55x_RELEASE_V1.0.2/MSDK/cloud/alicloud/src/services/awss\awss_enrollee.c ****     enrollee_frame[len ++] = pk_len;
 437              		.loc 2 109 5 is_stmt 1
 109:C:/Users/stapi/OneDrive/Desktop/GD32VW553/V1_MQTT_OK/GD32VW55X_Wifi_BLE_SDK/GD32VW55x_RELEASE_V1.0.2/MSDK/cloud/alicloud/src/services/awss\awss_enrollee.c ****     enrollee_frame[len ++] = pk_len;
 438              		.loc 2 109 21 is_stmt 0
 439 01f4 8247     		lw	a5,0(sp)
 110:C:/Users/stapi/OneDrive/Desktop/GD32VW553/V1_MQTT_OK/GD32VW55X_Wifi_BLE_SDK/GD32VW55x_RELEASE_V1.0.2/MSDK/cloud/alicloud/src/services/awss\awss_enrollee.c ****     memcpy(&enrollee_frame[len], pk, pk_len);
 440              		.loc 2 110 5 is_stmt 1
 110:C:/Users/stapi/OneDrive/Desktop/GD32VW553/V1_MQTT_OK/GD32VW55X_Wifi_BLE_SDK/GD32VW55x_RELEASE_V1.0.2/MSDK/cloud/alicloud/src/services/awss\awss_enrollee.c ****     memcpy(&enrollee_frame[len], pk, pk_len);
 441              		.loc 2 110 24 is_stmt 0
 442 01f6 13871700 		addi	a4,a5,1
 443 01fa 3AC0     		sw	a4,0(sp)
 110:C:/Users/stapi/OneDrive/Desktop/GD32VW553/V1_MQTT_OK/GD32VW55X_Wifi_BLE_SDK/GD32VW55x_RELEASE_V1.0.2/MSDK/cloud/alicloud/src/services/awss\awss_enrollee.c ****     memcpy(&enrollee_frame[len], pk, pk_len);
 444              		.loc 2 110 28
 445 01fc A297     		add	a5,s0,a5
 446 01fe 23809700 		sb	s1,0(a5)
 111:C:/Users/stapi/OneDrive/Desktop/GD32VW553/V1_MQTT_OK/GD32VW55X_Wifi_BLE_SDK/GD32VW55x_RELEASE_V1.0.2/MSDK/cloud/alicloud/src/services/awss\awss_enrollee.c ****     len += pk_len;
 447              		.loc 2 111 5 is_stmt 1
 111:C:/Users/stapi/OneDrive/Desktop/GD32VW553/V1_MQTT_OK/GD32VW55X_Wifi_BLE_SDK/GD32VW55x_RELEASE_V1.0.2/MSDK/cloud/alicloud/src/services/awss\awss_enrollee.c ****     len += pk_len;
 448              		.loc 2 111 12 is_stmt 0
 449 0202 0245     		lw	a0,0(sp)
 111:C:/Users/stapi/OneDrive/Desktop/GD32VW553/V1_MQTT_OK/GD32VW55X_Wifi_BLE_SDK/GD32VW55x_RELEASE_V1.0.2/MSDK/cloud/alicloud/src/services/awss\awss_enrollee.c ****     len += pk_len;
 450              		.loc 2 111 5
 451 0204 2295     		add	a0,s0,a0
 452 0206 97000000 		call	memcpy
 452      E7800000 
 453              	.LVL34:
 112:C:/Users/stapi/OneDrive/Desktop/GD32VW553/V1_MQTT_OK/GD32VW55X_Wifi_BLE_SDK/GD32VW55x_RELEASE_V1.0.2/MSDK/cloud/alicloud/src/services/awss\awss_enrollee.c **** 
 454              		.loc 2 112 5 is_stmt 1
 112:C:/Users/stapi/OneDrive/Desktop/GD32VW553/V1_MQTT_OK/GD32VW55X_Wifi_BLE_SDK/GD32VW55x_RELEASE_V1.0.2/MSDK/cloud/alicloud/src/services/awss\awss_enrollee.c **** 
 455              		.loc 2 112 9 is_stmt 0
 456 020e 0245     		lw	a0,0(sp)
 115:C:/Users/stapi/OneDrive/Desktop/GD32VW553/V1_MQTT_OK/GD32VW55X_Wifi_BLE_SDK/GD32VW55x_RELEASE_V1.0.2/MSDK/cloud/alicloud/src/services/awss\awss_enrollee.c ****     len += RANDOM_MAX_LEN;
 457              		.loc 2 115 5
 458 0210 B7050000 		lui	a1,%hi(g_aes_random)
 459 0214 4146     		li	a2,16
 112:C:/Users/stapi/OneDrive/Desktop/GD32VW553/V1_MQTT_OK/GD32VW55X_Wifi_BLE_SDK/GD32VW55x_RELEASE_V1.0.2/MSDK/cloud/alicloud/src/services/awss\awss_enrollee.c **** 
 460              		.loc 2 112 9
 461 0216 AA94     		add	s1,s1,a0
 462              	.LVL35:
 114:C:/Users/stapi/OneDrive/Desktop/GD32VW553/V1_MQTT_OK/GD32VW55X_Wifi_BLE_SDK/GD32VW55x_RELEASE_V1.0.2/MSDK/cloud/alicloud/src/services/awss\awss_enrollee.c ****     memcpy(&enrollee_frame[len], g_aes_random, RANDOM_MAX_LEN);
 463              		.loc 2 114 5 is_stmt 1
 114:C:/Users/stapi/OneDrive/Desktop/GD32VW553/V1_MQTT_OK/GD32VW55X_Wifi_BLE_SDK/GD32VW55x_RELEASE_V1.0.2/MSDK/cloud/alicloud/src/services/awss\awss_enrollee.c ****     memcpy(&enrollee_frame[len], g_aes_random, RANDOM_MAX_LEN);
 464              		.loc 2 114 24 is_stmt 0
 465 0218 93871400 		addi	a5,s1,1
 466 021c 3EC0     		sw	a5,0(sp)
 114:C:/Users/stapi/OneDrive/Desktop/GD32VW553/V1_MQTT_OK/GD32VW55X_Wifi_BLE_SDK/GD32VW55x_RELEASE_V1.0.2/MSDK/cloud/alicloud/src/services/awss\awss_enrollee.c ****     memcpy(&enrollee_frame[len], g_aes_random, RANDOM_MAX_LEN);
 467              		.loc 2 114 28
 468 021e A294     		add	s1,s0,s1
 469 0220 C147     		li	a5,16
 470 0222 2380F400 		sb	a5,0(s1)
 115:C:/Users/stapi/OneDrive/Desktop/GD32VW553/V1_MQTT_OK/GD32VW55X_Wifi_BLE_SDK/GD32VW55x_RELEASE_V1.0.2/MSDK/cloud/alicloud/src/services/awss\awss_enrollee.c ****     len += RANDOM_MAX_LEN;
 471              		.loc 2 115 5 is_stmt 1
 472 0226 0245     		lw	a0,0(sp)
 473 0228 93850500 		addi	a1,a1,%lo(g_aes_random)
 474 022c 2295     		add	a0,s0,a0
 475 022e 97000000 		call	memcpy
 475      E7800000 
 476              	.LVL36:
 116:C:/Users/stapi/OneDrive/Desktop/GD32VW553/V1_MQTT_OK/GD32VW55X_Wifi_BLE_SDK/GD32VW55x_RELEASE_V1.0.2/MSDK/cloud/alicloud/src/services/awss\awss_enrollee.c **** 
 477              		.loc 2 116 5
 116:C:/Users/stapi/OneDrive/Desktop/GD32VW553/V1_MQTT_OK/GD32VW55X_Wifi_BLE_SDK/GD32VW55x_RELEASE_V1.0.2/MSDK/cloud/alicloud/src/services/awss\awss_enrollee.c **** 
 478              		.loc 2 116 9 is_stmt 0
 479 0236 8247     		lw	a5,0(sp)
 480 0238 C107     		addi	a5,a5,16
 481 023a 3EC0     		sw	a5,0(sp)
 118:C:/Users/stapi/OneDrive/Desktop/GD32VW553/V1_MQTT_OK/GD32VW55X_Wifi_BLE_SDK/GD32VW55x_RELEASE_V1.0.2/MSDK/cloud/alicloud/src/services/awss\awss_enrollee.c ****     enrollee_frame[len ++] = 0;  // signature method, 0: hmacsha1, 1: hmacsha256
 482              		.loc 2 118 5 is_stmt 1
 483              	.LBB56:
 484              	.LBB57:
 536:..\..\..\..\cloud\alicloud\src\services\dev_bind\os/os.h **** }
 485              		.loc 1 536 5
 536:..\..\..\..\cloud\alicloud\src\services\dev_bind\os/os.h **** }
 486              		.loc 1 536 12 is_stmt 0
 487 023c 97000000 		call	HAL_Awss_Get_Conn_Encrypt_Type
 487      E7800000 
 488              	.LVL37:
 489              	.LBE57:
 490              	.LBE56:
 118:C:/Users/stapi/OneDrive/Desktop/GD32VW553/V1_MQTT_OK/GD32VW55X_Wifi_BLE_SDK/GD32VW55x_RELEASE_V1.0.2/MSDK/cloud/alicloud/src/services/awss\awss_enrollee.c ****     enrollee_frame[len ++] = 0;  // signature method, 0: hmacsha1, 1: hmacsha256
 491              		.loc 2 118 24
 492 0244 8247     		lw	a5,0(sp)
 118:C:/Users/stapi/OneDrive/Desktop/GD32VW553/V1_MQTT_OK/GD32VW55X_Wifi_BLE_SDK/GD32VW55x_RELEASE_V1.0.2/MSDK/cloud/alicloud/src/services/awss\awss_enrollee.c ****     enrollee_frame[len ++] = 0;  // signature method, 0: hmacsha1, 1: hmacsha256
 493              		.loc 2 118 19
 494 0246 03240A00 		lw	s0,0(s4)
 122:C:/Users/stapi/OneDrive/Desktop/GD32VW553/V1_MQTT_OK/GD32VW55X_Wifi_BLE_SDK/GD32VW55x_RELEASE_V1.0.2/MSDK/cloud/alicloud/src/services/awss\awss_enrollee.c ****     len += ENROLLEE_SIGN_SIZE;
 495              		.loc 2 122 5
 496 024a 5146     		li	a2,20
 118:C:/Users/stapi/OneDrive/Desktop/GD32VW553/V1_MQTT_OK/GD32VW55X_Wifi_BLE_SDK/GD32VW55x_RELEASE_V1.0.2/MSDK/cloud/alicloud/src/services/awss\awss_enrollee.c ****     enrollee_frame[len ++] = 0;  // signature method, 0: hmacsha1, 1: hmacsha256
 497              		.loc 2 118 24
 498 024c 13871700 		addi	a4,a5,1
 499 0250 3AC0     		sw	a4,0(sp)
 118:C:/Users/stapi/OneDrive/Desktop/GD32VW553/V1_MQTT_OK/GD32VW55X_Wifi_BLE_SDK/GD32VW55x_RELEASE_V1.0.2/MSDK/cloud/alicloud/src/services/awss\awss_enrollee.c ****     enrollee_frame[len ++] = 0;  // signature method, 0: hmacsha1, 1: hmacsha256
 500              		.loc 2 118 28
 501 0252 A297     		add	a5,s0,a5
 502 0254 2380A700 		sb	a0,0(a5)
 119:C:/Users/stapi/OneDrive/Desktop/GD32VW553/V1_MQTT_OK/GD32VW55X_Wifi_BLE_SDK/GD32VW55x_RELEASE_V1.0.2/MSDK/cloud/alicloud/src/services/awss\awss_enrollee.c ****     enrollee_frame[len ++] = ENROLLEE_SIGN_SIZE;  // signature length
 503              		.loc 2 119 5 is_stmt 1
 119:C:/Users/stapi/OneDrive/Desktop/GD32VW553/V1_MQTT_OK/GD32VW55X_Wifi_BLE_SDK/GD32VW55x_RELEASE_V1.0.2/MSDK/cloud/alicloud/src/services/awss\awss_enrollee.c ****     enrollee_frame[len ++] = ENROLLEE_SIGN_SIZE;  // signature length
 504              		.loc 2 119 24 is_stmt 0
 505 0258 8247     		lw	a5,0(sp)
 122:C:/Users/stapi/OneDrive/Desktop/GD32VW553/V1_MQTT_OK/GD32VW55X_Wifi_BLE_SDK/GD32VW55x_RELEASE_V1.0.2/MSDK/cloud/alicloud/src/services/awss\awss_enrollee.c ****     len += ENROLLEE_SIGN_SIZE;
 506              		.loc 2 122 5
 507 025a 4C00     		addi	a1,sp,4
 119:C:/Users/stapi/OneDrive/Desktop/GD32VW553/V1_MQTT_OK/GD32VW55X_Wifi_BLE_SDK/GD32VW55x_RELEASE_V1.0.2/MSDK/cloud/alicloud/src/services/awss\awss_enrollee.c ****     enrollee_frame[len ++] = ENROLLEE_SIGN_SIZE;  // signature length
 508              		.loc 2 119 24
 509 025c 13871700 		addi	a4,a5,1
 510 0260 3AC0     		sw	a4,0(sp)
 119:C:/Users/stapi/OneDrive/Desktop/GD32VW553/V1_MQTT_OK/GD32VW55X_Wifi_BLE_SDK/GD32VW55x_RELEASE_V1.0.2/MSDK/cloud/alicloud/src/services/awss\awss_enrollee.c ****     enrollee_frame[len ++] = ENROLLEE_SIGN_SIZE;  // signature length
 511              		.loc 2 119 28
 512 0262 A297     		add	a5,s0,a5
 513 0264 23800700 		sb	zero,0(a5)
 120:C:/Users/stapi/OneDrive/Desktop/GD32VW553/V1_MQTT_OK/GD32VW55X_Wifi_BLE_SDK/GD32VW55x_RELEASE_V1.0.2/MSDK/cloud/alicloud/src/services/awss\awss_enrollee.c ****     g_dev_sign = &enrollee_frame[len];
 514              		.loc 2 120 5 is_stmt 1
 120:C:/Users/stapi/OneDrive/Desktop/GD32VW553/V1_MQTT_OK/GD32VW55X_Wifi_BLE_SDK/GD32VW55x_RELEASE_V1.0.2/MSDK/cloud/alicloud/src/services/awss\awss_enrollee.c ****     g_dev_sign = &enrollee_frame[len];
 515              		.loc 2 120 24 is_stmt 0
 516 0268 8247     		lw	a5,0(sp)
 517 026a 13871700 		addi	a4,a5,1
 518 026e 3AC0     		sw	a4,0(sp)
 120:C:/Users/stapi/OneDrive/Desktop/GD32VW553/V1_MQTT_OK/GD32VW55X_Wifi_BLE_SDK/GD32VW55x_RELEASE_V1.0.2/MSDK/cloud/alicloud/src/services/awss\awss_enrollee.c ****     g_dev_sign = &enrollee_frame[len];
 519              		.loc 2 120 28
 520 0270 A297     		add	a5,s0,a5
 521 0272 5147     		li	a4,20
 522 0274 2380E700 		sb	a4,0(a5)
 121:C:/Users/stapi/OneDrive/Desktop/GD32VW553/V1_MQTT_OK/GD32VW55X_Wifi_BLE_SDK/GD32VW55x_RELEASE_V1.0.2/MSDK/cloud/alicloud/src/services/awss\awss_enrollee.c ****     memcpy(&enrollee_frame[len], sign, ENROLLEE_SIGN_SIZE);
 523              		.loc 2 121 5 is_stmt 1
 121:C:/Users/stapi/OneDrive/Desktop/GD32VW553/V1_MQTT_OK/GD32VW55X_Wifi_BLE_SDK/GD32VW55x_RELEASE_V1.0.2/MSDK/cloud/alicloud/src/services/awss\awss_enrollee.c ****     memcpy(&enrollee_frame[len], sign, ENROLLEE_SIGN_SIZE);
 524              		.loc 2 121 18 is_stmt 0
 525 0278 0245     		lw	a0,0(sp)
 121:C:/Users/stapi/OneDrive/Desktop/GD32VW553/V1_MQTT_OK/GD32VW55X_Wifi_BLE_SDK/GD32VW55x_RELEASE_V1.0.2/MSDK/cloud/alicloud/src/services/awss\awss_enrollee.c ****     memcpy(&enrollee_frame[len], sign, ENROLLEE_SIGN_SIZE);
 526              		.loc 2 121 16
 527 027a B7070000 		lui	a5,%hi(.LANCHOR3)
 121:C:/Users/stapi/OneDrive/Desktop/GD32VW553/V1_MQTT_OK/GD32VW55X_Wifi_BLE_SDK/GD32VW55x_RELEASE_V1.0.2/MSDK/cloud/alicloud/src/services/awss\awss_enrollee.c ****     memcpy(&enrollee_frame[len], sign, ENROLLEE_SIGN_SIZE);
 528              		.loc 2 121 18
 529 027e 2295     		add	a0,s0,a0
 121:C:/Users/stapi/OneDrive/Desktop/GD32VW553/V1_MQTT_OK/GD32VW55X_Wifi_BLE_SDK/GD32VW55x_RELEASE_V1.0.2/MSDK/cloud/alicloud/src/services/awss\awss_enrollee.c ****     memcpy(&enrollee_frame[len], sign, ENROLLEE_SIGN_SIZE);
 530              		.loc 2 121 16
 531 0280 23A0A700 		sw	a0,%lo(.LANCHOR3)(a5)
 122:C:/Users/stapi/OneDrive/Desktop/GD32VW553/V1_MQTT_OK/GD32VW55X_Wifi_BLE_SDK/GD32VW55x_RELEASE_V1.0.2/MSDK/cloud/alicloud/src/services/awss\awss_enrollee.c ****     len += ENROLLEE_SIGN_SIZE;
 532              		.loc 2 122 5 is_stmt 1
 533 0284 97000000 		call	memcpy
 533      E7800000 
 534              	.LVL38:
 123:C:/Users/stapi/OneDrive/Desktop/GD32VW553/V1_MQTT_OK/GD32VW55X_Wifi_BLE_SDK/GD32VW55x_RELEASE_V1.0.2/MSDK/cloud/alicloud/src/services/awss\awss_enrollee.c **** 
 535              		.loc 2 123 5
 123:C:/Users/stapi/OneDrive/Desktop/GD32VW553/V1_MQTT_OK/GD32VW55X_Wifi_BLE_SDK/GD32VW55x_RELEASE_V1.0.2/MSDK/cloud/alicloud/src/services/awss\awss_enrollee.c **** 
 536              		.loc 2 123 9 is_stmt 0
 537 028c 0245     		lw	a0,0(sp)
 125:C:/Users/stapi/OneDrive/Desktop/GD32VW553/V1_MQTT_OK/GD32VW55X_Wifi_BLE_SDK/GD32VW55x_RELEASE_V1.0.2/MSDK/cloud/alicloud/src/services/awss\awss_enrollee.c ****            &probe_req_frame[sizeof(probe_req_frame) - MGMT_FCS_SIZE], MGMT_FCS_SIZE);
 538              		.loc 2 125 5
 539 028e 1146     		li	a2,4
 540 0290 9385AB02 		addi	a1,s7,42
 123:C:/Users/stapi/OneDrive/Desktop/GD32VW553/V1_MQTT_OK/GD32VW55X_Wifi_BLE_SDK/GD32VW55x_RELEASE_V1.0.2/MSDK/cloud/alicloud/src/services/awss\awss_enrollee.c **** 
 541              		.loc 2 123 9
 542 0294 5105     		addi	a0,a0,20
 543 0296 2AC0     		sw	a0,0(sp)
 125:C:/Users/stapi/OneDrive/Desktop/GD32VW553/V1_MQTT_OK/GD32VW55X_Wifi_BLE_SDK/GD32VW55x_RELEASE_V1.0.2/MSDK/cloud/alicloud/src/services/awss\awss_enrollee.c ****            &probe_req_frame[sizeof(probe_req_frame) - MGMT_FCS_SIZE], MGMT_FCS_SIZE);
 544              		.loc 2 125 5 is_stmt 1
 545 0298 2295     		add	a0,s0,a0
 546 029a 97000000 		call	memcpy
 546      E7800000 
 547              	.LVL39:
 127:C:/Users/stapi/OneDrive/Desktop/GD32VW553/V1_MQTT_OK/GD32VW55X_Wifi_BLE_SDK/GD32VW55x_RELEASE_V1.0.2/MSDK/cloud/alicloud/src/services/awss\awss_enrollee.c **** 
 548              		.loc 2 127 5
 127:C:/Users/stapi/OneDrive/Desktop/GD32VW553/V1_MQTT_OK/GD32VW55X_Wifi_BLE_SDK/GD32VW55x_RELEASE_V1.0.2/MSDK/cloud/alicloud/src/services/awss\awss_enrollee.c **** 
 549              		.loc 2 127 9 is_stmt 0
 550 02a2 8247     		lw	a5,0(sp)
 551              	.LBB58:
 552              	.LBB59:
 394:..\..\..\..\cloud\alicloud\src\services\dev_bind\os/os.h **** }
 553              		.loc 1 394 5
 554 02a4 4E85     		mv	a0,s3
 555              	.LBE59:
 556              	.LBE58:
 127:C:/Users/stapi/OneDrive/Desktop/GD32VW553/V1_MQTT_OK/GD32VW55X_Wifi_BLE_SDK/GD32VW55x_RELEASE_V1.0.2/MSDK/cloud/alicloud/src/services/awss\awss_enrollee.c **** 
 557              		.loc 2 127 9
 558 02a6 9107     		addi	a5,a5,4
 559 02a8 3EC0     		sw	a5,0(sp)
 129:C:/Users/stapi/OneDrive/Desktop/GD32VW553/V1_MQTT_OK/GD32VW55X_Wifi_BLE_SDK/GD32VW55x_RELEASE_V1.0.2/MSDK/cloud/alicloud/src/services/awss\awss_enrollee.c ****     os_free(pk);
 560              		.loc 2 129 5 is_stmt 1
 561              	.LVL40:
 562              	.LBB61:
 563              	.LBB60:
 394:..\..\..\..\cloud\alicloud\src\services\dev_bind\os/os.h **** }
 564              		.loc 1 394 5
 565 02aa 97000000 		call	HAL_Free
 565      E7800000 
 566              	.LVL41:
 567              	.LBE60:
 568              	.LBE61:
 130:C:/Users/stapi/OneDrive/Desktop/GD32VW553/V1_MQTT_OK/GD32VW55X_Wifi_BLE_SDK/GD32VW55x_RELEASE_V1.0.2/MSDK/cloud/alicloud/src/services/awss\awss_enrollee.c **** 
 569              		.loc 2 130 5
 570              	.LBB62:
 571              	.LBB63:
 394:..\..\..\..\cloud\alicloud\src\services\dev_bind\os/os.h **** }
 572              		.loc 1 394 5
 573 02b2 5A85     		mv	a0,s6
 574 02b4 97000000 		call	HAL_Free
 574      E7800000 
 575              	.LVL42:
 576              	.LBE63:
 577              	.LBE62:
 133:C:/Users/stapi/OneDrive/Desktop/GD32VW553/V1_MQTT_OK/GD32VW55X_Wifi_BLE_SDK/GD32VW55x_RELEASE_V1.0.2/MSDK/cloud/alicloud/src/services/awss\awss_enrollee.c ****         awss_err("enr_frame init overflow(%d)", len);
 578              		.loc 2 133 5
 133:C:/Users/stapi/OneDrive/Desktop/GD32VW553/V1_MQTT_OK/GD32VW55X_Wifi_BLE_SDK/GD32VW55x_RELEASE_V1.0.2/MSDK/cloud/alicloud/src/services/awss\awss_enrollee.c ****         awss_err("enr_frame init overflow(%d)", len);
 579              		.loc 2 133 13 is_stmt 0
 580 02bc 03D70A00 		lhu	a4,0(s5)
 133:C:/Users/stapi/OneDrive/Desktop/GD32VW553/V1_MQTT_OK/GD32VW55X_Wifi_BLE_SDK/GD32VW55x_RELEASE_V1.0.2/MSDK/cloud/alicloud/src/services/awss\awss_enrollee.c ****         awss_err("enr_frame init overflow(%d)", len);
 581              		.loc 2 133 8
 582 02c0 8247     		lw	a5,0(sp)
 583 02c2 635AF702 		bge	a4,a5,.L12
 134:C:/Users/stapi/OneDrive/Desktop/GD32VW553/V1_MQTT_OK/GD32VW55X_Wifi_BLE_SDK/GD32VW55x_RELEASE_V1.0.2/MSDK/cloud/alicloud/src/services/awss\awss_enrollee.c ****         return;
 584              		.loc 2 134 9 is_stmt 1
 134:C:/Users/stapi/OneDrive/Desktop/GD32VW553/V1_MQTT_OK/GD32VW55X_Wifi_BLE_SDK/GD32VW55x_RELEASE_V1.0.2/MSDK/cloud/alicloud/src/services/awss\awss_enrollee.c ****         return;
 585              		.loc 2 134 9
 586 02c6 37050000 		lui	a0,%hi(.LC3)
 587 02ca 13050500 		addi	a0,a0,%lo(.LC3)
 588 02ce 97000000 		call	HAL_Printf
 588      E7800000 
 589              	.LVL43:
 134:C:/Users/stapi/OneDrive/Desktop/GD32VW553/V1_MQTT_OK/GD32VW55X_Wifi_BLE_SDK/GD32VW55x_RELEASE_V1.0.2/MSDK/cloud/alicloud/src/services/awss\awss_enrollee.c ****         return;
 590              		.loc 2 134 9
 591 02d6 8245     		lw	a1,0(sp)
 592 02d8 37050000 		lui	a0,%hi(.LC4)
 593 02dc 13050500 		addi	a0,a0,%lo(.LC4)
 594 02e0 97000000 		call	HAL_Printf
 594      E7800000 
 595              	.LVL44:
 596 02e8 B5B3     		j	.L15
 597              	.LVL45:
 598              	.L10:
  80:C:/Users/stapi/OneDrive/Desktop/GD32VW553/V1_MQTT_OK/GD32VW55X_Wifi_BLE_SDK/GD32VW55x_RELEASE_V1.0.2/MSDK/cloud/alicloud/src/services/awss\awss_enrollee.c ****     }
 599              		.loc 2 80 9
 600              	.LBB64:
 601              	.LBB65:
1037:..\..\..\..\cloud\alicloud\src\services\dev_bind\os/os.h **** }
 602              		.loc 1 1037 5
1037:..\..\..\..\cloud\alicloud\src\services\dev_bind\os/os.h **** }
 603              		.loc 1 1037 12 is_stmt 0
 604 02ea 6808     		addi	a0,sp,28
 605              	.LVL46:
 606 02ec 97000000 		call	HAL_GetDeviceSecret
 606      E7800000 
 607              	.LVL47:
 608 02f4 DDBB     		j	.L11
 609              	.LVL48:
 610              	.L12:
 611              	.LBE65:
 612              	.LBE64:
 139:C:/Users/stapi/OneDrive/Desktop/GD32VW553/V1_MQTT_OK/GD32VW55X_Wifi_BLE_SDK/GD32VW55x_RELEASE_V1.0.2/MSDK/cloud/alicloud/src/services/awss\awss_enrollee.c **** 
 613              		.loc 2 139 5 is_stmt 1
 614 02f6 03250A00 		lw	a0,0(s4)
 615 02fa 2905     		addi	a0,a0,10
 616 02fc 97000000 		call	os_wifi_get_mac
 616      E7800000 
 617              	.LVL49:
 141:C:/Users/stapi/OneDrive/Desktop/GD32VW553/V1_MQTT_OK/GD32VW55X_Wifi_BLE_SDK/GD32VW55x_RELEASE_V1.0.2/MSDK/cloud/alicloud/src/services/awss\awss_enrollee.c **** #if ZERO_AWSS_VERBOSE_DBG
 618              		.loc 2 141 5
 619 0304 8247     		lw	a5,0(sp)
 620 0306 37070000 		lui	a4,%hi(.LC5)
 621 030a B7050000 		lui	a1,%hi(.LANCHOR4)
 622 030e 37050000 		lui	a0,%hi(.LC6)
 623 0312 13070700 		addi	a4,a4,%lo(.LC5)
 624 0316 9546     		li	a3,5
 625 0318 1306D008 		li	a2,141
 626 031c 93850500 		addi	a1,a1,%lo(.LANCHOR4)
 627 0320 13050500 		addi	a0,a0,%lo(.LC6)
 628 0324 97000000 		call	LITE_syslog
 628      E7800000 
 629              	.LVL50:
 630 032c 25BB     		j	.L7
 631              		.cfi_endproc
 632              	.LFE49:
 634              		.section	.text.awss_enrollee_destroy_info,"ax",@progbits
 635              		.align	1
 636              		.globl	awss_enrollee_destroy_info
 638              	awss_enrollee_destroy_info:
 639              	.LFB50:
 146:C:/Users/stapi/OneDrive/Desktop/GD32VW553/V1_MQTT_OK/GD32VW55X_Wifi_BLE_SDK/GD32VW55x_RELEASE_V1.0.2/MSDK/cloud/alicloud/src/services/awss\awss_enrollee.c **** 
 147:C:/Users/stapi/OneDrive/Desktop/GD32VW553/V1_MQTT_OK/GD32VW55X_Wifi_BLE_SDK/GD32VW55x_RELEASE_V1.0.2/MSDK/cloud/alicloud/src/services/awss\awss_enrollee.c **** void awss_enrollee_destroy_info(void)
 148:C:/Users/stapi/OneDrive/Desktop/GD32VW553/V1_MQTT_OK/GD32VW55X_Wifi_BLE_SDK/GD32VW55x_RELEASE_V1.0.2/MSDK/cloud/alicloud/src/services/awss\awss_enrollee.c **** {
 640              		.loc 2 148 1
 641              		.cfi_startproc
 642 0000 17030000 		call	t0,__riscv_save_2
 642      E7020300 
 643              		.cfi_offset 9, -12
 644              		.cfi_offset 8, -8
 645              		.cfi_offset 1, -4
 646              		.cfi_def_cfa_offset 16
 149:C:/Users/stapi/OneDrive/Desktop/GD32VW553/V1_MQTT_OK/GD32VW55X_Wifi_BLE_SDK/GD32VW55x_RELEASE_V1.0.2/MSDK/cloud/alicloud/src/services/awss\awss_enrollee.c ****     if (enrollee_frame_len) {
 647              		.loc 2 149 5
 648              		.loc 2 149 9 is_stmt 0
 649 0008 B7040000 		lui	s1,%hi(.LANCHOR0)
 650 000c 93840400 		addi	s1,s1,%lo(.LANCHOR0)
 651              		.loc 2 149 8
 652 0010 83D70400 		lhu	a5,0(s1)
 653 0014 95C3     		beq	a5,zero,.L16
 150:C:/Users/stapi/OneDrive/Desktop/GD32VW553/V1_MQTT_OK/GD32VW55X_Wifi_BLE_SDK/GD32VW55x_RELEASE_V1.0.2/MSDK/cloud/alicloud/src/services/awss\awss_enrollee.c ****         os_free(enrollee_frame);
 654              		.loc 2 150 9 is_stmt 1
 655              	.LVL51:
 656              	.LBB66:
 657              	.LBB67:
 394:..\..\..\..\cloud\alicloud\src\services\dev_bind\os/os.h **** }
 658              		.loc 1 394 5
 659              	.LBE67:
 660              	.LBE66:
 661              		.loc 2 150 9 is_stmt 0
 662 0016 37040000 		lui	s0,%hi(.LANCHOR1)
 663 001a 13040400 		addi	s0,s0,%lo(.LANCHOR1)
 664              	.LBB69:
 665              	.LBB68:
 394:..\..\..\..\cloud\alicloud\src\services\dev_bind\os/os.h **** }
 666              		.loc 1 394 5
 667 001e 0840     		lw	a0,0(s0)
 668 0020 97000000 		call	HAL_Free
 668      E7800000 
 669              	.LVL52:
 670              	.LBE68:
 671              	.LBE69:
 151:C:/Users/stapi/OneDrive/Desktop/GD32VW553/V1_MQTT_OK/GD32VW55X_Wifi_BLE_SDK/GD32VW55x_RELEASE_V1.0.2/MSDK/cloud/alicloud/src/services/awss\awss_enrollee.c ****         enrollee_frame_len = 0;
 672              		.loc 2 151 9 is_stmt 1
 152:C:/Users/stapi/OneDrive/Desktop/GD32VW553/V1_MQTT_OK/GD32VW55X_Wifi_BLE_SDK/GD32VW55x_RELEASE_V1.0.2/MSDK/cloud/alicloud/src/services/awss\awss_enrollee.c ****         enrollee_frame = NULL;
 153:C:/Users/stapi/OneDrive/Desktop/GD32VW553/V1_MQTT_OK/GD32VW55X_Wifi_BLE_SDK/GD32VW55x_RELEASE_V1.0.2/MSDK/cloud/alicloud/src/services/awss\awss_enrollee.c ****         g_dev_sign = NULL;
 673              		.loc 2 153 20 is_stmt 0
 674 0028 B7070000 		lui	a5,%hi(.LANCHOR3)
 151:C:/Users/stapi/OneDrive/Desktop/GD32VW553/V1_MQTT_OK/GD32VW55X_Wifi_BLE_SDK/GD32VW55x_RELEASE_V1.0.2/MSDK/cloud/alicloud/src/services/awss\awss_enrollee.c ****         enrollee_frame_len = 0;
 675              		.loc 2 151 28
 676 002c 23900400 		sh	zero,0(s1)
 152:C:/Users/stapi/OneDrive/Desktop/GD32VW553/V1_MQTT_OK/GD32VW55X_Wifi_BLE_SDK/GD32VW55x_RELEASE_V1.0.2/MSDK/cloud/alicloud/src/services/awss\awss_enrollee.c ****         enrollee_frame = NULL;
 677              		.loc 2 152 9 is_stmt 1
 152:C:/Users/stapi/OneDrive/Desktop/GD32VW553/V1_MQTT_OK/GD32VW55X_Wifi_BLE_SDK/GD32VW55x_RELEASE_V1.0.2/MSDK/cloud/alicloud/src/services/awss\awss_enrollee.c ****         enrollee_frame = NULL;
 678              		.loc 2 152 24 is_stmt 0
 679 0030 23200400 		sw	zero,0(s0)
 680              		.loc 2 153 9 is_stmt 1
 681              		.loc 2 153 20 is_stmt 0
 682 0034 23A00700 		sw	zero,%lo(.LANCHOR3)(a5)
 154:C:/Users/stapi/OneDrive/Desktop/GD32VW553/V1_MQTT_OK/GD32VW55X_Wifi_BLE_SDK/GD32VW55x_RELEASE_V1.0.2/MSDK/cloud/alicloud/src/services/awss\awss_enrollee.c ****         g_product_key = NULL;
 683              		.loc 2 154 9 is_stmt 1
 684              	.L16:
 155:C:/Users/stapi/OneDrive/Desktop/GD32VW553/V1_MQTT_OK/GD32VW55X_Wifi_BLE_SDK/GD32VW55x_RELEASE_V1.0.2/MSDK/cloud/alicloud/src/services/awss\awss_enrollee.c ****     }
 156:C:/Users/stapi/OneDrive/Desktop/GD32VW553/V1_MQTT_OK/GD32VW55X_Wifi_BLE_SDK/GD32VW55x_RELEASE_V1.0.2/MSDK/cloud/alicloud/src/services/awss\awss_enrollee.c **** }
 685              		.loc 2 156 1 is_stmt 0
 686 0038 17030000 		tail	__riscv_restore_2
 686      67000300 
 687              		.cfi_restore 9
 688              		.cfi_restore 8
 689              		.cfi_restore 1
 690              		.cfi_def_cfa_offset 0
 691              		.cfi_endproc
 692              	.LFE50:
 694              		.section	.rodata.awss_enrollee_broadcast_info.str1.4,"aMS",@progbits,1
 695              		.align	2
 696              	.LC7:
 697 0000 656E725F 		.string	"enr_frame not inited"
 697      6672616D 
 697      65206E6F 
 697      7420696E 
 697      69746564 
 698              		.section	.text.awss_enrollee_broadcast_info,"ax",@progbits
 699              		.align	1
 700              		.globl	awss_enrollee_broadcast_info
 702              	awss_enrollee_broadcast_info:
 703              	.LFB51:
 157:C:/Users/stapi/OneDrive/Desktop/GD32VW553/V1_MQTT_OK/GD32VW55X_Wifi_BLE_SDK/GD32VW55x_RELEASE_V1.0.2/MSDK/cloud/alicloud/src/services/awss\awss_enrollee.c **** 
 158:C:/Users/stapi/OneDrive/Desktop/GD32VW553/V1_MQTT_OK/GD32VW55X_Wifi_BLE_SDK/GD32VW55x_RELEASE_V1.0.2/MSDK/cloud/alicloud/src/services/awss\awss_enrollee.c **** void awss_enrollee_broadcast_info(void)
 159:C:/Users/stapi/OneDrive/Desktop/GD32VW553/V1_MQTT_OK/GD32VW55X_Wifi_BLE_SDK/GD32VW55x_RELEASE_V1.0.2/MSDK/cloud/alicloud/src/services/awss\awss_enrollee.c **** {
 704              		.loc 2 159 1 is_stmt 1
 705              		.cfi_startproc
 706 0000 17030000 		call	t0,__riscv_save_0
 706      E7020300 
 707              		.cfi_offset 1, -4
 708              		.cfi_def_cfa_offset 16
 160:C:/Users/stapi/OneDrive/Desktop/GD32VW553/V1_MQTT_OK/GD32VW55X_Wifi_BLE_SDK/GD32VW55x_RELEASE_V1.0.2/MSDK/cloud/alicloud/src/services/awss\awss_enrollee.c ****     if (enrollee_frame_len == 0 || enrollee_frame == NULL) {
 709              		.loc 2 160 5
 710              		.loc 2 160 28 is_stmt 0
 711 0008 B7070000 		lui	a5,%hi(.LANCHOR0)
 712 000c 03D60700 		lhu	a2,%lo(.LANCHOR0)(a5)
 713              		.loc 2 160 8
 714 0010 11C6     		beq	a2,zero,.L23
 715              		.loc 2 160 51 discriminator 1
 716 0012 B7070000 		lui	a5,%hi(.LANCHOR1)
 717 0016 83A50700 		lw	a1,%lo(.LANCHOR1)(a5)
 718              		.loc 2 160 33 discriminator 1
 719 001a 8DED     		bne	a1,zero,.L24
 720              	.L23:
 161:C:/Users/stapi/OneDrive/Desktop/GD32VW553/V1_MQTT_OK/GD32VW55X_Wifi_BLE_SDK/GD32VW55x_RELEASE_V1.0.2/MSDK/cloud/alicloud/src/services/awss\awss_enrollee.c ****         awss_warn("enr_frame not inited");
 721              		.loc 2 161 9 is_stmt 1
 722              		.loc 2 161 9
 723 001c 37050000 		lui	a0,%hi(.LC0)
 724 0020 13050500 		addi	a0,a0,%lo(.LC0)
 725 0024 97000000 		call	HAL_Printf
 725      E7800000 
 726              	.LVL53:
 727              		.loc 2 161 9
 728 002c 37050000 		lui	a0,%hi(.LC7)
 729 0030 13050500 		addi	a0,a0,%lo(.LC7)
 730 0034 97000000 		call	HAL_Printf
 730      E7800000 
 731              	.LVL54:
 732              		.loc 2 161 9
 733 003c 37050000 		lui	a0,%hi(.LC2)
 734 0040 13050500 		addi	a0,a0,%lo(.LC2)
 735 0044 97000000 		call	HAL_Printf
 735      E7800000 
 736              	.LVL55:
 737              		.loc 2 161 9
 162:C:/Users/stapi/OneDrive/Desktop/GD32VW553/V1_MQTT_OK/GD32VW55X_Wifi_BLE_SDK/GD32VW55x_RELEASE_V1.0.2/MSDK/cloud/alicloud/src/services/awss\awss_enrollee.c ****         return;
 738              		.loc 2 162 9
 739              	.L22:
 163:C:/Users/stapi/OneDrive/Desktop/GD32VW553/V1_MQTT_OK/GD32VW55X_Wifi_BLE_SDK/GD32VW55x_RELEASE_V1.0.2/MSDK/cloud/alicloud/src/services/awss\awss_enrollee.c ****     }
 164:C:/Users/stapi/OneDrive/Desktop/GD32VW553/V1_MQTT_OK/GD32VW55X_Wifi_BLE_SDK/GD32VW55x_RELEASE_V1.0.2/MSDK/cloud/alicloud/src/services/awss\awss_enrollee.c ****     //awss_debug("enrollee send ProbReqA");
 165:C:/Users/stapi/OneDrive/Desktop/GD32VW553/V1_MQTT_OK/GD32VW55X_Wifi_BLE_SDK/GD32VW55x_RELEASE_V1.0.2/MSDK/cloud/alicloud/src/services/awss\awss_enrollee.c ****     os_wifi_send_80211_raw_frame(FRAME_PROBE_REQ, enrollee_frame,
 166:C:/Users/stapi/OneDrive/Desktop/GD32VW553/V1_MQTT_OK/GD32VW55X_Wifi_BLE_SDK/GD32VW55x_RELEASE_V1.0.2/MSDK/cloud/alicloud/src/services/awss\awss_enrollee.c ****                                  enrollee_frame_len);
 167:C:/Users/stapi/OneDrive/Desktop/GD32VW553/V1_MQTT_OK/GD32VW55X_Wifi_BLE_SDK/GD32VW55x_RELEASE_V1.0.2/MSDK/cloud/alicloud/src/services/awss\awss_enrollee.c **** }
 740              		.loc 2 167 1 is_stmt 0
 741 004c 17030000 		tail	__riscv_restore_0
 741      67000300 
 742              		.cfi_remember_state
 743              		.cfi_restore 1
 744              		.cfi_def_cfa_offset 0
 745              	.L24:
 746              		.cfi_restore_state
 165:C:/Users/stapi/OneDrive/Desktop/GD32VW553/V1_MQTT_OK/GD32VW55X_Wifi_BLE_SDK/GD32VW55x_RELEASE_V1.0.2/MSDK/cloud/alicloud/src/services/awss\awss_enrollee.c ****                                  enrollee_frame_len);
 747              		.loc 2 165 5 is_stmt 1
 748              	.LVL56:
 749              	.LBB72:
 750              	.LBB73:
 775:..\..\..\..\cloud\alicloud\src\services\dev_bind\os/os.h **** }
 751              		.loc 1 775 5
 775:..\..\..\..\cloud\alicloud\src\services\dev_bind\os/os.h **** }
 752              		.loc 1 775 12 is_stmt 0
 753 0054 0945     		li	a0,2
 754 0056 97000000 		call	HAL_Wifi_Send_80211_Raw_Frame
 754      E7800000 
 755              	.LVL57:
 756 005e FDB7     		j	.L22
 757              	.LBE73:
 758              	.LBE72:
 759              		.cfi_endproc
 760              	.LFE51:
 762              		.section	.rodata.awss_enrollee_ieee80211_process.str1.4,"aMS",@progbits,1
 763              		.align	2
 764              	.LC8:
 765 0000 656E725F 		.string	"enr_hdl_regi: rx respA"
 765      68646C5F 
 765      72656769 
 765      3A207278 
 765      20726573 
 766              		.section	.text.awss_enrollee_ieee80211_process,"ax",@progbits
 767              		.align	1
 768              		.globl	awss_enrollee_ieee80211_process
 770              	awss_enrollee_ieee80211_process:
 771              	.LFB53:
 168:C:/Users/stapi/OneDrive/Desktop/GD32VW553/V1_MQTT_OK/GD32VW55X_Wifi_BLE_SDK/GD32VW55x_RELEASE_V1.0.2/MSDK/cloud/alicloud/src/services/awss\awss_enrollee.c **** 
 169:C:/Users/stapi/OneDrive/Desktop/GD32VW553/V1_MQTT_OK/GD32VW55X_Wifi_BLE_SDK/GD32VW55x_RELEASE_V1.0.2/MSDK/cloud/alicloud/src/services/awss\awss_enrollee.c **** /* return 0 for success, -1 dev_name not match, otherwise return -2 */
 170:C:/Users/stapi/OneDrive/Desktop/GD32VW553/V1_MQTT_OK/GD32VW55X_Wifi_BLE_SDK/GD32VW55x_RELEASE_V1.0.2/MSDK/cloud/alicloud/src/services/awss\awss_enrollee.c **** static int awss_enrollee_decrypt_passwd(
 171:C:/Users/stapi/OneDrive/Desktop/GD32VW553/V1_MQTT_OK/GD32VW55X_Wifi_BLE_SDK/GD32VW55x_RELEASE_V1.0.2/MSDK/cloud/alicloud/src/services/awss\awss_enrollee.c ****     uint8_t *ie, uint8_t ie_len,
 172:C:/Users/stapi/OneDrive/Desktop/GD32VW553/V1_MQTT_OK/GD32VW55X_Wifi_BLE_SDK/GD32VW55x_RELEASE_V1.0.2/MSDK/cloud/alicloud/src/services/awss\awss_enrollee.c ****     uint8_t out_ssid[OS_MAX_SSID_LEN],
 173:C:/Users/stapi/OneDrive/Desktop/GD32VW553/V1_MQTT_OK/GD32VW55X_Wifi_BLE_SDK/GD32VW55x_RELEASE_V1.0.2/MSDK/cloud/alicloud/src/services/awss\awss_enrollee.c ****     uint8_t out_passwd[OS_MAX_PASSWD_LEN],
 174:C:/Users/stapi/OneDrive/Desktop/GD32VW553/V1_MQTT_OK/GD32VW55X_Wifi_BLE_SDK/GD32VW55x_RELEASE_V1.0.2/MSDK/cloud/alicloud/src/services/awss\awss_enrollee.c ****     uint8_t out_bssid[ETH_ALEN],
 175:C:/Users/stapi/OneDrive/Desktop/GD32VW553/V1_MQTT_OK/GD32VW55X_Wifi_BLE_SDK/GD32VW55x_RELEASE_V1.0.2/MSDK/cloud/alicloud/src/services/awss\awss_enrollee.c ****     uint8_t out_token[ZC_MAX_TOKEN_LEN],
 176:C:/Users/stapi/OneDrive/Desktop/GD32VW553/V1_MQTT_OK/GD32VW55X_Wifi_BLE_SDK/GD32VW55x_RELEASE_V1.0.2/MSDK/cloud/alicloud/src/services/awss\awss_enrollee.c ****     uint8_t *out_token_type)
 177:C:/Users/stapi/OneDrive/Desktop/GD32VW553/V1_MQTT_OK/GD32VW55X_Wifi_BLE_SDK/GD32VW55x_RELEASE_V1.0.2/MSDK/cloud/alicloud/src/services/awss\awss_enrollee.c **** {
 178:C:/Users/stapi/OneDrive/Desktop/GD32VW553/V1_MQTT_OK/GD32VW55X_Wifi_BLE_SDK/GD32VW55x_RELEASE_V1.0.2/MSDK/cloud/alicloud/src/services/awss\awss_enrollee.c ****     uint8_t tmp_ssid[OS_MAX_SSID_LEN + 1] = {0}, tmp_passwd[OS_MAX_PASSWD_LEN + 1] = {0};
 179:C:/Users/stapi/OneDrive/Desktop/GD32VW553/V1_MQTT_OK/GD32VW55X_Wifi_BLE_SDK/GD32VW55x_RELEASE_V1.0.2/MSDK/cloud/alicloud/src/services/awss\awss_enrollee.c ****     uint8_t tmp_token[ZC_MAX_TOKEN_LEN] = {0};
 180:C:/Users/stapi/OneDrive/Desktop/GD32VW553/V1_MQTT_OK/GD32VW55X_Wifi_BLE_SDK/GD32VW55x_RELEASE_V1.0.2/MSDK/cloud/alicloud/src/services/awss\awss_enrollee.c ****     uint8_t *p_dev_name_sign = NULL, *p_ssid = NULL, *p_passwd = NULL, *p_bssid = NULL, *p_token = 
 181:C:/Users/stapi/OneDrive/Desktop/GD32VW553/V1_MQTT_OK/GD32VW55X_Wifi_BLE_SDK/GD32VW55x_RELEASE_V1.0.2/MSDK/cloud/alicloud/src/services/awss\awss_enrollee.c ****     uint8_t dev_type_ver;
 182:C:/Users/stapi/OneDrive/Desktop/GD32VW553/V1_MQTT_OK/GD32VW55X_Wifi_BLE_SDK/GD32VW55x_RELEASE_V1.0.2/MSDK/cloud/alicloud/src/services/awss\awss_enrollee.c ****     uint8_t ie_idx = 0;
 183:C:/Users/stapi/OneDrive/Desktop/GD32VW553/V1_MQTT_OK/GD32VW55X_Wifi_BLE_SDK/GD32VW55x_RELEASE_V1.0.2/MSDK/cloud/alicloud/src/services/awss\awss_enrollee.c ****     uint8_t token_len = 0;
 184:C:/Users/stapi/OneDrive/Desktop/GD32VW553/V1_MQTT_OK/GD32VW55X_Wifi_BLE_SDK/GD32VW55x_RELEASE_V1.0.2/MSDK/cloud/alicloud/src/services/awss\awss_enrollee.c ****     uint8_t token_type = 0;
 185:C:/Users/stapi/OneDrive/Desktop/GD32VW553/V1_MQTT_OK/GD32VW55X_Wifi_BLE_SDK/GD32VW55x_RELEASE_V1.0.2/MSDK/cloud/alicloud/src/services/awss\awss_enrollee.c ****     uint8_t region_id;
 186:C:/Users/stapi/OneDrive/Desktop/GD32VW553/V1_MQTT_OK/GD32VW55X_Wifi_BLE_SDK/GD32VW55x_RELEASE_V1.0.2/MSDK/cloud/alicloud/src/services/awss\awss_enrollee.c **** 
 187:C:/Users/stapi/OneDrive/Desktop/GD32VW553/V1_MQTT_OK/GD32VW55X_Wifi_BLE_SDK/GD32VW55x_RELEASE_V1.0.2/MSDK/cloud/alicloud/src/services/awss\awss_enrollee.c ****     // ie[0] - Vendor Spec Element(221)
 188:C:/Users/stapi/OneDrive/Desktop/GD32VW553/V1_MQTT_OK/GD32VW55X_Wifi_BLE_SDK/GD32VW55x_RELEASE_V1.0.2/MSDK/cloud/alicloud/src/services/awss\awss_enrollee.c ****     // ie[1] - ie length
 189:C:/Users/stapi/OneDrive/Desktop/GD32VW553/V1_MQTT_OK/GD32VW55X_Wifi_BLE_SDK/GD32VW55x_RELEASE_V1.0.2/MSDK/cloud/alicloud/src/services/awss\awss_enrollee.c ****     // ie[2..4] - OUI
 190:C:/Users/stapi/OneDrive/Desktop/GD32VW553/V1_MQTT_OK/GD32VW55X_Wifi_BLE_SDK/GD32VW55x_RELEASE_V1.0.2/MSDK/cloud/alicloud/src/services/awss\awss_enrollee.c ****     // ie[5] - OUI type
 191:C:/Users/stapi/OneDrive/Desktop/GD32VW553/V1_MQTT_OK/GD32VW55X_Wifi_BLE_SDK/GD32VW55x_RELEASE_V1.0.2/MSDK/cloud/alicloud/src/services/awss\awss_enrollee.c ****     // ie[6] - Version&DevType
 192:C:/Users/stapi/OneDrive/Desktop/GD32VW553/V1_MQTT_OK/GD32VW55X_Wifi_BLE_SDK/GD32VW55x_RELEASE_V1.0.2/MSDK/cloud/alicloud/src/services/awss\awss_enrollee.c ****     // ie[7] - Length of Sign
 193:C:/Users/stapi/OneDrive/Desktop/GD32VW553/V1_MQTT_OK/GD32VW55X_Wifi_BLE_SDK/GD32VW55x_RELEASE_V1.0.2/MSDK/cloud/alicloud/src/services/awss\awss_enrollee.c ****     // ie[8..x] - Sign
 194:C:/Users/stapi/OneDrive/Desktop/GD32VW553/V1_MQTT_OK/GD32VW55X_Wifi_BLE_SDK/GD32VW55x_RELEASE_V1.0.2/MSDK/cloud/alicloud/src/services/awss\awss_enrollee.c ****     // ie[x+1] - Frame Type (0)
 195:C:/Users/stapi/OneDrive/Desktop/GD32VW553/V1_MQTT_OK/GD32VW55X_Wifi_BLE_SDK/GD32VW55x_RELEASE_V1.0.2/MSDK/cloud/alicloud/src/services/awss\awss_enrollee.c ****     // ie[x+2] - Length of SSID
 196:C:/Users/stapi/OneDrive/Desktop/GD32VW553/V1_MQTT_OK/GD32VW55X_Wifi_BLE_SDK/GD32VW55x_RELEASE_V1.0.2/MSDK/cloud/alicloud/src/services/awss\awss_enrollee.c ****     // ie[x+3..y] - SSID
 197:C:/Users/stapi/OneDrive/Desktop/GD32VW553/V1_MQTT_OK/GD32VW55X_Wifi_BLE_SDK/GD32VW55x_RELEASE_V1.0.2/MSDK/cloud/alicloud/src/services/awss\awss_enrollee.c ****     // ie[y+1] - Length of passwd
 198:C:/Users/stapi/OneDrive/Desktop/GD32VW553/V1_MQTT_OK/GD32VW55X_Wifi_BLE_SDK/GD32VW55x_RELEASE_V1.0.2/MSDK/cloud/alicloud/src/services/awss\awss_enrollee.c ****     // ie[y+2..z] - passwd
 199:C:/Users/stapi/OneDrive/Desktop/GD32VW553/V1_MQTT_OK/GD32VW55X_Wifi_BLE_SDK/GD32VW55x_RELEASE_V1.0.2/MSDK/cloud/alicloud/src/services/awss\awss_enrollee.c ****     // ie[z+1..z+6] - BSSID
 200:C:/Users/stapi/OneDrive/Desktop/GD32VW553/V1_MQTT_OK/GD32VW55X_Wifi_BLE_SDK/GD32VW55x_RELEASE_V1.0.2/MSDK/cloud/alicloud/src/services/awss\awss_enrollee.c ****     // ie[z+7] - Length of Token
 201:C:/Users/stapi/OneDrive/Desktop/GD32VW553/V1_MQTT_OK/GD32VW55X_Wifi_BLE_SDK/GD32VW55x_RELEASE_V1.0.2/MSDK/cloud/alicloud/src/services/awss\awss_enrollee.c ****     // ie[z+8..] - Token
 202:C:/Users/stapi/OneDrive/Desktop/GD32VW553/V1_MQTT_OK/GD32VW55X_Wifi_BLE_SDK/GD32VW55x_RELEASE_V1.0.2/MSDK/cloud/alicloud/src/services/awss\awss_enrollee.c ****     // ...... - RFU
 203:C:/Users/stapi/OneDrive/Desktop/GD32VW553/V1_MQTT_OK/GD32VW55X_Wifi_BLE_SDK/GD32VW55x_RELEASE_V1.0.2/MSDK/cloud/alicloud/src/services/awss\awss_enrollee.c **** 
 204:C:/Users/stapi/OneDrive/Desktop/GD32VW553/V1_MQTT_OK/GD32VW55X_Wifi_BLE_SDK/GD32VW55x_RELEASE_V1.0.2/MSDK/cloud/alicloud/src/services/awss\awss_enrollee.c ****     ie_idx += WLAN_VENDOR_IE_HDR_LEN;
 205:C:/Users/stapi/OneDrive/Desktop/GD32VW553/V1_MQTT_OK/GD32VW55X_Wifi_BLE_SDK/GD32VW55x_RELEASE_V1.0.2/MSDK/cloud/alicloud/src/services/awss\awss_enrollee.c ****     if ( (ie_len <= ie_idx) || ((ie[ie_idx] & 0x0F) != WLAN_VENDOR_DEVTYPE_ALINK_CLOUD) ) {
 206:C:/Users/stapi/OneDrive/Desktop/GD32VW553/V1_MQTT_OK/GD32VW55X_Wifi_BLE_SDK/GD32VW55x_RELEASE_V1.0.2/MSDK/cloud/alicloud/src/services/awss\awss_enrollee.c ****         dump_awss_status(STATE_WIFI_ZCONFIG_REGISTAR_PARAMS_ERROR, "enr_hdl_regi type=%d unmatch", 
 207:C:/Users/stapi/OneDrive/Desktop/GD32VW553/V1_MQTT_OK/GD32VW55X_Wifi_BLE_SDK/GD32VW55x_RELEASE_V1.0.2/MSDK/cloud/alicloud/src/services/awss\awss_enrollee.c ****         return STATE_WIFI_ZCONFIG_REGISTAR_PARAMS_ERROR;
 208:C:/Users/stapi/OneDrive/Desktop/GD32VW553/V1_MQTT_OK/GD32VW55X_Wifi_BLE_SDK/GD32VW55x_RELEASE_V1.0.2/MSDK/cloud/alicloud/src/services/awss\awss_enrollee.c ****     }
 209:C:/Users/stapi/OneDrive/Desktop/GD32VW553/V1_MQTT_OK/GD32VW55X_Wifi_BLE_SDK/GD32VW55x_RELEASE_V1.0.2/MSDK/cloud/alicloud/src/services/awss\awss_enrollee.c ****     //awss_debug("ie_len %d > %d, to get devtype", ie_len, ie_idx);
 210:C:/Users/stapi/OneDrive/Desktop/GD32VW553/V1_MQTT_OK/GD32VW55X_Wifi_BLE_SDK/GD32VW55x_RELEASE_V1.0.2/MSDK/cloud/alicloud/src/services/awss\awss_enrollee.c ****     ie_idx++;                                   // skip version
 211:C:/Users/stapi/OneDrive/Desktop/GD32VW553/V1_MQTT_OK/GD32VW55X_Wifi_BLE_SDK/GD32VW55x_RELEASE_V1.0.2/MSDK/cloud/alicloud/src/services/awss\awss_enrollee.c ****     p_dev_name_sign = ie + ie_idx;
 212:C:/Users/stapi/OneDrive/Desktop/GD32VW553/V1_MQTT_OK/GD32VW55X_Wifi_BLE_SDK/GD32VW55x_RELEASE_V1.0.2/MSDK/cloud/alicloud/src/services/awss\awss_enrollee.c **** 
 213:C:/Users/stapi/OneDrive/Desktop/GD32VW553/V1_MQTT_OK/GD32VW55X_Wifi_BLE_SDK/GD32VW55x_RELEASE_V1.0.2/MSDK/cloud/alicloud/src/services/awss\awss_enrollee.c ****     if ( (ie_len <= ie_idx + ie[ie_idx]) || !g_dev_sign || memcmp(g_dev_sign, p_dev_name_sign + 1, 
 214:C:/Users/stapi/OneDrive/Desktop/GD32VW553/V1_MQTT_OK/GD32VW55X_Wifi_BLE_SDK/GD32VW55x_RELEASE_V1.0.2/MSDK/cloud/alicloud/src/services/awss\awss_enrollee.c ****         p_dev_name_sign[p_dev_name_sign[0]] = '\0';
 215:C:/Users/stapi/OneDrive/Desktop/GD32VW553/V1_MQTT_OK/GD32VW55X_Wifi_BLE_SDK/GD32VW55x_RELEASE_V1.0.2/MSDK/cloud/alicloud/src/services/awss\awss_enrollee.c ****         dump_awss_status(STATE_WIFI_ZCONFIG_REGISTAR_PARAMS_ERROR, "enr_hdl_regi dn unmatch");
 216:C:/Users/stapi/OneDrive/Desktop/GD32VW553/V1_MQTT_OK/GD32VW55X_Wifi_BLE_SDK/GD32VW55x_RELEASE_V1.0.2/MSDK/cloud/alicloud/src/services/awss\awss_enrollee.c ****         //awss_debug("expect:");
 217:C:/Users/stapi/OneDrive/Desktop/GD32VW553/V1_MQTT_OK/GD32VW55X_Wifi_BLE_SDK/GD32VW55x_RELEASE_V1.0.2/MSDK/cloud/alicloud/src/services/awss\awss_enrollee.c ****         //if (g_dev_sign) zconfig_dump_hex(g_dev_sign, p_dev_name_sign[0], 16);
 218:C:/Users/stapi/OneDrive/Desktop/GD32VW553/V1_MQTT_OK/GD32VW55X_Wifi_BLE_SDK/GD32VW55x_RELEASE_V1.0.2/MSDK/cloud/alicloud/src/services/awss\awss_enrollee.c ****         //awss_debug("\r\nbut recv:");
 219:C:/Users/stapi/OneDrive/Desktop/GD32VW553/V1_MQTT_OK/GD32VW55X_Wifi_BLE_SDK/GD32VW55x_RELEASE_V1.0.2/MSDK/cloud/alicloud/src/services/awss\awss_enrollee.c ****         //zconfig_dump_hex(p_dev_name_sign + 1, p_dev_name_sign[0], 16);
 220:C:/Users/stapi/OneDrive/Desktop/GD32VW553/V1_MQTT_OK/GD32VW55X_Wifi_BLE_SDK/GD32VW55x_RELEASE_V1.0.2/MSDK/cloud/alicloud/src/services/awss\awss_enrollee.c ****         return STATE_WIFI_ZCONFIG_REGISTAR_PARAMS_ERROR;
 221:C:/Users/stapi/OneDrive/Desktop/GD32VW553/V1_MQTT_OK/GD32VW55X_Wifi_BLE_SDK/GD32VW55x_RELEASE_V1.0.2/MSDK/cloud/alicloud/src/services/awss\awss_enrollee.c ****     }
 222:C:/Users/stapi/OneDrive/Desktop/GD32VW553/V1_MQTT_OK/GD32VW55X_Wifi_BLE_SDK/GD32VW55x_RELEASE_V1.0.2/MSDK/cloud/alicloud/src/services/awss\awss_enrollee.c ****     //awss_debug("ie_len %d > %d, to get sign", ie_len, ie_idx + ie[ie_idx]);
 223:C:/Users/stapi/OneDrive/Desktop/GD32VW553/V1_MQTT_OK/GD32VW55X_Wifi_BLE_SDK/GD32VW55x_RELEASE_V1.0.2/MSDK/cloud/alicloud/src/services/awss\awss_enrollee.c ****     ie_idx += ie[ie_idx] + 1;                   // eating sign_len & sign[n]
 224:C:/Users/stapi/OneDrive/Desktop/GD32VW553/V1_MQTT_OK/GD32VW55X_Wifi_BLE_SDK/GD32VW55x_RELEASE_V1.0.2/MSDK/cloud/alicloud/src/services/awss\awss_enrollee.c **** 
 225:C:/Users/stapi/OneDrive/Desktop/GD32VW553/V1_MQTT_OK/GD32VW55X_Wifi_BLE_SDK/GD32VW55x_RELEASE_V1.0.2/MSDK/cloud/alicloud/src/services/awss\awss_enrollee.c ****     if ( (ie_len <= ie_idx) || (ie[ie_idx] != REGISTRAR_FRAME_TYPE) ) {
 226:C:/Users/stapi/OneDrive/Desktop/GD32VW553/V1_MQTT_OK/GD32VW55X_Wifi_BLE_SDK/GD32VW55x_RELEASE_V1.0.2/MSDK/cloud/alicloud/src/services/awss\awss_enrollee.c ****         dump_awss_status(STATE_WIFI_ZCONFIG_REGISTAR_PARAMS_ERROR, "enr_hdl_regi frametype=%d unmat
 227:C:/Users/stapi/OneDrive/Desktop/GD32VW553/V1_MQTT_OK/GD32VW55X_Wifi_BLE_SDK/GD32VW55x_RELEASE_V1.0.2/MSDK/cloud/alicloud/src/services/awss\awss_enrollee.c ****         return STATE_WIFI_ZCONFIG_REGISTAR_PARAMS_ERROR;
 228:C:/Users/stapi/OneDrive/Desktop/GD32VW553/V1_MQTT_OK/GD32VW55X_Wifi_BLE_SDK/GD32VW55x_RELEASE_V1.0.2/MSDK/cloud/alicloud/src/services/awss\awss_enrollee.c ****     }
 229:C:/Users/stapi/OneDrive/Desktop/GD32VW553/V1_MQTT_OK/GD32VW55X_Wifi_BLE_SDK/GD32VW55x_RELEASE_V1.0.2/MSDK/cloud/alicloud/src/services/awss\awss_enrollee.c ****     //awss_debug("ie_len %d > %d, to get frametype", ie_len, ie_idx);
 230:C:/Users/stapi/OneDrive/Desktop/GD32VW553/V1_MQTT_OK/GD32VW55X_Wifi_BLE_SDK/GD32VW55x_RELEASE_V1.0.2/MSDK/cloud/alicloud/src/services/awss\awss_enrollee.c ****     ie_idx++;                                   // eating frame type
 231:C:/Users/stapi/OneDrive/Desktop/GD32VW553/V1_MQTT_OK/GD32VW55X_Wifi_BLE_SDK/GD32VW55x_RELEASE_V1.0.2/MSDK/cloud/alicloud/src/services/awss\awss_enrollee.c ****     p_ssid = ie + ie_idx;
 232:C:/Users/stapi/OneDrive/Desktop/GD32VW553/V1_MQTT_OK/GD32VW55X_Wifi_BLE_SDK/GD32VW55x_RELEASE_V1.0.2/MSDK/cloud/alicloud/src/services/awss\awss_enrollee.c ****     if ( (ie_len <= ie_idx + ie[ie_idx]) || (ie[ie_idx] >= OS_MAX_SSID_LEN) ) {
 233:C:/Users/stapi/OneDrive/Desktop/GD32VW553/V1_MQTT_OK/GD32VW55X_Wifi_BLE_SDK/GD32VW55x_RELEASE_V1.0.2/MSDK/cloud/alicloud/src/services/awss\awss_enrollee.c ****         dump_awss_status(STATE_WIFI_ZCONFIG_REGISTAR_PARAMS_ERROR, "enr_hdl_regi ssidlen=%d out of 
 234:C:/Users/stapi/OneDrive/Desktop/GD32VW553/V1_MQTT_OK/GD32VW55X_Wifi_BLE_SDK/GD32VW55x_RELEASE_V1.0.2/MSDK/cloud/alicloud/src/services/awss\awss_enrollee.c ****         return STATE_WIFI_ZCONFIG_REGISTAR_PARAMS_ERROR;
 235:C:/Users/stapi/OneDrive/Desktop/GD32VW553/V1_MQTT_OK/GD32VW55X_Wifi_BLE_SDK/GD32VW55x_RELEASE_V1.0.2/MSDK/cloud/alicloud/src/services/awss\awss_enrollee.c ****     }
 236:C:/Users/stapi/OneDrive/Desktop/GD32VW553/V1_MQTT_OK/GD32VW55X_Wifi_BLE_SDK/GD32VW55x_RELEASE_V1.0.2/MSDK/cloud/alicloud/src/services/awss\awss_enrollee.c ****     //awss_debug("ie_len %d > %d, to get ssid", ie_len, ie_idx + ie[ie_idx]);
 237:C:/Users/stapi/OneDrive/Desktop/GD32VW553/V1_MQTT_OK/GD32VW55X_Wifi_BLE_SDK/GD32VW55x_RELEASE_V1.0.2/MSDK/cloud/alicloud/src/services/awss\awss_enrollee.c ****     memcpy(tmp_ssid, &p_ssid[1], p_ssid[0]);
 238:C:/Users/stapi/OneDrive/Desktop/GD32VW553/V1_MQTT_OK/GD32VW55X_Wifi_BLE_SDK/GD32VW55x_RELEASE_V1.0.2/MSDK/cloud/alicloud/src/services/awss\awss_enrollee.c ****     awss_debug("enr_hdl_regi ssid:%s", tmp_ssid);
 239:C:/Users/stapi/OneDrive/Desktop/GD32VW553/V1_MQTT_OK/GD32VW55X_Wifi_BLE_SDK/GD32VW55x_RELEASE_V1.0.2/MSDK/cloud/alicloud/src/services/awss\awss_enrollee.c **** 
 240:C:/Users/stapi/OneDrive/Desktop/GD32VW553/V1_MQTT_OK/GD32VW55X_Wifi_BLE_SDK/GD32VW55x_RELEASE_V1.0.2/MSDK/cloud/alicloud/src/services/awss\awss_enrollee.c ****     ie_idx += ie[ie_idx] + 1;                   // eating ssid_len & ssid[n]
 241:C:/Users/stapi/OneDrive/Desktop/GD32VW553/V1_MQTT_OK/GD32VW55X_Wifi_BLE_SDK/GD32VW55x_RELEASE_V1.0.2/MSDK/cloud/alicloud/src/services/awss\awss_enrollee.c **** 
 242:C:/Users/stapi/OneDrive/Desktop/GD32VW553/V1_MQTT_OK/GD32VW55X_Wifi_BLE_SDK/GD32VW55x_RELEASE_V1.0.2/MSDK/cloud/alicloud/src/services/awss\awss_enrollee.c ****     p_passwd = ie + ie_idx;
 243:C:/Users/stapi/OneDrive/Desktop/GD32VW553/V1_MQTT_OK/GD32VW55X_Wifi_BLE_SDK/GD32VW55x_RELEASE_V1.0.2/MSDK/cloud/alicloud/src/services/awss\awss_enrollee.c ****     if ( (ie_len <= ie_idx + ie[ie_idx]) || p_passwd[0] >= OS_MAX_PASSWD_LEN) {
 244:C:/Users/stapi/OneDrive/Desktop/GD32VW553/V1_MQTT_OK/GD32VW55X_Wifi_BLE_SDK/GD32VW55x_RELEASE_V1.0.2/MSDK/cloud/alicloud/src/services/awss\awss_enrollee.c ****         dump_awss_status(STATE_WIFI_ZCONFIG_REGISTAR_PARAMS_ERROR, "enr_hdl_regi passwdlen=%d out o
 245:C:/Users/stapi/OneDrive/Desktop/GD32VW553/V1_MQTT_OK/GD32VW55X_Wifi_BLE_SDK/GD32VW55x_RELEASE_V1.0.2/MSDK/cloud/alicloud/src/services/awss\awss_enrollee.c ****         return STATE_WIFI_ZCONFIG_REGISTAR_PARAMS_ERROR;
 246:C:/Users/stapi/OneDrive/Desktop/GD32VW553/V1_MQTT_OK/GD32VW55X_Wifi_BLE_SDK/GD32VW55x_RELEASE_V1.0.2/MSDK/cloud/alicloud/src/services/awss\awss_enrollee.c ****     }
 247:C:/Users/stapi/OneDrive/Desktop/GD32VW553/V1_MQTT_OK/GD32VW55X_Wifi_BLE_SDK/GD32VW55x_RELEASE_V1.0.2/MSDK/cloud/alicloud/src/services/awss\awss_enrollee.c ****     //awss_debug("ie_len %d > %d, to get pwd", ie_len, ie_idx + ie[ie_idx]);
 248:C:/Users/stapi/OneDrive/Desktop/GD32VW553/V1_MQTT_OK/GD32VW55X_Wifi_BLE_SDK/GD32VW55x_RELEASE_V1.0.2/MSDK/cloud/alicloud/src/services/awss\awss_enrollee.c ****     ie_idx += ie[ie_idx] + 1;                   // eating passwd_len & passwd
 249:C:/Users/stapi/OneDrive/Desktop/GD32VW553/V1_MQTT_OK/GD32VW55X_Wifi_BLE_SDK/GD32VW55x_RELEASE_V1.0.2/MSDK/cloud/alicloud/src/services/awss\awss_enrollee.c ****     if ( ie_len < ie_idx + ETH_ALEN) {
 250:C:/Users/stapi/OneDrive/Desktop/GD32VW553/V1_MQTT_OK/GD32VW55X_Wifi_BLE_SDK/GD32VW55x_RELEASE_V1.0.2/MSDK/cloud/alicloud/src/services/awss\awss_enrollee.c ****         dump_awss_status(STATE_WIFI_ZCONFIG_REGISTAR_PARAMS_ERROR, "enr_hdl_regi bssid out of range
 251:C:/Users/stapi/OneDrive/Desktop/GD32VW553/V1_MQTT_OK/GD32VW55X_Wifi_BLE_SDK/GD32VW55x_RELEASE_V1.0.2/MSDK/cloud/alicloud/src/services/awss\awss_enrollee.c ****         return STATE_WIFI_ZCONFIG_REGISTAR_PARAMS_ERROR;
 252:C:/Users/stapi/OneDrive/Desktop/GD32VW553/V1_MQTT_OK/GD32VW55X_Wifi_BLE_SDK/GD32VW55x_RELEASE_V1.0.2/MSDK/cloud/alicloud/src/services/awss\awss_enrollee.c ****     }
 253:C:/Users/stapi/OneDrive/Desktop/GD32VW553/V1_MQTT_OK/GD32VW55X_Wifi_BLE_SDK/GD32VW55x_RELEASE_V1.0.2/MSDK/cloud/alicloud/src/services/awss\awss_enrollee.c ****     //awss_debug("ie_len %d >= %d, to get bssid", ie_len, ie_idx + ETH_ALEN);
 254:C:/Users/stapi/OneDrive/Desktop/GD32VW553/V1_MQTT_OK/GD32VW55X_Wifi_BLE_SDK/GD32VW55x_RELEASE_V1.0.2/MSDK/cloud/alicloud/src/services/awss\awss_enrollee.c ****     p_bssid = ie + ie_idx;
 255:C:/Users/stapi/OneDrive/Desktop/GD32VW553/V1_MQTT_OK/GD32VW55X_Wifi_BLE_SDK/GD32VW55x_RELEASE_V1.0.2/MSDK/cloud/alicloud/src/services/awss\awss_enrollee.c ****     ie_idx += ETH_ALEN;                         // eating bssid len
 256:C:/Users/stapi/OneDrive/Desktop/GD32VW553/V1_MQTT_OK/GD32VW55X_Wifi_BLE_SDK/GD32VW55x_RELEASE_V1.0.2/MSDK/cloud/alicloud/src/services/awss\awss_enrollee.c **** 
 257:C:/Users/stapi/OneDrive/Desktop/GD32VW553/V1_MQTT_OK/GD32VW55X_Wifi_BLE_SDK/GD32VW55x_RELEASE_V1.0.2/MSDK/cloud/alicloud/src/services/awss\awss_enrollee.c ****     AWSS_UPDATE_STATIS(AWSS_STATIS_ZCONFIG_IDX, AWSS_STATIS_TYPE_TIME_START);
 258:C:/Users/stapi/OneDrive/Desktop/GD32VW553/V1_MQTT_OK/GD32VW55X_Wifi_BLE_SDK/GD32VW55x_RELEASE_V1.0.2/MSDK/cloud/alicloud/src/services/awss\awss_enrollee.c **** 
 259:C:/Users/stapi/OneDrive/Desktop/GD32VW553/V1_MQTT_OK/GD32VW55X_Wifi_BLE_SDK/GD32VW55x_RELEASE_V1.0.2/MSDK/cloud/alicloud/src/services/awss\awss_enrollee.c ****     aes_decrypt_string((char *)p_passwd + 1, (char *)tmp_passwd, p_passwd[0],
 260:C:/Users/stapi/OneDrive/Desktop/GD32VW553/V1_MQTT_OK/GD32VW55X_Wifi_BLE_SDK/GD32VW55x_RELEASE_V1.0.2/MSDK/cloud/alicloud/src/services/awss\awss_enrollee.c ****             1, os_get_conn_encrypt_type(), 0, (const char *)g_aes_random); //aes128 cfb
 261:C:/Users/stapi/OneDrive/Desktop/GD32VW553/V1_MQTT_OK/GD32VW55X_Wifi_BLE_SDK/GD32VW55x_RELEASE_V1.0.2/MSDK/cloud/alicloud/src/services/awss\awss_enrollee.c ****     if (zconfig_is_utf8((const char *)tmp_passwd, p_passwd[0]) != 1) {
 262:C:/Users/stapi/OneDrive/Desktop/GD32VW553/V1_MQTT_OK/GD32VW55X_Wifi_BLE_SDK/GD32VW55x_RELEASE_V1.0.2/MSDK/cloud/alicloud/src/services/awss\awss_enrollee.c ****         AWSS_UPDATE_STATIS(AWSS_STATIS_ZCONFIG_IDX, AWSS_STATIS_TYPE_PASSWD_ERR);
 263:C:/Users/stapi/OneDrive/Desktop/GD32VW553/V1_MQTT_OK/GD32VW55X_Wifi_BLE_SDK/GD32VW55x_RELEASE_V1.0.2/MSDK/cloud/alicloud/src/services/awss\awss_enrollee.c ****         dump_awss_status(STATE_WIFI_ZCONFIG_REGISTAR_PARAMS_ERROR, "enr_hdl_regi(passwd invalid");
 264:C:/Users/stapi/OneDrive/Desktop/GD32VW553/V1_MQTT_OK/GD32VW55X_Wifi_BLE_SDK/GD32VW55x_RELEASE_V1.0.2/MSDK/cloud/alicloud/src/services/awss\awss_enrollee.c ****         return STATE_WIFI_ZCONFIG_REGISTAR_PARAMS_ERROR;
 265:C:/Users/stapi/OneDrive/Desktop/GD32VW553/V1_MQTT_OK/GD32VW55X_Wifi_BLE_SDK/GD32VW55x_RELEASE_V1.0.2/MSDK/cloud/alicloud/src/services/awss\awss_enrollee.c ****     }
 266:C:/Users/stapi/OneDrive/Desktop/GD32VW553/V1_MQTT_OK/GD32VW55X_Wifi_BLE_SDK/GD32VW55x_RELEASE_V1.0.2/MSDK/cloud/alicloud/src/services/awss\awss_enrollee.c **** 
 267:C:/Users/stapi/OneDrive/Desktop/GD32VW553/V1_MQTT_OK/GD32VW55X_Wifi_BLE_SDK/GD32VW55x_RELEASE_V1.0.2/MSDK/cloud/alicloud/src/services/awss\awss_enrollee.c ****     strncpy((char *)out_passwd, (const char *)tmp_passwd, OS_MAX_PASSWD_LEN - 1);
 268:C:/Users/stapi/OneDrive/Desktop/GD32VW553/V1_MQTT_OK/GD32VW55X_Wifi_BLE_SDK/GD32VW55x_RELEASE_V1.0.2/MSDK/cloud/alicloud/src/services/awss\awss_enrollee.c ****     strncpy((char *)out_ssid, (const char *)tmp_ssid, OS_MAX_SSID_LEN - 1);
 269:C:/Users/stapi/OneDrive/Desktop/GD32VW553/V1_MQTT_OK/GD32VW55X_Wifi_BLE_SDK/GD32VW55x_RELEASE_V1.0.2/MSDK/cloud/alicloud/src/services/awss\awss_enrollee.c ****     memcpy((char *)out_bssid, (char *)p_bssid, ETH_ALEN);
 270:C:/Users/stapi/OneDrive/Desktop/GD32VW553/V1_MQTT_OK/GD32VW55X_Wifi_BLE_SDK/GD32VW55x_RELEASE_V1.0.2/MSDK/cloud/alicloud/src/services/awss\awss_enrollee.c **** 
 271:C:/Users/stapi/OneDrive/Desktop/GD32VW553/V1_MQTT_OK/GD32VW55X_Wifi_BLE_SDK/GD32VW55x_RELEASE_V1.0.2/MSDK/cloud/alicloud/src/services/awss\awss_enrollee.c ****     if (ie_len <= ie_idx + ie[ie_idx]) {
 272:C:/Users/stapi/OneDrive/Desktop/GD32VW553/V1_MQTT_OK/GD32VW55X_Wifi_BLE_SDK/GD32VW55x_RELEASE_V1.0.2/MSDK/cloud/alicloud/src/services/awss\awss_enrollee.c ****         awss_debug("enr_hdl_regi:token out of range");
 273:C:/Users/stapi/OneDrive/Desktop/GD32VW553/V1_MQTT_OK/GD32VW55X_Wifi_BLE_SDK/GD32VW55x_RELEASE_V1.0.2/MSDK/cloud/alicloud/src/services/awss\awss_enrollee.c ****         return 0;
 274:C:/Users/stapi/OneDrive/Desktop/GD32VW553/V1_MQTT_OK/GD32VW55X_Wifi_BLE_SDK/GD32VW55x_RELEASE_V1.0.2/MSDK/cloud/alicloud/src/services/awss\awss_enrollee.c ****     }
 275:C:/Users/stapi/OneDrive/Desktop/GD32VW553/V1_MQTT_OK/GD32VW55X_Wifi_BLE_SDK/GD32VW55x_RELEASE_V1.0.2/MSDK/cloud/alicloud/src/services/awss\awss_enrollee.c ****     //awss_debug("ie_len %d > %d, to get token", ie_len, ie_idx + ie[ie_idx]);
 276:C:/Users/stapi/OneDrive/Desktop/GD32VW553/V1_MQTT_OK/GD32VW55X_Wifi_BLE_SDK/GD32VW55x_RELEASE_V1.0.2/MSDK/cloud/alicloud/src/services/awss\awss_enrollee.c ****     token_len = ie[ie_idx];
 277:C:/Users/stapi/OneDrive/Desktop/GD32VW553/V1_MQTT_OK/GD32VW55X_Wifi_BLE_SDK/GD32VW55x_RELEASE_V1.0.2/MSDK/cloud/alicloud/src/services/awss\awss_enrollee.c ****     if (token_len) {
 278:C:/Users/stapi/OneDrive/Desktop/GD32VW553/V1_MQTT_OK/GD32VW55X_Wifi_BLE_SDK/GD32VW55x_RELEASE_V1.0.2/MSDK/cloud/alicloud/src/services/awss\awss_enrollee.c ****         memcpy((char *)out_token, (char *)(ie + ie_idx + 1), token_len);
 279:C:/Users/stapi/OneDrive/Desktop/GD32VW553/V1_MQTT_OK/GD32VW55X_Wifi_BLE_SDK/GD32VW55x_RELEASE_V1.0.2/MSDK/cloud/alicloud/src/services/awss\awss_enrollee.c ****     }
 280:C:/Users/stapi/OneDrive/Desktop/GD32VW553/V1_MQTT_OK/GD32VW55X_Wifi_BLE_SDK/GD32VW55x_RELEASE_V1.0.2/MSDK/cloud/alicloud/src/services/awss\awss_enrollee.c ****     ie_idx += ie[ie_idx] + 1;                   // eating token
 281:C:/Users/stapi/OneDrive/Desktop/GD32VW553/V1_MQTT_OK/GD32VW55X_Wifi_BLE_SDK/GD32VW55x_RELEASE_V1.0.2/MSDK/cloud/alicloud/src/services/awss\awss_enrollee.c **** 
 282:C:/Users/stapi/OneDrive/Desktop/GD32VW553/V1_MQTT_OK/GD32VW55X_Wifi_BLE_SDK/GD32VW55x_RELEASE_V1.0.2/MSDK/cloud/alicloud/src/services/awss\awss_enrollee.c ****     if (ie_len <= ie_idx) {
 283:C:/Users/stapi/OneDrive/Desktop/GD32VW553/V1_MQTT_OK/GD32VW55X_Wifi_BLE_SDK/GD32VW55x_RELEASE_V1.0.2/MSDK/cloud/alicloud/src/services/awss\awss_enrollee.c ****         awss_debug("enr_hdl_regi:no token type");
 284:C:/Users/stapi/OneDrive/Desktop/GD32VW553/V1_MQTT_OK/GD32VW55X_Wifi_BLE_SDK/GD32VW55x_RELEASE_V1.0.2/MSDK/cloud/alicloud/src/services/awss\awss_enrollee.c ****         return 0;
 285:C:/Users/stapi/OneDrive/Desktop/GD32VW553/V1_MQTT_OK/GD32VW55X_Wifi_BLE_SDK/GD32VW55x_RELEASE_V1.0.2/MSDK/cloud/alicloud/src/services/awss\awss_enrollee.c ****     }
 286:C:/Users/stapi/OneDrive/Desktop/GD32VW553/V1_MQTT_OK/GD32VW55X_Wifi_BLE_SDK/GD32VW55x_RELEASE_V1.0.2/MSDK/cloud/alicloud/src/services/awss\awss_enrollee.c ****     //awss_debug("ie_len %d > %d, to get token type", ie_len, ie_idx);
 287:C:/Users/stapi/OneDrive/Desktop/GD32VW553/V1_MQTT_OK/GD32VW55X_Wifi_BLE_SDK/GD32VW55x_RELEASE_V1.0.2/MSDK/cloud/alicloud/src/services/awss\awss_enrollee.c ****     token_type = ie[ie_idx];
 288:C:/Users/stapi/OneDrive/Desktop/GD32VW553/V1_MQTT_OK/GD32VW55X_Wifi_BLE_SDK/GD32VW55x_RELEASE_V1.0.2/MSDK/cloud/alicloud/src/services/awss\awss_enrollee.c ****     *out_token_type = token_type;
 289:C:/Users/stapi/OneDrive/Desktop/GD32VW553/V1_MQTT_OK/GD32VW55X_Wifi_BLE_SDK/GD32VW55x_RELEASE_V1.0.2/MSDK/cloud/alicloud/src/services/awss\awss_enrollee.c ****     if (token_len) {
 290:C:/Users/stapi/OneDrive/Desktop/GD32VW553/V1_MQTT_OK/GD32VW55X_Wifi_BLE_SDK/GD32VW55x_RELEASE_V1.0.2/MSDK/cloud/alicloud/src/services/awss\awss_enrollee.c ****         awss_set_token(out_token, token_type);
 291:C:/Users/stapi/OneDrive/Desktop/GD32VW553/V1_MQTT_OK/GD32VW55X_Wifi_BLE_SDK/GD32VW55x_RELEASE_V1.0.2/MSDK/cloud/alicloud/src/services/awss\awss_enrollee.c ****     }
 292:C:/Users/stapi/OneDrive/Desktop/GD32VW553/V1_MQTT_OK/GD32VW55X_Wifi_BLE_SDK/GD32VW55x_RELEASE_V1.0.2/MSDK/cloud/alicloud/src/services/awss\awss_enrollee.c ****     ie_idx++;                                   // eating token type  
 293:C:/Users/stapi/OneDrive/Desktop/GD32VW553/V1_MQTT_OK/GD32VW55X_Wifi_BLE_SDK/GD32VW55x_RELEASE_V1.0.2/MSDK/cloud/alicloud/src/services/awss\awss_enrollee.c ****     if (ie_len <= ie_idx) {
 294:C:/Users/stapi/OneDrive/Desktop/GD32VW553/V1_MQTT_OK/GD32VW55X_Wifi_BLE_SDK/GD32VW55x_RELEASE_V1.0.2/MSDK/cloud/alicloud/src/services/awss\awss_enrollee.c ****         awss_debug("enr_hdl_regi:no region ID");
 295:C:/Users/stapi/OneDrive/Desktop/GD32VW553/V1_MQTT_OK/GD32VW55X_Wifi_BLE_SDK/GD32VW55x_RELEASE_V1.0.2/MSDK/cloud/alicloud/src/services/awss\awss_enrollee.c ****         iotx_guider_set_dynamic_region(IOTX_CLOUD_REGION_INVALID);
 296:C:/Users/stapi/OneDrive/Desktop/GD32VW553/V1_MQTT_OK/GD32VW55X_Wifi_BLE_SDK/GD32VW55x_RELEASE_V1.0.2/MSDK/cloud/alicloud/src/services/awss\awss_enrollee.c ****         return 0;
 297:C:/Users/stapi/OneDrive/Desktop/GD32VW553/V1_MQTT_OK/GD32VW55X_Wifi_BLE_SDK/GD32VW55x_RELEASE_V1.0.2/MSDK/cloud/alicloud/src/services/awss\awss_enrollee.c ****     }
 298:C:/Users/stapi/OneDrive/Desktop/GD32VW553/V1_MQTT_OK/GD32VW55X_Wifi_BLE_SDK/GD32VW55x_RELEASE_V1.0.2/MSDK/cloud/alicloud/src/services/awss\awss_enrollee.c ****     //awss_debug("ie_len %d > %d, to get region id", ie_len, ie_idx);
 299:C:/Users/stapi/OneDrive/Desktop/GD32VW553/V1_MQTT_OK/GD32VW55X_Wifi_BLE_SDK/GD32VW55x_RELEASE_V1.0.2/MSDK/cloud/alicloud/src/services/awss\awss_enrollee.c ****     region_id = ie[ie_idx];
 300:C:/Users/stapi/OneDrive/Desktop/GD32VW553/V1_MQTT_OK/GD32VW55X_Wifi_BLE_SDK/GD32VW55x_RELEASE_V1.0.2/MSDK/cloud/alicloud/src/services/awss\awss_enrollee.c ****     iotx_guider_set_dynamic_region(region_id);
 301:C:/Users/stapi/OneDrive/Desktop/GD32VW553/V1_MQTT_OK/GD32VW55X_Wifi_BLE_SDK/GD32VW55x_RELEASE_V1.0.2/MSDK/cloud/alicloud/src/services/awss\awss_enrollee.c ****     ie_idx++;                                   // eating region id
 302:C:/Users/stapi/OneDrive/Desktop/GD32VW553/V1_MQTT_OK/GD32VW55X_Wifi_BLE_SDK/GD32VW55x_RELEASE_V1.0.2/MSDK/cloud/alicloud/src/services/awss\awss_enrollee.c **** 
 303:C:/Users/stapi/OneDrive/Desktop/GD32VW553/V1_MQTT_OK/GD32VW55X_Wifi_BLE_SDK/GD32VW55x_RELEASE_V1.0.2/MSDK/cloud/alicloud/src/services/awss\awss_enrollee.c ****     return 0;/* success */
 304:C:/Users/stapi/OneDrive/Desktop/GD32VW553/V1_MQTT_OK/GD32VW55X_Wifi_BLE_SDK/GD32VW55x_RELEASE_V1.0.2/MSDK/cloud/alicloud/src/services/awss\awss_enrollee.c **** }
 305:C:/Users/stapi/OneDrive/Desktop/GD32VW553/V1_MQTT_OK/GD32VW55X_Wifi_BLE_SDK/GD32VW55x_RELEASE_V1.0.2/MSDK/cloud/alicloud/src/services/awss\awss_enrollee.c **** 
 306:C:/Users/stapi/OneDrive/Desktop/GD32VW553/V1_MQTT_OK/GD32VW55X_Wifi_BLE_SDK/GD32VW55x_RELEASE_V1.0.2/MSDK/cloud/alicloud/src/services/awss\awss_enrollee.c **** int awss_enrollee_ieee80211_process(uint8_t *mgmt_header, int len, int link_type, struct parser_res
 307:C:/Users/stapi/OneDrive/Desktop/GD32VW553/V1_MQTT_OK/GD32VW55X_Wifi_BLE_SDK/GD32VW55x_RELEASE_V1.0.2/MSDK/cloud/alicloud/src/services/awss\awss_enrollee.c **** {
 772              		.loc 2 307 1 is_stmt 1
 773              		.cfi_startproc
 774              	.LVL58:
 308:C:/Users/stapi/OneDrive/Desktop/GD32VW553/V1_MQTT_OK/GD32VW55X_Wifi_BLE_SDK/GD32VW55x_RELEASE_V1.0.2/MSDK/cloud/alicloud/src/services/awss\awss_enrollee.c ****     const uint8_t *registrar_ie = NULL;
 775              		.loc 2 308 5
 309:C:/Users/stapi/OneDrive/Desktop/GD32VW553/V1_MQTT_OK/GD32VW55X_Wifi_BLE_SDK/GD32VW55x_RELEASE_V1.0.2/MSDK/cloud/alicloud/src/services/awss\awss_enrollee.c ****     struct ieee80211_hdr *hdr;
 776              		.loc 2 309 5
 310:C:/Users/stapi/OneDrive/Desktop/GD32VW553/V1_MQTT_OK/GD32VW55X_Wifi_BLE_SDK/GD32VW55x_RELEASE_V1.0.2/MSDK/cloud/alicloud/src/services/awss\awss_enrollee.c ****     uint16_t ieoffset;
 777              		.loc 2 310 5
 311:C:/Users/stapi/OneDrive/Desktop/GD32VW553/V1_MQTT_OK/GD32VW55X_Wifi_BLE_SDK/GD32VW55x_RELEASE_V1.0.2/MSDK/cloud/alicloud/src/services/awss\awss_enrollee.c ****     int fc;
 778              		.loc 2 311 5
 312:C:/Users/stapi/OneDrive/Desktop/GD32VW553/V1_MQTT_OK/GD32VW55X_Wifi_BLE_SDK/GD32VW55x_RELEASE_V1.0.2/MSDK/cloud/alicloud/src/services/awss\awss_enrollee.c **** 
 313:C:/Users/stapi/OneDrive/Desktop/GD32VW553/V1_MQTT_OK/GD32VW55X_Wifi_BLE_SDK/GD32VW55x_RELEASE_V1.0.2/MSDK/cloud/alicloud/src/services/awss\awss_enrollee.c ****     /*
 314:C:/Users/stapi/OneDrive/Desktop/GD32VW553/V1_MQTT_OK/GD32VW55X_Wifi_BLE_SDK/GD32VW55x_RELEASE_V1.0.2/MSDK/cloud/alicloud/src/services/awss\awss_enrollee.c ****      * when device try to connect current router (include adha and aha)
 315:C:/Users/stapi/OneDrive/Desktop/GD32VW553/V1_MQTT_OK/GD32VW55X_Wifi_BLE_SDK/GD32VW55x_RELEASE_V1.0.2/MSDK/cloud/alicloud/src/services/awss\awss_enrollee.c ****      * skip the new aha and process the new aha in the next scope.
 316:C:/Users/stapi/OneDrive/Desktop/GD32VW553/V1_MQTT_OK/GD32VW55X_Wifi_BLE_SDK/GD32VW55x_RELEASE_V1.0.2/MSDK/cloud/alicloud/src/services/awss\awss_enrollee.c ****      */
 317:C:/Users/stapi/OneDrive/Desktop/GD32VW553/V1_MQTT_OK/GD32VW55X_Wifi_BLE_SDK/GD32VW55x_RELEASE_V1.0.2/MSDK/cloud/alicloud/src/services/awss\awss_enrollee.c ****     if (mgmt_header == NULL || zconfig_finished)
 779              		.loc 2 317 5
 780              		.loc 2 317 8 is_stmt 0
 781 0000 19E1     		bne	a0,zero,.L31
 782              	.L48:
 318:C:/Users/stapi/OneDrive/Desktop/GD32VW553/V1_MQTT_OK/GD32VW55X_Wifi_BLE_SDK/GD32VW55x_RELEASE_V1.0.2/MSDK/cloud/alicloud/src/services/awss\awss_enrollee.c ****         return ALINK_INVALID;
 783              		.loc 2 318 16
 784 0002 0145     		li	a0,0
 785              	.LVL59:
 319:C:/Users/stapi/OneDrive/Desktop/GD32VW553/V1_MQTT_OK/GD32VW55X_Wifi_BLE_SDK/GD32VW55x_RELEASE_V1.0.2/MSDK/cloud/alicloud/src/services/awss\awss_enrollee.c ****     /*
 320:C:/Users/stapi/OneDrive/Desktop/GD32VW553/V1_MQTT_OK/GD32VW55X_Wifi_BLE_SDK/GD32VW55x_RELEASE_V1.0.2/MSDK/cloud/alicloud/src/services/awss\awss_enrollee.c ****      * we don't process zconfig used by enrollee until user press configure button
 321:C:/Users/stapi/OneDrive/Desktop/GD32VW553/V1_MQTT_OK/GD32VW55X_Wifi_BLE_SDK/GD32VW55x_RELEASE_V1.0.2/MSDK/cloud/alicloud/src/services/awss\awss_enrollee.c ****      */
 322:C:/Users/stapi/OneDrive/Desktop/GD32VW553/V1_MQTT_OK/GD32VW55X_Wifi_BLE_SDK/GD32VW55x_RELEASE_V1.0.2/MSDK/cloud/alicloud/src/services/awss\awss_enrollee.c ****     if (awss_get_config_press() == 0)
 323:C:/Users/stapi/OneDrive/Desktop/GD32VW553/V1_MQTT_OK/GD32VW55X_Wifi_BLE_SDK/GD32VW55x_RELEASE_V1.0.2/MSDK/cloud/alicloud/src/services/awss\awss_enrollee.c ****         return ALINK_INVALID;
 324:C:/Users/stapi/OneDrive/Desktop/GD32VW553/V1_MQTT_OK/GD32VW55X_Wifi_BLE_SDK/GD32VW55x_RELEASE_V1.0.2/MSDK/cloud/alicloud/src/services/awss\awss_enrollee.c **** 
 325:C:/Users/stapi/OneDrive/Desktop/GD32VW553/V1_MQTT_OK/GD32VW55X_Wifi_BLE_SDK/GD32VW55x_RELEASE_V1.0.2/MSDK/cloud/alicloud/src/services/awss\awss_enrollee.c ****     hdr = (struct ieee80211_hdr *)mgmt_header;
 326:C:/Users/stapi/OneDrive/Desktop/GD32VW553/V1_MQTT_OK/GD32VW55X_Wifi_BLE_SDK/GD32VW55x_RELEASE_V1.0.2/MSDK/cloud/alicloud/src/services/awss\awss_enrollee.c ****     fc = hdr->frame_control;
 327:C:/Users/stapi/OneDrive/Desktop/GD32VW553/V1_MQTT_OK/GD32VW55X_Wifi_BLE_SDK/GD32VW55x_RELEASE_V1.0.2/MSDK/cloud/alicloud/src/services/awss\awss_enrollee.c **** 
 328:C:/Users/stapi/OneDrive/Desktop/GD32VW553/V1_MQTT_OK/GD32VW55X_Wifi_BLE_SDK/GD32VW55x_RELEASE_V1.0.2/MSDK/cloud/alicloud/src/services/awss\awss_enrollee.c ****     if (!ieee80211_is_probe_req(fc) && !ieee80211_is_probe_resp(fc))
 329:C:/Users/stapi/OneDrive/Desktop/GD32VW553/V1_MQTT_OK/GD32VW55X_Wifi_BLE_SDK/GD32VW55x_RELEASE_V1.0.2/MSDK/cloud/alicloud/src/services/awss\awss_enrollee.c ****         return ALINK_INVALID;
 330:C:/Users/stapi/OneDrive/Desktop/GD32VW553/V1_MQTT_OK/GD32VW55X_Wifi_BLE_SDK/GD32VW55x_RELEASE_V1.0.2/MSDK/cloud/alicloud/src/services/awss\awss_enrollee.c **** 
 331:C:/Users/stapi/OneDrive/Desktop/GD32VW553/V1_MQTT_OK/GD32VW55X_Wifi_BLE_SDK/GD32VW55x_RELEASE_V1.0.2/MSDK/cloud/alicloud/src/services/awss\awss_enrollee.c ****     ieoffset = offsetof(struct ieee80211_mgmt, u.probe_resp.variable);
 332:C:/Users/stapi/OneDrive/Desktop/GD32VW553/V1_MQTT_OK/GD32VW55X_Wifi_BLE_SDK/GD32VW55x_RELEASE_V1.0.2/MSDK/cloud/alicloud/src/services/awss\awss_enrollee.c ****     if (ieoffset > len)
 333:C:/Users/stapi/OneDrive/Desktop/GD32VW553/V1_MQTT_OK/GD32VW55X_Wifi_BLE_SDK/GD32VW55x_RELEASE_V1.0.2/MSDK/cloud/alicloud/src/services/awss\awss_enrollee.c ****         return ALINK_INVALID;
 334:C:/Users/stapi/OneDrive/Desktop/GD32VW553/V1_MQTT_OK/GD32VW55X_Wifi_BLE_SDK/GD32VW55x_RELEASE_V1.0.2/MSDK/cloud/alicloud/src/services/awss\awss_enrollee.c **** 
 335:C:/Users/stapi/OneDrive/Desktop/GD32VW553/V1_MQTT_OK/GD32VW55X_Wifi_BLE_SDK/GD32VW55x_RELEASE_V1.0.2/MSDK/cloud/alicloud/src/services/awss\awss_enrollee.c ****     registrar_ie = (const uint8_t *)cfg80211_find_vendor_ie(WLAN_OUI_ALIBABA,
 336:C:/Users/stapi/OneDrive/Desktop/GD32VW553/V1_MQTT_OK/GD32VW55X_Wifi_BLE_SDK/GD32VW55x_RELEASE_V1.0.2/MSDK/cloud/alicloud/src/services/awss\awss_enrollee.c ****             WLAN_OUI_TYPE_REGISTRAR, mgmt_header + ieoffset, len - ieoffset);
 337:C:/Users/stapi/OneDrive/Desktop/GD32VW553/V1_MQTT_OK/GD32VW55X_Wifi_BLE_SDK/GD32VW55x_RELEASE_V1.0.2/MSDK/cloud/alicloud/src/services/awss\awss_enrollee.c ****     if (registrar_ie == NULL)
 338:C:/Users/stapi/OneDrive/Desktop/GD32VW553/V1_MQTT_OK/GD32VW55X_Wifi_BLE_SDK/GD32VW55x_RELEASE_V1.0.2/MSDK/cloud/alicloud/src/services/awss\awss_enrollee.c ****         return ALINK_INVALID;
 339:C:/Users/stapi/OneDrive/Desktop/GD32VW553/V1_MQTT_OK/GD32VW55X_Wifi_BLE_SDK/GD32VW55x_RELEASE_V1.0.2/MSDK/cloud/alicloud/src/services/awss\awss_enrollee.c **** 
 340:C:/Users/stapi/OneDrive/Desktop/GD32VW553/V1_MQTT_OK/GD32VW55X_Wifi_BLE_SDK/GD32VW55x_RELEASE_V1.0.2/MSDK/cloud/alicloud/src/services/awss\awss_enrollee.c ****     res->u.ie.alink_ie_len = len - (registrar_ie - mgmt_header);
 341:C:/Users/stapi/OneDrive/Desktop/GD32VW553/V1_MQTT_OK/GD32VW55X_Wifi_BLE_SDK/GD32VW55x_RELEASE_V1.0.2/MSDK/cloud/alicloud/src/services/awss\awss_enrollee.c ****     res->u.ie.alink_ie = (uint8_t *)registrar_ie;
 342:C:/Users/stapi/OneDrive/Desktop/GD32VW553/V1_MQTT_OK/GD32VW55X_Wifi_BLE_SDK/GD32VW55x_RELEASE_V1.0.2/MSDK/cloud/alicloud/src/services/awss\awss_enrollee.c **** 
 343:C:/Users/stapi/OneDrive/Desktop/GD32VW553/V1_MQTT_OK/GD32VW55X_Wifi_BLE_SDK/GD32VW55x_RELEASE_V1.0.2/MSDK/cloud/alicloud/src/services/awss\awss_enrollee.c ****     awss_debug("enr_hdl_regi: rx respA");
 344:C:/Users/stapi/OneDrive/Desktop/GD32VW553/V1_MQTT_OK/GD32VW55X_Wifi_BLE_SDK/GD32VW55x_RELEASE_V1.0.2/MSDK/cloud/alicloud/src/services/awss\awss_enrollee.c **** #if ZERO_AWSS_VERBOSE_DBG
 345:C:/Users/stapi/OneDrive/Desktop/GD32VW553/V1_MQTT_OK/GD32VW55X_Wifi_BLE_SDK/GD32VW55x_RELEASE_V1.0.2/MSDK/cloud/alicloud/src/services/awss\awss_enrollee.c ****     zconfig_dump_hex((uint8_t *)registrar_ie, len - (registrar_ie - mgmt_header), 24);
 346:C:/Users/stapi/OneDrive/Desktop/GD32VW553/V1_MQTT_OK/GD32VW55X_Wifi_BLE_SDK/GD32VW55x_RELEASE_V1.0.2/MSDK/cloud/alicloud/src/services/awss\awss_enrollee.c **** #endif
 347:C:/Users/stapi/OneDrive/Desktop/GD32VW553/V1_MQTT_OK/GD32VW55X_Wifi_BLE_SDK/GD32VW55x_RELEASE_V1.0.2/MSDK/cloud/alicloud/src/services/awss\awss_enrollee.c ****     return ALINK_ZERO_CONFIG;
 348:C:/Users/stapi/OneDrive/Desktop/GD32VW553/V1_MQTT_OK/GD32VW55X_Wifi_BLE_SDK/GD32VW55x_RELEASE_V1.0.2/MSDK/cloud/alicloud/src/services/awss\awss_enrollee.c **** }
 786              		.loc 2 348 1
 787 0004 8280     		ret
 788              	.LVL60:
 789              	.L31:
 317:C:/Users/stapi/OneDrive/Desktop/GD32VW553/V1_MQTT_OK/GD32VW55X_Wifi_BLE_SDK/GD32VW55x_RELEASE_V1.0.2/MSDK/cloud/alicloud/src/services/awss\awss_enrollee.c ****         return ALINK_INVALID;
 790              		.loc 2 317 29 discriminator 1
 791 0006 B7070000 		lui	a5,%hi(zconfig_finished)
 792 000a 83C70700 		lbu	a5,%lo(zconfig_finished)(a5)
 793 000e F5FB     		bne	a5,zero,.L48
 307:C:/Users/stapi/OneDrive/Desktop/GD32VW553/V1_MQTT_OK/GD32VW55X_Wifi_BLE_SDK/GD32VW55x_RELEASE_V1.0.2/MSDK/cloud/alicloud/src/services/awss\awss_enrollee.c ****     const uint8_t *registrar_ie = NULL;
 794              		.loc 2 307 1
 795 0010 17030000 		call	t0,__riscv_save_4
 795      E7020300 
 796              		.cfi_offset 19, -20
 797              		.cfi_offset 18, -16
 798              		.cfi_offset 9, -12
 799              		.cfi_offset 8, -8
 800              		.cfi_offset 1, -4
 801              		.cfi_def_cfa_offset 32
 802 0018 2A84     		mv	s0,a0
 803 001a AE84     		mv	s1,a1
 804 001c 3689     		mv	s2,a3
 322:C:/Users/stapi/OneDrive/Desktop/GD32VW553/V1_MQTT_OK/GD32VW55X_Wifi_BLE_SDK/GD32VW55x_RELEASE_V1.0.2/MSDK/cloud/alicloud/src/services/awss\awss_enrollee.c ****         return ALINK_INVALID;
 805              		.loc 2 322 5 is_stmt 1
 322:C:/Users/stapi/OneDrive/Desktop/GD32VW553/V1_MQTT_OK/GD32VW55X_Wifi_BLE_SDK/GD32VW55x_RELEASE_V1.0.2/MSDK/cloud/alicloud/src/services/awss\awss_enrollee.c ****         return ALINK_INVALID;
 806              		.loc 2 322 9 is_stmt 0
 807 001e 97000000 		call	awss_get_config_press
 807      E7800000 
 808              	.LVL61:
 322:C:/Users/stapi/OneDrive/Desktop/GD32VW553/V1_MQTT_OK/GD32VW55X_Wifi_BLE_SDK/GD32VW55x_RELEASE_V1.0.2/MSDK/cloud/alicloud/src/services/awss\awss_enrollee.c ****         return ALINK_INVALID;
 809              		.loc 2 322 8
 810 0026 3DCD     		beq	a0,zero,.L33
 325:C:/Users/stapi/OneDrive/Desktop/GD32VW553/V1_MQTT_OK/GD32VW55X_Wifi_BLE_SDK/GD32VW55x_RELEASE_V1.0.2/MSDK/cloud/alicloud/src/services/awss\awss_enrollee.c ****     fc = hdr->frame_control;
 811              		.loc 2 325 5 is_stmt 1
 812              	.LVL62:
 326:C:/Users/stapi/OneDrive/Desktop/GD32VW553/V1_MQTT_OK/GD32VW55X_Wifi_BLE_SDK/GD32VW55x_RELEASE_V1.0.2/MSDK/cloud/alicloud/src/services/awss\awss_enrollee.c **** 
 813              		.loc 2 326 5
 326:C:/Users/stapi/OneDrive/Desktop/GD32VW553/V1_MQTT_OK/GD32VW55X_Wifi_BLE_SDK/GD32VW55x_RELEASE_V1.0.2/MSDK/cloud/alicloud/src/services/awss\awss_enrollee.c **** 
 814              		.loc 2 326 13 is_stmt 0
 815 0028 83590400 		lhu	s3,0(s0)
 816              	.LVL63:
 328:C:/Users/stapi/OneDrive/Desktop/GD32VW553/V1_MQTT_OK/GD32VW55X_Wifi_BLE_SDK/GD32VW55x_RELEASE_V1.0.2/MSDK/cloud/alicloud/src/services/awss\awss_enrollee.c ****         return ALINK_INVALID;
 817              		.loc 2 328 5 is_stmt 1
 328:C:/Users/stapi/OneDrive/Desktop/GD32VW553/V1_MQTT_OK/GD32VW55X_Wifi_BLE_SDK/GD32VW55x_RELEASE_V1.0.2/MSDK/cloud/alicloud/src/services/awss\awss_enrollee.c ****         return ALINK_INVALID;
 818              		.loc 2 328 10 is_stmt 0
 819 002c 4E85     		mv	a0,s3
 820 002e 97000000 		call	ieee80211_is_probe_req
 820      E7800000 
 821              	.LVL64:
 328:C:/Users/stapi/OneDrive/Desktop/GD32VW553/V1_MQTT_OK/GD32VW55X_Wifi_BLE_SDK/GD32VW55x_RELEASE_V1.0.2/MSDK/cloud/alicloud/src/services/awss\awss_enrollee.c ****         return ALINK_INVALID;
 822              		.loc 2 328 8
 823 0036 2DC1     		beq	a0,zero,.L34
 824              	.L36:
 331:C:/Users/stapi/OneDrive/Desktop/GD32VW553/V1_MQTT_OK/GD32VW55X_Wifi_BLE_SDK/GD32VW55x_RELEASE_V1.0.2/MSDK/cloud/alicloud/src/services/awss\awss_enrollee.c ****     if (ieoffset > len)
 825              		.loc 2 331 5 is_stmt 1
 826              	.LVL65:
 332:C:/Users/stapi/OneDrive/Desktop/GD32VW553/V1_MQTT_OK/GD32VW55X_Wifi_BLE_SDK/GD32VW55x_RELEASE_V1.0.2/MSDK/cloud/alicloud/src/services/awss\awss_enrollee.c ****         return ALINK_INVALID;
 827              		.loc 2 332 5
 332:C:/Users/stapi/OneDrive/Desktop/GD32VW553/V1_MQTT_OK/GD32VW55X_Wifi_BLE_SDK/GD32VW55x_RELEASE_V1.0.2/MSDK/cloud/alicloud/src/services/awss\awss_enrollee.c ****         return ALINK_INVALID;
 828              		.loc 2 332 8 is_stmt 0
 829 0038 93073002 		li	a5,35
 830 003c 63D49706 		ble	s1,a5,.L33
 335:C:/Users/stapi/OneDrive/Desktop/GD32VW553/V1_MQTT_OK/GD32VW55X_Wifi_BLE_SDK/GD32VW55x_RELEASE_V1.0.2/MSDK/cloud/alicloud/src/services/awss\awss_enrollee.c ****             WLAN_OUI_TYPE_REGISTRAR, mgmt_header + ieoffset, len - ieoffset);
 831              		.loc 2 335 5 is_stmt 1
 335:C:/Users/stapi/OneDrive/Desktop/GD32VW553/V1_MQTT_OK/GD32VW55X_Wifi_BLE_SDK/GD32VW55x_RELEASE_V1.0.2/MSDK/cloud/alicloud/src/services/awss\awss_enrollee.c ****             WLAN_OUI_TYPE_REGISTRAR, mgmt_header + ieoffset, len - ieoffset);
 832              		.loc 2 335 20 is_stmt 0
 833 0040 3795D800 		li	a0,14192640
 834 0044 9386C4FD 		addi	a3,s1,-36
 835 0048 13064402 		addi	a2,s0,36
 836 004c 9305B00A 		li	a1,171
 837 0050 1305056E 		addi	a0,a0,1760
 838 0054 97000000 		call	cfg80211_find_vendor_ie
 838      E7800000 
 839              	.LVL66:
 337:C:/Users/stapi/OneDrive/Desktop/GD32VW553/V1_MQTT_OK/GD32VW55X_Wifi_BLE_SDK/GD32VW55x_RELEASE_V1.0.2/MSDK/cloud/alicloud/src/services/awss\awss_enrollee.c ****         return ALINK_INVALID;
 840              		.loc 2 337 5 is_stmt 1
 337:C:/Users/stapi/OneDrive/Desktop/GD32VW553/V1_MQTT_OK/GD32VW55X_Wifi_BLE_SDK/GD32VW55x_RELEASE_V1.0.2/MSDK/cloud/alicloud/src/services/awss\awss_enrollee.c ****         return ALINK_INVALID;
 841              		.loc 2 337 8 is_stmt 0
 842 005c 21C5     		beq	a0,zero,.L33
 340:C:/Users/stapi/OneDrive/Desktop/GD32VW553/V1_MQTT_OK/GD32VW55X_Wifi_BLE_SDK/GD32VW55x_RELEASE_V1.0.2/MSDK/cloud/alicloud/src/services/awss\awss_enrollee.c ****     res->u.ie.alink_ie = (uint8_t *)registrar_ie;
 843              		.loc 2 340 5 is_stmt 1
 340:C:/Users/stapi/OneDrive/Desktop/GD32VW553/V1_MQTT_OK/GD32VW55X_Wifi_BLE_SDK/GD32VW55x_RELEASE_V1.0.2/MSDK/cloud/alicloud/src/services/awss\awss_enrollee.c ****     res->u.ie.alink_ie = (uint8_t *)registrar_ie;
 844              		.loc 2 340 50 is_stmt 0
 845 005e 33048540 		sub	s0,a0,s0
 846              	.LVL67:
 341:C:/Users/stapi/OneDrive/Desktop/GD32VW553/V1_MQTT_OK/GD32VW55X_Wifi_BLE_SDK/GD32VW55x_RELEASE_V1.0.2/MSDK/cloud/alicloud/src/services/awss\awss_enrollee.c **** 
 847              		.loc 2 341 24
 848 0062 2320A900 		sw	a0,0(s2)
 340:C:/Users/stapi/OneDrive/Desktop/GD32VW553/V1_MQTT_OK/GD32VW55X_Wifi_BLE_SDK/GD32VW55x_RELEASE_V1.0.2/MSDK/cloud/alicloud/src/services/awss\awss_enrollee.c ****     res->u.ie.alink_ie = (uint8_t *)registrar_ie;
 849              		.loc 2 340 34
 850 0066 33848440 		sub	s0,s1,s0
 343:C:/Users/stapi/OneDrive/Desktop/GD32VW553/V1_MQTT_OK/GD32VW55X_Wifi_BLE_SDK/GD32VW55x_RELEASE_V1.0.2/MSDK/cloud/alicloud/src/services/awss\awss_enrollee.c **** #if ZERO_AWSS_VERBOSE_DBG
 851              		.loc 2 343 5
 852 006a 37070000 		lui	a4,%hi(.LC8)
 853 006e B7050000 		lui	a1,%hi(.LANCHOR5)
 854 0072 37050000 		lui	a0,%hi(.LC6)
 855              	.LVL68:
 856 0076 13050500 		addi	a0,a0,%lo(.LC6)
 340:C:/Users/stapi/OneDrive/Desktop/GD32VW553/V1_MQTT_OK/GD32VW55X_Wifi_BLE_SDK/GD32VW55x_RELEASE_V1.0.2/MSDK/cloud/alicloud/src/services/awss\awss_enrollee.c ****     res->u.ie.alink_ie = (uint8_t *)registrar_ie;
 857              		.loc 2 340 28
 858 007a 23128900 		sh	s0,4(s2)
 341:C:/Users/stapi/OneDrive/Desktop/GD32VW553/V1_MQTT_OK/GD32VW55X_Wifi_BLE_SDK/GD32VW55x_RELEASE_V1.0.2/MSDK/cloud/alicloud/src/services/awss\awss_enrollee.c **** 
 859              		.loc 2 341 5 is_stmt 1
 343:C:/Users/stapi/OneDrive/Desktop/GD32VW553/V1_MQTT_OK/GD32VW55X_Wifi_BLE_SDK/GD32VW55x_RELEASE_V1.0.2/MSDK/cloud/alicloud/src/services/awss\awss_enrollee.c **** #if ZERO_AWSS_VERBOSE_DBG
 860              		.loc 2 343 5
 861 007e 13070700 		addi	a4,a4,%lo(.LC8)
 862 0082 9546     		li	a3,5
 863 0084 13067015 		li	a2,343
 864 0088 93850500 		addi	a1,a1,%lo(.LANCHOR5)
 865 008c 97000000 		call	LITE_syslog
 865      E7800000 
 866              	.LVL69:
 347:C:/Users/stapi/OneDrive/Desktop/GD32VW553/V1_MQTT_OK/GD32VW55X_Wifi_BLE_SDK/GD32VW55x_RELEASE_V1.0.2/MSDK/cloud/alicloud/src/services/awss\awss_enrollee.c **** }
 867              		.loc 2 347 5
 347:C:/Users/stapi/OneDrive/Desktop/GD32VW553/V1_MQTT_OK/GD32VW55X_Wifi_BLE_SDK/GD32VW55x_RELEASE_V1.0.2/MSDK/cloud/alicloud/src/services/awss\awss_enrollee.c **** }
 868              		.loc 2 347 12 is_stmt 0
 869 0094 1945     		li	a0,6
 870 0096 01A8     		j	.L30
 871              	.LVL70:
 872              	.L34:
 328:C:/Users/stapi/OneDrive/Desktop/GD32VW553/V1_MQTT_OK/GD32VW55X_Wifi_BLE_SDK/GD32VW55x_RELEASE_V1.0.2/MSDK/cloud/alicloud/src/services/awss\awss_enrollee.c ****         return ALINK_INVALID;
 873              		.loc 2 328 41 discriminator 1
 874 0098 4E85     		mv	a0,s3
 875 009a 97000000 		call	ieee80211_is_probe_resp
 875      E7800000 
 876              	.LVL71:
 328:C:/Users/stapi/OneDrive/Desktop/GD32VW553/V1_MQTT_OK/GD32VW55X_Wifi_BLE_SDK/GD32VW55x_RELEASE_V1.0.2/MSDK/cloud/alicloud/src/services/awss\awss_enrollee.c ****         return ALINK_INVALID;
 877              		.loc 2 328 37 discriminator 1
 878 00a2 59F9     		bne	a0,zero,.L36
 879              	.LVL72:
 880              	.L33:
 318:C:/Users/stapi/OneDrive/Desktop/GD32VW553/V1_MQTT_OK/GD32VW55X_Wifi_BLE_SDK/GD32VW55x_RELEASE_V1.0.2/MSDK/cloud/alicloud/src/services/awss\awss_enrollee.c ****     /*
 881              		.loc 2 318 16
 882 00a4 0145     		li	a0,0
 883              	.LVL73:
 884              	.L30:
 885              		.loc 2 348 1
 886 00a6 17030000 		tail	__riscv_restore_4
 886      67000300 
 887              		.cfi_restore 19
 888              		.cfi_restore 18
 889              		.cfi_restore 9
 890              		.cfi_restore 8
 891              		.cfi_restore 1
 892              		.cfi_def_cfa_offset 0
 893              		.cfi_endproc
 894              	.LFE53:
 896              		.section	.rodata.awss_enrollee_recv_callback.str1.4,"aMS",@progbits,1
 897              		.align	2
 898              	.LC9:
 899 0000 656E725F 		.string	"enr_hdl_regi type=%d unmatch"
 899      68646C5F 
 899      72656769 
 899      20747970 
 899      653D2564 
 900 001d 000000   		.align	2
 901              	.LC10:
 902 0020 656E725F 		.string	"enr_hdl_regi dn unmatch"
 902      68646C5F 
 902      72656769 
 902      20646E20 
 902      756E6D61 
 903              		.align	2
 904              	.LC11:
 905 0038 656E725F 		.string	"enr_hdl_regi frametype=%d unmatch"
 905      68646C5F 
 905      72656769 
 905      20667261 
 905      6D657479 
 906 005a 0000     		.align	2
 907              	.LC12:
 908 005c 656E725F 		.string	"enr_hdl_regi ssidlen=%d out of range"
 908      68646C5F 
 908      72656769 
 908      20737369 
 908      646C656E 
 909 0081 000000   		.align	2
 910              	.LC13:
 911 0084 656E725F 		.string	"enr_hdl_regi ssid:%s"
 911      68646C5F 
 911      72656769 
 911      20737369 
 911      643A2573 
 912 0099 000000   		.align	2
 913              	.LC14:
 914 009c 656E725F 		.string	"enr_hdl_regi passwdlen=%d out of range"
 914      68646C5F 
 914      72656769 
 914      20706173 
 914      7377646C 
 915 00c3 00       		.align	2
 916              	.LC15:
 917 00c4 656E725F 		.string	"enr_hdl_regi bssid out of range"
 917      68646C5F 
 917      72656769 
 917      20627373 
 917      6964206F 
 918              		.align	2
 919              	.LC16:
 920 00e4 656E725F 		.string	"enr_hdl_regi(passwd invalid"
 920      68646C5F 
 920      72656769 
 920      28706173 
 920      73776420 
 921              		.align	2
 922              	.LC17:
 923 0100 656E725F 		.string	"enr_hdl_regi:token out of range"
 923      68646C5F 
 923      72656769 
 923      3A746F6B 
 923      656E206F 
 924              		.align	2
 925              	.LC18:
 926 0120 656E725F 		.string	"enr_hdl_regi:no token type"
 926      68646C5F 
 926      72656769 
 926      3A6E6F20 
 926      746F6B65 
 927 013b 00       		.align	2
 928              	.LC19:
 929 013c 656E725F 		.string	"enr_hdl_regi:no region ID"
 929      68646C5F 
 929      72656769 
 929      3A6E6F20 
 929      72656769 
 930              		.section	.text.awss_enrollee_recv_callback,"ax",@progbits
 931              		.align	1
 932              		.globl	awss_enrollee_recv_callback
 934              	awss_enrollee_recv_callback:
 935              	.LFB54:
 349:C:/Users/stapi/OneDrive/Desktop/GD32VW553/V1_MQTT_OK/GD32VW55X_Wifi_BLE_SDK/GD32VW55x_RELEASE_V1.0.2/MSDK/cloud/alicloud/src/services/awss\awss_enrollee.c **** 
 350:C:/Users/stapi/OneDrive/Desktop/GD32VW553/V1_MQTT_OK/GD32VW55X_Wifi_BLE_SDK/GD32VW55x_RELEASE_V1.0.2/MSDK/cloud/alicloud/src/services/awss\awss_enrollee.c **** int awss_enrollee_recv_callback(struct parser_res *res)
 351:C:/Users/stapi/OneDrive/Desktop/GD32VW553/V1_MQTT_OK/GD32VW55X_Wifi_BLE_SDK/GD32VW55x_RELEASE_V1.0.2/MSDK/cloud/alicloud/src/services/awss\awss_enrollee.c **** {
 936              		.loc 2 351 1 is_stmt 1
 937              		.cfi_startproc
 938              	.LVL74:
 939 0000 17030000 		call	t0,__riscv_save_12
 939      E7020300 
 940              		.cfi_offset 27, -52
 941              		.cfi_offset 26, -48
 942              		.cfi_offset 25, -44
 943              		.cfi_offset 24, -40
 944              		.cfi_offset 23, -36
 945              		.cfi_offset 22, -32
 946              		.cfi_offset 21, -28
 947              		.cfi_offset 20, -24
 948              		.cfi_offset 19, -20
 949              		.cfi_offset 18, -16
 950              		.cfi_offset 9, -12
 951              		.cfi_offset 8, -8
 952              		.cfi_offset 1, -4
 953              		.cfi_def_cfa_offset 64
 352:C:/Users/stapi/OneDrive/Desktop/GD32VW553/V1_MQTT_OK/GD32VW55X_Wifi_BLE_SDK/GD32VW55x_RELEASE_V1.0.2/MSDK/cloud/alicloud/src/services/awss\awss_enrollee.c ****     uint8_t tods = res->tods;
 954              		.loc 2 352 5
 955              	.LVL75:
 353:C:/Users/stapi/OneDrive/Desktop/GD32VW553/V1_MQTT_OK/GD32VW55X_Wifi_BLE_SDK/GD32VW55x_RELEASE_V1.0.2/MSDK/cloud/alicloud/src/services/awss\awss_enrollee.c ****     uint8_t channel = res->channel;
 956              		.loc 2 353 5
 354:C:/Users/stapi/OneDrive/Desktop/GD32VW553/V1_MQTT_OK/GD32VW55X_Wifi_BLE_SDK/GD32VW55x_RELEASE_V1.0.2/MSDK/cloud/alicloud/src/services/awss\awss_enrollee.c **** 
 355:C:/Users/stapi/OneDrive/Desktop/GD32VW553/V1_MQTT_OK/GD32VW55X_Wifi_BLE_SDK/GD32VW55x_RELEASE_V1.0.2/MSDK/cloud/alicloud/src/services/awss\awss_enrollee.c ****     uint8_t *ie = res->u.ie.alink_ie;
 957              		.loc 2 355 5
 958              		.loc 2 355 14 is_stmt 0
 959 0008 032C0500 		lw	s8,0(a0)
 960              	.LVL76:
 356:C:/Users/stapi/OneDrive/Desktop/GD32VW553/V1_MQTT_OK/GD32VW55X_Wifi_BLE_SDK/GD32VW55x_RELEASE_V1.0.2/MSDK/cloud/alicloud/src/services/awss\awss_enrollee.c ****     uint8_t ie_len = ie[IE_POS_IE_LEN] + 2;    // Vendor Spec Element(1 Byte) & ie length(1 Byte)
 961              		.loc 2 356 5 is_stmt 1
 357:C:/Users/stapi/OneDrive/Desktop/GD32VW553/V1_MQTT_OK/GD32VW55X_Wifi_BLE_SDK/GD32VW55x_RELEASE_V1.0.2/MSDK/cloud/alicloud/src/services/awss\awss_enrollee.c ****     int ret;
 358:C:/Users/stapi/OneDrive/Desktop/GD32VW553/V1_MQTT_OK/GD32VW55X_Wifi_BLE_SDK/GD32VW55x_RELEASE_V1.0.2/MSDK/cloud/alicloud/src/services/awss\awss_enrollee.c **** 
 359:C:/Users/stapi/OneDrive/Desktop/GD32VW553/V1_MQTT_OK/GD32VW55X_Wifi_BLE_SDK/GD32VW55x_RELEASE_V1.0.2/MSDK/cloud/alicloud/src/services/awss\awss_enrollee.c ****     if (res->u.ie.alink_ie_len < ie_len)
 962              		.loc 2 359 8 is_stmt 0
 963 000c 03574500 		lhu	a4,4(a0)
 351:C:/Users/stapi/OneDrive/Desktop/GD32VW553/V1_MQTT_OK/GD32VW55X_Wifi_BLE_SDK/GD32VW55x_RELEASE_V1.0.2/MSDK/cloud/alicloud/src/services/awss\awss_enrollee.c ****     uint8_t tods = res->tods;
 964              		.loc 2 351 1
 965 0010 1971     		addi	sp,sp,-128
 966              		.cfi_def_cfa_offset 192
 356:C:/Users/stapi/OneDrive/Desktop/GD32VW553/V1_MQTT_OK/GD32VW55X_Wifi_BLE_SDK/GD32VW55x_RELEASE_V1.0.2/MSDK/cloud/alicloud/src/services/awss\awss_enrollee.c ****     uint8_t ie_len = ie[IE_POS_IE_LEN] + 2;    // Vendor Spec Element(1 Byte) & ie length(1 Byte)
 967              		.loc 2 356 13
 968 0012 83471C00 		lbu	a5,1(s8)
 969 0016 8907     		addi	a5,a5,2
 970 0018 93F4F70F 		andi	s1,a5,0xff
 971              	.LVL77:
 357:C:/Users/stapi/OneDrive/Desktop/GD32VW553/V1_MQTT_OK/GD32VW55X_Wifi_BLE_SDK/GD32VW55x_RELEASE_V1.0.2/MSDK/cloud/alicloud/src/services/awss\awss_enrollee.c ****     int ret;
 972              		.loc 2 357 5 is_stmt 1
 973              		.loc 2 359 5
 974              		.loc 2 359 8 is_stmt 0
 975 001c 63699706 		bltu	a4,s1,.L71
 352:C:/Users/stapi/OneDrive/Desktop/GD32VW553/V1_MQTT_OK/GD32VW55X_Wifi_BLE_SDK/GD32VW55x_RELEASE_V1.0.2/MSDK/cloud/alicloud/src/services/awss\awss_enrollee.c ****     uint8_t channel = res->channel;
 976              		.loc 2 352 13
 977 0020 83474501 		lbu	a5,20(a0)
 978              	.LBB78:
 979              	.LBB79:
 178:C:/Users/stapi/OneDrive/Desktop/GD32VW553/V1_MQTT_OK/GD32VW55X_Wifi_BLE_SDK/GD32VW55x_RELEASE_V1.0.2/MSDK/cloud/alicloud/src/services/awss\awss_enrollee.c ****     uint8_t tmp_token[ZC_MAX_TOKEN_LEN] = {0};
 980              		.loc 2 178 13
 981 0024 7946     		li	a2,30
 982 0026 8145     		li	a1,0
 983              	.LBE79:
 984              	.LBE78:
 352:C:/Users/stapi/OneDrive/Desktop/GD32VW553/V1_MQTT_OK/GD32VW55X_Wifi_BLE_SDK/GD32VW55x_RELEASE_V1.0.2/MSDK/cloud/alicloud/src/services/awss\awss_enrollee.c ****     uint8_t channel = res->channel;
 985              		.loc 2 352 13
 986 0028 3EC2     		sw	a5,4(sp)
 353:C:/Users/stapi/OneDrive/Desktop/GD32VW553/V1_MQTT_OK/GD32VW55X_Wifi_BLE_SDK/GD32VW55x_RELEASE_V1.0.2/MSDK/cloud/alicloud/src/services/awss\awss_enrollee.c **** 
 987              		.loc 2 353 13
 988 002a 83475501 		lbu	a5,21(a0)
 989              	.LBB95:
 990              	.LBB86:
 178:C:/Users/stapi/OneDrive/Desktop/GD32VW553/V1_MQTT_OK/GD32VW55X_Wifi_BLE_SDK/GD32VW55x_RELEASE_V1.0.2/MSDK/cloud/alicloud/src/services/awss\awss_enrollee.c ****     uint8_t tmp_token[ZC_MAX_TOKEN_LEN] = {0};
 991              		.loc 2 178 13
 992 002e 6808     		addi	a0,sp,28
 993              	.LVL78:
 994 0030 02CC     		sw	zero,24(sp)
 995              	.LBE86:
 996              	.LBE95:
 353:C:/Users/stapi/OneDrive/Desktop/GD32VW553/V1_MQTT_OK/GD32VW55X_Wifi_BLE_SDK/GD32VW55x_RELEASE_V1.0.2/MSDK/cloud/alicloud/src/services/awss\awss_enrollee.c **** 
 997              		.loc 2 353 13
 998 0032 3EC4     		sw	a5,8(sp)
 360:C:/Users/stapi/OneDrive/Desktop/GD32VW553/V1_MQTT_OK/GD32VW55X_Wifi_BLE_SDK/GD32VW55x_RELEASE_V1.0.2/MSDK/cloud/alicloud/src/services/awss\awss_enrollee.c ****         return PKG_INVALID;
 361:C:/Users/stapi/OneDrive/Desktop/GD32VW553/V1_MQTT_OK/GD32VW55X_Wifi_BLE_SDK/GD32VW55x_RELEASE_V1.0.2/MSDK/cloud/alicloud/src/services/awss\awss_enrollee.c **** 
 362:C:/Users/stapi/OneDrive/Desktop/GD32VW553/V1_MQTT_OK/GD32VW55X_Wifi_BLE_SDK/GD32VW55x_RELEASE_V1.0.2/MSDK/cloud/alicloud/src/services/awss\awss_enrollee.c ****     ret = awss_enrollee_decrypt_passwd(ie, ie_len, zc_ssid, zc_passwd, zc_bssid, zc_token, zc_token
 999              		.loc 2 362 5 is_stmt 1
 1000              		.loc 2 362 52 is_stmt 0
 1001 0034 B7070000 		lui	a5,%hi(zconfig_data)
 1002              	.LVL79:
 1003 0038 03AA0700 		lw	s4,%lo(zconfig_data)(a5)
 1004              		.loc 2 362 11
 1005 003c 9307AA4E 		addi	a5,s4,1258
 1006 0040 3EC6     		sw	a5,12(sp)
 1007              	.LVL80:
 1008              	.LBB96:
 1009              	.LBB87:
 178:C:/Users/stapi/OneDrive/Desktop/GD32VW553/V1_MQTT_OK/GD32VW55X_Wifi_BLE_SDK/GD32VW55x_RELEASE_V1.0.2/MSDK/cloud/alicloud/src/services/awss\awss_enrollee.c ****     uint8_t tmp_token[ZC_MAX_TOKEN_LEN] = {0};
 1010              		.loc 2 178 13
 1011 0042 97000000 		call	memset
 1011      E7800000 
 1012              	.LVL81:
 178:C:/Users/stapi/OneDrive/Desktop/GD32VW553/V1_MQTT_OK/GD32VW55X_Wifi_BLE_SDK/GD32VW55x_RELEASE_V1.0.2/MSDK/cloud/alicloud/src/services/awss\awss_enrollee.c ****     uint8_t tmp_token[ZC_MAX_TOKEN_LEN] = {0};
 1013              		.loc 2 178 50
 1014 004a 1306E003 		li	a2,62
 1015 004e 8145     		li	a1,0
 1016 0050 8800     		addi	a0,sp,64
 1017 0052 02DE     		sw	zero,60(sp)
 1018 0054 97000000 		call	memset
 1018      E7800000 
 1019              	.LVL82:
 205:C:/Users/stapi/OneDrive/Desktop/GD32VW553/V1_MQTT_OK/GD32VW55X_Wifi_BLE_SDK/GD32VW55x_RELEASE_V1.0.2/MSDK/cloud/alicloud/src/services/awss\awss_enrollee.c ****         dump_awss_status(STATE_WIFI_ZCONFIG_REGISTAR_PARAMS_ERROR, "enr_hdl_regi type=%d unmatch", 
 1020              		.loc 2 205 8
 1021 005c 9947     		li	a5,6
 1022              	.LBE87:
 1023              	.LBE96:
 1024              		.loc 2 362 11
 1025 005e 930D9A4A 		addi	s11,s4,1193
 1026              	.LVL83:
 1027              	.LBB97:
 1028              	.LBB88:
 178:C:/Users/stapi/OneDrive/Desktop/GD32VW553/V1_MQTT_OK/GD32VW55X_Wifi_BLE_SDK/GD32VW55x_RELEASE_V1.0.2/MSDK/cloud/alicloud/src/services/awss\awss_enrollee.c ****     uint8_t tmp_token[ZC_MAX_TOKEN_LEN] = {0};
 1029              		.loc 2 178 5 is_stmt 1
 179:C:/Users/stapi/OneDrive/Desktop/GD32VW553/V1_MQTT_OK/GD32VW55X_Wifi_BLE_SDK/GD32VW55x_RELEASE_V1.0.2/MSDK/cloud/alicloud/src/services/awss\awss_enrollee.c ****     uint8_t *p_dev_name_sign = NULL, *p_ssid = NULL, *p_passwd = NULL, *p_bssid = NULL, *p_token = 
 1030              		.loc 2 179 5
 180:C:/Users/stapi/OneDrive/Desktop/GD32VW553/V1_MQTT_OK/GD32VW55X_Wifi_BLE_SDK/GD32VW55x_RELEASE_V1.0.2/MSDK/cloud/alicloud/src/services/awss\awss_enrollee.c ****     uint8_t dev_type_ver;
 1031              		.loc 2 180 5
 181:C:/Users/stapi/OneDrive/Desktop/GD32VW553/V1_MQTT_OK/GD32VW55X_Wifi_BLE_SDK/GD32VW55x_RELEASE_V1.0.2/MSDK/cloud/alicloud/src/services/awss\awss_enrollee.c ****     uint8_t ie_idx = 0;
 1032              		.loc 2 181 5
 182:C:/Users/stapi/OneDrive/Desktop/GD32VW553/V1_MQTT_OK/GD32VW55X_Wifi_BLE_SDK/GD32VW55x_RELEASE_V1.0.2/MSDK/cloud/alicloud/src/services/awss\awss_enrollee.c ****     uint8_t token_len = 0;
 1033              		.loc 2 182 5
 183:C:/Users/stapi/OneDrive/Desktop/GD32VW553/V1_MQTT_OK/GD32VW55X_Wifi_BLE_SDK/GD32VW55x_RELEASE_V1.0.2/MSDK/cloud/alicloud/src/services/awss\awss_enrollee.c ****     uint8_t token_type = 0;
 1034              		.loc 2 183 5
 184:C:/Users/stapi/OneDrive/Desktop/GD32VW553/V1_MQTT_OK/GD32VW55X_Wifi_BLE_SDK/GD32VW55x_RELEASE_V1.0.2/MSDK/cloud/alicloud/src/services/awss\awss_enrollee.c ****     uint8_t region_id;
 1035              		.loc 2 184 5
 185:C:/Users/stapi/OneDrive/Desktop/GD32VW553/V1_MQTT_OK/GD32VW55X_Wifi_BLE_SDK/GD32VW55x_RELEASE_V1.0.2/MSDK/cloud/alicloud/src/services/awss\awss_enrollee.c **** 
 1036              		.loc 2 185 5
 204:C:/Users/stapi/OneDrive/Desktop/GD32VW553/V1_MQTT_OK/GD32VW55X_Wifi_BLE_SDK/GD32VW55x_RELEASE_V1.0.2/MSDK/cloud/alicloud/src/services/awss\awss_enrollee.c ****     if ( (ie_len <= ie_idx) || ((ie[ie_idx] & 0x0F) != WLAN_VENDOR_DEVTYPE_ALINK_CLOUD) ) {
 1037              		.loc 2 204 5
 205:C:/Users/stapi/OneDrive/Desktop/GD32VW553/V1_MQTT_OK/GD32VW55X_Wifi_BLE_SDK/GD32VW55x_RELEASE_V1.0.2/MSDK/cloud/alicloud/src/services/awss\awss_enrollee.c ****         dump_awss_status(STATE_WIFI_ZCONFIG_REGISTAR_PARAMS_ERROR, "enr_hdl_regi type=%d unmatch", 
 1038              		.loc 2 205 5
