   1              		.file	"awss_info.c"
   2              		.option nopic
   3              		.attribute arch, "rv32i2p0_m2p0_a2p0_f2p0_c2p0_b_p0p94"
   4              		.attribute unaligned_access, 0
   5              		.attribute stack_align, 16
   6              		.text
   7              	.Ltext0:
   8              		.cfi_sections	.debug_frame
   9              		.section	.text.awss_release_connectap_monitor,"ax",@progbits
  10              		.align	1
  12              	awss_release_connectap_monitor:
  13              	.LFB48:
  14              		.file 1 "C:/Users/stapi/OneDrive/Desktop/GD32VW553/V1_MQTT_OK/GD32VW55X_Wifi_BLE_SDK/GD32VW55x_REL
   1:C:/Users/stapi/OneDrive/Desktop/GD32VW553/V1_MQTT_OK/GD32VW55X_Wifi_BLE_SDK/GD32VW55x_RELEASE_V1.0.2/MSDK/cloud/alicloud/src/services/awss\awss_info.c **** /*
   2:C:/Users/stapi/OneDrive/Desktop/GD32VW553/V1_MQTT_OK/GD32VW55X_Wifi_BLE_SDK/GD32VW55x_RELEASE_V1.0.2/MSDK/cloud/alicloud/src/services/awss\awss_info.c ****  * Copyright (C) 2015-2018 Alibaba Group Holding Limited
   3:C:/Users/stapi/OneDrive/Desktop/GD32VW553/V1_MQTT_OK/GD32VW55X_Wifi_BLE_SDK/GD32VW55x_RELEASE_V1.0.2/MSDK/cloud/alicloud/src/services/awss\awss_info.c ****  */
   4:C:/Users/stapi/OneDrive/Desktop/GD32VW553/V1_MQTT_OK/GD32VW55X_Wifi_BLE_SDK/GD32VW55x_RELEASE_V1.0.2/MSDK/cloud/alicloud/src/services/awss\awss_info.c **** 
   5:C:/Users/stapi/OneDrive/Desktop/GD32VW553/V1_MQTT_OK/GD32VW55X_Wifi_BLE_SDK/GD32VW55x_RELEASE_V1.0.2/MSDK/cloud/alicloud/src/services/awss\awss_info.c **** #include <stdio.h>
   6:C:/Users/stapi/OneDrive/Desktop/GD32VW553/V1_MQTT_OK/GD32VW55X_Wifi_BLE_SDK/GD32VW55x_RELEASE_V1.0.2/MSDK/cloud/alicloud/src/services/awss\awss_info.c **** #include <string.h>
   7:C:/Users/stapi/OneDrive/Desktop/GD32VW553/V1_MQTT_OK/GD32VW55X_Wifi_BLE_SDK/GD32VW55x_RELEASE_V1.0.2/MSDK/cloud/alicloud/src/services/awss\awss_info.c **** 
   8:C:/Users/stapi/OneDrive/Desktop/GD32VW553/V1_MQTT_OK/GD32VW55X_Wifi_BLE_SDK/GD32VW55x_RELEASE_V1.0.2/MSDK/cloud/alicloud/src/services/awss\awss_info.c **** #include "iot_import.h"
   9:C:/Users/stapi/OneDrive/Desktop/GD32VW553/V1_MQTT_OK/GD32VW55X_Wifi_BLE_SDK/GD32VW55x_RELEASE_V1.0.2/MSDK/cloud/alicloud/src/services/awss\awss_info.c **** #include "json_parser.h"
  10:C:/Users/stapi/OneDrive/Desktop/GD32VW553/V1_MQTT_OK/GD32VW55X_Wifi_BLE_SDK/GD32VW55x_RELEASE_V1.0.2/MSDK/cloud/alicloud/src/services/awss\awss_info.c **** #include "os.h"
  11:C:/Users/stapi/OneDrive/Desktop/GD32VW553/V1_MQTT_OK/GD32VW55X_Wifi_BLE_SDK/GD32VW55x_RELEASE_V1.0.2/MSDK/cloud/alicloud/src/services/awss\awss_info.c **** #include "awss_log.h"
  12:C:/Users/stapi/OneDrive/Desktop/GD32VW553/V1_MQTT_OK/GD32VW55X_Wifi_BLE_SDK/GD32VW55x_RELEASE_V1.0.2/MSDK/cloud/alicloud/src/services/awss\awss_info.c **** #include "awss_cmp.h"
  13:C:/Users/stapi/OneDrive/Desktop/GD32VW553/V1_MQTT_OK/GD32VW55X_Wifi_BLE_SDK/GD32VW55x_RELEASE_V1.0.2/MSDK/cloud/alicloud/src/services/awss\awss_info.c **** #include "awss_info.h"
  14:C:/Users/stapi/OneDrive/Desktop/GD32VW553/V1_MQTT_OK/GD32VW55X_Wifi_BLE_SDK/GD32VW55x_RELEASE_V1.0.2/MSDK/cloud/alicloud/src/services/awss\awss_info.c **** #include "awss_notify.h"
  15:C:/Users/stapi/OneDrive/Desktop/GD32VW553/V1_MQTT_OK/GD32VW55X_Wifi_BLE_SDK/GD32VW55x_RELEASE_V1.0.2/MSDK/cloud/alicloud/src/services/awss\awss_info.c **** #include "awss_packet.h"
  16:C:/Users/stapi/OneDrive/Desktop/GD32VW553/V1_MQTT_OK/GD32VW55X_Wifi_BLE_SDK/GD32VW55x_RELEASE_V1.0.2/MSDK/cloud/alicloud/src/services/awss\awss_info.c **** 
  17:C:/Users/stapi/OneDrive/Desktop/GD32VW553/V1_MQTT_OK/GD32VW55X_Wifi_BLE_SDK/GD32VW55x_RELEASE_V1.0.2/MSDK/cloud/alicloud/src/services/awss\awss_info.c **** #if defined(__cplusplus)  /* If this is a C++ compiler, use C linkage */
  18:C:/Users/stapi/OneDrive/Desktop/GD32VW553/V1_MQTT_OK/GD32VW55X_Wifi_BLE_SDK/GD32VW55x_RELEASE_V1.0.2/MSDK/cloud/alicloud/src/services/awss\awss_info.c **** extern "C"
  19:C:/Users/stapi/OneDrive/Desktop/GD32VW553/V1_MQTT_OK/GD32VW55X_Wifi_BLE_SDK/GD32VW55x_RELEASE_V1.0.2/MSDK/cloud/alicloud/src/services/awss\awss_info.c **** {
  20:C:/Users/stapi/OneDrive/Desktop/GD32VW553/V1_MQTT_OK/GD32VW55X_Wifi_BLE_SDK/GD32VW55x_RELEASE_V1.0.2/MSDK/cloud/alicloud/src/services/awss\awss_info.c **** #endif
  21:C:/Users/stapi/OneDrive/Desktop/GD32VW553/V1_MQTT_OK/GD32VW55X_Wifi_BLE_SDK/GD32VW55x_RELEASE_V1.0.2/MSDK/cloud/alicloud/src/services/awss\awss_info.c **** 
  22:C:/Users/stapi/OneDrive/Desktop/GD32VW553/V1_MQTT_OK/GD32VW55X_Wifi_BLE_SDK/GD32VW55x_RELEASE_V1.0.2/MSDK/cloud/alicloud/src/services/awss\awss_info.c **** #define AWSS_CONNAP_MONITOR_TIMEOUT_MS  (60 * 1000)
  23:C:/Users/stapi/OneDrive/Desktop/GD32VW553/V1_MQTT_OK/GD32VW55X_Wifi_BLE_SDK/GD32VW55x_RELEASE_V1.0.2/MSDK/cloud/alicloud/src/services/awss\awss_info.c **** 
  24:C:/Users/stapi/OneDrive/Desktop/GD32VW553/V1_MQTT_OK/GD32VW55X_Wifi_BLE_SDK/GD32VW55x_RELEASE_V1.0.2/MSDK/cloud/alicloud/src/services/awss\awss_info.c **** static char g_awss_connectap_info_avaliable = 0;
  25:C:/Users/stapi/OneDrive/Desktop/GD32VW553/V1_MQTT_OK/GD32VW55X_Wifi_BLE_SDK/GD32VW55x_RELEASE_V1.0.2/MSDK/cloud/alicloud/src/services/awss\awss_info.c **** static void *connectap_monitor_timer = NULL;
  26:C:/Users/stapi/OneDrive/Desktop/GD32VW553/V1_MQTT_OK/GD32VW55X_Wifi_BLE_SDK/GD32VW55x_RELEASE_V1.0.2/MSDK/cloud/alicloud/src/services/awss\awss_info.c **** static void *connectap_monitor_mutex = NULL;
  27:C:/Users/stapi/OneDrive/Desktop/GD32VW553/V1_MQTT_OK/GD32VW55X_Wifi_BLE_SDK/GD32VW55x_RELEASE_V1.0.2/MSDK/cloud/alicloud/src/services/awss\awss_info.c **** 
  28:C:/Users/stapi/OneDrive/Desktop/GD32VW553/V1_MQTT_OK/GD32VW55X_Wifi_BLE_SDK/GD32VW55x_RELEASE_V1.0.2/MSDK/cloud/alicloud/src/services/awss\awss_info.c **** static void awss_release_connectap_monitor()
  29:C:/Users/stapi/OneDrive/Desktop/GD32VW553/V1_MQTT_OK/GD32VW55X_Wifi_BLE_SDK/GD32VW55x_RELEASE_V1.0.2/MSDK/cloud/alicloud/src/services/awss\awss_info.c **** {
  15              		.loc 1 29 1
  16              		.cfi_startproc
  17 0000 17030000 		call	t0,__riscv_save_1
  17      E7020300 
  18              		.cfi_offset 8, -8
  19              		.cfi_offset 1, -4
  20              		.cfi_def_cfa_offset 16
  30:C:/Users/stapi/OneDrive/Desktop/GD32VW553/V1_MQTT_OK/GD32VW55X_Wifi_BLE_SDK/GD32VW55x_RELEASE_V1.0.2/MSDK/cloud/alicloud/src/services/awss\awss_info.c ****     if (connectap_monitor_timer) {
  21              		.loc 1 30 5
  22              		.loc 1 30 9 is_stmt 0
  23 0008 37040000 		lui	s0,%hi(.LANCHOR0)
  24 000c 13040400 		addi	s0,s0,%lo(.LANCHOR0)
  25 0010 0840     		lw	a0,0(s0)
  26              		.loc 1 30 8
  27 0012 01CD     		beq	a0,zero,.L2
  31:C:/Users/stapi/OneDrive/Desktop/GD32VW553/V1_MQTT_OK/GD32VW55X_Wifi_BLE_SDK/GD32VW55x_RELEASE_V1.0.2/MSDK/cloud/alicloud/src/services/awss\awss_info.c ****         HAL_Timer_Stop(connectap_monitor_timer);
  28              		.loc 1 31 9 is_stmt 1
  29 0014 97000000 		call	HAL_Timer_Stop
  29      E7800000 
  30              	.LVL0:
  32:C:/Users/stapi/OneDrive/Desktop/GD32VW553/V1_MQTT_OK/GD32VW55X_Wifi_BLE_SDK/GD32VW55x_RELEASE_V1.0.2/MSDK/cloud/alicloud/src/services/awss\awss_info.c ****         HAL_Timer_Delete(connectap_monitor_timer);
  31              		.loc 1 32 9
  32 001c 0840     		lw	a0,0(s0)
  33 001e 97000000 		call	HAL_Timer_Delete
  33      E7800000 
  34              	.LVL1:
  33:C:/Users/stapi/OneDrive/Desktop/GD32VW553/V1_MQTT_OK/GD32VW55X_Wifi_BLE_SDK/GD32VW55x_RELEASE_V1.0.2/MSDK/cloud/alicloud/src/services/awss\awss_info.c ****         connectap_monitor_timer = NULL;
  35              		.loc 1 33 9
  36              		.loc 1 33 33 is_stmt 0
  37 0026 23200400 		sw	zero,0(s0)
  38              	.L2:
  34:C:/Users/stapi/OneDrive/Desktop/GD32VW553/V1_MQTT_OK/GD32VW55X_Wifi_BLE_SDK/GD32VW55x_RELEASE_V1.0.2/MSDK/cloud/alicloud/src/services/awss\awss_info.c ****     }
  35:C:/Users/stapi/OneDrive/Desktop/GD32VW553/V1_MQTT_OK/GD32VW55X_Wifi_BLE_SDK/GD32VW55x_RELEASE_V1.0.2/MSDK/cloud/alicloud/src/services/awss\awss_info.c ****     if (connectap_monitor_mutex) {
  39              		.loc 1 35 5 is_stmt 1
  40              		.loc 1 35 9 is_stmt 0
  41 002a 37040000 		lui	s0,%hi(.LANCHOR1)
  42 002e 13040400 		addi	s0,s0,%lo(.LANCHOR1)
  43 0032 0840     		lw	a0,0(s0)
  44              		.loc 1 35 8
  45 0034 01CD     		beq	a0,zero,.L1
  36:C:/Users/stapi/OneDrive/Desktop/GD32VW553/V1_MQTT_OK/GD32VW55X_Wifi_BLE_SDK/GD32VW55x_RELEASE_V1.0.2/MSDK/cloud/alicloud/src/services/awss\awss_info.c ****         HAL_MutexUnlock(connectap_monitor_mutex);
  46              		.loc 1 36 9 is_stmt 1
  47 0036 97000000 		call	HAL_MutexUnlock
  47      E7800000 
  48              	.LVL2:
  37:C:/Users/stapi/OneDrive/Desktop/GD32VW553/V1_MQTT_OK/GD32VW55X_Wifi_BLE_SDK/GD32VW55x_RELEASE_V1.0.2/MSDK/cloud/alicloud/src/services/awss\awss_info.c ****         HAL_MutexDestroy(connectap_monitor_mutex);
  49              		.loc 1 37 9
  50 003e 0840     		lw	a0,0(s0)
  51 0040 97000000 		call	HAL_MutexDestroy
  51      E7800000 
  52              	.LVL3:
  38:C:/Users/stapi/OneDrive/Desktop/GD32VW553/V1_MQTT_OK/GD32VW55X_Wifi_BLE_SDK/GD32VW55x_RELEASE_V1.0.2/MSDK/cloud/alicloud/src/services/awss\awss_info.c ****         connectap_monitor_mutex = NULL;
  53              		.loc 1 38 9
  54              		.loc 1 38 33 is_stmt 0
  55 0048 23200400 		sw	zero,0(s0)
  56              	.L1:
  39:C:/Users/stapi/OneDrive/Desktop/GD32VW553/V1_MQTT_OK/GD32VW55X_Wifi_BLE_SDK/GD32VW55x_RELEASE_V1.0.2/MSDK/cloud/alicloud/src/services/awss\awss_info.c ****     }
  40:C:/Users/stapi/OneDrive/Desktop/GD32VW553/V1_MQTT_OK/GD32VW55X_Wifi_BLE_SDK/GD32VW55x_RELEASE_V1.0.2/MSDK/cloud/alicloud/src/services/awss\awss_info.c **** }
  57              		.loc 1 40 1
  58 004c 17030000 		tail	__riscv_restore_1
  58      67000300 
  59              		.cfi_restore 8
  60              		.cfi_restore 1
  61              		.cfi_def_cfa_offset 0
  62              		.cfi_endproc
  63              	.LFE48:
  65              		.section	.text.awss_connectap_monitor,"ax",@progbits
  66              		.align	1
  68              	awss_connectap_monitor:
  69              	.LFB49:
  41:C:/Users/stapi/OneDrive/Desktop/GD32VW553/V1_MQTT_OK/GD32VW55X_Wifi_BLE_SDK/GD32VW55x_RELEASE_V1.0.2/MSDK/cloud/alicloud/src/services/awss\awss_info.c **** 
  42:C:/Users/stapi/OneDrive/Desktop/GD32VW553/V1_MQTT_OK/GD32VW55X_Wifi_BLE_SDK/GD32VW55x_RELEASE_V1.0.2/MSDK/cloud/alicloud/src/services/awss\awss_info.c **** static void awss_connectap_monitor(void *param)
  43:C:/Users/stapi/OneDrive/Desktop/GD32VW553/V1_MQTT_OK/GD32VW55X_Wifi_BLE_SDK/GD32VW55x_RELEASE_V1.0.2/MSDK/cloud/alicloud/src/services/awss\awss_info.c **** {
  70              		.loc 1 43 1 is_stmt 1
  71              		.cfi_startproc
  72              	.LVL4:
  73 0000 17030000 		call	t0,__riscv_save_0
  73      E7020300 
  74              		.cfi_offset 1, -4
  75              		.cfi_def_cfa_offset 16
  44:C:/Users/stapi/OneDrive/Desktop/GD32VW553/V1_MQTT_OK/GD32VW55X_Wifi_BLE_SDK/GD32VW55x_RELEASE_V1.0.2/MSDK/cloud/alicloud/src/services/awss\awss_info.c ****     if (connectap_monitor_mutex)
  76              		.loc 1 44 5
  77              		.loc 1 44 9 is_stmt 0
  78 0008 B7070000 		lui	a5,%hi(.LANCHOR1)
  79 000c 03A50700 		lw	a0,%lo(.LANCHOR1)(a5)
  80              	.LVL5:
  81              		.loc 1 44 8
  82 0010 09C5     		beq	a0,zero,.L12
  45:C:/Users/stapi/OneDrive/Desktop/GD32VW553/V1_MQTT_OK/GD32VW55X_Wifi_BLE_SDK/GD32VW55x_RELEASE_V1.0.2/MSDK/cloud/alicloud/src/services/awss\awss_info.c ****         HAL_MutexLock(connectap_monitor_mutex);
  83              		.loc 1 45 9 is_stmt 1
  84 0012 97000000 		call	HAL_MutexLock
  84      E7800000 
  85              	.LVL6:
  86              	.L12:
  46:C:/Users/stapi/OneDrive/Desktop/GD32VW553/V1_MQTT_OK/GD32VW55X_Wifi_BLE_SDK/GD32VW55x_RELEASE_V1.0.2/MSDK/cloud/alicloud/src/services/awss\awss_info.c ****     g_awss_connectap_info_avaliable = 0;
  87              		.loc 1 46 5
  88              		.loc 1 46 37 is_stmt 0
  89 001a B7070000 		lui	a5,%hi(.LANCHOR2)
  90 001e 23800700 		sb	zero,%lo(.LANCHOR2)(a5)
  47:C:/Users/stapi/OneDrive/Desktop/GD32VW553/V1_MQTT_OK/GD32VW55X_Wifi_BLE_SDK/GD32VW55x_RELEASE_V1.0.2/MSDK/cloud/alicloud/src/services/awss\awss_info.c ****     awss_release_connectap_monitor();
  91              		.loc 1 47 5 is_stmt 1
  92 0022 97000000 		call	awss_release_connectap_monitor
  92      E7800000 
  93              	.LVL7:
  48:C:/Users/stapi/OneDrive/Desktop/GD32VW553/V1_MQTT_OK/GD32VW55X_Wifi_BLE_SDK/GD32VW55x_RELEASE_V1.0.2/MSDK/cloud/alicloud/src/services/awss\awss_info.c **** }
  94              		.loc 1 48 1 is_stmt 0
  95 002a 17030000 		tail	__riscv_restore_0
  95      67000300 
  96              		.cfi_restore 1
  97              		.cfi_def_cfa_offset 0
  98              		.cfi_endproc
  99              	.LFE49:
 101              		.section	.text.awss_stop_connectap_monitor,"ax",@progbits
 102              		.align	1
 103              		.globl	awss_stop_connectap_monitor
 105              	awss_stop_connectap_monitor:
 106              	.LFB50:
  49:C:/Users/stapi/OneDrive/Desktop/GD32VW553/V1_MQTT_OK/GD32VW55X_Wifi_BLE_SDK/GD32VW55x_RELEASE_V1.0.2/MSDK/cloud/alicloud/src/services/awss\awss_info.c **** 
  50:C:/Users/stapi/OneDrive/Desktop/GD32VW553/V1_MQTT_OK/GD32VW55X_Wifi_BLE_SDK/GD32VW55x_RELEASE_V1.0.2/MSDK/cloud/alicloud/src/services/awss\awss_info.c **** int awss_stop_connectap_monitor()
  51:C:/Users/stapi/OneDrive/Desktop/GD32VW553/V1_MQTT_OK/GD32VW55X_Wifi_BLE_SDK/GD32VW55x_RELEASE_V1.0.2/MSDK/cloud/alicloud/src/services/awss\awss_info.c **** {
 107              		.loc 1 51 1 is_stmt 1
 108              		.cfi_startproc
 109 0000 17030000 		call	t0,__riscv_save_0
 109      E7020300 
 110              		.cfi_offset 1, -4
 111              		.cfi_def_cfa_offset 16
  52:C:/Users/stapi/OneDrive/Desktop/GD32VW553/V1_MQTT_OK/GD32VW55X_Wifi_BLE_SDK/GD32VW55x_RELEASE_V1.0.2/MSDK/cloud/alicloud/src/services/awss\awss_info.c ****     awss_connectap_monitor(NULL);
 112              		.loc 1 52 5
 113 0008 0145     		li	a0,0
 114 000a 97000000 		call	awss_connectap_monitor
 114      E7800000 
 115              	.LVL8:
  53:C:/Users/stapi/OneDrive/Desktop/GD32VW553/V1_MQTT_OK/GD32VW55X_Wifi_BLE_SDK/GD32VW55x_RELEASE_V1.0.2/MSDK/cloud/alicloud/src/services/awss\awss_info.c ****     return 0;
 116              		.loc 1 53 5
  54:C:/Users/stapi/OneDrive/Desktop/GD32VW553/V1_MQTT_OK/GD32VW55X_Wifi_BLE_SDK/GD32VW55x_RELEASE_V1.0.2/MSDK/cloud/alicloud/src/services/awss\awss_info.c **** }
 117              		.loc 1 54 1 is_stmt 0
 118 0012 0145     		li	a0,0
 119 0014 17030000 		tail	__riscv_restore_0
 119      67000300 
 120              		.cfi_restore 1
 121              		.cfi_def_cfa_offset 0
 122              		.cfi_endproc
 123              	.LFE50:
 125              		.section	.rodata.awss_start_connectap_monitor.str1.4,"aMS",@progbits,1
 126              		.align	2
 127              	.LC0:
 128 0000 636F6E6E 		.string	"connap-m exist"
 128      61702D6D 
 128      20657869 
 128      737400
 129 000f 00       		.align	2
 130              	.LC1:
 131 0010 61777373 		.string	"awss"
 131      00
 132 0015 000000   		.align	2
 133              	.LC2:
 134 0018 5B657272 		.string	"[err] "
 134      5D2000
 135 001f 00       		.align	2
 136              	.LC3:
 137 0020 636F6E6E 		.string	"connap alloc-m fail"
 137      61702061 
 137      6C6C6F63 
 137      2D6D2066 
 137      61696C00 
 138              		.align	2
 139              	.LC4:
 140 0034 0D0A00   		.string	"\r\n"
 141 0037 00       		.align	2
 142              	.LC5:
 143 0038 636F6E6E 		.string	"connap_monitor"
 143      61705F6D 
 143      6F6E6974 
 143      6F7200
 144 0047 00       		.align	2
 145              	.LC6:
 146 0048 636F6E6E 		.string	"connap alloc-t fail"
 146      61702061 
 146      6C6C6F63 
 146      2D742066 
 146      61696C00 
 147              		.section	.text.awss_start_connectap_monitor,"ax",@progbits
 148              		.align	1
 149              		.globl	awss_start_connectap_monitor
 151              	awss_start_connectap_monitor:
 152              	.LFB51:
  55:C:/Users/stapi/OneDrive/Desktop/GD32VW553/V1_MQTT_OK/GD32VW55X_Wifi_BLE_SDK/GD32VW55x_RELEASE_V1.0.2/MSDK/cloud/alicloud/src/services/awss\awss_info.c **** 
  56:C:/Users/stapi/OneDrive/Desktop/GD32VW553/V1_MQTT_OK/GD32VW55X_Wifi_BLE_SDK/GD32VW55x_RELEASE_V1.0.2/MSDK/cloud/alicloud/src/services/awss\awss_info.c **** int awss_start_connectap_monitor()
  57:C:/Users/stapi/OneDrive/Desktop/GD32VW553/V1_MQTT_OK/GD32VW55X_Wifi_BLE_SDK/GD32VW55x_RELEASE_V1.0.2/MSDK/cloud/alicloud/src/services/awss\awss_info.c **** {
 153              		.loc 1 57 1 is_stmt 1
 154              		.cfi_startproc
 155 0000 17030000 		call	t0,__riscv_save_3
 155      E7020300 
 156              		.cfi_offset 18, -16
 157              		.cfi_offset 9, -12
 158              		.cfi_offset 8, -8
 159              		.cfi_offset 1, -4
 160              		.cfi_def_cfa_offset 16
  58:C:/Users/stapi/OneDrive/Desktop/GD32VW553/V1_MQTT_OK/GD32VW55X_Wifi_BLE_SDK/GD32VW55x_RELEASE_V1.0.2/MSDK/cloud/alicloud/src/services/awss\awss_info.c ****     if (connectap_monitor_timer) {
 161              		.loc 1 58 5
 162              		.loc 1 58 9 is_stmt 0
 163 0008 37090000 		lui	s2,%hi(.LANCHOR0)
 164              		.loc 1 58 8
 165 000c 83270900 		lw	a5,%lo(.LANCHOR0)(s2)
 166 0010 95C7     		beq	a5,zero,.L20
  59:C:/Users/stapi/OneDrive/Desktop/GD32VW553/V1_MQTT_OK/GD32VW55X_Wifi_BLE_SDK/GD32VW55x_RELEASE_V1.0.2/MSDK/cloud/alicloud/src/services/awss\awss_info.c ****         awss_debug("connap-m exist");
 167              		.loc 1 59 9 is_stmt 1
 168 0012 37070000 		lui	a4,%hi(.LC0)
 169 0016 B7050000 		lui	a1,%hi(.LANCHOR3)
 170 001a 37050000 		lui	a0,%hi(.LC1)
 171 001e 13070700 		addi	a4,a4,%lo(.LC0)
 172 0022 9546     		li	a3,5
 173 0024 1306B003 		li	a2,59
 174 0028 93850500 		addi	a1,a1,%lo(.LANCHOR3)
 175 002c 13050500 		addi	a0,a0,%lo(.LC1)
 176 0030 97000000 		call	LITE_syslog
 176      E7800000 
 177              	.LVL9:
  60:C:/Users/stapi/OneDrive/Desktop/GD32VW553/V1_MQTT_OK/GD32VW55X_Wifi_BLE_SDK/GD32VW55x_RELEASE_V1.0.2/MSDK/cloud/alicloud/src/services/awss\awss_info.c ****         return 0;
 178              		.loc 1 60 9
 179              	.L27:
  61:C:/Users/stapi/OneDrive/Desktop/GD32VW553/V1_MQTT_OK/GD32VW55X_Wifi_BLE_SDK/GD32VW55x_RELEASE_V1.0.2/MSDK/cloud/alicloud/src/services/awss\awss_info.c ****     }
  62:C:/Users/stapi/OneDrive/Desktop/GD32VW553/V1_MQTT_OK/GD32VW55X_Wifi_BLE_SDK/GD32VW55x_RELEASE_V1.0.2/MSDK/cloud/alicloud/src/services/awss\awss_info.c **** 
  63:C:/Users/stapi/OneDrive/Desktop/GD32VW553/V1_MQTT_OK/GD32VW55X_Wifi_BLE_SDK/GD32VW55x_RELEASE_V1.0.2/MSDK/cloud/alicloud/src/services/awss\awss_info.c ****     if (connectap_monitor_mutex == NULL) {
  64:C:/Users/stapi/OneDrive/Desktop/GD32VW553/V1_MQTT_OK/GD32VW55X_Wifi_BLE_SDK/GD32VW55x_RELEASE_V1.0.2/MSDK/cloud/alicloud/src/services/awss\awss_info.c ****         connectap_monitor_mutex = HAL_MutexCreate();
  65:C:/Users/stapi/OneDrive/Desktop/GD32VW553/V1_MQTT_OK/GD32VW55X_Wifi_BLE_SDK/GD32VW55x_RELEASE_V1.0.2/MSDK/cloud/alicloud/src/services/awss\awss_info.c ****         if (connectap_monitor_mutex == NULL) {
  66:C:/Users/stapi/OneDrive/Desktop/GD32VW553/V1_MQTT_OK/GD32VW55X_Wifi_BLE_SDK/GD32VW55x_RELEASE_V1.0.2/MSDK/cloud/alicloud/src/services/awss\awss_info.c ****             awss_err("connap alloc-m fail");
  67:C:/Users/stapi/OneDrive/Desktop/GD32VW553/V1_MQTT_OK/GD32VW55X_Wifi_BLE_SDK/GD32VW55x_RELEASE_V1.0.2/MSDK/cloud/alicloud/src/services/awss\awss_info.c ****             goto CONNAP_M_FAIL;
  68:C:/Users/stapi/OneDrive/Desktop/GD32VW553/V1_MQTT_OK/GD32VW55X_Wifi_BLE_SDK/GD32VW55x_RELEASE_V1.0.2/MSDK/cloud/alicloud/src/services/awss\awss_info.c ****         }
  69:C:/Users/stapi/OneDrive/Desktop/GD32VW553/V1_MQTT_OK/GD32VW55X_Wifi_BLE_SDK/GD32VW55x_RELEASE_V1.0.2/MSDK/cloud/alicloud/src/services/awss\awss_info.c ****     }
  70:C:/Users/stapi/OneDrive/Desktop/GD32VW553/V1_MQTT_OK/GD32VW55X_Wifi_BLE_SDK/GD32VW55x_RELEASE_V1.0.2/MSDK/cloud/alicloud/src/services/awss\awss_info.c **** 
  71:C:/Users/stapi/OneDrive/Desktop/GD32VW553/V1_MQTT_OK/GD32VW55X_Wifi_BLE_SDK/GD32VW55x_RELEASE_V1.0.2/MSDK/cloud/alicloud/src/services/awss\awss_info.c ****     HAL_MutexLock(connectap_monitor_mutex);
  72:C:/Users/stapi/OneDrive/Desktop/GD32VW553/V1_MQTT_OK/GD32VW55X_Wifi_BLE_SDK/GD32VW55x_RELEASE_V1.0.2/MSDK/cloud/alicloud/src/services/awss\awss_info.c **** 
  73:C:/Users/stapi/OneDrive/Desktop/GD32VW553/V1_MQTT_OK/GD32VW55X_Wifi_BLE_SDK/GD32VW55x_RELEASE_V1.0.2/MSDK/cloud/alicloud/src/services/awss\awss_info.c ****     connectap_monitor_timer = HAL_Timer_Create("connap_monitor",
  74:C:/Users/stapi/OneDrive/Desktop/GD32VW553/V1_MQTT_OK/GD32VW55X_Wifi_BLE_SDK/GD32VW55x_RELEASE_V1.0.2/MSDK/cloud/alicloud/src/services/awss\awss_info.c ****             awss_connectap_monitor, NULL);
  75:C:/Users/stapi/OneDrive/Desktop/GD32VW553/V1_MQTT_OK/GD32VW55X_Wifi_BLE_SDK/GD32VW55x_RELEASE_V1.0.2/MSDK/cloud/alicloud/src/services/awss\awss_info.c ****     if (connectap_monitor_timer == NULL) {
  76:C:/Users/stapi/OneDrive/Desktop/GD32VW553/V1_MQTT_OK/GD32VW55X_Wifi_BLE_SDK/GD32VW55x_RELEASE_V1.0.2/MSDK/cloud/alicloud/src/services/awss\awss_info.c ****         awss_err("connap alloc-t fail");
  77:C:/Users/stapi/OneDrive/Desktop/GD32VW553/V1_MQTT_OK/GD32VW55X_Wifi_BLE_SDK/GD32VW55x_RELEASE_V1.0.2/MSDK/cloud/alicloud/src/services/awss\awss_info.c ****         goto CONNAP_M_FAIL;
  78:C:/Users/stapi/OneDrive/Desktop/GD32VW553/V1_MQTT_OK/GD32VW55X_Wifi_BLE_SDK/GD32VW55x_RELEASE_V1.0.2/MSDK/cloud/alicloud/src/services/awss\awss_info.c ****     }
  79:C:/Users/stapi/OneDrive/Desktop/GD32VW553/V1_MQTT_OK/GD32VW55X_Wifi_BLE_SDK/GD32VW55x_RELEASE_V1.0.2/MSDK/cloud/alicloud/src/services/awss\awss_info.c **** 
  80:C:/Users/stapi/OneDrive/Desktop/GD32VW553/V1_MQTT_OK/GD32VW55X_Wifi_BLE_SDK/GD32VW55x_RELEASE_V1.0.2/MSDK/cloud/alicloud/src/services/awss\awss_info.c ****     g_awss_connectap_info_avaliable = 1;
  81:C:/Users/stapi/OneDrive/Desktop/GD32VW553/V1_MQTT_OK/GD32VW55X_Wifi_BLE_SDK/GD32VW55x_RELEASE_V1.0.2/MSDK/cloud/alicloud/src/services/awss\awss_info.c ****     HAL_Timer_Stop(connectap_monitor_timer);
  82:C:/Users/stapi/OneDrive/Desktop/GD32VW553/V1_MQTT_OK/GD32VW55X_Wifi_BLE_SDK/GD32VW55x_RELEASE_V1.0.2/MSDK/cloud/alicloud/src/services/awss\awss_info.c ****     HAL_Timer_Start(connectap_monitor_timer, AWSS_CONNAP_MONITOR_TIMEOUT_MS);
  83:C:/Users/stapi/OneDrive/Desktop/GD32VW553/V1_MQTT_OK/GD32VW55X_Wifi_BLE_SDK/GD32VW55x_RELEASE_V1.0.2/MSDK/cloud/alicloud/src/services/awss\awss_info.c ****     HAL_MutexUnlock(connectap_monitor_mutex);
  84:C:/Users/stapi/OneDrive/Desktop/GD32VW553/V1_MQTT_OK/GD32VW55X_Wifi_BLE_SDK/GD32VW55x_RELEASE_V1.0.2/MSDK/cloud/alicloud/src/services/awss\awss_info.c ****     return 0;
 180              		.loc 1 84 5
 181              		.loc 1 84 12 is_stmt 0
 182 0038 0145     		li	a0,0
 183 003a B1A8     		j	.L19
 184              	.L20:
  63:C:/Users/stapi/OneDrive/Desktop/GD32VW553/V1_MQTT_OK/GD32VW55X_Wifi_BLE_SDK/GD32VW55x_RELEASE_V1.0.2/MSDK/cloud/alicloud/src/services/awss\awss_info.c ****         connectap_monitor_mutex = HAL_MutexCreate();
 185              		.loc 1 63 33
 186 003c 37040000 		lui	s0,%hi(.LANCHOR1)
 187 0040 93040400 		addi	s1,s0,%lo(.LANCHOR1)
  63:C:/Users/stapi/OneDrive/Desktop/GD32VW553/V1_MQTT_OK/GD32VW55X_Wifi_BLE_SDK/GD32VW55x_RELEASE_V1.0.2/MSDK/cloud/alicloud/src/services/awss\awss_info.c ****         connectap_monitor_mutex = HAL_MutexCreate();
 188              		.loc 1 63 8
 189 0044 9C40     		lw	a5,0(s1)
 190 0046 13090900 		addi	s2,s2,%lo(.LANCHOR0)
  63:C:/Users/stapi/OneDrive/Desktop/GD32VW553/V1_MQTT_OK/GD32VW55X_Wifi_BLE_SDK/GD32VW55x_RELEASE_V1.0.2/MSDK/cloud/alicloud/src/services/awss\awss_info.c ****         connectap_monitor_mutex = HAL_MutexCreate();
 191              		.loc 1 63 5 is_stmt 1
 192 004a 13040400 		addi	s0,s0,%lo(.LANCHOR1)
  63:C:/Users/stapi/OneDrive/Desktop/GD32VW553/V1_MQTT_OK/GD32VW55X_Wifi_BLE_SDK/GD32VW55x_RELEASE_V1.0.2/MSDK/cloud/alicloud/src/services/awss\awss_info.c ****         connectap_monitor_mutex = HAL_MutexCreate();
 193              		.loc 1 63 8 is_stmt 0
 194 004e A1EB     		bne	a5,zero,.L22
  64:C:/Users/stapi/OneDrive/Desktop/GD32VW553/V1_MQTT_OK/GD32VW55X_Wifi_BLE_SDK/GD32VW55x_RELEASE_V1.0.2/MSDK/cloud/alicloud/src/services/awss\awss_info.c ****         if (connectap_monitor_mutex == NULL) {
 195              		.loc 1 64 9 is_stmt 1
  64:C:/Users/stapi/OneDrive/Desktop/GD32VW553/V1_MQTT_OK/GD32VW55X_Wifi_BLE_SDK/GD32VW55x_RELEASE_V1.0.2/MSDK/cloud/alicloud/src/services/awss\awss_info.c ****         if (connectap_monitor_mutex == NULL) {
 196              		.loc 1 64 35 is_stmt 0
 197 0050 97000000 		call	HAL_MutexCreate
 197      E7800000 
 198              	.LVL10:
  64:C:/Users/stapi/OneDrive/Desktop/GD32VW553/V1_MQTT_OK/GD32VW55X_Wifi_BLE_SDK/GD32VW55x_RELEASE_V1.0.2/MSDK/cloud/alicloud/src/services/awss\awss_info.c ****         if (connectap_monitor_mutex == NULL) {
 199              		.loc 1 64 33
 200 0058 88C0     		sw	a0,0(s1)
  65:C:/Users/stapi/OneDrive/Desktop/GD32VW553/V1_MQTT_OK/GD32VW55X_Wifi_BLE_SDK/GD32VW55x_RELEASE_V1.0.2/MSDK/cloud/alicloud/src/services/awss\awss_info.c ****             awss_err("connap alloc-m fail");
 201              		.loc 1 65 9 is_stmt 1
  65:C:/Users/stapi/OneDrive/Desktop/GD32VW553/V1_MQTT_OK/GD32VW55X_Wifi_BLE_SDK/GD32VW55x_RELEASE_V1.0.2/MSDK/cloud/alicloud/src/services/awss\awss_info.c ****             awss_err("connap alloc-m fail");
 202              		.loc 1 65 12 is_stmt 0
 203 005a 31E1     		bne	a0,zero,.L22
  66:C:/Users/stapi/OneDrive/Desktop/GD32VW553/V1_MQTT_OK/GD32VW55X_Wifi_BLE_SDK/GD32VW55x_RELEASE_V1.0.2/MSDK/cloud/alicloud/src/services/awss\awss_info.c ****             goto CONNAP_M_FAIL;
 204              		.loc 1 66 13 is_stmt 1
  66:C:/Users/stapi/OneDrive/Desktop/GD32VW553/V1_MQTT_OK/GD32VW55X_Wifi_BLE_SDK/GD32VW55x_RELEASE_V1.0.2/MSDK/cloud/alicloud/src/services/awss\awss_info.c ****             goto CONNAP_M_FAIL;
 205              		.loc 1 66 13
 206 005c 37050000 		lui	a0,%hi(.LC2)
 207 0060 13050500 		addi	a0,a0,%lo(.LC2)
 208 0064 97000000 		call	HAL_Printf
 208      E7800000 
 209              	.LVL11:
  66:C:/Users/stapi/OneDrive/Desktop/GD32VW553/V1_MQTT_OK/GD32VW55X_Wifi_BLE_SDK/GD32VW55x_RELEASE_V1.0.2/MSDK/cloud/alicloud/src/services/awss\awss_info.c ****             goto CONNAP_M_FAIL;
 210              		.loc 1 66 13
 211 006c 37050000 		lui	a0,%hi(.LC3)
 212 0070 13050500 		addi	a0,a0,%lo(.LC3)
 213              	.L26:
 214              	.L23:
  76:C:/Users/stapi/OneDrive/Desktop/GD32VW553/V1_MQTT_OK/GD32VW55X_Wifi_BLE_SDK/GD32VW55x_RELEASE_V1.0.2/MSDK/cloud/alicloud/src/services/awss\awss_info.c ****         goto CONNAP_M_FAIL;
 215              		.loc 1 76 9 is_stmt 0
 216 0074 97000000 		call	HAL_Printf
 216      E7800000 
 217              	.LVL12:
  76:C:/Users/stapi/OneDrive/Desktop/GD32VW553/V1_MQTT_OK/GD32VW55X_Wifi_BLE_SDK/GD32VW55x_RELEASE_V1.0.2/MSDK/cloud/alicloud/src/services/awss\awss_info.c ****         goto CONNAP_M_FAIL;
 218              		.loc 1 76 9 is_stmt 1
 219 007c 37050000 		lui	a0,%hi(.LC4)
 220 0080 13050500 		addi	a0,a0,%lo(.LC4)
 221 0084 97000000 		call	HAL_Printf
 221      E7800000 
 222              	.LVL13:
  76:C:/Users/stapi/OneDrive/Desktop/GD32VW553/V1_MQTT_OK/GD32VW55X_Wifi_BLE_SDK/GD32VW55x_RELEASE_V1.0.2/MSDK/cloud/alicloud/src/services/awss\awss_info.c ****         goto CONNAP_M_FAIL;
 223              		.loc 1 76 9
  77:C:/Users/stapi/OneDrive/Desktop/GD32VW553/V1_MQTT_OK/GD32VW55X_Wifi_BLE_SDK/GD32VW55x_RELEASE_V1.0.2/MSDK/cloud/alicloud/src/services/awss\awss_info.c ****     }
 224              		.loc 1 77 9
  85:C:/Users/stapi/OneDrive/Desktop/GD32VW553/V1_MQTT_OK/GD32VW55X_Wifi_BLE_SDK/GD32VW55x_RELEASE_V1.0.2/MSDK/cloud/alicloud/src/services/awss\awss_info.c **** 
  86:C:/Users/stapi/OneDrive/Desktop/GD32VW553/V1_MQTT_OK/GD32VW55X_Wifi_BLE_SDK/GD32VW55x_RELEASE_V1.0.2/MSDK/cloud/alicloud/src/services/awss\awss_info.c **** CONNAP_M_FAIL:
  87:C:/Users/stapi/OneDrive/Desktop/GD32VW553/V1_MQTT_OK/GD32VW55X_Wifi_BLE_SDK/GD32VW55x_RELEASE_V1.0.2/MSDK/cloud/alicloud/src/services/awss\awss_info.c ****     awss_release_connectap_monitor();
 225              		.loc 1 87 5
 226 008c 97000000 		call	awss_release_connectap_monitor
 226      E7800000 
 227              	.LVL14:
  88:C:/Users/stapi/OneDrive/Desktop/GD32VW553/V1_MQTT_OK/GD32VW55X_Wifi_BLE_SDK/GD32VW55x_RELEASE_V1.0.2/MSDK/cloud/alicloud/src/services/awss\awss_info.c ****     return -1;
 228              		.loc 1 88 5
 229              		.loc 1 88 12 is_stmt 0
 230 0094 7D55     		li	a0,-1
 231              	.L19:
  89:C:/Users/stapi/OneDrive/Desktop/GD32VW553/V1_MQTT_OK/GD32VW55X_Wifi_BLE_SDK/GD32VW55x_RELEASE_V1.0.2/MSDK/cloud/alicloud/src/services/awss\awss_info.c **** }
 232              		.loc 1 89 1
 233 0096 17030000 		tail	__riscv_restore_3
 233      67000300 
 234              		.cfi_remember_state
 235              		.cfi_restore 18
 236              		.cfi_restore 9
 237              		.cfi_restore 8
 238              		.cfi_restore 1
 239              		.cfi_def_cfa_offset 0
 240              	.L22:
 241              		.cfi_restore_state
  71:C:/Users/stapi/OneDrive/Desktop/GD32VW553/V1_MQTT_OK/GD32VW55X_Wifi_BLE_SDK/GD32VW55x_RELEASE_V1.0.2/MSDK/cloud/alicloud/src/services/awss\awss_info.c **** 
 242              		.loc 1 71 5 is_stmt 1
 243 009e 0840     		lw	a0,0(s0)
 244 00a0 97000000 		call	HAL_MutexLock
 244      E7800000 
 245              	.LVL15:
  73:C:/Users/stapi/OneDrive/Desktop/GD32VW553/V1_MQTT_OK/GD32VW55X_Wifi_BLE_SDK/GD32VW55x_RELEASE_V1.0.2/MSDK/cloud/alicloud/src/services/awss\awss_info.c ****             awss_connectap_monitor, NULL);
 246              		.loc 1 73 5
  73:C:/Users/stapi/OneDrive/Desktop/GD32VW553/V1_MQTT_OK/GD32VW55X_Wifi_BLE_SDK/GD32VW55x_RELEASE_V1.0.2/MSDK/cloud/alicloud/src/services/awss\awss_info.c ****             awss_connectap_monitor, NULL);
 247              		.loc 1 73 31 is_stmt 0
 248 00a8 B7050000 		lui	a1,%hi(awss_connectap_monitor)
 249 00ac 37050000 		lui	a0,%hi(.LC5)
 250 00b0 0146     		li	a2,0
 251 00b2 93850500 		addi	a1,a1,%lo(awss_connectap_monitor)
 252 00b6 13050500 		addi	a0,a0,%lo(.LC5)
 253 00ba 97000000 		call	HAL_Timer_Create
 253      E7800000 
 254              	.LVL16:
  73:C:/Users/stapi/OneDrive/Desktop/GD32VW553/V1_MQTT_OK/GD32VW55X_Wifi_BLE_SDK/GD32VW55x_RELEASE_V1.0.2/MSDK/cloud/alicloud/src/services/awss\awss_info.c ****             awss_connectap_monitor, NULL);
 255              		.loc 1 73 29
 256 00c2 2320A900 		sw	a0,0(s2)
  75:C:/Users/stapi/OneDrive/Desktop/GD32VW553/V1_MQTT_OK/GD32VW55X_Wifi_BLE_SDK/GD32VW55x_RELEASE_V1.0.2/MSDK/cloud/alicloud/src/services/awss\awss_info.c ****         awss_err("connap alloc-t fail");
 257              		.loc 1 75 5 is_stmt 1
  75:C:/Users/stapi/OneDrive/Desktop/GD32VW553/V1_MQTT_OK/GD32VW55X_Wifi_BLE_SDK/GD32VW55x_RELEASE_V1.0.2/MSDK/cloud/alicloud/src/services/awss\awss_info.c ****         awss_err("connap alloc-t fail");
 258              		.loc 1 75 8 is_stmt 0
 259 00c6 11ED     		bne	a0,zero,.L24
  76:C:/Users/stapi/OneDrive/Desktop/GD32VW553/V1_MQTT_OK/GD32VW55X_Wifi_BLE_SDK/GD32VW55x_RELEASE_V1.0.2/MSDK/cloud/alicloud/src/services/awss\awss_info.c ****         goto CONNAP_M_FAIL;
 260              		.loc 1 76 9 is_stmt 1
  76:C:/Users/stapi/OneDrive/Desktop/GD32VW553/V1_MQTT_OK/GD32VW55X_Wifi_BLE_SDK/GD32VW55x_RELEASE_V1.0.2/MSDK/cloud/alicloud/src/services/awss\awss_info.c ****         goto CONNAP_M_FAIL;
 261              		.loc 1 76 9
 262 00c8 37050000 		lui	a0,%hi(.LC2)
 263 00cc 13050500 		addi	a0,a0,%lo(.LC2)
 264 00d0 97000000 		call	HAL_Printf
 264      E7800000 
 265              	.LVL17:
  76:C:/Users/stapi/OneDrive/Desktop/GD32VW553/V1_MQTT_OK/GD32VW55X_Wifi_BLE_SDK/GD32VW55x_RELEASE_V1.0.2/MSDK/cloud/alicloud/src/services/awss\awss_info.c ****         goto CONNAP_M_FAIL;
 266              		.loc 1 76 9
 267 00d8 37050000 		lui	a0,%hi(.LC6)
 268 00dc 13050500 		addi	a0,a0,%lo(.LC6)
 269 00e0 51BF     		j	.L26
 270              	.L24:
  80:C:/Users/stapi/OneDrive/Desktop/GD32VW553/V1_MQTT_OK/GD32VW55X_Wifi_BLE_SDK/GD32VW55x_RELEASE_V1.0.2/MSDK/cloud/alicloud/src/services/awss\awss_info.c ****     HAL_Timer_Stop(connectap_monitor_timer);
 271              		.loc 1 80 5
  80:C:/Users/stapi/OneDrive/Desktop/GD32VW553/V1_MQTT_OK/GD32VW55X_Wifi_BLE_SDK/GD32VW55x_RELEASE_V1.0.2/MSDK/cloud/alicloud/src/services/awss\awss_info.c ****     HAL_Timer_Stop(connectap_monitor_timer);
 272              		.loc 1 80 37 is_stmt 0
 273 00e2 B7070000 		lui	a5,%hi(.LANCHOR2)
 274 00e6 0547     		li	a4,1
 275 00e8 2380E700 		sb	a4,%lo(.LANCHOR2)(a5)
  81:C:/Users/stapi/OneDrive/Desktop/GD32VW553/V1_MQTT_OK/GD32VW55X_Wifi_BLE_SDK/GD32VW55x_RELEASE_V1.0.2/MSDK/cloud/alicloud/src/services/awss\awss_info.c ****     HAL_Timer_Start(connectap_monitor_timer, AWSS_CONNAP_MONITOR_TIMEOUT_MS);
 276              		.loc 1 81 5 is_stmt 1
 277 00ec 97000000 		call	HAL_Timer_Stop
 277      E7800000 
 278              	.LVL18:
  82:C:/Users/stapi/OneDrive/Desktop/GD32VW553/V1_MQTT_OK/GD32VW55X_Wifi_BLE_SDK/GD32VW55x_RELEASE_V1.0.2/MSDK/cloud/alicloud/src/services/awss\awss_info.c ****     HAL_MutexUnlock(connectap_monitor_mutex);
 279              		.loc 1 82 5
 280 00f4 03250900 		lw	a0,0(s2)
 281 00f8 BD65     		li	a1,61440
 282 00fa 938505A6 		addi	a1,a1,-1440
 283 00fe 97000000 		call	HAL_Timer_Start
 283      E7800000 
 284              	.LVL19:
  83:C:/Users/stapi/OneDrive/Desktop/GD32VW553/V1_MQTT_OK/GD32VW55X_Wifi_BLE_SDK/GD32VW55x_RELEASE_V1.0.2/MSDK/cloud/alicloud/src/services/awss\awss_info.c ****     return 0;
 285              		.loc 1 83 5
 286 0106 0840     		lw	a0,0(s0)
 287 0108 97000000 		call	HAL_MutexUnlock
 287      E7800000 
 288              	.LVL20:
 289 0110 25B7     		j	.L27
 290              		.cfi_endproc
 291              	.LFE51:
 293              		.section	.rodata.process_get_device_info.str1.4,"aMS",@progbits,1
 294              		.align	2
 295              	.LC7:
 296 0000 2F737973 		.string	"/sys/awss/device/connectap/info/get"
 296      2F617773 
 296      732F6465 
 296      76696365 
 296      2F636F6E 
 297              		.align	2
 298              	.LC8:
 299 0024 2F737973 		.string	"/sys/%s/%s/awss/device/info/get"
 299      2F25732F 
 299      25732F61 
 299      7773732F 
 299      64657669 
 300              		.align	2
 301              	.LC9:
 302 0044 2F737973 		.string	"/sys/awss/device/info/get"
 302      2F617773 
 302      732F6465 
 302      76696365 
 302      2F696E66 
 303 005e 0000     		.align	2
 304              	.LC10:
 305 0060 2F737973 		.string	"/sys/%s/%s/awss/device/connectap/info/get"
 305      2F25732F 
 305      25732F61 
 305      7773732F 
 305      64657669 
 306 008a 0000     		.align	2
 307              	.LC11:
 308 008c 696400   		.string	"id"
 309 008f 00       		.align	2
 310              	.LC12:
 311 0090 61707020 		.string	"app get devinfo"
 311      67657420 
 311      64657669 
 311      6E666F00 
 312              		.align	2
 313              	.LC13:
 314 00a0 7B25737D 		.string	"{%s}"
 314      00
 315 00a5 000000   		.align	2
 316              	.LC14:
 317 00a8 7B226964 		.string	"{\"id\":%s,\"code\":%d,\"data\":%s}"
 317      223A2573 
 317      2C22636F 
 317      6465223A 
 317      25642C22 
 318 00c6 0000     		.align	2
 319              	.LC15:
 320 00c8 5B696E66 		.string	"[inf] "
 320      5D2000
 321 00cf 00       		.align	2
 322              	.LC16:
 323 00d0 7478206D 		.string	"tx msg to app: %s"
 323      73672074 
 323      6F206170 
 323      703A2025 
 323      7300
 324 00e2 0000     		.align	2
 325              	.LC17:
 326 00e4 74782064 		.string	"tx dev info rsp fail."
 326      65762069 
 326      6E666F20 
 326      72737020 
 326      6661696C 
 327              		.section	.text.process_get_device_info,"ax",@progbits
 328              		.align	1
 329              		.globl	process_get_device_info
 331              	process_get_device_info:
 332              	.LFB52:
  90:C:/Users/stapi/OneDrive/Desktop/GD32VW553/V1_MQTT_OK/GD32VW55X_Wifi_BLE_SDK/GD32VW55x_RELEASE_V1.0.2/MSDK/cloud/alicloud/src/services/awss\awss_info.c **** 
  91:C:/Users/stapi/OneDrive/Desktop/GD32VW553/V1_MQTT_OK/GD32VW55X_Wifi_BLE_SDK/GD32VW55x_RELEASE_V1.0.2/MSDK/cloud/alicloud/src/services/awss\awss_info.c **** int process_get_device_info(void *ctx, void *resource, void *remote, void *request, char is_mcast, 
  92:C:/Users/stapi/OneDrive/Desktop/GD32VW553/V1_MQTT_OK/GD32VW55X_Wifi_BLE_SDK/GD32VW55x_RELEASE_V1.0.2/MSDK/cloud/alicloud/src/services/awss\awss_info.c **** {
 333              		.loc 1 92 1
 334              		.cfi_startproc
 335              	.LVL21:
 336 0000 17030000 		call	t0,__riscv_save_6
 336      E7020300 
 337              		.cfi_offset 21, -28
 338              		.cfi_offset 20, -24
 339              		.cfi_offset 19, -20
 340              		.cfi_offset 18, -16
 341              		.cfi_offset 9, -12
 342              		.cfi_offset 8, -8
 343              		.cfi_offset 1, -4
 344              		.cfi_def_cfa_offset 32
  93:C:/Users/stapi/OneDrive/Desktop/GD32VW553/V1_MQTT_OK/GD32VW55X_Wifi_BLE_SDK/GD32VW55x_RELEASE_V1.0.2/MSDK/cloud/alicloud/src/services/awss\awss_info.c ****     char *buf = NULL;
 345              		.loc 1 93 5
 346              	.LVL22:
  94:C:/Users/stapi/OneDrive/Desktop/GD32VW553/V1_MQTT_OK/GD32VW55X_Wifi_BLE_SDK/GD32VW55x_RELEASE_V1.0.2/MSDK/cloud/alicloud/src/services/awss\awss_info.c ****     char *dev_info = NULL;
 347              		.loc 1 94 5
  95:C:/Users/stapi/OneDrive/Desktop/GD32VW553/V1_MQTT_OK/GD32VW55X_Wifi_BLE_SDK/GD32VW55x_RELEASE_V1.0.2/MSDK/cloud/alicloud/src/services/awss\awss_info.c ****     int len = 0, id_len = 0;
 348              		.loc 1 95 5
  92:C:/Users/stapi/OneDrive/Desktop/GD32VW553/V1_MQTT_OK/GD32VW55X_Wifi_BLE_SDK/GD32VW55x_RELEASE_V1.0.2/MSDK/cloud/alicloud/src/services/awss\awss_info.c ****     char *buf = NULL;
 349              		.loc 1 92 1 is_stmt 0
 350 0008 3571     		addi	sp,sp,-160
 351              		.cfi_def_cfa_offset 192
  92:C:/Users/stapi/OneDrive/Desktop/GD32VW553/V1_MQTT_OK/GD32VW55X_Wifi_BLE_SDK/GD32VW55x_RELEASE_V1.0.2/MSDK/cloud/alicloud/src/services/awss\awss_info.c ****     char *buf = NULL;
 352              		.loc 1 92 1
 353 000a B28A     		mv	s5,a2
  96:C:/Users/stapi/OneDrive/Desktop/GD32VW553/V1_MQTT_OK/GD32VW55X_Wifi_BLE_SDK/GD32VW55x_RELEASE_V1.0.2/MSDK/cloud/alicloud/src/services/awss\awss_info.c ****     char *msg = NULL, *id = NULL;
  97:C:/Users/stapi/OneDrive/Desktop/GD32VW553/V1_MQTT_OK/GD32VW55X_Wifi_BLE_SDK/GD32VW55x_RELEASE_V1.0.2/MSDK/cloud/alicloud/src/services/awss\awss_info.c ****     const char *topic_fmt = NULL;
  98:C:/Users/stapi/OneDrive/Desktop/GD32VW553/V1_MQTT_OK/GD32VW55X_Wifi_BLE_SDK/GD32VW55x_RELEASE_V1.0.2/MSDK/cloud/alicloud/src/services/awss\awss_info.c ****     char topic[TOPIC_LEN_MAX] = {0};
 354              		.loc 1 98 10
 355 000c 8145     		li	a1,0
 356              	.LVL23:
 357 000e 1306C007 		li	a2,124
 358              	.LVL24:
 359 0012 4810     		addi	a0,sp,36
 360              	.LVL25:
  92:C:/Users/stapi/OneDrive/Desktop/GD32VW553/V1_MQTT_OK/GD32VW55X_Wifi_BLE_SDK/GD32VW55x_RELEASE_V1.0.2/MSDK/cloud/alicloud/src/services/awss\awss_info.c ****     char *buf = NULL;
 361              		.loc 1 92 1
 362 0014 368A     		mv	s4,a3
 363 0016 BA84     		mv	s1,a4
 364 0018 BE89     		mv	s3,a5
  95:C:/Users/stapi/OneDrive/Desktop/GD32VW553/V1_MQTT_OK/GD32VW55X_Wifi_BLE_SDK/GD32VW55x_RELEASE_V1.0.2/MSDK/cloud/alicloud/src/services/awss\awss_info.c ****     char *msg = NULL, *id = NULL;
 365              		.loc 1 95 9
 366 001a 02C4     		sw	zero,8(sp)
  95:C:/Users/stapi/OneDrive/Desktop/GD32VW553/V1_MQTT_OK/GD32VW55X_Wifi_BLE_SDK/GD32VW55x_RELEASE_V1.0.2/MSDK/cloud/alicloud/src/services/awss\awss_info.c ****     char *msg = NULL, *id = NULL;
 367              		.loc 1 95 18
 368 001c 02C6     		sw	zero,12(sp)
  96:C:/Users/stapi/OneDrive/Desktop/GD32VW553/V1_MQTT_OK/GD32VW55X_Wifi_BLE_SDK/GD32VW55x_RELEASE_V1.0.2/MSDK/cloud/alicloud/src/services/awss\awss_info.c ****     char *msg = NULL, *id = NULL;
 369              		.loc 1 96 5 is_stmt 1
 370              	.LVL26:
  97:C:/Users/stapi/OneDrive/Desktop/GD32VW553/V1_MQTT_OK/GD32VW55X_Wifi_BLE_SDK/GD32VW55x_RELEASE_V1.0.2/MSDK/cloud/alicloud/src/services/awss\awss_info.c ****     char topic[TOPIC_LEN_MAX] = {0};
 371              		.loc 1 97 5
 372              		.loc 1 98 5
 373              		.loc 1 98 10 is_stmt 0
 374 001e 02D0     		sw	zero,32(sp)
 375 0020 97000000 		call	memset
 375      E7800000 
 376              	.LVL27:
  99:C:/Users/stapi/OneDrive/Desktop/GD32VW553/V1_MQTT_OK/GD32VW55X_Wifi_BLE_SDK/GD32VW55x_RELEASE_V1.0.2/MSDK/cloud/alicloud/src/services/awss\awss_info.c ****     char req_msg_id[MSG_REQ_ID_LEN] = {0};
 377              		.loc 1 99 5 is_stmt 1
 378              	.LBB30:
 379              	.LBB31:
 380              	.LBB32:
 381              	.LBB33:
 382              		.file 2 "..\\..\\..\\..\\cloud\\alicloud\\src\\services\\dev_bind\\os/os.h"
   1:..\..\..\..\cloud\alicloud\src\services\dev_bind\os/os.h **** /*
   2:..\..\..\..\cloud\alicloud\src\services\dev_bind\os/os.h ****  * Copyright (C) 2015-2018 Alibaba Group Holding Limited
   3:..\..\..\..\cloud\alicloud\src\services\dev_bind\os/os.h ****  */
   4:..\..\..\..\cloud\alicloud\src\services\dev_bind\os/os.h **** 
   5:..\..\..\..\cloud\alicloud\src\services\dev_bind\os/os.h **** #ifndef __AWSS_OS_H__
   6:..\..\..\..\cloud\alicloud\src\services\dev_bind\os/os.h **** #define __AWSS_OS_H__
   7:..\..\..\..\cloud\alicloud\src\services\dev_bind\os/os.h **** 
   8:..\..\..\..\cloud\alicloud\src\services\dev_bind\os/os.h **** #ifdef __cplusplus
   9:..\..\..\..\cloud\alicloud\src\services\dev_bind\os/os.h **** extern "C" {
  10:..\..\..\..\cloud\alicloud\src\services\dev_bind\os/os.h **** #endif
  11:..\..\..\..\cloud\alicloud\src\services\dev_bind\os/os.h **** #include <ctype.h>
  12:..\..\..\..\cloud\alicloud\src\services\dev_bind\os/os.h **** #include "iot_import.h"
  13:..\..\..\..\cloud\alicloud\src\services\dev_bind\os/os.h **** #include "iot_export.h"
  14:..\..\..\..\cloud\alicloud\src\services\dev_bind\os/os.h **** #include "product/product.h"
  15:..\..\..\..\cloud\alicloud\src\services\dev_bind\os/os.h **** #include "platform.h"
  16:..\..\..\..\cloud\alicloud\src\services\dev_bind\os/os.h **** 
  17:..\..\..\..\cloud\alicloud\src\services\dev_bind\os/os.h **** /** @defgroup group_os os
  18:..\..\..\..\cloud\alicloud\src\services\dev_bind\os/os.h ****  *  @{
  19:..\..\..\..\cloud\alicloud\src\services\dev_bind\os/os.h ****  */
  20:..\..\..\..\cloud\alicloud\src\services\dev_bind\os/os.h **** 
  21:..\..\..\..\cloud\alicloud\src\services\dev_bind\os/os.h **** #define OS_MAX_SSID_LEN         PLATFORM_MAX_SSID_LEN
  22:..\..\..\..\cloud\alicloud\src\services\dev_bind\os/os.h **** #define OS_MAX_PASSWD_LEN       PLATFORM_MAX_PASSWD_LEN
  23:..\..\..\..\cloud\alicloud\src\services\dev_bind\os/os.h **** 
  24:..\..\..\..\cloud\alicloud\src\services\dev_bind\os/os.h **** #define OS_MAC_LEN              PLATFORM_MAC_LEN
  25:..\..\..\..\cloud\alicloud\src\services\dev_bind\os/os.h **** #define OS_IP_LEN               PLATFORM_IP_LEN
  26:..\..\..\..\cloud\alicloud\src\services\dev_bind\os/os.h **** #define OS_ETH_ALEN             ETH_ALEN
  27:..\..\..\..\cloud\alicloud\src\services\dev_bind\os/os.h **** 
  28:..\..\..\..\cloud\alicloud\src\services\dev_bind\os/os.h **** #define OS_PRODUCT_KEY_LEN      PRODUCT_KEY_LEN
  29:..\..\..\..\cloud\alicloud\src\services\dev_bind\os/os.h **** #define OS_PRODUCT_SECRET_LEN   PRODUCT_SECRET_LEN
  30:..\..\..\..\cloud\alicloud\src\services\dev_bind\os/os.h **** #define OS_DEVICE_NAME_LEN      DEVICE_NAME_LEN
  31:..\..\..\..\cloud\alicloud\src\services\dev_bind\os/os.h **** #define OS_DEVICE_SECRET_LEN    DEVICE_SECRET_LEN
  32:..\..\..\..\cloud\alicloud\src\services\dev_bind\os/os.h **** 
  33:..\..\..\..\cloud\alicloud\src\services\dev_bind\os/os.h **** /***************************************** Misc Interface *****************************************
  34:..\..\..\..\cloud\alicloud\src\services\dev_bind\os/os.h **** 
  35:..\..\..\..\cloud\alicloud\src\services\dev_bind\os/os.h **** /** @defgroup group_misc misc
  36:..\..\..\..\cloud\alicloud\src\services\dev_bind\os/os.h ****  *  @{
  37:..\..\..\..\cloud\alicloud\src\services\dev_bind\os/os.h ****  */
  38:..\..\..\..\cloud\alicloud\src\services\dev_bind\os/os.h **** /**
  39:..\..\..\..\cloud\alicloud\src\services\dev_bind\os/os.h ****  * @brief .
  40:..\..\..\..\cloud\alicloud\src\services\dev_bind\os/os.h ****  *
  41:..\..\..\..\cloud\alicloud\src\services\dev_bind\os/os.h ****  * @param None.
  42:..\..\..\..\cloud\alicloud\src\services\dev_bind\os/os.h ****  * @return
  43:..\..\..\..\cloud\alicloud\src\services\dev_bind\os/os.h ****  * @verbatim
  44:..\..\..\..\cloud\alicloud\src\services\dev_bind\os/os.h ****  * = 0, This platform is little endian.
  45:..\..\..\..\cloud\alicloud\src\services\dev_bind\os/os.h ****  * = 1, This platform is big endian.
  46:..\..\..\..\cloud\alicloud\src\services\dev_bind\os/os.h ****  * @endverbatim
  47:..\..\..\..\cloud\alicloud\src\services\dev_bind\os/os.h ****  * @see None.
  48:..\..\..\..\cloud\alicloud\src\services\dev_bind\os/os.h ****  * @note None.
  49:..\..\..\..\cloud\alicloud\src\services\dev_bind\os/os.h ****  */
  50:..\..\..\..\cloud\alicloud\src\services\dev_bind\os/os.h **** static inline int os_is_big_endian(void)
  51:..\..\..\..\cloud\alicloud\src\services\dev_bind\os/os.h **** {
  52:..\..\..\..\cloud\alicloud\src\services\dev_bind\os/os.h ****     uint32_t data = 0xFF000000;
  53:..\..\..\..\cloud\alicloud\src\services\dev_bind\os/os.h **** 
  54:..\..\..\..\cloud\alicloud\src\services\dev_bind\os/os.h ****     if (0xFF == *(uint8_t *) & data) {
  55:..\..\..\..\cloud\alicloud\src\services\dev_bind\os/os.h ****         return 1;                                    //big endian
  56:..\..\..\..\cloud\alicloud\src\services\dev_bind\os/os.h ****     }
  57:..\..\..\..\cloud\alicloud\src\services\dev_bind\os/os.h **** 
  58:..\..\..\..\cloud\alicloud\src\services\dev_bind\os/os.h ****     return 0;                                        //little endian
  59:..\..\..\..\cloud\alicloud\src\services\dev_bind\os/os.h **** }
  60:..\..\..\..\cloud\alicloud\src\services\dev_bind\os/os.h **** 
  61:..\..\..\..\cloud\alicloud\src\services\dev_bind\os/os.h **** /**
  62:..\..\..\..\cloud\alicloud\src\services\dev_bind\os/os.h ****  * @brief Convert the data from byte order of current CPU(the "host") to big-endian.
  63:..\..\..\..\cloud\alicloud\src\services\dev_bind\os/os.h ****    The size of the data is 16 bits.
  64:..\..\..\..\cloud\alicloud\src\services\dev_bind\os/os.h ****  *
  65:..\..\..\..\cloud\alicloud\src\services\dev_bind\os/os.h ****  * @param[in] data @n Data to be converted.
  66:..\..\..\..\cloud\alicloud\src\services\dev_bind\os/os.h ****  * @return Conversion result.
  67:..\..\..\..\cloud\alicloud\src\services\dev_bind\os/os.h ****  * @see None.
  68:..\..\..\..\cloud\alicloud\src\services\dev_bind\os/os.h ****  * @note None.
  69:..\..\..\..\cloud\alicloud\src\services\dev_bind\os/os.h ****  */
  70:..\..\..\..\cloud\alicloud\src\services\dev_bind\os/os.h **** uint16_t os_htobe16(uint16_t data);
  71:..\..\..\..\cloud\alicloud\src\services\dev_bind\os/os.h **** 
  72:..\..\..\..\cloud\alicloud\src\services\dev_bind\os/os.h **** /**
  73:..\..\..\..\cloud\alicloud\src\services\dev_bind\os/os.h ****  * @brief Convert the data from host to little-endian.
  74:..\..\..\..\cloud\alicloud\src\services\dev_bind\os/os.h ****    The size of the data is 16 bits.
  75:..\..\..\..\cloud\alicloud\src\services\dev_bind\os/os.h ****  *
  76:..\..\..\..\cloud\alicloud\src\services\dev_bind\os/os.h ****  * @param[in] data @n Data to be converted.
  77:..\..\..\..\cloud\alicloud\src\services\dev_bind\os/os.h ****  * @return Conversion result.
  78:..\..\..\..\cloud\alicloud\src\services\dev_bind\os/os.h ****  * @see None.
  79:..\..\..\..\cloud\alicloud\src\services\dev_bind\os/os.h ****  * @note None.
  80:..\..\..\..\cloud\alicloud\src\services\dev_bind\os/os.h ****  */
  81:..\..\..\..\cloud\alicloud\src\services\dev_bind\os/os.h **** uint16_t os_htole16(uint16_t data);
  82:..\..\..\..\cloud\alicloud\src\services\dev_bind\os/os.h **** 
  83:..\..\..\..\cloud\alicloud\src\services\dev_bind\os/os.h **** /**
  84:..\..\..\..\cloud\alicloud\src\services\dev_bind\os/os.h ****  * @brief Convert the data from big-endian to host.
  85:..\..\..\..\cloud\alicloud\src\services\dev_bind\os/os.h ****    The size of the data is 16 bits.
  86:..\..\..\..\cloud\alicloud\src\services\dev_bind\os/os.h ****  *
  87:..\..\..\..\cloud\alicloud\src\services\dev_bind\os/os.h ****  * @param[in] data @n Data to be converted.
  88:..\..\..\..\cloud\alicloud\src\services\dev_bind\os/os.h ****  * @return Conversion result.
  89:..\..\..\..\cloud\alicloud\src\services\dev_bind\os/os.h ****  * @see None.
  90:..\..\..\..\cloud\alicloud\src\services\dev_bind\os/os.h ****  * @note None.
  91:..\..\..\..\cloud\alicloud\src\services\dev_bind\os/os.h ****  */
  92:..\..\..\..\cloud\alicloud\src\services\dev_bind\os/os.h **** uint16_t os_be16toh(uint16_t data);
  93:..\..\..\..\cloud\alicloud\src\services\dev_bind\os/os.h **** 
  94:..\..\..\..\cloud\alicloud\src\services\dev_bind\os/os.h **** /**
  95:..\..\..\..\cloud\alicloud\src\services\dev_bind\os/os.h ****  * @brief Convert the data from little-endian to host.
  96:..\..\..\..\cloud\alicloud\src\services\dev_bind\os/os.h ****    The size of the data is 16 bits.
  97:..\..\..\..\cloud\alicloud\src\services\dev_bind\os/os.h ****  *
  98:..\..\..\..\cloud\alicloud\src\services\dev_bind\os/os.h ****  * @param[in] data @n Data to be converted.
  99:..\..\..\..\cloud\alicloud\src\services\dev_bind\os/os.h ****  * @return Conversion result.
 100:..\..\..\..\cloud\alicloud\src\services\dev_bind\os/os.h ****  * @see None.
 101:..\..\..\..\cloud\alicloud\src\services\dev_bind\os/os.h ****  * @note None.
 102:..\..\..\..\cloud\alicloud\src\services\dev_bind\os/os.h ****  */
 103:..\..\..\..\cloud\alicloud\src\services\dev_bind\os/os.h **** uint16_t os_le16toh(uint16_t data);
 104:..\..\..\..\cloud\alicloud\src\services\dev_bind\os/os.h **** 
 105:..\..\..\..\cloud\alicloud\src\services\dev_bind\os/os.h **** /**
 106:..\..\..\..\cloud\alicloud\src\services\dev_bind\os/os.h ****  * @brief Convert the data from little-endian to host.
 107:..\..\..\..\cloud\alicloud\src\services\dev_bind\os/os.h ****    The size of the data is 32 bits.
 108:..\..\..\..\cloud\alicloud\src\services\dev_bind\os/os.h ****  *
 109:..\..\..\..\cloud\alicloud\src\services\dev_bind\os/os.h ****  * @param[in] data @n Data to be converted.
 110:..\..\..\..\cloud\alicloud\src\services\dev_bind\os/os.h ****  * @return Conversion result.
 111:..\..\..\..\cloud\alicloud\src\services\dev_bind\os/os.h ****  * @see None.
 112:..\..\..\..\cloud\alicloud\src\services\dev_bind\os/os.h ****  * @note None.
 113:..\..\..\..\cloud\alicloud\src\services\dev_bind\os/os.h ****  */
 114:..\..\..\..\cloud\alicloud\src\services\dev_bind\os/os.h **** uint32_t os_le32toh(uint32_t data);
 115:..\..\..\..\cloud\alicloud\src\services\dev_bind\os/os.h **** 
 116:..\..\..\..\cloud\alicloud\src\services\dev_bind\os/os.h **** /**
 117:..\..\..\..\cloud\alicloud\src\services\dev_bind\os/os.h ****  * @brief Convert the data from host to big-endian.
 118:..\..\..\..\cloud\alicloud\src\services\dev_bind\os/os.h ****    The size of the data is 64 bits.
 119:..\..\..\..\cloud\alicloud\src\services\dev_bind\os/os.h ****  *
 120:..\..\..\..\cloud\alicloud\src\services\dev_bind\os/os.h ****  * @param[in] data @n Data to be converted.
 121:..\..\..\..\cloud\alicloud\src\services\dev_bind\os/os.h ****  * @return Conversion result.
 122:..\..\..\..\cloud\alicloud\src\services\dev_bind\os/os.h ****  * @see None.
 123:..\..\..\..\cloud\alicloud\src\services\dev_bind\os/os.h ****  * @note None.
 124:..\..\..\..\cloud\alicloud\src\services\dev_bind\os/os.h ****  */
 125:..\..\..\..\cloud\alicloud\src\services\dev_bind\os/os.h **** //uint64_t os_htobe64(uint64_t data);
 126:..\..\..\..\cloud\alicloud\src\services\dev_bind\os/os.h **** 
 127:..\..\..\..\cloud\alicloud\src\services\dev_bind\os/os.h **** /**
 128:..\..\..\..\cloud\alicloud\src\services\dev_bind\os/os.h ****  * @brief Convert the data from host to little-endian.
 129:..\..\..\..\cloud\alicloud\src\services\dev_bind\os/os.h ****    The size of the data is 64 bits.
 130:..\..\..\..\cloud\alicloud\src\services\dev_bind\os/os.h ****  *
 131:..\..\..\..\cloud\alicloud\src\services\dev_bind\os/os.h ****  * @param[in] data @n Data to be converted.
 132:..\..\..\..\cloud\alicloud\src\services\dev_bind\os/os.h ****  * @return Conversion result.
 133:..\..\..\..\cloud\alicloud\src\services\dev_bind\os/os.h ****  * @see None.
 134:..\..\..\..\cloud\alicloud\src\services\dev_bind\os/os.h ****  * @note None.
 135:..\..\..\..\cloud\alicloud\src\services\dev_bind\os/os.h ****  */
 136:..\..\..\..\cloud\alicloud\src\services\dev_bind\os/os.h **** //uint64_t os_htole64(uint64_t data);
 137:..\..\..\..\cloud\alicloud\src\services\dev_bind\os/os.h **** 
 138:..\..\..\..\cloud\alicloud\src\services\dev_bind\os/os.h **** /**
 139:..\..\..\..\cloud\alicloud\src\services\dev_bind\os/os.h ****  * @brief Convert the data from big-endian to host.
 140:..\..\..\..\cloud\alicloud\src\services\dev_bind\os/os.h ****    The size of the data is 64 bits.
 141:..\..\..\..\cloud\alicloud\src\services\dev_bind\os/os.h ****  *
 142:..\..\..\..\cloud\alicloud\src\services\dev_bind\os/os.h ****  * @param[in] data @n Data to be converted.
 143:..\..\..\..\cloud\alicloud\src\services\dev_bind\os/os.h ****  * @return Conversion result.
 144:..\..\..\..\cloud\alicloud\src\services\dev_bind\os/os.h ****  * @see None.
 145:..\..\..\..\cloud\alicloud\src\services\dev_bind\os/os.h ****  * @note None.
 146:..\..\..\..\cloud\alicloud\src\services\dev_bind\os/os.h ****  */
 147:..\..\..\..\cloud\alicloud\src\services\dev_bind\os/os.h **** //uint64_t os_be64toh(uint64_t data);
 148:..\..\..\..\cloud\alicloud\src\services\dev_bind\os/os.h **** 
 149:..\..\..\..\cloud\alicloud\src\services\dev_bind\os/os.h **** /**
 150:..\..\..\..\cloud\alicloud\src\services\dev_bind\os/os.h ****  * @brief Convert the data from little-endian to host.
 151:..\..\..\..\cloud\alicloud\src\services\dev_bind\os/os.h ****    The size of the data is 64 bits.
 152:..\..\..\..\cloud\alicloud\src\services\dev_bind\os/os.h ****  *
 153:..\..\..\..\cloud\alicloud\src\services\dev_bind\os/os.h ****  * @param[in] data @n Data to be converted.
 154:..\..\..\..\cloud\alicloud\src\services\dev_bind\os/os.h ****  * @return Conversion result.
 155:..\..\..\..\cloud\alicloud\src\services\dev_bind\os/os.h ****  * @see None.
 156:..\..\..\..\cloud\alicloud\src\services\dev_bind\os/os.h ****  * @note None.
 157:..\..\..\..\cloud\alicloud\src\services\dev_bind\os/os.h ****  */
 158:..\..\..\..\cloud\alicloud\src\services\dev_bind\os/os.h **** //uint64_t os_le64toh(uint64_t data);
 159:..\..\..\..\cloud\alicloud\src\services\dev_bind\os/os.h **** 
 160:..\..\..\..\cloud\alicloud\src\services\dev_bind\os/os.h **** /**
 161:..\..\..\..\cloud\alicloud\src\services\dev_bind\os/os.h ****  * @brief Get unaligned 16 bits data which is big-endian and convert to host byte order.
 162:..\..\..\..\cloud\alicloud\src\services\dev_bind\os/os.h ****  *
 163:..\..\..\..\cloud\alicloud\src\services\dev_bind\os/os.h ****  * @param[in] ptr @n The start address of the unaligned data.
 164:..\..\..\..\cloud\alicloud\src\services\dev_bind\os/os.h ****  * @return Result in host byte order.
 165:..\..\..\..\cloud\alicloud\src\services\dev_bind\os/os.h ****  * @see None.
 166:..\..\..\..\cloud\alicloud\src\services\dev_bind\os/os.h ****  * @note None.
 167:..\..\..\..\cloud\alicloud\src\services\dev_bind\os/os.h ****  */
 168:..\..\..\..\cloud\alicloud\src\services\dev_bind\os/os.h **** uint16_t os_get_unaligned_be16(uint8_t *ptr);
 169:..\..\..\..\cloud\alicloud\src\services\dev_bind\os/os.h **** 
 170:..\..\..\..\cloud\alicloud\src\services\dev_bind\os/os.h **** /**
 171:..\..\..\..\cloud\alicloud\src\services\dev_bind\os/os.h ****  * @brief Get unaligned 16 bits data which is little-endian and convert to host byte order.
 172:..\..\..\..\cloud\alicloud\src\services\dev_bind\os/os.h ****  *
 173:..\..\..\..\cloud\alicloud\src\services\dev_bind\os/os.h ****  * @param[in] ptr @n The start address of the unaligned data.
 174:..\..\..\..\cloud\alicloud\src\services\dev_bind\os/os.h ****  * @return Result in host byte order.
 175:..\..\..\..\cloud\alicloud\src\services\dev_bind\os/os.h ****  * @see None.
 176:..\..\..\..\cloud\alicloud\src\services\dev_bind\os/os.h ****  * @note None.
 177:..\..\..\..\cloud\alicloud\src\services\dev_bind\os/os.h ****  */
 178:..\..\..\..\cloud\alicloud\src\services\dev_bind\os/os.h **** uint16_t os_get_unaligned_le16(uint8_t *ptr);
 179:..\..\..\..\cloud\alicloud\src\services\dev_bind\os/os.h **** 
 180:..\..\..\..\cloud\alicloud\src\services\dev_bind\os/os.h **** /**
 181:..\..\..\..\cloud\alicloud\src\services\dev_bind\os/os.h ****  * @brief Get unaligned 32 bits data which is big-endian and convert to host byte order.
 182:..\..\..\..\cloud\alicloud\src\services\dev_bind\os/os.h ****  *
 183:..\..\..\..\cloud\alicloud\src\services\dev_bind\os/os.h ****  * @param[in] ptr @n The start address of the unaligned data.
 184:..\..\..\..\cloud\alicloud\src\services\dev_bind\os/os.h ****  * @return Result in host byte order.
 185:..\..\..\..\cloud\alicloud\src\services\dev_bind\os/os.h ****  * @see None.
 186:..\..\..\..\cloud\alicloud\src\services\dev_bind\os/os.h ****  * @note None.
 187:..\..\..\..\cloud\alicloud\src\services\dev_bind\os/os.h ****  */
 188:..\..\..\..\cloud\alicloud\src\services\dev_bind\os/os.h **** uint32_t os_get_unaligned_be32(uint8_t *ptr);
 189:..\..\..\..\cloud\alicloud\src\services\dev_bind\os/os.h **** 
 190:..\..\..\..\cloud\alicloud\src\services\dev_bind\os/os.h **** /**
 191:..\..\..\..\cloud\alicloud\src\services\dev_bind\os/os.h ****  * @brief Get unaligned 32 bits data which is little-endian and convert to host byte order.
 192:..\..\..\..\cloud\alicloud\src\services\dev_bind\os/os.h ****  *
 193:..\..\..\..\cloud\alicloud\src\services\dev_bind\os/os.h ****  * @param[in] ptr @n The start address of the unaligned data.
 194:..\..\..\..\cloud\alicloud\src\services\dev_bind\os/os.h ****  * @return Result in host byte order.
 195:..\..\..\..\cloud\alicloud\src\services\dev_bind\os/os.h ****  * @see None.
 196:..\..\..\..\cloud\alicloud\src\services\dev_bind\os/os.h ****  * @note None.
 197:..\..\..\..\cloud\alicloud\src\services\dev_bind\os/os.h ****  */
 198:..\..\..\..\cloud\alicloud\src\services\dev_bind\os/os.h **** uint32_t os_get_unaligned_le32(uint8_t *ptr);
 199:..\..\..\..\cloud\alicloud\src\services\dev_bind\os/os.h **** 
 200:..\..\..\..\cloud\alicloud\src\services\dev_bind\os/os.h **** /**
 201:..\..\..\..\cloud\alicloud\src\services\dev_bind\os/os.h ****  * @brief sleep thread itself.
 202:..\..\..\..\cloud\alicloud\src\services\dev_bind\os/os.h ****  *
 203:..\..\..\..\cloud\alicloud\src\services\dev_bind\os/os.h ****  * @param[in] ms @n the time interval for which execution is to be suspended, in milliseconds.
 204:..\..\..\..\cloud\alicloud\src\services\dev_bind\os/os.h ****  * @return None.
 205:..\..\..\..\cloud\alicloud\src\services\dev_bind\os/os.h ****  * @see None.
 206:..\..\..\..\cloud\alicloud\src\services\dev_bind\os/os.h ****  * @note None.
 207:..\..\..\..\cloud\alicloud\src\services\dev_bind\os/os.h ****  */
 208:..\..\..\..\cloud\alicloud\src\services\dev_bind\os/os.h **** static inline void os_msleep(_IN_ uint32_t ms)
 209:..\..\..\..\cloud\alicloud\src\services\dev_bind\os/os.h **** {
 210:..\..\..\..\cloud\alicloud\src\services\dev_bind\os/os.h ****     platform_msleep(ms);
 211:..\..\..\..\cloud\alicloud\src\services\dev_bind\os/os.h **** }
 212:..\..\..\..\cloud\alicloud\src\services\dev_bind\os/os.h **** 
 213:..\..\..\..\cloud\alicloud\src\services\dev_bind\os/os.h **** /**
 214:..\..\..\..\cloud\alicloud\src\services\dev_bind\os/os.h ****  * @brief sleep thread itself.
 215:..\..\..\..\cloud\alicloud\src\services\dev_bind\os/os.h ****  *
 216:..\..\..\..\cloud\alicloud\src\services\dev_bind\os/os.h ****  * @param[in] sec @n the time interval for which execution is to be suspended, in seconds.
 217:..\..\..\..\cloud\alicloud\src\services\dev_bind\os/os.h ****  * @return None.
 218:..\..\..\..\cloud\alicloud\src\services\dev_bind\os/os.h ****  * @see None.
 219:..\..\..\..\cloud\alicloud\src\services\dev_bind\os/os.h ****  * @note None.
 220:..\..\..\..\cloud\alicloud\src\services\dev_bind\os/os.h ****  */
 221:..\..\..\..\cloud\alicloud\src\services\dev_bind\os/os.h **** static inline void os_sleep(_IN_ uint32_t sec)
 222:..\..\..\..\cloud\alicloud\src\services\dev_bind\os/os.h **** {
 223:..\..\..\..\cloud\alicloud\src\services\dev_bind\os/os.h ****     platform_msleep(sec * 1000);
 224:..\..\..\..\cloud\alicloud\src\services\dev_bind\os/os.h **** }
 225:..\..\..\..\cloud\alicloud\src\services\dev_bind\os/os.h **** 
 226:..\..\..\..\cloud\alicloud\src\services\dev_bind\os/os.h **** /**
 227:..\..\..\..\cloud\alicloud\src\services\dev_bind\os/os.h ****  * @brief system reboot immediately.
 228:..\..\..\..\cloud\alicloud\src\services\dev_bind\os/os.h ****  *
 229:..\..\..\..\cloud\alicloud\src\services\dev_bind\os/os.h ****  * @return None.
 230:..\..\..\..\cloud\alicloud\src\services\dev_bind\os/os.h ****  * @see None.
 231:..\..\..\..\cloud\alicloud\src\services\dev_bind\os/os.h ****  * @note None.
 232:..\..\..\..\cloud\alicloud\src\services\dev_bind\os/os.h ****  */
 233:..\..\..\..\cloud\alicloud\src\services\dev_bind\os/os.h **** static inline void os_reboot()
 234:..\..\..\..\cloud\alicloud\src\services\dev_bind\os/os.h **** {
 235:..\..\..\..\cloud\alicloud\src\services\dev_bind\os/os.h ****     platform_reboot();
 236:..\..\..\..\cloud\alicloud\src\services\dev_bind\os/os.h **** }
 237:..\..\..\..\cloud\alicloud\src\services\dev_bind\os/os.h **** 
 238:..\..\..\..\cloud\alicloud\src\services\dev_bind\os/os.h **** /** @} *///end of os_misc
 239:..\..\..\..\cloud\alicloud\src\services\dev_bind\os/os.h **** 
 240:..\..\..\..\cloud\alicloud\src\services\dev_bind\os/os.h **** /***************************************** mutex Interface ****************************************
 241:..\..\..\..\cloud\alicloud\src\services\dev_bind\os/os.h **** 
 242:..\..\..\..\cloud\alicloud\src\services\dev_bind\os/os.h **** /** @defgroup group_os_mutex mutex
 243:..\..\..\..\cloud\alicloud\src\services\dev_bind\os/os.h ****  *  @{
 244:..\..\..\..\cloud\alicloud\src\services\dev_bind\os/os.h ****  */
 245:..\..\..\..\cloud\alicloud\src\services\dev_bind\os/os.h **** 
 246:..\..\..\..\cloud\alicloud\src\services\dev_bind\os/os.h **** /**
 247:..\..\..\..\cloud\alicloud\src\services\dev_bind\os/os.h ****  * @brief Create a mutex.
 248:..\..\..\..\cloud\alicloud\src\services\dev_bind\os/os.h ****  *
 249:..\..\..\..\cloud\alicloud\src\services\dev_bind\os/os.h ****  * @return Mutex handle.
 250:..\..\..\..\cloud\alicloud\src\services\dev_bind\os/os.h ****  * @see None.
 251:..\..\..\..\cloud\alicloud\src\services\dev_bind\os/os.h ****  * @note None.
 252:..\..\..\..\cloud\alicloud\src\services\dev_bind\os/os.h ****  */
 253:..\..\..\..\cloud\alicloud\src\services\dev_bind\os/os.h **** static inline void *os_mutex_init(void)
 254:..\..\..\..\cloud\alicloud\src\services\dev_bind\os/os.h **** {
 255:..\..\..\..\cloud\alicloud\src\services\dev_bind\os/os.h ****     return platform_mutex_init();
 256:..\..\..\..\cloud\alicloud\src\services\dev_bind\os/os.h **** }
 257:..\..\..\..\cloud\alicloud\src\services\dev_bind\os/os.h **** 
 258:..\..\..\..\cloud\alicloud\src\services\dev_bind\os/os.h **** /**
 259:..\..\..\..\cloud\alicloud\src\services\dev_bind\os/os.h ****  * @brief Destroy the specified mutex object, it will free related resource.
 260:..\..\..\..\cloud\alicloud\src\services\dev_bind\os/os.h ****  *
 261:..\..\..\..\cloud\alicloud\src\services\dev_bind\os/os.h ****  * @param[in] mutex @n The specified mutex.
 262:..\..\..\..\cloud\alicloud\src\services\dev_bind\os/os.h ****  * @return None.
 263:..\..\..\..\cloud\alicloud\src\services\dev_bind\os/os.h ****  * @see None.
 264:..\..\..\..\cloud\alicloud\src\services\dev_bind\os/os.h ****  * @note None.
 265:..\..\..\..\cloud\alicloud\src\services\dev_bind\os/os.h ****  */
 266:..\..\..\..\cloud\alicloud\src\services\dev_bind\os/os.h **** static inline void os_mutex_destroy(_IN_ void *mutex)
 267:..\..\..\..\cloud\alicloud\src\services\dev_bind\os/os.h **** {
 268:..\..\..\..\cloud\alicloud\src\services\dev_bind\os/os.h ****     platform_mutex_destroy(mutex);
 269:..\..\..\..\cloud\alicloud\src\services\dev_bind\os/os.h **** }
 270:..\..\..\..\cloud\alicloud\src\services\dev_bind\os/os.h **** 
 271:..\..\..\..\cloud\alicloud\src\services\dev_bind\os/os.h **** /**
 272:..\..\..\..\cloud\alicloud\src\services\dev_bind\os/os.h ****  * @brief Waits until the specified mutex is in the signaled state.
 273:..\..\..\..\cloud\alicloud\src\services\dev_bind\os/os.h ****  *
 274:..\..\..\..\cloud\alicloud\src\services\dev_bind\os/os.h ****  * @param[in] mutex @n the specified mutex.
 275:..\..\..\..\cloud\alicloud\src\services\dev_bind\os/os.h ****  * @return None.
 276:..\..\..\..\cloud\alicloud\src\services\dev_bind\os/os.h ****  * @see None.
 277:..\..\..\..\cloud\alicloud\src\services\dev_bind\os/os.h ****  * @note None.
 278:..\..\..\..\cloud\alicloud\src\services\dev_bind\os/os.h ****  */
 279:..\..\..\..\cloud\alicloud\src\services\dev_bind\os/os.h **** static inline void os_mutex_lock(_IN_ void *mutex)
 280:..\..\..\..\cloud\alicloud\src\services\dev_bind\os/os.h **** {
 281:..\..\..\..\cloud\alicloud\src\services\dev_bind\os/os.h ****     platform_mutex_lock(mutex);
 282:..\..\..\..\cloud\alicloud\src\services\dev_bind\os/os.h **** }
 283:..\..\..\..\cloud\alicloud\src\services\dev_bind\os/os.h **** 
 284:..\..\..\..\cloud\alicloud\src\services\dev_bind\os/os.h **** /**
 285:..\..\..\..\cloud\alicloud\src\services\dev_bind\os/os.h ****  * @brief Releases ownership of the specified mutex object..
 286:..\..\..\..\cloud\alicloud\src\services\dev_bind\os/os.h ****  *
 287:..\..\..\..\cloud\alicloud\src\services\dev_bind\os/os.h ****  * @param[in] mutex @n the specified mutex.
 288:..\..\..\..\cloud\alicloud\src\services\dev_bind\os/os.h ****  * @return None.
 289:..\..\..\..\cloud\alicloud\src\services\dev_bind\os/os.h ****  * @see None.
 290:..\..\..\..\cloud\alicloud\src\services\dev_bind\os/os.h ****  * @note None.
 291:..\..\..\..\cloud\alicloud\src\services\dev_bind\os/os.h ****  */
 292:..\..\..\..\cloud\alicloud\src\services\dev_bind\os/os.h **** static inline void os_mutex_unlock(_IN_ void *mutex)
 293:..\..\..\..\cloud\alicloud\src\services\dev_bind\os/os.h **** {
 294:..\..\..\..\cloud\alicloud\src\services\dev_bind\os/os.h ****     platform_mutex_unlock(mutex);
 295:..\..\..\..\cloud\alicloud\src\services\dev_bind\os/os.h **** }
 296:..\..\..\..\cloud\alicloud\src\services\dev_bind\os/os.h **** 
 297:..\..\..\..\cloud\alicloud\src\services\dev_bind\os/os.h **** /** @} */// end of os_mutex
 298:..\..\..\..\cloud\alicloud\src\services\dev_bind\os/os.h **** 
 299:..\..\..\..\cloud\alicloud\src\services\dev_bind\os/os.h **** /*************************************** semaphore Interface **************************************
 300:..\..\..\..\cloud\alicloud\src\services\dev_bind\os/os.h **** 
 301:..\..\..\..\cloud\alicloud\src\services\dev_bind\os/os.h **** /** @defgroup group_os_semaphore semaphore
 302:..\..\..\..\cloud\alicloud\src\services\dev_bind\os/os.h ****  *  @{
 303:..\..\..\..\cloud\alicloud\src\services\dev_bind\os/os.h ****  */
 304:..\..\..\..\cloud\alicloud\src\services\dev_bind\os/os.h **** 
 305:..\..\..\..\cloud\alicloud\src\services\dev_bind\os/os.h **** /**
 306:..\..\..\..\cloud\alicloud\src\services\dev_bind\os/os.h ****  * @brief Create a semaphore.
 307:..\..\..\..\cloud\alicloud\src\services\dev_bind\os/os.h ****  *
 308:..\..\..\..\cloud\alicloud\src\services\dev_bind\os/os.h ****  * @return semaphore handle.
 309:..\..\..\..\cloud\alicloud\src\services\dev_bind\os/os.h ****  * @see None.
 310:..\..\..\..\cloud\alicloud\src\services\dev_bind\os/os.h ****  * @note The recommended value of maximum count of the semaphore is 255.
 311:..\..\..\..\cloud\alicloud\src\services\dev_bind\os/os.h ****  */
 312:..\..\..\..\cloud\alicloud\src\services\dev_bind\os/os.h **** static inline void *os_semaphore_init(void)
 313:..\..\..\..\cloud\alicloud\src\services\dev_bind\os/os.h **** {
 314:..\..\..\..\cloud\alicloud\src\services\dev_bind\os/os.h ****     return platform_semaphore_init();
 315:..\..\..\..\cloud\alicloud\src\services\dev_bind\os/os.h **** }
 316:..\..\..\..\cloud\alicloud\src\services\dev_bind\os/os.h **** 
 317:..\..\..\..\cloud\alicloud\src\services\dev_bind\os/os.h **** /**
 318:..\..\..\..\cloud\alicloud\src\services\dev_bind\os/os.h ****  * @brief Destroy the specified semaphore object, it will free related resource.
 319:..\..\..\..\cloud\alicloud\src\services\dev_bind\os/os.h ****  *
 320:..\..\..\..\cloud\alicloud\src\services\dev_bind\os/os.h ****  * @param[in] sem @n the specified sem.
 321:..\..\..\..\cloud\alicloud\src\services\dev_bind\os/os.h ****  * @return None.
 322:..\..\..\..\cloud\alicloud\src\services\dev_bind\os/os.h ****  * @see None.
 323:..\..\..\..\cloud\alicloud\src\services\dev_bind\os/os.h ****  * @note None.
 324:..\..\..\..\cloud\alicloud\src\services\dev_bind\os/os.h ****  */
 325:..\..\..\..\cloud\alicloud\src\services\dev_bind\os/os.h **** static inline void os_semaphore_destroy(_IN_ void *sem)
 326:..\..\..\..\cloud\alicloud\src\services\dev_bind\os/os.h **** {
 327:..\..\..\..\cloud\alicloud\src\services\dev_bind\os/os.h ****     platform_semaphore_destroy(sem);
 328:..\..\..\..\cloud\alicloud\src\services\dev_bind\os/os.h **** }
 329:..\..\..\..\cloud\alicloud\src\services\dev_bind\os/os.h **** 
 330:..\..\..\..\cloud\alicloud\src\services\dev_bind\os/os.h **** /**
 331:..\..\..\..\cloud\alicloud\src\services\dev_bind\os/os.h ****  * @brief Wait until the specified mutex is in the signaled state or the time-out interval elapses.
 332:..\..\..\..\cloud\alicloud\src\services\dev_bind\os/os.h ****  *
 333:..\..\..\..\cloud\alicloud\src\services\dev_bind\os/os.h ****  * @param[in] sem @n the specified semaphore.
 334:..\..\..\..\cloud\alicloud\src\services\dev_bind\os/os.h ****  * @param[in] timeout_ms @n timeout interval in millisecond.
 335:..\..\..\..\cloud\alicloud\src\services\dev_bind\os/os.h ****      If timeout_ms is OS_WAIT_INFINITE, the function will return only when the semaphore is signale
 336:..\..\..\..\cloud\alicloud\src\services\dev_bind\os/os.h ****  * @return
 337:..\..\..\..\cloud\alicloud\src\services\dev_bind\os/os.h ****    @verbatim
 338:..\..\..\..\cloud\alicloud\src\services\dev_bind\os/os.h ****    =  0: The state of the specified object is signaled.
 339:..\..\..\..\cloud\alicloud\src\services\dev_bind\os/os.h ****    =  -1: The time-out interval elapsed, and the object's state is nonsignaled.
 340:..\..\..\..\cloud\alicloud\src\services\dev_bind\os/os.h ****    @endverbatim
 341:..\..\..\..\cloud\alicloud\src\services\dev_bind\os/os.h ****  * @see None.
 342:..\..\..\..\cloud\alicloud\src\services\dev_bind\os/os.h ****  * @note None.
 343:..\..\..\..\cloud\alicloud\src\services\dev_bind\os/os.h ****  */
 344:..\..\..\..\cloud\alicloud\src\services\dev_bind\os/os.h **** static inline int os_semaphore_wait(_IN_ void *sem, _IN_ uint32_t timeout_ms)
 345:..\..\..\..\cloud\alicloud\src\services\dev_bind\os/os.h **** {
 346:..\..\..\..\cloud\alicloud\src\services\dev_bind\os/os.h ****     return platform_semaphore_wait(sem, timeout_ms);
 347:..\..\..\..\cloud\alicloud\src\services\dev_bind\os/os.h **** }
 348:..\..\..\..\cloud\alicloud\src\services\dev_bind\os/os.h **** 
 349:..\..\..\..\cloud\alicloud\src\services\dev_bind\os/os.h **** /**
 350:..\..\..\..\cloud\alicloud\src\services\dev_bind\os/os.h ****  * @brief Increases the count of the specified semaphore object by 1.
 351:..\..\..\..\cloud\alicloud\src\services\dev_bind\os/os.h ****  *
 352:..\..\..\..\cloud\alicloud\src\services\dev_bind\os/os.h ****  * @param[in] sem @n the specified semaphore.
 353:..\..\..\..\cloud\alicloud\src\services\dev_bind\os/os.h ****  * @return None.
 354:..\..\..\..\cloud\alicloud\src\services\dev_bind\os/os.h ****  * @see None.
 355:..\..\..\..\cloud\alicloud\src\services\dev_bind\os/os.h ****  * @note None.
 356:..\..\..\..\cloud\alicloud\src\services\dev_bind\os/os.h ****  */
 357:..\..\..\..\cloud\alicloud\src\services\dev_bind\os/os.h **** static inline void os_semaphore_post(_IN_ void *sem)
 358:..\..\..\..\cloud\alicloud\src\services\dev_bind\os/os.h **** {
 359:..\..\..\..\cloud\alicloud\src\services\dev_bind\os/os.h ****     platform_semaphore_post(sem);
 360:..\..\..\..\cloud\alicloud\src\services\dev_bind\os/os.h **** }
 361:..\..\..\..\cloud\alicloud\src\services\dev_bind\os/os.h **** 
 362:..\..\..\..\cloud\alicloud\src\services\dev_bind\os/os.h **** /** @} */// end of os_semaphore
 363:..\..\..\..\cloud\alicloud\src\services\dev_bind\os/os.h **** 
 364:..\..\..\..\cloud\alicloud\src\services\dev_bind\os/os.h **** /**************************************** memory Interface ****************************************
 365:..\..\..\..\cloud\alicloud\src\services\dev_bind\os/os.h **** 
 366:..\..\..\..\cloud\alicloud\src\services\dev_bind\os/os.h **** /** @defgroup group_os_memory_manage memory
 367:..\..\..\..\cloud\alicloud\src\services\dev_bind\os/os.h ****  *  @{
 368:..\..\..\..\cloud\alicloud\src\services\dev_bind\os/os.h ****  */
 369:..\..\..\..\cloud\alicloud\src\services\dev_bind\os/os.h **** 
 370:..\..\..\..\cloud\alicloud\src\services\dev_bind\os/os.h **** /**
 371:..\..\..\..\cloud\alicloud\src\services\dev_bind\os/os.h ****  * @brief Allocates a block of size bytes of memory, returning a pointer to the beginning of the bl
 372:..\..\..\..\cloud\alicloud\src\services\dev_bind\os/os.h ****  *
 373:..\..\..\..\cloud\alicloud\src\services\dev_bind\os/os.h ****  * @param[in] size @n specify block size in bytes.
 374:..\..\..\..\cloud\alicloud\src\services\dev_bind\os/os.h ****  * @return A pointer to the beginning of the block.
 375:..\..\..\..\cloud\alicloud\src\services\dev_bind\os/os.h ****  * @see None.
 376:..\..\..\..\cloud\alicloud\src\services\dev_bind\os/os.h ****  * @note Block value is indeterminate.
 377:..\..\..\..\cloud\alicloud\src\services\dev_bind\os/os.h ****  */
 378:..\..\..\..\cloud\alicloud\src\services\dev_bind\os/os.h **** static inline void *os_malloc(_IN_ uint32_t size)
 379:..\..\..\..\cloud\alicloud\src\services\dev_bind\os/os.h **** {
 380:..\..\..\..\cloud\alicloud\src\services\dev_bind\os/os.h ****     return platform_malloc(size);
 383              		.loc 2 380 12 is_stmt 0
 384 0028 13050024 		li	a0,576
 385              	.LBE33:
 386              	.LBE32:
 387              	.LBE31:
 388              	.LBE30:
 389              		.loc 1 99 10
 390 002c 02C8     		sw	zero,16(sp)
 391 002e 02CA     		sw	zero,20(sp)
 392 0030 02CC     		sw	zero,24(sp)
 393 0032 02CE     		sw	zero,28(sp)
 100:C:/Users/stapi/OneDrive/Desktop/GD32VW553/V1_MQTT_OK/GD32VW55X_Wifi_BLE_SDK/GD32VW55x_RELEASE_V1.0.2/MSDK/cloud/alicloud/src/services/awss\awss_info.c **** 
 101:C:/Users/stapi/OneDrive/Desktop/GD32VW553/V1_MQTT_OK/GD32VW55X_Wifi_BLE_SDK/GD32VW55x_RELEASE_V1.0.2/MSDK/cloud/alicloud/src/services/awss\awss_info.c ****     buf = os_zalloc(DEV_INFO_LEN_MAX);
 394              		.loc 1 101 5 is_stmt 1
 395              	.LVL28:
 396              	.LBB37:
 397              	.LBB36:
 381:..\..\..\..\cloud\alicloud\src\services\dev_bind\os/os.h **** }
 382:..\..\..\..\cloud\alicloud\src\services\dev_bind\os/os.h **** 
 383:..\..\..\..\cloud\alicloud\src\services\dev_bind\os/os.h **** 
 384:..\..\..\..\cloud\alicloud\src\services\dev_bind\os/os.h **** /**
 385:..\..\..\..\cloud\alicloud\src\services\dev_bind\os/os.h ****  * @brief Deallocate memory block
 386:..\..\..\..\cloud\alicloud\src\services\dev_bind\os/os.h ****  *
 387:..\..\..\..\cloud\alicloud\src\services\dev_bind\os/os.h ****  * @param[in] ptr @n Pointer to a memory block previously allocated with platform_malloc.
 388:..\..\..\..\cloud\alicloud\src\services\dev_bind\os/os.h ****  * @return None.
 389:..\..\..\..\cloud\alicloud\src\services\dev_bind\os/os.h ****  * @see None.
 390:..\..\..\..\cloud\alicloud\src\services\dev_bind\os/os.h ****  * @note None.
 391:..\..\..\..\cloud\alicloud\src\services\dev_bind\os/os.h ****  */
 392:..\..\..\..\cloud\alicloud\src\services\dev_bind\os/os.h **** static inline void os_free(_IN_ void *ptr)
 393:..\..\..\..\cloud\alicloud\src\services\dev_bind\os/os.h **** {
 394:..\..\..\..\cloud\alicloud\src\services\dev_bind\os/os.h ****     platform_free(ptr);
 395:..\..\..\..\cloud\alicloud\src\services\dev_bind\os/os.h **** }
 396:..\..\..\..\cloud\alicloud\src\services\dev_bind\os/os.h **** 
 397:..\..\..\..\cloud\alicloud\src\services\dev_bind\os/os.h **** /**
 398:..\..\..\..\cloud\alicloud\src\services\dev_bind\os/os.h ****  * @brief Allocates a memory block with memory initialized to 0,
 399:..\..\..\..\cloud\alicloud\src\services\dev_bind\os/os.h ****      returning a pointer to the beginning of the block.
 400:..\..\..\..\cloud\alicloud\src\services\dev_bind\os/os.h ****  *
 401:..\..\..\..\cloud\alicloud\src\services\dev_bind\os/os.h ****  * @param[in] size @n specify block size in bytes.
 402:..\..\..\..\cloud\alicloud\src\services\dev_bind\os/os.h ****  * @return A pointer to the beginning of the block.
 403:..\..\..\..\cloud\alicloud\src\services\dev_bind\os/os.h ****  * @see None.
 404:..\..\..\..\cloud\alicloud\src\services\dev_bind\os/os.h ****  * @note Block value is indeterminate.
 405:..\..\..\..\cloud\alicloud\src\services\dev_bind\os/os.h ****  */
 406:..\..\..\..\cloud\alicloud\src\services\dev_bind\os/os.h **** static inline void *os_zalloc(uint32_t size)
 407:..\..\..\..\cloud\alicloud\src\services\dev_bind\os/os.h **** {
 408:..\..\..\..\cloud\alicloud\src\services\dev_bind\os/os.h ****     void *ptr = os_malloc(size);
 398              		.loc 2 408 5
 399              	.LBB35:
 400              	.LBB34:
 380:..\..\..\..\cloud\alicloud\src\services\dev_bind\os/os.h **** }
 401              		.loc 2 380 5
 380:..\..\..\..\cloud\alicloud\src\services\dev_bind\os/os.h **** }
 402              		.loc 2 380 12 is_stmt 0
 403 0034 97000000 		call	HAL_Malloc
 403      E7800000 
 404              	.LVL29:
 405              	.LBE34:
 406              	.LBE35:
 409:..\..\..\..\cloud\alicloud\src\services\dev_bind\os/os.h ****     if (ptr != NULL) {
 407              		.loc 2 409 5 is_stmt 1
 408              		.loc 2 409 8 is_stmt 0
 409 003c 630D051C 		beq	a0,zero,.L52
 410:..\..\..\..\cloud\alicloud\src\services\dev_bind\os/os.h ****         memset(ptr, 0, size);
 410              		.loc 2 410 9
 411 0040 13060024 		li	a2,576
 412 0044 8145     		li	a1,0
 413 0046 2A84     		mv	s0,a0
 414              		.loc 2 410 9 is_stmt 1
 415 0048 97000000 		call	memset
 415      E7800000 
 416              	.LVL30:
 411:..\..\..\..\cloud\alicloud\src\services\dev_bind\os/os.h ****     }
 412:..\..\..\..\cloud\alicloud\src\services\dev_bind\os/os.h ****     return ptr;
 417              		.loc 2 412 5
 418              	.LBE36:
 419              	.LBE37:
 102:C:/Users/stapi/OneDrive/Desktop/GD32VW553/V1_MQTT_OK/GD32VW55X_Wifi_BLE_SDK/GD32VW55x_RELEASE_V1.0.2/MSDK/cloud/alicloud/src/services/awss\awss_info.c ****     if (!buf)
 420              		.loc 1 102 5
 103:C:/Users/stapi/OneDrive/Desktop/GD32VW553/V1_MQTT_OK/GD32VW55X_Wifi_BLE_SDK/GD32VW55x_RELEASE_V1.0.2/MSDK/cloud/alicloud/src/services/awss\awss_info.c ****         goto DEV_INFO_ERR;
 104:C:/Users/stapi/OneDrive/Desktop/GD32VW553/V1_MQTT_OK/GD32VW55X_Wifi_BLE_SDK/GD32VW55x_RELEASE_V1.0.2/MSDK/cloud/alicloud/src/services/awss\awss_info.c **** 
 105:C:/Users/stapi/OneDrive/Desktop/GD32VW553/V1_MQTT_OK/GD32VW55X_Wifi_BLE_SDK/GD32VW55x_RELEASE_V1.0.2/MSDK/cloud/alicloud/src/services/awss\awss_info.c ****     dev_info = os_zalloc(DEV_INFO_LEN_MAX);
 421              		.loc 1 105 5
 422              	.LBB38:
 423              	.LBB39:
 408:..\..\..\..\cloud\alicloud\src\services\dev_bind\os/os.h ****     if (ptr != NULL) {
 424              		.loc 2 408 5
 425              	.LBB40:
 426              	.LBB41:
 380:..\..\..\..\cloud\alicloud\src\services\dev_bind\os/os.h **** }
 427              		.loc 2 380 5
 380:..\..\..\..\cloud\alicloud\src\services\dev_bind\os/os.h **** }
 428              		.loc 2 380 12 is_stmt 0
 429 0050 13050024 		li	a0,576
 430 0054 97000000 		call	HAL_Malloc
 430      E7800000 
 431              	.LVL31:
 432 005c 2A89     		mv	s2,a0
 433              	.LVL32:
 434              	.LBE41:
 435              	.LBE40:
 409:..\..\..\..\cloud\alicloud\src\services\dev_bind\os/os.h ****         memset(ptr, 0, size);
 436              		.loc 2 409 5 is_stmt 1
 409:..\..\..\..\cloud\alicloud\src\services\dev_bind\os/os.h ****         memset(ptr, 0, size);
 437              		.loc 2 409 8 is_stmt 0
 438 005e 6300051A 		beq	a0,zero,.L30
 410:..\..\..\..\cloud\alicloud\src\services\dev_bind\os/os.h ****     }
 439              		.loc 2 410 9 is_stmt 1
 440 0062 13060024 		li	a2,576
 441 0066 8145     		li	a1,0
 442 0068 97000000 		call	memset
 442      E7800000 
 443              	.LVL33:
 444              		.loc 2 412 5
 445              	.LBE39:
 446              	.LBE38:
 106:C:/Users/stapi/OneDrive/Desktop/GD32VW553/V1_MQTT_OK/GD32VW55X_Wifi_BLE_SDK/GD32VW55x_RELEASE_V1.0.2/MSDK/cloud/alicloud/src/services/awss\awss_info.c ****     if (!dev_info)
 447              		.loc 1 106 5
 107:C:/Users/stapi/OneDrive/Desktop/GD32VW553/V1_MQTT_OK/GD32VW55X_Wifi_BLE_SDK/GD32VW55x_RELEASE_V1.0.2/MSDK/cloud/alicloud/src/services/awss\awss_info.c ****         goto DEV_INFO_ERR;
 108:C:/Users/stapi/OneDrive/Desktop/GD32VW553/V1_MQTT_OK/GD32VW55X_Wifi_BLE_SDK/GD32VW55x_RELEASE_V1.0.2/MSDK/cloud/alicloud/src/services/awss\awss_info.c **** 
 109:C:/Users/stapi/OneDrive/Desktop/GD32VW553/V1_MQTT_OK/GD32VW55X_Wifi_BLE_SDK/GD32VW55x_RELEASE_V1.0.2/MSDK/cloud/alicloud/src/services/awss\awss_info.c ****     msg = awss_cmp_get_coap_payload(request, &len);
 448              		.loc 1 109 5
 449              		.loc 1 109 11 is_stmt 0
 450 0070 2C00     		addi	a1,sp,8
 451 0072 5285     		mv	a0,s4
 452 0074 97000000 		call	awss_cmp_get_coap_payload
 452      E7800000 
 453              	.LVL34:
 110:C:/Users/stapi/OneDrive/Desktop/GD32VW553/V1_MQTT_OK/GD32VW55X_Wifi_BLE_SDK/GD32VW55x_RELEASE_V1.0.2/MSDK/cloud/alicloud/src/services/awss\awss_info.c ****     id = json_get_value_by_name(msg, len, "id", &id_len, 0);
 454              		.loc 1 110 5 is_stmt 1
 455              		.loc 1 110 10 is_stmt 0
 456 007c A245     		lw	a1,8(sp)
 457 007e 37060000 		lui	a2,%hi(.LC11)
 458 0082 0147     		li	a4,0
 459 0084 7400     		addi	a3,sp,12
 460 0086 13060600 		addi	a2,a2,%lo(.LC11)
 461 008a 97000000 		call	json_get_value_by_name
 461      E7800000 
 462              	.LVL35:
 463 0092 AA85     		mv	a1,a0
 464              	.LVL36:
 111:C:/Users/stapi/OneDrive/Desktop/GD32VW553/V1_MQTT_OK/GD32VW55X_Wifi_BLE_SDK/GD32VW55x_RELEASE_V1.0.2/MSDK/cloud/alicloud/src/services/awss\awss_info.c ****     if (id && id_len < MSG_REQ_ID_LEN)
 465              		.loc 1 111 5 is_stmt 1
 466              		.loc 1 111 8 is_stmt 0
 467 0094 11C9     		beq	a0,zero,.L31
 468              		.loc 1 111 22 discriminator 1
 469 0096 3246     		lw	a2,12(sp)
 470              		.loc 1 111 12 discriminator 1
 471 0098 BD47     		li	a5,15
 472 009a 63C7C700 		bgt	a2,a5,.L31
 112:C:/Users/stapi/OneDrive/Desktop/GD32VW553/V1_MQTT_OK/GD32VW55X_Wifi_BLE_SDK/GD32VW55x_RELEASE_V1.0.2/MSDK/cloud/alicloud/src/services/awss\awss_info.c ****         memcpy(req_msg_id, id, id_len);
 473              		.loc 1 112 9 is_stmt 1
 474 009e 0808     		addi	a0,sp,16
 475              	.LVL37:
 476 00a0 97000000 		call	memcpy
 476      E7800000 
 477              	.LVL38:
 478              	.L31:
 113:C:/Users/stapi/OneDrive/Desktop/GD32VW553/V1_MQTT_OK/GD32VW55X_Wifi_BLE_SDK/GD32VW55x_RELEASE_V1.0.2/MSDK/cloud/alicloud/src/services/awss\awss_info.c **** 
 114:C:/Users/stapi/OneDrive/Desktop/GD32VW553/V1_MQTT_OK/GD32VW55X_Wifi_BLE_SDK/GD32VW55x_RELEASE_V1.0.2/MSDK/cloud/alicloud/src/services/awss\awss_info.c ****     if (type == AWSS_NOTIFY_DEV_RAND_SIGN) {
 479              		.loc 1 114 5
 480              		.loc 1 114 8 is_stmt 0
 481 00a8 8947     		li	a5,2
 482 00aa 6397F912 		bne	s3,a5,.L32
 115:C:/Users/stapi/OneDrive/Desktop/GD32VW553/V1_MQTT_OK/GD32VW55X_Wifi_BLE_SDK/GD32VW55x_RELEASE_V1.0.2/MSDK/cloud/alicloud/src/services/awss\awss_info.c ****         dump_awss_status(STATE_WIFI_GOT_DEVINFO_QUERY, "app get devinfo");
 483              		.loc 1 115 9 is_stmt 1
 484 00ae 37060000 		lui	a2,%hi(.LC12)
 485 00b2 13060600 		addi	a2,a2,%lo(.LC12)
 486 00b6 9305F0BD 		li	a1,-1057
 487 00ba 6D45     		li	a0,27
 488 00bc 97000000 		call	iotx_state_event
 488      E7800000 
 489              	.LVL39:
 116:C:/Users/stapi/OneDrive/Desktop/GD32VW553/V1_MQTT_OK/GD32VW55X_Wifi_BLE_SDK/GD32VW55x_RELEASE_V1.0.2/MSDK/cloud/alicloud/src/services/awss\awss_info.c ****         topic_fmt = is_mcast ? TOPIC_AWSS_GETDEVICEINFO_MCAST : TOPIC_AWSS_GETDEVICEINFO_UCAST;
 490              		.loc 1 116 9
 491              		.loc 1 116 63 is_stmt 0
 492 00c4 63930412 		bne	s1,zero,.L37
 493 00c8 B7040000 		lui	s1,%hi(.LC8)
 494 00cc 93840400 		addi	s1,s1,%lo(.LC8)
 495              	.L33:
 496              	.LVL40:
 117:C:/Users/stapi/OneDrive/Desktop/GD32VW553/V1_MQTT_OK/GD32VW55X_Wifi_BLE_SDK/GD32VW55x_RELEASE_V1.0.2/MSDK/cloud/alicloud/src/services/awss\awss_info.c ****     } else if (type == AWSS_NOTIFY_SUCCESS) {
 118:C:/Users/stapi/OneDrive/Desktop/GD32VW553/V1_MQTT_OK/GD32VW55X_Wifi_BLE_SDK/GD32VW55x_RELEASE_V1.0.2/MSDK/cloud/alicloud/src/services/awss\awss_info.c ****         topic_fmt = is_mcast ? TOPIC_AWSS_GET_CONNECTAP_INFO_MCAST : TOPIC_AWSS_GET_CONNECTAP_INFO_
 119:C:/Users/stapi/OneDrive/Desktop/GD32VW553/V1_MQTT_OK/GD32VW55X_Wifi_BLE_SDK/GD32VW55x_RELEASE_V1.0.2/MSDK/cloud/alicloud/src/services/awss\awss_info.c ****     } else {
 120:C:/Users/stapi/OneDrive/Desktop/GD32VW553/V1_MQTT_OK/GD32VW55X_Wifi_BLE_SDK/GD32VW55x_RELEASE_V1.0.2/MSDK/cloud/alicloud/src/services/awss\awss_info.c ****         goto DEV_INFO_ERR;
 121:C:/Users/stapi/OneDrive/Desktop/GD32VW553/V1_MQTT_OK/GD32VW55X_Wifi_BLE_SDK/GD32VW55x_RELEASE_V1.0.2/MSDK/cloud/alicloud/src/services/awss\awss_info.c ****     }
 122:C:/Users/stapi/OneDrive/Desktop/GD32VW553/V1_MQTT_OK/GD32VW55X_Wifi_BLE_SDK/GD32VW55x_RELEASE_V1.0.2/MSDK/cloud/alicloud/src/services/awss\awss_info.c ****     awss_build_dev_info(type, buf, DEV_INFO_LEN_MAX);
 497              		.loc 1 122 5 is_stmt 1
 498 00d0 13060024 		li	a2,576
 499 00d4 A285     		mv	a1,s0
 500 00d6 4E85     		mv	a0,s3
 501 00d8 97000000 		call	awss_build_dev_info
 501      E7800000 
 502              	.LVL41:
 123:C:/Users/stapi/OneDrive/Desktop/GD32VW553/V1_MQTT_OK/GD32VW55X_Wifi_BLE_SDK/GD32VW55x_RELEASE_V1.0.2/MSDK/cloud/alicloud/src/services/awss\awss_info.c ****     HAL_Snprintf(dev_info, DEV_INFO_LEN_MAX - 1, "{%s}", buf);
 503              		.loc 1 123 5
 504 00e0 37060000 		lui	a2,%hi(.LC13)
 505 00e4 A286     		mv	a3,s0
 506 00e6 13060600 		addi	a2,a2,%lo(.LC13)
 507 00ea 9305F023 		li	a1,575
 508 00ee 4A85     		mv	a0,s2
 509 00f0 97000000 		call	HAL_Snprintf
 509      E7800000 
 510              	.LVL42:
 124:C:/Users/stapi/OneDrive/Desktop/GD32VW553/V1_MQTT_OK/GD32VW55X_Wifi_BLE_SDK/GD32VW55x_RELEASE_V1.0.2/MSDK/cloud/alicloud/src/services/awss\awss_info.c **** 
 125:C:/Users/stapi/OneDrive/Desktop/GD32VW553/V1_MQTT_OK/GD32VW55X_Wifi_BLE_SDK/GD32VW55x_RELEASE_V1.0.2/MSDK/cloud/alicloud/src/services/awss\awss_info.c ****     memset(buf, 0x00, DEV_INFO_LEN_MAX);
 511              		.loc 1 125 5
 512 00f8 13060024 		li	a2,576
 513 00fc 8145     		li	a1,0
 514 00fe 2285     		mv	a0,s0
 515 0100 97000000 		call	memset
 515      E7800000 
 516              	.LVL43:
 126:C:/Users/stapi/OneDrive/Desktop/GD32VW553/V1_MQTT_OK/GD32VW55X_Wifi_BLE_SDK/GD32VW55x_RELEASE_V1.0.2/MSDK/cloud/alicloud/src/services/awss\awss_info.c ****     HAL_Snprintf(buf, DEV_INFO_LEN_MAX - 1, AWSS_ACK_FMT, req_msg_id, 200, dev_info);
 517              		.loc 1 126 5
 518 0108 37060000 		lui	a2,%hi(.LC14)
 519 010c CA87     		mv	a5,s2
 520 010e 1307800C 		li	a4,200
 521 0112 1408     		addi	a3,sp,16
 522 0114 13060600 		addi	a2,a2,%lo(.LC14)
 523 0118 9305F023 		li	a1,575
 524 011c 2285     		mv	a0,s0
 525 011e 97000000 		call	HAL_Snprintf
 525      E7800000 
 526              	.LVL44:
 127:C:/Users/stapi/OneDrive/Desktop/GD32VW553/V1_MQTT_OK/GD32VW55X_Wifi_BLE_SDK/GD32VW55x_RELEASE_V1.0.2/MSDK/cloud/alicloud/src/services/awss\awss_info.c **** 
 128:C:/Users/stapi/OneDrive/Desktop/GD32VW553/V1_MQTT_OK/GD32VW55X_Wifi_BLE_SDK/GD32VW55x_RELEASE_V1.0.2/MSDK/cloud/alicloud/src/services/awss\awss_info.c ****     os_free(dev_info);
 527              		.loc 1 128 5
 528              	.LBB42:
 529              	.LBB43:
 394:..\..\..\..\cloud\alicloud\src\services\dev_bind\os/os.h **** }
 530              		.loc 2 394 5
 531 0126 4A85     		mv	a0,s2
 532 0128 97000000 		call	HAL_Free
 532      E7800000 
 533              	.LVL45:
 534              	.LBE43:
 535              	.LBE42:
 129:C:/Users/stapi/OneDrive/Desktop/GD32VW553/V1_MQTT_OK/GD32VW55X_Wifi_BLE_SDK/GD32VW55x_RELEASE_V1.0.2/MSDK/cloud/alicloud/src/services/awss\awss_info.c **** 
 130:C:/Users/stapi/OneDrive/Desktop/GD32VW553/V1_MQTT_OK/GD32VW55X_Wifi_BLE_SDK/GD32VW55x_RELEASE_V1.0.2/MSDK/cloud/alicloud/src/services/awss\awss_info.c ****     awss_info("tx msg to app: %s", buf);
 536              		.loc 1 130 5
 537              		.loc 1 130 5
 538 0130 37050000 		lui	a0,%hi(.LC15)
 539 0134 13050500 		addi	a0,a0,%lo(.LC15)
 540 0138 97000000 		call	HAL_Printf
 540      E7800000 
 541              	.LVL46:
 542              		.loc 1 130 5
 543 0140 37050000 		lui	a0,%hi(.LC16)
 544 0144 A285     		mv	a1,s0
 545 0146 13050500 		addi	a0,a0,%lo(.LC16)
 546 014a 97000000 		call	HAL_Printf
 546      E7800000 
 547              	.LVL47:
 548              		.loc 1 130 5
 549 0152 37090000 		lui	s2,%hi(.LC4)
 550              	.LVL48:
 551 0156 13050900 		addi	a0,s2,%lo(.LC4)
 552 015a 97000000 		call	HAL_Printf
 552      E7800000 
 553              	.LVL49:
 554              		.loc 1 130 5
 131:C:/Users/stapi/OneDrive/Desktop/GD32VW553/V1_MQTT_OK/GD32VW55X_Wifi_BLE_SDK/GD32VW55x_RELEASE_V1.0.2/MSDK/cloud/alicloud/src/services/awss\awss_info.c **** 
 132:C:/Users/stapi/OneDrive/Desktop/GD32VW553/V1_MQTT_OK/GD32VW55X_Wifi_BLE_SDK/GD32VW55x_RELEASE_V1.0.2/MSDK/cloud/alicloud/src/services/awss\awss_info.c ****     awss_build_topic(topic_fmt, topic, TOPIC_LEN_MAX);
 555              		.loc 1 132 5
 556 0162 13060008 		li	a2,128
 557 0166 0C10     		addi	a1,sp,32
 558 0168 2685     		mv	a0,s1
 559 016a 97000000 		call	awss_build_topic
 559      E7800000 
 560              	.LVL50:
 133:C:/Users/stapi/OneDrive/Desktop/GD32VW553/V1_MQTT_OK/GD32VW55X_Wifi_BLE_SDK/GD32VW55x_RELEASE_V1.0.2/MSDK/cloud/alicloud/src/services/awss\awss_info.c **** 
 134:C:/Users/stapi/OneDrive/Desktop/GD32VW553/V1_MQTT_OK/GD32VW55X_Wifi_BLE_SDK/GD32VW55x_RELEASE_V1.0.2/MSDK/cloud/alicloud/src/services/awss\awss_info.c ****     if (0 != awss_cmp_coap_send_resp(buf, strlen(buf), remote, topic, request, NULL, NULL, 0))
 561              		.loc 1 134 5
 562              		.loc 1 134 43 is_stmt 0
 563 0172 2285     		mv	a0,s0
 564 0174 97000000 		call	strlen
 564      E7800000 
 565              	.LVL51:
 566 017c AA85     		mv	a1,a0
 567              		.loc 1 134 14
 568 017e 8148     		li	a7,0
 569 0180 0148     		li	a6,0
 570 0182 8147     		li	a5,0
 571 0184 5287     		mv	a4,s4
 572 0186 1410     		addi	a3,sp,32
 573 0188 5686     		mv	a2,s5
 574 018a 2285     		mv	a0,s0
 575 018c 97000000 		call	awss_cmp_coap_send_resp
 575      E7800000 
 576              	.LVL52:
 577              		.loc 1 134 8
 578 0194 1DC5     		beq	a0,zero,.L34
 135:C:/Users/stapi/OneDrive/Desktop/GD32VW553/V1_MQTT_OK/GD32VW55X_Wifi_BLE_SDK/GD32VW55x_RELEASE_V1.0.2/MSDK/cloud/alicloud/src/services/awss\awss_info.c ****         awss_err("tx dev info rsp fail.");
 579              		.loc 1 135 9 is_stmt 1
 580              		.loc 1 135 9
 581 0196 37050000 		lui	a0,%hi(.LC2)
 582 019a 13050500 		addi	a0,a0,%lo(.LC2)
 583 019e 97000000 		call	HAL_Printf
 583      E7800000 
 584              	.LVL53:
 585              		.loc 1 135 9
 586 01a6 37050000 		lui	a0,%hi(.LC17)
 587 01aa 13050500 		addi	a0,a0,%lo(.LC17)
 588 01ae 97000000 		call	HAL_Printf
 588      E7800000 
 589              	.LVL54:
 590              		.loc 1 135 9
 591 01b6 13050900 		addi	a0,s2,%lo(.LC4)
 592 01ba 97000000 		call	HAL_Printf
 592      E7800000 
 593              	.LVL55:
 594              	.L34:
 595              		.loc 1 135 9 discriminator 1
 136:C:/Users/stapi/OneDrive/Desktop/GD32VW553/V1_MQTT_OK/GD32VW55X_Wifi_BLE_SDK/GD32VW55x_RELEASE_V1.0.2/MSDK/cloud/alicloud/src/services/awss\awss_info.c **** 
 137:C:/Users/stapi/OneDrive/Desktop/GD32VW553/V1_MQTT_OK/GD32VW55X_Wifi_BLE_SDK/GD32VW55x_RELEASE_V1.0.2/MSDK/cloud/alicloud/src/services/awss\awss_info.c ****     os_free(buf);
 596              		.loc 1 137 5 discriminator 1
 597              	.LBB44:
 598              	.LBB45:
 394:..\..\..\..\cloud\alicloud\src\services\dev_bind\os/os.h **** }
 599              		.loc 2 394 5 discriminator 1
 600 01c2 2285     		mv	a0,s0
 601 01c4 97000000 		call	HAL_Free
 601      E7800000 
 602              	.LVL56:
 603              	.LBE45:
 604              	.LBE44:
 138:C:/Users/stapi/OneDrive/Desktop/GD32VW553/V1_MQTT_OK/GD32VW55X_Wifi_BLE_SDK/GD32VW55x_RELEASE_V1.0.2/MSDK/cloud/alicloud/src/services/awss\awss_info.c ****     return 0;
 605              		.loc 1 138 5 discriminator 1
 606              		.loc 1 138 12 is_stmt 0 discriminator 1
 607 01cc 0145     		li	a0,0
 608              	.LVL57:
 609              	.L28:
 139:C:/Users/stapi/OneDrive/Desktop/GD32VW553/V1_MQTT_OK/GD32VW55X_Wifi_BLE_SDK/GD32VW55x_RELEASE_V1.0.2/MSDK/cloud/alicloud/src/services/awss\awss_info.c **** 
 140:C:/Users/stapi/OneDrive/Desktop/GD32VW553/V1_MQTT_OK/GD32VW55X_Wifi_BLE_SDK/GD32VW55x_RELEASE_V1.0.2/MSDK/cloud/alicloud/src/services/awss\awss_info.c **** DEV_INFO_ERR:
 141:C:/Users/stapi/OneDrive/Desktop/GD32VW553/V1_MQTT_OK/GD32VW55X_Wifi_BLE_SDK/GD32VW55x_RELEASE_V1.0.2/MSDK/cloud/alicloud/src/services/awss\awss_info.c ****     if (buf) os_free(buf);
 142:C:/Users/stapi/OneDrive/Desktop/GD32VW553/V1_MQTT_OK/GD32VW55X_Wifi_BLE_SDK/GD32VW55x_RELEASE_V1.0.2/MSDK/cloud/alicloud/src/services/awss\awss_info.c ****     if (dev_info) os_free(dev_info);
 143:C:/Users/stapi/OneDrive/Desktop/GD32VW553/V1_MQTT_OK/GD32VW55X_Wifi_BLE_SDK/GD32VW55x_RELEASE_V1.0.2/MSDK/cloud/alicloud/src/services/awss\awss_info.c **** 
 144:C:/Users/stapi/OneDrive/Desktop/GD32VW553/V1_MQTT_OK/GD32VW55X_Wifi_BLE_SDK/GD32VW55x_RELEASE_V1.0.2/MSDK/cloud/alicloud/src/services/awss\awss_info.c ****     return STATE_WIFI_COAP_RSP_INVALID;
 145:C:/Users/stapi/OneDrive/Desktop/GD32VW553/V1_MQTT_OK/GD32VW55X_Wifi_BLE_SDK/GD32VW55x_RELEASE_V1.0.2/MSDK/cloud/alicloud/src/services/awss\awss_info.c **** }
 610              		.loc 1 145 1
 611 01ce 0D61     		addi	sp,sp,160
 612              		.cfi_remember_state
 613              		.cfi_def_cfa_offset 0
 614 01d0 17030000 		tail	__riscv_restore_6
 614      67000300 
 615              		.cfi_restore 21
 616              		.cfi_restore 20
 617              		.cfi_restore 19
 618              		.cfi_restore 18
 619              		.cfi_restore 9
 620              		.cfi_restore 8
 621              		.cfi_restore 1
 622              		.cfi_def_cfa_offset -32
 623              	.LVL58:
 624              	.L32:
 625              		.cfi_restore_state
 117:C:/Users/stapi/OneDrive/Desktop/GD32VW553/V1_MQTT_OK/GD32VW55X_Wifi_BLE_SDK/GD32VW55x_RELEASE_V1.0.2/MSDK/cloud/alicloud/src/services/awss\awss_info.c ****         topic_fmt = is_mcast ? TOPIC_AWSS_GET_CONNECTAP_INFO_MCAST : TOPIC_AWSS_GET_CONNECTAP_INFO_
 626              		.loc 1 117 12 is_stmt 1
 117:C:/Users/stapi/OneDrive/Desktop/GD32VW553/V1_MQTT_OK/GD32VW55X_Wifi_BLE_SDK/GD32VW55x_RELEASE_V1.0.2/MSDK/cloud/alicloud/src/services/awss\awss_info.c ****         topic_fmt = is_mcast ? TOPIC_AWSS_GET_CONNECTAP_INFO_MCAST : TOPIC_AWSS_GET_CONNECTAP_INFO_
 627              		.loc 1 117 15 is_stmt 0
 628 01d8 8D47     		li	a5,3
 629 01da 6392F902 		bne	s3,a5,.L30
 118:C:/Users/stapi/OneDrive/Desktop/GD32VW553/V1_MQTT_OK/GD32VW55X_Wifi_BLE_SDK/GD32VW55x_RELEASE_V1.0.2/MSDK/cloud/alicloud/src/services/awss\awss_info.c ****     } else {
 630              		.loc 1 118 9 is_stmt 1
 118:C:/Users/stapi/OneDrive/Desktop/GD32VW553/V1_MQTT_OK/GD32VW55X_Wifi_BLE_SDK/GD32VW55x_RELEASE_V1.0.2/MSDK/cloud/alicloud/src/services/awss\awss_info.c ****     } else {
 631              		.loc 1 118 68 is_stmt 0
 632 01de 99E8     		bne	s1,zero,.L38
 633 01e0 B7040000 		lui	s1,%hi(.LC10)
 634 01e4 93840400 		addi	s1,s1,%lo(.LC10)
 635 01e8 E5B5     		j	.L33
 636              	.L37:
 116:C:/Users/stapi/OneDrive/Desktop/GD32VW553/V1_MQTT_OK/GD32VW55X_Wifi_BLE_SDK/GD32VW55x_RELEASE_V1.0.2/MSDK/cloud/alicloud/src/services/awss\awss_info.c ****     } else if (type == AWSS_NOTIFY_SUCCESS) {
 637              		.loc 1 116 63
 638 01ea B7040000 		lui	s1,%hi(.LC9)
 639 01ee 93840400 		addi	s1,s1,%lo(.LC9)
 640 01f2 F9BD     		j	.L33
 641              	.L38:
 118:C:/Users/stapi/OneDrive/Desktop/GD32VW553/V1_MQTT_OK/GD32VW55X_Wifi_BLE_SDK/GD32VW55x_RELEASE_V1.0.2/MSDK/cloud/alicloud/src/services/awss\awss_info.c ****     } else {
 642              		.loc 1 118 68
 643 01f4 B7040000 		lui	s1,%hi(.LC7)
 644 01f8 93840400 		addi	s1,s1,%lo(.LC7)
 645 01fc D1BD     		j	.L33
 646              	.LVL59:
 647              	.L30:
 141:C:/Users/stapi/OneDrive/Desktop/GD32VW553/V1_MQTT_OK/GD32VW55X_Wifi_BLE_SDK/GD32VW55x_RELEASE_V1.0.2/MSDK/cloud/alicloud/src/services/awss\awss_info.c ****     if (dev_info) os_free(dev_info);
 648              		.loc 1 141 5 is_stmt 1
 141:C:/Users/stapi/OneDrive/Desktop/GD32VW553/V1_MQTT_OK/GD32VW55X_Wifi_BLE_SDK/GD32VW55x_RELEASE_V1.0.2/MSDK/cloud/alicloud/src/services/awss\awss_info.c ****     if (dev_info) os_free(dev_info);
 649              		.loc 1 141 14
 650              	.LBB46:
 651              	.LBB47:
 394:..\..\..\..\cloud\alicloud\src\services\dev_bind\os/os.h **** }
 652              		.loc 2 394 5
 653 01fe 2285     		mv	a0,s0
 654 0200 97000000 		call	HAL_Free
 654      E7800000 
 655              	.LVL60:
 656              	.LBE47:
 657              	.LBE46:
 142:C:/Users/stapi/OneDrive/Desktop/GD32VW553/V1_MQTT_OK/GD32VW55X_Wifi_BLE_SDK/GD32VW55x_RELEASE_V1.0.2/MSDK/cloud/alicloud/src/services/awss\awss_info.c **** 
 658              		.loc 1 142 5
 142:C:/Users/stapi/OneDrive/Desktop/GD32VW553/V1_MQTT_OK/GD32VW55X_Wifi_BLE_SDK/GD32VW55x_RELEASE_V1.0.2/MSDK/cloud/alicloud/src/services/awss\awss_info.c **** 
 659              		.loc 1 142 8 is_stmt 0
 660 0208 63070900 		beq	s2,zero,.L52
 142:C:/Users/stapi/OneDrive/Desktop/GD32VW553/V1_MQTT_OK/GD32VW55X_Wifi_BLE_SDK/GD32VW55x_RELEASE_V1.0.2/MSDK/cloud/alicloud/src/services/awss\awss_info.c **** 
 661              		.loc 1 142 19 is_stmt 1
 662              	.LVL61:
 663              	.LBB48:
 664              	.LBB49:
 394:..\..\..\..\cloud\alicloud\src\services\dev_bind\os/os.h **** }
 665              		.loc 2 394 5
 666 020c 4A85     		mv	a0,s2
 667 020e 97000000 		call	HAL_Free
 667      E7800000 
 668              	.LVL62:
 669              	.L52:
 670              	.LBE49:
 671              	.LBE48:
 144:C:/Users/stapi/OneDrive/Desktop/GD32VW553/V1_MQTT_OK/GD32VW55X_Wifi_BLE_SDK/GD32VW55x_RELEASE_V1.0.2/MSDK/cloud/alicloud/src/services/awss\awss_info.c **** }
 672              		.loc 1 144 12 is_stmt 0
 673 0216 130550BE 		li	a0,-1051
 674              	.LBB51:
 675              	.LBB50:
 395:..\..\..\..\cloud\alicloud\src\services\dev_bind\os/os.h **** 
 676              		.loc 2 395 1
 677 021a 55BF     		j	.L28
 678              	.LBE50:
 679              	.LBE51:
 680              		.cfi_endproc
 681              	.LFE52:
 683              		.section	.text.awss_process_mcast_get_connectap_info,"ax",@progbits
 684              		.align	1
 685              		.globl	awss_process_mcast_get_connectap_info
 687              	awss_process_mcast_get_connectap_info:
 688              	.LFB53:
 146:C:/Users/stapi/OneDrive/Desktop/GD32VW553/V1_MQTT_OK/GD32VW55X_Wifi_BLE_SDK/GD32VW55x_RELEASE_V1.0.2/MSDK/cloud/alicloud/src/services/awss\awss_info.c **** 
 147:C:/Users/stapi/OneDrive/Desktop/GD32VW553/V1_MQTT_OK/GD32VW55X_Wifi_BLE_SDK/GD32VW55x_RELEASE_V1.0.2/MSDK/cloud/alicloud/src/services/awss\awss_info.c **** int awss_process_mcast_get_connectap_info(void *ctx, void *resource, void *remote, void *request)
 148:C:/Users/stapi/OneDrive/Desktop/GD32VW553/V1_MQTT_OK/GD32VW55X_Wifi_BLE_SDK/GD32VW55x_RELEASE_V1.0.2/MSDK/cloud/alicloud/src/services/awss\awss_info.c **** {
 689              		.loc 1 148 1 is_stmt 1
 690              		.cfi_startproc
 691              	.LVL63:
 149:C:/Users/stapi/OneDrive/Desktop/GD32VW553/V1_MQTT_OK/GD32VW55X_Wifi_BLE_SDK/GD32VW55x_RELEASE_V1.0.2/MSDK/cloud/alicloud/src/services/awss\awss_info.c ****     if (g_awss_connectap_info_avaliable == 0)
 692              		.loc 1 149 5
 693              		.loc 1 149 8 is_stmt 0
 694 0000 B7070000 		lui	a5,%hi(.LANCHOR2)
 695 0004 83870700 		lb	a5,%lo(.LANCHOR2)(a5)
 696 0008 99C7     		beq	a5,zero,.L55
 150:C:/Users/stapi/OneDrive/Desktop/GD32VW553/V1_MQTT_OK/GD32VW55X_Wifi_BLE_SDK/GD32VW55x_RELEASE_V1.0.2/MSDK/cloud/alicloud/src/services/awss\awss_info.c ****         return -1;
 151:C:/Users/stapi/OneDrive/Desktop/GD32VW553/V1_MQTT_OK/GD32VW55X_Wifi_BLE_SDK/GD32VW55x_RELEASE_V1.0.2/MSDK/cloud/alicloud/src/services/awss\awss_info.c ****     return process_get_device_info(ctx, resource, remote, request, 1, AWSS_NOTIFY_SUCCESS);
 697              		.loc 1 151 5 is_stmt 1
 698              		.loc 1 151 12 is_stmt 0
 699 000a 8D47     		li	a5,3
 700 000c 0547     		li	a4,1
 701 000e 17030000 		tail	process_get_device_info
 701      67000300 
 702              	.LVL64:
 703              	.L55:
 150:C:/Users/stapi/OneDrive/Desktop/GD32VW553/V1_MQTT_OK/GD32VW55X_Wifi_BLE_SDK/GD32VW55x_RELEASE_V1.0.2/MSDK/cloud/alicloud/src/services/awss\awss_info.c ****         return -1;
 704              		.loc 1 150 16
 705 0016 7D55     		li	a0,-1
 706              	.LVL65:
 152:C:/Users/stapi/OneDrive/Desktop/GD32VW553/V1_MQTT_OK/GD32VW55X_Wifi_BLE_SDK/GD32VW55x_RELEASE_V1.0.2/MSDK/cloud/alicloud/src/services/awss\awss_info.c **** }
 707              		.loc 1 152 1
 708 0018 8280     		ret
 709              		.cfi_endproc
 710              	.LFE53:
 712              		.section	.text.awss_process_ucast_get_connectap_info,"ax",@progbits
 713              		.align	1
 714              		.globl	awss_process_ucast_get_connectap_info
 716              	awss_process_ucast_get_connectap_info:
 717              	.LFB54:
 153:C:/Users/stapi/OneDrive/Desktop/GD32VW553/V1_MQTT_OK/GD32VW55X_Wifi_BLE_SDK/GD32VW55x_RELEASE_V1.0.2/MSDK/cloud/alicloud/src/services/awss\awss_info.c **** 
 154:C:/Users/stapi/OneDrive/Desktop/GD32VW553/V1_MQTT_OK/GD32VW55X_Wifi_BLE_SDK/GD32VW55x_RELEASE_V1.0.2/MSDK/cloud/alicloud/src/services/awss\awss_info.c **** int awss_process_ucast_get_connectap_info(void *ctx, void *resource, void *remote, void *request)
 155:C:/Users/stapi/OneDrive/Desktop/GD32VW553/V1_MQTT_OK/GD32VW55X_Wifi_BLE_SDK/GD32VW55x_RELEASE_V1.0.2/MSDK/cloud/alicloud/src/services/awss\awss_info.c **** {
 718              		.loc 1 155 1 is_stmt 1
 719              		.cfi_startproc
 720              	.LVL66:
 156:C:/Users/stapi/OneDrive/Desktop/GD32VW553/V1_MQTT_OK/GD32VW55X_Wifi_BLE_SDK/GD32VW55x_RELEASE_V1.0.2/MSDK/cloud/alicloud/src/services/awss\awss_info.c ****     if (g_awss_connectap_info_avaliable == 0)
 721              		.loc 1 156 5
 722              		.loc 1 156 8 is_stmt 0
 723 0000 B7070000 		lui	a5,%hi(.LANCHOR2)
 724 0004 83870700 		lb	a5,%lo(.LANCHOR2)(a5)
 725 0008 99C7     		beq	a5,zero,.L62
 157:C:/Users/stapi/OneDrive/Desktop/GD32VW553/V1_MQTT_OK/GD32VW55X_Wifi_BLE_SDK/GD32VW55x_RELEASE_V1.0.2/MSDK/cloud/alicloud/src/services/awss\awss_info.c ****         return -1;
 158:C:/Users/stapi/OneDrive/Desktop/GD32VW553/V1_MQTT_OK/GD32VW55X_Wifi_BLE_SDK/GD32VW55x_RELEASE_V1.0.2/MSDK/cloud/alicloud/src/services/awss\awss_info.c ****     return process_get_device_info(ctx, resource, remote, request, 0, AWSS_NOTIFY_SUCCESS);
 726              		.loc 1 158 5 is_stmt 1
 727              		.loc 1 158 12 is_stmt 0
 728 000a 8D47     		li	a5,3
 729 000c 0147     		li	a4,0
 730 000e 17030000 		tail	process_get_device_info
 730      67000300 
 731              	.LVL67:
 732              	.L62:
 157:C:/Users/stapi/OneDrive/Desktop/GD32VW553/V1_MQTT_OK/GD32VW55X_Wifi_BLE_SDK/GD32VW55x_RELEASE_V1.0.2/MSDK/cloud/alicloud/src/services/awss\awss_info.c ****         return -1;
 733              		.loc 1 157 16
 734 0016 7D55     		li	a0,-1
 735              	.LVL68:
 159:C:/Users/stapi/OneDrive/Desktop/GD32VW553/V1_MQTT_OK/GD32VW55X_Wifi_BLE_SDK/GD32VW55x_RELEASE_V1.0.2/MSDK/cloud/alicloud/src/services/awss\awss_info.c **** }
 736              		.loc 1 159 1
 737 0018 8280     		ret
 738              		.cfi_endproc
 739              	.LFE54:
 741              		.section	.rodata.__FUNCTION__.0,"a"
 742              		.align	2
 743              		.set	.LANCHOR3,. + 0
 746              	__FUNCTION__.0:
 747 0000 61777373 		.string	"awss_start_connectap_monitor"
 747      5F737461 
 747      72745F63 
 747      6F6E6E65 
 747      63746170 
 748              		.section	.sbss.connectap_monitor_mutex,"aw",@nobits
 749              		.align	2
 750              		.set	.LANCHOR1,. + 0
 753              	connectap_monitor_mutex:
 754 0000 00000000 		.zero	4
 755              		.section	.sbss.connectap_monitor_timer,"aw",@nobits
 756              		.align	2
 757              		.set	.LANCHOR0,. + 0
 760              	connectap_monitor_timer:
 761 0000 00000000 		.zero	4
 762              		.section	.sbss.g_awss_connectap_info_avaliable,"aw",@nobits
 763              		.set	.LANCHOR2,. + 0
 766              	g_awss_connectap_info_avaliable:
 767 0000 00       		.zero	1
 768              		.text
 769              	.Letext0:
 770              		.file 3 "c:\\users\\stapi\\onedrive\\desktop\\gd32vw553\\embeddedbuilder_v1.4.7.26843\\tools\\nucl
 771              		.file 4 "c:\\users\\stapi\\onedrive\\desktop\\gd32vw553\\embeddedbuilder_v1.4.7.26843\\tools\\nucl
 772              		.file 5 "..\\..\\..\\..\\cloud\\alicloud\\include/iot_export.h"
 773              		.file 6 "..\\..\\..\\..\\cloud\\alicloud\\src\\services\\dev_bind/awss_notify.h"
 774              		.file 7 "..\\..\\..\\..\\cloud\\alicloud\\include/iot_import.h"
 775              		.file 8 "..\\..\\..\\..\\cloud\\alicloud\\src\\services\\dev_bind/awss_cmp.h"
 776              		.file 9 "..\\..\\..\\..\\cloud\\alicloud\\src\\infra\\utils\\misc/json_parser.h"
 777              		.file 10 "<built-in>"
 778              		.file 11 "..\\..\\..\\..\\cloud\\alicloud\\src\\services\\dev_bind/awss_packet.h"
 779              		.file 12 "c:\\users\\stapi\\onedrive\\desktop\\gd32vw553\\embeddedbuilder_v1.4.7.26843\\tools\\nuc
 780              		.file 13 "..\\..\\..\\..\\cloud\\alicloud\\src\\infra\\log/iotx_log.h"