   1              		.file	"awss_aplist.c"
   2              		.option nopic
   3              		.attribute arch, "rv32i2p0_m2p0_a2p0_f2p0_c2p0_b_p0p94"
   4              		.attribute unaligned_access, 0
   5              		.attribute stack_align, 16
   6              		.text
   7              	.Ltext0:
   8              		.cfi_sections	.debug_frame
   9              		.section	.text.awss_clr_aplist_monitor,"ax",@progbits
  10              		.align	1
  12              	awss_clr_aplist_monitor:
  13              	.LFB49:
  14              		.file 1 "C:/Users/stapi/OneDrive/Desktop/GD32VW553/V1_MQTT_OK/GD32VW55X_Wifi_BLE_SDK/GD32VW55x_REL
   1:C:/Users/stapi/OneDrive/Desktop/GD32VW553/V1_MQTT_OK/GD32VW55X_Wifi_BLE_SDK/GD32VW55x_RELEASE_V1.0.2/MSDK/cloud/alicloud/src/services/awss\awss_aplist.c **** /*
   2:C:/Users/stapi/OneDrive/Desktop/GD32VW553/V1_MQTT_OK/GD32VW55X_Wifi_BLE_SDK/GD32VW55x_RELEASE_V1.0.2/MSDK/cloud/alicloud/src/services/awss\awss_aplist.c ****  * Copyright (C) 2015-2018 Alibaba Group Holding Limited
   3:C:/Users/stapi/OneDrive/Desktop/GD32VW553/V1_MQTT_OK/GD32VW55X_Wifi_BLE_SDK/GD32VW55x_RELEASE_V1.0.2/MSDK/cloud/alicloud/src/services/awss\awss_aplist.c ****  */
   4:C:/Users/stapi/OneDrive/Desktop/GD32VW553/V1_MQTT_OK/GD32VW55X_Wifi_BLE_SDK/GD32VW55x_RELEASE_V1.0.2/MSDK/cloud/alicloud/src/services/awss\awss_aplist.c **** 
   5:C:/Users/stapi/OneDrive/Desktop/GD32VW553/V1_MQTT_OK/GD32VW55X_Wifi_BLE_SDK/GD32VW55x_RELEASE_V1.0.2/MSDK/cloud/alicloud/src/services/awss\awss_aplist.c **** #if defined(__cplusplus)  /* If this is a C++ compiler, use C linkage */
   6:C:/Users/stapi/OneDrive/Desktop/GD32VW553/V1_MQTT_OK/GD32VW55X_Wifi_BLE_SDK/GD32VW55x_RELEASE_V1.0.2/MSDK/cloud/alicloud/src/services/awss\awss_aplist.c **** extern "C" {
   7:C:/Users/stapi/OneDrive/Desktop/GD32VW553/V1_MQTT_OK/GD32VW55X_Wifi_BLE_SDK/GD32VW55x_RELEASE_V1.0.2/MSDK/cloud/alicloud/src/services/awss\awss_aplist.c **** #endif
   8:C:/Users/stapi/OneDrive/Desktop/GD32VW553/V1_MQTT_OK/GD32VW55X_Wifi_BLE_SDK/GD32VW55x_RELEASE_V1.0.2/MSDK/cloud/alicloud/src/services/awss\awss_aplist.c **** 
   9:C:/Users/stapi/OneDrive/Desktop/GD32VW553/V1_MQTT_OK/GD32VW55X_Wifi_BLE_SDK/GD32VW55x_RELEASE_V1.0.2/MSDK/cloud/alicloud/src/services/awss\awss_aplist.c **** #ifdef AWSS_SUPPORT_APLIST
  10:C:/Users/stapi/OneDrive/Desktop/GD32VW553/V1_MQTT_OK/GD32VW55X_Wifi_BLE_SDK/GD32VW55x_RELEASE_V1.0.2/MSDK/cloud/alicloud/src/services/awss\awss_aplist.c **** #include <stdio.h>
  11:C:/Users/stapi/OneDrive/Desktop/GD32VW553/V1_MQTT_OK/GD32VW55X_Wifi_BLE_SDK/GD32VW55x_RELEASE_V1.0.2/MSDK/cloud/alicloud/src/services/awss\awss_aplist.c **** #include <stdint.h>
  12:C:/Users/stapi/OneDrive/Desktop/GD32VW553/V1_MQTT_OK/GD32VW55X_Wifi_BLE_SDK/GD32VW55x_RELEASE_V1.0.2/MSDK/cloud/alicloud/src/services/awss\awss_aplist.c **** #include "awss_log.h"
  13:C:/Users/stapi/OneDrive/Desktop/GD32VW553/V1_MQTT_OK/GD32VW55X_Wifi_BLE_SDK/GD32VW55x_RELEASE_V1.0.2/MSDK/cloud/alicloud/src/services/awss\awss_aplist.c **** #include "awss_adha.h"
  14:C:/Users/stapi/OneDrive/Desktop/GD32VW553/V1_MQTT_OK/GD32VW55X_Wifi_BLE_SDK/GD32VW55x_RELEASE_V1.0.2/MSDK/cloud/alicloud/src/services/awss\awss_aplist.c **** #include "awss_timer.h"
  15:C:/Users/stapi/OneDrive/Desktop/GD32VW553/V1_MQTT_OK/GD32VW55X_Wifi_BLE_SDK/GD32VW55x_RELEASE_V1.0.2/MSDK/cloud/alicloud/src/services/awss\awss_aplist.c **** #include "awss_aplist.h"
  16:C:/Users/stapi/OneDrive/Desktop/GD32VW553/V1_MQTT_OK/GD32VW55X_Wifi_BLE_SDK/GD32VW55x_RELEASE_V1.0.2/MSDK/cloud/alicloud/src/services/awss\awss_aplist.c **** #include "zconfig_protocol.h"
  17:C:/Users/stapi/OneDrive/Desktop/GD32VW553/V1_MQTT_OK/GD32VW55X_Wifi_BLE_SDK/GD32VW55x_RELEASE_V1.0.2/MSDK/cloud/alicloud/src/services/awss\awss_aplist.c **** #include "zconfig_ieee80211.h"
  18:C:/Users/stapi/OneDrive/Desktop/GD32VW553/V1_MQTT_OK/GD32VW55X_Wifi_BLE_SDK/GD32VW55x_RELEASE_V1.0.2/MSDK/cloud/alicloud/src/services/awss\awss_aplist.c **** 
  19:C:/Users/stapi/OneDrive/Desktop/GD32VW553/V1_MQTT_OK/GD32VW55X_Wifi_BLE_SDK/GD32VW55x_RELEASE_V1.0.2/MSDK/cloud/alicloud/src/services/awss\awss_aplist.c **** #define CLR_APLIST_MONITOR_TIMEOUT_MS    (24 * 60 *60 * 1000)
  20:C:/Users/stapi/OneDrive/Desktop/GD32VW553/V1_MQTT_OK/GD32VW55X_Wifi_BLE_SDK/GD32VW55x_RELEASE_V1.0.2/MSDK/cloud/alicloud/src/services/awss\awss_aplist.c **** /* storage to store apinfo */
  21:C:/Users/stapi/OneDrive/Desktop/GD32VW553/V1_MQTT_OK/GD32VW55X_Wifi_BLE_SDK/GD32VW55x_RELEASE_V1.0.2/MSDK/cloud/alicloud/src/services/awss\awss_aplist.c **** struct ap_info *zconfig_aplist = NULL;
  22:C:/Users/stapi/OneDrive/Desktop/GD32VW553/V1_MQTT_OK/GD32VW55X_Wifi_BLE_SDK/GD32VW55x_RELEASE_V1.0.2/MSDK/cloud/alicloud/src/services/awss\awss_aplist.c **** /* aplist num, less than MAX_APLIST_NUM */
  23:C:/Users/stapi/OneDrive/Desktop/GD32VW553/V1_MQTT_OK/GD32VW55X_Wifi_BLE_SDK/GD32VW55x_RELEASE_V1.0.2/MSDK/cloud/alicloud/src/services/awss\awss_aplist.c **** uint8_t zconfig_aplist_num = 0;
  24:C:/Users/stapi/OneDrive/Desktop/GD32VW553/V1_MQTT_OK/GD32VW55X_Wifi_BLE_SDK/GD32VW55x_RELEASE_V1.0.2/MSDK/cloud/alicloud/src/services/awss\awss_aplist.c **** 
  25:C:/Users/stapi/OneDrive/Desktop/GD32VW553/V1_MQTT_OK/GD32VW55X_Wifi_BLE_SDK/GD32VW55x_RELEASE_V1.0.2/MSDK/cloud/alicloud/src/services/awss\awss_aplist.c **** static uint8_t clr_aplist = 0;
  26:C:/Users/stapi/OneDrive/Desktop/GD32VW553/V1_MQTT_OK/GD32VW55X_Wifi_BLE_SDK/GD32VW55x_RELEASE_V1.0.2/MSDK/cloud/alicloud/src/services/awss\awss_aplist.c **** static void *clr_aplist_timer = NULL;
  27:C:/Users/stapi/OneDrive/Desktop/GD32VW553/V1_MQTT_OK/GD32VW55X_Wifi_BLE_SDK/GD32VW55x_RELEASE_V1.0.2/MSDK/cloud/alicloud/src/services/awss\awss_aplist.c **** 
  28:C:/Users/stapi/OneDrive/Desktop/GD32VW553/V1_MQTT_OK/GD32VW55X_Wifi_BLE_SDK/GD32VW55x_RELEASE_V1.0.2/MSDK/cloud/alicloud/src/services/awss\awss_aplist.c **** static void awss_clr_aplist_monitor()
  29:C:/Users/stapi/OneDrive/Desktop/GD32VW553/V1_MQTT_OK/GD32VW55X_Wifi_BLE_SDK/GD32VW55x_RELEASE_V1.0.2/MSDK/cloud/alicloud/src/services/awss\awss_aplist.c **** {
  15              		.loc 1 29 1
  16              		.cfi_startproc
  30:C:/Users/stapi/OneDrive/Desktop/GD32VW553/V1_MQTT_OK/GD32VW55X_Wifi_BLE_SDK/GD32VW55x_RELEASE_V1.0.2/MSDK/cloud/alicloud/src/services/awss\awss_aplist.c ****     clr_aplist = 1;
  17              		.loc 1 30 5
  18              		.loc 1 30 16 is_stmt 0
  19 0000 0547     		li	a4,1
  20 0002 B7070000 		lui	a5,%hi(.LANCHOR0)
  21 0006 2380E700 		sb	a4,%lo(.LANCHOR0)(a5)
  31:C:/Users/stapi/OneDrive/Desktop/GD32VW553/V1_MQTT_OK/GD32VW55X_Wifi_BLE_SDK/GD32VW55x_RELEASE_V1.0.2/MSDK/cloud/alicloud/src/services/awss\awss_aplist.c ****     HAL_Timer_Start(clr_aplist_timer, CLR_APLIST_MONITOR_TIMEOUT_MS);
  22              		.loc 1 31 5 is_stmt 1
  23 000a B7070000 		lui	a5,%hi(.LANCHOR1)
  24 000e 03A50700 		lw	a0,%lo(.LANCHOR1)(a5)
  25 0012 B7652605 		li	a1,86401024
  26 0016 938505C0 		addi	a1,a1,-1024
  27 001a 17030000 		tail	HAL_Timer_Start
  27      67000300 
  28              	.LVL0:
  29              		.cfi_endproc
  30              	.LFE49:
  32              		.section	.text.awss_is_ready_clr_aplist,"ax",@progbits
  33              		.align	1
  34              		.globl	awss_is_ready_clr_aplist
  36              	awss_is_ready_clr_aplist:
  37              	.LFB50:
  32:C:/Users/stapi/OneDrive/Desktop/GD32VW553/V1_MQTT_OK/GD32VW55X_Wifi_BLE_SDK/GD32VW55x_RELEASE_V1.0.2/MSDK/cloud/alicloud/src/services/awss\awss_aplist.c **** }
  33:C:/Users/stapi/OneDrive/Desktop/GD32VW553/V1_MQTT_OK/GD32VW55X_Wifi_BLE_SDK/GD32VW55x_RELEASE_V1.0.2/MSDK/cloud/alicloud/src/services/awss\awss_aplist.c **** 
  34:C:/Users/stapi/OneDrive/Desktop/GD32VW553/V1_MQTT_OK/GD32VW55X_Wifi_BLE_SDK/GD32VW55x_RELEASE_V1.0.2/MSDK/cloud/alicloud/src/services/awss\awss_aplist.c **** int awss_is_ready_clr_aplist(void)
  35:C:/Users/stapi/OneDrive/Desktop/GD32VW553/V1_MQTT_OK/GD32VW55X_Wifi_BLE_SDK/GD32VW55x_RELEASE_V1.0.2/MSDK/cloud/alicloud/src/services/awss\awss_aplist.c **** {
  38              		.loc 1 35 1
  39              		.cfi_startproc
  36:C:/Users/stapi/OneDrive/Desktop/GD32VW553/V1_MQTT_OK/GD32VW55X_Wifi_BLE_SDK/GD32VW55x_RELEASE_V1.0.2/MSDK/cloud/alicloud/src/services/awss\awss_aplist.c ****     return clr_aplist;
  40              		.loc 1 36 5
  37:C:/Users/stapi/OneDrive/Desktop/GD32VW553/V1_MQTT_OK/GD32VW55X_Wifi_BLE_SDK/GD32VW55x_RELEASE_V1.0.2/MSDK/cloud/alicloud/src/services/awss\awss_aplist.c **** }
  41              		.loc 1 37 1 is_stmt 0
  42 0000 B7070000 		lui	a5,%hi(.LANCHOR0)
  43 0004 03C50700 		lbu	a0,%lo(.LANCHOR0)(a5)
  44 0008 8280     		ret
  45              		.cfi_endproc
  46              	.LFE50:
  48              		.section	.rodata.awss_clear_aplist.str1.4,"aMS",@progbits,1
  49              		.align	2
  50              	.LC0:
  51 0000 61706C69 		.string	"aplist null to clear"
  51      7374206E 
  51      756C6C20 
  51      746F2063 
  51      6C656172 
  52              		.section	.text.awss_clear_aplist,"ax",@progbits
  53              		.align	1
  54              		.globl	awss_clear_aplist
  56              	awss_clear_aplist:
  57              	.LFB51:
  38:C:/Users/stapi/OneDrive/Desktop/GD32VW553/V1_MQTT_OK/GD32VW55X_Wifi_BLE_SDK/GD32VW55x_RELEASE_V1.0.2/MSDK/cloud/alicloud/src/services/awss\awss_aplist.c **** 
  39:C:/Users/stapi/OneDrive/Desktop/GD32VW553/V1_MQTT_OK/GD32VW55X_Wifi_BLE_SDK/GD32VW55x_RELEASE_V1.0.2/MSDK/cloud/alicloud/src/services/awss\awss_aplist.c **** int awss_clear_aplist(void)
  40:C:/Users/stapi/OneDrive/Desktop/GD32VW553/V1_MQTT_OK/GD32VW55X_Wifi_BLE_SDK/GD32VW55x_RELEASE_V1.0.2/MSDK/cloud/alicloud/src/services/awss\awss_aplist.c **** {
  58              		.loc 1 40 1 is_stmt 1
  59              		.cfi_startproc
  60 0000 17030000 		call	t0,__riscv_save_0
  60      E7020300 
  61              		.cfi_offset 1, -4
  62              		.cfi_def_cfa_offset 16
  41:C:/Users/stapi/OneDrive/Desktop/GD32VW553/V1_MQTT_OK/GD32VW55X_Wifi_BLE_SDK/GD32VW55x_RELEASE_V1.0.2/MSDK/cloud/alicloud/src/services/awss\awss_aplist.c ****     if (zconfig_aplist == NULL) {
  63              		.loc 1 41 5
  64              		.loc 1 41 24 is_stmt 0
  65 0008 B7070000 		lui	a5,%hi(.LANCHOR2)
  66 000c 03A50700 		lw	a0,%lo(.LANCHOR2)(a5)
  67              		.loc 1 41 8
  68 0010 0DE1     		bne	a0,zero,.L5
  42:C:/Users/stapi/OneDrive/Desktop/GD32VW553/V1_MQTT_OK/GD32VW55X_Wifi_BLE_SDK/GD32VW55x_RELEASE_V1.0.2/MSDK/cloud/alicloud/src/services/awss\awss_aplist.c ****         dump_awss_status(STATE_WIFI_STATISTIC, "aplist null to clear");
  69              		.loc 1 42 9 is_stmt 1
  70 0012 37060000 		lui	a2,%hi(.LC0)
  71 0016 13060600 		addi	a2,a2,%lo(.LC0)
  72 001a 930520BF 		li	a1,-1038
  73 001e 6D45     		li	a0,27
  74 0020 97000000 		call	iotx_state_event
  74      E7800000 
  75              	.LVL1:
  43:C:/Users/stapi/OneDrive/Desktop/GD32VW553/V1_MQTT_OK/GD32VW55X_Wifi_BLE_SDK/GD32VW55x_RELEASE_V1.0.2/MSDK/cloud/alicloud/src/services/awss\awss_aplist.c ****         return -1;
  76              		.loc 1 43 9
  77              		.loc 1 43 16 is_stmt 0
  78 0028 7D55     		li	a0,-1
  79              	.L4:
  44:C:/Users/stapi/OneDrive/Desktop/GD32VW553/V1_MQTT_OK/GD32VW55X_Wifi_BLE_SDK/GD32VW55x_RELEASE_V1.0.2/MSDK/cloud/alicloud/src/services/awss\awss_aplist.c ****     }
  45:C:/Users/stapi/OneDrive/Desktop/GD32VW553/V1_MQTT_OK/GD32VW55X_Wifi_BLE_SDK/GD32VW55x_RELEASE_V1.0.2/MSDK/cloud/alicloud/src/services/awss\awss_aplist.c ****     memset(zconfig_aplist, 0, sizeof(struct ap_info) * MAX_APLIST_NUM);
  46:C:/Users/stapi/OneDrive/Desktop/GD32VW553/V1_MQTT_OK/GD32VW55X_Wifi_BLE_SDK/GD32VW55x_RELEASE_V1.0.2/MSDK/cloud/alicloud/src/services/awss\awss_aplist.c **** #if defined(AWSS_SUPPORT_ADHA) || defined(AWSS_SUPPORT_AHA)
  47:C:/Users/stapi/OneDrive/Desktop/GD32VW553/V1_MQTT_OK/GD32VW55X_Wifi_BLE_SDK/GD32VW55x_RELEASE_V1.0.2/MSDK/cloud/alicloud/src/services/awss\awss_aplist.c ****     memset(adha_aplist, 0, sizeof(*adha_aplist));
  48:C:/Users/stapi/OneDrive/Desktop/GD32VW553/V1_MQTT_OK/GD32VW55X_Wifi_BLE_SDK/GD32VW55x_RELEASE_V1.0.2/MSDK/cloud/alicloud/src/services/awss\awss_aplist.c **** #endif
  49:C:/Users/stapi/OneDrive/Desktop/GD32VW553/V1_MQTT_OK/GD32VW55X_Wifi_BLE_SDK/GD32VW55x_RELEASE_V1.0.2/MSDK/cloud/alicloud/src/services/awss\awss_aplist.c ****     zconfig_aplist_num = 0;
  50:C:/Users/stapi/OneDrive/Desktop/GD32VW553/V1_MQTT_OK/GD32VW55X_Wifi_BLE_SDK/GD32VW55x_RELEASE_V1.0.2/MSDK/cloud/alicloud/src/services/awss\awss_aplist.c ****     clr_aplist = 0;
  51:C:/Users/stapi/OneDrive/Desktop/GD32VW553/V1_MQTT_OK/GD32VW55X_Wifi_BLE_SDK/GD32VW55x_RELEASE_V1.0.2/MSDK/cloud/alicloud/src/services/awss\awss_aplist.c **** 
  52:C:/Users/stapi/OneDrive/Desktop/GD32VW553/V1_MQTT_OK/GD32VW55X_Wifi_BLE_SDK/GD32VW55x_RELEASE_V1.0.2/MSDK/cloud/alicloud/src/services/awss\awss_aplist.c ****     return 0;
  53:C:/Users/stapi/OneDrive/Desktop/GD32VW553/V1_MQTT_OK/GD32VW55X_Wifi_BLE_SDK/GD32VW55x_RELEASE_V1.0.2/MSDK/cloud/alicloud/src/services/awss\awss_aplist.c **** }
  80              		.loc 1 53 1
  81 002a 17030000 		tail	__riscv_restore_0
  81      67000300 
  82              		.cfi_remember_state
  83              		.cfi_restore 1
  84              		.cfi_def_cfa_offset 0
  85              	.L5:
  86              		.cfi_restore_state
  45:C:/Users/stapi/OneDrive/Desktop/GD32VW553/V1_MQTT_OK/GD32VW55X_Wifi_BLE_SDK/GD32VW55x_RELEASE_V1.0.2/MSDK/cloud/alicloud/src/services/awss\awss_aplist.c **** #if defined(AWSS_SUPPORT_ADHA) || defined(AWSS_SUPPORT_AHA)
  87              		.loc 1 45 5 is_stmt 1
  88 0032 0566     		li	a2,4096
  89 0034 13060613 		addi	a2,a2,304
  90 0038 8145     		li	a1,0
  91 003a 97000000 		call	memset
  91      E7800000 
  92              	.LVL2:
  49:C:/Users/stapi/OneDrive/Desktop/GD32VW553/V1_MQTT_OK/GD32VW55X_Wifi_BLE_SDK/GD32VW55x_RELEASE_V1.0.2/MSDK/cloud/alicloud/src/services/awss\awss_aplist.c ****     clr_aplist = 0;
  93              		.loc 1 49 5
  49:C:/Users/stapi/OneDrive/Desktop/GD32VW553/V1_MQTT_OK/GD32VW55X_Wifi_BLE_SDK/GD32VW55x_RELEASE_V1.0.2/MSDK/cloud/alicloud/src/services/awss\awss_aplist.c ****     clr_aplist = 0;
  94              		.loc 1 49 24 is_stmt 0
  95 0042 B7070000 		lui	a5,%hi(.LANCHOR3)
  96 0046 23800700 		sb	zero,%lo(.LANCHOR3)(a5)
  50:C:/Users/stapi/OneDrive/Desktop/GD32VW553/V1_MQTT_OK/GD32VW55X_Wifi_BLE_SDK/GD32VW55x_RELEASE_V1.0.2/MSDK/cloud/alicloud/src/services/awss\awss_aplist.c **** 
  97              		.loc 1 50 5 is_stmt 1
  50:C:/Users/stapi/OneDrive/Desktop/GD32VW553/V1_MQTT_OK/GD32VW55X_Wifi_BLE_SDK/GD32VW55x_RELEASE_V1.0.2/MSDK/cloud/alicloud/src/services/awss\awss_aplist.c **** 
  98              		.loc 1 50 16 is_stmt 0
  99 004a B7070000 		lui	a5,%hi(.LANCHOR0)
 100 004e 23800700 		sb	zero,%lo(.LANCHOR0)(a5)
  52:C:/Users/stapi/OneDrive/Desktop/GD32VW553/V1_MQTT_OK/GD32VW55X_Wifi_BLE_SDK/GD32VW55x_RELEASE_V1.0.2/MSDK/cloud/alicloud/src/services/awss\awss_aplist.c **** }
 101              		.loc 1 52 5 is_stmt 1
  52:C:/Users/stapi/OneDrive/Desktop/GD32VW553/V1_MQTT_OK/GD32VW55X_Wifi_BLE_SDK/GD32VW55x_RELEASE_V1.0.2/MSDK/cloud/alicloud/src/services/awss\awss_aplist.c **** }
 102              		.loc 1 52 12 is_stmt 0
 103 0052 0145     		li	a0,0
 104 0054 D9BF     		j	.L4
 105              		.cfi_endproc
 106              	.LFE51:
 108              		.section	.rodata.awss_open_aplist_monitor.str1.4,"aMS",@progbits,1
 109              		.align	2
 110              	.LC1:
 111 0000 636C725F 		.string	"clr_aplist"
 111      61706C69 
 111      737400
 112              		.section	.text.awss_open_aplist_monitor,"ax",@progbits
 113              		.align	1
 114              		.globl	awss_open_aplist_monitor
 116              	awss_open_aplist_monitor:
 117              	.LFB52:
  54:C:/Users/stapi/OneDrive/Desktop/GD32VW553/V1_MQTT_OK/GD32VW55X_Wifi_BLE_SDK/GD32VW55x_RELEASE_V1.0.2/MSDK/cloud/alicloud/src/services/awss\awss_aplist.c **** 
  55:C:/Users/stapi/OneDrive/Desktop/GD32VW553/V1_MQTT_OK/GD32VW55X_Wifi_BLE_SDK/GD32VW55x_RELEASE_V1.0.2/MSDK/cloud/alicloud/src/services/awss\awss_aplist.c **** int awss_open_aplist_monitor(void)
  56:C:/Users/stapi/OneDrive/Desktop/GD32VW553/V1_MQTT_OK/GD32VW55X_Wifi_BLE_SDK/GD32VW55x_RELEASE_V1.0.2/MSDK/cloud/alicloud/src/services/awss\awss_aplist.c **** {
 118              		.loc 1 56 1 is_stmt 1
 119              		.cfi_startproc
 120 0000 17030000 		call	t0,__riscv_save_1
 120      E7020300 
 121              		.cfi_offset 8, -8
 122              		.cfi_offset 1, -4
 123              		.cfi_def_cfa_offset 16
  57:C:/Users/stapi/OneDrive/Desktop/GD32VW553/V1_MQTT_OK/GD32VW55X_Wifi_BLE_SDK/GD32VW55x_RELEASE_V1.0.2/MSDK/cloud/alicloud/src/services/awss\awss_aplist.c ****     if (clr_aplist_timer == NULL) {
 124              		.loc 1 57 5
 125              		.loc 1 57 26 is_stmt 0
 126 0008 37040000 		lui	s0,%hi(.LANCHOR1)
 127              		.loc 1 57 8
 128 000c 83270400 		lw	a5,%lo(.LANCHOR1)(s0)
 129 0010 13040400 		addi	s0,s0,%lo(.LANCHOR1)
 130 0014 99EF     		bne	a5,zero,.L9
  58:C:/Users/stapi/OneDrive/Desktop/GD32VW553/V1_MQTT_OK/GD32VW55X_Wifi_BLE_SDK/GD32VW55x_RELEASE_V1.0.2/MSDK/cloud/alicloud/src/services/awss\awss_aplist.c ****         clr_aplist_timer = HAL_Timer_Create("clr_aplist", (void (*)(void *))awss_clr_aplist_monitor
 131              		.loc 1 58 9 is_stmt 1
 132              		.loc 1 58 28 is_stmt 0
 133 0016 B7050000 		lui	a1,%hi(awss_clr_aplist_monitor)
 134 001a 37050000 		lui	a0,%hi(.LC1)
 135 001e 0146     		li	a2,0
 136 0020 93850500 		addi	a1,a1,%lo(awss_clr_aplist_monitor)
 137 0024 13050500 		addi	a0,a0,%lo(.LC1)
 138 0028 97000000 		call	HAL_Timer_Create
 138      E7800000 
 139              	.LVL3:
 140              		.loc 1 58 26
 141 0030 08C0     		sw	a0,0(s0)
 142              	.L9:
  59:C:/Users/stapi/OneDrive/Desktop/GD32VW553/V1_MQTT_OK/GD32VW55X_Wifi_BLE_SDK/GD32VW55x_RELEASE_V1.0.2/MSDK/cloud/alicloud/src/services/awss\awss_aplist.c ****     }
  60:C:/Users/stapi/OneDrive/Desktop/GD32VW553/V1_MQTT_OK/GD32VW55X_Wifi_BLE_SDK/GD32VW55x_RELEASE_V1.0.2/MSDK/cloud/alicloud/src/services/awss\awss_aplist.c ****     if (clr_aplist_timer == NULL) {
 143              		.loc 1 60 5 is_stmt 1
 144              		.loc 1 60 26 is_stmt 0
 145 0032 0840     		lw	a0,0(s0)
  61:C:/Users/stapi/OneDrive/Desktop/GD32VW553/V1_MQTT_OK/GD32VW55X_Wifi_BLE_SDK/GD32VW55x_RELEASE_V1.0.2/MSDK/cloud/alicloud/src/services/awss\awss_aplist.c ****         return -1;
 146              		.loc 1 61 16
 147 0034 FD57     		li	a5,-1
  60:C:/Users/stapi/OneDrive/Desktop/GD32VW553/V1_MQTT_OK/GD32VW55X_Wifi_BLE_SDK/GD32VW55x_RELEASE_V1.0.2/MSDK/cloud/alicloud/src/services/awss\awss_aplist.c ****         return -1;
 148              		.loc 1 60 8
 149 0036 19CD     		beq	a0,zero,.L8
  62:C:/Users/stapi/OneDrive/Desktop/GD32VW553/V1_MQTT_OK/GD32VW55X_Wifi_BLE_SDK/GD32VW55x_RELEASE_V1.0.2/MSDK/cloud/alicloud/src/services/awss\awss_aplist.c ****     }
  63:C:/Users/stapi/OneDrive/Desktop/GD32VW553/V1_MQTT_OK/GD32VW55X_Wifi_BLE_SDK/GD32VW55x_RELEASE_V1.0.2/MSDK/cloud/alicloud/src/services/awss\awss_aplist.c **** 
  64:C:/Users/stapi/OneDrive/Desktop/GD32VW553/V1_MQTT_OK/GD32VW55X_Wifi_BLE_SDK/GD32VW55x_RELEASE_V1.0.2/MSDK/cloud/alicloud/src/services/awss\awss_aplist.c ****     HAL_Timer_Stop(clr_aplist_timer);
 150              		.loc 1 64 5 is_stmt 1
 151 0038 97000000 		call	HAL_Timer_Stop
 151      E7800000 
 152              	.LVL4:
  65:C:/Users/stapi/OneDrive/Desktop/GD32VW553/V1_MQTT_OK/GD32VW55X_Wifi_BLE_SDK/GD32VW55x_RELEASE_V1.0.2/MSDK/cloud/alicloud/src/services/awss\awss_aplist.c ****     HAL_Timer_Start(clr_aplist_timer, CLR_APLIST_MONITOR_TIMEOUT_MS);
 153              		.loc 1 65 5
 154 0040 0840     		lw	a0,0(s0)
 155 0042 B7652605 		li	a1,86401024
 156 0046 938505C0 		addi	a1,a1,-1024
 157 004a 97000000 		call	HAL_Timer_Start
 157      E7800000 
 158              	.LVL5:
  66:C:/Users/stapi/OneDrive/Desktop/GD32VW553/V1_MQTT_OK/GD32VW55X_Wifi_BLE_SDK/GD32VW55x_RELEASE_V1.0.2/MSDK/cloud/alicloud/src/services/awss\awss_aplist.c ****     return 0;
 159              		.loc 1 66 5
 160              		.loc 1 66 12 is_stmt 0
 161 0052 8147     		li	a5,0
 162              	.L8:
  67:C:/Users/stapi/OneDrive/Desktop/GD32VW553/V1_MQTT_OK/GD32VW55X_Wifi_BLE_SDK/GD32VW55x_RELEASE_V1.0.2/MSDK/cloud/alicloud/src/services/awss\awss_aplist.c **** }
 163              		.loc 1 67 1
 164 0054 3E85     		mv	a0,a5
 165 0056 17030000 		tail	__riscv_restore_1
 165      67000300 
 166              		.cfi_restore 8
 167              		.cfi_restore 1
 168              		.cfi_def_cfa_offset 0
 169              		.cfi_endproc
 170              	.LFE52:
 172              		.section	.text.awss_close_aplist_monitor,"ax",@progbits
 173              		.align	1
 174              		.globl	awss_close_aplist_monitor
 176              	awss_close_aplist_monitor:
 177              	.LFB53:
  68:C:/Users/stapi/OneDrive/Desktop/GD32VW553/V1_MQTT_OK/GD32VW55X_Wifi_BLE_SDK/GD32VW55x_RELEASE_V1.0.2/MSDK/cloud/alicloud/src/services/awss\awss_aplist.c **** 
  69:C:/Users/stapi/OneDrive/Desktop/GD32VW553/V1_MQTT_OK/GD32VW55X_Wifi_BLE_SDK/GD32VW55x_RELEASE_V1.0.2/MSDK/cloud/alicloud/src/services/awss\awss_aplist.c **** int awss_close_aplist_monitor(void)
  70:C:/Users/stapi/OneDrive/Desktop/GD32VW553/V1_MQTT_OK/GD32VW55X_Wifi_BLE_SDK/GD32VW55x_RELEASE_V1.0.2/MSDK/cloud/alicloud/src/services/awss\awss_aplist.c **** {
 178              		.loc 1 70 1 is_stmt 1
 179              		.cfi_startproc
 180 0000 17030000 		call	t0,__riscv_save_1
 180      E7020300 
 181              		.cfi_offset 8, -8
 182              		.cfi_offset 1, -4
 183              		.cfi_def_cfa_offset 16
  71:C:/Users/stapi/OneDrive/Desktop/GD32VW553/V1_MQTT_OK/GD32VW55X_Wifi_BLE_SDK/GD32VW55x_RELEASE_V1.0.2/MSDK/cloud/alicloud/src/services/awss\awss_aplist.c ****     if (clr_aplist_timer == NULL) {
 184              		.loc 1 71 5
 185              		.loc 1 71 26 is_stmt 0
 186 0008 37040000 		lui	s0,%hi(.LANCHOR1)
 187 000c 13040400 		addi	s0,s0,%lo(.LANCHOR1)
 188 0010 0840     		lw	a0,0(s0)
 189              		.loc 1 71 8
 190 0012 19C5     		beq	a0,zero,.L14
  72:C:/Users/stapi/OneDrive/Desktop/GD32VW553/V1_MQTT_OK/GD32VW55X_Wifi_BLE_SDK/GD32VW55x_RELEASE_V1.0.2/MSDK/cloud/alicloud/src/services/awss\awss_aplist.c ****         return 0;
  73:C:/Users/stapi/OneDrive/Desktop/GD32VW553/V1_MQTT_OK/GD32VW55X_Wifi_BLE_SDK/GD32VW55x_RELEASE_V1.0.2/MSDK/cloud/alicloud/src/services/awss\awss_aplist.c ****     }
  74:C:/Users/stapi/OneDrive/Desktop/GD32VW553/V1_MQTT_OK/GD32VW55X_Wifi_BLE_SDK/GD32VW55x_RELEASE_V1.0.2/MSDK/cloud/alicloud/src/services/awss\awss_aplist.c ****     awss_stop_timer(clr_aplist_timer);
 191              		.loc 1 74 5 is_stmt 1
 192 0014 97000000 		call	awss_stop_timer
 192      E7800000 
 193              	.LVL6:
  75:C:/Users/stapi/OneDrive/Desktop/GD32VW553/V1_MQTT_OK/GD32VW55X_Wifi_BLE_SDK/GD32VW55x_RELEASE_V1.0.2/MSDK/cloud/alicloud/src/services/awss\awss_aplist.c ****     clr_aplist_timer = NULL;
 194              		.loc 1 75 5
 195              		.loc 1 75 22 is_stmt 0
 196 001c 23200400 		sw	zero,0(s0)
  76:C:/Users/stapi/OneDrive/Desktop/GD32VW553/V1_MQTT_OK/GD32VW55X_Wifi_BLE_SDK/GD32VW55x_RELEASE_V1.0.2/MSDK/cloud/alicloud/src/services/awss\awss_aplist.c ****     return 0;
 197              		.loc 1 76 5 is_stmt 1
 198              	.L14:
  77:C:/Users/stapi/OneDrive/Desktop/GD32VW553/V1_MQTT_OK/GD32VW55X_Wifi_BLE_SDK/GD32VW55x_RELEASE_V1.0.2/MSDK/cloud/alicloud/src/services/awss\awss_aplist.c **** }
 199              		.loc 1 77 1 is_stmt 0
 200 0020 0145     		li	a0,0
 201 0022 17030000 		tail	__riscv_restore_1
 201      67000300 
 202              		.cfi_restore 8
 203              		.cfi_restore 1
 204              		.cfi_def_cfa_offset 0
 205              		.cfi_endproc
 206              	.LFE53:
 208              		.section	.rodata.awss_init_ieee80211_aplist.str1.4,"aMS",@progbits,1
 209              		.align	2
 210              	.LC2:
 211 0000 61706C69 		.string	"aplist null when init"
 211      7374206E 
 211      756C6C20 
 211      7768656E 
 211      20696E69 
 212              		.section	.text.awss_init_ieee80211_aplist,"ax",@progbits
 213              		.align	1
 214              		.globl	awss_init_ieee80211_aplist
 216              	awss_init_ieee80211_aplist:
 217              	.LFB54:
  78:C:/Users/stapi/OneDrive/Desktop/GD32VW553/V1_MQTT_OK/GD32VW55X_Wifi_BLE_SDK/GD32VW55x_RELEASE_V1.0.2/MSDK/cloud/alicloud/src/services/awss\awss_aplist.c **** 
  79:C:/Users/stapi/OneDrive/Desktop/GD32VW553/V1_MQTT_OK/GD32VW55X_Wifi_BLE_SDK/GD32VW55x_RELEASE_V1.0.2/MSDK/cloud/alicloud/src/services/awss\awss_aplist.c **** int awss_init_ieee80211_aplist(void)
  80:C:/Users/stapi/OneDrive/Desktop/GD32VW553/V1_MQTT_OK/GD32VW55X_Wifi_BLE_SDK/GD32VW55x_RELEASE_V1.0.2/MSDK/cloud/alicloud/src/services/awss\awss_aplist.c **** {
 218              		.loc 1 80 1 is_stmt 1
 219              		.cfi_startproc
  81:C:/Users/stapi/OneDrive/Desktop/GD32VW553/V1_MQTT_OK/GD32VW55X_Wifi_BLE_SDK/GD32VW55x_RELEASE_V1.0.2/MSDK/cloud/alicloud/src/services/awss\awss_aplist.c ****     if (zconfig_aplist) {
 220              		.loc 1 81 5
 221              		.loc 1 81 9 is_stmt 0
 222 0000 B7070000 		lui	a5,%hi(.LANCHOR2)
 223              		.loc 1 81 8
 224 0004 03A70700 		lw	a4,%lo(.LANCHOR2)(a5)
  82:C:/Users/stapi/OneDrive/Desktop/GD32VW553/V1_MQTT_OK/GD32VW55X_Wifi_BLE_SDK/GD32VW55x_RELEASE_V1.0.2/MSDK/cloud/alicloud/src/services/awss\awss_aplist.c ****         return 0;
 225              		.loc 1 82 16
 226 0008 0145     		li	a0,0
  81:C:/Users/stapi/OneDrive/Desktop/GD32VW553/V1_MQTT_OK/GD32VW55X_Wifi_BLE_SDK/GD32VW55x_RELEASE_V1.0.2/MSDK/cloud/alicloud/src/services/awss\awss_aplist.c ****     if (zconfig_aplist) {
 227              		.loc 1 81 8
 228 000a 39EF     		bne	a4,zero,.L28
  80:C:/Users/stapi/OneDrive/Desktop/GD32VW553/V1_MQTT_OK/GD32VW55X_Wifi_BLE_SDK/GD32VW55x_RELEASE_V1.0.2/MSDK/cloud/alicloud/src/services/awss\awss_aplist.c ****     if (zconfig_aplist) {
 229              		.loc 1 80 1
 230 000c 17030000 		call	t0,__riscv_save_3
 230      E7020300 
 231              		.cfi_offset 18, -16
 232              		.cfi_offset 9, -12
 233              		.cfi_offset 8, -8
 234              		.cfi_offset 1, -4
 235              		.cfi_def_cfa_offset 16
 236              	.LBB14:
 237              	.LBB15:
 238              	.LBB16:
 239              	.LBB17:
 240              		.file 2 "..\\..\\..\\..\\cloud\\alicloud\\src\\services\\dev_bind\\os/os.h"
   1:..\..\..\..\cloud\alicloud\src\services\dev_bind\os/os.h **** /*
   2:..\..\..\..\cloud\alicloud\src\services\dev_bind\os/os.h ****  * Copyright (C) 2015-2018 Alibaba Group Holding Limited
   3:..\..\..\..\cloud\alicloud\src\services\dev_bind\os/os.h ****  */
   4:..\..\..\..\cloud\alicloud\src\services\dev_bind\os/os.h **** 
   5:..\..\..\..\cloud\alicloud\src\services\dev_bind\os/os.h **** #ifndef __AWSS_OS_H__
   6:..\..\..\..\cloud\alicloud\src\services\dev_bind\os/os.h **** #define __AWSS_OS_H__
   7:..\..\..\..\cloud\alicloud\src\services\dev_bind\os/os.h **** 
   8:..\..\..\..\cloud\alicloud\src\services\dev_bind\os/os.h **** #ifdef __cplusplus
   9:..\..\..\..\cloud\alicloud\src\services\dev_bind\os/os.h **** extern "C" {
  10:..\..\..\..\cloud\alicloud\src\services\dev_bind\os/os.h **** #endif
  11:..\..\..\..\cloud\alicloud\src\services\dev_bind\os/os.h **** #include <ctype.h>
  12:..\..\..\..\cloud\alicloud\src\services\dev_bind\os/os.h **** #include "iot_import.h"
  13:..\..\..\..\cloud\alicloud\src\services\dev_bind\os/os.h **** #include "iot_export.h"
  14:..\..\..\..\cloud\alicloud\src\services\dev_bind\os/os.h **** #include "product/product.h"
  15:..\..\..\..\cloud\alicloud\src\services\dev_bind\os/os.h **** #include "platform.h"
  16:..\..\..\..\cloud\alicloud\src\services\dev_bind\os/os.h **** 
  17:..\..\..\..\cloud\alicloud\src\services\dev_bind\os/os.h **** /** @defgroup group_os os
  18:..\..\..\..\cloud\alicloud\src\services\dev_bind\os/os.h ****  *  @{
  19:..\..\..\..\cloud\alicloud\src\services\dev_bind\os/os.h ****  */
  20:..\..\..\..\cloud\alicloud\src\services\dev_bind\os/os.h **** 
  21:..\..\..\..\cloud\alicloud\src\services\dev_bind\os/os.h **** #define OS_MAX_SSID_LEN         PLATFORM_MAX_SSID_LEN
  22:..\..\..\..\cloud\alicloud\src\services\dev_bind\os/os.h **** #define OS_MAX_PASSWD_LEN       PLATFORM_MAX_PASSWD_LEN
  23:..\..\..\..\cloud\alicloud\src\services\dev_bind\os/os.h **** 
  24:..\..\..\..\cloud\alicloud\src\services\dev_bind\os/os.h **** #define OS_MAC_LEN              PLATFORM_MAC_LEN
  25:..\..\..\..\cloud\alicloud\src\services\dev_bind\os/os.h **** #define OS_IP_LEN               PLATFORM_IP_LEN
  26:..\..\..\..\cloud\alicloud\src\services\dev_bind\os/os.h **** #define OS_ETH_ALEN             ETH_ALEN
  27:..\..\..\..\cloud\alicloud\src\services\dev_bind\os/os.h **** 
  28:..\..\..\..\cloud\alicloud\src\services\dev_bind\os/os.h **** #define OS_PRODUCT_KEY_LEN      PRODUCT_KEY_LEN
  29:..\..\..\..\cloud\alicloud\src\services\dev_bind\os/os.h **** #define OS_PRODUCT_SECRET_LEN   PRODUCT_SECRET_LEN
  30:..\..\..\..\cloud\alicloud\src\services\dev_bind\os/os.h **** #define OS_DEVICE_NAME_LEN      DEVICE_NAME_LEN
  31:..\..\..\..\cloud\alicloud\src\services\dev_bind\os/os.h **** #define OS_DEVICE_SECRET_LEN    DEVICE_SECRET_LEN
  32:..\..\..\..\cloud\alicloud\src\services\dev_bind\os/os.h **** 
  33:..\..\..\..\cloud\alicloud\src\services\dev_bind\os/os.h **** /***************************************** Misc Interface *****************************************
  34:..\..\..\..\cloud\alicloud\src\services\dev_bind\os/os.h **** 
  35:..\..\..\..\cloud\alicloud\src\services\dev_bind\os/os.h **** /** @defgroup group_misc misc
  36:..\..\..\..\cloud\alicloud\src\services\dev_bind\os/os.h ****  *  @{
  37:..\..\..\..\cloud\alicloud\src\services\dev_bind\os/os.h ****  */
  38:..\..\..\..\cloud\alicloud\src\services\dev_bind\os/os.h **** /**
  39:..\..\..\..\cloud\alicloud\src\services\dev_bind\os/os.h ****  * @brief .
  40:..\..\..\..\cloud\alicloud\src\services\dev_bind\os/os.h ****  *
  41:..\..\..\..\cloud\alicloud\src\services\dev_bind\os/os.h ****  * @param None.
  42:..\..\..\..\cloud\alicloud\src\services\dev_bind\os/os.h ****  * @return
  43:..\..\..\..\cloud\alicloud\src\services\dev_bind\os/os.h ****  * @verbatim
  44:..\..\..\..\cloud\alicloud\src\services\dev_bind\os/os.h ****  * = 0, This platform is little endian.
  45:..\..\..\..\cloud\alicloud\src\services\dev_bind\os/os.h ****  * = 1, This platform is big endian.
  46:..\..\..\..\cloud\alicloud\src\services\dev_bind\os/os.h ****  * @endverbatim
  47:..\..\..\..\cloud\alicloud\src\services\dev_bind\os/os.h ****  * @see None.
  48:..\..\..\..\cloud\alicloud\src\services\dev_bind\os/os.h ****  * @note None.
  49:..\..\..\..\cloud\alicloud\src\services\dev_bind\os/os.h ****  */
  50:..\..\..\..\cloud\alicloud\src\services\dev_bind\os/os.h **** static inline int os_is_big_endian(void)
  51:..\..\..\..\cloud\alicloud\src\services\dev_bind\os/os.h **** {
  52:..\..\..\..\cloud\alicloud\src\services\dev_bind\os/os.h ****     uint32_t data = 0xFF000000;
  53:..\..\..\..\cloud\alicloud\src\services\dev_bind\os/os.h **** 
  54:..\..\..\..\cloud\alicloud\src\services\dev_bind\os/os.h ****     if (0xFF == *(uint8_t *) & data) {
  55:..\..\..\..\cloud\alicloud\src\services\dev_bind\os/os.h ****         return 1;                                    //big endian
  56:..\..\..\..\cloud\alicloud\src\services\dev_bind\os/os.h ****     }
  57:..\..\..\..\cloud\alicloud\src\services\dev_bind\os/os.h **** 
  58:..\..\..\..\cloud\alicloud\src\services\dev_bind\os/os.h ****     return 0;                                        //little endian
  59:..\..\..\..\cloud\alicloud\src\services\dev_bind\os/os.h **** }
  60:..\..\..\..\cloud\alicloud\src\services\dev_bind\os/os.h **** 
  61:..\..\..\..\cloud\alicloud\src\services\dev_bind\os/os.h **** /**
  62:..\..\..\..\cloud\alicloud\src\services\dev_bind\os/os.h ****  * @brief Convert the data from byte order of current CPU(the "host") to big-endian.
  63:..\..\..\..\cloud\alicloud\src\services\dev_bind\os/os.h ****    The size of the data is 16 bits.
  64:..\..\..\..\cloud\alicloud\src\services\dev_bind\os/os.h ****  *
  65:..\..\..\..\cloud\alicloud\src\services\dev_bind\os/os.h ****  * @param[in] data @n Data to be converted.
  66:..\..\..\..\cloud\alicloud\src\services\dev_bind\os/os.h ****  * @return Conversion result.
  67:..\..\..\..\cloud\alicloud\src\services\dev_bind\os/os.h ****  * @see None.
  68:..\..\..\..\cloud\alicloud\src\services\dev_bind\os/os.h ****  * @note None.
  69:..\..\..\..\cloud\alicloud\src\services\dev_bind\os/os.h ****  */
  70:..\..\..\..\cloud\alicloud\src\services\dev_bind\os/os.h **** uint16_t os_htobe16(uint16_t data);
  71:..\..\..\..\cloud\alicloud\src\services\dev_bind\os/os.h **** 
  72:..\..\..\..\cloud\alicloud\src\services\dev_bind\os/os.h **** /**
  73:..\..\..\..\cloud\alicloud\src\services\dev_bind\os/os.h ****  * @brief Convert the data from host to little-endian.
  74:..\..\..\..\cloud\alicloud\src\services\dev_bind\os/os.h ****    The size of the data is 16 bits.
  75:..\..\..\..\cloud\alicloud\src\services\dev_bind\os/os.h ****  *
  76:..\..\..\..\cloud\alicloud\src\services\dev_bind\os/os.h ****  * @param[in] data @n Data to be converted.
  77:..\..\..\..\cloud\alicloud\src\services\dev_bind\os/os.h ****  * @return Conversion result.
  78:..\..\..\..\cloud\alicloud\src\services\dev_bind\os/os.h ****  * @see None.
  79:..\..\..\..\cloud\alicloud\src\services\dev_bind\os/os.h ****  * @note None.
  80:..\..\..\..\cloud\alicloud\src\services\dev_bind\os/os.h ****  */
  81:..\..\..\..\cloud\alicloud\src\services\dev_bind\os/os.h **** uint16_t os_htole16(uint16_t data);
  82:..\..\..\..\cloud\alicloud\src\services\dev_bind\os/os.h **** 
  83:..\..\..\..\cloud\alicloud\src\services\dev_bind\os/os.h **** /**
  84:..\..\..\..\cloud\alicloud\src\services\dev_bind\os/os.h ****  * @brief Convert the data from big-endian to host.
  85:..\..\..\..\cloud\alicloud\src\services\dev_bind\os/os.h ****    The size of the data is 16 bits.
  86:..\..\..\..\cloud\alicloud\src\services\dev_bind\os/os.h ****  *
  87:..\..\..\..\cloud\alicloud\src\services\dev_bind\os/os.h ****  * @param[in] data @n Data to be converted.
  88:..\..\..\..\cloud\alicloud\src\services\dev_bind\os/os.h ****  * @return Conversion result.
  89:..\..\..\..\cloud\alicloud\src\services\dev_bind\os/os.h ****  * @see None.
  90:..\..\..\..\cloud\alicloud\src\services\dev_bind\os/os.h ****  * @note None.
  91:..\..\..\..\cloud\alicloud\src\services\dev_bind\os/os.h ****  */
  92:..\..\..\..\cloud\alicloud\src\services\dev_bind\os/os.h **** uint16_t os_be16toh(uint16_t data);
  93:..\..\..\..\cloud\alicloud\src\services\dev_bind\os/os.h **** 
  94:..\..\..\..\cloud\alicloud\src\services\dev_bind\os/os.h **** /**
  95:..\..\..\..\cloud\alicloud\src\services\dev_bind\os/os.h ****  * @brief Convert the data from little-endian to host.
  96:..\..\..\..\cloud\alicloud\src\services\dev_bind\os/os.h ****    The size of the data is 16 bits.
  97:..\..\..\..\cloud\alicloud\src\services\dev_bind\os/os.h ****  *
  98:..\..\..\..\cloud\alicloud\src\services\dev_bind\os/os.h ****  * @param[in] data @n Data to be converted.
  99:..\..\..\..\cloud\alicloud\src\services\dev_bind\os/os.h ****  * @return Conversion result.
 100:..\..\..\..\cloud\alicloud\src\services\dev_bind\os/os.h ****  * @see None.
 101:..\..\..\..\cloud\alicloud\src\services\dev_bind\os/os.h ****  * @note None.
 102:..\..\..\..\cloud\alicloud\src\services\dev_bind\os/os.h ****  */
 103:..\..\..\..\cloud\alicloud\src\services\dev_bind\os/os.h **** uint16_t os_le16toh(uint16_t data);
 104:..\..\..\..\cloud\alicloud\src\services\dev_bind\os/os.h **** 
 105:..\..\..\..\cloud\alicloud\src\services\dev_bind\os/os.h **** /**
 106:..\..\..\..\cloud\alicloud\src\services\dev_bind\os/os.h ****  * @brief Convert the data from little-endian to host.
 107:..\..\..\..\cloud\alicloud\src\services\dev_bind\os/os.h ****    The size of the data is 32 bits.
 108:..\..\..\..\cloud\alicloud\src\services\dev_bind\os/os.h ****  *
 109:..\..\..\..\cloud\alicloud\src\services\dev_bind\os/os.h ****  * @param[in] data @n Data to be converted.
 110:..\..\..\..\cloud\alicloud\src\services\dev_bind\os/os.h ****  * @return Conversion result.
 111:..\..\..\..\cloud\alicloud\src\services\dev_bind\os/os.h ****  * @see None.
 112:..\..\..\..\cloud\alicloud\src\services\dev_bind\os/os.h ****  * @note None.
 113:..\..\..\..\cloud\alicloud\src\services\dev_bind\os/os.h ****  */
 114:..\..\..\..\cloud\alicloud\src\services\dev_bind\os/os.h **** uint32_t os_le32toh(uint32_t data);
 115:..\..\..\..\cloud\alicloud\src\services\dev_bind\os/os.h **** 
 116:..\..\..\..\cloud\alicloud\src\services\dev_bind\os/os.h **** /**
 117:..\..\..\..\cloud\alicloud\src\services\dev_bind\os/os.h ****  * @brief Convert the data from host to big-endian.
 118:..\..\..\..\cloud\alicloud\src\services\dev_bind\os/os.h ****    The size of the data is 64 bits.
 119:..\..\..\..\cloud\alicloud\src\services\dev_bind\os/os.h ****  *
 120:..\..\..\..\cloud\alicloud\src\services\dev_bind\os/os.h ****  * @param[in] data @n Data to be converted.
 121:..\..\..\..\cloud\alicloud\src\services\dev_bind\os/os.h ****  * @return Conversion result.
 122:..\..\..\..\cloud\alicloud\src\services\dev_bind\os/os.h ****  * @see None.
 123:..\..\..\..\cloud\alicloud\src\services\dev_bind\os/os.h ****  * @note None.
 124:..\..\..\..\cloud\alicloud\src\services\dev_bind\os/os.h ****  */
 125:..\..\..\..\cloud\alicloud\src\services\dev_bind\os/os.h **** //uint64_t os_htobe64(uint64_t data);
 126:..\..\..\..\cloud\alicloud\src\services\dev_bind\os/os.h **** 
 127:..\..\..\..\cloud\alicloud\src\services\dev_bind\os/os.h **** /**
 128:..\..\..\..\cloud\alicloud\src\services\dev_bind\os/os.h ****  * @brief Convert the data from host to little-endian.
 129:..\..\..\..\cloud\alicloud\src\services\dev_bind\os/os.h ****    The size of the data is 64 bits.
 130:..\..\..\..\cloud\alicloud\src\services\dev_bind\os/os.h ****  *
 131:..\..\..\..\cloud\alicloud\src\services\dev_bind\os/os.h ****  * @param[in] data @n Data to be converted.
 132:..\..\..\..\cloud\alicloud\src\services\dev_bind\os/os.h ****  * @return Conversion result.
 133:..\..\..\..\cloud\alicloud\src\services\dev_bind\os/os.h ****  * @see None.
 134:..\..\..\..\cloud\alicloud\src\services\dev_bind\os/os.h ****  * @note None.
 135:..\..\..\..\cloud\alicloud\src\services\dev_bind\os/os.h ****  */
 136:..\..\..\..\cloud\alicloud\src\services\dev_bind\os/os.h **** //uint64_t os_htole64(uint64_t data);
 137:..\..\..\..\cloud\alicloud\src\services\dev_bind\os/os.h **** 
 138:..\..\..\..\cloud\alicloud\src\services\dev_bind\os/os.h **** /**
 139:..\..\..\..\cloud\alicloud\src\services\dev_bind\os/os.h ****  * @brief Convert the data from big-endian to host.
 140:..\..\..\..\cloud\alicloud\src\services\dev_bind\os/os.h ****    The size of the data is 64 bits.
 141:..\..\..\..\cloud\alicloud\src\services\dev_bind\os/os.h ****  *
 142:..\..\..\..\cloud\alicloud\src\services\dev_bind\os/os.h ****  * @param[in] data @n Data to be converted.
 143:..\..\..\..\cloud\alicloud\src\services\dev_bind\os/os.h ****  * @return Conversion result.
 144:..\..\..\..\cloud\alicloud\src\services\dev_bind\os/os.h ****  * @see None.
 145:..\..\..\..\cloud\alicloud\src\services\dev_bind\os/os.h ****  * @note None.
 146:..\..\..\..\cloud\alicloud\src\services\dev_bind\os/os.h ****  */
 147:..\..\..\..\cloud\alicloud\src\services\dev_bind\os/os.h **** //uint64_t os_be64toh(uint64_t data);
 148:..\..\..\..\cloud\alicloud\src\services\dev_bind\os/os.h **** 
 149:..\..\..\..\cloud\alicloud\src\services\dev_bind\os/os.h **** /**
 150:..\..\..\..\cloud\alicloud\src\services\dev_bind\os/os.h ****  * @brief Convert the data from little-endian to host.
 151:..\..\..\..\cloud\alicloud\src\services\dev_bind\os/os.h ****    The size of the data is 64 bits.
 152:..\..\..\..\cloud\alicloud\src\services\dev_bind\os/os.h ****  *
 153:..\..\..\..\cloud\alicloud\src\services\dev_bind\os/os.h ****  * @param[in] data @n Data to be converted.
 154:..\..\..\..\cloud\alicloud\src\services\dev_bind\os/os.h ****  * @return Conversion result.
 155:..\..\..\..\cloud\alicloud\src\services\dev_bind\os/os.h ****  * @see None.
 156:..\..\..\..\cloud\alicloud\src\services\dev_bind\os/os.h ****  * @note None.
 157:..\..\..\..\cloud\alicloud\src\services\dev_bind\os/os.h ****  */
 158:..\..\..\..\cloud\alicloud\src\services\dev_bind\os/os.h **** //uint64_t os_le64toh(uint64_t data);
 159:..\..\..\..\cloud\alicloud\src\services\dev_bind\os/os.h **** 
 160:..\..\..\..\cloud\alicloud\src\services\dev_bind\os/os.h **** /**
 161:..\..\..\..\cloud\alicloud\src\services\dev_bind\os/os.h ****  * @brief Get unaligned 16 bits data which is big-endian and convert to host byte order.
 162:..\..\..\..\cloud\alicloud\src\services\dev_bind\os/os.h ****  *
 163:..\..\..\..\cloud\alicloud\src\services\dev_bind\os/os.h ****  * @param[in] ptr @n The start address of the unaligned data.
 164:..\..\..\..\cloud\alicloud\src\services\dev_bind\os/os.h ****  * @return Result in host byte order.
 165:..\..\..\..\cloud\alicloud\src\services\dev_bind\os/os.h ****  * @see None.
 166:..\..\..\..\cloud\alicloud\src\services\dev_bind\os/os.h ****  * @note None.
 167:..\..\..\..\cloud\alicloud\src\services\dev_bind\os/os.h ****  */
 168:..\..\..\..\cloud\alicloud\src\services\dev_bind\os/os.h **** uint16_t os_get_unaligned_be16(uint8_t *ptr);
 169:..\..\..\..\cloud\alicloud\src\services\dev_bind\os/os.h **** 
 170:..\..\..\..\cloud\alicloud\src\services\dev_bind\os/os.h **** /**
 171:..\..\..\..\cloud\alicloud\src\services\dev_bind\os/os.h ****  * @brief Get unaligned 16 bits data which is little-endian and convert to host byte order.
 172:..\..\..\..\cloud\alicloud\src\services\dev_bind\os/os.h ****  *
 173:..\..\..\..\cloud\alicloud\src\services\dev_bind\os/os.h ****  * @param[in] ptr @n The start address of the unaligned data.
 174:..\..\..\..\cloud\alicloud\src\services\dev_bind\os/os.h ****  * @return Result in host byte order.
 175:..\..\..\..\cloud\alicloud\src\services\dev_bind\os/os.h ****  * @see None.
 176:..\..\..\..\cloud\alicloud\src\services\dev_bind\os/os.h ****  * @note None.
 177:..\..\..\..\cloud\alicloud\src\services\dev_bind\os/os.h ****  */
 178:..\..\..\..\cloud\alicloud\src\services\dev_bind\os/os.h **** uint16_t os_get_unaligned_le16(uint8_t *ptr);
 179:..\..\..\..\cloud\alicloud\src\services\dev_bind\os/os.h **** 
 180:..\..\..\..\cloud\alicloud\src\services\dev_bind\os/os.h **** /**
 181:..\..\..\..\cloud\alicloud\src\services\dev_bind\os/os.h ****  * @brief Get unaligned 32 bits data which is big-endian and convert to host byte order.
 182:..\..\..\..\cloud\alicloud\src\services\dev_bind\os/os.h ****  *
 183:..\..\..\..\cloud\alicloud\src\services\dev_bind\os/os.h ****  * @param[in] ptr @n The start address of the unaligned data.
 184:..\..\..\..\cloud\alicloud\src\services\dev_bind\os/os.h ****  * @return Result in host byte order.
 185:..\..\..\..\cloud\alicloud\src\services\dev_bind\os/os.h ****  * @see None.
 186:..\..\..\..\cloud\alicloud\src\services\dev_bind\os/os.h ****  * @note None.
 187:..\..\..\..\cloud\alicloud\src\services\dev_bind\os/os.h ****  */
 188:..\..\..\..\cloud\alicloud\src\services\dev_bind\os/os.h **** uint32_t os_get_unaligned_be32(uint8_t *ptr);
 189:..\..\..\..\cloud\alicloud\src\services\dev_bind\os/os.h **** 
 190:..\..\..\..\cloud\alicloud\src\services\dev_bind\os/os.h **** /**
 191:..\..\..\..\cloud\alicloud\src\services\dev_bind\os/os.h ****  * @brief Get unaligned 32 bits data which is little-endian and convert to host byte order.
 192:..\..\..\..\cloud\alicloud\src\services\dev_bind\os/os.h ****  *
 193:..\..\..\..\cloud\alicloud\src\services\dev_bind\os/os.h ****  * @param[in] ptr @n The start address of the unaligned data.
 194:..\..\..\..\cloud\alicloud\src\services\dev_bind\os/os.h ****  * @return Result in host byte order.
 195:..\..\..\..\cloud\alicloud\src\services\dev_bind\os/os.h ****  * @see None.
 196:..\..\..\..\cloud\alicloud\src\services\dev_bind\os/os.h ****  * @note None.
 197:..\..\..\..\cloud\alicloud\src\services\dev_bind\os/os.h ****  */
 198:..\..\..\..\cloud\alicloud\src\services\dev_bind\os/os.h **** uint32_t os_get_unaligned_le32(uint8_t *ptr);
 199:..\..\..\..\cloud\alicloud\src\services\dev_bind\os/os.h **** 
 200:..\..\..\..\cloud\alicloud\src\services\dev_bind\os/os.h **** /**
 201:..\..\..\..\cloud\alicloud\src\services\dev_bind\os/os.h ****  * @brief sleep thread itself.
 202:..\..\..\..\cloud\alicloud\src\services\dev_bind\os/os.h ****  *
 203:..\..\..\..\cloud\alicloud\src\services\dev_bind\os/os.h ****  * @param[in] ms @n the time interval for which execution is to be suspended, in milliseconds.
 204:..\..\..\..\cloud\alicloud\src\services\dev_bind\os/os.h ****  * @return None.
 205:..\..\..\..\cloud\alicloud\src\services\dev_bind\os/os.h ****  * @see None.
 206:..\..\..\..\cloud\alicloud\src\services\dev_bind\os/os.h ****  * @note None.
 207:..\..\..\..\cloud\alicloud\src\services\dev_bind\os/os.h ****  */
 208:..\..\..\..\cloud\alicloud\src\services\dev_bind\os/os.h **** static inline void os_msleep(_IN_ uint32_t ms)
 209:..\..\..\..\cloud\alicloud\src\services\dev_bind\os/os.h **** {
 210:..\..\..\..\cloud\alicloud\src\services\dev_bind\os/os.h ****     platform_msleep(ms);
 211:..\..\..\..\cloud\alicloud\src\services\dev_bind\os/os.h **** }
 212:..\..\..\..\cloud\alicloud\src\services\dev_bind\os/os.h **** 
 213:..\..\..\..\cloud\alicloud\src\services\dev_bind\os/os.h **** /**
 214:..\..\..\..\cloud\alicloud\src\services\dev_bind\os/os.h ****  * @brief sleep thread itself.
 215:..\..\..\..\cloud\alicloud\src\services\dev_bind\os/os.h ****  *
 216:..\..\..\..\cloud\alicloud\src\services\dev_bind\os/os.h ****  * @param[in] sec @n the time interval for which execution is to be suspended, in seconds.
 217:..\..\..\..\cloud\alicloud\src\services\dev_bind\os/os.h ****  * @return None.
 218:..\..\..\..\cloud\alicloud\src\services\dev_bind\os/os.h ****  * @see None.
 219:..\..\..\..\cloud\alicloud\src\services\dev_bind\os/os.h ****  * @note None.
 220:..\..\..\..\cloud\alicloud\src\services\dev_bind\os/os.h ****  */
 221:..\..\..\..\cloud\alicloud\src\services\dev_bind\os/os.h **** static inline void os_sleep(_IN_ uint32_t sec)
 222:..\..\..\..\cloud\alicloud\src\services\dev_bind\os/os.h **** {
 223:..\..\..\..\cloud\alicloud\src\services\dev_bind\os/os.h ****     platform_msleep(sec * 1000);
 224:..\..\..\..\cloud\alicloud\src\services\dev_bind\os/os.h **** }
 225:..\..\..\..\cloud\alicloud\src\services\dev_bind\os/os.h **** 
 226:..\..\..\..\cloud\alicloud\src\services\dev_bind\os/os.h **** /**
 227:..\..\..\..\cloud\alicloud\src\services\dev_bind\os/os.h ****  * @brief system reboot immediately.
 228:..\..\..\..\cloud\alicloud\src\services\dev_bind\os/os.h ****  *
 229:..\..\..\..\cloud\alicloud\src\services\dev_bind\os/os.h ****  * @return None.
 230:..\..\..\..\cloud\alicloud\src\services\dev_bind\os/os.h ****  * @see None.
 231:..\..\..\..\cloud\alicloud\src\services\dev_bind\os/os.h ****  * @note None.
 232:..\..\..\..\cloud\alicloud\src\services\dev_bind\os/os.h ****  */
 233:..\..\..\..\cloud\alicloud\src\services\dev_bind\os/os.h **** static inline void os_reboot()
 234:..\..\..\..\cloud\alicloud\src\services\dev_bind\os/os.h **** {
 235:..\..\..\..\cloud\alicloud\src\services\dev_bind\os/os.h ****     platform_reboot();
 236:..\..\..\..\cloud\alicloud\src\services\dev_bind\os/os.h **** }
 237:..\..\..\..\cloud\alicloud\src\services\dev_bind\os/os.h **** 
 238:..\..\..\..\cloud\alicloud\src\services\dev_bind\os/os.h **** /** @} *///end of os_misc
 239:..\..\..\..\cloud\alicloud\src\services\dev_bind\os/os.h **** 
 240:..\..\..\..\cloud\alicloud\src\services\dev_bind\os/os.h **** /***************************************** mutex Interface ****************************************
 241:..\..\..\..\cloud\alicloud\src\services\dev_bind\os/os.h **** 
 242:..\..\..\..\cloud\alicloud\src\services\dev_bind\os/os.h **** /** @defgroup group_os_mutex mutex
 243:..\..\..\..\cloud\alicloud\src\services\dev_bind\os/os.h ****  *  @{
 244:..\..\..\..\cloud\alicloud\src\services\dev_bind\os/os.h ****  */
 245:..\..\..\..\cloud\alicloud\src\services\dev_bind\os/os.h **** 
 246:..\..\..\..\cloud\alicloud\src\services\dev_bind\os/os.h **** /**
 247:..\..\..\..\cloud\alicloud\src\services\dev_bind\os/os.h ****  * @brief Create a mutex.
 248:..\..\..\..\cloud\alicloud\src\services\dev_bind\os/os.h ****  *
 249:..\..\..\..\cloud\alicloud\src\services\dev_bind\os/os.h ****  * @return Mutex handle.
 250:..\..\..\..\cloud\alicloud\src\services\dev_bind\os/os.h ****  * @see None.
 251:..\..\..\..\cloud\alicloud\src\services\dev_bind\os/os.h ****  * @note None.
 252:..\..\..\..\cloud\alicloud\src\services\dev_bind\os/os.h ****  */
 253:..\..\..\..\cloud\alicloud\src\services\dev_bind\os/os.h **** static inline void *os_mutex_init(void)
 254:..\..\..\..\cloud\alicloud\src\services\dev_bind\os/os.h **** {
 255:..\..\..\..\cloud\alicloud\src\services\dev_bind\os/os.h ****     return platform_mutex_init();
 256:..\..\..\..\cloud\alicloud\src\services\dev_bind\os/os.h **** }
 257:..\..\..\..\cloud\alicloud\src\services\dev_bind\os/os.h **** 
 258:..\..\..\..\cloud\alicloud\src\services\dev_bind\os/os.h **** /**
 259:..\..\..\..\cloud\alicloud\src\services\dev_bind\os/os.h ****  * @brief Destroy the specified mutex object, it will free related resource.
 260:..\..\..\..\cloud\alicloud\src\services\dev_bind\os/os.h ****  *
 261:..\..\..\..\cloud\alicloud\src\services\dev_bind\os/os.h ****  * @param[in] mutex @n The specified mutex.
 262:..\..\..\..\cloud\alicloud\src\services\dev_bind\os/os.h ****  * @return None.
 263:..\..\..\..\cloud\alicloud\src\services\dev_bind\os/os.h ****  * @see None.
 264:..\..\..\..\cloud\alicloud\src\services\dev_bind\os/os.h ****  * @note None.
 265:..\..\..\..\cloud\alicloud\src\services\dev_bind\os/os.h ****  */
 266:..\..\..\..\cloud\alicloud\src\services\dev_bind\os/os.h **** static inline void os_mutex_destroy(_IN_ void *mutex)
 267:..\..\..\..\cloud\alicloud\src\services\dev_bind\os/os.h **** {
 268:..\..\..\..\cloud\alicloud\src\services\dev_bind\os/os.h ****     platform_mutex_destroy(mutex);
 269:..\..\..\..\cloud\alicloud\src\services\dev_bind\os/os.h **** }
 270:..\..\..\..\cloud\alicloud\src\services\dev_bind\os/os.h **** 
 271:..\..\..\..\cloud\alicloud\src\services\dev_bind\os/os.h **** /**
 272:..\..\..\..\cloud\alicloud\src\services\dev_bind\os/os.h ****  * @brief Waits until the specified mutex is in the signaled state.
 273:..\..\..\..\cloud\alicloud\src\services\dev_bind\os/os.h ****  *
 274:..\..\..\..\cloud\alicloud\src\services\dev_bind\os/os.h ****  * @param[in] mutex @n the specified mutex.
 275:..\..\..\..\cloud\alicloud\src\services\dev_bind\os/os.h ****  * @return None.
 276:..\..\..\..\cloud\alicloud\src\services\dev_bind\os/os.h ****  * @see None.
 277:..\..\..\..\cloud\alicloud\src\services\dev_bind\os/os.h ****  * @note None.
 278:..\..\..\..\cloud\alicloud\src\services\dev_bind\os/os.h ****  */
 279:..\..\..\..\cloud\alicloud\src\services\dev_bind\os/os.h **** static inline void os_mutex_lock(_IN_ void *mutex)
 280:..\..\..\..\cloud\alicloud\src\services\dev_bind\os/os.h **** {
 281:..\..\..\..\cloud\alicloud\src\services\dev_bind\os/os.h ****     platform_mutex_lock(mutex);
 282:..\..\..\..\cloud\alicloud\src\services\dev_bind\os/os.h **** }
 283:..\..\..\..\cloud\alicloud\src\services\dev_bind\os/os.h **** 
 284:..\..\..\..\cloud\alicloud\src\services\dev_bind\os/os.h **** /**
 285:..\..\..\..\cloud\alicloud\src\services\dev_bind\os/os.h ****  * @brief Releases ownership of the specified mutex object..
 286:..\..\..\..\cloud\alicloud\src\services\dev_bind\os/os.h ****  *
 287:..\..\..\..\cloud\alicloud\src\services\dev_bind\os/os.h ****  * @param[in] mutex @n the specified mutex.
 288:..\..\..\..\cloud\alicloud\src\services\dev_bind\os/os.h ****  * @return None.
 289:..\..\..\..\cloud\alicloud\src\services\dev_bind\os/os.h ****  * @see None.
 290:..\..\..\..\cloud\alicloud\src\services\dev_bind\os/os.h ****  * @note None.
 291:..\..\..\..\cloud\alicloud\src\services\dev_bind\os/os.h ****  */
 292:..\..\..\..\cloud\alicloud\src\services\dev_bind\os/os.h **** static inline void os_mutex_unlock(_IN_ void *mutex)
 293:..\..\..\..\cloud\alicloud\src\services\dev_bind\os/os.h **** {
 294:..\..\..\..\cloud\alicloud\src\services\dev_bind\os/os.h ****     platform_mutex_unlock(mutex);
 295:..\..\..\..\cloud\alicloud\src\services\dev_bind\os/os.h **** }
 296:..\..\..\..\cloud\alicloud\src\services\dev_bind\os/os.h **** 
 297:..\..\..\..\cloud\alicloud\src\services\dev_bind\os/os.h **** /** @} */// end of os_mutex
 298:..\..\..\..\cloud\alicloud\src\services\dev_bind\os/os.h **** 
 299:..\..\..\..\cloud\alicloud\src\services\dev_bind\os/os.h **** /*************************************** semaphore Interface **************************************
 300:..\..\..\..\cloud\alicloud\src\services\dev_bind\os/os.h **** 
 301:..\..\..\..\cloud\alicloud\src\services\dev_bind\os/os.h **** /** @defgroup group_os_semaphore semaphore
 302:..\..\..\..\cloud\alicloud\src\services\dev_bind\os/os.h ****  *  @{
 303:..\..\..\..\cloud\alicloud\src\services\dev_bind\os/os.h ****  */
 304:..\..\..\..\cloud\alicloud\src\services\dev_bind\os/os.h **** 
 305:..\..\..\..\cloud\alicloud\src\services\dev_bind\os/os.h **** /**
 306:..\..\..\..\cloud\alicloud\src\services\dev_bind\os/os.h ****  * @brief Create a semaphore.
 307:..\..\..\..\cloud\alicloud\src\services\dev_bind\os/os.h ****  *
 308:..\..\..\..\cloud\alicloud\src\services\dev_bind\os/os.h ****  * @return semaphore handle.
 309:..\..\..\..\cloud\alicloud\src\services\dev_bind\os/os.h ****  * @see None.
 310:..\..\..\..\cloud\alicloud\src\services\dev_bind\os/os.h ****  * @note The recommended value of maximum count of the semaphore is 255.
 311:..\..\..\..\cloud\alicloud\src\services\dev_bind\os/os.h ****  */
 312:..\..\..\..\cloud\alicloud\src\services\dev_bind\os/os.h **** static inline void *os_semaphore_init(void)
 313:..\..\..\..\cloud\alicloud\src\services\dev_bind\os/os.h **** {
 314:..\..\..\..\cloud\alicloud\src\services\dev_bind\os/os.h ****     return platform_semaphore_init();
 315:..\..\..\..\cloud\alicloud\src\services\dev_bind\os/os.h **** }
 316:..\..\..\..\cloud\alicloud\src\services\dev_bind\os/os.h **** 
 317:..\..\..\..\cloud\alicloud\src\services\dev_bind\os/os.h **** /**
 318:..\..\..\..\cloud\alicloud\src\services\dev_bind\os/os.h ****  * @brief Destroy the specified semaphore object, it will free related resource.
 319:..\..\..\..\cloud\alicloud\src\services\dev_bind\os/os.h ****  *
 320:..\..\..\..\cloud\alicloud\src\services\dev_bind\os/os.h ****  * @param[in] sem @n the specified sem.
 321:..\..\..\..\cloud\alicloud\src\services\dev_bind\os/os.h ****  * @return None.
 322:..\..\..\..\cloud\alicloud\src\services\dev_bind\os/os.h ****  * @see None.
 323:..\..\..\..\cloud\alicloud\src\services\dev_bind\os/os.h ****  * @note None.
 324:..\..\..\..\cloud\alicloud\src\services\dev_bind\os/os.h ****  */
 325:..\..\..\..\cloud\alicloud\src\services\dev_bind\os/os.h **** static inline void os_semaphore_destroy(_IN_ void *sem)
 326:..\..\..\..\cloud\alicloud\src\services\dev_bind\os/os.h **** {
 327:..\..\..\..\cloud\alicloud\src\services\dev_bind\os/os.h ****     platform_semaphore_destroy(sem);
 328:..\..\..\..\cloud\alicloud\src\services\dev_bind\os/os.h **** }
 329:..\..\..\..\cloud\alicloud\src\services\dev_bind\os/os.h **** 
 330:..\..\..\..\cloud\alicloud\src\services\dev_bind\os/os.h **** /**
 331:..\..\..\..\cloud\alicloud\src\services\dev_bind\os/os.h ****  * @brief Wait until the specified mutex is in the signaled state or the time-out interval elapses.
 332:..\..\..\..\cloud\alicloud\src\services\dev_bind\os/os.h ****  *
 333:..\..\..\..\cloud\alicloud\src\services\dev_bind\os/os.h ****  * @param[in] sem @n the specified semaphore.
 334:..\..\..\..\cloud\alicloud\src\services\dev_bind\os/os.h ****  * @param[in] timeout_ms @n timeout interval in millisecond.
 335:..\..\..\..\cloud\alicloud\src\services\dev_bind\os/os.h ****      If timeout_ms is OS_WAIT_INFINITE, the function will return only when the semaphore is signale
 336:..\..\..\..\cloud\alicloud\src\services\dev_bind\os/os.h ****  * @return
 337:..\..\..\..\cloud\alicloud\src\services\dev_bind\os/os.h ****    @verbatim
 338:..\..\..\..\cloud\alicloud\src\services\dev_bind\os/os.h ****    =  0: The state of the specified object is signaled.
 339:..\..\..\..\cloud\alicloud\src\services\dev_bind\os/os.h ****    =  -1: The time-out interval elapsed, and the object's state is nonsignaled.
 340:..\..\..\..\cloud\alicloud\src\services\dev_bind\os/os.h ****    @endverbatim
 341:..\..\..\..\cloud\alicloud\src\services\dev_bind\os/os.h ****  * @see None.
 342:..\..\..\..\cloud\alicloud\src\services\dev_bind\os/os.h ****  * @note None.
 343:..\..\..\..\cloud\alicloud\src\services\dev_bind\os/os.h ****  */
 344:..\..\..\..\cloud\alicloud\src\services\dev_bind\os/os.h **** static inline int os_semaphore_wait(_IN_ void *sem, _IN_ uint32_t timeout_ms)
 345:..\..\..\..\cloud\alicloud\src\services\dev_bind\os/os.h **** {
 346:..\..\..\..\cloud\alicloud\src\services\dev_bind\os/os.h ****     return platform_semaphore_wait(sem, timeout_ms);
 347:..\..\..\..\cloud\alicloud\src\services\dev_bind\os/os.h **** }
 348:..\..\..\..\cloud\alicloud\src\services\dev_bind\os/os.h **** 
 349:..\..\..\..\cloud\alicloud\src\services\dev_bind\os/os.h **** /**
 350:..\..\..\..\cloud\alicloud\src\services\dev_bind\os/os.h ****  * @brief Increases the count of the specified semaphore object by 1.
 351:..\..\..\..\cloud\alicloud\src\services\dev_bind\os/os.h ****  *
 352:..\..\..\..\cloud\alicloud\src\services\dev_bind\os/os.h ****  * @param[in] sem @n the specified semaphore.
 353:..\..\..\..\cloud\alicloud\src\services\dev_bind\os/os.h ****  * @return None.
 354:..\..\..\..\cloud\alicloud\src\services\dev_bind\os/os.h ****  * @see None.
 355:..\..\..\..\cloud\alicloud\src\services\dev_bind\os/os.h ****  * @note None.
 356:..\..\..\..\cloud\alicloud\src\services\dev_bind\os/os.h ****  */
 357:..\..\..\..\cloud\alicloud\src\services\dev_bind\os/os.h **** static inline void os_semaphore_post(_IN_ void *sem)
 358:..\..\..\..\cloud\alicloud\src\services\dev_bind\os/os.h **** {
 359:..\..\..\..\cloud\alicloud\src\services\dev_bind\os/os.h ****     platform_semaphore_post(sem);
 360:..\..\..\..\cloud\alicloud\src\services\dev_bind\os/os.h **** }
 361:..\..\..\..\cloud\alicloud\src\services\dev_bind\os/os.h **** 
 362:..\..\..\..\cloud\alicloud\src\services\dev_bind\os/os.h **** /** @} */// end of os_semaphore
 363:..\..\..\..\cloud\alicloud\src\services\dev_bind\os/os.h **** 
 364:..\..\..\..\cloud\alicloud\src\services\dev_bind\os/os.h **** /**************************************** memory Interface ****************************************
 365:..\..\..\..\cloud\alicloud\src\services\dev_bind\os/os.h **** 
 366:..\..\..\..\cloud\alicloud\src\services\dev_bind\os/os.h **** /** @defgroup group_os_memory_manage memory
 367:..\..\..\..\cloud\alicloud\src\services\dev_bind\os/os.h ****  *  @{
 368:..\..\..\..\cloud\alicloud\src\services\dev_bind\os/os.h ****  */
 369:..\..\..\..\cloud\alicloud\src\services\dev_bind\os/os.h **** 
 370:..\..\..\..\cloud\alicloud\src\services\dev_bind\os/os.h **** /**
 371:..\..\..\..\cloud\alicloud\src\services\dev_bind\os/os.h ****  * @brief Allocates a block of size bytes of memory, returning a pointer to the beginning of the bl
 372:..\..\..\..\cloud\alicloud\src\services\dev_bind\os/os.h ****  *
 373:..\..\..\..\cloud\alicloud\src\services\dev_bind\os/os.h ****  * @param[in] size @n specify block size in bytes.
 374:..\..\..\..\cloud\alicloud\src\services\dev_bind\os/os.h ****  * @return A pointer to the beginning of the block.
 375:..\..\..\..\cloud\alicloud\src\services\dev_bind\os/os.h ****  * @see None.
 376:..\..\..\..\cloud\alicloud\src\services\dev_bind\os/os.h ****  * @note Block value is indeterminate.
 377:..\..\..\..\cloud\alicloud\src\services\dev_bind\os/os.h ****  */
 378:..\..\..\..\cloud\alicloud\src\services\dev_bind\os/os.h **** static inline void *os_malloc(_IN_ uint32_t size)
 379:..\..\..\..\cloud\alicloud\src\services\dev_bind\os/os.h **** {
 380:..\..\..\..\cloud\alicloud\src\services\dev_bind\os/os.h ****     return platform_malloc(size);
 241              		.loc 2 380 12
 242 0014 0569     		li	s2,4096
 243 0016 13050913 		addi	a0,s2,304
 244 001a 93840700 		addi	s1,a5,%lo(.LANCHOR2)
 245              	.LBE17:
 246              	.LBE16:
 247              	.LBE15:
 248              	.LBE14:
  83:C:/Users/stapi/OneDrive/Desktop/GD32VW553/V1_MQTT_OK/GD32VW55X_Wifi_BLE_SDK/GD32VW55x_RELEASE_V1.0.2/MSDK/cloud/alicloud/src/services/awss\awss_aplist.c ****     }
  84:C:/Users/stapi/OneDrive/Desktop/GD32VW553/V1_MQTT_OK/GD32VW55X_Wifi_BLE_SDK/GD32VW55x_RELEASE_V1.0.2/MSDK/cloud/alicloud/src/services/awss\awss_aplist.c ****     zconfig_aplist = (struct ap_info *)os_zalloc(sizeof(struct ap_info) * MAX_APLIST_NUM);
 249              		.loc 1 84 5 is_stmt 1
 250              	.LVL7:
 251              	.LBB21:
 252              	.LBB20:
 381:..\..\..\..\cloud\alicloud\src\services\dev_bind\os/os.h **** }
 382:..\..\..\..\cloud\alicloud\src\services\dev_bind\os/os.h **** 
 383:..\..\..\..\cloud\alicloud\src\services\dev_bind\os/os.h **** 
 384:..\..\..\..\cloud\alicloud\src\services\dev_bind\os/os.h **** /**
 385:..\..\..\..\cloud\alicloud\src\services\dev_bind\os/os.h ****  * @brief Deallocate memory block
 386:..\..\..\..\cloud\alicloud\src\services\dev_bind\os/os.h ****  *
 387:..\..\..\..\cloud\alicloud\src\services\dev_bind\os/os.h ****  * @param[in] ptr @n Pointer to a memory block previously allocated with platform_malloc.
 388:..\..\..\..\cloud\alicloud\src\services\dev_bind\os/os.h ****  * @return None.
 389:..\..\..\..\cloud\alicloud\src\services\dev_bind\os/os.h ****  * @see None.
 390:..\..\..\..\cloud\alicloud\src\services\dev_bind\os/os.h ****  * @note None.
 391:..\..\..\..\cloud\alicloud\src\services\dev_bind\os/os.h ****  */
 392:..\..\..\..\cloud\alicloud\src\services\dev_bind\os/os.h **** static inline void os_free(_IN_ void *ptr)
 393:..\..\..\..\cloud\alicloud\src\services\dev_bind\os/os.h **** {
 394:..\..\..\..\cloud\alicloud\src\services\dev_bind\os/os.h ****     platform_free(ptr);
 395:..\..\..\..\cloud\alicloud\src\services\dev_bind\os/os.h **** }
 396:..\..\..\..\cloud\alicloud\src\services\dev_bind\os/os.h **** 
 397:..\..\..\..\cloud\alicloud\src\services\dev_bind\os/os.h **** /**
 398:..\..\..\..\cloud\alicloud\src\services\dev_bind\os/os.h ****  * @brief Allocates a memory block with memory initialized to 0,
 399:..\..\..\..\cloud\alicloud\src\services\dev_bind\os/os.h ****      returning a pointer to the beginning of the block.
 400:..\..\..\..\cloud\alicloud\src\services\dev_bind\os/os.h ****  *
 401:..\..\..\..\cloud\alicloud\src\services\dev_bind\os/os.h ****  * @param[in] size @n specify block size in bytes.
 402:..\..\..\..\cloud\alicloud\src\services\dev_bind\os/os.h ****  * @return A pointer to the beginning of the block.
 403:..\..\..\..\cloud\alicloud\src\services\dev_bind\os/os.h ****  * @see None.
 404:..\..\..\..\cloud\alicloud\src\services\dev_bind\os/os.h ****  * @note Block value is indeterminate.
 405:..\..\..\..\cloud\alicloud\src\services\dev_bind\os/os.h ****  */
 406:..\..\..\..\cloud\alicloud\src\services\dev_bind\os/os.h **** static inline void *os_zalloc(uint32_t size)
 407:..\..\..\..\cloud\alicloud\src\services\dev_bind\os/os.h **** {
 408:..\..\..\..\cloud\alicloud\src\services\dev_bind\os/os.h ****     void *ptr = os_malloc(size);
 253              		.loc 2 408 5
 254              	.LBB19:
 255              	.LBB18:
 380:..\..\..\..\cloud\alicloud\src\services\dev_bind\os/os.h **** }
 256              		.loc 2 380 5
 380:..\..\..\..\cloud\alicloud\src\services\dev_bind\os/os.h **** }
 257              		.loc 2 380 12 is_stmt 0
 258 001e 97000000 		call	HAL_Malloc
 258      E7800000 
 259              	.LVL8:
 260 0026 2A84     		mv	s0,a0
 261              	.LVL9:
 262              	.LBE18:
 263              	.LBE19:
 409:..\..\..\..\cloud\alicloud\src\services\dev_bind\os/os.h ****     if (ptr != NULL) {
 264              		.loc 2 409 5 is_stmt 1
 265              		.loc 2 409 8 is_stmt 0
 266 0028 01C9     		beq	a0,zero,.L21
 410:..\..\..\..\cloud\alicloud\src\services\dev_bind\os/os.h ****         memset(ptr, 0, size);
 267              		.loc 2 410 9 is_stmt 1
 268 002a 13060913 		addi	a2,s2,304
 269 002e 8145     		li	a1,0
 270 0030 97000000 		call	memset
 270      E7800000 
 271              	.LVL10:
 272              	.L21:
 411:..\..\..\..\cloud\alicloud\src\services\dev_bind\os/os.h ****     }
 412:..\..\..\..\cloud\alicloud\src\services\dev_bind\os/os.h ****     return ptr;
 273              		.loc 2 412 5
 274              	.LBE20:
 275              	.LBE21:
 276              		.loc 1 84 20 is_stmt 0
 277 0038 80C0     		sw	s0,0(s1)
  85:C:/Users/stapi/OneDrive/Desktop/GD32VW553/V1_MQTT_OK/GD32VW55X_Wifi_BLE_SDK/GD32VW55x_RELEASE_V1.0.2/MSDK/cloud/alicloud/src/services/awss\awss_aplist.c ****     if (zconfig_aplist == NULL) {
 278              		.loc 1 85 5 is_stmt 1
 279              		.loc 1 85 8 is_stmt 0
 280 003a 0DE0     		bne	s0,zero,.L22
  86:C:/Users/stapi/OneDrive/Desktop/GD32VW553/V1_MQTT_OK/GD32VW55X_Wifi_BLE_SDK/GD32VW55x_RELEASE_V1.0.2/MSDK/cloud/alicloud/src/services/awss\awss_aplist.c ****         dump_awss_status(STATE_WIFI_STATISTIC, "aplist null when init");
 281              		.loc 1 86 9 is_stmt 1
 282 003c 37060000 		lui	a2,%hi(.LC2)
 283 0040 13060600 		addi	a2,a2,%lo(.LC2)
 284 0044 930520BF 		li	a1,-1038
 285 0048 6D45     		li	a0,27
 286 004a 97000000 		call	iotx_state_event
 286      E7800000 
 287              	.LVL11:
  87:C:/Users/stapi/OneDrive/Desktop/GD32VW553/V1_MQTT_OK/GD32VW55X_Wifi_BLE_SDK/GD32VW55x_RELEASE_V1.0.2/MSDK/cloud/alicloud/src/services/awss\awss_aplist.c ****         return -1;
 288              		.loc 1 87 9
 289              		.loc 1 87 16 is_stmt 0
 290 0052 7D55     		li	a0,-1
 291              	.L19:
  88:C:/Users/stapi/OneDrive/Desktop/GD32VW553/V1_MQTT_OK/GD32VW55X_Wifi_BLE_SDK/GD32VW55x_RELEASE_V1.0.2/MSDK/cloud/alicloud/src/services/awss\awss_aplist.c ****     }
  89:C:/Users/stapi/OneDrive/Desktop/GD32VW553/V1_MQTT_OK/GD32VW55X_Wifi_BLE_SDK/GD32VW55x_RELEASE_V1.0.2/MSDK/cloud/alicloud/src/services/awss\awss_aplist.c ****     zconfig_aplist_num = 0;
  90:C:/Users/stapi/OneDrive/Desktop/GD32VW553/V1_MQTT_OK/GD32VW55X_Wifi_BLE_SDK/GD32VW55x_RELEASE_V1.0.2/MSDK/cloud/alicloud/src/services/awss\awss_aplist.c ****     return 0;
  91:C:/Users/stapi/OneDrive/Desktop/GD32VW553/V1_MQTT_OK/GD32VW55X_Wifi_BLE_SDK/GD32VW55x_RELEASE_V1.0.2/MSDK/cloud/alicloud/src/services/awss\awss_aplist.c **** }
 292              		.loc 1 91 1
 293 0054 17030000 		tail	__riscv_restore_3
 293      67000300 
 294              		.cfi_remember_state
 295              		.cfi_restore 18
 296              		.cfi_restore 9
 297              		.cfi_restore 8
 298              		.cfi_restore 1
 299              		.cfi_def_cfa_offset 0
 300              	.L22:
 301              		.cfi_restore_state
  89:C:/Users/stapi/OneDrive/Desktop/GD32VW553/V1_MQTT_OK/GD32VW55X_Wifi_BLE_SDK/GD32VW55x_RELEASE_V1.0.2/MSDK/cloud/alicloud/src/services/awss\awss_aplist.c ****     return 0;
 302              		.loc 1 89 5 is_stmt 1
  89:C:/Users/stapi/OneDrive/Desktop/GD32VW553/V1_MQTT_OK/GD32VW55X_Wifi_BLE_SDK/GD32VW55x_RELEASE_V1.0.2/MSDK/cloud/alicloud/src/services/awss\awss_aplist.c ****     return 0;
 303              		.loc 1 89 24 is_stmt 0
 304 005c B7070000 		lui	a5,%hi(.LANCHOR3)
 305 0060 23800700 		sb	zero,%lo(.LANCHOR3)(a5)
  90:C:/Users/stapi/OneDrive/Desktop/GD32VW553/V1_MQTT_OK/GD32VW55X_Wifi_BLE_SDK/GD32VW55x_RELEASE_V1.0.2/MSDK/cloud/alicloud/src/services/awss\awss_aplist.c **** }
 306              		.loc 1 90 5 is_stmt 1
  90:C:/Users/stapi/OneDrive/Desktop/GD32VW553/V1_MQTT_OK/GD32VW55X_Wifi_BLE_SDK/GD32VW55x_RELEASE_V1.0.2/MSDK/cloud/alicloud/src/services/awss\awss_aplist.c **** }
 307              		.loc 1 90 12 is_stmt 0
 308 0064 0145     		li	a0,0
 309 0066 FDB7     		j	.L19
 310              	.LVL12:
 311              	.L28:
 312              		.cfi_def_cfa_offset 0
 313              		.cfi_restore 1
 314              		.cfi_restore 8
 315              		.cfi_restore 9
 316              		.cfi_restore 18
 317              		.loc 1 91 1
 318 0068 8280     		ret
 319              		.cfi_endproc
 320              	.LFE54:
 322              		.section	.text.awss_deinit_ieee80211_aplist,"ax",@progbits
 323              		.align	1
 324              		.globl	awss_deinit_ieee80211_aplist
 326              	awss_deinit_ieee80211_aplist:
 327              	.LFB55:
  92:C:/Users/stapi/OneDrive/Desktop/GD32VW553/V1_MQTT_OK/GD32VW55X_Wifi_BLE_SDK/GD32VW55x_RELEASE_V1.0.2/MSDK/cloud/alicloud/src/services/awss\awss_aplist.c **** 
  93:C:/Users/stapi/OneDrive/Desktop/GD32VW553/V1_MQTT_OK/GD32VW55X_Wifi_BLE_SDK/GD32VW55x_RELEASE_V1.0.2/MSDK/cloud/alicloud/src/services/awss\awss_aplist.c **** int awss_deinit_ieee80211_aplist(void)
  94:C:/Users/stapi/OneDrive/Desktop/GD32VW553/V1_MQTT_OK/GD32VW55X_Wifi_BLE_SDK/GD32VW55x_RELEASE_V1.0.2/MSDK/cloud/alicloud/src/services/awss\awss_aplist.c **** {
 328              		.loc 1 94 1 is_stmt 1
 329              		.cfi_startproc
 330 0000 17030000 		call	t0,__riscv_save_1
 330      E7020300 
 331              		.cfi_offset 8, -8
 332              		.cfi_offset 1, -4
 333              		.cfi_def_cfa_offset 16
  95:C:/Users/stapi/OneDrive/Desktop/GD32VW553/V1_MQTT_OK/GD32VW55X_Wifi_BLE_SDK/GD32VW55x_RELEASE_V1.0.2/MSDK/cloud/alicloud/src/services/awss\awss_aplist.c ****     if (zconfig_aplist == NULL) {
 334              		.loc 1 95 5
 335              		.loc 1 95 24 is_stmt 0
 336 0008 37040000 		lui	s0,%hi(.LANCHOR2)
 337 000c 13040400 		addi	s0,s0,%lo(.LANCHOR2)
 338 0010 0840     		lw	a0,0(s0)
 339              		.loc 1 95 8
 340 0012 19C9     		beq	a0,zero,.L32
  96:C:/Users/stapi/OneDrive/Desktop/GD32VW553/V1_MQTT_OK/GD32VW55X_Wifi_BLE_SDK/GD32VW55x_RELEASE_V1.0.2/MSDK/cloud/alicloud/src/services/awss\awss_aplist.c ****         return 0;
  97:C:/Users/stapi/OneDrive/Desktop/GD32VW553/V1_MQTT_OK/GD32VW55X_Wifi_BLE_SDK/GD32VW55x_RELEASE_V1.0.2/MSDK/cloud/alicloud/src/services/awss\awss_aplist.c ****     }
  98:C:/Users/stapi/OneDrive/Desktop/GD32VW553/V1_MQTT_OK/GD32VW55X_Wifi_BLE_SDK/GD32VW55x_RELEASE_V1.0.2/MSDK/cloud/alicloud/src/services/awss\awss_aplist.c ****     os_free(zconfig_aplist);
 341              		.loc 1 98 5 is_stmt 1
 342              	.LVL13:
 343              	.LBB22:
 344              	.LBB23:
 394:..\..\..\..\cloud\alicloud\src\services\dev_bind\os/os.h **** }
 345              		.loc 2 394 5
 346 0014 97000000 		call	HAL_Free
 346      E7800000 
 347              	.LVL14:
 348              	.LBE23:
 349              	.LBE22:
  99:C:/Users/stapi/OneDrive/Desktop/GD32VW553/V1_MQTT_OK/GD32VW55X_Wifi_BLE_SDK/GD32VW55x_RELEASE_V1.0.2/MSDK/cloud/alicloud/src/services/awss\awss_aplist.c ****     zconfig_aplist = NULL;
 350              		.loc 1 99 5
 100:C:/Users/stapi/OneDrive/Desktop/GD32VW553/V1_MQTT_OK/GD32VW55X_Wifi_BLE_SDK/GD32VW55x_RELEASE_V1.0.2/MSDK/cloud/alicloud/src/services/awss\awss_aplist.c ****     zconfig_aplist_num = 0;
 351              		.loc 1 100 24 is_stmt 0
 352 001c B7070000 		lui	a5,%hi(.LANCHOR3)
  99:C:/Users/stapi/OneDrive/Desktop/GD32VW553/V1_MQTT_OK/GD32VW55X_Wifi_BLE_SDK/GD32VW55x_RELEASE_V1.0.2/MSDK/cloud/alicloud/src/services/awss\awss_aplist.c ****     zconfig_aplist = NULL;
 353              		.loc 1 99 20
 354 0020 23200400 		sw	zero,0(s0)
 355              		.loc 1 100 5 is_stmt 1
 356              		.loc 1 100 24 is_stmt 0
 357 0024 23800700 		sb	zero,%lo(.LANCHOR3)(a5)
 101:C:/Users/stapi/OneDrive/Desktop/GD32VW553/V1_MQTT_OK/GD32VW55X_Wifi_BLE_SDK/GD32VW55x_RELEASE_V1.0.2/MSDK/cloud/alicloud/src/services/awss\awss_aplist.c ****     return 0;
 358              		.loc 1 101 5 is_stmt 1
 359              	.L32:
 102:C:/Users/stapi/OneDrive/Desktop/GD32VW553/V1_MQTT_OK/GD32VW55X_Wifi_BLE_SDK/GD32VW55x_RELEASE_V1.0.2/MSDK/cloud/alicloud/src/services/awss\awss_aplist.c **** }
 360              		.loc 1 102 1 is_stmt 0
 361 0028 0145     		li	a0,0
 362 002a 17030000 		tail	__riscv_restore_1
 362      67000300 
 363              		.cfi_restore 8
 364              		.cfi_restore 1
 365              		.cfi_def_cfa_offset 0
 366              		.cfi_endproc
 367              	.LFE55:
 369              		.section	.rodata.zconfig_get_apinfo.str1.4,"aMS",@progbits,1
 370              		.align	2
 371              	.LC3:
 372 0000 61706C69 		.string	"aplist null when get"
 372      7374206E 
 372      756C6C20 
 372      7768656E 
 372      20676574 
 373              		.section	.text.zconfig_get_apinfo,"ax",@progbits
 374              		.align	1
 375              		.globl	zconfig_get_apinfo
 377              	zconfig_get_apinfo:
 378              	.LFB56:
 103:C:/Users/stapi/OneDrive/Desktop/GD32VW553/V1_MQTT_OK/GD32VW55X_Wifi_BLE_SDK/GD32VW55x_RELEASE_V1.0.2/MSDK/cloud/alicloud/src/services/awss\awss_aplist.c **** 
 104:C:/Users/stapi/OneDrive/Desktop/GD32VW553/V1_MQTT_OK/GD32VW55X_Wifi_BLE_SDK/GD32VW55x_RELEASE_V1.0.2/MSDK/cloud/alicloud/src/services/awss\awss_aplist.c **** struct ap_info *zconfig_get_apinfo(uint8_t *mac)
 105:C:/Users/stapi/OneDrive/Desktop/GD32VW553/V1_MQTT_OK/GD32VW55X_Wifi_BLE_SDK/GD32VW55x_RELEASE_V1.0.2/MSDK/cloud/alicloud/src/services/awss\awss_aplist.c **** {
 379              		.loc 1 105 1 is_stmt 1
 380              		.cfi_startproc
 381              	.LVL15:
 382 0000 17030000 		call	t0,__riscv_save_5
 382      E7020300 
 383              		.cfi_offset 20, -24
 384              		.cfi_offset 19, -20
 385              		.cfi_offset 18, -16
 386              		.cfi_offset 9, -12
 387              		.cfi_offset 8, -8
 388              		.cfi_offset 1, -4
 389              		.cfi_def_cfa_offset 32
 106:C:/Users/stapi/OneDrive/Desktop/GD32VW553/V1_MQTT_OK/GD32VW55X_Wifi_BLE_SDK/GD32VW55x_RELEASE_V1.0.2/MSDK/cloud/alicloud/src/services/awss\awss_aplist.c ****     int i;
 390              		.loc 1 106 5
 107:C:/Users/stapi/OneDrive/Desktop/GD32VW553/V1_MQTT_OK/GD32VW55X_Wifi_BLE_SDK/GD32VW55x_RELEASE_V1.0.2/MSDK/cloud/alicloud/src/services/awss\awss_aplist.c ****     if (zconfig_aplist == NULL) {
 391              		.loc 1 107 5
 392              		.loc 1 107 24 is_stmt 0
 393 0008 B7070000 		lui	a5,%hi(.LANCHOR2)
 394 000c 03A40700 		lw	s0,%lo(.LANCHOR2)(a5)
 395              		.loc 1 107 8
 396 0010 09CC     		beq	s0,zero,.L38
 108:C:/Users/stapi/OneDrive/Desktop/GD32VW553/V1_MQTT_OK/GD32VW55X_Wifi_BLE_SDK/GD32VW55x_RELEASE_V1.0.2/MSDK/cloud/alicloud/src/services/awss\awss_aplist.c ****         dump_awss_status(STATE_WIFI_STATISTIC, "aplist null when get");
 109:C:/Users/stapi/OneDrive/Desktop/GD32VW553/V1_MQTT_OK/GD32VW55X_Wifi_BLE_SDK/GD32VW55x_RELEASE_V1.0.2/MSDK/cloud/alicloud/src/services/awss\awss_aplist.c ****         return NULL;
 110:C:/Users/stapi/OneDrive/Desktop/GD32VW553/V1_MQTT_OK/GD32VW55X_Wifi_BLE_SDK/GD32VW55x_RELEASE_V1.0.2/MSDK/cloud/alicloud/src/services/awss\awss_aplist.c ****     }
 111:C:/Users/stapi/OneDrive/Desktop/GD32VW553/V1_MQTT_OK/GD32VW55X_Wifi_BLE_SDK/GD32VW55x_RELEASE_V1.0.2/MSDK/cloud/alicloud/src/services/awss\awss_aplist.c **** 
 112:C:/Users/stapi/OneDrive/Desktop/GD32VW553/V1_MQTT_OK/GD32VW55X_Wifi_BLE_SDK/GD32VW55x_RELEASE_V1.0.2/MSDK/cloud/alicloud/src/services/awss\awss_aplist.c ****     for (i = 1; i < zconfig_aplist_num; i++) {
 397              		.loc 1 112 19
 398 0012 B7070000 		lui	a5,%hi(.LANCHOR3)
 399 0016 03CA0700 		lbu	s4,%lo(.LANCHOR3)(a5)
 400 001a AA89     		mv	s3,a0
 401 001c 9304C402 		addi	s1,s0,44
 402              		.loc 1 112 12
 403 0020 0549     		li	s2,1
 404              	.LVL16:
 405              	.L39:
 406              		.loc 1 112 17 is_stmt 1 discriminator 1
 407              		.loc 1 112 5 is_stmt 0 discriminator 1
 408 0022 63444903 		bgt	s4,s2,.L41
 113:C:/Users/stapi/OneDrive/Desktop/GD32VW553/V1_MQTT_OK/GD32VW55X_Wifi_BLE_SDK/GD32VW55x_RELEASE_V1.0.2/MSDK/cloud/alicloud/src/services/awss\awss_aplist.c ****         if (!memcmp(zconfig_aplist[i].mac, mac, ETH_ALEN)) {
 114:C:/Users/stapi/OneDrive/Desktop/GD32VW553/V1_MQTT_OK/GD32VW55X_Wifi_BLE_SDK/GD32VW55x_RELEASE_V1.0.2/MSDK/cloud/alicloud/src/services/awss\awss_aplist.c ****             return &zconfig_aplist[i];
 115:C:/Users/stapi/OneDrive/Desktop/GD32VW553/V1_MQTT_OK/GD32VW55X_Wifi_BLE_SDK/GD32VW55x_RELEASE_V1.0.2/MSDK/cloud/alicloud/src/services/awss\awss_aplist.c ****         }
 116:C:/Users/stapi/OneDrive/Desktop/GD32VW553/V1_MQTT_OK/GD32VW55X_Wifi_BLE_SDK/GD32VW55x_RELEASE_V1.0.2/MSDK/cloud/alicloud/src/services/awss\awss_aplist.c ****     }
 117:C:/Users/stapi/OneDrive/Desktop/GD32VW553/V1_MQTT_OK/GD32VW55X_Wifi_BLE_SDK/GD32VW55x_RELEASE_V1.0.2/MSDK/cloud/alicloud/src/services/awss\awss_aplist.c **** 
 118:C:/Users/stapi/OneDrive/Desktop/GD32VW553/V1_MQTT_OK/GD32VW55X_Wifi_BLE_SDK/GD32VW55x_RELEASE_V1.0.2/MSDK/cloud/alicloud/src/services/awss\awss_aplist.c ****     return NULL;
 409              		.loc 1 118 12
 410 0026 0144     		li	s0,0
 411 0028 21A8     		j	.L37
 412              	.LVL17:
 413              	.L38:
 414              	.LBB26:
 415              	.LBB27:
 108:C:/Users/stapi/OneDrive/Desktop/GD32VW553/V1_MQTT_OK/GD32VW55X_Wifi_BLE_SDK/GD32VW55x_RELEASE_V1.0.2/MSDK/cloud/alicloud/src/services/awss\awss_aplist.c ****         dump_awss_status(STATE_WIFI_STATISTIC, "aplist null when get");
 416              		.loc 1 108 9 is_stmt 1
 417 002a 37060000 		lui	a2,%hi(.LC3)
 418 002e 13060600 		addi	a2,a2,%lo(.LC3)
 419 0032 930520BF 		li	a1,-1038
 420 0036 6D45     		li	a0,27
 421              	.LVL18:
 422 0038 97000000 		call	iotx_state_event
 422      E7800000 
 423              	.LVL19:
 109:C:/Users/stapi/OneDrive/Desktop/GD32VW553/V1_MQTT_OK/GD32VW55X_Wifi_BLE_SDK/GD32VW55x_RELEASE_V1.0.2/MSDK/cloud/alicloud/src/services/awss\awss_aplist.c ****     }
 424              		.loc 1 109 9
 425              	.L37:
 426              	.LBE27:
 427              	.LBE26:
 119:C:/Users/stapi/OneDrive/Desktop/GD32VW553/V1_MQTT_OK/GD32VW55X_Wifi_BLE_SDK/GD32VW55x_RELEASE_V1.0.2/MSDK/cloud/alicloud/src/services/awss\awss_aplist.c **** }
 428              		.loc 1 119 1 is_stmt 0
 429 0040 2285     		mv	a0,s0
 430 0042 17030000 		tail	__riscv_restore_5
 430      67000300 
 431              		.cfi_remember_state
 432              		.cfi_restore 20
 433              		.cfi_restore 19
 434              		.cfi_restore 18
 435              		.cfi_restore 9
 436              		.cfi_restore 8
 437              		.cfi_restore 1
 438              		.cfi_def_cfa_offset 0
 439              	.LVL20:
 440              	.L41:
 441              		.cfi_restore_state
 113:C:/Users/stapi/OneDrive/Desktop/GD32VW553/V1_MQTT_OK/GD32VW55X_Wifi_BLE_SDK/GD32VW55x_RELEASE_V1.0.2/MSDK/cloud/alicloud/src/services/awss\awss_aplist.c ****         if (!memcmp(zconfig_aplist[i].mac, mac, ETH_ALEN)) {
 442              		.loc 1 113 9 is_stmt 1
 113:C:/Users/stapi/OneDrive/Desktop/GD32VW553/V1_MQTT_OK/GD32VW55X_Wifi_BLE_SDK/GD32VW55x_RELEASE_V1.0.2/MSDK/cloud/alicloud/src/services/awss\awss_aplist.c ****         if (!memcmp(zconfig_aplist[i].mac, mac, ETH_ALEN)) {
 443              		.loc 1 113 14 is_stmt 0
 444 004a 13854400 		addi	a0,s1,4
 445 004e 1946     		li	a2,6
 446 0050 CE85     		mv	a1,s3
 447 0052 97000000 		call	memcmp
 447      E7800000 
 448              	.LVL21:
 113:C:/Users/stapi/OneDrive/Desktop/GD32VW553/V1_MQTT_OK/GD32VW55X_Wifi_BLE_SDK/GD32VW55x_RELEASE_V1.0.2/MSDK/cloud/alicloud/src/services/awss\awss_aplist.c ****         if (!memcmp(zconfig_aplist[i].mac, mac, ETH_ALEN)) {
 449              		.loc 1 113 35
 450 005a 2684     		mv	s0,s1
 113:C:/Users/stapi/OneDrive/Desktop/GD32VW553/V1_MQTT_OK/GD32VW55X_Wifi_BLE_SDK/GD32VW55x_RELEASE_V1.0.2/MSDK/cloud/alicloud/src/services/awss\awss_aplist.c ****         if (!memcmp(zconfig_aplist[i].mac, mac, ETH_ALEN)) {
 451              		.loc 1 113 12
 452 005c 9384C402 		addi	s1,s1,44
 453 0060 65D1     		beq	a0,zero,.L37
 112:C:/Users/stapi/OneDrive/Desktop/GD32VW553/V1_MQTT_OK/GD32VW55X_Wifi_BLE_SDK/GD32VW55x_RELEASE_V1.0.2/MSDK/cloud/alicloud/src/services/awss\awss_aplist.c ****         if (!memcmp(zconfig_aplist[i].mac, mac, ETH_ALEN)) {
 454              		.loc 1 112 41 is_stmt 1 discriminator 2
 112:C:/Users/stapi/OneDrive/Desktop/GD32VW553/V1_MQTT_OK/GD32VW55X_Wifi_BLE_SDK/GD32VW55x_RELEASE_V1.0.2/MSDK/cloud/alicloud/src/services/awss\awss_aplist.c ****         if (!memcmp(zconfig_aplist[i].mac, mac, ETH_ALEN)) {
 455              		.loc 1 112 42 is_stmt 0 discriminator 2
 456 0062 0509     		addi	s2,s2,1
 457              	.LVL22:
 458 0064 7DBF     		j	.L39
 459              		.cfi_endproc
 460              	.LFE56:
 462              		.section	.rodata.zconfig_get_apinfo_by_3_byte_mac.str1.4,"aMS",@progbits,1
 463              		.align	2
 464              	.LC4:
 465 0000 61706C69 		.string	"aplist null when get 3B"
 465      7374206E 
 465      756C6C20 
 465      7768656E 
 465      20676574 
 466              		.section	.text.zconfig_get_apinfo_by_3_byte_mac,"ax",@progbits
 467              		.align	1
 468              		.globl	zconfig_get_apinfo_by_3_byte_mac
 470              	zconfig_get_apinfo_by_3_byte_mac:
 471              	.LFB57:
 120:C:/Users/stapi/OneDrive/Desktop/GD32VW553/V1_MQTT_OK/GD32VW55X_Wifi_BLE_SDK/GD32VW55x_RELEASE_V1.0.2/MSDK/cloud/alicloud/src/services/awss\awss_aplist.c **** 
 121:C:/Users/stapi/OneDrive/Desktop/GD32VW553/V1_MQTT_OK/GD32VW55X_Wifi_BLE_SDK/GD32VW55x_RELEASE_V1.0.2/MSDK/cloud/alicloud/src/services/awss\awss_aplist.c **** struct ap_info *zconfig_get_apinfo_by_3_byte_mac(uint8_t *last_3_Byte_mac)
 122:C:/Users/stapi/OneDrive/Desktop/GD32VW553/V1_MQTT_OK/GD32VW55X_Wifi_BLE_SDK/GD32VW55x_RELEASE_V1.0.2/MSDK/cloud/alicloud/src/services/awss\awss_aplist.c **** {
 472              		.loc 1 122 1 is_stmt 1
 473              		.cfi_startproc
 474              	.LVL23:
 475 0000 17030000 		call	t0,__riscv_save_5
 475      E7020300 
 476              		.cfi_offset 20, -24
 477              		.cfi_offset 19, -20
 478              		.cfi_offset 18, -16
 479              		.cfi_offset 9, -12
 480              		.cfi_offset 8, -8
 481              		.cfi_offset 1, -4
 482              		.cfi_def_cfa_offset 32
 123:C:/Users/stapi/OneDrive/Desktop/GD32VW553/V1_MQTT_OK/GD32VW55X_Wifi_BLE_SDK/GD32VW55x_RELEASE_V1.0.2/MSDK/cloud/alicloud/src/services/awss\awss_aplist.c ****     int i;
 483              		.loc 1 123 5
 124:C:/Users/stapi/OneDrive/Desktop/GD32VW553/V1_MQTT_OK/GD32VW55X_Wifi_BLE_SDK/GD32VW55x_RELEASE_V1.0.2/MSDK/cloud/alicloud/src/services/awss\awss_aplist.c ****     uint8_t *local_mac;
 484              		.loc 1 124 5
 125:C:/Users/stapi/OneDrive/Desktop/GD32VW553/V1_MQTT_OK/GD32VW55X_Wifi_BLE_SDK/GD32VW55x_RELEASE_V1.0.2/MSDK/cloud/alicloud/src/services/awss\awss_aplist.c ****     if (zconfig_aplist == NULL) {
 485              		.loc 1 125 5
 486              		.loc 1 125 24 is_stmt 0
 487 0008 B7070000 		lui	a5,%hi(.LANCHOR2)
 488 000c 03A40700 		lw	s0,%lo(.LANCHOR2)(a5)
 489              		.loc 1 125 8
 490 0010 09CC     		beq	s0,zero,.L47
 126:C:/Users/stapi/OneDrive/Desktop/GD32VW553/V1_MQTT_OK/GD32VW55X_Wifi_BLE_SDK/GD32VW55x_RELEASE_V1.0.2/MSDK/cloud/alicloud/src/services/awss\awss_aplist.c ****         dump_awss_status(STATE_WIFI_STATISTIC, "aplist null when get 3B");
 127:C:/Users/stapi/OneDrive/Desktop/GD32VW553/V1_MQTT_OK/GD32VW55X_Wifi_BLE_SDK/GD32VW55x_RELEASE_V1.0.2/MSDK/cloud/alicloud/src/services/awss\awss_aplist.c ****         return NULL;
 128:C:/Users/stapi/OneDrive/Desktop/GD32VW553/V1_MQTT_OK/GD32VW55X_Wifi_BLE_SDK/GD32VW55x_RELEASE_V1.0.2/MSDK/cloud/alicloud/src/services/awss\awss_aplist.c ****     }
 129:C:/Users/stapi/OneDrive/Desktop/GD32VW553/V1_MQTT_OK/GD32VW55X_Wifi_BLE_SDK/GD32VW55x_RELEASE_V1.0.2/MSDK/cloud/alicloud/src/services/awss\awss_aplist.c **** 
 130:C:/Users/stapi/OneDrive/Desktop/GD32VW553/V1_MQTT_OK/GD32VW55X_Wifi_BLE_SDK/GD32VW55x_RELEASE_V1.0.2/MSDK/cloud/alicloud/src/services/awss\awss_aplist.c ****     for (i = 1; i < zconfig_aplist_num; i++) {
 491              		.loc 1 130 19
 492 0012 B7070000 		lui	a5,%hi(.LANCHOR3)
 493 0016 03CA0700 		lbu	s4,%lo(.LANCHOR3)(a5)
 494 001a AA89     		mv	s3,a0
 495 001c 9304C402 		addi	s1,s0,44
 496              		.loc 1 130 12
 497 0020 0549     		li	s2,1
 498              	.LVL24:
 499              	.L48:
 500              		.loc 1 130 17 is_stmt 1 discriminator 1
 501              		.loc 1 130 5 is_stmt 0 discriminator 1
 502 0022 63444903 		bgt	s4,s2,.L50
 131:C:/Users/stapi/OneDrive/Desktop/GD32VW553/V1_MQTT_OK/GD32VW55X_Wifi_BLE_SDK/GD32VW55x_RELEASE_V1.0.2/MSDK/cloud/alicloud/src/services/awss\awss_aplist.c ****         local_mac = (uint8_t *)(zconfig_aplist[i].mac) + 3;
 132:C:/Users/stapi/OneDrive/Desktop/GD32VW553/V1_MQTT_OK/GD32VW55X_Wifi_BLE_SDK/GD32VW55x_RELEASE_V1.0.2/MSDK/cloud/alicloud/src/services/awss\awss_aplist.c ****         if (!memcmp(local_mac, last_3_Byte_mac, ETH_ALEN - 3)) {
 133:C:/Users/stapi/OneDrive/Desktop/GD32VW553/V1_MQTT_OK/GD32VW55X_Wifi_BLE_SDK/GD32VW55x_RELEASE_V1.0.2/MSDK/cloud/alicloud/src/services/awss\awss_aplist.c ****             return &zconfig_aplist[i];
 134:C:/Users/stapi/OneDrive/Desktop/GD32VW553/V1_MQTT_OK/GD32VW55X_Wifi_BLE_SDK/GD32VW55x_RELEASE_V1.0.2/MSDK/cloud/alicloud/src/services/awss\awss_aplist.c ****         }
 135:C:/Users/stapi/OneDrive/Desktop/GD32VW553/V1_MQTT_OK/GD32VW55X_Wifi_BLE_SDK/GD32VW55x_RELEASE_V1.0.2/MSDK/cloud/alicloud/src/services/awss\awss_aplist.c ****     }
 136:C:/Users/stapi/OneDrive/Desktop/GD32VW553/V1_MQTT_OK/GD32VW55X_Wifi_BLE_SDK/GD32VW55x_RELEASE_V1.0.2/MSDK/cloud/alicloud/src/services/awss\awss_aplist.c **** 
 137:C:/Users/stapi/OneDrive/Desktop/GD32VW553/V1_MQTT_OK/GD32VW55X_Wifi_BLE_SDK/GD32VW55x_RELEASE_V1.0.2/MSDK/cloud/alicloud/src/services/awss\awss_aplist.c ****     return NULL;
 503              		.loc 1 137 12
 504 0026 0144     		li	s0,0
 505 0028 21A8     		j	.L46
 506              	.LVL25:
 507              	.L47:
 126:C:/Users/stapi/OneDrive/Desktop/GD32VW553/V1_MQTT_OK/GD32VW55X_Wifi_BLE_SDK/GD32VW55x_RELEASE_V1.0.2/MSDK/cloud/alicloud/src/services/awss\awss_aplist.c ****         dump_awss_status(STATE_WIFI_STATISTIC, "aplist null when get 3B");
 508              		.loc 1 126 9 is_stmt 1
 509 002a 37060000 		lui	a2,%hi(.LC4)
 510 002e 13060600 		addi	a2,a2,%lo(.LC4)
 511 0032 930520BF 		li	a1,-1038
 512 0036 6D45     		li	a0,27
 513              	.LVL26:
 514 0038 97000000 		call	iotx_state_event
 514      E7800000 
 515              	.LVL27:
 127:C:/Users/stapi/OneDrive/Desktop/GD32VW553/V1_MQTT_OK/GD32VW55X_Wifi_BLE_SDK/GD32VW55x_RELEASE_V1.0.2/MSDK/cloud/alicloud/src/services/awss\awss_aplist.c ****     }
 516              		.loc 1 127 9
 517              	.L46:
 138:C:/Users/stapi/OneDrive/Desktop/GD32VW553/V1_MQTT_OK/GD32VW55X_Wifi_BLE_SDK/GD32VW55x_RELEASE_V1.0.2/MSDK/cloud/alicloud/src/services/awss\awss_aplist.c **** }
 518              		.loc 1 138 1 is_stmt 0
 519 0040 2285     		mv	a0,s0
 520 0042 17030000 		tail	__riscv_restore_5
 520      67000300 
 521              		.cfi_remember_state
 522              		.cfi_restore 20
 523              		.cfi_restore 19
 524              		.cfi_restore 18
 525              		.cfi_restore 9
 526              		.cfi_restore 8
 527              		.cfi_restore 1
 528              		.cfi_def_cfa_offset 0
 529              	.LVL28:
 530              	.L50:
 531              		.cfi_restore_state
 131:C:/Users/stapi/OneDrive/Desktop/GD32VW553/V1_MQTT_OK/GD32VW55X_Wifi_BLE_SDK/GD32VW55x_RELEASE_V1.0.2/MSDK/cloud/alicloud/src/services/awss\awss_aplist.c ****         local_mac = (uint8_t *)(zconfig_aplist[i].mac) + 3;
 532              		.loc 1 131 9 is_stmt 1
 132:C:/Users/stapi/OneDrive/Desktop/GD32VW553/V1_MQTT_OK/GD32VW55X_Wifi_BLE_SDK/GD32VW55x_RELEASE_V1.0.2/MSDK/cloud/alicloud/src/services/awss\awss_aplist.c ****             return &zconfig_aplist[i];
 533              		.loc 1 132 14 is_stmt 0
 534 004a 13857400 		addi	a0,s1,7
 535 004e 0D46     		li	a2,3
 536 0050 CE85     		mv	a1,s3
 537 0052 97000000 		call	memcmp
 537      E7800000 
 538              	.LVL29:
 131:C:/Users/stapi/OneDrive/Desktop/GD32VW553/V1_MQTT_OK/GD32VW55X_Wifi_BLE_SDK/GD32VW55x_RELEASE_V1.0.2/MSDK/cloud/alicloud/src/services/awss\awss_aplist.c ****         if (!memcmp(local_mac, last_3_Byte_mac, ETH_ALEN - 3)) {
 539              		.loc 1 131 47
 540 005a 2684     		mv	s0,s1
 541              	.LVL30:
 132:C:/Users/stapi/OneDrive/Desktop/GD32VW553/V1_MQTT_OK/GD32VW55X_Wifi_BLE_SDK/GD32VW55x_RELEASE_V1.0.2/MSDK/cloud/alicloud/src/services/awss\awss_aplist.c ****             return &zconfig_aplist[i];
 542              		.loc 1 132 9 is_stmt 1
 132:C:/Users/stapi/OneDrive/Desktop/GD32VW553/V1_MQTT_OK/GD32VW55X_Wifi_BLE_SDK/GD32VW55x_RELEASE_V1.0.2/MSDK/cloud/alicloud/src/services/awss\awss_aplist.c ****             return &zconfig_aplist[i];
 543              		.loc 1 132 12 is_stmt 0
 544 005c 9384C402 		addi	s1,s1,44
 545              	.LVL31:
 546 0060 65D1     		beq	a0,zero,.L46
 130:C:/Users/stapi/OneDrive/Desktop/GD32VW553/V1_MQTT_OK/GD32VW55X_Wifi_BLE_SDK/GD32VW55x_RELEASE_V1.0.2/MSDK/cloud/alicloud/src/services/awss\awss_aplist.c ****         local_mac = (uint8_t *)(zconfig_aplist[i].mac) + 3;
 547              		.loc 1 130 41 is_stmt 1 discriminator 2
 130:C:/Users/stapi/OneDrive/Desktop/GD32VW553/V1_MQTT_OK/GD32VW55X_Wifi_BLE_SDK/GD32VW55x_RELEASE_V1.0.2/MSDK/cloud/alicloud/src/services/awss\awss_aplist.c ****         local_mac = (uint8_t *)(zconfig_aplist[i].mac) + 3;
 548              		.loc 1 130 42 is_stmt 0 discriminator 2
 549 0062 0509     		addi	s2,s2,1
 550              	.LVL32:
 551 0064 7DBF     		j	.L48
 552              		.cfi_endproc
 553              	.LFE57:
 555              		.section	.rodata.zconfig_get_apinfo_by_ssid.str1.4,"aMS",@progbits,1
 556              		.align	2
 557              	.LC5:
 558 0000 61706C69 		.string	"aplist null to get by ssid"
 558      7374206E 
 558      756C6C20 
 558      746F2067 
 558      65742062 
 559              		.section	.text.zconfig_get_apinfo_by_ssid,"ax",@progbits
 560              		.align	1
 561              		.globl	zconfig_get_apinfo_by_ssid
 563              	zconfig_get_apinfo_by_ssid:
 564              	.LFB58:
 139:C:/Users/stapi/OneDrive/Desktop/GD32VW553/V1_MQTT_OK/GD32VW55X_Wifi_BLE_SDK/GD32VW55x_RELEASE_V1.0.2/MSDK/cloud/alicloud/src/services/awss\awss_aplist.c **** 
 140:C:/Users/stapi/OneDrive/Desktop/GD32VW553/V1_MQTT_OK/GD32VW55X_Wifi_BLE_SDK/GD32VW55x_RELEASE_V1.0.2/MSDK/cloud/alicloud/src/services/awss\awss_aplist.c **** struct ap_info *zconfig_get_apinfo_by_ssid(uint8_t *ssid)
 141:C:/Users/stapi/OneDrive/Desktop/GD32VW553/V1_MQTT_OK/GD32VW55X_Wifi_BLE_SDK/GD32VW55x_RELEASE_V1.0.2/MSDK/cloud/alicloud/src/services/awss\awss_aplist.c **** {
 565              		.loc 1 141 1 is_stmt 1
 566              		.cfi_startproc
 567              	.LVL33:
 568 0000 17030000 		call	t0,__riscv_save_5
 568      E7020300 
 569              		.cfi_offset 20, -24
 570              		.cfi_offset 19, -20
 571              		.cfi_offset 18, -16
 572              		.cfi_offset 9, -12
 573              		.cfi_offset 8, -8
 574              		.cfi_offset 1, -4
 575              		.cfi_def_cfa_offset 32
 142:C:/Users/stapi/OneDrive/Desktop/GD32VW553/V1_MQTT_OK/GD32VW55X_Wifi_BLE_SDK/GD32VW55x_RELEASE_V1.0.2/MSDK/cloud/alicloud/src/services/awss\awss_aplist.c ****     int i;
 576              		.loc 1 142 5
 143:C:/Users/stapi/OneDrive/Desktop/GD32VW553/V1_MQTT_OK/GD32VW55X_Wifi_BLE_SDK/GD32VW55x_RELEASE_V1.0.2/MSDK/cloud/alicloud/src/services/awss\awss_aplist.c ****     if (zconfig_aplist == NULL) {
 577              		.loc 1 143 5
 578              		.loc 1 143 24 is_stmt 0
 579 0008 B7070000 		lui	a5,%hi(.LANCHOR2)
 580 000c 03A40700 		lw	s0,%lo(.LANCHOR2)(a5)
 581              		.loc 1 143 8
 582 0010 09CC     		beq	s0,zero,.L56
 144:C:/Users/stapi/OneDrive/Desktop/GD32VW553/V1_MQTT_OK/GD32VW55X_Wifi_BLE_SDK/GD32VW55x_RELEASE_V1.0.2/MSDK/cloud/alicloud/src/services/awss\awss_aplist.c ****         dump_awss_status(STATE_WIFI_STATISTIC, "aplist null to get by ssid");
 145:C:/Users/stapi/OneDrive/Desktop/GD32VW553/V1_MQTT_OK/GD32VW55X_Wifi_BLE_SDK/GD32VW55x_RELEASE_V1.0.2/MSDK/cloud/alicloud/src/services/awss\awss_aplist.c ****         return NULL;
 146:C:/Users/stapi/OneDrive/Desktop/GD32VW553/V1_MQTT_OK/GD32VW55X_Wifi_BLE_SDK/GD32VW55x_RELEASE_V1.0.2/MSDK/cloud/alicloud/src/services/awss\awss_aplist.c ****     }
 147:C:/Users/stapi/OneDrive/Desktop/GD32VW553/V1_MQTT_OK/GD32VW55X_Wifi_BLE_SDK/GD32VW55x_RELEASE_V1.0.2/MSDK/cloud/alicloud/src/services/awss\awss_aplist.c **** 
 148:C:/Users/stapi/OneDrive/Desktop/GD32VW553/V1_MQTT_OK/GD32VW55X_Wifi_BLE_SDK/GD32VW55x_RELEASE_V1.0.2/MSDK/cloud/alicloud/src/services/awss\awss_aplist.c ****     for (i = 1; i < zconfig_aplist_num; i ++) {
 583              		.loc 1 148 19
 584 0012 B7070000 		lui	a5,%hi(.LANCHOR3)
 585 0016 03CA0700 		lbu	s4,%lo(.LANCHOR3)(a5)
 586 001a AA89     		mv	s3,a0
 587 001c 9304C402 		addi	s1,s0,44
 588              		.loc 1 148 12
 589 0020 0549     		li	s2,1
 590              	.LVL34:
 591              	.L57:
 592              		.loc 1 148 17 is_stmt 1 discriminator 1
 593              		.loc 1 148 5 is_stmt 0 discriminator 1
 594 0022 63444903 		bgt	s4,s2,.L59
 149:C:/Users/stapi/OneDrive/Desktop/GD32VW553/V1_MQTT_OK/GD32VW55X_Wifi_BLE_SDK/GD32VW55x_RELEASE_V1.0.2/MSDK/cloud/alicloud/src/services/awss\awss_aplist.c ****         if (!strcmp((char *)zconfig_aplist[i].ssid, (char *)ssid)) {
 150:C:/Users/stapi/OneDrive/Desktop/GD32VW553/V1_MQTT_OK/GD32VW55X_Wifi_BLE_SDK/GD32VW55x_RELEASE_V1.0.2/MSDK/cloud/alicloud/src/services/awss\awss_aplist.c ****             return &zconfig_aplist[i];
 151:C:/Users/stapi/OneDrive/Desktop/GD32VW553/V1_MQTT_OK/GD32VW55X_Wifi_BLE_SDK/GD32VW55x_RELEASE_V1.0.2/MSDK/cloud/alicloud/src/services/awss\awss_aplist.c ****         }
 152:C:/Users/stapi/OneDrive/Desktop/GD32VW553/V1_MQTT_OK/GD32VW55X_Wifi_BLE_SDK/GD32VW55x_RELEASE_V1.0.2/MSDK/cloud/alicloud/src/services/awss\awss_aplist.c ****     }
 153:C:/Users/stapi/OneDrive/Desktop/GD32VW553/V1_MQTT_OK/GD32VW55X_Wifi_BLE_SDK/GD32VW55x_RELEASE_V1.0.2/MSDK/cloud/alicloud/src/services/awss\awss_aplist.c **** 
 154:C:/Users/stapi/OneDrive/Desktop/GD32VW553/V1_MQTT_OK/GD32VW55X_Wifi_BLE_SDK/GD32VW55x_RELEASE_V1.0.2/MSDK/cloud/alicloud/src/services/awss\awss_aplist.c ****     return NULL;
 595              		.loc 1 154 12
 596 0026 0144     		li	s0,0
 597 0028 21A8     		j	.L55
 598              	.LVL35:
 599              	.L56:
 600              	.LBB30:
 601              	.LBB31:
 144:C:/Users/stapi/OneDrive/Desktop/GD32VW553/V1_MQTT_OK/GD32VW55X_Wifi_BLE_SDK/GD32VW55x_RELEASE_V1.0.2/MSDK/cloud/alicloud/src/services/awss\awss_aplist.c ****         dump_awss_status(STATE_WIFI_STATISTIC, "aplist null to get by ssid");
 602              		.loc 1 144 9 is_stmt 1
 603 002a 37060000 		lui	a2,%hi(.LC5)
 604 002e 13060600 		addi	a2,a2,%lo(.LC5)
 605 0032 930520BF 		li	a1,-1038
 606 0036 6D45     		li	a0,27
 607              	.LVL36:
 608 0038 97000000 		call	iotx_state_event
 608      E7800000 
 609              	.LVL37:
 145:C:/Users/stapi/OneDrive/Desktop/GD32VW553/V1_MQTT_OK/GD32VW55X_Wifi_BLE_SDK/GD32VW55x_RELEASE_V1.0.2/MSDK/cloud/alicloud/src/services/awss\awss_aplist.c ****     }
 610              		.loc 1 145 9
 611              	.L55:
 612              	.LBE31:
 613              	.LBE30:
 155:C:/Users/stapi/OneDrive/Desktop/GD32VW553/V1_MQTT_OK/GD32VW55X_Wifi_BLE_SDK/GD32VW55x_RELEASE_V1.0.2/MSDK/cloud/alicloud/src/services/awss\awss_aplist.c **** }
 614              		.loc 1 155 1 is_stmt 0
 615 0040 2285     		mv	a0,s0
 616 0042 17030000 		tail	__riscv_restore_5
 616      67000300 
 617              		.cfi_remember_state
 618              		.cfi_restore 20
 619              		.cfi_restore 19
 620              		.cfi_restore 18
 621              		.cfi_restore 9
 622              		.cfi_restore 8
 623              		.cfi_restore 1
 624              		.cfi_def_cfa_offset 0
 625              	.LVL38:
 626              	.L59:
 627              		.cfi_restore_state
 149:C:/Users/stapi/OneDrive/Desktop/GD32VW553/V1_MQTT_OK/GD32VW55X_Wifi_BLE_SDK/GD32VW55x_RELEASE_V1.0.2/MSDK/cloud/alicloud/src/services/awss\awss_aplist.c ****         if (!strcmp((char *)zconfig_aplist[i].ssid, (char *)ssid)) {
 628              		.loc 1 149 9 is_stmt 1
 149:C:/Users/stapi/OneDrive/Desktop/GD32VW553/V1_MQTT_OK/GD32VW55X_Wifi_BLE_SDK/GD32VW55x_RELEASE_V1.0.2/MSDK/cloud/alicloud/src/services/awss\awss_aplist.c ****         if (!strcmp((char *)zconfig_aplist[i].ssid, (char *)ssid)) {
 629              		.loc 1 149 14 is_stmt 0
 630 004a 1385A400 		addi	a0,s1,10
 631 004e CE85     		mv	a1,s3
 632 0050 97000000 		call	strcmp
 632      E7800000 
 633              	.LVL39:
 149:C:/Users/stapi/OneDrive/Desktop/GD32VW553/V1_MQTT_OK/GD32VW55X_Wifi_BLE_SDK/GD32VW55x_RELEASE_V1.0.2/MSDK/cloud/alicloud/src/services/awss\awss_aplist.c ****         if (!strcmp((char *)zconfig_aplist[i].ssid, (char *)ssid)) {
 634              		.loc 1 149 43
 635 0058 2684     		mv	s0,s1
 149:C:/Users/stapi/OneDrive/Desktop/GD32VW553/V1_MQTT_OK/GD32VW55X_Wifi_BLE_SDK/GD32VW55x_RELEASE_V1.0.2/MSDK/cloud/alicloud/src/services/awss\awss_aplist.c ****         if (!strcmp((char *)zconfig_aplist[i].ssid, (char *)ssid)) {
 636              		.loc 1 149 12
 637 005a 9384C402 		addi	s1,s1,44
 638 005e 6DD1     		beq	a0,zero,.L55
 148:C:/Users/stapi/OneDrive/Desktop/GD32VW553/V1_MQTT_OK/GD32VW55X_Wifi_BLE_SDK/GD32VW55x_RELEASE_V1.0.2/MSDK/cloud/alicloud/src/services/awss\awss_aplist.c ****         if (!strcmp((char *)zconfig_aplist[i].ssid, (char *)ssid)) {
 639              		.loc 1 148 41 is_stmt 1 discriminator 2
 148:C:/Users/stapi/OneDrive/Desktop/GD32VW553/V1_MQTT_OK/GD32VW55X_Wifi_BLE_SDK/GD32VW55x_RELEASE_V1.0.2/MSDK/cloud/alicloud/src/services/awss\awss_aplist.c ****         if (!strcmp((char *)zconfig_aplist[i].ssid, (char *)ssid)) {
 640              		.loc 1 148 43 is_stmt 0 discriminator 2
 641 0060 0509     		addi	s2,s2,1
 642              	.LVL40:
 643 0062 C1B7     		j	.L57
 644              		.cfi_endproc
 645              	.LFE58:
 647              		.section	.rodata.zconfig_get_apinfo_by_ssid_prefix.str1.4,"aMS",@progbits,1
 648              		.align	2
 649              	.LC6:
 650 0000 61706C69 		.string	"aplist null or ssid prefix null"
 650      7374206E 
 650      756C6C20 
 650      6F722073 
 650      73696420 
 651              		.section	.text.zconfig_get_apinfo_by_ssid_prefix,"ax",@progbits
 652              		.align	1
 653              		.globl	zconfig_get_apinfo_by_ssid_prefix
 655              	zconfig_get_apinfo_by_ssid_prefix:
 656              	.LFB59:
 156:C:/Users/stapi/OneDrive/Desktop/GD32VW553/V1_MQTT_OK/GD32VW55X_Wifi_BLE_SDK/GD32VW55x_RELEASE_V1.0.2/MSDK/cloud/alicloud/src/services/awss\awss_aplist.c **** 
 157:C:/Users/stapi/OneDrive/Desktop/GD32VW553/V1_MQTT_OK/GD32VW55X_Wifi_BLE_SDK/GD32VW55x_RELEASE_V1.0.2/MSDK/cloud/alicloud/src/services/awss\awss_aplist.c **** /* ssid */
 158:C:/Users/stapi/OneDrive/Desktop/GD32VW553/V1_MQTT_OK/GD32VW55X_Wifi_BLE_SDK/GD32VW55x_RELEASE_V1.0.2/MSDK/cloud/alicloud/src/services/awss\awss_aplist.c **** struct ap_info *zconfig_get_apinfo_by_ssid_prefix(uint8_t *ssid_prefix)
 159:C:/Users/stapi/OneDrive/Desktop/GD32VW553/V1_MQTT_OK/GD32VW55X_Wifi_BLE_SDK/GD32VW55x_RELEASE_V1.0.2/MSDK/cloud/alicloud/src/services/awss\awss_aplist.c **** {
 657              		.loc 1 159 1 is_stmt 1
 658              		.cfi_startproc
 659              	.LVL41:
 660 0000 17030000 		call	t0,__riscv_save_6
 660      E7020300 
 661              		.cfi_offset 21, -28
 662              		.cfi_offset 20, -24
 663              		.cfi_offset 19, -20
 664              		.cfi_offset 18, -16
 665              		.cfi_offset 9, -12
 666              		.cfi_offset 8, -8
 667              		.cfi_offset 1, -4
 668              		.cfi_def_cfa_offset 32
 160:C:/Users/stapi/OneDrive/Desktop/GD32VW553/V1_MQTT_OK/GD32VW55X_Wifi_BLE_SDK/GD32VW55x_RELEASE_V1.0.2/MSDK/cloud/alicloud/src/services/awss\awss_aplist.c ****     int i;
 669              		.loc 1 160 5
 161:C:/Users/stapi/OneDrive/Desktop/GD32VW553/V1_MQTT_OK/GD32VW55X_Wifi_BLE_SDK/GD32VW55x_RELEASE_V1.0.2/MSDK/cloud/alicloud/src/services/awss\awss_aplist.c ****     int len = strlen((const char *)ssid_prefix);
 670              		.loc 1 161 5
 159:C:/Users/stapi/OneDrive/Desktop/GD32VW553/V1_MQTT_OK/GD32VW55X_Wifi_BLE_SDK/GD32VW55x_RELEASE_V1.0.2/MSDK/cloud/alicloud/src/services/awss\awss_aplist.c ****     int i;
 671              		.loc 1 159 1 is_stmt 0
 672 0008 2A8A     		mv	s4,a0
 673              		.loc 1 161 15
 674 000a 97000000 		call	strlen
 674      E7800000 
 675              	.LVL42:
 162:C:/Users/stapi/OneDrive/Desktop/GD32VW553/V1_MQTT_OK/GD32VW55X_Wifi_BLE_SDK/GD32VW55x_RELEASE_V1.0.2/MSDK/cloud/alicloud/src/services/awss\awss_aplist.c ****     if (!len || (zconfig_aplist == NULL)) {
 676              		.loc 1 162 5 is_stmt 1
 677              		.loc 1 162 8 is_stmt 0
 678 0012 15CD     		beq	a0,zero,.L65
 679              		.loc 1 162 33 discriminator 1
 680 0014 B7070000 		lui	a5,%hi(.LANCHOR2)
 681 0018 03A40700 		lw	s0,%lo(.LANCHOR2)(a5)
 682              		.loc 1 162 14 discriminator 1
 683 001c 0DC8     		beq	s0,zero,.L65
 163:C:/Users/stapi/OneDrive/Desktop/GD32VW553/V1_MQTT_OK/GD32VW55X_Wifi_BLE_SDK/GD32VW55x_RELEASE_V1.0.2/MSDK/cloud/alicloud/src/services/awss\awss_aplist.c ****         dump_awss_status(STATE_WIFI_STATISTIC, "aplist null or ssid prefix null");
 164:C:/Users/stapi/OneDrive/Desktop/GD32VW553/V1_MQTT_OK/GD32VW55X_Wifi_BLE_SDK/GD32VW55x_RELEASE_V1.0.2/MSDK/cloud/alicloud/src/services/awss\awss_aplist.c ****         return NULL;
 165:C:/Users/stapi/OneDrive/Desktop/GD32VW553/V1_MQTT_OK/GD32VW55X_Wifi_BLE_SDK/GD32VW55x_RELEASE_V1.0.2/MSDK/cloud/alicloud/src/services/awss\awss_aplist.c ****     }
 166:C:/Users/stapi/OneDrive/Desktop/GD32VW553/V1_MQTT_OK/GD32VW55X_Wifi_BLE_SDK/GD32VW55x_RELEASE_V1.0.2/MSDK/cloud/alicloud/src/services/awss\awss_aplist.c **** 
 167:C:/Users/stapi/OneDrive/Desktop/GD32VW553/V1_MQTT_OK/GD32VW55X_Wifi_BLE_SDK/GD32VW55x_RELEASE_V1.0.2/MSDK/cloud/alicloud/src/services/awss\awss_aplist.c ****     for (i = 1; i < zconfig_aplist_num; i++) {
 684              		.loc 1 167 19
 685 001e B7070000 		lui	a5,%hi(.LANCHOR3)
 686 0022 83CA0700 		lbu	s5,%lo(.LANCHOR3)(a5)
 687 0026 AA84     		mv	s1,a0
 688 0028 1304C402 		addi	s0,s0,44
 689              		.loc 1 167 12
 690 002c 8549     		li	s3,1
 691              	.LVL43:
 692              	.L66:
 693              		.loc 1 167 17 is_stmt 1 discriminator 1
 694              		.loc 1 167 5 is_stmt 0 discriminator 1
 695 002e 63DB5903 		ble	s5,s3,.L79
 168:C:/Users/stapi/OneDrive/Desktop/GD32VW553/V1_MQTT_OK/GD32VW55X_Wifi_BLE_SDK/GD32VW55x_RELEASE_V1.0.2/MSDK/cloud/alicloud/src/services/awss\awss_aplist.c ****         if (!strncmp((char *)zconfig_aplist[i].ssid, (char *)ssid_prefix, len)) {
 696              		.loc 1 168 9 is_stmt 1
 697              		.loc 1 168 14 is_stmt 0
 698 0032 1305A400 		addi	a0,s0,10
 699 0036 2686     		mv	a2,s1
 700 0038 D285     		mv	a1,s4
 701 003a 97000000 		call	strncmp
 701      E7800000 
 702              	.LVL44:
 703              		.loc 1 168 44
 704 0042 2289     		mv	s2,s0
 705              		.loc 1 168 12
 706 0044 1304C402 		addi	s0,s0,44
 707 0048 19CD     		beq	a0,zero,.L64
 167:C:/Users/stapi/OneDrive/Desktop/GD32VW553/V1_MQTT_OK/GD32VW55X_Wifi_BLE_SDK/GD32VW55x_RELEASE_V1.0.2/MSDK/cloud/alicloud/src/services/awss\awss_aplist.c ****         if (!strncmp((char *)zconfig_aplist[i].ssid, (char *)ssid_prefix, len)) {
 708              		.loc 1 167 41 is_stmt 1 discriminator 2
 167:C:/Users/stapi/OneDrive/Desktop/GD32VW553/V1_MQTT_OK/GD32VW55X_Wifi_BLE_SDK/GD32VW55x_RELEASE_V1.0.2/MSDK/cloud/alicloud/src/services/awss\awss_aplist.c ****         if (!strncmp((char *)zconfig_aplist[i].ssid, (char *)ssid_prefix, len)) {
 709              		.loc 1 167 42 is_stmt 0 discriminator 2
 710 004a 8509     		addi	s3,s3,1
 711              	.LVL45:
 712 004c CDB7     		j	.L66
 713              	.LVL46:
 714              	.L65:
 163:C:/Users/stapi/OneDrive/Desktop/GD32VW553/V1_MQTT_OK/GD32VW55X_Wifi_BLE_SDK/GD32VW55x_RELEASE_V1.0.2/MSDK/cloud/alicloud/src/services/awss\awss_aplist.c ****         dump_awss_status(STATE_WIFI_STATISTIC, "aplist null or ssid prefix null");
 715              		.loc 1 163 9 is_stmt 1
 716 004e 37060000 		lui	a2,%hi(.LC6)
 717 0052 13060600 		addi	a2,a2,%lo(.LC6)
 718 0056 930520BF 		li	a1,-1038
 719 005a 6D45     		li	a0,27
 720              	.LVL47:
 721 005c 97000000 		call	iotx_state_event
 721      E7800000 
 722              	.LVL48:
 164:C:/Users/stapi/OneDrive/Desktop/GD32VW553/V1_MQTT_OK/GD32VW55X_Wifi_BLE_SDK/GD32VW55x_RELEASE_V1.0.2/MSDK/cloud/alicloud/src/services/awss\awss_aplist.c ****     }
 723              		.loc 1 164 9
 724              	.L79:
 169:C:/Users/stapi/OneDrive/Desktop/GD32VW553/V1_MQTT_OK/GD32VW55X_Wifi_BLE_SDK/GD32VW55x_RELEASE_V1.0.2/MSDK/cloud/alicloud/src/services/awss\awss_aplist.c ****             //TODO: first match or best match???
 170:C:/Users/stapi/OneDrive/Desktop/GD32VW553/V1_MQTT_OK/GD32VW55X_Wifi_BLE_SDK/GD32VW55x_RELEASE_V1.0.2/MSDK/cloud/alicloud/src/services/awss\awss_aplist.c ****             return &zconfig_aplist[i];//first match
 171:C:/Users/stapi/OneDrive/Desktop/GD32VW553/V1_MQTT_OK/GD32VW55X_Wifi_BLE_SDK/GD32VW55x_RELEASE_V1.0.2/MSDK/cloud/alicloud/src/services/awss\awss_aplist.c ****         }
 172:C:/Users/stapi/OneDrive/Desktop/GD32VW553/V1_MQTT_OK/GD32VW55X_Wifi_BLE_SDK/GD32VW55x_RELEASE_V1.0.2/MSDK/cloud/alicloud/src/services/awss\awss_aplist.c ****     }
 173:C:/Users/stapi/OneDrive/Desktop/GD32VW553/V1_MQTT_OK/GD32VW55X_Wifi_BLE_SDK/GD32VW55x_RELEASE_V1.0.2/MSDK/cloud/alicloud/src/services/awss\awss_aplist.c **** 
 174:C:/Users/stapi/OneDrive/Desktop/GD32VW553/V1_MQTT_OK/GD32VW55X_Wifi_BLE_SDK/GD32VW55x_RELEASE_V1.0.2/MSDK/cloud/alicloud/src/services/awss\awss_aplist.c ****     return NULL;
 725              		.loc 1 174 12 is_stmt 0
 726 0064 0149     		li	s2,0
 727              	.L64:
 175:C:/Users/stapi/OneDrive/Desktop/GD32VW553/V1_MQTT_OK/GD32VW55X_Wifi_BLE_SDK/GD32VW55x_RELEASE_V1.0.2/MSDK/cloud/alicloud/src/services/awss\awss_aplist.c **** }
 728              		.loc 1 175 1
 729 0066 4A85     		mv	a0,s2
 730 0068 17030000 		tail	__riscv_restore_6
 730      67000300 
 731              		.cfi_restore 21
 732              		.cfi_restore 20
 733              		.cfi_restore 19
 734              		.cfi_restore 18
 735              		.cfi_restore 9
 736              		.cfi_restore 8
 737              		.cfi_restore 1
 738              		.cfi_def_cfa_offset 0
 739              		.cfi_endproc
 740              	.LFE59:
 742              		.section	.text.str_end_with,"ax",@progbits
 743              		.align	1
 744              		.globl	str_end_with
 746              	str_end_with:
 747              	.LFB60:
 176:C:/Users/stapi/OneDrive/Desktop/GD32VW553/V1_MQTT_OK/GD32VW55X_Wifi_BLE_SDK/GD32VW55x_RELEASE_V1.0.2/MSDK/cloud/alicloud/src/services/awss\awss_aplist.c **** 
 177:C:/Users/stapi/OneDrive/Desktop/GD32VW553/V1_MQTT_OK/GD32VW55X_Wifi_BLE_SDK/GD32VW55x_RELEASE_V1.0.2/MSDK/cloud/alicloud/src/services/awss\awss_aplist.c **** int str_end_with(const char *str, const char *suffix)
 178:C:/Users/stapi/OneDrive/Desktop/GD32VW553/V1_MQTT_OK/GD32VW55X_Wifi_BLE_SDK/GD32VW55x_RELEASE_V1.0.2/MSDK/cloud/alicloud/src/services/awss\awss_aplist.c **** {
 748              		.loc 1 178 1 is_stmt 1
 749              		.cfi_startproc
 750              	.LVL49:
 179:C:/Users/stapi/OneDrive/Desktop/GD32VW553/V1_MQTT_OK/GD32VW55X_Wifi_BLE_SDK/GD32VW55x_RELEASE_V1.0.2/MSDK/cloud/alicloud/src/services/awss\awss_aplist.c ****     int lenstr, lensuffix;
 751              		.loc 1 179 5
 180:C:/Users/stapi/OneDrive/Desktop/GD32VW553/V1_MQTT_OK/GD32VW55X_Wifi_BLE_SDK/GD32VW55x_RELEASE_V1.0.2/MSDK/cloud/alicloud/src/services/awss\awss_aplist.c ****     if (!str || !suffix) {
 752              		.loc 1 180 5
 753              		.loc 1 180 8 is_stmt 0
 754 0000 31C5     		beq	a0,zero,.L82
 178:C:/Users/stapi/OneDrive/Desktop/GD32VW553/V1_MQTT_OK/GD32VW55X_Wifi_BLE_SDK/GD32VW55x_RELEASE_V1.0.2/MSDK/cloud/alicloud/src/services/awss\awss_aplist.c ****     int lenstr, lensuffix;
 755              		.loc 1 178 1 discriminator 1
 756 0002 17030000 		call	t0,__riscv_save_3
 756      E7020300 
 757              		.cfi_offset 18, -16
 758              		.cfi_offset 9, -12
 759              		.cfi_offset 8, -8
 760              		.cfi_offset 1, -4
 761              		.cfi_def_cfa_offset 16
 762 000a AE84     		mv	s1,a1
 181:C:/Users/stapi/OneDrive/Desktop/GD32VW553/V1_MQTT_OK/GD32VW55X_Wifi_BLE_SDK/GD32VW55x_RELEASE_V1.0.2/MSDK/cloud/alicloud/src/services/awss\awss_aplist.c ****         return 0;
 763              		.loc 1 181 16 discriminator 1
 764 000c 8147     		li	a5,0
 180:C:/Users/stapi/OneDrive/Desktop/GD32VW553/V1_MQTT_OK/GD32VW55X_Wifi_BLE_SDK/GD32VW55x_RELEASE_V1.0.2/MSDK/cloud/alicloud/src/services/awss\awss_aplist.c ****     if (!str || !suffix) {
 765              		.loc 1 180 14 discriminator 1
 766 000e 95C9     		beq	a1,zero,.L80
 767 0010 2A89     		mv	s2,a0
 768              	.LVL50:
 769              	.LBB34:
 770              	.LBB35:
 182:C:/Users/stapi/OneDrive/Desktop/GD32VW553/V1_MQTT_OK/GD32VW55X_Wifi_BLE_SDK/GD32VW55x_RELEASE_V1.0.2/MSDK/cloud/alicloud/src/services/awss\awss_aplist.c ****     }
 183:C:/Users/stapi/OneDrive/Desktop/GD32VW553/V1_MQTT_OK/GD32VW55X_Wifi_BLE_SDK/GD32VW55x_RELEASE_V1.0.2/MSDK/cloud/alicloud/src/services/awss\awss_aplist.c ****     lenstr = strlen(str);
 771              		.loc 1 183 5 is_stmt 1
 772              		.loc 1 183 14 is_stmt 0
 773 0012 97000000 		call	strlen
 773      E7800000 
 774              	.LVL51:
 775 001a 2A84     		mv	s0,a0
 776              	.LVL52:
 184:C:/Users/stapi/OneDrive/Desktop/GD32VW553/V1_MQTT_OK/GD32VW55X_Wifi_BLE_SDK/GD32VW55x_RELEASE_V1.0.2/MSDK/cloud/alicloud/src/services/awss\awss_aplist.c ****     lensuffix = strlen(suffix);
 777              		.loc 1 184 5 is_stmt 1
 778              		.loc 1 184 17 is_stmt 0
 779 001c 2685     		mv	a0,s1
 780 001e 97000000 		call	strlen
 780      E7800000 
 781              	.LVL53:
 782 0026 2A86     		mv	a2,a0
 783              	.LVL54:
 185:C:/Users/stapi/OneDrive/Desktop/GD32VW553/V1_MQTT_OK/GD32VW55X_Wifi_BLE_SDK/GD32VW55x_RELEASE_V1.0.2/MSDK/cloud/alicloud/src/services/awss\awss_aplist.c ****     if (lensuffix >  lenstr) {
 784              		.loc 1 185 5 is_stmt 1
 785              	.LBE35:
 786              	.LBE34:
 181:C:/Users/stapi/OneDrive/Desktop/GD32VW553/V1_MQTT_OK/GD32VW55X_Wifi_BLE_SDK/GD32VW55x_RELEASE_V1.0.2/MSDK/cloud/alicloud/src/services/awss\awss_aplist.c ****     }
 787              		.loc 1 181 16 is_stmt 0
 788 0028 8147     		li	a5,0
 789              	.LBB37:
 790              	.LBB36:
 791              		.loc 1 185 8
 792 002a 634CA400 		blt	s0,a0,.L80
 186:C:/Users/stapi/OneDrive/Desktop/GD32VW553/V1_MQTT_OK/GD32VW55X_Wifi_BLE_SDK/GD32VW55x_RELEASE_V1.0.2/MSDK/cloud/alicloud/src/services/awss\awss_aplist.c ****         return 0;
 187:C:/Users/stapi/OneDrive/Desktop/GD32VW553/V1_MQTT_OK/GD32VW55X_Wifi_BLE_SDK/GD32VW55x_RELEASE_V1.0.2/MSDK/cloud/alicloud/src/services/awss\awss_aplist.c ****     }
 188:C:/Users/stapi/OneDrive/Desktop/GD32VW553/V1_MQTT_OK/GD32VW55X_Wifi_BLE_SDK/GD32VW55x_RELEASE_V1.0.2/MSDK/cloud/alicloud/src/services/awss\awss_aplist.c ****     return strncmp(str + lenstr - lensuffix, suffix, lensuffix) == 0;
 793              		.loc 1 188 5 is_stmt 1
 794              		.loc 1 188 33 is_stmt 0
 795 002e 098C     		sub	s0,s0,a0
 796              	.LVL55:
 797              		.loc 1 188 12
 798 0030 A685     		mv	a1,s1
 799 0032 33058900 		add	a0,s2,s0
 800              	.LVL56:
 801 0036 97000000 		call	strncmp
 801      E7800000 
 802              	.LVL57:
 803              		.loc 1 188 65
 804 003e 93371500 		seqz	a5,a0
 805              	.LVL58:
 806              	.L80:
 807              	.LBE36:
 808              	.LBE37:
 189:C:/Users/stapi/OneDrive/Desktop/GD32VW553/V1_MQTT_OK/GD32VW55X_Wifi_BLE_SDK/GD32VW55x_RELEASE_V1.0.2/MSDK/cloud/alicloud/src/services/awss\awss_aplist.c **** }
 809              		.loc 1 189 1
 810 0042 3E85     		mv	a0,a5
 811 0044 17030000 		tail	__riscv_restore_3
 811      67000300 
 812              		.cfi_restore 18
 813              		.cfi_restore 9
 814              		.cfi_restore 8
 815              		.cfi_restore 1
 816              		.cfi_def_cfa_offset 0
 817              	.LVL59:
 818              	.L82:
 181:C:/Users/stapi/OneDrive/Desktop/GD32VW553/V1_MQTT_OK/GD32VW55X_Wifi_BLE_SDK/GD32VW55x_RELEASE_V1.0.2/MSDK/cloud/alicloud/src/services/awss\awss_aplist.c ****     }
 819              		.loc 1 181 16
 820 004c 8147     		li	a5,0
 821              		.loc 1 189 1
 822 004e 3E85     		mv	a0,a5
 823              	.LVL60:
 824 0050 8280     		ret
 825              		.cfi_endproc
 826              	.LFE60:
 828              		.section	.rodata.zconfig_get_apinfo_by_ssid_suffix.str1.4,"aMS",@progbits,1
 829              		.align	2
 830              	.LC7:
 831 0000 61706C69 		.string	"aplist null or ssid suffix null"
 831      7374206E 
 831      756C6C20 
 831      6F722073 
 831      73696420 
 832              		.section	.text.zconfig_get_apinfo_by_ssid_suffix,"ax",@progbits
 833              		.align	1
 834              		.globl	zconfig_get_apinfo_by_ssid_suffix
 836              	zconfig_get_apinfo_by_ssid_suffix:
 837              	.LFB61:
 190:C:/Users/stapi/OneDrive/Desktop/GD32VW553/V1_MQTT_OK/GD32VW55X_Wifi_BLE_SDK/GD32VW55x_RELEASE_V1.0.2/MSDK/cloud/alicloud/src/services/awss\awss_aplist.c **** 
 191:C:/Users/stapi/OneDrive/Desktop/GD32VW553/V1_MQTT_OK/GD32VW55X_Wifi_BLE_SDK/GD32VW55x_RELEASE_V1.0.2/MSDK/cloud/alicloud/src/services/awss\awss_aplist.c **** /* ssid */
 192:C:/Users/stapi/OneDrive/Desktop/GD32VW553/V1_MQTT_OK/GD32VW55X_Wifi_BLE_SDK/GD32VW55x_RELEASE_V1.0.2/MSDK/cloud/alicloud/src/services/awss\awss_aplist.c **** struct ap_info *zconfig_get_apinfo_by_ssid_suffix(uint8_t *ssid_suffix)
 193:C:/Users/stapi/OneDrive/Desktop/GD32VW553/V1_MQTT_OK/GD32VW55X_Wifi_BLE_SDK/GD32VW55x_RELEASE_V1.0.2/MSDK/cloud/alicloud/src/services/awss\awss_aplist.c **** {
 838              		.loc 1 193 1 is_stmt 1
 839              		.cfi_startproc
 840              	.LVL61:
 841 0000 17030000 		call	t0,__riscv_save_5
 841      E7020300 
 842              		.cfi_offset 20, -24
 843              		.cfi_offset 19, -20
 844              		.cfi_offset 18, -16
 845              		.cfi_offset 9, -12
 846              		.cfi_offset 8, -8
 847              		.cfi_offset 1, -4
 848              		.cfi_def_cfa_offset 32
 194:C:/Users/stapi/OneDrive/Desktop/GD32VW553/V1_MQTT_OK/GD32VW55X_Wifi_BLE_SDK/GD32VW55x_RELEASE_V1.0.2/MSDK/cloud/alicloud/src/services/awss\awss_aplist.c ****     int i;
 849              		.loc 1 194 5
 195:C:/Users/stapi/OneDrive/Desktop/GD32VW553/V1_MQTT_OK/GD32VW55X_Wifi_BLE_SDK/GD32VW55x_RELEASE_V1.0.2/MSDK/cloud/alicloud/src/services/awss\awss_aplist.c ****     int len = strlen((const char *)ssid_suffix);
 850              		.loc 1 195 5
 193:C:/Users/stapi/OneDrive/Desktop/GD32VW553/V1_MQTT_OK/GD32VW55X_Wifi_BLE_SDK/GD32VW55x_RELEASE_V1.0.2/MSDK/cloud/alicloud/src/services/awss\awss_aplist.c ****     int i;
 851              		.loc 1 193 1 is_stmt 0
 852 0008 AA89     		mv	s3,a0
 853              		.loc 1 195 15
 854 000a 97000000 		call	strlen
 854      E7800000 
 855              	.LVL62:
 196:C:/Users/stapi/OneDrive/Desktop/GD32VW553/V1_MQTT_OK/GD32VW55X_Wifi_BLE_SDK/GD32VW55x_RELEASE_V1.0.2/MSDK/cloud/alicloud/src/services/awss\awss_aplist.c ****     if (!len || (zconfig_aplist == NULL)) {
 856              		.loc 1 196 5 is_stmt 1
 857              		.loc 1 196 8 is_stmt 0
 858 0012 05CD     		beq	a0,zero,.L90
 859              		.loc 1 196 33 discriminator 1
 860 0014 B7070000 		lui	a5,%hi(.LANCHOR2)
 861 0018 03A40700 		lw	s0,%lo(.LANCHOR2)(a5)
 862              		.loc 1 196 14 discriminator 1
 863 001c 1DC4     		beq	s0,zero,.L90
 197:C:/Users/stapi/OneDrive/Desktop/GD32VW553/V1_MQTT_OK/GD32VW55X_Wifi_BLE_SDK/GD32VW55x_RELEASE_V1.0.2/MSDK/cloud/alicloud/src/services/awss\awss_aplist.c ****         dump_awss_status(STATE_WIFI_STATISTIC, "aplist null or ssid suffix null");
 198:C:/Users/stapi/OneDrive/Desktop/GD32VW553/V1_MQTT_OK/GD32VW55X_Wifi_BLE_SDK/GD32VW55x_RELEASE_V1.0.2/MSDK/cloud/alicloud/src/services/awss\awss_aplist.c ****         return NULL;
 199:C:/Users/stapi/OneDrive/Desktop/GD32VW553/V1_MQTT_OK/GD32VW55X_Wifi_BLE_SDK/GD32VW55x_RELEASE_V1.0.2/MSDK/cloud/alicloud/src/services/awss\awss_aplist.c ****     }
 200:C:/Users/stapi/OneDrive/Desktop/GD32VW553/V1_MQTT_OK/GD32VW55X_Wifi_BLE_SDK/GD32VW55x_RELEASE_V1.0.2/MSDK/cloud/alicloud/src/services/awss\awss_aplist.c **** 
 201:C:/Users/stapi/OneDrive/Desktop/GD32VW553/V1_MQTT_OK/GD32VW55X_Wifi_BLE_SDK/GD32VW55x_RELEASE_V1.0.2/MSDK/cloud/alicloud/src/services/awss\awss_aplist.c ****     for (i = 1; i < zconfig_aplist_num; i++) {
 864              		.loc 1 201 19
 865 001e B7070000 		lui	a5,%hi(.LANCHOR3)
 866 0022 03CA0700 		lbu	s4,%lo(.LANCHOR3)(a5)
 867 0026 1304C402 		addi	s0,s0,44
 868              		.loc 1 201 12
 869 002a 0549     		li	s2,1
 870              	.LVL63:
 871              	.L91:
 872              		.loc 1 201 17 is_stmt 1 discriminator 1
 873              		.loc 1 201 5 is_stmt 0 discriminator 1
 874 002c 635A4903 		ble	s4,s2,.L101
 202:C:/Users/stapi/OneDrive/Desktop/GD32VW553/V1_MQTT_OK/GD32VW55X_Wifi_BLE_SDK/GD32VW55x_RELEASE_V1.0.2/MSDK/cloud/alicloud/src/services/awss\awss_aplist.c ****         if (str_end_with((char *)zconfig_aplist[i].ssid, (char *)ssid_suffix)) {
 875              		.loc 1 202 9 is_stmt 1
 876              		.loc 1 202 13 is_stmt 0
 877 0030 1305A400 		addi	a0,s0,10
 878 0034 CE85     		mv	a1,s3
 879 0036 97000000 		call	str_end_with
 879      E7800000 
 880              	.LVL64:
 881              		.loc 1 202 48
 882 003e A284     		mv	s1,s0
 883              		.loc 1 202 12
 884 0040 1304C402 		addi	s0,s0,44
 885 0044 19ED     		bne	a0,zero,.L89
 201:C:/Users/stapi/OneDrive/Desktop/GD32VW553/V1_MQTT_OK/GD32VW55X_Wifi_BLE_SDK/GD32VW55x_RELEASE_V1.0.2/MSDK/cloud/alicloud/src/services/awss\awss_aplist.c ****         if (str_end_with((char *)zconfig_aplist[i].ssid, (char *)ssid_suffix)) {
 886              		.loc 1 201 41 is_stmt 1 discriminator 2
 201:C:/Users/stapi/OneDrive/Desktop/GD32VW553/V1_MQTT_OK/GD32VW55X_Wifi_BLE_SDK/GD32VW55x_RELEASE_V1.0.2/MSDK/cloud/alicloud/src/services/awss\awss_aplist.c ****         if (str_end_with((char *)zconfig_aplist[i].ssid, (char *)ssid_suffix)) {
 887              		.loc 1 201 42 is_stmt 0 discriminator 2
 888 0046 0509     		addi	s2,s2,1
 889              	.LVL65:
 890 0048 D5B7     		j	.L91
 891              	.LVL66:
 892              	.L90:
 197:C:/Users/stapi/OneDrive/Desktop/GD32VW553/V1_MQTT_OK/GD32VW55X_Wifi_BLE_SDK/GD32VW55x_RELEASE_V1.0.2/MSDK/cloud/alicloud/src/services/awss\awss_aplist.c ****         dump_awss_status(STATE_WIFI_STATISTIC, "aplist null or ssid suffix null");
 893              		.loc 1 197 9 is_stmt 1
 894 004a 37060000 		lui	a2,%hi(.LC7)
 895 004e 13060600 		addi	a2,a2,%lo(.LC7)
 896 0052 930520BF 		li	a1,-1038
 897 0056 6D45     		li	a0,27
 898              	.LVL67:
 899 0058 97000000 		call	iotx_state_event
 899      E7800000 
 900              	.LVL68:
 198:C:/Users/stapi/OneDrive/Desktop/GD32VW553/V1_MQTT_OK/GD32VW55X_Wifi_BLE_SDK/GD32VW55x_RELEASE_V1.0.2/MSDK/cloud/alicloud/src/services/awss\awss_aplist.c ****     }
 901              		.loc 1 198 9
 902              	.L101:
 203:C:/Users/stapi/OneDrive/Desktop/GD32VW553/V1_MQTT_OK/GD32VW55X_Wifi_BLE_SDK/GD32VW55x_RELEASE_V1.0.2/MSDK/cloud/alicloud/src/services/awss\awss_aplist.c ****             //TODO: first match or best match???
 204:C:/Users/stapi/OneDrive/Desktop/GD32VW553/V1_MQTT_OK/GD32VW55X_Wifi_BLE_SDK/GD32VW55x_RELEASE_V1.0.2/MSDK/cloud/alicloud/src/services/awss\awss_aplist.c ****             return &zconfig_aplist[i];//first match
 205:C:/Users/stapi/OneDrive/Desktop/GD32VW553/V1_MQTT_OK/GD32VW55X_Wifi_BLE_SDK/GD32VW55x_RELEASE_V1.0.2/MSDK/cloud/alicloud/src/services/awss\awss_aplist.c ****         }
 206:C:/Users/stapi/OneDrive/Desktop/GD32VW553/V1_MQTT_OK/GD32VW55X_Wifi_BLE_SDK/GD32VW55x_RELEASE_V1.0.2/MSDK/cloud/alicloud/src/services/awss\awss_aplist.c ****     }
 207:C:/Users/stapi/OneDrive/Desktop/GD32VW553/V1_MQTT_OK/GD32VW55X_Wifi_BLE_SDK/GD32VW55x_RELEASE_V1.0.2/MSDK/cloud/alicloud/src/services/awss\awss_aplist.c **** 
 208:C:/Users/stapi/OneDrive/Desktop/GD32VW553/V1_MQTT_OK/GD32VW55X_Wifi_BLE_SDK/GD32VW55x_RELEASE_V1.0.2/MSDK/cloud/alicloud/src/services/awss\awss_aplist.c ****     return NULL;
 903              		.loc 1 208 12 is_stmt 0
 904 0060 8144     		li	s1,0
 905              	.L89:
 209:C:/Users/stapi/OneDrive/Desktop/GD32VW553/V1_MQTT_OK/GD32VW55X_Wifi_BLE_SDK/GD32VW55x_RELEASE_V1.0.2/MSDK/cloud/alicloud/src/services/awss\awss_aplist.c **** }
 906              		.loc 1 209 1
 907 0062 2685     		mv	a0,s1
 908 0064 17030000 		tail	__riscv_restore_5
 908      67000300 
 909              		.cfi_restore 20
 910              		.cfi_restore 19
 911              		.cfi_restore 18
 912              		.cfi_restore 9
 913              		.cfi_restore 8
 914              		.cfi_restore 1
 915              		.cfi_def_cfa_offset 0
 916              		.cfi_endproc
 917              	.LFE61:
 919              		.section	.rodata.awss_save_apinfo.str1.4,"aMS",@progbits,1
 920              		.align	2
 921              	.LC8:
 922 0000 61706C69 		.string	"aplist null to save"
 922      7374206E 
 922      756C6C20 
 922      746F2073 
 922      61766500 
 923              		.align	2
 924              	.LC9:
 925 0014 5B25645D 		.string	"[%d] ssid:%s, mac:%02x%02x%02x%02x%02x%02x, chn:%d, rssi:%d, adha:%d"
 925      20737369 
 925      643A2573 
 925      2C206D61 
 925      633A2530 
 926              		.section	.text.awss_save_apinfo,"ax",@progbits
 927              		.align	1
 928              		.globl	awss_save_apinfo
 930              	awss_save_apinfo:
 931              	.LFB62:
 210:C:/Users/stapi/OneDrive/Desktop/GD32VW553/V1_MQTT_OK/GD32VW55X_Wifi_BLE_SDK/GD32VW55x_RELEASE_V1.0.2/MSDK/cloud/alicloud/src/services/awss\awss_aplist.c **** 
 211:C:/Users/stapi/OneDrive/Desktop/GD32VW553/V1_MQTT_OK/GD32VW55X_Wifi_BLE_SDK/GD32VW55x_RELEASE_V1.0.2/MSDK/cloud/alicloud/src/services/awss\awss_aplist.c **** /**
 212:C:/Users/stapi/OneDrive/Desktop/GD32VW553/V1_MQTT_OK/GD32VW55X_Wifi_BLE_SDK/GD32VW55x_RELEASE_V1.0.2/MSDK/cloud/alicloud/src/services/awss\awss_aplist.c ****  * save apinfo
 213:C:/Users/stapi/OneDrive/Desktop/GD32VW553/V1_MQTT_OK/GD32VW55X_Wifi_BLE_SDK/GD32VW55x_RELEASE_V1.0.2/MSDK/cloud/alicloud/src/services/awss\awss_aplist.c ****  *
 214:C:/Users/stapi/OneDrive/Desktop/GD32VW553/V1_MQTT_OK/GD32VW55X_Wifi_BLE_SDK/GD32VW55x_RELEASE_V1.0.2/MSDK/cloud/alicloud/src/services/awss\awss_aplist.c ****  * @ssid: [IN] ap ssid
 215:C:/Users/stapi/OneDrive/Desktop/GD32VW553/V1_MQTT_OK/GD32VW55X_Wifi_BLE_SDK/GD32VW55x_RELEASE_V1.0.2/MSDK/cloud/alicloud/src/services/awss\awss_aplist.c ****  * @bssid: [IN] ap bssid
 216:C:/Users/stapi/OneDrive/Desktop/GD32VW553/V1_MQTT_OK/GD32VW55X_Wifi_BLE_SDK/GD32VW55x_RELEASE_V1.0.2/MSDK/cloud/alicloud/src/services/awss\awss_aplist.c ****  * @channel: [IN] ap channel
 217:C:/Users/stapi/OneDrive/Desktop/GD32VW553/V1_MQTT_OK/GD32VW55X_Wifi_BLE_SDK/GD32VW55x_RELEASE_V1.0.2/MSDK/cloud/alicloud/src/services/awss\awss_aplist.c ****  * @auth: [IN] optional, ap auth mode, like OPEN/WEP/WPA/WPA2/WPAWPA2
 218:C:/Users/stapi/OneDrive/Desktop/GD32VW553/V1_MQTT_OK/GD32VW55X_Wifi_BLE_SDK/GD32VW55x_RELEASE_V1.0.2/MSDK/cloud/alicloud/src/services/awss\awss_aplist.c ****  * @encry: [IN], ap encryption mode, i.e. NONE/WEP/TKIP/AES/TKIP-AES
 219:C:/Users/stapi/OneDrive/Desktop/GD32VW553/V1_MQTT_OK/GD32VW55X_Wifi_BLE_SDK/GD32VW55x_RELEASE_V1.0.2/MSDK/cloud/alicloud/src/services/awss\awss_aplist.c ****  *
 220:C:/Users/stapi/OneDrive/Desktop/GD32VW553/V1_MQTT_OK/GD32VW55X_Wifi_BLE_SDK/GD32VW55x_RELEASE_V1.0.2/MSDK/cloud/alicloud/src/services/awss\awss_aplist.c ****  * Note:
 221:C:/Users/stapi/OneDrive/Desktop/GD32VW553/V1_MQTT_OK/GD32VW55X_Wifi_BLE_SDK/GD32VW55x_RELEASE_V1.0.2/MSDK/cloud/alicloud/src/services/awss\awss_aplist.c ****  *     1) if ap num exceed zconfig_aplist[], always save at [0]
 222:C:/Users/stapi/OneDrive/Desktop/GD32VW553/V1_MQTT_OK/GD32VW55X_Wifi_BLE_SDK/GD32VW55x_RELEASE_V1.0.2/MSDK/cloud/alicloud/src/services/awss\awss_aplist.c ****  *         but why...I forgot...
 223:C:/Users/stapi/OneDrive/Desktop/GD32VW553/V1_MQTT_OK/GD32VW55X_Wifi_BLE_SDK/GD32VW55x_RELEASE_V1.0.2/MSDK/cloud/alicloud/src/services/awss\awss_aplist.c ****  *     2) always update channel if channel != 0
 224:C:/Users/stapi/OneDrive/Desktop/GD32VW553/V1_MQTT_OK/GD32VW55X_Wifi_BLE_SDK/GD32VW55x_RELEASE_V1.0.2/MSDK/cloud/alicloud/src/services/awss\awss_aplist.c ****  *     3) if chn is locked, save ssid to zc_ssid, because zc_ssid
 225:C:/Users/stapi/OneDrive/Desktop/GD32VW553/V1_MQTT_OK/GD32VW55X_Wifi_BLE_SDK/GD32VW55x_RELEASE_V1.0.2/MSDK/cloud/alicloud/src/services/awss\awss_aplist.c ****  *         can be used for ssid-auto-completion
 226:C:/Users/stapi/OneDrive/Desktop/GD32VW553/V1_MQTT_OK/GD32VW55X_Wifi_BLE_SDK/GD32VW55x_RELEASE_V1.0.2/MSDK/cloud/alicloud/src/services/awss\awss_aplist.c ****  * Return:
 227:C:/Users/stapi/OneDrive/Desktop/GD32VW553/V1_MQTT_OK/GD32VW55X_Wifi_BLE_SDK/GD32VW55x_RELEASE_V1.0.2/MSDK/cloud/alicloud/src/services/awss\awss_aplist.c ****  *     0/success, -1/invalid params(empty ssid/bssid)
 228:C:/Users/stapi/OneDrive/Desktop/GD32VW553/V1_MQTT_OK/GD32VW55X_Wifi_BLE_SDK/GD32VW55x_RELEASE_V1.0.2/MSDK/cloud/alicloud/src/services/awss\awss_aplist.c ****  */
 229:C:/Users/stapi/OneDrive/Desktop/GD32VW553/V1_MQTT_OK/GD32VW55X_Wifi_BLE_SDK/GD32VW55x_RELEASE_V1.0.2/MSDK/cloud/alicloud/src/services/awss\awss_aplist.c **** 
 230:C:/Users/stapi/OneDrive/Desktop/GD32VW553/V1_MQTT_OK/GD32VW55X_Wifi_BLE_SDK/GD32VW55x_RELEASE_V1.0.2/MSDK/cloud/alicloud/src/services/awss\awss_aplist.c **** extern char zconfig_is_utf8(const char *ansi_str, int length);
 231:C:/Users/stapi/OneDrive/Desktop/GD32VW553/V1_MQTT_OK/GD32VW55X_Wifi_BLE_SDK/GD32VW55x_RELEASE_V1.0.2/MSDK/cloud/alicloud/src/services/awss\awss_aplist.c **** int awss_save_apinfo(uint8_t *ssid, uint8_t *bssid, uint8_t channel, uint8_t auth,
 232:C:/Users/stapi/OneDrive/Desktop/GD32VW553/V1_MQTT_OK/GD32VW55X_Wifi_BLE_SDK/GD32VW55x_RELEASE_V1.0.2/MSDK/cloud/alicloud/src/services/awss\awss_aplist.c ****                      uint8_t pairwise_cipher, uint8_t group_cipher, signed char rssi)
 233:C:/Users/stapi/OneDrive/Desktop/GD32VW553/V1_MQTT_OK/GD32VW55X_Wifi_BLE_SDK/GD32VW55x_RELEASE_V1.0.2/MSDK/cloud/alicloud/src/services/awss\awss_aplist.c **** {
 932              		.loc 1 233 1 is_stmt 1
 933              		.cfi_startproc
 934              	.LVL69:
 935 0000 17030000 		call	t0,__riscv_save_12
 935      E7020300 
 936              		.cfi_offset 27, -52
 937              		.cfi_offset 26, -48
 938              		.cfi_offset 25, -44
 939              		.cfi_offset 24, -40
 940              		.cfi_offset 23, -36
 941              		.cfi_offset 22, -32
 942              		.cfi_offset 21, -28
 943              		.cfi_offset 20, -24
 944              		.cfi_offset 19, -20
 945              		.cfi_offset 18, -16
 946              		.cfi_offset 9, -12
 947              		.cfi_offset 8, -8
 948              		.cfi_offset 1, -4
 949              		.cfi_def_cfa_offset 64
 234:C:/Users/stapi/OneDrive/Desktop/GD32VW553/V1_MQTT_OK/GD32VW55X_Wifi_BLE_SDK/GD32VW55x_RELEASE_V1.0.2/MSDK/cloud/alicloud/src/services/awss\awss_aplist.c ****     int i;
 950              		.loc 1 234 5
 235:C:/Users/stapi/OneDrive/Desktop/GD32VW553/V1_MQTT_OK/GD32VW55X_Wifi_BLE_SDK/GD32VW55x_RELEASE_V1.0.2/MSDK/cloud/alicloud/src/services/awss\awss_aplist.c **** 
 236:C:/Users/stapi/OneDrive/Desktop/GD32VW553/V1_MQTT_OK/GD32VW55X_Wifi_BLE_SDK/GD32VW55x_RELEASE_V1.0.2/MSDK/cloud/alicloud/src/services/awss\awss_aplist.c ****     /* ssid, bssid cannot empty, channel can be 0, auth/encry can be invalid */
 237:C:/Users/stapi/OneDrive/Desktop/GD32VW553/V1_MQTT_OK/GD32VW55X_Wifi_BLE_SDK/GD32VW55x_RELEASE_V1.0.2/MSDK/cloud/alicloud/src/services/awss\awss_aplist.c ****     if (!(ssid && bssid)) {
 951              		.loc 1 237 5
 233:C:/Users/stapi/OneDrive/Desktop/GD32VW553/V1_MQTT_OK/GD32VW55X_Wifi_BLE_SDK/GD32VW55x_RELEASE_V1.0.2/MSDK/cloud/alicloud/src/services/awss\awss_aplist.c ****     int i;
 952              		.loc 1 233 1 is_stmt 0
 953 0008 0111     		addi	sp,sp,-32
 954              		.cfi_def_cfa_offset 96
 955              		.loc 1 237 8
 956 000a 25C9     		beq	a0,zero,.L121
 957 000c AE84     		mv	s1,a1
 238:C:/Users/stapi/OneDrive/Desktop/GD32VW553/V1_MQTT_OK/GD32VW55X_Wifi_BLE_SDK/GD32VW55x_RELEASE_V1.0.2/MSDK/cloud/alicloud/src/services/awss\awss_aplist.c ****         return -1;
 958              		.loc 1 238 16 discriminator 1
 959 000e 7D54     		li	s0,-1
 237:C:/Users/stapi/OneDrive/Desktop/GD32VW553/V1_MQTT_OK/GD32VW55X_Wifi_BLE_SDK/GD32VW55x_RELEASE_V1.0.2/MSDK/cloud/alicloud/src/services/awss\awss_aplist.c ****         return -1;
 960              		.loc 1 237 9 discriminator 1
 961 0010 6387051C 		beq	a1,zero,.L102
 962 0014 BE8A     		mv	s5,a5
 239:C:/Users/stapi/OneDrive/Desktop/GD32VW553/V1_MQTT_OK/GD32VW55X_Wifi_BLE_SDK/GD32VW55x_RELEASE_V1.0.2/MSDK/cloud/alicloud/src/services/awss\awss_aplist.c ****     }
 240:C:/Users/stapi/OneDrive/Desktop/GD32VW553/V1_MQTT_OK/GD32VW55X_Wifi_BLE_SDK/GD32VW55x_RELEASE_V1.0.2/MSDK/cloud/alicloud/src/services/awss\awss_aplist.c **** 
 241:C:/Users/stapi/OneDrive/Desktop/GD32VW553/V1_MQTT_OK/GD32VW55X_Wifi_BLE_SDK/GD32VW55x_RELEASE_V1.0.2/MSDK/cloud/alicloud/src/services/awss\awss_aplist.c ****     /* sanity check */
 242:C:/Users/stapi/OneDrive/Desktop/GD32VW553/V1_MQTT_OK/GD32VW55X_Wifi_BLE_SDK/GD32VW55x_RELEASE_V1.0.2/MSDK/cloud/alicloud/src/services/awss\awss_aplist.c ****     if (channel > ZC_MAX_CHANNEL || channel < ZC_MIN_CHANNEL) {
 963              		.loc 1 242 34
 964 0016 9307F6FF 		addi	a5,a2,-1
 965              	.LVL70:
 966 001a 3A8C     		mv	s8,a4
 967              		.loc 1 242 8
 968 001c 93F7F70F 		andi	a5,a5,0xff
 969 0020 3547     		li	a4,13
 970              	.LVL71:
 971 0022 2A8B     		mv	s6,a0
 972 0024 B28B     		mv	s7,a2
 973 0026 B68C     		mv	s9,a3
 974 0028 428A     		mv	s4,a6
 975              		.loc 1 242 5 is_stmt 1
 976              		.loc 1 242 8 is_stmt 0
 977 002a 636AF704 		bgtu	a5,a4,.L123
 243:C:/Users/stapi/OneDrive/Desktop/GD32VW553/V1_MQTT_OK/GD32VW55X_Wifi_BLE_SDK/GD32VW55x_RELEASE_V1.0.2/MSDK/cloud/alicloud/src/services/awss\awss_aplist.c ****         channel = 0;
 244:C:/Users/stapi/OneDrive/Desktop/GD32VW553/V1_MQTT_OK/GD32VW55X_Wifi_BLE_SDK/GD32VW55x_RELEASE_V1.0.2/MSDK/cloud/alicloud/src/services/awss\awss_aplist.c ****     } else {
 245:C:/Users/stapi/OneDrive/Desktop/GD32VW553/V1_MQTT_OK/GD32VW55X_Wifi_BLE_SDK/GD32VW55x_RELEASE_V1.0.2/MSDK/cloud/alicloud/src/services/awss\awss_aplist.c ****         zconfig_add_active_channel(channel);
 978              		.loc 1 245 9 is_stmt 1
 979 002e 3285     		mv	a0,a2
 980              	.LVL72:
 981 0030 97000000 		call	zconfig_add_active_channel
 981      E7800000 
 982              	.LVL73:
 983              	.L104:
 246:C:/Users/stapi/OneDrive/Desktop/GD32VW553/V1_MQTT_OK/GD32VW55X_Wifi_BLE_SDK/GD32VW55x_RELEASE_V1.0.2/MSDK/cloud/alicloud/src/services/awss\awss_aplist.c ****     }
 247:C:/Users/stapi/OneDrive/Desktop/GD32VW553/V1_MQTT_OK/GD32VW55X_Wifi_BLE_SDK/GD32VW55x_RELEASE_V1.0.2/MSDK/cloud/alicloud/src/services/awss\awss_aplist.c **** 
 248:C:/Users/stapi/OneDrive/Desktop/GD32VW553/V1_MQTT_OK/GD32VW55X_Wifi_BLE_SDK/GD32VW55x_RELEASE_V1.0.2/MSDK/cloud/alicloud/src/services/awss\awss_aplist.c ****     if (auth > ZC_AUTH_TYPE_MAX) {
 984              		.loc 1 248 5
 985              		.loc 1 248 8 is_stmt 0
 986 0038 9947     		li	a5,6
 987 003a 63F49701 		bleu	s9,a5,.L105
 249:C:/Users/stapi/OneDrive/Desktop/GD32VW553/V1_MQTT_OK/GD32VW55X_Wifi_BLE_SDK/GD32VW55x_RELEASE_V1.0.2/MSDK/cloud/alicloud/src/services/awss\awss_aplist.c ****         auth = ZC_AUTH_TYPE_INVALID;
 988              		.loc 1 249 14
 989 003e 930CF00F 		li	s9,255
 990              	.L105:
 991              	.LVL74:
 250:C:/Users/stapi/OneDrive/Desktop/GD32VW553/V1_MQTT_OK/GD32VW55X_Wifi_BLE_SDK/GD32VW55x_RELEASE_V1.0.2/MSDK/cloud/alicloud/src/services/awss\awss_aplist.c ****     }
 251:C:/Users/stapi/OneDrive/Desktop/GD32VW553/V1_MQTT_OK/GD32VW55X_Wifi_BLE_SDK/GD32VW55x_RELEASE_V1.0.2/MSDK/cloud/alicloud/src/services/awss\awss_aplist.c **** 
 252:C:/Users/stapi/OneDrive/Desktop/GD32VW553/V1_MQTT_OK/GD32VW55X_Wifi_BLE_SDK/GD32VW55x_RELEASE_V1.0.2/MSDK/cloud/alicloud/src/services/awss\awss_aplist.c ****     if (pairwise_cipher > ZC_ENC_TYPE_MAX) {
 992              		.loc 1 252 5 is_stmt 1
 993              		.loc 1 252 8 is_stmt 0
 994 0042 9147     		li	a5,4
 995 0044 63EC871B 		bgtu	s8,a5,.L106
 996              	.LVL75:
 253:C:/Users/stapi/OneDrive/Desktop/GD32VW553/V1_MQTT_OK/GD32VW55X_Wifi_BLE_SDK/GD32VW55x_RELEASE_V1.0.2/MSDK/cloud/alicloud/src/services/awss\awss_aplist.c ****         pairwise_cipher = ZC_ENC_TYPE_INVALID;
 254:C:/Users/stapi/OneDrive/Desktop/GD32VW553/V1_MQTT_OK/GD32VW55X_Wifi_BLE_SDK/GD32VW55x_RELEASE_V1.0.2/MSDK/cloud/alicloud/src/services/awss\awss_aplist.c ****     }
 255:C:/Users/stapi/OneDrive/Desktop/GD32VW553/V1_MQTT_OK/GD32VW55X_Wifi_BLE_SDK/GD32VW55x_RELEASE_V1.0.2/MSDK/cloud/alicloud/src/services/awss\awss_aplist.c ****     if (group_cipher > ZC_ENC_TYPE_MAX) {
 997              		.loc 1 255 5 is_stmt 1
 998              		.loc 1 255 8 is_stmt 0
 999 0048 63F45701 		bleu	s5,a5,.L107
 256:C:/Users/stapi/OneDrive/Desktop/GD32VW553/V1_MQTT_OK/GD32VW55X_Wifi_BLE_SDK/GD32VW55x_RELEASE_V1.0.2/MSDK/cloud/alicloud/src/services/awss\awss_aplist.c ****         group_cipher = ZC_ENC_TYPE_INVALID;
 1000              		.loc 1 256 22
 1001 004c 930AF00F 		li	s5,255
 1002              	.L107:
 1003              	.LVL76:
 257:C:/Users/stapi/OneDrive/Desktop/GD32VW553/V1_MQTT_OK/GD32VW55X_Wifi_BLE_SDK/GD32VW55x_RELEASE_V1.0.2/MSDK/cloud/alicloud/src/services/awss\awss_aplist.c ****     }
 258:C:/Users/stapi/OneDrive/Desktop/GD32VW553/V1_MQTT_OK/GD32VW55X_Wifi_BLE_SDK/GD32VW55x_RELEASE_V1.0.2/MSDK/cloud/alicloud/src/services/awss\awss_aplist.c **** 
 259:C:/Users/stapi/OneDrive/Desktop/GD32VW553/V1_MQTT_OK/GD32VW55X_Wifi_BLE_SDK/GD32VW55x_RELEASE_V1.0.2/MSDK/cloud/alicloud/src/services/awss\awss_aplist.c ****     //FIXME:
 260:C:/Users/stapi/OneDrive/Desktop/GD32VW553/V1_MQTT_OK/GD32VW55X_Wifi_BLE_SDK/GD32VW55x_RELEASE_V1.0.2/MSDK/cloud/alicloud/src/services/awss\awss_aplist.c ****     if (pairwise_cipher == ZC_ENC_TYPE_TKIPAES) {
 1004              		.loc 1 260 5 is_stmt 1
 1005              		.loc 1 260 8 is_stmt 0
 1006 0050 9147     		li	a5,4
 1007 0052 6313FC00 		bne	s8,a5,.L108
 261:C:/Users/stapi/OneDrive/Desktop/GD32VW553/V1_MQTT_OK/GD32VW55X_Wifi_BLE_SDK/GD32VW55x_RELEASE_V1.0.2/MSDK/cloud/alicloud/src/services/awss\awss_aplist.c ****         pairwise_cipher = ZC_ENC_TYPE_AES;    //tods
 1008              		.loc 1 261 25
 1009 0056 0D4C     		li	s8,3
 1010              	.LVL77:
 1011              	.L108:
 262:C:/Users/stapi/OneDrive/Desktop/GD32VW553/V1_MQTT_OK/GD32VW55X_Wifi_BLE_SDK/GD32VW55x_RELEASE_V1.0.2/MSDK/cloud/alicloud/src/services/awss\awss_aplist.c ****     }
 263:C:/Users/stapi/OneDrive/Desktop/GD32VW553/V1_MQTT_OK/GD32VW55X_Wifi_BLE_SDK/GD32VW55x_RELEASE_V1.0.2/MSDK/cloud/alicloud/src/services/awss\awss_aplist.c **** 
 264:C:/Users/stapi/OneDrive/Desktop/GD32VW553/V1_MQTT_OK/GD32VW55X_Wifi_BLE_SDK/GD32VW55x_RELEASE_V1.0.2/MSDK/cloud/alicloud/src/services/awss\awss_aplist.c ****     if (zconfig_aplist == NULL) {
 1012              		.loc 1 264 5 is_stmt 1
 1013              		.loc 1 264 24 is_stmt 0
 1014 0058 B7070000 		lui	a5,%hi(.LANCHOR2)
 1015 005c 83A90700 		lw	s3,%lo(.LANCHOR2)(a5)
 1016              		.loc 1 264 8
 1017 0060 63910902 		bne	s3,zero,.L109
 265:C:/Users/stapi/OneDrive/Desktop/GD32VW553/V1_MQTT_OK/GD32VW55X_Wifi_BLE_SDK/GD32VW55x_RELEASE_V1.0.2/MSDK/cloud/alicloud/src/services/awss\awss_aplist.c ****         dump_awss_status(STATE_WIFI_STATISTIC, "aplist null to save");
 1018              		.loc 1 265 9 is_stmt 1
 1019 0064 37060000 		lui	a2,%hi(.LC8)
 1020 0068 13060600 		addi	a2,a2,%lo(.LC8)
 1021 006c 930520BF 		li	a1,-1038
 1022 0070 6D45     		li	a0,27
 1023 0072 97000000 		call	iotx_state_event
 1023      E7800000 
 1024              	.LVL78:
 266:C:/Users/stapi/OneDrive/Desktop/GD32VW553/V1_MQTT_OK/GD32VW55X_Wifi_BLE_SDK/GD32VW55x_RELEASE_V1.0.2/MSDK/cloud/alicloud/src/services/awss\awss_aplist.c ****         return -1;
 1025              		.loc 1 266 9
 1026              	.L121:
 238:C:/Users/stapi/OneDrive/Desktop/GD32VW553/V1_MQTT_OK/GD32VW55X_Wifi_BLE_SDK/GD32VW55x_RELEASE_V1.0.2/MSDK/cloud/alicloud/src/services/awss\awss_aplist.c ****     }
 1027              		.loc 1 238 16 is_stmt 0
 1028 007a 7D54     		li	s0,-1
 1029 007c 8DA2     		j	.L102
 1030              	.LVL79:
 1031              	.L123:
 243:C:/Users/stapi/OneDrive/Desktop/GD32VW553/V1_MQTT_OK/GD32VW55X_Wifi_BLE_SDK/GD32VW55x_RELEASE_V1.0.2/MSDK/cloud/alicloud/src/services/awss\awss_aplist.c ****     } else {
 1032              		.loc 1 243 17
 1033 007e 814B     		li	s7,0
 1034 0080 65BF     		j	.L104
 1035              	.LVL80:
 1036              	.L109:
 267:C:/Users/stapi/OneDrive/Desktop/GD32VW553/V1_MQTT_OK/GD32VW55X_Wifi_BLE_SDK/GD32VW55x_RELEASE_V1.0.2/MSDK/cloud/alicloud/src/services/awss\awss_aplist.c ****     }
 268:C:/Users/stapi/OneDrive/Desktop/GD32VW553/V1_MQTT_OK/GD32VW55X_Wifi_BLE_SDK/GD32VW55x_RELEASE_V1.0.2/MSDK/cloud/alicloud/src/services/awss\awss_aplist.c ****     
 269:C:/Users/stapi/OneDrive/Desktop/GD32VW553/V1_MQTT_OK/GD32VW55X_Wifi_BLE_SDK/GD32VW55x_RELEASE_V1.0.2/MSDK/cloud/alicloud/src/services/awss\awss_aplist.c ****     /*
 270:C:/Users/stapi/OneDrive/Desktop/GD32VW553/V1_MQTT_OK/GD32VW55X_Wifi_BLE_SDK/GD32VW55x_RELEASE_V1.0.2/MSDK/cloud/alicloud/src/services/awss\awss_aplist.c ****      * start from zconfig_aplist[1], leave [0] for temp use
 271:C:/Users/stapi/OneDrive/Desktop/GD32VW553/V1_MQTT_OK/GD32VW55X_Wifi_BLE_SDK/GD32VW55x_RELEASE_V1.0.2/MSDK/cloud/alicloud/src/services/awss\awss_aplist.c ****      * if zconfig_aplist[] is full, always replace [0]
 272:C:/Users/stapi/OneDrive/Desktop/GD32VW553/V1_MQTT_OK/GD32VW55X_Wifi_BLE_SDK/GD32VW55x_RELEASE_V1.0.2/MSDK/cloud/alicloud/src/services/awss\awss_aplist.c ****      */
 273:C:/Users/stapi/OneDrive/Desktop/GD32VW553/V1_MQTT_OK/GD32VW55X_Wifi_BLE_SDK/GD32VW55x_RELEASE_V1.0.2/MSDK/cloud/alicloud/src/services/awss\awss_aplist.c ****     if (!zconfig_aplist_num) {
 1037              		.loc 1 273 5 is_stmt 1
 1038              		.loc 1 273 9 is_stmt 0
 1039 0082 B7070000 		lui	a5,%hi(.LANCHOR3)
 1040              		.loc 1 273 8
 1041 0086 03C70700 		lbu	a4,%lo(.LANCHOR3)(a5)
 1042 008a 93870700 		addi	a5,a5,%lo(.LANCHOR3)
 1043 008e 01E7     		bne	a4,zero,.L110
 274:C:/Users/stapi/OneDrive/Desktop/GD32VW553/V1_MQTT_OK/GD32VW55X_Wifi_BLE_SDK/GD32VW55x_RELEASE_V1.0.2/MSDK/cloud/alicloud/src/services/awss\awss_aplist.c ****         zconfig_aplist_num = 1;
 1044              		.loc 1 274 9 is_stmt 1
 1045              		.loc 1 274 28 is_stmt 0
 1046 0090 0547     		li	a4,1
 1047 0092 2380E700 		sb	a4,0(a5)
 1048              	.L110:
 275:C:/Users/stapi/OneDrive/Desktop/GD32VW553/V1_MQTT_OK/GD32VW55X_Wifi_BLE_SDK/GD32VW55x_RELEASE_V1.0.2/MSDK/cloud/alicloud/src/services/awss\awss_aplist.c ****     }
 276:C:/Users/stapi/OneDrive/Desktop/GD32VW553/V1_MQTT_OK/GD32VW55X_Wifi_BLE_SDK/GD32VW55x_RELEASE_V1.0.2/MSDK/cloud/alicloud/src/services/awss\awss_aplist.c **** 
 277:C:/Users/stapi/OneDrive/Desktop/GD32VW553/V1_MQTT_OK/GD32VW55X_Wifi_BLE_SDK/GD32VW55x_RELEASE_V1.0.2/MSDK/cloud/alicloud/src/services/awss\awss_aplist.c ****     for (i = 1; i < zconfig_aplist_num; i++) {
 1049              		.loc 1 277 5 is_stmt 1
 1050              	.LVL81:
 1051              		.loc 1 277 19 is_stmt 0
 1052 0096 03CD0700 		lbu	s10,0(a5)
 1053 009a 1389C902 		addi	s2,s3,44
 1054              		.loc 1 277 12
 1055 009e 854D     		li	s11,1
 1056              	.LVL82:
 1057              	.L111:
 1058              		.loc 1 277 17 is_stmt 1 discriminator 1
 1059              		.loc 1 277 5 is_stmt 0 discriminator 1
 1060 00a0 63C6AD0D 		bgt	s10,s11,.L117
 278:C:/Users/stapi/OneDrive/Desktop/GD32VW553/V1_MQTT_OK/GD32VW55X_Wifi_BLE_SDK/GD32VW55x_RELEASE_V1.0.2/MSDK/cloud/alicloud/src/services/awss\awss_aplist.c ****         if (!strncmp(zconfig_aplist[i].ssid, (char *)ssid, ZC_MAX_SSID_LEN)
 279:C:/Users/stapi/OneDrive/Desktop/GD32VW553/V1_MQTT_OK/GD32VW55X_Wifi_BLE_SDK/GD32VW55x_RELEASE_V1.0.2/MSDK/cloud/alicloud/src/services/awss\awss_aplist.c ****             && !memcmp(zconfig_aplist[i].mac, bssid, ETH_ALEN)) {
 280:C:/Users/stapi/OneDrive/Desktop/GD32VW553/V1_MQTT_OK/GD32VW55X_Wifi_BLE_SDK/GD32VW55x_RELEASE_V1.0.2/MSDK/cloud/alicloud/src/services/awss\awss_aplist.c ****             //FIXME: useless?
 281:C:/Users/stapi/OneDrive/Desktop/GD32VW553/V1_MQTT_OK/GD32VW55X_Wifi_BLE_SDK/GD32VW55x_RELEASE_V1.0.2/MSDK/cloud/alicloud/src/services/awss\awss_aplist.c ****             /* found the same bss */
 282:C:/Users/stapi/OneDrive/Desktop/GD32VW553/V1_MQTT_OK/GD32VW55X_Wifi_BLE_SDK/GD32VW55x_RELEASE_V1.0.2/MSDK/cloud/alicloud/src/services/awss\awss_aplist.c ****             if (!zconfig_aplist[i].channel) {
 283:C:/Users/stapi/OneDrive/Desktop/GD32VW553/V1_MQTT_OK/GD32VW55X_Wifi_BLE_SDK/GD32VW55x_RELEASE_V1.0.2/MSDK/cloud/alicloud/src/services/awss\awss_aplist.c ****                 zconfig_aplist[i].channel = channel;
 284:C:/Users/stapi/OneDrive/Desktop/GD32VW553/V1_MQTT_OK/GD32VW55X_Wifi_BLE_SDK/GD32VW55x_RELEASE_V1.0.2/MSDK/cloud/alicloud/src/services/awss\awss_aplist.c ****             }
 285:C:/Users/stapi/OneDrive/Desktop/GD32VW553/V1_MQTT_OK/GD32VW55X_Wifi_BLE_SDK/GD32VW55x_RELEASE_V1.0.2/MSDK/cloud/alicloud/src/services/awss\awss_aplist.c ****             if (zconfig_aplist[i].auth == ZC_AUTH_TYPE_INVALID) {
 286:C:/Users/stapi/OneDrive/Desktop/GD32VW553/V1_MQTT_OK/GD32VW55X_Wifi_BLE_SDK/GD32VW55x_RELEASE_V1.0.2/MSDK/cloud/alicloud/src/services/awss\awss_aplist.c ****                 zconfig_aplist[i].auth = auth;
 287:C:/Users/stapi/OneDrive/Desktop/GD32VW553/V1_MQTT_OK/GD32VW55X_Wifi_BLE_SDK/GD32VW55x_RELEASE_V1.0.2/MSDK/cloud/alicloud/src/services/awss\awss_aplist.c ****             }
 288:C:/Users/stapi/OneDrive/Desktop/GD32VW553/V1_MQTT_OK/GD32VW55X_Wifi_BLE_SDK/GD32VW55x_RELEASE_V1.0.2/MSDK/cloud/alicloud/src/services/awss\awss_aplist.c ****             if (zconfig_aplist[i].encry[0] == ZC_ENC_TYPE_INVALID) {
 289:C:/Users/stapi/OneDrive/Desktop/GD32VW553/V1_MQTT_OK/GD32VW55X_Wifi_BLE_SDK/GD32VW55x_RELEASE_V1.0.2/MSDK/cloud/alicloud/src/services/awss\awss_aplist.c ****                 zconfig_aplist[i].encry[0] = group_cipher;
 290:C:/Users/stapi/OneDrive/Desktop/GD32VW553/V1_MQTT_OK/GD32VW55X_Wifi_BLE_SDK/GD32VW55x_RELEASE_V1.0.2/MSDK/cloud/alicloud/src/services/awss\awss_aplist.c ****             }
 291:C:/Users/stapi/OneDrive/Desktop/GD32VW553/V1_MQTT_OK/GD32VW55X_Wifi_BLE_SDK/GD32VW55x_RELEASE_V1.0.2/MSDK/cloud/alicloud/src/services/awss\awss_aplist.c ****             if (zconfig_aplist[i].encry[1] == ZC_ENC_TYPE_INVALID) {
 292:C:/Users/stapi/OneDrive/Desktop/GD32VW553/V1_MQTT_OK/GD32VW55X_Wifi_BLE_SDK/GD32VW55x_RELEASE_V1.0.2/MSDK/cloud/alicloud/src/services/awss\awss_aplist.c ****                 zconfig_aplist[i].encry[1] = pairwise_cipher;
 293:C:/Users/stapi/OneDrive/Desktop/GD32VW553/V1_MQTT_OK/GD32VW55X_Wifi_BLE_SDK/GD32VW55x_RELEASE_V1.0.2/MSDK/cloud/alicloud/src/services/awss\awss_aplist.c ****             }
 294:C:/Users/stapi/OneDrive/Desktop/GD32VW553/V1_MQTT_OK/GD32VW55X_Wifi_BLE_SDK/GD32VW55x_RELEASE_V1.0.2/MSDK/cloud/alicloud/src/services/awss\awss_aplist.c **** 
 295:C:/Users/stapi/OneDrive/Desktop/GD32VW553/V1_MQTT_OK/GD32VW55X_Wifi_BLE_SDK/GD32VW55x_RELEASE_V1.0.2/MSDK/cloud/alicloud/src/services/awss\awss_aplist.c ****             return 0;//duplicated ssid
 296:C:/Users/stapi/OneDrive/Desktop/GD32VW553/V1_MQTT_OK/GD32VW55X_Wifi_BLE_SDK/GD32VW55x_RELEASE_V1.0.2/MSDK/cloud/alicloud/src/services/awss\awss_aplist.c ****         }
 297:C:/Users/stapi/OneDrive/Desktop/GD32VW553/V1_MQTT_OK/GD32VW55X_Wifi_BLE_SDK/GD32VW55x_RELEASE_V1.0.2/MSDK/cloud/alicloud/src/services/awss\awss_aplist.c ****     }
 298:C:/Users/stapi/OneDrive/Desktop/GD32VW553/V1_MQTT_OK/GD32VW55X_Wifi_BLE_SDK/GD32VW55x_RELEASE_V1.0.2/MSDK/cloud/alicloud/src/services/awss\awss_aplist.c **** 
 299:C:/Users/stapi/OneDrive/Desktop/GD32VW553/V1_MQTT_OK/GD32VW55X_Wifi_BLE_SDK/GD32VW55x_RELEASE_V1.0.2/MSDK/cloud/alicloud/src/services/awss\awss_aplist.c ****     if (i < MAX_APLIST_NUM) {
 1061              		.loc 1 299 5 is_stmt 1
 1062              		.loc 1 299 8 is_stmt 0
 1063 00a4 13073006 		li	a4,99
 1064 00a8 6348B715 		bgt	s11,a4,.L124
 300:C:/Users/stapi/OneDrive/Desktop/GD32VW553/V1_MQTT_OK/GD32VW55X_Wifi_BLE_SDK/GD32VW55x_RELEASE_V1.0.2/MSDK/cloud/alicloud/src/services/awss\awss_aplist.c ****         zconfig_aplist_num ++;
 1065              		.loc 1 300 9 is_stmt 1
 1066              		.loc 1 300 28 is_stmt 0
 1067 00ac 050D     		addi	s10,s10,1
 1068 00ae 2380A701 		sb	s10,0(a5)
 1069              	.LVL83:
 1070              	.L118:
 301:C:/Users/stapi/OneDrive/Desktop/GD32VW553/V1_MQTT_OK/GD32VW55X_Wifi_BLE_SDK/GD32VW55x_RELEASE_V1.0.2/MSDK/cloud/alicloud/src/services/awss\awss_aplist.c ****     } else {
 302:C:/Users/stapi/OneDrive/Desktop/GD32VW553/V1_MQTT_OK/GD32VW55X_Wifi_BLE_SDK/GD32VW55x_RELEASE_V1.0.2/MSDK/cloud/alicloud/src/services/awss\awss_aplist.c ****         i = 0;    /* [0] for temp use, always replace [0] */
 303:C:/Users/stapi/OneDrive/Desktop/GD32VW553/V1_MQTT_OK/GD32VW55X_Wifi_BLE_SDK/GD32VW55x_RELEASE_V1.0.2/MSDK/cloud/alicloud/src/services/awss\awss_aplist.c ****     }
 304:C:/Users/stapi/OneDrive/Desktop/GD32VW553/V1_MQTT_OK/GD32VW55X_Wifi_BLE_SDK/GD32VW55x_RELEASE_V1.0.2/MSDK/cloud/alicloud/src/services/awss\awss_aplist.c **** 
 305:C:/Users/stapi/OneDrive/Desktop/GD32VW553/V1_MQTT_OK/GD32VW55X_Wifi_BLE_SDK/GD32VW55x_RELEASE_V1.0.2/MSDK/cloud/alicloud/src/services/awss\awss_aplist.c ****     strncpy((char *)&zconfig_aplist[i].ssid, (const char *)&ssid[0], ZC_MAX_SSID_LEN - 1);
 1071              		.loc 1 305 5 is_stmt 1
 1072              		.loc 1 305 36 is_stmt 0
 1073 00b2 9307C002 		li	a5,44
 1074 00b6 FF99FDC4 		maddr32	s3, s11, a5
 1075              		.loc 1 305 5
 1076 00ba 13060002 		li	a2,32
 1077 00be DA85     		mv	a1,s6
 1078 00c0 1385A900 		addi	a0,s3,10
 1079 00c4 97000000 		call	strncpy
 1079      E7800000 
 1080              	.LVL84:
 306:C:/Users/stapi/OneDrive/Desktop/GD32VW553/V1_MQTT_OK/GD32VW55X_Wifi_BLE_SDK/GD32VW55x_RELEASE_V1.0.2/MSDK/cloud/alicloud/src/services/awss\awss_aplist.c ****     memcpy(&zconfig_aplist[i].mac, bssid, ETH_ALEN);
 1081              		.loc 1 306 5 is_stmt 1
 1082 00cc 1946     		li	a2,6
 1083 00ce A685     		mv	a1,s1
 1084 00d0 13854900 		addi	a0,s3,4
 1085 00d4 97000000 		call	memcpy
 1085      E7800000 
 1086              	.LVL85:
 307:C:/Users/stapi/OneDrive/Desktop/GD32VW553/V1_MQTT_OK/GD32VW55X_Wifi_BLE_SDK/GD32VW55x_RELEASE_V1.0.2/MSDK/cloud/alicloud/src/services/awss\awss_aplist.c ****     zconfig_aplist[i].auth = auth;
 1087              		.loc 1 307 5
 1088              		.loc 1 307 28 is_stmt 0
 1089 00dc 23809901 		sb	s9,0(s3)
 308:C:/Users/stapi/OneDrive/Desktop/GD32VW553/V1_MQTT_OK/GD32VW55X_Wifi_BLE_SDK/GD32VW55x_RELEASE_V1.0.2/MSDK/cloud/alicloud/src/services/awss\awss_aplist.c ****     zconfig_aplist[i].rssi = rssi;
 1090              		.loc 1 308 5 is_stmt 1
 1091              		.loc 1 308 28 is_stmt 0
 1092 00e0 A3854903 		sb	s4,43(s3)
 309:C:/Users/stapi/OneDrive/Desktop/GD32VW553/V1_MQTT_OK/GD32VW55X_Wifi_BLE_SDK/GD32VW55x_RELEASE_V1.0.2/MSDK/cloud/alicloud/src/services/awss\awss_aplist.c ****     zconfig_aplist[i].channel = channel;
 1093              		.loc 1 309 5 is_stmt 1
 1094              		.loc 1 309 31 is_stmt 0
 1095 00e4 A3807901 		sb	s7,1(s3)
 310:C:/Users/stapi/OneDrive/Desktop/GD32VW553/V1_MQTT_OK/GD32VW55X_Wifi_BLE_SDK/GD32VW55x_RELEASE_V1.0.2/MSDK/cloud/alicloud/src/services/awss\awss_aplist.c ****     zconfig_aplist[i].encry[0] = group_cipher;
 1096              		.loc 1 310 5 is_stmt 1
 1097              		.loc 1 310 32 is_stmt 0
 1098 00e8 23815901 		sb	s5,2(s3)
 311:C:/Users/stapi/OneDrive/Desktop/GD32VW553/V1_MQTT_OK/GD32VW55X_Wifi_BLE_SDK/GD32VW55x_RELEASE_V1.0.2/MSDK/cloud/alicloud/src/services/awss\awss_aplist.c ****     zconfig_aplist[i].encry[1] = pairwise_cipher;
 1099              		.loc 1 311 5 is_stmt 1
 1100              		.loc 1 311 32 is_stmt 0
 1101 00ec A3818901 		sb	s8,3(s3)
 312:C:/Users/stapi/OneDrive/Desktop/GD32VW553/V1_MQTT_OK/GD32VW55X_Wifi_BLE_SDK/GD32VW55x_RELEASE_V1.0.2/MSDK/cloud/alicloud/src/services/awss\awss_aplist.c **** 
 313:C:/Users/stapi/OneDrive/Desktop/GD32VW553/V1_MQTT_OK/GD32VW55X_Wifi_BLE_SDK/GD32VW55x_RELEASE_V1.0.2/MSDK/cloud/alicloud/src/services/awss\awss_aplist.c **** #if defined(AWSS_SUPPORT_ADHA) || defined(AWSS_SUPPORT_AHA)
 314:C:/Users/stapi/OneDrive/Desktop/GD32VW553/V1_MQTT_OK/GD32VW55X_Wifi_BLE_SDK/GD32VW55x_RELEASE_V1.0.2/MSDK/cloud/alicloud/src/services/awss\awss_aplist.c ****     do {
 315:C:/Users/stapi/OneDrive/Desktop/GD32VW553/V1_MQTT_OK/GD32VW55X_Wifi_BLE_SDK/GD32VW55x_RELEASE_V1.0.2/MSDK/cloud/alicloud/src/services/awss\awss_aplist.c ****         char save_adha = 0;
 316:C:/Users/stapi/OneDrive/Desktop/GD32VW553/V1_MQTT_OK/GD32VW55X_Wifi_BLE_SDK/GD32VW55x_RELEASE_V1.0.2/MSDK/cloud/alicloud/src/services/awss\awss_aplist.c **** #ifdef AWSS_SUPPORT_ADHA
 317:C:/Users/stapi/OneDrive/Desktop/GD32VW553/V1_MQTT_OK/GD32VW55X_Wifi_BLE_SDK/GD32VW55x_RELEASE_V1.0.2/MSDK/cloud/alicloud/src/services/awss\awss_aplist.c ****         if (!strcmp((void *)ssid, zc_adha_ssid)) {
 318:C:/Users/stapi/OneDrive/Desktop/GD32VW553/V1_MQTT_OK/GD32VW55X_Wifi_BLE_SDK/GD32VW55x_RELEASE_V1.0.2/MSDK/cloud/alicloud/src/services/awss\awss_aplist.c ****             save_adha = 1;
 319:C:/Users/stapi/OneDrive/Desktop/GD32VW553/V1_MQTT_OK/GD32VW55X_Wifi_BLE_SDK/GD32VW55x_RELEASE_V1.0.2/MSDK/cloud/alicloud/src/services/awss\awss_aplist.c ****         }
 320:C:/Users/stapi/OneDrive/Desktop/GD32VW553/V1_MQTT_OK/GD32VW55X_Wifi_BLE_SDK/GD32VW55x_RELEASE_V1.0.2/MSDK/cloud/alicloud/src/services/awss\awss_aplist.c **** #endif
 321:C:/Users/stapi/OneDrive/Desktop/GD32VW553/V1_MQTT_OK/GD32VW55X_Wifi_BLE_SDK/GD32VW55x_RELEASE_V1.0.2/MSDK/cloud/alicloud/src/services/awss\awss_aplist.c **** #ifdef AWSS_SUPPORT_AHA
 322:C:/Users/stapi/OneDrive/Desktop/GD32VW553/V1_MQTT_OK/GD32VW55X_Wifi_BLE_SDK/GD32VW55x_RELEASE_V1.0.2/MSDK/cloud/alicloud/src/services/awss\awss_aplist.c ****         if (!strcmp((void *)ssid, zc_default_ssid)) {
 323:C:/Users/stapi/OneDrive/Desktop/GD32VW553/V1_MQTT_OK/GD32VW55X_Wifi_BLE_SDK/GD32VW55x_RELEASE_V1.0.2/MSDK/cloud/alicloud/src/services/awss\awss_aplist.c ****             save_adha = 1;
 324:C:/Users/stapi/OneDrive/Desktop/GD32VW553/V1_MQTT_OK/GD32VW55X_Wifi_BLE_SDK/GD32VW55x_RELEASE_V1.0.2/MSDK/cloud/alicloud/src/services/awss\awss_aplist.c ****         }
 325:C:/Users/stapi/OneDrive/Desktop/GD32VW553/V1_MQTT_OK/GD32VW55X_Wifi_BLE_SDK/GD32VW55x_RELEASE_V1.0.2/MSDK/cloud/alicloud/src/services/awss\awss_aplist.c **** #endif
 326:C:/Users/stapi/OneDrive/Desktop/GD32VW553/V1_MQTT_OK/GD32VW55X_Wifi_BLE_SDK/GD32VW55x_RELEASE_V1.0.2/MSDK/cloud/alicloud/src/services/awss\awss_aplist.c ****         if (save_adha) {
 327:C:/Users/stapi/OneDrive/Desktop/GD32VW553/V1_MQTT_OK/GD32VW55X_Wifi_BLE_SDK/GD32VW55x_RELEASE_V1.0.2/MSDK/cloud/alicloud/src/services/awss\awss_aplist.c ****             if (adha_aplist->cnt < MAX_APLIST_NUM) {
 328:C:/Users/stapi/OneDrive/Desktop/GD32VW553/V1_MQTT_OK/GD32VW55X_Wifi_BLE_SDK/GD32VW55x_RELEASE_V1.0.2/MSDK/cloud/alicloud/src/services/awss\awss_aplist.c ****                 adha_aplist->aplist[adha_aplist->cnt ++] = i;
 329:C:/Users/stapi/OneDrive/Desktop/GD32VW553/V1_MQTT_OK/GD32VW55X_Wifi_BLE_SDK/GD32VW55x_RELEASE_V1.0.2/MSDK/cloud/alicloud/src/services/awss\awss_aplist.c ****             }
 330:C:/Users/stapi/OneDrive/Desktop/GD32VW553/V1_MQTT_OK/GD32VW55X_Wifi_BLE_SDK/GD32VW55x_RELEASE_V1.0.2/MSDK/cloud/alicloud/src/services/awss\awss_aplist.c ****         }
 331:C:/Users/stapi/OneDrive/Desktop/GD32VW553/V1_MQTT_OK/GD32VW55X_Wifi_BLE_SDK/GD32VW55x_RELEASE_V1.0.2/MSDK/cloud/alicloud/src/services/awss\awss_aplist.c ****     } while (0);
 332:C:/Users/stapi/OneDrive/Desktop/GD32VW553/V1_MQTT_OK/GD32VW55X_Wifi_BLE_SDK/GD32VW55x_RELEASE_V1.0.2/MSDK/cloud/alicloud/src/services/awss\awss_aplist.c **** #endif
 333:C:/Users/stapi/OneDrive/Desktop/GD32VW553/V1_MQTT_OK/GD32VW55X_Wifi_BLE_SDK/GD32VW55x_RELEASE_V1.0.2/MSDK/cloud/alicloud/src/services/awss\awss_aplist.c **** 
 334:C:/Users/stapi/OneDrive/Desktop/GD32VW553/V1_MQTT_OK/GD32VW55X_Wifi_BLE_SDK/GD32VW55x_RELEASE_V1.0.2/MSDK/cloud/alicloud/src/services/awss\awss_aplist.c ****     do {
 1102              		.loc 1 334 5 is_stmt 1
 1103              	.LBB38:
 335:C:/Users/stapi/OneDrive/Desktop/GD32VW553/V1_MQTT_OK/GD32VW55X_Wifi_BLE_SDK/GD32VW55x_RELEASE_V1.0.2/MSDK/cloud/alicloud/src/services/awss\awss_aplist.c ****         char adha = 0;
 1104              		.loc 1 335 9
 1105              	.LVL86:
 336:C:/Users/stapi/OneDrive/Desktop/GD32VW553/V1_MQTT_OK/GD32VW55X_Wifi_BLE_SDK/GD32VW55x_RELEASE_V1.0.2/MSDK/cloud/alicloud/src/services/awss\awss_aplist.c **** #if defined(AWSS_SUPPORT_ADHA) || defined(AWSS_SUPPORT_AHA)
 337:C:/Users/stapi/OneDrive/Desktop/GD32VW553/V1_MQTT_OK/GD32VW55X_Wifi_BLE_SDK/GD32VW55x_RELEASE_V1.0.2/MSDK/cloud/alicloud/src/services/awss\awss_aplist.c ****         adha = adha_aplist->cnt;
 338:C:/Users/stapi/OneDrive/Desktop/GD32VW553/V1_MQTT_OK/GD32VW55X_Wifi_BLE_SDK/GD32VW55x_RELEASE_V1.0.2/MSDK/cloud/alicloud/src/services/awss\awss_aplist.c **** #endif
 339:C:/Users/stapi/OneDrive/Desktop/GD32VW553/V1_MQTT_OK/GD32VW55X_Wifi_BLE_SDK/GD32VW55x_RELEASE_V1.0.2/MSDK/cloud/alicloud/src/services/awss\awss_aplist.c ****         dump_awss_status(STATE_WIFI_CHAN_SCAN, "[%d] ssid:%s, mac:%02x%02x%02x%02x%02x%02x, chn:%d,
 1106              		.loc 1 339 9
 1107 00f0 83C70400 		lbu	a5,0(s1)
 1108 00f4 03C81400 		lbu	a6,1(s1)
 1109 00f8 83C82400 		lbu	a7,2(s1)
 1110 00fc 03C73400 		lbu	a4,3(s1)
 1111 0100 83C64400 		lbu	a3,4(s1)
 1112 0104 03C65400 		lbu	a2,5(s1)
 1113 0108 63544001 		ble	s4,zero,.L119
 1114              		.loc 1 339 9 is_stmt 0 discriminator 1
 1115 010c 130A0AF0 		addi	s4,s4,-256
 1116              	.L119:
 1117              		.loc 1 339 9 discriminator 4
 1118 0110 32C4     		sw	a2,8(sp)
 1119 0112 37060000 		lui	a2,%hi(.LC9)
 1120 0116 36C2     		sw	a3,4(sp)
 1121 0118 3AC0     		sw	a4,0(sp)
 1122 011a EE86     		mv	a3,s11
 1123 011c 5A87     		mv	a4,s6
 1124 011e 13060600 		addi	a2,a2,%lo(.LC9)
 1125 0122 9305D0BF 		li	a1,-1027
 1126 0126 02CA     		sw	zero,20(sp)
 1127 0128 52C8     		sw	s4,16(sp)
 1128 012a 5EC6     		sw	s7,12(sp)
 1129 012c 6D45     		li	a0,27
 1130 012e 97000000 		call	iotx_state_event
 1130      E7800000 
 1131              	.LVL87:
 1132              	.LBE38:
 340:C:/Users/stapi/OneDrive/Desktop/GD32VW553/V1_MQTT_OK/GD32VW55X_Wifi_BLE_SDK/GD32VW55x_RELEASE_V1.0.2/MSDK/cloud/alicloud/src/services/awss\awss_aplist.c ****                i, ssid, bssid[0], bssid[1], bssid[2],
 341:C:/Users/stapi/OneDrive/Desktop/GD32VW553/V1_MQTT_OK/GD32VW55X_Wifi_BLE_SDK/GD32VW55x_RELEASE_V1.0.2/MSDK/cloud/alicloud/src/services/awss\awss_aplist.c ****                bssid[3], bssid[4], bssid[5], channel,
 342:C:/Users/stapi/OneDrive/Desktop/GD32VW553/V1_MQTT_OK/GD32VW55X_Wifi_BLE_SDK/GD32VW55x_RELEASE_V1.0.2/MSDK/cloud/alicloud/src/services/awss\awss_aplist.c ****                rssi > 0 ? rssi - 256 : rssi, adha);
 343:C:/Users/stapi/OneDrive/Desktop/GD32VW553/V1_MQTT_OK/GD32VW55X_Wifi_BLE_SDK/GD32VW55x_RELEASE_V1.0.2/MSDK/cloud/alicloud/src/services/awss\awss_aplist.c ****         #ifdef DEV_OFFLINE_LOG_ENABLE
 344:C:/Users/stapi/OneDrive/Desktop/GD32VW553/V1_MQTT_OK/GD32VW55X_Wifi_BLE_SDK/GD32VW55x_RELEASE_V1.0.2/MSDK/cloud/alicloud/src/services/awss\awss_aplist.c ****         signed char _rssi = rssi > 0 ? rssi - 256 : rssi;
 345:C:/Users/stapi/OneDrive/Desktop/GD32VW553/V1_MQTT_OK/GD32VW55X_Wifi_BLE_SDK/GD32VW55x_RELEASE_V1.0.2/MSDK/cloud/alicloud/src/services/awss\awss_aplist.c **** 
 346:C:/Users/stapi/OneDrive/Desktop/GD32VW553/V1_MQTT_OK/GD32VW55X_Wifi_BLE_SDK/GD32VW55x_RELEASE_V1.0.2/MSDK/cloud/alicloud/src/services/awss\awss_aplist.c ****         if (i < 33 && _rssi > -70)
 347:C:/Users/stapi/OneDrive/Desktop/GD32VW553/V1_MQTT_OK/GD32VW55X_Wifi_BLE_SDK/GD32VW55x_RELEASE_V1.0.2/MSDK/cloud/alicloud/src/services/awss\awss_aplist.c ****         {
 348:C:/Users/stapi/OneDrive/Desktop/GD32VW553/V1_MQTT_OK/GD32VW55X_Wifi_BLE_SDK/GD32VW55x_RELEASE_V1.0.2/MSDK/cloud/alicloud/src/services/awss\awss_aplist.c ****             if (ssid && (strlen((const char*)ssid) > 0))
 349:C:/Users/stapi/OneDrive/Desktop/GD32VW553/V1_MQTT_OK/GD32VW55X_Wifi_BLE_SDK/GD32VW55x_RELEASE_V1.0.2/MSDK/cloud/alicloud/src/services/awss\awss_aplist.c ****             {
 350:C:/Users/stapi/OneDrive/Desktop/GD32VW553/V1_MQTT_OK/GD32VW55X_Wifi_BLE_SDK/GD32VW55x_RELEASE_V1.0.2/MSDK/cloud/alicloud/src/services/awss\awss_aplist.c ****                 diagnosis_offline_log(LOG_LEVEL_I, "ssid:%s rssi:%d ch:%d\r\n", ssid, _rssi, channe
 351:C:/Users/stapi/OneDrive/Desktop/GD32VW553/V1_MQTT_OK/GD32VW55X_Wifi_BLE_SDK/GD32VW55x_RELEASE_V1.0.2/MSDK/cloud/alicloud/src/services/awss\awss_aplist.c ****             }
 352:C:/Users/stapi/OneDrive/Desktop/GD32VW553/V1_MQTT_OK/GD32VW55X_Wifi_BLE_SDK/GD32VW55x_RELEASE_V1.0.2/MSDK/cloud/alicloud/src/services/awss\awss_aplist.c ****             else
 353:C:/Users/stapi/OneDrive/Desktop/GD32VW553/V1_MQTT_OK/GD32VW55X_Wifi_BLE_SDK/GD32VW55x_RELEASE_V1.0.2/MSDK/cloud/alicloud/src/services/awss\awss_aplist.c ****             {
 354:C:/Users/stapi/OneDrive/Desktop/GD32VW553/V1_MQTT_OK/GD32VW55X_Wifi_BLE_SDK/GD32VW55x_RELEASE_V1.0.2/MSDK/cloud/alicloud/src/services/awss\awss_aplist.c ****                 awss_trace("ssid is invalid");
 355:C:/Users/stapi/OneDrive/Desktop/GD32VW553/V1_MQTT_OK/GD32VW55X_Wifi_BLE_SDK/GD32VW55x_RELEASE_V1.0.2/MSDK/cloud/alicloud/src/services/awss\awss_aplist.c ****             }
 356:C:/Users/stapi/OneDrive/Desktop/GD32VW553/V1_MQTT_OK/GD32VW55X_Wifi_BLE_SDK/GD32VW55x_RELEASE_V1.0.2/MSDK/cloud/alicloud/src/services/awss\awss_aplist.c **** 
 357:C:/Users/stapi/OneDrive/Desktop/GD32VW553/V1_MQTT_OK/GD32VW55X_Wifi_BLE_SDK/GD32VW55x_RELEASE_V1.0.2/MSDK/cloud/alicloud/src/services/awss\awss_aplist.c ****             if (0 == zconfig_is_utf8((const char *)ssid, strlen((const char*)ssid)))
 358:C:/Users/stapi/OneDrive/Desktop/GD32VW553/V1_MQTT_OK/GD32VW55X_Wifi_BLE_SDK/GD32VW55x_RELEASE_V1.0.2/MSDK/cloud/alicloud/src/services/awss\awss_aplist.c ****             {
 359:C:/Users/stapi/OneDrive/Desktop/GD32VW553/V1_MQTT_OK/GD32VW55X_Wifi_BLE_SDK/GD32VW55x_RELEASE_V1.0.2/MSDK/cloud/alicloud/src/services/awss\awss_aplist.c ****                 awss_trace("ssid:%s is not utf8", ssid);
 360:C:/Users/stapi/OneDrive/Desktop/GD32VW553/V1_MQTT_OK/GD32VW55X_Wifi_BLE_SDK/GD32VW55x_RELEASE_V1.0.2/MSDK/cloud/alicloud/src/services/awss\awss_aplist.c ****             }
 361:C:/Users/stapi/OneDrive/Desktop/GD32VW553/V1_MQTT_OK/GD32VW55X_Wifi_BLE_SDK/GD32VW55x_RELEASE_V1.0.2/MSDK/cloud/alicloud/src/services/awss\awss_aplist.c ****         }
 362:C:/Users/stapi/OneDrive/Desktop/GD32VW553/V1_MQTT_OK/GD32VW55X_Wifi_BLE_SDK/GD32VW55x_RELEASE_V1.0.2/MSDK/cloud/alicloud/src/services/awss\awss_aplist.c ****         #endif
 363:C:/Users/stapi/OneDrive/Desktop/GD32VW553/V1_MQTT_OK/GD32VW55X_Wifi_BLE_SDK/GD32VW55x_RELEASE_V1.0.2/MSDK/cloud/alicloud/src/services/awss\awss_aplist.c ****     } while (0);
 1133              		.loc 1 363 13 is_stmt 1 discriminator 4
 364:C:/Users/stapi/OneDrive/Desktop/GD32VW553/V1_MQTT_OK/GD32VW55X_Wifi_BLE_SDK/GD32VW55x_RELEASE_V1.0.2/MSDK/cloud/alicloud/src/services/awss\awss_aplist.c ****     /*
 365:C:/Users/stapi/OneDrive/Desktop/GD32VW553/V1_MQTT_OK/GD32VW55X_Wifi_BLE_SDK/GD32VW55x_RELEASE_V1.0.2/MSDK/cloud/alicloud/src/services/awss\awss_aplist.c ****      * if chn already locked(zc_bssid set),
 366:C:/Users/stapi/OneDrive/Desktop/GD32VW553/V1_MQTT_OK/GD32VW55X_Wifi_BLE_SDK/GD32VW55x_RELEASE_V1.0.2/MSDK/cloud/alicloud/src/services/awss\awss_aplist.c ****      * copy ssid to zc_ssid for ssid-auto-completiont
 367:C:/Users/stapi/OneDrive/Desktop/GD32VW553/V1_MQTT_OK/GD32VW55X_Wifi_BLE_SDK/GD32VW55x_RELEASE_V1.0.2/MSDK/cloud/alicloud/src/services/awss\awss_aplist.c ****      */
 368:C:/Users/stapi/OneDrive/Desktop/GD32VW553/V1_MQTT_OK/GD32VW55X_Wifi_BLE_SDK/GD32VW55x_RELEASE_V1.0.2/MSDK/cloud/alicloud/src/services/awss\awss_aplist.c ****     if (!memcmp(zc_bssid, bssid, ETH_ALEN) && ssid[0] != '\0') {
 1134              		.loc 1 368 5 discriminator 4
 1135              		.loc 1 368 17 is_stmt 0 discriminator 4
 1136 0136 B7070000 		lui	a5,%hi(zconfig_data)
 1137 013a 03A90700 		lw	s2,%lo(zconfig_data)(a5)
 1138              		.loc 1 368 10 discriminator 4
 1139 013e 1946     		li	a2,6
 1140 0140 A685     		mv	a1,s1
 1141 0142 1305A94E 		addi	a0,s2,1258
 1142 0146 97000000 		call	memcmp
 1142      E7800000 
 1143              	.LVL88:
 1144 014e 2A84     		mv	s0,a0
 1145              		.loc 1 368 8 discriminator 4
 1146 0150 51E5     		bne	a0,zero,.L120
 1147              		.loc 1 368 44 discriminator 1
 1148 0152 83470B00 		lbu	a5,0(s6)
 1149 0156 D9C3     		beq	a5,zero,.L120
 369:C:/Users/stapi/OneDrive/Desktop/GD32VW553/V1_MQTT_OK/GD32VW55X_Wifi_BLE_SDK/GD32VW55x_RELEASE_V1.0.2/MSDK/cloud/alicloud/src/services/awss\awss_aplist.c ****         strncpy((char *)zc_ssid, (char const *)ssid, ZC_MAX_SSID_LEN - 1);
 1150              		.loc 1 369 9 is_stmt 1
 1151 0158 13060002 		li	a2,32
 1152 015c DA85     		mv	a1,s6
 1153 015e 13057947 		addi	a0,s2,1143
 1154 0162 97000000 		call	strncpy
 1154      E7800000 
 1155              	.LVL89:
 1156 016a 95A8     		j	.L102
 1157              	.LVL90:
 1158              	.L117:
 278:C:/Users/stapi/OneDrive/Desktop/GD32VW553/V1_MQTT_OK/GD32VW55X_Wifi_BLE_SDK/GD32VW55x_RELEASE_V1.0.2/MSDK/cloud/alicloud/src/services/awss\awss_aplist.c ****             && !memcmp(zconfig_aplist[i].mac, bssid, ETH_ALEN)) {
 1159              		.loc 1 278 9
 278:C:/Users/stapi/OneDrive/Desktop/GD32VW553/V1_MQTT_OK/GD32VW55X_Wifi_BLE_SDK/GD32VW55x_RELEASE_V1.0.2/MSDK/cloud/alicloud/src/services/awss\awss_aplist.c ****             && !memcmp(zconfig_aplist[i].mac, bssid, ETH_ALEN)) {
 1160              		.loc 1 278 14 is_stmt 0
 1161 016c 13061002 		li	a2,33
 1162 0170 DA85     		mv	a1,s6
 1163 0172 1305A900 		addi	a0,s2,10
 1164 0176 97000000 		call	strncmp
 1164      E7800000 
 1165              	.LVL91:
 278:C:/Users/stapi/OneDrive/Desktop/GD32VW553/V1_MQTT_OK/GD32VW55X_Wifi_BLE_SDK/GD32VW55x_RELEASE_V1.0.2/MSDK/cloud/alicloud/src/services/awss\awss_aplist.c ****             && !memcmp(zconfig_aplist[i].mac, bssid, ETH_ALEN)) {
 1166              		.loc 1 278 12
 1167 017e B7070000 		lui	a5,%hi(.LANCHOR3)
 1168 0182 13870700 		addi	a4,a5,%lo(.LANCHOR3)
 1169 0186 BA87     		mv	a5,a4
 1170 0188 25E5     		bne	a0,zero,.L112
 279:C:/Users/stapi/OneDrive/Desktop/GD32VW553/V1_MQTT_OK/GD32VW55X_Wifi_BLE_SDK/GD32VW55x_RELEASE_V1.0.2/MSDK/cloud/alicloud/src/services/awss\awss_aplist.c ****             //FIXME: useless?
 1171              		.loc 1 279 17
 1172 018a 1946     		li	a2,6
 1173 018c A685     		mv	a1,s1
 1174 018e 13054900 		addi	a0,s2,4
 1175 0192 97000000 		call	memcmp
 1175      E7800000 
 1176              	.LVL92:
 279:C:/Users/stapi/OneDrive/Desktop/GD32VW553/V1_MQTT_OK/GD32VW55X_Wifi_BLE_SDK/GD32VW55x_RELEASE_V1.0.2/MSDK/cloud/alicloud/src/services/awss\awss_aplist.c ****             //FIXME: useless?
 1177              		.loc 1 279 13
 1178 019a B7070000 		lui	a5,%hi(.LANCHOR3)
 279:C:/Users/stapi/OneDrive/Desktop/GD32VW553/V1_MQTT_OK/GD32VW55X_Wifi_BLE_SDK/GD32VW55x_RELEASE_V1.0.2/MSDK/cloud/alicloud/src/services/awss\awss_aplist.c ****             //FIXME: useless?
 1179              		.loc 1 279 17
 1180 019e 2A84     		mv	s0,a0
 279:C:/Users/stapi/OneDrive/Desktop/GD32VW553/V1_MQTT_OK/GD32VW55X_Wifi_BLE_SDK/GD32VW55x_RELEASE_V1.0.2/MSDK/cloud/alicloud/src/services/awss\awss_aplist.c ****             //FIXME: useless?
 1181              		.loc 1 279 13
 1182 01a0 93870700 		addi	a5,a5,%lo(.LANCHOR3)
 1183 01a4 31E5     		bne	a0,zero,.L112
 282:C:/Users/stapi/OneDrive/Desktop/GD32VW553/V1_MQTT_OK/GD32VW55X_Wifi_BLE_SDK/GD32VW55x_RELEASE_V1.0.2/MSDK/cloud/alicloud/src/services/awss\awss_aplist.c ****                 zconfig_aplist[i].channel = channel;
 1184              		.loc 1 282 13 is_stmt 1
 282:C:/Users/stapi/OneDrive/Desktop/GD32VW553/V1_MQTT_OK/GD32VW55X_Wifi_BLE_SDK/GD32VW55x_RELEASE_V1.0.2/MSDK/cloud/alicloud/src/services/awss\awss_aplist.c ****                 zconfig_aplist[i].channel = channel;
 1185              		.loc 1 282 16 is_stmt 0
 1186 01a6 83471900 		lbu	a5,1(s2)
 1187 01aa 99E3     		bne	a5,zero,.L113
 283:C:/Users/stapi/OneDrive/Desktop/GD32VW553/V1_MQTT_OK/GD32VW55X_Wifi_BLE_SDK/GD32VW55x_RELEASE_V1.0.2/MSDK/cloud/alicloud/src/services/awss\awss_aplist.c ****             }
 1188              		.loc 1 283 17 is_stmt 1
 283:C:/Users/stapi/OneDrive/Desktop/GD32VW553/V1_MQTT_OK/GD32VW55X_Wifi_BLE_SDK/GD32VW55x_RELEASE_V1.0.2/MSDK/cloud/alicloud/src/services/awss\awss_aplist.c ****             }
 1189              		.loc 1 283 43 is_stmt 0
 1190 01ac A3007901 		sb	s7,1(s2)
 1191              	.L113:
 285:C:/Users/stapi/OneDrive/Desktop/GD32VW553/V1_MQTT_OK/GD32VW55X_Wifi_BLE_SDK/GD32VW55x_RELEASE_V1.0.2/MSDK/cloud/alicloud/src/services/awss\awss_aplist.c ****                 zconfig_aplist[i].auth = auth;
 1192              		.loc 1 285 13 is_stmt 1
 285:C:/Users/stapi/OneDrive/Desktop/GD32VW553/V1_MQTT_OK/GD32VW55X_Wifi_BLE_SDK/GD32VW55x_RELEASE_V1.0.2/MSDK/cloud/alicloud/src/services/awss\awss_aplist.c ****                 zconfig_aplist[i].auth = auth;
 1193              		.loc 1 285 16 is_stmt 0
 1194 01b0 03470900 		lbu	a4,0(s2)
 1195 01b4 9307F00F 		li	a5,255
 1196 01b8 6314F700 		bne	a4,a5,.L114
 286:C:/Users/stapi/OneDrive/Desktop/GD32VW553/V1_MQTT_OK/GD32VW55X_Wifi_BLE_SDK/GD32VW55x_RELEASE_V1.0.2/MSDK/cloud/alicloud/src/services/awss\awss_aplist.c ****             }
 1197              		.loc 1 286 17 is_stmt 1
 286:C:/Users/stapi/OneDrive/Desktop/GD32VW553/V1_MQTT_OK/GD32VW55X_Wifi_BLE_SDK/GD32VW55x_RELEASE_V1.0.2/MSDK/cloud/alicloud/src/services/awss\awss_aplist.c ****             }
 1198              		.loc 1 286 40 is_stmt 0
 1199 01bc 23009901 		sb	s9,0(s2)
 1200              	.L114:
 288:C:/Users/stapi/OneDrive/Desktop/GD32VW553/V1_MQTT_OK/GD32VW55X_Wifi_BLE_SDK/GD32VW55x_RELEASE_V1.0.2/MSDK/cloud/alicloud/src/services/awss\awss_aplist.c ****                 zconfig_aplist[i].encry[0] = group_cipher;
 1201              		.loc 1 288 13 is_stmt 1
 288:C:/Users/stapi/OneDrive/Desktop/GD32VW553/V1_MQTT_OK/GD32VW55X_Wifi_BLE_SDK/GD32VW55x_RELEASE_V1.0.2/MSDK/cloud/alicloud/src/services/awss\awss_aplist.c ****                 zconfig_aplist[i].encry[0] = group_cipher;
 1202              		.loc 1 288 16 is_stmt 0
 1203 01c0 03472900 		lbu	a4,2(s2)
 1204 01c4 9307F00F 		li	a5,255
 1205 01c8 6314F700 		bne	a4,a5,.L115
 289:C:/Users/stapi/OneDrive/Desktop/GD32VW553/V1_MQTT_OK/GD32VW55X_Wifi_BLE_SDK/GD32VW55x_RELEASE_V1.0.2/MSDK/cloud/alicloud/src/services/awss\awss_aplist.c ****             }
 1206              		.loc 1 289 17 is_stmt 1
 289:C:/Users/stapi/OneDrive/Desktop/GD32VW553/V1_MQTT_OK/GD32VW55X_Wifi_BLE_SDK/GD32VW55x_RELEASE_V1.0.2/MSDK/cloud/alicloud/src/services/awss\awss_aplist.c ****             }
 1207              		.loc 1 289 44 is_stmt 0
 1208 01cc 23015901 		sb	s5,2(s2)
 1209              	.L115:
 291:C:/Users/stapi/OneDrive/Desktop/GD32VW553/V1_MQTT_OK/GD32VW55X_Wifi_BLE_SDK/GD32VW55x_RELEASE_V1.0.2/MSDK/cloud/alicloud/src/services/awss\awss_aplist.c ****                 zconfig_aplist[i].encry[1] = pairwise_cipher;
 1210              		.loc 1 291 13 is_stmt 1
 291:C:/Users/stapi/OneDrive/Desktop/GD32VW553/V1_MQTT_OK/GD32VW55X_Wifi_BLE_SDK/GD32VW55x_RELEASE_V1.0.2/MSDK/cloud/alicloud/src/services/awss\awss_aplist.c ****                 zconfig_aplist[i].encry[1] = pairwise_cipher;
 1211              		.loc 1 291 16 is_stmt 0
 1212 01d0 03473900 		lbu	a4,3(s2)
 1213 01d4 9307F00F 		li	a5,255
 1214 01d8 6309F700 		beq	a4,a5,.L116
 1215              	.L120:
 295:C:/Users/stapi/OneDrive/Desktop/GD32VW553/V1_MQTT_OK/GD32VW55X_Wifi_BLE_SDK/GD32VW55x_RELEASE_V1.0.2/MSDK/cloud/alicloud/src/services/awss\awss_aplist.c ****         }
 1216              		.loc 1 295 20
 1217 01dc 0144     		li	s0,0
 1218              	.LVL93:
 1219              	.L102:
 370:C:/Users/stapi/OneDrive/Desktop/GD32VW553/V1_MQTT_OK/GD32VW55X_Wifi_BLE_SDK/GD32VW55x_RELEASE_V1.0.2/MSDK/cloud/alicloud/src/services/awss\awss_aplist.c ****     }
 371:C:/Users/stapi/OneDrive/Desktop/GD32VW553/V1_MQTT_OK/GD32VW55X_Wifi_BLE_SDK/GD32VW55x_RELEASE_V1.0.2/MSDK/cloud/alicloud/src/services/awss\awss_aplist.c **** 
 372:C:/Users/stapi/OneDrive/Desktop/GD32VW553/V1_MQTT_OK/GD32VW55X_Wifi_BLE_SDK/GD32VW55x_RELEASE_V1.0.2/MSDK/cloud/alicloud/src/services/awss\awss_aplist.c ****     return 0;
 373:C:/Users/stapi/OneDrive/Desktop/GD32VW553/V1_MQTT_OK/GD32VW55X_Wifi_BLE_SDK/GD32VW55x_RELEASE_V1.0.2/MSDK/cloud/alicloud/src/services/awss\awss_aplist.c **** }
 1220              		.loc 1 373 1
 1221 01de 2285     		mv	a0,s0
 1222 01e0 0561     		addi	sp,sp,32
 1223              		.cfi_remember_state
 1224              		.cfi_def_cfa_offset 0
 1225 01e2 17030000 		tail	__riscv_restore_12
 1225      67000300 
 1226              		.cfi_restore 27
 1227              		.cfi_restore 26
 1228              		.cfi_restore 25
 1229              		.cfi_restore 24
 1230              		.cfi_restore 23
 1231              		.cfi_restore 22
 1232              		.cfi_restore 21
 1233              		.cfi_restore 20
 1234              		.cfi_restore 19
 1235              		.cfi_restore 18
 1236              		.cfi_restore 9
 1237              		.cfi_restore 8
 1238              		.cfi_restore 1
 1239              		.cfi_def_cfa_offset -64
 1240              	.LVL94:
 1241              	.L116:
 1242              		.cfi_restore_state
 292:C:/Users/stapi/OneDrive/Desktop/GD32VW553/V1_MQTT_OK/GD32VW55X_Wifi_BLE_SDK/GD32VW55x_RELEASE_V1.0.2/MSDK/cloud/alicloud/src/services/awss\awss_aplist.c ****             }
 1243              		.loc 1 292 17 is_stmt 1
 292:C:/Users/stapi/OneDrive/Desktop/GD32VW553/V1_MQTT_OK/GD32VW55X_Wifi_BLE_SDK/GD32VW55x_RELEASE_V1.0.2/MSDK/cloud/alicloud/src/services/awss\awss_aplist.c ****             }
 1244              		.loc 1 292 44 is_stmt 0
 1245 01ea A3018901 		sb	s8,3(s2)
 1246 01ee C5BF     		j	.L102
 1247              	.L112:
 277:C:/Users/stapi/OneDrive/Desktop/GD32VW553/V1_MQTT_OK/GD32VW55X_Wifi_BLE_SDK/GD32VW55x_RELEASE_V1.0.2/MSDK/cloud/alicloud/src/services/awss\awss_aplist.c ****         if (!strncmp(zconfig_aplist[i].ssid, (char *)ssid, ZC_MAX_SSID_LEN)
 1248              		.loc 1 277 41 is_stmt 1 discriminator 2
 277:C:/Users/stapi/OneDrive/Desktop/GD32VW553/V1_MQTT_OK/GD32VW55X_Wifi_BLE_SDK/GD32VW55x_RELEASE_V1.0.2/MSDK/cloud/alicloud/src/services/awss\awss_aplist.c ****         if (!strncmp(zconfig_aplist[i].ssid, (char *)ssid, ZC_MAX_SSID_LEN)
 1249              		.loc 1 277 42 is_stmt 0 discriminator 2
 1250 01f0 850D     		addi	s11,s11,1
 1251              	.LVL95:
 1252 01f2 1309C902 		addi	s2,s2,44
 1253 01f6 6DB5     		j	.L111
 1254              	.L124:
 302:C:/Users/stapi/OneDrive/Desktop/GD32VW553/V1_MQTT_OK/GD32VW55X_Wifi_BLE_SDK/GD32VW55x_RELEASE_V1.0.2/MSDK/cloud/alicloud/src/services/awss\awss_aplist.c ****     }
 1255              		.loc 1 302 11
 1256 01f8 814D     		li	s11,0
 1257              	.LVL96:
 1258 01fa 65BD     		j	.L118
 1259              	.LVL97:
 1260              	.L106:
 255:C:/Users/stapi/OneDrive/Desktop/GD32VW553/V1_MQTT_OK/GD32VW55X_Wifi_BLE_SDK/GD32VW55x_RELEASE_V1.0.2/MSDK/cloud/alicloud/src/services/awss\awss_aplist.c ****         group_cipher = ZC_ENC_TYPE_INVALID;
 1261              		.loc 1 255 5 is_stmt 1
 253:C:/Users/stapi/OneDrive/Desktop/GD32VW553/V1_MQTT_OK/GD32VW55X_Wifi_BLE_SDK/GD32VW55x_RELEASE_V1.0.2/MSDK/cloud/alicloud/src/services/awss\awss_aplist.c ****     }
 1262              		.loc 1 253 25 is_stmt 0
 1263 01fc 130CF00F 		li	s8,255
 255:C:/Users/stapi/OneDrive/Desktop/GD32VW553/V1_MQTT_OK/GD32VW55X_Wifi_BLE_SDK/GD32VW55x_RELEASE_V1.0.2/MSDK/cloud/alicloud/src/services/awss\awss_aplist.c ****         group_cipher = ZC_ENC_TYPE_INVALID;
 1264              		.loc 1 255 8
 1265 0200 E3FC57E5 		bleu	s5,a5,.L108
 256:C:/Users/stapi/OneDrive/Desktop/GD32VW553/V1_MQTT_OK/GD32VW55X_Wifi_BLE_SDK/GD32VW55x_RELEASE_V1.0.2/MSDK/cloud/alicloud/src/services/awss\awss_aplist.c ****     }
 1266              		.loc 1 256 22
 1267 0204 930AF00F 		li	s5,255
 1268 0208 81BD     		j	.L108
 1269              		.cfi_endproc
 1270              	.LFE62:
 1272              		.section	.text.awss_get_auth_info,"ax",@progbits
 1273              		.align	1
 1274              		.globl	awss_get_auth_info
 1276              	awss_get_auth_info:
 1277              	.LFB63:
 374:C:/Users/stapi/OneDrive/Desktop/GD32VW553/V1_MQTT_OK/GD32VW55X_Wifi_BLE_SDK/GD32VW55x_RELEASE_V1.0.2/MSDK/cloud/alicloud/src/services/awss\awss_aplist.c **** 
 375:C:/Users/stapi/OneDrive/Desktop/GD32VW553/V1_MQTT_OK/GD32VW55X_Wifi_BLE_SDK/GD32VW55x_RELEASE_V1.0.2/MSDK/cloud/alicloud/src/services/awss\awss_aplist.c **** /*
 376:C:/Users/stapi/OneDrive/Desktop/GD32VW553/V1_MQTT_OK/GD32VW55X_Wifi_BLE_SDK/GD32VW55x_RELEASE_V1.0.2/MSDK/cloud/alicloud/src/services/awss\awss_aplist.c ****  * [IN] ssid or bssid
 377:C:/Users/stapi/OneDrive/Desktop/GD32VW553/V1_MQTT_OK/GD32VW55X_Wifi_BLE_SDK/GD32VW55x_RELEASE_V1.0.2/MSDK/cloud/alicloud/src/services/awss\awss_aplist.c ****  * [OUT] auth, encry, channel
 378:C:/Users/stapi/OneDrive/Desktop/GD32VW553/V1_MQTT_OK/GD32VW55X_Wifi_BLE_SDK/GD32VW55x_RELEASE_V1.0.2/MSDK/cloud/alicloud/src/services/awss\awss_aplist.c ****  */
 379:C:/Users/stapi/OneDrive/Desktop/GD32VW553/V1_MQTT_OK/GD32VW55X_Wifi_BLE_SDK/GD32VW55x_RELEASE_V1.0.2/MSDK/cloud/alicloud/src/services/awss\awss_aplist.c **** int awss_get_auth_info(uint8_t *ssid, uint8_t *bssid, uint8_t *auth,
 380:C:/Users/stapi/OneDrive/Desktop/GD32VW553/V1_MQTT_OK/GD32VW55X_Wifi_BLE_SDK/GD32VW55x_RELEASE_V1.0.2/MSDK/cloud/alicloud/src/services/awss\awss_aplist.c ****                        uint8_t *encry, uint8_t *channel)
 381:C:/Users/stapi/OneDrive/Desktop/GD32VW553/V1_MQTT_OK/GD32VW55X_Wifi_BLE_SDK/GD32VW55x_RELEASE_V1.0.2/MSDK/cloud/alicloud/src/services/awss\awss_aplist.c **** {
 1278              		.loc 1 381 1 is_stmt 1
 1279              		.cfi_startproc
 1280              	.LVL98:
 1281 0000 17030000 		call	t0,__riscv_save_5
 1281      E7020300 
 1282              		.cfi_offset 20, -24
 1283              		.cfi_offset 19, -20
 1284              		.cfi_offset 18, -16
 1285              		.cfi_offset 9, -12
 1286              		.cfi_offset 8, -8
 1287              		.cfi_offset 1, -4
 1288              		.cfi_def_cfa_offset 32
 382:C:/Users/stapi/OneDrive/Desktop/GD32VW553/V1_MQTT_OK/GD32VW55X_Wifi_BLE_SDK/GD32VW55x_RELEASE_V1.0.2/MSDK/cloud/alicloud/src/services/awss\awss_aplist.c ****     uint8_t *valid_bssid = NULL;
 1289              		.loc 1 382 5
 1290              	.LVL99:
 383:C:/Users/stapi/OneDrive/Desktop/GD32VW553/V1_MQTT_OK/GD32VW55X_Wifi_BLE_SDK/GD32VW55x_RELEASE_V1.0.2/MSDK/cloud/alicloud/src/services/awss\awss_aplist.c ****     struct ap_info *ap_info = NULL;
 1291              		.loc 1 383 5
 384:C:/Users/stapi/OneDrive/Desktop/GD32VW553/V1_MQTT_OK/GD32VW55X_Wifi_BLE_SDK/GD32VW55x_RELEASE_V1.0.2/MSDK/cloud/alicloud/src/services/awss\awss_aplist.c **** 
 385:C:/Users/stapi/OneDrive/Desktop/GD32VW553/V1_MQTT_OK/GD32VW55X_Wifi_BLE_SDK/GD32VW55x_RELEASE_V1.0.2/MSDK/cloud/alicloud/src/services/awss\awss_aplist.c ****     /* sanity check */
 386:C:/Users/stapi/OneDrive/Desktop/GD32VW553/V1_MQTT_OK/GD32VW55X_Wifi_BLE_SDK/GD32VW55x_RELEASE_V1.0.2/MSDK/cloud/alicloud/src/services/awss\awss_aplist.c ****     if (!bssid || !memcmp(bssid, zero_mac, ETH_ALEN)) {
 1292              		.loc 1 386 5
 381:C:/Users/stapi/OneDrive/Desktop/GD32VW553/V1_MQTT_OK/GD32VW55X_Wifi_BLE_SDK/GD32VW55x_RELEASE_V1.0.2/MSDK/cloud/alicloud/src/services/awss\awss_aplist.c ****     uint8_t *valid_bssid = NULL;
 1293              		.loc 1 381 1 is_stmt 0
 1294 0008 2A84     		mv	s0,a0
 1295 000a AE84     		mv	s1,a1
 1296 000c 328A     		mv	s4,a2
 1297 000e B689     		mv	s3,a3
 1298 0010 3A89     		mv	s2,a4
 1299              		.loc 1 386 8
 1300 0012 B5C5     		beq	a1,zero,.L131
 1301              		.loc 1 386 20 discriminator 1
 1302 0014 B7050000 		lui	a1,%hi(zero_mac)
 1303              	.LVL100:
 1304 0018 1946     		li	a2,6
 1305              	.LVL101:
 1306 001a 93850500 		addi	a1,a1,%lo(zero_mac)
 1307 001e 2685     		mv	a0,s1
 1308              	.LVL102:
 1309 0020 97000000 		call	memcmp
 1309      E7800000 
 1310              	.LVL103:
 1311              		.loc 1 386 16 discriminator 1
 1312 0028 39C9     		beq	a0,zero,.L131
 387:C:/Users/stapi/OneDrive/Desktop/GD32VW553/V1_MQTT_OK/GD32VW55X_Wifi_BLE_SDK/GD32VW55x_RELEASE_V1.0.2/MSDK/cloud/alicloud/src/services/awss\awss_aplist.c ****         valid_bssid = NULL;
 388:C:/Users/stapi/OneDrive/Desktop/GD32VW553/V1_MQTT_OK/GD32VW55X_Wifi_BLE_SDK/GD32VW55x_RELEASE_V1.0.2/MSDK/cloud/alicloud/src/services/awss\awss_aplist.c ****     } else {
 389:C:/Users/stapi/OneDrive/Desktop/GD32VW553/V1_MQTT_OK/GD32VW55X_Wifi_BLE_SDK/GD32VW55x_RELEASE_V1.0.2/MSDK/cloud/alicloud/src/services/awss\awss_aplist.c ****         valid_bssid = bssid;
 1313              		.loc 1 389 9 is_stmt 1
 1314              	.LVL104:
 390:C:/Users/stapi/OneDrive/Desktop/GD32VW553/V1_MQTT_OK/GD32VW55X_Wifi_BLE_SDK/GD32VW55x_RELEASE_V1.0.2/MSDK/cloud/alicloud/src/services/awss\awss_aplist.c ****     }
 391:C:/Users/stapi/OneDrive/Desktop/GD32VW553/V1_MQTT_OK/GD32VW55X_Wifi_BLE_SDK/GD32VW55x_RELEASE_V1.0.2/MSDK/cloud/alicloud/src/services/awss\awss_aplist.c **** 
 392:C:/Users/stapi/OneDrive/Desktop/GD32VW553/V1_MQTT_OK/GD32VW55X_Wifi_BLE_SDK/GD32VW55x_RELEASE_V1.0.2/MSDK/cloud/alicloud/src/services/awss\awss_aplist.c ****     /* use mac or ssid to search apinfo */
 393:C:/Users/stapi/OneDrive/Desktop/GD32VW553/V1_MQTT_OK/GD32VW55X_Wifi_BLE_SDK/GD32VW55x_RELEASE_V1.0.2/MSDK/cloud/alicloud/src/services/awss\awss_aplist.c ****     if (valid_bssid) {
 1315              		.loc 1 393 5
 394:C:/Users/stapi/OneDrive/Desktop/GD32VW553/V1_MQTT_OK/GD32VW55X_Wifi_BLE_SDK/GD32VW55x_RELEASE_V1.0.2/MSDK/cloud/alicloud/src/services/awss\awss_aplist.c ****         ap_info = zconfig_get_apinfo(valid_bssid);
 1316              		.loc 1 394 9
 1317              		.loc 1 394 19 is_stmt 0
 1318 002a 2685     		mv	a0,s1
 1319 002c 97000000 		call	zconfig_get_apinfo
 1319      E7800000 
 1320              	.LVL105:
 1321 0034 2A84     		mv	s0,a0
 1322              	.LVL106:
 1323 0036 A687     		mv	a5,s1
 1324              	.LVL107:
 1325              	.L132:
 395:C:/Users/stapi/OneDrive/Desktop/GD32VW553/V1_MQTT_OK/GD32VW55X_Wifi_BLE_SDK/GD32VW55x_RELEASE_V1.0.2/MSDK/cloud/alicloud/src/services/awss\awss_aplist.c ****     } else {
 396:C:/Users/stapi/OneDrive/Desktop/GD32VW553/V1_MQTT_OK/GD32VW55X_Wifi_BLE_SDK/GD32VW55x_RELEASE_V1.0.2/MSDK/cloud/alicloud/src/services/awss\awss_aplist.c ****         ap_info = zconfig_get_apinfo_by_ssid(ssid);
 397:C:/Users/stapi/OneDrive/Desktop/GD32VW553/V1_MQTT_OK/GD32VW55X_Wifi_BLE_SDK/GD32VW55x_RELEASE_V1.0.2/MSDK/cloud/alicloud/src/services/awss\awss_aplist.c ****     }
 398:C:/Users/stapi/OneDrive/Desktop/GD32VW553/V1_MQTT_OK/GD32VW55X_Wifi_BLE_SDK/GD32VW55x_RELEASE_V1.0.2/MSDK/cloud/alicloud/src/services/awss\awss_aplist.c **** 
 399:C:/Users/stapi/OneDrive/Desktop/GD32VW553/V1_MQTT_OK/GD32VW55X_Wifi_BLE_SDK/GD32VW55x_RELEASE_V1.0.2/MSDK/cloud/alicloud/src/services/awss\awss_aplist.c ****     if (!ap_info) {
 1326              		.loc 1 399 5 is_stmt 1
 400:C:/Users/stapi/OneDrive/Desktop/GD32VW553/V1_MQTT_OK/GD32VW55X_Wifi_BLE_SDK/GD32VW55x_RELEASE_V1.0.2/MSDK/cloud/alicloud/src/services/awss\awss_aplist.c ****         return 0;
 1327              		.loc 1 400 16 is_stmt 0
 1328 0038 0145     		li	a0,0
 399:C:/Users/stapi/OneDrive/Desktop/GD32VW553/V1_MQTT_OK/GD32VW55X_Wifi_BLE_SDK/GD32VW55x_RELEASE_V1.0.2/MSDK/cloud/alicloud/src/services/awss\awss_aplist.c ****         return 0;
 1329              		.loc 1 399 8
 1330 003a 15CC     		beq	s0,zero,.L130
 401:C:/Users/stapi/OneDrive/Desktop/GD32VW553/V1_MQTT_OK/GD32VW55X_Wifi_BLE_SDK/GD32VW55x_RELEASE_V1.0.2/MSDK/cloud/alicloud/src/services/awss\awss_aplist.c ****     }
 402:C:/Users/stapi/OneDrive/Desktop/GD32VW553/V1_MQTT_OK/GD32VW55X_Wifi_BLE_SDK/GD32VW55x_RELEASE_V1.0.2/MSDK/cloud/alicloud/src/services/awss\awss_aplist.c **** 
 403:C:/Users/stapi/OneDrive/Desktop/GD32VW553/V1_MQTT_OK/GD32VW55X_Wifi_BLE_SDK/GD32VW55x_RELEASE_V1.0.2/MSDK/cloud/alicloud/src/services/awss\awss_aplist.c ****     if (auth) {
 1331              		.loc 1 403 5 is_stmt 1
 1332              		.loc 1 403 8 is_stmt 0
 1333 003c 63060A00 		beq	s4,zero,.L134
 404:C:/Users/stapi/OneDrive/Desktop/GD32VW553/V1_MQTT_OK/GD32VW55X_Wifi_BLE_SDK/GD32VW55x_RELEASE_V1.0.2/MSDK/cloud/alicloud/src/services/awss\awss_aplist.c ****         *auth = ap_info->auth;
 1334              		.loc 1 404 9 is_stmt 1
 1335              		.loc 1 404 24 is_stmt 0
 1336 0040 03470400 		lbu	a4,0(s0)
 1337              		.loc 1 404 15
 1338 0044 2300EA00 		sb	a4,0(s4)
 1339              	.L134:
 405:C:/Users/stapi/OneDrive/Desktop/GD32VW553/V1_MQTT_OK/GD32VW55X_Wifi_BLE_SDK/GD32VW55x_RELEASE_V1.0.2/MSDK/cloud/alicloud/src/services/awss\awss_aplist.c ****     }
 406:C:/Users/stapi/OneDrive/Desktop/GD32VW553/V1_MQTT_OK/GD32VW55X_Wifi_BLE_SDK/GD32VW55x_RELEASE_V1.0.2/MSDK/cloud/alicloud/src/services/awss\awss_aplist.c ****     if (encry) {
 1340              		.loc 1 406 5 is_stmt 1
 1341              		.loc 1 406 8 is_stmt 0
 1342 0048 63860900 		beq	s3,zero,.L135
 407:C:/Users/stapi/OneDrive/Desktop/GD32VW553/V1_MQTT_OK/GD32VW55X_Wifi_BLE_SDK/GD32VW55x_RELEASE_V1.0.2/MSDK/cloud/alicloud/src/services/awss\awss_aplist.c ****         *encry = ap_info->encry[1];    /* tods side */
 1343              		.loc 1 407 9 is_stmt 1
 1344              		.loc 1 407 32 is_stmt 0
 1345 004c 03473400 		lbu	a4,3(s0)
 1346              		.loc 1 407 16
 1347 0050 2380E900 		sb	a4,0(s3)
 1348              	.L135:
 408:C:/Users/stapi/OneDrive/Desktop/GD32VW553/V1_MQTT_OK/GD32VW55X_Wifi_BLE_SDK/GD32VW55x_RELEASE_V1.0.2/MSDK/cloud/alicloud/src/services/awss\awss_aplist.c ****     }
 409:C:/Users/stapi/OneDrive/Desktop/GD32VW553/V1_MQTT_OK/GD32VW55X_Wifi_BLE_SDK/GD32VW55x_RELEASE_V1.0.2/MSDK/cloud/alicloud/src/services/awss\awss_aplist.c ****     if (!valid_bssid && bssid) {
 1349              		.loc 1 409 5 is_stmt 1
 1350              		.loc 1 409 8 is_stmt 0
 1351 0054 91EB     		bne	a5,zero,.L136
 1352              		.loc 1 409 22 discriminator 1
 1353 0056 89C8     		beq	s1,zero,.L136
 410:C:/Users/stapi/OneDrive/Desktop/GD32VW553/V1_MQTT_OK/GD32VW55X_Wifi_BLE_SDK/GD32VW55x_RELEASE_V1.0.2/MSDK/cloud/alicloud/src/services/awss\awss_aplist.c ****         memcpy(bssid, ap_info->mac, ETH_ALEN);
 1354              		.loc 1 410 9 is_stmt 1
 1355 0058 1946     		li	a2,6
 1356 005a 93054400 		addi	a1,s0,4
 1357 005e 2685     		mv	a0,s1
 1358 0060 97000000 		call	memcpy
 1358      E7800000 
 1359              	.LVL108:
 1360              	.L136:
 411:C:/Users/stapi/OneDrive/Desktop/GD32VW553/V1_MQTT_OK/GD32VW55X_Wifi_BLE_SDK/GD32VW55x_RELEASE_V1.0.2/MSDK/cloud/alicloud/src/services/awss\awss_aplist.c ****     }
 412:C:/Users/stapi/OneDrive/Desktop/GD32VW553/V1_MQTT_OK/GD32VW55X_Wifi_BLE_SDK/GD32VW55x_RELEASE_V1.0.2/MSDK/cloud/alicloud/src/services/awss\awss_aplist.c ****     if (channel) {
 1361              		.loc 1 412 5
 413:C:/Users/stapi/OneDrive/Desktop/GD32VW553/V1_MQTT_OK/GD32VW55X_Wifi_BLE_SDK/GD32VW55x_RELEASE_V1.0.2/MSDK/cloud/alicloud/src/services/awss\awss_aplist.c ****         *channel = ap_info->channel;
 414:C:/Users/stapi/OneDrive/Desktop/GD32VW553/V1_MQTT_OK/GD32VW55X_Wifi_BLE_SDK/GD32VW55x_RELEASE_V1.0.2/MSDK/cloud/alicloud/src/services/awss\awss_aplist.c ****     }
 415:C:/Users/stapi/OneDrive/Desktop/GD32VW553/V1_MQTT_OK/GD32VW55X_Wifi_BLE_SDK/GD32VW55x_RELEASE_V1.0.2/MSDK/cloud/alicloud/src/services/awss\awss_aplist.c **** 
 416:C:/Users/stapi/OneDrive/Desktop/GD32VW553/V1_MQTT_OK/GD32VW55X_Wifi_BLE_SDK/GD32VW55x_RELEASE_V1.0.2/MSDK/cloud/alicloud/src/services/awss\awss_aplist.c ****     return 1;
 1362              		.loc 1 416 12 is_stmt 0
 1363 0068 0545     		li	a0,1
 412:C:/Users/stapi/OneDrive/Desktop/GD32VW553/V1_MQTT_OK/GD32VW55X_Wifi_BLE_SDK/GD32VW55x_RELEASE_V1.0.2/MSDK/cloud/alicloud/src/services/awss\awss_aplist.c ****         *channel = ap_info->channel;
 1364              		.loc 1 412 8
 1365 006a 63060900 		beq	s2,zero,.L130
 413:C:/Users/stapi/OneDrive/Desktop/GD32VW553/V1_MQTT_OK/GD32VW55X_Wifi_BLE_SDK/GD32VW55x_RELEASE_V1.0.2/MSDK/cloud/alicloud/src/services/awss\awss_aplist.c ****         *channel = ap_info->channel;
 1366              		.loc 1 413 9 is_stmt 1
 413:C:/Users/stapi/OneDrive/Desktop/GD32VW553/V1_MQTT_OK/GD32VW55X_Wifi_BLE_SDK/GD32VW55x_RELEASE_V1.0.2/MSDK/cloud/alicloud/src/services/awss\awss_aplist.c ****         *channel = ap_info->channel;
 1367              		.loc 1 413 27 is_stmt 0
 1368 006e 83471400 		lbu	a5,1(s0)
 413:C:/Users/stapi/OneDrive/Desktop/GD32VW553/V1_MQTT_OK/GD32VW55X_Wifi_BLE_SDK/GD32VW55x_RELEASE_V1.0.2/MSDK/cloud/alicloud/src/services/awss\awss_aplist.c ****         *channel = ap_info->channel;
 1369              		.loc 1 413 18
 1370 0072 2300F900 		sb	a5,0(s2)
 1371              	.L130:
 417:C:/Users/stapi/OneDrive/Desktop/GD32VW553/V1_MQTT_OK/GD32VW55X_Wifi_BLE_SDK/GD32VW55x_RELEASE_V1.0.2/MSDK/cloud/alicloud/src/services/awss\awss_aplist.c **** 
 418:C:/Users/stapi/OneDrive/Desktop/GD32VW553/V1_MQTT_OK/GD32VW55X_Wifi_BLE_SDK/GD32VW55x_RELEASE_V1.0.2/MSDK/cloud/alicloud/src/services/awss\awss_aplist.c **** }
 1372              		.loc 1 418 1
 1373 0076 17030000 		tail	__riscv_restore_5
 1373      67000300 
 1374              		.cfi_remember_state
 1375              		.cfi_restore 20
 1376              		.cfi_restore 19
 1377              		.cfi_restore 18
 1378              		.cfi_restore 9
 1379              		.cfi_restore 8
 1380              		.cfi_restore 1
 1381              		.cfi_def_cfa_offset 0
 1382              	.LVL109:
 1383              	.L131:
 1384              		.cfi_restore_state
 396:C:/Users/stapi/OneDrive/Desktop/GD32VW553/V1_MQTT_OK/GD32VW55X_Wifi_BLE_SDK/GD32VW55x_RELEASE_V1.0.2/MSDK/cloud/alicloud/src/services/awss\awss_aplist.c ****     }
 1385              		.loc 1 396 9 is_stmt 1
 396:C:/Users/stapi/OneDrive/Desktop/GD32VW553/V1_MQTT_OK/GD32VW55X_Wifi_BLE_SDK/GD32VW55x_RELEASE_V1.0.2/MSDK/cloud/alicloud/src/services/awss\awss_aplist.c ****     }
 1386              		.loc 1 396 19 is_stmt 0
 1387 007e 2285     		mv	a0,s0
 1388 0080 97000000 		call	zconfig_get_apinfo_by_ssid
 1388      E7800000 
 1389              	.LVL110:
 1390 0088 2A84     		mv	s0,a0
 1391              	.LVL111:
 1392 008a 8147     		li	a5,0
 1393 008c 75B7     		j	.L132
 1394              		.cfi_endproc
 1395              	.LFE63:
 1397              		.section	.text.aws_try_adjust_chan,"ax",@progbits
 1398              		.align	1
 1399              		.globl	aws_try_adjust_chan
 1401              	aws_try_adjust_chan:
 1402              	.LFB64:
 419:C:/Users/stapi/OneDrive/Desktop/GD32VW553/V1_MQTT_OK/GD32VW55X_Wifi_BLE_SDK/GD32VW55x_RELEASE_V1.0.2/MSDK/cloud/alicloud/src/services/awss\awss_aplist.c **** 
 420:C:/Users/stapi/OneDrive/Desktop/GD32VW553/V1_MQTT_OK/GD32VW55X_Wifi_BLE_SDK/GD32VW55x_RELEASE_V1.0.2/MSDK/cloud/alicloud/src/services/awss\awss_aplist.c **** void aws_try_adjust_chan(void)
 421:C:/Users/stapi/OneDrive/Desktop/GD32VW553/V1_MQTT_OK/GD32VW55X_Wifi_BLE_SDK/GD32VW55x_RELEASE_V1.0.2/MSDK/cloud/alicloud/src/services/awss\awss_aplist.c **** {
 1403              		.loc 1 421 1 is_stmt 1
 1404              		.cfi_startproc
 1405 0000 17030000 		call	t0,__riscv_save_1
 1405      E7020300 
 1406              		.cfi_offset 8, -8
 1407              		.cfi_offset 1, -4
 1408              		.cfi_def_cfa_offset 16
 422:C:/Users/stapi/OneDrive/Desktop/GD32VW553/V1_MQTT_OK/GD32VW55X_Wifi_BLE_SDK/GD32VW55x_RELEASE_V1.0.2/MSDK/cloud/alicloud/src/services/awss\awss_aplist.c ****     struct ap_info *ap = NULL;
 1409              		.loc 1 422 5
 1410              	.LVL112:
 423:C:/Users/stapi/OneDrive/Desktop/GD32VW553/V1_MQTT_OK/GD32VW55X_Wifi_BLE_SDK/GD32VW55x_RELEASE_V1.0.2/MSDK/cloud/alicloud/src/services/awss\awss_aplist.c ****     char ssid[ZC_MAX_SSID_LEN] = {0};
 1411              		.loc 1 423 5
 424:C:/Users/stapi/OneDrive/Desktop/GD32VW553/V1_MQTT_OK/GD32VW55X_Wifi_BLE_SDK/GD32VW55x_RELEASE_V1.0.2/MSDK/cloud/alicloud/src/services/awss\awss_aplist.c ****     ap = zconfig_get_apinfo(zc_bssid);
 1412              		.loc 1 424 5
 1413              		.loc 1 424 29 is_stmt 0
 1414 0008 B7070000 		lui	a5,%hi(zconfig_data)
 1415              		.loc 1 424 10
 1416 000c 03A50700 		lw	a0,%lo(zconfig_data)(a5)
 1417 0010 1305A54E 		addi	a0,a0,1258
 1418 0014 97000000 		call	zconfig_get_apinfo
 1418      E7800000 
 1419              	.LVL113:
 425:C:/Users/stapi/OneDrive/Desktop/GD32VW553/V1_MQTT_OK/GD32VW55X_Wifi_BLE_SDK/GD32VW55x_RELEASE_V1.0.2/MSDK/cloud/alicloud/src/services/awss\awss_aplist.c ****     if (ap == NULL) {
 1420              		.loc 1 425 5 is_stmt 1
 1421              		.loc 1 425 8 is_stmt 0
 1422 001c 05C9     		beq	a0,zero,.L155
 1423 001e 2A84     		mv	s0,a0
 426:C:/Users/stapi/OneDrive/Desktop/GD32VW553/V1_MQTT_OK/GD32VW55X_Wifi_BLE_SDK/GD32VW55x_RELEASE_V1.0.2/MSDK/cloud/alicloud/src/services/awss\awss_aplist.c ****         return;
 427:C:/Users/stapi/OneDrive/Desktop/GD32VW553/V1_MQTT_OK/GD32VW55X_Wifi_BLE_SDK/GD32VW55x_RELEASE_V1.0.2/MSDK/cloud/alicloud/src/services/awss\awss_aplist.c ****     }
 428:C:/Users/stapi/OneDrive/Desktop/GD32VW553/V1_MQTT_OK/GD32VW55X_Wifi_BLE_SDK/GD32VW55x_RELEASE_V1.0.2/MSDK/cloud/alicloud/src/services/awss\awss_aplist.c ****     if (zconfig_get_lock_chn() == ap->channel) {
 1424              		.loc 1 428 5 is_stmt 1
 1425              		.loc 1 428 9 is_stmt 0
 1426 0020 97000000 		call	zconfig_get_lock_chn
 1426      E7800000 
 1427              	.LVL114:
 1428              		.loc 1 428 37
 1429 0028 83471400 		lbu	a5,1(s0)
 1430              		.loc 1 428 8
 1431 002c 6300F502 		beq	a0,a5,.L155
 429:C:/Users/stapi/OneDrive/Desktop/GD32VW553/V1_MQTT_OK/GD32VW55X_Wifi_BLE_SDK/GD32VW55x_RELEASE_V1.0.2/MSDK/cloud/alicloud/src/services/awss\awss_aplist.c ****         return;
 430:C:/Users/stapi/OneDrive/Desktop/GD32VW553/V1_MQTT_OK/GD32VW55X_Wifi_BLE_SDK/GD32VW55x_RELEASE_V1.0.2/MSDK/cloud/alicloud/src/services/awss\awss_aplist.c ****     }
 431:C:/Users/stapi/OneDrive/Desktop/GD32VW553/V1_MQTT_OK/GD32VW55X_Wifi_BLE_SDK/GD32VW55x_RELEASE_V1.0.2/MSDK/cloud/alicloud/src/services/awss\awss_aplist.c ****     if (!zconfig_is_valid_channel(ap->channel)) {
 1432              		.loc 1 431 5 is_stmt 1
 1433              	.LVL115:
 1434              	.LBB39:
 1435              	.LBB40:
 1436              		.file 3 "C:/Users/stapi/OneDrive/Desktop/GD32VW553/V1_MQTT_OK/GD32VW55X_Wifi_BLE_SDK/GD32VW55x_REL
   1:C:/Users/stapi/OneDrive/Desktop/GD32VW553/V1_MQTT_OK/GD32VW55X_Wifi_BLE_SDK/GD32VW55x_RELEASE_V1.0.2/MSDK/cloud/alicloud/src/services/awss\zconfig_protocol.h **** /*
   2:C:/Users/stapi/OneDrive/Desktop/GD32VW553/V1_MQTT_OK/GD32VW55X_Wifi_BLE_SDK/GD32VW55x_RELEASE_V1.0.2/MSDK/cloud/alicloud/src/services/awss\zconfig_protocol.h ****  * Copyright (C) 2015-2018 Alibaba Group Holding Limited
   3:C:/Users/stapi/OneDrive/Desktop/GD32VW553/V1_MQTT_OK/GD32VW55X_Wifi_BLE_SDK/GD32VW55x_RELEASE_V1.0.2/MSDK/cloud/alicloud/src/services/awss\zconfig_protocol.h ****  */
   4:C:/Users/stapi/OneDrive/Desktop/GD32VW553/V1_MQTT_OK/GD32VW55X_Wifi_BLE_SDK/GD32VW55x_RELEASE_V1.0.2/MSDK/cloud/alicloud/src/services/awss\zconfig_protocol.h **** 
   5:C:/Users/stapi/OneDrive/Desktop/GD32VW553/V1_MQTT_OK/GD32VW55X_Wifi_BLE_SDK/GD32VW55x_RELEASE_V1.0.2/MSDK/cloud/alicloud/src/services/awss\zconfig_protocol.h **** #ifndef __ZCONFIG_PROTOCOL_H__
   6:C:/Users/stapi/OneDrive/Desktop/GD32VW553/V1_MQTT_OK/GD32VW55X_Wifi_BLE_SDK/GD32VW55x_RELEASE_V1.0.2/MSDK/cloud/alicloud/src/services/awss\zconfig_protocol.h **** #define __ZCONFIG_PROTOCOL_H__
   7:C:/Users/stapi/OneDrive/Desktop/GD32VW553/V1_MQTT_OK/GD32VW55X_Wifi_BLE_SDK/GD32VW55x_RELEASE_V1.0.2/MSDK/cloud/alicloud/src/services/awss\zconfig_protocol.h **** 
   8:C:/Users/stapi/OneDrive/Desktop/GD32VW553/V1_MQTT_OK/GD32VW55X_Wifi_BLE_SDK/GD32VW55x_RELEASE_V1.0.2/MSDK/cloud/alicloud/src/services/awss\zconfig_protocol.h **** #include <stdint.h>
   9:C:/Users/stapi/OneDrive/Desktop/GD32VW553/V1_MQTT_OK/GD32VW55X_Wifi_BLE_SDK/GD32VW55x_RELEASE_V1.0.2/MSDK/cloud/alicloud/src/services/awss\zconfig_protocol.h **** #include "zconfig_utils.h"
  10:C:/Users/stapi/OneDrive/Desktop/GD32VW553/V1_MQTT_OK/GD32VW55X_Wifi_BLE_SDK/GD32VW55x_RELEASE_V1.0.2/MSDK/cloud/alicloud/src/services/awss\zconfig_protocol.h **** #include "zconfig_ieee80211.h"
  11:C:/Users/stapi/OneDrive/Desktop/GD32VW553/V1_MQTT_OK/GD32VW55X_Wifi_BLE_SDK/GD32VW55x_RELEASE_V1.0.2/MSDK/cloud/alicloud/src/services/awss\zconfig_protocol.h **** #include "zconfig_lib.h"
  12:C:/Users/stapi/OneDrive/Desktop/GD32VW553/V1_MQTT_OK/GD32VW55X_Wifi_BLE_SDK/GD32VW55x_RELEASE_V1.0.2/MSDK/cloud/alicloud/src/services/awss\zconfig_protocol.h **** 
  13:C:/Users/stapi/OneDrive/Desktop/GD32VW553/V1_MQTT_OK/GD32VW55X_Wifi_BLE_SDK/GD32VW55x_RELEASE_V1.0.2/MSDK/cloud/alicloud/src/services/awss\zconfig_protocol.h **** #if defined(__cplusplus)  /* If this is a C++ compiler, use C linkage */
  14:C:/Users/stapi/OneDrive/Desktop/GD32VW553/V1_MQTT_OK/GD32VW55X_Wifi_BLE_SDK/GD32VW55x_RELEASE_V1.0.2/MSDK/cloud/alicloud/src/services/awss\zconfig_protocol.h **** extern "C"
  15:C:/Users/stapi/OneDrive/Desktop/GD32VW553/V1_MQTT_OK/GD32VW55X_Wifi_BLE_SDK/GD32VW55x_RELEASE_V1.0.2/MSDK/cloud/alicloud/src/services/awss\zconfig_protocol.h **** {
  16:C:/Users/stapi/OneDrive/Desktop/GD32VW553/V1_MQTT_OK/GD32VW55X_Wifi_BLE_SDK/GD32VW55x_RELEASE_V1.0.2/MSDK/cloud/alicloud/src/services/awss\zconfig_protocol.h **** #endif
  17:C:/Users/stapi/OneDrive/Desktop/GD32VW553/V1_MQTT_OK/GD32VW55X_Wifi_BLE_SDK/GD32VW55x_RELEASE_V1.0.2/MSDK/cloud/alicloud/src/services/awss\zconfig_protocol.h **** 
  18:C:/Users/stapi/OneDrive/Desktop/GD32VW553/V1_MQTT_OK/GD32VW55X_Wifi_BLE_SDK/GD32VW55x_RELEASE_V1.0.2/MSDK/cloud/alicloud/src/services/awss\zconfig_protocol.h **** enum state_machine {
  19:C:/Users/stapi/OneDrive/Desktop/GD32VW553/V1_MQTT_OK/GD32VW55X_Wifi_BLE_SDK/GD32VW55x_RELEASE_V1.0.2/MSDK/cloud/alicloud/src/services/awss\zconfig_protocol.h ****     STATE_CHN_SCANNING,
  20:C:/Users/stapi/OneDrive/Desktop/GD32VW553/V1_MQTT_OK/GD32VW55X_Wifi_BLE_SDK/GD32VW55x_RELEASE_V1.0.2/MSDK/cloud/alicloud/src/services/awss\zconfig_protocol.h ****     STATE_CHN_LOCKED_BY_P2P,  // wps/action used for enrollee
  21:C:/Users/stapi/OneDrive/Desktop/GD32VW553/V1_MQTT_OK/GD32VW55X_Wifi_BLE_SDK/GD32VW55x_RELEASE_V1.0.2/MSDK/cloud/alicloud/src/services/awss\zconfig_protocol.h ****     STATE_CHN_LOCKED_BY_MCAST,   /* broadcast used for smartconfig */
  22:C:/Users/stapi/OneDrive/Desktop/GD32VW553/V1_MQTT_OK/GD32VW55X_Wifi_BLE_SDK/GD32VW55x_RELEASE_V1.0.2/MSDK/cloud/alicloud/src/services/awss\zconfig_protocol.h ****     STATE_CHN_LOCKED_BY_BR,   // broadcast used for smartconfig
  23:C:/Users/stapi/OneDrive/Desktop/GD32VW553/V1_MQTT_OK/GD32VW55X_Wifi_BLE_SDK/GD32VW55x_RELEASE_V1.0.2/MSDK/cloud/alicloud/src/services/awss\zconfig_protocol.h ****     STATE_GOT_BEACON,
  24:C:/Users/stapi/OneDrive/Desktop/GD32VW553/V1_MQTT_OK/GD32VW55X_Wifi_BLE_SDK/GD32VW55x_RELEASE_V1.0.2/MSDK/cloud/alicloud/src/services/awss\zconfig_protocol.h ****     STATE_RCV_IN_PROGRESS,
  25:C:/Users/stapi/OneDrive/Desktop/GD32VW553/V1_MQTT_OK/GD32VW55X_Wifi_BLE_SDK/GD32VW55x_RELEASE_V1.0.2/MSDK/cloud/alicloud/src/services/awss\zconfig_protocol.h ****     STATE_RCV_COMPLETE,
  26:C:/Users/stapi/OneDrive/Desktop/GD32VW553/V1_MQTT_OK/GD32VW55X_Wifi_BLE_SDK/GD32VW55x_RELEASE_V1.0.2/MSDK/cloud/alicloud/src/services/awss\zconfig_protocol.h ****     STATE_RCV_DONE
  27:C:/Users/stapi/OneDrive/Desktop/GD32VW553/V1_MQTT_OK/GD32VW55X_Wifi_BLE_SDK/GD32VW55x_RELEASE_V1.0.2/MSDK/cloud/alicloud/src/services/awss\zconfig_protocol.h **** };
  28:C:/Users/stapi/OneDrive/Desktop/GD32VW553/V1_MQTT_OK/GD32VW55X_Wifi_BLE_SDK/GD32VW55x_RELEASE_V1.0.2/MSDK/cloud/alicloud/src/services/awss\zconfig_protocol.h **** 
  29:C:/Users/stapi/OneDrive/Desktop/GD32VW553/V1_MQTT_OK/GD32VW55X_Wifi_BLE_SDK/GD32VW55x_RELEASE_V1.0.2/MSDK/cloud/alicloud/src/services/awss\zconfig_protocol.h **** enum _GOT_RESULT_ {
  30:C:/Users/stapi/OneDrive/Desktop/GD32VW553/V1_MQTT_OK/GD32VW55X_Wifi_BLE_SDK/GD32VW55x_RELEASE_V1.0.2/MSDK/cloud/alicloud/src/services/awss\zconfig_protocol.h ****     GOT_NOTHING = 0,
  31:C:/Users/stapi/OneDrive/Desktop/GD32VW553/V1_MQTT_OK/GD32VW55X_Wifi_BLE_SDK/GD32VW55x_RELEASE_V1.0.2/MSDK/cloud/alicloud/src/services/awss\zconfig_protocol.h ****     GOT_CHN_LOCK = 1,
  32:C:/Users/stapi/OneDrive/Desktop/GD32VW553/V1_MQTT_OK/GD32VW55X_Wifi_BLE_SDK/GD32VW55x_RELEASE_V1.0.2/MSDK/cloud/alicloud/src/services/awss\zconfig_protocol.h ****     GOT_SSID_PASSWD = 2,
  33:C:/Users/stapi/OneDrive/Desktop/GD32VW553/V1_MQTT_OK/GD32VW55X_Wifi_BLE_SDK/GD32VW55x_RELEASE_V1.0.2/MSDK/cloud/alicloud/src/services/awss\zconfig_protocol.h **** };
  34:C:/Users/stapi/OneDrive/Desktop/GD32VW553/V1_MQTT_OK/GD32VW55X_Wifi_BLE_SDK/GD32VW55x_RELEASE_V1.0.2/MSDK/cloud/alicloud/src/services/awss\zconfig_protocol.h **** 
  35:C:/Users/stapi/OneDrive/Desktop/GD32VW553/V1_MQTT_OK/GD32VW55X_Wifi_BLE_SDK/GD32VW55x_RELEASE_V1.0.2/MSDK/cloud/alicloud/src/services/awss\zconfig_protocol.h **** #define MCAST_MAX_LEN (126)
  36:C:/Users/stapi/OneDrive/Desktop/GD32VW553/V1_MQTT_OK/GD32VW55X_Wifi_BLE_SDK/GD32VW55x_RELEASE_V1.0.2/MSDK/cloud/alicloud/src/services/awss\zconfig_protocol.h **** struct mcast_smartconfig_data_type {
  37:C:/Users/stapi/OneDrive/Desktop/GD32VW553/V1_MQTT_OK/GD32VW55X_Wifi_BLE_SDK/GD32VW55x_RELEASE_V1.0.2/MSDK/cloud/alicloud/src/services/awss\zconfig_protocol.h **** /* result, final result */
  38:C:/Users/stapi/OneDrive/Desktop/GD32VW553/V1_MQTT_OK/GD32VW55X_Wifi_BLE_SDK/GD32VW55x_RELEASE_V1.0.2/MSDK/cloud/alicloud/src/services/awss\zconfig_protocol.h **** uint8_t tlen;
  39:C:/Users/stapi/OneDrive/Desktop/GD32VW553/V1_MQTT_OK/GD32VW55X_Wifi_BLE_SDK/GD32VW55x_RELEASE_V1.0.2/MSDK/cloud/alicloud/src/services/awss\zconfig_protocol.h **** uint8_t flag;
  40:C:/Users/stapi/OneDrive/Desktop/GD32VW553/V1_MQTT_OK/GD32VW55X_Wifi_BLE_SDK/GD32VW55x_RELEASE_V1.0.2/MSDK/cloud/alicloud/src/services/awss\zconfig_protocol.h **** uint8_t passwd_len;
  41:C:/Users/stapi/OneDrive/Desktop/GD32VW553/V1_MQTT_OK/GD32VW55X_Wifi_BLE_SDK/GD32VW55x_RELEASE_V1.0.2/MSDK/cloud/alicloud/src/services/awss\zconfig_protocol.h **** uint8_t *passwd;
  42:C:/Users/stapi/OneDrive/Desktop/GD32VW553/V1_MQTT_OK/GD32VW55X_Wifi_BLE_SDK/GD32VW55x_RELEASE_V1.0.2/MSDK/cloud/alicloud/src/services/awss\zconfig_protocol.h **** uint8_t ssid_len;
  43:C:/Users/stapi/OneDrive/Desktop/GD32VW553/V1_MQTT_OK/GD32VW55X_Wifi_BLE_SDK/GD32VW55x_RELEASE_V1.0.2/MSDK/cloud/alicloud/src/services/awss\zconfig_protocol.h **** uint8_t *ssid;
  44:C:/Users/stapi/OneDrive/Desktop/GD32VW553/V1_MQTT_OK/GD32VW55X_Wifi_BLE_SDK/GD32VW55x_RELEASE_V1.0.2/MSDK/cloud/alicloud/src/services/awss\zconfig_protocol.h **** uint8_t token_len;
  45:C:/Users/stapi/OneDrive/Desktop/GD32VW553/V1_MQTT_OK/GD32VW55X_Wifi_BLE_SDK/GD32VW55x_RELEASE_V1.0.2/MSDK/cloud/alicloud/src/services/awss\zconfig_protocol.h **** uint8_t *token;
  46:C:/Users/stapi/OneDrive/Desktop/GD32VW553/V1_MQTT_OK/GD32VW55X_Wifi_BLE_SDK/GD32VW55x_RELEASE_V1.0.2/MSDK/cloud/alicloud/src/services/awss\zconfig_protocol.h **** uint8_t bssid_type_len;
  47:C:/Users/stapi/OneDrive/Desktop/GD32VW553/V1_MQTT_OK/GD32VW55X_Wifi_BLE_SDK/GD32VW55x_RELEASE_V1.0.2/MSDK/cloud/alicloud/src/services/awss\zconfig_protocol.h **** uint8_t *bssid;
  48:C:/Users/stapi/OneDrive/Desktop/GD32VW553/V1_MQTT_OK/GD32VW55X_Wifi_BLE_SDK/GD32VW55x_RELEASE_V1.0.2/MSDK/cloud/alicloud/src/services/awss\zconfig_protocol.h **** uint8_t ssid_is_gbk;
  49:C:/Users/stapi/OneDrive/Desktop/GD32VW553/V1_MQTT_OK/GD32VW55X_Wifi_BLE_SDK/GD32VW55x_RELEASE_V1.0.2/MSDK/cloud/alicloud/src/services/awss\zconfig_protocol.h **** uint8_t ssid_auto_complete_disable;
  50:C:/Users/stapi/OneDrive/Desktop/GD32VW553/V1_MQTT_OK/GD32VW55X_Wifi_BLE_SDK/GD32VW55x_RELEASE_V1.0.2/MSDK/cloud/alicloud/src/services/awss\zconfig_protocol.h **** uint8_t data[MCAST_MAX_LEN];
  51:C:/Users/stapi/OneDrive/Desktop/GD32VW553/V1_MQTT_OK/GD32VW55X_Wifi_BLE_SDK/GD32VW55x_RELEASE_V1.0.2/MSDK/cloud/alicloud/src/services/awss\zconfig_protocol.h **** uint8_t checksum;
  52:C:/Users/stapi/OneDrive/Desktop/GD32VW553/V1_MQTT_OK/GD32VW55X_Wifi_BLE_SDK/GD32VW55x_RELEASE_V1.0.2/MSDK/cloud/alicloud/src/services/awss\zconfig_protocol.h **** };
  53:C:/Users/stapi/OneDrive/Desktop/GD32VW553/V1_MQTT_OK/GD32VW55X_Wifi_BLE_SDK/GD32VW55x_RELEASE_V1.0.2/MSDK/cloud/alicloud/src/services/awss\zconfig_protocol.h **** 
  54:C:/Users/stapi/OneDrive/Desktop/GD32VW553/V1_MQTT_OK/GD32VW55X_Wifi_BLE_SDK/GD32VW55x_RELEASE_V1.0.2/MSDK/cloud/alicloud/src/services/awss\zconfig_protocol.h **** #define PASSWD_ENCRYPT_BIT_OFFSET (1)
  55:C:/Users/stapi/OneDrive/Desktop/GD32VW553/V1_MQTT_OK/GD32VW55X_Wifi_BLE_SDK/GD32VW55x_RELEASE_V1.0.2/MSDK/cloud/alicloud/src/services/awss\zconfig_protocol.h **** #define PASSWD_ENCRYPT_MASK       (0x06)
  56:C:/Users/stapi/OneDrive/Desktop/GD32VW553/V1_MQTT_OK/GD32VW55X_Wifi_BLE_SDK/GD32VW55x_RELEASE_V1.0.2/MSDK/cloud/alicloud/src/services/awss\zconfig_protocol.h **** #define SSID_EXIST_BIT            (0)
  57:C:/Users/stapi/OneDrive/Desktop/GD32VW553/V1_MQTT_OK/GD32VW55X_Wifi_BLE_SDK/GD32VW55x_RELEASE_V1.0.2/MSDK/cloud/alicloud/src/services/awss\zconfig_protocol.h **** #define SSID_EXIST_MASK           (1 << SSID_EXIST_BIT)
  58:C:/Users/stapi/OneDrive/Desktop/GD32VW553/V1_MQTT_OK/GD32VW55X_Wifi_BLE_SDK/GD32VW55x_RELEASE_V1.0.2/MSDK/cloud/alicloud/src/services/awss\zconfig_protocol.h **** #define SSID_ENCODE_BIT           (5)
  59:C:/Users/stapi/OneDrive/Desktop/GD32VW553/V1_MQTT_OK/GD32VW55X_Wifi_BLE_SDK/GD32VW55x_RELEASE_V1.0.2/MSDK/cloud/alicloud/src/services/awss\zconfig_protocol.h **** #define SSID_ENCODE_MASK          (1 << SSID_ENCODE_BIT)
  60:C:/Users/stapi/OneDrive/Desktop/GD32VW553/V1_MQTT_OK/GD32VW55X_Wifi_BLE_SDK/GD32VW55x_RELEASE_V1.0.2/MSDK/cloud/alicloud/src/services/awss\zconfig_protocol.h **** 
  61:C:/Users/stapi/OneDrive/Desktop/GD32VW553/V1_MQTT_OK/GD32VW55X_Wifi_BLE_SDK/GD32VW55x_RELEASE_V1.0.2/MSDK/cloud/alicloud/src/services/awss\zconfig_protocol.h **** enum passwd_encpyt_type {
  62:C:/Users/stapi/OneDrive/Desktop/GD32VW553/V1_MQTT_OK/GD32VW55X_Wifi_BLE_SDK/GD32VW55x_RELEASE_V1.0.2/MSDK/cloud/alicloud/src/services/awss\zconfig_protocol.h ****     PASSWD_ENCRYPT_OPEN = 0,
  63:C:/Users/stapi/OneDrive/Desktop/GD32VW553/V1_MQTT_OK/GD32VW55X_Wifi_BLE_SDK/GD32VW55x_RELEASE_V1.0.2/MSDK/cloud/alicloud/src/services/awss\zconfig_protocol.h ****     PASSWD_ENCRYPT_CIPHER,
  64:C:/Users/stapi/OneDrive/Desktop/GD32VW553/V1_MQTT_OK/GD32VW55X_Wifi_BLE_SDK/GD32VW55x_RELEASE_V1.0.2/MSDK/cloud/alicloud/src/services/awss\zconfig_protocol.h ****     PASSWD_ENCRYPT_AESCFB,
  65:C:/Users/stapi/OneDrive/Desktop/GD32VW553/V1_MQTT_OK/GD32VW55X_Wifi_BLE_SDK/GD32VW55x_RELEASE_V1.0.2/MSDK/cloud/alicloud/src/services/awss\zconfig_protocol.h ****     PASSWD_ENCRYPT_AESOFB,
  66:C:/Users/stapi/OneDrive/Desktop/GD32VW553/V1_MQTT_OK/GD32VW55X_Wifi_BLE_SDK/GD32VW55x_RELEASE_V1.0.2/MSDK/cloud/alicloud/src/services/awss\zconfig_protocol.h **** };
  67:C:/Users/stapi/OneDrive/Desktop/GD32VW553/V1_MQTT_OK/GD32VW55X_Wifi_BLE_SDK/GD32VW55x_RELEASE_V1.0.2/MSDK/cloud/alicloud/src/services/awss\zconfig_protocol.h **** 
  68:C:/Users/stapi/OneDrive/Desktop/GD32VW553/V1_MQTT_OK/GD32VW55X_Wifi_BLE_SDK/GD32VW55x_RELEASE_V1.0.2/MSDK/cloud/alicloud/src/services/awss\zconfig_protocol.h **** #define flag_tods(tods)           ((tods) ? 'T' : 'F')
  69:C:/Users/stapi/OneDrive/Desktop/GD32VW553/V1_MQTT_OK/GD32VW55X_Wifi_BLE_SDK/GD32VW55x_RELEASE_V1.0.2/MSDK/cloud/alicloud/src/services/awss\zconfig_protocol.h **** 
  70:C:/Users/stapi/OneDrive/Desktop/GD32VW553/V1_MQTT_OK/GD32VW55X_Wifi_BLE_SDK/GD32VW55x_RELEASE_V1.0.2/MSDK/cloud/alicloud/src/services/awss\zconfig_protocol.h **** #define ZC_MAX_CHANNEL            (14)
  71:C:/Users/stapi/OneDrive/Desktop/GD32VW553/V1_MQTT_OK/GD32VW55X_Wifi_BLE_SDK/GD32VW55x_RELEASE_V1.0.2/MSDK/cloud/alicloud/src/services/awss\zconfig_protocol.h **** #define ZC_MIN_CHANNEL            (1)
  72:C:/Users/stapi/OneDrive/Desktop/GD32VW553/V1_MQTT_OK/GD32VW55X_Wifi_BLE_SDK/GD32VW55x_RELEASE_V1.0.2/MSDK/cloud/alicloud/src/services/awss\zconfig_protocol.h **** static inline int zconfig_is_valid_channel(int channel)
  73:C:/Users/stapi/OneDrive/Desktop/GD32VW553/V1_MQTT_OK/GD32VW55X_Wifi_BLE_SDK/GD32VW55x_RELEASE_V1.0.2/MSDK/cloud/alicloud/src/services/awss\zconfig_protocol.h **** {
  74:C:/Users/stapi/OneDrive/Desktop/GD32VW553/V1_MQTT_OK/GD32VW55X_Wifi_BLE_SDK/GD32VW55x_RELEASE_V1.0.2/MSDK/cloud/alicloud/src/services/awss\zconfig_protocol.h ****     return (ZC_MIN_CHANNEL <= channel && channel <= ZC_MAX_CHANNEL);
 1437              		.loc 3 74 5
 1438              		.loc 3 74 39 is_stmt 0
 1439 0030 1387F7FF 		addi	a4,a5,-1
 1440              	.LBE40:
 1441              	.LBE39:
 1442              		.loc 1 431 8
 1443 0034 B546     		li	a3,13
 1444 0036 63EBE600 		bgtu	a4,a3,.L155
 432:C:/Users/stapi/OneDrive/Desktop/GD32VW553/V1_MQTT_OK/GD32VW55X_Wifi_BLE_SDK/GD32VW55x_RELEASE_V1.0.2/MSDK/cloud/alicloud/src/services/awss\awss_aplist.c ****         return;
 433:C:/Users/stapi/OneDrive/Desktop/GD32VW553/V1_MQTT_OK/GD32VW55X_Wifi_BLE_SDK/GD32VW55x_RELEASE_V1.0.2/MSDK/cloud/alicloud/src/services/awss\awss_aplist.c ****     }
 434:C:/Users/stapi/OneDrive/Desktop/GD32VW553/V1_MQTT_OK/GD32VW55X_Wifi_BLE_SDK/GD32VW55x_RELEASE_V1.0.2/MSDK/cloud/alicloud/src/services/awss\awss_aplist.c ****     strncpy(ssid, (const char *)ap->ssid, ZC_MAX_SSID_LEN - 1);
 1445              		.loc 1 434 5 is_stmt 1
 435:C:/Users/stapi/OneDrive/Desktop/GD32VW553/V1_MQTT_OK/GD32VW55X_Wifi_BLE_SDK/GD32VW55x_RELEASE_V1.0.2/MSDK/cloud/alicloud/src/services/awss\awss_aplist.c **** 
 436:C:/Users/stapi/OneDrive/Desktop/GD32VW553/V1_MQTT_OK/GD32VW55X_Wifi_BLE_SDK/GD32VW55x_RELEASE_V1.0.2/MSDK/cloud/alicloud/src/services/awss\awss_aplist.c **** #ifdef AWSS_SUPPORT_AHA
 437:C:/Users/stapi/OneDrive/Desktop/GD32VW553/V1_MQTT_OK/GD32VW55X_Wifi_BLE_SDK/GD32VW55x_RELEASE_V1.0.2/MSDK/cloud/alicloud/src/services/awss\awss_aplist.c ****     if (strlen(ssid) == strlen(zc_default_ssid) &&
 438:C:/Users/stapi/OneDrive/Desktop/GD32VW553/V1_MQTT_OK/GD32VW55X_Wifi_BLE_SDK/GD32VW55x_RELEASE_V1.0.2/MSDK/cloud/alicloud/src/services/awss\awss_aplist.c ****         strncmp(ap->ssid, zc_default_ssid, strlen(zc_default_ssid)) == 0) {
 439:C:/Users/stapi/OneDrive/Desktop/GD32VW553/V1_MQTT_OK/GD32VW55X_Wifi_BLE_SDK/GD32VW55x_RELEASE_V1.0.2/MSDK/cloud/alicloud/src/services/awss\awss_aplist.c ****         return;
 440:C:/Users/stapi/OneDrive/Desktop/GD32VW553/V1_MQTT_OK/GD32VW55X_Wifi_BLE_SDK/GD32VW55x_RELEASE_V1.0.2/MSDK/cloud/alicloud/src/services/awss\awss_aplist.c ****     }
 441:C:/Users/stapi/OneDrive/Desktop/GD32VW553/V1_MQTT_OK/GD32VW55X_Wifi_BLE_SDK/GD32VW55x_RELEASE_V1.0.2/MSDK/cloud/alicloud/src/services/awss\awss_aplist.c **** #endif
 442:C:/Users/stapi/OneDrive/Desktop/GD32VW553/V1_MQTT_OK/GD32VW55X_Wifi_BLE_SDK/GD32VW55x_RELEASE_V1.0.2/MSDK/cloud/alicloud/src/services/awss\awss_aplist.c **** #ifdef AWSS_SUPPORT_ADHA
 443:C:/Users/stapi/OneDrive/Desktop/GD32VW553/V1_MQTT_OK/GD32VW55X_Wifi_BLE_SDK/GD32VW55x_RELEASE_V1.0.2/MSDK/cloud/alicloud/src/services/awss\awss_aplist.c ****     if (strlen(ssid) == strlen(zc_adha_ssid) &&
 444:C:/Users/stapi/OneDrive/Desktop/GD32VW553/V1_MQTT_OK/GD32VW55X_Wifi_BLE_SDK/GD32VW55x_RELEASE_V1.0.2/MSDK/cloud/alicloud/src/services/awss\awss_aplist.c ****         strncmp(ap->ssid, zc_adha_ssid, strlen(zc_adha_ssid)) == 0) {
 445:C:/Users/stapi/OneDrive/Desktop/GD32VW553/V1_MQTT_OK/GD32VW55X_Wifi_BLE_SDK/GD32VW55x_RELEASE_V1.0.2/MSDK/cloud/alicloud/src/services/awss\awss_aplist.c ****         return;
 446:C:/Users/stapi/OneDrive/Desktop/GD32VW553/V1_MQTT_OK/GD32VW55X_Wifi_BLE_SDK/GD32VW55x_RELEASE_V1.0.2/MSDK/cloud/alicloud/src/services/awss\awss_aplist.c ****     }
 447:C:/Users/stapi/OneDrive/Desktop/GD32VW553/V1_MQTT_OK/GD32VW55X_Wifi_BLE_SDK/GD32VW55x_RELEASE_V1.0.2/MSDK/cloud/alicloud/src/services/awss\awss_aplist.c **** #endif
 448:C:/Users/stapi/OneDrive/Desktop/GD32VW553/V1_MQTT_OK/GD32VW55X_Wifi_BLE_SDK/GD32VW55x_RELEASE_V1.0.2/MSDK/cloud/alicloud/src/services/awss\awss_aplist.c **** 
 449:C:/Users/stapi/OneDrive/Desktop/GD32VW553/V1_MQTT_OK/GD32VW55X_Wifi_BLE_SDK/GD32VW55x_RELEASE_V1.0.2/MSDK/cloud/alicloud/src/services/awss\awss_aplist.c ****     aws_set_dst_chan(ap->channel);
 1446              		.loc 1 449 5
 1447 003a 3E85     		mv	a0,a5
 1448 003c 97000000 		call	aws_set_dst_chan
 1448      E7800000 
 1449              	.LVL116:
 450:C:/Users/stapi/OneDrive/Desktop/GD32VW553/V1_MQTT_OK/GD32VW55X_Wifi_BLE_SDK/GD32VW55x_RELEASE_V1.0.2/MSDK/cloud/alicloud/src/services/awss\awss_aplist.c ****     aws_switch_channel();
 1450              		.loc 1 450 5
 1451 0044 97000000 		call	aws_switch_channel
 1451      E7800000 
 1452              	.LVL117:
 1453              	.L155:
 451:C:/Users/stapi/OneDrive/Desktop/GD32VW553/V1_MQTT_OK/GD32VW55X_Wifi_BLE_SDK/GD32VW55x_RELEASE_V1.0.2/MSDK/cloud/alicloud/src/services/awss\awss_aplist.c **** }
 1454              		.loc 1 451 1 is_stmt 0
 1455 004c 17030000 		tail	__riscv_restore_1
 1455      67000300 
 1456              		.cfi_restore 8
 1457              		.cfi_restore 1
 1458              		.cfi_def_cfa_offset 0
 1459              		.cfi_endproc
 1460              	.LFE64:
 1462              		.section	.text.awss_ieee80211_aplist_process,"ax",@progbits
 1463              		.align	1
 1464              		.globl	awss_ieee80211_aplist_process
 1466              	awss_ieee80211_aplist_process:
 1467              	.LFB65:
 452:C:/Users/stapi/OneDrive/Desktop/GD32VW553/V1_MQTT_OK/GD32VW55X_Wifi_BLE_SDK/GD32VW55x_RELEASE_V1.0.2/MSDK/cloud/alicloud/src/services/awss\awss_aplist.c **** 
 453:C:/Users/stapi/OneDrive/Desktop/GD32VW553/V1_MQTT_OK/GD32VW55X_Wifi_BLE_SDK/GD32VW55x_RELEASE_V1.0.2/MSDK/cloud/alicloud/src/services/awss\awss_aplist.c **** int awss_ieee80211_aplist_process(uint8_t *mgmt_header, int len, int link_type, struct parser_res *
 454:C:/Users/stapi/OneDrive/Desktop/GD32VW553/V1_MQTT_OK/GD32VW55X_Wifi_BLE_SDK/GD32VW55x_RELEASE_V1.0.2/MSDK/cloud/alicloud/src/services/awss\awss_aplist.c ****                                   signed char rssi)
 455:C:/Users/stapi/OneDrive/Desktop/GD32VW553/V1_MQTT_OK/GD32VW55X_Wifi_BLE_SDK/GD32VW55x_RELEASE_V1.0.2/MSDK/cloud/alicloud/src/services/awss\awss_aplist.c **** {
 1468              		.loc 1 455 1 is_stmt 1
 1469              		.cfi_startproc
 1470              	.LVL118:
 1471 0000 17030000 		call	t0,__riscv_save_4
 1471      E7020300 
 1472              		.cfi_offset 19, -20
 1473              		.cfi_offset 18, -16
 1474              		.cfi_offset 9, -12
 1475              		.cfi_offset 8, -8
 1476              		.cfi_offset 1, -4
 1477              		.cfi_def_cfa_offset 32
 456:C:/Users/stapi/OneDrive/Desktop/GD32VW553/V1_MQTT_OK/GD32VW55X_Wifi_BLE_SDK/GD32VW55x_RELEASE_V1.0.2/MSDK/cloud/alicloud/src/services/awss\awss_aplist.c ****     uint8_t ssid[ZC_MAX_SSID_LEN] = {0}, bssid[ETH_ALEN] = {0};
 1478              		.loc 1 456 5
 455:C:/Users/stapi/OneDrive/Desktop/GD32VW553/V1_MQTT_OK/GD32VW55X_Wifi_BLE_SDK/GD32VW55x_RELEASE_V1.0.2/MSDK/cloud/alicloud/src/services/awss\awss_aplist.c ****     uint8_t ssid[ZC_MAX_SSID_LEN] = {0}, bssid[ETH_ALEN] = {0};
 1479              		.loc 1 455 1 is_stmt 0
 1480 0008 3971     		addi	sp,sp,-64
 1481              		.cfi_def_cfa_offset 96
 455:C:/Users/stapi/OneDrive/Desktop/GD32VW553/V1_MQTT_OK/GD32VW55X_Wifi_BLE_SDK/GD32VW55x_RELEASE_V1.0.2/MSDK/cloud/alicloud/src/services/awss\awss_aplist.c ****     uint8_t ssid[ZC_MAX_SSID_LEN] = {0}, bssid[ETH_ALEN] = {0};
 1482              		.loc 1 455 1
 1483 000a 2A84     		mv	s0,a0
 1484 000c AE84     		mv	s1,a1
 1485              		.loc 1 456 13
 1486 000e 7546     		li	a2,29
 1487              	.LVL119:
 1488 0010 8145     		li	a1,0
 1489              	.LVL120:
 1490 0012 0810     		addi	a0,sp,32
 1491              	.LVL121:
 455:C:/Users/stapi/OneDrive/Desktop/GD32VW553/V1_MQTT_OK/GD32VW55X_Wifi_BLE_SDK/GD32VW55x_RELEASE_V1.0.2/MSDK/cloud/alicloud/src/services/awss\awss_aplist.c ****     uint8_t ssid[ZC_MAX_SSID_LEN] = {0}, bssid[ETH_ALEN] = {0};
 1492              		.loc 1 455 1
 1493 0014 3A89     		mv	s2,a4
 1494              		.loc 1 456 13
 1495 0016 02CE     		sw	zero,28(sp)
 1496 0018 97000000 		call	memset
 1496      E7800000 
 1497              	.LVL122:
 1498              		.loc 1 456 42
 1499 0020 02CA     		sw	zero,20(sp)
 1500 0022 231C0100 		sh	zero,24(sp)
 457:C:/Users/stapi/OneDrive/Desktop/GD32VW553/V1_MQTT_OK/GD32VW55X_Wifi_BLE_SDK/GD32VW55x_RELEASE_V1.0.2/MSDK/cloud/alicloud/src/services/awss\awss_aplist.c ****     uint8_t auth, pairwise_cipher, group_cipher;
 1501              		.loc 1 457 5 is_stmt 1
 458:C:/Users/stapi/OneDrive/Desktop/GD32VW553/V1_MQTT_OK/GD32VW55X_Wifi_BLE_SDK/GD32VW55x_RELEASE_V1.0.2/MSDK/cloud/alicloud/src/services/awss\awss_aplist.c ****     struct ieee80211_hdr *hdr;
 1502              		.loc 1 458 5
 459:C:/Users/stapi/OneDrive/Desktop/GD32VW553/V1_MQTT_OK/GD32VW55X_Wifi_BLE_SDK/GD32VW55x_RELEASE_V1.0.2/MSDK/cloud/alicloud/src/services/awss\awss_aplist.c ****     int fc, ret, channel;
 1503              		.loc 1 459 5
 460:C:/Users/stapi/OneDrive/Desktop/GD32VW553/V1_MQTT_OK/GD32VW55X_Wifi_BLE_SDK/GD32VW55x_RELEASE_V1.0.2/MSDK/cloud/alicloud/src/services/awss\awss_aplist.c **** 
 461:C:/Users/stapi/OneDrive/Desktop/GD32VW553/V1_MQTT_OK/GD32VW55X_Wifi_BLE_SDK/GD32VW55x_RELEASE_V1.0.2/MSDK/cloud/alicloud/src/services/awss\awss_aplist.c ****     if (mgmt_header == NULL) {
 1504              		.loc 1 461 5
 1505              		.loc 1 461 8 is_stmt 0
 1506 0026 0DC0     		beq	s0,zero,.L164
 462:C:/Users/stapi/OneDrive/Desktop/GD32VW553/V1_MQTT_OK/GD32VW55X_Wifi_BLE_SDK/GD32VW55x_RELEASE_V1.0.2/MSDK/cloud/alicloud/src/services/awss\awss_aplist.c ****         return ALINK_INVALID;
 463:C:/Users/stapi/OneDrive/Desktop/GD32VW553/V1_MQTT_OK/GD32VW55X_Wifi_BLE_SDK/GD32VW55x_RELEASE_V1.0.2/MSDK/cloud/alicloud/src/services/awss\awss_aplist.c ****     }
 464:C:/Users/stapi/OneDrive/Desktop/GD32VW553/V1_MQTT_OK/GD32VW55X_Wifi_BLE_SDK/GD32VW55x_RELEASE_V1.0.2/MSDK/cloud/alicloud/src/services/awss\awss_aplist.c **** 
 465:C:/Users/stapi/OneDrive/Desktop/GD32VW553/V1_MQTT_OK/GD32VW55X_Wifi_BLE_SDK/GD32VW55x_RELEASE_V1.0.2/MSDK/cloud/alicloud/src/services/awss\awss_aplist.c ****     hdr = (struct ieee80211_hdr *)mgmt_header;
 1507              		.loc 1 465 5 is_stmt 1
 1508              	.LVL123:
 466:C:/Users/stapi/OneDrive/Desktop/GD32VW553/V1_MQTT_OK/GD32VW55X_Wifi_BLE_SDK/GD32VW55x_RELEASE_V1.0.2/MSDK/cloud/alicloud/src/services/awss\awss_aplist.c ****     fc = hdr->frame_control;
 1509              		.loc 1 466 5
 1510              		.loc 1 466 13 is_stmt 0
 1511 0028 83590400 		lhu	s3,0(s0)
 1512              	.LVL124:
 467:C:/Users/stapi/OneDrive/Desktop/GD32VW553/V1_MQTT_OK/GD32VW55X_Wifi_BLE_SDK/GD32VW55x_RELEASE_V1.0.2/MSDK/cloud/alicloud/src/services/awss\awss_aplist.c **** 
 468:C:/Users/stapi/OneDrive/Desktop/GD32VW553/V1_MQTT_OK/GD32VW55X_Wifi_BLE_SDK/GD32VW55x_RELEASE_V1.0.2/MSDK/cloud/alicloud/src/services/awss\awss_aplist.c ****     /*
 469:C:/Users/stapi/OneDrive/Desktop/GD32VW553/V1_MQTT_OK/GD32VW55X_Wifi_BLE_SDK/GD32VW55x_RELEASE_V1.0.2/MSDK/cloud/alicloud/src/services/awss\awss_aplist.c ****      * just for save ap in aplist for ssid amend.
 470:C:/Users/stapi/OneDrive/Desktop/GD32VW553/V1_MQTT_OK/GD32VW55X_Wifi_BLE_SDK/GD32VW55x_RELEASE_V1.0.2/MSDK/cloud/alicloud/src/services/awss\awss_aplist.c ****      */
 471:C:/Users/stapi/OneDrive/Desktop/GD32VW553/V1_MQTT_OK/GD32VW55X_Wifi_BLE_SDK/GD32VW55x_RELEASE_V1.0.2/MSDK/cloud/alicloud/src/services/awss\awss_aplist.c ****     if (!ieee80211_is_beacon(fc) && !ieee80211_is_probe_resp(fc)) {
 1513              		.loc 1 471 5 is_stmt 1
 1514              		.loc 1 471 10 is_stmt 0
 1515 002c 4E85     		mv	a0,s3
 1516 002e 97000000 		call	ieee80211_is_beacon
 1516      E7800000 
 1517              	.LVL125:
 1518              		.loc 1 471 8
 1519 0036 19CD     		beq	a0,zero,.L165
 1520              	.L168:
 472:C:/Users/stapi/OneDrive/Desktop/GD32VW553/V1_MQTT_OK/GD32VW55X_Wifi_BLE_SDK/GD32VW55x_RELEASE_V1.0.2/MSDK/cloud/alicloud/src/services/awss\awss_aplist.c ****         return ALINK_INVALID;
 473:C:/Users/stapi/OneDrive/Desktop/GD32VW553/V1_MQTT_OK/GD32VW55X_Wifi_BLE_SDK/GD32VW55x_RELEASE_V1.0.2/MSDK/cloud/alicloud/src/services/awss\awss_aplist.c **** 	}
 474:C:/Users/stapi/OneDrive/Desktop/GD32VW553/V1_MQTT_OK/GD32VW55X_Wifi_BLE_SDK/GD32VW55x_RELEASE_V1.0.2/MSDK/cloud/alicloud/src/services/awss\awss_aplist.c **** 
 475:C:/Users/stapi/OneDrive/Desktop/GD32VW553/V1_MQTT_OK/GD32VW55X_Wifi_BLE_SDK/GD32VW55x_RELEASE_V1.0.2/MSDK/cloud/alicloud/src/services/awss\awss_aplist.c ****     ret = ieee80211_get_bssid(mgmt_header, bssid);
 1521              		.loc 1 475 5 is_stmt 1
 1522              		.loc 1 475 11 is_stmt 0
 1523 0038 4C08     		addi	a1,sp,20
 1524 003a 2285     		mv	a0,s0
 1525 003c 97000000 		call	ieee80211_get_bssid
 1525      E7800000 
 1526              	.LVL126:
 476:C:/Users/stapi/OneDrive/Desktop/GD32VW553/V1_MQTT_OK/GD32VW55X_Wifi_BLE_SDK/GD32VW55x_RELEASE_V1.0.2/MSDK/cloud/alicloud/src/services/awss\awss_aplist.c ****     if (ret < 0) {
 1527              		.loc 1 476 5 is_stmt 1
 1528              		.loc 1 476 8 is_stmt 0
 1529 0044 635F0500 		bge	a0,zero,.L172
 1530              	.LVL127:
 1531              	.L164:
 477:C:/Users/stapi/OneDrive/Desktop/GD32VW553/V1_MQTT_OK/GD32VW55X_Wifi_BLE_SDK/GD32VW55x_RELEASE_V1.0.2/MSDK/cloud/alicloud/src/services/awss\awss_aplist.c ****         return ALINK_INVALID;
 478:C:/Users/stapi/OneDrive/Desktop/GD32VW553/V1_MQTT_OK/GD32VW55X_Wifi_BLE_SDK/GD32VW55x_RELEASE_V1.0.2/MSDK/cloud/alicloud/src/services/awss\awss_aplist.c **** 	}
 479:C:/Users/stapi/OneDrive/Desktop/GD32VW553/V1_MQTT_OK/GD32VW55X_Wifi_BLE_SDK/GD32VW55x_RELEASE_V1.0.2/MSDK/cloud/alicloud/src/services/awss\awss_aplist.c **** 
 480:C:/Users/stapi/OneDrive/Desktop/GD32VW553/V1_MQTT_OK/GD32VW55X_Wifi_BLE_SDK/GD32VW55x_RELEASE_V1.0.2/MSDK/cloud/alicloud/src/services/awss\awss_aplist.c ****     ret = ieee80211_get_ssid(mgmt_header, len, ssid);
 481:C:/Users/stapi/OneDrive/Desktop/GD32VW553/V1_MQTT_OK/GD32VW55X_Wifi_BLE_SDK/GD32VW55x_RELEASE_V1.0.2/MSDK/cloud/alicloud/src/services/awss\awss_aplist.c ****     if (ret < 0) {
 482:C:/Users/stapi/OneDrive/Desktop/GD32VW553/V1_MQTT_OK/GD32VW55X_Wifi_BLE_SDK/GD32VW55x_RELEASE_V1.0.2/MSDK/cloud/alicloud/src/services/awss\awss_aplist.c ****         return ALINK_INVALID;
 483:C:/Users/stapi/OneDrive/Desktop/GD32VW553/V1_MQTT_OK/GD32VW55X_Wifi_BLE_SDK/GD32VW55x_RELEASE_V1.0.2/MSDK/cloud/alicloud/src/services/awss\awss_aplist.c **** 	}
 484:C:/Users/stapi/OneDrive/Desktop/GD32VW553/V1_MQTT_OK/GD32VW55X_Wifi_BLE_SDK/GD32VW55x_RELEASE_V1.0.2/MSDK/cloud/alicloud/src/services/awss\awss_aplist.c **** 
 485:C:/Users/stapi/OneDrive/Desktop/GD32VW553/V1_MQTT_OK/GD32VW55X_Wifi_BLE_SDK/GD32VW55x_RELEASE_V1.0.2/MSDK/cloud/alicloud/src/services/awss\awss_aplist.c ****     /*
 486:C:/Users/stapi/OneDrive/Desktop/GD32VW553/V1_MQTT_OK/GD32VW55X_Wifi_BLE_SDK/GD32VW55x_RELEASE_V1.0.2/MSDK/cloud/alicloud/src/services/awss\awss_aplist.c ****      * skip all the adha and aha
 487:C:/Users/stapi/OneDrive/Desktop/GD32VW553/V1_MQTT_OK/GD32VW55X_Wifi_BLE_SDK/GD32VW55x_RELEASE_V1.0.2/MSDK/cloud/alicloud/src/services/awss\awss_aplist.c ****      */
 488:C:/Users/stapi/OneDrive/Desktop/GD32VW553/V1_MQTT_OK/GD32VW55X_Wifi_BLE_SDK/GD32VW55x_RELEASE_V1.0.2/MSDK/cloud/alicloud/src/services/awss\awss_aplist.c **** #ifdef AWSS_SUPPORT_AHA
 489:C:/Users/stapi/OneDrive/Desktop/GD32VW553/V1_MQTT_OK/GD32VW55X_Wifi_BLE_SDK/GD32VW55x_RELEASE_V1.0.2/MSDK/cloud/alicloud/src/services/awss\awss_aplist.c ****     if (strcmp((const char *)ssid, zc_default_ssid) == 0) {
 490:C:/Users/stapi/OneDrive/Desktop/GD32VW553/V1_MQTT_OK/GD32VW55X_Wifi_BLE_SDK/GD32VW55x_RELEASE_V1.0.2/MSDK/cloud/alicloud/src/services/awss\awss_aplist.c ****         return ALINK_INVALID;
 491:C:/Users/stapi/OneDrive/Desktop/GD32VW553/V1_MQTT_OK/GD32VW55X_Wifi_BLE_SDK/GD32VW55x_RELEASE_V1.0.2/MSDK/cloud/alicloud/src/services/awss\awss_aplist.c ****     }
 492:C:/Users/stapi/OneDrive/Desktop/GD32VW553/V1_MQTT_OK/GD32VW55X_Wifi_BLE_SDK/GD32VW55x_RELEASE_V1.0.2/MSDK/cloud/alicloud/src/services/awss\awss_aplist.c **** #endif
 493:C:/Users/stapi/OneDrive/Desktop/GD32VW553/V1_MQTT_OK/GD32VW55X_Wifi_BLE_SDK/GD32VW55x_RELEASE_V1.0.2/MSDK/cloud/alicloud/src/services/awss\awss_aplist.c **** #ifdef AWSS_SUPPORT_ADHA
 494:C:/Users/stapi/OneDrive/Desktop/GD32VW553/V1_MQTT_OK/GD32VW55X_Wifi_BLE_SDK/GD32VW55x_RELEASE_V1.0.2/MSDK/cloud/alicloud/src/services/awss\awss_aplist.c ****     if (strcmp((const char *)ssid, zc_adha_ssid) == 0) {
 495:C:/Users/stapi/OneDrive/Desktop/GD32VW553/V1_MQTT_OK/GD32VW55X_Wifi_BLE_SDK/GD32VW55x_RELEASE_V1.0.2/MSDK/cloud/alicloud/src/services/awss\awss_aplist.c ****         return ALINK_INVALID;
 496:C:/Users/stapi/OneDrive/Desktop/GD32VW553/V1_MQTT_OK/GD32VW55X_Wifi_BLE_SDK/GD32VW55x_RELEASE_V1.0.2/MSDK/cloud/alicloud/src/services/awss\awss_aplist.c ****     }
 497:C:/Users/stapi/OneDrive/Desktop/GD32VW553/V1_MQTT_OK/GD32VW55X_Wifi_BLE_SDK/GD32VW55x_RELEASE_V1.0.2/MSDK/cloud/alicloud/src/services/awss\awss_aplist.c **** #endif
 498:C:/Users/stapi/OneDrive/Desktop/GD32VW553/V1_MQTT_OK/GD32VW55X_Wifi_BLE_SDK/GD32VW55x_RELEASE_V1.0.2/MSDK/cloud/alicloud/src/services/awss\awss_aplist.c **** 
 499:C:/Users/stapi/OneDrive/Desktop/GD32VW553/V1_MQTT_OK/GD32VW55X_Wifi_BLE_SDK/GD32VW55x_RELEASE_V1.0.2/MSDK/cloud/alicloud/src/services/awss\awss_aplist.c ****     channel = cfg80211_get_bss_channel(mgmt_header, len);
 500:C:/Users/stapi/OneDrive/Desktop/GD32VW553/V1_MQTT_OK/GD32VW55X_Wifi_BLE_SDK/GD32VW55x_RELEASE_V1.0.2/MSDK/cloud/alicloud/src/services/awss\awss_aplist.c ****     rssi = rssi > 0 ? rssi - 256 : rssi;
 501:C:/Users/stapi/OneDrive/Desktop/GD32VW553/V1_MQTT_OK/GD32VW55X_Wifi_BLE_SDK/GD32VW55x_RELEASE_V1.0.2/MSDK/cloud/alicloud/src/services/awss\awss_aplist.c **** 
 502:C:/Users/stapi/OneDrive/Desktop/GD32VW553/V1_MQTT_OK/GD32VW55X_Wifi_BLE_SDK/GD32VW55x_RELEASE_V1.0.2/MSDK/cloud/alicloud/src/services/awss\awss_aplist.c ****     cfg80211_get_cipher_info(mgmt_header, len, &auth,
 503:C:/Users/stapi/OneDrive/Desktop/GD32VW553/V1_MQTT_OK/GD32VW55X_Wifi_BLE_SDK/GD32VW55x_RELEASE_V1.0.2/MSDK/cloud/alicloud/src/services/awss\awss_aplist.c ****                              &pairwise_cipher, &group_cipher);
 504:C:/Users/stapi/OneDrive/Desktop/GD32VW553/V1_MQTT_OK/GD32VW55X_Wifi_BLE_SDK/GD32VW55x_RELEASE_V1.0.2/MSDK/cloud/alicloud/src/services/awss\awss_aplist.c ****     awss_save_apinfo(ssid, bssid, channel, auth,
 505:C:/Users/stapi/OneDrive/Desktop/GD32VW553/V1_MQTT_OK/GD32VW55X_Wifi_BLE_SDK/GD32VW55x_RELEASE_V1.0.2/MSDK/cloud/alicloud/src/services/awss\awss_aplist.c ****                      pairwise_cipher, group_cipher, rssi);
 506:C:/Users/stapi/OneDrive/Desktop/GD32VW553/V1_MQTT_OK/GD32VW55X_Wifi_BLE_SDK/GD32VW55x_RELEASE_V1.0.2/MSDK/cloud/alicloud/src/services/awss\awss_aplist.c ****     return ALINK_INVALID;
 507:C:/Users/stapi/OneDrive/Desktop/GD32VW553/V1_MQTT_OK/GD32VW55X_Wifi_BLE_SDK/GD32VW55x_RELEASE_V1.0.2/MSDK/cloud/alicloud/src/services/awss\awss_aplist.c **** }
 1532              		.loc 1 507 1
 1533 0048 0145     		li	a0,0
 1534 004a 2161     		addi	sp,sp,64
 1535              		.cfi_remember_state
 1536              		.cfi_def_cfa_offset 0
 1537 004c 17030000 		tail	__riscv_restore_4
 1537      67000300 
 1538              		.cfi_restore 19
 1539              		.cfi_restore 18
 1540              		.cfi_restore 9
 1541              		.cfi_restore 8
 1542              		.cfi_restore 1
 1543              		.cfi_def_cfa_offset -32
 1544              	.LVL128:
 1545              	.L165:
 1546              		.cfi_restore_state
 471:C:/Users/stapi/OneDrive/Desktop/GD32VW553/V1_MQTT_OK/GD32VW55X_Wifi_BLE_SDK/GD32VW55x_RELEASE_V1.0.2/MSDK/cloud/alicloud/src/services/awss\awss_aplist.c ****         return ALINK_INVALID;
 1547              		.loc 1 471 38 discriminator 1
 1548 0054 4E85     		mv	a0,s3
 1549 0056 97000000 		call	ieee80211_is_probe_resp
 1549      E7800000 
 1550              	.LVL129:
 471:C:/Users/stapi/OneDrive/Desktop/GD32VW553/V1_MQTT_OK/GD32VW55X_Wifi_BLE_SDK/GD32VW55x_RELEASE_V1.0.2/MSDK/cloud/alicloud/src/services/awss\awss_aplist.c ****         return ALINK_INVALID;
 1551              		.loc 1 471 34 discriminator 1
 1552 005e 69FD     		bne	a0,zero,.L168
 1553 0060 E5B7     		j	.L164
 1554              	.LVL130:
 1555              	.L172:
 480:C:/Users/stapi/OneDrive/Desktop/GD32VW553/V1_MQTT_OK/GD32VW55X_Wifi_BLE_SDK/GD32VW55x_RELEASE_V1.0.2/MSDK/cloud/alicloud/src/services/awss\awss_aplist.c ****     if (ret < 0) {
 1556              		.loc 1 480 5 is_stmt 1
 480:C:/Users/stapi/OneDrive/Desktop/GD32VW553/V1_MQTT_OK/GD32VW55X_Wifi_BLE_SDK/GD32VW55x_RELEASE_V1.0.2/MSDK/cloud/alicloud/src/services/awss\awss_aplist.c ****     if (ret < 0) {
 1557              		.loc 1 480 11 is_stmt 0
 1558 0062 7008     		addi	a2,sp,28
 1559 0064 2285     		mv	a0,s0
 1560              	.LVL131:
 1561 0066 B3C50408 		zext.h	a1,s1
 1562 006a 2EC6     		sw	a1,12(sp)
 1563 006c 97000000 		call	ieee80211_get_ssid
 1563      E7800000 
 1564              	.LVL132:
 481:C:/Users/stapi/OneDrive/Desktop/GD32VW553/V1_MQTT_OK/GD32VW55X_Wifi_BLE_SDK/GD32VW55x_RELEASE_V1.0.2/MSDK/cloud/alicloud/src/services/awss\awss_aplist.c ****         return ALINK_INVALID;
 1565              		.loc 1 481 5 is_stmt 1
 481:C:/Users/stapi/OneDrive/Desktop/GD32VW553/V1_MQTT_OK/GD32VW55X_Wifi_BLE_SDK/GD32VW55x_RELEASE_V1.0.2/MSDK/cloud/alicloud/src/services/awss\awss_aplist.c ****         return ALINK_INVALID;
 1566              		.loc 1 481 8 is_stmt 0
 1567 0074 E34A05FC 		blt	a0,zero,.L164
 499:C:/Users/stapi/OneDrive/Desktop/GD32VW553/V1_MQTT_OK/GD32VW55X_Wifi_BLE_SDK/GD32VW55x_RELEASE_V1.0.2/MSDK/cloud/alicloud/src/services/awss\awss_aplist.c ****     rssi = rssi > 0 ? rssi - 256 : rssi;
 1568              		.loc 1 499 5 is_stmt 1
 499:C:/Users/stapi/OneDrive/Desktop/GD32VW553/V1_MQTT_OK/GD32VW55X_Wifi_BLE_SDK/GD32VW55x_RELEASE_V1.0.2/MSDK/cloud/alicloud/src/services/awss\awss_aplist.c ****     rssi = rssi > 0 ? rssi - 256 : rssi;
 1569              		.loc 1 499 15 is_stmt 0
 1570 0078 B245     		lw	a1,12(sp)
 1571 007a 2285     		mv	a0,s0
 1572              	.LVL133:
 1573 007c 97000000 		call	cfg80211_get_bss_channel
 1573      E7800000 
 1574              	.LVL134:
 502:C:/Users/stapi/OneDrive/Desktop/GD32VW553/V1_MQTT_OK/GD32VW55X_Wifi_BLE_SDK/GD32VW55x_RELEASE_V1.0.2/MSDK/cloud/alicloud/src/services/awss\awss_aplist.c ****                              &pairwise_cipher, &group_cipher);
 1575              		.loc 1 502 5
 1576 0084 B245     		lw	a1,12(sp)
 499:C:/Users/stapi/OneDrive/Desktop/GD32VW553/V1_MQTT_OK/GD32VW55X_Wifi_BLE_SDK/GD32VW55x_RELEASE_V1.0.2/MSDK/cloud/alicloud/src/services/awss\awss_aplist.c ****     rssi = rssi > 0 ? rssi - 256 : rssi;
 1577              		.loc 1 499 15
 1578 0086 AA84     		mv	s1,a0
 1579              	.LVL135:
 500:C:/Users/stapi/OneDrive/Desktop/GD32VW553/V1_MQTT_OK/GD32VW55X_Wifi_BLE_SDK/GD32VW55x_RELEASE_V1.0.2/MSDK/cloud/alicloud/src/services/awss\awss_aplist.c **** 
 1580              		.loc 1 500 5 is_stmt 1
 502:C:/Users/stapi/OneDrive/Desktop/GD32VW553/V1_MQTT_OK/GD32VW55X_Wifi_BLE_SDK/GD32VW55x_RELEASE_V1.0.2/MSDK/cloud/alicloud/src/services/awss\awss_aplist.c ****                              &pairwise_cipher, &group_cipher);
 1581              		.loc 1 502 5
 1582 0088 13073101 		addi	a4,sp,19
 1583 008c 93062101 		addi	a3,sp,18
 1584 0090 13061101 		addi	a2,sp,17
 1585 0094 2285     		mv	a0,s0
 1586 0096 97000000 		call	cfg80211_get_cipher_info
 1586      E7800000 
 1587              	.LVL136:
 504:C:/Users/stapi/OneDrive/Desktop/GD32VW553/V1_MQTT_OK/GD32VW55X_Wifi_BLE_SDK/GD32VW55x_RELEASE_V1.0.2/MSDK/cloud/alicloud/src/services/awss\awss_aplist.c ****                      pairwise_cipher, group_cipher, rssi);
 1588              		.loc 1 504 5
 1589 009e 83473101 		lbu	a5,19(sp)
 1590 00a2 03472101 		lbu	a4,18(sp)
 1591 00a6 83461101 		lbu	a3,17(sp)
 1592 00aa 4A88     		mv	a6,s2
 1593 00ac 13F6F40F 		andi	a2,s1,0xff
 1594 00b0 4C08     		addi	a1,sp,20
 1595 00b2 6808     		addi	a0,sp,28
 1596 00b4 97000000 		call	awss_save_apinfo
 1596      E7800000 
 1597              	.LVL137:
 506:C:/Users/stapi/OneDrive/Desktop/GD32VW553/V1_MQTT_OK/GD32VW55X_Wifi_BLE_SDK/GD32VW55x_RELEASE_V1.0.2/MSDK/cloud/alicloud/src/services/awss\awss_aplist.c **** }
 1598              		.loc 1 506 5
 506:C:/Users/stapi/OneDrive/Desktop/GD32VW553/V1_MQTT_OK/GD32VW55X_Wifi_BLE_SDK/GD32VW55x_RELEASE_V1.0.2/MSDK/cloud/alicloud/src/services/awss\awss_aplist.c **** }
 1599              		.loc 1 506 12 is_stmt 0
 1600 00bc 71B7     		j	.L164
 1601              		.cfi_endproc
 1602              	.LFE65:
 1604              		.globl	zconfig_aplist_num
 1605              		.globl	zconfig_aplist
 1606              		.section	.sbss.clr_aplist,"aw",@nobits
 1607              		.set	.LANCHOR0,. + 0
 1610              	clr_aplist:
 1611 0000 00       		.zero	1
 1612              		.section	.sbss.clr_aplist_timer,"aw",@nobits
 1613              		.align	2
 1614              		.set	.LANCHOR1,. + 0
 1617              	clr_aplist_timer:
 1618 0000 00000000 		.zero	4
 1619              		.section	.sbss.zconfig_aplist,"aw",@nobits
 1620              		.align	2
 1621              		.set	.LANCHOR2,. + 0
 1624              	zconfig_aplist:
 1625 0000 00000000 		.zero	4
 1626              		.section	.sbss.zconfig_aplist_num,"aw",@nobits
 1627              		.set	.LANCHOR3,. + 0
 1630              	zconfig_aplist_num:
 1631 0000 00       		.zero	1
 1632              		.text
 1633              	.Letext0:
 1634              		.file 4 "c:\\users\\stapi\\onedrive\\desktop\\gd32vw553\\embeddedbuilder_v1.4.7.26843\\tools\\nucl
 1635              		.file 5 "c:\\users\\stapi\\onedrive\\desktop\\gd32vw553\\embeddedbuilder_v1.4.7.26843\\tools\\nucl
 1636              		.file 6 "C:/Users/stapi/OneDrive/Desktop/GD32VW553/V1_MQTT_OK/GD32VW55X_Wifi_BLE_SDK/GD32VW55x_REL
 1637              		.file 7 "C:/Users/stapi/OneDrive/Desktop/GD32VW553/V1_MQTT_OK/GD32VW55X_Wifi_BLE_SDK/GD32VW55x_REL
 1638              		.file 8 "C:/Users/stapi/OneDrive/Desktop/GD32VW553/V1_MQTT_OK/GD32VW55X_Wifi_BLE_SDK/GD32VW55x_REL
 1639              		.file 9 "c:\\users\\stapi\\onedrive\\desktop\\gd32vw553\\embeddedbuilder_v1.4.7.26843\\tools\\nucl
 1640              		.file 10 "<built-in>"
 1641              		.file 11 "..\\..\\..\\..\\cloud\\alicloud\\include/iot_export.h"
 1642              		.file 12 "..\\..\\..\\..\\cloud\\alicloud\\include/iot_import.h"
 1643              		.file 13 "..\\..\\..\\..\\cloud\\alicloud\\src\\services\\dev_bind/awss_timer.h"
DEFINED SYMBOLS
                            *ABS*:0000000000000000 awss_aplist.c
C:\Users\stapi\AppData\Local\Temp\cc2gfMOA.s:12     .text.awss_clr_aplist_monitor:0000000000000000 awss_clr_aplist_monitor
C:\Users\stapi\AppData\Local\Temp\cc2gfMOA.s:16     .text.awss_clr_aplist_monitor:0000000000000000 .L0 
C:\Users\stapi\AppData\Local\Temp\cc2gfMOA.s:17     .text.awss_clr_aplist_monitor:0000000000000000 .L0 
C:\Users\stapi\AppData\Local\Temp\cc2gfMOA.s:18     .text.awss_clr_aplist_monitor:0000000000000000 .L0 
C:\Users\stapi\AppData\Local\Temp\cc2gfMOA.s:19     .text.awss_clr_aplist_monitor:0000000000000000 .L0 
C:\Users\stapi\AppData\Local\Temp\cc2gfMOA.s:23     .text.awss_clr_aplist_monitor:000000000000000a .L0 
C:\Users\stapi\AppData\Local\Temp\cc2gfMOA.s:29     .text.awss_clr_aplist_monitor:0000000000000022 .L0 
C:\Users\stapi\AppData\Local\Temp\cc2gfMOA.s:36     .text.awss_is_ready_clr_aplist:0000000000000000 awss_is_ready_clr_aplist
C:\Users\stapi\AppData\Local\Temp\cc2gfMOA.s:39     .text.awss_is_ready_clr_aplist:0000000000000000 .L0 
C:\Users\stapi\AppData\Local\Temp\cc2gfMOA.s:40     .text.awss_is_ready_clr_aplist:0000000000000000 .L0 
C:\Users\stapi\AppData\Local\Temp\cc2gfMOA.s:41     .text.awss_is_ready_clr_aplist:0000000000000000 .L0 
C:\Users\stapi\AppData\Local\Temp\cc2gfMOA.s:42     .text.awss_is_ready_clr_aplist:0000000000000000 .L0 
C:\Users\stapi\AppData\Local\Temp\cc2gfMOA.s:45     .text.awss_is_ready_clr_aplist:000000000000000a .L0 
C:\Users\stapi\AppData\Local\Temp\cc2gfMOA.s:56     .text.awss_clear_aplist:0000000000000000 awss_clear_aplist
C:\Users\stapi\AppData\Local\Temp\cc2gfMOA.s:59     .text.awss_clear_aplist:0000000000000000 .L0 
C:\Users\stapi\AppData\Local\Temp\cc2gfMOA.s:60     .text.awss_clear_aplist:0000000000000000 .L0 
C:\Users\stapi\AppData\Local\Temp\cc2gfMOA.s:61     .text.awss_clear_aplist:0000000000000008 .L0 
C:\Users\stapi\AppData\Local\Temp\cc2gfMOA.s:62     .text.awss_clear_aplist:0000000000000008 .L0 
C:\Users\stapi\AppData\Local\Temp\cc2gfMOA.s:64     .text.awss_clear_aplist:0000000000000008 .L0 
C:\Users\stapi\AppData\Local\Temp\cc2gfMOA.s:65     .text.awss_clear_aplist:0000000000000008 .L0 
C:\Users\stapi\AppData\Local\Temp\cc2gfMOA.s:68     .text.awss_clear_aplist:0000000000000010 .L0 
C:\Users\stapi\AppData\Local\Temp\cc2gfMOA.s:70     .text.awss_clear_aplist:0000000000000012 .L0 
C:\Users\stapi\AppData\Local\Temp\cc2gfMOA.s:77     .text.awss_clear_aplist:0000000000000028 .L0 
C:\Users\stapi\AppData\Local\Temp\cc2gfMOA.s:78     .text.awss_clear_aplist:0000000000000028 .L0 
C:\Users\stapi\AppData\Local\Temp\cc2gfMOA.s:81     .text.awss_clear_aplist:000000000000002a .L0 
C:\Users\stapi\AppData\Local\Temp\cc2gfMOA.s:82     .text.awss_clear_aplist:0000000000000032 .L0 
C:\Users\stapi\AppData\Local\Temp\cc2gfMOA.s:83     .text.awss_clear_aplist:0000000000000032 .L0 
C:\Users\stapi\AppData\Local\Temp\cc2gfMOA.s:84     .text.awss_clear_aplist:0000000000000032 .L0 
C:\Users\stapi\AppData\Local\Temp\cc2gfMOA.s:86     .text.awss_clear_aplist:0000000000000032 .L0 
C:\Users\stapi\AppData\Local\Temp\cc2gfMOA.s:88     .text.awss_clear_aplist:0000000000000032 .L0 
C:\Users\stapi\AppData\Local\Temp\cc2gfMOA.s:94     .text.awss_clear_aplist:0000000000000042 .L0 
C:\Users\stapi\AppData\Local\Temp\cc2gfMOA.s:95     .text.awss_clear_aplist:0000000000000042 .L0 
C:\Users\stapi\AppData\Local\Temp\cc2gfMOA.s:98     .text.awss_clear_aplist:000000000000004a .L0 
C:\Users\stapi\AppData\Local\Temp\cc2gfMOA.s:99     .text.awss_clear_aplist:000000000000004a .L0 
C:\Users\stapi\AppData\Local\Temp\cc2gfMOA.s:102    .text.awss_clear_aplist:0000000000000052 .L0 
C:\Users\stapi\AppData\Local\Temp\cc2gfMOA.s:103    .text.awss_clear_aplist:0000000000000052 .L0 
C:\Users\stapi\AppData\Local\Temp\cc2gfMOA.s:105    .text.awss_clear_aplist:0000000000000056 .L0 
C:\Users\stapi\AppData\Local\Temp\cc2gfMOA.s:116    .text.awss_open_aplist_monitor:0000000000000000 awss_open_aplist_monitor
C:\Users\stapi\AppData\Local\Temp\cc2gfMOA.s:119    .text.awss_open_aplist_monitor:0000000000000000 .L0 
C:\Users\stapi\AppData\Local\Temp\cc2gfMOA.s:120    .text.awss_open_aplist_monitor:0000000000000000 .L0 
C:\Users\stapi\AppData\Local\Temp\cc2gfMOA.s:121    .text.awss_open_aplist_monitor:0000000000000008 .L0 
C:\Users\stapi\AppData\Local\Temp\cc2gfMOA.s:122    .text.awss_open_aplist_monitor:0000000000000008 .L0 
C:\Users\stapi\AppData\Local\Temp\cc2gfMOA.s:123    .text.awss_open_aplist_monitor:0000000000000008 .L0 
C:\Users\stapi\AppData\Local\Temp\cc2gfMOA.s:125    .text.awss_open_aplist_monitor:0000000000000008 .L0 
C:\Users\stapi\AppData\Local\Temp\cc2gfMOA.s:126    .text.awss_open_aplist_monitor:0000000000000008 .L0 
C:\Users\stapi\AppData\Local\Temp\cc2gfMOA.s:128    .text.awss_open_aplist_monitor:000000000000000c .L0 
C:\Users\stapi\AppData\Local\Temp\cc2gfMOA.s:132    .text.awss_open_aplist_monitor:0000000000000016 .L0 
C:\Users\stapi\AppData\Local\Temp\cc2gfMOA.s:133    .text.awss_open_aplist_monitor:0000000000000016 .L0 
C:\Users\stapi\AppData\Local\Temp\cc2gfMOA.s:141    .text.awss_open_aplist_monitor:0000000000000030 .L0 
C:\Users\stapi\AppData\Local\Temp\cc2gfMOA.s:144    .text.awss_open_aplist_monitor:0000000000000032 .L0 
C:\Users\stapi\AppData\Local\Temp\cc2gfMOA.s:145    .text.awss_open_aplist_monitor:0000000000000032 .L0 
C:\Users\stapi\AppData\Local\Temp\cc2gfMOA.s:147    .text.awss_open_aplist_monitor:0000000000000034 .L0 
C:\Users\stapi\AppData\Local\Temp\cc2gfMOA.s:149    .text.awss_open_aplist_monitor:0000000000000036 .L0 
C:\Users\stapi\AppData\Local\Temp\cc2gfMOA.s:151    .text.awss_open_aplist_monitor:0000000000000038 .L0 
C:\Users\stapi\AppData\Local\Temp\cc2gfMOA.s:154    .text.awss_open_aplist_monitor:0000000000000040 .L0 
C:\Users\stapi\AppData\Local\Temp\cc2gfMOA.s:160    .text.awss_open_aplist_monitor:0000000000000052 .L0 
C:\Users\stapi\AppData\Local\Temp\cc2gfMOA.s:161    .text.awss_open_aplist_monitor:0000000000000052 .L0 
C:\Users\stapi\AppData\Local\Temp\cc2gfMOA.s:164    .text.awss_open_aplist_monitor:0000000000000054 .L0 
C:\Users\stapi\AppData\Local\Temp\cc2gfMOA.s:166    .text.awss_open_aplist_monitor:000000000000005e .L0 
C:\Users\stapi\AppData\Local\Temp\cc2gfMOA.s:167    .text.awss_open_aplist_monitor:000000000000005e .L0 
C:\Users\stapi\AppData\Local\Temp\cc2gfMOA.s:168    .text.awss_open_aplist_monitor:000000000000005e .L0 
C:\Users\stapi\AppData\Local\Temp\cc2gfMOA.s:169    .text.awss_open_aplist_monitor:000000000000005e .L0 
C:\Users\stapi\AppData\Local\Temp\cc2gfMOA.s:176    .text.awss_close_aplist_monitor:0000000000000000 awss_close_aplist_monitor
C:\Users\stapi\AppData\Local\Temp\cc2gfMOA.s:179    .text.awss_close_aplist_monitor:0000000000000000 .L0 
C:\Users\stapi\AppData\Local\Temp\cc2gfMOA.s:180    .text.awss_close_aplist_monitor:0000000000000000 .L0 
C:\Users\stapi\AppData\Local\Temp\cc2gfMOA.s:181    .text.awss_close_aplist_monitor:0000000000000008 .L0 
C:\Users\stapi\AppData\Local\Temp\cc2gfMOA.s:182    .text.awss_close_aplist_monitor:0000000000000008 .L0 
C:\Users\stapi\AppData\Local\Temp\cc2gfMOA.s:183    .text.awss_close_aplist_monitor:0000000000000008 .L0 
C:\Users\stapi\AppData\Local\Temp\cc2gfMOA.s:185    .text.awss_close_aplist_monitor:0000000000000008 .L0 
C:\Users\stapi\AppData\Local\Temp\cc2gfMOA.s:186    .text.awss_close_aplist_monitor:0000000000000008 .L0 
C:\Users\stapi\AppData\Local\Temp\cc2gfMOA.s:190    .text.awss_close_aplist_monitor:0000000000000012 .L0 
C:\Users\stapi\AppData\Local\Temp\cc2gfMOA.s:192    .text.awss_close_aplist_monitor:0000000000000014 .L0 
C:\Users\stapi\AppData\Local\Temp\cc2gfMOA.s:195    .text.awss_close_aplist_monitor:000000000000001c .L0 
C:\Users\stapi\AppData\Local\Temp\cc2gfMOA.s:196    .text.awss_close_aplist_monitor:000000000000001c .L0 
C:\Users\stapi\AppData\Local\Temp\cc2gfMOA.s:199    .text.awss_close_aplist_monitor:0000000000000020 .L0 
C:\Users\stapi\AppData\Local\Temp\cc2gfMOA.s:200    .text.awss_close_aplist_monitor:0000000000000020 .L0 
C:\Users\stapi\AppData\Local\Temp\cc2gfMOA.s:202    .text.awss_close_aplist_monitor:000000000000002a .L0 
C:\Users\stapi\AppData\Local\Temp\cc2gfMOA.s:203    .text.awss_close_aplist_monitor:000000000000002a .L0 
C:\Users\stapi\AppData\Local\Temp\cc2gfMOA.s:204    .text.awss_close_aplist_monitor:000000000000002a .L0 
C:\Users\stapi\AppData\Local\Temp\cc2gfMOA.s:205    .text.awss_close_aplist_monitor:000000000000002a .L0 
C:\Users\stapi\AppData\Local\Temp\cc2gfMOA.s:216    .text.awss_init_ieee80211_aplist:0000000000000000 awss_init_ieee80211_aplist
C:\Users\stapi\AppData\Local\Temp\cc2gfMOA.s:219    .text.awss_init_ieee80211_aplist:0000000000000000 .L0 
C:\Users\stapi\AppData\Local\Temp\cc2gfMOA.s:220    .text.awss_init_ieee80211_aplist:0000000000000000 .L0 
C:\Users\stapi\AppData\Local\Temp\cc2gfMOA.s:221    .text.awss_init_ieee80211_aplist:0000000000000000 .L0 
C:\Users\stapi\AppData\Local\Temp\cc2gfMOA.s:222    .text.awss_init_ieee80211_aplist:0000000000000000 .L0 
C:\Users\stapi\AppData\Local\Temp\cc2gfMOA.s:224    .text.awss_init_ieee80211_aplist:0000000000000004 .L0 
C:\Users\stapi\AppData\Local\Temp\cc2gfMOA.s:226    .text.awss_init_ieee80211_aplist:0000000000000008 .L0 
C:\Users\stapi\AppData\Local\Temp\cc2gfMOA.s:228    .text.awss_init_ieee80211_aplist:000000000000000a .L0 
C:\Users\stapi\AppData\Local\Temp\cc2gfMOA.s:230    .text.awss_init_ieee80211_aplist:000000000000000c .L0 
C:\Users\stapi\AppData\Local\Temp\cc2gfMOA.s:231    .text.awss_init_ieee80211_aplist:0000000000000014 .L0 
C:\Users\stapi\AppData\Local\Temp\cc2gfMOA.s:232    .text.awss_init_ieee80211_aplist:0000000000000014 .L0 
C:\Users\stapi\AppData\Local\Temp\cc2gfMOA.s:233    .text.awss_init_ieee80211_aplist:0000000000000014 .L0 
C:\Users\stapi\AppData\Local\Temp\cc2gfMOA.s:234    .text.awss_init_ieee80211_aplist:0000000000000014 .L0 
C:\Users\stapi\AppData\Local\Temp\cc2gfMOA.s:235    .text.awss_init_ieee80211_aplist:0000000000000014 .L0 
C:\Users\stapi\AppData\Local\Temp\cc2gfMOA.s:242    .text.awss_init_ieee80211_aplist:0000000000000014 .L0 
C:\Users\stapi\AppData\Local\Temp\cc2gfMOA.s:253    .text.awss_init_ieee80211_aplist:000000000000001e .L0 
C:\Users\stapi\AppData\Local\Temp\cc2gfMOA.s:256    .text.awss_init_ieee80211_aplist:000000000000001e .L0 
C:\Users\stapi\AppData\Local\Temp\cc2gfMOA.s:257    .text.awss_init_ieee80211_aplist:000000000000001e .L0 
C:\Users\stapi\AppData\Local\Temp\cc2gfMOA.s:258    .text.awss_init_ieee80211_aplist:000000000000001e .L0 
C:\Users\stapi\AppData\Local\Temp\cc2gfMOA.s:265    .text.awss_init_ieee80211_aplist:0000000000000028 .L0 
C:\Users\stapi\AppData\Local\Temp\cc2gfMOA.s:266    .text.awss_init_ieee80211_aplist:0000000000000028 .L0 
C:\Users\stapi\AppData\Local\Temp\cc2gfMOA.s:268    .text.awss_init_ieee80211_aplist:000000000000002a .L0 
C:\Users\stapi\AppData\Local\Temp\cc2gfMOA.s:276    .text.awss_init_ieee80211_aplist:0000000000000038 .L0 
C:\Users\stapi\AppData\Local\Temp\cc2gfMOA.s:277    .text.awss_init_ieee80211_aplist:0000000000000038 .L0 
C:\Users\stapi\AppData\Local\Temp\cc2gfMOA.s:279    .text.awss_init_ieee80211_aplist:000000000000003a .L0 
C:\Users\stapi\AppData\Local\Temp\cc2gfMOA.s:280    .text.awss_init_ieee80211_aplist:000000000000003a .L0 
C:\Users\stapi\AppData\Local\Temp\cc2gfMOA.s:282    .text.awss_init_ieee80211_aplist:000000000000003c .L0 
C:\Users\stapi\AppData\Local\Temp\cc2gfMOA.s:289    .text.awss_init_ieee80211_aplist:0000000000000052 .L0 
C:\Users\stapi\AppData\Local\Temp\cc2gfMOA.s:290    .text.awss_init_ieee80211_aplist:0000000000000052 .L0 
C:\Users\stapi\AppData\Local\Temp\cc2gfMOA.s:293    .text.awss_init_ieee80211_aplist:0000000000000054 .L0 
C:\Users\stapi\AppData\Local\Temp\cc2gfMOA.s:294    .text.awss_init_ieee80211_aplist:000000000000005c .L0 
C:\Users\stapi\AppData\Local\Temp\cc2gfMOA.s:295    .text.awss_init_ieee80211_aplist:000000000000005c .L0 
C:\Users\stapi\AppData\Local\Temp\cc2gfMOA.s:296    .text.awss_init_ieee80211_aplist:000000000000005c .L0 
C:\Users\stapi\AppData\Local\Temp\cc2gfMOA.s:297    .text.awss_init_ieee80211_aplist:000000000000005c .L0 
C:\Users\stapi\AppData\Local\Temp\cc2gfMOA.s:298    .text.awss_init_ieee80211_aplist:000000000000005c .L0 
C:\Users\stapi\AppData\Local\Temp\cc2gfMOA.s:299    .text.awss_init_ieee80211_aplist:000000000000005c .L0 
C:\Users\stapi\AppData\Local\Temp\cc2gfMOA.s:301    .text.awss_init_ieee80211_aplist:000000000000005c .L0 
C:\Users\stapi\AppData\Local\Temp\cc2gfMOA.s:303    .text.awss_init_ieee80211_aplist:000000000000005c .L0 
C:\Users\stapi\AppData\Local\Temp\cc2gfMOA.s:304    .text.awss_init_ieee80211_aplist:000000000000005c .L0 
C:\Users\stapi\AppData\Local\Temp\cc2gfMOA.s:307    .text.awss_init_ieee80211_aplist:0000000000000064 .L0 
C:\Users\stapi\AppData\Local\Temp\cc2gfMOA.s:308    .text.awss_init_ieee80211_aplist:0000000000000064 .L0 
C:\Users\stapi\AppData\Local\Temp\cc2gfMOA.s:312    .text.awss_init_ieee80211_aplist:0000000000000068 .L0 
C:\Users\stapi\AppData\Local\Temp\cc2gfMOA.s:313    .text.awss_init_ieee80211_aplist:0000000000000068 .L0 
C:\Users\stapi\AppData\Local\Temp\cc2gfMOA.s:314    .text.awss_init_ieee80211_aplist:0000000000000068 .L0 
C:\Users\stapi\AppData\Local\Temp\cc2gfMOA.s:315    .text.awss_init_ieee80211_aplist:0000000000000068 .L0 
C:\Users\stapi\AppData\Local\Temp\cc2gfMOA.s:316    .text.awss_init_ieee80211_aplist:0000000000000068 .L0 
C:\Users\stapi\AppData\Local\Temp\cc2gfMOA.s:318    .text.awss_init_ieee80211_aplist:0000000000000068 .L0 
C:\Users\stapi\AppData\Local\Temp\cc2gfMOA.s:319    .text.awss_init_ieee80211_aplist:000000000000006a .L0 
C:\Users\stapi\AppData\Local\Temp\cc2gfMOA.s:326    .text.awss_deinit_ieee80211_aplist:0000000000000000 awss_deinit_ieee80211_aplist
C:\Users\stapi\AppData\Local\Temp\cc2gfMOA.s:329    .text.awss_deinit_ieee80211_aplist:0000000000000000 .L0 
C:\Users\stapi\AppData\Local\Temp\cc2gfMOA.s:330    .text.awss_deinit_ieee80211_aplist:0000000000000000 .L0 
C:\Users\stapi\AppData\Local\Temp\cc2gfMOA.s:331    .text.awss_deinit_ieee80211_aplist:0000000000000008 .L0 
C:\Users\stapi\AppData\Local\Temp\cc2gfMOA.s:332    .text.awss_deinit_ieee80211_aplist:0000000000000008 .L0 
C:\Users\stapi\AppData\Local\Temp\cc2gfMOA.s:333    .text.awss_deinit_ieee80211_aplist:0000000000000008 .L0 
C:\Users\stapi\AppData\Local\Temp\cc2gfMOA.s:335    .text.awss_deinit_ieee80211_aplist:0000000000000008 .L0 
C:\Users\stapi\AppData\Local\Temp\cc2gfMOA.s:336    .text.awss_deinit_ieee80211_aplist:0000000000000008 .L0 
C:\Users\stapi\AppData\Local\Temp\cc2gfMOA.s:340    .text.awss_deinit_ieee80211_aplist:0000000000000012 .L0 
C:\Users\stapi\AppData\Local\Temp\cc2gfMOA.s:345    .text.awss_deinit_ieee80211_aplist:0000000000000014 .L0 
C:\Users\stapi\AppData\Local\Temp\cc2gfMOA.s:346    .text.awss_deinit_ieee80211_aplist:0000000000000014 .L0 
C:\Users\stapi\AppData\Local\Temp\cc2gfMOA.s:351    .text.awss_deinit_ieee80211_aplist:000000000000001c .L0 
C:\Users\stapi\AppData\Local\Temp\cc2gfMOA.s:352    .text.awss_deinit_ieee80211_aplist:000000000000001c .L0 
C:\Users\stapi\AppData\Local\Temp\cc2gfMOA.s:354    .text.awss_deinit_ieee80211_aplist:0000000000000020 .L0 
C:\Users\stapi\AppData\Local\Temp\cc2gfMOA.s:356    .text.awss_deinit_ieee80211_aplist:0000000000000024 .L0 
C:\Users\stapi\AppData\Local\Temp\cc2gfMOA.s:357    .text.awss_deinit_ieee80211_aplist:0000000000000024 .L0 
C:\Users\stapi\AppData\Local\Temp\cc2gfMOA.s:360    .text.awss_deinit_ieee80211_aplist:0000000000000028 .L0 
C:\Users\stapi\AppData\Local\Temp\cc2gfMOA.s:361    .text.awss_deinit_ieee80211_aplist:0000000000000028 .L0 
C:\Users\stapi\AppData\Local\Temp\cc2gfMOA.s:363    .text.awss_deinit_ieee80211_aplist:0000000000000032 .L0 
C:\Users\stapi\AppData\Local\Temp\cc2gfMOA.s:364    .text.awss_deinit_ieee80211_aplist:0000000000000032 .L0 
C:\Users\stapi\AppData\Local\Temp\cc2gfMOA.s:365    .text.awss_deinit_ieee80211_aplist:0000000000000032 .L0 
C:\Users\stapi\AppData\Local\Temp\cc2gfMOA.s:366    .text.awss_deinit_ieee80211_aplist:0000000000000032 .L0 
C:\Users\stapi\AppData\Local\Temp\cc2gfMOA.s:377    .text.zconfig_get_apinfo:0000000000000000 zconfig_get_apinfo
C:\Users\stapi\AppData\Local\Temp\cc2gfMOA.s:380    .text.zconfig_get_apinfo:0000000000000000 .L0 
C:\Users\stapi\AppData\Local\Temp\cc2gfMOA.s:382    .text.zconfig_get_apinfo:0000000000000000 .L0 
C:\Users\stapi\AppData\Local\Temp\cc2gfMOA.s:383    .text.zconfig_get_apinfo:0000000000000008 .L0 
C:\Users\stapi\AppData\Local\Temp\cc2gfMOA.s:384    .text.zconfig_get_apinfo:0000000000000008 .L0 
C:\Users\stapi\AppData\Local\Temp\cc2gfMOA.s:385    .text.zconfig_get_apinfo:0000000000000008 .L0 
C:\Users\stapi\AppData\Local\Temp\cc2gfMOA.s:386    .text.zconfig_get_apinfo:0000000000000008 .L0 
C:\Users\stapi\AppData\Local\Temp\cc2gfMOA.s:387    .text.zconfig_get_apinfo:0000000000000008 .L0 
C:\Users\stapi\AppData\Local\Temp\cc2gfMOA.s:388    .text.zconfig_get_apinfo:0000000000000008 .L0 
C:\Users\stapi\AppData\Local\Temp\cc2gfMOA.s:389    .text.zconfig_get_apinfo:0000000000000008 .L0 
C:\Users\stapi\AppData\Local\Temp\cc2gfMOA.s:391    .text.zconfig_get_apinfo:0000000000000008 .L0 
C:\Users\stapi\AppData\Local\Temp\cc2gfMOA.s:392    .text.zconfig_get_apinfo:0000000000000008 .L0 
C:\Users\stapi\AppData\Local\Temp\cc2gfMOA.s:393    .text.zconfig_get_apinfo:0000000000000008 .L0 
C:\Users\stapi\AppData\Local\Temp\cc2gfMOA.s:396    .text.zconfig_get_apinfo:0000000000000010 .L0 
C:\Users\stapi\AppData\Local\Temp\cc2gfMOA.s:398    .text.zconfig_get_apinfo:0000000000000012 .L0 
C:\Users\stapi\AppData\Local\Temp\cc2gfMOA.s:403    .text.zconfig_get_apinfo:0000000000000020 .L0 
C:\Users\stapi\AppData\Local\Temp\cc2gfMOA.s:407    .text.zconfig_get_apinfo:0000000000000022 .L0 
C:\Users\stapi\AppData\Local\Temp\cc2gfMOA.s:408    .text.zconfig_get_apinfo:0000000000000022 .L0 
C:\Users\stapi\AppData\Local\Temp\cc2gfMOA.s:410    .text.zconfig_get_apinfo:0000000000000026 .L0 
C:\Users\stapi\AppData\Local\Temp\cc2gfMOA.s:417    .text.zconfig_get_apinfo:000000000000002a .L0 
C:\Users\stapi\AppData\Local\Temp\cc2gfMOA.s:428    .text.zconfig_get_apinfo:0000000000000040 .L0 
C:\Users\stapi\AppData\Local\Temp\cc2gfMOA.s:429    .text.zconfig_get_apinfo:0000000000000040 .L0 
C:\Users\stapi\AppData\Local\Temp\cc2gfMOA.s:431    .text.zconfig_get_apinfo:000000000000004a .L0 
C:\Users\stapi\AppData\Local\Temp\cc2gfMOA.s:432    .text.zconfig_get_apinfo:000000000000004a .L0 
C:\Users\stapi\AppData\Local\Temp\cc2gfMOA.s:433    .text.zconfig_get_apinfo:000000000000004a .L0 
C:\Users\stapi\AppData\Local\Temp\cc2gfMOA.s:434    .text.zconfig_get_apinfo:000000000000004a .L0 
C:\Users\stapi\AppData\Local\Temp\cc2gfMOA.s:435    .text.zconfig_get_apinfo:000000000000004a .L0 
C:\Users\stapi\AppData\Local\Temp\cc2gfMOA.s:436    .text.zconfig_get_apinfo:000000000000004a .L0 
C:\Users\stapi\AppData\Local\Temp\cc2gfMOA.s:437    .text.zconfig_get_apinfo:000000000000004a .L0 
C:\Users\stapi\AppData\Local\Temp\cc2gfMOA.s:438    .text.zconfig_get_apinfo:000000000000004a .L0 
C:\Users\stapi\AppData\Local\Temp\cc2gfMOA.s:441    .text.zconfig_get_apinfo:000000000000004a .L0 
C:\Users\stapi\AppData\Local\Temp\cc2gfMOA.s:443    .text.zconfig_get_apinfo:000000000000004a .L0 
C:\Users\stapi\AppData\Local\Temp\cc2gfMOA.s:444    .text.zconfig_get_apinfo:000000000000004a .L0 
C:\Users\stapi\AppData\Local\Temp\cc2gfMOA.s:450    .text.zconfig_get_apinfo:000000000000005a .L0 
C:\Users\stapi\AppData\Local\Temp\cc2gfMOA.s:452    .text.zconfig_get_apinfo:000000000000005c .L0 
C:\Users\stapi\AppData\Local\Temp\cc2gfMOA.s:455    .text.zconfig_get_apinfo:0000000000000062 .L0 
C:\Users\stapi\AppData\Local\Temp\cc2gfMOA.s:456    .text.zconfig_get_apinfo:0000000000000062 .L0 
C:\Users\stapi\AppData\Local\Temp\cc2gfMOA.s:459    .text.zconfig_get_apinfo:0000000000000066 .L0 
C:\Users\stapi\AppData\Local\Temp\cc2gfMOA.s:470    .text.zconfig_get_apinfo_by_3_byte_mac:0000000000000000 zconfig_get_apinfo_by_3_byte_mac
C:\Users\stapi\AppData\Local\Temp\cc2gfMOA.s:473    .text.zconfig_get_apinfo_by_3_byte_mac:0000000000000000 .L0 
C:\Users\stapi\AppData\Local\Temp\cc2gfMOA.s:475    .text.zconfig_get_apinfo_by_3_byte_mac:0000000000000000 .L0 
C:\Users\stapi\AppData\Local\Temp\cc2gfMOA.s:476    .text.zconfig_get_apinfo_by_3_byte_mac:0000000000000008 .L0 
C:\Users\stapi\AppData\Local\Temp\cc2gfMOA.s:477    .text.zconfig_get_apinfo_by_3_byte_mac:0000000000000008 .L0 
C:\Users\stapi\AppData\Local\Temp\cc2gfMOA.s:478    .text.zconfig_get_apinfo_by_3_byte_mac:0000000000000008 .L0 
C:\Users\stapi\AppData\Local\Temp\cc2gfMOA.s:479    .text.zconfig_get_apinfo_by_3_byte_mac:0000000000000008 .L0 
C:\Users\stapi\AppData\Local\Temp\cc2gfMOA.s:480    .text.zconfig_get_apinfo_by_3_byte_mac:0000000000000008 .L0 
C:\Users\stapi\AppData\Local\Temp\cc2gfMOA.s:481    .text.zconfig_get_apinfo_by_3_byte_mac:0000000000000008 .L0 
C:\Users\stapi\AppData\Local\Temp\cc2gfMOA.s:482    .text.zconfig_get_apinfo_by_3_byte_mac:0000000000000008 .L0 
C:\Users\stapi\AppData\Local\Temp\cc2gfMOA.s:484    .text.zconfig_get_apinfo_by_3_byte_mac:0000000000000008 .L0 
C:\Users\stapi\AppData\Local\Temp\cc2gfMOA.s:485    .text.zconfig_get_apinfo_by_3_byte_mac:0000000000000008 .L0 
C:\Users\stapi\AppData\Local\Temp\cc2gfMOA.s:486    .text.zconfig_get_apinfo_by_3_byte_mac:0000000000000008 .L0 
C:\Users\stapi\AppData\Local\Temp\cc2gfMOA.s:487    .text.zconfig_get_apinfo_by_3_byte_mac:0000000000000008 .L0 
C:\Users\stapi\AppData\Local\Temp\cc2gfMOA.s:490    .text.zconfig_get_apinfo_by_3_byte_mac:0000000000000010 .L0 
C:\Users\stapi\AppData\Local\Temp\cc2gfMOA.s:492    .text.zconfig_get_apinfo_by_3_byte_mac:0000000000000012 .L0 
C:\Users\stapi\AppData\Local\Temp\cc2gfMOA.s:497    .text.zconfig_get_apinfo_by_3_byte_mac:0000000000000020 .L0 
C:\Users\stapi\AppData\Local\Temp\cc2gfMOA.s:501    .text.zconfig_get_apinfo_by_3_byte_mac:0000000000000022 .L0 
C:\Users\stapi\AppData\Local\Temp\cc2gfMOA.s:502    .text.zconfig_get_apinfo_by_3_byte_mac:0000000000000022 .L0 
C:\Users\stapi\AppData\Local\Temp\cc2gfMOA.s:504    .text.zconfig_get_apinfo_by_3_byte_mac:0000000000000026 .L0 
C:\Users\stapi\AppData\Local\Temp\cc2gfMOA.s:509    .text.zconfig_get_apinfo_by_3_byte_mac:000000000000002a .L0 
C:\Users\stapi\AppData\Local\Temp\cc2gfMOA.s:518    .text.zconfig_get_apinfo_by_3_byte_mac:0000000000000040 .L0 
C:\Users\stapi\AppData\Local\Temp\cc2gfMOA.s:519    .text.zconfig_get_apinfo_by_3_byte_mac:0000000000000040 .L0 
C:\Users\stapi\AppData\Local\Temp\cc2gfMOA.s:521    .text.zconfig_get_apinfo_by_3_byte_mac:000000000000004a .L0 
C:\Users\stapi\AppData\Local\Temp\cc2gfMOA.s:522    .text.zconfig_get_apinfo_by_3_byte_mac:000000000000004a .L0 
C:\Users\stapi\AppData\Local\Temp\cc2gfMOA.s:523    .text.zconfig_get_apinfo_by_3_byte_mac:000000000000004a .L0 
C:\Users\stapi\AppData\Local\Temp\cc2gfMOA.s:524    .text.zconfig_get_apinfo_by_3_byte_mac:000000000000004a .L0 
C:\Users\stapi\AppData\Local\Temp\cc2gfMOA.s:525    .text.zconfig_get_apinfo_by_3_byte_mac:000000000000004a .L0 
C:\Users\stapi\AppData\Local\Temp\cc2gfMOA.s:526    .text.zconfig_get_apinfo_by_3_byte_mac:000000000000004a .L0 
C:\Users\stapi\AppData\Local\Temp\cc2gfMOA.s:527    .text.zconfig_get_apinfo_by_3_byte_mac:000000000000004a .L0 
C:\Users\stapi\AppData\Local\Temp\cc2gfMOA.s:528    .text.zconfig_get_apinfo_by_3_byte_mac:000000000000004a .L0 
C:\Users\stapi\AppData\Local\Temp\cc2gfMOA.s:531    .text.zconfig_get_apinfo_by_3_byte_mac:000000000000004a .L0 
C:\Users\stapi\AppData\Local\Temp\cc2gfMOA.s:533    .text.zconfig_get_apinfo_by_3_byte_mac:000000000000004a .L0 
C:\Users\stapi\AppData\Local\Temp\cc2gfMOA.s:534    .text.zconfig_get_apinfo_by_3_byte_mac:000000000000004a .L0 
C:\Users\stapi\AppData\Local\Temp\cc2gfMOA.s:540    .text.zconfig_get_apinfo_by_3_byte_mac:000000000000005a .L0 
C:\Users\stapi\AppData\Local\Temp\cc2gfMOA.s:543    .text.zconfig_get_apinfo_by_3_byte_mac:000000000000005c .L0 
C:\Users\stapi\AppData\Local\Temp\cc2gfMOA.s:544    .text.zconfig_get_apinfo_by_3_byte_mac:000000000000005c .L0 
C:\Users\stapi\AppData\Local\Temp\cc2gfMOA.s:548    .text.zconfig_get_apinfo_by_3_byte_mac:0000000000000062 .L0 
C:\Users\stapi\AppData\Local\Temp\cc2gfMOA.s:549    .text.zconfig_get_apinfo_by_3_byte_mac:0000000000000062 .L0 
C:\Users\stapi\AppData\Local\Temp\cc2gfMOA.s:552    .text.zconfig_get_apinfo_by_3_byte_mac:0000000000000066 .L0 
C:\Users\stapi\AppData\Local\Temp\cc2gfMOA.s:563    .text.zconfig_get_apinfo_by_ssid:0000000000000000 zconfig_get_apinfo_by_ssid
C:\Users\stapi\AppData\Local\Temp\cc2gfMOA.s:566    .text.zconfig_get_apinfo_by_ssid:0000000000000000 .L0 
C:\Users\stapi\AppData\Local\Temp\cc2gfMOA.s:568    .text.zconfig_get_apinfo_by_ssid:0000000000000000 .L0 
C:\Users\stapi\AppData\Local\Temp\cc2gfMOA.s:569    .text.zconfig_get_apinfo_by_ssid:0000000000000008 .L0 
C:\Users\stapi\AppData\Local\Temp\cc2gfMOA.s:570    .text.zconfig_get_apinfo_by_ssid:0000000000000008 .L0 
C:\Users\stapi\AppData\Local\Temp\cc2gfMOA.s:571    .text.zconfig_get_apinfo_by_ssid:0000000000000008 .L0 
C:\Users\stapi\AppData\Local\Temp\cc2gfMOA.s:572    .text.zconfig_get_apinfo_by_ssid:0000000000000008 .L0 
C:\Users\stapi\AppData\Local\Temp\cc2gfMOA.s:573    .text.zconfig_get_apinfo_by_ssid:0000000000000008 .L0 
C:\Users\stapi\AppData\Local\Temp\cc2gfMOA.s:574    .text.zconfig_get_apinfo_by_ssid:0000000000000008 .L0 
C:\Users\stapi\AppData\Local\Temp\cc2gfMOA.s:575    .text.zconfig_get_apinfo_by_ssid:0000000000000008 .L0 
C:\Users\stapi\AppData\Local\Temp\cc2gfMOA.s:577    .text.zconfig_get_apinfo_by_ssid:0000000000000008 .L0 
C:\Users\stapi\AppData\Local\Temp\cc2gfMOA.s:578    .text.zconfig_get_apinfo_by_ssid:0000000000000008 .L0 
C:\Users\stapi\AppData\Local\Temp\cc2gfMOA.s:579    .text.zconfig_get_apinfo_by_ssid:0000000000000008 .L0 
C:\Users\stapi\AppData\Local\Temp\cc2gfMOA.s:582    .text.zconfig_get_apinfo_by_ssid:0000000000000010 .L0 
C:\Users\stapi\AppData\Local\Temp\cc2gfMOA.s:584    .text.zconfig_get_apinfo_by_ssid:0000000000000012 .L0 
C:\Users\stapi\AppData\Local\Temp\cc2gfMOA.s:589    .text.zconfig_get_apinfo_by_ssid:0000000000000020 .L0 
C:\Users\stapi\AppData\Local\Temp\cc2gfMOA.s:593    .text.zconfig_get_apinfo_by_ssid:0000000000000022 .L0 
C:\Users\stapi\AppData\Local\Temp\cc2gfMOA.s:594    .text.zconfig_get_apinfo_by_ssid:0000000000000022 .L0 
C:\Users\stapi\AppData\Local\Temp\cc2gfMOA.s:596    .text.zconfig_get_apinfo_by_ssid:0000000000000026 .L0 
C:\Users\stapi\AppData\Local\Temp\cc2gfMOA.s:603    .text.zconfig_get_apinfo_by_ssid:000000000000002a .L0 
C:\Users\stapi\AppData\Local\Temp\cc2gfMOA.s:614    .text.zconfig_get_apinfo_by_ssid:0000000000000040 .L0 
C:\Users\stapi\AppData\Local\Temp\cc2gfMOA.s:615    .text.zconfig_get_apinfo_by_ssid:0000000000000040 .L0 
C:\Users\stapi\AppData\Local\Temp\cc2gfMOA.s:617    .text.zconfig_get_apinfo_by_ssid:000000000000004a .L0 
C:\Users\stapi\AppData\Local\Temp\cc2gfMOA.s:618    .text.zconfig_get_apinfo_by_ssid:000000000000004a .L0 
C:\Users\stapi\AppData\Local\Temp\cc2gfMOA.s:619    .text.zconfig_get_apinfo_by_ssid:000000000000004a .L0 
C:\Users\stapi\AppData\Local\Temp\cc2gfMOA.s:620    .text.zconfig_get_apinfo_by_ssid:000000000000004a .L0 
C:\Users\stapi\AppData\Local\Temp\cc2gfMOA.s:621    .text.zconfig_get_apinfo_by_ssid:000000000000004a .L0 
C:\Users\stapi\AppData\Local\Temp\cc2gfMOA.s:622    .text.zconfig_get_apinfo_by_ssid:000000000000004a .L0 
C:\Users\stapi\AppData\Local\Temp\cc2gfMOA.s:623    .text.zconfig_get_apinfo_by_ssid:000000000000004a .L0 
C:\Users\stapi\AppData\Local\Temp\cc2gfMOA.s:624    .text.zconfig_get_apinfo_by_ssid:000000000000004a .L0 
C:\Users\stapi\AppData\Local\Temp\cc2gfMOA.s:627    .text.zconfig_get_apinfo_by_ssid:000000000000004a .L0 
C:\Users\stapi\AppData\Local\Temp\cc2gfMOA.s:629    .text.zconfig_get_apinfo_by_ssid:000000000000004a .L0 
C:\Users\stapi\AppData\Local\Temp\cc2gfMOA.s:630    .text.zconfig_get_apinfo_by_ssid:000000000000004a .L0 
C:\Users\stapi\AppData\Local\Temp\cc2gfMOA.s:635    .text.zconfig_get_apinfo_by_ssid:0000000000000058 .L0 
C:\Users\stapi\AppData\Local\Temp\cc2gfMOA.s:637    .text.zconfig_get_apinfo_by_ssid:000000000000005a .L0 
C:\Users\stapi\AppData\Local\Temp\cc2gfMOA.s:640    .text.zconfig_get_apinfo_by_ssid:0000000000000060 .L0 
C:\Users\stapi\AppData\Local\Temp\cc2gfMOA.s:641    .text.zconfig_get_apinfo_by_ssid:0000000000000060 .L0 
C:\Users\stapi\AppData\Local\Temp\cc2gfMOA.s:644    .text.zconfig_get_apinfo_by_ssid:0000000000000064 .L0 
C:\Users\stapi\AppData\Local\Temp\cc2gfMOA.s:655    .text.zconfig_get_apinfo_by_ssid_prefix:0000000000000000 zconfig_get_apinfo_by_ssid_prefix
C:\Users\stapi\AppData\Local\Temp\cc2gfMOA.s:658    .text.zconfig_get_apinfo_by_ssid_prefix:0000000000000000 .L0 
C:\Users\stapi\AppData\Local\Temp\cc2gfMOA.s:660    .text.zconfig_get_apinfo_by_ssid_prefix:0000000000000000 .L0 
C:\Users\stapi\AppData\Local\Temp\cc2gfMOA.s:661    .text.zconfig_get_apinfo_by_ssid_prefix:0000000000000008 .L0 
C:\Users\stapi\AppData\Local\Temp\cc2gfMOA.s:662    .text.zconfig_get_apinfo_by_ssid_prefix:0000000000000008 .L0 
C:\Users\stapi\AppData\Local\Temp\cc2gfMOA.s:663    .text.zconfig_get_apinfo_by_ssid_prefix:0000000000000008 .L0 
C:\Users\stapi\AppData\Local\Temp\cc2gfMOA.s:664    .text.zconfig_get_apinfo_by_ssid_prefix:0000000000000008 .L0 
C:\Users\stapi\AppData\Local\Temp\cc2gfMOA.s:665    .text.zconfig_get_apinfo_by_ssid_prefix:0000000000000008 .L0 
C:\Users\stapi\AppData\Local\Temp\cc2gfMOA.s:666    .text.zconfig_get_apinfo_by_ssid_prefix:0000000000000008 .L0 
C:\Users\stapi\AppData\Local\Temp\cc2gfMOA.s:667    .text.zconfig_get_apinfo_by_ssid_prefix:0000000000000008 .L0 
C:\Users\stapi\AppData\Local\Temp\cc2gfMOA.s:668    .text.zconfig_get_apinfo_by_ssid_prefix:0000000000000008 .L0 
C:\Users\stapi\AppData\Local\Temp\cc2gfMOA.s:670    .text.zconfig_get_apinfo_by_ssid_prefix:0000000000000008 .L0 
C:\Users\stapi\AppData\Local\Temp\cc2gfMOA.s:671    .text.zconfig_get_apinfo_by_ssid_prefix:0000000000000008 .L0 
C:\Users\stapi\AppData\Local\Temp\cc2gfMOA.s:672    .text.zconfig_get_apinfo_by_ssid_prefix:0000000000000008 .L0 
C:\Users\stapi\AppData\Local\Temp\cc2gfMOA.s:674    .text.zconfig_get_apinfo_by_ssid_prefix:000000000000000a .L0 
C:\Users\stapi\AppData\Local\Temp\cc2gfMOA.s:677    .text.zconfig_get_apinfo_by_ssid_prefix:0000000000000012 .L0 
C:\Users\stapi\AppData\Local\Temp\cc2gfMOA.s:678    .text.zconfig_get_apinfo_by_ssid_prefix:0000000000000012 .L0 
C:\Users\stapi\AppData\Local\Temp\cc2gfMOA.s:680    .text.zconfig_get_apinfo_by_ssid_prefix:0000000000000014 .L0 
C:\Users\stapi\AppData\Local\Temp\cc2gfMOA.s:683    .text.zconfig_get_apinfo_by_ssid_prefix:000000000000001c .L0 
C:\Users\stapi\AppData\Local\Temp\cc2gfMOA.s:685    .text.zconfig_get_apinfo_by_ssid_prefix:000000000000001e .L0 
C:\Users\stapi\AppData\Local\Temp\cc2gfMOA.s:690    .text.zconfig_get_apinfo_by_ssid_prefix:000000000000002c .L0 
C:\Users\stapi\AppData\Local\Temp\cc2gfMOA.s:694    .text.zconfig_get_apinfo_by_ssid_prefix:000000000000002e .L0 
C:\Users\stapi\AppData\Local\Temp\cc2gfMOA.s:695    .text.zconfig_get_apinfo_by_ssid_prefix:000000000000002e .L0 
C:\Users\stapi\AppData\Local\Temp\cc2gfMOA.s:697    .text.zconfig_get_apinfo_by_ssid_prefix:0000000000000032 .L0 
C:\Users\stapi\AppData\Local\Temp\cc2gfMOA.s:698    .text.zconfig_get_apinfo_by_ssid_prefix:0000000000000032 .L0 
C:\Users\stapi\AppData\Local\Temp\cc2gfMOA.s:704    .text.zconfig_get_apinfo_by_ssid_prefix:0000000000000042 .L0 
C:\Users\stapi\AppData\Local\Temp\cc2gfMOA.s:706    .text.zconfig_get_apinfo_by_ssid_prefix:0000000000000044 .L0 
C:\Users\stapi\AppData\Local\Temp\cc2gfMOA.s:709    .text.zconfig_get_apinfo_by_ssid_prefix:000000000000004a .L0 
C:\Users\stapi\AppData\Local\Temp\cc2gfMOA.s:710    .text.zconfig_get_apinfo_by_ssid_prefix:000000000000004a .L0 
C:\Users\stapi\AppData\Local\Temp\cc2gfMOA.s:716    .text.zconfig_get_apinfo_by_ssid_prefix:000000000000004e .L0 
C:\Users\stapi\AppData\Local\Temp\cc2gfMOA.s:725    .text.zconfig_get_apinfo_by_ssid_prefix:0000000000000064 .L0 
C:\Users\stapi\AppData\Local\Temp\cc2gfMOA.s:726    .text.zconfig_get_apinfo_by_ssid_prefix:0000000000000064 .L0 
C:\Users\stapi\AppData\Local\Temp\cc2gfMOA.s:729    .text.zconfig_get_apinfo_by_ssid_prefix:0000000000000066 .L0 
C:\Users\stapi\AppData\Local\Temp\cc2gfMOA.s:731    .text.zconfig_get_apinfo_by_ssid_prefix:0000000000000070 .L0 
C:\Users\stapi\AppData\Local\Temp\cc2gfMOA.s:732    .text.zconfig_get_apinfo_by_ssid_prefix:0000000000000070 .L0 
C:\Users\stapi\AppData\Local\Temp\cc2gfMOA.s:733    .text.zconfig_get_apinfo_by_ssid_prefix:0000000000000070 .L0 
C:\Users\stapi\AppData\Local\Temp\cc2gfMOA.s:734    .text.zconfig_get_apinfo_by_ssid_prefix:0000000000000070 .L0 
C:\Users\stapi\AppData\Local\Temp\cc2gfMOA.s:735    .text.zconfig_get_apinfo_by_ssid_prefix:0000000000000070 .L0 
C:\Users\stapi\AppData\Local\Temp\cc2gfMOA.s:736    .text.zconfig_get_apinfo_by_ssid_prefix:0000000000000070 .L0 
C:\Users\stapi\AppData\Local\Temp\cc2gfMOA.s:737    .text.zconfig_get_apinfo_by_ssid_prefix:0000000000000070 .L0 
C:\Users\stapi\AppData\Local\Temp\cc2gfMOA.s:738    .text.zconfig_get_apinfo_by_ssid_prefix:0000000000000070 .L0 
C:\Users\stapi\AppData\Local\Temp\cc2gfMOA.s:739    .text.zconfig_get_apinfo_by_ssid_prefix:0000000000000070 .L0 
C:\Users\stapi\AppData\Local\Temp\cc2gfMOA.s:746    .text.str_end_with:0000000000000000 str_end_with
C:\Users\stapi\AppData\Local\Temp\cc2gfMOA.s:749    .text.str_end_with:0000000000000000 .L0 
C:\Users\stapi\AppData\Local\Temp\cc2gfMOA.s:751    .text.str_end_with:0000000000000000 .L0 
C:\Users\stapi\AppData\Local\Temp\cc2gfMOA.s:752    .text.str_end_with:0000000000000000 .L0 
C:\Users\stapi\AppData\Local\Temp\cc2gfMOA.s:753    .text.str_end_with:0000000000000000 .L0 
C:\Users\stapi\AppData\Local\Temp\cc2gfMOA.s:754    .text.str_end_with:0000000000000000 .L0 
C:\Users\stapi\AppData\Local\Temp\cc2gfMOA.s:756    .text.str_end_with:0000000000000002 .L0 
C:\Users\stapi\AppData\Local\Temp\cc2gfMOA.s:757    .text.str_end_with:000000000000000a .L0 
C:\Users\stapi\AppData\Local\Temp\cc2gfMOA.s:758    .text.str_end_with:000000000000000a .L0 
C:\Users\stapi\AppData\Local\Temp\cc2gfMOA.s:759    .text.str_end_with:000000000000000a .L0 
C:\Users\stapi\AppData\Local\Temp\cc2gfMOA.s:760    .text.str_end_with:000000000000000a .L0 
C:\Users\stapi\AppData\Local\Temp\cc2gfMOA.s:761    .text.str_end_with:000000000000000a .L0 
C:\Users\stapi\AppData\Local\Temp\cc2gfMOA.s:764    .text.str_end_with:000000000000000c .L0 
C:\Users\stapi\AppData\Local\Temp\cc2gfMOA.s:766    .text.str_end_with:000000000000000e .L0 
C:\Users\stapi\AppData\Local\Temp\cc2gfMOA.s:772    .text.str_end_with:0000000000000012 .L0 
C:\Users\stapi\AppData\Local\Temp\cc2gfMOA.s:773    .text.str_end_with:0000000000000012 .L0 
C:\Users\stapi\AppData\Local\Temp\cc2gfMOA.s:778    .text.str_end_with:000000000000001c .L0 
C:\Users\stapi\AppData\Local\Temp\cc2gfMOA.s:779    .text.str_end_with:000000000000001c .L0 
C:\Users\stapi\AppData\Local\Temp\cc2gfMOA.s:787    .text.str_end_with:0000000000000028 .L0 
C:\Users\stapi\AppData\Local\Temp\cc2gfMOA.s:788    .text.str_end_with:0000000000000028 .L0 
C:\Users\stapi\AppData\Local\Temp\cc2gfMOA.s:792    .text.str_end_with:000000000000002a .L0 
C:\Users\stapi\AppData\Local\Temp\cc2gfMOA.s:794    .text.str_end_with:000000000000002e .L0 
C:\Users\stapi\AppData\Local\Temp\cc2gfMOA.s:795    .text.str_end_with:000000000000002e .L0 
C:\Users\stapi\AppData\Local\Temp\cc2gfMOA.s:798    .text.str_end_with:0000000000000030 .L0 
C:\Users\stapi\AppData\Local\Temp\cc2gfMOA.s:804    .text.str_end_with:000000000000003e .L0 
C:\Users\stapi\AppData\Local\Temp\cc2gfMOA.s:810    .text.str_end_with:0000000000000042 .L0 
C:\Users\stapi\AppData\Local\Temp\cc2gfMOA.s:812    .text.str_end_with:000000000000004c .L0 
C:\Users\stapi\AppData\Local\Temp\cc2gfMOA.s:813    .text.str_end_with:000000000000004c .L0 
C:\Users\stapi\AppData\Local\Temp\cc2gfMOA.s:814    .text.str_end_with:000000000000004c .L0 
C:\Users\stapi\AppData\Local\Temp\cc2gfMOA.s:815    .text.str_end_with:000000000000004c .L0 
C:\Users\stapi\AppData\Local\Temp\cc2gfMOA.s:816    .text.str_end_with:000000000000004c .L0 
C:\Users\stapi\AppData\Local\Temp\cc2gfMOA.s:820    .text.str_end_with:000000000000004c .L0 
C:\Users\stapi\AppData\Local\Temp\cc2gfMOA.s:822    .text.str_end_with:000000000000004e .L0 
C:\Users\stapi\AppData\Local\Temp\cc2gfMOA.s:825    .text.str_end_with:0000000000000052 .L0 
C:\Users\stapi\AppData\Local\Temp\cc2gfMOA.s:836    .text.zconfig_get_apinfo_by_ssid_suffix:0000000000000000 zconfig_get_apinfo_by_ssid_suffix
C:\Users\stapi\AppData\Local\Temp\cc2gfMOA.s:839    .text.zconfig_get_apinfo_by_ssid_suffix:0000000000000000 .L0 
C:\Users\stapi\AppData\Local\Temp\cc2gfMOA.s:841    .text.zconfig_get_apinfo_by_ssid_suffix:0000000000000000 .L0 
C:\Users\stapi\AppData\Local\Temp\cc2gfMOA.s:842    .text.zconfig_get_apinfo_by_ssid_suffix:0000000000000008 .L0 
C:\Users\stapi\AppData\Local\Temp\cc2gfMOA.s:843    .text.zconfig_get_apinfo_by_ssid_suffix:0000000000000008 .L0 
C:\Users\stapi\AppData\Local\Temp\cc2gfMOA.s:844    .text.zconfig_get_apinfo_by_ssid_suffix:0000000000000008 .L0 
C:\Users\stapi\AppData\Local\Temp\cc2gfMOA.s:845    .text.zconfig_get_apinfo_by_ssid_suffix:0000000000000008 .L0 
C:\Users\stapi\AppData\Local\Temp\cc2gfMOA.s:846    .text.zconfig_get_apinfo_by_ssid_suffix:0000000000000008 .L0 
C:\Users\stapi\AppData\Local\Temp\cc2gfMOA.s:847    .text.zconfig_get_apinfo_by_ssid_suffix:0000000000000008 .L0 
C:\Users\stapi\AppData\Local\Temp\cc2gfMOA.s:848    .text.zconfig_get_apinfo_by_ssid_suffix:0000000000000008 .L0 
C:\Users\stapi\AppData\Local\Temp\cc2gfMOA.s:850    .text.zconfig_get_apinfo_by_ssid_suffix:0000000000000008 .L0 
C:\Users\stapi\AppData\Local\Temp\cc2gfMOA.s:851    .text.zconfig_get_apinfo_by_ssid_suffix:0000000000000008 .L0 
C:\Users\stapi\AppData\Local\Temp\cc2gfMOA.s:852    .text.zconfig_get_apinfo_by_ssid_suffix:0000000000000008 .L0 
C:\Users\stapi\AppData\Local\Temp\cc2gfMOA.s:854    .text.zconfig_get_apinfo_by_ssid_suffix:000000000000000a .L0 
C:\Users\stapi\AppData\Local\Temp\cc2gfMOA.s:857    .text.zconfig_get_apinfo_by_ssid_suffix:0000000000000012 .L0 
C:\Users\stapi\AppData\Local\Temp\cc2gfMOA.s:858    .text.zconfig_get_apinfo_by_ssid_suffix:0000000000000012 .L0 
C:\Users\stapi\AppData\Local\Temp\cc2gfMOA.s:860    .text.zconfig_get_apinfo_by_ssid_suffix:0000000000000014 .L0 
C:\Users\stapi\AppData\Local\Temp\cc2gfMOA.s:863    .text.zconfig_get_apinfo_by_ssid_suffix:000000000000001c .L0 
C:\Users\stapi\AppData\Local\Temp\cc2gfMOA.s:865    .text.zconfig_get_apinfo_by_ssid_suffix:000000000000001e .L0 
C:\Users\stapi\AppData\Local\Temp\cc2gfMOA.s:869    .text.zconfig_get_apinfo_by_ssid_suffix:000000000000002a .L0 
C:\Users\stapi\AppData\Local\Temp\cc2gfMOA.s:873    .text.zconfig_get_apinfo_by_ssid_suffix:000000000000002c .L0 
C:\Users\stapi\AppData\Local\Temp\cc2gfMOA.s:874    .text.zconfig_get_apinfo_by_ssid_suffix:000000000000002c .L0 
C:\Users\stapi\AppData\Local\Temp\cc2gfMOA.s:876    .text.zconfig_get_apinfo_by_ssid_suffix:0000000000000030 .L0 
C:\Users\stapi\AppData\Local\Temp\cc2gfMOA.s:877    .text.zconfig_get_apinfo_by_ssid_suffix:0000000000000030 .L0 
C:\Users\stapi\AppData\Local\Temp\cc2gfMOA.s:882    .text.zconfig_get_apinfo_by_ssid_suffix:000000000000003e .L0 
C:\Users\stapi\AppData\Local\Temp\cc2gfMOA.s:884    .text.zconfig_get_apinfo_by_ssid_suffix:0000000000000040 .L0 
C:\Users\stapi\AppData\Local\Temp\cc2gfMOA.s:887    .text.zconfig_get_apinfo_by_ssid_suffix:0000000000000046 .L0 
C:\Users\stapi\AppData\Local\Temp\cc2gfMOA.s:888    .text.zconfig_get_apinfo_by_ssid_suffix:0000000000000046 .L0 
C:\Users\stapi\AppData\Local\Temp\cc2gfMOA.s:894    .text.zconfig_get_apinfo_by_ssid_suffix:000000000000004a .L0 
C:\Users\stapi\AppData\Local\Temp\cc2gfMOA.s:903    .text.zconfig_get_apinfo_by_ssid_suffix:0000000000000060 .L0 
C:\Users\stapi\AppData\Local\Temp\cc2gfMOA.s:904    .text.zconfig_get_apinfo_by_ssid_suffix:0000000000000060 .L0 
C:\Users\stapi\AppData\Local\Temp\cc2gfMOA.s:907    .text.zconfig_get_apinfo_by_ssid_suffix:0000000000000062 .L0 
C:\Users\stapi\AppData\Local\Temp\cc2gfMOA.s:909    .text.zconfig_get_apinfo_by_ssid_suffix:000000000000006c .L0 
C:\Users\stapi\AppData\Local\Temp\cc2gfMOA.s:910    .text.zconfig_get_apinfo_by_ssid_suffix:000000000000006c .L0 
C:\Users\stapi\AppData\Local\Temp\cc2gfMOA.s:911    .text.zconfig_get_apinfo_by_ssid_suffix:000000000000006c .L0 
C:\Users\stapi\AppData\Local\Temp\cc2gfMOA.s:912    .text.zconfig_get_apinfo_by_ssid_suffix:000000000000006c .L0 
C:\Users\stapi\AppData\Local\Temp\cc2gfMOA.s:913    .text.zconfig_get_apinfo_by_ssid_suffix:000000000000006c .L0 
C:\Users\stapi\AppData\Local\Temp\cc2gfMOA.s:914    .text.zconfig_get_apinfo_by_ssid_suffix:000000000000006c .L0 
C:\Users\stapi\AppData\Local\Temp\cc2gfMOA.s:915    .text.zconfig_get_apinfo_by_ssid_suffix:000000000000006c .L0 
C:\Users\stapi\AppData\Local\Temp\cc2gfMOA.s:916    .text.zconfig_get_apinfo_by_ssid_suffix:000000000000006c .L0 
C:\Users\stapi\AppData\Local\Temp\cc2gfMOA.s:930    .text.awss_save_apinfo:0000000000000000 awss_save_apinfo
C:\Users\stapi\AppData\Local\Temp\cc2gfMOA.s:933    .text.awss_save_apinfo:0000000000000000 .L0 
C:\Users\stapi\AppData\Local\Temp\cc2gfMOA.s:935    .text.awss_save_apinfo:0000000000000000 .L0 
C:\Users\stapi\AppData\Local\Temp\cc2gfMOA.s:936    .text.awss_save_apinfo:0000000000000008 .L0 
C:\Users\stapi\AppData\Local\Temp\cc2gfMOA.s:937    .text.awss_save_apinfo:0000000000000008 .L0 
C:\Users\stapi\AppData\Local\Temp\cc2gfMOA.s:938    .text.awss_save_apinfo:0000000000000008 .L0 
C:\Users\stapi\AppData\Local\Temp\cc2gfMOA.s:939    .text.awss_save_apinfo:0000000000000008 .L0 
C:\Users\stapi\AppData\Local\Temp\cc2gfMOA.s:940    .text.awss_save_apinfo:0000000000000008 .L0 
C:\Users\stapi\AppData\Local\Temp\cc2gfMOA.s:941    .text.awss_save_apinfo:0000000000000008 .L0 
C:\Users\stapi\AppData\Local\Temp\cc2gfMOA.s:942    .text.awss_save_apinfo:0000000000000008 .L0 
C:\Users\stapi\AppData\Local\Temp\cc2gfMOA.s:943    .text.awss_save_apinfo:0000000000000008 .L0 
C:\Users\stapi\AppData\Local\Temp\cc2gfMOA.s:944    .text.awss_save_apinfo:0000000000000008 .L0 
C:\Users\stapi\AppData\Local\Temp\cc2gfMOA.s:945    .text.awss_save_apinfo:0000000000000008 .L0 
C:\Users\stapi\AppData\Local\Temp\cc2gfMOA.s:946    .text.awss_save_apinfo:0000000000000008 .L0 
C:\Users\stapi\AppData\Local\Temp\cc2gfMOA.s:947    .text.awss_save_apinfo:0000000000000008 .L0 
C:\Users\stapi\AppData\Local\Temp\cc2gfMOA.s:948    .text.awss_save_apinfo:0000000000000008 .L0 
C:\Users\stapi\AppData\Local\Temp\cc2gfMOA.s:949    .text.awss_save_apinfo:0000000000000008 .L0 
C:\Users\stapi\AppData\Local\Temp\cc2gfMOA.s:951    .text.awss_save_apinfo:0000000000000008 .L0 
C:\Users\stapi\AppData\Local\Temp\cc2gfMOA.s:952    .text.awss_save_apinfo:0000000000000008 .L0 
C:\Users\stapi\AppData\Local\Temp\cc2gfMOA.s:953    .text.awss_save_apinfo:0000000000000008 .L0 
C:\Users\stapi\AppData\Local\Temp\cc2gfMOA.s:954    .text.awss_save_apinfo:000000000000000a .L0 
C:\Users\stapi\AppData\Local\Temp\cc2gfMOA.s:956    .text.awss_save_apinfo:000000000000000a .L0 
C:\Users\stapi\AppData\Local\Temp\cc2gfMOA.s:959    .text.awss_save_apinfo:000000000000000e .L0 
C:\Users\stapi\AppData\Local\Temp\cc2gfMOA.s:961    .text.awss_save_apinfo:0000000000000010 .L0 
C:\Users\stapi\AppData\Local\Temp\cc2gfMOA.s:964    .text.awss_save_apinfo:0000000000000016 .L0 
C:\Users\stapi\AppData\Local\Temp\cc2gfMOA.s:968    .text.awss_save_apinfo:000000000000001c .L0 
C:\Users\stapi\AppData\Local\Temp\cc2gfMOA.s:976    .text.awss_save_apinfo:000000000000002a .L0 
C:\Users\stapi\AppData\Local\Temp\cc2gfMOA.s:977    .text.awss_save_apinfo:000000000000002a .L0 
C:\Users\stapi\AppData\Local\Temp\cc2gfMOA.s:979    .text.awss_save_apinfo:000000000000002e .L0 
C:\Users\stapi\AppData\Local\Temp\cc2gfMOA.s:985    .text.awss_save_apinfo:0000000000000038 .L0 
C:\Users\stapi\AppData\Local\Temp\cc2gfMOA.s:986    .text.awss_save_apinfo:0000000000000038 .L0 
C:\Users\stapi\AppData\Local\Temp\cc2gfMOA.s:989    .text.awss_save_apinfo:000000000000003e .L0 
C:\Users\stapi\AppData\Local\Temp\cc2gfMOA.s:993    .text.awss_save_apinfo:0000000000000042 .L0 
C:\Users\stapi\AppData\Local\Temp\cc2gfMOA.s:994    .text.awss_save_apinfo:0000000000000042 .L0 
C:\Users\stapi\AppData\Local\Temp\cc2gfMOA.s:998    .text.awss_save_apinfo:0000000000000048 .L0 
C:\Users\stapi\AppData\Local\Temp\cc2gfMOA.s:999    .text.awss_save_apinfo:0000000000000048 .L0 
C:\Users\stapi\AppData\Local\Temp\cc2gfMOA.s:1001   .text.awss_save_apinfo:000000000000004c .L0 
C:\Users\stapi\AppData\Local\Temp\cc2gfMOA.s:1005   .text.awss_save_apinfo:0000000000000050 .L0 
C:\Users\stapi\AppData\Local\Temp\cc2gfMOA.s:1006   .text.awss_save_apinfo:0000000000000050 .L0 
C:\Users\stapi\AppData\Local\Temp\cc2gfMOA.s:1009   .text.awss_save_apinfo:0000000000000056 .L0 
C:\Users\stapi\AppData\Local\Temp\cc2gfMOA.s:1013   .text.awss_save_apinfo:0000000000000058 .L0 
C:\Users\stapi\AppData\Local\Temp\cc2gfMOA.s:1014   .text.awss_save_apinfo:0000000000000058 .L0 
C:\Users\stapi\AppData\Local\Temp\cc2gfMOA.s:1017   .text.awss_save_apinfo:0000000000000060 .L0 
C:\Users\stapi\AppData\Local\Temp\cc2gfMOA.s:1019   .text.awss_save_apinfo:0000000000000064 .L0 
C:\Users\stapi\AppData\Local\Temp\cc2gfMOA.s:1027   .text.awss_save_apinfo:000000000000007a .L0 
C:\Users\stapi\AppData\Local\Temp\cc2gfMOA.s:1028   .text.awss_save_apinfo:000000000000007a .L0 
C:\Users\stapi\AppData\Local\Temp\cc2gfMOA.s:1033   .text.awss_save_apinfo:000000000000007e .L0 
C:\Users\stapi\AppData\Local\Temp\cc2gfMOA.s:1038   .text.awss_save_apinfo:0000000000000082 .L0 
C:\Users\stapi\AppData\Local\Temp\cc2gfMOA.s:1039   .text.awss_save_apinfo:0000000000000082 .L0 
C:\Users\stapi\AppData\Local\Temp\cc2gfMOA.s:1041   .text.awss_save_apinfo:0000000000000086 .L0 
C:\Users\stapi\AppData\Local\Temp\cc2gfMOA.s:1045   .text.awss_save_apinfo:0000000000000090 .L0 
C:\Users\stapi\AppData\Local\Temp\cc2gfMOA.s:1046   .text.awss_save_apinfo:0000000000000090 .L0 
C:\Users\stapi\AppData\Local\Temp\cc2gfMOA.s:1051   .text.awss_save_apinfo:0000000000000096 .L0 
C:\Users\stapi\AppData\Local\Temp\cc2gfMOA.s:1052   .text.awss_save_apinfo:0000000000000096 .L0 
C:\Users\stapi\AppData\Local\Temp\cc2gfMOA.s:1055   .text.awss_save_apinfo:000000000000009e .L0 
C:\Users\stapi\AppData\Local\Temp\cc2gfMOA.s:1059   .text.awss_save_apinfo:00000000000000a0 .L0 
C:\Users\stapi\AppData\Local\Temp\cc2gfMOA.s:1060   .text.awss_save_apinfo:00000000000000a0 .L0 
C:\Users\stapi\AppData\Local\Temp\cc2gfMOA.s:1062   .text.awss_save_apinfo:00000000000000a4 .L0 
C:\Users\stapi\AppData\Local\Temp\cc2gfMOA.s:1063   .text.awss_save_apinfo:00000000000000a4 .L0 
C:\Users\stapi\AppData\Local\Temp\cc2gfMOA.s:1066   .text.awss_save_apinfo:00000000000000ac .L0 
C:\Users\stapi\AppData\Local\Temp\cc2gfMOA.s:1067   .text.awss_save_apinfo:00000000000000ac .L0 
C:\Users\stapi\AppData\Local\Temp\cc2gfMOA.s:1072   .text.awss_save_apinfo:00000000000000b2 .L0 
C:\Users\stapi\AppData\Local\Temp\cc2gfMOA.s:1073   .text.awss_save_apinfo:00000000000000b2 .L0 
C:\Users\stapi\AppData\Local\Temp\cc2gfMOA.s:1076   .text.awss_save_apinfo:00000000000000ba .L0 
C:\Users\stapi\AppData\Local\Temp\cc2gfMOA.s:1082   .text.awss_save_apinfo:00000000000000cc .L0 
C:\Users\stapi\AppData\Local\Temp\cc2gfMOA.s:1088   .text.awss_save_apinfo:00000000000000dc .L0 
C:\Users\stapi\AppData\Local\Temp\cc2gfMOA.s:1089   .text.awss_save_apinfo:00000000000000dc .L0 
C:\Users\stapi\AppData\Local\Temp\cc2gfMOA.s:1091   .text.awss_save_apinfo:00000000000000e0 .L0 
C:\Users\stapi\AppData\Local\Temp\cc2gfMOA.s:1092   .text.awss_save_apinfo:00000000000000e0 .L0 
C:\Users\stapi\AppData\Local\Temp\cc2gfMOA.s:1094   .text.awss_save_apinfo:00000000000000e4 .L0 
C:\Users\stapi\AppData\Local\Temp\cc2gfMOA.s:1095   .text.awss_save_apinfo:00000000000000e4 .L0 
C:\Users\stapi\AppData\Local\Temp\cc2gfMOA.s:1097   .text.awss_save_apinfo:00000000000000e8 .L0 
C:\Users\stapi\AppData\Local\Temp\cc2gfMOA.s:1098   .text.awss_save_apinfo:00000000000000e8 .L0 
C:\Users\stapi\AppData\Local\Temp\cc2gfMOA.s:1100   .text.awss_save_apinfo:00000000000000ec .L0 
C:\Users\stapi\AppData\Local\Temp\cc2gfMOA.s:1101   .text.awss_save_apinfo:00000000000000ec .L0 
C:\Users\stapi\AppData\Local\Temp\cc2gfMOA.s:1104   .text.awss_save_apinfo:00000000000000f0 .L0 
C:\Users\stapi\AppData\Local\Temp\cc2gfMOA.s:1106   .text.awss_save_apinfo:00000000000000f0 .L0 
C:\Users\stapi\AppData\Local\Temp\cc2gfMOA.s:1107   .text.awss_save_apinfo:00000000000000f0 .L0 
C:\Users\stapi\AppData\Local\Temp\cc2gfMOA.s:1115   .text.awss_save_apinfo:000000000000010c .L0 
C:\Users\stapi\AppData\Local\Temp\cc2gfMOA.s:1118   .text.awss_save_apinfo:0000000000000110 .L0 
C:\Users\stapi\AppData\Local\Temp\cc2gfMOA.s:1134   .text.awss_save_apinfo:0000000000000136 .L0 
C:\Users\stapi\AppData\Local\Temp\cc2gfMOA.s:1135   .text.awss_save_apinfo:0000000000000136 .L0 
C:\Users\stapi\AppData\Local\Temp\cc2gfMOA.s:1136   .text.awss_save_apinfo:0000000000000136 .L0 
C:\Users\stapi\AppData\Local\Temp\cc2gfMOA.s:1139   .text.awss_save_apinfo:000000000000013e .L0 
C:\Users\stapi\AppData\Local\Temp\cc2gfMOA.s:1146   .text.awss_save_apinfo:0000000000000150 .L0 
C:\Users\stapi\AppData\Local\Temp\cc2gfMOA.s:1148   .text.awss_save_apinfo:0000000000000152 .L0 
C:\Users\stapi\AppData\Local\Temp\cc2gfMOA.s:1151   .text.awss_save_apinfo:0000000000000158 .L0 
C:\Users\stapi\AppData\Local\Temp\cc2gfMOA.s:1160   .text.awss_save_apinfo:000000000000016c .L0 
C:\Users\stapi\AppData\Local\Temp\cc2gfMOA.s:1161   .text.awss_save_apinfo:000000000000016c .L0 
C:\Users\stapi\AppData\Local\Temp\cc2gfMOA.s:1167   .text.awss_save_apinfo:000000000000017e .L0 
C:\Users\stapi\AppData\Local\Temp\cc2gfMOA.s:1172   .text.awss_save_apinfo:000000000000018a .L0 
C:\Users\stapi\AppData\Local\Temp\cc2gfMOA.s:1178   .text.awss_save_apinfo:000000000000019a .L0 
C:\Users\stapi\AppData\Local\Temp\cc2gfMOA.s:1180   .text.awss_save_apinfo:000000000000019e .L0 
C:\Users\stapi\AppData\Local\Temp\cc2gfMOA.s:1182   .text.awss_save_apinfo:00000000000001a0 .L0 
C:\Users\stapi\AppData\Local\Temp\cc2gfMOA.s:1185   .text.awss_save_apinfo:00000000000001a6 .L0 
C:\Users\stapi\AppData\Local\Temp\cc2gfMOA.s:1186   .text.awss_save_apinfo:00000000000001a6 .L0 
C:\Users\stapi\AppData\Local\Temp\cc2gfMOA.s:1189   .text.awss_save_apinfo:00000000000001ac .L0 
C:\Users\stapi\AppData\Local\Temp\cc2gfMOA.s:1190   .text.awss_save_apinfo:00000000000001ac .L0 
C:\Users\stapi\AppData\Local\Temp\cc2gfMOA.s:1193   .text.awss_save_apinfo:00000000000001b0 .L0 
C:\Users\stapi\AppData\Local\Temp\cc2gfMOA.s:1194   .text.awss_save_apinfo:00000000000001b0 .L0 
C:\Users\stapi\AppData\Local\Temp\cc2gfMOA.s:1198   .text.awss_save_apinfo:00000000000001bc .L0 
C:\Users\stapi\AppData\Local\Temp\cc2gfMOA.s:1199   .text.awss_save_apinfo:00000000000001bc .L0 
C:\Users\stapi\AppData\Local\Temp\cc2gfMOA.s:1202   .text.awss_save_apinfo:00000000000001c0 .L0 
C:\Users\stapi\AppData\Local\Temp\cc2gfMOA.s:1203   .text.awss_save_apinfo:00000000000001c0 .L0 
C:\Users\stapi\AppData\Local\Temp\cc2gfMOA.s:1207   .text.awss_save_apinfo:00000000000001cc .L0 
C:\Users\stapi\AppData\Local\Temp\cc2gfMOA.s:1208   .text.awss_save_apinfo:00000000000001cc .L0 
C:\Users\stapi\AppData\Local\Temp\cc2gfMOA.s:1211   .text.awss_save_apinfo:00000000000001d0 .L0 
C:\Users\stapi\AppData\Local\Temp\cc2gfMOA.s:1212   .text.awss_save_apinfo:00000000000001d0 .L0 
C:\Users\stapi\AppData\Local\Temp\cc2gfMOA.s:1217   .text.awss_save_apinfo:00000000000001dc .L0 
C:\Users\stapi\AppData\Local\Temp\cc2gfMOA.s:1221   .text.awss_save_apinfo:00000000000001de .L0 
C:\Users\stapi\AppData\Local\Temp\cc2gfMOA.s:1223   .text.awss_save_apinfo:00000000000001e2 .L0 
C:\Users\stapi\AppData\Local\Temp\cc2gfMOA.s:1224   .text.awss_save_apinfo:00000000000001e2 .L0 
C:\Users\stapi\AppData\Local\Temp\cc2gfMOA.s:1226   .text.awss_save_apinfo:00000000000001ea .L0 
C:\Users\stapi\AppData\Local\Temp\cc2gfMOA.s:1227   .text.awss_save_apinfo:00000000000001ea .L0 
C:\Users\stapi\AppData\Local\Temp\cc2gfMOA.s:1228   .text.awss_save_apinfo:00000000000001ea .L0 
C:\Users\stapi\AppData\Local\Temp\cc2gfMOA.s:1229   .text.awss_save_apinfo:00000000000001ea .L0 
C:\Users\stapi\AppData\Local\Temp\cc2gfMOA.s:1230   .text.awss_save_apinfo:00000000000001ea .L0 
C:\Users\stapi\AppData\Local\Temp\cc2gfMOA.s:1231   .text.awss_save_apinfo:00000000000001ea .L0 
C:\Users\stapi\AppData\Local\Temp\cc2gfMOA.s:1232   .text.awss_save_apinfo:00000000000001ea .L0 
C:\Users\stapi\AppData\Local\Temp\cc2gfMOA.s:1233   .text.awss_save_apinfo:00000000000001ea .L0 
C:\Users\stapi\AppData\Local\Temp\cc2gfMOA.s:1234   .text.awss_save_apinfo:00000000000001ea .L0 
C:\Users\stapi\AppData\Local\Temp\cc2gfMOA.s:1235   .text.awss_save_apinfo:00000000000001ea .L0 
C:\Users\stapi\AppData\Local\Temp\cc2gfMOA.s:1236   .text.awss_save_apinfo:00000000000001ea .L0 
C:\Users\stapi\AppData\Local\Temp\cc2gfMOA.s:1237   .text.awss_save_apinfo:00000000000001ea .L0 
C:\Users\stapi\AppData\Local\Temp\cc2gfMOA.s:1238   .text.awss_save_apinfo:00000000000001ea .L0 
C:\Users\stapi\AppData\Local\Temp\cc2gfMOA.s:1239   .text.awss_save_apinfo:00000000000001ea .L0 
C:\Users\stapi\AppData\Local\Temp\cc2gfMOA.s:1242   .text.awss_save_apinfo:00000000000001ea .L0 
C:\Users\stapi\AppData\Local\Temp\cc2gfMOA.s:1244   .text.awss_save_apinfo:00000000000001ea .L0 
C:\Users\stapi\AppData\Local\Temp\cc2gfMOA.s:1245   .text.awss_save_apinfo:00000000000001ea .L0 
C:\Users\stapi\AppData\Local\Temp\cc2gfMOA.s:1249   .text.awss_save_apinfo:00000000000001f0 .L0 
C:\Users\stapi\AppData\Local\Temp\cc2gfMOA.s:1250   .text.awss_save_apinfo:00000000000001f0 .L0 
C:\Users\stapi\AppData\Local\Temp\cc2gfMOA.s:1256   .text.awss_save_apinfo:00000000000001f8 .L0 
C:\Users\stapi\AppData\Local\Temp\cc2gfMOA.s:1262   .text.awss_save_apinfo:00000000000001fc .L0 
C:\Users\stapi\AppData\Local\Temp\cc2gfMOA.s:1263   .text.awss_save_apinfo:00000000000001fc .L0 
C:\Users\stapi\AppData\Local\Temp\cc2gfMOA.s:1265   .text.awss_save_apinfo:0000000000000200 .L0 
C:\Users\stapi\AppData\Local\Temp\cc2gfMOA.s:1267   .text.awss_save_apinfo:0000000000000204 .L0 
C:\Users\stapi\AppData\Local\Temp\cc2gfMOA.s:1269   .text.awss_save_apinfo:000000000000020a .L0 
C:\Users\stapi\AppData\Local\Temp\cc2gfMOA.s:1276   .text.awss_get_auth_info:0000000000000000 awss_get_auth_info
C:\Users\stapi\AppData\Local\Temp\cc2gfMOA.s:1279   .text.awss_get_auth_info:0000000000000000 .L0 
C:\Users\stapi\AppData\Local\Temp\cc2gfMOA.s:1281   .text.awss_get_auth_info:0000000000000000 .L0 
C:\Users\stapi\AppData\Local\Temp\cc2gfMOA.s:1282   .text.awss_get_auth_info:0000000000000008 .L0 
C:\Users\stapi\AppData\Local\Temp\cc2gfMOA.s:1283   .text.awss_get_auth_info:0000000000000008 .L0 
C:\Users\stapi\AppData\Local\Temp\cc2gfMOA.s:1284   .text.awss_get_auth_info:0000000000000008 .L0 
C:\Users\stapi\AppData\Local\Temp\cc2gfMOA.s:1285   .text.awss_get_auth_info:0000000000000008 .L0 
C:\Users\stapi\AppData\Local\Temp\cc2gfMOA.s:1286   .text.awss_get_auth_info:0000000000000008 .L0 
C:\Users\stapi\AppData\Local\Temp\cc2gfMOA.s:1287   .text.awss_get_auth_info:0000000000000008 .L0 
C:\Users\stapi\AppData\Local\Temp\cc2gfMOA.s:1288   .text.awss_get_auth_info:0000000000000008 .L0 
C:\Users\stapi\AppData\Local\Temp\cc2gfMOA.s:1291   .text.awss_get_auth_info:0000000000000008 .L0 
C:\Users\stapi\AppData\Local\Temp\cc2gfMOA.s:1292   .text.awss_get_auth_info:0000000000000008 .L0 
C:\Users\stapi\AppData\Local\Temp\cc2gfMOA.s:1293   .text.awss_get_auth_info:0000000000000008 .L0 
C:\Users\stapi\AppData\Local\Temp\cc2gfMOA.s:1294   .text.awss_get_auth_info:0000000000000008 .L0 
C:\Users\stapi\AppData\Local\Temp\cc2gfMOA.s:1300   .text.awss_get_auth_info:0000000000000012 .L0 
C:\Users\stapi\AppData\Local\Temp\cc2gfMOA.s:1302   .text.awss_get_auth_info:0000000000000014 .L0 
C:\Users\stapi\AppData\Local\Temp\cc2gfMOA.s:1312   .text.awss_get_auth_info:0000000000000028 .L0 
C:\Users\stapi\AppData\Local\Temp\cc2gfMOA.s:1315   .text.awss_get_auth_info:000000000000002a .L0 
C:\Users\stapi\AppData\Local\Temp\cc2gfMOA.s:1316   .text.awss_get_auth_info:000000000000002a .L0 
C:\Users\stapi\AppData\Local\Temp\cc2gfMOA.s:1317   .text.awss_get_auth_info:000000000000002a .L0 
C:\Users\stapi\AppData\Local\Temp\cc2gfMOA.s:1318   .text.awss_get_auth_info:000000000000002a .L0 
C:\Users\stapi\AppData\Local\Temp\cc2gfMOA.s:1327   .text.awss_get_auth_info:0000000000000038 .L0 
C:\Users\stapi\AppData\Local\Temp\cc2gfMOA.s:1328   .text.awss_get_auth_info:0000000000000038 .L0 
C:\Users\stapi\AppData\Local\Temp\cc2gfMOA.s:1330   .text.awss_get_auth_info:000000000000003a .L0 
C:\Users\stapi\AppData\Local\Temp\cc2gfMOA.s:1332   .text.awss_get_auth_info:000000000000003c .L0 
C:\Users\stapi\AppData\Local\Temp\cc2gfMOA.s:1333   .text.awss_get_auth_info:000000000000003c .L0 
C:\Users\stapi\AppData\Local\Temp\cc2gfMOA.s:1335   .text.awss_get_auth_info:0000000000000040 .L0 
C:\Users\stapi\AppData\Local\Temp\cc2gfMOA.s:1336   .text.awss_get_auth_info:0000000000000040 .L0 
C:\Users\stapi\AppData\Local\Temp\cc2gfMOA.s:1338   .text.awss_get_auth_info:0000000000000044 .L0 
C:\Users\stapi\AppData\Local\Temp\cc2gfMOA.s:1341   .text.awss_get_auth_info:0000000000000048 .L0 
C:\Users\stapi\AppData\Local\Temp\cc2gfMOA.s:1342   .text.awss_get_auth_info:0000000000000048 .L0 
C:\Users\stapi\AppData\Local\Temp\cc2gfMOA.s:1344   .text.awss_get_auth_info:000000000000004c .L0 
C:\Users\stapi\AppData\Local\Temp\cc2gfMOA.s:1345   .text.awss_get_auth_info:000000000000004c .L0 
C:\Users\stapi\AppData\Local\Temp\cc2gfMOA.s:1347   .text.awss_get_auth_info:0000000000000050 .L0 
C:\Users\stapi\AppData\Local\Temp\cc2gfMOA.s:1350   .text.awss_get_auth_info:0000000000000054 .L0 
C:\Users\stapi\AppData\Local\Temp\cc2gfMOA.s:1351   .text.awss_get_auth_info:0000000000000054 .L0 
C:\Users\stapi\AppData\Local\Temp\cc2gfMOA.s:1353   .text.awss_get_auth_info:0000000000000056 .L0 
C:\Users\stapi\AppData\Local\Temp\cc2gfMOA.s:1355   .text.awss_get_auth_info:0000000000000058 .L0 
C:\Users\stapi\AppData\Local\Temp\cc2gfMOA.s:1362   .text.awss_get_auth_info:0000000000000068 .L0 
C:\Users\stapi\AppData\Local\Temp\cc2gfMOA.s:1363   .text.awss_get_auth_info:0000000000000068 .L0 
C:\Users\stapi\AppData\Local\Temp\cc2gfMOA.s:1365   .text.awss_get_auth_info:000000000000006a .L0 
C:\Users\stapi\AppData\Local\Temp\cc2gfMOA.s:1367   .text.awss_get_auth_info:000000000000006e .L0 
C:\Users\stapi\AppData\Local\Temp\cc2gfMOA.s:1368   .text.awss_get_auth_info:000000000000006e .L0 
C:\Users\stapi\AppData\Local\Temp\cc2gfMOA.s:1370   .text.awss_get_auth_info:0000000000000072 .L0 
C:\Users\stapi\AppData\Local\Temp\cc2gfMOA.s:1373   .text.awss_get_auth_info:0000000000000076 .L0 
C:\Users\stapi\AppData\Local\Temp\cc2gfMOA.s:1374   .text.awss_get_auth_info:000000000000007e .L0 
C:\Users\stapi\AppData\Local\Temp\cc2gfMOA.s:1375   .text.awss_get_auth_info:000000000000007e .L0 
C:\Users\stapi\AppData\Local\Temp\cc2gfMOA.s:1376   .text.awss_get_auth_info:000000000000007e .L0 
C:\Users\stapi\AppData\Local\Temp\cc2gfMOA.s:1377   .text.awss_get_auth_info:000000000000007e .L0 
C:\Users\stapi\AppData\Local\Temp\cc2gfMOA.s:1378   .text.awss_get_auth_info:000000000000007e .L0 
C:\Users\stapi\AppData\Local\Temp\cc2gfMOA.s:1379   .text.awss_get_auth_info:000000000000007e .L0 
C:\Users\stapi\AppData\Local\Temp\cc2gfMOA.s:1380   .text.awss_get_auth_info:000000000000007e .L0 
C:\Users\stapi\AppData\Local\Temp\cc2gfMOA.s:1381   .text.awss_get_auth_info:000000000000007e .L0 
C:\Users\stapi\AppData\Local\Temp\cc2gfMOA.s:1384   .text.awss_get_auth_info:000000000000007e .L0 
C:\Users\stapi\AppData\Local\Temp\cc2gfMOA.s:1386   .text.awss_get_auth_info:000000000000007e .L0 
C:\Users\stapi\AppData\Local\Temp\cc2gfMOA.s:1387   .text.awss_get_auth_info:000000000000007e .L0 
C:\Users\stapi\AppData\Local\Temp\cc2gfMOA.s:1394   .text.awss_get_auth_info:000000000000008e .L0 
C:\Users\stapi\AppData\Local\Temp\cc2gfMOA.s:1401   .text.aws_try_adjust_chan:0000000000000000 aws_try_adjust_chan
C:\Users\stapi\AppData\Local\Temp\cc2gfMOA.s:1404   .text.aws_try_adjust_chan:0000000000000000 .L0 
C:\Users\stapi\AppData\Local\Temp\cc2gfMOA.s:1405   .text.aws_try_adjust_chan:0000000000000000 .L0 
C:\Users\stapi\AppData\Local\Temp\cc2gfMOA.s:1406   .text.aws_try_adjust_chan:0000000000000008 .L0 
C:\Users\stapi\AppData\Local\Temp\cc2gfMOA.s:1407   .text.aws_try_adjust_chan:0000000000000008 .L0 
C:\Users\stapi\AppData\Local\Temp\cc2gfMOA.s:1408   .text.aws_try_adjust_chan:0000000000000008 .L0 
C:\Users\stapi\AppData\Local\Temp\cc2gfMOA.s:1411   .text.aws_try_adjust_chan:0000000000000008 .L0 
C:\Users\stapi\AppData\Local\Temp\cc2gfMOA.s:1412   .text.aws_try_adjust_chan:0000000000000008 .L0 
C:\Users\stapi\AppData\Local\Temp\cc2gfMOA.s:1413   .text.aws_try_adjust_chan:0000000000000008 .L0 
C:\Users\stapi\AppData\Local\Temp\cc2gfMOA.s:1414   .text.aws_try_adjust_chan:0000000000000008 .L0 
C:\Users\stapi\AppData\Local\Temp\cc2gfMOA.s:1416   .text.aws_try_adjust_chan:000000000000000c .L0 
C:\Users\stapi\AppData\Local\Temp\cc2gfMOA.s:1421   .text.aws_try_adjust_chan:000000000000001c .L0 
C:\Users\stapi\AppData\Local\Temp\cc2gfMOA.s:1422   .text.aws_try_adjust_chan:000000000000001c .L0 
C:\Users\stapi\AppData\Local\Temp\cc2gfMOA.s:1425   .text.aws_try_adjust_chan:0000000000000020 .L0 
C:\Users\stapi\AppData\Local\Temp\cc2gfMOA.s:1426   .text.aws_try_adjust_chan:0000000000000020 .L0 
C:\Users\stapi\AppData\Local\Temp\cc2gfMOA.s:1429   .text.aws_try_adjust_chan:0000000000000028 .L0 
C:\Users\stapi\AppData\Local\Temp\cc2gfMOA.s:1431   .text.aws_try_adjust_chan:000000000000002c .L0 
C:\Users\stapi\AppData\Local\Temp\cc2gfMOA.s:1437   .text.aws_try_adjust_chan:0000000000000030 .L0 
C:\Users\stapi\AppData\Local\Temp\cc2gfMOA.s:1438   .text.aws_try_adjust_chan:0000000000000030 .L0 
C:\Users\stapi\AppData\Local\Temp\cc2gfMOA.s:1439   .text.aws_try_adjust_chan:0000000000000030 .L0 
C:\Users\stapi\AppData\Local\Temp\cc2gfMOA.s:1443   .text.aws_try_adjust_chan:0000000000000034 .L0 
C:\Users\stapi\AppData\Local\Temp\cc2gfMOA.s:1446   .text.aws_try_adjust_chan:000000000000003a .L0 
C:\Users\stapi\AppData\Local\Temp\cc2gfMOA.s:1447   .text.aws_try_adjust_chan:000000000000003a .L0 
C:\Users\stapi\AppData\Local\Temp\cc2gfMOA.s:1451   .text.aws_try_adjust_chan:0000000000000044 .L0 
C:\Users\stapi\AppData\Local\Temp\cc2gfMOA.s:1455   .text.aws_try_adjust_chan:000000000000004c .L0 
C:\Users\stapi\AppData\Local\Temp\cc2gfMOA.s:1456   .text.aws_try_adjust_chan:0000000000000054 .L0 
C:\Users\stapi\AppData\Local\Temp\cc2gfMOA.s:1457   .text.aws_try_adjust_chan:0000000000000054 .L0 
C:\Users\stapi\AppData\Local\Temp\cc2gfMOA.s:1458   .text.aws_try_adjust_chan:0000000000000054 .L0 
C:\Users\stapi\AppData\Local\Temp\cc2gfMOA.s:1459   .text.aws_try_adjust_chan:0000000000000054 .L0 
C:\Users\stapi\AppData\Local\Temp\cc2gfMOA.s:1466   .text.awss_ieee80211_aplist_process:0000000000000000 awss_ieee80211_aplist_process
C:\Users\stapi\AppData\Local\Temp\cc2gfMOA.s:1469   .text.awss_ieee80211_aplist_process:0000000000000000 .L0 
C:\Users\stapi\AppData\Local\Temp\cc2gfMOA.s:1471   .text.awss_ieee80211_aplist_process:0000000000000000 .L0 
C:\Users\stapi\AppData\Local\Temp\cc2gfMOA.s:1472   .text.awss_ieee80211_aplist_process:0000000000000008 .L0 
C:\Users\stapi\AppData\Local\Temp\cc2gfMOA.s:1473   .text.awss_ieee80211_aplist_process:0000000000000008 .L0 
C:\Users\stapi\AppData\Local\Temp\cc2gfMOA.s:1474   .text.awss_ieee80211_aplist_process:0000000000000008 .L0 
C:\Users\stapi\AppData\Local\Temp\cc2gfMOA.s:1475   .text.awss_ieee80211_aplist_process:0000000000000008 .L0 
C:\Users\stapi\AppData\Local\Temp\cc2gfMOA.s:1476   .text.awss_ieee80211_aplist_process:0000000000000008 .L0 
C:\Users\stapi\AppData\Local\Temp\cc2gfMOA.s:1477   .text.awss_ieee80211_aplist_process:0000000000000008 .L0 
C:\Users\stapi\AppData\Local\Temp\cc2gfMOA.s:1479   .text.awss_ieee80211_aplist_process:0000000000000008 .L0 
C:\Users\stapi\AppData\Local\Temp\cc2gfMOA.s:1480   .text.awss_ieee80211_aplist_process:0000000000000008 .L0 
C:\Users\stapi\AppData\Local\Temp\cc2gfMOA.s:1481   .text.awss_ieee80211_aplist_process:000000000000000a .L0 
C:\Users\stapi\AppData\Local\Temp\cc2gfMOA.s:1483   .text.awss_ieee80211_aplist_process:000000000000000a .L0 
C:\Users\stapi\AppData\Local\Temp\cc2gfMOA.s:1486   .text.awss_ieee80211_aplist_process:000000000000000e .L0 
C:\Users\stapi\AppData\Local\Temp\cc2gfMOA.s:1493   .text.awss_ieee80211_aplist_process:0000000000000014 .L0 
C:\Users\stapi\AppData\Local\Temp\cc2gfMOA.s:1495   .text.awss_ieee80211_aplist_process:0000000000000016 .L0 
C:\Users\stapi\AppData\Local\Temp\cc2gfMOA.s:1499   .text.awss_ieee80211_aplist_process:0000000000000020 .L0 
C:\Users\stapi\AppData\Local\Temp\cc2gfMOA.s:1502   .text.awss_ieee80211_aplist_process:0000000000000026 .L0 
C:\Users\stapi\AppData\Local\Temp\cc2gfMOA.s:1503   .text.awss_ieee80211_aplist_process:0000000000000026 .L0 
C:\Users\stapi\AppData\Local\Temp\cc2gfMOA.s:1504   .text.awss_ieee80211_aplist_process:0000000000000026 .L0 
C:\Users\stapi\AppData\Local\Temp\cc2gfMOA.s:1505   .text.awss_ieee80211_aplist_process:0000000000000026 .L0 
C:\Users\stapi\AppData\Local\Temp\cc2gfMOA.s:1506   .text.awss_ieee80211_aplist_process:0000000000000026 .L0 
C:\Users\stapi\AppData\Local\Temp\cc2gfMOA.s:1509   .text.awss_ieee80211_aplist_process:0000000000000028 .L0 
C:\Users\stapi\AppData\Local\Temp\cc2gfMOA.s:1510   .text.awss_ieee80211_aplist_process:0000000000000028 .L0 
C:\Users\stapi\AppData\Local\Temp\cc2gfMOA.s:1511   .text.awss_ieee80211_aplist_process:0000000000000028 .L0 
C:\Users\stapi\AppData\Local\Temp\cc2gfMOA.s:1514   .text.awss_ieee80211_aplist_process:000000000000002c .L0 
C:\Users\stapi\AppData\Local\Temp\cc2gfMOA.s:1515   .text.awss_ieee80211_aplist_process:000000000000002c .L0 
C:\Users\stapi\AppData\Local\Temp\cc2gfMOA.s:1519   .text.awss_ieee80211_aplist_process:0000000000000036 .L0 
C:\Users\stapi\AppData\Local\Temp\cc2gfMOA.s:1522   .text.awss_ieee80211_aplist_process:0000000000000038 .L0 
C:\Users\stapi\AppData\Local\Temp\cc2gfMOA.s:1523   .text.awss_ieee80211_aplist_process:0000000000000038 .L0 
C:\Users\stapi\AppData\Local\Temp\cc2gfMOA.s:1528   .text.awss_ieee80211_aplist_process:0000000000000044 .L0 
C:\Users\stapi\AppData\Local\Temp\cc2gfMOA.s:1529   .text.awss_ieee80211_aplist_process:0000000000000044 .L0 
C:\Users\stapi\AppData\Local\Temp\cc2gfMOA.s:1533   .text.awss_ieee80211_aplist_process:0000000000000048 .L0 
C:\Users\stapi\AppData\Local\Temp\cc2gfMOA.s:1535   .text.awss_ieee80211_aplist_process:000000000000004c .L0 
C:\Users\stapi\AppData\Local\Temp\cc2gfMOA.s:1536   .text.awss_ieee80211_aplist_process:000000000000004c .L0 
C:\Users\stapi\AppData\Local\Temp\cc2gfMOA.s:1538   .text.awss_ieee80211_aplist_process:0000000000000054 .L0 
C:\Users\stapi\AppData\Local\Temp\cc2gfMOA.s:1539   .text.awss_ieee80211_aplist_process:0000000000000054 .L0 
C:\Users\stapi\AppData\Local\Temp\cc2gfMOA.s:1540   .text.awss_ieee80211_aplist_process:0000000000000054 .L0 
C:\Users\stapi\AppData\Local\Temp\cc2gfMOA.s:1541   .text.awss_ieee80211_aplist_process:0000000000000054 .L0 
C:\Users\stapi\AppData\Local\Temp\cc2gfMOA.s:1542   .text.awss_ieee80211_aplist_process:0000000000000054 .L0 
C:\Users\stapi\AppData\Local\Temp\cc2gfMOA.s:1543   .text.awss_ieee80211_aplist_process:0000000000000054 .L0 
C:\Users\stapi\AppData\Local\Temp\cc2gfMOA.s:1546   .text.awss_ieee80211_aplist_process:0000000000000054 .L0 
C:\Users\stapi\AppData\Local\Temp\cc2gfMOA.s:1548   .text.awss_ieee80211_aplist_process:0000000000000054 .L0 
C:\Users\stapi\AppData\Local\Temp\cc2gfMOA.s:1552   .text.awss_ieee80211_aplist_process:000000000000005e .L0 
C:\Users\stapi\AppData\Local\Temp\cc2gfMOA.s:1557   .text.awss_ieee80211_aplist_process:0000000000000062 .L0 
C:\Users\stapi\AppData\Local\Temp\cc2gfMOA.s:1558   .text.awss_ieee80211_aplist_process:0000000000000062 .L0 
C:\Users\stapi\AppData\Local\Temp\cc2gfMOA.s:1566   .text.awss_ieee80211_aplist_process:0000000000000074 .L0 
C:\Users\stapi\AppData\Local\Temp\cc2gfMOA.s:1567   .text.awss_ieee80211_aplist_process:0000000000000074 .L0 
C:\Users\stapi\AppData\Local\Temp\cc2gfMOA.s:1569   .text.awss_ieee80211_aplist_process:0000000000000078 .L0 
C:\Users\stapi\AppData\Local\Temp\cc2gfMOA.s:1570   .text.awss_ieee80211_aplist_process:0000000000000078 .L0 
C:\Users\stapi\AppData\Local\Temp\cc2gfMOA.s:1576   .text.awss_ieee80211_aplist_process:0000000000000084 .L0 
C:\Users\stapi\AppData\Local\Temp\cc2gfMOA.s:1578   .text.awss_ieee80211_aplist_process:0000000000000086 .L0 
C:\Users\stapi\AppData\Local\Temp\cc2gfMOA.s:1581   .text.awss_ieee80211_aplist_process:0000000000000088 .L0 
C:\Users\stapi\AppData\Local\Temp\cc2gfMOA.s:1582   .text.awss_ieee80211_aplist_process:0000000000000088 .L0 
C:\Users\stapi\AppData\Local\Temp\cc2gfMOA.s:1589   .text.awss_ieee80211_aplist_process:000000000000009e .L0 
C:\Users\stapi\AppData\Local\Temp\cc2gfMOA.s:1599   .text.awss_ieee80211_aplist_process:00000000000000bc .L0 
C:\Users\stapi\AppData\Local\Temp\cc2gfMOA.s:1600   .text.awss_ieee80211_aplist_process:00000000000000bc .L0 
C:\Users\stapi\AppData\Local\Temp\cc2gfMOA.s:1601   .text.awss_ieee80211_aplist_process:00000000000000be .L0 
C:\Users\stapi\AppData\Local\Temp\cc2gfMOA.s:1630   .sbss.zconfig_aplist_num:0000000000000000 zconfig_aplist_num
C:\Users\stapi\AppData\Local\Temp\cc2gfMOA.s:1624   .sbss.zconfig_aplist:0000000000000000 zconfig_aplist
C:\Users\stapi\AppData\Local\Temp\cc2gfMOA.s:1607   .sbss.clr_aplist:0000000000000000 .LANCHOR0
C:\Users\stapi\AppData\Local\Temp\cc2gfMOA.s:1610   .sbss.clr_aplist:0000000000000000 clr_aplist
C:\Users\stapi\AppData\Local\Temp\cc2gfMOA.s:1614   .sbss.clr_aplist_timer:0000000000000000 .LANCHOR1
C:\Users\stapi\AppData\Local\Temp\cc2gfMOA.s:1617   .sbss.clr_aplist_timer:0000000000000000 clr_aplist_timer
C:\Users\stapi\AppData\Local\Temp\cc2gfMOA.s:1621   .sbss.zconfig_aplist:0000000000000000 .LANCHOR2
C:\Users\stapi\AppData\Local\Temp\cc2gfMOA.s:1627   .sbss.zconfig_aplist_num:0000000000000000 .LANCHOR3
C:\Users\stapi\AppData\Local\Temp\cc2gfMOA.s:32     .text.awss_clr_aplist_monitor:0000000000000022 .L0 
C:\Users\stapi\AppData\Local\Temp\cc2gfMOA.s:48     .text.awss_is_ready_clr_aplist:000000000000000a .L0 
C:\Users\stapi\AppData\Local\Temp\cc2gfMOA.s:108    .text.awss_clear_aplist:0000000000000056 .L0 
C:\Users\stapi\AppData\Local\Temp\cc2gfMOA.s:172    .text.awss_open_aplist_monitor:000000000000005e .L0 
C:\Users\stapi\AppData\Local\Temp\cc2gfMOA.s:208    .text.awss_close_aplist_monitor:000000000000002a .L0 
C:\Users\stapi\AppData\Local\Temp\cc2gfMOA.s:322    .text.awss_init_ieee80211_aplist:000000000000006a .L0 
C:\Users\stapi\AppData\Local\Temp\cc2gfMOA.s:369    .text.awss_deinit_ieee80211_aplist:0000000000000032 .L0 
C:\Users\stapi\AppData\Local\Temp\cc2gfMOA.s:462    .text.zconfig_get_apinfo:0000000000000066 .L0 
C:\Users\stapi\AppData\Local\Temp\cc2gfMOA.s:555    .text.zconfig_get_apinfo_by_3_byte_mac:0000000000000066 .L0 
C:\Users\stapi\AppData\Local\Temp\cc2gfMOA.s:647    .text.zconfig_get_apinfo_by_ssid:0000000000000064 .L0 
C:\Users\stapi\AppData\Local\Temp\cc2gfMOA.s:742    .text.zconfig_get_apinfo_by_ssid_prefix:0000000000000070 .L0 
C:\Users\stapi\AppData\Local\Temp\cc2gfMOA.s:828    .text.str_end_with:0000000000000052 .L0 
C:\Users\stapi\AppData\Local\Temp\cc2gfMOA.s:919    .text.zconfig_get_apinfo_by_ssid_suffix:000000000000006c .L0 
C:\Users\stapi\AppData\Local\Temp\cc2gfMOA.s:1272   .text.awss_save_apinfo:000000000000020a .L0 
C:\Users\stapi\AppData\Local\Temp\cc2gfMOA.s:1397   .text.awss_get_auth_info:000000000000008e .L0 
C:\Users\stapi\AppData\Local\Temp\cc2gfMOA.s:1462   .text.aws_try_adjust_chan:0000000000000054 .L0 
C:\Users\stapi\AppData\Local\Temp\cc2gfMOA.s:1606   .text.awss_ieee80211_aplist_process:00000000000000be .L0 
                     .debug_frame:0000000000000000 .L0 
C:\Users\stapi\AppData\Local\Temp\cc2gfMOA.s:50     .rodata.awss_clear_aplist.str1.4:0000000000000000 .LC0
C:\Users\stapi\AppData\Local\Temp\cc2gfMOA.s:85     .text.awss_clear_aplist:0000000000000032 .L5
C:\Users\stapi\AppData\Local\Temp\cc2gfMOA.s:79     .text.awss_clear_aplist:000000000000002a .L4
C:\Users\stapi\AppData\Local\Temp\cc2gfMOA.s:110    .rodata.awss_open_aplist_monitor.str1.4:0000000000000000 .LC1
C:\Users\stapi\AppData\Local\Temp\cc2gfMOA.s:142    .text.awss_open_aplist_monitor:0000000000000032 .L9
C:\Users\stapi\AppData\Local\Temp\cc2gfMOA.s:162    .text.awss_open_aplist_monitor:0000000000000054 .L8
C:\Users\stapi\AppData\Local\Temp\cc2gfMOA.s:198    .text.awss_close_aplist_monitor:0000000000000020 .L14
C:\Users\stapi\AppData\Local\Temp\cc2gfMOA.s:210    .rodata.awss_init_ieee80211_aplist.str1.4:0000000000000000 .LC2
C:\Users\stapi\AppData\Local\Temp\cc2gfMOA.s:311    .text.awss_init_ieee80211_aplist:0000000000000068 .L28
C:\Users\stapi\AppData\Local\Temp\cc2gfMOA.s:272    .text.awss_init_ieee80211_aplist:0000000000000038 .L21
C:\Users\stapi\AppData\Local\Temp\cc2gfMOA.s:300    .text.awss_init_ieee80211_aplist:000000000000005c .L22
C:\Users\stapi\AppData\Local\Temp\cc2gfMOA.s:291    .text.awss_init_ieee80211_aplist:0000000000000054 .L19
C:\Users\stapi\AppData\Local\Temp\cc2gfMOA.s:359    .text.awss_deinit_ieee80211_aplist:0000000000000028 .L32
C:\Users\stapi\AppData\Local\Temp\cc2gfMOA.s:371    .rodata.zconfig_get_apinfo.str1.4:0000000000000000 .LC3
C:\Users\stapi\AppData\Local\Temp\cc2gfMOA.s:413    .text.zconfig_get_apinfo:000000000000002a .L38
C:\Users\stapi\AppData\Local\Temp\cc2gfMOA.s:440    .text.zconfig_get_apinfo:000000000000004a .L41
C:\Users\stapi\AppData\Local\Temp\cc2gfMOA.s:425    .text.zconfig_get_apinfo:0000000000000040 .L37
C:\Users\stapi\AppData\Local\Temp\cc2gfMOA.s:405    .text.zconfig_get_apinfo:0000000000000022 .L39
C:\Users\stapi\AppData\Local\Temp\cc2gfMOA.s:464    .rodata.zconfig_get_apinfo_by_3_byte_mac.str1.4:0000000000000000 .LC4
C:\Users\stapi\AppData\Local\Temp\cc2gfMOA.s:507    .text.zconfig_get_apinfo_by_3_byte_mac:000000000000002a .L47
C:\Users\stapi\AppData\Local\Temp\cc2gfMOA.s:530    .text.zconfig_get_apinfo_by_3_byte_mac:000000000000004a .L50
C:\Users\stapi\AppData\Local\Temp\cc2gfMOA.s:517    .text.zconfig_get_apinfo_by_3_byte_mac:0000000000000040 .L46
C:\Users\stapi\AppData\Local\Temp\cc2gfMOA.s:499    .text.zconfig_get_apinfo_by_3_byte_mac:0000000000000022 .L48
C:\Users\stapi\AppData\Local\Temp\cc2gfMOA.s:557    .rodata.zconfig_get_apinfo_by_ssid.str1.4:0000000000000000 .LC5
C:\Users\stapi\AppData\Local\Temp\cc2gfMOA.s:599    .text.zconfig_get_apinfo_by_ssid:000000000000002a .L56
C:\Users\stapi\AppData\Local\Temp\cc2gfMOA.s:626    .text.zconfig_get_apinfo_by_ssid:000000000000004a .L59
C:\Users\stapi\AppData\Local\Temp\cc2gfMOA.s:611    .text.zconfig_get_apinfo_by_ssid:0000000000000040 .L55
C:\Users\stapi\AppData\Local\Temp\cc2gfMOA.s:591    .text.zconfig_get_apinfo_by_ssid:0000000000000022 .L57
C:\Users\stapi\AppData\Local\Temp\cc2gfMOA.s:649    .rodata.zconfig_get_apinfo_by_ssid_prefix.str1.4:0000000000000000 .LC6
C:\Users\stapi\AppData\Local\Temp\cc2gfMOA.s:714    .text.zconfig_get_apinfo_by_ssid_prefix:000000000000004e .L65
C:\Users\stapi\AppData\Local\Temp\cc2gfMOA.s:724    .text.zconfig_get_apinfo_by_ssid_prefix:0000000000000064 .L79
C:\Users\stapi\AppData\Local\Temp\cc2gfMOA.s:727    .text.zconfig_get_apinfo_by_ssid_prefix:0000000000000066 .L64
C:\Users\stapi\AppData\Local\Temp\cc2gfMOA.s:692    .text.zconfig_get_apinfo_by_ssid_prefix:000000000000002e .L66
C:\Users\stapi\AppData\Local\Temp\cc2gfMOA.s:818    .text.str_end_with:000000000000004c .L82
C:\Users\stapi\AppData\Local\Temp\cc2gfMOA.s:806    .text.str_end_with:0000000000000042 .L80
C:\Users\stapi\AppData\Local\Temp\cc2gfMOA.s:830    .rodata.zconfig_get_apinfo_by_ssid_suffix.str1.4:0000000000000000 .LC7
C:\Users\stapi\AppData\Local\Temp\cc2gfMOA.s:892    .text.zconfig_get_apinfo_by_ssid_suffix:000000000000004a .L90
C:\Users\stapi\AppData\Local\Temp\cc2gfMOA.s:902    .text.zconfig_get_apinfo_by_ssid_suffix:0000000000000060 .L101
C:\Users\stapi\AppData\Local\Temp\cc2gfMOA.s:905    .text.zconfig_get_apinfo_by_ssid_suffix:0000000000000062 .L89
C:\Users\stapi\AppData\Local\Temp\cc2gfMOA.s:871    .text.zconfig_get_apinfo_by_ssid_suffix:000000000000002c .L91
C:\Users\stapi\AppData\Local\Temp\cc2gfMOA.s:921    .rodata.awss_save_apinfo.str1.4:0000000000000000 .LC8
C:\Users\stapi\AppData\Local\Temp\cc2gfMOA.s:924    .rodata.awss_save_apinfo.str1.4:0000000000000014 .LC9
C:\Users\stapi\AppData\Local\Temp\cc2gfMOA.s:1026   .text.awss_save_apinfo:000000000000007a .L121
C:\Users\stapi\AppData\Local\Temp\cc2gfMOA.s:1219   .text.awss_save_apinfo:00000000000001de .L102
C:\Users\stapi\AppData\Local\Temp\cc2gfMOA.s:1031   .text.awss_save_apinfo:000000000000007e .L123
C:\Users\stapi\AppData\Local\Temp\cc2gfMOA.s:990    .text.awss_save_apinfo:0000000000000042 .L105
C:\Users\stapi\AppData\Local\Temp\cc2gfMOA.s:1260   .text.awss_save_apinfo:00000000000001fc .L106
C:\Users\stapi\AppData\Local\Temp\cc2gfMOA.s:1002   .text.awss_save_apinfo:0000000000000050 .L107
C:\Users\stapi\AppData\Local\Temp\cc2gfMOA.s:1011   .text.awss_save_apinfo:0000000000000058 .L108
C:\Users\stapi\AppData\Local\Temp\cc2gfMOA.s:1036   .text.awss_save_apinfo:0000000000000082 .L109
C:\Users\stapi\AppData\Local\Temp\cc2gfMOA.s:983    .text.awss_save_apinfo:0000000000000038 .L104
C:\Users\stapi\AppData\Local\Temp\cc2gfMOA.s:1048   .text.awss_save_apinfo:0000000000000096 .L110
C:\Users\stapi\AppData\Local\Temp\cc2gfMOA.s:1158   .text.awss_save_apinfo:000000000000016c .L117
C:\Users\stapi\AppData\Local\Temp\cc2gfMOA.s:1254   .text.awss_save_apinfo:00000000000001f8 .L124
C:\Users\stapi\AppData\Local\Temp\cc2gfMOA.s:1116   .text.awss_save_apinfo:0000000000000110 .L119
C:\Users\stapi\AppData\Local\Temp\cc2gfMOA.s:1215   .text.awss_save_apinfo:00000000000001dc .L120
C:\Users\stapi\AppData\Local\Temp\cc2gfMOA.s:1247   .text.awss_save_apinfo:00000000000001f0 .L112
C:\Users\stapi\AppData\Local\Temp\cc2gfMOA.s:1191   .text.awss_save_apinfo:00000000000001b0 .L113
C:\Users\stapi\AppData\Local\Temp\cc2gfMOA.s:1200   .text.awss_save_apinfo:00000000000001c0 .L114
C:\Users\stapi\AppData\Local\Temp\cc2gfMOA.s:1209   .text.awss_save_apinfo:00000000000001d0 .L115
C:\Users\stapi\AppData\Local\Temp\cc2gfMOA.s:1241   .text.awss_save_apinfo:00000000000001ea .L116
C:\Users\stapi\AppData\Local\Temp\cc2gfMOA.s:1057   .text.awss_save_apinfo:00000000000000a0 .L111
C:\Users\stapi\AppData\Local\Temp\cc2gfMOA.s:1070   .text.awss_save_apinfo:00000000000000b2 .L118
C:\Users\stapi\AppData\Local\Temp\cc2gfMOA.s:1383   .text.awss_get_auth_info:000000000000007e .L131
C:\Users\stapi\AppData\Local\Temp\cc2gfMOA.s:1371   .text.awss_get_auth_info:0000000000000076 .L130
C:\Users\stapi\AppData\Local\Temp\cc2gfMOA.s:1339   .text.awss_get_auth_info:0000000000000048 .L134
C:\Users\stapi\AppData\Local\Temp\cc2gfMOA.s:1348   .text.awss_get_auth_info:0000000000000054 .L135
C:\Users\stapi\AppData\Local\Temp\cc2gfMOA.s:1360   .text.awss_get_auth_info:0000000000000068 .L136
C:\Users\stapi\AppData\Local\Temp\cc2gfMOA.s:1325   .text.awss_get_auth_info:0000000000000038 .L132
C:\Users\stapi\AppData\Local\Temp\cc2gfMOA.s:1453   .text.aws_try_adjust_chan:000000000000004c .L155
C:\Users\stapi\AppData\Local\Temp\cc2gfMOA.s:1531   .text.awss_ieee80211_aplist_process:0000000000000048 .L164
C:\Users\stapi\AppData\Local\Temp\cc2gfMOA.s:1545   .text.awss_ieee80211_aplist_process:0000000000000054 .L165
C:\Users\stapi\AppData\Local\Temp\cc2gfMOA.s:1555   .text.awss_ieee80211_aplist_process:0000000000000062 .L172
C:\Users\stapi\AppData\Local\Temp\cc2gfMOA.s:1520   .text.awss_ieee80211_aplist_process:0000000000000038 .L168
C:\Users\stapi\AppData\Local\Temp\cc2gfMOA.s:4456   .debug_abbrev:0000000000000000 .Ldebug_abbrev0
C:\Users\stapi\AppData\Local\Temp\cc2gfMOA.s:6895   .debug_str:0000000000000c24 .LASF200
C:\Users\stapi\AppData\Local\Temp\cc2gfMOA.s:6681   .debug_str:0000000000000556 .LASF201
C:\Users\stapi\AppData\Local\Temp\cc2gfMOA.s:6679   .debug_str:00000000000004c5 .LASF202
C:\Users\stapi\AppData\Local\Temp\cc2gfMOA.s:6449   .debug_ranges:0000000000000000 .Ldebug_ranges0
C:\Users\stapi\AppData\Local\Temp\cc2gfMOA.s:6505   .debug_line:0000000000000000 .Ldebug_line0
C:\Users\stapi\AppData\Local\Temp\cc2gfMOA.s:6569   .debug_str:00000000000001a5 .LASF0
C:\Users\stapi\AppData\Local\Temp\cc2gfMOA.s:6523   .debug_str:0000000000000071 .LASF3
C:\Users\stapi\AppData\Local\Temp\cc2gfMOA.s:6773   .debug_str:0000000000000889 .LASF1
C:\Users\stapi\AppData\Local\Temp\cc2gfMOA.s:6783   .debug_str:00000000000008d2 .LASF2
C:\Users\stapi\AppData\Local\Temp\cc2gfMOA.s:6825   .debug_str:00000000000009ee .LASF4
C:\Users\stapi\AppData\Local\Temp\cc2gfMOA.s:6673   .debug_str:0000000000000496 .LASF5
C:\Users\stapi\AppData\Local\Temp\cc2gfMOA.s:6585   .debug_str:0000000000000222 .LASF6
C:\Users\stapi\AppData\Local\Temp\cc2gfMOA.s:6619   .debug_str:000000000000031f .LASF7
C:\Users\stapi\AppData\Local\Temp\cc2gfMOA.s:6653   .debug_str:00000000000003ff .LASF8
C:\Users\stapi\AppData\Local\Temp\cc2gfMOA.s:6567   .debug_str:0000000000000197 .LASF9
C:\Users\stapi\AppData\Local\Temp\cc2gfMOA.s:6577   .debug_str:00000000000001db .LASF10
C:\Users\stapi\AppData\Local\Temp\cc2gfMOA.s:6639   .debug_str:000000000000039d .LASF11
C:\Users\stapi\AppData\Local\Temp\cc2gfMOA.s:6821   .debug_str:00000000000009e0 .LASF12
C:\Users\stapi\AppData\Local\Temp\cc2gfMOA.s:6877   .debug_str:0000000000000ba1 .LASF13
C:\Users\stapi\AppData\Local\Temp\cc2gfMOA.s:6599   .debug_str:00000000000002a1 .LASF14
C:\Users\stapi\AppData\Local\Temp\cc2gfMOA.s:6817   .debug_str:00000000000009c5 .LASF15
C:\Users\stapi\AppData\Local\Temp\cc2gfMOA.s:6757   .debug_str:000000000000081c .LASF16
C:\Users\stapi\AppData\Local\Temp\cc2gfMOA.s:6629   .debug_str:000000000000035a .LASF17
C:\Users\stapi\AppData\Local\Temp\cc2gfMOA.s:6573   .debug_str:00000000000001c4 .LASF18
C:\Users\stapi\AppData\Local\Temp\cc2gfMOA.s:6723   .debug_str:0000000000000743 .LASF19
C:\Users\stapi\AppData\Local\Temp\cc2gfMOA.s:6911   .debug_str:0000000000000d6f .LASF20
C:\Users\stapi\AppData\Local\Temp\cc2gfMOA.s:6819   .debug_str:00000000000009ce .LASF21
C:\Users\stapi\AppData\Local\Temp\cc2gfMOA.s:6805   .debug_str:000000000000095b .LASF22
C:\Users\stapi\AppData\Local\Temp\cc2gfMOA.s:6797   .debug_str:000000000000092b .LASF23
C:\Users\stapi\AppData\Local\Temp\cc2gfMOA.s:6917   .debug_str:0000000000000da9 .LASF24
C:\Users\stapi\AppData\Local\Temp\cc2gfMOA.s:6731   .debug_str:0000000000000789 .LASF25
C:\Users\stapi\AppData\Local\Temp\cc2gfMOA.s:6551   .debug_str:0000000000000126 .LASF26
C:\Users\stapi\AppData\Local\Temp\cc2gfMOA.s:6809   .debug_str:000000000000098a .LASF27
C:\Users\stapi\AppData\Local\Temp\cc2gfMOA.s:6871   .debug_str:0000000000000b5f .LASF28
C:\Users\stapi\AppData\Local\Temp\cc2gfMOA.s:6849   .debug_str:0000000000000aa1 .LASF29
C:\Users\stapi\AppData\Local\Temp\cc2gfMOA.s:6859   .debug_str:0000000000000b06 .LASF30
C:\Users\stapi\AppData\Local\Temp\cc2gfMOA.s:6699   .debug_str:0000000000000667 .LASF31
C:\Users\stapi\AppData\Local\Temp\cc2gfMOA.s:6703   .debug_str:0000000000000684 .LASF32
C:\Users\stapi\AppData\Local\Temp\cc2gfMOA.s:6555   .debug_str:0000000000000141 .LASF33
C:\Users\stapi\AppData\Local\Temp\cc2gfMOA.s:6547   .debug_str:0000000000000118 .LASF34
C:\Users\stapi\AppData\Local\Temp\cc2gfMOA.s:6697   .debug_str:000000000000065e .LASF35
C:\Users\stapi\AppData\Local\Temp\cc2gfMOA.s:6693   .debug_str:0000000000000637 .LASF36
C:\Users\stapi\AppData\Local\Temp\cc2gfMOA.s:6891   .debug_str:0000000000000c06 .LASF37
C:\Users\stapi\AppData\Local\Temp\cc2gfMOA.s:6775   .debug_str:0000000000000897 .LASF38
C:\Users\stapi\AppData\Local\Temp\cc2gfMOA.s:6583   .debug_str:000000000000020d .LASF39
C:\Users\stapi\AppData\Local\Temp\cc2gfMOA.s:6659   .debug_str:000000000000042b .LASF40
C:\Users\stapi\AppData\Local\Temp\cc2gfMOA.s:6709   .debug_str:00000000000006b3 .LASF41
C:\Users\stapi\AppData\Local\Temp\cc2gfMOA.s:6719   .debug_str:0000000000000721 .LASF42
C:\Users\stapi\AppData\Local\Temp\cc2gfMOA.s:6787   .debug_str:00000000000008ee .LASF43
C:\Users\stapi\AppData\Local\Temp\cc2gfMOA.s:6897   .debug_str:0000000000000d0b .LASF44
C:\Users\stapi\AppData\Local\Temp\cc2gfMOA.s:6661   .debug_str:0000000000000440 .LASF45
C:\Users\stapi\AppData\Local\Temp\cc2gfMOA.s:6565   .debug_str:0000000000000189 .LASF46
C:\Users\stapi\AppData\Local\Temp\cc2gfMOA.s:6663   .debug_str:0000000000000454 .LASF47
C:\Users\stapi\AppData\Local\Temp\cc2gfMOA.s:6763   .debug_str:0000000000000846 .LASF48
C:\Users\stapi\AppData\Local\Temp\cc2gfMOA.s:6691   .debug_str:0000000000000623 .LASF49
C:\Users\stapi\AppData\Local\Temp\cc2gfMOA.s:6919   .debug_str:0000000000000dba .LASF86
C:\Users\stapi\AppData\Local\Temp\cc2gfMOA.s:6721   .debug_str:0000000000000735 .LASF50
C:\Users\stapi\AppData\Local\Temp\cc2gfMOA.s:6521   .debug_str:0000000000000061 .LASF51
C:\Users\stapi\AppData\Local\Temp\cc2gfMOA.s:6841   .debug_str:0000000000000a5c .LASF52
C:\Users\stapi\AppData\Local\Temp\cc2gfMOA.s:6833   .debug_str:0000000000000a21 .LASF53
C:\Users\stapi\AppData\Local\Temp\cc2gfMOA.s:6553   .debug_str:0000000000000137 .LASF54
C:\Users\stapi\AppData\Local\Temp\cc2gfMOA.s:6705   .debug_str:0000000000000698 .LASF55
C:\Users\stapi\AppData\Local\Temp\cc2gfMOA.s:6615   .debug_str:0000000000000301 .LASF56
C:\Users\stapi\AppData\Local\Temp\cc2gfMOA.s:6741   .debug_str:00000000000007c9 .LASF57
C:\Users\stapi\AppData\Local\Temp\cc2gfMOA.s:6669   .debug_str:0000000000000484 .LASF58
C:\Users\stapi\AppData\Local\Temp\cc2gfMOA.s:6729   .debug_str:000000000000077b .LASF59
C:\Users\stapi\AppData\Local\Temp\cc2gfMOA.s:6541   .debug_str:00000000000000ed .LASF62
C:\Users\stapi\AppData\Local\Temp\cc2gfMOA.s:6623   .debug_str:0000000000000331 .LASF60
C:\Users\stapi\AppData\Local\Temp\cc2gfMOA.s:6799   .debug_str:000000000000093f .LASF61
C:\Users\stapi\AppData\Local\Temp\cc2gfMOA.s:6751   .debug_str:00000000000007ff .LASF63
C:\Users\stapi\AppData\Local\Temp\cc2gfMOA.s:6815   .debug_str:00000000000009bc .LASF64
C:\Users\stapi\AppData\Local\Temp\cc2gfMOA.s:6861   .debug_str:0000000000000b16 .LASF65
C:\Users\stapi\AppData\Local\Temp\cc2gfMOA.s:6539   .debug_str:00000000000000e1 .LASF66
C:\Users\stapi\AppData\Local\Temp\cc2gfMOA.s:6667   .debug_str:000000000000047f .LASF67
C:\Users\stapi\AppData\Local\Temp\cc2gfMOA.s:6869   .debug_str:0000000000000b56 .LASF68
C:\Users\stapi\AppData\Local\Temp\cc2gfMOA.s:6701   .debug_str:0000000000000677 .LASF69
C:\Users\stapi\AppData\Local\Temp\cc2gfMOA.s:6635   .debug_str:0000000000000390 .LASF70
C:\Users\stapi\AppData\Local\Temp\cc2gfMOA.s:6795   .debug_str:0000000000000924 .LASF71
C:\Users\stapi\AppData\Local\Temp\cc2gfMOA.s:6843   .debug_str:0000000000000a69 .LASF203
C:\Users\stapi\AppData\Local\Temp\cc2gfMOA.s:6621   .debug_str:000000000000032a .LASF72
C:\Users\stapi\AppData\Local\Temp\cc2gfMOA.s:6737   .debug_str:00000000000007b7 .LASF73
C:\Users\stapi\AppData\Local\Temp\cc2gfMOA.s:6613   .debug_str:00000000000002f6 .LASF74
C:\Users\stapi\AppData\Local\Temp\cc2gfMOA.s:6745   .debug_str:00000000000007df .LASF75
C:\Users\stapi\AppData\Local\Temp\cc2gfMOA.s:6753   .debug_str:0000000000000807 .LASF76
C:\Users\stapi\AppData\Local\Temp\cc2gfMOA.s:6879   .debug_str:0000000000000ba9 .LASF77
C:\Users\stapi\AppData\Local\Temp\cc2gfMOA.s:6885   .debug_str:0000000000000bc9 .LASF78
C:\Users\stapi\AppData\Local\Temp\cc2gfMOA.s:6529   .debug_str:000000000000009f .LASF79
C:\Users\stapi\AppData\Local\Temp\cc2gfMOA.s:6617   .debug_str:0000000000000313 .LASF80
C:\Users\stapi\AppData\Local\Temp\cc2gfMOA.s:6685   .debug_str:0000000000000607 .LASF81
C:\Users\stapi\AppData\Local\Temp\cc2gfMOA.s:6687   .debug_str:000000000000060d .LASF82
C:\Users\stapi\AppData\Local\Temp\cc2gfMOA.s:6777   .debug_str:00000000000008a7 .LASF83
C:\Users\stapi\AppData\Local\Temp\cc2gfMOA.s:6811   .debug_str:00000000000009a2 .LASF84
C:\Users\stapi\AppData\Local\Temp\cc2gfMOA.s:6743   .debug_str:00000000000007d9 .LASF85
C:\Users\stapi\AppData\Local\Temp\cc2gfMOA.s:6557   .debug_str:000000000000015a .LASF87
C:\Users\stapi\AppData\Local\Temp\cc2gfMOA.s:6601   .debug_str:00000000000002aa .LASF88
C:\Users\stapi\AppData\Local\Temp\cc2gfMOA.s:6913   .debug_str:0000000000000d7c .LASF89
C:\Users\stapi\AppData\Local\Temp\cc2gfMOA.s:6901   .debug_str:0000000000000d2a .LASF90
C:\Users\stapi\AppData\Local\Temp\cc2gfMOA.s:6727   .debug_str:0000000000000765 .LASF91
C:\Users\stapi\AppData\Local\Temp\cc2gfMOA.s:6761   .debug_str:0000000000000831 .LASF92
C:\Users\stapi\AppData\Local\Temp\cc2gfMOA.s:6593   .debug_str:0000000000000264 .LASF93
C:\Users\stapi\AppData\Local\Temp\cc2gfMOA.s:6835   .debug_str:0000000000000a2e .LASF94
C:\Users\stapi\AppData\Local\Temp\cc2gfMOA.s:6545   .debug_str:0000000000000107 .LASF95
C:\Users\stapi\AppData\Local\Temp\cc2gfMOA.s:6873   .debug_str:0000000000000b73 .LASF96
C:\Users\stapi\AppData\Local\Temp\cc2gfMOA.s:6789   .debug_str:0000000000000902 .LASF97
C:\Users\stapi\AppData\Local\Temp\cc2gfMOA.s:6627   .debug_str:0000000000000349 .LASF98
C:\Users\stapi\AppData\Local\Temp\cc2gfMOA.s:6519   .debug_str:0000000000000051 .LASF99
C:\Users\stapi\AppData\Local\Temp\cc2gfMOA.s:6813   .debug_str:00000000000009ab .LASF100
C:\Users\stapi\AppData\Local\Temp\cc2gfMOA.s:6515   .debug_str:0000000000000028 .LASF101
C:\Users\stapi\AppData\Local\Temp\cc2gfMOA.s:6733   .debug_str:000000000000079a .LASF102
C:\Users\stapi\AppData\Local\Temp\cc2gfMOA.s:6647   .debug_str:00000000000003c0 .LASF103
C:\Users\stapi\AppData\Local\Temp\cc2gfMOA.s:6631   .debug_str:000000000000036b .LASF104
C:\Users\stapi\AppData\Local\Temp\cc2gfMOA.s:6563   .debug_str:0000000000000181 .LASF105
C:\Users\stapi\AppData\Local\Temp\cc2gfMOA.s:6611   .debug_str:00000000000002f0 .LASF106
C:\Users\stapi\AppData\Local\Temp\cc2gfMOA.s:6657   .debug_str:000000000000041d .LASF107
C:\Users\stapi\AppData\Local\Temp\cc2gfMOA.s:6607   .debug_str:00000000000002d2 .LASF108
C:\Users\stapi\AppData\Local\Temp\cc2gfMOA.s:6603   .debug_str:00000000000002bc .LASF109
C:\Users\stapi\AppData\Local\Temp\cc2gfMOA.s:6839   .debug_str:0000000000000a54 .LASF110
C:\Users\stapi\AppData\Local\Temp\cc2gfMOA.s:6707   .debug_str:00000000000006ab .LASF111
C:\Users\stapi\AppData\Local\Temp\cc2gfMOA.s:6881   .debug_str:0000000000000bb1 .LASF112
C:\Users\stapi\AppData\Local\Temp\cc2gfMOA.s:6831   .debug_str:0000000000000a19 .LASF113
C:\Users\stapi\AppData\Local\Temp\cc2gfMOA.s:6711   .debug_str:00000000000006c8 .LASF114
C:\Users\stapi\AppData\Local\Temp\cc2gfMOA.s:6543   .debug_str:00000000000000fc .LASF115
C:\Users\stapi\AppData\Local\Temp\cc2gfMOA.s:6847   .debug_str:0000000000000a98 .LASF116
C:\Users\stapi\AppData\Local\Temp\cc2gfMOA.s:6511   .debug_str:0000000000000011 .LASF117
C:\Users\stapi\AppData\Local\Temp\cc2gfMOA.s:6677   .debug_str:00000000000004bc .LASF118
C:\Users\stapi\AppData\Local\Temp\cc2gfMOA.s:6559   .debug_str:0000000000000169 .LASF119
C:\Users\stapi\AppData\Local\Temp\cc2gfMOA.s:6625   .debug_str:000000000000033c .LASF120
C:\Users\stapi\AppData\Local\Temp\cc2gfMOA.s:6579   .debug_str:00000000000001f2 .LASF121
C:\Users\stapi\AppData\Local\Temp\cc2gfMOA.s:6905   .debug_str:0000000000000d4a .LASF122
C:\Users\stapi\AppData\Local\Temp\cc2gfMOA.s:6645   .debug_str:00000000000003bb .LASF123
C:\Users\stapi\AppData\Local\Temp\cc2gfMOA.s:6767   .debug_str:0000000000000876 .LASF124
C:\Users\stapi\AppData\Local\Temp\cc2gfMOA.s:6851   .debug_str:0000000000000ab4 .LASF125
C:\Users\stapi\AppData\Local\Temp\cc2gfMOA.s:6801   .debug_str:0000000000000948 .LASF126
C:\Users\stapi\AppData\Local\Temp\cc2gfMOA.s:6903   .debug_str:0000000000000d3e .LASF127
C:\Users\stapi\AppData\Local\Temp\cc2gfMOA.s:6807   .debug_str:000000000000096f .LASF128
C:\Users\stapi\AppData\Local\Temp\cc2gfMOA.s:6589   .debug_str:000000000000024c .LASF129
C:\Users\stapi\AppData\Local\Temp\cc2gfMOA.s:6597   .debug_str:0000000000000294 .LASF130
C:\Users\stapi\AppData\Local\Temp\cc2gfMOA.s:6561   .debug_str:0000000000000173 .LASF131
C:\Users\stapi\AppData\Local\Temp\cc2gfMOA.s:6803   .debug_str:000000000000094f .LASF132
C:\Users\stapi\AppData\Local\Temp\cc2gfMOA.s:6771   .debug_str:0000000000000883 .LASF133
C:\Users\stapi\AppData\Local\Temp\cc2gfMOA.s:6857   .debug_str:0000000000000aed .LASF134
C:\Users\stapi\AppData\Local\Temp\cc2gfMOA.s:6735   .debug_str:00000000000007ae .LASF135
C:\Users\stapi\AppData\Local\Temp\cc2gfMOA.s:6793   .debug_str:000000000000091c .LASF136
C:\Users\stapi\AppData\Local\Temp\cc2gfMOA.s:6549   .debug_str:0000000000000121 .LASF137
C:\Users\stapi\AppData\Local\Temp\cc2gfMOA.s:6575   .debug_str:00000000000001d5 .LASF138
C:\Users\stapi\AppData\Local\Temp\cc2gfMOA.s:6525   .debug_str:000000000000007b .LASF139
C:\Users\stapi\AppData\Local\Temp\cc2gfMOA.s:6909   .debug_str:0000000000000d5c .LASF140
C:\Users\stapi\AppData\Local\Temp\cc2gfMOA.s:6837   .debug_str:0000000000000a49 .LASF141
C:\Users\stapi\AppData\Local\Temp\cc2gfMOA.s:6633   .debug_str:000000000000037f .LASF142
C:\Users\stapi\AppData\Local\Temp\cc2gfMOA.s:6887   .debug_str:0000000000000bd7 .LASF147
C:\Users\stapi\AppData\Local\Temp\cc2gfMOA.s:1467   .text.awss_ieee80211_aplist_process:0000000000000000 .LFB65
C:\Users\stapi\AppData\Local\Temp\cc2gfMOA.s:1602   .text.awss_ieee80211_aplist_process:00000000000000be .LFE65
C:\Users\stapi\AppData\Local\Temp\cc2gfMOA.s:6827   .debug_str:00000000000009f9 .LASF143
C:\Users\stapi\AppData\Local\Temp\cc2gfMOA.s:5560   .debug_loc:0000000000000000 .LLST42
C:\Users\stapi\AppData\Local\Temp\cc2gfMOA.s:5571   .debug_loc:000000000000001e .LLST43
C:\Users\stapi\AppData\Local\Temp\cc2gfMOA.s:6899   .debug_str:0000000000000d20 .LASF144
C:\Users\stapi\AppData\Local\Temp\cc2gfMOA.s:5600   .debug_loc:0000000000000063 .LLST44
C:\Users\stapi\AppData\Local\Temp\cc2gfMOA.s:5614   .debug_loc:0000000000000084 .LLST45
C:\Users\stapi\AppData\Local\Temp\cc2gfMOA.s:5628   .debug_loc:00000000000000a5 .LLST46
C:\Users\stapi\AppData\Local\Temp\cc2gfMOA.s:6755   .debug_str:000000000000080c .LASF145
C:\Users\stapi\AppData\Local\Temp\cc2gfMOA.s:6883   .debug_str:0000000000000bbc .LASF146
C:\Users\stapi\AppData\Local\Temp\cc2gfMOA.s:5653   .debug_loc:00000000000000df .LLST47
C:\Users\stapi\AppData\Local\Temp\cc2gfMOA.s:5664   .debug_loc:00000000000000fd .LLST48
C:\Users\stapi\AppData\Local\Temp\cc2gfMOA.s:5685   .debug_loc:0000000000000127 .LLST49
C:\Users\stapi\AppData\Local\Temp\cc2gfMOA.s:1497   .text.awss_ieee80211_aplist_process:0000000000000020 .LVL122
C:\Users\stapi\AppData\Local\Temp\cc2gfMOA.s:1517   .text.awss_ieee80211_aplist_process:0000000000000036 .LVL125
C:\Users\stapi\AppData\Local\Temp\cc2gfMOA.s:1526   .text.awss_ieee80211_aplist_process:0000000000000044 .LVL126
C:\Users\stapi\AppData\Local\Temp\cc2gfMOA.s:1550   .text.awss_ieee80211_aplist_process:000000000000005e .LVL129
C:\Users\stapi\AppData\Local\Temp\cc2gfMOA.s:1564   .text.awss_ieee80211_aplist_process:0000000000000074 .LVL132
C:\Users\stapi\AppData\Local\Temp\cc2gfMOA.s:1574   .text.awss_ieee80211_aplist_process:0000000000000084 .LVL134
C:\Users\stapi\AppData\Local\Temp\cc2gfMOA.s:1587   .text.awss_ieee80211_aplist_process:000000000000009e .LVL136
C:\Users\stapi\AppData\Local\Temp\cc2gfMOA.s:1597   .text.awss_ieee80211_aplist_process:00000000000000bc .LVL137
C:\Users\stapi\AppData\Local\Temp\cc2gfMOA.s:6829   .debug_str:0000000000000a05 .LASF204
C:\Users\stapi\AppData\Local\Temp\cc2gfMOA.s:1402   .text.aws_try_adjust_chan:0000000000000000 .LFB64
C:\Users\stapi\AppData\Local\Temp\cc2gfMOA.s:1460   .text.aws_try_adjust_chan:0000000000000054 .LFE64
C:\Users\stapi\AppData\Local\Temp\cc2gfMOA.s:5700   .debug_loc:0000000000000150 .LLST41
C:\Users\stapi\AppData\Local\Temp\cc2gfMOA.s:1434   .text.aws_try_adjust_chan:0000000000000030 .LBB39
C:\Users\stapi\AppData\Local\Temp\cc2gfMOA.s:1441   .text.aws_try_adjust_chan:0000000000000034 .LBE39
C:\Users\stapi\AppData\Local\Temp\cc2gfMOA.s:1419   .text.aws_try_adjust_chan:000000000000001c .LVL113
C:\Users\stapi\AppData\Local\Temp\cc2gfMOA.s:1427   .text.aws_try_adjust_chan:0000000000000028 .LVL114
C:\Users\stapi\AppData\Local\Temp\cc2gfMOA.s:1449   .text.aws_try_adjust_chan:0000000000000044 .LVL116
C:\Users\stapi\AppData\Local\Temp\cc2gfMOA.s:1452   .text.aws_try_adjust_chan:000000000000004c .LVL117
C:\Users\stapi\AppData\Local\Temp\cc2gfMOA.s:6675   .debug_str:00000000000004a9 .LASF148
C:\Users\stapi\AppData\Local\Temp\cc2gfMOA.s:1277   .text.awss_get_auth_info:0000000000000000 .LFB63
C:\Users\stapi\AppData\Local\Temp\cc2gfMOA.s:1395   .text.awss_get_auth_info:000000000000008e .LFE63
C:\Users\stapi\AppData\Local\Temp\cc2gfMOA.s:5716   .debug_loc:000000000000017a .LLST34
C:\Users\stapi\AppData\Local\Temp\cc2gfMOA.s:5745   .debug_loc:00000000000001bf .LLST35
C:\Users\stapi\AppData\Local\Temp\cc2gfMOA.s:5756   .debug_loc:00000000000001dd .LLST36
C:\Users\stapi\AppData\Local\Temp\cc2gfMOA.s:5767   .debug_loc:00000000000001fb .LLST37
C:\Users\stapi\AppData\Local\Temp\cc2gfMOA.s:5778   .debug_loc:0000000000000219 .LLST38
C:\Users\stapi\AppData\Local\Temp\cc2gfMOA.s:6655   .debug_str:0000000000000411 .LASF149
C:\Users\stapi\AppData\Local\Temp\cc2gfMOA.s:5789   .debug_loc:0000000000000237 .LLST39
C:\Users\stapi\AppData\Local\Temp\cc2gfMOA.s:5801   .debug_loc:0000000000000256 .LLST40
C:\Users\stapi\AppData\Local\Temp\cc2gfMOA.s:1310   .text.awss_get_auth_info:0000000000000028 .LVL103
C:\Users\stapi\AppData\Local\Temp\cc2gfMOA.s:1320   .text.awss_get_auth_info:0000000000000034 .LVL105
C:\Users\stapi\AppData\Local\Temp\cc2gfMOA.s:1359   .text.awss_get_auth_info:0000000000000068 .LVL108
C:\Users\stapi\AppData\Local\Temp\cc2gfMOA.s:1389   .text.awss_get_auth_info:0000000000000088 .LVL110
C:\Users\stapi\AppData\Local\Temp\cc2gfMOA.s:6889   .debug_str:0000000000000bf5 .LASF150
C:\Users\stapi\AppData\Local\Temp\cc2gfMOA.s:931    .text.awss_save_apinfo:0000000000000000 .LFB62
C:\Users\stapi\AppData\Local\Temp\cc2gfMOA.s:1270   .text.awss_save_apinfo:000000000000020a .LFE62
C:\Users\stapi\AppData\Local\Temp\cc2gfMOA.s:5822   .debug_loc:000000000000028c .LLST25
C:\Users\stapi\AppData\Local\Temp\cc2gfMOA.s:5859   .debug_loc:00000000000002e7 .LLST26
C:\Users\stapi\AppData\Local\Temp\cc2gfMOA.s:5892   .debug_loc:0000000000000337 .LLST27
C:\Users\stapi\AppData\Local\Temp\cc2gfMOA.s:5922   .debug_loc:0000000000000384 .LLST28
C:\Users\stapi\AppData\Local\Temp\cc2gfMOA.s:5952   .debug_loc:00000000000003d1 .LLST29
C:\Users\stapi\AppData\Local\Temp\cc2gfMOA.s:5991   .debug_loc:000000000000042e .LLST30
C:\Users\stapi\AppData\Local\Temp\cc2gfMOA.s:6023   .debug_loc:0000000000000476 .LLST31
C:\Users\stapi\AppData\Local\Temp\cc2gfMOA.s:6048   .debug_loc:00000000000004b0 .LLST32
C:\Users\stapi\AppData\Local\Temp\cc2gfMOA.s:1103   .text.awss_save_apinfo:00000000000000f0 .LBB38
C:\Users\stapi\AppData\Local\Temp\cc2gfMOA.s:1132   .text.awss_save_apinfo:0000000000000136 .LBE38
C:\Users\stapi\AppData\Local\Temp\cc2gfMOA.s:6759   .debug_str:000000000000082c .LASF151
C:\Users\stapi\AppData\Local\Temp\cc2gfMOA.s:6064   .debug_loc:00000000000004da .LLST33
C:\Users\stapi\AppData\Local\Temp\cc2gfMOA.s:1131   .text.awss_save_apinfo:0000000000000136 .LVL87
C:\Users\stapi\AppData\Local\Temp\cc2gfMOA.s:982    .text.awss_save_apinfo:0000000000000038 .LVL73
C:\Users\stapi\AppData\Local\Temp\cc2gfMOA.s:1024   .text.awss_save_apinfo:000000000000007a .LVL78
C:\Users\stapi\AppData\Local\Temp\cc2gfMOA.s:1080   .text.awss_save_apinfo:00000000000000cc .LVL84
C:\Users\stapi\AppData\Local\Temp\cc2gfMOA.s:1086   .text.awss_save_apinfo:00000000000000dc .LVL85
C:\Users\stapi\AppData\Local\Temp\cc2gfMOA.s:1143   .text.awss_save_apinfo:000000000000014e .LVL88
C:\Users\stapi\AppData\Local\Temp\cc2gfMOA.s:1155   .text.awss_save_apinfo:000000000000016a .LVL89
C:\Users\stapi\AppData\Local\Temp\cc2gfMOA.s:1165   .text.awss_save_apinfo:000000000000017e .LVL91
C:\Users\stapi\AppData\Local\Temp\cc2gfMOA.s:1176   .text.awss_save_apinfo:000000000000019a .LVL92
C:\Users\stapi\AppData\Local\Temp\cc2gfMOA.s:6845   .debug_str:0000000000000a76 .LASF152
C:\Users\stapi\AppData\Local\Temp\cc2gfMOA.s:837    .text.zconfig_get_apinfo_by_ssid_suffix:0000000000000000 .LFB61
C:\Users\stapi\AppData\Local\Temp\cc2gfMOA.s:917    .text.zconfig_get_apinfo_by_ssid_suffix:000000000000006c .LFE61
C:\Users\stapi\AppData\Local\Temp\cc2gfMOA.s:6791   .debug_str:0000000000000910 .LASF153
C:\Users\stapi\AppData\Local\Temp\cc2gfMOA.s:6072   .debug_loc:00000000000004ee .LLST22
C:\Users\stapi\AppData\Local\Temp\cc2gfMOA.s:6083   .debug_loc:000000000000050c .LLST23
C:\Users\stapi\AppData\Local\Temp\cc2gfMOA.s:6090   .debug_loc:000000000000051f .LLST24
C:\Users\stapi\AppData\Local\Temp\cc2gfMOA.s:855    .text.zconfig_get_apinfo_by_ssid_suffix:0000000000000012 .LVL62
C:\Users\stapi\AppData\Local\Temp\cc2gfMOA.s:880    .text.zconfig_get_apinfo_by_ssid_suffix:000000000000003e .LVL64
C:\Users\stapi\AppData\Local\Temp\cc2gfMOA.s:900    .text.zconfig_get_apinfo_by_ssid_suffix:0000000000000060 .LVL68
C:\Users\stapi\AppData\Local\Temp\cc2gfMOA.s:6893   .debug_str:0000000000000c17 .LASF159
C:\Users\stapi\AppData\Local\Temp\cc2gfMOA.s:6749   .debug_str:00000000000007f8 .LASF154
C:\Users\stapi\AppData\Local\Temp\cc2gfMOA.s:6769   .debug_str:000000000000087c .LASF155
C:\Users\stapi\AppData\Local\Temp\cc2gfMOA.s:6907   .debug_str:0000000000000d52 .LASF156
C:\Users\stapi\AppData\Local\Temp\cc2gfMOA.s:6713   .debug_str:00000000000006d6 .LASF157
C:\Users\stapi\AppData\Local\Temp\cc2gfMOA.s:656    .text.zconfig_get_apinfo_by_ssid_prefix:0000000000000000 .LFB59
C:\Users\stapi\AppData\Local\Temp\cc2gfMOA.s:740    .text.zconfig_get_apinfo_by_ssid_prefix:0000000000000070 .LFE59
C:\Users\stapi\AppData\Local\Temp\cc2gfMOA.s:6605   .debug_str:00000000000002c6 .LASF158
C:\Users\stapi\AppData\Local\Temp\cc2gfMOA.s:6101   .debug_loc:000000000000053d .LLST13
C:\Users\stapi\AppData\Local\Temp\cc2gfMOA.s:6112   .debug_loc:000000000000055b .LLST14
C:\Users\stapi\AppData\Local\Temp\cc2gfMOA.s:6119   .debug_loc:000000000000056e .LLST15
C:\Users\stapi\AppData\Local\Temp\cc2gfMOA.s:675    .text.zconfig_get_apinfo_by_ssid_prefix:0000000000000012 .LVL42
C:\Users\stapi\AppData\Local\Temp\cc2gfMOA.s:702    .text.zconfig_get_apinfo_by_ssid_prefix:0000000000000042 .LVL44
C:\Users\stapi\AppData\Local\Temp\cc2gfMOA.s:722    .text.zconfig_get_apinfo_by_ssid_prefix:0000000000000064 .LVL48
C:\Users\stapi\AppData\Local\Temp\cc2gfMOA.s:6865   .debug_str:0000000000000b34 .LASF160
C:\Users\stapi\AppData\Local\Temp\cc2gfMOA.s:6587   .debug_str:000000000000022b .LASF161
C:\Users\stapi\AppData\Local\Temp\cc2gfMOA.s:471    .text.zconfig_get_apinfo_by_3_byte_mac:0000000000000000 .LFB57
C:\Users\stapi\AppData\Local\Temp\cc2gfMOA.s:553    .text.zconfig_get_apinfo_by_3_byte_mac:0000000000000066 .LFE57
C:\Users\stapi\AppData\Local\Temp\cc2gfMOA.s:6533   .debug_str:00000000000000b5 .LASF162
C:\Users\stapi\AppData\Local\Temp\cc2gfMOA.s:6134   .debug_loc:0000000000000597 .LLST7
C:\Users\stapi\AppData\Local\Temp\cc2gfMOA.s:6160   .debug_loc:00000000000005d9 .LLST8
C:\Users\stapi\AppData\Local\Temp\cc2gfMOA.s:6507   .debug_str:0000000000000000 .LASF163
C:\Users\stapi\AppData\Local\Temp\cc2gfMOA.s:6171   .debug_loc:00000000000005f7 .LLST9
C:\Users\stapi\AppData\Local\Temp\cc2gfMOA.s:515    .text.zconfig_get_apinfo_by_3_byte_mac:0000000000000040 .LVL27
C:\Users\stapi\AppData\Local\Temp\cc2gfMOA.s:538    .text.zconfig_get_apinfo_by_3_byte_mac:000000000000005a .LVL29
C:\Users\stapi\AppData\Local\Temp\cc2gfMOA.s:6581   .debug_str:00000000000001fa .LASF164
C:\Users\stapi\AppData\Local\Temp\cc2gfMOA.s:6781   .debug_str:00000000000008b5 .LASF165
C:\Users\stapi\AppData\Local\Temp\cc2gfMOA.s:327    .text.awss_deinit_ieee80211_aplist:0000000000000000 .LFB55
C:\Users\stapi\AppData\Local\Temp\cc2gfMOA.s:367    .text.awss_deinit_ieee80211_aplist:0000000000000032 .LFE55
C:\Users\stapi\AppData\Local\Temp\cc2gfMOA.s:343    .text.awss_deinit_ieee80211_aplist:0000000000000014 .LBB22
C:\Users\stapi\AppData\Local\Temp\cc2gfMOA.s:349    .text.awss_deinit_ieee80211_aplist:000000000000001c .LBE22
C:\Users\stapi\AppData\Local\Temp\cc2gfMOA.s:6186   .debug_loc:0000000000000619 .LLST3
C:\Users\stapi\AppData\Local\Temp\cc2gfMOA.s:347    .text.awss_deinit_ieee80211_aplist:000000000000001c .LVL14
C:\Users\stapi\AppData\Local\Temp\cc2gfMOA.s:6651   .debug_str:00000000000003e4 .LASF166
C:\Users\stapi\AppData\Local\Temp\cc2gfMOA.s:217    .text.awss_init_ieee80211_aplist:0000000000000000 .LFB54
C:\Users\stapi\AppData\Local\Temp\cc2gfMOA.s:320    .text.awss_init_ieee80211_aplist:000000000000006a .LFE54
C:\Users\stapi\AppData\Local\Temp\cc2gfMOA.s:236    .text.awss_init_ieee80211_aplist:0000000000000014 .LBB14
C:\Users\stapi\AppData\Local\Temp\cc2gfMOA.s:6193   .debug_loc:000000000000062c .LLST0
C:\Users\stapi\AppData\Local\Temp\cc2gfMOA.s:6202   .debug_loc:0000000000000642 .LLST1
C:\Users\stapi\AppData\Local\Temp\cc2gfMOA.s:238    .text.awss_init_ieee80211_aplist:0000000000000014 .LBB16
C:\Users\stapi\AppData\Local\Temp\cc2gfMOA.s:6209   .debug_loc:0000000000000655 .LLST2
C:\Users\stapi\AppData\Local\Temp\cc2gfMOA.s:259    .text.awss_init_ieee80211_aplist:0000000000000026 .LVL8
C:\Users\stapi\AppData\Local\Temp\cc2gfMOA.s:271    .text.awss_init_ieee80211_aplist:0000000000000038 .LVL10
C:\Users\stapi\AppData\Local\Temp\cc2gfMOA.s:287    .text.awss_init_ieee80211_aplist:0000000000000052 .LVL11
C:\Users\stapi\AppData\Local\Temp\cc2gfMOA.s:6855   .debug_str:0000000000000ad3 .LASF167
C:\Users\stapi\AppData\Local\Temp\cc2gfMOA.s:177    .text.awss_close_aplist_monitor:0000000000000000 .LFB53
C:\Users\stapi\AppData\Local\Temp\cc2gfMOA.s:206    .text.awss_close_aplist_monitor:000000000000002a .LFE53
C:\Users\stapi\AppData\Local\Temp\cc2gfMOA.s:193    .text.awss_close_aplist_monitor:000000000000001c .LVL6
C:\Users\stapi\AppData\Local\Temp\cc2gfMOA.s:6517   .debug_str:0000000000000038 .LASF168
C:\Users\stapi\AppData\Local\Temp\cc2gfMOA.s:117    .text.awss_open_aplist_monitor:0000000000000000 .LFB52
C:\Users\stapi\AppData\Local\Temp\cc2gfMOA.s:170    .text.awss_open_aplist_monitor:000000000000005e .LFE52
C:\Users\stapi\AppData\Local\Temp\cc2gfMOA.s:139    .text.awss_open_aplist_monitor:0000000000000030 .LVL3
C:\Users\stapi\AppData\Local\Temp\cc2gfMOA.s:152    .text.awss_open_aplist_monitor:0000000000000040 .LVL4
C:\Users\stapi\AppData\Local\Temp\cc2gfMOA.s:158    .text.awss_open_aplist_monitor:0000000000000052 .LVL5
C:\Users\stapi\AppData\Local\Temp\cc2gfMOA.s:6785   .debug_str:00000000000008dc .LASF169
C:\Users\stapi\AppData\Local\Temp\cc2gfMOA.s:57     .text.awss_clear_aplist:0000000000000000 .LFB51
C:\Users\stapi\AppData\Local\Temp\cc2gfMOA.s:106    .text.awss_clear_aplist:0000000000000056 .LFE51
C:\Users\stapi\AppData\Local\Temp\cc2gfMOA.s:75     .text.awss_clear_aplist:0000000000000028 .LVL1
C:\Users\stapi\AppData\Local\Temp\cc2gfMOA.s:92     .text.awss_clear_aplist:0000000000000042 .LVL2
C:\Users\stapi\AppData\Local\Temp\cc2gfMOA.s:6915   .debug_str:0000000000000d90 .LASF205
C:\Users\stapi\AppData\Local\Temp\cc2gfMOA.s:37     .text.awss_is_ready_clr_aplist:0000000000000000 .LFB50
C:\Users\stapi\AppData\Local\Temp\cc2gfMOA.s:46     .text.awss_is_ready_clr_aplist:000000000000000a .LFE50
C:\Users\stapi\AppData\Local\Temp\cc2gfMOA.s:6683   .debug_str:00000000000005ef .LASF206
C:\Users\stapi\AppData\Local\Temp\cc2gfMOA.s:13     .text.awss_clr_aplist_monitor:0000000000000000 .LFB49
C:\Users\stapi\AppData\Local\Temp\cc2gfMOA.s:30     .text.awss_clr_aplist_monitor:0000000000000022 .LFE49
C:\Users\stapi\AppData\Local\Temp\cc2gfMOA.s:28     .text.awss_clr_aplist_monitor:0000000000000022 .LVL0
C:\Users\stapi\AppData\Local\Temp\cc2gfMOA.s:6875   .debug_str:0000000000000b88 .LASF170
C:\Users\stapi\AppData\Local\Temp\cc2gfMOA.s:6641   .debug_str:00000000000003aa .LASF171
C:\Users\stapi\AppData\Local\Temp\cc2gfMOA.s:6671   .debug_str:0000000000000491 .LASF172
C:\Users\stapi\AppData\Local\Temp\cc2gfMOA.s:6637   .debug_str:0000000000000395 .LASF207
C:\Users\stapi\AppData\Local\Temp\cc2gfMOA.s:6739   .debug_str:00000000000007bf .LASF173
C:\Users\stapi\AppData\Local\Temp\cc2gfMOA.s:378    .text.zconfig_get_apinfo:0000000000000000 .LFB56
C:\Users\stapi\AppData\Local\Temp\cc2gfMOA.s:460    .text.zconfig_get_apinfo:0000000000000066 .LFE56
C:\Users\stapi\AppData\Local\Temp\cc2gfMOA.s:6218   .debug_loc:000000000000066b .LLST4
C:\Users\stapi\AppData\Local\Temp\cc2gfMOA.s:6244   .debug_loc:00000000000006ad .LLST5
C:\Users\stapi\AppData\Local\Temp\cc2gfMOA.s:414    .text.zconfig_get_apinfo:000000000000002a .LBB26
C:\Users\stapi\AppData\Local\Temp\cc2gfMOA.s:427    .text.zconfig_get_apinfo:0000000000000040 .LBE26
C:\Users\stapi\AppData\Local\Temp\cc2gfMOA.s:6255   .debug_loc:00000000000006cb .LLST6
C:\Users\stapi\AppData\Local\Temp\cc2gfMOA.s:423    .text.zconfig_get_apinfo:0000000000000040 .LVL19
C:\Users\stapi\AppData\Local\Temp\cc2gfMOA.s:448    .text.zconfig_get_apinfo:000000000000005a .LVL21
C:\Users\stapi\AppData\Local\Temp\cc2gfMOA.s:564    .text.zconfig_get_apinfo_by_ssid:0000000000000000 .LFB58
C:\Users\stapi\AppData\Local\Temp\cc2gfMOA.s:645    .text.zconfig_get_apinfo_by_ssid:0000000000000064 .LFE58
C:\Users\stapi\AppData\Local\Temp\cc2gfMOA.s:6269   .debug_loc:00000000000006ec .LLST10
C:\Users\stapi\AppData\Local\Temp\cc2gfMOA.s:6295   .debug_loc:000000000000072e .LLST11
C:\Users\stapi\AppData\Local\Temp\cc2gfMOA.s:600    .text.zconfig_get_apinfo_by_ssid:000000000000002a .LBB30
C:\Users\stapi\AppData\Local\Temp\cc2gfMOA.s:613    .text.zconfig_get_apinfo_by_ssid:0000000000000040 .LBE30
C:\Users\stapi\AppData\Local\Temp\cc2gfMOA.s:6306   .debug_loc:000000000000074c .LLST12
C:\Users\stapi\AppData\Local\Temp\cc2gfMOA.s:609    .text.zconfig_get_apinfo_by_ssid:0000000000000040 .LVL37
C:\Users\stapi\AppData\Local\Temp\cc2gfMOA.s:633    .text.zconfig_get_apinfo_by_ssid:0000000000000058 .LVL39
C:\Users\stapi\AppData\Local\Temp\cc2gfMOA.s:747    .text.str_end_with:0000000000000000 .LFB60
C:\Users\stapi\AppData\Local\Temp\cc2gfMOA.s:826    .text.str_end_with:0000000000000052 .LFE60
C:\Users\stapi\AppData\Local\Temp\cc2gfMOA.s:6320   .debug_loc:000000000000076d .LLST16
C:\Users\stapi\AppData\Local\Temp\cc2gfMOA.s:6349   .debug_loc:00000000000007b2 .LLST17
C:\Users\stapi\AppData\Local\Temp\cc2gfMOA.s:769    .text.str_end_with:0000000000000012 .LBB34
C:\Users\stapi\AppData\Local\Temp\cc2gfMOA.s:6364   .debug_loc:00000000000007db .LLST18
C:\Users\stapi\AppData\Local\Temp\cc2gfMOA.s:6375   .debug_loc:00000000000007f9 .LLST19
C:\Users\stapi\AppData\Local\Temp\cc2gfMOA.s:6386   .debug_loc:0000000000000817 .LLST20
C:\Users\stapi\AppData\Local\Temp\cc2gfMOA.s:6393   .debug_loc:000000000000082a .LLST21
C:\Users\stapi\AppData\Local\Temp\cc2gfMOA.s:774    .text.str_end_with:000000000000001a .LVL51
C:\Users\stapi\AppData\Local\Temp\cc2gfMOA.s:781    .text.str_end_with:0000000000000026 .LVL53
C:\Users\stapi\AppData\Local\Temp\cc2gfMOA.s:802    .text.str_end_with:000000000000003e .LVL57
C:\Users\stapi\AppData\Local\Temp\cc2gfMOA.s:6867   .debug_str:0000000000000b4f .LASF184
C:\Users\stapi\AppData\Local\Temp\cc2gfMOA.s:6537   .debug_str:00000000000000d0 .LASF186
C:\Users\stapi\AppData\Local\Temp\cc2gfMOA.s:6853   .debug_str:0000000000000abf .LASF174
C:\Users\stapi\AppData\Local\Temp\cc2gfMOA.s:6649   .debug_str:00000000000003d0 .LASF175
C:\Users\stapi\AppData\Local\Temp\cc2gfMOA.s:6665   .debug_str:0000000000000467 .LASF176
C:\Users\stapi\AppData\Local\Temp\cc2gfMOA.s:6571   .debug_str:00000000000001b1 .LASF177
C:\Users\stapi\AppData\Local\Temp\cc2gfMOA.s:6715   .debug_str:00000000000006f8 .LASF178
C:\Users\stapi\AppData\Local\Temp\cc2gfMOA.s:6595   .debug_str:000000000000027b .LASF179
C:\Users\stapi\AppData\Local\Temp\cc2gfMOA.s:6527   .debug_str:000000000000008a .LASF180
C:\Users\stapi\AppData\Local\Temp\cc2gfMOA.s:6725   .debug_str:0000000000000754 .LASF181
C:\Users\stapi\AppData\Local\Temp\cc2gfMOA.s:6747   .debug_str:00000000000007e5 .LASF182
C:\Users\stapi\AppData\Local\Temp\cc2gfMOA.s:6921   .debug_str:0000000000000dc5 .LASF183
C:\Users\stapi\AppData\Local\Temp\cc2gfMOA.s:6591   .debug_str:000000000000025d .LASF185
C:\Users\stapi\AppData\Local\Temp\cc2gfMOA.s:6695   .debug_str:000000000000064d .LASF187
C:\Users\stapi\AppData\Local\Temp\cc2gfMOA.s:6863   .debug_str:0000000000000b23 .LASF188
C:\Users\stapi\AppData\Local\Temp\cc2gfMOA.s:6765   .debug_str:000000000000085b .LASF189
C:\Users\stapi\AppData\Local\Temp\cc2gfMOA.s:6531   .debug_str:00000000000000ad .LASF190
C:\Users\stapi\AppData\Local\Temp\cc2gfMOA.s:6779   .debug_str:00000000000008ad .LASF191
C:\Users\stapi\AppData\Local\Temp\cc2gfMOA.s:6643   .debug_str:00000000000003b4 .LASF192
C:\Users\stapi\AppData\Local\Temp\cc2gfMOA.s:6823   .debug_str:00000000000009e5 .LASF193
C:\Users\stapi\AppData\Local\Temp\cc2gfMOA.s:6535   .debug_str:00000000000000c5 .LASF194
C:\Users\stapi\AppData\Local\Temp\cc2gfMOA.s:6717   .debug_str:0000000000000711 .LASF195
C:\Users\stapi\AppData\Local\Temp\cc2gfMOA.s:6609   .debug_str:00000000000002df .LASF196
C:\Users\stapi\AppData\Local\Temp\cc2gfMOA.s:6513   .debug_str:0000000000000019 .LASF197
C:\Users\stapi\AppData\Local\Temp\cc2gfMOA.s:6689   .debug_str:0000000000000613 .LASF198
C:\Users\stapi\AppData\Local\Temp\cc2gfMOA.s:6509   .debug_str:000000000000000a .LASF199
C:\Users\stapi\AppData\Local\Temp\cc2gfMOA.s:1470   .text.awss_ieee80211_aplist_process:0000000000000000 .LVL118
C:\Users\stapi\AppData\Local\Temp\cc2gfMOA.s:1491   .text.awss_ieee80211_aplist_process:0000000000000014 .LVL121
C:\Users\stapi\AppData\Local\Temp\cc2gfMOA.s:1489   .text.awss_ieee80211_aplist_process:0000000000000012 .LVL120
C:\Users\stapi\AppData\Local\Temp\cc2gfMOA.s:1530   .text.awss_ieee80211_aplist_process:0000000000000048 .LVL127
C:\Users\stapi\AppData\Local\Temp\cc2gfMOA.s:1544   .text.awss_ieee80211_aplist_process:0000000000000054 .LVL128
C:\Users\stapi\AppData\Local\Temp\cc2gfMOA.s:1579   .text.awss_ieee80211_aplist_process:0000000000000088 .LVL135
C:\Users\stapi\AppData\Local\Temp\cc2gfMOA.s:1487   .text.awss_ieee80211_aplist_process:0000000000000010 .LVL119
C:\Users\stapi\AppData\Local\Temp\cc2gfMOA.s:1508   .text.awss_ieee80211_aplist_process:0000000000000028 .LVL123
C:\Users\stapi\AppData\Local\Temp\cc2gfMOA.s:1512   .text.awss_ieee80211_aplist_process:000000000000002c .LVL124
C:\Users\stapi\AppData\Local\Temp\cc2gfMOA.s:1554   .text.awss_ieee80211_aplist_process:0000000000000062 .LVL130
C:\Users\stapi\AppData\Local\Temp\cc2gfMOA.s:1560   .text.awss_ieee80211_aplist_process:0000000000000066 .LVL131
C:\Users\stapi\AppData\Local\Temp\cc2gfMOA.s:1572   .text.awss_ieee80211_aplist_process:000000000000007c .LVL133
C:\Users\stapi\AppData\Local\Temp\cc2gfMOA.s:1410   .text.aws_try_adjust_chan:0000000000000008 .LVL112
C:\Users\stapi\AppData\Local\Temp\cc2gfMOA.s:1280   .text.awss_get_auth_info:0000000000000000 .LVL98
C:\Users\stapi\AppData\Local\Temp\cc2gfMOA.s:1308   .text.awss_get_auth_info:0000000000000020 .LVL102
C:\Users\stapi\AppData\Local\Temp\cc2gfMOA.s:1322   .text.awss_get_auth_info:0000000000000036 .LVL106
C:\Users\stapi\AppData\Local\Temp\cc2gfMOA.s:1382   .text.awss_get_auth_info:000000000000007e .LVL109
C:\Users\stapi\AppData\Local\Temp\cc2gfMOA.s:1391   .text.awss_get_auth_info:000000000000008a .LVL111
C:\Users\stapi\AppData\Local\Temp\cc2gfMOA.s:1303   .text.awss_get_auth_info:0000000000000018 .LVL100
C:\Users\stapi\AppData\Local\Temp\cc2gfMOA.s:1305   .text.awss_get_auth_info:000000000000001a .LVL101
C:\Users\stapi\AppData\Local\Temp\cc2gfMOA.s:1290   .text.awss_get_auth_info:0000000000000008 .LVL99
C:\Users\stapi\AppData\Local\Temp\cc2gfMOA.s:1314   .text.awss_get_auth_info:000000000000002a .LVL104
C:\Users\stapi\AppData\Local\Temp\cc2gfMOA.s:1324   .text.awss_get_auth_info:0000000000000038 .LVL107
C:\Users\stapi\AppData\Local\Temp\cc2gfMOA.s:934    .text.awss_save_apinfo:0000000000000000 .LVL69
C:\Users\stapi\AppData\Local\Temp\cc2gfMOA.s:980    .text.awss_save_apinfo:0000000000000030 .LVL72
C:\Users\stapi\AppData\Local\Temp\cc2gfMOA.s:1030   .text.awss_save_apinfo:000000000000007e .LVL79
C:\Users\stapi\AppData\Local\Temp\cc2gfMOA.s:1035   .text.awss_save_apinfo:0000000000000082 .LVL80
C:\Users\stapi\AppData\Local\Temp\cc2gfMOA.s:1218   .text.awss_save_apinfo:00000000000001de .LVL93
C:\Users\stapi\AppData\Local\Temp\cc2gfMOA.s:1240   .text.awss_save_apinfo:00000000000001ea .LVL94
C:\Users\stapi\AppData\Local\Temp\cc2gfMOA.s:991    .text.awss_save_apinfo:0000000000000042 .LVL74
C:\Users\stapi\AppData\Local\Temp\cc2gfMOA.s:970    .text.awss_save_apinfo:0000000000000022 .LVL71
C:\Users\stapi\AppData\Local\Temp\cc2gfMOA.s:996    .text.awss_save_apinfo:0000000000000048 .LVL75
C:\Users\stapi\AppData\Local\Temp\cc2gfMOA.s:1259   .text.awss_save_apinfo:00000000000001fc .LVL97
C:\Users\stapi\AppData\Local\Temp\cc2gfMOA.s:965    .text.awss_save_apinfo:000000000000001a .LVL70
C:\Users\stapi\AppData\Local\Temp\cc2gfMOA.s:1003   .text.awss_save_apinfo:0000000000000050 .LVL76
C:\Users\stapi\AppData\Local\Temp\cc2gfMOA.s:1010   .text.awss_save_apinfo:0000000000000058 .LVL77
C:\Users\stapi\AppData\Local\Temp\cc2gfMOA.s:1050   .text.awss_save_apinfo:0000000000000096 .LVL81
C:\Users\stapi\AppData\Local\Temp\cc2gfMOA.s:1056   .text.awss_save_apinfo:00000000000000a0 .LVL82
C:\Users\stapi\AppData\Local\Temp\cc2gfMOA.s:1257   .text.awss_save_apinfo:00000000000001fa .LVL96
C:\Users\stapi\AppData\Local\Temp\cc2gfMOA.s:1105   .text.awss_save_apinfo:00000000000000f0 .LVL86
C:\Users\stapi\AppData\Local\Temp\cc2gfMOA.s:1157   .text.awss_save_apinfo:000000000000016c .LVL90
C:\Users\stapi\AppData\Local\Temp\cc2gfMOA.s:840    .text.zconfig_get_apinfo_by_ssid_suffix:0000000000000000 .LVL61
C:\Users\stapi\AppData\Local\Temp\cc2gfMOA.s:870    .text.zconfig_get_apinfo_by_ssid_suffix:000000000000002c .LVL63
C:\Users\stapi\AppData\Local\Temp\cc2gfMOA.s:891    .text.zconfig_get_apinfo_by_ssid_suffix:000000000000004a .LVL66
C:\Users\stapi\AppData\Local\Temp\cc2gfMOA.s:898    .text.zconfig_get_apinfo_by_ssid_suffix:0000000000000058 .LVL67
C:\Users\stapi\AppData\Local\Temp\cc2gfMOA.s:659    .text.zconfig_get_apinfo_by_ssid_prefix:0000000000000000 .LVL41
C:\Users\stapi\AppData\Local\Temp\cc2gfMOA.s:691    .text.zconfig_get_apinfo_by_ssid_prefix:000000000000002e .LVL43
C:\Users\stapi\AppData\Local\Temp\cc2gfMOA.s:713    .text.zconfig_get_apinfo_by_ssid_prefix:000000000000004e .LVL46
C:\Users\stapi\AppData\Local\Temp\cc2gfMOA.s:720    .text.zconfig_get_apinfo_by_ssid_prefix:000000000000005c .LVL47
C:\Users\stapi\AppData\Local\Temp\cc2gfMOA.s:474    .text.zconfig_get_apinfo_by_3_byte_mac:0000000000000000 .LVL23
C:\Users\stapi\AppData\Local\Temp\cc2gfMOA.s:498    .text.zconfig_get_apinfo_by_3_byte_mac:0000000000000022 .LVL24
C:\Users\stapi\AppData\Local\Temp\cc2gfMOA.s:506    .text.zconfig_get_apinfo_by_3_byte_mac:000000000000002a .LVL25
C:\Users\stapi\AppData\Local\Temp\cc2gfMOA.s:513    .text.zconfig_get_apinfo_by_3_byte_mac:0000000000000038 .LVL26
C:\Users\stapi\AppData\Local\Temp\cc2gfMOA.s:529    .text.zconfig_get_apinfo_by_3_byte_mac:000000000000004a .LVL28
C:\Users\stapi\AppData\Local\Temp\cc2gfMOA.s:541    .text.zconfig_get_apinfo_by_3_byte_mac:000000000000005c .LVL30
C:\Users\stapi\AppData\Local\Temp\cc2gfMOA.s:545    .text.zconfig_get_apinfo_by_3_byte_mac:0000000000000060 .LVL31
C:\Users\stapi\AppData\Local\Temp\cc2gfMOA.s:342    .text.awss_deinit_ieee80211_aplist:0000000000000014 .LVL13
C:\Users\stapi\AppData\Local\Temp\cc2gfMOA.s:250    .text.awss_init_ieee80211_aplist:000000000000001e .LVL7
C:\Users\stapi\AppData\Local\Temp\cc2gfMOA.s:261    .text.awss_init_ieee80211_aplist:0000000000000028 .LVL9
C:\Users\stapi\AppData\Local\Temp\cc2gfMOA.s:310    .text.awss_init_ieee80211_aplist:0000000000000068 .LVL12
C:\Users\stapi\AppData\Local\Temp\cc2gfMOA.s:381    .text.zconfig_get_apinfo:0000000000000000 .LVL15
C:\Users\stapi\AppData\Local\Temp\cc2gfMOA.s:404    .text.zconfig_get_apinfo:0000000000000022 .LVL16
C:\Users\stapi\AppData\Local\Temp\cc2gfMOA.s:412    .text.zconfig_get_apinfo:000000000000002a .LVL17
C:\Users\stapi\AppData\Local\Temp\cc2gfMOA.s:421    .text.zconfig_get_apinfo:0000000000000038 .LVL18
C:\Users\stapi\AppData\Local\Temp\cc2gfMOA.s:439    .text.zconfig_get_apinfo:000000000000004a .LVL20
C:\Users\stapi\AppData\Local\Temp\cc2gfMOA.s:567    .text.zconfig_get_apinfo_by_ssid:0000000000000000 .LVL33
C:\Users\stapi\AppData\Local\Temp\cc2gfMOA.s:590    .text.zconfig_get_apinfo_by_ssid:0000000000000022 .LVL34
C:\Users\stapi\AppData\Local\Temp\cc2gfMOA.s:598    .text.zconfig_get_apinfo_by_ssid:000000000000002a .LVL35
C:\Users\stapi\AppData\Local\Temp\cc2gfMOA.s:607    .text.zconfig_get_apinfo_by_ssid:0000000000000038 .LVL36
C:\Users\stapi\AppData\Local\Temp\cc2gfMOA.s:625    .text.zconfig_get_apinfo_by_ssid:000000000000004a .LVL38
C:\Users\stapi\AppData\Local\Temp\cc2gfMOA.s:750    .text.str_end_with:0000000000000000 .LVL49
C:\Users\stapi\AppData\Local\Temp\cc2gfMOA.s:805    .text.str_end_with:0000000000000042 .LVL58
C:\Users\stapi\AppData\Local\Temp\cc2gfMOA.s:817    .text.str_end_with:000000000000004c .LVL59
C:\Users\stapi\AppData\Local\Temp\cc2gfMOA.s:823    .text.str_end_with:0000000000000050 .LVL60
C:\Users\stapi\AppData\Local\Temp\cc2gfMOA.s:768    .text.str_end_with:0000000000000012 .LVL50
C:\Users\stapi\AppData\Local\Temp\cc2gfMOA.s:776    .text.str_end_with:000000000000001c .LVL52
C:\Users\stapi\AppData\Local\Temp\cc2gfMOA.s:796    .text.str_end_with:0000000000000030 .LVL55
C:\Users\stapi\AppData\Local\Temp\cc2gfMOA.s:783    .text.str_end_with:0000000000000028 .LVL54
C:\Users\stapi\AppData\Local\Temp\cc2gfMOA.s:800    .text.str_end_with:0000000000000036 .LVL56
C:\Users\stapi\AppData\Local\Temp\cc2gfMOA.s:1645   .debug_info:0000000000000000 .Ldebug_info0
C:\Users\stapi\AppData\Local\Temp\cc2gfMOA.s:248    .text.awss_init_ieee80211_aplist:000000000000001e .LBE14
C:\Users\stapi\AppData\Local\Temp\cc2gfMOA.s:251    .text.awss_init_ieee80211_aplist:000000000000001e .LBB21
C:\Users\stapi\AppData\Local\Temp\cc2gfMOA.s:275    .text.awss_init_ieee80211_aplist:0000000000000038 .LBE21
C:\Users\stapi\AppData\Local\Temp\cc2gfMOA.s:246    .text.awss_init_ieee80211_aplist:000000000000001e .LBE16
C:\Users\stapi\AppData\Local\Temp\cc2gfMOA.s:254    .text.awss_init_ieee80211_aplist:000000000000001e .LBB19
C:\Users\stapi\AppData\Local\Temp\cc2gfMOA.s:263    .text.awss_init_ieee80211_aplist:0000000000000028 .LBE19
C:\Users\stapi\AppData\Local\Temp\cc2gfMOA.s:786    .text.str_end_with:0000000000000028 .LBE34
C:\Users\stapi\AppData\Local\Temp\cc2gfMOA.s:789    .text.str_end_with:000000000000002a .LBB37
C:\Users\stapi\AppData\Local\Temp\cc2gfMOA.s:808    .text.str_end_with:0000000000000042 .LBE37

UNDEFINED SYMBOLS
HAL_Timer_Start
__riscv_save_0
iotx_state_event
__riscv_restore_0
memset
__riscv_save_1
HAL_Timer_Create
HAL_Timer_Stop
__riscv_restore_1
awss_stop_timer
__riscv_save_3
HAL_Malloc
__riscv_restore_3
HAL_Free
__riscv_save_5
__riscv_restore_5
memcmp
strcmp
__riscv_save_6
strlen
strncmp
__riscv_restore_6
__riscv_save_12
zconfig_add_active_channel
strncpy
memcpy
zconfig_data
__riscv_restore_12
zero_mac
zconfig_get_lock_chn
aws_set_dst_chan
aws_switch_channel
__riscv_save_4
ieee80211_is_beacon
ieee80211_get_bssid
__riscv_restore_4
ieee80211_is_probe_resp
ieee80211_get_ssid
cfg80211_get_bss_channel
cfg80211_get_cipher_info
