   1              		.file	"awss.c"
   2              		.option nopic
   3              		.attribute arch, "rv32i2p0_m2p0_a2p0_f2p0_c2p0_b_p0p94"
   4              		.attribute unaligned_access, 0
   5              		.attribute stack_align, 16
   6              		.text
   7              	.Ltext0:
   8              		.cfi_sections	.debug_frame
   9              		.section	.text.awss_press_timeout,"ax",@progbits
  10              		.align	1
  12              	awss_press_timeout:
  13              	.LFB52:
  14              		.file 1 "C:/Users/stapi/OneDrive/Desktop/GD32VW553/V1_MQTT_OK/GD32VW55X_Wifi_BLE_SDK/GD32VW55x_REL
   1:C:/Users/stapi/OneDrive/Desktop/GD32VW553/V1_MQTT_OK/GD32VW55X_Wifi_BLE_SDK/GD32VW55x_RELEASE_V1.0.2/MSDK/cloud/alicloud/src/services/awss\awss.c **** /*
   2:C:/Users/stapi/OneDrive/Desktop/GD32VW553/V1_MQTT_OK/GD32VW55X_Wifi_BLE_SDK/GD32VW55x_RELEASE_V1.0.2/MSDK/cloud/alicloud/src/services/awss\awss.c ****  * Copyright (C) 2015-2018 Alibaba Group Holding Limited
   3:C:/Users/stapi/OneDrive/Desktop/GD32VW553/V1_MQTT_OK/GD32VW55X_Wifi_BLE_SDK/GD32VW55x_RELEASE_V1.0.2/MSDK/cloud/alicloud/src/services/awss\awss.c ****  */
   4:C:/Users/stapi/OneDrive/Desktop/GD32VW553/V1_MQTT_OK/GD32VW55X_Wifi_BLE_SDK/GD32VW55x_RELEASE_V1.0.2/MSDK/cloud/alicloud/src/services/awss\awss.c **** 
   5:C:/Users/stapi/OneDrive/Desktop/GD32VW553/V1_MQTT_OK/GD32VW55X_Wifi_BLE_SDK/GD32VW55x_RELEASE_V1.0.2/MSDK/cloud/alicloud/src/services/awss\awss.c **** #include "awss.h"
   6:C:/Users/stapi/OneDrive/Desktop/GD32VW553/V1_MQTT_OK/GD32VW55X_Wifi_BLE_SDK/GD32VW55x_RELEASE_V1.0.2/MSDK/cloud/alicloud/src/services/awss\awss.c **** #include "awss_main.h"
   7:C:/Users/stapi/OneDrive/Desktop/GD32VW553/V1_MQTT_OK/GD32VW55X_Wifi_BLE_SDK/GD32VW55x_RELEASE_V1.0.2/MSDK/cloud/alicloud/src/services/awss\awss.c **** #include "zconfig_utils.h"
   8:C:/Users/stapi/OneDrive/Desktop/GD32VW553/V1_MQTT_OK/GD32VW55X_Wifi_BLE_SDK/GD32VW55x_RELEASE_V1.0.2/MSDK/cloud/alicloud/src/services/awss\awss.c **** #include "awss_enrollee.h"
   9:C:/Users/stapi/OneDrive/Desktop/GD32VW553/V1_MQTT_OK/GD32VW55X_Wifi_BLE_SDK/GD32VW55x_RELEASE_V1.0.2/MSDK/cloud/alicloud/src/services/awss\awss.c **** #include "awss_cmp.h"
  10:C:/Users/stapi/OneDrive/Desktop/GD32VW553/V1_MQTT_OK/GD32VW55X_Wifi_BLE_SDK/GD32VW55x_RELEASE_V1.0.2/MSDK/cloud/alicloud/src/services/awss\awss.c **** #include "awss_info.h"
  11:C:/Users/stapi/OneDrive/Desktop/GD32VW553/V1_MQTT_OK/GD32VW55X_Wifi_BLE_SDK/GD32VW55x_RELEASE_V1.0.2/MSDK/cloud/alicloud/src/services/awss\awss.c **** #include "awss_notify.h"
  12:C:/Users/stapi/OneDrive/Desktop/GD32VW553/V1_MQTT_OK/GD32VW55X_Wifi_BLE_SDK/GD32VW55x_RELEASE_V1.0.2/MSDK/cloud/alicloud/src/services/awss\awss.c **** #include "awss_timer.h"
  13:C:/Users/stapi/OneDrive/Desktop/GD32VW553/V1_MQTT_OK/GD32VW55X_Wifi_BLE_SDK/GD32VW55x_RELEASE_V1.0.2/MSDK/cloud/alicloud/src/services/awss\awss.c **** #include "awss_packet.h"
  14:C:/Users/stapi/OneDrive/Desktop/GD32VW553/V1_MQTT_OK/GD32VW55X_Wifi_BLE_SDK/GD32VW55x_RELEASE_V1.0.2/MSDK/cloud/alicloud/src/services/awss\awss.c **** #include "awss_statis.h"
  15:C:/Users/stapi/OneDrive/Desktop/GD32VW553/V1_MQTT_OK/GD32VW55X_Wifi_BLE_SDK/GD32VW55x_RELEASE_V1.0.2/MSDK/cloud/alicloud/src/services/awss\awss.c **** #include "awss_event.h"
  16:C:/Users/stapi/OneDrive/Desktop/GD32VW553/V1_MQTT_OK/GD32VW55X_Wifi_BLE_SDK/GD32VW55x_RELEASE_V1.0.2/MSDK/cloud/alicloud/src/services/awss\awss.c **** #include "awss_adha.h"
  17:C:/Users/stapi/OneDrive/Desktop/GD32VW553/V1_MQTT_OK/GD32VW55X_Wifi_BLE_SDK/GD32VW55x_RELEASE_V1.0.2/MSDK/cloud/alicloud/src/services/awss\awss.c **** #include "awss_aha.h"
  18:C:/Users/stapi/OneDrive/Desktop/GD32VW553/V1_MQTT_OK/GD32VW55X_Wifi_BLE_SDK/GD32VW55x_RELEASE_V1.0.2/MSDK/cloud/alicloud/src/services/awss\awss.c **** #include "passwd.h"
  19:C:/Users/stapi/OneDrive/Desktop/GD32VW553/V1_MQTT_OK/GD32VW55X_Wifi_BLE_SDK/GD32VW55x_RELEASE_V1.0.2/MSDK/cloud/alicloud/src/services/awss\awss.c **** 
  20:C:/Users/stapi/OneDrive/Desktop/GD32VW553/V1_MQTT_OK/GD32VW55X_Wifi_BLE_SDK/GD32VW55x_RELEASE_V1.0.2/MSDK/cloud/alicloud/src/services/awss\awss.c **** #if defined(__cplusplus)  /* If this is a C++ compiler, use C linkage */
  21:C:/Users/stapi/OneDrive/Desktop/GD32VW553/V1_MQTT_OK/GD32VW55X_Wifi_BLE_SDK/GD32VW55x_RELEASE_V1.0.2/MSDK/cloud/alicloud/src/services/awss\awss.c **** extern "C" {
  22:C:/Users/stapi/OneDrive/Desktop/GD32VW553/V1_MQTT_OK/GD32VW55X_Wifi_BLE_SDK/GD32VW55x_RELEASE_V1.0.2/MSDK/cloud/alicloud/src/services/awss\awss.c **** #endif
  23:C:/Users/stapi/OneDrive/Desktop/GD32VW553/V1_MQTT_OK/GD32VW55X_Wifi_BLE_SDK/GD32VW55x_RELEASE_V1.0.2/MSDK/cloud/alicloud/src/services/awss\awss.c **** 
  24:C:/Users/stapi/OneDrive/Desktop/GD32VW553/V1_MQTT_OK/GD32VW55X_Wifi_BLE_SDK/GD32VW55x_RELEASE_V1.0.2/MSDK/cloud/alicloud/src/services/awss\awss.c **** #define AWSS_PRESS_TIMEOUT_MS  (6000000)
  25:C:/Users/stapi/OneDrive/Desktop/GD32VW553/V1_MQTT_OK/GD32VW55X_Wifi_BLE_SDK/GD32VW55x_RELEASE_V1.0.2/MSDK/cloud/alicloud/src/services/awss\awss.c **** 
  26:C:/Users/stapi/OneDrive/Desktop/GD32VW553/V1_MQTT_OK/GD32VW55X_Wifi_BLE_SDK/GD32VW55x_RELEASE_V1.0.2/MSDK/cloud/alicloud/src/services/awss\awss.c **** extern int switch_ap_done;
  27:C:/Users/stapi/OneDrive/Desktop/GD32VW553/V1_MQTT_OK/GD32VW55X_Wifi_BLE_SDK/GD32VW55x_RELEASE_V1.0.2/MSDK/cloud/alicloud/src/services/awss\awss.c **** static uint8_t awss_stopped = 1;
  28:C:/Users/stapi/OneDrive/Desktop/GD32VW553/V1_MQTT_OK/GD32VW55X_Wifi_BLE_SDK/GD32VW55x_RELEASE_V1.0.2/MSDK/cloud/alicloud/src/services/awss\awss.c **** static uint8_t g_user_press = 0;
  29:C:/Users/stapi/OneDrive/Desktop/GD32VW553/V1_MQTT_OK/GD32VW55X_Wifi_BLE_SDK/GD32VW55x_RELEASE_V1.0.2/MSDK/cloud/alicloud/src/services/awss\awss.c **** static void *press_timer = NULL;
  30:C:/Users/stapi/OneDrive/Desktop/GD32VW553/V1_MQTT_OK/GD32VW55X_Wifi_BLE_SDK/GD32VW55x_RELEASE_V1.0.2/MSDK/cloud/alicloud/src/services/awss\awss.c **** 
  31:C:/Users/stapi/OneDrive/Desktop/GD32VW553/V1_MQTT_OK/GD32VW55X_Wifi_BLE_SDK/GD32VW55x_RELEASE_V1.0.2/MSDK/cloud/alicloud/src/services/awss\awss.c **** static void awss_press_timeout(void);
  32:C:/Users/stapi/OneDrive/Desktop/GD32VW553/V1_MQTT_OK/GD32VW55X_Wifi_BLE_SDK/GD32VW55x_RELEASE_V1.0.2/MSDK/cloud/alicloud/src/services/awss\awss.c **** 
  33:C:/Users/stapi/OneDrive/Desktop/GD32VW553/V1_MQTT_OK/GD32VW55X_Wifi_BLE_SDK/GD32VW55x_RELEASE_V1.0.2/MSDK/cloud/alicloud/src/services/awss\awss.c **** int awss_success_notify(void)
  34:C:/Users/stapi/OneDrive/Desktop/GD32VW553/V1_MQTT_OK/GD32VW55X_Wifi_BLE_SDK/GD32VW55x_RELEASE_V1.0.2/MSDK/cloud/alicloud/src/services/awss\awss.c **** {
  35:C:/Users/stapi/OneDrive/Desktop/GD32VW553/V1_MQTT_OK/GD32VW55X_Wifi_BLE_SDK/GD32VW55x_RELEASE_V1.0.2/MSDK/cloud/alicloud/src/services/awss\awss.c ****     g_user_press = 0;
  36:C:/Users/stapi/OneDrive/Desktop/GD32VW553/V1_MQTT_OK/GD32VW55X_Wifi_BLE_SDK/GD32VW55x_RELEASE_V1.0.2/MSDK/cloud/alicloud/src/services/awss\awss.c ****     awss_press_timeout();
  37:C:/Users/stapi/OneDrive/Desktop/GD32VW553/V1_MQTT_OK/GD32VW55X_Wifi_BLE_SDK/GD32VW55x_RELEASE_V1.0.2/MSDK/cloud/alicloud/src/services/awss\awss.c **** 
  38:C:/Users/stapi/OneDrive/Desktop/GD32VW553/V1_MQTT_OK/GD32VW55X_Wifi_BLE_SDK/GD32VW55x_RELEASE_V1.0.2/MSDK/cloud/alicloud/src/services/awss\awss.c ****     awss_cmp_local_init(AWSS_LC_INIT_SUC);
  39:C:/Users/stapi/OneDrive/Desktop/GD32VW553/V1_MQTT_OK/GD32VW55X_Wifi_BLE_SDK/GD32VW55x_RELEASE_V1.0.2/MSDK/cloud/alicloud/src/services/awss\awss.c ****     awss_suc_notify_stop();
  40:C:/Users/stapi/OneDrive/Desktop/GD32VW553/V1_MQTT_OK/GD32VW55X_Wifi_BLE_SDK/GD32VW55x_RELEASE_V1.0.2/MSDK/cloud/alicloud/src/services/awss\awss.c ****     awss_suc_notify();
  41:C:/Users/stapi/OneDrive/Desktop/GD32VW553/V1_MQTT_OK/GD32VW55X_Wifi_BLE_SDK/GD32VW55x_RELEASE_V1.0.2/MSDK/cloud/alicloud/src/services/awss\awss.c ****     awss_start_connectap_monitor();
  42:C:/Users/stapi/OneDrive/Desktop/GD32VW553/V1_MQTT_OK/GD32VW55X_Wifi_BLE_SDK/GD32VW55x_RELEASE_V1.0.2/MSDK/cloud/alicloud/src/services/awss\awss.c ****     AWSS_DISP_STATIS();
  43:C:/Users/stapi/OneDrive/Desktop/GD32VW553/V1_MQTT_OK/GD32VW55X_Wifi_BLE_SDK/GD32VW55x_RELEASE_V1.0.2/MSDK/cloud/alicloud/src/services/awss\awss.c ****     return 0;
  44:C:/Users/stapi/OneDrive/Desktop/GD32VW553/V1_MQTT_OK/GD32VW55X_Wifi_BLE_SDK/GD32VW55x_RELEASE_V1.0.2/MSDK/cloud/alicloud/src/services/awss\awss.c **** }
  45:C:/Users/stapi/OneDrive/Desktop/GD32VW553/V1_MQTT_OK/GD32VW55X_Wifi_BLE_SDK/GD32VW55x_RELEASE_V1.0.2/MSDK/cloud/alicloud/src/services/awss\awss.c **** 
  46:C:/Users/stapi/OneDrive/Desktop/GD32VW553/V1_MQTT_OK/GD32VW55X_Wifi_BLE_SDK/GD32VW55x_RELEASE_V1.0.2/MSDK/cloud/alicloud/src/services/awss\awss.c **** int awss_start(void)
  47:C:/Users/stapi/OneDrive/Desktop/GD32VW553/V1_MQTT_OK/GD32VW55X_Wifi_BLE_SDK/GD32VW55x_RELEASE_V1.0.2/MSDK/cloud/alicloud/src/services/awss\awss.c **** {
  48:C:/Users/stapi/OneDrive/Desktop/GD32VW553/V1_MQTT_OK/GD32VW55X_Wifi_BLE_SDK/GD32VW55x_RELEASE_V1.0.2/MSDK/cloud/alicloud/src/services/awss\awss.c ****     if (awss_stopped == 0) {
  49:C:/Users/stapi/OneDrive/Desktop/GD32VW553/V1_MQTT_OK/GD32VW55X_Wifi_BLE_SDK/GD32VW55x_RELEASE_V1.0.2/MSDK/cloud/alicloud/src/services/awss\awss.c ****         dump_awss_status(STATE_WIFI_IN_PROGRESS, "awss already running");
  50:C:/Users/stapi/OneDrive/Desktop/GD32VW553/V1_MQTT_OK/GD32VW55X_Wifi_BLE_SDK/GD32VW55x_RELEASE_V1.0.2/MSDK/cloud/alicloud/src/services/awss\awss.c ****         return STATE_WIFI_IN_PROGRESS;
  51:C:/Users/stapi/OneDrive/Desktop/GD32VW553/V1_MQTT_OK/GD32VW55X_Wifi_BLE_SDK/GD32VW55x_RELEASE_V1.0.2/MSDK/cloud/alicloud/src/services/awss\awss.c ****     }
  52:C:/Users/stapi/OneDrive/Desktop/GD32VW553/V1_MQTT_OK/GD32VW55X_Wifi_BLE_SDK/GD32VW55x_RELEASE_V1.0.2/MSDK/cloud/alicloud/src/services/awss\awss.c **** 
  53:C:/Users/stapi/OneDrive/Desktop/GD32VW553/V1_MQTT_OK/GD32VW55X_Wifi_BLE_SDK/GD32VW55x_RELEASE_V1.0.2/MSDK/cloud/alicloud/src/services/awss\awss.c ****     awss_stopped = 0;
  54:C:/Users/stapi/OneDrive/Desktop/GD32VW553/V1_MQTT_OK/GD32VW55X_Wifi_BLE_SDK/GD32VW55x_RELEASE_V1.0.2/MSDK/cloud/alicloud/src/services/awss\awss.c ****     awss_event_post(IOTX_AWSS_START);
  55:C:/Users/stapi/OneDrive/Desktop/GD32VW553/V1_MQTT_OK/GD32VW55X_Wifi_BLE_SDK/GD32VW55x_RELEASE_V1.0.2/MSDK/cloud/alicloud/src/services/awss\awss.c **** 
  56:C:/Users/stapi/OneDrive/Desktop/GD32VW553/V1_MQTT_OK/GD32VW55X_Wifi_BLE_SDK/GD32VW55x_RELEASE_V1.0.2/MSDK/cloud/alicloud/src/services/awss\awss.c ****     do {
  57:C:/Users/stapi/OneDrive/Desktop/GD32VW553/V1_MQTT_OK/GD32VW55X_Wifi_BLE_SDK/GD32VW55x_RELEASE_V1.0.2/MSDK/cloud/alicloud/src/services/awss\awss.c ****         __awss_start();
  58:C:/Users/stapi/OneDrive/Desktop/GD32VW553/V1_MQTT_OK/GD32VW55X_Wifi_BLE_SDK/GD32VW55x_RELEASE_V1.0.2/MSDK/cloud/alicloud/src/services/awss\awss.c **** #if defined(AWSS_SUPPORT_ADHA) || defined(AWSS_SUPPORT_AHA)
  59:C:/Users/stapi/OneDrive/Desktop/GD32VW553/V1_MQTT_OK/GD32VW55X_Wifi_BLE_SDK/GD32VW55x_RELEASE_V1.0.2/MSDK/cloud/alicloud/src/services/awss\awss.c ****         do {
  60:C:/Users/stapi/OneDrive/Desktop/GD32VW553/V1_MQTT_OK/GD32VW55X_Wifi_BLE_SDK/GD32VW55x_RELEASE_V1.0.2/MSDK/cloud/alicloud/src/services/awss\awss.c ****             char ssid[PLATFORM_MAX_SSID_LEN + 1] = {0};
  61:C:/Users/stapi/OneDrive/Desktop/GD32VW553/V1_MQTT_OK/GD32VW55X_Wifi_BLE_SDK/GD32VW55x_RELEASE_V1.0.2/MSDK/cloud/alicloud/src/services/awss\awss.c **** #ifdef AWSS_SUPPORT_ADHA
  62:C:/Users/stapi/OneDrive/Desktop/GD32VW553/V1_MQTT_OK/GD32VW55X_Wifi_BLE_SDK/GD32VW55x_RELEASE_V1.0.2/MSDK/cloud/alicloud/src/services/awss\awss.c ****             while (1) {
  63:C:/Users/stapi/OneDrive/Desktop/GD32VW553/V1_MQTT_OK/GD32VW55X_Wifi_BLE_SDK/GD32VW55x_RELEASE_V1.0.2/MSDK/cloud/alicloud/src/services/awss\awss.c ****                 memset(ssid, 0, sizeof(ssid));
  64:C:/Users/stapi/OneDrive/Desktop/GD32VW553/V1_MQTT_OK/GD32VW55X_Wifi_BLE_SDK/GD32VW55x_RELEASE_V1.0.2/MSDK/cloud/alicloud/src/services/awss\awss.c ****                 os_wifi_get_ap_info(ssid, NULL, NULL);
  65:C:/Users/stapi/OneDrive/Desktop/GD32VW553/V1_MQTT_OK/GD32VW55X_Wifi_BLE_SDK/GD32VW55x_RELEASE_V1.0.2/MSDK/cloud/alicloud/src/services/awss\awss.c ****                 awss_debug("start, ssid:%s, strlen:%d\n", ssid, strlen(ssid));
  66:C:/Users/stapi/OneDrive/Desktop/GD32VW553/V1_MQTT_OK/GD32VW55X_Wifi_BLE_SDK/GD32VW55x_RELEASE_V1.0.2/MSDK/cloud/alicloud/src/services/awss\awss.c ****                 if (strlen(ssid) > 0 && strcmp(ssid, ADHA_SSID)) { // not adha AP
  67:C:/Users/stapi/OneDrive/Desktop/GD32VW553/V1_MQTT_OK/GD32VW55X_Wifi_BLE_SDK/GD32VW55x_RELEASE_V1.0.2/MSDK/cloud/alicloud/src/services/awss\awss.c ****                     break;
  68:C:/Users/stapi/OneDrive/Desktop/GD32VW553/V1_MQTT_OK/GD32VW55X_Wifi_BLE_SDK/GD32VW55x_RELEASE_V1.0.2/MSDK/cloud/alicloud/src/services/awss\awss.c ****                 }
  69:C:/Users/stapi/OneDrive/Desktop/GD32VW553/V1_MQTT_OK/GD32VW55X_Wifi_BLE_SDK/GD32VW55x_RELEASE_V1.0.2/MSDK/cloud/alicloud/src/services/awss\awss.c **** 
  70:C:/Users/stapi/OneDrive/Desktop/GD32VW553/V1_MQTT_OK/GD32VW55X_Wifi_BLE_SDK/GD32VW55x_RELEASE_V1.0.2/MSDK/cloud/alicloud/src/services/awss\awss.c ****                 if (os_sys_net_is_ready()) { // skip the adha failed
  71:C:/Users/stapi/OneDrive/Desktop/GD32VW553/V1_MQTT_OK/GD32VW55X_Wifi_BLE_SDK/GD32VW55x_RELEASE_V1.0.2/MSDK/cloud/alicloud/src/services/awss\awss.c ****                     awss_cmp_local_init(AWSS_LC_INIT_ROUTER);
  72:C:/Users/stapi/OneDrive/Desktop/GD32VW553/V1_MQTT_OK/GD32VW55X_Wifi_BLE_SDK/GD32VW55x_RELEASE_V1.0.2/MSDK/cloud/alicloud/src/services/awss\awss.c **** 
  73:C:/Users/stapi/OneDrive/Desktop/GD32VW553/V1_MQTT_OK/GD32VW55X_Wifi_BLE_SDK/GD32VW55x_RELEASE_V1.0.2/MSDK/cloud/alicloud/src/services/awss\awss.c ****                     awss_open_adha_monitor();
  74:C:/Users/stapi/OneDrive/Desktop/GD32VW553/V1_MQTT_OK/GD32VW55X_Wifi_BLE_SDK/GD32VW55x_RELEASE_V1.0.2/MSDK/cloud/alicloud/src/services/awss\awss.c ****                     while (!awss_is_ready_switch_next_adha()) {
  75:C:/Users/stapi/OneDrive/Desktop/GD32VW553/V1_MQTT_OK/GD32VW55X_Wifi_BLE_SDK/GD32VW55x_RELEASE_V1.0.2/MSDK/cloud/alicloud/src/services/awss\awss.c ****                         if (awss_stopped) {
  76:C:/Users/stapi/OneDrive/Desktop/GD32VW553/V1_MQTT_OK/GD32VW55X_Wifi_BLE_SDK/GD32VW55x_RELEASE_V1.0.2/MSDK/cloud/alicloud/src/services/awss\awss.c ****                             break;
  77:C:/Users/stapi/OneDrive/Desktop/GD32VW553/V1_MQTT_OK/GD32VW55X_Wifi_BLE_SDK/GD32VW55x_RELEASE_V1.0.2/MSDK/cloud/alicloud/src/services/awss\awss.c ****                         }
  78:C:/Users/stapi/OneDrive/Desktop/GD32VW553/V1_MQTT_OK/GD32VW55X_Wifi_BLE_SDK/GD32VW55x_RELEASE_V1.0.2/MSDK/cloud/alicloud/src/services/awss\awss.c ****                         os_msleep(50);
  79:C:/Users/stapi/OneDrive/Desktop/GD32VW553/V1_MQTT_OK/GD32VW55X_Wifi_BLE_SDK/GD32VW55x_RELEASE_V1.0.2/MSDK/cloud/alicloud/src/services/awss\awss.c ****                     }
  80:C:/Users/stapi/OneDrive/Desktop/GD32VW553/V1_MQTT_OK/GD32VW55X_Wifi_BLE_SDK/GD32VW55x_RELEASE_V1.0.2/MSDK/cloud/alicloud/src/services/awss\awss.c ****                     awss_cmp_local_deinit(0);
  81:C:/Users/stapi/OneDrive/Desktop/GD32VW553/V1_MQTT_OK/GD32VW55X_Wifi_BLE_SDK/GD32VW55x_RELEASE_V1.0.2/MSDK/cloud/alicloud/src/services/awss\awss.c ****                 }
  82:C:/Users/stapi/OneDrive/Desktop/GD32VW553/V1_MQTT_OK/GD32VW55X_Wifi_BLE_SDK/GD32VW55x_RELEASE_V1.0.2/MSDK/cloud/alicloud/src/services/awss\awss.c **** 
  83:C:/Users/stapi/OneDrive/Desktop/GD32VW553/V1_MQTT_OK/GD32VW55X_Wifi_BLE_SDK/GD32VW55x_RELEASE_V1.0.2/MSDK/cloud/alicloud/src/services/awss\awss.c ****                 if (switch_ap_done || awss_stopped) {
  84:C:/Users/stapi/OneDrive/Desktop/GD32VW553/V1_MQTT_OK/GD32VW55X_Wifi_BLE_SDK/GD32VW55x_RELEASE_V1.0.2/MSDK/cloud/alicloud/src/services/awss\awss.c ****                     break;
  85:C:/Users/stapi/OneDrive/Desktop/GD32VW553/V1_MQTT_OK/GD32VW55X_Wifi_BLE_SDK/GD32VW55x_RELEASE_V1.0.2/MSDK/cloud/alicloud/src/services/awss\awss.c ****                 }
  86:C:/Users/stapi/OneDrive/Desktop/GD32VW553/V1_MQTT_OK/GD32VW55X_Wifi_BLE_SDK/GD32VW55x_RELEASE_V1.0.2/MSDK/cloud/alicloud/src/services/awss\awss.c ****                 __awss_start();
  87:C:/Users/stapi/OneDrive/Desktop/GD32VW553/V1_MQTT_OK/GD32VW55X_Wifi_BLE_SDK/GD32VW55x_RELEASE_V1.0.2/MSDK/cloud/alicloud/src/services/awss\awss.c ****             }
  88:C:/Users/stapi/OneDrive/Desktop/GD32VW553/V1_MQTT_OK/GD32VW55X_Wifi_BLE_SDK/GD32VW55x_RELEASE_V1.0.2/MSDK/cloud/alicloud/src/services/awss\awss.c **** #endif
  89:C:/Users/stapi/OneDrive/Desktop/GD32VW553/V1_MQTT_OK/GD32VW55X_Wifi_BLE_SDK/GD32VW55x_RELEASE_V1.0.2/MSDK/cloud/alicloud/src/services/awss\awss.c ****             if (awss_stopped) {
  90:C:/Users/stapi/OneDrive/Desktop/GD32VW553/V1_MQTT_OK/GD32VW55X_Wifi_BLE_SDK/GD32VW55x_RELEASE_V1.0.2/MSDK/cloud/alicloud/src/services/awss\awss.c ****                 break;
  91:C:/Users/stapi/OneDrive/Desktop/GD32VW553/V1_MQTT_OK/GD32VW55X_Wifi_BLE_SDK/GD32VW55x_RELEASE_V1.0.2/MSDK/cloud/alicloud/src/services/awss\awss.c ****             }
  92:C:/Users/stapi/OneDrive/Desktop/GD32VW553/V1_MQTT_OK/GD32VW55X_Wifi_BLE_SDK/GD32VW55x_RELEASE_V1.0.2/MSDK/cloud/alicloud/src/services/awss\awss.c **** 
  93:C:/Users/stapi/OneDrive/Desktop/GD32VW553/V1_MQTT_OK/GD32VW55X_Wifi_BLE_SDK/GD32VW55x_RELEASE_V1.0.2/MSDK/cloud/alicloud/src/services/awss\awss.c ****             if (switch_ap_done) {
  94:C:/Users/stapi/OneDrive/Desktop/GD32VW553/V1_MQTT_OK/GD32VW55X_Wifi_BLE_SDK/GD32VW55x_RELEASE_V1.0.2/MSDK/cloud/alicloud/src/services/awss\awss.c ****                 break;
  95:C:/Users/stapi/OneDrive/Desktop/GD32VW553/V1_MQTT_OK/GD32VW55X_Wifi_BLE_SDK/GD32VW55x_RELEASE_V1.0.2/MSDK/cloud/alicloud/src/services/awss\awss.c ****             }
  96:C:/Users/stapi/OneDrive/Desktop/GD32VW553/V1_MQTT_OK/GD32VW55X_Wifi_BLE_SDK/GD32VW55x_RELEASE_V1.0.2/MSDK/cloud/alicloud/src/services/awss\awss.c **** 
  97:C:/Users/stapi/OneDrive/Desktop/GD32VW553/V1_MQTT_OK/GD32VW55X_Wifi_BLE_SDK/GD32VW55x_RELEASE_V1.0.2/MSDK/cloud/alicloud/src/services/awss\awss.c ****             os_wifi_get_ap_info(ssid, NULL, NULL);
  98:C:/Users/stapi/OneDrive/Desktop/GD32VW553/V1_MQTT_OK/GD32VW55X_Wifi_BLE_SDK/GD32VW55x_RELEASE_V1.0.2/MSDK/cloud/alicloud/src/services/awss\awss.c ****             if (strlen(ssid) > 0 && strcmp(ssid, DEFAULT_SSID)) { // not AHA
  99:C:/Users/stapi/OneDrive/Desktop/GD32VW553/V1_MQTT_OK/GD32VW55X_Wifi_BLE_SDK/GD32VW55x_RELEASE_V1.0.2/MSDK/cloud/alicloud/src/services/awss\awss.c ****                 break;
 100:C:/Users/stapi/OneDrive/Desktop/GD32VW553/V1_MQTT_OK/GD32VW55X_Wifi_BLE_SDK/GD32VW55x_RELEASE_V1.0.2/MSDK/cloud/alicloud/src/services/awss\awss.c ****             }
 101:C:/Users/stapi/OneDrive/Desktop/GD32VW553/V1_MQTT_OK/GD32VW55X_Wifi_BLE_SDK/GD32VW55x_RELEASE_V1.0.2/MSDK/cloud/alicloud/src/services/awss\awss.c **** 
 102:C:/Users/stapi/OneDrive/Desktop/GD32VW553/V1_MQTT_OK/GD32VW55X_Wifi_BLE_SDK/GD32VW55x_RELEASE_V1.0.2/MSDK/cloud/alicloud/src/services/awss\awss.c ****             if (os_sys_net_is_ready()) {
 103:C:/Users/stapi/OneDrive/Desktop/GD32VW553/V1_MQTT_OK/GD32VW55X_Wifi_BLE_SDK/GD32VW55x_RELEASE_V1.0.2/MSDK/cloud/alicloud/src/services/awss\awss.c ****                 awss_open_aha_monitor();
 104:C:/Users/stapi/OneDrive/Desktop/GD32VW553/V1_MQTT_OK/GD32VW55X_Wifi_BLE_SDK/GD32VW55x_RELEASE_V1.0.2/MSDK/cloud/alicloud/src/services/awss\awss.c **** 
 105:C:/Users/stapi/OneDrive/Desktop/GD32VW553/V1_MQTT_OK/GD32VW55X_Wifi_BLE_SDK/GD32VW55x_RELEASE_V1.0.2/MSDK/cloud/alicloud/src/services/awss\awss.c ****                 awss_cmp_local_init(AWSS_LC_INIT_PAP);
 106:C:/Users/stapi/OneDrive/Desktop/GD32VW553/V1_MQTT_OK/GD32VW55X_Wifi_BLE_SDK/GD32VW55x_RELEASE_V1.0.2/MSDK/cloud/alicloud/src/services/awss\awss.c ****                 char dest_ap = 0;
 107:C:/Users/stapi/OneDrive/Desktop/GD32VW553/V1_MQTT_OK/GD32VW55X_Wifi_BLE_SDK/GD32VW55x_RELEASE_V1.0.2/MSDK/cloud/alicloud/src/services/awss\awss.c ****                 while (!awss_aha_monitor_is_timeout()) {
 108:C:/Users/stapi/OneDrive/Desktop/GD32VW553/V1_MQTT_OK/GD32VW55X_Wifi_BLE_SDK/GD32VW55x_RELEASE_V1.0.2/MSDK/cloud/alicloud/src/services/awss\awss.c ****                     memset(ssid, 0, sizeof(ssid));
 109:C:/Users/stapi/OneDrive/Desktop/GD32VW553/V1_MQTT_OK/GD32VW55X_Wifi_BLE_SDK/GD32VW55x_RELEASE_V1.0.2/MSDK/cloud/alicloud/src/services/awss\awss.c ****                     os_wifi_get_ap_info(ssid, NULL, NULL);
 110:C:/Users/stapi/OneDrive/Desktop/GD32VW553/V1_MQTT_OK/GD32VW55X_Wifi_BLE_SDK/GD32VW55x_RELEASE_V1.0.2/MSDK/cloud/alicloud/src/services/awss\awss.c ****                     if (os_sys_net_is_ready() &&
 111:C:/Users/stapi/OneDrive/Desktop/GD32VW553/V1_MQTT_OK/GD32VW55X_Wifi_BLE_SDK/GD32VW55x_RELEASE_V1.0.2/MSDK/cloud/alicloud/src/services/awss\awss.c ****                         strlen(ssid) > 0 && strcmp(ssid, DEFAULT_SSID)) {  // not AHA
 112:C:/Users/stapi/OneDrive/Desktop/GD32VW553/V1_MQTT_OK/GD32VW55X_Wifi_BLE_SDK/GD32VW55x_RELEASE_V1.0.2/MSDK/cloud/alicloud/src/services/awss\awss.c ****                         dest_ap = 1;
 113:C:/Users/stapi/OneDrive/Desktop/GD32VW553/V1_MQTT_OK/GD32VW55X_Wifi_BLE_SDK/GD32VW55x_RELEASE_V1.0.2/MSDK/cloud/alicloud/src/services/awss\awss.c ****                         break;
 114:C:/Users/stapi/OneDrive/Desktop/GD32VW553/V1_MQTT_OK/GD32VW55X_Wifi_BLE_SDK/GD32VW55x_RELEASE_V1.0.2/MSDK/cloud/alicloud/src/services/awss\awss.c ****                     }
 115:C:/Users/stapi/OneDrive/Desktop/GD32VW553/V1_MQTT_OK/GD32VW55X_Wifi_BLE_SDK/GD32VW55x_RELEASE_V1.0.2/MSDK/cloud/alicloud/src/services/awss\awss.c ****                     if (awss_stopped) {
 116:C:/Users/stapi/OneDrive/Desktop/GD32VW553/V1_MQTT_OK/GD32VW55X_Wifi_BLE_SDK/GD32VW55x_RELEASE_V1.0.2/MSDK/cloud/alicloud/src/services/awss\awss.c ****                         break;
 117:C:/Users/stapi/OneDrive/Desktop/GD32VW553/V1_MQTT_OK/GD32VW55X_Wifi_BLE_SDK/GD32VW55x_RELEASE_V1.0.2/MSDK/cloud/alicloud/src/services/awss\awss.c ****                     }
 118:C:/Users/stapi/OneDrive/Desktop/GD32VW553/V1_MQTT_OK/GD32VW55X_Wifi_BLE_SDK/GD32VW55x_RELEASE_V1.0.2/MSDK/cloud/alicloud/src/services/awss\awss.c ****                     os_msleep(50);
 119:C:/Users/stapi/OneDrive/Desktop/GD32VW553/V1_MQTT_OK/GD32VW55X_Wifi_BLE_SDK/GD32VW55x_RELEASE_V1.0.2/MSDK/cloud/alicloud/src/services/awss\awss.c ****                 }
 120:C:/Users/stapi/OneDrive/Desktop/GD32VW553/V1_MQTT_OK/GD32VW55X_Wifi_BLE_SDK/GD32VW55x_RELEASE_V1.0.2/MSDK/cloud/alicloud/src/services/awss\awss.c **** 
 121:C:/Users/stapi/OneDrive/Desktop/GD32VW553/V1_MQTT_OK/GD32VW55X_Wifi_BLE_SDK/GD32VW55x_RELEASE_V1.0.2/MSDK/cloud/alicloud/src/services/awss\awss.c ****                 awss_cmp_local_deinit(0);
 122:C:/Users/stapi/OneDrive/Desktop/GD32VW553/V1_MQTT_OK/GD32VW55X_Wifi_BLE_SDK/GD32VW55x_RELEASE_V1.0.2/MSDK/cloud/alicloud/src/services/awss\awss.c **** 
 123:C:/Users/stapi/OneDrive/Desktop/GD32VW553/V1_MQTT_OK/GD32VW55X_Wifi_BLE_SDK/GD32VW55x_RELEASE_V1.0.2/MSDK/cloud/alicloud/src/services/awss\awss.c ****                 if (switch_ap_done || awss_stopped) {
 124:C:/Users/stapi/OneDrive/Desktop/GD32VW553/V1_MQTT_OK/GD32VW55X_Wifi_BLE_SDK/GD32VW55x_RELEASE_V1.0.2/MSDK/cloud/alicloud/src/services/awss\awss.c ****                     break;
 125:C:/Users/stapi/OneDrive/Desktop/GD32VW553/V1_MQTT_OK/GD32VW55X_Wifi_BLE_SDK/GD32VW55x_RELEASE_V1.0.2/MSDK/cloud/alicloud/src/services/awss\awss.c ****                 }
 126:C:/Users/stapi/OneDrive/Desktop/GD32VW553/V1_MQTT_OK/GD32VW55X_Wifi_BLE_SDK/GD32VW55x_RELEASE_V1.0.2/MSDK/cloud/alicloud/src/services/awss\awss.c **** 
 127:C:/Users/stapi/OneDrive/Desktop/GD32VW553/V1_MQTT_OK/GD32VW55X_Wifi_BLE_SDK/GD32VW55x_RELEASE_V1.0.2/MSDK/cloud/alicloud/src/services/awss\awss.c ****                 if (dest_ap == 1) {
 128:C:/Users/stapi/OneDrive/Desktop/GD32VW553/V1_MQTT_OK/GD32VW55X_Wifi_BLE_SDK/GD32VW55x_RELEASE_V1.0.2/MSDK/cloud/alicloud/src/services/awss\awss.c ****                     break;
 129:C:/Users/stapi/OneDrive/Desktop/GD32VW553/V1_MQTT_OK/GD32VW55X_Wifi_BLE_SDK/GD32VW55x_RELEASE_V1.0.2/MSDK/cloud/alicloud/src/services/awss\awss.c ****                 }
 130:C:/Users/stapi/OneDrive/Desktop/GD32VW553/V1_MQTT_OK/GD32VW55X_Wifi_BLE_SDK/GD32VW55x_RELEASE_V1.0.2/MSDK/cloud/alicloud/src/services/awss\awss.c ****             }
 131:C:/Users/stapi/OneDrive/Desktop/GD32VW553/V1_MQTT_OK/GD32VW55X_Wifi_BLE_SDK/GD32VW55x_RELEASE_V1.0.2/MSDK/cloud/alicloud/src/services/awss\awss.c ****             awss_event_post(IOTX_AWSS_ENABLE_TIMEOUT);
 132:C:/Users/stapi/OneDrive/Desktop/GD32VW553/V1_MQTT_OK/GD32VW55X_Wifi_BLE_SDK/GD32VW55x_RELEASE_V1.0.2/MSDK/cloud/alicloud/src/services/awss\awss.c ****             __awss_start();
 133:C:/Users/stapi/OneDrive/Desktop/GD32VW553/V1_MQTT_OK/GD32VW55X_Wifi_BLE_SDK/GD32VW55x_RELEASE_V1.0.2/MSDK/cloud/alicloud/src/services/awss\awss.c ****         } while (1);
 134:C:/Users/stapi/OneDrive/Desktop/GD32VW553/V1_MQTT_OK/GD32VW55X_Wifi_BLE_SDK/GD32VW55x_RELEASE_V1.0.2/MSDK/cloud/alicloud/src/services/awss\awss.c **** #endif
 135:C:/Users/stapi/OneDrive/Desktop/GD32VW553/V1_MQTT_OK/GD32VW55X_Wifi_BLE_SDK/GD32VW55x_RELEASE_V1.0.2/MSDK/cloud/alicloud/src/services/awss\awss.c ****         if (awss_stopped) {
 136:C:/Users/stapi/OneDrive/Desktop/GD32VW553/V1_MQTT_OK/GD32VW55X_Wifi_BLE_SDK/GD32VW55x_RELEASE_V1.0.2/MSDK/cloud/alicloud/src/services/awss\awss.c ****             break;
 137:C:/Users/stapi/OneDrive/Desktop/GD32VW553/V1_MQTT_OK/GD32VW55X_Wifi_BLE_SDK/GD32VW55x_RELEASE_V1.0.2/MSDK/cloud/alicloud/src/services/awss\awss.c ****         }
 138:C:/Users/stapi/OneDrive/Desktop/GD32VW553/V1_MQTT_OK/GD32VW55X_Wifi_BLE_SDK/GD32VW55x_RELEASE_V1.0.2/MSDK/cloud/alicloud/src/services/awss\awss.c **** 
 139:C:/Users/stapi/OneDrive/Desktop/GD32VW553/V1_MQTT_OK/GD32VW55X_Wifi_BLE_SDK/GD32VW55x_RELEASE_V1.0.2/MSDK/cloud/alicloud/src/services/awss\awss.c ****         if (os_sys_net_is_ready()) {
 140:C:/Users/stapi/OneDrive/Desktop/GD32VW553/V1_MQTT_OK/GD32VW55X_Wifi_BLE_SDK/GD32VW55x_RELEASE_V1.0.2/MSDK/cloud/alicloud/src/services/awss\awss.c ****             break;
 141:C:/Users/stapi/OneDrive/Desktop/GD32VW553/V1_MQTT_OK/GD32VW55X_Wifi_BLE_SDK/GD32VW55x_RELEASE_V1.0.2/MSDK/cloud/alicloud/src/services/awss\awss.c ****         }
 142:C:/Users/stapi/OneDrive/Desktop/GD32VW553/V1_MQTT_OK/GD32VW55X_Wifi_BLE_SDK/GD32VW55x_RELEASE_V1.0.2/MSDK/cloud/alicloud/src/services/awss\awss.c ****     } while (1);
 143:C:/Users/stapi/OneDrive/Desktop/GD32VW553/V1_MQTT_OK/GD32VW55X_Wifi_BLE_SDK/GD32VW55x_RELEASE_V1.0.2/MSDK/cloud/alicloud/src/services/awss\awss.c **** 
 144:C:/Users/stapi/OneDrive/Desktop/GD32VW553/V1_MQTT_OK/GD32VW55X_Wifi_BLE_SDK/GD32VW55x_RELEASE_V1.0.2/MSDK/cloud/alicloud/src/services/awss\awss.c ****     if (awss_stopped) {
 145:C:/Users/stapi/OneDrive/Desktop/GD32VW553/V1_MQTT_OK/GD32VW55X_Wifi_BLE_SDK/GD32VW55x_RELEASE_V1.0.2/MSDK/cloud/alicloud/src/services/awss\awss.c ****         dump_awss_status(STATE_WIFI_FORCE_STOPPED, "awss stopped in %s", __func__);
 146:C:/Users/stapi/OneDrive/Desktop/GD32VW553/V1_MQTT_OK/GD32VW55X_Wifi_BLE_SDK/GD32VW55x_RELEASE_V1.0.2/MSDK/cloud/alicloud/src/services/awss\awss.c ****         return STATE_WIFI_FORCE_STOPPED;
 147:C:/Users/stapi/OneDrive/Desktop/GD32VW553/V1_MQTT_OK/GD32VW55X_Wifi_BLE_SDK/GD32VW55x_RELEASE_V1.0.2/MSDK/cloud/alicloud/src/services/awss\awss.c ****     }
 148:C:/Users/stapi/OneDrive/Desktop/GD32VW553/V1_MQTT_OK/GD32VW55X_Wifi_BLE_SDK/GD32VW55x_RELEASE_V1.0.2/MSDK/cloud/alicloud/src/services/awss\awss.c **** 
 149:C:/Users/stapi/OneDrive/Desktop/GD32VW553/V1_MQTT_OK/GD32VW55X_Wifi_BLE_SDK/GD32VW55x_RELEASE_V1.0.2/MSDK/cloud/alicloud/src/services/awss\awss.c **** #ifdef AWSS_SUPPORT_AHA
 150:C:/Users/stapi/OneDrive/Desktop/GD32VW553/V1_MQTT_OK/GD32VW55X_Wifi_BLE_SDK/GD32VW55x_RELEASE_V1.0.2/MSDK/cloud/alicloud/src/services/awss\awss.c ****     awss_close_aha_monitor();
 151:C:/Users/stapi/OneDrive/Desktop/GD32VW553/V1_MQTT_OK/GD32VW55X_Wifi_BLE_SDK/GD32VW55x_RELEASE_V1.0.2/MSDK/cloud/alicloud/src/services/awss\awss.c **** #endif
 152:C:/Users/stapi/OneDrive/Desktop/GD32VW553/V1_MQTT_OK/GD32VW55X_Wifi_BLE_SDK/GD32VW55x_RELEASE_V1.0.2/MSDK/cloud/alicloud/src/services/awss\awss.c **** #ifdef AWSS_SUPPORT_ADHA
 153:C:/Users/stapi/OneDrive/Desktop/GD32VW553/V1_MQTT_OK/GD32VW55X_Wifi_BLE_SDK/GD32VW55x_RELEASE_V1.0.2/MSDK/cloud/alicloud/src/services/awss\awss.c ****     awss_close_adha_monitor();
 154:C:/Users/stapi/OneDrive/Desktop/GD32VW553/V1_MQTT_OK/GD32VW55X_Wifi_BLE_SDK/GD32VW55x_RELEASE_V1.0.2/MSDK/cloud/alicloud/src/services/awss\awss.c **** #endif
 155:C:/Users/stapi/OneDrive/Desktop/GD32VW553/V1_MQTT_OK/GD32VW55X_Wifi_BLE_SDK/GD32VW55x_RELEASE_V1.0.2/MSDK/cloud/alicloud/src/services/awss\awss.c **** 
 156:C:/Users/stapi/OneDrive/Desktop/GD32VW553/V1_MQTT_OK/GD32VW55X_Wifi_BLE_SDK/GD32VW55x_RELEASE_V1.0.2/MSDK/cloud/alicloud/src/services/awss\awss.c ****     awss_success_notify();
 157:C:/Users/stapi/OneDrive/Desktop/GD32VW553/V1_MQTT_OK/GD32VW55X_Wifi_BLE_SDK/GD32VW55x_RELEASE_V1.0.2/MSDK/cloud/alicloud/src/services/awss\awss.c ****     awss_stopped = 1;
 158:C:/Users/stapi/OneDrive/Desktop/GD32VW553/V1_MQTT_OK/GD32VW55X_Wifi_BLE_SDK/GD32VW55x_RELEASE_V1.0.2/MSDK/cloud/alicloud/src/services/awss\awss.c ****     return 0;
 159:C:/Users/stapi/OneDrive/Desktop/GD32VW553/V1_MQTT_OK/GD32VW55X_Wifi_BLE_SDK/GD32VW55x_RELEASE_V1.0.2/MSDK/cloud/alicloud/src/services/awss\awss.c **** }
 160:C:/Users/stapi/OneDrive/Desktop/GD32VW553/V1_MQTT_OK/GD32VW55X_Wifi_BLE_SDK/GD32VW55x_RELEASE_V1.0.2/MSDK/cloud/alicloud/src/services/awss\awss.c **** 
 161:C:/Users/stapi/OneDrive/Desktop/GD32VW553/V1_MQTT_OK/GD32VW55X_Wifi_BLE_SDK/GD32VW55x_RELEASE_V1.0.2/MSDK/cloud/alicloud/src/services/awss\awss.c **** int awss_stop(void)
 162:C:/Users/stapi/OneDrive/Desktop/GD32VW553/V1_MQTT_OK/GD32VW55X_Wifi_BLE_SDK/GD32VW55x_RELEASE_V1.0.2/MSDK/cloud/alicloud/src/services/awss\awss.c **** {
 163:C:/Users/stapi/OneDrive/Desktop/GD32VW553/V1_MQTT_OK/GD32VW55X_Wifi_BLE_SDK/GD32VW55x_RELEASE_V1.0.2/MSDK/cloud/alicloud/src/services/awss\awss.c ****     awss_stopped = 1;
 164:C:/Users/stapi/OneDrive/Desktop/GD32VW553/V1_MQTT_OK/GD32VW55X_Wifi_BLE_SDK/GD32VW55x_RELEASE_V1.0.2/MSDK/cloud/alicloud/src/services/awss\awss.c **** #ifdef AWSS_SUPPORT_AHA
 165:C:/Users/stapi/OneDrive/Desktop/GD32VW553/V1_MQTT_OK/GD32VW55X_Wifi_BLE_SDK/GD32VW55x_RELEASE_V1.0.2/MSDK/cloud/alicloud/src/services/awss\awss.c ****     awss_close_aha_monitor();
 166:C:/Users/stapi/OneDrive/Desktop/GD32VW553/V1_MQTT_OK/GD32VW55X_Wifi_BLE_SDK/GD32VW55x_RELEASE_V1.0.2/MSDK/cloud/alicloud/src/services/awss\awss.c **** #endif
 167:C:/Users/stapi/OneDrive/Desktop/GD32VW553/V1_MQTT_OK/GD32VW55X_Wifi_BLE_SDK/GD32VW55x_RELEASE_V1.0.2/MSDK/cloud/alicloud/src/services/awss\awss.c **** #ifdef AWSS_SUPPORT_ADHA
 168:C:/Users/stapi/OneDrive/Desktop/GD32VW553/V1_MQTT_OK/GD32VW55X_Wifi_BLE_SDK/GD32VW55x_RELEASE_V1.0.2/MSDK/cloud/alicloud/src/services/awss\awss.c ****     awss_close_adha_monitor();
 169:C:/Users/stapi/OneDrive/Desktop/GD32VW553/V1_MQTT_OK/GD32VW55X_Wifi_BLE_SDK/GD32VW55x_RELEASE_V1.0.2/MSDK/cloud/alicloud/src/services/awss\awss.c **** #endif
 170:C:/Users/stapi/OneDrive/Desktop/GD32VW553/V1_MQTT_OK/GD32VW55X_Wifi_BLE_SDK/GD32VW55x_RELEASE_V1.0.2/MSDK/cloud/alicloud/src/services/awss\awss.c ****     awss_stop_connectap_monitor();
 171:C:/Users/stapi/OneDrive/Desktop/GD32VW553/V1_MQTT_OK/GD32VW55X_Wifi_BLE_SDK/GD32VW55x_RELEASE_V1.0.2/MSDK/cloud/alicloud/src/services/awss\awss.c ****     g_user_press = 0;
 172:C:/Users/stapi/OneDrive/Desktop/GD32VW553/V1_MQTT_OK/GD32VW55X_Wifi_BLE_SDK/GD32VW55x_RELEASE_V1.0.2/MSDK/cloud/alicloud/src/services/awss\awss.c ****     awss_press_timeout();
 173:C:/Users/stapi/OneDrive/Desktop/GD32VW553/V1_MQTT_OK/GD32VW55X_Wifi_BLE_SDK/GD32VW55x_RELEASE_V1.0.2/MSDK/cloud/alicloud/src/services/awss\awss.c **** 
 174:C:/Users/stapi/OneDrive/Desktop/GD32VW553/V1_MQTT_OK/GD32VW55X_Wifi_BLE_SDK/GD32VW55x_RELEASE_V1.0.2/MSDK/cloud/alicloud/src/services/awss\awss.c ****     __awss_stop();
 175:C:/Users/stapi/OneDrive/Desktop/GD32VW553/V1_MQTT_OK/GD32VW55X_Wifi_BLE_SDK/GD32VW55x_RELEASE_V1.0.2/MSDK/cloud/alicloud/src/services/awss\awss.c **** 
 176:C:/Users/stapi/OneDrive/Desktop/GD32VW553/V1_MQTT_OK/GD32VW55X_Wifi_BLE_SDK/GD32VW55x_RELEASE_V1.0.2/MSDK/cloud/alicloud/src/services/awss\awss.c ****     return 0;
 177:C:/Users/stapi/OneDrive/Desktop/GD32VW553/V1_MQTT_OK/GD32VW55X_Wifi_BLE_SDK/GD32VW55x_RELEASE_V1.0.2/MSDK/cloud/alicloud/src/services/awss\awss.c **** }
 178:C:/Users/stapi/OneDrive/Desktop/GD32VW553/V1_MQTT_OK/GD32VW55X_Wifi_BLE_SDK/GD32VW55x_RELEASE_V1.0.2/MSDK/cloud/alicloud/src/services/awss\awss.c **** 
 179:C:/Users/stapi/OneDrive/Desktop/GD32VW553/V1_MQTT_OK/GD32VW55X_Wifi_BLE_SDK/GD32VW55x_RELEASE_V1.0.2/MSDK/cloud/alicloud/src/services/awss\awss.c **** static void awss_press_timeout(void)
 180:C:/Users/stapi/OneDrive/Desktop/GD32VW553/V1_MQTT_OK/GD32VW55X_Wifi_BLE_SDK/GD32VW55x_RELEASE_V1.0.2/MSDK/cloud/alicloud/src/services/awss\awss.c **** {
  15              		.loc 1 180 1
  16              		.cfi_startproc
  17 0000 17030000 		call	t0,__riscv_save_1
  17      E7020300 
  18              		.cfi_offset 8, -8
  19              		.cfi_offset 1, -4
  20              		.cfi_def_cfa_offset 16
 181:C:/Users/stapi/OneDrive/Desktop/GD32VW553/V1_MQTT_OK/GD32VW55X_Wifi_BLE_SDK/GD32VW55x_RELEASE_V1.0.2/MSDK/cloud/alicloud/src/services/awss\awss.c ****     if (NULL != press_timer) {
  21              		.loc 1 181 5
  22              		.loc 1 181 14 is_stmt 0
  23 0008 37040000 		lui	s0,%hi(.LANCHOR0)
  24 000c 13040400 		addi	s0,s0,%lo(.LANCHOR0)
  25 0010 0840     		lw	a0,0(s0)
  26              		.loc 1 181 8
  27 0012 19C5     		beq	a0,zero,.L2
 182:C:/Users/stapi/OneDrive/Desktop/GD32VW553/V1_MQTT_OK/GD32VW55X_Wifi_BLE_SDK/GD32VW55x_RELEASE_V1.0.2/MSDK/cloud/alicloud/src/services/awss\awss.c ****         awss_stop_timer(press_timer);
  28              		.loc 1 182 9 is_stmt 1
  29 0014 97000000 		call	awss_stop_timer
  29      E7800000 
  30              	.LVL0:
 183:C:/Users/stapi/OneDrive/Desktop/GD32VW553/V1_MQTT_OK/GD32VW55X_Wifi_BLE_SDK/GD32VW55x_RELEASE_V1.0.2/MSDK/cloud/alicloud/src/services/awss\awss.c ****         press_timer = NULL;
  31              		.loc 1 183 9
  32              		.loc 1 183 21 is_stmt 0
  33 001c 23200400 		sw	zero,0(s0)
  34              	.L2:
 184:C:/Users/stapi/OneDrive/Desktop/GD32VW553/V1_MQTT_OK/GD32VW55X_Wifi_BLE_SDK/GD32VW55x_RELEASE_V1.0.2/MSDK/cloud/alicloud/src/services/awss\awss.c ****     }
 185:C:/Users/stapi/OneDrive/Desktop/GD32VW553/V1_MQTT_OK/GD32VW55X_Wifi_BLE_SDK/GD32VW55x_RELEASE_V1.0.2/MSDK/cloud/alicloud/src/services/awss\awss.c **** 
 186:C:/Users/stapi/OneDrive/Desktop/GD32VW553/V1_MQTT_OK/GD32VW55X_Wifi_BLE_SDK/GD32VW55x_RELEASE_V1.0.2/MSDK/cloud/alicloud/src/services/awss\awss.c ****     if (g_user_press) {
  35              		.loc 1 186 5 is_stmt 1
  36              		.loc 1 186 9 is_stmt 0
  37 0020 B7070000 		lui	a5,%hi(.LANCHOR1)
  38              		.loc 1 186 8
  39 0024 03C70700 		lbu	a4,%lo(.LANCHOR1)(a5)
  40 0028 13840700 		addi	s0,a5,%lo(.LANCHOR1)
  41 002c 19C7     		beq	a4,zero,.L3
 187:C:/Users/stapi/OneDrive/Desktop/GD32VW553/V1_MQTT_OK/GD32VW55X_Wifi_BLE_SDK/GD32VW55x_RELEASE_V1.0.2/MSDK/cloud/alicloud/src/services/awss\awss.c ****         awss_event_post(IOTX_AWSS_ENABLE_TIMEOUT);
  42              		.loc 1 187 9 is_stmt 1
  43 002e 0565     		li	a0,4096
  44 0030 4105     		addi	a0,a0,16
  45 0032 97000000 		call	awss_event_post
  45      E7800000 
  46              	.LVL1:
  47              	.L3:
 188:C:/Users/stapi/OneDrive/Desktop/GD32VW553/V1_MQTT_OK/GD32VW55X_Wifi_BLE_SDK/GD32VW55x_RELEASE_V1.0.2/MSDK/cloud/alicloud/src/services/awss\awss.c ****     }
 189:C:/Users/stapi/OneDrive/Desktop/GD32VW553/V1_MQTT_OK/GD32VW55X_Wifi_BLE_SDK/GD32VW55x_RELEASE_V1.0.2/MSDK/cloud/alicloud/src/services/awss\awss.c ****     g_user_press = 0;
  48              		.loc 1 189 5
  49              		.loc 1 189 18 is_stmt 0
  50 003a 23000400 		sb	zero,0(s0)
 190:C:/Users/stapi/OneDrive/Desktop/GD32VW553/V1_MQTT_OK/GD32VW55X_Wifi_BLE_SDK/GD32VW55x_RELEASE_V1.0.2/MSDK/cloud/alicloud/src/services/awss\awss.c **** }
  51              		.loc 1 190 1
  52 003e 17030000 		tail	__riscv_restore_1
  52      67000300 
  53              		.cfi_restore 8
  54              		.cfi_restore 1
  55              		.cfi_def_cfa_offset 0
  56              		.cfi_endproc
  57              	.LFE52:
  59              		.section	.text.awss_success_notify,"ax",@progbits
  60              		.align	1
  61              		.globl	awss_success_notify
  63              	awss_success_notify:
  64              	.LFB49:
  34:C:/Users/stapi/OneDrive/Desktop/GD32VW553/V1_MQTT_OK/GD32VW55X_Wifi_BLE_SDK/GD32VW55x_RELEASE_V1.0.2/MSDK/cloud/alicloud/src/services/awss\awss.c ****     g_user_press = 0;
  65              		.loc 1 34 1 is_stmt 1
  66              		.cfi_startproc
  67 0000 17030000 		call	t0,__riscv_save_0
  67      E7020300 
  68              		.cfi_offset 1, -4
  69              		.cfi_def_cfa_offset 16
  35:C:/Users/stapi/OneDrive/Desktop/GD32VW553/V1_MQTT_OK/GD32VW55X_Wifi_BLE_SDK/GD32VW55x_RELEASE_V1.0.2/MSDK/cloud/alicloud/src/services/awss\awss.c ****     awss_press_timeout();
  70              		.loc 1 35 5
  35:C:/Users/stapi/OneDrive/Desktop/GD32VW553/V1_MQTT_OK/GD32VW55X_Wifi_BLE_SDK/GD32VW55x_RELEASE_V1.0.2/MSDK/cloud/alicloud/src/services/awss\awss.c ****     awss_press_timeout();
  71              		.loc 1 35 18 is_stmt 0
  72 0008 B7070000 		lui	a5,%hi(.LANCHOR1)
  73 000c 23800700 		sb	zero,%lo(.LANCHOR1)(a5)
  36:C:/Users/stapi/OneDrive/Desktop/GD32VW553/V1_MQTT_OK/GD32VW55X_Wifi_BLE_SDK/GD32VW55x_RELEASE_V1.0.2/MSDK/cloud/alicloud/src/services/awss\awss.c **** 
  74              		.loc 1 36 5 is_stmt 1
  75 0010 97000000 		call	awss_press_timeout
  75      E7800000 
  76              	.LVL2:
  38:C:/Users/stapi/OneDrive/Desktop/GD32VW553/V1_MQTT_OK/GD32VW55X_Wifi_BLE_SDK/GD32VW55x_RELEASE_V1.0.2/MSDK/cloud/alicloud/src/services/awss\awss.c ****     awss_suc_notify_stop();
  77              		.loc 1 38 5
  78 0018 2145     		li	a0,8
  79 001a 97000000 		call	awss_cmp_local_init
  79      E7800000 
  80              	.LVL3:
  39:C:/Users/stapi/OneDrive/Desktop/GD32VW553/V1_MQTT_OK/GD32VW55X_Wifi_BLE_SDK/GD32VW55x_RELEASE_V1.0.2/MSDK/cloud/alicloud/src/services/awss\awss.c ****     awss_suc_notify();
  81              		.loc 1 39 5
  82 0022 97000000 		call	awss_suc_notify_stop
  82      E7800000 
  83              	.LVL4:
  40:C:/Users/stapi/OneDrive/Desktop/GD32VW553/V1_MQTT_OK/GD32VW55X_Wifi_BLE_SDK/GD32VW55x_RELEASE_V1.0.2/MSDK/cloud/alicloud/src/services/awss\awss.c ****     awss_start_connectap_monitor();
  84              		.loc 1 40 5
  85 002a 97000000 		call	awss_suc_notify
  85      E7800000 
  86              	.LVL5:
  41:C:/Users/stapi/OneDrive/Desktop/GD32VW553/V1_MQTT_OK/GD32VW55X_Wifi_BLE_SDK/GD32VW55x_RELEASE_V1.0.2/MSDK/cloud/alicloud/src/services/awss\awss.c ****     AWSS_DISP_STATIS();
  87              		.loc 1 41 5
  88 0032 97000000 		call	awss_start_connectap_monitor
  88      E7800000 
  89              	.LVL6:
  42:C:/Users/stapi/OneDrive/Desktop/GD32VW553/V1_MQTT_OK/GD32VW55X_Wifi_BLE_SDK/GD32VW55x_RELEASE_V1.0.2/MSDK/cloud/alicloud/src/services/awss\awss.c ****     return 0;
  90              		.loc 1 42 5
  91 003a 97000000 		call	awss_disp_statis
  91      E7800000 
  92              	.LVL7:
  43:C:/Users/stapi/OneDrive/Desktop/GD32VW553/V1_MQTT_OK/GD32VW55X_Wifi_BLE_SDK/GD32VW55x_RELEASE_V1.0.2/MSDK/cloud/alicloud/src/services/awss\awss.c **** }
  93              		.loc 1 43 5
  44:C:/Users/stapi/OneDrive/Desktop/GD32VW553/V1_MQTT_OK/GD32VW55X_Wifi_BLE_SDK/GD32VW55x_RELEASE_V1.0.2/MSDK/cloud/alicloud/src/services/awss\awss.c **** 
  94              		.loc 1 44 1 is_stmt 0
  95 0042 0145     		li	a0,0
  96 0044 17030000 		tail	__riscv_restore_0
  96      67000300 
  97              		.cfi_restore 1
  98              		.cfi_def_cfa_offset 0
  99              		.cfi_endproc
 100              	.LFE49:
 102              		.section	.rodata.awss_start.str1.4,"aMS",@progbits,1
 103              		.align	2
 104              	.LC0:
 105 0000 61777373 		.string	"awss already running"
 105      20616C72 
 105      65616479 
 105      2072756E 
 105      6E696E67 
 106 0015 000000   		.align	2
 107              	.LC1:
 108 0018 61777373 		.string	"awss stopped in %s"
 108      2073746F 
 108      70706564 
 108      20696E20 
 108      257300
 109              		.section	.text.awss_start,"ax",@progbits
 110              		.align	1
 111              		.globl	awss_start
 113              	awss_start:
 114              	.LFB50:
  47:C:/Users/stapi/OneDrive/Desktop/GD32VW553/V1_MQTT_OK/GD32VW55X_Wifi_BLE_SDK/GD32VW55x_RELEASE_V1.0.2/MSDK/cloud/alicloud/src/services/awss\awss.c ****     if (awss_stopped == 0) {
 115              		.loc 1 47 1 is_stmt 1
 116              		.cfi_startproc
 117 0000 17030000 		call	t0,__riscv_save_1
 117      E7020300 
 118              		.cfi_offset 8, -8
 119              		.cfi_offset 1, -4
 120              		.cfi_def_cfa_offset 16
  48:C:/Users/stapi/OneDrive/Desktop/GD32VW553/V1_MQTT_OK/GD32VW55X_Wifi_BLE_SDK/GD32VW55x_RELEASE_V1.0.2/MSDK/cloud/alicloud/src/services/awss\awss.c ****         dump_awss_status(STATE_WIFI_IN_PROGRESS, "awss already running");
 121              		.loc 1 48 5
  48:C:/Users/stapi/OneDrive/Desktop/GD32VW553/V1_MQTT_OK/GD32VW55X_Wifi_BLE_SDK/GD32VW55x_RELEASE_V1.0.2/MSDK/cloud/alicloud/src/services/awss\awss.c ****         dump_awss_status(STATE_WIFI_IN_PROGRESS, "awss already running");
 122              		.loc 1 48 22 is_stmt 0
 123 0008 37040000 		lui	s0,%hi(.LANCHOR2)
  48:C:/Users/stapi/OneDrive/Desktop/GD32VW553/V1_MQTT_OK/GD32VW55X_Wifi_BLE_SDK/GD32VW55x_RELEASE_V1.0.2/MSDK/cloud/alicloud/src/services/awss\awss.c ****         dump_awss_status(STATE_WIFI_IN_PROGRESS, "awss already running");
 124              		.loc 1 48 8
 125 000c 83470400 		lbu	a5,%lo(.LANCHOR2)(s0)
 126 0010 95E3     		bne	a5,zero,.L14
  49:C:/Users/stapi/OneDrive/Desktop/GD32VW553/V1_MQTT_OK/GD32VW55X_Wifi_BLE_SDK/GD32VW55x_RELEASE_V1.0.2/MSDK/cloud/alicloud/src/services/awss\awss.c ****         return STATE_WIFI_IN_PROGRESS;
 127              		.loc 1 49 9 is_stmt 1
 128 0012 37060000 		lui	a2,%hi(.LC0)
 129 0016 13060600 		addi	a2,a2,%lo(.LC0)
 130 001a 9305A0BF 		li	a1,-1030
 131 001e 6D45     		li	a0,27
 132 0020 97000000 		call	iotx_state_event
 132      E7800000 
 133              	.LVL8:
  50:C:/Users/stapi/OneDrive/Desktop/GD32VW553/V1_MQTT_OK/GD32VW55X_Wifi_BLE_SDK/GD32VW55x_RELEASE_V1.0.2/MSDK/cloud/alicloud/src/services/awss\awss.c ****     }
 134              		.loc 1 50 9
  50:C:/Users/stapi/OneDrive/Desktop/GD32VW553/V1_MQTT_OK/GD32VW55X_Wifi_BLE_SDK/GD32VW55x_RELEASE_V1.0.2/MSDK/cloud/alicloud/src/services/awss\awss.c ****     }
 135              		.loc 1 50 16 is_stmt 0
 136 0028 1305A0BF 		li	a0,-1030
 137              	.L13:
 159:C:/Users/stapi/OneDrive/Desktop/GD32VW553/V1_MQTT_OK/GD32VW55X_Wifi_BLE_SDK/GD32VW55x_RELEASE_V1.0.2/MSDK/cloud/alicloud/src/services/awss\awss.c **** 
 138              		.loc 1 159 1
 139 002c 17030000 		tail	__riscv_restore_1
 139      67000300 
 140              		.cfi_remember_state
 141              		.cfi_restore 8
 142              		.cfi_restore 1
 143              		.cfi_def_cfa_offset 0
 144              	.L14:
 145              		.cfi_restore_state
 146 0034 13040400 		addi	s0,s0,%lo(.LANCHOR2)
  53:C:/Users/stapi/OneDrive/Desktop/GD32VW553/V1_MQTT_OK/GD32VW55X_Wifi_BLE_SDK/GD32VW55x_RELEASE_V1.0.2/MSDK/cloud/alicloud/src/services/awss\awss.c ****     awss_event_post(IOTX_AWSS_START);
 147              		.loc 1 53 5 is_stmt 1
  54:C:/Users/stapi/OneDrive/Desktop/GD32VW553/V1_MQTT_OK/GD32VW55X_Wifi_BLE_SDK/GD32VW55x_RELEASE_V1.0.2/MSDK/cloud/alicloud/src/services/awss\awss.c **** 
 148              		.loc 1 54 5 is_stmt 0
 149 0038 0565     		li	a0,4096
  53:C:/Users/stapi/OneDrive/Desktop/GD32VW553/V1_MQTT_OK/GD32VW55X_Wifi_BLE_SDK/GD32VW55x_RELEASE_V1.0.2/MSDK/cloud/alicloud/src/services/awss\awss.c ****     awss_event_post(IOTX_AWSS_START);
 150              		.loc 1 53 18
 151 003a 23000400 		sb	zero,0(s0)
  54:C:/Users/stapi/OneDrive/Desktop/GD32VW553/V1_MQTT_OK/GD32VW55X_Wifi_BLE_SDK/GD32VW55x_RELEASE_V1.0.2/MSDK/cloud/alicloud/src/services/awss\awss.c **** 
 152              		.loc 1 54 5 is_stmt 1
 153 003e 97000000 		call	awss_event_post
 153      E7800000 
 154              	.LVL9:
 155              	.L17:
  56:C:/Users/stapi/OneDrive/Desktop/GD32VW553/V1_MQTT_OK/GD32VW55X_Wifi_BLE_SDK/GD32VW55x_RELEASE_V1.0.2/MSDK/cloud/alicloud/src/services/awss\awss.c ****         __awss_start();
 156              		.loc 1 56 5
  57:C:/Users/stapi/OneDrive/Desktop/GD32VW553/V1_MQTT_OK/GD32VW55X_Wifi_BLE_SDK/GD32VW55x_RELEASE_V1.0.2/MSDK/cloud/alicloud/src/services/awss\awss.c **** #if defined(AWSS_SUPPORT_ADHA) || defined(AWSS_SUPPORT_AHA)
 157              		.loc 1 57 9
 158 0046 97000000 		call	__awss_start
 158      E7800000 
 159              	.LVL10:
 135:C:/Users/stapi/OneDrive/Desktop/GD32VW553/V1_MQTT_OK/GD32VW55X_Wifi_BLE_SDK/GD32VW55x_RELEASE_V1.0.2/MSDK/cloud/alicloud/src/services/awss\awss.c ****             break;
 160              		.loc 1 135 9
 135:C:/Users/stapi/OneDrive/Desktop/GD32VW553/V1_MQTT_OK/GD32VW55X_Wifi_BLE_SDK/GD32VW55x_RELEASE_V1.0.2/MSDK/cloud/alicloud/src/services/awss\awss.c ****             break;
 161              		.loc 1 135 12 is_stmt 0
 162 004e 83470400 		lbu	a5,0(s0)
 163 0052 9DC3     		beq	a5,zero,.L16
 164              	.L18:
 145:C:/Users/stapi/OneDrive/Desktop/GD32VW553/V1_MQTT_OK/GD32VW55X_Wifi_BLE_SDK/GD32VW55x_RELEASE_V1.0.2/MSDK/cloud/alicloud/src/services/awss\awss.c ****         return STATE_WIFI_FORCE_STOPPED;
 165              		.loc 1 145 9 is_stmt 1
 166 0054 B7060000 		lui	a3,%hi(.LANCHOR3)
 167 0058 37060000 		lui	a2,%hi(.LC1)
 168 005c 93860600 		addi	a3,a3,%lo(.LANCHOR3)
 169 0060 13060600 		addi	a2,a2,%lo(.LC1)
 170 0064 930590BF 		li	a1,-1031
 171 0068 6D45     		li	a0,27
 172 006a 97000000 		call	iotx_state_event
 172      E7800000 
 173              	.LVL11:
 146:C:/Users/stapi/OneDrive/Desktop/GD32VW553/V1_MQTT_OK/GD32VW55X_Wifi_BLE_SDK/GD32VW55x_RELEASE_V1.0.2/MSDK/cloud/alicloud/src/services/awss\awss.c ****     }
 174              		.loc 1 146 9
 146:C:/Users/stapi/OneDrive/Desktop/GD32VW553/V1_MQTT_OK/GD32VW55X_Wifi_BLE_SDK/GD32VW55x_RELEASE_V1.0.2/MSDK/cloud/alicloud/src/services/awss\awss.c ****     }
 175              		.loc 1 146 16 is_stmt 0
 176 0072 130590BF 		li	a0,-1031
 177 0076 5DBF     		j	.L13
 178              	.L16:
 139:C:/Users/stapi/OneDrive/Desktop/GD32VW553/V1_MQTT_OK/GD32VW55X_Wifi_BLE_SDK/GD32VW55x_RELEASE_V1.0.2/MSDK/cloud/alicloud/src/services/awss\awss.c ****             break;
 179              		.loc 1 139 9 is_stmt 1
 180              	.LBB6:
 181              	.LBB7:
 182              		.file 2 "..\\..\\..\\..\\cloud\\alicloud\\src\\services\\dev_bind\\os/os.h"
   1:..\..\..\..\cloud\alicloud\src\services\dev_bind\os/os.h **** /*
   2:..\..\..\..\cloud\alicloud\src\services\dev_bind\os/os.h ****  * Copyright (C) 2015-2018 Alibaba Group Holding Limited
   3:..\..\..\..\cloud\alicloud\src\services\dev_bind\os/os.h ****  */
   4:..\..\..\..\cloud\alicloud\src\services\dev_bind\os/os.h **** 
   5:..\..\..\..\cloud\alicloud\src\services\dev_bind\os/os.h **** #ifndef __AWSS_OS_H__
   6:..\..\..\..\cloud\alicloud\src\services\dev_bind\os/os.h **** #define __AWSS_OS_H__
   7:..\..\..\..\cloud\alicloud\src\services\dev_bind\os/os.h **** 
   8:..\..\..\..\cloud\alicloud\src\services\dev_bind\os/os.h **** #ifdef __cplusplus
   9:..\..\..\..\cloud\alicloud\src\services\dev_bind\os/os.h **** extern "C" {
  10:..\..\..\..\cloud\alicloud\src\services\dev_bind\os/os.h **** #endif
  11:..\..\..\..\cloud\alicloud\src\services\dev_bind\os/os.h **** #include <ctype.h>
  12:..\..\..\..\cloud\alicloud\src\services\dev_bind\os/os.h **** #include "iot_import.h"
  13:..\..\..\..\cloud\alicloud\src\services\dev_bind\os/os.h **** #include "iot_export.h"
  14:..\..\..\..\cloud\alicloud\src\services\dev_bind\os/os.h **** #include "product/product.h"
  15:..\..\..\..\cloud\alicloud\src\services\dev_bind\os/os.h **** #include "platform.h"
  16:..\..\..\..\cloud\alicloud\src\services\dev_bind\os/os.h **** 
  17:..\..\..\..\cloud\alicloud\src\services\dev_bind\os/os.h **** /** @defgroup group_os os
  18:..\..\..\..\cloud\alicloud\src\services\dev_bind\os/os.h ****  *  @{
  19:..\..\..\..\cloud\alicloud\src\services\dev_bind\os/os.h ****  */
  20:..\..\..\..\cloud\alicloud\src\services\dev_bind\os/os.h **** 
  21:..\..\..\..\cloud\alicloud\src\services\dev_bind\os/os.h **** #define OS_MAX_SSID_LEN         PLATFORM_MAX_SSID_LEN
  22:..\..\..\..\cloud\alicloud\src\services\dev_bind\os/os.h **** #define OS_MAX_PASSWD_LEN       PLATFORM_MAX_PASSWD_LEN
  23:..\..\..\..\cloud\alicloud\src\services\dev_bind\os/os.h **** 
  24:..\..\..\..\cloud\alicloud\src\services\dev_bind\os/os.h **** #define OS_MAC_LEN              PLATFORM_MAC_LEN
  25:..\..\..\..\cloud\alicloud\src\services\dev_bind\os/os.h **** #define OS_IP_LEN               PLATFORM_IP_LEN
  26:..\..\..\..\cloud\alicloud\src\services\dev_bind\os/os.h **** #define OS_ETH_ALEN             ETH_ALEN
  27:..\..\..\..\cloud\alicloud\src\services\dev_bind\os/os.h **** 
  28:..\..\..\..\cloud\alicloud\src\services\dev_bind\os/os.h **** #define OS_PRODUCT_KEY_LEN      PRODUCT_KEY_LEN
  29:..\..\..\..\cloud\alicloud\src\services\dev_bind\os/os.h **** #define OS_PRODUCT_SECRET_LEN   PRODUCT_SECRET_LEN
  30:..\..\..\..\cloud\alicloud\src\services\dev_bind\os/os.h **** #define OS_DEVICE_NAME_LEN      DEVICE_NAME_LEN
  31:..\..\..\..\cloud\alicloud\src\services\dev_bind\os/os.h **** #define OS_DEVICE_SECRET_LEN    DEVICE_SECRET_LEN
  32:..\..\..\..\cloud\alicloud\src\services\dev_bind\os/os.h **** 
  33:..\..\..\..\cloud\alicloud\src\services\dev_bind\os/os.h **** /***************************************** Misc Interface *****************************************
  34:..\..\..\..\cloud\alicloud\src\services\dev_bind\os/os.h **** 
  35:..\..\..\..\cloud\alicloud\src\services\dev_bind\os/os.h **** /** @defgroup group_misc misc
  36:..\..\..\..\cloud\alicloud\src\services\dev_bind\os/os.h ****  *  @{
  37:..\..\..\..\cloud\alicloud\src\services\dev_bind\os/os.h ****  */
  38:..\..\..\..\cloud\alicloud\src\services\dev_bind\os/os.h **** /**
  39:..\..\..\..\cloud\alicloud\src\services\dev_bind\os/os.h ****  * @brief .
  40:..\..\..\..\cloud\alicloud\src\services\dev_bind\os/os.h ****  *
  41:..\..\..\..\cloud\alicloud\src\services\dev_bind\os/os.h ****  * @param None.
  42:..\..\..\..\cloud\alicloud\src\services\dev_bind\os/os.h ****  * @return
  43:..\..\..\..\cloud\alicloud\src\services\dev_bind\os/os.h ****  * @verbatim
  44:..\..\..\..\cloud\alicloud\src\services\dev_bind\os/os.h ****  * = 0, This platform is little endian.
  45:..\..\..\..\cloud\alicloud\src\services\dev_bind\os/os.h ****  * = 1, This platform is big endian.
  46:..\..\..\..\cloud\alicloud\src\services\dev_bind\os/os.h ****  * @endverbatim
  47:..\..\..\..\cloud\alicloud\src\services\dev_bind\os/os.h ****  * @see None.
  48:..\..\..\..\cloud\alicloud\src\services\dev_bind\os/os.h ****  * @note None.
  49:..\..\..\..\cloud\alicloud\src\services\dev_bind\os/os.h ****  */
  50:..\..\..\..\cloud\alicloud\src\services\dev_bind\os/os.h **** static inline int os_is_big_endian(void)
  51:..\..\..\..\cloud\alicloud\src\services\dev_bind\os/os.h **** {
  52:..\..\..\..\cloud\alicloud\src\services\dev_bind\os/os.h ****     uint32_t data = 0xFF000000;
  53:..\..\..\..\cloud\alicloud\src\services\dev_bind\os/os.h **** 
  54:..\..\..\..\cloud\alicloud\src\services\dev_bind\os/os.h ****     if (0xFF == *(uint8_t *) & data) {
  55:..\..\..\..\cloud\alicloud\src\services\dev_bind\os/os.h ****         return 1;                                    //big endian
  56:..\..\..\..\cloud\alicloud\src\services\dev_bind\os/os.h ****     }
  57:..\..\..\..\cloud\alicloud\src\services\dev_bind\os/os.h **** 
  58:..\..\..\..\cloud\alicloud\src\services\dev_bind\os/os.h ****     return 0;                                        //little endian
  59:..\..\..\..\cloud\alicloud\src\services\dev_bind\os/os.h **** }
  60:..\..\..\..\cloud\alicloud\src\services\dev_bind\os/os.h **** 
  61:..\..\..\..\cloud\alicloud\src\services\dev_bind\os/os.h **** /**
  62:..\..\..\..\cloud\alicloud\src\services\dev_bind\os/os.h ****  * @brief Convert the data from byte order of current CPU(the "host") to big-endian.
  63:..\..\..\..\cloud\alicloud\src\services\dev_bind\os/os.h ****    The size of the data is 16 bits.
  64:..\..\..\..\cloud\alicloud\src\services\dev_bind\os/os.h ****  *
  65:..\..\..\..\cloud\alicloud\src\services\dev_bind\os/os.h ****  * @param[in] data @n Data to be converted.
  66:..\..\..\..\cloud\alicloud\src\services\dev_bind\os/os.h ****  * @return Conversion result.
  67:..\..\..\..\cloud\alicloud\src\services\dev_bind\os/os.h ****  * @see None.
  68:..\..\..\..\cloud\alicloud\src\services\dev_bind\os/os.h ****  * @note None.
  69:..\..\..\..\cloud\alicloud\src\services\dev_bind\os/os.h ****  */
  70:..\..\..\..\cloud\alicloud\src\services\dev_bind\os/os.h **** uint16_t os_htobe16(uint16_t data);
  71:..\..\..\..\cloud\alicloud\src\services\dev_bind\os/os.h **** 
  72:..\..\..\..\cloud\alicloud\src\services\dev_bind\os/os.h **** /**
  73:..\..\..\..\cloud\alicloud\src\services\dev_bind\os/os.h ****  * @brief Convert the data from host to little-endian.
  74:..\..\..\..\cloud\alicloud\src\services\dev_bind\os/os.h ****    The size of the data is 16 bits.
  75:..\..\..\..\cloud\alicloud\src\services\dev_bind\os/os.h ****  *
  76:..\..\..\..\cloud\alicloud\src\services\dev_bind\os/os.h ****  * @param[in] data @n Data to be converted.
  77:..\..\..\..\cloud\alicloud\src\services\dev_bind\os/os.h ****  * @return Conversion result.
  78:..\..\..\..\cloud\alicloud\src\services\dev_bind\os/os.h ****  * @see None.
  79:..\..\..\..\cloud\alicloud\src\services\dev_bind\os/os.h ****  * @note None.
  80:..\..\..\..\cloud\alicloud\src\services\dev_bind\os/os.h ****  */
  81:..\..\..\..\cloud\alicloud\src\services\dev_bind\os/os.h **** uint16_t os_htole16(uint16_t data);
  82:..\..\..\..\cloud\alicloud\src\services\dev_bind\os/os.h **** 
  83:..\..\..\..\cloud\alicloud\src\services\dev_bind\os/os.h **** /**
  84:..\..\..\..\cloud\alicloud\src\services\dev_bind\os/os.h ****  * @brief Convert the data from big-endian to host.
  85:..\..\..\..\cloud\alicloud\src\services\dev_bind\os/os.h ****    The size of the data is 16 bits.
  86:..\..\..\..\cloud\alicloud\src\services\dev_bind\os/os.h ****  *
  87:..\..\..\..\cloud\alicloud\src\services\dev_bind\os/os.h ****  * @param[in] data @n Data to be converted.
  88:..\..\..\..\cloud\alicloud\src\services\dev_bind\os/os.h ****  * @return Conversion result.
  89:..\..\..\..\cloud\alicloud\src\services\dev_bind\os/os.h ****  * @see None.
  90:..\..\..\..\cloud\alicloud\src\services\dev_bind\os/os.h ****  * @note None.
  91:..\..\..\..\cloud\alicloud\src\services\dev_bind\os/os.h ****  */
  92:..\..\..\..\cloud\alicloud\src\services\dev_bind\os/os.h **** uint16_t os_be16toh(uint16_t data);
  93:..\..\..\..\cloud\alicloud\src\services\dev_bind\os/os.h **** 
  94:..\..\..\..\cloud\alicloud\src\services\dev_bind\os/os.h **** /**
  95:..\..\..\..\cloud\alicloud\src\services\dev_bind\os/os.h ****  * @brief Convert the data from little-endian to host.
  96:..\..\..\..\cloud\alicloud\src\services\dev_bind\os/os.h ****    The size of the data is 16 bits.
  97:..\..\..\..\cloud\alicloud\src\services\dev_bind\os/os.h ****  *
  98:..\..\..\..\cloud\alicloud\src\services\dev_bind\os/os.h ****  * @param[in] data @n Data to be converted.
  99:..\..\..\..\cloud\alicloud\src\services\dev_bind\os/os.h ****  * @return Conversion result.
 100:..\..\..\..\cloud\alicloud\src\services\dev_bind\os/os.h ****  * @see None.
 101:..\..\..\..\cloud\alicloud\src\services\dev_bind\os/os.h ****  * @note None.
 102:..\..\..\..\cloud\alicloud\src\services\dev_bind\os/os.h ****  */
 103:..\..\..\..\cloud\alicloud\src\services\dev_bind\os/os.h **** uint16_t os_le16toh(uint16_t data);
 104:..\..\..\..\cloud\alicloud\src\services\dev_bind\os/os.h **** 
 105:..\..\..\..\cloud\alicloud\src\services\dev_bind\os/os.h **** /**
 106:..\..\..\..\cloud\alicloud\src\services\dev_bind\os/os.h ****  * @brief Convert the data from little-endian to host.
 107:..\..\..\..\cloud\alicloud\src\services\dev_bind\os/os.h ****    The size of the data is 32 bits.
 108:..\..\..\..\cloud\alicloud\src\services\dev_bind\os/os.h ****  *
 109:..\..\..\..\cloud\alicloud\src\services\dev_bind\os/os.h ****  * @param[in] data @n Data to be converted.
 110:..\..\..\..\cloud\alicloud\src\services\dev_bind\os/os.h ****  * @return Conversion result.
 111:..\..\..\..\cloud\alicloud\src\services\dev_bind\os/os.h ****  * @see None.
 112:..\..\..\..\cloud\alicloud\src\services\dev_bind\os/os.h ****  * @note None.
 113:..\..\..\..\cloud\alicloud\src\services\dev_bind\os/os.h ****  */
 114:..\..\..\..\cloud\alicloud\src\services\dev_bind\os/os.h **** uint32_t os_le32toh(uint32_t data);
 115:..\..\..\..\cloud\alicloud\src\services\dev_bind\os/os.h **** 
 116:..\..\..\..\cloud\alicloud\src\services\dev_bind\os/os.h **** /**
 117:..\..\..\..\cloud\alicloud\src\services\dev_bind\os/os.h ****  * @brief Convert the data from host to big-endian.
 118:..\..\..\..\cloud\alicloud\src\services\dev_bind\os/os.h ****    The size of the data is 64 bits.
 119:..\..\..\..\cloud\alicloud\src\services\dev_bind\os/os.h ****  *
 120:..\..\..\..\cloud\alicloud\src\services\dev_bind\os/os.h ****  * @param[in] data @n Data to be converted.
 121:..\..\..\..\cloud\alicloud\src\services\dev_bind\os/os.h ****  * @return Conversion result.
 122:..\..\..\..\cloud\alicloud\src\services\dev_bind\os/os.h ****  * @see None.
 123:..\..\..\..\cloud\alicloud\src\services\dev_bind\os/os.h ****  * @note None.
 124:..\..\..\..\cloud\alicloud\src\services\dev_bind\os/os.h ****  */
 125:..\..\..\..\cloud\alicloud\src\services\dev_bind\os/os.h **** //uint64_t os_htobe64(uint64_t data);
 126:..\..\..\..\cloud\alicloud\src\services\dev_bind\os/os.h **** 
 127:..\..\..\..\cloud\alicloud\src\services\dev_bind\os/os.h **** /**
 128:..\..\..\..\cloud\alicloud\src\services\dev_bind\os/os.h ****  * @brief Convert the data from host to little-endian.
 129:..\..\..\..\cloud\alicloud\src\services\dev_bind\os/os.h ****    The size of the data is 64 bits.
 130:..\..\..\..\cloud\alicloud\src\services\dev_bind\os/os.h ****  *
 131:..\..\..\..\cloud\alicloud\src\services\dev_bind\os/os.h ****  * @param[in] data @n Data to be converted.
 132:..\..\..\..\cloud\alicloud\src\services\dev_bind\os/os.h ****  * @return Conversion result.
 133:..\..\..\..\cloud\alicloud\src\services\dev_bind\os/os.h ****  * @see None.
 134:..\..\..\..\cloud\alicloud\src\services\dev_bind\os/os.h ****  * @note None.
 135:..\..\..\..\cloud\alicloud\src\services\dev_bind\os/os.h ****  */
 136:..\..\..\..\cloud\alicloud\src\services\dev_bind\os/os.h **** //uint64_t os_htole64(uint64_t data);
 137:..\..\..\..\cloud\alicloud\src\services\dev_bind\os/os.h **** 
 138:..\..\..\..\cloud\alicloud\src\services\dev_bind\os/os.h **** /**
 139:..\..\..\..\cloud\alicloud\src\services\dev_bind\os/os.h ****  * @brief Convert the data from big-endian to host.
 140:..\..\..\..\cloud\alicloud\src\services\dev_bind\os/os.h ****    The size of the data is 64 bits.
 141:..\..\..\..\cloud\alicloud\src\services\dev_bind\os/os.h ****  *
 142:..\..\..\..\cloud\alicloud\src\services\dev_bind\os/os.h ****  * @param[in] data @n Data to be converted.
 143:..\..\..\..\cloud\alicloud\src\services\dev_bind\os/os.h ****  * @return Conversion result.
 144:..\..\..\..\cloud\alicloud\src\services\dev_bind\os/os.h ****  * @see None.
 145:..\..\..\..\cloud\alicloud\src\services\dev_bind\os/os.h ****  * @note None.
 146:..\..\..\..\cloud\alicloud\src\services\dev_bind\os/os.h ****  */
 147:..\..\..\..\cloud\alicloud\src\services\dev_bind\os/os.h **** //uint64_t os_be64toh(uint64_t data);
 148:..\..\..\..\cloud\alicloud\src\services\dev_bind\os/os.h **** 
 149:..\..\..\..\cloud\alicloud\src\services\dev_bind\os/os.h **** /**
 150:..\..\..\..\cloud\alicloud\src\services\dev_bind\os/os.h ****  * @brief Convert the data from little-endian to host.
 151:..\..\..\..\cloud\alicloud\src\services\dev_bind\os/os.h ****    The size of the data is 64 bits.
 152:..\..\..\..\cloud\alicloud\src\services\dev_bind\os/os.h ****  *
 153:..\..\..\..\cloud\alicloud\src\services\dev_bind\os/os.h ****  * @param[in] data @n Data to be converted.
 154:..\..\..\..\cloud\alicloud\src\services\dev_bind\os/os.h ****  * @return Conversion result.
 155:..\..\..\..\cloud\alicloud\src\services\dev_bind\os/os.h ****  * @see None.
 156:..\..\..\..\cloud\alicloud\src\services\dev_bind\os/os.h ****  * @note None.
 157:..\..\..\..\cloud\alicloud\src\services\dev_bind\os/os.h ****  */
 158:..\..\..\..\cloud\alicloud\src\services\dev_bind\os/os.h **** //uint64_t os_le64toh(uint64_t data);
 159:..\..\..\..\cloud\alicloud\src\services\dev_bind\os/os.h **** 
 160:..\..\..\..\cloud\alicloud\src\services\dev_bind\os/os.h **** /**
 161:..\..\..\..\cloud\alicloud\src\services\dev_bind\os/os.h ****  * @brief Get unaligned 16 bits data which is big-endian and convert to host byte order.
 162:..\..\..\..\cloud\alicloud\src\services\dev_bind\os/os.h ****  *
 163:..\..\..\..\cloud\alicloud\src\services\dev_bind\os/os.h ****  * @param[in] ptr @n The start address of the unaligned data.
 164:..\..\..\..\cloud\alicloud\src\services\dev_bind\os/os.h ****  * @return Result in host byte order.
 165:..\..\..\..\cloud\alicloud\src\services\dev_bind\os/os.h ****  * @see None.
 166:..\..\..\..\cloud\alicloud\src\services\dev_bind\os/os.h ****  * @note None.
 167:..\..\..\..\cloud\alicloud\src\services\dev_bind\os/os.h ****  */
 168:..\..\..\..\cloud\alicloud\src\services\dev_bind\os/os.h **** uint16_t os_get_unaligned_be16(uint8_t *ptr);
 169:..\..\..\..\cloud\alicloud\src\services\dev_bind\os/os.h **** 
 170:..\..\..\..\cloud\alicloud\src\services\dev_bind\os/os.h **** /**
 171:..\..\..\..\cloud\alicloud\src\services\dev_bind\os/os.h ****  * @brief Get unaligned 16 bits data which is little-endian and convert to host byte order.
 172:..\..\..\..\cloud\alicloud\src\services\dev_bind\os/os.h ****  *
 173:..\..\..\..\cloud\alicloud\src\services\dev_bind\os/os.h ****  * @param[in] ptr @n The start address of the unaligned data.
 174:..\..\..\..\cloud\alicloud\src\services\dev_bind\os/os.h ****  * @return Result in host byte order.
 175:..\..\..\..\cloud\alicloud\src\services\dev_bind\os/os.h ****  * @see None.
 176:..\..\..\..\cloud\alicloud\src\services\dev_bind\os/os.h ****  * @note None.
 177:..\..\..\..\cloud\alicloud\src\services\dev_bind\os/os.h ****  */
 178:..\..\..\..\cloud\alicloud\src\services\dev_bind\os/os.h **** uint16_t os_get_unaligned_le16(uint8_t *ptr);
 179:..\..\..\..\cloud\alicloud\src\services\dev_bind\os/os.h **** 
 180:..\..\..\..\cloud\alicloud\src\services\dev_bind\os/os.h **** /**
 181:..\..\..\..\cloud\alicloud\src\services\dev_bind\os/os.h ****  * @brief Get unaligned 32 bits data which is big-endian and convert to host byte order.
 182:..\..\..\..\cloud\alicloud\src\services\dev_bind\os/os.h ****  *
 183:..\..\..\..\cloud\alicloud\src\services\dev_bind\os/os.h ****  * @param[in] ptr @n The start address of the unaligned data.
 184:..\..\..\..\cloud\alicloud\src\services\dev_bind\os/os.h ****  * @return Result in host byte order.
 185:..\..\..\..\cloud\alicloud\src\services\dev_bind\os/os.h ****  * @see None.
 186:..\..\..\..\cloud\alicloud\src\services\dev_bind\os/os.h ****  * @note None.
 187:..\..\..\..\cloud\alicloud\src\services\dev_bind\os/os.h ****  */
 188:..\..\..\..\cloud\alicloud\src\services\dev_bind\os/os.h **** uint32_t os_get_unaligned_be32(uint8_t *ptr);
 189:..\..\..\..\cloud\alicloud\src\services\dev_bind\os/os.h **** 
 190:..\..\..\..\cloud\alicloud\src\services\dev_bind\os/os.h **** /**
 191:..\..\..\..\cloud\alicloud\src\services\dev_bind\os/os.h ****  * @brief Get unaligned 32 bits data which is little-endian and convert to host byte order.
 192:..\..\..\..\cloud\alicloud\src\services\dev_bind\os/os.h ****  *
 193:..\..\..\..\cloud\alicloud\src\services\dev_bind\os/os.h ****  * @param[in] ptr @n The start address of the unaligned data.
 194:..\..\..\..\cloud\alicloud\src\services\dev_bind\os/os.h ****  * @return Result in host byte order.
 195:..\..\..\..\cloud\alicloud\src\services\dev_bind\os/os.h ****  * @see None.
 196:..\..\..\..\cloud\alicloud\src\services\dev_bind\os/os.h ****  * @note None.
 197:..\..\..\..\cloud\alicloud\src\services\dev_bind\os/os.h ****  */
 198:..\..\..\..\cloud\alicloud\src\services\dev_bind\os/os.h **** uint32_t os_get_unaligned_le32(uint8_t *ptr);
 199:..\..\..\..\cloud\alicloud\src\services\dev_bind\os/os.h **** 
 200:..\..\..\..\cloud\alicloud\src\services\dev_bind\os/os.h **** /**
 201:..\..\..\..\cloud\alicloud\src\services\dev_bind\os/os.h ****  * @brief sleep thread itself.
 202:..\..\..\..\cloud\alicloud\src\services\dev_bind\os/os.h ****  *
 203:..\..\..\..\cloud\alicloud\src\services\dev_bind\os/os.h ****  * @param[in] ms @n the time interval for which execution is to be suspended, in milliseconds.
 204:..\..\..\..\cloud\alicloud\src\services\dev_bind\os/os.h ****  * @return None.
 205:..\..\..\..\cloud\alicloud\src\services\dev_bind\os/os.h ****  * @see None.
 206:..\..\..\..\cloud\alicloud\src\services\dev_bind\os/os.h ****  * @note None.
 207:..\..\..\..\cloud\alicloud\src\services\dev_bind\os/os.h ****  */
 208:..\..\..\..\cloud\alicloud\src\services\dev_bind\os/os.h **** static inline void os_msleep(_IN_ uint32_t ms)
 209:..\..\..\..\cloud\alicloud\src\services\dev_bind\os/os.h **** {
 210:..\..\..\..\cloud\alicloud\src\services\dev_bind\os/os.h ****     platform_msleep(ms);
 211:..\..\..\..\cloud\alicloud\src\services\dev_bind\os/os.h **** }
 212:..\..\..\..\cloud\alicloud\src\services\dev_bind\os/os.h **** 
 213:..\..\..\..\cloud\alicloud\src\services\dev_bind\os/os.h **** /**
 214:..\..\..\..\cloud\alicloud\src\services\dev_bind\os/os.h ****  * @brief sleep thread itself.
 215:..\..\..\..\cloud\alicloud\src\services\dev_bind\os/os.h ****  *
 216:..\..\..\..\cloud\alicloud\src\services\dev_bind\os/os.h ****  * @param[in] sec @n the time interval for which execution is to be suspended, in seconds.
 217:..\..\..\..\cloud\alicloud\src\services\dev_bind\os/os.h ****  * @return None.
 218:..\..\..\..\cloud\alicloud\src\services\dev_bind\os/os.h ****  * @see None.
 219:..\..\..\..\cloud\alicloud\src\services\dev_bind\os/os.h ****  * @note None.
 220:..\..\..\..\cloud\alicloud\src\services\dev_bind\os/os.h ****  */
 221:..\..\..\..\cloud\alicloud\src\services\dev_bind\os/os.h **** static inline void os_sleep(_IN_ uint32_t sec)
 222:..\..\..\..\cloud\alicloud\src\services\dev_bind\os/os.h **** {
 223:..\..\..\..\cloud\alicloud\src\services\dev_bind\os/os.h ****     platform_msleep(sec * 1000);
 224:..\..\..\..\cloud\alicloud\src\services\dev_bind\os/os.h **** }
 225:..\..\..\..\cloud\alicloud\src\services\dev_bind\os/os.h **** 
 226:..\..\..\..\cloud\alicloud\src\services\dev_bind\os/os.h **** /**
 227:..\..\..\..\cloud\alicloud\src\services\dev_bind\os/os.h ****  * @brief system reboot immediately.
 228:..\..\..\..\cloud\alicloud\src\services\dev_bind\os/os.h ****  *
 229:..\..\..\..\cloud\alicloud\src\services\dev_bind\os/os.h ****  * @return None.
 230:..\..\..\..\cloud\alicloud\src\services\dev_bind\os/os.h ****  * @see None.
 231:..\..\..\..\cloud\alicloud\src\services\dev_bind\os/os.h ****  * @note None.
 232:..\..\..\..\cloud\alicloud\src\services\dev_bind\os/os.h ****  */
 233:..\..\..\..\cloud\alicloud\src\services\dev_bind\os/os.h **** static inline void os_reboot()
 234:..\..\..\..\cloud\alicloud\src\services\dev_bind\os/os.h **** {
 235:..\..\..\..\cloud\alicloud\src\services\dev_bind\os/os.h ****     platform_reboot();
 236:..\..\..\..\cloud\alicloud\src\services\dev_bind\os/os.h **** }
 237:..\..\..\..\cloud\alicloud\src\services\dev_bind\os/os.h **** 
 238:..\..\..\..\cloud\alicloud\src\services\dev_bind\os/os.h **** /** @} *///end of os_misc
 239:..\..\..\..\cloud\alicloud\src\services\dev_bind\os/os.h **** 
 240:..\..\..\..\cloud\alicloud\src\services\dev_bind\os/os.h **** /***************************************** mutex Interface ****************************************
 241:..\..\..\..\cloud\alicloud\src\services\dev_bind\os/os.h **** 
 242:..\..\..\..\cloud\alicloud\src\services\dev_bind\os/os.h **** /** @defgroup group_os_mutex mutex
 243:..\..\..\..\cloud\alicloud\src\services\dev_bind\os/os.h ****  *  @{
 244:..\..\..\..\cloud\alicloud\src\services\dev_bind\os/os.h ****  */
 245:..\..\..\..\cloud\alicloud\src\services\dev_bind\os/os.h **** 
 246:..\..\..\..\cloud\alicloud\src\services\dev_bind\os/os.h **** /**
 247:..\..\..\..\cloud\alicloud\src\services\dev_bind\os/os.h ****  * @brief Create a mutex.
 248:..\..\..\..\cloud\alicloud\src\services\dev_bind\os/os.h ****  *
 249:..\..\..\..\cloud\alicloud\src\services\dev_bind\os/os.h ****  * @return Mutex handle.
 250:..\..\..\..\cloud\alicloud\src\services\dev_bind\os/os.h ****  * @see None.
 251:..\..\..\..\cloud\alicloud\src\services\dev_bind\os/os.h ****  * @note None.
 252:..\..\..\..\cloud\alicloud\src\services\dev_bind\os/os.h ****  */
 253:..\..\..\..\cloud\alicloud\src\services\dev_bind\os/os.h **** static inline void *os_mutex_init(void)
 254:..\..\..\..\cloud\alicloud\src\services\dev_bind\os/os.h **** {
 255:..\..\..\..\cloud\alicloud\src\services\dev_bind\os/os.h ****     return platform_mutex_init();
 256:..\..\..\..\cloud\alicloud\src\services\dev_bind\os/os.h **** }
 257:..\..\..\..\cloud\alicloud\src\services\dev_bind\os/os.h **** 
 258:..\..\..\..\cloud\alicloud\src\services\dev_bind\os/os.h **** /**
 259:..\..\..\..\cloud\alicloud\src\services\dev_bind\os/os.h ****  * @brief Destroy the specified mutex object, it will free related resource.
 260:..\..\..\..\cloud\alicloud\src\services\dev_bind\os/os.h ****  *
 261:..\..\..\..\cloud\alicloud\src\services\dev_bind\os/os.h ****  * @param[in] mutex @n The specified mutex.
 262:..\..\..\..\cloud\alicloud\src\services\dev_bind\os/os.h ****  * @return None.
 263:..\..\..\..\cloud\alicloud\src\services\dev_bind\os/os.h ****  * @see None.
 264:..\..\..\..\cloud\alicloud\src\services\dev_bind\os/os.h ****  * @note None.
 265:..\..\..\..\cloud\alicloud\src\services\dev_bind\os/os.h ****  */
 266:..\..\..\..\cloud\alicloud\src\services\dev_bind\os/os.h **** static inline void os_mutex_destroy(_IN_ void *mutex)
 267:..\..\..\..\cloud\alicloud\src\services\dev_bind\os/os.h **** {
 268:..\..\..\..\cloud\alicloud\src\services\dev_bind\os/os.h ****     platform_mutex_destroy(mutex);
 269:..\..\..\..\cloud\alicloud\src\services\dev_bind\os/os.h **** }
 270:..\..\..\..\cloud\alicloud\src\services\dev_bind\os/os.h **** 
 271:..\..\..\..\cloud\alicloud\src\services\dev_bind\os/os.h **** /**
 272:..\..\..\..\cloud\alicloud\src\services\dev_bind\os/os.h ****  * @brief Waits until the specified mutex is in the signaled state.
 273:..\..\..\..\cloud\alicloud\src\services\dev_bind\os/os.h ****  *
 274:..\..\..\..\cloud\alicloud\src\services\dev_bind\os/os.h ****  * @param[in] mutex @n the specified mutex.
 275:..\..\..\..\cloud\alicloud\src\services\dev_bind\os/os.h ****  * @return None.
 276:..\..\..\..\cloud\alicloud\src\services\dev_bind\os/os.h ****  * @see None.
 277:..\..\..\..\cloud\alicloud\src\services\dev_bind\os/os.h ****  * @note None.
 278:..\..\..\..\cloud\alicloud\src\services\dev_bind\os/os.h ****  */
 279:..\..\..\..\cloud\alicloud\src\services\dev_bind\os/os.h **** static inline void os_mutex_lock(_IN_ void *mutex)
 280:..\..\..\..\cloud\alicloud\src\services\dev_bind\os/os.h **** {
 281:..\..\..\..\cloud\alicloud\src\services\dev_bind\os/os.h ****     platform_mutex_lock(mutex);
 282:..\..\..\..\cloud\alicloud\src\services\dev_bind\os/os.h **** }
 283:..\..\..\..\cloud\alicloud\src\services\dev_bind\os/os.h **** 
 284:..\..\..\..\cloud\alicloud\src\services\dev_bind\os/os.h **** /**
 285:..\..\..\..\cloud\alicloud\src\services\dev_bind\os/os.h ****  * @brief Releases ownership of the specified mutex object..
 286:..\..\..\..\cloud\alicloud\src\services\dev_bind\os/os.h ****  *
 287:..\..\..\..\cloud\alicloud\src\services\dev_bind\os/os.h ****  * @param[in] mutex @n the specified mutex.
 288:..\..\..\..\cloud\alicloud\src\services\dev_bind\os/os.h ****  * @return None.
 289:..\..\..\..\cloud\alicloud\src\services\dev_bind\os/os.h ****  * @see None.
 290:..\..\..\..\cloud\alicloud\src\services\dev_bind\os/os.h ****  * @note None.
 291:..\..\..\..\cloud\alicloud\src\services\dev_bind\os/os.h ****  */
 292:..\..\..\..\cloud\alicloud\src\services\dev_bind\os/os.h **** static inline void os_mutex_unlock(_IN_ void *mutex)
 293:..\..\..\..\cloud\alicloud\src\services\dev_bind\os/os.h **** {
 294:..\..\..\..\cloud\alicloud\src\services\dev_bind\os/os.h ****     platform_mutex_unlock(mutex);
 295:..\..\..\..\cloud\alicloud\src\services\dev_bind\os/os.h **** }
 296:..\..\..\..\cloud\alicloud\src\services\dev_bind\os/os.h **** 
 297:..\..\..\..\cloud\alicloud\src\services\dev_bind\os/os.h **** /** @} */// end of os_mutex
 298:..\..\..\..\cloud\alicloud\src\services\dev_bind\os/os.h **** 
 299:..\..\..\..\cloud\alicloud\src\services\dev_bind\os/os.h **** /*************************************** semaphore Interface **************************************
 300:..\..\..\..\cloud\alicloud\src\services\dev_bind\os/os.h **** 
 301:..\..\..\..\cloud\alicloud\src\services\dev_bind\os/os.h **** /** @defgroup group_os_semaphore semaphore
 302:..\..\..\..\cloud\alicloud\src\services\dev_bind\os/os.h ****  *  @{
 303:..\..\..\..\cloud\alicloud\src\services\dev_bind\os/os.h ****  */
 304:..\..\..\..\cloud\alicloud\src\services\dev_bind\os/os.h **** 
 305:..\..\..\..\cloud\alicloud\src\services\dev_bind\os/os.h **** /**
 306:..\..\..\..\cloud\alicloud\src\services\dev_bind\os/os.h ****  * @brief Create a semaphore.
 307:..\..\..\..\cloud\alicloud\src\services\dev_bind\os/os.h ****  *
 308:..\..\..\..\cloud\alicloud\src\services\dev_bind\os/os.h ****  * @return semaphore handle.
 309:..\..\..\..\cloud\alicloud\src\services\dev_bind\os/os.h ****  * @see None.
 310:..\..\..\..\cloud\alicloud\src\services\dev_bind\os/os.h ****  * @note The recommended value of maximum count of the semaphore is 255.
 311:..\..\..\..\cloud\alicloud\src\services\dev_bind\os/os.h ****  */
 312:..\..\..\..\cloud\alicloud\src\services\dev_bind\os/os.h **** static inline void *os_semaphore_init(void)
 313:..\..\..\..\cloud\alicloud\src\services\dev_bind\os/os.h **** {
 314:..\..\..\..\cloud\alicloud\src\services\dev_bind\os/os.h ****     return platform_semaphore_init();
 315:..\..\..\..\cloud\alicloud\src\services\dev_bind\os/os.h **** }
 316:..\..\..\..\cloud\alicloud\src\services\dev_bind\os/os.h **** 
 317:..\..\..\..\cloud\alicloud\src\services\dev_bind\os/os.h **** /**
 318:..\..\..\..\cloud\alicloud\src\services\dev_bind\os/os.h ****  * @brief Destroy the specified semaphore object, it will free related resource.
 319:..\..\..\..\cloud\alicloud\src\services\dev_bind\os/os.h ****  *
 320:..\..\..\..\cloud\alicloud\src\services\dev_bind\os/os.h ****  * @param[in] sem @n the specified sem.
 321:..\..\..\..\cloud\alicloud\src\services\dev_bind\os/os.h ****  * @return None.
 322:..\..\..\..\cloud\alicloud\src\services\dev_bind\os/os.h ****  * @see None.
 323:..\..\..\..\cloud\alicloud\src\services\dev_bind\os/os.h ****  * @note None.
 324:..\..\..\..\cloud\alicloud\src\services\dev_bind\os/os.h ****  */
 325:..\..\..\..\cloud\alicloud\src\services\dev_bind\os/os.h **** static inline void os_semaphore_destroy(_IN_ void *sem)
 326:..\..\..\..\cloud\alicloud\src\services\dev_bind\os/os.h **** {
 327:..\..\..\..\cloud\alicloud\src\services\dev_bind\os/os.h ****     platform_semaphore_destroy(sem);
 328:..\..\..\..\cloud\alicloud\src\services\dev_bind\os/os.h **** }
 329:..\..\..\..\cloud\alicloud\src\services\dev_bind\os/os.h **** 
 330:..\..\..\..\cloud\alicloud\src\services\dev_bind\os/os.h **** /**
 331:..\..\..\..\cloud\alicloud\src\services\dev_bind\os/os.h ****  * @brief Wait until the specified mutex is in the signaled state or the time-out interval elapses.
 332:..\..\..\..\cloud\alicloud\src\services\dev_bind\os/os.h ****  *
 333:..\..\..\..\cloud\alicloud\src\services\dev_bind\os/os.h ****  * @param[in] sem @n the specified semaphore.
 334:..\..\..\..\cloud\alicloud\src\services\dev_bind\os/os.h ****  * @param[in] timeout_ms @n timeout interval in millisecond.
 335:..\..\..\..\cloud\alicloud\src\services\dev_bind\os/os.h ****      If timeout_ms is OS_WAIT_INFINITE, the function will return only when the semaphore is signale
 336:..\..\..\..\cloud\alicloud\src\services\dev_bind\os/os.h ****  * @return
 337:..\..\..\..\cloud\alicloud\src\services\dev_bind\os/os.h ****    @verbatim
 338:..\..\..\..\cloud\alicloud\src\services\dev_bind\os/os.h ****    =  0: The state of the specified object is signaled.
 339:..\..\..\..\cloud\alicloud\src\services\dev_bind\os/os.h ****    =  -1: The time-out interval elapsed, and the object's state is nonsignaled.
 340:..\..\..\..\cloud\alicloud\src\services\dev_bind\os/os.h ****    @endverbatim
 341:..\..\..\..\cloud\alicloud\src\services\dev_bind\os/os.h ****  * @see None.
 342:..\..\..\..\cloud\alicloud\src\services\dev_bind\os/os.h ****  * @note None.
 343:..\..\..\..\cloud\alicloud\src\services\dev_bind\os/os.h ****  */
 344:..\..\..\..\cloud\alicloud\src\services\dev_bind\os/os.h **** static inline int os_semaphore_wait(_IN_ void *sem, _IN_ uint32_t timeout_ms)
 345:..\..\..\..\cloud\alicloud\src\services\dev_bind\os/os.h **** {
 346:..\..\..\..\cloud\alicloud\src\services\dev_bind\os/os.h ****     return platform_semaphore_wait(sem, timeout_ms);
 347:..\..\..\..\cloud\alicloud\src\services\dev_bind\os/os.h **** }
 348:..\..\..\..\cloud\alicloud\src\services\dev_bind\os/os.h **** 
 349:..\..\..\..\cloud\alicloud\src\services\dev_bind\os/os.h **** /**
 350:..\..\..\..\cloud\alicloud\src\services\dev_bind\os/os.h ****  * @brief Increases the count of the specified semaphore object by 1.
 351:..\..\..\..\cloud\alicloud\src\services\dev_bind\os/os.h ****  *
 352:..\..\..\..\cloud\alicloud\src\services\dev_bind\os/os.h ****  * @param[in] sem @n the specified semaphore.
 353:..\..\..\..\cloud\alicloud\src\services\dev_bind\os/os.h ****  * @return None.
 354:..\..\..\..\cloud\alicloud\src\services\dev_bind\os/os.h ****  * @see None.
 355:..\..\..\..\cloud\alicloud\src\services\dev_bind\os/os.h ****  * @note None.
 356:..\..\..\..\cloud\alicloud\src\services\dev_bind\os/os.h ****  */
 357:..\..\..\..\cloud\alicloud\src\services\dev_bind\os/os.h **** static inline void os_semaphore_post(_IN_ void *sem)
 358:..\..\..\..\cloud\alicloud\src\services\dev_bind\os/os.h **** {
 359:..\..\..\..\cloud\alicloud\src\services\dev_bind\os/os.h ****     platform_semaphore_post(sem);
 360:..\..\..\..\cloud\alicloud\src\services\dev_bind\os/os.h **** }
 361:..\..\..\..\cloud\alicloud\src\services\dev_bind\os/os.h **** 
 362:..\..\..\..\cloud\alicloud\src\services\dev_bind\os/os.h **** /** @} */// end of os_semaphore
 363:..\..\..\..\cloud\alicloud\src\services\dev_bind\os/os.h **** 
 364:..\..\..\..\cloud\alicloud\src\services\dev_bind\os/os.h **** /**************************************** memory Interface ****************************************
 365:..\..\..\..\cloud\alicloud\src\services\dev_bind\os/os.h **** 
 366:..\..\..\..\cloud\alicloud\src\services\dev_bind\os/os.h **** /** @defgroup group_os_memory_manage memory
 367:..\..\..\..\cloud\alicloud\src\services\dev_bind\os/os.h ****  *  @{
 368:..\..\..\..\cloud\alicloud\src\services\dev_bind\os/os.h ****  */
 369:..\..\..\..\cloud\alicloud\src\services\dev_bind\os/os.h **** 
 370:..\..\..\..\cloud\alicloud\src\services\dev_bind\os/os.h **** /**
 371:..\..\..\..\cloud\alicloud\src\services\dev_bind\os/os.h ****  * @brief Allocates a block of size bytes of memory, returning a pointer to the beginning of the bl
 372:..\..\..\..\cloud\alicloud\src\services\dev_bind\os/os.h ****  *
 373:..\..\..\..\cloud\alicloud\src\services\dev_bind\os/os.h ****  * @param[in] size @n specify block size in bytes.
 374:..\..\..\..\cloud\alicloud\src\services\dev_bind\os/os.h ****  * @return A pointer to the beginning of the block.
 375:..\..\..\..\cloud\alicloud\src\services\dev_bind\os/os.h ****  * @see None.
 376:..\..\..\..\cloud\alicloud\src\services\dev_bind\os/os.h ****  * @note Block value is indeterminate.
 377:..\..\..\..\cloud\alicloud\src\services\dev_bind\os/os.h ****  */
 378:..\..\..\..\cloud\alicloud\src\services\dev_bind\os/os.h **** static inline void *os_malloc(_IN_ uint32_t size)
 379:..\..\..\..\cloud\alicloud\src\services\dev_bind\os/os.h **** {
 380:..\..\..\..\cloud\alicloud\src\services\dev_bind\os/os.h ****     return platform_malloc(size);
 381:..\..\..\..\cloud\alicloud\src\services\dev_bind\os/os.h **** }
 382:..\..\..\..\cloud\alicloud\src\services\dev_bind\os/os.h **** 
 383:..\..\..\..\cloud\alicloud\src\services\dev_bind\os/os.h **** 
 384:..\..\..\..\cloud\alicloud\src\services\dev_bind\os/os.h **** /**
 385:..\..\..\..\cloud\alicloud\src\services\dev_bind\os/os.h ****  * @brief Deallocate memory block
 386:..\..\..\..\cloud\alicloud\src\services\dev_bind\os/os.h ****  *
 387:..\..\..\..\cloud\alicloud\src\services\dev_bind\os/os.h ****  * @param[in] ptr @n Pointer to a memory block previously allocated with platform_malloc.
 388:..\..\..\..\cloud\alicloud\src\services\dev_bind\os/os.h ****  * @return None.
 389:..\..\..\..\cloud\alicloud\src\services\dev_bind\os/os.h ****  * @see None.
 390:..\..\..\..\cloud\alicloud\src\services\dev_bind\os/os.h ****  * @note None.
 391:..\..\..\..\cloud\alicloud\src\services\dev_bind\os/os.h ****  */
 392:..\..\..\..\cloud\alicloud\src\services\dev_bind\os/os.h **** static inline void os_free(_IN_ void *ptr)
 393:..\..\..\..\cloud\alicloud\src\services\dev_bind\os/os.h **** {
 394:..\..\..\..\cloud\alicloud\src\services\dev_bind\os/os.h ****     platform_free(ptr);
 395:..\..\..\..\cloud\alicloud\src\services\dev_bind\os/os.h **** }
 396:..\..\..\..\cloud\alicloud\src\services\dev_bind\os/os.h **** 
 397:..\..\..\..\cloud\alicloud\src\services\dev_bind\os/os.h **** /**
 398:..\..\..\..\cloud\alicloud\src\services\dev_bind\os/os.h ****  * @brief Allocates a memory block with memory initialized to 0,
 399:..\..\..\..\cloud\alicloud\src\services\dev_bind\os/os.h ****      returning a pointer to the beginning of the block.
 400:..\..\..\..\cloud\alicloud\src\services\dev_bind\os/os.h ****  *
 401:..\..\..\..\cloud\alicloud\src\services\dev_bind\os/os.h ****  * @param[in] size @n specify block size in bytes.
 402:..\..\..\..\cloud\alicloud\src\services\dev_bind\os/os.h ****  * @return A pointer to the beginning of the block.
 403:..\..\..\..\cloud\alicloud\src\services\dev_bind\os/os.h ****  * @see None.
 404:..\..\..\..\cloud\alicloud\src\services\dev_bind\os/os.h ****  * @note Block value is indeterminate.
 405:..\..\..\..\cloud\alicloud\src\services\dev_bind\os/os.h ****  */
 406:..\..\..\..\cloud\alicloud\src\services\dev_bind\os/os.h **** static inline void *os_zalloc(uint32_t size)
 407:..\..\..\..\cloud\alicloud\src\services\dev_bind\os/os.h **** {
 408:..\..\..\..\cloud\alicloud\src\services\dev_bind\os/os.h ****     void *ptr = os_malloc(size);
 409:..\..\..\..\cloud\alicloud\src\services\dev_bind\os/os.h ****     if (ptr != NULL) {
 410:..\..\..\..\cloud\alicloud\src\services\dev_bind\os/os.h ****         memset(ptr, 0, size);
 411:..\..\..\..\cloud\alicloud\src\services\dev_bind\os/os.h ****     }
 412:..\..\..\..\cloud\alicloud\src\services\dev_bind\os/os.h ****     return ptr;
 413:..\..\..\..\cloud\alicloud\src\services\dev_bind\os/os.h **** }
 414:..\..\..\..\cloud\alicloud\src\services\dev_bind\os/os.h **** 
 415:..\..\..\..\cloud\alicloud\src\services\dev_bind\os/os.h **** /** @} */// end of os_memory_manage
 416:..\..\..\..\cloud\alicloud\src\services\dev_bind\os/os.h **** 
 417:..\..\..\..\cloud\alicloud\src\services\dev_bind\os/os.h **** /**************************************** system Interface ****************************************
 418:..\..\..\..\cloud\alicloud\src\services\dev_bind\os/os.h **** 
 419:..\..\..\..\cloud\alicloud\src\services\dev_bind\os/os.h **** /** @defgroup group_os_system system
 420:..\..\..\..\cloud\alicloud\src\services\dev_bind\os/os.h ****  *  @{
 421:..\..\..\..\cloud\alicloud\src\services\dev_bind\os/os.h ****  */
 422:..\..\..\..\cloud\alicloud\src\services\dev_bind\os/os.h **** 
 423:..\..\..\..\cloud\alicloud\src\services\dev_bind\os/os.h **** /**
 424:..\..\..\..\cloud\alicloud\src\services\dev_bind\os/os.h ****  * @brief check system network is ready(get ip address) or not.
 425:..\..\..\..\cloud\alicloud\src\services\dev_bind\os/os.h ****  *
 426:..\..\..\..\cloud\alicloud\src\services\dev_bind\os/os.h ****  * @param None.
 427:..\..\..\..\cloud\alicloud\src\services\dev_bind\os/os.h ****  * @return 0, net is not ready; 1, net is ready.
 428:..\..\..\..\cloud\alicloud\src\services\dev_bind\os/os.h ****  * @see None.
 429:..\..\..\..\cloud\alicloud\src\services\dev_bind\os/os.h ****  * @note None.
 430:..\..\..\..\cloud\alicloud\src\services\dev_bind\os/os.h ****  */
 431:..\..\..\..\cloud\alicloud\src\services\dev_bind\os/os.h **** static inline int os_sys_net_is_ready(void)
 432:..\..\..\..\cloud\alicloud\src\services\dev_bind\os/os.h **** {
 433:..\..\..\..\cloud\alicloud\src\services\dev_bind\os/os.h ****     return platform_sys_net_is_ready();
 183              		.loc 2 433 5
 184              		.loc 2 433 12 is_stmt 0
 185 0078 97000000 		call	HAL_Sys_Net_Is_Ready
 185      E7800000 
 186              	.LVL12:
 187              	.LBE7:
 188              	.LBE6:
 139:C:/Users/stapi/OneDrive/Desktop/GD32VW553/V1_MQTT_OK/GD32VW55X_Wifi_BLE_SDK/GD32VW55x_RELEASE_V1.0.2/MSDK/cloud/alicloud/src/services/awss\awss.c ****             break;
 189              		.loc 1 139 12
 190 0080 79D1     		beq	a0,zero,.L17
 144:C:/Users/stapi/OneDrive/Desktop/GD32VW553/V1_MQTT_OK/GD32VW55X_Wifi_BLE_SDK/GD32VW55x_RELEASE_V1.0.2/MSDK/cloud/alicloud/src/services/awss\awss.c ****         dump_awss_status(STATE_WIFI_FORCE_STOPPED, "awss stopped in %s", __func__);
 191              		.loc 1 144 5 is_stmt 1
 144:C:/Users/stapi/OneDrive/Desktop/GD32VW553/V1_MQTT_OK/GD32VW55X_Wifi_BLE_SDK/GD32VW55x_RELEASE_V1.0.2/MSDK/cloud/alicloud/src/services/awss\awss.c ****         dump_awss_status(STATE_WIFI_FORCE_STOPPED, "awss stopped in %s", __func__);
 192              		.loc 1 144 8 is_stmt 0
 193 0082 83470400 		lbu	a5,0(s0)
 194 0086 F9F7     		bne	a5,zero,.L18
 156:C:/Users/stapi/OneDrive/Desktop/GD32VW553/V1_MQTT_OK/GD32VW55X_Wifi_BLE_SDK/GD32VW55x_RELEASE_V1.0.2/MSDK/cloud/alicloud/src/services/awss\awss.c ****     awss_stopped = 1;
 195              		.loc 1 156 5 is_stmt 1
 196 0088 97000000 		call	awss_success_notify
 196      E7800000 
 197              	.LVL13:
 157:C:/Users/stapi/OneDrive/Desktop/GD32VW553/V1_MQTT_OK/GD32VW55X_Wifi_BLE_SDK/GD32VW55x_RELEASE_V1.0.2/MSDK/cloud/alicloud/src/services/awss\awss.c ****     return 0;
 198              		.loc 1 157 5
 157:C:/Users/stapi/OneDrive/Desktop/GD32VW553/V1_MQTT_OK/GD32VW55X_Wifi_BLE_SDK/GD32VW55x_RELEASE_V1.0.2/MSDK/cloud/alicloud/src/services/awss\awss.c ****     return 0;
 199              		.loc 1 157 18 is_stmt 0
 200 0090 8547     		li	a5,1
 201 0092 2300F400 		sb	a5,0(s0)
 158:C:/Users/stapi/OneDrive/Desktop/GD32VW553/V1_MQTT_OK/GD32VW55X_Wifi_BLE_SDK/GD32VW55x_RELEASE_V1.0.2/MSDK/cloud/alicloud/src/services/awss\awss.c **** }
 202              		.loc 1 158 5 is_stmt 1
 158:C:/Users/stapi/OneDrive/Desktop/GD32VW553/V1_MQTT_OK/GD32VW55X_Wifi_BLE_SDK/GD32VW55x_RELEASE_V1.0.2/MSDK/cloud/alicloud/src/services/awss\awss.c **** }
 203              		.loc 1 158 12 is_stmt 0
 204 0096 0145     		li	a0,0
 205 0098 51BF     		j	.L13
 206              		.cfi_endproc
 207              	.LFE50:
 209              		.section	.text.awss_stop,"ax",@progbits
 210              		.align	1
 211              		.globl	awss_stop
 213              	awss_stop:
 214              	.LFB51:
 162:C:/Users/stapi/OneDrive/Desktop/GD32VW553/V1_MQTT_OK/GD32VW55X_Wifi_BLE_SDK/GD32VW55x_RELEASE_V1.0.2/MSDK/cloud/alicloud/src/services/awss\awss.c ****     awss_stopped = 1;
 215              		.loc 1 162 1 is_stmt 1
 216              		.cfi_startproc
 217 0000 17030000 		call	t0,__riscv_save_0
 217      E7020300 
 218              		.cfi_offset 1, -4
 219              		.cfi_def_cfa_offset 16
 163:C:/Users/stapi/OneDrive/Desktop/GD32VW553/V1_MQTT_OK/GD32VW55X_Wifi_BLE_SDK/GD32VW55x_RELEASE_V1.0.2/MSDK/cloud/alicloud/src/services/awss\awss.c **** #ifdef AWSS_SUPPORT_AHA
 220              		.loc 1 163 5
 163:C:/Users/stapi/OneDrive/Desktop/GD32VW553/V1_MQTT_OK/GD32VW55X_Wifi_BLE_SDK/GD32VW55x_RELEASE_V1.0.2/MSDK/cloud/alicloud/src/services/awss\awss.c **** #ifdef AWSS_SUPPORT_AHA
 221              		.loc 1 163 18 is_stmt 0
 222 0008 0547     		li	a4,1
 223 000a B7070000 		lui	a5,%hi(.LANCHOR2)
 224 000e 2380E700 		sb	a4,%lo(.LANCHOR2)(a5)
 170:C:/Users/stapi/OneDrive/Desktop/GD32VW553/V1_MQTT_OK/GD32VW55X_Wifi_BLE_SDK/GD32VW55x_RELEASE_V1.0.2/MSDK/cloud/alicloud/src/services/awss\awss.c ****     g_user_press = 0;
 225              		.loc 1 170 5 is_stmt 1
 226 0012 97000000 		call	awss_stop_connectap_monitor
 226      E7800000 
 227              	.LVL14:
 171:C:/Users/stapi/OneDrive/Desktop/GD32VW553/V1_MQTT_OK/GD32VW55X_Wifi_BLE_SDK/GD32VW55x_RELEASE_V1.0.2/MSDK/cloud/alicloud/src/services/awss\awss.c ****     awss_press_timeout();
 228              		.loc 1 171 5
 171:C:/Users/stapi/OneDrive/Desktop/GD32VW553/V1_MQTT_OK/GD32VW55X_Wifi_BLE_SDK/GD32VW55x_RELEASE_V1.0.2/MSDK/cloud/alicloud/src/services/awss\awss.c ****     awss_press_timeout();
 229              		.loc 1 171 18 is_stmt 0
 230 001a B7070000 		lui	a5,%hi(.LANCHOR1)
 231 001e 23800700 		sb	zero,%lo(.LANCHOR1)(a5)
 172:C:/Users/stapi/OneDrive/Desktop/GD32VW553/V1_MQTT_OK/GD32VW55X_Wifi_BLE_SDK/GD32VW55x_RELEASE_V1.0.2/MSDK/cloud/alicloud/src/services/awss\awss.c **** 
 232              		.loc 1 172 5 is_stmt 1
 233 0022 97000000 		call	awss_press_timeout
 233      E7800000 
 234              	.LVL15:
 174:C:/Users/stapi/OneDrive/Desktop/GD32VW553/V1_MQTT_OK/GD32VW55X_Wifi_BLE_SDK/GD32VW55x_RELEASE_V1.0.2/MSDK/cloud/alicloud/src/services/awss\awss.c **** 
 235              		.loc 1 174 5
 236 002a 97000000 		call	__awss_stop
 236      E7800000 
 237              	.LVL16:
 176:C:/Users/stapi/OneDrive/Desktop/GD32VW553/V1_MQTT_OK/GD32VW55X_Wifi_BLE_SDK/GD32VW55x_RELEASE_V1.0.2/MSDK/cloud/alicloud/src/services/awss\awss.c **** }
 238              		.loc 1 176 5
 177:C:/Users/stapi/OneDrive/Desktop/GD32VW553/V1_MQTT_OK/GD32VW55X_Wifi_BLE_SDK/GD32VW55x_RELEASE_V1.0.2/MSDK/cloud/alicloud/src/services/awss\awss.c **** 
 239              		.loc 1 177 1 is_stmt 0
 240 0032 0145     		li	a0,0
 241 0034 17030000 		tail	__riscv_restore_0
 241      67000300 
 242              		.cfi_restore 1
 243              		.cfi_def_cfa_offset 0
 244              		.cfi_endproc
 245              	.LFE51:
 247              		.section	.rodata.awss_config_press.str1.4,"aMS",@progbits,1
 248              		.align	2
 249              	.LC2:
 250 0000 5B637274 		.string	"[crt] "
 250      5D2000
 251 0007 00       		.align	2
 252              	.LC3:
 253 0008 656E6162 		.string	"enable awss\r\n"
 253      6C652061 
 253      7773730D 
 253      0A00
 254 0016 0000     		.align	2
 255              	.LC4:
 256 0018 0D0A00   		.string	"\r\n"
 257 001b 00       		.align	2
 258              	.LC5:
 259 001c 70726573 		.string	"press"
 259      7300
 260              		.section	.text.awss_config_press,"ax",@progbits
 261              		.align	1
 262              		.globl	awss_config_press
 264              	awss_config_press:
 265              	.LFB53:
 191:C:/Users/stapi/OneDrive/Desktop/GD32VW553/V1_MQTT_OK/GD32VW55X_Wifi_BLE_SDK/GD32VW55x_RELEASE_V1.0.2/MSDK/cloud/alicloud/src/services/awss\awss.c **** 
 192:C:/Users/stapi/OneDrive/Desktop/GD32VW553/V1_MQTT_OK/GD32VW55X_Wifi_BLE_SDK/GD32VW55x_RELEASE_V1.0.2/MSDK/cloud/alicloud/src/services/awss\awss.c **** int awss_config_press(void)
 193:C:/Users/stapi/OneDrive/Desktop/GD32VW553/V1_MQTT_OK/GD32VW55X_Wifi_BLE_SDK/GD32VW55x_RELEASE_V1.0.2/MSDK/cloud/alicloud/src/services/awss\awss.c **** {
 266              		.loc 1 193 1 is_stmt 1
 267              		.cfi_startproc
 268 0000 17030000 		call	t0,__riscv_save_2
 268      E7020300 
 269              		.cfi_offset 9, -12
 270              		.cfi_offset 8, -8
 271              		.cfi_offset 1, -4
 272              		.cfi_def_cfa_offset 16
 194:C:/Users/stapi/OneDrive/Desktop/GD32VW553/V1_MQTT_OK/GD32VW55X_Wifi_BLE_SDK/GD32VW55x_RELEASE_V1.0.2/MSDK/cloud/alicloud/src/services/awss\awss.c ****     int timeout = os_awss_get_timeout_interval_ms();
 273              		.loc 1 194 5
 274              	.LBB8:
 275              	.LBB9:
 434:..\..\..\..\cloud\alicloud\src\services\dev_bind\os/os.h **** }
 435:..\..\..\..\cloud\alicloud\src\services\dev_bind\os/os.h **** 
 436:..\..\..\..\cloud\alicloud\src\services\dev_bind\os/os.h **** /**
 437:..\..\..\..\cloud\alicloud\src\services\dev_bind\os/os.h ****  * @brief Retrieves the number of milliseconds that have elapsed since the system was boot.
 438:..\..\..\..\cloud\alicloud\src\services\dev_bind\os/os.h ****  *
 439:..\..\..\..\cloud\alicloud\src\services\dev_bind\os/os.h ****  * @param None.
 440:..\..\..\..\cloud\alicloud\src\services\dev_bind\os/os.h ****  * @return the number of milliseconds.
 441:..\..\..\..\cloud\alicloud\src\services\dev_bind\os/os.h ****  * @see None.
 442:..\..\..\..\cloud\alicloud\src\services\dev_bind\os/os.h ****  * @note Add a big offset, for easier caught time overflow bug.
 443:..\..\..\..\cloud\alicloud\src\services\dev_bind\os/os.h ****  */
 444:..\..\..\..\cloud\alicloud\src\services\dev_bind\os/os.h **** static inline uint32_t os_get_time_ms(void)
 445:..\..\..\..\cloud\alicloud\src\services\dev_bind\os/os.h **** {
 446:..\..\..\..\cloud\alicloud\src\services\dev_bind\os/os.h ****     static uint32_t fixed_delta;
 447:..\..\..\..\cloud\alicloud\src\services\dev_bind\os/os.h **** 
 448:..\..\..\..\cloud\alicloud\src\services\dev_bind\os/os.h ****     if (!fixed_delta) {
 449:..\..\..\..\cloud\alicloud\src\services\dev_bind\os/os.h ****         fixed_delta = platform_get_time_ms() - 0xFFFF0000;
 450:..\..\..\..\cloud\alicloud\src\services\dev_bind\os/os.h ****     }
 451:..\..\..\..\cloud\alicloud\src\services\dev_bind\os/os.h **** 
 452:..\..\..\..\cloud\alicloud\src\services\dev_bind\os/os.h ****     /* add a big offset, for easier caught time overflow bug */
 453:..\..\..\..\cloud\alicloud\src\services\dev_bind\os/os.h ****     return platform_get_time_ms() - fixed_delta;
 454:..\..\..\..\cloud\alicloud\src\services\dev_bind\os/os.h **** }
 455:..\..\..\..\cloud\alicloud\src\services\dev_bind\os/os.h **** 
 456:..\..\..\..\cloud\alicloud\src\services\dev_bind\os/os.h **** /*
 457:..\..\..\..\cloud\alicloud\src\services\dev_bind\os/os.h ****  *  These inlines deal with timer wrapping correctly. You are
 458:..\..\..\..\cloud\alicloud\src\services\dev_bind\os/os.h ****  *  strongly encouraged to use them
 459:..\..\..\..\cloud\alicloud\src\services\dev_bind\os/os.h ****  *  1. Because people otherwise forget
 460:..\..\..\..\cloud\alicloud\src\services\dev_bind\os/os.h ****  *  2. Because if the timer wrap changes in future you won't have to
 461:..\..\..\..\cloud\alicloud\src\services\dev_bind\os/os.h ****  *     alter your code.
 462:..\..\..\..\cloud\alicloud\src\services\dev_bind\os/os.h ****  */
 463:..\..\..\..\cloud\alicloud\src\services\dev_bind\os/os.h **** static inline uint32_t time_elapsed_ms_since(uint32_t start_timestamp)
 464:..\..\..\..\cloud\alicloud\src\services\dev_bind\os/os.h **** {
 465:..\..\..\..\cloud\alicloud\src\services\dev_bind\os/os.h ****     uint32_t now = os_get_time_ms();
 466:..\..\..\..\cloud\alicloud\src\services\dev_bind\os/os.h **** 
 467:..\..\..\..\cloud\alicloud\src\services\dev_bind\os/os.h ****     return now - start_timestamp;
 468:..\..\..\..\cloud\alicloud\src\services\dev_bind\os/os.h **** }
 469:..\..\..\..\cloud\alicloud\src\services\dev_bind\os/os.h **** 
 470:..\..\..\..\cloud\alicloud\src\services\dev_bind\os/os.h **** /** @} */// end of os_system
 471:..\..\..\..\cloud\alicloud\src\services\dev_bind\os/os.h **** 
 472:..\..\..\..\cloud\alicloud\src\services\dev_bind\os/os.h **** /****************************************** io Interface ******************************************
 473:..\..\..\..\cloud\alicloud\src\services\dev_bind\os/os.h **** 
 474:..\..\..\..\cloud\alicloud\src\services\dev_bind\os/os.h **** /** @defgroup group_os_io io
 475:..\..\..\..\cloud\alicloud\src\services\dev_bind\os/os.h ****  *  @{
 476:..\..\..\..\cloud\alicloud\src\services\dev_bind\os/os.h ****  */
 477:..\..\..\..\cloud\alicloud\src\services\dev_bind\os/os.h **** 
 478:..\..\..\..\cloud\alicloud\src\services\dev_bind\os/os.h **** /**
 479:..\..\..\..\cloud\alicloud\src\services\dev_bind\os/os.h ****  * @brief Writes formatted data to stream.
 480:..\..\..\..\cloud\alicloud\src\services\dev_bind\os/os.h ****  *
 481:..\..\..\..\cloud\alicloud\src\services\dev_bind\os/os.h ****  * @param[in] fmt: @n String that contains the text to be written, it can optionally contain embedd
 482:..\..\..\..\cloud\alicloud\src\services\dev_bind\os/os.h ****      that specifies how subsequent arguments are converted for output.
 483:..\..\..\..\cloud\alicloud\src\services\dev_bind\os/os.h ****  * @param[in] ...: @n the variable argument list, for formatted and inserted in the resulting strin
 484:..\..\..\..\cloud\alicloud\src\services\dev_bind\os/os.h ****  * @return None.
 485:..\..\..\..\cloud\alicloud\src\services\dev_bind\os/os.h ****  * @see None.
 486:..\..\..\..\cloud\alicloud\src\services\dev_bind\os/os.h ****  * @note None.
 487:..\..\..\..\cloud\alicloud\src\services\dev_bind\os/os.h ****  */
 488:..\..\..\..\cloud\alicloud\src\services\dev_bind\os/os.h **** #define os_printf(fmt, ...) platform_printf(fmt, ## __VA_ARGS__)
 489:..\..\..\..\cloud\alicloud\src\services\dev_bind\os/os.h **** 
 490:..\..\..\..\cloud\alicloud\src\services\dev_bind\os/os.h **** /** @} */// end of os_io
 491:..\..\..\..\cloud\alicloud\src\services\dev_bind\os/os.h **** 
 492:..\..\..\..\cloud\alicloud\src\services\dev_bind\os/os.h **** /*************************************** wifi module Interface ************************************
 493:..\..\..\..\cloud\alicloud\src\services\dev_bind\os/os.h **** 
 494:..\..\..\..\cloud\alicloud\src\services\dev_bind\os/os.h **** /** @defgroup group_os_wifi_module wifi
 495:..\..\..\..\cloud\alicloud\src\services\dev_bind\os/os.h ****  *  @{
 496:..\..\..\..\cloud\alicloud\src\services\dev_bind\os/os.h ****  */
 497:..\..\..\..\cloud\alicloud\src\services\dev_bind\os/os.h **** 
 498:..\..\..\..\cloud\alicloud\src\services\dev_bind\os/os.h **** /**
 499:..\..\..\..\cloud\alicloud\src\services\dev_bind\os/os.h ****  * @brief Get encrypt type for smartconfig.
 500:..\..\..\..\cloud\alicloud\src\services\dev_bind\os/os.h ****  *
 501:..\..\..\..\cloud\alicloud\src\services\dev_bind\os/os.h ****  * @param None.
 502:..\..\..\..\cloud\alicloud\src\services\dev_bind\os/os.h ****  * @return.
 503:..\..\..\..\cloud\alicloud\src\services\dev_bind\os/os.h ****    @verbatim
 504:..\..\..\..\cloud\alicloud\src\services\dev_bind\os/os.h ****      = 0: open (no encrypt)
 505:..\..\..\..\cloud\alicloud\src\services\dev_bind\os/os.h ****      = 1: aes256cbc with default aes-key and aes-iv
 506:..\..\..\..\cloud\alicloud\src\services\dev_bind\os/os.h ****      = 2: aes128cbc with default aes-key and aes-iv
 507:..\..\..\..\cloud\alicloud\src\services\dev_bind\os/os.h ****      = 3: aes128cbc with aes-key per product and aes-iv = 0
 508:..\..\..\..\cloud\alicloud\src\services\dev_bind\os/os.h ****      = 4: aes128cbc with aes-key per device and aes-iv = 0
 509:..\..\..\..\cloud\alicloud\src\services\dev_bind\os/os.h ****      = 5: aes128cbc with aes-key per manufacture and aes-iv = 0
 510:..\..\..\..\cloud\alicloud\src\services\dev_bind\os/os.h ****      = others: invalid
 511:..\..\..\..\cloud\alicloud\src\services\dev_bind\os/os.h ****    @endverbatim
 512:..\..\..\..\cloud\alicloud\src\services\dev_bind\os/os.h ****  * @see None.
 513:..\..\..\..\cloud\alicloud\src\services\dev_bind\os/os.h ****  * @note None.
 514:..\..\..\..\cloud\alicloud\src\services\dev_bind\os/os.h ****  */
 515:..\..\..\..\cloud\alicloud\src\services\dev_bind\os/os.h **** static inline int os_get_encrypt_type(void)
 516:..\..\..\..\cloud\alicloud\src\services\dev_bind\os/os.h **** {
 517:..\..\..\..\cloud\alicloud\src\services\dev_bind\os/os.h ****     return platform_get_encrypt_type();
 518:..\..\..\..\cloud\alicloud\src\services\dev_bind\os/os.h **** }
 519:..\..\..\..\cloud\alicloud\src\services\dev_bind\os/os.h **** 
 520:..\..\..\..\cloud\alicloud\src\services\dev_bind\os/os.h **** /**
 521:..\..\..\..\cloud\alicloud\src\services\dev_bind\os/os.h ****  * @brief    Get Security level for wifi configuration with connection.
 522:..\..\..\..\cloud\alicloud\src\services\dev_bind\os/os.h ****  *           Used for AP solution of router and App.
 523:..\..\..\..\cloud\alicloud\src\services\dev_bind\os/os.h ****  *
 524:..\..\..\..\cloud\alicloud\src\services\dev_bind\os/os.h ****  * @param None.
 525:..\..\..\..\cloud\alicloud\src\services\dev_bind\os/os.h ****  * @return The security level:
 526:..\..\..\..\cloud\alicloud\src\services\dev_bind\os/os.h ****    @verbatim
 527:..\..\..\..\cloud\alicloud\src\services\dev_bind\os/os.h ****     3: aes128cfb with aes-key per product and aes-iv = random
 528:..\..\..\..\cloud\alicloud\src\services\dev_bind\os/os.h ****     4: aes128cfb with aes-key per device and aes-iv = random
 529:..\..\..\..\cloud\alicloud\src\services\dev_bind\os/os.h ****     5: aes128cfb with aes-key per manufacture and aes-iv = random
 530:..\..\..\..\cloud\alicloud\src\services\dev_bind\os/os.h ****     others: invalid
 531:..\..\..\..\cloud\alicloud\src\services\dev_bind\os/os.h ****    @endverbatim
 532:..\..\..\..\cloud\alicloud\src\services\dev_bind\os/os.h ****  * @see None.
 533:..\..\..\..\cloud\alicloud\src\services\dev_bind\os/os.h ****  */
 534:..\..\..\..\cloud\alicloud\src\services\dev_bind\os/os.h **** static inline int os_get_conn_encrypt_type(void)
 535:..\..\..\..\cloud\alicloud\src\services\dev_bind\os/os.h **** {
 536:..\..\..\..\cloud\alicloud\src\services\dev_bind\os/os.h ****     return platform_get_conn_encrypt_type();
 537:..\..\..\..\cloud\alicloud\src\services\dev_bind\os/os.h **** }
 538:..\..\..\..\cloud\alicloud\src\services\dev_bind\os/os.h **** 
 539:..\..\..\..\cloud\alicloud\src\services\dev_bind\os/os.h **** /**
 540:..\..\..\..\cloud\alicloud\src\services\dev_bind\os/os.h ****  * @brief   Get rssi and channel of current link
 541:..\..\..\..\cloud\alicloud\src\services\dev_bind\os/os.h ****  *
 542:..\..\..\..\cloud\alicloud\src\services\dev_bind\os/os.h ****  * @param[out] p_rssi: rssi value of current link
 543:..\..\..\..\cloud\alicloud\src\services\dev_bind\os/os.h ****  * @param[out] p_channel: channel of current link
 544:..\..\..\..\cloud\alicloud\src\services\dev_bind\os/os.h ****  * 
 545:..\..\..\..\cloud\alicloud\src\services\dev_bind\os/os.h ****  * @return
 546:..\..\..\..\cloud\alicloud\src\services\dev_bind\os/os.h ****    @verbatim
 547:..\..\..\..\cloud\alicloud\src\services\dev_bind\os/os.h ****      = 0: succeeded
 548:..\..\..\..\cloud\alicloud\src\services\dev_bind\os/os.h ****      = -1: failed
 549:..\..\..\..\cloud\alicloud\src\services\dev_bind\os/os.h ****    @endverbatim
 550:..\..\..\..\cloud\alicloud\src\services\dev_bind\os/os.h ****  * @see None.
 551:..\..\..\..\cloud\alicloud\src\services\dev_bind\os/os.h ****  * @note None.
 552:..\..\..\..\cloud\alicloud\src\services\dev_bind\os/os.h ****  * @note awss use this API to get rssi and channel of current link
 553:..\..\..\..\cloud\alicloud\src\services\dev_bind\os/os.h ****  */
 554:..\..\..\..\cloud\alicloud\src\services\dev_bind\os/os.h **** static inline int os_get_conn_link_stat(int *p_rssi, int *p_channel)
 555:..\..\..\..\cloud\alicloud\src\services\dev_bind\os/os.h **** {
 556:..\..\..\..\cloud\alicloud\src\services\dev_bind\os/os.h ****     return platform_get_conn_link_stat(p_rssi, p_channel);
 557:..\..\..\..\cloud\alicloud\src\services\dev_bind\os/os.h **** }
 558:..\..\..\..\cloud\alicloud\src\services\dev_bind\os/os.h **** 
 559:..\..\..\..\cloud\alicloud\src\services\dev_bind\os/os.h **** /**
 560:..\..\..\..\cloud\alicloud\src\services\dev_bind\os/os.h ****  * @brief Get WIFI MAC string with format like: XX:XX:XX:XX:XX:XX.
 561:..\..\..\..\cloud\alicloud\src\services\dev_bind\os/os.h ****  *
 562:..\..\..\..\cloud\alicloud\src\services\dev_bind\os/os.h ****  * @param[out] mac_str @n Buffer for using to store wifi MAC string.
 563:..\..\..\..\cloud\alicloud\src\services\dev_bind\os/os.h ****  * @return A pointer to the start address of mac_str.
 564:..\..\..\..\cloud\alicloud\src\services\dev_bind\os/os.h ****  * @see None.
 565:..\..\..\..\cloud\alicloud\src\services\dev_bind\os/os.h ****  * @note this func will format mac address string uppercase
 566:..\..\..\..\cloud\alicloud\src\services\dev_bind\os/os.h ****  */
 567:..\..\..\..\cloud\alicloud\src\services\dev_bind\os/os.h **** char *os_wifi_get_mac_str(char mac_str[OS_MAC_LEN]);
 568:..\..\..\..\cloud\alicloud\src\services\dev_bind\os/os.h **** 
 569:..\..\..\..\cloud\alicloud\src\services\dev_bind\os/os.h **** char *os_wifi_str2mac(char mac_str[OS_MAC_LEN], char mac[OS_ETH_ALEN]);
 570:..\..\..\..\cloud\alicloud\src\services\dev_bind\os/os.h **** 
 571:..\..\..\..\cloud\alicloud\src\services\dev_bind\os/os.h **** /**
 572:..\..\..\..\cloud\alicloud\src\services\dev_bind\os/os.h ****  * @brief Get WIFI MAC address(digital form)
 573:..\..\..\..\cloud\alicloud\src\services\dev_bind\os/os.h ****  *
 574:..\..\..\..\cloud\alicloud\src\services\dev_bind\os/os.h ****  * @param[out] mac @n digital buffer to hold mac address
 575:..\..\..\..\cloud\alicloud\src\services\dev_bind\os/os.h ****  * @return A pointer to the start address of mac.
 576:..\..\..\..\cloud\alicloud\src\services\dev_bind\os/os.h ****  * @see None.
 577:..\..\..\..\cloud\alicloud\src\services\dev_bind\os/os.h ****  * @note None.
 578:..\..\..\..\cloud\alicloud\src\services\dev_bind\os/os.h ****  */
 579:..\..\..\..\cloud\alicloud\src\services\dev_bind\os/os.h **** uint8_t *os_wifi_get_mac(uint8_t mac[OS_ETH_ALEN]);
 580:..\..\..\..\cloud\alicloud\src\services\dev_bind\os/os.h **** 
 581:..\..\..\..\cloud\alicloud\src\services\dev_bind\os/os.h **** /**
 582:..\..\..\..\cloud\alicloud\src\services\dev_bind\os/os.h ****  * @brief Get WIFI IP string with format like: xx:xx:xx:xx:xx:xx,
 583:..\..\..\..\cloud\alicloud\src\services\dev_bind\os/os.h ****    and return IP with binary form, in network byte order.
 584:..\..\..\..\cloud\alicloud\src\services\dev_bind\os/os.h ****  *
 585:..\..\..\..\cloud\alicloud\src\services\dev_bind\os/os.h ****  * @param[in] ifname @n Specify the interface name.The NULL value indicates the default network int
 586:..\..\..\..\cloud\alicloud\src\services\dev_bind\os/os.h ****  * @param[out] ip_str @n Buffer for using to store IP string, in numbers-and-dots notation form.
 587:..\..\..\..\cloud\alicloud\src\services\dev_bind\os/os.h ****  * @return IP address with binary form, in network byte order.
 588:..\..\..\..\cloud\alicloud\src\services\dev_bind\os/os.h ****  * @see None.
 589:..\..\..\..\cloud\alicloud\src\services\dev_bind\os/os.h ****  * @note None.
 590:..\..\..\..\cloud\alicloud\src\services\dev_bind\os/os.h ****  */
 591:..\..\..\..\cloud\alicloud\src\services\dev_bind\os/os.h **** static inline uint32_t os_wifi_get_ip(char ip_str[OS_IP_LEN], const char *ifname)
 592:..\..\..\..\cloud\alicloud\src\services\dev_bind\os/os.h **** {
 593:..\..\..\..\cloud\alicloud\src\services\dev_bind\os/os.h ****     return platform_wifi_get_ip(ip_str, ifname);
 594:..\..\..\..\cloud\alicloud\src\services\dev_bind\os/os.h **** }
 595:..\..\..\..\cloud\alicloud\src\services\dev_bind\os/os.h **** 
 596:..\..\..\..\cloud\alicloud\src\services\dev_bind\os/os.h **** /*************************************** awss interface ***************************************/
 597:..\..\..\..\cloud\alicloud\src\services\dev_bind\os/os.h **** 
 598:..\..\..\..\cloud\alicloud\src\services\dev_bind\os/os.h **** /** @defgroup group_os_awss alink wireless setup service(awss)
 599:..\..\..\..\cloud\alicloud\src\services\dev_bind\os/os.h ****  *  @{
 600:..\..\..\..\cloud\alicloud\src\services\dev_bind\os/os.h ****  */
 601:..\..\..\..\cloud\alicloud\src\services\dev_bind\os/os.h **** 
 602:..\..\..\..\cloud\alicloud\src\services\dev_bind\os/os.h **** /**
 603:..\..\..\..\cloud\alicloud\src\services\dev_bind\os/os.h ****  * @brief Get timeout interval, in millisecond, of per awss.
 604:..\..\..\..\cloud\alicloud\src\services\dev_bind\os/os.h ****  *
 605:..\..\..\..\cloud\alicloud\src\services\dev_bind\os/os.h ****  * @param None.
 606:..\..\..\..\cloud\alicloud\src\services\dev_bind\os/os.h ****  * @return The timeout interval.
 607:..\..\..\..\cloud\alicloud\src\services\dev_bind\os/os.h ****  * @see None.
 608:..\..\..\..\cloud\alicloud\src\services\dev_bind\os/os.h ****  * @note The recommended value is 60,000ms.
 609:..\..\..\..\cloud\alicloud\src\services\dev_bind\os/os.h ****  */
 610:..\..\..\..\cloud\alicloud\src\services\dev_bind\os/os.h **** static inline int os_awss_get_timeout_interval_ms(void)
 611:..\..\..\..\cloud\alicloud\src\services\dev_bind\os/os.h **** {
 612:..\..\..\..\cloud\alicloud\src\services\dev_bind\os/os.h ****     return platform_awss_get_timeout_interval_ms();
 276              		.loc 2 612 5
 277              		.loc 2 612 12 is_stmt 0
 278 0008 97000000 		call	HAL_Awss_Get_Timeout_Interval_Ms
 278      E7800000 
 279              	.LVL17:
 280 0010 AA84     		mv	s1,a0
 281              	.LVL18:
 282              	.LBE9:
 283              	.LBE8:
 195:C:/Users/stapi/OneDrive/Desktop/GD32VW553/V1_MQTT_OK/GD32VW55X_Wifi_BLE_SDK/GD32VW55x_RELEASE_V1.0.2/MSDK/cloud/alicloud/src/services/awss\awss.c **** 
 196:C:/Users/stapi/OneDrive/Desktop/GD32VW553/V1_MQTT_OK/GD32VW55X_Wifi_BLE_SDK/GD32VW55x_RELEASE_V1.0.2/MSDK/cloud/alicloud/src/services/awss\awss.c ****     awss_trace("enable awss\r\n");
 284              		.loc 1 196 5 is_stmt 1
 285              		.loc 1 196 5
 286 0012 37050000 		lui	a0,%hi(.LC2)
 287 0016 13050500 		addi	a0,a0,%lo(.LC2)
 288 001a 97000000 		call	HAL_Printf
 288      E7800000 
 289              	.LVL19:
 290              		.loc 1 196 5
 291 0022 37050000 		lui	a0,%hi(.LC3)
 292 0026 13050500 		addi	a0,a0,%lo(.LC3)
 293 002a 97000000 		call	HAL_Printf
 293      E7800000 
 294              	.LVL20:
 295              		.loc 1 196 5
 296 0032 37050000 		lui	a0,%hi(.LC4)
 297 0036 13050500 		addi	a0,a0,%lo(.LC4)
 298 003a 97000000 		call	HAL_Printf
 298      E7800000 
 299              	.LVL21:
 300              		.loc 1 196 5
 197:C:/Users/stapi/OneDrive/Desktop/GD32VW553/V1_MQTT_OK/GD32VW55X_Wifi_BLE_SDK/GD32VW55x_RELEASE_V1.0.2/MSDK/cloud/alicloud/src/services/awss\awss.c **** 
 198:C:/Users/stapi/OneDrive/Desktop/GD32VW553/V1_MQTT_OK/GD32VW55X_Wifi_BLE_SDK/GD32VW55x_RELEASE_V1.0.2/MSDK/cloud/alicloud/src/services/awss\awss.c ****     g_user_press = 1;
 301              		.loc 1 198 5
 199:C:/Users/stapi/OneDrive/Desktop/GD32VW553/V1_MQTT_OK/GD32VW55X_Wifi_BLE_SDK/GD32VW55x_RELEASE_V1.0.2/MSDK/cloud/alicloud/src/services/awss\awss.c **** 
 200:C:/Users/stapi/OneDrive/Desktop/GD32VW553/V1_MQTT_OK/GD32VW55X_Wifi_BLE_SDK/GD32VW55x_RELEASE_V1.0.2/MSDK/cloud/alicloud/src/services/awss\awss.c ****     awss_event_post(IOTX_AWSS_ENABLE);
 302              		.loc 1 200 5 is_stmt 0
 303 0042 0565     		li	a0,4096
 198:C:/Users/stapi/OneDrive/Desktop/GD32VW553/V1_MQTT_OK/GD32VW55X_Wifi_BLE_SDK/GD32VW55x_RELEASE_V1.0.2/MSDK/cloud/alicloud/src/services/awss\awss.c **** 
 304              		.loc 1 198 18
 305 0044 B7070000 		lui	a5,%hi(.LANCHOR1)
 306 0048 0547     		li	a4,1
 307              		.loc 1 200 5
 308 004a 0505     		addi	a0,a0,1
 198:C:/Users/stapi/OneDrive/Desktop/GD32VW553/V1_MQTT_OK/GD32VW55X_Wifi_BLE_SDK/GD32VW55x_RELEASE_V1.0.2/MSDK/cloud/alicloud/src/services/awss\awss.c **** 
 309              		.loc 1 198 18
 310 004c 2380E700 		sb	a4,%lo(.LANCHOR1)(a5)
 311              		.loc 1 200 5 is_stmt 1
 201:C:/Users/stapi/OneDrive/Desktop/GD32VW553/V1_MQTT_OK/GD32VW55X_Wifi_BLE_SDK/GD32VW55x_RELEASE_V1.0.2/MSDK/cloud/alicloud/src/services/awss\awss.c **** 
 202:C:/Users/stapi/OneDrive/Desktop/GD32VW553/V1_MQTT_OK/GD32VW55X_Wifi_BLE_SDK/GD32VW55x_RELEASE_V1.0.2/MSDK/cloud/alicloud/src/services/awss\awss.c ****     #ifdef DEV_STATEMACHINE_ENABLE
 203:C:/Users/stapi/OneDrive/Desktop/GD32VW553/V1_MQTT_OK/GD32VW55X_Wifi_BLE_SDK/GD32VW55x_RELEASE_V1.0.2/MSDK/cloud/alicloud/src/services/awss\awss.c ****     dev_awss_state_set(AWSS_PATTERN_SMART_CONFIG, AWSS_STATE_START);
 204:C:/Users/stapi/OneDrive/Desktop/GD32VW553/V1_MQTT_OK/GD32VW55X_Wifi_BLE_SDK/GD32VW55x_RELEASE_V1.0.2/MSDK/cloud/alicloud/src/services/awss\awss.c ****     #endif
 205:C:/Users/stapi/OneDrive/Desktop/GD32VW553/V1_MQTT_OK/GD32VW55X_Wifi_BLE_SDK/GD32VW55x_RELEASE_V1.0.2/MSDK/cloud/alicloud/src/services/awss\awss.c **** 
 206:C:/Users/stapi/OneDrive/Desktop/GD32VW553/V1_MQTT_OK/GD32VW55X_Wifi_BLE_SDK/GD32VW55x_RELEASE_V1.0.2/MSDK/cloud/alicloud/src/services/awss\awss.c ****     if (press_timer == NULL) {
 312              		.loc 1 206 21 is_stmt 0
 313 0050 37040000 		lui	s0,%hi(.LANCHOR0)
 200:C:/Users/stapi/OneDrive/Desktop/GD32VW553/V1_MQTT_OK/GD32VW55X_Wifi_BLE_SDK/GD32VW55x_RELEASE_V1.0.2/MSDK/cloud/alicloud/src/services/awss\awss.c **** 
 314              		.loc 1 200 5
 315 0054 97000000 		call	awss_event_post
 315      E7800000 
 316              	.LVL22:
 317              		.loc 1 206 5 is_stmt 1
 318              		.loc 1 206 8 is_stmt 0
 319 005c 83270400 		lw	a5,%lo(.LANCHOR0)(s0)
 320 0060 13040400 		addi	s0,s0,%lo(.LANCHOR0)
 321 0064 99EF     		bne	a5,zero,.L25
 207:C:/Users/stapi/OneDrive/Desktop/GD32VW553/V1_MQTT_OK/GD32VW55X_Wifi_BLE_SDK/GD32VW55x_RELEASE_V1.0.2/MSDK/cloud/alicloud/src/services/awss\awss.c ****         press_timer = HAL_Timer_Create("press", (void (*)(void *))awss_press_timeout, NULL);
 322              		.loc 1 207 9 is_stmt 1
 323              		.loc 1 207 23 is_stmt 0
 324 0066 B7050000 		lui	a1,%hi(awss_press_timeout)
 325 006a 37050000 		lui	a0,%hi(.LC5)
 326 006e 0146     		li	a2,0
 327 0070 93850500 		addi	a1,a1,%lo(awss_press_timeout)
 328 0074 13050500 		addi	a0,a0,%lo(.LC5)
 329 0078 97000000 		call	HAL_Timer_Create
 329      E7800000 
 330              	.LVL23:
 331              		.loc 1 207 21
 332 0080 08C0     		sw	a0,0(s0)
 333              	.L25:
 208:C:/Users/stapi/OneDrive/Desktop/GD32VW553/V1_MQTT_OK/GD32VW55X_Wifi_BLE_SDK/GD32VW55x_RELEASE_V1.0.2/MSDK/cloud/alicloud/src/services/awss\awss.c ****     }
 209:C:/Users/stapi/OneDrive/Desktop/GD32VW553/V1_MQTT_OK/GD32VW55X_Wifi_BLE_SDK/GD32VW55x_RELEASE_V1.0.2/MSDK/cloud/alicloud/src/services/awss\awss.c ****     if (press_timer == NULL) {
 334              		.loc 1 209 5 is_stmt 1
 335              		.loc 1 209 21 is_stmt 0
 336 0082 0840     		lw	a0,0(s0)
 210:C:/Users/stapi/OneDrive/Desktop/GD32VW553/V1_MQTT_OK/GD32VW55X_Wifi_BLE_SDK/GD32VW55x_RELEASE_V1.0.2/MSDK/cloud/alicloud/src/services/awss\awss.c ****         return STATE_SYS_DEPEND_TIMER_CREATE;
 337              		.loc 1 210 16
 338 0084 930700DC 		li	a5,-576
 209:C:/Users/stapi/OneDrive/Desktop/GD32VW553/V1_MQTT_OK/GD32VW55X_Wifi_BLE_SDK/GD32VW55x_RELEASE_V1.0.2/MSDK/cloud/alicloud/src/services/awss\awss.c ****         return STATE_SYS_DEPEND_TIMER_CREATE;
 339              		.loc 1 209 8
 340 0088 0DC1     		beq	a0,zero,.L24
 211:C:/Users/stapi/OneDrive/Desktop/GD32VW553/V1_MQTT_OK/GD32VW55X_Wifi_BLE_SDK/GD32VW55x_RELEASE_V1.0.2/MSDK/cloud/alicloud/src/services/awss\awss.c ****     }
 212:C:/Users/stapi/OneDrive/Desktop/GD32VW553/V1_MQTT_OK/GD32VW55X_Wifi_BLE_SDK/GD32VW55x_RELEASE_V1.0.2/MSDK/cloud/alicloud/src/services/awss\awss.c **** 
 213:C:/Users/stapi/OneDrive/Desktop/GD32VW553/V1_MQTT_OK/GD32VW55X_Wifi_BLE_SDK/GD32VW55x_RELEASE_V1.0.2/MSDK/cloud/alicloud/src/services/awss\awss.c ****     HAL_Timer_Stop(press_timer);
 341              		.loc 1 213 5 is_stmt 1
 342 008a 97000000 		call	HAL_Timer_Stop
 342      E7800000 
 343              	.LVL24:
 214:C:/Users/stapi/OneDrive/Desktop/GD32VW553/V1_MQTT_OK/GD32VW55X_Wifi_BLE_SDK/GD32VW55x_RELEASE_V1.0.2/MSDK/cloud/alicloud/src/services/awss\awss.c **** 
 215:C:/Users/stapi/OneDrive/Desktop/GD32VW553/V1_MQTT_OK/GD32VW55X_Wifi_BLE_SDK/GD32VW55x_RELEASE_V1.0.2/MSDK/cloud/alicloud/src/services/awss\awss.c ****     if (timeout < AWSS_PRESS_TIMEOUT_MS) {
 344              		.loc 1 215 5
 216:C:/Users/stapi/OneDrive/Desktop/GD32VW553/V1_MQTT_OK/GD32VW55X_Wifi_BLE_SDK/GD32VW55x_RELEASE_V1.0.2/MSDK/cloud/alicloud/src/services/awss\awss.c ****         timeout = AWSS_PRESS_TIMEOUT_MS;
 217:C:/Users/stapi/OneDrive/Desktop/GD32VW553/V1_MQTT_OK/GD32VW55X_Wifi_BLE_SDK/GD32VW55x_RELEASE_V1.0.2/MSDK/cloud/alicloud/src/services/awss\awss.c ****     }
 218:C:/Users/stapi/OneDrive/Desktop/GD32VW553/V1_MQTT_OK/GD32VW55X_Wifi_BLE_SDK/GD32VW55x_RELEASE_V1.0.2/MSDK/cloud/alicloud/src/services/awss\awss.c ****     HAL_Timer_Start(press_timer, timeout);
 345              		.loc 1 218 5
 346 0092 0840     		lw	a0,0(s0)
 347 0094 B7955B00 		li	a1,6000640
 348 0098 938505D8 		addi	a1,a1,-640
 349 009c B3E5B40A 		max	a1,s1,a1
 350 00a0 97000000 		call	HAL_Timer_Start
 350      E7800000 
 351              	.LVL25:
 219:C:/Users/stapi/OneDrive/Desktop/GD32VW553/V1_MQTT_OK/GD32VW55X_Wifi_BLE_SDK/GD32VW55x_RELEASE_V1.0.2/MSDK/cloud/alicloud/src/services/awss\awss.c **** 
 220:C:/Users/stapi/OneDrive/Desktop/GD32VW553/V1_MQTT_OK/GD32VW55X_Wifi_BLE_SDK/GD32VW55x_RELEASE_V1.0.2/MSDK/cloud/alicloud/src/services/awss\awss.c ****     return STATE_SUCCESS;
 352              		.loc 1 220 5
 353              		.loc 1 220 12 is_stmt 0
 354 00a8 8147     		li	a5,0
 355              	.LVL26:
 356              	.L24:
 221:C:/Users/stapi/OneDrive/Desktop/GD32VW553/V1_MQTT_OK/GD32VW55X_Wifi_BLE_SDK/GD32VW55x_RELEASE_V1.0.2/MSDK/cloud/alicloud/src/services/awss\awss.c **** }
 357              		.loc 1 221 1
 358 00aa 3E85     		mv	a0,a5
 359 00ac 17030000 		tail	__riscv_restore_2
 359      67000300 
 360              		.cfi_restore 9
 361              		.cfi_restore 8
 362              		.cfi_restore 1
 363              		.cfi_def_cfa_offset 0
 364              		.cfi_endproc
 365              	.LFE53:
 367              		.section	.text.awss_get_config_press,"ax",@progbits
 368              		.align	1
 369              		.globl	awss_get_config_press
 371              	awss_get_config_press:
 372              	.LFB54:
 222:C:/Users/stapi/OneDrive/Desktop/GD32VW553/V1_MQTT_OK/GD32VW55X_Wifi_BLE_SDK/GD32VW55x_RELEASE_V1.0.2/MSDK/cloud/alicloud/src/services/awss\awss.c **** 
 223:C:/Users/stapi/OneDrive/Desktop/GD32VW553/V1_MQTT_OK/GD32VW55X_Wifi_BLE_SDK/GD32VW55x_RELEASE_V1.0.2/MSDK/cloud/alicloud/src/services/awss\awss.c **** uint8_t awss_get_config_press(void)
 224:C:/Users/stapi/OneDrive/Desktop/GD32VW553/V1_MQTT_OK/GD32VW55X_Wifi_BLE_SDK/GD32VW55x_RELEASE_V1.0.2/MSDK/cloud/alicloud/src/services/awss\awss.c **** {
 373              		.loc 1 224 1 is_stmt 1
 374              		.cfi_startproc
 225:C:/Users/stapi/OneDrive/Desktop/GD32VW553/V1_MQTT_OK/GD32VW55X_Wifi_BLE_SDK/GD32VW55x_RELEASE_V1.0.2/MSDK/cloud/alicloud/src/services/awss\awss.c ****     return g_user_press;
 375              		.loc 1 225 5
 226:C:/Users/stapi/OneDrive/Desktop/GD32VW553/V1_MQTT_OK/GD32VW55X_Wifi_BLE_SDK/GD32VW55x_RELEASE_V1.0.2/MSDK/cloud/alicloud/src/services/awss\awss.c **** }
 376              		.loc 1 226 1 is_stmt 0
 377 0000 B7070000 		lui	a5,%hi(.LANCHOR1)
 378 0004 03C50700 		lbu	a0,%lo(.LANCHOR1)(a5)
 379 0008 8280     		ret
 380              		.cfi_endproc
 381              	.LFE54:
 383              		.section	.text.awss_set_config_press,"ax",@progbits
 384              		.align	1
 385              		.globl	awss_set_config_press
 387              	awss_set_config_press:
 388              	.LFB55:
 227:C:/Users/stapi/OneDrive/Desktop/GD32VW553/V1_MQTT_OK/GD32VW55X_Wifi_BLE_SDK/GD32VW55x_RELEASE_V1.0.2/MSDK/cloud/alicloud/src/services/awss\awss.c **** 
 228:C:/Users/stapi/OneDrive/Desktop/GD32VW553/V1_MQTT_OK/GD32VW55X_Wifi_BLE_SDK/GD32VW55x_RELEASE_V1.0.2/MSDK/cloud/alicloud/src/services/awss\awss.c **** void awss_set_config_press(uint8_t press)
 229:C:/Users/stapi/OneDrive/Desktop/GD32VW553/V1_MQTT_OK/GD32VW55X_Wifi_BLE_SDK/GD32VW55x_RELEASE_V1.0.2/MSDK/cloud/alicloud/src/services/awss\awss.c **** {
 389              		.loc 1 229 1 is_stmt 1
 390              		.cfi_startproc
 391              	.LVL27:
 230:C:/Users/stapi/OneDrive/Desktop/GD32VW553/V1_MQTT_OK/GD32VW55X_Wifi_BLE_SDK/GD32VW55x_RELEASE_V1.0.2/MSDK/cloud/alicloud/src/services/awss\awss.c ****     g_user_press = press;
 392              		.loc 1 230 5
 393              		.loc 1 230 18 is_stmt 0
 394 0000 B7070000 		lui	a5,%hi(.LANCHOR1)
 395 0004 2380A700 		sb	a0,%lo(.LANCHOR1)(a5)
 231:C:/Users/stapi/OneDrive/Desktop/GD32VW553/V1_MQTT_OK/GD32VW55X_Wifi_BLE_SDK/GD32VW55x_RELEASE_V1.0.2/MSDK/cloud/alicloud/src/services/awss\awss.c **** }
 396              		.loc 1 231 1
 397 0008 8280     		ret
 398              		.cfi_endproc
 399              	.LFE55:
 401              		.section	.rodata.__func__.0,"a"
 402              		.align	2
 403              		.set	.LANCHOR3,. + 0
 406              	__func__.0:
 407 0000 61777373 		.string	"awss_start"
 407      5F737461 
 407      727400
 408              		.section	.sbss.g_user_press,"aw",@nobits
 409              		.set	.LANCHOR1,. + 0
 412              	g_user_press:
 413 0000 00       		.zero	1
 414              		.section	.sbss.press_timer,"aw",@nobits
 415              		.align	2
 416              		.set	.LANCHOR0,. + 0
 419              	press_timer:
 420 0000 00000000 		.zero	4
 421              		.section	.sdata.awss_stopped,"aw"
 422              		.set	.LANCHOR2,. + 0
 425              	awss_stopped:
 426 0000 01       		.byte	1
 427              		.text
 428              	.Letext0:
 429              		.file 3 "c:\\users\\stapi\\onedrive\\desktop\\gd32vw553\\embeddedbuilder_v1.4.7.26843\\tools\\nucl
 430              		.file 4 "c:\\users\\stapi\\onedrive\\desktop\\gd32vw553\\embeddedbuilder_v1.4.7.26843\\tools\\nucl
 431              		.file 5 "..\\..\\..\\..\\cloud\\alicloud\\include/iot_export.h"
 432              		.file 6 "..\\..\\..\\..\\cloud\\alicloud\\src\\services\\dev_bind/awss_cmp.h"
 433              		.file 7 "..\\..\\..\\..\\cloud\\alicloud\\include/imports/iot_import_awss.h"
 434              		.file 8 "..\\..\\..\\..\\cloud\\alicloud\\include/iot_import.h"
 435              		.file 9 "..\\..\\..\\..\\cloud\\alicloud\\src\\services\\dev_bind/awss_event.h"
 436              		.file 10 "..\\..\\..\\..\\cloud\\alicloud\\src\\services\\dev_bind/awss_timer.h"
 437              		.file 11 "C:/Users/stapi/OneDrive/Desktop/GD32VW553/V1_MQTT_OK/GD32VW55X_Wifi_BLE_SDK/GD32VW55x_RE
 438              		.file 12 "C:/Users/stapi/OneDrive/Desktop/GD32VW553/V1_MQTT_OK/GD32VW55X_Wifi_BLE_SDK/GD32VW55x_RE
 439              		.file 13 "..\\..\\..\\..\\cloud\\alicloud\\src\\services\\dev_bind/awss_notify.h"
 440              		.file 14 "C:/Users/stapi/OneDrive/Desktop/GD32VW553/V1_MQTT_OK/GD32VW55X_Wifi_BLE_SDK/GD32VW55x_RE
 441              		.file 15 "..\\..\\..\\..\\cloud\\alicloud\\include/exports/iot_export_event.h"