   1              		.file	"awss_statis.c"
   2              		.option nopic
   3              		.attribute arch, "rv32i2p0_m2p0_a2p0_f2p0_c2p0_b_p0p94"
   4              		.attribute unaligned_access, 0
   5              		.attribute stack_align, 16
   6              		.text
   7              	.Ltext0:
   8              		.cfi_sections	.debug_frame
   9              		.section	.rodata.awss_report_statis.str1.4,"aMS",@progbits,1
  10              		.align	2
  11              	.LC0:
  12 0000 64656661 		.string	"default"
  12      756C7400 
  13              		.align	2
  14              	.LC1:
  15 0008 73756363 		.string	"success"
  15      65737300 
  16              		.align	2
  17              	.LC2:
  18 0010 6661696C 		.string	"fail"
  18      00
  19 0015 000000   		.align	2
  20              	.LC3:
  21 0018 2F737973 		.string	"/sys/%s/%s/thing/log/post"
  21      2F25732F 
  21      25732F74 
  21      68696E67 
  21      2F6C6F67 
  22 0032 0000     		.align	2
  23              	.LC4:
  24 0034 5B657272 		.string	"[err] "
  24      5D2000
  25 003b 00       		.align	2
  26              	.LC5:
  27 003c 61777373 		.string	"awss build statis topic fail\n"
  27      20627569 
  27      6C642073 
  27      74617469 
  27      7320746F 
  28 005a 0000     		.align	2
  29              	.LC6:
  30 005c 0D0A00   		.string	"\r\n"
  31 005f 00       		.align	2
  32              	.LC7:
  33 0060 436F6E6E 		.string	"ConnRouter"
  33      526F7574 
  33      657200
  34 006b 00       		.align	2
  35              	.LC8:
  36 006c 5B257320 		.string	"[%s max:%u min:%u mean:%u cnt:%u suc:%u crc-err:%u pw-err:%u],"
  36      6D61783A 
  36      2575206D 
  36      696E3A25 
  36      75206D65 
  37 00ab 00       		.align	2
  38              	.LC9:
  39 00ac 536D6172 		.string	"Smartconfig"
  39      74636F6E 
  39      66696700 
  40              		.align	2
  41              	.LC10:
  42 00b8 5A636F6E 		.string	"Zconfig"
  42      66696700 
  43              		.align	2
  44              	.LC11:
  45 00c0 4465762D 		.string	"Dev-ap"
  45      617000
  46 00c7 00       		.align	2
  47              	.LC12:
  48 00c8 41575353 		.string	"AWSS_TRACE"
  48      5F545241 
  48      434500
  49 00d3 00       		.align	2
  50              	.LC13:
  51 00d4 7B227465 		.string	"{\"template\":\"timestamp logLevel module traceContext logContent\",\"contents\":[\"%u %s
  51      6D706C61 
  51      7465223A 
  51      2274696D 
  51      65737461 
  52 0133 00       		.align	2
  53              	.LC14:
  54 0134 257500   		.string	"%u"
  55 0137 00       		.align	2
  56              	.LC15:
  57 0138 7468696E 		.string	"things.log.post"
  57      67732E6C 
  57      6F672E70 
  57      6F737400 
  58              		.align	2
  59              	.LC16:
  60 0148 312E3000 		.string	"1.0"
  61              		.align	2
  62              	.LC17:
  63 014c 25730A00 		.string	"%s\n"
  64              		.align	2
  65              	.LC18:
  66 0150 61777373 		.string	"awss"
  66      00
  67 0155 000000   		.align	2
  68              	.LC19:
  69 0158 5B696E66 		.string	"[inf] "
  69      5D2000
  70 015f 00       		.align	2
  71              	.LC20:
  72 0160 61777373 		.string	"awss report statis %s\n"
  72      20726570 
  72      6F727420 
  72      73746174 
  72      69732025 
  73              		.section	.text.awss_report_statis,"ax",@progbits
  74              		.align	1
  75              		.globl	awss_report_statis
  77              	awss_report_statis:
  78              	.LFB48:
  79              		.file 1 "C:/Users/stapi/OneDrive/Desktop/GD32VW553/V1_MQTT_OK/GD32VW55X_Wifi_BLE_SDK/GD32VW55x_REL
   1:C:/Users/stapi/OneDrive/Desktop/GD32VW553/V1_MQTT_OK/GD32VW55X_Wifi_BLE_SDK/GD32VW55x_RELEASE_V1.0.2/MSDK/cloud/alicloud/src/services/awss\awss_statis.c **** /*
   2:C:/Users/stapi/OneDrive/Desktop/GD32VW553/V1_MQTT_OK/GD32VW55X_Wifi_BLE_SDK/GD32VW55x_RELEASE_V1.0.2/MSDK/cloud/alicloud/src/services/awss\awss_statis.c ****  * Copyright (C) 2015-2018 Alibaba Group Holding Limited
   3:C:/Users/stapi/OneDrive/Desktop/GD32VW553/V1_MQTT_OK/GD32VW55X_Wifi_BLE_SDK/GD32VW55x_RELEASE_V1.0.2/MSDK/cloud/alicloud/src/services/awss\awss_statis.c ****  */
   4:C:/Users/stapi/OneDrive/Desktop/GD32VW553/V1_MQTT_OK/GD32VW55X_Wifi_BLE_SDK/GD32VW55x_RELEASE_V1.0.2/MSDK/cloud/alicloud/src/services/awss\awss_statis.c **** 
   5:C:/Users/stapi/OneDrive/Desktop/GD32VW553/V1_MQTT_OK/GD32VW55X_Wifi_BLE_SDK/GD32VW55x_RELEASE_V1.0.2/MSDK/cloud/alicloud/src/services/awss\awss_statis.c **** #include <stdint.h>
   6:C:/Users/stapi/OneDrive/Desktop/GD32VW553/V1_MQTT_OK/GD32VW55X_Wifi_BLE_SDK/GD32VW55x_RELEASE_V1.0.2/MSDK/cloud/alicloud/src/services/awss\awss_statis.c **** #include <string.h>
   7:C:/Users/stapi/OneDrive/Desktop/GD32VW553/V1_MQTT_OK/GD32VW55X_Wifi_BLE_SDK/GD32VW55x_RELEASE_V1.0.2/MSDK/cloud/alicloud/src/services/awss\awss_statis.c **** 
   8:C:/Users/stapi/OneDrive/Desktop/GD32VW553/V1_MQTT_OK/GD32VW55X_Wifi_BLE_SDK/GD32VW55x_RELEASE_V1.0.2/MSDK/cloud/alicloud/src/services/awss\awss_statis.c **** #include "iot_import.h"
   9:C:/Users/stapi/OneDrive/Desktop/GD32VW553/V1_MQTT_OK/GD32VW55X_Wifi_BLE_SDK/GD32VW55x_RELEASE_V1.0.2/MSDK/cloud/alicloud/src/services/awss\awss_statis.c **** #include "os.h"
  10:C:/Users/stapi/OneDrive/Desktop/GD32VW553/V1_MQTT_OK/GD32VW55X_Wifi_BLE_SDK/GD32VW55x_RELEASE_V1.0.2/MSDK/cloud/alicloud/src/services/awss\awss_statis.c **** #include "awss_log.h"
  11:C:/Users/stapi/OneDrive/Desktop/GD32VW553/V1_MQTT_OK/GD32VW55X_Wifi_BLE_SDK/GD32VW55x_RELEASE_V1.0.2/MSDK/cloud/alicloud/src/services/awss\awss_statis.c **** #include "awss_cmp.h"
  12:C:/Users/stapi/OneDrive/Desktop/GD32VW553/V1_MQTT_OK/GD32VW55X_Wifi_BLE_SDK/GD32VW55x_RELEASE_V1.0.2/MSDK/cloud/alicloud/src/services/awss\awss_statis.c **** #include "awss_packet.h"
  13:C:/Users/stapi/OneDrive/Desktop/GD32VW553/V1_MQTT_OK/GD32VW55X_Wifi_BLE_SDK/GD32VW55x_RELEASE_V1.0.2/MSDK/cloud/alicloud/src/services/awss\awss_statis.c **** #include "awss_statis.h"
  14:C:/Users/stapi/OneDrive/Desktop/GD32VW553/V1_MQTT_OK/GD32VW55X_Wifi_BLE_SDK/GD32VW55x_RELEASE_V1.0.2/MSDK/cloud/alicloud/src/services/awss\awss_statis.c **** 
  15:C:/Users/stapi/OneDrive/Desktop/GD32VW553/V1_MQTT_OK/GD32VW55X_Wifi_BLE_SDK/GD32VW55x_RELEASE_V1.0.2/MSDK/cloud/alicloud/src/services/awss\awss_statis.c **** #ifdef AWSS_SUPPORT_STATIS
  16:C:/Users/stapi/OneDrive/Desktop/GD32VW553/V1_MQTT_OK/GD32VW55X_Wifi_BLE_SDK/GD32VW55x_RELEASE_V1.0.2/MSDK/cloud/alicloud/src/services/awss\awss_statis.c **** 
  17:C:/Users/stapi/OneDrive/Desktop/GD32VW553/V1_MQTT_OK/GD32VW55X_Wifi_BLE_SDK/GD32VW55x_RELEASE_V1.0.2/MSDK/cloud/alicloud/src/services/awss\awss_statis.c **** #define DROUTE_START    g_awss_statis.droute.conn_router_start
  18:C:/Users/stapi/OneDrive/Desktop/GD32VW553/V1_MQTT_OK/GD32VW55X_Wifi_BLE_SDK/GD32VW55x_RELEASE_V1.0.2/MSDK/cloud/alicloud/src/services/awss\awss_statis.c **** #define DROUTE_END      g_awss_statis.droute.conn_router_end
  19:C:/Users/stapi/OneDrive/Desktop/GD32VW553/V1_MQTT_OK/GD32VW55X_Wifi_BLE_SDK/GD32VW55x_RELEASE_V1.0.2/MSDK/cloud/alicloud/src/services/awss\awss_statis.c **** #define DROUTE_CNT      g_awss_statis.droute.conn_router_cnt
  20:C:/Users/stapi/OneDrive/Desktop/GD32VW553/V1_MQTT_OK/GD32VW55X_Wifi_BLE_SDK/GD32VW55x_RELEASE_V1.0.2/MSDK/cloud/alicloud/src/services/awss\awss_statis.c **** #define DROUTE_SUC      g_awss_statis.droute.conn_router_suc
  21:C:/Users/stapi/OneDrive/Desktop/GD32VW553/V1_MQTT_OK/GD32VW55X_Wifi_BLE_SDK/GD32VW55x_RELEASE_V1.0.2/MSDK/cloud/alicloud/src/services/awss\awss_statis.c **** #define DROUTE_TMIN     g_awss_statis.droute.conn_router_time_min
  22:C:/Users/stapi/OneDrive/Desktop/GD32VW553/V1_MQTT_OK/GD32VW55X_Wifi_BLE_SDK/GD32VW55x_RELEASE_V1.0.2/MSDK/cloud/alicloud/src/services/awss\awss_statis.c **** #define DROUTE_TMAX     g_awss_statis.droute.conn_router_time_max
  23:C:/Users/stapi/OneDrive/Desktop/GD32VW553/V1_MQTT_OK/GD32VW55X_Wifi_BLE_SDK/GD32VW55x_RELEASE_V1.0.2/MSDK/cloud/alicloud/src/services/awss\awss_statis.c **** #define DROUTE_TMEAN    g_awss_statis.droute.conn_router_time_mean
  24:C:/Users/stapi/OneDrive/Desktop/GD32VW553/V1_MQTT_OK/GD32VW55X_Wifi_BLE_SDK/GD32VW55x_RELEASE_V1.0.2/MSDK/cloud/alicloud/src/services/awss\awss_statis.c **** 
  25:C:/Users/stapi/OneDrive/Desktop/GD32VW553/V1_MQTT_OK/GD32VW55X_Wifi_BLE_SDK/GD32VW55x_RELEASE_V1.0.2/MSDK/cloud/alicloud/src/services/awss\awss_statis.c **** #ifdef  AWSS_SUPPORT_SMARTCONFIG
  26:C:/Users/stapi/OneDrive/Desktop/GD32VW553/V1_MQTT_OK/GD32VW55X_Wifi_BLE_SDK/GD32VW55x_RELEASE_V1.0.2/MSDK/cloud/alicloud/src/services/awss\awss_statis.c **** #ifdef  AWSS_SUPPORT_SMARTCONFIG_WPS
  27:C:/Users/stapi/OneDrive/Desktop/GD32VW553/V1_MQTT_OK/GD32VW55X_Wifi_BLE_SDK/GD32VW55x_RELEASE_V1.0.2/MSDK/cloud/alicloud/src/services/awss\awss_statis.c **** #define WPS_CNT         g_awss_statis.wps.wps_parse_cnt
  28:C:/Users/stapi/OneDrive/Desktop/GD32VW553/V1_MQTT_OK/GD32VW55X_Wifi_BLE_SDK/GD32VW55x_RELEASE_V1.0.2/MSDK/cloud/alicloud/src/services/awss\awss_statis.c **** #define WPS_CRC_ERR     g_awss_statis.wps.wps_parse_crc_err
  29:C:/Users/stapi/OneDrive/Desktop/GD32VW553/V1_MQTT_OK/GD32VW55X_Wifi_BLE_SDK/GD32VW55x_RELEASE_V1.0.2/MSDK/cloud/alicloud/src/services/awss\awss_statis.c **** #define WPS_PW_ERR      g_awss_statis.wps.wps_parse_passwd_err
  30:C:/Users/stapi/OneDrive/Desktop/GD32VW553/V1_MQTT_OK/GD32VW55X_Wifi_BLE_SDK/GD32VW55x_RELEASE_V1.0.2/MSDK/cloud/alicloud/src/services/awss\awss_statis.c **** #define WPS_SUC         g_awss_statis.wps.wps_parse_suc
  31:C:/Users/stapi/OneDrive/Desktop/GD32VW553/V1_MQTT_OK/GD32VW55X_Wifi_BLE_SDK/GD32VW55x_RELEASE_V1.0.2/MSDK/cloud/alicloud/src/services/awss\awss_statis.c **** #endif
  32:C:/Users/stapi/OneDrive/Desktop/GD32VW553/V1_MQTT_OK/GD32VW55X_Wifi_BLE_SDK/GD32VW55x_RELEASE_V1.0.2/MSDK/cloud/alicloud/src/services/awss\awss_statis.c **** #define SM_CNT          g_awss_statis.sm.sm_parse_cnt
  33:C:/Users/stapi/OneDrive/Desktop/GD32VW553/V1_MQTT_OK/GD32VW55X_Wifi_BLE_SDK/GD32VW55x_RELEASE_V1.0.2/MSDK/cloud/alicloud/src/services/awss\awss_statis.c **** #define SM_CRC_ERR      g_awss_statis.sm.sm_parse_crc_err
  34:C:/Users/stapi/OneDrive/Desktop/GD32VW553/V1_MQTT_OK/GD32VW55X_Wifi_BLE_SDK/GD32VW55x_RELEASE_V1.0.2/MSDK/cloud/alicloud/src/services/awss\awss_statis.c **** #define SM_PW_ERR       g_awss_statis.sm.sm_parse_passwd_err
  35:C:/Users/stapi/OneDrive/Desktop/GD32VW553/V1_MQTT_OK/GD32VW55X_Wifi_BLE_SDK/GD32VW55x_RELEASE_V1.0.2/MSDK/cloud/alicloud/src/services/awss\awss_statis.c **** #define SM_SUC          g_awss_statis.sm.sm_parse_suc
  36:C:/Users/stapi/OneDrive/Desktop/GD32VW553/V1_MQTT_OK/GD32VW55X_Wifi_BLE_SDK/GD32VW55x_RELEASE_V1.0.2/MSDK/cloud/alicloud/src/services/awss\awss_statis.c **** #define SM_START        g_awss_statis.sm.sm_parse_start
  37:C:/Users/stapi/OneDrive/Desktop/GD32VW553/V1_MQTT_OK/GD32VW55X_Wifi_BLE_SDK/GD32VW55x_RELEASE_V1.0.2/MSDK/cloud/alicloud/src/services/awss\awss_statis.c **** #define SM_END          g_awss_statis.sm.sm_parse_end
  38:C:/Users/stapi/OneDrive/Desktop/GD32VW553/V1_MQTT_OK/GD32VW55X_Wifi_BLE_SDK/GD32VW55x_RELEASE_V1.0.2/MSDK/cloud/alicloud/src/services/awss\awss_statis.c **** #define SM_TMIN         g_awss_statis.sm.sm_time_min
  39:C:/Users/stapi/OneDrive/Desktop/GD32VW553/V1_MQTT_OK/GD32VW55X_Wifi_BLE_SDK/GD32VW55x_RELEASE_V1.0.2/MSDK/cloud/alicloud/src/services/awss\awss_statis.c **** #define SM_TMAX         g_awss_statis.sm.sm_time_max
  40:C:/Users/stapi/OneDrive/Desktop/GD32VW553/V1_MQTT_OK/GD32VW55X_Wifi_BLE_SDK/GD32VW55x_RELEASE_V1.0.2/MSDK/cloud/alicloud/src/services/awss\awss_statis.c **** #define SM_TMEAN        g_awss_statis.sm.sm_time_mean
  41:C:/Users/stapi/OneDrive/Desktop/GD32VW553/V1_MQTT_OK/GD32VW55X_Wifi_BLE_SDK/GD32VW55x_RELEASE_V1.0.2/MSDK/cloud/alicloud/src/services/awss\awss_statis.c **** #endif
  42:C:/Users/stapi/OneDrive/Desktop/GD32VW553/V1_MQTT_OK/GD32VW55X_Wifi_BLE_SDK/GD32VW55x_RELEASE_V1.0.2/MSDK/cloud/alicloud/src/services/awss\awss_statis.c **** 
  43:C:/Users/stapi/OneDrive/Desktop/GD32VW553/V1_MQTT_OK/GD32VW55X_Wifi_BLE_SDK/GD32VW55x_RELEASE_V1.0.2/MSDK/cloud/alicloud/src/services/awss\awss_statis.c **** #ifdef  AWSS_SUPPORT_AHA
  44:C:/Users/stapi/OneDrive/Desktop/GD32VW553/V1_MQTT_OK/GD32VW55X_Wifi_BLE_SDK/GD32VW55x_RELEASE_V1.0.2/MSDK/cloud/alicloud/src/services/awss\awss_statis.c **** #define PAP_CNT         g_awss_statis.pap.aha_cnt
  45:C:/Users/stapi/OneDrive/Desktop/GD32VW553/V1_MQTT_OK/GD32VW55X_Wifi_BLE_SDK/GD32VW55x_RELEASE_V1.0.2/MSDK/cloud/alicloud/src/services/awss\awss_statis.c **** #define PAP_SUC         g_awss_statis.pap.aha_suc
  46:C:/Users/stapi/OneDrive/Desktop/GD32VW553/V1_MQTT_OK/GD32VW55X_Wifi_BLE_SDK/GD32VW55x_RELEASE_V1.0.2/MSDK/cloud/alicloud/src/services/awss\awss_statis.c **** #define PAP_TMIN        g_awss_statis.pap.aha_time_min
  47:C:/Users/stapi/OneDrive/Desktop/GD32VW553/V1_MQTT_OK/GD32VW55X_Wifi_BLE_SDK/GD32VW55x_RELEASE_V1.0.2/MSDK/cloud/alicloud/src/services/awss\awss_statis.c **** #define PAP_TMAX        g_awss_statis.pap.aha_time_max
  48:C:/Users/stapi/OneDrive/Desktop/GD32VW553/V1_MQTT_OK/GD32VW55X_Wifi_BLE_SDK/GD32VW55x_RELEASE_V1.0.2/MSDK/cloud/alicloud/src/services/awss\awss_statis.c **** #define PAP_TMEAN       g_awss_statis.pap.aha_time_mean
  49:C:/Users/stapi/OneDrive/Desktop/GD32VW553/V1_MQTT_OK/GD32VW55X_Wifi_BLE_SDK/GD32VW55x_RELEASE_V1.0.2/MSDK/cloud/alicloud/src/services/awss\awss_statis.c **** #define PAP_START       g_awss_statis.pap.aha_start
  50:C:/Users/stapi/OneDrive/Desktop/GD32VW553/V1_MQTT_OK/GD32VW55X_Wifi_BLE_SDK/GD32VW55x_RELEASE_V1.0.2/MSDK/cloud/alicloud/src/services/awss\awss_statis.c **** #define PAP_END         g_awss_statis.pap.aha_end
  51:C:/Users/stapi/OneDrive/Desktop/GD32VW553/V1_MQTT_OK/GD32VW55X_Wifi_BLE_SDK/GD32VW55x_RELEASE_V1.0.2/MSDK/cloud/alicloud/src/services/awss\awss_statis.c **** #define PAP_SSTART      g_awss_statis.pap.aha_scan_start
  52:C:/Users/stapi/OneDrive/Desktop/GD32VW553/V1_MQTT_OK/GD32VW55X_Wifi_BLE_SDK/GD32VW55x_RELEASE_V1.0.2/MSDK/cloud/alicloud/src/services/awss\awss_statis.c **** #define PAP_SSTOP       g_awss_statis.pap.aha_scan_end
  53:C:/Users/stapi/OneDrive/Desktop/GD32VW553/V1_MQTT_OK/GD32VW55X_Wifi_BLE_SDK/GD32VW55x_RELEASE_V1.0.2/MSDK/cloud/alicloud/src/services/awss\awss_statis.c **** #define PAP_SAP         g_awss_statis.pap.aha_switch_ap
  54:C:/Users/stapi/OneDrive/Desktop/GD32VW553/V1_MQTT_OK/GD32VW55X_Wifi_BLE_SDK/GD32VW55x_RELEASE_V1.0.2/MSDK/cloud/alicloud/src/services/awss\awss_statis.c **** #define PAP_PW_ERR      g_awss_statis.pap.aha_passwd_err
  55:C:/Users/stapi/OneDrive/Desktop/GD32VW553/V1_MQTT_OK/GD32VW55X_Wifi_BLE_SDK/GD32VW55x_RELEASE_V1.0.2/MSDK/cloud/alicloud/src/services/awss\awss_statis.c **** #endif
  56:C:/Users/stapi/OneDrive/Desktop/GD32VW553/V1_MQTT_OK/GD32VW55X_Wifi_BLE_SDK/GD32VW55x_RELEASE_V1.0.2/MSDK/cloud/alicloud/src/services/awss\awss_statis.c **** 
  57:C:/Users/stapi/OneDrive/Desktop/GD32VW553/V1_MQTT_OK/GD32VW55X_Wifi_BLE_SDK/GD32VW55x_RELEASE_V1.0.2/MSDK/cloud/alicloud/src/services/awss\awss_statis.c **** #ifdef  AWSS_SUPPORT_DEV_AP
  58:C:/Users/stapi/OneDrive/Desktop/GD32VW553/V1_MQTT_OK/GD32VW55X_Wifi_BLE_SDK/GD32VW55x_RELEASE_V1.0.2/MSDK/cloud/alicloud/src/services/awss\awss_statis.c **** #define DAP_CNT         g_awss_statis.dap.dev_ap_cnt
  59:C:/Users/stapi/OneDrive/Desktop/GD32VW553/V1_MQTT_OK/GD32VW55X_Wifi_BLE_SDK/GD32VW55x_RELEASE_V1.0.2/MSDK/cloud/alicloud/src/services/awss\awss_statis.c **** #define DAP_SUC         g_awss_statis.dap.dev_ap_suc
  60:C:/Users/stapi/OneDrive/Desktop/GD32VW553/V1_MQTT_OK/GD32VW55X_Wifi_BLE_SDK/GD32VW55x_RELEASE_V1.0.2/MSDK/cloud/alicloud/src/services/awss\awss_statis.c **** #define DAP_TMIN        g_awss_statis.dap.dev_ap_time_min
  61:C:/Users/stapi/OneDrive/Desktop/GD32VW553/V1_MQTT_OK/GD32VW55X_Wifi_BLE_SDK/GD32VW55x_RELEASE_V1.0.2/MSDK/cloud/alicloud/src/services/awss\awss_statis.c **** #define DAP_TMAX        g_awss_statis.dap.dev_ap_time_max
  62:C:/Users/stapi/OneDrive/Desktop/GD32VW553/V1_MQTT_OK/GD32VW55X_Wifi_BLE_SDK/GD32VW55x_RELEASE_V1.0.2/MSDK/cloud/alicloud/src/services/awss\awss_statis.c **** #define DAP_TMEAN       g_awss_statis.dap.dev_ap_time_mean
  63:C:/Users/stapi/OneDrive/Desktop/GD32VW553/V1_MQTT_OK/GD32VW55X_Wifi_BLE_SDK/GD32VW55x_RELEASE_V1.0.2/MSDK/cloud/alicloud/src/services/awss\awss_statis.c **** #define DAP_START       g_awss_statis.dap.dev_ap_start
  64:C:/Users/stapi/OneDrive/Desktop/GD32VW553/V1_MQTT_OK/GD32VW55X_Wifi_BLE_SDK/GD32VW55x_RELEASE_V1.0.2/MSDK/cloud/alicloud/src/services/awss\awss_statis.c **** #define DAP_END         g_awss_statis.dap.dev_ap_end
  65:C:/Users/stapi/OneDrive/Desktop/GD32VW553/V1_MQTT_OK/GD32VW55X_Wifi_BLE_SDK/GD32VW55x_RELEASE_V1.0.2/MSDK/cloud/alicloud/src/services/awss\awss_statis.c **** #define DAP_PW_ERR      g_awss_statis.dap.dev_ap_passwd_err
  66:C:/Users/stapi/OneDrive/Desktop/GD32VW553/V1_MQTT_OK/GD32VW55X_Wifi_BLE_SDK/GD32VW55x_RELEASE_V1.0.2/MSDK/cloud/alicloud/src/services/awss\awss_statis.c **** #endif
  67:C:/Users/stapi/OneDrive/Desktop/GD32VW553/V1_MQTT_OK/GD32VW55X_Wifi_BLE_SDK/GD32VW55x_RELEASE_V1.0.2/MSDK/cloud/alicloud/src/services/awss\awss_statis.c **** 
  68:C:/Users/stapi/OneDrive/Desktop/GD32VW553/V1_MQTT_OK/GD32VW55X_Wifi_BLE_SDK/GD32VW55x_RELEASE_V1.0.2/MSDK/cloud/alicloud/src/services/awss\awss_statis.c **** #ifdef  AWSS_SUPPORT_ADHA
  69:C:/Users/stapi/OneDrive/Desktop/GD32VW553/V1_MQTT_OK/GD32VW55X_Wifi_BLE_SDK/GD32VW55x_RELEASE_V1.0.2/MSDK/cloud/alicloud/src/services/awss\awss_statis.c **** #define ROUTE_CNT       g_awss_statis.route.adha_cnt
  70:C:/Users/stapi/OneDrive/Desktop/GD32VW553/V1_MQTT_OK/GD32VW55X_Wifi_BLE_SDK/GD32VW55x_RELEASE_V1.0.2/MSDK/cloud/alicloud/src/services/awss\awss_statis.c **** #define ROUTE_SUC       g_awss_statis.route.adha_suc
  71:C:/Users/stapi/OneDrive/Desktop/GD32VW553/V1_MQTT_OK/GD32VW55X_Wifi_BLE_SDK/GD32VW55x_RELEASE_V1.0.2/MSDK/cloud/alicloud/src/services/awss\awss_statis.c **** #define ROUTE_TMIN      g_awss_statis.route.adha_time_min
  72:C:/Users/stapi/OneDrive/Desktop/GD32VW553/V1_MQTT_OK/GD32VW55X_Wifi_BLE_SDK/GD32VW55x_RELEASE_V1.0.2/MSDK/cloud/alicloud/src/services/awss\awss_statis.c **** #define ROUTE_TMAX      g_awss_statis.route.adha_time_max
  73:C:/Users/stapi/OneDrive/Desktop/GD32VW553/V1_MQTT_OK/GD32VW55X_Wifi_BLE_SDK/GD32VW55x_RELEASE_V1.0.2/MSDK/cloud/alicloud/src/services/awss\awss_statis.c **** #define ROUTE_TMEAN     g_awss_statis.route.adha_time_mean
  74:C:/Users/stapi/OneDrive/Desktop/GD32VW553/V1_MQTT_OK/GD32VW55X_Wifi_BLE_SDK/GD32VW55x_RELEASE_V1.0.2/MSDK/cloud/alicloud/src/services/awss\awss_statis.c **** #define ROUTE_START     g_awss_statis.route.adha_start
  75:C:/Users/stapi/OneDrive/Desktop/GD32VW553/V1_MQTT_OK/GD32VW55X_Wifi_BLE_SDK/GD32VW55x_RELEASE_V1.0.2/MSDK/cloud/alicloud/src/services/awss\awss_statis.c **** #define ROUTE_END       g_awss_statis.route.adha_end
  76:C:/Users/stapi/OneDrive/Desktop/GD32VW553/V1_MQTT_OK/GD32VW55X_Wifi_BLE_SDK/GD32VW55x_RELEASE_V1.0.2/MSDK/cloud/alicloud/src/services/awss\awss_statis.c **** #endif
  77:C:/Users/stapi/OneDrive/Desktop/GD32VW553/V1_MQTT_OK/GD32VW55X_Wifi_BLE_SDK/GD32VW55x_RELEASE_V1.0.2/MSDK/cloud/alicloud/src/services/awss\awss_statis.c **** 
  78:C:/Users/stapi/OneDrive/Desktop/GD32VW553/V1_MQTT_OK/GD32VW55X_Wifi_BLE_SDK/GD32VW55x_RELEASE_V1.0.2/MSDK/cloud/alicloud/src/services/awss\awss_statis.c **** #ifndef AWSS_DISABLE_ENROLLEE
  79:C:/Users/stapi/OneDrive/Desktop/GD32VW553/V1_MQTT_OK/GD32VW55X_Wifi_BLE_SDK/GD32VW55x_RELEASE_V1.0.2/MSDK/cloud/alicloud/src/services/awss\awss_statis.c **** #define ZC_CNT          g_awss_statis.zconfig.zc_cnt
  80:C:/Users/stapi/OneDrive/Desktop/GD32VW553/V1_MQTT_OK/GD32VW55X_Wifi_BLE_SDK/GD32VW55x_RELEASE_V1.0.2/MSDK/cloud/alicloud/src/services/awss\awss_statis.c **** #define ZC_SUC          g_awss_statis.zconfig.zc_suc
  81:C:/Users/stapi/OneDrive/Desktop/GD32VW553/V1_MQTT_OK/GD32VW55X_Wifi_BLE_SDK/GD32VW55x_RELEASE_V1.0.2/MSDK/cloud/alicloud/src/services/awss\awss_statis.c **** #define ZC_PW_ERR       g_awss_statis.zconfig.zc_passwd_err
  82:C:/Users/stapi/OneDrive/Desktop/GD32VW553/V1_MQTT_OK/GD32VW55X_Wifi_BLE_SDK/GD32VW55x_RELEASE_V1.0.2/MSDK/cloud/alicloud/src/services/awss\awss_statis.c **** #endif
  83:C:/Users/stapi/OneDrive/Desktop/GD32VW553/V1_MQTT_OK/GD32VW55X_Wifi_BLE_SDK/GD32VW55x_RELEASE_V1.0.2/MSDK/cloud/alicloud/src/services/awss\awss_statis.c **** 
  84:C:/Users/stapi/OneDrive/Desktop/GD32VW553/V1_MQTT_OK/GD32VW55X_Wifi_BLE_SDK/GD32VW55x_RELEASE_V1.0.2/MSDK/cloud/alicloud/src/services/awss\awss_statis.c **** #define AWSS_STATIS_BUF_LEN (768)
  85:C:/Users/stapi/OneDrive/Desktop/GD32VW553/V1_MQTT_OK/GD32VW55X_Wifi_BLE_SDK/GD32VW55x_RELEASE_V1.0.2/MSDK/cloud/alicloud/src/services/awss\awss_statis.c **** 
  86:C:/Users/stapi/OneDrive/Desktop/GD32VW553/V1_MQTT_OK/GD32VW55X_Wifi_BLE_SDK/GD32VW55x_RELEASE_V1.0.2/MSDK/cloud/alicloud/src/services/awss\awss_statis.c **** static void *awss_statis_mutex = NULL;
  87:C:/Users/stapi/OneDrive/Desktop/GD32VW553/V1_MQTT_OK/GD32VW55X_Wifi_BLE_SDK/GD32VW55x_RELEASE_V1.0.2/MSDK/cloud/alicloud/src/services/awss\awss_statis.c **** static uint32_t awss_statis_trace_id = 0;
  88:C:/Users/stapi/OneDrive/Desktop/GD32VW553/V1_MQTT_OK/GD32VW55X_Wifi_BLE_SDK/GD32VW55x_RELEASE_V1.0.2/MSDK/cloud/alicloud/src/services/awss\awss_statis.c **** static uint32_t awss_statis_report_id = 0;
  89:C:/Users/stapi/OneDrive/Desktop/GD32VW553/V1_MQTT_OK/GD32VW55X_Wifi_BLE_SDK/GD32VW55x_RELEASE_V1.0.2/MSDK/cloud/alicloud/src/services/awss\awss_statis.c **** static struct awss_statis_t g_awss_statis = {0};
  90:C:/Users/stapi/OneDrive/Desktop/GD32VW553/V1_MQTT_OK/GD32VW55X_Wifi_BLE_SDK/GD32VW55x_RELEASE_V1.0.2/MSDK/cloud/alicloud/src/services/awss\awss_statis.c **** 
  91:C:/Users/stapi/OneDrive/Desktop/GD32VW553/V1_MQTT_OK/GD32VW55X_Wifi_BLE_SDK/GD32VW55x_RELEASE_V1.0.2/MSDK/cloud/alicloud/src/services/awss\awss_statis.c **** int awss_report_statis(const char *module)
  92:C:/Users/stapi/OneDrive/Desktop/GD32VW553/V1_MQTT_OK/GD32VW55X_Wifi_BLE_SDK/GD32VW55x_RELEASE_V1.0.2/MSDK/cloud/alicloud/src/services/awss\awss_statis.c **** {
  80              		.loc 1 92 1
  81              		.cfi_startproc
  82              	.LVL0:
  83 0000 17030000 		call	t0,__riscv_save_6
  83      E7020300 
  84              		.cfi_offset 21, -28
  85              		.cfi_offset 20, -24
  86              		.cfi_offset 19, -20
  87              		.cfi_offset 18, -16
  88              		.cfi_offset 9, -12
  89              		.cfi_offset 8, -8
  90              		.cfi_offset 1, -4
  91              		.cfi_def_cfa_offset 32
  93:C:/Users/stapi/OneDrive/Desktop/GD32VW553/V1_MQTT_OK/GD32VW55X_Wifi_BLE_SDK/GD32VW55x_RELEASE_V1.0.2/MSDK/cloud/alicloud/src/services/awss\awss_statis.c ****     const char *elem_fmt = "[%s max:%u min:%u mean:%u cnt:%u suc:%u crc-err:%u pw-err:%u],";
  92              		.loc 1 93 5
  93              	.LVL1:
  94:C:/Users/stapi/OneDrive/Desktop/GD32VW553/V1_MQTT_OK/GD32VW55X_Wifi_BLE_SDK/GD32VW55x_RELEASE_V1.0.2/MSDK/cloud/alicloud/src/services/awss\awss_statis.c ****     int log_buf_len = AWSS_STATIS_BUF_LEN + strlen(AWSS_STATIS_FMT) + 21;
  94              		.loc 1 94 5
  92:C:/Users/stapi/OneDrive/Desktop/GD32VW553/V1_MQTT_OK/GD32VW55X_Wifi_BLE_SDK/GD32VW55x_RELEASE_V1.0.2/MSDK/cloud/alicloud/src/services/awss\awss_statis.c ****     const char *elem_fmt = "[%s max:%u min:%u mean:%u cnt:%u suc:%u crc-err:%u pw-err:%u],";
  95              		.loc 1 92 1 is_stmt 0
  96 0008 3171     		addi	sp,sp,-192
  97              		.cfi_def_cfa_offset 224
  98              		.loc 1 94 9
  99 000a 93073037 		li	a5,883
  92:C:/Users/stapi/OneDrive/Desktop/GD32VW553/V1_MQTT_OK/GD32VW55X_Wifi_BLE_SDK/GD32VW55x_RELEASE_V1.0.2/MSDK/cloud/alicloud/src/services/awss\awss_statis.c ****     const char *elem_fmt = "[%s max:%u min:%u mean:%u cnt:%u suc:%u crc-err:%u pw-err:%u],";
 100              		.loc 1 92 1
 101 000e AA89     		mv	s3,a0
  95:C:/Users/stapi/OneDrive/Desktop/GD32VW553/V1_MQTT_OK/GD32VW55X_Wifi_BLE_SDK/GD32VW55x_RELEASE_V1.0.2/MSDK/cloud/alicloud/src/services/awss\awss_statis.c ****     char statis_topic[TOPIC_LEN_MAX] = {0};
 102              		.loc 1 95 10
 103 0010 1306C007 		li	a2,124
 104 0014 8145     		li	a1,0
 105 0016 C800     		addi	a0,sp,68
 106              	.LVL2:
  94:C:/Users/stapi/OneDrive/Desktop/GD32VW553/V1_MQTT_OK/GD32VW55X_Wifi_BLE_SDK/GD32VW55x_RELEASE_V1.0.2/MSDK/cloud/alicloud/src/services/awss\awss_statis.c ****     int log_buf_len = AWSS_STATIS_BUF_LEN + strlen(AWSS_STATIS_FMT) + 21;
 107              		.loc 1 94 9
 108 0018 3ED2     		sw	a5,36(sp)
 109              		.loc 1 95 5 is_stmt 1
 110              		.loc 1 95 10 is_stmt 0
 111 001a 82C0     		sw	zero,64(sp)
 112 001c 97000000 		call	memset
 112      E7800000 
 113              	.LVL3:
  96:C:/Users/stapi/OneDrive/Desktop/GD32VW553/V1_MQTT_OK/GD32VW55X_Wifi_BLE_SDK/GD32VW55x_RELEASE_V1.0.2/MSDK/cloud/alicloud/src/services/awss\awss_statis.c ****     char *log_content = NULL;
 114              		.loc 1 96 5 is_stmt 1
  97:C:/Users/stapi/OneDrive/Desktop/GD32VW553/V1_MQTT_OK/GD32VW55X_Wifi_BLE_SDK/GD32VW55x_RELEASE_V1.0.2/MSDK/cloud/alicloud/src/services/awss\awss_statis.c ****     char id_str[21] = {0};
 115              		.loc 1 97 5
 116              	.LBB28:
 117              	.LBB29:
 118              	.LBB30:
 119              	.LBB31:
 120              		.file 2 "..\\..\\..\\..\\cloud\\alicloud\\src\\services\\dev_bind\\os/os.h"
   1:..\..\..\..\cloud\alicloud\src\services\dev_bind\os/os.h **** /*
   2:..\..\..\..\cloud\alicloud\src\services\dev_bind\os/os.h ****  * Copyright (C) 2015-2018 Alibaba Group Holding Limited
   3:..\..\..\..\cloud\alicloud\src\services\dev_bind\os/os.h ****  */
   4:..\..\..\..\cloud\alicloud\src\services\dev_bind\os/os.h **** 
   5:..\..\..\..\cloud\alicloud\src\services\dev_bind\os/os.h **** #ifndef __AWSS_OS_H__
   6:..\..\..\..\cloud\alicloud\src\services\dev_bind\os/os.h **** #define __AWSS_OS_H__
   7:..\..\..\..\cloud\alicloud\src\services\dev_bind\os/os.h **** 
   8:..\..\..\..\cloud\alicloud\src\services\dev_bind\os/os.h **** #ifdef __cplusplus
   9:..\..\..\..\cloud\alicloud\src\services\dev_bind\os/os.h **** extern "C" {
  10:..\..\..\..\cloud\alicloud\src\services\dev_bind\os/os.h **** #endif
  11:..\..\..\..\cloud\alicloud\src\services\dev_bind\os/os.h **** #include <ctype.h>
  12:..\..\..\..\cloud\alicloud\src\services\dev_bind\os/os.h **** #include "iot_import.h"
  13:..\..\..\..\cloud\alicloud\src\services\dev_bind\os/os.h **** #include "iot_export.h"
  14:..\..\..\..\cloud\alicloud\src\services\dev_bind\os/os.h **** #include "product/product.h"
  15:..\..\..\..\cloud\alicloud\src\services\dev_bind\os/os.h **** #include "platform.h"
  16:..\..\..\..\cloud\alicloud\src\services\dev_bind\os/os.h **** 
  17:..\..\..\..\cloud\alicloud\src\services\dev_bind\os/os.h **** /** @defgroup group_os os
  18:..\..\..\..\cloud\alicloud\src\services\dev_bind\os/os.h ****  *  @{
  19:..\..\..\..\cloud\alicloud\src\services\dev_bind\os/os.h ****  */
  20:..\..\..\..\cloud\alicloud\src\services\dev_bind\os/os.h **** 
  21:..\..\..\..\cloud\alicloud\src\services\dev_bind\os/os.h **** #define OS_MAX_SSID_LEN         PLATFORM_MAX_SSID_LEN
  22:..\..\..\..\cloud\alicloud\src\services\dev_bind\os/os.h **** #define OS_MAX_PASSWD_LEN       PLATFORM_MAX_PASSWD_LEN
  23:..\..\..\..\cloud\alicloud\src\services\dev_bind\os/os.h **** 
  24:..\..\..\..\cloud\alicloud\src\services\dev_bind\os/os.h **** #define OS_MAC_LEN              PLATFORM_MAC_LEN
  25:..\..\..\..\cloud\alicloud\src\services\dev_bind\os/os.h **** #define OS_IP_LEN               PLATFORM_IP_LEN
  26:..\..\..\..\cloud\alicloud\src\services\dev_bind\os/os.h **** #define OS_ETH_ALEN             ETH_ALEN
  27:..\..\..\..\cloud\alicloud\src\services\dev_bind\os/os.h **** 
  28:..\..\..\..\cloud\alicloud\src\services\dev_bind\os/os.h **** #define OS_PRODUCT_KEY_LEN      PRODUCT_KEY_LEN
  29:..\..\..\..\cloud\alicloud\src\services\dev_bind\os/os.h **** #define OS_PRODUCT_SECRET_LEN   PRODUCT_SECRET_LEN
  30:..\..\..\..\cloud\alicloud\src\services\dev_bind\os/os.h **** #define OS_DEVICE_NAME_LEN      DEVICE_NAME_LEN
  31:..\..\..\..\cloud\alicloud\src\services\dev_bind\os/os.h **** #define OS_DEVICE_SECRET_LEN    DEVICE_SECRET_LEN
  32:..\..\..\..\cloud\alicloud\src\services\dev_bind\os/os.h **** 
  33:..\..\..\..\cloud\alicloud\src\services\dev_bind\os/os.h **** /***************************************** Misc Interface *****************************************
  34:..\..\..\..\cloud\alicloud\src\services\dev_bind\os/os.h **** 
  35:..\..\..\..\cloud\alicloud\src\services\dev_bind\os/os.h **** /** @defgroup group_misc misc
  36:..\..\..\..\cloud\alicloud\src\services\dev_bind\os/os.h ****  *  @{
  37:..\..\..\..\cloud\alicloud\src\services\dev_bind\os/os.h ****  */
  38:..\..\..\..\cloud\alicloud\src\services\dev_bind\os/os.h **** /**
  39:..\..\..\..\cloud\alicloud\src\services\dev_bind\os/os.h ****  * @brief .
  40:..\..\..\..\cloud\alicloud\src\services\dev_bind\os/os.h ****  *
  41:..\..\..\..\cloud\alicloud\src\services\dev_bind\os/os.h ****  * @param None.
  42:..\..\..\..\cloud\alicloud\src\services\dev_bind\os/os.h ****  * @return
  43:..\..\..\..\cloud\alicloud\src\services\dev_bind\os/os.h ****  * @verbatim
  44:..\..\..\..\cloud\alicloud\src\services\dev_bind\os/os.h ****  * = 0, This platform is little endian.
  45:..\..\..\..\cloud\alicloud\src\services\dev_bind\os/os.h ****  * = 1, This platform is big endian.
  46:..\..\..\..\cloud\alicloud\src\services\dev_bind\os/os.h ****  * @endverbatim
  47:..\..\..\..\cloud\alicloud\src\services\dev_bind\os/os.h ****  * @see None.
  48:..\..\..\..\cloud\alicloud\src\services\dev_bind\os/os.h ****  * @note None.
  49:..\..\..\..\cloud\alicloud\src\services\dev_bind\os/os.h ****  */
  50:..\..\..\..\cloud\alicloud\src\services\dev_bind\os/os.h **** static inline int os_is_big_endian(void)
  51:..\..\..\..\cloud\alicloud\src\services\dev_bind\os/os.h **** {
  52:..\..\..\..\cloud\alicloud\src\services\dev_bind\os/os.h ****     uint32_t data = 0xFF000000;
  53:..\..\..\..\cloud\alicloud\src\services\dev_bind\os/os.h **** 
  54:..\..\..\..\cloud\alicloud\src\services\dev_bind\os/os.h ****     if (0xFF == *(uint8_t *) & data) {
  55:..\..\..\..\cloud\alicloud\src\services\dev_bind\os/os.h ****         return 1;                                    //big endian
  56:..\..\..\..\cloud\alicloud\src\services\dev_bind\os/os.h ****     }
  57:..\..\..\..\cloud\alicloud\src\services\dev_bind\os/os.h **** 
  58:..\..\..\..\cloud\alicloud\src\services\dev_bind\os/os.h ****     return 0;                                        //little endian
  59:..\..\..\..\cloud\alicloud\src\services\dev_bind\os/os.h **** }
  60:..\..\..\..\cloud\alicloud\src\services\dev_bind\os/os.h **** 
  61:..\..\..\..\cloud\alicloud\src\services\dev_bind\os/os.h **** /**
  62:..\..\..\..\cloud\alicloud\src\services\dev_bind\os/os.h ****  * @brief Convert the data from byte order of current CPU(the "host") to big-endian.
  63:..\..\..\..\cloud\alicloud\src\services\dev_bind\os/os.h ****    The size of the data is 16 bits.
  64:..\..\..\..\cloud\alicloud\src\services\dev_bind\os/os.h ****  *
  65:..\..\..\..\cloud\alicloud\src\services\dev_bind\os/os.h ****  * @param[in] data @n Data to be converted.
  66:..\..\..\..\cloud\alicloud\src\services\dev_bind\os/os.h ****  * @return Conversion result.
  67:..\..\..\..\cloud\alicloud\src\services\dev_bind\os/os.h ****  * @see None.
  68:..\..\..\..\cloud\alicloud\src\services\dev_bind\os/os.h ****  * @note None.
  69:..\..\..\..\cloud\alicloud\src\services\dev_bind\os/os.h ****  */
  70:..\..\..\..\cloud\alicloud\src\services\dev_bind\os/os.h **** uint16_t os_htobe16(uint16_t data);
  71:..\..\..\..\cloud\alicloud\src\services\dev_bind\os/os.h **** 
  72:..\..\..\..\cloud\alicloud\src\services\dev_bind\os/os.h **** /**
  73:..\..\..\..\cloud\alicloud\src\services\dev_bind\os/os.h ****  * @brief Convert the data from host to little-endian.
  74:..\..\..\..\cloud\alicloud\src\services\dev_bind\os/os.h ****    The size of the data is 16 bits.
  75:..\..\..\..\cloud\alicloud\src\services\dev_bind\os/os.h ****  *
  76:..\..\..\..\cloud\alicloud\src\services\dev_bind\os/os.h ****  * @param[in] data @n Data to be converted.
  77:..\..\..\..\cloud\alicloud\src\services\dev_bind\os/os.h ****  * @return Conversion result.
  78:..\..\..\..\cloud\alicloud\src\services\dev_bind\os/os.h ****  * @see None.
  79:..\..\..\..\cloud\alicloud\src\services\dev_bind\os/os.h ****  * @note None.
  80:..\..\..\..\cloud\alicloud\src\services\dev_bind\os/os.h ****  */
  81:..\..\..\..\cloud\alicloud\src\services\dev_bind\os/os.h **** uint16_t os_htole16(uint16_t data);
  82:..\..\..\..\cloud\alicloud\src\services\dev_bind\os/os.h **** 
  83:..\..\..\..\cloud\alicloud\src\services\dev_bind\os/os.h **** /**
  84:..\..\..\..\cloud\alicloud\src\services\dev_bind\os/os.h ****  * @brief Convert the data from big-endian to host.
  85:..\..\..\..\cloud\alicloud\src\services\dev_bind\os/os.h ****    The size of the data is 16 bits.
  86:..\..\..\..\cloud\alicloud\src\services\dev_bind\os/os.h ****  *
  87:..\..\..\..\cloud\alicloud\src\services\dev_bind\os/os.h ****  * @param[in] data @n Data to be converted.
  88:..\..\..\..\cloud\alicloud\src\services\dev_bind\os/os.h ****  * @return Conversion result.
  89:..\..\..\..\cloud\alicloud\src\services\dev_bind\os/os.h ****  * @see None.
  90:..\..\..\..\cloud\alicloud\src\services\dev_bind\os/os.h ****  * @note None.
  91:..\..\..\..\cloud\alicloud\src\services\dev_bind\os/os.h ****  */
  92:..\..\..\..\cloud\alicloud\src\services\dev_bind\os/os.h **** uint16_t os_be16toh(uint16_t data);
  93:..\..\..\..\cloud\alicloud\src\services\dev_bind\os/os.h **** 
  94:..\..\..\..\cloud\alicloud\src\services\dev_bind\os/os.h **** /**
  95:..\..\..\..\cloud\alicloud\src\services\dev_bind\os/os.h ****  * @brief Convert the data from little-endian to host.
  96:..\..\..\..\cloud\alicloud\src\services\dev_bind\os/os.h ****    The size of the data is 16 bits.
  97:..\..\..\..\cloud\alicloud\src\services\dev_bind\os/os.h ****  *
  98:..\..\..\..\cloud\alicloud\src\services\dev_bind\os/os.h ****  * @param[in] data @n Data to be converted.
  99:..\..\..\..\cloud\alicloud\src\services\dev_bind\os/os.h ****  * @return Conversion result.
 100:..\..\..\..\cloud\alicloud\src\services\dev_bind\os/os.h ****  * @see None.
 101:..\..\..\..\cloud\alicloud\src\services\dev_bind\os/os.h ****  * @note None.
 102:..\..\..\..\cloud\alicloud\src\services\dev_bind\os/os.h ****  */
 103:..\..\..\..\cloud\alicloud\src\services\dev_bind\os/os.h **** uint16_t os_le16toh(uint16_t data);
 104:..\..\..\..\cloud\alicloud\src\services\dev_bind\os/os.h **** 
 105:..\..\..\..\cloud\alicloud\src\services\dev_bind\os/os.h **** /**
 106:..\..\..\..\cloud\alicloud\src\services\dev_bind\os/os.h ****  * @brief Convert the data from little-endian to host.
 107:..\..\..\..\cloud\alicloud\src\services\dev_bind\os/os.h ****    The size of the data is 32 bits.
 108:..\..\..\..\cloud\alicloud\src\services\dev_bind\os/os.h ****  *
 109:..\..\..\..\cloud\alicloud\src\services\dev_bind\os/os.h ****  * @param[in] data @n Data to be converted.
 110:..\..\..\..\cloud\alicloud\src\services\dev_bind\os/os.h ****  * @return Conversion result.
 111:..\..\..\..\cloud\alicloud\src\services\dev_bind\os/os.h ****  * @see None.
 112:..\..\..\..\cloud\alicloud\src\services\dev_bind\os/os.h ****  * @note None.
 113:..\..\..\..\cloud\alicloud\src\services\dev_bind\os/os.h ****  */
 114:..\..\..\..\cloud\alicloud\src\services\dev_bind\os/os.h **** uint32_t os_le32toh(uint32_t data);
 115:..\..\..\..\cloud\alicloud\src\services\dev_bind\os/os.h **** 
 116:..\..\..\..\cloud\alicloud\src\services\dev_bind\os/os.h **** /**
 117:..\..\..\..\cloud\alicloud\src\services\dev_bind\os/os.h ****  * @brief Convert the data from host to big-endian.
 118:..\..\..\..\cloud\alicloud\src\services\dev_bind\os/os.h ****    The size of the data is 64 bits.
 119:..\..\..\..\cloud\alicloud\src\services\dev_bind\os/os.h ****  *
 120:..\..\..\..\cloud\alicloud\src\services\dev_bind\os/os.h ****  * @param[in] data @n Data to be converted.
 121:..\..\..\..\cloud\alicloud\src\services\dev_bind\os/os.h ****  * @return Conversion result.
 122:..\..\..\..\cloud\alicloud\src\services\dev_bind\os/os.h ****  * @see None.
 123:..\..\..\..\cloud\alicloud\src\services\dev_bind\os/os.h ****  * @note None.
 124:..\..\..\..\cloud\alicloud\src\services\dev_bind\os/os.h ****  */
 125:..\..\..\..\cloud\alicloud\src\services\dev_bind\os/os.h **** //uint64_t os_htobe64(uint64_t data);
 126:..\..\..\..\cloud\alicloud\src\services\dev_bind\os/os.h **** 
 127:..\..\..\..\cloud\alicloud\src\services\dev_bind\os/os.h **** /**
 128:..\..\..\..\cloud\alicloud\src\services\dev_bind\os/os.h ****  * @brief Convert the data from host to little-endian.
 129:..\..\..\..\cloud\alicloud\src\services\dev_bind\os/os.h ****    The size of the data is 64 bits.
 130:..\..\..\..\cloud\alicloud\src\services\dev_bind\os/os.h ****  *
 131:..\..\..\..\cloud\alicloud\src\services\dev_bind\os/os.h ****  * @param[in] data @n Data to be converted.
 132:..\..\..\..\cloud\alicloud\src\services\dev_bind\os/os.h ****  * @return Conversion result.
 133:..\..\..\..\cloud\alicloud\src\services\dev_bind\os/os.h ****  * @see None.
 134:..\..\..\..\cloud\alicloud\src\services\dev_bind\os/os.h ****  * @note None.
 135:..\..\..\..\cloud\alicloud\src\services\dev_bind\os/os.h ****  */
 136:..\..\..\..\cloud\alicloud\src\services\dev_bind\os/os.h **** //uint64_t os_htole64(uint64_t data);
 137:..\..\..\..\cloud\alicloud\src\services\dev_bind\os/os.h **** 
 138:..\..\..\..\cloud\alicloud\src\services\dev_bind\os/os.h **** /**
 139:..\..\..\..\cloud\alicloud\src\services\dev_bind\os/os.h ****  * @brief Convert the data from big-endian to host.
 140:..\..\..\..\cloud\alicloud\src\services\dev_bind\os/os.h ****    The size of the data is 64 bits.
 141:..\..\..\..\cloud\alicloud\src\services\dev_bind\os/os.h ****  *
 142:..\..\..\..\cloud\alicloud\src\services\dev_bind\os/os.h ****  * @param[in] data @n Data to be converted.
 143:..\..\..\..\cloud\alicloud\src\services\dev_bind\os/os.h ****  * @return Conversion result.
 144:..\..\..\..\cloud\alicloud\src\services\dev_bind\os/os.h ****  * @see None.
 145:..\..\..\..\cloud\alicloud\src\services\dev_bind\os/os.h ****  * @note None.
 146:..\..\..\..\cloud\alicloud\src\services\dev_bind\os/os.h ****  */
 147:..\..\..\..\cloud\alicloud\src\services\dev_bind\os/os.h **** //uint64_t os_be64toh(uint64_t data);
 148:..\..\..\..\cloud\alicloud\src\services\dev_bind\os/os.h **** 
 149:..\..\..\..\cloud\alicloud\src\services\dev_bind\os/os.h **** /**
 150:..\..\..\..\cloud\alicloud\src\services\dev_bind\os/os.h ****  * @brief Convert the data from little-endian to host.
 151:..\..\..\..\cloud\alicloud\src\services\dev_bind\os/os.h ****    The size of the data is 64 bits.
 152:..\..\..\..\cloud\alicloud\src\services\dev_bind\os/os.h ****  *
 153:..\..\..\..\cloud\alicloud\src\services\dev_bind\os/os.h ****  * @param[in] data @n Data to be converted.
 154:..\..\..\..\cloud\alicloud\src\services\dev_bind\os/os.h ****  * @return Conversion result.
 155:..\..\..\..\cloud\alicloud\src\services\dev_bind\os/os.h ****  * @see None.
 156:..\..\..\..\cloud\alicloud\src\services\dev_bind\os/os.h ****  * @note None.
 157:..\..\..\..\cloud\alicloud\src\services\dev_bind\os/os.h ****  */
 158:..\..\..\..\cloud\alicloud\src\services\dev_bind\os/os.h **** //uint64_t os_le64toh(uint64_t data);
 159:..\..\..\..\cloud\alicloud\src\services\dev_bind\os/os.h **** 
 160:..\..\..\..\cloud\alicloud\src\services\dev_bind\os/os.h **** /**
 161:..\..\..\..\cloud\alicloud\src\services\dev_bind\os/os.h ****  * @brief Get unaligned 16 bits data which is big-endian and convert to host byte order.
 162:..\..\..\..\cloud\alicloud\src\services\dev_bind\os/os.h ****  *
 163:..\..\..\..\cloud\alicloud\src\services\dev_bind\os/os.h ****  * @param[in] ptr @n The start address of the unaligned data.
 164:..\..\..\..\cloud\alicloud\src\services\dev_bind\os/os.h ****  * @return Result in host byte order.
 165:..\..\..\..\cloud\alicloud\src\services\dev_bind\os/os.h ****  * @see None.
 166:..\..\..\..\cloud\alicloud\src\services\dev_bind\os/os.h ****  * @note None.
 167:..\..\..\..\cloud\alicloud\src\services\dev_bind\os/os.h ****  */
 168:..\..\..\..\cloud\alicloud\src\services\dev_bind\os/os.h **** uint16_t os_get_unaligned_be16(uint8_t *ptr);
 169:..\..\..\..\cloud\alicloud\src\services\dev_bind\os/os.h **** 
 170:..\..\..\..\cloud\alicloud\src\services\dev_bind\os/os.h **** /**
 171:..\..\..\..\cloud\alicloud\src\services\dev_bind\os/os.h ****  * @brief Get unaligned 16 bits data which is little-endian and convert to host byte order.
 172:..\..\..\..\cloud\alicloud\src\services\dev_bind\os/os.h ****  *
 173:..\..\..\..\cloud\alicloud\src\services\dev_bind\os/os.h ****  * @param[in] ptr @n The start address of the unaligned data.
 174:..\..\..\..\cloud\alicloud\src\services\dev_bind\os/os.h ****  * @return Result in host byte order.
 175:..\..\..\..\cloud\alicloud\src\services\dev_bind\os/os.h ****  * @see None.
 176:..\..\..\..\cloud\alicloud\src\services\dev_bind\os/os.h ****  * @note None.
 177:..\..\..\..\cloud\alicloud\src\services\dev_bind\os/os.h ****  */
 178:..\..\..\..\cloud\alicloud\src\services\dev_bind\os/os.h **** uint16_t os_get_unaligned_le16(uint8_t *ptr);
 179:..\..\..\..\cloud\alicloud\src\services\dev_bind\os/os.h **** 
 180:..\..\..\..\cloud\alicloud\src\services\dev_bind\os/os.h **** /**
 181:..\..\..\..\cloud\alicloud\src\services\dev_bind\os/os.h ****  * @brief Get unaligned 32 bits data which is big-endian and convert to host byte order.
 182:..\..\..\..\cloud\alicloud\src\services\dev_bind\os/os.h ****  *
 183:..\..\..\..\cloud\alicloud\src\services\dev_bind\os/os.h ****  * @param[in] ptr @n The start address of the unaligned data.
 184:..\..\..\..\cloud\alicloud\src\services\dev_bind\os/os.h ****  * @return Result in host byte order.
 185:..\..\..\..\cloud\alicloud\src\services\dev_bind\os/os.h ****  * @see None.
 186:..\..\..\..\cloud\alicloud\src\services\dev_bind\os/os.h ****  * @note None.
 187:..\..\..\..\cloud\alicloud\src\services\dev_bind\os/os.h ****  */
 188:..\..\..\..\cloud\alicloud\src\services\dev_bind\os/os.h **** uint32_t os_get_unaligned_be32(uint8_t *ptr);
 189:..\..\..\..\cloud\alicloud\src\services\dev_bind\os/os.h **** 
 190:..\..\..\..\cloud\alicloud\src\services\dev_bind\os/os.h **** /**
 191:..\..\..\..\cloud\alicloud\src\services\dev_bind\os/os.h ****  * @brief Get unaligned 32 bits data which is little-endian and convert to host byte order.
 192:..\..\..\..\cloud\alicloud\src\services\dev_bind\os/os.h ****  *
 193:..\..\..\..\cloud\alicloud\src\services\dev_bind\os/os.h ****  * @param[in] ptr @n The start address of the unaligned data.
 194:..\..\..\..\cloud\alicloud\src\services\dev_bind\os/os.h ****  * @return Result in host byte order.
 195:..\..\..\..\cloud\alicloud\src\services\dev_bind\os/os.h ****  * @see None.
 196:..\..\..\..\cloud\alicloud\src\services\dev_bind\os/os.h ****  * @note None.
 197:..\..\..\..\cloud\alicloud\src\services\dev_bind\os/os.h ****  */
 198:..\..\..\..\cloud\alicloud\src\services\dev_bind\os/os.h **** uint32_t os_get_unaligned_le32(uint8_t *ptr);
 199:..\..\..\..\cloud\alicloud\src\services\dev_bind\os/os.h **** 
 200:..\..\..\..\cloud\alicloud\src\services\dev_bind\os/os.h **** /**
 201:..\..\..\..\cloud\alicloud\src\services\dev_bind\os/os.h ****  * @brief sleep thread itself.
 202:..\..\..\..\cloud\alicloud\src\services\dev_bind\os/os.h ****  *
 203:..\..\..\..\cloud\alicloud\src\services\dev_bind\os/os.h ****  * @param[in] ms @n the time interval for which execution is to be suspended, in milliseconds.
 204:..\..\..\..\cloud\alicloud\src\services\dev_bind\os/os.h ****  * @return None.
 205:..\..\..\..\cloud\alicloud\src\services\dev_bind\os/os.h ****  * @see None.
 206:..\..\..\..\cloud\alicloud\src\services\dev_bind\os/os.h ****  * @note None.
 207:..\..\..\..\cloud\alicloud\src\services\dev_bind\os/os.h ****  */
 208:..\..\..\..\cloud\alicloud\src\services\dev_bind\os/os.h **** static inline void os_msleep(_IN_ uint32_t ms)
 209:..\..\..\..\cloud\alicloud\src\services\dev_bind\os/os.h **** {
 210:..\..\..\..\cloud\alicloud\src\services\dev_bind\os/os.h ****     platform_msleep(ms);
 211:..\..\..\..\cloud\alicloud\src\services\dev_bind\os/os.h **** }
 212:..\..\..\..\cloud\alicloud\src\services\dev_bind\os/os.h **** 
 213:..\..\..\..\cloud\alicloud\src\services\dev_bind\os/os.h **** /**
 214:..\..\..\..\cloud\alicloud\src\services\dev_bind\os/os.h ****  * @brief sleep thread itself.
 215:..\..\..\..\cloud\alicloud\src\services\dev_bind\os/os.h ****  *
 216:..\..\..\..\cloud\alicloud\src\services\dev_bind\os/os.h ****  * @param[in] sec @n the time interval for which execution is to be suspended, in seconds.
 217:..\..\..\..\cloud\alicloud\src\services\dev_bind\os/os.h ****  * @return None.
 218:..\..\..\..\cloud\alicloud\src\services\dev_bind\os/os.h ****  * @see None.
 219:..\..\..\..\cloud\alicloud\src\services\dev_bind\os/os.h ****  * @note None.
 220:..\..\..\..\cloud\alicloud\src\services\dev_bind\os/os.h ****  */
 221:..\..\..\..\cloud\alicloud\src\services\dev_bind\os/os.h **** static inline void os_sleep(_IN_ uint32_t sec)
 222:..\..\..\..\cloud\alicloud\src\services\dev_bind\os/os.h **** {
 223:..\..\..\..\cloud\alicloud\src\services\dev_bind\os/os.h ****     platform_msleep(sec * 1000);
 224:..\..\..\..\cloud\alicloud\src\services\dev_bind\os/os.h **** }
 225:..\..\..\..\cloud\alicloud\src\services\dev_bind\os/os.h **** 
 226:..\..\..\..\cloud\alicloud\src\services\dev_bind\os/os.h **** /**
 227:..\..\..\..\cloud\alicloud\src\services\dev_bind\os/os.h ****  * @brief system reboot immediately.
 228:..\..\..\..\cloud\alicloud\src\services\dev_bind\os/os.h ****  *
 229:..\..\..\..\cloud\alicloud\src\services\dev_bind\os/os.h ****  * @return None.
 230:..\..\..\..\cloud\alicloud\src\services\dev_bind\os/os.h ****  * @see None.
 231:..\..\..\..\cloud\alicloud\src\services\dev_bind\os/os.h ****  * @note None.
 232:..\..\..\..\cloud\alicloud\src\services\dev_bind\os/os.h ****  */
 233:..\..\..\..\cloud\alicloud\src\services\dev_bind\os/os.h **** static inline void os_reboot()
 234:..\..\..\..\cloud\alicloud\src\services\dev_bind\os/os.h **** {
 235:..\..\..\..\cloud\alicloud\src\services\dev_bind\os/os.h ****     platform_reboot();
 236:..\..\..\..\cloud\alicloud\src\services\dev_bind\os/os.h **** }
 237:..\..\..\..\cloud\alicloud\src\services\dev_bind\os/os.h **** 
 238:..\..\..\..\cloud\alicloud\src\services\dev_bind\os/os.h **** /** @} *///end of os_misc
 239:..\..\..\..\cloud\alicloud\src\services\dev_bind\os/os.h **** 
 240:..\..\..\..\cloud\alicloud\src\services\dev_bind\os/os.h **** /***************************************** mutex Interface ****************************************
 241:..\..\..\..\cloud\alicloud\src\services\dev_bind\os/os.h **** 
 242:..\..\..\..\cloud\alicloud\src\services\dev_bind\os/os.h **** /** @defgroup group_os_mutex mutex
 243:..\..\..\..\cloud\alicloud\src\services\dev_bind\os/os.h ****  *  @{
 244:..\..\..\..\cloud\alicloud\src\services\dev_bind\os/os.h ****  */
 245:..\..\..\..\cloud\alicloud\src\services\dev_bind\os/os.h **** 
 246:..\..\..\..\cloud\alicloud\src\services\dev_bind\os/os.h **** /**
 247:..\..\..\..\cloud\alicloud\src\services\dev_bind\os/os.h ****  * @brief Create a mutex.
 248:..\..\..\..\cloud\alicloud\src\services\dev_bind\os/os.h ****  *
 249:..\..\..\..\cloud\alicloud\src\services\dev_bind\os/os.h ****  * @return Mutex handle.
 250:..\..\..\..\cloud\alicloud\src\services\dev_bind\os/os.h ****  * @see None.
 251:..\..\..\..\cloud\alicloud\src\services\dev_bind\os/os.h ****  * @note None.
 252:..\..\..\..\cloud\alicloud\src\services\dev_bind\os/os.h ****  */
 253:..\..\..\..\cloud\alicloud\src\services\dev_bind\os/os.h **** static inline void *os_mutex_init(void)
 254:..\..\..\..\cloud\alicloud\src\services\dev_bind\os/os.h **** {
 255:..\..\..\..\cloud\alicloud\src\services\dev_bind\os/os.h ****     return platform_mutex_init();
 256:..\..\..\..\cloud\alicloud\src\services\dev_bind\os/os.h **** }
 257:..\..\..\..\cloud\alicloud\src\services\dev_bind\os/os.h **** 
 258:..\..\..\..\cloud\alicloud\src\services\dev_bind\os/os.h **** /**
 259:..\..\..\..\cloud\alicloud\src\services\dev_bind\os/os.h ****  * @brief Destroy the specified mutex object, it will free related resource.
 260:..\..\..\..\cloud\alicloud\src\services\dev_bind\os/os.h ****  *
 261:..\..\..\..\cloud\alicloud\src\services\dev_bind\os/os.h ****  * @param[in] mutex @n The specified mutex.
 262:..\..\..\..\cloud\alicloud\src\services\dev_bind\os/os.h ****  * @return None.
 263:..\..\..\..\cloud\alicloud\src\services\dev_bind\os/os.h ****  * @see None.
 264:..\..\..\..\cloud\alicloud\src\services\dev_bind\os/os.h ****  * @note None.
 265:..\..\..\..\cloud\alicloud\src\services\dev_bind\os/os.h ****  */
 266:..\..\..\..\cloud\alicloud\src\services\dev_bind\os/os.h **** static inline void os_mutex_destroy(_IN_ void *mutex)
 267:..\..\..\..\cloud\alicloud\src\services\dev_bind\os/os.h **** {
 268:..\..\..\..\cloud\alicloud\src\services\dev_bind\os/os.h ****     platform_mutex_destroy(mutex);
 269:..\..\..\..\cloud\alicloud\src\services\dev_bind\os/os.h **** }
 270:..\..\..\..\cloud\alicloud\src\services\dev_bind\os/os.h **** 
 271:..\..\..\..\cloud\alicloud\src\services\dev_bind\os/os.h **** /**
 272:..\..\..\..\cloud\alicloud\src\services\dev_bind\os/os.h ****  * @brief Waits until the specified mutex is in the signaled state.
 273:..\..\..\..\cloud\alicloud\src\services\dev_bind\os/os.h ****  *
 274:..\..\..\..\cloud\alicloud\src\services\dev_bind\os/os.h ****  * @param[in] mutex @n the specified mutex.
 275:..\..\..\..\cloud\alicloud\src\services\dev_bind\os/os.h ****  * @return None.
 276:..\..\..\..\cloud\alicloud\src\services\dev_bind\os/os.h ****  * @see None.
 277:..\..\..\..\cloud\alicloud\src\services\dev_bind\os/os.h ****  * @note None.
 278:..\..\..\..\cloud\alicloud\src\services\dev_bind\os/os.h ****  */
 279:..\..\..\..\cloud\alicloud\src\services\dev_bind\os/os.h **** static inline void os_mutex_lock(_IN_ void *mutex)
 280:..\..\..\..\cloud\alicloud\src\services\dev_bind\os/os.h **** {
 281:..\..\..\..\cloud\alicloud\src\services\dev_bind\os/os.h ****     platform_mutex_lock(mutex);
 282:..\..\..\..\cloud\alicloud\src\services\dev_bind\os/os.h **** }
 283:..\..\..\..\cloud\alicloud\src\services\dev_bind\os/os.h **** 
 284:..\..\..\..\cloud\alicloud\src\services\dev_bind\os/os.h **** /**
 285:..\..\..\..\cloud\alicloud\src\services\dev_bind\os/os.h ****  * @brief Releases ownership of the specified mutex object..
 286:..\..\..\..\cloud\alicloud\src\services\dev_bind\os/os.h ****  *
 287:..\..\..\..\cloud\alicloud\src\services\dev_bind\os/os.h ****  * @param[in] mutex @n the specified mutex.
 288:..\..\..\..\cloud\alicloud\src\services\dev_bind\os/os.h ****  * @return None.
 289:..\..\..\..\cloud\alicloud\src\services\dev_bind\os/os.h ****  * @see None.
 290:..\..\..\..\cloud\alicloud\src\services\dev_bind\os/os.h ****  * @note None.
 291:..\..\..\..\cloud\alicloud\src\services\dev_bind\os/os.h ****  */
 292:..\..\..\..\cloud\alicloud\src\services\dev_bind\os/os.h **** static inline void os_mutex_unlock(_IN_ void *mutex)
 293:..\..\..\..\cloud\alicloud\src\services\dev_bind\os/os.h **** {
 294:..\..\..\..\cloud\alicloud\src\services\dev_bind\os/os.h ****     platform_mutex_unlock(mutex);
 295:..\..\..\..\cloud\alicloud\src\services\dev_bind\os/os.h **** }
 296:..\..\..\..\cloud\alicloud\src\services\dev_bind\os/os.h **** 
 297:..\..\..\..\cloud\alicloud\src\services\dev_bind\os/os.h **** /** @} */// end of os_mutex
 298:..\..\..\..\cloud\alicloud\src\services\dev_bind\os/os.h **** 
 299:..\..\..\..\cloud\alicloud\src\services\dev_bind\os/os.h **** /*************************************** semaphore Interface **************************************
 300:..\..\..\..\cloud\alicloud\src\services\dev_bind\os/os.h **** 
 301:..\..\..\..\cloud\alicloud\src\services\dev_bind\os/os.h **** /** @defgroup group_os_semaphore semaphore
 302:..\..\..\..\cloud\alicloud\src\services\dev_bind\os/os.h ****  *  @{
 303:..\..\..\..\cloud\alicloud\src\services\dev_bind\os/os.h ****  */
 304:..\..\..\..\cloud\alicloud\src\services\dev_bind\os/os.h **** 
 305:..\..\..\..\cloud\alicloud\src\services\dev_bind\os/os.h **** /**
 306:..\..\..\..\cloud\alicloud\src\services\dev_bind\os/os.h ****  * @brief Create a semaphore.
 307:..\..\..\..\cloud\alicloud\src\services\dev_bind\os/os.h ****  *
 308:..\..\..\..\cloud\alicloud\src\services\dev_bind\os/os.h ****  * @return semaphore handle.
 309:..\..\..\..\cloud\alicloud\src\services\dev_bind\os/os.h ****  * @see None.
 310:..\..\..\..\cloud\alicloud\src\services\dev_bind\os/os.h ****  * @note The recommended value of maximum count of the semaphore is 255.
 311:..\..\..\..\cloud\alicloud\src\services\dev_bind\os/os.h ****  */
 312:..\..\..\..\cloud\alicloud\src\services\dev_bind\os/os.h **** static inline void *os_semaphore_init(void)
 313:..\..\..\..\cloud\alicloud\src\services\dev_bind\os/os.h **** {
 314:..\..\..\..\cloud\alicloud\src\services\dev_bind\os/os.h ****     return platform_semaphore_init();
 315:..\..\..\..\cloud\alicloud\src\services\dev_bind\os/os.h **** }
 316:..\..\..\..\cloud\alicloud\src\services\dev_bind\os/os.h **** 
 317:..\..\..\..\cloud\alicloud\src\services\dev_bind\os/os.h **** /**
 318:..\..\..\..\cloud\alicloud\src\services\dev_bind\os/os.h ****  * @brief Destroy the specified semaphore object, it will free related resource.
 319:..\..\..\..\cloud\alicloud\src\services\dev_bind\os/os.h ****  *
 320:..\..\..\..\cloud\alicloud\src\services\dev_bind\os/os.h ****  * @param[in] sem @n the specified sem.
 321:..\..\..\..\cloud\alicloud\src\services\dev_bind\os/os.h ****  * @return None.
 322:..\..\..\..\cloud\alicloud\src\services\dev_bind\os/os.h ****  * @see None.
 323:..\..\..\..\cloud\alicloud\src\services\dev_bind\os/os.h ****  * @note None.
 324:..\..\..\..\cloud\alicloud\src\services\dev_bind\os/os.h ****  */
 325:..\..\..\..\cloud\alicloud\src\services\dev_bind\os/os.h **** static inline void os_semaphore_destroy(_IN_ void *sem)
 326:..\..\..\..\cloud\alicloud\src\services\dev_bind\os/os.h **** {
 327:..\..\..\..\cloud\alicloud\src\services\dev_bind\os/os.h ****     platform_semaphore_destroy(sem);
 328:..\..\..\..\cloud\alicloud\src\services\dev_bind\os/os.h **** }
 329:..\..\..\..\cloud\alicloud\src\services\dev_bind\os/os.h **** 
 330:..\..\..\..\cloud\alicloud\src\services\dev_bind\os/os.h **** /**
 331:..\..\..\..\cloud\alicloud\src\services\dev_bind\os/os.h ****  * @brief Wait until the specified mutex is in the signaled state or the time-out interval elapses.
 332:..\..\..\..\cloud\alicloud\src\services\dev_bind\os/os.h ****  *
 333:..\..\..\..\cloud\alicloud\src\services\dev_bind\os/os.h ****  * @param[in] sem @n the specified semaphore.
 334:..\..\..\..\cloud\alicloud\src\services\dev_bind\os/os.h ****  * @param[in] timeout_ms @n timeout interval in millisecond.
 335:..\..\..\..\cloud\alicloud\src\services\dev_bind\os/os.h ****      If timeout_ms is OS_WAIT_INFINITE, the function will return only when the semaphore is signale
 336:..\..\..\..\cloud\alicloud\src\services\dev_bind\os/os.h ****  * @return
 337:..\..\..\..\cloud\alicloud\src\services\dev_bind\os/os.h ****    @verbatim
 338:..\..\..\..\cloud\alicloud\src\services\dev_bind\os/os.h ****    =  0: The state of the specified object is signaled.
 339:..\..\..\..\cloud\alicloud\src\services\dev_bind\os/os.h ****    =  -1: The time-out interval elapsed, and the object's state is nonsignaled.
 340:..\..\..\..\cloud\alicloud\src\services\dev_bind\os/os.h ****    @endverbatim
 341:..\..\..\..\cloud\alicloud\src\services\dev_bind\os/os.h ****  * @see None.
 342:..\..\..\..\cloud\alicloud\src\services\dev_bind\os/os.h ****  * @note None.
 343:..\..\..\..\cloud\alicloud\src\services\dev_bind\os/os.h ****  */
 344:..\..\..\..\cloud\alicloud\src\services\dev_bind\os/os.h **** static inline int os_semaphore_wait(_IN_ void *sem, _IN_ uint32_t timeout_ms)
 345:..\..\..\..\cloud\alicloud\src\services\dev_bind\os/os.h **** {
 346:..\..\..\..\cloud\alicloud\src\services\dev_bind\os/os.h ****     return platform_semaphore_wait(sem, timeout_ms);
 347:..\..\..\..\cloud\alicloud\src\services\dev_bind\os/os.h **** }
 348:..\..\..\..\cloud\alicloud\src\services\dev_bind\os/os.h **** 
 349:..\..\..\..\cloud\alicloud\src\services\dev_bind\os/os.h **** /**
 350:..\..\..\..\cloud\alicloud\src\services\dev_bind\os/os.h ****  * @brief Increases the count of the specified semaphore object by 1.
 351:..\..\..\..\cloud\alicloud\src\services\dev_bind\os/os.h ****  *
 352:..\..\..\..\cloud\alicloud\src\services\dev_bind\os/os.h ****  * @param[in] sem @n the specified semaphore.
 353:..\..\..\..\cloud\alicloud\src\services\dev_bind\os/os.h ****  * @return None.
 354:..\..\..\..\cloud\alicloud\src\services\dev_bind\os/os.h ****  * @see None.
 355:..\..\..\..\cloud\alicloud\src\services\dev_bind\os/os.h ****  * @note None.
 356:..\..\..\..\cloud\alicloud\src\services\dev_bind\os/os.h ****  */
 357:..\..\..\..\cloud\alicloud\src\services\dev_bind\os/os.h **** static inline void os_semaphore_post(_IN_ void *sem)
 358:..\..\..\..\cloud\alicloud\src\services\dev_bind\os/os.h **** {
 359:..\..\..\..\cloud\alicloud\src\services\dev_bind\os/os.h ****     platform_semaphore_post(sem);
 360:..\..\..\..\cloud\alicloud\src\services\dev_bind\os/os.h **** }
 361:..\..\..\..\cloud\alicloud\src\services\dev_bind\os/os.h **** 
 362:..\..\..\..\cloud\alicloud\src\services\dev_bind\os/os.h **** /** @} */// end of os_semaphore
 363:..\..\..\..\cloud\alicloud\src\services\dev_bind\os/os.h **** 
 364:..\..\..\..\cloud\alicloud\src\services\dev_bind\os/os.h **** /**************************************** memory Interface ****************************************
 365:..\..\..\..\cloud\alicloud\src\services\dev_bind\os/os.h **** 
 366:..\..\..\..\cloud\alicloud\src\services\dev_bind\os/os.h **** /** @defgroup group_os_memory_manage memory
 367:..\..\..\..\cloud\alicloud\src\services\dev_bind\os/os.h ****  *  @{
 368:..\..\..\..\cloud\alicloud\src\services\dev_bind\os/os.h ****  */
 369:..\..\..\..\cloud\alicloud\src\services\dev_bind\os/os.h **** 
 370:..\..\..\..\cloud\alicloud\src\services\dev_bind\os/os.h **** /**
 371:..\..\..\..\cloud\alicloud\src\services\dev_bind\os/os.h ****  * @brief Allocates a block of size bytes of memory, returning a pointer to the beginning of the bl
 372:..\..\..\..\cloud\alicloud\src\services\dev_bind\os/os.h ****  *
 373:..\..\..\..\cloud\alicloud\src\services\dev_bind\os/os.h ****  * @param[in] size @n specify block size in bytes.
 374:..\..\..\..\cloud\alicloud\src\services\dev_bind\os/os.h ****  * @return A pointer to the beginning of the block.
 375:..\..\..\..\cloud\alicloud\src\services\dev_bind\os/os.h ****  * @see None.
 376:..\..\..\..\cloud\alicloud\src\services\dev_bind\os/os.h ****  * @note Block value is indeterminate.
 377:..\..\..\..\cloud\alicloud\src\services\dev_bind\os/os.h ****  */
 378:..\..\..\..\cloud\alicloud\src\services\dev_bind\os/os.h **** static inline void *os_malloc(_IN_ uint32_t size)
 379:..\..\..\..\cloud\alicloud\src\services\dev_bind\os/os.h **** {
 380:..\..\..\..\cloud\alicloud\src\services\dev_bind\os/os.h ****     return platform_malloc(size);
 121              		.loc 2 380 12 is_stmt 0
 122 0024 13051030 		li	a0,769
 123              	.LBE31:
 124              	.LBE30:
 125              	.LBE29:
 126              	.LBE28:
 127              		.loc 1 97 10
 128 0028 02D4     		sw	zero,40(sp)
 129 002a 02D6     		sw	zero,44(sp)
 130 002c 02D8     		sw	zero,48(sp)
 131 002e 02DA     		sw	zero,52(sp)
 132 0030 02DC     		sw	zero,56(sp)
 133 0032 230E0102 		sb	zero,60(sp)
  98:C:/Users/stapi/OneDrive/Desktop/GD32VW553/V1_MQTT_OK/GD32VW55X_Wifi_BLE_SDK/GD32VW55x_RELEASE_V1.0.2/MSDK/cloud/alicloud/src/services/awss\awss_statis.c ****     char *log_buf = NULL;
 134              		.loc 1 98 5 is_stmt 1
 135              	.LVL4:
  99:C:/Users/stapi/OneDrive/Desktop/GD32VW553/V1_MQTT_OK/GD32VW55X_Wifi_BLE_SDK/GD32VW55x_RELEASE_V1.0.2/MSDK/cloud/alicloud/src/services/awss\awss_statis.c ****     int len = 0;
 136              		.loc 1 99 5
 100:C:/Users/stapi/OneDrive/Desktop/GD32VW553/V1_MQTT_OK/GD32VW55X_Wifi_BLE_SDK/GD32VW55x_RELEASE_V1.0.2/MSDK/cloud/alicloud/src/services/awss\awss_statis.c ****     int ret;
 137              		.loc 1 100 5
 101:C:/Users/stapi/OneDrive/Desktop/GD32VW553/V1_MQTT_OK/GD32VW55X_Wifi_BLE_SDK/GD32VW55x_RELEASE_V1.0.2/MSDK/cloud/alicloud/src/services/awss\awss_statis.c **** 
 102:C:/Users/stapi/OneDrive/Desktop/GD32VW553/V1_MQTT_OK/GD32VW55X_Wifi_BLE_SDK/GD32VW55x_RELEASE_V1.0.2/MSDK/cloud/alicloud/src/services/awss\awss_statis.c ****     log_content = os_zalloc(AWSS_STATIS_BUF_LEN + 1);
 138              		.loc 1 102 5
 139              	.LBB35:
 140              	.LBB34:
 381:..\..\..\..\cloud\alicloud\src\services\dev_bind\os/os.h **** }
 382:..\..\..\..\cloud\alicloud\src\services\dev_bind\os/os.h **** 
 383:..\..\..\..\cloud\alicloud\src\services\dev_bind\os/os.h **** 
 384:..\..\..\..\cloud\alicloud\src\services\dev_bind\os/os.h **** /**
 385:..\..\..\..\cloud\alicloud\src\services\dev_bind\os/os.h ****  * @brief Deallocate memory block
 386:..\..\..\..\cloud\alicloud\src\services\dev_bind\os/os.h ****  *
 387:..\..\..\..\cloud\alicloud\src\services\dev_bind\os/os.h ****  * @param[in] ptr @n Pointer to a memory block previously allocated with platform_malloc.
 388:..\..\..\..\cloud\alicloud\src\services\dev_bind\os/os.h ****  * @return None.
 389:..\..\..\..\cloud\alicloud\src\services\dev_bind\os/os.h ****  * @see None.
 390:..\..\..\..\cloud\alicloud\src\services\dev_bind\os/os.h ****  * @note None.
 391:..\..\..\..\cloud\alicloud\src\services\dev_bind\os/os.h ****  */
 392:..\..\..\..\cloud\alicloud\src\services\dev_bind\os/os.h **** static inline void os_free(_IN_ void *ptr)
 393:..\..\..\..\cloud\alicloud\src\services\dev_bind\os/os.h **** {
 394:..\..\..\..\cloud\alicloud\src\services\dev_bind\os/os.h ****     platform_free(ptr);
 395:..\..\..\..\cloud\alicloud\src\services\dev_bind\os/os.h **** }
 396:..\..\..\..\cloud\alicloud\src\services\dev_bind\os/os.h **** 
 397:..\..\..\..\cloud\alicloud\src\services\dev_bind\os/os.h **** /**
 398:..\..\..\..\cloud\alicloud\src\services\dev_bind\os/os.h ****  * @brief Allocates a memory block with memory initialized to 0,
 399:..\..\..\..\cloud\alicloud\src\services\dev_bind\os/os.h ****      returning a pointer to the beginning of the block.
 400:..\..\..\..\cloud\alicloud\src\services\dev_bind\os/os.h ****  *
 401:..\..\..\..\cloud\alicloud\src\services\dev_bind\os/os.h ****  * @param[in] size @n specify block size in bytes.
 402:..\..\..\..\cloud\alicloud\src\services\dev_bind\os/os.h ****  * @return A pointer to the beginning of the block.
 403:..\..\..\..\cloud\alicloud\src\services\dev_bind\os/os.h ****  * @see None.
 404:..\..\..\..\cloud\alicloud\src\services\dev_bind\os/os.h ****  * @note Block value is indeterminate.
 405:..\..\..\..\cloud\alicloud\src\services\dev_bind\os/os.h ****  */
 406:..\..\..\..\cloud\alicloud\src\services\dev_bind\os/os.h **** static inline void *os_zalloc(uint32_t size)
 407:..\..\..\..\cloud\alicloud\src\services\dev_bind\os/os.h **** {
 408:..\..\..\..\cloud\alicloud\src\services\dev_bind\os/os.h ****     void *ptr = os_malloc(size);
 141              		.loc 2 408 5
 142              	.LBB33:
 143              	.LBB32:
 380:..\..\..\..\cloud\alicloud\src\services\dev_bind\os/os.h **** }
 144              		.loc 2 380 5
 380:..\..\..\..\cloud\alicloud\src\services\dev_bind\os/os.h **** }
 145              		.loc 2 380 12 is_stmt 0
 146 0036 97000000 		call	HAL_Malloc
 146      E7800000 
 147              	.LVL5:
 148              	.LBE32:
 149              	.LBE33:
 409:..\..\..\..\cloud\alicloud\src\services\dev_bind\os/os.h ****     if (ptr != NULL) {
 150              		.loc 2 409 5 is_stmt 1
 151              		.loc 2 409 8 is_stmt 0
 152 003e 41C9     		beq	a0,zero,.L44
 410:..\..\..\..\cloud\alicloud\src\services\dev_bind\os/os.h ****         memset(ptr, 0, size);
 153              		.loc 2 410 9
 154 0040 13061030 		li	a2,769
 155 0044 8145     		li	a1,0
 156 0046 2A89     		mv	s2,a0
 157              		.loc 2 410 9 is_stmt 1
 158 0048 97000000 		call	memset
 158      E7800000 
 159              	.LVL6:
 411:..\..\..\..\cloud\alicloud\src\services\dev_bind\os/os.h ****     }
 412:..\..\..\..\cloud\alicloud\src\services\dev_bind\os/os.h ****     return ptr;
 160              		.loc 2 412 5
 161              	.LBE34:
 162              	.LBE35:
 103:C:/Users/stapi/OneDrive/Desktop/GD32VW553/V1_MQTT_OK/GD32VW55X_Wifi_BLE_SDK/GD32VW55x_RELEASE_V1.0.2/MSDK/cloud/alicloud/src/services/awss\awss_statis.c ****     if (log_content == NULL)
 163              		.loc 1 103 5
 104:C:/Users/stapi/OneDrive/Desktop/GD32VW553/V1_MQTT_OK/GD32VW55X_Wifi_BLE_SDK/GD32VW55x_RELEASE_V1.0.2/MSDK/cloud/alicloud/src/services/awss\awss_statis.c ****         goto STATIS_ERR;
 105:C:/Users/stapi/OneDrive/Desktop/GD32VW553/V1_MQTT_OK/GD32VW55X_Wifi_BLE_SDK/GD32VW55x_RELEASE_V1.0.2/MSDK/cloud/alicloud/src/services/awss\awss_statis.c ****     log_buf = os_zalloc(log_buf_len + 1);
 164              		.loc 1 105 5
 165              		.loc 1 105 37 is_stmt 0
 166 0050 1256     		lw	a2,36(sp)
 167 0052 0506     		addi	a2,a2,1
 168              	.LVL7:
 169              	.LBB36:
 170              	.LBB37:
 408:..\..\..\..\cloud\alicloud\src\services\dev_bind\os/os.h ****     if (ptr != NULL) {
 171              		.loc 2 408 5 is_stmt 1
 172              	.LBB38:
 173              	.LBB39:
 380:..\..\..\..\cloud\alicloud\src\services\dev_bind\os/os.h **** }
 174              		.loc 2 380 5
 380:..\..\..\..\cloud\alicloud\src\services\dev_bind\os/os.h **** }
 175              		.loc 2 380 12 is_stmt 0
 176 0054 3285     		mv	a0,a2
 177 0056 32CE     		sw	a2,28(sp)
 178 0058 97000000 		call	HAL_Malloc
 178      E7800000 
 179              	.LVL8:
 180 0060 AA84     		mv	s1,a0
 181              	.LVL9:
 182              	.LBE39:
 183              	.LBE38:
 409:..\..\..\..\cloud\alicloud\src\services\dev_bind\os/os.h ****         memset(ptr, 0, size);
 184              		.loc 2 409 5 is_stmt 1
 409:..\..\..\..\cloud\alicloud\src\services\dev_bind\os/os.h ****         memset(ptr, 0, size);
 185              		.loc 2 409 8 is_stmt 0
 186 0062 39C9     		beq	a0,zero,.L3
 410:..\..\..\..\cloud\alicloud\src\services\dev_bind\os/os.h ****     }
 187              		.loc 2 410 9 is_stmt 1
 188 0064 7246     		lw	a2,28(sp)
 189 0066 8145     		li	a1,0
 190 0068 97000000 		call	memset
 190      E7800000 
 191              	.LVL10:
 192              		.loc 2 412 5
 193              	.LBE37:
 194              	.LBE36:
 106:C:/Users/stapi/OneDrive/Desktop/GD32VW553/V1_MQTT_OK/GD32VW55X_Wifi_BLE_SDK/GD32VW55x_RELEASE_V1.0.2/MSDK/cloud/alicloud/src/services/awss\awss_statis.c ****     if (log_buf == NULL)
 195              		.loc 1 106 5
 107:C:/Users/stapi/OneDrive/Desktop/GD32VW553/V1_MQTT_OK/GD32VW55X_Wifi_BLE_SDK/GD32VW55x_RELEASE_V1.0.2/MSDK/cloud/alicloud/src/services/awss\awss_statis.c ****         goto STATIS_ERR;
 108:C:/Users/stapi/OneDrive/Desktop/GD32VW553/V1_MQTT_OK/GD32VW55X_Wifi_BLE_SDK/GD32VW55x_RELEASE_V1.0.2/MSDK/cloud/alicloud/src/services/awss\awss_statis.c **** 
 109:C:/Users/stapi/OneDrive/Desktop/GD32VW553/V1_MQTT_OK/GD32VW55X_Wifi_BLE_SDK/GD32VW55x_RELEASE_V1.0.2/MSDK/cloud/alicloud/src/services/awss\awss_statis.c ****     if (awss_build_topic(TOPIC_POST_STATIS, statis_topic, TOPIC_LEN_MAX) == NULL) {
 196              		.loc 1 109 5
 197              		.loc 1 109 9 is_stmt 0
 198 0070 37050000 		lui	a0,%hi(.LC3)
 199 0074 13060008 		li	a2,128
 200 0078 8C00     		addi	a1,sp,64
 201 007a 13050500 		addi	a0,a0,%lo(.LC3)
 202 007e 97000000 		call	awss_build_topic
 202      E7800000 
 203              	.LVL11:
 204              		.loc 1 109 8
 205 0086 31E5     		bne	a0,zero,.L4
 110:C:/Users/stapi/OneDrive/Desktop/GD32VW553/V1_MQTT_OK/GD32VW55X_Wifi_BLE_SDK/GD32VW55x_RELEASE_V1.0.2/MSDK/cloud/alicloud/src/services/awss\awss_statis.c ****         awss_err("awss build statis topic fail\n");
 206              		.loc 1 110 9 is_stmt 1
 207              		.loc 1 110 9
 208 0088 37050000 		lui	a0,%hi(.LC4)
 209 008c 13050500 		addi	a0,a0,%lo(.LC4)
 210 0090 97000000 		call	HAL_Printf
 210      E7800000 
 211              	.LVL12:
 212              		.loc 1 110 9
 213 0098 37050000 		lui	a0,%hi(.LC5)
 214 009c 13050500 		addi	a0,a0,%lo(.LC5)
 215 00a0 97000000 		call	HAL_Printf
 215      E7800000 
 216              	.LVL13:
 217              		.loc 1 110 9
 218 00a8 37050000 		lui	a0,%hi(.LC6)
 219 00ac 13050500 		addi	a0,a0,%lo(.LC6)
 220 00b0 97000000 		call	HAL_Printf
 220      E7800000 
 221              	.LVL14:
 222              		.loc 1 110 9
 111:C:/Users/stapi/OneDrive/Desktop/GD32VW553/V1_MQTT_OK/GD32VW55X_Wifi_BLE_SDK/GD32VW55x_RELEASE_V1.0.2/MSDK/cloud/alicloud/src/services/awss\awss_statis.c ****         goto STATIS_ERR;
 223              		.loc 1 111 9
 224              	.L3:
 112:C:/Users/stapi/OneDrive/Desktop/GD32VW553/V1_MQTT_OK/GD32VW55X_Wifi_BLE_SDK/GD32VW55x_RELEASE_V1.0.2/MSDK/cloud/alicloud/src/services/awss\awss_statis.c ****     }
 113:C:/Users/stapi/OneDrive/Desktop/GD32VW553/V1_MQTT_OK/GD32VW55X_Wifi_BLE_SDK/GD32VW55x_RELEASE_V1.0.2/MSDK/cloud/alicloud/src/services/awss\awss_statis.c **** 
 114:C:/Users/stapi/OneDrive/Desktop/GD32VW553/V1_MQTT_OK/GD32VW55X_Wifi_BLE_SDK/GD32VW55x_RELEASE_V1.0.2/MSDK/cloud/alicloud/src/services/awss\awss_statis.c ****     if (awss_statis_mutex)
 115:C:/Users/stapi/OneDrive/Desktop/GD32VW553/V1_MQTT_OK/GD32VW55X_Wifi_BLE_SDK/GD32VW55x_RELEASE_V1.0.2/MSDK/cloud/alicloud/src/services/awss\awss_statis.c ****         HAL_MutexLock(awss_statis_mutex);
 116:C:/Users/stapi/OneDrive/Desktop/GD32VW553/V1_MQTT_OK/GD32VW55X_Wifi_BLE_SDK/GD32VW55x_RELEASE_V1.0.2/MSDK/cloud/alicloud/src/services/awss\awss_statis.c **** 
 117:C:/Users/stapi/OneDrive/Desktop/GD32VW553/V1_MQTT_OK/GD32VW55X_Wifi_BLE_SDK/GD32VW55x_RELEASE_V1.0.2/MSDK/cloud/alicloud/src/services/awss\awss_statis.c ****     if (DROUTE_CNT > 0) {
 118:C:/Users/stapi/OneDrive/Desktop/GD32VW553/V1_MQTT_OK/GD32VW55X_Wifi_BLE_SDK/GD32VW55x_RELEASE_V1.0.2/MSDK/cloud/alicloud/src/services/awss\awss_statis.c ****         len += HAL_Snprintf(log_buf + len, log_buf_len - len, elem_fmt, "ConnRouter",
 119:C:/Users/stapi/OneDrive/Desktop/GD32VW553/V1_MQTT_OK/GD32VW55X_Wifi_BLE_SDK/GD32VW55x_RELEASE_V1.0.2/MSDK/cloud/alicloud/src/services/awss\awss_statis.c ****                 DROUTE_TMAX, DROUTE_TMIN, DROUTE_TMEAN, DROUTE_CNT, DROUTE_SUC, 0, 0);
 120:C:/Users/stapi/OneDrive/Desktop/GD32VW553/V1_MQTT_OK/GD32VW55X_Wifi_BLE_SDK/GD32VW55x_RELEASE_V1.0.2/MSDK/cloud/alicloud/src/services/awss\awss_statis.c ****     }
 121:C:/Users/stapi/OneDrive/Desktop/GD32VW553/V1_MQTT_OK/GD32VW55X_Wifi_BLE_SDK/GD32VW55x_RELEASE_V1.0.2/MSDK/cloud/alicloud/src/services/awss\awss_statis.c **** 
 122:C:/Users/stapi/OneDrive/Desktop/GD32VW553/V1_MQTT_OK/GD32VW55X_Wifi_BLE_SDK/GD32VW55x_RELEASE_V1.0.2/MSDK/cloud/alicloud/src/services/awss\awss_statis.c **** #ifdef AWSS_SUPPORT_SMARTCONFIG
 123:C:/Users/stapi/OneDrive/Desktop/GD32VW553/V1_MQTT_OK/GD32VW55X_Wifi_BLE_SDK/GD32VW55x_RELEASE_V1.0.2/MSDK/cloud/alicloud/src/services/awss\awss_statis.c ****     if (SM_CNT > 0) {
 124:C:/Users/stapi/OneDrive/Desktop/GD32VW553/V1_MQTT_OK/GD32VW55X_Wifi_BLE_SDK/GD32VW55x_RELEASE_V1.0.2/MSDK/cloud/alicloud/src/services/awss\awss_statis.c ****         len += HAL_Snprintf(log_buf + len, log_buf_len - len, elem_fmt, "Smartconfig",
 125:C:/Users/stapi/OneDrive/Desktop/GD32VW553/V1_MQTT_OK/GD32VW55X_Wifi_BLE_SDK/GD32VW55x_RELEASE_V1.0.2/MSDK/cloud/alicloud/src/services/awss\awss_statis.c ****                 SM_TMAX, SM_TMIN, SM_TMEAN, SM_CNT, SM_SUC, SM_CRC_ERR, SM_PW_ERR);
 126:C:/Users/stapi/OneDrive/Desktop/GD32VW553/V1_MQTT_OK/GD32VW55X_Wifi_BLE_SDK/GD32VW55x_RELEASE_V1.0.2/MSDK/cloud/alicloud/src/services/awss\awss_statis.c ****     }
 127:C:/Users/stapi/OneDrive/Desktop/GD32VW553/V1_MQTT_OK/GD32VW55X_Wifi_BLE_SDK/GD32VW55x_RELEASE_V1.0.2/MSDK/cloud/alicloud/src/services/awss\awss_statis.c **** #ifdef  AWSS_SUPPORT_SMARTCONFIG_WPS
 128:C:/Users/stapi/OneDrive/Desktop/GD32VW553/V1_MQTT_OK/GD32VW55X_Wifi_BLE_SDK/GD32VW55x_RELEASE_V1.0.2/MSDK/cloud/alicloud/src/services/awss\awss_statis.c ****     if (WPS_CNT > 0) {
 129:C:/Users/stapi/OneDrive/Desktop/GD32VW553/V1_MQTT_OK/GD32VW55X_Wifi_BLE_SDK/GD32VW55x_RELEASE_V1.0.2/MSDK/cloud/alicloud/src/services/awss\awss_statis.c ****         len += HAL_Snprintf(log_buf + len, log_buf_len - len, elem_fmt, "Smartconfig-wps",
 130:C:/Users/stapi/OneDrive/Desktop/GD32VW553/V1_MQTT_OK/GD32VW55X_Wifi_BLE_SDK/GD32VW55x_RELEASE_V1.0.2/MSDK/cloud/alicloud/src/services/awss\awss_statis.c ****                 0, 0, 0, WPS_CNT, WPS_SUC, WPS_CRC_ERR, WPS_PW_ERR);
 131:C:/Users/stapi/OneDrive/Desktop/GD32VW553/V1_MQTT_OK/GD32VW55X_Wifi_BLE_SDK/GD32VW55x_RELEASE_V1.0.2/MSDK/cloud/alicloud/src/services/awss\awss_statis.c ****     }
 132:C:/Users/stapi/OneDrive/Desktop/GD32VW553/V1_MQTT_OK/GD32VW55X_Wifi_BLE_SDK/GD32VW55x_RELEASE_V1.0.2/MSDK/cloud/alicloud/src/services/awss\awss_statis.c **** #endif
 133:C:/Users/stapi/OneDrive/Desktop/GD32VW553/V1_MQTT_OK/GD32VW55X_Wifi_BLE_SDK/GD32VW55x_RELEASE_V1.0.2/MSDK/cloud/alicloud/src/services/awss\awss_statis.c **** #endif
 134:C:/Users/stapi/OneDrive/Desktop/GD32VW553/V1_MQTT_OK/GD32VW55X_Wifi_BLE_SDK/GD32VW55x_RELEASE_V1.0.2/MSDK/cloud/alicloud/src/services/awss\awss_statis.c **** #ifdef AWSS_SUPPORT_AHA
 135:C:/Users/stapi/OneDrive/Desktop/GD32VW553/V1_MQTT_OK/GD32VW55X_Wifi_BLE_SDK/GD32VW55x_RELEASE_V1.0.2/MSDK/cloud/alicloud/src/services/awss\awss_statis.c ****     if (PAP_CNT > 0) {
 136:C:/Users/stapi/OneDrive/Desktop/GD32VW553/V1_MQTT_OK/GD32VW55X_Wifi_BLE_SDK/GD32VW55x_RELEASE_V1.0.2/MSDK/cloud/alicloud/src/services/awss\awss_statis.c ****         len += HAL_Snprintf(log_buf + len, log_buf_len - len, elem_fmt, "Aha",
 137:C:/Users/stapi/OneDrive/Desktop/GD32VW553/V1_MQTT_OK/GD32VW55X_Wifi_BLE_SDK/GD32VW55x_RELEASE_V1.0.2/MSDK/cloud/alicloud/src/services/awss\awss_statis.c ****                 PAP_TMAX, PAP_TMIN, PAP_TMEAN, PAP_CNT, PAP_SUC, 0, PAP_PW_ERR);
 138:C:/Users/stapi/OneDrive/Desktop/GD32VW553/V1_MQTT_OK/GD32VW55X_Wifi_BLE_SDK/GD32VW55x_RELEASE_V1.0.2/MSDK/cloud/alicloud/src/services/awss\awss_statis.c ****     }
 139:C:/Users/stapi/OneDrive/Desktop/GD32VW553/V1_MQTT_OK/GD32VW55X_Wifi_BLE_SDK/GD32VW55x_RELEASE_V1.0.2/MSDK/cloud/alicloud/src/services/awss\awss_statis.c **** #endif
 140:C:/Users/stapi/OneDrive/Desktop/GD32VW553/V1_MQTT_OK/GD32VW55X_Wifi_BLE_SDK/GD32VW55x_RELEASE_V1.0.2/MSDK/cloud/alicloud/src/services/awss\awss_statis.c **** #ifdef AWSS_SUPPORT_ADHA
 141:C:/Users/stapi/OneDrive/Desktop/GD32VW553/V1_MQTT_OK/GD32VW55X_Wifi_BLE_SDK/GD32VW55x_RELEASE_V1.0.2/MSDK/cloud/alicloud/src/services/awss\awss_statis.c ****     if (ROUTE_CNT > 0) {
 142:C:/Users/stapi/OneDrive/Desktop/GD32VW553/V1_MQTT_OK/GD32VW55X_Wifi_BLE_SDK/GD32VW55x_RELEASE_V1.0.2/MSDK/cloud/alicloud/src/services/awss\awss_statis.c ****         len += HAL_Snprintf(log_buf + len, log_buf_len - len, elem_fmt, "Adha",
 143:C:/Users/stapi/OneDrive/Desktop/GD32VW553/V1_MQTT_OK/GD32VW55X_Wifi_BLE_SDK/GD32VW55x_RELEASE_V1.0.2/MSDK/cloud/alicloud/src/services/awss\awss_statis.c ****                 ROUTE_TMAX, ROUTE_TMIN, ROUTE_TMEAN, ROUTE_CNT, ROUTE_SUC, 0, 0);
 144:C:/Users/stapi/OneDrive/Desktop/GD32VW553/V1_MQTT_OK/GD32VW55X_Wifi_BLE_SDK/GD32VW55x_RELEASE_V1.0.2/MSDK/cloud/alicloud/src/services/awss\awss_statis.c ****     }
 145:C:/Users/stapi/OneDrive/Desktop/GD32VW553/V1_MQTT_OK/GD32VW55X_Wifi_BLE_SDK/GD32VW55x_RELEASE_V1.0.2/MSDK/cloud/alicloud/src/services/awss\awss_statis.c **** #endif
 146:C:/Users/stapi/OneDrive/Desktop/GD32VW553/V1_MQTT_OK/GD32VW55X_Wifi_BLE_SDK/GD32VW55x_RELEASE_V1.0.2/MSDK/cloud/alicloud/src/services/awss\awss_statis.c **** #ifndef AWSS_DISABLE_ENROLLEE
 147:C:/Users/stapi/OneDrive/Desktop/GD32VW553/V1_MQTT_OK/GD32VW55X_Wifi_BLE_SDK/GD32VW55x_RELEASE_V1.0.2/MSDK/cloud/alicloud/src/services/awss\awss_statis.c ****     if (ZC_CNT > 0) {
 148:C:/Users/stapi/OneDrive/Desktop/GD32VW553/V1_MQTT_OK/GD32VW55X_Wifi_BLE_SDK/GD32VW55x_RELEASE_V1.0.2/MSDK/cloud/alicloud/src/services/awss\awss_statis.c ****         len += HAL_Snprintf(log_buf + len, log_buf_len - len, elem_fmt, "Zconfig",
 149:C:/Users/stapi/OneDrive/Desktop/GD32VW553/V1_MQTT_OK/GD32VW55X_Wifi_BLE_SDK/GD32VW55x_RELEASE_V1.0.2/MSDK/cloud/alicloud/src/services/awss\awss_statis.c ****                 0, 0, 0, ZC_CNT, ZC_SUC, 0, ZC_PW_ERR);
 150:C:/Users/stapi/OneDrive/Desktop/GD32VW553/V1_MQTT_OK/GD32VW55X_Wifi_BLE_SDK/GD32VW55x_RELEASE_V1.0.2/MSDK/cloud/alicloud/src/services/awss\awss_statis.c ****     }
 151:C:/Users/stapi/OneDrive/Desktop/GD32VW553/V1_MQTT_OK/GD32VW55X_Wifi_BLE_SDK/GD32VW55x_RELEASE_V1.0.2/MSDK/cloud/alicloud/src/services/awss\awss_statis.c **** #endif
 152:C:/Users/stapi/OneDrive/Desktop/GD32VW553/V1_MQTT_OK/GD32VW55X_Wifi_BLE_SDK/GD32VW55x_RELEASE_V1.0.2/MSDK/cloud/alicloud/src/services/awss\awss_statis.c **** #ifdef AWSS_SUPPORT_DEV_AP
 153:C:/Users/stapi/OneDrive/Desktop/GD32VW553/V1_MQTT_OK/GD32VW55X_Wifi_BLE_SDK/GD32VW55x_RELEASE_V1.0.2/MSDK/cloud/alicloud/src/services/awss\awss_statis.c ****     if (DAP_CNT > 0) {
 154:C:/Users/stapi/OneDrive/Desktop/GD32VW553/V1_MQTT_OK/GD32VW55X_Wifi_BLE_SDK/GD32VW55x_RELEASE_V1.0.2/MSDK/cloud/alicloud/src/services/awss\awss_statis.c ****         len += HAL_Snprintf(log_buf + len, log_buf_len - len, elem_fmt, "Dev-ap",
 155:C:/Users/stapi/OneDrive/Desktop/GD32VW553/V1_MQTT_OK/GD32VW55X_Wifi_BLE_SDK/GD32VW55x_RELEASE_V1.0.2/MSDK/cloud/alicloud/src/services/awss\awss_statis.c ****                 DAP_TMAX, DAP_TMIN, DAP_TMEAN, DAP_CNT, DAP_SUC, 0, DAP_PW_ERR);
 156:C:/Users/stapi/OneDrive/Desktop/GD32VW553/V1_MQTT_OK/GD32VW55X_Wifi_BLE_SDK/GD32VW55x_RELEASE_V1.0.2/MSDK/cloud/alicloud/src/services/awss\awss_statis.c ****     }
 157:C:/Users/stapi/OneDrive/Desktop/GD32VW553/V1_MQTT_OK/GD32VW55X_Wifi_BLE_SDK/GD32VW55x_RELEASE_V1.0.2/MSDK/cloud/alicloud/src/services/awss\awss_statis.c **** #endif
 158:C:/Users/stapi/OneDrive/Desktop/GD32VW553/V1_MQTT_OK/GD32VW55X_Wifi_BLE_SDK/GD32VW55x_RELEASE_V1.0.2/MSDK/cloud/alicloud/src/services/awss\awss_statis.c **** 
 159:C:/Users/stapi/OneDrive/Desktop/GD32VW553/V1_MQTT_OK/GD32VW55X_Wifi_BLE_SDK/GD32VW55x_RELEASE_V1.0.2/MSDK/cloud/alicloud/src/services/awss\awss_statis.c ****     do {
 160:C:/Users/stapi/OneDrive/Desktop/GD32VW553/V1_MQTT_OK/GD32VW55X_Wifi_BLE_SDK/GD32VW55x_RELEASE_V1.0.2/MSDK/cloud/alicloud/src/services/awss\awss_statis.c ****         if (len == 0)  /* no need to report log */
 161:C:/Users/stapi/OneDrive/Desktop/GD32VW553/V1_MQTT_OK/GD32VW55X_Wifi_BLE_SDK/GD32VW55x_RELEASE_V1.0.2/MSDK/cloud/alicloud/src/services/awss\awss_statis.c ****             break;
 162:C:/Users/stapi/OneDrive/Desktop/GD32VW553/V1_MQTT_OK/GD32VW55X_Wifi_BLE_SDK/GD32VW55x_RELEASE_V1.0.2/MSDK/cloud/alicloud/src/services/awss\awss_statis.c ****         log_buf[len - 1] = '\0';  /* remove end of ',' */
 163:C:/Users/stapi/OneDrive/Desktop/GD32VW553/V1_MQTT_OK/GD32VW55X_Wifi_BLE_SDK/GD32VW55x_RELEASE_V1.0.2/MSDK/cloud/alicloud/src/services/awss\awss_statis.c **** 
 164:C:/Users/stapi/OneDrive/Desktop/GD32VW553/V1_MQTT_OK/GD32VW55X_Wifi_BLE_SDK/GD32VW55x_RELEASE_V1.0.2/MSDK/cloud/alicloud/src/services/awss\awss_statis.c ****         HAL_Snprintf(log_content, AWSS_STATIS_BUF_LEN, AWSS_STATIS_FMT, (uint32_t)HAL_UptimeMs(), "
 165:C:/Users/stapi/OneDrive/Desktop/GD32VW553/V1_MQTT_OK/GD32VW55X_Wifi_BLE_SDK/GD32VW55x_RELEASE_V1.0.2/MSDK/cloud/alicloud/src/services/awss\awss_statis.c ****                 module == NULL ? "default" : module, awss_statis_trace_id, log_buf);
 166:C:/Users/stapi/OneDrive/Desktop/GD32VW553/V1_MQTT_OK/GD32VW55X_Wifi_BLE_SDK/GD32VW55x_RELEASE_V1.0.2/MSDK/cloud/alicloud/src/services/awss\awss_statis.c **** 
 167:C:/Users/stapi/OneDrive/Desktop/GD32VW553/V1_MQTT_OK/GD32VW55X_Wifi_BLE_SDK/GD32VW55x_RELEASE_V1.0.2/MSDK/cloud/alicloud/src/services/awss\awss_statis.c ****         HAL_Snprintf(id_str, sizeof(id_str), "%u", ++ awss_statis_report_id);
 168:C:/Users/stapi/OneDrive/Desktop/GD32VW553/V1_MQTT_OK/GD32VW55X_Wifi_BLE_SDK/GD32VW55x_RELEASE_V1.0.2/MSDK/cloud/alicloud/src/services/awss\awss_statis.c **** 
 169:C:/Users/stapi/OneDrive/Desktop/GD32VW553/V1_MQTT_OK/GD32VW55X_Wifi_BLE_SDK/GD32VW55x_RELEASE_V1.0.2/MSDK/cloud/alicloud/src/services/awss\awss_statis.c ****         awss_build_packet(AWSS_CMP_PKT_TYPE_REQ, id_str, ILOP_VER, METHOD_LOG_POST, log_content, 0,
 170:C:/Users/stapi/OneDrive/Desktop/GD32VW553/V1_MQTT_OK/GD32VW55X_Wifi_BLE_SDK/GD32VW55x_RELEASE_V1.0.2/MSDK/cloud/alicloud/src/services/awss\awss_statis.c ****                 log_buf, &log_buf_len);
 171:C:/Users/stapi/OneDrive/Desktop/GD32VW553/V1_MQTT_OK/GD32VW55X_Wifi_BLE_SDK/GD32VW55x_RELEASE_V1.0.2/MSDK/cloud/alicloud/src/services/awss\awss_statis.c **** 
 172:C:/Users/stapi/OneDrive/Desktop/GD32VW553/V1_MQTT_OK/GD32VW55X_Wifi_BLE_SDK/GD32VW55x_RELEASE_V1.0.2/MSDK/cloud/alicloud/src/services/awss\awss_statis.c ****         awss_debug("%s\n", log_buf);
 173:C:/Users/stapi/OneDrive/Desktop/GD32VW553/V1_MQTT_OK/GD32VW55X_Wifi_BLE_SDK/GD32VW55x_RELEASE_V1.0.2/MSDK/cloud/alicloud/src/services/awss\awss_statis.c **** 
 174:C:/Users/stapi/OneDrive/Desktop/GD32VW553/V1_MQTT_OK/GD32VW55X_Wifi_BLE_SDK/GD32VW55x_RELEASE_V1.0.2/MSDK/cloud/alicloud/src/services/awss\awss_statis.c ****         ret = awss_cmp_mqtt_send(statis_topic, log_buf, strlen(log_buf), 0);
 175:C:/Users/stapi/OneDrive/Desktop/GD32VW553/V1_MQTT_OK/GD32VW55X_Wifi_BLE_SDK/GD32VW55x_RELEASE_V1.0.2/MSDK/cloud/alicloud/src/services/awss\awss_statis.c **** 
 176:C:/Users/stapi/OneDrive/Desktop/GD32VW553/V1_MQTT_OK/GD32VW55X_Wifi_BLE_SDK/GD32VW55x_RELEASE_V1.0.2/MSDK/cloud/alicloud/src/services/awss\awss_statis.c ****         awss_info("awss report statis %s\n", ret == 0 ? "success" : "fail");
 177:C:/Users/stapi/OneDrive/Desktop/GD32VW553/V1_MQTT_OK/GD32VW55X_Wifi_BLE_SDK/GD32VW55x_RELEASE_V1.0.2/MSDK/cloud/alicloud/src/services/awss\awss_statis.c ****     } while (0);
 178:C:/Users/stapi/OneDrive/Desktop/GD32VW553/V1_MQTT_OK/GD32VW55X_Wifi_BLE_SDK/GD32VW55x_RELEASE_V1.0.2/MSDK/cloud/alicloud/src/services/awss\awss_statis.c **** 
 179:C:/Users/stapi/OneDrive/Desktop/GD32VW553/V1_MQTT_OK/GD32VW55X_Wifi_BLE_SDK/GD32VW55x_RELEASE_V1.0.2/MSDK/cloud/alicloud/src/services/awss\awss_statis.c ****     if (awss_statis_mutex)
 180:C:/Users/stapi/OneDrive/Desktop/GD32VW553/V1_MQTT_OK/GD32VW55X_Wifi_BLE_SDK/GD32VW55x_RELEASE_V1.0.2/MSDK/cloud/alicloud/src/services/awss\awss_statis.c ****         HAL_MutexUnlock(awss_statis_mutex);
 181:C:/Users/stapi/OneDrive/Desktop/GD32VW553/V1_MQTT_OK/GD32VW55X_Wifi_BLE_SDK/GD32VW55x_RELEASE_V1.0.2/MSDK/cloud/alicloud/src/services/awss\awss_statis.c **** 
 182:C:/Users/stapi/OneDrive/Desktop/GD32VW553/V1_MQTT_OK/GD32VW55X_Wifi_BLE_SDK/GD32VW55x_RELEASE_V1.0.2/MSDK/cloud/alicloud/src/services/awss\awss_statis.c ****     os_free(log_buf);
 183:C:/Users/stapi/OneDrive/Desktop/GD32VW553/V1_MQTT_OK/GD32VW55X_Wifi_BLE_SDK/GD32VW55x_RELEASE_V1.0.2/MSDK/cloud/alicloud/src/services/awss\awss_statis.c ****     os_free(log_content);
 184:C:/Users/stapi/OneDrive/Desktop/GD32VW553/V1_MQTT_OK/GD32VW55X_Wifi_BLE_SDK/GD32VW55x_RELEASE_V1.0.2/MSDK/cloud/alicloud/src/services/awss\awss_statis.c **** 
 185:C:/Users/stapi/OneDrive/Desktop/GD32VW553/V1_MQTT_OK/GD32VW55X_Wifi_BLE_SDK/GD32VW55x_RELEASE_V1.0.2/MSDK/cloud/alicloud/src/services/awss\awss_statis.c ****     return 0;
 186:C:/Users/stapi/OneDrive/Desktop/GD32VW553/V1_MQTT_OK/GD32VW55X_Wifi_BLE_SDK/GD32VW55x_RELEASE_V1.0.2/MSDK/cloud/alicloud/src/services/awss\awss_statis.c **** 
 187:C:/Users/stapi/OneDrive/Desktop/GD32VW553/V1_MQTT_OK/GD32VW55X_Wifi_BLE_SDK/GD32VW55x_RELEASE_V1.0.2/MSDK/cloud/alicloud/src/services/awss\awss_statis.c **** STATIS_ERR:
 188:C:/Users/stapi/OneDrive/Desktop/GD32VW553/V1_MQTT_OK/GD32VW55X_Wifi_BLE_SDK/GD32VW55x_RELEASE_V1.0.2/MSDK/cloud/alicloud/src/services/awss\awss_statis.c ****     if (log_content) os_free(log_content);
 225              		.loc 1 188 5
 226              		.loc 1 188 22
 227              	.LBB40:
 228              	.LBB41:
 394:..\..\..\..\cloud\alicloud\src\services\dev_bind\os/os.h **** }
 229              		.loc 2 394 5
 230 00b8 4A85     		mv	a0,s2
 231 00ba 97000000 		call	HAL_Free
 231      E7800000 
 232              	.LVL15:
 233              	.LBE41:
 234              	.LBE40:
 189:C:/Users/stapi/OneDrive/Desktop/GD32VW553/V1_MQTT_OK/GD32VW55X_Wifi_BLE_SDK/GD32VW55x_RELEASE_V1.0.2/MSDK/cloud/alicloud/src/services/awss\awss_statis.c ****     if (log_buf) os_free(log_buf);
 235              		.loc 1 189 5
 236              		.loc 1 189 8 is_stmt 0
 237 00c2 91C4     		beq	s1,zero,.L44
 238              		.loc 1 189 18 is_stmt 1
 239              	.LVL16:
 240              	.LBB42:
 241              	.LBB43:
 394:..\..\..\..\cloud\alicloud\src\services\dev_bind\os/os.h **** }
 242              		.loc 2 394 5
 243 00c4 2685     		mv	a0,s1
 244 00c6 97000000 		call	HAL_Free
 244      E7800000 
 245              	.LVL17:
 246              	.L44:
 247              	.LBE43:
 248              	.LBE42:
 190:C:/Users/stapi/OneDrive/Desktop/GD32VW553/V1_MQTT_OK/GD32VW55X_Wifi_BLE_SDK/GD32VW55x_RELEASE_V1.0.2/MSDK/cloud/alicloud/src/services/awss\awss_statis.c ****     return -1;
 249              		.loc 1 190 12 is_stmt 0
 250 00ce 7D55     		li	a0,-1
 251              	.LBB45:
 252              	.LBB44:
 395:..\..\..\..\cloud\alicloud\src\services\dev_bind\os/os.h **** 
 253              		.loc 2 395 1
 254 00d0 A1A4     		j	.L1
 255              	.LVL18:
 256              	.L4:
 257              	.LBE44:
 258              	.LBE45:
 114:C:/Users/stapi/OneDrive/Desktop/GD32VW553/V1_MQTT_OK/GD32VW55X_Wifi_BLE_SDK/GD32VW55x_RELEASE_V1.0.2/MSDK/cloud/alicloud/src/services/awss\awss_statis.c ****         HAL_MutexLock(awss_statis_mutex);
 259              		.loc 1 114 5 is_stmt 1
 114:C:/Users/stapi/OneDrive/Desktop/GD32VW553/V1_MQTT_OK/GD32VW55X_Wifi_BLE_SDK/GD32VW55x_RELEASE_V1.0.2/MSDK/cloud/alicloud/src/services/awss\awss_statis.c ****         HAL_MutexLock(awss_statis_mutex);
 260              		.loc 1 114 9 is_stmt 0
 261 00d2 370A0000 		lui	s4,%hi(.LANCHOR0)
 262 00d6 03250A00 		lw	a0,%lo(.LANCHOR0)(s4)
 263 00da 130A0A00 		addi	s4,s4,%lo(.LANCHOR0)
 114:C:/Users/stapi/OneDrive/Desktop/GD32VW553/V1_MQTT_OK/GD32VW55X_Wifi_BLE_SDK/GD32VW55x_RELEASE_V1.0.2/MSDK/cloud/alicloud/src/services/awss\awss_statis.c ****         HAL_MutexLock(awss_statis_mutex);
 264              		.loc 1 114 8
 265 00de 09C5     		beq	a0,zero,.L5
 115:C:/Users/stapi/OneDrive/Desktop/GD32VW553/V1_MQTT_OK/GD32VW55X_Wifi_BLE_SDK/GD32VW55x_RELEASE_V1.0.2/MSDK/cloud/alicloud/src/services/awss\awss_statis.c **** 
 266              		.loc 1 115 9 is_stmt 1
 267 00e0 97000000 		call	HAL_MutexLock
 267      E7800000 
 268              	.LVL19:
 269              	.L5:
 117:C:/Users/stapi/OneDrive/Desktop/GD32VW553/V1_MQTT_OK/GD32VW55X_Wifi_BLE_SDK/GD32VW55x_RELEASE_V1.0.2/MSDK/cloud/alicloud/src/services/awss\awss_statis.c ****         len += HAL_Snprintf(log_buf + len, log_buf_len - len, elem_fmt, "ConnRouter",
 270              		.loc 1 117 5
 117:C:/Users/stapi/OneDrive/Desktop/GD32VW553/V1_MQTT_OK/GD32VW55X_Wifi_BLE_SDK/GD32VW55x_RELEASE_V1.0.2/MSDK/cloud/alicloud/src/services/awss\awss_statis.c ****         len += HAL_Snprintf(log_buf + len, log_buf_len - len, elem_fmt, "ConnRouter",
 271              		.loc 1 117 9 is_stmt 0
 272 00e8 37040000 		lui	s0,%hi(.LANCHOR1)
 273 00ec 83280400 		lw	a7,%lo(.LANCHOR1)(s0)
  99:C:/Users/stapi/OneDrive/Desktop/GD32VW553/V1_MQTT_OK/GD32VW55X_Wifi_BLE_SDK/GD32VW55x_RELEASE_V1.0.2/MSDK/cloud/alicloud/src/services/awss\awss_statis.c ****     int ret;
 274              		.loc 1 99 9
 275 00f0 814A     		li	s5,0
 276 00f2 13040400 		addi	s0,s0,%lo(.LANCHOR1)
 117:C:/Users/stapi/OneDrive/Desktop/GD32VW553/V1_MQTT_OK/GD32VW55X_Wifi_BLE_SDK/GD32VW55x_RELEASE_V1.0.2/MSDK/cloud/alicloud/src/services/awss\awss_statis.c ****         len += HAL_Snprintf(log_buf + len, log_buf_len - len, elem_fmt, "ConnRouter",
 277              		.loc 1 117 8
 278 00f6 63890802 		beq	a7,zero,.L6
 118:C:/Users/stapi/OneDrive/Desktop/GD32VW553/V1_MQTT_OK/GD32VW55X_Wifi_BLE_SDK/GD32VW55x_RELEASE_V1.0.2/MSDK/cloud/alicloud/src/services/awss\awss_statis.c ****                 DROUTE_TMAX, DROUTE_TMIN, DROUTE_TMEAN, DROUTE_CNT, DROUTE_SUC, 0, 0);
 279              		.loc 1 118 9 is_stmt 1
 118:C:/Users/stapi/OneDrive/Desktop/GD32VW553/V1_MQTT_OK/GD32VW55X_Wifi_BLE_SDK/GD32VW55x_RELEASE_V1.0.2/MSDK/cloud/alicloud/src/services/awss\awss_statis.c ****                 DROUTE_TMAX, DROUTE_TMIN, DROUTE_TMEAN, DROUTE_CNT, DROUTE_SUC, 0, 0);
 280              		.loc 1 118 16 is_stmt 0
 281 00fa 02C4     		sw	zero,8(sp)
 282 00fc 02C2     		sw	zero,4(sp)
 283 00fe 5C40     		lw	a5,4(s0)
 284 0100 9255     		lw	a1,36(sp)
 285 0102 B7060000 		lui	a3,%hi(.LC7)
 286 0106 3EC0     		sw	a5,0(sp)
 287 0108 03288400 		lw	a6,8(s0)
 288 010c 1C48     		lw	a5,16(s0)
 289 010e 5844     		lw	a4,12(s0)
 290 0110 37060000 		lui	a2,%hi(.LC8)
 291 0114 93860600 		addi	a3,a3,%lo(.LC7)
 292 0118 13060600 		addi	a2,a2,%lo(.LC8)
 293 011c 2685     		mv	a0,s1
 294 011e 97000000 		call	HAL_Snprintf
 294      E7800000 
 295              	.LVL20:
 296 0126 AA8A     		mv	s5,a0
 297              	.LVL21:
 298              	.L6:
 123:C:/Users/stapi/OneDrive/Desktop/GD32VW553/V1_MQTT_OK/GD32VW55X_Wifi_BLE_SDK/GD32VW55x_RELEASE_V1.0.2/MSDK/cloud/alicloud/src/services/awss\awss_statis.c ****         len += HAL_Snprintf(log_buf + len, log_buf_len - len, elem_fmt, "Smartconfig",
 299              		.loc 1 123 5 is_stmt 1
 123:C:/Users/stapi/OneDrive/Desktop/GD32VW553/V1_MQTT_OK/GD32VW55X_Wifi_BLE_SDK/GD32VW55x_RELEASE_V1.0.2/MSDK/cloud/alicloud/src/services/awss\awss_statis.c ****         len += HAL_Snprintf(log_buf + len, log_buf_len - len, elem_fmt, "Smartconfig",
 300              		.loc 1 123 9 is_stmt 0
 301 0128 8328C401 		lw	a7,28(s0)
 123:C:/Users/stapi/OneDrive/Desktop/GD32VW553/V1_MQTT_OK/GD32VW55X_Wifi_BLE_SDK/GD32VW55x_RELEASE_V1.0.2/MSDK/cloud/alicloud/src/services/awss\awss_statis.c ****         len += HAL_Snprintf(log_buf + len, log_buf_len - len, elem_fmt, "Smartconfig",
 302              		.loc 1 123 8
 303 012c 638E0802 		beq	a7,zero,.L7
 124:C:/Users/stapi/OneDrive/Desktop/GD32VW553/V1_MQTT_OK/GD32VW55X_Wifi_BLE_SDK/GD32VW55x_RELEASE_V1.0.2/MSDK/cloud/alicloud/src/services/awss\awss_statis.c ****                 SM_TMAX, SM_TMIN, SM_TMEAN, SM_CNT, SM_SUC, SM_CRC_ERR, SM_PW_ERR);
 304              		.loc 1 124 9 is_stmt 1
 124:C:/Users/stapi/OneDrive/Desktop/GD32VW553/V1_MQTT_OK/GD32VW55X_Wifi_BLE_SDK/GD32VW55x_RELEASE_V1.0.2/MSDK/cloud/alicloud/src/services/awss\awss_statis.c ****                 SM_TMAX, SM_TMIN, SM_TMEAN, SM_CNT, SM_SUC, SM_CRC_ERR, SM_PW_ERR);
 305              		.loc 1 124 16 is_stmt 0
 306 0130 5C50     		lw	a5,36(s0)
 307 0132 9255     		lw	a1,36(sp)
 308 0134 B7060000 		lui	a3,%hi(.LC9)
 309 0138 3EC4     		sw	a5,8(sp)
 310 013a 1C50     		lw	a5,32(s0)
 311 013c 37060000 		lui	a2,%hi(.LC8)
 312 0140 B3855541 		sub	a1,a1,s5
 313 0144 3EC2     		sw	a5,4(sp)
 314 0146 1C54     		lw	a5,40(s0)
 315 0148 33855401 		add	a0,s1,s5
 316 014c 93860600 		addi	a3,a3,%lo(.LC9)
 317 0150 3EC0     		sw	a5,0(sp)
 318 0152 03284403 		lw	a6,52(s0)
 319 0156 5C5C     		lw	a5,60(s0)
 320 0158 185C     		lw	a4,56(s0)
 321 015a 13060600 		addi	a2,a2,%lo(.LC8)
 322 015e 97000000 		call	HAL_Snprintf
 322      E7800000 
 323              	.LVL22:
 124:C:/Users/stapi/OneDrive/Desktop/GD32VW553/V1_MQTT_OK/GD32VW55X_Wifi_BLE_SDK/GD32VW55x_RELEASE_V1.0.2/MSDK/cloud/alicloud/src/services/awss\awss_statis.c ****                 SM_TMAX, SM_TMIN, SM_TMEAN, SM_CNT, SM_SUC, SM_CRC_ERR, SM_PW_ERR);
 324              		.loc 1 124 13
 325 0166 AA9A     		add	s5,s5,a0
 326              	.LVL23:
 327              	.L7:
 147:C:/Users/stapi/OneDrive/Desktop/GD32VW553/V1_MQTT_OK/GD32VW55X_Wifi_BLE_SDK/GD32VW55x_RELEASE_V1.0.2/MSDK/cloud/alicloud/src/services/awss\awss_statis.c ****         len += HAL_Snprintf(log_buf + len, log_buf_len - len, elem_fmt, "Zconfig",
 328              		.loc 1 147 5 is_stmt 1
 147:C:/Users/stapi/OneDrive/Desktop/GD32VW553/V1_MQTT_OK/GD32VW55X_Wifi_BLE_SDK/GD32VW55x_RELEASE_V1.0.2/MSDK/cloud/alicloud/src/services/awss\awss_statis.c ****         len += HAL_Snprintf(log_buf + len, log_buf_len - len, elem_fmt, "Zconfig",
 329              		.loc 1 147 9 is_stmt 0
 330 0168 83280406 		lw	a7,96(s0)
 147:C:/Users/stapi/OneDrive/Desktop/GD32VW553/V1_MQTT_OK/GD32VW55X_Wifi_BLE_SDK/GD32VW55x_RELEASE_V1.0.2/MSDK/cloud/alicloud/src/services/awss\awss_statis.c ****         len += HAL_Snprintf(log_buf + len, log_buf_len - len, elem_fmt, "Zconfig",
 331              		.loc 1 147 8
 332 016c 638C0802 		beq	a7,zero,.L8
 148:C:/Users/stapi/OneDrive/Desktop/GD32VW553/V1_MQTT_OK/GD32VW55X_Wifi_BLE_SDK/GD32VW55x_RELEASE_V1.0.2/MSDK/cloud/alicloud/src/services/awss\awss_statis.c ****                 0, 0, 0, ZC_CNT, ZC_SUC, 0, ZC_PW_ERR);
 333              		.loc 1 148 9 is_stmt 1
 148:C:/Users/stapi/OneDrive/Desktop/GD32VW553/V1_MQTT_OK/GD32VW55X_Wifi_BLE_SDK/GD32VW55x_RELEASE_V1.0.2/MSDK/cloud/alicloud/src/services/awss\awss_statis.c ****                 0, 0, 0, ZC_CNT, ZC_SUC, 0, ZC_PW_ERR);
 334              		.loc 1 148 16 is_stmt 0
 335 0170 3C54     		lw	a5,104(s0)
 336 0172 02C2     		sw	zero,4(sp)
 337 0174 9255     		lw	a1,36(sp)
 338 0176 3EC4     		sw	a5,8(sp)
 339 0178 7C50     		lw	a5,100(s0)
 340 017a B7060000 		lui	a3,%hi(.LC10)
 341 017e 37060000 		lui	a2,%hi(.LC8)
 342 0182 3EC0     		sw	a5,0(sp)
 343 0184 B3855541 		sub	a1,a1,s5
 344 0188 33855401 		add	a0,s1,s5
 345 018c 0148     		li	a6,0
 346 018e 8147     		li	a5,0
 347 0190 0147     		li	a4,0
 348 0192 93860600 		addi	a3,a3,%lo(.LC10)
 349 0196 13060600 		addi	a2,a2,%lo(.LC8)
 350 019a 97000000 		call	HAL_Snprintf
 350      E7800000 
 351              	.LVL24:
 148:C:/Users/stapi/OneDrive/Desktop/GD32VW553/V1_MQTT_OK/GD32VW55X_Wifi_BLE_SDK/GD32VW55x_RELEASE_V1.0.2/MSDK/cloud/alicloud/src/services/awss\awss_statis.c ****                 0, 0, 0, ZC_CNT, ZC_SUC, 0, ZC_PW_ERR);
 352              		.loc 1 148 13
 353 01a2 AA9A     		add	s5,s5,a0
 354              	.LVL25:
 355              	.L8:
 153:C:/Users/stapi/OneDrive/Desktop/GD32VW553/V1_MQTT_OK/GD32VW55X_Wifi_BLE_SDK/GD32VW55x_RELEASE_V1.0.2/MSDK/cloud/alicloud/src/services/awss\awss_statis.c ****         len += HAL_Snprintf(log_buf + len, log_buf_len - len, elem_fmt, "Dev-ap",
 356              		.loc 1 153 5 is_stmt 1
 153:C:/Users/stapi/OneDrive/Desktop/GD32VW553/V1_MQTT_OK/GD32VW55X_Wifi_BLE_SDK/GD32VW55x_RELEASE_V1.0.2/MSDK/cloud/alicloud/src/services/awss\awss_statis.c ****         len += HAL_Snprintf(log_buf + len, log_buf_len - len, elem_fmt, "Dev-ap",
 357              		.loc 1 153 9 is_stmt 0
 358 01a4 83280404 		lw	a7,64(s0)
 153:C:/Users/stapi/OneDrive/Desktop/GD32VW553/V1_MQTT_OK/GD32VW55X_Wifi_BLE_SDK/GD32VW55x_RELEASE_V1.0.2/MSDK/cloud/alicloud/src/services/awss\awss_statis.c ****         len += HAL_Snprintf(log_buf + len, log_buf_len - len, elem_fmt, "Dev-ap",
 359              		.loc 1 153 8
 360 01a8 638D0802 		beq	a7,zero,.L9
 154:C:/Users/stapi/OneDrive/Desktop/GD32VW553/V1_MQTT_OK/GD32VW55X_Wifi_BLE_SDK/GD32VW55x_RELEASE_V1.0.2/MSDK/cloud/alicloud/src/services/awss\awss_statis.c ****                 DAP_TMAX, DAP_TMIN, DAP_TMEAN, DAP_CNT, DAP_SUC, 0, DAP_PW_ERR);
 361              		.loc 1 154 9 is_stmt 1
 154:C:/Users/stapi/OneDrive/Desktop/GD32VW553/V1_MQTT_OK/GD32VW55X_Wifi_BLE_SDK/GD32VW55x_RELEASE_V1.0.2/MSDK/cloud/alicloud/src/services/awss\awss_statis.c ****                 DAP_TMAX, DAP_TMIN, DAP_TMEAN, DAP_CNT, DAP_SUC, 0, DAP_PW_ERR);
 362              		.loc 1 154 16 is_stmt 0
 363 01ac 7C4C     		lw	a5,92(s0)
 364 01ae 02C2     		sw	zero,4(sp)
 365 01b0 9255     		lw	a1,36(sp)
 366 01b2 3EC4     		sw	a5,8(sp)
 367 01b4 7C40     		lw	a5,68(s0)
 368 01b6 B7060000 		lui	a3,%hi(.LC11)
 369 01ba 37060000 		lui	a2,%hi(.LC8)
 370 01be 3EC0     		sw	a5,0(sp)
 371 01c0 03288404 		lw	a6,72(s0)
 372 01c4 3C48     		lw	a5,80(s0)
 373 01c6 7844     		lw	a4,76(s0)
 374 01c8 B3855541 		sub	a1,a1,s5
 375 01cc 33855401 		add	a0,s1,s5
 376 01d0 93860600 		addi	a3,a3,%lo(.LC11)
 377 01d4 13060600 		addi	a2,a2,%lo(.LC8)
 378 01d8 97000000 		call	HAL_Snprintf
 378      E7800000 
 379              	.LVL26:
 154:C:/Users/stapi/OneDrive/Desktop/GD32VW553/V1_MQTT_OK/GD32VW55X_Wifi_BLE_SDK/GD32VW55x_RELEASE_V1.0.2/MSDK/cloud/alicloud/src/services/awss\awss_statis.c ****                 DAP_TMAX, DAP_TMIN, DAP_TMEAN, DAP_CNT, DAP_SUC, 0, DAP_PW_ERR);
 380              		.loc 1 154 13
 381 01e0 AA9A     		add	s5,s5,a0
 382              	.LVL27:
 383              	.L9:
 159:C:/Users/stapi/OneDrive/Desktop/GD32VW553/V1_MQTT_OK/GD32VW55X_Wifi_BLE_SDK/GD32VW55x_RELEASE_V1.0.2/MSDK/cloud/alicloud/src/services/awss\awss_statis.c ****         if (len == 0)  /* no need to report log */
 384              		.loc 1 159 5 is_stmt 1
 160:C:/Users/stapi/OneDrive/Desktop/GD32VW553/V1_MQTT_OK/GD32VW55X_Wifi_BLE_SDK/GD32VW55x_RELEASE_V1.0.2/MSDK/cloud/alicloud/src/services/awss\awss_statis.c ****             break;
 385              		.loc 1 160 9
 160:C:/Users/stapi/OneDrive/Desktop/GD32VW553/V1_MQTT_OK/GD32VW55X_Wifi_BLE_SDK/GD32VW55x_RELEASE_V1.0.2/MSDK/cloud/alicloud/src/services/awss\awss_statis.c ****             break;
 386              		.loc 1 160 12 is_stmt 0
 387 01e2 63890A10 		beq	s5,zero,.L10
 162:C:/Users/stapi/OneDrive/Desktop/GD32VW553/V1_MQTT_OK/GD32VW55X_Wifi_BLE_SDK/GD32VW55x_RELEASE_V1.0.2/MSDK/cloud/alicloud/src/services/awss\awss_statis.c **** 
 388              		.loc 1 162 9 is_stmt 1
 162:C:/Users/stapi/OneDrive/Desktop/GD32VW553/V1_MQTT_OK/GD32VW55X_Wifi_BLE_SDK/GD32VW55x_RELEASE_V1.0.2/MSDK/cloud/alicloud/src/services/awss\awss_statis.c **** 
 389              		.loc 1 162 26 is_stmt 0
 390 01e6 B3865401 		add	a3,s1,s5
 391 01ea A38F06FE 		sb	zero,-1(a3)
 164:C:/Users/stapi/OneDrive/Desktop/GD32VW553/V1_MQTT_OK/GD32VW55X_Wifi_BLE_SDK/GD32VW55x_RELEASE_V1.0.2/MSDK/cloud/alicloud/src/services/awss\awss_statis.c ****                 module == NULL ? "default" : module, awss_statis_trace_id, log_buf);
 392              		.loc 1 164 9 is_stmt 1
 164:C:/Users/stapi/OneDrive/Desktop/GD32VW553/V1_MQTT_OK/GD32VW55X_Wifi_BLE_SDK/GD32VW55x_RELEASE_V1.0.2/MSDK/cloud/alicloud/src/services/awss\awss_statis.c ****                 module == NULL ? "default" : module, awss_statis_trace_id, log_buf);
 393              		.loc 1 164 83 is_stmt 0
 394 01ee 97000000 		call	HAL_UptimeMs
 394      E7800000 
 395              	.LVL28:
 396 01f6 AA86     		mv	a3,a0
 164:C:/Users/stapi/OneDrive/Desktop/GD32VW553/V1_MQTT_OK/GD32VW55X_Wifi_BLE_SDK/GD32VW55x_RELEASE_V1.0.2/MSDK/cloud/alicloud/src/services/awss\awss_statis.c ****                 module == NULL ? "default" : module, awss_statis_trace_id, log_buf);
 397              		.loc 1 164 9
 398 01f8 63960900 		bne	s3,zero,.L11
 399 01fc B7090000 		lui	s3,%hi(.LC0)
 400              	.LVL29:
 401 0200 93890900 		addi	s3,s3,%lo(.LC0)
 402              	.L11:
 164:C:/Users/stapi/OneDrive/Desktop/GD32VW553/V1_MQTT_OK/GD32VW55X_Wifi_BLE_SDK/GD32VW55x_RELEASE_V1.0.2/MSDK/cloud/alicloud/src/services/awss\awss_statis.c ****                 module == NULL ? "default" : module, awss_statis_trace_id, log_buf);
 403              		.loc 1 164 9 discriminator 4
 404 0204 B7070000 		lui	a5,%hi(.LANCHOR2)
 405 0208 03A80700 		lw	a6,%lo(.LANCHOR2)(a5)
 406 020c 37070000 		lui	a4,%hi(.LC12)
 407 0210 37060000 		lui	a2,%hi(.LC13)
 408 0214 A688     		mv	a7,s1
 409 0216 13070700 		addi	a4,a4,%lo(.LC12)
 410 021a CE87     		mv	a5,s3
 411 021c 13060600 		addi	a2,a2,%lo(.LC13)
 412 0220 93050030 		li	a1,768
 413 0224 4A85     		mv	a0,s2
 414 0226 97000000 		call	HAL_Snprintf
 414      E7800000 
 415              	.LVL30:
 167:C:/Users/stapi/OneDrive/Desktop/GD32VW553/V1_MQTT_OK/GD32VW55X_Wifi_BLE_SDK/GD32VW55x_RELEASE_V1.0.2/MSDK/cloud/alicloud/src/services/awss\awss_statis.c **** 
 416              		.loc 1 167 9 is_stmt 1 discriminator 4
 417 022e B7070000 		lui	a5,%hi(.LANCHOR3)
 418 0232 93870700 		addi	a5,a5,%lo(.LANCHOR3)
 419 0236 9443     		lw	a3,0(a5)
 420 0238 37060000 		lui	a2,%hi(.LC14)
 421 023c 13060600 		addi	a2,a2,%lo(.LC14)
 422 0240 8506     		addi	a3,a3,1
 423 0242 D545     		li	a1,21
 424 0244 2810     		addi	a0,sp,40
 425 0246 94C3     		sw	a3,0(a5)
 426 0248 97000000 		call	HAL_Snprintf
 426      E7800000 
 427              	.LVL31:
 169:C:/Users/stapi/OneDrive/Desktop/GD32VW553/V1_MQTT_OK/GD32VW55X_Wifi_BLE_SDK/GD32VW55x_RELEASE_V1.0.2/MSDK/cloud/alicloud/src/services/awss\awss_statis.c ****                 log_buf, &log_buf_len);
 428              		.loc 1 169 9 discriminator 4
 429 0250 B7060000 		lui	a3,%hi(.LC15)
 430 0254 37060000 		lui	a2,%hi(.LC16)
 431 0258 93084102 		addi	a7,sp,36
 432 025c 2688     		mv	a6,s1
 433 025e 8147     		li	a5,0
 434 0260 4A87     		mv	a4,s2
 435 0262 93860600 		addi	a3,a3,%lo(.LC15)
 436 0266 13060600 		addi	a2,a2,%lo(.LC16)
 437 026a 2C10     		addi	a1,sp,40
 438 026c 0545     		li	a0,1
 439 026e 97000000 		call	awss_build_packet
 439      E7800000 
 440              	.LVL32:
 172:C:/Users/stapi/OneDrive/Desktop/GD32VW553/V1_MQTT_OK/GD32VW55X_Wifi_BLE_SDK/GD32VW55x_RELEASE_V1.0.2/MSDK/cloud/alicloud/src/services/awss\awss_statis.c **** 
 441              		.loc 1 172 9 discriminator 4
 442 0276 37070000 		lui	a4,%hi(.LC17)
 443 027a B7050000 		lui	a1,%hi(.LANCHOR4)
 444 027e 37050000 		lui	a0,%hi(.LC18)
 445 0282 A687     		mv	a5,s1
 446 0284 13070700 		addi	a4,a4,%lo(.LC17)
 447 0288 9546     		li	a3,5
 448 028a 1306C00A 		li	a2,172
 449 028e 93850500 		addi	a1,a1,%lo(.LANCHOR4)
 450 0292 13050500 		addi	a0,a0,%lo(.LC18)
 451 0296 97000000 		call	LITE_syslog
 451      E7800000 
 452              	.LVL33:
 174:C:/Users/stapi/OneDrive/Desktop/GD32VW553/V1_MQTT_OK/GD32VW55X_Wifi_BLE_SDK/GD32VW55x_RELEASE_V1.0.2/MSDK/cloud/alicloud/src/services/awss\awss_statis.c **** 
 453              		.loc 1 174 9 discriminator 4
 174:C:/Users/stapi/OneDrive/Desktop/GD32VW553/V1_MQTT_OK/GD32VW55X_Wifi_BLE_SDK/GD32VW55x_RELEASE_V1.0.2/MSDK/cloud/alicloud/src/services/awss\awss_statis.c **** 
 454              		.loc 1 174 57 is_stmt 0 discriminator 4
 455 029e 2685     		mv	a0,s1
 456 02a0 97000000 		call	strlen
 456      E7800000 
 457              	.LVL34:
 458 02a8 2A86     		mv	a2,a0
 174:C:/Users/stapi/OneDrive/Desktop/GD32VW553/V1_MQTT_OK/GD32VW55X_Wifi_BLE_SDK/GD32VW55x_RELEASE_V1.0.2/MSDK/cloud/alicloud/src/services/awss\awss_statis.c **** 
 459              		.loc 1 174 15 discriminator 4
 460 02aa 8146     		li	a3,0
 461 02ac A685     		mv	a1,s1
 462 02ae 8800     		addi	a0,sp,64
 463 02b0 97000000 		call	awss_cmp_mqtt_send
 463      E7800000 
 464              	.LVL35:
 465 02b8 2A84     		mv	s0,a0
 466              	.LVL36:
 176:C:/Users/stapi/OneDrive/Desktop/GD32VW553/V1_MQTT_OK/GD32VW55X_Wifi_BLE_SDK/GD32VW55x_RELEASE_V1.0.2/MSDK/cloud/alicloud/src/services/awss\awss_statis.c ****     } while (0);
 467              		.loc 1 176 9 is_stmt 1 discriminator 4
 176:C:/Users/stapi/OneDrive/Desktop/GD32VW553/V1_MQTT_OK/GD32VW55X_Wifi_BLE_SDK/GD32VW55x_RELEASE_V1.0.2/MSDK/cloud/alicloud/src/services/awss\awss_statis.c ****     } while (0);
 468              		.loc 1 176 9 discriminator 4
 469 02ba 37050000 		lui	a0,%hi(.LC19)
 470 02be 13050500 		addi	a0,a0,%lo(.LC19)
 471 02c2 97000000 		call	HAL_Printf
 471      E7800000 
 472              	.LVL37:
 176:C:/Users/stapi/OneDrive/Desktop/GD32VW553/V1_MQTT_OK/GD32VW55X_Wifi_BLE_SDK/GD32VW55x_RELEASE_V1.0.2/MSDK/cloud/alicloud/src/services/awss\awss_statis.c ****     } while (0);
 473              		.loc 1 176 9 discriminator 4
 474 02ca 21CC     		beq	s0,zero,.L17
 176:C:/Users/stapi/OneDrive/Desktop/GD32VW553/V1_MQTT_OK/GD32VW55X_Wifi_BLE_SDK/GD32VW55x_RELEASE_V1.0.2/MSDK/cloud/alicloud/src/services/awss\awss_statis.c ****     } while (0);
 475              		.loc 1 176 9 is_stmt 0
 476 02cc B7050000 		lui	a1,%hi(.LC2)
 477 02d0 93850500 		addi	a1,a1,%lo(.LC2)
 478              	.L12:
 176:C:/Users/stapi/OneDrive/Desktop/GD32VW553/V1_MQTT_OK/GD32VW55X_Wifi_BLE_SDK/GD32VW55x_RELEASE_V1.0.2/MSDK/cloud/alicloud/src/services/awss\awss_statis.c ****     } while (0);
 479              		.loc 1 176 9 discriminator 4
 480 02d4 37050000 		lui	a0,%hi(.LC20)
 481 02d8 13050500 		addi	a0,a0,%lo(.LC20)
 482 02dc 97000000 		call	HAL_Printf
 482      E7800000 
 483              	.LVL38:
 176:C:/Users/stapi/OneDrive/Desktop/GD32VW553/V1_MQTT_OK/GD32VW55X_Wifi_BLE_SDK/GD32VW55x_RELEASE_V1.0.2/MSDK/cloud/alicloud/src/services/awss\awss_statis.c ****     } while (0);
 484              		.loc 1 176 9 is_stmt 1 discriminator 4
 485 02e4 37050000 		lui	a0,%hi(.LC6)
 486 02e8 13050500 		addi	a0,a0,%lo(.LC6)
 487 02ec 97000000 		call	HAL_Printf
 487      E7800000 
 488              	.LVL39:
 489              	.L10:
 176:C:/Users/stapi/OneDrive/Desktop/GD32VW553/V1_MQTT_OK/GD32VW55X_Wifi_BLE_SDK/GD32VW55x_RELEASE_V1.0.2/MSDK/cloud/alicloud/src/services/awss\awss_statis.c ****     } while (0);
 490              		.loc 1 176 9 discriminator 5
 177:C:/Users/stapi/OneDrive/Desktop/GD32VW553/V1_MQTT_OK/GD32VW55X_Wifi_BLE_SDK/GD32VW55x_RELEASE_V1.0.2/MSDK/cloud/alicloud/src/services/awss\awss_statis.c **** 
 491              		.loc 1 177 13 discriminator 5
 179:C:/Users/stapi/OneDrive/Desktop/GD32VW553/V1_MQTT_OK/GD32VW55X_Wifi_BLE_SDK/GD32VW55x_RELEASE_V1.0.2/MSDK/cloud/alicloud/src/services/awss\awss_statis.c ****         HAL_MutexUnlock(awss_statis_mutex);
 492              		.loc 1 179 5 discriminator 5
 179:C:/Users/stapi/OneDrive/Desktop/GD32VW553/V1_MQTT_OK/GD32VW55X_Wifi_BLE_SDK/GD32VW55x_RELEASE_V1.0.2/MSDK/cloud/alicloud/src/services/awss\awss_statis.c ****         HAL_MutexUnlock(awss_statis_mutex);
 493              		.loc 1 179 9 is_stmt 0 discriminator 5
 494 02f4 03250A00 		lw	a0,0(s4)
 179:C:/Users/stapi/OneDrive/Desktop/GD32VW553/V1_MQTT_OK/GD32VW55X_Wifi_BLE_SDK/GD32VW55x_RELEASE_V1.0.2/MSDK/cloud/alicloud/src/services/awss\awss_statis.c ****         HAL_MutexUnlock(awss_statis_mutex);
 495              		.loc 1 179 8 discriminator 5
 496 02f8 09C5     		beq	a0,zero,.L13
 180:C:/Users/stapi/OneDrive/Desktop/GD32VW553/V1_MQTT_OK/GD32VW55X_Wifi_BLE_SDK/GD32VW55x_RELEASE_V1.0.2/MSDK/cloud/alicloud/src/services/awss\awss_statis.c **** 
 497              		.loc 1 180 9 is_stmt 1
 498 02fa 97000000 		call	HAL_MutexUnlock
 498      E7800000 
 499              	.LVL40:
 500              	.L13:
 182:C:/Users/stapi/OneDrive/Desktop/GD32VW553/V1_MQTT_OK/GD32VW55X_Wifi_BLE_SDK/GD32VW55x_RELEASE_V1.0.2/MSDK/cloud/alicloud/src/services/awss\awss_statis.c ****     os_free(log_content);
 501              		.loc 1 182 5
 502              	.LBB46:
 503              	.LBB47:
 394:..\..\..\..\cloud\alicloud\src\services\dev_bind\os/os.h **** }
 504              		.loc 2 394 5
 505 0302 2685     		mv	a0,s1
 506 0304 97000000 		call	HAL_Free
 506      E7800000 
 507              	.LVL41:
 508              	.LBE47:
 509              	.LBE46:
 183:C:/Users/stapi/OneDrive/Desktop/GD32VW553/V1_MQTT_OK/GD32VW55X_Wifi_BLE_SDK/GD32VW55x_RELEASE_V1.0.2/MSDK/cloud/alicloud/src/services/awss\awss_statis.c **** 
 510              		.loc 1 183 5
 511              	.LBB48:
 512              	.LBB49:
 394:..\..\..\..\cloud\alicloud\src\services\dev_bind\os/os.h **** }
 513              		.loc 2 394 5
 514 030c 4A85     		mv	a0,s2
 515 030e 97000000 		call	HAL_Free
 515      E7800000 
 516              	.LVL42:
 517              	.LBE49:
 518              	.LBE48:
 185:C:/Users/stapi/OneDrive/Desktop/GD32VW553/V1_MQTT_OK/GD32VW55X_Wifi_BLE_SDK/GD32VW55x_RELEASE_V1.0.2/MSDK/cloud/alicloud/src/services/awss\awss_statis.c **** 
 519              		.loc 1 185 5
 185:C:/Users/stapi/OneDrive/Desktop/GD32VW553/V1_MQTT_OK/GD32VW55X_Wifi_BLE_SDK/GD32VW55x_RELEASE_V1.0.2/MSDK/cloud/alicloud/src/services/awss\awss_statis.c **** 
 520              		.loc 1 185 12 is_stmt 0
 521 0316 0145     		li	a0,0
 522              	.LVL43:
 523              	.L1:
 191:C:/Users/stapi/OneDrive/Desktop/GD32VW553/V1_MQTT_OK/GD32VW55X_Wifi_BLE_SDK/GD32VW55x_RELEASE_V1.0.2/MSDK/cloud/alicloud/src/services/awss\awss_statis.c **** }
 524              		.loc 1 191 1
 525 0318 2961     		addi	sp,sp,192
 526              		.cfi_remember_state
 527              		.cfi_def_cfa_offset 0
 528 031a 17030000 		tail	__riscv_restore_6
 528      67000300 
 529              		.cfi_restore 21
 530              		.cfi_restore 20
 531              		.cfi_restore 19
 532              		.cfi_restore 18
 533              		.cfi_restore 9
 534              		.cfi_restore 8
 535              		.cfi_restore 1
 536              		.cfi_def_cfa_offset -32
 537              	.LVL44:
 538              	.L17:
 539              		.cfi_restore_state
 176:C:/Users/stapi/OneDrive/Desktop/GD32VW553/V1_MQTT_OK/GD32VW55X_Wifi_BLE_SDK/GD32VW55x_RELEASE_V1.0.2/MSDK/cloud/alicloud/src/services/awss\awss_statis.c ****     } while (0);
 540              		.loc 1 176 9
 541 0322 B7050000 		lui	a1,%hi(.LC1)
 542 0326 93850500 		addi	a1,a1,%lo(.LC1)
 543 032a 6DB7     		j	.L12
 544              		.cfi_endproc
 545              	.LFE48:
 547              		.section	.rodata.awss_disp_statis.str1.4,"aMS",@progbits,1
 548              		.align	2
 549              	.LC21:
 550 0000 2D2D2D2D 		.string	"--------------------------------AWSS STATIS-----------------------------------"
 550      2D2D2D2D 
 550      2D2D2D2D 
 550      2D2D2D2D 
 550      2D2D2D2D 
 551 004f 00       		.align	2
 552              	.LC22:
 553 0050 6E616D65 		.string	"name\t\tmax\tmin\tmean\tcnt\tsuc\tcrc-err\tpasswd-err"
 553      09096D61 
 553      78096D69 
 553      6E096D65 
 553      616E0963 
 554 007e 0000     		.align	2
 555              	.LC23:
 556 0080 436F6E6E 		.string	"ConnRouter      \t%u\t%u\t%u\t%u\t%u\t%u\t%u\t"
 556      526F7574 
 556      65722020 
 556      20202020 
 556      09257509 
 557 00a7 00       		.align	2
 558              	.LC24:
 559 00a8 536D6172 		.string	"Smartconfig     \t%u\t%u\t%u\t%u\t%u\t%u\t%u\t"
 559      74636F6E 
 559      66696720 
 559      20202020 
 559      09257509 
 560 00cf 00       		.align	2
 561              	.LC25:
 562 00d0 5A636F6E 		.string	"Zconfig         \t%u\t%u\t%u\t%u\t%u\t%u\t%u\t"
 562      66696720 
 562      20202020 
 562      20202020 
 562      09257509 
 563 00f7 00       		.align	2
 564              	.LC26:
 565 00f8 4465762D 		.string	"Dev-ap          \t%u\t%u\t%u\t%u\t%u\t%u\t%u\t"
 565      61702020 
 565      20202020 
 565      20202020 
 565      09257509 
 566 011f 00       		.align	2
 567              	.LC27:
 568 0120 2D2D2D2D 		.string	"------------------------------------------------------------------------------"
 568      2D2D2D2D 
 568      2D2D2D2D 
 568      2D2D2D2D 
 568      2D2D2D2D 
 569              		.section	.text.awss_disp_statis,"ax",@progbits
 570              		.align	1
 571              		.globl	awss_disp_statis
 573              	awss_disp_statis:
 574              	.LFB49:
 192:C:/Users/stapi/OneDrive/Desktop/GD32VW553/V1_MQTT_OK/GD32VW55X_Wifi_BLE_SDK/GD32VW55x_RELEASE_V1.0.2/MSDK/cloud/alicloud/src/services/awss\awss_statis.c **** 
 193:C:/Users/stapi/OneDrive/Desktop/GD32VW553/V1_MQTT_OK/GD32VW55X_Wifi_BLE_SDK/GD32VW55x_RELEASE_V1.0.2/MSDK/cloud/alicloud/src/services/awss\awss_statis.c **** void awss_disp_statis()
 194:C:/Users/stapi/OneDrive/Desktop/GD32VW553/V1_MQTT_OK/GD32VW55X_Wifi_BLE_SDK/GD32VW55x_RELEASE_V1.0.2/MSDK/cloud/alicloud/src/services/awss\awss_statis.c **** {
 575              		.loc 1 194 1 is_stmt 1
 576              		.cfi_startproc
 577 0000 17030000 		call	t0,__riscv_save_4
 577      E7020300 
 578              		.cfi_offset 19, -20
 579              		.cfi_offset 18, -16
 580              		.cfi_offset 9, -12
 581              		.cfi_offset 8, -8
 582              		.cfi_offset 1, -4
 583              		.cfi_def_cfa_offset 32
 195:C:/Users/stapi/OneDrive/Desktop/GD32VW553/V1_MQTT_OK/GD32VW55X_Wifi_BLE_SDK/GD32VW55x_RELEASE_V1.0.2/MSDK/cloud/alicloud/src/services/awss\awss_statis.c ****     if (awss_statis_mutex)
 584              		.loc 1 195 5
 585              		.loc 1 195 9 is_stmt 0
 586 0008 B7070000 		lui	a5,%hi(.LANCHOR0)
 587 000c 03A50700 		lw	a0,%lo(.LANCHOR0)(a5)
 194:C:/Users/stapi/OneDrive/Desktop/GD32VW553/V1_MQTT_OK/GD32VW55X_Wifi_BLE_SDK/GD32VW55x_RELEASE_V1.0.2/MSDK/cloud/alicloud/src/services/awss\awss_statis.c ****     if (awss_statis_mutex)
 588              		.loc 1 194 1
 589 0010 4111     		addi	sp,sp,-16
 590              		.cfi_def_cfa_offset 48
 591 0012 93890700 		addi	s3,a5,%lo(.LANCHOR0)
 592              		.loc 1 195 8
 593 0016 09C5     		beq	a0,zero,.L46
 196:C:/Users/stapi/OneDrive/Desktop/GD32VW553/V1_MQTT_OK/GD32VW55X_Wifi_BLE_SDK/GD32VW55x_RELEASE_V1.0.2/MSDK/cloud/alicloud/src/services/awss\awss_statis.c ****         HAL_MutexLock(awss_statis_mutex);
 594              		.loc 1 196 9 is_stmt 1
 595 0018 97000000 		call	HAL_MutexLock
 595      E7800000 
 596              	.LVL45:
 597              	.L46:
 197:C:/Users/stapi/OneDrive/Desktop/GD32VW553/V1_MQTT_OK/GD32VW55X_Wifi_BLE_SDK/GD32VW55x_RELEASE_V1.0.2/MSDK/cloud/alicloud/src/services/awss\awss_statis.c **** 
 198:C:/Users/stapi/OneDrive/Desktop/GD32VW553/V1_MQTT_OK/GD32VW55X_Wifi_BLE_SDK/GD32VW55x_RELEASE_V1.0.2/MSDK/cloud/alicloud/src/services/awss\awss_statis.c ****     awss_debug("--------------------------------AWSS STATIS-----------------------------------");
 598              		.loc 1 198 5
 599 0020 37090000 		lui	s2,%hi(.LANCHOR5)
 600 0024 B7040000 		lui	s1,%hi(.LC18)
 601 0028 37070000 		lui	a4,%hi(.LC21)
 602 002c 13070700 		addi	a4,a4,%lo(.LC21)
 603 0030 9546     		li	a3,5
 604 0032 1306600C 		li	a2,198
 605 0036 93050900 		addi	a1,s2,%lo(.LANCHOR5)
 606 003a 13850400 		addi	a0,s1,%lo(.LC18)
 607 003e 97000000 		call	LITE_syslog
 607      E7800000 
 608              	.LVL46:
 199:C:/Users/stapi/OneDrive/Desktop/GD32VW553/V1_MQTT_OK/GD32VW55X_Wifi_BLE_SDK/GD32VW55x_RELEASE_V1.0.2/MSDK/cloud/alicloud/src/services/awss\awss_statis.c ****     awss_debug("name\t\tmax\tmin\tmean\tcnt\tsuc\tcrc-err\tpasswd-err");
 609              		.loc 1 199 5
 610 0046 37070000 		lui	a4,%hi(.LC22)
 611 004a 13070700 		addi	a4,a4,%lo(.LC22)
 612 004e 9546     		li	a3,5
 613 0050 1306700C 		li	a2,199
 614 0054 93050900 		addi	a1,s2,%lo(.LANCHOR5)
 615 0058 13850400 		addi	a0,s1,%lo(.LC18)
 200:C:/Users/stapi/OneDrive/Desktop/GD32VW553/V1_MQTT_OK/GD32VW55X_Wifi_BLE_SDK/GD32VW55x_RELEASE_V1.0.2/MSDK/cloud/alicloud/src/services/awss\awss_statis.c ****     awss_debug("ConnRouter      \t%u\t%u\t%u\t%u\t%u\t%u\t%u\t",
 616              		.loc 1 200 5 is_stmt 0
 617 005c 37040000 		lui	s0,%hi(.LANCHOR1)
 618 0060 13040400 		addi	s0,s0,%lo(.LANCHOR1)
 199:C:/Users/stapi/OneDrive/Desktop/GD32VW553/V1_MQTT_OK/GD32VW55X_Wifi_BLE_SDK/GD32VW55x_RELEASE_V1.0.2/MSDK/cloud/alicloud/src/services/awss\awss_statis.c ****     awss_debug("name\t\tmax\tmin\tmean\tcnt\tsuc\tcrc-err\tpasswd-err");
 619              		.loc 1 199 5
 620 0064 97000000 		call	LITE_syslog
 620      E7800000 
 621              	.LVL47:
 622              		.loc 1 200 5 is_stmt 1
 623 006c 5C40     		lw	a5,4(s0)
 624 006e 83288400 		lw	a7,8(s0)
 625 0072 03280401 		lw	a6,16(s0)
 626 0076 3EC2     		sw	a5,4(sp)
 627 0078 1C40     		lw	a5,0(s0)
 628 007a 37070000 		lui	a4,%hi(.LC23)
 629 007e 13070700 		addi	a4,a4,%lo(.LC23)
 630 0082 3EC0     		sw	a5,0(sp)
 631 0084 5C44     		lw	a5,12(s0)
 632 0086 9546     		li	a3,5
 633 0088 1306800C 		li	a2,200
 634 008c 93050900 		addi	a1,s2,%lo(.LANCHOR5)
 635 0090 13850400 		addi	a0,s1,%lo(.LC18)
 636 0094 02C6     		sw	zero,12(sp)
 637 0096 02C4     		sw	zero,8(sp)
 638 0098 97000000 		call	LITE_syslog
 638      E7800000 
 639              	.LVL48:
 201:C:/Users/stapi/OneDrive/Desktop/GD32VW553/V1_MQTT_OK/GD32VW55X_Wifi_BLE_SDK/GD32VW55x_RELEASE_V1.0.2/MSDK/cloud/alicloud/src/services/awss\awss_statis.c ****             DROUTE_TMAX, DROUTE_TMIN, DROUTE_TMEAN, DROUTE_CNT, DROUTE_SUC, 0, 0);
 202:C:/Users/stapi/OneDrive/Desktop/GD32VW553/V1_MQTT_OK/GD32VW55X_Wifi_BLE_SDK/GD32VW55x_RELEASE_V1.0.2/MSDK/cloud/alicloud/src/services/awss\awss_statis.c **** #ifdef AWSS_SUPPORT_SMARTCONFIG
 203:C:/Users/stapi/OneDrive/Desktop/GD32VW553/V1_MQTT_OK/GD32VW55X_Wifi_BLE_SDK/GD32VW55x_RELEASE_V1.0.2/MSDK/cloud/alicloud/src/services/awss\awss_statis.c ****     awss_debug("Smartconfig     \t%u\t%u\t%u\t%u\t%u\t%u\t%u\t",
 640              		.loc 1 203 5
 641 00a0 5C50     		lw	a5,36(s0)
 642 00a2 83284403 		lw	a7,52(s0)
 643 00a6 0328C403 		lw	a6,60(s0)
 644 00aa 3EC6     		sw	a5,12(sp)
 645 00ac 1C50     		lw	a5,32(s0)
 646 00ae 37070000 		lui	a4,%hi(.LC24)
 647 00b2 13070700 		addi	a4,a4,%lo(.LC24)
 648 00b6 3EC4     		sw	a5,8(sp)
 649 00b8 1C54     		lw	a5,40(s0)
 650 00ba 9546     		li	a3,5
 651 00bc 1306B00C 		li	a2,203
 652 00c0 3EC2     		sw	a5,4(sp)
 653 00c2 5C4C     		lw	a5,28(s0)
 654 00c4 93050900 		addi	a1,s2,%lo(.LANCHOR5)
 655 00c8 13850400 		addi	a0,s1,%lo(.LC18)
 656 00cc 3EC0     		sw	a5,0(sp)
 657 00ce 1C5C     		lw	a5,56(s0)
 658 00d0 97000000 		call	LITE_syslog
 658      E7800000 
 659              	.LVL49:
 204:C:/Users/stapi/OneDrive/Desktop/GD32VW553/V1_MQTT_OK/GD32VW55X_Wifi_BLE_SDK/GD32VW55x_RELEASE_V1.0.2/MSDK/cloud/alicloud/src/services/awss\awss_statis.c ****             SM_TMAX, SM_TMIN, SM_TMEAN, SM_CNT, SM_SUC, SM_CRC_ERR, SM_PW_ERR);
 205:C:/Users/stapi/OneDrive/Desktop/GD32VW553/V1_MQTT_OK/GD32VW55X_Wifi_BLE_SDK/GD32VW55x_RELEASE_V1.0.2/MSDK/cloud/alicloud/src/services/awss\awss_statis.c **** #ifdef  AWSS_SUPPORT_SMARTCONFIG_WPS
 206:C:/Users/stapi/OneDrive/Desktop/GD32VW553/V1_MQTT_OK/GD32VW55X_Wifi_BLE_SDK/GD32VW55x_RELEASE_V1.0.2/MSDK/cloud/alicloud/src/services/awss\awss_statis.c ****     awss_debug("Smartconfig-wps \t%u\t%u\t%u\t%u\t%u\t%u\t%u\t",
 207:C:/Users/stapi/OneDrive/Desktop/GD32VW553/V1_MQTT_OK/GD32VW55X_Wifi_BLE_SDK/GD32VW55x_RELEASE_V1.0.2/MSDK/cloud/alicloud/src/services/awss\awss_statis.c ****             0, 0, 0, WPS_CNT, WPS_SUC, WPS_CRC_ERR, WPS_PW_ERR);
 208:C:/Users/stapi/OneDrive/Desktop/GD32VW553/V1_MQTT_OK/GD32VW55X_Wifi_BLE_SDK/GD32VW55x_RELEASE_V1.0.2/MSDK/cloud/alicloud/src/services/awss\awss_statis.c **** #endif
 209:C:/Users/stapi/OneDrive/Desktop/GD32VW553/V1_MQTT_OK/GD32VW55X_Wifi_BLE_SDK/GD32VW55x_RELEASE_V1.0.2/MSDK/cloud/alicloud/src/services/awss\awss_statis.c **** #endif
 210:C:/Users/stapi/OneDrive/Desktop/GD32VW553/V1_MQTT_OK/GD32VW55X_Wifi_BLE_SDK/GD32VW55x_RELEASE_V1.0.2/MSDK/cloud/alicloud/src/services/awss\awss_statis.c **** #ifdef AWSS_SUPPORT_AHA
 211:C:/Users/stapi/OneDrive/Desktop/GD32VW553/V1_MQTT_OK/GD32VW55X_Wifi_BLE_SDK/GD32VW55x_RELEASE_V1.0.2/MSDK/cloud/alicloud/src/services/awss\awss_statis.c ****     awss_debug("Aha             \t%u\t%u\t%u\t%u\t%u\t%u\t%u\t",
 212:C:/Users/stapi/OneDrive/Desktop/GD32VW553/V1_MQTT_OK/GD32VW55X_Wifi_BLE_SDK/GD32VW55x_RELEASE_V1.0.2/MSDK/cloud/alicloud/src/services/awss\awss_statis.c ****             PAP_TMAX, PAP_TMIN, PAP_TMEAN, PAP_CNT, PAP_SUC, 0, PAP_PW_ERR);
 213:C:/Users/stapi/OneDrive/Desktop/GD32VW553/V1_MQTT_OK/GD32VW55X_Wifi_BLE_SDK/GD32VW55x_RELEASE_V1.0.2/MSDK/cloud/alicloud/src/services/awss\awss_statis.c **** #endif
 214:C:/Users/stapi/OneDrive/Desktop/GD32VW553/V1_MQTT_OK/GD32VW55X_Wifi_BLE_SDK/GD32VW55x_RELEASE_V1.0.2/MSDK/cloud/alicloud/src/services/awss\awss_statis.c **** #ifdef AWSS_SUPPORT_ADHA
 215:C:/Users/stapi/OneDrive/Desktop/GD32VW553/V1_MQTT_OK/GD32VW55X_Wifi_BLE_SDK/GD32VW55x_RELEASE_V1.0.2/MSDK/cloud/alicloud/src/services/awss\awss_statis.c ****     awss_debug("Adha            \t%u\t%u\t%u\t%u\t%u\t%u\t%u\t",
 216:C:/Users/stapi/OneDrive/Desktop/GD32VW553/V1_MQTT_OK/GD32VW55X_Wifi_BLE_SDK/GD32VW55x_RELEASE_V1.0.2/MSDK/cloud/alicloud/src/services/awss\awss_statis.c ****             ROUTE_TMAX, ROUTE_TMIN, ROUTE_TMEAN, ROUTE_CNT, ROUTE_SUC, 0, 0);
 217:C:/Users/stapi/OneDrive/Desktop/GD32VW553/V1_MQTT_OK/GD32VW55X_Wifi_BLE_SDK/GD32VW55x_RELEASE_V1.0.2/MSDK/cloud/alicloud/src/services/awss\awss_statis.c **** #endif
 218:C:/Users/stapi/OneDrive/Desktop/GD32VW553/V1_MQTT_OK/GD32VW55X_Wifi_BLE_SDK/GD32VW55x_RELEASE_V1.0.2/MSDK/cloud/alicloud/src/services/awss\awss_statis.c **** #ifndef AWSS_DISABLE_ENROLLEE
 219:C:/Users/stapi/OneDrive/Desktop/GD32VW553/V1_MQTT_OK/GD32VW55X_Wifi_BLE_SDK/GD32VW55x_RELEASE_V1.0.2/MSDK/cloud/alicloud/src/services/awss\awss_statis.c ****     awss_debug("Zconfig         \t%u\t%u\t%u\t%u\t%u\t%u\t%u\t",
 660              		.loc 1 219 5
 661 00d8 3C54     		lw	a5,104(s0)
 662 00da 37070000 		lui	a4,%hi(.LC25)
 663 00de 8148     		li	a7,0
 664 00e0 3EC6     		sw	a5,12(sp)
 665 00e2 7C50     		lw	a5,100(s0)
 666 00e4 0148     		li	a6,0
 667 00e6 13070700 		addi	a4,a4,%lo(.LC25)
 668 00ea 3EC2     		sw	a5,4(sp)
 669 00ec 3C50     		lw	a5,96(s0)
 670 00ee 9546     		li	a3,5
 671 00f0 1306B00D 		li	a2,219
 672 00f4 3EC0     		sw	a5,0(sp)
 673 00f6 93050900 		addi	a1,s2,%lo(.LANCHOR5)
 674 00fa 8147     		li	a5,0
 675 00fc 13850400 		addi	a0,s1,%lo(.LC18)
 676 0100 02C4     		sw	zero,8(sp)
 677 0102 97000000 		call	LITE_syslog
 677      E7800000 
 678              	.LVL50:
 220:C:/Users/stapi/OneDrive/Desktop/GD32VW553/V1_MQTT_OK/GD32VW55X_Wifi_BLE_SDK/GD32VW55x_RELEASE_V1.0.2/MSDK/cloud/alicloud/src/services/awss\awss_statis.c ****             0, 0, 0, ZC_CNT, ZC_SUC, 0, ZC_PW_ERR);
 221:C:/Users/stapi/OneDrive/Desktop/GD32VW553/V1_MQTT_OK/GD32VW55X_Wifi_BLE_SDK/GD32VW55x_RELEASE_V1.0.2/MSDK/cloud/alicloud/src/services/awss\awss_statis.c **** #endif
 222:C:/Users/stapi/OneDrive/Desktop/GD32VW553/V1_MQTT_OK/GD32VW55X_Wifi_BLE_SDK/GD32VW55x_RELEASE_V1.0.2/MSDK/cloud/alicloud/src/services/awss\awss_statis.c **** #ifdef AWSS_SUPPORT_DEV_AP
 223:C:/Users/stapi/OneDrive/Desktop/GD32VW553/V1_MQTT_OK/GD32VW55X_Wifi_BLE_SDK/GD32VW55x_RELEASE_V1.0.2/MSDK/cloud/alicloud/src/services/awss\awss_statis.c ****     awss_debug("Dev-ap          \t%u\t%u\t%u\t%u\t%u\t%u\t%u\t",
 679              		.loc 1 223 5
 680 010a 7C4C     		lw	a5,92(s0)
 681 010c 83288404 		lw	a7,72(s0)
 682 0110 03280405 		lw	a6,80(s0)
 683 0114 3EC6     		sw	a5,12(sp)
 684 0116 7C40     		lw	a5,68(s0)
 685 0118 37070000 		lui	a4,%hi(.LC26)
 686 011c 13070700 		addi	a4,a4,%lo(.LC26)
 687 0120 3EC2     		sw	a5,4(sp)
 688 0122 3C40     		lw	a5,64(s0)
 689 0124 9546     		li	a3,5
 690 0126 1306F00D 		li	a2,223
 691 012a 3EC0     		sw	a5,0(sp)
 692 012c 7C44     		lw	a5,76(s0)
 693 012e 93050900 		addi	a1,s2,%lo(.LANCHOR5)
 694 0132 13850400 		addi	a0,s1,%lo(.LC18)
 695 0136 02C4     		sw	zero,8(sp)
 696 0138 97000000 		call	LITE_syslog
 696      E7800000 
 697              	.LVL51:
 224:C:/Users/stapi/OneDrive/Desktop/GD32VW553/V1_MQTT_OK/GD32VW55X_Wifi_BLE_SDK/GD32VW55x_RELEASE_V1.0.2/MSDK/cloud/alicloud/src/services/awss\awss_statis.c ****             DAP_TMAX, DAP_TMIN, DAP_TMEAN, DAP_CNT, DAP_SUC, 0, DAP_PW_ERR);
 225:C:/Users/stapi/OneDrive/Desktop/GD32VW553/V1_MQTT_OK/GD32VW55X_Wifi_BLE_SDK/GD32VW55x_RELEASE_V1.0.2/MSDK/cloud/alicloud/src/services/awss\awss_statis.c **** #endif
 226:C:/Users/stapi/OneDrive/Desktop/GD32VW553/V1_MQTT_OK/GD32VW55X_Wifi_BLE_SDK/GD32VW55x_RELEASE_V1.0.2/MSDK/cloud/alicloud/src/services/awss\awss_statis.c ****     awss_debug("------------------------------------------------------------------------------");
 698              		.loc 1 226 5
 699 0140 37070000 		lui	a4,%hi(.LC27)
 700 0144 13850400 		addi	a0,s1,%lo(.LC18)
 701 0148 13070700 		addi	a4,a4,%lo(.LC27)
 702 014c 9546     		li	a3,5
 703 014e 1306200E 		li	a2,226
 704 0152 93050900 		addi	a1,s2,%lo(.LANCHOR5)
 705 0156 97000000 		call	LITE_syslog
 705      E7800000 
 706              	.LVL52:
 227:C:/Users/stapi/OneDrive/Desktop/GD32VW553/V1_MQTT_OK/GD32VW55X_Wifi_BLE_SDK/GD32VW55x_RELEASE_V1.0.2/MSDK/cloud/alicloud/src/services/awss\awss_statis.c **** 
 228:C:/Users/stapi/OneDrive/Desktop/GD32VW553/V1_MQTT_OK/GD32VW55X_Wifi_BLE_SDK/GD32VW55x_RELEASE_V1.0.2/MSDK/cloud/alicloud/src/services/awss\awss_statis.c ****     if (awss_statis_mutex)
 707              		.loc 1 228 5
 708              		.loc 1 228 9 is_stmt 0
 709 015e 03A50900 		lw	a0,0(s3)
 710              		.loc 1 228 8
 711 0162 09C5     		beq	a0,zero,.L45
 229:C:/Users/stapi/OneDrive/Desktop/GD32VW553/V1_MQTT_OK/GD32VW55X_Wifi_BLE_SDK/GD32VW55x_RELEASE_V1.0.2/MSDK/cloud/alicloud/src/services/awss\awss_statis.c ****         HAL_MutexUnlock(awss_statis_mutex);
 712              		.loc 1 229 9 is_stmt 1
 713 0164 97000000 		call	HAL_MutexUnlock
 713      E7800000 
 714              	.LVL53:
 715              	.L45:
 230:C:/Users/stapi/OneDrive/Desktop/GD32VW553/V1_MQTT_OK/GD32VW55X_Wifi_BLE_SDK/GD32VW55x_RELEASE_V1.0.2/MSDK/cloud/alicloud/src/services/awss\awss_statis.c **** }
 716              		.loc 1 230 1 is_stmt 0
 717 016c 4101     		addi	sp,sp,16
 718              		.cfi_def_cfa_offset 0
 719 016e 17030000 		tail	__riscv_restore_4
 719      67000300 
 720              		.cfi_restore 19
 721              		.cfi_restore 18
 722              		.cfi_restore 9
 723              		.cfi_restore 8
 724              		.cfi_restore 1
 725              		.cfi_def_cfa_offset -32
 726              		.cfi_endproc
 727              	.LFE49:
 729              		.section	.text.awss_clear_statis,"ax",@progbits
 730              		.align	1
 731              		.globl	awss_clear_statis
 733              	awss_clear_statis:
 734              	.LFB50:
 231:C:/Users/stapi/OneDrive/Desktop/GD32VW553/V1_MQTT_OK/GD32VW55X_Wifi_BLE_SDK/GD32VW55x_RELEASE_V1.0.2/MSDK/cloud/alicloud/src/services/awss\awss_statis.c **** 
 232:C:/Users/stapi/OneDrive/Desktop/GD32VW553/V1_MQTT_OK/GD32VW55X_Wifi_BLE_SDK/GD32VW55x_RELEASE_V1.0.2/MSDK/cloud/alicloud/src/services/awss\awss_statis.c **** void awss_clear_statis()
 233:C:/Users/stapi/OneDrive/Desktop/GD32VW553/V1_MQTT_OK/GD32VW55X_Wifi_BLE_SDK/GD32VW55x_RELEASE_V1.0.2/MSDK/cloud/alicloud/src/services/awss\awss_statis.c **** {
 735              		.loc 1 233 1 is_stmt 1
 736              		.cfi_startproc
 737 0000 17030000 		call	t0,__riscv_save_1
 737      E7020300 
 738              		.cfi_offset 8, -8
 739              		.cfi_offset 1, -4
 740              		.cfi_def_cfa_offset 16
 234:C:/Users/stapi/OneDrive/Desktop/GD32VW553/V1_MQTT_OK/GD32VW55X_Wifi_BLE_SDK/GD32VW55x_RELEASE_V1.0.2/MSDK/cloud/alicloud/src/services/awss\awss_statis.c ****     if (awss_statis_mutex)
 741              		.loc 1 234 5
 742              		.loc 1 234 9 is_stmt 0
 743 0008 37040000 		lui	s0,%hi(.LANCHOR0)
 744 000c 03250400 		lw	a0,%lo(.LANCHOR0)(s0)
 745 0010 13040400 		addi	s0,s0,%lo(.LANCHOR0)
 746              		.loc 1 234 8
 747 0014 09C5     		beq	a0,zero,.L56
 235:C:/Users/stapi/OneDrive/Desktop/GD32VW553/V1_MQTT_OK/GD32VW55X_Wifi_BLE_SDK/GD32VW55x_RELEASE_V1.0.2/MSDK/cloud/alicloud/src/services/awss\awss_statis.c ****         HAL_MutexLock(awss_statis_mutex);
 748              		.loc 1 235 9 is_stmt 1
 749 0016 97000000 		call	HAL_MutexLock
 749      E7800000 
 750              	.LVL54:
 751              	.L56:
 236:C:/Users/stapi/OneDrive/Desktop/GD32VW553/V1_MQTT_OK/GD32VW55X_Wifi_BLE_SDK/GD32VW55x_RELEASE_V1.0.2/MSDK/cloud/alicloud/src/services/awss\awss_statis.c **** 
 237:C:/Users/stapi/OneDrive/Desktop/GD32VW553/V1_MQTT_OK/GD32VW55X_Wifi_BLE_SDK/GD32VW55x_RELEASE_V1.0.2/MSDK/cloud/alicloud/src/services/awss\awss_statis.c ****     memset(&g_awss_statis, 0, sizeof(g_awss_statis));
 752              		.loc 1 237 5
 753 001e 37050000 		lui	a0,%hi(.LANCHOR1)
 754 0022 1306C006 		li	a2,108
 755 0026 8145     		li	a1,0
 756 0028 13050500 		addi	a0,a0,%lo(.LANCHOR1)
 757 002c 97000000 		call	memset
 757      E7800000 
 758              	.LVL55:
 238:C:/Users/stapi/OneDrive/Desktop/GD32VW553/V1_MQTT_OK/GD32VW55X_Wifi_BLE_SDK/GD32VW55x_RELEASE_V1.0.2/MSDK/cloud/alicloud/src/services/awss\awss_statis.c **** 
 239:C:/Users/stapi/OneDrive/Desktop/GD32VW553/V1_MQTT_OK/GD32VW55X_Wifi_BLE_SDK/GD32VW55x_RELEASE_V1.0.2/MSDK/cloud/alicloud/src/services/awss\awss_statis.c ****     awss_statis_trace_id = 0;
 759              		.loc 1 239 5
 760              		.loc 1 239 26 is_stmt 0
 761 0034 B7070000 		lui	a5,%hi(.LANCHOR2)
 240:C:/Users/stapi/OneDrive/Desktop/GD32VW553/V1_MQTT_OK/GD32VW55X_Wifi_BLE_SDK/GD32VW55x_RELEASE_V1.0.2/MSDK/cloud/alicloud/src/services/awss\awss_statis.c ****     awss_statis_report_id = 0;
 241:C:/Users/stapi/OneDrive/Desktop/GD32VW553/V1_MQTT_OK/GD32VW55X_Wifi_BLE_SDK/GD32VW55x_RELEASE_V1.0.2/MSDK/cloud/alicloud/src/services/awss\awss_statis.c **** 
 242:C:/Users/stapi/OneDrive/Desktop/GD32VW553/V1_MQTT_OK/GD32VW55X_Wifi_BLE_SDK/GD32VW55x_RELEASE_V1.0.2/MSDK/cloud/alicloud/src/services/awss\awss_statis.c ****     if (awss_statis_mutex) {
 762              		.loc 1 242 9
 763 0038 0840     		lw	a0,0(s0)
 239:C:/Users/stapi/OneDrive/Desktop/GD32VW553/V1_MQTT_OK/GD32VW55X_Wifi_BLE_SDK/GD32VW55x_RELEASE_V1.0.2/MSDK/cloud/alicloud/src/services/awss\awss_statis.c ****     awss_statis_report_id = 0;
 764              		.loc 1 239 26
 765 003a 23A00700 		sw	zero,%lo(.LANCHOR2)(a5)
 240:C:/Users/stapi/OneDrive/Desktop/GD32VW553/V1_MQTT_OK/GD32VW55X_Wifi_BLE_SDK/GD32VW55x_RELEASE_V1.0.2/MSDK/cloud/alicloud/src/services/awss\awss_statis.c ****     awss_statis_report_id = 0;
 766              		.loc 1 240 5 is_stmt 1
 240:C:/Users/stapi/OneDrive/Desktop/GD32VW553/V1_MQTT_OK/GD32VW55X_Wifi_BLE_SDK/GD32VW55x_RELEASE_V1.0.2/MSDK/cloud/alicloud/src/services/awss\awss_statis.c ****     awss_statis_report_id = 0;
 767              		.loc 1 240 27 is_stmt 0
 768 003e B7070000 		lui	a5,%hi(.LANCHOR3)
 769 0042 23A00700 		sw	zero,%lo(.LANCHOR3)(a5)
 770              		.loc 1 242 5 is_stmt 1
 771              		.loc 1 242 8 is_stmt 0
 772 0046 11C9     		beq	a0,zero,.L57
 243:C:/Users/stapi/OneDrive/Desktop/GD32VW553/V1_MQTT_OK/GD32VW55X_Wifi_BLE_SDK/GD32VW55x_RELEASE_V1.0.2/MSDK/cloud/alicloud/src/services/awss\awss_statis.c ****         HAL_MutexUnlock(awss_statis_mutex);
 773              		.loc 1 243 9 is_stmt 1
 774 0048 97000000 		call	HAL_MutexUnlock
 774      E7800000 
 775              	.LVL56:
 244:C:/Users/stapi/OneDrive/Desktop/GD32VW553/V1_MQTT_OK/GD32VW55X_Wifi_BLE_SDK/GD32VW55x_RELEASE_V1.0.2/MSDK/cloud/alicloud/src/services/awss\awss_statis.c ****         HAL_MutexDestroy(awss_statis_mutex);
 776              		.loc 1 244 9
 777 0050 0840     		lw	a0,0(s0)
 778 0052 97000000 		call	HAL_MutexDestroy
 778      E7800000 
 779              	.LVL57:
 780              	.L57:
 245:C:/Users/stapi/OneDrive/Desktop/GD32VW553/V1_MQTT_OK/GD32VW55X_Wifi_BLE_SDK/GD32VW55x_RELEASE_V1.0.2/MSDK/cloud/alicloud/src/services/awss\awss_statis.c ****     }
 246:C:/Users/stapi/OneDrive/Desktop/GD32VW553/V1_MQTT_OK/GD32VW55X_Wifi_BLE_SDK/GD32VW55x_RELEASE_V1.0.2/MSDK/cloud/alicloud/src/services/awss\awss_statis.c ****     awss_statis_mutex = NULL;
 781              		.loc 1 246 5
 782              		.loc 1 246 23 is_stmt 0
 783 005a 23200400 		sw	zero,0(s0)
 247:C:/Users/stapi/OneDrive/Desktop/GD32VW553/V1_MQTT_OK/GD32VW55X_Wifi_BLE_SDK/GD32VW55x_RELEASE_V1.0.2/MSDK/cloud/alicloud/src/services/awss\awss_statis.c **** }
 784              		.loc 1 247 1
 785 005e 17030000 		tail	__riscv_restore_1
 785      67000300 
 786              		.cfi_restore 8
 787              		.cfi_restore 1
 788              		.cfi_def_cfa_offset 0
 789              		.cfi_endproc
 790              	.LFE50:
 792              		.section	.rodata.awss_update_statis.str1.4,"aMS",@progbits,1
 793              		.align	2
 794              	.LC28:
 795 0000 612D7374 		.string	"a-statis am fail\n"
 795      61746973 
 795      20616D20 
 795      6661696C 
 795      0A00
 796              		.section	.text.awss_update_statis,"ax",@progbits
 797              		.align	1
 798              		.globl	awss_update_statis
 800              	awss_update_statis:
 801              	.LFB51:
 248:C:/Users/stapi/OneDrive/Desktop/GD32VW553/V1_MQTT_OK/GD32VW55X_Wifi_BLE_SDK/GD32VW55x_RELEASE_V1.0.2/MSDK/cloud/alicloud/src/services/awss\awss_statis.c **** 
 249:C:/Users/stapi/OneDrive/Desktop/GD32VW553/V1_MQTT_OK/GD32VW55X_Wifi_BLE_SDK/GD32VW55x_RELEASE_V1.0.2/MSDK/cloud/alicloud/src/services/awss\awss_statis.c **** void awss_update_statis(int awss_statis_idx, int type)
 250:C:/Users/stapi/OneDrive/Desktop/GD32VW553/V1_MQTT_OK/GD32VW55X_Wifi_BLE_SDK/GD32VW55x_RELEASE_V1.0.2/MSDK/cloud/alicloud/src/services/awss\awss_statis.c **** {
 802              		.loc 1 250 1 is_stmt 1
 803              		.cfi_startproc
 804              	.LVL58:
 805 0000 17030000 		call	t0,__riscv_save_5
 805      E7020300 
 806              		.cfi_offset 20, -24
 807              		.cfi_offset 19, -20
 808              		.cfi_offset 18, -16
 809              		.cfi_offset 9, -12
 810              		.cfi_offset 8, -8
 811              		.cfi_offset 1, -4
 812              		.cfi_def_cfa_offset 32
 251:C:/Users/stapi/OneDrive/Desktop/GD32VW553/V1_MQTT_OK/GD32VW55X_Wifi_BLE_SDK/GD32VW55x_RELEASE_V1.0.2/MSDK/cloud/alicloud/src/services/awss\awss_statis.c ****     uint32_t time = HAL_UptimeMs();
 813              		.loc 1 251 5
 252:C:/Users/stapi/OneDrive/Desktop/GD32VW553/V1_MQTT_OK/GD32VW55X_Wifi_BLE_SDK/GD32VW55x_RELEASE_V1.0.2/MSDK/cloud/alicloud/src/services/awss\awss_statis.c **** 
 253:C:/Users/stapi/OneDrive/Desktop/GD32VW553/V1_MQTT_OK/GD32VW55X_Wifi_BLE_SDK/GD32VW55x_RELEASE_V1.0.2/MSDK/cloud/alicloud/src/services/awss\awss_statis.c ****     if (awss_statis_mutex == NULL) {
 814              		.loc 1 253 27 is_stmt 0
 815 0008 B7090000 		lui	s3,%hi(.LANCHOR0)
 816 000c 138A0900 		addi	s4,s3,%lo(.LANCHOR0)
 250:C:/Users/stapi/OneDrive/Desktop/GD32VW553/V1_MQTT_OK/GD32VW55X_Wifi_BLE_SDK/GD32VW55x_RELEASE_V1.0.2/MSDK/cloud/alicloud/src/services/awss\awss_statis.c ****     uint32_t time = HAL_UptimeMs();
 817              		.loc 1 250 1
 818 0010 AA84     		mv	s1,a0
 819 0012 2E84     		mv	s0,a1
 251:C:/Users/stapi/OneDrive/Desktop/GD32VW553/V1_MQTT_OK/GD32VW55X_Wifi_BLE_SDK/GD32VW55x_RELEASE_V1.0.2/MSDK/cloud/alicloud/src/services/awss\awss_statis.c ****     uint32_t time = HAL_UptimeMs();
 820              		.loc 1 251 21
 821 0014 97000000 		call	HAL_UptimeMs
 821      E7800000 
 822              	.LVL59:
 823              		.loc 1 253 8
 824 001c 83270A00 		lw	a5,0(s4)
 251:C:/Users/stapi/OneDrive/Desktop/GD32VW553/V1_MQTT_OK/GD32VW55X_Wifi_BLE_SDK/GD32VW55x_RELEASE_V1.0.2/MSDK/cloud/alicloud/src/services/awss\awss_statis.c ****     uint32_t time = HAL_UptimeMs();
 825              		.loc 1 251 21
 826 0020 2A89     		mv	s2,a0
 827              	.LVL60:
 828              		.loc 1 253 5 is_stmt 1
 829 0022 93890900 		addi	s3,s3,%lo(.LANCHOR0)
 830              		.loc 1 253 8 is_stmt 0
 831 0026 9DEF     		bne	a5,zero,.L66
 254:C:/Users/stapi/OneDrive/Desktop/GD32VW553/V1_MQTT_OK/GD32VW55X_Wifi_BLE_SDK/GD32VW55x_RELEASE_V1.0.2/MSDK/cloud/alicloud/src/services/awss\awss_statis.c ****         awss_statis_mutex = HAL_MutexCreate();
 832              		.loc 1 254 9 is_stmt 1
 833              		.loc 1 254 29 is_stmt 0
 834 0028 97000000 		call	HAL_MutexCreate
 834      E7800000 
 835              	.LVL61:
 836              		.loc 1 254 27
 837 0030 2320AA00 		sw	a0,0(s4)
 255:C:/Users/stapi/OneDrive/Desktop/GD32VW553/V1_MQTT_OK/GD32VW55X_Wifi_BLE_SDK/GD32VW55x_RELEASE_V1.0.2/MSDK/cloud/alicloud/src/services/awss\awss_statis.c ****         if (awss_statis_mutex == NULL) {
 838              		.loc 1 255 9 is_stmt 1
 839              		.loc 1 255 12 is_stmt 0
 840 0034 05E9     		bne	a0,zero,.L66
 256:C:/Users/stapi/OneDrive/Desktop/GD32VW553/V1_MQTT_OK/GD32VW55X_Wifi_BLE_SDK/GD32VW55x_RELEASE_V1.0.2/MSDK/cloud/alicloud/src/services/awss\awss_statis.c ****             awss_debug("a-statis am fail\n");
 841              		.loc 1 256 13 is_stmt 1
 842 0036 37070000 		lui	a4,%hi(.LC28)
 843 003a B7050000 		lui	a1,%hi(.LANCHOR6)
 844 003e 37050000 		lui	a0,%hi(.LC18)
 845 0042 13070700 		addi	a4,a4,%lo(.LC28)
 846 0046 9546     		li	a3,5
 847 0048 13060010 		li	a2,256
 848 004c 93850500 		addi	a1,a1,%lo(.LANCHOR6)
 849 0050 13050500 		addi	a0,a0,%lo(.LC18)
 850 0054 97000000 		call	LITE_syslog
 850      E7800000 
 851              	.LVL62:
 257:C:/Users/stapi/OneDrive/Desktop/GD32VW553/V1_MQTT_OK/GD32VW55X_Wifi_BLE_SDK/GD32VW55x_RELEASE_V1.0.2/MSDK/cloud/alicloud/src/services/awss\awss_statis.c ****             return;
 852              		.loc 1 257 13
 853              	.L65:
 258:C:/Users/stapi/OneDrive/Desktop/GD32VW553/V1_MQTT_OK/GD32VW55X_Wifi_BLE_SDK/GD32VW55x_RELEASE_V1.0.2/MSDK/cloud/alicloud/src/services/awss\awss_statis.c ****         }
 259:C:/Users/stapi/OneDrive/Desktop/GD32VW553/V1_MQTT_OK/GD32VW55X_Wifi_BLE_SDK/GD32VW55x_RELEASE_V1.0.2/MSDK/cloud/alicloud/src/services/awss\awss_statis.c ****     }
 260:C:/Users/stapi/OneDrive/Desktop/GD32VW553/V1_MQTT_OK/GD32VW55X_Wifi_BLE_SDK/GD32VW55x_RELEASE_V1.0.2/MSDK/cloud/alicloud/src/services/awss\awss_statis.c **** 
 261:C:/Users/stapi/OneDrive/Desktop/GD32VW553/V1_MQTT_OK/GD32VW55X_Wifi_BLE_SDK/GD32VW55x_RELEASE_V1.0.2/MSDK/cloud/alicloud/src/services/awss\awss_statis.c ****     HAL_MutexLock(awss_statis_mutex);
 262:C:/Users/stapi/OneDrive/Desktop/GD32VW553/V1_MQTT_OK/GD32VW55X_Wifi_BLE_SDK/GD32VW55x_RELEASE_V1.0.2/MSDK/cloud/alicloud/src/services/awss\awss_statis.c **** 
 263:C:/Users/stapi/OneDrive/Desktop/GD32VW553/V1_MQTT_OK/GD32VW55X_Wifi_BLE_SDK/GD32VW55x_RELEASE_V1.0.2/MSDK/cloud/alicloud/src/services/awss\awss_statis.c ****     if (type == AWSS_STATIS_TYPE_TIME_START)
 264:C:/Users/stapi/OneDrive/Desktop/GD32VW553/V1_MQTT_OK/GD32VW55X_Wifi_BLE_SDK/GD32VW55x_RELEASE_V1.0.2/MSDK/cloud/alicloud/src/services/awss\awss_statis.c ****         awss_statis_trace_id ++;
 265:C:/Users/stapi/OneDrive/Desktop/GD32VW553/V1_MQTT_OK/GD32VW55X_Wifi_BLE_SDK/GD32VW55x_RELEASE_V1.0.2/MSDK/cloud/alicloud/src/services/awss\awss_statis.c **** 
 266:C:/Users/stapi/OneDrive/Desktop/GD32VW553/V1_MQTT_OK/GD32VW55X_Wifi_BLE_SDK/GD32VW55x_RELEASE_V1.0.2/MSDK/cloud/alicloud/src/services/awss\awss_statis.c ****     switch (awss_statis_idx) {
 267:C:/Users/stapi/OneDrive/Desktop/GD32VW553/V1_MQTT_OK/GD32VW55X_Wifi_BLE_SDK/GD32VW55x_RELEASE_V1.0.2/MSDK/cloud/alicloud/src/services/awss\awss_statis.c ****         case AWSS_STATIS_CONN_ROUTER_IDX:
 268:C:/Users/stapi/OneDrive/Desktop/GD32VW553/V1_MQTT_OK/GD32VW55X_Wifi_BLE_SDK/GD32VW55x_RELEASE_V1.0.2/MSDK/cloud/alicloud/src/services/awss\awss_statis.c ****             switch (type) {
 269:C:/Users/stapi/OneDrive/Desktop/GD32VW553/V1_MQTT_OK/GD32VW55X_Wifi_BLE_SDK/GD32VW55x_RELEASE_V1.0.2/MSDK/cloud/alicloud/src/services/awss\awss_statis.c ****                 case AWSS_STATIS_TYPE_TIME_START:
 270:C:/Users/stapi/OneDrive/Desktop/GD32VW553/V1_MQTT_OK/GD32VW55X_Wifi_BLE_SDK/GD32VW55x_RELEASE_V1.0.2/MSDK/cloud/alicloud/src/services/awss\awss_statis.c ****                     DROUTE_CNT ++;
 271:C:/Users/stapi/OneDrive/Desktop/GD32VW553/V1_MQTT_OK/GD32VW55X_Wifi_BLE_SDK/GD32VW55x_RELEASE_V1.0.2/MSDK/cloud/alicloud/src/services/awss\awss_statis.c ****                     DROUTE_START = time;
 272:C:/Users/stapi/OneDrive/Desktop/GD32VW553/V1_MQTT_OK/GD32VW55X_Wifi_BLE_SDK/GD32VW55x_RELEASE_V1.0.2/MSDK/cloud/alicloud/src/services/awss\awss_statis.c ****                     break;
 273:C:/Users/stapi/OneDrive/Desktop/GD32VW553/V1_MQTT_OK/GD32VW55X_Wifi_BLE_SDK/GD32VW55x_RELEASE_V1.0.2/MSDK/cloud/alicloud/src/services/awss\awss_statis.c ****                 case AWSS_STATIS_TYPE_TIME_SUC:
 274:C:/Users/stapi/OneDrive/Desktop/GD32VW553/V1_MQTT_OK/GD32VW55X_Wifi_BLE_SDK/GD32VW55x_RELEASE_V1.0.2/MSDK/cloud/alicloud/src/services/awss\awss_statis.c ****                     DROUTE_SUC ++;
 275:C:/Users/stapi/OneDrive/Desktop/GD32VW553/V1_MQTT_OK/GD32VW55X_Wifi_BLE_SDK/GD32VW55x_RELEASE_V1.0.2/MSDK/cloud/alicloud/src/services/awss\awss_statis.c ****                     DROUTE_END = time;
 276:C:/Users/stapi/OneDrive/Desktop/GD32VW553/V1_MQTT_OK/GD32VW55X_Wifi_BLE_SDK/GD32VW55x_RELEASE_V1.0.2/MSDK/cloud/alicloud/src/services/awss\awss_statis.c ****                     time = (uint32_t)(DROUTE_END - DROUTE_START);
 277:C:/Users/stapi/OneDrive/Desktop/GD32VW553/V1_MQTT_OK/GD32VW55X_Wifi_BLE_SDK/GD32VW55x_RELEASE_V1.0.2/MSDK/cloud/alicloud/src/services/awss\awss_statis.c ****                     if (DROUTE_SUC > 0) {
 278:C:/Users/stapi/OneDrive/Desktop/GD32VW553/V1_MQTT_OK/GD32VW55X_Wifi_BLE_SDK/GD32VW55x_RELEASE_V1.0.2/MSDK/cloud/alicloud/src/services/awss\awss_statis.c ****                         DROUTE_TMEAN = (DROUTE_TMEAN + time) / (DROUTE_SUC);
 279:C:/Users/stapi/OneDrive/Desktop/GD32VW553/V1_MQTT_OK/GD32VW55X_Wifi_BLE_SDK/GD32VW55x_RELEASE_V1.0.2/MSDK/cloud/alicloud/src/services/awss\awss_statis.c ****                     } else {
 280:C:/Users/stapi/OneDrive/Desktop/GD32VW553/V1_MQTT_OK/GD32VW55X_Wifi_BLE_SDK/GD32VW55x_RELEASE_V1.0.2/MSDK/cloud/alicloud/src/services/awss\awss_statis.c ****                         DROUTE_TMEAN = time;
 281:C:/Users/stapi/OneDrive/Desktop/GD32VW553/V1_MQTT_OK/GD32VW55X_Wifi_BLE_SDK/GD32VW55x_RELEASE_V1.0.2/MSDK/cloud/alicloud/src/services/awss\awss_statis.c ****                         DROUTE_SUC = 1;
 282:C:/Users/stapi/OneDrive/Desktop/GD32VW553/V1_MQTT_OK/GD32VW55X_Wifi_BLE_SDK/GD32VW55x_RELEASE_V1.0.2/MSDK/cloud/alicloud/src/services/awss\awss_statis.c ****                     }
 283:C:/Users/stapi/OneDrive/Desktop/GD32VW553/V1_MQTT_OK/GD32VW55X_Wifi_BLE_SDK/GD32VW55x_RELEASE_V1.0.2/MSDK/cloud/alicloud/src/services/awss\awss_statis.c ****                     if (DROUTE_TMIN == 0 || DROUTE_TMIN > time)
 284:C:/Users/stapi/OneDrive/Desktop/GD32VW553/V1_MQTT_OK/GD32VW55X_Wifi_BLE_SDK/GD32VW55x_RELEASE_V1.0.2/MSDK/cloud/alicloud/src/services/awss\awss_statis.c ****                         DROUTE_TMIN = time;
 285:C:/Users/stapi/OneDrive/Desktop/GD32VW553/V1_MQTT_OK/GD32VW55X_Wifi_BLE_SDK/GD32VW55x_RELEASE_V1.0.2/MSDK/cloud/alicloud/src/services/awss\awss_statis.c ****                     if (DROUTE_TMAX == 0 || DROUTE_TMAX < time)
 286:C:/Users/stapi/OneDrive/Desktop/GD32VW553/V1_MQTT_OK/GD32VW55X_Wifi_BLE_SDK/GD32VW55x_RELEASE_V1.0.2/MSDK/cloud/alicloud/src/services/awss\awss_statis.c ****                         DROUTE_TMAX = time;
 287:C:/Users/stapi/OneDrive/Desktop/GD32VW553/V1_MQTT_OK/GD32VW55X_Wifi_BLE_SDK/GD32VW55x_RELEASE_V1.0.2/MSDK/cloud/alicloud/src/services/awss\awss_statis.c ****                     break;
 288:C:/Users/stapi/OneDrive/Desktop/GD32VW553/V1_MQTT_OK/GD32VW55X_Wifi_BLE_SDK/GD32VW55x_RELEASE_V1.0.2/MSDK/cloud/alicloud/src/services/awss\awss_statis.c ****                 default:
 289:C:/Users/stapi/OneDrive/Desktop/GD32VW553/V1_MQTT_OK/GD32VW55X_Wifi_BLE_SDK/GD32VW55x_RELEASE_V1.0.2/MSDK/cloud/alicloud/src/services/awss\awss_statis.c ****                     break;
 290:C:/Users/stapi/OneDrive/Desktop/GD32VW553/V1_MQTT_OK/GD32VW55X_Wifi_BLE_SDK/GD32VW55x_RELEASE_V1.0.2/MSDK/cloud/alicloud/src/services/awss\awss_statis.c ****             }
 291:C:/Users/stapi/OneDrive/Desktop/GD32VW553/V1_MQTT_OK/GD32VW55X_Wifi_BLE_SDK/GD32VW55x_RELEASE_V1.0.2/MSDK/cloud/alicloud/src/services/awss\awss_statis.c ****             break;
 292:C:/Users/stapi/OneDrive/Desktop/GD32VW553/V1_MQTT_OK/GD32VW55X_Wifi_BLE_SDK/GD32VW55x_RELEASE_V1.0.2/MSDK/cloud/alicloud/src/services/awss\awss_statis.c **** #ifdef AWSS_SUPPORT_SMARTCONFIG
 293:C:/Users/stapi/OneDrive/Desktop/GD32VW553/V1_MQTT_OK/GD32VW55X_Wifi_BLE_SDK/GD32VW55x_RELEASE_V1.0.2/MSDK/cloud/alicloud/src/services/awss\awss_statis.c **** #ifdef AWSS_SUPPORT_SMARTCONFIG_WPS
 294:C:/Users/stapi/OneDrive/Desktop/GD32VW553/V1_MQTT_OK/GD32VW55X_Wifi_BLE_SDK/GD32VW55x_RELEASE_V1.0.2/MSDK/cloud/alicloud/src/services/awss\awss_statis.c ****         case AWSS_STATIS_WPS_IDX:
 295:C:/Users/stapi/OneDrive/Desktop/GD32VW553/V1_MQTT_OK/GD32VW55X_Wifi_BLE_SDK/GD32VW55x_RELEASE_V1.0.2/MSDK/cloud/alicloud/src/services/awss\awss_statis.c ****             switch (type) {
 296:C:/Users/stapi/OneDrive/Desktop/GD32VW553/V1_MQTT_OK/GD32VW55X_Wifi_BLE_SDK/GD32VW55x_RELEASE_V1.0.2/MSDK/cloud/alicloud/src/services/awss\awss_statis.c ****                 case AWSS_STATIS_TYPE_TIME_START:
 297:C:/Users/stapi/OneDrive/Desktop/GD32VW553/V1_MQTT_OK/GD32VW55X_Wifi_BLE_SDK/GD32VW55x_RELEASE_V1.0.2/MSDK/cloud/alicloud/src/services/awss\awss_statis.c ****                     WPS_CNT ++;
 298:C:/Users/stapi/OneDrive/Desktop/GD32VW553/V1_MQTT_OK/GD32VW55X_Wifi_BLE_SDK/GD32VW55x_RELEASE_V1.0.2/MSDK/cloud/alicloud/src/services/awss\awss_statis.c ****                     break;
 299:C:/Users/stapi/OneDrive/Desktop/GD32VW553/V1_MQTT_OK/GD32VW55X_Wifi_BLE_SDK/GD32VW55x_RELEASE_V1.0.2/MSDK/cloud/alicloud/src/services/awss\awss_statis.c ****                 case AWSS_STATIS_TYPE_TIME_SUC:
 300:C:/Users/stapi/OneDrive/Desktop/GD32VW553/V1_MQTT_OK/GD32VW55X_Wifi_BLE_SDK/GD32VW55x_RELEASE_V1.0.2/MSDK/cloud/alicloud/src/services/awss\awss_statis.c ****                     WPS_SUC ++;
 301:C:/Users/stapi/OneDrive/Desktop/GD32VW553/V1_MQTT_OK/GD32VW55X_Wifi_BLE_SDK/GD32VW55x_RELEASE_V1.0.2/MSDK/cloud/alicloud/src/services/awss\awss_statis.c ****                     break;
 302:C:/Users/stapi/OneDrive/Desktop/GD32VW553/V1_MQTT_OK/GD32VW55X_Wifi_BLE_SDK/GD32VW55x_RELEASE_V1.0.2/MSDK/cloud/alicloud/src/services/awss\awss_statis.c ****                 case AWSS_STATIS_TYPE_PASSWD_ERR:
 303:C:/Users/stapi/OneDrive/Desktop/GD32VW553/V1_MQTT_OK/GD32VW55X_Wifi_BLE_SDK/GD32VW55x_RELEASE_V1.0.2/MSDK/cloud/alicloud/src/services/awss\awss_statis.c ****                     WPS_PW_ERR ++;
 304:C:/Users/stapi/OneDrive/Desktop/GD32VW553/V1_MQTT_OK/GD32VW55X_Wifi_BLE_SDK/GD32VW55x_RELEASE_V1.0.2/MSDK/cloud/alicloud/src/services/awss\awss_statis.c ****                     break;
 305:C:/Users/stapi/OneDrive/Desktop/GD32VW553/V1_MQTT_OK/GD32VW55X_Wifi_BLE_SDK/GD32VW55x_RELEASE_V1.0.2/MSDK/cloud/alicloud/src/services/awss\awss_statis.c ****                 case AWSS_STATIS_TYPE_CRC_ERR:
 306:C:/Users/stapi/OneDrive/Desktop/GD32VW553/V1_MQTT_OK/GD32VW55X_Wifi_BLE_SDK/GD32VW55x_RELEASE_V1.0.2/MSDK/cloud/alicloud/src/services/awss\awss_statis.c ****                     WPS_CRC_ERR ++;
 307:C:/Users/stapi/OneDrive/Desktop/GD32VW553/V1_MQTT_OK/GD32VW55X_Wifi_BLE_SDK/GD32VW55x_RELEASE_V1.0.2/MSDK/cloud/alicloud/src/services/awss\awss_statis.c ****                     break;
 308:C:/Users/stapi/OneDrive/Desktop/GD32VW553/V1_MQTT_OK/GD32VW55X_Wifi_BLE_SDK/GD32VW55x_RELEASE_V1.0.2/MSDK/cloud/alicloud/src/services/awss\awss_statis.c ****                 default:
 309:C:/Users/stapi/OneDrive/Desktop/GD32VW553/V1_MQTT_OK/GD32VW55X_Wifi_BLE_SDK/GD32VW55x_RELEASE_V1.0.2/MSDK/cloud/alicloud/src/services/awss\awss_statis.c ****                     break;
 310:C:/Users/stapi/OneDrive/Desktop/GD32VW553/V1_MQTT_OK/GD32VW55X_Wifi_BLE_SDK/GD32VW55x_RELEASE_V1.0.2/MSDK/cloud/alicloud/src/services/awss\awss_statis.c ****             }
 311:C:/Users/stapi/OneDrive/Desktop/GD32VW553/V1_MQTT_OK/GD32VW55X_Wifi_BLE_SDK/GD32VW55x_RELEASE_V1.0.2/MSDK/cloud/alicloud/src/services/awss\awss_statis.c ****             break;
 312:C:/Users/stapi/OneDrive/Desktop/GD32VW553/V1_MQTT_OK/GD32VW55X_Wifi_BLE_SDK/GD32VW55x_RELEASE_V1.0.2/MSDK/cloud/alicloud/src/services/awss\awss_statis.c **** #endif
 313:C:/Users/stapi/OneDrive/Desktop/GD32VW553/V1_MQTT_OK/GD32VW55X_Wifi_BLE_SDK/GD32VW55x_RELEASE_V1.0.2/MSDK/cloud/alicloud/src/services/awss\awss_statis.c ****         case AWSS_STATIS_SM_IDX:
 314:C:/Users/stapi/OneDrive/Desktop/GD32VW553/V1_MQTT_OK/GD32VW55X_Wifi_BLE_SDK/GD32VW55x_RELEASE_V1.0.2/MSDK/cloud/alicloud/src/services/awss\awss_statis.c ****             switch (type) {
 315:C:/Users/stapi/OneDrive/Desktop/GD32VW553/V1_MQTT_OK/GD32VW55X_Wifi_BLE_SDK/GD32VW55x_RELEASE_V1.0.2/MSDK/cloud/alicloud/src/services/awss\awss_statis.c ****                 case AWSS_STATIS_TYPE_TIME_START:
 316:C:/Users/stapi/OneDrive/Desktop/GD32VW553/V1_MQTT_OK/GD32VW55X_Wifi_BLE_SDK/GD32VW55x_RELEASE_V1.0.2/MSDK/cloud/alicloud/src/services/awss\awss_statis.c ****                     SM_CNT ++;
 317:C:/Users/stapi/OneDrive/Desktop/GD32VW553/V1_MQTT_OK/GD32VW55X_Wifi_BLE_SDK/GD32VW55x_RELEASE_V1.0.2/MSDK/cloud/alicloud/src/services/awss\awss_statis.c ****                     SM_START = time;
 318:C:/Users/stapi/OneDrive/Desktop/GD32VW553/V1_MQTT_OK/GD32VW55X_Wifi_BLE_SDK/GD32VW55x_RELEASE_V1.0.2/MSDK/cloud/alicloud/src/services/awss\awss_statis.c ****                     break;
 319:C:/Users/stapi/OneDrive/Desktop/GD32VW553/V1_MQTT_OK/GD32VW55X_Wifi_BLE_SDK/GD32VW55x_RELEASE_V1.0.2/MSDK/cloud/alicloud/src/services/awss\awss_statis.c ****                 case AWSS_STATIS_TYPE_TIME_SUC:
 320:C:/Users/stapi/OneDrive/Desktop/GD32VW553/V1_MQTT_OK/GD32VW55X_Wifi_BLE_SDK/GD32VW55x_RELEASE_V1.0.2/MSDK/cloud/alicloud/src/services/awss\awss_statis.c ****                     SM_SUC ++;
 321:C:/Users/stapi/OneDrive/Desktop/GD32VW553/V1_MQTT_OK/GD32VW55X_Wifi_BLE_SDK/GD32VW55x_RELEASE_V1.0.2/MSDK/cloud/alicloud/src/services/awss\awss_statis.c ****                     SM_END = time;
 322:C:/Users/stapi/OneDrive/Desktop/GD32VW553/V1_MQTT_OK/GD32VW55X_Wifi_BLE_SDK/GD32VW55x_RELEASE_V1.0.2/MSDK/cloud/alicloud/src/services/awss\awss_statis.c ****                     time = (uint32_t)(SM_END - SM_START);
 323:C:/Users/stapi/OneDrive/Desktop/GD32VW553/V1_MQTT_OK/GD32VW55X_Wifi_BLE_SDK/GD32VW55x_RELEASE_V1.0.2/MSDK/cloud/alicloud/src/services/awss\awss_statis.c ****                     if (SM_SUC > 0) {
 324:C:/Users/stapi/OneDrive/Desktop/GD32VW553/V1_MQTT_OK/GD32VW55X_Wifi_BLE_SDK/GD32VW55x_RELEASE_V1.0.2/MSDK/cloud/alicloud/src/services/awss\awss_statis.c ****                         SM_TMEAN = (SM_TMEAN + time) / (SM_SUC);
 325:C:/Users/stapi/OneDrive/Desktop/GD32VW553/V1_MQTT_OK/GD32VW55X_Wifi_BLE_SDK/GD32VW55x_RELEASE_V1.0.2/MSDK/cloud/alicloud/src/services/awss\awss_statis.c ****                     } else {
 326:C:/Users/stapi/OneDrive/Desktop/GD32VW553/V1_MQTT_OK/GD32VW55X_Wifi_BLE_SDK/GD32VW55x_RELEASE_V1.0.2/MSDK/cloud/alicloud/src/services/awss\awss_statis.c ****                         SM_TMEAN = time;
 327:C:/Users/stapi/OneDrive/Desktop/GD32VW553/V1_MQTT_OK/GD32VW55X_Wifi_BLE_SDK/GD32VW55x_RELEASE_V1.0.2/MSDK/cloud/alicloud/src/services/awss\awss_statis.c ****                         SM_SUC = 1;
 328:C:/Users/stapi/OneDrive/Desktop/GD32VW553/V1_MQTT_OK/GD32VW55X_Wifi_BLE_SDK/GD32VW55x_RELEASE_V1.0.2/MSDK/cloud/alicloud/src/services/awss\awss_statis.c ****                     }
 329:C:/Users/stapi/OneDrive/Desktop/GD32VW553/V1_MQTT_OK/GD32VW55X_Wifi_BLE_SDK/GD32VW55x_RELEASE_V1.0.2/MSDK/cloud/alicloud/src/services/awss\awss_statis.c **** 
 330:C:/Users/stapi/OneDrive/Desktop/GD32VW553/V1_MQTT_OK/GD32VW55X_Wifi_BLE_SDK/GD32VW55x_RELEASE_V1.0.2/MSDK/cloud/alicloud/src/services/awss\awss_statis.c ****                     if (SM_TMIN == 0 || SM_TMIN > time)
 331:C:/Users/stapi/OneDrive/Desktop/GD32VW553/V1_MQTT_OK/GD32VW55X_Wifi_BLE_SDK/GD32VW55x_RELEASE_V1.0.2/MSDK/cloud/alicloud/src/services/awss\awss_statis.c ****                         SM_TMIN = time;
 332:C:/Users/stapi/OneDrive/Desktop/GD32VW553/V1_MQTT_OK/GD32VW55X_Wifi_BLE_SDK/GD32VW55x_RELEASE_V1.0.2/MSDK/cloud/alicloud/src/services/awss\awss_statis.c ****                     if (SM_TMAX == 0 || SM_TMAX < time)
 333:C:/Users/stapi/OneDrive/Desktop/GD32VW553/V1_MQTT_OK/GD32VW55X_Wifi_BLE_SDK/GD32VW55x_RELEASE_V1.0.2/MSDK/cloud/alicloud/src/services/awss\awss_statis.c ****                         SM_TMAX = time;
 334:C:/Users/stapi/OneDrive/Desktop/GD32VW553/V1_MQTT_OK/GD32VW55X_Wifi_BLE_SDK/GD32VW55x_RELEASE_V1.0.2/MSDK/cloud/alicloud/src/services/awss\awss_statis.c ****                     break;
 335:C:/Users/stapi/OneDrive/Desktop/GD32VW553/V1_MQTT_OK/GD32VW55X_Wifi_BLE_SDK/GD32VW55x_RELEASE_V1.0.2/MSDK/cloud/alicloud/src/services/awss\awss_statis.c ****                 case AWSS_STATIS_TYPE_PASSWD_ERR:
 336:C:/Users/stapi/OneDrive/Desktop/GD32VW553/V1_MQTT_OK/GD32VW55X_Wifi_BLE_SDK/GD32VW55x_RELEASE_V1.0.2/MSDK/cloud/alicloud/src/services/awss\awss_statis.c ****                     SM_PW_ERR ++;
 337:C:/Users/stapi/OneDrive/Desktop/GD32VW553/V1_MQTT_OK/GD32VW55X_Wifi_BLE_SDK/GD32VW55x_RELEASE_V1.0.2/MSDK/cloud/alicloud/src/services/awss\awss_statis.c ****                     break;
 338:C:/Users/stapi/OneDrive/Desktop/GD32VW553/V1_MQTT_OK/GD32VW55X_Wifi_BLE_SDK/GD32VW55x_RELEASE_V1.0.2/MSDK/cloud/alicloud/src/services/awss\awss_statis.c ****                 case AWSS_STATIS_TYPE_CRC_ERR:
 339:C:/Users/stapi/OneDrive/Desktop/GD32VW553/V1_MQTT_OK/GD32VW55X_Wifi_BLE_SDK/GD32VW55x_RELEASE_V1.0.2/MSDK/cloud/alicloud/src/services/awss\awss_statis.c ****                     SM_CRC_ERR ++;
 340:C:/Users/stapi/OneDrive/Desktop/GD32VW553/V1_MQTT_OK/GD32VW55X_Wifi_BLE_SDK/GD32VW55x_RELEASE_V1.0.2/MSDK/cloud/alicloud/src/services/awss\awss_statis.c ****                     break;
 341:C:/Users/stapi/OneDrive/Desktop/GD32VW553/V1_MQTT_OK/GD32VW55X_Wifi_BLE_SDK/GD32VW55x_RELEASE_V1.0.2/MSDK/cloud/alicloud/src/services/awss\awss_statis.c ****                 default:
 342:C:/Users/stapi/OneDrive/Desktop/GD32VW553/V1_MQTT_OK/GD32VW55X_Wifi_BLE_SDK/GD32VW55x_RELEASE_V1.0.2/MSDK/cloud/alicloud/src/services/awss\awss_statis.c ****                     break;
 343:C:/Users/stapi/OneDrive/Desktop/GD32VW553/V1_MQTT_OK/GD32VW55X_Wifi_BLE_SDK/GD32VW55x_RELEASE_V1.0.2/MSDK/cloud/alicloud/src/services/awss\awss_statis.c ****             }
 344:C:/Users/stapi/OneDrive/Desktop/GD32VW553/V1_MQTT_OK/GD32VW55X_Wifi_BLE_SDK/GD32VW55x_RELEASE_V1.0.2/MSDK/cloud/alicloud/src/services/awss\awss_statis.c ****             break;
 345:C:/Users/stapi/OneDrive/Desktop/GD32VW553/V1_MQTT_OK/GD32VW55X_Wifi_BLE_SDK/GD32VW55x_RELEASE_V1.0.2/MSDK/cloud/alicloud/src/services/awss\awss_statis.c **** #endif
 346:C:/Users/stapi/OneDrive/Desktop/GD32VW553/V1_MQTT_OK/GD32VW55X_Wifi_BLE_SDK/GD32VW55x_RELEASE_V1.0.2/MSDK/cloud/alicloud/src/services/awss\awss_statis.c **** #ifdef AWSS_SUPPORT_AHA
 347:C:/Users/stapi/OneDrive/Desktop/GD32VW553/V1_MQTT_OK/GD32VW55X_Wifi_BLE_SDK/GD32VW55x_RELEASE_V1.0.2/MSDK/cloud/alicloud/src/services/awss\awss_statis.c ****         case AWSS_STATIS_PAP_IDX:
 348:C:/Users/stapi/OneDrive/Desktop/GD32VW553/V1_MQTT_OK/GD32VW55X_Wifi_BLE_SDK/GD32VW55x_RELEASE_V1.0.2/MSDK/cloud/alicloud/src/services/awss\awss_statis.c ****             switch (type) {
 349:C:/Users/stapi/OneDrive/Desktop/GD32VW553/V1_MQTT_OK/GD32VW55X_Wifi_BLE_SDK/GD32VW55x_RELEASE_V1.0.2/MSDK/cloud/alicloud/src/services/awss\awss_statis.c ****                 case AWSS_STATIS_TYPE_TIME_START:
 350:C:/Users/stapi/OneDrive/Desktop/GD32VW553/V1_MQTT_OK/GD32VW55X_Wifi_BLE_SDK/GD32VW55x_RELEASE_V1.0.2/MSDK/cloud/alicloud/src/services/awss\awss_statis.c ****                     PAP_CNT ++;
 351:C:/Users/stapi/OneDrive/Desktop/GD32VW553/V1_MQTT_OK/GD32VW55X_Wifi_BLE_SDK/GD32VW55x_RELEASE_V1.0.2/MSDK/cloud/alicloud/src/services/awss\awss_statis.c ****                     PAP_START = time;
 352:C:/Users/stapi/OneDrive/Desktop/GD32VW553/V1_MQTT_OK/GD32VW55X_Wifi_BLE_SDK/GD32VW55x_RELEASE_V1.0.2/MSDK/cloud/alicloud/src/services/awss\awss_statis.c ****                     break;
 353:C:/Users/stapi/OneDrive/Desktop/GD32VW553/V1_MQTT_OK/GD32VW55X_Wifi_BLE_SDK/GD32VW55x_RELEASE_V1.0.2/MSDK/cloud/alicloud/src/services/awss\awss_statis.c ****                 case AWSS_STATIS_TYPE_TIME_SUC:
 354:C:/Users/stapi/OneDrive/Desktop/GD32VW553/V1_MQTT_OK/GD32VW55X_Wifi_BLE_SDK/GD32VW55x_RELEASE_V1.0.2/MSDK/cloud/alicloud/src/services/awss\awss_statis.c ****                     PAP_SUC ++;
 355:C:/Users/stapi/OneDrive/Desktop/GD32VW553/V1_MQTT_OK/GD32VW55X_Wifi_BLE_SDK/GD32VW55x_RELEASE_V1.0.2/MSDK/cloud/alicloud/src/services/awss\awss_statis.c ****                     PAP_END = time;
 356:C:/Users/stapi/OneDrive/Desktop/GD32VW553/V1_MQTT_OK/GD32VW55X_Wifi_BLE_SDK/GD32VW55x_RELEASE_V1.0.2/MSDK/cloud/alicloud/src/services/awss\awss_statis.c ****                     time = (uint32_t)(PAP_END - PAP_START);
 357:C:/Users/stapi/OneDrive/Desktop/GD32VW553/V1_MQTT_OK/GD32VW55X_Wifi_BLE_SDK/GD32VW55x_RELEASE_V1.0.2/MSDK/cloud/alicloud/src/services/awss\awss_statis.c ****                     if (PAP_SUC > 0) {
 358:C:/Users/stapi/OneDrive/Desktop/GD32VW553/V1_MQTT_OK/GD32VW55X_Wifi_BLE_SDK/GD32VW55x_RELEASE_V1.0.2/MSDK/cloud/alicloud/src/services/awss\awss_statis.c ****                         PAP_TMEAN = (PAP_TMEAN + time) / (PAP_SUC);
 359:C:/Users/stapi/OneDrive/Desktop/GD32VW553/V1_MQTT_OK/GD32VW55X_Wifi_BLE_SDK/GD32VW55x_RELEASE_V1.0.2/MSDK/cloud/alicloud/src/services/awss\awss_statis.c ****                     } else {
 360:C:/Users/stapi/OneDrive/Desktop/GD32VW553/V1_MQTT_OK/GD32VW55X_Wifi_BLE_SDK/GD32VW55x_RELEASE_V1.0.2/MSDK/cloud/alicloud/src/services/awss\awss_statis.c ****                         PAP_TMEAN = time;
 361:C:/Users/stapi/OneDrive/Desktop/GD32VW553/V1_MQTT_OK/GD32VW55X_Wifi_BLE_SDK/GD32VW55x_RELEASE_V1.0.2/MSDK/cloud/alicloud/src/services/awss\awss_statis.c ****                         PAP_SUC = 1;
 362:C:/Users/stapi/OneDrive/Desktop/GD32VW553/V1_MQTT_OK/GD32VW55X_Wifi_BLE_SDK/GD32VW55x_RELEASE_V1.0.2/MSDK/cloud/alicloud/src/services/awss\awss_statis.c ****                     }
 363:C:/Users/stapi/OneDrive/Desktop/GD32VW553/V1_MQTT_OK/GD32VW55X_Wifi_BLE_SDK/GD32VW55x_RELEASE_V1.0.2/MSDK/cloud/alicloud/src/services/awss\awss_statis.c ****                     if (PAP_TMIN == 0 || PAP_TMIN > time)
 364:C:/Users/stapi/OneDrive/Desktop/GD32VW553/V1_MQTT_OK/GD32VW55X_Wifi_BLE_SDK/GD32VW55x_RELEASE_V1.0.2/MSDK/cloud/alicloud/src/services/awss\awss_statis.c ****                         PAP_TMIN = time;
 365:C:/Users/stapi/OneDrive/Desktop/GD32VW553/V1_MQTT_OK/GD32VW55X_Wifi_BLE_SDK/GD32VW55x_RELEASE_V1.0.2/MSDK/cloud/alicloud/src/services/awss\awss_statis.c ****                     if (PAP_TMAX == 0 || PAP_TMAX < time)
 366:C:/Users/stapi/OneDrive/Desktop/GD32VW553/V1_MQTT_OK/GD32VW55X_Wifi_BLE_SDK/GD32VW55x_RELEASE_V1.0.2/MSDK/cloud/alicloud/src/services/awss\awss_statis.c ****                         PAP_TMAX = time;
 367:C:/Users/stapi/OneDrive/Desktop/GD32VW553/V1_MQTT_OK/GD32VW55X_Wifi_BLE_SDK/GD32VW55x_RELEASE_V1.0.2/MSDK/cloud/alicloud/src/services/awss\awss_statis.c ****                     break;
 368:C:/Users/stapi/OneDrive/Desktop/GD32VW553/V1_MQTT_OK/GD32VW55X_Wifi_BLE_SDK/GD32VW55x_RELEASE_V1.0.2/MSDK/cloud/alicloud/src/services/awss\awss_statis.c ****                 case AWSS_STATIS_TYPE_PASSWD_ERR:
 369:C:/Users/stapi/OneDrive/Desktop/GD32VW553/V1_MQTT_OK/GD32VW55X_Wifi_BLE_SDK/GD32VW55x_RELEASE_V1.0.2/MSDK/cloud/alicloud/src/services/awss\awss_statis.c ****                     PAP_PW_ERR ++;
 370:C:/Users/stapi/OneDrive/Desktop/GD32VW553/V1_MQTT_OK/GD32VW55X_Wifi_BLE_SDK/GD32VW55x_RELEASE_V1.0.2/MSDK/cloud/alicloud/src/services/awss\awss_statis.c ****                     break;
 371:C:/Users/stapi/OneDrive/Desktop/GD32VW553/V1_MQTT_OK/GD32VW55X_Wifi_BLE_SDK/GD32VW55x_RELEASE_V1.0.2/MSDK/cloud/alicloud/src/services/awss\awss_statis.c ****                 case AWSS_STATIS_TYPE_SCAN_START:
 372:C:/Users/stapi/OneDrive/Desktop/GD32VW553/V1_MQTT_OK/GD32VW55X_Wifi_BLE_SDK/GD32VW55x_RELEASE_V1.0.2/MSDK/cloud/alicloud/src/services/awss\awss_statis.c ****                     PAP_SSTART = time;
 373:C:/Users/stapi/OneDrive/Desktop/GD32VW553/V1_MQTT_OK/GD32VW55X_Wifi_BLE_SDK/GD32VW55x_RELEASE_V1.0.2/MSDK/cloud/alicloud/src/services/awss\awss_statis.c ****                     break;
 374:C:/Users/stapi/OneDrive/Desktop/GD32VW553/V1_MQTT_OK/GD32VW55X_Wifi_BLE_SDK/GD32VW55x_RELEASE_V1.0.2/MSDK/cloud/alicloud/src/services/awss\awss_statis.c ****                 case AWSS_STATIS_TYPE_SCAN_STOP:
 375:C:/Users/stapi/OneDrive/Desktop/GD32VW553/V1_MQTT_OK/GD32VW55X_Wifi_BLE_SDK/GD32VW55x_RELEASE_V1.0.2/MSDK/cloud/alicloud/src/services/awss\awss_statis.c ****                     PAP_SSTOP = time;
 376:C:/Users/stapi/OneDrive/Desktop/GD32VW553/V1_MQTT_OK/GD32VW55X_Wifi_BLE_SDK/GD32VW55x_RELEASE_V1.0.2/MSDK/cloud/alicloud/src/services/awss\awss_statis.c ****                     break;
 377:C:/Users/stapi/OneDrive/Desktop/GD32VW553/V1_MQTT_OK/GD32VW55X_Wifi_BLE_SDK/GD32VW55x_RELEASE_V1.0.2/MSDK/cloud/alicloud/src/services/awss\awss_statis.c ****                 case AWSS_STATIS_TYPE_SWITCHAP:
 378:C:/Users/stapi/OneDrive/Desktop/GD32VW553/V1_MQTT_OK/GD32VW55X_Wifi_BLE_SDK/GD32VW55x_RELEASE_V1.0.2/MSDK/cloud/alicloud/src/services/awss\awss_statis.c ****                     PAP_SAP ++;
 379:C:/Users/stapi/OneDrive/Desktop/GD32VW553/V1_MQTT_OK/GD32VW55X_Wifi_BLE_SDK/GD32VW55x_RELEASE_V1.0.2/MSDK/cloud/alicloud/src/services/awss\awss_statis.c ****                     break;
 380:C:/Users/stapi/OneDrive/Desktop/GD32VW553/V1_MQTT_OK/GD32VW55X_Wifi_BLE_SDK/GD32VW55x_RELEASE_V1.0.2/MSDK/cloud/alicloud/src/services/awss\awss_statis.c ****                 default:
 381:C:/Users/stapi/OneDrive/Desktop/GD32VW553/V1_MQTT_OK/GD32VW55X_Wifi_BLE_SDK/GD32VW55x_RELEASE_V1.0.2/MSDK/cloud/alicloud/src/services/awss\awss_statis.c ****                     break;
 382:C:/Users/stapi/OneDrive/Desktop/GD32VW553/V1_MQTT_OK/GD32VW55X_Wifi_BLE_SDK/GD32VW55x_RELEASE_V1.0.2/MSDK/cloud/alicloud/src/services/awss\awss_statis.c ****             }
 383:C:/Users/stapi/OneDrive/Desktop/GD32VW553/V1_MQTT_OK/GD32VW55X_Wifi_BLE_SDK/GD32VW55x_RELEASE_V1.0.2/MSDK/cloud/alicloud/src/services/awss\awss_statis.c ****             break;
 384:C:/Users/stapi/OneDrive/Desktop/GD32VW553/V1_MQTT_OK/GD32VW55X_Wifi_BLE_SDK/GD32VW55x_RELEASE_V1.0.2/MSDK/cloud/alicloud/src/services/awss\awss_statis.c **** #endif
 385:C:/Users/stapi/OneDrive/Desktop/GD32VW553/V1_MQTT_OK/GD32VW55X_Wifi_BLE_SDK/GD32VW55x_RELEASE_V1.0.2/MSDK/cloud/alicloud/src/services/awss\awss_statis.c **** #ifdef AWSS_SUPPORT_DEV_AP
 386:C:/Users/stapi/OneDrive/Desktop/GD32VW553/V1_MQTT_OK/GD32VW55X_Wifi_BLE_SDK/GD32VW55x_RELEASE_V1.0.2/MSDK/cloud/alicloud/src/services/awss\awss_statis.c ****         case AWSS_STATIS_DAP_IDX:
 387:C:/Users/stapi/OneDrive/Desktop/GD32VW553/V1_MQTT_OK/GD32VW55X_Wifi_BLE_SDK/GD32VW55x_RELEASE_V1.0.2/MSDK/cloud/alicloud/src/services/awss\awss_statis.c ****             switch (type) {
 388:C:/Users/stapi/OneDrive/Desktop/GD32VW553/V1_MQTT_OK/GD32VW55X_Wifi_BLE_SDK/GD32VW55x_RELEASE_V1.0.2/MSDK/cloud/alicloud/src/services/awss\awss_statis.c ****                 case AWSS_STATIS_TYPE_TIME_START:
 389:C:/Users/stapi/OneDrive/Desktop/GD32VW553/V1_MQTT_OK/GD32VW55X_Wifi_BLE_SDK/GD32VW55x_RELEASE_V1.0.2/MSDK/cloud/alicloud/src/services/awss\awss_statis.c ****                     DAP_CNT ++;
 390:C:/Users/stapi/OneDrive/Desktop/GD32VW553/V1_MQTT_OK/GD32VW55X_Wifi_BLE_SDK/GD32VW55x_RELEASE_V1.0.2/MSDK/cloud/alicloud/src/services/awss\awss_statis.c ****                     DAP_START = time;
 391:C:/Users/stapi/OneDrive/Desktop/GD32VW553/V1_MQTT_OK/GD32VW55X_Wifi_BLE_SDK/GD32VW55x_RELEASE_V1.0.2/MSDK/cloud/alicloud/src/services/awss\awss_statis.c ****                     break;
 392:C:/Users/stapi/OneDrive/Desktop/GD32VW553/V1_MQTT_OK/GD32VW55X_Wifi_BLE_SDK/GD32VW55x_RELEASE_V1.0.2/MSDK/cloud/alicloud/src/services/awss\awss_statis.c ****                 case AWSS_STATIS_TYPE_TIME_SUC:
 393:C:/Users/stapi/OneDrive/Desktop/GD32VW553/V1_MQTT_OK/GD32VW55X_Wifi_BLE_SDK/GD32VW55x_RELEASE_V1.0.2/MSDK/cloud/alicloud/src/services/awss\awss_statis.c ****                     DAP_SUC ++;
 394:C:/Users/stapi/OneDrive/Desktop/GD32VW553/V1_MQTT_OK/GD32VW55X_Wifi_BLE_SDK/GD32VW55x_RELEASE_V1.0.2/MSDK/cloud/alicloud/src/services/awss\awss_statis.c ****                     DAP_END = time;
 395:C:/Users/stapi/OneDrive/Desktop/GD32VW553/V1_MQTT_OK/GD32VW55X_Wifi_BLE_SDK/GD32VW55x_RELEASE_V1.0.2/MSDK/cloud/alicloud/src/services/awss\awss_statis.c ****                     time = (uint32_t)(DAP_END - DAP_START);
 396:C:/Users/stapi/OneDrive/Desktop/GD32VW553/V1_MQTT_OK/GD32VW55X_Wifi_BLE_SDK/GD32VW55x_RELEASE_V1.0.2/MSDK/cloud/alicloud/src/services/awss\awss_statis.c ****                     if (DAP_SUC > 0) {
 397:C:/Users/stapi/OneDrive/Desktop/GD32VW553/V1_MQTT_OK/GD32VW55X_Wifi_BLE_SDK/GD32VW55x_RELEASE_V1.0.2/MSDK/cloud/alicloud/src/services/awss\awss_statis.c ****                         DAP_TMEAN = (DAP_TMEAN + time) / (DAP_SUC);
 398:C:/Users/stapi/OneDrive/Desktop/GD32VW553/V1_MQTT_OK/GD32VW55X_Wifi_BLE_SDK/GD32VW55x_RELEASE_V1.0.2/MSDK/cloud/alicloud/src/services/awss\awss_statis.c ****                     } else {
 399:C:/Users/stapi/OneDrive/Desktop/GD32VW553/V1_MQTT_OK/GD32VW55X_Wifi_BLE_SDK/GD32VW55x_RELEASE_V1.0.2/MSDK/cloud/alicloud/src/services/awss\awss_statis.c ****                         DAP_TMEAN = time;
 400:C:/Users/stapi/OneDrive/Desktop/GD32VW553/V1_MQTT_OK/GD32VW55X_Wifi_BLE_SDK/GD32VW55x_RELEASE_V1.0.2/MSDK/cloud/alicloud/src/services/awss\awss_statis.c ****                         DAP_SUC = 1;
 401:C:/Users/stapi/OneDrive/Desktop/GD32VW553/V1_MQTT_OK/GD32VW55X_Wifi_BLE_SDK/GD32VW55x_RELEASE_V1.0.2/MSDK/cloud/alicloud/src/services/awss\awss_statis.c ****                     }
 402:C:/Users/stapi/OneDrive/Desktop/GD32VW553/V1_MQTT_OK/GD32VW55X_Wifi_BLE_SDK/GD32VW55x_RELEASE_V1.0.2/MSDK/cloud/alicloud/src/services/awss\awss_statis.c ****                     if (DAP_TMIN == 0 || DAP_TMIN > time)
 403:C:/Users/stapi/OneDrive/Desktop/GD32VW553/V1_MQTT_OK/GD32VW55X_Wifi_BLE_SDK/GD32VW55x_RELEASE_V1.0.2/MSDK/cloud/alicloud/src/services/awss\awss_statis.c ****                         DAP_TMIN = time;
 404:C:/Users/stapi/OneDrive/Desktop/GD32VW553/V1_MQTT_OK/GD32VW55X_Wifi_BLE_SDK/GD32VW55x_RELEASE_V1.0.2/MSDK/cloud/alicloud/src/services/awss\awss_statis.c ****                     if (DAP_TMAX == 0 || DAP_TMAX < time)
 405:C:/Users/stapi/OneDrive/Desktop/GD32VW553/V1_MQTT_OK/GD32VW55X_Wifi_BLE_SDK/GD32VW55x_RELEASE_V1.0.2/MSDK/cloud/alicloud/src/services/awss\awss_statis.c ****                         DAP_TMAX = time;
 406:C:/Users/stapi/OneDrive/Desktop/GD32VW553/V1_MQTT_OK/GD32VW55X_Wifi_BLE_SDK/GD32VW55x_RELEASE_V1.0.2/MSDK/cloud/alicloud/src/services/awss\awss_statis.c ****                     break;
 407:C:/Users/stapi/OneDrive/Desktop/GD32VW553/V1_MQTT_OK/GD32VW55X_Wifi_BLE_SDK/GD32VW55x_RELEASE_V1.0.2/MSDK/cloud/alicloud/src/services/awss\awss_statis.c ****                 case AWSS_STATIS_TYPE_PASSWD_ERR:
 408:C:/Users/stapi/OneDrive/Desktop/GD32VW553/V1_MQTT_OK/GD32VW55X_Wifi_BLE_SDK/GD32VW55x_RELEASE_V1.0.2/MSDK/cloud/alicloud/src/services/awss\awss_statis.c ****                     DAP_PW_ERR ++;
 409:C:/Users/stapi/OneDrive/Desktop/GD32VW553/V1_MQTT_OK/GD32VW55X_Wifi_BLE_SDK/GD32VW55x_RELEASE_V1.0.2/MSDK/cloud/alicloud/src/services/awss\awss_statis.c ****                     break;
 410:C:/Users/stapi/OneDrive/Desktop/GD32VW553/V1_MQTT_OK/GD32VW55X_Wifi_BLE_SDK/GD32VW55x_RELEASE_V1.0.2/MSDK/cloud/alicloud/src/services/awss\awss_statis.c ****                 default:
 411:C:/Users/stapi/OneDrive/Desktop/GD32VW553/V1_MQTT_OK/GD32VW55X_Wifi_BLE_SDK/GD32VW55x_RELEASE_V1.0.2/MSDK/cloud/alicloud/src/services/awss\awss_statis.c ****                     break;
 412:C:/Users/stapi/OneDrive/Desktop/GD32VW553/V1_MQTT_OK/GD32VW55X_Wifi_BLE_SDK/GD32VW55x_RELEASE_V1.0.2/MSDK/cloud/alicloud/src/services/awss\awss_statis.c ****             }
 413:C:/Users/stapi/OneDrive/Desktop/GD32VW553/V1_MQTT_OK/GD32VW55X_Wifi_BLE_SDK/GD32VW55x_RELEASE_V1.0.2/MSDK/cloud/alicloud/src/services/awss\awss_statis.c ****             break;
 414:C:/Users/stapi/OneDrive/Desktop/GD32VW553/V1_MQTT_OK/GD32VW55X_Wifi_BLE_SDK/GD32VW55x_RELEASE_V1.0.2/MSDK/cloud/alicloud/src/services/awss\awss_statis.c **** #endif
 415:C:/Users/stapi/OneDrive/Desktop/GD32VW553/V1_MQTT_OK/GD32VW55X_Wifi_BLE_SDK/GD32VW55x_RELEASE_V1.0.2/MSDK/cloud/alicloud/src/services/awss\awss_statis.c **** #ifdef AWSS_SUPPORT_ADHA
 416:C:/Users/stapi/OneDrive/Desktop/GD32VW553/V1_MQTT_OK/GD32VW55X_Wifi_BLE_SDK/GD32VW55x_RELEASE_V1.0.2/MSDK/cloud/alicloud/src/services/awss\awss_statis.c ****         case AWSS_STATIS_ROUTE_IDX:
 417:C:/Users/stapi/OneDrive/Desktop/GD32VW553/V1_MQTT_OK/GD32VW55X_Wifi_BLE_SDK/GD32VW55x_RELEASE_V1.0.2/MSDK/cloud/alicloud/src/services/awss\awss_statis.c ****             switch (type) {
 418:C:/Users/stapi/OneDrive/Desktop/GD32VW553/V1_MQTT_OK/GD32VW55X_Wifi_BLE_SDK/GD32VW55x_RELEASE_V1.0.2/MSDK/cloud/alicloud/src/services/awss\awss_statis.c ****                 case AWSS_STATIS_TYPE_TIME_START:
 419:C:/Users/stapi/OneDrive/Desktop/GD32VW553/V1_MQTT_OK/GD32VW55X_Wifi_BLE_SDK/GD32VW55x_RELEASE_V1.0.2/MSDK/cloud/alicloud/src/services/awss\awss_statis.c ****                     ROUTE_CNT ++;
 420:C:/Users/stapi/OneDrive/Desktop/GD32VW553/V1_MQTT_OK/GD32VW55X_Wifi_BLE_SDK/GD32VW55x_RELEASE_V1.0.2/MSDK/cloud/alicloud/src/services/awss\awss_statis.c ****                     ROUTE_START = time;
 421:C:/Users/stapi/OneDrive/Desktop/GD32VW553/V1_MQTT_OK/GD32VW55X_Wifi_BLE_SDK/GD32VW55x_RELEASE_V1.0.2/MSDK/cloud/alicloud/src/services/awss\awss_statis.c ****                     break;
 422:C:/Users/stapi/OneDrive/Desktop/GD32VW553/V1_MQTT_OK/GD32VW55X_Wifi_BLE_SDK/GD32VW55x_RELEASE_V1.0.2/MSDK/cloud/alicloud/src/services/awss\awss_statis.c ****                 case AWSS_STATIS_TYPE_TIME_SUC:
 423:C:/Users/stapi/OneDrive/Desktop/GD32VW553/V1_MQTT_OK/GD32VW55X_Wifi_BLE_SDK/GD32VW55x_RELEASE_V1.0.2/MSDK/cloud/alicloud/src/services/awss\awss_statis.c ****                     ROUTE_SUC ++;
 424:C:/Users/stapi/OneDrive/Desktop/GD32VW553/V1_MQTT_OK/GD32VW55X_Wifi_BLE_SDK/GD32VW55x_RELEASE_V1.0.2/MSDK/cloud/alicloud/src/services/awss\awss_statis.c ****                     ROUTE_END = time;
 425:C:/Users/stapi/OneDrive/Desktop/GD32VW553/V1_MQTT_OK/GD32VW55X_Wifi_BLE_SDK/GD32VW55x_RELEASE_V1.0.2/MSDK/cloud/alicloud/src/services/awss\awss_statis.c ****                     time = (uint32_t)(ROUTE_END - ROUTE_START);
 426:C:/Users/stapi/OneDrive/Desktop/GD32VW553/V1_MQTT_OK/GD32VW55X_Wifi_BLE_SDK/GD32VW55x_RELEASE_V1.0.2/MSDK/cloud/alicloud/src/services/awss\awss_statis.c ****                     if (ROUTE_SUC > 0) {
 427:C:/Users/stapi/OneDrive/Desktop/GD32VW553/V1_MQTT_OK/GD32VW55X_Wifi_BLE_SDK/GD32VW55x_RELEASE_V1.0.2/MSDK/cloud/alicloud/src/services/awss\awss_statis.c ****                         ROUTE_TMEAN = (ROUTE_TMEAN + time) / (ROUTE_SUC);
 428:C:/Users/stapi/OneDrive/Desktop/GD32VW553/V1_MQTT_OK/GD32VW55X_Wifi_BLE_SDK/GD32VW55x_RELEASE_V1.0.2/MSDK/cloud/alicloud/src/services/awss\awss_statis.c ****                     } else {
 429:C:/Users/stapi/OneDrive/Desktop/GD32VW553/V1_MQTT_OK/GD32VW55X_Wifi_BLE_SDK/GD32VW55x_RELEASE_V1.0.2/MSDK/cloud/alicloud/src/services/awss\awss_statis.c ****                         ROUTE_TMEAN = time;
 430:C:/Users/stapi/OneDrive/Desktop/GD32VW553/V1_MQTT_OK/GD32VW55X_Wifi_BLE_SDK/GD32VW55x_RELEASE_V1.0.2/MSDK/cloud/alicloud/src/services/awss\awss_statis.c ****                         ROUTE_SUC = 1;
 431:C:/Users/stapi/OneDrive/Desktop/GD32VW553/V1_MQTT_OK/GD32VW55X_Wifi_BLE_SDK/GD32VW55x_RELEASE_V1.0.2/MSDK/cloud/alicloud/src/services/awss\awss_statis.c ****                     }
 432:C:/Users/stapi/OneDrive/Desktop/GD32VW553/V1_MQTT_OK/GD32VW55X_Wifi_BLE_SDK/GD32VW55x_RELEASE_V1.0.2/MSDK/cloud/alicloud/src/services/awss\awss_statis.c **** 
 433:C:/Users/stapi/OneDrive/Desktop/GD32VW553/V1_MQTT_OK/GD32VW55X_Wifi_BLE_SDK/GD32VW55x_RELEASE_V1.0.2/MSDK/cloud/alicloud/src/services/awss\awss_statis.c ****                     if (ROUTE_TMIN == 0 || ROUTE_TMIN > time)
 434:C:/Users/stapi/OneDrive/Desktop/GD32VW553/V1_MQTT_OK/GD32VW55X_Wifi_BLE_SDK/GD32VW55x_RELEASE_V1.0.2/MSDK/cloud/alicloud/src/services/awss\awss_statis.c ****                         ROUTE_TMIN = time;
 435:C:/Users/stapi/OneDrive/Desktop/GD32VW553/V1_MQTT_OK/GD32VW55X_Wifi_BLE_SDK/GD32VW55x_RELEASE_V1.0.2/MSDK/cloud/alicloud/src/services/awss\awss_statis.c ****                     if (ROUTE_TMAX == 0 || ROUTE_TMAX < time)
 436:C:/Users/stapi/OneDrive/Desktop/GD32VW553/V1_MQTT_OK/GD32VW55X_Wifi_BLE_SDK/GD32VW55x_RELEASE_V1.0.2/MSDK/cloud/alicloud/src/services/awss\awss_statis.c ****                         ROUTE_TMAX = time;
 437:C:/Users/stapi/OneDrive/Desktop/GD32VW553/V1_MQTT_OK/GD32VW55X_Wifi_BLE_SDK/GD32VW55x_RELEASE_V1.0.2/MSDK/cloud/alicloud/src/services/awss\awss_statis.c ****                     break;
 438:C:/Users/stapi/OneDrive/Desktop/GD32VW553/V1_MQTT_OK/GD32VW55X_Wifi_BLE_SDK/GD32VW55x_RELEASE_V1.0.2/MSDK/cloud/alicloud/src/services/awss\awss_statis.c ****                 default:
 439:C:/Users/stapi/OneDrive/Desktop/GD32VW553/V1_MQTT_OK/GD32VW55X_Wifi_BLE_SDK/GD32VW55x_RELEASE_V1.0.2/MSDK/cloud/alicloud/src/services/awss\awss_statis.c ****                     break;
 440:C:/Users/stapi/OneDrive/Desktop/GD32VW553/V1_MQTT_OK/GD32VW55X_Wifi_BLE_SDK/GD32VW55x_RELEASE_V1.0.2/MSDK/cloud/alicloud/src/services/awss\awss_statis.c ****             }
 441:C:/Users/stapi/OneDrive/Desktop/GD32VW553/V1_MQTT_OK/GD32VW55X_Wifi_BLE_SDK/GD32VW55x_RELEASE_V1.0.2/MSDK/cloud/alicloud/src/services/awss\awss_statis.c ****             break;
 442:C:/Users/stapi/OneDrive/Desktop/GD32VW553/V1_MQTT_OK/GD32VW55X_Wifi_BLE_SDK/GD32VW55x_RELEASE_V1.0.2/MSDK/cloud/alicloud/src/services/awss\awss_statis.c **** #endif
 443:C:/Users/stapi/OneDrive/Desktop/GD32VW553/V1_MQTT_OK/GD32VW55X_Wifi_BLE_SDK/GD32VW55x_RELEASE_V1.0.2/MSDK/cloud/alicloud/src/services/awss\awss_statis.c **** #ifndef AWSS_DISABLE_ENROLLEE
 444:C:/Users/stapi/OneDrive/Desktop/GD32VW553/V1_MQTT_OK/GD32VW55X_Wifi_BLE_SDK/GD32VW55x_RELEASE_V1.0.2/MSDK/cloud/alicloud/src/services/awss\awss_statis.c ****         case AWSS_STATIS_ZCONFIG_IDX:
 445:C:/Users/stapi/OneDrive/Desktop/GD32VW553/V1_MQTT_OK/GD32VW55X_Wifi_BLE_SDK/GD32VW55x_RELEASE_V1.0.2/MSDK/cloud/alicloud/src/services/awss\awss_statis.c ****             switch (type) {
 446:C:/Users/stapi/OneDrive/Desktop/GD32VW553/V1_MQTT_OK/GD32VW55X_Wifi_BLE_SDK/GD32VW55x_RELEASE_V1.0.2/MSDK/cloud/alicloud/src/services/awss\awss_statis.c ****                 case AWSS_STATIS_TYPE_TIME_START:
 447:C:/Users/stapi/OneDrive/Desktop/GD32VW553/V1_MQTT_OK/GD32VW55X_Wifi_BLE_SDK/GD32VW55x_RELEASE_V1.0.2/MSDK/cloud/alicloud/src/services/awss\awss_statis.c ****                     ZC_CNT ++;
 448:C:/Users/stapi/OneDrive/Desktop/GD32VW553/V1_MQTT_OK/GD32VW55X_Wifi_BLE_SDK/GD32VW55x_RELEASE_V1.0.2/MSDK/cloud/alicloud/src/services/awss\awss_statis.c ****                     break;
 449:C:/Users/stapi/OneDrive/Desktop/GD32VW553/V1_MQTT_OK/GD32VW55X_Wifi_BLE_SDK/GD32VW55x_RELEASE_V1.0.2/MSDK/cloud/alicloud/src/services/awss\awss_statis.c ****                 case AWSS_STATIS_TYPE_TIME_SUC:
 450:C:/Users/stapi/OneDrive/Desktop/GD32VW553/V1_MQTT_OK/GD32VW55X_Wifi_BLE_SDK/GD32VW55x_RELEASE_V1.0.2/MSDK/cloud/alicloud/src/services/awss\awss_statis.c ****                     ZC_SUC ++;
 451:C:/Users/stapi/OneDrive/Desktop/GD32VW553/V1_MQTT_OK/GD32VW55X_Wifi_BLE_SDK/GD32VW55x_RELEASE_V1.0.2/MSDK/cloud/alicloud/src/services/awss\awss_statis.c ****                     break;
 452:C:/Users/stapi/OneDrive/Desktop/GD32VW553/V1_MQTT_OK/GD32VW55X_Wifi_BLE_SDK/GD32VW55x_RELEASE_V1.0.2/MSDK/cloud/alicloud/src/services/awss\awss_statis.c ****                 case AWSS_STATIS_TYPE_PASSWD_ERR:
 453:C:/Users/stapi/OneDrive/Desktop/GD32VW553/V1_MQTT_OK/GD32VW55X_Wifi_BLE_SDK/GD32VW55x_RELEASE_V1.0.2/MSDK/cloud/alicloud/src/services/awss\awss_statis.c ****                     ZC_PW_ERR ++;
 454:C:/Users/stapi/OneDrive/Desktop/GD32VW553/V1_MQTT_OK/GD32VW55X_Wifi_BLE_SDK/GD32VW55x_RELEASE_V1.0.2/MSDK/cloud/alicloud/src/services/awss\awss_statis.c ****                     break;
 455:C:/Users/stapi/OneDrive/Desktop/GD32VW553/V1_MQTT_OK/GD32VW55X_Wifi_BLE_SDK/GD32VW55x_RELEASE_V1.0.2/MSDK/cloud/alicloud/src/services/awss\awss_statis.c ****                 default:
 456:C:/Users/stapi/OneDrive/Desktop/GD32VW553/V1_MQTT_OK/GD32VW55X_Wifi_BLE_SDK/GD32VW55x_RELEASE_V1.0.2/MSDK/cloud/alicloud/src/services/awss\awss_statis.c ****                     break;
 457:C:/Users/stapi/OneDrive/Desktop/GD32VW553/V1_MQTT_OK/GD32VW55X_Wifi_BLE_SDK/GD32VW55x_RELEASE_V1.0.2/MSDK/cloud/alicloud/src/services/awss\awss_statis.c ****             }
 458:C:/Users/stapi/OneDrive/Desktop/GD32VW553/V1_MQTT_OK/GD32VW55X_Wifi_BLE_SDK/GD32VW55x_RELEASE_V1.0.2/MSDK/cloud/alicloud/src/services/awss\awss_statis.c ****             break;
 459:C:/Users/stapi/OneDrive/Desktop/GD32VW553/V1_MQTT_OK/GD32VW55X_Wifi_BLE_SDK/GD32VW55x_RELEASE_V1.0.2/MSDK/cloud/alicloud/src/services/awss\awss_statis.c **** #endif
 460:C:/Users/stapi/OneDrive/Desktop/GD32VW553/V1_MQTT_OK/GD32VW55X_Wifi_BLE_SDK/GD32VW55x_RELEASE_V1.0.2/MSDK/cloud/alicloud/src/services/awss\awss_statis.c ****         default:
 461:C:/Users/stapi/OneDrive/Desktop/GD32VW553/V1_MQTT_OK/GD32VW55X_Wifi_BLE_SDK/GD32VW55x_RELEASE_V1.0.2/MSDK/cloud/alicloud/src/services/awss\awss_statis.c ****             break;
 462:C:/Users/stapi/OneDrive/Desktop/GD32VW553/V1_MQTT_OK/GD32VW55X_Wifi_BLE_SDK/GD32VW55x_RELEASE_V1.0.2/MSDK/cloud/alicloud/src/services/awss\awss_statis.c ****     }
 463:C:/Users/stapi/OneDrive/Desktop/GD32VW553/V1_MQTT_OK/GD32VW55X_Wifi_BLE_SDK/GD32VW55x_RELEASE_V1.0.2/MSDK/cloud/alicloud/src/services/awss\awss_statis.c ****     HAL_MutexUnlock(awss_statis_mutex);
 464:C:/Users/stapi/OneDrive/Desktop/GD32VW553/V1_MQTT_OK/GD32VW55X_Wifi_BLE_SDK/GD32VW55x_RELEASE_V1.0.2/MSDK/cloud/alicloud/src/services/awss\awss_statis.c **** }
 854              		.loc 1 464 1 is_stmt 0
 855 005c 17030000 		tail	__riscv_restore_5
 855      67000300 
 856              		.cfi_remember_state
 857              		.cfi_restore 20
 858              		.cfi_restore 19
 859              		.cfi_restore 18
 860              		.cfi_restore 9
 861              		.cfi_restore 8
 862              		.cfi_restore 1
 863              		.cfi_def_cfa_offset 0
 864              	.LVL63:
 865              	.L66:
 866              		.cfi_restore_state
 261:C:/Users/stapi/OneDrive/Desktop/GD32VW553/V1_MQTT_OK/GD32VW55X_Wifi_BLE_SDK/GD32VW55x_RELEASE_V1.0.2/MSDK/cloud/alicloud/src/services/awss\awss_statis.c **** 
 867              		.loc 1 261 5 is_stmt 1
 868 0064 03A50900 		lw	a0,0(s3)
 869 0068 97000000 		call	HAL_MutexLock
 869      E7800000 
 870              	.LVL64:
 263:C:/Users/stapi/OneDrive/Desktop/GD32VW553/V1_MQTT_OK/GD32VW55X_Wifi_BLE_SDK/GD32VW55x_RELEASE_V1.0.2/MSDK/cloud/alicloud/src/services/awss\awss_statis.c ****         awss_statis_trace_id ++;
 871              		.loc 1 263 5
 263:C:/Users/stapi/OneDrive/Desktop/GD32VW553/V1_MQTT_OK/GD32VW55X_Wifi_BLE_SDK/GD32VW55x_RELEASE_V1.0.2/MSDK/cloud/alicloud/src/services/awss\awss_statis.c ****         awss_statis_trace_id ++;
 872              		.loc 1 263 8 is_stmt 0
 873 0070 29EC     		bne	s0,zero,.L68
 264:C:/Users/stapi/OneDrive/Desktop/GD32VW553/V1_MQTT_OK/GD32VW55X_Wifi_BLE_SDK/GD32VW55x_RELEASE_V1.0.2/MSDK/cloud/alicloud/src/services/awss\awss_statis.c **** 
 874              		.loc 1 264 9 is_stmt 1
 264:C:/Users/stapi/OneDrive/Desktop/GD32VW553/V1_MQTT_OK/GD32VW55X_Wifi_BLE_SDK/GD32VW55x_RELEASE_V1.0.2/MSDK/cloud/alicloud/src/services/awss\awss_statis.c **** 
 875              		.loc 1 264 30 is_stmt 0
 876 0072 B7070000 		lui	a5,%hi(.LANCHOR2)
 877 0076 93870700 		addi	a5,a5,%lo(.LANCHOR2)
 878 007a 9843     		lw	a4,0(a5)
 879 007c 0507     		addi	a4,a4,1
 880 007e 98C3     		sw	a4,0(a5)
 266:C:/Users/stapi/OneDrive/Desktop/GD32VW553/V1_MQTT_OK/GD32VW55X_Wifi_BLE_SDK/GD32VW55x_RELEASE_V1.0.2/MSDK/cloud/alicloud/src/services/awss\awss_statis.c ****         case AWSS_STATIS_CONN_ROUTER_IDX:
 881              		.loc 1 266 5 is_stmt 1
 882 0080 9147     		li	a5,4
 883 0082 638AF41C 		beq	s1,a5,.L69
 884 0086 63CD9700 		bgt	s1,a5,.L70
 885 008a 95C4     		beq	s1,zero,.L71
 886 008c 8547     		li	a5,1
 887 008e 638AF41A 		beq	s1,a5,.L72
 888              	.LVL65:
 889              	.L75:
 463:C:/Users/stapi/OneDrive/Desktop/GD32VW553/V1_MQTT_OK/GD32VW55X_Wifi_BLE_SDK/GD32VW55x_RELEASE_V1.0.2/MSDK/cloud/alicloud/src/services/awss\awss_statis.c **** }
 890              		.loc 1 463 5
 891 0092 03A50900 		lw	a0,0(s3)
 892 0096 97000000 		call	HAL_MutexUnlock
 892      E7800000 
 893              	.LVL66:
 894 009e 7DBF     		j	.L65
 895              	.LVL67:
 896              	.L70:
 266:C:/Users/stapi/OneDrive/Desktop/GD32VW553/V1_MQTT_OK/GD32VW55X_Wifi_BLE_SDK/GD32VW55x_RELEASE_V1.0.2/MSDK/cloud/alicloud/src/services/awss\awss_statis.c ****         case AWSS_STATIS_CONN_ROUTER_IDX:
 897              		.loc 1 266 5 is_stmt 0
 898 00a0 9947     		li	a5,6
 899 00a2 E398F4FE 		bne	s1,a5,.L75
 445:C:/Users/stapi/OneDrive/Desktop/GD32VW553/V1_MQTT_OK/GD32VW55X_Wifi_BLE_SDK/GD32VW55x_RELEASE_V1.0.2/MSDK/cloud/alicloud/src/services/awss\awss_statis.c ****                 case AWSS_STATIS_TYPE_TIME_START:
 900              		.loc 1 445 13 is_stmt 1
 447:C:/Users/stapi/OneDrive/Desktop/GD32VW553/V1_MQTT_OK/GD32VW55X_Wifi_BLE_SDK/GD32VW55x_RELEASE_V1.0.2/MSDK/cloud/alicloud/src/services/awss\awss_statis.c ****                     break;
 901              		.loc 1 447 21
 447:C:/Users/stapi/OneDrive/Desktop/GD32VW553/V1_MQTT_OK/GD32VW55X_Wifi_BLE_SDK/GD32VW55x_RELEASE_V1.0.2/MSDK/cloud/alicloud/src/services/awss\awss_statis.c ****                     break;
 902              		.loc 1 447 28 is_stmt 0
 903 00a6 B7070000 		lui	a5,%hi(.LANCHOR1)
 904 00aa 93870700 		addi	a5,a5,%lo(.LANCHOR1)
 905 00ae B853     		lw	a4,96(a5)
 906 00b0 0507     		addi	a4,a4,1
 907 00b2 B8D3     		sw	a4,96(a5)
 448:C:/Users/stapi/OneDrive/Desktop/GD32VW553/V1_MQTT_OK/GD32VW55X_Wifi_BLE_SDK/GD32VW55x_RELEASE_V1.0.2/MSDK/cloud/alicloud/src/services/awss\awss_statis.c ****                 case AWSS_STATIS_TYPE_TIME_SUC:
 908              		.loc 1 448 21 is_stmt 1
 909 00b4 F9BF     		j	.L75
 910              	.L71:
 270:C:/Users/stapi/OneDrive/Desktop/GD32VW553/V1_MQTT_OK/GD32VW55X_Wifi_BLE_SDK/GD32VW55x_RELEASE_V1.0.2/MSDK/cloud/alicloud/src/services/awss\awss_statis.c ****                     DROUTE_START = time;
 911              		.loc 1 270 21
 270:C:/Users/stapi/OneDrive/Desktop/GD32VW553/V1_MQTT_OK/GD32VW55X_Wifi_BLE_SDK/GD32VW55x_RELEASE_V1.0.2/MSDK/cloud/alicloud/src/services/awss\awss_statis.c ****                     DROUTE_START = time;
 912              		.loc 1 270 32 is_stmt 0
 913 00b6 B7070000 		lui	a5,%hi(.LANCHOR1)
 914 00ba 93870700 		addi	a5,a5,%lo(.LANCHOR1)
 915 00be 9843     		lw	a4,0(a5)
 271:C:/Users/stapi/OneDrive/Desktop/GD32VW553/V1_MQTT_OK/GD32VW55X_Wifi_BLE_SDK/GD32VW55x_RELEASE_V1.0.2/MSDK/cloud/alicloud/src/services/awss\awss_statis.c ****                     break;
 916              		.loc 1 271 34
 917 00c0 23AA2701 		sw	s2,20(a5)
 270:C:/Users/stapi/OneDrive/Desktop/GD32VW553/V1_MQTT_OK/GD32VW55X_Wifi_BLE_SDK/GD32VW55x_RELEASE_V1.0.2/MSDK/cloud/alicloud/src/services/awss\awss_statis.c ****                     DROUTE_START = time;
 918              		.loc 1 270 32
 919 00c4 0507     		addi	a4,a4,1
 920 00c6 98C3     		sw	a4,0(a5)
 271:C:/Users/stapi/OneDrive/Desktop/GD32VW553/V1_MQTT_OK/GD32VW55X_Wifi_BLE_SDK/GD32VW55x_RELEASE_V1.0.2/MSDK/cloud/alicloud/src/services/awss\awss_statis.c ****                     break;
 921              		.loc 1 271 21 is_stmt 1
 272:C:/Users/stapi/OneDrive/Desktop/GD32VW553/V1_MQTT_OK/GD32VW55X_Wifi_BLE_SDK/GD32VW55x_RELEASE_V1.0.2/MSDK/cloud/alicloud/src/services/awss\awss_statis.c ****                 case AWSS_STATIS_TYPE_TIME_SUC:
 922              		.loc 1 272 21
 923 00c8 E9B7     		j	.L75
 924              	.L68:
 266:C:/Users/stapi/OneDrive/Desktop/GD32VW553/V1_MQTT_OK/GD32VW55X_Wifi_BLE_SDK/GD32VW55x_RELEASE_V1.0.2/MSDK/cloud/alicloud/src/services/awss\awss_statis.c ****         case AWSS_STATIS_CONN_ROUTER_IDX:
 925              		.loc 1 266 5
 926 00ca 8547     		li	a5,1
 927 00cc 6380F408 		beq	s1,a5,.L76
 928 00d0 63C79704 		bgt	s1,a5,.L77
 929 00d4 DDFC     		bne	s1,zero,.L75
 268:C:/Users/stapi/OneDrive/Desktop/GD32VW553/V1_MQTT_OK/GD32VW55X_Wifi_BLE_SDK/GD32VW55x_RELEASE_V1.0.2/MSDK/cloud/alicloud/src/services/awss\awss_statis.c ****                 case AWSS_STATIS_TYPE_TIME_START:
 930              		.loc 1 268 13
 931 00d6 E31EF4FA 		bne	s0,a5,.L75
 274:C:/Users/stapi/OneDrive/Desktop/GD32VW553/V1_MQTT_OK/GD32VW55X_Wifi_BLE_SDK/GD32VW55x_RELEASE_V1.0.2/MSDK/cloud/alicloud/src/services/awss\awss_statis.c ****                     DROUTE_END = time;
 932              		.loc 1 274 21
 933 00da B7070000 		lui	a5,%hi(.LANCHOR1)
 934 00de 13860700 		addi	a2,a5,%lo(.LANCHOR1)
 274:C:/Users/stapi/OneDrive/Desktop/GD32VW553/V1_MQTT_OK/GD32VW55X_Wifi_BLE_SDK/GD32VW55x_RELEASE_V1.0.2/MSDK/cloud/alicloud/src/services/awss\awss_statis.c ****                     DROUTE_END = time;
 935              		.loc 1 274 32 is_stmt 0
 936 00e2 5842     		lw	a4,4(a2)
 276:C:/Users/stapi/OneDrive/Desktop/GD32VW553/V1_MQTT_OK/GD32VW55X_Wifi_BLE_SDK/GD32VW55x_RELEASE_V1.0.2/MSDK/cloud/alicloud/src/services/awss\awss_statis.c ****                     if (DROUTE_SUC > 0) {
 937              		.loc 1 276 26
 938 00e4 484A     		lw	a0,20(a2)
 275:C:/Users/stapi/OneDrive/Desktop/GD32VW553/V1_MQTT_OK/GD32VW55X_Wifi_BLE_SDK/GD32VW55x_RELEASE_V1.0.2/MSDK/cloud/alicloud/src/services/awss\awss_statis.c ****                     time = (uint32_t)(DROUTE_END - DROUTE_START);
 939              		.loc 1 275 32
 940 00e6 232C2601 		sw	s2,24(a2)
 274:C:/Users/stapi/OneDrive/Desktop/GD32VW553/V1_MQTT_OK/GD32VW55X_Wifi_BLE_SDK/GD32VW55x_RELEASE_V1.0.2/MSDK/cloud/alicloud/src/services/awss\awss_statis.c ****                     DROUTE_END = time;
 941              		.loc 1 274 32
 942 00ea 93061700 		addi	a3,a4,1
 943 00ee 54C2     		sw	a3,4(a2)
 275:C:/Users/stapi/OneDrive/Desktop/GD32VW553/V1_MQTT_OK/GD32VW55X_Wifi_BLE_SDK/GD32VW55x_RELEASE_V1.0.2/MSDK/cloud/alicloud/src/services/awss\awss_statis.c ****                     time = (uint32_t)(DROUTE_END - DROUTE_START);
 944              		.loc 1 275 21 is_stmt 1
 276:C:/Users/stapi/OneDrive/Desktop/GD32VW553/V1_MQTT_OK/GD32VW55X_Wifi_BLE_SDK/GD32VW55x_RELEASE_V1.0.2/MSDK/cloud/alicloud/src/services/awss\awss_statis.c ****                     if (DROUTE_SUC > 0) {
 945              		.loc 1 276 21
 276:C:/Users/stapi/OneDrive/Desktop/GD32VW553/V1_MQTT_OK/GD32VW55X_Wifi_BLE_SDK/GD32VW55x_RELEASE_V1.0.2/MSDK/cloud/alicloud/src/services/awss\awss_statis.c ****                     if (DROUTE_SUC > 0) {
 946              		.loc 1 276 26 is_stmt 0
 947 00f0 3309A940 		sub	s2,s2,a0
 948              	.LVL68:
 277:C:/Users/stapi/OneDrive/Desktop/GD32VW553/V1_MQTT_OK/GD32VW55X_Wifi_BLE_SDK/GD32VW55x_RELEASE_V1.0.2/MSDK/cloud/alicloud/src/services/awss\awss_statis.c ****                         DROUTE_TMEAN = (DROUTE_TMEAN + time) / (DROUTE_SUC);
 949              		.loc 1 277 21 is_stmt 1
 950 00f4 93870700 		addi	a5,a5,%lo(.LANCHOR1)
 277:C:/Users/stapi/OneDrive/Desktop/GD32VW553/V1_MQTT_OK/GD32VW55X_Wifi_BLE_SDK/GD32VW55x_RELEASE_V1.0.2/MSDK/cloud/alicloud/src/services/awss\awss_statis.c ****                         DROUTE_TMEAN = (DROUTE_TMEAN + time) / (DROUTE_SUC);
 951              		.loc 1 277 24 is_stmt 0
 952 00f8 B1C6     		beq	a3,zero,.L81
 278:C:/Users/stapi/OneDrive/Desktop/GD32VW553/V1_MQTT_OK/GD32VW55X_Wifi_BLE_SDK/GD32VW55x_RELEASE_V1.0.2/MSDK/cloud/alicloud/src/services/awss\awss_statis.c ****                     } else {
 953              		.loc 1 278 25 is_stmt 1
 278:C:/Users/stapi/OneDrive/Desktop/GD32VW553/V1_MQTT_OK/GD32VW55X_Wifi_BLE_SDK/GD32VW55x_RELEASE_V1.0.2/MSDK/cloud/alicloud/src/services/awss\awss_statis.c ****                     } else {
 954              		.loc 1 278 54 is_stmt 0
 955 00fa 9847     		lw	a4,8(a5)
 956 00fc 4A97     		add	a4,s2,a4
 278:C:/Users/stapi/OneDrive/Desktop/GD32VW553/V1_MQTT_OK/GD32VW55X_Wifi_BLE_SDK/GD32VW55x_RELEASE_V1.0.2/MSDK/cloud/alicloud/src/services/awss\awss_statis.c ****                     } else {
 957              		.loc 1 278 62
 958 00fe 3357D702 		divu	a4,a4,a3
 278:C:/Users/stapi/OneDrive/Desktop/GD32VW553/V1_MQTT_OK/GD32VW55X_Wifi_BLE_SDK/GD32VW55x_RELEASE_V1.0.2/MSDK/cloud/alicloud/src/services/awss\awss_statis.c ****                     } else {
 959              		.loc 1 278 38
 960 0102 98C7     		sw	a4,8(a5)
 961              	.L82:
 283:C:/Users/stapi/OneDrive/Desktop/GD32VW553/V1_MQTT_OK/GD32VW55X_Wifi_BLE_SDK/GD32VW55x_RELEASE_V1.0.2/MSDK/cloud/alicloud/src/services/awss\awss_statis.c ****                         DROUTE_TMIN = time;
 962              		.loc 1 283 21 is_stmt 1
 283:C:/Users/stapi/OneDrive/Desktop/GD32VW553/V1_MQTT_OK/GD32VW55X_Wifi_BLE_SDK/GD32VW55x_RELEASE_V1.0.2/MSDK/cloud/alicloud/src/services/awss\awss_statis.c ****                         DROUTE_TMIN = time;
 963              		.loc 1 283 25 is_stmt 0
 964 0104 984B     		lw	a4,16(a5)
 283:C:/Users/stapi/OneDrive/Desktop/GD32VW553/V1_MQTT_OK/GD32VW55X_Wifi_BLE_SDK/GD32VW55x_RELEASE_V1.0.2/MSDK/cloud/alicloud/src/services/awss\awss_statis.c ****                         DROUTE_TMIN = time;
 965              		.loc 1 283 24
 966 0106 19C3     		beq	a4,zero,.L83
 283:C:/Users/stapi/OneDrive/Desktop/GD32VW553/V1_MQTT_OK/GD32VW55X_Wifi_BLE_SDK/GD32VW55x_RELEASE_V1.0.2/MSDK/cloud/alicloud/src/services/awss\awss_statis.c ****                         DROUTE_TMIN = time;
 967              		.loc 1 283 42 discriminator 1
 968 0108 6374E900 		bleu	a4,s2,.L84
 969              	.L83:
 284:C:/Users/stapi/OneDrive/Desktop/GD32VW553/V1_MQTT_OK/GD32VW55X_Wifi_BLE_SDK/GD32VW55x_RELEASE_V1.0.2/MSDK/cloud/alicloud/src/services/awss\awss_statis.c ****                     if (DROUTE_TMAX == 0 || DROUTE_TMAX < time)
 970              		.loc 1 284 25 is_stmt 1
 284:C:/Users/stapi/OneDrive/Desktop/GD32VW553/V1_MQTT_OK/GD32VW55X_Wifi_BLE_SDK/GD32VW55x_RELEASE_V1.0.2/MSDK/cloud/alicloud/src/services/awss\awss_statis.c ****                     if (DROUTE_TMAX == 0 || DROUTE_TMAX < time)
 971              		.loc 1 284 37 is_stmt 0
 972 010c 23A82701 		sw	s2,16(a5)
 973              	.L84:
 285:C:/Users/stapi/OneDrive/Desktop/GD32VW553/V1_MQTT_OK/GD32VW55X_Wifi_BLE_SDK/GD32VW55x_RELEASE_V1.0.2/MSDK/cloud/alicloud/src/services/awss\awss_statis.c ****                         DROUTE_TMAX = time;
 974              		.loc 1 285 21 is_stmt 1
 285:C:/Users/stapi/OneDrive/Desktop/GD32VW553/V1_MQTT_OK/GD32VW55X_Wifi_BLE_SDK/GD32VW55x_RELEASE_V1.0.2/MSDK/cloud/alicloud/src/services/awss\awss_statis.c ****                         DROUTE_TMAX = time;
 975              		.loc 1 285 25 is_stmt 0
 976 0110 D847     		lw	a4,12(a5)
 285:C:/Users/stapi/OneDrive/Desktop/GD32VW553/V1_MQTT_OK/GD32VW55X_Wifi_BLE_SDK/GD32VW55x_RELEASE_V1.0.2/MSDK/cloud/alicloud/src/services/awss\awss_statis.c ****                         DROUTE_TMAX = time;
 977              		.loc 1 285 24
 978 0112 19C3     		beq	a4,zero,.L85
 285:C:/Users/stapi/OneDrive/Desktop/GD32VW553/V1_MQTT_OK/GD32VW55X_Wifi_BLE_SDK/GD32VW55x_RELEASE_V1.0.2/MSDK/cloud/alicloud/src/services/awss\awss_statis.c ****                         DROUTE_TMAX = time;
 979              		.loc 1 285 42 discriminator 1
 980 0114 E37F27F7 		bgeu	a4,s2,.L75
 981              	.L85:
 286:C:/Users/stapi/OneDrive/Desktop/GD32VW553/V1_MQTT_OK/GD32VW55X_Wifi_BLE_SDK/GD32VW55x_RELEASE_V1.0.2/MSDK/cloud/alicloud/src/services/awss\awss_statis.c ****                     break;
 982              		.loc 1 286 25 is_stmt 1
 286:C:/Users/stapi/OneDrive/Desktop/GD32VW553/V1_MQTT_OK/GD32VW55X_Wifi_BLE_SDK/GD32VW55x_RELEASE_V1.0.2/MSDK/cloud/alicloud/src/services/awss\awss_statis.c ****                     break;
 983              		.loc 1 286 37 is_stmt 0
 984 0118 23A62701 		sw	s2,12(a5)
 985 011c 9DBF     		j	.L75
 986              	.L77:
 266:C:/Users/stapi/OneDrive/Desktop/GD32VW553/V1_MQTT_OK/GD32VW55X_Wifi_BLE_SDK/GD32VW55x_RELEASE_V1.0.2/MSDK/cloud/alicloud/src/services/awss\awss_statis.c ****         case AWSS_STATIS_CONN_ROUTER_IDX:
 987              		.loc 1 266 5
 988 011e 1147     		li	a4,4
 989 0120 6386E40A 		beq	s1,a4,.L79
 990 0124 1947     		li	a4,6
 991 0126 E396E4F6 		bne	s1,a4,.L75
 445:C:/Users/stapi/OneDrive/Desktop/GD32VW553/V1_MQTT_OK/GD32VW55X_Wifi_BLE_SDK/GD32VW55x_RELEASE_V1.0.2/MSDK/cloud/alicloud/src/services/awss\awss_statis.c ****                 case AWSS_STATIS_TYPE_TIME_START:
 992              		.loc 1 445 13 is_stmt 1
 993 012a 6304F410 		beq	s0,a5,.L103
 994 012e 8947     		li	a5,2
 995 0130 E311F4F6 		bne	s0,a5,.L75
 453:C:/Users/stapi/OneDrive/Desktop/GD32VW553/V1_MQTT_OK/GD32VW55X_Wifi_BLE_SDK/GD32VW55x_RELEASE_V1.0.2/MSDK/cloud/alicloud/src/services/awss\awss_statis.c ****                     break;
 996              		.loc 1 453 21
 453:C:/Users/stapi/OneDrive/Desktop/GD32VW553/V1_MQTT_OK/GD32VW55X_Wifi_BLE_SDK/GD32VW55x_RELEASE_V1.0.2/MSDK/cloud/alicloud/src/services/awss\awss_statis.c ****                     break;
 997              		.loc 1 453 31 is_stmt 0
 998 0134 B7070000 		lui	a5,%hi(.LANCHOR1)
 999 0138 93870700 		addi	a5,a5,%lo(.LANCHOR1)
 1000 013c B857     		lw	a4,104(a5)
 1001 013e 0507     		addi	a4,a4,1
 1002 0140 B8D7     		sw	a4,104(a5)
 454:C:/Users/stapi/OneDrive/Desktop/GD32VW553/V1_MQTT_OK/GD32VW55X_Wifi_BLE_SDK/GD32VW55x_RELEASE_V1.0.2/MSDK/cloud/alicloud/src/services/awss\awss_statis.c ****                 default:
 1003              		.loc 1 454 21 is_stmt 1
 1004 0142 81BF     		j	.L75
 1005              	.L81:
 280:C:/Users/stapi/OneDrive/Desktop/GD32VW553/V1_MQTT_OK/GD32VW55X_Wifi_BLE_SDK/GD32VW55x_RELEASE_V1.0.2/MSDK/cloud/alicloud/src/services/awss\awss_statis.c ****                         DROUTE_SUC = 1;
 1006              		.loc 1 280 25
 280:C:/Users/stapi/OneDrive/Desktop/GD32VW553/V1_MQTT_OK/GD32VW55X_Wifi_BLE_SDK/GD32VW55x_RELEASE_V1.0.2/MSDK/cloud/alicloud/src/services/awss\awss_statis.c ****                         DROUTE_SUC = 1;
 1007              		.loc 1 280 38 is_stmt 0
 1008 0144 23A42701 		sw	s2,8(a5)
 281:C:/Users/stapi/OneDrive/Desktop/GD32VW553/V1_MQTT_OK/GD32VW55X_Wifi_BLE_SDK/GD32VW55x_RELEASE_V1.0.2/MSDK/cloud/alicloud/src/services/awss\awss_statis.c ****                     }
 1009              		.loc 1 281 25 is_stmt 1
 281:C:/Users/stapi/OneDrive/Desktop/GD32VW553/V1_MQTT_OK/GD32VW55X_Wifi_BLE_SDK/GD32VW55x_RELEASE_V1.0.2/MSDK/cloud/alicloud/src/services/awss\awss_statis.c ****                     }
 1010              		.loc 1 281 36 is_stmt 0
 1011 0148 C0C3     		sw	s0,4(a5)
 1012 014a 6DBF     		j	.L82
 1013              	.L76:
 314:C:/Users/stapi/OneDrive/Desktop/GD32VW553/V1_MQTT_OK/GD32VW55X_Wifi_BLE_SDK/GD32VW55x_RELEASE_V1.0.2/MSDK/cloud/alicloud/src/services/awss\awss_statis.c ****                 case AWSS_STATIS_TYPE_TIME_START:
 1014              		.loc 1 314 13 is_stmt 1
 1015 014c 8947     		li	a5,2
 1016 014e 6307F406 		beq	s0,a5,.L86
 1017 0152 63C68704 		bgt	s0,a5,.L87
 1018 0156 E31E94F2 		bne	s0,s1,.L75
 320:C:/Users/stapi/OneDrive/Desktop/GD32VW553/V1_MQTT_OK/GD32VW55X_Wifi_BLE_SDK/GD32VW55x_RELEASE_V1.0.2/MSDK/cloud/alicloud/src/services/awss\awss_statis.c ****                     SM_END = time;
 1019              		.loc 1 320 21
 1020 015a B7070000 		lui	a5,%hi(.LANCHOR1)
 1021 015e 13860700 		addi	a2,a5,%lo(.LANCHOR1)
 320:C:/Users/stapi/OneDrive/Desktop/GD32VW553/V1_MQTT_OK/GD32VW55X_Wifi_BLE_SDK/GD32VW55x_RELEASE_V1.0.2/MSDK/cloud/alicloud/src/services/awss\awss_statis.c ****                     SM_END = time;
 1022              		.loc 1 320 28 is_stmt 0
 1023 0162 1856     		lw	a4,40(a2)
 322:C:/Users/stapi/OneDrive/Desktop/GD32VW553/V1_MQTT_OK/GD32VW55X_Wifi_BLE_SDK/GD32VW55x_RELEASE_V1.0.2/MSDK/cloud/alicloud/src/services/awss\awss_statis.c ****                     if (SM_SUC > 0) {
 1024              		.loc 1 322 26
 1025 0164 4856     		lw	a0,44(a2)
 321:C:/Users/stapi/OneDrive/Desktop/GD32VW553/V1_MQTT_OK/GD32VW55X_Wifi_BLE_SDK/GD32VW55x_RELEASE_V1.0.2/MSDK/cloud/alicloud/src/services/awss\awss_statis.c ****                     time = (uint32_t)(SM_END - SM_START);
 1026              		.loc 1 321 28
 1027 0166 23282603 		sw	s2,48(a2)
 320:C:/Users/stapi/OneDrive/Desktop/GD32VW553/V1_MQTT_OK/GD32VW55X_Wifi_BLE_SDK/GD32VW55x_RELEASE_V1.0.2/MSDK/cloud/alicloud/src/services/awss\awss_statis.c ****                     SM_END = time;
 1028              		.loc 1 320 28
 1029 016a 93061700 		addi	a3,a4,1
 1030 016e 14D6     		sw	a3,40(a2)
 321:C:/Users/stapi/OneDrive/Desktop/GD32VW553/V1_MQTT_OK/GD32VW55X_Wifi_BLE_SDK/GD32VW55x_RELEASE_V1.0.2/MSDK/cloud/alicloud/src/services/awss\awss_statis.c ****                     time = (uint32_t)(SM_END - SM_START);
 1031              		.loc 1 321 21 is_stmt 1
 322:C:/Users/stapi/OneDrive/Desktop/GD32VW553/V1_MQTT_OK/GD32VW55X_Wifi_BLE_SDK/GD32VW55x_RELEASE_V1.0.2/MSDK/cloud/alicloud/src/services/awss\awss_statis.c ****                     if (SM_SUC > 0) {
 1032              		.loc 1 322 21
 322:C:/Users/stapi/OneDrive/Desktop/GD32VW553/V1_MQTT_OK/GD32VW55X_Wifi_BLE_SDK/GD32VW55x_RELEASE_V1.0.2/MSDK/cloud/alicloud/src/services/awss\awss_statis.c ****                     if (SM_SUC > 0) {
 1033              		.loc 1 322 26 is_stmt 0
 1034 0170 3309A940 		sub	s2,s2,a0
 1035              	.LVL69:
 323:C:/Users/stapi/OneDrive/Desktop/GD32VW553/V1_MQTT_OK/GD32VW55X_Wifi_BLE_SDK/GD32VW55x_RELEASE_V1.0.2/MSDK/cloud/alicloud/src/services/awss\awss_statis.c ****                         SM_TMEAN = (SM_TMEAN + time) / (SM_SUC);
 1036              		.loc 1 323 21 is_stmt 1
 1037 0174 93870700 		addi	a5,a5,%lo(.LANCHOR1)
 323:C:/Users/stapi/OneDrive/Desktop/GD32VW553/V1_MQTT_OK/GD32VW55X_Wifi_BLE_SDK/GD32VW55x_RELEASE_V1.0.2/MSDK/cloud/alicloud/src/services/awss\awss_statis.c ****                         SM_TMEAN = (SM_TMEAN + time) / (SM_SUC);
 1038              		.loc 1 323 24 is_stmt 0
 1039 0178 95CE     		beq	a3,zero,.L90
 324:C:/Users/stapi/OneDrive/Desktop/GD32VW553/V1_MQTT_OK/GD32VW55X_Wifi_BLE_SDK/GD32VW55x_RELEASE_V1.0.2/MSDK/cloud/alicloud/src/services/awss\awss_statis.c ****                     } else {
 1040              		.loc 1 324 25 is_stmt 1
 324:C:/Users/stapi/OneDrive/Desktop/GD32VW553/V1_MQTT_OK/GD32VW55X_Wifi_BLE_SDK/GD32VW55x_RELEASE_V1.0.2/MSDK/cloud/alicloud/src/services/awss\awss_statis.c ****                     } else {
 1041              		.loc 1 324 46 is_stmt 0
 1042 017a D85B     		lw	a4,52(a5)
 1043 017c 4A97     		add	a4,s2,a4
 324:C:/Users/stapi/OneDrive/Desktop/GD32VW553/V1_MQTT_OK/GD32VW55X_Wifi_BLE_SDK/GD32VW55x_RELEASE_V1.0.2/MSDK/cloud/alicloud/src/services/awss\awss_statis.c ****                     } else {
 1044              		.loc 1 324 54
 1045 017e 3357D702 		divu	a4,a4,a3
 324:C:/Users/stapi/OneDrive/Desktop/GD32VW553/V1_MQTT_OK/GD32VW55X_Wifi_BLE_SDK/GD32VW55x_RELEASE_V1.0.2/MSDK/cloud/alicloud/src/services/awss\awss_statis.c ****                     } else {
 1046              		.loc 1 324 34
 1047 0182 D8DB     		sw	a4,52(a5)
 1048              	.L91:
 330:C:/Users/stapi/OneDrive/Desktop/GD32VW553/V1_MQTT_OK/GD32VW55X_Wifi_BLE_SDK/GD32VW55x_RELEASE_V1.0.2/MSDK/cloud/alicloud/src/services/awss\awss_statis.c ****                         SM_TMIN = time;
 1049              		.loc 1 330 21 is_stmt 1
 330:C:/Users/stapi/OneDrive/Desktop/GD32VW553/V1_MQTT_OK/GD32VW55X_Wifi_BLE_SDK/GD32VW55x_RELEASE_V1.0.2/MSDK/cloud/alicloud/src/services/awss\awss_statis.c ****                         SM_TMIN = time;
 1050              		.loc 1 330 25 is_stmt 0
 1051 0184 D85F     		lw	a4,60(a5)
 330:C:/Users/stapi/OneDrive/Desktop/GD32VW553/V1_MQTT_OK/GD32VW55X_Wifi_BLE_SDK/GD32VW55x_RELEASE_V1.0.2/MSDK/cloud/alicloud/src/services/awss\awss_statis.c ****                         SM_TMIN = time;
 1052              		.loc 1 330 24
 1053 0186 19C3     		beq	a4,zero,.L92
 330:C:/Users/stapi/OneDrive/Desktop/GD32VW553/V1_MQTT_OK/GD32VW55X_Wifi_BLE_SDK/GD32VW55x_RELEASE_V1.0.2/MSDK/cloud/alicloud/src/services/awss\awss_statis.c ****                         SM_TMIN = time;
 1054              		.loc 1 330 38 discriminator 1
 1055 0188 6374E900 		bleu	a4,s2,.L93
 1056              	.L92:
 331:C:/Users/stapi/OneDrive/Desktop/GD32VW553/V1_MQTT_OK/GD32VW55X_Wifi_BLE_SDK/GD32VW55x_RELEASE_V1.0.2/MSDK/cloud/alicloud/src/services/awss\awss_statis.c ****                     if (SM_TMAX == 0 || SM_TMAX < time)
 1057              		.loc 1 331 25 is_stmt 1
 331:C:/Users/stapi/OneDrive/Desktop/GD32VW553/V1_MQTT_OK/GD32VW55X_Wifi_BLE_SDK/GD32VW55x_RELEASE_V1.0.2/MSDK/cloud/alicloud/src/services/awss\awss_statis.c ****                     if (SM_TMAX == 0 || SM_TMAX < time)
 1058              		.loc 1 331 33 is_stmt 0
 1059 018c 23AE2703 		sw	s2,60(a5)
 1060              	.L93:
 332:C:/Users/stapi/OneDrive/Desktop/GD32VW553/V1_MQTT_OK/GD32VW55X_Wifi_BLE_SDK/GD32VW55x_RELEASE_V1.0.2/MSDK/cloud/alicloud/src/services/awss\awss_statis.c ****                         SM_TMAX = time;
 1061              		.loc 1 332 21 is_stmt 1
 332:C:/Users/stapi/OneDrive/Desktop/GD32VW553/V1_MQTT_OK/GD32VW55X_Wifi_BLE_SDK/GD32VW55x_RELEASE_V1.0.2/MSDK/cloud/alicloud/src/services/awss\awss_statis.c ****                         SM_TMAX = time;
 1062              		.loc 1 332 25 is_stmt 0
 1063 0190 985F     		lw	a4,56(a5)
 332:C:/Users/stapi/OneDrive/Desktop/GD32VW553/V1_MQTT_OK/GD32VW55X_Wifi_BLE_SDK/GD32VW55x_RELEASE_V1.0.2/MSDK/cloud/alicloud/src/services/awss\awss_statis.c ****                         SM_TMAX = time;
 1064              		.loc 1 332 24
 1065 0192 19C3     		beq	a4,zero,.L94
 332:C:/Users/stapi/OneDrive/Desktop/GD32VW553/V1_MQTT_OK/GD32VW55X_Wifi_BLE_SDK/GD32VW55x_RELEASE_V1.0.2/MSDK/cloud/alicloud/src/services/awss\awss_statis.c ****                         SM_TMAX = time;
 1066              		.loc 1 332 38 discriminator 1
 1067 0194 E37F27EF 		bgeu	a4,s2,.L75
 1068              	.L94:
 333:C:/Users/stapi/OneDrive/Desktop/GD32VW553/V1_MQTT_OK/GD32VW55X_Wifi_BLE_SDK/GD32VW55x_RELEASE_V1.0.2/MSDK/cloud/alicloud/src/services/awss\awss_statis.c ****                     break;
 1069              		.loc 1 333 25 is_stmt 1
 333:C:/Users/stapi/OneDrive/Desktop/GD32VW553/V1_MQTT_OK/GD32VW55X_Wifi_BLE_SDK/GD32VW55x_RELEASE_V1.0.2/MSDK/cloud/alicloud/src/services/awss\awss_statis.c ****                     break;
 1070              		.loc 1 333 33 is_stmt 0
 1071 0198 23AC2703 		sw	s2,56(a5)
 1072 019c DDBD     		j	.L75
 1073              	.L87:
 1074 019e 8D47     		li	a5,3
 1075 01a0 E319F4EE 		bne	s0,a5,.L75
 339:C:/Users/stapi/OneDrive/Desktop/GD32VW553/V1_MQTT_OK/GD32VW55X_Wifi_BLE_SDK/GD32VW55x_RELEASE_V1.0.2/MSDK/cloud/alicloud/src/services/awss\awss_statis.c ****                     break;
 1076              		.loc 1 339 21 is_stmt 1
 339:C:/Users/stapi/OneDrive/Desktop/GD32VW553/V1_MQTT_OK/GD32VW55X_Wifi_BLE_SDK/GD32VW55x_RELEASE_V1.0.2/MSDK/cloud/alicloud/src/services/awss\awss_statis.c ****                     break;
 1077              		.loc 1 339 32 is_stmt 0
 1078 01a4 B7070000 		lui	a5,%hi(.LANCHOR1)
 1079 01a8 93870700 		addi	a5,a5,%lo(.LANCHOR1)
 1080 01ac 9853     		lw	a4,32(a5)
 1081 01ae 0507     		addi	a4,a4,1
 1082 01b0 98D3     		sw	a4,32(a5)
 340:C:/Users/stapi/OneDrive/Desktop/GD32VW553/V1_MQTT_OK/GD32VW55X_Wifi_BLE_SDK/GD32VW55x_RELEASE_V1.0.2/MSDK/cloud/alicloud/src/services/awss\awss_statis.c ****                 default:
 1083              		.loc 1 340 21 is_stmt 1
 1084 01b2 C5B5     		j	.L75
 1085              	.L90:
 326:C:/Users/stapi/OneDrive/Desktop/GD32VW553/V1_MQTT_OK/GD32VW55X_Wifi_BLE_SDK/GD32VW55x_RELEASE_V1.0.2/MSDK/cloud/alicloud/src/services/awss\awss_statis.c ****                         SM_SUC = 1;
 1086              		.loc 1 326 25
 326:C:/Users/stapi/OneDrive/Desktop/GD32VW553/V1_MQTT_OK/GD32VW55X_Wifi_BLE_SDK/GD32VW55x_RELEASE_V1.0.2/MSDK/cloud/alicloud/src/services/awss\awss_statis.c ****                         SM_SUC = 1;
 1087              		.loc 1 326 34 is_stmt 0
 1088 01b4 23AA2703 		sw	s2,52(a5)
 327:C:/Users/stapi/OneDrive/Desktop/GD32VW553/V1_MQTT_OK/GD32VW55X_Wifi_BLE_SDK/GD32VW55x_RELEASE_V1.0.2/MSDK/cloud/alicloud/src/services/awss\awss_statis.c ****                     }
 1089              		.loc 1 327 25 is_stmt 1
 327:C:/Users/stapi/OneDrive/Desktop/GD32VW553/V1_MQTT_OK/GD32VW55X_Wifi_BLE_SDK/GD32VW55x_RELEASE_V1.0.2/MSDK/cloud/alicloud/src/services/awss\awss_statis.c ****                     }
 1090              		.loc 1 327 32 is_stmt 0
 1091 01b8 80D7     		sw	s0,40(a5)
 1092 01ba E9B7     		j	.L91
 1093              	.L86:
 336:C:/Users/stapi/OneDrive/Desktop/GD32VW553/V1_MQTT_OK/GD32VW55X_Wifi_BLE_SDK/GD32VW55x_RELEASE_V1.0.2/MSDK/cloud/alicloud/src/services/awss\awss_statis.c ****                     break;
 1094              		.loc 1 336 21 is_stmt 1
 336:C:/Users/stapi/OneDrive/Desktop/GD32VW553/V1_MQTT_OK/GD32VW55X_Wifi_BLE_SDK/GD32VW55x_RELEASE_V1.0.2/MSDK/cloud/alicloud/src/services/awss\awss_statis.c ****                     break;
 1095              		.loc 1 336 31 is_stmt 0
 1096 01bc B7070000 		lui	a5,%hi(.LANCHOR1)
 1097 01c0 93870700 		addi	a5,a5,%lo(.LANCHOR1)
 1098 01c4 D853     		lw	a4,36(a5)
 1099 01c6 0507     		addi	a4,a4,1
 1100 01c8 D8D3     		sw	a4,36(a5)
 337:C:/Users/stapi/OneDrive/Desktop/GD32VW553/V1_MQTT_OK/GD32VW55X_Wifi_BLE_SDK/GD32VW55x_RELEASE_V1.0.2/MSDK/cloud/alicloud/src/services/awss\awss_statis.c ****                 case AWSS_STATIS_TYPE_CRC_ERR:
 1101              		.loc 1 337 21 is_stmt 1
 1102 01ca E1B5     		j	.L75
 1103              	.L79:
 387:C:/Users/stapi/OneDrive/Desktop/GD32VW553/V1_MQTT_OK/GD32VW55X_Wifi_BLE_SDK/GD32VW55x_RELEASE_V1.0.2/MSDK/cloud/alicloud/src/services/awss\awss_statis.c ****                 case AWSS_STATIS_TYPE_TIME_START:
 1104              		.loc 1 387 13
 1105 01cc 630DF400 		beq	s0,a5,.L96
 1106 01d0 8947     		li	a5,2
 1107 01d2 E310F4EC 		bne	s0,a5,.L75
 408:C:/Users/stapi/OneDrive/Desktop/GD32VW553/V1_MQTT_OK/GD32VW55X_Wifi_BLE_SDK/GD32VW55x_RELEASE_V1.0.2/MSDK/cloud/alicloud/src/services/awss\awss_statis.c ****                     break;
 1108              		.loc 1 408 21
 408:C:/Users/stapi/OneDrive/Desktop/GD32VW553/V1_MQTT_OK/GD32VW55X_Wifi_BLE_SDK/GD32VW55x_RELEASE_V1.0.2/MSDK/cloud/alicloud/src/services/awss\awss_statis.c ****                     break;
 1109              		.loc 1 408 32 is_stmt 0
 1110 01d6 B7070000 		lui	a5,%hi(.LANCHOR1)
 1111 01da 93870700 		addi	a5,a5,%lo(.LANCHOR1)
 1112 01de F84F     		lw	a4,92(a5)
 1113 01e0 0507     		addi	a4,a4,1
 1114 01e2 F8CF     		sw	a4,92(a5)
 409:C:/Users/stapi/OneDrive/Desktop/GD32VW553/V1_MQTT_OK/GD32VW55X_Wifi_BLE_SDK/GD32VW55x_RELEASE_V1.0.2/MSDK/cloud/alicloud/src/services/awss\awss_statis.c ****                 default:
 1115              		.loc 1 409 21 is_stmt 1
 1116 01e4 7DB5     		j	.L75
 1117              	.L96:
 393:C:/Users/stapi/OneDrive/Desktop/GD32VW553/V1_MQTT_OK/GD32VW55X_Wifi_BLE_SDK/GD32VW55x_RELEASE_V1.0.2/MSDK/cloud/alicloud/src/services/awss\awss_statis.c ****                     DAP_END = time;
 1118              		.loc 1 393 21
 1119 01e6 B7070000 		lui	a5,%hi(.LANCHOR1)
 1120 01ea 13860700 		addi	a2,a5,%lo(.LANCHOR1)
 393:C:/Users/stapi/OneDrive/Desktop/GD32VW553/V1_MQTT_OK/GD32VW55X_Wifi_BLE_SDK/GD32VW55x_RELEASE_V1.0.2/MSDK/cloud/alicloud/src/services/awss\awss_statis.c ****                     DAP_END = time;
 1121              		.loc 1 393 29 is_stmt 0
 1122 01ee 7842     		lw	a4,68(a2)
 395:C:/Users/stapi/OneDrive/Desktop/GD32VW553/V1_MQTT_OK/GD32VW55X_Wifi_BLE_SDK/GD32VW55x_RELEASE_V1.0.2/MSDK/cloud/alicloud/src/services/awss\awss_statis.c ****                     if (DAP_SUC > 0) {
 1123              		.loc 1 395 26
 1124 01f0 684A     		lw	a0,84(a2)
 394:C:/Users/stapi/OneDrive/Desktop/GD32VW553/V1_MQTT_OK/GD32VW55X_Wifi_BLE_SDK/GD32VW55x_RELEASE_V1.0.2/MSDK/cloud/alicloud/src/services/awss\awss_statis.c ****                     time = (uint32_t)(DAP_END - DAP_START);
 1125              		.loc 1 394 29
 1126 01f2 232C2605 		sw	s2,88(a2)
 393:C:/Users/stapi/OneDrive/Desktop/GD32VW553/V1_MQTT_OK/GD32VW55X_Wifi_BLE_SDK/GD32VW55x_RELEASE_V1.0.2/MSDK/cloud/alicloud/src/services/awss\awss_statis.c ****                     DAP_END = time;
 1127              		.loc 1 393 29
 1128 01f6 93061700 		addi	a3,a4,1
 1129 01fa 74C2     		sw	a3,68(a2)
 394:C:/Users/stapi/OneDrive/Desktop/GD32VW553/V1_MQTT_OK/GD32VW55X_Wifi_BLE_SDK/GD32VW55x_RELEASE_V1.0.2/MSDK/cloud/alicloud/src/services/awss\awss_statis.c ****                     time = (uint32_t)(DAP_END - DAP_START);
 1130              		.loc 1 394 21 is_stmt 1
 395:C:/Users/stapi/OneDrive/Desktop/GD32VW553/V1_MQTT_OK/GD32VW55X_Wifi_BLE_SDK/GD32VW55x_RELEASE_V1.0.2/MSDK/cloud/alicloud/src/services/awss\awss_statis.c ****                     if (DAP_SUC > 0) {
 1131              		.loc 1 395 21
 395:C:/Users/stapi/OneDrive/Desktop/GD32VW553/V1_MQTT_OK/GD32VW55X_Wifi_BLE_SDK/GD32VW55x_RELEASE_V1.0.2/MSDK/cloud/alicloud/src/services/awss\awss_statis.c ****                     if (DAP_SUC > 0) {
 1132              		.loc 1 395 26 is_stmt 0
 1133 01fc 3309A940 		sub	s2,s2,a0
 1134              	.LVL70:
 396:C:/Users/stapi/OneDrive/Desktop/GD32VW553/V1_MQTT_OK/GD32VW55X_Wifi_BLE_SDK/GD32VW55x_RELEASE_V1.0.2/MSDK/cloud/alicloud/src/services/awss\awss_statis.c ****                         DAP_TMEAN = (DAP_TMEAN + time) / (DAP_SUC);
 1135              		.loc 1 396 21 is_stmt 1
 1136 0200 93870700 		addi	a5,a5,%lo(.LANCHOR1)
 396:C:/Users/stapi/OneDrive/Desktop/GD32VW553/V1_MQTT_OK/GD32VW55X_Wifi_BLE_SDK/GD32VW55x_RELEASE_V1.0.2/MSDK/cloud/alicloud/src/services/awss\awss_statis.c ****                         DAP_TMEAN = (DAP_TMEAN + time) / (DAP_SUC);
 1137              		.loc 1 396 24 is_stmt 0
 1138 0204 9DC2     		beq	a3,zero,.L98
 397:C:/Users/stapi/OneDrive/Desktop/GD32VW553/V1_MQTT_OK/GD32VW55X_Wifi_BLE_SDK/GD32VW55x_RELEASE_V1.0.2/MSDK/cloud/alicloud/src/services/awss\awss_statis.c ****                     } else {
 1139              		.loc 1 397 25 is_stmt 1
 397:C:/Users/stapi/OneDrive/Desktop/GD32VW553/V1_MQTT_OK/GD32VW55X_Wifi_BLE_SDK/GD32VW55x_RELEASE_V1.0.2/MSDK/cloud/alicloud/src/services/awss\awss_statis.c ****                     } else {
 1140              		.loc 1 397 48 is_stmt 0
 1141 0206 B847     		lw	a4,72(a5)
 1142 0208 4A97     		add	a4,s2,a4
 397:C:/Users/stapi/OneDrive/Desktop/GD32VW553/V1_MQTT_OK/GD32VW55X_Wifi_BLE_SDK/GD32VW55x_RELEASE_V1.0.2/MSDK/cloud/alicloud/src/services/awss\awss_statis.c ****                     } else {
 1143              		.loc 1 397 56
 1144 020a 3357D702 		divu	a4,a4,a3
 397:C:/Users/stapi/OneDrive/Desktop/GD32VW553/V1_MQTT_OK/GD32VW55X_Wifi_BLE_SDK/GD32VW55x_RELEASE_V1.0.2/MSDK/cloud/alicloud/src/services/awss\awss_statis.c ****                     } else {
 1145              		.loc 1 397 35
 1146 020e B8C7     		sw	a4,72(a5)
 1147              	.L99:
 402:C:/Users/stapi/OneDrive/Desktop/GD32VW553/V1_MQTT_OK/GD32VW55X_Wifi_BLE_SDK/GD32VW55x_RELEASE_V1.0.2/MSDK/cloud/alicloud/src/services/awss\awss_statis.c ****                         DAP_TMIN = time;
 1148              		.loc 1 402 21 is_stmt 1
 402:C:/Users/stapi/OneDrive/Desktop/GD32VW553/V1_MQTT_OK/GD32VW55X_Wifi_BLE_SDK/GD32VW55x_RELEASE_V1.0.2/MSDK/cloud/alicloud/src/services/awss\awss_statis.c ****                         DAP_TMIN = time;
 1149              		.loc 1 402 25 is_stmt 0
 1150 0210 B84B     		lw	a4,80(a5)
 402:C:/Users/stapi/OneDrive/Desktop/GD32VW553/V1_MQTT_OK/GD32VW55X_Wifi_BLE_SDK/GD32VW55x_RELEASE_V1.0.2/MSDK/cloud/alicloud/src/services/awss\awss_statis.c ****                         DAP_TMIN = time;
 1151              		.loc 1 402 24
 1152 0212 19C3     		beq	a4,zero,.L100
 402:C:/Users/stapi/OneDrive/Desktop/GD32VW553/V1_MQTT_OK/GD32VW55X_Wifi_BLE_SDK/GD32VW55x_RELEASE_V1.0.2/MSDK/cloud/alicloud/src/services/awss\awss_statis.c ****                         DAP_TMIN = time;
 1153              		.loc 1 402 39 discriminator 1
 1154 0214 6374E900 		bleu	a4,s2,.L101
 1155              	.L100:
 403:C:/Users/stapi/OneDrive/Desktop/GD32VW553/V1_MQTT_OK/GD32VW55X_Wifi_BLE_SDK/GD32VW55x_RELEASE_V1.0.2/MSDK/cloud/alicloud/src/services/awss\awss_statis.c ****                     if (DAP_TMAX == 0 || DAP_TMAX < time)
 1156              		.loc 1 403 25 is_stmt 1
 403:C:/Users/stapi/OneDrive/Desktop/GD32VW553/V1_MQTT_OK/GD32VW55X_Wifi_BLE_SDK/GD32VW55x_RELEASE_V1.0.2/MSDK/cloud/alicloud/src/services/awss\awss_statis.c ****                     if (DAP_TMAX == 0 || DAP_TMAX < time)
 1157              		.loc 1 403 34 is_stmt 0
 1158 0218 23A82705 		sw	s2,80(a5)
 1159              	.L101:
 404:C:/Users/stapi/OneDrive/Desktop/GD32VW553/V1_MQTT_OK/GD32VW55X_Wifi_BLE_SDK/GD32VW55x_RELEASE_V1.0.2/MSDK/cloud/alicloud/src/services/awss\awss_statis.c ****                         DAP_TMAX = time;
 1160              		.loc 1 404 21 is_stmt 1
 404:C:/Users/stapi/OneDrive/Desktop/GD32VW553/V1_MQTT_OK/GD32VW55X_Wifi_BLE_SDK/GD32VW55x_RELEASE_V1.0.2/MSDK/cloud/alicloud/src/services/awss\awss_statis.c ****                         DAP_TMAX = time;
 1161              		.loc 1 404 25 is_stmt 0
 1162 021c F847     		lw	a4,76(a5)
 404:C:/Users/stapi/OneDrive/Desktop/GD32VW553/V1_MQTT_OK/GD32VW55X_Wifi_BLE_SDK/GD32VW55x_RELEASE_V1.0.2/MSDK/cloud/alicloud/src/services/awss\awss_statis.c ****                         DAP_TMAX = time;
 1163              		.loc 1 404 24
 1164 021e 19C3     		beq	a4,zero,.L102
 404:C:/Users/stapi/OneDrive/Desktop/GD32VW553/V1_MQTT_OK/GD32VW55X_Wifi_BLE_SDK/GD32VW55x_RELEASE_V1.0.2/MSDK/cloud/alicloud/src/services/awss\awss_statis.c ****                         DAP_TMAX = time;
 1165              		.loc 1 404 39 discriminator 1
 1166 0220 E37927E7 		bgeu	a4,s2,.L75
 1167              	.L102:
 405:C:/Users/stapi/OneDrive/Desktop/GD32VW553/V1_MQTT_OK/GD32VW55X_Wifi_BLE_SDK/GD32VW55x_RELEASE_V1.0.2/MSDK/cloud/alicloud/src/services/awss\awss_statis.c ****                     break;
 1168              		.loc 1 405 25 is_stmt 1
 405:C:/Users/stapi/OneDrive/Desktop/GD32VW553/V1_MQTT_OK/GD32VW55X_Wifi_BLE_SDK/GD32VW55x_RELEASE_V1.0.2/MSDK/cloud/alicloud/src/services/awss\awss_statis.c ****                     break;
 1169              		.loc 1 405 34 is_stmt 0
 1170 0224 23A62705 		sw	s2,76(a5)
 1171 0228 ADB5     		j	.L75
 1172              	.L98:
 399:C:/Users/stapi/OneDrive/Desktop/GD32VW553/V1_MQTT_OK/GD32VW55X_Wifi_BLE_SDK/GD32VW55x_RELEASE_V1.0.2/MSDK/cloud/alicloud/src/services/awss\awss_statis.c ****                         DAP_SUC = 1;
 1173              		.loc 1 399 25 is_stmt 1
 399:C:/Users/stapi/OneDrive/Desktop/GD32VW553/V1_MQTT_OK/GD32VW55X_Wifi_BLE_SDK/GD32VW55x_RELEASE_V1.0.2/MSDK/cloud/alicloud/src/services/awss\awss_statis.c ****                         DAP_SUC = 1;
 1174              		.loc 1 399 35 is_stmt 0
 1175 022a 23A42705 		sw	s2,72(a5)
 400:C:/Users/stapi/OneDrive/Desktop/GD32VW553/V1_MQTT_OK/GD32VW55X_Wifi_BLE_SDK/GD32VW55x_RELEASE_V1.0.2/MSDK/cloud/alicloud/src/services/awss\awss_statis.c ****                     }
 1176              		.loc 1 400 25 is_stmt 1
 400:C:/Users/stapi/OneDrive/Desktop/GD32VW553/V1_MQTT_OK/GD32VW55X_Wifi_BLE_SDK/GD32VW55x_RELEASE_V1.0.2/MSDK/cloud/alicloud/src/services/awss\awss_statis.c ****                     }
 1177              		.loc 1 400 33 is_stmt 0
 1178 022e E0C3     		sw	s0,68(a5)
 1179 0230 C5B7     		j	.L99
 1180              	.L103:
 450:C:/Users/stapi/OneDrive/Desktop/GD32VW553/V1_MQTT_OK/GD32VW55X_Wifi_BLE_SDK/GD32VW55x_RELEASE_V1.0.2/MSDK/cloud/alicloud/src/services/awss\awss_statis.c ****                     break;
 1181              		.loc 1 450 21 is_stmt 1
 450:C:/Users/stapi/OneDrive/Desktop/GD32VW553/V1_MQTT_OK/GD32VW55X_Wifi_BLE_SDK/GD32VW55x_RELEASE_V1.0.2/MSDK/cloud/alicloud/src/services/awss\awss_statis.c ****                     break;
 1182              		.loc 1 450 28 is_stmt 0
 1183 0232 B7070000 		lui	a5,%hi(.LANCHOR1)
 1184 0236 93870700 		addi	a5,a5,%lo(.LANCHOR1)
 1185 023a F853     		lw	a4,100(a5)
 1186 023c 0507     		addi	a4,a4,1
 1187 023e F8D3     		sw	a4,100(a5)
 451:C:/Users/stapi/OneDrive/Desktop/GD32VW553/V1_MQTT_OK/GD32VW55X_Wifi_BLE_SDK/GD32VW55x_RELEASE_V1.0.2/MSDK/cloud/alicloud/src/services/awss\awss_statis.c ****                 case AWSS_STATIS_TYPE_PASSWD_ERR:
 1188              		.loc 1 451 21 is_stmt 1
 1189 0240 89BD     		j	.L75
 1190              	.L72:
 314:C:/Users/stapi/OneDrive/Desktop/GD32VW553/V1_MQTT_OK/GD32VW55X_Wifi_BLE_SDK/GD32VW55x_RELEASE_V1.0.2/MSDK/cloud/alicloud/src/services/awss\awss_statis.c ****                 case AWSS_STATIS_TYPE_TIME_START:
 1191              		.loc 1 314 13
 316:C:/Users/stapi/OneDrive/Desktop/GD32VW553/V1_MQTT_OK/GD32VW55X_Wifi_BLE_SDK/GD32VW55x_RELEASE_V1.0.2/MSDK/cloud/alicloud/src/services/awss\awss_statis.c ****                     SM_START = time;
 1192              		.loc 1 316 21
 316:C:/Users/stapi/OneDrive/Desktop/GD32VW553/V1_MQTT_OK/GD32VW55X_Wifi_BLE_SDK/GD32VW55x_RELEASE_V1.0.2/MSDK/cloud/alicloud/src/services/awss\awss_statis.c ****                     SM_START = time;
 1193              		.loc 1 316 28 is_stmt 0
 1194 0242 B7070000 		lui	a5,%hi(.LANCHOR1)
 1195 0246 93870700 		addi	a5,a5,%lo(.LANCHOR1)
 1196 024a D84F     		lw	a4,28(a5)
 317:C:/Users/stapi/OneDrive/Desktop/GD32VW553/V1_MQTT_OK/GD32VW55X_Wifi_BLE_SDK/GD32VW55x_RELEASE_V1.0.2/MSDK/cloud/alicloud/src/services/awss\awss_statis.c ****                     break;
 1197              		.loc 1 317 30
 1198 024c 23A62703 		sw	s2,44(a5)
 316:C:/Users/stapi/OneDrive/Desktop/GD32VW553/V1_MQTT_OK/GD32VW55X_Wifi_BLE_SDK/GD32VW55x_RELEASE_V1.0.2/MSDK/cloud/alicloud/src/services/awss\awss_statis.c ****                     SM_START = time;
 1199              		.loc 1 316 28
 1200 0250 0507     		addi	a4,a4,1
 1201 0252 D8CF     		sw	a4,28(a5)
 317:C:/Users/stapi/OneDrive/Desktop/GD32VW553/V1_MQTT_OK/GD32VW55X_Wifi_BLE_SDK/GD32VW55x_RELEASE_V1.0.2/MSDK/cloud/alicloud/src/services/awss\awss_statis.c ****                     break;
 1202              		.loc 1 317 21 is_stmt 1
 318:C:/Users/stapi/OneDrive/Desktop/GD32VW553/V1_MQTT_OK/GD32VW55X_Wifi_BLE_SDK/GD32VW55x_RELEASE_V1.0.2/MSDK/cloud/alicloud/src/services/awss\awss_statis.c ****                 case AWSS_STATIS_TYPE_TIME_SUC:
 1203              		.loc 1 318 21
 1204 0254 3DBD     		j	.L75
 1205              	.L69:
 387:C:/Users/stapi/OneDrive/Desktop/GD32VW553/V1_MQTT_OK/GD32VW55X_Wifi_BLE_SDK/GD32VW55x_RELEASE_V1.0.2/MSDK/cloud/alicloud/src/services/awss\awss_statis.c ****                 case AWSS_STATIS_TYPE_TIME_START:
 1206              		.loc 1 387 13
 389:C:/Users/stapi/OneDrive/Desktop/GD32VW553/V1_MQTT_OK/GD32VW55X_Wifi_BLE_SDK/GD32VW55x_RELEASE_V1.0.2/MSDK/cloud/alicloud/src/services/awss\awss_statis.c ****                     DAP_START = time;
 1207              		.loc 1 389 21
 389:C:/Users/stapi/OneDrive/Desktop/GD32VW553/V1_MQTT_OK/GD32VW55X_Wifi_BLE_SDK/GD32VW55x_RELEASE_V1.0.2/MSDK/cloud/alicloud/src/services/awss\awss_statis.c ****                     DAP_START = time;
 1208              		.loc 1 389 29 is_stmt 0
 1209 0256 B7070000 		lui	a5,%hi(.LANCHOR1)
 1210 025a 93870700 		addi	a5,a5,%lo(.LANCHOR1)
 1211 025e B843     		lw	a4,64(a5)
 390:C:/Users/stapi/OneDrive/Desktop/GD32VW553/V1_MQTT_OK/GD32VW55X_Wifi_BLE_SDK/GD32VW55x_RELEASE_V1.0.2/MSDK/cloud/alicloud/src/services/awss\awss_statis.c ****                     break;
 1212              		.loc 1 390 31
 1213 0260 23AA2705 		sw	s2,84(a5)
 389:C:/Users/stapi/OneDrive/Desktop/GD32VW553/V1_MQTT_OK/GD32VW55X_Wifi_BLE_SDK/GD32VW55x_RELEASE_V1.0.2/MSDK/cloud/alicloud/src/services/awss\awss_statis.c ****                     DAP_START = time;
 1214              		.loc 1 389 29
 1215 0264 0507     		addi	a4,a4,1
 1216 0266 B8C3     		sw	a4,64(a5)
 390:C:/Users/stapi/OneDrive/Desktop/GD32VW553/V1_MQTT_OK/GD32VW55X_Wifi_BLE_SDK/GD32VW55x_RELEASE_V1.0.2/MSDK/cloud/alicloud/src/services/awss\awss_statis.c ****                     break;
 1217              		.loc 1 390 21 is_stmt 1
 391:C:/Users/stapi/OneDrive/Desktop/GD32VW553/V1_MQTT_OK/GD32VW55X_Wifi_BLE_SDK/GD32VW55x_RELEASE_V1.0.2/MSDK/cloud/alicloud/src/services/awss\awss_statis.c ****                 case AWSS_STATIS_TYPE_TIME_SUC:
 1218              		.loc 1 391 21
 1219 0268 2DB5     		j	.L75
 1220              		.cfi_endproc
 1221              	.LFE51:
 1223              		.section	.bss.g_awss_statis,"aw",@nobits
 1224              		.align	2
 1225              		.set	.LANCHOR1,. + 0
 1228              	g_awss_statis:
 1229 0000 00000000 		.zero	108
 1229      00000000 
 1229      00000000 
 1229      00000000 
 1229      00000000 
 1230              		.section	.rodata.__FUNCTION__.0,"a"
 1231              		.align	2
 1232              		.set	.LANCHOR6,. + 0
 1235              	__FUNCTION__.0:
 1236 0000 61777373 		.string	"awss_update_statis"
 1236      5F757064 
 1236      6174655F 
 1236      73746174 
 1236      697300
 1237              		.section	.rodata.__FUNCTION__.1,"a"
 1238              		.align	2
 1239              		.set	.LANCHOR5,. + 0
 1242              	__FUNCTION__.1:
 1243 0000 61777373 		.string	"awss_disp_statis"
 1243      5F646973 
 1243      705F7374 
 1243      61746973 
 1243      00
 1244              		.section	.rodata.__FUNCTION__.2,"a"
 1245              		.align	2
 1246              		.set	.LANCHOR4,. + 0
 1249              	__FUNCTION__.2:
 1250 0000 61777373 		.string	"awss_report_statis"
 1250      5F726570 
 1250      6F72745F 
 1250      73746174 
 1250      697300
 1251              		.section	.sbss.awss_statis_mutex,"aw",@nobits
 1252              		.align	2
 1253              		.set	.LANCHOR0,. + 0
 1256              	awss_statis_mutex:
 1257 0000 00000000 		.zero	4
 1258              		.section	.sbss.awss_statis_report_id,"aw",@nobits
 1259              		.align	2
 1260              		.set	.LANCHOR3,. + 0
 1263              	awss_statis_report_id:
 1264 0000 00000000 		.zero	4
 1265              		.section	.sbss.awss_statis_trace_id,"aw",@nobits
 1266              		.align	2
 1267              		.set	.LANCHOR2,. + 0
 1270              	awss_statis_trace_id:
 1271 0000 00000000 		.zero	4
 1272              		.text
 1273              	.Letext0:
 1274              		.file 3 "c:\\users\\stapi\\onedrive\\desktop\\gd32vw553\\embeddedbuilder_v1.4.7.26843\\tools\\nucl
 1275              		.file 4 "c:\\users\\stapi\\onedrive\\desktop\\gd32vw553\\embeddedbuilder_v1.4.7.26843\\tools\\nucl
 1276              		.file 5 "..\\..\\..\\..\\cloud\\alicloud\\src\\services\\dev_bind/awss_packet.h"
 1277              		.file 6 "C:/Users/stapi/OneDrive/Desktop/GD32VW553/V1_MQTT_OK/GD32VW55X_Wifi_BLE_SDK/GD32VW55x_REL
 1278              		.file 7 "..\\..\\..\\..\\cloud\\alicloud\\include/iot_import.h"
 1279              		.file 8 "..\\..\\..\\..\\cloud\\alicloud\\src\\infra\\log/iotx_log.h"
 1280              		.file 9 "c:\\users\\stapi\\onedrive\\desktop\\gd32vw553\\embeddedbuilder_v1.4.7.26843\\tools\\nucl
 1281              		.file 10 "..\\..\\..\\..\\cloud\\alicloud\\src\\services\\dev_bind/awss_cmp.h"
 1282              		.file 11 "<built-in>"