   1              		.file	"awss_ap_scan.c"
   2              		.option nopic
   3              		.attribute arch, "rv32i2p0_m2p0_a2p0_f2p0_c2p0_b_p0p94"
   4              		.attribute unaligned_access, 0
   5              		.attribute stack_align, 16
   6              		.text
   7              	.Ltext0:
   8              		.cfi_sections	.debug_frame
   9              		.section	.rodata.apscan_80211_frame_handler.str1.4,"aMS",@progbits,1
  10              		.align	2
  11              	.LC0:
  12 0000 61707363 		.string	"apscan ssid: %s, mac:%02x%02x%02x%02x%02x%02x, rssi:%d, chan:%d"
  12      616E2073 
  12      7369643A 
  12      2025732C 
  12      206D6163 
  13              		.align	2
  14              	.LC1:
  15 0040 61777373 		.string	"awss"
  15      00
  16              		.section	.text.apscan_80211_frame_handler,"ax",@progbits
  17              		.align	1
  19              	apscan_80211_frame_handler:
  20              	.LFB50:
  21              		.file 1 "C:/Users/stapi/OneDrive/Desktop/GD32VW553/V1_MQTT_OK/GD32VW55X_Wifi_BLE_SDK/GD32VW55x_REL
   1:C:/Users/stapi/OneDrive/Desktop/GD32VW553/V1_MQTT_OK/GD32VW55X_Wifi_BLE_SDK/GD32VW55x_RELEASE_V1.0.2/MSDK/cloud/alicloud/src/services/awss\awss_ap_scan.c **** /*
   2:C:/Users/stapi/OneDrive/Desktop/GD32VW553/V1_MQTT_OK/GD32VW55X_Wifi_BLE_SDK/GD32VW55x_RELEASE_V1.0.2/MSDK/cloud/alicloud/src/services/awss\awss_ap_scan.c ****  * Copyright (C) 2015-2018 Alibaba Group Holding Limited
   3:C:/Users/stapi/OneDrive/Desktop/GD32VW553/V1_MQTT_OK/GD32VW55X_Wifi_BLE_SDK/GD32VW55x_RELEASE_V1.0.2/MSDK/cloud/alicloud/src/services/awss\awss_ap_scan.c ****  */
   4:C:/Users/stapi/OneDrive/Desktop/GD32VW553/V1_MQTT_OK/GD32VW55X_Wifi_BLE_SDK/GD32VW55x_RELEASE_V1.0.2/MSDK/cloud/alicloud/src/services/awss\awss_ap_scan.c **** 
   5:C:/Users/stapi/OneDrive/Desktop/GD32VW553/V1_MQTT_OK/GD32VW55X_Wifi_BLE_SDK/GD32VW55x_RELEASE_V1.0.2/MSDK/cloud/alicloud/src/services/awss\awss_ap_scan.c **** #include <stdio.h>
   6:C:/Users/stapi/OneDrive/Desktop/GD32VW553/V1_MQTT_OK/GD32VW55X_Wifi_BLE_SDK/GD32VW55x_RELEASE_V1.0.2/MSDK/cloud/alicloud/src/services/awss\awss_ap_scan.c **** #include <stdint.h>
   7:C:/Users/stapi/OneDrive/Desktop/GD32VW553/V1_MQTT_OK/GD32VW55X_Wifi_BLE_SDK/GD32VW55x_RELEASE_V1.0.2/MSDK/cloud/alicloud/src/services/awss\awss_ap_scan.c **** #include "iot_import.h"
   8:C:/Users/stapi/OneDrive/Desktop/GD32VW553/V1_MQTT_OK/GD32VW55X_Wifi_BLE_SDK/GD32VW55x_RELEASE_V1.0.2/MSDK/cloud/alicloud/src/services/awss\awss_ap_scan.c **** #include "os.h"
   9:C:/Users/stapi/OneDrive/Desktop/GD32VW553/V1_MQTT_OK/GD32VW55X_Wifi_BLE_SDK/GD32VW55x_RELEASE_V1.0.2/MSDK/cloud/alicloud/src/services/awss\awss_ap_scan.c **** #include "awss.h"
  10:C:/Users/stapi/OneDrive/Desktop/GD32VW553/V1_MQTT_OK/GD32VW55X_Wifi_BLE_SDK/GD32VW55x_RELEASE_V1.0.2/MSDK/cloud/alicloud/src/services/awss\awss_ap_scan.c **** #include "awss_ap_scan.h"
  11:C:/Users/stapi/OneDrive/Desktop/GD32VW553/V1_MQTT_OK/GD32VW55X_Wifi_BLE_SDK/GD32VW55x_RELEASE_V1.0.2/MSDK/cloud/alicloud/src/services/awss\awss_ap_scan.c **** #include "zconfig_ieee80211.h"
  12:C:/Users/stapi/OneDrive/Desktop/GD32VW553/V1_MQTT_OK/GD32VW55X_Wifi_BLE_SDK/GD32VW55x_RELEASE_V1.0.2/MSDK/cloud/alicloud/src/services/awss\awss_ap_scan.c **** #include "zconfig_lib.h"
  13:C:/Users/stapi/OneDrive/Desktop/GD32VW553/V1_MQTT_OK/GD32VW55X_Wifi_BLE_SDK/GD32VW55x_RELEASE_V1.0.2/MSDK/cloud/alicloud/src/services/awss\awss_ap_scan.c **** #include "awss_log.h"
  14:C:/Users/stapi/OneDrive/Desktop/GD32VW553/V1_MQTT_OK/GD32VW55X_Wifi_BLE_SDK/GD32VW55x_RELEASE_V1.0.2/MSDK/cloud/alicloud/src/services/awss\awss_ap_scan.c **** 
  15:C:/Users/stapi/OneDrive/Desktop/GD32VW553/V1_MQTT_OK/GD32VW55X_Wifi_BLE_SDK/GD32VW55x_RELEASE_V1.0.2/MSDK/cloud/alicloud/src/services/awss\awss_ap_scan.c **** #if defined(__cplusplus)  /* If this is a C++ compiler, use C linkage */
  16:C:/Users/stapi/OneDrive/Desktop/GD32VW553/V1_MQTT_OK/GD32VW55X_Wifi_BLE_SDK/GD32VW55x_RELEASE_V1.0.2/MSDK/cloud/alicloud/src/services/awss\awss_ap_scan.c **** extern "C"
  17:C:/Users/stapi/OneDrive/Desktop/GD32VW553/V1_MQTT_OK/GD32VW55X_Wifi_BLE_SDK/GD32VW55x_RELEASE_V1.0.2/MSDK/cloud/alicloud/src/services/awss\awss_ap_scan.c **** {
  18:C:/Users/stapi/OneDrive/Desktop/GD32VW553/V1_MQTT_OK/GD32VW55X_Wifi_BLE_SDK/GD32VW55x_RELEASE_V1.0.2/MSDK/cloud/alicloud/src/services/awss\awss_ap_scan.c **** #endif
  19:C:/Users/stapi/OneDrive/Desktop/GD32VW553/V1_MQTT_OK/GD32VW55X_Wifi_BLE_SDK/GD32VW55x_RELEASE_V1.0.2/MSDK/cloud/alicloud/src/services/awss\awss_ap_scan.c **** 
  20:C:/Users/stapi/OneDrive/Desktop/GD32VW553/V1_MQTT_OK/GD32VW55X_Wifi_BLE_SDK/GD32VW55x_RELEASE_V1.0.2/MSDK/cloud/alicloud/src/services/awss\awss_ap_scan.c **** /* designated ap scan timing related definition */
  21:C:/Users/stapi/OneDrive/Desktop/GD32VW553/V1_MQTT_OK/GD32VW55X_Wifi_BLE_SDK/GD32VW55x_RELEASE_V1.0.2/MSDK/cloud/alicloud/src/services/awss\awss_ap_scan.c **** #define APSCAN_DEFAULT_CHN_SCAN_TIME    (200)
  22:C:/Users/stapi/OneDrive/Desktop/GD32VW553/V1_MQTT_OK/GD32VW55X_Wifi_BLE_SDK/GD32VW55x_RELEASE_V1.0.2/MSDK/cloud/alicloud/src/services/awss\awss_ap_scan.c **** 
  23:C:/Users/stapi/OneDrive/Desktop/GD32VW553/V1_MQTT_OK/GD32VW55X_Wifi_BLE_SDK/GD32VW55x_RELEASE_V1.0.2/MSDK/cloud/alicloud/src/services/awss\awss_ap_scan.c **** /* probe request definition which be sent to designated ap */
  24:C:/Users/stapi/OneDrive/Desktop/GD32VW553/V1_MQTT_OK/GD32VW55X_Wifi_BLE_SDK/GD32VW55x_RELEASE_V1.0.2/MSDK/cloud/alicloud/src/services/awss\awss_ap_scan.c **** #define APSCAN_PROBE_REQ_HEAD_LEN       (26)
  25:C:/Users/stapi/OneDrive/Desktop/GD32VW553/V1_MQTT_OK/GD32VW55X_Wifi_BLE_SDK/GD32VW55x_RELEASE_V1.0.2/MSDK/cloud/alicloud/src/services/awss\awss_ap_scan.c **** #define APSCAN_PROBE_REQ_TAIL_LEN       (20)
  26:C:/Users/stapi/OneDrive/Desktop/GD32VW553/V1_MQTT_OK/GD32VW55X_Wifi_BLE_SDK/GD32VW55x_RELEASE_V1.0.2/MSDK/cloud/alicloud/src/services/awss\awss_ap_scan.c **** #define APSCAN_SA_OFFSET                (10)
  27:C:/Users/stapi/OneDrive/Desktop/GD32VW553/V1_MQTT_OK/GD32VW55X_Wifi_BLE_SDK/GD32VW55x_RELEASE_V1.0.2/MSDK/cloud/alicloud/src/services/awss\awss_ap_scan.c **** 
  28:C:/Users/stapi/OneDrive/Desktop/GD32VW553/V1_MQTT_OK/GD32VW55X_Wifi_BLE_SDK/GD32VW55x_RELEASE_V1.0.2/MSDK/cloud/alicloud/src/services/awss\awss_ap_scan.c **** /* local static variables */
  29:C:/Users/stapi/OneDrive/Desktop/GD32VW553/V1_MQTT_OK/GD32VW55X_Wifi_BLE_SDK/GD32VW55x_RELEASE_V1.0.2/MSDK/cloud/alicloud/src/services/awss\awss_ap_scan.c **** static uint8_t g_apscan_chan_idx = 0;
  30:C:/Users/stapi/OneDrive/Desktop/GD32VW553/V1_MQTT_OK/GD32VW55X_Wifi_BLE_SDK/GD32VW55x_RELEASE_V1.0.2/MSDK/cloud/alicloud/src/services/awss\awss_ap_scan.c **** static ap_scan_info_t g_apscan_info;
  31:C:/Users/stapi/OneDrive/Desktop/GD32VW553/V1_MQTT_OK/GD32VW55X_Wifi_BLE_SDK/GD32VW55x_RELEASE_V1.0.2/MSDK/cloud/alicloud/src/services/awss\awss_ap_scan.c **** 
  32:C:/Users/stapi/OneDrive/Desktop/GD32VW553/V1_MQTT_OK/GD32VW55X_Wifi_BLE_SDK/GD32VW55x_RELEASE_V1.0.2/MSDK/cloud/alicloud/src/services/awss\awss_ap_scan.c **** static const uint8_t apscan_probe_req_frame_head[APSCAN_PROBE_REQ_HEAD_LEN] = {
  33:C:/Users/stapi/OneDrive/Desktop/GD32VW553/V1_MQTT_OK/GD32VW55X_Wifi_BLE_SDK/GD32VW55x_RELEASE_V1.0.2/MSDK/cloud/alicloud/src/services/awss\awss_ap_scan.c ****     0x40, 0x00,  // mgnt type, frame control
  34:C:/Users/stapi/OneDrive/Desktop/GD32VW553/V1_MQTT_OK/GD32VW55X_Wifi_BLE_SDK/GD32VW55x_RELEASE_V1.0.2/MSDK/cloud/alicloud/src/services/awss\awss_ap_scan.c ****     0x00, 0x00,  // duration
  35:C:/Users/stapi/OneDrive/Desktop/GD32VW553/V1_MQTT_OK/GD32VW55X_Wifi_BLE_SDK/GD32VW55x_RELEASE_V1.0.2/MSDK/cloud/alicloud/src/services/awss\awss_ap_scan.c ****     0xFF, 0xFF, 0xFF, 0xFF, 0xFF, 0xFF,  // DA
  36:C:/Users/stapi/OneDrive/Desktop/GD32VW553/V1_MQTT_OK/GD32VW55X_Wifi_BLE_SDK/GD32VW55x_RELEASE_V1.0.2/MSDK/cloud/alicloud/src/services/awss\awss_ap_scan.c ****     0x28, 0xC2, 0xDD, 0x61, 0x68, 0x83,  // SA, to be replaced with wifi mac
  37:C:/Users/stapi/OneDrive/Desktop/GD32VW553/V1_MQTT_OK/GD32VW55X_Wifi_BLE_SDK/GD32VW55x_RELEASE_V1.0.2/MSDK/cloud/alicloud/src/services/awss\awss_ap_scan.c ****     0xFF, 0xFF, 0xFF, 0xFF, 0xFF, 0xFF,  // BSSID
  38:C:/Users/stapi/OneDrive/Desktop/GD32VW553/V1_MQTT_OK/GD32VW55X_Wifi_BLE_SDK/GD32VW55x_RELEASE_V1.0.2/MSDK/cloud/alicloud/src/services/awss\awss_ap_scan.c ****     0xC0, 0x79,  // seq
  39:C:/Users/stapi/OneDrive/Desktop/GD32VW553/V1_MQTT_OK/GD32VW55X_Wifi_BLE_SDK/GD32VW55x_RELEASE_V1.0.2/MSDK/cloud/alicloud/src/services/awss\awss_ap_scan.c ****     0x00, 0x03   // type(ssid), ssid len(variable)
  40:C:/Users/stapi/OneDrive/Desktop/GD32VW553/V1_MQTT_OK/GD32VW55X_Wifi_BLE_SDK/GD32VW55x_RELEASE_V1.0.2/MSDK/cloud/alicloud/src/services/awss\awss_ap_scan.c **** }; 
  41:C:/Users/stapi/OneDrive/Desktop/GD32VW553/V1_MQTT_OK/GD32VW55X_Wifi_BLE_SDK/GD32VW55x_RELEASE_V1.0.2/MSDK/cloud/alicloud/src/services/awss\awss_ap_scan.c **** 
  42:C:/Users/stapi/OneDrive/Desktop/GD32VW553/V1_MQTT_OK/GD32VW55X_Wifi_BLE_SDK/GD32VW55x_RELEASE_V1.0.2/MSDK/cloud/alicloud/src/services/awss\awss_ap_scan.c **** static const uint8_t apscan_probe_req_frame_tail[APSCAN_PROBE_REQ_TAIL_LEN] = {
  43:C:/Users/stapi/OneDrive/Desktop/GD32VW553/V1_MQTT_OK/GD32VW55X_Wifi_BLE_SDK/GD32VW55x_RELEASE_V1.0.2/MSDK/cloud/alicloud/src/services/awss\awss_ap_scan.c ****     0x01, 0x08, 0x82, 0x84, 0x8B, 0x96, 0x8C, 0x92, 0x98, 0xA4,  // supported rates
  44:C:/Users/stapi/OneDrive/Desktop/GD32VW553/V1_MQTT_OK/GD32VW55X_Wifi_BLE_SDK/GD32VW55x_RELEASE_V1.0.2/MSDK/cloud/alicloud/src/services/awss\awss_ap_scan.c ****     0x32, 0x04, 0xB0, 0x48, 0x60, 0x6C,  // extended supported rates
  45:C:/Users/stapi/OneDrive/Desktop/GD32VW553/V1_MQTT_OK/GD32VW55X_Wifi_BLE_SDK/GD32VW55x_RELEASE_V1.0.2/MSDK/cloud/alicloud/src/services/awss\awss_ap_scan.c ****     0x3F, 0x84, 0x10, 0x9E  // FCS
  46:C:/Users/stapi/OneDrive/Desktop/GD32VW553/V1_MQTT_OK/GD32VW55X_Wifi_BLE_SDK/GD32VW55x_RELEASE_V1.0.2/MSDK/cloud/alicloud/src/services/awss\awss_ap_scan.c **** };
  47:C:/Users/stapi/OneDrive/Desktop/GD32VW553/V1_MQTT_OK/GD32VW55X_Wifi_BLE_SDK/GD32VW55x_RELEASE_V1.0.2/MSDK/cloud/alicloud/src/services/awss\awss_ap_scan.c **** 
  48:C:/Users/stapi/OneDrive/Desktop/GD32VW553/V1_MQTT_OK/GD32VW55X_Wifi_BLE_SDK/GD32VW55x_RELEASE_V1.0.2/MSDK/cloud/alicloud/src/services/awss\awss_ap_scan.c **** static int apscan_send_probe_req(void)
  49:C:/Users/stapi/OneDrive/Desktop/GD32VW553/V1_MQTT_OK/GD32VW55X_Wifi_BLE_SDK/GD32VW55x_RELEASE_V1.0.2/MSDK/cloud/alicloud/src/services/awss\awss_ap_scan.c **** {
  50:C:/Users/stapi/OneDrive/Desktop/GD32VW553/V1_MQTT_OK/GD32VW55X_Wifi_BLE_SDK/GD32VW55x_RELEASE_V1.0.2/MSDK/cloud/alicloud/src/services/awss\awss_ap_scan.c ****     uint8_t probe[APSCAN_PROBE_REQ_HEAD_LEN + OS_MAX_SSID_LEN + APSCAN_PROBE_REQ_TAIL_LEN];
  51:C:/Users/stapi/OneDrive/Desktop/GD32VW553/V1_MQTT_OK/GD32VW55X_Wifi_BLE_SDK/GD32VW55x_RELEASE_V1.0.2/MSDK/cloud/alicloud/src/services/awss\awss_ap_scan.c ****     uint8_t ssid_len = strlen(g_apscan_info.ssid);
  52:C:/Users/stapi/OneDrive/Desktop/GD32VW553/V1_MQTT_OK/GD32VW55X_Wifi_BLE_SDK/GD32VW55x_RELEASE_V1.0.2/MSDK/cloud/alicloud/src/services/awss\awss_ap_scan.c **** 
  53:C:/Users/stapi/OneDrive/Desktop/GD32VW553/V1_MQTT_OK/GD32VW55X_Wifi_BLE_SDK/GD32VW55x_RELEASE_V1.0.2/MSDK/cloud/alicloud/src/services/awss\awss_ap_scan.c ****     if (ssid_len == 0) {
  54:C:/Users/stapi/OneDrive/Desktop/GD32VW553/V1_MQTT_OK/GD32VW55X_Wifi_BLE_SDK/GD32VW55x_RELEASE_V1.0.2/MSDK/cloud/alicloud/src/services/awss\awss_ap_scan.c ****         return -1;
  55:C:/Users/stapi/OneDrive/Desktop/GD32VW553/V1_MQTT_OK/GD32VW55X_Wifi_BLE_SDK/GD32VW55x_RELEASE_V1.0.2/MSDK/cloud/alicloud/src/services/awss\awss_ap_scan.c ****     }
  56:C:/Users/stapi/OneDrive/Desktop/GD32VW553/V1_MQTT_OK/GD32VW55X_Wifi_BLE_SDK/GD32VW55x_RELEASE_V1.0.2/MSDK/cloud/alicloud/src/services/awss\awss_ap_scan.c **** 
  57:C:/Users/stapi/OneDrive/Desktop/GD32VW553/V1_MQTT_OK/GD32VW55X_Wifi_BLE_SDK/GD32VW55x_RELEASE_V1.0.2/MSDK/cloud/alicloud/src/services/awss\awss_ap_scan.c ****     memcpy(probe, apscan_probe_req_frame_head, APSCAN_PROBE_REQ_HEAD_LEN);
  58:C:/Users/stapi/OneDrive/Desktop/GD32VW553/V1_MQTT_OK/GD32VW55X_Wifi_BLE_SDK/GD32VW55x_RELEASE_V1.0.2/MSDK/cloud/alicloud/src/services/awss\awss_ap_scan.c ****     os_wifi_get_mac(&probe[APSCAN_SA_OFFSET]);
  59:C:/Users/stapi/OneDrive/Desktop/GD32VW553/V1_MQTT_OK/GD32VW55X_Wifi_BLE_SDK/GD32VW55x_RELEASE_V1.0.2/MSDK/cloud/alicloud/src/services/awss\awss_ap_scan.c ****     probe[APSCAN_PROBE_REQ_HEAD_LEN - 1] = ssid_len;
  60:C:/Users/stapi/OneDrive/Desktop/GD32VW553/V1_MQTT_OK/GD32VW55X_Wifi_BLE_SDK/GD32VW55x_RELEASE_V1.0.2/MSDK/cloud/alicloud/src/services/awss\awss_ap_scan.c ****     strncpy((char *)(probe + APSCAN_PROBE_REQ_HEAD_LEN), g_apscan_info.ssid, ssid_len);
  61:C:/Users/stapi/OneDrive/Desktop/GD32VW553/V1_MQTT_OK/GD32VW55X_Wifi_BLE_SDK/GD32VW55x_RELEASE_V1.0.2/MSDK/cloud/alicloud/src/services/awss\awss_ap_scan.c ****     memcpy(probe + APSCAN_PROBE_REQ_HEAD_LEN + ssid_len, apscan_probe_req_frame_tail, APSCAN_PROBE_
  62:C:/Users/stapi/OneDrive/Desktop/GD32VW553/V1_MQTT_OK/GD32VW55X_Wifi_BLE_SDK/GD32VW55x_RELEASE_V1.0.2/MSDK/cloud/alicloud/src/services/awss\awss_ap_scan.c ****     os_wifi_send_80211_raw_frame(FRAME_PROBE_REQ, probe, sizeof(probe));
  63:C:/Users/stapi/OneDrive/Desktop/GD32VW553/V1_MQTT_OK/GD32VW55X_Wifi_BLE_SDK/GD32VW55x_RELEASE_V1.0.2/MSDK/cloud/alicloud/src/services/awss\awss_ap_scan.c **** 
  64:C:/Users/stapi/OneDrive/Desktop/GD32VW553/V1_MQTT_OK/GD32VW55X_Wifi_BLE_SDK/GD32VW55x_RELEASE_V1.0.2/MSDK/cloud/alicloud/src/services/awss\awss_ap_scan.c ****     return 0;
  65:C:/Users/stapi/OneDrive/Desktop/GD32VW553/V1_MQTT_OK/GD32VW55X_Wifi_BLE_SDK/GD32VW55x_RELEASE_V1.0.2/MSDK/cloud/alicloud/src/services/awss\awss_ap_scan.c **** }
  66:C:/Users/stapi/OneDrive/Desktop/GD32VW553/V1_MQTT_OK/GD32VW55X_Wifi_BLE_SDK/GD32VW55x_RELEASE_V1.0.2/MSDK/cloud/alicloud/src/services/awss\awss_ap_scan.c **** 
  67:C:/Users/stapi/OneDrive/Desktop/GD32VW553/V1_MQTT_OK/GD32VW55X_Wifi_BLE_SDK/GD32VW55x_RELEASE_V1.0.2/MSDK/cloud/alicloud/src/services/awss\awss_ap_scan.c **** static int apscan_80211_frame_handler(char *buf, int length, enum AWSS_LINK_TYPE link_type, int wit
  68:C:/Users/stapi/OneDrive/Desktop/GD32VW553/V1_MQTT_OK/GD32VW55X_Wifi_BLE_SDK/GD32VW55x_RELEASE_V1.0.2/MSDK/cloud/alicloud/src/services/awss\awss_ap_scan.c **** {
  22              		.loc 1 68 1
  23              		.cfi_startproc
  24              	.LVL0:
  25 0000 17030000 		call	t0,__riscv_save_6
  25      E7020300 
  26              		.cfi_offset 21, -28
  27              		.cfi_offset 20, -24
  28              		.cfi_offset 19, -20
  29              		.cfi_offset 18, -16
  30              		.cfi_offset 9, -12
  31              		.cfi_offset 8, -8
  32              		.cfi_offset 1, -4
  33              		.cfi_def_cfa_offset 32
  69:C:/Users/stapi/OneDrive/Desktop/GD32VW553/V1_MQTT_OK/GD32VW55X_Wifi_BLE_SDK/GD32VW55x_RELEASE_V1.0.2/MSDK/cloud/alicloud/src/services/awss\awss_ap_scan.c ****     uint8_t ssid[OS_MAX_SSID_LEN] = {0}, bssid[OS_ETH_ALEN] = {0};
  34              		.loc 1 69 5
  68:C:/Users/stapi/OneDrive/Desktop/GD32VW553/V1_MQTT_OK/GD32VW55X_Wifi_BLE_SDK/GD32VW55x_RELEASE_V1.0.2/MSDK/cloud/alicloud/src/services/awss\awss_ap_scan.c ****     uint8_t ssid[OS_MAX_SSID_LEN] = {0}, bssid[OS_ETH_ALEN] = {0};
  35              		.loc 1 68 1 is_stmt 0
  36 0008 1D71     		addi	sp,sp,-96
  37              		.cfi_def_cfa_offset 128
  68:C:/Users/stapi/OneDrive/Desktop/GD32VW553/V1_MQTT_OK/GD32VW55X_Wifi_BLE_SDK/GD32VW55x_RELEASE_V1.0.2/MSDK/cloud/alicloud/src/services/awss\awss_ap_scan.c ****     uint8_t ssid[OS_MAX_SSID_LEN] = {0}, bssid[OS_ETH_ALEN] = {0};
  38              		.loc 1 68 1
  39 000a 2AD6     		sw	a0,44(sp)
  40 000c 2ED4     		sw	a1,40(sp)
  41 000e 3284     		mv	s0,a2
  42              		.loc 1 69 13
  43 0010 8145     		li	a1,0
  44              	.LVL1:
  45 0012 7546     		li	a2,29
  46              	.LVL2:
  47 0014 8800     		addi	a0,sp,64
  48              	.LVL3:
  68:C:/Users/stapi/OneDrive/Desktop/GD32VW553/V1_MQTT_OK/GD32VW55X_Wifi_BLE_SDK/GD32VW55x_RELEASE_V1.0.2/MSDK/cloud/alicloud/src/services/awss\awss_ap_scan.c ****     uint8_t ssid[OS_MAX_SSID_LEN] = {0}, bssid[OS_ETH_ALEN] = {0};
  49              		.loc 1 68 1
  50 0016 B684     		mv	s1,a3
  51 0018 3A8A     		mv	s4,a4
  52              		.loc 1 69 13
  53 001a 02DE     		sw	zero,60(sp)
  54 001c 97000000 		call	memset
  54      E7800000 
  55              	.LVL4:
  56              		.loc 1 69 42
  57 0024 02DA     		sw	zero,52(sp)
  58 0026 231C0102 		sh	zero,56(sp)
  70:C:/Users/stapi/OneDrive/Desktop/GD32VW553/V1_MQTT_OK/GD32VW55X_Wifi_BLE_SDK/GD32VW55x_RELEASE_V1.0.2/MSDK/cloud/alicloud/src/services/awss\awss_ap_scan.c ****     uint16_t fc;
  59              		.loc 1 70 5 is_stmt 1
  71:C:/Users/stapi/OneDrive/Desktop/GD32VW553/V1_MQTT_OK/GD32VW55X_Wifi_BLE_SDK/GD32VW55x_RELEASE_V1.0.2/MSDK/cloud/alicloud/src/services/awss\awss_ap_scan.c ****     uint8_t channel;
  60              		.loc 1 71 5
  72:C:/Users/stapi/OneDrive/Desktop/GD32VW553/V1_MQTT_OK/GD32VW55X_Wifi_BLE_SDK/GD32VW55x_RELEASE_V1.0.2/MSDK/cloud/alicloud/src/services/awss\awss_ap_scan.c ****     uint8_t auth, pairwise_cipher, group_cipher;
  61              		.loc 1 72 5
  73:C:/Users/stapi/OneDrive/Desktop/GD32VW553/V1_MQTT_OK/GD32VW55X_Wifi_BLE_SDK/GD32VW55x_RELEASE_V1.0.2/MSDK/cloud/alicloud/src/services/awss\awss_ap_scan.c ****     int ret;
  62              		.loc 1 73 5
  74:C:/Users/stapi/OneDrive/Desktop/GD32VW553/V1_MQTT_OK/GD32VW55X_Wifi_BLE_SDK/GD32VW55x_RELEASE_V1.0.2/MSDK/cloud/alicloud/src/services/awss\awss_ap_scan.c ****     struct ieee80211_hdr *hdr;
  63              		.loc 1 74 5
  75:C:/Users/stapi/OneDrive/Desktop/GD32VW553/V1_MQTT_OK/GD32VW55X_Wifi_BLE_SDK/GD32VW55x_RELEASE_V1.0.2/MSDK/cloud/alicloud/src/services/awss\awss_ap_scan.c **** 
  76:C:/Users/stapi/OneDrive/Desktop/GD32VW553/V1_MQTT_OK/GD32VW55X_Wifi_BLE_SDK/GD32VW55x_RELEASE_V1.0.2/MSDK/cloud/alicloud/src/services/awss\awss_ap_scan.c ****     /* remove FCS filed */
  77:C:/Users/stapi/OneDrive/Desktop/GD32VW553/V1_MQTT_OK/GD32VW55X_Wifi_BLE_SDK/GD32VW55x_RELEASE_V1.0.2/MSDK/cloud/alicloud/src/services/awss\awss_ap_scan.c ****     if (with_fcs) {
  64              		.loc 1 77 5
  65              		.loc 1 77 8 is_stmt 0
  66 002a 81C4     		beq	s1,zero,.L2
  78:C:/Users/stapi/OneDrive/Desktop/GD32VW553/V1_MQTT_OK/GD32VW55X_Wifi_BLE_SDK/GD32VW55x_RELEASE_V1.0.2/MSDK/cloud/alicloud/src/services/awss\awss_ap_scan.c ****         length -= 4;
  67              		.loc 1 78 9 is_stmt 1
  68              		.loc 1 78 16 is_stmt 0
  69 002c A257     		lw	a5,40(sp)
  70 002e F117     		addi	a5,a5,-4
  71 0030 3ED4     		sw	a5,40(sp)
  72              	.L2:
  79:C:/Users/stapi/OneDrive/Desktop/GD32VW553/V1_MQTT_OK/GD32VW55X_Wifi_BLE_SDK/GD32VW55x_RELEASE_V1.0.2/MSDK/cloud/alicloud/src/services/awss\awss_ap_scan.c ****     }
  80:C:/Users/stapi/OneDrive/Desktop/GD32VW553/V1_MQTT_OK/GD32VW55X_Wifi_BLE_SDK/GD32VW55x_RELEASE_V1.0.2/MSDK/cloud/alicloud/src/services/awss\awss_ap_scan.c ****     /* useless, will be removed */
  81:C:/Users/stapi/OneDrive/Desktop/GD32VW553/V1_MQTT_OK/GD32VW55X_Wifi_BLE_SDK/GD32VW55x_RELEASE_V1.0.2/MSDK/cloud/alicloud/src/services/awss\awss_ap_scan.c ****     if (ieee80211_is_invalid_pkg(buf, length)) {
  73              		.loc 1 81 5 is_stmt 1
  74              		.loc 1 81 9 is_stmt 0
  75 0032 A255     		lw	a1,40(sp)
  76 0034 3255     		lw	a0,44(sp)
  77 0036 97000000 		call	ieee80211_is_invalid_pkg
  77      E7800000 
  78              	.LVL5:
  79              		.loc 1 81 8
  80 003e 01C9     		beq	a0,zero,.L3
  81              	.LVL6:
  82              	.L5:
  82:C:/Users/stapi/OneDrive/Desktop/GD32VW553/V1_MQTT_OK/GD32VW55X_Wifi_BLE_SDK/GD32VW55x_RELEASE_V1.0.2/MSDK/cloud/alicloud/src/services/awss\awss_ap_scan.c ****         return -1;
  83              		.loc 1 82 16
  84 0040 FD59     		li	s3,-1
  85              	.LVL7:
  86              	.L1:
  83:C:/Users/stapi/OneDrive/Desktop/GD32VW553/V1_MQTT_OK/GD32VW55X_Wifi_BLE_SDK/GD32VW55x_RELEASE_V1.0.2/MSDK/cloud/alicloud/src/services/awss\awss_ap_scan.c ****     }
  84:C:/Users/stapi/OneDrive/Desktop/GD32VW553/V1_MQTT_OK/GD32VW55X_Wifi_BLE_SDK/GD32VW55x_RELEASE_V1.0.2/MSDK/cloud/alicloud/src/services/awss\awss_ap_scan.c ****     /* link type transfer for supporting linux system. */
  85:C:/Users/stapi/OneDrive/Desktop/GD32VW553/V1_MQTT_OK/GD32VW55X_Wifi_BLE_SDK/GD32VW55x_RELEASE_V1.0.2/MSDK/cloud/alicloud/src/services/awss\awss_ap_scan.c ****     hdr = (struct ieee80211_hdr *)zconfig_remove_link_header((uint8_t **)&buf, &length, link_type);
  86:C:/Users/stapi/OneDrive/Desktop/GD32VW553/V1_MQTT_OK/GD32VW55X_Wifi_BLE_SDK/GD32VW55x_RELEASE_V1.0.2/MSDK/cloud/alicloud/src/services/awss\awss_ap_scan.c ****     if (length <= 0) {
  87:C:/Users/stapi/OneDrive/Desktop/GD32VW553/V1_MQTT_OK/GD32VW55X_Wifi_BLE_SDK/GD32VW55x_RELEASE_V1.0.2/MSDK/cloud/alicloud/src/services/awss\awss_ap_scan.c ****         return -1;
  88:C:/Users/stapi/OneDrive/Desktop/GD32VW553/V1_MQTT_OK/GD32VW55X_Wifi_BLE_SDK/GD32VW55x_RELEASE_V1.0.2/MSDK/cloud/alicloud/src/services/awss\awss_ap_scan.c ****     }
  89:C:/Users/stapi/OneDrive/Desktop/GD32VW553/V1_MQTT_OK/GD32VW55X_Wifi_BLE_SDK/GD32VW55x_RELEASE_V1.0.2/MSDK/cloud/alicloud/src/services/awss\awss_ap_scan.c **** 
  90:C:/Users/stapi/OneDrive/Desktop/GD32VW553/V1_MQTT_OK/GD32VW55X_Wifi_BLE_SDK/GD32VW55x_RELEASE_V1.0.2/MSDK/cloud/alicloud/src/services/awss\awss_ap_scan.c ****     /* search ssid and bssid in management frame */
  91:C:/Users/stapi/OneDrive/Desktop/GD32VW553/V1_MQTT_OK/GD32VW55X_Wifi_BLE_SDK/GD32VW55x_RELEASE_V1.0.2/MSDK/cloud/alicloud/src/services/awss\awss_ap_scan.c ****     fc = hdr->frame_control;
  92:C:/Users/stapi/OneDrive/Desktop/GD32VW553/V1_MQTT_OK/GD32VW55X_Wifi_BLE_SDK/GD32VW55x_RELEASE_V1.0.2/MSDK/cloud/alicloud/src/services/awss\awss_ap_scan.c ****     if (!ieee80211_is_beacon(fc) && !ieee80211_is_probe_resp(fc)) {
  93:C:/Users/stapi/OneDrive/Desktop/GD32VW553/V1_MQTT_OK/GD32VW55X_Wifi_BLE_SDK/GD32VW55x_RELEASE_V1.0.2/MSDK/cloud/alicloud/src/services/awss\awss_ap_scan.c ****         return -1;
  94:C:/Users/stapi/OneDrive/Desktop/GD32VW553/V1_MQTT_OK/GD32VW55X_Wifi_BLE_SDK/GD32VW55x_RELEASE_V1.0.2/MSDK/cloud/alicloud/src/services/awss\awss_ap_scan.c ****     }
  95:C:/Users/stapi/OneDrive/Desktop/GD32VW553/V1_MQTT_OK/GD32VW55X_Wifi_BLE_SDK/GD32VW55x_RELEASE_V1.0.2/MSDK/cloud/alicloud/src/services/awss\awss_ap_scan.c ****     ret = ieee80211_get_bssid((uint8_t *)hdr, bssid);
  96:C:/Users/stapi/OneDrive/Desktop/GD32VW553/V1_MQTT_OK/GD32VW55X_Wifi_BLE_SDK/GD32VW55x_RELEASE_V1.0.2/MSDK/cloud/alicloud/src/services/awss\awss_ap_scan.c ****     if (ret < 0) {
  97:C:/Users/stapi/OneDrive/Desktop/GD32VW553/V1_MQTT_OK/GD32VW55X_Wifi_BLE_SDK/GD32VW55x_RELEASE_V1.0.2/MSDK/cloud/alicloud/src/services/awss\awss_ap_scan.c ****         return -1;
  98:C:/Users/stapi/OneDrive/Desktop/GD32VW553/V1_MQTT_OK/GD32VW55X_Wifi_BLE_SDK/GD32VW55x_RELEASE_V1.0.2/MSDK/cloud/alicloud/src/services/awss\awss_ap_scan.c ****     }
  99:C:/Users/stapi/OneDrive/Desktop/GD32VW553/V1_MQTT_OK/GD32VW55X_Wifi_BLE_SDK/GD32VW55x_RELEASE_V1.0.2/MSDK/cloud/alicloud/src/services/awss\awss_ap_scan.c ****     ret = ieee80211_get_ssid((uint8_t *)hdr, length, ssid);
 100:C:/Users/stapi/OneDrive/Desktop/GD32VW553/V1_MQTT_OK/GD32VW55X_Wifi_BLE_SDK/GD32VW55x_RELEASE_V1.0.2/MSDK/cloud/alicloud/src/services/awss\awss_ap_scan.c ****     if (ret < 0) {
 101:C:/Users/stapi/OneDrive/Desktop/GD32VW553/V1_MQTT_OK/GD32VW55X_Wifi_BLE_SDK/GD32VW55x_RELEASE_V1.0.2/MSDK/cloud/alicloud/src/services/awss\awss_ap_scan.c ****         return -1;
 102:C:/Users/stapi/OneDrive/Desktop/GD32VW553/V1_MQTT_OK/GD32VW55X_Wifi_BLE_SDK/GD32VW55x_RELEASE_V1.0.2/MSDK/cloud/alicloud/src/services/awss\awss_ap_scan.c ****     }
 103:C:/Users/stapi/OneDrive/Desktop/GD32VW553/V1_MQTT_OK/GD32VW55X_Wifi_BLE_SDK/GD32VW55x_RELEASE_V1.0.2/MSDK/cloud/alicloud/src/services/awss\awss_ap_scan.c **** 
 104:C:/Users/stapi/OneDrive/Desktop/GD32VW553/V1_MQTT_OK/GD32VW55X_Wifi_BLE_SDK/GD32VW55x_RELEASE_V1.0.2/MSDK/cloud/alicloud/src/services/awss\awss_ap_scan.c ****     /* skip ap which is not designated ap */
 105:C:/Users/stapi/OneDrive/Desktop/GD32VW553/V1_MQTT_OK/GD32VW55X_Wifi_BLE_SDK/GD32VW55x_RELEASE_V1.0.2/MSDK/cloud/alicloud/src/services/awss\awss_ap_scan.c ****     if (strcmp((const char *)ssid, g_apscan_info.ssid)) {
 106:C:/Users/stapi/OneDrive/Desktop/GD32VW553/V1_MQTT_OK/GD32VW55X_Wifi_BLE_SDK/GD32VW55x_RELEASE_V1.0.2/MSDK/cloud/alicloud/src/services/awss\awss_ap_scan.c ****         return -1;
 107:C:/Users/stapi/OneDrive/Desktop/GD32VW553/V1_MQTT_OK/GD32VW55X_Wifi_BLE_SDK/GD32VW55x_RELEASE_V1.0.2/MSDK/cloud/alicloud/src/services/awss\awss_ap_scan.c ****     }
 108:C:/Users/stapi/OneDrive/Desktop/GD32VW553/V1_MQTT_OK/GD32VW55X_Wifi_BLE_SDK/GD32VW55x_RELEASE_V1.0.2/MSDK/cloud/alicloud/src/services/awss\awss_ap_scan.c **** 
 109:C:/Users/stapi/OneDrive/Desktop/GD32VW553/V1_MQTT_OK/GD32VW55X_Wifi_BLE_SDK/GD32VW55x_RELEASE_V1.0.2/MSDK/cloud/alicloud/src/services/awss\awss_ap_scan.c ****     rssi = rssi > 0 ? rssi - 256 : rssi;
 110:C:/Users/stapi/OneDrive/Desktop/GD32VW553/V1_MQTT_OK/GD32VW55X_Wifi_BLE_SDK/GD32VW55x_RELEASE_V1.0.2/MSDK/cloud/alicloud/src/services/awss\awss_ap_scan.c **** 
 111:C:/Users/stapi/OneDrive/Desktop/GD32VW553/V1_MQTT_OK/GD32VW55X_Wifi_BLE_SDK/GD32VW55x_RELEASE_V1.0.2/MSDK/cloud/alicloud/src/services/awss\awss_ap_scan.c ****     // designated ap found, get ap detail information
 112:C:/Users/stapi/OneDrive/Desktop/GD32VW553/V1_MQTT_OK/GD32VW55X_Wifi_BLE_SDK/GD32VW55x_RELEASE_V1.0.2/MSDK/cloud/alicloud/src/services/awss\awss_ap_scan.c ****     channel = cfg80211_get_bss_channel((uint8_t *)hdr, length);
 113:C:/Users/stapi/OneDrive/Desktop/GD32VW553/V1_MQTT_OK/GD32VW55X_Wifi_BLE_SDK/GD32VW55x_RELEASE_V1.0.2/MSDK/cloud/alicloud/src/services/awss\awss_ap_scan.c ****     if (channel > ZC_MAX_CHANNEL || channel < ZC_MIN_CHANNEL) {
 114:C:/Users/stapi/OneDrive/Desktop/GD32VW553/V1_MQTT_OK/GD32VW55X_Wifi_BLE_SDK/GD32VW55x_RELEASE_V1.0.2/MSDK/cloud/alicloud/src/services/awss\awss_ap_scan.c ****         channel = 0;
 115:C:/Users/stapi/OneDrive/Desktop/GD32VW553/V1_MQTT_OK/GD32VW55X_Wifi_BLE_SDK/GD32VW55x_RELEASE_V1.0.2/MSDK/cloud/alicloud/src/services/awss\awss_ap_scan.c ****     }
 116:C:/Users/stapi/OneDrive/Desktop/GD32VW553/V1_MQTT_OK/GD32VW55X_Wifi_BLE_SDK/GD32VW55x_RELEASE_V1.0.2/MSDK/cloud/alicloud/src/services/awss\awss_ap_scan.c ****     cfg80211_get_cipher_info((uint8_t *)hdr, length, &auth,
 117:C:/Users/stapi/OneDrive/Desktop/GD32VW553/V1_MQTT_OK/GD32VW55X_Wifi_BLE_SDK/GD32VW55x_RELEASE_V1.0.2/MSDK/cloud/alicloud/src/services/awss\awss_ap_scan.c ****                              &pairwise_cipher, &group_cipher);
 118:C:/Users/stapi/OneDrive/Desktop/GD32VW553/V1_MQTT_OK/GD32VW55X_Wifi_BLE_SDK/GD32VW55x_RELEASE_V1.0.2/MSDK/cloud/alicloud/src/services/awss\awss_ap_scan.c ****     if (auth > ZC_AUTH_TYPE_MAX) {
 119:C:/Users/stapi/OneDrive/Desktop/GD32VW553/V1_MQTT_OK/GD32VW55X_Wifi_BLE_SDK/GD32VW55x_RELEASE_V1.0.2/MSDK/cloud/alicloud/src/services/awss\awss_ap_scan.c ****         auth = ZC_AUTH_TYPE_INVALID;
 120:C:/Users/stapi/OneDrive/Desktop/GD32VW553/V1_MQTT_OK/GD32VW55X_Wifi_BLE_SDK/GD32VW55x_RELEASE_V1.0.2/MSDK/cloud/alicloud/src/services/awss\awss_ap_scan.c ****     }
 121:C:/Users/stapi/OneDrive/Desktop/GD32VW553/V1_MQTT_OK/GD32VW55X_Wifi_BLE_SDK/GD32VW55x_RELEASE_V1.0.2/MSDK/cloud/alicloud/src/services/awss\awss_ap_scan.c ****     if (pairwise_cipher > ZC_ENC_TYPE_MAX) {
 122:C:/Users/stapi/OneDrive/Desktop/GD32VW553/V1_MQTT_OK/GD32VW55X_Wifi_BLE_SDK/GD32VW55x_RELEASE_V1.0.2/MSDK/cloud/alicloud/src/services/awss\awss_ap_scan.c ****         pairwise_cipher = ZC_ENC_TYPE_INVALID;
 123:C:/Users/stapi/OneDrive/Desktop/GD32VW553/V1_MQTT_OK/GD32VW55X_Wifi_BLE_SDK/GD32VW55x_RELEASE_V1.0.2/MSDK/cloud/alicloud/src/services/awss\awss_ap_scan.c ****     }
 124:C:/Users/stapi/OneDrive/Desktop/GD32VW553/V1_MQTT_OK/GD32VW55X_Wifi_BLE_SDK/GD32VW55x_RELEASE_V1.0.2/MSDK/cloud/alicloud/src/services/awss\awss_ap_scan.c ****     if (group_cipher > ZC_ENC_TYPE_MAX) {
 125:C:/Users/stapi/OneDrive/Desktop/GD32VW553/V1_MQTT_OK/GD32VW55X_Wifi_BLE_SDK/GD32VW55x_RELEASE_V1.0.2/MSDK/cloud/alicloud/src/services/awss\awss_ap_scan.c ****         group_cipher = ZC_ENC_TYPE_INVALID;
 126:C:/Users/stapi/OneDrive/Desktop/GD32VW553/V1_MQTT_OK/GD32VW55X_Wifi_BLE_SDK/GD32VW55x_RELEASE_V1.0.2/MSDK/cloud/alicloud/src/services/awss\awss_ap_scan.c ****     }
 127:C:/Users/stapi/OneDrive/Desktop/GD32VW553/V1_MQTT_OK/GD32VW55X_Wifi_BLE_SDK/GD32VW55x_RELEASE_V1.0.2/MSDK/cloud/alicloud/src/services/awss\awss_ap_scan.c ****     if (pairwise_cipher == ZC_ENC_TYPE_TKIPAES) {
 128:C:/Users/stapi/OneDrive/Desktop/GD32VW553/V1_MQTT_OK/GD32VW55X_Wifi_BLE_SDK/GD32VW55x_RELEASE_V1.0.2/MSDK/cloud/alicloud/src/services/awss\awss_ap_scan.c ****         pairwise_cipher = ZC_ENC_TYPE_AES;
 129:C:/Users/stapi/OneDrive/Desktop/GD32VW553/V1_MQTT_OK/GD32VW55X_Wifi_BLE_SDK/GD32VW55x_RELEASE_V1.0.2/MSDK/cloud/alicloud/src/services/awss\awss_ap_scan.c ****     }
 130:C:/Users/stapi/OneDrive/Desktop/GD32VW553/V1_MQTT_OK/GD32VW55X_Wifi_BLE_SDK/GD32VW55x_RELEASE_V1.0.2/MSDK/cloud/alicloud/src/services/awss\awss_ap_scan.c ****     // copy ap detail information to g_apscan_info
 131:C:/Users/stapi/OneDrive/Desktop/GD32VW553/V1_MQTT_OK/GD32VW55X_Wifi_BLE_SDK/GD32VW55x_RELEASE_V1.0.2/MSDK/cloud/alicloud/src/services/awss\awss_ap_scan.c ****     g_apscan_info.auth = auth;
 132:C:/Users/stapi/OneDrive/Desktop/GD32VW553/V1_MQTT_OK/GD32VW55X_Wifi_BLE_SDK/GD32VW55x_RELEASE_V1.0.2/MSDK/cloud/alicloud/src/services/awss\awss_ap_scan.c ****     g_apscan_info.channel = channel;
 133:C:/Users/stapi/OneDrive/Desktop/GD32VW553/V1_MQTT_OK/GD32VW55X_Wifi_BLE_SDK/GD32VW55x_RELEASE_V1.0.2/MSDK/cloud/alicloud/src/services/awss\awss_ap_scan.c ****     g_apscan_info.encry[0] = group_cipher;
 134:C:/Users/stapi/OneDrive/Desktop/GD32VW553/V1_MQTT_OK/GD32VW55X_Wifi_BLE_SDK/GD32VW55x_RELEASE_V1.0.2/MSDK/cloud/alicloud/src/services/awss\awss_ap_scan.c ****     g_apscan_info.encry[1] = pairwise_cipher;
 135:C:/Users/stapi/OneDrive/Desktop/GD32VW553/V1_MQTT_OK/GD32VW55X_Wifi_BLE_SDK/GD32VW55x_RELEASE_V1.0.2/MSDK/cloud/alicloud/src/services/awss\awss_ap_scan.c ****     memcpy(g_apscan_info.mac, bssid, OS_ETH_ALEN);
 136:C:/Users/stapi/OneDrive/Desktop/GD32VW553/V1_MQTT_OK/GD32VW55X_Wifi_BLE_SDK/GD32VW55x_RELEASE_V1.0.2/MSDK/cloud/alicloud/src/services/awss\awss_ap_scan.c ****     g_apscan_info.rssi = rssi;
 137:C:/Users/stapi/OneDrive/Desktop/GD32VW553/V1_MQTT_OK/GD32VW55X_Wifi_BLE_SDK/GD32VW55x_RELEASE_V1.0.2/MSDK/cloud/alicloud/src/services/awss\awss_ap_scan.c ****     g_apscan_info.found = 1;
 138:C:/Users/stapi/OneDrive/Desktop/GD32VW553/V1_MQTT_OK/GD32VW55X_Wifi_BLE_SDK/GD32VW55x_RELEASE_V1.0.2/MSDK/cloud/alicloud/src/services/awss\awss_ap_scan.c **** 
 139:C:/Users/stapi/OneDrive/Desktop/GD32VW553/V1_MQTT_OK/GD32VW55X_Wifi_BLE_SDK/GD32VW55x_RELEASE_V1.0.2/MSDK/cloud/alicloud/src/services/awss\awss_ap_scan.c ****     awss_debug("apscan ssid: %s, mac:%02x%02x%02x%02x%02x%02x, rssi:%d, chan:%d", 
 140:C:/Users/stapi/OneDrive/Desktop/GD32VW553/V1_MQTT_OK/GD32VW55X_Wifi_BLE_SDK/GD32VW55x_RELEASE_V1.0.2/MSDK/cloud/alicloud/src/services/awss\awss_ap_scan.c ****                 g_apscan_info.ssid, g_apscan_info.mac[0], g_apscan_info.mac[1],
 141:C:/Users/stapi/OneDrive/Desktop/GD32VW553/V1_MQTT_OK/GD32VW55X_Wifi_BLE_SDK/GD32VW55x_RELEASE_V1.0.2/MSDK/cloud/alicloud/src/services/awss\awss_ap_scan.c ****                 g_apscan_info.mac[2], g_apscan_info.mac[3], g_apscan_info.mac[4],
 142:C:/Users/stapi/OneDrive/Desktop/GD32VW553/V1_MQTT_OK/GD32VW55X_Wifi_BLE_SDK/GD32VW55x_RELEASE_V1.0.2/MSDK/cloud/alicloud/src/services/awss\awss_ap_scan.c ****                 g_apscan_info.mac[5], g_apscan_info.rssi, g_apscan_info.channel);
 143:C:/Users/stapi/OneDrive/Desktop/GD32VW553/V1_MQTT_OK/GD32VW55X_Wifi_BLE_SDK/GD32VW55x_RELEASE_V1.0.2/MSDK/cloud/alicloud/src/services/awss\awss_ap_scan.c ****     return 0;
 144:C:/Users/stapi/OneDrive/Desktop/GD32VW553/V1_MQTT_OK/GD32VW55X_Wifi_BLE_SDK/GD32VW55x_RELEASE_V1.0.2/MSDK/cloud/alicloud/src/services/awss\awss_ap_scan.c **** }
  87              		.loc 1 144 1
  88 0042 4E85     		mv	a0,s3
  89 0044 2561     		addi	sp,sp,96
  90              		.cfi_remember_state
  91              		.cfi_def_cfa_offset 0
  92 0046 17030000 		tail	__riscv_restore_6
  92      67000300 
  93              		.cfi_restore 21
  94              		.cfi_restore 20
  95              		.cfi_restore 19
  96              		.cfi_restore 18
  97              		.cfi_restore 9
  98              		.cfi_restore 8
  99              		.cfi_restore 1
 100              		.cfi_def_cfa_offset -32
 101              	.LVL8:
 102              	.L3:
 103              		.cfi_restore_state
  85:C:/Users/stapi/OneDrive/Desktop/GD32VW553/V1_MQTT_OK/GD32VW55X_Wifi_BLE_SDK/GD32VW55x_RELEASE_V1.0.2/MSDK/cloud/alicloud/src/services/awss\awss_ap_scan.c ****     if (length <= 0) {
 104              		.loc 1 85 5 is_stmt 1
  85:C:/Users/stapi/OneDrive/Desktop/GD32VW553/V1_MQTT_OK/GD32VW55X_Wifi_BLE_SDK/GD32VW55x_RELEASE_V1.0.2/MSDK/cloud/alicloud/src/services/awss\awss_ap_scan.c ****     if (length <= 0) {
 105              		.loc 1 85 35 is_stmt 0
 106 004e 2286     		mv	a2,s0
 107 0050 2C10     		addi	a1,sp,40
 108 0052 6810     		addi	a0,sp,44
 109 0054 97000000 		call	zconfig_remove_link_header
 109      E7800000 
 110              	.LVL9:
  86:C:/Users/stapi/OneDrive/Desktop/GD32VW553/V1_MQTT_OK/GD32VW55X_Wifi_BLE_SDK/GD32VW55x_RELEASE_V1.0.2/MSDK/cloud/alicloud/src/services/awss\awss_ap_scan.c ****         return -1;
 111              		.loc 1 86 8
 112 005c A257     		lw	a5,40(sp)
  85:C:/Users/stapi/OneDrive/Desktop/GD32VW553/V1_MQTT_OK/GD32VW55X_Wifi_BLE_SDK/GD32VW55x_RELEASE_V1.0.2/MSDK/cloud/alicloud/src/services/awss\awss_ap_scan.c ****     if (length <= 0) {
 113              		.loc 1 85 35
 114 005e AA84     		mv	s1,a0
 115              	.LVL10:
  86:C:/Users/stapi/OneDrive/Desktop/GD32VW553/V1_MQTT_OK/GD32VW55X_Wifi_BLE_SDK/GD32VW55x_RELEASE_V1.0.2/MSDK/cloud/alicloud/src/services/awss\awss_ap_scan.c ****         return -1;
 116              		.loc 1 86 5 is_stmt 1
  86:C:/Users/stapi/OneDrive/Desktop/GD32VW553/V1_MQTT_OK/GD32VW55X_Wifi_BLE_SDK/GD32VW55x_RELEASE_V1.0.2/MSDK/cloud/alicloud/src/services/awss\awss_ap_scan.c ****         return -1;
 117              		.loc 1 86 8 is_stmt 0
 118 0060 E350F0FE 		ble	a5,zero,.L5
  91:C:/Users/stapi/OneDrive/Desktop/GD32VW553/V1_MQTT_OK/GD32VW55X_Wifi_BLE_SDK/GD32VW55x_RELEASE_V1.0.2/MSDK/cloud/alicloud/src/services/awss\awss_ap_scan.c ****     if (!ieee80211_is_beacon(fc) && !ieee80211_is_probe_resp(fc)) {
 119              		.loc 1 91 5 is_stmt 1
  91:C:/Users/stapi/OneDrive/Desktop/GD32VW553/V1_MQTT_OK/GD32VW55X_Wifi_BLE_SDK/GD32VW55x_RELEASE_V1.0.2/MSDK/cloud/alicloud/src/services/awss\awss_ap_scan.c ****     if (!ieee80211_is_beacon(fc) && !ieee80211_is_probe_resp(fc)) {
 120              		.loc 1 91 8 is_stmt 0
 121 0064 03540500 		lhu	s0,0(a0)
 122              	.LVL11:
  92:C:/Users/stapi/OneDrive/Desktop/GD32VW553/V1_MQTT_OK/GD32VW55X_Wifi_BLE_SDK/GD32VW55x_RELEASE_V1.0.2/MSDK/cloud/alicloud/src/services/awss\awss_ap_scan.c ****         return -1;
 123              		.loc 1 92 5 is_stmt 1
  92:C:/Users/stapi/OneDrive/Desktop/GD32VW553/V1_MQTT_OK/GD32VW55X_Wifi_BLE_SDK/GD32VW55x_RELEASE_V1.0.2/MSDK/cloud/alicloud/src/services/awss\awss_ap_scan.c ****         return -1;
 124              		.loc 1 92 10 is_stmt 0
 125 0068 2285     		mv	a0,s0
 126 006a 97000000 		call	ieee80211_is_beacon
 126      E7800000 
 127              	.LVL12:
  92:C:/Users/stapi/OneDrive/Desktop/GD32VW553/V1_MQTT_OK/GD32VW55X_Wifi_BLE_SDK/GD32VW55x_RELEASE_V1.0.2/MSDK/cloud/alicloud/src/services/awss\awss_ap_scan.c ****         return -1;
 128              		.loc 1 92 8
 129 0072 63050514 		beq	a0,zero,.L6
 130              	.L8:
  95:C:/Users/stapi/OneDrive/Desktop/GD32VW553/V1_MQTT_OK/GD32VW55X_Wifi_BLE_SDK/GD32VW55x_RELEASE_V1.0.2/MSDK/cloud/alicloud/src/services/awss\awss_ap_scan.c ****     if (ret < 0) {
 131              		.loc 1 95 5 is_stmt 1
  95:C:/Users/stapi/OneDrive/Desktop/GD32VW553/V1_MQTT_OK/GD32VW55X_Wifi_BLE_SDK/GD32VW55x_RELEASE_V1.0.2/MSDK/cloud/alicloud/src/services/awss\awss_ap_scan.c ****     if (ret < 0) {
 132              		.loc 1 95 11 is_stmt 0
 133 0076 4C18     		addi	a1,sp,52
 134 0078 2685     		mv	a0,s1
 135 007a 97000000 		call	ieee80211_get_bssid
 135      E7800000 
 136              	.LVL13:
  96:C:/Users/stapi/OneDrive/Desktop/GD32VW553/V1_MQTT_OK/GD32VW55X_Wifi_BLE_SDK/GD32VW55x_RELEASE_V1.0.2/MSDK/cloud/alicloud/src/services/awss\awss_ap_scan.c ****         return -1;
 137              		.loc 1 96 5 is_stmt 1
  96:C:/Users/stapi/OneDrive/Desktop/GD32VW553/V1_MQTT_OK/GD32VW55X_Wifi_BLE_SDK/GD32VW55x_RELEASE_V1.0.2/MSDK/cloud/alicloud/src/services/awss\awss_ap_scan.c ****         return -1;
 138              		.loc 1 96 8 is_stmt 0
 139 0082 E34F05FA 		blt	a0,zero,.L5
  99:C:/Users/stapi/OneDrive/Desktop/GD32VW553/V1_MQTT_OK/GD32VW55X_Wifi_BLE_SDK/GD32VW55x_RELEASE_V1.0.2/MSDK/cloud/alicloud/src/services/awss\awss_ap_scan.c ****     if (ret < 0) {
 140              		.loc 1 99 5 is_stmt 1
  99:C:/Users/stapi/OneDrive/Desktop/GD32VW553/V1_MQTT_OK/GD32VW55X_Wifi_BLE_SDK/GD32VW55x_RELEASE_V1.0.2/MSDK/cloud/alicloud/src/services/awss\awss_ap_scan.c ****     if (ret < 0) {
 141              		.loc 1 99 11 is_stmt 0
 142 0086 83558102 		lhu	a1,40(sp)
 143 008a 7018     		addi	a2,sp,60
 144 008c 2685     		mv	a0,s1
 145              	.LVL14:
 146 008e 97000000 		call	ieee80211_get_ssid
 146      E7800000 
 147              	.LVL15:
 100:C:/Users/stapi/OneDrive/Desktop/GD32VW553/V1_MQTT_OK/GD32VW55X_Wifi_BLE_SDK/GD32VW55x_RELEASE_V1.0.2/MSDK/cloud/alicloud/src/services/awss\awss_ap_scan.c ****         return -1;
 148              		.loc 1 100 5 is_stmt 1
 100:C:/Users/stapi/OneDrive/Desktop/GD32VW553/V1_MQTT_OK/GD32VW55X_Wifi_BLE_SDK/GD32VW55x_RELEASE_V1.0.2/MSDK/cloud/alicloud/src/services/awss\awss_ap_scan.c ****         return -1;
 149              		.loc 1 100 8 is_stmt 0
 150 0096 E34505FA 		blt	a0,zero,.L5
 105:C:/Users/stapi/OneDrive/Desktop/GD32VW553/V1_MQTT_OK/GD32VW55X_Wifi_BLE_SDK/GD32VW55x_RELEASE_V1.0.2/MSDK/cloud/alicloud/src/services/awss\awss_ap_scan.c ****         return -1;
 151              		.loc 1 105 5 is_stmt 1
 105:C:/Users/stapi/OneDrive/Desktop/GD32VW553/V1_MQTT_OK/GD32VW55X_Wifi_BLE_SDK/GD32VW55x_RELEASE_V1.0.2/MSDK/cloud/alicloud/src/services/awss\awss_ap_scan.c ****         return -1;
 152              		.loc 1 105 9 is_stmt 0
 153 009a 37040000 		lui	s0,%hi(.LANCHOR0)
 154              	.LVL16:
 155 009e 93050400 		addi	a1,s0,%lo(.LANCHOR0)
 156 00a2 AD05     		addi	a1,a1,11
 157 00a4 6818     		addi	a0,sp,60
 158              	.LVL17:
 159 00a6 97000000 		call	strcmp
 159      E7800000 
 160              	.LVL18:
 161 00ae AA89     		mv	s3,a0
 162 00b0 13040400 		addi	s0,s0,%lo(.LANCHOR0)
 163 00b4 B70A0000 		lui	s5,%hi(.LANCHOR0+11)
 105:C:/Users/stapi/OneDrive/Desktop/GD32VW553/V1_MQTT_OK/GD32VW55X_Wifi_BLE_SDK/GD32VW55x_RELEASE_V1.0.2/MSDK/cloud/alicloud/src/services/awss\awss_ap_scan.c ****         return -1;
 164              		.loc 1 105 8
 165 00b8 41F5     		bne	a0,zero,.L5
 109:C:/Users/stapi/OneDrive/Desktop/GD32VW553/V1_MQTT_OK/GD32VW55X_Wifi_BLE_SDK/GD32VW55x_RELEASE_V1.0.2/MSDK/cloud/alicloud/src/services/awss\awss_ap_scan.c **** 
 166              		.loc 1 109 5 is_stmt 1
 167              	.LVL19:
 112:C:/Users/stapi/OneDrive/Desktop/GD32VW553/V1_MQTT_OK/GD32VW55X_Wifi_BLE_SDK/GD32VW55x_RELEASE_V1.0.2/MSDK/cloud/alicloud/src/services/awss\awss_ap_scan.c ****     if (channel > ZC_MAX_CHANNEL || channel < ZC_MIN_CHANNEL) {
 168              		.loc 1 112 5
 112:C:/Users/stapi/OneDrive/Desktop/GD32VW553/V1_MQTT_OK/GD32VW55X_Wifi_BLE_SDK/GD32VW55x_RELEASE_V1.0.2/MSDK/cloud/alicloud/src/services/awss\awss_ap_scan.c ****     if (channel > ZC_MAX_CHANNEL || channel < ZC_MIN_CHANNEL) {
 169              		.loc 1 112 15 is_stmt 0
 170 00ba 83558102 		lhu	a1,40(sp)
 171 00be 2685     		mv	a0,s1
 172 00c0 97000000 		call	cfg80211_get_bss_channel
 172      E7800000 
 173              	.LVL20:
 112:C:/Users/stapi/OneDrive/Desktop/GD32VW553/V1_MQTT_OK/GD32VW55X_Wifi_BLE_SDK/GD32VW55x_RELEASE_V1.0.2/MSDK/cloud/alicloud/src/services/awss\awss_ap_scan.c ****     if (channel > ZC_MAX_CHANNEL || channel < ZC_MIN_CHANNEL) {
 174              		.loc 1 112 13
 175 00c8 1379F50F 		andi	s2,a0,0xff
 176              	.LVL21:
 113:C:/Users/stapi/OneDrive/Desktop/GD32VW553/V1_MQTT_OK/GD32VW55X_Wifi_BLE_SDK/GD32VW55x_RELEASE_V1.0.2/MSDK/cloud/alicloud/src/services/awss\awss_ap_scan.c ****         channel = 0;
 177              		.loc 1 113 5 is_stmt 1
 113:C:/Users/stapi/OneDrive/Desktop/GD32VW553/V1_MQTT_OK/GD32VW55X_Wifi_BLE_SDK/GD32VW55x_RELEASE_V1.0.2/MSDK/cloud/alicloud/src/services/awss\awss_ap_scan.c ****         channel = 0;
 178              		.loc 1 113 34 is_stmt 0
 179 00cc 9307F9FF 		addi	a5,s2,-1
 113:C:/Users/stapi/OneDrive/Desktop/GD32VW553/V1_MQTT_OK/GD32VW55X_Wifi_BLE_SDK/GD32VW55x_RELEASE_V1.0.2/MSDK/cloud/alicloud/src/services/awss\awss_ap_scan.c ****         channel = 0;
 180              		.loc 1 113 8
 181 00d0 93F7F70F 		andi	a5,a5,0xff
 182 00d4 3547     		li	a4,13
 183 00d6 6373F700 		bleu	a5,a4,.L9
 114:C:/Users/stapi/OneDrive/Desktop/GD32VW553/V1_MQTT_OK/GD32VW55X_Wifi_BLE_SDK/GD32VW55x_RELEASE_V1.0.2/MSDK/cloud/alicloud/src/services/awss\awss_ap_scan.c ****     }
 184              		.loc 1 114 17
 185 00da 0149     		li	s2,0
 186              	.LVL22:
 187              	.L9:
 116:C:/Users/stapi/OneDrive/Desktop/GD32VW553/V1_MQTT_OK/GD32VW55X_Wifi_BLE_SDK/GD32VW55x_RELEASE_V1.0.2/MSDK/cloud/alicloud/src/services/awss\awss_ap_scan.c ****                              &pairwise_cipher, &group_cipher);
 188              		.loc 1 116 5 is_stmt 1
 189 00dc 83558102 		lhu	a1,40(sp)
 190 00e0 13073103 		addi	a4,sp,51
 191 00e4 93062103 		addi	a3,sp,50
 192 00e8 13061103 		addi	a2,sp,49
 193 00ec 2685     		mv	a0,s1
 194 00ee 97000000 		call	cfg80211_get_cipher_info
 194      E7800000 
 195              	.LVL23:
 118:C:/Users/stapi/OneDrive/Desktop/GD32VW553/V1_MQTT_OK/GD32VW55X_Wifi_BLE_SDK/GD32VW55x_RELEASE_V1.0.2/MSDK/cloud/alicloud/src/services/awss\awss_ap_scan.c ****         auth = ZC_AUTH_TYPE_INVALID;
 196              		.loc 1 118 5
 118:C:/Users/stapi/OneDrive/Desktop/GD32VW553/V1_MQTT_OK/GD32VW55X_Wifi_BLE_SDK/GD32VW55x_RELEASE_V1.0.2/MSDK/cloud/alicloud/src/services/awss\awss_ap_scan.c ****         auth = ZC_AUTH_TYPE_INVALID;
 197              		.loc 1 118 8 is_stmt 0
 198 00f6 03471103 		lbu	a4,49(sp)
 199 00fa 9947     		li	a5,6
 200 00fc 63F5E700 		bleu	a4,a5,.L10
 119:C:/Users/stapi/OneDrive/Desktop/GD32VW553/V1_MQTT_OK/GD32VW55X_Wifi_BLE_SDK/GD32VW55x_RELEASE_V1.0.2/MSDK/cloud/alicloud/src/services/awss\awss_ap_scan.c ****     }
 201              		.loc 1 119 9 is_stmt 1
 119:C:/Users/stapi/OneDrive/Desktop/GD32VW553/V1_MQTT_OK/GD32VW55X_Wifi_BLE_SDK/GD32VW55x_RELEASE_V1.0.2/MSDK/cloud/alicloud/src/services/awss\awss_ap_scan.c ****     }
 202              		.loc 1 119 14 is_stmt 0
 203 0100 FD57     		li	a5,-1
 204 0102 A308F102 		sb	a5,49(sp)
 205              	.L10:
 121:C:/Users/stapi/OneDrive/Desktop/GD32VW553/V1_MQTT_OK/GD32VW55X_Wifi_BLE_SDK/GD32VW55x_RELEASE_V1.0.2/MSDK/cloud/alicloud/src/services/awss\awss_ap_scan.c ****         pairwise_cipher = ZC_ENC_TYPE_INVALID;
 206              		.loc 1 121 5 is_stmt 1
 121:C:/Users/stapi/OneDrive/Desktop/GD32VW553/V1_MQTT_OK/GD32VW55X_Wifi_BLE_SDK/GD32VW55x_RELEASE_V1.0.2/MSDK/cloud/alicloud/src/services/awss\awss_ap_scan.c ****         pairwise_cipher = ZC_ENC_TYPE_INVALID;
 207              		.loc 1 121 8 is_stmt 0
 208 0106 03472103 		lbu	a4,50(sp)
 209 010a 9147     		li	a5,4
 210 010c 63F5E700 		bleu	a4,a5,.L11
 122:C:/Users/stapi/OneDrive/Desktop/GD32VW553/V1_MQTT_OK/GD32VW55X_Wifi_BLE_SDK/GD32VW55x_RELEASE_V1.0.2/MSDK/cloud/alicloud/src/services/awss\awss_ap_scan.c ****     }
 211              		.loc 1 122 9 is_stmt 1
 122:C:/Users/stapi/OneDrive/Desktop/GD32VW553/V1_MQTT_OK/GD32VW55X_Wifi_BLE_SDK/GD32VW55x_RELEASE_V1.0.2/MSDK/cloud/alicloud/src/services/awss\awss_ap_scan.c ****     }
 212              		.loc 1 122 25 is_stmt 0
 213 0110 FD57     		li	a5,-1
 214 0112 2309F102 		sb	a5,50(sp)
 215              	.L11:
 124:C:/Users/stapi/OneDrive/Desktop/GD32VW553/V1_MQTT_OK/GD32VW55X_Wifi_BLE_SDK/GD32VW55x_RELEASE_V1.0.2/MSDK/cloud/alicloud/src/services/awss\awss_ap_scan.c ****         group_cipher = ZC_ENC_TYPE_INVALID;
 216              		.loc 1 124 5 is_stmt 1
 124:C:/Users/stapi/OneDrive/Desktop/GD32VW553/V1_MQTT_OK/GD32VW55X_Wifi_BLE_SDK/GD32VW55x_RELEASE_V1.0.2/MSDK/cloud/alicloud/src/services/awss\awss_ap_scan.c ****         group_cipher = ZC_ENC_TYPE_INVALID;
 217              		.loc 1 124 8 is_stmt 0
 218 0116 03473103 		lbu	a4,51(sp)
 219 011a 9147     		li	a5,4
 220 011c 63F5E700 		bleu	a4,a5,.L12
 125:C:/Users/stapi/OneDrive/Desktop/GD32VW553/V1_MQTT_OK/GD32VW55X_Wifi_BLE_SDK/GD32VW55x_RELEASE_V1.0.2/MSDK/cloud/alicloud/src/services/awss\awss_ap_scan.c ****     }
 221              		.loc 1 125 9 is_stmt 1
 125:C:/Users/stapi/OneDrive/Desktop/GD32VW553/V1_MQTT_OK/GD32VW55X_Wifi_BLE_SDK/GD32VW55x_RELEASE_V1.0.2/MSDK/cloud/alicloud/src/services/awss\awss_ap_scan.c ****     }
 222              		.loc 1 125 22 is_stmt 0
 223 0120 FD57     		li	a5,-1
 224 0122 A309F102 		sb	a5,51(sp)
 225              	.L12:
 127:C:/Users/stapi/OneDrive/Desktop/GD32VW553/V1_MQTT_OK/GD32VW55X_Wifi_BLE_SDK/GD32VW55x_RELEASE_V1.0.2/MSDK/cloud/alicloud/src/services/awss\awss_ap_scan.c ****         pairwise_cipher = ZC_ENC_TYPE_AES;
 226              		.loc 1 127 5 is_stmt 1
 127:C:/Users/stapi/OneDrive/Desktop/GD32VW553/V1_MQTT_OK/GD32VW55X_Wifi_BLE_SDK/GD32VW55x_RELEASE_V1.0.2/MSDK/cloud/alicloud/src/services/awss\awss_ap_scan.c ****         pairwise_cipher = ZC_ENC_TYPE_AES;
 227              		.loc 1 127 8 is_stmt 0
 228 0126 03472103 		lbu	a4,50(sp)
 229 012a 9147     		li	a5,4
 230 012c 6315F700 		bne	a4,a5,.L13
 128:C:/Users/stapi/OneDrive/Desktop/GD32VW553/V1_MQTT_OK/GD32VW55X_Wifi_BLE_SDK/GD32VW55x_RELEASE_V1.0.2/MSDK/cloud/alicloud/src/services/awss\awss_ap_scan.c ****     }
 231              		.loc 1 128 9 is_stmt 1
 128:C:/Users/stapi/OneDrive/Desktop/GD32VW553/V1_MQTT_OK/GD32VW55X_Wifi_BLE_SDK/GD32VW55x_RELEASE_V1.0.2/MSDK/cloud/alicloud/src/services/awss\awss_ap_scan.c ****     }
 232              		.loc 1 128 25 is_stmt 0
 233 0130 8D47     		li	a5,3
 234 0132 2309F102 		sb	a5,50(sp)
 235              	.L13:
 131:C:/Users/stapi/OneDrive/Desktop/GD32VW553/V1_MQTT_OK/GD32VW55X_Wifi_BLE_SDK/GD32VW55x_RELEASE_V1.0.2/MSDK/cloud/alicloud/src/services/awss\awss_ap_scan.c ****     g_apscan_info.channel = channel;
 236              		.loc 1 131 5 is_stmt 1
 131:C:/Users/stapi/OneDrive/Desktop/GD32VW553/V1_MQTT_OK/GD32VW55X_Wifi_BLE_SDK/GD32VW55x_RELEASE_V1.0.2/MSDK/cloud/alicloud/src/services/awss\awss_ap_scan.c ****     g_apscan_info.channel = channel;
 237              		.loc 1 131 24 is_stmt 0
 238 0136 83471103 		lbu	a5,49(sp)
 135:C:/Users/stapi/OneDrive/Desktop/GD32VW553/V1_MQTT_OK/GD32VW55X_Wifi_BLE_SDK/GD32VW55x_RELEASE_V1.0.2/MSDK/cloud/alicloud/src/services/awss\awss_ap_scan.c ****     g_apscan_info.rssi = rssi;
 239              		.loc 1 135 5
 240 013a 4C18     		addi	a1,sp,52
 241 013c 1946     		li	a2,6
 131:C:/Users/stapi/OneDrive/Desktop/GD32VW553/V1_MQTT_OK/GD32VW55X_Wifi_BLE_SDK/GD32VW55x_RELEASE_V1.0.2/MSDK/cloud/alicloud/src/services/awss\awss_ap_scan.c ****     g_apscan_info.channel = channel;
 242              		.loc 1 131 24
 243 013e A300F400 		sb	a5,1(s0)
 132:C:/Users/stapi/OneDrive/Desktop/GD32VW553/V1_MQTT_OK/GD32VW55X_Wifi_BLE_SDK/GD32VW55x_RELEASE_V1.0.2/MSDK/cloud/alicloud/src/services/awss\awss_ap_scan.c ****     g_apscan_info.encry[0] = group_cipher;
 244              		.loc 1 132 5 is_stmt 1
 133:C:/Users/stapi/OneDrive/Desktop/GD32VW553/V1_MQTT_OK/GD32VW55X_Wifi_BLE_SDK/GD32VW55x_RELEASE_V1.0.2/MSDK/cloud/alicloud/src/services/awss\awss_ap_scan.c ****     g_apscan_info.encry[1] = pairwise_cipher;
 245              		.loc 1 133 28 is_stmt 0
 246 0142 83473103 		lbu	a5,51(sp)
 135:C:/Users/stapi/OneDrive/Desktop/GD32VW553/V1_MQTT_OK/GD32VW55X_Wifi_BLE_SDK/GD32VW55x_RELEASE_V1.0.2/MSDK/cloud/alicloud/src/services/awss\awss_ap_scan.c ****     g_apscan_info.rssi = rssi;
 247              		.loc 1 135 5
 248 0146 13055400 		addi	a0,s0,5
 132:C:/Users/stapi/OneDrive/Desktop/GD32VW553/V1_MQTT_OK/GD32VW55X_Wifi_BLE_SDK/GD32VW55x_RELEASE_V1.0.2/MSDK/cloud/alicloud/src/services/awss\awss_ap_scan.c ****     g_apscan_info.encry[0] = group_cipher;
 249              		.loc 1 132 27
 250 014a 23012401 		sb	s2,2(s0)
 133:C:/Users/stapi/OneDrive/Desktop/GD32VW553/V1_MQTT_OK/GD32VW55X_Wifi_BLE_SDK/GD32VW55x_RELEASE_V1.0.2/MSDK/cloud/alicloud/src/services/awss\awss_ap_scan.c ****     g_apscan_info.encry[1] = pairwise_cipher;
 251              		.loc 1 133 5 is_stmt 1
 133:C:/Users/stapi/OneDrive/Desktop/GD32VW553/V1_MQTT_OK/GD32VW55X_Wifi_BLE_SDK/GD32VW55x_RELEASE_V1.0.2/MSDK/cloud/alicloud/src/services/awss\awss_ap_scan.c ****     g_apscan_info.encry[1] = pairwise_cipher;
 252              		.loc 1 133 28 is_stmt 0
 253 014e A301F400 		sb	a5,3(s0)
 134:C:/Users/stapi/OneDrive/Desktop/GD32VW553/V1_MQTT_OK/GD32VW55X_Wifi_BLE_SDK/GD32VW55x_RELEASE_V1.0.2/MSDK/cloud/alicloud/src/services/awss\awss_ap_scan.c ****     memcpy(g_apscan_info.mac, bssid, OS_ETH_ALEN);
 254              		.loc 1 134 5 is_stmt 1
 134:C:/Users/stapi/OneDrive/Desktop/GD32VW553/V1_MQTT_OK/GD32VW55X_Wifi_BLE_SDK/GD32VW55x_RELEASE_V1.0.2/MSDK/cloud/alicloud/src/services/awss\awss_ap_scan.c ****     memcpy(g_apscan_info.mac, bssid, OS_ETH_ALEN);
 255              		.loc 1 134 28 is_stmt 0
 256 0152 83472103 		lbu	a5,50(sp)
 257 0156 2302F400 		sb	a5,4(s0)
 135:C:/Users/stapi/OneDrive/Desktop/GD32VW553/V1_MQTT_OK/GD32VW55X_Wifi_BLE_SDK/GD32VW55x_RELEASE_V1.0.2/MSDK/cloud/alicloud/src/services/awss\awss_ap_scan.c ****     g_apscan_info.rssi = rssi;
 258              		.loc 1 135 5 is_stmt 1
 259 015a 97000000 		call	memcpy
 259      E7800000 
 260              	.LVL24:
 136:C:/Users/stapi/OneDrive/Desktop/GD32VW553/V1_MQTT_OK/GD32VW55X_Wifi_BLE_SDK/GD32VW55x_RELEASE_V1.0.2/MSDK/cloud/alicloud/src/services/awss\awss_ap_scan.c ****     g_apscan_info.found = 1;
 261              		.loc 1 136 5
 137:C:/Users/stapi/OneDrive/Desktop/GD32VW553/V1_MQTT_OK/GD32VW55X_Wifi_BLE_SDK/GD32VW55x_RELEASE_V1.0.2/MSDK/cloud/alicloud/src/services/awss\awss_ap_scan.c **** 
 262              		.loc 1 137 25 is_stmt 0
 263 0162 8547     		li	a5,1
 264 0164 2300F400 		sb	a5,0(s0)
 136:C:/Users/stapi/OneDrive/Desktop/GD32VW553/V1_MQTT_OK/GD32VW55X_Wifi_BLE_SDK/GD32VW55x_RELEASE_V1.0.2/MSDK/cloud/alicloud/src/services/awss\awss_ap_scan.c ****     g_apscan_info.found = 1;
 265              		.loc 1 136 24
 266 0168 23064403 		sb	s4,44(s0)
 137:C:/Users/stapi/OneDrive/Desktop/GD32VW553/V1_MQTT_OK/GD32VW55X_Wifi_BLE_SDK/GD32VW55x_RELEASE_V1.0.2/MSDK/cloud/alicloud/src/services/awss\awss_ap_scan.c **** 
 267              		.loc 1 137 5 is_stmt 1
 139:C:/Users/stapi/OneDrive/Desktop/GD32VW553/V1_MQTT_OK/GD32VW55X_Wifi_BLE_SDK/GD32VW55x_RELEASE_V1.0.2/MSDK/cloud/alicloud/src/services/awss\awss_ap_scan.c ****                 g_apscan_info.ssid, g_apscan_info.mac[0], g_apscan_info.mac[1],
 268              		.loc 1 139 5
 269 016c 4ACA     		sw	s2,20(sp)
 270 016e 52C8     		sw	s4,16(sp)
 271 0170 8347A400 		lbu	a5,10(s0)
 272 0174 37070000 		lui	a4,%hi(.LC0)
 273 0178 B7050000 		lui	a1,%hi(.LANCHOR1)
 274 017c 3EC6     		sw	a5,12(sp)
 275 017e 83479400 		lbu	a5,9(s0)
 276 0182 37050000 		lui	a0,%hi(.LC1)
 277 0186 13070700 		addi	a4,a4,%lo(.LC0)
 278 018a 3EC4     		sw	a5,8(sp)
 279 018c 83478400 		lbu	a5,8(s0)
 280 0190 9546     		li	a3,5
 281 0192 1306B008 		li	a2,139
 282 0196 3EC2     		sw	a5,4(sp)
 283 0198 83477400 		lbu	a5,7(s0)
 284 019c 93850500 		addi	a1,a1,%lo(.LANCHOR1)
 285 01a0 13050500 		addi	a0,a0,%lo(.LC1)
 286 01a4 3EC0     		sw	a5,0(sp)
 287 01a6 83486400 		lbu	a7,6(s0)
 288 01aa 03485400 		lbu	a6,5(s0)
 289 01ae 9387BA00 		addi	a5,s5,%lo(.LANCHOR0+11)
 290 01b2 97000000 		call	LITE_syslog
 290      E7800000 
 291              	.LVL25:
 143:C:/Users/stapi/OneDrive/Desktop/GD32VW553/V1_MQTT_OK/GD32VW55X_Wifi_BLE_SDK/GD32VW55x_RELEASE_V1.0.2/MSDK/cloud/alicloud/src/services/awss\awss_ap_scan.c **** }
 292              		.loc 1 143 5
 143:C:/Users/stapi/OneDrive/Desktop/GD32VW553/V1_MQTT_OK/GD32VW55X_Wifi_BLE_SDK/GD32VW55x_RELEASE_V1.0.2/MSDK/cloud/alicloud/src/services/awss\awss_ap_scan.c **** }
 293              		.loc 1 143 12 is_stmt 0
 294 01ba 61B5     		j	.L1
 295              	.LVL26:
 296              	.L6:
  92:C:/Users/stapi/OneDrive/Desktop/GD32VW553/V1_MQTT_OK/GD32VW55X_Wifi_BLE_SDK/GD32VW55x_RELEASE_V1.0.2/MSDK/cloud/alicloud/src/services/awss\awss_ap_scan.c ****         return -1;
 297              		.loc 1 92 38 discriminator 1
 298 01bc 2285     		mv	a0,s0
 299 01be 97000000 		call	ieee80211_is_probe_resp
 299      E7800000 
 300              	.LVL27:
  92:C:/Users/stapi/OneDrive/Desktop/GD32VW553/V1_MQTT_OK/GD32VW55X_Wifi_BLE_SDK/GD32VW55x_RELEASE_V1.0.2/MSDK/cloud/alicloud/src/services/awss\awss_ap_scan.c ****         return -1;
 301              		.loc 1 92 34 discriminator 1
 302 01c6 E31805EA 		bne	a0,zero,.L8
 303 01ca 9DBD     		j	.L5
 304              		.cfi_endproc
 305              	.LFE50:
 307              		.section	.text.os_get_time_ms,"ax",@progbits
 308              		.align	1
 310              	os_get_time_ms:
 311              	.LFB20:
 312              		.file 2 "..\\..\\..\\..\\cloud\\alicloud\\src\\services\\dev_bind\\os/os.h"
   1:..\..\..\..\cloud\alicloud\src\services\dev_bind\os/os.h **** /*
   2:..\..\..\..\cloud\alicloud\src\services\dev_bind\os/os.h ****  * Copyright (C) 2015-2018 Alibaba Group Holding Limited
   3:..\..\..\..\cloud\alicloud\src\services\dev_bind\os/os.h ****  */
   4:..\..\..\..\cloud\alicloud\src\services\dev_bind\os/os.h **** 
   5:..\..\..\..\cloud\alicloud\src\services\dev_bind\os/os.h **** #ifndef __AWSS_OS_H__
   6:..\..\..\..\cloud\alicloud\src\services\dev_bind\os/os.h **** #define __AWSS_OS_H__
   7:..\..\..\..\cloud\alicloud\src\services\dev_bind\os/os.h **** 
   8:..\..\..\..\cloud\alicloud\src\services\dev_bind\os/os.h **** #ifdef __cplusplus
   9:..\..\..\..\cloud\alicloud\src\services\dev_bind\os/os.h **** extern "C" {
  10:..\..\..\..\cloud\alicloud\src\services\dev_bind\os/os.h **** #endif
  11:..\..\..\..\cloud\alicloud\src\services\dev_bind\os/os.h **** #include <ctype.h>
  12:..\..\..\..\cloud\alicloud\src\services\dev_bind\os/os.h **** #include "iot_import.h"
  13:..\..\..\..\cloud\alicloud\src\services\dev_bind\os/os.h **** #include "iot_export.h"
  14:..\..\..\..\cloud\alicloud\src\services\dev_bind\os/os.h **** #include "product/product.h"
  15:..\..\..\..\cloud\alicloud\src\services\dev_bind\os/os.h **** #include "platform.h"
  16:..\..\..\..\cloud\alicloud\src\services\dev_bind\os/os.h **** 
  17:..\..\..\..\cloud\alicloud\src\services\dev_bind\os/os.h **** /** @defgroup group_os os
  18:..\..\..\..\cloud\alicloud\src\services\dev_bind\os/os.h ****  *  @{
  19:..\..\..\..\cloud\alicloud\src\services\dev_bind\os/os.h ****  */
  20:..\..\..\..\cloud\alicloud\src\services\dev_bind\os/os.h **** 
  21:..\..\..\..\cloud\alicloud\src\services\dev_bind\os/os.h **** #define OS_MAX_SSID_LEN         PLATFORM_MAX_SSID_LEN
  22:..\..\..\..\cloud\alicloud\src\services\dev_bind\os/os.h **** #define OS_MAX_PASSWD_LEN       PLATFORM_MAX_PASSWD_LEN
  23:..\..\..\..\cloud\alicloud\src\services\dev_bind\os/os.h **** 
  24:..\..\..\..\cloud\alicloud\src\services\dev_bind\os/os.h **** #define OS_MAC_LEN              PLATFORM_MAC_LEN
  25:..\..\..\..\cloud\alicloud\src\services\dev_bind\os/os.h **** #define OS_IP_LEN               PLATFORM_IP_LEN
  26:..\..\..\..\cloud\alicloud\src\services\dev_bind\os/os.h **** #define OS_ETH_ALEN             ETH_ALEN
  27:..\..\..\..\cloud\alicloud\src\services\dev_bind\os/os.h **** 
  28:..\..\..\..\cloud\alicloud\src\services\dev_bind\os/os.h **** #define OS_PRODUCT_KEY_LEN      PRODUCT_KEY_LEN
  29:..\..\..\..\cloud\alicloud\src\services\dev_bind\os/os.h **** #define OS_PRODUCT_SECRET_LEN   PRODUCT_SECRET_LEN
  30:..\..\..\..\cloud\alicloud\src\services\dev_bind\os/os.h **** #define OS_DEVICE_NAME_LEN      DEVICE_NAME_LEN
  31:..\..\..\..\cloud\alicloud\src\services\dev_bind\os/os.h **** #define OS_DEVICE_SECRET_LEN    DEVICE_SECRET_LEN
  32:..\..\..\..\cloud\alicloud\src\services\dev_bind\os/os.h **** 
  33:..\..\..\..\cloud\alicloud\src\services\dev_bind\os/os.h **** /***************************************** Misc Interface *****************************************
  34:..\..\..\..\cloud\alicloud\src\services\dev_bind\os/os.h **** 
  35:..\..\..\..\cloud\alicloud\src\services\dev_bind\os/os.h **** /** @defgroup group_misc misc
  36:..\..\..\..\cloud\alicloud\src\services\dev_bind\os/os.h ****  *  @{
  37:..\..\..\..\cloud\alicloud\src\services\dev_bind\os/os.h ****  */
  38:..\..\..\..\cloud\alicloud\src\services\dev_bind\os/os.h **** /**
  39:..\..\..\..\cloud\alicloud\src\services\dev_bind\os/os.h ****  * @brief .
  40:..\..\..\..\cloud\alicloud\src\services\dev_bind\os/os.h ****  *
  41:..\..\..\..\cloud\alicloud\src\services\dev_bind\os/os.h ****  * @param None.
  42:..\..\..\..\cloud\alicloud\src\services\dev_bind\os/os.h ****  * @return
  43:..\..\..\..\cloud\alicloud\src\services\dev_bind\os/os.h ****  * @verbatim
  44:..\..\..\..\cloud\alicloud\src\services\dev_bind\os/os.h ****  * = 0, This platform is little endian.
  45:..\..\..\..\cloud\alicloud\src\services\dev_bind\os/os.h ****  * = 1, This platform is big endian.
  46:..\..\..\..\cloud\alicloud\src\services\dev_bind\os/os.h ****  * @endverbatim
  47:..\..\..\..\cloud\alicloud\src\services\dev_bind\os/os.h ****  * @see None.
  48:..\..\..\..\cloud\alicloud\src\services\dev_bind\os/os.h ****  * @note None.
  49:..\..\..\..\cloud\alicloud\src\services\dev_bind\os/os.h ****  */
  50:..\..\..\..\cloud\alicloud\src\services\dev_bind\os/os.h **** static inline int os_is_big_endian(void)
  51:..\..\..\..\cloud\alicloud\src\services\dev_bind\os/os.h **** {
  52:..\..\..\..\cloud\alicloud\src\services\dev_bind\os/os.h ****     uint32_t data = 0xFF000000;
  53:..\..\..\..\cloud\alicloud\src\services\dev_bind\os/os.h **** 
  54:..\..\..\..\cloud\alicloud\src\services\dev_bind\os/os.h ****     if (0xFF == *(uint8_t *) & data) {
  55:..\..\..\..\cloud\alicloud\src\services\dev_bind\os/os.h ****         return 1;                                    //big endian
  56:..\..\..\..\cloud\alicloud\src\services\dev_bind\os/os.h ****     }
  57:..\..\..\..\cloud\alicloud\src\services\dev_bind\os/os.h **** 
  58:..\..\..\..\cloud\alicloud\src\services\dev_bind\os/os.h ****     return 0;                                        //little endian
  59:..\..\..\..\cloud\alicloud\src\services\dev_bind\os/os.h **** }
  60:..\..\..\..\cloud\alicloud\src\services\dev_bind\os/os.h **** 
  61:..\..\..\..\cloud\alicloud\src\services\dev_bind\os/os.h **** /**
  62:..\..\..\..\cloud\alicloud\src\services\dev_bind\os/os.h ****  * @brief Convert the data from byte order of current CPU(the "host") to big-endian.
  63:..\..\..\..\cloud\alicloud\src\services\dev_bind\os/os.h ****    The size of the data is 16 bits.
  64:..\..\..\..\cloud\alicloud\src\services\dev_bind\os/os.h ****  *
  65:..\..\..\..\cloud\alicloud\src\services\dev_bind\os/os.h ****  * @param[in] data @n Data to be converted.
  66:..\..\..\..\cloud\alicloud\src\services\dev_bind\os/os.h ****  * @return Conversion result.
  67:..\..\..\..\cloud\alicloud\src\services\dev_bind\os/os.h ****  * @see None.
  68:..\..\..\..\cloud\alicloud\src\services\dev_bind\os/os.h ****  * @note None.
  69:..\..\..\..\cloud\alicloud\src\services\dev_bind\os/os.h ****  */
  70:..\..\..\..\cloud\alicloud\src\services\dev_bind\os/os.h **** uint16_t os_htobe16(uint16_t data);
  71:..\..\..\..\cloud\alicloud\src\services\dev_bind\os/os.h **** 
  72:..\..\..\..\cloud\alicloud\src\services\dev_bind\os/os.h **** /**
  73:..\..\..\..\cloud\alicloud\src\services\dev_bind\os/os.h ****  * @brief Convert the data from host to little-endian.
  74:..\..\..\..\cloud\alicloud\src\services\dev_bind\os/os.h ****    The size of the data is 16 bits.
  75:..\..\..\..\cloud\alicloud\src\services\dev_bind\os/os.h ****  *
  76:..\..\..\..\cloud\alicloud\src\services\dev_bind\os/os.h ****  * @param[in] data @n Data to be converted.
  77:..\..\..\..\cloud\alicloud\src\services\dev_bind\os/os.h ****  * @return Conversion result.
  78:..\..\..\..\cloud\alicloud\src\services\dev_bind\os/os.h ****  * @see None.
  79:..\..\..\..\cloud\alicloud\src\services\dev_bind\os/os.h ****  * @note None.
  80:..\..\..\..\cloud\alicloud\src\services\dev_bind\os/os.h ****  */
  81:..\..\..\..\cloud\alicloud\src\services\dev_bind\os/os.h **** uint16_t os_htole16(uint16_t data);
  82:..\..\..\..\cloud\alicloud\src\services\dev_bind\os/os.h **** 
  83:..\..\..\..\cloud\alicloud\src\services\dev_bind\os/os.h **** /**
  84:..\..\..\..\cloud\alicloud\src\services\dev_bind\os/os.h ****  * @brief Convert the data from big-endian to host.
  85:..\..\..\..\cloud\alicloud\src\services\dev_bind\os/os.h ****    The size of the data is 16 bits.
  86:..\..\..\..\cloud\alicloud\src\services\dev_bind\os/os.h ****  *
  87:..\..\..\..\cloud\alicloud\src\services\dev_bind\os/os.h ****  * @param[in] data @n Data to be converted.
  88:..\..\..\..\cloud\alicloud\src\services\dev_bind\os/os.h ****  * @return Conversion result.
  89:..\..\..\..\cloud\alicloud\src\services\dev_bind\os/os.h ****  * @see None.
  90:..\..\..\..\cloud\alicloud\src\services\dev_bind\os/os.h ****  * @note None.
  91:..\..\..\..\cloud\alicloud\src\services\dev_bind\os/os.h ****  */
  92:..\..\..\..\cloud\alicloud\src\services\dev_bind\os/os.h **** uint16_t os_be16toh(uint16_t data);
  93:..\..\..\..\cloud\alicloud\src\services\dev_bind\os/os.h **** 
  94:..\..\..\..\cloud\alicloud\src\services\dev_bind\os/os.h **** /**
  95:..\..\..\..\cloud\alicloud\src\services\dev_bind\os/os.h ****  * @brief Convert the data from little-endian to host.
  96:..\..\..\..\cloud\alicloud\src\services\dev_bind\os/os.h ****    The size of the data is 16 bits.
  97:..\..\..\..\cloud\alicloud\src\services\dev_bind\os/os.h ****  *
  98:..\..\..\..\cloud\alicloud\src\services\dev_bind\os/os.h ****  * @param[in] data @n Data to be converted.
  99:..\..\..\..\cloud\alicloud\src\services\dev_bind\os/os.h ****  * @return Conversion result.
 100:..\..\..\..\cloud\alicloud\src\services\dev_bind\os/os.h ****  * @see None.
 101:..\..\..\..\cloud\alicloud\src\services\dev_bind\os/os.h ****  * @note None.
 102:..\..\..\..\cloud\alicloud\src\services\dev_bind\os/os.h ****  */
 103:..\..\..\..\cloud\alicloud\src\services\dev_bind\os/os.h **** uint16_t os_le16toh(uint16_t data);
 104:..\..\..\..\cloud\alicloud\src\services\dev_bind\os/os.h **** 
 105:..\..\..\..\cloud\alicloud\src\services\dev_bind\os/os.h **** /**
 106:..\..\..\..\cloud\alicloud\src\services\dev_bind\os/os.h ****  * @brief Convert the data from little-endian to host.
 107:..\..\..\..\cloud\alicloud\src\services\dev_bind\os/os.h ****    The size of the data is 32 bits.
 108:..\..\..\..\cloud\alicloud\src\services\dev_bind\os/os.h ****  *
 109:..\..\..\..\cloud\alicloud\src\services\dev_bind\os/os.h ****  * @param[in] data @n Data to be converted.
 110:..\..\..\..\cloud\alicloud\src\services\dev_bind\os/os.h ****  * @return Conversion result.
 111:..\..\..\..\cloud\alicloud\src\services\dev_bind\os/os.h ****  * @see None.
 112:..\..\..\..\cloud\alicloud\src\services\dev_bind\os/os.h ****  * @note None.
 113:..\..\..\..\cloud\alicloud\src\services\dev_bind\os/os.h ****  */
 114:..\..\..\..\cloud\alicloud\src\services\dev_bind\os/os.h **** uint32_t os_le32toh(uint32_t data);
 115:..\..\..\..\cloud\alicloud\src\services\dev_bind\os/os.h **** 
 116:..\..\..\..\cloud\alicloud\src\services\dev_bind\os/os.h **** /**
 117:..\..\..\..\cloud\alicloud\src\services\dev_bind\os/os.h ****  * @brief Convert the data from host to big-endian.
 118:..\..\..\..\cloud\alicloud\src\services\dev_bind\os/os.h ****    The size of the data is 64 bits.
 119:..\..\..\..\cloud\alicloud\src\services\dev_bind\os/os.h ****  *
 120:..\..\..\..\cloud\alicloud\src\services\dev_bind\os/os.h ****  * @param[in] data @n Data to be converted.
 121:..\..\..\..\cloud\alicloud\src\services\dev_bind\os/os.h ****  * @return Conversion result.
 122:..\..\..\..\cloud\alicloud\src\services\dev_bind\os/os.h ****  * @see None.
 123:..\..\..\..\cloud\alicloud\src\services\dev_bind\os/os.h ****  * @note None.
 124:..\..\..\..\cloud\alicloud\src\services\dev_bind\os/os.h ****  */
 125:..\..\..\..\cloud\alicloud\src\services\dev_bind\os/os.h **** //uint64_t os_htobe64(uint64_t data);
 126:..\..\..\..\cloud\alicloud\src\services\dev_bind\os/os.h **** 
 127:..\..\..\..\cloud\alicloud\src\services\dev_bind\os/os.h **** /**
 128:..\..\..\..\cloud\alicloud\src\services\dev_bind\os/os.h ****  * @brief Convert the data from host to little-endian.
 129:..\..\..\..\cloud\alicloud\src\services\dev_bind\os/os.h ****    The size of the data is 64 bits.
 130:..\..\..\..\cloud\alicloud\src\services\dev_bind\os/os.h ****  *
 131:..\..\..\..\cloud\alicloud\src\services\dev_bind\os/os.h ****  * @param[in] data @n Data to be converted.
 132:..\..\..\..\cloud\alicloud\src\services\dev_bind\os/os.h ****  * @return Conversion result.
 133:..\..\..\..\cloud\alicloud\src\services\dev_bind\os/os.h ****  * @see None.
 134:..\..\..\..\cloud\alicloud\src\services\dev_bind\os/os.h ****  * @note None.
 135:..\..\..\..\cloud\alicloud\src\services\dev_bind\os/os.h ****  */
 136:..\..\..\..\cloud\alicloud\src\services\dev_bind\os/os.h **** //uint64_t os_htole64(uint64_t data);
 137:..\..\..\..\cloud\alicloud\src\services\dev_bind\os/os.h **** 
 138:..\..\..\..\cloud\alicloud\src\services\dev_bind\os/os.h **** /**
 139:..\..\..\..\cloud\alicloud\src\services\dev_bind\os/os.h ****  * @brief Convert the data from big-endian to host.
 140:..\..\..\..\cloud\alicloud\src\services\dev_bind\os/os.h ****    The size of the data is 64 bits.
 141:..\..\..\..\cloud\alicloud\src\services\dev_bind\os/os.h ****  *
 142:..\..\..\..\cloud\alicloud\src\services\dev_bind\os/os.h ****  * @param[in] data @n Data to be converted.
 143:..\..\..\..\cloud\alicloud\src\services\dev_bind\os/os.h ****  * @return Conversion result.
 144:..\..\..\..\cloud\alicloud\src\services\dev_bind\os/os.h ****  * @see None.
 145:..\..\..\..\cloud\alicloud\src\services\dev_bind\os/os.h ****  * @note None.
 146:..\..\..\..\cloud\alicloud\src\services\dev_bind\os/os.h ****  */
 147:..\..\..\..\cloud\alicloud\src\services\dev_bind\os/os.h **** //uint64_t os_be64toh(uint64_t data);
 148:..\..\..\..\cloud\alicloud\src\services\dev_bind\os/os.h **** 
 149:..\..\..\..\cloud\alicloud\src\services\dev_bind\os/os.h **** /**
 150:..\..\..\..\cloud\alicloud\src\services\dev_bind\os/os.h ****  * @brief Convert the data from little-endian to host.
 151:..\..\..\..\cloud\alicloud\src\services\dev_bind\os/os.h ****    The size of the data is 64 bits.
 152:..\..\..\..\cloud\alicloud\src\services\dev_bind\os/os.h ****  *
 153:..\..\..\..\cloud\alicloud\src\services\dev_bind\os/os.h ****  * @param[in] data @n Data to be converted.
 154:..\..\..\..\cloud\alicloud\src\services\dev_bind\os/os.h ****  * @return Conversion result.
 155:..\..\..\..\cloud\alicloud\src\services\dev_bind\os/os.h ****  * @see None.
 156:..\..\..\..\cloud\alicloud\src\services\dev_bind\os/os.h ****  * @note None.
 157:..\..\..\..\cloud\alicloud\src\services\dev_bind\os/os.h ****  */
 158:..\..\..\..\cloud\alicloud\src\services\dev_bind\os/os.h **** //uint64_t os_le64toh(uint64_t data);
 159:..\..\..\..\cloud\alicloud\src\services\dev_bind\os/os.h **** 
 160:..\..\..\..\cloud\alicloud\src\services\dev_bind\os/os.h **** /**
 161:..\..\..\..\cloud\alicloud\src\services\dev_bind\os/os.h ****  * @brief Get unaligned 16 bits data which is big-endian and convert to host byte order.
 162:..\..\..\..\cloud\alicloud\src\services\dev_bind\os/os.h ****  *
 163:..\..\..\..\cloud\alicloud\src\services\dev_bind\os/os.h ****  * @param[in] ptr @n The start address of the unaligned data.
 164:..\..\..\..\cloud\alicloud\src\services\dev_bind\os/os.h ****  * @return Result in host byte order.
 165:..\..\..\..\cloud\alicloud\src\services\dev_bind\os/os.h ****  * @see None.
 166:..\..\..\..\cloud\alicloud\src\services\dev_bind\os/os.h ****  * @note None.
 167:..\..\..\..\cloud\alicloud\src\services\dev_bind\os/os.h ****  */
 168:..\..\..\..\cloud\alicloud\src\services\dev_bind\os/os.h **** uint16_t os_get_unaligned_be16(uint8_t *ptr);
 169:..\..\..\..\cloud\alicloud\src\services\dev_bind\os/os.h **** 
 170:..\..\..\..\cloud\alicloud\src\services\dev_bind\os/os.h **** /**
 171:..\..\..\..\cloud\alicloud\src\services\dev_bind\os/os.h ****  * @brief Get unaligned 16 bits data which is little-endian and convert to host byte order.
 172:..\..\..\..\cloud\alicloud\src\services\dev_bind\os/os.h ****  *
 173:..\..\..\..\cloud\alicloud\src\services\dev_bind\os/os.h ****  * @param[in] ptr @n The start address of the unaligned data.
 174:..\..\..\..\cloud\alicloud\src\services\dev_bind\os/os.h ****  * @return Result in host byte order.
 175:..\..\..\..\cloud\alicloud\src\services\dev_bind\os/os.h ****  * @see None.
 176:..\..\..\..\cloud\alicloud\src\services\dev_bind\os/os.h ****  * @note None.
 177:..\..\..\..\cloud\alicloud\src\services\dev_bind\os/os.h ****  */
 178:..\..\..\..\cloud\alicloud\src\services\dev_bind\os/os.h **** uint16_t os_get_unaligned_le16(uint8_t *ptr);
 179:..\..\..\..\cloud\alicloud\src\services\dev_bind\os/os.h **** 
 180:..\..\..\..\cloud\alicloud\src\services\dev_bind\os/os.h **** /**
 181:..\..\..\..\cloud\alicloud\src\services\dev_bind\os/os.h ****  * @brief Get unaligned 32 bits data which is big-endian and convert to host byte order.
 182:..\..\..\..\cloud\alicloud\src\services\dev_bind\os/os.h ****  *
 183:..\..\..\..\cloud\alicloud\src\services\dev_bind\os/os.h ****  * @param[in] ptr @n The start address of the unaligned data.
 184:..\..\..\..\cloud\alicloud\src\services\dev_bind\os/os.h ****  * @return Result in host byte order.
 185:..\..\..\..\cloud\alicloud\src\services\dev_bind\os/os.h ****  * @see None.
 186:..\..\..\..\cloud\alicloud\src\services\dev_bind\os/os.h ****  * @note None.
 187:..\..\..\..\cloud\alicloud\src\services\dev_bind\os/os.h ****  */
 188:..\..\..\..\cloud\alicloud\src\services\dev_bind\os/os.h **** uint32_t os_get_unaligned_be32(uint8_t *ptr);
 189:..\..\..\..\cloud\alicloud\src\services\dev_bind\os/os.h **** 
 190:..\..\..\..\cloud\alicloud\src\services\dev_bind\os/os.h **** /**
 191:..\..\..\..\cloud\alicloud\src\services\dev_bind\os/os.h ****  * @brief Get unaligned 32 bits data which is little-endian and convert to host byte order.
 192:..\..\..\..\cloud\alicloud\src\services\dev_bind\os/os.h ****  *
 193:..\..\..\..\cloud\alicloud\src\services\dev_bind\os/os.h ****  * @param[in] ptr @n The start address of the unaligned data.
 194:..\..\..\..\cloud\alicloud\src\services\dev_bind\os/os.h ****  * @return Result in host byte order.
 195:..\..\..\..\cloud\alicloud\src\services\dev_bind\os/os.h ****  * @see None.
 196:..\..\..\..\cloud\alicloud\src\services\dev_bind\os/os.h ****  * @note None.
 197:..\..\..\..\cloud\alicloud\src\services\dev_bind\os/os.h ****  */
 198:..\..\..\..\cloud\alicloud\src\services\dev_bind\os/os.h **** uint32_t os_get_unaligned_le32(uint8_t *ptr);
 199:..\..\..\..\cloud\alicloud\src\services\dev_bind\os/os.h **** 
 200:..\..\..\..\cloud\alicloud\src\services\dev_bind\os/os.h **** /**
 201:..\..\..\..\cloud\alicloud\src\services\dev_bind\os/os.h ****  * @brief sleep thread itself.
 202:..\..\..\..\cloud\alicloud\src\services\dev_bind\os/os.h ****  *
 203:..\..\..\..\cloud\alicloud\src\services\dev_bind\os/os.h ****  * @param[in] ms @n the time interval for which execution is to be suspended, in milliseconds.
 204:..\..\..\..\cloud\alicloud\src\services\dev_bind\os/os.h ****  * @return None.
 205:..\..\..\..\cloud\alicloud\src\services\dev_bind\os/os.h ****  * @see None.
 206:..\..\..\..\cloud\alicloud\src\services\dev_bind\os/os.h ****  * @note None.
 207:..\..\..\..\cloud\alicloud\src\services\dev_bind\os/os.h ****  */
 208:..\..\..\..\cloud\alicloud\src\services\dev_bind\os/os.h **** static inline void os_msleep(_IN_ uint32_t ms)
 209:..\..\..\..\cloud\alicloud\src\services\dev_bind\os/os.h **** {
 210:..\..\..\..\cloud\alicloud\src\services\dev_bind\os/os.h ****     platform_msleep(ms);
 211:..\..\..\..\cloud\alicloud\src\services\dev_bind\os/os.h **** }
 212:..\..\..\..\cloud\alicloud\src\services\dev_bind\os/os.h **** 
 213:..\..\..\..\cloud\alicloud\src\services\dev_bind\os/os.h **** /**
 214:..\..\..\..\cloud\alicloud\src\services\dev_bind\os/os.h ****  * @brief sleep thread itself.
 215:..\..\..\..\cloud\alicloud\src\services\dev_bind\os/os.h ****  *
 216:..\..\..\..\cloud\alicloud\src\services\dev_bind\os/os.h ****  * @param[in] sec @n the time interval for which execution is to be suspended, in seconds.
 217:..\..\..\..\cloud\alicloud\src\services\dev_bind\os/os.h ****  * @return None.
 218:..\..\..\..\cloud\alicloud\src\services\dev_bind\os/os.h ****  * @see None.
 219:..\..\..\..\cloud\alicloud\src\services\dev_bind\os/os.h ****  * @note None.
 220:..\..\..\..\cloud\alicloud\src\services\dev_bind\os/os.h ****  */
 221:..\..\..\..\cloud\alicloud\src\services\dev_bind\os/os.h **** static inline void os_sleep(_IN_ uint32_t sec)
 222:..\..\..\..\cloud\alicloud\src\services\dev_bind\os/os.h **** {
 223:..\..\..\..\cloud\alicloud\src\services\dev_bind\os/os.h ****     platform_msleep(sec * 1000);
 224:..\..\..\..\cloud\alicloud\src\services\dev_bind\os/os.h **** }
 225:..\..\..\..\cloud\alicloud\src\services\dev_bind\os/os.h **** 
 226:..\..\..\..\cloud\alicloud\src\services\dev_bind\os/os.h **** /**
 227:..\..\..\..\cloud\alicloud\src\services\dev_bind\os/os.h ****  * @brief system reboot immediately.
 228:..\..\..\..\cloud\alicloud\src\services\dev_bind\os/os.h ****  *
 229:..\..\..\..\cloud\alicloud\src\services\dev_bind\os/os.h ****  * @return None.
 230:..\..\..\..\cloud\alicloud\src\services\dev_bind\os/os.h ****  * @see None.
 231:..\..\..\..\cloud\alicloud\src\services\dev_bind\os/os.h ****  * @note None.
 232:..\..\..\..\cloud\alicloud\src\services\dev_bind\os/os.h ****  */
 233:..\..\..\..\cloud\alicloud\src\services\dev_bind\os/os.h **** static inline void os_reboot()
 234:..\..\..\..\cloud\alicloud\src\services\dev_bind\os/os.h **** {
 235:..\..\..\..\cloud\alicloud\src\services\dev_bind\os/os.h ****     platform_reboot();
 236:..\..\..\..\cloud\alicloud\src\services\dev_bind\os/os.h **** }
 237:..\..\..\..\cloud\alicloud\src\services\dev_bind\os/os.h **** 
 238:..\..\..\..\cloud\alicloud\src\services\dev_bind\os/os.h **** /** @} *///end of os_misc
 239:..\..\..\..\cloud\alicloud\src\services\dev_bind\os/os.h **** 
 240:..\..\..\..\cloud\alicloud\src\services\dev_bind\os/os.h **** /***************************************** mutex Interface ****************************************
 241:..\..\..\..\cloud\alicloud\src\services\dev_bind\os/os.h **** 
 242:..\..\..\..\cloud\alicloud\src\services\dev_bind\os/os.h **** /** @defgroup group_os_mutex mutex
 243:..\..\..\..\cloud\alicloud\src\services\dev_bind\os/os.h ****  *  @{
 244:..\..\..\..\cloud\alicloud\src\services\dev_bind\os/os.h ****  */
 245:..\..\..\..\cloud\alicloud\src\services\dev_bind\os/os.h **** 
 246:..\..\..\..\cloud\alicloud\src\services\dev_bind\os/os.h **** /**
 247:..\..\..\..\cloud\alicloud\src\services\dev_bind\os/os.h ****  * @brief Create a mutex.
 248:..\..\..\..\cloud\alicloud\src\services\dev_bind\os/os.h ****  *
 249:..\..\..\..\cloud\alicloud\src\services\dev_bind\os/os.h ****  * @return Mutex handle.
 250:..\..\..\..\cloud\alicloud\src\services\dev_bind\os/os.h ****  * @see None.
 251:..\..\..\..\cloud\alicloud\src\services\dev_bind\os/os.h ****  * @note None.
 252:..\..\..\..\cloud\alicloud\src\services\dev_bind\os/os.h ****  */
 253:..\..\..\..\cloud\alicloud\src\services\dev_bind\os/os.h **** static inline void *os_mutex_init(void)
 254:..\..\..\..\cloud\alicloud\src\services\dev_bind\os/os.h **** {
 255:..\..\..\..\cloud\alicloud\src\services\dev_bind\os/os.h ****     return platform_mutex_init();
 256:..\..\..\..\cloud\alicloud\src\services\dev_bind\os/os.h **** }
 257:..\..\..\..\cloud\alicloud\src\services\dev_bind\os/os.h **** 
 258:..\..\..\..\cloud\alicloud\src\services\dev_bind\os/os.h **** /**
 259:..\..\..\..\cloud\alicloud\src\services\dev_bind\os/os.h ****  * @brief Destroy the specified mutex object, it will free related resource.
 260:..\..\..\..\cloud\alicloud\src\services\dev_bind\os/os.h ****  *
 261:..\..\..\..\cloud\alicloud\src\services\dev_bind\os/os.h ****  * @param[in] mutex @n The specified mutex.
 262:..\..\..\..\cloud\alicloud\src\services\dev_bind\os/os.h ****  * @return None.
 263:..\..\..\..\cloud\alicloud\src\services\dev_bind\os/os.h ****  * @see None.
 264:..\..\..\..\cloud\alicloud\src\services\dev_bind\os/os.h ****  * @note None.
 265:..\..\..\..\cloud\alicloud\src\services\dev_bind\os/os.h ****  */
 266:..\..\..\..\cloud\alicloud\src\services\dev_bind\os/os.h **** static inline void os_mutex_destroy(_IN_ void *mutex)
 267:..\..\..\..\cloud\alicloud\src\services\dev_bind\os/os.h **** {
 268:..\..\..\..\cloud\alicloud\src\services\dev_bind\os/os.h ****     platform_mutex_destroy(mutex);
 269:..\..\..\..\cloud\alicloud\src\services\dev_bind\os/os.h **** }
 270:..\..\..\..\cloud\alicloud\src\services\dev_bind\os/os.h **** 
 271:..\..\..\..\cloud\alicloud\src\services\dev_bind\os/os.h **** /**
 272:..\..\..\..\cloud\alicloud\src\services\dev_bind\os/os.h ****  * @brief Waits until the specified mutex is in the signaled state.
 273:..\..\..\..\cloud\alicloud\src\services\dev_bind\os/os.h ****  *
 274:..\..\..\..\cloud\alicloud\src\services\dev_bind\os/os.h ****  * @param[in] mutex @n the specified mutex.
 275:..\..\..\..\cloud\alicloud\src\services\dev_bind\os/os.h ****  * @return None.
 276:..\..\..\..\cloud\alicloud\src\services\dev_bind\os/os.h ****  * @see None.
 277:..\..\..\..\cloud\alicloud\src\services\dev_bind\os/os.h ****  * @note None.
 278:..\..\..\..\cloud\alicloud\src\services\dev_bind\os/os.h ****  */
 279:..\..\..\..\cloud\alicloud\src\services\dev_bind\os/os.h **** static inline void os_mutex_lock(_IN_ void *mutex)
 280:..\..\..\..\cloud\alicloud\src\services\dev_bind\os/os.h **** {
 281:..\..\..\..\cloud\alicloud\src\services\dev_bind\os/os.h ****     platform_mutex_lock(mutex);
 282:..\..\..\..\cloud\alicloud\src\services\dev_bind\os/os.h **** }
 283:..\..\..\..\cloud\alicloud\src\services\dev_bind\os/os.h **** 
 284:..\..\..\..\cloud\alicloud\src\services\dev_bind\os/os.h **** /**
 285:..\..\..\..\cloud\alicloud\src\services\dev_bind\os/os.h ****  * @brief Releases ownership of the specified mutex object..
 286:..\..\..\..\cloud\alicloud\src\services\dev_bind\os/os.h ****  *
 287:..\..\..\..\cloud\alicloud\src\services\dev_bind\os/os.h ****  * @param[in] mutex @n the specified mutex.
 288:..\..\..\..\cloud\alicloud\src\services\dev_bind\os/os.h ****  * @return None.
 289:..\..\..\..\cloud\alicloud\src\services\dev_bind\os/os.h ****  * @see None.
 290:..\..\..\..\cloud\alicloud\src\services\dev_bind\os/os.h ****  * @note None.
 291:..\..\..\..\cloud\alicloud\src\services\dev_bind\os/os.h ****  */
 292:..\..\..\..\cloud\alicloud\src\services\dev_bind\os/os.h **** static inline void os_mutex_unlock(_IN_ void *mutex)
 293:..\..\..\..\cloud\alicloud\src\services\dev_bind\os/os.h **** {
 294:..\..\..\..\cloud\alicloud\src\services\dev_bind\os/os.h ****     platform_mutex_unlock(mutex);
 295:..\..\..\..\cloud\alicloud\src\services\dev_bind\os/os.h **** }
 296:..\..\..\..\cloud\alicloud\src\services\dev_bind\os/os.h **** 
 297:..\..\..\..\cloud\alicloud\src\services\dev_bind\os/os.h **** /** @} */// end of os_mutex
 298:..\..\..\..\cloud\alicloud\src\services\dev_bind\os/os.h **** 
 299:..\..\..\..\cloud\alicloud\src\services\dev_bind\os/os.h **** /*************************************** semaphore Interface **************************************
 300:..\..\..\..\cloud\alicloud\src\services\dev_bind\os/os.h **** 
 301:..\..\..\..\cloud\alicloud\src\services\dev_bind\os/os.h **** /** @defgroup group_os_semaphore semaphore
 302:..\..\..\..\cloud\alicloud\src\services\dev_bind\os/os.h ****  *  @{
 303:..\..\..\..\cloud\alicloud\src\services\dev_bind\os/os.h ****  */
 304:..\..\..\..\cloud\alicloud\src\services\dev_bind\os/os.h **** 
 305:..\..\..\..\cloud\alicloud\src\services\dev_bind\os/os.h **** /**
 306:..\..\..\..\cloud\alicloud\src\services\dev_bind\os/os.h ****  * @brief Create a semaphore.
 307:..\..\..\..\cloud\alicloud\src\services\dev_bind\os/os.h ****  *
 308:..\..\..\..\cloud\alicloud\src\services\dev_bind\os/os.h ****  * @return semaphore handle.
 309:..\..\..\..\cloud\alicloud\src\services\dev_bind\os/os.h ****  * @see None.
 310:..\..\..\..\cloud\alicloud\src\services\dev_bind\os/os.h ****  * @note The recommended value of maximum count of the semaphore is 255.
 311:..\..\..\..\cloud\alicloud\src\services\dev_bind\os/os.h ****  */
 312:..\..\..\..\cloud\alicloud\src\services\dev_bind\os/os.h **** static inline void *os_semaphore_init(void)
 313:..\..\..\..\cloud\alicloud\src\services\dev_bind\os/os.h **** {
 314:..\..\..\..\cloud\alicloud\src\services\dev_bind\os/os.h ****     return platform_semaphore_init();
 315:..\..\..\..\cloud\alicloud\src\services\dev_bind\os/os.h **** }
 316:..\..\..\..\cloud\alicloud\src\services\dev_bind\os/os.h **** 
 317:..\..\..\..\cloud\alicloud\src\services\dev_bind\os/os.h **** /**
 318:..\..\..\..\cloud\alicloud\src\services\dev_bind\os/os.h ****  * @brief Destroy the specified semaphore object, it will free related resource.
 319:..\..\..\..\cloud\alicloud\src\services\dev_bind\os/os.h ****  *
 320:..\..\..\..\cloud\alicloud\src\services\dev_bind\os/os.h ****  * @param[in] sem @n the specified sem.
 321:..\..\..\..\cloud\alicloud\src\services\dev_bind\os/os.h ****  * @return None.
 322:..\..\..\..\cloud\alicloud\src\services\dev_bind\os/os.h ****  * @see None.
 323:..\..\..\..\cloud\alicloud\src\services\dev_bind\os/os.h ****  * @note None.
 324:..\..\..\..\cloud\alicloud\src\services\dev_bind\os/os.h ****  */
 325:..\..\..\..\cloud\alicloud\src\services\dev_bind\os/os.h **** static inline void os_semaphore_destroy(_IN_ void *sem)
 326:..\..\..\..\cloud\alicloud\src\services\dev_bind\os/os.h **** {
 327:..\..\..\..\cloud\alicloud\src\services\dev_bind\os/os.h ****     platform_semaphore_destroy(sem);
 328:..\..\..\..\cloud\alicloud\src\services\dev_bind\os/os.h **** }
 329:..\..\..\..\cloud\alicloud\src\services\dev_bind\os/os.h **** 
 330:..\..\..\..\cloud\alicloud\src\services\dev_bind\os/os.h **** /**
 331:..\..\..\..\cloud\alicloud\src\services\dev_bind\os/os.h ****  * @brief Wait until the specified mutex is in the signaled state or the time-out interval elapses.
 332:..\..\..\..\cloud\alicloud\src\services\dev_bind\os/os.h ****  *
 333:..\..\..\..\cloud\alicloud\src\services\dev_bind\os/os.h ****  * @param[in] sem @n the specified semaphore.
 334:..\..\..\..\cloud\alicloud\src\services\dev_bind\os/os.h ****  * @param[in] timeout_ms @n timeout interval in millisecond.
 335:..\..\..\..\cloud\alicloud\src\services\dev_bind\os/os.h ****      If timeout_ms is OS_WAIT_INFINITE, the function will return only when the semaphore is signale
 336:..\..\..\..\cloud\alicloud\src\services\dev_bind\os/os.h ****  * @return
 337:..\..\..\..\cloud\alicloud\src\services\dev_bind\os/os.h ****    @verbatim
 338:..\..\..\..\cloud\alicloud\src\services\dev_bind\os/os.h ****    =  0: The state of the specified object is signaled.
 339:..\..\..\..\cloud\alicloud\src\services\dev_bind\os/os.h ****    =  -1: The time-out interval elapsed, and the object's state is nonsignaled.
 340:..\..\..\..\cloud\alicloud\src\services\dev_bind\os/os.h ****    @endverbatim
 341:..\..\..\..\cloud\alicloud\src\services\dev_bind\os/os.h ****  * @see None.
 342:..\..\..\..\cloud\alicloud\src\services\dev_bind\os/os.h ****  * @note None.
 343:..\..\..\..\cloud\alicloud\src\services\dev_bind\os/os.h ****  */
 344:..\..\..\..\cloud\alicloud\src\services\dev_bind\os/os.h **** static inline int os_semaphore_wait(_IN_ void *sem, _IN_ uint32_t timeout_ms)
 345:..\..\..\..\cloud\alicloud\src\services\dev_bind\os/os.h **** {
 346:..\..\..\..\cloud\alicloud\src\services\dev_bind\os/os.h ****     return platform_semaphore_wait(sem, timeout_ms);
 347:..\..\..\..\cloud\alicloud\src\services\dev_bind\os/os.h **** }
 348:..\..\..\..\cloud\alicloud\src\services\dev_bind\os/os.h **** 
 349:..\..\..\..\cloud\alicloud\src\services\dev_bind\os/os.h **** /**
 350:..\..\..\..\cloud\alicloud\src\services\dev_bind\os/os.h ****  * @brief Increases the count of the specified semaphore object by 1.
 351:..\..\..\..\cloud\alicloud\src\services\dev_bind\os/os.h ****  *
 352:..\..\..\..\cloud\alicloud\src\services\dev_bind\os/os.h ****  * @param[in] sem @n the specified semaphore.
 353:..\..\..\..\cloud\alicloud\src\services\dev_bind\os/os.h ****  * @return None.
 354:..\..\..\..\cloud\alicloud\src\services\dev_bind\os/os.h ****  * @see None.
 355:..\..\..\..\cloud\alicloud\src\services\dev_bind\os/os.h ****  * @note None.
 356:..\..\..\..\cloud\alicloud\src\services\dev_bind\os/os.h ****  */
 357:..\..\..\..\cloud\alicloud\src\services\dev_bind\os/os.h **** static inline void os_semaphore_post(_IN_ void *sem)
 358:..\..\..\..\cloud\alicloud\src\services\dev_bind\os/os.h **** {
 359:..\..\..\..\cloud\alicloud\src\services\dev_bind\os/os.h ****     platform_semaphore_post(sem);
 360:..\..\..\..\cloud\alicloud\src\services\dev_bind\os/os.h **** }
 361:..\..\..\..\cloud\alicloud\src\services\dev_bind\os/os.h **** 
 362:..\..\..\..\cloud\alicloud\src\services\dev_bind\os/os.h **** /** @} */// end of os_semaphore
 363:..\..\..\..\cloud\alicloud\src\services\dev_bind\os/os.h **** 
 364:..\..\..\..\cloud\alicloud\src\services\dev_bind\os/os.h **** /**************************************** memory Interface ****************************************
 365:..\..\..\..\cloud\alicloud\src\services\dev_bind\os/os.h **** 
 366:..\..\..\..\cloud\alicloud\src\services\dev_bind\os/os.h **** /** @defgroup group_os_memory_manage memory
 367:..\..\..\..\cloud\alicloud\src\services\dev_bind\os/os.h ****  *  @{
 368:..\..\..\..\cloud\alicloud\src\services\dev_bind\os/os.h ****  */
 369:..\..\..\..\cloud\alicloud\src\services\dev_bind\os/os.h **** 
 370:..\..\..\..\cloud\alicloud\src\services\dev_bind\os/os.h **** /**
 371:..\..\..\..\cloud\alicloud\src\services\dev_bind\os/os.h ****  * @brief Allocates a block of size bytes of memory, returning a pointer to the beginning of the bl
 372:..\..\..\..\cloud\alicloud\src\services\dev_bind\os/os.h ****  *
 373:..\..\..\..\cloud\alicloud\src\services\dev_bind\os/os.h ****  * @param[in] size @n specify block size in bytes.
 374:..\..\..\..\cloud\alicloud\src\services\dev_bind\os/os.h ****  * @return A pointer to the beginning of the block.
 375:..\..\..\..\cloud\alicloud\src\services\dev_bind\os/os.h ****  * @see None.
 376:..\..\..\..\cloud\alicloud\src\services\dev_bind\os/os.h ****  * @note Block value is indeterminate.
 377:..\..\..\..\cloud\alicloud\src\services\dev_bind\os/os.h ****  */
 378:..\..\..\..\cloud\alicloud\src\services\dev_bind\os/os.h **** static inline void *os_malloc(_IN_ uint32_t size)
 379:..\..\..\..\cloud\alicloud\src\services\dev_bind\os/os.h **** {
 380:..\..\..\..\cloud\alicloud\src\services\dev_bind\os/os.h ****     return platform_malloc(size);
 381:..\..\..\..\cloud\alicloud\src\services\dev_bind\os/os.h **** }
 382:..\..\..\..\cloud\alicloud\src\services\dev_bind\os/os.h **** 
 383:..\..\..\..\cloud\alicloud\src\services\dev_bind\os/os.h **** 
 384:..\..\..\..\cloud\alicloud\src\services\dev_bind\os/os.h **** /**
 385:..\..\..\..\cloud\alicloud\src\services\dev_bind\os/os.h ****  * @brief Deallocate memory block
 386:..\..\..\..\cloud\alicloud\src\services\dev_bind\os/os.h ****  *
 387:..\..\..\..\cloud\alicloud\src\services\dev_bind\os/os.h ****  * @param[in] ptr @n Pointer to a memory block previously allocated with platform_malloc.
 388:..\..\..\..\cloud\alicloud\src\services\dev_bind\os/os.h ****  * @return None.
 389:..\..\..\..\cloud\alicloud\src\services\dev_bind\os/os.h ****  * @see None.
 390:..\..\..\..\cloud\alicloud\src\services\dev_bind\os/os.h ****  * @note None.
 391:..\..\..\..\cloud\alicloud\src\services\dev_bind\os/os.h ****  */
 392:..\..\..\..\cloud\alicloud\src\services\dev_bind\os/os.h **** static inline void os_free(_IN_ void *ptr)
 393:..\..\..\..\cloud\alicloud\src\services\dev_bind\os/os.h **** {
 394:..\..\..\..\cloud\alicloud\src\services\dev_bind\os/os.h ****     platform_free(ptr);
 395:..\..\..\..\cloud\alicloud\src\services\dev_bind\os/os.h **** }
 396:..\..\..\..\cloud\alicloud\src\services\dev_bind\os/os.h **** 
 397:..\..\..\..\cloud\alicloud\src\services\dev_bind\os/os.h **** /**
 398:..\..\..\..\cloud\alicloud\src\services\dev_bind\os/os.h ****  * @brief Allocates a memory block with memory initialized to 0,
 399:..\..\..\..\cloud\alicloud\src\services\dev_bind\os/os.h ****      returning a pointer to the beginning of the block.
 400:..\..\..\..\cloud\alicloud\src\services\dev_bind\os/os.h ****  *
 401:..\..\..\..\cloud\alicloud\src\services\dev_bind\os/os.h ****  * @param[in] size @n specify block size in bytes.
 402:..\..\..\..\cloud\alicloud\src\services\dev_bind\os/os.h ****  * @return A pointer to the beginning of the block.
 403:..\..\..\..\cloud\alicloud\src\services\dev_bind\os/os.h ****  * @see None.
 404:..\..\..\..\cloud\alicloud\src\services\dev_bind\os/os.h ****  * @note Block value is indeterminate.
 405:..\..\..\..\cloud\alicloud\src\services\dev_bind\os/os.h ****  */
 406:..\..\..\..\cloud\alicloud\src\services\dev_bind\os/os.h **** static inline void *os_zalloc(uint32_t size)
 407:..\..\..\..\cloud\alicloud\src\services\dev_bind\os/os.h **** {
 408:..\..\..\..\cloud\alicloud\src\services\dev_bind\os/os.h ****     void *ptr = os_malloc(size);
 409:..\..\..\..\cloud\alicloud\src\services\dev_bind\os/os.h ****     if (ptr != NULL) {
 410:..\..\..\..\cloud\alicloud\src\services\dev_bind\os/os.h ****         memset(ptr, 0, size);
 411:..\..\..\..\cloud\alicloud\src\services\dev_bind\os/os.h ****     }
 412:..\..\..\..\cloud\alicloud\src\services\dev_bind\os/os.h ****     return ptr;
 413:..\..\..\..\cloud\alicloud\src\services\dev_bind\os/os.h **** }
 414:..\..\..\..\cloud\alicloud\src\services\dev_bind\os/os.h **** 
 415:..\..\..\..\cloud\alicloud\src\services\dev_bind\os/os.h **** /** @} */// end of os_memory_manage
 416:..\..\..\..\cloud\alicloud\src\services\dev_bind\os/os.h **** 
 417:..\..\..\..\cloud\alicloud\src\services\dev_bind\os/os.h **** /**************************************** system Interface ****************************************
 418:..\..\..\..\cloud\alicloud\src\services\dev_bind\os/os.h **** 
 419:..\..\..\..\cloud\alicloud\src\services\dev_bind\os/os.h **** /** @defgroup group_os_system system
 420:..\..\..\..\cloud\alicloud\src\services\dev_bind\os/os.h ****  *  @{
 421:..\..\..\..\cloud\alicloud\src\services\dev_bind\os/os.h ****  */
 422:..\..\..\..\cloud\alicloud\src\services\dev_bind\os/os.h **** 
 423:..\..\..\..\cloud\alicloud\src\services\dev_bind\os/os.h **** /**
 424:..\..\..\..\cloud\alicloud\src\services\dev_bind\os/os.h ****  * @brief check system network is ready(get ip address) or not.
 425:..\..\..\..\cloud\alicloud\src\services\dev_bind\os/os.h ****  *
 426:..\..\..\..\cloud\alicloud\src\services\dev_bind\os/os.h ****  * @param None.
 427:..\..\..\..\cloud\alicloud\src\services\dev_bind\os/os.h ****  * @return 0, net is not ready; 1, net is ready.
 428:..\..\..\..\cloud\alicloud\src\services\dev_bind\os/os.h ****  * @see None.
 429:..\..\..\..\cloud\alicloud\src\services\dev_bind\os/os.h ****  * @note None.
 430:..\..\..\..\cloud\alicloud\src\services\dev_bind\os/os.h ****  */
 431:..\..\..\..\cloud\alicloud\src\services\dev_bind\os/os.h **** static inline int os_sys_net_is_ready(void)
 432:..\..\..\..\cloud\alicloud\src\services\dev_bind\os/os.h **** {
 433:..\..\..\..\cloud\alicloud\src\services\dev_bind\os/os.h ****     return platform_sys_net_is_ready();
 434:..\..\..\..\cloud\alicloud\src\services\dev_bind\os/os.h **** }
 435:..\..\..\..\cloud\alicloud\src\services\dev_bind\os/os.h **** 
 436:..\..\..\..\cloud\alicloud\src\services\dev_bind\os/os.h **** /**
 437:..\..\..\..\cloud\alicloud\src\services\dev_bind\os/os.h ****  * @brief Retrieves the number of milliseconds that have elapsed since the system was boot.
 438:..\..\..\..\cloud\alicloud\src\services\dev_bind\os/os.h ****  *
 439:..\..\..\..\cloud\alicloud\src\services\dev_bind\os/os.h ****  * @param None.
 440:..\..\..\..\cloud\alicloud\src\services\dev_bind\os/os.h ****  * @return the number of milliseconds.
 441:..\..\..\..\cloud\alicloud\src\services\dev_bind\os/os.h ****  * @see None.
 442:..\..\..\..\cloud\alicloud\src\services\dev_bind\os/os.h ****  * @note Add a big offset, for easier caught time overflow bug.
 443:..\..\..\..\cloud\alicloud\src\services\dev_bind\os/os.h ****  */
 444:..\..\..\..\cloud\alicloud\src\services\dev_bind\os/os.h **** static inline uint32_t os_get_time_ms(void)
 445:..\..\..\..\cloud\alicloud\src\services\dev_bind\os/os.h **** {
 313              		.loc 2 445 1 is_stmt 1
 314              		.cfi_startproc
 315 0000 17030000 		call	t0,__riscv_save_1
 315      E7020300 
 316              		.cfi_offset 8, -8
 317              		.cfi_offset 1, -4
 318              		.cfi_def_cfa_offset 16
 446:..\..\..\..\cloud\alicloud\src\services\dev_bind\os/os.h ****     static uint32_t fixed_delta;
 319              		.loc 2 446 5
 447:..\..\..\..\cloud\alicloud\src\services\dev_bind\os/os.h **** 
 448:..\..\..\..\cloud\alicloud\src\services\dev_bind\os/os.h ****     if (!fixed_delta) {
 320              		.loc 2 448 5
 321              		.loc 2 448 9 is_stmt 0
 322 0008 37040000 		lui	s0,%hi(.LANCHOR2)
 323              		.loc 2 448 8
 324 000c 83270400 		lw	a5,%lo(.LANCHOR2)(s0)
 325 0010 13040400 		addi	s0,s0,%lo(.LANCHOR2)
 326 0014 81EB     		bne	a5,zero,.L23
 449:..\..\..\..\cloud\alicloud\src\services\dev_bind\os/os.h ****         fixed_delta = platform_get_time_ms() - 0xFFFF0000;
 327              		.loc 2 449 9 is_stmt 1
 328              		.loc 2 449 23 is_stmt 0
 329 0016 97000000 		call	HAL_UptimeMs
 329      E7800000 
 330              	.LVL28:
 331              		.loc 2 449 46
 332 001e C167     		li	a5,65536
 333 0020 AA97     		add	a5,a5,a0
 334              		.loc 2 449 21
 335 0022 1CC0     		sw	a5,0(s0)
 336              	.L23:
 450:..\..\..\..\cloud\alicloud\src\services\dev_bind\os/os.h ****     }
 451:..\..\..\..\cloud\alicloud\src\services\dev_bind\os/os.h **** 
 452:..\..\..\..\cloud\alicloud\src\services\dev_bind\os/os.h ****     /* add a big offset, for easier caught time overflow bug */
 453:..\..\..\..\cloud\alicloud\src\services\dev_bind\os/os.h ****     return platform_get_time_ms() - fixed_delta;
 337              		.loc 2 453 5 is_stmt 1
 338              		.loc 2 453 12 is_stmt 0
 339 0024 97000000 		call	HAL_UptimeMs
 339      E7800000 
 340              	.LVL29:
 341              		.loc 2 453 35
 342 002c 1C40     		lw	a5,0(s0)
 454:..\..\..\..\cloud\alicloud\src\services\dev_bind\os/os.h **** }
 343              		.loc 2 454 1
 344 002e 1D8D     		sub	a0,a0,a5
 345 0030 17030000 		tail	__riscv_restore_1
 345      67000300 
 346              		.cfi_restore 8
 347              		.cfi_restore 1
 348              		.cfi_def_cfa_offset 0
 349              		.cfi_endproc
 350              	.LFE20:
 352              		.section	.text.apscan_reset_scan_chan,"ax",@progbits
 353              		.align	1
 354              		.globl	apscan_reset_scan_chan
 356              	apscan_reset_scan_chan:
 357              	.LFB51:
 145:C:/Users/stapi/OneDrive/Desktop/GD32VW553/V1_MQTT_OK/GD32VW55X_Wifi_BLE_SDK/GD32VW55x_RELEASE_V1.0.2/MSDK/cloud/alicloud/src/services/awss\awss_ap_scan.c **** 
 146:C:/Users/stapi/OneDrive/Desktop/GD32VW553/V1_MQTT_OK/GD32VW55X_Wifi_BLE_SDK/GD32VW55x_RELEASE_V1.0.2/MSDK/cloud/alicloud/src/services/awss\awss_ap_scan.c **** void apscan_reset_scan_chan(void)
 147:C:/Users/stapi/OneDrive/Desktop/GD32VW553/V1_MQTT_OK/GD32VW55X_Wifi_BLE_SDK/GD32VW55x_RELEASE_V1.0.2/MSDK/cloud/alicloud/src/services/awss\awss_ap_scan.c **** {
 358              		.loc 1 147 1 is_stmt 1
 359              		.cfi_startproc
 148:C:/Users/stapi/OneDrive/Desktop/GD32VW553/V1_MQTT_OK/GD32VW55X_Wifi_BLE_SDK/GD32VW55x_RELEASE_V1.0.2/MSDK/cloud/alicloud/src/services/awss\awss_ap_scan.c ****     g_apscan_chan_idx = 0;
 360              		.loc 1 148 5
 361              		.loc 1 148 23 is_stmt 0
 362 0000 B7070000 		lui	a5,%hi(.LANCHOR3)
 363 0004 23800700 		sb	zero,%lo(.LANCHOR3)(a5)
 149:C:/Users/stapi/OneDrive/Desktop/GD32VW553/V1_MQTT_OK/GD32VW55X_Wifi_BLE_SDK/GD32VW55x_RELEASE_V1.0.2/MSDK/cloud/alicloud/src/services/awss\awss_ap_scan.c **** }
 364              		.loc 1 149 1
 365 0008 8280     		ret
 366              		.cfi_endproc
 367              	.LFE51:
 369              		.section	.text.apscan_next_scan_chan,"ax",@progbits
 370              		.align	1
 371              		.globl	apscan_next_scan_chan
 373              	apscan_next_scan_chan:
 374              	.LFB52:
 150:C:/Users/stapi/OneDrive/Desktop/GD32VW553/V1_MQTT_OK/GD32VW55X_Wifi_BLE_SDK/GD32VW55x_RELEASE_V1.0.2/MSDK/cloud/alicloud/src/services/awss\awss_ap_scan.c **** 
 151:C:/Users/stapi/OneDrive/Desktop/GD32VW553/V1_MQTT_OK/GD32VW55X_Wifi_BLE_SDK/GD32VW55x_RELEASE_V1.0.2/MSDK/cloud/alicloud/src/services/awss\awss_ap_scan.c **** uint8_t apscan_next_scan_chan(void)
 152:C:/Users/stapi/OneDrive/Desktop/GD32VW553/V1_MQTT_OK/GD32VW55X_Wifi_BLE_SDK/GD32VW55x_RELEASE_V1.0.2/MSDK/cloud/alicloud/src/services/awss\awss_ap_scan.c **** {
 375              		.loc 1 152 1 is_stmt 1
 376              		.cfi_startproc
 153:C:/Users/stapi/OneDrive/Desktop/GD32VW553/V1_MQTT_OK/GD32VW55X_Wifi_BLE_SDK/GD32VW55x_RELEASE_V1.0.2/MSDK/cloud/alicloud/src/services/awss\awss_ap_scan.c ****     uint8_t chan = wlan_fixed_scanning_channels[g_apscan_chan_idx];
 377              		.loc 1 153 5
 378              		.loc 1 153 48 is_stmt 0
 379 0000 37070000 		lui	a4,%hi(.LANCHOR3)
 380 0004 13070700 		addi	a4,a4,%lo(.LANCHOR3)
 381 0008 83470700 		lbu	a5,0(a4)
 382              		.loc 1 153 13
 383 000c B7060000 		lui	a3,%hi(wlan_fixed_scanning_channels)
 384 0010 93860600 		addi	a3,a3,%lo(wlan_fixed_scanning_channels)
 385 0014 BE96     		add	a3,a3,a5
 154:C:/Users/stapi/OneDrive/Desktop/GD32VW553/V1_MQTT_OK/GD32VW55X_Wifi_BLE_SDK/GD32VW55x_RELEASE_V1.0.2/MSDK/cloud/alicloud/src/services/awss\awss_ap_scan.c ****     g_apscan_chan_idx++;
 386              		.loc 1 154 22
 387 0016 8507     		addi	a5,a5,1
 153:C:/Users/stapi/OneDrive/Desktop/GD32VW553/V1_MQTT_OK/GD32VW55X_Wifi_BLE_SDK/GD32VW55x_RELEASE_V1.0.2/MSDK/cloud/alicloud/src/services/awss\awss_ap_scan.c ****     uint8_t chan = wlan_fixed_scanning_channels[g_apscan_chan_idx];
 388              		.loc 1 153 13
 389 0018 03C50600 		lbu	a0,0(a3)
 390              	.LVL30:
 391              		.loc 1 154 5 is_stmt 1
 392              		.loc 1 154 22 is_stmt 0
 393 001c 93F7F70F 		andi	a5,a5,0xff
 155:C:/Users/stapi/OneDrive/Desktop/GD32VW553/V1_MQTT_OK/GD32VW55X_Wifi_BLE_SDK/GD32VW55x_RELEASE_V1.0.2/MSDK/cloud/alicloud/src/services/awss\awss_ap_scan.c ****     if ( g_apscan_chan_idx > (sizeof(wlan_fixed_scanning_channels) - 1) ) {
 394              		.loc 1 155 5 is_stmt 1
 395              		.loc 1 155 8 is_stmt 0
 396 0020 BD46     		li	a3,15
 397 0022 63E5F600 		bgtu	a5,a3,.L27
 154:C:/Users/stapi/OneDrive/Desktop/GD32VW553/V1_MQTT_OK/GD32VW55X_Wifi_BLE_SDK/GD32VW55x_RELEASE_V1.0.2/MSDK/cloud/alicloud/src/services/awss\awss_ap_scan.c ****     g_apscan_chan_idx++;
 398              		.loc 1 154 22
 399 0026 2300F700 		sb	a5,0(a4)
 400 002a 8280     		ret
 401              	.L27:
 156:C:/Users/stapi/OneDrive/Desktop/GD32VW553/V1_MQTT_OK/GD32VW55X_Wifi_BLE_SDK/GD32VW55x_RELEASE_V1.0.2/MSDK/cloud/alicloud/src/services/awss\awss_ap_scan.c ****         g_apscan_chan_idx = 0;
 402              		.loc 1 156 9 is_stmt 1
 403              		.loc 1 156 27 is_stmt 0
 404 002c 23000700 		sb	zero,0(a4)
 157:C:/Users/stapi/OneDrive/Desktop/GD32VW553/V1_MQTT_OK/GD32VW55X_Wifi_BLE_SDK/GD32VW55x_RELEASE_V1.0.2/MSDK/cloud/alicloud/src/services/awss\awss_ap_scan.c ****     }
 158:C:/Users/stapi/OneDrive/Desktop/GD32VW553/V1_MQTT_OK/GD32VW55X_Wifi_BLE_SDK/GD32VW55x_RELEASE_V1.0.2/MSDK/cloud/alicloud/src/services/awss\awss_ap_scan.c ****     return chan;
 405              		.loc 1 158 5 is_stmt 1
 159:C:/Users/stapi/OneDrive/Desktop/GD32VW553/V1_MQTT_OK/GD32VW55X_Wifi_BLE_SDK/GD32VW55x_RELEASE_V1.0.2/MSDK/cloud/alicloud/src/services/awss\awss_ap_scan.c **** }
 406              		.loc 1 159 1 is_stmt 0
 407 0030 8280     		ret
 408              		.cfi_endproc
 409              	.LFE52:
 411              		.section	.rodata.awss_apscan_process.str1.4,"aMS",@progbits,1
 412              		.align	2
 413              	.LC2:
 414 0000 61707363 		.string	"apscan start fail, params invalid"
 414      616E2073 
 414      74617274 
 414      20666169 
 414      6C2C2070 
 415 0022 0000     		.align	2
 416              	.LC3:
 417 0024 61707363 		.string	"apscan start fail, wifi mode invalid"
 417      616E2073 
 417      74617274 
 417      20666169 
 417      6C2C2077 
 418 0049 000000   		.align	2
 419              	.LC4:
 420 004c 61707363 		.string	"apscan switch to chan %d"
 420      616E2073 
 420      77697463 
 420      6820746F 
 420      20636861 
 421 0065 000000   		.align	2
 422              	.LC7:
 423 0068 61707363 		.string	"apscan %d ms"
 423      616E2025 
 423      64206D73 
 423      00
 424 0075 000000   		.align	2
 425              	.LC6:
 426 0078 01088284 		.string	"\001\b\202\204\213\226\214\222\230\2442\004\260H`l?\204\020\236"
 426      8B968C92 
 426      98A43204 
 426      B048606C 
 426      3F84109E 
 427              		.section	.text.awss_apscan_process,"ax",@progbits
 428              		.align	1
 429              		.globl	awss_apscan_process
 431              	awss_apscan_process:
 432              	.LFB53:
 160:C:/Users/stapi/OneDrive/Desktop/GD32VW553/V1_MQTT_OK/GD32VW55X_Wifi_BLE_SDK/GD32VW55x_RELEASE_V1.0.2/MSDK/cloud/alicloud/src/services/awss\awss_ap_scan.c **** 
 161:C:/Users/stapi/OneDrive/Desktop/GD32VW553/V1_MQTT_OK/GD32VW55X_Wifi_BLE_SDK/GD32VW55x_RELEASE_V1.0.2/MSDK/cloud/alicloud/src/services/awss\awss_ap_scan.c **** int awss_apscan_process(uint32_t *p_scan_time, char *p_scan_ssid, ap_scan_info_t *p_scan_result)
 162:C:/Users/stapi/OneDrive/Desktop/GD32VW553/V1_MQTT_OK/GD32VW55X_Wifi_BLE_SDK/GD32VW55x_RELEASE_V1.0.2/MSDK/cloud/alicloud/src/services/awss\awss_ap_scan.c **** {
 433              		.loc 1 162 1 is_stmt 1
 434              		.cfi_startproc
 435              	.LVL31:
 436 0000 17030000 		call	t0,__riscv_save_12
 436      E7020300 
 437              		.cfi_offset 27, -52
 438              		.cfi_offset 26, -48
 439              		.cfi_offset 25, -44
 440              		.cfi_offset 24, -40
 441              		.cfi_offset 23, -36
 442              		.cfi_offset 22, -32
 443              		.cfi_offset 21, -28
 444              		.cfi_offset 20, -24
 445              		.cfi_offset 19, -20
 446              		.cfi_offset 18, -16
 447              		.cfi_offset 9, -12
 448              		.cfi_offset 8, -8
 449              		.cfi_offset 1, -4
 450              		.cfi_def_cfa_offset 64
 163:C:/Users/stapi/OneDrive/Desktop/GD32VW553/V1_MQTT_OK/GD32VW55X_Wifi_BLE_SDK/GD32VW55x_RELEASE_V1.0.2/MSDK/cloud/alicloud/src/services/awss\awss_ap_scan.c ****     int result = -1;
 451              		.loc 1 163 5
 452              	.LVL32:
 164:C:/Users/stapi/OneDrive/Desktop/GD32VW553/V1_MQTT_OK/GD32VW55X_Wifi_BLE_SDK/GD32VW55x_RELEASE_V1.0.2/MSDK/cloud/alicloud/src/services/awss\awss_ap_scan.c ****     uint32_t apscan_total_time;
 453              		.loc 1 164 5
 165:C:/Users/stapi/OneDrive/Desktop/GD32VW553/V1_MQTT_OK/GD32VW55X_Wifi_BLE_SDK/GD32VW55x_RELEASE_V1.0.2/MSDK/cloud/alicloud/src/services/awss\awss_ap_scan.c ****     uint32_t next_chn_start_time = 0;
 454              		.loc 1 165 5
 166:C:/Users/stapi/OneDrive/Desktop/GD32VW553/V1_MQTT_OK/GD32VW55X_Wifi_BLE_SDK/GD32VW55x_RELEASE_V1.0.2/MSDK/cloud/alicloud/src/services/awss\awss_ap_scan.c ****     uint32_t cur_chn_start_time = 0;
 455              		.loc 1 166 5
 167:C:/Users/stapi/OneDrive/Desktop/GD32VW553/V1_MQTT_OK/GD32VW55X_Wifi_BLE_SDK/GD32VW55x_RELEASE_V1.0.2/MSDK/cloud/alicloud/src/services/awss\awss_ap_scan.c ****     uint8_t cur_scan_chan = wlan_fixed_scanning_channels[0];
 456              		.loc 1 167 5
 168:C:/Users/stapi/OneDrive/Desktop/GD32VW553/V1_MQTT_OK/GD32VW55X_Wifi_BLE_SDK/GD32VW55x_RELEASE_V1.0.2/MSDK/cloud/alicloud/src/services/awss\awss_ap_scan.c ****     uint32_t apscan_start_time = 0;
 457              		.loc 1 168 5
 169:C:/Users/stapi/OneDrive/Desktop/GD32VW553/V1_MQTT_OK/GD32VW55X_Wifi_BLE_SDK/GD32VW55x_RELEASE_V1.0.2/MSDK/cloud/alicloud/src/services/awss\awss_ap_scan.c **** 
 170:C:/Users/stapi/OneDrive/Desktop/GD32VW553/V1_MQTT_OK/GD32VW55X_Wifi_BLE_SDK/GD32VW55x_RELEASE_V1.0.2/MSDK/cloud/alicloud/src/services/awss\awss_ap_scan.c ****     // Parameters check
 171:C:/Users/stapi/OneDrive/Desktop/GD32VW553/V1_MQTT_OK/GD32VW55X_Wifi_BLE_SDK/GD32VW55x_RELEASE_V1.0.2/MSDK/cloud/alicloud/src/services/awss\awss_ap_scan.c ****     if ( (strlen(p_scan_ssid) == 0) || strlen(p_scan_ssid) > OS_MAX_SSID_LEN ) {
 458              		.loc 1 171 5
 162:C:/Users/stapi/OneDrive/Desktop/GD32VW553/V1_MQTT_OK/GD32VW55X_Wifi_BLE_SDK/GD32VW55x_RELEASE_V1.0.2/MSDK/cloud/alicloud/src/services/awss\awss_ap_scan.c ****     int result = -1;
 459              		.loc 1 162 1 is_stmt 0
 460 0008 1D71     		addi	sp,sp,-96
 461              		.cfi_def_cfa_offset 160
 462              		.loc 1 171 8
 463 000a 83870500 		lb	a5,0(a1)
 464 000e 89CF     		beq	a5,zero,.L30
 465 0010 2A84     		mv	s0,a0
 466              		.loc 1 171 40 discriminator 1
 467 0012 2E85     		mv	a0,a1
 468              	.LVL33:
 469 0014 AE89     		mv	s3,a1
 470 0016 B284     		mv	s1,a2
 471 0018 97000000 		call	strlen
 471      E7800000 
 472              	.LVL34:
 473              		.loc 1 171 37 discriminator 1
 474 0020 93071002 		li	a5,33
 475 0024 63FCA702 		bleu	a0,a5,.L31
 476              	.LVL35:
 477              	.L30:
 172:C:/Users/stapi/OneDrive/Desktop/GD32VW553/V1_MQTT_OK/GD32VW55X_Wifi_BLE_SDK/GD32VW55x_RELEASE_V1.0.2/MSDK/cloud/alicloud/src/services/awss\awss_ap_scan.c ****         awss_debug("apscan start fail, params invalid");
 478              		.loc 1 172 9 is_stmt 1
 479 0028 37070000 		lui	a4,%hi(.LC2)
 480 002c 13070700 		addi	a4,a4,%lo(.LC2)
 481 0030 9546     		li	a3,5
 482 0032 1306C00A 		li	a2,172
 483              	.L52:
 173:C:/Users/stapi/OneDrive/Desktop/GD32VW553/V1_MQTT_OK/GD32VW55X_Wifi_BLE_SDK/GD32VW55x_RELEASE_V1.0.2/MSDK/cloud/alicloud/src/services/awss\awss_ap_scan.c ****         result = -1;
 174:C:/Users/stapi/OneDrive/Desktop/GD32VW553/V1_MQTT_OK/GD32VW55X_Wifi_BLE_SDK/GD32VW55x_RELEASE_V1.0.2/MSDK/cloud/alicloud/src/services/awss\awss_ap_scan.c ****         return result;
 175:C:/Users/stapi/OneDrive/Desktop/GD32VW553/V1_MQTT_OK/GD32VW55X_Wifi_BLE_SDK/GD32VW55x_RELEASE_V1.0.2/MSDK/cloud/alicloud/src/services/awss\awss_ap_scan.c ****     }
 176:C:/Users/stapi/OneDrive/Desktop/GD32VW553/V1_MQTT_OK/GD32VW55X_Wifi_BLE_SDK/GD32VW55x_RELEASE_V1.0.2/MSDK/cloud/alicloud/src/services/awss\awss_ap_scan.c **** 
 177:C:/Users/stapi/OneDrive/Desktop/GD32VW553/V1_MQTT_OK/GD32VW55X_Wifi_BLE_SDK/GD32VW55x_RELEASE_V1.0.2/MSDK/cloud/alicloud/src/services/awss\awss_ap_scan.c ****     // Device WiFi mode check, not in SoftAP mode and Connected mode
 178:C:/Users/stapi/OneDrive/Desktop/GD32VW553/V1_MQTT_OK/GD32VW55X_Wifi_BLE_SDK/GD32VW55x_RELEASE_V1.0.2/MSDK/cloud/alicloud/src/services/awss\awss_ap_scan.c ****     if (HAL_Sys_Net_Is_Ready()) {
 179:C:/Users/stapi/OneDrive/Desktop/GD32VW553/V1_MQTT_OK/GD32VW55X_Wifi_BLE_SDK/GD32VW55x_RELEASE_V1.0.2/MSDK/cloud/alicloud/src/services/awss\awss_ap_scan.c ****         awss_debug("apscan start fail, wifi mode invalid");
 484              		.loc 1 179 9 is_stmt 0
 485 0036 B7050000 		lui	a1,%hi(.LANCHOR4)
 486 003a 37050000 		lui	a0,%hi(.LC1)
 487 003e 93850500 		addi	a1,a1,%lo(.LANCHOR4)
 488 0042 13050500 		addi	a0,a0,%lo(.LC1)
 489 0046 97000000 		call	LITE_syslog
 489      E7800000 
 490              	.LVL36:
 180:C:/Users/stapi/OneDrive/Desktop/GD32VW553/V1_MQTT_OK/GD32VW55X_Wifi_BLE_SDK/GD32VW55x_RELEASE_V1.0.2/MSDK/cloud/alicloud/src/services/awss\awss_ap_scan.c ****         result = -1;
 491              		.loc 1 180 9 is_stmt 1
 181:C:/Users/stapi/OneDrive/Desktop/GD32VW553/V1_MQTT_OK/GD32VW55X_Wifi_BLE_SDK/GD32VW55x_RELEASE_V1.0.2/MSDK/cloud/alicloud/src/services/awss\awss_ap_scan.c ****         return result;
 492              		.loc 1 181 9
 493              	.L51:
 182:C:/Users/stapi/OneDrive/Desktop/GD32VW553/V1_MQTT_OK/GD32VW55X_Wifi_BLE_SDK/GD32VW55x_RELEASE_V1.0.2/MSDK/cloud/alicloud/src/services/awss\awss_ap_scan.c ****     }
 183:C:/Users/stapi/OneDrive/Desktop/GD32VW553/V1_MQTT_OK/GD32VW55X_Wifi_BLE_SDK/GD32VW55x_RELEASE_V1.0.2/MSDK/cloud/alicloud/src/services/awss\awss_ap_scan.c **** 
 184:C:/Users/stapi/OneDrive/Desktop/GD32VW553/V1_MQTT_OK/GD32VW55X_Wifi_BLE_SDK/GD32VW55x_RELEASE_V1.0.2/MSDK/cloud/alicloud/src/services/awss\awss_ap_scan.c ****     // Initiate
 185:C:/Users/stapi/OneDrive/Desktop/GD32VW553/V1_MQTT_OK/GD32VW55X_Wifi_BLE_SDK/GD32VW55x_RELEASE_V1.0.2/MSDK/cloud/alicloud/src/services/awss\awss_ap_scan.c ****     apscan_total_time = (sizeof(wlan_fixed_scanning_channels) / sizeof(uint8_t) + 1) * APSCAN_DEFAU
 186:C:/Users/stapi/OneDrive/Desktop/GD32VW553/V1_MQTT_OK/GD32VW55X_Wifi_BLE_SDK/GD32VW55x_RELEASE_V1.0.2/MSDK/cloud/alicloud/src/services/awss\awss_ap_scan.c ****     if (p_scan_time != NULL) {
 187:C:/Users/stapi/OneDrive/Desktop/GD32VW553/V1_MQTT_OK/GD32VW55X_Wifi_BLE_SDK/GD32VW55x_RELEASE_V1.0.2/MSDK/cloud/alicloud/src/services/awss\awss_ap_scan.c ****         if (*p_scan_time > apscan_total_time) {
 188:C:/Users/stapi/OneDrive/Desktop/GD32VW553/V1_MQTT_OK/GD32VW55X_Wifi_BLE_SDK/GD32VW55x_RELEASE_V1.0.2/MSDK/cloud/alicloud/src/services/awss\awss_ap_scan.c ****             apscan_total_time = *p_scan_time;
 189:C:/Users/stapi/OneDrive/Desktop/GD32VW553/V1_MQTT_OK/GD32VW55X_Wifi_BLE_SDK/GD32VW55x_RELEASE_V1.0.2/MSDK/cloud/alicloud/src/services/awss\awss_ap_scan.c ****         }
 190:C:/Users/stapi/OneDrive/Desktop/GD32VW553/V1_MQTT_OK/GD32VW55X_Wifi_BLE_SDK/GD32VW55x_RELEASE_V1.0.2/MSDK/cloud/alicloud/src/services/awss\awss_ap_scan.c ****     }
 191:C:/Users/stapi/OneDrive/Desktop/GD32VW553/V1_MQTT_OK/GD32VW55X_Wifi_BLE_SDK/GD32VW55x_RELEASE_V1.0.2/MSDK/cloud/alicloud/src/services/awss\awss_ap_scan.c ****     memset(&g_apscan_info, 0, sizeof(ap_scan_info_t));
 192:C:/Users/stapi/OneDrive/Desktop/GD32VW553/V1_MQTT_OK/GD32VW55X_Wifi_BLE_SDK/GD32VW55x_RELEASE_V1.0.2/MSDK/cloud/alicloud/src/services/awss\awss_ap_scan.c ****     strncpy(g_apscan_info.ssid, p_scan_ssid, strlen(p_scan_ssid));
 193:C:/Users/stapi/OneDrive/Desktop/GD32VW553/V1_MQTT_OK/GD32VW55X_Wifi_BLE_SDK/GD32VW55x_RELEASE_V1.0.2/MSDK/cloud/alicloud/src/services/awss\awss_ap_scan.c **** 
 194:C:/Users/stapi/OneDrive/Desktop/GD32VW553/V1_MQTT_OK/GD32VW55X_Wifi_BLE_SDK/GD32VW55x_RELEASE_V1.0.2/MSDK/cloud/alicloud/src/services/awss\awss_ap_scan.c ****     // open wifi monitor, start scan on the first channel
 195:C:/Users/stapi/OneDrive/Desktop/GD32VW553/V1_MQTT_OK/GD32VW55X_Wifi_BLE_SDK/GD32VW55x_RELEASE_V1.0.2/MSDK/cloud/alicloud/src/services/awss\awss_ap_scan.c ****     g_apscan_chan_idx = 0;
 196:C:/Users/stapi/OneDrive/Desktop/GD32VW553/V1_MQTT_OK/GD32VW55X_Wifi_BLE_SDK/GD32VW55x_RELEASE_V1.0.2/MSDK/cloud/alicloud/src/services/awss\awss_ap_scan.c ****     os_awss_open_monitor(apscan_80211_frame_handler);
 197:C:/Users/stapi/OneDrive/Desktop/GD32VW553/V1_MQTT_OK/GD32VW55X_Wifi_BLE_SDK/GD32VW55x_RELEASE_V1.0.2/MSDK/cloud/alicloud/src/services/awss\awss_ap_scan.c ****     // record scaning start time
 198:C:/Users/stapi/OneDrive/Desktop/GD32VW553/V1_MQTT_OK/GD32VW55X_Wifi_BLE_SDK/GD32VW55x_RELEASE_V1.0.2/MSDK/cloud/alicloud/src/services/awss\awss_ap_scan.c ****     apscan_start_time = os_get_time_ms();
 199:C:/Users/stapi/OneDrive/Desktop/GD32VW553/V1_MQTT_OK/GD32VW55X_Wifi_BLE_SDK/GD32VW55x_RELEASE_V1.0.2/MSDK/cloud/alicloud/src/services/awss\awss_ap_scan.c ****     cur_chn_start_time = apscan_start_time;
 200:C:/Users/stapi/OneDrive/Desktop/GD32VW553/V1_MQTT_OK/GD32VW55X_Wifi_BLE_SDK/GD32VW55x_RELEASE_V1.0.2/MSDK/cloud/alicloud/src/services/awss\awss_ap_scan.c ****     next_chn_start_time = apscan_start_time;
 201:C:/Users/stapi/OneDrive/Desktop/GD32VW553/V1_MQTT_OK/GD32VW55X_Wifi_BLE_SDK/GD32VW55x_RELEASE_V1.0.2/MSDK/cloud/alicloud/src/services/awss\awss_ap_scan.c **** 
 202:C:/Users/stapi/OneDrive/Desktop/GD32VW553/V1_MQTT_OK/GD32VW55X_Wifi_BLE_SDK/GD32VW55x_RELEASE_V1.0.2/MSDK/cloud/alicloud/src/services/awss\awss_ap_scan.c ****     while( ((next_chn_start_time - apscan_start_time) < apscan_total_time)
 203:C:/Users/stapi/OneDrive/Desktop/GD32VW553/V1_MQTT_OK/GD32VW55X_Wifi_BLE_SDK/GD32VW55x_RELEASE_V1.0.2/MSDK/cloud/alicloud/src/services/awss\awss_ap_scan.c ****         && (g_apscan_info.found == 0) ) {
 204:C:/Users/stapi/OneDrive/Desktop/GD32VW553/V1_MQTT_OK/GD32VW55X_Wifi_BLE_SDK/GD32VW55x_RELEASE_V1.0.2/MSDK/cloud/alicloud/src/services/awss\awss_ap_scan.c ****         os_msleep(50);
 205:C:/Users/stapi/OneDrive/Desktop/GD32VW553/V1_MQTT_OK/GD32VW55X_Wifi_BLE_SDK/GD32VW55x_RELEASE_V1.0.2/MSDK/cloud/alicloud/src/services/awss\awss_ap_scan.c ****         next_chn_start_time = os_get_time_ms();
 206:C:/Users/stapi/OneDrive/Desktop/GD32VW553/V1_MQTT_OK/GD32VW55X_Wifi_BLE_SDK/GD32VW55x_RELEASE_V1.0.2/MSDK/cloud/alicloud/src/services/awss\awss_ap_scan.c ****         if(next_chn_start_time - cur_chn_start_time >= APSCAN_DEFAULT_CHN_SCAN_TIME){
 207:C:/Users/stapi/OneDrive/Desktop/GD32VW553/V1_MQTT_OK/GD32VW55X_Wifi_BLE_SDK/GD32VW55x_RELEASE_V1.0.2/MSDK/cloud/alicloud/src/services/awss\awss_ap_scan.c ****             cur_scan_chan = apscan_next_scan_chan();
 208:C:/Users/stapi/OneDrive/Desktop/GD32VW553/V1_MQTT_OK/GD32VW55X_Wifi_BLE_SDK/GD32VW55x_RELEASE_V1.0.2/MSDK/cloud/alicloud/src/services/awss\awss_ap_scan.c ****             awss_debug("apscan switch to chan %d", cur_scan_chan);
 209:C:/Users/stapi/OneDrive/Desktop/GD32VW553/V1_MQTT_OK/GD32VW55X_Wifi_BLE_SDK/GD32VW55x_RELEASE_V1.0.2/MSDK/cloud/alicloud/src/services/awss\awss_ap_scan.c ****             os_awss_switch_channel(cur_scan_chan, 0, NULL);
 210:C:/Users/stapi/OneDrive/Desktop/GD32VW553/V1_MQTT_OK/GD32VW55X_Wifi_BLE_SDK/GD32VW55x_RELEASE_V1.0.2/MSDK/cloud/alicloud/src/services/awss\awss_ap_scan.c ****             cur_chn_start_time = next_chn_start_time;
 211:C:/Users/stapi/OneDrive/Desktop/GD32VW553/V1_MQTT_OK/GD32VW55X_Wifi_BLE_SDK/GD32VW55x_RELEASE_V1.0.2/MSDK/cloud/alicloud/src/services/awss\awss_ap_scan.c ****         }
 212:C:/Users/stapi/OneDrive/Desktop/GD32VW553/V1_MQTT_OK/GD32VW55X_Wifi_BLE_SDK/GD32VW55x_RELEASE_V1.0.2/MSDK/cloud/alicloud/src/services/awss\awss_ap_scan.c ****         if ( (next_chn_start_time - cur_chn_start_time) >= ((APSCAN_DEFAULT_CHN_SCAN_TIME + 2) / 3)
 213:C:/Users/stapi/OneDrive/Desktop/GD32VW553/V1_MQTT_OK/GD32VW55X_Wifi_BLE_SDK/GD32VW55x_RELEASE_V1.0.2/MSDK/cloud/alicloud/src/services/awss\awss_ap_scan.c ****             // maybe send more than once
 214:C:/Users/stapi/OneDrive/Desktop/GD32VW553/V1_MQTT_OK/GD32VW55X_Wifi_BLE_SDK/GD32VW55x_RELEASE_V1.0.2/MSDK/cloud/alicloud/src/services/awss\awss_ap_scan.c ****             apscan_send_probe_req();
 215:C:/Users/stapi/OneDrive/Desktop/GD32VW553/V1_MQTT_OK/GD32VW55X_Wifi_BLE_SDK/GD32VW55x_RELEASE_V1.0.2/MSDK/cloud/alicloud/src/services/awss\awss_ap_scan.c ****         }
 216:C:/Users/stapi/OneDrive/Desktop/GD32VW553/V1_MQTT_OK/GD32VW55X_Wifi_BLE_SDK/GD32VW55x_RELEASE_V1.0.2/MSDK/cloud/alicloud/src/services/awss\awss_ap_scan.c ****     }
 217:C:/Users/stapi/OneDrive/Desktop/GD32VW553/V1_MQTT_OK/GD32VW55X_Wifi_BLE_SDK/GD32VW55x_RELEASE_V1.0.2/MSDK/cloud/alicloud/src/services/awss\awss_ap_scan.c **** 
 218:C:/Users/stapi/OneDrive/Desktop/GD32VW553/V1_MQTT_OK/GD32VW55X_Wifi_BLE_SDK/GD32VW55x_RELEASE_V1.0.2/MSDK/cloud/alicloud/src/services/awss\awss_ap_scan.c ****     awss_debug("apscan %d ms", time_elapsed_ms_since(apscan_start_time));
 219:C:/Users/stapi/OneDrive/Desktop/GD32VW553/V1_MQTT_OK/GD32VW55X_Wifi_BLE_SDK/GD32VW55x_RELEASE_V1.0.2/MSDK/cloud/alicloud/src/services/awss\awss_ap_scan.c ****     os_awss_close_monitor();
 220:C:/Users/stapi/OneDrive/Desktop/GD32VW553/V1_MQTT_OK/GD32VW55X_Wifi_BLE_SDK/GD32VW55x_RELEASE_V1.0.2/MSDK/cloud/alicloud/src/services/awss\awss_ap_scan.c **** 
 221:C:/Users/stapi/OneDrive/Desktop/GD32VW553/V1_MQTT_OK/GD32VW55X_Wifi_BLE_SDK/GD32VW55x_RELEASE_V1.0.2/MSDK/cloud/alicloud/src/services/awss\awss_ap_scan.c ****     if (g_apscan_info.found) {
 222:C:/Users/stapi/OneDrive/Desktop/GD32VW553/V1_MQTT_OK/GD32VW55X_Wifi_BLE_SDK/GD32VW55x_RELEASE_V1.0.2/MSDK/cloud/alicloud/src/services/awss\awss_ap_scan.c ****         // apscan found
 223:C:/Users/stapi/OneDrive/Desktop/GD32VW553/V1_MQTT_OK/GD32VW55X_Wifi_BLE_SDK/GD32VW55x_RELEASE_V1.0.2/MSDK/cloud/alicloud/src/services/awss\awss_ap_scan.c ****         p_scan_result->found = g_apscan_info.found;
 224:C:/Users/stapi/OneDrive/Desktop/GD32VW553/V1_MQTT_OK/GD32VW55X_Wifi_BLE_SDK/GD32VW55x_RELEASE_V1.0.2/MSDK/cloud/alicloud/src/services/awss\awss_ap_scan.c ****         p_scan_result->auth = g_apscan_info.auth;
 225:C:/Users/stapi/OneDrive/Desktop/GD32VW553/V1_MQTT_OK/GD32VW55X_Wifi_BLE_SDK/GD32VW55x_RELEASE_V1.0.2/MSDK/cloud/alicloud/src/services/awss\awss_ap_scan.c ****         p_scan_result->channel = g_apscan_info.channel;
 226:C:/Users/stapi/OneDrive/Desktop/GD32VW553/V1_MQTT_OK/GD32VW55X_Wifi_BLE_SDK/GD32VW55x_RELEASE_V1.0.2/MSDK/cloud/alicloud/src/services/awss\awss_ap_scan.c ****         memcpy(p_scan_result->encry, g_apscan_info.encry, 2);
 227:C:/Users/stapi/OneDrive/Desktop/GD32VW553/V1_MQTT_OK/GD32VW55X_Wifi_BLE_SDK/GD32VW55x_RELEASE_V1.0.2/MSDK/cloud/alicloud/src/services/awss\awss_ap_scan.c ****         memcpy(p_scan_result->mac, g_apscan_info.mac, OS_ETH_ALEN);
 228:C:/Users/stapi/OneDrive/Desktop/GD32VW553/V1_MQTT_OK/GD32VW55X_Wifi_BLE_SDK/GD32VW55x_RELEASE_V1.0.2/MSDK/cloud/alicloud/src/services/awss\awss_ap_scan.c ****         memcpy(p_scan_result->ssid, g_apscan_info.ssid, OS_MAX_SSID_LEN);
 229:C:/Users/stapi/OneDrive/Desktop/GD32VW553/V1_MQTT_OK/GD32VW55X_Wifi_BLE_SDK/GD32VW55x_RELEASE_V1.0.2/MSDK/cloud/alicloud/src/services/awss\awss_ap_scan.c ****         p_scan_result->rssi = g_apscan_info.rssi;        
 230:C:/Users/stapi/OneDrive/Desktop/GD32VW553/V1_MQTT_OK/GD32VW55X_Wifi_BLE_SDK/GD32VW55x_RELEASE_V1.0.2/MSDK/cloud/alicloud/src/services/awss\awss_ap_scan.c ****         result = 0;
 231:C:/Users/stapi/OneDrive/Desktop/GD32VW553/V1_MQTT_OK/GD32VW55X_Wifi_BLE_SDK/GD32VW55x_RELEASE_V1.0.2/MSDK/cloud/alicloud/src/services/awss\awss_ap_scan.c ****     } else {
 232:C:/Users/stapi/OneDrive/Desktop/GD32VW553/V1_MQTT_OK/GD32VW55X_Wifi_BLE_SDK/GD32VW55x_RELEASE_V1.0.2/MSDK/cloud/alicloud/src/services/awss\awss_ap_scan.c ****         // apscan not found
 233:C:/Users/stapi/OneDrive/Desktop/GD32VW553/V1_MQTT_OK/GD32VW55X_Wifi_BLE_SDK/GD32VW55x_RELEASE_V1.0.2/MSDK/cloud/alicloud/src/services/awss\awss_ap_scan.c ****         result = -1;
 494              		.loc 1 233 16 is_stmt 0
 495 004e 7D59     		li	s2,-1
 496              	.LVL37:
 497              	.L29:
 234:C:/Users/stapi/OneDrive/Desktop/GD32VW553/V1_MQTT_OK/GD32VW55X_Wifi_BLE_SDK/GD32VW55x_RELEASE_V1.0.2/MSDK/cloud/alicloud/src/services/awss\awss_ap_scan.c ****     }
 235:C:/Users/stapi/OneDrive/Desktop/GD32VW553/V1_MQTT_OK/GD32VW55X_Wifi_BLE_SDK/GD32VW55x_RELEASE_V1.0.2/MSDK/cloud/alicloud/src/services/awss\awss_ap_scan.c **** 
 236:C:/Users/stapi/OneDrive/Desktop/GD32VW553/V1_MQTT_OK/GD32VW55X_Wifi_BLE_SDK/GD32VW55x_RELEASE_V1.0.2/MSDK/cloud/alicloud/src/services/awss\awss_ap_scan.c ****     return result;
 237:C:/Users/stapi/OneDrive/Desktop/GD32VW553/V1_MQTT_OK/GD32VW55X_Wifi_BLE_SDK/GD32VW55x_RELEASE_V1.0.2/MSDK/cloud/alicloud/src/services/awss\awss_ap_scan.c **** }
 498              		.loc 1 237 1
 499 0050 4A85     		mv	a0,s2
 500 0052 2561     		addi	sp,sp,96
 501              		.cfi_remember_state
 502              		.cfi_def_cfa_offset 0
 503 0054 17030000 		tail	__riscv_restore_12
 503      67000300 
 504              		.cfi_restore 27
 505              		.cfi_restore 26
 506              		.cfi_restore 25
 507              		.cfi_restore 24
 508              		.cfi_restore 23
 509              		.cfi_restore 22
 510              		.cfi_restore 21
 511              		.cfi_restore 20
 512              		.cfi_restore 19
 513              		.cfi_restore 18
 514              		.cfi_restore 9
 515              		.cfi_restore 8
 516              		.cfi_restore 1
 517              		.cfi_def_cfa_offset -64
 518              	.LVL38:
 519              	.L31:
 520              		.cfi_restore_state
 178:C:/Users/stapi/OneDrive/Desktop/GD32VW553/V1_MQTT_OK/GD32VW55X_Wifi_BLE_SDK/GD32VW55x_RELEASE_V1.0.2/MSDK/cloud/alicloud/src/services/awss\awss_ap_scan.c ****         awss_debug("apscan start fail, wifi mode invalid");
 521              		.loc 1 178 5 is_stmt 1
 178:C:/Users/stapi/OneDrive/Desktop/GD32VW553/V1_MQTT_OK/GD32VW55X_Wifi_BLE_SDK/GD32VW55x_RELEASE_V1.0.2/MSDK/cloud/alicloud/src/services/awss\awss_ap_scan.c ****         awss_debug("apscan start fail, wifi mode invalid");
 522              		.loc 1 178 9 is_stmt 0
 523 005c 97000000 		call	HAL_Sys_Net_Is_Ready
 523      E7800000 
 524              	.LVL39:
 525 0064 2A89     		mv	s2,a0
 178:C:/Users/stapi/OneDrive/Desktop/GD32VW553/V1_MQTT_OK/GD32VW55X_Wifi_BLE_SDK/GD32VW55x_RELEASE_V1.0.2/MSDK/cloud/alicloud/src/services/awss\awss_ap_scan.c ****         awss_debug("apscan start fail, wifi mode invalid");
 526              		.loc 1 178 8
 527 0066 09C9     		beq	a0,zero,.L33
 179:C:/Users/stapi/OneDrive/Desktop/GD32VW553/V1_MQTT_OK/GD32VW55X_Wifi_BLE_SDK/GD32VW55x_RELEASE_V1.0.2/MSDK/cloud/alicloud/src/services/awss\awss_ap_scan.c ****         result = -1;
 528              		.loc 1 179 9 is_stmt 1
 529 0068 37070000 		lui	a4,%hi(.LC3)
 530 006c 13070700 		addi	a4,a4,%lo(.LC3)
 531 0070 9546     		li	a3,5
 532 0072 1306300B 		li	a2,179
 533 0076 C1B7     		j	.L52
 534              	.L33:
 185:C:/Users/stapi/OneDrive/Desktop/GD32VW553/V1_MQTT_OK/GD32VW55X_Wifi_BLE_SDK/GD32VW55x_RELEASE_V1.0.2/MSDK/cloud/alicloud/src/services/awss\awss_ap_scan.c ****     if (p_scan_time != NULL) {
 535              		.loc 1 185 5
 536              	.LVL40:
 186:C:/Users/stapi/OneDrive/Desktop/GD32VW553/V1_MQTT_OK/GD32VW55X_Wifi_BLE_SDK/GD32VW55x_RELEASE_V1.0.2/MSDK/cloud/alicloud/src/services/awss\awss_ap_scan.c ****         if (*p_scan_time > apscan_total_time) {
 537              		.loc 1 186 5
 538 0078 8567     		li	a5,4096
 539 007a 938787D4 		addi	a5,a5,-696
 185:C:/Users/stapi/OneDrive/Desktop/GD32VW553/V1_MQTT_OK/GD32VW55X_Wifi_BLE_SDK/GD32VW55x_RELEASE_V1.0.2/MSDK/cloud/alicloud/src/services/awss\awss_ap_scan.c ****     if (p_scan_time != NULL) {
 540              		.loc 1 185 23 is_stmt 0
 541 007e 3E8B     		mv	s6,a5
 186:C:/Users/stapi/OneDrive/Desktop/GD32VW553/V1_MQTT_OK/GD32VW55X_Wifi_BLE_SDK/GD32VW55x_RELEASE_V1.0.2/MSDK/cloud/alicloud/src/services/awss\awss_ap_scan.c ****         if (*p_scan_time > apscan_total_time) {
 542              		.loc 1 186 8
 543 0080 09C4     		beq	s0,zero,.L34
 187:C:/Users/stapi/OneDrive/Desktop/GD32VW553/V1_MQTT_OK/GD32VW55X_Wifi_BLE_SDK/GD32VW55x_RELEASE_V1.0.2/MSDK/cloud/alicloud/src/services/awss\awss_ap_scan.c ****             apscan_total_time = *p_scan_time;
 544              		.loc 1 187 9 is_stmt 1
 545 0082 032B0400 		lw	s6,0(s0)
 546 0086 337BFB0A 		maxu	s6,s6,a5
 547              	.L34:
 548              	.LVL41:
 191:C:/Users/stapi/OneDrive/Desktop/GD32VW553/V1_MQTT_OK/GD32VW55X_Wifi_BLE_SDK/GD32VW55x_RELEASE_V1.0.2/MSDK/cloud/alicloud/src/services/awss\awss_ap_scan.c ****     strncpy(g_apscan_info.ssid, p_scan_ssid, strlen(p_scan_ssid));
 549              		.loc 1 191 5
 550 008a 37040000 		lui	s0,%hi(.LANCHOR0)
 551              	.LVL42:
 552 008e 1306D002 		li	a2,45
 553 0092 8145     		li	a1,0
 554 0094 13050400 		addi	a0,s0,%lo(.LANCHOR0)
 555 0098 97000000 		call	memset
 555      E7800000 
 556              	.LVL43:
 192:C:/Users/stapi/OneDrive/Desktop/GD32VW553/V1_MQTT_OK/GD32VW55X_Wifi_BLE_SDK/GD32VW55x_RELEASE_V1.0.2/MSDK/cloud/alicloud/src/services/awss\awss_ap_scan.c **** 
 557              		.loc 1 192 5
 558 00a0 4E85     		mv	a0,s3
 559 00a2 97000000 		call	strlen
 559      E7800000 
 560              	.LVL44:
 191:C:/Users/stapi/OneDrive/Desktop/GD32VW553/V1_MQTT_OK/GD32VW55X_Wifi_BLE_SDK/GD32VW55x_RELEASE_V1.0.2/MSDK/cloud/alicloud/src/services/awss\awss_ap_scan.c ****     strncpy(g_apscan_info.ssid, p_scan_ssid, strlen(p_scan_ssid));
 561              		.loc 1 191 5 is_stmt 0
 562 00aa 130A0400 		addi	s4,s0,%lo(.LANCHOR0)
 192:C:/Users/stapi/OneDrive/Desktop/GD32VW553/V1_MQTT_OK/GD32VW55X_Wifi_BLE_SDK/GD32VW55x_RELEASE_V1.0.2/MSDK/cloud/alicloud/src/services/awss\awss_ap_scan.c **** 
 563              		.loc 1 192 5
 564 00ae 2A86     		mv	a2,a0
 565 00b0 CE85     		mv	a1,s3
 566 00b2 1305BA00 		addi	a0,s4,11
 567 00b6 97000000 		call	strncpy
 567      E7800000 
 568              	.LVL45:
 195:C:/Users/stapi/OneDrive/Desktop/GD32VW553/V1_MQTT_OK/GD32VW55X_Wifi_BLE_SDK/GD32VW55x_RELEASE_V1.0.2/MSDK/cloud/alicloud/src/services/awss\awss_ap_scan.c ****     os_awss_open_monitor(apscan_80211_frame_handler);
 569              		.loc 1 195 5 is_stmt 1
 570              	.LBB28:
 571              	.LBB29:
 455:..\..\..\..\cloud\alicloud\src\services\dev_bind\os/os.h **** 
 456:..\..\..\..\cloud\alicloud\src\services\dev_bind\os/os.h **** /*
 457:..\..\..\..\cloud\alicloud\src\services\dev_bind\os/os.h ****  *  These inlines deal with timer wrapping correctly. You are
 458:..\..\..\..\cloud\alicloud\src\services\dev_bind\os/os.h ****  *  strongly encouraged to use them
 459:..\..\..\..\cloud\alicloud\src\services\dev_bind\os/os.h ****  *  1. Because people otherwise forget
 460:..\..\..\..\cloud\alicloud\src\services\dev_bind\os/os.h ****  *  2. Because if the timer wrap changes in future you won't have to
 461:..\..\..\..\cloud\alicloud\src\services\dev_bind\os/os.h ****  *     alter your code.
 462:..\..\..\..\cloud\alicloud\src\services\dev_bind\os/os.h ****  */
 463:..\..\..\..\cloud\alicloud\src\services\dev_bind\os/os.h **** static inline uint32_t time_elapsed_ms_since(uint32_t start_timestamp)
 464:..\..\..\..\cloud\alicloud\src\services\dev_bind\os/os.h **** {
 465:..\..\..\..\cloud\alicloud\src\services\dev_bind\os/os.h ****     uint32_t now = os_get_time_ms();
 466:..\..\..\..\cloud\alicloud\src\services\dev_bind\os/os.h **** 
 467:..\..\..\..\cloud\alicloud\src\services\dev_bind\os/os.h ****     return now - start_timestamp;
 468:..\..\..\..\cloud\alicloud\src\services\dev_bind\os/os.h **** }
 469:..\..\..\..\cloud\alicloud\src\services\dev_bind\os/os.h **** 
 470:..\..\..\..\cloud\alicloud\src\services\dev_bind\os/os.h **** /** @} */// end of os_system
 471:..\..\..\..\cloud\alicloud\src\services\dev_bind\os/os.h **** 
 472:..\..\..\..\cloud\alicloud\src\services\dev_bind\os/os.h **** /****************************************** io Interface ******************************************
 473:..\..\..\..\cloud\alicloud\src\services\dev_bind\os/os.h **** 
 474:..\..\..\..\cloud\alicloud\src\services\dev_bind\os/os.h **** /** @defgroup group_os_io io
 475:..\..\..\..\cloud\alicloud\src\services\dev_bind\os/os.h ****  *  @{
 476:..\..\..\..\cloud\alicloud\src\services\dev_bind\os/os.h ****  */
 477:..\..\..\..\cloud\alicloud\src\services\dev_bind\os/os.h **** 
 478:..\..\..\..\cloud\alicloud\src\services\dev_bind\os/os.h **** /**
 479:..\..\..\..\cloud\alicloud\src\services\dev_bind\os/os.h ****  * @brief Writes formatted data to stream.
 480:..\..\..\..\cloud\alicloud\src\services\dev_bind\os/os.h ****  *
 481:..\..\..\..\cloud\alicloud\src\services\dev_bind\os/os.h ****  * @param[in] fmt: @n String that contains the text to be written, it can optionally contain embedd
 482:..\..\..\..\cloud\alicloud\src\services\dev_bind\os/os.h ****      that specifies how subsequent arguments are converted for output.
 483:..\..\..\..\cloud\alicloud\src\services\dev_bind\os/os.h ****  * @param[in] ...: @n the variable argument list, for formatted and inserted in the resulting strin
 484:..\..\..\..\cloud\alicloud\src\services\dev_bind\os/os.h ****  * @return None.
 485:..\..\..\..\cloud\alicloud\src\services\dev_bind\os/os.h ****  * @see None.
 486:..\..\..\..\cloud\alicloud\src\services\dev_bind\os/os.h ****  * @note None.
 487:..\..\..\..\cloud\alicloud\src\services\dev_bind\os/os.h ****  */
 488:..\..\..\..\cloud\alicloud\src\services\dev_bind\os/os.h **** #define os_printf(fmt, ...) platform_printf(fmt, ## __VA_ARGS__)
 489:..\..\..\..\cloud\alicloud\src\services\dev_bind\os/os.h **** 
 490:..\..\..\..\cloud\alicloud\src\services\dev_bind\os/os.h **** /** @} */// end of os_io
 491:..\..\..\..\cloud\alicloud\src\services\dev_bind\os/os.h **** 
 492:..\..\..\..\cloud\alicloud\src\services\dev_bind\os/os.h **** /*************************************** wifi module Interface ************************************
 493:..\..\..\..\cloud\alicloud\src\services\dev_bind\os/os.h **** 
 494:..\..\..\..\cloud\alicloud\src\services\dev_bind\os/os.h **** /** @defgroup group_os_wifi_module wifi
 495:..\..\..\..\cloud\alicloud\src\services\dev_bind\os/os.h ****  *  @{
 496:..\..\..\..\cloud\alicloud\src\services\dev_bind\os/os.h ****  */
 497:..\..\..\..\cloud\alicloud\src\services\dev_bind\os/os.h **** 
 498:..\..\..\..\cloud\alicloud\src\services\dev_bind\os/os.h **** /**
 499:..\..\..\..\cloud\alicloud\src\services\dev_bind\os/os.h ****  * @brief Get encrypt type for smartconfig.
 500:..\..\..\..\cloud\alicloud\src\services\dev_bind\os/os.h ****  *
 501:..\..\..\..\cloud\alicloud\src\services\dev_bind\os/os.h ****  * @param None.
 502:..\..\..\..\cloud\alicloud\src\services\dev_bind\os/os.h ****  * @return.
 503:..\..\..\..\cloud\alicloud\src\services\dev_bind\os/os.h ****    @verbatim
 504:..\..\..\..\cloud\alicloud\src\services\dev_bind\os/os.h ****      = 0: open (no encrypt)
 505:..\..\..\..\cloud\alicloud\src\services\dev_bind\os/os.h ****      = 1: aes256cbc with default aes-key and aes-iv
 506:..\..\..\..\cloud\alicloud\src\services\dev_bind\os/os.h ****      = 2: aes128cbc with default aes-key and aes-iv
 507:..\..\..\..\cloud\alicloud\src\services\dev_bind\os/os.h ****      = 3: aes128cbc with aes-key per product and aes-iv = 0
 508:..\..\..\..\cloud\alicloud\src\services\dev_bind\os/os.h ****      = 4: aes128cbc with aes-key per device and aes-iv = 0
 509:..\..\..\..\cloud\alicloud\src\services\dev_bind\os/os.h ****      = 5: aes128cbc with aes-key per manufacture and aes-iv = 0
 510:..\..\..\..\cloud\alicloud\src\services\dev_bind\os/os.h ****      = others: invalid
 511:..\..\..\..\cloud\alicloud\src\services\dev_bind\os/os.h ****    @endverbatim
 512:..\..\..\..\cloud\alicloud\src\services\dev_bind\os/os.h ****  * @see None.
 513:..\..\..\..\cloud\alicloud\src\services\dev_bind\os/os.h ****  * @note None.
 514:..\..\..\..\cloud\alicloud\src\services\dev_bind\os/os.h ****  */
 515:..\..\..\..\cloud\alicloud\src\services\dev_bind\os/os.h **** static inline int os_get_encrypt_type(void)
 516:..\..\..\..\cloud\alicloud\src\services\dev_bind\os/os.h **** {
 517:..\..\..\..\cloud\alicloud\src\services\dev_bind\os/os.h ****     return platform_get_encrypt_type();
 518:..\..\..\..\cloud\alicloud\src\services\dev_bind\os/os.h **** }
 519:..\..\..\..\cloud\alicloud\src\services\dev_bind\os/os.h **** 
 520:..\..\..\..\cloud\alicloud\src\services\dev_bind\os/os.h **** /**
 521:..\..\..\..\cloud\alicloud\src\services\dev_bind\os/os.h ****  * @brief    Get Security level for wifi configuration with connection.
 522:..\..\..\..\cloud\alicloud\src\services\dev_bind\os/os.h ****  *           Used for AP solution of router and App.
 523:..\..\..\..\cloud\alicloud\src\services\dev_bind\os/os.h ****  *
 524:..\..\..\..\cloud\alicloud\src\services\dev_bind\os/os.h ****  * @param None.
 525:..\..\..\..\cloud\alicloud\src\services\dev_bind\os/os.h ****  * @return The security level:
 526:..\..\..\..\cloud\alicloud\src\services\dev_bind\os/os.h ****    @verbatim
 527:..\..\..\..\cloud\alicloud\src\services\dev_bind\os/os.h ****     3: aes128cfb with aes-key per product and aes-iv = random
 528:..\..\..\..\cloud\alicloud\src\services\dev_bind\os/os.h ****     4: aes128cfb with aes-key per device and aes-iv = random
 529:..\..\..\..\cloud\alicloud\src\services\dev_bind\os/os.h ****     5: aes128cfb with aes-key per manufacture and aes-iv = random
 530:..\..\..\..\cloud\alicloud\src\services\dev_bind\os/os.h ****     others: invalid
 531:..\..\..\..\cloud\alicloud\src\services\dev_bind\os/os.h ****    @endverbatim
 532:..\..\..\..\cloud\alicloud\src\services\dev_bind\os/os.h ****  * @see None.
 533:..\..\..\..\cloud\alicloud\src\services\dev_bind\os/os.h ****  */
 534:..\..\..\..\cloud\alicloud\src\services\dev_bind\os/os.h **** static inline int os_get_conn_encrypt_type(void)
 535:..\..\..\..\cloud\alicloud\src\services\dev_bind\os/os.h **** {
 536:..\..\..\..\cloud\alicloud\src\services\dev_bind\os/os.h ****     return platform_get_conn_encrypt_type();
 537:..\..\..\..\cloud\alicloud\src\services\dev_bind\os/os.h **** }
 538:..\..\..\..\cloud\alicloud\src\services\dev_bind\os/os.h **** 
 539:..\..\..\..\cloud\alicloud\src\services\dev_bind\os/os.h **** /**
 540:..\..\..\..\cloud\alicloud\src\services\dev_bind\os/os.h ****  * @brief   Get rssi and channel of current link
 541:..\..\..\..\cloud\alicloud\src\services\dev_bind\os/os.h ****  *
 542:..\..\..\..\cloud\alicloud\src\services\dev_bind\os/os.h ****  * @param[out] p_rssi: rssi value of current link
 543:..\..\..\..\cloud\alicloud\src\services\dev_bind\os/os.h ****  * @param[out] p_channel: channel of current link
 544:..\..\..\..\cloud\alicloud\src\services\dev_bind\os/os.h ****  * 
 545:..\..\..\..\cloud\alicloud\src\services\dev_bind\os/os.h ****  * @return
 546:..\..\..\..\cloud\alicloud\src\services\dev_bind\os/os.h ****    @verbatim
 547:..\..\..\..\cloud\alicloud\src\services\dev_bind\os/os.h ****      = 0: succeeded
 548:..\..\..\..\cloud\alicloud\src\services\dev_bind\os/os.h ****      = -1: failed
 549:..\..\..\..\cloud\alicloud\src\services\dev_bind\os/os.h ****    @endverbatim
 550:..\..\..\..\cloud\alicloud\src\services\dev_bind\os/os.h ****  * @see None.
 551:..\..\..\..\cloud\alicloud\src\services\dev_bind\os/os.h ****  * @note None.
 552:..\..\..\..\cloud\alicloud\src\services\dev_bind\os/os.h ****  * @note awss use this API to get rssi and channel of current link
 553:..\..\..\..\cloud\alicloud\src\services\dev_bind\os/os.h ****  */
 554:..\..\..\..\cloud\alicloud\src\services\dev_bind\os/os.h **** static inline int os_get_conn_link_stat(int *p_rssi, int *p_channel)
 555:..\..\..\..\cloud\alicloud\src\services\dev_bind\os/os.h **** {
 556:..\..\..\..\cloud\alicloud\src\services\dev_bind\os/os.h ****     return platform_get_conn_link_stat(p_rssi, p_channel);
 557:..\..\..\..\cloud\alicloud\src\services\dev_bind\os/os.h **** }
 558:..\..\..\..\cloud\alicloud\src\services\dev_bind\os/os.h **** 
 559:..\..\..\..\cloud\alicloud\src\services\dev_bind\os/os.h **** /**
 560:..\..\..\..\cloud\alicloud\src\services\dev_bind\os/os.h ****  * @brief Get WIFI MAC string with format like: XX:XX:XX:XX:XX:XX.
 561:..\..\..\..\cloud\alicloud\src\services\dev_bind\os/os.h ****  *
 562:..\..\..\..\cloud\alicloud\src\services\dev_bind\os/os.h ****  * @param[out] mac_str @n Buffer for using to store wifi MAC string.
 563:..\..\..\..\cloud\alicloud\src\services\dev_bind\os/os.h ****  * @return A pointer to the start address of mac_str.
 564:..\..\..\..\cloud\alicloud\src\services\dev_bind\os/os.h ****  * @see None.
 565:..\..\..\..\cloud\alicloud\src\services\dev_bind\os/os.h ****  * @note this func will format mac address string uppercase
 566:..\..\..\..\cloud\alicloud\src\services\dev_bind\os/os.h ****  */
 567:..\..\..\..\cloud\alicloud\src\services\dev_bind\os/os.h **** char *os_wifi_get_mac_str(char mac_str[OS_MAC_LEN]);
 568:..\..\..\..\cloud\alicloud\src\services\dev_bind\os/os.h **** 
 569:..\..\..\..\cloud\alicloud\src\services\dev_bind\os/os.h **** char *os_wifi_str2mac(char mac_str[OS_MAC_LEN], char mac[OS_ETH_ALEN]);
 570:..\..\..\..\cloud\alicloud\src\services\dev_bind\os/os.h **** 
 571:..\..\..\..\cloud\alicloud\src\services\dev_bind\os/os.h **** /**
 572:..\..\..\..\cloud\alicloud\src\services\dev_bind\os/os.h ****  * @brief Get WIFI MAC address(digital form)
 573:..\..\..\..\cloud\alicloud\src\services\dev_bind\os/os.h ****  *
 574:..\..\..\..\cloud\alicloud\src\services\dev_bind\os/os.h ****  * @param[out] mac @n digital buffer to hold mac address
 575:..\..\..\..\cloud\alicloud\src\services\dev_bind\os/os.h ****  * @return A pointer to the start address of mac.
 576:..\..\..\..\cloud\alicloud\src\services\dev_bind\os/os.h ****  * @see None.
 577:..\..\..\..\cloud\alicloud\src\services\dev_bind\os/os.h ****  * @note None.
 578:..\..\..\..\cloud\alicloud\src\services\dev_bind\os/os.h ****  */
 579:..\..\..\..\cloud\alicloud\src\services\dev_bind\os/os.h **** uint8_t *os_wifi_get_mac(uint8_t mac[OS_ETH_ALEN]);
 580:..\..\..\..\cloud\alicloud\src\services\dev_bind\os/os.h **** 
 581:..\..\..\..\cloud\alicloud\src\services\dev_bind\os/os.h **** /**
 582:..\..\..\..\cloud\alicloud\src\services\dev_bind\os/os.h ****  * @brief Get WIFI IP string with format like: xx:xx:xx:xx:xx:xx,
 583:..\..\..\..\cloud\alicloud\src\services\dev_bind\os/os.h ****    and return IP with binary form, in network byte order.
 584:..\..\..\..\cloud\alicloud\src\services\dev_bind\os/os.h ****  *
 585:..\..\..\..\cloud\alicloud\src\services\dev_bind\os/os.h ****  * @param[in] ifname @n Specify the interface name.The NULL value indicates the default network int
 586:..\..\..\..\cloud\alicloud\src\services\dev_bind\os/os.h ****  * @param[out] ip_str @n Buffer for using to store IP string, in numbers-and-dots notation form.
 587:..\..\..\..\cloud\alicloud\src\services\dev_bind\os/os.h ****  * @return IP address with binary form, in network byte order.
 588:..\..\..\..\cloud\alicloud\src\services\dev_bind\os/os.h ****  * @see None.
 589:..\..\..\..\cloud\alicloud\src\services\dev_bind\os/os.h ****  * @note None.
 590:..\..\..\..\cloud\alicloud\src\services\dev_bind\os/os.h ****  */
 591:..\..\..\..\cloud\alicloud\src\services\dev_bind\os/os.h **** static inline uint32_t os_wifi_get_ip(char ip_str[OS_IP_LEN], const char *ifname)
 592:..\..\..\..\cloud\alicloud\src\services\dev_bind\os/os.h **** {
 593:..\..\..\..\cloud\alicloud\src\services\dev_bind\os/os.h ****     return platform_wifi_get_ip(ip_str, ifname);
 594:..\..\..\..\cloud\alicloud\src\services\dev_bind\os/os.h **** }
 595:..\..\..\..\cloud\alicloud\src\services\dev_bind\os/os.h **** 
 596:..\..\..\..\cloud\alicloud\src\services\dev_bind\os/os.h **** /*************************************** awss interface ***************************************/
 597:..\..\..\..\cloud\alicloud\src\services\dev_bind\os/os.h **** 
 598:..\..\..\..\cloud\alicloud\src\services\dev_bind\os/os.h **** /** @defgroup group_os_awss alink wireless setup service(awss)
 599:..\..\..\..\cloud\alicloud\src\services\dev_bind\os/os.h ****  *  @{
 600:..\..\..\..\cloud\alicloud\src\services\dev_bind\os/os.h ****  */
 601:..\..\..\..\cloud\alicloud\src\services\dev_bind\os/os.h **** 
 602:..\..\..\..\cloud\alicloud\src\services\dev_bind\os/os.h **** /**
 603:..\..\..\..\cloud\alicloud\src\services\dev_bind\os/os.h ****  * @brief Get timeout interval, in millisecond, of per awss.
 604:..\..\..\..\cloud\alicloud\src\services\dev_bind\os/os.h ****  *
 605:..\..\..\..\cloud\alicloud\src\services\dev_bind\os/os.h ****  * @param None.
 606:..\..\..\..\cloud\alicloud\src\services\dev_bind\os/os.h ****  * @return The timeout interval.
 607:..\..\..\..\cloud\alicloud\src\services\dev_bind\os/os.h ****  * @see None.
 608:..\..\..\..\cloud\alicloud\src\services\dev_bind\os/os.h ****  * @note The recommended value is 60,000ms.
 609:..\..\..\..\cloud\alicloud\src\services\dev_bind\os/os.h ****  */
 610:..\..\..\..\cloud\alicloud\src\services\dev_bind\os/os.h **** static inline int os_awss_get_timeout_interval_ms(void)
 611:..\..\..\..\cloud\alicloud\src\services\dev_bind\os/os.h **** {
 612:..\..\..\..\cloud\alicloud\src\services\dev_bind\os/os.h ****     return platform_awss_get_timeout_interval_ms();
 613:..\..\..\..\cloud\alicloud\src\services\dev_bind\os/os.h **** }
 614:..\..\..\..\cloud\alicloud\src\services\dev_bind\os/os.h **** 
 615:..\..\..\..\cloud\alicloud\src\services\dev_bind\os/os.h **** /**
 616:..\..\..\..\cloud\alicloud\src\services\dev_bind\os/os.h ****  * @brief Get time length, in millisecond, of per channel scan.
 617:..\..\..\..\cloud\alicloud\src\services\dev_bind\os/os.h ****  *
 618:..\..\..\..\cloud\alicloud\src\services\dev_bind\os/os.h ****  * @param None.
 619:..\..\..\..\cloud\alicloud\src\services\dev_bind\os/os.h ****  * @return The timeout interval.
 620:..\..\..\..\cloud\alicloud\src\services\dev_bind\os/os.h ****  * @see None.
 621:..\..\..\..\cloud\alicloud\src\services\dev_bind\os/os.h ****  * @note None. The recommended value is between 200ms and 400ms.
 622:..\..\..\..\cloud\alicloud\src\services\dev_bind\os/os.h ****  */
 623:..\..\..\..\cloud\alicloud\src\services\dev_bind\os/os.h **** static inline int os_awss_get_channelscan_interval_ms(void)
 624:..\..\..\..\cloud\alicloud\src\services\dev_bind\os/os.h **** {
 625:..\..\..\..\cloud\alicloud\src\services\dev_bind\os/os.h ****     return platform_awss_get_channelscan_interval_ms();
 626:..\..\..\..\cloud\alicloud\src\services\dev_bind\os/os.h **** }
 627:..\..\..\..\cloud\alicloud\src\services\dev_bind\os/os.h **** 
 628:..\..\..\..\cloud\alicloud\src\services\dev_bind\os/os.h **** typedef platform_awss_recv_80211_frame_cb_t os_awss_recv_80211_frame_cb_t;
 629:..\..\..\..\cloud\alicloud\src\services\dev_bind\os/os.h **** /**
 630:..\..\..\..\cloud\alicloud\src\services\dev_bind\os/os.h ****  * @brief Set wifi running at monitor mode,
 631:..\..\..\..\cloud\alicloud\src\services\dev_bind\os/os.h ****    and register a callback function which will be called when wifi receive a frame.
 632:..\..\..\..\cloud\alicloud\src\services\dev_bind\os/os.h ****  *
 633:..\..\..\..\cloud\alicloud\src\services\dev_bind\os/os.h ****  * @param[in] cb @n A function pointer, called back when wifi receive a frame.
 634:..\..\..\..\cloud\alicloud\src\services\dev_bind\os/os.h ****  * @return None.
 635:..\..\..\..\cloud\alicloud\src\services\dev_bind\os/os.h ****  * @see None.
 636:..\..\..\..\cloud\alicloud\src\services\dev_bind\os/os.h ****  * @note None.
 637:..\..\..\..\cloud\alicloud\src\services\dev_bind\os/os.h ****  */
 638:..\..\..\..\cloud\alicloud\src\services\dev_bind\os/os.h **** static inline void os_awss_open_monitor(os_awss_recv_80211_frame_cb_t cb)
 639:..\..\..\..\cloud\alicloud\src\services\dev_bind\os/os.h **** {
 640:..\..\..\..\cloud\alicloud\src\services\dev_bind\os/os.h ****     platform_awss_open_monitor(cb);
 572              		.loc 2 640 5 is_stmt 0
 573 00be 37050000 		lui	a0,%hi(apscan_80211_frame_handler)
 574              	.LBE29:
 575              	.LBE28:
 195:C:/Users/stapi/OneDrive/Desktop/GD32VW553/V1_MQTT_OK/GD32VW55X_Wifi_BLE_SDK/GD32VW55x_RELEASE_V1.0.2/MSDK/cloud/alicloud/src/services/awss\awss_ap_scan.c ****     os_awss_open_monitor(apscan_80211_frame_handler);
 576              		.loc 1 195 23
 577 00c2 B7070000 		lui	a5,%hi(.LANCHOR3)
 578              	.LBB32:
 579              	.LBB30:
 580              		.loc 2 640 5
 581 00c6 13050500 		addi	a0,a0,%lo(apscan_80211_frame_handler)
 582              	.LBE30:
 583              	.LBE32:
 195:C:/Users/stapi/OneDrive/Desktop/GD32VW553/V1_MQTT_OK/GD32VW55X_Wifi_BLE_SDK/GD32VW55x_RELEASE_V1.0.2/MSDK/cloud/alicloud/src/services/awss\awss_ap_scan.c ****     os_awss_open_monitor(apscan_80211_frame_handler);
 584              		.loc 1 195 23
 585 00ca 23800700 		sb	zero,%lo(.LANCHOR3)(a5)
 196:C:/Users/stapi/OneDrive/Desktop/GD32VW553/V1_MQTT_OK/GD32VW55X_Wifi_BLE_SDK/GD32VW55x_RELEASE_V1.0.2/MSDK/cloud/alicloud/src/services/awss\awss_ap_scan.c ****     // record scaning start time
 586              		.loc 1 196 5 is_stmt 1
 587              	.LBB33:
 588              	.LBB31:
 589              		.loc 2 640 5
 590 00ce 97000000 		call	HAL_Awss_Open_Monitor
 590      E7800000 
 591              	.LVL46:
 592              	.LBE31:
 593              	.LBE33:
 198:C:/Users/stapi/OneDrive/Desktop/GD32VW553/V1_MQTT_OK/GD32VW55X_Wifi_BLE_SDK/GD32VW55x_RELEASE_V1.0.2/MSDK/cloud/alicloud/src/services/awss\awss_ap_scan.c ****     cur_chn_start_time = apscan_start_time;
 594              		.loc 1 198 5
 198:C:/Users/stapi/OneDrive/Desktop/GD32VW553/V1_MQTT_OK/GD32VW55X_Wifi_BLE_SDK/GD32VW55x_RELEASE_V1.0.2/MSDK/cloud/alicloud/src/services/awss\awss_ap_scan.c ****     cur_chn_start_time = apscan_start_time;
 595              		.loc 1 198 25 is_stmt 0
 596 00d6 97000000 		call	os_get_time_ms
 596      E7800000 
 597              	.LVL47:
 598 00de 370A0000 		lui	s4,%hi(.LANCHOR0+11)
 599 00e2 AA8A     		mv	s5,a0
 600              	.LVL48:
 199:C:/Users/stapi/OneDrive/Desktop/GD32VW553/V1_MQTT_OK/GD32VW55X_Wifi_BLE_SDK/GD32VW55x_RELEASE_V1.0.2/MSDK/cloud/alicloud/src/services/awss\awss_ap_scan.c ****     next_chn_start_time = apscan_start_time;
 601              		.loc 1 199 5 is_stmt 1
 200:C:/Users/stapi/OneDrive/Desktop/GD32VW553/V1_MQTT_OK/GD32VW55X_Wifi_BLE_SDK/GD32VW55x_RELEASE_V1.0.2/MSDK/cloud/alicloud/src/services/awss\awss_ap_scan.c **** 
 602              		.loc 1 200 5
 202:C:/Users/stapi/OneDrive/Desktop/GD32VW553/V1_MQTT_OK/GD32VW55X_Wifi_BLE_SDK/GD32VW55x_RELEASE_V1.0.2/MSDK/cloud/alicloud/src/services/awss\awss_ap_scan.c ****         && (g_apscan_info.found == 0) ) {
 603              		.loc 1 202 5
 202:C:/Users/stapi/OneDrive/Desktop/GD32VW553/V1_MQTT_OK/GD32VW55X_Wifi_BLE_SDK/GD32VW55x_RELEASE_V1.0.2/MSDK/cloud/alicloud/src/services/awss\awss_ap_scan.c ****         && (g_apscan_info.found == 0) ) {
 604              		.loc 1 202 10
 199:C:/Users/stapi/OneDrive/Desktop/GD32VW553/V1_MQTT_OK/GD32VW55X_Wifi_BLE_SDK/GD32VW55x_RELEASE_V1.0.2/MSDK/cloud/alicloud/src/services/awss\awss_ap_scan.c ****     next_chn_start_time = apscan_start_time;
 605              		.loc 1 199 24 is_stmt 0
 606 00e4 AA8B     		mv	s7,a0
 607 00e6 13040400 		addi	s0,s0,%lo(.LANCHOR0)
 608 00ea 130ABA00 		addi	s4,s4,%lo(.LANCHOR0+11)
 208:C:/Users/stapi/OneDrive/Desktop/GD32VW553/V1_MQTT_OK/GD32VW55X_Wifi_BLE_SDK/GD32VW55x_RELEASE_V1.0.2/MSDK/cloud/alicloud/src/services/awss\awss_ap_scan.c ****             os_awss_switch_channel(cur_scan_chan, 0, NULL);
 609              		.loc 1 208 13
 610 00ee B70C0000 		lui	s9,%hi(.LANCHOR4)
 611 00f2 370D0000 		lui	s10,%hi(.LC4)
 612 00f6 B70D0000 		lui	s11,%hi(.LC1)
 613              	.LVL49:
 614              	.L35:
 203:C:/Users/stapi/OneDrive/Desktop/GD32VW553/V1_MQTT_OK/GD32VW55X_Wifi_BLE_SDK/GD32VW55x_RELEASE_V1.0.2/MSDK/cloud/alicloud/src/services/awss\awss_ap_scan.c ****         os_msleep(50);
 615              		.loc 1 203 9
 616 00fa 83470400 		lbu	a5,0(s0)
 617 00fe B5E3     		bne	a5,zero,.L41
 204:C:/Users/stapi/OneDrive/Desktop/GD32VW553/V1_MQTT_OK/GD32VW55X_Wifi_BLE_SDK/GD32VW55x_RELEASE_V1.0.2/MSDK/cloud/alicloud/src/services/awss\awss_ap_scan.c ****         next_chn_start_time = os_get_time_ms();
 618              		.loc 1 204 9 is_stmt 1
 619              	.LVL50:
 620              	.LBB34:
 621              	.LBB35:
 210:..\..\..\..\cloud\alicloud\src\services\dev_bind\os/os.h **** }
 622              		.loc 2 210 5
 623 0100 13052003 		li	a0,50
 624 0104 97000000 		call	HAL_SleepMs
 624      E7800000 
 625              	.LVL51:
 626              	.LBE35:
 627              	.LBE34:
 205:C:/Users/stapi/OneDrive/Desktop/GD32VW553/V1_MQTT_OK/GD32VW55X_Wifi_BLE_SDK/GD32VW55x_RELEASE_V1.0.2/MSDK/cloud/alicloud/src/services/awss\awss_ap_scan.c ****         if(next_chn_start_time - cur_chn_start_time >= APSCAN_DEFAULT_CHN_SCAN_TIME){
 628              		.loc 1 205 9
 205:C:/Users/stapi/OneDrive/Desktop/GD32VW553/V1_MQTT_OK/GD32VW55X_Wifi_BLE_SDK/GD32VW55x_RELEASE_V1.0.2/MSDK/cloud/alicloud/src/services/awss\awss_ap_scan.c ****         if(next_chn_start_time - cur_chn_start_time >= APSCAN_DEFAULT_CHN_SCAN_TIME){
 629              		.loc 1 205 31 is_stmt 0
 630 010c 97000000 		call	os_get_time_ms
 630      E7800000 
 631              	.LVL52:
 206:C:/Users/stapi/OneDrive/Desktop/GD32VW553/V1_MQTT_OK/GD32VW55X_Wifi_BLE_SDK/GD32VW55x_RELEASE_V1.0.2/MSDK/cloud/alicloud/src/services/awss\awss_ap_scan.c ****             cur_scan_chan = apscan_next_scan_chan();
 632              		.loc 1 206 32
 633 0114 B3077541 		sub	a5,a0,s7
 206:C:/Users/stapi/OneDrive/Desktop/GD32VW553/V1_MQTT_OK/GD32VW55X_Wifi_BLE_SDK/GD32VW55x_RELEASE_V1.0.2/MSDK/cloud/alicloud/src/services/awss\awss_ap_scan.c ****             cur_scan_chan = apscan_next_scan_chan();
 634              		.loc 1 206 11
 635 0118 1307700C 		li	a4,199
 205:C:/Users/stapi/OneDrive/Desktop/GD32VW553/V1_MQTT_OK/GD32VW55X_Wifi_BLE_SDK/GD32VW55x_RELEASE_V1.0.2/MSDK/cloud/alicloud/src/services/awss\awss_ap_scan.c ****         if(next_chn_start_time - cur_chn_start_time >= APSCAN_DEFAULT_CHN_SCAN_TIME){
 636              		.loc 1 205 31
 637 011c AA89     		mv	s3,a0
 638              	.LVL53:
 206:C:/Users/stapi/OneDrive/Desktop/GD32VW553/V1_MQTT_OK/GD32VW55X_Wifi_BLE_SDK/GD32VW55x_RELEASE_V1.0.2/MSDK/cloud/alicloud/src/services/awss\awss_ap_scan.c ****             cur_scan_chan = apscan_next_scan_chan();
 639              		.loc 1 206 9 is_stmt 1
 206:C:/Users/stapi/OneDrive/Desktop/GD32VW553/V1_MQTT_OK/GD32VW55X_Wifi_BLE_SDK/GD32VW55x_RELEASE_V1.0.2/MSDK/cloud/alicloud/src/services/awss\awss_ap_scan.c ****             cur_scan_chan = apscan_next_scan_chan();
 640              		.loc 1 206 11 is_stmt 0
 641 011e 637CF70C 		bleu	a5,a4,.L36
 207:C:/Users/stapi/OneDrive/Desktop/GD32VW553/V1_MQTT_OK/GD32VW55X_Wifi_BLE_SDK/GD32VW55x_RELEASE_V1.0.2/MSDK/cloud/alicloud/src/services/awss\awss_ap_scan.c ****             awss_debug("apscan switch to chan %d", cur_scan_chan);
 642              		.loc 1 207 13 is_stmt 1
 207:C:/Users/stapi/OneDrive/Desktop/GD32VW553/V1_MQTT_OK/GD32VW55X_Wifi_BLE_SDK/GD32VW55x_RELEASE_V1.0.2/MSDK/cloud/alicloud/src/services/awss\awss_ap_scan.c ****             awss_debug("apscan switch to chan %d", cur_scan_chan);
 643              		.loc 1 207 29 is_stmt 0
 644 0122 97000000 		call	apscan_next_scan_chan
 644      E7800000 
 645              	.LVL54:
 646 012a AA8B     		mv	s7,a0
 647              	.LVL55:
 208:C:/Users/stapi/OneDrive/Desktop/GD32VW553/V1_MQTT_OK/GD32VW55X_Wifi_BLE_SDK/GD32VW55x_RELEASE_V1.0.2/MSDK/cloud/alicloud/src/services/awss\awss_ap_scan.c ****             os_awss_switch_channel(cur_scan_chan, 0, NULL);
 648              		.loc 1 208 13 is_stmt 1
 649 012c AA87     		mv	a5,a0
 650 012e 13070D00 		addi	a4,s10,%lo(.LC4)
 651 0132 9546     		li	a3,5
 652 0134 1306000D 		li	a2,208
 653 0138 93850C00 		addi	a1,s9,%lo(.LANCHOR4)
 654 013c 13850D00 		addi	a0,s11,%lo(.LC1)
 655              	.LVL56:
 656 0140 97000000 		call	LITE_syslog
 656      E7800000 
 657              	.LVL57:
 209:C:/Users/stapi/OneDrive/Desktop/GD32VW553/V1_MQTT_OK/GD32VW55X_Wifi_BLE_SDK/GD32VW55x_RELEASE_V1.0.2/MSDK/cloud/alicloud/src/services/awss\awss_ap_scan.c ****             cur_chn_start_time = next_chn_start_time;
 658              		.loc 1 209 13
 659              	.LBB36:
 660              	.LBB37:
 641:..\..\..\..\cloud\alicloud\src\services\dev_bind\os/os.h **** }
 642:..\..\..\..\cloud\alicloud\src\services\dev_bind\os/os.h **** 
 643:..\..\..\..\cloud\alicloud\src\services\dev_bind\os/os.h **** /**
 644:..\..\..\..\cloud\alicloud\src\services\dev_bind\os/os.h ****  * @brief Close wifi monitor mode, and set running at station mode.
 645:..\..\..\..\cloud\alicloud\src\services\dev_bind\os/os.h ****  *
 646:..\..\..\..\cloud\alicloud\src\services\dev_bind\os/os.h ****  * @param None.
 647:..\..\..\..\cloud\alicloud\src\services\dev_bind\os/os.h ****  * @return None.
 648:..\..\..\..\cloud\alicloud\src\services\dev_bind\os/os.h ****  * @see None.
 649:..\..\..\..\cloud\alicloud\src\services\dev_bind\os/os.h ****  * @note None.
 650:..\..\..\..\cloud\alicloud\src\services\dev_bind\os/os.h ****  */
 651:..\..\..\..\cloud\alicloud\src\services\dev_bind\os/os.h **** static inline void os_awss_close_monitor(void)
 652:..\..\..\..\cloud\alicloud\src\services\dev_bind\os/os.h **** {
 653:..\..\..\..\cloud\alicloud\src\services\dev_bind\os/os.h ****     platform_awss_close_monitor();
 654:..\..\..\..\cloud\alicloud\src\services\dev_bind\os/os.h **** }
 655:..\..\..\..\cloud\alicloud\src\services\dev_bind\os/os.h **** 
 656:..\..\..\..\cloud\alicloud\src\services\dev_bind\os/os.h **** /**
 657:..\..\..\..\cloud\alicloud\src\services\dev_bind\os/os.h ****   * @brief   SoftAP
 658:..\..\..\..\cloud\alicloud\src\services\dev_bind\os/os.h ****   *
 659:..\..\..\..\cloud\alicloud\src\services\dev_bind\os/os.h ****   * @param[in] ssid @n ssid
 660:..\..\..\..\cloud\alicloud\src\services\dev_bind\os/os.h ****   * @param[in] passwd @n passwd
 661:..\..\..\..\cloud\alicloud\src\services\dev_bind\os/os.h ****   * @param[in] beacon_interval @n Beacon
 662:..\..\..\..\cloud\alicloud\src\services\dev_bind\os/os.h ****   * @param[in] hide @n hide:0, , 
 663:..\..\..\..\cloud\alicloud\src\services\dev_bind\os/os.h ****   * @return
 664:..\..\..\..\cloud\alicloud\src\services\dev_bind\os/os.h ****      @verbatim
 665:..\..\..\..\cloud\alicloud\src\services\dev_bind\os/os.h ****         = 0: success
 666:..\..\..\..\cloud\alicloud\src\services\dev_bind\os/os.h ****         = -1: unsupported
 667:..\..\..\..\cloud\alicloud\src\services\dev_bind\os/os.h ****         = -2: failure with system error
 668:..\..\..\..\cloud\alicloud\src\services\dev_bind\os/os.h ****         = -3: failure with no memory
 669:..\..\..\..\cloud\alicloud\src\services\dev_bind\os/os.h ****         = -4: failure with invalid parameters
 670:..\..\..\..\cloud\alicloud\src\services\dev_bind\os/os.h ****      @endverbatim
 671:..\..\..\..\cloud\alicloud\src\services\dev_bind\os/os.h ****   * @Note:
 672:..\..\..\..\cloud\alicloud\src\services\dev_bind\os/os.h ****   *       1ssidpasswd'\0'passwd
 673:..\..\..\..\cloud\alicloud\src\services\dev_bind\os/os.h ****   *          0Open
 674:..\..\..\..\cloud\alicloud\src\services\dev_bind\os/os.h ****   *       2beacon_intervalBeacon
 675:..\..\..\..\cloud\alicloud\src\services\dev_bind\os/os.h ****   *          100ms
 676:..\..\..\..\cloud\alicloud\src\services\dev_bind\os/os.h ****   *       3hidehide=0
 677:..\..\..\..\cloud\alicloud\src\services\dev_bind\os/os.h ****   *         
 678:..\..\..\..\cloud\alicloud\src\services\dev_bind\os/os.h ****   */
 679:..\..\..\..\cloud\alicloud\src\services\dev_bind\os/os.h **** 
 680:..\..\..\..\cloud\alicloud\src\services\dev_bind\os/os.h **** static inline int os_awss_open_ap(const char *ssid, const char *passwd, int beacon_interval, int hi
 681:..\..\..\..\cloud\alicloud\src\services\dev_bind\os/os.h **** {
 682:..\..\..\..\cloud\alicloud\src\services\dev_bind\os/os.h ****     return platform_awss_open_ap(ssid, passwd, beacon_interval, hide);
 683:..\..\..\..\cloud\alicloud\src\services\dev_bind\os/os.h **** }
 684:..\..\..\..\cloud\alicloud\src\services\dev_bind\os/os.h **** 
 685:..\..\..\..\cloud\alicloud\src\services\dev_bind\os/os.h **** /**
 686:..\..\..\..\cloud\alicloud\src\services\dev_bind\os/os.h ****   * @brief   SoftAPStation
 687:..\..\..\..\cloud\alicloud\src\services\dev_bind\os/os.h ****   *
 688:..\..\..\..\cloud\alicloud\src\services\dev_bind\os/os.h ****   * @return
 689:..\..\..\..\cloud\alicloud\src\services\dev_bind\os/os.h ****      @verbatim
 690:..\..\..\..\cloud\alicloud\src\services\dev_bind\os/os.h ****         = 0: success
 691:..\..\..\..\cloud\alicloud\src\services\dev_bind\os/os.h ****         = -1: unsupported
 692:..\..\..\..\cloud\alicloud\src\services\dev_bind\os/os.h ****         = -2: failure
 693:..\..\..\..\cloud\alicloud\src\services\dev_bind\os/os.h ****      @endverbatim
 694:..\..\..\..\cloud\alicloud\src\services\dev_bind\os/os.h ****   * @Note:
 695:..\..\..\..\cloud\alicloud\src\services\dev_bind\os/os.h ****   *       1
 696:..\..\..\..\cloud\alicloud\src\services\dev_bind\os/os.h ****   *          
 697:..\..\..\..\cloud\alicloud\src\services\dev_bind\os/os.h ****   *       2StationStation+SoftAP
 698:..\..\..\..\cloud\alicloud\src\services\dev_bind\os/os.h ****   *          SoftAPStation
 699:..\..\..\..\cloud\alicloud\src\services\dev_bind\os/os.h ****   *       3Wi-Fi
 700:..\..\..\..\cloud\alicloud\src\services\dev_bind\os/os.h ****   *          
 701:..\..\..\..\cloud\alicloud\src\services\dev_bind\os/os.h ****   */
 702:..\..\..\..\cloud\alicloud\src\services\dev_bind\os/os.h **** 
 703:..\..\..\..\cloud\alicloud\src\services\dev_bind\os/os.h **** static inline int os_awss_close_ap()
 704:..\..\..\..\cloud\alicloud\src\services\dev_bind\os/os.h **** {
 705:..\..\..\..\cloud\alicloud\src\services\dev_bind\os/os.h ****     return platform_awss_close_ap();
 706:..\..\..\..\cloud\alicloud\src\services\dev_bind\os/os.h **** }
 707:..\..\..\..\cloud\alicloud\src\services\dev_bind\os/os.h **** 
 708:..\..\..\..\cloud\alicloud\src\services\dev_bind\os/os.h **** /**
 709:..\..\..\..\cloud\alicloud\src\services\dev_bind\os/os.h ****  * @brief Switch to specific wifi channel.
 710:..\..\..\..\cloud\alicloud\src\services\dev_bind\os/os.h ****  *
 711:..\..\..\..\cloud\alicloud\src\services\dev_bind\os/os.h ****  * @param[in] primary_channel @n Primary channel.
 712:..\..\..\..\cloud\alicloud\src\services\dev_bind\os/os.h ****  * @param[in] secondary_channel @n Auxiliary channel.
 713:..\..\..\..\cloud\alicloud\src\services\dev_bind\os/os.h ****  * @param[in] bssid @n A pointer to wifi BSSID.
 714:..\..\..\..\cloud\alicloud\src\services\dev_bind\os/os.h ****  * @return None.
 715:..\..\..\..\cloud\alicloud\src\services\dev_bind\os/os.h ****  * @see None.
 716:..\..\..\..\cloud\alicloud\src\services\dev_bind\os/os.h ****  * @note None.
 717:..\..\..\..\cloud\alicloud\src\services\dev_bind\os/os.h ****  */
 718:..\..\..\..\cloud\alicloud\src\services\dev_bind\os/os.h **** static inline void os_awss_switch_channel(char primary_channel, char secondary_channel, uint8_t bss
 719:..\..\..\..\cloud\alicloud\src\services\dev_bind\os/os.h **** {
 720:..\..\..\..\cloud\alicloud\src\services\dev_bind\os/os.h ****     platform_awss_switch_channel(primary_channel, secondary_channel, bssid);
 661              		.loc 2 720 5
 662 0148 0146     		li	a2,0
 663 014a 8145     		li	a1,0
 664 014c 13954B60 		sext.b	a0,s7
 665              	.LBE37:
 666              	.LBE36:
 210:C:/Users/stapi/OneDrive/Desktop/GD32VW553/V1_MQTT_OK/GD32VW55X_Wifi_BLE_SDK/GD32VW55x_RELEASE_V1.0.2/MSDK/cloud/alicloud/src/services/awss\awss_ap_scan.c ****         }
 667              		.loc 1 210 32 is_stmt 0
 668 0150 CE8B     		mv	s7,s3
 669              	.LVL58:
 670              	.LBB39:
 671              	.LBB38:
 672              		.loc 2 720 5
 673 0152 97000000 		call	HAL_Awss_Switch_Channel
 673      E7800000 
 674              	.LVL59:
 675              	.LBE38:
 676              	.LBE39:
 210:C:/Users/stapi/OneDrive/Desktop/GD32VW553/V1_MQTT_OK/GD32VW55X_Wifi_BLE_SDK/GD32VW55x_RELEASE_V1.0.2/MSDK/cloud/alicloud/src/services/awss\awss_ap_scan.c ****         }
 677              		.loc 1 210 13 is_stmt 1
 212:C:/Users/stapi/OneDrive/Desktop/GD32VW553/V1_MQTT_OK/GD32VW55X_Wifi_BLE_SDK/GD32VW55x_RELEASE_V1.0.2/MSDK/cloud/alicloud/src/services/awss\awss_ap_scan.c ****             // maybe send more than once
 678              		.loc 1 212 9
 679              	.L37:
 202:C:/Users/stapi/OneDrive/Desktop/GD32VW553/V1_MQTT_OK/GD32VW55X_Wifi_BLE_SDK/GD32VW55x_RELEASE_V1.0.2/MSDK/cloud/alicloud/src/services/awss\awss_ap_scan.c ****         && (g_apscan_info.found == 0) ) {
 680              		.loc 1 202 10
 202:C:/Users/stapi/OneDrive/Desktop/GD32VW553/V1_MQTT_OK/GD32VW55X_Wifi_BLE_SDK/GD32VW55x_RELEASE_V1.0.2/MSDK/cloud/alicloud/src/services/awss\awss_ap_scan.c ****         && (g_apscan_info.found == 0) ) {
 681              		.loc 1 202 34 is_stmt 0
 682 015a B3895941 		sub	s3,s3,s5
 683              	.LVL60:
 202:C:/Users/stapi/OneDrive/Desktop/GD32VW553/V1_MQTT_OK/GD32VW55X_Wifi_BLE_SDK/GD32VW55x_RELEASE_V1.0.2/MSDK/cloud/alicloud/src/services/awss\awss_ap_scan.c ****         && (g_apscan_info.found == 0) ) {
 684              		.loc 1 202 10
 685 015e E3EE69F9 		bltu	s3,s6,.L35
 686              	.L41:
 218:C:/Users/stapi/OneDrive/Desktop/GD32VW553/V1_MQTT_OK/GD32VW55X_Wifi_BLE_SDK/GD32VW55x_RELEASE_V1.0.2/MSDK/cloud/alicloud/src/services/awss\awss_ap_scan.c ****     os_awss_close_monitor();
 687              		.loc 1 218 5 is_stmt 1
 688              	.LVL61:
 689              	.LBB40:
 690              	.LBB41:
 465:..\..\..\..\cloud\alicloud\src\services\dev_bind\os/os.h **** 
 691              		.loc 2 465 5
 465:..\..\..\..\cloud\alicloud\src\services\dev_bind\os/os.h **** 
 692              		.loc 2 465 20 is_stmt 0
 693 0162 97000000 		call	os_get_time_ms
 693      E7800000 
 694              	.LVL62:
 467:..\..\..\..\cloud\alicloud\src\services\dev_bind\os/os.h **** }
 695              		.loc 2 467 5 is_stmt 1
 696              	.LBE41:
 697              	.LBE40:
 218:C:/Users/stapi/OneDrive/Desktop/GD32VW553/V1_MQTT_OK/GD32VW55X_Wifi_BLE_SDK/GD32VW55x_RELEASE_V1.0.2/MSDK/cloud/alicloud/src/services/awss\awss_ap_scan.c ****     os_awss_close_monitor();
 698              		.loc 1 218 5 is_stmt 0
 699 016a B3075541 		sub	a5,a0,s5
 700 016e 37070000 		lui	a4,%hi(.LC7)
 701 0172 B7050000 		lui	a1,%hi(.LANCHOR4)
 702 0176 37050000 		lui	a0,%hi(.LC1)
 703 017a 13070700 		addi	a4,a4,%lo(.LC7)
 704 017e 9546     		li	a3,5
 705 0180 1306A00D 		li	a2,218
 706 0184 93850500 		addi	a1,a1,%lo(.LANCHOR4)
 707 0188 13050500 		addi	a0,a0,%lo(.LC1)
 708 018c 97000000 		call	LITE_syslog
 708      E7800000 
 709              	.LVL63:
 219:C:/Users/stapi/OneDrive/Desktop/GD32VW553/V1_MQTT_OK/GD32VW55X_Wifi_BLE_SDK/GD32VW55x_RELEASE_V1.0.2/MSDK/cloud/alicloud/src/services/awss\awss_ap_scan.c **** 
 710              		.loc 1 219 5 is_stmt 1
 711              	.LBB42:
 712              	.LBB43:
 653:..\..\..\..\cloud\alicloud\src\services\dev_bind\os/os.h **** }
 713              		.loc 2 653 5
 714 0194 97000000 		call	HAL_Awss_Close_Monitor
 714      E7800000 
 715              	.LVL64:
 716              	.LBE43:
 717              	.LBE42:
 221:C:/Users/stapi/OneDrive/Desktop/GD32VW553/V1_MQTT_OK/GD32VW55X_Wifi_BLE_SDK/GD32VW55x_RELEASE_V1.0.2/MSDK/cloud/alicloud/src/services/awss\awss_ap_scan.c ****         // apscan found
 718              		.loc 1 221 5
 221:C:/Users/stapi/OneDrive/Desktop/GD32VW553/V1_MQTT_OK/GD32VW55X_Wifi_BLE_SDK/GD32VW55x_RELEASE_V1.0.2/MSDK/cloud/alicloud/src/services/awss\awss_ap_scan.c ****         // apscan found
 719              		.loc 1 221 22 is_stmt 0
 720 019c 83470400 		lbu	a5,0(s0)
 221:C:/Users/stapi/OneDrive/Desktop/GD32VW553/V1_MQTT_OK/GD32VW55X_Wifi_BLE_SDK/GD32VW55x_RELEASE_V1.0.2/MSDK/cloud/alicloud/src/services/awss\awss_ap_scan.c ****         // apscan found
 721              		.loc 1 221 8
 722 01a0 E38707EA 		beq	a5,zero,.L51
 223:C:/Users/stapi/OneDrive/Desktop/GD32VW553/V1_MQTT_OK/GD32VW55X_Wifi_BLE_SDK/GD32VW55x_RELEASE_V1.0.2/MSDK/cloud/alicloud/src/services/awss\awss_ap_scan.c ****         p_scan_result->auth = g_apscan_info.auth;
 723              		.loc 1 223 9 is_stmt 1
 223:C:/Users/stapi/OneDrive/Desktop/GD32VW553/V1_MQTT_OK/GD32VW55X_Wifi_BLE_SDK/GD32VW55x_RELEASE_V1.0.2/MSDK/cloud/alicloud/src/services/awss\awss_ap_scan.c ****         p_scan_result->auth = g_apscan_info.auth;
 724              		.loc 1 223 30 is_stmt 0
 725 01a4 2380F400 		sb	a5,0(s1)
 224:C:/Users/stapi/OneDrive/Desktop/GD32VW553/V1_MQTT_OK/GD32VW55X_Wifi_BLE_SDK/GD32VW55x_RELEASE_V1.0.2/MSDK/cloud/alicloud/src/services/awss\awss_ap_scan.c ****         p_scan_result->channel = g_apscan_info.channel;
 726              		.loc 1 224 9 is_stmt 1
 224:C:/Users/stapi/OneDrive/Desktop/GD32VW553/V1_MQTT_OK/GD32VW55X_Wifi_BLE_SDK/GD32VW55x_RELEASE_V1.0.2/MSDK/cloud/alicloud/src/services/awss\awss_ap_scan.c ****         p_scan_result->channel = g_apscan_info.channel;
 727              		.loc 1 224 44 is_stmt 0
 728 01a8 83471400 		lbu	a5,1(s0)
 227:C:/Users/stapi/OneDrive/Desktop/GD32VW553/V1_MQTT_OK/GD32VW55X_Wifi_BLE_SDK/GD32VW55x_RELEASE_V1.0.2/MSDK/cloud/alicloud/src/services/awss\awss_ap_scan.c ****         memcpy(p_scan_result->ssid, g_apscan_info.ssid, OS_MAX_SSID_LEN);
 729              		.loc 1 227 9
 730 01ac 1946     		li	a2,6
 731 01ae 93055400 		addi	a1,s0,5
 224:C:/Users/stapi/OneDrive/Desktop/GD32VW553/V1_MQTT_OK/GD32VW55X_Wifi_BLE_SDK/GD32VW55x_RELEASE_V1.0.2/MSDK/cloud/alicloud/src/services/awss\awss_ap_scan.c ****         p_scan_result->channel = g_apscan_info.channel;
 732              		.loc 1 224 29
 733 01b2 A380F400 		sb	a5,1(s1)
 225:C:/Users/stapi/OneDrive/Desktop/GD32VW553/V1_MQTT_OK/GD32VW55X_Wifi_BLE_SDK/GD32VW55x_RELEASE_V1.0.2/MSDK/cloud/alicloud/src/services/awss\awss_ap_scan.c ****         memcpy(p_scan_result->encry, g_apscan_info.encry, 2);
 734              		.loc 1 225 9 is_stmt 1
 225:C:/Users/stapi/OneDrive/Desktop/GD32VW553/V1_MQTT_OK/GD32VW55X_Wifi_BLE_SDK/GD32VW55x_RELEASE_V1.0.2/MSDK/cloud/alicloud/src/services/awss\awss_ap_scan.c ****         memcpy(p_scan_result->encry, g_apscan_info.encry, 2);
 735              		.loc 1 225 47 is_stmt 0
 736 01b6 83472400 		lbu	a5,2(s0)
 227:C:/Users/stapi/OneDrive/Desktop/GD32VW553/V1_MQTT_OK/GD32VW55X_Wifi_BLE_SDK/GD32VW55x_RELEASE_V1.0.2/MSDK/cloud/alicloud/src/services/awss\awss_ap_scan.c ****         memcpy(p_scan_result->ssid, g_apscan_info.ssid, OS_MAX_SSID_LEN);
 737              		.loc 1 227 9
 738 01ba 13855400 		addi	a0,s1,5
 225:C:/Users/stapi/OneDrive/Desktop/GD32VW553/V1_MQTT_OK/GD32VW55X_Wifi_BLE_SDK/GD32VW55x_RELEASE_V1.0.2/MSDK/cloud/alicloud/src/services/awss\awss_ap_scan.c ****         memcpy(p_scan_result->encry, g_apscan_info.encry, 2);
 739              		.loc 1 225 32
 740 01be 2381F400 		sb	a5,2(s1)
 226:C:/Users/stapi/OneDrive/Desktop/GD32VW553/V1_MQTT_OK/GD32VW55X_Wifi_BLE_SDK/GD32VW55x_RELEASE_V1.0.2/MSDK/cloud/alicloud/src/services/awss\awss_ap_scan.c ****         memcpy(p_scan_result->mac, g_apscan_info.mac, OS_ETH_ALEN);
 741              		.loc 1 226 9 is_stmt 1
 742 01c2 83473400 		lbu	a5,3(s0)
 743 01c6 A381F400 		sb	a5,3(s1)
 744 01ca 83474400 		lbu	a5,4(s0)
 745 01ce 2382F400 		sb	a5,4(s1)
 227:C:/Users/stapi/OneDrive/Desktop/GD32VW553/V1_MQTT_OK/GD32VW55X_Wifi_BLE_SDK/GD32VW55x_RELEASE_V1.0.2/MSDK/cloud/alicloud/src/services/awss\awss_ap_scan.c ****         memcpy(p_scan_result->ssid, g_apscan_info.ssid, OS_MAX_SSID_LEN);
 746              		.loc 1 227 9
 747 01d2 97000000 		call	memcpy
 747      E7800000 
 748              	.LVL65:
 228:C:/Users/stapi/OneDrive/Desktop/GD32VW553/V1_MQTT_OK/GD32VW55X_Wifi_BLE_SDK/GD32VW55x_RELEASE_V1.0.2/MSDK/cloud/alicloud/src/services/awss\awss_ap_scan.c ****         p_scan_result->rssi = g_apscan_info.rssi;        
 749              		.loc 1 228 9
 750 01da 13061002 		li	a2,33
 751 01de D285     		mv	a1,s4
 752 01e0 1385B400 		addi	a0,s1,11
 753 01e4 97000000 		call	memcpy
 753      E7800000 
 754              	.LVL66:
 229:C:/Users/stapi/OneDrive/Desktop/GD32VW553/V1_MQTT_OK/GD32VW55X_Wifi_BLE_SDK/GD32VW55x_RELEASE_V1.0.2/MSDK/cloud/alicloud/src/services/awss\awss_ap_scan.c ****         result = 0;
 755              		.loc 1 229 9
 229:C:/Users/stapi/OneDrive/Desktop/GD32VW553/V1_MQTT_OK/GD32VW55X_Wifi_BLE_SDK/GD32VW55x_RELEASE_V1.0.2/MSDK/cloud/alicloud/src/services/awss\awss_ap_scan.c ****         result = 0;
 756              		.loc 1 229 44 is_stmt 0
 757 01ec 8307C402 		lb	a5,44(s0)
 229:C:/Users/stapi/OneDrive/Desktop/GD32VW553/V1_MQTT_OK/GD32VW55X_Wifi_BLE_SDK/GD32VW55x_RELEASE_V1.0.2/MSDK/cloud/alicloud/src/services/awss\awss_ap_scan.c ****         result = 0;
 758              		.loc 1 229 29
 759 01f0 2386F402 		sb	a5,44(s1)
 230:C:/Users/stapi/OneDrive/Desktop/GD32VW553/V1_MQTT_OK/GD32VW55X_Wifi_BLE_SDK/GD32VW55x_RELEASE_V1.0.2/MSDK/cloud/alicloud/src/services/awss\awss_ap_scan.c ****     } else {
 760              		.loc 1 230 9 is_stmt 1
 761              	.LVL67:
 762 01f4 B1BD     		j	.L29
 763              	.LVL68:
 764              	.L36:
 212:C:/Users/stapi/OneDrive/Desktop/GD32VW553/V1_MQTT_OK/GD32VW55X_Wifi_BLE_SDK/GD32VW55x_RELEASE_V1.0.2/MSDK/cloud/alicloud/src/services/awss\awss_ap_scan.c ****             // maybe send more than once
 765              		.loc 1 212 9
 212:C:/Users/stapi/OneDrive/Desktop/GD32VW553/V1_MQTT_OK/GD32VW55X_Wifi_BLE_SDK/GD32VW55x_RELEASE_V1.0.2/MSDK/cloud/alicloud/src/services/awss\awss_ap_scan.c ****             // maybe send more than once
 766              		.loc 1 212 12 is_stmt 0
 767 01f6 13072004 		li	a4,66
 768 01fa E370F7F6 		bleu	a5,a4,.L37
 214:C:/Users/stapi/OneDrive/Desktop/GD32VW553/V1_MQTT_OK/GD32VW55X_Wifi_BLE_SDK/GD32VW55x_RELEASE_V1.0.2/MSDK/cloud/alicloud/src/services/awss\awss_ap_scan.c ****         }
 769              		.loc 1 214 13 is_stmt 1
 770              	.LBB44:
 771              	.LBB45:
  50:C:/Users/stapi/OneDrive/Desktop/GD32VW553/V1_MQTT_OK/GD32VW55X_Wifi_BLE_SDK/GD32VW55x_RELEASE_V1.0.2/MSDK/cloud/alicloud/src/services/awss\awss_ap_scan.c ****     uint8_t ssid_len = strlen(g_apscan_info.ssid);
 772              		.loc 1 50 5
  51:C:/Users/stapi/OneDrive/Desktop/GD32VW553/V1_MQTT_OK/GD32VW55X_Wifi_BLE_SDK/GD32VW55x_RELEASE_V1.0.2/MSDK/cloud/alicloud/src/services/awss\awss_ap_scan.c **** 
 773              		.loc 1 51 5
  51:C:/Users/stapi/OneDrive/Desktop/GD32VW553/V1_MQTT_OK/GD32VW55X_Wifi_BLE_SDK/GD32VW55x_RELEASE_V1.0.2/MSDK/cloud/alicloud/src/services/awss\awss_ap_scan.c **** 
 774              		.loc 1 51 24 is_stmt 0
 775 01fe 5285     		mv	a0,s4
 776              	.LVL69:
 777 0200 97000000 		call	strlen
 777      E7800000 
 778              	.LVL70:
  51:C:/Users/stapi/OneDrive/Desktop/GD32VW553/V1_MQTT_OK/GD32VW55X_Wifi_BLE_SDK/GD32VW55x_RELEASE_V1.0.2/MSDK/cloud/alicloud/src/services/awss\awss_ap_scan.c **** 
 779              		.loc 1 51 13
 780 0208 1377F50F 		andi	a4,a0,0xff
 781 020c 3AC6     		sw	a4,12(sp)
 782              	.LVL71:
  53:C:/Users/stapi/OneDrive/Desktop/GD32VW553/V1_MQTT_OK/GD32VW55X_Wifi_BLE_SDK/GD32VW55x_RELEASE_V1.0.2/MSDK/cloud/alicloud/src/services/awss\awss_ap_scan.c ****         return -1;
 783              		.loc 1 53 5 is_stmt 1
  51:C:/Users/stapi/OneDrive/Desktop/GD32VW553/V1_MQTT_OK/GD32VW55X_Wifi_BLE_SDK/GD32VW55x_RELEASE_V1.0.2/MSDK/cloud/alicloud/src/services/awss\awss_ap_scan.c **** 
 784              		.loc 1 51 24 is_stmt 0
 785 020e 2A8C     		mv	s8,a0
  53:C:/Users/stapi/OneDrive/Desktop/GD32VW553/V1_MQTT_OK/GD32VW55X_Wifi_BLE_SDK/GD32VW55x_RELEASE_V1.0.2/MSDK/cloud/alicloud/src/services/awss\awss_ap_scan.c ****         return -1;
 786              		.loc 1 53 8
 787 0210 29D5     		beq	a0,zero,.L37
  57:C:/Users/stapi/OneDrive/Desktop/GD32VW553/V1_MQTT_OK/GD32VW55X_Wifi_BLE_SDK/GD32VW55x_RELEASE_V1.0.2/MSDK/cloud/alicloud/src/services/awss\awss_ap_scan.c ****     os_wifi_get_mac(&probe[APSCAN_SA_OFFSET]);
 788              		.loc 1 57 5 is_stmt 1
 789 0212 B7070000 		lui	a5,%hi(.LANCHOR5)
 790 0216 93850700 		addi	a1,a5,%lo(.LANCHOR5)
 791 021a 6946     		li	a2,26
 792 021c 0808     		addi	a0,sp,16
 793 021e 97000000 		call	memcpy
 793      E7800000 
 794              	.LVL72:
  58:C:/Users/stapi/OneDrive/Desktop/GD32VW553/V1_MQTT_OK/GD32VW55X_Wifi_BLE_SDK/GD32VW55x_RELEASE_V1.0.2/MSDK/cloud/alicloud/src/services/awss\awss_ap_scan.c ****     probe[APSCAN_PROBE_REQ_HEAD_LEN - 1] = ssid_len;
 795              		.loc 1 58 5
 796 0226 1305A101 		addi	a0,sp,26
 797 022a 97000000 		call	os_wifi_get_mac
 797      E7800000 
 798              	.LVL73:
  59:C:/Users/stapi/OneDrive/Desktop/GD32VW553/V1_MQTT_OK/GD32VW55X_Wifi_BLE_SDK/GD32VW55x_RELEASE_V1.0.2/MSDK/cloud/alicloud/src/services/awss\awss_ap_scan.c ****     strncpy((char *)(probe + APSCAN_PROBE_REQ_HEAD_LEN), g_apscan_info.ssid, ssid_len);
 799              		.loc 1 59 5
  59:C:/Users/stapi/OneDrive/Desktop/GD32VW553/V1_MQTT_OK/GD32VW55X_Wifi_BLE_SDK/GD32VW55x_RELEASE_V1.0.2/MSDK/cloud/alicloud/src/services/awss\awss_ap_scan.c ****     strncpy((char *)(probe + APSCAN_PROBE_REQ_HEAD_LEN), g_apscan_info.ssid, ssid_len);
 800              		.loc 1 59 42 is_stmt 0
 801 0232 3247     		lw	a4,12(sp)
  60:C:/Users/stapi/OneDrive/Desktop/GD32VW553/V1_MQTT_OK/GD32VW55X_Wifi_BLE_SDK/GD32VW55x_RELEASE_V1.0.2/MSDK/cloud/alicloud/src/services/awss\awss_ap_scan.c ****     memcpy(probe + APSCAN_PROBE_REQ_HEAD_LEN + ssid_len, apscan_probe_req_frame_tail, APSCAN_PROBE_
 802              		.loc 1 60 5
 803 0234 6286     		mv	a2,s8
 804 0236 D285     		mv	a1,s4
 805 0238 1305A102 		addi	a0,sp,42
  59:C:/Users/stapi/OneDrive/Desktop/GD32VW553/V1_MQTT_OK/GD32VW55X_Wifi_BLE_SDK/GD32VW55x_RELEASE_V1.0.2/MSDK/cloud/alicloud/src/services/awss\awss_ap_scan.c ****     strncpy((char *)(probe + APSCAN_PROBE_REQ_HEAD_LEN), g_apscan_info.ssid, ssid_len);
 806              		.loc 1 59 42
 807 023c A304E102 		sb	a4,41(sp)
  60:C:/Users/stapi/OneDrive/Desktop/GD32VW553/V1_MQTT_OK/GD32VW55X_Wifi_BLE_SDK/GD32VW55x_RELEASE_V1.0.2/MSDK/cloud/alicloud/src/services/awss\awss_ap_scan.c ****     memcpy(probe + APSCAN_PROBE_REQ_HEAD_LEN + ssid_len, apscan_probe_req_frame_tail, APSCAN_PROBE_
 808              		.loc 1 60 5 is_stmt 1
 809 0240 97000000 		call	strncpy
 809      E7800000 
 810              	.LVL74:
  61:C:/Users/stapi/OneDrive/Desktop/GD32VW553/V1_MQTT_OK/GD32VW55X_Wifi_BLE_SDK/GD32VW55x_RELEASE_V1.0.2/MSDK/cloud/alicloud/src/services/awss\awss_ap_scan.c ****     os_wifi_send_80211_raw_frame(FRAME_PROBE_REQ, probe, sizeof(probe));
 811              		.loc 1 61 5
 812 0248 9C10     		addi	a5,sp,96
 813              	.LVL75:
 814 024a 33858701 		add	a0,a5,s8
 815 024e B7070000 		lui	a5,%hi(.LC6)
 816              	.LVL76:
 817 0252 93850700 		addi	a1,a5,%lo(.LC6)
 818 0256 5146     		li	a2,20
 819 0258 1305A5FC 		addi	a0,a0,-54
 820 025c 97000000 		call	memcpy
 820      E7800000 
 821              	.LVL77:
  62:C:/Users/stapi/OneDrive/Desktop/GD32VW553/V1_MQTT_OK/GD32VW55X_Wifi_BLE_SDK/GD32VW55x_RELEASE_V1.0.2/MSDK/cloud/alicloud/src/services/awss\awss_ap_scan.c **** 
 822              		.loc 1 62 5
 823              	.LBB46:
 824              	.LBB47:
 721:..\..\..\..\cloud\alicloud\src\services\dev_bind\os/os.h **** }
 722:..\..\..\..\cloud\alicloud\src\services\dev_bind\os/os.h **** 
 723:..\..\..\..\cloud\alicloud\src\services\dev_bind\os/os.h **** /**
 724:..\..\..\..\cloud\alicloud\src\services\dev_bind\os/os.h ****  * @brief Wifi AP connect function
 725:..\..\..\..\cloud\alicloud\src\services\dev_bind\os/os.h ****  *
 726:..\..\..\..\cloud\alicloud\src\services\dev_bind\os/os.h ****  * @param[in] connection_timeout_ms @n AP connection timeout in ms or PLATFORM_WAIT_INFINITE
 727:..\..\..\..\cloud\alicloud\src\services\dev_bind\os/os.h ****  * @param[in] ssid @n AP ssid
 728:..\..\..\..\cloud\alicloud\src\services\dev_bind\os/os.h ****  * @param[in] passwd @n AP passwd
 729:..\..\..\..\cloud\alicloud\src\services\dev_bind\os/os.h ****  * @param[in] auth @n optional(AWSS_AUTH_TYPE_INVALID), AP auth info
 730:..\..\..\..\cloud\alicloud\src\services\dev_bind\os/os.h ****  * @param[in] encry @n optional(AWSS_ENC_TYPE_INVALID), AP encry info
 731:..\..\..\..\cloud\alicloud\src\services\dev_bind\os/os.h ****  * @param[in] bssid @n optional(NULL or zero mac address), AP bssid info
 732:..\..\..\..\cloud\alicloud\src\services\dev_bind\os/os.h ****  * @param[in] channel @n optional, AP channel info
 733:..\..\..\..\cloud\alicloud\src\services\dev_bind\os/os.h ****  * @return
 734:..\..\..\..\cloud\alicloud\src\services\dev_bind\os/os.h ****    @verbatim
 735:..\..\..\..\cloud\alicloud\src\services\dev_bind\os/os.h ****      = 0: connect AP & DHCP success
 736:..\..\..\..\cloud\alicloud\src\services\dev_bind\os/os.h ****      = -1: connect AP or DHCP fail/timeout
 737:..\..\..\..\cloud\alicloud\src\services\dev_bind\os/os.h ****    @endverbatim
 738:..\..\..\..\cloud\alicloud\src\services\dev_bind\os/os.h ****  * @see None.
 739:..\..\..\..\cloud\alicloud\src\services\dev_bind\os/os.h ****  * @note None.
 740:..\..\..\..\cloud\alicloud\src\services\dev_bind\os/os.h ****  */
 741:..\..\..\..\cloud\alicloud\src\services\dev_bind\os/os.h **** static inline int os_awss_connect_ap(
 742:..\..\..\..\cloud\alicloud\src\services\dev_bind\os/os.h ****             _IN_ uint32_t connection_timeout_ms,
 743:..\..\..\..\cloud\alicloud\src\services\dev_bind\os/os.h ****             _IN_ char ssid[OS_MAX_SSID_LEN],
 744:..\..\..\..\cloud\alicloud\src\services\dev_bind\os/os.h ****             _IN_ char passwd[OS_MAX_PASSWD_LEN],
 745:..\..\..\..\cloud\alicloud\src\services\dev_bind\os/os.h ****             _IN_OPT_ enum AWSS_AUTH_TYPE auth,
 746:..\..\..\..\cloud\alicloud\src\services\dev_bind\os/os.h ****             _IN_OPT_ enum AWSS_ENC_TYPE encry,
 747:..\..\..\..\cloud\alicloud\src\services\dev_bind\os/os.h ****             _IN_OPT_ uint8_t bssid[ETH_ALEN],
 748:..\..\..\..\cloud\alicloud\src\services\dev_bind\os/os.h ****             _IN_OPT_ uint8_t channel)
 749:..\..\..\..\cloud\alicloud\src\services\dev_bind\os/os.h **** {
 750:..\..\..\..\cloud\alicloud\src\services\dev_bind\os/os.h ****     return platform_awss_connect_ap(connection_timeout_ms, ssid, passwd,
 751:..\..\..\..\cloud\alicloud\src\services\dev_bind\os/os.h ****                                     auth, encry, bssid, channel);
 752:..\..\..\..\cloud\alicloud\src\services\dev_bind\os/os.h **** }
 753:..\..\..\..\cloud\alicloud\src\services\dev_bind\os/os.h **** 
 754:..\..\..\..\cloud\alicloud\src\services\dev_bind\os/os.h **** #define os_wifi_scan_result_cb_t    platform_wifi_scan_result_cb_t
 755:..\..\..\..\cloud\alicloud\src\services\dev_bind\os/os.h **** 
 756:..\..\..\..\cloud\alicloud\src\services\dev_bind\os/os.h **** /**
 757:..\..\..\..\cloud\alicloud\src\services\dev_bind\os/os.h ****  * @brief send 80211 raw frame in current channel with basic rate(1Mbps)
 758:..\..\..\..\cloud\alicloud\src\services\dev_bind\os/os.h ****  *
 759:..\..\..\..\cloud\alicloud\src\services\dev_bind\os/os.h ****  * @param[in] type @n see enum platform_awss_frame_type, currently only FRAME_BEACON
 760:..\..\..\..\cloud\alicloud\src\services\dev_bind\os/os.h ****  *                      FRAME_PROBE_REQ is used
 761:..\..\..\..\cloud\alicloud\src\services\dev_bind\os/os.h ****  * @param[in] buffer @n 80211 raw frame, include complete mac header & FCS field
 762:..\..\..\..\cloud\alicloud\src\services\dev_bind\os/os.h ****  * @param[in] len @n 80211 raw frame length
 763:..\..\..\..\cloud\alicloud\src\services\dev_bind\os/os.h ****  * @return
 764:..\..\..\..\cloud\alicloud\src\services\dev_bind\os/os.h ****    @verbatim
 765:..\..\..\..\cloud\alicloud\src\services\dev_bind\os/os.h ****    =  0, send success.
 766:..\..\..\..\cloud\alicloud\src\services\dev_bind\os/os.h ****    = -1, send failure.
 767:..\..\..\..\cloud\alicloud\src\services\dev_bind\os/os.h ****    = -2, unsupported.
 768:..\..\..\..\cloud\alicloud\src\services\dev_bind\os/os.h ****    @endverbatim
 769:..\..\..\..\cloud\alicloud\src\services\dev_bind\os/os.h ****  * @see None.
 770:..\..\..\..\cloud\alicloud\src\services\dev_bind\os/os.h ****  * @note awss use this API send raw frame in wifi monitor mode & station mode
 771:..\..\..\..\cloud\alicloud\src\services\dev_bind\os/os.h ****  */
 772:..\..\..\..\cloud\alicloud\src\services\dev_bind\os/os.h **** static inline int os_wifi_send_80211_raw_frame(_IN_ enum platform_awss_frame_type type,
 773:..\..\..\..\cloud\alicloud\src\services\dev_bind\os/os.h ****         _IN_ uint8_t *buffer, _IN_ int len)
 774:..\..\..\..\cloud\alicloud\src\services\dev_bind\os/os.h **** {
 775:..\..\..\..\cloud\alicloud\src\services\dev_bind\os/os.h ****     return platform_wifi_send_80211_raw_frame(type, buffer, len);
 825              		.loc 2 775 5
 826              		.loc 2 775 12 is_stmt 0
 827 0264 1306F004 		li	a2,79
 828 0268 0C08     		addi	a1,sp,16
 829              	.LVL78:
 830 026a 0945     		li	a0,2
 831 026c 97000000 		call	HAL_Wifi_Send_80211_Raw_Frame
 831      E7800000 
 832              	.LVL79:
 833 0274 DDB5     		j	.L37
 834              	.LBE47:
 835              	.LBE46:
 836              	.LBE45:
 837              	.LBE44:
 838              		.cfi_endproc
 839              	.LFE53:
 841              		.section	.rodata.apscan_send_unusable_beacon.str1.4,"aMS",@progbits,1
 842              		.align	2
 843              	.LC8:
 844 0000 6164685F 		.string	"adh_test"
 844      74657374 
 844      00
 845 0009 000000   		.align	2
 846              	.LC9:
 847 000c 6164685F 		.string	"adh_unusable"
 847      756E7573 
 847      61626C65 
 847      00
 848              		.section	.text.apscan_send_unusable_beacon,"ax",@progbits
 849              		.align	1
 850              		.globl	apscan_send_unusable_beacon
 852              	apscan_send_unusable_beacon:
 853              	.LFB54:
 238:C:/Users/stapi/OneDrive/Desktop/GD32VW553/V1_MQTT_OK/GD32VW55X_Wifi_BLE_SDK/GD32VW55x_RELEASE_V1.0.2/MSDK/cloud/alicloud/src/services/awss\awss_ap_scan.c **** 
 239:C:/Users/stapi/OneDrive/Desktop/GD32VW553/V1_MQTT_OK/GD32VW55X_Wifi_BLE_SDK/GD32VW55x_RELEASE_V1.0.2/MSDK/cloud/alicloud/src/services/awss\awss_ap_scan.c **** int apscan_send_unusable_beacon(void)
 240:C:/Users/stapi/OneDrive/Desktop/GD32VW553/V1_MQTT_OK/GD32VW55X_Wifi_BLE_SDK/GD32VW55x_RELEASE_V1.0.2/MSDK/cloud/alicloud/src/services/awss\awss_ap_scan.c **** {
 854              		.loc 1 240 1 is_stmt 1
 855              		.cfi_startproc
 856 0000 17030000 		call	t0,__riscv_save_2
 856      E7020300 
 857              		.cfi_offset 9, -12
 858              		.cfi_offset 8, -8
 859              		.cfi_offset 1, -4
 860              		.cfi_def_cfa_offset 16
 241:C:/Users/stapi/OneDrive/Desktop/GD32VW553/V1_MQTT_OK/GD32VW55X_Wifi_BLE_SDK/GD32VW55x_RELEASE_V1.0.2/MSDK/cloud/alicloud/src/services/awss\awss_ap_scan.c ****     uint32_t beacon_start_time = 0;
 861              		.loc 1 241 5
 862              	.LVL80:
 242:C:/Users/stapi/OneDrive/Desktop/GD32VW553/V1_MQTT_OK/GD32VW55X_Wifi_BLE_SDK/GD32VW55x_RELEASE_V1.0.2/MSDK/cloud/alicloud/src/services/awss\awss_ap_scan.c ****     uint32_t beacon_sending_time = 0;
 863              		.loc 1 242 5
 243:C:/Users/stapi/OneDrive/Desktop/GD32VW553/V1_MQTT_OK/GD32VW55X_Wifi_BLE_SDK/GD32VW55x_RELEASE_V1.0.2/MSDK/cloud/alicloud/src/services/awss\awss_ap_scan.c **** 
 244:C:/Users/stapi/OneDrive/Desktop/GD32VW553/V1_MQTT_OK/GD32VW55X_Wifi_BLE_SDK/GD32VW55x_RELEASE_V1.0.2/MSDK/cloud/alicloud/src/services/awss\awss_ap_scan.c ****     os_awss_open_ap("adh_unusable", "adh_test", 100, 0);
 864              		.loc 1 244 5
 865              	.LBB54:
 866              	.LBB55:
 682:..\..\..\..\cloud\alicloud\src\services\dev_bind\os/os.h **** }
 867              		.loc 2 682 5
 682:..\..\..\..\cloud\alicloud\src\services\dev_bind\os/os.h **** }
 868              		.loc 2 682 12 is_stmt 0
 869 0008 B7050000 		lui	a1,%hi(.LC8)
 870 000c 37050000 		lui	a0,%hi(.LC9)
 871 0010 8146     		li	a3,0
 872 0012 13064006 		li	a2,100
 873 0016 93850500 		addi	a1,a1,%lo(.LC8)
 874 001a 13050500 		addi	a0,a0,%lo(.LC9)
 875 001e 97000000 		call	HAL_Awss_Open_Ap
 875      E7800000 
 876              	.LVL81:
 877              	.LBE55:
 878              	.LBE54:
 245:C:/Users/stapi/OneDrive/Desktop/GD32VW553/V1_MQTT_OK/GD32VW55X_Wifi_BLE_SDK/GD32VW55x_RELEASE_V1.0.2/MSDK/cloud/alicloud/src/services/awss\awss_ap_scan.c **** 
 246:C:/Users/stapi/OneDrive/Desktop/GD32VW553/V1_MQTT_OK/GD32VW55X_Wifi_BLE_SDK/GD32VW55x_RELEASE_V1.0.2/MSDK/cloud/alicloud/src/services/awss\awss_ap_scan.c ****     beacon_start_time = os_get_time_ms();
 879              		.loc 1 246 5 is_stmt 1
 880              		.loc 1 246 25 is_stmt 0
 881 0026 97000000 		call	os_get_time_ms
 881      E7800000 
 882              	.LVL82:
 247:C:/Users/stapi/OneDrive/Desktop/GD32VW553/V1_MQTT_OK/GD32VW55X_Wifi_BLE_SDK/GD32VW55x_RELEASE_V1.0.2/MSDK/cloud/alicloud/src/services/awss\awss_ap_scan.c ****     beacon_sending_time = beacon_start_time;
 248:C:/Users/stapi/OneDrive/Desktop/GD32VW553/V1_MQTT_OK/GD32VW55X_Wifi_BLE_SDK/GD32VW55x_RELEASE_V1.0.2/MSDK/cloud/alicloud/src/services/awss\awss_ap_scan.c **** 
 249:C:/Users/stapi/OneDrive/Desktop/GD32VW553/V1_MQTT_OK/GD32VW55X_Wifi_BLE_SDK/GD32VW55x_RELEASE_V1.0.2/MSDK/cloud/alicloud/src/services/awss\awss_ap_scan.c ****     while( ((beacon_sending_time - beacon_start_time) < 3000)) {
 883              		.loc 1 249 10
 884 002e 0564     		li	s0,4096
 246:C:/Users/stapi/OneDrive/Desktop/GD32VW553/V1_MQTT_OK/GD32VW55X_Wifi_BLE_SDK/GD32VW55x_RELEASE_V1.0.2/MSDK/cloud/alicloud/src/services/awss\awss_ap_scan.c ****     beacon_sending_time = beacon_start_time;
 885              		.loc 1 246 25
 886 0030 AA84     		mv	s1,a0
 887              	.LVL83:
 247:C:/Users/stapi/OneDrive/Desktop/GD32VW553/V1_MQTT_OK/GD32VW55X_Wifi_BLE_SDK/GD32VW55x_RELEASE_V1.0.2/MSDK/cloud/alicloud/src/services/awss\awss_ap_scan.c ****     beacon_sending_time = beacon_start_time;
 888              		.loc 1 247 5 is_stmt 1
 889              		.loc 1 249 5
 890              		.loc 1 249 10
 891 0032 130474BB 		addi	s0,s0,-1097
 892              	.LVL84:
 893              	.L54:
 250:C:/Users/stapi/OneDrive/Desktop/GD32VW553/V1_MQTT_OK/GD32VW55X_Wifi_BLE_SDK/GD32VW55x_RELEASE_V1.0.2/MSDK/cloud/alicloud/src/services/awss\awss_ap_scan.c ****         os_msleep(100);
 894              		.loc 1 250 9
 895              	.LBB56:
 896              	.LBB57:
 210:..\..\..\..\cloud\alicloud\src\services\dev_bind\os/os.h **** }
 897              		.loc 2 210 5
 898 0036 13054006 		li	a0,100
 899 003a 97000000 		call	HAL_SleepMs
 899      E7800000 
 900              	.LVL85:
 901              	.LBE57:
 902              	.LBE56:
 251:C:/Users/stapi/OneDrive/Desktop/GD32VW553/V1_MQTT_OK/GD32VW55X_Wifi_BLE_SDK/GD32VW55x_RELEASE_V1.0.2/MSDK/cloud/alicloud/src/services/awss\awss_ap_scan.c ****         beacon_sending_time = os_get_time_ms();
 903              		.loc 1 251 9
 904              		.loc 1 251 31 is_stmt 0
 905 0042 97000000 		call	os_get_time_ms
 905      E7800000 
 906              	.LVL86:
 249:C:/Users/stapi/OneDrive/Desktop/GD32VW553/V1_MQTT_OK/GD32VW55X_Wifi_BLE_SDK/GD32VW55x_RELEASE_V1.0.2/MSDK/cloud/alicloud/src/services/awss\awss_ap_scan.c ****         os_msleep(100);
 907              		.loc 1 249 10 is_stmt 1
 249:C:/Users/stapi/OneDrive/Desktop/GD32VW553/V1_MQTT_OK/GD32VW55X_Wifi_BLE_SDK/GD32VW55x_RELEASE_V1.0.2/MSDK/cloud/alicloud/src/services/awss\awss_ap_scan.c ****         os_msleep(100);
 908              		.loc 1 249 34 is_stmt 0
 909 004a B3079540 		sub	a5,a0,s1
 249:C:/Users/stapi/OneDrive/Desktop/GD32VW553/V1_MQTT_OK/GD32VW55X_Wifi_BLE_SDK/GD32VW55x_RELEASE_V1.0.2/MSDK/cloud/alicloud/src/services/awss\awss_ap_scan.c ****         os_msleep(100);
 910              		.loc 1 249 10
 911 004e E374F4FE 		bleu	a5,s0,.L54
 252:C:/Users/stapi/OneDrive/Desktop/GD32VW553/V1_MQTT_OK/GD32VW55X_Wifi_BLE_SDK/GD32VW55x_RELEASE_V1.0.2/MSDK/cloud/alicloud/src/services/awss\awss_ap_scan.c ****     }
 253:C:/Users/stapi/OneDrive/Desktop/GD32VW553/V1_MQTT_OK/GD32VW55X_Wifi_BLE_SDK/GD32VW55x_RELEASE_V1.0.2/MSDK/cloud/alicloud/src/services/awss\awss_ap_scan.c **** 
 254:C:/Users/stapi/OneDrive/Desktop/GD32VW553/V1_MQTT_OK/GD32VW55X_Wifi_BLE_SDK/GD32VW55x_RELEASE_V1.0.2/MSDK/cloud/alicloud/src/services/awss\awss_ap_scan.c ****     os_awss_close_ap();
 912              		.loc 1 254 5 is_stmt 1
 913              	.LBB58:
 914              	.LBB59:
 705:..\..\..\..\cloud\alicloud\src\services\dev_bind\os/os.h **** }
 915              		.loc 2 705 5
 705:..\..\..\..\cloud\alicloud\src\services\dev_bind\os/os.h **** }
 916              		.loc 2 705 12 is_stmt 0
 917 0052 97000000 		call	HAL_Awss_Close_Ap
 917      E7800000 
 918              	.LVL87:
 919              	.LBE59:
 920              	.LBE58:
 255:C:/Users/stapi/OneDrive/Desktop/GD32VW553/V1_MQTT_OK/GD32VW55X_Wifi_BLE_SDK/GD32VW55x_RELEASE_V1.0.2/MSDK/cloud/alicloud/src/services/awss\awss_ap_scan.c **** 
 256:C:/Users/stapi/OneDrive/Desktop/GD32VW553/V1_MQTT_OK/GD32VW55X_Wifi_BLE_SDK/GD32VW55x_RELEASE_V1.0.2/MSDK/cloud/alicloud/src/services/awss\awss_ap_scan.c ****     return 0;
 921              		.loc 1 256 5 is_stmt 1
 257:C:/Users/stapi/OneDrive/Desktop/GD32VW553/V1_MQTT_OK/GD32VW55X_Wifi_BLE_SDK/GD32VW55x_RELEASE_V1.0.2/MSDK/cloud/alicloud/src/services/awss\awss_ap_scan.c **** }
 922              		.loc 1 257 1 is_stmt 0
 923 005a 0145     		li	a0,0
 924 005c 17030000 		tail	__riscv_restore_2
 924      67000300 
 925              		.cfi_restore 9
 926              		.cfi_restore 8
 927              		.cfi_restore 1
 928              		.cfi_def_cfa_offset 0
 929              		.cfi_endproc
 930              	.LFE54:
 932              		.section	.rodata
 933              		.align	2
 934              		.set	.LANCHOR5,. + 0
 935              	.LC5:
 936 0000 4000     		.string	"@"
 937 0002 00       		.string	""
 938 0003 00       		.string	""
 939 0004 FFFFFFFF 		.string	"\377\377\377\377\377\377(\302\335ah\203\377\377\377\377\377\377\300y"
 939      FFFF28C2 
 939      DD616883 
 939      FFFFFFFF 
 939      FFFFC079 
 940 0019 03       		.ascii	"\003"
 941              		.section	.bss.g_apscan_info,"aw",@nobits
 942              		.align	2
 943              		.set	.LANCHOR0,. + 0
 946              	g_apscan_info:
 947 0000 00000000 		.zero	45
 947      00000000 
 947      00000000 
 947      00000000 
 947      00000000 
 948              		.section	.rodata.__FUNCTION__.1,"a"
 949              		.align	2
 950              		.set	.LANCHOR1,. + 0
 953              	__FUNCTION__.1:
 954 0000 61707363 		.string	"apscan_80211_frame_handler"
 954      616E5F38 
 954      30323131 
 954      5F667261 
 954      6D655F68 
 955              		.section	.rodata.__FUNCTION__.2,"a"
 956              		.align	2
 957              		.set	.LANCHOR4,. + 0
 960              	__FUNCTION__.2:
 961 0000 61777373 		.string	"awss_apscan_process"
 961      5F617073 
 961      63616E5F 
 961      70726F63 
 961      65737300 
 962              		.section	.sbss.fixed_delta.0,"aw",@nobits
 963              		.align	2
 964              		.set	.LANCHOR2,. + 0
 967              	fixed_delta.0:
 968 0000 00000000 		.zero	4
 969              		.section	.sbss.g_apscan_chan_idx,"aw",@nobits
 970              		.set	.LANCHOR3,. + 0
 973              	g_apscan_chan_idx:
 974 0000 00       		.zero	1
 975              		.text
 976              	.Letext0:
 977              		.file 3 "c:\\users\\stapi\\onedrive\\desktop\\gd32vw553\\embeddedbuilder_v1.4.7.26843\\tools\\nucl
 978              		.file 4 "c:\\users\\stapi\\onedrive\\desktop\\gd32vw553\\embeddedbuilder_v1.4.7.26843\\tools\\nucl
 979              		.file 5 "..\\..\\..\\..\\cloud\\alicloud\\include/exports/iot_export_awss.h"
 980              		.file 6 "..\\..\\..\\..\\cloud\\alicloud\\include/imports/iot_import_awss.h"
 981              		.file 7 "..\\..\\..\\..\\cloud\\alicloud\\src\\services\\dev_bind\\os/platform.h"
 982              		.file 8 "C:/Users/stapi/OneDrive/Desktop/GD32VW553/V1_MQTT_OK/GD32VW55X_Wifi_BLE_SDK/GD32VW55x_REL
 983              		.file 9 "C:/Users/stapi/OneDrive/Desktop/GD32VW553/V1_MQTT_OK/GD32VW55X_Wifi_BLE_SDK/GD32VW55x_REL
 984              		.file 10 "..\\..\\..\\..\\cloud\\alicloud\\include/iot_import.h"
 985              		.file 11 "c:\\users\\stapi\\onedrive\\desktop\\gd32vw553\\embeddedbuilder_v1.4.7.26843\\tools\\nuc
 986              		.file 12 "..\\..\\..\\..\\cloud\\alicloud\\src\\infra\\log/iotx_log.h"
 987              		.file 13 "<built-in>"