   1              		.file	"connect_ap.c"
   2              		.option nopic
   3              		.attribute arch, "rv32i2p0_m2p0_a2p0_f2p0_c2p0_b_p0p94"
   4              		.attribute unaligned_access, 0
   5              		.attribute stack_align, 16
   6              		.text
   7              	.Ltext0:
   8              		.cfi_sections	.debug_frame
   9              		.section	.rodata.awss_complete_token.str1.4,"aMS",@progbits,1
  10              		.align	2
  11              	.LC0:
  12 0000 5B77726E 		.string	"[wrn] "
  12      5D2000
  13 0007 00       		.align	2
  14              	.LC1:
  15 0008 6E6F2074 		.string	"no token"
  15      6F6B656E 
  15      00
  16 0011 000000   		.align	2
  17              	.LC2:
  18 0014 0D0A00   		.string	"\r\n"
  19              		.section	.text.awss_complete_token,"ax",@progbits
  20              		.align	1
  21              		.globl	awss_complete_token
  23              	awss_complete_token:
  24              	.LFB65:
  25              		.file 1 "C:/Users/stapi/OneDrive/Desktop/GD32VW553/V1_MQTT_OK/GD32VW55X_Wifi_BLE_SDK/GD32VW55x_REL
   1:C:/Users/stapi/OneDrive/Desktop/GD32VW553/V1_MQTT_OK/GD32VW55X_Wifi_BLE_SDK/GD32VW55x_RELEASE_V1.0.2/MSDK/cloud/alicloud/src/services/awss\connect_ap.c **** /*
   2:C:/Users/stapi/OneDrive/Desktop/GD32VW553/V1_MQTT_OK/GD32VW55X_Wifi_BLE_SDK/GD32VW55x_RELEASE_V1.0.2/MSDK/cloud/alicloud/src/services/awss\connect_ap.c ****  * Copyright (C) 2015-2018 Alibaba Group Holding Limited
   3:C:/Users/stapi/OneDrive/Desktop/GD32VW553/V1_MQTT_OK/GD32VW55X_Wifi_BLE_SDK/GD32VW55x_RELEASE_V1.0.2/MSDK/cloud/alicloud/src/services/awss\connect_ap.c ****  */
   4:C:/Users/stapi/OneDrive/Desktop/GD32VW553/V1_MQTT_OK/GD32VW55X_Wifi_BLE_SDK/GD32VW55x_RELEASE_V1.0.2/MSDK/cloud/alicloud/src/services/awss\connect_ap.c **** 
   5:C:/Users/stapi/OneDrive/Desktop/GD32VW553/V1_MQTT_OK/GD32VW55X_Wifi_BLE_SDK/GD32VW55x_RELEASE_V1.0.2/MSDK/cloud/alicloud/src/services/awss\connect_ap.c **** #include <string.h>
   6:C:/Users/stapi/OneDrive/Desktop/GD32VW553/V1_MQTT_OK/GD32VW55X_Wifi_BLE_SDK/GD32VW55x_RELEASE_V1.0.2/MSDK/cloud/alicloud/src/services/awss\connect_ap.c **** #include <stdio.h>
   7:C:/Users/stapi/OneDrive/Desktop/GD32VW553/V1_MQTT_OK/GD32VW55X_Wifi_BLE_SDK/GD32VW55x_RELEASE_V1.0.2/MSDK/cloud/alicloud/src/services/awss\connect_ap.c **** #include "aws_lib.h"
   8:C:/Users/stapi/OneDrive/Desktop/GD32VW553/V1_MQTT_OK/GD32VW55X_Wifi_BLE_SDK/GD32VW55x_RELEASE_V1.0.2/MSDK/cloud/alicloud/src/services/awss\connect_ap.c **** #include "awss_aplist.h"
   9:C:/Users/stapi/OneDrive/Desktop/GD32VW553/V1_MQTT_OK/GD32VW55X_Wifi_BLE_SDK/GD32VW55x_RELEASE_V1.0.2/MSDK/cloud/alicloud/src/services/awss\connect_ap.c **** #include "zconfig_lib.h"
  10:C:/Users/stapi/OneDrive/Desktop/GD32VW553/V1_MQTT_OK/GD32VW55X_Wifi_BLE_SDK/GD32VW55x_RELEASE_V1.0.2/MSDK/cloud/alicloud/src/services/awss\connect_ap.c **** #include "zconfig_utils.h"
  11:C:/Users/stapi/OneDrive/Desktop/GD32VW553/V1_MQTT_OK/GD32VW55X_Wifi_BLE_SDK/GD32VW55x_RELEASE_V1.0.2/MSDK/cloud/alicloud/src/services/awss\connect_ap.c **** #include "zconfig_protocol.h"
  12:C:/Users/stapi/OneDrive/Desktop/GD32VW553/V1_MQTT_OK/GD32VW55X_Wifi_BLE_SDK/GD32VW55x_RELEASE_V1.0.2/MSDK/cloud/alicloud/src/services/awss\connect_ap.c **** #include "zconfig_ieee80211.h"
  13:C:/Users/stapi/OneDrive/Desktop/GD32VW553/V1_MQTT_OK/GD32VW55X_Wifi_BLE_SDK/GD32VW55x_RELEASE_V1.0.2/MSDK/cloud/alicloud/src/services/awss\connect_ap.c **** #include "awss_main.h"
  14:C:/Users/stapi/OneDrive/Desktop/GD32VW553/V1_MQTT_OK/GD32VW55X_Wifi_BLE_SDK/GD32VW55x_RELEASE_V1.0.2/MSDK/cloud/alicloud/src/services/awss\connect_ap.c **** #include "awss_smartconfig.h"
  15:C:/Users/stapi/OneDrive/Desktop/GD32VW553/V1_MQTT_OK/GD32VW55X_Wifi_BLE_SDK/GD32VW55x_RELEASE_V1.0.2/MSDK/cloud/alicloud/src/services/awss\connect_ap.c **** #include "passwd.h"
  16:C:/Users/stapi/OneDrive/Desktop/GD32VW553/V1_MQTT_OK/GD32VW55X_Wifi_BLE_SDK/GD32VW55x_RELEASE_V1.0.2/MSDK/cloud/alicloud/src/services/awss\connect_ap.c **** #include "awss_utils.h"
  17:C:/Users/stapi/OneDrive/Desktop/GD32VW553/V1_MQTT_OK/GD32VW55X_Wifi_BLE_SDK/GD32VW55x_RELEASE_V1.0.2/MSDK/cloud/alicloud/src/services/awss\connect_ap.c **** #include "awss_packet.h"
  18:C:/Users/stapi/OneDrive/Desktop/GD32VW553/V1_MQTT_OK/GD32VW55X_Wifi_BLE_SDK/GD32VW55x_RELEASE_V1.0.2/MSDK/cloud/alicloud/src/services/awss\connect_ap.c **** #include "awss_notify.h"
  19:C:/Users/stapi/OneDrive/Desktop/GD32VW553/V1_MQTT_OK/GD32VW55X_Wifi_BLE_SDK/GD32VW55x_RELEASE_V1.0.2/MSDK/cloud/alicloud/src/services/awss\connect_ap.c **** #include "awss_cmp.h"
  20:C:/Users/stapi/OneDrive/Desktop/GD32VW553/V1_MQTT_OK/GD32VW55X_Wifi_BLE_SDK/GD32VW55x_RELEASE_V1.0.2/MSDK/cloud/alicloud/src/services/awss\connect_ap.c **** #include "os.h"
  21:C:/Users/stapi/OneDrive/Desktop/GD32VW553/V1_MQTT_OK/GD32VW55X_Wifi_BLE_SDK/GD32VW55x_RELEASE_V1.0.2/MSDK/cloud/alicloud/src/services/awss\connect_ap.c **** #include "awss_log.h"
  22:C:/Users/stapi/OneDrive/Desktop/GD32VW553/V1_MQTT_OK/GD32VW55X_Wifi_BLE_SDK/GD32VW55x_RELEASE_V1.0.2/MSDK/cloud/alicloud/src/services/awss\connect_ap.c **** #include "awss_crypt.h"
  23:C:/Users/stapi/OneDrive/Desktop/GD32VW553/V1_MQTT_OK/GD32VW55X_Wifi_BLE_SDK/GD32VW55x_RELEASE_V1.0.2/MSDK/cloud/alicloud/src/services/awss\connect_ap.c **** #include <stdlib.h>
  24:C:/Users/stapi/OneDrive/Desktop/GD32VW553/V1_MQTT_OK/GD32VW55X_Wifi_BLE_SDK/GD32VW55x_RELEASE_V1.0.2/MSDK/cloud/alicloud/src/services/awss\connect_ap.c **** #include "awss_aplist.h"
  25:C:/Users/stapi/OneDrive/Desktop/GD32VW553/V1_MQTT_OK/GD32VW55X_Wifi_BLE_SDK/GD32VW55x_RELEASE_V1.0.2/MSDK/cloud/alicloud/src/services/awss\connect_ap.c **** #include "connect_ap.h"
  26:C:/Users/stapi/OneDrive/Desktop/GD32VW553/V1_MQTT_OK/GD32VW55X_Wifi_BLE_SDK/GD32VW55x_RELEASE_V1.0.2/MSDK/cloud/alicloud/src/services/awss\connect_ap.c **** 
  27:C:/Users/stapi/OneDrive/Desktop/GD32VW553/V1_MQTT_OK/GD32VW55X_Wifi_BLE_SDK/GD32VW55x_RELEASE_V1.0.2/MSDK/cloud/alicloud/src/services/awss\connect_ap.c **** #if defined(__cplusplus)  /* If this is a C++ compiler, use C linkage */
  28:C:/Users/stapi/OneDrive/Desktop/GD32VW553/V1_MQTT_OK/GD32VW55X_Wifi_BLE_SDK/GD32VW55x_RELEASE_V1.0.2/MSDK/cloud/alicloud/src/services/awss\connect_ap.c **** extern "C" {
  29:C:/Users/stapi/OneDrive/Desktop/GD32VW553/V1_MQTT_OK/GD32VW55X_Wifi_BLE_SDK/GD32VW55x_RELEASE_V1.0.2/MSDK/cloud/alicloud/src/services/awss\connect_ap.c **** #endif
  30:C:/Users/stapi/OneDrive/Desktop/GD32VW553/V1_MQTT_OK/GD32VW55X_Wifi_BLE_SDK/GD32VW55x_RELEASE_V1.0.2/MSDK/cloud/alicloud/src/services/awss\connect_ap.c **** 
  31:C:/Users/stapi/OneDrive/Desktop/GD32VW553/V1_MQTT_OK/GD32VW55X_Wifi_BLE_SDK/GD32VW55x_RELEASE_V1.0.2/MSDK/cloud/alicloud/src/services/awss\connect_ap.c **** int awss_complete_token(char passwd[HAL_MAX_PASSWD_LEN], uint8_t *bssid, uint8_t bssid_len,
  32:C:/Users/stapi/OneDrive/Desktop/GD32VW553/V1_MQTT_OK/GD32VW55X_Wifi_BLE_SDK/GD32VW55x_RELEASE_V1.0.2/MSDK/cloud/alicloud/src/services/awss\connect_ap.c ****                         uint8_t *token_in, uint8_t token_len, uint8_t token_out[AWSS_TOKEN_LEN])
  33:C:/Users/stapi/OneDrive/Desktop/GD32VW553/V1_MQTT_OK/GD32VW55X_Wifi_BLE_SDK/GD32VW55x_RELEASE_V1.0.2/MSDK/cloud/alicloud/src/services/awss\connect_ap.c **** {
  26              		.loc 1 33 1
  27              		.cfi_startproc
  28              	.LVL0:
  29 0000 17030000 		call	t0,__riscv_save_9
  29      E7020300 
  30              		.cfi_offset 24, -40
  31              		.cfi_offset 23, -36
  32              		.cfi_offset 22, -32
  33              		.cfi_offset 21, -28
  34              		.cfi_offset 20, -24
  35              		.cfi_offset 19, -20
  36              		.cfi_offset 18, -16
  37              		.cfi_offset 9, -12
  38              		.cfi_offset 8, -8
  39              		.cfi_offset 1, -4
  40              		.cfi_def_cfa_offset 48
  34:C:/Users/stapi/OneDrive/Desktop/GD32VW553/V1_MQTT_OK/GD32VW55X_Wifi_BLE_SDK/GD32VW55x_RELEASE_V1.0.2/MSDK/cloud/alicloud/src/services/awss\connect_ap.c ****     /*need to complete the token*/
  35:C:/Users/stapi/OneDrive/Desktop/GD32VW553/V1_MQTT_OK/GD32VW55X_Wifi_BLE_SDK/GD32VW55x_RELEASE_V1.0.2/MSDK/cloud/alicloud/src/services/awss\connect_ap.c ****     int ret = STATE_SUCCESS;
  41              		.loc 1 35 5
  42              	.LVL1:
  36:C:/Users/stapi/OneDrive/Desktop/GD32VW553/V1_MQTT_OK/GD32VW55X_Wifi_BLE_SDK/GD32VW55x_RELEASE_V1.0.2/MSDK/cloud/alicloud/src/services/awss\connect_ap.c ****     if (token_len != 0 && token_len < 16 && token_in != NULL) {
  43              		.loc 1 36 5
  33:C:/Users/stapi/OneDrive/Desktop/GD32VW553/V1_MQTT_OK/GD32VW55X_Wifi_BLE_SDK/GD32VW55x_RELEASE_V1.0.2/MSDK/cloud/alicloud/src/services/awss\connect_ap.c ****     /*need to complete the token*/
  44              		.loc 1 33 1 is_stmt 0
  45 0008 3E8A     		mv	s4,a5
  46              		.loc 1 36 24
  47 000a 9307F7FF 		addi	a5,a4,-1
  48              	.LVL2:
  33:C:/Users/stapi/OneDrive/Desktop/GD32VW553/V1_MQTT_OK/GD32VW55X_Wifi_BLE_SDK/GD32VW55x_RELEASE_V1.0.2/MSDK/cloud/alicloud/src/services/awss\connect_ap.c ****     /*need to complete the token*/
  49              		.loc 1 33 1
  50 000e BA89     		mv	s3,a4
  51              		.loc 1 36 8
  52 0010 93F7F70F 		andi	a5,a5,0xff
  53 0014 3947     		li	a4,14
  54              	.LVL3:
  33:C:/Users/stapi/OneDrive/Desktop/GD32VW553/V1_MQTT_OK/GD32VW55X_Wifi_BLE_SDK/GD32VW55x_RELEASE_V1.0.2/MSDK/cloud/alicloud/src/services/awss\connect_ap.c ****     /*need to complete the token*/
  55              		.loc 1 33 1
  56 0016 3571     		addi	sp,sp,-160
  57              		.cfi_def_cfa_offset 208
  33:C:/Users/stapi/OneDrive/Desktop/GD32VW553/V1_MQTT_OK/GD32VW55X_Wifi_BLE_SDK/GD32VW55x_RELEASE_V1.0.2/MSDK/cloud/alicloud/src/services/awss\connect_ap.c ****     /*need to complete the token*/
  58              		.loc 1 33 1
  59 0018 3689     		mv	s2,a3
  60              		.loc 1 36 8
  61 001a 636BF70A 		bgtu	a5,a4,.L2
  62              		.loc 1 36 42 discriminator 1
  63 001e E1C2     		beq	a3,zero,.L3
  64 0020 AA8A     		mv	s5,a0
  65 0022 AE8B     		mv	s7,a1
  66 0024 328B     		mv	s6,a2
  67              	.LBB2:
  37:C:/Users/stapi/OneDrive/Desktop/GD32VW553/V1_MQTT_OK/GD32VW55X_Wifi_BLE_SDK/GD32VW55x_RELEASE_V1.0.2/MSDK/cloud/alicloud/src/services/awss\connect_ap.c ****         int org_token_len = 0;
  68              		.loc 1 37 9 is_stmt 1
  69              	.LVL4:
  38:C:/Users/stapi/OneDrive/Desktop/GD32VW553/V1_MQTT_OK/GD32VW55X_Wifi_BLE_SDK/GD32VW55x_RELEASE_V1.0.2/MSDK/cloud/alicloud/src/services/awss\connect_ap.c ****         unsigned char buff[128] = {0};
  70              		.loc 1 38 9
  71              		.loc 1 38 23 is_stmt 0
  72 0026 8145     		li	a1,0
  73              	.LVL5:
  74 0028 1306C007 		li	a2,124
  75              	.LVL6:
  76 002c 4810     		addi	a0,sp,36
  77              	.LVL7:
  78 002e 02D0     		sw	zero,32(sp)
  79 0030 97000000 		call	memset
  79      E7800000 
  80              	.LVL8:
  39:C:/Users/stapi/OneDrive/Desktop/GD32VW553/V1_MQTT_OK/GD32VW55X_Wifi_BLE_SDK/GD32VW55x_RELEASE_V1.0.2/MSDK/cloud/alicloud/src/services/awss\connect_ap.c ****         unsigned char gen_token[32] = {0};
  81              		.loc 1 39 9 is_stmt 1
  82              		.loc 1 39 23 is_stmt 0
  83 0038 7146     		li	a2,28
  84 003a 8145     		li	a1,0
  85 003c 4800     		addi	a0,sp,4
  86 003e 02C0     		sw	zero,0(sp)
  87 0040 97000000 		call	memset
  87      E7800000 
  88              	.LVL9:
  40:C:/Users/stapi/OneDrive/Desktop/GD32VW553/V1_MQTT_OK/GD32VW55X_Wifi_BLE_SDK/GD32VW55x_RELEASE_V1.0.2/MSDK/cloud/alicloud/src/services/awss\connect_ap.c ****         uint8_t pwd_len = strlen(passwd);
  89              		.loc 1 40 9 is_stmt 1
  90              		.loc 1 40 27 is_stmt 0
  91 0048 5685     		mv	a0,s5
  92 004a 97000000 		call	strlen
  92      E7800000 
  93              	.LVL10:
  94 0052 AA84     		mv	s1,a0
  95              		.loc 1 40 17
  96 0054 137CF50F 		andi	s8,a0,0xff
  97              	.LVL11:
  41:C:/Users/stapi/OneDrive/Desktop/GD32VW553/V1_MQTT_OK/GD32VW55X_Wifi_BLE_SDK/GD32VW55x_RELEASE_V1.0.2/MSDK/cloud/alicloud/src/services/awss\connect_ap.c **** 
  42:C:/Users/stapi/OneDrive/Desktop/GD32VW553/V1_MQTT_OK/GD32VW55X_Wifi_BLE_SDK/GD32VW55x_RELEASE_V1.0.2/MSDK/cloud/alicloud/src/services/awss\connect_ap.c ****         if(bssid != NULL) {
  98              		.loc 1 42 9 is_stmt 1
  37:C:/Users/stapi/OneDrive/Desktop/GD32VW553/V1_MQTT_OK/GD32VW55X_Wifi_BLE_SDK/GD32VW55x_RELEASE_V1.0.2/MSDK/cloud/alicloud/src/services/awss\connect_ap.c ****         unsigned char buff[128] = {0};
  99              		.loc 1 37 13 is_stmt 0
 100 0058 0144     		li	s0,0
 101              		.loc 1 42 11
 102 005a 638A0B00 		beq	s7,zero,.L4
  43:C:/Users/stapi/OneDrive/Desktop/GD32VW553/V1_MQTT_OK/GD32VW55X_Wifi_BLE_SDK/GD32VW55x_RELEASE_V1.0.2/MSDK/cloud/alicloud/src/services/awss\connect_ap.c ****             memcpy(buff + org_token_len, bssid, bssid_len);
 103              		.loc 1 43 13 is_stmt 1
 104 005e 5A86     		mv	a2,s6
 105 0060 DE85     		mv	a1,s7
 106 0062 0810     		addi	a0,sp,32
 107 0064 97000000 		call	memcpy
 107      E7800000 
 108              	.LVL12:
  44:C:/Users/stapi/OneDrive/Desktop/GD32VW553/V1_MQTT_OK/GD32VW55X_Wifi_BLE_SDK/GD32VW55x_RELEASE_V1.0.2/MSDK/cloud/alicloud/src/services/awss\connect_ap.c ****             org_token_len += bssid_len;
 109              		.loc 1 44 13
 110              		.loc 1 44 27 is_stmt 0
 111 006c 5A84     		mv	s0,s6
 112              	.LVL13:
 113              	.L4:
  45:C:/Users/stapi/OneDrive/Desktop/GD32VW553/V1_MQTT_OK/GD32VW55X_Wifi_BLE_SDK/GD32VW55x_RELEASE_V1.0.2/MSDK/cloud/alicloud/src/services/awss\connect_ap.c ****         }
  46:C:/Users/stapi/OneDrive/Desktop/GD32VW553/V1_MQTT_OK/GD32VW55X_Wifi_BLE_SDK/GD32VW55x_RELEASE_V1.0.2/MSDK/cloud/alicloud/src/services/awss\connect_ap.c **** 
  47:C:/Users/stapi/OneDrive/Desktop/GD32VW553/V1_MQTT_OK/GD32VW55X_Wifi_BLE_SDK/GD32VW55x_RELEASE_V1.0.2/MSDK/cloud/alicloud/src/services/awss\connect_ap.c ****         memcpy(buff + org_token_len, token_in, token_len);
 114              		.loc 1 47 9 is_stmt 1
 115 006e 1C10     		addi	a5,sp,32
 116 0070 4E86     		mv	a2,s3
 117 0072 CA85     		mv	a1,s2
 118 0074 33858700 		add	a0,a5,s0
 119 0078 97000000 		call	memcpy
 119      E7800000 
 120              	.LVL14:
  48:C:/Users/stapi/OneDrive/Desktop/GD32VW553/V1_MQTT_OK/GD32VW55X_Wifi_BLE_SDK/GD32VW55x_RELEASE_V1.0.2/MSDK/cloud/alicloud/src/services/awss\connect_ap.c ****         org_token_len += token_len;
 121              		.loc 1 48 9
 122              		.loc 1 48 23 is_stmt 0
 123 0080 33858900 		add	a0,s3,s0
 124              	.LVL15:
  49:C:/Users/stapi/OneDrive/Desktop/GD32VW553/V1_MQTT_OK/GD32VW55X_Wifi_BLE_SDK/GD32VW55x_RELEASE_V1.0.2/MSDK/cloud/alicloud/src/services/awss\connect_ap.c **** 
  50:C:/Users/stapi/OneDrive/Desktop/GD32VW553/V1_MQTT_OK/GD32VW55X_Wifi_BLE_SDK/GD32VW55x_RELEASE_V1.0.2/MSDK/cloud/alicloud/src/services/awss\connect_ap.c ****         if(pwd_len != 0 && 128 >= pwd_len + org_token_len) {
 125              		.loc 1 50 9 is_stmt 1
 126              		.loc 1 50 11 is_stmt 0
 127 0084 63020C02 		beq	s8,zero,.L5
 128 0088 13F6F40F 		andi	a2,s1,255
 129              		.loc 1 50 43 discriminator 1
 130 008c 3304A600 		add	s0,a2,a0
 131              		.loc 1 50 25 discriminator 1
 132 0090 93070008 		li	a5,128
 133 0094 63CA8700 		bgt	s0,a5,.L5
  51:C:/Users/stapi/OneDrive/Desktop/GD32VW553/V1_MQTT_OK/GD32VW55X_Wifi_BLE_SDK/GD32VW55x_RELEASE_V1.0.2/MSDK/cloud/alicloud/src/services/awss\connect_ap.c ****             memcpy(buff + org_token_len, passwd, pwd_len);
 134              		.loc 1 51 13 is_stmt 1
 135 0098 1C10     		addi	a5,sp,32
 136 009a D685     		mv	a1,s5
 137 009c 3E95     		add	a0,a5,a0
 138              	.LVL16:
 139 009e 97000000 		call	memcpy
 139      E7800000 
 140              	.LVL17:
  52:C:/Users/stapi/OneDrive/Desktop/GD32VW553/V1_MQTT_OK/GD32VW55X_Wifi_BLE_SDK/GD32VW55x_RELEASE_V1.0.2/MSDK/cloud/alicloud/src/services/awss\connect_ap.c ****             org_token_len += pwd_len;
 141              		.loc 1 52 13
  51:C:/Users/stapi/OneDrive/Desktop/GD32VW553/V1_MQTT_OK/GD32VW55X_Wifi_BLE_SDK/GD32VW55x_RELEASE_V1.0.2/MSDK/cloud/alicloud/src/services/awss\connect_ap.c ****             memcpy(buff + org_token_len, passwd, pwd_len);
 142              		.loc 1 51 13 is_stmt 0
 143 00a6 2285     		mv	a0,s0
 144              	.LVL18:
 145              	.L5:
  53:C:/Users/stapi/OneDrive/Desktop/GD32VW553/V1_MQTT_OK/GD32VW55X_Wifi_BLE_SDK/GD32VW55x_RELEASE_V1.0.2/MSDK/cloud/alicloud/src/services/awss\connect_ap.c ****         }
  54:C:/Users/stapi/OneDrive/Desktop/GD32VW553/V1_MQTT_OK/GD32VW55X_Wifi_BLE_SDK/GD32VW55x_RELEASE_V1.0.2/MSDK/cloud/alicloud/src/services/awss\connect_ap.c **** 
  55:C:/Users/stapi/OneDrive/Desktop/GD32VW553/V1_MQTT_OK/GD32VW55X_Wifi_BLE_SDK/GD32VW55x_RELEASE_V1.0.2/MSDK/cloud/alicloud/src/services/awss\connect_ap.c ****         utils_sha256(buff, org_token_len, gen_token);
 146              		.loc 1 55 9 is_stmt 1
 147 00a8 AA85     		mv	a1,a0
 148 00aa 0A86     		mv	a2,sp
 149 00ac 0810     		addi	a0,sp,32
 150              	.LVL19:
 151 00ae 97000000 		call	utils_sha256
 151      E7800000 
 152              	.LVL20:
  56:C:/Users/stapi/OneDrive/Desktop/GD32VW553/V1_MQTT_OK/GD32VW55X_Wifi_BLE_SDK/GD32VW55x_RELEASE_V1.0.2/MSDK/cloud/alicloud/src/services/awss\connect_ap.c ****         memcpy(token_out, gen_token, AWSS_TOKEN_LEN);
 153              		.loc 1 56 9
 154 00b6 4146     		li	a2,16
 155 00b8 8A85     		mv	a1,sp
 156              	.LVL21:
 157              	.L19:
 158              	.LBE2:
  57:C:/Users/stapi/OneDrive/Desktop/GD32VW553/V1_MQTT_OK/GD32VW55X_Wifi_BLE_SDK/GD32VW55x_RELEASE_V1.0.2/MSDK/cloud/alicloud/src/services/awss\connect_ap.c **** 
  58:C:/Users/stapi/OneDrive/Desktop/GD32VW553/V1_MQTT_OK/GD32VW55X_Wifi_BLE_SDK/GD32VW55x_RELEASE_V1.0.2/MSDK/cloud/alicloud/src/services/awss\connect_ap.c ****     } else if (token_len == AWSS_TOKEN_LEN && token_in != NULL) {
  59:C:/Users/stapi/OneDrive/Desktop/GD32VW553/V1_MQTT_OK/GD32VW55X_Wifi_BLE_SDK/GD32VW55x_RELEASE_V1.0.2/MSDK/cloud/alicloud/src/services/awss\connect_ap.c ****        memcpy(token_out, token_in, AWSS_TOKEN_LEN);
 159              		.loc 1 59 8 is_stmt 0
 160 00ba 5285     		mv	a0,s4
 161 00bc 97000000 		call	memcpy
 161      E7800000 
 162              	.LVL22:
  35:C:/Users/stapi/OneDrive/Desktop/GD32VW553/V1_MQTT_OK/GD32VW55X_Wifi_BLE_SDK/GD32VW55x_RELEASE_V1.0.2/MSDK/cloud/alicloud/src/services/awss\connect_ap.c ****     if (token_len != 0 && token_len < 16 && token_in != NULL) {
 163              		.loc 1 35 9
 164 00c4 0145     		li	a0,0
 165              	.LVL23:
 166              	.L1:
  60:C:/Users/stapi/OneDrive/Desktop/GD32VW553/V1_MQTT_OK/GD32VW55X_Wifi_BLE_SDK/GD32VW55x_RELEASE_V1.0.2/MSDK/cloud/alicloud/src/services/awss\connect_ap.c ****     } else {
  61:C:/Users/stapi/OneDrive/Desktop/GD32VW553/V1_MQTT_OK/GD32VW55X_Wifi_BLE_SDK/GD32VW55x_RELEASE_V1.0.2/MSDK/cloud/alicloud/src/services/awss\connect_ap.c ****         awss_warn("no token");
  62:C:/Users/stapi/OneDrive/Desktop/GD32VW553/V1_MQTT_OK/GD32VW55X_Wifi_BLE_SDK/GD32VW55x_RELEASE_V1.0.2/MSDK/cloud/alicloud/src/services/awss\connect_ap.c ****         ret = STATE_BIND_NO_APP_TOKEN;
  63:C:/Users/stapi/OneDrive/Desktop/GD32VW553/V1_MQTT_OK/GD32VW55X_Wifi_BLE_SDK/GD32VW55x_RELEASE_V1.0.2/MSDK/cloud/alicloud/src/services/awss\connect_ap.c ****     }
  64:C:/Users/stapi/OneDrive/Desktop/GD32VW553/V1_MQTT_OK/GD32VW55X_Wifi_BLE_SDK/GD32VW55x_RELEASE_V1.0.2/MSDK/cloud/alicloud/src/services/awss\connect_ap.c **** 
  65:C:/Users/stapi/OneDrive/Desktop/GD32VW553/V1_MQTT_OK/GD32VW55X_Wifi_BLE_SDK/GD32VW55x_RELEASE_V1.0.2/MSDK/cloud/alicloud/src/services/awss\connect_ap.c ****     return ret;
  66:C:/Users/stapi/OneDrive/Desktop/GD32VW553/V1_MQTT_OK/GD32VW55X_Wifi_BLE_SDK/GD32VW55x_RELEASE_V1.0.2/MSDK/cloud/alicloud/src/services/awss\connect_ap.c **** }
 167              		.loc 1 66 1
 168 00c6 0D61     		addi	sp,sp,160
 169              		.cfi_remember_state
 170              		.cfi_def_cfa_offset 0
 171 00c8 17030000 		tail	__riscv_restore_9
 171      67000300 
 172              		.cfi_restore 24
 173              		.cfi_restore 23
 174              		.cfi_restore 22
 175              		.cfi_restore 21
 176              		.cfi_restore 20
 177              		.cfi_restore 19
 178              		.cfi_restore 18
 179              		.cfi_restore 9
 180              		.cfi_restore 8
 181              		.cfi_restore 1
 182              		.cfi_def_cfa_offset -48
 183              	.LVL24:
 184              	.L2:
 185              		.cfi_restore_state
  58:C:/Users/stapi/OneDrive/Desktop/GD32VW553/V1_MQTT_OK/GD32VW55X_Wifi_BLE_SDK/GD32VW55x_RELEASE_V1.0.2/MSDK/cloud/alicloud/src/services/awss\connect_ap.c ****        memcpy(token_out, token_in, AWSS_TOKEN_LEN);
 186              		.loc 1 58 12 is_stmt 1
  58:C:/Users/stapi/OneDrive/Desktop/GD32VW553/V1_MQTT_OK/GD32VW55X_Wifi_BLE_SDK/GD32VW55x_RELEASE_V1.0.2/MSDK/cloud/alicloud/src/services/awss\connect_ap.c ****        memcpy(token_out, token_in, AWSS_TOKEN_LEN);
 187              		.loc 1 58 15 is_stmt 0
 188 00d0 C147     		li	a5,16
 189 00d2 6396F900 		bne	s3,a5,.L3
  58:C:/Users/stapi/OneDrive/Desktop/GD32VW553/V1_MQTT_OK/GD32VW55X_Wifi_BLE_SDK/GD32VW55x_RELEASE_V1.0.2/MSDK/cloud/alicloud/src/services/awss\connect_ap.c ****        memcpy(token_out, token_in, AWSS_TOKEN_LEN);
 190              		.loc 1 58 44 discriminator 1
 191 00d6 81C6     		beq	a3,zero,.L3
  59:C:/Users/stapi/OneDrive/Desktop/GD32VW553/V1_MQTT_OK/GD32VW55X_Wifi_BLE_SDK/GD32VW55x_RELEASE_V1.0.2/MSDK/cloud/alicloud/src/services/awss\connect_ap.c ****     } else {
 192              		.loc 1 59 8 is_stmt 1
 193 00d8 4146     		li	a2,16
 194              	.LVL25:
 195 00da B685     		mv	a1,a3
 196              	.LVL26:
 197 00dc F9BF     		j	.L19
 198              	.LVL27:
 199              	.L3:
  61:C:/Users/stapi/OneDrive/Desktop/GD32VW553/V1_MQTT_OK/GD32VW55X_Wifi_BLE_SDK/GD32VW55x_RELEASE_V1.0.2/MSDK/cloud/alicloud/src/services/awss\connect_ap.c ****         ret = STATE_BIND_NO_APP_TOKEN;
 200              		.loc 1 61 9
  61:C:/Users/stapi/OneDrive/Desktop/GD32VW553/V1_MQTT_OK/GD32VW55X_Wifi_BLE_SDK/GD32VW55x_RELEASE_V1.0.2/MSDK/cloud/alicloud/src/services/awss\connect_ap.c ****         ret = STATE_BIND_NO_APP_TOKEN;
 201              		.loc 1 61 9
 202 00de 37050000 		lui	a0,%hi(.LC0)
 203              	.LVL28:
 204 00e2 13050500 		addi	a0,a0,%lo(.LC0)
 205 00e6 97000000 		call	HAL_Printf
 205      E7800000 
 206              	.LVL29:
  61:C:/Users/stapi/OneDrive/Desktop/GD32VW553/V1_MQTT_OK/GD32VW55X_Wifi_BLE_SDK/GD32VW55x_RELEASE_V1.0.2/MSDK/cloud/alicloud/src/services/awss\connect_ap.c ****         ret = STATE_BIND_NO_APP_TOKEN;
 207              		.loc 1 61 9
 208 00ee 37050000 		lui	a0,%hi(.LC1)
 209 00f2 13050500 		addi	a0,a0,%lo(.LC1)
 210 00f6 97000000 		call	HAL_Printf
 210      E7800000 
 211              	.LVL30:
  61:C:/Users/stapi/OneDrive/Desktop/GD32VW553/V1_MQTT_OK/GD32VW55X_Wifi_BLE_SDK/GD32VW55x_RELEASE_V1.0.2/MSDK/cloud/alicloud/src/services/awss\connect_ap.c ****         ret = STATE_BIND_NO_APP_TOKEN;
 212              		.loc 1 61 9
 213 00fe 37050000 		lui	a0,%hi(.LC2)
 214 0102 13050500 		addi	a0,a0,%lo(.LC2)
 215 0106 97000000 		call	HAL_Printf
 215      E7800000 
 216              	.LVL31:
  61:C:/Users/stapi/OneDrive/Desktop/GD32VW553/V1_MQTT_OK/GD32VW55X_Wifi_BLE_SDK/GD32VW55x_RELEASE_V1.0.2/MSDK/cloud/alicloud/src/services/awss\connect_ap.c ****         ret = STATE_BIND_NO_APP_TOKEN;
 217              		.loc 1 61 9
  62:C:/Users/stapi/OneDrive/Desktop/GD32VW553/V1_MQTT_OK/GD32VW55X_Wifi_BLE_SDK/GD32VW55x_RELEASE_V1.0.2/MSDK/cloud/alicloud/src/services/awss\connect_ap.c ****     }
 218              		.loc 1 62 9
  62:C:/Users/stapi/OneDrive/Desktop/GD32VW553/V1_MQTT_OK/GD32VW55X_Wifi_BLE_SDK/GD32VW55x_RELEASE_V1.0.2/MSDK/cloud/alicloud/src/services/awss\connect_ap.c ****     }
 219              		.loc 1 62 13 is_stmt 0
 220 010e 7D75     		li	a0,-4096
 221 0110 1305057C 		addi	a0,a0,1984
 222              	.LVL32:
  65:C:/Users/stapi/OneDrive/Desktop/GD32VW553/V1_MQTT_OK/GD32VW55X_Wifi_BLE_SDK/GD32VW55x_RELEASE_V1.0.2/MSDK/cloud/alicloud/src/services/awss\connect_ap.c **** }
 223              		.loc 1 65 5 is_stmt 1
  65:C:/Users/stapi/OneDrive/Desktop/GD32VW553/V1_MQTT_OK/GD32VW55X_Wifi_BLE_SDK/GD32VW55x_RELEASE_V1.0.2/MSDK/cloud/alicloud/src/services/awss\connect_ap.c **** }
 224              		.loc 1 65 12 is_stmt 0
 225 0114 4DBF     		j	.L1
 226              		.cfi_endproc
 227              	.LFE65:
 229              		.section	.rodata.awss_ap_diagnosis.str1.4,"aMS",@progbits,1
 230              		.align	2
 231              	.LC3:
 232 0000 636F6E6E 		.string	"connect %s fail rssi(%d) low"
 232      65637420 
 232      25732066 
 232      61696C20 
 232      72737369 
 233 001d 000000   		.align	2
 234              	.LC4:
 235 0020 636F6E6E 		.string	"connect %s fail"
 235      65637420 
 235      25732066 
 235      61696C00 
 236              		.align	2
 237              	.LC5:
 238 0030 2573206E 		.string	"%s not found"
 238      6F742066 
 238      6F756E64 
 238      00
 239              		.section	.text.awss_ap_diagnosis,"ax",@progbits
 240              		.align	1
 241              		.globl	awss_ap_diagnosis
 243              	awss_ap_diagnosis:
 244              	.LFB66:
  67:C:/Users/stapi/OneDrive/Desktop/GD32VW553/V1_MQTT_OK/GD32VW55X_Wifi_BLE_SDK/GD32VW55x_RELEASE_V1.0.2/MSDK/cloud/alicloud/src/services/awss\connect_ap.c **** 
  68:C:/Users/stapi/OneDrive/Desktop/GD32VW553/V1_MQTT_OK/GD32VW55X_Wifi_BLE_SDK/GD32VW55x_RELEASE_V1.0.2/MSDK/cloud/alicloud/src/services/awss\connect_ap.c **** /**
  69:C:/Users/stapi/OneDrive/Desktop/GD32VW553/V1_MQTT_OK/GD32VW55X_Wifi_BLE_SDK/GD32VW55x_RELEASE_V1.0.2/MSDK/cloud/alicloud/src/services/awss\connect_ap.c ****  * @brief do AP diagnosis, to find out AP connection fail details
  70:C:/Users/stapi/OneDrive/Desktop/GD32VW553/V1_MQTT_OK/GD32VW55X_Wifi_BLE_SDK/GD32VW55x_RELEASE_V1.0.2/MSDK/cloud/alicloud/src/services/awss\connect_ap.c ****  * 
  71:C:/Users/stapi/OneDrive/Desktop/GD32VW553/V1_MQTT_OK/GD32VW55X_Wifi_BLE_SDK/GD32VW55x_RELEASE_V1.0.2/MSDK/cloud/alicloud/src/services/awss\connect_ap.c ****  * @param [in] p_ap_ssid: AP ssid to diagnosis
  72:C:/Users/stapi/OneDrive/Desktop/GD32VW553/V1_MQTT_OK/GD32VW55X_Wifi_BLE_SDK/GD32VW55x_RELEASE_V1.0.2/MSDK/cloud/alicloud/src/services/awss\connect_ap.c ****  *
  73:C:/Users/stapi/OneDrive/Desktop/GD32VW553/V1_MQTT_OK/GD32VW55X_Wifi_BLE_SDK/GD32VW55x_RELEASE_V1.0.2/MSDK/cloud/alicloud/src/services/awss\connect_ap.c ****  * @retval  0 : diagnosis done
  74:C:/Users/stapi/OneDrive/Desktop/GD32VW553/V1_MQTT_OK/GD32VW55X_Wifi_BLE_SDK/GD32VW55x_RELEASE_V1.0.2/MSDK/cloud/alicloud/src/services/awss\connect_ap.c ****  * @note
  75:C:/Users/stapi/OneDrive/Desktop/GD32VW553/V1_MQTT_OK/GD32VW55X_Wifi_BLE_SDK/GD32VW55x_RELEASE_V1.0.2/MSDK/cloud/alicloud/src/services/awss\connect_ap.c ****  *        after awss_connect invoked and AP connect fail, should invoke
  76:C:/Users/stapi/OneDrive/Desktop/GD32VW553/V1_MQTT_OK/GD32VW55X_Wifi_BLE_SDK/GD32VW55x_RELEASE_V1.0.2/MSDK/cloud/alicloud/src/services/awss\connect_ap.c ****  *        this function to do AP diagnosis
  77:C:/Users/stapi/OneDrive/Desktop/GD32VW553/V1_MQTT_OK/GD32VW55X_Wifi_BLE_SDK/GD32VW55x_RELEASE_V1.0.2/MSDK/cloud/alicloud/src/services/awss\connect_ap.c ****  */
  78:C:/Users/stapi/OneDrive/Desktop/GD32VW553/V1_MQTT_OK/GD32VW55X_Wifi_BLE_SDK/GD32VW55x_RELEASE_V1.0.2/MSDK/cloud/alicloud/src/services/awss\connect_ap.c **** int awss_ap_diagnosis(char *p_ap_ssid)
  79:C:/Users/stapi/OneDrive/Desktop/GD32VW553/V1_MQTT_OK/GD32VW55X_Wifi_BLE_SDK/GD32VW55x_RELEASE_V1.0.2/MSDK/cloud/alicloud/src/services/awss\connect_ap.c **** {
 245              		.loc 1 79 1 is_stmt 1
 246              		.cfi_startproc
 247              	.LVL33:
 248 0000 17030000 		call	t0,__riscv_save_0
 248      E7020300 
 249              		.cfi_offset 1, -4
 250              		.cfi_def_cfa_offset 16
  80:C:/Users/stapi/OneDrive/Desktop/GD32VW553/V1_MQTT_OK/GD32VW55X_Wifi_BLE_SDK/GD32VW55x_RELEASE_V1.0.2/MSDK/cloud/alicloud/src/services/awss\connect_ap.c ****     ap_scan_info_t scan_result;
 251              		.loc 1 80 5
  81:C:/Users/stapi/OneDrive/Desktop/GD32VW553/V1_MQTT_OK/GD32VW55X_Wifi_BLE_SDK/GD32VW55x_RELEASE_V1.0.2/MSDK/cloud/alicloud/src/services/awss\connect_ap.c ****     int ap_scan_result = -1;
 252              		.loc 1 81 5
 253              	.LVL34:
  82:C:/Users/stapi/OneDrive/Desktop/GD32VW553/V1_MQTT_OK/GD32VW55X_Wifi_BLE_SDK/GD32VW55x_RELEASE_V1.0.2/MSDK/cloud/alicloud/src/services/awss\connect_ap.c ****     memset(&scan_result, 0, sizeof(ap_scan_info_t));
 254              		.loc 1 82 5
  79:C:/Users/stapi/OneDrive/Desktop/GD32VW553/V1_MQTT_OK/GD32VW55X_Wifi_BLE_SDK/GD32VW55x_RELEASE_V1.0.2/MSDK/cloud/alicloud/src/services/awss\connect_ap.c ****     ap_scan_info_t scan_result;
 255              		.loc 1 79 1 is_stmt 0
 256 0008 3971     		addi	sp,sp,-64
 257              		.cfi_def_cfa_offset 80
  79:C:/Users/stapi/OneDrive/Desktop/GD32VW553/V1_MQTT_OK/GD32VW55X_Wifi_BLE_SDK/GD32VW55x_RELEASE_V1.0.2/MSDK/cloud/alicloud/src/services/awss\connect_ap.c ****     ap_scan_info_t scan_result;
 258              		.loc 1 79 1
 259 000a 2AC6     		sw	a0,12(sp)
 260              		.loc 1 82 5
 261 000c 1306D002 		li	a2,45
 262 0010 8145     		li	a1,0
 263 0012 0808     		addi	a0,sp,16
 264              	.LVL35:
 265 0014 97000000 		call	memset
 265      E7800000 
 266              	.LVL36:
  83:C:/Users/stapi/OneDrive/Desktop/GD32VW553/V1_MQTT_OK/GD32VW55X_Wifi_BLE_SDK/GD32VW55x_RELEASE_V1.0.2/MSDK/cloud/alicloud/src/services/awss\connect_ap.c ****     ap_scan_result = awss_apscan_process(NULL, p_ap_ssid, &scan_result);
 267              		.loc 1 83 5 is_stmt 1
 268              		.loc 1 83 22 is_stmt 0
 269 001c B246     		lw	a3,12(sp)
 270 001e 1008     		addi	a2,sp,16
 271 0020 0145     		li	a0,0
 272 0022 B685     		mv	a1,a3
 273 0024 97000000 		call	awss_apscan_process
 273      E7800000 
 274              	.LVL37:
  84:C:/Users/stapi/OneDrive/Desktop/GD32VW553/V1_MQTT_OK/GD32VW55X_Wifi_BLE_SDK/GD32VW55x_RELEASE_V1.0.2/MSDK/cloud/alicloud/src/services/awss\connect_ap.c ****     if ( (ap_scan_result == 0) && (scan_result.found) ) {
 275              		.loc 1 84 5 is_stmt 1
 276              		.loc 1 84 8 is_stmt 0
 277 002c B246     		lw	a3,12(sp)
 278 002e 39E5     		bne	a0,zero,.L21
 279              		.loc 1 84 32 discriminator 1
 280 0030 83470101 		lbu	a5,16(sp)
 281 0034 A1C7     		beq	a5,zero,.L21
  85:C:/Users/stapi/OneDrive/Desktop/GD32VW553/V1_MQTT_OK/GD32VW55X_Wifi_BLE_SDK/GD32VW55x_RELEASE_V1.0.2/MSDK/cloud/alicloud/src/services/awss\connect_ap.c ****         if (scan_result.rssi < WIFI_RSSILEVEL_4) {
 282              		.loc 1 85 9 is_stmt 1
 283              		.loc 1 85 12 is_stmt 0
 284 0036 930740FC 		li	a5,-60
 285              		.loc 1 85 24
 286 003a 0307C103 		lb	a4,60(sp)
 287              		.loc 1 85 12
 288 003e 6353F702 		bge	a4,a5,.L22
  86:C:/Users/stapi/OneDrive/Desktop/GD32VW553/V1_MQTT_OK/GD32VW55X_Wifi_BLE_SDK/GD32VW55x_RELEASE_V1.0.2/MSDK/cloud/alicloud/src/services/awss\connect_ap.c ****             dump_awss_status(STATE_WIFI_AP_RSSI_TOO_LOW, "connect %s fail rssi(%d) low", p_ap_ssid,
 289              		.loc 1 86 13 is_stmt 1
 290 0042 37060000 		lui	a2,%hi(.LC3)
 291 0046 13060600 		addi	a2,a2,%lo(.LC3)
 292 004a 9305E0B9 		li	a1,-1122
 293 004e 6D45     		li	a0,27
 294              	.LVL38:
 295 0050 97000000 		call	iotx_state_event
 295      E7800000 
 296              	.LVL39:
 297              	.L23:
  87:C:/Users/stapi/OneDrive/Desktop/GD32VW553/V1_MQTT_OK/GD32VW55X_Wifi_BLE_SDK/GD32VW55x_RELEASE_V1.0.2/MSDK/cloud/alicloud/src/services/awss\connect_ap.c ****         } else {
  88:C:/Users/stapi/OneDrive/Desktop/GD32VW553/V1_MQTT_OK/GD32VW55X_Wifi_BLE_SDK/GD32VW55x_RELEASE_V1.0.2/MSDK/cloud/alicloud/src/services/awss\connect_ap.c ****             dump_awss_status(STATE_WIFI_AP_CONN_IP_GET_FAIL, "connect %s fail", p_ap_ssid);
  89:C:/Users/stapi/OneDrive/Desktop/GD32VW553/V1_MQTT_OK/GD32VW55X_Wifi_BLE_SDK/GD32VW55x_RELEASE_V1.0.2/MSDK/cloud/alicloud/src/services/awss\connect_ap.c ****         }
  90:C:/Users/stapi/OneDrive/Desktop/GD32VW553/V1_MQTT_OK/GD32VW55X_Wifi_BLE_SDK/GD32VW55x_RELEASE_V1.0.2/MSDK/cloud/alicloud/src/services/awss\connect_ap.c ****     } else {
  91:C:/Users/stapi/OneDrive/Desktop/GD32VW553/V1_MQTT_OK/GD32VW55X_Wifi_BLE_SDK/GD32VW55x_RELEASE_V1.0.2/MSDK/cloud/alicloud/src/services/awss\connect_ap.c ****         dump_awss_status(STATE_WIFI_AP_DISCOVER_FAIL, "%s not found", p_ap_ssid);
  92:C:/Users/stapi/OneDrive/Desktop/GD32VW553/V1_MQTT_OK/GD32VW55X_Wifi_BLE_SDK/GD32VW55x_RELEASE_V1.0.2/MSDK/cloud/alicloud/src/services/awss\connect_ap.c ****     }
  93:C:/Users/stapi/OneDrive/Desktop/GD32VW553/V1_MQTT_OK/GD32VW55X_Wifi_BLE_SDK/GD32VW55x_RELEASE_V1.0.2/MSDK/cloud/alicloud/src/services/awss\connect_ap.c ****     return 0;
 298              		.loc 1 93 5
  94:C:/Users/stapi/OneDrive/Desktop/GD32VW553/V1_MQTT_OK/GD32VW55X_Wifi_BLE_SDK/GD32VW55x_RELEASE_V1.0.2/MSDK/cloud/alicloud/src/services/awss\connect_ap.c **** }
 299              		.loc 1 94 1 is_stmt 0
 300 0058 0145     		li	a0,0
 301 005a 2161     		addi	sp,sp,64
 302              		.cfi_remember_state
 303              		.cfi_def_cfa_offset 0
 304              	.LVL40:
 305 005c 17030000 		tail	__riscv_restore_0
 305      67000300 
 306              		.cfi_restore 1
 307              		.cfi_def_cfa_offset -16
 308              	.LVL41:
 309              	.L22:
 310              		.cfi_restore_state
  88:C:/Users/stapi/OneDrive/Desktop/GD32VW553/V1_MQTT_OK/GD32VW55X_Wifi_BLE_SDK/GD32VW55x_RELEASE_V1.0.2/MSDK/cloud/alicloud/src/services/awss\connect_ap.c ****         }
 311              		.loc 1 88 13 is_stmt 1
 312 0064 37060000 		lui	a2,%hi(.LC4)
 313 0068 13060600 		addi	a2,a2,%lo(.LC4)
 314 006c 9305C0B9 		li	a1,-1124
 315              	.L28:
  91:C:/Users/stapi/OneDrive/Desktop/GD32VW553/V1_MQTT_OK/GD32VW55X_Wifi_BLE_SDK/GD32VW55x_RELEASE_V1.0.2/MSDK/cloud/alicloud/src/services/awss\connect_ap.c ****     }
 316              		.loc 1 91 9 is_stmt 0
 317 0070 6D45     		li	a0,27
 318              	.LVL42:
 319 0072 97000000 		call	iotx_state_event
 319      E7800000 
 320              	.LVL43:
 321 007a F9BF     		j	.L23
 322              	.LVL44:
 323              	.L21:
  91:C:/Users/stapi/OneDrive/Desktop/GD32VW553/V1_MQTT_OK/GD32VW55X_Wifi_BLE_SDK/GD32VW55x_RELEASE_V1.0.2/MSDK/cloud/alicloud/src/services/awss\connect_ap.c ****     }
 324              		.loc 1 91 9 is_stmt 1
 325 007c 37060000 		lui	a2,%hi(.LC5)
 326 0080 13060600 		addi	a2,a2,%lo(.LC5)
 327 0084 9305F0B9 		li	a1,-1121
 328 0088 E5B7     		j	.L28
 329              		.cfi_endproc
 330              	.LFE66:
 332              		.section	.rodata.awss_connect.str1.4,"aMS",@progbits,1
 333              		.align	2
 334              	.LC6:
 335 0000 62696E64 		.string	"bind: no app token"
 335      3A206E6F 
 335      20617070 
 335      20746F6B 
 335      656E00
 336              		.section	.text.awss_connect,"ax",@progbits
 337              		.align	1
 338              		.globl	awss_connect
 340              	awss_connect:
 341              	.LFB67:
  95:C:/Users/stapi/OneDrive/Desktop/GD32VW553/V1_MQTT_OK/GD32VW55X_Wifi_BLE_SDK/GD32VW55x_RELEASE_V1.0.2/MSDK/cloud/alicloud/src/services/awss\connect_ap.c **** 
  96:C:/Users/stapi/OneDrive/Desktop/GD32VW553/V1_MQTT_OK/GD32VW55X_Wifi_BLE_SDK/GD32VW55x_RELEASE_V1.0.2/MSDK/cloud/alicloud/src/services/awss\connect_ap.c **** int awss_connect(char ssid[HAL_MAX_SSID_LEN], char passwd[HAL_MAX_PASSWD_LEN], uint8_t *bssid, uint
  97:C:/Users/stapi/OneDrive/Desktop/GD32VW553/V1_MQTT_OK/GD32VW55X_Wifi_BLE_SDK/GD32VW55x_RELEASE_V1.0.2/MSDK/cloud/alicloud/src/services/awss\connect_ap.c ****                  uint8_t *token, uint8_t token_len, bind_token_type_t token_type)
  98:C:/Users/stapi/OneDrive/Desktop/GD32VW553/V1_MQTT_OK/GD32VW55X_Wifi_BLE_SDK/GD32VW55x_RELEASE_V1.0.2/MSDK/cloud/alicloud/src/services/awss\connect_ap.c **** {
 342              		.loc 1 98 1
 343              		.cfi_startproc
 344              	.LVL45:
 345 0000 17030000 		call	t0,__riscv_save_5
 345      E7020300 
 346              		.cfi_offset 20, -24
 347              		.cfi_offset 19, -20
 348              		.cfi_offset 18, -16
 349              		.cfi_offset 9, -12
 350              		.cfi_offset 8, -8
 351              		.cfi_offset 1, -4
 352              		.cfi_def_cfa_offset 32
  99:C:/Users/stapi/OneDrive/Desktop/GD32VW553/V1_MQTT_OK/GD32VW55X_Wifi_BLE_SDK/GD32VW55x_RELEASE_V1.0.2/MSDK/cloud/alicloud/src/services/awss\connect_ap.c ****     unsigned char final_token[AWSS_TOKEN_LEN] = {0};
 353              		.loc 1 99 5
  98:C:/Users/stapi/OneDrive/Desktop/GD32VW553/V1_MQTT_OK/GD32VW55X_Wifi_BLE_SDK/GD32VW55x_RELEASE_V1.0.2/MSDK/cloud/alicloud/src/services/awss\connect_ap.c ****     unsigned char final_token[AWSS_TOKEN_LEN] = {0};
 354              		.loc 1 98 1 is_stmt 0
 355 0008 0111     		addi	sp,sp,-32
 356              		.cfi_def_cfa_offset 64
  98:C:/Users/stapi/OneDrive/Desktop/GD32VW553/V1_MQTT_OK/GD32VW55X_Wifi_BLE_SDK/GD32VW55x_RELEASE_V1.0.2/MSDK/cloud/alicloud/src/services/awss\connect_ap.c ****     unsigned char final_token[AWSS_TOKEN_LEN] = {0};
 357              		.loc 1 98 1
 358 000a 2E89     		mv	s2,a1
 359 000c 3284     		mv	s0,a2
 360 000e B684     		mv	s1,a3
 361 0010 AA89     		mv	s3,a0
 362 0012 BA86     		mv	a3,a4
 363              	.LVL46:
 100:C:/Users/stapi/OneDrive/Desktop/GD32VW553/V1_MQTT_OK/GD32VW55X_Wifi_BLE_SDK/GD32VW55x_RELEASE_V1.0.2/MSDK/cloud/alicloud/src/services/awss\connect_ap.c ****     unsigned char final_bssid[6] = {0};
 101:C:/Users/stapi/OneDrive/Desktop/GD32VW553/V1_MQTT_OK/GD32VW55X_Wifi_BLE_SDK/GD32VW55x_RELEASE_V1.0.2/MSDK/cloud/alicloud/src/services/awss\connect_ap.c **** 
 102:C:/Users/stapi/OneDrive/Desktop/GD32VW553/V1_MQTT_OK/GD32VW55X_Wifi_BLE_SDK/GD32VW55x_RELEASE_V1.0.2/MSDK/cloud/alicloud/src/services/awss\connect_ap.c ****     uint8_t has_bssid = 1;
 103:C:/Users/stapi/OneDrive/Desktop/GD32VW553/V1_MQTT_OK/GD32VW55X_Wifi_BLE_SDK/GD32VW55x_RELEASE_V1.0.2/MSDK/cloud/alicloud/src/services/awss\connect_ap.c ****     int ret;
 104:C:/Users/stapi/OneDrive/Desktop/GD32VW553/V1_MQTT_OK/GD32VW55X_Wifi_BLE_SDK/GD32VW55x_RELEASE_V1.0.2/MSDK/cloud/alicloud/src/services/awss\connect_ap.c **** 
 105:C:/Users/stapi/OneDrive/Desktop/GD32VW553/V1_MQTT_OK/GD32VW55X_Wifi_BLE_SDK/GD32VW55x_RELEASE_V1.0.2/MSDK/cloud/alicloud/src/services/awss\connect_ap.c ****     /*need to complete the token*/
 106:C:/Users/stapi/OneDrive/Desktop/GD32VW553/V1_MQTT_OK/GD32VW55X_Wifi_BLE_SDK/GD32VW55x_RELEASE_V1.0.2/MSDK/cloud/alicloud/src/services/awss\connect_ap.c ****     ret = awss_complete_token(passwd, bssid, bssid_len, token, token_len, final_token);
 364              		.loc 1 106 11
 365 0014 2686     		mv	a2,s1
 366              	.LVL47:
  98:C:/Users/stapi/OneDrive/Desktop/GD32VW553/V1_MQTT_OK/GD32VW55X_Wifi_BLE_SDK/GD32VW55x_RELEASE_V1.0.2/MSDK/cloud/alicloud/src/services/awss\connect_ap.c ****     unsigned char final_token[AWSS_TOKEN_LEN] = {0};
 367              		.loc 1 98 1
 368 0016 3E87     		mv	a4,a5
 369              	.LVL48:
 370              		.loc 1 106 11
 371 0018 A285     		mv	a1,s0
 372              	.LVL49:
 373 001a 1C08     		addi	a5,sp,16
 374              	.LVL50:
 375 001c 4A85     		mv	a0,s2
 376              	.LVL51:
  98:C:/Users/stapi/OneDrive/Desktop/GD32VW553/V1_MQTT_OK/GD32VW55X_Wifi_BLE_SDK/GD32VW55x_RELEASE_V1.0.2/MSDK/cloud/alicloud/src/services/awss\connect_ap.c ****     unsigned char final_token[AWSS_TOKEN_LEN] = {0};
 377              		.loc 1 98 1
 378 001e 428A     		mv	s4,a6
  99:C:/Users/stapi/OneDrive/Desktop/GD32VW553/V1_MQTT_OK/GD32VW55X_Wifi_BLE_SDK/GD32VW55x_RELEASE_V1.0.2/MSDK/cloud/alicloud/src/services/awss\connect_ap.c ****     unsigned char final_bssid[6] = {0};
 379              		.loc 1 99 19
 380 0020 02C8     		sw	zero,16(sp)
 381 0022 02CA     		sw	zero,20(sp)
 382 0024 02CC     		sw	zero,24(sp)
 383 0026 02CE     		sw	zero,28(sp)
 100:C:/Users/stapi/OneDrive/Desktop/GD32VW553/V1_MQTT_OK/GD32VW55X_Wifi_BLE_SDK/GD32VW55x_RELEASE_V1.0.2/MSDK/cloud/alicloud/src/services/awss\connect_ap.c ****     unsigned char final_bssid[6] = {0};
 384              		.loc 1 100 5 is_stmt 1
 100:C:/Users/stapi/OneDrive/Desktop/GD32VW553/V1_MQTT_OK/GD32VW55X_Wifi_BLE_SDK/GD32VW55x_RELEASE_V1.0.2/MSDK/cloud/alicloud/src/services/awss\connect_ap.c ****     unsigned char final_bssid[6] = {0};
 385              		.loc 1 100 19 is_stmt 0
 386 0028 02C4     		sw	zero,8(sp)
 387 002a 23160100 		sh	zero,12(sp)
 102:C:/Users/stapi/OneDrive/Desktop/GD32VW553/V1_MQTT_OK/GD32VW55X_Wifi_BLE_SDK/GD32VW55x_RELEASE_V1.0.2/MSDK/cloud/alicloud/src/services/awss\connect_ap.c ****     int ret;
 388              		.loc 1 102 5 is_stmt 1
 389              	.LVL52:
 103:C:/Users/stapi/OneDrive/Desktop/GD32VW553/V1_MQTT_OK/GD32VW55X_Wifi_BLE_SDK/GD32VW55x_RELEASE_V1.0.2/MSDK/cloud/alicloud/src/services/awss\connect_ap.c **** 
 390              		.loc 1 103 5
 391              		.loc 1 106 5
 392              		.loc 1 106 11 is_stmt 0
 393 002e 97000000 		call	awss_complete_token
 393      E7800000 
 394              	.LVL53:
 107:C:/Users/stapi/OneDrive/Desktop/GD32VW553/V1_MQTT_OK/GD32VW55X_Wifi_BLE_SDK/GD32VW55x_RELEASE_V1.0.2/MSDK/cloud/alicloud/src/services/awss\connect_ap.c **** 
 108:C:/Users/stapi/OneDrive/Desktop/GD32VW553/V1_MQTT_OK/GD32VW55X_Wifi_BLE_SDK/GD32VW55x_RELEASE_V1.0.2/MSDK/cloud/alicloud/src/services/awss\connect_ap.c ****     if (ret == STATE_SUCCESS) {
 395              		.loc 1 108 5 is_stmt 1
 396              		.loc 1 108 8 is_stmt 0
 397 0036 31ED     		bne	a0,zero,.L30
 109:C:/Users/stapi/OneDrive/Desktop/GD32VW553/V1_MQTT_OK/GD32VW55X_Wifi_BLE_SDK/GD32VW55x_RELEASE_V1.0.2/MSDK/cloud/alicloud/src/services/awss\connect_ap.c ****         awss_set_token(final_token, token_type);
 398              		.loc 1 109 9 is_stmt 1
 399 0038 D285     		mv	a1,s4
 400 003a 0808     		addi	a0,sp,16
 401              	.LVL54:
 402 003c 97000000 		call	awss_set_token
 402      E7800000 
 403              	.LVL55:
 404              	.L31:
 110:C:/Users/stapi/OneDrive/Desktop/GD32VW553/V1_MQTT_OK/GD32VW55X_Wifi_BLE_SDK/GD32VW55x_RELEASE_V1.0.2/MSDK/cloud/alicloud/src/services/awss\connect_ap.c **** 		//awss_token_initial_lifetime();
 111:C:/Users/stapi/OneDrive/Desktop/GD32VW553/V1_MQTT_OK/GD32VW55X_Wifi_BLE_SDK/GD32VW55x_RELEASE_V1.0.2/MSDK/cloud/alicloud/src/services/awss\connect_ap.c ****     } else {
 112:C:/Users/stapi/OneDrive/Desktop/GD32VW553/V1_MQTT_OK/GD32VW55X_Wifi_BLE_SDK/GD32VW55x_RELEASE_V1.0.2/MSDK/cloud/alicloud/src/services/awss\connect_ap.c ****         dump_dev_bind_status(STATE_BIND_NO_APP_TOKEN, "bind: no app token");
 113:C:/Users/stapi/OneDrive/Desktop/GD32VW553/V1_MQTT_OK/GD32VW55X_Wifi_BLE_SDK/GD32VW55x_RELEASE_V1.0.2/MSDK/cloud/alicloud/src/services/awss\connect_ap.c ****     }
 114:C:/Users/stapi/OneDrive/Desktop/GD32VW553/V1_MQTT_OK/GD32VW55X_Wifi_BLE_SDK/GD32VW55x_RELEASE_V1.0.2/MSDK/cloud/alicloud/src/services/awss\connect_ap.c **** 
 115:C:/Users/stapi/OneDrive/Desktop/GD32VW553/V1_MQTT_OK/GD32VW55X_Wifi_BLE_SDK/GD32VW55x_RELEASE_V1.0.2/MSDK/cloud/alicloud/src/services/awss\connect_ap.c ****     /*need to complete the bssid */
 116:C:/Users/stapi/OneDrive/Desktop/GD32VW553/V1_MQTT_OK/GD32VW55X_Wifi_BLE_SDK/GD32VW55x_RELEASE_V1.0.2/MSDK/cloud/alicloud/src/services/awss\connect_ap.c ****     if(bssid_len > 0 && bssid_len < 6 && bssid != NULL) {
 405              		.loc 1 116 5
 406              		.loc 1 116 22 is_stmt 0
 407 0044 9387F4FF 		addi	a5,s1,-1
 408              		.loc 1 116 7
 409 0048 93F7F70F 		andi	a5,a5,0xff
 410 004c 1147     		li	a4,4
 411 004e 636FF704 		bgtu	a5,a4,.L32
 412              		.loc 1 116 39 discriminator 1
 413 0052 11CC     		beq	s0,zero,.L33
 117:C:/Users/stapi/OneDrive/Desktop/GD32VW553/V1_MQTT_OK/GD32VW55X_Wifi_BLE_SDK/GD32VW55x_RELEASE_V1.0.2/MSDK/cloud/alicloud/src/services/awss\connect_ap.c ****         if(zc_bssid != NULL) {
 414              		.loc 1 117 9 is_stmt 1
 118:C:/Users/stapi/OneDrive/Desktop/GD32VW553/V1_MQTT_OK/GD32VW55X_Wifi_BLE_SDK/GD32VW55x_RELEASE_V1.0.2/MSDK/cloud/alicloud/src/services/awss\connect_ap.c ****             memcpy(final_bssid, zc_bssid, 6);
 415              		.loc 1 118 13
 416 0054 B7070000 		lui	a5,%hi(zconfig_data)
 417 0058 83A50700 		lw	a1,%lo(zconfig_data)(a5)
 418 005c 1946     		li	a2,6
 419 005e 9385A54E 		addi	a1,a1,1258
 420              	.L42:
 119:C:/Users/stapi/OneDrive/Desktop/GD32VW553/V1_MQTT_OK/GD32VW55X_Wifi_BLE_SDK/GD32VW55x_RELEASE_V1.0.2/MSDK/cloud/alicloud/src/services/awss\connect_ap.c ****         }else {
 120:C:/Users/stapi/OneDrive/Desktop/GD32VW553/V1_MQTT_OK/GD32VW55X_Wifi_BLE_SDK/GD32VW55x_RELEASE_V1.0.2/MSDK/cloud/alicloud/src/services/awss\connect_ap.c ****             has_bssid = 0;
 121:C:/Users/stapi/OneDrive/Desktop/GD32VW553/V1_MQTT_OK/GD32VW55X_Wifi_BLE_SDK/GD32VW55x_RELEASE_V1.0.2/MSDK/cloud/alicloud/src/services/awss\connect_ap.c ****         }
 122:C:/Users/stapi/OneDrive/Desktop/GD32VW553/V1_MQTT_OK/GD32VW55X_Wifi_BLE_SDK/GD32VW55x_RELEASE_V1.0.2/MSDK/cloud/alicloud/src/services/awss\connect_ap.c ****     } else if (bssid_len == 6 && bssid != NULL){
 123:C:/Users/stapi/OneDrive/Desktop/GD32VW553/V1_MQTT_OK/GD32VW55X_Wifi_BLE_SDK/GD32VW55x_RELEASE_V1.0.2/MSDK/cloud/alicloud/src/services/awss\connect_ap.c ****         memcpy(final_bssid, bssid, 6);
 421              		.loc 1 123 9 is_stmt 0
 422 0062 2800     		addi	a0,sp,8
 423 0064 97000000 		call	memcpy
 423      E7800000 
 424              	.LVL56:
 124:C:/Users/stapi/OneDrive/Desktop/GD32VW553/V1_MQTT_OK/GD32VW55X_Wifi_BLE_SDK/GD32VW55x_RELEASE_V1.0.2/MSDK/cloud/alicloud/src/services/awss\connect_ap.c ****     } else {
 125:C:/Users/stapi/OneDrive/Desktop/GD32VW553/V1_MQTT_OK/GD32VW55X_Wifi_BLE_SDK/GD32VW55x_RELEASE_V1.0.2/MSDK/cloud/alicloud/src/services/awss\connect_ap.c ****         has_bssid = 0;
 126:C:/Users/stapi/OneDrive/Desktop/GD32VW553/V1_MQTT_OK/GD32VW55X_Wifi_BLE_SDK/GD32VW55x_RELEASE_V1.0.2/MSDK/cloud/alicloud/src/services/awss\connect_ap.c ****     }
 127:C:/Users/stapi/OneDrive/Desktop/GD32VW553/V1_MQTT_OK/GD32VW55X_Wifi_BLE_SDK/GD32VW55x_RELEASE_V1.0.2/MSDK/cloud/alicloud/src/services/awss\connect_ap.c **** 
 128:C:/Users/stapi/OneDrive/Desktop/GD32VW553/V1_MQTT_OK/GD32VW55X_Wifi_BLE_SDK/GD32VW55x_RELEASE_V1.0.2/MSDK/cloud/alicloud/src/services/awss\connect_ap.c ****     return HAL_Awss_Connect_Ap(WLAN_CONNECTION_TIMEOUT_MS, ssid, passwd, 0, 0, has_bssid ? final_bs
 425              		.loc 1 128 5 is_stmt 1
 426              		.loc 1 128 12 is_stmt 0
 427 006c 2000     		addi	s0,sp,8
 428              	.LVL57:
 429              	.L33:
 430              		.loc 1 128 12 discriminator 4
 431 006e 1D65     		li	a0,28672
 432 0070 0148     		li	a6,0
 433 0072 A287     		mv	a5,s0
 434 0074 0147     		li	a4,0
 435 0076 8146     		li	a3,0
 436 0078 4A86     		mv	a2,s2
 437 007a CE85     		mv	a1,s3
 438 007c 13050553 		addi	a0,a0,1328
 439 0080 97000000 		call	HAL_Awss_Connect_Ap
 439      E7800000 
 440              	.LVL58:
 129:C:/Users/stapi/OneDrive/Desktop/GD32VW553/V1_MQTT_OK/GD32VW55X_Wifi_BLE_SDK/GD32VW55x_RELEASE_V1.0.2/MSDK/cloud/alicloud/src/services/awss\connect_ap.c **** }
 441              		.loc 1 129 1 discriminator 4
 442 0088 0561     		addi	sp,sp,32
 443              		.cfi_remember_state
 444              		.cfi_def_cfa_offset 0
 445 008a 17030000 		tail	__riscv_restore_5
 445      67000300 
 446              		.cfi_restore 20
 447              		.cfi_restore 19
 448              		.cfi_restore 18
 449              		.cfi_restore 9
 450              		.cfi_restore 8
 451              		.cfi_restore 1
 452              		.cfi_def_cfa_offset -32
 453              	.LVL59:
 454              	.L30:
 455              		.cfi_restore_state
 112:C:/Users/stapi/OneDrive/Desktop/GD32VW553/V1_MQTT_OK/GD32VW55X_Wifi_BLE_SDK/GD32VW55x_RELEASE_V1.0.2/MSDK/cloud/alicloud/src/services/awss\connect_ap.c ****     }
 456              		.loc 1 112 9 is_stmt 1
 457 0092 37060000 		lui	a2,%hi(.LC6)
 458 0096 FD75     		li	a1,-4096
 459 0098 13060600 		addi	a2,a2,%lo(.LC6)
 460 009c 9385057C 		addi	a1,a1,1984
 461 00a0 7D45     		li	a0,31
 462              	.LVL60:
 463 00a2 97000000 		call	iotx_state_event
 463      E7800000 
 464              	.LVL61:
 465 00aa 69BF     		j	.L31
 466              	.L32:
 122:C:/Users/stapi/OneDrive/Desktop/GD32VW553/V1_MQTT_OK/GD32VW55X_Wifi_BLE_SDK/GD32VW55x_RELEASE_V1.0.2/MSDK/cloud/alicloud/src/services/awss\connect_ap.c ****         memcpy(final_bssid, bssid, 6);
 467              		.loc 1 122 12
 122:C:/Users/stapi/OneDrive/Desktop/GD32VW553/V1_MQTT_OK/GD32VW55X_Wifi_BLE_SDK/GD32VW55x_RELEASE_V1.0.2/MSDK/cloud/alicloud/src/services/awss\connect_ap.c ****         memcpy(final_bssid, bssid, 6);
 468              		.loc 1 122 15 is_stmt 0
 469 00ac 9947     		li	a5,6
 470 00ae 6396F400 		bne	s1,a5,.L34
 122:C:/Users/stapi/OneDrive/Desktop/GD32VW553/V1_MQTT_OK/GD32VW55X_Wifi_BLE_SDK/GD32VW55x_RELEASE_V1.0.2/MSDK/cloud/alicloud/src/services/awss\connect_ap.c ****         memcpy(final_bssid, bssid, 6);
 471              		.loc 1 122 31 discriminator 1
 472 00b2 55DC     		beq	s0,zero,.L33
 123:C:/Users/stapi/OneDrive/Desktop/GD32VW553/V1_MQTT_OK/GD32VW55X_Wifi_BLE_SDK/GD32VW55x_RELEASE_V1.0.2/MSDK/cloud/alicloud/src/services/awss\connect_ap.c ****     } else {
 473              		.loc 1 123 9 is_stmt 1
 474 00b4 1946     		li	a2,6
 475 00b6 A285     		mv	a1,s0
 476 00b8 6DB7     		j	.L42
 477              	.L34:
 128:C:/Users/stapi/OneDrive/Desktop/GD32VW553/V1_MQTT_OK/GD32VW55X_Wifi_BLE_SDK/GD32VW55x_RELEASE_V1.0.2/MSDK/cloud/alicloud/src/services/awss\connect_ap.c **** }
 478              		.loc 1 128 12 is_stmt 0
 479 00ba 0144     		li	s0,0
 480              	.LVL62:
 481 00bc 4DBF     		j	.L33
 482              		.cfi_endproc
 483              	.LFE67:
 485              		.text
 486              	.Letext0:
 487              		.file 2 "c:\\users\\stapi\\onedrive\\desktop\\gd32vw553\\embeddedbuilder_v1.4.7.26843\\tools\\nucl
 488              		.file 3 "c:\\users\\stapi\\onedrive\\desktop\\gd32vw553\\embeddedbuilder_v1.4.7.26843\\tools\\nucl
 489              		.file 4 "..\\..\\..\\..\\cloud\\alicloud\\include/exports/iot_export_awss.h"
 490              		.file 5 "C:/Users/stapi/OneDrive/Desktop/GD32VW553/V1_MQTT_OK/GD32VW55X_Wifi_BLE_SDK/GD32VW55x_REL
 491              		.file 6 "..\\..\\..\\..\\cloud\\alicloud\\include/iot_export.h"
 492              		.file 7 "..\\..\\..\\..\\cloud\\alicloud\\src\\services\\dev_bind/passwd.h"
 493              		.file 8 "..\\..\\..\\..\\cloud\\alicloud\\include/imports/iot_import_awss.h"
 494              		.file 9 "<built-in>"
 495              		.file 10 "c:\\users\\stapi\\onedrive\\desktop\\gd32vw553\\embeddedbuilder_v1.4.7.26843\\tools\\nuc
 496              		.file 11 "..\\..\\..\\..\\cloud\\alicloud\\src\\infra\\utils\\digest/utils_sha256.h"
 497              		.file 12 "..\\..\\..\\..\\cloud\\alicloud\\include/iot_import.h"
 498              		.file 13 "C:/Users/stapi/OneDrive/Desktop/GD32VW553/V1_MQTT_OK/GD32VW55X_Wifi_BLE_SDK/GD32VW55x_RE