   1              		.file	"zconfig_vendor_common.c"
   2              		.option nopic
   3              		.attribute arch, "rv32i2p0_m2p0_a2p0_f2p0_c2p0_b_p0p94"
   4              		.attribute unaligned_access, 0
   5              		.attribute stack_align, 16
   6              		.text
   7              	.Ltext0:
   8              		.cfi_sections	.debug_frame
   9              		.section	.text.rescan_monitor,"ax",@progbits
  10              		.align	1
  12              	rescan_monitor:
  13              	.LFB61:
  14              		.file 1 "C:/Users/stapi/OneDrive/Desktop/GD32VW553/V1_MQTT_OK/GD32VW55X_Wifi_BLE_SDK/GD32VW55x_REL
   1:C:/Users/stapi/OneDrive/Desktop/GD32VW553/V1_MQTT_OK/GD32VW55X_Wifi_BLE_SDK/GD32VW55x_RELEASE_V1.0.2/MSDK/cloud/alicloud/src/services/awss\zconfig_vendor_common.c **** /*
   2:C:/Users/stapi/OneDrive/Desktop/GD32VW553/V1_MQTT_OK/GD32VW55X_Wifi_BLE_SDK/GD32VW55x_RELEASE_V1.0.2/MSDK/cloud/alicloud/src/services/awss\zconfig_vendor_common.c ****  * Copyright (C) 2015-2018 Alibaba Group Holding Limited
   3:C:/Users/stapi/OneDrive/Desktop/GD32VW553/V1_MQTT_OK/GD32VW55X_Wifi_BLE_SDK/GD32VW55x_RELEASE_V1.0.2/MSDK/cloud/alicloud/src/services/awss\zconfig_vendor_common.c ****  */
   4:C:/Users/stapi/OneDrive/Desktop/GD32VW553/V1_MQTT_OK/GD32VW55X_Wifi_BLE_SDK/GD32VW55x_RELEASE_V1.0.2/MSDK/cloud/alicloud/src/services/awss\zconfig_vendor_common.c **** 
   5:C:/Users/stapi/OneDrive/Desktop/GD32VW553/V1_MQTT_OK/GD32VW55X_Wifi_BLE_SDK/GD32VW55x_RELEASE_V1.0.2/MSDK/cloud/alicloud/src/services/awss\zconfig_vendor_common.c **** #include <string.h>
   6:C:/Users/stapi/OneDrive/Desktop/GD32VW553/V1_MQTT_OK/GD32VW55X_Wifi_BLE_SDK/GD32VW55x_RELEASE_V1.0.2/MSDK/cloud/alicloud/src/services/awss\zconfig_vendor_common.c **** #include <stdio.h>
   7:C:/Users/stapi/OneDrive/Desktop/GD32VW553/V1_MQTT_OK/GD32VW55X_Wifi_BLE_SDK/GD32VW55x_RELEASE_V1.0.2/MSDK/cloud/alicloud/src/services/awss\zconfig_vendor_common.c **** #include "aws_lib.h"
   8:C:/Users/stapi/OneDrive/Desktop/GD32VW553/V1_MQTT_OK/GD32VW55X_Wifi_BLE_SDK/GD32VW55x_RELEASE_V1.0.2/MSDK/cloud/alicloud/src/services/awss\zconfig_vendor_common.c **** #include "awss_aha.h"
   9:C:/Users/stapi/OneDrive/Desktop/GD32VW553/V1_MQTT_OK/GD32VW55X_Wifi_BLE_SDK/GD32VW55x_RELEASE_V1.0.2/MSDK/cloud/alicloud/src/services/awss\zconfig_vendor_common.c **** #include "awss_adha.h"
  10:C:/Users/stapi/OneDrive/Desktop/GD32VW553/V1_MQTT_OK/GD32VW55X_Wifi_BLE_SDK/GD32VW55x_RELEASE_V1.0.2/MSDK/cloud/alicloud/src/services/awss\zconfig_vendor_common.c **** #include "awss_aplist.h"
  11:C:/Users/stapi/OneDrive/Desktop/GD32VW553/V1_MQTT_OK/GD32VW55X_Wifi_BLE_SDK/GD32VW55x_RELEASE_V1.0.2/MSDK/cloud/alicloud/src/services/awss\zconfig_vendor_common.c **** #include "zconfig_lib.h"
  12:C:/Users/stapi/OneDrive/Desktop/GD32VW553/V1_MQTT_OK/GD32VW55X_Wifi_BLE_SDK/GD32VW55x_RELEASE_V1.0.2/MSDK/cloud/alicloud/src/services/awss\zconfig_vendor_common.c **** #include "zconfig_utils.h"
  13:C:/Users/stapi/OneDrive/Desktop/GD32VW553/V1_MQTT_OK/GD32VW55X_Wifi_BLE_SDK/GD32VW55x_RELEASE_V1.0.2/MSDK/cloud/alicloud/src/services/awss\zconfig_vendor_common.c **** #include "zconfig_protocol.h"
  14:C:/Users/stapi/OneDrive/Desktop/GD32VW553/V1_MQTT_OK/GD32VW55X_Wifi_BLE_SDK/GD32VW55x_RELEASE_V1.0.2/MSDK/cloud/alicloud/src/services/awss\zconfig_vendor_common.c **** #include "zconfig_ieee80211.h"
  15:C:/Users/stapi/OneDrive/Desktop/GD32VW553/V1_MQTT_OK/GD32VW55X_Wifi_BLE_SDK/GD32VW55x_RELEASE_V1.0.2/MSDK/cloud/alicloud/src/services/awss\zconfig_vendor_common.c **** #include "awss_info_notify.h"
  16:C:/Users/stapi/OneDrive/Desktop/GD32VW553/V1_MQTT_OK/GD32VW55X_Wifi_BLE_SDK/GD32VW55x_RELEASE_V1.0.2/MSDK/cloud/alicloud/src/services/awss\zconfig_vendor_common.c **** #include "awss_enrollee.h"
  17:C:/Users/stapi/OneDrive/Desktop/GD32VW553/V1_MQTT_OK/GD32VW55X_Wifi_BLE_SDK/GD32VW55x_RELEASE_V1.0.2/MSDK/cloud/alicloud/src/services/awss\zconfig_vendor_common.c **** #include "awss_event.h"
  18:C:/Users/stapi/OneDrive/Desktop/GD32VW553/V1_MQTT_OK/GD32VW55X_Wifi_BLE_SDK/GD32VW55x_RELEASE_V1.0.2/MSDK/cloud/alicloud/src/services/awss\zconfig_vendor_common.c **** #include "awss_timer.h"
  19:C:/Users/stapi/OneDrive/Desktop/GD32VW553/V1_MQTT_OK/GD32VW55X_Wifi_BLE_SDK/GD32VW55x_RELEASE_V1.0.2/MSDK/cloud/alicloud/src/services/awss\zconfig_vendor_common.c **** #include "awss_main.h"
  20:C:/Users/stapi/OneDrive/Desktop/GD32VW553/V1_MQTT_OK/GD32VW55X_Wifi_BLE_SDK/GD32VW55x_RELEASE_V1.0.2/MSDK/cloud/alicloud/src/services/awss\zconfig_vendor_common.c **** #include "awss.h"
  21:C:/Users/stapi/OneDrive/Desktop/GD32VW553/V1_MQTT_OK/GD32VW55X_Wifi_BLE_SDK/GD32VW55x_RELEASE_V1.0.2/MSDK/cloud/alicloud/src/services/awss\zconfig_vendor_common.c **** #include "os.h"
  22:C:/Users/stapi/OneDrive/Desktop/GD32VW553/V1_MQTT_OK/GD32VW55X_Wifi_BLE_SDK/GD32VW55x_RELEASE_V1.0.2/MSDK/cloud/alicloud/src/services/awss\zconfig_vendor_common.c **** 
  23:C:/Users/stapi/OneDrive/Desktop/GD32VW553/V1_MQTT_OK/GD32VW55X_Wifi_BLE_SDK/GD32VW55x_RELEASE_V1.0.2/MSDK/cloud/alicloud/src/services/awss\zconfig_vendor_common.c **** #if defined(__cplusplus)  /* If this is a C++ compiler, use C linkage */
  24:C:/Users/stapi/OneDrive/Desktop/GD32VW553/V1_MQTT_OK/GD32VW55X_Wifi_BLE_SDK/GD32VW55x_RELEASE_V1.0.2/MSDK/cloud/alicloud/src/services/awss\zconfig_vendor_common.c **** extern "C" {
  25:C:/Users/stapi/OneDrive/Desktop/GD32VW553/V1_MQTT_OK/GD32VW55X_Wifi_BLE_SDK/GD32VW55x_RELEASE_V1.0.2/MSDK/cloud/alicloud/src/services/awss\zconfig_vendor_common.c **** #endif
  26:C:/Users/stapi/OneDrive/Desktop/GD32VW553/V1_MQTT_OK/GD32VW55X_Wifi_BLE_SDK/GD32VW55x_RELEASE_V1.0.2/MSDK/cloud/alicloud/src/services/awss\zconfig_vendor_common.c **** /* aws state machine */
  27:C:/Users/stapi/OneDrive/Desktop/GD32VW553/V1_MQTT_OK/GD32VW55X_Wifi_BLE_SDK/GD32VW55x_RELEASE_V1.0.2/MSDK/cloud/alicloud/src/services/awss\zconfig_vendor_common.c **** enum {
  28:C:/Users/stapi/OneDrive/Desktop/GD32VW553/V1_MQTT_OK/GD32VW55X_Wifi_BLE_SDK/GD32VW55x_RELEASE_V1.0.2/MSDK/cloud/alicloud/src/services/awss\zconfig_vendor_common.c ****     /* used by aws_state */
  29:C:/Users/stapi/OneDrive/Desktop/GD32VW553/V1_MQTT_OK/GD32VW55X_Wifi_BLE_SDK/GD32VW55x_RELEASE_V1.0.2/MSDK/cloud/alicloud/src/services/awss\zconfig_vendor_common.c ****     AWS_SCANNING,
  30:C:/Users/stapi/OneDrive/Desktop/GD32VW553/V1_MQTT_OK/GD32VW55X_Wifi_BLE_SDK/GD32VW55x_RELEASE_V1.0.2/MSDK/cloud/alicloud/src/services/awss\zconfig_vendor_common.c ****     AWS_CHN_LOCKED,
  31:C:/Users/stapi/OneDrive/Desktop/GD32VW553/V1_MQTT_OK/GD32VW55X_Wifi_BLE_SDK/GD32VW55x_RELEASE_V1.0.2/MSDK/cloud/alicloud/src/services/awss\zconfig_vendor_common.c ****     AWS_SUCCESS,
  32:C:/Users/stapi/OneDrive/Desktop/GD32VW553/V1_MQTT_OK/GD32VW55X_Wifi_BLE_SDK/GD32VW55x_RELEASE_V1.0.2/MSDK/cloud/alicloud/src/services/awss\zconfig_vendor_common.c ****     AWS_TIMEOUT,
  33:C:/Users/stapi/OneDrive/Desktop/GD32VW553/V1_MQTT_OK/GD32VW55X_Wifi_BLE_SDK/GD32VW55x_RELEASE_V1.0.2/MSDK/cloud/alicloud/src/services/awss\zconfig_vendor_common.c **** 
  34:C:/Users/stapi/OneDrive/Desktop/GD32VW553/V1_MQTT_OK/GD32VW55X_Wifi_BLE_SDK/GD32VW55x_RELEASE_V1.0.2/MSDK/cloud/alicloud/src/services/awss\zconfig_vendor_common.c ****     /* used by aws_stop */
  35:C:/Users/stapi/OneDrive/Desktop/GD32VW553/V1_MQTT_OK/GD32VW55X_Wifi_BLE_SDK/GD32VW55x_RELEASE_V1.0.2/MSDK/cloud/alicloud/src/services/awss\zconfig_vendor_common.c ****     AWS_STOPPING,
  36:C:/Users/stapi/OneDrive/Desktop/GD32VW553/V1_MQTT_OK/GD32VW55X_Wifi_BLE_SDK/GD32VW55x_RELEASE_V1.0.2/MSDK/cloud/alicloud/src/services/awss\zconfig_vendor_common.c ****     AWS_STOPPED
  37:C:/Users/stapi/OneDrive/Desktop/GD32VW553/V1_MQTT_OK/GD32VW55X_Wifi_BLE_SDK/GD32VW55x_RELEASE_V1.0.2/MSDK/cloud/alicloud/src/services/awss\zconfig_vendor_common.c **** };
  38:C:/Users/stapi/OneDrive/Desktop/GD32VW553/V1_MQTT_OK/GD32VW55X_Wifi_BLE_SDK/GD32VW55x_RELEASE_V1.0.2/MSDK/cloud/alicloud/src/services/awss\zconfig_vendor_common.c **** 
  39:C:/Users/stapi/OneDrive/Desktop/GD32VW553/V1_MQTT_OK/GD32VW55X_Wifi_BLE_SDK/GD32VW55x_RELEASE_V1.0.2/MSDK/cloud/alicloud/src/services/awss\zconfig_vendor_common.c **** 
  40:C:/Users/stapi/OneDrive/Desktop/GD32VW553/V1_MQTT_OK/GD32VW55X_Wifi_BLE_SDK/GD32VW55x_RELEASE_V1.0.2/MSDK/cloud/alicloud/src/services/awss\zconfig_vendor_common.c **** struct aws_info {
  41:C:/Users/stapi/OneDrive/Desktop/GD32VW553/V1_MQTT_OK/GD32VW55X_Wifi_BLE_SDK/GD32VW55x_RELEASE_V1.0.2/MSDK/cloud/alicloud/src/services/awss\zconfig_vendor_common.c ****     uint8_t state;
  42:C:/Users/stapi/OneDrive/Desktop/GD32VW553/V1_MQTT_OK/GD32VW55X_Wifi_BLE_SDK/GD32VW55x_RELEASE_V1.0.2/MSDK/cloud/alicloud/src/services/awss\zconfig_vendor_common.c **** 
  43:C:/Users/stapi/OneDrive/Desktop/GD32VW553/V1_MQTT_OK/GD32VW55X_Wifi_BLE_SDK/GD32VW55x_RELEASE_V1.0.2/MSDK/cloud/alicloud/src/services/awss\zconfig_vendor_common.c ****     uint8_t cur_chn; /* current working channel */
  44:C:/Users/stapi/OneDrive/Desktop/GD32VW553/V1_MQTT_OK/GD32VW55X_Wifi_BLE_SDK/GD32VW55x_RELEASE_V1.0.2/MSDK/cloud/alicloud/src/services/awss\zconfig_vendor_common.c ****     uint8_t chn_index;
  45:C:/Users/stapi/OneDrive/Desktop/GD32VW553/V1_MQTT_OK/GD32VW55X_Wifi_BLE_SDK/GD32VW55x_RELEASE_V1.0.2/MSDK/cloud/alicloud/src/services/awss\zconfig_vendor_common.c **** 
  46:C:/Users/stapi/OneDrive/Desktop/GD32VW553/V1_MQTT_OK/GD32VW55X_Wifi_BLE_SDK/GD32VW55x_RELEASE_V1.0.2/MSDK/cloud/alicloud/src/services/awss\zconfig_vendor_common.c ****     uint8_t locked_chn;
  47:C:/Users/stapi/OneDrive/Desktop/GD32VW553/V1_MQTT_OK/GD32VW55X_Wifi_BLE_SDK/GD32VW55x_RELEASE_V1.0.2/MSDK/cloud/alicloud/src/services/awss\zconfig_vendor_common.c **** 
  48:C:/Users/stapi/OneDrive/Desktop/GD32VW553/V1_MQTT_OK/GD32VW55X_Wifi_BLE_SDK/GD32VW55x_RELEASE_V1.0.2/MSDK/cloud/alicloud/src/services/awss\zconfig_vendor_common.c **** #define AWS_MAX_CHN_NUMS             (2 * 13 + 5)    /* +5 for safety gap */
  49:C:/Users/stapi/OneDrive/Desktop/GD32VW553/V1_MQTT_OK/GD32VW55X_Wifi_BLE_SDK/GD32VW55x_RELEASE_V1.0.2/MSDK/cloud/alicloud/src/services/awss\zconfig_vendor_common.c ****     uint8_t chn_list[AWS_MAX_CHN_NUMS];
  50:C:/Users/stapi/OneDrive/Desktop/GD32VW553/V1_MQTT_OK/GD32VW55X_Wifi_BLE_SDK/GD32VW55x_RELEASE_V1.0.2/MSDK/cloud/alicloud/src/services/awss\zconfig_vendor_common.c ****     uint8_t  stop;
  51:C:/Users/stapi/OneDrive/Desktop/GD32VW553/V1_MQTT_OK/GD32VW55X_Wifi_BLE_SDK/GD32VW55x_RELEASE_V1.0.2/MSDK/cloud/alicloud/src/services/awss\zconfig_vendor_common.c **** 
  52:C:/Users/stapi/OneDrive/Desktop/GD32VW553/V1_MQTT_OK/GD32VW55X_Wifi_BLE_SDK/GD32VW55x_RELEASE_V1.0.2/MSDK/cloud/alicloud/src/services/awss\zconfig_vendor_common.c ****     uint32_t chn_timestamp;/* channel start time */
  53:C:/Users/stapi/OneDrive/Desktop/GD32VW553/V1_MQTT_OK/GD32VW55X_Wifi_BLE_SDK/GD32VW55x_RELEASE_V1.0.2/MSDK/cloud/alicloud/src/services/awss\zconfig_vendor_common.c ****     uint32_t start_timestamp;/* aws start time */
  54:C:/Users/stapi/OneDrive/Desktop/GD32VW553/V1_MQTT_OK/GD32VW55X_Wifi_BLE_SDK/GD32VW55x_RELEASE_V1.0.2/MSDK/cloud/alicloud/src/services/awss\zconfig_vendor_common.c ****     uint32_t p2p_received_timestamp ;/* aws start time */
  55:C:/Users/stapi/OneDrive/Desktop/GD32VW553/V1_MQTT_OK/GD32VW55X_Wifi_BLE_SDK/GD32VW55x_RELEASE_V1.0.2/MSDK/cloud/alicloud/src/services/awss\zconfig_vendor_common.c **** } *aws_info;
  56:C:/Users/stapi/OneDrive/Desktop/GD32VW553/V1_MQTT_OK/GD32VW55X_Wifi_BLE_SDK/GD32VW55x_RELEASE_V1.0.2/MSDK/cloud/alicloud/src/services/awss\zconfig_vendor_common.c **** 
  57:C:/Users/stapi/OneDrive/Desktop/GD32VW553/V1_MQTT_OK/GD32VW55X_Wifi_BLE_SDK/GD32VW55x_RELEASE_V1.0.2/MSDK/cloud/alicloud/src/services/awss\zconfig_vendor_common.c **** #define aws_state                    (aws_info->state)
  58:C:/Users/stapi/OneDrive/Desktop/GD32VW553/V1_MQTT_OK/GD32VW55X_Wifi_BLE_SDK/GD32VW55x_RELEASE_V1.0.2/MSDK/cloud/alicloud/src/services/awss\zconfig_vendor_common.c **** #define aws_locked_chn               (aws_info->locked_chn)
  59:C:/Users/stapi/OneDrive/Desktop/GD32VW553/V1_MQTT_OK/GD32VW55X_Wifi_BLE_SDK/GD32VW55x_RELEASE_V1.0.2/MSDK/cloud/alicloud/src/services/awss\zconfig_vendor_common.c **** #define aws_cur_chn                  (aws_info->cur_chn)
  60:C:/Users/stapi/OneDrive/Desktop/GD32VW553/V1_MQTT_OK/GD32VW55X_Wifi_BLE_SDK/GD32VW55x_RELEASE_V1.0.2/MSDK/cloud/alicloud/src/services/awss\zconfig_vendor_common.c **** #define aws_chn_index                (aws_info->chn_index)
  61:C:/Users/stapi/OneDrive/Desktop/GD32VW553/V1_MQTT_OK/GD32VW55X_Wifi_BLE_SDK/GD32VW55x_RELEASE_V1.0.2/MSDK/cloud/alicloud/src/services/awss\zconfig_vendor_common.c **** #define aws_chn_list                 (aws_info->chn_list)
  62:C:/Users/stapi/OneDrive/Desktop/GD32VW553/V1_MQTT_OK/GD32VW55X_Wifi_BLE_SDK/GD32VW55x_RELEASE_V1.0.2/MSDK/cloud/alicloud/src/services/awss\zconfig_vendor_common.c **** #define aws_chn_timestamp            (aws_info->chn_timestamp)
  63:C:/Users/stapi/OneDrive/Desktop/GD32VW553/V1_MQTT_OK/GD32VW55X_Wifi_BLE_SDK/GD32VW55x_RELEASE_V1.0.2/MSDK/cloud/alicloud/src/services/awss\zconfig_vendor_common.c **** #define aws_start_timestamp          (aws_info->start_timestamp)
  64:C:/Users/stapi/OneDrive/Desktop/GD32VW553/V1_MQTT_OK/GD32VW55X_Wifi_BLE_SDK/GD32VW55x_RELEASE_V1.0.2/MSDK/cloud/alicloud/src/services/awss\zconfig_vendor_common.c **** #define aws_stop                     (aws_info->stop)
  65:C:/Users/stapi/OneDrive/Desktop/GD32VW553/V1_MQTT_OK/GD32VW55X_Wifi_BLE_SDK/GD32VW55x_RELEASE_V1.0.2/MSDK/cloud/alicloud/src/services/awss\zconfig_vendor_common.c **** #define aws_p2p_received_timestamp   (aws_info->p2p_received_timestamp)
  66:C:/Users/stapi/OneDrive/Desktop/GD32VW553/V1_MQTT_OK/GD32VW55X_Wifi_BLE_SDK/GD32VW55x_RELEASE_V1.0.2/MSDK/cloud/alicloud/src/services/awss\zconfig_vendor_common.c **** 
  67:C:/Users/stapi/OneDrive/Desktop/GD32VW553/V1_MQTT_OK/GD32VW55X_Wifi_BLE_SDK/GD32VW55x_RELEASE_V1.0.2/MSDK/cloud/alicloud/src/services/awss\zconfig_vendor_common.c **** #define aws_channel_lock_timeout_ms  (4 * 1000)
  68:C:/Users/stapi/OneDrive/Desktop/GD32VW553/V1_MQTT_OK/GD32VW55X_Wifi_BLE_SDK/GD32VW55x_RELEASE_V1.0.2/MSDK/cloud/alicloud/src/services/awss\zconfig_vendor_common.c **** 
  69:C:/Users/stapi/OneDrive/Desktop/GD32VW553/V1_MQTT_OK/GD32VW55X_Wifi_BLE_SDK/GD32VW55x_RELEASE_V1.0.2/MSDK/cloud/alicloud/src/services/awss\zconfig_vendor_common.c **** #ifdef AWSS_BATCH_DEVAP_ENABLE
  70:C:/Users/stapi/OneDrive/Desktop/GD32VW553/V1_MQTT_OK/GD32VW55X_Wifi_BLE_SDK/GD32VW55x_RELEASE_V1.0.2/MSDK/cloud/alicloud/src/services/awss\zconfig_vendor_common.c **** extern uint8_t g_fixed_chan;
  71:C:/Users/stapi/OneDrive/Desktop/GD32VW553/V1_MQTT_OK/GD32VW55X_Wifi_BLE_SDK/GD32VW55x_RELEASE_V1.0.2/MSDK/cloud/alicloud/src/services/awss\zconfig_vendor_common.c **** #endif
  72:C:/Users/stapi/OneDrive/Desktop/GD32VW553/V1_MQTT_OK/GD32VW55X_Wifi_BLE_SDK/GD32VW55x_RELEASE_V1.0.2/MSDK/cloud/alicloud/src/services/awss\zconfig_vendor_common.c **** 
  73:C:/Users/stapi/OneDrive/Desktop/GD32VW553/V1_MQTT_OK/GD32VW55X_Wifi_BLE_SDK/GD32VW55x_RELEASE_V1.0.2/MSDK/cloud/alicloud/src/services/awss\zconfig_vendor_common.c **** static void *rescan_timer = NULL;
  74:C:/Users/stapi/OneDrive/Desktop/GD32VW553/V1_MQTT_OK/GD32VW55X_Wifi_BLE_SDK/GD32VW55x_RELEASE_V1.0.2/MSDK/cloud/alicloud/src/services/awss\zconfig_vendor_common.c **** 
  75:C:/Users/stapi/OneDrive/Desktop/GD32VW553/V1_MQTT_OK/GD32VW55X_Wifi_BLE_SDK/GD32VW55x_RELEASE_V1.0.2/MSDK/cloud/alicloud/src/services/awss\zconfig_vendor_common.c **** static void rescan_monitor(void);
  76:C:/Users/stapi/OneDrive/Desktop/GD32VW553/V1_MQTT_OK/GD32VW55X_Wifi_BLE_SDK/GD32VW55x_RELEASE_V1.0.2/MSDK/cloud/alicloud/src/services/awss\zconfig_vendor_common.c **** 
  77:C:/Users/stapi/OneDrive/Desktop/GD32VW553/V1_MQTT_OK/GD32VW55X_Wifi_BLE_SDK/GD32VW55x_RELEASE_V1.0.2/MSDK/cloud/alicloud/src/services/awss\zconfig_vendor_common.c **** #define RESCAN_MONITOR_TIMEOUT_MS     (5 * 60 * 1000)
  78:C:/Users/stapi/OneDrive/Desktop/GD32VW553/V1_MQTT_OK/GD32VW55X_Wifi_BLE_SDK/GD32VW55x_RELEASE_V1.0.2/MSDK/cloud/alicloud/src/services/awss\zconfig_vendor_common.c **** static uint8_t rescan_available = 0;
  79:C:/Users/stapi/OneDrive/Desktop/GD32VW553/V1_MQTT_OK/GD32VW55X_Wifi_BLE_SDK/GD32VW55x_RELEASE_V1.0.2/MSDK/cloud/alicloud/src/services/awss\zconfig_vendor_common.c **** 
  80:C:/Users/stapi/OneDrive/Desktop/GD32VW553/V1_MQTT_OK/GD32VW55X_Wifi_BLE_SDK/GD32VW55x_RELEASE_V1.0.2/MSDK/cloud/alicloud/src/services/awss\zconfig_vendor_common.c **** /*
  81:C:/Users/stapi/OneDrive/Desktop/GD32VW553/V1_MQTT_OK/GD32VW55X_Wifi_BLE_SDK/GD32VW55x_RELEASE_V1.0.2/MSDK/cloud/alicloud/src/services/awss\zconfig_vendor_common.c ****  * sniffer result/storage
  82:C:/Users/stapi/OneDrive/Desktop/GD32VW553/V1_MQTT_OK/GD32VW55X_Wifi_BLE_SDK/GD32VW55x_RELEASE_V1.0.2/MSDK/cloud/alicloud/src/services/awss\zconfig_vendor_common.c ****  * use global variable/buffer to keep it usable after zconfig_destroy
  83:C:/Users/stapi/OneDrive/Desktop/GD32VW553/V1_MQTT_OK/GD32VW55X_Wifi_BLE_SDK/GD32VW55x_RELEASE_V1.0.2/MSDK/cloud/alicloud/src/services/awss\zconfig_vendor_common.c ****  */
  84:C:/Users/stapi/OneDrive/Desktop/GD32VW553/V1_MQTT_OK/GD32VW55X_Wifi_BLE_SDK/GD32VW55x_RELEASE_V1.0.2/MSDK/cloud/alicloud/src/services/awss\zconfig_vendor_common.c **** uint8_t aws_result_ssid[ZC_MAX_SSID_LEN + 1];
  85:C:/Users/stapi/OneDrive/Desktop/GD32VW553/V1_MQTT_OK/GD32VW55X_Wifi_BLE_SDK/GD32VW55x_RELEASE_V1.0.2/MSDK/cloud/alicloud/src/services/awss\zconfig_vendor_common.c **** uint8_t aws_result_passwd[ZC_MAX_PASSWD_LEN + 1];
  86:C:/Users/stapi/OneDrive/Desktop/GD32VW553/V1_MQTT_OK/GD32VW55X_Wifi_BLE_SDK/GD32VW55x_RELEASE_V1.0.2/MSDK/cloud/alicloud/src/services/awss\zconfig_vendor_common.c **** uint8_t aws_result_bssid[ETH_ALEN];/* mac addr */
  87:C:/Users/stapi/OneDrive/Desktop/GD32VW553/V1_MQTT_OK/GD32VW55X_Wifi_BLE_SDK/GD32VW55x_RELEASE_V1.0.2/MSDK/cloud/alicloud/src/services/awss\zconfig_vendor_common.c **** uint8_t aws_result_token[ZC_MAX_TOKEN_LEN];/* bind token */
  88:C:/Users/stapi/OneDrive/Desktop/GD32VW553/V1_MQTT_OK/GD32VW55X_Wifi_BLE_SDK/GD32VW55x_RELEASE_V1.0.2/MSDK/cloud/alicloud/src/services/awss\zconfig_vendor_common.c **** uint8_t aws_result_token_type = 0;
  89:C:/Users/stapi/OneDrive/Desktop/GD32VW553/V1_MQTT_OK/GD32VW55X_Wifi_BLE_SDK/GD32VW55x_RELEASE_V1.0.2/MSDK/cloud/alicloud/src/services/awss\zconfig_vendor_common.c **** uint8_t aws_result_channel = 0;
  90:C:/Users/stapi/OneDrive/Desktop/GD32VW553/V1_MQTT_OK/GD32VW55X_Wifi_BLE_SDK/GD32VW55x_RELEASE_V1.0.2/MSDK/cloud/alicloud/src/services/awss\zconfig_vendor_common.c **** uint8_t aws_result_encry;
  91:C:/Users/stapi/OneDrive/Desktop/GD32VW553/V1_MQTT_OK/GD32VW55X_Wifi_BLE_SDK/GD32VW55x_RELEASE_V1.0.2/MSDK/cloud/alicloud/src/services/awss\zconfig_vendor_common.c **** uint8_t aws_result_auth;
  92:C:/Users/stapi/OneDrive/Desktop/GD32VW553/V1_MQTT_OK/GD32VW55X_Wifi_BLE_SDK/GD32VW55x_RELEASE_V1.0.2/MSDK/cloud/alicloud/src/services/awss\zconfig_vendor_common.c **** int aws_80211_frame_handler(char *, int, enum AWSS_LINK_TYPE, int, signed char);
  93:C:/Users/stapi/OneDrive/Desktop/GD32VW553/V1_MQTT_OK/GD32VW55X_Wifi_BLE_SDK/GD32VW55x_RELEASE_V1.0.2/MSDK/cloud/alicloud/src/services/awss\zconfig_vendor_common.c **** 
  94:C:/Users/stapi/OneDrive/Desktop/GD32VW553/V1_MQTT_OK/GD32VW55X_Wifi_BLE_SDK/GD32VW55x_RELEASE_V1.0.2/MSDK/cloud/alicloud/src/services/awss\zconfig_vendor_common.c **** uint8_t zconfig_get_lock_chn(void)
  95:C:/Users/stapi/OneDrive/Desktop/GD32VW553/V1_MQTT_OK/GD32VW55X_Wifi_BLE_SDK/GD32VW55x_RELEASE_V1.0.2/MSDK/cloud/alicloud/src/services/awss\zconfig_vendor_common.c **** {
  96:C:/Users/stapi/OneDrive/Desktop/GD32VW553/V1_MQTT_OK/GD32VW55X_Wifi_BLE_SDK/GD32VW55x_RELEASE_V1.0.2/MSDK/cloud/alicloud/src/services/awss\zconfig_vendor_common.c ****     return aws_locked_chn;
  97:C:/Users/stapi/OneDrive/Desktop/GD32VW553/V1_MQTT_OK/GD32VW55X_Wifi_BLE_SDK/GD32VW55x_RELEASE_V1.0.2/MSDK/cloud/alicloud/src/services/awss\zconfig_vendor_common.c **** }
  98:C:/Users/stapi/OneDrive/Desktop/GD32VW553/V1_MQTT_OK/GD32VW55X_Wifi_BLE_SDK/GD32VW55x_RELEASE_V1.0.2/MSDK/cloud/alicloud/src/services/awss\zconfig_vendor_common.c **** 
  99:C:/Users/stapi/OneDrive/Desktop/GD32VW553/V1_MQTT_OK/GD32VW55X_Wifi_BLE_SDK/GD32VW55x_RELEASE_V1.0.2/MSDK/cloud/alicloud/src/services/awss\zconfig_vendor_common.c **** void zconfig_force_rescan(void)
 100:C:/Users/stapi/OneDrive/Desktop/GD32VW553/V1_MQTT_OK/GD32VW55X_Wifi_BLE_SDK/GD32VW55x_RELEASE_V1.0.2/MSDK/cloud/alicloud/src/services/awss\zconfig_vendor_common.c **** {
 101:C:/Users/stapi/OneDrive/Desktop/GD32VW553/V1_MQTT_OK/GD32VW55X_Wifi_BLE_SDK/GD32VW55x_RELEASE_V1.0.2/MSDK/cloud/alicloud/src/services/awss\zconfig_vendor_common.c ****     if (aws_info) {
 102:C:/Users/stapi/OneDrive/Desktop/GD32VW553/V1_MQTT_OK/GD32VW55X_Wifi_BLE_SDK/GD32VW55x_RELEASE_V1.0.2/MSDK/cloud/alicloud/src/services/awss\zconfig_vendor_common.c ****         aws_state = AWS_SCANNING;
 103:C:/Users/stapi/OneDrive/Desktop/GD32VW553/V1_MQTT_OK/GD32VW55X_Wifi_BLE_SDK/GD32VW55x_RELEASE_V1.0.2/MSDK/cloud/alicloud/src/services/awss\zconfig_vendor_common.c ****     }
 104:C:/Users/stapi/OneDrive/Desktop/GD32VW553/V1_MQTT_OK/GD32VW55X_Wifi_BLE_SDK/GD32VW55x_RELEASE_V1.0.2/MSDK/cloud/alicloud/src/services/awss\zconfig_vendor_common.c **** }
 105:C:/Users/stapi/OneDrive/Desktop/GD32VW553/V1_MQTT_OK/GD32VW55X_Wifi_BLE_SDK/GD32VW55x_RELEASE_V1.0.2/MSDK/cloud/alicloud/src/services/awss\zconfig_vendor_common.c **** 
 106:C:/Users/stapi/OneDrive/Desktop/GD32VW553/V1_MQTT_OK/GD32VW55X_Wifi_BLE_SDK/GD32VW55x_RELEASE_V1.0.2/MSDK/cloud/alicloud/src/services/awss\zconfig_vendor_common.c **** void zconfig_channel_locked_callback(uint8_t primary_channel,
 107:C:/Users/stapi/OneDrive/Desktop/GD32VW553/V1_MQTT_OK/GD32VW55X_Wifi_BLE_SDK/GD32VW55x_RELEASE_V1.0.2/MSDK/cloud/alicloud/src/services/awss\zconfig_vendor_common.c ****                                      uint8_t secondary_channel, uint8_t *bssid)
 108:C:/Users/stapi/OneDrive/Desktop/GD32VW553/V1_MQTT_OK/GD32VW55X_Wifi_BLE_SDK/GD32VW55x_RELEASE_V1.0.2/MSDK/cloud/alicloud/src/services/awss\zconfig_vendor_common.c **** {
 109:C:/Users/stapi/OneDrive/Desktop/GD32VW553/V1_MQTT_OK/GD32VW55X_Wifi_BLE_SDK/GD32VW55x_RELEASE_V1.0.2/MSDK/cloud/alicloud/src/services/awss\zconfig_vendor_common.c ****     aws_locked_chn = primary_channel;
 110:C:/Users/stapi/OneDrive/Desktop/GD32VW553/V1_MQTT_OK/GD32VW55X_Wifi_BLE_SDK/GD32VW55x_RELEASE_V1.0.2/MSDK/cloud/alicloud/src/services/awss\zconfig_vendor_common.c **** 
 111:C:/Users/stapi/OneDrive/Desktop/GD32VW553/V1_MQTT_OK/GD32VW55X_Wifi_BLE_SDK/GD32VW55x_RELEASE_V1.0.2/MSDK/cloud/alicloud/src/services/awss\zconfig_vendor_common.c ****     if (aws_state == AWS_SCANNING) {
 112:C:/Users/stapi/OneDrive/Desktop/GD32VW553/V1_MQTT_OK/GD32VW55X_Wifi_BLE_SDK/GD32VW55x_RELEASE_V1.0.2/MSDK/cloud/alicloud/src/services/awss\zconfig_vendor_common.c ****         aws_state = AWS_CHN_LOCKED;
 113:C:/Users/stapi/OneDrive/Desktop/GD32VW553/V1_MQTT_OK/GD32VW55X_Wifi_BLE_SDK/GD32VW55x_RELEASE_V1.0.2/MSDK/cloud/alicloud/src/services/awss\zconfig_vendor_common.c ****     }
 114:C:/Users/stapi/OneDrive/Desktop/GD32VW553/V1_MQTT_OK/GD32VW55X_Wifi_BLE_SDK/GD32VW55x_RELEASE_V1.0.2/MSDK/cloud/alicloud/src/services/awss\zconfig_vendor_common.c **** 
 115:C:/Users/stapi/OneDrive/Desktop/GD32VW553/V1_MQTT_OK/GD32VW55X_Wifi_BLE_SDK/GD32VW55x_RELEASE_V1.0.2/MSDK/cloud/alicloud/src/services/awss\zconfig_vendor_common.c ****     awss_event_post(IOTX_AWSS_LOCK_CHAN);
 116:C:/Users/stapi/OneDrive/Desktop/GD32VW553/V1_MQTT_OK/GD32VW55X_Wifi_BLE_SDK/GD32VW55x_RELEASE_V1.0.2/MSDK/cloud/alicloud/src/services/awss\zconfig_vendor_common.c ****     #ifdef DEV_STATEMACHINE_ENABLE
 117:C:/Users/stapi/OneDrive/Desktop/GD32VW553/V1_MQTT_OK/GD32VW55X_Wifi_BLE_SDK/GD32VW55x_RELEASE_V1.0.2/MSDK/cloud/alicloud/src/services/awss\zconfig_vendor_common.c ****     dev_awss_state_set(AWSS_PATTERN_SMART_CONFIG, AWSS_STATE_COLLECTING_SSID);
 118:C:/Users/stapi/OneDrive/Desktop/GD32VW553/V1_MQTT_OK/GD32VW55X_Wifi_BLE_SDK/GD32VW55x_RELEASE_V1.0.2/MSDK/cloud/alicloud/src/services/awss\zconfig_vendor_common.c ****     #endif
 119:C:/Users/stapi/OneDrive/Desktop/GD32VW553/V1_MQTT_OK/GD32VW55X_Wifi_BLE_SDK/GD32VW55x_RELEASE_V1.0.2/MSDK/cloud/alicloud/src/services/awss\zconfig_vendor_common.c **** }
 120:C:/Users/stapi/OneDrive/Desktop/GD32VW553/V1_MQTT_OK/GD32VW55X_Wifi_BLE_SDK/GD32VW55x_RELEASE_V1.0.2/MSDK/cloud/alicloud/src/services/awss\zconfig_vendor_common.c **** 
 121:C:/Users/stapi/OneDrive/Desktop/GD32VW553/V1_MQTT_OK/GD32VW55X_Wifi_BLE_SDK/GD32VW55x_RELEASE_V1.0.2/MSDK/cloud/alicloud/src/services/awss\zconfig_vendor_common.c **** void zconfig_got_ssid_passwd_callback(uint8_t *ssid, uint8_t *passwd,
 122:C:/Users/stapi/OneDrive/Desktop/GD32VW553/V1_MQTT_OK/GD32VW55X_Wifi_BLE_SDK/GD32VW55x_RELEASE_V1.0.2/MSDK/cloud/alicloud/src/services/awss\zconfig_vendor_common.c ****                                       uint8_t *bssid, uint8_t *token, 
 123:C:/Users/stapi/OneDrive/Desktop/GD32VW553/V1_MQTT_OK/GD32VW55X_Wifi_BLE_SDK/GD32VW55x_RELEASE_V1.0.2/MSDK/cloud/alicloud/src/services/awss\zconfig_vendor_common.c ****                                       uint8_t auth, uint8_t encry, uint8_t channel, uint8_t token_t
 124:C:/Users/stapi/OneDrive/Desktop/GD32VW553/V1_MQTT_OK/GD32VW55X_Wifi_BLE_SDK/GD32VW55x_RELEASE_V1.0.2/MSDK/cloud/alicloud/src/services/awss\zconfig_vendor_common.c **** {
 125:C:/Users/stapi/OneDrive/Desktop/GD32VW553/V1_MQTT_OK/GD32VW55X_Wifi_BLE_SDK/GD32VW55x_RELEASE_V1.0.2/MSDK/cloud/alicloud/src/services/awss\zconfig_vendor_common.c ****     if (bssid) {
 126:C:/Users/stapi/OneDrive/Desktop/GD32VW553/V1_MQTT_OK/GD32VW55X_Wifi_BLE_SDK/GD32VW55x_RELEASE_V1.0.2/MSDK/cloud/alicloud/src/services/awss\zconfig_vendor_common.c ****         dump_awss_status(STATE_WIFI_PASSWD_DECODE_SUCCESS, "ssid:%s, bssid:%02x%02x%02x%02x%02x%02x
 127:C:/Users/stapi/OneDrive/Desktop/GD32VW553/V1_MQTT_OK/GD32VW55X_Wifi_BLE_SDK/GD32VW55x_RELEASE_V1.0.2/MSDK/cloud/alicloud/src/services/awss\zconfig_vendor_common.c ****                          ssid, bssid[0], bssid[1], bssid[2],
 128:C:/Users/stapi/OneDrive/Desktop/GD32VW553/V1_MQTT_OK/GD32VW55X_Wifi_BLE_SDK/GD32VW55x_RELEASE_V1.0.2/MSDK/cloud/alicloud/src/services/awss\zconfig_vendor_common.c ****                          bssid[3], bssid[4], bssid[5], channel);
 129:C:/Users/stapi/OneDrive/Desktop/GD32VW553/V1_MQTT_OK/GD32VW55X_Wifi_BLE_SDK/GD32VW55x_RELEASE_V1.0.2/MSDK/cloud/alicloud/src/services/awss\zconfig_vendor_common.c ****     } else {
 130:C:/Users/stapi/OneDrive/Desktop/GD32VW553/V1_MQTT_OK/GD32VW55X_Wifi_BLE_SDK/GD32VW55x_RELEASE_V1.0.2/MSDK/cloud/alicloud/src/services/awss\zconfig_vendor_common.c ****         dump_awss_status(STATE_WIFI_PASSWD_DECODE_SUCCESS, "ssid:%s, bssid:--, %d",
 131:C:/Users/stapi/OneDrive/Desktop/GD32VW553/V1_MQTT_OK/GD32VW55X_Wifi_BLE_SDK/GD32VW55x_RELEASE_V1.0.2/MSDK/cloud/alicloud/src/services/awss\zconfig_vendor_common.c ****                          ssid, channel);
 132:C:/Users/stapi/OneDrive/Desktop/GD32VW553/V1_MQTT_OK/GD32VW55X_Wifi_BLE_SDK/GD32VW55x_RELEASE_V1.0.2/MSDK/cloud/alicloud/src/services/awss\zconfig_vendor_common.c ****     }
 133:C:/Users/stapi/OneDrive/Desktop/GD32VW553/V1_MQTT_OK/GD32VW55X_Wifi_BLE_SDK/GD32VW55x_RELEASE_V1.0.2/MSDK/cloud/alicloud/src/services/awss\zconfig_vendor_common.c **** 
 134:C:/Users/stapi/OneDrive/Desktop/GD32VW553/V1_MQTT_OK/GD32VW55X_Wifi_BLE_SDK/GD32VW55x_RELEASE_V1.0.2/MSDK/cloud/alicloud/src/services/awss\zconfig_vendor_common.c ****     if (token) {
 135:C:/Users/stapi/OneDrive/Desktop/GD32VW553/V1_MQTT_OK/GD32VW55X_Wifi_BLE_SDK/GD32VW55x_RELEASE_V1.0.2/MSDK/cloud/alicloud/src/services/awss\zconfig_vendor_common.c ****         memcpy(aws_result_token, token, ZC_MAX_TOKEN_LEN);
 136:C:/Users/stapi/OneDrive/Desktop/GD32VW553/V1_MQTT_OK/GD32VW55X_Wifi_BLE_SDK/GD32VW55x_RELEASE_V1.0.2/MSDK/cloud/alicloud/src/services/awss\zconfig_vendor_common.c ****     }
 137:C:/Users/stapi/OneDrive/Desktop/GD32VW553/V1_MQTT_OK/GD32VW55X_Wifi_BLE_SDK/GD32VW55x_RELEASE_V1.0.2/MSDK/cloud/alicloud/src/services/awss\zconfig_vendor_common.c ****     aws_result_token_type = token_type;
 138:C:/Users/stapi/OneDrive/Desktop/GD32VW553/V1_MQTT_OK/GD32VW55X_Wifi_BLE_SDK/GD32VW55x_RELEASE_V1.0.2/MSDK/cloud/alicloud/src/services/awss\zconfig_vendor_common.c ****     memset(aws_result_ssid, 0, sizeof(aws_result_ssid));
 139:C:/Users/stapi/OneDrive/Desktop/GD32VW553/V1_MQTT_OK/GD32VW55X_Wifi_BLE_SDK/GD32VW55x_RELEASE_V1.0.2/MSDK/cloud/alicloud/src/services/awss\zconfig_vendor_common.c ****     memset(aws_result_passwd, 0, sizeof(aws_result_passwd));
 140:C:/Users/stapi/OneDrive/Desktop/GD32VW553/V1_MQTT_OK/GD32VW55X_Wifi_BLE_SDK/GD32VW55x_RELEASE_V1.0.2/MSDK/cloud/alicloud/src/services/awss\zconfig_vendor_common.c ****     strncpy((char *)aws_result_ssid, (const char *)ssid, ZC_MAX_SSID_LEN - 1);
 141:C:/Users/stapi/OneDrive/Desktop/GD32VW553/V1_MQTT_OK/GD32VW55X_Wifi_BLE_SDK/GD32VW55x_RELEASE_V1.0.2/MSDK/cloud/alicloud/src/services/awss\zconfig_vendor_common.c ****     strncpy((char *)aws_result_passwd, (const char *)passwd, ZC_MAX_PASSWD_LEN - 1);
 142:C:/Users/stapi/OneDrive/Desktop/GD32VW553/V1_MQTT_OK/GD32VW55X_Wifi_BLE_SDK/GD32VW55x_RELEASE_V1.0.2/MSDK/cloud/alicloud/src/services/awss\zconfig_vendor_common.c **** 
 143:C:/Users/stapi/OneDrive/Desktop/GD32VW553/V1_MQTT_OK/GD32VW55X_Wifi_BLE_SDK/GD32VW55x_RELEASE_V1.0.2/MSDK/cloud/alicloud/src/services/awss\zconfig_vendor_common.c ****     if (bssid) {
 144:C:/Users/stapi/OneDrive/Desktop/GD32VW553/V1_MQTT_OK/GD32VW55X_Wifi_BLE_SDK/GD32VW55x_RELEASE_V1.0.2/MSDK/cloud/alicloud/src/services/awss\zconfig_vendor_common.c ****         memcpy(aws_result_bssid, bssid, ETH_ALEN);
 145:C:/Users/stapi/OneDrive/Desktop/GD32VW553/V1_MQTT_OK/GD32VW55X_Wifi_BLE_SDK/GD32VW55x_RELEASE_V1.0.2/MSDK/cloud/alicloud/src/services/awss\zconfig_vendor_common.c ****     }
 146:C:/Users/stapi/OneDrive/Desktop/GD32VW553/V1_MQTT_OK/GD32VW55X_Wifi_BLE_SDK/GD32VW55x_RELEASE_V1.0.2/MSDK/cloud/alicloud/src/services/awss\zconfig_vendor_common.c ****     aws_result_auth = auth;
 147:C:/Users/stapi/OneDrive/Desktop/GD32VW553/V1_MQTT_OK/GD32VW55X_Wifi_BLE_SDK/GD32VW55x_RELEASE_V1.0.2/MSDK/cloud/alicloud/src/services/awss\zconfig_vendor_common.c ****     aws_result_encry = encry;
 148:C:/Users/stapi/OneDrive/Desktop/GD32VW553/V1_MQTT_OK/GD32VW55X_Wifi_BLE_SDK/GD32VW55x_RELEASE_V1.0.2/MSDK/cloud/alicloud/src/services/awss\zconfig_vendor_common.c ****     aws_result_channel = channel;
 149:C:/Users/stapi/OneDrive/Desktop/GD32VW553/V1_MQTT_OK/GD32VW55X_Wifi_BLE_SDK/GD32VW55x_RELEASE_V1.0.2/MSDK/cloud/alicloud/src/services/awss\zconfig_vendor_common.c **** 
 150:C:/Users/stapi/OneDrive/Desktop/GD32VW553/V1_MQTT_OK/GD32VW55X_Wifi_BLE_SDK/GD32VW55x_RELEASE_V1.0.2/MSDK/cloud/alicloud/src/services/awss\zconfig_vendor_common.c ****     aws_state = AWS_SUCCESS;
 151:C:/Users/stapi/OneDrive/Desktop/GD32VW553/V1_MQTT_OK/GD32VW55X_Wifi_BLE_SDK/GD32VW55x_RELEASE_V1.0.2/MSDK/cloud/alicloud/src/services/awss\zconfig_vendor_common.c **** 
 152:C:/Users/stapi/OneDrive/Desktop/GD32VW553/V1_MQTT_OK/GD32VW55X_Wifi_BLE_SDK/GD32VW55x_RELEASE_V1.0.2/MSDK/cloud/alicloud/src/services/awss\zconfig_vendor_common.c ****     awss_event_post(IOTX_AWSS_GOT_SSID_PASSWD);
 153:C:/Users/stapi/OneDrive/Desktop/GD32VW553/V1_MQTT_OK/GD32VW55X_Wifi_BLE_SDK/GD32VW55x_RELEASE_V1.0.2/MSDK/cloud/alicloud/src/services/awss\zconfig_vendor_common.c ****     #ifdef DEV_STATEMACHINE_ENABLE
 154:C:/Users/stapi/OneDrive/Desktop/GD32VW553/V1_MQTT_OK/GD32VW55X_Wifi_BLE_SDK/GD32VW55x_RELEASE_V1.0.2/MSDK/cloud/alicloud/src/services/awss\zconfig_vendor_common.c ****     dev_awss_state_set(AWSS_PATTERN_DEV_AP_CONFIG, AWSS_STATE_SSID_GOT);
 155:C:/Users/stapi/OneDrive/Desktop/GD32VW553/V1_MQTT_OK/GD32VW55X_Wifi_BLE_SDK/GD32VW55x_RELEASE_V1.0.2/MSDK/cloud/alicloud/src/services/awss\zconfig_vendor_common.c ****     #endif
 156:C:/Users/stapi/OneDrive/Desktop/GD32VW553/V1_MQTT_OK/GD32VW55X_Wifi_BLE_SDK/GD32VW55x_RELEASE_V1.0.2/MSDK/cloud/alicloud/src/services/awss\zconfig_vendor_common.c **** 
 157:C:/Users/stapi/OneDrive/Desktop/GD32VW553/V1_MQTT_OK/GD32VW55X_Wifi_BLE_SDK/GD32VW55x_RELEASE_V1.0.2/MSDK/cloud/alicloud/src/services/awss\zconfig_vendor_common.c ****     //TODO:Please change it when smartconfig can got regionid
 158:C:/Users/stapi/OneDrive/Desktop/GD32VW553/V1_MQTT_OK/GD32VW55X_Wifi_BLE_SDK/GD32VW55x_RELEASE_V1.0.2/MSDK/cloud/alicloud/src/services/awss\zconfig_vendor_common.c ****     iotx_guider_set_dynamic_region(IOTX_CLOUD_REGION_INVALID);
 159:C:/Users/stapi/OneDrive/Desktop/GD32VW553/V1_MQTT_OK/GD32VW55X_Wifi_BLE_SDK/GD32VW55x_RELEASE_V1.0.2/MSDK/cloud/alicloud/src/services/awss\zconfig_vendor_common.c **** }
 160:C:/Users/stapi/OneDrive/Desktop/GD32VW553/V1_MQTT_OK/GD32VW55X_Wifi_BLE_SDK/GD32VW55x_RELEASE_V1.0.2/MSDK/cloud/alicloud/src/services/awss\zconfig_vendor_common.c **** 
 161:C:/Users/stapi/OneDrive/Desktop/GD32VW553/V1_MQTT_OK/GD32VW55X_Wifi_BLE_SDK/GD32VW55x_RELEASE_V1.0.2/MSDK/cloud/alicloud/src/services/awss\zconfig_vendor_common.c **** uint8_t aws_next_channel(void)
 162:C:/Users/stapi/OneDrive/Desktop/GD32VW553/V1_MQTT_OK/GD32VW55X_Wifi_BLE_SDK/GD32VW55x_RELEASE_V1.0.2/MSDK/cloud/alicloud/src/services/awss\zconfig_vendor_common.c **** {
 163:C:/Users/stapi/OneDrive/Desktop/GD32VW553/V1_MQTT_OK/GD32VW55X_Wifi_BLE_SDK/GD32VW55x_RELEASE_V1.0.2/MSDK/cloud/alicloud/src/services/awss\zconfig_vendor_common.c ****     /* aws_chn_index start from -1 */
 164:C:/Users/stapi/OneDrive/Desktop/GD32VW553/V1_MQTT_OK/GD32VW55X_Wifi_BLE_SDK/GD32VW55x_RELEASE_V1.0.2/MSDK/cloud/alicloud/src/services/awss\zconfig_vendor_common.c ****     while (1) {
 165:C:/Users/stapi/OneDrive/Desktop/GD32VW553/V1_MQTT_OK/GD32VW55X_Wifi_BLE_SDK/GD32VW55x_RELEASE_V1.0.2/MSDK/cloud/alicloud/src/services/awss\zconfig_vendor_common.c ****         aws_chn_index ++;
 166:C:/Users/stapi/OneDrive/Desktop/GD32VW553/V1_MQTT_OK/GD32VW55X_Wifi_BLE_SDK/GD32VW55x_RELEASE_V1.0.2/MSDK/cloud/alicloud/src/services/awss\zconfig_vendor_common.c ****         if (aws_chn_index >= AWS_MAX_CHN_NUMS) {
 167:C:/Users/stapi/OneDrive/Desktop/GD32VW553/V1_MQTT_OK/GD32VW55X_Wifi_BLE_SDK/GD32VW55x_RELEASE_V1.0.2/MSDK/cloud/alicloud/src/services/awss\zconfig_vendor_common.c ****             aws_chn_index = 0;    // rollback to start
 168:C:/Users/stapi/OneDrive/Desktop/GD32VW553/V1_MQTT_OK/GD32VW55X_Wifi_BLE_SDK/GD32VW55x_RELEASE_V1.0.2/MSDK/cloud/alicloud/src/services/awss\zconfig_vendor_common.c ****         }
 169:C:/Users/stapi/OneDrive/Desktop/GD32VW553/V1_MQTT_OK/GD32VW55X_Wifi_BLE_SDK/GD32VW55x_RELEASE_V1.0.2/MSDK/cloud/alicloud/src/services/awss\zconfig_vendor_common.c **** 
 170:C:/Users/stapi/OneDrive/Desktop/GD32VW553/V1_MQTT_OK/GD32VW55X_Wifi_BLE_SDK/GD32VW55x_RELEASE_V1.0.2/MSDK/cloud/alicloud/src/services/awss\zconfig_vendor_common.c ****         if (aws_chn_list[aws_chn_index]) { // valid channel
 171:C:/Users/stapi/OneDrive/Desktop/GD32VW553/V1_MQTT_OK/GD32VW55X_Wifi_BLE_SDK/GD32VW55x_RELEASE_V1.0.2/MSDK/cloud/alicloud/src/services/awss\zconfig_vendor_common.c ****             break;
 172:C:/Users/stapi/OneDrive/Desktop/GD32VW553/V1_MQTT_OK/GD32VW55X_Wifi_BLE_SDK/GD32VW55x_RELEASE_V1.0.2/MSDK/cloud/alicloud/src/services/awss\zconfig_vendor_common.c ****         }
 173:C:/Users/stapi/OneDrive/Desktop/GD32VW553/V1_MQTT_OK/GD32VW55X_Wifi_BLE_SDK/GD32VW55x_RELEASE_V1.0.2/MSDK/cloud/alicloud/src/services/awss\zconfig_vendor_common.c ****     }
 174:C:/Users/stapi/OneDrive/Desktop/GD32VW553/V1_MQTT_OK/GD32VW55X_Wifi_BLE_SDK/GD32VW55x_RELEASE_V1.0.2/MSDK/cloud/alicloud/src/services/awss\zconfig_vendor_common.c **** 
 175:C:/Users/stapi/OneDrive/Desktop/GD32VW553/V1_MQTT_OK/GD32VW55X_Wifi_BLE_SDK/GD32VW55x_RELEASE_V1.0.2/MSDK/cloud/alicloud/src/services/awss\zconfig_vendor_common.c ****     aws_cur_chn = aws_chn_list[aws_chn_index];
 176:C:/Users/stapi/OneDrive/Desktop/GD32VW553/V1_MQTT_OK/GD32VW55X_Wifi_BLE_SDK/GD32VW55x_RELEASE_V1.0.2/MSDK/cloud/alicloud/src/services/awss\zconfig_vendor_common.c **** 
 177:C:/Users/stapi/OneDrive/Desktop/GD32VW553/V1_MQTT_OK/GD32VW55X_Wifi_BLE_SDK/GD32VW55x_RELEASE_V1.0.2/MSDK/cloud/alicloud/src/services/awss\zconfig_vendor_common.c ****     return aws_cur_chn;
 178:C:/Users/stapi/OneDrive/Desktop/GD32VW553/V1_MQTT_OK/GD32VW55X_Wifi_BLE_SDK/GD32VW55x_RELEASE_V1.0.2/MSDK/cloud/alicloud/src/services/awss\zconfig_vendor_common.c **** }
 179:C:/Users/stapi/OneDrive/Desktop/GD32VW553/V1_MQTT_OK/GD32VW55X_Wifi_BLE_SDK/GD32VW55x_RELEASE_V1.0.2/MSDK/cloud/alicloud/src/services/awss\zconfig_vendor_common.c **** 
 180:C:/Users/stapi/OneDrive/Desktop/GD32VW553/V1_MQTT_OK/GD32VW55X_Wifi_BLE_SDK/GD32VW55x_RELEASE_V1.0.2/MSDK/cloud/alicloud/src/services/awss\zconfig_vendor_common.c **** static void aws_switch_dst_chan(int channel);
 181:C:/Users/stapi/OneDrive/Desktop/GD32VW553/V1_MQTT_OK/GD32VW55X_Wifi_BLE_SDK/GD32VW55x_RELEASE_V1.0.2/MSDK/cloud/alicloud/src/services/awss\zconfig_vendor_common.c **** static int aws_amend_dst_chan = 0;
 182:C:/Users/stapi/OneDrive/Desktop/GD32VW553/V1_MQTT_OK/GD32VW55X_Wifi_BLE_SDK/GD32VW55x_RELEASE_V1.0.2/MSDK/cloud/alicloud/src/services/awss\zconfig_vendor_common.c **** void aws_switch_channel(void)
 183:C:/Users/stapi/OneDrive/Desktop/GD32VW553/V1_MQTT_OK/GD32VW55X_Wifi_BLE_SDK/GD32VW55x_RELEASE_V1.0.2/MSDK/cloud/alicloud/src/services/awss\zconfig_vendor_common.c **** {
 184:C:/Users/stapi/OneDrive/Desktop/GD32VW553/V1_MQTT_OK/GD32VW55X_Wifi_BLE_SDK/GD32VW55x_RELEASE_V1.0.2/MSDK/cloud/alicloud/src/services/awss\zconfig_vendor_common.c ****     if (zconfig_data == NULL) {
 185:C:/Users/stapi/OneDrive/Desktop/GD32VW553/V1_MQTT_OK/GD32VW55X_Wifi_BLE_SDK/GD32VW55x_RELEASE_V1.0.2/MSDK/cloud/alicloud/src/services/awss\zconfig_vendor_common.c ****         return;
 186:C:/Users/stapi/OneDrive/Desktop/GD32VW553/V1_MQTT_OK/GD32VW55X_Wifi_BLE_SDK/GD32VW55x_RELEASE_V1.0.2/MSDK/cloud/alicloud/src/services/awss\zconfig_vendor_common.c ****     }
 187:C:/Users/stapi/OneDrive/Desktop/GD32VW553/V1_MQTT_OK/GD32VW55X_Wifi_BLE_SDK/GD32VW55x_RELEASE_V1.0.2/MSDK/cloud/alicloud/src/services/awss\zconfig_vendor_common.c **** 
 188:C:/Users/stapi/OneDrive/Desktop/GD32VW553/V1_MQTT_OK/GD32VW55X_Wifi_BLE_SDK/GD32VW55x_RELEASE_V1.0.2/MSDK/cloud/alicloud/src/services/awss\zconfig_vendor_common.c ****     os_mutex_lock(zc_mutex);
 189:C:/Users/stapi/OneDrive/Desktop/GD32VW553/V1_MQTT_OK/GD32VW55X_Wifi_BLE_SDK/GD32VW55x_RELEASE_V1.0.2/MSDK/cloud/alicloud/src/services/awss\zconfig_vendor_common.c ****     if (aws_amend_dst_chan != 0) {
 190:C:/Users/stapi/OneDrive/Desktop/GD32VW553/V1_MQTT_OK/GD32VW55X_Wifi_BLE_SDK/GD32VW55x_RELEASE_V1.0.2/MSDK/cloud/alicloud/src/services/awss\zconfig_vendor_common.c ****         aws_switch_dst_chan(aws_amend_dst_chan);
 191:C:/Users/stapi/OneDrive/Desktop/GD32VW553/V1_MQTT_OK/GD32VW55X_Wifi_BLE_SDK/GD32VW55x_RELEASE_V1.0.2/MSDK/cloud/alicloud/src/services/awss\zconfig_vendor_common.c ****         aws_amend_dst_chan = 0;
 192:C:/Users/stapi/OneDrive/Desktop/GD32VW553/V1_MQTT_OK/GD32VW55X_Wifi_BLE_SDK/GD32VW55x_RELEASE_V1.0.2/MSDK/cloud/alicloud/src/services/awss\zconfig_vendor_common.c ****         os_mutex_unlock(zc_mutex);
 193:C:/Users/stapi/OneDrive/Desktop/GD32VW553/V1_MQTT_OK/GD32VW55X_Wifi_BLE_SDK/GD32VW55x_RELEASE_V1.0.2/MSDK/cloud/alicloud/src/services/awss\zconfig_vendor_common.c ****         return;
 194:C:/Users/stapi/OneDrive/Desktop/GD32VW553/V1_MQTT_OK/GD32VW55X_Wifi_BLE_SDK/GD32VW55x_RELEASE_V1.0.2/MSDK/cloud/alicloud/src/services/awss\zconfig_vendor_common.c ****     }
 195:C:/Users/stapi/OneDrive/Desktop/GD32VW553/V1_MQTT_OK/GD32VW55X_Wifi_BLE_SDK/GD32VW55x_RELEASE_V1.0.2/MSDK/cloud/alicloud/src/services/awss\zconfig_vendor_common.c **** 
 196:C:/Users/stapi/OneDrive/Desktop/GD32VW553/V1_MQTT_OK/GD32VW55X_Wifi_BLE_SDK/GD32VW55x_RELEASE_V1.0.2/MSDK/cloud/alicloud/src/services/awss\zconfig_vendor_common.c ****     if (aws_state == AWS_CHN_LOCKED) {
 197:C:/Users/stapi/OneDrive/Desktop/GD32VW553/V1_MQTT_OK/GD32VW55X_Wifi_BLE_SDK/GD32VW55x_RELEASE_V1.0.2/MSDK/cloud/alicloud/src/services/awss\zconfig_vendor_common.c ****         os_mutex_unlock(zc_mutex);
 198:C:/Users/stapi/OneDrive/Desktop/GD32VW553/V1_MQTT_OK/GD32VW55X_Wifi_BLE_SDK/GD32VW55x_RELEASE_V1.0.2/MSDK/cloud/alicloud/src/services/awss\zconfig_vendor_common.c ****         return;
 199:C:/Users/stapi/OneDrive/Desktop/GD32VW553/V1_MQTT_OK/GD32VW55X_Wifi_BLE_SDK/GD32VW55x_RELEASE_V1.0.2/MSDK/cloud/alicloud/src/services/awss\zconfig_vendor_common.c ****     }
 200:C:/Users/stapi/OneDrive/Desktop/GD32VW553/V1_MQTT_OK/GD32VW55X_Wifi_BLE_SDK/GD32VW55x_RELEASE_V1.0.2/MSDK/cloud/alicloud/src/services/awss\zconfig_vendor_common.c **** 
 201:C:/Users/stapi/OneDrive/Desktop/GD32VW553/V1_MQTT_OK/GD32VW55X_Wifi_BLE_SDK/GD32VW55x_RELEASE_V1.0.2/MSDK/cloud/alicloud/src/services/awss\zconfig_vendor_common.c ****     do {
 202:C:/Users/stapi/OneDrive/Desktop/GD32VW553/V1_MQTT_OK/GD32VW55X_Wifi_BLE_SDK/GD32VW55x_RELEASE_V1.0.2/MSDK/cloud/alicloud/src/services/awss\zconfig_vendor_common.c ****         uint8_t channel;
 203:C:/Users/stapi/OneDrive/Desktop/GD32VW553/V1_MQTT_OK/GD32VW55X_Wifi_BLE_SDK/GD32VW55x_RELEASE_V1.0.2/MSDK/cloud/alicloud/src/services/awss\zconfig_vendor_common.c **** #ifdef AWSS_BATCH_DEVAP_ENABLE
 204:C:/Users/stapi/OneDrive/Desktop/GD32VW553/V1_MQTT_OK/GD32VW55X_Wifi_BLE_SDK/GD32VW55x_RELEASE_V1.0.2/MSDK/cloud/alicloud/src/services/awss\zconfig_vendor_common.c ****         uint8_t valid_chan = 0;
 205:C:/Users/stapi/OneDrive/Desktop/GD32VW553/V1_MQTT_OK/GD32VW55X_Wifi_BLE_SDK/GD32VW55x_RELEASE_V1.0.2/MSDK/cloud/alicloud/src/services/awss\zconfig_vendor_common.c ****         if (g_fixed_chan == 0xFF) {
 206:C:/Users/stapi/OneDrive/Desktop/GD32VW553/V1_MQTT_OK/GD32VW55X_Wifi_BLE_SDK/GD32VW55x_RELEASE_V1.0.2/MSDK/cloud/alicloud/src/services/awss\zconfig_vendor_common.c ****             // no fix channel set, use channel list to switch channel
 207:C:/Users/stapi/OneDrive/Desktop/GD32VW553/V1_MQTT_OK/GD32VW55X_Wifi_BLE_SDK/GD32VW55x_RELEASE_V1.0.2/MSDK/cloud/alicloud/src/services/awss\zconfig_vendor_common.c ****             channel = aws_next_channel();
 208:C:/Users/stapi/OneDrive/Desktop/GD32VW553/V1_MQTT_OK/GD32VW55X_Wifi_BLE_SDK/GD32VW55x_RELEASE_V1.0.2/MSDK/cloud/alicloud/src/services/awss\zconfig_vendor_common.c ****         } else {
 209:C:/Users/stapi/OneDrive/Desktop/GD32VW553/V1_MQTT_OK/GD32VW55X_Wifi_BLE_SDK/GD32VW55x_RELEASE_V1.0.2/MSDK/cloud/alicloud/src/services/awss\zconfig_vendor_common.c ****             // fix channel set, should validate the fix channel
 210:C:/Users/stapi/OneDrive/Desktop/GD32VW553/V1_MQTT_OK/GD32VW55X_Wifi_BLE_SDK/GD32VW55x_RELEASE_V1.0.2/MSDK/cloud/alicloud/src/services/awss\zconfig_vendor_common.c ****             uint8_t i = 0;
 211:C:/Users/stapi/OneDrive/Desktop/GD32VW553/V1_MQTT_OK/GD32VW55X_Wifi_BLE_SDK/GD32VW55x_RELEASE_V1.0.2/MSDK/cloud/alicloud/src/services/awss\zconfig_vendor_common.c ****             for (i = 0; i < AWS_MAX_CHN_NUMS; i ++) {
 212:C:/Users/stapi/OneDrive/Desktop/GD32VW553/V1_MQTT_OK/GD32VW55X_Wifi_BLE_SDK/GD32VW55x_RELEASE_V1.0.2/MSDK/cloud/alicloud/src/services/awss\zconfig_vendor_common.c ****                 if (aws_chn_list[i] == 0) {
 213:C:/Users/stapi/OneDrive/Desktop/GD32VW553/V1_MQTT_OK/GD32VW55X_Wifi_BLE_SDK/GD32VW55x_RELEASE_V1.0.2/MSDK/cloud/alicloud/src/services/awss\zconfig_vendor_common.c ****                     continue;
 214:C:/Users/stapi/OneDrive/Desktop/GD32VW553/V1_MQTT_OK/GD32VW55X_Wifi_BLE_SDK/GD32VW55x_RELEASE_V1.0.2/MSDK/cloud/alicloud/src/services/awss\zconfig_vendor_common.c ****                 }
 215:C:/Users/stapi/OneDrive/Desktop/GD32VW553/V1_MQTT_OK/GD32VW55X_Wifi_BLE_SDK/GD32VW55x_RELEASE_V1.0.2/MSDK/cloud/alicloud/src/services/awss\zconfig_vendor_common.c ****                 if (aws_chn_list[i] == g_fixed_chan) {
 216:C:/Users/stapi/OneDrive/Desktop/GD32VW553/V1_MQTT_OK/GD32VW55X_Wifi_BLE_SDK/GD32VW55x_RELEASE_V1.0.2/MSDK/cloud/alicloud/src/services/awss\zconfig_vendor_common.c ****                     valid_chan = 1;
 217:C:/Users/stapi/OneDrive/Desktop/GD32VW553/V1_MQTT_OK/GD32VW55X_Wifi_BLE_SDK/GD32VW55x_RELEASE_V1.0.2/MSDK/cloud/alicloud/src/services/awss\zconfig_vendor_common.c ****                     break;
 218:C:/Users/stapi/OneDrive/Desktop/GD32VW553/V1_MQTT_OK/GD32VW55X_Wifi_BLE_SDK/GD32VW55x_RELEASE_V1.0.2/MSDK/cloud/alicloud/src/services/awss\zconfig_vendor_common.c ****                 }
 219:C:/Users/stapi/OneDrive/Desktop/GD32VW553/V1_MQTT_OK/GD32VW55X_Wifi_BLE_SDK/GD32VW55x_RELEASE_V1.0.2/MSDK/cloud/alicloud/src/services/awss\zconfig_vendor_common.c ****             }
 220:C:/Users/stapi/OneDrive/Desktop/GD32VW553/V1_MQTT_OK/GD32VW55X_Wifi_BLE_SDK/GD32VW55x_RELEASE_V1.0.2/MSDK/cloud/alicloud/src/services/awss\zconfig_vendor_common.c ****             if (valid_chan) {
 221:C:/Users/stapi/OneDrive/Desktop/GD32VW553/V1_MQTT_OK/GD32VW55X_Wifi_BLE_SDK/GD32VW55x_RELEASE_V1.0.2/MSDK/cloud/alicloud/src/services/awss\zconfig_vendor_common.c ****                 // fix channel was set and valid
 222:C:/Users/stapi/OneDrive/Desktop/GD32VW553/V1_MQTT_OK/GD32VW55X_Wifi_BLE_SDK/GD32VW55x_RELEASE_V1.0.2/MSDK/cloud/alicloud/src/services/awss\zconfig_vendor_common.c ****                 channel = g_fixed_chan;
 223:C:/Users/stapi/OneDrive/Desktop/GD32VW553/V1_MQTT_OK/GD32VW55X_Wifi_BLE_SDK/GD32VW55x_RELEASE_V1.0.2/MSDK/cloud/alicloud/src/services/awss\zconfig_vendor_common.c ****             } else {
 224:C:/Users/stapi/OneDrive/Desktop/GD32VW553/V1_MQTT_OK/GD32VW55X_Wifi_BLE_SDK/GD32VW55x_RELEASE_V1.0.2/MSDK/cloud/alicloud/src/services/awss\zconfig_vendor_common.c ****                 // fix channel invalid, use channel list to switch channel
 225:C:/Users/stapi/OneDrive/Desktop/GD32VW553/V1_MQTT_OK/GD32VW55X_Wifi_BLE_SDK/GD32VW55x_RELEASE_V1.0.2/MSDK/cloud/alicloud/src/services/awss\zconfig_vendor_common.c ****                 channel = aws_next_channel();
 226:C:/Users/stapi/OneDrive/Desktop/GD32VW553/V1_MQTT_OK/GD32VW55X_Wifi_BLE_SDK/GD32VW55x_RELEASE_V1.0.2/MSDK/cloud/alicloud/src/services/awss\zconfig_vendor_common.c ****             }
 227:C:/Users/stapi/OneDrive/Desktop/GD32VW553/V1_MQTT_OK/GD32VW55X_Wifi_BLE_SDK/GD32VW55x_RELEASE_V1.0.2/MSDK/cloud/alicloud/src/services/awss\zconfig_vendor_common.c ****         }
 228:C:/Users/stapi/OneDrive/Desktop/GD32VW553/V1_MQTT_OK/GD32VW55X_Wifi_BLE_SDK/GD32VW55x_RELEASE_V1.0.2/MSDK/cloud/alicloud/src/services/awss\zconfig_vendor_common.c **** #else
 229:C:/Users/stapi/OneDrive/Desktop/GD32VW553/V1_MQTT_OK/GD32VW55X_Wifi_BLE_SDK/GD32VW55x_RELEASE_V1.0.2/MSDK/cloud/alicloud/src/services/awss\zconfig_vendor_common.c ****         channel = aws_next_channel();
 230:C:/Users/stapi/OneDrive/Desktop/GD32VW553/V1_MQTT_OK/GD32VW55X_Wifi_BLE_SDK/GD32VW55x_RELEASE_V1.0.2/MSDK/cloud/alicloud/src/services/awss\zconfig_vendor_common.c **** #endif
 231:C:/Users/stapi/OneDrive/Desktop/GD32VW553/V1_MQTT_OK/GD32VW55X_Wifi_BLE_SDK/GD32VW55x_RELEASE_V1.0.2/MSDK/cloud/alicloud/src/services/awss\zconfig_vendor_common.c ****         aws_chn_timestamp = os_get_time_ms();
 232:C:/Users/stapi/OneDrive/Desktop/GD32VW553/V1_MQTT_OK/GD32VW55X_Wifi_BLE_SDK/GD32VW55x_RELEASE_V1.0.2/MSDK/cloud/alicloud/src/services/awss\zconfig_vendor_common.c ****         os_awss_switch_channel(channel, 0, NULL);
 233:C:/Users/stapi/OneDrive/Desktop/GD32VW553/V1_MQTT_OK/GD32VW55X_Wifi_BLE_SDK/GD32VW55x_RELEASE_V1.0.2/MSDK/cloud/alicloud/src/services/awss\zconfig_vendor_common.c ****         awss_trace("chan %d\r\n", channel);
 234:C:/Users/stapi/OneDrive/Desktop/GD32VW553/V1_MQTT_OK/GD32VW55X_Wifi_BLE_SDK/GD32VW55x_RELEASE_V1.0.2/MSDK/cloud/alicloud/src/services/awss\zconfig_vendor_common.c ****     } while (0);
 235:C:/Users/stapi/OneDrive/Desktop/GD32VW553/V1_MQTT_OK/GD32VW55X_Wifi_BLE_SDK/GD32VW55x_RELEASE_V1.0.2/MSDK/cloud/alicloud/src/services/awss\zconfig_vendor_common.c ****     os_mutex_unlock(zc_mutex);
 236:C:/Users/stapi/OneDrive/Desktop/GD32VW553/V1_MQTT_OK/GD32VW55X_Wifi_BLE_SDK/GD32VW55x_RELEASE_V1.0.2/MSDK/cloud/alicloud/src/services/awss\zconfig_vendor_common.c **** }
 237:C:/Users/stapi/OneDrive/Desktop/GD32VW553/V1_MQTT_OK/GD32VW55X_Wifi_BLE_SDK/GD32VW55x_RELEASE_V1.0.2/MSDK/cloud/alicloud/src/services/awss\zconfig_vendor_common.c **** 
 238:C:/Users/stapi/OneDrive/Desktop/GD32VW553/V1_MQTT_OK/GD32VW55X_Wifi_BLE_SDK/GD32VW55x_RELEASE_V1.0.2/MSDK/cloud/alicloud/src/services/awss\zconfig_vendor_common.c **** void aws_set_dst_chan(int channel)
 239:C:/Users/stapi/OneDrive/Desktop/GD32VW553/V1_MQTT_OK/GD32VW55X_Wifi_BLE_SDK/GD32VW55x_RELEASE_V1.0.2/MSDK/cloud/alicloud/src/services/awss\zconfig_vendor_common.c **** {
 240:C:/Users/stapi/OneDrive/Desktop/GD32VW553/V1_MQTT_OK/GD32VW55X_Wifi_BLE_SDK/GD32VW55x_RELEASE_V1.0.2/MSDK/cloud/alicloud/src/services/awss\zconfig_vendor_common.c ****     if (zconfig_data == NULL) {
 241:C:/Users/stapi/OneDrive/Desktop/GD32VW553/V1_MQTT_OK/GD32VW55X_Wifi_BLE_SDK/GD32VW55x_RELEASE_V1.0.2/MSDK/cloud/alicloud/src/services/awss\zconfig_vendor_common.c ****         return;
 242:C:/Users/stapi/OneDrive/Desktop/GD32VW553/V1_MQTT_OK/GD32VW55X_Wifi_BLE_SDK/GD32VW55x_RELEASE_V1.0.2/MSDK/cloud/alicloud/src/services/awss\zconfig_vendor_common.c ****     }
 243:C:/Users/stapi/OneDrive/Desktop/GD32VW553/V1_MQTT_OK/GD32VW55X_Wifi_BLE_SDK/GD32VW55x_RELEASE_V1.0.2/MSDK/cloud/alicloud/src/services/awss\zconfig_vendor_common.c ****     os_mutex_lock(zc_mutex);
 244:C:/Users/stapi/OneDrive/Desktop/GD32VW553/V1_MQTT_OK/GD32VW55X_Wifi_BLE_SDK/GD32VW55x_RELEASE_V1.0.2/MSDK/cloud/alicloud/src/services/awss\zconfig_vendor_common.c ****     aws_amend_dst_chan = channel;
 245:C:/Users/stapi/OneDrive/Desktop/GD32VW553/V1_MQTT_OK/GD32VW55X_Wifi_BLE_SDK/GD32VW55x_RELEASE_V1.0.2/MSDK/cloud/alicloud/src/services/awss\zconfig_vendor_common.c ****     os_mutex_unlock(zc_mutex);
 246:C:/Users/stapi/OneDrive/Desktop/GD32VW553/V1_MQTT_OK/GD32VW55X_Wifi_BLE_SDK/GD32VW55x_RELEASE_V1.0.2/MSDK/cloud/alicloud/src/services/awss\zconfig_vendor_common.c **** }
 247:C:/Users/stapi/OneDrive/Desktop/GD32VW553/V1_MQTT_OK/GD32VW55X_Wifi_BLE_SDK/GD32VW55x_RELEASE_V1.0.2/MSDK/cloud/alicloud/src/services/awss\zconfig_vendor_common.c **** 
 248:C:/Users/stapi/OneDrive/Desktop/GD32VW553/V1_MQTT_OK/GD32VW55X_Wifi_BLE_SDK/GD32VW55x_RELEASE_V1.0.2/MSDK/cloud/alicloud/src/services/awss\zconfig_vendor_common.c **** static void aws_switch_dst_chan(int channel)
 249:C:/Users/stapi/OneDrive/Desktop/GD32VW553/V1_MQTT_OK/GD32VW55X_Wifi_BLE_SDK/GD32VW55x_RELEASE_V1.0.2/MSDK/cloud/alicloud/src/services/awss\zconfig_vendor_common.c **** {
 250:C:/Users/stapi/OneDrive/Desktop/GD32VW553/V1_MQTT_OK/GD32VW55X_Wifi_BLE_SDK/GD32VW55x_RELEASE_V1.0.2/MSDK/cloud/alicloud/src/services/awss\zconfig_vendor_common.c ****     int i = aws_chn_index;
 251:C:/Users/stapi/OneDrive/Desktop/GD32VW553/V1_MQTT_OK/GD32VW55X_Wifi_BLE_SDK/GD32VW55x_RELEASE_V1.0.2/MSDK/cloud/alicloud/src/services/awss\zconfig_vendor_common.c ****     for (; i < AWS_MAX_CHN_NUMS; i ++) {
 252:C:/Users/stapi/OneDrive/Desktop/GD32VW553/V1_MQTT_OK/GD32VW55X_Wifi_BLE_SDK/GD32VW55x_RELEASE_V1.0.2/MSDK/cloud/alicloud/src/services/awss\zconfig_vendor_common.c ****         if (aws_chn_list[i] == 0) {
 253:C:/Users/stapi/OneDrive/Desktop/GD32VW553/V1_MQTT_OK/GD32VW55X_Wifi_BLE_SDK/GD32VW55x_RELEASE_V1.0.2/MSDK/cloud/alicloud/src/services/awss\zconfig_vendor_common.c ****             continue;
 254:C:/Users/stapi/OneDrive/Desktop/GD32VW553/V1_MQTT_OK/GD32VW55X_Wifi_BLE_SDK/GD32VW55x_RELEASE_V1.0.2/MSDK/cloud/alicloud/src/services/awss\zconfig_vendor_common.c ****         }
 255:C:/Users/stapi/OneDrive/Desktop/GD32VW553/V1_MQTT_OK/GD32VW55X_Wifi_BLE_SDK/GD32VW55x_RELEASE_V1.0.2/MSDK/cloud/alicloud/src/services/awss\zconfig_vendor_common.c ****         if (aws_chn_list[i] == channel) {
 256:C:/Users/stapi/OneDrive/Desktop/GD32VW553/V1_MQTT_OK/GD32VW55X_Wifi_BLE_SDK/GD32VW55x_RELEASE_V1.0.2/MSDK/cloud/alicloud/src/services/awss\zconfig_vendor_common.c ****             break;
 257:C:/Users/stapi/OneDrive/Desktop/GD32VW553/V1_MQTT_OK/GD32VW55X_Wifi_BLE_SDK/GD32VW55x_RELEASE_V1.0.2/MSDK/cloud/alicloud/src/services/awss\zconfig_vendor_common.c ****         }
 258:C:/Users/stapi/OneDrive/Desktop/GD32VW553/V1_MQTT_OK/GD32VW55X_Wifi_BLE_SDK/GD32VW55x_RELEASE_V1.0.2/MSDK/cloud/alicloud/src/services/awss\zconfig_vendor_common.c ****     }
 259:C:/Users/stapi/OneDrive/Desktop/GD32VW553/V1_MQTT_OK/GD32VW55X_Wifi_BLE_SDK/GD32VW55x_RELEASE_V1.0.2/MSDK/cloud/alicloud/src/services/awss\zconfig_vendor_common.c **** 
 260:C:/Users/stapi/OneDrive/Desktop/GD32VW553/V1_MQTT_OK/GD32VW55X_Wifi_BLE_SDK/GD32VW55x_RELEASE_V1.0.2/MSDK/cloud/alicloud/src/services/awss\zconfig_vendor_common.c ****     if (i >= AWS_MAX_CHN_NUMS) {
 261:C:/Users/stapi/OneDrive/Desktop/GD32VW553/V1_MQTT_OK/GD32VW55X_Wifi_BLE_SDK/GD32VW55x_RELEASE_V1.0.2/MSDK/cloud/alicloud/src/services/awss\zconfig_vendor_common.c ****         for (i = 0; i < aws_chn_index; i ++) {
 262:C:/Users/stapi/OneDrive/Desktop/GD32VW553/V1_MQTT_OK/GD32VW55X_Wifi_BLE_SDK/GD32VW55x_RELEASE_V1.0.2/MSDK/cloud/alicloud/src/services/awss\zconfig_vendor_common.c ****             if (aws_chn_list[i] == 0) {
 263:C:/Users/stapi/OneDrive/Desktop/GD32VW553/V1_MQTT_OK/GD32VW55X_Wifi_BLE_SDK/GD32VW55x_RELEASE_V1.0.2/MSDK/cloud/alicloud/src/services/awss\zconfig_vendor_common.c ****                 continue;
 264:C:/Users/stapi/OneDrive/Desktop/GD32VW553/V1_MQTT_OK/GD32VW55X_Wifi_BLE_SDK/GD32VW55x_RELEASE_V1.0.2/MSDK/cloud/alicloud/src/services/awss\zconfig_vendor_common.c ****             }
 265:C:/Users/stapi/OneDrive/Desktop/GD32VW553/V1_MQTT_OK/GD32VW55X_Wifi_BLE_SDK/GD32VW55x_RELEASE_V1.0.2/MSDK/cloud/alicloud/src/services/awss\zconfig_vendor_common.c ****             if (aws_chn_list[i] == channel) {
 266:C:/Users/stapi/OneDrive/Desktop/GD32VW553/V1_MQTT_OK/GD32VW55X_Wifi_BLE_SDK/GD32VW55x_RELEASE_V1.0.2/MSDK/cloud/alicloud/src/services/awss\zconfig_vendor_common.c ****                 break;
 267:C:/Users/stapi/OneDrive/Desktop/GD32VW553/V1_MQTT_OK/GD32VW55X_Wifi_BLE_SDK/GD32VW55x_RELEASE_V1.0.2/MSDK/cloud/alicloud/src/services/awss\zconfig_vendor_common.c ****             }
 268:C:/Users/stapi/OneDrive/Desktop/GD32VW553/V1_MQTT_OK/GD32VW55X_Wifi_BLE_SDK/GD32VW55x_RELEASE_V1.0.2/MSDK/cloud/alicloud/src/services/awss\zconfig_vendor_common.c ****         }
 269:C:/Users/stapi/OneDrive/Desktop/GD32VW553/V1_MQTT_OK/GD32VW55X_Wifi_BLE_SDK/GD32VW55x_RELEASE_V1.0.2/MSDK/cloud/alicloud/src/services/awss\zconfig_vendor_common.c ****     }
 270:C:/Users/stapi/OneDrive/Desktop/GD32VW553/V1_MQTT_OK/GD32VW55X_Wifi_BLE_SDK/GD32VW55x_RELEASE_V1.0.2/MSDK/cloud/alicloud/src/services/awss\zconfig_vendor_common.c **** 
 271:C:/Users/stapi/OneDrive/Desktop/GD32VW553/V1_MQTT_OK/GD32VW55X_Wifi_BLE_SDK/GD32VW55x_RELEASE_V1.0.2/MSDK/cloud/alicloud/src/services/awss\zconfig_vendor_common.c ****     if (i == aws_chn_index) { // no need to switch channel.
 272:C:/Users/stapi/OneDrive/Desktop/GD32VW553/V1_MQTT_OK/GD32VW55X_Wifi_BLE_SDK/GD32VW55x_RELEASE_V1.0.2/MSDK/cloud/alicloud/src/services/awss\zconfig_vendor_common.c ****         return;
 273:C:/Users/stapi/OneDrive/Desktop/GD32VW553/V1_MQTT_OK/GD32VW55X_Wifi_BLE_SDK/GD32VW55x_RELEASE_V1.0.2/MSDK/cloud/alicloud/src/services/awss\zconfig_vendor_common.c ****     }
 274:C:/Users/stapi/OneDrive/Desktop/GD32VW553/V1_MQTT_OK/GD32VW55X_Wifi_BLE_SDK/GD32VW55x_RELEASE_V1.0.2/MSDK/cloud/alicloud/src/services/awss\zconfig_vendor_common.c **** 
 275:C:/Users/stapi/OneDrive/Desktop/GD32VW553/V1_MQTT_OK/GD32VW55X_Wifi_BLE_SDK/GD32VW55x_RELEASE_V1.0.2/MSDK/cloud/alicloud/src/services/awss\zconfig_vendor_common.c ****     aws_chn_index = i;
 276:C:/Users/stapi/OneDrive/Desktop/GD32VW553/V1_MQTT_OK/GD32VW55X_Wifi_BLE_SDK/GD32VW55x_RELEASE_V1.0.2/MSDK/cloud/alicloud/src/services/awss\zconfig_vendor_common.c ****     aws_locked_chn = channel;
 277:C:/Users/stapi/OneDrive/Desktop/GD32VW553/V1_MQTT_OK/GD32VW55X_Wifi_BLE_SDK/GD32VW55x_RELEASE_V1.0.2/MSDK/cloud/alicloud/src/services/awss\zconfig_vendor_common.c ****     aws_cur_chn = channel;
 278:C:/Users/stapi/OneDrive/Desktop/GD32VW553/V1_MQTT_OK/GD32VW55X_Wifi_BLE_SDK/GD32VW55x_RELEASE_V1.0.2/MSDK/cloud/alicloud/src/services/awss\zconfig_vendor_common.c ****     aws_chn_timestamp = os_get_time_ms();
 279:C:/Users/stapi/OneDrive/Desktop/GD32VW553/V1_MQTT_OK/GD32VW55X_Wifi_BLE_SDK/GD32VW55x_RELEASE_V1.0.2/MSDK/cloud/alicloud/src/services/awss\zconfig_vendor_common.c ****     if (aws_state == AWS_SCANNING) {
 280:C:/Users/stapi/OneDrive/Desktop/GD32VW553/V1_MQTT_OK/GD32VW55X_Wifi_BLE_SDK/GD32VW55x_RELEASE_V1.0.2/MSDK/cloud/alicloud/src/services/awss\zconfig_vendor_common.c ****         aws_state = AWS_CHN_LOCKED;
 281:C:/Users/stapi/OneDrive/Desktop/GD32VW553/V1_MQTT_OK/GD32VW55X_Wifi_BLE_SDK/GD32VW55x_RELEASE_V1.0.2/MSDK/cloud/alicloud/src/services/awss\zconfig_vendor_common.c ****     }
 282:C:/Users/stapi/OneDrive/Desktop/GD32VW553/V1_MQTT_OK/GD32VW55X_Wifi_BLE_SDK/GD32VW55x_RELEASE_V1.0.2/MSDK/cloud/alicloud/src/services/awss\zconfig_vendor_common.c ****     os_awss_switch_channel(channel, 0, NULL);
 283:C:/Users/stapi/OneDrive/Desktop/GD32VW553/V1_MQTT_OK/GD32VW55X_Wifi_BLE_SDK/GD32VW55x_RELEASE_V1.0.2/MSDK/cloud/alicloud/src/services/awss\zconfig_vendor_common.c **** 
 284:C:/Users/stapi/OneDrive/Desktop/GD32VW553/V1_MQTT_OK/GD32VW55X_Wifi_BLE_SDK/GD32VW55x_RELEASE_V1.0.2/MSDK/cloud/alicloud/src/services/awss\zconfig_vendor_common.c ****     awss_trace("adjust chan %d", channel);
 285:C:/Users/stapi/OneDrive/Desktop/GD32VW553/V1_MQTT_OK/GD32VW55X_Wifi_BLE_SDK/GD32VW55x_RELEASE_V1.0.2/MSDK/cloud/alicloud/src/services/awss\zconfig_vendor_common.c **** }
 286:C:/Users/stapi/OneDrive/Desktop/GD32VW553/V1_MQTT_OK/GD32VW55X_Wifi_BLE_SDK/GD32VW55x_RELEASE_V1.0.2/MSDK/cloud/alicloud/src/services/awss\zconfig_vendor_common.c **** 
 287:C:/Users/stapi/OneDrive/Desktop/GD32VW553/V1_MQTT_OK/GD32VW55X_Wifi_BLE_SDK/GD32VW55x_RELEASE_V1.0.2/MSDK/cloud/alicloud/src/services/awss\zconfig_vendor_common.c **** enum {
 288:C:/Users/stapi/OneDrive/Desktop/GD32VW553/V1_MQTT_OK/GD32VW55X_Wifi_BLE_SDK/GD32VW55x_RELEASE_V1.0.2/MSDK/cloud/alicloud/src/services/awss\zconfig_vendor_common.c ****     CHNSCAN_ONGOING,  /* no timeout, continue */
 289:C:/Users/stapi/OneDrive/Desktop/GD32VW553/V1_MQTT_OK/GD32VW55X_Wifi_BLE_SDK/GD32VW55x_RELEASE_V1.0.2/MSDK/cloud/alicloud/src/services/awss\zconfig_vendor_common.c ****     CHNSCAN_NEXT_CHN, /* should swith to next channel */
 290:C:/Users/stapi/OneDrive/Desktop/GD32VW553/V1_MQTT_OK/GD32VW55X_Wifi_BLE_SDK/GD32VW55x_RELEASE_V1.0.2/MSDK/cloud/alicloud/src/services/awss\zconfig_vendor_common.c ****     CHNSCAN_TIMEOUT   /* aws timeout */
 291:C:/Users/stapi/OneDrive/Desktop/GD32VW553/V1_MQTT_OK/GD32VW55X_Wifi_BLE_SDK/GD32VW55x_RELEASE_V1.0.2/MSDK/cloud/alicloud/src/services/awss\zconfig_vendor_common.c **** };
 292:C:/Users/stapi/OneDrive/Desktop/GD32VW553/V1_MQTT_OK/GD32VW55X_Wifi_BLE_SDK/GD32VW55x_RELEASE_V1.0.2/MSDK/cloud/alicloud/src/services/awss\zconfig_vendor_common.c **** 
 293:C:/Users/stapi/OneDrive/Desktop/GD32VW553/V1_MQTT_OK/GD32VW55X_Wifi_BLE_SDK/GD32VW55x_RELEASE_V1.0.2/MSDK/cloud/alicloud/src/services/awss\zconfig_vendor_common.c **** int aws_is_chnscan_timeout(void)
 294:C:/Users/stapi/OneDrive/Desktop/GD32VW553/V1_MQTT_OK/GD32VW55X_Wifi_BLE_SDK/GD32VW55x_RELEASE_V1.0.2/MSDK/cloud/alicloud/src/services/awss\zconfig_vendor_common.c **** {
 295:C:/Users/stapi/OneDrive/Desktop/GD32VW553/V1_MQTT_OK/GD32VW55X_Wifi_BLE_SDK/GD32VW55x_RELEASE_V1.0.2/MSDK/cloud/alicloud/src/services/awss\zconfig_vendor_common.c ****     if (aws_stop == AWS_STOPPING) {
 296:C:/Users/stapi/OneDrive/Desktop/GD32VW553/V1_MQTT_OK/GD32VW55X_Wifi_BLE_SDK/GD32VW55x_RELEASE_V1.0.2/MSDK/cloud/alicloud/src/services/awss\zconfig_vendor_common.c ****         awss_debug("aws will stop...");
 297:C:/Users/stapi/OneDrive/Desktop/GD32VW553/V1_MQTT_OK/GD32VW55X_Wifi_BLE_SDK/GD32VW55x_RELEASE_V1.0.2/MSDK/cloud/alicloud/src/services/awss\zconfig_vendor_common.c ****         return CHNSCAN_TIMEOUT;
 298:C:/Users/stapi/OneDrive/Desktop/GD32VW553/V1_MQTT_OK/GD32VW55X_Wifi_BLE_SDK/GD32VW55x_RELEASE_V1.0.2/MSDK/cloud/alicloud/src/services/awss\zconfig_vendor_common.c ****     }
 299:C:/Users/stapi/OneDrive/Desktop/GD32VW553/V1_MQTT_OK/GD32VW55X_Wifi_BLE_SDK/GD32VW55x_RELEASE_V1.0.2/MSDK/cloud/alicloud/src/services/awss\zconfig_vendor_common.c **** 
 300:C:/Users/stapi/OneDrive/Desktop/GD32VW553/V1_MQTT_OK/GD32VW55X_Wifi_BLE_SDK/GD32VW55x_RELEASE_V1.0.2/MSDK/cloud/alicloud/src/services/awss\zconfig_vendor_common.c ****     if (time_elapsed_ms_since(aws_chn_timestamp) > os_awss_get_channelscan_interval_ms()) {
 301:C:/Users/stapi/OneDrive/Desktop/GD32VW553/V1_MQTT_OK/GD32VW55X_Wifi_BLE_SDK/GD32VW55x_RELEASE_V1.0.2/MSDK/cloud/alicloud/src/services/awss\zconfig_vendor_common.c ****         if ((0 != os_awss_get_timeout_interval_ms()) &&
 302:C:/Users/stapi/OneDrive/Desktop/GD32VW553/V1_MQTT_OK/GD32VW55X_Wifi_BLE_SDK/GD32VW55x_RELEASE_V1.0.2/MSDK/cloud/alicloud/src/services/awss\zconfig_vendor_common.c ****             (time_elapsed_ms_since(aws_start_timestamp) > os_awss_get_timeout_interval_ms())) {
 303:C:/Users/stapi/OneDrive/Desktop/GD32VW553/V1_MQTT_OK/GD32VW55X_Wifi_BLE_SDK/GD32VW55x_RELEASE_V1.0.2/MSDK/cloud/alicloud/src/services/awss\zconfig_vendor_common.c ****             return CHNSCAN_TIMEOUT;
 304:C:/Users/stapi/OneDrive/Desktop/GD32VW553/V1_MQTT_OK/GD32VW55X_Wifi_BLE_SDK/GD32VW55x_RELEASE_V1.0.2/MSDK/cloud/alicloud/src/services/awss\zconfig_vendor_common.c ****         } else {
 305:C:/Users/stapi/OneDrive/Desktop/GD32VW553/V1_MQTT_OK/GD32VW55X_Wifi_BLE_SDK/GD32VW55x_RELEASE_V1.0.2/MSDK/cloud/alicloud/src/services/awss\zconfig_vendor_common.c ****             return CHNSCAN_NEXT_CHN;
 306:C:/Users/stapi/OneDrive/Desktop/GD32VW553/V1_MQTT_OK/GD32VW55X_Wifi_BLE_SDK/GD32VW55x_RELEASE_V1.0.2/MSDK/cloud/alicloud/src/services/awss\zconfig_vendor_common.c ****         }
 307:C:/Users/stapi/OneDrive/Desktop/GD32VW553/V1_MQTT_OK/GD32VW55X_Wifi_BLE_SDK/GD32VW55x_RELEASE_V1.0.2/MSDK/cloud/alicloud/src/services/awss\zconfig_vendor_common.c ****     }
 308:C:/Users/stapi/OneDrive/Desktop/GD32VW553/V1_MQTT_OK/GD32VW55X_Wifi_BLE_SDK/GD32VW55x_RELEASE_V1.0.2/MSDK/cloud/alicloud/src/services/awss\zconfig_vendor_common.c **** 
 309:C:/Users/stapi/OneDrive/Desktop/GD32VW553/V1_MQTT_OK/GD32VW55X_Wifi_BLE_SDK/GD32VW55x_RELEASE_V1.0.2/MSDK/cloud/alicloud/src/services/awss\zconfig_vendor_common.c ****     return CHNSCAN_ONGOING;
 310:C:/Users/stapi/OneDrive/Desktop/GD32VW553/V1_MQTT_OK/GD32VW55X_Wifi_BLE_SDK/GD32VW55x_RELEASE_V1.0.2/MSDK/cloud/alicloud/src/services/awss\zconfig_vendor_common.c **** }
 311:C:/Users/stapi/OneDrive/Desktop/GD32VW553/V1_MQTT_OK/GD32VW55X_Wifi_BLE_SDK/GD32VW55x_RELEASE_V1.0.2/MSDK/cloud/alicloud/src/services/awss\zconfig_vendor_common.c **** 
 312:C:/Users/stapi/OneDrive/Desktop/GD32VW553/V1_MQTT_OK/GD32VW55X_Wifi_BLE_SDK/GD32VW55x_RELEASE_V1.0.2/MSDK/cloud/alicloud/src/services/awss\zconfig_vendor_common.c **** int zconfig_add_active_channel(int channel)
 313:C:/Users/stapi/OneDrive/Desktop/GD32VW553/V1_MQTT_OK/GD32VW55X_Wifi_BLE_SDK/GD32VW55x_RELEASE_V1.0.2/MSDK/cloud/alicloud/src/services/awss\zconfig_vendor_common.c **** {
 314:C:/Users/stapi/OneDrive/Desktop/GD32VW553/V1_MQTT_OK/GD32VW55X_Wifi_BLE_SDK/GD32VW55x_RELEASE_V1.0.2/MSDK/cloud/alicloud/src/services/awss\zconfig_vendor_common.c ****     int fixed_channel_nums = sizeof(wlan_fixed_scanning_channels);
 315:C:/Users/stapi/OneDrive/Desktop/GD32VW553/V1_MQTT_OK/GD32VW55X_Wifi_BLE_SDK/GD32VW55x_RELEASE_V1.0.2/MSDK/cloud/alicloud/src/services/awss\zconfig_vendor_common.c **** 
 316:C:/Users/stapi/OneDrive/Desktop/GD32VW553/V1_MQTT_OK/GD32VW55X_Wifi_BLE_SDK/GD32VW55x_RELEASE_V1.0.2/MSDK/cloud/alicloud/src/services/awss\zconfig_vendor_common.c ****     if (!zconfig_is_valid_channel(channel)) {
 317:C:/Users/stapi/OneDrive/Desktop/GD32VW553/V1_MQTT_OK/GD32VW55X_Wifi_BLE_SDK/GD32VW55x_RELEASE_V1.0.2/MSDK/cloud/alicloud/src/services/awss\zconfig_vendor_common.c ****         return -1;
 318:C:/Users/stapi/OneDrive/Desktop/GD32VW553/V1_MQTT_OK/GD32VW55X_Wifi_BLE_SDK/GD32VW55x_RELEASE_V1.0.2/MSDK/cloud/alicloud/src/services/awss\zconfig_vendor_common.c ****     }
 319:C:/Users/stapi/OneDrive/Desktop/GD32VW553/V1_MQTT_OK/GD32VW55X_Wifi_BLE_SDK/GD32VW55x_RELEASE_V1.0.2/MSDK/cloud/alicloud/src/services/awss\zconfig_vendor_common.c **** 
 320:C:/Users/stapi/OneDrive/Desktop/GD32VW553/V1_MQTT_OK/GD32VW55X_Wifi_BLE_SDK/GD32VW55x_RELEASE_V1.0.2/MSDK/cloud/alicloud/src/services/awss\zconfig_vendor_common.c ****     aws_chn_list[fixed_channel_nums + channel] = channel;
 321:C:/Users/stapi/OneDrive/Desktop/GD32VW553/V1_MQTT_OK/GD32VW55X_Wifi_BLE_SDK/GD32VW55x_RELEASE_V1.0.2/MSDK/cloud/alicloud/src/services/awss\zconfig_vendor_common.c ****     return 0;
 322:C:/Users/stapi/OneDrive/Desktop/GD32VW553/V1_MQTT_OK/GD32VW55X_Wifi_BLE_SDK/GD32VW55x_RELEASE_V1.0.2/MSDK/cloud/alicloud/src/services/awss\zconfig_vendor_common.c **** }
 323:C:/Users/stapi/OneDrive/Desktop/GD32VW553/V1_MQTT_OK/GD32VW55X_Wifi_BLE_SDK/GD32VW55x_RELEASE_V1.0.2/MSDK/cloud/alicloud/src/services/awss\zconfig_vendor_common.c **** 
 324:C:/Users/stapi/OneDrive/Desktop/GD32VW553/V1_MQTT_OK/GD32VW55X_Wifi_BLE_SDK/GD32VW55x_RELEASE_V1.0.2/MSDK/cloud/alicloud/src/services/awss\zconfig_vendor_common.c **** /*
 325:C:/Users/stapi/OneDrive/Desktop/GD32VW553/V1_MQTT_OK/GD32VW55X_Wifi_BLE_SDK/GD32VW55x_RELEASE_V1.0.2/MSDK/cloud/alicloud/src/services/awss\zconfig_vendor_common.c ****  * platform like mc300,  depend on auth & encry type
 326:C:/Users/stapi/OneDrive/Desktop/GD32VW553/V1_MQTT_OK/GD32VW55X_Wifi_BLE_SDK/GD32VW55x_RELEASE_V1.0.2/MSDK/cloud/alicloud/src/services/awss\zconfig_vendor_common.c ****  * so keep scanning if auth & encry is incomplete
 327:C:/Users/stapi/OneDrive/Desktop/GD32VW553/V1_MQTT_OK/GD32VW55X_Wifi_BLE_SDK/GD32VW55x_RELEASE_V1.0.2/MSDK/cloud/alicloud/src/services/awss\zconfig_vendor_common.c ****  */
 328:C:/Users/stapi/OneDrive/Desktop/GD32VW553/V1_MQTT_OK/GD32VW55X_Wifi_BLE_SDK/GD32VW55x_RELEASE_V1.0.2/MSDK/cloud/alicloud/src/services/awss\zconfig_vendor_common.c **** int aws_force_scanning(void)
 329:C:/Users/stapi/OneDrive/Desktop/GD32VW553/V1_MQTT_OK/GD32VW55X_Wifi_BLE_SDK/GD32VW55x_RELEASE_V1.0.2/MSDK/cloud/alicloud/src/services/awss\zconfig_vendor_common.c **** {
 330:C:/Users/stapi/OneDrive/Desktop/GD32VW553/V1_MQTT_OK/GD32VW55X_Wifi_BLE_SDK/GD32VW55x_RELEASE_V1.0.2/MSDK/cloud/alicloud/src/services/awss\zconfig_vendor_common.c **** #ifdef WITH_AUTH_ENCRY
 331:C:/Users/stapi/OneDrive/Desktop/GD32VW553/V1_MQTT_OK/GD32VW55X_Wifi_BLE_SDK/GD32VW55x_RELEASE_V1.0.2/MSDK/cloud/alicloud/src/services/awss\zconfig_vendor_common.c ****     int timeout = sizeof(wlan_fixed_scanning_channels) / sizeof(uint8_t)
 332:C:/Users/stapi/OneDrive/Desktop/GD32VW553/V1_MQTT_OK/GD32VW55X_Wifi_BLE_SDK/GD32VW55x_RELEASE_V1.0.2/MSDK/cloud/alicloud/src/services/awss\zconfig_vendor_common.c ****                   * os_awss_get_timeout_interval_ms() * 2; /* 2 round */
 333:C:/Users/stapi/OneDrive/Desktop/GD32VW553/V1_MQTT_OK/GD32VW55X_Wifi_BLE_SDK/GD32VW55x_RELEASE_V1.0.2/MSDK/cloud/alicloud/src/services/awss\zconfig_vendor_common.c **** 
 334:C:/Users/stapi/OneDrive/Desktop/GD32VW553/V1_MQTT_OK/GD32VW55X_Wifi_BLE_SDK/GD32VW55x_RELEASE_V1.0.2/MSDK/cloud/alicloud/src/services/awss\zconfig_vendor_common.c ****     /* force scanning useful only when aws is success */
 335:C:/Users/stapi/OneDrive/Desktop/GD32VW553/V1_MQTT_OK/GD32VW55X_Wifi_BLE_SDK/GD32VW55x_RELEASE_V1.0.2/MSDK/cloud/alicloud/src/services/awss\zconfig_vendor_common.c ****     if (aws_state != AWS_SUCCESS) {
 336:C:/Users/stapi/OneDrive/Desktop/GD32VW553/V1_MQTT_OK/GD32VW55X_Wifi_BLE_SDK/GD32VW55x_RELEASE_V1.0.2/MSDK/cloud/alicloud/src/services/awss\zconfig_vendor_common.c ****         return 0;
 337:C:/Users/stapi/OneDrive/Desktop/GD32VW553/V1_MQTT_OK/GD32VW55X_Wifi_BLE_SDK/GD32VW55x_RELEASE_V1.0.2/MSDK/cloud/alicloud/src/services/awss\zconfig_vendor_common.c ****     }
 338:C:/Users/stapi/OneDrive/Desktop/GD32VW553/V1_MQTT_OK/GD32VW55X_Wifi_BLE_SDK/GD32VW55x_RELEASE_V1.0.2/MSDK/cloud/alicloud/src/services/awss\zconfig_vendor_common.c **** 
 339:C:/Users/stapi/OneDrive/Desktop/GD32VW553/V1_MQTT_OK/GD32VW55X_Wifi_BLE_SDK/GD32VW55x_RELEASE_V1.0.2/MSDK/cloud/alicloud/src/services/awss\zconfig_vendor_common.c ****     //channel scanning at most 2 round
 340:C:/Users/stapi/OneDrive/Desktop/GD32VW553/V1_MQTT_OK/GD32VW55X_Wifi_BLE_SDK/GD32VW55x_RELEASE_V1.0.2/MSDK/cloud/alicloud/src/services/awss\zconfig_vendor_common.c ****     if (time_elapsed_ms_since(aws_start_timestamp) >= timeout) {
 341:C:/Users/stapi/OneDrive/Desktop/GD32VW553/V1_MQTT_OK/GD32VW55X_Wifi_BLE_SDK/GD32VW55x_RELEASE_V1.0.2/MSDK/cloud/alicloud/src/services/awss\zconfig_vendor_common.c ****         return 0;//timeout
 342:C:/Users/stapi/OneDrive/Desktop/GD32VW553/V1_MQTT_OK/GD32VW55X_Wifi_BLE_SDK/GD32VW55x_RELEASE_V1.0.2/MSDK/cloud/alicloud/src/services/awss\zconfig_vendor_common.c ****     } else {
 343:C:/Users/stapi/OneDrive/Desktop/GD32VW553/V1_MQTT_OK/GD32VW55X_Wifi_BLE_SDK/GD32VW55x_RELEASE_V1.0.2/MSDK/cloud/alicloud/src/services/awss\zconfig_vendor_common.c ****         /*
 344:C:/Users/stapi/OneDrive/Desktop/GD32VW553/V1_MQTT_OK/GD32VW55X_Wifi_BLE_SDK/GD32VW55x_RELEASE_V1.0.2/MSDK/cloud/alicloud/src/services/awss\zconfig_vendor_common.c ****          * for platform which need auth & encry, retry to get auth info
 345:C:/Users/stapi/OneDrive/Desktop/GD32VW553/V1_MQTT_OK/GD32VW55X_Wifi_BLE_SDK/GD32VW55x_RELEASE_V1.0.2/MSDK/cloud/alicloud/src/services/awss\zconfig_vendor_common.c ****          */
 346:C:/Users/stapi/OneDrive/Desktop/GD32VW553/V1_MQTT_OK/GD32VW55X_Wifi_BLE_SDK/GD32VW55x_RELEASE_V1.0.2/MSDK/cloud/alicloud/src/services/awss\zconfig_vendor_common.c ****         int found = zconfig_get_auth_info(aws_result_ssid, aws_result_bssid,
 347:C:/Users/stapi/OneDrive/Desktop/GD32VW553/V1_MQTT_OK/GD32VW55X_Wifi_BLE_SDK/GD32VW55x_RELEASE_V1.0.2/MSDK/cloud/alicloud/src/services/awss\zconfig_vendor_common.c ****                                           &aws_result_auth, &aws_result_encry,
 348:C:/Users/stapi/OneDrive/Desktop/GD32VW553/V1_MQTT_OK/GD32VW55X_Wifi_BLE_SDK/GD32VW55x_RELEASE_V1.0.2/MSDK/cloud/alicloud/src/services/awss\zconfig_vendor_common.c ****                                           &aws_result_channel);
 349:C:/Users/stapi/OneDrive/Desktop/GD32VW553/V1_MQTT_OK/GD32VW55X_Wifi_BLE_SDK/GD32VW55x_RELEASE_V1.0.2/MSDK/cloud/alicloud/src/services/awss\zconfig_vendor_common.c ****         if (found) {
 350:C:/Users/stapi/OneDrive/Desktop/GD32VW553/V1_MQTT_OK/GD32VW55X_Wifi_BLE_SDK/GD32VW55x_RELEASE_V1.0.2/MSDK/cloud/alicloud/src/services/awss\zconfig_vendor_common.c ****             return 0;
 351:C:/Users/stapi/OneDrive/Desktop/GD32VW553/V1_MQTT_OK/GD32VW55X_Wifi_BLE_SDK/GD32VW55x_RELEASE_V1.0.2/MSDK/cloud/alicloud/src/services/awss\zconfig_vendor_common.c ****         } else {
 352:C:/Users/stapi/OneDrive/Desktop/GD32VW553/V1_MQTT_OK/GD32VW55X_Wifi_BLE_SDK/GD32VW55x_RELEASE_V1.0.2/MSDK/cloud/alicloud/src/services/awss\zconfig_vendor_common.c ****             return 1;    /* keep scanning */
 353:C:/Users/stapi/OneDrive/Desktop/GD32VW553/V1_MQTT_OK/GD32VW55X_Wifi_BLE_SDK/GD32VW55x_RELEASE_V1.0.2/MSDK/cloud/alicloud/src/services/awss\zconfig_vendor_common.c ****         }
 354:C:/Users/stapi/OneDrive/Desktop/GD32VW553/V1_MQTT_OK/GD32VW55X_Wifi_BLE_SDK/GD32VW55x_RELEASE_V1.0.2/MSDK/cloud/alicloud/src/services/awss\zconfig_vendor_common.c ****     }
 355:C:/Users/stapi/OneDrive/Desktop/GD32VW553/V1_MQTT_OK/GD32VW55X_Wifi_BLE_SDK/GD32VW55x_RELEASE_V1.0.2/MSDK/cloud/alicloud/src/services/awss\zconfig_vendor_common.c **** #else
 356:C:/Users/stapi/OneDrive/Desktop/GD32VW553/V1_MQTT_OK/GD32VW55X_Wifi_BLE_SDK/GD32VW55x_RELEASE_V1.0.2/MSDK/cloud/alicloud/src/services/awss\zconfig_vendor_common.c ****     //no need scanning a round
 357:C:/Users/stapi/OneDrive/Desktop/GD32VW553/V1_MQTT_OK/GD32VW55X_Wifi_BLE_SDK/GD32VW55x_RELEASE_V1.0.2/MSDK/cloud/alicloud/src/services/awss\zconfig_vendor_common.c ****     return 0;
 358:C:/Users/stapi/OneDrive/Desktop/GD32VW553/V1_MQTT_OK/GD32VW55X_Wifi_BLE_SDK/GD32VW55x_RELEASE_V1.0.2/MSDK/cloud/alicloud/src/services/awss\zconfig_vendor_common.c **** #endif
 359:C:/Users/stapi/OneDrive/Desktop/GD32VW553/V1_MQTT_OK/GD32VW55X_Wifi_BLE_SDK/GD32VW55x_RELEASE_V1.0.2/MSDK/cloud/alicloud/src/services/awss\zconfig_vendor_common.c **** }
 360:C:/Users/stapi/OneDrive/Desktop/GD32VW553/V1_MQTT_OK/GD32VW55X_Wifi_BLE_SDK/GD32VW55x_RELEASE_V1.0.2/MSDK/cloud/alicloud/src/services/awss\zconfig_vendor_common.c **** 
 361:C:/Users/stapi/OneDrive/Desktop/GD32VW553/V1_MQTT_OK/GD32VW55X_Wifi_BLE_SDK/GD32VW55x_RELEASE_V1.0.2/MSDK/cloud/alicloud/src/services/awss\zconfig_vendor_common.c **** #ifdef AWSS_SUPPORT_SMARTCONFIG_MCAST
 362:C:/Users/stapi/OneDrive/Desktop/GD32VW553/V1_MQTT_OK/GD32VW55X_Wifi_BLE_SDK/GD32VW55x_RELEASE_V1.0.2/MSDK/cloud/alicloud/src/services/awss\zconfig_vendor_common.c **** int wait_for_mcast_done = 0;
 363:C:/Users/stapi/OneDrive/Desktop/GD32VW553/V1_MQTT_OK/GD32VW55X_Wifi_BLE_SDK/GD32VW55x_RELEASE_V1.0.2/MSDK/cloud/alicloud/src/services/awss\zconfig_vendor_common.c **** int delay_p2p()
 364:C:/Users/stapi/OneDrive/Desktop/GD32VW553/V1_MQTT_OK/GD32VW55X_Wifi_BLE_SDK/GD32VW55x_RELEASE_V1.0.2/MSDK/cloud/alicloud/src/services/awss\zconfig_vendor_common.c **** {
 365:C:/Users/stapi/OneDrive/Desktop/GD32VW553/V1_MQTT_OK/GD32VW55X_Wifi_BLE_SDK/GD32VW55x_RELEASE_V1.0.2/MSDK/cloud/alicloud/src/services/awss\zconfig_vendor_common.c **** #define MCAST_LOCK_TIMEOUT  5000
 366:C:/Users/stapi/OneDrive/Desktop/GD32VW553/V1_MQTT_OK/GD32VW55X_Wifi_BLE_SDK/GD32VW55x_RELEASE_V1.0.2/MSDK/cloud/alicloud/src/services/awss\zconfig_vendor_common.c **** #define MCAST_DELAY_TIMEOUT 30000
 367:C:/Users/stapi/OneDrive/Desktop/GD32VW553/V1_MQTT_OK/GD32VW55X_Wifi_BLE_SDK/GD32VW55x_RELEASE_V1.0.2/MSDK/cloud/alicloud/src/services/awss\zconfig_vendor_common.c ****     extern int mcast_locked_channel;
 368:C:/Users/stapi/OneDrive/Desktop/GD32VW553/V1_MQTT_OK/GD32VW55X_Wifi_BLE_SDK/GD32VW55x_RELEASE_V1.0.2/MSDK/cloud/alicloud/src/services/awss\zconfig_vendor_common.c ****     /* 1. if p2p does not got anything, do nothing ---- return 0 */
 369:C:/Users/stapi/OneDrive/Desktop/GD32VW553/V1_MQTT_OK/GD32VW55X_Wifi_BLE_SDK/GD32VW55x_RELEASE_V1.0.2/MSDK/cloud/alicloud/src/services/awss\zconfig_vendor_common.c ****     if (0 == zc_got_ssid_passwd_from_p2p) {
 370:C:/Users/stapi/OneDrive/Desktop/GD32VW553/V1_MQTT_OK/GD32VW55X_Wifi_BLE_SDK/GD32VW55x_RELEASE_V1.0.2/MSDK/cloud/alicloud/src/services/awss\zconfig_vendor_common.c ****         return 0;
 371:C:/Users/stapi/OneDrive/Desktop/GD32VW553/V1_MQTT_OK/GD32VW55X_Wifi_BLE_SDK/GD32VW55x_RELEASE_V1.0.2/MSDK/cloud/alicloud/src/services/awss\zconfig_vendor_common.c ****     }
 372:C:/Users/stapi/OneDrive/Desktop/GD32VW553/V1_MQTT_OK/GD32VW55X_Wifi_BLE_SDK/GD32VW55x_RELEASE_V1.0.2/MSDK/cloud/alicloud/src/services/awss\zconfig_vendor_common.c **** 
 373:C:/Users/stapi/OneDrive/Desktop/GD32VW553/V1_MQTT_OK/GD32VW55X_Wifi_BLE_SDK/GD32VW55x_RELEASE_V1.0.2/MSDK/cloud/alicloud/src/services/awss\zconfig_vendor_common.c ****     /* record the 1st time p2p received */
 374:C:/Users/stapi/OneDrive/Desktop/GD32VW553/V1_MQTT_OK/GD32VW55X_Wifi_BLE_SDK/GD32VW55x_RELEASE_V1.0.2/MSDK/cloud/alicloud/src/services/awss\zconfig_vendor_common.c ****     if (0 == aws_p2p_received_timestamp) {
 375:C:/Users/stapi/OneDrive/Desktop/GD32VW553/V1_MQTT_OK/GD32VW55X_Wifi_BLE_SDK/GD32VW55x_RELEASE_V1.0.2/MSDK/cloud/alicloud/src/services/awss\zconfig_vendor_common.c ****         aws_p2p_received_timestamp = os_get_time_ms();
 376:C:/Users/stapi/OneDrive/Desktop/GD32VW553/V1_MQTT_OK/GD32VW55X_Wifi_BLE_SDK/GD32VW55x_RELEASE_V1.0.2/MSDK/cloud/alicloud/src/services/awss\zconfig_vendor_common.c ****     }
 377:C:/Users/stapi/OneDrive/Desktop/GD32VW553/V1_MQTT_OK/GD32VW55X_Wifi_BLE_SDK/GD32VW55x_RELEASE_V1.0.2/MSDK/cloud/alicloud/src/services/awss\zconfig_vendor_common.c **** 
 378:C:/Users/stapi/OneDrive/Desktop/GD32VW553/V1_MQTT_OK/GD32VW55X_Wifi_BLE_SDK/GD32VW55x_RELEASE_V1.0.2/MSDK/cloud/alicloud/src/services/awss\zconfig_vendor_common.c ****     /* check if we got mcast packs in 5s afterwards */
 379:C:/Users/stapi/OneDrive/Desktop/GD32VW553/V1_MQTT_OK/GD32VW55X_Wifi_BLE_SDK/GD32VW55x_RELEASE_V1.0.2/MSDK/cloud/alicloud/src/services/awss\zconfig_vendor_common.c ****     if (time_elapsed_ms_since(aws_p2p_received_timestamp) < MCAST_LOCK_TIMEOUT) {
 380:C:/Users/stapi/OneDrive/Desktop/GD32VW553/V1_MQTT_OK/GD32VW55X_Wifi_BLE_SDK/GD32VW55x_RELEASE_V1.0.2/MSDK/cloud/alicloud/src/services/awss\zconfig_vendor_common.c ****        awss_debug("p2p received time is %u, elapsed is %u", aws_p2p_received_timestamp, time_elapse
 381:C:/Users/stapi/OneDrive/Desktop/GD32VW553/V1_MQTT_OK/GD32VW55X_Wifi_BLE_SDK/GD32VW55x_RELEASE_V1.0.2/MSDK/cloud/alicloud/src/services/awss\zconfig_vendor_common.c ****         if (-1 != mcast_locked_channel) {
 382:C:/Users/stapi/OneDrive/Desktop/GD32VW553/V1_MQTT_OK/GD32VW55X_Wifi_BLE_SDK/GD32VW55x_RELEASE_V1.0.2/MSDK/cloud/alicloud/src/services/awss\zconfig_vendor_common.c ****             awss_debug("p2p wait for mcast");
 383:C:/Users/stapi/OneDrive/Desktop/GD32VW553/V1_MQTT_OK/GD32VW55X_Wifi_BLE_SDK/GD32VW55x_RELEASE_V1.0.2/MSDK/cloud/alicloud/src/services/awss\zconfig_vendor_common.c ****             wait_for_mcast_done = 1;
 384:C:/Users/stapi/OneDrive/Desktop/GD32VW553/V1_MQTT_OK/GD32VW55X_Wifi_BLE_SDK/GD32VW55x_RELEASE_V1.0.2/MSDK/cloud/alicloud/src/services/awss\zconfig_vendor_common.c ****         }
 385:C:/Users/stapi/OneDrive/Desktop/GD32VW553/V1_MQTT_OK/GD32VW55X_Wifi_BLE_SDK/GD32VW55x_RELEASE_V1.0.2/MSDK/cloud/alicloud/src/services/awss\zconfig_vendor_common.c ****         return 0;
 386:C:/Users/stapi/OneDrive/Desktop/GD32VW553/V1_MQTT_OK/GD32VW55X_Wifi_BLE_SDK/GD32VW55x_RELEASE_V1.0.2/MSDK/cloud/alicloud/src/services/awss\zconfig_vendor_common.c ****     }
 387:C:/Users/stapi/OneDrive/Desktop/GD32VW553/V1_MQTT_OK/GD32VW55X_Wifi_BLE_SDK/GD32VW55x_RELEASE_V1.0.2/MSDK/cloud/alicloud/src/services/awss\zconfig_vendor_common.c **** 
 388:C:/Users/stapi/OneDrive/Desktop/GD32VW553/V1_MQTT_OK/GD32VW55X_Wifi_BLE_SDK/GD32VW55x_RELEASE_V1.0.2/MSDK/cloud/alicloud/src/services/awss\zconfig_vendor_common.c ****     /* 2.if p2p got ssid/passwd, but failed to recived mcast in 5s, connnect ap directly */
 389:C:/Users/stapi/OneDrive/Desktop/GD32VW553/V1_MQTT_OK/GD32VW55X_Wifi_BLE_SDK/GD32VW55x_RELEASE_V1.0.2/MSDK/cloud/alicloud/src/services/awss\zconfig_vendor_common.c ****     if (0 == wait_for_mcast_done) {
 390:C:/Users/stapi/OneDrive/Desktop/GD32VW553/V1_MQTT_OK/GD32VW55X_Wifi_BLE_SDK/GD32VW55x_RELEASE_V1.0.2/MSDK/cloud/alicloud/src/services/awss\zconfig_vendor_common.c ****         zconfig_set_state(STATE_RCV_DONE, 1, 1);
 391:C:/Users/stapi/OneDrive/Desktop/GD32VW553/V1_MQTT_OK/GD32VW55X_Wifi_BLE_SDK/GD32VW55x_RELEASE_V1.0.2/MSDK/cloud/alicloud/src/services/awss\zconfig_vendor_common.c ****         awss_debug("switch to p2p in case 2\n");
 392:C:/Users/stapi/OneDrive/Desktop/GD32VW553/V1_MQTT_OK/GD32VW55X_Wifi_BLE_SDK/GD32VW55x_RELEASE_V1.0.2/MSDK/cloud/alicloud/src/services/awss\zconfig_vendor_common.c ****         return 1;
 393:C:/Users/stapi/OneDrive/Desktop/GD32VW553/V1_MQTT_OK/GD32VW55X_Wifi_BLE_SDK/GD32VW55x_RELEASE_V1.0.2/MSDK/cloud/alicloud/src/services/awss\zconfig_vendor_common.c ****     }
 394:C:/Users/stapi/OneDrive/Desktop/GD32VW553/V1_MQTT_OK/GD32VW55X_Wifi_BLE_SDK/GD32VW55x_RELEASE_V1.0.2/MSDK/cloud/alicloud/src/services/awss\zconfig_vendor_common.c **** 
 395:C:/Users/stapi/OneDrive/Desktop/GD32VW553/V1_MQTT_OK/GD32VW55X_Wifi_BLE_SDK/GD32VW55x_RELEASE_V1.0.2/MSDK/cloud/alicloud/src/services/awss\zconfig_vendor_common.c ****     /* 3.if p2p got ssid/passwd, and recived mcast in 5s, wait for 30s, in 30s do not triger p2p */
 396:C:/Users/stapi/OneDrive/Desktop/GD32VW553/V1_MQTT_OK/GD32VW55X_Wifi_BLE_SDK/GD32VW55x_RELEASE_V1.0.2/MSDK/cloud/alicloud/src/services/awss\zconfig_vendor_common.c ****     if (time_elapsed_ms_since(aws_p2p_received_timestamp) < MCAST_LOCK_TIMEOUT + MCAST_DELAY_TIMEOU
 397:C:/Users/stapi/OneDrive/Desktop/GD32VW553/V1_MQTT_OK/GD32VW55X_Wifi_BLE_SDK/GD32VW55x_RELEASE_V1.0.2/MSDK/cloud/alicloud/src/services/awss\zconfig_vendor_common.c ****         return 0;
 398:C:/Users/stapi/OneDrive/Desktop/GD32VW553/V1_MQTT_OK/GD32VW55X_Wifi_BLE_SDK/GD32VW55x_RELEASE_V1.0.2/MSDK/cloud/alicloud/src/services/awss\zconfig_vendor_common.c ****     }
 399:C:/Users/stapi/OneDrive/Desktop/GD32VW553/V1_MQTT_OK/GD32VW55X_Wifi_BLE_SDK/GD32VW55x_RELEASE_V1.0.2/MSDK/cloud/alicloud/src/services/awss\zconfig_vendor_common.c **** 
 400:C:/Users/stapi/OneDrive/Desktop/GD32VW553/V1_MQTT_OK/GD32VW55X_Wifi_BLE_SDK/GD32VW55x_RELEASE_V1.0.2/MSDK/cloud/alicloud/src/services/awss\zconfig_vendor_common.c ****     /* 4.if p2p got ssid/passwd, and recived mcast in 5s, wait for 30s, faild to to done mcast, con
 401:C:/Users/stapi/OneDrive/Desktop/GD32VW553/V1_MQTT_OK/GD32VW55X_Wifi_BLE_SDK/GD32VW55x_RELEASE_V1.0.2/MSDK/cloud/alicloud/src/services/awss\zconfig_vendor_common.c ****     zconfig_set_state(STATE_RCV_DONE, 1, 1);
 402:C:/Users/stapi/OneDrive/Desktop/GD32VW553/V1_MQTT_OK/GD32VW55X_Wifi_BLE_SDK/GD32VW55x_RELEASE_V1.0.2/MSDK/cloud/alicloud/src/services/awss\zconfig_vendor_common.c ****     awss_debug("switch to p2p in case 4\n");
 403:C:/Users/stapi/OneDrive/Desktop/GD32VW553/V1_MQTT_OK/GD32VW55X_Wifi_BLE_SDK/GD32VW55x_RELEASE_V1.0.2/MSDK/cloud/alicloud/src/services/awss\zconfig_vendor_common.c ****     return 1;
 404:C:/Users/stapi/OneDrive/Desktop/GD32VW553/V1_MQTT_OK/GD32VW55X_Wifi_BLE_SDK/GD32VW55x_RELEASE_V1.0.2/MSDK/cloud/alicloud/src/services/awss\zconfig_vendor_common.c **** }
 405:C:/Users/stapi/OneDrive/Desktop/GD32VW553/V1_MQTT_OK/GD32VW55X_Wifi_BLE_SDK/GD32VW55x_RELEASE_V1.0.2/MSDK/cloud/alicloud/src/services/awss\zconfig_vendor_common.c **** #endif
 406:C:/Users/stapi/OneDrive/Desktop/GD32VW553/V1_MQTT_OK/GD32VW55X_Wifi_BLE_SDK/GD32VW55x_RELEASE_V1.0.2/MSDK/cloud/alicloud/src/services/awss\zconfig_vendor_common.c **** 
 407:C:/Users/stapi/OneDrive/Desktop/GD32VW553/V1_MQTT_OK/GD32VW55X_Wifi_BLE_SDK/GD32VW55x_RELEASE_V1.0.2/MSDK/cloud/alicloud/src/services/awss\zconfig_vendor_common.c **** /*
 408:C:/Users/stapi/OneDrive/Desktop/GD32VW553/V1_MQTT_OK/GD32VW55X_Wifi_BLE_SDK/GD32VW55x_RELEASE_V1.0.2/MSDK/cloud/alicloud/src/services/awss\zconfig_vendor_common.c ****  * channel scanning/re-scanning control
 409:C:/Users/stapi/OneDrive/Desktop/GD32VW553/V1_MQTT_OK/GD32VW55X_Wifi_BLE_SDK/GD32VW55x_RELEASE_V1.0.2/MSDK/cloud/alicloud/src/services/awss\zconfig_vendor_common.c ****  * Note: 
 410:C:/Users/stapi/OneDrive/Desktop/GD32VW553/V1_MQTT_OK/GD32VW55X_Wifi_BLE_SDK/GD32VW55x_RELEASE_V1.0.2/MSDK/cloud/alicloud/src/services/awss\zconfig_vendor_common.c ****  * 
 411:C:/Users/stapi/OneDrive/Desktop/GD32VW553/V1_MQTT_OK/GD32VW55X_Wifi_BLE_SDK/GD32VW55x_RELEASE_V1.0.2/MSDK/cloud/alicloud/src/services/awss\zconfig_vendor_common.c ****  * --aws_switch_channel() 
 412:C:/Users/stapi/OneDrive/Desktop/GD32VW553/V1_MQTT_OK/GD32VW55X_Wifi_BLE_SDK/GD32VW55x_RELEASE_V1.0.2/MSDK/cloud/alicloud/src/services/awss\zconfig_vendor_common.c ****  * --zconfig_destroy()aws_main_thread_fun()
 413:C:/Users/stapi/OneDrive/Desktop/GD32VW553/V1_MQTT_OK/GD32VW55X_Wifi_BLE_SDK/GD32VW55x_RELEASE_V1.0.2/MSDK/cloud/alicloud/src/services/awss\zconfig_vendor_common.c ****  * linux/rtos
 414:C:/Users/stapi/OneDrive/Desktop/GD32VW553/V1_MQTT_OK/GD32VW55X_Wifi_BLE_SDK/GD32VW55x_RELEASE_V1.0.2/MSDK/cloud/alicloud/src/services/awss\zconfig_vendor_common.c ****  * --vendor_recv_80211_frame()rtoscallback
 415:C:/Users/stapi/OneDrive/Desktop/GD32VW553/V1_MQTT_OK/GD32VW55X_Wifi_BLE_SDK/GD32VW55x_RELEASE_V1.0.2/MSDK/cloud/alicloud/src/services/awss\zconfig_vendor_common.c ****  */
 416:C:/Users/stapi/OneDrive/Desktop/GD32VW553/V1_MQTT_OK/GD32VW55X_Wifi_BLE_SDK/GD32VW55x_RELEASE_V1.0.2/MSDK/cloud/alicloud/src/services/awss\zconfig_vendor_common.c **** void aws_main_thread_func(void)
 417:C:/Users/stapi/OneDrive/Desktop/GD32VW553/V1_MQTT_OK/GD32VW55X_Wifi_BLE_SDK/GD32VW55x_RELEASE_V1.0.2/MSDK/cloud/alicloud/src/services/awss\zconfig_vendor_common.c **** {
 418:C:/Users/stapi/OneDrive/Desktop/GD32VW553/V1_MQTT_OK/GD32VW55X_Wifi_BLE_SDK/GD32VW55x_RELEASE_V1.0.2/MSDK/cloud/alicloud/src/services/awss\zconfig_vendor_common.c ****     aws_start_timestamp = os_get_time_ms();
 419:C:/Users/stapi/OneDrive/Desktop/GD32VW553/V1_MQTT_OK/GD32VW55X_Wifi_BLE_SDK/GD32VW55x_RELEASE_V1.0.2/MSDK/cloud/alicloud/src/services/awss\zconfig_vendor_common.c **** 
 420:C:/Users/stapi/OneDrive/Desktop/GD32VW553/V1_MQTT_OK/GD32VW55X_Wifi_BLE_SDK/GD32VW55x_RELEASE_V1.0.2/MSDK/cloud/alicloud/src/services/awss\zconfig_vendor_common.c ****     /* channel switch init */
 421:C:/Users/stapi/OneDrive/Desktop/GD32VW553/V1_MQTT_OK/GD32VW55X_Wifi_BLE_SDK/GD32VW55x_RELEASE_V1.0.2/MSDK/cloud/alicloud/src/services/awss\zconfig_vendor_common.c ****     aws_switch_channel();
 422:C:/Users/stapi/OneDrive/Desktop/GD32VW553/V1_MQTT_OK/GD32VW55X_Wifi_BLE_SDK/GD32VW55x_RELEASE_V1.0.2/MSDK/cloud/alicloud/src/services/awss\zconfig_vendor_common.c **** 
 423:C:/Users/stapi/OneDrive/Desktop/GD32VW553/V1_MQTT_OK/GD32VW55X_Wifi_BLE_SDK/GD32VW55x_RELEASE_V1.0.2/MSDK/cloud/alicloud/src/services/awss\zconfig_vendor_common.c **** rescanning:
 424:C:/Users/stapi/OneDrive/Desktop/GD32VW553/V1_MQTT_OK/GD32VW55X_Wifi_BLE_SDK/GD32VW55x_RELEASE_V1.0.2/MSDK/cloud/alicloud/src/services/awss\zconfig_vendor_common.c ****     /****************************** enter awss scaning loop ******************************/
 425:C:/Users/stapi/OneDrive/Desktop/GD32VW553/V1_MQTT_OK/GD32VW55X_Wifi_BLE_SDK/GD32VW55x_RELEASE_V1.0.2/MSDK/cloud/alicloud/src/services/awss\zconfig_vendor_common.c ****     memset(zc_bssid, 0, ETH_ALEN);
 426:C:/Users/stapi/OneDrive/Desktop/GD32VW553/V1_MQTT_OK/GD32VW55X_Wifi_BLE_SDK/GD32VW55x_RELEASE_V1.0.2/MSDK/cloud/alicloud/src/services/awss\zconfig_vendor_common.c ****     while (aws_amend_dst_chan != 0 || aws_state == AWS_SCANNING || aws_force_scanning()) {
 427:C:/Users/stapi/OneDrive/Desktop/GD32VW553/V1_MQTT_OK/GD32VW55X_Wifi_BLE_SDK/GD32VW55x_RELEASE_V1.0.2/MSDK/cloud/alicloud/src/services/awss\zconfig_vendor_common.c ****         switch (aws_is_chnscan_timeout()) {
 428:C:/Users/stapi/OneDrive/Desktop/GD32VW553/V1_MQTT_OK/GD32VW55X_Wifi_BLE_SDK/GD32VW55x_RELEASE_V1.0.2/MSDK/cloud/alicloud/src/services/awss\zconfig_vendor_common.c ****             case CHNSCAN_ONGOING:
 429:C:/Users/stapi/OneDrive/Desktop/GD32VW553/V1_MQTT_OK/GD32VW55X_Wifi_BLE_SDK/GD32VW55x_RELEASE_V1.0.2/MSDK/cloud/alicloud/src/services/awss\zconfig_vendor_common.c ****                 break;
 430:C:/Users/stapi/OneDrive/Desktop/GD32VW553/V1_MQTT_OK/GD32VW55X_Wifi_BLE_SDK/GD32VW55x_RELEASE_V1.0.2/MSDK/cloud/alicloud/src/services/awss\zconfig_vendor_common.c ****             case CHNSCAN_NEXT_CHN:
 431:C:/Users/stapi/OneDrive/Desktop/GD32VW553/V1_MQTT_OK/GD32VW55X_Wifi_BLE_SDK/GD32VW55x_RELEASE_V1.0.2/MSDK/cloud/alicloud/src/services/awss\zconfig_vendor_common.c ****                 aws_switch_channel();
 432:C:/Users/stapi/OneDrive/Desktop/GD32VW553/V1_MQTT_OK/GD32VW55X_Wifi_BLE_SDK/GD32VW55x_RELEASE_V1.0.2/MSDK/cloud/alicloud/src/services/awss\zconfig_vendor_common.c ****                 break;
 433:C:/Users/stapi/OneDrive/Desktop/GD32VW553/V1_MQTT_OK/GD32VW55X_Wifi_BLE_SDK/GD32VW55x_RELEASE_V1.0.2/MSDK/cloud/alicloud/src/services/awss\zconfig_vendor_common.c ****             case CHNSCAN_TIMEOUT:               /* awss scan timeout(typical 10min) */
 434:C:/Users/stapi/OneDrive/Desktop/GD32VW553/V1_MQTT_OK/GD32VW55X_Wifi_BLE_SDK/GD32VW55x_RELEASE_V1.0.2/MSDK/cloud/alicloud/src/services/awss\zconfig_vendor_common.c ****                 goto timeout_scanning;
 435:C:/Users/stapi/OneDrive/Desktop/GD32VW553/V1_MQTT_OK/GD32VW55X_Wifi_BLE_SDK/GD32VW55x_RELEASE_V1.0.2/MSDK/cloud/alicloud/src/services/awss\zconfig_vendor_common.c ****             default:
 436:C:/Users/stapi/OneDrive/Desktop/GD32VW553/V1_MQTT_OK/GD32VW55X_Wifi_BLE_SDK/GD32VW55x_RELEASE_V1.0.2/MSDK/cloud/alicloud/src/services/awss\zconfig_vendor_common.c ****                 break;
 437:C:/Users/stapi/OneDrive/Desktop/GD32VW553/V1_MQTT_OK/GD32VW55X_Wifi_BLE_SDK/GD32VW55x_RELEASE_V1.0.2/MSDK/cloud/alicloud/src/services/awss\zconfig_vendor_common.c ****         }
 438:C:/Users/stapi/OneDrive/Desktop/GD32VW553/V1_MQTT_OK/GD32VW55X_Wifi_BLE_SDK/GD32VW55x_RELEASE_V1.0.2/MSDK/cloud/alicloud/src/services/awss\zconfig_vendor_common.c **** 
 439:C:/Users/stapi/OneDrive/Desktop/GD32VW553/V1_MQTT_OK/GD32VW55X_Wifi_BLE_SDK/GD32VW55x_RELEASE_V1.0.2/MSDK/cloud/alicloud/src/services/awss\zconfig_vendor_common.c ****         if (aws_stop == AWS_STOPPING) {         /* awss scan interrupt by user */
 440:C:/Users/stapi/OneDrive/Desktop/GD32VW553/V1_MQTT_OK/GD32VW55X_Wifi_BLE_SDK/GD32VW55x_RELEASE_V1.0.2/MSDK/cloud/alicloud/src/services/awss\zconfig_vendor_common.c ****             goto timeout_scanning;
 441:C:/Users/stapi/OneDrive/Desktop/GD32VW553/V1_MQTT_OK/GD32VW55X_Wifi_BLE_SDK/GD32VW55x_RELEASE_V1.0.2/MSDK/cloud/alicloud/src/services/awss\zconfig_vendor_common.c ****         }
 442:C:/Users/stapi/OneDrive/Desktop/GD32VW553/V1_MQTT_OK/GD32VW55X_Wifi_BLE_SDK/GD32VW55x_RELEASE_V1.0.2/MSDK/cloud/alicloud/src/services/awss\zconfig_vendor_common.c **** #ifdef AWSS_SUPPORT_SMARTCONFIG_MCAST
 443:C:/Users/stapi/OneDrive/Desktop/GD32VW553/V1_MQTT_OK/GD32VW55X_Wifi_BLE_SDK/GD32VW55x_RELEASE_V1.0.2/MSDK/cloud/alicloud/src/services/awss\zconfig_vendor_common.c ****         if (delay_p2p()) {
 444:C:/Users/stapi/OneDrive/Desktop/GD32VW553/V1_MQTT_OK/GD32VW55X_Wifi_BLE_SDK/GD32VW55x_RELEASE_V1.0.2/MSDK/cloud/alicloud/src/services/awss\zconfig_vendor_common.c ****             goto success;
 445:C:/Users/stapi/OneDrive/Desktop/GD32VW553/V1_MQTT_OK/GD32VW55X_Wifi_BLE_SDK/GD32VW55x_RELEASE_V1.0.2/MSDK/cloud/alicloud/src/services/awss\zconfig_vendor_common.c ****         }
 446:C:/Users/stapi/OneDrive/Desktop/GD32VW553/V1_MQTT_OK/GD32VW55X_Wifi_BLE_SDK/GD32VW55x_RELEASE_V1.0.2/MSDK/cloud/alicloud/src/services/awss\zconfig_vendor_common.c **** #endif
 447:C:/Users/stapi/OneDrive/Desktop/GD32VW553/V1_MQTT_OK/GD32VW55X_Wifi_BLE_SDK/GD32VW55x_RELEASE_V1.0.2/MSDK/cloud/alicloud/src/services/awss\zconfig_vendor_common.c **** 
 448:C:/Users/stapi/OneDrive/Desktop/GD32VW553/V1_MQTT_OK/GD32VW55X_Wifi_BLE_SDK/GD32VW55x_RELEASE_V1.0.2/MSDK/cloud/alicloud/src/services/awss\zconfig_vendor_common.c ****         if (aws_state != AWS_SCANNING) {
 449:C:/Users/stapi/OneDrive/Desktop/GD32VW553/V1_MQTT_OK/GD32VW55X_Wifi_BLE_SDK/GD32VW55x_RELEASE_V1.0.2/MSDK/cloud/alicloud/src/services/awss\zconfig_vendor_common.c ****             break;                              /* awss state change, awss success/chan lock */
 450:C:/Users/stapi/OneDrive/Desktop/GD32VW553/V1_MQTT_OK/GD32VW55X_Wifi_BLE_SDK/GD32VW55x_RELEASE_V1.0.2/MSDK/cloud/alicloud/src/services/awss\zconfig_vendor_common.c ****         }
 451:C:/Users/stapi/OneDrive/Desktop/GD32VW553/V1_MQTT_OK/GD32VW55X_Wifi_BLE_SDK/GD32VW55x_RELEASE_V1.0.2/MSDK/cloud/alicloud/src/services/awss\zconfig_vendor_common.c **** #ifdef AWSS_SUPPORT_SMARTCONFIG_NOTIFY
 452:C:/Users/stapi/OneDrive/Desktop/GD32VW553/V1_MQTT_OK/GD32VW55X_Wifi_BLE_SDK/GD32VW55x_RELEASE_V1.0.2/MSDK/cloud/alicloud/src/services/awss\zconfig_vendor_common.c ****         int interval = (os_awss_get_channelscan_interval_ms() + 2) / 4;
 453:C:/Users/stapi/OneDrive/Desktop/GD32VW553/V1_MQTT_OK/GD32VW55X_Wifi_BLE_SDK/GD32VW55x_RELEASE_V1.0.2/MSDK/cloud/alicloud/src/services/awss\zconfig_vendor_common.c **** #else
 454:C:/Users/stapi/OneDrive/Desktop/GD32VW553/V1_MQTT_OK/GD32VW55X_Wifi_BLE_SDK/GD32VW55x_RELEASE_V1.0.2/MSDK/cloud/alicloud/src/services/awss\zconfig_vendor_common.c ****         int interval = (os_awss_get_channelscan_interval_ms() + 2) / 3;
 455:C:/Users/stapi/OneDrive/Desktop/GD32VW553/V1_MQTT_OK/GD32VW55X_Wifi_BLE_SDK/GD32VW55x_RELEASE_V1.0.2/MSDK/cloud/alicloud/src/services/awss\zconfig_vendor_common.c **** #endif
 456:C:/Users/stapi/OneDrive/Desktop/GD32VW553/V1_MQTT_OK/GD32VW55X_Wifi_BLE_SDK/GD32VW55x_RELEASE_V1.0.2/MSDK/cloud/alicloud/src/services/awss\zconfig_vendor_common.c ****         if (interval < 1) {
 457:C:/Users/stapi/OneDrive/Desktop/GD32VW553/V1_MQTT_OK/GD32VW55X_Wifi_BLE_SDK/GD32VW55x_RELEASE_V1.0.2/MSDK/cloud/alicloud/src/services/awss\zconfig_vendor_common.c ****             interval = 1;
 458:C:/Users/stapi/OneDrive/Desktop/GD32VW553/V1_MQTT_OK/GD32VW55X_Wifi_BLE_SDK/GD32VW55x_RELEASE_V1.0.2/MSDK/cloud/alicloud/src/services/awss\zconfig_vendor_common.c ****         }
 459:C:/Users/stapi/OneDrive/Desktop/GD32VW553/V1_MQTT_OK/GD32VW55X_Wifi_BLE_SDK/GD32VW55x_RELEASE_V1.0.2/MSDK/cloud/alicloud/src/services/awss\zconfig_vendor_common.c **** 
 460:C:/Users/stapi/OneDrive/Desktop/GD32VW553/V1_MQTT_OK/GD32VW55X_Wifi_BLE_SDK/GD32VW55x_RELEASE_V1.0.2/MSDK/cloud/alicloud/src/services/awss\zconfig_vendor_common.c ****         /* 80211 frame handled by callback */
 461:C:/Users/stapi/OneDrive/Desktop/GD32VW553/V1_MQTT_OK/GD32VW55X_Wifi_BLE_SDK/GD32VW55x_RELEASE_V1.0.2/MSDK/cloud/alicloud/src/services/awss\zconfig_vendor_common.c ****         os_msleep(interval);
 462:C:/Users/stapi/OneDrive/Desktop/GD32VW553/V1_MQTT_OK/GD32VW55X_Wifi_BLE_SDK/GD32VW55x_RELEASE_V1.0.2/MSDK/cloud/alicloud/src/services/awss\zconfig_vendor_common.c **** #ifndef AWSS_DISABLE_ENROLLEE
 463:C:/Users/stapi/OneDrive/Desktop/GD32VW553/V1_MQTT_OK/GD32VW55X_Wifi_BLE_SDK/GD32VW55x_RELEASE_V1.0.2/MSDK/cloud/alicloud/src/services/awss\zconfig_vendor_common.c ****         awss_enrollee_broadcast_info();
 464:C:/Users/stapi/OneDrive/Desktop/GD32VW553/V1_MQTT_OK/GD32VW55X_Wifi_BLE_SDK/GD32VW55x_RELEASE_V1.0.2/MSDK/cloud/alicloud/src/services/awss\zconfig_vendor_common.c **** #endif
 465:C:/Users/stapi/OneDrive/Desktop/GD32VW553/V1_MQTT_OK/GD32VW55X_Wifi_BLE_SDK/GD32VW55x_RELEASE_V1.0.2/MSDK/cloud/alicloud/src/services/awss\zconfig_vendor_common.c ****         os_msleep(interval);
 466:C:/Users/stapi/OneDrive/Desktop/GD32VW553/V1_MQTT_OK/GD32VW55X_Wifi_BLE_SDK/GD32VW55x_RELEASE_V1.0.2/MSDK/cloud/alicloud/src/services/awss\zconfig_vendor_common.c **** #ifdef AWSS_SUPPORT_ADHA
 467:C:/Users/stapi/OneDrive/Desktop/GD32VW553/V1_MQTT_OK/GD32VW55X_Wifi_BLE_SDK/GD32VW55x_RELEASE_V1.0.2/MSDK/cloud/alicloud/src/services/awss\zconfig_vendor_common.c ****         aws_send_adha_probe_req();
 468:C:/Users/stapi/OneDrive/Desktop/GD32VW553/V1_MQTT_OK/GD32VW55X_Wifi_BLE_SDK/GD32VW55x_RELEASE_V1.0.2/MSDK/cloud/alicloud/src/services/awss\zconfig_vendor_common.c **** #endif
 469:C:/Users/stapi/OneDrive/Desktop/GD32VW553/V1_MQTT_OK/GD32VW55X_Wifi_BLE_SDK/GD32VW55x_RELEASE_V1.0.2/MSDK/cloud/alicloud/src/services/awss\zconfig_vendor_common.c ****         os_msleep(interval);
 470:C:/Users/stapi/OneDrive/Desktop/GD32VW553/V1_MQTT_OK/GD32VW55X_Wifi_BLE_SDK/GD32VW55x_RELEASE_V1.0.2/MSDK/cloud/alicloud/src/services/awss\zconfig_vendor_common.c **** #ifdef AWSS_SUPPORT_SMARTCONFIG_NOTIFY
 471:C:/Users/stapi/OneDrive/Desktop/GD32VW553/V1_MQTT_OK/GD32VW55X_Wifi_BLE_SDK/GD32VW55x_RELEASE_V1.0.2/MSDK/cloud/alicloud/src/services/awss\zconfig_vendor_common.c ****         aws_send_info_notify();
 472:C:/Users/stapi/OneDrive/Desktop/GD32VW553/V1_MQTT_OK/GD32VW55X_Wifi_BLE_SDK/GD32VW55x_RELEASE_V1.0.2/MSDK/cloud/alicloud/src/services/awss\zconfig_vendor_common.c ****         os_msleep(interval);
 473:C:/Users/stapi/OneDrive/Desktop/GD32VW553/V1_MQTT_OK/GD32VW55X_Wifi_BLE_SDK/GD32VW55x_RELEASE_V1.0.2/MSDK/cloud/alicloud/src/services/awss\zconfig_vendor_common.c **** #endif
 474:C:/Users/stapi/OneDrive/Desktop/GD32VW553/V1_MQTT_OK/GD32VW55X_Wifi_BLE_SDK/GD32VW55x_RELEASE_V1.0.2/MSDK/cloud/alicloud/src/services/awss\zconfig_vendor_common.c **** #ifdef AWSS_SUPPORT_AHA
 475:C:/Users/stapi/OneDrive/Desktop/GD32VW553/V1_MQTT_OK/GD32VW55X_Wifi_BLE_SDK/GD32VW55x_RELEASE_V1.0.2/MSDK/cloud/alicloud/src/services/awss\zconfig_vendor_common.c ****         aws_send_aha_probe_req();
 476:C:/Users/stapi/OneDrive/Desktop/GD32VW553/V1_MQTT_OK/GD32VW55X_Wifi_BLE_SDK/GD32VW55x_RELEASE_V1.0.2/MSDK/cloud/alicloud/src/services/awss\zconfig_vendor_common.c **** #endif
 477:C:/Users/stapi/OneDrive/Desktop/GD32VW553/V1_MQTT_OK/GD32VW55X_Wifi_BLE_SDK/GD32VW55x_RELEASE_V1.0.2/MSDK/cloud/alicloud/src/services/awss\zconfig_vendor_common.c ****     }
 478:C:/Users/stapi/OneDrive/Desktop/GD32VW553/V1_MQTT_OK/GD32VW55X_Wifi_BLE_SDK/GD32VW55x_RELEASE_V1.0.2/MSDK/cloud/alicloud/src/services/awss\zconfig_vendor_common.c ****     /****************************** end of awss scaning loop ******************************/
 479:C:/Users/stapi/OneDrive/Desktop/GD32VW553/V1_MQTT_OK/GD32VW55X_Wifi_BLE_SDK/GD32VW55x_RELEASE_V1.0.2/MSDK/cloud/alicloud/src/services/awss\zconfig_vendor_common.c **** 
 480:C:/Users/stapi/OneDrive/Desktop/GD32VW553/V1_MQTT_OK/GD32VW55X_Wifi_BLE_SDK/GD32VW55x_RELEASE_V1.0.2/MSDK/cloud/alicloud/src/services/awss\zconfig_vendor_common.c ****     // channel locked processing
 481:C:/Users/stapi/OneDrive/Desktop/GD32VW553/V1_MQTT_OK/GD32VW55X_Wifi_BLE_SDK/GD32VW55x_RELEASE_V1.0.2/MSDK/cloud/alicloud/src/services/awss\zconfig_vendor_common.c ****     awss_debug("[channel scanning] %d ms",
 482:C:/Users/stapi/OneDrive/Desktop/GD32VW553/V1_MQTT_OK/GD32VW55X_Wifi_BLE_SDK/GD32VW55x_RELEASE_V1.0.2/MSDK/cloud/alicloud/src/services/awss\zconfig_vendor_common.c ****                time_elapsed_ms_since(aws_start_timestamp));
 483:C:/Users/stapi/OneDrive/Desktop/GD32VW553/V1_MQTT_OK/GD32VW55X_Wifi_BLE_SDK/GD32VW55x_RELEASE_V1.0.2/MSDK/cloud/alicloud/src/services/awss\zconfig_vendor_common.c ****     /*
 484:C:/Users/stapi/OneDrive/Desktop/GD32VW553/V1_MQTT_OK/GD32VW55X_Wifi_BLE_SDK/GD32VW55x_RELEASE_V1.0.2/MSDK/cloud/alicloud/src/services/awss\zconfig_vendor_common.c ****      * make sure switch to locked channel,
 485:C:/Users/stapi/OneDrive/Desktop/GD32VW553/V1_MQTT_OK/GD32VW55X_Wifi_BLE_SDK/GD32VW55x_RELEASE_V1.0.2/MSDK/cloud/alicloud/src/services/awss\zconfig_vendor_common.c ****      * in case of inconsistent with aws_cur_chn
 486:C:/Users/stapi/OneDrive/Desktop/GD32VW553/V1_MQTT_OK/GD32VW55X_Wifi_BLE_SDK/GD32VW55x_RELEASE_V1.0.2/MSDK/cloud/alicloud/src/services/awss\zconfig_vendor_common.c ****      */
 487:C:/Users/stapi/OneDrive/Desktop/GD32VW553/V1_MQTT_OK/GD32VW55X_Wifi_BLE_SDK/GD32VW55x_RELEASE_V1.0.2/MSDK/cloud/alicloud/src/services/awss\zconfig_vendor_common.c **** #ifdef AWSS_SUPPORT_APLIST
 488:C:/Users/stapi/OneDrive/Desktop/GD32VW553/V1_MQTT_OK/GD32VW55X_Wifi_BLE_SDK/GD32VW55x_RELEASE_V1.0.2/MSDK/cloud/alicloud/src/services/awss\zconfig_vendor_common.c ****     aws_try_adjust_chan();
 489:C:/Users/stapi/OneDrive/Desktop/GD32VW553/V1_MQTT_OK/GD32VW55X_Wifi_BLE_SDK/GD32VW55x_RELEASE_V1.0.2/MSDK/cloud/alicloud/src/services/awss\zconfig_vendor_common.c **** #endif
 490:C:/Users/stapi/OneDrive/Desktop/GD32VW553/V1_MQTT_OK/GD32VW55X_Wifi_BLE_SDK/GD32VW55x_RELEASE_V1.0.2/MSDK/cloud/alicloud/src/services/awss\zconfig_vendor_common.c ****     awss_debug("final channel %d", aws_locked_chn);
 491:C:/Users/stapi/OneDrive/Desktop/GD32VW553/V1_MQTT_OK/GD32VW55X_Wifi_BLE_SDK/GD32VW55x_RELEASE_V1.0.2/MSDK/cloud/alicloud/src/services/awss\zconfig_vendor_common.c **** 
 492:C:/Users/stapi/OneDrive/Desktop/GD32VW553/V1_MQTT_OK/GD32VW55X_Wifi_BLE_SDK/GD32VW55x_RELEASE_V1.0.2/MSDK/cloud/alicloud/src/services/awss\zconfig_vendor_common.c ****     /****************************** enter chan lock process loop ******************************/
 493:C:/Users/stapi/OneDrive/Desktop/GD32VW553/V1_MQTT_OK/GD32VW55X_Wifi_BLE_SDK/GD32VW55x_RELEASE_V1.0.2/MSDK/cloud/alicloud/src/services/awss\zconfig_vendor_common.c ****     while (aws_state != AWS_SUCCESS) {
 494:C:/Users/stapi/OneDrive/Desktop/GD32VW553/V1_MQTT_OK/GD32VW55X_Wifi_BLE_SDK/GD32VW55x_RELEASE_V1.0.2/MSDK/cloud/alicloud/src/services/awss\zconfig_vendor_common.c ****         /* 80211 frame handled by callback */
 495:C:/Users/stapi/OneDrive/Desktop/GD32VW553/V1_MQTT_OK/GD32VW55X_Wifi_BLE_SDK/GD32VW55x_RELEASE_V1.0.2/MSDK/cloud/alicloud/src/services/awss\zconfig_vendor_common.c ****         os_msleep(300);
 496:C:/Users/stapi/OneDrive/Desktop/GD32VW553/V1_MQTT_OK/GD32VW55X_Wifi_BLE_SDK/GD32VW55x_RELEASE_V1.0.2/MSDK/cloud/alicloud/src/services/awss\zconfig_vendor_common.c **** #ifdef AWSS_SUPPORT_SMARTCONFIG_MCAST
 497:C:/Users/stapi/OneDrive/Desktop/GD32VW553/V1_MQTT_OK/GD32VW55X_Wifi_BLE_SDK/GD32VW55x_RELEASE_V1.0.2/MSDK/cloud/alicloud/src/services/awss\zconfig_vendor_common.c ****         if (delay_p2p()) {
 498:C:/Users/stapi/OneDrive/Desktop/GD32VW553/V1_MQTT_OK/GD32VW55X_Wifi_BLE_SDK/GD32VW55x_RELEASE_V1.0.2/MSDK/cloud/alicloud/src/services/awss\zconfig_vendor_common.c ****             goto success;
 499:C:/Users/stapi/OneDrive/Desktop/GD32VW553/V1_MQTT_OK/GD32VW55X_Wifi_BLE_SDK/GD32VW55x_RELEASE_V1.0.2/MSDK/cloud/alicloud/src/services/awss\zconfig_vendor_common.c ****         }
 500:C:/Users/stapi/OneDrive/Desktop/GD32VW553/V1_MQTT_OK/GD32VW55X_Wifi_BLE_SDK/GD32VW55x_RELEASE_V1.0.2/MSDK/cloud/alicloud/src/services/awss\zconfig_vendor_common.c **** #endif
 501:C:/Users/stapi/OneDrive/Desktop/GD32VW553/V1_MQTT_OK/GD32VW55X_Wifi_BLE_SDK/GD32VW55x_RELEASE_V1.0.2/MSDK/cloud/alicloud/src/services/awss\zconfig_vendor_common.c ****         if (aws_stop == AWS_STOPPING) {
 502:C:/Users/stapi/OneDrive/Desktop/GD32VW553/V1_MQTT_OK/GD32VW55X_Wifi_BLE_SDK/GD32VW55x_RELEASE_V1.0.2/MSDK/cloud/alicloud/src/services/awss\zconfig_vendor_common.c ****             goto timeout_recving;               /* awss scan interrupt by user */
 503:C:/Users/stapi/OneDrive/Desktop/GD32VW553/V1_MQTT_OK/GD32VW55X_Wifi_BLE_SDK/GD32VW55x_RELEASE_V1.0.2/MSDK/cloud/alicloud/src/services/awss\zconfig_vendor_common.c ****         }
 504:C:/Users/stapi/OneDrive/Desktop/GD32VW553/V1_MQTT_OK/GD32VW55X_Wifi_BLE_SDK/GD32VW55x_RELEASE_V1.0.2/MSDK/cloud/alicloud/src/services/awss\zconfig_vendor_common.c **** #ifdef AWSS_SUPPORT_APLIST
 505:C:/Users/stapi/OneDrive/Desktop/GD32VW553/V1_MQTT_OK/GD32VW55X_Wifi_BLE_SDK/GD32VW55x_RELEASE_V1.0.2/MSDK/cloud/alicloud/src/services/awss\zconfig_vendor_common.c ****         aws_try_adjust_chan();
 506:C:/Users/stapi/OneDrive/Desktop/GD32VW553/V1_MQTT_OK/GD32VW55X_Wifi_BLE_SDK/GD32VW55x_RELEASE_V1.0.2/MSDK/cloud/alicloud/src/services/awss\zconfig_vendor_common.c **** #endif
 507:C:/Users/stapi/OneDrive/Desktop/GD32VW553/V1_MQTT_OK/GD32VW55X_Wifi_BLE_SDK/GD32VW55x_RELEASE_V1.0.2/MSDK/cloud/alicloud/src/services/awss\zconfig_vendor_common.c ****         if (aws_is_chnscan_timeout() == CHNSCAN_TIMEOUT) {
 508:C:/Users/stapi/OneDrive/Desktop/GD32VW553/V1_MQTT_OK/GD32VW55X_Wifi_BLE_SDK/GD32VW55x_RELEASE_V1.0.2/MSDK/cloud/alicloud/src/services/awss\zconfig_vendor_common.c ****             goto timeout_recving;               /* awss scan timeout(typical 10min) */
 509:C:/Users/stapi/OneDrive/Desktop/GD32VW553/V1_MQTT_OK/GD32VW55X_Wifi_BLE_SDK/GD32VW55x_RELEASE_V1.0.2/MSDK/cloud/alicloud/src/services/awss\zconfig_vendor_common.c ****         }
 510:C:/Users/stapi/OneDrive/Desktop/GD32VW553/V1_MQTT_OK/GD32VW55X_Wifi_BLE_SDK/GD32VW55x_RELEASE_V1.0.2/MSDK/cloud/alicloud/src/services/awss\zconfig_vendor_common.c ****         if (aws_state == AWS_SCANNING) {
 511:C:/Users/stapi/OneDrive/Desktop/GD32VW553/V1_MQTT_OK/GD32VW55X_Wifi_BLE_SDK/GD32VW55x_RELEASE_V1.0.2/MSDK/cloud/alicloud/src/services/awss\zconfig_vendor_common.c ****             awss_debug("channel rescanning...");
 512:C:/Users/stapi/OneDrive/Desktop/GD32VW553/V1_MQTT_OK/GD32VW55X_Wifi_BLE_SDK/GD32VW55x_RELEASE_V1.0.2/MSDK/cloud/alicloud/src/services/awss\zconfig_vendor_common.c ****             if (zconfig_data != NULL) {
 513:C:/Users/stapi/OneDrive/Desktop/GD32VW553/V1_MQTT_OK/GD32VW55X_Wifi_BLE_SDK/GD32VW55x_RELEASE_V1.0.2/MSDK/cloud/alicloud/src/services/awss\zconfig_vendor_common.c ****                 void *temp_mutex = zc_mutex;
 514:C:/Users/stapi/OneDrive/Desktop/GD32VW553/V1_MQTT_OK/GD32VW55X_Wifi_BLE_SDK/GD32VW55x_RELEASE_V1.0.2/MSDK/cloud/alicloud/src/services/awss\zconfig_vendor_common.c ****                 memset(zconfig_data, 0, sizeof(struct zconfig_data));
 515:C:/Users/stapi/OneDrive/Desktop/GD32VW553/V1_MQTT_OK/GD32VW55X_Wifi_BLE_SDK/GD32VW55x_RELEASE_V1.0.2/MSDK/cloud/alicloud/src/services/awss\zconfig_vendor_common.c ****                 zc_mutex = temp_mutex;
 516:C:/Users/stapi/OneDrive/Desktop/GD32VW553/V1_MQTT_OK/GD32VW55X_Wifi_BLE_SDK/GD32VW55x_RELEASE_V1.0.2/MSDK/cloud/alicloud/src/services/awss\zconfig_vendor_common.c ****             } else {
 517:C:/Users/stapi/OneDrive/Desktop/GD32VW553/V1_MQTT_OK/GD32VW55X_Wifi_BLE_SDK/GD32VW55x_RELEASE_V1.0.2/MSDK/cloud/alicloud/src/services/awss\zconfig_vendor_common.c ****                 aws_stop = AWS_STOPPING;
 518:C:/Users/stapi/OneDrive/Desktop/GD32VW553/V1_MQTT_OK/GD32VW55X_Wifi_BLE_SDK/GD32VW55x_RELEASE_V1.0.2/MSDK/cloud/alicloud/src/services/awss\zconfig_vendor_common.c ****                 goto timeout_recving;           /* awss memory exception, interrupt and exit */
 519:C:/Users/stapi/OneDrive/Desktop/GD32VW553/V1_MQTT_OK/GD32VW55X_Wifi_BLE_SDK/GD32VW55x_RELEASE_V1.0.2/MSDK/cloud/alicloud/src/services/awss\zconfig_vendor_common.c ****             }
 520:C:/Users/stapi/OneDrive/Desktop/GD32VW553/V1_MQTT_OK/GD32VW55X_Wifi_BLE_SDK/GD32VW55x_RELEASE_V1.0.2/MSDK/cloud/alicloud/src/services/awss\zconfig_vendor_common.c ****             goto rescanning;                    /* re-enter awss scaning loop */
 521:C:/Users/stapi/OneDrive/Desktop/GD32VW553/V1_MQTT_OK/GD32VW55X_Wifi_BLE_SDK/GD32VW55x_RELEASE_V1.0.2/MSDK/cloud/alicloud/src/services/awss\zconfig_vendor_common.c ****         }
 522:C:/Users/stapi/OneDrive/Desktop/GD32VW553/V1_MQTT_OK/GD32VW55X_Wifi_BLE_SDK/GD32VW55x_RELEASE_V1.0.2/MSDK/cloud/alicloud/src/services/awss\zconfig_vendor_common.c ****     }
 523:C:/Users/stapi/OneDrive/Desktop/GD32VW553/V1_MQTT_OK/GD32VW55X_Wifi_BLE_SDK/GD32VW55x_RELEASE_V1.0.2/MSDK/cloud/alicloud/src/services/awss\zconfig_vendor_common.c ****     /****************************** end of chan lock process loop ******************************/
 524:C:/Users/stapi/OneDrive/Desktop/GD32VW553/V1_MQTT_OK/GD32VW55X_Wifi_BLE_SDK/GD32VW55x_RELEASE_V1.0.2/MSDK/cloud/alicloud/src/services/awss\zconfig_vendor_common.c **** 
 525:C:/Users/stapi/OneDrive/Desktop/GD32VW553/V1_MQTT_OK/GD32VW55X_Wifi_BLE_SDK/GD32VW55x_RELEASE_V1.0.2/MSDK/cloud/alicloud/src/services/awss\zconfig_vendor_common.c ****     // awss data recieved success
 526:C:/Users/stapi/OneDrive/Desktop/GD32VW553/V1_MQTT_OK/GD32VW55X_Wifi_BLE_SDK/GD32VW55x_RELEASE_V1.0.2/MSDK/cloud/alicloud/src/services/awss\zconfig_vendor_common.c ****     awss_debug("[channel recving] %d ms", time_elapsed_ms_since(aws_start_timestamp));
 527:C:/Users/stapi/OneDrive/Desktop/GD32VW553/V1_MQTT_OK/GD32VW55X_Wifi_BLE_SDK/GD32VW55x_RELEASE_V1.0.2/MSDK/cloud/alicloud/src/services/awss\zconfig_vendor_common.c ****     goto success;
 528:C:/Users/stapi/OneDrive/Desktop/GD32VW553/V1_MQTT_OK/GD32VW55X_Wifi_BLE_SDK/GD32VW55x_RELEASE_V1.0.2/MSDK/cloud/alicloud/src/services/awss\zconfig_vendor_common.c **** 
 529:C:/Users/stapi/OneDrive/Desktop/GD32VW553/V1_MQTT_OK/GD32VW55X_Wifi_BLE_SDK/GD32VW55x_RELEASE_V1.0.2/MSDK/cloud/alicloud/src/services/awss\zconfig_vendor_common.c **** timeout_scanning:
 530:C:/Users/stapi/OneDrive/Desktop/GD32VW553/V1_MQTT_OK/GD32VW55X_Wifi_BLE_SDK/GD32VW55x_RELEASE_V1.0.2/MSDK/cloud/alicloud/src/services/awss\zconfig_vendor_common.c ****     awss_debug("aws timeout scanning!");
 531:C:/Users/stapi/OneDrive/Desktop/GD32VW553/V1_MQTT_OK/GD32VW55X_Wifi_BLE_SDK/GD32VW55x_RELEASE_V1.0.2/MSDK/cloud/alicloud/src/services/awss\zconfig_vendor_common.c **** timeout_recving:
 532:C:/Users/stapi/OneDrive/Desktop/GD32VW553/V1_MQTT_OK/GD32VW55X_Wifi_BLE_SDK/GD32VW55x_RELEASE_V1.0.2/MSDK/cloud/alicloud/src/services/awss\zconfig_vendor_common.c ****     awss_debug("aws timeout recving!");
 533:C:/Users/stapi/OneDrive/Desktop/GD32VW553/V1_MQTT_OK/GD32VW55X_Wifi_BLE_SDK/GD32VW55x_RELEASE_V1.0.2/MSDK/cloud/alicloud/src/services/awss\zconfig_vendor_common.c **** #ifdef AWSS_SUPPORT_SMARTCONFIG_MCAST
 534:C:/Users/stapi/OneDrive/Desktop/GD32VW553/V1_MQTT_OK/GD32VW55X_Wifi_BLE_SDK/GD32VW55x_RELEASE_V1.0.2/MSDK/cloud/alicloud/src/services/awss\zconfig_vendor_common.c ****     if (delay_p2p()) {
 535:C:/Users/stapi/OneDrive/Desktop/GD32VW553/V1_MQTT_OK/GD32VW55X_Wifi_BLE_SDK/GD32VW55x_RELEASE_V1.0.2/MSDK/cloud/alicloud/src/services/awss\zconfig_vendor_common.c ****         goto success;
 536:C:/Users/stapi/OneDrive/Desktop/GD32VW553/V1_MQTT_OK/GD32VW55X_Wifi_BLE_SDK/GD32VW55x_RELEASE_V1.0.2/MSDK/cloud/alicloud/src/services/awss\zconfig_vendor_common.c ****     }
 537:C:/Users/stapi/OneDrive/Desktop/GD32VW553/V1_MQTT_OK/GD32VW55X_Wifi_BLE_SDK/GD32VW55x_RELEASE_V1.0.2/MSDK/cloud/alicloud/src/services/awss\zconfig_vendor_common.c **** #endif
 538:C:/Users/stapi/OneDrive/Desktop/GD32VW553/V1_MQTT_OK/GD32VW55X_Wifi_BLE_SDK/GD32VW55x_RELEASE_V1.0.2/MSDK/cloud/alicloud/src/services/awss\zconfig_vendor_common.c **** 
 539:C:/Users/stapi/OneDrive/Desktop/GD32VW553/V1_MQTT_OK/GD32VW55X_Wifi_BLE_SDK/GD32VW55x_RELEASE_V1.0.2/MSDK/cloud/alicloud/src/services/awss\zconfig_vendor_common.c ****     // if one round awss scanning finished(timeout, user intterupt, memory exception)
 540:C:/Users/stapi/OneDrive/Desktop/GD32VW553/V1_MQTT_OK/GD32VW55X_Wifi_BLE_SDK/GD32VW55x_RELEASE_V1.0.2/MSDK/cloud/alicloud/src/services/awss\zconfig_vendor_common.c ****     do {
 541:C:/Users/stapi/OneDrive/Desktop/GD32VW553/V1_MQTT_OK/GD32VW55X_Wifi_BLE_SDK/GD32VW55x_RELEASE_V1.0.2/MSDK/cloud/alicloud/src/services/awss\zconfig_vendor_common.c ****         if (aws_stop == AWS_STOPPING) {
 542:C:/Users/stapi/OneDrive/Desktop/GD32VW553/V1_MQTT_OK/GD32VW55X_Wifi_BLE_SDK/GD32VW55x_RELEASE_V1.0.2/MSDK/cloud/alicloud/src/services/awss\zconfig_vendor_common.c ****             break;                              /* awss scan interrupt by user */
 543:C:/Users/stapi/OneDrive/Desktop/GD32VW553/V1_MQTT_OK/GD32VW55X_Wifi_BLE_SDK/GD32VW55x_RELEASE_V1.0.2/MSDK/cloud/alicloud/src/services/awss\zconfig_vendor_common.c ****         }
 544:C:/Users/stapi/OneDrive/Desktop/GD32VW553/V1_MQTT_OK/GD32VW55X_Wifi_BLE_SDK/GD32VW55x_RELEASE_V1.0.2/MSDK/cloud/alicloud/src/services/awss\zconfig_vendor_common.c ****         if (rescan_timer == NULL) {
 545:C:/Users/stapi/OneDrive/Desktop/GD32VW553/V1_MQTT_OK/GD32VW55X_Wifi_BLE_SDK/GD32VW55x_RELEASE_V1.0.2/MSDK/cloud/alicloud/src/services/awss\zconfig_vendor_common.c ****             rescan_timer = HAL_Timer_Create("rescan", (void(*)(void *))rescan_monitor, NULL);
 546:C:/Users/stapi/OneDrive/Desktop/GD32VW553/V1_MQTT_OK/GD32VW55X_Wifi_BLE_SDK/GD32VW55x_RELEASE_V1.0.2/MSDK/cloud/alicloud/src/services/awss\zconfig_vendor_common.c ****         }
 547:C:/Users/stapi/OneDrive/Desktop/GD32VW553/V1_MQTT_OK/GD32VW55X_Wifi_BLE_SDK/GD32VW55x_RELEASE_V1.0.2/MSDK/cloud/alicloud/src/services/awss\zconfig_vendor_common.c ****         HAL_Timer_Stop(rescan_timer);
 548:C:/Users/stapi/OneDrive/Desktop/GD32VW553/V1_MQTT_OK/GD32VW55X_Wifi_BLE_SDK/GD32VW55x_RELEASE_V1.0.2/MSDK/cloud/alicloud/src/services/awss\zconfig_vendor_common.c ****         HAL_Timer_Start(rescan_timer, RESCAN_MONITOR_TIMEOUT_MS);
 549:C:/Users/stapi/OneDrive/Desktop/GD32VW553/V1_MQTT_OK/GD32VW55X_Wifi_BLE_SDK/GD32VW55x_RELEASE_V1.0.2/MSDK/cloud/alicloud/src/services/awss\zconfig_vendor_common.c ****         os_awss_close_monitor();
 550:C:/Users/stapi/OneDrive/Desktop/GD32VW553/V1_MQTT_OK/GD32VW55X_Wifi_BLE_SDK/GD32VW55x_RELEASE_V1.0.2/MSDK/cloud/alicloud/src/services/awss\zconfig_vendor_common.c ****         while (rescan_available == 0) {
 551:C:/Users/stapi/OneDrive/Desktop/GD32VW553/V1_MQTT_OK/GD32VW55X_Wifi_BLE_SDK/GD32VW55x_RELEASE_V1.0.2/MSDK/cloud/alicloud/src/services/awss\zconfig_vendor_common.c ****             if (awss_get_config_press() ||
 552:C:/Users/stapi/OneDrive/Desktop/GD32VW553/V1_MQTT_OK/GD32VW55X_Wifi_BLE_SDK/GD32VW55x_RELEASE_V1.0.2/MSDK/cloud/alicloud/src/services/awss\zconfig_vendor_common.c ****                 aws_stop == AWS_STOPPING) {     // user interrupt sleep
 553:C:/Users/stapi/OneDrive/Desktop/GD32VW553/V1_MQTT_OK/GD32VW55X_Wifi_BLE_SDK/GD32VW55x_RELEASE_V1.0.2/MSDK/cloud/alicloud/src/services/awss\zconfig_vendor_common.c ****                 HAL_Timer_Stop(rescan_timer);
 554:C:/Users/stapi/OneDrive/Desktop/GD32VW553/V1_MQTT_OK/GD32VW55X_Wifi_BLE_SDK/GD32VW55x_RELEASE_V1.0.2/MSDK/cloud/alicloud/src/services/awss\zconfig_vendor_common.c ****                 break;
 555:C:/Users/stapi/OneDrive/Desktop/GD32VW553/V1_MQTT_OK/GD32VW55X_Wifi_BLE_SDK/GD32VW55x_RELEASE_V1.0.2/MSDK/cloud/alicloud/src/services/awss\zconfig_vendor_common.c ****             }
 556:C:/Users/stapi/OneDrive/Desktop/GD32VW553/V1_MQTT_OK/GD32VW55X_Wifi_BLE_SDK/GD32VW55x_RELEASE_V1.0.2/MSDK/cloud/alicloud/src/services/awss\zconfig_vendor_common.c ****             os_msleep(200);
 557:C:/Users/stapi/OneDrive/Desktop/GD32VW553/V1_MQTT_OK/GD32VW55X_Wifi_BLE_SDK/GD32VW55x_RELEASE_V1.0.2/MSDK/cloud/alicloud/src/services/awss\zconfig_vendor_common.c ****         }
 558:C:/Users/stapi/OneDrive/Desktop/GD32VW553/V1_MQTT_OK/GD32VW55X_Wifi_BLE_SDK/GD32VW55x_RELEASE_V1.0.2/MSDK/cloud/alicloud/src/services/awss\zconfig_vendor_common.c ****         rescan_available = 0;
 559:C:/Users/stapi/OneDrive/Desktop/GD32VW553/V1_MQTT_OK/GD32VW55X_Wifi_BLE_SDK/GD32VW55x_RELEASE_V1.0.2/MSDK/cloud/alicloud/src/services/awss\zconfig_vendor_common.c ****     } while (0);
 560:C:/Users/stapi/OneDrive/Desktop/GD32VW553/V1_MQTT_OK/GD32VW55X_Wifi_BLE_SDK/GD32VW55x_RELEASE_V1.0.2/MSDK/cloud/alicloud/src/services/awss\zconfig_vendor_common.c **** 
 561:C:/Users/stapi/OneDrive/Desktop/GD32VW553/V1_MQTT_OK/GD32VW55X_Wifi_BLE_SDK/GD32VW55x_RELEASE_V1.0.2/MSDK/cloud/alicloud/src/services/awss\zconfig_vendor_common.c ****     /* awss scan interrupt by user, or memory exception occured */
 562:C:/Users/stapi/OneDrive/Desktop/GD32VW553/V1_MQTT_OK/GD32VW55X_Wifi_BLE_SDK/GD32VW55x_RELEASE_V1.0.2/MSDK/cloud/alicloud/src/services/awss\zconfig_vendor_common.c ****     if (aws_stop == AWS_STOPPING) {
 563:C:/Users/stapi/OneDrive/Desktop/GD32VW553/V1_MQTT_OK/GD32VW55X_Wifi_BLE_SDK/GD32VW55x_RELEASE_V1.0.2/MSDK/cloud/alicloud/src/services/awss\zconfig_vendor_common.c ****         aws_stop = AWS_STOPPED;
 564:C:/Users/stapi/OneDrive/Desktop/GD32VW553/V1_MQTT_OK/GD32VW55X_Wifi_BLE_SDK/GD32VW55x_RELEASE_V1.0.2/MSDK/cloud/alicloud/src/services/awss\zconfig_vendor_common.c ****         goto success;
 565:C:/Users/stapi/OneDrive/Desktop/GD32VW553/V1_MQTT_OK/GD32VW55X_Wifi_BLE_SDK/GD32VW55x_RELEASE_V1.0.2/MSDK/cloud/alicloud/src/services/awss\zconfig_vendor_common.c ****     }
 566:C:/Users/stapi/OneDrive/Desktop/GD32VW553/V1_MQTT_OK/GD32VW55X_Wifi_BLE_SDK/GD32VW55x_RELEASE_V1.0.2/MSDK/cloud/alicloud/src/services/awss\zconfig_vendor_common.c **** 
 567:C:/Users/stapi/OneDrive/Desktop/GD32VW553/V1_MQTT_OK/GD32VW55X_Wifi_BLE_SDK/GD32VW55x_RELEASE_V1.0.2/MSDK/cloud/alicloud/src/services/awss\zconfig_vendor_common.c ****     aws_state = AWS_SCANNING;
 568:C:/Users/stapi/OneDrive/Desktop/GD32VW553/V1_MQTT_OK/GD32VW55X_Wifi_BLE_SDK/GD32VW55x_RELEASE_V1.0.2/MSDK/cloud/alicloud/src/services/awss\zconfig_vendor_common.c **** #ifdef AWSS_SUPPORT_APLIST
 569:C:/Users/stapi/OneDrive/Desktop/GD32VW553/V1_MQTT_OK/GD32VW55X_Wifi_BLE_SDK/GD32VW55x_RELEASE_V1.0.2/MSDK/cloud/alicloud/src/services/awss\zconfig_vendor_common.c ****     if (awss_is_ready_clr_aplist()) {
 570:C:/Users/stapi/OneDrive/Desktop/GD32VW553/V1_MQTT_OK/GD32VW55X_Wifi_BLE_SDK/GD32VW55x_RELEASE_V1.0.2/MSDK/cloud/alicloud/src/services/awss\zconfig_vendor_common.c ****         awss_clear_aplist();
 571:C:/Users/stapi/OneDrive/Desktop/GD32VW553/V1_MQTT_OK/GD32VW55X_Wifi_BLE_SDK/GD32VW55x_RELEASE_V1.0.2/MSDK/cloud/alicloud/src/services/awss\zconfig_vendor_common.c ****     }
 572:C:/Users/stapi/OneDrive/Desktop/GD32VW553/V1_MQTT_OK/GD32VW55X_Wifi_BLE_SDK/GD32VW55x_RELEASE_V1.0.2/MSDK/cloud/alicloud/src/services/awss\zconfig_vendor_common.c **** #endif
 573:C:/Users/stapi/OneDrive/Desktop/GD32VW553/V1_MQTT_OK/GD32VW55X_Wifi_BLE_SDK/GD32VW55x_RELEASE_V1.0.2/MSDK/cloud/alicloud/src/services/awss\zconfig_vendor_common.c ****     aws_start_timestamp = os_get_time_ms();
 574:C:/Users/stapi/OneDrive/Desktop/GD32VW553/V1_MQTT_OK/GD32VW55X_Wifi_BLE_SDK/GD32VW55x_RELEASE_V1.0.2/MSDK/cloud/alicloud/src/services/awss\zconfig_vendor_common.c ****     os_awss_open_monitor(aws_80211_frame_handler);
 575:C:/Users/stapi/OneDrive/Desktop/GD32VW553/V1_MQTT_OK/GD32VW55X_Wifi_BLE_SDK/GD32VW55x_RELEASE_V1.0.2/MSDK/cloud/alicloud/src/services/awss\zconfig_vendor_common.c ****     goto rescanning;
 576:C:/Users/stapi/OneDrive/Desktop/GD32VW553/V1_MQTT_OK/GD32VW55X_Wifi_BLE_SDK/GD32VW55x_RELEASE_V1.0.2/MSDK/cloud/alicloud/src/services/awss\zconfig_vendor_common.c **** 
 577:C:/Users/stapi/OneDrive/Desktop/GD32VW553/V1_MQTT_OK/GD32VW55X_Wifi_BLE_SDK/GD32VW55x_RELEASE_V1.0.2/MSDK/cloud/alicloud/src/services/awss\zconfig_vendor_common.c **** success:
 578:C:/Users/stapi/OneDrive/Desktop/GD32VW553/V1_MQTT_OK/GD32VW55X_Wifi_BLE_SDK/GD32VW55x_RELEASE_V1.0.2/MSDK/cloud/alicloud/src/services/awss\zconfig_vendor_common.c ****     awss_stop_timer(rescan_timer);
 579:C:/Users/stapi/OneDrive/Desktop/GD32VW553/V1_MQTT_OK/GD32VW55X_Wifi_BLE_SDK/GD32VW55x_RELEASE_V1.0.2/MSDK/cloud/alicloud/src/services/awss\zconfig_vendor_common.c ****     rescan_timer = NULL;
 580:C:/Users/stapi/OneDrive/Desktop/GD32VW553/V1_MQTT_OK/GD32VW55X_Wifi_BLE_SDK/GD32VW55x_RELEASE_V1.0.2/MSDK/cloud/alicloud/src/services/awss\zconfig_vendor_common.c ****     // don't destroy zconfig_data until monitor_cb is finished.
 581:C:/Users/stapi/OneDrive/Desktop/GD32VW553/V1_MQTT_OK/GD32VW55X_Wifi_BLE_SDK/GD32VW55x_RELEASE_V1.0.2/MSDK/cloud/alicloud/src/services/awss\zconfig_vendor_common.c ****     os_mutex_lock(zc_mutex);
 582:C:/Users/stapi/OneDrive/Desktop/GD32VW553/V1_MQTT_OK/GD32VW55X_Wifi_BLE_SDK/GD32VW55x_RELEASE_V1.0.2/MSDK/cloud/alicloud/src/services/awss\zconfig_vendor_common.c ****     os_mutex_unlock(zc_mutex);
 583:C:/Users/stapi/OneDrive/Desktop/GD32VW553/V1_MQTT_OK/GD32VW55X_Wifi_BLE_SDK/GD32VW55x_RELEASE_V1.0.2/MSDK/cloud/alicloud/src/services/awss\zconfig_vendor_common.c ****     dump_awss_status(STATE_WIFI_DESTROY, "ready to call zconfig_destroy to release mem");
 584:C:/Users/stapi/OneDrive/Desktop/GD32VW553/V1_MQTT_OK/GD32VW55X_Wifi_BLE_SDK/GD32VW55x_RELEASE_V1.0.2/MSDK/cloud/alicloud/src/services/awss\zconfig_vendor_common.c ****     /*
 585:C:/Users/stapi/OneDrive/Desktop/GD32VW553/V1_MQTT_OK/GD32VW55X_Wifi_BLE_SDK/GD32VW55x_RELEASE_V1.0.2/MSDK/cloud/alicloud/src/services/awss\zconfig_vendor_common.c ****      * zconfig_destroy() after os_awss_monitor_close() beacause
 586:C:/Users/stapi/OneDrive/Desktop/GD32VW553/V1_MQTT_OK/GD32VW55X_Wifi_BLE_SDK/GD32VW55x_RELEASE_V1.0.2/MSDK/cloud/alicloud/src/services/awss\zconfig_vendor_common.c ****      * zconfig_destroy will release mem/buffer that
 587:C:/Users/stapi/OneDrive/Desktop/GD32VW553/V1_MQTT_OK/GD32VW55X_Wifi_BLE_SDK/GD32VW55x_RELEASE_V1.0.2/MSDK/cloud/alicloud/src/services/awss\zconfig_vendor_common.c ****      * zconfig_recv_callback will use
 588:C:/Users/stapi/OneDrive/Desktop/GD32VW553/V1_MQTT_OK/GD32VW55X_Wifi_BLE_SDK/GD32VW55x_RELEASE_V1.0.2/MSDK/cloud/alicloud/src/services/awss\zconfig_vendor_common.c ****      */
 589:C:/Users/stapi/OneDrive/Desktop/GD32VW553/V1_MQTT_OK/GD32VW55X_Wifi_BLE_SDK/GD32VW55x_RELEASE_V1.0.2/MSDK/cloud/alicloud/src/services/awss\zconfig_vendor_common.c ****     if ((aws_info != NULL) && (aws_stop == AWS_STOPPED)) {
 590:C:/Users/stapi/OneDrive/Desktop/GD32VW553/V1_MQTT_OK/GD32VW55X_Wifi_BLE_SDK/GD32VW55x_RELEASE_V1.0.2/MSDK/cloud/alicloud/src/services/awss\zconfig_vendor_common.c ****         dump_awss_status(STATE_WIFI_DESTROY, "zconfig mem to release");
 591:C:/Users/stapi/OneDrive/Desktop/GD32VW553/V1_MQTT_OK/GD32VW55X_Wifi_BLE_SDK/GD32VW55x_RELEASE_V1.0.2/MSDK/cloud/alicloud/src/services/awss\zconfig_vendor_common.c ****         zconfig_force_destroy();
 592:C:/Users/stapi/OneDrive/Desktop/GD32VW553/V1_MQTT_OK/GD32VW55X_Wifi_BLE_SDK/GD32VW55x_RELEASE_V1.0.2/MSDK/cloud/alicloud/src/services/awss\zconfig_vendor_common.c ****     }
 593:C:/Users/stapi/OneDrive/Desktop/GD32VW553/V1_MQTT_OK/GD32VW55X_Wifi_BLE_SDK/GD32VW55x_RELEASE_V1.0.2/MSDK/cloud/alicloud/src/services/awss\zconfig_vendor_common.c **** #if defined(AWSS_SUPPORT_ADHA) || defined(AWSS_SUPPORT_AHA)
 594:C:/Users/stapi/OneDrive/Desktop/GD32VW553/V1_MQTT_OK/GD32VW55X_Wifi_BLE_SDK/GD32VW55x_RELEASE_V1.0.2/MSDK/cloud/alicloud/src/services/awss\zconfig_vendor_common.c ****     else if (strcmp((const char *)aws_result_ssid, (const char *)zc_adha_ssid) == 0 ||
 595:C:/Users/stapi/OneDrive/Desktop/GD32VW553/V1_MQTT_OK/GD32VW55X_Wifi_BLE_SDK/GD32VW55x_RELEASE_V1.0.2/MSDK/cloud/alicloud/src/services/awss\zconfig_vendor_common.c ****              strcmp((const char *)aws_result_ssid, (const char *)zc_default_ssid) == 0) {
 596:C:/Users/stapi/OneDrive/Desktop/GD32VW553/V1_MQTT_OK/GD32VW55X_Wifi_BLE_SDK/GD32VW55x_RELEASE_V1.0.2/MSDK/cloud/alicloud/src/services/awss\zconfig_vendor_common.c ****         zconfig_destroy();
 597:C:/Users/stapi/OneDrive/Desktop/GD32VW553/V1_MQTT_OK/GD32VW55X_Wifi_BLE_SDK/GD32VW55x_RELEASE_V1.0.2/MSDK/cloud/alicloud/src/services/awss\zconfig_vendor_common.c ****     }
 598:C:/Users/stapi/OneDrive/Desktop/GD32VW553/V1_MQTT_OK/GD32VW55X_Wifi_BLE_SDK/GD32VW55x_RELEASE_V1.0.2/MSDK/cloud/alicloud/src/services/awss\zconfig_vendor_common.c **** #endif
 599:C:/Users/stapi/OneDrive/Desktop/GD32VW553/V1_MQTT_OK/GD32VW55X_Wifi_BLE_SDK/GD32VW55x_RELEASE_V1.0.2/MSDK/cloud/alicloud/src/services/awss\zconfig_vendor_common.c ****     else {
 600:C:/Users/stapi/OneDrive/Desktop/GD32VW553/V1_MQTT_OK/GD32VW55X_Wifi_BLE_SDK/GD32VW55x_RELEASE_V1.0.2/MSDK/cloud/alicloud/src/services/awss\zconfig_vendor_common.c ****         dump_awss_status(STATE_WIFI_DESTROY, "zconfig mem force release");
 601:C:/Users/stapi/OneDrive/Desktop/GD32VW553/V1_MQTT_OK/GD32VW55X_Wifi_BLE_SDK/GD32VW55x_RELEASE_V1.0.2/MSDK/cloud/alicloud/src/services/awss\zconfig_vendor_common.c ****         zconfig_force_destroy();
 602:C:/Users/stapi/OneDrive/Desktop/GD32VW553/V1_MQTT_OK/GD32VW55X_Wifi_BLE_SDK/GD32VW55x_RELEASE_V1.0.2/MSDK/cloud/alicloud/src/services/awss\zconfig_vendor_common.c ****     }
 603:C:/Users/stapi/OneDrive/Desktop/GD32VW553/V1_MQTT_OK/GD32VW55X_Wifi_BLE_SDK/GD32VW55x_RELEASE_V1.0.2/MSDK/cloud/alicloud/src/services/awss\zconfig_vendor_common.c **** }
 604:C:/Users/stapi/OneDrive/Desktop/GD32VW553/V1_MQTT_OK/GD32VW55X_Wifi_BLE_SDK/GD32VW55x_RELEASE_V1.0.2/MSDK/cloud/alicloud/src/services/awss\zconfig_vendor_common.c **** 
 605:C:/Users/stapi/OneDrive/Desktop/GD32VW553/V1_MQTT_OK/GD32VW55X_Wifi_BLE_SDK/GD32VW55x_RELEASE_V1.0.2/MSDK/cloud/alicloud/src/services/awss\zconfig_vendor_common.c **** static void rescan_monitor(void)
 606:C:/Users/stapi/OneDrive/Desktop/GD32VW553/V1_MQTT_OK/GD32VW55X_Wifi_BLE_SDK/GD32VW55x_RELEASE_V1.0.2/MSDK/cloud/alicloud/src/services/awss\zconfig_vendor_common.c **** {
  15              		.loc 1 606 1
  16              		.cfi_startproc
 607:C:/Users/stapi/OneDrive/Desktop/GD32VW553/V1_MQTT_OK/GD32VW55X_Wifi_BLE_SDK/GD32VW55x_RELEASE_V1.0.2/MSDK/cloud/alicloud/src/services/awss\zconfig_vendor_common.c ****     rescan_available = 1;
  17              		.loc 1 607 5
  18              		.loc 1 607 22 is_stmt 0
  19 0000 B7070000 		lui	a5,%hi(.LANCHOR0)
  20 0004 0547     		li	a4,1
  21 0006 2380E700 		sb	a4,%lo(.LANCHOR0)(a5)
 608:C:/Users/stapi/OneDrive/Desktop/GD32VW553/V1_MQTT_OK/GD32VW55X_Wifi_BLE_SDK/GD32VW55x_RELEASE_V1.0.2/MSDK/cloud/alicloud/src/services/awss\zconfig_vendor_common.c **** }
  22              		.loc 1 608 1
  23 000a 8280     		ret
  24              		.cfi_endproc
  25              	.LFE61:
  27              		.section	.text.os_get_time_ms,"ax",@progbits
  28              		.align	1
  30              	os_get_time_ms:
  31              	.LFB20:
  32              		.file 2 "..\\..\\..\\..\\cloud\\alicloud\\src\\services\\dev_bind\\os/os.h"
   1:..\..\..\..\cloud\alicloud\src\services\dev_bind\os/os.h **** /*
   2:..\..\..\..\cloud\alicloud\src\services\dev_bind\os/os.h ****  * Copyright (C) 2015-2018 Alibaba Group Holding Limited
   3:..\..\..\..\cloud\alicloud\src\services\dev_bind\os/os.h ****  */
   4:..\..\..\..\cloud\alicloud\src\services\dev_bind\os/os.h **** 
   5:..\..\..\..\cloud\alicloud\src\services\dev_bind\os/os.h **** #ifndef __AWSS_OS_H__
   6:..\..\..\..\cloud\alicloud\src\services\dev_bind\os/os.h **** #define __AWSS_OS_H__
   7:..\..\..\..\cloud\alicloud\src\services\dev_bind\os/os.h **** 
   8:..\..\..\..\cloud\alicloud\src\services\dev_bind\os/os.h **** #ifdef __cplusplus
   9:..\..\..\..\cloud\alicloud\src\services\dev_bind\os/os.h **** extern "C" {
  10:..\..\..\..\cloud\alicloud\src\services\dev_bind\os/os.h **** #endif
  11:..\..\..\..\cloud\alicloud\src\services\dev_bind\os/os.h **** #include <ctype.h>
  12:..\..\..\..\cloud\alicloud\src\services\dev_bind\os/os.h **** #include "iot_import.h"
  13:..\..\..\..\cloud\alicloud\src\services\dev_bind\os/os.h **** #include "iot_export.h"
  14:..\..\..\..\cloud\alicloud\src\services\dev_bind\os/os.h **** #include "product/product.h"
  15:..\..\..\..\cloud\alicloud\src\services\dev_bind\os/os.h **** #include "platform.h"
  16:..\..\..\..\cloud\alicloud\src\services\dev_bind\os/os.h **** 
  17:..\..\..\..\cloud\alicloud\src\services\dev_bind\os/os.h **** /** @defgroup group_os os
  18:..\..\..\..\cloud\alicloud\src\services\dev_bind\os/os.h ****  *  @{
  19:..\..\..\..\cloud\alicloud\src\services\dev_bind\os/os.h ****  */
  20:..\..\..\..\cloud\alicloud\src\services\dev_bind\os/os.h **** 
  21:..\..\..\..\cloud\alicloud\src\services\dev_bind\os/os.h **** #define OS_MAX_SSID_LEN         PLATFORM_MAX_SSID_LEN
  22:..\..\..\..\cloud\alicloud\src\services\dev_bind\os/os.h **** #define OS_MAX_PASSWD_LEN       PLATFORM_MAX_PASSWD_LEN
  23:..\..\..\..\cloud\alicloud\src\services\dev_bind\os/os.h **** 
  24:..\..\..\..\cloud\alicloud\src\services\dev_bind\os/os.h **** #define OS_MAC_LEN              PLATFORM_MAC_LEN
  25:..\..\..\..\cloud\alicloud\src\services\dev_bind\os/os.h **** #define OS_IP_LEN               PLATFORM_IP_LEN
  26:..\..\..\..\cloud\alicloud\src\services\dev_bind\os/os.h **** #define OS_ETH_ALEN             ETH_ALEN
  27:..\..\..\..\cloud\alicloud\src\services\dev_bind\os/os.h **** 
  28:..\..\..\..\cloud\alicloud\src\services\dev_bind\os/os.h **** #define OS_PRODUCT_KEY_LEN      PRODUCT_KEY_LEN
  29:..\..\..\..\cloud\alicloud\src\services\dev_bind\os/os.h **** #define OS_PRODUCT_SECRET_LEN   PRODUCT_SECRET_LEN
  30:..\..\..\..\cloud\alicloud\src\services\dev_bind\os/os.h **** #define OS_DEVICE_NAME_LEN      DEVICE_NAME_LEN
  31:..\..\..\..\cloud\alicloud\src\services\dev_bind\os/os.h **** #define OS_DEVICE_SECRET_LEN    DEVICE_SECRET_LEN
  32:..\..\..\..\cloud\alicloud\src\services\dev_bind\os/os.h **** 
  33:..\..\..\..\cloud\alicloud\src\services\dev_bind\os/os.h **** /***************************************** Misc Interface *****************************************
  34:..\..\..\..\cloud\alicloud\src\services\dev_bind\os/os.h **** 
  35:..\..\..\..\cloud\alicloud\src\services\dev_bind\os/os.h **** /** @defgroup group_misc misc
  36:..\..\..\..\cloud\alicloud\src\services\dev_bind\os/os.h ****  *  @{
  37:..\..\..\..\cloud\alicloud\src\services\dev_bind\os/os.h ****  */
  38:..\..\..\..\cloud\alicloud\src\services\dev_bind\os/os.h **** /**
  39:..\..\..\..\cloud\alicloud\src\services\dev_bind\os/os.h ****  * @brief .
  40:..\..\..\..\cloud\alicloud\src\services\dev_bind\os/os.h ****  *
  41:..\..\..\..\cloud\alicloud\src\services\dev_bind\os/os.h ****  * @param None.
  42:..\..\..\..\cloud\alicloud\src\services\dev_bind\os/os.h ****  * @return
  43:..\..\..\..\cloud\alicloud\src\services\dev_bind\os/os.h ****  * @verbatim
  44:..\..\..\..\cloud\alicloud\src\services\dev_bind\os/os.h ****  * = 0, This platform is little endian.
  45:..\..\..\..\cloud\alicloud\src\services\dev_bind\os/os.h ****  * = 1, This platform is big endian.
  46:..\..\..\..\cloud\alicloud\src\services\dev_bind\os/os.h ****  * @endverbatim
  47:..\..\..\..\cloud\alicloud\src\services\dev_bind\os/os.h ****  * @see None.
  48:..\..\..\..\cloud\alicloud\src\services\dev_bind\os/os.h ****  * @note None.
  49:..\..\..\..\cloud\alicloud\src\services\dev_bind\os/os.h ****  */
  50:..\..\..\..\cloud\alicloud\src\services\dev_bind\os/os.h **** static inline int os_is_big_endian(void)
  51:..\..\..\..\cloud\alicloud\src\services\dev_bind\os/os.h **** {
  52:..\..\..\..\cloud\alicloud\src\services\dev_bind\os/os.h ****     uint32_t data = 0xFF000000;
  53:..\..\..\..\cloud\alicloud\src\services\dev_bind\os/os.h **** 
  54:..\..\..\..\cloud\alicloud\src\services\dev_bind\os/os.h ****     if (0xFF == *(uint8_t *) & data) {
  55:..\..\..\..\cloud\alicloud\src\services\dev_bind\os/os.h ****         return 1;                                    //big endian
  56:..\..\..\..\cloud\alicloud\src\services\dev_bind\os/os.h ****     }
  57:..\..\..\..\cloud\alicloud\src\services\dev_bind\os/os.h **** 
  58:..\..\..\..\cloud\alicloud\src\services\dev_bind\os/os.h ****     return 0;                                        //little endian
  59:..\..\..\..\cloud\alicloud\src\services\dev_bind\os/os.h **** }
  60:..\..\..\..\cloud\alicloud\src\services\dev_bind\os/os.h **** 
  61:..\..\..\..\cloud\alicloud\src\services\dev_bind\os/os.h **** /**
  62:..\..\..\..\cloud\alicloud\src\services\dev_bind\os/os.h ****  * @brief Convert the data from byte order of current CPU(the "host") to big-endian.
  63:..\..\..\..\cloud\alicloud\src\services\dev_bind\os/os.h ****    The size of the data is 16 bits.
  64:..\..\..\..\cloud\alicloud\src\services\dev_bind\os/os.h ****  *
  65:..\..\..\..\cloud\alicloud\src\services\dev_bind\os/os.h ****  * @param[in] data @n Data to be converted.
  66:..\..\..\..\cloud\alicloud\src\services\dev_bind\os/os.h ****  * @return Conversion result.
  67:..\..\..\..\cloud\alicloud\src\services\dev_bind\os/os.h ****  * @see None.
  68:..\..\..\..\cloud\alicloud\src\services\dev_bind\os/os.h ****  * @note None.
  69:..\..\..\..\cloud\alicloud\src\services\dev_bind\os/os.h ****  */
  70:..\..\..\..\cloud\alicloud\src\services\dev_bind\os/os.h **** uint16_t os_htobe16(uint16_t data);
  71:..\..\..\..\cloud\alicloud\src\services\dev_bind\os/os.h **** 
  72:..\..\..\..\cloud\alicloud\src\services\dev_bind\os/os.h **** /**
  73:..\..\..\..\cloud\alicloud\src\services\dev_bind\os/os.h ****  * @brief Convert the data from host to little-endian.
  74:..\..\..\..\cloud\alicloud\src\services\dev_bind\os/os.h ****    The size of the data is 16 bits.
  75:..\..\..\..\cloud\alicloud\src\services\dev_bind\os/os.h ****  *
  76:..\..\..\..\cloud\alicloud\src\services\dev_bind\os/os.h ****  * @param[in] data @n Data to be converted.
  77:..\..\..\..\cloud\alicloud\src\services\dev_bind\os/os.h ****  * @return Conversion result.
  78:..\..\..\..\cloud\alicloud\src\services\dev_bind\os/os.h ****  * @see None.
  79:..\..\..\..\cloud\alicloud\src\services\dev_bind\os/os.h ****  * @note None.
  80:..\..\..\..\cloud\alicloud\src\services\dev_bind\os/os.h ****  */
  81:..\..\..\..\cloud\alicloud\src\services\dev_bind\os/os.h **** uint16_t os_htole16(uint16_t data);
  82:..\..\..\..\cloud\alicloud\src\services\dev_bind\os/os.h **** 
  83:..\..\..\..\cloud\alicloud\src\services\dev_bind\os/os.h **** /**
  84:..\..\..\..\cloud\alicloud\src\services\dev_bind\os/os.h ****  * @brief Convert the data from big-endian to host.
  85:..\..\..\..\cloud\alicloud\src\services\dev_bind\os/os.h ****    The size of the data is 16 bits.
  86:..\..\..\..\cloud\alicloud\src\services\dev_bind\os/os.h ****  *
  87:..\..\..\..\cloud\alicloud\src\services\dev_bind\os/os.h ****  * @param[in] data @n Data to be converted.
  88:..\..\..\..\cloud\alicloud\src\services\dev_bind\os/os.h ****  * @return Conversion result.
  89:..\..\..\..\cloud\alicloud\src\services\dev_bind\os/os.h ****  * @see None.
  90:..\..\..\..\cloud\alicloud\src\services\dev_bind\os/os.h ****  * @note None.
  91:..\..\..\..\cloud\alicloud\src\services\dev_bind\os/os.h ****  */
  92:..\..\..\..\cloud\alicloud\src\services\dev_bind\os/os.h **** uint16_t os_be16toh(uint16_t data);
  93:..\..\..\..\cloud\alicloud\src\services\dev_bind\os/os.h **** 
  94:..\..\..\..\cloud\alicloud\src\services\dev_bind\os/os.h **** /**
  95:..\..\..\..\cloud\alicloud\src\services\dev_bind\os/os.h ****  * @brief Convert the data from little-endian to host.
  96:..\..\..\..\cloud\alicloud\src\services\dev_bind\os/os.h ****    The size of the data is 16 bits.
  97:..\..\..\..\cloud\alicloud\src\services\dev_bind\os/os.h ****  *
  98:..\..\..\..\cloud\alicloud\src\services\dev_bind\os/os.h ****  * @param[in] data @n Data to be converted.
  99:..\..\..\..\cloud\alicloud\src\services\dev_bind\os/os.h ****  * @return Conversion result.
 100:..\..\..\..\cloud\alicloud\src\services\dev_bind\os/os.h ****  * @see None.
 101:..\..\..\..\cloud\alicloud\src\services\dev_bind\os/os.h ****  * @note None.
 102:..\..\..\..\cloud\alicloud\src\services\dev_bind\os/os.h ****  */
 103:..\..\..\..\cloud\alicloud\src\services\dev_bind\os/os.h **** uint16_t os_le16toh(uint16_t data);
 104:..\..\..\..\cloud\alicloud\src\services\dev_bind\os/os.h **** 
 105:..\..\..\..\cloud\alicloud\src\services\dev_bind\os/os.h **** /**
 106:..\..\..\..\cloud\alicloud\src\services\dev_bind\os/os.h ****  * @brief Convert the data from little-endian to host.
 107:..\..\..\..\cloud\alicloud\src\services\dev_bind\os/os.h ****    The size of the data is 32 bits.
 108:..\..\..\..\cloud\alicloud\src\services\dev_bind\os/os.h ****  *
 109:..\..\..\..\cloud\alicloud\src\services\dev_bind\os/os.h ****  * @param[in] data @n Data to be converted.
 110:..\..\..\..\cloud\alicloud\src\services\dev_bind\os/os.h ****  * @return Conversion result.
 111:..\..\..\..\cloud\alicloud\src\services\dev_bind\os/os.h ****  * @see None.
 112:..\..\..\..\cloud\alicloud\src\services\dev_bind\os/os.h ****  * @note None.
 113:..\..\..\..\cloud\alicloud\src\services\dev_bind\os/os.h ****  */
 114:..\..\..\..\cloud\alicloud\src\services\dev_bind\os/os.h **** uint32_t os_le32toh(uint32_t data);
 115:..\..\..\..\cloud\alicloud\src\services\dev_bind\os/os.h **** 
 116:..\..\..\..\cloud\alicloud\src\services\dev_bind\os/os.h **** /**
 117:..\..\..\..\cloud\alicloud\src\services\dev_bind\os/os.h ****  * @brief Convert the data from host to big-endian.
 118:..\..\..\..\cloud\alicloud\src\services\dev_bind\os/os.h ****    The size of the data is 64 bits.
 119:..\..\..\..\cloud\alicloud\src\services\dev_bind\os/os.h ****  *
 120:..\..\..\..\cloud\alicloud\src\services\dev_bind\os/os.h ****  * @param[in] data @n Data to be converted.
 121:..\..\..\..\cloud\alicloud\src\services\dev_bind\os/os.h ****  * @return Conversion result.
 122:..\..\..\..\cloud\alicloud\src\services\dev_bind\os/os.h ****  * @see None.
 123:..\..\..\..\cloud\alicloud\src\services\dev_bind\os/os.h ****  * @note None.
 124:..\..\..\..\cloud\alicloud\src\services\dev_bind\os/os.h ****  */
 125:..\..\..\..\cloud\alicloud\src\services\dev_bind\os/os.h **** //uint64_t os_htobe64(uint64_t data);
 126:..\..\..\..\cloud\alicloud\src\services\dev_bind\os/os.h **** 
 127:..\..\..\..\cloud\alicloud\src\services\dev_bind\os/os.h **** /**
 128:..\..\..\..\cloud\alicloud\src\services\dev_bind\os/os.h ****  * @brief Convert the data from host to little-endian.
 129:..\..\..\..\cloud\alicloud\src\services\dev_bind\os/os.h ****    The size of the data is 64 bits.
 130:..\..\..\..\cloud\alicloud\src\services\dev_bind\os/os.h ****  *
 131:..\..\..\..\cloud\alicloud\src\services\dev_bind\os/os.h ****  * @param[in] data @n Data to be converted.
 132:..\..\..\..\cloud\alicloud\src\services\dev_bind\os/os.h ****  * @return Conversion result.
 133:..\..\..\..\cloud\alicloud\src\services\dev_bind\os/os.h ****  * @see None.
 134:..\..\..\..\cloud\alicloud\src\services\dev_bind\os/os.h ****  * @note None.
 135:..\..\..\..\cloud\alicloud\src\services\dev_bind\os/os.h ****  */
 136:..\..\..\..\cloud\alicloud\src\services\dev_bind\os/os.h **** //uint64_t os_htole64(uint64_t data);
 137:..\..\..\..\cloud\alicloud\src\services\dev_bind\os/os.h **** 
 138:..\..\..\..\cloud\alicloud\src\services\dev_bind\os/os.h **** /**
 139:..\..\..\..\cloud\alicloud\src\services\dev_bind\os/os.h ****  * @brief Convert the data from big-endian to host.
 140:..\..\..\..\cloud\alicloud\src\services\dev_bind\os/os.h ****    The size of the data is 64 bits.
 141:..\..\..\..\cloud\alicloud\src\services\dev_bind\os/os.h ****  *
 142:..\..\..\..\cloud\alicloud\src\services\dev_bind\os/os.h ****  * @param[in] data @n Data to be converted.
 143:..\..\..\..\cloud\alicloud\src\services\dev_bind\os/os.h ****  * @return Conversion result.
 144:..\..\..\..\cloud\alicloud\src\services\dev_bind\os/os.h ****  * @see None.
 145:..\..\..\..\cloud\alicloud\src\services\dev_bind\os/os.h ****  * @note None.
 146:..\..\..\..\cloud\alicloud\src\services\dev_bind\os/os.h ****  */
 147:..\..\..\..\cloud\alicloud\src\services\dev_bind\os/os.h **** //uint64_t os_be64toh(uint64_t data);
 148:..\..\..\..\cloud\alicloud\src\services\dev_bind\os/os.h **** 
 149:..\..\..\..\cloud\alicloud\src\services\dev_bind\os/os.h **** /**
 150:..\..\..\..\cloud\alicloud\src\services\dev_bind\os/os.h ****  * @brief Convert the data from little-endian to host.
 151:..\..\..\..\cloud\alicloud\src\services\dev_bind\os/os.h ****    The size of the data is 64 bits.
 152:..\..\..\..\cloud\alicloud\src\services\dev_bind\os/os.h ****  *
 153:..\..\..\..\cloud\alicloud\src\services\dev_bind\os/os.h ****  * @param[in] data @n Data to be converted.
 154:..\..\..\..\cloud\alicloud\src\services\dev_bind\os/os.h ****  * @return Conversion result.
 155:..\..\..\..\cloud\alicloud\src\services\dev_bind\os/os.h ****  * @see None.
 156:..\..\..\..\cloud\alicloud\src\services\dev_bind\os/os.h ****  * @note None.
 157:..\..\..\..\cloud\alicloud\src\services\dev_bind\os/os.h ****  */
 158:..\..\..\..\cloud\alicloud\src\services\dev_bind\os/os.h **** //uint64_t os_le64toh(uint64_t data);
 159:..\..\..\..\cloud\alicloud\src\services\dev_bind\os/os.h **** 
 160:..\..\..\..\cloud\alicloud\src\services\dev_bind\os/os.h **** /**
 161:..\..\..\..\cloud\alicloud\src\services\dev_bind\os/os.h ****  * @brief Get unaligned 16 bits data which is big-endian and convert to host byte order.
 162:..\..\..\..\cloud\alicloud\src\services\dev_bind\os/os.h ****  *
 163:..\..\..\..\cloud\alicloud\src\services\dev_bind\os/os.h ****  * @param[in] ptr @n The start address of the unaligned data.
 164:..\..\..\..\cloud\alicloud\src\services\dev_bind\os/os.h ****  * @return Result in host byte order.
 165:..\..\..\..\cloud\alicloud\src\services\dev_bind\os/os.h ****  * @see None.
 166:..\..\..\..\cloud\alicloud\src\services\dev_bind\os/os.h ****  * @note None.
 167:..\..\..\..\cloud\alicloud\src\services\dev_bind\os/os.h ****  */
 168:..\..\..\..\cloud\alicloud\src\services\dev_bind\os/os.h **** uint16_t os_get_unaligned_be16(uint8_t *ptr);
 169:..\..\..\..\cloud\alicloud\src\services\dev_bind\os/os.h **** 
 170:..\..\..\..\cloud\alicloud\src\services\dev_bind\os/os.h **** /**
 171:..\..\..\..\cloud\alicloud\src\services\dev_bind\os/os.h ****  * @brief Get unaligned 16 bits data which is little-endian and convert to host byte order.
 172:..\..\..\..\cloud\alicloud\src\services\dev_bind\os/os.h ****  *
 173:..\..\..\..\cloud\alicloud\src\services\dev_bind\os/os.h ****  * @param[in] ptr @n The start address of the unaligned data.
 174:..\..\..\..\cloud\alicloud\src\services\dev_bind\os/os.h ****  * @return Result in host byte order.
 175:..\..\..\..\cloud\alicloud\src\services\dev_bind\os/os.h ****  * @see None.
 176:..\..\..\..\cloud\alicloud\src\services\dev_bind\os/os.h ****  * @note None.
 177:..\..\..\..\cloud\alicloud\src\services\dev_bind\os/os.h ****  */
 178:..\..\..\..\cloud\alicloud\src\services\dev_bind\os/os.h **** uint16_t os_get_unaligned_le16(uint8_t *ptr);
 179:..\..\..\..\cloud\alicloud\src\services\dev_bind\os/os.h **** 
 180:..\..\..\..\cloud\alicloud\src\services\dev_bind\os/os.h **** /**
 181:..\..\..\..\cloud\alicloud\src\services\dev_bind\os/os.h ****  * @brief Get unaligned 32 bits data which is big-endian and convert to host byte order.
 182:..\..\..\..\cloud\alicloud\src\services\dev_bind\os/os.h ****  *
 183:..\..\..\..\cloud\alicloud\src\services\dev_bind\os/os.h ****  * @param[in] ptr @n The start address of the unaligned data.
 184:..\..\..\..\cloud\alicloud\src\services\dev_bind\os/os.h ****  * @return Result in host byte order.
 185:..\..\..\..\cloud\alicloud\src\services\dev_bind\os/os.h ****  * @see None.
 186:..\..\..\..\cloud\alicloud\src\services\dev_bind\os/os.h ****  * @note None.
 187:..\..\..\..\cloud\alicloud\src\services\dev_bind\os/os.h ****  */
 188:..\..\..\..\cloud\alicloud\src\services\dev_bind\os/os.h **** uint32_t os_get_unaligned_be32(uint8_t *ptr);
 189:..\..\..\..\cloud\alicloud\src\services\dev_bind\os/os.h **** 
 190:..\..\..\..\cloud\alicloud\src\services\dev_bind\os/os.h **** /**
 191:..\..\..\..\cloud\alicloud\src\services\dev_bind\os/os.h ****  * @brief Get unaligned 32 bits data which is little-endian and convert to host byte order.
 192:..\..\..\..\cloud\alicloud\src\services\dev_bind\os/os.h ****  *
 193:..\..\..\..\cloud\alicloud\src\services\dev_bind\os/os.h ****  * @param[in] ptr @n The start address of the unaligned data.
 194:..\..\..\..\cloud\alicloud\src\services\dev_bind\os/os.h ****  * @return Result in host byte order.
 195:..\..\..\..\cloud\alicloud\src\services\dev_bind\os/os.h ****  * @see None.
 196:..\..\..\..\cloud\alicloud\src\services\dev_bind\os/os.h ****  * @note None.
 197:..\..\..\..\cloud\alicloud\src\services\dev_bind\os/os.h ****  */
 198:..\..\..\..\cloud\alicloud\src\services\dev_bind\os/os.h **** uint32_t os_get_unaligned_le32(uint8_t *ptr);
 199:..\..\..\..\cloud\alicloud\src\services\dev_bind\os/os.h **** 
 200:..\..\..\..\cloud\alicloud\src\services\dev_bind\os/os.h **** /**
 201:..\..\..\..\cloud\alicloud\src\services\dev_bind\os/os.h ****  * @brief sleep thread itself.
 202:..\..\..\..\cloud\alicloud\src\services\dev_bind\os/os.h ****  *
 203:..\..\..\..\cloud\alicloud\src\services\dev_bind\os/os.h ****  * @param[in] ms @n the time interval for which execution is to be suspended, in milliseconds.
 204:..\..\..\..\cloud\alicloud\src\services\dev_bind\os/os.h ****  * @return None.
 205:..\..\..\..\cloud\alicloud\src\services\dev_bind\os/os.h ****  * @see None.
 206:..\..\..\..\cloud\alicloud\src\services\dev_bind\os/os.h ****  * @note None.
 207:..\..\..\..\cloud\alicloud\src\services\dev_bind\os/os.h ****  */
 208:..\..\..\..\cloud\alicloud\src\services\dev_bind\os/os.h **** static inline void os_msleep(_IN_ uint32_t ms)
 209:..\..\..\..\cloud\alicloud\src\services\dev_bind\os/os.h **** {
 210:..\..\..\..\cloud\alicloud\src\services\dev_bind\os/os.h ****     platform_msleep(ms);
 211:..\..\..\..\cloud\alicloud\src\services\dev_bind\os/os.h **** }
 212:..\..\..\..\cloud\alicloud\src\services\dev_bind\os/os.h **** 
 213:..\..\..\..\cloud\alicloud\src\services\dev_bind\os/os.h **** /**
 214:..\..\..\..\cloud\alicloud\src\services\dev_bind\os/os.h ****  * @brief sleep thread itself.
 215:..\..\..\..\cloud\alicloud\src\services\dev_bind\os/os.h ****  *
 216:..\..\..\..\cloud\alicloud\src\services\dev_bind\os/os.h ****  * @param[in] sec @n the time interval for which execution is to be suspended, in seconds.
 217:..\..\..\..\cloud\alicloud\src\services\dev_bind\os/os.h ****  * @return None.
 218:..\..\..\..\cloud\alicloud\src\services\dev_bind\os/os.h ****  * @see None.
 219:..\..\..\..\cloud\alicloud\src\services\dev_bind\os/os.h ****  * @note None.
 220:..\..\..\..\cloud\alicloud\src\services\dev_bind\os/os.h ****  */
 221:..\..\..\..\cloud\alicloud\src\services\dev_bind\os/os.h **** static inline void os_sleep(_IN_ uint32_t sec)
 222:..\..\..\..\cloud\alicloud\src\services\dev_bind\os/os.h **** {
 223:..\..\..\..\cloud\alicloud\src\services\dev_bind\os/os.h ****     platform_msleep(sec * 1000);
 224:..\..\..\..\cloud\alicloud\src\services\dev_bind\os/os.h **** }
 225:..\..\..\..\cloud\alicloud\src\services\dev_bind\os/os.h **** 
 226:..\..\..\..\cloud\alicloud\src\services\dev_bind\os/os.h **** /**
 227:..\..\..\..\cloud\alicloud\src\services\dev_bind\os/os.h ****  * @brief system reboot immediately.
 228:..\..\..\..\cloud\alicloud\src\services\dev_bind\os/os.h ****  *
 229:..\..\..\..\cloud\alicloud\src\services\dev_bind\os/os.h ****  * @return None.
 230:..\..\..\..\cloud\alicloud\src\services\dev_bind\os/os.h ****  * @see None.
 231:..\..\..\..\cloud\alicloud\src\services\dev_bind\os/os.h ****  * @note None.
 232:..\..\..\..\cloud\alicloud\src\services\dev_bind\os/os.h ****  */
 233:..\..\..\..\cloud\alicloud\src\services\dev_bind\os/os.h **** static inline void os_reboot()
 234:..\..\..\..\cloud\alicloud\src\services\dev_bind\os/os.h **** {
 235:..\..\..\..\cloud\alicloud\src\services\dev_bind\os/os.h ****     platform_reboot();
 236:..\..\..\..\cloud\alicloud\src\services\dev_bind\os/os.h **** }
 237:..\..\..\..\cloud\alicloud\src\services\dev_bind\os/os.h **** 
 238:..\..\..\..\cloud\alicloud\src\services\dev_bind\os/os.h **** /** @} *///end of os_misc
 239:..\..\..\..\cloud\alicloud\src\services\dev_bind\os/os.h **** 
 240:..\..\..\..\cloud\alicloud\src\services\dev_bind\os/os.h **** /***************************************** mutex Interface ****************************************
 241:..\..\..\..\cloud\alicloud\src\services\dev_bind\os/os.h **** 
 242:..\..\..\..\cloud\alicloud\src\services\dev_bind\os/os.h **** /** @defgroup group_os_mutex mutex
 243:..\..\..\..\cloud\alicloud\src\services\dev_bind\os/os.h ****  *  @{
 244:..\..\..\..\cloud\alicloud\src\services\dev_bind\os/os.h ****  */
 245:..\..\..\..\cloud\alicloud\src\services\dev_bind\os/os.h **** 
 246:..\..\..\..\cloud\alicloud\src\services\dev_bind\os/os.h **** /**
 247:..\..\..\..\cloud\alicloud\src\services\dev_bind\os/os.h ****  * @brief Create a mutex.
 248:..\..\..\..\cloud\alicloud\src\services\dev_bind\os/os.h ****  *
 249:..\..\..\..\cloud\alicloud\src\services\dev_bind\os/os.h ****  * @return Mutex handle.
 250:..\..\..\..\cloud\alicloud\src\services\dev_bind\os/os.h ****  * @see None.
 251:..\..\..\..\cloud\alicloud\src\services\dev_bind\os/os.h ****  * @note None.
 252:..\..\..\..\cloud\alicloud\src\services\dev_bind\os/os.h ****  */
 253:..\..\..\..\cloud\alicloud\src\services\dev_bind\os/os.h **** static inline void *os_mutex_init(void)
 254:..\..\..\..\cloud\alicloud\src\services\dev_bind\os/os.h **** {
 255:..\..\..\..\cloud\alicloud\src\services\dev_bind\os/os.h ****     return platform_mutex_init();
 256:..\..\..\..\cloud\alicloud\src\services\dev_bind\os/os.h **** }
 257:..\..\..\..\cloud\alicloud\src\services\dev_bind\os/os.h **** 
 258:..\..\..\..\cloud\alicloud\src\services\dev_bind\os/os.h **** /**
 259:..\..\..\..\cloud\alicloud\src\services\dev_bind\os/os.h ****  * @brief Destroy the specified mutex object, it will free related resource.
 260:..\..\..\..\cloud\alicloud\src\services\dev_bind\os/os.h ****  *
 261:..\..\..\..\cloud\alicloud\src\services\dev_bind\os/os.h ****  * @param[in] mutex @n The specified mutex.
 262:..\..\..\..\cloud\alicloud\src\services\dev_bind\os/os.h ****  * @return None.
 263:..\..\..\..\cloud\alicloud\src\services\dev_bind\os/os.h ****  * @see None.
 264:..\..\..\..\cloud\alicloud\src\services\dev_bind\os/os.h ****  * @note None.
 265:..\..\..\..\cloud\alicloud\src\services\dev_bind\os/os.h ****  */
 266:..\..\..\..\cloud\alicloud\src\services\dev_bind\os/os.h **** static inline void os_mutex_destroy(_IN_ void *mutex)
 267:..\..\..\..\cloud\alicloud\src\services\dev_bind\os/os.h **** {
 268:..\..\..\..\cloud\alicloud\src\services\dev_bind\os/os.h ****     platform_mutex_destroy(mutex);
 269:..\..\..\..\cloud\alicloud\src\services\dev_bind\os/os.h **** }
 270:..\..\..\..\cloud\alicloud\src\services\dev_bind\os/os.h **** 
 271:..\..\..\..\cloud\alicloud\src\services\dev_bind\os/os.h **** /**
 272:..\..\..\..\cloud\alicloud\src\services\dev_bind\os/os.h ****  * @brief Waits until the specified mutex is in the signaled state.
 273:..\..\..\..\cloud\alicloud\src\services\dev_bind\os/os.h ****  *
 274:..\..\..\..\cloud\alicloud\src\services\dev_bind\os/os.h ****  * @param[in] mutex @n the specified mutex.
 275:..\..\..\..\cloud\alicloud\src\services\dev_bind\os/os.h ****  * @return None.
 276:..\..\..\..\cloud\alicloud\src\services\dev_bind\os/os.h ****  * @see None.
 277:..\..\..\..\cloud\alicloud\src\services\dev_bind\os/os.h ****  * @note None.
 278:..\..\..\..\cloud\alicloud\src\services\dev_bind\os/os.h ****  */
 279:..\..\..\..\cloud\alicloud\src\services\dev_bind\os/os.h **** static inline void os_mutex_lock(_IN_ void *mutex)
 280:..\..\..\..\cloud\alicloud\src\services\dev_bind\os/os.h **** {
 281:..\..\..\..\cloud\alicloud\src\services\dev_bind\os/os.h ****     platform_mutex_lock(mutex);
 282:..\..\..\..\cloud\alicloud\src\services\dev_bind\os/os.h **** }
 283:..\..\..\..\cloud\alicloud\src\services\dev_bind\os/os.h **** 
 284:..\..\..\..\cloud\alicloud\src\services\dev_bind\os/os.h **** /**
 285:..\..\..\..\cloud\alicloud\src\services\dev_bind\os/os.h ****  * @brief Releases ownership of the specified mutex object..
 286:..\..\..\..\cloud\alicloud\src\services\dev_bind\os/os.h ****  *
 287:..\..\..\..\cloud\alicloud\src\services\dev_bind\os/os.h ****  * @param[in] mutex @n the specified mutex.
 288:..\..\..\..\cloud\alicloud\src\services\dev_bind\os/os.h ****  * @return None.
 289:..\..\..\..\cloud\alicloud\src\services\dev_bind\os/os.h ****  * @see None.
 290:..\..\..\..\cloud\alicloud\src\services\dev_bind\os/os.h ****  * @note None.
 291:..\..\..\..\cloud\alicloud\src\services\dev_bind\os/os.h ****  */
 292:..\..\..\..\cloud\alicloud\src\services\dev_bind\os/os.h **** static inline void os_mutex_unlock(_IN_ void *mutex)
 293:..\..\..\..\cloud\alicloud\src\services\dev_bind\os/os.h **** {
 294:..\..\..\..\cloud\alicloud\src\services\dev_bind\os/os.h ****     platform_mutex_unlock(mutex);
 295:..\..\..\..\cloud\alicloud\src\services\dev_bind\os/os.h **** }
 296:..\..\..\..\cloud\alicloud\src\services\dev_bind\os/os.h **** 
 297:..\..\..\..\cloud\alicloud\src\services\dev_bind\os/os.h **** /** @} */// end of os_mutex
 298:..\..\..\..\cloud\alicloud\src\services\dev_bind\os/os.h **** 
 299:..\..\..\..\cloud\alicloud\src\services\dev_bind\os/os.h **** /*************************************** semaphore Interface **************************************
 300:..\..\..\..\cloud\alicloud\src\services\dev_bind\os/os.h **** 
 301:..\..\..\..\cloud\alicloud\src\services\dev_bind\os/os.h **** /** @defgroup group_os_semaphore semaphore
 302:..\..\..\..\cloud\alicloud\src\services\dev_bind\os/os.h ****  *  @{
 303:..\..\..\..\cloud\alicloud\src\services\dev_bind\os/os.h ****  */
 304:..\..\..\..\cloud\alicloud\src\services\dev_bind\os/os.h **** 
 305:..\..\..\..\cloud\alicloud\src\services\dev_bind\os/os.h **** /**
 306:..\..\..\..\cloud\alicloud\src\services\dev_bind\os/os.h ****  * @brief Create a semaphore.
 307:..\..\..\..\cloud\alicloud\src\services\dev_bind\os/os.h ****  *
 308:..\..\..\..\cloud\alicloud\src\services\dev_bind\os/os.h ****  * @return semaphore handle.
 309:..\..\..\..\cloud\alicloud\src\services\dev_bind\os/os.h ****  * @see None.
 310:..\..\..\..\cloud\alicloud\src\services\dev_bind\os/os.h ****  * @note The recommended value of maximum count of the semaphore is 255.
 311:..\..\..\..\cloud\alicloud\src\services\dev_bind\os/os.h ****  */
 312:..\..\..\..\cloud\alicloud\src\services\dev_bind\os/os.h **** static inline void *os_semaphore_init(void)
 313:..\..\..\..\cloud\alicloud\src\services\dev_bind\os/os.h **** {
 314:..\..\..\..\cloud\alicloud\src\services\dev_bind\os/os.h ****     return platform_semaphore_init();
 315:..\..\..\..\cloud\alicloud\src\services\dev_bind\os/os.h **** }
 316:..\..\..\..\cloud\alicloud\src\services\dev_bind\os/os.h **** 
 317:..\..\..\..\cloud\alicloud\src\services\dev_bind\os/os.h **** /**
 318:..\..\..\..\cloud\alicloud\src\services\dev_bind\os/os.h ****  * @brief Destroy the specified semaphore object, it will free related resource.
 319:..\..\..\..\cloud\alicloud\src\services\dev_bind\os/os.h ****  *
 320:..\..\..\..\cloud\alicloud\src\services\dev_bind\os/os.h ****  * @param[in] sem @n the specified sem.
 321:..\..\..\..\cloud\alicloud\src\services\dev_bind\os/os.h ****  * @return None.
 322:..\..\..\..\cloud\alicloud\src\services\dev_bind\os/os.h ****  * @see None.
 323:..\..\..\..\cloud\alicloud\src\services\dev_bind\os/os.h ****  * @note None.
 324:..\..\..\..\cloud\alicloud\src\services\dev_bind\os/os.h ****  */
 325:..\..\..\..\cloud\alicloud\src\services\dev_bind\os/os.h **** static inline void os_semaphore_destroy(_IN_ void *sem)
 326:..\..\..\..\cloud\alicloud\src\services\dev_bind\os/os.h **** {
 327:..\..\..\..\cloud\alicloud\src\services\dev_bind\os/os.h ****     platform_semaphore_destroy(sem);
 328:..\..\..\..\cloud\alicloud\src\services\dev_bind\os/os.h **** }
 329:..\..\..\..\cloud\alicloud\src\services\dev_bind\os/os.h **** 
 330:..\..\..\..\cloud\alicloud\src\services\dev_bind\os/os.h **** /**
 331:..\..\..\..\cloud\alicloud\src\services\dev_bind\os/os.h ****  * @brief Wait until the specified mutex is in the signaled state or the time-out interval elapses.
 332:..\..\..\..\cloud\alicloud\src\services\dev_bind\os/os.h ****  *
 333:..\..\..\..\cloud\alicloud\src\services\dev_bind\os/os.h ****  * @param[in] sem @n the specified semaphore.
 334:..\..\..\..\cloud\alicloud\src\services\dev_bind\os/os.h ****  * @param[in] timeout_ms @n timeout interval in millisecond.
 335:..\..\..\..\cloud\alicloud\src\services\dev_bind\os/os.h ****      If timeout_ms is OS_WAIT_INFINITE, the function will return only when the semaphore is signale
 336:..\..\..\..\cloud\alicloud\src\services\dev_bind\os/os.h ****  * @return
 337:..\..\..\..\cloud\alicloud\src\services\dev_bind\os/os.h ****    @verbatim
 338:..\..\..\..\cloud\alicloud\src\services\dev_bind\os/os.h ****    =  0: The state of the specified object is signaled.
 339:..\..\..\..\cloud\alicloud\src\services\dev_bind\os/os.h ****    =  -1: The time-out interval elapsed, and the object's state is nonsignaled.
 340:..\..\..\..\cloud\alicloud\src\services\dev_bind\os/os.h ****    @endverbatim
 341:..\..\..\..\cloud\alicloud\src\services\dev_bind\os/os.h ****  * @see None.
 342:..\..\..\..\cloud\alicloud\src\services\dev_bind\os/os.h ****  * @note None.
 343:..\..\..\..\cloud\alicloud\src\services\dev_bind\os/os.h ****  */
 344:..\..\..\..\cloud\alicloud\src\services\dev_bind\os/os.h **** static inline int os_semaphore_wait(_IN_ void *sem, _IN_ uint32_t timeout_ms)
 345:..\..\..\..\cloud\alicloud\src\services\dev_bind\os/os.h **** {
 346:..\..\..\..\cloud\alicloud\src\services\dev_bind\os/os.h ****     return platform_semaphore_wait(sem, timeout_ms);
 347:..\..\..\..\cloud\alicloud\src\services\dev_bind\os/os.h **** }
 348:..\..\..\..\cloud\alicloud\src\services\dev_bind\os/os.h **** 
 349:..\..\..\..\cloud\alicloud\src\services\dev_bind\os/os.h **** /**
 350:..\..\..\..\cloud\alicloud\src\services\dev_bind\os/os.h ****  * @brief Increases the count of the specified semaphore object by 1.
 351:..\..\..\..\cloud\alicloud\src\services\dev_bind\os/os.h ****  *
 352:..\..\..\..\cloud\alicloud\src\services\dev_bind\os/os.h ****  * @param[in] sem @n the specified semaphore.
 353:..\..\..\..\cloud\alicloud\src\services\dev_bind\os/os.h ****  * @return None.
 354:..\..\..\..\cloud\alicloud\src\services\dev_bind\os/os.h ****  * @see None.
 355:..\..\..\..\cloud\alicloud\src\services\dev_bind\os/os.h ****  * @note None.
 356:..\..\..\..\cloud\alicloud\src\services\dev_bind\os/os.h ****  */
 357:..\..\..\..\cloud\alicloud\src\services\dev_bind\os/os.h **** static inline void os_semaphore_post(_IN_ void *sem)
 358:..\..\..\..\cloud\alicloud\src\services\dev_bind\os/os.h **** {
 359:..\..\..\..\cloud\alicloud\src\services\dev_bind\os/os.h ****     platform_semaphore_post(sem);
 360:..\..\..\..\cloud\alicloud\src\services\dev_bind\os/os.h **** }
 361:..\..\..\..\cloud\alicloud\src\services\dev_bind\os/os.h **** 
 362:..\..\..\..\cloud\alicloud\src\services\dev_bind\os/os.h **** /** @} */// end of os_semaphore
 363:..\..\..\..\cloud\alicloud\src\services\dev_bind\os/os.h **** 
 364:..\..\..\..\cloud\alicloud\src\services\dev_bind\os/os.h **** /**************************************** memory Interface ****************************************
 365:..\..\..\..\cloud\alicloud\src\services\dev_bind\os/os.h **** 
 366:..\..\..\..\cloud\alicloud\src\services\dev_bind\os/os.h **** /** @defgroup group_os_memory_manage memory
 367:..\..\..\..\cloud\alicloud\src\services\dev_bind\os/os.h ****  *  @{
 368:..\..\..\..\cloud\alicloud\src\services\dev_bind\os/os.h ****  */
 369:..\..\..\..\cloud\alicloud\src\services\dev_bind\os/os.h **** 
 370:..\..\..\..\cloud\alicloud\src\services\dev_bind\os/os.h **** /**
 371:..\..\..\..\cloud\alicloud\src\services\dev_bind\os/os.h ****  * @brief Allocates a block of size bytes of memory, returning a pointer to the beginning of the bl
 372:..\..\..\..\cloud\alicloud\src\services\dev_bind\os/os.h ****  *
 373:..\..\..\..\cloud\alicloud\src\services\dev_bind\os/os.h ****  * @param[in] size @n specify block size in bytes.
 374:..\..\..\..\cloud\alicloud\src\services\dev_bind\os/os.h ****  * @return A pointer to the beginning of the block.
 375:..\..\..\..\cloud\alicloud\src\services\dev_bind\os/os.h ****  * @see None.
 376:..\..\..\..\cloud\alicloud\src\services\dev_bind\os/os.h ****  * @note Block value is indeterminate.
 377:..\..\..\..\cloud\alicloud\src\services\dev_bind\os/os.h ****  */
 378:..\..\..\..\cloud\alicloud\src\services\dev_bind\os/os.h **** static inline void *os_malloc(_IN_ uint32_t size)
 379:..\..\..\..\cloud\alicloud\src\services\dev_bind\os/os.h **** {
 380:..\..\..\..\cloud\alicloud\src\services\dev_bind\os/os.h ****     return platform_malloc(size);
 381:..\..\..\..\cloud\alicloud\src\services\dev_bind\os/os.h **** }
 382:..\..\..\..\cloud\alicloud\src\services\dev_bind\os/os.h **** 
 383:..\..\..\..\cloud\alicloud\src\services\dev_bind\os/os.h **** 
 384:..\..\..\..\cloud\alicloud\src\services\dev_bind\os/os.h **** /**
 385:..\..\..\..\cloud\alicloud\src\services\dev_bind\os/os.h ****  * @brief Deallocate memory block
 386:..\..\..\..\cloud\alicloud\src\services\dev_bind\os/os.h ****  *
 387:..\..\..\..\cloud\alicloud\src\services\dev_bind\os/os.h ****  * @param[in] ptr @n Pointer to a memory block previously allocated with platform_malloc.
 388:..\..\..\..\cloud\alicloud\src\services\dev_bind\os/os.h ****  * @return None.
 389:..\..\..\..\cloud\alicloud\src\services\dev_bind\os/os.h ****  * @see None.
 390:..\..\..\..\cloud\alicloud\src\services\dev_bind\os/os.h ****  * @note None.
 391:..\..\..\..\cloud\alicloud\src\services\dev_bind\os/os.h ****  */
 392:..\..\..\..\cloud\alicloud\src\services\dev_bind\os/os.h **** static inline void os_free(_IN_ void *ptr)
 393:..\..\..\..\cloud\alicloud\src\services\dev_bind\os/os.h **** {
 394:..\..\..\..\cloud\alicloud\src\services\dev_bind\os/os.h ****     platform_free(ptr);
 395:..\..\..\..\cloud\alicloud\src\services\dev_bind\os/os.h **** }
 396:..\..\..\..\cloud\alicloud\src\services\dev_bind\os/os.h **** 
 397:..\..\..\..\cloud\alicloud\src\services\dev_bind\os/os.h **** /**
 398:..\..\..\..\cloud\alicloud\src\services\dev_bind\os/os.h ****  * @brief Allocates a memory block with memory initialized to 0,
 399:..\..\..\..\cloud\alicloud\src\services\dev_bind\os/os.h ****      returning a pointer to the beginning of the block.
 400:..\..\..\..\cloud\alicloud\src\services\dev_bind\os/os.h ****  *
 401:..\..\..\..\cloud\alicloud\src\services\dev_bind\os/os.h ****  * @param[in] size @n specify block size in bytes.
 402:..\..\..\..\cloud\alicloud\src\services\dev_bind\os/os.h ****  * @return A pointer to the beginning of the block.
 403:..\..\..\..\cloud\alicloud\src\services\dev_bind\os/os.h ****  * @see None.
 404:..\..\..\..\cloud\alicloud\src\services\dev_bind\os/os.h ****  * @note Block value is indeterminate.
 405:..\..\..\..\cloud\alicloud\src\services\dev_bind\os/os.h ****  */
 406:..\..\..\..\cloud\alicloud\src\services\dev_bind\os/os.h **** static inline void *os_zalloc(uint32_t size)
 407:..\..\..\..\cloud\alicloud\src\services\dev_bind\os/os.h **** {
 408:..\..\..\..\cloud\alicloud\src\services\dev_bind\os/os.h ****     void *ptr = os_malloc(size);
 409:..\..\..\..\cloud\alicloud\src\services\dev_bind\os/os.h ****     if (ptr != NULL) {
 410:..\..\..\..\cloud\alicloud\src\services\dev_bind\os/os.h ****         memset(ptr, 0, size);
 411:..\..\..\..\cloud\alicloud\src\services\dev_bind\os/os.h ****     }
 412:..\..\..\..\cloud\alicloud\src\services\dev_bind\os/os.h ****     return ptr;
 413:..\..\..\..\cloud\alicloud\src\services\dev_bind\os/os.h **** }
 414:..\..\..\..\cloud\alicloud\src\services\dev_bind\os/os.h **** 
 415:..\..\..\..\cloud\alicloud\src\services\dev_bind\os/os.h **** /** @} */// end of os_memory_manage
 416:..\..\..\..\cloud\alicloud\src\services\dev_bind\os/os.h **** 
 417:..\..\..\..\cloud\alicloud\src\services\dev_bind\os/os.h **** /**************************************** system Interface ****************************************
 418:..\..\..\..\cloud\alicloud\src\services\dev_bind\os/os.h **** 
 419:..\..\..\..\cloud\alicloud\src\services\dev_bind\os/os.h **** /** @defgroup group_os_system system
 420:..\..\..\..\cloud\alicloud\src\services\dev_bind\os/os.h ****  *  @{
 421:..\..\..\..\cloud\alicloud\src\services\dev_bind\os/os.h ****  */
 422:..\..\..\..\cloud\alicloud\src\services\dev_bind\os/os.h **** 
 423:..\..\..\..\cloud\alicloud\src\services\dev_bind\os/os.h **** /**
 424:..\..\..\..\cloud\alicloud\src\services\dev_bind\os/os.h ****  * @brief check system network is ready(get ip address) or not.
 425:..\..\..\..\cloud\alicloud\src\services\dev_bind\os/os.h ****  *
 426:..\..\..\..\cloud\alicloud\src\services\dev_bind\os/os.h ****  * @param None.
 427:..\..\..\..\cloud\alicloud\src\services\dev_bind\os/os.h ****  * @return 0, net is not ready; 1, net is ready.
 428:..\..\..\..\cloud\alicloud\src\services\dev_bind\os/os.h ****  * @see None.
 429:..\..\..\..\cloud\alicloud\src\services\dev_bind\os/os.h ****  * @note None.
 430:..\..\..\..\cloud\alicloud\src\services\dev_bind\os/os.h ****  */
 431:..\..\..\..\cloud\alicloud\src\services\dev_bind\os/os.h **** static inline int os_sys_net_is_ready(void)
 432:..\..\..\..\cloud\alicloud\src\services\dev_bind\os/os.h **** {
 433:..\..\..\..\cloud\alicloud\src\services\dev_bind\os/os.h ****     return platform_sys_net_is_ready();
 434:..\..\..\..\cloud\alicloud\src\services\dev_bind\os/os.h **** }
 435:..\..\..\..\cloud\alicloud\src\services\dev_bind\os/os.h **** 
 436:..\..\..\..\cloud\alicloud\src\services\dev_bind\os/os.h **** /**
 437:..\..\..\..\cloud\alicloud\src\services\dev_bind\os/os.h ****  * @brief Retrieves the number of milliseconds that have elapsed since the system was boot.
 438:..\..\..\..\cloud\alicloud\src\services\dev_bind\os/os.h ****  *
 439:..\..\..\..\cloud\alicloud\src\services\dev_bind\os/os.h ****  * @param None.
 440:..\..\..\..\cloud\alicloud\src\services\dev_bind\os/os.h ****  * @return the number of milliseconds.
 441:..\..\..\..\cloud\alicloud\src\services\dev_bind\os/os.h ****  * @see None.
 442:..\..\..\..\cloud\alicloud\src\services\dev_bind\os/os.h ****  * @note Add a big offset, for easier caught time overflow bug.
 443:..\..\..\..\cloud\alicloud\src\services\dev_bind\os/os.h ****  */
 444:..\..\..\..\cloud\alicloud\src\services\dev_bind\os/os.h **** static inline uint32_t os_get_time_ms(void)
 445:..\..\..\..\cloud\alicloud\src\services\dev_bind\os/os.h **** {
  33              		.loc 2 445 1 is_stmt 1
  34              		.cfi_startproc
  35 0000 17030000 		call	t0,__riscv_save_1
  35      E7020300 
  36              		.cfi_offset 8, -8
  37              		.cfi_offset 1, -4
  38              		.cfi_def_cfa_offset 16
 446:..\..\..\..\cloud\alicloud\src\services\dev_bind\os/os.h ****     static uint32_t fixed_delta;
  39              		.loc 2 446 5
 447:..\..\..\..\cloud\alicloud\src\services\dev_bind\os/os.h **** 
 448:..\..\..\..\cloud\alicloud\src\services\dev_bind\os/os.h ****     if (!fixed_delta) {
  40              		.loc 2 448 5
  41              		.loc 2 448 9 is_stmt 0
  42 0008 37040000 		lui	s0,%hi(.LANCHOR1)
  43              		.loc 2 448 8
  44 000c 83270400 		lw	a5,%lo(.LANCHOR1)(s0)
  45 0010 13040400 		addi	s0,s0,%lo(.LANCHOR1)
  46 0014 81EB     		bne	a5,zero,.L3
 449:..\..\..\..\cloud\alicloud\src\services\dev_bind\os/os.h ****         fixed_delta = platform_get_time_ms() - 0xFFFF0000;
  47              		.loc 2 449 9 is_stmt 1
  48              		.loc 2 449 23 is_stmt 0
  49 0016 97000000 		call	HAL_UptimeMs
  49      E7800000 
  50              	.LVL0:
  51              		.loc 2 449 46
  52 001e C167     		li	a5,65536
  53 0020 AA97     		add	a5,a5,a0
  54              		.loc 2 449 21
  55 0022 1CC0     		sw	a5,0(s0)
  56              	.L3:
 450:..\..\..\..\cloud\alicloud\src\services\dev_bind\os/os.h ****     }
 451:..\..\..\..\cloud\alicloud\src\services\dev_bind\os/os.h **** 
 452:..\..\..\..\cloud\alicloud\src\services\dev_bind\os/os.h ****     /* add a big offset, for easier caught time overflow bug */
 453:..\..\..\..\cloud\alicloud\src\services\dev_bind\os/os.h ****     return platform_get_time_ms() - fixed_delta;
  57              		.loc 2 453 5 is_stmt 1
  58              		.loc 2 453 12 is_stmt 0
  59 0024 97000000 		call	HAL_UptimeMs
  59      E7800000 
  60              	.LVL1:
  61              		.loc 2 453 35
  62 002c 1C40     		lw	a5,0(s0)
 454:..\..\..\..\cloud\alicloud\src\services\dev_bind\os/os.h **** }
  63              		.loc 2 454 1
  64 002e 1D8D     		sub	a0,a0,a5
  65 0030 17030000 		tail	__riscv_restore_1
  65      67000300 
  66              		.cfi_restore 8
  67              		.cfi_restore 1
  68              		.cfi_def_cfa_offset 0
  69              		.cfi_endproc
  70              	.LFE20:
  72              		.section	.text.aws_80211_frame_handler,"ax",@progbits
  73              		.align	1
  74              		.globl	aws_80211_frame_handler
  76              	aws_80211_frame_handler:
  77              	.LFB62:
 609:C:/Users/stapi/OneDrive/Desktop/GD32VW553/V1_MQTT_OK/GD32VW55X_Wifi_BLE_SDK/GD32VW55x_RELEASE_V1.0.2/MSDK/cloud/alicloud/src/services/awss\zconfig_vendor_common.c **** 
 610:C:/Users/stapi/OneDrive/Desktop/GD32VW553/V1_MQTT_OK/GD32VW55X_Wifi_BLE_SDK/GD32VW55x_RELEASE_V1.0.2/MSDK/cloud/alicloud/src/services/awss\zconfig_vendor_common.c **** int aws_80211_frame_handler(char *buf, int length, enum AWSS_LINK_TYPE link_type, int with_fcs, sig
 611:C:/Users/stapi/OneDrive/Desktop/GD32VW553/V1_MQTT_OK/GD32VW55X_Wifi_BLE_SDK/GD32VW55x_RELEASE_V1.0.2/MSDK/cloud/alicloud/src/services/awss\zconfig_vendor_common.c **** {
  78              		.loc 1 611 1 is_stmt 1
  79              		.cfi_startproc
  80              	.LVL2:
  81 0000 17030000 		call	t0,__riscv_save_3
  81      E7020300 
  82              		.cfi_offset 18, -16
  83              		.cfi_offset 9, -12
  84              		.cfi_offset 8, -8
  85              		.cfi_offset 1, -4
  86              		.cfi_def_cfa_offset 16
 612:C:/Users/stapi/OneDrive/Desktop/GD32VW553/V1_MQTT_OK/GD32VW55X_Wifi_BLE_SDK/GD32VW55x_RELEASE_V1.0.2/MSDK/cloud/alicloud/src/services/awss\zconfig_vendor_common.c ****     static uint32_t lock_start;
  87              		.loc 1 612 5
 613:C:/Users/stapi/OneDrive/Desktop/GD32VW553/V1_MQTT_OK/GD32VW55X_Wifi_BLE_SDK/GD32VW55x_RELEASE_V1.0.2/MSDK/cloud/alicloud/src/services/awss\zconfig_vendor_common.c **** 
 614:C:/Users/stapi/OneDrive/Desktop/GD32VW553/V1_MQTT_OK/GD32VW55X_Wifi_BLE_SDK/GD32VW55x_RELEASE_V1.0.2/MSDK/cloud/alicloud/src/services/awss\zconfig_vendor_common.c ****     int ret = zconfig_recv_callback(buf, length, aws_cur_chn, link_type, with_fcs, rssi);
  88              		.loc 1 614 5
  89              		.loc 1 614 50 is_stmt 0
  90 0008 B7040000 		lui	s1,%hi(.LANCHOR2)
  91 000c 13890400 		addi	s2,s1,%lo(.LANCHOR2)
  92              		.loc 1 614 15
  93 0010 03280900 		lw	a6,0(s2)
 611:C:/Users/stapi/OneDrive/Desktop/GD32VW553/V1_MQTT_OK/GD32VW55X_Wifi_BLE_SDK/GD32VW55x_RELEASE_V1.0.2/MSDK/cloud/alicloud/src/services/awss\zconfig_vendor_common.c ****     static uint32_t lock_start;
  94              		.loc 1 611 1
  95 0014 BA87     		mv	a5,a4
  96              		.loc 1 614 15
  97 0016 3687     		mv	a4,a3
  98              	.LVL3:
  99 0018 B286     		mv	a3,a2
 100              	.LVL4:
 101 001a 03461800 		lbu	a2,1(a6)
 102              	.LVL5:
 103 001e 97000000 		call	zconfig_recv_callback
 103      E7800000 
 104              	.LVL6:
 615:C:/Users/stapi/OneDrive/Desktop/GD32VW553/V1_MQTT_OK/GD32VW55X_Wifi_BLE_SDK/GD32VW55x_RELEASE_V1.0.2/MSDK/cloud/alicloud/src/services/awss\zconfig_vendor_common.c **** 
 616:C:/Users/stapi/OneDrive/Desktop/GD32VW553/V1_MQTT_OK/GD32VW55X_Wifi_BLE_SDK/GD32VW55x_RELEASE_V1.0.2/MSDK/cloud/alicloud/src/services/awss\zconfig_vendor_common.c ****     if (aws_state == AWS_CHN_LOCKED) {
 105              		.loc 1 616 9
 106 0026 83270900 		lw	a5,0(s2)
 107              		.loc 1 616 8
 108 002a 0547     		li	a4,1
 614:C:/Users/stapi/OneDrive/Desktop/GD32VW553/V1_MQTT_OK/GD32VW55X_Wifi_BLE_SDK/GD32VW55x_RELEASE_V1.0.2/MSDK/cloud/alicloud/src/services/awss\zconfig_vendor_common.c **** 
 109              		.loc 1 614 15
 110 002c 2A84     		mv	s0,a0
 111              	.LVL7:
 112              		.loc 1 616 5 is_stmt 1
 113              		.loc 1 616 8 is_stmt 0
 114 002e 83C70700 		lbu	a5,0(a5)
 115 0032 6393E702 		bne	a5,a4,.L5
 116 0036 37090000 		lui	s2,%hi(.LANCHOR3)
 617:C:/Users/stapi/OneDrive/Desktop/GD32VW553/V1_MQTT_OK/GD32VW55X_Wifi_BLE_SDK/GD32VW55x_RELEASE_V1.0.2/MSDK/cloud/alicloud/src/services/awss\zconfig_vendor_common.c ****         switch (ret) {
 117              		.loc 1 617 9
 118 003a 0D47     		li	a4,3
 119 003c 93840400 		addi	s1,s1,%lo(.LANCHOR2)
 120              		.loc 1 617 9 is_stmt 1
 121 0040 13090900 		addi	s2,s2,%lo(.LANCHOR3)
 122 0044 634FA700 		bgt	a0,a4,.L8
 123 0048 63D1A702 		ble	a0,a5,.L10
 124              	.L9:
 618:C:/Users/stapi/OneDrive/Desktop/GD32VW553/V1_MQTT_OK/GD32VW55X_Wifi_BLE_SDK/GD32VW55x_RELEASE_V1.0.2/MSDK/cloud/alicloud/src/services/awss\zconfig_vendor_common.c ****             case PKG_START_FRAME:
 619:C:/Users/stapi/OneDrive/Desktop/GD32VW553/V1_MQTT_OK/GD32VW55X_Wifi_BLE_SDK/GD32VW55x_RELEASE_V1.0.2/MSDK/cloud/alicloud/src/services/awss\zconfig_vendor_common.c ****             case PKG_DATA_FRAME:
 620:C:/Users/stapi/OneDrive/Desktop/GD32VW553/V1_MQTT_OK/GD32VW55X_Wifi_BLE_SDK/GD32VW55x_RELEASE_V1.0.2/MSDK/cloud/alicloud/src/services/awss\zconfig_vendor_common.c ****             case PKG_GROUP_FRAME:
 621:C:/Users/stapi/OneDrive/Desktop/GD32VW553/V1_MQTT_OK/GD32VW55X_Wifi_BLE_SDK/GD32VW55x_RELEASE_V1.0.2/MSDK/cloud/alicloud/src/services/awss\zconfig_vendor_common.c ****             case PKG_MCAST_FRAME:
 622:C:/Users/stapi/OneDrive/Desktop/GD32VW553/V1_MQTT_OK/GD32VW55X_Wifi_BLE_SDK/GD32VW55x_RELEASE_V1.0.2/MSDK/cloud/alicloud/src/services/awss\zconfig_vendor_common.c ****                 lock_start = os_get_time_ms();
 125              		.loc 1 622 17
 126              		.loc 1 622 30 is_stmt 0
 127 004c 97000000 		call	os_get_time_ms
 127      E7800000 
 128              	.LVL8:
 129              		.loc 1 622 28
 130 0054 2320A900 		sw	a0,0(s2)
 623:C:/Users/stapi/OneDrive/Desktop/GD32VW553/V1_MQTT_OK/GD32VW55X_Wifi_BLE_SDK/GD32VW55x_RELEASE_V1.0.2/MSDK/cloud/alicloud/src/services/awss\zconfig_vendor_common.c ****                 break;
 131              		.loc 1 623 17 is_stmt 1
 132              	.L5:
 624:C:/Users/stapi/OneDrive/Desktop/GD32VW553/V1_MQTT_OK/GD32VW55X_Wifi_BLE_SDK/GD32VW55x_RELEASE_V1.0.2/MSDK/cloud/alicloud/src/services/awss\zconfig_vendor_common.c ****             default:
 625:C:/Users/stapi/OneDrive/Desktop/GD32VW553/V1_MQTT_OK/GD32VW55X_Wifi_BLE_SDK/GD32VW55x_RELEASE_V1.0.2/MSDK/cloud/alicloud/src/services/awss\zconfig_vendor_common.c ****                 /* set to rescanning */
 626:C:/Users/stapi/OneDrive/Desktop/GD32VW553/V1_MQTT_OK/GD32VW55X_Wifi_BLE_SDK/GD32VW55x_RELEASE_V1.0.2/MSDK/cloud/alicloud/src/services/awss\zconfig_vendor_common.c ****                 if (time_elapsed_ms_since(lock_start) > aws_channel_lock_timeout_ms) {
 627:C:/Users/stapi/OneDrive/Desktop/GD32VW553/V1_MQTT_OK/GD32VW55X_Wifi_BLE_SDK/GD32VW55x_RELEASE_V1.0.2/MSDK/cloud/alicloud/src/services/awss\zconfig_vendor_common.c ****                     aws_state = AWS_SCANNING;
 628:C:/Users/stapi/OneDrive/Desktop/GD32VW553/V1_MQTT_OK/GD32VW55X_Wifi_BLE_SDK/GD32VW55x_RELEASE_V1.0.2/MSDK/cloud/alicloud/src/services/awss\zconfig_vendor_common.c ****                 }
 629:C:/Users/stapi/OneDrive/Desktop/GD32VW553/V1_MQTT_OK/GD32VW55X_Wifi_BLE_SDK/GD32VW55x_RELEASE_V1.0.2/MSDK/cloud/alicloud/src/services/awss\zconfig_vendor_common.c ****                 break;
 630:C:/Users/stapi/OneDrive/Desktop/GD32VW553/V1_MQTT_OK/GD32VW55X_Wifi_BLE_SDK/GD32VW55x_RELEASE_V1.0.2/MSDK/cloud/alicloud/src/services/awss\zconfig_vendor_common.c ****         }
 631:C:/Users/stapi/OneDrive/Desktop/GD32VW553/V1_MQTT_OK/GD32VW55X_Wifi_BLE_SDK/GD32VW55x_RELEASE_V1.0.2/MSDK/cloud/alicloud/src/services/awss\zconfig_vendor_common.c ****     }
 632:C:/Users/stapi/OneDrive/Desktop/GD32VW553/V1_MQTT_OK/GD32VW55X_Wifi_BLE_SDK/GD32VW55x_RELEASE_V1.0.2/MSDK/cloud/alicloud/src/services/awss\zconfig_vendor_common.c **** 
 633:C:/Users/stapi/OneDrive/Desktop/GD32VW553/V1_MQTT_OK/GD32VW55X_Wifi_BLE_SDK/GD32VW55x_RELEASE_V1.0.2/MSDK/cloud/alicloud/src/services/awss\zconfig_vendor_common.c ****     return ret;
 634:C:/Users/stapi/OneDrive/Desktop/GD32VW553/V1_MQTT_OK/GD32VW55X_Wifi_BLE_SDK/GD32VW55x_RELEASE_V1.0.2/MSDK/cloud/alicloud/src/services/awss\zconfig_vendor_common.c **** }
 133              		.loc 1 634 1 is_stmt 0
 134 0058 2285     		mv	a0,s0
 135 005a 17030000 		tail	__riscv_restore_3
 135      67000300 
 136              		.cfi_remember_state
 137              		.cfi_restore 18
 138              		.cfi_restore 9
 139              		.cfi_restore 8
 140              		.cfi_restore 1
 141              		.cfi_def_cfa_offset 0
 142              	.L8:
 143              		.cfi_restore_state
 617:C:/Users/stapi/OneDrive/Desktop/GD32VW553/V1_MQTT_OK/GD32VW55X_Wifi_BLE_SDK/GD32VW55x_RELEASE_V1.0.2/MSDK/cloud/alicloud/src/services/awss\zconfig_vendor_common.c ****             case PKG_START_FRAME:
 144              		.loc 1 617 9
 145 0062 1307B5FF 		addi	a4,a0,-5
 146 0066 E3F3E7FE 		bleu	a4,a5,.L9
 147              	.L10:
 626:C:/Users/stapi/OneDrive/Desktop/GD32VW553/V1_MQTT_OK/GD32VW55X_Wifi_BLE_SDK/GD32VW55x_RELEASE_V1.0.2/MSDK/cloud/alicloud/src/services/awss\zconfig_vendor_common.c ****                     aws_state = AWS_SCANNING;
 148              		.loc 1 626 17 is_stmt 1
 626:C:/Users/stapi/OneDrive/Desktop/GD32VW553/V1_MQTT_OK/GD32VW55X_Wifi_BLE_SDK/GD32VW55x_RELEASE_V1.0.2/MSDK/cloud/alicloud/src/services/awss\zconfig_vendor_common.c ****                     aws_state = AWS_SCANNING;
 149              		.loc 1 626 21 is_stmt 0
 150 006a 03290900 		lw	s2,0(s2)
 151              	.LVL9:
 152              	.LBB94:
 153              	.LBB95:
 455:..\..\..\..\cloud\alicloud\src\services\dev_bind\os/os.h **** 
 456:..\..\..\..\cloud\alicloud\src\services\dev_bind\os/os.h **** /*
 457:..\..\..\..\cloud\alicloud\src\services\dev_bind\os/os.h ****  *  These inlines deal with timer wrapping correctly. You are
 458:..\..\..\..\cloud\alicloud\src\services\dev_bind\os/os.h ****  *  strongly encouraged to use them
 459:..\..\..\..\cloud\alicloud\src\services\dev_bind\os/os.h ****  *  1. Because people otherwise forget
 460:..\..\..\..\cloud\alicloud\src\services\dev_bind\os/os.h ****  *  2. Because if the timer wrap changes in future you won't have to
 461:..\..\..\..\cloud\alicloud\src\services\dev_bind\os/os.h ****  *     alter your code.
 462:..\..\..\..\cloud\alicloud\src\services\dev_bind\os/os.h ****  */
 463:..\..\..\..\cloud\alicloud\src\services\dev_bind\os/os.h **** static inline uint32_t time_elapsed_ms_since(uint32_t start_timestamp)
 464:..\..\..\..\cloud\alicloud\src\services\dev_bind\os/os.h **** {
 465:..\..\..\..\cloud\alicloud\src\services\dev_bind\os/os.h ****     uint32_t now = os_get_time_ms();
 154              		.loc 2 465 5 is_stmt 1
 155              		.loc 2 465 20 is_stmt 0
 156 006e 97000000 		call	os_get_time_ms
 156      E7800000 
 157              	.LVL10:
 466:..\..\..\..\cloud\alicloud\src\services\dev_bind\os/os.h **** 
 467:..\..\..\..\cloud\alicloud\src\services\dev_bind\os/os.h ****     return now - start_timestamp;
 158              		.loc 2 467 5 is_stmt 1
 159              	.LBE95:
 160              	.LBE94:
 626:C:/Users/stapi/OneDrive/Desktop/GD32VW553/V1_MQTT_OK/GD32VW55X_Wifi_BLE_SDK/GD32VW55x_RELEASE_V1.0.2/MSDK/cloud/alicloud/src/services/awss\zconfig_vendor_common.c ****                     aws_state = AWS_SCANNING;
 161              		.loc 1 626 20 is_stmt 0
 162 0076 8567     		li	a5,4096
 163              	.LBB97:
 164              	.LBB96:
 165              		.loc 2 467 16
 166 0078 33052541 		sub	a0,a0,s2
 167              	.LBE96:
 168              	.LBE97:
 626:C:/Users/stapi/OneDrive/Desktop/GD32VW553/V1_MQTT_OK/GD32VW55X_Wifi_BLE_SDK/GD32VW55x_RELEASE_V1.0.2/MSDK/cloud/alicloud/src/services/awss\zconfig_vendor_common.c ****                     aws_state = AWS_SCANNING;
 169              		.loc 1 626 20
 170 007c 938707FA 		addi	a5,a5,-96
 171 0080 E3FCA7FC 		bleu	a0,a5,.L5
 627:C:/Users/stapi/OneDrive/Desktop/GD32VW553/V1_MQTT_OK/GD32VW55X_Wifi_BLE_SDK/GD32VW55x_RELEASE_V1.0.2/MSDK/cloud/alicloud/src/services/awss\zconfig_vendor_common.c ****                 }
 172              		.loc 1 627 21 is_stmt 1
 627:C:/Users/stapi/OneDrive/Desktop/GD32VW553/V1_MQTT_OK/GD32VW55X_Wifi_BLE_SDK/GD32VW55x_RELEASE_V1.0.2/MSDK/cloud/alicloud/src/services/awss\zconfig_vendor_common.c ****                 }
 173              		.loc 1 627 31 is_stmt 0
 174 0084 9C40     		lw	a5,0(s1)
 175 0086 23800700 		sb	zero,0(a5)
 633:C:/Users/stapi/OneDrive/Desktop/GD32VW553/V1_MQTT_OK/GD32VW55X_Wifi_BLE_SDK/GD32VW55x_RELEASE_V1.0.2/MSDK/cloud/alicloud/src/services/awss\zconfig_vendor_common.c **** }
 176              		.loc 1 633 5 is_stmt 1
 633:C:/Users/stapi/OneDrive/Desktop/GD32VW553/V1_MQTT_OK/GD32VW55X_Wifi_BLE_SDK/GD32VW55x_RELEASE_V1.0.2/MSDK/cloud/alicloud/src/services/awss\zconfig_vendor_common.c **** }
 177              		.loc 1 633 12 is_stmt 0
 178 008a F9B7     		j	.L5
 179              		.cfi_endproc
 180              	.LFE62:
 182              		.section	.text.zconfig_get_lock_chn,"ax",@progbits
 183              		.align	1
 184              		.globl	zconfig_get_lock_chn
 186              	zconfig_get_lock_chn:
 187              	.LFB49:
  95:C:/Users/stapi/OneDrive/Desktop/GD32VW553/V1_MQTT_OK/GD32VW55X_Wifi_BLE_SDK/GD32VW55x_RELEASE_V1.0.2/MSDK/cloud/alicloud/src/services/awss\zconfig_vendor_common.c ****     return aws_locked_chn;
 188              		.loc 1 95 1 is_stmt 1
 189              		.cfi_startproc
  96:C:/Users/stapi/OneDrive/Desktop/GD32VW553/V1_MQTT_OK/GD32VW55X_Wifi_BLE_SDK/GD32VW55x_RELEASE_V1.0.2/MSDK/cloud/alicloud/src/services/awss\zconfig_vendor_common.c **** }
 190              		.loc 1 96 5
  96:C:/Users/stapi/OneDrive/Desktop/GD32VW553/V1_MQTT_OK/GD32VW55X_Wifi_BLE_SDK/GD32VW55x_RELEASE_V1.0.2/MSDK/cloud/alicloud/src/services/awss\zconfig_vendor_common.c **** }
 191              		.loc 1 96 12 is_stmt 0
 192 0000 B7070000 		lui	a5,%hi(.LANCHOR2)
 193 0004 83A70700 		lw	a5,%lo(.LANCHOR2)(a5)
  97:C:/Users/stapi/OneDrive/Desktop/GD32VW553/V1_MQTT_OK/GD32VW55X_Wifi_BLE_SDK/GD32VW55x_RELEASE_V1.0.2/MSDK/cloud/alicloud/src/services/awss\zconfig_vendor_common.c **** 
 194              		.loc 1 97 1
 195 0008 03C53700 		lbu	a0,3(a5)
 196 000c 8280     		ret
 197              		.cfi_endproc
 198              	.LFE49:
 200              		.section	.text.zconfig_force_rescan,"ax",@progbits
 201              		.align	1
 202              		.globl	zconfig_force_rescan
 204              	zconfig_force_rescan:
 205              	.LFB50:
 100:C:/Users/stapi/OneDrive/Desktop/GD32VW553/V1_MQTT_OK/GD32VW55X_Wifi_BLE_SDK/GD32VW55x_RELEASE_V1.0.2/MSDK/cloud/alicloud/src/services/awss\zconfig_vendor_common.c ****     if (aws_info) {
 206              		.loc 1 100 1 is_stmt 1
 207              		.cfi_startproc
 101:C:/Users/stapi/OneDrive/Desktop/GD32VW553/V1_MQTT_OK/GD32VW55X_Wifi_BLE_SDK/GD32VW55x_RELEASE_V1.0.2/MSDK/cloud/alicloud/src/services/awss\zconfig_vendor_common.c ****         aws_state = AWS_SCANNING;
 208              		.loc 1 101 5
 101:C:/Users/stapi/OneDrive/Desktop/GD32VW553/V1_MQTT_OK/GD32VW55X_Wifi_BLE_SDK/GD32VW55x_RELEASE_V1.0.2/MSDK/cloud/alicloud/src/services/awss\zconfig_vendor_common.c ****         aws_state = AWS_SCANNING;
 209              		.loc 1 101 9 is_stmt 0
 210 0000 B7070000 		lui	a5,%hi(.LANCHOR2)
 211 0004 83A70700 		lw	a5,%lo(.LANCHOR2)(a5)
 101:C:/Users/stapi/OneDrive/Desktop/GD32VW553/V1_MQTT_OK/GD32VW55X_Wifi_BLE_SDK/GD32VW55x_RELEASE_V1.0.2/MSDK/cloud/alicloud/src/services/awss\zconfig_vendor_common.c ****         aws_state = AWS_SCANNING;
 212              		.loc 1 101 8
 213 0008 99C3     		beq	a5,zero,.L14
 102:C:/Users/stapi/OneDrive/Desktop/GD32VW553/V1_MQTT_OK/GD32VW55X_Wifi_BLE_SDK/GD32VW55x_RELEASE_V1.0.2/MSDK/cloud/alicloud/src/services/awss\zconfig_vendor_common.c ****     }
 214              		.loc 1 102 9 is_stmt 1
 102:C:/Users/stapi/OneDrive/Desktop/GD32VW553/V1_MQTT_OK/GD32VW55X_Wifi_BLE_SDK/GD32VW55x_RELEASE_V1.0.2/MSDK/cloud/alicloud/src/services/awss\zconfig_vendor_common.c ****     }
 215              		.loc 1 102 19 is_stmt 0
 216 000a 23800700 		sb	zero,0(a5)
 217              	.L14:
 104:C:/Users/stapi/OneDrive/Desktop/GD32VW553/V1_MQTT_OK/GD32VW55X_Wifi_BLE_SDK/GD32VW55x_RELEASE_V1.0.2/MSDK/cloud/alicloud/src/services/awss\zconfig_vendor_common.c **** 
 218              		.loc 1 104 1
 219 000e 8280     		ret
 220              		.cfi_endproc
 221              	.LFE50:
 223              		.section	.text.zconfig_channel_locked_callback,"ax",@progbits
 224              		.align	1
 225              		.globl	zconfig_channel_locked_callback
 227              	zconfig_channel_locked_callback:
 228              	.LFB51:
 108:C:/Users/stapi/OneDrive/Desktop/GD32VW553/V1_MQTT_OK/GD32VW55X_Wifi_BLE_SDK/GD32VW55x_RELEASE_V1.0.2/MSDK/cloud/alicloud/src/services/awss\zconfig_vendor_common.c ****     aws_locked_chn = primary_channel;
 229              		.loc 1 108 1 is_stmt 1
 230              		.cfi_startproc
 231              	.LVL11:
 109:C:/Users/stapi/OneDrive/Desktop/GD32VW553/V1_MQTT_OK/GD32VW55X_Wifi_BLE_SDK/GD32VW55x_RELEASE_V1.0.2/MSDK/cloud/alicloud/src/services/awss\zconfig_vendor_common.c **** 
 232              		.loc 1 109 5
 233 0000 B7070000 		lui	a5,%hi(.LANCHOR2)
 234 0004 83A70700 		lw	a5,%lo(.LANCHOR2)(a5)
 111:C:/Users/stapi/OneDrive/Desktop/GD32VW553/V1_MQTT_OK/GD32VW55X_Wifi_BLE_SDK/GD32VW55x_RELEASE_V1.0.2/MSDK/cloud/alicloud/src/services/awss\zconfig_vendor_common.c ****         aws_state = AWS_CHN_LOCKED;
 235              		.loc 1 111 8 is_stmt 0
 236 0008 03C70700 		lbu	a4,0(a5)
 109:C:/Users/stapi/OneDrive/Desktop/GD32VW553/V1_MQTT_OK/GD32VW55X_Wifi_BLE_SDK/GD32VW55x_RELEASE_V1.0.2/MSDK/cloud/alicloud/src/services/awss\zconfig_vendor_common.c **** 
 237              		.loc 1 109 20
 238 000c A381A700 		sb	a0,3(a5)
 111:C:/Users/stapi/OneDrive/Desktop/GD32VW553/V1_MQTT_OK/GD32VW55X_Wifi_BLE_SDK/GD32VW55x_RELEASE_V1.0.2/MSDK/cloud/alicloud/src/services/awss\zconfig_vendor_common.c ****         aws_state = AWS_CHN_LOCKED;
 239              		.loc 1 111 5 is_stmt 1
 111:C:/Users/stapi/OneDrive/Desktop/GD32VW553/V1_MQTT_OK/GD32VW55X_Wifi_BLE_SDK/GD32VW55x_RELEASE_V1.0.2/MSDK/cloud/alicloud/src/services/awss\zconfig_vendor_common.c ****         aws_state = AWS_CHN_LOCKED;
 240              		.loc 1 111 8 is_stmt 0
 241 0010 01E7     		bne	a4,zero,.L20
 112:C:/Users/stapi/OneDrive/Desktop/GD32VW553/V1_MQTT_OK/GD32VW55X_Wifi_BLE_SDK/GD32VW55x_RELEASE_V1.0.2/MSDK/cloud/alicloud/src/services/awss\zconfig_vendor_common.c ****     }
 242              		.loc 1 112 9 is_stmt 1
 112:C:/Users/stapi/OneDrive/Desktop/GD32VW553/V1_MQTT_OK/GD32VW55X_Wifi_BLE_SDK/GD32VW55x_RELEASE_V1.0.2/MSDK/cloud/alicloud/src/services/awss\zconfig_vendor_common.c ****     }
 243              		.loc 1 112 19 is_stmt 0
 244 0012 0547     		li	a4,1
 245 0014 2380E700 		sb	a4,0(a5)
 246              	.L20:
 115:C:/Users/stapi/OneDrive/Desktop/GD32VW553/V1_MQTT_OK/GD32VW55X_Wifi_BLE_SDK/GD32VW55x_RELEASE_V1.0.2/MSDK/cloud/alicloud/src/services/awss\zconfig_vendor_common.c ****     #ifdef DEV_STATEMACHINE_ENABLE
 247              		.loc 1 115 5 is_stmt 1
 248 0018 0565     		li	a0,4096
 249              	.LVL12:
 250 001a 0905     		addi	a0,a0,2
 251 001c 17030000 		tail	awss_event_post
 251      67000300 
 252              	.LVL13:
 253              		.cfi_endproc
 254              	.LFE51:
 256              		.section	.rodata.zconfig_got_ssid_passwd_callback.str1.4,"aMS",@progbits,1
 257              		.align	2
 258              	.LC0:
 259 0000 73736964 		.string	"ssid:%s, bssid:%02x%02x%02x%02x%02x%02x, %d"
 259      3A25732C 
 259      20627373 
 259      69643A25 
 259      30327825 
 260              		.align	2
 261              	.LC1:
 262 002c 73736964 		.string	"ssid:%s, bssid:--, %d"
 262      3A25732C 
 262      20627373 
 262      69643A2D 
 262      2D2C2025 
 263              		.section	.text.zconfig_got_ssid_passwd_callback,"ax",@progbits
 264              		.align	1
 265              		.globl	zconfig_got_ssid_passwd_callback
 267              	zconfig_got_ssid_passwd_callback:
 268              	.LFB52:
 124:C:/Users/stapi/OneDrive/Desktop/GD32VW553/V1_MQTT_OK/GD32VW55X_Wifi_BLE_SDK/GD32VW55x_RELEASE_V1.0.2/MSDK/cloud/alicloud/src/services/awss\zconfig_vendor_common.c ****     if (bssid) {
 269              		.loc 1 124 1
 270              		.cfi_startproc
 271              	.LVL14:
 272 0000 17030000 		call	t0,__riscv_save_8
 272      E7020300 
 273              		.cfi_offset 23, -36
 274              		.cfi_offset 22, -32
 275              		.cfi_offset 21, -28
 276              		.cfi_offset 20, -24
 277              		.cfi_offset 19, -20
 278              		.cfi_offset 18, -16
 279              		.cfi_offset 9, -12
 280              		.cfi_offset 8, -8
 281              		.cfi_offset 1, -4
 282              		.cfi_def_cfa_offset 48
 125:C:/Users/stapi/OneDrive/Desktop/GD32VW553/V1_MQTT_OK/GD32VW55X_Wifi_BLE_SDK/GD32VW55x_RELEASE_V1.0.2/MSDK/cloud/alicloud/src/services/awss\zconfig_vendor_common.c ****         dump_awss_status(STATE_WIFI_PASSWD_DECODE_SUCCESS, "ssid:%s, bssid:%02x%02x%02x%02x%02x%02x
 283              		.loc 1 125 5
 124:C:/Users/stapi/OneDrive/Desktop/GD32VW553/V1_MQTT_OK/GD32VW55X_Wifi_BLE_SDK/GD32VW55x_RELEASE_V1.0.2/MSDK/cloud/alicloud/src/services/awss\zconfig_vendor_common.c ****     if (bssid) {
 284              		.loc 1 124 1 is_stmt 0
 285 0008 4111     		addi	sp,sp,-16
 286              		.cfi_def_cfa_offset 64
 124:C:/Users/stapi/OneDrive/Desktop/GD32VW553/V1_MQTT_OK/GD32VW55X_Wifi_BLE_SDK/GD32VW55x_RELEASE_V1.0.2/MSDK/cloud/alicloud/src/services/awss\zconfig_vendor_common.c ****     if (bssid) {
 287              		.loc 1 124 1
 288 000a 2A89     		mv	s2,a0
 289 000c 2E8B     		mv	s6,a1
 290 000e 3284     		mv	s0,a2
 291 0010 B689     		mv	s3,a3
 292 0012 BA8A     		mv	s5,a4
 293 0014 3E8A     		mv	s4,a5
 294 0016 C284     		mv	s1,a6
 295 0018 C68B     		mv	s7,a7
 125:C:/Users/stapi/OneDrive/Desktop/GD32VW553/V1_MQTT_OK/GD32VW55X_Wifi_BLE_SDK/GD32VW55x_RELEASE_V1.0.2/MSDK/cloud/alicloud/src/services/awss\zconfig_vendor_common.c ****         dump_awss_status(STATE_WIFI_PASSWD_DECODE_SUCCESS, "ssid:%s, bssid:%02x%02x%02x%02x%02x%02x
 296              		.loc 1 125 8
 297 001a 63040610 		beq	a2,zero,.L23
 126:C:/Users/stapi/OneDrive/Desktop/GD32VW553/V1_MQTT_OK/GD32VW55X_Wifi_BLE_SDK/GD32VW55x_RELEASE_V1.0.2/MSDK/cloud/alicloud/src/services/awss\zconfig_vendor_common.c ****                          ssid, bssid[0], bssid[1], bssid[2],
 298              		.loc 1 126 9 is_stmt 1
 299 001e 42C4     		sw	a6,8(sp)
 300 0020 83475600 		lbu	a5,5(a2)
 301              	.LVL15:
 302 0024 AA86     		mv	a3,a0
 303              	.LVL16:
 304 0026 930530BF 		li	a1,-1037
 305              	.LVL17:
 306 002a 3EC2     		sw	a5,4(sp)
 307 002c 83474600 		lbu	a5,4(a2)
 308 0030 6D45     		li	a0,27
 309              	.LVL18:
 310 0032 3EC0     		sw	a5,0(sp)
 311 0034 83483600 		lbu	a7,3(a2)
 312              	.LVL19:
 313 0038 03482600 		lbu	a6,2(a2)
 314              	.LVL20:
 315 003c 83471600 		lbu	a5,1(a2)
 316 0040 03470600 		lbu	a4,0(a2)
 317              	.LVL21:
 318 0044 37060000 		lui	a2,%hi(.LC0)
 319              	.LVL22:
 320 0048 13060600 		addi	a2,a2,%lo(.LC0)
 321 004c 97000000 		call	iotx_state_event
 321      E7800000 
 322              	.LVL23:
 323              	.L24:
 134:C:/Users/stapi/OneDrive/Desktop/GD32VW553/V1_MQTT_OK/GD32VW55X_Wifi_BLE_SDK/GD32VW55x_RELEASE_V1.0.2/MSDK/cloud/alicloud/src/services/awss\zconfig_vendor_common.c ****         memcpy(aws_result_token, token, ZC_MAX_TOKEN_LEN);
 324              		.loc 1 134 5
 134:C:/Users/stapi/OneDrive/Desktop/GD32VW553/V1_MQTT_OK/GD32VW55X_Wifi_BLE_SDK/GD32VW55x_RELEASE_V1.0.2/MSDK/cloud/alicloud/src/services/awss\zconfig_vendor_common.c ****         memcpy(aws_result_token, token, ZC_MAX_TOKEN_LEN);
 325              		.loc 1 134 8 is_stmt 0
 326 0054 638C0900 		beq	s3,zero,.L25
 135:C:/Users/stapi/OneDrive/Desktop/GD32VW553/V1_MQTT_OK/GD32VW55X_Wifi_BLE_SDK/GD32VW55x_RELEASE_V1.0.2/MSDK/cloud/alicloud/src/services/awss\zconfig_vendor_common.c ****     }
 327              		.loc 1 135 9 is_stmt 1
 328 0058 37050000 		lui	a0,%hi(.LANCHOR4)
 329 005c 4146     		li	a2,16
 330 005e CE85     		mv	a1,s3
 331 0060 13050500 		addi	a0,a0,%lo(.LANCHOR4)
 332 0064 97000000 		call	memcpy
 332      E7800000 
 333              	.LVL24:
 334              	.L25:
 137:C:/Users/stapi/OneDrive/Desktop/GD32VW553/V1_MQTT_OK/GD32VW55X_Wifi_BLE_SDK/GD32VW55x_RELEASE_V1.0.2/MSDK/cloud/alicloud/src/services/awss\zconfig_vendor_common.c ****     memset(aws_result_ssid, 0, sizeof(aws_result_ssid));
 335              		.loc 1 137 5
 137:C:/Users/stapi/OneDrive/Desktop/GD32VW553/V1_MQTT_OK/GD32VW55X_Wifi_BLE_SDK/GD32VW55x_RELEASE_V1.0.2/MSDK/cloud/alicloud/src/services/awss\zconfig_vendor_common.c ****     memset(aws_result_ssid, 0, sizeof(aws_result_ssid));
 336              		.loc 1 137 27 is_stmt 0
 337 006c B7070000 		lui	a5,%hi(.LANCHOR5)
 338 0070 23807701 		sb	s7,%lo(.LANCHOR5)(a5)
 138:C:/Users/stapi/OneDrive/Desktop/GD32VW553/V1_MQTT_OK/GD32VW55X_Wifi_BLE_SDK/GD32VW55x_RELEASE_V1.0.2/MSDK/cloud/alicloud/src/services/awss\zconfig_vendor_common.c ****     memset(aws_result_passwd, 0, sizeof(aws_result_passwd));
 339              		.loc 1 138 5 is_stmt 1
 340 0074 B70B0000 		lui	s7,%hi(.LANCHOR6)
 341 0078 13062002 		li	a2,34
 342 007c 8145     		li	a1,0
 343 007e 13850B00 		addi	a0,s7,%lo(.LANCHOR6)
 344 0082 97000000 		call	memset
 344      E7800000 
 345              	.LVL25:
 139:C:/Users/stapi/OneDrive/Desktop/GD32VW553/V1_MQTT_OK/GD32VW55X_Wifi_BLE_SDK/GD32VW55x_RELEASE_V1.0.2/MSDK/cloud/alicloud/src/services/awss\zconfig_vendor_common.c ****     strncpy((char *)aws_result_ssid, (const char *)ssid, ZC_MAX_SSID_LEN - 1);
 346              		.loc 1 139 5
 347 008a B7090000 		lui	s3,%hi(.LANCHOR7)
 348              	.LVL26:
 349 008e 13062004 		li	a2,66
 350 0092 8145     		li	a1,0
 351 0094 13850900 		addi	a0,s3,%lo(.LANCHOR7)
 352 0098 97000000 		call	memset
 352      E7800000 
 353              	.LVL27:
 140:C:/Users/stapi/OneDrive/Desktop/GD32VW553/V1_MQTT_OK/GD32VW55X_Wifi_BLE_SDK/GD32VW55x_RELEASE_V1.0.2/MSDK/cloud/alicloud/src/services/awss\zconfig_vendor_common.c ****     strncpy((char *)aws_result_passwd, (const char *)passwd, ZC_MAX_PASSWD_LEN - 1);
 354              		.loc 1 140 5
 355 00a0 13060002 		li	a2,32
 356 00a4 CA85     		mv	a1,s2
 357 00a6 13850B00 		addi	a0,s7,%lo(.LANCHOR6)
 358 00aa 97000000 		call	strncpy
 358      E7800000 
 359              	.LVL28:
 141:C:/Users/stapi/OneDrive/Desktop/GD32VW553/V1_MQTT_OK/GD32VW55X_Wifi_BLE_SDK/GD32VW55x_RELEASE_V1.0.2/MSDK/cloud/alicloud/src/services/awss\zconfig_vendor_common.c **** 
 360              		.loc 1 141 5
 361 00b2 13060004 		li	a2,64
 362 00b6 DA85     		mv	a1,s6
 363 00b8 13850900 		addi	a0,s3,%lo(.LANCHOR7)
 364 00bc 97000000 		call	strncpy
 364      E7800000 
 365              	.LVL29:
 143:C:/Users/stapi/OneDrive/Desktop/GD32VW553/V1_MQTT_OK/GD32VW55X_Wifi_BLE_SDK/GD32VW55x_RELEASE_V1.0.2/MSDK/cloud/alicloud/src/services/awss\zconfig_vendor_common.c ****         memcpy(aws_result_bssid, bssid, ETH_ALEN);
 366              		.loc 1 143 5
 143:C:/Users/stapi/OneDrive/Desktop/GD32VW553/V1_MQTT_OK/GD32VW55X_Wifi_BLE_SDK/GD32VW55x_RELEASE_V1.0.2/MSDK/cloud/alicloud/src/services/awss\zconfig_vendor_common.c ****         memcpy(aws_result_bssid, bssid, ETH_ALEN);
 367              		.loc 1 143 8 is_stmt 0
 368 00c4 19C8     		beq	s0,zero,.L26
 144:C:/Users/stapi/OneDrive/Desktop/GD32VW553/V1_MQTT_OK/GD32VW55X_Wifi_BLE_SDK/GD32VW55x_RELEASE_V1.0.2/MSDK/cloud/alicloud/src/services/awss\zconfig_vendor_common.c ****     }
 369              		.loc 1 144 9 is_stmt 1
 370 00c6 37050000 		lui	a0,%hi(.LANCHOR8)
 371 00ca 1946     		li	a2,6
 372 00cc A285     		mv	a1,s0
 373 00ce 13050500 		addi	a0,a0,%lo(.LANCHOR8)
 374 00d2 97000000 		call	memcpy
 374      E7800000 
 375              	.LVL30:
 376              	.L26:
 146:C:/Users/stapi/OneDrive/Desktop/GD32VW553/V1_MQTT_OK/GD32VW55X_Wifi_BLE_SDK/GD32VW55x_RELEASE_V1.0.2/MSDK/cloud/alicloud/src/services/awss\zconfig_vendor_common.c ****     aws_result_encry = encry;
 377              		.loc 1 146 5
 146:C:/Users/stapi/OneDrive/Desktop/GD32VW553/V1_MQTT_OK/GD32VW55X_Wifi_BLE_SDK/GD32VW55x_RELEASE_V1.0.2/MSDK/cloud/alicloud/src/services/awss\zconfig_vendor_common.c ****     aws_result_encry = encry;
 378              		.loc 1 146 21 is_stmt 0
 379 00da B7070000 		lui	a5,%hi(.LANCHOR9)
 380 00de 23805701 		sb	s5,%lo(.LANCHOR9)(a5)
 147:C:/Users/stapi/OneDrive/Desktop/GD32VW553/V1_MQTT_OK/GD32VW55X_Wifi_BLE_SDK/GD32VW55x_RELEASE_V1.0.2/MSDK/cloud/alicloud/src/services/awss\zconfig_vendor_common.c ****     aws_result_channel = channel;
 381              		.loc 1 147 5 is_stmt 1
 147:C:/Users/stapi/OneDrive/Desktop/GD32VW553/V1_MQTT_OK/GD32VW55X_Wifi_BLE_SDK/GD32VW55x_RELEASE_V1.0.2/MSDK/cloud/alicloud/src/services/awss\zconfig_vendor_common.c ****     aws_result_channel = channel;
 382              		.loc 1 147 22 is_stmt 0
 383 00e2 B7070000 		lui	a5,%hi(.LANCHOR10)
 384 00e6 23804701 		sb	s4,%lo(.LANCHOR10)(a5)
 148:C:/Users/stapi/OneDrive/Desktop/GD32VW553/V1_MQTT_OK/GD32VW55X_Wifi_BLE_SDK/GD32VW55x_RELEASE_V1.0.2/MSDK/cloud/alicloud/src/services/awss\zconfig_vendor_common.c **** 
 385              		.loc 1 148 5 is_stmt 1
 148:C:/Users/stapi/OneDrive/Desktop/GD32VW553/V1_MQTT_OK/GD32VW55X_Wifi_BLE_SDK/GD32VW55x_RELEASE_V1.0.2/MSDK/cloud/alicloud/src/services/awss\zconfig_vendor_common.c **** 
 386              		.loc 1 148 24 is_stmt 0
 387 00ea B7070000 		lui	a5,%hi(.LANCHOR11)
 388 00ee 23809700 		sb	s1,%lo(.LANCHOR11)(a5)
 150:C:/Users/stapi/OneDrive/Desktop/GD32VW553/V1_MQTT_OK/GD32VW55X_Wifi_BLE_SDK/GD32VW55x_RELEASE_V1.0.2/MSDK/cloud/alicloud/src/services/awss\zconfig_vendor_common.c **** 
 389              		.loc 1 150 5 is_stmt 1
 150:C:/Users/stapi/OneDrive/Desktop/GD32VW553/V1_MQTT_OK/GD32VW55X_Wifi_BLE_SDK/GD32VW55x_RELEASE_V1.0.2/MSDK/cloud/alicloud/src/services/awss\zconfig_vendor_common.c **** 
 390              		.loc 1 150 15 is_stmt 0
 391 00f2 B7070000 		lui	a5,%hi(.LANCHOR2)
 392 00f6 83A70700 		lw	a5,%lo(.LANCHOR2)(a5)
 393 00fa 0947     		li	a4,2
 152:C:/Users/stapi/OneDrive/Desktop/GD32VW553/V1_MQTT_OK/GD32VW55X_Wifi_BLE_SDK/GD32VW55x_RELEASE_V1.0.2/MSDK/cloud/alicloud/src/services/awss\zconfig_vendor_common.c ****     #ifdef DEV_STATEMACHINE_ENABLE
 394              		.loc 1 152 5
 395 00fc 0565     		li	a0,4096
 150:C:/Users/stapi/OneDrive/Desktop/GD32VW553/V1_MQTT_OK/GD32VW55X_Wifi_BLE_SDK/GD32VW55x_RELEASE_V1.0.2/MSDK/cloud/alicloud/src/services/awss\zconfig_vendor_common.c **** 
 396              		.loc 1 150 15
 397 00fe 2380E700 		sb	a4,0(a5)
 152:C:/Users/stapi/OneDrive/Desktop/GD32VW553/V1_MQTT_OK/GD32VW55X_Wifi_BLE_SDK/GD32VW55x_RELEASE_V1.0.2/MSDK/cloud/alicloud/src/services/awss\zconfig_vendor_common.c ****     #ifdef DEV_STATEMACHINE_ENABLE
 398              		.loc 1 152 5 is_stmt 1
 399 0102 1505     		addi	a0,a0,5
 400 0104 97000000 		call	awss_event_post
 400      E7800000 
 401              	.LVL31:
 158:C:/Users/stapi/OneDrive/Desktop/GD32VW553/V1_MQTT_OK/GD32VW55X_Wifi_BLE_SDK/GD32VW55x_RELEASE_V1.0.2/MSDK/cloud/alicloud/src/services/awss\zconfig_vendor_common.c **** }
 402              		.loc 1 158 5
 403 010c 1305C0F9 		li	a0,-100
 404 0110 97000000 		call	iotx_guider_set_dynamic_region
 404      E7800000 
 405              	.LVL32:
 159:C:/Users/stapi/OneDrive/Desktop/GD32VW553/V1_MQTT_OK/GD32VW55X_Wifi_BLE_SDK/GD32VW55x_RELEASE_V1.0.2/MSDK/cloud/alicloud/src/services/awss\zconfig_vendor_common.c **** 
 406              		.loc 1 159 1 is_stmt 0
 407 0118 4101     		addi	sp,sp,16
 408              		.cfi_remember_state
 409              		.cfi_def_cfa_offset 0
 410 011a 17030000 		tail	__riscv_restore_8
 410      67000300 
 411              		.cfi_restore 23
 412              		.cfi_restore 22
 413              		.cfi_restore 21
 414              		.cfi_restore 20
 415              		.cfi_restore 19
 416              		.cfi_restore 18
 417              		.cfi_restore 9
 418              		.cfi_restore 8
 419              		.cfi_restore 1
 420              		.cfi_def_cfa_offset -48
 421              	.LVL33:
 422              	.L23:
 423              		.cfi_restore_state
 130:C:/Users/stapi/OneDrive/Desktop/GD32VW553/V1_MQTT_OK/GD32VW55X_Wifi_BLE_SDK/GD32VW55x_RELEASE_V1.0.2/MSDK/cloud/alicloud/src/services/awss\zconfig_vendor_common.c ****                          ssid, channel);
 424              		.loc 1 130 9 is_stmt 1
 425 0122 37060000 		lui	a2,%hi(.LC1)
 426 0126 AA86     		mv	a3,a0
 427              	.LVL34:
 428 0128 4287     		mv	a4,a6
 429              	.LVL35:
 430 012a 13060600 		addi	a2,a2,%lo(.LC1)
 431 012e 930530BF 		li	a1,-1037
 432              	.LVL36:
 433 0132 6D45     		li	a0,27
 434              	.LVL37:
 435 0134 97000000 		call	iotx_state_event
 435      E7800000 
 436              	.LVL38:
 437 013c 21BF     		j	.L24
 438              		.cfi_endproc
 439              	.LFE52:
 441              		.section	.text.aws_next_channel,"ax",@progbits
 442              		.align	1
 443              		.globl	aws_next_channel
 445              	aws_next_channel:
 446              	.LFB53:
 162:C:/Users/stapi/OneDrive/Desktop/GD32VW553/V1_MQTT_OK/GD32VW55X_Wifi_BLE_SDK/GD32VW55x_RELEASE_V1.0.2/MSDK/cloud/alicloud/src/services/awss\zconfig_vendor_common.c ****     /* aws_chn_index start from -1 */
 447              		.loc 1 162 1
 448              		.cfi_startproc
 165:C:/Users/stapi/OneDrive/Desktop/GD32VW553/V1_MQTT_OK/GD32VW55X_Wifi_BLE_SDK/GD32VW55x_RELEASE_V1.0.2/MSDK/cloud/alicloud/src/services/awss\zconfig_vendor_common.c ****         if (aws_chn_index >= AWS_MAX_CHN_NUMS) {
 449              		.loc 1 165 9 is_stmt 0
 450 0000 B7070000 		lui	a5,%hi(.LANCHOR2)
 451 0004 03A70700 		lw	a4,%lo(.LANCHOR2)(a5)
 166:C:/Users/stapi/OneDrive/Desktop/GD32VW553/V1_MQTT_OK/GD32VW55X_Wifi_BLE_SDK/GD32VW55x_RELEASE_V1.0.2/MSDK/cloud/alicloud/src/services/awss\zconfig_vendor_common.c ****             aws_chn_index = 0;    // rollback to start
 452              		.loc 1 166 12
 453 0008 7946     		li	a2,30
 454 000a 83472700 		lbu	a5,2(a4)
 455              	.L36:
 164:C:/Users/stapi/OneDrive/Desktop/GD32VW553/V1_MQTT_OK/GD32VW55X_Wifi_BLE_SDK/GD32VW55x_RELEASE_V1.0.2/MSDK/cloud/alicloud/src/services/awss\zconfig_vendor_common.c ****         aws_chn_index ++;
 456              		.loc 1 164 5 is_stmt 1
 165:C:/Users/stapi/OneDrive/Desktop/GD32VW553/V1_MQTT_OK/GD32VW55X_Wifi_BLE_SDK/GD32VW55x_RELEASE_V1.0.2/MSDK/cloud/alicloud/src/services/awss\zconfig_vendor_common.c ****         if (aws_chn_index >= AWS_MAX_CHN_NUMS) {
 457              		.loc 1 165 9
 165:C:/Users/stapi/OneDrive/Desktop/GD32VW553/V1_MQTT_OK/GD32VW55X_Wifi_BLE_SDK/GD32VW55x_RELEASE_V1.0.2/MSDK/cloud/alicloud/src/services/awss\zconfig_vendor_common.c ****         if (aws_chn_index >= AWS_MAX_CHN_NUMS) {
 458              		.loc 1 165 23 is_stmt 0
 459 000e 8507     		addi	a5,a5,1
 460 0010 93F7F70F 		andi	a5,a5,0xff
 166:C:/Users/stapi/OneDrive/Desktop/GD32VW553/V1_MQTT_OK/GD32VW55X_Wifi_BLE_SDK/GD32VW55x_RELEASE_V1.0.2/MSDK/cloud/alicloud/src/services/awss\zconfig_vendor_common.c ****             aws_chn_index = 0;    // rollback to start
 461              		.loc 1 166 9 is_stmt 1
 166:C:/Users/stapi/OneDrive/Desktop/GD32VW553/V1_MQTT_OK/GD32VW55X_Wifi_BLE_SDK/GD32VW55x_RELEASE_V1.0.2/MSDK/cloud/alicloud/src/services/awss\zconfig_vendor_common.c ****             aws_chn_index = 0;    // rollback to start
 462              		.loc 1 166 12 is_stmt 0
 463 0014 6373F600 		bleu	a5,a2,.L35
 167:C:/Users/stapi/OneDrive/Desktop/GD32VW553/V1_MQTT_OK/GD32VW55X_Wifi_BLE_SDK/GD32VW55x_RELEASE_V1.0.2/MSDK/cloud/alicloud/src/services/awss\zconfig_vendor_common.c ****         }
 464              		.loc 1 167 27
 465 0018 8147     		li	a5,0
 466              	.L35:
 170:C:/Users/stapi/OneDrive/Desktop/GD32VW553/V1_MQTT_OK/GD32VW55X_Wifi_BLE_SDK/GD32VW55x_RELEASE_V1.0.2/MSDK/cloud/alicloud/src/services/awss\zconfig_vendor_common.c ****             break;
 467              		.loc 1 170 9 is_stmt 1
 170:C:/Users/stapi/OneDrive/Desktop/GD32VW553/V1_MQTT_OK/GD32VW55X_Wifi_BLE_SDK/GD32VW55x_RELEASE_V1.0.2/MSDK/cloud/alicloud/src/services/awss\zconfig_vendor_common.c ****             break;
 468              		.loc 1 170 25 is_stmt 0
 469 001a B306F700 		add	a3,a4,a5
 470 001e 03C54600 		lbu	a0,4(a3)
 170:C:/Users/stapi/OneDrive/Desktop/GD32VW553/V1_MQTT_OK/GD32VW55X_Wifi_BLE_SDK/GD32VW55x_RELEASE_V1.0.2/MSDK/cloud/alicloud/src/services/awss\zconfig_vendor_common.c ****             break;
 471              		.loc 1 170 12
 472 0022 75D5     		beq	a0,zero,.L36
 473 0024 2301F700 		sb	a5,2(a4)
 175:C:/Users/stapi/OneDrive/Desktop/GD32VW553/V1_MQTT_OK/GD32VW55X_Wifi_BLE_SDK/GD32VW55x_RELEASE_V1.0.2/MSDK/cloud/alicloud/src/services/awss\zconfig_vendor_common.c **** 
 474              		.loc 1 175 5 is_stmt 1
 175:C:/Users/stapi/OneDrive/Desktop/GD32VW553/V1_MQTT_OK/GD32VW55X_Wifi_BLE_SDK/GD32VW55x_RELEASE_V1.0.2/MSDK/cloud/alicloud/src/services/awss\zconfig_vendor_common.c **** 
 475              		.loc 1 175 17 is_stmt 0
 476 0028 A300A700 		sb	a0,1(a4)
 177:C:/Users/stapi/OneDrive/Desktop/GD32VW553/V1_MQTT_OK/GD32VW55X_Wifi_BLE_SDK/GD32VW55x_RELEASE_V1.0.2/MSDK/cloud/alicloud/src/services/awss\zconfig_vendor_common.c **** }
 477              		.loc 1 177 5 is_stmt 1
 178:C:/Users/stapi/OneDrive/Desktop/GD32VW553/V1_MQTT_OK/GD32VW55X_Wifi_BLE_SDK/GD32VW55x_RELEASE_V1.0.2/MSDK/cloud/alicloud/src/services/awss\zconfig_vendor_common.c **** 
 478              		.loc 1 178 1 is_stmt 0
 479 002c 8280     		ret
 480              		.cfi_endproc
 481              	.LFE53:
 483              		.section	.rodata.aws_switch_channel.str1.4,"aMS",@progbits,1
 484              		.align	2
 485              	.LC2:
 486 0000 5B637274 		.string	"[crt] "
 486      5D2000
 487 0007 00       		.align	2
 488              	.LC3:
 489 0008 61646A75 		.string	"adjust chan %d"
 489      73742063 
 489      68616E20 
 489      256400
 490 0017 00       		.align	2
 491              	.LC4:
 492 0018 0D0A00   		.string	"\r\n"
 493 001b 00       		.align	2
 494              	.LC5:
 495 001c 6368616E 		.string	"chan %d\r\n"
 495      2025640D 
 495      0A00
 496              		.section	.text.aws_switch_channel,"ax",@progbits
 497              		.align	1
 498              		.globl	aws_switch_channel
 500              	aws_switch_channel:
 501              	.LFB54:
 183:C:/Users/stapi/OneDrive/Desktop/GD32VW553/V1_MQTT_OK/GD32VW55X_Wifi_BLE_SDK/GD32VW55x_RELEASE_V1.0.2/MSDK/cloud/alicloud/src/services/awss\zconfig_vendor_common.c ****     if (zconfig_data == NULL) {
 502              		.loc 1 183 1 is_stmt 1
 503              		.cfi_startproc
 504 0000 17030000 		call	t0,__riscv_save_5
 504      E7020300 
 505              		.cfi_offset 20, -24
 506              		.cfi_offset 19, -20
 507              		.cfi_offset 18, -16
 508              		.cfi_offset 9, -12
 509              		.cfi_offset 8, -8
 510              		.cfi_offset 1, -4
 511              		.cfi_def_cfa_offset 32
 184:C:/Users/stapi/OneDrive/Desktop/GD32VW553/V1_MQTT_OK/GD32VW55X_Wifi_BLE_SDK/GD32VW55x_RELEASE_V1.0.2/MSDK/cloud/alicloud/src/services/awss\zconfig_vendor_common.c ****         return;
 512              		.loc 1 184 5
 184:C:/Users/stapi/OneDrive/Desktop/GD32VW553/V1_MQTT_OK/GD32VW55X_Wifi_BLE_SDK/GD32VW55x_RELEASE_V1.0.2/MSDK/cloud/alicloud/src/services/awss\zconfig_vendor_common.c ****         return;
 513              		.loc 1 184 22 is_stmt 0
 514 0008 37040000 		lui	s0,%hi(zconfig_data)
 515 000c 83270400 		lw	a5,%lo(zconfig_data)(s0)
 184:C:/Users/stapi/OneDrive/Desktop/GD32VW553/V1_MQTT_OK/GD32VW55X_Wifi_BLE_SDK/GD32VW55x_RELEASE_V1.0.2/MSDK/cloud/alicloud/src/services/awss\zconfig_vendor_common.c ****         return;
 516              		.loc 1 184 8
 517 0010 DDCF     		beq	a5,zero,.L40
 188:C:/Users/stapi/OneDrive/Desktop/GD32VW553/V1_MQTT_OK/GD32VW55X_Wifi_BLE_SDK/GD32VW55x_RELEASE_V1.0.2/MSDK/cloud/alicloud/src/services/awss\zconfig_vendor_common.c ****     if (aws_amend_dst_chan != 0) {
 518              		.loc 1 188 5 is_stmt 1
 519              	.LVL39:
 520              	.LBB119:
 521              	.LBB120:
 281:..\..\..\..\cloud\alicloud\src\services\dev_bind\os/os.h **** }
 522              		.loc 2 281 5
 523 0012 03A50754 		lw	a0,1344(a5)
 524              	.LBE120:
 525              	.LBE119:
 189:C:/Users/stapi/OneDrive/Desktop/GD32VW553/V1_MQTT_OK/GD32VW55X_Wifi_BLE_SDK/GD32VW55x_RELEASE_V1.0.2/MSDK/cloud/alicloud/src/services/awss\zconfig_vendor_common.c ****         aws_switch_dst_chan(aws_amend_dst_chan);
 526              		.loc 1 189 28 is_stmt 0
 527 0016 B7090000 		lui	s3,%hi(.LANCHOR12)
 528 001a B7040000 		lui	s1,%hi(.LANCHOR2)
 529              	.LBB122:
 530              	.LBB121:
 281:..\..\..\..\cloud\alicloud\src\services\dev_bind\os/os.h **** }
 531              		.loc 2 281 5
 532 001e 97000000 		call	HAL_MutexLock
 532      E7800000 
 533              	.LVL40:
 534              	.LBE121:
 535              	.LBE122:
 189:C:/Users/stapi/OneDrive/Desktop/GD32VW553/V1_MQTT_OK/GD32VW55X_Wifi_BLE_SDK/GD32VW55x_RELEASE_V1.0.2/MSDK/cloud/alicloud/src/services/awss\zconfig_vendor_common.c ****         aws_switch_dst_chan(aws_amend_dst_chan);
 536              		.loc 1 189 5 is_stmt 1
 189:C:/Users/stapi/OneDrive/Desktop/GD32VW553/V1_MQTT_OK/GD32VW55X_Wifi_BLE_SDK/GD32VW55x_RELEASE_V1.0.2/MSDK/cloud/alicloud/src/services/awss\zconfig_vendor_common.c ****         aws_switch_dst_chan(aws_amend_dst_chan);
 537              		.loc 1 189 28 is_stmt 0
 538 0026 03A90900 		lw	s2,%lo(.LANCHOR12)(s3)
 539 002a 93840400 		addi	s1,s1,%lo(.LANCHOR2)
 540 002e 93890900 		addi	s3,s3,%lo(.LANCHOR12)
 189:C:/Users/stapi/OneDrive/Desktop/GD32VW553/V1_MQTT_OK/GD32VW55X_Wifi_BLE_SDK/GD32VW55x_RELEASE_V1.0.2/MSDK/cloud/alicloud/src/services/awss\zconfig_vendor_common.c ****         aws_switch_dst_chan(aws_amend_dst_chan);
 541              		.loc 1 189 8
 542 0032 6304090C 		beq	s2,zero,.L42
 543 0036 228A     		mv	s4,s0
 190:C:/Users/stapi/OneDrive/Desktop/GD32VW553/V1_MQTT_OK/GD32VW55X_Wifi_BLE_SDK/GD32VW55x_RELEASE_V1.0.2/MSDK/cloud/alicloud/src/services/awss\zconfig_vendor_common.c ****         aws_amend_dst_chan = 0;
 544              		.loc 1 190 9 is_stmt 1
 545              	.LVL41:
 546              	.LBB123:
 547              	.LBB124:
 250:C:/Users/stapi/OneDrive/Desktop/GD32VW553/V1_MQTT_OK/GD32VW55X_Wifi_BLE_SDK/GD32VW55x_RELEASE_V1.0.2/MSDK/cloud/alicloud/src/services/awss\zconfig_vendor_common.c ****     for (; i < AWS_MAX_CHN_NUMS; i ++) {
 548              		.loc 1 250 5
 250:C:/Users/stapi/OneDrive/Desktop/GD32VW553/V1_MQTT_OK/GD32VW55X_Wifi_BLE_SDK/GD32VW55x_RELEASE_V1.0.2/MSDK/cloud/alicloud/src/services/awss\zconfig_vendor_common.c ****     for (; i < AWS_MAX_CHN_NUMS; i ++) {
 549              		.loc 1 250 13 is_stmt 0
 550 0038 8040     		lw	s0,0(s1)
 251:C:/Users/stapi/OneDrive/Desktop/GD32VW553/V1_MQTT_OK/GD32VW55X_Wifi_BLE_SDK/GD32VW55x_RELEASE_V1.0.2/MSDK/cloud/alicloud/src/services/awss\zconfig_vendor_common.c ****         if (aws_chn_list[i] == 0) {
 551              		.loc 1 251 5
 552 003a 7946     		li	a2,30
 250:C:/Users/stapi/OneDrive/Desktop/GD32VW553/V1_MQTT_OK/GD32VW55X_Wifi_BLE_SDK/GD32VW55x_RELEASE_V1.0.2/MSDK/cloud/alicloud/src/services/awss\zconfig_vendor_common.c ****     for (; i < AWS_MAX_CHN_NUMS; i ++) {
 553              		.loc 1 250 9
 554 003c 03472400 		lbu	a4,2(s0)
 555              	.LVL42:
 251:C:/Users/stapi/OneDrive/Desktop/GD32VW553/V1_MQTT_OK/GD32VW55X_Wifi_BLE_SDK/GD32VW55x_RELEASE_V1.0.2/MSDK/cloud/alicloud/src/services/awss\zconfig_vendor_common.c ****         if (aws_chn_list[i] == 0) {
 556              		.loc 1 251 5 is_stmt 1
 250:C:/Users/stapi/OneDrive/Desktop/GD32VW553/V1_MQTT_OK/GD32VW55X_Wifi_BLE_SDK/GD32VW55x_RELEASE_V1.0.2/MSDK/cloud/alicloud/src/services/awss\zconfig_vendor_common.c ****     for (; i < AWS_MAX_CHN_NUMS; i ++) {
 557              		.loc 1 250 9 is_stmt 0
 558 0040 BA87     		mv	a5,a4
 559              	.LVL43:
 560              	.L43:
 251:C:/Users/stapi/OneDrive/Desktop/GD32VW553/V1_MQTT_OK/GD32VW55X_Wifi_BLE_SDK/GD32VW55x_RELEASE_V1.0.2/MSDK/cloud/alicloud/src/services/awss\zconfig_vendor_common.c ****         if (aws_chn_list[i] == 0) {
 561              		.loc 1 251 12 is_stmt 1
 251:C:/Users/stapi/OneDrive/Desktop/GD32VW553/V1_MQTT_OK/GD32VW55X_Wifi_BLE_SDK/GD32VW55x_RELEASE_V1.0.2/MSDK/cloud/alicloud/src/services/awss\zconfig_vendor_common.c ****         if (aws_chn_list[i] == 0) {
 562              		.loc 1 251 5 is_stmt 0
 563 0042 635AF608 		ble	a5,a2,.L46
 261:C:/Users/stapi/OneDrive/Desktop/GD32VW553/V1_MQTT_OK/GD32VW55X_Wifi_BLE_SDK/GD32VW55x_RELEASE_V1.0.2/MSDK/cloud/alicloud/src/services/awss\zconfig_vendor_common.c ****             if (aws_chn_list[i] == 0) {
 564              		.loc 1 261 16
 565 0046 8147     		li	a5,0
 566              	.LVL44:
 567              	.L47:
 261:C:/Users/stapi/OneDrive/Desktop/GD32VW553/V1_MQTT_OK/GD32VW55X_Wifi_BLE_SDK/GD32VW55x_RELEASE_V1.0.2/MSDK/cloud/alicloud/src/services/awss\zconfig_vendor_common.c ****             if (aws_chn_list[i] == 0) {
 568              		.loc 1 261 21 is_stmt 1
 261:C:/Users/stapi/OneDrive/Desktop/GD32VW553/V1_MQTT_OK/GD32VW55X_Wifi_BLE_SDK/GD32VW55x_RELEASE_V1.0.2/MSDK/cloud/alicloud/src/services/awss\zconfig_vendor_common.c ****             if (aws_chn_list[i] == 0) {
 569              		.loc 1 261 9 is_stmt 0
 570 0048 63C0E70A 		bgt	a4,a5,.L50
 571              	.L45:
 271:C:/Users/stapi/OneDrive/Desktop/GD32VW553/V1_MQTT_OK/GD32VW55X_Wifi_BLE_SDK/GD32VW55x_RELEASE_V1.0.2/MSDK/cloud/alicloud/src/services/awss\zconfig_vendor_common.c ****         return;
 572              		.loc 1 271 5 is_stmt 1
 271:C:/Users/stapi/OneDrive/Desktop/GD32VW553/V1_MQTT_OK/GD32VW55X_Wifi_BLE_SDK/GD32VW55x_RELEASE_V1.0.2/MSDK/cloud/alicloud/src/services/awss\zconfig_vendor_common.c ****         return;
 573              		.loc 1 271 8 is_stmt 0
 574 004c 6307F706 		beq	a4,a5,.L51
 575              	.L49:
 275:C:/Users/stapi/OneDrive/Desktop/GD32VW553/V1_MQTT_OK/GD32VW55X_Wifi_BLE_SDK/GD32VW55x_RELEASE_V1.0.2/MSDK/cloud/alicloud/src/services/awss\zconfig_vendor_common.c ****     aws_locked_chn = channel;
 576              		.loc 1 275 5 is_stmt 1
 275:C:/Users/stapi/OneDrive/Desktop/GD32VW553/V1_MQTT_OK/GD32VW55X_Wifi_BLE_SDK/GD32VW55x_RELEASE_V1.0.2/MSDK/cloud/alicloud/src/services/awss\zconfig_vendor_common.c ****     aws_locked_chn = channel;
 577              		.loc 1 275 19 is_stmt 0
 578 0050 2301F400 		sb	a5,2(s0)
 276:C:/Users/stapi/OneDrive/Desktop/GD32VW553/V1_MQTT_OK/GD32VW55X_Wifi_BLE_SDK/GD32VW55x_RELEASE_V1.0.2/MSDK/cloud/alicloud/src/services/awss\zconfig_vendor_common.c ****     aws_cur_chn = channel;
 579              		.loc 1 276 5 is_stmt 1
 276:C:/Users/stapi/OneDrive/Desktop/GD32VW553/V1_MQTT_OK/GD32VW55X_Wifi_BLE_SDK/GD32VW55x_RELEASE_V1.0.2/MSDK/cloud/alicloud/src/services/awss\zconfig_vendor_common.c ****     aws_cur_chn = channel;
 580              		.loc 1 276 20 is_stmt 0
 581 0054 9377F90F 		andi	a5,s2,0xff
 582              	.LVL45:
 583 0058 A301F400 		sb	a5,3(s0)
 277:C:/Users/stapi/OneDrive/Desktop/GD32VW553/V1_MQTT_OK/GD32VW55X_Wifi_BLE_SDK/GD32VW55x_RELEASE_V1.0.2/MSDK/cloud/alicloud/src/services/awss\zconfig_vendor_common.c ****     aws_chn_timestamp = os_get_time_ms();
 584              		.loc 1 277 5 is_stmt 1
 277:C:/Users/stapi/OneDrive/Desktop/GD32VW553/V1_MQTT_OK/GD32VW55X_Wifi_BLE_SDK/GD32VW55x_RELEASE_V1.0.2/MSDK/cloud/alicloud/src/services/awss\zconfig_vendor_common.c ****     aws_chn_timestamp = os_get_time_ms();
 585              		.loc 1 277 17 is_stmt 0
 586 005c A300F400 		sb	a5,1(s0)
 278:C:/Users/stapi/OneDrive/Desktop/GD32VW553/V1_MQTT_OK/GD32VW55X_Wifi_BLE_SDK/GD32VW55x_RELEASE_V1.0.2/MSDK/cloud/alicloud/src/services/awss\zconfig_vendor_common.c ****     if (aws_state == AWS_SCANNING) {
 587              		.loc 1 278 5 is_stmt 1
 278:C:/Users/stapi/OneDrive/Desktop/GD32VW553/V1_MQTT_OK/GD32VW55X_Wifi_BLE_SDK/GD32VW55x_RELEASE_V1.0.2/MSDK/cloud/alicloud/src/services/awss\zconfig_vendor_common.c ****     if (aws_state == AWS_SCANNING) {
 588              		.loc 1 278 25 is_stmt 0
 589 0060 97000000 		call	os_get_time_ms
 589      E7800000 
 590              	.LVL46:
 279:C:/Users/stapi/OneDrive/Desktop/GD32VW553/V1_MQTT_OK/GD32VW55X_Wifi_BLE_SDK/GD32VW55x_RELEASE_V1.0.2/MSDK/cloud/alicloud/src/services/awss\zconfig_vendor_common.c ****         aws_state = AWS_CHN_LOCKED;
 591              		.loc 1 279 9
 592 0068 9C40     		lw	a5,0(s1)
 278:C:/Users/stapi/OneDrive/Desktop/GD32VW553/V1_MQTT_OK/GD32VW55X_Wifi_BLE_SDK/GD32VW55x_RELEASE_V1.0.2/MSDK/cloud/alicloud/src/services/awss\zconfig_vendor_common.c ****     if (aws_state == AWS_SCANNING) {
 593              		.loc 1 278 23
 594 006a 48D0     		sw	a0,36(s0)
 279:C:/Users/stapi/OneDrive/Desktop/GD32VW553/V1_MQTT_OK/GD32VW55X_Wifi_BLE_SDK/GD32VW55x_RELEASE_V1.0.2/MSDK/cloud/alicloud/src/services/awss\zconfig_vendor_common.c ****         aws_state = AWS_CHN_LOCKED;
 595              		.loc 1 279 5 is_stmt 1
 279:C:/Users/stapi/OneDrive/Desktop/GD32VW553/V1_MQTT_OK/GD32VW55X_Wifi_BLE_SDK/GD32VW55x_RELEASE_V1.0.2/MSDK/cloud/alicloud/src/services/awss\zconfig_vendor_common.c ****         aws_state = AWS_CHN_LOCKED;
 596              		.loc 1 279 8 is_stmt 0
 597 006c 03C70700 		lbu	a4,0(a5)
 598 0070 01E7     		bne	a4,zero,.L52
 280:C:/Users/stapi/OneDrive/Desktop/GD32VW553/V1_MQTT_OK/GD32VW55X_Wifi_BLE_SDK/GD32VW55x_RELEASE_V1.0.2/MSDK/cloud/alicloud/src/services/awss\zconfig_vendor_common.c ****     }
 599              		.loc 1 280 9 is_stmt 1
 280:C:/Users/stapi/OneDrive/Desktop/GD32VW553/V1_MQTT_OK/GD32VW55X_Wifi_BLE_SDK/GD32VW55x_RELEASE_V1.0.2/MSDK/cloud/alicloud/src/services/awss\zconfig_vendor_common.c ****     }
 600              		.loc 1 280 19 is_stmt 0
 601 0072 0547     		li	a4,1
 602 0074 2380E700 		sb	a4,0(a5)
 603              	.L52:
 282:C:/Users/stapi/OneDrive/Desktop/GD32VW553/V1_MQTT_OK/GD32VW55X_Wifi_BLE_SDK/GD32VW55x_RELEASE_V1.0.2/MSDK/cloud/alicloud/src/services/awss\zconfig_vendor_common.c **** 
 604              		.loc 1 282 5 is_stmt 1
 605              	.LVL47:
 606              	.LBB125:
 607              	.LBB126:
 468:..\..\..\..\cloud\alicloud\src\services\dev_bind\os/os.h **** }
 469:..\..\..\..\cloud\alicloud\src\services\dev_bind\os/os.h **** 
 470:..\..\..\..\cloud\alicloud\src\services\dev_bind\os/os.h **** /** @} */// end of os_system
 471:..\..\..\..\cloud\alicloud\src\services\dev_bind\os/os.h **** 
 472:..\..\..\..\cloud\alicloud\src\services\dev_bind\os/os.h **** /****************************************** io Interface ******************************************
 473:..\..\..\..\cloud\alicloud\src\services\dev_bind\os/os.h **** 
 474:..\..\..\..\cloud\alicloud\src\services\dev_bind\os/os.h **** /** @defgroup group_os_io io
 475:..\..\..\..\cloud\alicloud\src\services\dev_bind\os/os.h ****  *  @{
 476:..\..\..\..\cloud\alicloud\src\services\dev_bind\os/os.h ****  */
 477:..\..\..\..\cloud\alicloud\src\services\dev_bind\os/os.h **** 
 478:..\..\..\..\cloud\alicloud\src\services\dev_bind\os/os.h **** /**
 479:..\..\..\..\cloud\alicloud\src\services\dev_bind\os/os.h ****  * @brief Writes formatted data to stream.
 480:..\..\..\..\cloud\alicloud\src\services\dev_bind\os/os.h ****  *
 481:..\..\..\..\cloud\alicloud\src\services\dev_bind\os/os.h ****  * @param[in] fmt: @n String that contains the text to be written, it can optionally contain embedd
 482:..\..\..\..\cloud\alicloud\src\services\dev_bind\os/os.h ****      that specifies how subsequent arguments are converted for output.
 483:..\..\..\..\cloud\alicloud\src\services\dev_bind\os/os.h ****  * @param[in] ...: @n the variable argument list, for formatted and inserted in the resulting strin
 484:..\..\..\..\cloud\alicloud\src\services\dev_bind\os/os.h ****  * @return None.
 485:..\..\..\..\cloud\alicloud\src\services\dev_bind\os/os.h ****  * @see None.
 486:..\..\..\..\cloud\alicloud\src\services\dev_bind\os/os.h ****  * @note None.
 487:..\..\..\..\cloud\alicloud\src\services\dev_bind\os/os.h ****  */
 488:..\..\..\..\cloud\alicloud\src\services\dev_bind\os/os.h **** #define os_printf(fmt, ...) platform_printf(fmt, ## __VA_ARGS__)
 489:..\..\..\..\cloud\alicloud\src\services\dev_bind\os/os.h **** 
 490:..\..\..\..\cloud\alicloud\src\services\dev_bind\os/os.h **** /** @} */// end of os_io
 491:..\..\..\..\cloud\alicloud\src\services\dev_bind\os/os.h **** 
 492:..\..\..\..\cloud\alicloud\src\services\dev_bind\os/os.h **** /*************************************** wifi module Interface ************************************
 493:..\..\..\..\cloud\alicloud\src\services\dev_bind\os/os.h **** 
 494:..\..\..\..\cloud\alicloud\src\services\dev_bind\os/os.h **** /** @defgroup group_os_wifi_module wifi
 495:..\..\..\..\cloud\alicloud\src\services\dev_bind\os/os.h ****  *  @{
 496:..\..\..\..\cloud\alicloud\src\services\dev_bind\os/os.h ****  */
 497:..\..\..\..\cloud\alicloud\src\services\dev_bind\os/os.h **** 
 498:..\..\..\..\cloud\alicloud\src\services\dev_bind\os/os.h **** /**
 499:..\..\..\..\cloud\alicloud\src\services\dev_bind\os/os.h ****  * @brief Get encrypt type for smartconfig.
 500:..\..\..\..\cloud\alicloud\src\services\dev_bind\os/os.h ****  *
 501:..\..\..\..\cloud\alicloud\src\services\dev_bind\os/os.h ****  * @param None.
 502:..\..\..\..\cloud\alicloud\src\services\dev_bind\os/os.h ****  * @return.
 503:..\..\..\..\cloud\alicloud\src\services\dev_bind\os/os.h ****    @verbatim
 504:..\..\..\..\cloud\alicloud\src\services\dev_bind\os/os.h ****      = 0: open (no encrypt)
 505:..\..\..\..\cloud\alicloud\src\services\dev_bind\os/os.h ****      = 1: aes256cbc with default aes-key and aes-iv
 506:..\..\..\..\cloud\alicloud\src\services\dev_bind\os/os.h ****      = 2: aes128cbc with default aes-key and aes-iv
 507:..\..\..\..\cloud\alicloud\src\services\dev_bind\os/os.h ****      = 3: aes128cbc with aes-key per product and aes-iv = 0
 508:..\..\..\..\cloud\alicloud\src\services\dev_bind\os/os.h ****      = 4: aes128cbc with aes-key per device and aes-iv = 0
 509:..\..\..\..\cloud\alicloud\src\services\dev_bind\os/os.h ****      = 5: aes128cbc with aes-key per manufacture and aes-iv = 0
 510:..\..\..\..\cloud\alicloud\src\services\dev_bind\os/os.h ****      = others: invalid
 511:..\..\..\..\cloud\alicloud\src\services\dev_bind\os/os.h ****    @endverbatim
 512:..\..\..\..\cloud\alicloud\src\services\dev_bind\os/os.h ****  * @see None.
 513:..\..\..\..\cloud\alicloud\src\services\dev_bind\os/os.h ****  * @note None.
 514:..\..\..\..\cloud\alicloud\src\services\dev_bind\os/os.h ****  */
 515:..\..\..\..\cloud\alicloud\src\services\dev_bind\os/os.h **** static inline int os_get_encrypt_type(void)
 516:..\..\..\..\cloud\alicloud\src\services\dev_bind\os/os.h **** {
 517:..\..\..\..\cloud\alicloud\src\services\dev_bind\os/os.h ****     return platform_get_encrypt_type();
 518:..\..\..\..\cloud\alicloud\src\services\dev_bind\os/os.h **** }
 519:..\..\..\..\cloud\alicloud\src\services\dev_bind\os/os.h **** 
 520:..\..\..\..\cloud\alicloud\src\services\dev_bind\os/os.h **** /**
 521:..\..\..\..\cloud\alicloud\src\services\dev_bind\os/os.h ****  * @brief    Get Security level for wifi configuration with connection.
 522:..\..\..\..\cloud\alicloud\src\services\dev_bind\os/os.h ****  *           Used for AP solution of router and App.
 523:..\..\..\..\cloud\alicloud\src\services\dev_bind\os/os.h ****  *
 524:..\..\..\..\cloud\alicloud\src\services\dev_bind\os/os.h ****  * @param None.
 525:..\..\..\..\cloud\alicloud\src\services\dev_bind\os/os.h ****  * @return The security level:
 526:..\..\..\..\cloud\alicloud\src\services\dev_bind\os/os.h ****    @verbatim
 527:..\..\..\..\cloud\alicloud\src\services\dev_bind\os/os.h ****     3: aes128cfb with aes-key per product and aes-iv = random
 528:..\..\..\..\cloud\alicloud\src\services\dev_bind\os/os.h ****     4: aes128cfb with aes-key per device and aes-iv = random
 529:..\..\..\..\cloud\alicloud\src\services\dev_bind\os/os.h ****     5: aes128cfb with aes-key per manufacture and aes-iv = random
 530:..\..\..\..\cloud\alicloud\src\services\dev_bind\os/os.h ****     others: invalid
 531:..\..\..\..\cloud\alicloud\src\services\dev_bind\os/os.h ****    @endverbatim
 532:..\..\..\..\cloud\alicloud\src\services\dev_bind\os/os.h ****  * @see None.
 533:..\..\..\..\cloud\alicloud\src\services\dev_bind\os/os.h ****  */
 534:..\..\..\..\cloud\alicloud\src\services\dev_bind\os/os.h **** static inline int os_get_conn_encrypt_type(void)
 535:..\..\..\..\cloud\alicloud\src\services\dev_bind\os/os.h **** {
 536:..\..\..\..\cloud\alicloud\src\services\dev_bind\os/os.h ****     return platform_get_conn_encrypt_type();
 537:..\..\..\..\cloud\alicloud\src\services\dev_bind\os/os.h **** }
 538:..\..\..\..\cloud\alicloud\src\services\dev_bind\os/os.h **** 
 539:..\..\..\..\cloud\alicloud\src\services\dev_bind\os/os.h **** /**
 540:..\..\..\..\cloud\alicloud\src\services\dev_bind\os/os.h ****  * @brief   Get rssi and channel of current link
 541:..\..\..\..\cloud\alicloud\src\services\dev_bind\os/os.h ****  *
 542:..\..\..\..\cloud\alicloud\src\services\dev_bind\os/os.h ****  * @param[out] p_rssi: rssi value of current link
 543:..\..\..\..\cloud\alicloud\src\services\dev_bind\os/os.h ****  * @param[out] p_channel: channel of current link
 544:..\..\..\..\cloud\alicloud\src\services\dev_bind\os/os.h ****  * 
 545:..\..\..\..\cloud\alicloud\src\services\dev_bind\os/os.h ****  * @return
 546:..\..\..\..\cloud\alicloud\src\services\dev_bind\os/os.h ****    @verbatim
 547:..\..\..\..\cloud\alicloud\src\services\dev_bind\os/os.h ****      = 0: succeeded
 548:..\..\..\..\cloud\alicloud\src\services\dev_bind\os/os.h ****      = -1: failed
 549:..\..\..\..\cloud\alicloud\src\services\dev_bind\os/os.h ****    @endverbatim
 550:..\..\..\..\cloud\alicloud\src\services\dev_bind\os/os.h ****  * @see None.
 551:..\..\..\..\cloud\alicloud\src\services\dev_bind\os/os.h ****  * @note None.
 552:..\..\..\..\cloud\alicloud\src\services\dev_bind\os/os.h ****  * @note awss use this API to get rssi and channel of current link
 553:..\..\..\..\cloud\alicloud\src\services\dev_bind\os/os.h ****  */
 554:..\..\..\..\cloud\alicloud\src\services\dev_bind\os/os.h **** static inline int os_get_conn_link_stat(int *p_rssi, int *p_channel)
 555:..\..\..\..\cloud\alicloud\src\services\dev_bind\os/os.h **** {
 556:..\..\..\..\cloud\alicloud\src\services\dev_bind\os/os.h ****     return platform_get_conn_link_stat(p_rssi, p_channel);
 557:..\..\..\..\cloud\alicloud\src\services\dev_bind\os/os.h **** }
 558:..\..\..\..\cloud\alicloud\src\services\dev_bind\os/os.h **** 
 559:..\..\..\..\cloud\alicloud\src\services\dev_bind\os/os.h **** /**
 560:..\..\..\..\cloud\alicloud\src\services\dev_bind\os/os.h ****  * @brief Get WIFI MAC string with format like: XX:XX:XX:XX:XX:XX.
 561:..\..\..\..\cloud\alicloud\src\services\dev_bind\os/os.h ****  *
 562:..\..\..\..\cloud\alicloud\src\services\dev_bind\os/os.h ****  * @param[out] mac_str @n Buffer for using to store wifi MAC string.
 563:..\..\..\..\cloud\alicloud\src\services\dev_bind\os/os.h ****  * @return A pointer to the start address of mac_str.
 564:..\..\..\..\cloud\alicloud\src\services\dev_bind\os/os.h ****  * @see None.
 565:..\..\..\..\cloud\alicloud\src\services\dev_bind\os/os.h ****  * @note this func will format mac address string uppercase
 566:..\..\..\..\cloud\alicloud\src\services\dev_bind\os/os.h ****  */
 567:..\..\..\..\cloud\alicloud\src\services\dev_bind\os/os.h **** char *os_wifi_get_mac_str(char mac_str[OS_MAC_LEN]);
 568:..\..\..\..\cloud\alicloud\src\services\dev_bind\os/os.h **** 
 569:..\..\..\..\cloud\alicloud\src\services\dev_bind\os/os.h **** char *os_wifi_str2mac(char mac_str[OS_MAC_LEN], char mac[OS_ETH_ALEN]);
 570:..\..\..\..\cloud\alicloud\src\services\dev_bind\os/os.h **** 
 571:..\..\..\..\cloud\alicloud\src\services\dev_bind\os/os.h **** /**
 572:..\..\..\..\cloud\alicloud\src\services\dev_bind\os/os.h ****  * @brief Get WIFI MAC address(digital form)
 573:..\..\..\..\cloud\alicloud\src\services\dev_bind\os/os.h ****  *
 574:..\..\..\..\cloud\alicloud\src\services\dev_bind\os/os.h ****  * @param[out] mac @n digital buffer to hold mac address
 575:..\..\..\..\cloud\alicloud\src\services\dev_bind\os/os.h ****  * @return A pointer to the start address of mac.
 576:..\..\..\..\cloud\alicloud\src\services\dev_bind\os/os.h ****  * @see None.
 577:..\..\..\..\cloud\alicloud\src\services\dev_bind\os/os.h ****  * @note None.
 578:..\..\..\..\cloud\alicloud\src\services\dev_bind\os/os.h ****  */
 579:..\..\..\..\cloud\alicloud\src\services\dev_bind\os/os.h **** uint8_t *os_wifi_get_mac(uint8_t mac[OS_ETH_ALEN]);
 580:..\..\..\..\cloud\alicloud\src\services\dev_bind\os/os.h **** 
 581:..\..\..\..\cloud\alicloud\src\services\dev_bind\os/os.h **** /**
 582:..\..\..\..\cloud\alicloud\src\services\dev_bind\os/os.h ****  * @brief Get WIFI IP string with format like: xx:xx:xx:xx:xx:xx,
 583:..\..\..\..\cloud\alicloud\src\services\dev_bind\os/os.h ****    and return IP with binary form, in network byte order.
 584:..\..\..\..\cloud\alicloud\src\services\dev_bind\os/os.h ****  *
 585:..\..\..\..\cloud\alicloud\src\services\dev_bind\os/os.h ****  * @param[in] ifname @n Specify the interface name.The NULL value indicates the default network int
 586:..\..\..\..\cloud\alicloud\src\services\dev_bind\os/os.h ****  * @param[out] ip_str @n Buffer for using to store IP string, in numbers-and-dots notation form.
 587:..\..\..\..\cloud\alicloud\src\services\dev_bind\os/os.h ****  * @return IP address with binary form, in network byte order.
 588:..\..\..\..\cloud\alicloud\src\services\dev_bind\os/os.h ****  * @see None.
 589:..\..\..\..\cloud\alicloud\src\services\dev_bind\os/os.h ****  * @note None.
 590:..\..\..\..\cloud\alicloud\src\services\dev_bind\os/os.h ****  */
 591:..\..\..\..\cloud\alicloud\src\services\dev_bind\os/os.h **** static inline uint32_t os_wifi_get_ip(char ip_str[OS_IP_LEN], const char *ifname)
 592:..\..\..\..\cloud\alicloud\src\services\dev_bind\os/os.h **** {
 593:..\..\..\..\cloud\alicloud\src\services\dev_bind\os/os.h ****     return platform_wifi_get_ip(ip_str, ifname);
 594:..\..\..\..\cloud\alicloud\src\services\dev_bind\os/os.h **** }
 595:..\..\..\..\cloud\alicloud\src\services\dev_bind\os/os.h **** 
 596:..\..\..\..\cloud\alicloud\src\services\dev_bind\os/os.h **** /*************************************** awss interface ***************************************/
 597:..\..\..\..\cloud\alicloud\src\services\dev_bind\os/os.h **** 
 598:..\..\..\..\cloud\alicloud\src\services\dev_bind\os/os.h **** /** @defgroup group_os_awss alink wireless setup service(awss)
 599:..\..\..\..\cloud\alicloud\src\services\dev_bind\os/os.h ****  *  @{
 600:..\..\..\..\cloud\alicloud\src\services\dev_bind\os/os.h ****  */
 601:..\..\..\..\cloud\alicloud\src\services\dev_bind\os/os.h **** 
 602:..\..\..\..\cloud\alicloud\src\services\dev_bind\os/os.h **** /**
 603:..\..\..\..\cloud\alicloud\src\services\dev_bind\os/os.h ****  * @brief Get timeout interval, in millisecond, of per awss.
 604:..\..\..\..\cloud\alicloud\src\services\dev_bind\os/os.h ****  *
 605:..\..\..\..\cloud\alicloud\src\services\dev_bind\os/os.h ****  * @param None.
 606:..\..\..\..\cloud\alicloud\src\services\dev_bind\os/os.h ****  * @return The timeout interval.
 607:..\..\..\..\cloud\alicloud\src\services\dev_bind\os/os.h ****  * @see None.
 608:..\..\..\..\cloud\alicloud\src\services\dev_bind\os/os.h ****  * @note The recommended value is 60,000ms.
 609:..\..\..\..\cloud\alicloud\src\services\dev_bind\os/os.h ****  */
 610:..\..\..\..\cloud\alicloud\src\services\dev_bind\os/os.h **** static inline int os_awss_get_timeout_interval_ms(void)
 611:..\..\..\..\cloud\alicloud\src\services\dev_bind\os/os.h **** {
 612:..\..\..\..\cloud\alicloud\src\services\dev_bind\os/os.h ****     return platform_awss_get_timeout_interval_ms();
 613:..\..\..\..\cloud\alicloud\src\services\dev_bind\os/os.h **** }
 614:..\..\..\..\cloud\alicloud\src\services\dev_bind\os/os.h **** 
 615:..\..\..\..\cloud\alicloud\src\services\dev_bind\os/os.h **** /**
 616:..\..\..\..\cloud\alicloud\src\services\dev_bind\os/os.h ****  * @brief Get time length, in millisecond, of per channel scan.
 617:..\..\..\..\cloud\alicloud\src\services\dev_bind\os/os.h ****  *
 618:..\..\..\..\cloud\alicloud\src\services\dev_bind\os/os.h ****  * @param None.
 619:..\..\..\..\cloud\alicloud\src\services\dev_bind\os/os.h ****  * @return The timeout interval.
 620:..\..\..\..\cloud\alicloud\src\services\dev_bind\os/os.h ****  * @see None.
 621:..\..\..\..\cloud\alicloud\src\services\dev_bind\os/os.h ****  * @note None. The recommended value is between 200ms and 400ms.
 622:..\..\..\..\cloud\alicloud\src\services\dev_bind\os/os.h ****  */
 623:..\..\..\..\cloud\alicloud\src\services\dev_bind\os/os.h **** static inline int os_awss_get_channelscan_interval_ms(void)
 624:..\..\..\..\cloud\alicloud\src\services\dev_bind\os/os.h **** {
 625:..\..\..\..\cloud\alicloud\src\services\dev_bind\os/os.h ****     return platform_awss_get_channelscan_interval_ms();
 626:..\..\..\..\cloud\alicloud\src\services\dev_bind\os/os.h **** }
 627:..\..\..\..\cloud\alicloud\src\services\dev_bind\os/os.h **** 
 628:..\..\..\..\cloud\alicloud\src\services\dev_bind\os/os.h **** typedef platform_awss_recv_80211_frame_cb_t os_awss_recv_80211_frame_cb_t;
 629:..\..\..\..\cloud\alicloud\src\services\dev_bind\os/os.h **** /**
 630:..\..\..\..\cloud\alicloud\src\services\dev_bind\os/os.h ****  * @brief Set wifi running at monitor mode,
 631:..\..\..\..\cloud\alicloud\src\services\dev_bind\os/os.h ****    and register a callback function which will be called when wifi receive a frame.
 632:..\..\..\..\cloud\alicloud\src\services\dev_bind\os/os.h ****  *
 633:..\..\..\..\cloud\alicloud\src\services\dev_bind\os/os.h ****  * @param[in] cb @n A function pointer, called back when wifi receive a frame.
 634:..\..\..\..\cloud\alicloud\src\services\dev_bind\os/os.h ****  * @return None.
 635:..\..\..\..\cloud\alicloud\src\services\dev_bind\os/os.h ****  * @see None.
 636:..\..\..\..\cloud\alicloud\src\services\dev_bind\os/os.h ****  * @note None.
 637:..\..\..\..\cloud\alicloud\src\services\dev_bind\os/os.h ****  */
 638:..\..\..\..\cloud\alicloud\src\services\dev_bind\os/os.h **** static inline void os_awss_open_monitor(os_awss_recv_80211_frame_cb_t cb)
 639:..\..\..\..\cloud\alicloud\src\services\dev_bind\os/os.h **** {
 640:..\..\..\..\cloud\alicloud\src\services\dev_bind\os/os.h ****     platform_awss_open_monitor(cb);
 641:..\..\..\..\cloud\alicloud\src\services\dev_bind\os/os.h **** }
 642:..\..\..\..\cloud\alicloud\src\services\dev_bind\os/os.h **** 
 643:..\..\..\..\cloud\alicloud\src\services\dev_bind\os/os.h **** /**
 644:..\..\..\..\cloud\alicloud\src\services\dev_bind\os/os.h ****  * @brief Close wifi monitor mode, and set running at station mode.
 645:..\..\..\..\cloud\alicloud\src\services\dev_bind\os/os.h ****  *
 646:..\..\..\..\cloud\alicloud\src\services\dev_bind\os/os.h ****  * @param None.
 647:..\..\..\..\cloud\alicloud\src\services\dev_bind\os/os.h ****  * @return None.
 648:..\..\..\..\cloud\alicloud\src\services\dev_bind\os/os.h ****  * @see None.
 649:..\..\..\..\cloud\alicloud\src\services\dev_bind\os/os.h ****  * @note None.
 650:..\..\..\..\cloud\alicloud\src\services\dev_bind\os/os.h ****  */
 651:..\..\..\..\cloud\alicloud\src\services\dev_bind\os/os.h **** static inline void os_awss_close_monitor(void)
 652:..\..\..\..\cloud\alicloud\src\services\dev_bind\os/os.h **** {
 653:..\..\..\..\cloud\alicloud\src\services\dev_bind\os/os.h ****     platform_awss_close_monitor();
 654:..\..\..\..\cloud\alicloud\src\services\dev_bind\os/os.h **** }
 655:..\..\..\..\cloud\alicloud\src\services\dev_bind\os/os.h **** 
 656:..\..\..\..\cloud\alicloud\src\services\dev_bind\os/os.h **** /**
 657:..\..\..\..\cloud\alicloud\src\services\dev_bind\os/os.h ****   * @brief   SoftAP
 658:..\..\..\..\cloud\alicloud\src\services\dev_bind\os/os.h ****   *
 659:..\..\..\..\cloud\alicloud\src\services\dev_bind\os/os.h ****   * @param[in] ssid @n ssid
 660:..\..\..\..\cloud\alicloud\src\services\dev_bind\os/os.h ****   * @param[in] passwd @n passwd
 661:..\..\..\..\cloud\alicloud\src\services\dev_bind\os/os.h ****   * @param[in] beacon_interval @n Beacon
 662:..\..\..\..\cloud\alicloud\src\services\dev_bind\os/os.h ****   * @param[in] hide @n hide:0, , 
 663:..\..\..\..\cloud\alicloud\src\services\dev_bind\os/os.h ****   * @return
 664:..\..\..\..\cloud\alicloud\src\services\dev_bind\os/os.h ****      @verbatim
 665:..\..\..\..\cloud\alicloud\src\services\dev_bind\os/os.h ****         = 0: success
 666:..\..\..\..\cloud\alicloud\src\services\dev_bind\os/os.h ****         = -1: unsupported
 667:..\..\..\..\cloud\alicloud\src\services\dev_bind\os/os.h ****         = -2: failure with system error
 668:..\..\..\..\cloud\alicloud\src\services\dev_bind\os/os.h ****         = -3: failure with no memory
 669:..\..\..\..\cloud\alicloud\src\services\dev_bind\os/os.h ****         = -4: failure with invalid parameters
 670:..\..\..\..\cloud\alicloud\src\services\dev_bind\os/os.h ****      @endverbatim
 671:..\..\..\..\cloud\alicloud\src\services\dev_bind\os/os.h ****   * @Note:
 672:..\..\..\..\cloud\alicloud\src\services\dev_bind\os/os.h ****   *       1ssidpasswd'\0'passwd
 673:..\..\..\..\cloud\alicloud\src\services\dev_bind\os/os.h ****   *          0Open
 674:..\..\..\..\cloud\alicloud\src\services\dev_bind\os/os.h ****   *       2beacon_intervalBeacon
 675:..\..\..\..\cloud\alicloud\src\services\dev_bind\os/os.h ****   *          100ms
 676:..\..\..\..\cloud\alicloud\src\services\dev_bind\os/os.h ****   *       3hidehide=0
 677:..\..\..\..\cloud\alicloud\src\services\dev_bind\os/os.h ****   *         
 678:..\..\..\..\cloud\alicloud\src\services\dev_bind\os/os.h ****   */
 679:..\..\..\..\cloud\alicloud\src\services\dev_bind\os/os.h **** 
 680:..\..\..\..\cloud\alicloud\src\services\dev_bind\os/os.h **** static inline int os_awss_open_ap(const char *ssid, const char *passwd, int beacon_interval, int hi
 681:..\..\..\..\cloud\alicloud\src\services\dev_bind\os/os.h **** {
 682:..\..\..\..\cloud\alicloud\src\services\dev_bind\os/os.h ****     return platform_awss_open_ap(ssid, passwd, beacon_interval, hide);
 683:..\..\..\..\cloud\alicloud\src\services\dev_bind\os/os.h **** }
 684:..\..\..\..\cloud\alicloud\src\services\dev_bind\os/os.h **** 
 685:..\..\..\..\cloud\alicloud\src\services\dev_bind\os/os.h **** /**
 686:..\..\..\..\cloud\alicloud\src\services\dev_bind\os/os.h ****   * @brief   SoftAPStation
 687:..\..\..\..\cloud\alicloud\src\services\dev_bind\os/os.h ****   *
 688:..\..\..\..\cloud\alicloud\src\services\dev_bind\os/os.h ****   * @return
 689:..\..\..\..\cloud\alicloud\src\services\dev_bind\os/os.h ****      @verbatim
 690:..\..\..\..\cloud\alicloud\src\services\dev_bind\os/os.h ****         = 0: success
 691:..\..\..\..\cloud\alicloud\src\services\dev_bind\os/os.h ****         = -1: unsupported
 692:..\..\..\..\cloud\alicloud\src\services\dev_bind\os/os.h ****         = -2: failure
 693:..\..\..\..\cloud\alicloud\src\services\dev_bind\os/os.h ****      @endverbatim
 694:..\..\..\..\cloud\alicloud\src\services\dev_bind\os/os.h ****   * @Note:
 695:..\..\..\..\cloud\alicloud\src\services\dev_bind\os/os.h ****   *       1
 696:..\..\..\..\cloud\alicloud\src\services\dev_bind\os/os.h ****   *          
 697:..\..\..\..\cloud\alicloud\src\services\dev_bind\os/os.h ****   *       2StationStation+SoftAP
 698:..\..\..\..\cloud\alicloud\src\services\dev_bind\os/os.h ****   *          SoftAPStation
 699:..\..\..\..\cloud\alicloud\src\services\dev_bind\os/os.h ****   *       3Wi-Fi
 700:..\..\..\..\cloud\alicloud\src\services\dev_bind\os/os.h ****   *          
 701:..\..\..\..\cloud\alicloud\src\services\dev_bind\os/os.h ****   */
 702:..\..\..\..\cloud\alicloud\src\services\dev_bind\os/os.h **** 
 703:..\..\..\..\cloud\alicloud\src\services\dev_bind\os/os.h **** static inline int os_awss_close_ap()
 704:..\..\..\..\cloud\alicloud\src\services\dev_bind\os/os.h **** {
 705:..\..\..\..\cloud\alicloud\src\services\dev_bind\os/os.h ****     return platform_awss_close_ap();
 706:..\..\..\..\cloud\alicloud\src\services\dev_bind\os/os.h **** }
 707:..\..\..\..\cloud\alicloud\src\services\dev_bind\os/os.h **** 
 708:..\..\..\..\cloud\alicloud\src\services\dev_bind\os/os.h **** /**
 709:..\..\..\..\cloud\alicloud\src\services\dev_bind\os/os.h ****  * @brief Switch to specific wifi channel.
 710:..\..\..\..\cloud\alicloud\src\services\dev_bind\os/os.h ****  *
 711:..\..\..\..\cloud\alicloud\src\services\dev_bind\os/os.h ****  * @param[in] primary_channel @n Primary channel.
 712:..\..\..\..\cloud\alicloud\src\services\dev_bind\os/os.h ****  * @param[in] secondary_channel @n Auxiliary channel.
 713:..\..\..\..\cloud\alicloud\src\services\dev_bind\os/os.h ****  * @param[in] bssid @n A pointer to wifi BSSID.
 714:..\..\..\..\cloud\alicloud\src\services\dev_bind\os/os.h ****  * @return None.
 715:..\..\..\..\cloud\alicloud\src\services\dev_bind\os/os.h ****  * @see None.
 716:..\..\..\..\cloud\alicloud\src\services\dev_bind\os/os.h ****  * @note None.
 717:..\..\..\..\cloud\alicloud\src\services\dev_bind\os/os.h ****  */
 718:..\..\..\..\cloud\alicloud\src\services\dev_bind\os/os.h **** static inline void os_awss_switch_channel(char primary_channel, char secondary_channel, uint8_t bss
 719:..\..\..\..\cloud\alicloud\src\services\dev_bind\os/os.h **** {
 720:..\..\..\..\cloud\alicloud\src\services\dev_bind\os/os.h ****     platform_awss_switch_channel(primary_channel, secondary_channel, bssid);
 608              		.loc 2 720 5
 609 0078 0146     		li	a2,0
 610 007a 8145     		li	a1,0
 611 007c 13154960 		sext.b	a0,s2
 612 0080 97000000 		call	HAL_Awss_Switch_Channel
 612      E7800000 
 613              	.LVL48:
 614              	.LBE126:
 615              	.LBE125:
 284:C:/Users/stapi/OneDrive/Desktop/GD32VW553/V1_MQTT_OK/GD32VW55X_Wifi_BLE_SDK/GD32VW55x_RELEASE_V1.0.2/MSDK/cloud/alicloud/src/services/awss\zconfig_vendor_common.c **** }
 616              		.loc 1 284 5
 284:C:/Users/stapi/OneDrive/Desktop/GD32VW553/V1_MQTT_OK/GD32VW55X_Wifi_BLE_SDK/GD32VW55x_RELEASE_V1.0.2/MSDK/cloud/alicloud/src/services/awss\zconfig_vendor_common.c **** }
 617              		.loc 1 284 5
 618 0088 37050000 		lui	a0,%hi(.LC2)
 619 008c 13050500 		addi	a0,a0,%lo(.LC2)
 620 0090 97000000 		call	HAL_Printf
 620      E7800000 
 621              	.LVL49:
 284:C:/Users/stapi/OneDrive/Desktop/GD32VW553/V1_MQTT_OK/GD32VW55X_Wifi_BLE_SDK/GD32VW55x_RELEASE_V1.0.2/MSDK/cloud/alicloud/src/services/awss\zconfig_vendor_common.c **** }
 622              		.loc 1 284 5
 623 0098 37050000 		lui	a0,%hi(.LC3)
 624 009c 13050500 		addi	a0,a0,%lo(.LC3)
 625 00a0 CA85     		mv	a1,s2
 626 00a2 97000000 		call	HAL_Printf
 626      E7800000 
 627              	.LVL50:
 284:C:/Users/stapi/OneDrive/Desktop/GD32VW553/V1_MQTT_OK/GD32VW55X_Wifi_BLE_SDK/GD32VW55x_RELEASE_V1.0.2/MSDK/cloud/alicloud/src/services/awss\zconfig_vendor_common.c **** }
 628              		.loc 1 284 5
 629 00aa 37050000 		lui	a0,%hi(.LC4)
 630 00ae 13050500 		addi	a0,a0,%lo(.LC4)
 631 00b2 97000000 		call	HAL_Printf
 631      E7800000 
 632              	.LVL51:
 633              	.L51:
 284:C:/Users/stapi/OneDrive/Desktop/GD32VW553/V1_MQTT_OK/GD32VW55X_Wifi_BLE_SDK/GD32VW55x_RELEASE_V1.0.2/MSDK/cloud/alicloud/src/services/awss\zconfig_vendor_common.c **** }
 634              		.loc 1 284 5
 635              	.LBE124:
 636              	.LBE123:
 191:C:/Users/stapi/OneDrive/Desktop/GD32VW553/V1_MQTT_OK/GD32VW55X_Wifi_BLE_SDK/GD32VW55x_RELEASE_V1.0.2/MSDK/cloud/alicloud/src/services/awss\zconfig_vendor_common.c ****         os_mutex_unlock(zc_mutex);
 637              		.loc 1 191 9
 192:C:/Users/stapi/OneDrive/Desktop/GD32VW553/V1_MQTT_OK/GD32VW55X_Wifi_BLE_SDK/GD32VW55x_RELEASE_V1.0.2/MSDK/cloud/alicloud/src/services/awss\zconfig_vendor_common.c ****         return;
 638              		.loc 1 192 9 is_stmt 0
 639 00ba 83270A00 		lw	a5,%lo(zconfig_data)(s4)
 191:C:/Users/stapi/OneDrive/Desktop/GD32VW553/V1_MQTT_OK/GD32VW55X_Wifi_BLE_SDK/GD32VW55x_RELEASE_V1.0.2/MSDK/cloud/alicloud/src/services/awss\zconfig_vendor_common.c ****         os_mutex_unlock(zc_mutex);
 640              		.loc 1 191 28
 641 00be 23A00900 		sw	zero,0(s3)
 192:C:/Users/stapi/OneDrive/Desktop/GD32VW553/V1_MQTT_OK/GD32VW55X_Wifi_BLE_SDK/GD32VW55x_RELEASE_V1.0.2/MSDK/cloud/alicloud/src/services/awss\zconfig_vendor_common.c ****         return;
 642              		.loc 1 192 9 is_stmt 1
 643              	.LVL52:
 644              	.LBB128:
 645              	.LBB129:
 294:..\..\..\..\cloud\alicloud\src\services\dev_bind\os/os.h **** }
 646              		.loc 2 294 5
 647              	.L64:
 648              	.LBE129:
 649              	.LBE128:
 650              	.LBB130:
 651              	.LBB131:
 652              	.LBB132:
 653              	.LBB133:
 654 00c2 03A50754 		lw	a0,1344(a5)
 655 00c6 97000000 		call	HAL_MutexUnlock
 655      E7800000 
 656              	.LVL53:
 657              	.L40:
 658              	.LBE133:
 659              	.LBE132:
 660              	.LBE131:
 661              	.LBE130:
 236:C:/Users/stapi/OneDrive/Desktop/GD32VW553/V1_MQTT_OK/GD32VW55X_Wifi_BLE_SDK/GD32VW55x_RELEASE_V1.0.2/MSDK/cloud/alicloud/src/services/awss\zconfig_vendor_common.c **** 
 662              		.loc 1 236 1 is_stmt 0
 663 00ce 17030000 		tail	__riscv_restore_5
 663      67000300 
 664              		.cfi_remember_state
 665              		.cfi_restore 20
 666              		.cfi_restore 19
 667              		.cfi_restore 18
 668              		.cfi_restore 9
 669              		.cfi_restore 8
 670              		.cfi_restore 1
 671              		.cfi_def_cfa_offset 0
 672              	.LVL54:
 673              	.L46:
 674              		.cfi_restore_state
 675              	.LBB143:
 676              	.LBB127:
 252:C:/Users/stapi/OneDrive/Desktop/GD32VW553/V1_MQTT_OK/GD32VW55X_Wifi_BLE_SDK/GD32VW55x_RELEASE_V1.0.2/MSDK/cloud/alicloud/src/services/awss\zconfig_vendor_common.c ****             continue;
 677              		.loc 1 252 9 is_stmt 1
 252:C:/Users/stapi/OneDrive/Desktop/GD32VW553/V1_MQTT_OK/GD32VW55X_Wifi_BLE_SDK/GD32VW55x_RELEASE_V1.0.2/MSDK/cloud/alicloud/src/services/awss\zconfig_vendor_common.c ****             continue;
 678              		.loc 1 252 25 is_stmt 0
 679 00d6 B306F400 		add	a3,s0,a5
 680 00da 83C64600 		lbu	a3,4(a3)
 252:C:/Users/stapi/OneDrive/Desktop/GD32VW553/V1_MQTT_OK/GD32VW55X_Wifi_BLE_SDK/GD32VW55x_RELEASE_V1.0.2/MSDK/cloud/alicloud/src/services/awss\zconfig_vendor_common.c ****             continue;
 681              		.loc 1 252 12
 682 00de 99C2     		beq	a3,zero,.L44
 255:C:/Users/stapi/OneDrive/Desktop/GD32VW553/V1_MQTT_OK/GD32VW55X_Wifi_BLE_SDK/GD32VW55x_RELEASE_V1.0.2/MSDK/cloud/alicloud/src/services/awss\zconfig_vendor_common.c ****             break;
 683              		.loc 1 255 9 is_stmt 1
 255:C:/Users/stapi/OneDrive/Desktop/GD32VW553/V1_MQTT_OK/GD32VW55X_Wifi_BLE_SDK/GD32VW55x_RELEASE_V1.0.2/MSDK/cloud/alicloud/src/services/awss\zconfig_vendor_common.c ****             break;
 684              		.loc 1 255 12 is_stmt 0
 685 00e0 E306D9F6 		beq	s2,a3,.L45
 686              	.L44:
 251:C:/Users/stapi/OneDrive/Desktop/GD32VW553/V1_MQTT_OK/GD32VW55X_Wifi_BLE_SDK/GD32VW55x_RELEASE_V1.0.2/MSDK/cloud/alicloud/src/services/awss\zconfig_vendor_common.c ****         if (aws_chn_list[i] == 0) {
 687              		.loc 1 251 34 is_stmt 1
 251:C:/Users/stapi/OneDrive/Desktop/GD32VW553/V1_MQTT_OK/GD32VW55X_Wifi_BLE_SDK/GD32VW55x_RELEASE_V1.0.2/MSDK/cloud/alicloud/src/services/awss\zconfig_vendor_common.c ****         if (aws_chn_list[i] == 0) {
 688              		.loc 1 251 36 is_stmt 0
 689 00e4 8507     		addi	a5,a5,1
 690              	.LVL55:
 691 00e6 B1BF     		j	.L43
 692              	.L50:
 262:C:/Users/stapi/OneDrive/Desktop/GD32VW553/V1_MQTT_OK/GD32VW55X_Wifi_BLE_SDK/GD32VW55x_RELEASE_V1.0.2/MSDK/cloud/alicloud/src/services/awss\zconfig_vendor_common.c ****                 continue;
 693              		.loc 1 262 13 is_stmt 1
 262:C:/Users/stapi/OneDrive/Desktop/GD32VW553/V1_MQTT_OK/GD32VW55X_Wifi_BLE_SDK/GD32VW55x_RELEASE_V1.0.2/MSDK/cloud/alicloud/src/services/awss\zconfig_vendor_common.c ****                 continue;
 694              		.loc 1 262 29 is_stmt 0
 695 00e8 B306F400 		add	a3,s0,a5
 696 00ec 83C64600 		lbu	a3,4(a3)
 262:C:/Users/stapi/OneDrive/Desktop/GD32VW553/V1_MQTT_OK/GD32VW55X_Wifi_BLE_SDK/GD32VW55x_RELEASE_V1.0.2/MSDK/cloud/alicloud/src/services/awss\zconfig_vendor_common.c ****                 continue;
 697              		.loc 1 262 16
 698 00f0 99C2     		beq	a3,zero,.L48
 265:C:/Users/stapi/OneDrive/Desktop/GD32VW553/V1_MQTT_OK/GD32VW55X_Wifi_BLE_SDK/GD32VW55x_RELEASE_V1.0.2/MSDK/cloud/alicloud/src/services/awss\zconfig_vendor_common.c ****                 break;
 699              		.loc 1 265 13 is_stmt 1
 265:C:/Users/stapi/OneDrive/Desktop/GD32VW553/V1_MQTT_OK/GD32VW55X_Wifi_BLE_SDK/GD32VW55x_RELEASE_V1.0.2/MSDK/cloud/alicloud/src/services/awss\zconfig_vendor_common.c ****                 break;
 700              		.loc 1 265 16 is_stmt 0
 701 00f2 E30FD9F4 		beq	s2,a3,.L49
 702              	.L48:
 261:C:/Users/stapi/OneDrive/Desktop/GD32VW553/V1_MQTT_OK/GD32VW55X_Wifi_BLE_SDK/GD32VW55x_RELEASE_V1.0.2/MSDK/cloud/alicloud/src/services/awss\zconfig_vendor_common.c ****             if (aws_chn_list[i] == 0) {
 703              		.loc 1 261 40 is_stmt 1
 261:C:/Users/stapi/OneDrive/Desktop/GD32VW553/V1_MQTT_OK/GD32VW55X_Wifi_BLE_SDK/GD32VW55x_RELEASE_V1.0.2/MSDK/cloud/alicloud/src/services/awss\zconfig_vendor_common.c ****             if (aws_chn_list[i] == 0) {
 704              		.loc 1 261 42 is_stmt 0
 705 00f6 8507     		addi	a5,a5,1
 706              	.LVL56:
 707 00f8 81BF     		j	.L47
 708              	.LVL57:
 709              	.L42:
 710              	.LBE127:
 711              	.LBE143:
 712              	.LBB144:
 713              	.LBB142:
 196:C:/Users/stapi/OneDrive/Desktop/GD32VW553/V1_MQTT_OK/GD32VW55X_Wifi_BLE_SDK/GD32VW55x_RELEASE_V1.0.2/MSDK/cloud/alicloud/src/services/awss\zconfig_vendor_common.c ****         os_mutex_unlock(zc_mutex);
 714              		.loc 1 196 5 is_stmt 1
 196:C:/Users/stapi/OneDrive/Desktop/GD32VW553/V1_MQTT_OK/GD32VW55X_Wifi_BLE_SDK/GD32VW55x_RELEASE_V1.0.2/MSDK/cloud/alicloud/src/services/awss\zconfig_vendor_common.c ****         os_mutex_unlock(zc_mutex);
 715              		.loc 1 196 9 is_stmt 0
 716 00fa 9C40     		lw	a5,0(s1)
 196:C:/Users/stapi/OneDrive/Desktop/GD32VW553/V1_MQTT_OK/GD32VW55X_Wifi_BLE_SDK/GD32VW55x_RELEASE_V1.0.2/MSDK/cloud/alicloud/src/services/awss\zconfig_vendor_common.c ****         os_mutex_unlock(zc_mutex);
 717              		.loc 1 196 8
 718 00fc 03C70700 		lbu	a4,0(a5)
 719 0100 8547     		li	a5,1
 720 0102 6315F700 		bne	a4,a5,.L53
 721              	.L65:
 722              	.LBB135:
 233:C:/Users/stapi/OneDrive/Desktop/GD32VW553/V1_MQTT_OK/GD32VW55X_Wifi_BLE_SDK/GD32VW55x_RELEASE_V1.0.2/MSDK/cloud/alicloud/src/services/awss\zconfig_vendor_common.c ****     } while (0);
 723              		.loc 1 233 9 is_stmt 1
 724              	.LBE135:
 234:C:/Users/stapi/OneDrive/Desktop/GD32VW553/V1_MQTT_OK/GD32VW55X_Wifi_BLE_SDK/GD32VW55x_RELEASE_V1.0.2/MSDK/cloud/alicloud/src/services/awss\zconfig_vendor_common.c ****     os_mutex_unlock(zc_mutex);
 725              		.loc 1 234 13
 235:C:/Users/stapi/OneDrive/Desktop/GD32VW553/V1_MQTT_OK/GD32VW55X_Wifi_BLE_SDK/GD32VW55x_RELEASE_V1.0.2/MSDK/cloud/alicloud/src/services/awss\zconfig_vendor_common.c **** }
 726              		.loc 1 235 5
 727              	.LVL58:
 728              	.LBB140:
 729              	.LBB134:
 294:..\..\..\..\cloud\alicloud\src\services\dev_bind\os/os.h **** }
 730              		.loc 2 294 5
 731              	.LBE134:
 732              	.LBE140:
 235:C:/Users/stapi/OneDrive/Desktop/GD32VW553/V1_MQTT_OK/GD32VW55X_Wifi_BLE_SDK/GD32VW55x_RELEASE_V1.0.2/MSDK/cloud/alicloud/src/services/awss\zconfig_vendor_common.c **** }
 733              		.loc 1 235 5 is_stmt 0
 734 0106 83270400 		lw	a5,%lo(zconfig_data)(s0)
 735 010a 65BF     		j	.L64
 736              	.LVL59:
 737              	.L53:
 201:C:/Users/stapi/OneDrive/Desktop/GD32VW553/V1_MQTT_OK/GD32VW55X_Wifi_BLE_SDK/GD32VW55x_RELEASE_V1.0.2/MSDK/cloud/alicloud/src/services/awss\zconfig_vendor_common.c ****         uint8_t channel;
 738              		.loc 1 201 5 is_stmt 1
 739              	.LBB141:
 202:C:/Users/stapi/OneDrive/Desktop/GD32VW553/V1_MQTT_OK/GD32VW55X_Wifi_BLE_SDK/GD32VW55x_RELEASE_V1.0.2/MSDK/cloud/alicloud/src/services/awss\zconfig_vendor_common.c **** #ifdef AWSS_BATCH_DEVAP_ENABLE
 740              		.loc 1 202 9
 229:C:/Users/stapi/OneDrive/Desktop/GD32VW553/V1_MQTT_OK/GD32VW55X_Wifi_BLE_SDK/GD32VW55x_RELEASE_V1.0.2/MSDK/cloud/alicloud/src/services/awss\zconfig_vendor_common.c **** #endif
 741              		.loc 1 229 9
 229:C:/Users/stapi/OneDrive/Desktop/GD32VW553/V1_MQTT_OK/GD32VW55X_Wifi_BLE_SDK/GD32VW55x_RELEASE_V1.0.2/MSDK/cloud/alicloud/src/services/awss\zconfig_vendor_common.c **** #endif
 742              		.loc 1 229 19 is_stmt 0
 743 010c 97000000 		call	aws_next_channel
 743      E7800000 
 744              	.LVL60:
 231:C:/Users/stapi/OneDrive/Desktop/GD32VW553/V1_MQTT_OK/GD32VW55X_Wifi_BLE_SDK/GD32VW55x_RELEASE_V1.0.2/MSDK/cloud/alicloud/src/services/awss\zconfig_vendor_common.c ****         os_awss_switch_channel(channel, 0, NULL);
 745              		.loc 1 231 9
 746 0114 8440     		lw	s1,0(s1)
 229:C:/Users/stapi/OneDrive/Desktop/GD32VW553/V1_MQTT_OK/GD32VW55X_Wifi_BLE_SDK/GD32VW55x_RELEASE_V1.0.2/MSDK/cloud/alicloud/src/services/awss\zconfig_vendor_common.c **** #endif
 747              		.loc 1 229 19
 748 0116 2A89     		mv	s2,a0
 749              	.LVL61:
 231:C:/Users/stapi/OneDrive/Desktop/GD32VW553/V1_MQTT_OK/GD32VW55X_Wifi_BLE_SDK/GD32VW55x_RELEASE_V1.0.2/MSDK/cloud/alicloud/src/services/awss\zconfig_vendor_common.c ****         os_awss_switch_channel(channel, 0, NULL);
 750              		.loc 1 231 9 is_stmt 1
 231:C:/Users/stapi/OneDrive/Desktop/GD32VW553/V1_MQTT_OK/GD32VW55X_Wifi_BLE_SDK/GD32VW55x_RELEASE_V1.0.2/MSDK/cloud/alicloud/src/services/awss\zconfig_vendor_common.c ****         os_awss_switch_channel(channel, 0, NULL);
 751              		.loc 1 231 29 is_stmt 0
 752 0118 97000000 		call	os_get_time_ms
 752      E7800000 
 753              	.LVL62:
 754              	.LBB136:
 755              	.LBB137:
 756              		.loc 2 720 5
 757 0120 0146     		li	a2,0
 758              	.LBE137:
 759              	.LBE136:
 231:C:/Users/stapi/OneDrive/Desktop/GD32VW553/V1_MQTT_OK/GD32VW55X_Wifi_BLE_SDK/GD32VW55x_RELEASE_V1.0.2/MSDK/cloud/alicloud/src/services/awss\zconfig_vendor_common.c ****         os_awss_switch_channel(channel, 0, NULL);
 760              		.loc 1 231 27
 761 0122 C8D0     		sw	a0,36(s1)
 232:C:/Users/stapi/OneDrive/Desktop/GD32VW553/V1_MQTT_OK/GD32VW55X_Wifi_BLE_SDK/GD32VW55x_RELEASE_V1.0.2/MSDK/cloud/alicloud/src/services/awss\zconfig_vendor_common.c ****         awss_trace("chan %d\r\n", channel);
 762              		.loc 1 232 9 is_stmt 1
 763              	.LVL63:
 764              	.LBB139:
 765              	.LBB138:
 766              		.loc 2 720 5
 767 0124 8145     		li	a1,0
 768 0126 13154960 		sext.b	a0,s2
 769 012a 97000000 		call	HAL_Awss_Switch_Channel
 769      E7800000 
 770              	.LVL64:
 771              	.LBE138:
 772              	.LBE139:
 233:C:/Users/stapi/OneDrive/Desktop/GD32VW553/V1_MQTT_OK/GD32VW55X_Wifi_BLE_SDK/GD32VW55x_RELEASE_V1.0.2/MSDK/cloud/alicloud/src/services/awss\zconfig_vendor_common.c ****     } while (0);
 773              		.loc 1 233 9
 233:C:/Users/stapi/OneDrive/Desktop/GD32VW553/V1_MQTT_OK/GD32VW55X_Wifi_BLE_SDK/GD32VW55x_RELEASE_V1.0.2/MSDK/cloud/alicloud/src/services/awss\zconfig_vendor_common.c ****     } while (0);
 774              		.loc 1 233 9
 775 0132 37050000 		lui	a0,%hi(.LC2)
 776 0136 13050500 		addi	a0,a0,%lo(.LC2)
 777 013a 97000000 		call	HAL_Printf
 777      E7800000 
 778              	.LVL65:
 233:C:/Users/stapi/OneDrive/Desktop/GD32VW553/V1_MQTT_OK/GD32VW55X_Wifi_BLE_SDK/GD32VW55x_RELEASE_V1.0.2/MSDK/cloud/alicloud/src/services/awss\zconfig_vendor_common.c ****     } while (0);
 779              		.loc 1 233 9
 780 0142 37050000 		lui	a0,%hi(.LC5)
 781 0146 CA85     		mv	a1,s2
 782 0148 13050500 		addi	a0,a0,%lo(.LC5)
 783 014c 97000000 		call	HAL_Printf
 783      E7800000 
 784              	.LVL66:
 233:C:/Users/stapi/OneDrive/Desktop/GD32VW553/V1_MQTT_OK/GD32VW55X_Wifi_BLE_SDK/GD32VW55x_RELEASE_V1.0.2/MSDK/cloud/alicloud/src/services/awss\zconfig_vendor_common.c ****     } while (0);
 785              		.loc 1 233 9
 786 0154 37050000 		lui	a0,%hi(.LC4)
 787 0158 13050500 		addi	a0,a0,%lo(.LC4)
 788 015c 97000000 		call	HAL_Printf
 788      E7800000 
 789              	.LVL67:
 790 0164 4DB7     		j	.L65
 791              	.LBE141:
 792              	.LBE142:
 793              	.LBE144:
 794              		.cfi_endproc
 795              	.LFE54:
 797              		.section	.text.aws_set_dst_chan,"ax",@progbits
 798              		.align	1
 799              		.globl	aws_set_dst_chan
 801              	aws_set_dst_chan:
 802              	.LFB55:
 239:C:/Users/stapi/OneDrive/Desktop/GD32VW553/V1_MQTT_OK/GD32VW55X_Wifi_BLE_SDK/GD32VW55x_RELEASE_V1.0.2/MSDK/cloud/alicloud/src/services/awss\zconfig_vendor_common.c ****     if (zconfig_data == NULL) {
 803              		.loc 1 239 1
 804              		.cfi_startproc
 805              	.LVL68:
 806 0000 17030000 		call	t0,__riscv_save_2
 806      E7020300 
 807              		.cfi_offset 9, -12
 808              		.cfi_offset 8, -8
 809              		.cfi_offset 1, -4
 810              		.cfi_def_cfa_offset 16
 240:C:/Users/stapi/OneDrive/Desktop/GD32VW553/V1_MQTT_OK/GD32VW55X_Wifi_BLE_SDK/GD32VW55x_RELEASE_V1.0.2/MSDK/cloud/alicloud/src/services/awss\zconfig_vendor_common.c ****         return;
 811              		.loc 1 240 5
 240:C:/Users/stapi/OneDrive/Desktop/GD32VW553/V1_MQTT_OK/GD32VW55X_Wifi_BLE_SDK/GD32VW55x_RELEASE_V1.0.2/MSDK/cloud/alicloud/src/services/awss\zconfig_vendor_common.c ****         return;
 812              		.loc 1 240 22 is_stmt 0
 813 0008 B7040000 		lui	s1,%hi(zconfig_data)
 814 000c 83A70400 		lw	a5,%lo(zconfig_data)(s1)
 240:C:/Users/stapi/OneDrive/Desktop/GD32VW553/V1_MQTT_OK/GD32VW55X_Wifi_BLE_SDK/GD32VW55x_RELEASE_V1.0.2/MSDK/cloud/alicloud/src/services/awss\zconfig_vendor_common.c ****         return;
 815              		.loc 1 240 8
 816 0010 85C7     		beq	a5,zero,.L66
 817 0012 2A84     		mv	s0,a0
 243:C:/Users/stapi/OneDrive/Desktop/GD32VW553/V1_MQTT_OK/GD32VW55X_Wifi_BLE_SDK/GD32VW55x_RELEASE_V1.0.2/MSDK/cloud/alicloud/src/services/awss\zconfig_vendor_common.c ****     aws_amend_dst_chan = channel;
 818              		.loc 1 243 5 is_stmt 1
 819              	.LVL69:
 820              	.LBB145:
 821              	.LBB146:
 281:..\..\..\..\cloud\alicloud\src\services\dev_bind\os/os.h **** }
 822              		.loc 2 281 5
 823 0014 03A50754 		lw	a0,1344(a5)
 824              	.LVL70:
 825 0018 97000000 		call	HAL_MutexLock
 825      E7800000 
 826              	.LVL71:
 827              	.LBE146:
 828              	.LBE145:
 244:C:/Users/stapi/OneDrive/Desktop/GD32VW553/V1_MQTT_OK/GD32VW55X_Wifi_BLE_SDK/GD32VW55x_RELEASE_V1.0.2/MSDK/cloud/alicloud/src/services/awss\zconfig_vendor_common.c ****     os_mutex_unlock(zc_mutex);
 829              		.loc 1 244 5
 244:C:/Users/stapi/OneDrive/Desktop/GD32VW553/V1_MQTT_OK/GD32VW55X_Wifi_BLE_SDK/GD32VW55x_RELEASE_V1.0.2/MSDK/cloud/alicloud/src/services/awss\zconfig_vendor_common.c ****     os_mutex_unlock(zc_mutex);
 830              		.loc 1 244 24 is_stmt 0
 831 0020 B7070000 		lui	a5,%hi(.LANCHOR12)
 832 0024 23A08700 		sw	s0,%lo(.LANCHOR12)(a5)
 245:C:/Users/stapi/OneDrive/Desktop/GD32VW553/V1_MQTT_OK/GD32VW55X_Wifi_BLE_SDK/GD32VW55x_RELEASE_V1.0.2/MSDK/cloud/alicloud/src/services/awss\zconfig_vendor_common.c **** }
 833              		.loc 1 245 5 is_stmt 1
 834              	.LVL72:
 835              	.LBB147:
 836              	.LBB148:
 294:..\..\..\..\cloud\alicloud\src\services\dev_bind\os/os.h **** }
 837              		.loc 2 294 5
 838              	.LBE148:
 839              	.LBE147:
 245:C:/Users/stapi/OneDrive/Desktop/GD32VW553/V1_MQTT_OK/GD32VW55X_Wifi_BLE_SDK/GD32VW55x_RELEASE_V1.0.2/MSDK/cloud/alicloud/src/services/awss\zconfig_vendor_common.c **** }
 840              		.loc 1 245 5 is_stmt 0
 841 0028 83A70400 		lw	a5,%lo(zconfig_data)(s1)
 842              	.LBB150:
 843              	.LBB149:
 294:..\..\..\..\cloud\alicloud\src\services\dev_bind\os/os.h **** }
 844              		.loc 2 294 5
 845 002c 03A50754 		lw	a0,1344(a5)
 846 0030 97000000 		call	HAL_MutexUnlock
 846      E7800000 
 847              	.LVL73:
 848              	.L66:
 849              	.LBE149:
 850              	.LBE150:
 246:C:/Users/stapi/OneDrive/Desktop/GD32VW553/V1_MQTT_OK/GD32VW55X_Wifi_BLE_SDK/GD32VW55x_RELEASE_V1.0.2/MSDK/cloud/alicloud/src/services/awss\zconfig_vendor_common.c **** 
 851              		.loc 1 246 1
 852 0038 17030000 		tail	__riscv_restore_2
 852      67000300 
 853              		.cfi_restore 9
 854              		.cfi_restore 8
 855              		.cfi_restore 1
 856              		.cfi_def_cfa_offset 0
 857              		.cfi_endproc
 858              	.LFE55:
 860              		.section	.rodata.aws_is_chnscan_timeout.str1.4,"aMS",@progbits,1
 861              		.align	2
 862              	.LC6:
 863 0000 61777320 		.string	"aws will stop..."
 863      77696C6C 
 863      2073746F 
 863      702E2E2E 
 863      00
 864 0011 000000   		.align	2
 865              	.LC7:
 866 0014 61777373 		.string	"awss"
 866      00
 867              		.section	.text.aws_is_chnscan_timeout,"ax",@progbits
 868              		.align	1
 869              		.globl	aws_is_chnscan_timeout
 871              	aws_is_chnscan_timeout:
 872              	.LFB57:
 294:C:/Users/stapi/OneDrive/Desktop/GD32VW553/V1_MQTT_OK/GD32VW55X_Wifi_BLE_SDK/GD32VW55x_RELEASE_V1.0.2/MSDK/cloud/alicloud/src/services/awss\zconfig_vendor_common.c ****     if (aws_stop == AWS_STOPPING) {
 873              		.loc 1 294 1 is_stmt 1
 874              		.cfi_startproc
 875 0000 17030000 		call	t0,__riscv_save_2
 875      E7020300 
 876              		.cfi_offset 9, -12
 877              		.cfi_offset 8, -8
 878              		.cfi_offset 1, -4
 879              		.cfi_def_cfa_offset 16
 295:C:/Users/stapi/OneDrive/Desktop/GD32VW553/V1_MQTT_OK/GD32VW55X_Wifi_BLE_SDK/GD32VW55x_RELEASE_V1.0.2/MSDK/cloud/alicloud/src/services/awss\zconfig_vendor_common.c ****         awss_debug("aws will stop...");
 880              		.loc 1 295 5
 295:C:/Users/stapi/OneDrive/Desktop/GD32VW553/V1_MQTT_OK/GD32VW55X_Wifi_BLE_SDK/GD32VW55x_RELEASE_V1.0.2/MSDK/cloud/alicloud/src/services/awss\zconfig_vendor_common.c ****         awss_debug("aws will stop...");
 881              		.loc 1 295 9 is_stmt 0
 882 0008 37040000 		lui	s0,%hi(.LANCHOR2)
 883 000c 13040400 		addi	s0,s0,%lo(.LANCHOR2)
 884 0010 1C40     		lw	a5,0(s0)
 295:C:/Users/stapi/OneDrive/Desktop/GD32VW553/V1_MQTT_OK/GD32VW55X_Wifi_BLE_SDK/GD32VW55x_RELEASE_V1.0.2/MSDK/cloud/alicloud/src/services/awss\zconfig_vendor_common.c ****         awss_debug("aws will stop...");
 885              		.loc 1 295 8
 886 0012 1147     		li	a4,4
 887 0014 83C63702 		lbu	a3,35(a5)
 888 0018 639BE602 		bne	a3,a4,.L73
 296:C:/Users/stapi/OneDrive/Desktop/GD32VW553/V1_MQTT_OK/GD32VW55X_Wifi_BLE_SDK/GD32VW55x_RELEASE_V1.0.2/MSDK/cloud/alicloud/src/services/awss\zconfig_vendor_common.c ****         return CHNSCAN_TIMEOUT;
 889              		.loc 1 296 9 is_stmt 1
 890 001c 37070000 		lui	a4,%hi(.LC6)
 891 0020 B7050000 		lui	a1,%hi(.LANCHOR13)
 892 0024 37050000 		lui	a0,%hi(.LC7)
 893 0028 13070700 		addi	a4,a4,%lo(.LC6)
 894 002c 9546     		li	a3,5
 895 002e 13068012 		li	a2,296
 896 0032 93850500 		addi	a1,a1,%lo(.LANCHOR13)
 897 0036 13050500 		addi	a0,a0,%lo(.LC7)
 898 003a 97000000 		call	LITE_syslog
 898      E7800000 
 899              	.LVL74:
 297:C:/Users/stapi/OneDrive/Desktop/GD32VW553/V1_MQTT_OK/GD32VW55X_Wifi_BLE_SDK/GD32VW55x_RELEASE_V1.0.2/MSDK/cloud/alicloud/src/services/awss\zconfig_vendor_common.c ****     }
 900              		.loc 1 297 9
 297:C:/Users/stapi/OneDrive/Desktop/GD32VW553/V1_MQTT_OK/GD32VW55X_Wifi_BLE_SDK/GD32VW55x_RELEASE_V1.0.2/MSDK/cloud/alicloud/src/services/awss\zconfig_vendor_common.c ****     }
 901              		.loc 1 297 16 is_stmt 0
 902 0042 8947     		li	a5,2
 903              	.L72:
 310:C:/Users/stapi/OneDrive/Desktop/GD32VW553/V1_MQTT_OK/GD32VW55X_Wifi_BLE_SDK/GD32VW55x_RELEASE_V1.0.2/MSDK/cloud/alicloud/src/services/awss\zconfig_vendor_common.c **** 
 904              		.loc 1 310 1
 905 0044 3E85     		mv	a0,a5
 906 0046 17030000 		tail	__riscv_restore_2
 906      67000300 
 907              		.cfi_remember_state
 908              		.cfi_restore 9
 909              		.cfi_restore 8
 910              		.cfi_restore 1
 911              		.cfi_def_cfa_offset 0
 912              	.L73:
 913              		.cfi_restore_state
 300:C:/Users/stapi/OneDrive/Desktop/GD32VW553/V1_MQTT_OK/GD32VW55X_Wifi_BLE_SDK/GD32VW55x_RELEASE_V1.0.2/MSDK/cloud/alicloud/src/services/awss\zconfig_vendor_common.c ****         if ((0 != os_awss_get_timeout_interval_ms()) &&
 914              		.loc 1 300 5 is_stmt 1
 300:C:/Users/stapi/OneDrive/Desktop/GD32VW553/V1_MQTT_OK/GD32VW55X_Wifi_BLE_SDK/GD32VW55x_RELEASE_V1.0.2/MSDK/cloud/alicloud/src/services/awss\zconfig_vendor_common.c ****         if ((0 != os_awss_get_timeout_interval_ms()) &&
 915              		.loc 1 300 9 is_stmt 0
 916 004e C453     		lw	s1,36(a5)
 917              	.LVL75:
 918              	.LBB167:
 919              	.LBB168:
 465:..\..\..\..\cloud\alicloud\src\services\dev_bind\os/os.h **** 
 920              		.loc 2 465 5 is_stmt 1
 465:..\..\..\..\cloud\alicloud\src\services\dev_bind\os/os.h **** 
 921              		.loc 2 465 20 is_stmt 0
 922 0050 97000000 		call	os_get_time_ms
 922      E7800000 
 923              	.LVL76:
 467:..\..\..\..\cloud\alicloud\src\services\dev_bind\os/os.h **** }
 924              		.loc 2 467 5 is_stmt 1
 467:..\..\..\..\cloud\alicloud\src\services\dev_bind\os/os.h **** }
 925              		.loc 2 467 16 is_stmt 0
 926 0058 B3049540 		sub	s1,a0,s1
 927              	.LVL77:
 928              	.LBE168:
 929              	.LBE167:
 930              	.LBB169:
 931              	.LBB170:
 625:..\..\..\..\cloud\alicloud\src\services\dev_bind\os/os.h **** }
 932              		.loc 2 625 5 is_stmt 1
 625:..\..\..\..\cloud\alicloud\src\services\dev_bind\os/os.h **** }
 933              		.loc 2 625 12 is_stmt 0
 934 005c 97000000 		call	HAL_Awss_Get_Channelscan_Interval_Ms
 934      E7800000 
 935              	.LVL78:
 936              	.LBE170:
 937              	.LBE169:
 309:C:/Users/stapi/OneDrive/Desktop/GD32VW553/V1_MQTT_OK/GD32VW55X_Wifi_BLE_SDK/GD32VW55x_RELEASE_V1.0.2/MSDK/cloud/alicloud/src/services/awss\zconfig_vendor_common.c **** }
 938              		.loc 1 309 12
 939 0064 8147     		li	a5,0
 300:C:/Users/stapi/OneDrive/Desktop/GD32VW553/V1_MQTT_OK/GD32VW55X_Wifi_BLE_SDK/GD32VW55x_RELEASE_V1.0.2/MSDK/cloud/alicloud/src/services/awss\zconfig_vendor_common.c ****         if ((0 != os_awss_get_timeout_interval_ms()) &&
 940              		.loc 1 300 8
 941 0066 E37F95FC 		bgeu	a0,s1,.L72
 942              	.LBB171:
 943              	.LBB172:
 301:C:/Users/stapi/OneDrive/Desktop/GD32VW553/V1_MQTT_OK/GD32VW55X_Wifi_BLE_SDK/GD32VW55x_RELEASE_V1.0.2/MSDK/cloud/alicloud/src/services/awss\zconfig_vendor_common.c ****             (time_elapsed_ms_since(aws_start_timestamp) > os_awss_get_timeout_interval_ms())) {
 944              		.loc 1 301 9 is_stmt 1
 945              	.LBB173:
 946              	.LBB174:
 612:..\..\..\..\cloud\alicloud\src\services\dev_bind\os/os.h **** }
 947              		.loc 2 612 5
 612:..\..\..\..\cloud\alicloud\src\services\dev_bind\os/os.h **** }
 948              		.loc 2 612 12 is_stmt 0
 949 006a 97000000 		call	HAL_Awss_Get_Timeout_Interval_Ms
 949      E7800000 
 950              	.LVL79:
 951              	.LBE174:
 952              	.LBE173:
 301:C:/Users/stapi/OneDrive/Desktop/GD32VW553/V1_MQTT_OK/GD32VW55X_Wifi_BLE_SDK/GD32VW55x_RELEASE_V1.0.2/MSDK/cloud/alicloud/src/services/awss\zconfig_vendor_common.c ****             (time_elapsed_ms_since(aws_start_timestamp) > os_awss_get_timeout_interval_ms())) {
 953              		.loc 1 301 12
 954 0072 05C1     		beq	a0,zero,.L75
 302:C:/Users/stapi/OneDrive/Desktop/GD32VW553/V1_MQTT_OK/GD32VW55X_Wifi_BLE_SDK/GD32VW55x_RELEASE_V1.0.2/MSDK/cloud/alicloud/src/services/awss\zconfig_vendor_common.c ****             return CHNSCAN_TIMEOUT;
 955              		.loc 1 302 14
 956 0074 1C40     		lw	a5,0(s0)
 957 0076 8057     		lw	s0,40(a5)
 958              	.LVL80:
 959              	.LBB175:
 960              	.LBB176:
 465:..\..\..\..\cloud\alicloud\src\services\dev_bind\os/os.h **** 
 961              		.loc 2 465 5 is_stmt 1
 465:..\..\..\..\cloud\alicloud\src\services\dev_bind\os/os.h **** 
 962              		.loc 2 465 20 is_stmt 0
 963 0078 97000000 		call	os_get_time_ms
 963      E7800000 
 964              	.LVL81:
 467:..\..\..\..\cloud\alicloud\src\services\dev_bind\os/os.h **** }
 965              		.loc 2 467 5 is_stmt 1
 467:..\..\..\..\cloud\alicloud\src\services\dev_bind\os/os.h **** }
 966              		.loc 2 467 16 is_stmt 0
 967 0080 33048540 		sub	s0,a0,s0
 968              	.LVL82:
 969              	.LBE176:
 970              	.LBE175:
 971              	.LBB177:
 972              	.LBB178:
 612:..\..\..\..\cloud\alicloud\src\services\dev_bind\os/os.h **** }
 973              		.loc 2 612 5 is_stmt 1
 612:..\..\..\..\cloud\alicloud\src\services\dev_bind\os/os.h **** }
 974              		.loc 2 612 12 is_stmt 0
 975 0084 97000000 		call	HAL_Awss_Get_Timeout_Interval_Ms
 975      E7800000 
 976              	.LVL83:
 977              	.LBE178:
 978              	.LBE177:
 303:C:/Users/stapi/OneDrive/Desktop/GD32VW553/V1_MQTT_OK/GD32VW55X_Wifi_BLE_SDK/GD32VW55x_RELEASE_V1.0.2/MSDK/cloud/alicloud/src/services/awss\zconfig_vendor_common.c ****         } else {
 979              		.loc 1 303 20
 980 008c 8947     		li	a5,2
 301:C:/Users/stapi/OneDrive/Desktop/GD32VW553/V1_MQTT_OK/GD32VW55X_Wifi_BLE_SDK/GD32VW55x_RELEASE_V1.0.2/MSDK/cloud/alicloud/src/services/awss\zconfig_vendor_common.c ****             (time_elapsed_ms_since(aws_start_timestamp) > os_awss_get_timeout_interval_ms())) {
 981              		.loc 1 301 54
 982 008e E36B85FA 		bgtu	s0,a0,.L72
 983              	.L75:
 305:C:/Users/stapi/OneDrive/Desktop/GD32VW553/V1_MQTT_OK/GD32VW55X_Wifi_BLE_SDK/GD32VW55x_RELEASE_V1.0.2/MSDK/cloud/alicloud/src/services/awss\zconfig_vendor_common.c ****         }
 984              		.loc 1 305 20
 985 0092 8547     		li	a5,1
 986 0094 45BF     		j	.L72
 987              	.LBE172:
 988              	.LBE171:
 989              		.cfi_endproc
 990              	.LFE57:
 992              		.section	.text.zconfig_add_active_channel,"ax",@progbits
 993              		.align	1
 994              		.globl	zconfig_add_active_channel
 996              	zconfig_add_active_channel:
 997              	.LFB58:
 313:C:/Users/stapi/OneDrive/Desktop/GD32VW553/V1_MQTT_OK/GD32VW55X_Wifi_BLE_SDK/GD32VW55x_RELEASE_V1.0.2/MSDK/cloud/alicloud/src/services/awss\zconfig_vendor_common.c ****     int fixed_channel_nums = sizeof(wlan_fixed_scanning_channels);
 998              		.loc 1 313 1 is_stmt 1
 999              		.cfi_startproc
 1000              	.LVL84:
 314:C:/Users/stapi/OneDrive/Desktop/GD32VW553/V1_MQTT_OK/GD32VW55X_Wifi_BLE_SDK/GD32VW55x_RELEASE_V1.0.2/MSDK/cloud/alicloud/src/services/awss\zconfig_vendor_common.c **** 
 1001              		.loc 1 314 5
 316:C:/Users/stapi/OneDrive/Desktop/GD32VW553/V1_MQTT_OK/GD32VW55X_Wifi_BLE_SDK/GD32VW55x_RELEASE_V1.0.2/MSDK/cloud/alicloud/src/services/awss\zconfig_vendor_common.c ****         return -1;
 1002              		.loc 1 316 5
 1003              	.LBB179:
 1004              	.LBB180:
 1005              		.file 3 "C:/Users/stapi/OneDrive/Desktop/GD32VW553/V1_MQTT_OK/GD32VW55X_Wifi_BLE_SDK/GD32VW55x_REL
   1:C:/Users/stapi/OneDrive/Desktop/GD32VW553/V1_MQTT_OK/GD32VW55X_Wifi_BLE_SDK/GD32VW55x_RELEASE_V1.0.2/MSDK/cloud/alicloud/src/services/awss\zconfig_protocol.h **** /*
   2:C:/Users/stapi/OneDrive/Desktop/GD32VW553/V1_MQTT_OK/GD32VW55X_Wifi_BLE_SDK/GD32VW55x_RELEASE_V1.0.2/MSDK/cloud/alicloud/src/services/awss\zconfig_protocol.h ****  * Copyright (C) 2015-2018 Alibaba Group Holding Limited
   3:C:/Users/stapi/OneDrive/Desktop/GD32VW553/V1_MQTT_OK/GD32VW55X_Wifi_BLE_SDK/GD32VW55x_RELEASE_V1.0.2/MSDK/cloud/alicloud/src/services/awss\zconfig_protocol.h ****  */
   4:C:/Users/stapi/OneDrive/Desktop/GD32VW553/V1_MQTT_OK/GD32VW55X_Wifi_BLE_SDK/GD32VW55x_RELEASE_V1.0.2/MSDK/cloud/alicloud/src/services/awss\zconfig_protocol.h **** 
   5:C:/Users/stapi/OneDrive/Desktop/GD32VW553/V1_MQTT_OK/GD32VW55X_Wifi_BLE_SDK/GD32VW55x_RELEASE_V1.0.2/MSDK/cloud/alicloud/src/services/awss\zconfig_protocol.h **** #ifndef __ZCONFIG_PROTOCOL_H__
   6:C:/Users/stapi/OneDrive/Desktop/GD32VW553/V1_MQTT_OK/GD32VW55X_Wifi_BLE_SDK/GD32VW55x_RELEASE_V1.0.2/MSDK/cloud/alicloud/src/services/awss\zconfig_protocol.h **** #define __ZCONFIG_PROTOCOL_H__
   7:C:/Users/stapi/OneDrive/Desktop/GD32VW553/V1_MQTT_OK/GD32VW55X_Wifi_BLE_SDK/GD32VW55x_RELEASE_V1.0.2/MSDK/cloud/alicloud/src/services/awss\zconfig_protocol.h **** 
   8:C:/Users/stapi/OneDrive/Desktop/GD32VW553/V1_MQTT_OK/GD32VW55X_Wifi_BLE_SDK/GD32VW55x_RELEASE_V1.0.2/MSDK/cloud/alicloud/src/services/awss\zconfig_protocol.h **** #include <stdint.h>
   9:C:/Users/stapi/OneDrive/Desktop/GD32VW553/V1_MQTT_OK/GD32VW55X_Wifi_BLE_SDK/GD32VW55x_RELEASE_V1.0.2/MSDK/cloud/alicloud/src/services/awss\zconfig_protocol.h **** #include "zconfig_utils.h"
  10:C:/Users/stapi/OneDrive/Desktop/GD32VW553/V1_MQTT_OK/GD32VW55X_Wifi_BLE_SDK/GD32VW55x_RELEASE_V1.0.2/MSDK/cloud/alicloud/src/services/awss\zconfig_protocol.h **** #include "zconfig_ieee80211.h"
  11:C:/Users/stapi/OneDrive/Desktop/GD32VW553/V1_MQTT_OK/GD32VW55X_Wifi_BLE_SDK/GD32VW55x_RELEASE_V1.0.2/MSDK/cloud/alicloud/src/services/awss\zconfig_protocol.h **** #include "zconfig_lib.h"
  12:C:/Users/stapi/OneDrive/Desktop/GD32VW553/V1_MQTT_OK/GD32VW55X_Wifi_BLE_SDK/GD32VW55x_RELEASE_V1.0.2/MSDK/cloud/alicloud/src/services/awss\zconfig_protocol.h **** 
  13:C:/Users/stapi/OneDrive/Desktop/GD32VW553/V1_MQTT_OK/GD32VW55X_Wifi_BLE_SDK/GD32VW55x_RELEASE_V1.0.2/MSDK/cloud/alicloud/src/services/awss\zconfig_protocol.h **** #if defined(__cplusplus)  /* If this is a C++ compiler, use C linkage */
  14:C:/Users/stapi/OneDrive/Desktop/GD32VW553/V1_MQTT_OK/GD32VW55X_Wifi_BLE_SDK/GD32VW55x_RELEASE_V1.0.2/MSDK/cloud/alicloud/src/services/awss\zconfig_protocol.h **** extern "C"
  15:C:/Users/stapi/OneDrive/Desktop/GD32VW553/V1_MQTT_OK/GD32VW55X_Wifi_BLE_SDK/GD32VW55x_RELEASE_V1.0.2/MSDK/cloud/alicloud/src/services/awss\zconfig_protocol.h **** {
  16:C:/Users/stapi/OneDrive/Desktop/GD32VW553/V1_MQTT_OK/GD32VW55X_Wifi_BLE_SDK/GD32VW55x_RELEASE_V1.0.2/MSDK/cloud/alicloud/src/services/awss\zconfig_protocol.h **** #endif
  17:C:/Users/stapi/OneDrive/Desktop/GD32VW553/V1_MQTT_OK/GD32VW55X_Wifi_BLE_SDK/GD32VW55x_RELEASE_V1.0.2/MSDK/cloud/alicloud/src/services/awss\zconfig_protocol.h **** 
  18:C:/Users/stapi/OneDrive/Desktop/GD32VW553/V1_MQTT_OK/GD32VW55X_Wifi_BLE_SDK/GD32VW55x_RELEASE_V1.0.2/MSDK/cloud/alicloud/src/services/awss\zconfig_protocol.h **** enum state_machine {
  19:C:/Users/stapi/OneDrive/Desktop/GD32VW553/V1_MQTT_OK/GD32VW55X_Wifi_BLE_SDK/GD32VW55x_RELEASE_V1.0.2/MSDK/cloud/alicloud/src/services/awss\zconfig_protocol.h ****     STATE_CHN_SCANNING,
  20:C:/Users/stapi/OneDrive/Desktop/GD32VW553/V1_MQTT_OK/GD32VW55X_Wifi_BLE_SDK/GD32VW55x_RELEASE_V1.0.2/MSDK/cloud/alicloud/src/services/awss\zconfig_protocol.h ****     STATE_CHN_LOCKED_BY_P2P,  // wps/action used for enrollee
  21:C:/Users/stapi/OneDrive/Desktop/GD32VW553/V1_MQTT_OK/GD32VW55X_Wifi_BLE_SDK/GD32VW55x_RELEASE_V1.0.2/MSDK/cloud/alicloud/src/services/awss\zconfig_protocol.h ****     STATE_CHN_LOCKED_BY_MCAST,   /* broadcast used for smartconfig */
  22:C:/Users/stapi/OneDrive/Desktop/GD32VW553/V1_MQTT_OK/GD32VW55X_Wifi_BLE_SDK/GD32VW55x_RELEASE_V1.0.2/MSDK/cloud/alicloud/src/services/awss\zconfig_protocol.h ****     STATE_CHN_LOCKED_BY_BR,   // broadcast used for smartconfig
  23:C:/Users/stapi/OneDrive/Desktop/GD32VW553/V1_MQTT_OK/GD32VW55X_Wifi_BLE_SDK/GD32VW55x_RELEASE_V1.0.2/MSDK/cloud/alicloud/src/services/awss\zconfig_protocol.h ****     STATE_GOT_BEACON,
  24:C:/Users/stapi/OneDrive/Desktop/GD32VW553/V1_MQTT_OK/GD32VW55X_Wifi_BLE_SDK/GD32VW55x_RELEASE_V1.0.2/MSDK/cloud/alicloud/src/services/awss\zconfig_protocol.h ****     STATE_RCV_IN_PROGRESS,
  25:C:/Users/stapi/OneDrive/Desktop/GD32VW553/V1_MQTT_OK/GD32VW55X_Wifi_BLE_SDK/GD32VW55x_RELEASE_V1.0.2/MSDK/cloud/alicloud/src/services/awss\zconfig_protocol.h ****     STATE_RCV_COMPLETE,
  26:C:/Users/stapi/OneDrive/Desktop/GD32VW553/V1_MQTT_OK/GD32VW55X_Wifi_BLE_SDK/GD32VW55x_RELEASE_V1.0.2/MSDK/cloud/alicloud/src/services/awss\zconfig_protocol.h ****     STATE_RCV_DONE
  27:C:/Users/stapi/OneDrive/Desktop/GD32VW553/V1_MQTT_OK/GD32VW55X_Wifi_BLE_SDK/GD32VW55x_RELEASE_V1.0.2/MSDK/cloud/alicloud/src/services/awss\zconfig_protocol.h **** };
  28:C:/Users/stapi/OneDrive/Desktop/GD32VW553/V1_MQTT_OK/GD32VW55X_Wifi_BLE_SDK/GD32VW55x_RELEASE_V1.0.2/MSDK/cloud/alicloud/src/services/awss\zconfig_protocol.h **** 
  29:C:/Users/stapi/OneDrive/Desktop/GD32VW553/V1_MQTT_OK/GD32VW55X_Wifi_BLE_SDK/GD32VW55x_RELEASE_V1.0.2/MSDK/cloud/alicloud/src/services/awss\zconfig_protocol.h **** enum _GOT_RESULT_ {
  30:C:/Users/stapi/OneDrive/Desktop/GD32VW553/V1_MQTT_OK/GD32VW55X_Wifi_BLE_SDK/GD32VW55x_RELEASE_V1.0.2/MSDK/cloud/alicloud/src/services/awss\zconfig_protocol.h ****     GOT_NOTHING = 0,
  31:C:/Users/stapi/OneDrive/Desktop/GD32VW553/V1_MQTT_OK/GD32VW55X_Wifi_BLE_SDK/GD32VW55x_RELEASE_V1.0.2/MSDK/cloud/alicloud/src/services/awss\zconfig_protocol.h ****     GOT_CHN_LOCK = 1,
  32:C:/Users/stapi/OneDrive/Desktop/GD32VW553/V1_MQTT_OK/GD32VW55X_Wifi_BLE_SDK/GD32VW55x_RELEASE_V1.0.2/MSDK/cloud/alicloud/src/services/awss\zconfig_protocol.h ****     GOT_SSID_PASSWD = 2,
  33:C:/Users/stapi/OneDrive/Desktop/GD32VW553/V1_MQTT_OK/GD32VW55X_Wifi_BLE_SDK/GD32VW55x_RELEASE_V1.0.2/MSDK/cloud/alicloud/src/services/awss\zconfig_protocol.h **** };
  34:C:/Users/stapi/OneDrive/Desktop/GD32VW553/V1_MQTT_OK/GD32VW55X_Wifi_BLE_SDK/GD32VW55x_RELEASE_V1.0.2/MSDK/cloud/alicloud/src/services/awss\zconfig_protocol.h **** 
  35:C:/Users/stapi/OneDrive/Desktop/GD32VW553/V1_MQTT_OK/GD32VW55X_Wifi_BLE_SDK/GD32VW55x_RELEASE_V1.0.2/MSDK/cloud/alicloud/src/services/awss\zconfig_protocol.h **** #define MCAST_MAX_LEN (126)
  36:C:/Users/stapi/OneDrive/Desktop/GD32VW553/V1_MQTT_OK/GD32VW55X_Wifi_BLE_SDK/GD32VW55x_RELEASE_V1.0.2/MSDK/cloud/alicloud/src/services/awss\zconfig_protocol.h **** struct mcast_smartconfig_data_type {
  37:C:/Users/stapi/OneDrive/Desktop/GD32VW553/V1_MQTT_OK/GD32VW55X_Wifi_BLE_SDK/GD32VW55x_RELEASE_V1.0.2/MSDK/cloud/alicloud/src/services/awss\zconfig_protocol.h **** /* result, final result */
  38:C:/Users/stapi/OneDrive/Desktop/GD32VW553/V1_MQTT_OK/GD32VW55X_Wifi_BLE_SDK/GD32VW55x_RELEASE_V1.0.2/MSDK/cloud/alicloud/src/services/awss\zconfig_protocol.h **** uint8_t tlen;
  39:C:/Users/stapi/OneDrive/Desktop/GD32VW553/V1_MQTT_OK/GD32VW55X_Wifi_BLE_SDK/GD32VW55x_RELEASE_V1.0.2/MSDK/cloud/alicloud/src/services/awss\zconfig_protocol.h **** uint8_t flag;
  40:C:/Users/stapi/OneDrive/Desktop/GD32VW553/V1_MQTT_OK/GD32VW55X_Wifi_BLE_SDK/GD32VW55x_RELEASE_V1.0.2/MSDK/cloud/alicloud/src/services/awss\zconfig_protocol.h **** uint8_t passwd_len;
  41:C:/Users/stapi/OneDrive/Desktop/GD32VW553/V1_MQTT_OK/GD32VW55X_Wifi_BLE_SDK/GD32VW55x_RELEASE_V1.0.2/MSDK/cloud/alicloud/src/services/awss\zconfig_protocol.h **** uint8_t *passwd;
  42:C:/Users/stapi/OneDrive/Desktop/GD32VW553/V1_MQTT_OK/GD32VW55X_Wifi_BLE_SDK/GD32VW55x_RELEASE_V1.0.2/MSDK/cloud/alicloud/src/services/awss\zconfig_protocol.h **** uint8_t ssid_len;
  43:C:/Users/stapi/OneDrive/Desktop/GD32VW553/V1_MQTT_OK/GD32VW55X_Wifi_BLE_SDK/GD32VW55x_RELEASE_V1.0.2/MSDK/cloud/alicloud/src/services/awss\zconfig_protocol.h **** uint8_t *ssid;
  44:C:/Users/stapi/OneDrive/Desktop/GD32VW553/V1_MQTT_OK/GD32VW55X_Wifi_BLE_SDK/GD32VW55x_RELEASE_V1.0.2/MSDK/cloud/alicloud/src/services/awss\zconfig_protocol.h **** uint8_t token_len;
  45:C:/Users/stapi/OneDrive/Desktop/GD32VW553/V1_MQTT_OK/GD32VW55X_Wifi_BLE_SDK/GD32VW55x_RELEASE_V1.0.2/MSDK/cloud/alicloud/src/services/awss\zconfig_protocol.h **** uint8_t *token;
  46:C:/Users/stapi/OneDrive/Desktop/GD32VW553/V1_MQTT_OK/GD32VW55X_Wifi_BLE_SDK/GD32VW55x_RELEASE_V1.0.2/MSDK/cloud/alicloud/src/services/awss\zconfig_protocol.h **** uint8_t bssid_type_len;
  47:C:/Users/stapi/OneDrive/Desktop/GD32VW553/V1_MQTT_OK/GD32VW55X_Wifi_BLE_SDK/GD32VW55x_RELEASE_V1.0.2/MSDK/cloud/alicloud/src/services/awss\zconfig_protocol.h **** uint8_t *bssid;
  48:C:/Users/stapi/OneDrive/Desktop/GD32VW553/V1_MQTT_OK/GD32VW55X_Wifi_BLE_SDK/GD32VW55x_RELEASE_V1.0.2/MSDK/cloud/alicloud/src/services/awss\zconfig_protocol.h **** uint8_t ssid_is_gbk;
  49:C:/Users/stapi/OneDrive/Desktop/GD32VW553/V1_MQTT_OK/GD32VW55X_Wifi_BLE_SDK/GD32VW55x_RELEASE_V1.0.2/MSDK/cloud/alicloud/src/services/awss\zconfig_protocol.h **** uint8_t ssid_auto_complete_disable;
  50:C:/Users/stapi/OneDrive/Desktop/GD32VW553/V1_MQTT_OK/GD32VW55X_Wifi_BLE_SDK/GD32VW55x_RELEASE_V1.0.2/MSDK/cloud/alicloud/src/services/awss\zconfig_protocol.h **** uint8_t data[MCAST_MAX_LEN];
  51:C:/Users/stapi/OneDrive/Desktop/GD32VW553/V1_MQTT_OK/GD32VW55X_Wifi_BLE_SDK/GD32VW55x_RELEASE_V1.0.2/MSDK/cloud/alicloud/src/services/awss\zconfig_protocol.h **** uint8_t checksum;
  52:C:/Users/stapi/OneDrive/Desktop/GD32VW553/V1_MQTT_OK/GD32VW55X_Wifi_BLE_SDK/GD32VW55x_RELEASE_V1.0.2/MSDK/cloud/alicloud/src/services/awss\zconfig_protocol.h **** };
  53:C:/Users/stapi/OneDrive/Desktop/GD32VW553/V1_MQTT_OK/GD32VW55X_Wifi_BLE_SDK/GD32VW55x_RELEASE_V1.0.2/MSDK/cloud/alicloud/src/services/awss\zconfig_protocol.h **** 
  54:C:/Users/stapi/OneDrive/Desktop/GD32VW553/V1_MQTT_OK/GD32VW55X_Wifi_BLE_SDK/GD32VW55x_RELEASE_V1.0.2/MSDK/cloud/alicloud/src/services/awss\zconfig_protocol.h **** #define PASSWD_ENCRYPT_BIT_OFFSET (1)
  55:C:/Users/stapi/OneDrive/Desktop/GD32VW553/V1_MQTT_OK/GD32VW55X_Wifi_BLE_SDK/GD32VW55x_RELEASE_V1.0.2/MSDK/cloud/alicloud/src/services/awss\zconfig_protocol.h **** #define PASSWD_ENCRYPT_MASK       (0x06)
  56:C:/Users/stapi/OneDrive/Desktop/GD32VW553/V1_MQTT_OK/GD32VW55X_Wifi_BLE_SDK/GD32VW55x_RELEASE_V1.0.2/MSDK/cloud/alicloud/src/services/awss\zconfig_protocol.h **** #define SSID_EXIST_BIT            (0)
  57:C:/Users/stapi/OneDrive/Desktop/GD32VW553/V1_MQTT_OK/GD32VW55X_Wifi_BLE_SDK/GD32VW55x_RELEASE_V1.0.2/MSDK/cloud/alicloud/src/services/awss\zconfig_protocol.h **** #define SSID_EXIST_MASK           (1 << SSID_EXIST_BIT)
  58:C:/Users/stapi/OneDrive/Desktop/GD32VW553/V1_MQTT_OK/GD32VW55X_Wifi_BLE_SDK/GD32VW55x_RELEASE_V1.0.2/MSDK/cloud/alicloud/src/services/awss\zconfig_protocol.h **** #define SSID_ENCODE_BIT           (5)
  59:C:/Users/stapi/OneDrive/Desktop/GD32VW553/V1_MQTT_OK/GD32VW55X_Wifi_BLE_SDK/GD32VW55x_RELEASE_V1.0.2/MSDK/cloud/alicloud/src/services/awss\zconfig_protocol.h **** #define SSID_ENCODE_MASK          (1 << SSID_ENCODE_BIT)
  60:C:/Users/stapi/OneDrive/Desktop/GD32VW553/V1_MQTT_OK/GD32VW55X_Wifi_BLE_SDK/GD32VW55x_RELEASE_V1.0.2/MSDK/cloud/alicloud/src/services/awss\zconfig_protocol.h **** 
  61:C:/Users/stapi/OneDrive/Desktop/GD32VW553/V1_MQTT_OK/GD32VW55X_Wifi_BLE_SDK/GD32VW55x_RELEASE_V1.0.2/MSDK/cloud/alicloud/src/services/awss\zconfig_protocol.h **** enum passwd_encpyt_type {
  62:C:/Users/stapi/OneDrive/Desktop/GD32VW553/V1_MQTT_OK/GD32VW55X_Wifi_BLE_SDK/GD32VW55x_RELEASE_V1.0.2/MSDK/cloud/alicloud/src/services/awss\zconfig_protocol.h ****     PASSWD_ENCRYPT_OPEN = 0,
  63:C:/Users/stapi/OneDrive/Desktop/GD32VW553/V1_MQTT_OK/GD32VW55X_Wifi_BLE_SDK/GD32VW55x_RELEASE_V1.0.2/MSDK/cloud/alicloud/src/services/awss\zconfig_protocol.h ****     PASSWD_ENCRYPT_CIPHER,
  64:C:/Users/stapi/OneDrive/Desktop/GD32VW553/V1_MQTT_OK/GD32VW55X_Wifi_BLE_SDK/GD32VW55x_RELEASE_V1.0.2/MSDK/cloud/alicloud/src/services/awss\zconfig_protocol.h ****     PASSWD_ENCRYPT_AESCFB,
  65:C:/Users/stapi/OneDrive/Desktop/GD32VW553/V1_MQTT_OK/GD32VW55X_Wifi_BLE_SDK/GD32VW55x_RELEASE_V1.0.2/MSDK/cloud/alicloud/src/services/awss\zconfig_protocol.h ****     PASSWD_ENCRYPT_AESOFB,
  66:C:/Users/stapi/OneDrive/Desktop/GD32VW553/V1_MQTT_OK/GD32VW55X_Wifi_BLE_SDK/GD32VW55x_RELEASE_V1.0.2/MSDK/cloud/alicloud/src/services/awss\zconfig_protocol.h **** };
  67:C:/Users/stapi/OneDrive/Desktop/GD32VW553/V1_MQTT_OK/GD32VW55X_Wifi_BLE_SDK/GD32VW55x_RELEASE_V1.0.2/MSDK/cloud/alicloud/src/services/awss\zconfig_protocol.h **** 
  68:C:/Users/stapi/OneDrive/Desktop/GD32VW553/V1_MQTT_OK/GD32VW55X_Wifi_BLE_SDK/GD32VW55x_RELEASE_V1.0.2/MSDK/cloud/alicloud/src/services/awss\zconfig_protocol.h **** #define flag_tods(tods)           ((tods) ? 'T' : 'F')
  69:C:/Users/stapi/OneDrive/Desktop/GD32VW553/V1_MQTT_OK/GD32VW55X_Wifi_BLE_SDK/GD32VW55x_RELEASE_V1.0.2/MSDK/cloud/alicloud/src/services/awss\zconfig_protocol.h **** 
  70:C:/Users/stapi/OneDrive/Desktop/GD32VW553/V1_MQTT_OK/GD32VW55X_Wifi_BLE_SDK/GD32VW55x_RELEASE_V1.0.2/MSDK/cloud/alicloud/src/services/awss\zconfig_protocol.h **** #define ZC_MAX_CHANNEL            (14)
  71:C:/Users/stapi/OneDrive/Desktop/GD32VW553/V1_MQTT_OK/GD32VW55X_Wifi_BLE_SDK/GD32VW55x_RELEASE_V1.0.2/MSDK/cloud/alicloud/src/services/awss\zconfig_protocol.h **** #define ZC_MIN_CHANNEL            (1)
  72:C:/Users/stapi/OneDrive/Desktop/GD32VW553/V1_MQTT_OK/GD32VW55X_Wifi_BLE_SDK/GD32VW55x_RELEASE_V1.0.2/MSDK/cloud/alicloud/src/services/awss\zconfig_protocol.h **** static inline int zconfig_is_valid_channel(int channel)
  73:C:/Users/stapi/OneDrive/Desktop/GD32VW553/V1_MQTT_OK/GD32VW55X_Wifi_BLE_SDK/GD32VW55x_RELEASE_V1.0.2/MSDK/cloud/alicloud/src/services/awss\zconfig_protocol.h **** {
  74:C:/Users/stapi/OneDrive/Desktop/GD32VW553/V1_MQTT_OK/GD32VW55X_Wifi_BLE_SDK/GD32VW55x_RELEASE_V1.0.2/MSDK/cloud/alicloud/src/services/awss\zconfig_protocol.h ****     return (ZC_MIN_CHANNEL <= channel && channel <= ZC_MAX_CHANNEL);
 1006              		.loc 3 74 5
 1007              		.loc 3 74 39 is_stmt 0
 1008 0000 1307F5FF 		addi	a4,a0,-1
 1009              	.LBE180:
 1010              	.LBE179:
 316:C:/Users/stapi/OneDrive/Desktop/GD32VW553/V1_MQTT_OK/GD32VW55X_Wifi_BLE_SDK/GD32VW55x_RELEASE_V1.0.2/MSDK/cloud/alicloud/src/services/awss\zconfig_vendor_common.c ****         return -1;
 1011              		.loc 1 316 8
 1012 0004 B547     		li	a5,13
 1013 0006 63EBE700 		bgtu	a4,a5,.L84
 320:C:/Users/stapi/OneDrive/Desktop/GD32VW553/V1_MQTT_OK/GD32VW55X_Wifi_BLE_SDK/GD32VW55x_RELEASE_V1.0.2/MSDK/cloud/alicloud/src/services/awss\zconfig_vendor_common.c ****     return 0;
 1014              		.loc 1 320 5 is_stmt 1
 320:C:/Users/stapi/OneDrive/Desktop/GD32VW553/V1_MQTT_OK/GD32VW55X_Wifi_BLE_SDK/GD32VW55x_RELEASE_V1.0.2/MSDK/cloud/alicloud/src/services/awss\zconfig_vendor_common.c ****     return 0;
 1015              		.loc 1 320 48 is_stmt 0
 1016 000a B7070000 		lui	a5,%hi(.LANCHOR2)
 1017 000e 83A70700 		lw	a5,%lo(.LANCHOR2)(a5)
 1018 0012 AA97     		add	a5,a5,a0
 1019 0014 238AA700 		sb	a0,20(a5)
 321:C:/Users/stapi/OneDrive/Desktop/GD32VW553/V1_MQTT_OK/GD32VW55X_Wifi_BLE_SDK/GD32VW55x_RELEASE_V1.0.2/MSDK/cloud/alicloud/src/services/awss\zconfig_vendor_common.c **** }
 1020              		.loc 1 321 5 is_stmt 1
 321:C:/Users/stapi/OneDrive/Desktop/GD32VW553/V1_MQTT_OK/GD32VW55X_Wifi_BLE_SDK/GD32VW55x_RELEASE_V1.0.2/MSDK/cloud/alicloud/src/services/awss\zconfig_vendor_common.c **** }
 1021              		.loc 1 321 12 is_stmt 0
 1022 0018 0145     		li	a0,0
 1023              	.LVL85:
 1024 001a 8280     		ret
 1025              	.LVL86:
 1026              	.L84:
 317:C:/Users/stapi/OneDrive/Desktop/GD32VW553/V1_MQTT_OK/GD32VW55X_Wifi_BLE_SDK/GD32VW55x_RELEASE_V1.0.2/MSDK/cloud/alicloud/src/services/awss\zconfig_vendor_common.c ****     }
 1027              		.loc 1 317 16
 1028 001c 7D55     		li	a0,-1
 1029              	.LVL87:
 322:C:/Users/stapi/OneDrive/Desktop/GD32VW553/V1_MQTT_OK/GD32VW55X_Wifi_BLE_SDK/GD32VW55x_RELEASE_V1.0.2/MSDK/cloud/alicloud/src/services/awss\zconfig_vendor_common.c **** 
 1030              		.loc 1 322 1
 1031 001e 8280     		ret
 1032              		.cfi_endproc
 1033              	.LFE58:
 1035              		.section	.text.aws_force_scanning,"ax",@progbits
 1036              		.align	1
 1037              		.globl	aws_force_scanning
 1039              	aws_force_scanning:
 1040              	.LFB59:
 329:C:/Users/stapi/OneDrive/Desktop/GD32VW553/V1_MQTT_OK/GD32VW55X_Wifi_BLE_SDK/GD32VW55x_RELEASE_V1.0.2/MSDK/cloud/alicloud/src/services/awss\zconfig_vendor_common.c **** #ifdef WITH_AUTH_ENCRY
 1041              		.loc 1 329 1 is_stmt 1
 1042              		.cfi_startproc
 357:C:/Users/stapi/OneDrive/Desktop/GD32VW553/V1_MQTT_OK/GD32VW55X_Wifi_BLE_SDK/GD32VW55x_RELEASE_V1.0.2/MSDK/cloud/alicloud/src/services/awss\zconfig_vendor_common.c **** #endif
 1043              		.loc 1 357 5
 359:C:/Users/stapi/OneDrive/Desktop/GD32VW553/V1_MQTT_OK/GD32VW55X_Wifi_BLE_SDK/GD32VW55x_RELEASE_V1.0.2/MSDK/cloud/alicloud/src/services/awss\zconfig_vendor_common.c **** 
 1044              		.loc 1 359 1 is_stmt 0
 1045 0000 0145     		li	a0,0
 1046 0002 8280     		ret
 1047              		.cfi_endproc
 1048              	.LFE59:
 1050              		.section	.rodata.aws_main_thread_func.str1.4,"aMS",@progbits,1
 1051              		.align	2
 1052              	.LC8:
 1053 0000 5B636861 		.string	"[channel scanning] %d ms"
 1053      6E6E656C 
 1053      20736361 
 1053      6E6E696E 
 1053      675D2025 
 1054 0019 000000   		.align	2
 1055              	.LC9:
 1056 001c 66696E61 		.string	"final channel %d"
 1056      6C206368 
 1056      616E6E65 
 1056      6C202564 
 1056      00
 1057 002d 000000   		.align	2
 1058              	.LC10:
 1059 0030 6368616E 		.string	"channel rescanning..."
 1059      6E656C20 
 1059      72657363 
 1059      616E6E69 
 1059      6E672E2E 
 1060 0046 0000     		.align	2
 1061              	.LC11:
 1062 0048 5B636861 		.string	"[channel recving] %d ms"
 1062      6E6E656C 
 1062      20726563 
 1062      76696E67 
 1062      5D202564 
 1063              		.align	2
 1064              	.LC12:
 1065 0060 61777320 		.string	"aws timeout scanning!"
 1065      74696D65 
 1065      6F757420 
 1065      7363616E 
 1065      6E696E67 
 1066 0076 0000     		.align	2
 1067              	.LC13:
 1068 0078 61777320 		.string	"aws timeout recving!"
 1068      74696D65 
 1068      6F757420 
 1068      72656376 
 1068      696E6721 
 1069 008d 000000   		.align	2
 1070              	.LC14:
 1071 0090 72657363 		.string	"rescan"
 1071      616E00
 1072 0097 00       		.align	2
 1073              	.LC15:
 1074 0098 72656164 		.string	"ready to call zconfig_destroy to release mem"
 1074      7920746F 
 1074      2063616C 
 1074      6C207A63 
 1074      6F6E6669 
 1075 00c5 000000   		.align	2
 1076              	.LC16:
 1077 00c8 7A636F6E 		.string	"zconfig mem to release"
 1077      66696720 
 1077      6D656D20 
 1077      746F2072 
 1077      656C6561 
 1078 00df 00       		.align	2
 1079              	.LC17:
 1080 00e0 7A636F6E 		.string	"zconfig mem force release"
 1080      66696720 
 1080      6D656D20 
 1080      666F7263 
 1080      65207265 
 1081              		.section	.text.aws_main_thread_func,"ax",@progbits
 1082              		.align	1
 1083              		.globl	aws_main_thread_func
 1085              	aws_main_thread_func:
 1086              	.LFB60:
 417:C:/Users/stapi/OneDrive/Desktop/GD32VW553/V1_MQTT_OK/GD32VW55X_Wifi_BLE_SDK/GD32VW55x_RELEASE_V1.0.2/MSDK/cloud/alicloud/src/services/awss\zconfig_vendor_common.c ****     aws_start_timestamp = os_get_time_ms();
 1087              		.loc 1 417 1 is_stmt 1
 1088              		.cfi_startproc
 1089 0000 17030000 		call	t0,__riscv_save_11
 1089      E7020300 
 1090              		.cfi_offset 26, -48
 1091              		.cfi_offset 25, -44
 1092              		.cfi_offset 24, -40
 1093              		.cfi_offset 23, -36
 1094              		.cfi_offset 22, -32
 1095              		.cfi_offset 21, -28
 1096              		.cfi_offset 20, -24
 1097              		.cfi_offset 19, -20
 1098              		.cfi_offset 18, -16
 1099              		.cfi_offset 9, -12
 1100              		.cfi_offset 8, -8
 1101              		.cfi_offset 1, -4
 1102              		.cfi_def_cfa_offset 48
 418:C:/Users/stapi/OneDrive/Desktop/GD32VW553/V1_MQTT_OK/GD32VW55X_Wifi_BLE_SDK/GD32VW55x_RELEASE_V1.0.2/MSDK/cloud/alicloud/src/services/awss\zconfig_vendor_common.c **** 
 1103              		.loc 1 418 5
 1104 0008 37040000 		lui	s0,%hi(.LANCHOR2)
 1105 000c 83240400 		lw	s1,%lo(.LANCHOR2)(s0)
 417:C:/Users/stapi/OneDrive/Desktop/GD32VW553/V1_MQTT_OK/GD32VW55X_Wifi_BLE_SDK/GD32VW55x_RELEASE_V1.0.2/MSDK/cloud/alicloud/src/services/awss\zconfig_vendor_common.c ****     aws_start_timestamp = os_get_time_ms();
 1106              		.loc 1 417 1 is_stmt 0
 1107 0010 4111     		addi	sp,sp,-16
 1108              		.cfi_def_cfa_offset 64
 418:C:/Users/stapi/OneDrive/Desktop/GD32VW553/V1_MQTT_OK/GD32VW55X_Wifi_BLE_SDK/GD32VW55x_RELEASE_V1.0.2/MSDK/cloud/alicloud/src/services/awss\zconfig_vendor_common.c **** 
 1109              		.loc 1 418 27
 1110 0012 97000000 		call	os_get_time_ms
 1110      E7800000 
 1111              	.LVL88:
 418:C:/Users/stapi/OneDrive/Desktop/GD32VW553/V1_MQTT_OK/GD32VW55X_Wifi_BLE_SDK/GD32VW55x_RELEASE_V1.0.2/MSDK/cloud/alicloud/src/services/awss\zconfig_vendor_common.c **** 
 1112              		.loc 1 418 25
 1113 001a 88D4     		sw	a0,40(s1)
 421:C:/Users/stapi/OneDrive/Desktop/GD32VW553/V1_MQTT_OK/GD32VW55X_Wifi_BLE_SDK/GD32VW55x_RELEASE_V1.0.2/MSDK/cloud/alicloud/src/services/awss\zconfig_vendor_common.c **** 
 1114              		.loc 1 421 5 is_stmt 1
 1115 001c 97000000 		call	aws_switch_channel
 1115      E7800000 
 1116              	.LVL89:
 1117 0024 13040400 		addi	s0,s0,%lo(.LANCHOR2)
 425:C:/Users/stapi/OneDrive/Desktop/GD32VW553/V1_MQTT_OK/GD32VW55X_Wifi_BLE_SDK/GD32VW55x_RELEASE_V1.0.2/MSDK/cloud/alicloud/src/services/awss\zconfig_vendor_common.c ****     while (aws_amend_dst_chan != 0 || aws_state == AWS_SCANNING || aws_force_scanning()) {
 1118              		.loc 1 425 12 is_stmt 0
 1119 0028 370A0000 		lui	s4,%hi(zconfig_data)
 426:C:/Users/stapi/OneDrive/Desktop/GD32VW553/V1_MQTT_OK/GD32VW55X_Wifi_BLE_SDK/GD32VW55x_RELEASE_V1.0.2/MSDK/cloud/alicloud/src/services/awss\zconfig_vendor_common.c ****         switch (aws_is_chnscan_timeout()) {
 1120              		.loc 1 426 31
 1121 002c 370B0000 		lui	s6,%hi(.LANCHOR12)
 532:C:/Users/stapi/OneDrive/Desktop/GD32VW553/V1_MQTT_OK/GD32VW55X_Wifi_BLE_SDK/GD32VW55x_RELEASE_V1.0.2/MSDK/cloud/alicloud/src/services/awss\zconfig_vendor_common.c **** #ifdef AWSS_SUPPORT_SMARTCONFIG_MCAST
 1122              		.loc 1 532 5
 1123 0030 37090000 		lui	s2,%hi(.LANCHOR14)
 1124 0034 B70B0000 		lui	s7,%hi(.LC13)
 1125 0038 B7090000 		lui	s3,%hi(.LC7)
 1126              	.LBB181:
 1127              	.LBB182:
 640:..\..\..\..\cloud\alicloud\src\services\dev_bind\os/os.h **** }
 1128              		.loc 2 640 5
 1129 003c B70A0000 		lui	s5,%hi(aws_80211_frame_handler)
 1130              	.L87:
 1131              	.LBE182:
 1132              	.LBE181:
 425:C:/Users/stapi/OneDrive/Desktop/GD32VW553/V1_MQTT_OK/GD32VW55X_Wifi_BLE_SDK/GD32VW55x_RELEASE_V1.0.2/MSDK/cloud/alicloud/src/services/awss\zconfig_vendor_common.c ****     while (aws_amend_dst_chan != 0 || aws_state == AWS_SCANNING || aws_force_scanning()) {
 1133              		.loc 1 425 5 is_stmt 1
 1134 0040 03250A00 		lw	a0,%lo(zconfig_data)(s4)
 1135 0044 1946     		li	a2,6
 1136 0046 8145     		li	a1,0
 1137 0048 1305A54E 		addi	a0,a0,1258
 1138 004c 97000000 		call	memset
 1138      E7800000 
 1139              	.LVL90:
 426:C:/Users/stapi/OneDrive/Desktop/GD32VW553/V1_MQTT_OK/GD32VW55X_Wifi_BLE_SDK/GD32VW55x_RELEASE_V1.0.2/MSDK/cloud/alicloud/src/services/awss\zconfig_vendor_common.c ****         switch (aws_is_chnscan_timeout()) {
 1140              		.loc 1 426 5
 1141              	.LBB184:
 427:C:/Users/stapi/OneDrive/Desktop/GD32VW553/V1_MQTT_OK/GD32VW55X_Wifi_BLE_SDK/GD32VW55x_RELEASE_V1.0.2/MSDK/cloud/alicloud/src/services/awss\zconfig_vendor_common.c ****             case CHNSCAN_ONGOING:
 1142              		.loc 1 427 9 is_stmt 0
 1143 0054 8544     		li	s1,1
 1144 0056 094C     		li	s8,2
 439:C:/Users/stapi/OneDrive/Desktop/GD32VW553/V1_MQTT_OK/GD32VW55X_Wifi_BLE_SDK/GD32VW55x_RELEASE_V1.0.2/MSDK/cloud/alicloud/src/services/awss\zconfig_vendor_common.c ****             goto timeout_scanning;
 1145              		.loc 1 439 12
 1146 0058 914C     		li	s9,4
 454:C:/Users/stapi/OneDrive/Desktop/GD32VW553/V1_MQTT_OK/GD32VW55X_Wifi_BLE_SDK/GD32VW55x_RELEASE_V1.0.2/MSDK/cloud/alicloud/src/services/awss\zconfig_vendor_common.c **** #endif
 1147              		.loc 1 454 13
 1148 005a 0D4D     		li	s10,3
 1149              	.L88:
 1150              	.LBE184:
 426:C:/Users/stapi/OneDrive/Desktop/GD32VW553/V1_MQTT_OK/GD32VW55X_Wifi_BLE_SDK/GD32VW55x_RELEASE_V1.0.2/MSDK/cloud/alicloud/src/services/awss\zconfig_vendor_common.c ****         switch (aws_is_chnscan_timeout()) {
 1151              		.loc 1 426 11 is_stmt 1
 1152 005c 83270B00 		lw	a5,%lo(.LANCHOR12)(s6)
 1153 0060 89E7     		bne	a5,zero,.L95
 426:C:/Users/stapi/OneDrive/Desktop/GD32VW553/V1_MQTT_OK/GD32VW55X_Wifi_BLE_SDK/GD32VW55x_RELEASE_V1.0.2/MSDK/cloud/alicloud/src/services/awss\zconfig_vendor_common.c ****         switch (aws_is_chnscan_timeout()) {
 1154              		.loc 1 426 39 is_stmt 0 discriminator 1
 1155 0062 1C40     		lw	a5,0(s0)
 426:C:/Users/stapi/OneDrive/Desktop/GD32VW553/V1_MQTT_OK/GD32VW55X_Wifi_BLE_SDK/GD32VW55x_RELEASE_V1.0.2/MSDK/cloud/alicloud/src/services/awss\zconfig_vendor_common.c ****         switch (aws_is_chnscan_timeout()) {
 1156              		.loc 1 426 36 discriminator 1
 1157 0064 83C70700 		lbu	a5,0(a5)
 1158 0068 95E3     		bne	a5,zero,.L96
 1159              	.L95:
 1160              	.LBB193:
 427:C:/Users/stapi/OneDrive/Desktop/GD32VW553/V1_MQTT_OK/GD32VW55X_Wifi_BLE_SDK/GD32VW55x_RELEASE_V1.0.2/MSDK/cloud/alicloud/src/services/awss\zconfig_vendor_common.c ****             case CHNSCAN_ONGOING:
 1161              		.loc 1 427 9 is_stmt 1
 427:C:/Users/stapi/OneDrive/Desktop/GD32VW553/V1_MQTT_OK/GD32VW55X_Wifi_BLE_SDK/GD32VW55x_RELEASE_V1.0.2/MSDK/cloud/alicloud/src/services/awss\zconfig_vendor_common.c ****             case CHNSCAN_ONGOING:
 1162              		.loc 1 427 17 is_stmt 0
 1163 006a 97000000 		call	aws_is_chnscan_timeout
 1163      E7800000 
 1164              	.LVL91:
 427:C:/Users/stapi/OneDrive/Desktop/GD32VW553/V1_MQTT_OK/GD32VW55X_Wifi_BLE_SDK/GD32VW55x_RELEASE_V1.0.2/MSDK/cloud/alicloud/src/services/awss\zconfig_vendor_common.c ****             case CHNSCAN_ONGOING:
 1165              		.loc 1 427 9
 1166 0072 63099512 		beq	a0,s1,.L89
 1167 0076 6305852B 		beq	a0,s8,.L90
 1168              	.L91:
 439:C:/Users/stapi/OneDrive/Desktop/GD32VW553/V1_MQTT_OK/GD32VW55X_Wifi_BLE_SDK/GD32VW55x_RELEASE_V1.0.2/MSDK/cloud/alicloud/src/services/awss\zconfig_vendor_common.c ****             goto timeout_scanning;
 1169              		.loc 1 439 9 is_stmt 1
 439:C:/Users/stapi/OneDrive/Desktop/GD32VW553/V1_MQTT_OK/GD32VW55X_Wifi_BLE_SDK/GD32VW55x_RELEASE_V1.0.2/MSDK/cloud/alicloud/src/services/awss\zconfig_vendor_common.c ****             goto timeout_scanning;
 1170              		.loc 1 439 13 is_stmt 0
 1171 007a 1C40     		lw	a5,0(s0)
 439:C:/Users/stapi/OneDrive/Desktop/GD32VW553/V1_MQTT_OK/GD32VW55X_Wifi_BLE_SDK/GD32VW55x_RELEASE_V1.0.2/MSDK/cloud/alicloud/src/services/awss\zconfig_vendor_common.c ****             goto timeout_scanning;
 1172              		.loc 1 439 12
 1173 007c 03C73702 		lbu	a4,35(a5)
 1174 0080 6300972B 		beq	a4,s9,.L90
 448:C:/Users/stapi/OneDrive/Desktop/GD32VW553/V1_MQTT_OK/GD32VW55X_Wifi_BLE_SDK/GD32VW55x_RELEASE_V1.0.2/MSDK/cloud/alicloud/src/services/awss\zconfig_vendor_common.c ****             break;                              /* awss state change, awss success/chan lock */
 1175              		.loc 1 448 9 is_stmt 1
 448:C:/Users/stapi/OneDrive/Desktop/GD32VW553/V1_MQTT_OK/GD32VW55X_Wifi_BLE_SDK/GD32VW55x_RELEASE_V1.0.2/MSDK/cloud/alicloud/src/services/awss\zconfig_vendor_common.c ****             break;                              /* awss state change, awss success/chan lock */
 1176              		.loc 1 448 12 is_stmt 0
 1177 0084 83C70700 		lbu	a5,0(a5)
 1178 0088 63830712 		beq	a5,zero,.L92
 1179              	.L96:
 1180              	.LBE193:
 481:C:/Users/stapi/OneDrive/Desktop/GD32VW553/V1_MQTT_OK/GD32VW55X_Wifi_BLE_SDK/GD32VW55x_RELEASE_V1.0.2/MSDK/cloud/alicloud/src/services/awss\zconfig_vendor_common.c ****                time_elapsed_ms_since(aws_start_timestamp));
 1181              		.loc 1 481 5 is_stmt 1
 1182 008c 1C40     		lw	a5,0(s0)
 501:C:/Users/stapi/OneDrive/Desktop/GD32VW553/V1_MQTT_OK/GD32VW55X_Wifi_BLE_SDK/GD32VW55x_RELEASE_V1.0.2/MSDK/cloud/alicloud/src/services/awss\zconfig_vendor_common.c ****             goto timeout_recving;               /* awss scan interrupt by user */
 1183              		.loc 1 501 12 is_stmt 0
 1184 008e 114C     		li	s8,4
 481:C:/Users/stapi/OneDrive/Desktop/GD32VW553/V1_MQTT_OK/GD32VW55X_Wifi_BLE_SDK/GD32VW55x_RELEASE_V1.0.2/MSDK/cloud/alicloud/src/services/awss\zconfig_vendor_common.c ****                time_elapsed_ms_since(aws_start_timestamp));
 1185              		.loc 1 481 5
 1186 0090 8457     		lw	s1,40(a5)
 1187              	.LVL92:
 1188              	.LBB194:
 1189              	.LBB195:
 465:..\..\..\..\cloud\alicloud\src\services\dev_bind\os/os.h **** 
 1190              		.loc 2 465 5 is_stmt 1
 465:..\..\..\..\cloud\alicloud\src\services\dev_bind\os/os.h **** 
 1191              		.loc 2 465 20 is_stmt 0
 1192 0092 97000000 		call	os_get_time_ms
 1192      E7800000 
 1193              	.LVL93:
 467:..\..\..\..\cloud\alicloud\src\services\dev_bind\os/os.h **** }
 1194              		.loc 2 467 5 is_stmt 1
 1195              	.LBE195:
 1196              	.LBE194:
 481:C:/Users/stapi/OneDrive/Desktop/GD32VW553/V1_MQTT_OK/GD32VW55X_Wifi_BLE_SDK/GD32VW55x_RELEASE_V1.0.2/MSDK/cloud/alicloud/src/services/awss\zconfig_vendor_common.c ****                time_elapsed_ms_since(aws_start_timestamp));
 1197              		.loc 1 481 5 is_stmt 0
 1198 009a 37070000 		lui	a4,%hi(.LC8)
 1199 009e B3079540 		sub	a5,a0,s1
 1200 00a2 13070700 		addi	a4,a4,%lo(.LC8)
 1201 00a6 9546     		li	a3,5
 1202 00a8 1306101E 		li	a2,481
 1203 00ac 93050900 		addi	a1,s2,%lo(.LANCHOR14)
 1204 00b0 13850900 		addi	a0,s3,%lo(.LC7)
 1205 00b4 97000000 		call	LITE_syslog
 1205      E7800000 
 1206              	.LVL94:
 488:C:/Users/stapi/OneDrive/Desktop/GD32VW553/V1_MQTT_OK/GD32VW55X_Wifi_BLE_SDK/GD32VW55x_RELEASE_V1.0.2/MSDK/cloud/alicloud/src/services/awss\zconfig_vendor_common.c **** #endif
 1207              		.loc 1 488 5 is_stmt 1
 1208 00bc 97000000 		call	aws_try_adjust_chan
 1208      E7800000 
 1209              	.LVL95:
 490:C:/Users/stapi/OneDrive/Desktop/GD32VW553/V1_MQTT_OK/GD32VW55X_Wifi_BLE_SDK/GD32VW55x_RELEASE_V1.0.2/MSDK/cloud/alicloud/src/services/awss\zconfig_vendor_common.c **** 
 1210              		.loc 1 490 5
 1211 00c4 1C40     		lw	a5,0(s0)
 1212 00c6 37070000 		lui	a4,%hi(.LC9)
 1213 00ca 13070700 		addi	a4,a4,%lo(.LC9)
 1214 00ce 83C73700 		lbu	a5,3(a5)
 1215 00d2 9546     		li	a3,5
 1216 00d4 1306A01E 		li	a2,490
 1217 00d8 93050900 		addi	a1,s2,%lo(.LANCHOR14)
 1218 00dc 13850900 		addi	a0,s3,%lo(.LC7)
 1219 00e0 97000000 		call	LITE_syslog
 1219      E7800000 
 1220              	.LVL96:
 493:C:/Users/stapi/OneDrive/Desktop/GD32VW553/V1_MQTT_OK/GD32VW55X_Wifi_BLE_SDK/GD32VW55x_RELEASE_V1.0.2/MSDK/cloud/alicloud/src/services/awss\zconfig_vendor_common.c ****         /* 80211 frame handled by callback */
 1221              		.loc 1 493 5
 493:C:/Users/stapi/OneDrive/Desktop/GD32VW553/V1_MQTT_OK/GD32VW55X_Wifi_BLE_SDK/GD32VW55x_RELEASE_V1.0.2/MSDK/cloud/alicloud/src/services/awss\zconfig_vendor_common.c ****         /* 80211 frame handled by callback */
 1222              		.loc 1 493 11 is_stmt 0
 1223 00e8 8944     		li	s1,2
 1224              	.L93:
 493:C:/Users/stapi/OneDrive/Desktop/GD32VW553/V1_MQTT_OK/GD32VW55X_Wifi_BLE_SDK/GD32VW55x_RELEASE_V1.0.2/MSDK/cloud/alicloud/src/services/awss\zconfig_vendor_common.c ****         /* 80211 frame handled by callback */
 1225              		.loc 1 493 11 is_stmt 1
 493:C:/Users/stapi/OneDrive/Desktop/GD32VW553/V1_MQTT_OK/GD32VW55X_Wifi_BLE_SDK/GD32VW55x_RELEASE_V1.0.2/MSDK/cloud/alicloud/src/services/awss\zconfig_vendor_common.c ****         /* 80211 frame handled by callback */
 1226              		.loc 1 493 12 is_stmt 0
 1227 00ea 1C40     		lw	a5,0(s0)
 493:C:/Users/stapi/OneDrive/Desktop/GD32VW553/V1_MQTT_OK/GD32VW55X_Wifi_BLE_SDK/GD32VW55x_RELEASE_V1.0.2/MSDK/cloud/alicloud/src/services/awss\zconfig_vendor_common.c ****         /* 80211 frame handled by callback */
 1228              		.loc 1 493 11
 1229 00ec 03C70700 		lbu	a4,0(a5)
 1230 00f0 631E970E 		bne	a4,s1,.L102
 526:C:/Users/stapi/OneDrive/Desktop/GD32VW553/V1_MQTT_OK/GD32VW55X_Wifi_BLE_SDK/GD32VW55x_RELEASE_V1.0.2/MSDK/cloud/alicloud/src/services/awss\zconfig_vendor_common.c ****     goto success;
 1231              		.loc 1 526 5 is_stmt 1
 1232 00f4 8457     		lw	s1,40(a5)
 1233              	.LVL97:
 1234              	.LBB196:
 1235              	.LBB197:
 465:..\..\..\..\cloud\alicloud\src\services\dev_bind\os/os.h **** 
 1236              		.loc 2 465 5
 465:..\..\..\..\cloud\alicloud\src\services\dev_bind\os/os.h **** 
 1237              		.loc 2 465 20 is_stmt 0
 1238 00f6 97000000 		call	os_get_time_ms
 1238      E7800000 
 1239              	.LVL98:
 467:..\..\..\..\cloud\alicloud\src\services\dev_bind\os/os.h **** }
 1240              		.loc 2 467 5 is_stmt 1
 1241              	.LBE197:
 1242              	.LBE196:
 526:C:/Users/stapi/OneDrive/Desktop/GD32VW553/V1_MQTT_OK/GD32VW55X_Wifi_BLE_SDK/GD32VW55x_RELEASE_V1.0.2/MSDK/cloud/alicloud/src/services/awss\zconfig_vendor_common.c ****     goto success;
 1243              		.loc 1 526 5 is_stmt 0
 1244 00fe 37070000 		lui	a4,%hi(.LC11)
 1245 0102 B3079540 		sub	a5,a0,s1
 1246 0106 13070700 		addi	a4,a4,%lo(.LC11)
 1247 010a 9546     		li	a3,5
 1248 010c 1306E020 		li	a2,526
 1249 0110 93050900 		addi	a1,s2,%lo(.LANCHOR14)
 1250 0114 13850900 		addi	a0,s3,%lo(.LC7)
 1251 0118 97000000 		call	LITE_syslog
 1251      E7800000 
 1252              	.LVL99:
 527:C:/Users/stapi/OneDrive/Desktop/GD32VW553/V1_MQTT_OK/GD32VW55X_Wifi_BLE_SDK/GD32VW55x_RELEASE_V1.0.2/MSDK/cloud/alicloud/src/services/awss\zconfig_vendor_common.c **** 
 1253              		.loc 1 527 5 is_stmt 1
 1254              	.L103:
 578:C:/Users/stapi/OneDrive/Desktop/GD32VW553/V1_MQTT_OK/GD32VW55X_Wifi_BLE_SDK/GD32VW55x_RELEASE_V1.0.2/MSDK/cloud/alicloud/src/services/awss\zconfig_vendor_common.c ****     rescan_timer = NULL;
 1255              		.loc 1 578 5
 1256 0120 B7040000 		lui	s1,%hi(.LANCHOR15)
 1257 0124 93840400 		addi	s1,s1,%lo(.LANCHOR15)
 1258 0128 8840     		lw	a0,0(s1)
 1259 012a 97000000 		call	awss_stop_timer
 1259      E7800000 
 1260              	.LVL100:
 579:C:/Users/stapi/OneDrive/Desktop/GD32VW553/V1_MQTT_OK/GD32VW55X_Wifi_BLE_SDK/GD32VW55x_RELEASE_V1.0.2/MSDK/cloud/alicloud/src/services/awss\zconfig_vendor_common.c ****     // don't destroy zconfig_data until monitor_cb is finished.
 1261              		.loc 1 579 5
 581:C:/Users/stapi/OneDrive/Desktop/GD32VW553/V1_MQTT_OK/GD32VW55X_Wifi_BLE_SDK/GD32VW55x_RELEASE_V1.0.2/MSDK/cloud/alicloud/src/services/awss\zconfig_vendor_common.c ****     os_mutex_unlock(zc_mutex);
 1262              		.loc 1 581 5 is_stmt 0
 1263 0132 83270A00 		lw	a5,%lo(zconfig_data)(s4)
 579:C:/Users/stapi/OneDrive/Desktop/GD32VW553/V1_MQTT_OK/GD32VW55X_Wifi_BLE_SDK/GD32VW55x_RELEASE_V1.0.2/MSDK/cloud/alicloud/src/services/awss\zconfig_vendor_common.c ****     // don't destroy zconfig_data until monitor_cb is finished.
 1264              		.loc 1 579 18
 1265 0136 23A00400 		sw	zero,0(s1)
 581:C:/Users/stapi/OneDrive/Desktop/GD32VW553/V1_MQTT_OK/GD32VW55X_Wifi_BLE_SDK/GD32VW55x_RELEASE_V1.0.2/MSDK/cloud/alicloud/src/services/awss\zconfig_vendor_common.c ****     os_mutex_unlock(zc_mutex);
 1266              		.loc 1 581 5 is_stmt 1
 1267              	.LVL101:
 1268              	.LBB198:
 1269              	.LBB199:
 281:..\..\..\..\cloud\alicloud\src\services\dev_bind\os/os.h **** }
 1270              		.loc 2 281 5
 1271 013a 03A50754 		lw	a0,1344(a5)
 1272 013e 97000000 		call	HAL_MutexLock
 1272      E7800000 
 1273              	.LVL102:
 1274              	.LBE199:
 1275              	.LBE198:
 582:C:/Users/stapi/OneDrive/Desktop/GD32VW553/V1_MQTT_OK/GD32VW55X_Wifi_BLE_SDK/GD32VW55x_RELEASE_V1.0.2/MSDK/cloud/alicloud/src/services/awss\zconfig_vendor_common.c ****     dump_awss_status(STATE_WIFI_DESTROY, "ready to call zconfig_destroy to release mem");
 1276              		.loc 1 582 5
 1277              	.LBB200:
 1278              	.LBB201:
 294:..\..\..\..\cloud\alicloud\src\services\dev_bind\os/os.h **** }
 1279              		.loc 2 294 5
 1280              	.LBE201:
 1281              	.LBE200:
 582:C:/Users/stapi/OneDrive/Desktop/GD32VW553/V1_MQTT_OK/GD32VW55X_Wifi_BLE_SDK/GD32VW55x_RELEASE_V1.0.2/MSDK/cloud/alicloud/src/services/awss\zconfig_vendor_common.c ****     dump_awss_status(STATE_WIFI_DESTROY, "ready to call zconfig_destroy to release mem");
 1282              		.loc 1 582 5 is_stmt 0
 1283 0146 83270A00 		lw	a5,%lo(zconfig_data)(s4)
 1284              	.LBB203:
 1285              	.LBB202:
 294:..\..\..\..\cloud\alicloud\src\services\dev_bind\os/os.h **** }
 1286              		.loc 2 294 5
 1287 014a 03A50754 		lw	a0,1344(a5)
 1288 014e 97000000 		call	HAL_MutexUnlock
 1288      E7800000 
 1289              	.LVL103:
 1290              	.LBE202:
 1291              	.LBE203:
 583:C:/Users/stapi/OneDrive/Desktop/GD32VW553/V1_MQTT_OK/GD32VW55X_Wifi_BLE_SDK/GD32VW55x_RELEASE_V1.0.2/MSDK/cloud/alicloud/src/services/awss\zconfig_vendor_common.c ****     /*
 1292              		.loc 1 583 5 is_stmt 1
 1293 0156 37060000 		lui	a2,%hi(.LC15)
 1294 015a 13060600 		addi	a2,a2,%lo(.LC15)
 1295 015e 930580BF 		li	a1,-1032
 1296 0162 6D45     		li	a0,27
 1297 0164 97000000 		call	iotx_state_event
 1297      E7800000 
 1298              	.LVL104:
 589:C:/Users/stapi/OneDrive/Desktop/GD32VW553/V1_MQTT_OK/GD32VW55X_Wifi_BLE_SDK/GD32VW55x_RELEASE_V1.0.2/MSDK/cloud/alicloud/src/services/awss\zconfig_vendor_common.c ****         dump_awss_status(STATE_WIFI_DESTROY, "zconfig mem to release");
 1299              		.loc 1 589 5
 589:C:/Users/stapi/OneDrive/Desktop/GD32VW553/V1_MQTT_OK/GD32VW55X_Wifi_BLE_SDK/GD32VW55x_RELEASE_V1.0.2/MSDK/cloud/alicloud/src/services/awss\zconfig_vendor_common.c ****         dump_awss_status(STATE_WIFI_DESTROY, "zconfig mem to release");
 1300              		.loc 1 589 19 is_stmt 0
 1301 016c 1C40     		lw	a5,0(s0)
 589:C:/Users/stapi/OneDrive/Desktop/GD32VW553/V1_MQTT_OK/GD32VW55X_Wifi_BLE_SDK/GD32VW55x_RELEASE_V1.0.2/MSDK/cloud/alicloud/src/services/awss\zconfig_vendor_common.c ****         dump_awss_status(STATE_WIFI_DESTROY, "zconfig mem to release");
 1302              		.loc 1 589 8
 1303 016e 63880720 		beq	a5,zero,.L113
 589:C:/Users/stapi/OneDrive/Desktop/GD32VW553/V1_MQTT_OK/GD32VW55X_Wifi_BLE_SDK/GD32VW55x_RELEASE_V1.0.2/MSDK/cloud/alicloud/src/services/awss\zconfig_vendor_common.c ****         dump_awss_status(STATE_WIFI_DESTROY, "zconfig mem to release");
 1304              		.loc 1 589 28 discriminator 1
 1305 0172 03C73702 		lbu	a4,35(a5)
 1306 0176 9547     		li	a5,5
 1307 0178 6313F720 		bne	a4,a5,.L113
 590:C:/Users/stapi/OneDrive/Desktop/GD32VW553/V1_MQTT_OK/GD32VW55X_Wifi_BLE_SDK/GD32VW55x_RELEASE_V1.0.2/MSDK/cloud/alicloud/src/services/awss\zconfig_vendor_common.c ****         zconfig_force_destroy();
 1308              		.loc 1 590 9 is_stmt 1
 1309 017c 37060000 		lui	a2,%hi(.LC16)
 1310 0180 13060600 		addi	a2,a2,%lo(.LC16)
 1311              	.L127:
 600:C:/Users/stapi/OneDrive/Desktop/GD32VW553/V1_MQTT_OK/GD32VW55X_Wifi_BLE_SDK/GD32VW55x_RELEASE_V1.0.2/MSDK/cloud/alicloud/src/services/awss\zconfig_vendor_common.c ****         zconfig_force_destroy();
 1312              		.loc 1 600 9 is_stmt 0
 1313 0184 930580BF 		li	a1,-1032
 1314 0188 6D45     		li	a0,27
 1315 018a 97000000 		call	iotx_state_event
 1315      E7800000 
 1316              	.LVL105:
 601:C:/Users/stapi/OneDrive/Desktop/GD32VW553/V1_MQTT_OK/GD32VW55X_Wifi_BLE_SDK/GD32VW55x_RELEASE_V1.0.2/MSDK/cloud/alicloud/src/services/awss\zconfig_vendor_common.c ****     }
 1317              		.loc 1 601 9 is_stmt 1
 1318 0192 97000000 		call	zconfig_force_destroy
 1318      E7800000 
 1319              	.LVL106:
 603:C:/Users/stapi/OneDrive/Desktop/GD32VW553/V1_MQTT_OK/GD32VW55X_Wifi_BLE_SDK/GD32VW55x_RELEASE_V1.0.2/MSDK/cloud/alicloud/src/services/awss\zconfig_vendor_common.c **** 
 1320              		.loc 1 603 1 is_stmt 0
 1321 019a 4101     		addi	sp,sp,16
 1322              		.cfi_remember_state
 1323              		.cfi_def_cfa_offset 0
 1324 019c 17030000 		tail	__riscv_restore_11
 1324      67000300 
 1325              		.cfi_restore 26
 1326              		.cfi_restore 25
 1327              		.cfi_restore 24
 1328              		.cfi_restore 23
 1329              		.cfi_restore 22
 1330              		.cfi_restore 21
 1331              		.cfi_restore 20
 1332              		.cfi_restore 19
 1333              		.cfi_restore 18
 1334              		.cfi_restore 9
 1335              		.cfi_restore 8
 1336              		.cfi_restore 1
 1337              		.cfi_def_cfa_offset -48
 1338              	.L89:
 1339              		.cfi_restore_state
 1340              	.LBB204:
 431:C:/Users/stapi/OneDrive/Desktop/GD32VW553/V1_MQTT_OK/GD32VW55X_Wifi_BLE_SDK/GD32VW55x_RELEASE_V1.0.2/MSDK/cloud/alicloud/src/services/awss\zconfig_vendor_common.c ****                 break;
 1341              		.loc 1 431 17 is_stmt 1
 1342 01a4 97000000 		call	aws_switch_channel
 1342      E7800000 
 1343              	.LVL107:
 432:C:/Users/stapi/OneDrive/Desktop/GD32VW553/V1_MQTT_OK/GD32VW55X_Wifi_BLE_SDK/GD32VW55x_RELEASE_V1.0.2/MSDK/cloud/alicloud/src/services/awss\zconfig_vendor_common.c ****             case CHNSCAN_TIMEOUT:               /* awss scan timeout(typical 10min) */
 1344              		.loc 1 432 17
 1345 01ac F9B5     		j	.L91
 1346              	.L92:
 454:C:/Users/stapi/OneDrive/Desktop/GD32VW553/V1_MQTT_OK/GD32VW55X_Wifi_BLE_SDK/GD32VW55x_RELEASE_V1.0.2/MSDK/cloud/alicloud/src/services/awss\zconfig_vendor_common.c **** #endif
 1347              		.loc 1 454 9
 1348              	.LBB185:
 1349              	.LBB186:
 625:..\..\..\..\cloud\alicloud\src\services\dev_bind\os/os.h **** }
 1350              		.loc 2 625 5
 625:..\..\..\..\cloud\alicloud\src\services\dev_bind\os/os.h **** }
 1351              		.loc 2 625 12 is_stmt 0
 1352 01ae 97000000 		call	HAL_Awss_Get_Channelscan_Interval_Ms
 1352      E7800000 
 1353              	.LVL108:
 1354 01b6 AA87     		mv	a5,a0
 1355              	.LVL109:
 1356              	.LBE186:
 1357              	.LBE185:
 456:C:/Users/stapi/OneDrive/Desktop/GD32VW553/V1_MQTT_OK/GD32VW55X_Wifi_BLE_SDK/GD32VW55x_RELEASE_V1.0.2/MSDK/cloud/alicloud/src/services/awss\zconfig_vendor_common.c ****             interval = 1;
 1358              		.loc 1 456 9 is_stmt 1
 457:C:/Users/stapi/OneDrive/Desktop/GD32VW553/V1_MQTT_OK/GD32VW55X_Wifi_BLE_SDK/GD32VW55x_RELEASE_V1.0.2/MSDK/cloud/alicloud/src/services/awss\zconfig_vendor_common.c ****         }
 1359              		.loc 1 457 22 is_stmt 0
 1360 01b8 0545     		li	a0,1
 1361              	.LVL110:
 456:C:/Users/stapi/OneDrive/Desktop/GD32VW553/V1_MQTT_OK/GD32VW55X_Wifi_BLE_SDK/GD32VW55x_RELEASE_V1.0.2/MSDK/cloud/alicloud/src/services/awss\zconfig_vendor_common.c ****             interval = 1;
 1362              		.loc 1 456 12
 1363 01ba 6355F000 		ble	a5,zero,.L94
 454:C:/Users/stapi/OneDrive/Desktop/GD32VW553/V1_MQTT_OK/GD32VW55X_Wifi_BLE_SDK/GD32VW55x_RELEASE_V1.0.2/MSDK/cloud/alicloud/src/services/awss\zconfig_vendor_common.c **** #endif
 1364              		.loc 1 454 63
 1365 01be 8907     		addi	a5,a5,2
 1366              	.LVL111:
 454:C:/Users/stapi/OneDrive/Desktop/GD32VW553/V1_MQTT_OK/GD32VW55X_Wifi_BLE_SDK/GD32VW55x_RELEASE_V1.0.2/MSDK/cloud/alicloud/src/services/awss\zconfig_vendor_common.c **** #endif
 1367              		.loc 1 454 13
 1368 01c0 33C5A703 		div	a0,a5,s10
 1369              	.LVL112:
 1370              	.L94:
 461:C:/Users/stapi/OneDrive/Desktop/GD32VW553/V1_MQTT_OK/GD32VW55X_Wifi_BLE_SDK/GD32VW55x_RELEASE_V1.0.2/MSDK/cloud/alicloud/src/services/awss\zconfig_vendor_common.c **** #ifndef AWSS_DISABLE_ENROLLEE
 1371              		.loc 1 461 9 is_stmt 1
 1372              	.LBB187:
 1373              	.LBB188:
 210:..\..\..\..\cloud\alicloud\src\services\dev_bind\os/os.h **** }
 1374              		.loc 2 210 5
 1375 01c4 2AC6     		sw	a0,12(sp)
 1376 01c6 97000000 		call	HAL_SleepMs
 1376      E7800000 
 1377              	.LVL113:
 1378              	.LBE188:
 1379              	.LBE187:
 463:C:/Users/stapi/OneDrive/Desktop/GD32VW553/V1_MQTT_OK/GD32VW55X_Wifi_BLE_SDK/GD32VW55x_RELEASE_V1.0.2/MSDK/cloud/alicloud/src/services/awss\zconfig_vendor_common.c **** #endif
 1380              		.loc 1 463 9
 1381 01ce 97000000 		call	awss_enrollee_broadcast_info
 1381      E7800000 
 1382              	.LVL114:
 465:C:/Users/stapi/OneDrive/Desktop/GD32VW553/V1_MQTT_OK/GD32VW55X_Wifi_BLE_SDK/GD32VW55x_RELEASE_V1.0.2/MSDK/cloud/alicloud/src/services/awss\zconfig_vendor_common.c **** #ifdef AWSS_SUPPORT_ADHA
 1383              		.loc 1 465 9
 1384              	.LBB189:
 1385              	.LBB190:
 210:..\..\..\..\cloud\alicloud\src\services\dev_bind\os/os.h **** }
 1386              		.loc 2 210 5
 1387 01d6 3245     		lw	a0,12(sp)
 1388 01d8 97000000 		call	HAL_SleepMs
 1388      E7800000 
 1389              	.LVL115:
 1390              	.LBE190:
 1391              	.LBE189:
 469:C:/Users/stapi/OneDrive/Desktop/GD32VW553/V1_MQTT_OK/GD32VW55X_Wifi_BLE_SDK/GD32VW55x_RELEASE_V1.0.2/MSDK/cloud/alicloud/src/services/awss\zconfig_vendor_common.c **** #ifdef AWSS_SUPPORT_SMARTCONFIG_NOTIFY
 1392              		.loc 1 469 9
 1393              	.LBB191:
 1394              	.LBB192:
 210:..\..\..\..\cloud\alicloud\src\services\dev_bind\os/os.h **** }
 1395              		.loc 2 210 5
 1396 01e0 3245     		lw	a0,12(sp)
 1397 01e2 97000000 		call	HAL_SleepMs
 1397      E7800000 
 1398              	.LVL116:
 211:..\..\..\..\cloud\alicloud\src\services\dev_bind\os/os.h **** 
 1399              		.loc 2 211 1 is_stmt 0
 1400 01ea 8DBD     		j	.L88
 1401              	.LVL117:
 1402              	.L102:
 1403              	.LBE192:
 1404              	.LBE191:
 1405              	.LBE204:
 495:C:/Users/stapi/OneDrive/Desktop/GD32VW553/V1_MQTT_OK/GD32VW55X_Wifi_BLE_SDK/GD32VW55x_RELEASE_V1.0.2/MSDK/cloud/alicloud/src/services/awss\zconfig_vendor_common.c **** #ifdef AWSS_SUPPORT_SMARTCONFIG_MCAST
 1406              		.loc 1 495 9 is_stmt 1
 1407              	.LBB205:
 1408              	.LBB206:
 210:..\..\..\..\cloud\alicloud\src\services\dev_bind\os/os.h **** }
 1409              		.loc 2 210 5
 1410 01ec 1305C012 		li	a0,300
 1411 01f0 97000000 		call	HAL_SleepMs
 1411      E7800000 
 1412              	.LVL118:
 1413              	.LBE206:
 1414              	.LBE205:
 501:C:/Users/stapi/OneDrive/Desktop/GD32VW553/V1_MQTT_OK/GD32VW55X_Wifi_BLE_SDK/GD32VW55x_RELEASE_V1.0.2/MSDK/cloud/alicloud/src/services/awss\zconfig_vendor_common.c ****             goto timeout_recving;               /* awss scan interrupt by user */
 1415              		.loc 1 501 9
 501:C:/Users/stapi/OneDrive/Desktop/GD32VW553/V1_MQTT_OK/GD32VW55X_Wifi_BLE_SDK/GD32VW55x_RELEASE_V1.0.2/MSDK/cloud/alicloud/src/services/awss\zconfig_vendor_common.c ****             goto timeout_recving;               /* awss scan interrupt by user */
 1416              		.loc 1 501 13 is_stmt 0
 1417 01f8 1C40     		lw	a5,0(s0)
 501:C:/Users/stapi/OneDrive/Desktop/GD32VW553/V1_MQTT_OK/GD32VW55X_Wifi_BLE_SDK/GD32VW55x_RELEASE_V1.0.2/MSDK/cloud/alicloud/src/services/awss\zconfig_vendor_common.c ****             goto timeout_recving;               /* awss scan interrupt by user */
 1418              		.loc 1 501 12
 1419 01fa 83C73702 		lbu	a5,35(a5)
 1420 01fe 63848707 		beq	a5,s8,.L98
 505:C:/Users/stapi/OneDrive/Desktop/GD32VW553/V1_MQTT_OK/GD32VW55X_Wifi_BLE_SDK/GD32VW55x_RELEASE_V1.0.2/MSDK/cloud/alicloud/src/services/awss\zconfig_vendor_common.c **** #endif
 1421              		.loc 1 505 9 is_stmt 1
 1422 0202 97000000 		call	aws_try_adjust_chan
 1422      E7800000 
 1423              	.LVL119:
 507:C:/Users/stapi/OneDrive/Desktop/GD32VW553/V1_MQTT_OK/GD32VW55X_Wifi_BLE_SDK/GD32VW55x_RELEASE_V1.0.2/MSDK/cloud/alicloud/src/services/awss\zconfig_vendor_common.c ****             goto timeout_recving;               /* awss scan timeout(typical 10min) */
 1424              		.loc 1 507 9
 507:C:/Users/stapi/OneDrive/Desktop/GD32VW553/V1_MQTT_OK/GD32VW55X_Wifi_BLE_SDK/GD32VW55x_RELEASE_V1.0.2/MSDK/cloud/alicloud/src/services/awss\zconfig_vendor_common.c ****             goto timeout_recving;               /* awss scan timeout(typical 10min) */
 1425              		.loc 1 507 13 is_stmt 0
 1426 020a 97000000 		call	aws_is_chnscan_timeout
 1426      E7800000 
 1427              	.LVL120:
 507:C:/Users/stapi/OneDrive/Desktop/GD32VW553/V1_MQTT_OK/GD32VW55X_Wifi_BLE_SDK/GD32VW55x_RELEASE_V1.0.2/MSDK/cloud/alicloud/src/services/awss\zconfig_vendor_common.c ****             goto timeout_recving;               /* awss scan timeout(typical 10min) */
 1428              		.loc 1 507 12
 1429 0212 630A9504 		beq	a0,s1,.L98
 510:C:/Users/stapi/OneDrive/Desktop/GD32VW553/V1_MQTT_OK/GD32VW55X_Wifi_BLE_SDK/GD32VW55x_RELEASE_V1.0.2/MSDK/cloud/alicloud/src/services/awss\zconfig_vendor_common.c ****             awss_debug("channel rescanning...");
 1430              		.loc 1 510 9 is_stmt 1
 510:C:/Users/stapi/OneDrive/Desktop/GD32VW553/V1_MQTT_OK/GD32VW55X_Wifi_BLE_SDK/GD32VW55x_RELEASE_V1.0.2/MSDK/cloud/alicloud/src/services/awss\zconfig_vendor_common.c ****             awss_debug("channel rescanning...");
 1431              		.loc 1 510 13 is_stmt 0
 1432 0216 1C40     		lw	a5,0(s0)
 510:C:/Users/stapi/OneDrive/Desktop/GD32VW553/V1_MQTT_OK/GD32VW55X_Wifi_BLE_SDK/GD32VW55x_RELEASE_V1.0.2/MSDK/cloud/alicloud/src/services/awss\zconfig_vendor_common.c ****             awss_debug("channel rescanning...");
 1433              		.loc 1 510 12
 1434 0218 83C70700 		lbu	a5,0(a5)
 1435 021c E39707EC 		bne	a5,zero,.L93
 511:C:/Users/stapi/OneDrive/Desktop/GD32VW553/V1_MQTT_OK/GD32VW55X_Wifi_BLE_SDK/GD32VW55x_RELEASE_V1.0.2/MSDK/cloud/alicloud/src/services/awss\zconfig_vendor_common.c ****             if (zconfig_data != NULL) {
 1436              		.loc 1 511 13 is_stmt 1
 1437 0220 37070000 		lui	a4,%hi(.LC10)
 1438 0224 13850900 		addi	a0,s3,%lo(.LC7)
 1439 0228 13070700 		addi	a4,a4,%lo(.LC10)
 1440 022c 9546     		li	a3,5
 1441 022e 1306F01F 		li	a2,511
 1442 0232 93050900 		addi	a1,s2,%lo(.LANCHOR14)
 1443 0236 97000000 		call	LITE_syslog
 1443      E7800000 
 1444              	.LVL121:
 512:C:/Users/stapi/OneDrive/Desktop/GD32VW553/V1_MQTT_OK/GD32VW55X_Wifi_BLE_SDK/GD32VW55x_RELEASE_V1.0.2/MSDK/cloud/alicloud/src/services/awss\zconfig_vendor_common.c ****                 void *temp_mutex = zc_mutex;
 1445              		.loc 1 512 13
 512:C:/Users/stapi/OneDrive/Desktop/GD32VW553/V1_MQTT_OK/GD32VW55X_Wifi_BLE_SDK/GD32VW55x_RELEASE_V1.0.2/MSDK/cloud/alicloud/src/services/awss\zconfig_vendor_common.c ****                 void *temp_mutex = zc_mutex;
 1446              		.loc 1 512 30 is_stmt 0
 1447 023e 03250A00 		lw	a0,%lo(zconfig_data)(s4)
 512:C:/Users/stapi/OneDrive/Desktop/GD32VW553/V1_MQTT_OK/GD32VW55X_Wifi_BLE_SDK/GD32VW55x_RELEASE_V1.0.2/MSDK/cloud/alicloud/src/services/awss\zconfig_vendor_common.c ****                 void *temp_mutex = zc_mutex;
 1448              		.loc 1 512 16
 1449 0242 19CD     		beq	a0,zero,.L100
 1450              	.LBB207:
 513:C:/Users/stapi/OneDrive/Desktop/GD32VW553/V1_MQTT_OK/GD32VW55X_Wifi_BLE_SDK/GD32VW55x_RELEASE_V1.0.2/MSDK/cloud/alicloud/src/services/awss\zconfig_vendor_common.c ****                 memset(zconfig_data, 0, sizeof(struct zconfig_data));
 1451              		.loc 1 513 17 is_stmt 1
 514:C:/Users/stapi/OneDrive/Desktop/GD32VW553/V1_MQTT_OK/GD32VW55X_Wifi_BLE_SDK/GD32VW55x_RELEASE_V1.0.2/MSDK/cloud/alicloud/src/services/awss\zconfig_vendor_common.c ****                 zc_mutex = temp_mutex;
 1452              		.loc 1 514 17 is_stmt 0
 1453 0244 13068054 		li	a2,1352
 1454 0248 8145     		li	a1,0
 513:C:/Users/stapi/OneDrive/Desktop/GD32VW553/V1_MQTT_OK/GD32VW55X_Wifi_BLE_SDK/GD32VW55x_RELEASE_V1.0.2/MSDK/cloud/alicloud/src/services/awss\zconfig_vendor_common.c ****                 memset(zconfig_data, 0, sizeof(struct zconfig_data));
 1455              		.loc 1 513 23
 1456 024a 83240554 		lw	s1,1344(a0)
 1457              	.LVL122:
 514:C:/Users/stapi/OneDrive/Desktop/GD32VW553/V1_MQTT_OK/GD32VW55X_Wifi_BLE_SDK/GD32VW55x_RELEASE_V1.0.2/MSDK/cloud/alicloud/src/services/awss\zconfig_vendor_common.c ****                 zc_mutex = temp_mutex;
 1458              		.loc 1 514 17 is_stmt 1
 1459 024e 97000000 		call	memset
 1459      E7800000 
 1460              	.LVL123:
 515:C:/Users/stapi/OneDrive/Desktop/GD32VW553/V1_MQTT_OK/GD32VW55X_Wifi_BLE_SDK/GD32VW55x_RELEASE_V1.0.2/MSDK/cloud/alicloud/src/services/awss\zconfig_vendor_common.c ****             } else {
 1461              		.loc 1 515 17
 515:C:/Users/stapi/OneDrive/Desktop/GD32VW553/V1_MQTT_OK/GD32VW55X_Wifi_BLE_SDK/GD32VW55x_RELEASE_V1.0.2/MSDK/cloud/alicloud/src/services/awss\zconfig_vendor_common.c ****             } else {
 1462              		.loc 1 515 26 is_stmt 0
 1463 0256 83270A00 		lw	a5,%lo(zconfig_data)(s4)
 1464 025a 23A09754 		sw	s1,1344(a5)
 1465              	.LBE207:
 520:C:/Users/stapi/OneDrive/Desktop/GD32VW553/V1_MQTT_OK/GD32VW55X_Wifi_BLE_SDK/GD32VW55x_RELEASE_V1.0.2/MSDK/cloud/alicloud/src/services/awss\zconfig_vendor_common.c ****         }
 1466              		.loc 1 520 13 is_stmt 1
 1467 025e CDB3     		j	.L87
 1468              	.LVL124:
 1469              	.L100:
 517:C:/Users/stapi/OneDrive/Desktop/GD32VW553/V1_MQTT_OK/GD32VW55X_Wifi_BLE_SDK/GD32VW55x_RELEASE_V1.0.2/MSDK/cloud/alicloud/src/services/awss\zconfig_vendor_common.c ****                 goto timeout_recving;           /* awss memory exception, interrupt and exit */
 1470              		.loc 1 517 17
 517:C:/Users/stapi/OneDrive/Desktop/GD32VW553/V1_MQTT_OK/GD32VW55X_Wifi_BLE_SDK/GD32VW55x_RELEASE_V1.0.2/MSDK/cloud/alicloud/src/services/awss\zconfig_vendor_common.c ****                 goto timeout_recving;           /* awss memory exception, interrupt and exit */
 1471              		.loc 1 517 26 is_stmt 0
 1472 0260 1C40     		lw	a5,0(s0)
 1473 0262 A3818703 		sb	s8,35(a5)
 518:C:/Users/stapi/OneDrive/Desktop/GD32VW553/V1_MQTT_OK/GD32VW55X_Wifi_BLE_SDK/GD32VW55x_RELEASE_V1.0.2/MSDK/cloud/alicloud/src/services/awss\zconfig_vendor_common.c ****             }
 1474              		.loc 1 518 17 is_stmt 1
 1475              	.L98:
 532:C:/Users/stapi/OneDrive/Desktop/GD32VW553/V1_MQTT_OK/GD32VW55X_Wifi_BLE_SDK/GD32VW55x_RELEASE_V1.0.2/MSDK/cloud/alicloud/src/services/awss\zconfig_vendor_common.c **** #ifdef AWSS_SUPPORT_SMARTCONFIG_MCAST
 1476              		.loc 1 532 5
 1477 0266 13870B00 		addi	a4,s7,%lo(.LC13)
 1478 026a 9546     		li	a3,5
 1479 026c 13064021 		li	a2,532
 1480 0270 93050900 		addi	a1,s2,%lo(.LANCHOR14)
 1481 0274 13850900 		addi	a0,s3,%lo(.LC7)
 1482 0278 97000000 		call	LITE_syslog
 1482      E7800000 
 1483              	.LVL125:
 540:C:/Users/stapi/OneDrive/Desktop/GD32VW553/V1_MQTT_OK/GD32VW55X_Wifi_BLE_SDK/GD32VW55x_RELEASE_V1.0.2/MSDK/cloud/alicloud/src/services/awss\zconfig_vendor_common.c ****         if (aws_stop == AWS_STOPPING) {
 1484              		.loc 1 540 5
 541:C:/Users/stapi/OneDrive/Desktop/GD32VW553/V1_MQTT_OK/GD32VW55X_Wifi_BLE_SDK/GD32VW55x_RELEASE_V1.0.2/MSDK/cloud/alicloud/src/services/awss\zconfig_vendor_common.c ****             break;                              /* awss scan interrupt by user */
 1485              		.loc 1 541 9
 541:C:/Users/stapi/OneDrive/Desktop/GD32VW553/V1_MQTT_OK/GD32VW55X_Wifi_BLE_SDK/GD32VW55x_RELEASE_V1.0.2/MSDK/cloud/alicloud/src/services/awss\zconfig_vendor_common.c ****             break;                              /* awss scan interrupt by user */
 1486              		.loc 1 541 13 is_stmt 0
 1487 0280 1C40     		lw	a5,0(s0)
 541:C:/Users/stapi/OneDrive/Desktop/GD32VW553/V1_MQTT_OK/GD32VW55X_Wifi_BLE_SDK/GD32VW55x_RELEASE_V1.0.2/MSDK/cloud/alicloud/src/services/awss\zconfig_vendor_common.c ****             break;                              /* awss scan interrupt by user */
 1488              		.loc 1 541 12
 1489 0282 03C73702 		lbu	a4,35(a5)
 1490 0286 9147     		li	a5,4
 1491 0288 6302F708 		beq	a4,a5,.L104
 544:C:/Users/stapi/OneDrive/Desktop/GD32VW553/V1_MQTT_OK/GD32VW55X_Wifi_BLE_SDK/GD32VW55x_RELEASE_V1.0.2/MSDK/cloud/alicloud/src/services/awss\zconfig_vendor_common.c ****             rescan_timer = HAL_Timer_Create("rescan", (void(*)(void *))rescan_monitor, NULL);
 1492              		.loc 1 544 9 is_stmt 1
 544:C:/Users/stapi/OneDrive/Desktop/GD32VW553/V1_MQTT_OK/GD32VW55X_Wifi_BLE_SDK/GD32VW55x_RELEASE_V1.0.2/MSDK/cloud/alicloud/src/services/awss\zconfig_vendor_common.c ****             rescan_timer = HAL_Timer_Create("rescan", (void(*)(void *))rescan_monitor, NULL);
 1493              		.loc 1 544 26 is_stmt 0
 1494 028c B7040000 		lui	s1,%hi(.LANCHOR15)
 544:C:/Users/stapi/OneDrive/Desktop/GD32VW553/V1_MQTT_OK/GD32VW55X_Wifi_BLE_SDK/GD32VW55x_RELEASE_V1.0.2/MSDK/cloud/alicloud/src/services/awss\zconfig_vendor_common.c ****             rescan_timer = HAL_Timer_Create("rescan", (void(*)(void *))rescan_monitor, NULL);
 1495              		.loc 1 544 12
 1496 0290 83A70400 		lw	a5,%lo(.LANCHOR15)(s1)
 1497 0294 93840400 		addi	s1,s1,%lo(.LANCHOR15)
 1498 0298 99EF     		bne	a5,zero,.L105
 545:C:/Users/stapi/OneDrive/Desktop/GD32VW553/V1_MQTT_OK/GD32VW55X_Wifi_BLE_SDK/GD32VW55x_RELEASE_V1.0.2/MSDK/cloud/alicloud/src/services/awss\zconfig_vendor_common.c ****         }
 1499              		.loc 1 545 13 is_stmt 1
 545:C:/Users/stapi/OneDrive/Desktop/GD32VW553/V1_MQTT_OK/GD32VW55X_Wifi_BLE_SDK/GD32VW55x_RELEASE_V1.0.2/MSDK/cloud/alicloud/src/services/awss\zconfig_vendor_common.c ****         }
 1500              		.loc 1 545 28 is_stmt 0
 1501 029a B7050000 		lui	a1,%hi(rescan_monitor)
 1502 029e 37050000 		lui	a0,%hi(.LC14)
 1503 02a2 0146     		li	a2,0
 1504 02a4 93850500 		addi	a1,a1,%lo(rescan_monitor)
 1505 02a8 13050500 		addi	a0,a0,%lo(.LC14)
 1506 02ac 97000000 		call	HAL_Timer_Create
 1506      E7800000 
 1507              	.LVL126:
 545:C:/Users/stapi/OneDrive/Desktop/GD32VW553/V1_MQTT_OK/GD32VW55X_Wifi_BLE_SDK/GD32VW55x_RELEASE_V1.0.2/MSDK/cloud/alicloud/src/services/awss\zconfig_vendor_common.c ****         }
 1508              		.loc 1 545 26
 1509 02b4 88C0     		sw	a0,0(s1)
 1510              	.L105:
 547:C:/Users/stapi/OneDrive/Desktop/GD32VW553/V1_MQTT_OK/GD32VW55X_Wifi_BLE_SDK/GD32VW55x_RELEASE_V1.0.2/MSDK/cloud/alicloud/src/services/awss\zconfig_vendor_common.c ****         HAL_Timer_Start(rescan_timer, RESCAN_MONITOR_TIMEOUT_MS);
 1511              		.loc 1 547 9 is_stmt 1
 1512 02b6 8840     		lw	a0,0(s1)
 550:C:/Users/stapi/OneDrive/Desktop/GD32VW553/V1_MQTT_OK/GD32VW55X_Wifi_BLE_SDK/GD32VW55x_RELEASE_V1.0.2/MSDK/cloud/alicloud/src/services/awss\zconfig_vendor_common.c ****             if (awss_get_config_press() ||
 1513              		.loc 1 550 33 is_stmt 0
 1514 02b8 370C0000 		lui	s8,%hi(.LANCHOR0)
 551:C:/Users/stapi/OneDrive/Desktop/GD32VW553/V1_MQTT_OK/GD32VW55X_Wifi_BLE_SDK/GD32VW55x_RELEASE_V1.0.2/MSDK/cloud/alicloud/src/services/awss\zconfig_vendor_common.c ****                 aws_stop == AWS_STOPPING) {     // user interrupt sleep
 1515              		.loc 1 551 41
 1516 02bc 114D     		li	s10,4
 547:C:/Users/stapi/OneDrive/Desktop/GD32VW553/V1_MQTT_OK/GD32VW55X_Wifi_BLE_SDK/GD32VW55x_RELEASE_V1.0.2/MSDK/cloud/alicloud/src/services/awss\zconfig_vendor_common.c ****         HAL_Timer_Start(rescan_timer, RESCAN_MONITOR_TIMEOUT_MS);
 1517              		.loc 1 547 9
 1518 02be 97000000 		call	HAL_Timer_Stop
 1518      E7800000 
 1519              	.LVL127:
 548:C:/Users/stapi/OneDrive/Desktop/GD32VW553/V1_MQTT_OK/GD32VW55X_Wifi_BLE_SDK/GD32VW55x_RELEASE_V1.0.2/MSDK/cloud/alicloud/src/services/awss\zconfig_vendor_common.c ****         os_awss_close_monitor();
 1520              		.loc 1 548 9 is_stmt 1
 1521 02c6 8840     		lw	a0,0(s1)
 1522 02c8 B7950400 		li	a1,299008
 1523 02cc 9385053E 		addi	a1,a1,992
 1524 02d0 97000000 		call	HAL_Timer_Start
 1524      E7800000 
 1525              	.LVL128:
 549:C:/Users/stapi/OneDrive/Desktop/GD32VW553/V1_MQTT_OK/GD32VW55X_Wifi_BLE_SDK/GD32VW55x_RELEASE_V1.0.2/MSDK/cloud/alicloud/src/services/awss\zconfig_vendor_common.c ****         while (rescan_available == 0) {
 1526              		.loc 1 549 9
 1527              	.LBB208:
 1528              	.LBB209:
 653:..\..\..\..\cloud\alicloud\src\services\dev_bind\os/os.h **** }
 1529              		.loc 2 653 5
 1530 02d8 97000000 		call	HAL_Awss_Close_Monitor
 1530      E7800000 
 1531              	.LVL129:
 1532              	.L106:
 1533              	.LBE209:
 1534              	.LBE208:
 550:C:/Users/stapi/OneDrive/Desktop/GD32VW553/V1_MQTT_OK/GD32VW55X_Wifi_BLE_SDK/GD32VW55x_RELEASE_V1.0.2/MSDK/cloud/alicloud/src/services/awss\zconfig_vendor_common.c ****             if (awss_get_config_press() ||
 1535              		.loc 1 550 15
 1536 02e0 83470C00 		lbu	a5,%lo(.LANCHOR0)(s8)
 1537 02e4 930C0C00 		addi	s9,s8,%lo(.LANCHOR0)
 1538 02e8 85E3     		bne	a5,zero,.L109
 551:C:/Users/stapi/OneDrive/Desktop/GD32VW553/V1_MQTT_OK/GD32VW55X_Wifi_BLE_SDK/GD32VW55x_RELEASE_V1.0.2/MSDK/cloud/alicloud/src/services/awss\zconfig_vendor_common.c ****                 aws_stop == AWS_STOPPING) {     // user interrupt sleep
 1539              		.loc 1 551 13
 551:C:/Users/stapi/OneDrive/Desktop/GD32VW553/V1_MQTT_OK/GD32VW55X_Wifi_BLE_SDK/GD32VW55x_RELEASE_V1.0.2/MSDK/cloud/alicloud/src/services/awss\zconfig_vendor_common.c ****                 aws_stop == AWS_STOPPING) {     // user interrupt sleep
 1540              		.loc 1 551 17 is_stmt 0
 1541 02ea 97000000 		call	awss_get_config_press
 1541      E7800000 
 1542              	.LVL130:
 551:C:/Users/stapi/OneDrive/Desktop/GD32VW553/V1_MQTT_OK/GD32VW55X_Wifi_BLE_SDK/GD32VW55x_RELEASE_V1.0.2/MSDK/cloud/alicloud/src/services/awss\zconfig_vendor_common.c ****                 aws_stop == AWS_STOPPING) {     // user interrupt sleep
 1543              		.loc 1 551 16
 1544 02f2 11E5     		bne	a0,zero,.L107
 552:C:/Users/stapi/OneDrive/Desktop/GD32VW553/V1_MQTT_OK/GD32VW55X_Wifi_BLE_SDK/GD32VW55x_RELEASE_V1.0.2/MSDK/cloud/alicloud/src/services/awss\zconfig_vendor_common.c ****                 HAL_Timer_Stop(rescan_timer);
 1545              		.loc 1 552 17 discriminator 1
 1546 02f4 1C40     		lw	a5,0(s0)
 551:C:/Users/stapi/OneDrive/Desktop/GD32VW553/V1_MQTT_OK/GD32VW55X_Wifi_BLE_SDK/GD32VW55x_RELEASE_V1.0.2/MSDK/cloud/alicloud/src/services/awss\zconfig_vendor_common.c ****                 aws_stop == AWS_STOPPING) {     // user interrupt sleep
 1547              		.loc 1 551 41 discriminator 1
 1548 02f6 83C73702 		lbu	a5,35(a5)
 1549 02fa 6393A705 		bne	a5,s10,.L108
 1550              	.L107:
 553:C:/Users/stapi/OneDrive/Desktop/GD32VW553/V1_MQTT_OK/GD32VW55X_Wifi_BLE_SDK/GD32VW55x_RELEASE_V1.0.2/MSDK/cloud/alicloud/src/services/awss\zconfig_vendor_common.c ****                 break;
 1551              		.loc 1 553 17 is_stmt 1
 1552 02fe 8840     		lw	a0,0(s1)
 1553 0300 97000000 		call	HAL_Timer_Stop
 1553      E7800000 
 1554              	.LVL131:
 554:C:/Users/stapi/OneDrive/Desktop/GD32VW553/V1_MQTT_OK/GD32VW55X_Wifi_BLE_SDK/GD32VW55x_RELEASE_V1.0.2/MSDK/cloud/alicloud/src/services/awss\zconfig_vendor_common.c ****             }
 1555              		.loc 1 554 17
 1556              	.L109:
 558:C:/Users/stapi/OneDrive/Desktop/GD32VW553/V1_MQTT_OK/GD32VW55X_Wifi_BLE_SDK/GD32VW55x_RELEASE_V1.0.2/MSDK/cloud/alicloud/src/services/awss\zconfig_vendor_common.c ****     } while (0);
 1557              		.loc 1 558 9
 558:C:/Users/stapi/OneDrive/Desktop/GD32VW553/V1_MQTT_OK/GD32VW55X_Wifi_BLE_SDK/GD32VW55x_RELEASE_V1.0.2/MSDK/cloud/alicloud/src/services/awss\zconfig_vendor_common.c ****     } while (0);
 1558              		.loc 1 558 26 is_stmt 0
 1559 0308 23800C00 		sb	zero,0(s9)
 1560              	.L104:
 559:C:/Users/stapi/OneDrive/Desktop/GD32VW553/V1_MQTT_OK/GD32VW55X_Wifi_BLE_SDK/GD32VW55x_RELEASE_V1.0.2/MSDK/cloud/alicloud/src/services/awss\zconfig_vendor_common.c **** 
 1561              		.loc 1 559 13 is_stmt 1
 562:C:/Users/stapi/OneDrive/Desktop/GD32VW553/V1_MQTT_OK/GD32VW55X_Wifi_BLE_SDK/GD32VW55x_RELEASE_V1.0.2/MSDK/cloud/alicloud/src/services/awss\zconfig_vendor_common.c ****         aws_stop = AWS_STOPPED;
 1562              		.loc 1 562 5
 562:C:/Users/stapi/OneDrive/Desktop/GD32VW553/V1_MQTT_OK/GD32VW55X_Wifi_BLE_SDK/GD32VW55x_RELEASE_V1.0.2/MSDK/cloud/alicloud/src/services/awss\zconfig_vendor_common.c ****         aws_stop = AWS_STOPPED;
 1563              		.loc 1 562 9 is_stmt 0
 1564 030c 1C40     		lw	a5,0(s0)
 562:C:/Users/stapi/OneDrive/Desktop/GD32VW553/V1_MQTT_OK/GD32VW55X_Wifi_BLE_SDK/GD32VW55x_RELEASE_V1.0.2/MSDK/cloud/alicloud/src/services/awss\zconfig_vendor_common.c ****         aws_stop = AWS_STOPPED;
 1565              		.loc 1 562 8
 1566 030e 1147     		li	a4,4
 1567 0310 83C63702 		lbu	a3,35(a5)
 1568 0314 639DE602 		bne	a3,a4,.L111
 563:C:/Users/stapi/OneDrive/Desktop/GD32VW553/V1_MQTT_OK/GD32VW55X_Wifi_BLE_SDK/GD32VW55x_RELEASE_V1.0.2/MSDK/cloud/alicloud/src/services/awss\zconfig_vendor_common.c ****         goto success;
 1569              		.loc 1 563 9 is_stmt 1
 563:C:/Users/stapi/OneDrive/Desktop/GD32VW553/V1_MQTT_OK/GD32VW55X_Wifi_BLE_SDK/GD32VW55x_RELEASE_V1.0.2/MSDK/cloud/alicloud/src/services/awss\zconfig_vendor_common.c ****         goto success;
 1570              		.loc 1 563 18 is_stmt 0
 1571 0318 1547     		li	a4,5
 1572 031a A381E702 		sb	a4,35(a5)
 564:C:/Users/stapi/OneDrive/Desktop/GD32VW553/V1_MQTT_OK/GD32VW55X_Wifi_BLE_SDK/GD32VW55x_RELEASE_V1.0.2/MSDK/cloud/alicloud/src/services/awss\zconfig_vendor_common.c ****     }
 1573              		.loc 1 564 9 is_stmt 1
 1574 031e 09B5     		j	.L103
 1575              	.L90:
 530:C:/Users/stapi/OneDrive/Desktop/GD32VW553/V1_MQTT_OK/GD32VW55X_Wifi_BLE_SDK/GD32VW55x_RELEASE_V1.0.2/MSDK/cloud/alicloud/src/services/awss\zconfig_vendor_common.c **** timeout_recving:
 1576              		.loc 1 530 5
 1577 0320 37070000 		lui	a4,%hi(.LC12)
 1578 0324 13070700 		addi	a4,a4,%lo(.LC12)
 1579 0328 9546     		li	a3,5
 1580 032a 13062021 		li	a2,530
 1581 032e 93050900 		addi	a1,s2,%lo(.LANCHOR14)
 1582 0332 13850900 		addi	a0,s3,%lo(.LC7)
 1583 0336 97000000 		call	LITE_syslog
 1583      E7800000 
 1584              	.LVL132:
 1585 033e 25B7     		j	.L98
 1586              	.L108:
 556:C:/Users/stapi/OneDrive/Desktop/GD32VW553/V1_MQTT_OK/GD32VW55X_Wifi_BLE_SDK/GD32VW55x_RELEASE_V1.0.2/MSDK/cloud/alicloud/src/services/awss\zconfig_vendor_common.c ****         }
 1587              		.loc 1 556 13
 1588              	.LVL133:
 1589              	.LBB210:
 1590              	.LBB211:
 210:..\..\..\..\cloud\alicloud\src\services\dev_bind\os/os.h **** }
 1591              		.loc 2 210 5
 1592 0340 1305800C 		li	a0,200
 1593 0344 97000000 		call	HAL_SleepMs
 1593      E7800000 
 1594              	.LVL134:
 211:..\..\..\..\cloud\alicloud\src\services\dev_bind\os/os.h **** 
 1595              		.loc 2 211 1 is_stmt 0
 1596 034c 51BF     		j	.L106
 1597              	.LVL135:
 1598              	.L111:
 1599              	.LBE211:
 1600              	.LBE210:
 567:C:/Users/stapi/OneDrive/Desktop/GD32VW553/V1_MQTT_OK/GD32VW55X_Wifi_BLE_SDK/GD32VW55x_RELEASE_V1.0.2/MSDK/cloud/alicloud/src/services/awss\zconfig_vendor_common.c **** #ifdef AWSS_SUPPORT_APLIST
 1601              		.loc 1 567 5 is_stmt 1
 567:C:/Users/stapi/OneDrive/Desktop/GD32VW553/V1_MQTT_OK/GD32VW55X_Wifi_BLE_SDK/GD32VW55x_RELEASE_V1.0.2/MSDK/cloud/alicloud/src/services/awss\zconfig_vendor_common.c **** #ifdef AWSS_SUPPORT_APLIST
 1602              		.loc 1 567 15 is_stmt 0
 1603 034e 23800700 		sb	zero,0(a5)
 569:C:/Users/stapi/OneDrive/Desktop/GD32VW553/V1_MQTT_OK/GD32VW55X_Wifi_BLE_SDK/GD32VW55x_RELEASE_V1.0.2/MSDK/cloud/alicloud/src/services/awss\zconfig_vendor_common.c ****         awss_clear_aplist();
 1604              		.loc 1 569 5 is_stmt 1
 569:C:/Users/stapi/OneDrive/Desktop/GD32VW553/V1_MQTT_OK/GD32VW55X_Wifi_BLE_SDK/GD32VW55x_RELEASE_V1.0.2/MSDK/cloud/alicloud/src/services/awss\zconfig_vendor_common.c ****         awss_clear_aplist();
 1605              		.loc 1 569 9 is_stmt 0
 1606 0352 97000000 		call	awss_is_ready_clr_aplist
 1606      E7800000 
 1607              	.LVL136:
 569:C:/Users/stapi/OneDrive/Desktop/GD32VW553/V1_MQTT_OK/GD32VW55X_Wifi_BLE_SDK/GD32VW55x_RELEASE_V1.0.2/MSDK/cloud/alicloud/src/services/awss\zconfig_vendor_common.c ****         awss_clear_aplist();
 1608              		.loc 1 569 8
 1609 035a 09C5     		beq	a0,zero,.L112
 570:C:/Users/stapi/OneDrive/Desktop/GD32VW553/V1_MQTT_OK/GD32VW55X_Wifi_BLE_SDK/GD32VW55x_RELEASE_V1.0.2/MSDK/cloud/alicloud/src/services/awss\zconfig_vendor_common.c ****     }
 1610              		.loc 1 570 9 is_stmt 1
 1611 035c 97000000 		call	awss_clear_aplist
 1611      E7800000 
 1612              	.LVL137:
 1613              	.L112:
 573:C:/Users/stapi/OneDrive/Desktop/GD32VW553/V1_MQTT_OK/GD32VW55X_Wifi_BLE_SDK/GD32VW55x_RELEASE_V1.0.2/MSDK/cloud/alicloud/src/services/awss\zconfig_vendor_common.c ****     os_awss_open_monitor(aws_80211_frame_handler);
 1614              		.loc 1 573 5
 1615 0364 0440     		lw	s1,0(s0)
 573:C:/Users/stapi/OneDrive/Desktop/GD32VW553/V1_MQTT_OK/GD32VW55X_Wifi_BLE_SDK/GD32VW55x_RELEASE_V1.0.2/MSDK/cloud/alicloud/src/services/awss\zconfig_vendor_common.c ****     os_awss_open_monitor(aws_80211_frame_handler);
 1616              		.loc 1 573 27 is_stmt 0
 1617 0366 97000000 		call	os_get_time_ms
 1617      E7800000 
 1618              	.LVL138:
 573:C:/Users/stapi/OneDrive/Desktop/GD32VW553/V1_MQTT_OK/GD32VW55X_Wifi_BLE_SDK/GD32VW55x_RELEASE_V1.0.2/MSDK/cloud/alicloud/src/services/awss\zconfig_vendor_common.c ****     os_awss_open_monitor(aws_80211_frame_handler);
 1619              		.loc 1 573 25
 1620 036e 88D4     		sw	a0,40(s1)
 574:C:/Users/stapi/OneDrive/Desktop/GD32VW553/V1_MQTT_OK/GD32VW55X_Wifi_BLE_SDK/GD32VW55x_RELEASE_V1.0.2/MSDK/cloud/alicloud/src/services/awss\zconfig_vendor_common.c ****     goto rescanning;
 1621              		.loc 1 574 5 is_stmt 1
 1622              	.LBB212:
 1623              	.LBB183:
 640:..\..\..\..\cloud\alicloud\src\services\dev_bind\os/os.h **** }
 1624              		.loc 2 640 5
 1625 0370 13850A00 		addi	a0,s5,%lo(aws_80211_frame_handler)
 1626 0374 97000000 		call	HAL_Awss_Open_Monitor
 1626      E7800000 
 1627              	.LVL139:
 1628              	.LBE183:
 1629              	.LBE212:
 575:C:/Users/stapi/OneDrive/Desktop/GD32VW553/V1_MQTT_OK/GD32VW55X_Wifi_BLE_SDK/GD32VW55x_RELEASE_V1.0.2/MSDK/cloud/alicloud/src/services/awss\zconfig_vendor_common.c **** 
 1630              		.loc 1 575 5
 1631 037c D1B1     		j	.L87
 1632              	.L113:
 600:C:/Users/stapi/OneDrive/Desktop/GD32VW553/V1_MQTT_OK/GD32VW55X_Wifi_BLE_SDK/GD32VW55x_RELEASE_V1.0.2/MSDK/cloud/alicloud/src/services/awss\zconfig_vendor_common.c ****         zconfig_force_destroy();
 1633              		.loc 1 600 9
 1634 037e 37060000 		lui	a2,%hi(.LC17)
 1635 0382 13060600 		addi	a2,a2,%lo(.LC17)
 1636 0386 FDBB     		j	.L127
 1637              		.cfi_endproc
 1638              	.LFE60:
 1640              		.section	.text.aws_start,"ax",@progbits
 1641              		.align	1
 1642              		.globl	aws_start
 1644              	aws_start:
 1645              	.LFB63:
 635:C:/Users/stapi/OneDrive/Desktop/GD32VW553/V1_MQTT_OK/GD32VW55X_Wifi_BLE_SDK/GD32VW55x_RELEASE_V1.0.2/MSDK/cloud/alicloud/src/services/awss\zconfig_vendor_common.c **** 
 636:C:/Users/stapi/OneDrive/Desktop/GD32VW553/V1_MQTT_OK/GD32VW55X_Wifi_BLE_SDK/GD32VW55x_RELEASE_V1.0.2/MSDK/cloud/alicloud/src/services/awss\zconfig_vendor_common.c **** void aws_start(char *pk, char *dn, char *ds, char *ps)
 637:C:/Users/stapi/OneDrive/Desktop/GD32VW553/V1_MQTT_OK/GD32VW55X_Wifi_BLE_SDK/GD32VW55x_RELEASE_V1.0.2/MSDK/cloud/alicloud/src/services/awss\zconfig_vendor_common.c **** {
 1646              		.loc 1 637 1
 1647              		.cfi_startproc
 1648              	.LVL140:
 1649 0000 17030000 		call	t0,__riscv_save_2
 1649      E7020300 
 1650              		.cfi_offset 9, -12
 1651              		.cfi_offset 8, -8
 1652              		.cfi_offset 1, -4
 1653              		.cfi_def_cfa_offset 16
 638:C:/Users/stapi/OneDrive/Desktop/GD32VW553/V1_MQTT_OK/GD32VW55X_Wifi_BLE_SDK/GD32VW55x_RELEASE_V1.0.2/MSDK/cloud/alicloud/src/services/awss\zconfig_vendor_common.c ****     aws_info = os_zalloc(sizeof(struct aws_info));
 1654              		.loc 1 638 5
 1655              	.LVL141:
 1656              	.LBB219:
 1657              	.LBB220:
 408:..\..\..\..\cloud\alicloud\src\services\dev_bind\os/os.h ****     if (ptr != NULL) {
 1658              		.loc 2 408 5
 1659              	.LBB221:
 1660              	.LBB222:
 380:..\..\..\..\cloud\alicloud\src\services\dev_bind\os/os.h **** }
 1661              		.loc 2 380 5
 380:..\..\..\..\cloud\alicloud\src\services\dev_bind\os/os.h **** }
 1662              		.loc 2 380 12 is_stmt 0
 1663 0008 13050003 		li	a0,48
 1664              	.LVL142:
 1665 000c 97000000 		call	HAL_Malloc
 1665      E7800000 
 1666              	.LVL143:
 1667 0014 2A84     		mv	s0,a0
 1668              	.LVL144:
 1669              	.LBE222:
 1670              	.LBE221:
 409:..\..\..\..\cloud\alicloud\src\services\dev_bind\os/os.h ****         memset(ptr, 0, size);
 1671              		.loc 2 409 5 is_stmt 1
 409:..\..\..\..\cloud\alicloud\src\services\dev_bind\os/os.h ****         memset(ptr, 0, size);
 1672              		.loc 2 409 8 is_stmt 0
 1673 0016 01C9     		beq	a0,zero,.L129
 410:..\..\..\..\cloud\alicloud\src\services\dev_bind\os/os.h ****     }
 1674              		.loc 2 410 9 is_stmt 1
 1675 0018 13060003 		li	a2,48
 1676 001c 8145     		li	a1,0
 1677 001e 97000000 		call	memset
 1677      E7800000 
 1678              	.LVL145:
 1679              	.L129:
 412:..\..\..\..\cloud\alicloud\src\services\dev_bind\os/os.h **** }
 1680              		.loc 2 412 5
 1681              	.LBE220:
 1682              	.LBE219:
 1683              		.loc 1 638 14 is_stmt 0
 1684 0026 B7040000 		lui	s1,%hi(.LANCHOR2)
 1685 002a 93840400 		addi	s1,s1,%lo(.LANCHOR2)
 1686 002e 80C0     		sw	s0,0(s1)
 639:C:/Users/stapi/OneDrive/Desktop/GD32VW553/V1_MQTT_OK/GD32VW55X_Wifi_BLE_SDK/GD32VW55x_RELEASE_V1.0.2/MSDK/cloud/alicloud/src/services/awss\zconfig_vendor_common.c ****     if (!aws_info) {
 1687              		.loc 1 639 5 is_stmt 1
 1688              		.loc 1 639 8 is_stmt 0
 1689 0030 5DC8     		beq	s0,zero,.L128
 640:C:/Users/stapi/OneDrive/Desktop/GD32VW553/V1_MQTT_OK/GD32VW55X_Wifi_BLE_SDK/GD32VW55x_RELEASE_V1.0.2/MSDK/cloud/alicloud/src/services/awss\zconfig_vendor_common.c ****         return;
 641:C:/Users/stapi/OneDrive/Desktop/GD32VW553/V1_MQTT_OK/GD32VW55X_Wifi_BLE_SDK/GD32VW55x_RELEASE_V1.0.2/MSDK/cloud/alicloud/src/services/awss\zconfig_vendor_common.c ****     }
 642:C:/Users/stapi/OneDrive/Desktop/GD32VW553/V1_MQTT_OK/GD32VW55X_Wifi_BLE_SDK/GD32VW55x_RELEASE_V1.0.2/MSDK/cloud/alicloud/src/services/awss\zconfig_vendor_common.c ****     memset(aws_info, 0, sizeof(struct aws_info));
 1690              		.loc 1 642 5 is_stmt 1
 1691 0032 13060003 		li	a2,48
 1692 0036 8145     		li	a1,0
 1693 0038 2285     		mv	a0,s0
 1694 003a 97000000 		call	memset
 1694      E7800000 
 1695              	.LVL146:
 643:C:/Users/stapi/OneDrive/Desktop/GD32VW553/V1_MQTT_OK/GD32VW55X_Wifi_BLE_SDK/GD32VW55x_RELEASE_V1.0.2/MSDK/cloud/alicloud/src/services/awss\zconfig_vendor_common.c **** 
 644:C:/Users/stapi/OneDrive/Desktop/GD32VW553/V1_MQTT_OK/GD32VW55X_Wifi_BLE_SDK/GD32VW55x_RELEASE_V1.0.2/MSDK/cloud/alicloud/src/services/awss\zconfig_vendor_common.c ****     aws_state = AWS_SCANNING;
 1696              		.loc 1 644 5
 1697 0042 8840     		lw	a0,0(s1)
 645:C:/Users/stapi/OneDrive/Desktop/GD32VW553/V1_MQTT_OK/GD32VW55X_Wifi_BLE_SDK/GD32VW55x_RELEASE_V1.0.2/MSDK/cloud/alicloud/src/services/awss\zconfig_vendor_common.c **** 
 646:C:/Users/stapi/OneDrive/Desktop/GD32VW553/V1_MQTT_OK/GD32VW55X_Wifi_BLE_SDK/GD32VW55x_RELEASE_V1.0.2/MSDK/cloud/alicloud/src/services/awss\zconfig_vendor_common.c ****     /* start from -1 */
 647:C:/Users/stapi/OneDrive/Desktop/GD32VW553/V1_MQTT_OK/GD32VW55X_Wifi_BLE_SDK/GD32VW55x_RELEASE_V1.0.2/MSDK/cloud/alicloud/src/services/awss\zconfig_vendor_common.c ****     aws_chn_index = 0xff;
 1698              		.loc 1 647 19 is_stmt 0
 1699 0044 7D54     		li	s0,-1
 1700              	.LVL147:
 648:C:/Users/stapi/OneDrive/Desktop/GD32VW553/V1_MQTT_OK/GD32VW55X_Wifi_BLE_SDK/GD32VW55x_RELEASE_V1.0.2/MSDK/cloud/alicloud/src/services/awss\zconfig_vendor_common.c ****     memcpy(aws_chn_list, wlan_fixed_scanning_channels,
 1701              		.loc 1 648 5
 1702 0046 B7050000 		lui	a1,%hi(wlan_fixed_scanning_channels)
 644:C:/Users/stapi/OneDrive/Desktop/GD32VW553/V1_MQTT_OK/GD32VW55X_Wifi_BLE_SDK/GD32VW55x_RELEASE_V1.0.2/MSDK/cloud/alicloud/src/services/awss\zconfig_vendor_common.c **** 
 1703              		.loc 1 644 15
 1704 004a 23000500 		sb	zero,0(a0)
 647:C:/Users/stapi/OneDrive/Desktop/GD32VW553/V1_MQTT_OK/GD32VW55X_Wifi_BLE_SDK/GD32VW55x_RELEASE_V1.0.2/MSDK/cloud/alicloud/src/services/awss\zconfig_vendor_common.c ****     memcpy(aws_chn_list, wlan_fixed_scanning_channels,
 1705              		.loc 1 647 5 is_stmt 1
 647:C:/Users/stapi/OneDrive/Desktop/GD32VW553/V1_MQTT_OK/GD32VW55X_Wifi_BLE_SDK/GD32VW55x_RELEASE_V1.0.2/MSDK/cloud/alicloud/src/services/awss\zconfig_vendor_common.c ****     memcpy(aws_chn_list, wlan_fixed_scanning_channels,
 1706              		.loc 1 647 19 is_stmt 0
 1707 004e 23018500 		sb	s0,2(a0)
 1708              		.loc 1 648 5 is_stmt 1
 1709 0052 4146     		li	a2,16
 1710 0054 93850500 		addi	a1,a1,%lo(wlan_fixed_scanning_channels)
 1711 0058 1105     		addi	a0,a0,4
 1712 005a 97000000 		call	memcpy
 1712      E7800000 
 1713              	.LVL148:
 649:C:/Users/stapi/OneDrive/Desktop/GD32VW553/V1_MQTT_OK/GD32VW55X_Wifi_BLE_SDK/GD32VW55x_RELEASE_V1.0.2/MSDK/cloud/alicloud/src/services/awss\zconfig_vendor_common.c ****            sizeof(wlan_fixed_scanning_channels));
 650:C:/Users/stapi/OneDrive/Desktop/GD32VW553/V1_MQTT_OK/GD32VW55X_Wifi_BLE_SDK/GD32VW55x_RELEASE_V1.0.2/MSDK/cloud/alicloud/src/services/awss\zconfig_vendor_common.c **** 
 651:C:/Users/stapi/OneDrive/Desktop/GD32VW553/V1_MQTT_OK/GD32VW55X_Wifi_BLE_SDK/GD32VW55x_RELEASE_V1.0.2/MSDK/cloud/alicloud/src/services/awss\zconfig_vendor_common.c ****     memset(aws_result_ssid, 0, sizeof(aws_result_ssid));
 1714              		.loc 1 651 5
 1715 0062 37050000 		lui	a0,%hi(.LANCHOR6)
 1716 0066 13062002 		li	a2,34
 1717 006a 8145     		li	a1,0
 1718 006c 13050500 		addi	a0,a0,%lo(.LANCHOR6)
 1719 0070 97000000 		call	memset
 1719      E7800000 
 1720              	.LVL149:
 652:C:/Users/stapi/OneDrive/Desktop/GD32VW553/V1_MQTT_OK/GD32VW55X_Wifi_BLE_SDK/GD32VW55x_RELEASE_V1.0.2/MSDK/cloud/alicloud/src/services/awss\zconfig_vendor_common.c ****     memset(aws_result_passwd, 0, sizeof(aws_result_passwd));
 1721              		.loc 1 652 5
 1722 0078 37050000 		lui	a0,%hi(.LANCHOR7)
 1723 007c 13062004 		li	a2,66
 1724 0080 8145     		li	a1,0
 1725 0082 13050500 		addi	a0,a0,%lo(.LANCHOR7)
 1726 0086 97000000 		call	memset
 1726      E7800000 
 1727              	.LVL150:
 653:C:/Users/stapi/OneDrive/Desktop/GD32VW553/V1_MQTT_OK/GD32VW55X_Wifi_BLE_SDK/GD32VW55x_RELEASE_V1.0.2/MSDK/cloud/alicloud/src/services/awss\zconfig_vendor_common.c ****     memset(aws_result_bssid, 0, sizeof(aws_result_bssid));
 1728              		.loc 1 653 5
 1729 008e B7070000 		lui	a5,%hi(.LANCHOR8)
 1730 0092 93870700 		addi	a5,a5,%lo(.LANCHOR8)
 1731 0096 23A00700 		sw	zero,0(a5)
 1732 009a 23920700 		sh	zero,4(a5)
 654:C:/Users/stapi/OneDrive/Desktop/GD32VW553/V1_MQTT_OK/GD32VW55X_Wifi_BLE_SDK/GD32VW55x_RELEASE_V1.0.2/MSDK/cloud/alicloud/src/services/awss\zconfig_vendor_common.c ****     aws_result_auth = ZC_AUTH_TYPE_INVALID;
 1733              		.loc 1 654 5
 1734              		.loc 1 654 21 is_stmt 0
 1735 009e B7070000 		lui	a5,%hi(.LANCHOR9)
 1736 00a2 23808700 		sb	s0,%lo(.LANCHOR9)(a5)
 655:C:/Users/stapi/OneDrive/Desktop/GD32VW553/V1_MQTT_OK/GD32VW55X_Wifi_BLE_SDK/GD32VW55x_RELEASE_V1.0.2/MSDK/cloud/alicloud/src/services/awss\zconfig_vendor_common.c ****     aws_result_encry = ZC_ENC_TYPE_INVALID;
 1737              		.loc 1 655 5 is_stmt 1
 1738              		.loc 1 655 22 is_stmt 0
 1739 00a6 B7070000 		lui	a5,%hi(.LANCHOR10)
 1740 00aa 23808700 		sb	s0,%lo(.LANCHOR10)(a5)
 656:C:/Users/stapi/OneDrive/Desktop/GD32VW553/V1_MQTT_OK/GD32VW55X_Wifi_BLE_SDK/GD32VW55x_RELEASE_V1.0.2/MSDK/cloud/alicloud/src/services/awss\zconfig_vendor_common.c ****     aws_result_channel = 0;
 1741              		.loc 1 656 5 is_stmt 1
 1742              		.loc 1 656 24 is_stmt 0
 1743 00ae B7070000 		lui	a5,%hi(.LANCHOR11)
 1744 00b2 23800700 		sb	zero,%lo(.LANCHOR11)(a5)
 657:C:/Users/stapi/OneDrive/Desktop/GD32VW553/V1_MQTT_OK/GD32VW55X_Wifi_BLE_SDK/GD32VW55x_RELEASE_V1.0.2/MSDK/cloud/alicloud/src/services/awss\zconfig_vendor_common.c **** 
 658:C:/Users/stapi/OneDrive/Desktop/GD32VW553/V1_MQTT_OK/GD32VW55X_Wifi_BLE_SDK/GD32VW55x_RELEASE_V1.0.2/MSDK/cloud/alicloud/src/services/awss\zconfig_vendor_common.c ****     zconfig_init();
 1745              		.loc 1 658 5 is_stmt 1
 1746 00b6 97000000 		call	zconfig_init
 1746      E7800000 
 1747              	.LVL151:
 659:C:/Users/stapi/OneDrive/Desktop/GD32VW553/V1_MQTT_OK/GD32VW55X_Wifi_BLE_SDK/GD32VW55x_RELEASE_V1.0.2/MSDK/cloud/alicloud/src/services/awss\zconfig_vendor_common.c **** #ifdef AWSS_SUPPORT_APLIST
 660:C:/Users/stapi/OneDrive/Desktop/GD32VW553/V1_MQTT_OK/GD32VW55X_Wifi_BLE_SDK/GD32VW55x_RELEASE_V1.0.2/MSDK/cloud/alicloud/src/services/awss\zconfig_vendor_common.c ****     awss_open_aplist_monitor();
 1748              		.loc 1 660 5
 1749 00be 97000000 		call	awss_open_aplist_monitor
 1749      E7800000 
 1750              	.LVL152:
 661:C:/Users/stapi/OneDrive/Desktop/GD32VW553/V1_MQTT_OK/GD32VW55X_Wifi_BLE_SDK/GD32VW55x_RELEASE_V1.0.2/MSDK/cloud/alicloud/src/services/awss\zconfig_vendor_common.c **** #endif
 662:C:/Users/stapi/OneDrive/Desktop/GD32VW553/V1_MQTT_OK/GD32VW55X_Wifi_BLE_SDK/GD32VW55x_RELEASE_V1.0.2/MSDK/cloud/alicloud/src/services/awss\zconfig_vendor_common.c **** 
 663:C:/Users/stapi/OneDrive/Desktop/GD32VW553/V1_MQTT_OK/GD32VW55X_Wifi_BLE_SDK/GD32VW55x_RELEASE_V1.0.2/MSDK/cloud/alicloud/src/services/awss\zconfig_vendor_common.c ****     os_awss_open_monitor(aws_80211_frame_handler);
 1751              		.loc 1 663 5
 1752              	.LBB223:
 1753              	.LBB224:
 640:..\..\..\..\cloud\alicloud\src\services\dev_bind\os/os.h **** }
 1754              		.loc 2 640 5
 1755 00c6 37050000 		lui	a0,%hi(aws_80211_frame_handler)
 1756 00ca 13050500 		addi	a0,a0,%lo(aws_80211_frame_handler)
 1757 00ce 97000000 		call	HAL_Awss_Open_Monitor
 1757      E7800000 
 1758              	.LVL153:
 1759              	.LBE224:
 1760              	.LBE223:
 664:C:/Users/stapi/OneDrive/Desktop/GD32VW553/V1_MQTT_OK/GD32VW55X_Wifi_BLE_SDK/GD32VW55x_RELEASE_V1.0.2/MSDK/cloud/alicloud/src/services/awss\zconfig_vendor_common.c **** 
 665:C:/Users/stapi/OneDrive/Desktop/GD32VW553/V1_MQTT_OK/GD32VW55X_Wifi_BLE_SDK/GD32VW55x_RELEASE_V1.0.2/MSDK/cloud/alicloud/src/services/awss\zconfig_vendor_common.c **** #ifndef AWSS_DISABLE_ENROLLEE
 666:C:/Users/stapi/OneDrive/Desktop/GD32VW553/V1_MQTT_OK/GD32VW55X_Wifi_BLE_SDK/GD32VW55x_RELEASE_V1.0.2/MSDK/cloud/alicloud/src/services/awss\zconfig_vendor_common.c ****     awss_enrollee_init_info();
 1761              		.loc 1 666 5
 1762 00d6 97000000 		call	awss_enrollee_init_info
 1762      E7800000 
 1763              	.LVL154:
 667:C:/Users/stapi/OneDrive/Desktop/GD32VW553/V1_MQTT_OK/GD32VW55X_Wifi_BLE_SDK/GD32VW55x_RELEASE_V1.0.2/MSDK/cloud/alicloud/src/services/awss\zconfig_vendor_common.c **** #endif
 668:C:/Users/stapi/OneDrive/Desktop/GD32VW553/V1_MQTT_OK/GD32VW55X_Wifi_BLE_SDK/GD32VW55x_RELEASE_V1.0.2/MSDK/cloud/alicloud/src/services/awss\zconfig_vendor_common.c **** 
 669:C:/Users/stapi/OneDrive/Desktop/GD32VW553/V1_MQTT_OK/GD32VW55X_Wifi_BLE_SDK/GD32VW55x_RELEASE_V1.0.2/MSDK/cloud/alicloud/src/services/awss\zconfig_vendor_common.c ****     aws_main_thread_func();
 1764              		.loc 1 669 5
 1765 00de 97000000 		call	aws_main_thread_func
 1765      E7800000 
 1766              	.LVL155:
 1767              	.L128:
 670:C:/Users/stapi/OneDrive/Desktop/GD32VW553/V1_MQTT_OK/GD32VW55X_Wifi_BLE_SDK/GD32VW55x_RELEASE_V1.0.2/MSDK/cloud/alicloud/src/services/awss\zconfig_vendor_common.c **** }
 1768              		.loc 1 670 1 is_stmt 0
 1769 00e6 17030000 		tail	__riscv_restore_2
 1769      67000300 
 1770              		.cfi_restore 9
 1771              		.cfi_restore 8
 1772              		.cfi_restore 1
 1773              		.cfi_def_cfa_offset 0
 1774              		.cfi_endproc
 1775              	.LFE63:
 1777              		.section	.rodata.aws_destroy.str1.4,"aMS",@progbits,1
 1778              		.align	2
 1779              	.LC18:
 1780 0000 6177735F 		.string	"aws_destroy"
 1780      64657374 
 1780      726F7900 
 1781              		.align	2
 1782              	.LC19:
 1783 000c 6177735F 		.string	"aws_info mem to release"
 1783      696E666F 
 1783      206D656D 
 1783      20746F20 
 1783      72656C65 
 1784              		.section	.text.aws_destroy,"ax",@progbits
 1785              		.align	1
 1786              		.globl	aws_destroy
 1788              	aws_destroy:
 1789              	.LFB64:
 671:C:/Users/stapi/OneDrive/Desktop/GD32VW553/V1_MQTT_OK/GD32VW55X_Wifi_BLE_SDK/GD32VW55x_RELEASE_V1.0.2/MSDK/cloud/alicloud/src/services/awss\zconfig_vendor_common.c **** 
 672:C:/Users/stapi/OneDrive/Desktop/GD32VW553/V1_MQTT_OK/GD32VW55X_Wifi_BLE_SDK/GD32VW55x_RELEASE_V1.0.2/MSDK/cloud/alicloud/src/services/awss\zconfig_vendor_common.c **** static void *aws_mutex = NULL;
 673:C:/Users/stapi/OneDrive/Desktop/GD32VW553/V1_MQTT_OK/GD32VW55X_Wifi_BLE_SDK/GD32VW55x_RELEASE_V1.0.2/MSDK/cloud/alicloud/src/services/awss\zconfig_vendor_common.c **** 
 674:C:/Users/stapi/OneDrive/Desktop/GD32VW553/V1_MQTT_OK/GD32VW55X_Wifi_BLE_SDK/GD32VW55x_RELEASE_V1.0.2/MSDK/cloud/alicloud/src/services/awss\zconfig_vendor_common.c **** void aws_destroy(void)
 675:C:/Users/stapi/OneDrive/Desktop/GD32VW553/V1_MQTT_OK/GD32VW55X_Wifi_BLE_SDK/GD32VW55x_RELEASE_V1.0.2/MSDK/cloud/alicloud/src/services/awss\zconfig_vendor_common.c **** {
 1790              		.loc 1 675 1 is_stmt 1
 1791              		.cfi_startproc
 1792 0000 17030000 		call	t0,__riscv_save_4
 1792      E7020300 
 1793              		.cfi_offset 19, -20
 1794              		.cfi_offset 18, -16
 1795              		.cfi_offset 9, -12
 1796              		.cfi_offset 8, -8
 1797              		.cfi_offset 1, -4
 1798              		.cfi_def_cfa_offset 32
 676:C:/Users/stapi/OneDrive/Desktop/GD32VW553/V1_MQTT_OK/GD32VW55X_Wifi_BLE_SDK/GD32VW55x_RELEASE_V1.0.2/MSDK/cloud/alicloud/src/services/awss\zconfig_vendor_common.c ****     if (aws_mutex == NULL) {
 1799              		.loc 1 676 5
 1800              		.loc 1 676 19 is_stmt 0
 1801 0008 37040000 		lui	s0,%hi(.LANCHOR16)
 1802              		.loc 1 676 8
 1803 000c 83270400 		lw	a5,%lo(.LANCHOR16)(s0)
 1804 0010 13040400 		addi	s0,s0,%lo(.LANCHOR16)
 1805 0014 91E7     		bne	a5,zero,.L139
 677:C:/Users/stapi/OneDrive/Desktop/GD32VW553/V1_MQTT_OK/GD32VW55X_Wifi_BLE_SDK/GD32VW55x_RELEASE_V1.0.2/MSDK/cloud/alicloud/src/services/awss\zconfig_vendor_common.c ****         aws_mutex = HAL_MutexCreate();
 1806              		.loc 1 677 9 is_stmt 1
 1807              		.loc 1 677 21 is_stmt 0
 1808 0016 97000000 		call	HAL_MutexCreate
 1808      E7800000 
 1809              	.LVL156:
 1810              		.loc 1 677 19
 1811 001e 08C0     		sw	a0,0(s0)
 1812              	.L139:
 678:C:/Users/stapi/OneDrive/Desktop/GD32VW553/V1_MQTT_OK/GD32VW55X_Wifi_BLE_SDK/GD32VW55x_RELEASE_V1.0.2/MSDK/cloud/alicloud/src/services/awss\zconfig_vendor_common.c ****     }
 679:C:/Users/stapi/OneDrive/Desktop/GD32VW553/V1_MQTT_OK/GD32VW55X_Wifi_BLE_SDK/GD32VW55x_RELEASE_V1.0.2/MSDK/cloud/alicloud/src/services/awss\zconfig_vendor_common.c ****     if (aws_mutex) {
 1813              		.loc 1 679 5 is_stmt 1
 1814              		.loc 1 679 9 is_stmt 0
 1815 0020 0840     		lw	a0,0(s0)
 1816              		.loc 1 679 8
 1817 0022 09C5     		beq	a0,zero,.L140
 680:C:/Users/stapi/OneDrive/Desktop/GD32VW553/V1_MQTT_OK/GD32VW55X_Wifi_BLE_SDK/GD32VW55x_RELEASE_V1.0.2/MSDK/cloud/alicloud/src/services/awss\zconfig_vendor_common.c ****         HAL_MutexLock(aws_mutex);
 1818              		.loc 1 680 9 is_stmt 1
 1819 0024 97000000 		call	HAL_MutexLock
 1819      E7800000 
 1820              	.LVL157:
 1821              	.L140:
 681:C:/Users/stapi/OneDrive/Desktop/GD32VW553/V1_MQTT_OK/GD32VW55X_Wifi_BLE_SDK/GD32VW55x_RELEASE_V1.0.2/MSDK/cloud/alicloud/src/services/awss\zconfig_vendor_common.c ****     }
 682:C:/Users/stapi/OneDrive/Desktop/GD32VW553/V1_MQTT_OK/GD32VW55X_Wifi_BLE_SDK/GD32VW55x_RELEASE_V1.0.2/MSDK/cloud/alicloud/src/services/awss\zconfig_vendor_common.c **** 
 683:C:/Users/stapi/OneDrive/Desktop/GD32VW553/V1_MQTT_OK/GD32VW55X_Wifi_BLE_SDK/GD32VW55x_RELEASE_V1.0.2/MSDK/cloud/alicloud/src/services/awss\zconfig_vendor_common.c ****     if (aws_info == NULL) {
 1822              		.loc 1 683 5
 1823              		.loc 1 683 18 is_stmt 0
 1824 002c B7040000 		lui	s1,%hi(.LANCHOR2)
 1825 0030 83A70400 		lw	a5,%lo(.LANCHOR2)(s1)
 1826 0034 93840400 		addi	s1,s1,%lo(.LANCHOR2)
 1827              		.loc 1 683 8
 1828 0038 99E7     		bne	a5,zero,.L141
 1829              	.L143:
 684:C:/Users/stapi/OneDrive/Desktop/GD32VW553/V1_MQTT_OK/GD32VW55X_Wifi_BLE_SDK/GD32VW55x_RELEASE_V1.0.2/MSDK/cloud/alicloud/src/services/awss\zconfig_vendor_common.c ****         HAL_MutexUnlock(aws_mutex);
 1830              		.loc 1 684 9 is_stmt 1
 1831 003a 0840     		lw	a0,0(s0)
 1832              	.L154:
 685:C:/Users/stapi/OneDrive/Desktop/GD32VW553/V1_MQTT_OK/GD32VW55X_Wifi_BLE_SDK/GD32VW55x_RELEASE_V1.0.2/MSDK/cloud/alicloud/src/services/awss\zconfig_vendor_common.c ****         return;
 686:C:/Users/stapi/OneDrive/Desktop/GD32VW553/V1_MQTT_OK/GD32VW55X_Wifi_BLE_SDK/GD32VW55x_RELEASE_V1.0.2/MSDK/cloud/alicloud/src/services/awss\zconfig_vendor_common.c ****     }
 687:C:/Users/stapi/OneDrive/Desktop/GD32VW553/V1_MQTT_OK/GD32VW55X_Wifi_BLE_SDK/GD32VW55x_RELEASE_V1.0.2/MSDK/cloud/alicloud/src/services/awss\zconfig_vendor_common.c **** 
 688:C:/Users/stapi/OneDrive/Desktop/GD32VW553/V1_MQTT_OK/GD32VW55X_Wifi_BLE_SDK/GD32VW55x_RELEASE_V1.0.2/MSDK/cloud/alicloud/src/services/awss\zconfig_vendor_common.c ****     if (aws_stop == AWS_STOPPED) {
 689:C:/Users/stapi/OneDrive/Desktop/GD32VW553/V1_MQTT_OK/GD32VW55X_Wifi_BLE_SDK/GD32VW55x_RELEASE_V1.0.2/MSDK/cloud/alicloud/src/services/awss\zconfig_vendor_common.c ****         HAL_MutexUnlock(aws_mutex);
 690:C:/Users/stapi/OneDrive/Desktop/GD32VW553/V1_MQTT_OK/GD32VW55X_Wifi_BLE_SDK/GD32VW55x_RELEASE_V1.0.2/MSDK/cloud/alicloud/src/services/awss\zconfig_vendor_common.c ****         return;
 691:C:/Users/stapi/OneDrive/Desktop/GD32VW553/V1_MQTT_OK/GD32VW55X_Wifi_BLE_SDK/GD32VW55x_RELEASE_V1.0.2/MSDK/cloud/alicloud/src/services/awss\zconfig_vendor_common.c ****     }
 692:C:/Users/stapi/OneDrive/Desktop/GD32VW553/V1_MQTT_OK/GD32VW55X_Wifi_BLE_SDK/GD32VW55x_RELEASE_V1.0.2/MSDK/cloud/alicloud/src/services/awss\zconfig_vendor_common.c **** 
 693:C:/Users/stapi/OneDrive/Desktop/GD32VW553/V1_MQTT_OK/GD32VW55X_Wifi_BLE_SDK/GD32VW55x_RELEASE_V1.0.2/MSDK/cloud/alicloud/src/services/awss\zconfig_vendor_common.c ****     aws_stop = AWS_STOPPING;
 694:C:/Users/stapi/OneDrive/Desktop/GD32VW553/V1_MQTT_OK/GD32VW55X_Wifi_BLE_SDK/GD32VW55x_RELEASE_V1.0.2/MSDK/cloud/alicloud/src/services/awss\zconfig_vendor_common.c **** 
 695:C:/Users/stapi/OneDrive/Desktop/GD32VW553/V1_MQTT_OK/GD32VW55X_Wifi_BLE_SDK/GD32VW55x_RELEASE_V1.0.2/MSDK/cloud/alicloud/src/services/awss\zconfig_vendor_common.c ****     os_awss_close_monitor();
 696:C:/Users/stapi/OneDrive/Desktop/GD32VW553/V1_MQTT_OK/GD32VW55X_Wifi_BLE_SDK/GD32VW55x_RELEASE_V1.0.2/MSDK/cloud/alicloud/src/services/awss\zconfig_vendor_common.c ****     dump_awss_status(STATE_WIFI_DESTROY, "aws_destroy");
 697:C:/Users/stapi/OneDrive/Desktop/GD32VW553/V1_MQTT_OK/GD32VW55X_Wifi_BLE_SDK/GD32VW55x_RELEASE_V1.0.2/MSDK/cloud/alicloud/src/services/awss\zconfig_vendor_common.c **** 
 698:C:/Users/stapi/OneDrive/Desktop/GD32VW553/V1_MQTT_OK/GD32VW55X_Wifi_BLE_SDK/GD32VW55x_RELEASE_V1.0.2/MSDK/cloud/alicloud/src/services/awss\zconfig_vendor_common.c ****     while (aws_stop != AWS_STOPPED) {
 699:C:/Users/stapi/OneDrive/Desktop/GD32VW553/V1_MQTT_OK/GD32VW55X_Wifi_BLE_SDK/GD32VW55x_RELEASE_V1.0.2/MSDK/cloud/alicloud/src/services/awss\zconfig_vendor_common.c ****         if (aws_state == AWS_SUCCESS) {
 700:C:/Users/stapi/OneDrive/Desktop/GD32VW553/V1_MQTT_OK/GD32VW55X_Wifi_BLE_SDK/GD32VW55x_RELEASE_V1.0.2/MSDK/cloud/alicloud/src/services/awss\zconfig_vendor_common.c ****             break;
 701:C:/Users/stapi/OneDrive/Desktop/GD32VW553/V1_MQTT_OK/GD32VW55X_Wifi_BLE_SDK/GD32VW55x_RELEASE_V1.0.2/MSDK/cloud/alicloud/src/services/awss\zconfig_vendor_common.c ****         }
 702:C:/Users/stapi/OneDrive/Desktop/GD32VW553/V1_MQTT_OK/GD32VW55X_Wifi_BLE_SDK/GD32VW55x_RELEASE_V1.0.2/MSDK/cloud/alicloud/src/services/awss\zconfig_vendor_common.c ****         os_msleep(100);
 703:C:/Users/stapi/OneDrive/Desktop/GD32VW553/V1_MQTT_OK/GD32VW55X_Wifi_BLE_SDK/GD32VW55x_RELEASE_V1.0.2/MSDK/cloud/alicloud/src/services/awss\zconfig_vendor_common.c ****     }
 704:C:/Users/stapi/OneDrive/Desktop/GD32VW553/V1_MQTT_OK/GD32VW55X_Wifi_BLE_SDK/GD32VW55x_RELEASE_V1.0.2/MSDK/cloud/alicloud/src/services/awss\zconfig_vendor_common.c **** 
 705:C:/Users/stapi/OneDrive/Desktop/GD32VW553/V1_MQTT_OK/GD32VW55X_Wifi_BLE_SDK/GD32VW55x_RELEASE_V1.0.2/MSDK/cloud/alicloud/src/services/awss\zconfig_vendor_common.c ****     dump_awss_status(STATE_WIFI_DESTROY, "aws_info mem to release");
 706:C:/Users/stapi/OneDrive/Desktop/GD32VW553/V1_MQTT_OK/GD32VW55X_Wifi_BLE_SDK/GD32VW55x_RELEASE_V1.0.2/MSDK/cloud/alicloud/src/services/awss\zconfig_vendor_common.c ****     os_free(aws_info);
 707:C:/Users/stapi/OneDrive/Desktop/GD32VW553/V1_MQTT_OK/GD32VW55X_Wifi_BLE_SDK/GD32VW55x_RELEASE_V1.0.2/MSDK/cloud/alicloud/src/services/awss\zconfig_vendor_common.c ****     aws_info = NULL;
 708:C:/Users/stapi/OneDrive/Desktop/GD32VW553/V1_MQTT_OK/GD32VW55X_Wifi_BLE_SDK/GD32VW55x_RELEASE_V1.0.2/MSDK/cloud/alicloud/src/services/awss\zconfig_vendor_common.c **** #ifndef AWSS_DISABLE_ENROLLEE
 709:C:/Users/stapi/OneDrive/Desktop/GD32VW553/V1_MQTT_OK/GD32VW55X_Wifi_BLE_SDK/GD32VW55x_RELEASE_V1.0.2/MSDK/cloud/alicloud/src/services/awss\zconfig_vendor_common.c ****     awss_enrollee_destroy_info();
 710:C:/Users/stapi/OneDrive/Desktop/GD32VW553/V1_MQTT_OK/GD32VW55X_Wifi_BLE_SDK/GD32VW55x_RELEASE_V1.0.2/MSDK/cloud/alicloud/src/services/awss\zconfig_vendor_common.c **** #endif
 711:C:/Users/stapi/OneDrive/Desktop/GD32VW553/V1_MQTT_OK/GD32VW55X_Wifi_BLE_SDK/GD32VW55x_RELEASE_V1.0.2/MSDK/cloud/alicloud/src/services/awss\zconfig_vendor_common.c **** 
 712:C:/Users/stapi/OneDrive/Desktop/GD32VW553/V1_MQTT_OK/GD32VW55X_Wifi_BLE_SDK/GD32VW55x_RELEASE_V1.0.2/MSDK/cloud/alicloud/src/services/awss\zconfig_vendor_common.c ****     if (aws_mutex) {
 713:C:/Users/stapi/OneDrive/Desktop/GD32VW553/V1_MQTT_OK/GD32VW55X_Wifi_BLE_SDK/GD32VW55x_RELEASE_V1.0.2/MSDK/cloud/alicloud/src/services/awss\zconfig_vendor_common.c ****         HAL_MutexUnlock(aws_mutex);
 1833              		.loc 1 713 9
 1834 003c 97000000 		call	HAL_MutexUnlock
 1834      E7800000 
 1835              	.LVL158:
 1836 0044 BDA0     		j	.L138
 1837              	.L141:
 688:C:/Users/stapi/OneDrive/Desktop/GD32VW553/V1_MQTT_OK/GD32VW55X_Wifi_BLE_SDK/GD32VW55x_RELEASE_V1.0.2/MSDK/cloud/alicloud/src/services/awss\zconfig_vendor_common.c ****         HAL_MutexUnlock(aws_mutex);
 1838              		.loc 1 688 5
 688:C:/Users/stapi/OneDrive/Desktop/GD32VW553/V1_MQTT_OK/GD32VW55X_Wifi_BLE_SDK/GD32VW55x_RELEASE_V1.0.2/MSDK/cloud/alicloud/src/services/awss\zconfig_vendor_common.c ****         HAL_MutexUnlock(aws_mutex);
 1839              		.loc 1 688 8 is_stmt 0
 1840 0046 83C63702 		lbu	a3,35(a5)
 1841 004a 1547     		li	a4,5
 1842 004c E387E6FE 		beq	a3,a4,.L143
 693:C:/Users/stapi/OneDrive/Desktop/GD32VW553/V1_MQTT_OK/GD32VW55X_Wifi_BLE_SDK/GD32VW55x_RELEASE_V1.0.2/MSDK/cloud/alicloud/src/services/awss\zconfig_vendor_common.c **** 
 1843              		.loc 1 693 5 is_stmt 1
 693:C:/Users/stapi/OneDrive/Desktop/GD32VW553/V1_MQTT_OK/GD32VW55X_Wifi_BLE_SDK/GD32VW55x_RELEASE_V1.0.2/MSDK/cloud/alicloud/src/services/awss\zconfig_vendor_common.c **** 
 1844              		.loc 1 693 14 is_stmt 0
 1845 0050 1147     		li	a4,4
 1846 0052 A381E702 		sb	a4,35(a5)
 695:C:/Users/stapi/OneDrive/Desktop/GD32VW553/V1_MQTT_OK/GD32VW55X_Wifi_BLE_SDK/GD32VW55x_RELEASE_V1.0.2/MSDK/cloud/alicloud/src/services/awss\zconfig_vendor_common.c ****     dump_awss_status(STATE_WIFI_DESTROY, "aws_destroy");
 1847              		.loc 1 695 5 is_stmt 1
 1848              	.LBB225:
 1849              	.LBB226:
 653:..\..\..\..\cloud\alicloud\src\services\dev_bind\os/os.h **** }
 1850              		.loc 2 653 5
 1851 0056 97000000 		call	HAL_Awss_Close_Monitor
 1851      E7800000 
 1852              	.LVL159:
 1853              	.LBE226:
 1854              	.LBE225:
 696:C:/Users/stapi/OneDrive/Desktop/GD32VW553/V1_MQTT_OK/GD32VW55X_Wifi_BLE_SDK/GD32VW55x_RELEASE_V1.0.2/MSDK/cloud/alicloud/src/services/awss\zconfig_vendor_common.c **** 
 1855              		.loc 1 696 5
 1856 005e 37060000 		lui	a2,%hi(.LC18)
 1857 0062 13060600 		addi	a2,a2,%lo(.LC18)
 1858 0066 930580BF 		li	a1,-1032
 1859 006a 6D45     		li	a0,27
 1860 006c 97000000 		call	iotx_state_event
 1860      E7800000 
 1861              	.LVL160:
 698:C:/Users/stapi/OneDrive/Desktop/GD32VW553/V1_MQTT_OK/GD32VW55X_Wifi_BLE_SDK/GD32VW55x_RELEASE_V1.0.2/MSDK/cloud/alicloud/src/services/awss\zconfig_vendor_common.c ****         if (aws_state == AWS_SUCCESS) {
 1862              		.loc 1 698 5
 698:C:/Users/stapi/OneDrive/Desktop/GD32VW553/V1_MQTT_OK/GD32VW55X_Wifi_BLE_SDK/GD32VW55x_RELEASE_V1.0.2/MSDK/cloud/alicloud/src/services/awss\zconfig_vendor_common.c ****         if (aws_state == AWS_SUCCESS) {
 1863              		.loc 1 698 11 is_stmt 0
 1864 0074 1549     		li	s2,5
 699:C:/Users/stapi/OneDrive/Desktop/GD32VW553/V1_MQTT_OK/GD32VW55X_Wifi_BLE_SDK/GD32VW55x_RELEASE_V1.0.2/MSDK/cloud/alicloud/src/services/awss\zconfig_vendor_common.c ****             break;
 1865              		.loc 1 699 12
 1866 0076 8949     		li	s3,2
 1867              	.L144:
 698:C:/Users/stapi/OneDrive/Desktop/GD32VW553/V1_MQTT_OK/GD32VW55X_Wifi_BLE_SDK/GD32VW55x_RELEASE_V1.0.2/MSDK/cloud/alicloud/src/services/awss\zconfig_vendor_common.c ****         if (aws_state == AWS_SUCCESS) {
 1868              		.loc 1 698 11 is_stmt 1
 698:C:/Users/stapi/OneDrive/Desktop/GD32VW553/V1_MQTT_OK/GD32VW55X_Wifi_BLE_SDK/GD32VW55x_RELEASE_V1.0.2/MSDK/cloud/alicloud/src/services/awss\zconfig_vendor_common.c ****         if (aws_state == AWS_SUCCESS) {
 1869              		.loc 1 698 12 is_stmt 0
 1870 0078 9C40     		lw	a5,0(s1)
 698:C:/Users/stapi/OneDrive/Desktop/GD32VW553/V1_MQTT_OK/GD32VW55X_Wifi_BLE_SDK/GD32VW55x_RELEASE_V1.0.2/MSDK/cloud/alicloud/src/services/awss\zconfig_vendor_common.c ****         if (aws_state == AWS_SUCCESS) {
 1871              		.loc 1 698 11
 1872 007a 03C73702 		lbu	a4,35(a5)
 1873 007e 631E2703 		bne	a4,s2,.L146
 1874              	.L145:
 705:C:/Users/stapi/OneDrive/Desktop/GD32VW553/V1_MQTT_OK/GD32VW55X_Wifi_BLE_SDK/GD32VW55x_RELEASE_V1.0.2/MSDK/cloud/alicloud/src/services/awss\zconfig_vendor_common.c ****     os_free(aws_info);
 1875              		.loc 1 705 5 is_stmt 1
 1876 0082 37060000 		lui	a2,%hi(.LC19)
 1877 0086 13060600 		addi	a2,a2,%lo(.LC19)
 1878 008a 930580BF 		li	a1,-1032
 1879 008e 6D45     		li	a0,27
 1880 0090 97000000 		call	iotx_state_event
 1880      E7800000 
 1881              	.LVL161:
 706:C:/Users/stapi/OneDrive/Desktop/GD32VW553/V1_MQTT_OK/GD32VW55X_Wifi_BLE_SDK/GD32VW55x_RELEASE_V1.0.2/MSDK/cloud/alicloud/src/services/awss\zconfig_vendor_common.c ****     aws_info = NULL;
 1882              		.loc 1 706 5
 1883              	.LBB227:
 1884              	.LBB228:
 394:..\..\..\..\cloud\alicloud\src\services\dev_bind\os/os.h **** }
 1885              		.loc 2 394 5
 1886 0098 8840     		lw	a0,0(s1)
 1887 009a 97000000 		call	HAL_Free
 1887      E7800000 
 1888              	.LVL162:
 1889              	.LBE228:
 1890              	.LBE227:
 707:C:/Users/stapi/OneDrive/Desktop/GD32VW553/V1_MQTT_OK/GD32VW55X_Wifi_BLE_SDK/GD32VW55x_RELEASE_V1.0.2/MSDK/cloud/alicloud/src/services/awss\zconfig_vendor_common.c **** #ifndef AWSS_DISABLE_ENROLLEE
 1891              		.loc 1 707 5
 707:C:/Users/stapi/OneDrive/Desktop/GD32VW553/V1_MQTT_OK/GD32VW55X_Wifi_BLE_SDK/GD32VW55x_RELEASE_V1.0.2/MSDK/cloud/alicloud/src/services/awss\zconfig_vendor_common.c **** #ifndef AWSS_DISABLE_ENROLLEE
 1892              		.loc 1 707 14 is_stmt 0
 1893 00a2 23A00400 		sw	zero,0(s1)
 709:C:/Users/stapi/OneDrive/Desktop/GD32VW553/V1_MQTT_OK/GD32VW55X_Wifi_BLE_SDK/GD32VW55x_RELEASE_V1.0.2/MSDK/cloud/alicloud/src/services/awss\zconfig_vendor_common.c **** #endif
 1894              		.loc 1 709 5 is_stmt 1
 1895 00a6 97000000 		call	awss_enrollee_destroy_info
 1895      E7800000 
 1896              	.LVL163:
 712:C:/Users/stapi/OneDrive/Desktop/GD32VW553/V1_MQTT_OK/GD32VW55X_Wifi_BLE_SDK/GD32VW55x_RELEASE_V1.0.2/MSDK/cloud/alicloud/src/services/awss\zconfig_vendor_common.c ****         HAL_MutexUnlock(aws_mutex);
 1897              		.loc 1 712 5
 712:C:/Users/stapi/OneDrive/Desktop/GD32VW553/V1_MQTT_OK/GD32VW55X_Wifi_BLE_SDK/GD32VW55x_RELEASE_V1.0.2/MSDK/cloud/alicloud/src/services/awss\zconfig_vendor_common.c ****         HAL_MutexUnlock(aws_mutex);
 1898              		.loc 1 712 9 is_stmt 0
 1899 00ae 0840     		lw	a0,0(s0)
 712:C:/Users/stapi/OneDrive/Desktop/GD32VW553/V1_MQTT_OK/GD32VW55X_Wifi_BLE_SDK/GD32VW55x_RELEASE_V1.0.2/MSDK/cloud/alicloud/src/services/awss\zconfig_vendor_common.c ****         HAL_MutexUnlock(aws_mutex);
 1900              		.loc 1 712 8
 1901 00b0 51F5     		bne	a0,zero,.L154
 1902              	.L138:
 714:C:/Users/stapi/OneDrive/Desktop/GD32VW553/V1_MQTT_OK/GD32VW55X_Wifi_BLE_SDK/GD32VW55x_RELEASE_V1.0.2/MSDK/cloud/alicloud/src/services/awss\zconfig_vendor_common.c ****     }
 715:C:/Users/stapi/OneDrive/Desktop/GD32VW553/V1_MQTT_OK/GD32VW55X_Wifi_BLE_SDK/GD32VW55x_RELEASE_V1.0.2/MSDK/cloud/alicloud/src/services/awss\zconfig_vendor_common.c **** }
 1903              		.loc 1 715 1
 1904 00b2 17030000 		tail	__riscv_restore_4
 1904      67000300 
 1905              		.cfi_remember_state
 1906              		.cfi_restore 19
 1907              		.cfi_restore 18
 1908              		.cfi_restore 9
 1909              		.cfi_restore 8
 1910              		.cfi_restore 1
 1911              		.cfi_def_cfa_offset 0
 1912              	.L146:
 1913              		.cfi_restore_state
 699:C:/Users/stapi/OneDrive/Desktop/GD32VW553/V1_MQTT_OK/GD32VW55X_Wifi_BLE_SDK/GD32VW55x_RELEASE_V1.0.2/MSDK/cloud/alicloud/src/services/awss\zconfig_vendor_common.c ****             break;
 1914              		.loc 1 699 9 is_stmt 1
 699:C:/Users/stapi/OneDrive/Desktop/GD32VW553/V1_MQTT_OK/GD32VW55X_Wifi_BLE_SDK/GD32VW55x_RELEASE_V1.0.2/MSDK/cloud/alicloud/src/services/awss\zconfig_vendor_common.c ****             break;
 1915              		.loc 1 699 12 is_stmt 0
 1916 00ba 83C70700 		lbu	a5,0(a5)
 1917 00be E38237FD 		beq	a5,s3,.L145
 702:C:/Users/stapi/OneDrive/Desktop/GD32VW553/V1_MQTT_OK/GD32VW55X_Wifi_BLE_SDK/GD32VW55x_RELEASE_V1.0.2/MSDK/cloud/alicloud/src/services/awss\zconfig_vendor_common.c ****     }
 1918              		.loc 1 702 9 is_stmt 1
 1919              	.LVL164:
 1920              	.LBB229:
 1921              	.LBB230:
 210:..\..\..\..\cloud\alicloud\src\services\dev_bind\os/os.h **** }
 1922              		.loc 2 210 5
 1923 00c2 13054006 		li	a0,100
 1924 00c6 97000000 		call	HAL_SleepMs
 1924      E7800000 
 1925              	.LVL165:
 211:..\..\..\..\cloud\alicloud\src\services\dev_bind\os/os.h **** 
 1926              		.loc 2 211 1 is_stmt 0
 1927 00ce 6DB7     		j	.L144
 1928              	.LBE230:
 1929              	.LBE229:
 1930              		.cfi_endproc
 1931              	.LFE64:
 1933              		.section	.text.aws_release_mutex,"ax",@progbits
 1934              		.align	1
 1935              		.globl	aws_release_mutex
 1937              	aws_release_mutex:
 1938              	.LFB65:
 716:C:/Users/stapi/OneDrive/Desktop/GD32VW553/V1_MQTT_OK/GD32VW55X_Wifi_BLE_SDK/GD32VW55x_RELEASE_V1.0.2/MSDK/cloud/alicloud/src/services/awss\zconfig_vendor_common.c **** 
 717:C:/Users/stapi/OneDrive/Desktop/GD32VW553/V1_MQTT_OK/GD32VW55X_Wifi_BLE_SDK/GD32VW55x_RELEASE_V1.0.2/MSDK/cloud/alicloud/src/services/awss\zconfig_vendor_common.c **** void aws_release_mutex()
 718:C:/Users/stapi/OneDrive/Desktop/GD32VW553/V1_MQTT_OK/GD32VW55X_Wifi_BLE_SDK/GD32VW55x_RELEASE_V1.0.2/MSDK/cloud/alicloud/src/services/awss\zconfig_vendor_common.c **** {
 1939              		.loc 1 718 1 is_stmt 1
 1940              		.cfi_startproc
 1941 0000 17030000 		call	t0,__riscv_save_1
 1941      E7020300 
 1942              		.cfi_offset 8, -8
 1943              		.cfi_offset 1, -4
 1944              		.cfi_def_cfa_offset 16
 719:C:/Users/stapi/OneDrive/Desktop/GD32VW553/V1_MQTT_OK/GD32VW55X_Wifi_BLE_SDK/GD32VW55x_RELEASE_V1.0.2/MSDK/cloud/alicloud/src/services/awss\zconfig_vendor_common.c ****     if (aws_mutex) {
 1945              		.loc 1 719 5
 1946              		.loc 1 719 9 is_stmt 0
 1947 0008 37040000 		lui	s0,%hi(.LANCHOR16)
 1948 000c 13040400 		addi	s0,s0,%lo(.LANCHOR16)
 1949 0010 0840     		lw	a0,0(s0)
 1950              		.loc 1 719 8
 1951 0012 19C5     		beq	a0,zero,.L155
 720:C:/Users/stapi/OneDrive/Desktop/GD32VW553/V1_MQTT_OK/GD32VW55X_Wifi_BLE_SDK/GD32VW55x_RELEASE_V1.0.2/MSDK/cloud/alicloud/src/services/awss\zconfig_vendor_common.c ****         HAL_MutexDestroy(aws_mutex);
 1952              		.loc 1 720 9 is_stmt 1
 1953 0014 97000000 		call	HAL_MutexDestroy
 1953      E7800000 
 1954              	.LVL166:
 721:C:/Users/stapi/OneDrive/Desktop/GD32VW553/V1_MQTT_OK/GD32VW55X_Wifi_BLE_SDK/GD32VW55x_RELEASE_V1.0.2/MSDK/cloud/alicloud/src/services/awss\zconfig_vendor_common.c ****         aws_mutex = NULL;
 1955              		.loc 1 721 9
 1956              		.loc 1 721 19 is_stmt 0
 1957 001c 23200400 		sw	zero,0(s0)
 1958              	.L155:
 722:C:/Users/stapi/OneDrive/Desktop/GD32VW553/V1_MQTT_OK/GD32VW55X_Wifi_BLE_SDK/GD32VW55x_RELEASE_V1.0.2/MSDK/cloud/alicloud/src/services/awss\zconfig_vendor_common.c ****     }
 723:C:/Users/stapi/OneDrive/Desktop/GD32VW553/V1_MQTT_OK/GD32VW55X_Wifi_BLE_SDK/GD32VW55x_RELEASE_V1.0.2/MSDK/cloud/alicloud/src/services/awss\zconfig_vendor_common.c **** }
 1959              		.loc 1 723 1
 1960 0020 17030000 		tail	__riscv_restore_1
 1960      67000300 
 1961              		.cfi_restore 8
 1962              		.cfi_restore 1
 1963              		.cfi_def_cfa_offset 0
 1964              		.cfi_endproc
 1965              	.LFE65:
 1967              		.section	.rodata.aws_get_ssid_passwd.str1.4,"aMS",@progbits,1
 1968              		.align	2
 1969              	.LC20:
 1970 0000 6177735F 		.string	"aws_info is null"
 1970      696E666F 
 1970      20697320 
 1970      6E756C6C 
 1970      00
 1971              		.section	.text.aws_get_ssid_passwd,"ax",@progbits
 1972              		.align	1
 1973              		.globl	aws_get_ssid_passwd
 1975              	aws_get_ssid_passwd:
 1976              	.LFB66:
 724:C:/Users/stapi/OneDrive/Desktop/GD32VW553/V1_MQTT_OK/GD32VW55X_Wifi_BLE_SDK/GD32VW55x_RELEASE_V1.0.2/MSDK/cloud/alicloud/src/services/awss\zconfig_vendor_common.c **** 
 725:C:/Users/stapi/OneDrive/Desktop/GD32VW553/V1_MQTT_OK/GD32VW55X_Wifi_BLE_SDK/GD32VW55x_RELEASE_V1.0.2/MSDK/cloud/alicloud/src/services/awss\zconfig_vendor_common.c **** int aws_get_ssid_passwd(char *ssid, char *passwd, uint8_t *bssid, uint8_t *token,
 726:C:/Users/stapi/OneDrive/Desktop/GD32VW553/V1_MQTT_OK/GD32VW55X_Wifi_BLE_SDK/GD32VW55x_RELEASE_V1.0.2/MSDK/cloud/alicloud/src/services/awss\zconfig_vendor_common.c ****                         char *auth, char *encry, uint8_t *channel, uint8_t *token_type)
 727:C:/Users/stapi/OneDrive/Desktop/GD32VW553/V1_MQTT_OK/GD32VW55X_Wifi_BLE_SDK/GD32VW55x_RELEASE_V1.0.2/MSDK/cloud/alicloud/src/services/awss\zconfig_vendor_common.c **** {
 1977              		.loc 1 727 1 is_stmt 1
 1978              		.cfi_startproc
 1979              	.LVL167:
 1980 0000 17030000 		call	t0,__riscv_save_7
 1980      E7020300 
 1981              		.cfi_offset 22, -32
 1982              		.cfi_offset 21, -28
 1983              		.cfi_offset 20, -24
 1984              		.cfi_offset 19, -20
 1985              		.cfi_offset 18, -16
 1986              		.cfi_offset 9, -12
 1987              		.cfi_offset 8, -8
 1988              		.cfi_offset 1, -4
 1989              		.cfi_def_cfa_offset 32
 728:C:/Users/stapi/OneDrive/Desktop/GD32VW553/V1_MQTT_OK/GD32VW55X_Wifi_BLE_SDK/GD32VW55x_RELEASE_V1.0.2/MSDK/cloud/alicloud/src/services/awss\zconfig_vendor_common.c ****     if (!aws_info) {
 1990              		.loc 1 728 5
 727:C:/Users/stapi/OneDrive/Desktop/GD32VW553/V1_MQTT_OK/GD32VW55X_Wifi_BLE_SDK/GD32VW55x_RELEASE_V1.0.2/MSDK/cloud/alicloud/src/services/awss\zconfig_vendor_common.c ****     if (!aws_info) {
 1991              		.loc 1 727 1 is_stmt 0
 1992 0008 3E89     		mv	s2,a5
 1993              		.loc 1 728 9
 1994 000a B7070000 		lui	a5,%hi(.LANCHOR2)
 1995              	.LVL168:
 1996 000e 83A70700 		lw	a5,%lo(.LANCHOR2)(a5)
 1997              		.loc 1 728 8
 1998 0012 95EB     		bne	a5,zero,.L162
 729:C:/Users/stapi/OneDrive/Desktop/GD32VW553/V1_MQTT_OK/GD32VW55X_Wifi_BLE_SDK/GD32VW55x_RELEASE_V1.0.2/MSDK/cloud/alicloud/src/services/awss\zconfig_vendor_common.c ****         awss_debug("aws_info is null");
 1999              		.loc 1 729 9 is_stmt 1
 2000 0014 37070000 		lui	a4,%hi(.LC20)
 2001              	.LVL169:
 2002 0018 B7050000 		lui	a1,%hi(.LANCHOR17)
 2003              	.LVL170:
 2004 001c 37050000 		lui	a0,%hi(.LC7)
 2005              	.LVL171:
 2006 0020 13070700 		addi	a4,a4,%lo(.LC20)
 2007 0024 9546     		li	a3,5
 2008              	.LVL172:
 2009 0026 1306902D 		li	a2,729
 2010              	.LVL173:
 2011 002a 93850500 		addi	a1,a1,%lo(.LANCHOR17)
 2012 002e 13050500 		addi	a0,a0,%lo(.LC7)
 2013 0032 97000000 		call	LITE_syslog
 2013      E7800000 
 2014              	.LVL174:
 730:C:/Users/stapi/OneDrive/Desktop/GD32VW553/V1_MQTT_OK/GD32VW55X_Wifi_BLE_SDK/GD32VW55x_RELEASE_V1.0.2/MSDK/cloud/alicloud/src/services/awss\zconfig_vendor_common.c ****         return 0;
 2015              		.loc 1 730 9
 2016              		.loc 1 730 16 is_stmt 0
 2017 003a 0143     		li	t1,0
 2018              	.L161:
 731:C:/Users/stapi/OneDrive/Desktop/GD32VW553/V1_MQTT_OK/GD32VW55X_Wifi_BLE_SDK/GD32VW55x_RELEASE_V1.0.2/MSDK/cloud/alicloud/src/services/awss\zconfig_vendor_common.c ****     } else {
 732:C:/Users/stapi/OneDrive/Desktop/GD32VW553/V1_MQTT_OK/GD32VW55X_Wifi_BLE_SDK/GD32VW55x_RELEASE_V1.0.2/MSDK/cloud/alicloud/src/services/awss\zconfig_vendor_common.c ****         if ((aws_state != AWS_SUCCESS) || (aws_stop >= AWS_STOPPING)) {
 733:C:/Users/stapi/OneDrive/Desktop/GD32VW553/V1_MQTT_OK/GD32VW55X_Wifi_BLE_SDK/GD32VW55x_RELEASE_V1.0.2/MSDK/cloud/alicloud/src/services/awss\zconfig_vendor_common.c ****             return 0;
 734:C:/Users/stapi/OneDrive/Desktop/GD32VW553/V1_MQTT_OK/GD32VW55X_Wifi_BLE_SDK/GD32VW55x_RELEASE_V1.0.2/MSDK/cloud/alicloud/src/services/awss\zconfig_vendor_common.c ****         }
 735:C:/Users/stapi/OneDrive/Desktop/GD32VW553/V1_MQTT_OK/GD32VW55X_Wifi_BLE_SDK/GD32VW55x_RELEASE_V1.0.2/MSDK/cloud/alicloud/src/services/awss\zconfig_vendor_common.c ****     }
 736:C:/Users/stapi/OneDrive/Desktop/GD32VW553/V1_MQTT_OK/GD32VW55X_Wifi_BLE_SDK/GD32VW55x_RELEASE_V1.0.2/MSDK/cloud/alicloud/src/services/awss\zconfig_vendor_common.c **** 
 737:C:/Users/stapi/OneDrive/Desktop/GD32VW553/V1_MQTT_OK/GD32VW55X_Wifi_BLE_SDK/GD32VW55x_RELEASE_V1.0.2/MSDK/cloud/alicloud/src/services/awss\zconfig_vendor_common.c ****     if (ssid) {
 738:C:/Users/stapi/OneDrive/Desktop/GD32VW553/V1_MQTT_OK/GD32VW55X_Wifi_BLE_SDK/GD32VW55x_RELEASE_V1.0.2/MSDK/cloud/alicloud/src/services/awss\zconfig_vendor_common.c ****         strncpy((char *)ssid, (const char *)aws_result_ssid, ZC_MAX_SSID_LEN - 1);
 739:C:/Users/stapi/OneDrive/Desktop/GD32VW553/V1_MQTT_OK/GD32VW55X_Wifi_BLE_SDK/GD32VW55x_RELEASE_V1.0.2/MSDK/cloud/alicloud/src/services/awss\zconfig_vendor_common.c ****     }
 740:C:/Users/stapi/OneDrive/Desktop/GD32VW553/V1_MQTT_OK/GD32VW55X_Wifi_BLE_SDK/GD32VW55x_RELEASE_V1.0.2/MSDK/cloud/alicloud/src/services/awss\zconfig_vendor_common.c ****     if (passwd) {
 741:C:/Users/stapi/OneDrive/Desktop/GD32VW553/V1_MQTT_OK/GD32VW55X_Wifi_BLE_SDK/GD32VW55x_RELEASE_V1.0.2/MSDK/cloud/alicloud/src/services/awss\zconfig_vendor_common.c ****         strncpy((char *)passwd, (const char *)aws_result_passwd, ZC_MAX_PASSWD_LEN - 1);
 742:C:/Users/stapi/OneDrive/Desktop/GD32VW553/V1_MQTT_OK/GD32VW55X_Wifi_BLE_SDK/GD32VW55x_RELEASE_V1.0.2/MSDK/cloud/alicloud/src/services/awss\zconfig_vendor_common.c ****     }
 743:C:/Users/stapi/OneDrive/Desktop/GD32VW553/V1_MQTT_OK/GD32VW55X_Wifi_BLE_SDK/GD32VW55x_RELEASE_V1.0.2/MSDK/cloud/alicloud/src/services/awss\zconfig_vendor_common.c ****     if (bssid) {
 744:C:/Users/stapi/OneDrive/Desktop/GD32VW553/V1_MQTT_OK/GD32VW55X_Wifi_BLE_SDK/GD32VW55x_RELEASE_V1.0.2/MSDK/cloud/alicloud/src/services/awss\zconfig_vendor_common.c ****         memcpy(bssid, aws_result_bssid, ETH_ALEN);
 745:C:/Users/stapi/OneDrive/Desktop/GD32VW553/V1_MQTT_OK/GD32VW55X_Wifi_BLE_SDK/GD32VW55x_RELEASE_V1.0.2/MSDK/cloud/alicloud/src/services/awss\zconfig_vendor_common.c ****     }
 746:C:/Users/stapi/OneDrive/Desktop/GD32VW553/V1_MQTT_OK/GD32VW55X_Wifi_BLE_SDK/GD32VW55x_RELEASE_V1.0.2/MSDK/cloud/alicloud/src/services/awss\zconfig_vendor_common.c ****     if (token) {
 747:C:/Users/stapi/OneDrive/Desktop/GD32VW553/V1_MQTT_OK/GD32VW55X_Wifi_BLE_SDK/GD32VW55x_RELEASE_V1.0.2/MSDK/cloud/alicloud/src/services/awss\zconfig_vendor_common.c ****         memcpy(token, aws_result_token, ZC_MAX_TOKEN_LEN);
 748:C:/Users/stapi/OneDrive/Desktop/GD32VW553/V1_MQTT_OK/GD32VW55X_Wifi_BLE_SDK/GD32VW55x_RELEASE_V1.0.2/MSDK/cloud/alicloud/src/services/awss\zconfig_vendor_common.c ****     }
 749:C:/Users/stapi/OneDrive/Desktop/GD32VW553/V1_MQTT_OK/GD32VW55X_Wifi_BLE_SDK/GD32VW55x_RELEASE_V1.0.2/MSDK/cloud/alicloud/src/services/awss\zconfig_vendor_common.c ****     if (auth) {
 750:C:/Users/stapi/OneDrive/Desktop/GD32VW553/V1_MQTT_OK/GD32VW55X_Wifi_BLE_SDK/GD32VW55x_RELEASE_V1.0.2/MSDK/cloud/alicloud/src/services/awss\zconfig_vendor_common.c ****         *auth = aws_result_auth;
 751:C:/Users/stapi/OneDrive/Desktop/GD32VW553/V1_MQTT_OK/GD32VW55X_Wifi_BLE_SDK/GD32VW55x_RELEASE_V1.0.2/MSDK/cloud/alicloud/src/services/awss\zconfig_vendor_common.c ****     }
 752:C:/Users/stapi/OneDrive/Desktop/GD32VW553/V1_MQTT_OK/GD32VW55X_Wifi_BLE_SDK/GD32VW55x_RELEASE_V1.0.2/MSDK/cloud/alicloud/src/services/awss\zconfig_vendor_common.c ****     if (encry) {
 753:C:/Users/stapi/OneDrive/Desktop/GD32VW553/V1_MQTT_OK/GD32VW55X_Wifi_BLE_SDK/GD32VW55x_RELEASE_V1.0.2/MSDK/cloud/alicloud/src/services/awss\zconfig_vendor_common.c ****         *encry = aws_result_encry;
 754:C:/Users/stapi/OneDrive/Desktop/GD32VW553/V1_MQTT_OK/GD32VW55X_Wifi_BLE_SDK/GD32VW55x_RELEASE_V1.0.2/MSDK/cloud/alicloud/src/services/awss\zconfig_vendor_common.c ****     }
 755:C:/Users/stapi/OneDrive/Desktop/GD32VW553/V1_MQTT_OK/GD32VW55X_Wifi_BLE_SDK/GD32VW55x_RELEASE_V1.0.2/MSDK/cloud/alicloud/src/services/awss\zconfig_vendor_common.c ****     if (channel) {
 756:C:/Users/stapi/OneDrive/Desktop/GD32VW553/V1_MQTT_OK/GD32VW55X_Wifi_BLE_SDK/GD32VW55x_RELEASE_V1.0.2/MSDK/cloud/alicloud/src/services/awss\zconfig_vendor_common.c ****         *channel = aws_result_channel;
 757:C:/Users/stapi/OneDrive/Desktop/GD32VW553/V1_MQTT_OK/GD32VW55X_Wifi_BLE_SDK/GD32VW55x_RELEASE_V1.0.2/MSDK/cloud/alicloud/src/services/awss\zconfig_vendor_common.c ****     }
 758:C:/Users/stapi/OneDrive/Desktop/GD32VW553/V1_MQTT_OK/GD32VW55X_Wifi_BLE_SDK/GD32VW55x_RELEASE_V1.0.2/MSDK/cloud/alicloud/src/services/awss\zconfig_vendor_common.c ****     if (token_type) {
 759:C:/Users/stapi/OneDrive/Desktop/GD32VW553/V1_MQTT_OK/GD32VW55X_Wifi_BLE_SDK/GD32VW55x_RELEASE_V1.0.2/MSDK/cloud/alicloud/src/services/awss\zconfig_vendor_common.c ****         *token_type = aws_result_token_type;
 760:C:/Users/stapi/OneDrive/Desktop/GD32VW553/V1_MQTT_OK/GD32VW55X_Wifi_BLE_SDK/GD32VW55x_RELEASE_V1.0.2/MSDK/cloud/alicloud/src/services/awss\zconfig_vendor_common.c ****     }
 761:C:/Users/stapi/OneDrive/Desktop/GD32VW553/V1_MQTT_OK/GD32VW55X_Wifi_BLE_SDK/GD32VW55x_RELEASE_V1.0.2/MSDK/cloud/alicloud/src/services/awss\zconfig_vendor_common.c ****     return 1;
 762:C:/Users/stapi/OneDrive/Desktop/GD32VW553/V1_MQTT_OK/GD32VW55X_Wifi_BLE_SDK/GD32VW55x_RELEASE_V1.0.2/MSDK/cloud/alicloud/src/services/awss\zconfig_vendor_common.c **** }
 2019              		.loc 1 762 1
 2020 003c 1A85     		mv	a0,t1
 2021 003e 17030000 		tail	__riscv_restore_7
 2021      67000300 
 2022              		.cfi_remember_state
 2023              		.cfi_restore 22
 2024              		.cfi_restore 21
 2025              		.cfi_restore 20
 2026              		.cfi_restore 19
 2027              		.cfi_restore 18
 2028              		.cfi_restore 9
 2029              		.cfi_restore 8
 2030              		.cfi_restore 1
 2031              		.cfi_def_cfa_offset 0
 2032              	.LVL175:
 2033              	.L162:
 2034              		.cfi_restore_state
 2035 0046 368A     		mv	s4,a3
 732:C:/Users/stapi/OneDrive/Desktop/GD32VW553/V1_MQTT_OK/GD32VW55X_Wifi_BLE_SDK/GD32VW55x_RELEASE_V1.0.2/MSDK/cloud/alicloud/src/services/awss\zconfig_vendor_common.c ****             return 0;
 2036              		.loc 1 732 12
 2037 0048 83C60700 		lbu	a3,0(a5)
 2038              	.LVL176:
 2039 004c BA89     		mv	s3,a4
 732:C:/Users/stapi/OneDrive/Desktop/GD32VW553/V1_MQTT_OK/GD32VW55X_Wifi_BLE_SDK/GD32VW55x_RELEASE_V1.0.2/MSDK/cloud/alicloud/src/services/awss\zconfig_vendor_common.c ****             return 0;
 2040              		.loc 1 732 9 is_stmt 1
 732:C:/Users/stapi/OneDrive/Desktop/GD32VW553/V1_MQTT_OK/GD32VW55X_Wifi_BLE_SDK/GD32VW55x_RELEASE_V1.0.2/MSDK/cloud/alicloud/src/services/awss\zconfig_vendor_common.c ****             return 0;
 2041              		.loc 1 732 12 is_stmt 0
 2042 004e 0947     		li	a4,2
 2043              	.LVL177:
 733:C:/Users/stapi/OneDrive/Desktop/GD32VW553/V1_MQTT_OK/GD32VW55X_Wifi_BLE_SDK/GD32VW55x_RELEASE_V1.0.2/MSDK/cloud/alicloud/src/services/awss\zconfig_vendor_common.c ****         }
 2044              		.loc 1 733 20
 2045 0050 0143     		li	t1,0
 732:C:/Users/stapi/OneDrive/Desktop/GD32VW553/V1_MQTT_OK/GD32VW55X_Wifi_BLE_SDK/GD32VW55x_RELEASE_V1.0.2/MSDK/cloud/alicloud/src/services/awss\zconfig_vendor_common.c ****             return 0;
 2046              		.loc 1 732 12
 2047 0052 E395E6FE 		bne	a3,a4,.L161
 732:C:/Users/stapi/OneDrive/Desktop/GD32VW553/V1_MQTT_OK/GD32VW55X_Wifi_BLE_SDK/GD32VW55x_RELEASE_V1.0.2/MSDK/cloud/alicloud/src/services/awss\zconfig_vendor_common.c ****             return 0;
 2048              		.loc 1 732 40 discriminator 1
 2049 0056 03C73702 		lbu	a4,35(a5)
 2050 005a 8D47     		li	a5,3
 2051 005c E3E0E7FE 		bgtu	a4,a5,.L161
 2052 0060 2E8B     		mv	s6,a1
 2053 0062 B28A     		mv	s5,a2
 2054 0064 C284     		mv	s1,a6
 2055 0066 4684     		mv	s0,a7
 737:C:/Users/stapi/OneDrive/Desktop/GD32VW553/V1_MQTT_OK/GD32VW55X_Wifi_BLE_SDK/GD32VW55x_RELEASE_V1.0.2/MSDK/cloud/alicloud/src/services/awss\zconfig_vendor_common.c ****         strncpy((char *)ssid, (const char *)aws_result_ssid, ZC_MAX_SSID_LEN - 1);
 2056              		.loc 1 737 5 is_stmt 1
 737:C:/Users/stapi/OneDrive/Desktop/GD32VW553/V1_MQTT_OK/GD32VW55X_Wifi_BLE_SDK/GD32VW55x_RELEASE_V1.0.2/MSDK/cloud/alicloud/src/services/awss\zconfig_vendor_common.c ****         strncpy((char *)ssid, (const char *)aws_result_ssid, ZC_MAX_SSID_LEN - 1);
 2057              		.loc 1 737 8 is_stmt 0
 2058 0068 19C9     		beq	a0,zero,.L164
 2059              	.LVL178:
 738:C:/Users/stapi/OneDrive/Desktop/GD32VW553/V1_MQTT_OK/GD32VW55X_Wifi_BLE_SDK/GD32VW55x_RELEASE_V1.0.2/MSDK/cloud/alicloud/src/services/awss\zconfig_vendor_common.c ****     }
 2060              		.loc 1 738 9 is_stmt 1
 2061 006a B7050000 		lui	a1,%hi(.LANCHOR6)
 2062              	.LVL179:
 2063 006e 13060002 		li	a2,32
 2064              	.LVL180:
 2065 0072 93850500 		addi	a1,a1,%lo(.LANCHOR6)
 2066 0076 97000000 		call	strncpy
 2066      E7800000 
 2067              	.LVL181:
 2068              	.L164:
 740:C:/Users/stapi/OneDrive/Desktop/GD32VW553/V1_MQTT_OK/GD32VW55X_Wifi_BLE_SDK/GD32VW55x_RELEASE_V1.0.2/MSDK/cloud/alicloud/src/services/awss\zconfig_vendor_common.c ****         strncpy((char *)passwd, (const char *)aws_result_passwd, ZC_MAX_PASSWD_LEN - 1);
 2069              		.loc 1 740 5
 740:C:/Users/stapi/OneDrive/Desktop/GD32VW553/V1_MQTT_OK/GD32VW55X_Wifi_BLE_SDK/GD32VW55x_RELEASE_V1.0.2/MSDK/cloud/alicloud/src/services/awss\zconfig_vendor_common.c ****         strncpy((char *)passwd, (const char *)aws_result_passwd, ZC_MAX_PASSWD_LEN - 1);
 2070              		.loc 1 740 8 is_stmt 0
 2071 007e 630D0B00 		beq	s6,zero,.L165
 741:C:/Users/stapi/OneDrive/Desktop/GD32VW553/V1_MQTT_OK/GD32VW55X_Wifi_BLE_SDK/GD32VW55x_RELEASE_V1.0.2/MSDK/cloud/alicloud/src/services/awss\zconfig_vendor_common.c ****     }
 2072              		.loc 1 741 9 is_stmt 1
 2073 0082 B7050000 		lui	a1,%hi(.LANCHOR7)
 2074 0086 13060004 		li	a2,64
 2075 008a 93850500 		addi	a1,a1,%lo(.LANCHOR7)
 2076 008e 5A85     		mv	a0,s6
 2077 0090 97000000 		call	strncpy
 2077      E7800000 
 2078              	.LVL182:
 2079              	.L165:
 743:C:/Users/stapi/OneDrive/Desktop/GD32VW553/V1_MQTT_OK/GD32VW55X_Wifi_BLE_SDK/GD32VW55x_RELEASE_V1.0.2/MSDK/cloud/alicloud/src/services/awss\zconfig_vendor_common.c ****         memcpy(bssid, aws_result_bssid, ETH_ALEN);
 2080              		.loc 1 743 5
 743:C:/Users/stapi/OneDrive/Desktop/GD32VW553/V1_MQTT_OK/GD32VW55X_Wifi_BLE_SDK/GD32VW55x_RELEASE_V1.0.2/MSDK/cloud/alicloud/src/services/awss\zconfig_vendor_common.c ****         memcpy(bssid, aws_result_bssid, ETH_ALEN);
 2081              		.loc 1 743 8 is_stmt 0
 2082 0098 638C0A00 		beq	s5,zero,.L166
 744:C:/Users/stapi/OneDrive/Desktop/GD32VW553/V1_MQTT_OK/GD32VW55X_Wifi_BLE_SDK/GD32VW55x_RELEASE_V1.0.2/MSDK/cloud/alicloud/src/services/awss\zconfig_vendor_common.c ****     }
 2083              		.loc 1 744 9 is_stmt 1
 2084 009c B7050000 		lui	a1,%hi(.LANCHOR8)
 2085 00a0 1946     		li	a2,6
 2086 00a2 93850500 		addi	a1,a1,%lo(.LANCHOR8)
 2087 00a6 5685     		mv	a0,s5
 2088 00a8 97000000 		call	memcpy
 2088      E7800000 
 2089              	.LVL183:
 2090              	.L166:
 746:C:/Users/stapi/OneDrive/Desktop/GD32VW553/V1_MQTT_OK/GD32VW55X_Wifi_BLE_SDK/GD32VW55x_RELEASE_V1.0.2/MSDK/cloud/alicloud/src/services/awss\zconfig_vendor_common.c ****         memcpy(token, aws_result_token, ZC_MAX_TOKEN_LEN);
 2091              		.loc 1 746 5
 746:C:/Users/stapi/OneDrive/Desktop/GD32VW553/V1_MQTT_OK/GD32VW55X_Wifi_BLE_SDK/GD32VW55x_RELEASE_V1.0.2/MSDK/cloud/alicloud/src/services/awss\zconfig_vendor_common.c ****         memcpy(token, aws_result_token, ZC_MAX_TOKEN_LEN);
 2092              		.loc 1 746 8 is_stmt 0
 2093 00b0 630C0A00 		beq	s4,zero,.L167
 747:C:/Users/stapi/OneDrive/Desktop/GD32VW553/V1_MQTT_OK/GD32VW55X_Wifi_BLE_SDK/GD32VW55x_RELEASE_V1.0.2/MSDK/cloud/alicloud/src/services/awss\zconfig_vendor_common.c ****     }
 2094              		.loc 1 747 9 is_stmt 1
 2095 00b4 B7050000 		lui	a1,%hi(.LANCHOR4)
 2096 00b8 4146     		li	a2,16
 2097 00ba 93850500 		addi	a1,a1,%lo(.LANCHOR4)
 2098 00be 5285     		mv	a0,s4
 2099 00c0 97000000 		call	memcpy
 2099      E7800000 
 2100              	.LVL184:
 2101              	.L167:
 749:C:/Users/stapi/OneDrive/Desktop/GD32VW553/V1_MQTT_OK/GD32VW55X_Wifi_BLE_SDK/GD32VW55x_RELEASE_V1.0.2/MSDK/cloud/alicloud/src/services/awss\zconfig_vendor_common.c ****         *auth = aws_result_auth;
 2102              		.loc 1 749 5
 749:C:/Users/stapi/OneDrive/Desktop/GD32VW553/V1_MQTT_OK/GD32VW55X_Wifi_BLE_SDK/GD32VW55x_RELEASE_V1.0.2/MSDK/cloud/alicloud/src/services/awss\zconfig_vendor_common.c ****         *auth = aws_result_auth;
 2103              		.loc 1 749 8 is_stmt 0
 2104 00c8 63880900 		beq	s3,zero,.L168
 750:C:/Users/stapi/OneDrive/Desktop/GD32VW553/V1_MQTT_OK/GD32VW55X_Wifi_BLE_SDK/GD32VW55x_RELEASE_V1.0.2/MSDK/cloud/alicloud/src/services/awss\zconfig_vendor_common.c ****     }
 2105              		.loc 1 750 9 is_stmt 1
 750:C:/Users/stapi/OneDrive/Desktop/GD32VW553/V1_MQTT_OK/GD32VW55X_Wifi_BLE_SDK/GD32VW55x_RELEASE_V1.0.2/MSDK/cloud/alicloud/src/services/awss\zconfig_vendor_common.c ****     }
 2106              		.loc 1 750 15 is_stmt 0
 2107 00cc B7070000 		lui	a5,%hi(.LANCHOR9)
 2108 00d0 83C70700 		lbu	a5,%lo(.LANCHOR9)(a5)
 2109 00d4 2380F900 		sb	a5,0(s3)
 2110              	.L168:
 752:C:/Users/stapi/OneDrive/Desktop/GD32VW553/V1_MQTT_OK/GD32VW55X_Wifi_BLE_SDK/GD32VW55x_RELEASE_V1.0.2/MSDK/cloud/alicloud/src/services/awss\zconfig_vendor_common.c ****         *encry = aws_result_encry;
 2111              		.loc 1 752 5 is_stmt 1
 752:C:/Users/stapi/OneDrive/Desktop/GD32VW553/V1_MQTT_OK/GD32VW55X_Wifi_BLE_SDK/GD32VW55x_RELEASE_V1.0.2/MSDK/cloud/alicloud/src/services/awss\zconfig_vendor_common.c ****         *encry = aws_result_encry;
 2112              		.loc 1 752 8 is_stmt 0
 2113 00d8 63080900 		beq	s2,zero,.L169
 753:C:/Users/stapi/OneDrive/Desktop/GD32VW553/V1_MQTT_OK/GD32VW55X_Wifi_BLE_SDK/GD32VW55x_RELEASE_V1.0.2/MSDK/cloud/alicloud/src/services/awss\zconfig_vendor_common.c ****     }
 2114              		.loc 1 753 9 is_stmt 1
 753:C:/Users/stapi/OneDrive/Desktop/GD32VW553/V1_MQTT_OK/GD32VW55X_Wifi_BLE_SDK/GD32VW55x_RELEASE_V1.0.2/MSDK/cloud/alicloud/src/services/awss\zconfig_vendor_common.c ****     }
 2115              		.loc 1 753 16 is_stmt 0
 2116 00dc B7070000 		lui	a5,%hi(.LANCHOR10)
 2117 00e0 83C70700 		lbu	a5,%lo(.LANCHOR10)(a5)
 2118 00e4 2300F900 		sb	a5,0(s2)
 2119              	.L169:
 755:C:/Users/stapi/OneDrive/Desktop/GD32VW553/V1_MQTT_OK/GD32VW55X_Wifi_BLE_SDK/GD32VW55x_RELEASE_V1.0.2/MSDK/cloud/alicloud/src/services/awss\zconfig_vendor_common.c ****         *channel = aws_result_channel;
 2120              		.loc 1 755 5 is_stmt 1
 755:C:/Users/stapi/OneDrive/Desktop/GD32VW553/V1_MQTT_OK/GD32VW55X_Wifi_BLE_SDK/GD32VW55x_RELEASE_V1.0.2/MSDK/cloud/alicloud/src/services/awss\zconfig_vendor_common.c ****         *channel = aws_result_channel;
 2121              		.loc 1 755 8 is_stmt 0
 2122 00e8 99C4     		beq	s1,zero,.L170
 756:C:/Users/stapi/OneDrive/Desktop/GD32VW553/V1_MQTT_OK/GD32VW55X_Wifi_BLE_SDK/GD32VW55x_RELEASE_V1.0.2/MSDK/cloud/alicloud/src/services/awss\zconfig_vendor_common.c ****     }
 2123              		.loc 1 756 9 is_stmt 1
 756:C:/Users/stapi/OneDrive/Desktop/GD32VW553/V1_MQTT_OK/GD32VW55X_Wifi_BLE_SDK/GD32VW55x_RELEASE_V1.0.2/MSDK/cloud/alicloud/src/services/awss\zconfig_vendor_common.c ****     }
 2124              		.loc 1 756 18 is_stmt 0
 2125 00ea B7070000 		lui	a5,%hi(.LANCHOR11)
 2126 00ee 83C70700 		lbu	a5,%lo(.LANCHOR11)(a5)
 2127 00f2 2380F400 		sb	a5,0(s1)
 2128              	.L170:
 758:C:/Users/stapi/OneDrive/Desktop/GD32VW553/V1_MQTT_OK/GD32VW55X_Wifi_BLE_SDK/GD32VW55x_RELEASE_V1.0.2/MSDK/cloud/alicloud/src/services/awss\zconfig_vendor_common.c ****         *token_type = aws_result_token_type;
 2129              		.loc 1 758 5 is_stmt 1
 761:C:/Users/stapi/OneDrive/Desktop/GD32VW553/V1_MQTT_OK/GD32VW55X_Wifi_BLE_SDK/GD32VW55x_RELEASE_V1.0.2/MSDK/cloud/alicloud/src/services/awss\zconfig_vendor_common.c **** }
 2130              		.loc 1 761 12 is_stmt 0
 2131 00f6 0543     		li	t1,1
 758:C:/Users/stapi/OneDrive/Desktop/GD32VW553/V1_MQTT_OK/GD32VW55X_Wifi_BLE_SDK/GD32VW55x_RELEASE_V1.0.2/MSDK/cloud/alicloud/src/services/awss\zconfig_vendor_common.c ****         *token_type = aws_result_token_type;
 2132              		.loc 1 758 8
 2133 00f8 31D0     		beq	s0,zero,.L161
 759:C:/Users/stapi/OneDrive/Desktop/GD32VW553/V1_MQTT_OK/GD32VW55X_Wifi_BLE_SDK/GD32VW55x_RELEASE_V1.0.2/MSDK/cloud/alicloud/src/services/awss\zconfig_vendor_common.c ****     }
 2134              		.loc 1 759 9 is_stmt 1
 759:C:/Users/stapi/OneDrive/Desktop/GD32VW553/V1_MQTT_OK/GD32VW55X_Wifi_BLE_SDK/GD32VW55x_RELEASE_V1.0.2/MSDK/cloud/alicloud/src/services/awss\zconfig_vendor_common.c ****     }
 2135              		.loc 1 759 21 is_stmt 0
 2136 00fa B7070000 		lui	a5,%hi(.LANCHOR5)
 2137 00fe 83C70700 		lbu	a5,%lo(.LANCHOR5)(a5)
 2138 0102 2300F400 		sb	a5,0(s0)
 2139 0106 1DBF     		j	.L161
 2140              		.cfi_endproc
 2141              	.LFE66:
 2143              		.globl	zconfig_fixed_offset
 2144              		.globl	aws_result_auth
 2145              		.globl	aws_result_encry
 2146              		.globl	aws_result_channel
 2147              		.globl	aws_result_token_type
 2148              		.globl	aws_result_token
 2149              		.globl	aws_result_bssid
 2150              		.globl	aws_result_passwd
 2151              		.globl	aws_result_ssid
 2152              		.globl	aws_info
 2153              		.section	.bss.aws_result_passwd,"aw",@nobits
 2154              		.align	2
 2155              		.set	.LANCHOR7,. + 0
 2158              	aws_result_passwd:
 2159 0000 00000000 		.zero	66
 2159      00000000 
 2159      00000000 
 2159      00000000 
 2159      00000000 
 2160              		.section	.bss.aws_result_ssid,"aw",@nobits
 2161              		.align	2
 2162              		.set	.LANCHOR6,. + 0
 2165              	aws_result_ssid:
 2166 0000 00000000 		.zero	34
 2166      00000000 
 2166      00000000 
 2166      00000000 
 2166      00000000 
 2167              		.section	.bss.aws_result_token,"aw",@nobits
 2168              		.align	2
 2169              		.set	.LANCHOR4,. + 0
 2172              	aws_result_token:
 2173 0000 00000000 		.zero	16
 2173      00000000 
 2173      00000000 
 2173      00000000 
 2174              		.section	.rodata.__FUNCTION__.0,"a"
 2175              		.align	2
 2176              		.set	.LANCHOR17,. + 0
 2179              	__FUNCTION__.0:
 2180 0000 6177735F 		.string	"aws_get_ssid_passwd"
 2180      6765745F 
 2180      73736964 
 2180      5F706173 
 2180      73776400 
 2181              		.section	.rodata.__FUNCTION__.2,"a"
 2182              		.align	2
 2183              		.set	.LANCHOR14,. + 0
 2186              	__FUNCTION__.2:
 2187 0000 6177735F 		.string	"aws_main_thread_func"
 2187      6D61696E 
 2187      5F746872 
 2187      6561645F 
 2187      66756E63 
 2188              		.section	.rodata.__FUNCTION__.3,"a"
 2189              		.align	2
 2190              		.set	.LANCHOR13,. + 0
 2193              	__FUNCTION__.3:
 2194 0000 6177735F 		.string	"aws_is_chnscan_timeout"
 2194      69735F63 
 2194      686E7363 
 2194      616E5F74 
 2194      696D656F 
 2195              		.section	.rodata.zconfig_fixed_offset,"a"
 2196              		.align	2
 2199              	zconfig_fixed_offset:
 2200 0000 2424     		.ascii	"$$"
 2201 0002 2C2C     		.ascii	",,"
 2202 0004 3838     		.ascii	"88"
 2203 0006 3434     		.ascii	"44"
 2204 0008 3834     		.ascii	"84"
 2205              		.section	.sbss.aws_amend_dst_chan,"aw",@nobits
 2206              		.align	2
 2207              		.set	.LANCHOR12,. + 0
 2210              	aws_amend_dst_chan:
 2211 0000 00000000 		.zero	4
 2212              		.section	.sbss.aws_info,"aw",@nobits
 2213              		.align	2
 2214              		.set	.LANCHOR2,. + 0
 2217              	aws_info:
 2218 0000 00000000 		.zero	4
 2219              		.section	.sbss.aws_mutex,"aw",@nobits
 2220              		.align	2
 2221              		.set	.LANCHOR16,. + 0
 2224              	aws_mutex:
 2225 0000 00000000 		.zero	4
 2226              		.section	.sbss.aws_result_auth,"aw",@nobits
 2227              		.set	.LANCHOR9,. + 0
 2230              	aws_result_auth:
 2231 0000 00       		.zero	1
 2232              		.section	.sbss.aws_result_bssid,"aw",@nobits
 2233              		.align	2
 2234              		.set	.LANCHOR8,. + 0
 2237              	aws_result_bssid:
 2238 0000 00000000 		.zero	6
 2238      0000
 2239              		.section	.sbss.aws_result_channel,"aw",@nobits
 2240              		.set	.LANCHOR11,. + 0
 2243              	aws_result_channel:
 2244 0000 00       		.zero	1
 2245              		.section	.sbss.aws_result_encry,"aw",@nobits
 2246              		.set	.LANCHOR10,. + 0
 2249              	aws_result_encry:
 2250 0000 00       		.zero	1
 2251              		.section	.sbss.aws_result_token_type,"aw",@nobits
 2252              		.set	.LANCHOR5,. + 0
 2255              	aws_result_token_type:
 2256 0000 00       		.zero	1
 2257              		.section	.sbss.fixed_delta.4,"aw",@nobits
 2258              		.align	2
 2259              		.set	.LANCHOR1,. + 0
 2262              	fixed_delta.4:
 2263 0000 00000000 		.zero	4
 2264              		.section	.sbss.lock_start.1,"aw",@nobits
 2265              		.align	2
 2266              		.set	.LANCHOR3,. + 0
 2269              	lock_start.1:
 2270 0000 00000000 		.zero	4
 2271              		.section	.sbss.rescan_available,"aw",@nobits
 2272              		.set	.LANCHOR0,. + 0
 2275              	rescan_available:
 2276 0000 00       		.zero	1
 2277              		.section	.sbss.rescan_timer,"aw",@nobits
 2278              		.align	2
 2279              		.set	.LANCHOR15,. + 0
 2282              	rescan_timer:
 2283 0000 00000000 		.zero	4
 2284              		.text
 2285              	.Letext0:
 2286              		.file 4 "c:\\users\\stapi\\onedrive\\desktop\\gd32vw553\\embeddedbuilder_v1.4.7.26843\\tools\\nucl
 2287              		.file 5 "c:\\users\\stapi\\onedrive\\desktop\\gd32vw553\\embeddedbuilder_v1.4.7.26843\\tools\\nucl
 2288              		.file 6 "..\\..\\..\\..\\cloud\\alicloud\\include/exports/iot_export_event.h"
 2289              		.file 7 "..\\..\\..\\..\\cloud\\alicloud\\include/imports/iot_import_awss.h"
 2290              		.file 8 "..\\..\\..\\..\\cloud\\alicloud\\src\\services\\dev_bind\\os/platform.h"
 2291              		.file 9 "C:/Users/stapi/OneDrive/Desktop/GD32VW553/V1_MQTT_OK/GD32VW55X_Wifi_BLE_SDK/GD32VW55x_REL
 2292              		.file 10 "C:/Users/stapi/OneDrive/Desktop/GD32VW553/V1_MQTT_OK/GD32VW55X_Wifi_BLE_SDK/GD32VW55x_RE
 2293              		.file 11 "..\\..\\..\\..\\cloud\\alicloud\\include/iot_export.h"
 2294              		.file 12 "..\\..\\..\\..\\cloud\\alicloud\\src\\infra\\log/iotx_log.h"
 2295              		.file 13 "c:\\users\\stapi\\onedrive\\desktop\\gd32vw553\\embeddedbuilder_v1.4.7.26843\\tools\\nuc
 2296              		.file 14 "..\\..\\..\\..\\cloud\\alicloud\\include/iot_import.h"
 2297              		.file 15 "C:/Users/stapi/OneDrive/Desktop/GD32VW553/V1_MQTT_OK/GD32VW55X_Wifi_BLE_SDK/GD32VW55x_RE
 2298              		.file 16 "<built-in>"
 2299              		.file 17 "C:/Users/stapi/OneDrive/Desktop/GD32VW553/V1_MQTT_OK/GD32VW55X_Wifi_BLE_SDK/GD32VW55x_RE
 2300              		.file 18 "..\\..\\..\\..\\cloud\\alicloud\\src\\services\\dev_bind/awss_timer.h"
 2301              		.file 19 "C:/Users/stapi/OneDrive/Desktop/GD32VW553/V1_MQTT_OK/GD32VW55X_Wifi_BLE_SDK/GD32VW55x_RE
 2302              		.file 20 "..\\..\\..\\..\\cloud\\alicloud\\src\\services\\dev_bind/awss_event.h"
 2303              		.file 21 "..\\..\\..\\..\\cloud\\alicloud\\include/exports/iot_export_guider.h"
DEFINED SYMBOLS
                            *ABS*:0000000000000000 zconfig_vendor_common.c
C:\Users\stapi\AppData\Local\Temp\ccZUJhbd.s:12     .text.rescan_monitor:0000000000000000 rescan_monitor
C:\Users\stapi\AppData\Local\Temp\ccZUJhbd.s:16     .text.rescan_monitor:0000000000000000 .L0 
C:\Users\stapi\AppData\Local\Temp\ccZUJhbd.s:17     .text.rescan_monitor:0000000000000000 .L0 
C:\Users\stapi\AppData\Local\Temp\ccZUJhbd.s:18     .text.rescan_monitor:0000000000000000 .L0 
C:\Users\stapi\AppData\Local\Temp\ccZUJhbd.s:19     .text.rescan_monitor:0000000000000000 .L0 
C:\Users\stapi\AppData\Local\Temp\ccZUJhbd.s:23     .text.rescan_monitor:000000000000000a .L0 
C:\Users\stapi\AppData\Local\Temp\ccZUJhbd.s:24     .text.rescan_monitor:000000000000000c .L0 
C:\Users\stapi\AppData\Local\Temp\ccZUJhbd.s:30     .text.os_get_time_ms:0000000000000000 os_get_time_ms
C:\Users\stapi\AppData\Local\Temp\ccZUJhbd.s:34     .text.os_get_time_ms:0000000000000000 .L0 
C:\Users\stapi\AppData\Local\Temp\ccZUJhbd.s:35     .text.os_get_time_ms:0000000000000000 .L0 
C:\Users\stapi\AppData\Local\Temp\ccZUJhbd.s:36     .text.os_get_time_ms:0000000000000008 .L0 
C:\Users\stapi\AppData\Local\Temp\ccZUJhbd.s:37     .text.os_get_time_ms:0000000000000008 .L0 
C:\Users\stapi\AppData\Local\Temp\ccZUJhbd.s:38     .text.os_get_time_ms:0000000000000008 .L0 
C:\Users\stapi\AppData\Local\Temp\ccZUJhbd.s:40     .text.os_get_time_ms:0000000000000008 .L0 
C:\Users\stapi\AppData\Local\Temp\ccZUJhbd.s:41     .text.os_get_time_ms:0000000000000008 .L0 
C:\Users\stapi\AppData\Local\Temp\ccZUJhbd.s:42     .text.os_get_time_ms:0000000000000008 .L0 
C:\Users\stapi\AppData\Local\Temp\ccZUJhbd.s:44     .text.os_get_time_ms:000000000000000c .L0 
C:\Users\stapi\AppData\Local\Temp\ccZUJhbd.s:48     .text.os_get_time_ms:0000000000000016 .L0 
C:\Users\stapi\AppData\Local\Temp\ccZUJhbd.s:49     .text.os_get_time_ms:0000000000000016 .L0 
C:\Users\stapi\AppData\Local\Temp\ccZUJhbd.s:52     .text.os_get_time_ms:000000000000001e .L0 
C:\Users\stapi\AppData\Local\Temp\ccZUJhbd.s:55     .text.os_get_time_ms:0000000000000022 .L0 
C:\Users\stapi\AppData\Local\Temp\ccZUJhbd.s:58     .text.os_get_time_ms:0000000000000024 .L0 
C:\Users\stapi\AppData\Local\Temp\ccZUJhbd.s:59     .text.os_get_time_ms:0000000000000024 .L0 
C:\Users\stapi\AppData\Local\Temp\ccZUJhbd.s:62     .text.os_get_time_ms:000000000000002c .L0 
C:\Users\stapi\AppData\Local\Temp\ccZUJhbd.s:64     .text.os_get_time_ms:000000000000002e .L0 
C:\Users\stapi\AppData\Local\Temp\ccZUJhbd.s:66     .text.os_get_time_ms:0000000000000038 .L0 
C:\Users\stapi\AppData\Local\Temp\ccZUJhbd.s:67     .text.os_get_time_ms:0000000000000038 .L0 
C:\Users\stapi\AppData\Local\Temp\ccZUJhbd.s:68     .text.os_get_time_ms:0000000000000038 .L0 
C:\Users\stapi\AppData\Local\Temp\ccZUJhbd.s:69     .text.os_get_time_ms:0000000000000038 .L0 
C:\Users\stapi\AppData\Local\Temp\ccZUJhbd.s:76     .text.aws_80211_frame_handler:0000000000000000 aws_80211_frame_handler
C:\Users\stapi\AppData\Local\Temp\ccZUJhbd.s:79     .text.aws_80211_frame_handler:0000000000000000 .L0 
C:\Users\stapi\AppData\Local\Temp\ccZUJhbd.s:81     .text.aws_80211_frame_handler:0000000000000000 .L0 
C:\Users\stapi\AppData\Local\Temp\ccZUJhbd.s:82     .text.aws_80211_frame_handler:0000000000000008 .L0 
C:\Users\stapi\AppData\Local\Temp\ccZUJhbd.s:83     .text.aws_80211_frame_handler:0000000000000008 .L0 
C:\Users\stapi\AppData\Local\Temp\ccZUJhbd.s:84     .text.aws_80211_frame_handler:0000000000000008 .L0 
C:\Users\stapi\AppData\Local\Temp\ccZUJhbd.s:85     .text.aws_80211_frame_handler:0000000000000008 .L0 
C:\Users\stapi\AppData\Local\Temp\ccZUJhbd.s:86     .text.aws_80211_frame_handler:0000000000000008 .L0 
C:\Users\stapi\AppData\Local\Temp\ccZUJhbd.s:88     .text.aws_80211_frame_handler:0000000000000008 .L0 
C:\Users\stapi\AppData\Local\Temp\ccZUJhbd.s:89     .text.aws_80211_frame_handler:0000000000000008 .L0 
C:\Users\stapi\AppData\Local\Temp\ccZUJhbd.s:90     .text.aws_80211_frame_handler:0000000000000008 .L0 
C:\Users\stapi\AppData\Local\Temp\ccZUJhbd.s:93     .text.aws_80211_frame_handler:0000000000000010 .L0 
C:\Users\stapi\AppData\Local\Temp\ccZUJhbd.s:95     .text.aws_80211_frame_handler:0000000000000014 .L0 
C:\Users\stapi\AppData\Local\Temp\ccZUJhbd.s:97     .text.aws_80211_frame_handler:0000000000000016 .L0 
C:\Users\stapi\AppData\Local\Temp\ccZUJhbd.s:106    .text.aws_80211_frame_handler:0000000000000026 .L0 
C:\Users\stapi\AppData\Local\Temp\ccZUJhbd.s:108    .text.aws_80211_frame_handler:000000000000002a .L0 
C:\Users\stapi\AppData\Local\Temp\ccZUJhbd.s:110    .text.aws_80211_frame_handler:000000000000002c .L0 
C:\Users\stapi\AppData\Local\Temp\ccZUJhbd.s:113    .text.aws_80211_frame_handler:000000000000002e .L0 
C:\Users\stapi\AppData\Local\Temp\ccZUJhbd.s:114    .text.aws_80211_frame_handler:000000000000002e .L0 
C:\Users\stapi\AppData\Local\Temp\ccZUJhbd.s:118    .text.aws_80211_frame_handler:000000000000003a .L0 
C:\Users\stapi\AppData\Local\Temp\ccZUJhbd.s:121    .text.aws_80211_frame_handler:0000000000000040 .L0 
C:\Users\stapi\AppData\Local\Temp\ccZUJhbd.s:126    .text.aws_80211_frame_handler:000000000000004c .L0 
C:\Users\stapi\AppData\Local\Temp\ccZUJhbd.s:127    .text.aws_80211_frame_handler:000000000000004c .L0 
C:\Users\stapi\AppData\Local\Temp\ccZUJhbd.s:130    .text.aws_80211_frame_handler:0000000000000054 .L0 
C:\Users\stapi\AppData\Local\Temp\ccZUJhbd.s:133    .text.aws_80211_frame_handler:0000000000000058 .L0 
C:\Users\stapi\AppData\Local\Temp\ccZUJhbd.s:134    .text.aws_80211_frame_handler:0000000000000058 .L0 
C:\Users\stapi\AppData\Local\Temp\ccZUJhbd.s:136    .text.aws_80211_frame_handler:0000000000000062 .L0 
C:\Users\stapi\AppData\Local\Temp\ccZUJhbd.s:137    .text.aws_80211_frame_handler:0000000000000062 .L0 
C:\Users\stapi\AppData\Local\Temp\ccZUJhbd.s:138    .text.aws_80211_frame_handler:0000000000000062 .L0 
C:\Users\stapi\AppData\Local\Temp\ccZUJhbd.s:139    .text.aws_80211_frame_handler:0000000000000062 .L0 
C:\Users\stapi\AppData\Local\Temp\ccZUJhbd.s:140    .text.aws_80211_frame_handler:0000000000000062 .L0 
C:\Users\stapi\AppData\Local\Temp\ccZUJhbd.s:141    .text.aws_80211_frame_handler:0000000000000062 .L0 
C:\Users\stapi\AppData\Local\Temp\ccZUJhbd.s:143    .text.aws_80211_frame_handler:0000000000000062 .L0 
C:\Users\stapi\AppData\Local\Temp\ccZUJhbd.s:145    .text.aws_80211_frame_handler:0000000000000062 .L0 
C:\Users\stapi\AppData\Local\Temp\ccZUJhbd.s:149    .text.aws_80211_frame_handler:000000000000006a .L0 
C:\Users\stapi\AppData\Local\Temp\ccZUJhbd.s:150    .text.aws_80211_frame_handler:000000000000006a .L0 
C:\Users\stapi\AppData\Local\Temp\ccZUJhbd.s:155    .text.aws_80211_frame_handler:000000000000006e .L0 
C:\Users\stapi\AppData\Local\Temp\ccZUJhbd.s:156    .text.aws_80211_frame_handler:000000000000006e .L0 
C:\Users\stapi\AppData\Local\Temp\ccZUJhbd.s:161    .text.aws_80211_frame_handler:0000000000000076 .L0 
C:\Users\stapi\AppData\Local\Temp\ccZUJhbd.s:162    .text.aws_80211_frame_handler:0000000000000076 .L0 
C:\Users\stapi\AppData\Local\Temp\ccZUJhbd.s:166    .text.aws_80211_frame_handler:0000000000000078 .L0 
C:\Users\stapi\AppData\Local\Temp\ccZUJhbd.s:170    .text.aws_80211_frame_handler:000000000000007c .L0 
C:\Users\stapi\AppData\Local\Temp\ccZUJhbd.s:173    .text.aws_80211_frame_handler:0000000000000084 .L0 
C:\Users\stapi\AppData\Local\Temp\ccZUJhbd.s:174    .text.aws_80211_frame_handler:0000000000000084 .L0 
C:\Users\stapi\AppData\Local\Temp\ccZUJhbd.s:177    .text.aws_80211_frame_handler:000000000000008a .L0 
C:\Users\stapi\AppData\Local\Temp\ccZUJhbd.s:178    .text.aws_80211_frame_handler:000000000000008a .L0 
C:\Users\stapi\AppData\Local\Temp\ccZUJhbd.s:179    .text.aws_80211_frame_handler:000000000000008c .L0 
C:\Users\stapi\AppData\Local\Temp\ccZUJhbd.s:186    .text.zconfig_get_lock_chn:0000000000000000 zconfig_get_lock_chn
C:\Users\stapi\AppData\Local\Temp\ccZUJhbd.s:189    .text.zconfig_get_lock_chn:0000000000000000 .L0 
C:\Users\stapi\AppData\Local\Temp\ccZUJhbd.s:190    .text.zconfig_get_lock_chn:0000000000000000 .L0 
C:\Users\stapi\AppData\Local\Temp\ccZUJhbd.s:191    .text.zconfig_get_lock_chn:0000000000000000 .L0 
C:\Users\stapi\AppData\Local\Temp\ccZUJhbd.s:192    .text.zconfig_get_lock_chn:0000000000000000 .L0 
C:\Users\stapi\AppData\Local\Temp\ccZUJhbd.s:195    .text.zconfig_get_lock_chn:0000000000000008 .L0 
C:\Users\stapi\AppData\Local\Temp\ccZUJhbd.s:197    .text.zconfig_get_lock_chn:000000000000000e .L0 
C:\Users\stapi\AppData\Local\Temp\ccZUJhbd.s:204    .text.zconfig_force_rescan:0000000000000000 zconfig_force_rescan
C:\Users\stapi\AppData\Local\Temp\ccZUJhbd.s:207    .text.zconfig_force_rescan:0000000000000000 .L0 
C:\Users\stapi\AppData\Local\Temp\ccZUJhbd.s:208    .text.zconfig_force_rescan:0000000000000000 .L0 
C:\Users\stapi\AppData\Local\Temp\ccZUJhbd.s:209    .text.zconfig_force_rescan:0000000000000000 .L0 
C:\Users\stapi\AppData\Local\Temp\ccZUJhbd.s:210    .text.zconfig_force_rescan:0000000000000000 .L0 
C:\Users\stapi\AppData\Local\Temp\ccZUJhbd.s:213    .text.zconfig_force_rescan:0000000000000008 .L0 
C:\Users\stapi\AppData\Local\Temp\ccZUJhbd.s:215    .text.zconfig_force_rescan:000000000000000a .L0 
C:\Users\stapi\AppData\Local\Temp\ccZUJhbd.s:216    .text.zconfig_force_rescan:000000000000000a .L0 
C:\Users\stapi\AppData\Local\Temp\ccZUJhbd.s:219    .text.zconfig_force_rescan:000000000000000e .L0 
C:\Users\stapi\AppData\Local\Temp\ccZUJhbd.s:220    .text.zconfig_force_rescan:0000000000000010 .L0 
C:\Users\stapi\AppData\Local\Temp\ccZUJhbd.s:227    .text.zconfig_channel_locked_callback:0000000000000000 zconfig_channel_locked_callback
C:\Users\stapi\AppData\Local\Temp\ccZUJhbd.s:230    .text.zconfig_channel_locked_callback:0000000000000000 .L0 
C:\Users\stapi\AppData\Local\Temp\ccZUJhbd.s:232    .text.zconfig_channel_locked_callback:0000000000000000 .L0 
C:\Users\stapi\AppData\Local\Temp\ccZUJhbd.s:233    .text.zconfig_channel_locked_callback:0000000000000000 .L0 
C:\Users\stapi\AppData\Local\Temp\ccZUJhbd.s:236    .text.zconfig_channel_locked_callback:0000000000000008 .L0 
C:\Users\stapi\AppData\Local\Temp\ccZUJhbd.s:238    .text.zconfig_channel_locked_callback:000000000000000c .L0 
C:\Users\stapi\AppData\Local\Temp\ccZUJhbd.s:240    .text.zconfig_channel_locked_callback:0000000000000010 .L0 
C:\Users\stapi\AppData\Local\Temp\ccZUJhbd.s:241    .text.zconfig_channel_locked_callback:0000000000000010 .L0 
C:\Users\stapi\AppData\Local\Temp\ccZUJhbd.s:243    .text.zconfig_channel_locked_callback:0000000000000012 .L0 
C:\Users\stapi\AppData\Local\Temp\ccZUJhbd.s:244    .text.zconfig_channel_locked_callback:0000000000000012 .L0 
C:\Users\stapi\AppData\Local\Temp\ccZUJhbd.s:248    .text.zconfig_channel_locked_callback:0000000000000018 .L0 
C:\Users\stapi\AppData\Local\Temp\ccZUJhbd.s:253    .text.zconfig_channel_locked_callback:0000000000000024 .L0 
C:\Users\stapi\AppData\Local\Temp\ccZUJhbd.s:267    .text.zconfig_got_ssid_passwd_callback:0000000000000000 zconfig_got_ssid_passwd_callback
C:\Users\stapi\AppData\Local\Temp\ccZUJhbd.s:270    .text.zconfig_got_ssid_passwd_callback:0000000000000000 .L0 
C:\Users\stapi\AppData\Local\Temp\ccZUJhbd.s:272    .text.zconfig_got_ssid_passwd_callback:0000000000000000 .L0 
C:\Users\stapi\AppData\Local\Temp\ccZUJhbd.s:273    .text.zconfig_got_ssid_passwd_callback:0000000000000008 .L0 
C:\Users\stapi\AppData\Local\Temp\ccZUJhbd.s:274    .text.zconfig_got_ssid_passwd_callback:0000000000000008 .L0 
C:\Users\stapi\AppData\Local\Temp\ccZUJhbd.s:275    .text.zconfig_got_ssid_passwd_callback:0000000000000008 .L0 
C:\Users\stapi\AppData\Local\Temp\ccZUJhbd.s:276    .text.zconfig_got_ssid_passwd_callback:0000000000000008 .L0 
C:\Users\stapi\AppData\Local\Temp\ccZUJhbd.s:277    .text.zconfig_got_ssid_passwd_callback:0000000000000008 .L0 
C:\Users\stapi\AppData\Local\Temp\ccZUJhbd.s:278    .text.zconfig_got_ssid_passwd_callback:0000000000000008 .L0 
C:\Users\stapi\AppData\Local\Temp\ccZUJhbd.s:279    .text.zconfig_got_ssid_passwd_callback:0000000000000008 .L0 
C:\Users\stapi\AppData\Local\Temp\ccZUJhbd.s:280    .text.zconfig_got_ssid_passwd_callback:0000000000000008 .L0 
C:\Users\stapi\AppData\Local\Temp\ccZUJhbd.s:281    .text.zconfig_got_ssid_passwd_callback:0000000000000008 .L0 
C:\Users\stapi\AppData\Local\Temp\ccZUJhbd.s:282    .text.zconfig_got_ssid_passwd_callback:0000000000000008 .L0 
C:\Users\stapi\AppData\Local\Temp\ccZUJhbd.s:284    .text.zconfig_got_ssid_passwd_callback:0000000000000008 .L0 
C:\Users\stapi\AppData\Local\Temp\ccZUJhbd.s:285    .text.zconfig_got_ssid_passwd_callback:0000000000000008 .L0 
C:\Users\stapi\AppData\Local\Temp\ccZUJhbd.s:286    .text.zconfig_got_ssid_passwd_callback:000000000000000a .L0 
C:\Users\stapi\AppData\Local\Temp\ccZUJhbd.s:288    .text.zconfig_got_ssid_passwd_callback:000000000000000a .L0 
C:\Users\stapi\AppData\Local\Temp\ccZUJhbd.s:297    .text.zconfig_got_ssid_passwd_callback:000000000000001a .L0 
C:\Users\stapi\AppData\Local\Temp\ccZUJhbd.s:299    .text.zconfig_got_ssid_passwd_callback:000000000000001e .L0 
C:\Users\stapi\AppData\Local\Temp\ccZUJhbd.s:325    .text.zconfig_got_ssid_passwd_callback:0000000000000054 .L0 
C:\Users\stapi\AppData\Local\Temp\ccZUJhbd.s:326    .text.zconfig_got_ssid_passwd_callback:0000000000000054 .L0 
C:\Users\stapi\AppData\Local\Temp\ccZUJhbd.s:328    .text.zconfig_got_ssid_passwd_callback:0000000000000058 .L0 
C:\Users\stapi\AppData\Local\Temp\ccZUJhbd.s:336    .text.zconfig_got_ssid_passwd_callback:000000000000006c .L0 
C:\Users\stapi\AppData\Local\Temp\ccZUJhbd.s:337    .text.zconfig_got_ssid_passwd_callback:000000000000006c .L0 
C:\Users\stapi\AppData\Local\Temp\ccZUJhbd.s:340    .text.zconfig_got_ssid_passwd_callback:0000000000000074 .L0 
C:\Users\stapi\AppData\Local\Temp\ccZUJhbd.s:347    .text.zconfig_got_ssid_passwd_callback:000000000000008a .L0 
C:\Users\stapi\AppData\Local\Temp\ccZUJhbd.s:355    .text.zconfig_got_ssid_passwd_callback:00000000000000a0 .L0 
C:\Users\stapi\AppData\Local\Temp\ccZUJhbd.s:361    .text.zconfig_got_ssid_passwd_callback:00000000000000b2 .L0 
C:\Users\stapi\AppData\Local\Temp\ccZUJhbd.s:367    .text.zconfig_got_ssid_passwd_callback:00000000000000c4 .L0 
C:\Users\stapi\AppData\Local\Temp\ccZUJhbd.s:368    .text.zconfig_got_ssid_passwd_callback:00000000000000c4 .L0 
C:\Users\stapi\AppData\Local\Temp\ccZUJhbd.s:370    .text.zconfig_got_ssid_passwd_callback:00000000000000c6 .L0 
C:\Users\stapi\AppData\Local\Temp\ccZUJhbd.s:378    .text.zconfig_got_ssid_passwd_callback:00000000000000da .L0 
C:\Users\stapi\AppData\Local\Temp\ccZUJhbd.s:379    .text.zconfig_got_ssid_passwd_callback:00000000000000da .L0 
C:\Users\stapi\AppData\Local\Temp\ccZUJhbd.s:382    .text.zconfig_got_ssid_passwd_callback:00000000000000e2 .L0 
C:\Users\stapi\AppData\Local\Temp\ccZUJhbd.s:383    .text.zconfig_got_ssid_passwd_callback:00000000000000e2 .L0 
C:\Users\stapi\AppData\Local\Temp\ccZUJhbd.s:386    .text.zconfig_got_ssid_passwd_callback:00000000000000ea .L0 
C:\Users\stapi\AppData\Local\Temp\ccZUJhbd.s:387    .text.zconfig_got_ssid_passwd_callback:00000000000000ea .L0 
C:\Users\stapi\AppData\Local\Temp\ccZUJhbd.s:390    .text.zconfig_got_ssid_passwd_callback:00000000000000f2 .L0 
C:\Users\stapi\AppData\Local\Temp\ccZUJhbd.s:391    .text.zconfig_got_ssid_passwd_callback:00000000000000f2 .L0 
C:\Users\stapi\AppData\Local\Temp\ccZUJhbd.s:395    .text.zconfig_got_ssid_passwd_callback:00000000000000fc .L0 
C:\Users\stapi\AppData\Local\Temp\ccZUJhbd.s:397    .text.zconfig_got_ssid_passwd_callback:00000000000000fe .L0 
C:\Users\stapi\AppData\Local\Temp\ccZUJhbd.s:399    .text.zconfig_got_ssid_passwd_callback:0000000000000102 .L0 
C:\Users\stapi\AppData\Local\Temp\ccZUJhbd.s:403    .text.zconfig_got_ssid_passwd_callback:000000000000010c .L0 
C:\Users\stapi\AppData\Local\Temp\ccZUJhbd.s:407    .text.zconfig_got_ssid_passwd_callback:0000000000000118 .L0 
C:\Users\stapi\AppData\Local\Temp\ccZUJhbd.s:408    .text.zconfig_got_ssid_passwd_callback:000000000000011a .L0 
C:\Users\stapi\AppData\Local\Temp\ccZUJhbd.s:409    .text.zconfig_got_ssid_passwd_callback:000000000000011a .L0 
C:\Users\stapi\AppData\Local\Temp\ccZUJhbd.s:411    .text.zconfig_got_ssid_passwd_callback:0000000000000122 .L0 
C:\Users\stapi\AppData\Local\Temp\ccZUJhbd.s:412    .text.zconfig_got_ssid_passwd_callback:0000000000000122 .L0 
C:\Users\stapi\AppData\Local\Temp\ccZUJhbd.s:413    .text.zconfig_got_ssid_passwd_callback:0000000000000122 .L0 
C:\Users\stapi\AppData\Local\Temp\ccZUJhbd.s:414    .text.zconfig_got_ssid_passwd_callback:0000000000000122 .L0 
C:\Users\stapi\AppData\Local\Temp\ccZUJhbd.s:415    .text.zconfig_got_ssid_passwd_callback:0000000000000122 .L0 
C:\Users\stapi\AppData\Local\Temp\ccZUJhbd.s:416    .text.zconfig_got_ssid_passwd_callback:0000000000000122 .L0 
C:\Users\stapi\AppData\Local\Temp\ccZUJhbd.s:417    .text.zconfig_got_ssid_passwd_callback:0000000000000122 .L0 
C:\Users\stapi\AppData\Local\Temp\ccZUJhbd.s:418    .text.zconfig_got_ssid_passwd_callback:0000000000000122 .L0 
C:\Users\stapi\AppData\Local\Temp\ccZUJhbd.s:419    .text.zconfig_got_ssid_passwd_callback:0000000000000122 .L0 
C:\Users\stapi\AppData\Local\Temp\ccZUJhbd.s:420    .text.zconfig_got_ssid_passwd_callback:0000000000000122 .L0 
C:\Users\stapi\AppData\Local\Temp\ccZUJhbd.s:423    .text.zconfig_got_ssid_passwd_callback:0000000000000122 .L0 
C:\Users\stapi\AppData\Local\Temp\ccZUJhbd.s:425    .text.zconfig_got_ssid_passwd_callback:0000000000000122 .L0 
C:\Users\stapi\AppData\Local\Temp\ccZUJhbd.s:438    .text.zconfig_got_ssid_passwd_callback:000000000000013e .L0 
C:\Users\stapi\AppData\Local\Temp\ccZUJhbd.s:445    .text.aws_next_channel:0000000000000000 aws_next_channel
C:\Users\stapi\AppData\Local\Temp\ccZUJhbd.s:448    .text.aws_next_channel:0000000000000000 .L0 
C:\Users\stapi\AppData\Local\Temp\ccZUJhbd.s:449    .text.aws_next_channel:0000000000000000 .L0 
C:\Users\stapi\AppData\Local\Temp\ccZUJhbd.s:450    .text.aws_next_channel:0000000000000000 .L0 
C:\Users\stapi\AppData\Local\Temp\ccZUJhbd.s:453    .text.aws_next_channel:0000000000000008 .L0 
C:\Users\stapi\AppData\Local\Temp\ccZUJhbd.s:457    .text.aws_next_channel:000000000000000e .L0 
C:\Users\stapi\AppData\Local\Temp\ccZUJhbd.s:458    .text.aws_next_channel:000000000000000e .L0 
C:\Users\stapi\AppData\Local\Temp\ccZUJhbd.s:459    .text.aws_next_channel:000000000000000e .L0 
C:\Users\stapi\AppData\Local\Temp\ccZUJhbd.s:462    .text.aws_next_channel:0000000000000014 .L0 
C:\Users\stapi\AppData\Local\Temp\ccZUJhbd.s:463    .text.aws_next_channel:0000000000000014 .L0 
C:\Users\stapi\AppData\Local\Temp\ccZUJhbd.s:465    .text.aws_next_channel:0000000000000018 .L0 
C:\Users\stapi\AppData\Local\Temp\ccZUJhbd.s:468    .text.aws_next_channel:000000000000001a .L0 
C:\Users\stapi\AppData\Local\Temp\ccZUJhbd.s:469    .text.aws_next_channel:000000000000001a .L0 
C:\Users\stapi\AppData\Local\Temp\ccZUJhbd.s:472    .text.aws_next_channel:0000000000000022 .L0 
C:\Users\stapi\AppData\Local\Temp\ccZUJhbd.s:475    .text.aws_next_channel:0000000000000028 .L0 
C:\Users\stapi\AppData\Local\Temp\ccZUJhbd.s:476    .text.aws_next_channel:0000000000000028 .L0 
C:\Users\stapi\AppData\Local\Temp\ccZUJhbd.s:478    .text.aws_next_channel:000000000000002c .L0 
C:\Users\stapi\AppData\Local\Temp\ccZUJhbd.s:479    .text.aws_next_channel:000000000000002c .L0 
C:\Users\stapi\AppData\Local\Temp\ccZUJhbd.s:480    .text.aws_next_channel:000000000000002e .L0 
C:\Users\stapi\AppData\Local\Temp\ccZUJhbd.s:500    .text.aws_switch_channel:0000000000000000 aws_switch_channel
C:\Users\stapi\AppData\Local\Temp\ccZUJhbd.s:503    .text.aws_switch_channel:0000000000000000 .L0 
C:\Users\stapi\AppData\Local\Temp\ccZUJhbd.s:504    .text.aws_switch_channel:0000000000000000 .L0 
C:\Users\stapi\AppData\Local\Temp\ccZUJhbd.s:505    .text.aws_switch_channel:0000000000000008 .L0 
C:\Users\stapi\AppData\Local\Temp\ccZUJhbd.s:506    .text.aws_switch_channel:0000000000000008 .L0 
C:\Users\stapi\AppData\Local\Temp\ccZUJhbd.s:507    .text.aws_switch_channel:0000000000000008 .L0 
C:\Users\stapi\AppData\Local\Temp\ccZUJhbd.s:508    .text.aws_switch_channel:0000000000000008 .L0 
C:\Users\stapi\AppData\Local\Temp\ccZUJhbd.s:509    .text.aws_switch_channel:0000000000000008 .L0 
C:\Users\stapi\AppData\Local\Temp\ccZUJhbd.s:510    .text.aws_switch_channel:0000000000000008 .L0 
C:\Users\stapi\AppData\Local\Temp\ccZUJhbd.s:511    .text.aws_switch_channel:0000000000000008 .L0 
C:\Users\stapi\AppData\Local\Temp\ccZUJhbd.s:513    .text.aws_switch_channel:0000000000000008 .L0 
C:\Users\stapi\AppData\Local\Temp\ccZUJhbd.s:514    .text.aws_switch_channel:0000000000000008 .L0 
C:\Users\stapi\AppData\Local\Temp\ccZUJhbd.s:517    .text.aws_switch_channel:0000000000000010 .L0 
C:\Users\stapi\AppData\Local\Temp\ccZUJhbd.s:522    .text.aws_switch_channel:0000000000000012 .L0 
C:\Users\stapi\AppData\Local\Temp\ccZUJhbd.s:523    .text.aws_switch_channel:0000000000000012 .L0 
C:\Users\stapi\AppData\Local\Temp\ccZUJhbd.s:527    .text.aws_switch_channel:0000000000000016 .L0 
C:\Users\stapi\AppData\Local\Temp\ccZUJhbd.s:532    .text.aws_switch_channel:000000000000001e .L0 
C:\Users\stapi\AppData\Local\Temp\ccZUJhbd.s:537    .text.aws_switch_channel:0000000000000026 .L0 
C:\Users\stapi\AppData\Local\Temp\ccZUJhbd.s:538    .text.aws_switch_channel:0000000000000026 .L0 
C:\Users\stapi\AppData\Local\Temp\ccZUJhbd.s:542    .text.aws_switch_channel:0000000000000032 .L0 
C:\Users\stapi\AppData\Local\Temp\ccZUJhbd.s:548    .text.aws_switch_channel:0000000000000038 .L0 
C:\Users\stapi\AppData\Local\Temp\ccZUJhbd.s:549    .text.aws_switch_channel:0000000000000038 .L0 
C:\Users\stapi\AppData\Local\Temp\ccZUJhbd.s:550    .text.aws_switch_channel:0000000000000038 .L0 
C:\Users\stapi\AppData\Local\Temp\ccZUJhbd.s:552    .text.aws_switch_channel:000000000000003a .L0 
C:\Users\stapi\AppData\Local\Temp\ccZUJhbd.s:554    .text.aws_switch_channel:000000000000003c .L0 
C:\Users\stapi\AppData\Local\Temp\ccZUJhbd.s:557    .text.aws_switch_channel:0000000000000040 .L0 
C:\Users\stapi\AppData\Local\Temp\ccZUJhbd.s:558    .text.aws_switch_channel:0000000000000040 .L0 
C:\Users\stapi\AppData\Local\Temp\ccZUJhbd.s:562    .text.aws_switch_channel:0000000000000042 .L0 
C:\Users\stapi\AppData\Local\Temp\ccZUJhbd.s:563    .text.aws_switch_channel:0000000000000042 .L0 
C:\Users\stapi\AppData\Local\Temp\ccZUJhbd.s:565    .text.aws_switch_channel:0000000000000046 .L0 
C:\Users\stapi\AppData\Local\Temp\ccZUJhbd.s:569    .text.aws_switch_channel:0000000000000048 .L0 
C:\Users\stapi\AppData\Local\Temp\ccZUJhbd.s:570    .text.aws_switch_channel:0000000000000048 .L0 
C:\Users\stapi\AppData\Local\Temp\ccZUJhbd.s:573    .text.aws_switch_channel:000000000000004c .L0 
C:\Users\stapi\AppData\Local\Temp\ccZUJhbd.s:574    .text.aws_switch_channel:000000000000004c .L0 
C:\Users\stapi\AppData\Local\Temp\ccZUJhbd.s:577    .text.aws_switch_channel:0000000000000050 .L0 
C:\Users\stapi\AppData\Local\Temp\ccZUJhbd.s:578    .text.aws_switch_channel:0000000000000050 .L0 
C:\Users\stapi\AppData\Local\Temp\ccZUJhbd.s:580    .text.aws_switch_channel:0000000000000054 .L0 
C:\Users\stapi\AppData\Local\Temp\ccZUJhbd.s:581    .text.aws_switch_channel:0000000000000054 .L0 
C:\Users\stapi\AppData\Local\Temp\ccZUJhbd.s:585    .text.aws_switch_channel:000000000000005c .L0 
C:\Users\stapi\AppData\Local\Temp\ccZUJhbd.s:586    .text.aws_switch_channel:000000000000005c .L0 
C:\Users\stapi\AppData\Local\Temp\ccZUJhbd.s:588    .text.aws_switch_channel:0000000000000060 .L0 
C:\Users\stapi\AppData\Local\Temp\ccZUJhbd.s:589    .text.aws_switch_channel:0000000000000060 .L0 
C:\Users\stapi\AppData\Local\Temp\ccZUJhbd.s:592    .text.aws_switch_channel:0000000000000068 .L0 
C:\Users\stapi\AppData\Local\Temp\ccZUJhbd.s:594    .text.aws_switch_channel:000000000000006a .L0 
C:\Users\stapi\AppData\Local\Temp\ccZUJhbd.s:596    .text.aws_switch_channel:000000000000006c .L0 
C:\Users\stapi\AppData\Local\Temp\ccZUJhbd.s:597    .text.aws_switch_channel:000000000000006c .L0 
C:\Users\stapi\AppData\Local\Temp\ccZUJhbd.s:600    .text.aws_switch_channel:0000000000000072 .L0 
C:\Users\stapi\AppData\Local\Temp\ccZUJhbd.s:601    .text.aws_switch_channel:0000000000000072 .L0 
C:\Users\stapi\AppData\Local\Temp\ccZUJhbd.s:608    .text.aws_switch_channel:0000000000000078 .L0 
C:\Users\stapi\AppData\Local\Temp\ccZUJhbd.s:609    .text.aws_switch_channel:0000000000000078 .L0 
C:\Users\stapi\AppData\Local\Temp\ccZUJhbd.s:617    .text.aws_switch_channel:0000000000000088 .L0 
C:\Users\stapi\AppData\Local\Temp\ccZUJhbd.s:618    .text.aws_switch_channel:0000000000000088 .L0 
C:\Users\stapi\AppData\Local\Temp\ccZUJhbd.s:623    .text.aws_switch_channel:0000000000000098 .L0 
C:\Users\stapi\AppData\Local\Temp\ccZUJhbd.s:629    .text.aws_switch_channel:00000000000000aa .L0 
C:\Users\stapi\AppData\Local\Temp\ccZUJhbd.s:637    .text.aws_switch_channel:00000000000000ba .L0 
C:\Users\stapi\AppData\Local\Temp\ccZUJhbd.s:638    .text.aws_switch_channel:00000000000000ba .L0 
C:\Users\stapi\AppData\Local\Temp\ccZUJhbd.s:639    .text.aws_switch_channel:00000000000000ba .L0 
C:\Users\stapi\AppData\Local\Temp\ccZUJhbd.s:641    .text.aws_switch_channel:00000000000000be .L0 
C:\Users\stapi\AppData\Local\Temp\ccZUJhbd.s:646    .text.aws_switch_channel:00000000000000c2 .L0 
C:\Users\stapi\AppData\Local\Temp\ccZUJhbd.s:654    .text.aws_switch_channel:00000000000000c2 .L0 
C:\Users\stapi\AppData\Local\Temp\ccZUJhbd.s:663    .text.aws_switch_channel:00000000000000ce .L0 
C:\Users\stapi\AppData\Local\Temp\ccZUJhbd.s:664    .text.aws_switch_channel:00000000000000d6 .L0 
C:\Users\stapi\AppData\Local\Temp\ccZUJhbd.s:665    .text.aws_switch_channel:00000000000000d6 .L0 
C:\Users\stapi\AppData\Local\Temp\ccZUJhbd.s:666    .text.aws_switch_channel:00000000000000d6 .L0 
C:\Users\stapi\AppData\Local\Temp\ccZUJhbd.s:667    .text.aws_switch_channel:00000000000000d6 .L0 
C:\Users\stapi\AppData\Local\Temp\ccZUJhbd.s:668    .text.aws_switch_channel:00000000000000d6 .L0 
C:\Users\stapi\AppData\Local\Temp\ccZUJhbd.s:669    .text.aws_switch_channel:00000000000000d6 .L0 
C:\Users\stapi\AppData\Local\Temp\ccZUJhbd.s:670    .text.aws_switch_channel:00000000000000d6 .L0 
C:\Users\stapi\AppData\Local\Temp\ccZUJhbd.s:671    .text.aws_switch_channel:00000000000000d6 .L0 
C:\Users\stapi\AppData\Local\Temp\ccZUJhbd.s:674    .text.aws_switch_channel:00000000000000d6 .L0 
C:\Users\stapi\AppData\Local\Temp\ccZUJhbd.s:678    .text.aws_switch_channel:00000000000000d6 .L0 
C:\Users\stapi\AppData\Local\Temp\ccZUJhbd.s:679    .text.aws_switch_channel:00000000000000d6 .L0 
C:\Users\stapi\AppData\Local\Temp\ccZUJhbd.s:682    .text.aws_switch_channel:00000000000000de .L0 
C:\Users\stapi\AppData\Local\Temp\ccZUJhbd.s:684    .text.aws_switch_channel:00000000000000e0 .L0 
C:\Users\stapi\AppData\Local\Temp\ccZUJhbd.s:685    .text.aws_switch_channel:00000000000000e0 .L0 
C:\Users\stapi\AppData\Local\Temp\ccZUJhbd.s:688    .text.aws_switch_channel:00000000000000e4 .L0 
C:\Users\stapi\AppData\Local\Temp\ccZUJhbd.s:689    .text.aws_switch_channel:00000000000000e4 .L0 
C:\Users\stapi\AppData\Local\Temp\ccZUJhbd.s:694    .text.aws_switch_channel:00000000000000e8 .L0 
C:\Users\stapi\AppData\Local\Temp\ccZUJhbd.s:695    .text.aws_switch_channel:00000000000000e8 .L0 
C:\Users\stapi\AppData\Local\Temp\ccZUJhbd.s:698    .text.aws_switch_channel:00000000000000f0 .L0 
C:\Users\stapi\AppData\Local\Temp\ccZUJhbd.s:700    .text.aws_switch_channel:00000000000000f2 .L0 
C:\Users\stapi\AppData\Local\Temp\ccZUJhbd.s:701    .text.aws_switch_channel:00000000000000f2 .L0 
C:\Users\stapi\AppData\Local\Temp\ccZUJhbd.s:704    .text.aws_switch_channel:00000000000000f6 .L0 
C:\Users\stapi\AppData\Local\Temp\ccZUJhbd.s:705    .text.aws_switch_channel:00000000000000f6 .L0 
C:\Users\stapi\AppData\Local\Temp\ccZUJhbd.s:715    .text.aws_switch_channel:00000000000000fa .L0 
C:\Users\stapi\AppData\Local\Temp\ccZUJhbd.s:716    .text.aws_switch_channel:00000000000000fa .L0 
C:\Users\stapi\AppData\Local\Temp\ccZUJhbd.s:718    .text.aws_switch_channel:00000000000000fc .L0 
C:\Users\stapi\AppData\Local\Temp\ccZUJhbd.s:725    .text.aws_switch_channel:0000000000000106 .L0 
C:\Users\stapi\AppData\Local\Temp\ccZUJhbd.s:726    .text.aws_switch_channel:0000000000000106 .L0 
C:\Users\stapi\AppData\Local\Temp\ccZUJhbd.s:730    .text.aws_switch_channel:0000000000000106 .L0 
C:\Users\stapi\AppData\Local\Temp\ccZUJhbd.s:733    .text.aws_switch_channel:0000000000000106 .L0 
C:\Users\stapi\AppData\Local\Temp\ccZUJhbd.s:734    .text.aws_switch_channel:0000000000000106 .L0 
C:\Users\stapi\AppData\Local\Temp\ccZUJhbd.s:740    .text.aws_switch_channel:000000000000010c .L0 
C:\Users\stapi\AppData\Local\Temp\ccZUJhbd.s:741    .text.aws_switch_channel:000000000000010c .L0 
C:\Users\stapi\AppData\Local\Temp\ccZUJhbd.s:742    .text.aws_switch_channel:000000000000010c .L0 
C:\Users\stapi\AppData\Local\Temp\ccZUJhbd.s:743    .text.aws_switch_channel:000000000000010c .L0 
C:\Users\stapi\AppData\Local\Temp\ccZUJhbd.s:746    .text.aws_switch_channel:0000000000000114 .L0 
C:\Users\stapi\AppData\Local\Temp\ccZUJhbd.s:748    .text.aws_switch_channel:0000000000000116 .L0 
C:\Users\stapi\AppData\Local\Temp\ccZUJhbd.s:751    .text.aws_switch_channel:0000000000000118 .L0 
C:\Users\stapi\AppData\Local\Temp\ccZUJhbd.s:752    .text.aws_switch_channel:0000000000000118 .L0 
C:\Users\stapi\AppData\Local\Temp\ccZUJhbd.s:757    .text.aws_switch_channel:0000000000000120 .L0 
C:\Users\stapi\AppData\Local\Temp\ccZUJhbd.s:761    .text.aws_switch_channel:0000000000000122 .L0 
C:\Users\stapi\AppData\Local\Temp\ccZUJhbd.s:766    .text.aws_switch_channel:0000000000000124 .L0 
C:\Users\stapi\AppData\Local\Temp\ccZUJhbd.s:767    .text.aws_switch_channel:0000000000000124 .L0 
C:\Users\stapi\AppData\Local\Temp\ccZUJhbd.s:774    .text.aws_switch_channel:0000000000000132 .L0 
C:\Users\stapi\AppData\Local\Temp\ccZUJhbd.s:775    .text.aws_switch_channel:0000000000000132 .L0 
C:\Users\stapi\AppData\Local\Temp\ccZUJhbd.s:780    .text.aws_switch_channel:0000000000000142 .L0 
C:\Users\stapi\AppData\Local\Temp\ccZUJhbd.s:786    .text.aws_switch_channel:0000000000000154 .L0 
C:\Users\stapi\AppData\Local\Temp\ccZUJhbd.s:794    .text.aws_switch_channel:0000000000000166 .L0 
C:\Users\stapi\AppData\Local\Temp\ccZUJhbd.s:801    .text.aws_set_dst_chan:0000000000000000 aws_set_dst_chan
C:\Users\stapi\AppData\Local\Temp\ccZUJhbd.s:804    .text.aws_set_dst_chan:0000000000000000 .L0 
C:\Users\stapi\AppData\Local\Temp\ccZUJhbd.s:806    .text.aws_set_dst_chan:0000000000000000 .L0 
C:\Users\stapi\AppData\Local\Temp\ccZUJhbd.s:807    .text.aws_set_dst_chan:0000000000000008 .L0 
C:\Users\stapi\AppData\Local\Temp\ccZUJhbd.s:808    .text.aws_set_dst_chan:0000000000000008 .L0 
C:\Users\stapi\AppData\Local\Temp\ccZUJhbd.s:809    .text.aws_set_dst_chan:0000000000000008 .L0 
C:\Users\stapi\AppData\Local\Temp\ccZUJhbd.s:810    .text.aws_set_dst_chan:0000000000000008 .L0 
C:\Users\stapi\AppData\Local\Temp\ccZUJhbd.s:812    .text.aws_set_dst_chan:0000000000000008 .L0 
C:\Users\stapi\AppData\Local\Temp\ccZUJhbd.s:813    .text.aws_set_dst_chan:0000000000000008 .L0 
C:\Users\stapi\AppData\Local\Temp\ccZUJhbd.s:816    .text.aws_set_dst_chan:0000000000000010 .L0 
C:\Users\stapi\AppData\Local\Temp\ccZUJhbd.s:822    .text.aws_set_dst_chan:0000000000000014 .L0 
C:\Users\stapi\AppData\Local\Temp\ccZUJhbd.s:823    .text.aws_set_dst_chan:0000000000000014 .L0 
C:\Users\stapi\AppData\Local\Temp\ccZUJhbd.s:830    .text.aws_set_dst_chan:0000000000000020 .L0 
C:\Users\stapi\AppData\Local\Temp\ccZUJhbd.s:831    .text.aws_set_dst_chan:0000000000000020 .L0 
C:\Users\stapi\AppData\Local\Temp\ccZUJhbd.s:837    .text.aws_set_dst_chan:0000000000000028 .L0 
C:\Users\stapi\AppData\Local\Temp\ccZUJhbd.s:840    .text.aws_set_dst_chan:0000000000000028 .L0 
C:\Users\stapi\AppData\Local\Temp\ccZUJhbd.s:841    .text.aws_set_dst_chan:0000000000000028 .L0 
C:\Users\stapi\AppData\Local\Temp\ccZUJhbd.s:845    .text.aws_set_dst_chan:000000000000002c .L0 
C:\Users\stapi\AppData\Local\Temp\ccZUJhbd.s:852    .text.aws_set_dst_chan:0000000000000038 .L0 
C:\Users\stapi\AppData\Local\Temp\ccZUJhbd.s:853    .text.aws_set_dst_chan:0000000000000040 .L0 
C:\Users\stapi\AppData\Local\Temp\ccZUJhbd.s:854    .text.aws_set_dst_chan:0000000000000040 .L0 
C:\Users\stapi\AppData\Local\Temp\ccZUJhbd.s:855    .text.aws_set_dst_chan:0000000000000040 .L0 
C:\Users\stapi\AppData\Local\Temp\ccZUJhbd.s:856    .text.aws_set_dst_chan:0000000000000040 .L0 
C:\Users\stapi\AppData\Local\Temp\ccZUJhbd.s:857    .text.aws_set_dst_chan:0000000000000040 .L0 
C:\Users\stapi\AppData\Local\Temp\ccZUJhbd.s:871    .text.aws_is_chnscan_timeout:0000000000000000 aws_is_chnscan_timeout
C:\Users\stapi\AppData\Local\Temp\ccZUJhbd.s:874    .text.aws_is_chnscan_timeout:0000000000000000 .L0 
C:\Users\stapi\AppData\Local\Temp\ccZUJhbd.s:875    .text.aws_is_chnscan_timeout:0000000000000000 .L0 
C:\Users\stapi\AppData\Local\Temp\ccZUJhbd.s:876    .text.aws_is_chnscan_timeout:0000000000000008 .L0 
C:\Users\stapi\AppData\Local\Temp\ccZUJhbd.s:877    .text.aws_is_chnscan_timeout:0000000000000008 .L0 
C:\Users\stapi\AppData\Local\Temp\ccZUJhbd.s:878    .text.aws_is_chnscan_timeout:0000000000000008 .L0 
C:\Users\stapi\AppData\Local\Temp\ccZUJhbd.s:879    .text.aws_is_chnscan_timeout:0000000000000008 .L0 
C:\Users\stapi\AppData\Local\Temp\ccZUJhbd.s:881    .text.aws_is_chnscan_timeout:0000000000000008 .L0 
C:\Users\stapi\AppData\Local\Temp\ccZUJhbd.s:882    .text.aws_is_chnscan_timeout:0000000000000008 .L0 
C:\Users\stapi\AppData\Local\Temp\ccZUJhbd.s:886    .text.aws_is_chnscan_timeout:0000000000000012 .L0 
C:\Users\stapi\AppData\Local\Temp\ccZUJhbd.s:890    .text.aws_is_chnscan_timeout:000000000000001c .L0 
C:\Users\stapi\AppData\Local\Temp\ccZUJhbd.s:901    .text.aws_is_chnscan_timeout:0000000000000042 .L0 
C:\Users\stapi\AppData\Local\Temp\ccZUJhbd.s:902    .text.aws_is_chnscan_timeout:0000000000000042 .L0 
C:\Users\stapi\AppData\Local\Temp\ccZUJhbd.s:905    .text.aws_is_chnscan_timeout:0000000000000044 .L0 
C:\Users\stapi\AppData\Local\Temp\ccZUJhbd.s:907    .text.aws_is_chnscan_timeout:000000000000004e .L0 
C:\Users\stapi\AppData\Local\Temp\ccZUJhbd.s:908    .text.aws_is_chnscan_timeout:000000000000004e .L0 
C:\Users\stapi\AppData\Local\Temp\ccZUJhbd.s:909    .text.aws_is_chnscan_timeout:000000000000004e .L0 
C:\Users\stapi\AppData\Local\Temp\ccZUJhbd.s:910    .text.aws_is_chnscan_timeout:000000000000004e .L0 
C:\Users\stapi\AppData\Local\Temp\ccZUJhbd.s:911    .text.aws_is_chnscan_timeout:000000000000004e .L0 
C:\Users\stapi\AppData\Local\Temp\ccZUJhbd.s:913    .text.aws_is_chnscan_timeout:000000000000004e .L0 
C:\Users\stapi\AppData\Local\Temp\ccZUJhbd.s:915    .text.aws_is_chnscan_timeout:000000000000004e .L0 
C:\Users\stapi\AppData\Local\Temp\ccZUJhbd.s:916    .text.aws_is_chnscan_timeout:000000000000004e .L0 
C:\Users\stapi\AppData\Local\Temp\ccZUJhbd.s:921    .text.aws_is_chnscan_timeout:0000000000000050 .L0 
C:\Users\stapi\AppData\Local\Temp\ccZUJhbd.s:922    .text.aws_is_chnscan_timeout:0000000000000050 .L0 
C:\Users\stapi\AppData\Local\Temp\ccZUJhbd.s:925    .text.aws_is_chnscan_timeout:0000000000000058 .L0 
C:\Users\stapi\AppData\Local\Temp\ccZUJhbd.s:926    .text.aws_is_chnscan_timeout:0000000000000058 .L0 
C:\Users\stapi\AppData\Local\Temp\ccZUJhbd.s:933    .text.aws_is_chnscan_timeout:000000000000005c .L0 
C:\Users\stapi\AppData\Local\Temp\ccZUJhbd.s:934    .text.aws_is_chnscan_timeout:000000000000005c .L0 
C:\Users\stapi\AppData\Local\Temp\ccZUJhbd.s:939    .text.aws_is_chnscan_timeout:0000000000000064 .L0 
C:\Users\stapi\AppData\Local\Temp\ccZUJhbd.s:941    .text.aws_is_chnscan_timeout:0000000000000066 .L0 
C:\Users\stapi\AppData\Local\Temp\ccZUJhbd.s:947    .text.aws_is_chnscan_timeout:000000000000006a .L0 
C:\Users\stapi\AppData\Local\Temp\ccZUJhbd.s:948    .text.aws_is_chnscan_timeout:000000000000006a .L0 
C:\Users\stapi\AppData\Local\Temp\ccZUJhbd.s:949    .text.aws_is_chnscan_timeout:000000000000006a .L0 
C:\Users\stapi\AppData\Local\Temp\ccZUJhbd.s:954    .text.aws_is_chnscan_timeout:0000000000000072 .L0 
C:\Users\stapi\AppData\Local\Temp\ccZUJhbd.s:956    .text.aws_is_chnscan_timeout:0000000000000074 .L0 
C:\Users\stapi\AppData\Local\Temp\ccZUJhbd.s:962    .text.aws_is_chnscan_timeout:0000000000000078 .L0 
C:\Users\stapi\AppData\Local\Temp\ccZUJhbd.s:963    .text.aws_is_chnscan_timeout:0000000000000078 .L0 
C:\Users\stapi\AppData\Local\Temp\ccZUJhbd.s:966    .text.aws_is_chnscan_timeout:0000000000000080 .L0 
C:\Users\stapi\AppData\Local\Temp\ccZUJhbd.s:967    .text.aws_is_chnscan_timeout:0000000000000080 .L0 
C:\Users\stapi\AppData\Local\Temp\ccZUJhbd.s:974    .text.aws_is_chnscan_timeout:0000000000000084 .L0 
C:\Users\stapi\AppData\Local\Temp\ccZUJhbd.s:975    .text.aws_is_chnscan_timeout:0000000000000084 .L0 
C:\Users\stapi\AppData\Local\Temp\ccZUJhbd.s:980    .text.aws_is_chnscan_timeout:000000000000008c .L0 
C:\Users\stapi\AppData\Local\Temp\ccZUJhbd.s:982    .text.aws_is_chnscan_timeout:000000000000008e .L0 
C:\Users\stapi\AppData\Local\Temp\ccZUJhbd.s:985    .text.aws_is_chnscan_timeout:0000000000000092 .L0 
C:\Users\stapi\AppData\Local\Temp\ccZUJhbd.s:989    .text.aws_is_chnscan_timeout:0000000000000096 .L0 
C:\Users\stapi\AppData\Local\Temp\ccZUJhbd.s:996    .text.zconfig_add_active_channel:0000000000000000 zconfig_add_active_channel
C:\Users\stapi\AppData\Local\Temp\ccZUJhbd.s:999    .text.zconfig_add_active_channel:0000000000000000 .L0 
C:\Users\stapi\AppData\Local\Temp\ccZUJhbd.s:1001   .text.zconfig_add_active_channel:0000000000000000 .L0 
C:\Users\stapi\AppData\Local\Temp\ccZUJhbd.s:1002   .text.zconfig_add_active_channel:0000000000000000 .L0 
C:\Users\stapi\AppData\Local\Temp\ccZUJhbd.s:1006   .text.zconfig_add_active_channel:0000000000000000 .L0 
C:\Users\stapi\AppData\Local\Temp\ccZUJhbd.s:1007   .text.zconfig_add_active_channel:0000000000000000 .L0 
C:\Users\stapi\AppData\Local\Temp\ccZUJhbd.s:1008   .text.zconfig_add_active_channel:0000000000000000 .L0 
C:\Users\stapi\AppData\Local\Temp\ccZUJhbd.s:1012   .text.zconfig_add_active_channel:0000000000000004 .L0 
C:\Users\stapi\AppData\Local\Temp\ccZUJhbd.s:1015   .text.zconfig_add_active_channel:000000000000000a .L0 
C:\Users\stapi\AppData\Local\Temp\ccZUJhbd.s:1016   .text.zconfig_add_active_channel:000000000000000a .L0 
C:\Users\stapi\AppData\Local\Temp\ccZUJhbd.s:1021   .text.zconfig_add_active_channel:0000000000000018 .L0 
C:\Users\stapi\AppData\Local\Temp\ccZUJhbd.s:1022   .text.zconfig_add_active_channel:0000000000000018 .L0 
C:\Users\stapi\AppData\Local\Temp\ccZUJhbd.s:1028   .text.zconfig_add_active_channel:000000000000001c .L0 
C:\Users\stapi\AppData\Local\Temp\ccZUJhbd.s:1031   .text.zconfig_add_active_channel:000000000000001e .L0 
C:\Users\stapi\AppData\Local\Temp\ccZUJhbd.s:1032   .text.zconfig_add_active_channel:0000000000000020 .L0 
C:\Users\stapi\AppData\Local\Temp\ccZUJhbd.s:1039   .text.aws_force_scanning:0000000000000000 aws_force_scanning
C:\Users\stapi\AppData\Local\Temp\ccZUJhbd.s:1042   .text.aws_force_scanning:0000000000000000 .L0 
C:\Users\stapi\AppData\Local\Temp\ccZUJhbd.s:1043   .text.aws_force_scanning:0000000000000000 .L0 
C:\Users\stapi\AppData\Local\Temp\ccZUJhbd.s:1044   .text.aws_force_scanning:0000000000000000 .L0 
C:\Users\stapi\AppData\Local\Temp\ccZUJhbd.s:1045   .text.aws_force_scanning:0000000000000000 .L0 
C:\Users\stapi\AppData\Local\Temp\ccZUJhbd.s:1047   .text.aws_force_scanning:0000000000000004 .L0 
C:\Users\stapi\AppData\Local\Temp\ccZUJhbd.s:1085   .text.aws_main_thread_func:0000000000000000 aws_main_thread_func
C:\Users\stapi\AppData\Local\Temp\ccZUJhbd.s:1088   .text.aws_main_thread_func:0000000000000000 .L0 
C:\Users\stapi\AppData\Local\Temp\ccZUJhbd.s:1089   .text.aws_main_thread_func:0000000000000000 .L0 
C:\Users\stapi\AppData\Local\Temp\ccZUJhbd.s:1090   .text.aws_main_thread_func:0000000000000008 .L0 
C:\Users\stapi\AppData\Local\Temp\ccZUJhbd.s:1091   .text.aws_main_thread_func:0000000000000008 .L0 
C:\Users\stapi\AppData\Local\Temp\ccZUJhbd.s:1092   .text.aws_main_thread_func:0000000000000008 .L0 
C:\Users\stapi\AppData\Local\Temp\ccZUJhbd.s:1093   .text.aws_main_thread_func:0000000000000008 .L0 
C:\Users\stapi\AppData\Local\Temp\ccZUJhbd.s:1094   .text.aws_main_thread_func:0000000000000008 .L0 
C:\Users\stapi\AppData\Local\Temp\ccZUJhbd.s:1095   .text.aws_main_thread_func:0000000000000008 .L0 
C:\Users\stapi\AppData\Local\Temp\ccZUJhbd.s:1096   .text.aws_main_thread_func:0000000000000008 .L0 
C:\Users\stapi\AppData\Local\Temp\ccZUJhbd.s:1097   .text.aws_main_thread_func:0000000000000008 .L0 
C:\Users\stapi\AppData\Local\Temp\ccZUJhbd.s:1098   .text.aws_main_thread_func:0000000000000008 .L0 
C:\Users\stapi\AppData\Local\Temp\ccZUJhbd.s:1099   .text.aws_main_thread_func:0000000000000008 .L0 
C:\Users\stapi\AppData\Local\Temp\ccZUJhbd.s:1100   .text.aws_main_thread_func:0000000000000008 .L0 
C:\Users\stapi\AppData\Local\Temp\ccZUJhbd.s:1101   .text.aws_main_thread_func:0000000000000008 .L0 
C:\Users\stapi\AppData\Local\Temp\ccZUJhbd.s:1102   .text.aws_main_thread_func:0000000000000008 .L0 
C:\Users\stapi\AppData\Local\Temp\ccZUJhbd.s:1104   .text.aws_main_thread_func:0000000000000008 .L0 
C:\Users\stapi\AppData\Local\Temp\ccZUJhbd.s:1107   .text.aws_main_thread_func:0000000000000010 .L0 
C:\Users\stapi\AppData\Local\Temp\ccZUJhbd.s:1108   .text.aws_main_thread_func:0000000000000012 .L0 
C:\Users\stapi\AppData\Local\Temp\ccZUJhbd.s:1110   .text.aws_main_thread_func:0000000000000012 .L0 
C:\Users\stapi\AppData\Local\Temp\ccZUJhbd.s:1113   .text.aws_main_thread_func:000000000000001a .L0 
C:\Users\stapi\AppData\Local\Temp\ccZUJhbd.s:1115   .text.aws_main_thread_func:000000000000001c .L0 
C:\Users\stapi\AppData\Local\Temp\ccZUJhbd.s:1119   .text.aws_main_thread_func:0000000000000028 .L0 
C:\Users\stapi\AppData\Local\Temp\ccZUJhbd.s:1121   .text.aws_main_thread_func:000000000000002c .L0 
C:\Users\stapi\AppData\Local\Temp\ccZUJhbd.s:1123   .text.aws_main_thread_func:0000000000000030 .L0 
C:\Users\stapi\AppData\Local\Temp\ccZUJhbd.s:1129   .text.aws_main_thread_func:000000000000003c .L0 
C:\Users\stapi\AppData\Local\Temp\ccZUJhbd.s:1134   .text.aws_main_thread_func:0000000000000040 .L0 
C:\Users\stapi\AppData\Local\Temp\ccZUJhbd.s:1142   .text.aws_main_thread_func:0000000000000054 .L0 
C:\Users\stapi\AppData\Local\Temp\ccZUJhbd.s:1143   .text.aws_main_thread_func:0000000000000054 .L0 
C:\Users\stapi\AppData\Local\Temp\ccZUJhbd.s:1146   .text.aws_main_thread_func:0000000000000058 .L0 
C:\Users\stapi\AppData\Local\Temp\ccZUJhbd.s:1148   .text.aws_main_thread_func:000000000000005a .L0 
C:\Users\stapi\AppData\Local\Temp\ccZUJhbd.s:1152   .text.aws_main_thread_func:000000000000005c .L0 
C:\Users\stapi\AppData\Local\Temp\ccZUJhbd.s:1155   .text.aws_main_thread_func:0000000000000062 .L0 
C:\Users\stapi\AppData\Local\Temp\ccZUJhbd.s:1157   .text.aws_main_thread_func:0000000000000064 .L0 
C:\Users\stapi\AppData\Local\Temp\ccZUJhbd.s:1162   .text.aws_main_thread_func:000000000000006a .L0 
C:\Users\stapi\AppData\Local\Temp\ccZUJhbd.s:1163   .text.aws_main_thread_func:000000000000006a .L0 
C:\Users\stapi\AppData\Local\Temp\ccZUJhbd.s:1166   .text.aws_main_thread_func:0000000000000072 .L0 
C:\Users\stapi\AppData\Local\Temp\ccZUJhbd.s:1170   .text.aws_main_thread_func:000000000000007a .L0 
C:\Users\stapi\AppData\Local\Temp\ccZUJhbd.s:1171   .text.aws_main_thread_func:000000000000007a .L0 
C:\Users\stapi\AppData\Local\Temp\ccZUJhbd.s:1173   .text.aws_main_thread_func:000000000000007c .L0 
C:\Users\stapi\AppData\Local\Temp\ccZUJhbd.s:1176   .text.aws_main_thread_func:0000000000000084 .L0 
C:\Users\stapi\AppData\Local\Temp\ccZUJhbd.s:1177   .text.aws_main_thread_func:0000000000000084 .L0 
C:\Users\stapi\AppData\Local\Temp\ccZUJhbd.s:1182   .text.aws_main_thread_func:000000000000008c .L0 
C:\Users\stapi\AppData\Local\Temp\ccZUJhbd.s:1184   .text.aws_main_thread_func:000000000000008e .L0 
C:\Users\stapi\AppData\Local\Temp\ccZUJhbd.s:1186   .text.aws_main_thread_func:0000000000000090 .L0 
C:\Users\stapi\AppData\Local\Temp\ccZUJhbd.s:1191   .text.aws_main_thread_func:0000000000000092 .L0 
C:\Users\stapi\AppData\Local\Temp\ccZUJhbd.s:1192   .text.aws_main_thread_func:0000000000000092 .L0 
C:\Users\stapi\AppData\Local\Temp\ccZUJhbd.s:1197   .text.aws_main_thread_func:000000000000009a .L0 
C:\Users\stapi\AppData\Local\Temp\ccZUJhbd.s:1198   .text.aws_main_thread_func:000000000000009a .L0 
C:\Users\stapi\AppData\Local\Temp\ccZUJhbd.s:1208   .text.aws_main_thread_func:00000000000000bc .L0 
C:\Users\stapi\AppData\Local\Temp\ccZUJhbd.s:1211   .text.aws_main_thread_func:00000000000000c4 .L0 
C:\Users\stapi\AppData\Local\Temp\ccZUJhbd.s:1222   .text.aws_main_thread_func:00000000000000e8 .L0 
C:\Users\stapi\AppData\Local\Temp\ccZUJhbd.s:1223   .text.aws_main_thread_func:00000000000000e8 .L0 
C:\Users\stapi\AppData\Local\Temp\ccZUJhbd.s:1226   .text.aws_main_thread_func:00000000000000ea .L0 
C:\Users\stapi\AppData\Local\Temp\ccZUJhbd.s:1227   .text.aws_main_thread_func:00000000000000ea .L0 
C:\Users\stapi\AppData\Local\Temp\ccZUJhbd.s:1229   .text.aws_main_thread_func:00000000000000ec .L0 
C:\Users\stapi\AppData\Local\Temp\ccZUJhbd.s:1232   .text.aws_main_thread_func:00000000000000f4 .L0 
C:\Users\stapi\AppData\Local\Temp\ccZUJhbd.s:1237   .text.aws_main_thread_func:00000000000000f6 .L0 
C:\Users\stapi\AppData\Local\Temp\ccZUJhbd.s:1238   .text.aws_main_thread_func:00000000000000f6 .L0 
C:\Users\stapi\AppData\Local\Temp\ccZUJhbd.s:1243   .text.aws_main_thread_func:00000000000000fe .L0 
C:\Users\stapi\AppData\Local\Temp\ccZUJhbd.s:1244   .text.aws_main_thread_func:00000000000000fe .L0 
C:\Users\stapi\AppData\Local\Temp\ccZUJhbd.s:1255   .text.aws_main_thread_func:0000000000000120 .L0 
C:\Users\stapi\AppData\Local\Temp\ccZUJhbd.s:1256   .text.aws_main_thread_func:0000000000000120 .L0 
C:\Users\stapi\AppData\Local\Temp\ccZUJhbd.s:1262   .text.aws_main_thread_func:0000000000000132 .L0 
C:\Users\stapi\AppData\Local\Temp\ccZUJhbd.s:1263   .text.aws_main_thread_func:0000000000000132 .L0 
C:\Users\stapi\AppData\Local\Temp\ccZUJhbd.s:1265   .text.aws_main_thread_func:0000000000000136 .L0 
C:\Users\stapi\AppData\Local\Temp\ccZUJhbd.s:1270   .text.aws_main_thread_func:000000000000013a .L0 
C:\Users\stapi\AppData\Local\Temp\ccZUJhbd.s:1271   .text.aws_main_thread_func:000000000000013a .L0 
C:\Users\stapi\AppData\Local\Temp\ccZUJhbd.s:1279   .text.aws_main_thread_func:0000000000000146 .L0 
C:\Users\stapi\AppData\Local\Temp\ccZUJhbd.s:1282   .text.aws_main_thread_func:0000000000000146 .L0 
C:\Users\stapi\AppData\Local\Temp\ccZUJhbd.s:1283   .text.aws_main_thread_func:0000000000000146 .L0 
C:\Users\stapi\AppData\Local\Temp\ccZUJhbd.s:1287   .text.aws_main_thread_func:000000000000014a .L0 
C:\Users\stapi\AppData\Local\Temp\ccZUJhbd.s:1293   .text.aws_main_thread_func:0000000000000156 .L0 
C:\Users\stapi\AppData\Local\Temp\ccZUJhbd.s:1300   .text.aws_main_thread_func:000000000000016c .L0 
C:\Users\stapi\AppData\Local\Temp\ccZUJhbd.s:1301   .text.aws_main_thread_func:000000000000016c .L0 
C:\Users\stapi\AppData\Local\Temp\ccZUJhbd.s:1303   .text.aws_main_thread_func:000000000000016e .L0 
C:\Users\stapi\AppData\Local\Temp\ccZUJhbd.s:1305   .text.aws_main_thread_func:0000000000000172 .L0 
C:\Users\stapi\AppData\Local\Temp\ccZUJhbd.s:1309   .text.aws_main_thread_func:000000000000017c .L0 
C:\Users\stapi\AppData\Local\Temp\ccZUJhbd.s:1313   .text.aws_main_thread_func:0000000000000184 .L0 
C:\Users\stapi\AppData\Local\Temp\ccZUJhbd.s:1318   .text.aws_main_thread_func:0000000000000192 .L0 
C:\Users\stapi\AppData\Local\Temp\ccZUJhbd.s:1321   .text.aws_main_thread_func:000000000000019a .L0 
C:\Users\stapi\AppData\Local\Temp\ccZUJhbd.s:1322   .text.aws_main_thread_func:000000000000019c .L0 
C:\Users\stapi\AppData\Local\Temp\ccZUJhbd.s:1323   .text.aws_main_thread_func:000000000000019c .L0 
C:\Users\stapi\AppData\Local\Temp\ccZUJhbd.s:1325   .text.aws_main_thread_func:00000000000001a4 .L0 
C:\Users\stapi\AppData\Local\Temp\ccZUJhbd.s:1326   .text.aws_main_thread_func:00000000000001a4 .L0 
C:\Users\stapi\AppData\Local\Temp\ccZUJhbd.s:1327   .text.aws_main_thread_func:00000000000001a4 .L0 
C:\Users\stapi\AppData\Local\Temp\ccZUJhbd.s:1328   .text.aws_main_thread_func:00000000000001a4 .L0 
C:\Users\stapi\AppData\Local\Temp\ccZUJhbd.s:1329   .text.aws_main_thread_func:00000000000001a4 .L0 
C:\Users\stapi\AppData\Local\Temp\ccZUJhbd.s:1330   .text.aws_main_thread_func:00000000000001a4 .L0 
C:\Users\stapi\AppData\Local\Temp\ccZUJhbd.s:1331   .text.aws_main_thread_func:00000000000001a4 .L0 
C:\Users\stapi\AppData\Local\Temp\ccZUJhbd.s:1332   .text.aws_main_thread_func:00000000000001a4 .L0 
C:\Users\stapi\AppData\Local\Temp\ccZUJhbd.s:1333   .text.aws_main_thread_func:00000000000001a4 .L0 
C:\Users\stapi\AppData\Local\Temp\ccZUJhbd.s:1334   .text.aws_main_thread_func:00000000000001a4 .L0 
C:\Users\stapi\AppData\Local\Temp\ccZUJhbd.s:1335   .text.aws_main_thread_func:00000000000001a4 .L0 
C:\Users\stapi\AppData\Local\Temp\ccZUJhbd.s:1336   .text.aws_main_thread_func:00000000000001a4 .L0 
C:\Users\stapi\AppData\Local\Temp\ccZUJhbd.s:1337   .text.aws_main_thread_func:00000000000001a4 .L0 
C:\Users\stapi\AppData\Local\Temp\ccZUJhbd.s:1339   .text.aws_main_thread_func:00000000000001a4 .L0 
C:\Users\stapi\AppData\Local\Temp\ccZUJhbd.s:1342   .text.aws_main_thread_func:00000000000001a4 .L0 
C:\Users\stapi\AppData\Local\Temp\ccZUJhbd.s:1345   .text.aws_main_thread_func:00000000000001ac .L0 
C:\Users\stapi\AppData\Local\Temp\ccZUJhbd.s:1350   .text.aws_main_thread_func:00000000000001ae .L0 
C:\Users\stapi\AppData\Local\Temp\ccZUJhbd.s:1351   .text.aws_main_thread_func:00000000000001ae .L0 
C:\Users\stapi\AppData\Local\Temp\ccZUJhbd.s:1352   .text.aws_main_thread_func:00000000000001ae .L0 
C:\Users\stapi\AppData\Local\Temp\ccZUJhbd.s:1359   .text.aws_main_thread_func:00000000000001b8 .L0 
C:\Users\stapi\AppData\Local\Temp\ccZUJhbd.s:1360   .text.aws_main_thread_func:00000000000001b8 .L0 
C:\Users\stapi\AppData\Local\Temp\ccZUJhbd.s:1363   .text.aws_main_thread_func:00000000000001ba .L0 
C:\Users\stapi\AppData\Local\Temp\ccZUJhbd.s:1365   .text.aws_main_thread_func:00000000000001be .L0 
C:\Users\stapi\AppData\Local\Temp\ccZUJhbd.s:1368   .text.aws_main_thread_func:00000000000001c0 .L0 
C:\Users\stapi\AppData\Local\Temp\ccZUJhbd.s:1374   .text.aws_main_thread_func:00000000000001c4 .L0 
C:\Users\stapi\AppData\Local\Temp\ccZUJhbd.s:1375   .text.aws_main_thread_func:00000000000001c4 .L0 
C:\Users\stapi\AppData\Local\Temp\ccZUJhbd.s:1381   .text.aws_main_thread_func:00000000000001ce .L0 
C:\Users\stapi\AppData\Local\Temp\ccZUJhbd.s:1386   .text.aws_main_thread_func:00000000000001d6 .L0 
C:\Users\stapi\AppData\Local\Temp\ccZUJhbd.s:1387   .text.aws_main_thread_func:00000000000001d6 .L0 
C:\Users\stapi\AppData\Local\Temp\ccZUJhbd.s:1395   .text.aws_main_thread_func:00000000000001e0 .L0 
C:\Users\stapi\AppData\Local\Temp\ccZUJhbd.s:1396   .text.aws_main_thread_func:00000000000001e0 .L0 
C:\Users\stapi\AppData\Local\Temp\ccZUJhbd.s:1400   .text.aws_main_thread_func:00000000000001ea .L0 
C:\Users\stapi\AppData\Local\Temp\ccZUJhbd.s:1409   .text.aws_main_thread_func:00000000000001ec .L0 
C:\Users\stapi\AppData\Local\Temp\ccZUJhbd.s:1410   .text.aws_main_thread_func:00000000000001ec .L0 
C:\Users\stapi\AppData\Local\Temp\ccZUJhbd.s:1416   .text.aws_main_thread_func:00000000000001f8 .L0 
C:\Users\stapi\AppData\Local\Temp\ccZUJhbd.s:1417   .text.aws_main_thread_func:00000000000001f8 .L0 
C:\Users\stapi\AppData\Local\Temp\ccZUJhbd.s:1419   .text.aws_main_thread_func:00000000000001fa .L0 
C:\Users\stapi\AppData\Local\Temp\ccZUJhbd.s:1422   .text.aws_main_thread_func:0000000000000202 .L0 
C:\Users\stapi\AppData\Local\Temp\ccZUJhbd.s:1425   .text.aws_main_thread_func:000000000000020a .L0 
C:\Users\stapi\AppData\Local\Temp\ccZUJhbd.s:1426   .text.aws_main_thread_func:000000000000020a .L0 
C:\Users\stapi\AppData\Local\Temp\ccZUJhbd.s:1429   .text.aws_main_thread_func:0000000000000212 .L0 
C:\Users\stapi\AppData\Local\Temp\ccZUJhbd.s:1431   .text.aws_main_thread_func:0000000000000216 .L0 
C:\Users\stapi\AppData\Local\Temp\ccZUJhbd.s:1432   .text.aws_main_thread_func:0000000000000216 .L0 
C:\Users\stapi\AppData\Local\Temp\ccZUJhbd.s:1434   .text.aws_main_thread_func:0000000000000218 .L0 
C:\Users\stapi\AppData\Local\Temp\ccZUJhbd.s:1437   .text.aws_main_thread_func:0000000000000220 .L0 
C:\Users\stapi\AppData\Local\Temp\ccZUJhbd.s:1446   .text.aws_main_thread_func:000000000000023e .L0 
C:\Users\stapi\AppData\Local\Temp\ccZUJhbd.s:1447   .text.aws_main_thread_func:000000000000023e .L0 
C:\Users\stapi\AppData\Local\Temp\ccZUJhbd.s:1449   .text.aws_main_thread_func:0000000000000242 .L0 
C:\Users\stapi\AppData\Local\Temp\ccZUJhbd.s:1452   .text.aws_main_thread_func:0000000000000244 .L0 
C:\Users\stapi\AppData\Local\Temp\ccZUJhbd.s:1453   .text.aws_main_thread_func:0000000000000244 .L0 
C:\Users\stapi\AppData\Local\Temp\ccZUJhbd.s:1456   .text.aws_main_thread_func:000000000000024a .L0 
C:\Users\stapi\AppData\Local\Temp\ccZUJhbd.s:1459   .text.aws_main_thread_func:000000000000024e .L0 
C:\Users\stapi\AppData\Local\Temp\ccZUJhbd.s:1462   .text.aws_main_thread_func:0000000000000256 .L0 
C:\Users\stapi\AppData\Local\Temp\ccZUJhbd.s:1463   .text.aws_main_thread_func:0000000000000256 .L0 
C:\Users\stapi\AppData\Local\Temp\ccZUJhbd.s:1467   .text.aws_main_thread_func:000000000000025e .L0 
C:\Users\stapi\AppData\Local\Temp\ccZUJhbd.s:1471   .text.aws_main_thread_func:0000000000000260 .L0 
C:\Users\stapi\AppData\Local\Temp\ccZUJhbd.s:1472   .text.aws_main_thread_func:0000000000000260 .L0 
C:\Users\stapi\AppData\Local\Temp\ccZUJhbd.s:1476   .text.aws_main_thread_func:0000000000000266 .L0 
C:\Users\stapi\AppData\Local\Temp\ccZUJhbd.s:1477   .text.aws_main_thread_func:0000000000000266 .L0 
C:\Users\stapi\AppData\Local\Temp\ccZUJhbd.s:1485   .text.aws_main_thread_func:0000000000000280 .L0 
C:\Users\stapi\AppData\Local\Temp\ccZUJhbd.s:1486   .text.aws_main_thread_func:0000000000000280 .L0 
C:\Users\stapi\AppData\Local\Temp\ccZUJhbd.s:1487   .text.aws_main_thread_func:0000000000000280 .L0 
C:\Users\stapi\AppData\Local\Temp\ccZUJhbd.s:1489   .text.aws_main_thread_func:0000000000000282 .L0 
C:\Users\stapi\AppData\Local\Temp\ccZUJhbd.s:1493   .text.aws_main_thread_func:000000000000028c .L0 
C:\Users\stapi\AppData\Local\Temp\ccZUJhbd.s:1494   .text.aws_main_thread_func:000000000000028c .L0 
C:\Users\stapi\AppData\Local\Temp\ccZUJhbd.s:1496   .text.aws_main_thread_func:0000000000000290 .L0 
C:\Users\stapi\AppData\Local\Temp\ccZUJhbd.s:1500   .text.aws_main_thread_func:000000000000029a .L0 
C:\Users\stapi\AppData\Local\Temp\ccZUJhbd.s:1501   .text.aws_main_thread_func:000000000000029a .L0 
C:\Users\stapi\AppData\Local\Temp\ccZUJhbd.s:1509   .text.aws_main_thread_func:00000000000002b4 .L0 
C:\Users\stapi\AppData\Local\Temp\ccZUJhbd.s:1512   .text.aws_main_thread_func:00000000000002b6 .L0 
C:\Users\stapi\AppData\Local\Temp\ccZUJhbd.s:1514   .text.aws_main_thread_func:00000000000002b8 .L0 
C:\Users\stapi\AppData\Local\Temp\ccZUJhbd.s:1516   .text.aws_main_thread_func:00000000000002bc .L0 
C:\Users\stapi\AppData\Local\Temp\ccZUJhbd.s:1518   .text.aws_main_thread_func:00000000000002be .L0 
C:\Users\stapi\AppData\Local\Temp\ccZUJhbd.s:1521   .text.aws_main_thread_func:00000000000002c6 .L0 
C:\Users\stapi\AppData\Local\Temp\ccZUJhbd.s:1529   .text.aws_main_thread_func:00000000000002d8 .L0 
C:\Users\stapi\AppData\Local\Temp\ccZUJhbd.s:1530   .text.aws_main_thread_func:00000000000002d8 .L0 
C:\Users\stapi\AppData\Local\Temp\ccZUJhbd.s:1536   .text.aws_main_thread_func:00000000000002e0 .L0 
C:\Users\stapi\AppData\Local\Temp\ccZUJhbd.s:1540   .text.aws_main_thread_func:00000000000002ea .L0 
C:\Users\stapi\AppData\Local\Temp\ccZUJhbd.s:1541   .text.aws_main_thread_func:00000000000002ea .L0 
C:\Users\stapi\AppData\Local\Temp\ccZUJhbd.s:1544   .text.aws_main_thread_func:00000000000002f2 .L0 
C:\Users\stapi\AppData\Local\Temp\ccZUJhbd.s:1546   .text.aws_main_thread_func:00000000000002f4 .L0 
C:\Users\stapi\AppData\Local\Temp\ccZUJhbd.s:1548   .text.aws_main_thread_func:00000000000002f6 .L0 
C:\Users\stapi\AppData\Local\Temp\ccZUJhbd.s:1552   .text.aws_main_thread_func:00000000000002fe .L0 
C:\Users\stapi\AppData\Local\Temp\ccZUJhbd.s:1557   .text.aws_main_thread_func:0000000000000308 .L0 
C:\Users\stapi\AppData\Local\Temp\ccZUJhbd.s:1558   .text.aws_main_thread_func:0000000000000308 .L0 
C:\Users\stapi\AppData\Local\Temp\ccZUJhbd.s:1559   .text.aws_main_thread_func:0000000000000308 .L0 
C:\Users\stapi\AppData\Local\Temp\ccZUJhbd.s:1562   .text.aws_main_thread_func:000000000000030c .L0 
C:\Users\stapi\AppData\Local\Temp\ccZUJhbd.s:1563   .text.aws_main_thread_func:000000000000030c .L0 
C:\Users\stapi\AppData\Local\Temp\ccZUJhbd.s:1564   .text.aws_main_thread_func:000000000000030c .L0 
C:\Users\stapi\AppData\Local\Temp\ccZUJhbd.s:1566   .text.aws_main_thread_func:000000000000030e .L0 
C:\Users\stapi\AppData\Local\Temp\ccZUJhbd.s:1570   .text.aws_main_thread_func:0000000000000318 .L0 
C:\Users\stapi\AppData\Local\Temp\ccZUJhbd.s:1571   .text.aws_main_thread_func:0000000000000318 .L0 
C:\Users\stapi\AppData\Local\Temp\ccZUJhbd.s:1574   .text.aws_main_thread_func:000000000000031e .L0 
C:\Users\stapi\AppData\Local\Temp\ccZUJhbd.s:1577   .text.aws_main_thread_func:0000000000000320 .L0 
C:\Users\stapi\AppData\Local\Temp\ccZUJhbd.s:1591   .text.aws_main_thread_func:0000000000000340 .L0 
C:\Users\stapi\AppData\Local\Temp\ccZUJhbd.s:1592   .text.aws_main_thread_func:0000000000000340 .L0 
C:\Users\stapi\AppData\Local\Temp\ccZUJhbd.s:1596   .text.aws_main_thread_func:000000000000034c .L0 
C:\Users\stapi\AppData\Local\Temp\ccZUJhbd.s:1602   .text.aws_main_thread_func:000000000000034e .L0 
C:\Users\stapi\AppData\Local\Temp\ccZUJhbd.s:1603   .text.aws_main_thread_func:000000000000034e .L0 
C:\Users\stapi\AppData\Local\Temp\ccZUJhbd.s:1605   .text.aws_main_thread_func:0000000000000352 .L0 
C:\Users\stapi\AppData\Local\Temp\ccZUJhbd.s:1606   .text.aws_main_thread_func:0000000000000352 .L0 
C:\Users\stapi\AppData\Local\Temp\ccZUJhbd.s:1609   .text.aws_main_thread_func:000000000000035a .L0 
C:\Users\stapi\AppData\Local\Temp\ccZUJhbd.s:1611   .text.aws_main_thread_func:000000000000035c .L0 
C:\Users\stapi\AppData\Local\Temp\ccZUJhbd.s:1615   .text.aws_main_thread_func:0000000000000364 .L0 
C:\Users\stapi\AppData\Local\Temp\ccZUJhbd.s:1617   .text.aws_main_thread_func:0000000000000366 .L0 
C:\Users\stapi\AppData\Local\Temp\ccZUJhbd.s:1620   .text.aws_main_thread_func:000000000000036e .L0 
C:\Users\stapi\AppData\Local\Temp\ccZUJhbd.s:1624   .text.aws_main_thread_func:0000000000000370 .L0 
C:\Users\stapi\AppData\Local\Temp\ccZUJhbd.s:1625   .text.aws_main_thread_func:0000000000000370 .L0 
C:\Users\stapi\AppData\Local\Temp\ccZUJhbd.s:1631   .text.aws_main_thread_func:000000000000037c .L0 
C:\Users\stapi\AppData\Local\Temp\ccZUJhbd.s:1634   .text.aws_main_thread_func:000000000000037e .L0 
C:\Users\stapi\AppData\Local\Temp\ccZUJhbd.s:1637   .text.aws_main_thread_func:0000000000000388 .L0 
C:\Users\stapi\AppData\Local\Temp\ccZUJhbd.s:1644   .text.aws_start:0000000000000000 aws_start
C:\Users\stapi\AppData\Local\Temp\ccZUJhbd.s:1647   .text.aws_start:0000000000000000 .L0 
C:\Users\stapi\AppData\Local\Temp\ccZUJhbd.s:1649   .text.aws_start:0000000000000000 .L0 
C:\Users\stapi\AppData\Local\Temp\ccZUJhbd.s:1650   .text.aws_start:0000000000000008 .L0 
C:\Users\stapi\AppData\Local\Temp\ccZUJhbd.s:1651   .text.aws_start:0000000000000008 .L0 
C:\Users\stapi\AppData\Local\Temp\ccZUJhbd.s:1652   .text.aws_start:0000000000000008 .L0 
C:\Users\stapi\AppData\Local\Temp\ccZUJhbd.s:1653   .text.aws_start:0000000000000008 .L0 
C:\Users\stapi\AppData\Local\Temp\ccZUJhbd.s:1658   .text.aws_start:0000000000000008 .L0 
C:\Users\stapi\AppData\Local\Temp\ccZUJhbd.s:1661   .text.aws_start:0000000000000008 .L0 
C:\Users\stapi\AppData\Local\Temp\ccZUJhbd.s:1662   .text.aws_start:0000000000000008 .L0 
C:\Users\stapi\AppData\Local\Temp\ccZUJhbd.s:1663   .text.aws_start:0000000000000008 .L0 
C:\Users\stapi\AppData\Local\Temp\ccZUJhbd.s:1672   .text.aws_start:0000000000000016 .L0 
C:\Users\stapi\AppData\Local\Temp\ccZUJhbd.s:1673   .text.aws_start:0000000000000016 .L0 
C:\Users\stapi\AppData\Local\Temp\ccZUJhbd.s:1675   .text.aws_start:0000000000000018 .L0 
C:\Users\stapi\AppData\Local\Temp\ccZUJhbd.s:1683   .text.aws_start:0000000000000026 .L0 
C:\Users\stapi\AppData\Local\Temp\ccZUJhbd.s:1684   .text.aws_start:0000000000000026 .L0 
C:\Users\stapi\AppData\Local\Temp\ccZUJhbd.s:1688   .text.aws_start:0000000000000030 .L0 
C:\Users\stapi\AppData\Local\Temp\ccZUJhbd.s:1689   .text.aws_start:0000000000000030 .L0 
C:\Users\stapi\AppData\Local\Temp\ccZUJhbd.s:1691   .text.aws_start:0000000000000032 .L0 
C:\Users\stapi\AppData\Local\Temp\ccZUJhbd.s:1697   .text.aws_start:0000000000000042 .L0 
C:\Users\stapi\AppData\Local\Temp\ccZUJhbd.s:1699   .text.aws_start:0000000000000044 .L0 
C:\Users\stapi\AppData\Local\Temp\ccZUJhbd.s:1702   .text.aws_start:0000000000000046 .L0 
C:\Users\stapi\AppData\Local\Temp\ccZUJhbd.s:1704   .text.aws_start:000000000000004a .L0 
C:\Users\stapi\AppData\Local\Temp\ccZUJhbd.s:1706   .text.aws_start:000000000000004e .L0 
C:\Users\stapi\AppData\Local\Temp\ccZUJhbd.s:1707   .text.aws_start:000000000000004e .L0 
C:\Users\stapi\AppData\Local\Temp\ccZUJhbd.s:1709   .text.aws_start:0000000000000052 .L0 
C:\Users\stapi\AppData\Local\Temp\ccZUJhbd.s:1715   .text.aws_start:0000000000000062 .L0 
C:\Users\stapi\AppData\Local\Temp\ccZUJhbd.s:1722   .text.aws_start:0000000000000078 .L0 
C:\Users\stapi\AppData\Local\Temp\ccZUJhbd.s:1729   .text.aws_start:000000000000008e .L0 
C:\Users\stapi\AppData\Local\Temp\ccZUJhbd.s:1734   .text.aws_start:000000000000009e .L0 
C:\Users\stapi\AppData\Local\Temp\ccZUJhbd.s:1735   .text.aws_start:000000000000009e .L0 
C:\Users\stapi\AppData\Local\Temp\ccZUJhbd.s:1738   .text.aws_start:00000000000000a6 .L0 
C:\Users\stapi\AppData\Local\Temp\ccZUJhbd.s:1739   .text.aws_start:00000000000000a6 .L0 
C:\Users\stapi\AppData\Local\Temp\ccZUJhbd.s:1742   .text.aws_start:00000000000000ae .L0 
C:\Users\stapi\AppData\Local\Temp\ccZUJhbd.s:1743   .text.aws_start:00000000000000ae .L0 
C:\Users\stapi\AppData\Local\Temp\ccZUJhbd.s:1746   .text.aws_start:00000000000000b6 .L0 
C:\Users\stapi\AppData\Local\Temp\ccZUJhbd.s:1749   .text.aws_start:00000000000000be .L0 
C:\Users\stapi\AppData\Local\Temp\ccZUJhbd.s:1754   .text.aws_start:00000000000000c6 .L0 
C:\Users\stapi\AppData\Local\Temp\ccZUJhbd.s:1755   .text.aws_start:00000000000000c6 .L0 
C:\Users\stapi\AppData\Local\Temp\ccZUJhbd.s:1762   .text.aws_start:00000000000000d6 .L0 
C:\Users\stapi\AppData\Local\Temp\ccZUJhbd.s:1765   .text.aws_start:00000000000000de .L0 
C:\Users\stapi\AppData\Local\Temp\ccZUJhbd.s:1769   .text.aws_start:00000000000000e6 .L0 
C:\Users\stapi\AppData\Local\Temp\ccZUJhbd.s:1770   .text.aws_start:00000000000000ee .L0 
C:\Users\stapi\AppData\Local\Temp\ccZUJhbd.s:1771   .text.aws_start:00000000000000ee .L0 
C:\Users\stapi\AppData\Local\Temp\ccZUJhbd.s:1772   .text.aws_start:00000000000000ee .L0 
C:\Users\stapi\AppData\Local\Temp\ccZUJhbd.s:1773   .text.aws_start:00000000000000ee .L0 
C:\Users\stapi\AppData\Local\Temp\ccZUJhbd.s:1774   .text.aws_start:00000000000000ee .L0 
C:\Users\stapi\AppData\Local\Temp\ccZUJhbd.s:1788   .text.aws_destroy:0000000000000000 aws_destroy
C:\Users\stapi\AppData\Local\Temp\ccZUJhbd.s:1791   .text.aws_destroy:0000000000000000 .L0 
C:\Users\stapi\AppData\Local\Temp\ccZUJhbd.s:1792   .text.aws_destroy:0000000000000000 .L0 
C:\Users\stapi\AppData\Local\Temp\ccZUJhbd.s:1793   .text.aws_destroy:0000000000000008 .L0 
C:\Users\stapi\AppData\Local\Temp\ccZUJhbd.s:1794   .text.aws_destroy:0000000000000008 .L0 
C:\Users\stapi\AppData\Local\Temp\ccZUJhbd.s:1795   .text.aws_destroy:0000000000000008 .L0 
C:\Users\stapi\AppData\Local\Temp\ccZUJhbd.s:1796   .text.aws_destroy:0000000000000008 .L0 
C:\Users\stapi\AppData\Local\Temp\ccZUJhbd.s:1797   .text.aws_destroy:0000000000000008 .L0 
C:\Users\stapi\AppData\Local\Temp\ccZUJhbd.s:1798   .text.aws_destroy:0000000000000008 .L0 
C:\Users\stapi\AppData\Local\Temp\ccZUJhbd.s:1800   .text.aws_destroy:0000000000000008 .L0 
C:\Users\stapi\AppData\Local\Temp\ccZUJhbd.s:1801   .text.aws_destroy:0000000000000008 .L0 
C:\Users\stapi\AppData\Local\Temp\ccZUJhbd.s:1803   .text.aws_destroy:000000000000000c .L0 
C:\Users\stapi\AppData\Local\Temp\ccZUJhbd.s:1807   .text.aws_destroy:0000000000000016 .L0 
C:\Users\stapi\AppData\Local\Temp\ccZUJhbd.s:1808   .text.aws_destroy:0000000000000016 .L0 
C:\Users\stapi\AppData\Local\Temp\ccZUJhbd.s:1811   .text.aws_destroy:000000000000001e .L0 
C:\Users\stapi\AppData\Local\Temp\ccZUJhbd.s:1814   .text.aws_destroy:0000000000000020 .L0 
C:\Users\stapi\AppData\Local\Temp\ccZUJhbd.s:1815   .text.aws_destroy:0000000000000020 .L0 
C:\Users\stapi\AppData\Local\Temp\ccZUJhbd.s:1817   .text.aws_destroy:0000000000000022 .L0 
C:\Users\stapi\AppData\Local\Temp\ccZUJhbd.s:1819   .text.aws_destroy:0000000000000024 .L0 
C:\Users\stapi\AppData\Local\Temp\ccZUJhbd.s:1823   .text.aws_destroy:000000000000002c .L0 
C:\Users\stapi\AppData\Local\Temp\ccZUJhbd.s:1824   .text.aws_destroy:000000000000002c .L0 
C:\Users\stapi\AppData\Local\Temp\ccZUJhbd.s:1828   .text.aws_destroy:0000000000000038 .L0 
C:\Users\stapi\AppData\Local\Temp\ccZUJhbd.s:1831   .text.aws_destroy:000000000000003a .L0 
C:\Users\stapi\AppData\Local\Temp\ccZUJhbd.s:1834   .text.aws_destroy:000000000000003c .L0 
C:\Users\stapi\AppData\Local\Temp\ccZUJhbd.s:1839   .text.aws_destroy:0000000000000046 .L0 
C:\Users\stapi\AppData\Local\Temp\ccZUJhbd.s:1840   .text.aws_destroy:0000000000000046 .L0 
C:\Users\stapi\AppData\Local\Temp\ccZUJhbd.s:1844   .text.aws_destroy:0000000000000050 .L0 
C:\Users\stapi\AppData\Local\Temp\ccZUJhbd.s:1845   .text.aws_destroy:0000000000000050 .L0 
C:\Users\stapi\AppData\Local\Temp\ccZUJhbd.s:1850   .text.aws_destroy:0000000000000056 .L0 
C:\Users\stapi\AppData\Local\Temp\ccZUJhbd.s:1851   .text.aws_destroy:0000000000000056 .L0 
C:\Users\stapi\AppData\Local\Temp\ccZUJhbd.s:1856   .text.aws_destroy:000000000000005e .L0 
C:\Users\stapi\AppData\Local\Temp\ccZUJhbd.s:1863   .text.aws_destroy:0000000000000074 .L0 
C:\Users\stapi\AppData\Local\Temp\ccZUJhbd.s:1864   .text.aws_destroy:0000000000000074 .L0 
C:\Users\stapi\AppData\Local\Temp\ccZUJhbd.s:1866   .text.aws_destroy:0000000000000076 .L0 
C:\Users\stapi\AppData\Local\Temp\ccZUJhbd.s:1869   .text.aws_destroy:0000000000000078 .L0 
C:\Users\stapi\AppData\Local\Temp\ccZUJhbd.s:1870   .text.aws_destroy:0000000000000078 .L0 
C:\Users\stapi\AppData\Local\Temp\ccZUJhbd.s:1872   .text.aws_destroy:000000000000007a .L0 
C:\Users\stapi\AppData\Local\Temp\ccZUJhbd.s:1876   .text.aws_destroy:0000000000000082 .L0 
C:\Users\stapi\AppData\Local\Temp\ccZUJhbd.s:1885   .text.aws_destroy:0000000000000098 .L0 
C:\Users\stapi\AppData\Local\Temp\ccZUJhbd.s:1886   .text.aws_destroy:0000000000000098 .L0 
C:\Users\stapi\AppData\Local\Temp\ccZUJhbd.s:1892   .text.aws_destroy:00000000000000a2 .L0 
C:\Users\stapi\AppData\Local\Temp\ccZUJhbd.s:1893   .text.aws_destroy:00000000000000a2 .L0 
C:\Users\stapi\AppData\Local\Temp\ccZUJhbd.s:1895   .text.aws_destroy:00000000000000a6 .L0 
C:\Users\stapi\AppData\Local\Temp\ccZUJhbd.s:1898   .text.aws_destroy:00000000000000ae .L0 
C:\Users\stapi\AppData\Local\Temp\ccZUJhbd.s:1899   .text.aws_destroy:00000000000000ae .L0 
C:\Users\stapi\AppData\Local\Temp\ccZUJhbd.s:1901   .text.aws_destroy:00000000000000b0 .L0 
C:\Users\stapi\AppData\Local\Temp\ccZUJhbd.s:1904   .text.aws_destroy:00000000000000b2 .L0 
C:\Users\stapi\AppData\Local\Temp\ccZUJhbd.s:1905   .text.aws_destroy:00000000000000ba .L0 
C:\Users\stapi\AppData\Local\Temp\ccZUJhbd.s:1906   .text.aws_destroy:00000000000000ba .L0 
C:\Users\stapi\AppData\Local\Temp\ccZUJhbd.s:1907   .text.aws_destroy:00000000000000ba .L0 
C:\Users\stapi\AppData\Local\Temp\ccZUJhbd.s:1908   .text.aws_destroy:00000000000000ba .L0 
C:\Users\stapi\AppData\Local\Temp\ccZUJhbd.s:1909   .text.aws_destroy:00000000000000ba .L0 
C:\Users\stapi\AppData\Local\Temp\ccZUJhbd.s:1910   .text.aws_destroy:00000000000000ba .L0 
C:\Users\stapi\AppData\Local\Temp\ccZUJhbd.s:1911   .text.aws_destroy:00000000000000ba .L0 
C:\Users\stapi\AppData\Local\Temp\ccZUJhbd.s:1913   .text.aws_destroy:00000000000000ba .L0 
C:\Users\stapi\AppData\Local\Temp\ccZUJhbd.s:1915   .text.aws_destroy:00000000000000ba .L0 
C:\Users\stapi\AppData\Local\Temp\ccZUJhbd.s:1916   .text.aws_destroy:00000000000000ba .L0 
C:\Users\stapi\AppData\Local\Temp\ccZUJhbd.s:1922   .text.aws_destroy:00000000000000c2 .L0 
C:\Users\stapi\AppData\Local\Temp\ccZUJhbd.s:1923   .text.aws_destroy:00000000000000c2 .L0 
C:\Users\stapi\AppData\Local\Temp\ccZUJhbd.s:1927   .text.aws_destroy:00000000000000ce .L0 
C:\Users\stapi\AppData\Local\Temp\ccZUJhbd.s:1930   .text.aws_destroy:00000000000000d0 .L0 
C:\Users\stapi\AppData\Local\Temp\ccZUJhbd.s:1937   .text.aws_release_mutex:0000000000000000 aws_release_mutex
C:\Users\stapi\AppData\Local\Temp\ccZUJhbd.s:1940   .text.aws_release_mutex:0000000000000000 .L0 
C:\Users\stapi\AppData\Local\Temp\ccZUJhbd.s:1941   .text.aws_release_mutex:0000000000000000 .L0 
C:\Users\stapi\AppData\Local\Temp\ccZUJhbd.s:1942   .text.aws_release_mutex:0000000000000008 .L0 
C:\Users\stapi\AppData\Local\Temp\ccZUJhbd.s:1943   .text.aws_release_mutex:0000000000000008 .L0 
C:\Users\stapi\AppData\Local\Temp\ccZUJhbd.s:1944   .text.aws_release_mutex:0000000000000008 .L0 
C:\Users\stapi\AppData\Local\Temp\ccZUJhbd.s:1946   .text.aws_release_mutex:0000000000000008 .L0 
C:\Users\stapi\AppData\Local\Temp\ccZUJhbd.s:1947   .text.aws_release_mutex:0000000000000008 .L0 
C:\Users\stapi\AppData\Local\Temp\ccZUJhbd.s:1951   .text.aws_release_mutex:0000000000000012 .L0 
C:\Users\stapi\AppData\Local\Temp\ccZUJhbd.s:1953   .text.aws_release_mutex:0000000000000014 .L0 
C:\Users\stapi\AppData\Local\Temp\ccZUJhbd.s:1956   .text.aws_release_mutex:000000000000001c .L0 
C:\Users\stapi\AppData\Local\Temp\ccZUJhbd.s:1957   .text.aws_release_mutex:000000000000001c .L0 
C:\Users\stapi\AppData\Local\Temp\ccZUJhbd.s:1960   .text.aws_release_mutex:0000000000000020 .L0 
C:\Users\stapi\AppData\Local\Temp\ccZUJhbd.s:1961   .text.aws_release_mutex:0000000000000028 .L0 
C:\Users\stapi\AppData\Local\Temp\ccZUJhbd.s:1962   .text.aws_release_mutex:0000000000000028 .L0 
C:\Users\stapi\AppData\Local\Temp\ccZUJhbd.s:1963   .text.aws_release_mutex:0000000000000028 .L0 
C:\Users\stapi\AppData\Local\Temp\ccZUJhbd.s:1964   .text.aws_release_mutex:0000000000000028 .L0 
C:\Users\stapi\AppData\Local\Temp\ccZUJhbd.s:1975   .text.aws_get_ssid_passwd:0000000000000000 aws_get_ssid_passwd
C:\Users\stapi\AppData\Local\Temp\ccZUJhbd.s:1978   .text.aws_get_ssid_passwd:0000000000000000 .L0 
C:\Users\stapi\AppData\Local\Temp\ccZUJhbd.s:1980   .text.aws_get_ssid_passwd:0000000000000000 .L0 
C:\Users\stapi\AppData\Local\Temp\ccZUJhbd.s:1981   .text.aws_get_ssid_passwd:0000000000000008 .L0 
C:\Users\stapi\AppData\Local\Temp\ccZUJhbd.s:1982   .text.aws_get_ssid_passwd:0000000000000008 .L0 
C:\Users\stapi\AppData\Local\Temp\ccZUJhbd.s:1983   .text.aws_get_ssid_passwd:0000000000000008 .L0 
C:\Users\stapi\AppData\Local\Temp\ccZUJhbd.s:1984   .text.aws_get_ssid_passwd:0000000000000008 .L0 
C:\Users\stapi\AppData\Local\Temp\ccZUJhbd.s:1985   .text.aws_get_ssid_passwd:0000000000000008 .L0 
C:\Users\stapi\AppData\Local\Temp\ccZUJhbd.s:1986   .text.aws_get_ssid_passwd:0000000000000008 .L0 
C:\Users\stapi\AppData\Local\Temp\ccZUJhbd.s:1987   .text.aws_get_ssid_passwd:0000000000000008 .L0 
C:\Users\stapi\AppData\Local\Temp\ccZUJhbd.s:1988   .text.aws_get_ssid_passwd:0000000000000008 .L0 
C:\Users\stapi\AppData\Local\Temp\ccZUJhbd.s:1989   .text.aws_get_ssid_passwd:0000000000000008 .L0 
C:\Users\stapi\AppData\Local\Temp\ccZUJhbd.s:1991   .text.aws_get_ssid_passwd:0000000000000008 .L0 
C:\Users\stapi\AppData\Local\Temp\ccZUJhbd.s:1992   .text.aws_get_ssid_passwd:0000000000000008 .L0 
C:\Users\stapi\AppData\Local\Temp\ccZUJhbd.s:1994   .text.aws_get_ssid_passwd:000000000000000a .L0 
C:\Users\stapi\AppData\Local\Temp\ccZUJhbd.s:1998   .text.aws_get_ssid_passwd:0000000000000012 .L0 
C:\Users\stapi\AppData\Local\Temp\ccZUJhbd.s:2000   .text.aws_get_ssid_passwd:0000000000000014 .L0 
C:\Users\stapi\AppData\Local\Temp\ccZUJhbd.s:2016   .text.aws_get_ssid_passwd:000000000000003a .L0 
C:\Users\stapi\AppData\Local\Temp\ccZUJhbd.s:2017   .text.aws_get_ssid_passwd:000000000000003a .L0 
C:\Users\stapi\AppData\Local\Temp\ccZUJhbd.s:2020   .text.aws_get_ssid_passwd:000000000000003c .L0 
C:\Users\stapi\AppData\Local\Temp\ccZUJhbd.s:2022   .text.aws_get_ssid_passwd:0000000000000046 .L0 
C:\Users\stapi\AppData\Local\Temp\ccZUJhbd.s:2023   .text.aws_get_ssid_passwd:0000000000000046 .L0 
C:\Users\stapi\AppData\Local\Temp\ccZUJhbd.s:2024   .text.aws_get_ssid_passwd:0000000000000046 .L0 
C:\Users\stapi\AppData\Local\Temp\ccZUJhbd.s:2025   .text.aws_get_ssid_passwd:0000000000000046 .L0 
C:\Users\stapi\AppData\Local\Temp\ccZUJhbd.s:2026   .text.aws_get_ssid_passwd:0000000000000046 .L0 
C:\Users\stapi\AppData\Local\Temp\ccZUJhbd.s:2027   .text.aws_get_ssid_passwd:0000000000000046 .L0 
C:\Users\stapi\AppData\Local\Temp\ccZUJhbd.s:2028   .text.aws_get_ssid_passwd:0000000000000046 .L0 
C:\Users\stapi\AppData\Local\Temp\ccZUJhbd.s:2029   .text.aws_get_ssid_passwd:0000000000000046 .L0 
C:\Users\stapi\AppData\Local\Temp\ccZUJhbd.s:2030   .text.aws_get_ssid_passwd:0000000000000046 .L0 
C:\Users\stapi\AppData\Local\Temp\ccZUJhbd.s:2031   .text.aws_get_ssid_passwd:0000000000000046 .L0 
C:\Users\stapi\AppData\Local\Temp\ccZUJhbd.s:2034   .text.aws_get_ssid_passwd:0000000000000046 .L0 
C:\Users\stapi\AppData\Local\Temp\ccZUJhbd.s:2037   .text.aws_get_ssid_passwd:0000000000000048 .L0 
C:\Users\stapi\AppData\Local\Temp\ccZUJhbd.s:2041   .text.aws_get_ssid_passwd:000000000000004e .L0 
C:\Users\stapi\AppData\Local\Temp\ccZUJhbd.s:2042   .text.aws_get_ssid_passwd:000000000000004e .L0 
C:\Users\stapi\AppData\Local\Temp\ccZUJhbd.s:2045   .text.aws_get_ssid_passwd:0000000000000050 .L0 
C:\Users\stapi\AppData\Local\Temp\ccZUJhbd.s:2047   .text.aws_get_ssid_passwd:0000000000000052 .L0 
C:\Users\stapi\AppData\Local\Temp\ccZUJhbd.s:2049   .text.aws_get_ssid_passwd:0000000000000056 .L0 
C:\Users\stapi\AppData\Local\Temp\ccZUJhbd.s:2057   .text.aws_get_ssid_passwd:0000000000000068 .L0 
C:\Users\stapi\AppData\Local\Temp\ccZUJhbd.s:2058   .text.aws_get_ssid_passwd:0000000000000068 .L0 
C:\Users\stapi\AppData\Local\Temp\ccZUJhbd.s:2061   .text.aws_get_ssid_passwd:000000000000006a .L0 
C:\Users\stapi\AppData\Local\Temp\ccZUJhbd.s:2070   .text.aws_get_ssid_passwd:000000000000007e .L0 
C:\Users\stapi\AppData\Local\Temp\ccZUJhbd.s:2071   .text.aws_get_ssid_passwd:000000000000007e .L0 
C:\Users\stapi\AppData\Local\Temp\ccZUJhbd.s:2073   .text.aws_get_ssid_passwd:0000000000000082 .L0 
C:\Users\stapi\AppData\Local\Temp\ccZUJhbd.s:2081   .text.aws_get_ssid_passwd:0000000000000098 .L0 
C:\Users\stapi\AppData\Local\Temp\ccZUJhbd.s:2082   .text.aws_get_ssid_passwd:0000000000000098 .L0 
C:\Users\stapi\AppData\Local\Temp\ccZUJhbd.s:2084   .text.aws_get_ssid_passwd:000000000000009c .L0 
C:\Users\stapi\AppData\Local\Temp\ccZUJhbd.s:2092   .text.aws_get_ssid_passwd:00000000000000b0 .L0 
C:\Users\stapi\AppData\Local\Temp\ccZUJhbd.s:2093   .text.aws_get_ssid_passwd:00000000000000b0 .L0 
C:\Users\stapi\AppData\Local\Temp\ccZUJhbd.s:2095   .text.aws_get_ssid_passwd:00000000000000b4 .L0 
C:\Users\stapi\AppData\Local\Temp\ccZUJhbd.s:2103   .text.aws_get_ssid_passwd:00000000000000c8 .L0 
C:\Users\stapi\AppData\Local\Temp\ccZUJhbd.s:2104   .text.aws_get_ssid_passwd:00000000000000c8 .L0 
C:\Users\stapi\AppData\Local\Temp\ccZUJhbd.s:2106   .text.aws_get_ssid_passwd:00000000000000cc .L0 
C:\Users\stapi\AppData\Local\Temp\ccZUJhbd.s:2107   .text.aws_get_ssid_passwd:00000000000000cc .L0 
C:\Users\stapi\AppData\Local\Temp\ccZUJhbd.s:2112   .text.aws_get_ssid_passwd:00000000000000d8 .L0 
C:\Users\stapi\AppData\Local\Temp\ccZUJhbd.s:2113   .text.aws_get_ssid_passwd:00000000000000d8 .L0 
C:\Users\stapi\AppData\Local\Temp\ccZUJhbd.s:2115   .text.aws_get_ssid_passwd:00000000000000dc .L0 
C:\Users\stapi\AppData\Local\Temp\ccZUJhbd.s:2116   .text.aws_get_ssid_passwd:00000000000000dc .L0 
C:\Users\stapi\AppData\Local\Temp\ccZUJhbd.s:2121   .text.aws_get_ssid_passwd:00000000000000e8 .L0 
C:\Users\stapi\AppData\Local\Temp\ccZUJhbd.s:2122   .text.aws_get_ssid_passwd:00000000000000e8 .L0 
C:\Users\stapi\AppData\Local\Temp\ccZUJhbd.s:2124   .text.aws_get_ssid_passwd:00000000000000ea .L0 
C:\Users\stapi\AppData\Local\Temp\ccZUJhbd.s:2125   .text.aws_get_ssid_passwd:00000000000000ea .L0 
C:\Users\stapi\AppData\Local\Temp\ccZUJhbd.s:2130   .text.aws_get_ssid_passwd:00000000000000f6 .L0 
C:\Users\stapi\AppData\Local\Temp\ccZUJhbd.s:2131   .text.aws_get_ssid_passwd:00000000000000f6 .L0 
C:\Users\stapi\AppData\Local\Temp\ccZUJhbd.s:2133   .text.aws_get_ssid_passwd:00000000000000f8 .L0 
C:\Users\stapi\AppData\Local\Temp\ccZUJhbd.s:2135   .text.aws_get_ssid_passwd:00000000000000fa .L0 
C:\Users\stapi\AppData\Local\Temp\ccZUJhbd.s:2136   .text.aws_get_ssid_passwd:00000000000000fa .L0 
C:\Users\stapi\AppData\Local\Temp\ccZUJhbd.s:2140   .text.aws_get_ssid_passwd:0000000000000108 .L0 
C:\Users\stapi\AppData\Local\Temp\ccZUJhbd.s:2199   .rodata.zconfig_fixed_offset:0000000000000000 zconfig_fixed_offset
C:\Users\stapi\AppData\Local\Temp\ccZUJhbd.s:2230   .sbss.aws_result_auth:0000000000000000 aws_result_auth
C:\Users\stapi\AppData\Local\Temp\ccZUJhbd.s:2249   .sbss.aws_result_encry:0000000000000000 aws_result_encry
C:\Users\stapi\AppData\Local\Temp\ccZUJhbd.s:2243   .sbss.aws_result_channel:0000000000000000 aws_result_channel
C:\Users\stapi\AppData\Local\Temp\ccZUJhbd.s:2255   .sbss.aws_result_token_type:0000000000000000 aws_result_token_type
C:\Users\stapi\AppData\Local\Temp\ccZUJhbd.s:2172   .bss.aws_result_token:0000000000000000 aws_result_token
C:\Users\stapi\AppData\Local\Temp\ccZUJhbd.s:2237   .sbss.aws_result_bssid:0000000000000000 aws_result_bssid
C:\Users\stapi\AppData\Local\Temp\ccZUJhbd.s:2158   .bss.aws_result_passwd:0000000000000000 aws_result_passwd
C:\Users\stapi\AppData\Local\Temp\ccZUJhbd.s:2165   .bss.aws_result_ssid:0000000000000000 aws_result_ssid
C:\Users\stapi\AppData\Local\Temp\ccZUJhbd.s:2217   .sbss.aws_info:0000000000000000 aws_info
C:\Users\stapi\AppData\Local\Temp\ccZUJhbd.s:2155   .bss.aws_result_passwd:0000000000000000 .LANCHOR7
C:\Users\stapi\AppData\Local\Temp\ccZUJhbd.s:2162   .bss.aws_result_ssid:0000000000000000 .LANCHOR6
C:\Users\stapi\AppData\Local\Temp\ccZUJhbd.s:2169   .bss.aws_result_token:0000000000000000 .LANCHOR4
C:\Users\stapi\AppData\Local\Temp\ccZUJhbd.s:2176   .rodata.__FUNCTION__.0:0000000000000000 .LANCHOR17
C:\Users\stapi\AppData\Local\Temp\ccZUJhbd.s:2179   .rodata.__FUNCTION__.0:0000000000000000 __FUNCTION__.0
C:\Users\stapi\AppData\Local\Temp\ccZUJhbd.s:2183   .rodata.__FUNCTION__.2:0000000000000000 .LANCHOR14
C:\Users\stapi\AppData\Local\Temp\ccZUJhbd.s:2186   .rodata.__FUNCTION__.2:0000000000000000 __FUNCTION__.2
C:\Users\stapi\AppData\Local\Temp\ccZUJhbd.s:2190   .rodata.__FUNCTION__.3:0000000000000000 .LANCHOR13
C:\Users\stapi\AppData\Local\Temp\ccZUJhbd.s:2193   .rodata.__FUNCTION__.3:0000000000000000 __FUNCTION__.3
C:\Users\stapi\AppData\Local\Temp\ccZUJhbd.s:2207   .sbss.aws_amend_dst_chan:0000000000000000 .LANCHOR12
C:\Users\stapi\AppData\Local\Temp\ccZUJhbd.s:2210   .sbss.aws_amend_dst_chan:0000000000000000 aws_amend_dst_chan
C:\Users\stapi\AppData\Local\Temp\ccZUJhbd.s:2214   .sbss.aws_info:0000000000000000 .LANCHOR2
C:\Users\stapi\AppData\Local\Temp\ccZUJhbd.s:2221   .sbss.aws_mutex:0000000000000000 .LANCHOR16
C:\Users\stapi\AppData\Local\Temp\ccZUJhbd.s:2224   .sbss.aws_mutex:0000000000000000 aws_mutex
C:\Users\stapi\AppData\Local\Temp\ccZUJhbd.s:2227   .sbss.aws_result_auth:0000000000000000 .LANCHOR9
C:\Users\stapi\AppData\Local\Temp\ccZUJhbd.s:2234   .sbss.aws_result_bssid:0000000000000000 .LANCHOR8
C:\Users\stapi\AppData\Local\Temp\ccZUJhbd.s:2240   .sbss.aws_result_channel:0000000000000000 .LANCHOR11
C:\Users\stapi\AppData\Local\Temp\ccZUJhbd.s:2246   .sbss.aws_result_encry:0000000000000000 .LANCHOR10
C:\Users\stapi\AppData\Local\Temp\ccZUJhbd.s:2252   .sbss.aws_result_token_type:0000000000000000 .LANCHOR5
C:\Users\stapi\AppData\Local\Temp\ccZUJhbd.s:2259   .sbss.fixed_delta.4:0000000000000000 .LANCHOR1
C:\Users\stapi\AppData\Local\Temp\ccZUJhbd.s:2262   .sbss.fixed_delta.4:0000000000000000 fixed_delta.4
C:\Users\stapi\AppData\Local\Temp\ccZUJhbd.s:2266   .sbss.lock_start.1:0000000000000000 .LANCHOR3
C:\Users\stapi\AppData\Local\Temp\ccZUJhbd.s:2269   .sbss.lock_start.1:0000000000000000 lock_start.1
C:\Users\stapi\AppData\Local\Temp\ccZUJhbd.s:2272   .sbss.rescan_available:0000000000000000 .LANCHOR0
C:\Users\stapi\AppData\Local\Temp\ccZUJhbd.s:2275   .sbss.rescan_available:0000000000000000 rescan_available
C:\Users\stapi\AppData\Local\Temp\ccZUJhbd.s:2279   .sbss.rescan_timer:0000000000000000 .LANCHOR15
C:\Users\stapi\AppData\Local\Temp\ccZUJhbd.s:2282   .sbss.rescan_timer:0000000000000000 rescan_timer
C:\Users\stapi\AppData\Local\Temp\ccZUJhbd.s:27     .text.rescan_monitor:000000000000000c .L0 
C:\Users\stapi\AppData\Local\Temp\ccZUJhbd.s:72     .text.os_get_time_ms:0000000000000038 .L0 
C:\Users\stapi\AppData\Local\Temp\ccZUJhbd.s:182    .text.aws_80211_frame_handler:000000000000008c .L0 
C:\Users\stapi\AppData\Local\Temp\ccZUJhbd.s:200    .text.zconfig_get_lock_chn:000000000000000e .L0 
C:\Users\stapi\AppData\Local\Temp\ccZUJhbd.s:223    .text.zconfig_force_rescan:0000000000000010 .L0 
C:\Users\stapi\AppData\Local\Temp\ccZUJhbd.s:256    .text.zconfig_channel_locked_callback:0000000000000024 .L0 
C:\Users\stapi\AppData\Local\Temp\ccZUJhbd.s:441    .text.zconfig_got_ssid_passwd_callback:000000000000013e .L0 
C:\Users\stapi\AppData\Local\Temp\ccZUJhbd.s:483    .text.aws_next_channel:000000000000002e .L0 
C:\Users\stapi\AppData\Local\Temp\ccZUJhbd.s:797    .text.aws_switch_channel:0000000000000166 .L0 
C:\Users\stapi\AppData\Local\Temp\ccZUJhbd.s:860    .text.aws_set_dst_chan:0000000000000040 .L0 
C:\Users\stapi\AppData\Local\Temp\ccZUJhbd.s:992    .text.aws_is_chnscan_timeout:0000000000000096 .L0 
C:\Users\stapi\AppData\Local\Temp\ccZUJhbd.s:1035   .text.zconfig_add_active_channel:0000000000000020 .L0 
C:\Users\stapi\AppData\Local\Temp\ccZUJhbd.s:1050   .text.aws_force_scanning:0000000000000004 .L0 
C:\Users\stapi\AppData\Local\Temp\ccZUJhbd.s:1640   .text.aws_main_thread_func:0000000000000388 .L0 
C:\Users\stapi\AppData\Local\Temp\ccZUJhbd.s:1777   .text.aws_start:00000000000000ee .L0 
C:\Users\stapi\AppData\Local\Temp\ccZUJhbd.s:1933   .text.aws_destroy:00000000000000d0 .L0 
C:\Users\stapi\AppData\Local\Temp\ccZUJhbd.s:1967   .text.aws_release_mutex:0000000000000028 .L0 
C:\Users\stapi\AppData\Local\Temp\ccZUJhbd.s:2153   .text.aws_get_ssid_passwd:0000000000000108 .L0 
                     .debug_frame:0000000000000000 .L0 
C:\Users\stapi\AppData\Local\Temp\ccZUJhbd.s:56     .text.os_get_time_ms:0000000000000024 .L3
C:\Users\stapi\AppData\Local\Temp\ccZUJhbd.s:132    .text.aws_80211_frame_handler:0000000000000058 .L5
C:\Users\stapi\AppData\Local\Temp\ccZUJhbd.s:142    .text.aws_80211_frame_handler:0000000000000062 .L8
C:\Users\stapi\AppData\Local\Temp\ccZUJhbd.s:147    .text.aws_80211_frame_handler:000000000000006a .L10
C:\Users\stapi\AppData\Local\Temp\ccZUJhbd.s:124    .text.aws_80211_frame_handler:000000000000004c .L9
C:\Users\stapi\AppData\Local\Temp\ccZUJhbd.s:217    .text.zconfig_force_rescan:000000000000000e .L14
C:\Users\stapi\AppData\Local\Temp\ccZUJhbd.s:246    .text.zconfig_channel_locked_callback:0000000000000018 .L20
C:\Users\stapi\AppData\Local\Temp\ccZUJhbd.s:258    .rodata.zconfig_got_ssid_passwd_callback.str1.4:0000000000000000 .LC0
C:\Users\stapi\AppData\Local\Temp\ccZUJhbd.s:261    .rodata.zconfig_got_ssid_passwd_callback.str1.4:000000000000002c .LC1
C:\Users\stapi\AppData\Local\Temp\ccZUJhbd.s:422    .text.zconfig_got_ssid_passwd_callback:0000000000000122 .L23
C:\Users\stapi\AppData\Local\Temp\ccZUJhbd.s:334    .text.zconfig_got_ssid_passwd_callback:000000000000006c .L25
C:\Users\stapi\AppData\Local\Temp\ccZUJhbd.s:376    .text.zconfig_got_ssid_passwd_callback:00000000000000da .L26
C:\Users\stapi\AppData\Local\Temp\ccZUJhbd.s:323    .text.zconfig_got_ssid_passwd_callback:0000000000000054 .L24
C:\Users\stapi\AppData\Local\Temp\ccZUJhbd.s:466    .text.aws_next_channel:000000000000001a .L35
C:\Users\stapi\AppData\Local\Temp\ccZUJhbd.s:455    .text.aws_next_channel:000000000000000e .L36
C:\Users\stapi\AppData\Local\Temp\ccZUJhbd.s:485    .rodata.aws_switch_channel.str1.4:0000000000000000 .LC2
C:\Users\stapi\AppData\Local\Temp\ccZUJhbd.s:488    .rodata.aws_switch_channel.str1.4:0000000000000008 .LC3
C:\Users\stapi\AppData\Local\Temp\ccZUJhbd.s:491    .rodata.aws_switch_channel.str1.4:0000000000000018 .LC4
C:\Users\stapi\AppData\Local\Temp\ccZUJhbd.s:494    .rodata.aws_switch_channel.str1.4:000000000000001c .LC5
C:\Users\stapi\AppData\Local\Temp\ccZUJhbd.s:657    .text.aws_switch_channel:00000000000000ce .L40
C:\Users\stapi\AppData\Local\Temp\ccZUJhbd.s:709    .text.aws_switch_channel:00000000000000fa .L42
C:\Users\stapi\AppData\Local\Temp\ccZUJhbd.s:673    .text.aws_switch_channel:00000000000000d6 .L46
C:\Users\stapi\AppData\Local\Temp\ccZUJhbd.s:692    .text.aws_switch_channel:00000000000000e8 .L50
C:\Users\stapi\AppData\Local\Temp\ccZUJhbd.s:633    .text.aws_switch_channel:00000000000000ba .L51
C:\Users\stapi\AppData\Local\Temp\ccZUJhbd.s:603    .text.aws_switch_channel:0000000000000078 .L52
C:\Users\stapi\AppData\Local\Temp\ccZUJhbd.s:686    .text.aws_switch_channel:00000000000000e4 .L44
C:\Users\stapi\AppData\Local\Temp\ccZUJhbd.s:571    .text.aws_switch_channel:000000000000004c .L45
C:\Users\stapi\AppData\Local\Temp\ccZUJhbd.s:560    .text.aws_switch_channel:0000000000000042 .L43
C:\Users\stapi\AppData\Local\Temp\ccZUJhbd.s:702    .text.aws_switch_channel:00000000000000f6 .L48
C:\Users\stapi\AppData\Local\Temp\ccZUJhbd.s:575    .text.aws_switch_channel:0000000000000050 .L49
C:\Users\stapi\AppData\Local\Temp\ccZUJhbd.s:567    .text.aws_switch_channel:0000000000000048 .L47
C:\Users\stapi\AppData\Local\Temp\ccZUJhbd.s:737    .text.aws_switch_channel:000000000000010c .L53
C:\Users\stapi\AppData\Local\Temp\ccZUJhbd.s:647    .text.aws_switch_channel:00000000000000c2 .L64
C:\Users\stapi\AppData\Local\Temp\ccZUJhbd.s:721    .text.aws_switch_channel:0000000000000106 .L65
C:\Users\stapi\AppData\Local\Temp\ccZUJhbd.s:848    .text.aws_set_dst_chan:0000000000000038 .L66
C:\Users\stapi\AppData\Local\Temp\ccZUJhbd.s:862    .rodata.aws_is_chnscan_timeout.str1.4:0000000000000000 .LC6
C:\Users\stapi\AppData\Local\Temp\ccZUJhbd.s:865    .rodata.aws_is_chnscan_timeout.str1.4:0000000000000014 .LC7
C:\Users\stapi\AppData\Local\Temp\ccZUJhbd.s:912    .text.aws_is_chnscan_timeout:000000000000004e .L73
C:\Users\stapi\AppData\Local\Temp\ccZUJhbd.s:903    .text.aws_is_chnscan_timeout:0000000000000044 .L72
C:\Users\stapi\AppData\Local\Temp\ccZUJhbd.s:983    .text.aws_is_chnscan_timeout:0000000000000092 .L75
C:\Users\stapi\AppData\Local\Temp\ccZUJhbd.s:1026   .text.zconfig_add_active_channel:000000000000001c .L84
C:\Users\stapi\AppData\Local\Temp\ccZUJhbd.s:1067   .rodata.aws_main_thread_func.str1.4:0000000000000078 .LC13
C:\Users\stapi\AppData\Local\Temp\ccZUJhbd.s:1052   .rodata.aws_main_thread_func.str1.4:0000000000000000 .LC8
C:\Users\stapi\AppData\Local\Temp\ccZUJhbd.s:1055   .rodata.aws_main_thread_func.str1.4:000000000000001c .LC9
C:\Users\stapi\AppData\Local\Temp\ccZUJhbd.s:1061   .rodata.aws_main_thread_func.str1.4:0000000000000048 .LC11
C:\Users\stapi\AppData\Local\Temp\ccZUJhbd.s:1073   .rodata.aws_main_thread_func.str1.4:0000000000000098 .LC15
C:\Users\stapi\AppData\Local\Temp\ccZUJhbd.s:1076   .rodata.aws_main_thread_func.str1.4:00000000000000c8 .LC16
C:\Users\stapi\AppData\Local\Temp\ccZUJhbd.s:1058   .rodata.aws_main_thread_func.str1.4:0000000000000030 .LC10
C:\Users\stapi\AppData\Local\Temp\ccZUJhbd.s:1070   .rodata.aws_main_thread_func.str1.4:0000000000000090 .LC14
C:\Users\stapi\AppData\Local\Temp\ccZUJhbd.s:1064   .rodata.aws_main_thread_func.str1.4:0000000000000060 .LC12
C:\Users\stapi\AppData\Local\Temp\ccZUJhbd.s:1079   .rodata.aws_main_thread_func.str1.4:00000000000000e0 .LC17
C:\Users\stapi\AppData\Local\Temp\ccZUJhbd.s:1159   .text.aws_main_thread_func:000000000000006a .L95
C:\Users\stapi\AppData\Local\Temp\ccZUJhbd.s:1179   .text.aws_main_thread_func:000000000000008c .L96
C:\Users\stapi\AppData\Local\Temp\ccZUJhbd.s:1338   .text.aws_main_thread_func:00000000000001a4 .L89
C:\Users\stapi\AppData\Local\Temp\ccZUJhbd.s:1575   .text.aws_main_thread_func:0000000000000320 .L90
C:\Users\stapi\AppData\Local\Temp\ccZUJhbd.s:1346   .text.aws_main_thread_func:00000000000001ae .L92
C:\Users\stapi\AppData\Local\Temp\ccZUJhbd.s:1402   .text.aws_main_thread_func:00000000000001ec .L102
C:\Users\stapi\AppData\Local\Temp\ccZUJhbd.s:1632   .text.aws_main_thread_func:000000000000037e .L113
C:\Users\stapi\AppData\Local\Temp\ccZUJhbd.s:1168   .text.aws_main_thread_func:000000000000007a .L91
C:\Users\stapi\AppData\Local\Temp\ccZUJhbd.s:1370   .text.aws_main_thread_func:00000000000001c4 .L94
C:\Users\stapi\AppData\Local\Temp\ccZUJhbd.s:1149   .text.aws_main_thread_func:000000000000005c .L88
C:\Users\stapi\AppData\Local\Temp\ccZUJhbd.s:1475   .text.aws_main_thread_func:0000000000000266 .L98
C:\Users\stapi\AppData\Local\Temp\ccZUJhbd.s:1224   .text.aws_main_thread_func:00000000000000ea .L93
C:\Users\stapi\AppData\Local\Temp\ccZUJhbd.s:1469   .text.aws_main_thread_func:0000000000000260 .L100
C:\Users\stapi\AppData\Local\Temp\ccZUJhbd.s:1130   .text.aws_main_thread_func:0000000000000040 .L87
C:\Users\stapi\AppData\Local\Temp\ccZUJhbd.s:1560   .text.aws_main_thread_func:000000000000030c .L104
C:\Users\stapi\AppData\Local\Temp\ccZUJhbd.s:1510   .text.aws_main_thread_func:00000000000002b6 .L105
C:\Users\stapi\AppData\Local\Temp\ccZUJhbd.s:1556   .text.aws_main_thread_func:0000000000000308 .L109
C:\Users\stapi\AppData\Local\Temp\ccZUJhbd.s:1550   .text.aws_main_thread_func:00000000000002fe .L107
C:\Users\stapi\AppData\Local\Temp\ccZUJhbd.s:1586   .text.aws_main_thread_func:0000000000000340 .L108
C:\Users\stapi\AppData\Local\Temp\ccZUJhbd.s:1598   .text.aws_main_thread_func:000000000000034e .L111
C:\Users\stapi\AppData\Local\Temp\ccZUJhbd.s:1254   .text.aws_main_thread_func:0000000000000120 .L103
C:\Users\stapi\AppData\Local\Temp\ccZUJhbd.s:1532   .text.aws_main_thread_func:00000000000002e0 .L106
C:\Users\stapi\AppData\Local\Temp\ccZUJhbd.s:1613   .text.aws_main_thread_func:0000000000000364 .L112
C:\Users\stapi\AppData\Local\Temp\ccZUJhbd.s:1311   .text.aws_main_thread_func:0000000000000184 .L127
C:\Users\stapi\AppData\Local\Temp\ccZUJhbd.s:1679   .text.aws_start:0000000000000026 .L129
C:\Users\stapi\AppData\Local\Temp\ccZUJhbd.s:1767   .text.aws_start:00000000000000e6 .L128
C:\Users\stapi\AppData\Local\Temp\ccZUJhbd.s:1779   .rodata.aws_destroy.str1.4:0000000000000000 .LC18
C:\Users\stapi\AppData\Local\Temp\ccZUJhbd.s:1782   .rodata.aws_destroy.str1.4:000000000000000c .LC19
C:\Users\stapi\AppData\Local\Temp\ccZUJhbd.s:1812   .text.aws_destroy:0000000000000020 .L139
C:\Users\stapi\AppData\Local\Temp\ccZUJhbd.s:1821   .text.aws_destroy:000000000000002c .L140
C:\Users\stapi\AppData\Local\Temp\ccZUJhbd.s:1837   .text.aws_destroy:0000000000000046 .L141
C:\Users\stapi\AppData\Local\Temp\ccZUJhbd.s:1902   .text.aws_destroy:00000000000000b2 .L138
C:\Users\stapi\AppData\Local\Temp\ccZUJhbd.s:1829   .text.aws_destroy:000000000000003a .L143
C:\Users\stapi\AppData\Local\Temp\ccZUJhbd.s:1912   .text.aws_destroy:00000000000000ba .L146
C:\Users\stapi\AppData\Local\Temp\ccZUJhbd.s:1832   .text.aws_destroy:000000000000003c .L154
C:\Users\stapi\AppData\Local\Temp\ccZUJhbd.s:1874   .text.aws_destroy:0000000000000082 .L145
C:\Users\stapi\AppData\Local\Temp\ccZUJhbd.s:1867   .text.aws_destroy:0000000000000078 .L144
C:\Users\stapi\AppData\Local\Temp\ccZUJhbd.s:1958   .text.aws_release_mutex:0000000000000020 .L155
C:\Users\stapi\AppData\Local\Temp\ccZUJhbd.s:1969   .rodata.aws_get_ssid_passwd.str1.4:0000000000000000 .LC20
C:\Users\stapi\AppData\Local\Temp\ccZUJhbd.s:2033   .text.aws_get_ssid_passwd:0000000000000046 .L162
C:\Users\stapi\AppData\Local\Temp\ccZUJhbd.s:2018   .text.aws_get_ssid_passwd:000000000000003c .L161
C:\Users\stapi\AppData\Local\Temp\ccZUJhbd.s:2068   .text.aws_get_ssid_passwd:000000000000007e .L164
C:\Users\stapi\AppData\Local\Temp\ccZUJhbd.s:2079   .text.aws_get_ssid_passwd:0000000000000098 .L165
C:\Users\stapi\AppData\Local\Temp\ccZUJhbd.s:2090   .text.aws_get_ssid_passwd:00000000000000b0 .L166
C:\Users\stapi\AppData\Local\Temp\ccZUJhbd.s:2101   .text.aws_get_ssid_passwd:00000000000000c8 .L167
C:\Users\stapi\AppData\Local\Temp\ccZUJhbd.s:2110   .text.aws_get_ssid_passwd:00000000000000d8 .L168
C:\Users\stapi\AppData\Local\Temp\ccZUJhbd.s:2119   .text.aws_get_ssid_passwd:00000000000000e8 .L169
C:\Users\stapi\AppData\Local\Temp\ccZUJhbd.s:2128   .text.aws_get_ssid_passwd:00000000000000f6 .L170
C:\Users\stapi\AppData\Local\Temp\ccZUJhbd.s:5992   .debug_abbrev:0000000000000000 .Ldebug_abbrev0
C:\Users\stapi\AppData\Local\Temp\ccZUJhbd.s:8324   .debug_str:00000000000000f9 .LASF256
C:\Users\stapi\AppData\Local\Temp\ccZUJhbd.s:8320   .debug_str:0000000000000041 .LASF257
C:\Users\stapi\AppData\Local\Temp\ccZUJhbd.s:8654   .debug_str:0000000000000c9b .LASF258
C:\Users\stapi\AppData\Local\Temp\ccZUJhbd.s:8204   .debug_ranges:0000000000000000 .Ldebug_ranges0
C:\Users\stapi\AppData\Local\Temp\ccZUJhbd.s:8312   .debug_line:0000000000000000 .Ldebug_line0
C:\Users\stapi\AppData\Local\Temp\ccZUJhbd.s:8620   .debug_str:0000000000000b5f .LASF0
C:\Users\stapi\AppData\Local\Temp\ccZUJhbd.s:8420   .debug_str:00000000000004fa .LASF1
C:\Users\stapi\AppData\Local\Temp\ccZUJhbd.s:8364   .debug_str:0000000000000340 .LASF4
C:\Users\stapi\AppData\Local\Temp\ccZUJhbd.s:8442   .debug_str:00000000000005ac .LASF2
C:\Users\stapi\AppData\Local\Temp\ccZUJhbd.s:8760   .debug_str:000000000000104f .LASF3
C:\Users\stapi\AppData\Local\Temp\ccZUJhbd.s:8466   .debug_str:0000000000000668 .LASF5
C:\Users\stapi\AppData\Local\Temp\ccZUJhbd.s:8816   .debug_str:0000000000001258 .LASF6
C:\Users\stapi\AppData\Local\Temp\ccZUJhbd.s:8384   .debug_str:00000000000003c0 .LASF7
C:\Users\stapi\AppData\Local\Temp\ccZUJhbd.s:8584   .debug_str:0000000000000a53 .LASF8
C:\Users\stapi\AppData\Local\Temp\ccZUJhbd.s:8536   .debug_str:00000000000008b8 .LASF9
C:\Users\stapi\AppData\Local\Temp\ccZUJhbd.s:8586   .debug_str:0000000000000a5e .LASF10
C:\Users\stapi\AppData\Local\Temp\ccZUJhbd.s:8688   .debug_str:0000000000000e1c .LASF11
C:\Users\stapi\AppData\Local\Temp\ccZUJhbd.s:8460   .debug_str:000000000000063f .LASF12
C:\Users\stapi\AppData\Local\Temp\ccZUJhbd.s:8422   .debug_str:0000000000000506 .LASF13
C:\Users\stapi\AppData\Local\Temp\ccZUJhbd.s:8696   .debug_str:0000000000000e54 .LASF14
C:\Users\stapi\AppData\Local\Temp\ccZUJhbd.s:8804   .debug_str:00000000000011f7 .LASF15
C:\Users\stapi\AppData\Local\Temp\ccZUJhbd.s:8714   .debug_str:0000000000000ede .LASF16
C:\Users\stapi\AppData\Local\Temp\ccZUJhbd.s:8652   .debug_str:0000000000000c8a .LASF17
C:\Users\stapi\AppData\Local\Temp\ccZUJhbd.s:8428   .debug_str:000000000000052f .LASF18
C:\Users\stapi\AppData\Local\Temp\ccZUJhbd.s:8426   .debug_str:000000000000051e .LASF19
C:\Users\stapi\AppData\Local\Temp\ccZUJhbd.s:8828   .debug_str:00000000000012b9 .LASF20
C:\Users\stapi\AppData\Local\Temp\ccZUJhbd.s:8314   .debug_str:0000000000000000 .LASF21
C:\Users\stapi\AppData\Local\Temp\ccZUJhbd.s:8790   .debug_str:000000000000116e .LASF22
C:\Users\stapi\AppData\Local\Temp\ccZUJhbd.s:8354   .debug_str:00000000000002ec .LASF23
C:\Users\stapi\AppData\Local\Temp\ccZUJhbd.s:8768   .debug_str:0000000000001090 .LASF24
C:\Users\stapi\AppData\Local\Temp\ccZUJhbd.s:8540   .debug_str:00000000000008e2 .LASF25
C:\Users\stapi\AppData\Local\Temp\ccZUJhbd.s:8470   .debug_str:000000000000068e .LASF26
C:\Users\stapi\AppData\Local\Temp\ccZUJhbd.s:8478   .debug_str:00000000000006d3 .LASF27
C:\Users\stapi\AppData\Local\Temp\ccZUJhbd.s:8812   .debug_str:0000000000001230 .LASF28
C:\Users\stapi\AppData\Local\Temp\ccZUJhbd.s:8398   .debug_str:0000000000000430 .LASF29
C:\Users\stapi\AppData\Local\Temp\ccZUJhbd.s:8446   .debug_str:00000000000005d5 .LASF30
C:\Users\stapi\AppData\Local\Temp\ccZUJhbd.s:8418   .debug_str:00000000000004ea .LASF31
C:\Users\stapi\AppData\Local\Temp\ccZUJhbd.s:8482   .debug_str:00000000000006f3 .LASF32
C:\Users\stapi\AppData\Local\Temp\ccZUJhbd.s:8572   .debug_str:00000000000009e1 .LASF33
C:\Users\stapi\AppData\Local\Temp\ccZUJhbd.s:8558   .debug_str:000000000000097d .LASF34
C:\Users\stapi\AppData\Local\Temp\ccZUJhbd.s:8822   .debug_str:0000000000001288 .LASF35
C:\Users\stapi\AppData\Local\Temp\ccZUJhbd.s:8622   .debug_str:0000000000000b6c .LASF36
C:\Users\stapi\AppData\Local\Temp\ccZUJhbd.s:8404   .debug_str:0000000000000466 .LASF37
C:\Users\stapi\AppData\Local\Temp\ccZUJhbd.s:8700   .debug_str:0000000000000e65 .LASF38
C:\Users\stapi\AppData\Local\Temp\ccZUJhbd.s:8344   .debug_str:0000000000000284 .LASF39
C:\Users\stapi\AppData\Local\Temp\ccZUJhbd.s:8644   .debug_str:0000000000000c34 .LASF40
C:\Users\stapi\AppData\Local\Temp\ccZUJhbd.s:8742   .debug_str:0000000000000fbf .LASF41
C:\Users\stapi\AppData\Local\Temp\ccZUJhbd.s:8634   .debug_str:0000000000000bd7 .LASF42
C:\Users\stapi\AppData\Local\Temp\ccZUJhbd.s:8780   .debug_str:0000000000001102 .LASF43
C:\Users\stapi\AppData\Local\Temp\ccZUJhbd.s:8532   .debug_str:0000000000000893 .LASF44
C:\Users\stapi\AppData\Local\Temp\ccZUJhbd.s:8814   .debug_str:0000000000001244 .LASF45
C:\Users\stapi\AppData\Local\Temp\ccZUJhbd.s:8574   .debug_str:00000000000009fa .LASF46
C:\Users\stapi\AppData\Local\Temp\ccZUJhbd.s:8832   .debug_str:00000000000012db .LASF47
C:\Users\stapi\AppData\Local\Temp\ccZUJhbd.s:8808   .debug_str:000000000000120a .LASF48
C:\Users\stapi\AppData\Local\Temp\ccZUJhbd.s:8774   .debug_str:00000000000010bc .LASF49
C:\Users\stapi\AppData\Local\Temp\ccZUJhbd.s:8670   .debug_str:0000000000000d9f .LASF72
C:\Users\stapi\AppData\Local\Temp\ccZUJhbd.s:8346   .debug_str:0000000000000299 .LASF50
C:\Users\stapi\AppData\Local\Temp\ccZUJhbd.s:8358   .debug_str:0000000000000310 .LASF51
C:\Users\stapi\AppData\Local\Temp\ccZUJhbd.s:8414   .debug_str:00000000000004ca .LASF52
C:\Users\stapi\AppData\Local\Temp\ccZUJhbd.s:8728   .debug_str:0000000000000f46 .LASF53
C:\Users\stapi\AppData\Local\Temp\ccZUJhbd.s:8492   .debug_str:000000000000074f .LASF54
C:\Users\stapi\AppData\Local\Temp\ccZUJhbd.s:8484   .debug_str:0000000000000707 .LASF55
C:\Users\stapi\AppData\Local\Temp\ccZUJhbd.s:8506   .debug_str:00000000000007bc .LASF56
C:\Users\stapi\AppData\Local\Temp\ccZUJhbd.s:8438   .debug_str:0000000000000587 .LASF57
C:\Users\stapi\AppData\Local\Temp\ccZUJhbd.s:8516   .debug_str:0000000000000805 .LASF58
C:\Users\stapi\AppData\Local\Temp\ccZUJhbd.s:8614   .debug_str:0000000000000b2f .LASF59
C:\Users\stapi\AppData\Local\Temp\ccZUJhbd.s:8726   .debug_str:0000000000000f2f .LASF60
C:\Users\stapi\AppData\Local\Temp\ccZUJhbd.s:8348   .debug_str:00000000000002a9 .LASF61
C:\Users\stapi\AppData\Local\Temp\ccZUJhbd.s:8784   .debug_str:0000000000001126 .LASF62
C:\Users\stapi\AppData\Local\Temp\ccZUJhbd.s:8606   .debug_str:0000000000000af6 .LASF63
C:\Users\stapi\AppData\Local\Temp\ccZUJhbd.s:8830   .debug_str:00000000000012c6 .LASF64
C:\Users\stapi\AppData\Local\Temp\ccZUJhbd.s:8464   .debug_str:0000000000000652 .LASF65
C:\Users\stapi\AppData\Local\Temp\ccZUJhbd.s:8334   .debug_str:0000000000000234 .LASF66
C:\Users\stapi\AppData\Local\Temp\ccZUJhbd.s:8618   .debug_str:0000000000000b4f .LASF67
C:\Users\stapi\AppData\Local\Temp\ccZUJhbd.s:8322   .debug_str:00000000000000e4 .LASF68
C:\Users\stapi\AppData\Local\Temp\ccZUJhbd.s:8524   .debug_str:0000000000000848 .LASF69
C:\Users\stapi\AppData\Local\Temp\ccZUJhbd.s:8318   .debug_str:0000000000000026 .LASF70
C:\Users\stapi\AppData\Local\Temp\ccZUJhbd.s:8518   .debug_str:000000000000081b .LASF71
C:\Users\stapi\AppData\Local\Temp\ccZUJhbd.s:8638   .debug_str:0000000000000bf6 .LASF73
C:\Users\stapi\AppData\Local\Temp\ccZUJhbd.s:8412   .debug_str:00000000000004b6 .LASF74
C:\Users\stapi\AppData\Local\Temp\ccZUJhbd.s:8544   .debug_str:0000000000000903 .LASF75
C:\Users\stapi\AppData\Local\Temp\ccZUJhbd.s:8444   .debug_str:00000000000005ba .LASF76
C:\Users\stapi\AppData\Local\Temp\ccZUJhbd.s:8592   .debug_str:0000000000000a8e .LASF77
C:\Users\stapi\AppData\Local\Temp\ccZUJhbd.s:8764   .debug_str:000000000000106b .LASF78
C:\Users\stapi\AppData\Local\Temp\ccZUJhbd.s:8434   .debug_str:0000000000000558 .LASF79
C:\Users\stapi\AppData\Local\Temp\ccZUJhbd.s:8456   .debug_str:0000000000000613 .LASF80
C:\Users\stapi\AppData\Local\Temp\ccZUJhbd.s:8798   .debug_str:00000000000011b4 .LASF81
C:\Users\stapi\AppData\Local\Temp\ccZUJhbd.s:8430   .debug_str:0000000000000540 .LASF82
C:\Users\stapi\AppData\Local\Temp\ccZUJhbd.s:8474   .debug_str:00000000000006b0 .LASF83
C:\Users\stapi\AppData\Local\Temp\ccZUJhbd.s:8800   .debug_str:00000000000011d2 .LASF84
C:\Users\stapi\AppData\Local\Temp\ccZUJhbd.s:8740   .debug_str:0000000000000fab .LASF85
C:\Users\stapi\AppData\Local\Temp\ccZUJhbd.s:8630   .debug_str:0000000000000baa .LASF86
C:\Users\stapi\AppData\Local\Temp\ccZUJhbd.s:8824   .debug_str:0000000000001291 .LASF87
C:\Users\stapi\AppData\Local\Temp\ccZUJhbd.s:8640   .debug_str:0000000000000c05 .LASF88
C:\Users\stapi\AppData\Local\Temp\ccZUJhbd.s:8468   .debug_str:0000000000000673 .LASF89
C:\Users\stapi\AppData\Local\Temp\ccZUJhbd.s:8502   .debug_str:000000000000079f .LASF90
C:\Users\stapi\AppData\Local\Temp\ccZUJhbd.s:8792   .debug_str:0000000000001182 .LASF91
C:\Users\stapi\AppData\Local\Temp\ccZUJhbd.s:8608   .debug_str:0000000000000b07 .LASF92
C:\Users\stapi\AppData\Local\Temp\ccZUJhbd.s:8680   .debug_str:0000000000000dec .LASF93
C:\Users\stapi\AppData\Local\Temp\ccZUJhbd.s:8424   .debug_str:000000000000050e .LASF94
C:\Users\stapi\AppData\Local\Temp\ccZUJhbd.s:8716   .debug_str:0000000000000eee .LASF95
C:\Users\stapi\AppData\Local\Temp\ccZUJhbd.s:8738   .debug_str:0000000000000f9b .LASF96
C:\Users\stapi\AppData\Local\Temp\ccZUJhbd.s:8316   .debug_str:0000000000000012 .LASF97
C:\Users\stapi\AppData\Local\Temp\ccZUJhbd.s:8366   .debug_str:000000000000034a .LASF98
C:\Users\stapi\AppData\Local\Temp\ccZUJhbd.s:8328   .debug_str:00000000000001ec .LASF99
C:\Users\stapi\AppData\Local\Temp\ccZUJhbd.s:8462   .debug_str:0000000000000644 .LASF100
C:\Users\stapi\AppData\Local\Temp\ccZUJhbd.s:8818   .debug_str:000000000000126b .LASF101
C:\Users\stapi\AppData\Local\Temp\ccZUJhbd.s:8732   .debug_str:0000000000000f5f .LASF102
C:\Users\stapi\AppData\Local\Temp\ccZUJhbd.s:8600   .debug_str:0000000000000ad6 .LASF103
C:\Users\stapi\AppData\Local\Temp\ccZUJhbd.s:8496   .debug_str:0000000000000770 .LASF104
C:\Users\stapi\AppData\Local\Temp\ccZUJhbd.s:8400   .debug_str:0000000000000443 .LASF105
C:\Users\stapi\AppData\Local\Temp\ccZUJhbd.s:8838   .debug_str:0000000000001304 .LASF106
C:\Users\stapi\AppData\Local\Temp\ccZUJhbd.s:8498   .debug_str:000000000000077f .LASF107
C:\Users\stapi\AppData\Local\Temp\ccZUJhbd.s:8576   .debug_str:0000000000000a08 .LASF108
C:\Users\stapi\AppData\Local\Temp\ccZUJhbd.s:8718   .debug_str:0000000000000eff .LASF123
C:\Users\stapi\AppData\Local\Temp\ccZUJhbd.s:8450   .debug_str:00000000000005eb .LASF109
C:\Users\stapi\AppData\Local\Temp\ccZUJhbd.s:8566   .debug_str:00000000000009ab .LASF110
C:\Users\stapi\AppData\Local\Temp\ccZUJhbd.s:8658   .debug_str:0000000000000d38 .LASF111
C:\Users\stapi\AppData\Local\Temp\ccZUJhbd.s:8806   .debug_str:0000000000001200 .LASF112
C:\Users\stapi\AppData\Local\Temp\ccZUJhbd.s:8458   .debug_str:0000000000000637 .LASF113
C:\Users\stapi\AppData\Local\Temp\ccZUJhbd.s:8624   .debug_str:0000000000000b82 .LASF114
C:\Users\stapi\AppData\Local\Temp\ccZUJhbd.s:8750   .debug_str:000000000000100a .LASF115
C:\Users\stapi\AppData\Local\Temp\ccZUJhbd.s:8480   .debug_str:00000000000006eb .LASF116
C:\Users\stapi\AppData\Local\Temp\ccZUJhbd.s:8748   .debug_str:0000000000000ffc .LASF117
C:\Users\stapi\AppData\Local\Temp\ccZUJhbd.s:8678   .debug_str:0000000000000de1 .LASF118
C:\Users\stapi\AppData\Local\Temp\ccZUJhbd.s:8362   .debug_str:0000000000000337 .LASF119
C:\Users\stapi\AppData\Local\Temp\ccZUJhbd.s:8512   .debug_str:00000000000007ed .LASF120
C:\Users\stapi\AppData\Local\Temp\ccZUJhbd.s:8836   .debug_str:00000000000012fb .LASF121
C:\Users\stapi\AppData\Local\Temp\ccZUJhbd.s:8736   .debug_str:0000000000000f91 .LASF122
C:\Users\stapi\AppData\Local\Temp\ccZUJhbd.s:8596   .debug_str:0000000000000ab8 .LASF124
C:\Users\stapi\AppData\Local\Temp\ccZUJhbd.s:8842   .debug_str:0000000000001319 .LASF125
C:\Users\stapi\AppData\Local\Temp\ccZUJhbd.s:8698   .debug_str:0000000000000e5d .LASF126
C:\Users\stapi\AppData\Local\Temp\ccZUJhbd.s:8560   .debug_str:0000000000000986 .LASF127
C:\Users\stapi\AppData\Local\Temp\ccZUJhbd.s:8546   .debug_str:0000000000000918 .LASF128
C:\Users\stapi\AppData\Local\Temp\ccZUJhbd.s:8378   .debug_str:00000000000003ae .LASF129
C:\Users\stapi\AppData\Local\Temp\ccZUJhbd.s:8664   .debug_str:0000000000000d5c .LASF130
C:\Users\stapi\AppData\Local\Temp\ccZUJhbd.s:8672   .debug_str:0000000000000dac .LASF131
C:\Users\stapi\AppData\Local\Temp\ccZUJhbd.s:8380   .debug_str:00000000000003b3 .LASF132
C:\Users\stapi\AppData\Local\Temp\ccZUJhbd.s:8382   .debug_str:00000000000003ba .LASF133
C:\Users\stapi\AppData\Local\Temp\ccZUJhbd.s:8416   .debug_str:00000000000004de .LASF134
C:\Users\stapi\AppData\Local\Temp\ccZUJhbd.s:8368   .debug_str:000000000000035a .LASF135
C:\Users\stapi\AppData\Local\Temp\ccZUJhbd.s:8370   .debug_str:0000000000000375 .LASF136
C:\Users\stapi\AppData\Local\Temp\ccZUJhbd.s:8488   .debug_str:000000000000072d .LASF137
C:\Users\stapi\AppData\Local\Temp\ccZUJhbd.s:8752   .debug_str:0000000000001015 .LASF138
C:\Users\stapi\AppData\Local\Temp\ccZUJhbd.s:8504   .debug_str:00000000000007b0 .LASF139
C:\Users\stapi\AppData\Local\Temp\ccZUJhbd.s:8604   .debug_str:0000000000000af0 .LASF140
C:\Users\stapi\AppData\Local\Temp\ccZUJhbd.s:8568   .debug_str:00000000000009b9 .LASF141
C:\Users\stapi\AppData\Local\Temp\ccZUJhbd.s:8590   .debug_str:0000000000000a71 .LASF142
C:\Users\stapi\AppData\Local\Temp\ccZUJhbd.s:8834   .debug_str:00000000000012ee .LASF143
C:\Users\stapi\AppData\Local\Temp\ccZUJhbd.s:8564   .debug_str:000000000000099c .LASF144
C:\Users\stapi\AppData\Local\Temp\ccZUJhbd.s:8554   .debug_str:000000000000095b .LASF145
C:\Users\stapi\AppData\Local\Temp\ccZUJhbd.s:8580   .debug_str:0000000000000a27 .LASF146
C:\Users\stapi\AppData\Local\Temp\ccZUJhbd.s:8342   .debug_str:0000000000000277 .LASF147
C:\Users\stapi\AppData\Local\Temp\ccZUJhbd.s:8656   .debug_str:0000000000000d2c .LASF148
C:\Users\stapi\AppData\Local\Temp\ccZUJhbd.s:8754   .debug_str:0000000000001023 .LASF149
C:\Users\stapi\AppData\Local\Temp\ccZUJhbd.s:8338   .debug_str:000000000000025e .LASF150
C:\Users\stapi\AppData\Local\Temp\ccZUJhbd.s:8526   .debug_str:000000000000085c .LASF151
C:\Users\stapi\AppData\Local\Temp\ccZUJhbd.s:8520   .debug_str:0000000000000826 .LASF152
C:\Users\stapi\AppData\Local\Temp\ccZUJhbd.s:8712   .debug_str:0000000000000ed3 .LASF153
C:\Users\stapi\AppData\Local\Temp\ccZUJhbd.s:8440   .debug_str:00000000000005a3 .LASF154
C:\Users\stapi\AppData\Local\Temp\ccZUJhbd.s:8616   .debug_str:0000000000000b4a .LASF155
C:\Users\stapi\AppData\Local\Temp\ccZUJhbd.s:8756   .debug_str:000000000000102c .LASF156
C:\Users\stapi\AppData\Local\Temp\ccZUJhbd.s:8610   .debug_str:0000000000000b15 .LASF157
C:\Users\stapi\AppData\Local\Temp\ccZUJhbd.s:8786   .debug_str:0000000000001144 .LASF158
C:\Users\stapi\AppData\Local\Temp\ccZUJhbd.s:8844   .debug_str:000000000000131e .LASF159
C:\Users\stapi\AppData\Local\Temp\ccZUJhbd.s:8720   .debug_str:0000000000000f07 .LASF160
C:\Users\stapi\AppData\Local\Temp\ccZUJhbd.s:8684   .debug_str:0000000000000e07 .LASF161
C:\Users\stapi\AppData\Local\Temp\ccZUJhbd.s:8402   .debug_str:0000000000000454 .LASF162
C:\Users\stapi\AppData\Local\Temp\ccZUJhbd.s:8770   .debug_str:00000000000010a1 .LASF163
C:\Users\stapi\AppData\Local\Temp\ccZUJhbd.s:8472   .debug_str:000000000000069f .LASF164
C:\Users\stapi\AppData\Local\Temp\ccZUJhbd.s:8530   .debug_str:000000000000087d .LASF165
C:\Users\stapi\AppData\Local\Temp\ccZUJhbd.s:8340   .debug_str:0000000000000264 .LASF166
C:\Users\stapi\AppData\Local\Temp\ccZUJhbd.s:8820   .debug_str:0000000000001277 .LASF167
C:\Users\stapi\AppData\Local\Temp\ccZUJhbd.s:8500   .debug_str:000000000000078f .LASF168
C:\Users\stapi\AppData\Local\Temp\ccZUJhbd.s:8406   .debug_str:0000000000000477 .LASF169
C:\Users\stapi\AppData\Local\Temp\ccZUJhbd.s:8510   .debug_str:00000000000007dd .LASF170
C:\Users\stapi\AppData\Local\Temp\ccZUJhbd.s:8598   .debug_str:0000000000000ac5 .LASF171
C:\Users\stapi\AppData\Local\Temp\ccZUJhbd.s:8692   .debug_str:0000000000000e3d .LASF172
C:\Users\stapi\AppData\Local\Temp\ccZUJhbd.s:8602   .debug_str:0000000000000ae6 .LASF173
C:\Users\stapi\AppData\Local\Temp\ccZUJhbd.s:8390   .debug_str:00000000000003f2 .LASF174
C:\Users\stapi\AppData\Local\Temp\ccZUJhbd.s:8386   .debug_str:00000000000003c9 .LASF180
C:\Users\stapi\AppData\Local\Temp\ccZUJhbd.s:1976   .text.aws_get_ssid_passwd:0000000000000000 .LFB66
C:\Users\stapi\AppData\Local\Temp\ccZUJhbd.s:2141   .text.aws_get_ssid_passwd:0000000000000108 .LFE66
C:\Users\stapi\AppData\Local\Temp\ccZUJhbd.s:7345   .debug_loc:0000000000000000 .LLST50
C:\Users\stapi\AppData\Local\Temp\ccZUJhbd.s:7370   .debug_loc:000000000000003a .LLST51
C:\Users\stapi\AppData\Local\Temp\ccZUJhbd.s:7392   .debug_loc:0000000000000071 .LLST52
C:\Users\stapi\AppData\Local\Temp\ccZUJhbd.s:7414   .debug_loc:00000000000000a8 .LLST53
C:\Users\stapi\AppData\Local\Temp\ccZUJhbd.s:8588   .debug_str:0000000000000a6c .LASF175
C:\Users\stapi\AppData\Local\Temp\ccZUJhbd.s:7436   .debug_loc:00000000000000df .LLST54
C:\Users\stapi\AppData\Local\Temp\ccZUJhbd.s:8448   .debug_str:00000000000005e5 .LASF176
C:\Users\stapi\AppData\Local\Temp\ccZUJhbd.s:7458   .debug_loc:0000000000000116 .LLST55
C:\Users\stapi\AppData\Local\Temp\ccZUJhbd.s:7469   .debug_loc:0000000000000134 .LLST56
C:\Users\stapi\AppData\Local\Temp\ccZUJhbd.s:7491   .debug_loc:000000000000016b .LLST57
C:\Users\stapi\AppData\Local\Temp\ccZUJhbd.s:8452   .debug_str:00000000000005f1 .LASF188
C:\Users\stapi\AppData\Local\Temp\ccZUJhbd.s:2014   .text.aws_get_ssid_passwd:000000000000003a .LVL174
C:\Users\stapi\AppData\Local\Temp\ccZUJhbd.s:2067   .text.aws_get_ssid_passwd:000000000000007e .LVL181
C:\Users\stapi\AppData\Local\Temp\ccZUJhbd.s:2078   .text.aws_get_ssid_passwd:0000000000000098 .LVL182
C:\Users\stapi\AppData\Local\Temp\ccZUJhbd.s:2089   .text.aws_get_ssid_passwd:00000000000000b0 .LVL183
C:\Users\stapi\AppData\Local\Temp\ccZUJhbd.s:2100   .text.aws_get_ssid_passwd:00000000000000c8 .LVL184
C:\Users\stapi\AppData\Local\Temp\ccZUJhbd.s:8746   .debug_str:0000000000000fea .LASF177
C:\Users\stapi\AppData\Local\Temp\ccZUJhbd.s:1938   .text.aws_release_mutex:0000000000000000 .LFB65
C:\Users\stapi\AppData\Local\Temp\ccZUJhbd.s:1965   .text.aws_release_mutex:0000000000000028 .LFE65
C:\Users\stapi\AppData\Local\Temp\ccZUJhbd.s:1954   .text.aws_release_mutex:000000000000001c .LVL166
C:\Users\stapi\AppData\Local\Temp\ccZUJhbd.s:8494   .debug_str:0000000000000764 .LASF178
C:\Users\stapi\AppData\Local\Temp\ccZUJhbd.s:1789   .text.aws_destroy:0000000000000000 .LFB64
C:\Users\stapi\AppData\Local\Temp\ccZUJhbd.s:1931   .text.aws_destroy:00000000000000d0 .LFE64
C:\Users\stapi\AppData\Local\Temp\ccZUJhbd.s:1848   .text.aws_destroy:0000000000000056 .LBB225
C:\Users\stapi\AppData\Local\Temp\ccZUJhbd.s:1854   .text.aws_destroy:000000000000005e .LBE225
C:\Users\stapi\AppData\Local\Temp\ccZUJhbd.s:1852   .text.aws_destroy:000000000000005e .LVL159
C:\Users\stapi\AppData\Local\Temp\ccZUJhbd.s:1883   .text.aws_destroy:0000000000000098 .LBB227
C:\Users\stapi\AppData\Local\Temp\ccZUJhbd.s:1890   .text.aws_destroy:00000000000000a2 .LBE227
C:\Users\stapi\AppData\Local\Temp\ccZUJhbd.s:7513   .debug_loc:00000000000001a2 .LLST49
C:\Users\stapi\AppData\Local\Temp\ccZUJhbd.s:1888   .text.aws_destroy:00000000000000a2 .LVL162
C:\Users\stapi\AppData\Local\Temp\ccZUJhbd.s:1920   .text.aws_destroy:00000000000000c2 .LBB229
C:\Users\stapi\AppData\Local\Temp\ccZUJhbd.s:1929   .text.aws_destroy:00000000000000d0 .LBE229
C:\Users\stapi\AppData\Local\Temp\ccZUJhbd.s:1925   .text.aws_destroy:00000000000000ce .LVL165
C:\Users\stapi\AppData\Local\Temp\ccZUJhbd.s:1809   .text.aws_destroy:000000000000001e .LVL156
C:\Users\stapi\AppData\Local\Temp\ccZUJhbd.s:1820   .text.aws_destroy:000000000000002c .LVL157
C:\Users\stapi\AppData\Local\Temp\ccZUJhbd.s:1835   .text.aws_destroy:0000000000000044 .LVL158
C:\Users\stapi\AppData\Local\Temp\ccZUJhbd.s:1861   .text.aws_destroy:0000000000000074 .LVL160
C:\Users\stapi\AppData\Local\Temp\ccZUJhbd.s:1881   .text.aws_destroy:0000000000000098 .LVL161
C:\Users\stapi\AppData\Local\Temp\ccZUJhbd.s:1896   .text.aws_destroy:00000000000000ae .LVL163
C:\Users\stapi\AppData\Local\Temp\ccZUJhbd.s:8690   .debug_str:0000000000000e33 .LASF179
C:\Users\stapi\AppData\Local\Temp\ccZUJhbd.s:1645   .text.aws_start:0000000000000000 .LFB63
C:\Users\stapi\AppData\Local\Temp\ccZUJhbd.s:1775   .text.aws_start:00000000000000ee .LFE63
C:\Users\stapi\AppData\Local\Temp\ccZUJhbd.s:7521   .debug_loc:00000000000001b9 .LLST42
C:\Users\stapi\AppData\Local\Temp\ccZUJhbd.s:7535   .debug_loc:00000000000001da .LLST43
C:\Users\stapi\AppData\Local\Temp\ccZUJhbd.s:7549   .debug_loc:00000000000001fb .LLST44
C:\Users\stapi\AppData\Local\Temp\ccZUJhbd.s:7563   .debug_loc:000000000000021c .LLST45
C:\Users\stapi\AppData\Local\Temp\ccZUJhbd.s:1656   .text.aws_start:0000000000000008 .LBB219
C:\Users\stapi\AppData\Local\Temp\ccZUJhbd.s:1682   .text.aws_start:0000000000000026 .LBE219
C:\Users\stapi\AppData\Local\Temp\ccZUJhbd.s:7577   .debug_loc:000000000000023d .LLST46
C:\Users\stapi\AppData\Local\Temp\ccZUJhbd.s:7586   .debug_loc:0000000000000252 .LLST47
C:\Users\stapi\AppData\Local\Temp\ccZUJhbd.s:1659   .text.aws_start:0000000000000008 .LBB221
C:\Users\stapi\AppData\Local\Temp\ccZUJhbd.s:1670   .text.aws_start:0000000000000016 .LBE221
C:\Users\stapi\AppData\Local\Temp\ccZUJhbd.s:7593   .debug_loc:0000000000000265 .LLST48
C:\Users\stapi\AppData\Local\Temp\ccZUJhbd.s:1666   .text.aws_start:0000000000000014 .LVL143
C:\Users\stapi\AppData\Local\Temp\ccZUJhbd.s:1678   .text.aws_start:0000000000000026 .LVL145
C:\Users\stapi\AppData\Local\Temp\ccZUJhbd.s:1752   .text.aws_start:00000000000000c6 .LBB223
C:\Users\stapi\AppData\Local\Temp\ccZUJhbd.s:1760   .text.aws_start:00000000000000d6 .LBE223
C:\Users\stapi\AppData\Local\Temp\ccZUJhbd.s:1758   .text.aws_start:00000000000000d6 .LVL153
C:\Users\stapi\AppData\Local\Temp\ccZUJhbd.s:1695   .text.aws_start:0000000000000042 .LVL146
C:\Users\stapi\AppData\Local\Temp\ccZUJhbd.s:1713   .text.aws_start:0000000000000062 .LVL148
C:\Users\stapi\AppData\Local\Temp\ccZUJhbd.s:1720   .text.aws_start:0000000000000078 .LVL149
C:\Users\stapi\AppData\Local\Temp\ccZUJhbd.s:1727   .text.aws_start:000000000000008e .LVL150
C:\Users\stapi\AppData\Local\Temp\ccZUJhbd.s:1747   .text.aws_start:00000000000000be .LVL151
C:\Users\stapi\AppData\Local\Temp\ccZUJhbd.s:1750   .text.aws_start:00000000000000c6 .LVL152
C:\Users\stapi\AppData\Local\Temp\ccZUJhbd.s:1763   .text.aws_start:00000000000000de .LVL154
C:\Users\stapi\AppData\Local\Temp\ccZUJhbd.s:1766   .text.aws_start:00000000000000e6 .LVL155
C:\Users\stapi\AppData\Local\Temp\ccZUJhbd.s:8642   .debug_str:0000000000000c1c .LASF181
C:\Users\stapi\AppData\Local\Temp\ccZUJhbd.s:77     .text.aws_80211_frame_handler:0000000000000000 .LFB62
C:\Users\stapi\AppData\Local\Temp\ccZUJhbd.s:180    .text.aws_80211_frame_handler:000000000000008c .LFE62
C:\Users\stapi\AppData\Local\Temp\ccZUJhbd.s:7602   .debug_loc:000000000000027a .LLST0
C:\Users\stapi\AppData\Local\Temp\ccZUJhbd.s:8694   .debug_str:0000000000000e4d .LASF182
C:\Users\stapi\AppData\Local\Temp\ccZUJhbd.s:7616   .debug_loc:000000000000029b .LLST1
C:\Users\stapi\AppData\Local\Temp\ccZUJhbd.s:8612   .debug_str:0000000000000b25 .LASF183
C:\Users\stapi\AppData\Local\Temp\ccZUJhbd.s:7630   .debug_loc:00000000000002bc .LLST2
C:\Users\stapi\AppData\Local\Temp\ccZUJhbd.s:8432   .debug_str:000000000000054f .LASF184
C:\Users\stapi\AppData\Local\Temp\ccZUJhbd.s:7648   .debug_loc:00000000000002e8 .LLST3
C:\Users\stapi\AppData\Local\Temp\ccZUJhbd.s:8840   .debug_str:0000000000001314 .LASF185
C:\Users\stapi\AppData\Local\Temp\ccZUJhbd.s:7666   .debug_loc:0000000000000314 .LLST4
C:\Users\stapi\AppData\Local\Temp\ccZUJhbd.s:8636   .debug_str:0000000000000beb .LASF186
C:\Users\stapi\AppData\Local\Temp\ccZUJhbd.s:152    .text.aws_80211_frame_handler:000000000000006e .LBB94
C:\Users\stapi\AppData\Local\Temp\ccZUJhbd.s:7680   .debug_loc:0000000000000335 .LLST5
C:\Users\stapi\AppData\Local\Temp\ccZUJhbd.s:157    .text.aws_80211_frame_handler:0000000000000076 .LVL10
C:\Users\stapi\AppData\Local\Temp\ccZUJhbd.s:104    .text.aws_80211_frame_handler:0000000000000026 .LVL6
C:\Users\stapi\AppData\Local\Temp\ccZUJhbd.s:128    .text.aws_80211_frame_handler:0000000000000054 .LVL8
C:\Users\stapi\AppData\Local\Temp\ccZUJhbd.s:8662   .debug_str:0000000000000d4d .LASF259
C:\Users\stapi\AppData\Local\Temp\ccZUJhbd.s:13     .text.rescan_monitor:0000000000000000 .LFB61
C:\Users\stapi\AppData\Local\Temp\ccZUJhbd.s:25     .text.rescan_monitor:000000000000000c .LFE61
C:\Users\stapi\AppData\Local\Temp\ccZUJhbd.s:8454   .debug_str:00000000000005fe .LASF187
C:\Users\stapi\AppData\Local\Temp\ccZUJhbd.s:1086   .text.aws_main_thread_func:0000000000000000 .LFB60
C:\Users\stapi\AppData\Local\Temp\ccZUJhbd.s:1638   .text.aws_main_thread_func:0000000000000388 .LFE60
C:\Users\stapi\AppData\Local\Temp\ccZUJhbd.s:8408   .debug_str:000000000000048a .LASF260
C:\Users\stapi\AppData\Local\Temp\ccZUJhbd.s:8802   .debug_str:00000000000011e6 .LASF189
C:\Users\stapi\AppData\Local\Temp\ccZUJhbd.s:8534   .debug_str:00000000000008a8 .LASF190
C:\Users\stapi\AppData\Local\Temp\ccZUJhbd.s:8660   .debug_str:0000000000000d45 .LASF191
C:\Users\stapi\AppData\Local\Temp\ccZUJhbd.s:8372   .debug_str:0000000000000386 .LASF192
C:\Users\stapi\AppData\Local\Temp\ccZUJhbd.s:7687   .debug_loc:0000000000000348 .LLST33
C:\Users\stapi\AppData\Local\Temp\ccZUJhbd.s:1348   .text.aws_main_thread_func:00000000000001ae .LBB185
C:\Users\stapi\AppData\Local\Temp\ccZUJhbd.s:1357   .text.aws_main_thread_func:00000000000001b8 .LBE185
C:\Users\stapi\AppData\Local\Temp\ccZUJhbd.s:1353   .text.aws_main_thread_func:00000000000001b6 .LVL108
C:\Users\stapi\AppData\Local\Temp\ccZUJhbd.s:1372   .text.aws_main_thread_func:00000000000001c4 .LBB187
C:\Users\stapi\AppData\Local\Temp\ccZUJhbd.s:1379   .text.aws_main_thread_func:00000000000001ce .LBE187
C:\Users\stapi\AppData\Local\Temp\ccZUJhbd.s:7723   .debug_loc:0000000000000394 .LLST34
C:\Users\stapi\AppData\Local\Temp\ccZUJhbd.s:1377   .text.aws_main_thread_func:00000000000001ce .LVL113
C:\Users\stapi\AppData\Local\Temp\ccZUJhbd.s:1384   .text.aws_main_thread_func:00000000000001d6 .LBB189
C:\Users\stapi\AppData\Local\Temp\ccZUJhbd.s:1391   .text.aws_main_thread_func:00000000000001e0 .LBE189
C:\Users\stapi\AppData\Local\Temp\ccZUJhbd.s:7735   .debug_loc:00000000000003b3 .LLST35
C:\Users\stapi\AppData\Local\Temp\ccZUJhbd.s:1389   .text.aws_main_thread_func:00000000000001e0 .LVL115
C:\Users\stapi\AppData\Local\Temp\ccZUJhbd.s:1393   .text.aws_main_thread_func:00000000000001e0 .LBB191
C:\Users\stapi\AppData\Local\Temp\ccZUJhbd.s:1404   .text.aws_main_thread_func:00000000000001ec .LBE191
C:\Users\stapi\AppData\Local\Temp\ccZUJhbd.s:7743   .debug_loc:00000000000003c7 .LLST36
C:\Users\stapi\AppData\Local\Temp\ccZUJhbd.s:1398   .text.aws_main_thread_func:00000000000001ea .LVL116
C:\Users\stapi\AppData\Local\Temp\ccZUJhbd.s:1164   .text.aws_main_thread_func:0000000000000072 .LVL91
C:\Users\stapi\AppData\Local\Temp\ccZUJhbd.s:1343   .text.aws_main_thread_func:00000000000001ac .LVL107
C:\Users\stapi\AppData\Local\Temp\ccZUJhbd.s:1382   .text.aws_main_thread_func:00000000000001d6 .LVL114
C:\Users\stapi\AppData\Local\Temp\ccZUJhbd.s:1450   .text.aws_main_thread_func:0000000000000244 .LBB207
C:\Users\stapi\AppData\Local\Temp\ccZUJhbd.s:1465   .text.aws_main_thread_func:000000000000025e .LBE207
C:\Users\stapi\AppData\Local\Temp\ccZUJhbd.s:8706   .debug_str:0000000000000ea2 .LASF193
C:\Users\stapi\AppData\Local\Temp\ccZUJhbd.s:7751   .debug_loc:00000000000003db .LLST40
C:\Users\stapi\AppData\Local\Temp\ccZUJhbd.s:1460   .text.aws_main_thread_func:0000000000000256 .LVL123
C:\Users\stapi\AppData\Local\Temp\ccZUJhbd.s:1126   .text.aws_main_thread_func:000000000000003c .LBB181
C:\Users\stapi\AppData\Local\Temp\ccZUJhbd.s:1627   .text.aws_main_thread_func:000000000000037c .LVL139
C:\Users\stapi\AppData\Local\Temp\ccZUJhbd.s:1188   .text.aws_main_thread_func:0000000000000092 .LBB194
C:\Users\stapi\AppData\Local\Temp\ccZUJhbd.s:1196   .text.aws_main_thread_func:000000000000009a .LBE194
C:\Users\stapi\AppData\Local\Temp\ccZUJhbd.s:7758   .debug_loc:00000000000003ee .LLST37
C:\Users\stapi\AppData\Local\Temp\ccZUJhbd.s:1193   .text.aws_main_thread_func:000000000000009a .LVL93
C:\Users\stapi\AppData\Local\Temp\ccZUJhbd.s:1234   .text.aws_main_thread_func:00000000000000f6 .LBB196
C:\Users\stapi\AppData\Local\Temp\ccZUJhbd.s:1242   .text.aws_main_thread_func:00000000000000fe .LBE196
C:\Users\stapi\AppData\Local\Temp\ccZUJhbd.s:7765   .debug_loc:0000000000000401 .LLST38
C:\Users\stapi\AppData\Local\Temp\ccZUJhbd.s:1239   .text.aws_main_thread_func:00000000000000fe .LVL98
C:\Users\stapi\AppData\Local\Temp\ccZUJhbd.s:1268   .text.aws_main_thread_func:000000000000013a .LBB198
C:\Users\stapi\AppData\Local\Temp\ccZUJhbd.s:1275   .text.aws_main_thread_func:0000000000000146 .LBE198
C:\Users\stapi\AppData\Local\Temp\ccZUJhbd.s:1273   .text.aws_main_thread_func:0000000000000146 .LVL102
C:\Users\stapi\AppData\Local\Temp\ccZUJhbd.s:1277   .text.aws_main_thread_func:0000000000000146 .LBB200
C:\Users\stapi\AppData\Local\Temp\ccZUJhbd.s:1289   .text.aws_main_thread_func:0000000000000156 .LVL103
C:\Users\stapi\AppData\Local\Temp\ccZUJhbd.s:1407   .text.aws_main_thread_func:00000000000001ec .LBB205
C:\Users\stapi\AppData\Local\Temp\ccZUJhbd.s:1414   .text.aws_main_thread_func:00000000000001f8 .LBE205
C:\Users\stapi\AppData\Local\Temp\ccZUJhbd.s:7772   .debug_loc:0000000000000414 .LLST39
C:\Users\stapi\AppData\Local\Temp\ccZUJhbd.s:1412   .text.aws_main_thread_func:00000000000001f8 .LVL118
C:\Users\stapi\AppData\Local\Temp\ccZUJhbd.s:1527   .text.aws_main_thread_func:00000000000002d8 .LBB208
C:\Users\stapi\AppData\Local\Temp\ccZUJhbd.s:1534   .text.aws_main_thread_func:00000000000002e0 .LBE208
C:\Users\stapi\AppData\Local\Temp\ccZUJhbd.s:1531   .text.aws_main_thread_func:00000000000002e0 .LVL129
C:\Users\stapi\AppData\Local\Temp\ccZUJhbd.s:1589   .text.aws_main_thread_func:0000000000000340 .LBB210
C:\Users\stapi\AppData\Local\Temp\ccZUJhbd.s:1600   .text.aws_main_thread_func:000000000000034e .LBE210
C:\Users\stapi\AppData\Local\Temp\ccZUJhbd.s:7781   .debug_loc:000000000000042a .LLST41
C:\Users\stapi\AppData\Local\Temp\ccZUJhbd.s:1594   .text.aws_main_thread_func:000000000000034c .LVL134
C:\Users\stapi\AppData\Local\Temp\ccZUJhbd.s:1111   .text.aws_main_thread_func:000000000000001a .LVL88
C:\Users\stapi\AppData\Local\Temp\ccZUJhbd.s:1116   .text.aws_main_thread_func:0000000000000024 .LVL89
C:\Users\stapi\AppData\Local\Temp\ccZUJhbd.s:1139   .text.aws_main_thread_func:0000000000000054 .LVL90
C:\Users\stapi\AppData\Local\Temp\ccZUJhbd.s:1206   .text.aws_main_thread_func:00000000000000bc .LVL94
C:\Users\stapi\AppData\Local\Temp\ccZUJhbd.s:1209   .text.aws_main_thread_func:00000000000000c4 .LVL95
C:\Users\stapi\AppData\Local\Temp\ccZUJhbd.s:1220   .text.aws_main_thread_func:00000000000000e8 .LVL96
C:\Users\stapi\AppData\Local\Temp\ccZUJhbd.s:1252   .text.aws_main_thread_func:0000000000000120 .LVL99
C:\Users\stapi\AppData\Local\Temp\ccZUJhbd.s:1260   .text.aws_main_thread_func:0000000000000132 .LVL100
C:\Users\stapi\AppData\Local\Temp\ccZUJhbd.s:1298   .text.aws_main_thread_func:000000000000016c .LVL104
C:\Users\stapi\AppData\Local\Temp\ccZUJhbd.s:1316   .text.aws_main_thread_func:0000000000000192 .LVL105
C:\Users\stapi\AppData\Local\Temp\ccZUJhbd.s:1319   .text.aws_main_thread_func:000000000000019a .LVL106
C:\Users\stapi\AppData\Local\Temp\ccZUJhbd.s:1423   .text.aws_main_thread_func:000000000000020a .LVL119
C:\Users\stapi\AppData\Local\Temp\ccZUJhbd.s:1427   .text.aws_main_thread_func:0000000000000212 .LVL120
C:\Users\stapi\AppData\Local\Temp\ccZUJhbd.s:1444   .text.aws_main_thread_func:000000000000023e .LVL121
C:\Users\stapi\AppData\Local\Temp\ccZUJhbd.s:1483   .text.aws_main_thread_func:0000000000000280 .LVL125
C:\Users\stapi\AppData\Local\Temp\ccZUJhbd.s:1507   .text.aws_main_thread_func:00000000000002b4 .LVL126
C:\Users\stapi\AppData\Local\Temp\ccZUJhbd.s:1519   .text.aws_main_thread_func:00000000000002c6 .LVL127
C:\Users\stapi\AppData\Local\Temp\ccZUJhbd.s:1525   .text.aws_main_thread_func:00000000000002d8 .LVL128
C:\Users\stapi\AppData\Local\Temp\ccZUJhbd.s:1542   .text.aws_main_thread_func:00000000000002f2 .LVL130
C:\Users\stapi\AppData\Local\Temp\ccZUJhbd.s:1554   .text.aws_main_thread_func:0000000000000308 .LVL131
C:\Users\stapi\AppData\Local\Temp\ccZUJhbd.s:1584   .text.aws_main_thread_func:000000000000033e .LVL132
C:\Users\stapi\AppData\Local\Temp\ccZUJhbd.s:1607   .text.aws_main_thread_func:000000000000035a .LVL136
C:\Users\stapi\AppData\Local\Temp\ccZUJhbd.s:1612   .text.aws_main_thread_func:0000000000000364 .LVL137
C:\Users\stapi\AppData\Local\Temp\ccZUJhbd.s:1618   .text.aws_main_thread_func:000000000000036e .LVL138
C:\Users\stapi\AppData\Local\Temp\ccZUJhbd.s:8788   .debug_str:000000000000115b .LASF261
C:\Users\stapi\AppData\Local\Temp\ccZUJhbd.s:8704   .debug_str:0000000000000e87 .LASF194
C:\Users\stapi\AppData\Local\Temp\ccZUJhbd.s:997    .text.zconfig_add_active_channel:0000000000000000 .LFB58
C:\Users\stapi\AppData\Local\Temp\ccZUJhbd.s:1033   .text.zconfig_add_active_channel:0000000000000020 .LFE58
C:\Users\stapi\AppData\Local\Temp\ccZUJhbd.s:7790   .debug_loc:000000000000043f .LLST32
C:\Users\stapi\AppData\Local\Temp\ccZUJhbd.s:8674   .debug_str:0000000000000db7 .LASF195
C:\Users\stapi\AppData\Local\Temp\ccZUJhbd.s:1003   .text.zconfig_add_active_channel:0000000000000000 .LBB179
C:\Users\stapi\AppData\Local\Temp\ccZUJhbd.s:1010   .text.zconfig_add_active_channel:0000000000000004 .LBE179
C:\Users\stapi\AppData\Local\Temp\ccZUJhbd.s:8676   .debug_str:0000000000000dca .LASF262
C:\Users\stapi\AppData\Local\Temp\ccZUJhbd.s:8330   .debug_str:0000000000000200 .LASF203
C:\Users\stapi\AppData\Local\Temp\ccZUJhbd.s:8778   .debug_str:00000000000010f1 .LASF196
C:\Users\stapi\AppData\Local\Temp\ccZUJhbd.s:802    .text.aws_set_dst_chan:0000000000000000 .LFB55
C:\Users\stapi\AppData\Local\Temp\ccZUJhbd.s:858    .text.aws_set_dst_chan:0000000000000040 .LFE55
C:\Users\stapi\AppData\Local\Temp\ccZUJhbd.s:7813   .debug_loc:0000000000000477 .LLST26
C:\Users\stapi\AppData\Local\Temp\ccZUJhbd.s:820    .text.aws_set_dst_chan:0000000000000014 .LBB145
C:\Users\stapi\AppData\Local\Temp\ccZUJhbd.s:828    .text.aws_set_dst_chan:0000000000000020 .LBE145
C:\Users\stapi\AppData\Local\Temp\ccZUJhbd.s:7831   .debug_loc:00000000000004a3 .LLST27
C:\Users\stapi\AppData\Local\Temp\ccZUJhbd.s:826    .text.aws_set_dst_chan:0000000000000020 .LVL71
C:\Users\stapi\AppData\Local\Temp\ccZUJhbd.s:835    .text.aws_set_dst_chan:0000000000000028 .LBB147
C:\Users\stapi\AppData\Local\Temp\ccZUJhbd.s:847    .text.aws_set_dst_chan:0000000000000038 .LVL73
C:\Users\stapi\AppData\Local\Temp\ccZUJhbd.s:8826   .debug_str:00000000000012a6 .LASF263
C:\Users\stapi\AppData\Local\Temp\ccZUJhbd.s:8810   .debug_str:000000000000121f .LASF201
C:\Users\stapi\AppData\Local\Temp\ccZUJhbd.s:446    .text.aws_next_channel:0000000000000000 .LFB53
C:\Users\stapi\AppData\Local\Temp\ccZUJhbd.s:481    .text.aws_next_channel:000000000000002e .LFE53
C:\Users\stapi\AppData\Local\Temp\ccZUJhbd.s:8776   .debug_str:00000000000010d0 .LASF197
C:\Users\stapi\AppData\Local\Temp\ccZUJhbd.s:268    .text.zconfig_got_ssid_passwd_callback:0000000000000000 .LFB52
C:\Users\stapi\AppData\Local\Temp\ccZUJhbd.s:439    .text.zconfig_got_ssid_passwd_callback:000000000000013e .LFE52
C:\Users\stapi\AppData\Local\Temp\ccZUJhbd.s:7839   .debug_loc:00000000000004b8 .LLST9
C:\Users\stapi\AppData\Local\Temp\ccZUJhbd.s:7862   .debug_loc:00000000000004f7 .LLST10
C:\Users\stapi\AppData\Local\Temp\ccZUJhbd.s:7881   .debug_loc:000000000000052b .LLST11
C:\Users\stapi\AppData\Local\Temp\ccZUJhbd.s:7892   .debug_loc:0000000000000549 .LLST12
C:\Users\stapi\AppData\Local\Temp\ccZUJhbd.s:7918   .debug_loc:000000000000058b .LLST13
C:\Users\stapi\AppData\Local\Temp\ccZUJhbd.s:7943   .debug_loc:00000000000005c5 .LLST14
C:\Users\stapi\AppData\Local\Temp\ccZUJhbd.s:7968   .debug_loc:00000000000005ff .LLST15
C:\Users\stapi\AppData\Local\Temp\ccZUJhbd.s:7993   .debug_loc:0000000000000639 .LLST16
C:\Users\stapi\AppData\Local\Temp\ccZUJhbd.s:322    .text.zconfig_got_ssid_passwd_callback:0000000000000054 .LVL23
C:\Users\stapi\AppData\Local\Temp\ccZUJhbd.s:333    .text.zconfig_got_ssid_passwd_callback:000000000000006c .LVL24
C:\Users\stapi\AppData\Local\Temp\ccZUJhbd.s:345    .text.zconfig_got_ssid_passwd_callback:000000000000008a .LVL25
C:\Users\stapi\AppData\Local\Temp\ccZUJhbd.s:353    .text.zconfig_got_ssid_passwd_callback:00000000000000a0 .LVL27
C:\Users\stapi\AppData\Local\Temp\ccZUJhbd.s:359    .text.zconfig_got_ssid_passwd_callback:00000000000000b2 .LVL28
C:\Users\stapi\AppData\Local\Temp\ccZUJhbd.s:365    .text.zconfig_got_ssid_passwd_callback:00000000000000c4 .LVL29
C:\Users\stapi\AppData\Local\Temp\ccZUJhbd.s:375    .text.zconfig_got_ssid_passwd_callback:00000000000000da .LVL30
C:\Users\stapi\AppData\Local\Temp\ccZUJhbd.s:401    .text.zconfig_got_ssid_passwd_callback:000000000000010c .LVL31
C:\Users\stapi\AppData\Local\Temp\ccZUJhbd.s:405    .text.zconfig_got_ssid_passwd_callback:0000000000000118 .LVL32
C:\Users\stapi\AppData\Local\Temp\ccZUJhbd.s:436    .text.zconfig_got_ssid_passwd_callback:000000000000013c .LVL38
C:\Users\stapi\AppData\Local\Temp\ccZUJhbd.s:8582   .debug_str:0000000000000a33 .LASF198
C:\Users\stapi\AppData\Local\Temp\ccZUJhbd.s:228    .text.zconfig_channel_locked_callback:0000000000000000 .LFB51
C:\Users\stapi\AppData\Local\Temp\ccZUJhbd.s:254    .text.zconfig_channel_locked_callback:0000000000000024 .LFE51
C:\Users\stapi\AppData\Local\Temp\ccZUJhbd.s:8394   .debug_str:0000000000000418 .LASF199
C:\Users\stapi\AppData\Local\Temp\ccZUJhbd.s:8018   .debug_loc:0000000000000673 .LLST6
C:\Users\stapi\AppData\Local\Temp\ccZUJhbd.s:8762   .debug_str:0000000000001059 .LASF200
C:\Users\stapi\AppData\Local\Temp\ccZUJhbd.s:8037   .debug_loc:00000000000006a0 .LLST7
C:\Users\stapi\AppData\Local\Temp\ccZUJhbd.s:8051   .debug_loc:00000000000006c1 .LLST8
C:\Users\stapi\AppData\Local\Temp\ccZUJhbd.s:252    .text.zconfig_channel_locked_callback:0000000000000024 .LVL13
C:\Users\stapi\AppData\Local\Temp\ccZUJhbd.s:8758   .debug_str:000000000000103a .LASF264
C:\Users\stapi\AppData\Local\Temp\ccZUJhbd.s:205    .text.zconfig_force_rescan:0000000000000000 .LFB50
C:\Users\stapi\AppData\Local\Temp\ccZUJhbd.s:221    .text.zconfig_force_rescan:0000000000000010 .LFE50
C:\Users\stapi\AppData\Local\Temp\ccZUJhbd.s:8388   .debug_str:00000000000003dd .LASF202
C:\Users\stapi\AppData\Local\Temp\ccZUJhbd.s:187    .text.zconfig_get_lock_chn:0000000000000000 .LFB49
C:\Users\stapi\AppData\Local\Temp\ccZUJhbd.s:198    .text.zconfig_get_lock_chn:000000000000000e .LFE49
C:\Users\stapi\AppData\Local\Temp\ccZUJhbd.s:8528   .debug_str:0000000000000864 .LASF208
C:\Users\stapi\AppData\Local\Temp\ccZUJhbd.s:8578   .debug_str:0000000000000a10 .LASF204
C:\Users\stapi\AppData\Local\Temp\ccZUJhbd.s:8744   .debug_str:0000000000000fd4 .LASF265
C:\Users\stapi\AppData\Local\Temp\ccZUJhbd.s:8490   .debug_str:000000000000073a .LASF205
C:\Users\stapi\AppData\Local\Temp\ccZUJhbd.s:8666   .debug_str:0000000000000d62 .LASF206
C:\Users\stapi\AppData\Local\Temp\ccZUJhbd.s:8332   .debug_str:0000000000000214 .LASF207
C:\Users\stapi\AppData\Local\Temp\ccZUJhbd.s:8376   .debug_str:0000000000000398 .LASF209
C:\Users\stapi\AppData\Local\Temp\ccZUJhbd.s:8570   .debug_str:00000000000009d2 .LASF266
C:\Users\stapi\AppData\Local\Temp\ccZUJhbd.s:31     .text.os_get_time_ms:0000000000000000 .LFB20
C:\Users\stapi\AppData\Local\Temp\ccZUJhbd.s:70     .text.os_get_time_ms:0000000000000038 .LFE20
C:\Users\stapi\AppData\Local\Temp\ccZUJhbd.s:8486   .debug_str:0000000000000721 .LASF210
C:\Users\stapi\AppData\Local\Temp\ccZUJhbd.s:50     .text.os_get_time_ms:000000000000001e .LVL0
C:\Users\stapi\AppData\Local\Temp\ccZUJhbd.s:60     .text.os_get_time_ms:000000000000002c .LVL1
C:\Users\stapi\AppData\Local\Temp\ccZUJhbd.s:8682   .debug_str:0000000000000dfd .LASF211
C:\Users\stapi\AppData\Local\Temp\ccZUJhbd.s:8686   .debug_str:0000000000000e17 .LASF212
C:\Users\stapi\AppData\Local\Temp\ccZUJhbd.s:8396   .debug_str:0000000000000428 .LASF213
C:\Users\stapi\AppData\Local\Temp\ccZUJhbd.s:8508   .debug_str:00000000000007d3 .LASF214
C:\Users\stapi\AppData\Local\Temp\ccZUJhbd.s:8356   .debug_str:0000000000000300 .LASF215
C:\Users\stapi\AppData\Local\Temp\ccZUJhbd.s:8562   .debug_str:000000000000098e .LASF216
C:\Users\stapi\AppData\Local\Temp\ccZUJhbd.s:8772   .debug_str:00000000000010b2 .LASF217
C:\Users\stapi\AppData\Local\Temp\ccZUJhbd.s:501    .text.aws_switch_channel:0000000000000000 .LFB54
C:\Users\stapi\AppData\Local\Temp\ccZUJhbd.s:795    .text.aws_switch_channel:0000000000000166 .LFE54
C:\Users\stapi\AppData\Local\Temp\ccZUJhbd.s:520    .text.aws_switch_channel:0000000000000012 .LBB119
C:\Users\stapi\AppData\Local\Temp\ccZUJhbd.s:8065   .debug_loc:00000000000006e2 .LLST17
C:\Users\stapi\AppData\Local\Temp\ccZUJhbd.s:533    .text.aws_switch_channel:0000000000000026 .LVL40
C:\Users\stapi\AppData\Local\Temp\ccZUJhbd.s:546    .text.aws_switch_channel:0000000000000038 .LBB123
C:\Users\stapi\AppData\Local\Temp\ccZUJhbd.s:8073   .debug_loc:00000000000006f7 .LLST18
C:\Users\stapi\AppData\Local\Temp\ccZUJhbd.s:8084   .debug_loc:0000000000000715 .LLST19
C:\Users\stapi\AppData\Local\Temp\ccZUJhbd.s:606    .text.aws_switch_channel:0000000000000078 .LBB125
C:\Users\stapi\AppData\Local\Temp\ccZUJhbd.s:615    .text.aws_switch_channel:0000000000000088 .LBE125
C:\Users\stapi\AppData\Local\Temp\ccZUJhbd.s:8099   .debug_loc:000000000000073e .LLST20
C:\Users\stapi\AppData\Local\Temp\ccZUJhbd.s:8107   .debug_loc:0000000000000752 .LLST22
C:\Users\stapi\AppData\Local\Temp\ccZUJhbd.s:613    .text.aws_switch_channel:0000000000000088 .LVL48
C:\Users\stapi\AppData\Local\Temp\ccZUJhbd.s:590    .text.aws_switch_channel:0000000000000068 .LVL46
C:\Users\stapi\AppData\Local\Temp\ccZUJhbd.s:621    .text.aws_switch_channel:0000000000000098 .LVL49
C:\Users\stapi\AppData\Local\Temp\ccZUJhbd.s:627    .text.aws_switch_channel:00000000000000aa .LVL50
C:\Users\stapi\AppData\Local\Temp\ccZUJhbd.s:632    .text.aws_switch_channel:00000000000000ba .LVL51
C:\Users\stapi\AppData\Local\Temp\ccZUJhbd.s:644    .text.aws_switch_channel:00000000000000c2 .LBB128
C:\Users\stapi\AppData\Local\Temp\ccZUJhbd.s:649    .text.aws_switch_channel:00000000000000c2 .LBE128
C:\Users\stapi\AppData\Local\Temp\ccZUJhbd.s:650    .text.aws_switch_channel:00000000000000c2 .LBB130
C:\Users\stapi\AppData\Local\Temp\ccZUJhbd.s:652    .text.aws_switch_channel:00000000000000c2 .LBB132
C:\Users\stapi\AppData\Local\Temp\ccZUJhbd.s:656    .text.aws_switch_channel:00000000000000ce .LVL53
C:\Users\stapi\AppData\Local\Temp\ccZUJhbd.s:754    .text.aws_switch_channel:0000000000000120 .LBB136
C:\Users\stapi\AppData\Local\Temp\ccZUJhbd.s:8114   .debug_loc:0000000000000765 .LLST23
C:\Users\stapi\AppData\Local\Temp\ccZUJhbd.s:8122   .debug_loc:0000000000000779 .LLST25
C:\Users\stapi\AppData\Local\Temp\ccZUJhbd.s:770    .text.aws_switch_channel:0000000000000132 .LVL64
C:\Users\stapi\AppData\Local\Temp\ccZUJhbd.s:744    .text.aws_switch_channel:0000000000000114 .LVL60
C:\Users\stapi\AppData\Local\Temp\ccZUJhbd.s:753    .text.aws_switch_channel:0000000000000120 .LVL62
C:\Users\stapi\AppData\Local\Temp\ccZUJhbd.s:778    .text.aws_switch_channel:0000000000000142 .LVL65
C:\Users\stapi\AppData\Local\Temp\ccZUJhbd.s:784    .text.aws_switch_channel:0000000000000154 .LVL66
C:\Users\stapi\AppData\Local\Temp\ccZUJhbd.s:789    .text.aws_switch_channel:0000000000000164 .LVL67
C:\Users\stapi\AppData\Local\Temp\ccZUJhbd.s:872    .text.aws_is_chnscan_timeout:0000000000000000 .LFB57
C:\Users\stapi\AppData\Local\Temp\ccZUJhbd.s:990    .text.aws_is_chnscan_timeout:0000000000000096 .LFE57
C:\Users\stapi\AppData\Local\Temp\ccZUJhbd.s:918    .text.aws_is_chnscan_timeout:0000000000000050 .LBB167
C:\Users\stapi\AppData\Local\Temp\ccZUJhbd.s:929    .text.aws_is_chnscan_timeout:000000000000005c .LBE167
C:\Users\stapi\AppData\Local\Temp\ccZUJhbd.s:8129   .debug_loc:000000000000078c .LLST28
C:\Users\stapi\AppData\Local\Temp\ccZUJhbd.s:8136   .debug_loc:000000000000079f .LLST29
C:\Users\stapi\AppData\Local\Temp\ccZUJhbd.s:923    .text.aws_is_chnscan_timeout:0000000000000058 .LVL76
C:\Users\stapi\AppData\Local\Temp\ccZUJhbd.s:930    .text.aws_is_chnscan_timeout:000000000000005c .LBB169
C:\Users\stapi\AppData\Local\Temp\ccZUJhbd.s:937    .text.aws_is_chnscan_timeout:0000000000000064 .LBE169
C:\Users\stapi\AppData\Local\Temp\ccZUJhbd.s:935    .text.aws_is_chnscan_timeout:0000000000000064 .LVL78
C:\Users\stapi\AppData\Local\Temp\ccZUJhbd.s:942    .text.aws_is_chnscan_timeout:000000000000006a .LBB171
C:\Users\stapi\AppData\Local\Temp\ccZUJhbd.s:988    .text.aws_is_chnscan_timeout:0000000000000096 .LBE171
C:\Users\stapi\AppData\Local\Temp\ccZUJhbd.s:945    .text.aws_is_chnscan_timeout:000000000000006a .LBB173
C:\Users\stapi\AppData\Local\Temp\ccZUJhbd.s:952    .text.aws_is_chnscan_timeout:0000000000000072 .LBE173
C:\Users\stapi\AppData\Local\Temp\ccZUJhbd.s:950    .text.aws_is_chnscan_timeout:0000000000000072 .LVL79
C:\Users\stapi\AppData\Local\Temp\ccZUJhbd.s:959    .text.aws_is_chnscan_timeout:0000000000000078 .LBB175
C:\Users\stapi\AppData\Local\Temp\ccZUJhbd.s:970    .text.aws_is_chnscan_timeout:0000000000000084 .LBE175
C:\Users\stapi\AppData\Local\Temp\ccZUJhbd.s:8143   .debug_loc:00000000000007b2 .LLST30
C:\Users\stapi\AppData\Local\Temp\ccZUJhbd.s:8150   .debug_loc:00000000000007c5 .LLST31
C:\Users\stapi\AppData\Local\Temp\ccZUJhbd.s:964    .text.aws_is_chnscan_timeout:0000000000000080 .LVL81
C:\Users\stapi\AppData\Local\Temp\ccZUJhbd.s:971    .text.aws_is_chnscan_timeout:0000000000000084 .LBB177
C:\Users\stapi\AppData\Local\Temp\ccZUJhbd.s:978    .text.aws_is_chnscan_timeout:000000000000008c .LBE177
C:\Users\stapi\AppData\Local\Temp\ccZUJhbd.s:976    .text.aws_is_chnscan_timeout:000000000000008c .LVL83
C:\Users\stapi\AppData\Local\Temp\ccZUJhbd.s:899    .text.aws_is_chnscan_timeout:0000000000000042 .LVL74
C:\Users\stapi\AppData\Local\Temp\ccZUJhbd.s:1040   .text.aws_force_scanning:0000000000000000 .LFB59
C:\Users\stapi\AppData\Local\Temp\ccZUJhbd.s:1048   .text.aws_force_scanning:0000000000000004 .LFE59
C:\Users\stapi\AppData\Local\Temp\ccZUJhbd.s:8326   .debug_str:00000000000001e0 .LASF218
C:\Users\stapi\AppData\Local\Temp\ccZUJhbd.s:8730   .debug_str:0000000000000f57 .LASF219
C:\Users\stapi\AppData\Local\Temp\ccZUJhbd.s:8796   .debug_str:00000000000011ad .LASF230
C:\Users\stapi\AppData\Local\Temp\ccZUJhbd.s:8476   .debug_str:00000000000006c2 .LASF232
C:\Users\stapi\AppData\Local\Temp\ccZUJhbd.s:8626   .debug_str:0000000000000b8a .LASF220
C:\Users\stapi\AppData\Local\Temp\ccZUJhbd.s:8632   .debug_str:0000000000000bc0 .LASF221
C:\Users\stapi\AppData\Local\Temp\ccZUJhbd.s:8374   .debug_str:000000000000038f .LASF222
C:\Users\stapi\AppData\Local\Temp\ccZUJhbd.s:8766   .debug_str:0000000000001084 .LASF223
C:\Users\stapi\AppData\Local\Temp\ccZUJhbd.s:8542   .debug_str:00000000000008f3 .LASF224
C:\Users\stapi\AppData\Local\Temp\ccZUJhbd.s:8846   .debug_str:000000000000132b .LASF225
C:\Users\stapi\AppData\Local\Temp\ccZUJhbd.s:8782   .debug_str:0000000000001116 .LASF226
C:\Users\stapi\AppData\Local\Temp\ccZUJhbd.s:8336   .debug_str:000000000000024d .LASF227
C:\Users\stapi\AppData\Local\Temp\ccZUJhbd.s:8646   .debug_str:0000000000000c49 .LASF228
C:\Users\stapi\AppData\Local\Temp\ccZUJhbd.s:8594   .debug_str:0000000000000aad .LASF229
C:\Users\stapi\AppData\Local\Temp\ccZUJhbd.s:8722   .debug_str:0000000000000f18 .LASF231
C:\Users\stapi\AppData\Local\Temp\ccZUJhbd.s:8392   .debug_str:0000000000000407 .LASF233
C:\Users\stapi\AppData\Local\Temp\ccZUJhbd.s:8708   .debug_str:0000000000000ead .LASF234
C:\Users\stapi\AppData\Local\Temp\ccZUJhbd.s:8548   .debug_str:0000000000000920 .LASF235
C:\Users\stapi\AppData\Local\Temp\ccZUJhbd.s:8650   .debug_str:0000000000000c71 .LASF236
C:\Users\stapi\AppData\Local\Temp\ccZUJhbd.s:8538   .debug_str:00000000000008ca .LASF237
C:\Users\stapi\AppData\Local\Temp\ccZUJhbd.s:8794   .debug_str:0000000000001197 .LASF238
C:\Users\stapi\AppData\Local\Temp\ccZUJhbd.s:8734   .debug_str:0000000000000f6c .LASF239
C:\Users\stapi\AppData\Local\Temp\ccZUJhbd.s:8550   .debug_str:000000000000092d .LASF240
C:\Users\stapi\AppData\Local\Temp\ccZUJhbd.s:8436   .debug_str:0000000000000573 .LASF241
C:\Users\stapi\AppData\Local\Temp\ccZUJhbd.s:8514   .debug_str:00000000000007f5 .LASF242
C:\Users\stapi\AppData\Local\Temp\ccZUJhbd.s:8360   .debug_str:0000000000000321 .LASF243
C:\Users\stapi\AppData\Local\Temp\ccZUJhbd.s:8552   .debug_str:000000000000094a .LASF244
C:\Users\stapi\AppData\Local\Temp\ccZUJhbd.s:8628   .debug_str:0000000000000b9b .LASF245
C:\Users\stapi\AppData\Local\Temp\ccZUJhbd.s:8710   .debug_str:0000000000000ec3 .LASF246
C:\Users\stapi\AppData\Local\Temp\ccZUJhbd.s:8556   .debug_str:0000000000000967 .LASF247
C:\Users\stapi\AppData\Local\Temp\ccZUJhbd.s:8668   .debug_str:0000000000000d86 .LASF248
C:\Users\stapi\AppData\Local\Temp\ccZUJhbd.s:8702   .debug_str:0000000000000e75 .LASF249
C:\Users\stapi\AppData\Local\Temp\ccZUJhbd.s:8724   .debug_str:0000000000000f1f .LASF250
C:\Users\stapi\AppData\Local\Temp\ccZUJhbd.s:8350   .debug_str:00000000000002c2 .LASF251
C:\Users\stapi\AppData\Local\Temp\ccZUJhbd.s:8648   .debug_str:0000000000000c64 .LASF252
C:\Users\stapi\AppData\Local\Temp\ccZUJhbd.s:8522   .debug_str:0000000000000830 .LASF253
C:\Users\stapi\AppData\Local\Temp\ccZUJhbd.s:8352   .debug_str:00000000000002e1 .LASF254
C:\Users\stapi\AppData\Local\Temp\ccZUJhbd.s:8410   .debug_str:0000000000000495 .LASF255
C:\Users\stapi\AppData\Local\Temp\ccZUJhbd.s:1979   .text.aws_get_ssid_passwd:0000000000000000 .LVL167
C:\Users\stapi\AppData\Local\Temp\ccZUJhbd.s:2005   .text.aws_get_ssid_passwd:0000000000000020 .LVL171
C:\Users\stapi\AppData\Local\Temp\ccZUJhbd.s:2032   .text.aws_get_ssid_passwd:0000000000000046 .LVL175
C:\Users\stapi\AppData\Local\Temp\ccZUJhbd.s:2003   .text.aws_get_ssid_passwd:000000000000001c .LVL170
C:\Users\stapi\AppData\Local\Temp\ccZUJhbd.s:2062   .text.aws_get_ssid_passwd:000000000000006e .LVL179
C:\Users\stapi\AppData\Local\Temp\ccZUJhbd.s:2010   .text.aws_get_ssid_passwd:000000000000002a .LVL173
C:\Users\stapi\AppData\Local\Temp\ccZUJhbd.s:2064   .text.aws_get_ssid_passwd:0000000000000072 .LVL180
C:\Users\stapi\AppData\Local\Temp\ccZUJhbd.s:2008   .text.aws_get_ssid_passwd:0000000000000026 .LVL172
C:\Users\stapi\AppData\Local\Temp\ccZUJhbd.s:2038   .text.aws_get_ssid_passwd:000000000000004c .LVL176
C:\Users\stapi\AppData\Local\Temp\ccZUJhbd.s:2001   .text.aws_get_ssid_passwd:0000000000000018 .LVL169
C:\Users\stapi\AppData\Local\Temp\ccZUJhbd.s:2043   .text.aws_get_ssid_passwd:0000000000000050 .LVL177
C:\Users\stapi\AppData\Local\Temp\ccZUJhbd.s:1995   .text.aws_get_ssid_passwd:000000000000000e .LVL168
C:\Users\stapi\AppData\Local\Temp\ccZUJhbd.s:2059   .text.aws_get_ssid_passwd:000000000000006a .LVL178
C:\Users\stapi\AppData\Local\Temp\ccZUJhbd.s:1648   .text.aws_start:0000000000000000 .LVL140
C:\Users\stapi\AppData\Local\Temp\ccZUJhbd.s:1664   .text.aws_start:000000000000000c .LVL142
C:\Users\stapi\AppData\Local\Temp\ccZUJhbd.s:1655   .text.aws_start:0000000000000008 .LVL141
C:\Users\stapi\AppData\Local\Temp\ccZUJhbd.s:1668   .text.aws_start:0000000000000016 .LVL144
C:\Users\stapi\AppData\Local\Temp\ccZUJhbd.s:1700   .text.aws_start:0000000000000046 .LVL147
C:\Users\stapi\AppData\Local\Temp\ccZUJhbd.s:80     .text.aws_80211_frame_handler:0000000000000000 .LVL2
C:\Users\stapi\AppData\Local\Temp\ccZUJhbd.s:102    .text.aws_80211_frame_handler:000000000000001e .LVL5
C:\Users\stapi\AppData\Local\Temp\ccZUJhbd.s:100    .text.aws_80211_frame_handler:000000000000001a .LVL4
C:\Users\stapi\AppData\Local\Temp\ccZUJhbd.s:98     .text.aws_80211_frame_handler:0000000000000018 .LVL3
C:\Users\stapi\AppData\Local\Temp\ccZUJhbd.s:151    .text.aws_80211_frame_handler:000000000000006e .LVL9
C:\Users\stapi\AppData\Local\Temp\ccZUJhbd.s:1355   .text.aws_main_thread_func:00000000000001b8 .LVL109
C:\Users\stapi\AppData\Local\Temp\ccZUJhbd.s:1361   .text.aws_main_thread_func:00000000000001ba .LVL110
C:\Users\stapi\AppData\Local\Temp\ccZUJhbd.s:1366   .text.aws_main_thread_func:00000000000001c0 .LVL111
C:\Users\stapi\AppData\Local\Temp\ccZUJhbd.s:1369   .text.aws_main_thread_func:00000000000001c4 .LVL112
C:\Users\stapi\AppData\Local\Temp\ccZUJhbd.s:1401   .text.aws_main_thread_func:00000000000001ec .LVL117
C:\Users\stapi\AppData\Local\Temp\ccZUJhbd.s:1457   .text.aws_main_thread_func:000000000000024e .LVL122
C:\Users\stapi\AppData\Local\Temp\ccZUJhbd.s:1468   .text.aws_main_thread_func:0000000000000260 .LVL124
C:\Users\stapi\AppData\Local\Temp\ccZUJhbd.s:1187   .text.aws_main_thread_func:0000000000000092 .LVL92
C:\Users\stapi\AppData\Local\Temp\ccZUJhbd.s:1233   .text.aws_main_thread_func:00000000000000f6 .LVL97
C:\Users\stapi\AppData\Local\Temp\ccZUJhbd.s:1588   .text.aws_main_thread_func:0000000000000340 .LVL133
C:\Users\stapi\AppData\Local\Temp\ccZUJhbd.s:1597   .text.aws_main_thread_func:000000000000034e .LVL135
C:\Users\stapi\AppData\Local\Temp\ccZUJhbd.s:1000   .text.zconfig_add_active_channel:0000000000000000 .LVL84
C:\Users\stapi\AppData\Local\Temp\ccZUJhbd.s:1023   .text.zconfig_add_active_channel:000000000000001a .LVL85
C:\Users\stapi\AppData\Local\Temp\ccZUJhbd.s:1025   .text.zconfig_add_active_channel:000000000000001c .LVL86
C:\Users\stapi\AppData\Local\Temp\ccZUJhbd.s:1029   .text.zconfig_add_active_channel:000000000000001e .LVL87
C:\Users\stapi\AppData\Local\Temp\ccZUJhbd.s:805    .text.aws_set_dst_chan:0000000000000000 .LVL68
C:\Users\stapi\AppData\Local\Temp\ccZUJhbd.s:824    .text.aws_set_dst_chan:0000000000000018 .LVL70
C:\Users\stapi\AppData\Local\Temp\ccZUJhbd.s:819    .text.aws_set_dst_chan:0000000000000014 .LVL69
C:\Users\stapi\AppData\Local\Temp\ccZUJhbd.s:271    .text.zconfig_got_ssid_passwd_callback:0000000000000000 .LVL14
C:\Users\stapi\AppData\Local\Temp\ccZUJhbd.s:309    .text.zconfig_got_ssid_passwd_callback:0000000000000032 .LVL18
C:\Users\stapi\AppData\Local\Temp\ccZUJhbd.s:421    .text.zconfig_got_ssid_passwd_callback:0000000000000122 .LVL33
C:\Users\stapi\AppData\Local\Temp\ccZUJhbd.s:434    .text.zconfig_got_ssid_passwd_callback:0000000000000134 .LVL37
C:\Users\stapi\AppData\Local\Temp\ccZUJhbd.s:305    .text.zconfig_got_ssid_passwd_callback:000000000000002a .LVL17
C:\Users\stapi\AppData\Local\Temp\ccZUJhbd.s:432    .text.zconfig_got_ssid_passwd_callback:0000000000000132 .LVL36
C:\Users\stapi\AppData\Local\Temp\ccZUJhbd.s:319    .text.zconfig_got_ssid_passwd_callback:0000000000000048 .LVL22
C:\Users\stapi\AppData\Local\Temp\ccZUJhbd.s:303    .text.zconfig_got_ssid_passwd_callback:0000000000000026 .LVL16
C:\Users\stapi\AppData\Local\Temp\ccZUJhbd.s:348    .text.zconfig_got_ssid_passwd_callback:000000000000008e .LVL26
C:\Users\stapi\AppData\Local\Temp\ccZUJhbd.s:427    .text.zconfig_got_ssid_passwd_callback:0000000000000128 .LVL34
C:\Users\stapi\AppData\Local\Temp\ccZUJhbd.s:317    .text.zconfig_got_ssid_passwd_callback:0000000000000044 .LVL21
C:\Users\stapi\AppData\Local\Temp\ccZUJhbd.s:429    .text.zconfig_got_ssid_passwd_callback:000000000000012a .LVL35
C:\Users\stapi\AppData\Local\Temp\ccZUJhbd.s:301    .text.zconfig_got_ssid_passwd_callback:0000000000000024 .LVL15
C:\Users\stapi\AppData\Local\Temp\ccZUJhbd.s:314    .text.zconfig_got_ssid_passwd_callback:000000000000003c .LVL20
C:\Users\stapi\AppData\Local\Temp\ccZUJhbd.s:312    .text.zconfig_got_ssid_passwd_callback:0000000000000038 .LVL19
C:\Users\stapi\AppData\Local\Temp\ccZUJhbd.s:231    .text.zconfig_channel_locked_callback:0000000000000000 .LVL11
C:\Users\stapi\AppData\Local\Temp\ccZUJhbd.s:249    .text.zconfig_channel_locked_callback:000000000000001a .LVL12
C:\Users\stapi\AppData\Local\Temp\ccZUJhbd.s:519    .text.aws_switch_channel:0000000000000012 .LVL39
C:\Users\stapi\AppData\Local\Temp\ccZUJhbd.s:545    .text.aws_switch_channel:0000000000000038 .LVL41
C:\Users\stapi\AppData\Local\Temp\ccZUJhbd.s:672    .text.aws_switch_channel:00000000000000d6 .LVL54
C:\Users\stapi\AppData\Local\Temp\ccZUJhbd.s:708    .text.aws_switch_channel:00000000000000fa .LVL57
C:\Users\stapi\AppData\Local\Temp\ccZUJhbd.s:555    .text.aws_switch_channel:0000000000000040 .LVL42
C:\Users\stapi\AppData\Local\Temp\ccZUJhbd.s:559    .text.aws_switch_channel:0000000000000042 .LVL43
C:\Users\stapi\AppData\Local\Temp\ccZUJhbd.s:582    .text.aws_switch_channel:0000000000000058 .LVL45
C:\Users\stapi\AppData\Local\Temp\ccZUJhbd.s:605    .text.aws_switch_channel:0000000000000078 .LVL47
C:\Users\stapi\AppData\Local\Temp\ccZUJhbd.s:763    .text.aws_switch_channel:0000000000000124 .LVL63
C:\Users\stapi\AppData\Local\Temp\ccZUJhbd.s:917    .text.aws_is_chnscan_timeout:0000000000000050 .LVL75
C:\Users\stapi\AppData\Local\Temp\ccZUJhbd.s:927    .text.aws_is_chnscan_timeout:000000000000005c .LVL77
C:\Users\stapi\AppData\Local\Temp\ccZUJhbd.s:958    .text.aws_is_chnscan_timeout:0000000000000078 .LVL80
C:\Users\stapi\AppData\Local\Temp\ccZUJhbd.s:968    .text.aws_is_chnscan_timeout:0000000000000084 .LVL82
C:\Users\stapi\AppData\Local\Temp\ccZUJhbd.s:2305   .debug_info:0000000000000000 .Ldebug_info0
C:\Users\stapi\AppData\Local\Temp\ccZUJhbd.s:160    .text.aws_80211_frame_handler:0000000000000076 .LBE94
C:\Users\stapi\AppData\Local\Temp\ccZUJhbd.s:163    .text.aws_80211_frame_handler:0000000000000078 .LBB97
C:\Users\stapi\AppData\Local\Temp\ccZUJhbd.s:168    .text.aws_80211_frame_handler:000000000000007c .LBE97
C:\Users\stapi\AppData\Local\Temp\ccZUJhbd.s:525    .text.aws_switch_channel:0000000000000016 .LBE119
C:\Users\stapi\AppData\Local\Temp\ccZUJhbd.s:529    .text.aws_switch_channel:000000000000001e .LBB122
C:\Users\stapi\AppData\Local\Temp\ccZUJhbd.s:535    .text.aws_switch_channel:0000000000000026 .LBE122
C:\Users\stapi\AppData\Local\Temp\ccZUJhbd.s:636    .text.aws_switch_channel:00000000000000ba .LBE123
C:\Users\stapi\AppData\Local\Temp\ccZUJhbd.s:675    .text.aws_switch_channel:00000000000000d6 .LBB143
C:\Users\stapi\AppData\Local\Temp\ccZUJhbd.s:711    .text.aws_switch_channel:00000000000000fa .LBE143
C:\Users\stapi\AppData\Local\Temp\ccZUJhbd.s:661    .text.aws_switch_channel:00000000000000ce .LBE130
C:\Users\stapi\AppData\Local\Temp\ccZUJhbd.s:712    .text.aws_switch_channel:00000000000000fa .LBB144
C:\Users\stapi\AppData\Local\Temp\ccZUJhbd.s:793    .text.aws_switch_channel:0000000000000166 .LBE144
C:\Users\stapi\AppData\Local\Temp\ccZUJhbd.s:659    .text.aws_switch_channel:00000000000000ce .LBE132
C:\Users\stapi\AppData\Local\Temp\ccZUJhbd.s:728    .text.aws_switch_channel:0000000000000106 .LBB140
C:\Users\stapi\AppData\Local\Temp\ccZUJhbd.s:732    .text.aws_switch_channel:0000000000000106 .LBE140
C:\Users\stapi\AppData\Local\Temp\ccZUJhbd.s:722    .text.aws_switch_channel:0000000000000106 .LBB135
C:\Users\stapi\AppData\Local\Temp\ccZUJhbd.s:724    .text.aws_switch_channel:0000000000000106 .LBE135
C:\Users\stapi\AppData\Local\Temp\ccZUJhbd.s:739    .text.aws_switch_channel:000000000000010c .LBB141
C:\Users\stapi\AppData\Local\Temp\ccZUJhbd.s:791    .text.aws_switch_channel:0000000000000166 .LBE141
C:\Users\stapi\AppData\Local\Temp\ccZUJhbd.s:759    .text.aws_switch_channel:0000000000000122 .LBE136
C:\Users\stapi\AppData\Local\Temp\ccZUJhbd.s:764    .text.aws_switch_channel:0000000000000124 .LBB139
C:\Users\stapi\AppData\Local\Temp\ccZUJhbd.s:772    .text.aws_switch_channel:0000000000000132 .LBE139
C:\Users\stapi\AppData\Local\Temp\ccZUJhbd.s:839    .text.aws_set_dst_chan:0000000000000028 .LBE147
C:\Users\stapi\AppData\Local\Temp\ccZUJhbd.s:842    .text.aws_set_dst_chan:000000000000002c .LBB150
C:\Users\stapi\AppData\Local\Temp\ccZUJhbd.s:850    .text.aws_set_dst_chan:0000000000000038 .LBE150
C:\Users\stapi\AppData\Local\Temp\ccZUJhbd.s:1132   .text.aws_main_thread_func:0000000000000040 .LBE181
C:\Users\stapi\AppData\Local\Temp\ccZUJhbd.s:1622   .text.aws_main_thread_func:0000000000000370 .LBB212
C:\Users\stapi\AppData\Local\Temp\ccZUJhbd.s:1629   .text.aws_main_thread_func:000000000000037c .LBE212
C:\Users\stapi\AppData\Local\Temp\ccZUJhbd.s:1141   .text.aws_main_thread_func:0000000000000054 .LBB184
C:\Users\stapi\AppData\Local\Temp\ccZUJhbd.s:1150   .text.aws_main_thread_func:000000000000005c .LBE184
C:\Users\stapi\AppData\Local\Temp\ccZUJhbd.s:1160   .text.aws_main_thread_func:000000000000006a .LBB193
C:\Users\stapi\AppData\Local\Temp\ccZUJhbd.s:1180   .text.aws_main_thread_func:000000000000008c .LBE193
C:\Users\stapi\AppData\Local\Temp\ccZUJhbd.s:1340   .text.aws_main_thread_func:00000000000001a4 .LBB204
C:\Users\stapi\AppData\Local\Temp\ccZUJhbd.s:1405   .text.aws_main_thread_func:00000000000001ec .LBE204
C:\Users\stapi\AppData\Local\Temp\ccZUJhbd.s:1281   .text.aws_main_thread_func:0000000000000146 .LBE200
C:\Users\stapi\AppData\Local\Temp\ccZUJhbd.s:1284   .text.aws_main_thread_func:000000000000014a .LBB203
C:\Users\stapi\AppData\Local\Temp\ccZUJhbd.s:1291   .text.aws_main_thread_func:0000000000000156 .LBE203

UNDEFINED SYMBOLS
__riscv_save_1
HAL_UptimeMs
__riscv_restore_1
__riscv_save_3
zconfig_recv_callback
__riscv_restore_3
awss_event_post
__riscv_save_8
iotx_state_event
memcpy
memset
strncpy
iotx_guider_set_dynamic_region
__riscv_restore_8
__riscv_save_5
zconfig_data
HAL_MutexLock
HAL_Awss_Switch_Channel
HAL_Printf
HAL_MutexUnlock
__riscv_restore_5
__riscv_save_2
__riscv_restore_2
LITE_syslog
HAL_Awss_Get_Channelscan_Interval_Ms
HAL_Awss_Get_Timeout_Interval_Ms
__riscv_save_11
aws_try_adjust_chan
awss_stop_timer
zconfig_force_destroy
__riscv_restore_11
HAL_SleepMs
awss_enrollee_broadcast_info
HAL_Timer_Create
HAL_Timer_Stop
HAL_Timer_Start
HAL_Awss_Close_Monitor
awss_get_config_press
awss_is_ready_clr_aplist
awss_clear_aplist
HAL_Awss_Open_Monitor
HAL_Malloc
wlan_fixed_scanning_channels
zconfig_init
awss_open_aplist_monitor
awss_enrollee_init_info
__riscv_save_4
HAL_MutexCreate
HAL_Free
awss_enrollee_destroy_info
__riscv_restore_4
HAL_MutexDestroy
__riscv_save_7
__riscv_restore_7
