   1              		.file	"zconfig_ieee80211.c"
   2              		.option nopic
   3              		.attribute arch, "rv32i2p0_m2p0_a2p0_f2p0_c2p0_b_p0p94"
   4              		.attribute unaligned_access, 0
   5              		.attribute stack_align, 16
   6              		.text
   7              	.Ltext0:
   8              		.cfi_sections	.debug_frame
   9              		.section	.rodata.map_cipher_to_encry.str1.4,"aMS",@progbits,1
  10              		.align	2
  11              	.LC0:
  12 0000 5B77726E 		.string	"[wrn] "
  12      5D2000
  13 0007 00       		.align	2
  14              	.LC1:
  15 0008 756E6B6E 		.string	"unknow cipher type: %x\r\n"
  15      6F772063 
  15      69706865 
  15      72207479 
  15      70653A20 
  16 0021 000000   		.align	2
  17              	.LC2:
  18 0024 0D0A00   		.string	"\r\n"
  19              		.section	.text.map_cipher_to_encry,"ax",@progbits
  20              		.align	1
  22              	map_cipher_to_encry:
  23              	.LFB73:
  24              		.file 1 "C:/Users/stapi/OneDrive/Desktop/GD32VW553/V1_MQTT_OK/GD32VW55X_Wifi_BLE_SDK/GD32VW55x_REL
   1:C:/Users/stapi/OneDrive/Desktop/GD32VW553/V1_MQTT_OK/GD32VW55X_Wifi_BLE_SDK/GD32VW55x_RELEASE_V1.0.2/MSDK/cloud/alicloud/src/services/awss\zconfig_ieee80211.c **** /*
   2:C:/Users/stapi/OneDrive/Desktop/GD32VW553/V1_MQTT_OK/GD32VW55X_Wifi_BLE_SDK/GD32VW55x_RELEASE_V1.0.2/MSDK/cloud/alicloud/src/services/awss\zconfig_ieee80211.c ****  * Copyright (C) 2015-2018 Alibaba Group Holding Limited
   3:C:/Users/stapi/OneDrive/Desktop/GD32VW553/V1_MQTT_OK/GD32VW55X_Wifi_BLE_SDK/GD32VW55x_RELEASE_V1.0.2/MSDK/cloud/alicloud/src/services/awss\zconfig_ieee80211.c ****  */
   4:C:/Users/stapi/OneDrive/Desktop/GD32VW553/V1_MQTT_OK/GD32VW55X_Wifi_BLE_SDK/GD32VW55x_RELEASE_V1.0.2/MSDK/cloud/alicloud/src/services/awss\zconfig_ieee80211.c **** 
   5:C:/Users/stapi/OneDrive/Desktop/GD32VW553/V1_MQTT_OK/GD32VW55X_Wifi_BLE_SDK/GD32VW55x_RELEASE_V1.0.2/MSDK/cloud/alicloud/src/services/awss\zconfig_ieee80211.c **** #include <stdint.h>
   6:C:/Users/stapi/OneDrive/Desktop/GD32VW553/V1_MQTT_OK/GD32VW55X_Wifi_BLE_SDK/GD32VW55x_RELEASE_V1.0.2/MSDK/cloud/alicloud/src/services/awss\zconfig_ieee80211.c **** #include <stddef.h>
   7:C:/Users/stapi/OneDrive/Desktop/GD32VW553/V1_MQTT_OK/GD32VW55X_Wifi_BLE_SDK/GD32VW55x_RELEASE_V1.0.2/MSDK/cloud/alicloud/src/services/awss\zconfig_ieee80211.c **** #include <string.h>
   8:C:/Users/stapi/OneDrive/Desktop/GD32VW553/V1_MQTT_OK/GD32VW55X_Wifi_BLE_SDK/GD32VW55x_RELEASE_V1.0.2/MSDK/cloud/alicloud/src/services/awss\zconfig_ieee80211.c **** #include "os.h"
   9:C:/Users/stapi/OneDrive/Desktop/GD32VW553/V1_MQTT_OK/GD32VW55X_Wifi_BLE_SDK/GD32VW55x_RELEASE_V1.0.2/MSDK/cloud/alicloud/src/services/awss\zconfig_ieee80211.c **** #include "awss.h"
  10:C:/Users/stapi/OneDrive/Desktop/GD32VW553/V1_MQTT_OK/GD32VW55X_Wifi_BLE_SDK/GD32VW55x_RELEASE_V1.0.2/MSDK/cloud/alicloud/src/services/awss\zconfig_ieee80211.c **** #include "awss_main.h"
  11:C:/Users/stapi/OneDrive/Desktop/GD32VW553/V1_MQTT_OK/GD32VW55X_Wifi_BLE_SDK/GD32VW55x_RELEASE_V1.0.2/MSDK/cloud/alicloud/src/services/awss\zconfig_ieee80211.c **** #include "aws_lib.h"
  12:C:/Users/stapi/OneDrive/Desktop/GD32VW553/V1_MQTT_OK/GD32VW55X_Wifi_BLE_SDK/GD32VW55x_RELEASE_V1.0.2/MSDK/cloud/alicloud/src/services/awss\zconfig_ieee80211.c **** #include "zconfig_utils.h"
  13:C:/Users/stapi/OneDrive/Desktop/GD32VW553/V1_MQTT_OK/GD32VW55X_Wifi_BLE_SDK/GD32VW55x_RELEASE_V1.0.2/MSDK/cloud/alicloud/src/services/awss\zconfig_ieee80211.c **** #include "zconfig_ieee80211.h"
  14:C:/Users/stapi/OneDrive/Desktop/GD32VW553/V1_MQTT_OK/GD32VW55X_Wifi_BLE_SDK/GD32VW55x_RELEASE_V1.0.2/MSDK/cloud/alicloud/src/services/awss\zconfig_ieee80211.c **** #include "zconfig_protocol.h"
  15:C:/Users/stapi/OneDrive/Desktop/GD32VW553/V1_MQTT_OK/GD32VW55X_Wifi_BLE_SDK/GD32VW55x_RELEASE_V1.0.2/MSDK/cloud/alicloud/src/services/awss\zconfig_ieee80211.c **** #include "awss_timer.h"
  16:C:/Users/stapi/OneDrive/Desktop/GD32VW553/V1_MQTT_OK/GD32VW55X_Wifi_BLE_SDK/GD32VW55x_RELEASE_V1.0.2/MSDK/cloud/alicloud/src/services/awss\zconfig_ieee80211.c **** #include "awss_enrollee.h"
  17:C:/Users/stapi/OneDrive/Desktop/GD32VW553/V1_MQTT_OK/GD32VW55X_Wifi_BLE_SDK/GD32VW55x_RELEASE_V1.0.2/MSDK/cloud/alicloud/src/services/awss\zconfig_ieee80211.c **** #include "awss_adha.h"
  18:C:/Users/stapi/OneDrive/Desktop/GD32VW553/V1_MQTT_OK/GD32VW55X_Wifi_BLE_SDK/GD32VW55x_RELEASE_V1.0.2/MSDK/cloud/alicloud/src/services/awss\zconfig_ieee80211.c **** #include "awss_aha.h"
  19:C:/Users/stapi/OneDrive/Desktop/GD32VW553/V1_MQTT_OK/GD32VW55X_Wifi_BLE_SDK/GD32VW55x_RELEASE_V1.0.2/MSDK/cloud/alicloud/src/services/awss\zconfig_ieee80211.c **** #include "awss_wps.h"
  20:C:/Users/stapi/OneDrive/Desktop/GD32VW553/V1_MQTT_OK/GD32VW55X_Wifi_BLE_SDK/GD32VW55x_RELEASE_V1.0.2/MSDK/cloud/alicloud/src/services/awss\zconfig_ieee80211.c **** #include "awss_aplist.h"
  21:C:/Users/stapi/OneDrive/Desktop/GD32VW553/V1_MQTT_OK/GD32VW55X_Wifi_BLE_SDK/GD32VW55x_RELEASE_V1.0.2/MSDK/cloud/alicloud/src/services/awss\zconfig_ieee80211.c **** #include "awss_smartconfig.h"
  22:C:/Users/stapi/OneDrive/Desktop/GD32VW553/V1_MQTT_OK/GD32VW55X_Wifi_BLE_SDK/GD32VW55x_RELEASE_V1.0.2/MSDK/cloud/alicloud/src/services/awss\zconfig_ieee80211.c **** 
  23:C:/Users/stapi/OneDrive/Desktop/GD32VW553/V1_MQTT_OK/GD32VW55X_Wifi_BLE_SDK/GD32VW55x_RELEASE_V1.0.2/MSDK/cloud/alicloud/src/services/awss\zconfig_ieee80211.c **** #ifdef AWSS_SUPPORT_HT40
  24:C:/Users/stapi/OneDrive/Desktop/GD32VW553/V1_MQTT_OK/GD32VW55X_Wifi_BLE_SDK/GD32VW55x_RELEASE_V1.0.2/MSDK/cloud/alicloud/src/services/awss\zconfig_ieee80211.c **** #include "awss_ht40.h"
  25:C:/Users/stapi/OneDrive/Desktop/GD32VW553/V1_MQTT_OK/GD32VW55X_Wifi_BLE_SDK/GD32VW55x_RELEASE_V1.0.2/MSDK/cloud/alicloud/src/services/awss\zconfig_ieee80211.c **** #endif
  26:C:/Users/stapi/OneDrive/Desktop/GD32VW553/V1_MQTT_OK/GD32VW55X_Wifi_BLE_SDK/GD32VW55x_RELEASE_V1.0.2/MSDK/cloud/alicloud/src/services/awss\zconfig_ieee80211.c **** 
  27:C:/Users/stapi/OneDrive/Desktop/GD32VW553/V1_MQTT_OK/GD32VW55X_Wifi_BLE_SDK/GD32VW55x_RELEASE_V1.0.2/MSDK/cloud/alicloud/src/services/awss\zconfig_ieee80211.c **** #if defined(__cplusplus)  /* If this is a C++ compiler, use C linkage */
  28:C:/Users/stapi/OneDrive/Desktop/GD32VW553/V1_MQTT_OK/GD32VW55X_Wifi_BLE_SDK/GD32VW55x_RELEASE_V1.0.2/MSDK/cloud/alicloud/src/services/awss\zconfig_ieee80211.c **** extern "C"
  29:C:/Users/stapi/OneDrive/Desktop/GD32VW553/V1_MQTT_OK/GD32VW55X_Wifi_BLE_SDK/GD32VW55x_RELEASE_V1.0.2/MSDK/cloud/alicloud/src/services/awss\zconfig_ieee80211.c **** {
  30:C:/Users/stapi/OneDrive/Desktop/GD32VW553/V1_MQTT_OK/GD32VW55X_Wifi_BLE_SDK/GD32VW55x_RELEASE_V1.0.2/MSDK/cloud/alicloud/src/services/awss\zconfig_ieee80211.c **** #endif
  31:C:/Users/stapi/OneDrive/Desktop/GD32VW553/V1_MQTT_OK/GD32VW55X_Wifi_BLE_SDK/GD32VW55x_RELEASE_V1.0.2/MSDK/cloud/alicloud/src/services/awss\zconfig_ieee80211.c **** 
  32:C:/Users/stapi/OneDrive/Desktop/GD32VW553/V1_MQTT_OK/GD32VW55X_Wifi_BLE_SDK/GD32VW55x_RELEASE_V1.0.2/MSDK/cloud/alicloud/src/services/awss\zconfig_ieee80211.c **** #ifdef AWSS_BATCH_DEVAP_ENABLE
  33:C:/Users/stapi/OneDrive/Desktop/GD32VW553/V1_MQTT_OK/GD32VW55X_Wifi_BLE_SDK/GD32VW55x_RELEASE_V1.0.2/MSDK/cloud/alicloud/src/services/awss\zconfig_ieee80211.c **** // flag used to filter 802.11 smart config frames
  34:C:/Users/stapi/OneDrive/Desktop/GD32VW553/V1_MQTT_OK/GD32VW55X_Wifi_BLE_SDK/GD32VW55x_RELEASE_V1.0.2/MSDK/cloud/alicloud/src/services/awss\zconfig_ieee80211.c **** // 0xFF - no filter
  35:C:/Users/stapi/OneDrive/Desktop/GD32VW553/V1_MQTT_OK/GD32VW55X_Wifi_BLE_SDK/GD32VW55x_RELEASE_V1.0.2/MSDK/cloud/alicloud/src/services/awss\zconfig_ieee80211.c **** // 0x00 - only zero config frames enable
  36:C:/Users/stapi/OneDrive/Desktop/GD32VW553/V1_MQTT_OK/GD32VW55X_Wifi_BLE_SDK/GD32VW55x_RELEASE_V1.0.2/MSDK/cloud/alicloud/src/services/awss\zconfig_ieee80211.c **** // other - to be added
  37:C:/Users/stapi/OneDrive/Desktop/GD32VW553/V1_MQTT_OK/GD32VW55X_Wifi_BLE_SDK/GD32VW55x_RELEASE_V1.0.2/MSDK/cloud/alicloud/src/services/awss\zconfig_ieee80211.c **** static uint8_t g_awss_filter = 0xFF;
  38:C:/Users/stapi/OneDrive/Desktop/GD32VW553/V1_MQTT_OK/GD32VW55X_Wifi_BLE_SDK/GD32VW55x_RELEASE_V1.0.2/MSDK/cloud/alicloud/src/services/awss\zconfig_ieee80211.c **** 
  39:C:/Users/stapi/OneDrive/Desktop/GD32VW553/V1_MQTT_OK/GD32VW55X_Wifi_BLE_SDK/GD32VW55x_RELEASE_V1.0.2/MSDK/cloud/alicloud/src/services/awss\zconfig_ieee80211.c **** // if fix channel has been set, use it to lock channel
  40:C:/Users/stapi/OneDrive/Desktop/GD32VW553/V1_MQTT_OK/GD32VW55X_Wifi_BLE_SDK/GD32VW55x_RELEASE_V1.0.2/MSDK/cloud/alicloud/src/services/awss\zconfig_ieee80211.c **** uint8_t g_fixed_chan = 0xFF;
  41:C:/Users/stapi/OneDrive/Desktop/GD32VW553/V1_MQTT_OK/GD32VW55X_Wifi_BLE_SDK/GD32VW55x_RELEASE_V1.0.2/MSDK/cloud/alicloud/src/services/awss\zconfig_ieee80211.c **** #endif
  42:C:/Users/stapi/OneDrive/Desktop/GD32VW553/V1_MQTT_OK/GD32VW55X_Wifi_BLE_SDK/GD32VW55x_RELEASE_V1.0.2/MSDK/cloud/alicloud/src/services/awss\zconfig_ieee80211.c **** 
  43:C:/Users/stapi/OneDrive/Desktop/GD32VW553/V1_MQTT_OK/GD32VW55X_Wifi_BLE_SDK/GD32VW55x_RELEASE_V1.0.2/MSDK/cloud/alicloud/src/services/awss\zconfig_ieee80211.c **** const uint8_t wlan_fixed_scanning_channels[WLAN_FIXED_CHANNEL_NUM] = {
  44:C:/Users/stapi/OneDrive/Desktop/GD32VW553/V1_MQTT_OK/GD32VW55X_Wifi_BLE_SDK/GD32VW55x_RELEASE_V1.0.2/MSDK/cloud/alicloud/src/services/awss\zconfig_ieee80211.c ****     1, 6, 11, 1, 2, 3, 4, 5, 6, 7, 8, 9, 10, 11, 12, 13
  45:C:/Users/stapi/OneDrive/Desktop/GD32VW553/V1_MQTT_OK/GD32VW55X_Wifi_BLE_SDK/GD32VW55x_RELEASE_V1.0.2/MSDK/cloud/alicloud/src/services/awss\zconfig_ieee80211.c **** };
  46:C:/Users/stapi/OneDrive/Desktop/GD32VW553/V1_MQTT_OK/GD32VW55X_Wifi_BLE_SDK/GD32VW55x_RELEASE_V1.0.2/MSDK/cloud/alicloud/src/services/awss\zconfig_ieee80211.c **** 
  47:C:/Users/stapi/OneDrive/Desktop/GD32VW553/V1_MQTT_OK/GD32VW55X_Wifi_BLE_SDK/GD32VW55x_RELEASE_V1.0.2/MSDK/cloud/alicloud/src/services/awss\zconfig_ieee80211.c **** /**
  48:C:/Users/stapi/OneDrive/Desktop/GD32VW553/V1_MQTT_OK/GD32VW55X_Wifi_BLE_SDK/GD32VW55x_RELEASE_V1.0.2/MSDK/cloud/alicloud/src/services/awss\zconfig_ieee80211.c ****  * ieee80211_is_mgmt - check if type is IEEE80211_FTYPE_MGMT
  49:C:/Users/stapi/OneDrive/Desktop/GD32VW553/V1_MQTT_OK/GD32VW55X_Wifi_BLE_SDK/GD32VW55x_RELEASE_V1.0.2/MSDK/cloud/alicloud/src/services/awss\zconfig_ieee80211.c ****  * @fc: frame control bytes in little-endian byteorder
  50:C:/Users/stapi/OneDrive/Desktop/GD32VW553/V1_MQTT_OK/GD32VW55X_Wifi_BLE_SDK/GD32VW55x_RELEASE_V1.0.2/MSDK/cloud/alicloud/src/services/awss\zconfig_ieee80211.c ****  */
  51:C:/Users/stapi/OneDrive/Desktop/GD32VW553/V1_MQTT_OK/GD32VW55X_Wifi_BLE_SDK/GD32VW55x_RELEASE_V1.0.2/MSDK/cloud/alicloud/src/services/awss\zconfig_ieee80211.c **** #if 0
  52:C:/Users/stapi/OneDrive/Desktop/GD32VW553/V1_MQTT_OK/GD32VW55X_Wifi_BLE_SDK/GD32VW55x_RELEASE_V1.0.2/MSDK/cloud/alicloud/src/services/awss\zconfig_ieee80211.c **** int ieee80211_is_mgmt(uint16_t fc)
  53:C:/Users/stapi/OneDrive/Desktop/GD32VW553/V1_MQTT_OK/GD32VW55X_Wifi_BLE_SDK/GD32VW55x_RELEASE_V1.0.2/MSDK/cloud/alicloud/src/services/awss\zconfig_ieee80211.c **** {
  54:C:/Users/stapi/OneDrive/Desktop/GD32VW553/V1_MQTT_OK/GD32VW55X_Wifi_BLE_SDK/GD32VW55x_RELEASE_V1.0.2/MSDK/cloud/alicloud/src/services/awss\zconfig_ieee80211.c ****     return (fc & os_htole16(IEEE80211_FCTL_FTYPE)) ==
  55:C:/Users/stapi/OneDrive/Desktop/GD32VW553/V1_MQTT_OK/GD32VW55X_Wifi_BLE_SDK/GD32VW55x_RELEASE_V1.0.2/MSDK/cloud/alicloud/src/services/awss\zconfig_ieee80211.c ****            os_htole16(IEEE80211_FTYPE_MGMT);
  56:C:/Users/stapi/OneDrive/Desktop/GD32VW553/V1_MQTT_OK/GD32VW55X_Wifi_BLE_SDK/GD32VW55x_RELEASE_V1.0.2/MSDK/cloud/alicloud/src/services/awss\zconfig_ieee80211.c **** }
  57:C:/Users/stapi/OneDrive/Desktop/GD32VW553/V1_MQTT_OK/GD32VW55X_Wifi_BLE_SDK/GD32VW55x_RELEASE_V1.0.2/MSDK/cloud/alicloud/src/services/awss\zconfig_ieee80211.c **** #endif
  58:C:/Users/stapi/OneDrive/Desktop/GD32VW553/V1_MQTT_OK/GD32VW55X_Wifi_BLE_SDK/GD32VW55x_RELEASE_V1.0.2/MSDK/cloud/alicloud/src/services/awss\zconfig_ieee80211.c **** 
  59:C:/Users/stapi/OneDrive/Desktop/GD32VW553/V1_MQTT_OK/GD32VW55X_Wifi_BLE_SDK/GD32VW55x_RELEASE_V1.0.2/MSDK/cloud/alicloud/src/services/awss\zconfig_ieee80211.c **** /**
  60:C:/Users/stapi/OneDrive/Desktop/GD32VW553/V1_MQTT_OK/GD32VW55X_Wifi_BLE_SDK/GD32VW55x_RELEASE_V1.0.2/MSDK/cloud/alicloud/src/services/awss\zconfig_ieee80211.c ****  * ieee80211_is_ctl - check if type is IEEE80211_FTYPE_CTL
  61:C:/Users/stapi/OneDrive/Desktop/GD32VW553/V1_MQTT_OK/GD32VW55X_Wifi_BLE_SDK/GD32VW55x_RELEASE_V1.0.2/MSDK/cloud/alicloud/src/services/awss\zconfig_ieee80211.c ****  * @fc: frame control bytes in little-endian byteorder
  62:C:/Users/stapi/OneDrive/Desktop/GD32VW553/V1_MQTT_OK/GD32VW55X_Wifi_BLE_SDK/GD32VW55x_RELEASE_V1.0.2/MSDK/cloud/alicloud/src/services/awss\zconfig_ieee80211.c ****  */
  63:C:/Users/stapi/OneDrive/Desktop/GD32VW553/V1_MQTT_OK/GD32VW55X_Wifi_BLE_SDK/GD32VW55x_RELEASE_V1.0.2/MSDK/cloud/alicloud/src/services/awss\zconfig_ieee80211.c **** int ieee80211_is_ctl(uint16_t fc)
  64:C:/Users/stapi/OneDrive/Desktop/GD32VW553/V1_MQTT_OK/GD32VW55X_Wifi_BLE_SDK/GD32VW55x_RELEASE_V1.0.2/MSDK/cloud/alicloud/src/services/awss\zconfig_ieee80211.c **** {
  65:C:/Users/stapi/OneDrive/Desktop/GD32VW553/V1_MQTT_OK/GD32VW55X_Wifi_BLE_SDK/GD32VW55x_RELEASE_V1.0.2/MSDK/cloud/alicloud/src/services/awss\zconfig_ieee80211.c ****     return (fc & os_htole16(IEEE80211_FCTL_FTYPE)) ==
  66:C:/Users/stapi/OneDrive/Desktop/GD32VW553/V1_MQTT_OK/GD32VW55X_Wifi_BLE_SDK/GD32VW55x_RELEASE_V1.0.2/MSDK/cloud/alicloud/src/services/awss\zconfig_ieee80211.c ****            os_htole16(IEEE80211_FTYPE_CTL);
  67:C:/Users/stapi/OneDrive/Desktop/GD32VW553/V1_MQTT_OK/GD32VW55X_Wifi_BLE_SDK/GD32VW55x_RELEASE_V1.0.2/MSDK/cloud/alicloud/src/services/awss\zconfig_ieee80211.c **** }
  68:C:/Users/stapi/OneDrive/Desktop/GD32VW553/V1_MQTT_OK/GD32VW55X_Wifi_BLE_SDK/GD32VW55x_RELEASE_V1.0.2/MSDK/cloud/alicloud/src/services/awss\zconfig_ieee80211.c **** 
  69:C:/Users/stapi/OneDrive/Desktop/GD32VW553/V1_MQTT_OK/GD32VW55X_Wifi_BLE_SDK/GD32VW55x_RELEASE_V1.0.2/MSDK/cloud/alicloud/src/services/awss\zconfig_ieee80211.c **** /**
  70:C:/Users/stapi/OneDrive/Desktop/GD32VW553/V1_MQTT_OK/GD32VW55X_Wifi_BLE_SDK/GD32VW55x_RELEASE_V1.0.2/MSDK/cloud/alicloud/src/services/awss\zconfig_ieee80211.c ****  * ieee80211_is_data - check if type is IEEE80211_FTYPE_DATA
  71:C:/Users/stapi/OneDrive/Desktop/GD32VW553/V1_MQTT_OK/GD32VW55X_Wifi_BLE_SDK/GD32VW55x_RELEASE_V1.0.2/MSDK/cloud/alicloud/src/services/awss\zconfig_ieee80211.c ****  * @fc: frame control bytes in little-endian byteorder
  72:C:/Users/stapi/OneDrive/Desktop/GD32VW553/V1_MQTT_OK/GD32VW55X_Wifi_BLE_SDK/GD32VW55x_RELEASE_V1.0.2/MSDK/cloud/alicloud/src/services/awss\zconfig_ieee80211.c ****  */
  73:C:/Users/stapi/OneDrive/Desktop/GD32VW553/V1_MQTT_OK/GD32VW55X_Wifi_BLE_SDK/GD32VW55x_RELEASE_V1.0.2/MSDK/cloud/alicloud/src/services/awss\zconfig_ieee80211.c **** int ieee80211_is_data(uint16_t fc)
  74:C:/Users/stapi/OneDrive/Desktop/GD32VW553/V1_MQTT_OK/GD32VW55X_Wifi_BLE_SDK/GD32VW55x_RELEASE_V1.0.2/MSDK/cloud/alicloud/src/services/awss\zconfig_ieee80211.c **** {
  75:C:/Users/stapi/OneDrive/Desktop/GD32VW553/V1_MQTT_OK/GD32VW55X_Wifi_BLE_SDK/GD32VW55x_RELEASE_V1.0.2/MSDK/cloud/alicloud/src/services/awss\zconfig_ieee80211.c ****     return (fc & os_htole16(IEEE80211_FCTL_FTYPE)) ==
  76:C:/Users/stapi/OneDrive/Desktop/GD32VW553/V1_MQTT_OK/GD32VW55X_Wifi_BLE_SDK/GD32VW55x_RELEASE_V1.0.2/MSDK/cloud/alicloud/src/services/awss\zconfig_ieee80211.c ****            os_htole16(IEEE80211_FTYPE_DATA);
  77:C:/Users/stapi/OneDrive/Desktop/GD32VW553/V1_MQTT_OK/GD32VW55X_Wifi_BLE_SDK/GD32VW55x_RELEASE_V1.0.2/MSDK/cloud/alicloud/src/services/awss\zconfig_ieee80211.c **** }
  78:C:/Users/stapi/OneDrive/Desktop/GD32VW553/V1_MQTT_OK/GD32VW55X_Wifi_BLE_SDK/GD32VW55x_RELEASE_V1.0.2/MSDK/cloud/alicloud/src/services/awss\zconfig_ieee80211.c **** 
  79:C:/Users/stapi/OneDrive/Desktop/GD32VW553/V1_MQTT_OK/GD32VW55X_Wifi_BLE_SDK/GD32VW55x_RELEASE_V1.0.2/MSDK/cloud/alicloud/src/services/awss\zconfig_ieee80211.c **** 
  80:C:/Users/stapi/OneDrive/Desktop/GD32VW553/V1_MQTT_OK/GD32VW55X_Wifi_BLE_SDK/GD32VW55x_RELEASE_V1.0.2/MSDK/cloud/alicloud/src/services/awss\zconfig_ieee80211.c **** /**
  81:C:/Users/stapi/OneDrive/Desktop/GD32VW553/V1_MQTT_OK/GD32VW55X_Wifi_BLE_SDK/GD32VW55x_RELEASE_V1.0.2/MSDK/cloud/alicloud/src/services/awss\zconfig_ieee80211.c ****  * ieee80211_has_tods - check if IEEE80211_FCTL_TODS is set
  82:C:/Users/stapi/OneDrive/Desktop/GD32VW553/V1_MQTT_OK/GD32VW55X_Wifi_BLE_SDK/GD32VW55x_RELEASE_V1.0.2/MSDK/cloud/alicloud/src/services/awss\zconfig_ieee80211.c ****  * @fc: frame control bytes in little-endian byteorder
  83:C:/Users/stapi/OneDrive/Desktop/GD32VW553/V1_MQTT_OK/GD32VW55X_Wifi_BLE_SDK/GD32VW55x_RELEASE_V1.0.2/MSDK/cloud/alicloud/src/services/awss\zconfig_ieee80211.c ****  */
  84:C:/Users/stapi/OneDrive/Desktop/GD32VW553/V1_MQTT_OK/GD32VW55X_Wifi_BLE_SDK/GD32VW55x_RELEASE_V1.0.2/MSDK/cloud/alicloud/src/services/awss\zconfig_ieee80211.c **** int ieee80211_has_tods(uint16_t fc)
  85:C:/Users/stapi/OneDrive/Desktop/GD32VW553/V1_MQTT_OK/GD32VW55X_Wifi_BLE_SDK/GD32VW55x_RELEASE_V1.0.2/MSDK/cloud/alicloud/src/services/awss\zconfig_ieee80211.c **** {
  86:C:/Users/stapi/OneDrive/Desktop/GD32VW553/V1_MQTT_OK/GD32VW55X_Wifi_BLE_SDK/GD32VW55x_RELEASE_V1.0.2/MSDK/cloud/alicloud/src/services/awss\zconfig_ieee80211.c ****     return (fc & os_htole16(IEEE80211_FCTL_TODS)) != 0;
  87:C:/Users/stapi/OneDrive/Desktop/GD32VW553/V1_MQTT_OK/GD32VW55X_Wifi_BLE_SDK/GD32VW55x_RELEASE_V1.0.2/MSDK/cloud/alicloud/src/services/awss\zconfig_ieee80211.c **** }
  88:C:/Users/stapi/OneDrive/Desktop/GD32VW553/V1_MQTT_OK/GD32VW55X_Wifi_BLE_SDK/GD32VW55x_RELEASE_V1.0.2/MSDK/cloud/alicloud/src/services/awss\zconfig_ieee80211.c **** 
  89:C:/Users/stapi/OneDrive/Desktop/GD32VW553/V1_MQTT_OK/GD32VW55X_Wifi_BLE_SDK/GD32VW55x_RELEASE_V1.0.2/MSDK/cloud/alicloud/src/services/awss\zconfig_ieee80211.c **** /**
  90:C:/Users/stapi/OneDrive/Desktop/GD32VW553/V1_MQTT_OK/GD32VW55X_Wifi_BLE_SDK/GD32VW55x_RELEASE_V1.0.2/MSDK/cloud/alicloud/src/services/awss\zconfig_ieee80211.c ****  * ieee80211_has_fromds - check if IEEE80211_FCTL_FROMDS is set
  91:C:/Users/stapi/OneDrive/Desktop/GD32VW553/V1_MQTT_OK/GD32VW55X_Wifi_BLE_SDK/GD32VW55x_RELEASE_V1.0.2/MSDK/cloud/alicloud/src/services/awss\zconfig_ieee80211.c ****  * @fc: frame control bytes in little-endian byteorder
  92:C:/Users/stapi/OneDrive/Desktop/GD32VW553/V1_MQTT_OK/GD32VW55X_Wifi_BLE_SDK/GD32VW55x_RELEASE_V1.0.2/MSDK/cloud/alicloud/src/services/awss\zconfig_ieee80211.c ****  */
  93:C:/Users/stapi/OneDrive/Desktop/GD32VW553/V1_MQTT_OK/GD32VW55X_Wifi_BLE_SDK/GD32VW55x_RELEASE_V1.0.2/MSDK/cloud/alicloud/src/services/awss\zconfig_ieee80211.c **** int ieee80211_has_fromds(uint16_t fc)
  94:C:/Users/stapi/OneDrive/Desktop/GD32VW553/V1_MQTT_OK/GD32VW55X_Wifi_BLE_SDK/GD32VW55x_RELEASE_V1.0.2/MSDK/cloud/alicloud/src/services/awss\zconfig_ieee80211.c **** {
  95:C:/Users/stapi/OneDrive/Desktop/GD32VW553/V1_MQTT_OK/GD32VW55X_Wifi_BLE_SDK/GD32VW55x_RELEASE_V1.0.2/MSDK/cloud/alicloud/src/services/awss\zconfig_ieee80211.c ****     return (fc & os_htole16(IEEE80211_FCTL_FROMDS)) != 0;
  96:C:/Users/stapi/OneDrive/Desktop/GD32VW553/V1_MQTT_OK/GD32VW55X_Wifi_BLE_SDK/GD32VW55x_RELEASE_V1.0.2/MSDK/cloud/alicloud/src/services/awss\zconfig_ieee80211.c **** }
  97:C:/Users/stapi/OneDrive/Desktop/GD32VW553/V1_MQTT_OK/GD32VW55X_Wifi_BLE_SDK/GD32VW55x_RELEASE_V1.0.2/MSDK/cloud/alicloud/src/services/awss\zconfig_ieee80211.c **** 
  98:C:/Users/stapi/OneDrive/Desktop/GD32VW553/V1_MQTT_OK/GD32VW55X_Wifi_BLE_SDK/GD32VW55x_RELEASE_V1.0.2/MSDK/cloud/alicloud/src/services/awss\zconfig_ieee80211.c **** /**
  99:C:/Users/stapi/OneDrive/Desktop/GD32VW553/V1_MQTT_OK/GD32VW55X_Wifi_BLE_SDK/GD32VW55x_RELEASE_V1.0.2/MSDK/cloud/alicloud/src/services/awss\zconfig_ieee80211.c ****  * ieee80211_has_a4 - check if IEEE80211_FCTL_TODS and IEEE80211_FCTL_FROMDS are set
 100:C:/Users/stapi/OneDrive/Desktop/GD32VW553/V1_MQTT_OK/GD32VW55X_Wifi_BLE_SDK/GD32VW55x_RELEASE_V1.0.2/MSDK/cloud/alicloud/src/services/awss\zconfig_ieee80211.c ****  * @fc: frame control bytes in little-endian byteorder
 101:C:/Users/stapi/OneDrive/Desktop/GD32VW553/V1_MQTT_OK/GD32VW55X_Wifi_BLE_SDK/GD32VW55x_RELEASE_V1.0.2/MSDK/cloud/alicloud/src/services/awss\zconfig_ieee80211.c ****  */
 102:C:/Users/stapi/OneDrive/Desktop/GD32VW553/V1_MQTT_OK/GD32VW55X_Wifi_BLE_SDK/GD32VW55x_RELEASE_V1.0.2/MSDK/cloud/alicloud/src/services/awss\zconfig_ieee80211.c **** int ieee80211_has_a4(uint16_t fc)
 103:C:/Users/stapi/OneDrive/Desktop/GD32VW553/V1_MQTT_OK/GD32VW55X_Wifi_BLE_SDK/GD32VW55x_RELEASE_V1.0.2/MSDK/cloud/alicloud/src/services/awss\zconfig_ieee80211.c **** {
 104:C:/Users/stapi/OneDrive/Desktop/GD32VW553/V1_MQTT_OK/GD32VW55X_Wifi_BLE_SDK/GD32VW55x_RELEASE_V1.0.2/MSDK/cloud/alicloud/src/services/awss\zconfig_ieee80211.c ****     uint16_t tmp = os_htole16(IEEE80211_FCTL_TODS | IEEE80211_FCTL_FROMDS);
 105:C:/Users/stapi/OneDrive/Desktop/GD32VW553/V1_MQTT_OK/GD32VW55X_Wifi_BLE_SDK/GD32VW55x_RELEASE_V1.0.2/MSDK/cloud/alicloud/src/services/awss\zconfig_ieee80211.c ****     return (fc & tmp) == tmp;
 106:C:/Users/stapi/OneDrive/Desktop/GD32VW553/V1_MQTT_OK/GD32VW55X_Wifi_BLE_SDK/GD32VW55x_RELEASE_V1.0.2/MSDK/cloud/alicloud/src/services/awss\zconfig_ieee80211.c **** }
 107:C:/Users/stapi/OneDrive/Desktop/GD32VW553/V1_MQTT_OK/GD32VW55X_Wifi_BLE_SDK/GD32VW55x_RELEASE_V1.0.2/MSDK/cloud/alicloud/src/services/awss\zconfig_ieee80211.c **** 
 108:C:/Users/stapi/OneDrive/Desktop/GD32VW553/V1_MQTT_OK/GD32VW55X_Wifi_BLE_SDK/GD32VW55x_RELEASE_V1.0.2/MSDK/cloud/alicloud/src/services/awss\zconfig_ieee80211.c **** /**
 109:C:/Users/stapi/OneDrive/Desktop/GD32VW553/V1_MQTT_OK/GD32VW55X_Wifi_BLE_SDK/GD32VW55x_RELEASE_V1.0.2/MSDK/cloud/alicloud/src/services/awss\zconfig_ieee80211.c ****  * ieee80211_has_order - check if IEEE80211_FCTL_ORDER is set
 110:C:/Users/stapi/OneDrive/Desktop/GD32VW553/V1_MQTT_OK/GD32VW55X_Wifi_BLE_SDK/GD32VW55x_RELEASE_V1.0.2/MSDK/cloud/alicloud/src/services/awss\zconfig_ieee80211.c ****  * @fc: frame control bytes in little-endian byteorder
 111:C:/Users/stapi/OneDrive/Desktop/GD32VW553/V1_MQTT_OK/GD32VW55X_Wifi_BLE_SDK/GD32VW55x_RELEASE_V1.0.2/MSDK/cloud/alicloud/src/services/awss\zconfig_ieee80211.c ****  */
 112:C:/Users/stapi/OneDrive/Desktop/GD32VW553/V1_MQTT_OK/GD32VW55X_Wifi_BLE_SDK/GD32VW55x_RELEASE_V1.0.2/MSDK/cloud/alicloud/src/services/awss\zconfig_ieee80211.c **** int ieee80211_has_order(uint16_t fc)
 113:C:/Users/stapi/OneDrive/Desktop/GD32VW553/V1_MQTT_OK/GD32VW55X_Wifi_BLE_SDK/GD32VW55x_RELEASE_V1.0.2/MSDK/cloud/alicloud/src/services/awss\zconfig_ieee80211.c **** {
 114:C:/Users/stapi/OneDrive/Desktop/GD32VW553/V1_MQTT_OK/GD32VW55X_Wifi_BLE_SDK/GD32VW55x_RELEASE_V1.0.2/MSDK/cloud/alicloud/src/services/awss\zconfig_ieee80211.c ****     return (fc & os_htole16(IEEE80211_FCTL_ORDER)) != 0;
 115:C:/Users/stapi/OneDrive/Desktop/GD32VW553/V1_MQTT_OK/GD32VW55X_Wifi_BLE_SDK/GD32VW55x_RELEASE_V1.0.2/MSDK/cloud/alicloud/src/services/awss\zconfig_ieee80211.c **** }
 116:C:/Users/stapi/OneDrive/Desktop/GD32VW553/V1_MQTT_OK/GD32VW55X_Wifi_BLE_SDK/GD32VW55x_RELEASE_V1.0.2/MSDK/cloud/alicloud/src/services/awss\zconfig_ieee80211.c **** 
 117:C:/Users/stapi/OneDrive/Desktop/GD32VW553/V1_MQTT_OK/GD32VW55X_Wifi_BLE_SDK/GD32VW55x_RELEASE_V1.0.2/MSDK/cloud/alicloud/src/services/awss\zconfig_ieee80211.c **** /**
 118:C:/Users/stapi/OneDrive/Desktop/GD32VW553/V1_MQTT_OK/GD32VW55X_Wifi_BLE_SDK/GD32VW55x_RELEASE_V1.0.2/MSDK/cloud/alicloud/src/services/awss\zconfig_ieee80211.c ****  * ieee80211_has_protected - check if IEEE80211_FCTL_PROTECTED is set
 119:C:/Users/stapi/OneDrive/Desktop/GD32VW553/V1_MQTT_OK/GD32VW55X_Wifi_BLE_SDK/GD32VW55x_RELEASE_V1.0.2/MSDK/cloud/alicloud/src/services/awss\zconfig_ieee80211.c ****  * @fc: frame control bytes in little-endian byteorder
 120:C:/Users/stapi/OneDrive/Desktop/GD32VW553/V1_MQTT_OK/GD32VW55X_Wifi_BLE_SDK/GD32VW55x_RELEASE_V1.0.2/MSDK/cloud/alicloud/src/services/awss\zconfig_ieee80211.c ****  */
 121:C:/Users/stapi/OneDrive/Desktop/GD32VW553/V1_MQTT_OK/GD32VW55X_Wifi_BLE_SDK/GD32VW55x_RELEASE_V1.0.2/MSDK/cloud/alicloud/src/services/awss\zconfig_ieee80211.c **** int ieee80211_has_protected(uint16_t fc)
 122:C:/Users/stapi/OneDrive/Desktop/GD32VW553/V1_MQTT_OK/GD32VW55X_Wifi_BLE_SDK/GD32VW55x_RELEASE_V1.0.2/MSDK/cloud/alicloud/src/services/awss\zconfig_ieee80211.c **** {
 123:C:/Users/stapi/OneDrive/Desktop/GD32VW553/V1_MQTT_OK/GD32VW55X_Wifi_BLE_SDK/GD32VW55x_RELEASE_V1.0.2/MSDK/cloud/alicloud/src/services/awss\zconfig_ieee80211.c ****     return (fc & os_htole16(IEEE80211_FCTL_PROTECTED)) != 0;
 124:C:/Users/stapi/OneDrive/Desktop/GD32VW553/V1_MQTT_OK/GD32VW55X_Wifi_BLE_SDK/GD32VW55x_RELEASE_V1.0.2/MSDK/cloud/alicloud/src/services/awss\zconfig_ieee80211.c **** }
 125:C:/Users/stapi/OneDrive/Desktop/GD32VW553/V1_MQTT_OK/GD32VW55X_Wifi_BLE_SDK/GD32VW55x_RELEASE_V1.0.2/MSDK/cloud/alicloud/src/services/awss\zconfig_ieee80211.c **** 
 126:C:/Users/stapi/OneDrive/Desktop/GD32VW553/V1_MQTT_OK/GD32VW55X_Wifi_BLE_SDK/GD32VW55x_RELEASE_V1.0.2/MSDK/cloud/alicloud/src/services/awss\zconfig_ieee80211.c **** /**
 127:C:/Users/stapi/OneDrive/Desktop/GD32VW553/V1_MQTT_OK/GD32VW55X_Wifi_BLE_SDK/GD32VW55x_RELEASE_V1.0.2/MSDK/cloud/alicloud/src/services/awss\zconfig_ieee80211.c ****  * ieee80211_is_data_qos - check if type is IEEE80211_FTYPE_DATA and IEEE80211_STYPE_QOS_DATA is se
 128:C:/Users/stapi/OneDrive/Desktop/GD32VW553/V1_MQTT_OK/GD32VW55X_Wifi_BLE_SDK/GD32VW55x_RELEASE_V1.0.2/MSDK/cloud/alicloud/src/services/awss\zconfig_ieee80211.c ****  * @fc: frame control bytes in little-endian byteorder
 129:C:/Users/stapi/OneDrive/Desktop/GD32VW553/V1_MQTT_OK/GD32VW55X_Wifi_BLE_SDK/GD32VW55x_RELEASE_V1.0.2/MSDK/cloud/alicloud/src/services/awss\zconfig_ieee80211.c ****  */
 130:C:/Users/stapi/OneDrive/Desktop/GD32VW553/V1_MQTT_OK/GD32VW55X_Wifi_BLE_SDK/GD32VW55x_RELEASE_V1.0.2/MSDK/cloud/alicloud/src/services/awss\zconfig_ieee80211.c **** int ieee80211_is_data_qos(uint16_t fc)
 131:C:/Users/stapi/OneDrive/Desktop/GD32VW553/V1_MQTT_OK/GD32VW55X_Wifi_BLE_SDK/GD32VW55x_RELEASE_V1.0.2/MSDK/cloud/alicloud/src/services/awss\zconfig_ieee80211.c **** {
 132:C:/Users/stapi/OneDrive/Desktop/GD32VW553/V1_MQTT_OK/GD32VW55X_Wifi_BLE_SDK/GD32VW55x_RELEASE_V1.0.2/MSDK/cloud/alicloud/src/services/awss\zconfig_ieee80211.c ****     /*
 133:C:/Users/stapi/OneDrive/Desktop/GD32VW553/V1_MQTT_OK/GD32VW55X_Wifi_BLE_SDK/GD32VW55x_RELEASE_V1.0.2/MSDK/cloud/alicloud/src/services/awss\zconfig_ieee80211.c ****      * mask with QOS_DATA rather than IEEE80211_FCTL_STYPE as we just need
 134:C:/Users/stapi/OneDrive/Desktop/GD32VW553/V1_MQTT_OK/GD32VW55X_Wifi_BLE_SDK/GD32VW55x_RELEASE_V1.0.2/MSDK/cloud/alicloud/src/services/awss\zconfig_ieee80211.c ****      * to check the one bit
 135:C:/Users/stapi/OneDrive/Desktop/GD32VW553/V1_MQTT_OK/GD32VW55X_Wifi_BLE_SDK/GD32VW55x_RELEASE_V1.0.2/MSDK/cloud/alicloud/src/services/awss\zconfig_ieee80211.c ****      */
 136:C:/Users/stapi/OneDrive/Desktop/GD32VW553/V1_MQTT_OK/GD32VW55X_Wifi_BLE_SDK/GD32VW55x_RELEASE_V1.0.2/MSDK/cloud/alicloud/src/services/awss\zconfig_ieee80211.c ****     return (fc & os_htole16(IEEE80211_FCTL_FTYPE | IEEE80211_STYPE_QOS_DATA)) ==
 137:C:/Users/stapi/OneDrive/Desktop/GD32VW553/V1_MQTT_OK/GD32VW55X_Wifi_BLE_SDK/GD32VW55x_RELEASE_V1.0.2/MSDK/cloud/alicloud/src/services/awss\zconfig_ieee80211.c ****            os_htole16(IEEE80211_FTYPE_DATA | IEEE80211_STYPE_QOS_DATA);
 138:C:/Users/stapi/OneDrive/Desktop/GD32VW553/V1_MQTT_OK/GD32VW55X_Wifi_BLE_SDK/GD32VW55x_RELEASE_V1.0.2/MSDK/cloud/alicloud/src/services/awss\zconfig_ieee80211.c **** }
 139:C:/Users/stapi/OneDrive/Desktop/GD32VW553/V1_MQTT_OK/GD32VW55X_Wifi_BLE_SDK/GD32VW55x_RELEASE_V1.0.2/MSDK/cloud/alicloud/src/services/awss\zconfig_ieee80211.c **** 
 140:C:/Users/stapi/OneDrive/Desktop/GD32VW553/V1_MQTT_OK/GD32VW55X_Wifi_BLE_SDK/GD32VW55x_RELEASE_V1.0.2/MSDK/cloud/alicloud/src/services/awss\zconfig_ieee80211.c **** /**
 141:C:/Users/stapi/OneDrive/Desktop/GD32VW553/V1_MQTT_OK/GD32VW55X_Wifi_BLE_SDK/GD32VW55x_RELEASE_V1.0.2/MSDK/cloud/alicloud/src/services/awss\zconfig_ieee80211.c ****  * ieee80211_is_data_present - check if type is IEEE80211_FTYPE_DATA and has data
 142:C:/Users/stapi/OneDrive/Desktop/GD32VW553/V1_MQTT_OK/GD32VW55X_Wifi_BLE_SDK/GD32VW55x_RELEASE_V1.0.2/MSDK/cloud/alicloud/src/services/awss\zconfig_ieee80211.c ****  * @fc: frame control bytes in little-endian byteorder
 143:C:/Users/stapi/OneDrive/Desktop/GD32VW553/V1_MQTT_OK/GD32VW55X_Wifi_BLE_SDK/GD32VW55x_RELEASE_V1.0.2/MSDK/cloud/alicloud/src/services/awss\zconfig_ieee80211.c ****  */
 144:C:/Users/stapi/OneDrive/Desktop/GD32VW553/V1_MQTT_OK/GD32VW55X_Wifi_BLE_SDK/GD32VW55x_RELEASE_V1.0.2/MSDK/cloud/alicloud/src/services/awss\zconfig_ieee80211.c **** #if 0
 145:C:/Users/stapi/OneDrive/Desktop/GD32VW553/V1_MQTT_OK/GD32VW55X_Wifi_BLE_SDK/GD32VW55x_RELEASE_V1.0.2/MSDK/cloud/alicloud/src/services/awss\zconfig_ieee80211.c **** int ieee80211_is_data_present(uint16_t fc)
 146:C:/Users/stapi/OneDrive/Desktop/GD32VW553/V1_MQTT_OK/GD32VW55X_Wifi_BLE_SDK/GD32VW55x_RELEASE_V1.0.2/MSDK/cloud/alicloud/src/services/awss\zconfig_ieee80211.c **** {
 147:C:/Users/stapi/OneDrive/Desktop/GD32VW553/V1_MQTT_OK/GD32VW55X_Wifi_BLE_SDK/GD32VW55x_RELEASE_V1.0.2/MSDK/cloud/alicloud/src/services/awss\zconfig_ieee80211.c ****     /*
 148:C:/Users/stapi/OneDrive/Desktop/GD32VW553/V1_MQTT_OK/GD32VW55X_Wifi_BLE_SDK/GD32VW55x_RELEASE_V1.0.2/MSDK/cloud/alicloud/src/services/awss\zconfig_ieee80211.c ****      * mask with 0x40 and test that that bit is clear to only return true
 149:C:/Users/stapi/OneDrive/Desktop/GD32VW553/V1_MQTT_OK/GD32VW55X_Wifi_BLE_SDK/GD32VW55x_RELEASE_V1.0.2/MSDK/cloud/alicloud/src/services/awss\zconfig_ieee80211.c ****      * for the data-containing substypes.
 150:C:/Users/stapi/OneDrive/Desktop/GD32VW553/V1_MQTT_OK/GD32VW55X_Wifi_BLE_SDK/GD32VW55x_RELEASE_V1.0.2/MSDK/cloud/alicloud/src/services/awss\zconfig_ieee80211.c ****      */
 151:C:/Users/stapi/OneDrive/Desktop/GD32VW553/V1_MQTT_OK/GD32VW55X_Wifi_BLE_SDK/GD32VW55x_RELEASE_V1.0.2/MSDK/cloud/alicloud/src/services/awss\zconfig_ieee80211.c ****     return (fc & os_htole16(IEEE80211_FCTL_FTYPE | 0x40)) ==
 152:C:/Users/stapi/OneDrive/Desktop/GD32VW553/V1_MQTT_OK/GD32VW55X_Wifi_BLE_SDK/GD32VW55x_RELEASE_V1.0.2/MSDK/cloud/alicloud/src/services/awss\zconfig_ieee80211.c ****            os_htole16(IEEE80211_FTYPE_DATA);
 153:C:/Users/stapi/OneDrive/Desktop/GD32VW553/V1_MQTT_OK/GD32VW55X_Wifi_BLE_SDK/GD32VW55x_RELEASE_V1.0.2/MSDK/cloud/alicloud/src/services/awss\zconfig_ieee80211.c **** }
 154:C:/Users/stapi/OneDrive/Desktop/GD32VW553/V1_MQTT_OK/GD32VW55X_Wifi_BLE_SDK/GD32VW55x_RELEASE_V1.0.2/MSDK/cloud/alicloud/src/services/awss\zconfig_ieee80211.c **** #endif
 155:C:/Users/stapi/OneDrive/Desktop/GD32VW553/V1_MQTT_OK/GD32VW55X_Wifi_BLE_SDK/GD32VW55x_RELEASE_V1.0.2/MSDK/cloud/alicloud/src/services/awss\zconfig_ieee80211.c **** 
 156:C:/Users/stapi/OneDrive/Desktop/GD32VW553/V1_MQTT_OK/GD32VW55X_Wifi_BLE_SDK/GD32VW55x_RELEASE_V1.0.2/MSDK/cloud/alicloud/src/services/awss\zconfig_ieee80211.c **** /**
 157:C:/Users/stapi/OneDrive/Desktop/GD32VW553/V1_MQTT_OK/GD32VW55X_Wifi_BLE_SDK/GD32VW55x_RELEASE_V1.0.2/MSDK/cloud/alicloud/src/services/awss\zconfig_ieee80211.c ****  * ieee80211_is_data_present - check if type is IEEE80211_FTYPE_DATA and only data
 158:C:/Users/stapi/OneDrive/Desktop/GD32VW553/V1_MQTT_OK/GD32VW55X_Wifi_BLE_SDK/GD32VW55x_RELEASE_V1.0.2/MSDK/cloud/alicloud/src/services/awss\zconfig_ieee80211.c ****  * @fc: frame control bytes in little-endian byteorder
 159:C:/Users/stapi/OneDrive/Desktop/GD32VW553/V1_MQTT_OK/GD32VW55X_Wifi_BLE_SDK/GD32VW55x_RELEASE_V1.0.2/MSDK/cloud/alicloud/src/services/awss\zconfig_ieee80211.c ****  */
 160:C:/Users/stapi/OneDrive/Desktop/GD32VW553/V1_MQTT_OK/GD32VW55X_Wifi_BLE_SDK/GD32VW55x_RELEASE_V1.0.2/MSDK/cloud/alicloud/src/services/awss\zconfig_ieee80211.c **** int ieee80211_is_data_exact(uint16_t fc)
 161:C:/Users/stapi/OneDrive/Desktop/GD32VW553/V1_MQTT_OK/GD32VW55X_Wifi_BLE_SDK/GD32VW55x_RELEASE_V1.0.2/MSDK/cloud/alicloud/src/services/awss\zconfig_ieee80211.c **** {
 162:C:/Users/stapi/OneDrive/Desktop/GD32VW553/V1_MQTT_OK/GD32VW55X_Wifi_BLE_SDK/GD32VW55x_RELEASE_V1.0.2/MSDK/cloud/alicloud/src/services/awss\zconfig_ieee80211.c ****     uint16_t tmp = fc & os_htole16(IEEE80211_FCTL_FTYPE | IEEE80211_FCTL_STYPE);
 163:C:/Users/stapi/OneDrive/Desktop/GD32VW553/V1_MQTT_OK/GD32VW55X_Wifi_BLE_SDK/GD32VW55x_RELEASE_V1.0.2/MSDK/cloud/alicloud/src/services/awss\zconfig_ieee80211.c **** 
 164:C:/Users/stapi/OneDrive/Desktop/GD32VW553/V1_MQTT_OK/GD32VW55X_Wifi_BLE_SDK/GD32VW55x_RELEASE_V1.0.2/MSDK/cloud/alicloud/src/services/awss\zconfig_ieee80211.c ****     return (tmp == os_htole16(IEEE80211_FTYPE_DATA)) ||
 165:C:/Users/stapi/OneDrive/Desktop/GD32VW553/V1_MQTT_OK/GD32VW55X_Wifi_BLE_SDK/GD32VW55x_RELEASE_V1.0.2/MSDK/cloud/alicloud/src/services/awss\zconfig_ieee80211.c ****            (tmp == os_htole16(IEEE80211_FTYPE_DATA | IEEE80211_STYPE_QOS_DATA));
 166:C:/Users/stapi/OneDrive/Desktop/GD32VW553/V1_MQTT_OK/GD32VW55X_Wifi_BLE_SDK/GD32VW55x_RELEASE_V1.0.2/MSDK/cloud/alicloud/src/services/awss\zconfig_ieee80211.c **** }
 167:C:/Users/stapi/OneDrive/Desktop/GD32VW553/V1_MQTT_OK/GD32VW55X_Wifi_BLE_SDK/GD32VW55x_RELEASE_V1.0.2/MSDK/cloud/alicloud/src/services/awss\zconfig_ieee80211.c **** 
 168:C:/Users/stapi/OneDrive/Desktop/GD32VW553/V1_MQTT_OK/GD32VW55X_Wifi_BLE_SDK/GD32VW55x_RELEASE_V1.0.2/MSDK/cloud/alicloud/src/services/awss\zconfig_ieee80211.c **** /**
 169:C:/Users/stapi/OneDrive/Desktop/GD32VW553/V1_MQTT_OK/GD32VW55X_Wifi_BLE_SDK/GD32VW55x_RELEASE_V1.0.2/MSDK/cloud/alicloud/src/services/awss\zconfig_ieee80211.c ****  * ieee80211_is_beacon - check if IEEE80211_FTYPE_MGMT && IEEE80211_STYPE_BEACON
 170:C:/Users/stapi/OneDrive/Desktop/GD32VW553/V1_MQTT_OK/GD32VW55X_Wifi_BLE_SDK/GD32VW55x_RELEASE_V1.0.2/MSDK/cloud/alicloud/src/services/awss\zconfig_ieee80211.c ****  * @fc: frame control bytes in little-endian byteorder
 171:C:/Users/stapi/OneDrive/Desktop/GD32VW553/V1_MQTT_OK/GD32VW55X_Wifi_BLE_SDK/GD32VW55x_RELEASE_V1.0.2/MSDK/cloud/alicloud/src/services/awss\zconfig_ieee80211.c ****  */
 172:C:/Users/stapi/OneDrive/Desktop/GD32VW553/V1_MQTT_OK/GD32VW55X_Wifi_BLE_SDK/GD32VW55x_RELEASE_V1.0.2/MSDK/cloud/alicloud/src/services/awss\zconfig_ieee80211.c **** int ieee80211_is_beacon(uint16_t fc)
 173:C:/Users/stapi/OneDrive/Desktop/GD32VW553/V1_MQTT_OK/GD32VW55X_Wifi_BLE_SDK/GD32VW55x_RELEASE_V1.0.2/MSDK/cloud/alicloud/src/services/awss\zconfig_ieee80211.c **** {
 174:C:/Users/stapi/OneDrive/Desktop/GD32VW553/V1_MQTT_OK/GD32VW55X_Wifi_BLE_SDK/GD32VW55x_RELEASE_V1.0.2/MSDK/cloud/alicloud/src/services/awss\zconfig_ieee80211.c ****     return (fc & os_htole16(IEEE80211_FCTL_FTYPE | IEEE80211_FCTL_STYPE)) ==
 175:C:/Users/stapi/OneDrive/Desktop/GD32VW553/V1_MQTT_OK/GD32VW55X_Wifi_BLE_SDK/GD32VW55x_RELEASE_V1.0.2/MSDK/cloud/alicloud/src/services/awss\zconfig_ieee80211.c ****            os_htole16(IEEE80211_FTYPE_MGMT | IEEE80211_STYPE_BEACON);
 176:C:/Users/stapi/OneDrive/Desktop/GD32VW553/V1_MQTT_OK/GD32VW55X_Wifi_BLE_SDK/GD32VW55x_RELEASE_V1.0.2/MSDK/cloud/alicloud/src/services/awss\zconfig_ieee80211.c **** }
 177:C:/Users/stapi/OneDrive/Desktop/GD32VW553/V1_MQTT_OK/GD32VW55X_Wifi_BLE_SDK/GD32VW55x_RELEASE_V1.0.2/MSDK/cloud/alicloud/src/services/awss\zconfig_ieee80211.c **** 
 178:C:/Users/stapi/OneDrive/Desktop/GD32VW553/V1_MQTT_OK/GD32VW55X_Wifi_BLE_SDK/GD32VW55x_RELEASE_V1.0.2/MSDK/cloud/alicloud/src/services/awss\zconfig_ieee80211.c **** /**
 179:C:/Users/stapi/OneDrive/Desktop/GD32VW553/V1_MQTT_OK/GD32VW55X_Wifi_BLE_SDK/GD32VW55x_RELEASE_V1.0.2/MSDK/cloud/alicloud/src/services/awss\zconfig_ieee80211.c ****  * ieee80211_is_action - check if IEEE80211_FTYPE_MGMT && IEEE80211_STYPE_ACTION
 180:C:/Users/stapi/OneDrive/Desktop/GD32VW553/V1_MQTT_OK/GD32VW55X_Wifi_BLE_SDK/GD32VW55x_RELEASE_V1.0.2/MSDK/cloud/alicloud/src/services/awss\zconfig_ieee80211.c ****  * @fc: frame control bytes in little-endian byteorder
 181:C:/Users/stapi/OneDrive/Desktop/GD32VW553/V1_MQTT_OK/GD32VW55X_Wifi_BLE_SDK/GD32VW55x_RELEASE_V1.0.2/MSDK/cloud/alicloud/src/services/awss\zconfig_ieee80211.c ****  */
 182:C:/Users/stapi/OneDrive/Desktop/GD32VW553/V1_MQTT_OK/GD32VW55X_Wifi_BLE_SDK/GD32VW55x_RELEASE_V1.0.2/MSDK/cloud/alicloud/src/services/awss\zconfig_ieee80211.c **** #if 0
 183:C:/Users/stapi/OneDrive/Desktop/GD32VW553/V1_MQTT_OK/GD32VW55X_Wifi_BLE_SDK/GD32VW55x_RELEASE_V1.0.2/MSDK/cloud/alicloud/src/services/awss\zconfig_ieee80211.c **** int ieee80211_is_action(uint16_t fc)
 184:C:/Users/stapi/OneDrive/Desktop/GD32VW553/V1_MQTT_OK/GD32VW55X_Wifi_BLE_SDK/GD32VW55x_RELEASE_V1.0.2/MSDK/cloud/alicloud/src/services/awss\zconfig_ieee80211.c **** {
 185:C:/Users/stapi/OneDrive/Desktop/GD32VW553/V1_MQTT_OK/GD32VW55X_Wifi_BLE_SDK/GD32VW55x_RELEASE_V1.0.2/MSDK/cloud/alicloud/src/services/awss\zconfig_ieee80211.c ****     return (fc & os_htole16(IEEE80211_FCTL_FTYPE | IEEE80211_FCTL_STYPE)) ==
 186:C:/Users/stapi/OneDrive/Desktop/GD32VW553/V1_MQTT_OK/GD32VW55X_Wifi_BLE_SDK/GD32VW55x_RELEASE_V1.0.2/MSDK/cloud/alicloud/src/services/awss\zconfig_ieee80211.c ****            os_htole16(IEEE80211_FTYPE_MGMT | IEEE80211_STYPE_ACTION);
 187:C:/Users/stapi/OneDrive/Desktop/GD32VW553/V1_MQTT_OK/GD32VW55X_Wifi_BLE_SDK/GD32VW55x_RELEASE_V1.0.2/MSDK/cloud/alicloud/src/services/awss\zconfig_ieee80211.c **** }
 188:C:/Users/stapi/OneDrive/Desktop/GD32VW553/V1_MQTT_OK/GD32VW55X_Wifi_BLE_SDK/GD32VW55x_RELEASE_V1.0.2/MSDK/cloud/alicloud/src/services/awss\zconfig_ieee80211.c **** #endif
 189:C:/Users/stapi/OneDrive/Desktop/GD32VW553/V1_MQTT_OK/GD32VW55X_Wifi_BLE_SDK/GD32VW55x_RELEASE_V1.0.2/MSDK/cloud/alicloud/src/services/awss\zconfig_ieee80211.c **** 
 190:C:/Users/stapi/OneDrive/Desktop/GD32VW553/V1_MQTT_OK/GD32VW55X_Wifi_BLE_SDK/GD32VW55x_RELEASE_V1.0.2/MSDK/cloud/alicloud/src/services/awss\zconfig_ieee80211.c **** /**
 191:C:/Users/stapi/OneDrive/Desktop/GD32VW553/V1_MQTT_OK/GD32VW55X_Wifi_BLE_SDK/GD32VW55x_RELEASE_V1.0.2/MSDK/cloud/alicloud/src/services/awss\zconfig_ieee80211.c ****  * ieee80211_is_probe_req - check if IEEE80211_FTYPE_MGMT && IEEE80211_STYPE_PROBE_REQ
 192:C:/Users/stapi/OneDrive/Desktop/GD32VW553/V1_MQTT_OK/GD32VW55X_Wifi_BLE_SDK/GD32VW55x_RELEASE_V1.0.2/MSDK/cloud/alicloud/src/services/awss\zconfig_ieee80211.c ****  * @fc: frame control bytes in little-endian byteorder
 193:C:/Users/stapi/OneDrive/Desktop/GD32VW553/V1_MQTT_OK/GD32VW55X_Wifi_BLE_SDK/GD32VW55x_RELEASE_V1.0.2/MSDK/cloud/alicloud/src/services/awss\zconfig_ieee80211.c ****  */
 194:C:/Users/stapi/OneDrive/Desktop/GD32VW553/V1_MQTT_OK/GD32VW55X_Wifi_BLE_SDK/GD32VW55x_RELEASE_V1.0.2/MSDK/cloud/alicloud/src/services/awss\zconfig_ieee80211.c **** int ieee80211_is_probe_req(uint16_t fc)
 195:C:/Users/stapi/OneDrive/Desktop/GD32VW553/V1_MQTT_OK/GD32VW55X_Wifi_BLE_SDK/GD32VW55x_RELEASE_V1.0.2/MSDK/cloud/alicloud/src/services/awss\zconfig_ieee80211.c **** {
 196:C:/Users/stapi/OneDrive/Desktop/GD32VW553/V1_MQTT_OK/GD32VW55X_Wifi_BLE_SDK/GD32VW55x_RELEASE_V1.0.2/MSDK/cloud/alicloud/src/services/awss\zconfig_ieee80211.c ****     return (fc & os_htole16(IEEE80211_FCTL_FTYPE | IEEE80211_FCTL_STYPE)) ==
 197:C:/Users/stapi/OneDrive/Desktop/GD32VW553/V1_MQTT_OK/GD32VW55X_Wifi_BLE_SDK/GD32VW55x_RELEASE_V1.0.2/MSDK/cloud/alicloud/src/services/awss\zconfig_ieee80211.c ****            os_htole16(IEEE80211_FTYPE_MGMT | IEEE80211_STYPE_PROBE_REQ);
 198:C:/Users/stapi/OneDrive/Desktop/GD32VW553/V1_MQTT_OK/GD32VW55X_Wifi_BLE_SDK/GD32VW55x_RELEASE_V1.0.2/MSDK/cloud/alicloud/src/services/awss\zconfig_ieee80211.c **** }
 199:C:/Users/stapi/OneDrive/Desktop/GD32VW553/V1_MQTT_OK/GD32VW55X_Wifi_BLE_SDK/GD32VW55x_RELEASE_V1.0.2/MSDK/cloud/alicloud/src/services/awss\zconfig_ieee80211.c **** 
 200:C:/Users/stapi/OneDrive/Desktop/GD32VW553/V1_MQTT_OK/GD32VW55X_Wifi_BLE_SDK/GD32VW55x_RELEASE_V1.0.2/MSDK/cloud/alicloud/src/services/awss\zconfig_ieee80211.c **** /**
 201:C:/Users/stapi/OneDrive/Desktop/GD32VW553/V1_MQTT_OK/GD32VW55X_Wifi_BLE_SDK/GD32VW55x_RELEASE_V1.0.2/MSDK/cloud/alicloud/src/services/awss\zconfig_ieee80211.c ****  * ieee80211_is_probe_resp - check if IEEE80211_FTYPE_MGMT && IEEE80211_STYPE_PROBE_RESP
 202:C:/Users/stapi/OneDrive/Desktop/GD32VW553/V1_MQTT_OK/GD32VW55X_Wifi_BLE_SDK/GD32VW55x_RELEASE_V1.0.2/MSDK/cloud/alicloud/src/services/awss\zconfig_ieee80211.c ****  * @fc: frame control bytes in little-endian byteorder
 203:C:/Users/stapi/OneDrive/Desktop/GD32VW553/V1_MQTT_OK/GD32VW55X_Wifi_BLE_SDK/GD32VW55x_RELEASE_V1.0.2/MSDK/cloud/alicloud/src/services/awss\zconfig_ieee80211.c ****  */
 204:C:/Users/stapi/OneDrive/Desktop/GD32VW553/V1_MQTT_OK/GD32VW55X_Wifi_BLE_SDK/GD32VW55x_RELEASE_V1.0.2/MSDK/cloud/alicloud/src/services/awss\zconfig_ieee80211.c **** int ieee80211_is_probe_resp(uint16_t fc)
 205:C:/Users/stapi/OneDrive/Desktop/GD32VW553/V1_MQTT_OK/GD32VW55X_Wifi_BLE_SDK/GD32VW55x_RELEASE_V1.0.2/MSDK/cloud/alicloud/src/services/awss\zconfig_ieee80211.c **** {
 206:C:/Users/stapi/OneDrive/Desktop/GD32VW553/V1_MQTT_OK/GD32VW55X_Wifi_BLE_SDK/GD32VW55x_RELEASE_V1.0.2/MSDK/cloud/alicloud/src/services/awss\zconfig_ieee80211.c ****     return (fc & os_htole16(IEEE80211_FCTL_FTYPE | IEEE80211_FCTL_STYPE)) ==
 207:C:/Users/stapi/OneDrive/Desktop/GD32VW553/V1_MQTT_OK/GD32VW55X_Wifi_BLE_SDK/GD32VW55x_RELEASE_V1.0.2/MSDK/cloud/alicloud/src/services/awss\zconfig_ieee80211.c ****            os_htole16(IEEE80211_FTYPE_MGMT | IEEE80211_STYPE_PROBE_RESP);
 208:C:/Users/stapi/OneDrive/Desktop/GD32VW553/V1_MQTT_OK/GD32VW55X_Wifi_BLE_SDK/GD32VW55x_RELEASE_V1.0.2/MSDK/cloud/alicloud/src/services/awss\zconfig_ieee80211.c **** }
 209:C:/Users/stapi/OneDrive/Desktop/GD32VW553/V1_MQTT_OK/GD32VW55X_Wifi_BLE_SDK/GD32VW55x_RELEASE_V1.0.2/MSDK/cloud/alicloud/src/services/awss\zconfig_ieee80211.c **** 
 210:C:/Users/stapi/OneDrive/Desktop/GD32VW553/V1_MQTT_OK/GD32VW55X_Wifi_BLE_SDK/GD32VW55x_RELEASE_V1.0.2/MSDK/cloud/alicloud/src/services/awss\zconfig_ieee80211.c **** 
 211:C:/Users/stapi/OneDrive/Desktop/GD32VW553/V1_MQTT_OK/GD32VW55X_Wifi_BLE_SDK/GD32VW55x_RELEASE_V1.0.2/MSDK/cloud/alicloud/src/services/awss\zconfig_ieee80211.c **** /**
 212:C:/Users/stapi/OneDrive/Desktop/GD32VW553/V1_MQTT_OK/GD32VW55X_Wifi_BLE_SDK/GD32VW55x_RELEASE_V1.0.2/MSDK/cloud/alicloud/src/services/awss\zconfig_ieee80211.c ****  * ieee80211_get_SA - get pointer to SA
 213:C:/Users/stapi/OneDrive/Desktop/GD32VW553/V1_MQTT_OK/GD32VW55X_Wifi_BLE_SDK/GD32VW55x_RELEASE_V1.0.2/MSDK/cloud/alicloud/src/services/awss\zconfig_ieee80211.c ****  * @hdr: the frame
 214:C:/Users/stapi/OneDrive/Desktop/GD32VW553/V1_MQTT_OK/GD32VW55X_Wifi_BLE_SDK/GD32VW55x_RELEASE_V1.0.2/MSDK/cloud/alicloud/src/services/awss\zconfig_ieee80211.c ****  *
 215:C:/Users/stapi/OneDrive/Desktop/GD32VW553/V1_MQTT_OK/GD32VW55X_Wifi_BLE_SDK/GD32VW55x_RELEASE_V1.0.2/MSDK/cloud/alicloud/src/services/awss\zconfig_ieee80211.c ****  * Given an 802.11 frame, this function returns the offset
 216:C:/Users/stapi/OneDrive/Desktop/GD32VW553/V1_MQTT_OK/GD32VW55X_Wifi_BLE_SDK/GD32VW55x_RELEASE_V1.0.2/MSDK/cloud/alicloud/src/services/awss\zconfig_ieee80211.c ****  * to the source address (SA). It does not verify that the
 217:C:/Users/stapi/OneDrive/Desktop/GD32VW553/V1_MQTT_OK/GD32VW55X_Wifi_BLE_SDK/GD32VW55x_RELEASE_V1.0.2/MSDK/cloud/alicloud/src/services/awss\zconfig_ieee80211.c ****  * header is long enough to contain the address, and the
 218:C:/Users/stapi/OneDrive/Desktop/GD32VW553/V1_MQTT_OK/GD32VW55X_Wifi_BLE_SDK/GD32VW55x_RELEASE_V1.0.2/MSDK/cloud/alicloud/src/services/awss\zconfig_ieee80211.c ****  * header must be long enough to contain the frame control
 219:C:/Users/stapi/OneDrive/Desktop/GD32VW553/V1_MQTT_OK/GD32VW55X_Wifi_BLE_SDK/GD32VW55x_RELEASE_V1.0.2/MSDK/cloud/alicloud/src/services/awss\zconfig_ieee80211.c ****  * field.
 220:C:/Users/stapi/OneDrive/Desktop/GD32VW553/V1_MQTT_OK/GD32VW55X_Wifi_BLE_SDK/GD32VW55x_RELEASE_V1.0.2/MSDK/cloud/alicloud/src/services/awss\zconfig_ieee80211.c ****  */
 221:C:/Users/stapi/OneDrive/Desktop/GD32VW553/V1_MQTT_OK/GD32VW55X_Wifi_BLE_SDK/GD32VW55x_RELEASE_V1.0.2/MSDK/cloud/alicloud/src/services/awss\zconfig_ieee80211.c **** uint8_t *ieee80211_get_SA(struct ieee80211_hdr *hdr)
 222:C:/Users/stapi/OneDrive/Desktop/GD32VW553/V1_MQTT_OK/GD32VW55X_Wifi_BLE_SDK/GD32VW55x_RELEASE_V1.0.2/MSDK/cloud/alicloud/src/services/awss\zconfig_ieee80211.c **** {
 223:C:/Users/stapi/OneDrive/Desktop/GD32VW553/V1_MQTT_OK/GD32VW55X_Wifi_BLE_SDK/GD32VW55x_RELEASE_V1.0.2/MSDK/cloud/alicloud/src/services/awss\zconfig_ieee80211.c ****     if (ieee80211_has_a4(hdr->frame_control)) {
 224:C:/Users/stapi/OneDrive/Desktop/GD32VW553/V1_MQTT_OK/GD32VW55X_Wifi_BLE_SDK/GD32VW55x_RELEASE_V1.0.2/MSDK/cloud/alicloud/src/services/awss\zconfig_ieee80211.c ****         return hdr->addr4;
 225:C:/Users/stapi/OneDrive/Desktop/GD32VW553/V1_MQTT_OK/GD32VW55X_Wifi_BLE_SDK/GD32VW55x_RELEASE_V1.0.2/MSDK/cloud/alicloud/src/services/awss\zconfig_ieee80211.c ****     }
 226:C:/Users/stapi/OneDrive/Desktop/GD32VW553/V1_MQTT_OK/GD32VW55X_Wifi_BLE_SDK/GD32VW55x_RELEASE_V1.0.2/MSDK/cloud/alicloud/src/services/awss\zconfig_ieee80211.c ****     if (ieee80211_has_fromds(hdr->frame_control)) {
 227:C:/Users/stapi/OneDrive/Desktop/GD32VW553/V1_MQTT_OK/GD32VW55X_Wifi_BLE_SDK/GD32VW55x_RELEASE_V1.0.2/MSDK/cloud/alicloud/src/services/awss\zconfig_ieee80211.c ****         return hdr->addr3;
 228:C:/Users/stapi/OneDrive/Desktop/GD32VW553/V1_MQTT_OK/GD32VW55X_Wifi_BLE_SDK/GD32VW55x_RELEASE_V1.0.2/MSDK/cloud/alicloud/src/services/awss\zconfig_ieee80211.c ****     }
 229:C:/Users/stapi/OneDrive/Desktop/GD32VW553/V1_MQTT_OK/GD32VW55X_Wifi_BLE_SDK/GD32VW55x_RELEASE_V1.0.2/MSDK/cloud/alicloud/src/services/awss\zconfig_ieee80211.c ****     return hdr->addr2;
 230:C:/Users/stapi/OneDrive/Desktop/GD32VW553/V1_MQTT_OK/GD32VW55X_Wifi_BLE_SDK/GD32VW55x_RELEASE_V1.0.2/MSDK/cloud/alicloud/src/services/awss\zconfig_ieee80211.c **** }
 231:C:/Users/stapi/OneDrive/Desktop/GD32VW553/V1_MQTT_OK/GD32VW55X_Wifi_BLE_SDK/GD32VW55x_RELEASE_V1.0.2/MSDK/cloud/alicloud/src/services/awss\zconfig_ieee80211.c **** 
 232:C:/Users/stapi/OneDrive/Desktop/GD32VW553/V1_MQTT_OK/GD32VW55X_Wifi_BLE_SDK/GD32VW55x_RELEASE_V1.0.2/MSDK/cloud/alicloud/src/services/awss\zconfig_ieee80211.c **** /**
 233:C:/Users/stapi/OneDrive/Desktop/GD32VW553/V1_MQTT_OK/GD32VW55X_Wifi_BLE_SDK/GD32VW55x_RELEASE_V1.0.2/MSDK/cloud/alicloud/src/services/awss\zconfig_ieee80211.c ****  * ieee80211_get_DA - get pointer to DA
 234:C:/Users/stapi/OneDrive/Desktop/GD32VW553/V1_MQTT_OK/GD32VW55X_Wifi_BLE_SDK/GD32VW55x_RELEASE_V1.0.2/MSDK/cloud/alicloud/src/services/awss\zconfig_ieee80211.c ****  * @hdr: the frame
 235:C:/Users/stapi/OneDrive/Desktop/GD32VW553/V1_MQTT_OK/GD32VW55X_Wifi_BLE_SDK/GD32VW55x_RELEASE_V1.0.2/MSDK/cloud/alicloud/src/services/awss\zconfig_ieee80211.c ****  *
 236:C:/Users/stapi/OneDrive/Desktop/GD32VW553/V1_MQTT_OK/GD32VW55X_Wifi_BLE_SDK/GD32VW55x_RELEASE_V1.0.2/MSDK/cloud/alicloud/src/services/awss\zconfig_ieee80211.c ****  * Given an 802.11 frame, this function returns the offset
 237:C:/Users/stapi/OneDrive/Desktop/GD32VW553/V1_MQTT_OK/GD32VW55X_Wifi_BLE_SDK/GD32VW55x_RELEASE_V1.0.2/MSDK/cloud/alicloud/src/services/awss\zconfig_ieee80211.c ****  * to the destination address (DA). It does not verify that
 238:C:/Users/stapi/OneDrive/Desktop/GD32VW553/V1_MQTT_OK/GD32VW55X_Wifi_BLE_SDK/GD32VW55x_RELEASE_V1.0.2/MSDK/cloud/alicloud/src/services/awss\zconfig_ieee80211.c ****  * the header is long enough to contain the address, and the
 239:C:/Users/stapi/OneDrive/Desktop/GD32VW553/V1_MQTT_OK/GD32VW55X_Wifi_BLE_SDK/GD32VW55x_RELEASE_V1.0.2/MSDK/cloud/alicloud/src/services/awss\zconfig_ieee80211.c ****  * header must be long enough to contain the frame control
 240:C:/Users/stapi/OneDrive/Desktop/GD32VW553/V1_MQTT_OK/GD32VW55X_Wifi_BLE_SDK/GD32VW55x_RELEASE_V1.0.2/MSDK/cloud/alicloud/src/services/awss\zconfig_ieee80211.c ****  * field.
 241:C:/Users/stapi/OneDrive/Desktop/GD32VW553/V1_MQTT_OK/GD32VW55X_Wifi_BLE_SDK/GD32VW55x_RELEASE_V1.0.2/MSDK/cloud/alicloud/src/services/awss\zconfig_ieee80211.c ****  */
 242:C:/Users/stapi/OneDrive/Desktop/GD32VW553/V1_MQTT_OK/GD32VW55X_Wifi_BLE_SDK/GD32VW55x_RELEASE_V1.0.2/MSDK/cloud/alicloud/src/services/awss\zconfig_ieee80211.c **** uint8_t *ieee80211_get_DA(struct ieee80211_hdr *hdr)
 243:C:/Users/stapi/OneDrive/Desktop/GD32VW553/V1_MQTT_OK/GD32VW55X_Wifi_BLE_SDK/GD32VW55x_RELEASE_V1.0.2/MSDK/cloud/alicloud/src/services/awss\zconfig_ieee80211.c **** {
 244:C:/Users/stapi/OneDrive/Desktop/GD32VW553/V1_MQTT_OK/GD32VW55X_Wifi_BLE_SDK/GD32VW55x_RELEASE_V1.0.2/MSDK/cloud/alicloud/src/services/awss\zconfig_ieee80211.c ****     if (ieee80211_has_tods(hdr->frame_control)) {
 245:C:/Users/stapi/OneDrive/Desktop/GD32VW553/V1_MQTT_OK/GD32VW55X_Wifi_BLE_SDK/GD32VW55x_RELEASE_V1.0.2/MSDK/cloud/alicloud/src/services/awss\zconfig_ieee80211.c ****         return hdr->addr3;
 246:C:/Users/stapi/OneDrive/Desktop/GD32VW553/V1_MQTT_OK/GD32VW55X_Wifi_BLE_SDK/GD32VW55x_RELEASE_V1.0.2/MSDK/cloud/alicloud/src/services/awss\zconfig_ieee80211.c ****     } else {
 247:C:/Users/stapi/OneDrive/Desktop/GD32VW553/V1_MQTT_OK/GD32VW55X_Wifi_BLE_SDK/GD32VW55x_RELEASE_V1.0.2/MSDK/cloud/alicloud/src/services/awss\zconfig_ieee80211.c ****         return hdr->addr1;
 248:C:/Users/stapi/OneDrive/Desktop/GD32VW553/V1_MQTT_OK/GD32VW55X_Wifi_BLE_SDK/GD32VW55x_RELEASE_V1.0.2/MSDK/cloud/alicloud/src/services/awss\zconfig_ieee80211.c ****     }
 249:C:/Users/stapi/OneDrive/Desktop/GD32VW553/V1_MQTT_OK/GD32VW55X_Wifi_BLE_SDK/GD32VW55x_RELEASE_V1.0.2/MSDK/cloud/alicloud/src/services/awss\zconfig_ieee80211.c **** }
 250:C:/Users/stapi/OneDrive/Desktop/GD32VW553/V1_MQTT_OK/GD32VW55X_Wifi_BLE_SDK/GD32VW55x_RELEASE_V1.0.2/MSDK/cloud/alicloud/src/services/awss\zconfig_ieee80211.c **** 
 251:C:/Users/stapi/OneDrive/Desktop/GD32VW553/V1_MQTT_OK/GD32VW55X_Wifi_BLE_SDK/GD32VW55x_RELEASE_V1.0.2/MSDK/cloud/alicloud/src/services/awss\zconfig_ieee80211.c **** uint8_t *ieee80211_get_BSSID(struct ieee80211_hdr *hdr)
 252:C:/Users/stapi/OneDrive/Desktop/GD32VW553/V1_MQTT_OK/GD32VW55X_Wifi_BLE_SDK/GD32VW55x_RELEASE_V1.0.2/MSDK/cloud/alicloud/src/services/awss\zconfig_ieee80211.c **** {
 253:C:/Users/stapi/OneDrive/Desktop/GD32VW553/V1_MQTT_OK/GD32VW55X_Wifi_BLE_SDK/GD32VW55x_RELEASE_V1.0.2/MSDK/cloud/alicloud/src/services/awss\zconfig_ieee80211.c ****     if (ieee80211_has_tods(hdr->frame_control)) {
 254:C:/Users/stapi/OneDrive/Desktop/GD32VW553/V1_MQTT_OK/GD32VW55X_Wifi_BLE_SDK/GD32VW55x_RELEASE_V1.0.2/MSDK/cloud/alicloud/src/services/awss\zconfig_ieee80211.c ****         if (!ieee80211_has_fromds(hdr->frame_control)) {
 255:C:/Users/stapi/OneDrive/Desktop/GD32VW553/V1_MQTT_OK/GD32VW55X_Wifi_BLE_SDK/GD32VW55x_RELEASE_V1.0.2/MSDK/cloud/alicloud/src/services/awss\zconfig_ieee80211.c ****             return hdr->addr1;
 256:C:/Users/stapi/OneDrive/Desktop/GD32VW553/V1_MQTT_OK/GD32VW55X_Wifi_BLE_SDK/GD32VW55x_RELEASE_V1.0.2/MSDK/cloud/alicloud/src/services/awss\zconfig_ieee80211.c ****         } else {
 257:C:/Users/stapi/OneDrive/Desktop/GD32VW553/V1_MQTT_OK/GD32VW55X_Wifi_BLE_SDK/GD32VW55x_RELEASE_V1.0.2/MSDK/cloud/alicloud/src/services/awss\zconfig_ieee80211.c ****             return NULL;
 258:C:/Users/stapi/OneDrive/Desktop/GD32VW553/V1_MQTT_OK/GD32VW55X_Wifi_BLE_SDK/GD32VW55x_RELEASE_V1.0.2/MSDK/cloud/alicloud/src/services/awss\zconfig_ieee80211.c ****         }
 259:C:/Users/stapi/OneDrive/Desktop/GD32VW553/V1_MQTT_OK/GD32VW55X_Wifi_BLE_SDK/GD32VW55x_RELEASE_V1.0.2/MSDK/cloud/alicloud/src/services/awss\zconfig_ieee80211.c ****     } else {
 260:C:/Users/stapi/OneDrive/Desktop/GD32VW553/V1_MQTT_OK/GD32VW55X_Wifi_BLE_SDK/GD32VW55x_RELEASE_V1.0.2/MSDK/cloud/alicloud/src/services/awss\zconfig_ieee80211.c ****         if (ieee80211_has_fromds(hdr->frame_control)) {
 261:C:/Users/stapi/OneDrive/Desktop/GD32VW553/V1_MQTT_OK/GD32VW55X_Wifi_BLE_SDK/GD32VW55x_RELEASE_V1.0.2/MSDK/cloud/alicloud/src/services/awss\zconfig_ieee80211.c ****             return hdr->addr2;
 262:C:/Users/stapi/OneDrive/Desktop/GD32VW553/V1_MQTT_OK/GD32VW55X_Wifi_BLE_SDK/GD32VW55x_RELEASE_V1.0.2/MSDK/cloud/alicloud/src/services/awss\zconfig_ieee80211.c ****         } else {
 263:C:/Users/stapi/OneDrive/Desktop/GD32VW553/V1_MQTT_OK/GD32VW55X_Wifi_BLE_SDK/GD32VW55x_RELEASE_V1.0.2/MSDK/cloud/alicloud/src/services/awss\zconfig_ieee80211.c ****             return hdr->addr3;
 264:C:/Users/stapi/OneDrive/Desktop/GD32VW553/V1_MQTT_OK/GD32VW55X_Wifi_BLE_SDK/GD32VW55x_RELEASE_V1.0.2/MSDK/cloud/alicloud/src/services/awss\zconfig_ieee80211.c ****         }
 265:C:/Users/stapi/OneDrive/Desktop/GD32VW553/V1_MQTT_OK/GD32VW55X_Wifi_BLE_SDK/GD32VW55x_RELEASE_V1.0.2/MSDK/cloud/alicloud/src/services/awss\zconfig_ieee80211.c ****     }
 266:C:/Users/stapi/OneDrive/Desktop/GD32VW553/V1_MQTT_OK/GD32VW55X_Wifi_BLE_SDK/GD32VW55x_RELEASE_V1.0.2/MSDK/cloud/alicloud/src/services/awss\zconfig_ieee80211.c **** }
 267:C:/Users/stapi/OneDrive/Desktop/GD32VW553/V1_MQTT_OK/GD32VW55X_Wifi_BLE_SDK/GD32VW55x_RELEASE_V1.0.2/MSDK/cloud/alicloud/src/services/awss\zconfig_ieee80211.c **** 
 268:C:/Users/stapi/OneDrive/Desktop/GD32VW553/V1_MQTT_OK/GD32VW55X_Wifi_BLE_SDK/GD32VW55x_RELEASE_V1.0.2/MSDK/cloud/alicloud/src/services/awss\zconfig_ieee80211.c **** int ieee80211_get_bssid(uint8_t *in, uint8_t *mac)
 269:C:/Users/stapi/OneDrive/Desktop/GD32VW553/V1_MQTT_OK/GD32VW55X_Wifi_BLE_SDK/GD32VW55x_RELEASE_V1.0.2/MSDK/cloud/alicloud/src/services/awss\zconfig_ieee80211.c **** {
 270:C:/Users/stapi/OneDrive/Desktop/GD32VW553/V1_MQTT_OK/GD32VW55X_Wifi_BLE_SDK/GD32VW55x_RELEASE_V1.0.2/MSDK/cloud/alicloud/src/services/awss\zconfig_ieee80211.c ****     uint8_t *bssid = ieee80211_get_BSSID((struct ieee80211_hdr *)in);
 271:C:/Users/stapi/OneDrive/Desktop/GD32VW553/V1_MQTT_OK/GD32VW55X_Wifi_BLE_SDK/GD32VW55x_RELEASE_V1.0.2/MSDK/cloud/alicloud/src/services/awss\zconfig_ieee80211.c **** 
 272:C:/Users/stapi/OneDrive/Desktop/GD32VW553/V1_MQTT_OK/GD32VW55X_Wifi_BLE_SDK/GD32VW55x_RELEASE_V1.0.2/MSDK/cloud/alicloud/src/services/awss\zconfig_ieee80211.c ****     if (bssid) {
 273:C:/Users/stapi/OneDrive/Desktop/GD32VW553/V1_MQTT_OK/GD32VW55X_Wifi_BLE_SDK/GD32VW55x_RELEASE_V1.0.2/MSDK/cloud/alicloud/src/services/awss\zconfig_ieee80211.c ****         memcpy(mac, bssid, ETH_ALEN);
 274:C:/Users/stapi/OneDrive/Desktop/GD32VW553/V1_MQTT_OK/GD32VW55X_Wifi_BLE_SDK/GD32VW55x_RELEASE_V1.0.2/MSDK/cloud/alicloud/src/services/awss\zconfig_ieee80211.c ****     } else {
 275:C:/Users/stapi/OneDrive/Desktop/GD32VW553/V1_MQTT_OK/GD32VW55X_Wifi_BLE_SDK/GD32VW55x_RELEASE_V1.0.2/MSDK/cloud/alicloud/src/services/awss\zconfig_ieee80211.c ****         return -1;
 276:C:/Users/stapi/OneDrive/Desktop/GD32VW553/V1_MQTT_OK/GD32VW55X_Wifi_BLE_SDK/GD32VW55x_RELEASE_V1.0.2/MSDK/cloud/alicloud/src/services/awss\zconfig_ieee80211.c ****     }
 277:C:/Users/stapi/OneDrive/Desktop/GD32VW553/V1_MQTT_OK/GD32VW55X_Wifi_BLE_SDK/GD32VW55x_RELEASE_V1.0.2/MSDK/cloud/alicloud/src/services/awss\zconfig_ieee80211.c **** 
 278:C:/Users/stapi/OneDrive/Desktop/GD32VW553/V1_MQTT_OK/GD32VW55X_Wifi_BLE_SDK/GD32VW55x_RELEASE_V1.0.2/MSDK/cloud/alicloud/src/services/awss\zconfig_ieee80211.c ****     return 0;
 279:C:/Users/stapi/OneDrive/Desktop/GD32VW553/V1_MQTT_OK/GD32VW55X_Wifi_BLE_SDK/GD32VW55x_RELEASE_V1.0.2/MSDK/cloud/alicloud/src/services/awss\zconfig_ieee80211.c **** }
 280:C:/Users/stapi/OneDrive/Desktop/GD32VW553/V1_MQTT_OK/GD32VW55X_Wifi_BLE_SDK/GD32VW55x_RELEASE_V1.0.2/MSDK/cloud/alicloud/src/services/awss\zconfig_ieee80211.c **** 
 281:C:/Users/stapi/OneDrive/Desktop/GD32VW553/V1_MQTT_OK/GD32VW55X_Wifi_BLE_SDK/GD32VW55x_RELEASE_V1.0.2/MSDK/cloud/alicloud/src/services/awss\zconfig_ieee80211.c **** int ieee80211_has_frags(uint16_t fc)
 282:C:/Users/stapi/OneDrive/Desktop/GD32VW553/V1_MQTT_OK/GD32VW55X_Wifi_BLE_SDK/GD32VW55x_RELEASE_V1.0.2/MSDK/cloud/alicloud/src/services/awss\zconfig_ieee80211.c **** {
 283:C:/Users/stapi/OneDrive/Desktop/GD32VW553/V1_MQTT_OK/GD32VW55X_Wifi_BLE_SDK/GD32VW55x_RELEASE_V1.0.2/MSDK/cloud/alicloud/src/services/awss\zconfig_ieee80211.c ****     uint16_t tmp = fc & os_htole16(IEEE80211_FCTL_MOREFRAGS | IEEE80211_FCTL_ORDER);
 284:C:/Users/stapi/OneDrive/Desktop/GD32VW553/V1_MQTT_OK/GD32VW55X_Wifi_BLE_SDK/GD32VW55x_RELEASE_V1.0.2/MSDK/cloud/alicloud/src/services/awss\zconfig_ieee80211.c **** 
 285:C:/Users/stapi/OneDrive/Desktop/GD32VW553/V1_MQTT_OK/GD32VW55X_Wifi_BLE_SDK/GD32VW55x_RELEASE_V1.0.2/MSDK/cloud/alicloud/src/services/awss\zconfig_ieee80211.c ****     return !!tmp;
 286:C:/Users/stapi/OneDrive/Desktop/GD32VW553/V1_MQTT_OK/GD32VW55X_Wifi_BLE_SDK/GD32VW55x_RELEASE_V1.0.2/MSDK/cloud/alicloud/src/services/awss\zconfig_ieee80211.c **** }
 287:C:/Users/stapi/OneDrive/Desktop/GD32VW553/V1_MQTT_OK/GD32VW55X_Wifi_BLE_SDK/GD32VW55x_RELEASE_V1.0.2/MSDK/cloud/alicloud/src/services/awss\zconfig_ieee80211.c **** 
 288:C:/Users/stapi/OneDrive/Desktop/GD32VW553/V1_MQTT_OK/GD32VW55X_Wifi_BLE_SDK/GD32VW55x_RELEASE_V1.0.2/MSDK/cloud/alicloud/src/services/awss\zconfig_ieee80211.c **** //DATA:        24B
 289:C:/Users/stapi/OneDrive/Desktop/GD32VW553/V1_MQTT_OK/GD32VW55X_Wifi_BLE_SDK/GD32VW55x_RELEASE_V1.0.2/MSDK/cloud/alicloud/src/services/awss\zconfig_ieee80211.c **** //QOS-DATA:    26B
 290:C:/Users/stapi/OneDrive/Desktop/GD32VW553/V1_MQTT_OK/GD32VW55X_Wifi_BLE_SDK/GD32VW55x_RELEASE_V1.0.2/MSDK/cloud/alicloud/src/services/awss\zconfig_ieee80211.c **** int ieee80211_hdrlen(uint16_t fc)
 291:C:/Users/stapi/OneDrive/Desktop/GD32VW553/V1_MQTT_OK/GD32VW55X_Wifi_BLE_SDK/GD32VW55x_RELEASE_V1.0.2/MSDK/cloud/alicloud/src/services/awss\zconfig_ieee80211.c **** {
 292:C:/Users/stapi/OneDrive/Desktop/GD32VW553/V1_MQTT_OK/GD32VW55X_Wifi_BLE_SDK/GD32VW55x_RELEASE_V1.0.2/MSDK/cloud/alicloud/src/services/awss\zconfig_ieee80211.c ****     uint32_t hdrlen = 24;
 293:C:/Users/stapi/OneDrive/Desktop/GD32VW553/V1_MQTT_OK/GD32VW55X_Wifi_BLE_SDK/GD32VW55x_RELEASE_V1.0.2/MSDK/cloud/alicloud/src/services/awss\zconfig_ieee80211.c **** 
 294:C:/Users/stapi/OneDrive/Desktop/GD32VW553/V1_MQTT_OK/GD32VW55X_Wifi_BLE_SDK/GD32VW55x_RELEASE_V1.0.2/MSDK/cloud/alicloud/src/services/awss\zconfig_ieee80211.c ****     if (ieee80211_is_data(fc)) {
 295:C:/Users/stapi/OneDrive/Desktop/GD32VW553/V1_MQTT_OK/GD32VW55X_Wifi_BLE_SDK/GD32VW55x_RELEASE_V1.0.2/MSDK/cloud/alicloud/src/services/awss\zconfig_ieee80211.c ****         if (ieee80211_has_a4(fc)) {
 296:C:/Users/stapi/OneDrive/Desktop/GD32VW553/V1_MQTT_OK/GD32VW55X_Wifi_BLE_SDK/GD32VW55x_RELEASE_V1.0.2/MSDK/cloud/alicloud/src/services/awss\zconfig_ieee80211.c ****             hdrlen = 30;
 297:C:/Users/stapi/OneDrive/Desktop/GD32VW553/V1_MQTT_OK/GD32VW55X_Wifi_BLE_SDK/GD32VW55x_RELEASE_V1.0.2/MSDK/cloud/alicloud/src/services/awss\zconfig_ieee80211.c ****         }
 298:C:/Users/stapi/OneDrive/Desktop/GD32VW553/V1_MQTT_OK/GD32VW55X_Wifi_BLE_SDK/GD32VW55x_RELEASE_V1.0.2/MSDK/cloud/alicloud/src/services/awss\zconfig_ieee80211.c ****         if (ieee80211_is_data_qos(fc)) {
 299:C:/Users/stapi/OneDrive/Desktop/GD32VW553/V1_MQTT_OK/GD32VW55X_Wifi_BLE_SDK/GD32VW55x_RELEASE_V1.0.2/MSDK/cloud/alicloud/src/services/awss\zconfig_ieee80211.c ****             hdrlen += IEEE80211_QOS_CTL_LEN;
 300:C:/Users/stapi/OneDrive/Desktop/GD32VW553/V1_MQTT_OK/GD32VW55X_Wifi_BLE_SDK/GD32VW55x_RELEASE_V1.0.2/MSDK/cloud/alicloud/src/services/awss\zconfig_ieee80211.c ****             if (ieee80211_has_order(fc)) {
 301:C:/Users/stapi/OneDrive/Desktop/GD32VW553/V1_MQTT_OK/GD32VW55X_Wifi_BLE_SDK/GD32VW55x_RELEASE_V1.0.2/MSDK/cloud/alicloud/src/services/awss\zconfig_ieee80211.c ****                 hdrlen += IEEE80211_HT_CTL_LEN;
 302:C:/Users/stapi/OneDrive/Desktop/GD32VW553/V1_MQTT_OK/GD32VW55X_Wifi_BLE_SDK/GD32VW55x_RELEASE_V1.0.2/MSDK/cloud/alicloud/src/services/awss\zconfig_ieee80211.c ****             }
 303:C:/Users/stapi/OneDrive/Desktop/GD32VW553/V1_MQTT_OK/GD32VW55X_Wifi_BLE_SDK/GD32VW55x_RELEASE_V1.0.2/MSDK/cloud/alicloud/src/services/awss\zconfig_ieee80211.c ****         }
 304:C:/Users/stapi/OneDrive/Desktop/GD32VW553/V1_MQTT_OK/GD32VW55X_Wifi_BLE_SDK/GD32VW55x_RELEASE_V1.0.2/MSDK/cloud/alicloud/src/services/awss\zconfig_ieee80211.c ****         goto out;
 305:C:/Users/stapi/OneDrive/Desktop/GD32VW553/V1_MQTT_OK/GD32VW55X_Wifi_BLE_SDK/GD32VW55x_RELEASE_V1.0.2/MSDK/cloud/alicloud/src/services/awss\zconfig_ieee80211.c ****     }
 306:C:/Users/stapi/OneDrive/Desktop/GD32VW553/V1_MQTT_OK/GD32VW55X_Wifi_BLE_SDK/GD32VW55x_RELEASE_V1.0.2/MSDK/cloud/alicloud/src/services/awss\zconfig_ieee80211.c **** 
 307:C:/Users/stapi/OneDrive/Desktop/GD32VW553/V1_MQTT_OK/GD32VW55X_Wifi_BLE_SDK/GD32VW55x_RELEASE_V1.0.2/MSDK/cloud/alicloud/src/services/awss\zconfig_ieee80211.c ****     if (ieee80211_is_ctl(fc)) {
 308:C:/Users/stapi/OneDrive/Desktop/GD32VW553/V1_MQTT_OK/GD32VW55X_Wifi_BLE_SDK/GD32VW55x_RELEASE_V1.0.2/MSDK/cloud/alicloud/src/services/awss\zconfig_ieee80211.c ****         /*
 309:C:/Users/stapi/OneDrive/Desktop/GD32VW553/V1_MQTT_OK/GD32VW55X_Wifi_BLE_SDK/GD32VW55x_RELEASE_V1.0.2/MSDK/cloud/alicloud/src/services/awss\zconfig_ieee80211.c ****          * ACK and CTS are 10 bytes, all others 16. To see how
 310:C:/Users/stapi/OneDrive/Desktop/GD32VW553/V1_MQTT_OK/GD32VW55X_Wifi_BLE_SDK/GD32VW55x_RELEASE_V1.0.2/MSDK/cloud/alicloud/src/services/awss\zconfig_ieee80211.c ****          * to get this condition consider
 311:C:/Users/stapi/OneDrive/Desktop/GD32VW553/V1_MQTT_OK/GD32VW55X_Wifi_BLE_SDK/GD32VW55x_RELEASE_V1.0.2/MSDK/cloud/alicloud/src/services/awss\zconfig_ieee80211.c ****          *   subtype mask:   0b0000000011110000 (0x00F0)
 312:C:/Users/stapi/OneDrive/Desktop/GD32VW553/V1_MQTT_OK/GD32VW55X_Wifi_BLE_SDK/GD32VW55x_RELEASE_V1.0.2/MSDK/cloud/alicloud/src/services/awss\zconfig_ieee80211.c ****          *   ACK subtype:    0b0000000011010000 (0x00D0)
 313:C:/Users/stapi/OneDrive/Desktop/GD32VW553/V1_MQTT_OK/GD32VW55X_Wifi_BLE_SDK/GD32VW55x_RELEASE_V1.0.2/MSDK/cloud/alicloud/src/services/awss\zconfig_ieee80211.c ****          *   CTS subtype:    0b0000000011000000 (0x00C0)
 314:C:/Users/stapi/OneDrive/Desktop/GD32VW553/V1_MQTT_OK/GD32VW55X_Wifi_BLE_SDK/GD32VW55x_RELEASE_V1.0.2/MSDK/cloud/alicloud/src/services/awss\zconfig_ieee80211.c ****          *   bits that matter:         ^^^      (0x00E0)
 315:C:/Users/stapi/OneDrive/Desktop/GD32VW553/V1_MQTT_OK/GD32VW55X_Wifi_BLE_SDK/GD32VW55x_RELEASE_V1.0.2/MSDK/cloud/alicloud/src/services/awss\zconfig_ieee80211.c ****          *   value of those: 0b0000000011000000 (0x00C0)
 316:C:/Users/stapi/OneDrive/Desktop/GD32VW553/V1_MQTT_OK/GD32VW55X_Wifi_BLE_SDK/GD32VW55x_RELEASE_V1.0.2/MSDK/cloud/alicloud/src/services/awss\zconfig_ieee80211.c ****          */
 317:C:/Users/stapi/OneDrive/Desktop/GD32VW553/V1_MQTT_OK/GD32VW55X_Wifi_BLE_SDK/GD32VW55x_RELEASE_V1.0.2/MSDK/cloud/alicloud/src/services/awss\zconfig_ieee80211.c ****         if ((fc & os_htole16(0x00E0)) == os_htole16(0x00C0)) {
 318:C:/Users/stapi/OneDrive/Desktop/GD32VW553/V1_MQTT_OK/GD32VW55X_Wifi_BLE_SDK/GD32VW55x_RELEASE_V1.0.2/MSDK/cloud/alicloud/src/services/awss\zconfig_ieee80211.c ****             hdrlen = 10;
 319:C:/Users/stapi/OneDrive/Desktop/GD32VW553/V1_MQTT_OK/GD32VW55X_Wifi_BLE_SDK/GD32VW55x_RELEASE_V1.0.2/MSDK/cloud/alicloud/src/services/awss\zconfig_ieee80211.c ****         } else {
 320:C:/Users/stapi/OneDrive/Desktop/GD32VW553/V1_MQTT_OK/GD32VW55X_Wifi_BLE_SDK/GD32VW55x_RELEASE_V1.0.2/MSDK/cloud/alicloud/src/services/awss\zconfig_ieee80211.c ****             hdrlen = 16;
 321:C:/Users/stapi/OneDrive/Desktop/GD32VW553/V1_MQTT_OK/GD32VW55X_Wifi_BLE_SDK/GD32VW55x_RELEASE_V1.0.2/MSDK/cloud/alicloud/src/services/awss\zconfig_ieee80211.c ****         }
 322:C:/Users/stapi/OneDrive/Desktop/GD32VW553/V1_MQTT_OK/GD32VW55X_Wifi_BLE_SDK/GD32VW55x_RELEASE_V1.0.2/MSDK/cloud/alicloud/src/services/awss\zconfig_ieee80211.c ****     }
 323:C:/Users/stapi/OneDrive/Desktop/GD32VW553/V1_MQTT_OK/GD32VW55X_Wifi_BLE_SDK/GD32VW55x_RELEASE_V1.0.2/MSDK/cloud/alicloud/src/services/awss\zconfig_ieee80211.c **** 
 324:C:/Users/stapi/OneDrive/Desktop/GD32VW553/V1_MQTT_OK/GD32VW55X_Wifi_BLE_SDK/GD32VW55x_RELEASE_V1.0.2/MSDK/cloud/alicloud/src/services/awss\zconfig_ieee80211.c **** out:
 325:C:/Users/stapi/OneDrive/Desktop/GD32VW553/V1_MQTT_OK/GD32VW55X_Wifi_BLE_SDK/GD32VW55x_RELEASE_V1.0.2/MSDK/cloud/alicloud/src/services/awss\zconfig_ieee80211.c ****     return hdrlen;
 326:C:/Users/stapi/OneDrive/Desktop/GD32VW553/V1_MQTT_OK/GD32VW55X_Wifi_BLE_SDK/GD32VW55x_RELEASE_V1.0.2/MSDK/cloud/alicloud/src/services/awss\zconfig_ieee80211.c **** }
 327:C:/Users/stapi/OneDrive/Desktop/GD32VW553/V1_MQTT_OK/GD32VW55X_Wifi_BLE_SDK/GD32VW55x_RELEASE_V1.0.2/MSDK/cloud/alicloud/src/services/awss\zconfig_ieee80211.c **** 
 328:C:/Users/stapi/OneDrive/Desktop/GD32VW553/V1_MQTT_OK/GD32VW55X_Wifi_BLE_SDK/GD32VW55x_RELEASE_V1.0.2/MSDK/cloud/alicloud/src/services/awss\zconfig_ieee80211.c **** /* helpers */
 329:C:/Users/stapi/OneDrive/Desktop/GD32VW553/V1_MQTT_OK/GD32VW55X_Wifi_BLE_SDK/GD32VW55x_RELEASE_V1.0.2/MSDK/cloud/alicloud/src/services/awss\zconfig_ieee80211.c **** int ieee80211_get_radiotap_len(uint8_t *data)
 330:C:/Users/stapi/OneDrive/Desktop/GD32VW553/V1_MQTT_OK/GD32VW55X_Wifi_BLE_SDK/GD32VW55x_RELEASE_V1.0.2/MSDK/cloud/alicloud/src/services/awss\zconfig_ieee80211.c **** {
 331:C:/Users/stapi/OneDrive/Desktop/GD32VW553/V1_MQTT_OK/GD32VW55X_Wifi_BLE_SDK/GD32VW55x_RELEASE_V1.0.2/MSDK/cloud/alicloud/src/services/awss\zconfig_ieee80211.c ****     struct ieee80211_radiotap_header *hdr =
 332:C:/Users/stapi/OneDrive/Desktop/GD32VW553/V1_MQTT_OK/GD32VW55X_Wifi_BLE_SDK/GD32VW55x_RELEASE_V1.0.2/MSDK/cloud/alicloud/src/services/awss\zconfig_ieee80211.c ****                 (struct ieee80211_radiotap_header *)data;
 333:C:/Users/stapi/OneDrive/Desktop/GD32VW553/V1_MQTT_OK/GD32VW55X_Wifi_BLE_SDK/GD32VW55x_RELEASE_V1.0.2/MSDK/cloud/alicloud/src/services/awss\zconfig_ieee80211.c **** 
 334:C:/Users/stapi/OneDrive/Desktop/GD32VW553/V1_MQTT_OK/GD32VW55X_Wifi_BLE_SDK/GD32VW55x_RELEASE_V1.0.2/MSDK/cloud/alicloud/src/services/awss\zconfig_ieee80211.c ****     return os_get_unaligned_le16((uint8_t *)&hdr->it_len);
 335:C:/Users/stapi/OneDrive/Desktop/GD32VW553/V1_MQTT_OK/GD32VW55X_Wifi_BLE_SDK/GD32VW55x_RELEASE_V1.0.2/MSDK/cloud/alicloud/src/services/awss\zconfig_ieee80211.c **** }
 336:C:/Users/stapi/OneDrive/Desktop/GD32VW553/V1_MQTT_OK/GD32VW55X_Wifi_BLE_SDK/GD32VW55x_RELEASE_V1.0.2/MSDK/cloud/alicloud/src/services/awss\zconfig_ieee80211.c **** 
 337:C:/Users/stapi/OneDrive/Desktop/GD32VW553/V1_MQTT_OK/GD32VW55X_Wifi_BLE_SDK/GD32VW55x_RELEASE_V1.0.2/MSDK/cloud/alicloud/src/services/awss\zconfig_ieee80211.c **** /*
 338:C:/Users/stapi/OneDrive/Desktop/GD32VW553/V1_MQTT_OK/GD32VW55X_Wifi_BLE_SDK/GD32VW55x_RELEASE_V1.0.2/MSDK/cloud/alicloud/src/services/awss\zconfig_ieee80211.c ****     pkt_data & pkt_length:
 339:C:/Users/stapi/OneDrive/Desktop/GD32VW553/V1_MQTT_OK/GD32VW55X_Wifi_BLE_SDK/GD32VW55x_RELEASE_V1.0.2/MSDK/cloud/alicloud/src/services/awss\zconfig_ieee80211.c ****         radio_hdr + 80211 hdr + payload, without fcs(4B)
 340:C:/Users/stapi/OneDrive/Desktop/GD32VW553/V1_MQTT_OK/GD32VW55X_Wifi_BLE_SDK/GD32VW55x_RELEASE_V1.0.2/MSDK/cloud/alicloud/src/services/awss\zconfig_ieee80211.c ****     return:
 341:C:/Users/stapi/OneDrive/Desktop/GD32VW553/V1_MQTT_OK/GD32VW55X_Wifi_BLE_SDK/GD32VW55x_RELEASE_V1.0.2/MSDK/cloud/alicloud/src/services/awss\zconfig_ieee80211.c ****         PKG_INVALID -- invalid pkt,
 342:C:/Users/stapi/OneDrive/Desktop/GD32VW553/V1_MQTT_OK/GD32VW55X_Wifi_BLE_SDK/GD32VW55x_RELEASE_V1.0.2/MSDK/cloud/alicloud/src/services/awss\zconfig_ieee80211.c ****         PKG_START_FRAME -- start frame,
 343:C:/Users/stapi/OneDrive/Desktop/GD32VW553/V1_MQTT_OK/GD32VW55X_Wifi_BLE_SDK/GD32VW55x_RELEASE_V1.0.2/MSDK/cloud/alicloud/src/services/awss\zconfig_ieee80211.c ****         PKG_DATA_FRAME -- data frame,
 344:C:/Users/stapi/OneDrive/Desktop/GD32VW553/V1_MQTT_OK/GD32VW55X_Wifi_BLE_SDK/GD32VW55x_RELEASE_V1.0.2/MSDK/cloud/alicloud/src/services/awss\zconfig_ieee80211.c ****         PKG_ALINK_ROUTER -- alink router,
 345:C:/Users/stapi/OneDrive/Desktop/GD32VW553/V1_MQTT_OK/GD32VW55X_Wifi_BLE_SDK/GD32VW55x_RELEASE_V1.0.2/MSDK/cloud/alicloud/src/services/awss\zconfig_ieee80211.c ****         PKG_GROUP_FRAME -- group frame,
 346:C:/Users/stapi/OneDrive/Desktop/GD32VW553/V1_MQTT_OK/GD32VW55X_Wifi_BLE_SDK/GD32VW55x_RELEASE_V1.0.2/MSDK/cloud/alicloud/src/services/awss\zconfig_ieee80211.c ****         PKG_BC_FRAME -- broadcast frame
 347:C:/Users/stapi/OneDrive/Desktop/GD32VW553/V1_MQTT_OK/GD32VW55X_Wifi_BLE_SDK/GD32VW55x_RELEASE_V1.0.2/MSDK/cloud/alicloud/src/services/awss\zconfig_ieee80211.c **** */
 348:C:/Users/stapi/OneDrive/Desktop/GD32VW553/V1_MQTT_OK/GD32VW55X_Wifi_BLE_SDK/GD32VW55x_RELEASE_V1.0.2/MSDK/cloud/alicloud/src/services/awss\zconfig_ieee80211.c **** int ieee80211_is_invalid_pkg(void *pkt_data, uint32_t pkt_length)
 349:C:/Users/stapi/OneDrive/Desktop/GD32VW553/V1_MQTT_OK/GD32VW55X_Wifi_BLE_SDK/GD32VW55x_RELEASE_V1.0.2/MSDK/cloud/alicloud/src/services/awss\zconfig_ieee80211.c **** {
 350:C:/Users/stapi/OneDrive/Desktop/GD32VW553/V1_MQTT_OK/GD32VW55X_Wifi_BLE_SDK/GD32VW55x_RELEASE_V1.0.2/MSDK/cloud/alicloud/src/services/awss\zconfig_ieee80211.c **** #define MIN_PKG         (33)
 351:C:/Users/stapi/OneDrive/Desktop/GD32VW553/V1_MQTT_OK/GD32VW55X_Wifi_BLE_SDK/GD32VW55x_RELEASE_V1.0.2/MSDK/cloud/alicloud/src/services/awss\zconfig_ieee80211.c **** #define MAX_PKG         (1480 + 56 + 200)
 352:C:/Users/stapi/OneDrive/Desktop/GD32VW553/V1_MQTT_OK/GD32VW55X_Wifi_BLE_SDK/GD32VW55x_RELEASE_V1.0.2/MSDK/cloud/alicloud/src/services/awss\zconfig_ieee80211.c ****     if (pkt_length < MIN_PKG || pkt_length > MAX_PKG) {
 353:C:/Users/stapi/OneDrive/Desktop/GD32VW553/V1_MQTT_OK/GD32VW55X_Wifi_BLE_SDK/GD32VW55x_RELEASE_V1.0.2/MSDK/cloud/alicloud/src/services/awss\zconfig_ieee80211.c ****         return 1;
 354:C:/Users/stapi/OneDrive/Desktop/GD32VW553/V1_MQTT_OK/GD32VW55X_Wifi_BLE_SDK/GD32VW55x_RELEASE_V1.0.2/MSDK/cloud/alicloud/src/services/awss\zconfig_ieee80211.c ****     }
 355:C:/Users/stapi/OneDrive/Desktop/GD32VW553/V1_MQTT_OK/GD32VW55X_Wifi_BLE_SDK/GD32VW55x_RELEASE_V1.0.2/MSDK/cloud/alicloud/src/services/awss\zconfig_ieee80211.c ****     return 0;
 356:C:/Users/stapi/OneDrive/Desktop/GD32VW553/V1_MQTT_OK/GD32VW55X_Wifi_BLE_SDK/GD32VW55x_RELEASE_V1.0.2/MSDK/cloud/alicloud/src/services/awss\zconfig_ieee80211.c **** }
 357:C:/Users/stapi/OneDrive/Desktop/GD32VW553/V1_MQTT_OK/GD32VW55X_Wifi_BLE_SDK/GD32VW55x_RELEASE_V1.0.2/MSDK/cloud/alicloud/src/services/awss\zconfig_ieee80211.c **** 
 358:C:/Users/stapi/OneDrive/Desktop/GD32VW553/V1_MQTT_OK/GD32VW55X_Wifi_BLE_SDK/GD32VW55x_RELEASE_V1.0.2/MSDK/cloud/alicloud/src/services/awss\zconfig_ieee80211.c **** const uint8_t *cfg80211_find_ie(uint8_t eid, const uint8_t *ies, int len)
 359:C:/Users/stapi/OneDrive/Desktop/GD32VW553/V1_MQTT_OK/GD32VW55X_Wifi_BLE_SDK/GD32VW55x_RELEASE_V1.0.2/MSDK/cloud/alicloud/src/services/awss\zconfig_ieee80211.c **** {
 360:C:/Users/stapi/OneDrive/Desktop/GD32VW553/V1_MQTT_OK/GD32VW55X_Wifi_BLE_SDK/GD32VW55x_RELEASE_V1.0.2/MSDK/cloud/alicloud/src/services/awss\zconfig_ieee80211.c ****     while (len > 2 && ies[0] != eid) {
 361:C:/Users/stapi/OneDrive/Desktop/GD32VW553/V1_MQTT_OK/GD32VW55X_Wifi_BLE_SDK/GD32VW55x_RELEASE_V1.0.2/MSDK/cloud/alicloud/src/services/awss\zconfig_ieee80211.c ****         len -= ies[1] + 2;
 362:C:/Users/stapi/OneDrive/Desktop/GD32VW553/V1_MQTT_OK/GD32VW55X_Wifi_BLE_SDK/GD32VW55x_RELEASE_V1.0.2/MSDK/cloud/alicloud/src/services/awss\zconfig_ieee80211.c ****         ies += ies[1] + 2;
 363:C:/Users/stapi/OneDrive/Desktop/GD32VW553/V1_MQTT_OK/GD32VW55X_Wifi_BLE_SDK/GD32VW55x_RELEASE_V1.0.2/MSDK/cloud/alicloud/src/services/awss\zconfig_ieee80211.c ****     }
 364:C:/Users/stapi/OneDrive/Desktop/GD32VW553/V1_MQTT_OK/GD32VW55X_Wifi_BLE_SDK/GD32VW55x_RELEASE_V1.0.2/MSDK/cloud/alicloud/src/services/awss\zconfig_ieee80211.c ****     if (len < 2) {
 365:C:/Users/stapi/OneDrive/Desktop/GD32VW553/V1_MQTT_OK/GD32VW55X_Wifi_BLE_SDK/GD32VW55x_RELEASE_V1.0.2/MSDK/cloud/alicloud/src/services/awss\zconfig_ieee80211.c ****         return NULL;
 366:C:/Users/stapi/OneDrive/Desktop/GD32VW553/V1_MQTT_OK/GD32VW55X_Wifi_BLE_SDK/GD32VW55x_RELEASE_V1.0.2/MSDK/cloud/alicloud/src/services/awss\zconfig_ieee80211.c ****     }
 367:C:/Users/stapi/OneDrive/Desktop/GD32VW553/V1_MQTT_OK/GD32VW55X_Wifi_BLE_SDK/GD32VW55x_RELEASE_V1.0.2/MSDK/cloud/alicloud/src/services/awss\zconfig_ieee80211.c ****     if (len < 2 + ies[1]) {
 368:C:/Users/stapi/OneDrive/Desktop/GD32VW553/V1_MQTT_OK/GD32VW55X_Wifi_BLE_SDK/GD32VW55x_RELEASE_V1.0.2/MSDK/cloud/alicloud/src/services/awss\zconfig_ieee80211.c ****         return NULL;
 369:C:/Users/stapi/OneDrive/Desktop/GD32VW553/V1_MQTT_OK/GD32VW55X_Wifi_BLE_SDK/GD32VW55x_RELEASE_V1.0.2/MSDK/cloud/alicloud/src/services/awss\zconfig_ieee80211.c ****     }
 370:C:/Users/stapi/OneDrive/Desktop/GD32VW553/V1_MQTT_OK/GD32VW55X_Wifi_BLE_SDK/GD32VW55x_RELEASE_V1.0.2/MSDK/cloud/alicloud/src/services/awss\zconfig_ieee80211.c ****     return ies;
 371:C:/Users/stapi/OneDrive/Desktop/GD32VW553/V1_MQTT_OK/GD32VW55X_Wifi_BLE_SDK/GD32VW55x_RELEASE_V1.0.2/MSDK/cloud/alicloud/src/services/awss\zconfig_ieee80211.c **** }
 372:C:/Users/stapi/OneDrive/Desktop/GD32VW553/V1_MQTT_OK/GD32VW55X_Wifi_BLE_SDK/GD32VW55x_RELEASE_V1.0.2/MSDK/cloud/alicloud/src/services/awss\zconfig_ieee80211.c **** 
 373:C:/Users/stapi/OneDrive/Desktop/GD32VW553/V1_MQTT_OK/GD32VW55X_Wifi_BLE_SDK/GD32VW55x_RELEASE_V1.0.2/MSDK/cloud/alicloud/src/services/awss\zconfig_ieee80211.c **** /**
 374:C:/Users/stapi/OneDrive/Desktop/GD32VW553/V1_MQTT_OK/GD32VW55X_Wifi_BLE_SDK/GD32VW55x_RELEASE_V1.0.2/MSDK/cloud/alicloud/src/services/awss\zconfig_ieee80211.c ****  * cfg80211_find_vendor_ie - find vendor specific information element in data
 375:C:/Users/stapi/OneDrive/Desktop/GD32VW553/V1_MQTT_OK/GD32VW55X_Wifi_BLE_SDK/GD32VW55x_RELEASE_V1.0.2/MSDK/cloud/alicloud/src/services/awss\zconfig_ieee80211.c ****  *
 376:C:/Users/stapi/OneDrive/Desktop/GD32VW553/V1_MQTT_OK/GD32VW55X_Wifi_BLE_SDK/GD32VW55x_RELEASE_V1.0.2/MSDK/cloud/alicloud/src/services/awss\zconfig_ieee80211.c ****  * @oui: vendor OUI
 377:C:/Users/stapi/OneDrive/Desktop/GD32VW553/V1_MQTT_OK/GD32VW55X_Wifi_BLE_SDK/GD32VW55x_RELEASE_V1.0.2/MSDK/cloud/alicloud/src/services/awss\zconfig_ieee80211.c ****  * @oui_type: vendor-specific OUI type
 378:C:/Users/stapi/OneDrive/Desktop/GD32VW553/V1_MQTT_OK/GD32VW55X_Wifi_BLE_SDK/GD32VW55x_RELEASE_V1.0.2/MSDK/cloud/alicloud/src/services/awss\zconfig_ieee80211.c ****  * @ies: data consisting of IEs
 379:C:/Users/stapi/OneDrive/Desktop/GD32VW553/V1_MQTT_OK/GD32VW55X_Wifi_BLE_SDK/GD32VW55x_RELEASE_V1.0.2/MSDK/cloud/alicloud/src/services/awss\zconfig_ieee80211.c ****  * @len: length of data
 380:C:/Users/stapi/OneDrive/Desktop/GD32VW553/V1_MQTT_OK/GD32VW55X_Wifi_BLE_SDK/GD32VW55x_RELEASE_V1.0.2/MSDK/cloud/alicloud/src/services/awss\zconfig_ieee80211.c ****  *
 381:C:/Users/stapi/OneDrive/Desktop/GD32VW553/V1_MQTT_OK/GD32VW55X_Wifi_BLE_SDK/GD32VW55x_RELEASE_V1.0.2/MSDK/cloud/alicloud/src/services/awss\zconfig_ieee80211.c ****  * Return: %NULL if the vendor specific element ID could not be found or if the
 382:C:/Users/stapi/OneDrive/Desktop/GD32VW553/V1_MQTT_OK/GD32VW55X_Wifi_BLE_SDK/GD32VW55x_RELEASE_V1.0.2/MSDK/cloud/alicloud/src/services/awss\zconfig_ieee80211.c ****  * element is invalid (claims to be longer than the given data), or a pointer to
 383:C:/Users/stapi/OneDrive/Desktop/GD32VW553/V1_MQTT_OK/GD32VW55X_Wifi_BLE_SDK/GD32VW55x_RELEASE_V1.0.2/MSDK/cloud/alicloud/src/services/awss\zconfig_ieee80211.c ****  * the first byte of the requested element, that is the byte containing the
 384:C:/Users/stapi/OneDrive/Desktop/GD32VW553/V1_MQTT_OK/GD32VW55X_Wifi_BLE_SDK/GD32VW55x_RELEASE_V1.0.2/MSDK/cloud/alicloud/src/services/awss\zconfig_ieee80211.c ****  * element ID.
 385:C:/Users/stapi/OneDrive/Desktop/GD32VW553/V1_MQTT_OK/GD32VW55X_Wifi_BLE_SDK/GD32VW55x_RELEASE_V1.0.2/MSDK/cloud/alicloud/src/services/awss\zconfig_ieee80211.c ****  *
 386:C:/Users/stapi/OneDrive/Desktop/GD32VW553/V1_MQTT_OK/GD32VW55X_Wifi_BLE_SDK/GD32VW55x_RELEASE_V1.0.2/MSDK/cloud/alicloud/src/services/awss\zconfig_ieee80211.c ****  * Note: There are no checks on the element length other than having to fit into
 387:C:/Users/stapi/OneDrive/Desktop/GD32VW553/V1_MQTT_OK/GD32VW55X_Wifi_BLE_SDK/GD32VW55x_RELEASE_V1.0.2/MSDK/cloud/alicloud/src/services/awss\zconfig_ieee80211.c ****  * the given data.
 388:C:/Users/stapi/OneDrive/Desktop/GD32VW553/V1_MQTT_OK/GD32VW55X_Wifi_BLE_SDK/GD32VW55x_RELEASE_V1.0.2/MSDK/cloud/alicloud/src/services/awss\zconfig_ieee80211.c ****  */
 389:C:/Users/stapi/OneDrive/Desktop/GD32VW553/V1_MQTT_OK/GD32VW55X_Wifi_BLE_SDK/GD32VW55x_RELEASE_V1.0.2/MSDK/cloud/alicloud/src/services/awss\zconfig_ieee80211.c **** const uint8_t *cfg80211_find_vendor_ie(uint32_t oui, uint8_t oui_type, const uint8_t *ies, int len)
 390:C:/Users/stapi/OneDrive/Desktop/GD32VW553/V1_MQTT_OK/GD32VW55X_Wifi_BLE_SDK/GD32VW55x_RELEASE_V1.0.2/MSDK/cloud/alicloud/src/services/awss\zconfig_ieee80211.c **** {
 391:C:/Users/stapi/OneDrive/Desktop/GD32VW553/V1_MQTT_OK/GD32VW55X_Wifi_BLE_SDK/GD32VW55x_RELEASE_V1.0.2/MSDK/cloud/alicloud/src/services/awss\zconfig_ieee80211.c ****     struct ieee80211_vendor_ie *ie;
 392:C:/Users/stapi/OneDrive/Desktop/GD32VW553/V1_MQTT_OK/GD32VW55X_Wifi_BLE_SDK/GD32VW55x_RELEASE_V1.0.2/MSDK/cloud/alicloud/src/services/awss\zconfig_ieee80211.c ****     const uint8_t *pos = ies, *end = ies + len;
 393:C:/Users/stapi/OneDrive/Desktop/GD32VW553/V1_MQTT_OK/GD32VW55X_Wifi_BLE_SDK/GD32VW55x_RELEASE_V1.0.2/MSDK/cloud/alicloud/src/services/awss\zconfig_ieee80211.c ****     int ie_oui;
 394:C:/Users/stapi/OneDrive/Desktop/GD32VW553/V1_MQTT_OK/GD32VW55X_Wifi_BLE_SDK/GD32VW55x_RELEASE_V1.0.2/MSDK/cloud/alicloud/src/services/awss\zconfig_ieee80211.c **** 
 395:C:/Users/stapi/OneDrive/Desktop/GD32VW553/V1_MQTT_OK/GD32VW55X_Wifi_BLE_SDK/GD32VW55x_RELEASE_V1.0.2/MSDK/cloud/alicloud/src/services/awss\zconfig_ieee80211.c ****     while (pos < end) {
 396:C:/Users/stapi/OneDrive/Desktop/GD32VW553/V1_MQTT_OK/GD32VW55X_Wifi_BLE_SDK/GD32VW55x_RELEASE_V1.0.2/MSDK/cloud/alicloud/src/services/awss\zconfig_ieee80211.c ****         pos = cfg80211_find_ie(WLAN_EID_VENDOR_SPECIFIC, pos,
 397:C:/Users/stapi/OneDrive/Desktop/GD32VW553/V1_MQTT_OK/GD32VW55X_Wifi_BLE_SDK/GD32VW55x_RELEASE_V1.0.2/MSDK/cloud/alicloud/src/services/awss\zconfig_ieee80211.c ****                                end - pos);
 398:C:/Users/stapi/OneDrive/Desktop/GD32VW553/V1_MQTT_OK/GD32VW55X_Wifi_BLE_SDK/GD32VW55x_RELEASE_V1.0.2/MSDK/cloud/alicloud/src/services/awss\zconfig_ieee80211.c ****         if (!pos) {
 399:C:/Users/stapi/OneDrive/Desktop/GD32VW553/V1_MQTT_OK/GD32VW55X_Wifi_BLE_SDK/GD32VW55x_RELEASE_V1.0.2/MSDK/cloud/alicloud/src/services/awss\zconfig_ieee80211.c ****             return NULL;
 400:C:/Users/stapi/OneDrive/Desktop/GD32VW553/V1_MQTT_OK/GD32VW55X_Wifi_BLE_SDK/GD32VW55x_RELEASE_V1.0.2/MSDK/cloud/alicloud/src/services/awss\zconfig_ieee80211.c ****         }
 401:C:/Users/stapi/OneDrive/Desktop/GD32VW553/V1_MQTT_OK/GD32VW55X_Wifi_BLE_SDK/GD32VW55x_RELEASE_V1.0.2/MSDK/cloud/alicloud/src/services/awss\zconfig_ieee80211.c **** 
 402:C:/Users/stapi/OneDrive/Desktop/GD32VW553/V1_MQTT_OK/GD32VW55X_Wifi_BLE_SDK/GD32VW55x_RELEASE_V1.0.2/MSDK/cloud/alicloud/src/services/awss\zconfig_ieee80211.c ****         ie = (struct ieee80211_vendor_ie *)pos;
 403:C:/Users/stapi/OneDrive/Desktop/GD32VW553/V1_MQTT_OK/GD32VW55X_Wifi_BLE_SDK/GD32VW55x_RELEASE_V1.0.2/MSDK/cloud/alicloud/src/services/awss\zconfig_ieee80211.c **** 
 404:C:/Users/stapi/OneDrive/Desktop/GD32VW553/V1_MQTT_OK/GD32VW55X_Wifi_BLE_SDK/GD32VW55x_RELEASE_V1.0.2/MSDK/cloud/alicloud/src/services/awss\zconfig_ieee80211.c ****         /* make sure we can access ie->len */
 405:C:/Users/stapi/OneDrive/Desktop/GD32VW553/V1_MQTT_OK/GD32VW55X_Wifi_BLE_SDK/GD32VW55x_RELEASE_V1.0.2/MSDK/cloud/alicloud/src/services/awss\zconfig_ieee80211.c ****         //BUILD_BUG_ON(offsetof(struct ieee80211_vendor_ie, len) != 1);
 406:C:/Users/stapi/OneDrive/Desktop/GD32VW553/V1_MQTT_OK/GD32VW55X_Wifi_BLE_SDK/GD32VW55x_RELEASE_V1.0.2/MSDK/cloud/alicloud/src/services/awss\zconfig_ieee80211.c **** 
 407:C:/Users/stapi/OneDrive/Desktop/GD32VW553/V1_MQTT_OK/GD32VW55X_Wifi_BLE_SDK/GD32VW55x_RELEASE_V1.0.2/MSDK/cloud/alicloud/src/services/awss\zconfig_ieee80211.c ****         if (ie->len < sizeof(*ie)) {
 408:C:/Users/stapi/OneDrive/Desktop/GD32VW553/V1_MQTT_OK/GD32VW55X_Wifi_BLE_SDK/GD32VW55x_RELEASE_V1.0.2/MSDK/cloud/alicloud/src/services/awss\zconfig_ieee80211.c ****             goto cont;
 409:C:/Users/stapi/OneDrive/Desktop/GD32VW553/V1_MQTT_OK/GD32VW55X_Wifi_BLE_SDK/GD32VW55x_RELEASE_V1.0.2/MSDK/cloud/alicloud/src/services/awss\zconfig_ieee80211.c ****         }
 410:C:/Users/stapi/OneDrive/Desktop/GD32VW553/V1_MQTT_OK/GD32VW55X_Wifi_BLE_SDK/GD32VW55x_RELEASE_V1.0.2/MSDK/cloud/alicloud/src/services/awss\zconfig_ieee80211.c **** 
 411:C:/Users/stapi/OneDrive/Desktop/GD32VW553/V1_MQTT_OK/GD32VW55X_Wifi_BLE_SDK/GD32VW55x_RELEASE_V1.0.2/MSDK/cloud/alicloud/src/services/awss\zconfig_ieee80211.c ****         ie_oui = ie->oui[0] << 16 | ie->oui[1] << 8 | ie->oui[2];
 412:C:/Users/stapi/OneDrive/Desktop/GD32VW553/V1_MQTT_OK/GD32VW55X_Wifi_BLE_SDK/GD32VW55x_RELEASE_V1.0.2/MSDK/cloud/alicloud/src/services/awss\zconfig_ieee80211.c ****         //awss_trace("oui=%x, type=%x, len=%d\r\n", ie_oui, oui_type, ie->len);
 413:C:/Users/stapi/OneDrive/Desktop/GD32VW553/V1_MQTT_OK/GD32VW55X_Wifi_BLE_SDK/GD32VW55x_RELEASE_V1.0.2/MSDK/cloud/alicloud/src/services/awss\zconfig_ieee80211.c ****         if (ie_oui == oui && ie->oui_type == oui_type) {
 414:C:/Users/stapi/OneDrive/Desktop/GD32VW553/V1_MQTT_OK/GD32VW55X_Wifi_BLE_SDK/GD32VW55x_RELEASE_V1.0.2/MSDK/cloud/alicloud/src/services/awss\zconfig_ieee80211.c ****             return pos;
 415:C:/Users/stapi/OneDrive/Desktop/GD32VW553/V1_MQTT_OK/GD32VW55X_Wifi_BLE_SDK/GD32VW55x_RELEASE_V1.0.2/MSDK/cloud/alicloud/src/services/awss\zconfig_ieee80211.c ****         }
 416:C:/Users/stapi/OneDrive/Desktop/GD32VW553/V1_MQTT_OK/GD32VW55X_Wifi_BLE_SDK/GD32VW55x_RELEASE_V1.0.2/MSDK/cloud/alicloud/src/services/awss\zconfig_ieee80211.c **** cont:
 417:C:/Users/stapi/OneDrive/Desktop/GD32VW553/V1_MQTT_OK/GD32VW55X_Wifi_BLE_SDK/GD32VW55x_RELEASE_V1.0.2/MSDK/cloud/alicloud/src/services/awss\zconfig_ieee80211.c ****         pos += 2 + ie->len;
 418:C:/Users/stapi/OneDrive/Desktop/GD32VW553/V1_MQTT_OK/GD32VW55X_Wifi_BLE_SDK/GD32VW55x_RELEASE_V1.0.2/MSDK/cloud/alicloud/src/services/awss\zconfig_ieee80211.c ****     }
 419:C:/Users/stapi/OneDrive/Desktop/GD32VW553/V1_MQTT_OK/GD32VW55X_Wifi_BLE_SDK/GD32VW55x_RELEASE_V1.0.2/MSDK/cloud/alicloud/src/services/awss\zconfig_ieee80211.c ****     return NULL;
 420:C:/Users/stapi/OneDrive/Desktop/GD32VW553/V1_MQTT_OK/GD32VW55X_Wifi_BLE_SDK/GD32VW55x_RELEASE_V1.0.2/MSDK/cloud/alicloud/src/services/awss\zconfig_ieee80211.c **** }
 421:C:/Users/stapi/OneDrive/Desktop/GD32VW553/V1_MQTT_OK/GD32VW55X_Wifi_BLE_SDK/GD32VW55x_RELEASE_V1.0.2/MSDK/cloud/alicloud/src/services/awss\zconfig_ieee80211.c **** 
 422:C:/Users/stapi/OneDrive/Desktop/GD32VW553/V1_MQTT_OK/GD32VW55X_Wifi_BLE_SDK/GD32VW55x_RELEASE_V1.0.2/MSDK/cloud/alicloud/src/services/awss\zconfig_ieee80211.c **** /**
 423:C:/Users/stapi/OneDrive/Desktop/GD32VW553/V1_MQTT_OK/GD32VW55X_Wifi_BLE_SDK/GD32VW55x_RELEASE_V1.0.2/MSDK/cloud/alicloud/src/services/awss\zconfig_ieee80211.c ****  * extract ssid from beacon frame or probe resp frame
 424:C:/Users/stapi/OneDrive/Desktop/GD32VW553/V1_MQTT_OK/GD32VW55X_Wifi_BLE_SDK/GD32VW55x_RELEASE_V1.0.2/MSDK/cloud/alicloud/src/services/awss\zconfig_ieee80211.c ****  *
 425:C:/Users/stapi/OneDrive/Desktop/GD32VW553/V1_MQTT_OK/GD32VW55X_Wifi_BLE_SDK/GD32VW55x_RELEASE_V1.0.2/MSDK/cloud/alicloud/src/services/awss\zconfig_ieee80211.c ****  * @beacon_frame: [IN] original 80211 beacon frame
 426:C:/Users/stapi/OneDrive/Desktop/GD32VW553/V1_MQTT_OK/GD32VW55X_Wifi_BLE_SDK/GD32VW55x_RELEASE_V1.0.2/MSDK/cloud/alicloud/src/services/awss\zconfig_ieee80211.c ****  * @frame_len: [IN] len of beacon frame
 427:C:/Users/stapi/OneDrive/Desktop/GD32VW553/V1_MQTT_OK/GD32VW55X_Wifi_BLE_SDK/GD32VW55x_RELEASE_V1.0.2/MSDK/cloud/alicloud/src/services/awss\zconfig_ieee80211.c ****  * @ssid: [OUT] null-terminated string, max len 32 bytes
 428:C:/Users/stapi/OneDrive/Desktop/GD32VW553/V1_MQTT_OK/GD32VW55X_Wifi_BLE_SDK/GD32VW55x_RELEASE_V1.0.2/MSDK/cloud/alicloud/src/services/awss\zconfig_ieee80211.c ****  *
 429:C:/Users/stapi/OneDrive/Desktop/GD32VW553/V1_MQTT_OK/GD32VW55X_Wifi_BLE_SDK/GD32VW55x_RELEASE_V1.0.2/MSDK/cloud/alicloud/src/services/awss\zconfig_ieee80211.c ****  * Return:
 430:C:/Users/stapi/OneDrive/Desktop/GD32VW553/V1_MQTT_OK/GD32VW55X_Wifi_BLE_SDK/GD32VW55x_RELEASE_V1.0.2/MSDK/cloud/alicloud/src/services/awss\zconfig_ieee80211.c ****  *     0/success, -1/failed
 431:C:/Users/stapi/OneDrive/Desktop/GD32VW553/V1_MQTT_OK/GD32VW55X_Wifi_BLE_SDK/GD32VW55x_RELEASE_V1.0.2/MSDK/cloud/alicloud/src/services/awss\zconfig_ieee80211.c ****  */
 432:C:/Users/stapi/OneDrive/Desktop/GD32VW553/V1_MQTT_OK/GD32VW55X_Wifi_BLE_SDK/GD32VW55x_RELEASE_V1.0.2/MSDK/cloud/alicloud/src/services/awss\zconfig_ieee80211.c **** int ieee80211_get_ssid(uint8_t *beacon_frame, uint16_t frame_len, uint8_t *ssid)
 433:C:/Users/stapi/OneDrive/Desktop/GD32VW553/V1_MQTT_OK/GD32VW55X_Wifi_BLE_SDK/GD32VW55x_RELEASE_V1.0.2/MSDK/cloud/alicloud/src/services/awss\zconfig_ieee80211.c **** {
 434:C:/Users/stapi/OneDrive/Desktop/GD32VW553/V1_MQTT_OK/GD32VW55X_Wifi_BLE_SDK/GD32VW55x_RELEASE_V1.0.2/MSDK/cloud/alicloud/src/services/awss\zconfig_ieee80211.c ****     uint16_t ieoffset = offsetof(struct ieee80211_mgmt, u.beacon.variable);//same as u.probe_resp.v
 435:C:/Users/stapi/OneDrive/Desktop/GD32VW553/V1_MQTT_OK/GD32VW55X_Wifi_BLE_SDK/GD32VW55x_RELEASE_V1.0.2/MSDK/cloud/alicloud/src/services/awss\zconfig_ieee80211.c ****     const uint8_t *ptr = cfg80211_find_ie(WLAN_EID_SSID,
 436:C:/Users/stapi/OneDrive/Desktop/GD32VW553/V1_MQTT_OK/GD32VW55X_Wifi_BLE_SDK/GD32VW55x_RELEASE_V1.0.2/MSDK/cloud/alicloud/src/services/awss\zconfig_ieee80211.c ****                                           beacon_frame + ieoffset, frame_len - ieoffset);
 437:C:/Users/stapi/OneDrive/Desktop/GD32VW553/V1_MQTT_OK/GD32VW55X_Wifi_BLE_SDK/GD32VW55x_RELEASE_V1.0.2/MSDK/cloud/alicloud/src/services/awss\zconfig_ieee80211.c ****     if (ptr) {
 438:C:/Users/stapi/OneDrive/Desktop/GD32VW553/V1_MQTT_OK/GD32VW55X_Wifi_BLE_SDK/GD32VW55x_RELEASE_V1.0.2/MSDK/cloud/alicloud/src/services/awss\zconfig_ieee80211.c ****         uint8_t ssid_len = ptr[1];
 439:C:/Users/stapi/OneDrive/Desktop/GD32VW553/V1_MQTT_OK/GD32VW55X_Wifi_BLE_SDK/GD32VW55x_RELEASE_V1.0.2/MSDK/cloud/alicloud/src/services/awss\zconfig_ieee80211.c ****         if (ssid_len <= 32) {    /* ssid 32 octets at most */
 440:C:/Users/stapi/OneDrive/Desktop/GD32VW553/V1_MQTT_OK/GD32VW55X_Wifi_BLE_SDK/GD32VW55x_RELEASE_V1.0.2/MSDK/cloud/alicloud/src/services/awss\zconfig_ieee80211.c ****             memcpy(ssid, ptr + 2, ssid_len);/* eating EID & len */
 441:C:/Users/stapi/OneDrive/Desktop/GD32VW553/V1_MQTT_OK/GD32VW55X_Wifi_BLE_SDK/GD32VW55x_RELEASE_V1.0.2/MSDK/cloud/alicloud/src/services/awss\zconfig_ieee80211.c ****             ssid[ssid_len] = '\0';
 442:C:/Users/stapi/OneDrive/Desktop/GD32VW553/V1_MQTT_OK/GD32VW55X_Wifi_BLE_SDK/GD32VW55x_RELEASE_V1.0.2/MSDK/cloud/alicloud/src/services/awss\zconfig_ieee80211.c ****             return 0;
 443:C:/Users/stapi/OneDrive/Desktop/GD32VW553/V1_MQTT_OK/GD32VW55X_Wifi_BLE_SDK/GD32VW55x_RELEASE_V1.0.2/MSDK/cloud/alicloud/src/services/awss\zconfig_ieee80211.c ****         }
 444:C:/Users/stapi/OneDrive/Desktop/GD32VW553/V1_MQTT_OK/GD32VW55X_Wifi_BLE_SDK/GD32VW55x_RELEASE_V1.0.2/MSDK/cloud/alicloud/src/services/awss\zconfig_ieee80211.c ****     }
 445:C:/Users/stapi/OneDrive/Desktop/GD32VW553/V1_MQTT_OK/GD32VW55X_Wifi_BLE_SDK/GD32VW55x_RELEASE_V1.0.2/MSDK/cloud/alicloud/src/services/awss\zconfig_ieee80211.c **** 
 446:C:/Users/stapi/OneDrive/Desktop/GD32VW553/V1_MQTT_OK/GD32VW55X_Wifi_BLE_SDK/GD32VW55x_RELEASE_V1.0.2/MSDK/cloud/alicloud/src/services/awss\zconfig_ieee80211.c ****     return -1;
 447:C:/Users/stapi/OneDrive/Desktop/GD32VW553/V1_MQTT_OK/GD32VW55X_Wifi_BLE_SDK/GD32VW55x_RELEASE_V1.0.2/MSDK/cloud/alicloud/src/services/awss\zconfig_ieee80211.c **** }
 448:C:/Users/stapi/OneDrive/Desktop/GD32VW553/V1_MQTT_OK/GD32VW55X_Wifi_BLE_SDK/GD32VW55x_RELEASE_V1.0.2/MSDK/cloud/alicloud/src/services/awss\zconfig_ieee80211.c **** 
 449:C:/Users/stapi/OneDrive/Desktop/GD32VW553/V1_MQTT_OK/GD32VW55X_Wifi_BLE_SDK/GD32VW55x_RELEASE_V1.0.2/MSDK/cloud/alicloud/src/services/awss\zconfig_ieee80211.c **** /**
 450:C:/Users/stapi/OneDrive/Desktop/GD32VW553/V1_MQTT_OK/GD32VW55X_Wifi_BLE_SDK/GD32VW55x_RELEASE_V1.0.2/MSDK/cloud/alicloud/src/services/awss\zconfig_ieee80211.c ****  * extract channel from beacon frame or probe resp frame
 451:C:/Users/stapi/OneDrive/Desktop/GD32VW553/V1_MQTT_OK/GD32VW55X_Wifi_BLE_SDK/GD32VW55x_RELEASE_V1.0.2/MSDK/cloud/alicloud/src/services/awss\zconfig_ieee80211.c ****  *
 452:C:/Users/stapi/OneDrive/Desktop/GD32VW553/V1_MQTT_OK/GD32VW55X_Wifi_BLE_SDK/GD32VW55x_RELEASE_V1.0.2/MSDK/cloud/alicloud/src/services/awss\zconfig_ieee80211.c ****  * @beacon_frame: [IN] original 80211 beacon frame
 453:C:/Users/stapi/OneDrive/Desktop/GD32VW553/V1_MQTT_OK/GD32VW55X_Wifi_BLE_SDK/GD32VW55x_RELEASE_V1.0.2/MSDK/cloud/alicloud/src/services/awss\zconfig_ieee80211.c ****  * @frame_len: [IN] len of beacon frame
 454:C:/Users/stapi/OneDrive/Desktop/GD32VW553/V1_MQTT_OK/GD32VW55X_Wifi_BLE_SDK/GD32VW55x_RELEASE_V1.0.2/MSDK/cloud/alicloud/src/services/awss\zconfig_ieee80211.c ****  *
 455:C:/Users/stapi/OneDrive/Desktop/GD32VW553/V1_MQTT_OK/GD32VW55X_Wifi_BLE_SDK/GD32VW55x_RELEASE_V1.0.2/MSDK/cloud/alicloud/src/services/awss\zconfig_ieee80211.c ****  * Return:
 456:C:/Users/stapi/OneDrive/Desktop/GD32VW553/V1_MQTT_OK/GD32VW55X_Wifi_BLE_SDK/GD32VW55x_RELEASE_V1.0.2/MSDK/cloud/alicloud/src/services/awss\zconfig_ieee80211.c ****  *     bss channel 1-13, 0--means invalid channel
 457:C:/Users/stapi/OneDrive/Desktop/GD32VW553/V1_MQTT_OK/GD32VW55X_Wifi_BLE_SDK/GD32VW55x_RELEASE_V1.0.2/MSDK/cloud/alicloud/src/services/awss\zconfig_ieee80211.c ****  */
 458:C:/Users/stapi/OneDrive/Desktop/GD32VW553/V1_MQTT_OK/GD32VW55X_Wifi_BLE_SDK/GD32VW55x_RELEASE_V1.0.2/MSDK/cloud/alicloud/src/services/awss\zconfig_ieee80211.c **** int cfg80211_get_bss_channel(uint8_t *beacon_frame, uint16_t frame_len)
 459:C:/Users/stapi/OneDrive/Desktop/GD32VW553/V1_MQTT_OK/GD32VW55X_Wifi_BLE_SDK/GD32VW55x_RELEASE_V1.0.2/MSDK/cloud/alicloud/src/services/awss\zconfig_ieee80211.c **** {
 460:C:/Users/stapi/OneDrive/Desktop/GD32VW553/V1_MQTT_OK/GD32VW55X_Wifi_BLE_SDK/GD32VW55x_RELEASE_V1.0.2/MSDK/cloud/alicloud/src/services/awss\zconfig_ieee80211.c ****     uint16_t ieoffset = offsetof(struct ieee80211_mgmt, u.beacon.variable);//same as u.probe_resp.v
 461:C:/Users/stapi/OneDrive/Desktop/GD32VW553/V1_MQTT_OK/GD32VW55X_Wifi_BLE_SDK/GD32VW55x_RELEASE_V1.0.2/MSDK/cloud/alicloud/src/services/awss\zconfig_ieee80211.c ****     const uint8_t *ie = beacon_frame + ieoffset;
 462:C:/Users/stapi/OneDrive/Desktop/GD32VW553/V1_MQTT_OK/GD32VW55X_Wifi_BLE_SDK/GD32VW55x_RELEASE_V1.0.2/MSDK/cloud/alicloud/src/services/awss\zconfig_ieee80211.c ****     uint16_t ielen = frame_len - ieoffset;
 463:C:/Users/stapi/OneDrive/Desktop/GD32VW553/V1_MQTT_OK/GD32VW55X_Wifi_BLE_SDK/GD32VW55x_RELEASE_V1.0.2/MSDK/cloud/alicloud/src/services/awss\zconfig_ieee80211.c **** 
 464:C:/Users/stapi/OneDrive/Desktop/GD32VW553/V1_MQTT_OK/GD32VW55X_Wifi_BLE_SDK/GD32VW55x_RELEASE_V1.0.2/MSDK/cloud/alicloud/src/services/awss\zconfig_ieee80211.c ****     const uint8_t *tmp;
 465:C:/Users/stapi/OneDrive/Desktop/GD32VW553/V1_MQTT_OK/GD32VW55X_Wifi_BLE_SDK/GD32VW55x_RELEASE_V1.0.2/MSDK/cloud/alicloud/src/services/awss\zconfig_ieee80211.c ****     int channel_number = 0;
 466:C:/Users/stapi/OneDrive/Desktop/GD32VW553/V1_MQTT_OK/GD32VW55X_Wifi_BLE_SDK/GD32VW55x_RELEASE_V1.0.2/MSDK/cloud/alicloud/src/services/awss\zconfig_ieee80211.c **** 
 467:C:/Users/stapi/OneDrive/Desktop/GD32VW553/V1_MQTT_OK/GD32VW55X_Wifi_BLE_SDK/GD32VW55x_RELEASE_V1.0.2/MSDK/cloud/alicloud/src/services/awss\zconfig_ieee80211.c ****     tmp = cfg80211_find_ie(WLAN_EID_DS_PARAMS, ie, ielen);
 468:C:/Users/stapi/OneDrive/Desktop/GD32VW553/V1_MQTT_OK/GD32VW55X_Wifi_BLE_SDK/GD32VW55x_RELEASE_V1.0.2/MSDK/cloud/alicloud/src/services/awss\zconfig_ieee80211.c ****     if (tmp && tmp[1] == 1) {
 469:C:/Users/stapi/OneDrive/Desktop/GD32VW553/V1_MQTT_OK/GD32VW55X_Wifi_BLE_SDK/GD32VW55x_RELEASE_V1.0.2/MSDK/cloud/alicloud/src/services/awss\zconfig_ieee80211.c ****         channel_number = tmp[2];
 470:C:/Users/stapi/OneDrive/Desktop/GD32VW553/V1_MQTT_OK/GD32VW55X_Wifi_BLE_SDK/GD32VW55x_RELEASE_V1.0.2/MSDK/cloud/alicloud/src/services/awss\zconfig_ieee80211.c ****     } else {
 471:C:/Users/stapi/OneDrive/Desktop/GD32VW553/V1_MQTT_OK/GD32VW55X_Wifi_BLE_SDK/GD32VW55x_RELEASE_V1.0.2/MSDK/cloud/alicloud/src/services/awss\zconfig_ieee80211.c ****         tmp = cfg80211_find_ie(WLAN_EID_HT_OPERATION, ie, ielen);
 472:C:/Users/stapi/OneDrive/Desktop/GD32VW553/V1_MQTT_OK/GD32VW55X_Wifi_BLE_SDK/GD32VW55x_RELEASE_V1.0.2/MSDK/cloud/alicloud/src/services/awss\zconfig_ieee80211.c ****         if (tmp && tmp[1] >= sizeof(struct ieee80211_ht_operation)) {
 473:C:/Users/stapi/OneDrive/Desktop/GD32VW553/V1_MQTT_OK/GD32VW55X_Wifi_BLE_SDK/GD32VW55x_RELEASE_V1.0.2/MSDK/cloud/alicloud/src/services/awss\zconfig_ieee80211.c ****             struct ieee80211_ht_operation *htop = (void *)(tmp + 2);
 474:C:/Users/stapi/OneDrive/Desktop/GD32VW553/V1_MQTT_OK/GD32VW55X_Wifi_BLE_SDK/GD32VW55x_RELEASE_V1.0.2/MSDK/cloud/alicloud/src/services/awss\zconfig_ieee80211.c **** 
 475:C:/Users/stapi/OneDrive/Desktop/GD32VW553/V1_MQTT_OK/GD32VW55X_Wifi_BLE_SDK/GD32VW55x_RELEASE_V1.0.2/MSDK/cloud/alicloud/src/services/awss\zconfig_ieee80211.c ****             channel_number = htop->primary_chan;
 476:C:/Users/stapi/OneDrive/Desktop/GD32VW553/V1_MQTT_OK/GD32VW55X_Wifi_BLE_SDK/GD32VW55x_RELEASE_V1.0.2/MSDK/cloud/alicloud/src/services/awss\zconfig_ieee80211.c ****         }
 477:C:/Users/stapi/OneDrive/Desktop/GD32VW553/V1_MQTT_OK/GD32VW55X_Wifi_BLE_SDK/GD32VW55x_RELEASE_V1.0.2/MSDK/cloud/alicloud/src/services/awss\zconfig_ieee80211.c ****     }
 478:C:/Users/stapi/OneDrive/Desktop/GD32VW553/V1_MQTT_OK/GD32VW55X_Wifi_BLE_SDK/GD32VW55x_RELEASE_V1.0.2/MSDK/cloud/alicloud/src/services/awss\zconfig_ieee80211.c **** 
 479:C:/Users/stapi/OneDrive/Desktop/GD32VW553/V1_MQTT_OK/GD32VW55X_Wifi_BLE_SDK/GD32VW55x_RELEASE_V1.0.2/MSDK/cloud/alicloud/src/services/awss\zconfig_ieee80211.c ****     return channel_number;
 480:C:/Users/stapi/OneDrive/Desktop/GD32VW553/V1_MQTT_OK/GD32VW55X_Wifi_BLE_SDK/GD32VW55x_RELEASE_V1.0.2/MSDK/cloud/alicloud/src/services/awss\zconfig_ieee80211.c **** }
 481:C:/Users/stapi/OneDrive/Desktop/GD32VW553/V1_MQTT_OK/GD32VW55X_Wifi_BLE_SDK/GD32VW55x_RELEASE_V1.0.2/MSDK/cloud/alicloud/src/services/awss\zconfig_ieee80211.c **** 
 482:C:/Users/stapi/OneDrive/Desktop/GD32VW553/V1_MQTT_OK/GD32VW55X_Wifi_BLE_SDK/GD32VW55x_RELEASE_V1.0.2/MSDK/cloud/alicloud/src/services/awss\zconfig_ieee80211.c **** static const uint8_t WPA_OUI23A_TYPE[] =            {0x00, 0x50, 0xf2, 0x01};
 483:C:/Users/stapi/OneDrive/Desktop/GD32VW553/V1_MQTT_OK/GD32VW55X_Wifi_BLE_SDK/GD32VW55x_RELEASE_V1.0.2/MSDK/cloud/alicloud/src/services/awss\zconfig_ieee80211.c **** static const uint8_t RSN_SUITE_1X[] =               {0x00, 0x0f, 0xac, 0x01};
 484:C:/Users/stapi/OneDrive/Desktop/GD32VW553/V1_MQTT_OK/GD32VW55X_Wifi_BLE_SDK/GD32VW55x_RELEASE_V1.0.2/MSDK/cloud/alicloud/src/services/awss\zconfig_ieee80211.c **** 
 485:C:/Users/stapi/OneDrive/Desktop/GD32VW553/V1_MQTT_OK/GD32VW55X_Wifi_BLE_SDK/GD32VW55x_RELEASE_V1.0.2/MSDK/cloud/alicloud/src/services/awss\zconfig_ieee80211.c **** static const uint8_t WPA_CIPHER_SUITE_NONE23A[] =   {0x00, 0x50, 0xf2, 0x00};
 486:C:/Users/stapi/OneDrive/Desktop/GD32VW553/V1_MQTT_OK/GD32VW55X_Wifi_BLE_SDK/GD32VW55x_RELEASE_V1.0.2/MSDK/cloud/alicloud/src/services/awss\zconfig_ieee80211.c **** static const uint8_t WPA_CIPHER_SUITE_WEP4023A[] =  {0x00, 0x50, 0xf2, 0x01};
 487:C:/Users/stapi/OneDrive/Desktop/GD32VW553/V1_MQTT_OK/GD32VW55X_Wifi_BLE_SDK/GD32VW55x_RELEASE_V1.0.2/MSDK/cloud/alicloud/src/services/awss\zconfig_ieee80211.c **** static const uint8_t WPA_CIPHER_SUITE_TKIP23A[] =   {0x00, 0x50, 0xf2, 0x02};
 488:C:/Users/stapi/OneDrive/Desktop/GD32VW553/V1_MQTT_OK/GD32VW55X_Wifi_BLE_SDK/GD32VW55x_RELEASE_V1.0.2/MSDK/cloud/alicloud/src/services/awss\zconfig_ieee80211.c **** //static const uint8_t WPA_CIPHER_SUITE_WRAP23A[] = {0x00, 0x50, 0xf2, 0x03};
 489:C:/Users/stapi/OneDrive/Desktop/GD32VW553/V1_MQTT_OK/GD32VW55X_Wifi_BLE_SDK/GD32VW55x_RELEASE_V1.0.2/MSDK/cloud/alicloud/src/services/awss\zconfig_ieee80211.c **** static const uint8_t WPA_CIPHER_SUITE_CCMP23A[] =   {0x00, 0x50, 0xf2, 0x04};
 490:C:/Users/stapi/OneDrive/Desktop/GD32VW553/V1_MQTT_OK/GD32VW55X_Wifi_BLE_SDK/GD32VW55x_RELEASE_V1.0.2/MSDK/cloud/alicloud/src/services/awss\zconfig_ieee80211.c **** static const uint8_t WPA_CIPHER_SUITE_WEP10423A[] = {0x00, 0x50, 0xf2, 0x05};
 491:C:/Users/stapi/OneDrive/Desktop/GD32VW553/V1_MQTT_OK/GD32VW55X_Wifi_BLE_SDK/GD32VW55x_RELEASE_V1.0.2/MSDK/cloud/alicloud/src/services/awss\zconfig_ieee80211.c **** 
 492:C:/Users/stapi/OneDrive/Desktop/GD32VW553/V1_MQTT_OK/GD32VW55X_Wifi_BLE_SDK/GD32VW55x_RELEASE_V1.0.2/MSDK/cloud/alicloud/src/services/awss\zconfig_ieee80211.c **** static const uint8_t RSN_CIPHER_SUITE_NONE23A[] =   {0x00, 0x0f, 0xac, 0x00};
 493:C:/Users/stapi/OneDrive/Desktop/GD32VW553/V1_MQTT_OK/GD32VW55X_Wifi_BLE_SDK/GD32VW55x_RELEASE_V1.0.2/MSDK/cloud/alicloud/src/services/awss\zconfig_ieee80211.c **** static const uint8_t RSN_CIPHER_SUITE_WEP4023A[] =  {0x00, 0x0f, 0xac, 0x01};
 494:C:/Users/stapi/OneDrive/Desktop/GD32VW553/V1_MQTT_OK/GD32VW55X_Wifi_BLE_SDK/GD32VW55x_RELEASE_V1.0.2/MSDK/cloud/alicloud/src/services/awss\zconfig_ieee80211.c **** static const uint8_t RSN_CIPHER_SUITE_TKIP23A[] =   {0x00, 0x0f, 0xac, 0x02};
 495:C:/Users/stapi/OneDrive/Desktop/GD32VW553/V1_MQTT_OK/GD32VW55X_Wifi_BLE_SDK/GD32VW55x_RELEASE_V1.0.2/MSDK/cloud/alicloud/src/services/awss\zconfig_ieee80211.c **** //static const uint8_t RSN_CIPHER_SUITE_WRAP23A[] = {0x00, 0x0f, 0xac, 0x03};
 496:C:/Users/stapi/OneDrive/Desktop/GD32VW553/V1_MQTT_OK/GD32VW55X_Wifi_BLE_SDK/GD32VW55x_RELEASE_V1.0.2/MSDK/cloud/alicloud/src/services/awss\zconfig_ieee80211.c **** static const uint8_t RSN_CIPHER_SUITE_CCMP23A[] =   {0x00, 0x0f, 0xac, 0x04};
 497:C:/Users/stapi/OneDrive/Desktop/GD32VW553/V1_MQTT_OK/GD32VW55X_Wifi_BLE_SDK/GD32VW55x_RELEASE_V1.0.2/MSDK/cloud/alicloud/src/services/awss\zconfig_ieee80211.c **** static const uint8_t RSN_CIPHER_SUITE_WEP10423A[] = {0x00, 0x0f, 0xac, 0x05};
 498:C:/Users/stapi/OneDrive/Desktop/GD32VW553/V1_MQTT_OK/GD32VW55X_Wifi_BLE_SDK/GD32VW55x_RELEASE_V1.0.2/MSDK/cloud/alicloud/src/services/awss\zconfig_ieee80211.c **** 
 499:C:/Users/stapi/OneDrive/Desktop/GD32VW553/V1_MQTT_OK/GD32VW55X_Wifi_BLE_SDK/GD32VW55x_RELEASE_V1.0.2/MSDK/cloud/alicloud/src/services/awss\zconfig_ieee80211.c **** #define WPA_SELECTOR_LEN        (4)
 500:C:/Users/stapi/OneDrive/Desktop/GD32VW553/V1_MQTT_OK/GD32VW55X_Wifi_BLE_SDK/GD32VW55x_RELEASE_V1.0.2/MSDK/cloud/alicloud/src/services/awss\zconfig_ieee80211.c **** #define RSN_SELECTOR_LEN        (4)
 501:C:/Users/stapi/OneDrive/Desktop/GD32VW553/V1_MQTT_OK/GD32VW55X_Wifi_BLE_SDK/GD32VW55x_RELEASE_V1.0.2/MSDK/cloud/alicloud/src/services/awss\zconfig_ieee80211.c **** 
 502:C:/Users/stapi/OneDrive/Desktop/GD32VW553/V1_MQTT_OK/GD32VW55X_Wifi_BLE_SDK/GD32VW55x_RELEASE_V1.0.2/MSDK/cloud/alicloud/src/services/awss\zconfig_ieee80211.c **** #define BIT(x)                  (1 << (x))
 503:C:/Users/stapi/OneDrive/Desktop/GD32VW553/V1_MQTT_OK/GD32VW55X_Wifi_BLE_SDK/GD32VW55x_RELEASE_V1.0.2/MSDK/cloud/alicloud/src/services/awss\zconfig_ieee80211.c **** #define WPA_CIPHER_NONE         BIT(0)
 504:C:/Users/stapi/OneDrive/Desktop/GD32VW553/V1_MQTT_OK/GD32VW55X_Wifi_BLE_SDK/GD32VW55x_RELEASE_V1.0.2/MSDK/cloud/alicloud/src/services/awss\zconfig_ieee80211.c **** #define WPA_CIPHER_WEP40        BIT(1)
 505:C:/Users/stapi/OneDrive/Desktop/GD32VW553/V1_MQTT_OK/GD32VW55X_Wifi_BLE_SDK/GD32VW55x_RELEASE_V1.0.2/MSDK/cloud/alicloud/src/services/awss\zconfig_ieee80211.c **** #define WPA_CIPHER_WEP104       BIT(2)
 506:C:/Users/stapi/OneDrive/Desktop/GD32VW553/V1_MQTT_OK/GD32VW55X_Wifi_BLE_SDK/GD32VW55x_RELEASE_V1.0.2/MSDK/cloud/alicloud/src/services/awss\zconfig_ieee80211.c **** #define WPA_CIPHER_TKIP         BIT(3)
 507:C:/Users/stapi/OneDrive/Desktop/GD32VW553/V1_MQTT_OK/GD32VW55X_Wifi_BLE_SDK/GD32VW55x_RELEASE_V1.0.2/MSDK/cloud/alicloud/src/services/awss\zconfig_ieee80211.c **** #define WPA_CIPHER_CCMP         BIT(4)
 508:C:/Users/stapi/OneDrive/Desktop/GD32VW553/V1_MQTT_OK/GD32VW55X_Wifi_BLE_SDK/GD32VW55x_RELEASE_V1.0.2/MSDK/cloud/alicloud/src/services/awss\zconfig_ieee80211.c **** 
 509:C:/Users/stapi/OneDrive/Desktop/GD32VW553/V1_MQTT_OK/GD32VW55X_Wifi_BLE_SDK/GD32VW55x_RELEASE_V1.0.2/MSDK/cloud/alicloud/src/services/awss\zconfig_ieee80211.c **** static uint8_t map_cipher_to_encry(uint8_t cipher)
 510:C:/Users/stapi/OneDrive/Desktop/GD32VW553/V1_MQTT_OK/GD32VW55X_Wifi_BLE_SDK/GD32VW55x_RELEASE_V1.0.2/MSDK/cloud/alicloud/src/services/awss\zconfig_ieee80211.c **** {
  25              		.loc 1 510 1
  26              		.cfi_startproc
  27              	.LVL0:
 511:C:/Users/stapi/OneDrive/Desktop/GD32VW553/V1_MQTT_OK/GD32VW55X_Wifi_BLE_SDK/GD32VW55x_RELEASE_V1.0.2/MSDK/cloud/alicloud/src/services/awss\zconfig_ieee80211.c ****     switch (cipher) {
  28              		.loc 1 511 5
  29 0000 A147     		li	a5,8
  30 0002 630CF506 		beq	a0,a5,.L5
  31 0006 AA85     		mv	a1,a0
  32 0008 63E2A706 		bgtu	a0,a5,.L3
  33 000c 9307E5FF 		addi	a5,a0,-2
  34 0010 93F7D70F 		andi	a5,a5,253
 512:C:/Users/stapi/OneDrive/Desktop/GD32VW553/V1_MQTT_OK/GD32VW55X_Wifi_BLE_SDK/GD32VW55x_RELEASE_V1.0.2/MSDK/cloud/alicloud/src/services/awss\zconfig_ieee80211.c ****         case WPA_CIPHER_CCMP:
 513:C:/Users/stapi/OneDrive/Desktop/GD32VW553/V1_MQTT_OK/GD32VW55X_Wifi_BLE_SDK/GD32VW55x_RELEASE_V1.0.2/MSDK/cloud/alicloud/src/services/awss\zconfig_ieee80211.c ****             return ZC_ENC_TYPE_AES;
 514:C:/Users/stapi/OneDrive/Desktop/GD32VW553/V1_MQTT_OK/GD32VW55X_Wifi_BLE_SDK/GD32VW55x_RELEASE_V1.0.2/MSDK/cloud/alicloud/src/services/awss\zconfig_ieee80211.c ****         case WPA_CIPHER_TKIP:
 515:C:/Users/stapi/OneDrive/Desktop/GD32VW553/V1_MQTT_OK/GD32VW55X_Wifi_BLE_SDK/GD32VW55x_RELEASE_V1.0.2/MSDK/cloud/alicloud/src/services/awss\zconfig_ieee80211.c ****             return ZC_ENC_TYPE_TKIP;
 516:C:/Users/stapi/OneDrive/Desktop/GD32VW553/V1_MQTT_OK/GD32VW55X_Wifi_BLE_SDK/GD32VW55x_RELEASE_V1.0.2/MSDK/cloud/alicloud/src/services/awss\zconfig_ieee80211.c ****         case WPA_CIPHER_WEP40:
 517:C:/Users/stapi/OneDrive/Desktop/GD32VW553/V1_MQTT_OK/GD32VW55X_Wifi_BLE_SDK/GD32VW55x_RELEASE_V1.0.2/MSDK/cloud/alicloud/src/services/awss\zconfig_ieee80211.c ****         case WPA_CIPHER_WEP104:
 518:C:/Users/stapi/OneDrive/Desktop/GD32VW553/V1_MQTT_OK/GD32VW55X_Wifi_BLE_SDK/GD32VW55x_RELEASE_V1.0.2/MSDK/cloud/alicloud/src/services/awss\zconfig_ieee80211.c ****             return ZC_ENC_TYPE_WEP;
  35              		.loc 1 518 20 is_stmt 0
  36 0014 0545     		li	a0,1
  37              	.LVL1:
 511:C:/Users/stapi/OneDrive/Desktop/GD32VW553/V1_MQTT_OK/GD32VW55X_Wifi_BLE_SDK/GD32VW55x_RELEASE_V1.0.2/MSDK/cloud/alicloud/src/services/awss\zconfig_ieee80211.c ****     switch (cipher) {
  38              		.loc 1 511 5
  39 0016 A5C7     		beq	a5,zero,.L11
  40 0018 8547     		li	a5,1
 519:C:/Users/stapi/OneDrive/Desktop/GD32VW553/V1_MQTT_OK/GD32VW55X_Wifi_BLE_SDK/GD32VW55x_RELEASE_V1.0.2/MSDK/cloud/alicloud/src/services/awss\zconfig_ieee80211.c ****         case WPA_CIPHER_NONE:
 520:C:/Users/stapi/OneDrive/Desktop/GD32VW553/V1_MQTT_OK/GD32VW55X_Wifi_BLE_SDK/GD32VW55x_RELEASE_V1.0.2/MSDK/cloud/alicloud/src/services/awss\zconfig_ieee80211.c ****             return ZC_ENC_TYPE_NONE;
  41              		.loc 1 520 20
  42 001a 0145     		li	a0,0
  43              	.L14:
 511:C:/Users/stapi/OneDrive/Desktop/GD32VW553/V1_MQTT_OK/GD32VW55X_Wifi_BLE_SDK/GD32VW55x_RELEASE_V1.0.2/MSDK/cloud/alicloud/src/services/awss\zconfig_ieee80211.c ****         case WPA_CIPHER_CCMP:
  44              		.loc 1 511 5
  45 001c 6381F506 		beq	a1,a5,.L11
 510:C:/Users/stapi/OneDrive/Desktop/GD32VW553/V1_MQTT_OK/GD32VW55X_Wifi_BLE_SDK/GD32VW55x_RELEASE_V1.0.2/MSDK/cloud/alicloud/src/services/awss\zconfig_ieee80211.c ****     switch (cipher) {
  46              		.loc 1 510 1
  47 0020 17030000 		call	t0,__riscv_save_0
  47      E7020300 
  48              		.cfi_offset 1, -4
  49              		.cfi_def_cfa_offset 16
 521:C:/Users/stapi/OneDrive/Desktop/GD32VW553/V1_MQTT_OK/GD32VW55X_Wifi_BLE_SDK/GD32VW55x_RELEASE_V1.0.2/MSDK/cloud/alicloud/src/services/awss\zconfig_ieee80211.c ****         case (WPA_CIPHER_TKIP | WPA_CIPHER_CCMP):
 522:C:/Users/stapi/OneDrive/Desktop/GD32VW553/V1_MQTT_OK/GD32VW55X_Wifi_BLE_SDK/GD32VW55x_RELEASE_V1.0.2/MSDK/cloud/alicloud/src/services/awss\zconfig_ieee80211.c ****             return ZC_ENC_TYPE_TKIPAES;
 523:C:/Users/stapi/OneDrive/Desktop/GD32VW553/V1_MQTT_OK/GD32VW55X_Wifi_BLE_SDK/GD32VW55x_RELEASE_V1.0.2/MSDK/cloud/alicloud/src/services/awss\zconfig_ieee80211.c ****         default:
 524:C:/Users/stapi/OneDrive/Desktop/GD32VW553/V1_MQTT_OK/GD32VW55X_Wifi_BLE_SDK/GD32VW55x_RELEASE_V1.0.2/MSDK/cloud/alicloud/src/services/awss\zconfig_ieee80211.c ****             awss_warn("unknow cipher type: %x\r\n", cipher);
  50              		.loc 1 524 13
  51 0028 37050000 		lui	a0,%hi(.LC0)
 510:C:/Users/stapi/OneDrive/Desktop/GD32VW553/V1_MQTT_OK/GD32VW55X_Wifi_BLE_SDK/GD32VW55x_RELEASE_V1.0.2/MSDK/cloud/alicloud/src/services/awss\zconfig_ieee80211.c ****     switch (cipher) {
  52              		.loc 1 510 1
  53 002c 4111     		addi	sp,sp,-16
  54              		.cfi_def_cfa_offset 32
  55              		.loc 1 524 13
  56 002e 13050500 		addi	a0,a0,%lo(.LC0)
  57 0032 2EC6     		sw	a1,12(sp)
  58              		.loc 1 524 13 is_stmt 1
  59              		.loc 1 524 13
  60 0034 97000000 		call	HAL_Printf
  60      E7800000 
  61              	.LVL2:
  62              		.loc 1 524 13
  63 003c B245     		lw	a1,12(sp)
  64 003e 37050000 		lui	a0,%hi(.LC1)
  65 0042 13050500 		addi	a0,a0,%lo(.LC1)
  66 0046 97000000 		call	HAL_Printf
  66      E7800000 
  67              	.LVL3:
  68              		.loc 1 524 13
  69 004e 37050000 		lui	a0,%hi(.LC2)
  70 0052 13050500 		addi	a0,a0,%lo(.LC2)
  71 0056 97000000 		call	HAL_Printf
  71      E7800000 
  72              	.LVL4:
  73              		.loc 1 524 13
 525:C:/Users/stapi/OneDrive/Desktop/GD32VW553/V1_MQTT_OK/GD32VW55X_Wifi_BLE_SDK/GD32VW55x_RELEASE_V1.0.2/MSDK/cloud/alicloud/src/services/awss\zconfig_ieee80211.c ****             return ZC_ENC_TYPE_INVALID;
  74              		.loc 1 525 13
  75              		.loc 1 525 20 is_stmt 0
  76 005e 1305F00F 		li	a0,255
 526:C:/Users/stapi/OneDrive/Desktop/GD32VW553/V1_MQTT_OK/GD32VW55X_Wifi_BLE_SDK/GD32VW55x_RELEASE_V1.0.2/MSDK/cloud/alicloud/src/services/awss\zconfig_ieee80211.c ****     }
 527:C:/Users/stapi/OneDrive/Desktop/GD32VW553/V1_MQTT_OK/GD32VW55X_Wifi_BLE_SDK/GD32VW55x_RELEASE_V1.0.2/MSDK/cloud/alicloud/src/services/awss\zconfig_ieee80211.c **** }
  77              		.loc 1 527 1
  78 0062 4101     		addi	sp,sp,16
  79              		.cfi_def_cfa_offset 0
  80 0064 17030000 		tail	__riscv_restore_0
  80      67000300 
  81              		.cfi_restore 1
  82              		.cfi_def_cfa_offset -16
  83              	.LVL5:
  84              	.L3:
  85              		.cfi_def_cfa_offset 0
 511:C:/Users/stapi/OneDrive/Desktop/GD32VW553/V1_MQTT_OK/GD32VW55X_Wifi_BLE_SDK/GD32VW55x_RELEASE_V1.0.2/MSDK/cloud/alicloud/src/services/awss\zconfig_ieee80211.c ****         case WPA_CIPHER_CCMP:
  86              		.loc 1 511 5
  87 006c C147     		li	a5,16
 513:C:/Users/stapi/OneDrive/Desktop/GD32VW553/V1_MQTT_OK/GD32VW55X_Wifi_BLE_SDK/GD32VW55x_RELEASE_V1.0.2/MSDK/cloud/alicloud/src/services/awss\zconfig_ieee80211.c ****         case WPA_CIPHER_TKIP:
  88              		.loc 1 513 20
  89 006e 0D45     		li	a0,3
  90              	.LVL6:
 511:C:/Users/stapi/OneDrive/Desktop/GD32VW553/V1_MQTT_OK/GD32VW55X_Wifi_BLE_SDK/GD32VW55x_RELEASE_V1.0.2/MSDK/cloud/alicloud/src/services/awss\zconfig_ieee80211.c ****         case WPA_CIPHER_CCMP:
  91              		.loc 1 511 5
  92 0070 6387F500 		beq	a1,a5,.L11
  93 0074 E147     		li	a5,24
 522:C:/Users/stapi/OneDrive/Desktop/GD32VW553/V1_MQTT_OK/GD32VW55X_Wifi_BLE_SDK/GD32VW55x_RELEASE_V1.0.2/MSDK/cloud/alicloud/src/services/awss\zconfig_ieee80211.c ****         default:
  94              		.loc 1 522 20
  95 0076 1145     		li	a0,4
  96 0078 55B7     		j	.L14
  97              	.LVL7:
  98              	.L5:
 511:C:/Users/stapi/OneDrive/Desktop/GD32VW553/V1_MQTT_OK/GD32VW55X_Wifi_BLE_SDK/GD32VW55x_RELEASE_V1.0.2/MSDK/cloud/alicloud/src/services/awss\zconfig_ieee80211.c ****         case WPA_CIPHER_CCMP:
  99              		.loc 1 511 5
 100 007a 0945     		li	a0,2
 101              	.LVL8:
 102 007c 8280     		ret
 103              	.L11:
 104              		.loc 1 527 1
 105 007e 8280     		ret
 106              		.cfi_endproc
 107              	.LFE73:
 109              		.section	.text.get_wpa_cipher_suite,"ax",@progbits
 110              		.align	1
 112              	get_wpa_cipher_suite:
 113              	.LFB74:
 528:C:/Users/stapi/OneDrive/Desktop/GD32VW553/V1_MQTT_OK/GD32VW55X_Wifi_BLE_SDK/GD32VW55x_RELEASE_V1.0.2/MSDK/cloud/alicloud/src/services/awss\zconfig_ieee80211.c **** 
 529:C:/Users/stapi/OneDrive/Desktop/GD32VW553/V1_MQTT_OK/GD32VW55X_Wifi_BLE_SDK/GD32VW55x_RELEASE_V1.0.2/MSDK/cloud/alicloud/src/services/awss\zconfig_ieee80211.c **** static int get_wpa_cipher_suite(const uint8_t *s)
 530:C:/Users/stapi/OneDrive/Desktop/GD32VW553/V1_MQTT_OK/GD32VW55X_Wifi_BLE_SDK/GD32VW55x_RELEASE_V1.0.2/MSDK/cloud/alicloud/src/services/awss\zconfig_ieee80211.c **** {
 114              		.loc 1 530 1 is_stmt 1
 115              		.cfi_startproc
 116              	.LVL9:
 117 0000 17030000 		call	t0,__riscv_save_1
 117      E7020300 
 118              		.cfi_offset 8, -8
 119              		.cfi_offset 1, -4
 120              		.cfi_def_cfa_offset 16
 531:C:/Users/stapi/OneDrive/Desktop/GD32VW553/V1_MQTT_OK/GD32VW55X_Wifi_BLE_SDK/GD32VW55x_RELEASE_V1.0.2/MSDK/cloud/alicloud/src/services/awss\zconfig_ieee80211.c ****     if (!memcmp(s, WPA_CIPHER_SUITE_NONE23A, WPA_SELECTOR_LEN)) {
 121              		.loc 1 531 5
 122              		.loc 1 531 10 is_stmt 0
 123 0008 B7050000 		lui	a1,%hi(.LANCHOR0)
 124 000c 1146     		li	a2,4
 125 000e 93850500 		addi	a1,a1,%lo(.LANCHOR0)
 530:C:/Users/stapi/OneDrive/Desktop/GD32VW553/V1_MQTT_OK/GD32VW55X_Wifi_BLE_SDK/GD32VW55x_RELEASE_V1.0.2/MSDK/cloud/alicloud/src/services/awss\zconfig_ieee80211.c ****     if (!memcmp(s, WPA_CIPHER_SUITE_NONE23A, WPA_SELECTOR_LEN)) {
 126              		.loc 1 530 1
 127 0012 2A84     		mv	s0,a0
 128              		.loc 1 531 10
 129 0014 97000000 		call	memcmp
 129      E7800000 
 130              	.LVL10:
 532:C:/Users/stapi/OneDrive/Desktop/GD32VW553/V1_MQTT_OK/GD32VW55X_Wifi_BLE_SDK/GD32VW55x_RELEASE_V1.0.2/MSDK/cloud/alicloud/src/services/awss\zconfig_ieee80211.c ****         return WPA_CIPHER_NONE;
 131              		.loc 1 532 16
 132 001c 8547     		li	a5,1
 531:C:/Users/stapi/OneDrive/Desktop/GD32VW553/V1_MQTT_OK/GD32VW55X_Wifi_BLE_SDK/GD32VW55x_RELEASE_V1.0.2/MSDK/cloud/alicloud/src/services/awss\zconfig_ieee80211.c ****     if (!memcmp(s, WPA_CIPHER_SUITE_NONE23A, WPA_SELECTOR_LEN)) {
 133              		.loc 1 531 8
 134 001e 35C1     		beq	a0,zero,.L15
 533:C:/Users/stapi/OneDrive/Desktop/GD32VW553/V1_MQTT_OK/GD32VW55X_Wifi_BLE_SDK/GD32VW55x_RELEASE_V1.0.2/MSDK/cloud/alicloud/src/services/awss\zconfig_ieee80211.c ****     }
 534:C:/Users/stapi/OneDrive/Desktop/GD32VW553/V1_MQTT_OK/GD32VW55X_Wifi_BLE_SDK/GD32VW55x_RELEASE_V1.0.2/MSDK/cloud/alicloud/src/services/awss\zconfig_ieee80211.c ****     if (!memcmp(s, WPA_CIPHER_SUITE_WEP4023A, WPA_SELECTOR_LEN)) {
 135              		.loc 1 534 5 is_stmt 1
 136              		.loc 1 534 10 is_stmt 0
 137 0020 B7050000 		lui	a1,%hi(.LANCHOR1)
 138 0024 1146     		li	a2,4
 139 0026 93850500 		addi	a1,a1,%lo(.LANCHOR1)
 140 002a 2285     		mv	a0,s0
 141 002c 97000000 		call	memcmp
 141      E7800000 
 142              	.LVL11:
 535:C:/Users/stapi/OneDrive/Desktop/GD32VW553/V1_MQTT_OK/GD32VW55X_Wifi_BLE_SDK/GD32VW55x_RELEASE_V1.0.2/MSDK/cloud/alicloud/src/services/awss\zconfig_ieee80211.c ****         return WPA_CIPHER_WEP40;
 143              		.loc 1 535 16
 144 0034 8947     		li	a5,2
 534:C:/Users/stapi/OneDrive/Desktop/GD32VW553/V1_MQTT_OK/GD32VW55X_Wifi_BLE_SDK/GD32VW55x_RELEASE_V1.0.2/MSDK/cloud/alicloud/src/services/awss\zconfig_ieee80211.c ****         return WPA_CIPHER_WEP40;
 145              		.loc 1 534 8
 146 0036 31C5     		beq	a0,zero,.L15
 147              	.LVL12:
 148              	.LBB8:
 149              	.LBB9:
 536:C:/Users/stapi/OneDrive/Desktop/GD32VW553/V1_MQTT_OK/GD32VW55X_Wifi_BLE_SDK/GD32VW55x_RELEASE_V1.0.2/MSDK/cloud/alicloud/src/services/awss\zconfig_ieee80211.c ****     }
 537:C:/Users/stapi/OneDrive/Desktop/GD32VW553/V1_MQTT_OK/GD32VW55X_Wifi_BLE_SDK/GD32VW55x_RELEASE_V1.0.2/MSDK/cloud/alicloud/src/services/awss\zconfig_ieee80211.c ****     if (!memcmp(s, WPA_CIPHER_SUITE_TKIP23A, WPA_SELECTOR_LEN)) {
 150              		.loc 1 537 5 is_stmt 1
 151              		.loc 1 537 10 is_stmt 0
 152 0038 B7050000 		lui	a1,%hi(.LANCHOR2)
 153 003c 1146     		li	a2,4
 154 003e 93850500 		addi	a1,a1,%lo(.LANCHOR2)
 155 0042 2285     		mv	a0,s0
 156 0044 97000000 		call	memcmp
 156      E7800000 
 157              	.LVL13:
 538:C:/Users/stapi/OneDrive/Desktop/GD32VW553/V1_MQTT_OK/GD32VW55X_Wifi_BLE_SDK/GD32VW55x_RELEASE_V1.0.2/MSDK/cloud/alicloud/src/services/awss\zconfig_ieee80211.c ****         return WPA_CIPHER_TKIP;
 158              		.loc 1 538 16
 159 004c A147     		li	a5,8
 537:C:/Users/stapi/OneDrive/Desktop/GD32VW553/V1_MQTT_OK/GD32VW55X_Wifi_BLE_SDK/GD32VW55x_RELEASE_V1.0.2/MSDK/cloud/alicloud/src/services/awss\zconfig_ieee80211.c ****         return WPA_CIPHER_TKIP;
 160              		.loc 1 537 8
 161 004e 15C9     		beq	a0,zero,.L15
 539:C:/Users/stapi/OneDrive/Desktop/GD32VW553/V1_MQTT_OK/GD32VW55X_Wifi_BLE_SDK/GD32VW55x_RELEASE_V1.0.2/MSDK/cloud/alicloud/src/services/awss\zconfig_ieee80211.c ****     }
 540:C:/Users/stapi/OneDrive/Desktop/GD32VW553/V1_MQTT_OK/GD32VW55X_Wifi_BLE_SDK/GD32VW55x_RELEASE_V1.0.2/MSDK/cloud/alicloud/src/services/awss\zconfig_ieee80211.c ****     if (!memcmp(s, WPA_CIPHER_SUITE_CCMP23A, WPA_SELECTOR_LEN)) {
 162              		.loc 1 540 5 is_stmt 1
 163              		.loc 1 540 10 is_stmt 0
 164 0050 B7050000 		lui	a1,%hi(.LANCHOR3)
 165 0054 1146     		li	a2,4
 166 0056 93850500 		addi	a1,a1,%lo(.LANCHOR3)
 167 005a 2285     		mv	a0,s0
 168 005c 97000000 		call	memcmp
 168      E7800000 
 169              	.LVL14:
 541:C:/Users/stapi/OneDrive/Desktop/GD32VW553/V1_MQTT_OK/GD32VW55X_Wifi_BLE_SDK/GD32VW55x_RELEASE_V1.0.2/MSDK/cloud/alicloud/src/services/awss\zconfig_ieee80211.c ****         return WPA_CIPHER_CCMP;
 170              		.loc 1 541 16
 171 0064 C147     		li	a5,16
 540:C:/Users/stapi/OneDrive/Desktop/GD32VW553/V1_MQTT_OK/GD32VW55X_Wifi_BLE_SDK/GD32VW55x_RELEASE_V1.0.2/MSDK/cloud/alicloud/src/services/awss\zconfig_ieee80211.c ****         return WPA_CIPHER_CCMP;
 172              		.loc 1 540 8
 173 0066 11CD     		beq	a0,zero,.L15
 542:C:/Users/stapi/OneDrive/Desktop/GD32VW553/V1_MQTT_OK/GD32VW55X_Wifi_BLE_SDK/GD32VW55x_RELEASE_V1.0.2/MSDK/cloud/alicloud/src/services/awss\zconfig_ieee80211.c ****     }
 543:C:/Users/stapi/OneDrive/Desktop/GD32VW553/V1_MQTT_OK/GD32VW55X_Wifi_BLE_SDK/GD32VW55x_RELEASE_V1.0.2/MSDK/cloud/alicloud/src/services/awss\zconfig_ieee80211.c ****     if (!memcmp(s, WPA_CIPHER_SUITE_WEP10423A, WPA_SELECTOR_LEN)) {
 174              		.loc 1 543 5 is_stmt 1
 175              		.loc 1 543 10 is_stmt 0
 176 0068 B7050000 		lui	a1,%hi(.LANCHOR4)
 177 006c 1146     		li	a2,4
 178 006e 93850500 		addi	a1,a1,%lo(.LANCHOR4)
 179 0072 2285     		mv	a0,s0
 180 0074 97000000 		call	memcmp
 180      E7800000 
 181              	.LVL15:
 544:C:/Users/stapi/OneDrive/Desktop/GD32VW553/V1_MQTT_OK/GD32VW55X_Wifi_BLE_SDK/GD32VW55x_RELEASE_V1.0.2/MSDK/cloud/alicloud/src/services/awss\zconfig_ieee80211.c ****         return WPA_CIPHER_WEP104;
 182              		.loc 1 544 16
 183 007c 93371500 		seqz	a5,a0
 184 0080 8A07     		slli	a5,a5,2
 185              	.LVL16:
 186              	.L15:
 187              	.LBE9:
 188              	.LBE8:
 545:C:/Users/stapi/OneDrive/Desktop/GD32VW553/V1_MQTT_OK/GD32VW55X_Wifi_BLE_SDK/GD32VW55x_RELEASE_V1.0.2/MSDK/cloud/alicloud/src/services/awss\zconfig_ieee80211.c ****     }
 546:C:/Users/stapi/OneDrive/Desktop/GD32VW553/V1_MQTT_OK/GD32VW55X_Wifi_BLE_SDK/GD32VW55x_RELEASE_V1.0.2/MSDK/cloud/alicloud/src/services/awss\zconfig_ieee80211.c **** 
 547:C:/Users/stapi/OneDrive/Desktop/GD32VW553/V1_MQTT_OK/GD32VW55X_Wifi_BLE_SDK/GD32VW55x_RELEASE_V1.0.2/MSDK/cloud/alicloud/src/services/awss\zconfig_ieee80211.c ****     return 0;
 548:C:/Users/stapi/OneDrive/Desktop/GD32VW553/V1_MQTT_OK/GD32VW55X_Wifi_BLE_SDK/GD32VW55x_RELEASE_V1.0.2/MSDK/cloud/alicloud/src/services/awss\zconfig_ieee80211.c **** }
 189              		.loc 1 548 1
 190 0082 3E85     		mv	a0,a5
 191 0084 17030000 		tail	__riscv_restore_1
 191      67000300 
 192              		.cfi_restore 8
 193              		.cfi_restore 1
 194              		.cfi_def_cfa_offset 0
 195              		.cfi_endproc
 196              	.LFE74:
 198              		.section	.text.get_wpa2_cipher_suite,"ax",@progbits
 199              		.align	1
 201              	get_wpa2_cipher_suite:
 202              	.LFB75:
 549:C:/Users/stapi/OneDrive/Desktop/GD32VW553/V1_MQTT_OK/GD32VW55X_Wifi_BLE_SDK/GD32VW55x_RELEASE_V1.0.2/MSDK/cloud/alicloud/src/services/awss\zconfig_ieee80211.c **** 
 550:C:/Users/stapi/OneDrive/Desktop/GD32VW553/V1_MQTT_OK/GD32VW55X_Wifi_BLE_SDK/GD32VW55x_RELEASE_V1.0.2/MSDK/cloud/alicloud/src/services/awss\zconfig_ieee80211.c **** static int get_wpa2_cipher_suite(const uint8_t *s)
 551:C:/Users/stapi/OneDrive/Desktop/GD32VW553/V1_MQTT_OK/GD32VW55X_Wifi_BLE_SDK/GD32VW55x_RELEASE_V1.0.2/MSDK/cloud/alicloud/src/services/awss\zconfig_ieee80211.c **** {
 203              		.loc 1 551 1 is_stmt 1
 204              		.cfi_startproc
 205              	.LVL17:
 206 0000 17030000 		call	t0,__riscv_save_1
 206      E7020300 
 207              		.cfi_offset 8, -8
 208              		.cfi_offset 1, -4
 209              		.cfi_def_cfa_offset 16
 552:C:/Users/stapi/OneDrive/Desktop/GD32VW553/V1_MQTT_OK/GD32VW55X_Wifi_BLE_SDK/GD32VW55x_RELEASE_V1.0.2/MSDK/cloud/alicloud/src/services/awss\zconfig_ieee80211.c ****     if (!memcmp(s, RSN_CIPHER_SUITE_NONE23A, RSN_SELECTOR_LEN)) {
 210              		.loc 1 552 5
 211              		.loc 1 552 10 is_stmt 0
 212 0008 B7050000 		lui	a1,%hi(.LANCHOR5)
 213 000c 1146     		li	a2,4
 214 000e 93850500 		addi	a1,a1,%lo(.LANCHOR5)
 551:C:/Users/stapi/OneDrive/Desktop/GD32VW553/V1_MQTT_OK/GD32VW55X_Wifi_BLE_SDK/GD32VW55x_RELEASE_V1.0.2/MSDK/cloud/alicloud/src/services/awss\zconfig_ieee80211.c ****     if (!memcmp(s, RSN_CIPHER_SUITE_NONE23A, RSN_SELECTOR_LEN)) {
 215              		.loc 1 551 1
 216 0012 2A84     		mv	s0,a0
 217              		.loc 1 552 10
 218 0014 97000000 		call	memcmp
 218      E7800000 
 219              	.LVL18:
 553:C:/Users/stapi/OneDrive/Desktop/GD32VW553/V1_MQTT_OK/GD32VW55X_Wifi_BLE_SDK/GD32VW55x_RELEASE_V1.0.2/MSDK/cloud/alicloud/src/services/awss\zconfig_ieee80211.c ****         return WPA_CIPHER_NONE;
 220              		.loc 1 553 16
 221 001c 8547     		li	a5,1
 552:C:/Users/stapi/OneDrive/Desktop/GD32VW553/V1_MQTT_OK/GD32VW55X_Wifi_BLE_SDK/GD32VW55x_RELEASE_V1.0.2/MSDK/cloud/alicloud/src/services/awss\zconfig_ieee80211.c ****     if (!memcmp(s, RSN_CIPHER_SUITE_NONE23A, RSN_SELECTOR_LEN)) {
 222              		.loc 1 552 8
 223 001e 35C1     		beq	a0,zero,.L23
 554:C:/Users/stapi/OneDrive/Desktop/GD32VW553/V1_MQTT_OK/GD32VW55X_Wifi_BLE_SDK/GD32VW55x_RELEASE_V1.0.2/MSDK/cloud/alicloud/src/services/awss\zconfig_ieee80211.c ****     }
 555:C:/Users/stapi/OneDrive/Desktop/GD32VW553/V1_MQTT_OK/GD32VW55X_Wifi_BLE_SDK/GD32VW55x_RELEASE_V1.0.2/MSDK/cloud/alicloud/src/services/awss\zconfig_ieee80211.c ****     if (!memcmp(s, RSN_CIPHER_SUITE_WEP4023A, RSN_SELECTOR_LEN)) {
 224              		.loc 1 555 5 is_stmt 1
 225              		.loc 1 555 10 is_stmt 0
 226 0020 B7050000 		lui	a1,%hi(.LANCHOR6)
 227 0024 1146     		li	a2,4
 228 0026 93850500 		addi	a1,a1,%lo(.LANCHOR6)
 229 002a 2285     		mv	a0,s0
 230 002c 97000000 		call	memcmp
 230      E7800000 
 231              	.LVL19:
 556:C:/Users/stapi/OneDrive/Desktop/GD32VW553/V1_MQTT_OK/GD32VW55X_Wifi_BLE_SDK/GD32VW55x_RELEASE_V1.0.2/MSDK/cloud/alicloud/src/services/awss\zconfig_ieee80211.c ****         return WPA_CIPHER_WEP40;
 232              		.loc 1 556 16
 233 0034 8947     		li	a5,2
 555:C:/Users/stapi/OneDrive/Desktop/GD32VW553/V1_MQTT_OK/GD32VW55X_Wifi_BLE_SDK/GD32VW55x_RELEASE_V1.0.2/MSDK/cloud/alicloud/src/services/awss\zconfig_ieee80211.c ****         return WPA_CIPHER_WEP40;
 234              		.loc 1 555 8
 235 0036 31C5     		beq	a0,zero,.L23
 236              	.LVL20:
 237              	.LBB12:
 238              	.LBB13:
 557:C:/Users/stapi/OneDrive/Desktop/GD32VW553/V1_MQTT_OK/GD32VW55X_Wifi_BLE_SDK/GD32VW55x_RELEASE_V1.0.2/MSDK/cloud/alicloud/src/services/awss\zconfig_ieee80211.c ****     }
 558:C:/Users/stapi/OneDrive/Desktop/GD32VW553/V1_MQTT_OK/GD32VW55X_Wifi_BLE_SDK/GD32VW55x_RELEASE_V1.0.2/MSDK/cloud/alicloud/src/services/awss\zconfig_ieee80211.c ****     if (!memcmp(s, RSN_CIPHER_SUITE_TKIP23A, RSN_SELECTOR_LEN)) {
 239              		.loc 1 558 5 is_stmt 1
 240              		.loc 1 558 10 is_stmt 0
 241 0038 B7050000 		lui	a1,%hi(.LANCHOR7)
 242 003c 1146     		li	a2,4
 243 003e 93850500 		addi	a1,a1,%lo(.LANCHOR7)
 244 0042 2285     		mv	a0,s0
 245 0044 97000000 		call	memcmp
 245      E7800000 
 246              	.LVL21:
 559:C:/Users/stapi/OneDrive/Desktop/GD32VW553/V1_MQTT_OK/GD32VW55X_Wifi_BLE_SDK/GD32VW55x_RELEASE_V1.0.2/MSDK/cloud/alicloud/src/services/awss\zconfig_ieee80211.c ****         return WPA_CIPHER_TKIP;
 247              		.loc 1 559 16
 248 004c A147     		li	a5,8
 558:C:/Users/stapi/OneDrive/Desktop/GD32VW553/V1_MQTT_OK/GD32VW55X_Wifi_BLE_SDK/GD32VW55x_RELEASE_V1.0.2/MSDK/cloud/alicloud/src/services/awss\zconfig_ieee80211.c ****         return WPA_CIPHER_TKIP;
 249              		.loc 1 558 8
 250 004e 15C9     		beq	a0,zero,.L23
 560:C:/Users/stapi/OneDrive/Desktop/GD32VW553/V1_MQTT_OK/GD32VW55X_Wifi_BLE_SDK/GD32VW55x_RELEASE_V1.0.2/MSDK/cloud/alicloud/src/services/awss\zconfig_ieee80211.c ****     }
 561:C:/Users/stapi/OneDrive/Desktop/GD32VW553/V1_MQTT_OK/GD32VW55X_Wifi_BLE_SDK/GD32VW55x_RELEASE_V1.0.2/MSDK/cloud/alicloud/src/services/awss\zconfig_ieee80211.c ****     if (!memcmp(s, RSN_CIPHER_SUITE_CCMP23A, RSN_SELECTOR_LEN)) {
 251              		.loc 1 561 5 is_stmt 1
 252              		.loc 1 561 10 is_stmt 0
 253 0050 B7050000 		lui	a1,%hi(.LANCHOR8)
 254 0054 1146     		li	a2,4
 255 0056 93850500 		addi	a1,a1,%lo(.LANCHOR8)
 256 005a 2285     		mv	a0,s0
 257 005c 97000000 		call	memcmp
 257      E7800000 
 258              	.LVL22:
 562:C:/Users/stapi/OneDrive/Desktop/GD32VW553/V1_MQTT_OK/GD32VW55X_Wifi_BLE_SDK/GD32VW55x_RELEASE_V1.0.2/MSDK/cloud/alicloud/src/services/awss\zconfig_ieee80211.c ****         return WPA_CIPHER_CCMP;
 259              		.loc 1 562 16
 260 0064 C147     		li	a5,16
 561:C:/Users/stapi/OneDrive/Desktop/GD32VW553/V1_MQTT_OK/GD32VW55X_Wifi_BLE_SDK/GD32VW55x_RELEASE_V1.0.2/MSDK/cloud/alicloud/src/services/awss\zconfig_ieee80211.c ****         return WPA_CIPHER_CCMP;
 261              		.loc 1 561 8
 262 0066 11CD     		beq	a0,zero,.L23
 563:C:/Users/stapi/OneDrive/Desktop/GD32VW553/V1_MQTT_OK/GD32VW55X_Wifi_BLE_SDK/GD32VW55x_RELEASE_V1.0.2/MSDK/cloud/alicloud/src/services/awss\zconfig_ieee80211.c ****     }
 564:C:/Users/stapi/OneDrive/Desktop/GD32VW553/V1_MQTT_OK/GD32VW55X_Wifi_BLE_SDK/GD32VW55x_RELEASE_V1.0.2/MSDK/cloud/alicloud/src/services/awss\zconfig_ieee80211.c ****     if (!memcmp(s, RSN_CIPHER_SUITE_WEP10423A, RSN_SELECTOR_LEN)) {
 263              		.loc 1 564 5 is_stmt 1
 264              		.loc 1 564 10 is_stmt 0
 265 0068 B7050000 		lui	a1,%hi(.LANCHOR9)
 266 006c 1146     		li	a2,4
 267 006e 93850500 		addi	a1,a1,%lo(.LANCHOR9)
 268 0072 2285     		mv	a0,s0
 269 0074 97000000 		call	memcmp
 269      E7800000 
 270              	.LVL23:
 565:C:/Users/stapi/OneDrive/Desktop/GD32VW553/V1_MQTT_OK/GD32VW55X_Wifi_BLE_SDK/GD32VW55x_RELEASE_V1.0.2/MSDK/cloud/alicloud/src/services/awss\zconfig_ieee80211.c ****         return WPA_CIPHER_WEP104;
 271              		.loc 1 565 16
 272 007c 93371500 		seqz	a5,a0
 273 0080 8A07     		slli	a5,a5,2
 274              	.LVL24:
 275              	.L23:
 276              	.LBE13:
 277              	.LBE12:
 566:C:/Users/stapi/OneDrive/Desktop/GD32VW553/V1_MQTT_OK/GD32VW55X_Wifi_BLE_SDK/GD32VW55x_RELEASE_V1.0.2/MSDK/cloud/alicloud/src/services/awss\zconfig_ieee80211.c ****     }
 567:C:/Users/stapi/OneDrive/Desktop/GD32VW553/V1_MQTT_OK/GD32VW55X_Wifi_BLE_SDK/GD32VW55x_RELEASE_V1.0.2/MSDK/cloud/alicloud/src/services/awss\zconfig_ieee80211.c **** 
 568:C:/Users/stapi/OneDrive/Desktop/GD32VW553/V1_MQTT_OK/GD32VW55X_Wifi_BLE_SDK/GD32VW55x_RELEASE_V1.0.2/MSDK/cloud/alicloud/src/services/awss\zconfig_ieee80211.c ****     return 0;
 569:C:/Users/stapi/OneDrive/Desktop/GD32VW553/V1_MQTT_OK/GD32VW55X_Wifi_BLE_SDK/GD32VW55x_RELEASE_V1.0.2/MSDK/cloud/alicloud/src/services/awss\zconfig_ieee80211.c **** }
 278              		.loc 1 569 1
 279 0082 3E85     		mv	a0,a5
 280 0084 17030000 		tail	__riscv_restore_1
 280      67000300 
 281              		.cfi_restore 8
 282              		.cfi_restore 1
 283              		.cfi_def_cfa_offset 0
 284              		.cfi_endproc
 285              	.LFE75:
 287              		.section	.text.ieee80211_is_ctl,"ax",@progbits
 288              		.align	1
 289              		.globl	ieee80211_is_ctl
 291              	ieee80211_is_ctl:
 292              	.LFB49:
  64:C:/Users/stapi/OneDrive/Desktop/GD32VW553/V1_MQTT_OK/GD32VW55X_Wifi_BLE_SDK/GD32VW55x_RELEASE_V1.0.2/MSDK/cloud/alicloud/src/services/awss\zconfig_ieee80211.c ****     return (fc & os_htole16(IEEE80211_FCTL_FTYPE)) ==
 293              		.loc 1 64 1 is_stmt 1
 294              		.cfi_startproc
 295              	.LVL25:
 296 0000 17030000 		call	t0,__riscv_save_1
 296      E7020300 
 297              		.cfi_offset 8, -8
 298              		.cfi_offset 1, -4
 299              		.cfi_def_cfa_offset 16
  65:C:/Users/stapi/OneDrive/Desktop/GD32VW553/V1_MQTT_OK/GD32VW55X_Wifi_BLE_SDK/GD32VW55x_RELEASE_V1.0.2/MSDK/cloud/alicloud/src/services/awss\zconfig_ieee80211.c ****            os_htole16(IEEE80211_FTYPE_CTL);
 300              		.loc 1 65 5
  64:C:/Users/stapi/OneDrive/Desktop/GD32VW553/V1_MQTT_OK/GD32VW55X_Wifi_BLE_SDK/GD32VW55x_RELEASE_V1.0.2/MSDK/cloud/alicloud/src/services/awss\zconfig_ieee80211.c ****     return (fc & os_htole16(IEEE80211_FCTL_FTYPE)) ==
 301              		.loc 1 64 1 is_stmt 0
 302 0008 2A84     		mv	s0,a0
  65:C:/Users/stapi/OneDrive/Desktop/GD32VW553/V1_MQTT_OK/GD32VW55X_Wifi_BLE_SDK/GD32VW55x_RELEASE_V1.0.2/MSDK/cloud/alicloud/src/services/awss\zconfig_ieee80211.c ****            os_htole16(IEEE80211_FTYPE_CTL);
 303              		.loc 1 65 18
 304 000a 3145     		li	a0,12
 305              	.LVL26:
 306 000c 97000000 		call	os_htole16
 306      E7800000 
 307              	.LVL27:
  65:C:/Users/stapi/OneDrive/Desktop/GD32VW553/V1_MQTT_OK/GD32VW55X_Wifi_BLE_SDK/GD32VW55x_RELEASE_V1.0.2/MSDK/cloud/alicloud/src/services/awss\zconfig_ieee80211.c ****            os_htole16(IEEE80211_FTYPE_CTL);
 308              		.loc 1 65 52
 309 0014 698C     		and	s0,a0,s0
  66:C:/Users/stapi/OneDrive/Desktop/GD32VW553/V1_MQTT_OK/GD32VW55X_Wifi_BLE_SDK/GD32VW55x_RELEASE_V1.0.2/MSDK/cloud/alicloud/src/services/awss\zconfig_ieee80211.c **** }
 310              		.loc 1 66 12
 311 0016 1145     		li	a0,4
 312 0018 97000000 		call	os_htole16
 312      E7800000 
 313              	.LVL28:
  65:C:/Users/stapi/OneDrive/Desktop/GD32VW553/V1_MQTT_OK/GD32VW55X_Wifi_BLE_SDK/GD32VW55x_RELEASE_V1.0.2/MSDK/cloud/alicloud/src/services/awss\zconfig_ieee80211.c ****            os_htole16(IEEE80211_FTYPE_CTL);
 314              		.loc 1 65 52
 315 0020 3305A440 		sub	a0,s0,a0
  67:C:/Users/stapi/OneDrive/Desktop/GD32VW553/V1_MQTT_OK/GD32VW55X_Wifi_BLE_SDK/GD32VW55x_RELEASE_V1.0.2/MSDK/cloud/alicloud/src/services/awss\zconfig_ieee80211.c **** 
 316              		.loc 1 67 1
 317 0024 13351500 		seqz	a0,a0
 318 0028 17030000 		tail	__riscv_restore_1
 318      67000300 
 319              		.cfi_restore 8
 320              		.cfi_restore 1
 321              		.cfi_def_cfa_offset 0
 322              		.cfi_endproc
 323              	.LFE49:
 325              		.section	.text.ieee80211_is_data,"ax",@progbits
 326              		.align	1
 327              		.globl	ieee80211_is_data
 329              	ieee80211_is_data:
 330              	.LFB50:
  74:C:/Users/stapi/OneDrive/Desktop/GD32VW553/V1_MQTT_OK/GD32VW55X_Wifi_BLE_SDK/GD32VW55x_RELEASE_V1.0.2/MSDK/cloud/alicloud/src/services/awss\zconfig_ieee80211.c ****     return (fc & os_htole16(IEEE80211_FCTL_FTYPE)) ==
 331              		.loc 1 74 1 is_stmt 1
 332              		.cfi_startproc
 333              	.LVL29:
 334 0000 17030000 		call	t0,__riscv_save_1
 334      E7020300 
 335              		.cfi_offset 8, -8
 336              		.cfi_offset 1, -4
 337              		.cfi_def_cfa_offset 16
  75:C:/Users/stapi/OneDrive/Desktop/GD32VW553/V1_MQTT_OK/GD32VW55X_Wifi_BLE_SDK/GD32VW55x_RELEASE_V1.0.2/MSDK/cloud/alicloud/src/services/awss\zconfig_ieee80211.c ****            os_htole16(IEEE80211_FTYPE_DATA);
 338              		.loc 1 75 5
  74:C:/Users/stapi/OneDrive/Desktop/GD32VW553/V1_MQTT_OK/GD32VW55X_Wifi_BLE_SDK/GD32VW55x_RELEASE_V1.0.2/MSDK/cloud/alicloud/src/services/awss\zconfig_ieee80211.c ****     return (fc & os_htole16(IEEE80211_FCTL_FTYPE)) ==
 339              		.loc 1 74 1 is_stmt 0
 340 0008 2A84     		mv	s0,a0
  75:C:/Users/stapi/OneDrive/Desktop/GD32VW553/V1_MQTT_OK/GD32VW55X_Wifi_BLE_SDK/GD32VW55x_RELEASE_V1.0.2/MSDK/cloud/alicloud/src/services/awss\zconfig_ieee80211.c ****            os_htole16(IEEE80211_FTYPE_DATA);
 341              		.loc 1 75 18
 342 000a 3145     		li	a0,12
 343              	.LVL30:
 344 000c 97000000 		call	os_htole16
 344      E7800000 
 345              	.LVL31:
  75:C:/Users/stapi/OneDrive/Desktop/GD32VW553/V1_MQTT_OK/GD32VW55X_Wifi_BLE_SDK/GD32VW55x_RELEASE_V1.0.2/MSDK/cloud/alicloud/src/services/awss\zconfig_ieee80211.c ****            os_htole16(IEEE80211_FTYPE_DATA);
 346              		.loc 1 75 52
 347 0014 698C     		and	s0,a0,s0
  76:C:/Users/stapi/OneDrive/Desktop/GD32VW553/V1_MQTT_OK/GD32VW55X_Wifi_BLE_SDK/GD32VW55x_RELEASE_V1.0.2/MSDK/cloud/alicloud/src/services/awss\zconfig_ieee80211.c **** }
 348              		.loc 1 76 12
 349 0016 2145     		li	a0,8
 350 0018 97000000 		call	os_htole16
 350      E7800000 
 351              	.LVL32:
  75:C:/Users/stapi/OneDrive/Desktop/GD32VW553/V1_MQTT_OK/GD32VW55X_Wifi_BLE_SDK/GD32VW55x_RELEASE_V1.0.2/MSDK/cloud/alicloud/src/services/awss\zconfig_ieee80211.c ****            os_htole16(IEEE80211_FTYPE_DATA);
 352              		.loc 1 75 52
 353 0020 3305A440 		sub	a0,s0,a0
  77:C:/Users/stapi/OneDrive/Desktop/GD32VW553/V1_MQTT_OK/GD32VW55X_Wifi_BLE_SDK/GD32VW55x_RELEASE_V1.0.2/MSDK/cloud/alicloud/src/services/awss\zconfig_ieee80211.c **** 
 354              		.loc 1 77 1
 355 0024 13351500 		seqz	a0,a0
 356 0028 17030000 		tail	__riscv_restore_1
 356      67000300 
 357              		.cfi_restore 8
 358              		.cfi_restore 1
 359              		.cfi_def_cfa_offset 0
 360              		.cfi_endproc
 361              	.LFE50:
 363              		.section	.text.ieee80211_has_tods,"ax",@progbits
 364              		.align	1
 365              		.globl	ieee80211_has_tods
 367              	ieee80211_has_tods:
 368              	.LFB51:
  85:C:/Users/stapi/OneDrive/Desktop/GD32VW553/V1_MQTT_OK/GD32VW55X_Wifi_BLE_SDK/GD32VW55x_RELEASE_V1.0.2/MSDK/cloud/alicloud/src/services/awss\zconfig_ieee80211.c ****     return (fc & os_htole16(IEEE80211_FCTL_TODS)) != 0;
 369              		.loc 1 85 1 is_stmt 1
 370              		.cfi_startproc
 371              	.LVL33:
 372 0000 17030000 		call	t0,__riscv_save_1
 372      E7020300 
 373              		.cfi_offset 8, -8
 374              		.cfi_offset 1, -4
 375              		.cfi_def_cfa_offset 16
  86:C:/Users/stapi/OneDrive/Desktop/GD32VW553/V1_MQTT_OK/GD32VW55X_Wifi_BLE_SDK/GD32VW55x_RELEASE_V1.0.2/MSDK/cloud/alicloud/src/services/awss\zconfig_ieee80211.c **** }
 376              		.loc 1 86 5
  85:C:/Users/stapi/OneDrive/Desktop/GD32VW553/V1_MQTT_OK/GD32VW55X_Wifi_BLE_SDK/GD32VW55x_RELEASE_V1.0.2/MSDK/cloud/alicloud/src/services/awss\zconfig_ieee80211.c ****     return (fc & os_htole16(IEEE80211_FCTL_TODS)) != 0;
 377              		.loc 1 85 1 is_stmt 0
 378 0008 2A84     		mv	s0,a0
  86:C:/Users/stapi/OneDrive/Desktop/GD32VW553/V1_MQTT_OK/GD32VW55X_Wifi_BLE_SDK/GD32VW55x_RELEASE_V1.0.2/MSDK/cloud/alicloud/src/services/awss\zconfig_ieee80211.c **** }
 379              		.loc 1 86 18
 380 000a 13050010 		li	a0,256
 381              	.LVL34:
 382 000e 97000000 		call	os_htole16
 382      E7800000 
 383              	.LVL35:
  86:C:/Users/stapi/OneDrive/Desktop/GD32VW553/V1_MQTT_OK/GD32VW55X_Wifi_BLE_SDK/GD32VW55x_RELEASE_V1.0.2/MSDK/cloud/alicloud/src/services/awss\zconfig_ieee80211.c **** }
 384              		.loc 1 86 51
 385 0016 618D     		and	a0,a0,s0
  87:C:/Users/stapi/OneDrive/Desktop/GD32VW553/V1_MQTT_OK/GD32VW55X_Wifi_BLE_SDK/GD32VW55x_RELEASE_V1.0.2/MSDK/cloud/alicloud/src/services/awss\zconfig_ieee80211.c **** 
 386              		.loc 1 87 1
 387 0018 3335A000 		snez	a0,a0
 388 001c 17030000 		tail	__riscv_restore_1
 388      67000300 
 389              		.cfi_restore 8
 390              		.cfi_restore 1
 391              		.cfi_def_cfa_offset 0
 392              		.cfi_endproc
 393              	.LFE51:
 395              		.section	.text.ieee80211_has_fromds,"ax",@progbits
 396              		.align	1
 397              		.globl	ieee80211_has_fromds
 399              	ieee80211_has_fromds:
 400              	.LFB52:
  94:C:/Users/stapi/OneDrive/Desktop/GD32VW553/V1_MQTT_OK/GD32VW55X_Wifi_BLE_SDK/GD32VW55x_RELEASE_V1.0.2/MSDK/cloud/alicloud/src/services/awss\zconfig_ieee80211.c ****     return (fc & os_htole16(IEEE80211_FCTL_FROMDS)) != 0;
 401              		.loc 1 94 1 is_stmt 1
 402              		.cfi_startproc
 403              	.LVL36:
 404 0000 17030000 		call	t0,__riscv_save_1
 404      E7020300 
 405              		.cfi_offset 8, -8
 406              		.cfi_offset 1, -4
 407              		.cfi_def_cfa_offset 16
  95:C:/Users/stapi/OneDrive/Desktop/GD32VW553/V1_MQTT_OK/GD32VW55X_Wifi_BLE_SDK/GD32VW55x_RELEASE_V1.0.2/MSDK/cloud/alicloud/src/services/awss\zconfig_ieee80211.c **** }
 408              		.loc 1 95 5
  94:C:/Users/stapi/OneDrive/Desktop/GD32VW553/V1_MQTT_OK/GD32VW55X_Wifi_BLE_SDK/GD32VW55x_RELEASE_V1.0.2/MSDK/cloud/alicloud/src/services/awss\zconfig_ieee80211.c ****     return (fc & os_htole16(IEEE80211_FCTL_FROMDS)) != 0;
 409              		.loc 1 94 1 is_stmt 0
 410 0008 2A84     		mv	s0,a0
  95:C:/Users/stapi/OneDrive/Desktop/GD32VW553/V1_MQTT_OK/GD32VW55X_Wifi_BLE_SDK/GD32VW55x_RELEASE_V1.0.2/MSDK/cloud/alicloud/src/services/awss\zconfig_ieee80211.c **** }
 411              		.loc 1 95 18
 412 000a 13050020 		li	a0,512
 413              	.LVL37:
 414 000e 97000000 		call	os_htole16
 414      E7800000 
 415              	.LVL38:
  95:C:/Users/stapi/OneDrive/Desktop/GD32VW553/V1_MQTT_OK/GD32VW55X_Wifi_BLE_SDK/GD32VW55x_RELEASE_V1.0.2/MSDK/cloud/alicloud/src/services/awss\zconfig_ieee80211.c **** }
 416              		.loc 1 95 53
 417 0016 618D     		and	a0,a0,s0
  96:C:/Users/stapi/OneDrive/Desktop/GD32VW553/V1_MQTT_OK/GD32VW55X_Wifi_BLE_SDK/GD32VW55x_RELEASE_V1.0.2/MSDK/cloud/alicloud/src/services/awss\zconfig_ieee80211.c **** 
 418              		.loc 1 96 1
 419 0018 3335A000 		snez	a0,a0
 420 001c 17030000 		tail	__riscv_restore_1
 420      67000300 
 421              		.cfi_restore 8
 422              		.cfi_restore 1
 423              		.cfi_def_cfa_offset 0
 424              		.cfi_endproc
 425              	.LFE52:
 427              		.section	.text.ieee80211_has_a4,"ax",@progbits
 428              		.align	1
 429              		.globl	ieee80211_has_a4
 431              	ieee80211_has_a4:
 432              	.LFB53:
 103:C:/Users/stapi/OneDrive/Desktop/GD32VW553/V1_MQTT_OK/GD32VW55X_Wifi_BLE_SDK/GD32VW55x_RELEASE_V1.0.2/MSDK/cloud/alicloud/src/services/awss\zconfig_ieee80211.c ****     uint16_t tmp = os_htole16(IEEE80211_FCTL_TODS | IEEE80211_FCTL_FROMDS);
 433              		.loc 1 103 1 is_stmt 1
 434              		.cfi_startproc
 435              	.LVL39:
 436 0000 17030000 		call	t0,__riscv_save_1
 436      E7020300 
 437              		.cfi_offset 8, -8
 438              		.cfi_offset 1, -4
 439              		.cfi_def_cfa_offset 16
 104:C:/Users/stapi/OneDrive/Desktop/GD32VW553/V1_MQTT_OK/GD32VW55X_Wifi_BLE_SDK/GD32VW55x_RELEASE_V1.0.2/MSDK/cloud/alicloud/src/services/awss\zconfig_ieee80211.c ****     return (fc & tmp) == tmp;
 440              		.loc 1 104 5
 103:C:/Users/stapi/OneDrive/Desktop/GD32VW553/V1_MQTT_OK/GD32VW55X_Wifi_BLE_SDK/GD32VW55x_RELEASE_V1.0.2/MSDK/cloud/alicloud/src/services/awss\zconfig_ieee80211.c ****     uint16_t tmp = os_htole16(IEEE80211_FCTL_TODS | IEEE80211_FCTL_FROMDS);
 441              		.loc 1 103 1 is_stmt 0
 442 0008 2A84     		mv	s0,a0
 104:C:/Users/stapi/OneDrive/Desktop/GD32VW553/V1_MQTT_OK/GD32VW55X_Wifi_BLE_SDK/GD32VW55x_RELEASE_V1.0.2/MSDK/cloud/alicloud/src/services/awss\zconfig_ieee80211.c ****     return (fc & tmp) == tmp;
 443              		.loc 1 104 20
 444 000a 13050030 		li	a0,768
 445              	.LVL40:
 446 000e 97000000 		call	os_htole16
 446      E7800000 
 447              	.LVL41:
 105:C:/Users/stapi/OneDrive/Desktop/GD32VW553/V1_MQTT_OK/GD32VW55X_Wifi_BLE_SDK/GD32VW55x_RELEASE_V1.0.2/MSDK/cloud/alicloud/src/services/awss\zconfig_ieee80211.c **** }
 448              		.loc 1 105 5 is_stmt 1
 105:C:/Users/stapi/OneDrive/Desktop/GD32VW553/V1_MQTT_OK/GD32VW55X_Wifi_BLE_SDK/GD32VW55x_RELEASE_V1.0.2/MSDK/cloud/alicloud/src/services/awss\zconfig_ieee80211.c **** }
 449              		.loc 1 105 23 is_stmt 0
 450 0016 33758540 		andn	a0,a0,s0
 451              	.LVL42:
 106:C:/Users/stapi/OneDrive/Desktop/GD32VW553/V1_MQTT_OK/GD32VW55X_Wifi_BLE_SDK/GD32VW55x_RELEASE_V1.0.2/MSDK/cloud/alicloud/src/services/awss\zconfig_ieee80211.c **** 
 452              		.loc 1 106 1
 453 001a 13351500 		seqz	a0,a0
 454 001e 17030000 		tail	__riscv_restore_1
 454      67000300 
 455              		.cfi_restore 8
 456              		.cfi_restore 1
 457              		.cfi_def_cfa_offset 0
 458              		.cfi_endproc
 459              	.LFE53:
 461              		.section	.text.ieee80211_has_order,"ax",@progbits
 462              		.align	1
 463              		.globl	ieee80211_has_order
 465              	ieee80211_has_order:
 466              	.LFB54:
 113:C:/Users/stapi/OneDrive/Desktop/GD32VW553/V1_MQTT_OK/GD32VW55X_Wifi_BLE_SDK/GD32VW55x_RELEASE_V1.0.2/MSDK/cloud/alicloud/src/services/awss\zconfig_ieee80211.c ****     return (fc & os_htole16(IEEE80211_FCTL_ORDER)) != 0;
 467              		.loc 1 113 1 is_stmt 1
 468              		.cfi_startproc
 469              	.LVL43:
 470 0000 17030000 		call	t0,__riscv_save_1
 470      E7020300 
 471              		.cfi_offset 8, -8
 472              		.cfi_offset 1, -4
 473              		.cfi_def_cfa_offset 16
 114:C:/Users/stapi/OneDrive/Desktop/GD32VW553/V1_MQTT_OK/GD32VW55X_Wifi_BLE_SDK/GD32VW55x_RELEASE_V1.0.2/MSDK/cloud/alicloud/src/services/awss\zconfig_ieee80211.c **** }
 474              		.loc 1 114 5
 113:C:/Users/stapi/OneDrive/Desktop/GD32VW553/V1_MQTT_OK/GD32VW55X_Wifi_BLE_SDK/GD32VW55x_RELEASE_V1.0.2/MSDK/cloud/alicloud/src/services/awss\zconfig_ieee80211.c ****     return (fc & os_htole16(IEEE80211_FCTL_ORDER)) != 0;
 475              		.loc 1 113 1 is_stmt 0
 476 0008 2A84     		mv	s0,a0
 114:C:/Users/stapi/OneDrive/Desktop/GD32VW553/V1_MQTT_OK/GD32VW55X_Wifi_BLE_SDK/GD32VW55x_RELEASE_V1.0.2/MSDK/cloud/alicloud/src/services/awss\zconfig_ieee80211.c **** }
 477              		.loc 1 114 18
 478 000a 2165     		li	a0,32768
 479              	.LVL44:
 480 000c 97000000 		call	os_htole16
 480      E7800000 
 481              	.LVL45:
 114:C:/Users/stapi/OneDrive/Desktop/GD32VW553/V1_MQTT_OK/GD32VW55X_Wifi_BLE_SDK/GD32VW55x_RELEASE_V1.0.2/MSDK/cloud/alicloud/src/services/awss\zconfig_ieee80211.c **** }
 482              		.loc 1 114 52
 483 0014 618D     		and	a0,a0,s0
 115:C:/Users/stapi/OneDrive/Desktop/GD32VW553/V1_MQTT_OK/GD32VW55X_Wifi_BLE_SDK/GD32VW55x_RELEASE_V1.0.2/MSDK/cloud/alicloud/src/services/awss\zconfig_ieee80211.c **** 
 484              		.loc 1 115 1
 485 0016 3335A000 		snez	a0,a0
 486 001a 17030000 		tail	__riscv_restore_1
 486      67000300 
 487              		.cfi_restore 8
 488              		.cfi_restore 1
 489              		.cfi_def_cfa_offset 0
 490              		.cfi_endproc
 491              	.LFE54:
 493              		.section	.text.ieee80211_has_protected,"ax",@progbits
 494              		.align	1
 495              		.globl	ieee80211_has_protected
 497              	ieee80211_has_protected:
 498              	.LFB55:
 122:C:/Users/stapi/OneDrive/Desktop/GD32VW553/V1_MQTT_OK/GD32VW55X_Wifi_BLE_SDK/GD32VW55x_RELEASE_V1.0.2/MSDK/cloud/alicloud/src/services/awss\zconfig_ieee80211.c ****     return (fc & os_htole16(IEEE80211_FCTL_PROTECTED)) != 0;
 499              		.loc 1 122 1 is_stmt 1
 500              		.cfi_startproc
 501              	.LVL46:
 502 0000 17030000 		call	t0,__riscv_save_1
 502      E7020300 
 503              		.cfi_offset 8, -8
 504              		.cfi_offset 1, -4
 505              		.cfi_def_cfa_offset 16
 123:C:/Users/stapi/OneDrive/Desktop/GD32VW553/V1_MQTT_OK/GD32VW55X_Wifi_BLE_SDK/GD32VW55x_RELEASE_V1.0.2/MSDK/cloud/alicloud/src/services/awss\zconfig_ieee80211.c **** }
 506              		.loc 1 123 5
 122:C:/Users/stapi/OneDrive/Desktop/GD32VW553/V1_MQTT_OK/GD32VW55X_Wifi_BLE_SDK/GD32VW55x_RELEASE_V1.0.2/MSDK/cloud/alicloud/src/services/awss\zconfig_ieee80211.c ****     return (fc & os_htole16(IEEE80211_FCTL_PROTECTED)) != 0;
 507              		.loc 1 122 1 is_stmt 0
 508 0008 2A84     		mv	s0,a0
 123:C:/Users/stapi/OneDrive/Desktop/GD32VW553/V1_MQTT_OK/GD32VW55X_Wifi_BLE_SDK/GD32VW55x_RELEASE_V1.0.2/MSDK/cloud/alicloud/src/services/awss\zconfig_ieee80211.c **** }
 509              		.loc 1 123 18
 510 000a 1165     		li	a0,16384
 511              	.LVL47:
 512 000c 97000000 		call	os_htole16
 512      E7800000 
 513              	.LVL48:
 123:C:/Users/stapi/OneDrive/Desktop/GD32VW553/V1_MQTT_OK/GD32VW55X_Wifi_BLE_SDK/GD32VW55x_RELEASE_V1.0.2/MSDK/cloud/alicloud/src/services/awss\zconfig_ieee80211.c **** }
 514              		.loc 1 123 56
 515 0014 618D     		and	a0,a0,s0
 124:C:/Users/stapi/OneDrive/Desktop/GD32VW553/V1_MQTT_OK/GD32VW55X_Wifi_BLE_SDK/GD32VW55x_RELEASE_V1.0.2/MSDK/cloud/alicloud/src/services/awss\zconfig_ieee80211.c **** 
 516              		.loc 1 124 1
 517 0016 3335A000 		snez	a0,a0
 518 001a 17030000 		tail	__riscv_restore_1
 518      67000300 
 519              		.cfi_restore 8
 520              		.cfi_restore 1
 521              		.cfi_def_cfa_offset 0
 522              		.cfi_endproc
 523              	.LFE55:
 525              		.section	.text.ieee80211_is_data_qos,"ax",@progbits
 526              		.align	1
 527              		.globl	ieee80211_is_data_qos
 529              	ieee80211_is_data_qos:
 530              	.LFB56:
 131:C:/Users/stapi/OneDrive/Desktop/GD32VW553/V1_MQTT_OK/GD32VW55X_Wifi_BLE_SDK/GD32VW55x_RELEASE_V1.0.2/MSDK/cloud/alicloud/src/services/awss\zconfig_ieee80211.c ****     /*
 531              		.loc 1 131 1 is_stmt 1
 532              		.cfi_startproc
 533              	.LVL49:
 534 0000 17030000 		call	t0,__riscv_save_1
 534      E7020300 
 535              		.cfi_offset 8, -8
 536              		.cfi_offset 1, -4
 537              		.cfi_def_cfa_offset 16
 136:C:/Users/stapi/OneDrive/Desktop/GD32VW553/V1_MQTT_OK/GD32VW55X_Wifi_BLE_SDK/GD32VW55x_RELEASE_V1.0.2/MSDK/cloud/alicloud/src/services/awss\zconfig_ieee80211.c ****            os_htole16(IEEE80211_FTYPE_DATA | IEEE80211_STYPE_QOS_DATA);
 538              		.loc 1 136 5
 131:C:/Users/stapi/OneDrive/Desktop/GD32VW553/V1_MQTT_OK/GD32VW55X_Wifi_BLE_SDK/GD32VW55x_RELEASE_V1.0.2/MSDK/cloud/alicloud/src/services/awss\zconfig_ieee80211.c ****     /*
 539              		.loc 1 131 1 is_stmt 0
 540 0008 2A84     		mv	s0,a0
 136:C:/Users/stapi/OneDrive/Desktop/GD32VW553/V1_MQTT_OK/GD32VW55X_Wifi_BLE_SDK/GD32VW55x_RELEASE_V1.0.2/MSDK/cloud/alicloud/src/services/awss\zconfig_ieee80211.c ****            os_htole16(IEEE80211_FTYPE_DATA | IEEE80211_STYPE_QOS_DATA);
 541              		.loc 1 136 18
 542 000a 1305C008 		li	a0,140
 543              	.LVL50:
 544 000e 97000000 		call	os_htole16
 544      E7800000 
 545              	.LVL51:
 136:C:/Users/stapi/OneDrive/Desktop/GD32VW553/V1_MQTT_OK/GD32VW55X_Wifi_BLE_SDK/GD32VW55x_RELEASE_V1.0.2/MSDK/cloud/alicloud/src/services/awss\zconfig_ieee80211.c ****            os_htole16(IEEE80211_FTYPE_DATA | IEEE80211_STYPE_QOS_DATA);
 546              		.loc 1 136 79
 547 0016 698C     		and	s0,a0,s0
 137:C:/Users/stapi/OneDrive/Desktop/GD32VW553/V1_MQTT_OK/GD32VW55X_Wifi_BLE_SDK/GD32VW55x_RELEASE_V1.0.2/MSDK/cloud/alicloud/src/services/awss\zconfig_ieee80211.c **** }
 548              		.loc 1 137 12
 549 0018 13058008 		li	a0,136
 550 001c 97000000 		call	os_htole16
 550      E7800000 
 551              	.LVL52:
 136:C:/Users/stapi/OneDrive/Desktop/GD32VW553/V1_MQTT_OK/GD32VW55X_Wifi_BLE_SDK/GD32VW55x_RELEASE_V1.0.2/MSDK/cloud/alicloud/src/services/awss\zconfig_ieee80211.c ****            os_htole16(IEEE80211_FTYPE_DATA | IEEE80211_STYPE_QOS_DATA);
 552              		.loc 1 136 79
 553 0024 3305A440 		sub	a0,s0,a0
 138:C:/Users/stapi/OneDrive/Desktop/GD32VW553/V1_MQTT_OK/GD32VW55X_Wifi_BLE_SDK/GD32VW55x_RELEASE_V1.0.2/MSDK/cloud/alicloud/src/services/awss\zconfig_ieee80211.c **** 
 554              		.loc 1 138 1
 555 0028 13351500 		seqz	a0,a0
 556 002c 17030000 		tail	__riscv_restore_1
 556      67000300 
 557              		.cfi_restore 8
 558              		.cfi_restore 1
 559              		.cfi_def_cfa_offset 0
 560              		.cfi_endproc
 561              	.LFE56:
 563              		.section	.text.ieee80211_is_data_exact,"ax",@progbits
 564              		.align	1
 565              		.globl	ieee80211_is_data_exact
 567              	ieee80211_is_data_exact:
 568              	.LFB57:
 161:C:/Users/stapi/OneDrive/Desktop/GD32VW553/V1_MQTT_OK/GD32VW55X_Wifi_BLE_SDK/GD32VW55x_RELEASE_V1.0.2/MSDK/cloud/alicloud/src/services/awss\zconfig_ieee80211.c ****     uint16_t tmp = fc & os_htole16(IEEE80211_FCTL_FTYPE | IEEE80211_FCTL_STYPE);
 569              		.loc 1 161 1 is_stmt 1
 570              		.cfi_startproc
 571              	.LVL53:
 572 0000 17030000 		call	t0,__riscv_save_1
 572      E7020300 
 573              		.cfi_offset 8, -8
 574              		.cfi_offset 1, -4
 575              		.cfi_def_cfa_offset 16
 162:C:/Users/stapi/OneDrive/Desktop/GD32VW553/V1_MQTT_OK/GD32VW55X_Wifi_BLE_SDK/GD32VW55x_RELEASE_V1.0.2/MSDK/cloud/alicloud/src/services/awss\zconfig_ieee80211.c **** 
 576              		.loc 1 162 5
 161:C:/Users/stapi/OneDrive/Desktop/GD32VW553/V1_MQTT_OK/GD32VW55X_Wifi_BLE_SDK/GD32VW55x_RELEASE_V1.0.2/MSDK/cloud/alicloud/src/services/awss\zconfig_ieee80211.c ****     uint16_t tmp = fc & os_htole16(IEEE80211_FCTL_FTYPE | IEEE80211_FCTL_STYPE);
 577              		.loc 1 161 1 is_stmt 0
 578 0008 2A84     		mv	s0,a0
 162:C:/Users/stapi/OneDrive/Desktop/GD32VW553/V1_MQTT_OK/GD32VW55X_Wifi_BLE_SDK/GD32VW55x_RELEASE_V1.0.2/MSDK/cloud/alicloud/src/services/awss\zconfig_ieee80211.c **** 
 579              		.loc 1 162 25
 580 000a 1305C00F 		li	a0,252
 581              	.LVL54:
 582 000e 97000000 		call	os_htole16
 582      E7800000 
 583              	.LVL55:
 162:C:/Users/stapi/OneDrive/Desktop/GD32VW553/V1_MQTT_OK/GD32VW55X_Wifi_BLE_SDK/GD32VW55x_RELEASE_V1.0.2/MSDK/cloud/alicloud/src/services/awss\zconfig_ieee80211.c **** 
 584              		.loc 1 162 14
 585 0016 698C     		and	s0,a0,s0
 586              	.LVL56:
 164:C:/Users/stapi/OneDrive/Desktop/GD32VW553/V1_MQTT_OK/GD32VW55X_Wifi_BLE_SDK/GD32VW55x_RELEASE_V1.0.2/MSDK/cloud/alicloud/src/services/awss\zconfig_ieee80211.c ****            (tmp == os_htole16(IEEE80211_FTYPE_DATA | IEEE80211_STYPE_QOS_DATA));
 587              		.loc 1 164 5 is_stmt 1
 164:C:/Users/stapi/OneDrive/Desktop/GD32VW553/V1_MQTT_OK/GD32VW55X_Wifi_BLE_SDK/GD32VW55x_RELEASE_V1.0.2/MSDK/cloud/alicloud/src/services/awss\zconfig_ieee80211.c ****            (tmp == os_htole16(IEEE80211_FTYPE_DATA | IEEE80211_STYPE_QOS_DATA));
 588              		.loc 1 164 20 is_stmt 0
 589 0018 2145     		li	a0,8
 590 001a 97000000 		call	os_htole16
 590      E7800000 
 591              	.LVL57:
 164:C:/Users/stapi/OneDrive/Desktop/GD32VW553/V1_MQTT_OK/GD32VW55X_Wifi_BLE_SDK/GD32VW55x_RELEASE_V1.0.2/MSDK/cloud/alicloud/src/services/awss\zconfig_ieee80211.c ****            (tmp == os_htole16(IEEE80211_FTYPE_DATA | IEEE80211_STYPE_QOS_DATA));
 592              		.loc 1 164 54
 593 0022 630F8500 		beq	a0,s0,.L49
 165:C:/Users/stapi/OneDrive/Desktop/GD32VW553/V1_MQTT_OK/GD32VW55X_Wifi_BLE_SDK/GD32VW55x_RELEASE_V1.0.2/MSDK/cloud/alicloud/src/services/awss\zconfig_ieee80211.c **** }
 594              		.loc 1 165 20 discriminator 2
 595 0026 13058008 		li	a0,136
 596 002a 97000000 		call	os_htole16
 596      E7800000 
 597              	.LVL58:
 164:C:/Users/stapi/OneDrive/Desktop/GD32VW553/V1_MQTT_OK/GD32VW55X_Wifi_BLE_SDK/GD32VW55x_RELEASE_V1.0.2/MSDK/cloud/alicloud/src/services/awss\zconfig_ieee80211.c ****            (tmp == os_htole16(IEEE80211_FTYPE_DATA | IEEE80211_STYPE_QOS_DATA));
 598              		.loc 1 164 54 discriminator 2
 599 0032 018D     		sub	a0,a0,s0
 600 0034 13351500 		seqz	a0,a0
 601              	.L47:
 166:C:/Users/stapi/OneDrive/Desktop/GD32VW553/V1_MQTT_OK/GD32VW55X_Wifi_BLE_SDK/GD32VW55x_RELEASE_V1.0.2/MSDK/cloud/alicloud/src/services/awss\zconfig_ieee80211.c **** 
 602              		.loc 1 166 1
 603 0038 17030000 		tail	__riscv_restore_1
 603      67000300 
 604              		.cfi_remember_state
 605              		.cfi_restore 8
 606              		.cfi_restore 1
 607              		.cfi_def_cfa_offset 0
 608              	.L49:
 609              		.cfi_restore_state
 164:C:/Users/stapi/OneDrive/Desktop/GD32VW553/V1_MQTT_OK/GD32VW55X_Wifi_BLE_SDK/GD32VW55x_RELEASE_V1.0.2/MSDK/cloud/alicloud/src/services/awss\zconfig_ieee80211.c ****            (tmp == os_htole16(IEEE80211_FTYPE_DATA | IEEE80211_STYPE_QOS_DATA));
 610              		.loc 1 164 54
 611 0040 0545     		li	a0,1
 612 0042 DDBF     		j	.L47
 613              		.cfi_endproc
 614              	.LFE57:
 616              		.section	.text.ieee80211_is_beacon,"ax",@progbits
 617              		.align	1
 618              		.globl	ieee80211_is_beacon
 620              	ieee80211_is_beacon:
 621              	.LFB58:
 173:C:/Users/stapi/OneDrive/Desktop/GD32VW553/V1_MQTT_OK/GD32VW55X_Wifi_BLE_SDK/GD32VW55x_RELEASE_V1.0.2/MSDK/cloud/alicloud/src/services/awss\zconfig_ieee80211.c ****     return (fc & os_htole16(IEEE80211_FCTL_FTYPE | IEEE80211_FCTL_STYPE)) ==
 622              		.loc 1 173 1 is_stmt 1
 623              		.cfi_startproc
 624              	.LVL59:
 625 0000 17030000 		call	t0,__riscv_save_1
 625      E7020300 
 626              		.cfi_offset 8, -8
 627              		.cfi_offset 1, -4
 628              		.cfi_def_cfa_offset 16
 174:C:/Users/stapi/OneDrive/Desktop/GD32VW553/V1_MQTT_OK/GD32VW55X_Wifi_BLE_SDK/GD32VW55x_RELEASE_V1.0.2/MSDK/cloud/alicloud/src/services/awss\zconfig_ieee80211.c ****            os_htole16(IEEE80211_FTYPE_MGMT | IEEE80211_STYPE_BEACON);
 629              		.loc 1 174 5
 173:C:/Users/stapi/OneDrive/Desktop/GD32VW553/V1_MQTT_OK/GD32VW55X_Wifi_BLE_SDK/GD32VW55x_RELEASE_V1.0.2/MSDK/cloud/alicloud/src/services/awss\zconfig_ieee80211.c ****     return (fc & os_htole16(IEEE80211_FCTL_FTYPE | IEEE80211_FCTL_STYPE)) ==
 630              		.loc 1 173 1 is_stmt 0
 631 0008 2A84     		mv	s0,a0
 174:C:/Users/stapi/OneDrive/Desktop/GD32VW553/V1_MQTT_OK/GD32VW55X_Wifi_BLE_SDK/GD32VW55x_RELEASE_V1.0.2/MSDK/cloud/alicloud/src/services/awss\zconfig_ieee80211.c ****            os_htole16(IEEE80211_FTYPE_MGMT | IEEE80211_STYPE_BEACON);
 632              		.loc 1 174 18
 633 000a 1305C00F 		li	a0,252
 634              	.LVL60:
 635 000e 97000000 		call	os_htole16
 635      E7800000 
 636              	.LVL61:
 174:C:/Users/stapi/OneDrive/Desktop/GD32VW553/V1_MQTT_OK/GD32VW55X_Wifi_BLE_SDK/GD32VW55x_RELEASE_V1.0.2/MSDK/cloud/alicloud/src/services/awss\zconfig_ieee80211.c ****            os_htole16(IEEE80211_FTYPE_MGMT | IEEE80211_STYPE_BEACON);
 637              		.loc 1 174 75
 638 0016 698C     		and	s0,a0,s0
 175:C:/Users/stapi/OneDrive/Desktop/GD32VW553/V1_MQTT_OK/GD32VW55X_Wifi_BLE_SDK/GD32VW55x_RELEASE_V1.0.2/MSDK/cloud/alicloud/src/services/awss\zconfig_ieee80211.c **** }
 639              		.loc 1 175 12
 640 0018 13050008 		li	a0,128
 641 001c 97000000 		call	os_htole16
 641      E7800000 
 642              	.LVL62:
 174:C:/Users/stapi/OneDrive/Desktop/GD32VW553/V1_MQTT_OK/GD32VW55X_Wifi_BLE_SDK/GD32VW55x_RELEASE_V1.0.2/MSDK/cloud/alicloud/src/services/awss\zconfig_ieee80211.c ****            os_htole16(IEEE80211_FTYPE_MGMT | IEEE80211_STYPE_BEACON);
 643              		.loc 1 174 75
 644 0024 3305A440 		sub	a0,s0,a0
 176:C:/Users/stapi/OneDrive/Desktop/GD32VW553/V1_MQTT_OK/GD32VW55X_Wifi_BLE_SDK/GD32VW55x_RELEASE_V1.0.2/MSDK/cloud/alicloud/src/services/awss\zconfig_ieee80211.c **** 
 645              		.loc 1 176 1
 646 0028 13351500 		seqz	a0,a0
 647 002c 17030000 		tail	__riscv_restore_1
 647      67000300 
 648              		.cfi_restore 8
 649              		.cfi_restore 1
 650              		.cfi_def_cfa_offset 0
 651              		.cfi_endproc
 652              	.LFE58:
 654              		.section	.text.ieee80211_is_probe_req,"ax",@progbits
 655              		.align	1
 656              		.globl	ieee80211_is_probe_req
 658              	ieee80211_is_probe_req:
 659              	.LFB59:
 195:C:/Users/stapi/OneDrive/Desktop/GD32VW553/V1_MQTT_OK/GD32VW55X_Wifi_BLE_SDK/GD32VW55x_RELEASE_V1.0.2/MSDK/cloud/alicloud/src/services/awss\zconfig_ieee80211.c ****     return (fc & os_htole16(IEEE80211_FCTL_FTYPE | IEEE80211_FCTL_STYPE)) ==
 660              		.loc 1 195 1 is_stmt 1
 661              		.cfi_startproc
 662              	.LVL63:
 663 0000 17030000 		call	t0,__riscv_save_1
 663      E7020300 
 664              		.cfi_offset 8, -8
 665              		.cfi_offset 1, -4
 666              		.cfi_def_cfa_offset 16
 196:C:/Users/stapi/OneDrive/Desktop/GD32VW553/V1_MQTT_OK/GD32VW55X_Wifi_BLE_SDK/GD32VW55x_RELEASE_V1.0.2/MSDK/cloud/alicloud/src/services/awss\zconfig_ieee80211.c ****            os_htole16(IEEE80211_FTYPE_MGMT | IEEE80211_STYPE_PROBE_REQ);
 667              		.loc 1 196 5
 195:C:/Users/stapi/OneDrive/Desktop/GD32VW553/V1_MQTT_OK/GD32VW55X_Wifi_BLE_SDK/GD32VW55x_RELEASE_V1.0.2/MSDK/cloud/alicloud/src/services/awss\zconfig_ieee80211.c ****     return (fc & os_htole16(IEEE80211_FCTL_FTYPE | IEEE80211_FCTL_STYPE)) ==
 668              		.loc 1 195 1 is_stmt 0
 669 0008 2A84     		mv	s0,a0
 196:C:/Users/stapi/OneDrive/Desktop/GD32VW553/V1_MQTT_OK/GD32VW55X_Wifi_BLE_SDK/GD32VW55x_RELEASE_V1.0.2/MSDK/cloud/alicloud/src/services/awss\zconfig_ieee80211.c ****            os_htole16(IEEE80211_FTYPE_MGMT | IEEE80211_STYPE_PROBE_REQ);
 670              		.loc 1 196 18
 671 000a 1305C00F 		li	a0,252
 672              	.LVL64:
 673 000e 97000000 		call	os_htole16
 673      E7800000 
 674              	.LVL65:
 196:C:/Users/stapi/OneDrive/Desktop/GD32VW553/V1_MQTT_OK/GD32VW55X_Wifi_BLE_SDK/GD32VW55x_RELEASE_V1.0.2/MSDK/cloud/alicloud/src/services/awss\zconfig_ieee80211.c ****            os_htole16(IEEE80211_FTYPE_MGMT | IEEE80211_STYPE_PROBE_REQ);
 675              		.loc 1 196 75
 676 0016 698C     		and	s0,a0,s0
 197:C:/Users/stapi/OneDrive/Desktop/GD32VW553/V1_MQTT_OK/GD32VW55X_Wifi_BLE_SDK/GD32VW55x_RELEASE_V1.0.2/MSDK/cloud/alicloud/src/services/awss\zconfig_ieee80211.c **** }
 677              		.loc 1 197 12
 678 0018 13050004 		li	a0,64
 679 001c 97000000 		call	os_htole16
 679      E7800000 
 680              	.LVL66:
 196:C:/Users/stapi/OneDrive/Desktop/GD32VW553/V1_MQTT_OK/GD32VW55X_Wifi_BLE_SDK/GD32VW55x_RELEASE_V1.0.2/MSDK/cloud/alicloud/src/services/awss\zconfig_ieee80211.c ****            os_htole16(IEEE80211_FTYPE_MGMT | IEEE80211_STYPE_PROBE_REQ);
 681              		.loc 1 196 75
 682 0024 3305A440 		sub	a0,s0,a0
 198:C:/Users/stapi/OneDrive/Desktop/GD32VW553/V1_MQTT_OK/GD32VW55X_Wifi_BLE_SDK/GD32VW55x_RELEASE_V1.0.2/MSDK/cloud/alicloud/src/services/awss\zconfig_ieee80211.c **** 
 683              		.loc 1 198 1
 684 0028 13351500 		seqz	a0,a0
 685 002c 17030000 		tail	__riscv_restore_1
 685      67000300 
 686              		.cfi_restore 8
 687              		.cfi_restore 1
 688              		.cfi_def_cfa_offset 0
 689              		.cfi_endproc
 690              	.LFE59:
 692              		.section	.text.ieee80211_is_probe_resp,"ax",@progbits
 693              		.align	1
 694              		.globl	ieee80211_is_probe_resp
 696              	ieee80211_is_probe_resp:
 697              	.LFB60:
 205:C:/Users/stapi/OneDrive/Desktop/GD32VW553/V1_MQTT_OK/GD32VW55X_Wifi_BLE_SDK/GD32VW55x_RELEASE_V1.0.2/MSDK/cloud/alicloud/src/services/awss\zconfig_ieee80211.c ****     return (fc & os_htole16(IEEE80211_FCTL_FTYPE | IEEE80211_FCTL_STYPE)) ==
 698              		.loc 1 205 1 is_stmt 1
 699              		.cfi_startproc
 700              	.LVL67:
 701 0000 17030000 		call	t0,__riscv_save_1
 701      E7020300 
 702              		.cfi_offset 8, -8
 703              		.cfi_offset 1, -4
 704              		.cfi_def_cfa_offset 16
 206:C:/Users/stapi/OneDrive/Desktop/GD32VW553/V1_MQTT_OK/GD32VW55X_Wifi_BLE_SDK/GD32VW55x_RELEASE_V1.0.2/MSDK/cloud/alicloud/src/services/awss\zconfig_ieee80211.c ****            os_htole16(IEEE80211_FTYPE_MGMT | IEEE80211_STYPE_PROBE_RESP);
 705              		.loc 1 206 5
 205:C:/Users/stapi/OneDrive/Desktop/GD32VW553/V1_MQTT_OK/GD32VW55X_Wifi_BLE_SDK/GD32VW55x_RELEASE_V1.0.2/MSDK/cloud/alicloud/src/services/awss\zconfig_ieee80211.c ****     return (fc & os_htole16(IEEE80211_FCTL_FTYPE | IEEE80211_FCTL_STYPE)) ==
 706              		.loc 1 205 1 is_stmt 0
 707 0008 2A84     		mv	s0,a0
 206:C:/Users/stapi/OneDrive/Desktop/GD32VW553/V1_MQTT_OK/GD32VW55X_Wifi_BLE_SDK/GD32VW55x_RELEASE_V1.0.2/MSDK/cloud/alicloud/src/services/awss\zconfig_ieee80211.c ****            os_htole16(IEEE80211_FTYPE_MGMT | IEEE80211_STYPE_PROBE_RESP);
 708              		.loc 1 206 18
 709 000a 1305C00F 		li	a0,252
 710              	.LVL68:
 711 000e 97000000 		call	os_htole16
 711      E7800000 
 712              	.LVL69:
 206:C:/Users/stapi/OneDrive/Desktop/GD32VW553/V1_MQTT_OK/GD32VW55X_Wifi_BLE_SDK/GD32VW55x_RELEASE_V1.0.2/MSDK/cloud/alicloud/src/services/awss\zconfig_ieee80211.c ****            os_htole16(IEEE80211_FTYPE_MGMT | IEEE80211_STYPE_PROBE_RESP);
 713              		.loc 1 206 75
 714 0016 698C     		and	s0,a0,s0
 207:C:/Users/stapi/OneDrive/Desktop/GD32VW553/V1_MQTT_OK/GD32VW55X_Wifi_BLE_SDK/GD32VW55x_RELEASE_V1.0.2/MSDK/cloud/alicloud/src/services/awss\zconfig_ieee80211.c **** }
 715              		.loc 1 207 12
 716 0018 13050005 		li	a0,80
 717 001c 97000000 		call	os_htole16
 717      E7800000 
 718              	.LVL70:
 206:C:/Users/stapi/OneDrive/Desktop/GD32VW553/V1_MQTT_OK/GD32VW55X_Wifi_BLE_SDK/GD32VW55x_RELEASE_V1.0.2/MSDK/cloud/alicloud/src/services/awss\zconfig_ieee80211.c ****            os_htole16(IEEE80211_FTYPE_MGMT | IEEE80211_STYPE_PROBE_RESP);
 719              		.loc 1 206 75
 720 0024 3305A440 		sub	a0,s0,a0
 208:C:/Users/stapi/OneDrive/Desktop/GD32VW553/V1_MQTT_OK/GD32VW55X_Wifi_BLE_SDK/GD32VW55x_RELEASE_V1.0.2/MSDK/cloud/alicloud/src/services/awss\zconfig_ieee80211.c **** 
 721              		.loc 1 208 1
 722 0028 13351500 		seqz	a0,a0
 723 002c 17030000 		tail	__riscv_restore_1
 723      67000300 
 724              		.cfi_restore 8
 725              		.cfi_restore 1
 726              		.cfi_def_cfa_offset 0
 727              		.cfi_endproc
 728              	.LFE60:
 730              		.section	.text.ieee80211_get_SA,"ax",@progbits
 731              		.align	1
 732              		.globl	ieee80211_get_SA
 734              	ieee80211_get_SA:
 735              	.LFB61:
 222:C:/Users/stapi/OneDrive/Desktop/GD32VW553/V1_MQTT_OK/GD32VW55X_Wifi_BLE_SDK/GD32VW55x_RELEASE_V1.0.2/MSDK/cloud/alicloud/src/services/awss\zconfig_ieee80211.c ****     if (ieee80211_has_a4(hdr->frame_control)) {
 736              		.loc 1 222 1 is_stmt 1
 737              		.cfi_startproc
 738              	.LVL71:
 739 0000 17030000 		call	t0,__riscv_save_1
 739      E7020300 
 740              		.cfi_offset 8, -8
 741              		.cfi_offset 1, -4
 742              		.cfi_def_cfa_offset 16
 223:C:/Users/stapi/OneDrive/Desktop/GD32VW553/V1_MQTT_OK/GD32VW55X_Wifi_BLE_SDK/GD32VW55x_RELEASE_V1.0.2/MSDK/cloud/alicloud/src/services/awss\zconfig_ieee80211.c ****         return hdr->addr4;
 743              		.loc 1 223 5
 222:C:/Users/stapi/OneDrive/Desktop/GD32VW553/V1_MQTT_OK/GD32VW55X_Wifi_BLE_SDK/GD32VW55x_RELEASE_V1.0.2/MSDK/cloud/alicloud/src/services/awss\zconfig_ieee80211.c ****     if (ieee80211_has_a4(hdr->frame_control)) {
 744              		.loc 1 222 1 is_stmt 0
 745 0008 2A84     		mv	s0,a0
 223:C:/Users/stapi/OneDrive/Desktop/GD32VW553/V1_MQTT_OK/GD32VW55X_Wifi_BLE_SDK/GD32VW55x_RELEASE_V1.0.2/MSDK/cloud/alicloud/src/services/awss\zconfig_ieee80211.c ****         return hdr->addr4;
 746              		.loc 1 223 9
 747 000a 03550500 		lhu	a0,0(a0)
 748              	.LVL72:
 749 000e 97000000 		call	ieee80211_has_a4
 749      E7800000 
 750              	.LVL73:
 224:C:/Users/stapi/OneDrive/Desktop/GD32VW553/V1_MQTT_OK/GD32VW55X_Wifi_BLE_SDK/GD32VW55x_RELEASE_V1.0.2/MSDK/cloud/alicloud/src/services/awss\zconfig_ieee80211.c ****     }
 751              		.loc 1 224 16
 752 0016 93078401 		addi	a5,s0,24
 223:C:/Users/stapi/OneDrive/Desktop/GD32VW553/V1_MQTT_OK/GD32VW55X_Wifi_BLE_SDK/GD32VW55x_RELEASE_V1.0.2/MSDK/cloud/alicloud/src/services/awss\zconfig_ieee80211.c ****         return hdr->addr4;
 753              		.loc 1 223 8
 754 001a 01ED     		bne	a0,zero,.L57
 755              	.LVL74:
 756              	.LBB16:
 757              	.LBB17:
 226:C:/Users/stapi/OneDrive/Desktop/GD32VW553/V1_MQTT_OK/GD32VW55X_Wifi_BLE_SDK/GD32VW55x_RELEASE_V1.0.2/MSDK/cloud/alicloud/src/services/awss\zconfig_ieee80211.c ****         return hdr->addr3;
 758              		.loc 1 226 5 is_stmt 1
 226:C:/Users/stapi/OneDrive/Desktop/GD32VW553/V1_MQTT_OK/GD32VW55X_Wifi_BLE_SDK/GD32VW55x_RELEASE_V1.0.2/MSDK/cloud/alicloud/src/services/awss\zconfig_ieee80211.c ****         return hdr->addr3;
 759              		.loc 1 226 9 is_stmt 0
 760 001c 03550400 		lhu	a0,0(s0)
 761 0020 97000000 		call	ieee80211_has_fromds
 761      E7800000 
 762              	.LVL75:
 229:C:/Users/stapi/OneDrive/Desktop/GD32VW553/V1_MQTT_OK/GD32VW55X_Wifi_BLE_SDK/GD32VW55x_RELEASE_V1.0.2/MSDK/cloud/alicloud/src/services/awss\zconfig_ieee80211.c **** }
 763              		.loc 1 229 12
 764 0028 9307A400 		addi	a5,s0,10
 226:C:/Users/stapi/OneDrive/Desktop/GD32VW553/V1_MQTT_OK/GD32VW55X_Wifi_BLE_SDK/GD32VW55x_RELEASE_V1.0.2/MSDK/cloud/alicloud/src/services/awss\zconfig_ieee80211.c ****         return hdr->addr3;
 765              		.loc 1 226 8
 766 002c 19C1     		beq	a0,zero,.L57
 227:C:/Users/stapi/OneDrive/Desktop/GD32VW553/V1_MQTT_OK/GD32VW55X_Wifi_BLE_SDK/GD32VW55x_RELEASE_V1.0.2/MSDK/cloud/alicloud/src/services/awss\zconfig_ieee80211.c ****     }
 767              		.loc 1 227 9 is_stmt 1
 227:C:/Users/stapi/OneDrive/Desktop/GD32VW553/V1_MQTT_OK/GD32VW55X_Wifi_BLE_SDK/GD32VW55x_RELEASE_V1.0.2/MSDK/cloud/alicloud/src/services/awss\zconfig_ieee80211.c ****     }
 768              		.loc 1 227 16 is_stmt 0
 769 002e 93070401 		addi	a5,s0,16
 770              	.LVL76:
 771              	.L57:
 772              	.LBE17:
 773              	.LBE16:
 230:C:/Users/stapi/OneDrive/Desktop/GD32VW553/V1_MQTT_OK/GD32VW55X_Wifi_BLE_SDK/GD32VW55x_RELEASE_V1.0.2/MSDK/cloud/alicloud/src/services/awss\zconfig_ieee80211.c **** 
 774              		.loc 1 230 1
 775 0032 3E85     		mv	a0,a5
 776 0034 17030000 		tail	__riscv_restore_1
 776      67000300 
 777              		.cfi_restore 8
 778              		.cfi_restore 1
 779              		.cfi_def_cfa_offset 0
 780              		.cfi_endproc
 781              	.LFE61:
 783              		.section	.text.ieee80211_get_DA,"ax",@progbits
 784              		.align	1
 785              		.globl	ieee80211_get_DA
 787              	ieee80211_get_DA:
 788              	.LFB62:
 243:C:/Users/stapi/OneDrive/Desktop/GD32VW553/V1_MQTT_OK/GD32VW55X_Wifi_BLE_SDK/GD32VW55x_RELEASE_V1.0.2/MSDK/cloud/alicloud/src/services/awss\zconfig_ieee80211.c ****     if (ieee80211_has_tods(hdr->frame_control)) {
 789              		.loc 1 243 1 is_stmt 1
 790              		.cfi_startproc
 791              	.LVL77:
 792 0000 17030000 		call	t0,__riscv_save_1
 792      E7020300 
 793              		.cfi_offset 8, -8
 794              		.cfi_offset 1, -4
 795              		.cfi_def_cfa_offset 16
 244:C:/Users/stapi/OneDrive/Desktop/GD32VW553/V1_MQTT_OK/GD32VW55X_Wifi_BLE_SDK/GD32VW55x_RELEASE_V1.0.2/MSDK/cloud/alicloud/src/services/awss\zconfig_ieee80211.c ****         return hdr->addr3;
 796              		.loc 1 244 5
 243:C:/Users/stapi/OneDrive/Desktop/GD32VW553/V1_MQTT_OK/GD32VW55X_Wifi_BLE_SDK/GD32VW55x_RELEASE_V1.0.2/MSDK/cloud/alicloud/src/services/awss\zconfig_ieee80211.c ****     if (ieee80211_has_tods(hdr->frame_control)) {
 797              		.loc 1 243 1 is_stmt 0
 798 0008 2A84     		mv	s0,a0
 244:C:/Users/stapi/OneDrive/Desktop/GD32VW553/V1_MQTT_OK/GD32VW55X_Wifi_BLE_SDK/GD32VW55x_RELEASE_V1.0.2/MSDK/cloud/alicloud/src/services/awss\zconfig_ieee80211.c ****         return hdr->addr3;
 799              		.loc 1 244 9
 800 000a 03550500 		lhu	a0,0(a0)
 801              	.LVL78:
 802 000e 97000000 		call	ieee80211_has_tods
 802      E7800000 
 803              	.LVL79:
 244:C:/Users/stapi/OneDrive/Desktop/GD32VW553/V1_MQTT_OK/GD32VW55X_Wifi_BLE_SDK/GD32VW55x_RELEASE_V1.0.2/MSDK/cloud/alicloud/src/services/awss\zconfig_ieee80211.c ****         return hdr->addr3;
 804              		.loc 1 244 8
 805 0016 19C5     		beq	a0,zero,.L64
 245:C:/Users/stapi/OneDrive/Desktop/GD32VW553/V1_MQTT_OK/GD32VW55X_Wifi_BLE_SDK/GD32VW55x_RELEASE_V1.0.2/MSDK/cloud/alicloud/src/services/awss\zconfig_ieee80211.c ****     } else {
 806              		.loc 1 245 9 is_stmt 1
 245:C:/Users/stapi/OneDrive/Desktop/GD32VW553/V1_MQTT_OK/GD32VW55X_Wifi_BLE_SDK/GD32VW55x_RELEASE_V1.0.2/MSDK/cloud/alicloud/src/services/awss\zconfig_ieee80211.c ****     } else {
 807              		.loc 1 245 16 is_stmt 0
 808 0018 13050401 		addi	a0,s0,16
 809              	.L63:
 249:C:/Users/stapi/OneDrive/Desktop/GD32VW553/V1_MQTT_OK/GD32VW55X_Wifi_BLE_SDK/GD32VW55x_RELEASE_V1.0.2/MSDK/cloud/alicloud/src/services/awss\zconfig_ieee80211.c **** 
 810              		.loc 1 249 1
 811 001c 17030000 		tail	__riscv_restore_1
 811      67000300 
 812              		.cfi_remember_state
 813              		.cfi_restore 8
 814              		.cfi_restore 1
 815              		.cfi_def_cfa_offset 0
 816              	.L64:
 817              		.cfi_restore_state
 247:C:/Users/stapi/OneDrive/Desktop/GD32VW553/V1_MQTT_OK/GD32VW55X_Wifi_BLE_SDK/GD32VW55x_RELEASE_V1.0.2/MSDK/cloud/alicloud/src/services/awss\zconfig_ieee80211.c ****     }
 818              		.loc 1 247 9 is_stmt 1
 247:C:/Users/stapi/OneDrive/Desktop/GD32VW553/V1_MQTT_OK/GD32VW55X_Wifi_BLE_SDK/GD32VW55x_RELEASE_V1.0.2/MSDK/cloud/alicloud/src/services/awss\zconfig_ieee80211.c ****     }
 819              		.loc 1 247 16 is_stmt 0
 820 0024 13054400 		addi	a0,s0,4
 821 0028 D5BF     		j	.L63
 822              		.cfi_endproc
 823              	.LFE62:
 825              		.section	.text.ieee80211_get_BSSID,"ax",@progbits
 826              		.align	1
 827              		.globl	ieee80211_get_BSSID
 829              	ieee80211_get_BSSID:
 830              	.LFB63:
 252:C:/Users/stapi/OneDrive/Desktop/GD32VW553/V1_MQTT_OK/GD32VW55X_Wifi_BLE_SDK/GD32VW55x_RELEASE_V1.0.2/MSDK/cloud/alicloud/src/services/awss\zconfig_ieee80211.c ****     if (ieee80211_has_tods(hdr->frame_control)) {
 831              		.loc 1 252 1 is_stmt 1
 832              		.cfi_startproc
 833              	.LVL80:
 834 0000 17030000 		call	t0,__riscv_save_1
 834      E7020300 
 835              		.cfi_offset 8, -8
 836              		.cfi_offset 1, -4
 837              		.cfi_def_cfa_offset 16
 253:C:/Users/stapi/OneDrive/Desktop/GD32VW553/V1_MQTT_OK/GD32VW55X_Wifi_BLE_SDK/GD32VW55x_RELEASE_V1.0.2/MSDK/cloud/alicloud/src/services/awss\zconfig_ieee80211.c ****         if (!ieee80211_has_fromds(hdr->frame_control)) {
 838              		.loc 1 253 5
 252:C:/Users/stapi/OneDrive/Desktop/GD32VW553/V1_MQTT_OK/GD32VW55X_Wifi_BLE_SDK/GD32VW55x_RELEASE_V1.0.2/MSDK/cloud/alicloud/src/services/awss\zconfig_ieee80211.c ****     if (ieee80211_has_tods(hdr->frame_control)) {
 839              		.loc 1 252 1 is_stmt 0
 840 0008 2A84     		mv	s0,a0
 253:C:/Users/stapi/OneDrive/Desktop/GD32VW553/V1_MQTT_OK/GD32VW55X_Wifi_BLE_SDK/GD32VW55x_RELEASE_V1.0.2/MSDK/cloud/alicloud/src/services/awss\zconfig_ieee80211.c ****         if (!ieee80211_has_fromds(hdr->frame_control)) {
 841              		.loc 1 253 9
 842 000a 03550500 		lhu	a0,0(a0)
 843              	.LVL81:
 844 000e 97000000 		call	ieee80211_has_tods
 844      E7800000 
 845              	.LVL82:
 846 0016 AA87     		mv	a5,a0
 847 0018 03550400 		lhu	a0,0(s0)
 253:C:/Users/stapi/OneDrive/Desktop/GD32VW553/V1_MQTT_OK/GD32VW55X_Wifi_BLE_SDK/GD32VW55x_RELEASE_V1.0.2/MSDK/cloud/alicloud/src/services/awss\zconfig_ieee80211.c ****         if (!ieee80211_has_fromds(hdr->frame_control)) {
 848              		.loc 1 253 8
 849 001c 91CF     		beq	a5,zero,.L68
 850              	.LVL83:
 851              	.LBB20:
 852              	.LBB21:
 254:C:/Users/stapi/OneDrive/Desktop/GD32VW553/V1_MQTT_OK/GD32VW55X_Wifi_BLE_SDK/GD32VW55x_RELEASE_V1.0.2/MSDK/cloud/alicloud/src/services/awss\zconfig_ieee80211.c ****             return hdr->addr1;
 853              		.loc 1 254 9 is_stmt 1
 254:C:/Users/stapi/OneDrive/Desktop/GD32VW553/V1_MQTT_OK/GD32VW55X_Wifi_BLE_SDK/GD32VW55x_RELEASE_V1.0.2/MSDK/cloud/alicloud/src/services/awss\zconfig_ieee80211.c ****             return hdr->addr1;
 854              		.loc 1 254 14 is_stmt 0
 855 001e 97000000 		call	ieee80211_has_fromds
 855      E7800000 
 856              	.LVL84:
 257:C:/Users/stapi/OneDrive/Desktop/GD32VW553/V1_MQTT_OK/GD32VW55X_Wifi_BLE_SDK/GD32VW55x_RELEASE_V1.0.2/MSDK/cloud/alicloud/src/services/awss\zconfig_ieee80211.c ****         }
 857              		.loc 1 257 20
 858 0026 8147     		li	a5,0
 254:C:/Users/stapi/OneDrive/Desktop/GD32VW553/V1_MQTT_OK/GD32VW55X_Wifi_BLE_SDK/GD32VW55x_RELEASE_V1.0.2/MSDK/cloud/alicloud/src/services/awss\zconfig_ieee80211.c ****             return hdr->addr1;
 859              		.loc 1 254 12
 860 0028 19E1     		bne	a0,zero,.L67
 255:C:/Users/stapi/OneDrive/Desktop/GD32VW553/V1_MQTT_OK/GD32VW55X_Wifi_BLE_SDK/GD32VW55x_RELEASE_V1.0.2/MSDK/cloud/alicloud/src/services/awss\zconfig_ieee80211.c ****         } else {
 861              		.loc 1 255 13 is_stmt 1
 255:C:/Users/stapi/OneDrive/Desktop/GD32VW553/V1_MQTT_OK/GD32VW55X_Wifi_BLE_SDK/GD32VW55x_RELEASE_V1.0.2/MSDK/cloud/alicloud/src/services/awss\zconfig_ieee80211.c ****         } else {
 862              		.loc 1 255 20 is_stmt 0
 863 002a 93074400 		addi	a5,s0,4
 864              	.LVL85:
 865              	.L67:
 866              	.LBE21:
 867              	.LBE20:
 266:C:/Users/stapi/OneDrive/Desktop/GD32VW553/V1_MQTT_OK/GD32VW55X_Wifi_BLE_SDK/GD32VW55x_RELEASE_V1.0.2/MSDK/cloud/alicloud/src/services/awss\zconfig_ieee80211.c **** 
 868              		.loc 1 266 1
 869 002e 3E85     		mv	a0,a5
 870 0030 17030000 		tail	__riscv_restore_1
 870      67000300 
 871              		.cfi_remember_state
 872              		.cfi_restore 8
 873              		.cfi_restore 1
 874              		.cfi_def_cfa_offset 0
 875              	.L68:
 876              		.cfi_restore_state
 260:C:/Users/stapi/OneDrive/Desktop/GD32VW553/V1_MQTT_OK/GD32VW55X_Wifi_BLE_SDK/GD32VW55x_RELEASE_V1.0.2/MSDK/cloud/alicloud/src/services/awss\zconfig_ieee80211.c ****             return hdr->addr2;
 877              		.loc 1 260 9 is_stmt 1
 260:C:/Users/stapi/OneDrive/Desktop/GD32VW553/V1_MQTT_OK/GD32VW55X_Wifi_BLE_SDK/GD32VW55x_RELEASE_V1.0.2/MSDK/cloud/alicloud/src/services/awss\zconfig_ieee80211.c ****             return hdr->addr2;
 878              		.loc 1 260 13 is_stmt 0
 879 0038 97000000 		call	ieee80211_has_fromds
 879      E7800000 
 880              	.LVL86:
 263:C:/Users/stapi/OneDrive/Desktop/GD32VW553/V1_MQTT_OK/GD32VW55X_Wifi_BLE_SDK/GD32VW55x_RELEASE_V1.0.2/MSDK/cloud/alicloud/src/services/awss\zconfig_ieee80211.c ****         }
 881              		.loc 1 263 20
 882 0040 93070401 		addi	a5,s0,16
 260:C:/Users/stapi/OneDrive/Desktop/GD32VW553/V1_MQTT_OK/GD32VW55X_Wifi_BLE_SDK/GD32VW55x_RELEASE_V1.0.2/MSDK/cloud/alicloud/src/services/awss\zconfig_ieee80211.c ****             return hdr->addr2;
 883              		.loc 1 260 12
 884 0044 6DD5     		beq	a0,zero,.L67
 261:C:/Users/stapi/OneDrive/Desktop/GD32VW553/V1_MQTT_OK/GD32VW55X_Wifi_BLE_SDK/GD32VW55x_RELEASE_V1.0.2/MSDK/cloud/alicloud/src/services/awss\zconfig_ieee80211.c ****         } else {
 885              		.loc 1 261 13 is_stmt 1
 261:C:/Users/stapi/OneDrive/Desktop/GD32VW553/V1_MQTT_OK/GD32VW55X_Wifi_BLE_SDK/GD32VW55x_RELEASE_V1.0.2/MSDK/cloud/alicloud/src/services/awss\zconfig_ieee80211.c ****         } else {
 886              		.loc 1 261 20 is_stmt 0
 887 0046 9307A400 		addi	a5,s0,10
 888 004a D5B7     		j	.L67
 889              		.cfi_endproc
 890              	.LFE63:
 892              		.section	.text.ieee80211_get_bssid,"ax",@progbits
 893              		.align	1
 894              		.globl	ieee80211_get_bssid
 896              	ieee80211_get_bssid:
 897              	.LFB64:
 269:C:/Users/stapi/OneDrive/Desktop/GD32VW553/V1_MQTT_OK/GD32VW55X_Wifi_BLE_SDK/GD32VW55x_RELEASE_V1.0.2/MSDK/cloud/alicloud/src/services/awss\zconfig_ieee80211.c ****     uint8_t *bssid = ieee80211_get_BSSID((struct ieee80211_hdr *)in);
 898              		.loc 1 269 1 is_stmt 1
 899              		.cfi_startproc
 900              	.LVL87:
 901 0000 17030000 		call	t0,__riscv_save_1
 901      E7020300 
 902              		.cfi_offset 8, -8
 903              		.cfi_offset 1, -4
 904              		.cfi_def_cfa_offset 16
 270:C:/Users/stapi/OneDrive/Desktop/GD32VW553/V1_MQTT_OK/GD32VW55X_Wifi_BLE_SDK/GD32VW55x_RELEASE_V1.0.2/MSDK/cloud/alicloud/src/services/awss\zconfig_ieee80211.c **** 
 905              		.loc 1 270 5
 269:C:/Users/stapi/OneDrive/Desktop/GD32VW553/V1_MQTT_OK/GD32VW55X_Wifi_BLE_SDK/GD32VW55x_RELEASE_V1.0.2/MSDK/cloud/alicloud/src/services/awss\zconfig_ieee80211.c ****     uint8_t *bssid = ieee80211_get_BSSID((struct ieee80211_hdr *)in);
 906              		.loc 1 269 1 is_stmt 0
 907 0008 2E84     		mv	s0,a1
 270:C:/Users/stapi/OneDrive/Desktop/GD32VW553/V1_MQTT_OK/GD32VW55X_Wifi_BLE_SDK/GD32VW55x_RELEASE_V1.0.2/MSDK/cloud/alicloud/src/services/awss\zconfig_ieee80211.c **** 
 908              		.loc 1 270 22
 909 000a 97000000 		call	ieee80211_get_BSSID
 909      E7800000 
 910              	.LVL88:
 272:C:/Users/stapi/OneDrive/Desktop/GD32VW553/V1_MQTT_OK/GD32VW55X_Wifi_BLE_SDK/GD32VW55x_RELEASE_V1.0.2/MSDK/cloud/alicloud/src/services/awss\zconfig_ieee80211.c ****         memcpy(mac, bssid, ETH_ALEN);
 911              		.loc 1 272 5 is_stmt 1
 272:C:/Users/stapi/OneDrive/Desktop/GD32VW553/V1_MQTT_OK/GD32VW55X_Wifi_BLE_SDK/GD32VW55x_RELEASE_V1.0.2/MSDK/cloud/alicloud/src/services/awss\zconfig_ieee80211.c ****         memcpy(mac, bssid, ETH_ALEN);
 912              		.loc 1 272 8 is_stmt 0
 913 0012 09CD     		beq	a0,zero,.L76
 914 0014 AA85     		mv	a1,a0
 273:C:/Users/stapi/OneDrive/Desktop/GD32VW553/V1_MQTT_OK/GD32VW55X_Wifi_BLE_SDK/GD32VW55x_RELEASE_V1.0.2/MSDK/cloud/alicloud/src/services/awss\zconfig_ieee80211.c ****     } else {
 915              		.loc 1 273 9 is_stmt 1
 916 0016 1946     		li	a2,6
 917 0018 2285     		mv	a0,s0
 918              	.LVL89:
 919 001a 97000000 		call	memcpy
 919      E7800000 
 920              	.LVL90:
 278:C:/Users/stapi/OneDrive/Desktop/GD32VW553/V1_MQTT_OK/GD32VW55X_Wifi_BLE_SDK/GD32VW55x_RELEASE_V1.0.2/MSDK/cloud/alicloud/src/services/awss\zconfig_ieee80211.c **** }
 921              		.loc 1 278 5
 278:C:/Users/stapi/OneDrive/Desktop/GD32VW553/V1_MQTT_OK/GD32VW55X_Wifi_BLE_SDK/GD32VW55x_RELEASE_V1.0.2/MSDK/cloud/alicloud/src/services/awss\zconfig_ieee80211.c **** }
 922              		.loc 1 278 12 is_stmt 0
 923 0022 0145     		li	a0,0
 924              	.L74:
 279:C:/Users/stapi/OneDrive/Desktop/GD32VW553/V1_MQTT_OK/GD32VW55X_Wifi_BLE_SDK/GD32VW55x_RELEASE_V1.0.2/MSDK/cloud/alicloud/src/services/awss\zconfig_ieee80211.c **** 
 925              		.loc 1 279 1
 926 0024 17030000 		tail	__riscv_restore_1
 926      67000300 
 927              		.cfi_remember_state
 928              		.cfi_restore 8
 929              		.cfi_restore 1
 930              		.cfi_def_cfa_offset 0
 931              	.LVL91:
 932              	.L76:
 933              		.cfi_restore_state
 275:C:/Users/stapi/OneDrive/Desktop/GD32VW553/V1_MQTT_OK/GD32VW55X_Wifi_BLE_SDK/GD32VW55x_RELEASE_V1.0.2/MSDK/cloud/alicloud/src/services/awss\zconfig_ieee80211.c ****     }
 934              		.loc 1 275 16
 935 002c 7D55     		li	a0,-1
 936              	.LVL92:
 937 002e DDBF     		j	.L74
 938              		.cfi_endproc
 939              	.LFE64:
 941              		.section	.text.ieee80211_has_frags,"ax",@progbits
 942              		.align	1
 943              		.globl	ieee80211_has_frags
 945              	ieee80211_has_frags:
 946              	.LFB65:
 282:C:/Users/stapi/OneDrive/Desktop/GD32VW553/V1_MQTT_OK/GD32VW55X_Wifi_BLE_SDK/GD32VW55x_RELEASE_V1.0.2/MSDK/cloud/alicloud/src/services/awss\zconfig_ieee80211.c ****     uint16_t tmp = fc & os_htole16(IEEE80211_FCTL_MOREFRAGS | IEEE80211_FCTL_ORDER);
 947              		.loc 1 282 1 is_stmt 1
 948              		.cfi_startproc
 949              	.LVL93:
 950 0000 17030000 		call	t0,__riscv_save_1
 950      E7020300 
 951              		.cfi_offset 8, -8
 952              		.cfi_offset 1, -4
 953              		.cfi_def_cfa_offset 16
 283:C:/Users/stapi/OneDrive/Desktop/GD32VW553/V1_MQTT_OK/GD32VW55X_Wifi_BLE_SDK/GD32VW55x_RELEASE_V1.0.2/MSDK/cloud/alicloud/src/services/awss\zconfig_ieee80211.c **** 
 954              		.loc 1 283 5
 282:C:/Users/stapi/OneDrive/Desktop/GD32VW553/V1_MQTT_OK/GD32VW55X_Wifi_BLE_SDK/GD32VW55x_RELEASE_V1.0.2/MSDK/cloud/alicloud/src/services/awss\zconfig_ieee80211.c ****     uint16_t tmp = fc & os_htole16(IEEE80211_FCTL_MOREFRAGS | IEEE80211_FCTL_ORDER);
 955              		.loc 1 282 1 is_stmt 0
 956 0008 2A84     		mv	s0,a0
 283:C:/Users/stapi/OneDrive/Desktop/GD32VW553/V1_MQTT_OK/GD32VW55X_Wifi_BLE_SDK/GD32VW55x_RELEASE_V1.0.2/MSDK/cloud/alicloud/src/services/awss\zconfig_ieee80211.c **** 
 957              		.loc 1 283 25
 958 000a 2165     		li	a0,32768
 959              	.LVL94:
 960 000c 13050540 		addi	a0,a0,1024
 961 0010 97000000 		call	os_htole16
 961      E7800000 
 962              	.LVL95:
 285:C:/Users/stapi/OneDrive/Desktop/GD32VW553/V1_MQTT_OK/GD32VW55X_Wifi_BLE_SDK/GD32VW55x_RELEASE_V1.0.2/MSDK/cloud/alicloud/src/services/awss\zconfig_ieee80211.c **** }
 963              		.loc 1 285 5 is_stmt 1
 285:C:/Users/stapi/OneDrive/Desktop/GD32VW553/V1_MQTT_OK/GD32VW55X_Wifi_BLE_SDK/GD32VW55x_RELEASE_V1.0.2/MSDK/cloud/alicloud/src/services/awss\zconfig_ieee80211.c **** }
 964              		.loc 1 285 12 is_stmt 0
 965 0018 618D     		and	a0,a0,s0
 966              	.LVL96:
 286:C:/Users/stapi/OneDrive/Desktop/GD32VW553/V1_MQTT_OK/GD32VW55X_Wifi_BLE_SDK/GD32VW55x_RELEASE_V1.0.2/MSDK/cloud/alicloud/src/services/awss\zconfig_ieee80211.c **** 
 967              		.loc 1 286 1
 968 001a 3335A000 		snez	a0,a0
 969 001e 17030000 		tail	__riscv_restore_1
 969      67000300 
 970              		.cfi_restore 8
 971              		.cfi_restore 1
 972              		.cfi_def_cfa_offset 0
 973              		.cfi_endproc
 974              	.LFE65:
 976              		.section	.text.ieee80211_hdrlen,"ax",@progbits
 977              		.align	1
 978              		.globl	ieee80211_hdrlen
 980              	ieee80211_hdrlen:
 981              	.LFB66:
 291:C:/Users/stapi/OneDrive/Desktop/GD32VW553/V1_MQTT_OK/GD32VW55X_Wifi_BLE_SDK/GD32VW55x_RELEASE_V1.0.2/MSDK/cloud/alicloud/src/services/awss\zconfig_ieee80211.c ****     uint32_t hdrlen = 24;
 982              		.loc 1 291 1 is_stmt 1
 983              		.cfi_startproc
 984              	.LVL97:
 985 0000 17030000 		call	t0,__riscv_save_2
 985      E7020300 
 986              		.cfi_offset 9, -12
 987              		.cfi_offset 8, -8
 988              		.cfi_offset 1, -4
 989              		.cfi_def_cfa_offset 16
 292:C:/Users/stapi/OneDrive/Desktop/GD32VW553/V1_MQTT_OK/GD32VW55X_Wifi_BLE_SDK/GD32VW55x_RELEASE_V1.0.2/MSDK/cloud/alicloud/src/services/awss\zconfig_ieee80211.c **** 
 990              		.loc 1 292 5
 991              	.LVL98:
 294:C:/Users/stapi/OneDrive/Desktop/GD32VW553/V1_MQTT_OK/GD32VW55X_Wifi_BLE_SDK/GD32VW55x_RELEASE_V1.0.2/MSDK/cloud/alicloud/src/services/awss\zconfig_ieee80211.c ****         if (ieee80211_has_a4(fc)) {
 992              		.loc 1 294 5
 291:C:/Users/stapi/OneDrive/Desktop/GD32VW553/V1_MQTT_OK/GD32VW55X_Wifi_BLE_SDK/GD32VW55x_RELEASE_V1.0.2/MSDK/cloud/alicloud/src/services/awss\zconfig_ieee80211.c ****     uint32_t hdrlen = 24;
 993              		.loc 1 291 1 is_stmt 0
 994 0008 AA84     		mv	s1,a0
 294:C:/Users/stapi/OneDrive/Desktop/GD32VW553/V1_MQTT_OK/GD32VW55X_Wifi_BLE_SDK/GD32VW55x_RELEASE_V1.0.2/MSDK/cloud/alicloud/src/services/awss\zconfig_ieee80211.c ****         if (ieee80211_has_a4(fc)) {
 995              		.loc 1 294 9
 996 000a 97000000 		call	ieee80211_is_data
 996      E7800000 
 997              	.LVL99:
 294:C:/Users/stapi/OneDrive/Desktop/GD32VW553/V1_MQTT_OK/GD32VW55X_Wifi_BLE_SDK/GD32VW55x_RELEASE_V1.0.2/MSDK/cloud/alicloud/src/services/awss\zconfig_ieee80211.c ****         if (ieee80211_has_a4(fc)) {
 998              		.loc 1 294 8
 999 0012 0DCD     		beq	a0,zero,.L81
 295:C:/Users/stapi/OneDrive/Desktop/GD32VW553/V1_MQTT_OK/GD32VW55X_Wifi_BLE_SDK/GD32VW55x_RELEASE_V1.0.2/MSDK/cloud/alicloud/src/services/awss\zconfig_ieee80211.c ****             hdrlen = 30;
 1000              		.loc 1 295 9 is_stmt 1
 295:C:/Users/stapi/OneDrive/Desktop/GD32VW553/V1_MQTT_OK/GD32VW55X_Wifi_BLE_SDK/GD32VW55x_RELEASE_V1.0.2/MSDK/cloud/alicloud/src/services/awss\zconfig_ieee80211.c ****             hdrlen = 30;
 1001              		.loc 1 295 13 is_stmt 0
 1002 0014 2685     		mv	a0,s1
 1003 0016 97000000 		call	ieee80211_has_a4
 1003      E7800000 
 1004              	.LVL100:
 292:C:/Users/stapi/OneDrive/Desktop/GD32VW553/V1_MQTT_OK/GD32VW55X_Wifi_BLE_SDK/GD32VW55x_RELEASE_V1.0.2/MSDK/cloud/alicloud/src/services/awss\zconfig_ieee80211.c **** 
 1005              		.loc 1 292 14
 1006 001e 6144     		li	s0,24
 295:C:/Users/stapi/OneDrive/Desktop/GD32VW553/V1_MQTT_OK/GD32VW55X_Wifi_BLE_SDK/GD32VW55x_RELEASE_V1.0.2/MSDK/cloud/alicloud/src/services/awss\zconfig_ieee80211.c ****             hdrlen = 30;
 1007              		.loc 1 295 12
 1008 0020 11C1     		beq	a0,zero,.L82
 296:C:/Users/stapi/OneDrive/Desktop/GD32VW553/V1_MQTT_OK/GD32VW55X_Wifi_BLE_SDK/GD32VW55x_RELEASE_V1.0.2/MSDK/cloud/alicloud/src/services/awss\zconfig_ieee80211.c ****         }
 1009              		.loc 1 296 20
 1010 0022 7944     		li	s0,30
 1011              	.L82:
 1012              	.LVL101:
 298:C:/Users/stapi/OneDrive/Desktop/GD32VW553/V1_MQTT_OK/GD32VW55X_Wifi_BLE_SDK/GD32VW55x_RELEASE_V1.0.2/MSDK/cloud/alicloud/src/services/awss\zconfig_ieee80211.c ****             hdrlen += IEEE80211_QOS_CTL_LEN;
 1013              		.loc 1 298 9 is_stmt 1
 298:C:/Users/stapi/OneDrive/Desktop/GD32VW553/V1_MQTT_OK/GD32VW55X_Wifi_BLE_SDK/GD32VW55x_RELEASE_V1.0.2/MSDK/cloud/alicloud/src/services/awss\zconfig_ieee80211.c ****             hdrlen += IEEE80211_QOS_CTL_LEN;
 1014              		.loc 1 298 13 is_stmt 0
 1015 0024 2685     		mv	a0,s1
 1016 0026 97000000 		call	ieee80211_is_data_qos
 1016      E7800000 
 1017              	.LVL102:
 298:C:/Users/stapi/OneDrive/Desktop/GD32VW553/V1_MQTT_OK/GD32VW55X_Wifi_BLE_SDK/GD32VW55x_RELEASE_V1.0.2/MSDK/cloud/alicloud/src/services/awss\zconfig_ieee80211.c ****             hdrlen += IEEE80211_QOS_CTL_LEN;
 1018              		.loc 1 298 12
 1019 002e 01C9     		beq	a0,zero,.L83
 299:C:/Users/stapi/OneDrive/Desktop/GD32VW553/V1_MQTT_OK/GD32VW55X_Wifi_BLE_SDK/GD32VW55x_RELEASE_V1.0.2/MSDK/cloud/alicloud/src/services/awss\zconfig_ieee80211.c ****             if (ieee80211_has_order(fc)) {
 1020              		.loc 1 299 13 is_stmt 1
 1021              	.LVL103:
 300:C:/Users/stapi/OneDrive/Desktop/GD32VW553/V1_MQTT_OK/GD32VW55X_Wifi_BLE_SDK/GD32VW55x_RELEASE_V1.0.2/MSDK/cloud/alicloud/src/services/awss\zconfig_ieee80211.c ****                 hdrlen += IEEE80211_HT_CTL_LEN;
 1022              		.loc 1 300 13
 300:C:/Users/stapi/OneDrive/Desktop/GD32VW553/V1_MQTT_OK/GD32VW55X_Wifi_BLE_SDK/GD32VW55x_RELEASE_V1.0.2/MSDK/cloud/alicloud/src/services/awss\zconfig_ieee80211.c ****                 hdrlen += IEEE80211_HT_CTL_LEN;
 1023              		.loc 1 300 17 is_stmt 0
 1024 0030 2685     		mv	a0,s1
 1025 0032 97000000 		call	ieee80211_has_order
 1025      E7800000 
 1026              	.LVL104:
 300:C:/Users/stapi/OneDrive/Desktop/GD32VW553/V1_MQTT_OK/GD32VW55X_Wifi_BLE_SDK/GD32VW55x_RELEASE_V1.0.2/MSDK/cloud/alicloud/src/services/awss\zconfig_ieee80211.c ****                 hdrlen += IEEE80211_HT_CTL_LEN;
 1027              		.loc 1 300 16
 1028 003a 19E5     		bne	a0,zero,.L84
 299:C:/Users/stapi/OneDrive/Desktop/GD32VW553/V1_MQTT_OK/GD32VW55X_Wifi_BLE_SDK/GD32VW55x_RELEASE_V1.0.2/MSDK/cloud/alicloud/src/services/awss\zconfig_ieee80211.c ****             if (ieee80211_has_order(fc)) {
 1029              		.loc 1 299 20
 1030 003c 0904     		addi	s0,s0,2
 1031              	.LVL105:
 1032              	.L83:
 325:C:/Users/stapi/OneDrive/Desktop/GD32VW553/V1_MQTT_OK/GD32VW55X_Wifi_BLE_SDK/GD32VW55x_RELEASE_V1.0.2/MSDK/cloud/alicloud/src/services/awss\zconfig_ieee80211.c **** }
 1033              		.loc 1 325 5 is_stmt 1
 326:C:/Users/stapi/OneDrive/Desktop/GD32VW553/V1_MQTT_OK/GD32VW55X_Wifi_BLE_SDK/GD32VW55x_RELEASE_V1.0.2/MSDK/cloud/alicloud/src/services/awss\zconfig_ieee80211.c **** 
 1034              		.loc 1 326 1 is_stmt 0
 1035 003e 2285     		mv	a0,s0
 1036 0040 17030000 		tail	__riscv_restore_2
 1036      67000300 
 1037              		.cfi_remember_state
 1038              		.cfi_restore 9
 1039              		.cfi_restore 8
 1040              		.cfi_restore 1
 1041              		.cfi_def_cfa_offset 0
 1042              	.LVL106:
 1043              	.L84:
 1044              		.cfi_restore_state
 301:C:/Users/stapi/OneDrive/Desktop/GD32VW553/V1_MQTT_OK/GD32VW55X_Wifi_BLE_SDK/GD32VW55x_RELEASE_V1.0.2/MSDK/cloud/alicloud/src/services/awss\zconfig_ieee80211.c ****             }
 1045              		.loc 1 301 17 is_stmt 1
 301:C:/Users/stapi/OneDrive/Desktop/GD32VW553/V1_MQTT_OK/GD32VW55X_Wifi_BLE_SDK/GD32VW55x_RELEASE_V1.0.2/MSDK/cloud/alicloud/src/services/awss\zconfig_ieee80211.c ****             }
 1046              		.loc 1 301 24 is_stmt 0
 1047 0048 1904     		addi	s0,s0,6
 1048              	.LVL107:
 1049 004a D5BF     		j	.L83
 1050              	.LVL108:
 1051              	.L81:
 307:C:/Users/stapi/OneDrive/Desktop/GD32VW553/V1_MQTT_OK/GD32VW55X_Wifi_BLE_SDK/GD32VW55x_RELEASE_V1.0.2/MSDK/cloud/alicloud/src/services/awss\zconfig_ieee80211.c ****         /*
 1052              		.loc 1 307 5 is_stmt 1
 307:C:/Users/stapi/OneDrive/Desktop/GD32VW553/V1_MQTT_OK/GD32VW55X_Wifi_BLE_SDK/GD32VW55x_RELEASE_V1.0.2/MSDK/cloud/alicloud/src/services/awss\zconfig_ieee80211.c ****         /*
 1053              		.loc 1 307 9 is_stmt 0
 1054 004c 2685     		mv	a0,s1
 1055 004e 97000000 		call	ieee80211_is_ctl
 1055      E7800000 
 1056              	.LVL109:
 292:C:/Users/stapi/OneDrive/Desktop/GD32VW553/V1_MQTT_OK/GD32VW55X_Wifi_BLE_SDK/GD32VW55x_RELEASE_V1.0.2/MSDK/cloud/alicloud/src/services/awss\zconfig_ieee80211.c **** 
 1057              		.loc 1 292 14
 1058 0056 6144     		li	s0,24
 307:C:/Users/stapi/OneDrive/Desktop/GD32VW553/V1_MQTT_OK/GD32VW55X_Wifi_BLE_SDK/GD32VW55x_RELEASE_V1.0.2/MSDK/cloud/alicloud/src/services/awss\zconfig_ieee80211.c ****         /*
 1059              		.loc 1 307 8
 1060 0058 7DD1     		beq	a0,zero,.L83
 317:C:/Users/stapi/OneDrive/Desktop/GD32VW553/V1_MQTT_OK/GD32VW55X_Wifi_BLE_SDK/GD32VW55x_RELEASE_V1.0.2/MSDK/cloud/alicloud/src/services/awss\zconfig_ieee80211.c ****             hdrlen = 10;
 1061              		.loc 1 317 9 is_stmt 1
 317:C:/Users/stapi/OneDrive/Desktop/GD32VW553/V1_MQTT_OK/GD32VW55X_Wifi_BLE_SDK/GD32VW55x_RELEASE_V1.0.2/MSDK/cloud/alicloud/src/services/awss\zconfig_ieee80211.c ****             hdrlen = 10;
 1062              		.loc 1 317 19 is_stmt 0
 1063 005a 1305000E 		li	a0,224
 1064 005e 97000000 		call	os_htole16
 1064      E7800000 
 1065              	.LVL110:
 317:C:/Users/stapi/OneDrive/Desktop/GD32VW553/V1_MQTT_OK/GD32VW55X_Wifi_BLE_SDK/GD32VW55x_RELEASE_V1.0.2/MSDK/cloud/alicloud/src/services/awss\zconfig_ieee80211.c ****             hdrlen = 10;
 1066              		.loc 1 317 39
 1067 0066 E98C     		and	s1,a0,s1
 317:C:/Users/stapi/OneDrive/Desktop/GD32VW553/V1_MQTT_OK/GD32VW55X_Wifi_BLE_SDK/GD32VW55x_RELEASE_V1.0.2/MSDK/cloud/alicloud/src/services/awss\zconfig_ieee80211.c ****             hdrlen = 10;
 1068              		.loc 1 317 42
 1069 0068 1305000C 		li	a0,192
 1070 006c 97000000 		call	os_htole16
 1070      E7800000 
 1071              	.LVL111:
 318:C:/Users/stapi/OneDrive/Desktop/GD32VW553/V1_MQTT_OK/GD32VW55X_Wifi_BLE_SDK/GD32VW55x_RELEASE_V1.0.2/MSDK/cloud/alicloud/src/services/awss\zconfig_ieee80211.c ****         } else {
 1072              		.loc 1 318 20
 1073 0074 2944     		li	s0,10
 317:C:/Users/stapi/OneDrive/Desktop/GD32VW553/V1_MQTT_OK/GD32VW55X_Wifi_BLE_SDK/GD32VW55x_RELEASE_V1.0.2/MSDK/cloud/alicloud/src/services/awss\zconfig_ieee80211.c ****             hdrlen = 10;
 1074              		.loc 1 317 12
 1075 0076 E384A4FC 		beq	s1,a0,.L83
 320:C:/Users/stapi/OneDrive/Desktop/GD32VW553/V1_MQTT_OK/GD32VW55X_Wifi_BLE_SDK/GD32VW55x_RELEASE_V1.0.2/MSDK/cloud/alicloud/src/services/awss\zconfig_ieee80211.c ****         }
 1076              		.loc 1 320 20
 1077 007a 4144     		li	s0,16
 1078 007c C9B7     		j	.L83
 1079              		.cfi_endproc
 1080              	.LFE66:
 1082              		.section	.text.ieee80211_get_radiotap_len,"ax",@progbits
 1083              		.align	1
 1084              		.globl	ieee80211_get_radiotap_len
 1086              	ieee80211_get_radiotap_len:
 1087              	.LFB67:
 330:C:/Users/stapi/OneDrive/Desktop/GD32VW553/V1_MQTT_OK/GD32VW55X_Wifi_BLE_SDK/GD32VW55x_RELEASE_V1.0.2/MSDK/cloud/alicloud/src/services/awss\zconfig_ieee80211.c ****     struct ieee80211_radiotap_header *hdr =
 1088              		.loc 1 330 1 is_stmt 1
 1089              		.cfi_startproc
 1090              	.LVL112:
 331:C:/Users/stapi/OneDrive/Desktop/GD32VW553/V1_MQTT_OK/GD32VW55X_Wifi_BLE_SDK/GD32VW55x_RELEASE_V1.0.2/MSDK/cloud/alicloud/src/services/awss\zconfig_ieee80211.c ****                 (struct ieee80211_radiotap_header *)data;
 1091              		.loc 1 331 5
 334:C:/Users/stapi/OneDrive/Desktop/GD32VW553/V1_MQTT_OK/GD32VW55X_Wifi_BLE_SDK/GD32VW55x_RELEASE_V1.0.2/MSDK/cloud/alicloud/src/services/awss\zconfig_ieee80211.c **** }
 1092              		.loc 1 334 5
 334:C:/Users/stapi/OneDrive/Desktop/GD32VW553/V1_MQTT_OK/GD32VW55X_Wifi_BLE_SDK/GD32VW55x_RELEASE_V1.0.2/MSDK/cloud/alicloud/src/services/awss\zconfig_ieee80211.c **** }
 1093              		.loc 1 334 12 is_stmt 0
 1094 0000 0905     		addi	a0,a0,2
 1095              	.LVL113:
 1096 0002 17030000 		tail	os_get_unaligned_le16
 1096      67000300 
 1097              	.LVL114:
 1098              		.cfi_endproc
 1099              	.LFE67:
 1101              		.section	.text.ieee80211_is_invalid_pkg,"ax",@progbits
 1102              		.align	1
 1103              		.globl	ieee80211_is_invalid_pkg
 1105              	ieee80211_is_invalid_pkg:
 1106              	.LFB68:
 349:C:/Users/stapi/OneDrive/Desktop/GD32VW553/V1_MQTT_OK/GD32VW55X_Wifi_BLE_SDK/GD32VW55x_RELEASE_V1.0.2/MSDK/cloud/alicloud/src/services/awss\zconfig_ieee80211.c **** #define MIN_PKG         (33)
 1107              		.loc 1 349 1 is_stmt 1
 1108              		.cfi_startproc
 1109              	.LVL115:
 352:C:/Users/stapi/OneDrive/Desktop/GD32VW553/V1_MQTT_OK/GD32VW55X_Wifi_BLE_SDK/GD32VW55x_RELEASE_V1.0.2/MSDK/cloud/alicloud/src/services/awss\zconfig_ieee80211.c ****         return 1;
 1110              		.loc 1 352 5
 352:C:/Users/stapi/OneDrive/Desktop/GD32VW553/V1_MQTT_OK/GD32VW55X_Wifi_BLE_SDK/GD32VW55x_RELEASE_V1.0.2/MSDK/cloud/alicloud/src/services/awss\zconfig_ieee80211.c ****         return 1;
 1111              		.loc 1 352 30 is_stmt 0
 1112 0000 1385F5FD 		addi	a0,a1,-33
 1113              	.LVL116:
 352:C:/Users/stapi/OneDrive/Desktop/GD32VW553/V1_MQTT_OK/GD32VW55X_Wifi_BLE_SDK/GD32VW55x_RELEASE_V1.0.2/MSDK/cloud/alicloud/src/services/awss\zconfig_ieee80211.c ****         return 1;
 1114              		.loc 1 352 8
 1115 0004 1335856A 		sltiu	a0,a0,1704
 356:C:/Users/stapi/OneDrive/Desktop/GD32VW553/V1_MQTT_OK/GD32VW55X_Wifi_BLE_SDK/GD32VW55x_RELEASE_V1.0.2/MSDK/cloud/alicloud/src/services/awss\zconfig_ieee80211.c **** 
 1116              		.loc 1 356 1
 1117 0008 13451500 		xori	a0,a0,1
 1118 000c 8280     		ret
 1119              		.cfi_endproc
 1120              	.LFE68:
 1122              		.section	.text.cfg80211_find_ie,"ax",@progbits
 1123              		.align	1
 1124              		.globl	cfg80211_find_ie
 1126              	cfg80211_find_ie:
 1127              	.LFB69:
 359:C:/Users/stapi/OneDrive/Desktop/GD32VW553/V1_MQTT_OK/GD32VW55X_Wifi_BLE_SDK/GD32VW55x_RELEASE_V1.0.2/MSDK/cloud/alicloud/src/services/awss\zconfig_ieee80211.c ****     while (len > 2 && ies[0] != eid) {
 1128              		.loc 1 359 1 is_stmt 1
 1129              		.cfi_startproc
 1130              	.LVL117:
 360:C:/Users/stapi/OneDrive/Desktop/GD32VW553/V1_MQTT_OK/GD32VW55X_Wifi_BLE_SDK/GD32VW55x_RELEASE_V1.0.2/MSDK/cloud/alicloud/src/services/awss\zconfig_ieee80211.c ****         len -= ies[1] + 2;
 1131              		.loc 1 360 5
 359:C:/Users/stapi/OneDrive/Desktop/GD32VW553/V1_MQTT_OK/GD32VW55X_Wifi_BLE_SDK/GD32VW55x_RELEASE_V1.0.2/MSDK/cloud/alicloud/src/services/awss\zconfig_ieee80211.c ****     while (len > 2 && ies[0] != eid) {
 1132              		.loc 1 359 1 is_stmt 0
 1133 0000 2A87     		mv	a4,a0
 360:C:/Users/stapi/OneDrive/Desktop/GD32VW553/V1_MQTT_OK/GD32VW55X_Wifi_BLE_SDK/GD32VW55x_RELEASE_V1.0.2/MSDK/cloud/alicloud/src/services/awss\zconfig_ieee80211.c ****         len -= ies[1] + 2;
 1134              		.loc 1 360 11
 1135 0002 8946     		li	a3,2
 1136 0004 2E85     		mv	a0,a1
 1137              	.LVL118:
 1138              	.L98:
 360:C:/Users/stapi/OneDrive/Desktop/GD32VW553/V1_MQTT_OK/GD32VW55X_Wifi_BLE_SDK/GD32VW55x_RELEASE_V1.0.2/MSDK/cloud/alicloud/src/services/awss\zconfig_ieee80211.c ****         len -= ies[1] + 2;
 1139              		.loc 1 360 11 is_stmt 1
 1140 0006 63D2C602 		ble	a2,a3,.L99
 360:C:/Users/stapi/OneDrive/Desktop/GD32VW553/V1_MQTT_OK/GD32VW55X_Wifi_BLE_SDK/GD32VW55x_RELEASE_V1.0.2/MSDK/cloud/alicloud/src/services/awss\zconfig_ieee80211.c ****         len -= ies[1] + 2;
 1141              		.loc 1 360 20 is_stmt 0 discriminator 1
 1142 000a 83450500 		lbu	a1,0(a0)
 361:C:/Users/stapi/OneDrive/Desktop/GD32VW553/V1_MQTT_OK/GD32VW55X_Wifi_BLE_SDK/GD32VW55x_RELEASE_V1.0.2/MSDK/cloud/alicloud/src/services/awss\zconfig_ieee80211.c ****         ies += ies[1] + 2;
 1143              		.loc 1 361 19 discriminator 1
 1144 000e 83471500 		lbu	a5,1(a0)
 360:C:/Users/stapi/OneDrive/Desktop/GD32VW553/V1_MQTT_OK/GD32VW55X_Wifi_BLE_SDK/GD32VW55x_RELEASE_V1.0.2/MSDK/cloud/alicloud/src/services/awss\zconfig_ieee80211.c ****         len -= ies[1] + 2;
 1145              		.loc 1 360 20 discriminator 1
 1146 0012 6398E500 		bne	a1,a4,.L100
 1147              	.L101:
 367:C:/Users/stapi/OneDrive/Desktop/GD32VW553/V1_MQTT_OK/GD32VW55X_Wifi_BLE_SDK/GD32VW55x_RELEASE_V1.0.2/MSDK/cloud/alicloud/src/services/awss\zconfig_ieee80211.c ****         return NULL;
 1148              		.loc 1 367 5 is_stmt 1
 367:C:/Users/stapi/OneDrive/Desktop/GD32VW553/V1_MQTT_OK/GD32VW55X_Wifi_BLE_SDK/GD32VW55x_RELEASE_V1.0.2/MSDK/cloud/alicloud/src/services/awss\zconfig_ieee80211.c ****         return NULL;
 1149              		.loc 1 367 22 is_stmt 0
 1150 0016 83471500 		lbu	a5,1(a0)
 367:C:/Users/stapi/OneDrive/Desktop/GD32VW553/V1_MQTT_OK/GD32VW55X_Wifi_BLE_SDK/GD32VW55x_RELEASE_V1.0.2/MSDK/cloud/alicloud/src/services/awss\zconfig_ieee80211.c ****         return NULL;
 1151              		.loc 1 367 13
 1152 001a 8507     		addi	a5,a5,1
 367:C:/Users/stapi/OneDrive/Desktop/GD32VW553/V1_MQTT_OK/GD32VW55X_Wifi_BLE_SDK/GD32VW55x_RELEASE_V1.0.2/MSDK/cloud/alicloud/src/services/awss\zconfig_ieee80211.c ****         return NULL;
 1153              		.loc 1 367 8
 1154 001c 63D9C700 		bge	a5,a2,.L103
 1155              	.LVL119:
 1156              	.L97:
 371:C:/Users/stapi/OneDrive/Desktop/GD32VW553/V1_MQTT_OK/GD32VW55X_Wifi_BLE_SDK/GD32VW55x_RELEASE_V1.0.2/MSDK/cloud/alicloud/src/services/awss\zconfig_ieee80211.c **** 
 1157              		.loc 1 371 1
 1158 0020 8280     		ret
 1159              	.LVL120:
 1160              	.L100:
 361:C:/Users/stapi/OneDrive/Desktop/GD32VW553/V1_MQTT_OK/GD32VW55X_Wifi_BLE_SDK/GD32VW55x_RELEASE_V1.0.2/MSDK/cloud/alicloud/src/services/awss\zconfig_ieee80211.c ****         ies += ies[1] + 2;
 1161              		.loc 1 361 9 is_stmt 1
 361:C:/Users/stapi/OneDrive/Desktop/GD32VW553/V1_MQTT_OK/GD32VW55X_Wifi_BLE_SDK/GD32VW55x_RELEASE_V1.0.2/MSDK/cloud/alicloud/src/services/awss\zconfig_ieee80211.c ****         ies += ies[1] + 2;
 1162              		.loc 1 361 23 is_stmt 0
 1163 0022 8907     		addi	a5,a5,2
 361:C:/Users/stapi/OneDrive/Desktop/GD32VW553/V1_MQTT_OK/GD32VW55X_Wifi_BLE_SDK/GD32VW55x_RELEASE_V1.0.2/MSDK/cloud/alicloud/src/services/awss\zconfig_ieee80211.c ****         ies += ies[1] + 2;
 1164              		.loc 1 361 13
 1165 0024 1D8E     		sub	a2,a2,a5
 1166              	.LVL121:
 362:C:/Users/stapi/OneDrive/Desktop/GD32VW553/V1_MQTT_OK/GD32VW55X_Wifi_BLE_SDK/GD32VW55x_RELEASE_V1.0.2/MSDK/cloud/alicloud/src/services/awss\zconfig_ieee80211.c ****     }
 1167              		.loc 1 362 9 is_stmt 1
 362:C:/Users/stapi/OneDrive/Desktop/GD32VW553/V1_MQTT_OK/GD32VW55X_Wifi_BLE_SDK/GD32VW55x_RELEASE_V1.0.2/MSDK/cloud/alicloud/src/services/awss\zconfig_ieee80211.c ****     }
 1168              		.loc 1 362 13 is_stmt 0
 1169 0026 3E95     		add	a0,a0,a5
 1170              	.LVL122:
 1171 0028 F9BF     		j	.L98
 1172              	.L99:
 364:C:/Users/stapi/OneDrive/Desktop/GD32VW553/V1_MQTT_OK/GD32VW55X_Wifi_BLE_SDK/GD32VW55x_RELEASE_V1.0.2/MSDK/cloud/alicloud/src/services/awss\zconfig_ieee80211.c ****         return NULL;
 1173              		.loc 1 364 5 is_stmt 1
 364:C:/Users/stapi/OneDrive/Desktop/GD32VW553/V1_MQTT_OK/GD32VW55X_Wifi_BLE_SDK/GD32VW55x_RELEASE_V1.0.2/MSDK/cloud/alicloud/src/services/awss\zconfig_ieee80211.c ****         return NULL;
 1174              		.loc 1 364 8 is_stmt 0
 1175 002a E306D6FE 		beq	a2,a3,.L101
 1176              	.L103:
 365:C:/Users/stapi/OneDrive/Desktop/GD32VW553/V1_MQTT_OK/GD32VW55X_Wifi_BLE_SDK/GD32VW55x_RELEASE_V1.0.2/MSDK/cloud/alicloud/src/services/awss\zconfig_ieee80211.c ****     }
 1177              		.loc 1 365 16
 1178 002e 0145     		li	a0,0
 1179              	.LVL123:
 1180 0030 C5BF     		j	.L97
 1181              		.cfi_endproc
 1182              	.LFE69:
 1184              		.section	.text.cfg80211_find_vendor_ie,"ax",@progbits
 1185              		.align	1
 1186              		.globl	cfg80211_find_vendor_ie
 1188              	cfg80211_find_vendor_ie:
 1189              	.LFB70:
 390:C:/Users/stapi/OneDrive/Desktop/GD32VW553/V1_MQTT_OK/GD32VW55X_Wifi_BLE_SDK/GD32VW55x_RELEASE_V1.0.2/MSDK/cloud/alicloud/src/services/awss\zconfig_ieee80211.c ****     struct ieee80211_vendor_ie *ie;
 1190              		.loc 1 390 1 is_stmt 1
 1191              		.cfi_startproc
 1192              	.LVL124:
 1193 0000 17030000 		call	t0,__riscv_save_4
 1193      E7020300 
 1194              		.cfi_offset 19, -20
 1195              		.cfi_offset 18, -16
 1196              		.cfi_offset 9, -12
 1197              		.cfi_offset 8, -8
 1198              		.cfi_offset 1, -4
 1199              		.cfi_def_cfa_offset 32
 391:C:/Users/stapi/OneDrive/Desktop/GD32VW553/V1_MQTT_OK/GD32VW55X_Wifi_BLE_SDK/GD32VW55x_RELEASE_V1.0.2/MSDK/cloud/alicloud/src/services/awss\zconfig_ieee80211.c ****     const uint8_t *pos = ies, *end = ies + len;
 1200              		.loc 1 391 5
 392:C:/Users/stapi/OneDrive/Desktop/GD32VW553/V1_MQTT_OK/GD32VW55X_Wifi_BLE_SDK/GD32VW55x_RELEASE_V1.0.2/MSDK/cloud/alicloud/src/services/awss\zconfig_ieee80211.c ****     int ie_oui;
 1201              		.loc 1 392 5
 1202              	.LVL125:
 390:C:/Users/stapi/OneDrive/Desktop/GD32VW553/V1_MQTT_OK/GD32VW55X_Wifi_BLE_SDK/GD32VW55x_RELEASE_V1.0.2/MSDK/cloud/alicloud/src/services/awss\zconfig_ieee80211.c ****     struct ieee80211_vendor_ie *ie;
 1203              		.loc 1 390 1 is_stmt 0
 1204 0008 2E89     		mv	s2,a1
 1205 000a AA84     		mv	s1,a0
 1206 000c B285     		mv	a1,a2
 1207              	.LVL126:
 392:C:/Users/stapi/OneDrive/Desktop/GD32VW553/V1_MQTT_OK/GD32VW55X_Wifi_BLE_SDK/GD32VW55x_RELEASE_V1.0.2/MSDK/cloud/alicloud/src/services/awss\zconfig_ieee80211.c ****     int ie_oui;
 1208              		.loc 1 392 32
 1209 000e 3304D600 		add	s0,a2,a3
 1210              	.LVL127:
 393:C:/Users/stapi/OneDrive/Desktop/GD32VW553/V1_MQTT_OK/GD32VW55X_Wifi_BLE_SDK/GD32VW55x_RELEASE_V1.0.2/MSDK/cloud/alicloud/src/services/awss\zconfig_ieee80211.c **** 
 1211              		.loc 1 393 5 is_stmt 1
 395:C:/Users/stapi/OneDrive/Desktop/GD32VW553/V1_MQTT_OK/GD32VW55X_Wifi_BLE_SDK/GD32VW55x_RELEASE_V1.0.2/MSDK/cloud/alicloud/src/services/awss\zconfig_ieee80211.c ****         pos = cfg80211_find_ie(WLAN_EID_VENDOR_SPECIFIC, pos,
 1212              		.loc 1 395 5
 407:C:/Users/stapi/OneDrive/Desktop/GD32VW553/V1_MQTT_OK/GD32VW55X_Wifi_BLE_SDK/GD32VW55x_RELEASE_V1.0.2/MSDK/cloud/alicloud/src/services/awss\zconfig_ieee80211.c ****             goto cont;
 1213              		.loc 1 407 12 is_stmt 0
 1214 0012 9549     		li	s3,5
 1215              	.LVL128:
 1216              	.L105:
 395:C:/Users/stapi/OneDrive/Desktop/GD32VW553/V1_MQTT_OK/GD32VW55X_Wifi_BLE_SDK/GD32VW55x_RELEASE_V1.0.2/MSDK/cloud/alicloud/src/services/awss\zconfig_ieee80211.c ****         pos = cfg80211_find_ie(WLAN_EID_VENDOR_SPECIFIC, pos,
 1217              		.loc 1 395 11 is_stmt 1
 1218 0014 63E78500 		bltu	a1,s0,.L108
 399:C:/Users/stapi/OneDrive/Desktop/GD32VW553/V1_MQTT_OK/GD32VW55X_Wifi_BLE_SDK/GD32VW55x_RELEASE_V1.0.2/MSDK/cloud/alicloud/src/services/awss\zconfig_ieee80211.c ****         }
 1219              		.loc 1 399 20 is_stmt 0
 1220 0018 0145     		li	a0,0
 1221              	.LVL129:
 1222              	.L104:
 420:C:/Users/stapi/OneDrive/Desktop/GD32VW553/V1_MQTT_OK/GD32VW55X_Wifi_BLE_SDK/GD32VW55x_RELEASE_V1.0.2/MSDK/cloud/alicloud/src/services/awss\zconfig_ieee80211.c **** 
 1223              		.loc 1 420 1
 1224 001a 17030000 		tail	__riscv_restore_4
 1224      67000300 
 1225              		.cfi_remember_state
 1226              		.cfi_restore 19
 1227              		.cfi_restore 18
 1228              		.cfi_restore 9
 1229              		.cfi_restore 8
 1230              		.cfi_restore 1
 1231              		.cfi_def_cfa_offset 0
 1232              	.LVL130:
 1233              	.L108:
 1234              		.cfi_restore_state
 396:C:/Users/stapi/OneDrive/Desktop/GD32VW553/V1_MQTT_OK/GD32VW55X_Wifi_BLE_SDK/GD32VW55x_RELEASE_V1.0.2/MSDK/cloud/alicloud/src/services/awss\zconfig_ieee80211.c ****                                end - pos);
 1235              		.loc 1 396 9 is_stmt 1
 396:C:/Users/stapi/OneDrive/Desktop/GD32VW553/V1_MQTT_OK/GD32VW55X_Wifi_BLE_SDK/GD32VW55x_RELEASE_V1.0.2/MSDK/cloud/alicloud/src/services/awss\zconfig_ieee80211.c ****                                end - pos);
 1236              		.loc 1 396 15 is_stmt 0
 1237 0022 3306B440 		sub	a2,s0,a1
 1238 0026 1305D00D 		li	a0,221
 1239 002a 97000000 		call	cfg80211_find_ie
 1239      E7800000 
 1240              	.LVL131:
 398:C:/Users/stapi/OneDrive/Desktop/GD32VW553/V1_MQTT_OK/GD32VW55X_Wifi_BLE_SDK/GD32VW55x_RELEASE_V1.0.2/MSDK/cloud/alicloud/src/services/awss\zconfig_ieee80211.c ****             return NULL;
 1241              		.loc 1 398 9 is_stmt 1
 398:C:/Users/stapi/OneDrive/Desktop/GD32VW553/V1_MQTT_OK/GD32VW55X_Wifi_BLE_SDK/GD32VW55x_RELEASE_V1.0.2/MSDK/cloud/alicloud/src/services/awss\zconfig_ieee80211.c ****             return NULL;
 1242              		.loc 1 398 12 is_stmt 0
 1243 0032 65D5     		beq	a0,zero,.L104
 402:C:/Users/stapi/OneDrive/Desktop/GD32VW553/V1_MQTT_OK/GD32VW55X_Wifi_BLE_SDK/GD32VW55x_RELEASE_V1.0.2/MSDK/cloud/alicloud/src/services/awss\zconfig_ieee80211.c **** 
 1244              		.loc 1 402 9 is_stmt 1
 1245              	.LVL132:
 407:C:/Users/stapi/OneDrive/Desktop/GD32VW553/V1_MQTT_OK/GD32VW55X_Wifi_BLE_SDK/GD32VW55x_RELEASE_V1.0.2/MSDK/cloud/alicloud/src/services/awss\zconfig_ieee80211.c ****             goto cont;
 1246              		.loc 1 407 9
 407:C:/Users/stapi/OneDrive/Desktop/GD32VW553/V1_MQTT_OK/GD32VW55X_Wifi_BLE_SDK/GD32VW55x_RELEASE_V1.0.2/MSDK/cloud/alicloud/src/services/awss\zconfig_ieee80211.c ****             goto cont;
 1247              		.loc 1 407 15 is_stmt 0
 1248 0034 03461500 		lbu	a2,1(a0)
 407:C:/Users/stapi/OneDrive/Desktop/GD32VW553/V1_MQTT_OK/GD32VW55X_Wifi_BLE_SDK/GD32VW55x_RELEASE_V1.0.2/MSDK/cloud/alicloud/src/services/awss\zconfig_ieee80211.c ****             goto cont;
 1249              		.loc 1 407 12
 1250 0038 63F2C902 		bleu	a2,s3,.L107
 411:C:/Users/stapi/OneDrive/Desktop/GD32VW553/V1_MQTT_OK/GD32VW55X_Wifi_BLE_SDK/GD32VW55x_RELEASE_V1.0.2/MSDK/cloud/alicloud/src/services/awss\zconfig_ieee80211.c ****         //awss_trace("oui=%x, type=%x, len=%d\r\n", ie_oui, oui_type, ie->len);
 1251              		.loc 1 411 9 is_stmt 1
 1252              	.LVL133:
 413:C:/Users/stapi/OneDrive/Desktop/GD32VW553/V1_MQTT_OK/GD32VW55X_Wifi_BLE_SDK/GD32VW55x_RELEASE_V1.0.2/MSDK/cloud/alicloud/src/services/awss\zconfig_ieee80211.c ****             return pos;
 1253              		.loc 1 413 9
 411:C:/Users/stapi/OneDrive/Desktop/GD32VW553/V1_MQTT_OK/GD32VW55X_Wifi_BLE_SDK/GD32VW55x_RELEASE_V1.0.2/MSDK/cloud/alicloud/src/services/awss\zconfig_ieee80211.c ****         //awss_trace("oui=%x, type=%x, len=%d\r\n", ie_oui, oui_type, ie->len);
 1254              		.loc 1 411 25 is_stmt 0
 1255 003c 83472500 		lbu	a5,2(a0)
 411:C:/Users/stapi/OneDrive/Desktop/GD32VW553/V1_MQTT_OK/GD32VW55X_Wifi_BLE_SDK/GD32VW55x_RELEASE_V1.0.2/MSDK/cloud/alicloud/src/services/awss\zconfig_ieee80211.c ****         //awss_trace("oui=%x, type=%x, len=%d\r\n", ie_oui, oui_type, ie->len);
 1256              		.loc 1 411 44
 1257 0040 03473500 		lbu	a4,3(a0)
 411:C:/Users/stapi/OneDrive/Desktop/GD32VW553/V1_MQTT_OK/GD32VW55X_Wifi_BLE_SDK/GD32VW55x_RELEASE_V1.0.2/MSDK/cloud/alicloud/src/services/awss\zconfig_ieee80211.c ****         //awss_trace("oui=%x, type=%x, len=%d\r\n", ie_oui, oui_type, ie->len);
 1258              		.loc 1 411 29
 1259 0044 C207     		slli	a5,a5,16
 411:C:/Users/stapi/OneDrive/Desktop/GD32VW553/V1_MQTT_OK/GD32VW55X_Wifi_BLE_SDK/GD32VW55x_RELEASE_V1.0.2/MSDK/cloud/alicloud/src/services/awss\zconfig_ieee80211.c ****         //awss_trace("oui=%x, type=%x, len=%d\r\n", ie_oui, oui_type, ie->len);
 1260              		.loc 1 411 48
 1261 0046 2207     		slli	a4,a4,8
 411:C:/Users/stapi/OneDrive/Desktop/GD32VW553/V1_MQTT_OK/GD32VW55X_Wifi_BLE_SDK/GD32VW55x_RELEASE_V1.0.2/MSDK/cloud/alicloud/src/services/awss\zconfig_ieee80211.c ****         //awss_trace("oui=%x, type=%x, len=%d\r\n", ie_oui, oui_type, ie->len);
 1262              		.loc 1 411 35
 1263 0048 D98F     		or	a5,a5,a4
 411:C:/Users/stapi/OneDrive/Desktop/GD32VW553/V1_MQTT_OK/GD32VW55X_Wifi_BLE_SDK/GD32VW55x_RELEASE_V1.0.2/MSDK/cloud/alicloud/src/services/awss\zconfig_ieee80211.c ****         //awss_trace("oui=%x, type=%x, len=%d\r\n", ie_oui, oui_type, ie->len);
 1264              		.loc 1 411 62
 1265 004a 03474500 		lbu	a4,4(a0)
 411:C:/Users/stapi/OneDrive/Desktop/GD32VW553/V1_MQTT_OK/GD32VW55X_Wifi_BLE_SDK/GD32VW55x_RELEASE_V1.0.2/MSDK/cloud/alicloud/src/services/awss\zconfig_ieee80211.c ****         //awss_trace("oui=%x, type=%x, len=%d\r\n", ie_oui, oui_type, ie->len);
 1266              		.loc 1 411 16
 1267 004e D98F     		or	a5,a5,a4
 413:C:/Users/stapi/OneDrive/Desktop/GD32VW553/V1_MQTT_OK/GD32VW55X_Wifi_BLE_SDK/GD32VW55x_RELEASE_V1.0.2/MSDK/cloud/alicloud/src/services/awss\zconfig_ieee80211.c ****             return pos;
 1268              		.loc 1 413 12
 1269 0050 6396F400 		bne	s1,a5,.L107
 413:C:/Users/stapi/OneDrive/Desktop/GD32VW553/V1_MQTT_OK/GD32VW55X_Wifi_BLE_SDK/GD32VW55x_RELEASE_V1.0.2/MSDK/cloud/alicloud/src/services/awss\zconfig_ieee80211.c ****             return pos;
 1270              		.loc 1 413 27 discriminator 1
 1271 0054 83475500 		lbu	a5,5(a0)
 1272 0058 E38127FD 		beq	a5,s2,.L104
 1273              	.LVL134:
 1274              	.L107:
 417:C:/Users/stapi/OneDrive/Desktop/GD32VW553/V1_MQTT_OK/GD32VW55X_Wifi_BLE_SDK/GD32VW55x_RELEASE_V1.0.2/MSDK/cloud/alicloud/src/services/awss\zconfig_ieee80211.c ****     }
 1275              		.loc 1 417 9 is_stmt 1
 417:C:/Users/stapi/OneDrive/Desktop/GD32VW553/V1_MQTT_OK/GD32VW55X_Wifi_BLE_SDK/GD32VW55x_RELEASE_V1.0.2/MSDK/cloud/alicloud/src/services/awss\zconfig_ieee80211.c ****     }
 1276              		.loc 1 417 18 is_stmt 0
 1277 005c 0906     		addi	a2,a2,2
 417:C:/Users/stapi/OneDrive/Desktop/GD32VW553/V1_MQTT_OK/GD32VW55X_Wifi_BLE_SDK/GD32VW55x_RELEASE_V1.0.2/MSDK/cloud/alicloud/src/services/awss\zconfig_ieee80211.c ****     }
 1278              		.loc 1 417 13
 1279 005e B305C500 		add	a1,a0,a2
 1280              	.LVL135:
 1281 0062 4DBF     		j	.L105
 1282              		.cfi_endproc
 1283              	.LFE70:
 1285              		.section	.text.ieee80211_get_ssid,"ax",@progbits
 1286              		.align	1
 1287              		.globl	ieee80211_get_ssid
 1289              	ieee80211_get_ssid:
 1290              	.LFB71:
 433:C:/Users/stapi/OneDrive/Desktop/GD32VW553/V1_MQTT_OK/GD32VW55X_Wifi_BLE_SDK/GD32VW55x_RELEASE_V1.0.2/MSDK/cloud/alicloud/src/services/awss\zconfig_ieee80211.c ****     uint16_t ieoffset = offsetof(struct ieee80211_mgmt, u.beacon.variable);//same as u.probe_resp.v
 1291              		.loc 1 433 1 is_stmt 1
 1292              		.cfi_startproc
 1293              	.LVL136:
 1294 0000 17030000 		call	t0,__riscv_save_2
 1294      E7020300 
 1295              		.cfi_offset 9, -12
 1296              		.cfi_offset 8, -8
 1297              		.cfi_offset 1, -4
 1298              		.cfi_def_cfa_offset 16
 434:C:/Users/stapi/OneDrive/Desktop/GD32VW553/V1_MQTT_OK/GD32VW55X_Wifi_BLE_SDK/GD32VW55x_RELEASE_V1.0.2/MSDK/cloud/alicloud/src/services/awss\zconfig_ieee80211.c ****     const uint8_t *ptr = cfg80211_find_ie(WLAN_EID_SSID,
 1299              		.loc 1 434 5
 1300              	.LVL137:
 435:C:/Users/stapi/OneDrive/Desktop/GD32VW553/V1_MQTT_OK/GD32VW55X_Wifi_BLE_SDK/GD32VW55x_RELEASE_V1.0.2/MSDK/cloud/alicloud/src/services/awss\zconfig_ieee80211.c ****                                           beacon_frame + ieoffset, frame_len - ieoffset);
 1301              		.loc 1 435 5
 433:C:/Users/stapi/OneDrive/Desktop/GD32VW553/V1_MQTT_OK/GD32VW55X_Wifi_BLE_SDK/GD32VW55x_RELEASE_V1.0.2/MSDK/cloud/alicloud/src/services/awss\zconfig_ieee80211.c ****     uint16_t ieoffset = offsetof(struct ieee80211_mgmt, u.beacon.variable);//same as u.probe_resp.v
 1302              		.loc 1 433 1 is_stmt 0
 1303 0008 3284     		mv	s0,a2
 435:C:/Users/stapi/OneDrive/Desktop/GD32VW553/V1_MQTT_OK/GD32VW55X_Wifi_BLE_SDK/GD32VW55x_RELEASE_V1.0.2/MSDK/cloud/alicloud/src/services/awss\zconfig_ieee80211.c ****                                           beacon_frame + ieoffset, frame_len - ieoffset);
 1304              		.loc 1 435 26
 1305 000a 1386C5FD 		addi	a2,a1,-36
 1306              	.LVL138:
 1307 000e 93054502 		addi	a1,a0,36
 1308              	.LVL139:
 1309 0012 0145     		li	a0,0
 1310              	.LVL140:
 1311 0014 97000000 		call	cfg80211_find_ie
 1311      E7800000 
 1312              	.LVL141:
 437:C:/Users/stapi/OneDrive/Desktop/GD32VW553/V1_MQTT_OK/GD32VW55X_Wifi_BLE_SDK/GD32VW55x_RELEASE_V1.0.2/MSDK/cloud/alicloud/src/services/awss\zconfig_ieee80211.c ****         uint8_t ssid_len = ptr[1];
 1313              		.loc 1 437 5 is_stmt 1
 437:C:/Users/stapi/OneDrive/Desktop/GD32VW553/V1_MQTT_OK/GD32VW55X_Wifi_BLE_SDK/GD32VW55x_RELEASE_V1.0.2/MSDK/cloud/alicloud/src/services/awss\zconfig_ieee80211.c ****         uint8_t ssid_len = ptr[1];
 1314              		.loc 1 437 8 is_stmt 0
 1315 001c 05C9     		beq	a0,zero,.L115
 1316              	.LBB22:
 438:C:/Users/stapi/OneDrive/Desktop/GD32VW553/V1_MQTT_OK/GD32VW55X_Wifi_BLE_SDK/GD32VW55x_RELEASE_V1.0.2/MSDK/cloud/alicloud/src/services/awss\zconfig_ieee80211.c ****         if (ssid_len <= 32) {    /* ssid 32 octets at most */
 1317              		.loc 1 438 17
 1318 001e 83441500 		lbu	s1,1(a0)
 439:C:/Users/stapi/OneDrive/Desktop/GD32VW553/V1_MQTT_OK/GD32VW55X_Wifi_BLE_SDK/GD32VW55x_RELEASE_V1.0.2/MSDK/cloud/alicloud/src/services/awss\zconfig_ieee80211.c ****             memcpy(ssid, ptr + 2, ssid_len);/* eating EID & len */
 1319              		.loc 1 439 12
 1320 0022 93070002 		li	a5,32
 1321 0026 AA85     		mv	a1,a0
 438:C:/Users/stapi/OneDrive/Desktop/GD32VW553/V1_MQTT_OK/GD32VW55X_Wifi_BLE_SDK/GD32VW55x_RELEASE_V1.0.2/MSDK/cloud/alicloud/src/services/awss\zconfig_ieee80211.c ****         if (ssid_len <= 32) {    /* ssid 32 octets at most */
 1322              		.loc 1 438 9 is_stmt 1
 1323              	.LVL142:
 439:C:/Users/stapi/OneDrive/Desktop/GD32VW553/V1_MQTT_OK/GD32VW55X_Wifi_BLE_SDK/GD32VW55x_RELEASE_V1.0.2/MSDK/cloud/alicloud/src/services/awss\zconfig_ieee80211.c ****             memcpy(ssid, ptr + 2, ssid_len);/* eating EID & len */
 1324              		.loc 1 439 9
 1325              	.LBE22:
 446:C:/Users/stapi/OneDrive/Desktop/GD32VW553/V1_MQTT_OK/GD32VW55X_Wifi_BLE_SDK/GD32VW55x_RELEASE_V1.0.2/MSDK/cloud/alicloud/src/services/awss\zconfig_ieee80211.c **** }
 1326              		.loc 1 446 12 is_stmt 0
 1327 0028 7D55     		li	a0,-1
 1328              	.LVL143:
 1329              	.LBB23:
 439:C:/Users/stapi/OneDrive/Desktop/GD32VW553/V1_MQTT_OK/GD32VW55X_Wifi_BLE_SDK/GD32VW55x_RELEASE_V1.0.2/MSDK/cloud/alicloud/src/services/awss\zconfig_ieee80211.c ****             memcpy(ssid, ptr + 2, ssid_len);/* eating EID & len */
 1330              		.loc 1 439 12
 1331 002a 63ED9700 		bgtu	s1,a5,.L113
 440:C:/Users/stapi/OneDrive/Desktop/GD32VW553/V1_MQTT_OK/GD32VW55X_Wifi_BLE_SDK/GD32VW55x_RELEASE_V1.0.2/MSDK/cloud/alicloud/src/services/awss\zconfig_ieee80211.c ****             ssid[ssid_len] = '\0';
 1332              		.loc 1 440 13 is_stmt 1
 1333 002e 2285     		mv	a0,s0
 1334 0030 2686     		mv	a2,s1
 1335 0032 8905     		addi	a1,a1,2
 1336              	.LVL144:
 1337 0034 97000000 		call	memcpy
 1337      E7800000 
 1338              	.LVL145:
 441:C:/Users/stapi/OneDrive/Desktop/GD32VW553/V1_MQTT_OK/GD32VW55X_Wifi_BLE_SDK/GD32VW55x_RELEASE_V1.0.2/MSDK/cloud/alicloud/src/services/awss\zconfig_ieee80211.c ****             return 0;
 1339              		.loc 1 441 13
 441:C:/Users/stapi/OneDrive/Desktop/GD32VW553/V1_MQTT_OK/GD32VW55X_Wifi_BLE_SDK/GD32VW55x_RELEASE_V1.0.2/MSDK/cloud/alicloud/src/services/awss\zconfig_ieee80211.c ****             return 0;
 1340              		.loc 1 441 28 is_stmt 0
 1341 003c 2694     		add	s0,s0,s1
 1342              	.LVL146:
 1343 003e 23000400 		sb	zero,0(s0)
 442:C:/Users/stapi/OneDrive/Desktop/GD32VW553/V1_MQTT_OK/GD32VW55X_Wifi_BLE_SDK/GD32VW55x_RELEASE_V1.0.2/MSDK/cloud/alicloud/src/services/awss\zconfig_ieee80211.c ****         }
 1344              		.loc 1 442 13 is_stmt 1
 442:C:/Users/stapi/OneDrive/Desktop/GD32VW553/V1_MQTT_OK/GD32VW55X_Wifi_BLE_SDK/GD32VW55x_RELEASE_V1.0.2/MSDK/cloud/alicloud/src/services/awss\zconfig_ieee80211.c ****         }
 1345              		.loc 1 442 20 is_stmt 0
 1346 0042 0145     		li	a0,0
 1347              	.LVL147:
 1348              	.L113:
 1349              	.LBE23:
 447:C:/Users/stapi/OneDrive/Desktop/GD32VW553/V1_MQTT_OK/GD32VW55X_Wifi_BLE_SDK/GD32VW55x_RELEASE_V1.0.2/MSDK/cloud/alicloud/src/services/awss\zconfig_ieee80211.c **** 
 1350              		.loc 1 447 1
 1351 0044 17030000 		tail	__riscv_restore_2
 1351      67000300 
 1352              		.cfi_remember_state
 1353              		.cfi_restore 9
 1354              		.cfi_restore 8
 1355              		.cfi_restore 1
 1356              		.cfi_def_cfa_offset 0
 1357              	.LVL148:
 1358              	.L115:
 1359              		.cfi_restore_state
 446:C:/Users/stapi/OneDrive/Desktop/GD32VW553/V1_MQTT_OK/GD32VW55X_Wifi_BLE_SDK/GD32VW55x_RELEASE_V1.0.2/MSDK/cloud/alicloud/src/services/awss\zconfig_ieee80211.c **** }
 1360              		.loc 1 446 12
 1361 004c 7D55     		li	a0,-1
 1362              	.LVL149:
 1363 004e DDBF     		j	.L113
 1364              		.cfi_endproc
 1365              	.LFE71:
 1367              		.section	.text.cfg80211_get_bss_channel,"ax",@progbits
 1368              		.align	1
 1369              		.globl	cfg80211_get_bss_channel
 1371              	cfg80211_get_bss_channel:
 1372              	.LFB72:
 459:C:/Users/stapi/OneDrive/Desktop/GD32VW553/V1_MQTT_OK/GD32VW55X_Wifi_BLE_SDK/GD32VW55x_RELEASE_V1.0.2/MSDK/cloud/alicloud/src/services/awss\zconfig_ieee80211.c ****     uint16_t ieoffset = offsetof(struct ieee80211_mgmt, u.beacon.variable);//same as u.probe_resp.v
 1373              		.loc 1 459 1 is_stmt 1
 1374              		.cfi_startproc
 1375              	.LVL150:
 1376 0000 17030000 		call	t0,__riscv_save_0
 1376      E7020300 
 1377              		.cfi_offset 1, -4
 1378              		.cfi_def_cfa_offset 16
 460:C:/Users/stapi/OneDrive/Desktop/GD32VW553/V1_MQTT_OK/GD32VW55X_Wifi_BLE_SDK/GD32VW55x_RELEASE_V1.0.2/MSDK/cloud/alicloud/src/services/awss\zconfig_ieee80211.c ****     const uint8_t *ie = beacon_frame + ieoffset;
 1379              		.loc 1 460 5
 1380              	.LVL151:
 461:C:/Users/stapi/OneDrive/Desktop/GD32VW553/V1_MQTT_OK/GD32VW55X_Wifi_BLE_SDK/GD32VW55x_RELEASE_V1.0.2/MSDK/cloud/alicloud/src/services/awss\zconfig_ieee80211.c ****     uint16_t ielen = frame_len - ieoffset;
 1381              		.loc 1 461 5
 459:C:/Users/stapi/OneDrive/Desktop/GD32VW553/V1_MQTT_OK/GD32VW55X_Wifi_BLE_SDK/GD32VW55x_RELEASE_V1.0.2/MSDK/cloud/alicloud/src/services/awss\zconfig_ieee80211.c ****     uint16_t ieoffset = offsetof(struct ieee80211_mgmt, u.beacon.variable);//same as u.probe_resp.v
 1382              		.loc 1 459 1 is_stmt 0
 1383 0008 2E86     		mv	a2,a1
 1384 000a 4111     		addi	sp,sp,-16
 1385              		.cfi_def_cfa_offset 32
 461:C:/Users/stapi/OneDrive/Desktop/GD32VW553/V1_MQTT_OK/GD32VW55X_Wifi_BLE_SDK/GD32VW55x_RELEASE_V1.0.2/MSDK/cloud/alicloud/src/services/awss\zconfig_ieee80211.c ****     uint16_t ielen = frame_len - ieoffset;
 1386              		.loc 1 461 20
 1387 000c 93054502 		addi	a1,a0,36
 1388              	.LVL152:
 462:C:/Users/stapi/OneDrive/Desktop/GD32VW553/V1_MQTT_OK/GD32VW55X_Wifi_BLE_SDK/GD32VW55x_RELEASE_V1.0.2/MSDK/cloud/alicloud/src/services/awss\zconfig_ieee80211.c **** 
 1389              		.loc 1 462 5 is_stmt 1
 464:C:/Users/stapi/OneDrive/Desktop/GD32VW553/V1_MQTT_OK/GD32VW55X_Wifi_BLE_SDK/GD32VW55x_RELEASE_V1.0.2/MSDK/cloud/alicloud/src/services/awss\zconfig_ieee80211.c ****     int channel_number = 0;
 1390              		.loc 1 464 5
 465:C:/Users/stapi/OneDrive/Desktop/GD32VW553/V1_MQTT_OK/GD32VW55X_Wifi_BLE_SDK/GD32VW55x_RELEASE_V1.0.2/MSDK/cloud/alicloud/src/services/awss\zconfig_ieee80211.c **** 
 1391              		.loc 1 465 5
 467:C:/Users/stapi/OneDrive/Desktop/GD32VW553/V1_MQTT_OK/GD32VW55X_Wifi_BLE_SDK/GD32VW55x_RELEASE_V1.0.2/MSDK/cloud/alicloud/src/services/awss\zconfig_ieee80211.c ****     if (tmp && tmp[1] == 1) {
 1392              		.loc 1 467 5
 462:C:/Users/stapi/OneDrive/Desktop/GD32VW553/V1_MQTT_OK/GD32VW55X_Wifi_BLE_SDK/GD32VW55x_RELEASE_V1.0.2/MSDK/cloud/alicloud/src/services/awss\zconfig_ieee80211.c **** 
 1393              		.loc 1 462 14 is_stmt 0
 1394 0010 1306C6FD 		addi	a2,a2,-36
 1395              	.LVL153:
 467:C:/Users/stapi/OneDrive/Desktop/GD32VW553/V1_MQTT_OK/GD32VW55X_Wifi_BLE_SDK/GD32VW55x_RELEASE_V1.0.2/MSDK/cloud/alicloud/src/services/awss\zconfig_ieee80211.c ****     if (tmp && tmp[1] == 1) {
 1396              		.loc 1 467 11
 1397 0014 0D45     		li	a0,3
 1398              	.LVL154:
 1399 0016 33460608 		zext.h	a2,a2
 1400 001a 2EC4     		sw	a1,8(sp)
 1401 001c 32C6     		sw	a2,12(sp)
 1402 001e 97000000 		call	cfg80211_find_ie
 1402      E7800000 
 1403              	.LVL155:
 468:C:/Users/stapi/OneDrive/Desktop/GD32VW553/V1_MQTT_OK/GD32VW55X_Wifi_BLE_SDK/GD32VW55x_RELEASE_V1.0.2/MSDK/cloud/alicloud/src/services/awss\zconfig_ieee80211.c ****         channel_number = tmp[2];
 1404              		.loc 1 468 5 is_stmt 1
 468:C:/Users/stapi/OneDrive/Desktop/GD32VW553/V1_MQTT_OK/GD32VW55X_Wifi_BLE_SDK/GD32VW55x_RELEASE_V1.0.2/MSDK/cloud/alicloud/src/services/awss\zconfig_ieee80211.c ****         channel_number = tmp[2];
 1405              		.loc 1 468 8 is_stmt 0
 1406 0026 A245     		lw	a1,8(sp)
 1407 0028 3246     		lw	a2,12(sp)
 1408 002a 09CD     		beq	a0,zero,.L119
 468:C:/Users/stapi/OneDrive/Desktop/GD32VW553/V1_MQTT_OK/GD32VW55X_Wifi_BLE_SDK/GD32VW55x_RELEASE_V1.0.2/MSDK/cloud/alicloud/src/services/awss\zconfig_ieee80211.c ****         channel_number = tmp[2];
 1409              		.loc 1 468 13 discriminator 1
 1410 002c 03471500 		lbu	a4,1(a0)
 1411 0030 8547     		li	a5,1
 1412 0032 6319F700 		bne	a4,a5,.L119
 469:C:/Users/stapi/OneDrive/Desktop/GD32VW553/V1_MQTT_OK/GD32VW55X_Wifi_BLE_SDK/GD32VW55x_RELEASE_V1.0.2/MSDK/cloud/alicloud/src/services/awss\zconfig_ieee80211.c ****     } else {
 1413              		.loc 1 469 9 is_stmt 1
 469:C:/Users/stapi/OneDrive/Desktop/GD32VW553/V1_MQTT_OK/GD32VW55X_Wifi_BLE_SDK/GD32VW55x_RELEASE_V1.0.2/MSDK/cloud/alicloud/src/services/awss\zconfig_ieee80211.c ****     } else {
 1414              		.loc 1 469 24 is_stmt 0
 1415 0036 03452500 		lbu	a0,2(a0)
 1416              	.LVL156:
 1417              	.L118:
 480:C:/Users/stapi/OneDrive/Desktop/GD32VW553/V1_MQTT_OK/GD32VW55X_Wifi_BLE_SDK/GD32VW55x_RELEASE_V1.0.2/MSDK/cloud/alicloud/src/services/awss\zconfig_ieee80211.c **** 
 1418              		.loc 1 480 1
 1419 003a 4101     		addi	sp,sp,16
 1420              		.cfi_remember_state
 1421              		.cfi_def_cfa_offset 0
 1422              	.LVL157:
 1423 003c 17030000 		tail	__riscv_restore_0
 1423      67000300 
 1424              		.cfi_restore 1
 1425              		.cfi_def_cfa_offset -16
 1426              	.LVL158:
 1427              	.L119:
 1428              		.cfi_restore_state
 471:C:/Users/stapi/OneDrive/Desktop/GD32VW553/V1_MQTT_OK/GD32VW55X_Wifi_BLE_SDK/GD32VW55x_RELEASE_V1.0.2/MSDK/cloud/alicloud/src/services/awss\zconfig_ieee80211.c ****         if (tmp && tmp[1] >= sizeof(struct ieee80211_ht_operation)) {
 1429              		.loc 1 471 9 is_stmt 1
 471:C:/Users/stapi/OneDrive/Desktop/GD32VW553/V1_MQTT_OK/GD32VW55X_Wifi_BLE_SDK/GD32VW55x_RELEASE_V1.0.2/MSDK/cloud/alicloud/src/services/awss\zconfig_ieee80211.c ****         if (tmp && tmp[1] >= sizeof(struct ieee80211_ht_operation)) {
 1430              		.loc 1 471 15 is_stmt 0
 1431 0044 1305D003 		li	a0,61
 1432              	.LVL159:
 1433 0048 97000000 		call	cfg80211_find_ie
 1433      E7800000 
 1434              	.LVL160:
 1435 0050 AA87     		mv	a5,a0
 1436              	.LVL161:
 472:C:/Users/stapi/OneDrive/Desktop/GD32VW553/V1_MQTT_OK/GD32VW55X_Wifi_BLE_SDK/GD32VW55x_RELEASE_V1.0.2/MSDK/cloud/alicloud/src/services/awss\zconfig_ieee80211.c ****             struct ieee80211_ht_operation *htop = (void *)(tmp + 2);
 1437              		.loc 1 472 9 is_stmt 1
 465:C:/Users/stapi/OneDrive/Desktop/GD32VW553/V1_MQTT_OK/GD32VW55X_Wifi_BLE_SDK/GD32VW55x_RELEASE_V1.0.2/MSDK/cloud/alicloud/src/services/awss\zconfig_ieee80211.c **** 
 1438              		.loc 1 465 9 is_stmt 0
 1439 0052 0145     		li	a0,0
 1440              	.LVL162:
 472:C:/Users/stapi/OneDrive/Desktop/GD32VW553/V1_MQTT_OK/GD32VW55X_Wifi_BLE_SDK/GD32VW55x_RELEASE_V1.0.2/MSDK/cloud/alicloud/src/services/awss\zconfig_ieee80211.c ****             struct ieee80211_ht_operation *htop = (void *)(tmp + 2);
 1441              		.loc 1 472 12
 1442 0054 FDD3     		beq	a5,zero,.L118
 472:C:/Users/stapi/OneDrive/Desktop/GD32VW553/V1_MQTT_OK/GD32VW55X_Wifi_BLE_SDK/GD32VW55x_RELEASE_V1.0.2/MSDK/cloud/alicloud/src/services/awss\zconfig_ieee80211.c ****             struct ieee80211_ht_operation *htop = (void *)(tmp + 2);
 1443              		.loc 1 472 17 discriminator 1
 1444 0056 83C61700 		lbu	a3,1(a5)
 1445 005a 5547     		li	a4,21
 1446 005c E37FD7FC 		bleu	a3,a4,.L118
 1447              	.LBB24:
 473:C:/Users/stapi/OneDrive/Desktop/GD32VW553/V1_MQTT_OK/GD32VW55X_Wifi_BLE_SDK/GD32VW55x_RELEASE_V1.0.2/MSDK/cloud/alicloud/src/services/awss\zconfig_ieee80211.c **** 
 1448              		.loc 1 473 13 is_stmt 1
 1449              	.LVL163:
 475:C:/Users/stapi/OneDrive/Desktop/GD32VW553/V1_MQTT_OK/GD32VW55X_Wifi_BLE_SDK/GD32VW55x_RELEASE_V1.0.2/MSDK/cloud/alicloud/src/services/awss\zconfig_ieee80211.c ****         }
 1450              		.loc 1 475 13
 475:C:/Users/stapi/OneDrive/Desktop/GD32VW553/V1_MQTT_OK/GD32VW55X_Wifi_BLE_SDK/GD32VW55x_RELEASE_V1.0.2/MSDK/cloud/alicloud/src/services/awss\zconfig_ieee80211.c ****         }
 1451              		.loc 1 475 28 is_stmt 0
 1452 0060 03C52700 		lbu	a0,2(a5)
 1453              	.LVL164:
 1454 0064 D9BF     		j	.L118
 1455              	.LBE24:
 1456              		.cfi_endproc
 1457              	.LFE72:
 1459              		.section	.text.cfg80211_parse_wpa_info,"ax",@progbits
 1460              		.align	1
 1461              		.globl	cfg80211_parse_wpa_info
 1463              	cfg80211_parse_wpa_info:
 1464              	.LFB76:
 570:C:/Users/stapi/OneDrive/Desktop/GD32VW553/V1_MQTT_OK/GD32VW55X_Wifi_BLE_SDK/GD32VW55x_RELEASE_V1.0.2/MSDK/cloud/alicloud/src/services/awss\zconfig_ieee80211.c **** 
 571:C:/Users/stapi/OneDrive/Desktop/GD32VW553/V1_MQTT_OK/GD32VW55X_Wifi_BLE_SDK/GD32VW55x_RELEASE_V1.0.2/MSDK/cloud/alicloud/src/services/awss\zconfig_ieee80211.c **** int cfg80211_parse_wpa_info(const uint8_t *wpa_ie, int wpa_ie_len,
 572:C:/Users/stapi/OneDrive/Desktop/GD32VW553/V1_MQTT_OK/GD32VW55X_Wifi_BLE_SDK/GD32VW55x_RELEASE_V1.0.2/MSDK/cloud/alicloud/src/services/awss\zconfig_ieee80211.c ****                             uint8_t *group_cipher, uint8_t *pairwise_cipher,
 573:C:/Users/stapi/OneDrive/Desktop/GD32VW553/V1_MQTT_OK/GD32VW55X_Wifi_BLE_SDK/GD32VW55x_RELEASE_V1.0.2/MSDK/cloud/alicloud/src/services/awss\zconfig_ieee80211.c ****                             uint8_t *is_8021x)
 574:C:/Users/stapi/OneDrive/Desktop/GD32VW553/V1_MQTT_OK/GD32VW55X_Wifi_BLE_SDK/GD32VW55x_RELEASE_V1.0.2/MSDK/cloud/alicloud/src/services/awss\zconfig_ieee80211.c **** {
 1465              		.loc 1 574 1 is_stmt 1
 1466              		.cfi_startproc
 1467              	.LVL165:
 575:C:/Users/stapi/OneDrive/Desktop/GD32VW553/V1_MQTT_OK/GD32VW55X_Wifi_BLE_SDK/GD32VW55x_RELEASE_V1.0.2/MSDK/cloud/alicloud/src/services/awss\zconfig_ieee80211.c ****     int i, ret = 0;
 1468              		.loc 1 575 5
 576:C:/Users/stapi/OneDrive/Desktop/GD32VW553/V1_MQTT_OK/GD32VW55X_Wifi_BLE_SDK/GD32VW55x_RELEASE_V1.0.2/MSDK/cloud/alicloud/src/services/awss\zconfig_ieee80211.c ****     int left, count;
 1469              		.loc 1 576 5
 577:C:/Users/stapi/OneDrive/Desktop/GD32VW553/V1_MQTT_OK/GD32VW55X_Wifi_BLE_SDK/GD32VW55x_RELEASE_V1.0.2/MSDK/cloud/alicloud/src/services/awss\zconfig_ieee80211.c ****     const uint8_t *pos;
 1470              		.loc 1 577 5
 578:C:/Users/stapi/OneDrive/Desktop/GD32VW553/V1_MQTT_OK/GD32VW55X_Wifi_BLE_SDK/GD32VW55x_RELEASE_V1.0.2/MSDK/cloud/alicloud/src/services/awss\zconfig_ieee80211.c **** 
 579:C:/Users/stapi/OneDrive/Desktop/GD32VW553/V1_MQTT_OK/GD32VW55X_Wifi_BLE_SDK/GD32VW55x_RELEASE_V1.0.2/MSDK/cloud/alicloud/src/services/awss\zconfig_ieee80211.c ****     if (wpa_ie_len <= 0) {
 1471              		.loc 1 579 5
 1472              		.loc 1 579 8 is_stmt 0
 1473 0000 6344B000 		bgt	a1,zero,.L128
 580:C:/Users/stapi/OneDrive/Desktop/GD32VW553/V1_MQTT_OK/GD32VW55X_Wifi_BLE_SDK/GD32VW55x_RELEASE_V1.0.2/MSDK/cloud/alicloud/src/services/awss\zconfig_ieee80211.c ****         /* No WPA IE - fail silently */
 581:C:/Users/stapi/OneDrive/Desktop/GD32VW553/V1_MQTT_OK/GD32VW55X_Wifi_BLE_SDK/GD32VW55x_RELEASE_V1.0.2/MSDK/cloud/alicloud/src/services/awss\zconfig_ieee80211.c ****         return -1;
 1474              		.loc 1 581 16
 1475 0004 7D55     		li	a0,-1
 1476              	.LVL166:
 582:C:/Users/stapi/OneDrive/Desktop/GD32VW553/V1_MQTT_OK/GD32VW55X_Wifi_BLE_SDK/GD32VW55x_RELEASE_V1.0.2/MSDK/cloud/alicloud/src/services/awss\zconfig_ieee80211.c ****     }
 583:C:/Users/stapi/OneDrive/Desktop/GD32VW553/V1_MQTT_OK/GD32VW55X_Wifi_BLE_SDK/GD32VW55x_RELEASE_V1.0.2/MSDK/cloud/alicloud/src/services/awss\zconfig_ieee80211.c **** 
 584:C:/Users/stapi/OneDrive/Desktop/GD32VW553/V1_MQTT_OK/GD32VW55X_Wifi_BLE_SDK/GD32VW55x_RELEASE_V1.0.2/MSDK/cloud/alicloud/src/services/awss\zconfig_ieee80211.c ****     if (wpa_ie[1] != (uint8_t)(wpa_ie_len - 2)) {
 585:C:/Users/stapi/OneDrive/Desktop/GD32VW553/V1_MQTT_OK/GD32VW55X_Wifi_BLE_SDK/GD32VW55x_RELEASE_V1.0.2/MSDK/cloud/alicloud/src/services/awss\zconfig_ieee80211.c ****         return -1;
 586:C:/Users/stapi/OneDrive/Desktop/GD32VW553/V1_MQTT_OK/GD32VW55X_Wifi_BLE_SDK/GD32VW55x_RELEASE_V1.0.2/MSDK/cloud/alicloud/src/services/awss\zconfig_ieee80211.c ****     }
 587:C:/Users/stapi/OneDrive/Desktop/GD32VW553/V1_MQTT_OK/GD32VW55X_Wifi_BLE_SDK/GD32VW55x_RELEASE_V1.0.2/MSDK/cloud/alicloud/src/services/awss\zconfig_ieee80211.c **** 
 588:C:/Users/stapi/OneDrive/Desktop/GD32VW553/V1_MQTT_OK/GD32VW55X_Wifi_BLE_SDK/GD32VW55x_RELEASE_V1.0.2/MSDK/cloud/alicloud/src/services/awss\zconfig_ieee80211.c ****     pos = wpa_ie;
 589:C:/Users/stapi/OneDrive/Desktop/GD32VW553/V1_MQTT_OK/GD32VW55X_Wifi_BLE_SDK/GD32VW55x_RELEASE_V1.0.2/MSDK/cloud/alicloud/src/services/awss\zconfig_ieee80211.c **** 
 590:C:/Users/stapi/OneDrive/Desktop/GD32VW553/V1_MQTT_OK/GD32VW55X_Wifi_BLE_SDK/GD32VW55x_RELEASE_V1.0.2/MSDK/cloud/alicloud/src/services/awss\zconfig_ieee80211.c ****     pos += 8;
 591:C:/Users/stapi/OneDrive/Desktop/GD32VW553/V1_MQTT_OK/GD32VW55X_Wifi_BLE_SDK/GD32VW55x_RELEASE_V1.0.2/MSDK/cloud/alicloud/src/services/awss\zconfig_ieee80211.c ****     left = wpa_ie_len - 8;
 592:C:/Users/stapi/OneDrive/Desktop/GD32VW553/V1_MQTT_OK/GD32VW55X_Wifi_BLE_SDK/GD32VW55x_RELEASE_V1.0.2/MSDK/cloud/alicloud/src/services/awss\zconfig_ieee80211.c **** 
 593:C:/Users/stapi/OneDrive/Desktop/GD32VW553/V1_MQTT_OK/GD32VW55X_Wifi_BLE_SDK/GD32VW55x_RELEASE_V1.0.2/MSDK/cloud/alicloud/src/services/awss\zconfig_ieee80211.c ****     /* group_cipher */
 594:C:/Users/stapi/OneDrive/Desktop/GD32VW553/V1_MQTT_OK/GD32VW55X_Wifi_BLE_SDK/GD32VW55x_RELEASE_V1.0.2/MSDK/cloud/alicloud/src/services/awss\zconfig_ieee80211.c ****     if (left >= WPA_SELECTOR_LEN) {
 595:C:/Users/stapi/OneDrive/Desktop/GD32VW553/V1_MQTT_OK/GD32VW55X_Wifi_BLE_SDK/GD32VW55x_RELEASE_V1.0.2/MSDK/cloud/alicloud/src/services/awss\zconfig_ieee80211.c **** 
 596:C:/Users/stapi/OneDrive/Desktop/GD32VW553/V1_MQTT_OK/GD32VW55X_Wifi_BLE_SDK/GD32VW55x_RELEASE_V1.0.2/MSDK/cloud/alicloud/src/services/awss\zconfig_ieee80211.c ****         *group_cipher = get_wpa_cipher_suite(pos);
 597:C:/Users/stapi/OneDrive/Desktop/GD32VW553/V1_MQTT_OK/GD32VW55X_Wifi_BLE_SDK/GD32VW55x_RELEASE_V1.0.2/MSDK/cloud/alicloud/src/services/awss\zconfig_ieee80211.c **** 
 598:C:/Users/stapi/OneDrive/Desktop/GD32VW553/V1_MQTT_OK/GD32VW55X_Wifi_BLE_SDK/GD32VW55x_RELEASE_V1.0.2/MSDK/cloud/alicloud/src/services/awss\zconfig_ieee80211.c ****         pos += WPA_SELECTOR_LEN;
 599:C:/Users/stapi/OneDrive/Desktop/GD32VW553/V1_MQTT_OK/GD32VW55X_Wifi_BLE_SDK/GD32VW55x_RELEASE_V1.0.2/MSDK/cloud/alicloud/src/services/awss\zconfig_ieee80211.c ****         left -= WPA_SELECTOR_LEN;
 600:C:/Users/stapi/OneDrive/Desktop/GD32VW553/V1_MQTT_OK/GD32VW55X_Wifi_BLE_SDK/GD32VW55x_RELEASE_V1.0.2/MSDK/cloud/alicloud/src/services/awss\zconfig_ieee80211.c ****     } else if (left > 0) {
 601:C:/Users/stapi/OneDrive/Desktop/GD32VW553/V1_MQTT_OK/GD32VW55X_Wifi_BLE_SDK/GD32VW55x_RELEASE_V1.0.2/MSDK/cloud/alicloud/src/services/awss\zconfig_ieee80211.c ****         return -1;
 602:C:/Users/stapi/OneDrive/Desktop/GD32VW553/V1_MQTT_OK/GD32VW55X_Wifi_BLE_SDK/GD32VW55x_RELEASE_V1.0.2/MSDK/cloud/alicloud/src/services/awss\zconfig_ieee80211.c ****     }
 603:C:/Users/stapi/OneDrive/Desktop/GD32VW553/V1_MQTT_OK/GD32VW55X_Wifi_BLE_SDK/GD32VW55x_RELEASE_V1.0.2/MSDK/cloud/alicloud/src/services/awss\zconfig_ieee80211.c **** 
 604:C:/Users/stapi/OneDrive/Desktop/GD32VW553/V1_MQTT_OK/GD32VW55X_Wifi_BLE_SDK/GD32VW55x_RELEASE_V1.0.2/MSDK/cloud/alicloud/src/services/awss\zconfig_ieee80211.c ****     /* pairwise_cipher */
 605:C:/Users/stapi/OneDrive/Desktop/GD32VW553/V1_MQTT_OK/GD32VW55X_Wifi_BLE_SDK/GD32VW55x_RELEASE_V1.0.2/MSDK/cloud/alicloud/src/services/awss\zconfig_ieee80211.c ****     if (left >= 2) {
 606:C:/Users/stapi/OneDrive/Desktop/GD32VW553/V1_MQTT_OK/GD32VW55X_Wifi_BLE_SDK/GD32VW55x_RELEASE_V1.0.2/MSDK/cloud/alicloud/src/services/awss\zconfig_ieee80211.c ****         /* count = le16_to_cpu(*(uint16_t*)pos); */
 607:C:/Users/stapi/OneDrive/Desktop/GD32VW553/V1_MQTT_OK/GD32VW55X_Wifi_BLE_SDK/GD32VW55x_RELEASE_V1.0.2/MSDK/cloud/alicloud/src/services/awss\zconfig_ieee80211.c ****         count = os_get_unaligned_le16((uint8_t *)pos);
 608:C:/Users/stapi/OneDrive/Desktop/GD32VW553/V1_MQTT_OK/GD32VW55X_Wifi_BLE_SDK/GD32VW55x_RELEASE_V1.0.2/MSDK/cloud/alicloud/src/services/awss\zconfig_ieee80211.c ****         pos += 2;
 609:C:/Users/stapi/OneDrive/Desktop/GD32VW553/V1_MQTT_OK/GD32VW55X_Wifi_BLE_SDK/GD32VW55x_RELEASE_V1.0.2/MSDK/cloud/alicloud/src/services/awss\zconfig_ieee80211.c ****         left -= 2;
 610:C:/Users/stapi/OneDrive/Desktop/GD32VW553/V1_MQTT_OK/GD32VW55X_Wifi_BLE_SDK/GD32VW55x_RELEASE_V1.0.2/MSDK/cloud/alicloud/src/services/awss\zconfig_ieee80211.c **** 
 611:C:/Users/stapi/OneDrive/Desktop/GD32VW553/V1_MQTT_OK/GD32VW55X_Wifi_BLE_SDK/GD32VW55x_RELEASE_V1.0.2/MSDK/cloud/alicloud/src/services/awss\zconfig_ieee80211.c ****         if (count == 0 || left < count * WPA_SELECTOR_LEN) {
 612:C:/Users/stapi/OneDrive/Desktop/GD32VW553/V1_MQTT_OK/GD32VW55X_Wifi_BLE_SDK/GD32VW55x_RELEASE_V1.0.2/MSDK/cloud/alicloud/src/services/awss\zconfig_ieee80211.c ****             return -1;
 613:C:/Users/stapi/OneDrive/Desktop/GD32VW553/V1_MQTT_OK/GD32VW55X_Wifi_BLE_SDK/GD32VW55x_RELEASE_V1.0.2/MSDK/cloud/alicloud/src/services/awss\zconfig_ieee80211.c ****         }
 614:C:/Users/stapi/OneDrive/Desktop/GD32VW553/V1_MQTT_OK/GD32VW55X_Wifi_BLE_SDK/GD32VW55x_RELEASE_V1.0.2/MSDK/cloud/alicloud/src/services/awss\zconfig_ieee80211.c **** 
 615:C:/Users/stapi/OneDrive/Desktop/GD32VW553/V1_MQTT_OK/GD32VW55X_Wifi_BLE_SDK/GD32VW55x_RELEASE_V1.0.2/MSDK/cloud/alicloud/src/services/awss\zconfig_ieee80211.c ****         for (i = 0; i < count; i++) {
 616:C:/Users/stapi/OneDrive/Desktop/GD32VW553/V1_MQTT_OK/GD32VW55X_Wifi_BLE_SDK/GD32VW55x_RELEASE_V1.0.2/MSDK/cloud/alicloud/src/services/awss\zconfig_ieee80211.c ****             *pairwise_cipher |= get_wpa_cipher_suite(pos);
 617:C:/Users/stapi/OneDrive/Desktop/GD32VW553/V1_MQTT_OK/GD32VW55X_Wifi_BLE_SDK/GD32VW55x_RELEASE_V1.0.2/MSDK/cloud/alicloud/src/services/awss\zconfig_ieee80211.c **** 
 618:C:/Users/stapi/OneDrive/Desktop/GD32VW553/V1_MQTT_OK/GD32VW55X_Wifi_BLE_SDK/GD32VW55x_RELEASE_V1.0.2/MSDK/cloud/alicloud/src/services/awss\zconfig_ieee80211.c ****             pos += WPA_SELECTOR_LEN;
 619:C:/Users/stapi/OneDrive/Desktop/GD32VW553/V1_MQTT_OK/GD32VW55X_Wifi_BLE_SDK/GD32VW55x_RELEASE_V1.0.2/MSDK/cloud/alicloud/src/services/awss\zconfig_ieee80211.c ****             left -= WPA_SELECTOR_LEN;
 620:C:/Users/stapi/OneDrive/Desktop/GD32VW553/V1_MQTT_OK/GD32VW55X_Wifi_BLE_SDK/GD32VW55x_RELEASE_V1.0.2/MSDK/cloud/alicloud/src/services/awss\zconfig_ieee80211.c ****         }
 621:C:/Users/stapi/OneDrive/Desktop/GD32VW553/V1_MQTT_OK/GD32VW55X_Wifi_BLE_SDK/GD32VW55x_RELEASE_V1.0.2/MSDK/cloud/alicloud/src/services/awss\zconfig_ieee80211.c ****     } else if (left == 1) {
 622:C:/Users/stapi/OneDrive/Desktop/GD32VW553/V1_MQTT_OK/GD32VW55X_Wifi_BLE_SDK/GD32VW55x_RELEASE_V1.0.2/MSDK/cloud/alicloud/src/services/awss\zconfig_ieee80211.c ****         return -1;
 623:C:/Users/stapi/OneDrive/Desktop/GD32VW553/V1_MQTT_OK/GD32VW55X_Wifi_BLE_SDK/GD32VW55x_RELEASE_V1.0.2/MSDK/cloud/alicloud/src/services/awss\zconfig_ieee80211.c ****     }
 624:C:/Users/stapi/OneDrive/Desktop/GD32VW553/V1_MQTT_OK/GD32VW55X_Wifi_BLE_SDK/GD32VW55x_RELEASE_V1.0.2/MSDK/cloud/alicloud/src/services/awss\zconfig_ieee80211.c **** 
 625:C:/Users/stapi/OneDrive/Desktop/GD32VW553/V1_MQTT_OK/GD32VW55X_Wifi_BLE_SDK/GD32VW55x_RELEASE_V1.0.2/MSDK/cloud/alicloud/src/services/awss\zconfig_ieee80211.c ****     if (is_8021x) {
 626:C:/Users/stapi/OneDrive/Desktop/GD32VW553/V1_MQTT_OK/GD32VW55X_Wifi_BLE_SDK/GD32VW55x_RELEASE_V1.0.2/MSDK/cloud/alicloud/src/services/awss\zconfig_ieee80211.c ****         if (left >= 6) {
 627:C:/Users/stapi/OneDrive/Desktop/GD32VW553/V1_MQTT_OK/GD32VW55X_Wifi_BLE_SDK/GD32VW55x_RELEASE_V1.0.2/MSDK/cloud/alicloud/src/services/awss\zconfig_ieee80211.c ****             pos += 2;
 628:C:/Users/stapi/OneDrive/Desktop/GD32VW553/V1_MQTT_OK/GD32VW55X_Wifi_BLE_SDK/GD32VW55x_RELEASE_V1.0.2/MSDK/cloud/alicloud/src/services/awss\zconfig_ieee80211.c ****             if (!memcmp(pos, WPA_OUI23A_TYPE, 4)) {
 629:C:/Users/stapi/OneDrive/Desktop/GD32VW553/V1_MQTT_OK/GD32VW55X_Wifi_BLE_SDK/GD32VW55x_RELEASE_V1.0.2/MSDK/cloud/alicloud/src/services/awss\zconfig_ieee80211.c ****                 *is_8021x = 1;
 630:C:/Users/stapi/OneDrive/Desktop/GD32VW553/V1_MQTT_OK/GD32VW55X_Wifi_BLE_SDK/GD32VW55x_RELEASE_V1.0.2/MSDK/cloud/alicloud/src/services/awss\zconfig_ieee80211.c ****             }
 631:C:/Users/stapi/OneDrive/Desktop/GD32VW553/V1_MQTT_OK/GD32VW55X_Wifi_BLE_SDK/GD32VW55x_RELEASE_V1.0.2/MSDK/cloud/alicloud/src/services/awss\zconfig_ieee80211.c ****         }
 632:C:/Users/stapi/OneDrive/Desktop/GD32VW553/V1_MQTT_OK/GD32VW55X_Wifi_BLE_SDK/GD32VW55x_RELEASE_V1.0.2/MSDK/cloud/alicloud/src/services/awss\zconfig_ieee80211.c ****     }
 633:C:/Users/stapi/OneDrive/Desktop/GD32VW553/V1_MQTT_OK/GD32VW55X_Wifi_BLE_SDK/GD32VW55x_RELEASE_V1.0.2/MSDK/cloud/alicloud/src/services/awss\zconfig_ieee80211.c **** 
 634:C:/Users/stapi/OneDrive/Desktop/GD32VW553/V1_MQTT_OK/GD32VW55X_Wifi_BLE_SDK/GD32VW55x_RELEASE_V1.0.2/MSDK/cloud/alicloud/src/services/awss\zconfig_ieee80211.c ****     return ret;
 635:C:/Users/stapi/OneDrive/Desktop/GD32VW553/V1_MQTT_OK/GD32VW55X_Wifi_BLE_SDK/GD32VW55x_RELEASE_V1.0.2/MSDK/cloud/alicloud/src/services/awss\zconfig_ieee80211.c **** }
 1477              		.loc 1 635 1
 1478 0006 8280     		ret
 1479              	.LVL167:
 1480              	.L128:
 574:C:/Users/stapi/OneDrive/Desktop/GD32VW553/V1_MQTT_OK/GD32VW55X_Wifi_BLE_SDK/GD32VW55x_RELEASE_V1.0.2/MSDK/cloud/alicloud/src/services/awss\zconfig_ieee80211.c ****     int i, ret = 0;
 1481              		.loc 1 574 1
 1482 0008 17030000 		call	t0,__riscv_save_7
 1482      E7020300 
 1483              		.cfi_offset 22, -32
 1484              		.cfi_offset 21, -28
 1485              		.cfi_offset 20, -24
 1486              		.cfi_offset 19, -20
 1487              		.cfi_offset 18, -16
 1488              		.cfi_offset 9, -12
 1489              		.cfi_offset 8, -8
 1490              		.cfi_offset 1, -4
 1491              		.cfi_def_cfa_offset 32
 1492 0010 BA89     		mv	s3,a4
 584:C:/Users/stapi/OneDrive/Desktop/GD32VW553/V1_MQTT_OK/GD32VW55X_Wifi_BLE_SDK/GD32VW55x_RELEASE_V1.0.2/MSDK/cloud/alicloud/src/services/awss\zconfig_ieee80211.c ****         return -1;
 1493              		.loc 1 584 5 is_stmt 1
 584:C:/Users/stapi/OneDrive/Desktop/GD32VW553/V1_MQTT_OK/GD32VW55X_Wifi_BLE_SDK/GD32VW55x_RELEASE_V1.0.2/MSDK/cloud/alicloud/src/services/awss\zconfig_ieee80211.c ****         return -1;
 1494              		.loc 1 584 8 is_stmt 0
 1495 0012 03471500 		lbu	a4,1(a0)
 1496              	.LVL168:
 584:C:/Users/stapi/OneDrive/Desktop/GD32VW553/V1_MQTT_OK/GD32VW55X_Wifi_BLE_SDK/GD32VW55x_RELEASE_V1.0.2/MSDK/cloud/alicloud/src/services/awss\zconfig_ieee80211.c ****         return -1;
 1497              		.loc 1 584 22
 1498 0016 9387E5FF 		addi	a5,a1,-2
 584:C:/Users/stapi/OneDrive/Desktop/GD32VW553/V1_MQTT_OK/GD32VW55X_Wifi_BLE_SDK/GD32VW55x_RELEASE_V1.0.2/MSDK/cloud/alicloud/src/services/awss\zconfig_ieee80211.c ****         return -1;
 1499              		.loc 1 584 8
 1500 001a 93F7F70F 		andi	a5,a5,0xff
 1501 001e 2A8A     		mv	s4,a0
 1502 0020 AE84     		mv	s1,a1
 1503 0022 6314F70A 		bne	a4,a5,.L130
 1504              	.LVL169:
 591:C:/Users/stapi/OneDrive/Desktop/GD32VW553/V1_MQTT_OK/GD32VW55X_Wifi_BLE_SDK/GD32VW55x_RELEASE_V1.0.2/MSDK/cloud/alicloud/src/services/awss\zconfig_ieee80211.c **** 
 1505              		.loc 1 591 10
 1506 0026 138485FF 		addi	s0,a1,-8
 594:C:/Users/stapi/OneDrive/Desktop/GD32VW553/V1_MQTT_OK/GD32VW55X_Wifi_BLE_SDK/GD32VW55x_RELEASE_V1.0.2/MSDK/cloud/alicloud/src/services/awss\zconfig_ieee80211.c **** 
 1507              		.loc 1 594 8
 1508 002a 8D47     		li	a5,3
 1509 002c B68A     		mv	s5,a3
 588:C:/Users/stapi/OneDrive/Desktop/GD32VW553/V1_MQTT_OK/GD32VW55X_Wifi_BLE_SDK/GD32VW55x_RELEASE_V1.0.2/MSDK/cloud/alicloud/src/services/awss\zconfig_ieee80211.c **** 
 1510              		.loc 1 588 5 is_stmt 1
 1511              	.LVL170:
 590:C:/Users/stapi/OneDrive/Desktop/GD32VW553/V1_MQTT_OK/GD32VW55X_Wifi_BLE_SDK/GD32VW55x_RELEASE_V1.0.2/MSDK/cloud/alicloud/src/services/awss\zconfig_ieee80211.c ****     left = wpa_ie_len - 8;
 1512              		.loc 1 590 5
 590:C:/Users/stapi/OneDrive/Desktop/GD32VW553/V1_MQTT_OK/GD32VW55X_Wifi_BLE_SDK/GD32VW55x_RELEASE_V1.0.2/MSDK/cloud/alicloud/src/services/awss\zconfig_ieee80211.c ****     left = wpa_ie_len - 8;
 1513              		.loc 1 590 9 is_stmt 0
 1514 002e 13098500 		addi	s2,a0,8
 1515              	.LVL171:
 591:C:/Users/stapi/OneDrive/Desktop/GD32VW553/V1_MQTT_OK/GD32VW55X_Wifi_BLE_SDK/GD32VW55x_RELEASE_V1.0.2/MSDK/cloud/alicloud/src/services/awss\zconfig_ieee80211.c **** 
 1516              		.loc 1 591 5 is_stmt 1
 594:C:/Users/stapi/OneDrive/Desktop/GD32VW553/V1_MQTT_OK/GD32VW55X_Wifi_BLE_SDK/GD32VW55x_RELEASE_V1.0.2/MSDK/cloud/alicloud/src/services/awss\zconfig_ieee80211.c **** 
 1517              		.loc 1 594 5
 594:C:/Users/stapi/OneDrive/Desktop/GD32VW553/V1_MQTT_OK/GD32VW55X_Wifi_BLE_SDK/GD32VW55x_RELEASE_V1.0.2/MSDK/cloud/alicloud/src/services/awss\zconfig_ieee80211.c **** 
 1518              		.loc 1 594 8 is_stmt 0
 1519 0032 63DA8708 		ble	s0,a5,.L131
 596:C:/Users/stapi/OneDrive/Desktop/GD32VW553/V1_MQTT_OK/GD32VW55X_Wifi_BLE_SDK/GD32VW55x_RELEASE_V1.0.2/MSDK/cloud/alicloud/src/services/awss\zconfig_ieee80211.c **** 
 1520              		.loc 1 596 25
 1521 0036 4A85     		mv	a0,s2
 1522              	.LVL172:
 1523 0038 328B     		mv	s6,a2
 596:C:/Users/stapi/OneDrive/Desktop/GD32VW553/V1_MQTT_OK/GD32VW55X_Wifi_BLE_SDK/GD32VW55x_RELEASE_V1.0.2/MSDK/cloud/alicloud/src/services/awss\zconfig_ieee80211.c **** 
 1524              		.loc 1 596 9 is_stmt 1
 596:C:/Users/stapi/OneDrive/Desktop/GD32VW553/V1_MQTT_OK/GD32VW55X_Wifi_BLE_SDK/GD32VW55x_RELEASE_V1.0.2/MSDK/cloud/alicloud/src/services/awss\zconfig_ieee80211.c **** 
 1525              		.loc 1 596 25 is_stmt 0
 1526 003a 97000000 		call	get_wpa_cipher_suite
 1526      E7800000 
 1527              	.LVL173:
 596:C:/Users/stapi/OneDrive/Desktop/GD32VW553/V1_MQTT_OK/GD32VW55X_Wifi_BLE_SDK/GD32VW55x_RELEASE_V1.0.2/MSDK/cloud/alicloud/src/services/awss\zconfig_ieee80211.c **** 
 1528              		.loc 1 596 23
 1529 0042 2300AB00 		sb	a0,0(s6)
 598:C:/Users/stapi/OneDrive/Desktop/GD32VW553/V1_MQTT_OK/GD32VW55X_Wifi_BLE_SDK/GD32VW55x_RELEASE_V1.0.2/MSDK/cloud/alicloud/src/services/awss\zconfig_ieee80211.c ****         left -= WPA_SELECTOR_LEN;
 1530              		.loc 1 598 9 is_stmt 1
 598:C:/Users/stapi/OneDrive/Desktop/GD32VW553/V1_MQTT_OK/GD32VW55X_Wifi_BLE_SDK/GD32VW55x_RELEASE_V1.0.2/MSDK/cloud/alicloud/src/services/awss\zconfig_ieee80211.c ****         left -= WPA_SELECTOR_LEN;
 1531              		.loc 1 598 13 is_stmt 0
 1532 0046 1309CA00 		addi	s2,s4,12
 1533              	.LVL174:
 599:C:/Users/stapi/OneDrive/Desktop/GD32VW553/V1_MQTT_OK/GD32VW55X_Wifi_BLE_SDK/GD32VW55x_RELEASE_V1.0.2/MSDK/cloud/alicloud/src/services/awss\zconfig_ieee80211.c ****     } else if (left > 0) {
 1534              		.loc 1 599 9 is_stmt 1
 599:C:/Users/stapi/OneDrive/Desktop/GD32VW553/V1_MQTT_OK/GD32VW55X_Wifi_BLE_SDK/GD32VW55x_RELEASE_V1.0.2/MSDK/cloud/alicloud/src/services/awss\zconfig_ieee80211.c ****     } else if (left > 0) {
 1535              		.loc 1 599 14 is_stmt 0
 1536 004a 138444FF 		addi	s0,s1,-12
 1537              	.LVL175:
 1538              	.L132:
 605:C:/Users/stapi/OneDrive/Desktop/GD32VW553/V1_MQTT_OK/GD32VW55X_Wifi_BLE_SDK/GD32VW55x_RELEASE_V1.0.2/MSDK/cloud/alicloud/src/services/awss\zconfig_ieee80211.c ****         /* count = le16_to_cpu(*(uint16_t*)pos); */
 1539              		.loc 1 605 5 is_stmt 1
 605:C:/Users/stapi/OneDrive/Desktop/GD32VW553/V1_MQTT_OK/GD32VW55X_Wifi_BLE_SDK/GD32VW55x_RELEASE_V1.0.2/MSDK/cloud/alicloud/src/services/awss\zconfig_ieee80211.c ****         /* count = le16_to_cpu(*(uint16_t*)pos); */
 1540              		.loc 1 605 8 is_stmt 0
 1541 004e 8547     		li	a5,1
 1542 0050 63D28708 		ble	s0,a5,.L133
 607:C:/Users/stapi/OneDrive/Desktop/GD32VW553/V1_MQTT_OK/GD32VW55X_Wifi_BLE_SDK/GD32VW55x_RELEASE_V1.0.2/MSDK/cloud/alicloud/src/services/awss\zconfig_ieee80211.c ****         pos += 2;
 1543              		.loc 1 607 9 is_stmt 1
 607:C:/Users/stapi/OneDrive/Desktop/GD32VW553/V1_MQTT_OK/GD32VW55X_Wifi_BLE_SDK/GD32VW55x_RELEASE_V1.0.2/MSDK/cloud/alicloud/src/services/awss\zconfig_ieee80211.c ****         pos += 2;
 1544              		.loc 1 607 17 is_stmt 0
 1545 0054 4A85     		mv	a0,s2
 1546 0056 97000000 		call	os_get_unaligned_le16
 1546      E7800000 
 1547              	.LVL176:
 1548 005e AA84     		mv	s1,a0
 1549              	.LVL177:
 608:C:/Users/stapi/OneDrive/Desktop/GD32VW553/V1_MQTT_OK/GD32VW55X_Wifi_BLE_SDK/GD32VW55x_RELEASE_V1.0.2/MSDK/cloud/alicloud/src/services/awss\zconfig_ieee80211.c ****         left -= 2;
 1550              		.loc 1 608 9 is_stmt 1
 608:C:/Users/stapi/OneDrive/Desktop/GD32VW553/V1_MQTT_OK/GD32VW55X_Wifi_BLE_SDK/GD32VW55x_RELEASE_V1.0.2/MSDK/cloud/alicloud/src/services/awss\zconfig_ieee80211.c ****         left -= 2;
 1551              		.loc 1 608 13 is_stmt 0
 1552 0060 0909     		addi	s2,s2,2
 1553              	.LVL178:
 609:C:/Users/stapi/OneDrive/Desktop/GD32VW553/V1_MQTT_OK/GD32VW55X_Wifi_BLE_SDK/GD32VW55x_RELEASE_V1.0.2/MSDK/cloud/alicloud/src/services/awss\zconfig_ieee80211.c **** 
 1554              		.loc 1 609 9 is_stmt 1
 609:C:/Users/stapi/OneDrive/Desktop/GD32VW553/V1_MQTT_OK/GD32VW55X_Wifi_BLE_SDK/GD32VW55x_RELEASE_V1.0.2/MSDK/cloud/alicloud/src/services/awss\zconfig_ieee80211.c **** 
 1555              		.loc 1 609 14 is_stmt 0
 1556 0062 7914     		addi	s0,s0,-2
 1557              	.LVL179:
 611:C:/Users/stapi/OneDrive/Desktop/GD32VW553/V1_MQTT_OK/GD32VW55X_Wifi_BLE_SDK/GD32VW55x_RELEASE_V1.0.2/MSDK/cloud/alicloud/src/services/awss\zconfig_ieee80211.c ****             return -1;
 1558              		.loc 1 611 9 is_stmt 1
 611:C:/Users/stapi/OneDrive/Desktop/GD32VW553/V1_MQTT_OK/GD32VW55X_Wifi_BLE_SDK/GD32VW55x_RELEASE_V1.0.2/MSDK/cloud/alicloud/src/services/awss\zconfig_ieee80211.c ****             return -1;
 1559              		.loc 1 611 12 is_stmt 0
 1560 0064 3DC1     		beq	a0,zero,.L130
 611:C:/Users/stapi/OneDrive/Desktop/GD32VW553/V1_MQTT_OK/GD32VW55X_Wifi_BLE_SDK/GD32VW55x_RELEASE_V1.0.2/MSDK/cloud/alicloud/src/services/awss\zconfig_ieee80211.c ****             return -1;
 1561              		.loc 1 611 40 discriminator 1
 1562 0066 93172500 		slli	a5,a0,2
 611:C:/Users/stapi/OneDrive/Desktop/GD32VW553/V1_MQTT_OK/GD32VW55X_Wifi_BLE_SDK/GD32VW55x_RELEASE_V1.0.2/MSDK/cloud/alicloud/src/services/awss\zconfig_ieee80211.c ****             return -1;
 1563              		.loc 1 611 24 discriminator 1
 1564 006a 6340F406 		bgt	a5,s0,.L130
 608:C:/Users/stapi/OneDrive/Desktop/GD32VW553/V1_MQTT_OK/GD32VW55X_Wifi_BLE_SDK/GD32VW55x_RELEASE_V1.0.2/MSDK/cloud/alicloud/src/services/awss\zconfig_ieee80211.c ****         left -= 2;
 1565              		.loc 1 608 13
 1566 006e 4A8B     		mv	s6,s2
 615:C:/Users/stapi/OneDrive/Desktop/GD32VW553/V1_MQTT_OK/GD32VW55X_Wifi_BLE_SDK/GD32VW55x_RELEASE_V1.0.2/MSDK/cloud/alicloud/src/services/awss\zconfig_ieee80211.c ****             *pairwise_cipher |= get_wpa_cipher_suite(pos);
 1567              		.loc 1 615 16
 1568 0070 014A     		li	s4,0
 1569              	.LVL180:
 1570              	.L134:
 616:C:/Users/stapi/OneDrive/Desktop/GD32VW553/V1_MQTT_OK/GD32VW55X_Wifi_BLE_SDK/GD32VW55x_RELEASE_V1.0.2/MSDK/cloud/alicloud/src/services/awss\zconfig_ieee80211.c **** 
 1571              		.loc 1 616 13 is_stmt 1 discriminator 3
 616:C:/Users/stapi/OneDrive/Desktop/GD32VW553/V1_MQTT_OK/GD32VW55X_Wifi_BLE_SDK/GD32VW55x_RELEASE_V1.0.2/MSDK/cloud/alicloud/src/services/awss\zconfig_ieee80211.c **** 
 1572              		.loc 1 616 33 is_stmt 0 discriminator 3
 1573 0072 5A85     		mv	a0,s6
 1574 0074 97000000 		call	get_wpa_cipher_suite
 1574      E7800000 
 1575              	.LVL181:
 616:C:/Users/stapi/OneDrive/Desktop/GD32VW553/V1_MQTT_OK/GD32VW55X_Wifi_BLE_SDK/GD32VW55x_RELEASE_V1.0.2/MSDK/cloud/alicloud/src/services/awss\zconfig_ieee80211.c **** 
 1576              		.loc 1 616 30 discriminator 3
 1577 007c 83C70A00 		lbu	a5,0(s5)
 615:C:/Users/stapi/OneDrive/Desktop/GD32VW553/V1_MQTT_OK/GD32VW55X_Wifi_BLE_SDK/GD32VW55x_RELEASE_V1.0.2/MSDK/cloud/alicloud/src/services/awss\zconfig_ieee80211.c ****             *pairwise_cipher |= get_wpa_cipher_suite(pos);
 1578              		.loc 1 615 33 discriminator 3
 1579 0080 050A     		addi	s4,s4,1
 1580              	.LVL182:
 618:C:/Users/stapi/OneDrive/Desktop/GD32VW553/V1_MQTT_OK/GD32VW55X_Wifi_BLE_SDK/GD32VW55x_RELEASE_V1.0.2/MSDK/cloud/alicloud/src/services/awss\zconfig_ieee80211.c ****             left -= WPA_SELECTOR_LEN;
 1581              		.loc 1 618 17 discriminator 3
 1582 0082 110B     		addi	s6,s6,4
 616:C:/Users/stapi/OneDrive/Desktop/GD32VW553/V1_MQTT_OK/GD32VW55X_Wifi_BLE_SDK/GD32VW55x_RELEASE_V1.0.2/MSDK/cloud/alicloud/src/services/awss\zconfig_ieee80211.c **** 
 1583              		.loc 1 616 30 discriminator 3
 1584 0084 5D8D     		or	a0,a0,a5
 1585 0086 2380AA00 		sb	a0,0(s5)
 618:C:/Users/stapi/OneDrive/Desktop/GD32VW553/V1_MQTT_OK/GD32VW55X_Wifi_BLE_SDK/GD32VW55x_RELEASE_V1.0.2/MSDK/cloud/alicloud/src/services/awss\zconfig_ieee80211.c ****             left -= WPA_SELECTOR_LEN;
 1586              		.loc 1 618 13 is_stmt 1 discriminator 3
 619:C:/Users/stapi/OneDrive/Desktop/GD32VW553/V1_MQTT_OK/GD32VW55X_Wifi_BLE_SDK/GD32VW55x_RELEASE_V1.0.2/MSDK/cloud/alicloud/src/services/awss\zconfig_ieee80211.c ****         }
 1587              		.loc 1 619 13 discriminator 3
 615:C:/Users/stapi/OneDrive/Desktop/GD32VW553/V1_MQTT_OK/GD32VW55X_Wifi_BLE_SDK/GD32VW55x_RELEASE_V1.0.2/MSDK/cloud/alicloud/src/services/awss\zconfig_ieee80211.c ****             *pairwise_cipher |= get_wpa_cipher_suite(pos);
 1588              		.loc 1 615 32 discriminator 3
 1589              	.LVL183:
 615:C:/Users/stapi/OneDrive/Desktop/GD32VW553/V1_MQTT_OK/GD32VW55X_Wifi_BLE_SDK/GD32VW55x_RELEASE_V1.0.2/MSDK/cloud/alicloud/src/services/awss\zconfig_ieee80211.c ****             *pairwise_cipher |= get_wpa_cipher_suite(pos);
 1590              		.loc 1 615 21 discriminator 3
 615:C:/Users/stapi/OneDrive/Desktop/GD32VW553/V1_MQTT_OK/GD32VW55X_Wifi_BLE_SDK/GD32VW55x_RELEASE_V1.0.2/MSDK/cloud/alicloud/src/services/awss\zconfig_ieee80211.c ****             *pairwise_cipher |= get_wpa_cipher_suite(pos);
 1591              		.loc 1 615 9 is_stmt 0 discriminator 3
 1592 008a E3449AFE 		bgt	s1,s4,.L134
 1593 008e F157     		li	a5,-4
 1594 0090 7F94F4C4 		maddr32	s0, s1, a5
 1595 0094 FD14     		addi	s1,s1,-1
 1596              	.LVL184:
 1597 0096 8A04     		slli	s1,s1,2
 1598              	.LVL185:
 625:C:/Users/stapi/OneDrive/Desktop/GD32VW553/V1_MQTT_OK/GD32VW55X_Wifi_BLE_SDK/GD32VW55x_RELEASE_V1.0.2/MSDK/cloud/alicloud/src/services/awss\zconfig_ieee80211.c ****         if (left >= 6) {
 1599              		.loc 1 625 5 is_stmt 1
 634:C:/Users/stapi/OneDrive/Desktop/GD32VW553/V1_MQTT_OK/GD32VW55X_Wifi_BLE_SDK/GD32VW55x_RELEASE_V1.0.2/MSDK/cloud/alicloud/src/services/awss\zconfig_ieee80211.c **** }
 1600              		.loc 1 634 12 is_stmt 0
 1601 0098 0145     		li	a0,0
 625:C:/Users/stapi/OneDrive/Desktop/GD32VW553/V1_MQTT_OK/GD32VW55X_Wifi_BLE_SDK/GD32VW55x_RELEASE_V1.0.2/MSDK/cloud/alicloud/src/services/awss\zconfig_ieee80211.c ****         if (left >= 6) {
 1602              		.loc 1 625 8
 1603 009a 63890902 		beq	s3,zero,.L127
 626:C:/Users/stapi/OneDrive/Desktop/GD32VW553/V1_MQTT_OK/GD32VW55X_Wifi_BLE_SDK/GD32VW55x_RELEASE_V1.0.2/MSDK/cloud/alicloud/src/services/awss\zconfig_ieee80211.c ****             pos += 2;
 1604              		.loc 1 626 9 is_stmt 1
 626:C:/Users/stapi/OneDrive/Desktop/GD32VW553/V1_MQTT_OK/GD32VW55X_Wifi_BLE_SDK/GD32VW55x_RELEASE_V1.0.2/MSDK/cloud/alicloud/src/services/awss\zconfig_ieee80211.c ****             pos += 2;
 1605              		.loc 1 626 12 is_stmt 0
 1606 009e 9547     		li	a5,5
 1607 00a0 63D68702 		ble	s0,a5,.L127
 627:C:/Users/stapi/OneDrive/Desktop/GD32VW553/V1_MQTT_OK/GD32VW55X_Wifi_BLE_SDK/GD32VW55x_RELEASE_V1.0.2/MSDK/cloud/alicloud/src/services/awss\zconfig_ieee80211.c ****             if (!memcmp(pos, WPA_OUI23A_TYPE, 4)) {
 1608              		.loc 1 627 13 is_stmt 1
 1609              	.LVL186:
 628:C:/Users/stapi/OneDrive/Desktop/GD32VW553/V1_MQTT_OK/GD32VW55X_Wifi_BLE_SDK/GD32VW55x_RELEASE_V1.0.2/MSDK/cloud/alicloud/src/services/awss\zconfig_ieee80211.c ****                 *is_8021x = 1;
 1610              		.loc 1 628 13
 627:C:/Users/stapi/OneDrive/Desktop/GD32VW553/V1_MQTT_OK/GD32VW55X_Wifi_BLE_SDK/GD32VW55x_RELEASE_V1.0.2/MSDK/cloud/alicloud/src/services/awss\zconfig_ieee80211.c ****             if (!memcmp(pos, WPA_OUI23A_TYPE, 4)) {
 1611              		.loc 1 627 17 is_stmt 0
 1612 00a4 13856400 		addi	a0,s1,6
 628:C:/Users/stapi/OneDrive/Desktop/GD32VW553/V1_MQTT_OK/GD32VW55X_Wifi_BLE_SDK/GD32VW55x_RELEASE_V1.0.2/MSDK/cloud/alicloud/src/services/awss\zconfig_ieee80211.c ****                 *is_8021x = 1;
 1613              		.loc 1 628 18
 1614 00a8 B7050000 		lui	a1,%hi(.LANCHOR10)
 1615 00ac 1146     		li	a2,4
 1616 00ae 93850500 		addi	a1,a1,%lo(.LANCHOR10)
 1617 00b2 4A95     		add	a0,s2,a0
 1618 00b4 97000000 		call	memcmp
 1618      E7800000 
 1619              	.LVL187:
 628:C:/Users/stapi/OneDrive/Desktop/GD32VW553/V1_MQTT_OK/GD32VW55X_Wifi_BLE_SDK/GD32VW55x_RELEASE_V1.0.2/MSDK/cloud/alicloud/src/services/awss\zconfig_ieee80211.c ****                 *is_8021x = 1;
 1620              		.loc 1 628 16
 1621 00bc 1DE1     		bne	a0,zero,.L138
 629:C:/Users/stapi/OneDrive/Desktop/GD32VW553/V1_MQTT_OK/GD32VW55X_Wifi_BLE_SDK/GD32VW55x_RELEASE_V1.0.2/MSDK/cloud/alicloud/src/services/awss\zconfig_ieee80211.c ****             }
 1622              		.loc 1 629 17 is_stmt 1
 629:C:/Users/stapi/OneDrive/Desktop/GD32VW553/V1_MQTT_OK/GD32VW55X_Wifi_BLE_SDK/GD32VW55x_RELEASE_V1.0.2/MSDK/cloud/alicloud/src/services/awss\zconfig_ieee80211.c ****             }
 1623              		.loc 1 629 27 is_stmt 0
 1624 00be 8547     		li	a5,1
 1625 00c0 2380F900 		sb	a5,0(s3)
 1626 00c4 21A0     		j	.L127
 1627              	.LVL188:
 1628              	.L131:
 600:C:/Users/stapi/OneDrive/Desktop/GD32VW553/V1_MQTT_OK/GD32VW55X_Wifi_BLE_SDK/GD32VW55x_RELEASE_V1.0.2/MSDK/cloud/alicloud/src/services/awss\zconfig_ieee80211.c ****         return -1;
 1629              		.loc 1 600 12 is_stmt 1
 600:C:/Users/stapi/OneDrive/Desktop/GD32VW553/V1_MQTT_OK/GD32VW55X_Wifi_BLE_SDK/GD32VW55x_RELEASE_V1.0.2/MSDK/cloud/alicloud/src/services/awss\zconfig_ieee80211.c ****         return -1;
 1630              		.loc 1 600 15 is_stmt 0
 1631 00c6 E35480F8 		ble	s0,zero,.L132
 1632              	.LVL189:
 1633              	.L130:
 581:C:/Users/stapi/OneDrive/Desktop/GD32VW553/V1_MQTT_OK/GD32VW55X_Wifi_BLE_SDK/GD32VW55x_RELEASE_V1.0.2/MSDK/cloud/alicloud/src/services/awss\zconfig_ieee80211.c ****     }
 1634              		.loc 1 581 16
 1635 00ca 7D55     		li	a0,-1
 1636              	.LVL190:
 1637              	.L127:
 1638              		.loc 1 635 1
 1639 00cc 17030000 		tail	__riscv_restore_7
 1639      67000300 
 1640              		.cfi_remember_state
 1641              		.cfi_restore 22
 1642              		.cfi_restore 21
 1643              		.cfi_restore 20
 1644              		.cfi_restore 19
 1645              		.cfi_restore 18
 1646              		.cfi_restore 9
 1647              		.cfi_restore 8
 1648              		.cfi_restore 1
 1649              		.cfi_def_cfa_offset 0
 1650              	.LVL191:
 1651              	.L133:
 1652              		.cfi_restore_state
 621:C:/Users/stapi/OneDrive/Desktop/GD32VW553/V1_MQTT_OK/GD32VW55X_Wifi_BLE_SDK/GD32VW55x_RELEASE_V1.0.2/MSDK/cloud/alicloud/src/services/awss\zconfig_ieee80211.c ****         return -1;
 1653              		.loc 1 621 12 is_stmt 1
 621:C:/Users/stapi/OneDrive/Desktop/GD32VW553/V1_MQTT_OK/GD32VW55X_Wifi_BLE_SDK/GD32VW55x_RELEASE_V1.0.2/MSDK/cloud/alicloud/src/services/awss\zconfig_ieee80211.c ****         return -1;
 1654              		.loc 1 621 15 is_stmt 0
 1655 00d4 1305F4FF 		addi	a0,s0,-1
 1656 00d8 13351500 		seqz	a0,a0
 1657 00dc 3305A040 		neg	a0,a0
 1658 00e0 F5B7     		j	.L127
 1659              	.LVL192:
 1660              	.L138:
 634:C:/Users/stapi/OneDrive/Desktop/GD32VW553/V1_MQTT_OK/GD32VW55X_Wifi_BLE_SDK/GD32VW55x_RELEASE_V1.0.2/MSDK/cloud/alicloud/src/services/awss\zconfig_ieee80211.c **** }
 1661              		.loc 1 634 12
 1662 00e2 0145     		li	a0,0
 1663 00e4 E5B7     		j	.L127
 1664              		.cfi_endproc
 1665              	.LFE76:
 1667              		.section	.text.cfg80211_parse_wpa2_info,"ax",@progbits
 1668              		.align	1
 1669              		.globl	cfg80211_parse_wpa2_info
 1671              	cfg80211_parse_wpa2_info:
 1672              	.LFB77:
 636:C:/Users/stapi/OneDrive/Desktop/GD32VW553/V1_MQTT_OK/GD32VW55X_Wifi_BLE_SDK/GD32VW55x_RELEASE_V1.0.2/MSDK/cloud/alicloud/src/services/awss\zconfig_ieee80211.c **** 
 637:C:/Users/stapi/OneDrive/Desktop/GD32VW553/V1_MQTT_OK/GD32VW55X_Wifi_BLE_SDK/GD32VW55x_RELEASE_V1.0.2/MSDK/cloud/alicloud/src/services/awss\zconfig_ieee80211.c **** int cfg80211_parse_wpa2_info(const uint8_t *rsn_ie, int rsn_ie_len, uint8_t *group_cipher,
 638:C:/Users/stapi/OneDrive/Desktop/GD32VW553/V1_MQTT_OK/GD32VW55X_Wifi_BLE_SDK/GD32VW55x_RELEASE_V1.0.2/MSDK/cloud/alicloud/src/services/awss\zconfig_ieee80211.c ****                              uint8_t *pairwise_cipher, uint8_t *is_8021x)
 639:C:/Users/stapi/OneDrive/Desktop/GD32VW553/V1_MQTT_OK/GD32VW55X_Wifi_BLE_SDK/GD32VW55x_RELEASE_V1.0.2/MSDK/cloud/alicloud/src/services/awss\zconfig_ieee80211.c **** {
 1673              		.loc 1 639 1 is_stmt 1
 1674              		.cfi_startproc
 1675              	.LVL193:
 640:C:/Users/stapi/OneDrive/Desktop/GD32VW553/V1_MQTT_OK/GD32VW55X_Wifi_BLE_SDK/GD32VW55x_RELEASE_V1.0.2/MSDK/cloud/alicloud/src/services/awss\zconfig_ieee80211.c ****     int i, ret = 0;
 1676              		.loc 1 640 5
 641:C:/Users/stapi/OneDrive/Desktop/GD32VW553/V1_MQTT_OK/GD32VW55X_Wifi_BLE_SDK/GD32VW55x_RELEASE_V1.0.2/MSDK/cloud/alicloud/src/services/awss\zconfig_ieee80211.c ****     int left, count;
 1677              		.loc 1 641 5
 642:C:/Users/stapi/OneDrive/Desktop/GD32VW553/V1_MQTT_OK/GD32VW55X_Wifi_BLE_SDK/GD32VW55x_RELEASE_V1.0.2/MSDK/cloud/alicloud/src/services/awss\zconfig_ieee80211.c ****     const uint8_t *pos;
 1678              		.loc 1 642 5
 643:C:/Users/stapi/OneDrive/Desktop/GD32VW553/V1_MQTT_OK/GD32VW55X_Wifi_BLE_SDK/GD32VW55x_RELEASE_V1.0.2/MSDK/cloud/alicloud/src/services/awss\zconfig_ieee80211.c **** 
 644:C:/Users/stapi/OneDrive/Desktop/GD32VW553/V1_MQTT_OK/GD32VW55X_Wifi_BLE_SDK/GD32VW55x_RELEASE_V1.0.2/MSDK/cloud/alicloud/src/services/awss\zconfig_ieee80211.c ****     if (rsn_ie_len <= 0) {
 1679              		.loc 1 644 5
 1680              		.loc 1 644 8 is_stmt 0
 1681 0000 6344B000 		bgt	a1,zero,.L148
 645:C:/Users/stapi/OneDrive/Desktop/GD32VW553/V1_MQTT_OK/GD32VW55X_Wifi_BLE_SDK/GD32VW55x_RELEASE_V1.0.2/MSDK/cloud/alicloud/src/services/awss\zconfig_ieee80211.c ****         /* No RSN IE - fail silently */
 646:C:/Users/stapi/OneDrive/Desktop/GD32VW553/V1_MQTT_OK/GD32VW55X_Wifi_BLE_SDK/GD32VW55x_RELEASE_V1.0.2/MSDK/cloud/alicloud/src/services/awss\zconfig_ieee80211.c ****         return -1;
 1682              		.loc 1 646 16
 1683 0004 7D55     		li	a0,-1
 1684              	.LVL194:
 647:C:/Users/stapi/OneDrive/Desktop/GD32VW553/V1_MQTT_OK/GD32VW55X_Wifi_BLE_SDK/GD32VW55x_RELEASE_V1.0.2/MSDK/cloud/alicloud/src/services/awss\zconfig_ieee80211.c ****     }
 648:C:/Users/stapi/OneDrive/Desktop/GD32VW553/V1_MQTT_OK/GD32VW55X_Wifi_BLE_SDK/GD32VW55x_RELEASE_V1.0.2/MSDK/cloud/alicloud/src/services/awss\zconfig_ieee80211.c **** 
 649:C:/Users/stapi/OneDrive/Desktop/GD32VW553/V1_MQTT_OK/GD32VW55X_Wifi_BLE_SDK/GD32VW55x_RELEASE_V1.0.2/MSDK/cloud/alicloud/src/services/awss\zconfig_ieee80211.c ****     if (*rsn_ie != WLAN_EID_RSN || *(rsn_ie + 1) != (uint8_t)(rsn_ie_len - 2)) {
 650:C:/Users/stapi/OneDrive/Desktop/GD32VW553/V1_MQTT_OK/GD32VW55X_Wifi_BLE_SDK/GD32VW55x_RELEASE_V1.0.2/MSDK/cloud/alicloud/src/services/awss\zconfig_ieee80211.c ****         return -1;
 651:C:/Users/stapi/OneDrive/Desktop/GD32VW553/V1_MQTT_OK/GD32VW55X_Wifi_BLE_SDK/GD32VW55x_RELEASE_V1.0.2/MSDK/cloud/alicloud/src/services/awss\zconfig_ieee80211.c ****     }
 652:C:/Users/stapi/OneDrive/Desktop/GD32VW553/V1_MQTT_OK/GD32VW55X_Wifi_BLE_SDK/GD32VW55x_RELEASE_V1.0.2/MSDK/cloud/alicloud/src/services/awss\zconfig_ieee80211.c **** 
 653:C:/Users/stapi/OneDrive/Desktop/GD32VW553/V1_MQTT_OK/GD32VW55X_Wifi_BLE_SDK/GD32VW55x_RELEASE_V1.0.2/MSDK/cloud/alicloud/src/services/awss\zconfig_ieee80211.c ****     pos = rsn_ie;
 654:C:/Users/stapi/OneDrive/Desktop/GD32VW553/V1_MQTT_OK/GD32VW55X_Wifi_BLE_SDK/GD32VW55x_RELEASE_V1.0.2/MSDK/cloud/alicloud/src/services/awss\zconfig_ieee80211.c ****     pos += 4;
 655:C:/Users/stapi/OneDrive/Desktop/GD32VW553/V1_MQTT_OK/GD32VW55X_Wifi_BLE_SDK/GD32VW55x_RELEASE_V1.0.2/MSDK/cloud/alicloud/src/services/awss\zconfig_ieee80211.c ****     left = rsn_ie_len - 4;
 656:C:/Users/stapi/OneDrive/Desktop/GD32VW553/V1_MQTT_OK/GD32VW55X_Wifi_BLE_SDK/GD32VW55x_RELEASE_V1.0.2/MSDK/cloud/alicloud/src/services/awss\zconfig_ieee80211.c **** 
 657:C:/Users/stapi/OneDrive/Desktop/GD32VW553/V1_MQTT_OK/GD32VW55X_Wifi_BLE_SDK/GD32VW55x_RELEASE_V1.0.2/MSDK/cloud/alicloud/src/services/awss\zconfig_ieee80211.c ****     /* group_cipher */
 658:C:/Users/stapi/OneDrive/Desktop/GD32VW553/V1_MQTT_OK/GD32VW55X_Wifi_BLE_SDK/GD32VW55x_RELEASE_V1.0.2/MSDK/cloud/alicloud/src/services/awss\zconfig_ieee80211.c ****     if (left >= RSN_SELECTOR_LEN) {
 659:C:/Users/stapi/OneDrive/Desktop/GD32VW553/V1_MQTT_OK/GD32VW55X_Wifi_BLE_SDK/GD32VW55x_RELEASE_V1.0.2/MSDK/cloud/alicloud/src/services/awss\zconfig_ieee80211.c ****         *group_cipher = get_wpa2_cipher_suite(pos);
 660:C:/Users/stapi/OneDrive/Desktop/GD32VW553/V1_MQTT_OK/GD32VW55X_Wifi_BLE_SDK/GD32VW55x_RELEASE_V1.0.2/MSDK/cloud/alicloud/src/services/awss\zconfig_ieee80211.c **** 
 661:C:/Users/stapi/OneDrive/Desktop/GD32VW553/V1_MQTT_OK/GD32VW55X_Wifi_BLE_SDK/GD32VW55x_RELEASE_V1.0.2/MSDK/cloud/alicloud/src/services/awss\zconfig_ieee80211.c ****         pos += RSN_SELECTOR_LEN;
 662:C:/Users/stapi/OneDrive/Desktop/GD32VW553/V1_MQTT_OK/GD32VW55X_Wifi_BLE_SDK/GD32VW55x_RELEASE_V1.0.2/MSDK/cloud/alicloud/src/services/awss\zconfig_ieee80211.c ****         left -= RSN_SELECTOR_LEN;
 663:C:/Users/stapi/OneDrive/Desktop/GD32VW553/V1_MQTT_OK/GD32VW55X_Wifi_BLE_SDK/GD32VW55x_RELEASE_V1.0.2/MSDK/cloud/alicloud/src/services/awss\zconfig_ieee80211.c ****     } else if (left > 0) {
 664:C:/Users/stapi/OneDrive/Desktop/GD32VW553/V1_MQTT_OK/GD32VW55X_Wifi_BLE_SDK/GD32VW55x_RELEASE_V1.0.2/MSDK/cloud/alicloud/src/services/awss\zconfig_ieee80211.c ****         return -1;
 665:C:/Users/stapi/OneDrive/Desktop/GD32VW553/V1_MQTT_OK/GD32VW55X_Wifi_BLE_SDK/GD32VW55x_RELEASE_V1.0.2/MSDK/cloud/alicloud/src/services/awss\zconfig_ieee80211.c ****     }
 666:C:/Users/stapi/OneDrive/Desktop/GD32VW553/V1_MQTT_OK/GD32VW55X_Wifi_BLE_SDK/GD32VW55x_RELEASE_V1.0.2/MSDK/cloud/alicloud/src/services/awss\zconfig_ieee80211.c **** 
 667:C:/Users/stapi/OneDrive/Desktop/GD32VW553/V1_MQTT_OK/GD32VW55X_Wifi_BLE_SDK/GD32VW55x_RELEASE_V1.0.2/MSDK/cloud/alicloud/src/services/awss\zconfig_ieee80211.c ****     /* pairwise_cipher */
 668:C:/Users/stapi/OneDrive/Desktop/GD32VW553/V1_MQTT_OK/GD32VW55X_Wifi_BLE_SDK/GD32VW55x_RELEASE_V1.0.2/MSDK/cloud/alicloud/src/services/awss\zconfig_ieee80211.c ****     if (left >= 2) {
 669:C:/Users/stapi/OneDrive/Desktop/GD32VW553/V1_MQTT_OK/GD32VW55X_Wifi_BLE_SDK/GD32VW55x_RELEASE_V1.0.2/MSDK/cloud/alicloud/src/services/awss\zconfig_ieee80211.c ****         /* count = le16_to_cpu(*(uint16_t*)pos); */
 670:C:/Users/stapi/OneDrive/Desktop/GD32VW553/V1_MQTT_OK/GD32VW55X_Wifi_BLE_SDK/GD32VW55x_RELEASE_V1.0.2/MSDK/cloud/alicloud/src/services/awss\zconfig_ieee80211.c ****         count = os_get_unaligned_le16((uint8_t *)pos);
 671:C:/Users/stapi/OneDrive/Desktop/GD32VW553/V1_MQTT_OK/GD32VW55X_Wifi_BLE_SDK/GD32VW55x_RELEASE_V1.0.2/MSDK/cloud/alicloud/src/services/awss\zconfig_ieee80211.c ****         pos += 2;
 672:C:/Users/stapi/OneDrive/Desktop/GD32VW553/V1_MQTT_OK/GD32VW55X_Wifi_BLE_SDK/GD32VW55x_RELEASE_V1.0.2/MSDK/cloud/alicloud/src/services/awss\zconfig_ieee80211.c ****         left -= 2;
 673:C:/Users/stapi/OneDrive/Desktop/GD32VW553/V1_MQTT_OK/GD32VW55X_Wifi_BLE_SDK/GD32VW55x_RELEASE_V1.0.2/MSDK/cloud/alicloud/src/services/awss\zconfig_ieee80211.c **** 
 674:C:/Users/stapi/OneDrive/Desktop/GD32VW553/V1_MQTT_OK/GD32VW55X_Wifi_BLE_SDK/GD32VW55x_RELEASE_V1.0.2/MSDK/cloud/alicloud/src/services/awss\zconfig_ieee80211.c ****         if (count == 0 || left < count * RSN_SELECTOR_LEN) {
 675:C:/Users/stapi/OneDrive/Desktop/GD32VW553/V1_MQTT_OK/GD32VW55X_Wifi_BLE_SDK/GD32VW55x_RELEASE_V1.0.2/MSDK/cloud/alicloud/src/services/awss\zconfig_ieee80211.c ****             return -1;
 676:C:/Users/stapi/OneDrive/Desktop/GD32VW553/V1_MQTT_OK/GD32VW55X_Wifi_BLE_SDK/GD32VW55x_RELEASE_V1.0.2/MSDK/cloud/alicloud/src/services/awss\zconfig_ieee80211.c ****         }
 677:C:/Users/stapi/OneDrive/Desktop/GD32VW553/V1_MQTT_OK/GD32VW55X_Wifi_BLE_SDK/GD32VW55x_RELEASE_V1.0.2/MSDK/cloud/alicloud/src/services/awss\zconfig_ieee80211.c **** 
 678:C:/Users/stapi/OneDrive/Desktop/GD32VW553/V1_MQTT_OK/GD32VW55X_Wifi_BLE_SDK/GD32VW55x_RELEASE_V1.0.2/MSDK/cloud/alicloud/src/services/awss\zconfig_ieee80211.c ****         for (i = 0; i < count; i++) {
 679:C:/Users/stapi/OneDrive/Desktop/GD32VW553/V1_MQTT_OK/GD32VW55X_Wifi_BLE_SDK/GD32VW55x_RELEASE_V1.0.2/MSDK/cloud/alicloud/src/services/awss\zconfig_ieee80211.c ****             *pairwise_cipher |= get_wpa2_cipher_suite(pos);
 680:C:/Users/stapi/OneDrive/Desktop/GD32VW553/V1_MQTT_OK/GD32VW55X_Wifi_BLE_SDK/GD32VW55x_RELEASE_V1.0.2/MSDK/cloud/alicloud/src/services/awss\zconfig_ieee80211.c **** 
 681:C:/Users/stapi/OneDrive/Desktop/GD32VW553/V1_MQTT_OK/GD32VW55X_Wifi_BLE_SDK/GD32VW55x_RELEASE_V1.0.2/MSDK/cloud/alicloud/src/services/awss\zconfig_ieee80211.c ****             pos += RSN_SELECTOR_LEN;
 682:C:/Users/stapi/OneDrive/Desktop/GD32VW553/V1_MQTT_OK/GD32VW55X_Wifi_BLE_SDK/GD32VW55x_RELEASE_V1.0.2/MSDK/cloud/alicloud/src/services/awss\zconfig_ieee80211.c ****             left -= RSN_SELECTOR_LEN;
 683:C:/Users/stapi/OneDrive/Desktop/GD32VW553/V1_MQTT_OK/GD32VW55X_Wifi_BLE_SDK/GD32VW55x_RELEASE_V1.0.2/MSDK/cloud/alicloud/src/services/awss\zconfig_ieee80211.c ****         }
 684:C:/Users/stapi/OneDrive/Desktop/GD32VW553/V1_MQTT_OK/GD32VW55X_Wifi_BLE_SDK/GD32VW55x_RELEASE_V1.0.2/MSDK/cloud/alicloud/src/services/awss\zconfig_ieee80211.c ****     } else if (left == 1) {
 685:C:/Users/stapi/OneDrive/Desktop/GD32VW553/V1_MQTT_OK/GD32VW55X_Wifi_BLE_SDK/GD32VW55x_RELEASE_V1.0.2/MSDK/cloud/alicloud/src/services/awss\zconfig_ieee80211.c ****         return -1;
 686:C:/Users/stapi/OneDrive/Desktop/GD32VW553/V1_MQTT_OK/GD32VW55X_Wifi_BLE_SDK/GD32VW55x_RELEASE_V1.0.2/MSDK/cloud/alicloud/src/services/awss\zconfig_ieee80211.c ****     }
 687:C:/Users/stapi/OneDrive/Desktop/GD32VW553/V1_MQTT_OK/GD32VW55X_Wifi_BLE_SDK/GD32VW55x_RELEASE_V1.0.2/MSDK/cloud/alicloud/src/services/awss\zconfig_ieee80211.c **** 
 688:C:/Users/stapi/OneDrive/Desktop/GD32VW553/V1_MQTT_OK/GD32VW55X_Wifi_BLE_SDK/GD32VW55x_RELEASE_V1.0.2/MSDK/cloud/alicloud/src/services/awss\zconfig_ieee80211.c ****     if (is_8021x) {
 689:C:/Users/stapi/OneDrive/Desktop/GD32VW553/V1_MQTT_OK/GD32VW55X_Wifi_BLE_SDK/GD32VW55x_RELEASE_V1.0.2/MSDK/cloud/alicloud/src/services/awss\zconfig_ieee80211.c ****         if (left >= 6) {
 690:C:/Users/stapi/OneDrive/Desktop/GD32VW553/V1_MQTT_OK/GD32VW55X_Wifi_BLE_SDK/GD32VW55x_RELEASE_V1.0.2/MSDK/cloud/alicloud/src/services/awss\zconfig_ieee80211.c ****             pos += 2;
 691:C:/Users/stapi/OneDrive/Desktop/GD32VW553/V1_MQTT_OK/GD32VW55X_Wifi_BLE_SDK/GD32VW55x_RELEASE_V1.0.2/MSDK/cloud/alicloud/src/services/awss\zconfig_ieee80211.c ****             if (!memcmp(pos, RSN_SUITE_1X, 4)) {
 692:C:/Users/stapi/OneDrive/Desktop/GD32VW553/V1_MQTT_OK/GD32VW55X_Wifi_BLE_SDK/GD32VW55x_RELEASE_V1.0.2/MSDK/cloud/alicloud/src/services/awss\zconfig_ieee80211.c ****                 *is_8021x = 1;
 693:C:/Users/stapi/OneDrive/Desktop/GD32VW553/V1_MQTT_OK/GD32VW55X_Wifi_BLE_SDK/GD32VW55x_RELEASE_V1.0.2/MSDK/cloud/alicloud/src/services/awss\zconfig_ieee80211.c ****             }
 694:C:/Users/stapi/OneDrive/Desktop/GD32VW553/V1_MQTT_OK/GD32VW55X_Wifi_BLE_SDK/GD32VW55x_RELEASE_V1.0.2/MSDK/cloud/alicloud/src/services/awss\zconfig_ieee80211.c ****         }
 695:C:/Users/stapi/OneDrive/Desktop/GD32VW553/V1_MQTT_OK/GD32VW55X_Wifi_BLE_SDK/GD32VW55x_RELEASE_V1.0.2/MSDK/cloud/alicloud/src/services/awss\zconfig_ieee80211.c ****     }
 696:C:/Users/stapi/OneDrive/Desktop/GD32VW553/V1_MQTT_OK/GD32VW55X_Wifi_BLE_SDK/GD32VW55x_RELEASE_V1.0.2/MSDK/cloud/alicloud/src/services/awss\zconfig_ieee80211.c **** 
 697:C:/Users/stapi/OneDrive/Desktop/GD32VW553/V1_MQTT_OK/GD32VW55X_Wifi_BLE_SDK/GD32VW55x_RELEASE_V1.0.2/MSDK/cloud/alicloud/src/services/awss\zconfig_ieee80211.c ****     return ret;
 698:C:/Users/stapi/OneDrive/Desktop/GD32VW553/V1_MQTT_OK/GD32VW55X_Wifi_BLE_SDK/GD32VW55x_RELEASE_V1.0.2/MSDK/cloud/alicloud/src/services/awss\zconfig_ieee80211.c **** }
 1685              		.loc 1 698 1
 1686 0006 8280     		ret
 1687              	.LVL195:
 1688              	.L148:
 639:C:/Users/stapi/OneDrive/Desktop/GD32VW553/V1_MQTT_OK/GD32VW55X_Wifi_BLE_SDK/GD32VW55x_RELEASE_V1.0.2/MSDK/cloud/alicloud/src/services/awss\zconfig_ieee80211.c ****     int i, ret = 0;
 1689              		.loc 1 639 1
 1690 0008 17030000 		call	t0,__riscv_save_7
 1690      E7020300 
 1691              		.cfi_offset 22, -32
 1692              		.cfi_offset 21, -28
 1693              		.cfi_offset 20, -24
 1694              		.cfi_offset 19, -20
 1695              		.cfi_offset 18, -16
 1696              		.cfi_offset 9, -12
 1697              		.cfi_offset 8, -8
 1698              		.cfi_offset 1, -4
 1699              		.cfi_def_cfa_offset 32
 1700 0010 BA89     		mv	s3,a4
 649:C:/Users/stapi/OneDrive/Desktop/GD32VW553/V1_MQTT_OK/GD32VW55X_Wifi_BLE_SDK/GD32VW55x_RELEASE_V1.0.2/MSDK/cloud/alicloud/src/services/awss\zconfig_ieee80211.c ****         return -1;
 1701              		.loc 1 649 5 is_stmt 1
 649:C:/Users/stapi/OneDrive/Desktop/GD32VW553/V1_MQTT_OK/GD32VW55X_Wifi_BLE_SDK/GD32VW55x_RELEASE_V1.0.2/MSDK/cloud/alicloud/src/services/awss\zconfig_ieee80211.c ****         return -1;
 1702              		.loc 1 649 8 is_stmt 0
 1703 0012 03470500 		lbu	a4,0(a0)
 1704              	.LVL196:
 1705 0016 93070003 		li	a5,48
 1706 001a 2A8A     		mv	s4,a0
 1707 001c 631DF70A 		bne	a4,a5,.L150
 649:C:/Users/stapi/OneDrive/Desktop/GD32VW553/V1_MQTT_OK/GD32VW55X_Wifi_BLE_SDK/GD32VW55x_RELEASE_V1.0.2/MSDK/cloud/alicloud/src/services/awss\zconfig_ieee80211.c ****         return -1;
 1708              		.loc 1 649 33 discriminator 1
 1709 0020 03471500 		lbu	a4,1(a0)
 649:C:/Users/stapi/OneDrive/Desktop/GD32VW553/V1_MQTT_OK/GD32VW55X_Wifi_BLE_SDK/GD32VW55x_RELEASE_V1.0.2/MSDK/cloud/alicloud/src/services/awss\zconfig_ieee80211.c ****         return -1;
 1710              		.loc 1 649 53 discriminator 1
 1711 0024 9387E5FF 		addi	a5,a1,-2
 649:C:/Users/stapi/OneDrive/Desktop/GD32VW553/V1_MQTT_OK/GD32VW55X_Wifi_BLE_SDK/GD32VW55x_RELEASE_V1.0.2/MSDK/cloud/alicloud/src/services/awss\zconfig_ieee80211.c ****         return -1;
 1712              		.loc 1 649 33 discriminator 1
 1713 0028 93F7F70F 		andi	a5,a5,0xff
 1714 002c AE84     		mv	s1,a1
 1715 002e 6314F70A 		bne	a4,a5,.L150
 1716              	.LVL197:
 655:C:/Users/stapi/OneDrive/Desktop/GD32VW553/V1_MQTT_OK/GD32VW55X_Wifi_BLE_SDK/GD32VW55x_RELEASE_V1.0.2/MSDK/cloud/alicloud/src/services/awss\zconfig_ieee80211.c **** 
 1717              		.loc 1 655 10
 1718 0032 1384C5FF 		addi	s0,a1,-4
 658:C:/Users/stapi/OneDrive/Desktop/GD32VW553/V1_MQTT_OK/GD32VW55X_Wifi_BLE_SDK/GD32VW55x_RELEASE_V1.0.2/MSDK/cloud/alicloud/src/services/awss\zconfig_ieee80211.c ****         *group_cipher = get_wpa2_cipher_suite(pos);
 1719              		.loc 1 658 8
 1720 0036 8D47     		li	a5,3
 1721 0038 B68A     		mv	s5,a3
 653:C:/Users/stapi/OneDrive/Desktop/GD32VW553/V1_MQTT_OK/GD32VW55X_Wifi_BLE_SDK/GD32VW55x_RELEASE_V1.0.2/MSDK/cloud/alicloud/src/services/awss\zconfig_ieee80211.c ****     pos += 4;
 1722              		.loc 1 653 5 is_stmt 1
 1723              	.LVL198:
 654:C:/Users/stapi/OneDrive/Desktop/GD32VW553/V1_MQTT_OK/GD32VW55X_Wifi_BLE_SDK/GD32VW55x_RELEASE_V1.0.2/MSDK/cloud/alicloud/src/services/awss\zconfig_ieee80211.c ****     left = rsn_ie_len - 4;
 1724              		.loc 1 654 5
 654:C:/Users/stapi/OneDrive/Desktop/GD32VW553/V1_MQTT_OK/GD32VW55X_Wifi_BLE_SDK/GD32VW55x_RELEASE_V1.0.2/MSDK/cloud/alicloud/src/services/awss\zconfig_ieee80211.c ****     left = rsn_ie_len - 4;
 1725              		.loc 1 654 9 is_stmt 0
 1726 003a 13094500 		addi	s2,a0,4
 1727              	.LVL199:
 655:C:/Users/stapi/OneDrive/Desktop/GD32VW553/V1_MQTT_OK/GD32VW55X_Wifi_BLE_SDK/GD32VW55x_RELEASE_V1.0.2/MSDK/cloud/alicloud/src/services/awss\zconfig_ieee80211.c **** 
 1728              		.loc 1 655 5 is_stmt 1
 658:C:/Users/stapi/OneDrive/Desktop/GD32VW553/V1_MQTT_OK/GD32VW55X_Wifi_BLE_SDK/GD32VW55x_RELEASE_V1.0.2/MSDK/cloud/alicloud/src/services/awss\zconfig_ieee80211.c ****         *group_cipher = get_wpa2_cipher_suite(pos);
 1729              		.loc 1 658 5
 658:C:/Users/stapi/OneDrive/Desktop/GD32VW553/V1_MQTT_OK/GD32VW55X_Wifi_BLE_SDK/GD32VW55x_RELEASE_V1.0.2/MSDK/cloud/alicloud/src/services/awss\zconfig_ieee80211.c ****         *group_cipher = get_wpa2_cipher_suite(pos);
 1730              		.loc 1 658 8 is_stmt 0
 1731 003e 63DA8708 		ble	s0,a5,.L151
 659:C:/Users/stapi/OneDrive/Desktop/GD32VW553/V1_MQTT_OK/GD32VW55X_Wifi_BLE_SDK/GD32VW55x_RELEASE_V1.0.2/MSDK/cloud/alicloud/src/services/awss\zconfig_ieee80211.c **** 
 1732              		.loc 1 659 25
 1733 0042 4A85     		mv	a0,s2
 1734              	.LVL200:
 1735 0044 328B     		mv	s6,a2
 659:C:/Users/stapi/OneDrive/Desktop/GD32VW553/V1_MQTT_OK/GD32VW55X_Wifi_BLE_SDK/GD32VW55x_RELEASE_V1.0.2/MSDK/cloud/alicloud/src/services/awss\zconfig_ieee80211.c **** 
 1736              		.loc 1 659 9 is_stmt 1
 659:C:/Users/stapi/OneDrive/Desktop/GD32VW553/V1_MQTT_OK/GD32VW55X_Wifi_BLE_SDK/GD32VW55x_RELEASE_V1.0.2/MSDK/cloud/alicloud/src/services/awss\zconfig_ieee80211.c **** 
 1737              		.loc 1 659 25 is_stmt 0
 1738 0046 97000000 		call	get_wpa2_cipher_suite
 1738      E7800000 
 1739              	.LVL201:
 659:C:/Users/stapi/OneDrive/Desktop/GD32VW553/V1_MQTT_OK/GD32VW55X_Wifi_BLE_SDK/GD32VW55x_RELEASE_V1.0.2/MSDK/cloud/alicloud/src/services/awss\zconfig_ieee80211.c **** 
 1740              		.loc 1 659 23
 1741 004e 2300AB00 		sb	a0,0(s6)
 661:C:/Users/stapi/OneDrive/Desktop/GD32VW553/V1_MQTT_OK/GD32VW55X_Wifi_BLE_SDK/GD32VW55x_RELEASE_V1.0.2/MSDK/cloud/alicloud/src/services/awss\zconfig_ieee80211.c ****         left -= RSN_SELECTOR_LEN;
 1742              		.loc 1 661 9 is_stmt 1
 661:C:/Users/stapi/OneDrive/Desktop/GD32VW553/V1_MQTT_OK/GD32VW55X_Wifi_BLE_SDK/GD32VW55x_RELEASE_V1.0.2/MSDK/cloud/alicloud/src/services/awss\zconfig_ieee80211.c ****         left -= RSN_SELECTOR_LEN;
 1743              		.loc 1 661 13 is_stmt 0
 1744 0052 13098A00 		addi	s2,s4,8
 1745              	.LVL202:
 662:C:/Users/stapi/OneDrive/Desktop/GD32VW553/V1_MQTT_OK/GD32VW55X_Wifi_BLE_SDK/GD32VW55x_RELEASE_V1.0.2/MSDK/cloud/alicloud/src/services/awss\zconfig_ieee80211.c ****     } else if (left > 0) {
 1746              		.loc 1 662 9 is_stmt 1
 662:C:/Users/stapi/OneDrive/Desktop/GD32VW553/V1_MQTT_OK/GD32VW55X_Wifi_BLE_SDK/GD32VW55x_RELEASE_V1.0.2/MSDK/cloud/alicloud/src/services/awss\zconfig_ieee80211.c ****     } else if (left > 0) {
 1747              		.loc 1 662 14 is_stmt 0
 1748 0056 138484FF 		addi	s0,s1,-8
 1749              	.LVL203:
 1750              	.L152:
 668:C:/Users/stapi/OneDrive/Desktop/GD32VW553/V1_MQTT_OK/GD32VW55X_Wifi_BLE_SDK/GD32VW55x_RELEASE_V1.0.2/MSDK/cloud/alicloud/src/services/awss\zconfig_ieee80211.c ****         /* count = le16_to_cpu(*(uint16_t*)pos); */
 1751              		.loc 1 668 5 is_stmt 1
 668:C:/Users/stapi/OneDrive/Desktop/GD32VW553/V1_MQTT_OK/GD32VW55X_Wifi_BLE_SDK/GD32VW55x_RELEASE_V1.0.2/MSDK/cloud/alicloud/src/services/awss\zconfig_ieee80211.c ****         /* count = le16_to_cpu(*(uint16_t*)pos); */
 1752              		.loc 1 668 8 is_stmt 0
 1753 005a 8547     		li	a5,1
 1754 005c 63D28708 		ble	s0,a5,.L153
 670:C:/Users/stapi/OneDrive/Desktop/GD32VW553/V1_MQTT_OK/GD32VW55X_Wifi_BLE_SDK/GD32VW55x_RELEASE_V1.0.2/MSDK/cloud/alicloud/src/services/awss\zconfig_ieee80211.c ****         pos += 2;
 1755              		.loc 1 670 9 is_stmt 1
 670:C:/Users/stapi/OneDrive/Desktop/GD32VW553/V1_MQTT_OK/GD32VW55X_Wifi_BLE_SDK/GD32VW55x_RELEASE_V1.0.2/MSDK/cloud/alicloud/src/services/awss\zconfig_ieee80211.c ****         pos += 2;
 1756              		.loc 1 670 17 is_stmt 0
 1757 0060 4A85     		mv	a0,s2
 1758 0062 97000000 		call	os_get_unaligned_le16
 1758      E7800000 
 1759              	.LVL204:
 1760 006a AA84     		mv	s1,a0
 1761              	.LVL205:
 671:C:/Users/stapi/OneDrive/Desktop/GD32VW553/V1_MQTT_OK/GD32VW55X_Wifi_BLE_SDK/GD32VW55x_RELEASE_V1.0.2/MSDK/cloud/alicloud/src/services/awss\zconfig_ieee80211.c ****         left -= 2;
 1762              		.loc 1 671 9 is_stmt 1
 671:C:/Users/stapi/OneDrive/Desktop/GD32VW553/V1_MQTT_OK/GD32VW55X_Wifi_BLE_SDK/GD32VW55x_RELEASE_V1.0.2/MSDK/cloud/alicloud/src/services/awss\zconfig_ieee80211.c ****         left -= 2;
 1763              		.loc 1 671 13 is_stmt 0
 1764 006c 0909     		addi	s2,s2,2
 1765              	.LVL206:
 672:C:/Users/stapi/OneDrive/Desktop/GD32VW553/V1_MQTT_OK/GD32VW55X_Wifi_BLE_SDK/GD32VW55x_RELEASE_V1.0.2/MSDK/cloud/alicloud/src/services/awss\zconfig_ieee80211.c **** 
 1766              		.loc 1 672 9 is_stmt 1
 672:C:/Users/stapi/OneDrive/Desktop/GD32VW553/V1_MQTT_OK/GD32VW55X_Wifi_BLE_SDK/GD32VW55x_RELEASE_V1.0.2/MSDK/cloud/alicloud/src/services/awss\zconfig_ieee80211.c **** 
 1767              		.loc 1 672 14 is_stmt 0
 1768 006e 7914     		addi	s0,s0,-2
 1769              	.LVL207:
 674:C:/Users/stapi/OneDrive/Desktop/GD32VW553/V1_MQTT_OK/GD32VW55X_Wifi_BLE_SDK/GD32VW55x_RELEASE_V1.0.2/MSDK/cloud/alicloud/src/services/awss\zconfig_ieee80211.c ****             return -1;
 1770              		.loc 1 674 9 is_stmt 1
 674:C:/Users/stapi/OneDrive/Desktop/GD32VW553/V1_MQTT_OK/GD32VW55X_Wifi_BLE_SDK/GD32VW55x_RELEASE_V1.0.2/MSDK/cloud/alicloud/src/services/awss\zconfig_ieee80211.c ****             return -1;
 1771              		.loc 1 674 12 is_stmt 0
 1772 0070 3DC1     		beq	a0,zero,.L150
 674:C:/Users/stapi/OneDrive/Desktop/GD32VW553/V1_MQTT_OK/GD32VW55X_Wifi_BLE_SDK/GD32VW55x_RELEASE_V1.0.2/MSDK/cloud/alicloud/src/services/awss\zconfig_ieee80211.c ****             return -1;
 1773              		.loc 1 674 40 discriminator 1
 1774 0072 93172500 		slli	a5,a0,2
 674:C:/Users/stapi/OneDrive/Desktop/GD32VW553/V1_MQTT_OK/GD32VW55X_Wifi_BLE_SDK/GD32VW55x_RELEASE_V1.0.2/MSDK/cloud/alicloud/src/services/awss\zconfig_ieee80211.c ****             return -1;
 1775              		.loc 1 674 24 discriminator 1
 1776 0076 6340F406 		bgt	a5,s0,.L150
 671:C:/Users/stapi/OneDrive/Desktop/GD32VW553/V1_MQTT_OK/GD32VW55X_Wifi_BLE_SDK/GD32VW55x_RELEASE_V1.0.2/MSDK/cloud/alicloud/src/services/awss\zconfig_ieee80211.c ****         left -= 2;
 1777              		.loc 1 671 13
 1778 007a 4A8B     		mv	s6,s2
 678:C:/Users/stapi/OneDrive/Desktop/GD32VW553/V1_MQTT_OK/GD32VW55X_Wifi_BLE_SDK/GD32VW55x_RELEASE_V1.0.2/MSDK/cloud/alicloud/src/services/awss\zconfig_ieee80211.c ****             *pairwise_cipher |= get_wpa2_cipher_suite(pos);
 1779              		.loc 1 678 16
 1780 007c 014A     		li	s4,0
 1781              	.LVL208:
 1782              	.L154:
 679:C:/Users/stapi/OneDrive/Desktop/GD32VW553/V1_MQTT_OK/GD32VW55X_Wifi_BLE_SDK/GD32VW55x_RELEASE_V1.0.2/MSDK/cloud/alicloud/src/services/awss\zconfig_ieee80211.c **** 
 1783              		.loc 1 679 13 is_stmt 1 discriminator 3
 679:C:/Users/stapi/OneDrive/Desktop/GD32VW553/V1_MQTT_OK/GD32VW55X_Wifi_BLE_SDK/GD32VW55x_RELEASE_V1.0.2/MSDK/cloud/alicloud/src/services/awss\zconfig_ieee80211.c **** 
 1784              		.loc 1 679 33 is_stmt 0 discriminator 3
 1785 007e 5A85     		mv	a0,s6
 1786 0080 97000000 		call	get_wpa2_cipher_suite
 1786      E7800000 
 1787              	.LVL209:
 679:C:/Users/stapi/OneDrive/Desktop/GD32VW553/V1_MQTT_OK/GD32VW55X_Wifi_BLE_SDK/GD32VW55x_RELEASE_V1.0.2/MSDK/cloud/alicloud/src/services/awss\zconfig_ieee80211.c **** 
 1788              		.loc 1 679 30 discriminator 3
 1789 0088 83C70A00 		lbu	a5,0(s5)
 678:C:/Users/stapi/OneDrive/Desktop/GD32VW553/V1_MQTT_OK/GD32VW55X_Wifi_BLE_SDK/GD32VW55x_RELEASE_V1.0.2/MSDK/cloud/alicloud/src/services/awss\zconfig_ieee80211.c ****             *pairwise_cipher |= get_wpa2_cipher_suite(pos);
 1790              		.loc 1 678 33 discriminator 3
 1791 008c 050A     		addi	s4,s4,1
 1792              	.LVL210:
 681:C:/Users/stapi/OneDrive/Desktop/GD32VW553/V1_MQTT_OK/GD32VW55X_Wifi_BLE_SDK/GD32VW55x_RELEASE_V1.0.2/MSDK/cloud/alicloud/src/services/awss\zconfig_ieee80211.c ****             left -= RSN_SELECTOR_LEN;
 1793              		.loc 1 681 17 discriminator 3
 1794 008e 110B     		addi	s6,s6,4
 679:C:/Users/stapi/OneDrive/Desktop/GD32VW553/V1_MQTT_OK/GD32VW55X_Wifi_BLE_SDK/GD32VW55x_RELEASE_V1.0.2/MSDK/cloud/alicloud/src/services/awss\zconfig_ieee80211.c **** 
 1795              		.loc 1 679 30 discriminator 3
 1796 0090 5D8D     		or	a0,a0,a5
 1797 0092 2380AA00 		sb	a0,0(s5)
 681:C:/Users/stapi/OneDrive/Desktop/GD32VW553/V1_MQTT_OK/GD32VW55X_Wifi_BLE_SDK/GD32VW55x_RELEASE_V1.0.2/MSDK/cloud/alicloud/src/services/awss\zconfig_ieee80211.c ****             left -= RSN_SELECTOR_LEN;
 1798              		.loc 1 681 13 is_stmt 1 discriminator 3
 682:C:/Users/stapi/OneDrive/Desktop/GD32VW553/V1_MQTT_OK/GD32VW55X_Wifi_BLE_SDK/GD32VW55x_RELEASE_V1.0.2/MSDK/cloud/alicloud/src/services/awss\zconfig_ieee80211.c ****         }
 1799              		.loc 1 682 13 discriminator 3
 678:C:/Users/stapi/OneDrive/Desktop/GD32VW553/V1_MQTT_OK/GD32VW55X_Wifi_BLE_SDK/GD32VW55x_RELEASE_V1.0.2/MSDK/cloud/alicloud/src/services/awss\zconfig_ieee80211.c ****             *pairwise_cipher |= get_wpa2_cipher_suite(pos);
 1800              		.loc 1 678 32 discriminator 3
 1801              	.LVL211:
 678:C:/Users/stapi/OneDrive/Desktop/GD32VW553/V1_MQTT_OK/GD32VW55X_Wifi_BLE_SDK/GD32VW55x_RELEASE_V1.0.2/MSDK/cloud/alicloud/src/services/awss\zconfig_ieee80211.c ****             *pairwise_cipher |= get_wpa2_cipher_suite(pos);
 1802              		.loc 1 678 21 discriminator 3
 678:C:/Users/stapi/OneDrive/Desktop/GD32VW553/V1_MQTT_OK/GD32VW55X_Wifi_BLE_SDK/GD32VW55x_RELEASE_V1.0.2/MSDK/cloud/alicloud/src/services/awss\zconfig_ieee80211.c ****             *pairwise_cipher |= get_wpa2_cipher_suite(pos);
 1803              		.loc 1 678 9 is_stmt 0 discriminator 3
 1804 0096 E3449AFE 		bgt	s1,s4,.L154
 1805 009a F157     		li	a5,-4
 1806 009c 7F94F4C4 		maddr32	s0, s1, a5
 1807 00a0 FD14     		addi	s1,s1,-1
 1808              	.LVL212:
 1809 00a2 8A04     		slli	s1,s1,2
 1810              	.LVL213:
 688:C:/Users/stapi/OneDrive/Desktop/GD32VW553/V1_MQTT_OK/GD32VW55X_Wifi_BLE_SDK/GD32VW55x_RELEASE_V1.0.2/MSDK/cloud/alicloud/src/services/awss\zconfig_ieee80211.c ****         if (left >= 6) {
 1811              		.loc 1 688 5 is_stmt 1
 697:C:/Users/stapi/OneDrive/Desktop/GD32VW553/V1_MQTT_OK/GD32VW55X_Wifi_BLE_SDK/GD32VW55x_RELEASE_V1.0.2/MSDK/cloud/alicloud/src/services/awss\zconfig_ieee80211.c **** }
 1812              		.loc 1 697 12 is_stmt 0
 1813 00a4 0145     		li	a0,0
 688:C:/Users/stapi/OneDrive/Desktop/GD32VW553/V1_MQTT_OK/GD32VW55X_Wifi_BLE_SDK/GD32VW55x_RELEASE_V1.0.2/MSDK/cloud/alicloud/src/services/awss\zconfig_ieee80211.c ****         if (left >= 6) {
 1814              		.loc 1 688 8
 1815 00a6 63890902 		beq	s3,zero,.L147
 689:C:/Users/stapi/OneDrive/Desktop/GD32VW553/V1_MQTT_OK/GD32VW55X_Wifi_BLE_SDK/GD32VW55x_RELEASE_V1.0.2/MSDK/cloud/alicloud/src/services/awss\zconfig_ieee80211.c ****             pos += 2;
 1816              		.loc 1 689 9 is_stmt 1
 689:C:/Users/stapi/OneDrive/Desktop/GD32VW553/V1_MQTT_OK/GD32VW55X_Wifi_BLE_SDK/GD32VW55x_RELEASE_V1.0.2/MSDK/cloud/alicloud/src/services/awss\zconfig_ieee80211.c ****             pos += 2;
 1817              		.loc 1 689 12 is_stmt 0
 1818 00aa 9547     		li	a5,5
 1819 00ac 63D68702 		ble	s0,a5,.L147
 690:C:/Users/stapi/OneDrive/Desktop/GD32VW553/V1_MQTT_OK/GD32VW55X_Wifi_BLE_SDK/GD32VW55x_RELEASE_V1.0.2/MSDK/cloud/alicloud/src/services/awss\zconfig_ieee80211.c ****             if (!memcmp(pos, RSN_SUITE_1X, 4)) {
 1820              		.loc 1 690 13 is_stmt 1
 1821              	.LVL214:
 691:C:/Users/stapi/OneDrive/Desktop/GD32VW553/V1_MQTT_OK/GD32VW55X_Wifi_BLE_SDK/GD32VW55x_RELEASE_V1.0.2/MSDK/cloud/alicloud/src/services/awss\zconfig_ieee80211.c ****                 *is_8021x = 1;
 1822              		.loc 1 691 13
 690:C:/Users/stapi/OneDrive/Desktop/GD32VW553/V1_MQTT_OK/GD32VW55X_Wifi_BLE_SDK/GD32VW55x_RELEASE_V1.0.2/MSDK/cloud/alicloud/src/services/awss\zconfig_ieee80211.c ****             if (!memcmp(pos, RSN_SUITE_1X, 4)) {
 1823              		.loc 1 690 17 is_stmt 0
 1824 00b0 13856400 		addi	a0,s1,6
 691:C:/Users/stapi/OneDrive/Desktop/GD32VW553/V1_MQTT_OK/GD32VW55X_Wifi_BLE_SDK/GD32VW55x_RELEASE_V1.0.2/MSDK/cloud/alicloud/src/services/awss\zconfig_ieee80211.c ****                 *is_8021x = 1;
 1825              		.loc 1 691 18
 1826 00b4 B7050000 		lui	a1,%hi(.LANCHOR11)
 1827 00b8 1146     		li	a2,4
 1828 00ba 93850500 		addi	a1,a1,%lo(.LANCHOR11)
 1829 00be 4A95     		add	a0,s2,a0
 1830 00c0 97000000 		call	memcmp
 1830      E7800000 
 1831              	.LVL215:
 691:C:/Users/stapi/OneDrive/Desktop/GD32VW553/V1_MQTT_OK/GD32VW55X_Wifi_BLE_SDK/GD32VW55x_RELEASE_V1.0.2/MSDK/cloud/alicloud/src/services/awss\zconfig_ieee80211.c ****                 *is_8021x = 1;
 1832              		.loc 1 691 16
 1833 00c8 1DE1     		bne	a0,zero,.L158
 692:C:/Users/stapi/OneDrive/Desktop/GD32VW553/V1_MQTT_OK/GD32VW55X_Wifi_BLE_SDK/GD32VW55x_RELEASE_V1.0.2/MSDK/cloud/alicloud/src/services/awss\zconfig_ieee80211.c ****             }
 1834              		.loc 1 692 17 is_stmt 1
 692:C:/Users/stapi/OneDrive/Desktop/GD32VW553/V1_MQTT_OK/GD32VW55X_Wifi_BLE_SDK/GD32VW55x_RELEASE_V1.0.2/MSDK/cloud/alicloud/src/services/awss\zconfig_ieee80211.c ****             }
 1835              		.loc 1 692 27 is_stmt 0
 1836 00ca 8547     		li	a5,1
 1837 00cc 2380F900 		sb	a5,0(s3)
 1838 00d0 21A0     		j	.L147
 1839              	.LVL216:
 1840              	.L151:
 663:C:/Users/stapi/OneDrive/Desktop/GD32VW553/V1_MQTT_OK/GD32VW55X_Wifi_BLE_SDK/GD32VW55x_RELEASE_V1.0.2/MSDK/cloud/alicloud/src/services/awss\zconfig_ieee80211.c ****         return -1;
 1841              		.loc 1 663 12 is_stmt 1
 663:C:/Users/stapi/OneDrive/Desktop/GD32VW553/V1_MQTT_OK/GD32VW55X_Wifi_BLE_SDK/GD32VW55x_RELEASE_V1.0.2/MSDK/cloud/alicloud/src/services/awss\zconfig_ieee80211.c ****         return -1;
 1842              		.loc 1 663 15 is_stmt 0
 1843 00d2 E35480F8 		ble	s0,zero,.L152
 1844              	.LVL217:
 1845              	.L150:
 646:C:/Users/stapi/OneDrive/Desktop/GD32VW553/V1_MQTT_OK/GD32VW55X_Wifi_BLE_SDK/GD32VW55x_RELEASE_V1.0.2/MSDK/cloud/alicloud/src/services/awss\zconfig_ieee80211.c ****     }
 1846              		.loc 1 646 16
 1847 00d6 7D55     		li	a0,-1
 1848              	.LVL218:
 1849              	.L147:
 1850              		.loc 1 698 1
 1851 00d8 17030000 		tail	__riscv_restore_7
 1851      67000300 
 1852              		.cfi_remember_state
 1853              		.cfi_restore 22
 1854              		.cfi_restore 21
 1855              		.cfi_restore 20
 1856              		.cfi_restore 19
 1857              		.cfi_restore 18
 1858              		.cfi_restore 9
 1859              		.cfi_restore 8
 1860              		.cfi_restore 1
 1861              		.cfi_def_cfa_offset 0
 1862              	.LVL219:
 1863              	.L153:
 1864              		.cfi_restore_state
 684:C:/Users/stapi/OneDrive/Desktop/GD32VW553/V1_MQTT_OK/GD32VW55X_Wifi_BLE_SDK/GD32VW55x_RELEASE_V1.0.2/MSDK/cloud/alicloud/src/services/awss\zconfig_ieee80211.c ****         return -1;
 1865              		.loc 1 684 12 is_stmt 1
 684:C:/Users/stapi/OneDrive/Desktop/GD32VW553/V1_MQTT_OK/GD32VW55X_Wifi_BLE_SDK/GD32VW55x_RELEASE_V1.0.2/MSDK/cloud/alicloud/src/services/awss\zconfig_ieee80211.c ****         return -1;
 1866              		.loc 1 684 15 is_stmt 0
 1867 00e0 1305F4FF 		addi	a0,s0,-1
 1868 00e4 13351500 		seqz	a0,a0
 1869 00e8 3305A040 		neg	a0,a0
 1870 00ec F5B7     		j	.L147
 1871              	.LVL220:
 1872              	.L158:
 697:C:/Users/stapi/OneDrive/Desktop/GD32VW553/V1_MQTT_OK/GD32VW55X_Wifi_BLE_SDK/GD32VW55x_RELEASE_V1.0.2/MSDK/cloud/alicloud/src/services/awss\zconfig_ieee80211.c **** }
 1873              		.loc 1 697 12
 1874 00ee 0145     		li	a0,0
 1875 00f0 E5B7     		j	.L147
 1876              		.cfi_endproc
 1877              	.LFE77:
 1879              		.section	.text.cfg80211_get_cipher_info,"ax",@progbits
 1880              		.align	1
 1881              		.globl	cfg80211_get_cipher_info
 1883              	cfg80211_get_cipher_info:
 1884              	.LFB78:
 699:C:/Users/stapi/OneDrive/Desktop/GD32VW553/V1_MQTT_OK/GD32VW55X_Wifi_BLE_SDK/GD32VW55x_RELEASE_V1.0.2/MSDK/cloud/alicloud/src/services/awss\zconfig_ieee80211.c **** 
 700:C:/Users/stapi/OneDrive/Desktop/GD32VW553/V1_MQTT_OK/GD32VW55X_Wifi_BLE_SDK/GD32VW55x_RELEASE_V1.0.2/MSDK/cloud/alicloud/src/services/awss\zconfig_ieee80211.c **** /**
 701:C:/Users/stapi/OneDrive/Desktop/GD32VW553/V1_MQTT_OK/GD32VW55X_Wifi_BLE_SDK/GD32VW55x_RELEASE_V1.0.2/MSDK/cloud/alicloud/src/services/awss\zconfig_ieee80211.c ****  * extract auth/encry type from beacon frame or probe resp frame
 702:C:/Users/stapi/OneDrive/Desktop/GD32VW553/V1_MQTT_OK/GD32VW55X_Wifi_BLE_SDK/GD32VW55x_RELEASE_V1.0.2/MSDK/cloud/alicloud/src/services/awss\zconfig_ieee80211.c ****  *
 703:C:/Users/stapi/OneDrive/Desktop/GD32VW553/V1_MQTT_OK/GD32VW55X_Wifi_BLE_SDK/GD32VW55x_RELEASE_V1.0.2/MSDK/cloud/alicloud/src/services/awss\zconfig_ieee80211.c ****  * @beacon_frame: [IN] original 80211 beacon frame
 704:C:/Users/stapi/OneDrive/Desktop/GD32VW553/V1_MQTT_OK/GD32VW55X_Wifi_BLE_SDK/GD32VW55x_RELEASE_V1.0.2/MSDK/cloud/alicloud/src/services/awss\zconfig_ieee80211.c ****  * @frame_len: [IN] len of beacon frame
 705:C:/Users/stapi/OneDrive/Desktop/GD32VW553/V1_MQTT_OK/GD32VW55X_Wifi_BLE_SDK/GD32VW55x_RELEASE_V1.0.2/MSDK/cloud/alicloud/src/services/awss\zconfig_ieee80211.c ****  *
 706:C:/Users/stapi/OneDrive/Desktop/GD32VW553/V1_MQTT_OK/GD32VW55X_Wifi_BLE_SDK/GD32VW55x_RELEASE_V1.0.2/MSDK/cloud/alicloud/src/services/awss\zconfig_ieee80211.c ****  * Return:
 707:C:/Users/stapi/OneDrive/Desktop/GD32VW553/V1_MQTT_OK/GD32VW55X_Wifi_BLE_SDK/GD32VW55x_RELEASE_V1.0.2/MSDK/cloud/alicloud/src/services/awss\zconfig_ieee80211.c ****  *     bss channel 1-13, 0--means invalid channel
 708:C:/Users/stapi/OneDrive/Desktop/GD32VW553/V1_MQTT_OK/GD32VW55X_Wifi_BLE_SDK/GD32VW55x_RELEASE_V1.0.2/MSDK/cloud/alicloud/src/services/awss\zconfig_ieee80211.c ****  */
 709:C:/Users/stapi/OneDrive/Desktop/GD32VW553/V1_MQTT_OK/GD32VW55X_Wifi_BLE_SDK/GD32VW55x_RELEASE_V1.0.2/MSDK/cloud/alicloud/src/services/awss\zconfig_ieee80211.c **** int cfg80211_get_cipher_info(uint8_t *beacon_frame, uint16_t frame_len,
 710:C:/Users/stapi/OneDrive/Desktop/GD32VW553/V1_MQTT_OK/GD32VW55X_Wifi_BLE_SDK/GD32VW55x_RELEASE_V1.0.2/MSDK/cloud/alicloud/src/services/awss\zconfig_ieee80211.c ****                              uint8_t *auth_type, uint8_t *pairwise_cipher_type,
 711:C:/Users/stapi/OneDrive/Desktop/GD32VW553/V1_MQTT_OK/GD32VW55X_Wifi_BLE_SDK/GD32VW55x_RELEASE_V1.0.2/MSDK/cloud/alicloud/src/services/awss\zconfig_ieee80211.c ****                              uint8_t *group_cipher_type)
 712:C:/Users/stapi/OneDrive/Desktop/GD32VW553/V1_MQTT_OK/GD32VW55X_Wifi_BLE_SDK/GD32VW55x_RELEASE_V1.0.2/MSDK/cloud/alicloud/src/services/awss\zconfig_ieee80211.c **** {
 1885              		.loc 1 712 1 is_stmt 1
 1886              		.cfi_startproc
 1887              	.LVL221:
 1888 0000 17030000 		call	t0,__riscv_save_5
 1888      E7020300 
 1889              		.cfi_offset 20, -24
 1890              		.cfi_offset 19, -20
 1891              		.cfi_offset 18, -16
 1892              		.cfi_offset 9, -12
 1893              		.cfi_offset 8, -8
 1894              		.cfi_offset 1, -4
 1895              		.cfi_def_cfa_offset 32
 713:C:/Users/stapi/OneDrive/Desktop/GD32VW553/V1_MQTT_OK/GD32VW55X_Wifi_BLE_SDK/GD32VW55x_RELEASE_V1.0.2/MSDK/cloud/alicloud/src/services/awss\zconfig_ieee80211.c ****     struct ieee80211_mgmt *mgmt = (struct ieee80211_mgmt *)beacon_frame;
 1896              		.loc 1 713 5
 1897              	.LVL222:
 714:C:/Users/stapi/OneDrive/Desktop/GD32VW553/V1_MQTT_OK/GD32VW55X_Wifi_BLE_SDK/GD32VW55x_RELEASE_V1.0.2/MSDK/cloud/alicloud/src/services/awss\zconfig_ieee80211.c ****     uint8_t is_privacy = !!(mgmt->u.beacon.capab_info & WLAN_CAPABILITY_PRIVACY);
 1898              		.loc 1 714 5
 1899 0008 03542502 		lhu	s0,34(a0)
 712:C:/Users/stapi/OneDrive/Desktop/GD32VW553/V1_MQTT_OK/GD32VW55X_Wifi_BLE_SDK/GD32VW55x_RELEASE_V1.0.2/MSDK/cloud/alicloud/src/services/awss\zconfig_ieee80211.c ****     struct ieee80211_mgmt *mgmt = (struct ieee80211_mgmt *)beacon_frame;
 1900              		.loc 1 712 1 is_stmt 0
 1901 000c 4111     		addi	sp,sp,-16
 1902              		.cfi_def_cfa_offset 48
 712:C:/Users/stapi/OneDrive/Desktop/GD32VW553/V1_MQTT_OK/GD32VW55X_Wifi_BLE_SDK/GD32VW55x_RELEASE_V1.0.2/MSDK/cloud/alicloud/src/services/awss\zconfig_ieee80211.c ****     struct ieee80211_mgmt *mgmt = (struct ieee80211_mgmt *)beacon_frame;
 1903              		.loc 1 712 1
 1904 000e 328A     		mv	s4,a2
 715:C:/Users/stapi/OneDrive/Desktop/GD32VW553/V1_MQTT_OK/GD32VW55X_Wifi_BLE_SDK/GD32VW55x_RELEASE_V1.0.2/MSDK/cloud/alicloud/src/services/awss\zconfig_ieee80211.c **** 
 716:C:/Users/stapi/OneDrive/Desktop/GD32VW553/V1_MQTT_OK/GD32VW55X_Wifi_BLE_SDK/GD32VW55x_RELEASE_V1.0.2/MSDK/cloud/alicloud/src/services/awss\zconfig_ieee80211.c ****     uint16_t ieoffset = offsetof(struct ieee80211_mgmt, u.beacon.variable);//same as u.probe_resp.v
 717:C:/Users/stapi/OneDrive/Desktop/GD32VW553/V1_MQTT_OK/GD32VW55X_Wifi_BLE_SDK/GD32VW55x_RELEASE_V1.0.2/MSDK/cloud/alicloud/src/services/awss\zconfig_ieee80211.c ****     const uint8_t *ie = beacon_frame + ieoffset;
 718:C:/Users/stapi/OneDrive/Desktop/GD32VW553/V1_MQTT_OK/GD32VW55X_Wifi_BLE_SDK/GD32VW55x_RELEASE_V1.0.2/MSDK/cloud/alicloud/src/services/awss\zconfig_ieee80211.c ****     uint16_t ielen = frame_len - ieoffset;
 1905              		.loc 1 718 14
 1906 0010 1386C5FD 		addi	a2,a1,-36
 1907              	.LVL223:
 719:C:/Users/stapi/OneDrive/Desktop/GD32VW553/V1_MQTT_OK/GD32VW55X_Wifi_BLE_SDK/GD32VW55x_RELEASE_V1.0.2/MSDK/cloud/alicloud/src/services/awss\zconfig_ieee80211.c **** 
 720:C:/Users/stapi/OneDrive/Desktop/GD32VW553/V1_MQTT_OK/GD32VW55X_Wifi_BLE_SDK/GD32VW55x_RELEASE_V1.0.2/MSDK/cloud/alicloud/src/services/awss\zconfig_ieee80211.c ****     uint8_t auth = 0, group_cipher = 0, pairwise_cipher = 0, is80211X = 0;
 721:C:/Users/stapi/OneDrive/Desktop/GD32VW553/V1_MQTT_OK/GD32VW55X_Wifi_BLE_SDK/GD32VW55x_RELEASE_V1.0.2/MSDK/cloud/alicloud/src/services/awss\zconfig_ieee80211.c ****     const uint8_t *tmp;
 722:C:/Users/stapi/OneDrive/Desktop/GD32VW553/V1_MQTT_OK/GD32VW55X_Wifi_BLE_SDK/GD32VW55x_RELEASE_V1.0.2/MSDK/cloud/alicloud/src/services/awss\zconfig_ieee80211.c ****     int ret = 0;
 723:C:/Users/stapi/OneDrive/Desktop/GD32VW553/V1_MQTT_OK/GD32VW55X_Wifi_BLE_SDK/GD32VW55x_RELEASE_V1.0.2/MSDK/cloud/alicloud/src/services/awss\zconfig_ieee80211.c **** 
 724:C:/Users/stapi/OneDrive/Desktop/GD32VW553/V1_MQTT_OK/GD32VW55X_Wifi_BLE_SDK/GD32VW55x_RELEASE_V1.0.2/MSDK/cloud/alicloud/src/services/awss\zconfig_ieee80211.c ****     tmp = cfg80211_find_ie(WLAN_EID_RSN, ie, ielen);
 1908              		.loc 1 724 11
 1909 0014 93054502 		addi	a1,a0,36
 1910              	.LVL224:
 1911 0018 13050003 		li	a0,48
 1912              	.LVL225:
 712:C:/Users/stapi/OneDrive/Desktop/GD32VW553/V1_MQTT_OK/GD32VW55X_Wifi_BLE_SDK/GD32VW55x_RELEASE_V1.0.2/MSDK/cloud/alicloud/src/services/awss\zconfig_ieee80211.c ****     struct ieee80211_mgmt *mgmt = (struct ieee80211_mgmt *)beacon_frame;
 1913              		.loc 1 712 1
 1914 001c B689     		mv	s3,a3
 1915 001e 3A89     		mv	s2,a4
 1916 0020 4188     		andi	s0,s0,16
 1917              	.LVL226:
 716:C:/Users/stapi/OneDrive/Desktop/GD32VW553/V1_MQTT_OK/GD32VW55X_Wifi_BLE_SDK/GD32VW55x_RELEASE_V1.0.2/MSDK/cloud/alicloud/src/services/awss\zconfig_ieee80211.c ****     const uint8_t *ie = beacon_frame + ieoffset;
 1918              		.loc 1 716 5 is_stmt 1
 717:C:/Users/stapi/OneDrive/Desktop/GD32VW553/V1_MQTT_OK/GD32VW55X_Wifi_BLE_SDK/GD32VW55x_RELEASE_V1.0.2/MSDK/cloud/alicloud/src/services/awss\zconfig_ieee80211.c ****     uint16_t ielen = frame_len - ieoffset;
 1919              		.loc 1 717 5
 718:C:/Users/stapi/OneDrive/Desktop/GD32VW553/V1_MQTT_OK/GD32VW55X_Wifi_BLE_SDK/GD32VW55x_RELEASE_V1.0.2/MSDK/cloud/alicloud/src/services/awss\zconfig_ieee80211.c **** 
 1920              		.loc 1 718 5
 720:C:/Users/stapi/OneDrive/Desktop/GD32VW553/V1_MQTT_OK/GD32VW55X_Wifi_BLE_SDK/GD32VW55x_RELEASE_V1.0.2/MSDK/cloud/alicloud/src/services/awss\zconfig_ieee80211.c ****     const uint8_t *tmp;
 1921              		.loc 1 720 5
 720:C:/Users/stapi/OneDrive/Desktop/GD32VW553/V1_MQTT_OK/GD32VW55X_Wifi_BLE_SDK/GD32VW55x_RELEASE_V1.0.2/MSDK/cloud/alicloud/src/services/awss\zconfig_ieee80211.c ****     const uint8_t *tmp;
 1922              		.loc 1 720 23 is_stmt 0
 1923 0022 A3060100 		sb	zero,13(sp)
 720:C:/Users/stapi/OneDrive/Desktop/GD32VW553/V1_MQTT_OK/GD32VW55X_Wifi_BLE_SDK/GD32VW55x_RELEASE_V1.0.2/MSDK/cloud/alicloud/src/services/awss\zconfig_ieee80211.c ****     const uint8_t *tmp;
 1924              		.loc 1 720 41
 1925 0026 23070100 		sb	zero,14(sp)
 720:C:/Users/stapi/OneDrive/Desktop/GD32VW553/V1_MQTT_OK/GD32VW55X_Wifi_BLE_SDK/GD32VW55x_RELEASE_V1.0.2/MSDK/cloud/alicloud/src/services/awss\zconfig_ieee80211.c ****     const uint8_t *tmp;
 1926              		.loc 1 720 62
 1927 002a A3070100 		sb	zero,15(sp)
 721:C:/Users/stapi/OneDrive/Desktop/GD32VW553/V1_MQTT_OK/GD32VW55X_Wifi_BLE_SDK/GD32VW55x_RELEASE_V1.0.2/MSDK/cloud/alicloud/src/services/awss\zconfig_ieee80211.c ****     int ret = 0;
 1928              		.loc 1 721 5 is_stmt 1
 722:C:/Users/stapi/OneDrive/Desktop/GD32VW553/V1_MQTT_OK/GD32VW55X_Wifi_BLE_SDK/GD32VW55x_RELEASE_V1.0.2/MSDK/cloud/alicloud/src/services/awss\zconfig_ieee80211.c **** 
 1929              		.loc 1 722 5
 1930              	.LVL227:
 1931              		.loc 1 724 5
 1932              		.loc 1 724 11 is_stmt 0
 1933 002e 33460608 		zext.h	a2,a2
 1934 0032 97000000 		call	cfg80211_find_ie
 1934      E7800000 
 1935              	.LVL228:
 725:C:/Users/stapi/OneDrive/Desktop/GD32VW553/V1_MQTT_OK/GD32VW55X_Wifi_BLE_SDK/GD32VW55x_RELEASE_V1.0.2/MSDK/cloud/alicloud/src/services/awss\zconfig_ieee80211.c ****     if (tmp && tmp[1]) {
 1936              		.loc 1 725 5 is_stmt 1
 1937              		.loc 1 725 8 is_stmt 0
 1938 003a 3DC9     		beq	a0,zero,.L168
 1939              		.loc 1 725 19 discriminator 1
 1940 003c 83451500 		lbu	a1,1(a0)
 1941              		.loc 1 725 13 discriminator 1
 1942 0040 A5C9     		beq	a1,zero,.L168
 726:C:/Users/stapi/OneDrive/Desktop/GD32VW553/V1_MQTT_OK/GD32VW55X_Wifi_BLE_SDK/GD32VW55x_RELEASE_V1.0.2/MSDK/cloud/alicloud/src/services/awss\zconfig_ieee80211.c ****         ret = cfg80211_parse_wpa2_info(tmp, tmp[1] + 2, &group_cipher, &pairwise_cipher, &is80211X)
 1943              		.loc 1 726 9 is_stmt 1
 1944              		.loc 1 726 15 is_stmt 0
 1945 0042 1307F100 		addi	a4,sp,15
 1946 0046 9306E100 		addi	a3,sp,14
 1947 004a 1306D100 		addi	a2,sp,13
 1948 004e 8905     		addi	a1,a1,2
 1949 0050 97000000 		call	cfg80211_parse_wpa2_info
 1949      E7800000 
 1950              	.LVL229:
 1951 0058 AA84     		mv	s1,a0
 1952              	.LVL230:
 727:C:/Users/stapi/OneDrive/Desktop/GD32VW553/V1_MQTT_OK/GD32VW55X_Wifi_BLE_SDK/GD32VW55x_RELEASE_V1.0.2/MSDK/cloud/alicloud/src/services/awss\zconfig_ieee80211.c ****         if (is80211X) {
 1953              		.loc 1 727 9 is_stmt 1
 728:C:/Users/stapi/OneDrive/Desktop/GD32VW553/V1_MQTT_OK/GD32VW55X_Wifi_BLE_SDK/GD32VW55x_RELEASE_V1.0.2/MSDK/cloud/alicloud/src/services/awss\zconfig_ieee80211.c ****             auth = ZC_AUTH_TYPE_WPA28021X;
 729:C:/Users/stapi/OneDrive/Desktop/GD32VW553/V1_MQTT_OK/GD32VW55X_Wifi_BLE_SDK/GD32VW55x_RELEASE_V1.0.2/MSDK/cloud/alicloud/src/services/awss\zconfig_ieee80211.c ****         } else {
 730:C:/Users/stapi/OneDrive/Desktop/GD32VW553/V1_MQTT_OK/GD32VW55X_Wifi_BLE_SDK/GD32VW55x_RELEASE_V1.0.2/MSDK/cloud/alicloud/src/services/awss\zconfig_ieee80211.c ****             auth = ZC_AUTH_TYPE_WPA2PSK;
 731:C:/Users/stapi/OneDrive/Desktop/GD32VW553/V1_MQTT_OK/GD32VW55X_Wifi_BLE_SDK/GD32VW55x_RELEASE_V1.0.2/MSDK/cloud/alicloud/src/services/awss\zconfig_ieee80211.c ****         }
 732:C:/Users/stapi/OneDrive/Desktop/GD32VW553/V1_MQTT_OK/GD32VW55X_Wifi_BLE_SDK/GD32VW55x_RELEASE_V1.0.2/MSDK/cloud/alicloud/src/services/awss\zconfig_ieee80211.c ****         group_cipher = map_cipher_to_encry(group_cipher);
 1954              		.loc 1 732 24 is_stmt 0
 1955 005a 0345D100 		lbu	a0,13(sp)
 727:C:/Users/stapi/OneDrive/Desktop/GD32VW553/V1_MQTT_OK/GD32VW55X_Wifi_BLE_SDK/GD32VW55x_RELEASE_V1.0.2/MSDK/cloud/alicloud/src/services/awss\zconfig_ieee80211.c ****         if (is80211X) {
 1956              		.loc 1 727 12
 1957 005e 0344F100 		lbu	s0,15(sp)
 1958              	.LVL231:
 1959              		.loc 1 732 24
 1960 0062 97000000 		call	map_cipher_to_encry
 1960      E7800000 
 1961              	.LVL232:
 1962              		.loc 1 732 22
 1963 006a A306A100 		sb	a0,13(sp)
 733:C:/Users/stapi/OneDrive/Desktop/GD32VW553/V1_MQTT_OK/GD32VW55X_Wifi_BLE_SDK/GD32VW55x_RELEASE_V1.0.2/MSDK/cloud/alicloud/src/services/awss\zconfig_ieee80211.c ****         pairwise_cipher = map_cipher_to_encry(pairwise_cipher);
 1964              		.loc 1 733 27
 1965 006e 0345E100 		lbu	a0,14(sp)
 730:C:/Users/stapi/OneDrive/Desktop/GD32VW553/V1_MQTT_OK/GD32VW55X_Wifi_BLE_SDK/GD32VW55x_RELEASE_V1.0.2/MSDK/cloud/alicloud/src/services/awss\zconfig_ieee80211.c ****         }
 1966              		.loc 1 730 18
 1967 0072 33348000 		snez	s0,s0
 1968 0076 1104     		addi	s0,s0,4
 1969              	.LVL233:
 732:C:/Users/stapi/OneDrive/Desktop/GD32VW553/V1_MQTT_OK/GD32VW55X_Wifi_BLE_SDK/GD32VW55x_RELEASE_V1.0.2/MSDK/cloud/alicloud/src/services/awss\zconfig_ieee80211.c ****         pairwise_cipher = map_cipher_to_encry(pairwise_cipher);
 1970              		.loc 1 732 9 is_stmt 1
 1971              		.loc 1 733 9
 1972              		.loc 1 733 27 is_stmt 0
 1973 0078 97000000 		call	map_cipher_to_encry
 1973      E7800000 
 1974              	.LVL234:
 1975              		.loc 1 733 25
 1976 0080 2307A100 		sb	a0,14(sp)
 1977              	.LVL235:
 1978              	.L170:
 734:C:/Users/stapi/OneDrive/Desktop/GD32VW553/V1_MQTT_OK/GD32VW55X_Wifi_BLE_SDK/GD32VW55x_RELEASE_V1.0.2/MSDK/cloud/alicloud/src/services/awss\zconfig_ieee80211.c ****     } else {
 735:C:/Users/stapi/OneDrive/Desktop/GD32VW553/V1_MQTT_OK/GD32VW55X_Wifi_BLE_SDK/GD32VW55x_RELEASE_V1.0.2/MSDK/cloud/alicloud/src/services/awss\zconfig_ieee80211.c **** #ifdef AWSS_SUPPORT_SMARTCONFIG_WPS
 736:C:/Users/stapi/OneDrive/Desktop/GD32VW553/V1_MQTT_OK/GD32VW55X_Wifi_BLE_SDK/GD32VW55x_RELEASE_V1.0.2/MSDK/cloud/alicloud/src/services/awss\zconfig_ieee80211.c ****         tmp = cfg80211_find_vendor_ie(WLAN_OUI_MICROSOFT, WLAN_OUI_TYPE_MICROSOFT_WPA, ie, ielen);
 737:C:/Users/stapi/OneDrive/Desktop/GD32VW553/V1_MQTT_OK/GD32VW55X_Wifi_BLE_SDK/GD32VW55x_RELEASE_V1.0.2/MSDK/cloud/alicloud/src/services/awss\zconfig_ieee80211.c ****         if (tmp) {
 738:C:/Users/stapi/OneDrive/Desktop/GD32VW553/V1_MQTT_OK/GD32VW55X_Wifi_BLE_SDK/GD32VW55x_RELEASE_V1.0.2/MSDK/cloud/alicloud/src/services/awss\zconfig_ieee80211.c ****             ret = cfg80211_parse_wpa_info(tmp, tmp[1] + 2, &group_cipher, &pairwise_cipher, &is8021
 739:C:/Users/stapi/OneDrive/Desktop/GD32VW553/V1_MQTT_OK/GD32VW55X_Wifi_BLE_SDK/GD32VW55x_RELEASE_V1.0.2/MSDK/cloud/alicloud/src/services/awss\zconfig_ieee80211.c ****             if (is80211X) {
 740:C:/Users/stapi/OneDrive/Desktop/GD32VW553/V1_MQTT_OK/GD32VW55X_Wifi_BLE_SDK/GD32VW55x_RELEASE_V1.0.2/MSDK/cloud/alicloud/src/services/awss\zconfig_ieee80211.c ****                 auth = ZC_AUTH_TYPE_WPA8021X;
 741:C:/Users/stapi/OneDrive/Desktop/GD32VW553/V1_MQTT_OK/GD32VW55X_Wifi_BLE_SDK/GD32VW55x_RELEASE_V1.0.2/MSDK/cloud/alicloud/src/services/awss\zconfig_ieee80211.c ****             } else {
 742:C:/Users/stapi/OneDrive/Desktop/GD32VW553/V1_MQTT_OK/GD32VW55X_Wifi_BLE_SDK/GD32VW55x_RELEASE_V1.0.2/MSDK/cloud/alicloud/src/services/awss\zconfig_ieee80211.c ****                 auth = ZC_AUTH_TYPE_WPAPSK;
 743:C:/Users/stapi/OneDrive/Desktop/GD32VW553/V1_MQTT_OK/GD32VW55X_Wifi_BLE_SDK/GD32VW55x_RELEASE_V1.0.2/MSDK/cloud/alicloud/src/services/awss\zconfig_ieee80211.c ****             }
 744:C:/Users/stapi/OneDrive/Desktop/GD32VW553/V1_MQTT_OK/GD32VW55X_Wifi_BLE_SDK/GD32VW55x_RELEASE_V1.0.2/MSDK/cloud/alicloud/src/services/awss\zconfig_ieee80211.c ****             group_cipher = map_cipher_to_encry(group_cipher);
 745:C:/Users/stapi/OneDrive/Desktop/GD32VW553/V1_MQTT_OK/GD32VW55X_Wifi_BLE_SDK/GD32VW55x_RELEASE_V1.0.2/MSDK/cloud/alicloud/src/services/awss\zconfig_ieee80211.c ****             pairwise_cipher = map_cipher_to_encry(pairwise_cipher);
 746:C:/Users/stapi/OneDrive/Desktop/GD32VW553/V1_MQTT_OK/GD32VW55X_Wifi_BLE_SDK/GD32VW55x_RELEASE_V1.0.2/MSDK/cloud/alicloud/src/services/awss\zconfig_ieee80211.c ****         } else
 747:C:/Users/stapi/OneDrive/Desktop/GD32VW553/V1_MQTT_OK/GD32VW55X_Wifi_BLE_SDK/GD32VW55x_RELEASE_V1.0.2/MSDK/cloud/alicloud/src/services/awss\zconfig_ieee80211.c **** #endif
 748:C:/Users/stapi/OneDrive/Desktop/GD32VW553/V1_MQTT_OK/GD32VW55X_Wifi_BLE_SDK/GD32VW55x_RELEASE_V1.0.2/MSDK/cloud/alicloud/src/services/awss\zconfig_ieee80211.c ****         {
 749:C:/Users/stapi/OneDrive/Desktop/GD32VW553/V1_MQTT_OK/GD32VW55X_Wifi_BLE_SDK/GD32VW55x_RELEASE_V1.0.2/MSDK/cloud/alicloud/src/services/awss\zconfig_ieee80211.c ****             if (is_privacy) {
 750:C:/Users/stapi/OneDrive/Desktop/GD32VW553/V1_MQTT_OK/GD32VW55X_Wifi_BLE_SDK/GD32VW55x_RELEASE_V1.0.2/MSDK/cloud/alicloud/src/services/awss\zconfig_ieee80211.c ****                 auth = ZC_AUTH_TYPE_SHARED;  // TODO: WEP
 751:C:/Users/stapi/OneDrive/Desktop/GD32VW553/V1_MQTT_OK/GD32VW55X_Wifi_BLE_SDK/GD32VW55x_RELEASE_V1.0.2/MSDK/cloud/alicloud/src/services/awss\zconfig_ieee80211.c ****                 pairwise_cipher = ZC_ENC_TYPE_WEP;
 752:C:/Users/stapi/OneDrive/Desktop/GD32VW553/V1_MQTT_OK/GD32VW55X_Wifi_BLE_SDK/GD32VW55x_RELEASE_V1.0.2/MSDK/cloud/alicloud/src/services/awss\zconfig_ieee80211.c ****                 group_cipher = ZC_ENC_TYPE_WEP;
 753:C:/Users/stapi/OneDrive/Desktop/GD32VW553/V1_MQTT_OK/GD32VW55X_Wifi_BLE_SDK/GD32VW55x_RELEASE_V1.0.2/MSDK/cloud/alicloud/src/services/awss\zconfig_ieee80211.c ****             } else {
 754:C:/Users/stapi/OneDrive/Desktop/GD32VW553/V1_MQTT_OK/GD32VW55X_Wifi_BLE_SDK/GD32VW55x_RELEASE_V1.0.2/MSDK/cloud/alicloud/src/services/awss\zconfig_ieee80211.c ****                 auth = ZC_AUTH_TYPE_OPEN;
 755:C:/Users/stapi/OneDrive/Desktop/GD32VW553/V1_MQTT_OK/GD32VW55X_Wifi_BLE_SDK/GD32VW55x_RELEASE_V1.0.2/MSDK/cloud/alicloud/src/services/awss\zconfig_ieee80211.c ****                 pairwise_cipher = ZC_ENC_TYPE_NONE;
 756:C:/Users/stapi/OneDrive/Desktop/GD32VW553/V1_MQTT_OK/GD32VW55X_Wifi_BLE_SDK/GD32VW55x_RELEASE_V1.0.2/MSDK/cloud/alicloud/src/services/awss\zconfig_ieee80211.c ****                 group_cipher = ZC_ENC_TYPE_NONE;
 757:C:/Users/stapi/OneDrive/Desktop/GD32VW553/V1_MQTT_OK/GD32VW55X_Wifi_BLE_SDK/GD32VW55x_RELEASE_V1.0.2/MSDK/cloud/alicloud/src/services/awss\zconfig_ieee80211.c ****             }
 758:C:/Users/stapi/OneDrive/Desktop/GD32VW553/V1_MQTT_OK/GD32VW55X_Wifi_BLE_SDK/GD32VW55x_RELEASE_V1.0.2/MSDK/cloud/alicloud/src/services/awss\zconfig_ieee80211.c ****         }
 759:C:/Users/stapi/OneDrive/Desktop/GD32VW553/V1_MQTT_OK/GD32VW55X_Wifi_BLE_SDK/GD32VW55x_RELEASE_V1.0.2/MSDK/cloud/alicloud/src/services/awss\zconfig_ieee80211.c ****     }
 760:C:/Users/stapi/OneDrive/Desktop/GD32VW553/V1_MQTT_OK/GD32VW55X_Wifi_BLE_SDK/GD32VW55x_RELEASE_V1.0.2/MSDK/cloud/alicloud/src/services/awss\zconfig_ieee80211.c **** 
 761:C:/Users/stapi/OneDrive/Desktop/GD32VW553/V1_MQTT_OK/GD32VW55X_Wifi_BLE_SDK/GD32VW55x_RELEASE_V1.0.2/MSDK/cloud/alicloud/src/services/awss\zconfig_ieee80211.c ****     if (auth_type) {
 1979              		.loc 1 761 5 is_stmt 1
 1980              		.loc 1 761 8 is_stmt 0
 1981 0084 63040A00 		beq	s4,zero,.L171
 762:C:/Users/stapi/OneDrive/Desktop/GD32VW553/V1_MQTT_OK/GD32VW55X_Wifi_BLE_SDK/GD32VW55x_RELEASE_V1.0.2/MSDK/cloud/alicloud/src/services/awss\zconfig_ieee80211.c ****         *auth_type = auth;
 1982              		.loc 1 762 9 is_stmt 1
 1983              		.loc 1 762 20 is_stmt 0
 1984 0088 23008A00 		sb	s0,0(s4)
 1985              	.L171:
 763:C:/Users/stapi/OneDrive/Desktop/GD32VW553/V1_MQTT_OK/GD32VW55X_Wifi_BLE_SDK/GD32VW55x_RELEASE_V1.0.2/MSDK/cloud/alicloud/src/services/awss\zconfig_ieee80211.c ****     }
 764:C:/Users/stapi/OneDrive/Desktop/GD32VW553/V1_MQTT_OK/GD32VW55X_Wifi_BLE_SDK/GD32VW55x_RELEASE_V1.0.2/MSDK/cloud/alicloud/src/services/awss\zconfig_ieee80211.c ****     if (pairwise_cipher_type) {
 1986              		.loc 1 764 5 is_stmt 1
 1987              		.loc 1 764 8 is_stmt 0
 1988 008c 63860900 		beq	s3,zero,.L172
 765:C:/Users/stapi/OneDrive/Desktop/GD32VW553/V1_MQTT_OK/GD32VW55X_Wifi_BLE_SDK/GD32VW55x_RELEASE_V1.0.2/MSDK/cloud/alicloud/src/services/awss\zconfig_ieee80211.c ****         *pairwise_cipher_type = pairwise_cipher;
 1989              		.loc 1 765 9 is_stmt 1
 1990              		.loc 1 765 31 is_stmt 0
 1991 0090 8347E100 		lbu	a5,14(sp)
 1992 0094 2380F900 		sb	a5,0(s3)
 1993              	.L172:
 766:C:/Users/stapi/OneDrive/Desktop/GD32VW553/V1_MQTT_OK/GD32VW55X_Wifi_BLE_SDK/GD32VW55x_RELEASE_V1.0.2/MSDK/cloud/alicloud/src/services/awss\zconfig_ieee80211.c ****     }
 767:C:/Users/stapi/OneDrive/Desktop/GD32VW553/V1_MQTT_OK/GD32VW55X_Wifi_BLE_SDK/GD32VW55x_RELEASE_V1.0.2/MSDK/cloud/alicloud/src/services/awss\zconfig_ieee80211.c ****     if (group_cipher_type) {
 1994              		.loc 1 767 5 is_stmt 1
 1995              		.loc 1 767 8 is_stmt 0
 1996 0098 63060900 		beq	s2,zero,.L167
 768:C:/Users/stapi/OneDrive/Desktop/GD32VW553/V1_MQTT_OK/GD32VW55X_Wifi_BLE_SDK/GD32VW55x_RELEASE_V1.0.2/MSDK/cloud/alicloud/src/services/awss\zconfig_ieee80211.c ****         *group_cipher_type = group_cipher;
 1997              		.loc 1 768 9 is_stmt 1
 1998              		.loc 1 768 28 is_stmt 0
 1999 009c 8347D100 		lbu	a5,13(sp)
 2000 00a0 2300F900 		sb	a5,0(s2)
 769:C:/Users/stapi/OneDrive/Desktop/GD32VW553/V1_MQTT_OK/GD32VW55X_Wifi_BLE_SDK/GD32VW55x_RELEASE_V1.0.2/MSDK/cloud/alicloud/src/services/awss\zconfig_ieee80211.c ****     }
 770:C:/Users/stapi/OneDrive/Desktop/GD32VW553/V1_MQTT_OK/GD32VW55X_Wifi_BLE_SDK/GD32VW55x_RELEASE_V1.0.2/MSDK/cloud/alicloud/src/services/awss\zconfig_ieee80211.c **** 
 771:C:/Users/stapi/OneDrive/Desktop/GD32VW553/V1_MQTT_OK/GD32VW55X_Wifi_BLE_SDK/GD32VW55x_RELEASE_V1.0.2/MSDK/cloud/alicloud/src/services/awss\zconfig_ieee80211.c ****     return ret;
 2001              		.loc 1 771 5 is_stmt 1
 2002              	.L167:
 772:C:/Users/stapi/OneDrive/Desktop/GD32VW553/V1_MQTT_OK/GD32VW55X_Wifi_BLE_SDK/GD32VW55x_RELEASE_V1.0.2/MSDK/cloud/alicloud/src/services/awss\zconfig_ieee80211.c **** }
 2003              		.loc 1 772 1 is_stmt 0
 2004 00a4 2685     		mv	a0,s1
 2005 00a6 4101     		addi	sp,sp,16
 2006              		.cfi_remember_state
 2007              		.cfi_def_cfa_offset 0
 2008 00a8 17030000 		tail	__riscv_restore_5
 2008      67000300 
 2009              		.cfi_restore 20
 2010              		.cfi_restore 19
 2011              		.cfi_restore 18
 2012              		.cfi_restore 9
 2013              		.cfi_restore 8
 2014              		.cfi_restore 1
 2015              		.cfi_def_cfa_offset -32
 2016              	.LVL236:
 2017              	.L168:
 2018              		.cfi_restore_state
 749:C:/Users/stapi/OneDrive/Desktop/GD32VW553/V1_MQTT_OK/GD32VW55X_Wifi_BLE_SDK/GD32VW55x_RELEASE_V1.0.2/MSDK/cloud/alicloud/src/services/awss\zconfig_ieee80211.c ****                 auth = ZC_AUTH_TYPE_SHARED;  // TODO: WEP
 2019              		.loc 1 749 13 is_stmt 1
 749:C:/Users/stapi/OneDrive/Desktop/GD32VW553/V1_MQTT_OK/GD32VW55X_Wifi_BLE_SDK/GD32VW55x_RELEASE_V1.0.2/MSDK/cloud/alicloud/src/services/awss\zconfig_ieee80211.c ****                 auth = ZC_AUTH_TYPE_SHARED;  // TODO: WEP
 2020              		.loc 1 749 16 is_stmt 0
 2021 00b0 09C8     		beq	s0,zero,.L175
 750:C:/Users/stapi/OneDrive/Desktop/GD32VW553/V1_MQTT_OK/GD32VW55X_Wifi_BLE_SDK/GD32VW55x_RELEASE_V1.0.2/MSDK/cloud/alicloud/src/services/awss\zconfig_ieee80211.c ****                 pairwise_cipher = ZC_ENC_TYPE_WEP;
 2022              		.loc 1 750 17 is_stmt 1
 2023              	.LVL237:
 751:C:/Users/stapi/OneDrive/Desktop/GD32VW553/V1_MQTT_OK/GD32VW55X_Wifi_BLE_SDK/GD32VW55x_RELEASE_V1.0.2/MSDK/cloud/alicloud/src/services/awss\zconfig_ieee80211.c ****                 group_cipher = ZC_ENC_TYPE_WEP;
 2024              		.loc 1 751 17
 751:C:/Users/stapi/OneDrive/Desktop/GD32VW553/V1_MQTT_OK/GD32VW55X_Wifi_BLE_SDK/GD32VW55x_RELEASE_V1.0.2/MSDK/cloud/alicloud/src/services/awss\zconfig_ieee80211.c ****                 group_cipher = ZC_ENC_TYPE_WEP;
 2025              		.loc 1 751 33 is_stmt 0
 2026 00b2 8547     		li	a5,1
 2027 00b4 2307F100 		sb	a5,14(sp)
 752:C:/Users/stapi/OneDrive/Desktop/GD32VW553/V1_MQTT_OK/GD32VW55X_Wifi_BLE_SDK/GD32VW55x_RELEASE_V1.0.2/MSDK/cloud/alicloud/src/services/awss\zconfig_ieee80211.c ****             } else {
 2028              		.loc 1 752 17 is_stmt 1
 752:C:/Users/stapi/OneDrive/Desktop/GD32VW553/V1_MQTT_OK/GD32VW55X_Wifi_BLE_SDK/GD32VW55x_RELEASE_V1.0.2/MSDK/cloud/alicloud/src/services/awss\zconfig_ieee80211.c ****             } else {
 2029              		.loc 1 752 30 is_stmt 0
 2030 00b8 A306F100 		sb	a5,13(sp)
 722:C:/Users/stapi/OneDrive/Desktop/GD32VW553/V1_MQTT_OK/GD32VW55X_Wifi_BLE_SDK/GD32VW55x_RELEASE_V1.0.2/MSDK/cloud/alicloud/src/services/awss\zconfig_ieee80211.c **** 
 2031              		.loc 1 722 9
 2032 00bc 8144     		li	s1,0
 750:C:/Users/stapi/OneDrive/Desktop/GD32VW553/V1_MQTT_OK/GD32VW55X_Wifi_BLE_SDK/GD32VW55x_RELEASE_V1.0.2/MSDK/cloud/alicloud/src/services/awss\zconfig_ieee80211.c ****                 pairwise_cipher = ZC_ENC_TYPE_WEP;
 2033              		.loc 1 750 22
 2034 00be 0544     		li	s0,1
 2035              	.LVL238:
 2036 00c0 D1B7     		j	.L170
 2037              	.LVL239:
 2038              	.L175:
 722:C:/Users/stapi/OneDrive/Desktop/GD32VW553/V1_MQTT_OK/GD32VW55X_Wifi_BLE_SDK/GD32VW55x_RELEASE_V1.0.2/MSDK/cloud/alicloud/src/services/awss\zconfig_ieee80211.c **** 
 2039              		.loc 1 722 9
 2040 00c2 8144     		li	s1,0
 754:C:/Users/stapi/OneDrive/Desktop/GD32VW553/V1_MQTT_OK/GD32VW55X_Wifi_BLE_SDK/GD32VW55x_RELEASE_V1.0.2/MSDK/cloud/alicloud/src/services/awss\zconfig_ieee80211.c ****                 pairwise_cipher = ZC_ENC_TYPE_NONE;
 2041              		.loc 1 754 22
 2042 00c4 0144     		li	s0,0
 2043              	.LVL240:
 2044 00c6 7DBF     		j	.L170
 2045              		.cfi_endproc
 2046              	.LFE78:
 2048              		.section	.rodata.zconfig_remove_link_header.str1.4,"aMS",@progbits,1
 2049              		.align	2
 2050              	.LC3:
 2051 0000 756E2D73 		.string	"un-supported link type"
 2051      7570706F 
 2051      72746564 
 2051      206C696E 
 2051      6B207479 
 2052              		.section	.text.zconfig_remove_link_header,"ax",@progbits
 2053              		.align	1
 2054              		.globl	zconfig_remove_link_header
 2056              	zconfig_remove_link_header:
 2057              	.LFB79:
 773:C:/Users/stapi/OneDrive/Desktop/GD32VW553/V1_MQTT_OK/GD32VW55X_Wifi_BLE_SDK/GD32VW55x_RELEASE_V1.0.2/MSDK/cloud/alicloud/src/services/awss\zconfig_ieee80211.c **** 
 774:C:/Users/stapi/OneDrive/Desktop/GD32VW553/V1_MQTT_OK/GD32VW55X_Wifi_BLE_SDK/GD32VW55x_RELEASE_V1.0.2/MSDK/cloud/alicloud/src/services/awss\zconfig_ieee80211.c **** /*
 775:C:/Users/stapi/OneDrive/Desktop/GD32VW553/V1_MQTT_OK/GD32VW55X_Wifi_BLE_SDK/GD32VW55x_RELEASE_V1.0.2/MSDK/cloud/alicloud/src/services/awss\zconfig_ieee80211.c ****  * make sure 80211 frame is word align, otherwise struct ieee80211_hdr will bug
 776:C:/Users/stapi/OneDrive/Desktop/GD32VW553/V1_MQTT_OK/GD32VW55X_Wifi_BLE_SDK/GD32VW55x_RELEASE_V1.0.2/MSDK/cloud/alicloud/src/services/awss\zconfig_ieee80211.c ****  * TODO: code refactor, avoid using memmove
 777:C:/Users/stapi/OneDrive/Desktop/GD32VW553/V1_MQTT_OK/GD32VW55X_Wifi_BLE_SDK/GD32VW55x_RELEASE_V1.0.2/MSDK/cloud/alicloud/src/services/awss\zconfig_ieee80211.c ****  */
 778:C:/Users/stapi/OneDrive/Desktop/GD32VW553/V1_MQTT_OK/GD32VW55X_Wifi_BLE_SDK/GD32VW55x_RELEASE_V1.0.2/MSDK/cloud/alicloud/src/services/awss\zconfig_ieee80211.c **** #define check_ieee80211_buf_alignment(buf_addr, len) \
 779:C:/Users/stapi/OneDrive/Desktop/GD32VW553/V1_MQTT_OK/GD32VW55X_Wifi_BLE_SDK/GD32VW55x_RELEASE_V1.0.2/MSDK/cloud/alicloud/src/services/awss\zconfig_ieee80211.c ****     do {\
 780:C:/Users/stapi/OneDrive/Desktop/GD32VW553/V1_MQTT_OK/GD32VW55X_Wifi_BLE_SDK/GD32VW55x_RELEASE_V1.0.2/MSDK/cloud/alicloud/src/services/awss\zconfig_ieee80211.c ****         if (((unsigned long)(buf_addr) & 0x1) && len > 0) {\
 781:C:/Users/stapi/OneDrive/Desktop/GD32VW553/V1_MQTT_OK/GD32VW55X_Wifi_BLE_SDK/GD32VW55x_RELEASE_V1.0.2/MSDK/cloud/alicloud/src/services/awss\zconfig_ieee80211.c ****             uint8_t *word_align_addr = (uint8_t *)((unsigned long)(buf_addr) & ~0x1);\
 782:C:/Users/stapi/OneDrive/Desktop/GD32VW553/V1_MQTT_OK/GD32VW55X_Wifi_BLE_SDK/GD32VW55x_RELEASE_V1.0.2/MSDK/cloud/alicloud/src/services/awss\zconfig_ieee80211.c ****             memmove(word_align_addr, buf_addr, len);\
 783:C:/Users/stapi/OneDrive/Desktop/GD32VW553/V1_MQTT_OK/GD32VW55X_Wifi_BLE_SDK/GD32VW55x_RELEASE_V1.0.2/MSDK/cloud/alicloud/src/services/awss\zconfig_ieee80211.c ****             buf_addr = word_align_addr;\
 784:C:/Users/stapi/OneDrive/Desktop/GD32VW553/V1_MQTT_OK/GD32VW55X_Wifi_BLE_SDK/GD32VW55x_RELEASE_V1.0.2/MSDK/cloud/alicloud/src/services/awss\zconfig_ieee80211.c ****         }\
 785:C:/Users/stapi/OneDrive/Desktop/GD32VW553/V1_MQTT_OK/GD32VW55X_Wifi_BLE_SDK/GD32VW55x_RELEASE_V1.0.2/MSDK/cloud/alicloud/src/services/awss\zconfig_ieee80211.c ****     } while (0)
 786:C:/Users/stapi/OneDrive/Desktop/GD32VW553/V1_MQTT_OK/GD32VW55X_Wifi_BLE_SDK/GD32VW55x_RELEASE_V1.0.2/MSDK/cloud/alicloud/src/services/awss\zconfig_ieee80211.c **** 
 787:C:/Users/stapi/OneDrive/Desktop/GD32VW553/V1_MQTT_OK/GD32VW55X_Wifi_BLE_SDK/GD32VW55x_RELEASE_V1.0.2/MSDK/cloud/alicloud/src/services/awss\zconfig_ieee80211.c **** uint8_t *zconfig_remove_link_header(uint8_t **in, int *len, int link_type)
 788:C:/Users/stapi/OneDrive/Desktop/GD32VW553/V1_MQTT_OK/GD32VW55X_Wifi_BLE_SDK/GD32VW55x_RELEASE_V1.0.2/MSDK/cloud/alicloud/src/services/awss\zconfig_ieee80211.c **** {
 2058              		.loc 1 788 1 is_stmt 1
 2059              		.cfi_startproc
 2060              	.LVL241:
 2061 0000 17030000 		call	t0,__riscv_save_2
 2061      E7020300 
 2062              		.cfi_offset 9, -12
 2063              		.cfi_offset 8, -8
 2064              		.cfi_offset 1, -4
 2065              		.cfi_def_cfa_offset 16
 789:C:/Users/stapi/OneDrive/Desktop/GD32VW553/V1_MQTT_OK/GD32VW55X_Wifi_BLE_SDK/GD32VW55x_RELEASE_V1.0.2/MSDK/cloud/alicloud/src/services/awss\zconfig_ieee80211.c ****     int lt_len = 0;
 2066              		.loc 1 789 5
 2067              	.LVL242:
 790:C:/Users/stapi/OneDrive/Desktop/GD32VW553/V1_MQTT_OK/GD32VW55X_Wifi_BLE_SDK/GD32VW55x_RELEASE_V1.0.2/MSDK/cloud/alicloud/src/services/awss\zconfig_ieee80211.c **** 
 791:C:/Users/stapi/OneDrive/Desktop/GD32VW553/V1_MQTT_OK/GD32VW55X_Wifi_BLE_SDK/GD32VW55x_RELEASE_V1.0.2/MSDK/cloud/alicloud/src/services/awss\zconfig_ieee80211.c ****     switch (link_type) {
 2068              		.loc 1 791 5
 2069 0008 8947     		li	a5,2
 788:C:/Users/stapi/OneDrive/Desktop/GD32VW553/V1_MQTT_OK/GD32VW55X_Wifi_BLE_SDK/GD32VW55x_RELEASE_V1.0.2/MSDK/cloud/alicloud/src/services/awss\zconfig_ieee80211.c ****     int lt_len = 0;
 2070              		.loc 1 788 1 is_stmt 0
 2071 000a 2A84     		mv	s0,a0
 2072 000c AE84     		mv	s1,a1
 2073              		.loc 1 791 5
 2074 000e 630BF604 		beq	a2,a5,.L193
 2075 0012 63C2C702 		bgt	a2,a5,.L194
 2076 0016 31C2     		beq	a2,zero,.L195
 2077 0018 8547     		li	a5,1
 2078 001a 6308F602 		beq	a2,a5,.L196
 2079              	.L197:
 792:C:/Users/stapi/OneDrive/Desktop/GD32VW553/V1_MQTT_OK/GD32VW55X_Wifi_BLE_SDK/GD32VW55x_RELEASE_V1.0.2/MSDK/cloud/alicloud/src/services/awss\zconfig_ieee80211.c ****         case AWS_LINK_TYPE_NONE:
 793:C:/Users/stapi/OneDrive/Desktop/GD32VW553/V1_MQTT_OK/GD32VW55X_Wifi_BLE_SDK/GD32VW55x_RELEASE_V1.0.2/MSDK/cloud/alicloud/src/services/awss\zconfig_ieee80211.c ****             break;
 794:C:/Users/stapi/OneDrive/Desktop/GD32VW553/V1_MQTT_OK/GD32VW55X_Wifi_BLE_SDK/GD32VW55x_RELEASE_V1.0.2/MSDK/cloud/alicloud/src/services/awss\zconfig_ieee80211.c ****         case AWS_LINK_TYPE_PRISM:
 795:C:/Users/stapi/OneDrive/Desktop/GD32VW553/V1_MQTT_OK/GD32VW55X_Wifi_BLE_SDK/GD32VW55x_RELEASE_V1.0.2/MSDK/cloud/alicloud/src/services/awss\zconfig_ieee80211.c **** #define PRISM_HDR_LEN           144
 796:C:/Users/stapi/OneDrive/Desktop/GD32VW553/V1_MQTT_OK/GD32VW55X_Wifi_BLE_SDK/GD32VW55x_RELEASE_V1.0.2/MSDK/cloud/alicloud/src/services/awss\zconfig_ieee80211.c ****             *in += PRISM_HDR_LEN;
 797:C:/Users/stapi/OneDrive/Desktop/GD32VW553/V1_MQTT_OK/GD32VW55X_Wifi_BLE_SDK/GD32VW55x_RELEASE_V1.0.2/MSDK/cloud/alicloud/src/services/awss\zconfig_ieee80211.c ****             *len -= PRISM_HDR_LEN;
 798:C:/Users/stapi/OneDrive/Desktop/GD32VW553/V1_MQTT_OK/GD32VW55X_Wifi_BLE_SDK/GD32VW55x_RELEASE_V1.0.2/MSDK/cloud/alicloud/src/services/awss\zconfig_ieee80211.c ****             //144, no need to check buf aligment
 799:C:/Users/stapi/OneDrive/Desktop/GD32VW553/V1_MQTT_OK/GD32VW55X_Wifi_BLE_SDK/GD32VW55x_RELEASE_V1.0.2/MSDK/cloud/alicloud/src/services/awss\zconfig_ieee80211.c ****             break;
 800:C:/Users/stapi/OneDrive/Desktop/GD32VW553/V1_MQTT_OK/GD32VW55X_Wifi_BLE_SDK/GD32VW55x_RELEASE_V1.0.2/MSDK/cloud/alicloud/src/services/awss\zconfig_ieee80211.c ****         case AWS_LINK_TYPE_80211_RADIO:
 801:C:/Users/stapi/OneDrive/Desktop/GD32VW553/V1_MQTT_OK/GD32VW55X_Wifi_BLE_SDK/GD32VW55x_RELEASE_V1.0.2/MSDK/cloud/alicloud/src/services/awss\zconfig_ieee80211.c ****             lt_len = ieee80211_get_radiotap_len(*in);
 802:C:/Users/stapi/OneDrive/Desktop/GD32VW553/V1_MQTT_OK/GD32VW55X_Wifi_BLE_SDK/GD32VW55x_RELEASE_V1.0.2/MSDK/cloud/alicloud/src/services/awss\zconfig_ieee80211.c ****             *in += lt_len;
 803:C:/Users/stapi/OneDrive/Desktop/GD32VW553/V1_MQTT_OK/GD32VW55X_Wifi_BLE_SDK/GD32VW55x_RELEASE_V1.0.2/MSDK/cloud/alicloud/src/services/awss\zconfig_ieee80211.c ****             *len -= lt_len;
 804:C:/Users/stapi/OneDrive/Desktop/GD32VW553/V1_MQTT_OK/GD32VW55X_Wifi_BLE_SDK/GD32VW55x_RELEASE_V1.0.2/MSDK/cloud/alicloud/src/services/awss\zconfig_ieee80211.c ****             check_ieee80211_buf_alignment(*in, *len);
 805:C:/Users/stapi/OneDrive/Desktop/GD32VW553/V1_MQTT_OK/GD32VW55X_Wifi_BLE_SDK/GD32VW55x_RELEASE_V1.0.2/MSDK/cloud/alicloud/src/services/awss\zconfig_ieee80211.c ****             break;
 806:C:/Users/stapi/OneDrive/Desktop/GD32VW553/V1_MQTT_OK/GD32VW55X_Wifi_BLE_SDK/GD32VW55x_RELEASE_V1.0.2/MSDK/cloud/alicloud/src/services/awss\zconfig_ieee80211.c ****         case AWS_LINK_TYPE_80211_RADIO_AVS:
 807:C:/Users/stapi/OneDrive/Desktop/GD32VW553/V1_MQTT_OK/GD32VW55X_Wifi_BLE_SDK/GD32VW55x_RELEASE_V1.0.2/MSDK/cloud/alicloud/src/services/awss\zconfig_ieee80211.c **** #define WLANCAP_MAGIC_COOKIE_V1 0x80211001
 808:C:/Users/stapi/OneDrive/Desktop/GD32VW553/V1_MQTT_OK/GD32VW55X_Wifi_BLE_SDK/GD32VW55x_RELEASE_V1.0.2/MSDK/cloud/alicloud/src/services/awss\zconfig_ieee80211.c **** #define WLANCAP_MAGIC_COOKIE_V2 0x80211002
 809:C:/Users/stapi/OneDrive/Desktop/GD32VW553/V1_MQTT_OK/GD32VW55X_Wifi_BLE_SDK/GD32VW55x_RELEASE_V1.0.2/MSDK/cloud/alicloud/src/services/awss\zconfig_ieee80211.c **** 	        lt_len = *(uint32_t *)(*in + 4);/* first 4 byte is magic code */
 810:C:/Users/stapi/OneDrive/Desktop/GD32VW553/V1_MQTT_OK/GD32VW55X_Wifi_BLE_SDK/GD32VW55x_RELEASE_V1.0.2/MSDK/cloud/alicloud/src/services/awss\zconfig_ieee80211.c **** 	        *in += lt_len;
 811:C:/Users/stapi/OneDrive/Desktop/GD32VW553/V1_MQTT_OK/GD32VW55X_Wifi_BLE_SDK/GD32VW55x_RELEASE_V1.0.2/MSDK/cloud/alicloud/src/services/awss\zconfig_ieee80211.c **** 	        *len -= lt_len;
 812:C:/Users/stapi/OneDrive/Desktop/GD32VW553/V1_MQTT_OK/GD32VW55X_Wifi_BLE_SDK/GD32VW55x_RELEASE_V1.0.2/MSDK/cloud/alicloud/src/services/awss\zconfig_ieee80211.c **** 	        check_ieee80211_buf_alignment(*in, *len);
 813:C:/Users/stapi/OneDrive/Desktop/GD32VW553/V1_MQTT_OK/GD32VW55X_Wifi_BLE_SDK/GD32VW55x_RELEASE_V1.0.2/MSDK/cloud/alicloud/src/services/awss\zconfig_ieee80211.c **** 	        break;
 814:C:/Users/stapi/OneDrive/Desktop/GD32VW553/V1_MQTT_OK/GD32VW55X_Wifi_BLE_SDK/GD32VW55x_RELEASE_V1.0.2/MSDK/cloud/alicloud/src/services/awss\zconfig_ieee80211.c **** 	    default:
 815:C:/Users/stapi/OneDrive/Desktop/GD32VW553/V1_MQTT_OK/GD32VW55X_Wifi_BLE_SDK/GD32VW55x_RELEASE_V1.0.2/MSDK/cloud/alicloud/src/services/awss\zconfig_ieee80211.c **** 	        dump_awss_status(STATE_WIFI_OTHERS, "un-supported link type");
 2080              		.loc 1 815 10 is_stmt 1
 2081 001e 37060000 		lui	a2,%hi(.LC3)
 2082              	.LVL243:
 2083 0022 13060600 		addi	a2,a2,%lo(.LC3)
 2084 0026 930590BE 		li	a1,-1047
 2085              	.LVL244:
 2086 002a 6D45     		li	a0,27
 2087              	.LVL245:
 2088 002c 97000000 		call	iotx_state_event
 2088      E7800000 
 2089              	.LVL246:
 816:C:/Users/stapi/OneDrive/Desktop/GD32VW553/V1_MQTT_OK/GD32VW55X_Wifi_BLE_SDK/GD32VW55x_RELEASE_V1.0.2/MSDK/cloud/alicloud/src/services/awss\zconfig_ieee80211.c **** 	        break;
 2090              		.loc 1 816 10
 2091 0034 1DA0     		j	.L195
 2092              	.LVL247:
 2093              	.L194:
 791:C:/Users/stapi/OneDrive/Desktop/GD32VW553/V1_MQTT_OK/GD32VW55X_Wifi_BLE_SDK/GD32VW55x_RELEASE_V1.0.2/MSDK/cloud/alicloud/src/services/awss\zconfig_ieee80211.c ****         case AWS_LINK_TYPE_NONE:
 2094              		.loc 1 791 5 is_stmt 0
 2095 0036 8D47     		li	a5,3
 2096 0038 E313F6FE 		bne	a2,a5,.L197
 809:C:/Users/stapi/OneDrive/Desktop/GD32VW553/V1_MQTT_OK/GD32VW55X_Wifi_BLE_SDK/GD32VW55x_RELEASE_V1.0.2/MSDK/cloud/alicloud/src/services/awss\zconfig_ieee80211.c **** 	        *in += lt_len;
 2097              		.loc 1 809 10 is_stmt 1
 809:C:/Users/stapi/OneDrive/Desktop/GD32VW553/V1_MQTT_OK/GD32VW55X_Wifi_BLE_SDK/GD32VW55x_RELEASE_V1.0.2/MSDK/cloud/alicloud/src/services/awss\zconfig_ieee80211.c **** 	        *in += lt_len;
 2098              		.loc 1 809 33 is_stmt 0
 2099 003c 0C41     		lw	a1,0(a0)
 811:C:/Users/stapi/OneDrive/Desktop/GD32VW553/V1_MQTT_OK/GD32VW55X_Wifi_BLE_SDK/GD32VW55x_RELEASE_V1.0.2/MSDK/cloud/alicloud/src/services/awss\zconfig_ieee80211.c **** 	        check_ieee80211_buf_alignment(*in, *len);
 2100              		.loc 1 811 15
 2101 003e 9040     		lw	a2,0(s1)
 2102              	.LVL248:
 809:C:/Users/stapi/OneDrive/Desktop/GD32VW553/V1_MQTT_OK/GD32VW55X_Wifi_BLE_SDK/GD32VW55x_RELEASE_V1.0.2/MSDK/cloud/alicloud/src/services/awss\zconfig_ieee80211.c **** 	        *in += lt_len;
 2103              		.loc 1 809 19
 2104 0040 DC41     		lw	a5,4(a1)
 2105              	.LVL249:
 810:C:/Users/stapi/OneDrive/Desktop/GD32VW553/V1_MQTT_OK/GD32VW55X_Wifi_BLE_SDK/GD32VW55x_RELEASE_V1.0.2/MSDK/cloud/alicloud/src/services/awss\zconfig_ieee80211.c **** 	        *len -= lt_len;
 2106              		.loc 1 810 10 is_stmt 1
 810:C:/Users/stapi/OneDrive/Desktop/GD32VW553/V1_MQTT_OK/GD32VW55X_Wifi_BLE_SDK/GD32VW55x_RELEASE_V1.0.2/MSDK/cloud/alicloud/src/services/awss\zconfig_ieee80211.c **** 	        *len -= lt_len;
 2107              		.loc 1 810 14 is_stmt 0
 2108 0042 BE95     		add	a1,a1,a5
 2109 0044 0CC1     		sw	a1,0(a0)
 811:C:/Users/stapi/OneDrive/Desktop/GD32VW553/V1_MQTT_OK/GD32VW55X_Wifi_BLE_SDK/GD32VW55x_RELEASE_V1.0.2/MSDK/cloud/alicloud/src/services/awss\zconfig_ieee80211.c **** 	        check_ieee80211_buf_alignment(*in, *len);
 2110              		.loc 1 811 10 is_stmt 1
 811:C:/Users/stapi/OneDrive/Desktop/GD32VW553/V1_MQTT_OK/GD32VW55X_Wifi_BLE_SDK/GD32VW55x_RELEASE_V1.0.2/MSDK/cloud/alicloud/src/services/awss\zconfig_ieee80211.c **** 	        check_ieee80211_buf_alignment(*in, *len);
 2111              		.loc 1 811 15 is_stmt 0
 2112 0046 1D8E     		sub	a2,a2,a5
 2113 0048 0DA8     		j	.L212
 2114              	.LVL250:
 2115              	.L196:
 796:C:/Users/stapi/OneDrive/Desktop/GD32VW553/V1_MQTT_OK/GD32VW55X_Wifi_BLE_SDK/GD32VW55x_RELEASE_V1.0.2/MSDK/cloud/alicloud/src/services/awss\zconfig_ieee80211.c ****             *len -= PRISM_HDR_LEN;
 2116              		.loc 1 796 13 is_stmt 1
 796:C:/Users/stapi/OneDrive/Desktop/GD32VW553/V1_MQTT_OK/GD32VW55X_Wifi_BLE_SDK/GD32VW55x_RELEASE_V1.0.2/MSDK/cloud/alicloud/src/services/awss\zconfig_ieee80211.c ****             *len -= PRISM_HDR_LEN;
 2117              		.loc 1 796 17 is_stmt 0
 2118 004a 1C41     		lw	a5,0(a0)
 2119 004c 93870709 		addi	a5,a5,144
 2120 0050 1CC1     		sw	a5,0(a0)
 797:C:/Users/stapi/OneDrive/Desktop/GD32VW553/V1_MQTT_OK/GD32VW55X_Wifi_BLE_SDK/GD32VW55x_RELEASE_V1.0.2/MSDK/cloud/alicloud/src/services/awss\zconfig_ieee80211.c ****             //144, no need to check buf aligment
 2121              		.loc 1 797 13 is_stmt 1
 797:C:/Users/stapi/OneDrive/Desktop/GD32VW553/V1_MQTT_OK/GD32VW55X_Wifi_BLE_SDK/GD32VW55x_RELEASE_V1.0.2/MSDK/cloud/alicloud/src/services/awss\zconfig_ieee80211.c ****             //144, no need to check buf aligment
 2122              		.loc 1 797 18 is_stmt 0
 2123 0052 9C41     		lw	a5,0(a1)
 2124 0054 938707F7 		addi	a5,a5,-144
 2125 0058 9CC1     		sw	a5,0(a1)
 799:C:/Users/stapi/OneDrive/Desktop/GD32VW553/V1_MQTT_OK/GD32VW55X_Wifi_BLE_SDK/GD32VW55x_RELEASE_V1.0.2/MSDK/cloud/alicloud/src/services/awss\zconfig_ieee80211.c ****         case AWS_LINK_TYPE_80211_RADIO:
 2126              		.loc 1 799 13 is_stmt 1
 2127              	.LVL251:
 2128              	.L195:
 817:C:/Users/stapi/OneDrive/Desktop/GD32VW553/V1_MQTT_OK/GD32VW55X_Wifi_BLE_SDK/GD32VW55x_RELEASE_V1.0.2/MSDK/cloud/alicloud/src/services/awss\zconfig_ieee80211.c ****     }
 818:C:/Users/stapi/OneDrive/Desktop/GD32VW553/V1_MQTT_OK/GD32VW55X_Wifi_BLE_SDK/GD32VW55x_RELEASE_V1.0.2/MSDK/cloud/alicloud/src/services/awss\zconfig_ieee80211.c **** 
 819:C:/Users/stapi/OneDrive/Desktop/GD32VW553/V1_MQTT_OK/GD32VW55X_Wifi_BLE_SDK/GD32VW55x_RELEASE_V1.0.2/MSDK/cloud/alicloud/src/services/awss\zconfig_ieee80211.c ****     return *in;
 2129              		.loc 1 819 5
 820:C:/Users/stapi/OneDrive/Desktop/GD32VW553/V1_MQTT_OK/GD32VW55X_Wifi_BLE_SDK/GD32VW55x_RELEASE_V1.0.2/MSDK/cloud/alicloud/src/services/awss\zconfig_ieee80211.c **** }
 2130              		.loc 1 820 1 is_stmt 0
 2131 005a 0840     		lw	a0,0(s0)
 2132 005c 17030000 		tail	__riscv_restore_2
 2132      67000300 
 2133              		.cfi_remember_state
 2134              		.cfi_restore 9
 2135              		.cfi_restore 8
 2136              		.cfi_restore 1
 2137              		.cfi_def_cfa_offset 0
 2138              	.LVL252:
 2139              	.L193:
 2140              		.cfi_restore_state
 801:C:/Users/stapi/OneDrive/Desktop/GD32VW553/V1_MQTT_OK/GD32VW55X_Wifi_BLE_SDK/GD32VW55x_RELEASE_V1.0.2/MSDK/cloud/alicloud/src/services/awss\zconfig_ieee80211.c ****             *in += lt_len;
 2141              		.loc 1 801 13 is_stmt 1
 2142              	.LBB25:
 2143              	.LBB26:
 331:C:/Users/stapi/OneDrive/Desktop/GD32VW553/V1_MQTT_OK/GD32VW55X_Wifi_BLE_SDK/GD32VW55x_RELEASE_V1.0.2/MSDK/cloud/alicloud/src/services/awss\zconfig_ieee80211.c ****                 (struct ieee80211_radiotap_header *)data;
 2144              		.loc 1 331 5
 334:C:/Users/stapi/OneDrive/Desktop/GD32VW553/V1_MQTT_OK/GD32VW55X_Wifi_BLE_SDK/GD32VW55x_RELEASE_V1.0.2/MSDK/cloud/alicloud/src/services/awss\zconfig_ieee80211.c **** }
 2145              		.loc 1 334 5
 334:C:/Users/stapi/OneDrive/Desktop/GD32VW553/V1_MQTT_OK/GD32VW55X_Wifi_BLE_SDK/GD32VW55x_RELEASE_V1.0.2/MSDK/cloud/alicloud/src/services/awss\zconfig_ieee80211.c **** }
 2146              		.loc 1 334 45 is_stmt 0
 2147 0064 0841     		lw	a0,0(a0)
 334:C:/Users/stapi/OneDrive/Desktop/GD32VW553/V1_MQTT_OK/GD32VW55X_Wifi_BLE_SDK/GD32VW55x_RELEASE_V1.0.2/MSDK/cloud/alicloud/src/services/awss\zconfig_ieee80211.c **** }
 2148              		.loc 1 334 12
 2149 0066 0905     		addi	a0,a0,2
 2150 0068 97000000 		call	os_get_unaligned_le16
 2150      E7800000 
 2151              	.LVL253:
 2152              	.LBE26:
 2153              	.LBE25:
 802:C:/Users/stapi/OneDrive/Desktop/GD32VW553/V1_MQTT_OK/GD32VW55X_Wifi_BLE_SDK/GD32VW55x_RELEASE_V1.0.2/MSDK/cloud/alicloud/src/services/awss\zconfig_ieee80211.c ****             *len -= lt_len;
 2154              		.loc 1 802 13 is_stmt 1
 802:C:/Users/stapi/OneDrive/Desktop/GD32VW553/V1_MQTT_OK/GD32VW55X_Wifi_BLE_SDK/GD32VW55x_RELEASE_V1.0.2/MSDK/cloud/alicloud/src/services/awss\zconfig_ieee80211.c ****             *len -= lt_len;
 2155              		.loc 1 802 17 is_stmt 0
 2156 0070 0C40     		lw	a1,0(s0)
 803:C:/Users/stapi/OneDrive/Desktop/GD32VW553/V1_MQTT_OK/GD32VW55X_Wifi_BLE_SDK/GD32VW55x_RELEASE_V1.0.2/MSDK/cloud/alicloud/src/services/awss\zconfig_ieee80211.c ****             check_ieee80211_buf_alignment(*in, *len);
 2157              		.loc 1 803 18
 2158 0072 9040     		lw	a2,0(s1)
 802:C:/Users/stapi/OneDrive/Desktop/GD32VW553/V1_MQTT_OK/GD32VW55X_Wifi_BLE_SDK/GD32VW55x_RELEASE_V1.0.2/MSDK/cloud/alicloud/src/services/awss\zconfig_ieee80211.c ****             *len -= lt_len;
 2159              		.loc 1 802 17
 2160 0074 AA95     		add	a1,a1,a0
 2161 0076 0CC0     		sw	a1,0(s0)
 803:C:/Users/stapi/OneDrive/Desktop/GD32VW553/V1_MQTT_OK/GD32VW55X_Wifi_BLE_SDK/GD32VW55x_RELEASE_V1.0.2/MSDK/cloud/alicloud/src/services/awss\zconfig_ieee80211.c ****             check_ieee80211_buf_alignment(*in, *len);
 2162              		.loc 1 803 13 is_stmt 1
 803:C:/Users/stapi/OneDrive/Desktop/GD32VW553/V1_MQTT_OK/GD32VW55X_Wifi_BLE_SDK/GD32VW55x_RELEASE_V1.0.2/MSDK/cloud/alicloud/src/services/awss\zconfig_ieee80211.c ****             check_ieee80211_buf_alignment(*in, *len);
 2163              		.loc 1 803 18 is_stmt 0
 2164 0078 098E     		sub	a2,a2,a0
 2165              	.LVL254:
 2166              	.L212:
 811:C:/Users/stapi/OneDrive/Desktop/GD32VW553/V1_MQTT_OK/GD32VW55X_Wifi_BLE_SDK/GD32VW55x_RELEASE_V1.0.2/MSDK/cloud/alicloud/src/services/awss\zconfig_ieee80211.c **** 	        check_ieee80211_buf_alignment(*in, *len);
 2167              		.loc 1 811 15
 2168 007a 90C0     		sw	a2,0(s1)
 812:C:/Users/stapi/OneDrive/Desktop/GD32VW553/V1_MQTT_OK/GD32VW55X_Wifi_BLE_SDK/GD32VW55x_RELEASE_V1.0.2/MSDK/cloud/alicloud/src/services/awss\zconfig_ieee80211.c **** 	        break;
 2169              		.loc 1 812 10 is_stmt 1
 812:C:/Users/stapi/OneDrive/Desktop/GD32VW553/V1_MQTT_OK/GD32VW55X_Wifi_BLE_SDK/GD32VW55x_RELEASE_V1.0.2/MSDK/cloud/alicloud/src/services/awss\zconfig_ieee80211.c **** 	        break;
 2170              		.loc 1 812 10
 2171 007c 93F71500 		andi	a5,a1,1
 2172 0080 E9DF     		beq	a5,zero,.L195
 812:C:/Users/stapi/OneDrive/Desktop/GD32VW553/V1_MQTT_OK/GD32VW55X_Wifi_BLE_SDK/GD32VW55x_RELEASE_V1.0.2/MSDK/cloud/alicloud/src/services/awss\zconfig_ieee80211.c **** 	        break;
 2173              		.loc 1 812 10 is_stmt 0 discriminator 1
 2174 0082 E35CC0FC 		ble	a2,zero,.L195
 2175              	.LBB27:
 812:C:/Users/stapi/OneDrive/Desktop/GD32VW553/V1_MQTT_OK/GD32VW55X_Wifi_BLE_SDK/GD32VW55x_RELEASE_V1.0.2/MSDK/cloud/alicloud/src/services/awss\zconfig_ieee80211.c **** 	        break;
 2176              		.loc 1 812 10 is_stmt 1 discriminator 3
 2177 0086 93F7E5FF 		andi	a5,a1,-2
 2178              	.LVL255:
 812:C:/Users/stapi/OneDrive/Desktop/GD32VW553/V1_MQTT_OK/GD32VW55X_Wifi_BLE_SDK/GD32VW55x_RELEASE_V1.0.2/MSDK/cloud/alicloud/src/services/awss\zconfig_ieee80211.c **** 	        break;
 2179              		.loc 1 812 10 discriminator 3
 2180 008a 3E85     		mv	a0,a5
 2181 008c 97000000 		call	memmove
 2181      E7800000 
 2182              	.LVL256:
 812:C:/Users/stapi/OneDrive/Desktop/GD32VW553/V1_MQTT_OK/GD32VW55X_Wifi_BLE_SDK/GD32VW55x_RELEASE_V1.0.2/MSDK/cloud/alicloud/src/services/awss\zconfig_ieee80211.c **** 	        break;
 2183              		.loc 1 812 10 discriminator 3
 2184 0094 08C0     		sw	a0,0(s0)
 2185 0096 D1B7     		j	.L195
 2186              	.LBE27:
 2187              		.cfi_endproc
 2188              	.LFE79:
 2190              		.section	.text.ieee80211_data_extract,"ax",@progbits
 2191              		.align	1
 2192              		.globl	ieee80211_data_extract
 2194              	ieee80211_data_extract:
 2195              	.LFB80:
 821:C:/Users/stapi/OneDrive/Desktop/GD32VW553/V1_MQTT_OK/GD32VW55X_Wifi_BLE_SDK/GD32VW55x_RELEASE_V1.0.2/MSDK/cloud/alicloud/src/services/awss\zconfig_ieee80211.c **** 
 822:C:/Users/stapi/OneDrive/Desktop/GD32VW553/V1_MQTT_OK/GD32VW55X_Wifi_BLE_SDK/GD32VW55x_RELEASE_V1.0.2/MSDK/cloud/alicloud/src/services/awss\zconfig_ieee80211.c **** struct awss_protocol_couple_type awss_protocol_couple_array[] = {
 823:C:/Users/stapi/OneDrive/Desktop/GD32VW553/V1_MQTT_OK/GD32VW55X_Wifi_BLE_SDK/GD32VW55x_RELEASE_V1.0.2/MSDK/cloud/alicloud/src/services/awss\zconfig_ieee80211.c **** #ifdef AWSS_SUPPORT_HT40
 824:C:/Users/stapi/OneDrive/Desktop/GD32VW553/V1_MQTT_OK/GD32VW55X_Wifi_BLE_SDK/GD32VW55x_RELEASE_V1.0.2/MSDK/cloud/alicloud/src/services/awss\zconfig_ieee80211.c ****     {ALINK_HT_CTRL,      awss_ieee80211_ht_ctrl_process,     awss_recv_callback_ht_ctrl},
 825:C:/Users/stapi/OneDrive/Desktop/GD32VW553/V1_MQTT_OK/GD32VW55X_Wifi_BLE_SDK/GD32VW55x_RELEASE_V1.0.2/MSDK/cloud/alicloud/src/services/awss\zconfig_ieee80211.c **** #endif
 826:C:/Users/stapi/OneDrive/Desktop/GD32VW553/V1_MQTT_OK/GD32VW55X_Wifi_BLE_SDK/GD32VW55x_RELEASE_V1.0.2/MSDK/cloud/alicloud/src/services/awss\zconfig_ieee80211.c **** #ifdef AWSS_SUPPORT_APLIST
 827:C:/Users/stapi/OneDrive/Desktop/GD32VW553/V1_MQTT_OK/GD32VW55X_Wifi_BLE_SDK/GD32VW55x_RELEASE_V1.0.2/MSDK/cloud/alicloud/src/services/awss\zconfig_ieee80211.c ****     {ALINK_APLIST,       awss_ieee80211_aplist_process,      NULL},
 828:C:/Users/stapi/OneDrive/Desktop/GD32VW553/V1_MQTT_OK/GD32VW55X_Wifi_BLE_SDK/GD32VW55x_RELEASE_V1.0.2/MSDK/cloud/alicloud/src/services/awss\zconfig_ieee80211.c **** #endif
 829:C:/Users/stapi/OneDrive/Desktop/GD32VW553/V1_MQTT_OK/GD32VW55X_Wifi_BLE_SDK/GD32VW55x_RELEASE_V1.0.2/MSDK/cloud/alicloud/src/services/awss\zconfig_ieee80211.c **** #ifdef AWSS_SUPPORT_AHA
 830:C:/Users/stapi/OneDrive/Desktop/GD32VW553/V1_MQTT_OK/GD32VW55X_Wifi_BLE_SDK/GD32VW55x_RELEASE_V1.0.2/MSDK/cloud/alicloud/src/services/awss\zconfig_ieee80211.c ****     {ALINK_DEFAULT_SSID, awss_ieee80211_aha_process,         awss_recv_callback_aha_ssid},
 831:C:/Users/stapi/OneDrive/Desktop/GD32VW553/V1_MQTT_OK/GD32VW55X_Wifi_BLE_SDK/GD32VW55x_RELEASE_V1.0.2/MSDK/cloud/alicloud/src/services/awss\zconfig_ieee80211.c **** #endif
 832:C:/Users/stapi/OneDrive/Desktop/GD32VW553/V1_MQTT_OK/GD32VW55X_Wifi_BLE_SDK/GD32VW55x_RELEASE_V1.0.2/MSDK/cloud/alicloud/src/services/awss\zconfig_ieee80211.c **** #ifdef AWSS_SUPPORT_ADHA
 833:C:/Users/stapi/OneDrive/Desktop/GD32VW553/V1_MQTT_OK/GD32VW55X_Wifi_BLE_SDK/GD32VW55x_RELEASE_V1.0.2/MSDK/cloud/alicloud/src/services/awss\zconfig_ieee80211.c ****     {ALINK_ADHA_SSID,    awss_ieee80211_adha_process,        awss_recv_callback_adha_ssid},
 834:C:/Users/stapi/OneDrive/Desktop/GD32VW553/V1_MQTT_OK/GD32VW55X_Wifi_BLE_SDK/GD32VW55x_RELEASE_V1.0.2/MSDK/cloud/alicloud/src/services/awss\zconfig_ieee80211.c **** #endif
 835:C:/Users/stapi/OneDrive/Desktop/GD32VW553/V1_MQTT_OK/GD32VW55X_Wifi_BLE_SDK/GD32VW55x_RELEASE_V1.0.2/MSDK/cloud/alicloud/src/services/awss\zconfig_ieee80211.c **** #ifndef AWSS_DISABLE_ENROLLEE
 836:C:/Users/stapi/OneDrive/Desktop/GD32VW553/V1_MQTT_OK/GD32VW55X_Wifi_BLE_SDK/GD32VW55x_RELEASE_V1.0.2/MSDK/cloud/alicloud/src/services/awss\zconfig_ieee80211.c ****     {ALINK_ZERO_CONFIG,  awss_enrollee_ieee80211_process,     awss_enrollee_recv_callback},
 837:C:/Users/stapi/OneDrive/Desktop/GD32VW553/V1_MQTT_OK/GD32VW55X_Wifi_BLE_SDK/GD32VW55x_RELEASE_V1.0.2/MSDK/cloud/alicloud/src/services/awss\zconfig_ieee80211.c **** #endif
 838:C:/Users/stapi/OneDrive/Desktop/GD32VW553/V1_MQTT_OK/GD32VW55X_Wifi_BLE_SDK/GD32VW55x_RELEASE_V1.0.2/MSDK/cloud/alicloud/src/services/awss\zconfig_ieee80211.c **** #ifdef AWSS_SUPPORT_SMARTCONFIG_WPS
 839:C:/Users/stapi/OneDrive/Desktop/GD32VW553/V1_MQTT_OK/GD32VW55X_Wifi_BLE_SDK/GD32VW55x_RELEASE_V1.0.2/MSDK/cloud/alicloud/src/services/awss\zconfig_ieee80211.c ****     {ALINK_WPS,          awss_ieee80211_wps_process,         awss_recv_callback_wps},
 840:C:/Users/stapi/OneDrive/Desktop/GD32VW553/V1_MQTT_OK/GD32VW55X_Wifi_BLE_SDK/GD32VW55x_RELEASE_V1.0.2/MSDK/cloud/alicloud/src/services/awss\zconfig_ieee80211.c **** #endif
 841:C:/Users/stapi/OneDrive/Desktop/GD32VW553/V1_MQTT_OK/GD32VW55X_Wifi_BLE_SDK/GD32VW55x_RELEASE_V1.0.2/MSDK/cloud/alicloud/src/services/awss\zconfig_ieee80211.c **** #ifdef AWSS_SUPPORT_SMARTCONFIG
 842:C:/Users/stapi/OneDrive/Desktop/GD32VW553/V1_MQTT_OK/GD32VW55X_Wifi_BLE_SDK/GD32VW55x_RELEASE_V1.0.2/MSDK/cloud/alicloud/src/services/awss\zconfig_ieee80211.c ****     {ALINK_BROADCAST,    awss_ieee80211_smartconfig_process, awss_recv_callback_smartconfig},
 843:C:/Users/stapi/OneDrive/Desktop/GD32VW553/V1_MQTT_OK/GD32VW55X_Wifi_BLE_SDK/GD32VW55x_RELEASE_V1.0.2/MSDK/cloud/alicloud/src/services/awss\zconfig_ieee80211.c **** #endif
 844:C:/Users/stapi/OneDrive/Desktop/GD32VW553/V1_MQTT_OK/GD32VW55X_Wifi_BLE_SDK/GD32VW55x_RELEASE_V1.0.2/MSDK/cloud/alicloud/src/services/awss\zconfig_ieee80211.c **** #ifdef AWSS_SUPPORT_SMARTCONFIG_MCAST
 845:C:/Users/stapi/OneDrive/Desktop/GD32VW553/V1_MQTT_OK/GD32VW55X_Wifi_BLE_SDK/GD32VW55x_RELEASE_V1.0.2/MSDK/cloud/alicloud/src/services/awss\zconfig_ieee80211.c ****     {ALINK_BROADCAST,    awss_ieee80211_mcast_smartconfig_process, awss_recv_callback_mcast_smartco
 846:C:/Users/stapi/OneDrive/Desktop/GD32VW553/V1_MQTT_OK/GD32VW55X_Wifi_BLE_SDK/GD32VW55x_RELEASE_V1.0.2/MSDK/cloud/alicloud/src/services/awss\zconfig_ieee80211.c **** #endif
 847:C:/Users/stapi/OneDrive/Desktop/GD32VW553/V1_MQTT_OK/GD32VW55X_Wifi_BLE_SDK/GD32VW55x_RELEASE_V1.0.2/MSDK/cloud/alicloud/src/services/awss\zconfig_ieee80211.c **** };
 848:C:/Users/stapi/OneDrive/Desktop/GD32VW553/V1_MQTT_OK/GD32VW55X_Wifi_BLE_SDK/GD32VW55x_RELEASE_V1.0.2/MSDK/cloud/alicloud/src/services/awss\zconfig_ieee80211.c **** 
 849:C:/Users/stapi/OneDrive/Desktop/GD32VW553/V1_MQTT_OK/GD32VW55X_Wifi_BLE_SDK/GD32VW55x_RELEASE_V1.0.2/MSDK/cloud/alicloud/src/services/awss\zconfig_ieee80211.c **** #ifdef AWSS_BATCH_DEVAP_ENABLE
 850:C:/Users/stapi/OneDrive/Desktop/GD32VW553/V1_MQTT_OK/GD32VW55X_Wifi_BLE_SDK/GD32VW55x_RELEASE_V1.0.2/MSDK/cloud/alicloud/src/services/awss\zconfig_ieee80211.c **** void zconfig_80211_frame_filter_set(uint8_t filter, uint8_t fix_channel)
 851:C:/Users/stapi/OneDrive/Desktop/GD32VW553/V1_MQTT_OK/GD32VW55X_Wifi_BLE_SDK/GD32VW55x_RELEASE_V1.0.2/MSDK/cloud/alicloud/src/services/awss\zconfig_ieee80211.c **** {
 852:C:/Users/stapi/OneDrive/Desktop/GD32VW553/V1_MQTT_OK/GD32VW55X_Wifi_BLE_SDK/GD32VW55x_RELEASE_V1.0.2/MSDK/cloud/alicloud/src/services/awss\zconfig_ieee80211.c ****     g_awss_filter = filter;
 853:C:/Users/stapi/OneDrive/Desktop/GD32VW553/V1_MQTT_OK/GD32VW55X_Wifi_BLE_SDK/GD32VW55x_RELEASE_V1.0.2/MSDK/cloud/alicloud/src/services/awss\zconfig_ieee80211.c ****     g_fixed_chan = fix_channel;
 854:C:/Users/stapi/OneDrive/Desktop/GD32VW553/V1_MQTT_OK/GD32VW55X_Wifi_BLE_SDK/GD32VW55x_RELEASE_V1.0.2/MSDK/cloud/alicloud/src/services/awss\zconfig_ieee80211.c **** }
 855:C:/Users/stapi/OneDrive/Desktop/GD32VW553/V1_MQTT_OK/GD32VW55X_Wifi_BLE_SDK/GD32VW55x_RELEASE_V1.0.2/MSDK/cloud/alicloud/src/services/awss\zconfig_ieee80211.c **** #endif
 856:C:/Users/stapi/OneDrive/Desktop/GD32VW553/V1_MQTT_OK/GD32VW55X_Wifi_BLE_SDK/GD32VW55x_RELEASE_V1.0.2/MSDK/cloud/alicloud/src/services/awss\zconfig_ieee80211.c **** 
 857:C:/Users/stapi/OneDrive/Desktop/GD32VW553/V1_MQTT_OK/GD32VW55X_Wifi_BLE_SDK/GD32VW55x_RELEASE_V1.0.2/MSDK/cloud/alicloud/src/services/awss\zconfig_ieee80211.c **** /**
 858:C:/Users/stapi/OneDrive/Desktop/GD32VW553/V1_MQTT_OK/GD32VW55X_Wifi_BLE_SDK/GD32VW55x_RELEASE_V1.0.2/MSDK/cloud/alicloud/src/services/awss\zconfig_ieee80211.c ****  * ieee80211_data_extratct - extract 80211 frame info
 859:C:/Users/stapi/OneDrive/Desktop/GD32VW553/V1_MQTT_OK/GD32VW55X_Wifi_BLE_SDK/GD32VW55x_RELEASE_V1.0.2/MSDK/cloud/alicloud/src/services/awss\zconfig_ieee80211.c ****  *
 860:C:/Users/stapi/OneDrive/Desktop/GD32VW553/V1_MQTT_OK/GD32VW55X_Wifi_BLE_SDK/GD32VW55x_RELEASE_V1.0.2/MSDK/cloud/alicloud/src/services/awss\zconfig_ieee80211.c ****  * @in: [IN] 80211 frame
 861:C:/Users/stapi/OneDrive/Desktop/GD32VW553/V1_MQTT_OK/GD32VW55X_Wifi_BLE_SDK/GD32VW55x_RELEASE_V1.0.2/MSDK/cloud/alicloud/src/services/awss\zconfig_ieee80211.c ****  * @len: [IN] 80211 frame len
 862:C:/Users/stapi/OneDrive/Desktop/GD32VW553/V1_MQTT_OK/GD32VW55X_Wifi_BLE_SDK/GD32VW55x_RELEASE_V1.0.2/MSDK/cloud/alicloud/src/services/awss\zconfig_ieee80211.c ****  * @link_type: [IN] link type @see enum AWS_LINK_TYPE
 863:C:/Users/stapi/OneDrive/Desktop/GD32VW553/V1_MQTT_OK/GD32VW55X_Wifi_BLE_SDK/GD32VW55x_RELEASE_V1.0.2/MSDK/cloud/alicloud/src/services/awss\zconfig_ieee80211.c ****  * @res: [OUT] 80211 frame parser result, see struct parser_res.
 864:C:/Users/stapi/OneDrive/Desktop/GD32VW553/V1_MQTT_OK/GD32VW55X_Wifi_BLE_SDK/GD32VW55x_RELEASE_V1.0.2/MSDK/cloud/alicloud/src/services/awss\zconfig_ieee80211.c ****  *
 865:C:/Users/stapi/OneDrive/Desktop/GD32VW553/V1_MQTT_OK/GD32VW55X_Wifi_BLE_SDK/GD32VW55x_RELEASE_V1.0.2/MSDK/cloud/alicloud/src/services/awss\zconfig_ieee80211.c ****  * @warning: encry_type may collision with aes & tpip in some cases,
 866:C:/Users/stapi/OneDrive/Desktop/GD32VW553/V1_MQTT_OK/GD32VW55X_Wifi_BLE_SDK/GD32VW55x_RELEASE_V1.0.2/MSDK/cloud/alicloud/src/services/awss\zconfig_ieee80211.c ****  *         then encry_type will be set to INVALID.
 867:C:/Users/stapi/OneDrive/Desktop/GD32VW553/V1_MQTT_OK/GD32VW55X_Wifi_BLE_SDK/GD32VW55x_RELEASE_V1.0.2/MSDK/cloud/alicloud/src/services/awss\zconfig_ieee80211.c ****  * @Return:
 868:C:/Users/stapi/OneDrive/Desktop/GD32VW553/V1_MQTT_OK/GD32VW55X_Wifi_BLE_SDK/GD32VW55x_RELEASE_V1.0.2/MSDK/cloud/alicloud/src/services/awss\zconfig_ieee80211.c ****  *     @see enum ALINK_TYPE
 869:C:/Users/stapi/OneDrive/Desktop/GD32VW553/V1_MQTT_OK/GD32VW55X_Wifi_BLE_SDK/GD32VW55x_RELEASE_V1.0.2/MSDK/cloud/alicloud/src/services/awss\zconfig_ieee80211.c ****  *
 870:C:/Users/stapi/OneDrive/Desktop/GD32VW553/V1_MQTT_OK/GD32VW55X_Wifi_BLE_SDK/GD32VW55x_RELEASE_V1.0.2/MSDK/cloud/alicloud/src/services/awss\zconfig_ieee80211.c ****  * @Note: howto deal with radio RSSI signal
 871:C:/Users/stapi/OneDrive/Desktop/GD32VW553/V1_MQTT_OK/GD32VW55X_Wifi_BLE_SDK/GD32VW55x_RELEASE_V1.0.2/MSDK/cloud/alicloud/src/services/awss\zconfig_ieee80211.c ****  */
 872:C:/Users/stapi/OneDrive/Desktop/GD32VW553/V1_MQTT_OK/GD32VW55X_Wifi_BLE_SDK/GD32VW55x_RELEASE_V1.0.2/MSDK/cloud/alicloud/src/services/awss\zconfig_ieee80211.c **** int ieee80211_data_extract(uint8_t *in, int len, int link_type, struct parser_res *res, signed char
 873:C:/Users/stapi/OneDrive/Desktop/GD32VW553/V1_MQTT_OK/GD32VW55X_Wifi_BLE_SDK/GD32VW55x_RELEASE_V1.0.2/MSDK/cloud/alicloud/src/services/awss\zconfig_ieee80211.c **** {
 2196              		.loc 1 873 1
 2197              		.cfi_startproc
 2198              	.LVL257:
 2199 0000 17030000 		call	t0,__riscv_save_9
 2199      E7020300 
 2200              		.cfi_offset 24, -40
 2201              		.cfi_offset 23, -36
 2202              		.cfi_offset 22, -32
 2203              		.cfi_offset 21, -28
 2204              		.cfi_offset 20, -24
 2205              		.cfi_offset 19, -20
 2206              		.cfi_offset 18, -16
 2207              		.cfi_offset 9, -12
 2208              		.cfi_offset 8, -8
 2209              		.cfi_offset 1, -4
 2210              		.cfi_def_cfa_offset 48
 874:C:/Users/stapi/OneDrive/Desktop/GD32VW553/V1_MQTT_OK/GD32VW55X_Wifi_BLE_SDK/GD32VW55x_RELEASE_V1.0.2/MSDK/cloud/alicloud/src/services/awss\zconfig_ieee80211.c ****     struct ieee80211_hdr *hdr;
 2211              		.loc 1 874 5
 875:C:/Users/stapi/OneDrive/Desktop/GD32VW553/V1_MQTT_OK/GD32VW55X_Wifi_BLE_SDK/GD32VW55x_RELEASE_V1.0.2/MSDK/cloud/alicloud/src/services/awss\zconfig_ieee80211.c ****     int alink_type = ALINK_INVALID;
 2212              		.loc 1 875 5
 2213              	.LVL258:
 876:C:/Users/stapi/OneDrive/Desktop/GD32VW553/V1_MQTT_OK/GD32VW55X_Wifi_BLE_SDK/GD32VW55x_RELEASE_V1.0.2/MSDK/cloud/alicloud/src/services/awss\zconfig_ieee80211.c ****     int pkt_type = PKG_INVALID;
 2214              		.loc 1 876 5
 877:C:/Users/stapi/OneDrive/Desktop/GD32VW553/V1_MQTT_OK/GD32VW55X_Wifi_BLE_SDK/GD32VW55x_RELEASE_V1.0.2/MSDK/cloud/alicloud/src/services/awss\zconfig_ieee80211.c ****     int i, fc;
 2215              		.loc 1 877 5
 878:C:/Users/stapi/OneDrive/Desktop/GD32VW553/V1_MQTT_OK/GD32VW55X_Wifi_BLE_SDK/GD32VW55x_RELEASE_V1.0.2/MSDK/cloud/alicloud/src/services/awss\zconfig_ieee80211.c **** 
 879:C:/Users/stapi/OneDrive/Desktop/GD32VW553/V1_MQTT_OK/GD32VW55X_Wifi_BLE_SDK/GD32VW55x_RELEASE_V1.0.2/MSDK/cloud/alicloud/src/services/awss\zconfig_ieee80211.c ****     hdr = (struct ieee80211_hdr *)zconfig_remove_link_header(&in, &len, link_type);
 2216              		.loc 1 879 5
 873:C:/Users/stapi/OneDrive/Desktop/GD32VW553/V1_MQTT_OK/GD32VW55X_Wifi_BLE_SDK/GD32VW55x_RELEASE_V1.0.2/MSDK/cloud/alicloud/src/services/awss\zconfig_ieee80211.c ****     struct ieee80211_hdr *hdr;
 2217              		.loc 1 873 1 is_stmt 0
 2218 0008 4111     		addi	sp,sp,-16
 2219              		.cfi_def_cfa_offset 64
 873:C:/Users/stapi/OneDrive/Desktop/GD32VW553/V1_MQTT_OK/GD32VW55X_Wifi_BLE_SDK/GD32VW55x_RELEASE_V1.0.2/MSDK/cloud/alicloud/src/services/awss\zconfig_ieee80211.c ****     struct ieee80211_hdr *hdr;
 2220              		.loc 1 873 1
 2221 000a 2AC6     		sw	a0,12(sp)
 2222 000c 2EC4     		sw	a1,8(sp)
 2223              		.loc 1 879 35
 2224 000e 6800     		addi	a0,sp,12
 2225              	.LVL259:
 2226 0010 2C00     		addi	a1,sp,8
 2227              	.LVL260:
 873:C:/Users/stapi/OneDrive/Desktop/GD32VW553/V1_MQTT_OK/GD32VW55X_Wifi_BLE_SDK/GD32VW55x_RELEASE_V1.0.2/MSDK/cloud/alicloud/src/services/awss\zconfig_ieee80211.c ****     struct ieee80211_hdr *hdr;
 2228              		.loc 1 873 1
 2229 0012 B28A     		mv	s5,a2
 2230 0014 3684     		mv	s0,a3
 2231 0016 3A8B     		mv	s6,a4
 2232              		.loc 1 879 35
 2233 0018 97000000 		call	zconfig_remove_link_header
 2233      E7800000 
 2234              	.LVL261:
 880:C:/Users/stapi/OneDrive/Desktop/GD32VW553/V1_MQTT_OK/GD32VW55X_Wifi_BLE_SDK/GD32VW55x_RELEASE_V1.0.2/MSDK/cloud/alicloud/src/services/awss\zconfig_ieee80211.c ****     if (len <= 0) {
 2235              		.loc 1 880 5 is_stmt 1
 2236              		.loc 1 880 8 is_stmt 0
 2237 0020 A247     		lw	a5,8(sp)
 2238 0022 6348F000 		bgt	a5,zero,.L214
 2239              	.LVL262:
 2240              	.L218:
 876:C:/Users/stapi/OneDrive/Desktop/GD32VW553/V1_MQTT_OK/GD32VW55X_Wifi_BLE_SDK/GD32VW55x_RELEASE_V1.0.2/MSDK/cloud/alicloud/src/services/awss\zconfig_ieee80211.c ****     int i, fc;
 2241              		.loc 1 876 9
 2242 0026 0145     		li	a0,0
 2243              	.LVL263:
 2244              	.L213:
 881:C:/Users/stapi/OneDrive/Desktop/GD32VW553/V1_MQTT_OK/GD32VW55X_Wifi_BLE_SDK/GD32VW55x_RELEASE_V1.0.2/MSDK/cloud/alicloud/src/services/awss\zconfig_ieee80211.c ****         goto drop;
 882:C:/Users/stapi/OneDrive/Desktop/GD32VW553/V1_MQTT_OK/GD32VW55X_Wifi_BLE_SDK/GD32VW55x_RELEASE_V1.0.2/MSDK/cloud/alicloud/src/services/awss\zconfig_ieee80211.c ****     }
 883:C:/Users/stapi/OneDrive/Desktop/GD32VW553/V1_MQTT_OK/GD32VW55X_Wifi_BLE_SDK/GD32VW55x_RELEASE_V1.0.2/MSDK/cloud/alicloud/src/services/awss\zconfig_ieee80211.c ****     fc = hdr->frame_control;
 884:C:/Users/stapi/OneDrive/Desktop/GD32VW553/V1_MQTT_OK/GD32VW55X_Wifi_BLE_SDK/GD32VW55x_RELEASE_V1.0.2/MSDK/cloud/alicloud/src/services/awss\zconfig_ieee80211.c **** 
 885:C:/Users/stapi/OneDrive/Desktop/GD32VW553/V1_MQTT_OK/GD32VW55X_Wifi_BLE_SDK/GD32VW55x_RELEASE_V1.0.2/MSDK/cloud/alicloud/src/services/awss\zconfig_ieee80211.c ****     for (i = 0; i < sizeof(awss_protocol_couple_array) / sizeof(awss_protocol_couple_array[0]); i +
 886:C:/Users/stapi/OneDrive/Desktop/GD32VW553/V1_MQTT_OK/GD32VW55X_Wifi_BLE_SDK/GD32VW55x_RELEASE_V1.0.2/MSDK/cloud/alicloud/src/services/awss\zconfig_ieee80211.c ****         awss_protocol_process_func_type protocol_func = NULL;
 887:C:/Users/stapi/OneDrive/Desktop/GD32VW553/V1_MQTT_OK/GD32VW55X_Wifi_BLE_SDK/GD32VW55x_RELEASE_V1.0.2/MSDK/cloud/alicloud/src/services/awss\zconfig_ieee80211.c **** #ifdef AWSS_BATCH_DEVAP_ENABLE
 888:C:/Users/stapi/OneDrive/Desktop/GD32VW553/V1_MQTT_OK/GD32VW55X_Wifi_BLE_SDK/GD32VW55x_RELEASE_V1.0.2/MSDK/cloud/alicloud/src/services/awss\zconfig_ieee80211.c ****         if (g_awss_filter == 0x00) {
 889:C:/Users/stapi/OneDrive/Desktop/GD32VW553/V1_MQTT_OK/GD32VW55X_Wifi_BLE_SDK/GD32VW55x_RELEASE_V1.0.2/MSDK/cloud/alicloud/src/services/awss\zconfig_ieee80211.c ****             // only receive zero config mgmt frame
 890:C:/Users/stapi/OneDrive/Desktop/GD32VW553/V1_MQTT_OK/GD32VW55X_Wifi_BLE_SDK/GD32VW55x_RELEASE_V1.0.2/MSDK/cloud/alicloud/src/services/awss\zconfig_ieee80211.c ****             if (awss_protocol_couple_array[i].type == ALINK_ZERO_CONFIG) {
 891:C:/Users/stapi/OneDrive/Desktop/GD32VW553/V1_MQTT_OK/GD32VW55X_Wifi_BLE_SDK/GD32VW55x_RELEASE_V1.0.2/MSDK/cloud/alicloud/src/services/awss\zconfig_ieee80211.c ****                 protocol_func = awss_protocol_couple_array[i].awss_protocol_process_func;
 892:C:/Users/stapi/OneDrive/Desktop/GD32VW553/V1_MQTT_OK/GD32VW55X_Wifi_BLE_SDK/GD32VW55x_RELEASE_V1.0.2/MSDK/cloud/alicloud/src/services/awss\zconfig_ieee80211.c ****             }
 893:C:/Users/stapi/OneDrive/Desktop/GD32VW553/V1_MQTT_OK/GD32VW55X_Wifi_BLE_SDK/GD32VW55x_RELEASE_V1.0.2/MSDK/cloud/alicloud/src/services/awss\zconfig_ieee80211.c ****         } else if (g_awss_filter == 0xFF) {
 894:C:/Users/stapi/OneDrive/Desktop/GD32VW553/V1_MQTT_OK/GD32VW55X_Wifi_BLE_SDK/GD32VW55x_RELEASE_V1.0.2/MSDK/cloud/alicloud/src/services/awss\zconfig_ieee80211.c ****             // receive all awss config mgmt frame
 895:C:/Users/stapi/OneDrive/Desktop/GD32VW553/V1_MQTT_OK/GD32VW55X_Wifi_BLE_SDK/GD32VW55x_RELEASE_V1.0.2/MSDK/cloud/alicloud/src/services/awss\zconfig_ieee80211.c ****             protocol_func = awss_protocol_couple_array[i].awss_protocol_process_func;
 896:C:/Users/stapi/OneDrive/Desktop/GD32VW553/V1_MQTT_OK/GD32VW55X_Wifi_BLE_SDK/GD32VW55x_RELEASE_V1.0.2/MSDK/cloud/alicloud/src/services/awss\zconfig_ieee80211.c ****         } else {
 897:C:/Users/stapi/OneDrive/Desktop/GD32VW553/V1_MQTT_OK/GD32VW55X_Wifi_BLE_SDK/GD32VW55x_RELEASE_V1.0.2/MSDK/cloud/alicloud/src/services/awss\zconfig_ieee80211.c ****             // do nothing, reserved for future filter
 898:C:/Users/stapi/OneDrive/Desktop/GD32VW553/V1_MQTT_OK/GD32VW55X_Wifi_BLE_SDK/GD32VW55x_RELEASE_V1.0.2/MSDK/cloud/alicloud/src/services/awss\zconfig_ieee80211.c ****         }
 899:C:/Users/stapi/OneDrive/Desktop/GD32VW553/V1_MQTT_OK/GD32VW55X_Wifi_BLE_SDK/GD32VW55x_RELEASE_V1.0.2/MSDK/cloud/alicloud/src/services/awss\zconfig_ieee80211.c **** #else
 900:C:/Users/stapi/OneDrive/Desktop/GD32VW553/V1_MQTT_OK/GD32VW55X_Wifi_BLE_SDK/GD32VW55x_RELEASE_V1.0.2/MSDK/cloud/alicloud/src/services/awss\zconfig_ieee80211.c ****         protocol_func = awss_protocol_couple_array[i].awss_protocol_process_func;
 901:C:/Users/stapi/OneDrive/Desktop/GD32VW553/V1_MQTT_OK/GD32VW55X_Wifi_BLE_SDK/GD32VW55x_RELEASE_V1.0.2/MSDK/cloud/alicloud/src/services/awss\zconfig_ieee80211.c **** #endif
 902:C:/Users/stapi/OneDrive/Desktop/GD32VW553/V1_MQTT_OK/GD32VW55X_Wifi_BLE_SDK/GD32VW55x_RELEASE_V1.0.2/MSDK/cloud/alicloud/src/services/awss\zconfig_ieee80211.c ****         if (protocol_func == NULL) {
 903:C:/Users/stapi/OneDrive/Desktop/GD32VW553/V1_MQTT_OK/GD32VW55X_Wifi_BLE_SDK/GD32VW55x_RELEASE_V1.0.2/MSDK/cloud/alicloud/src/services/awss\zconfig_ieee80211.c ****             continue;
 904:C:/Users/stapi/OneDrive/Desktop/GD32VW553/V1_MQTT_OK/GD32VW55X_Wifi_BLE_SDK/GD32VW55x_RELEASE_V1.0.2/MSDK/cloud/alicloud/src/services/awss\zconfig_ieee80211.c ****         }
 905:C:/Users/stapi/OneDrive/Desktop/GD32VW553/V1_MQTT_OK/GD32VW55X_Wifi_BLE_SDK/GD32VW55x_RELEASE_V1.0.2/MSDK/cloud/alicloud/src/services/awss\zconfig_ieee80211.c ****         alink_type = protocol_func((uint8_t *)hdr, len, link_type, res, rssi);
 906:C:/Users/stapi/OneDrive/Desktop/GD32VW553/V1_MQTT_OK/GD32VW55X_Wifi_BLE_SDK/GD32VW55x_RELEASE_V1.0.2/MSDK/cloud/alicloud/src/services/awss\zconfig_ieee80211.c ****         if (alink_type != ALINK_INVALID) {
 907:C:/Users/stapi/OneDrive/Desktop/GD32VW553/V1_MQTT_OK/GD32VW55X_Wifi_BLE_SDK/GD32VW55x_RELEASE_V1.0.2/MSDK/cloud/alicloud/src/services/awss\zconfig_ieee80211.c ****             break;
 908:C:/Users/stapi/OneDrive/Desktop/GD32VW553/V1_MQTT_OK/GD32VW55X_Wifi_BLE_SDK/GD32VW55x_RELEASE_V1.0.2/MSDK/cloud/alicloud/src/services/awss\zconfig_ieee80211.c ****         }
 909:C:/Users/stapi/OneDrive/Desktop/GD32VW553/V1_MQTT_OK/GD32VW55X_Wifi_BLE_SDK/GD32VW55x_RELEASE_V1.0.2/MSDK/cloud/alicloud/src/services/awss\zconfig_ieee80211.c ****     }
 910:C:/Users/stapi/OneDrive/Desktop/GD32VW553/V1_MQTT_OK/GD32VW55X_Wifi_BLE_SDK/GD32VW55x_RELEASE_V1.0.2/MSDK/cloud/alicloud/src/services/awss\zconfig_ieee80211.c **** 
 911:C:/Users/stapi/OneDrive/Desktop/GD32VW553/V1_MQTT_OK/GD32VW55X_Wifi_BLE_SDK/GD32VW55x_RELEASE_V1.0.2/MSDK/cloud/alicloud/src/services/awss\zconfig_ieee80211.c ****     if (alink_type == ALINK_INVALID) {
 912:C:/Users/stapi/OneDrive/Desktop/GD32VW553/V1_MQTT_OK/GD32VW55X_Wifi_BLE_SDK/GD32VW55x_RELEASE_V1.0.2/MSDK/cloud/alicloud/src/services/awss\zconfig_ieee80211.c ****         goto drop;
 913:C:/Users/stapi/OneDrive/Desktop/GD32VW553/V1_MQTT_OK/GD32VW55X_Wifi_BLE_SDK/GD32VW55x_RELEASE_V1.0.2/MSDK/cloud/alicloud/src/services/awss\zconfig_ieee80211.c ****     }
 914:C:/Users/stapi/OneDrive/Desktop/GD32VW553/V1_MQTT_OK/GD32VW55X_Wifi_BLE_SDK/GD32VW55x_RELEASE_V1.0.2/MSDK/cloud/alicloud/src/services/awss\zconfig_ieee80211.c **** 
 915:C:/Users/stapi/OneDrive/Desktop/GD32VW553/V1_MQTT_OK/GD32VW55X_Wifi_BLE_SDK/GD32VW55x_RELEASE_V1.0.2/MSDK/cloud/alicloud/src/services/awss\zconfig_ieee80211.c ****     if (alink_type != ALINK_HT_CTRL) {
 916:C:/Users/stapi/OneDrive/Desktop/GD32VW553/V1_MQTT_OK/GD32VW55X_Wifi_BLE_SDK/GD32VW55x_RELEASE_V1.0.2/MSDK/cloud/alicloud/src/services/awss\zconfig_ieee80211.c ****         /* convert IEEE 802.11 header + possible LLC headers into Ethernet header
 917:C:/Users/stapi/OneDrive/Desktop/GD32VW553/V1_MQTT_OK/GD32VW55X_Wifi_BLE_SDK/GD32VW55x_RELEASE_V1.0.2/MSDK/cloud/alicloud/src/services/awss\zconfig_ieee80211.c ****          * IEEE 802.11 address fields:
 918:C:/Users/stapi/OneDrive/Desktop/GD32VW553/V1_MQTT_OK/GD32VW55X_Wifi_BLE_SDK/GD32VW55x_RELEASE_V1.0.2/MSDK/cloud/alicloud/src/services/awss\zconfig_ieee80211.c ****          * ToDS FromDS Addr1 Addr2 Addr3 Addr4
 919:C:/Users/stapi/OneDrive/Desktop/GD32VW553/V1_MQTT_OK/GD32VW55X_Wifi_BLE_SDK/GD32VW55x_RELEASE_V1.0.2/MSDK/cloud/alicloud/src/services/awss\zconfig_ieee80211.c ****          *   0     0   DA    SA    BSSID n/a
 920:C:/Users/stapi/OneDrive/Desktop/GD32VW553/V1_MQTT_OK/GD32VW55X_Wifi_BLE_SDK/GD32VW55x_RELEASE_V1.0.2/MSDK/cloud/alicloud/src/services/awss\zconfig_ieee80211.c ****          *   0     1   DA    BSSID SA    n/a
 921:C:/Users/stapi/OneDrive/Desktop/GD32VW553/V1_MQTT_OK/GD32VW55X_Wifi_BLE_SDK/GD32VW55x_RELEASE_V1.0.2/MSDK/cloud/alicloud/src/services/awss\zconfig_ieee80211.c ****          *   1     0   BSSID SA    DA    n/a
 922:C:/Users/stapi/OneDrive/Desktop/GD32VW553/V1_MQTT_OK/GD32VW55X_Wifi_BLE_SDK/GD32VW55x_RELEASE_V1.0.2/MSDK/cloud/alicloud/src/services/awss\zconfig_ieee80211.c ****          *   1     1   RA    TA    DA    SA
 923:C:/Users/stapi/OneDrive/Desktop/GD32VW553/V1_MQTT_OK/GD32VW55X_Wifi_BLE_SDK/GD32VW55x_RELEASE_V1.0.2/MSDK/cloud/alicloud/src/services/awss\zconfig_ieee80211.c ****          */
 924:C:/Users/stapi/OneDrive/Desktop/GD32VW553/V1_MQTT_OK/GD32VW55X_Wifi_BLE_SDK/GD32VW55x_RELEASE_V1.0.2/MSDK/cloud/alicloud/src/services/awss\zconfig_ieee80211.c ****         res->src = ieee80211_get_SA(hdr);
 925:C:/Users/stapi/OneDrive/Desktop/GD32VW553/V1_MQTT_OK/GD32VW55X_Wifi_BLE_SDK/GD32VW55x_RELEASE_V1.0.2/MSDK/cloud/alicloud/src/services/awss\zconfig_ieee80211.c ****         res->dst = ieee80211_get_DA(hdr);
 926:C:/Users/stapi/OneDrive/Desktop/GD32VW553/V1_MQTT_OK/GD32VW55X_Wifi_BLE_SDK/GD32VW55x_RELEASE_V1.0.2/MSDK/cloud/alicloud/src/services/awss\zconfig_ieee80211.c ****         res->bssid = ieee80211_get_BSSID(hdr);
 927:C:/Users/stapi/OneDrive/Desktop/GD32VW553/V1_MQTT_OK/GD32VW55X_Wifi_BLE_SDK/GD32VW55x_RELEASE_V1.0.2/MSDK/cloud/alicloud/src/services/awss\zconfig_ieee80211.c ****         res->tods = ieee80211_has_tods(fc);
 928:C:/Users/stapi/OneDrive/Desktop/GD32VW553/V1_MQTT_OK/GD32VW55X_Wifi_BLE_SDK/GD32VW55x_RELEASE_V1.0.2/MSDK/cloud/alicloud/src/services/awss\zconfig_ieee80211.c ****     }
 929:C:/Users/stapi/OneDrive/Desktop/GD32VW553/V1_MQTT_OK/GD32VW55X_Wifi_BLE_SDK/GD32VW55x_RELEASE_V1.0.2/MSDK/cloud/alicloud/src/services/awss\zconfig_ieee80211.c **** 
 930:C:/Users/stapi/OneDrive/Desktop/GD32VW553/V1_MQTT_OK/GD32VW55X_Wifi_BLE_SDK/GD32VW55x_RELEASE_V1.0.2/MSDK/cloud/alicloud/src/services/awss\zconfig_ieee80211.c ****     do {
 931:C:/Users/stapi/OneDrive/Desktop/GD32VW553/V1_MQTT_OK/GD32VW55X_Wifi_BLE_SDK/GD32VW55x_RELEASE_V1.0.2/MSDK/cloud/alicloud/src/services/awss\zconfig_ieee80211.c ****         awss_protocol_finish_func_type finish_func = awss_protocol_couple_array[i].awss_protocol_fi
 932:C:/Users/stapi/OneDrive/Desktop/GD32VW553/V1_MQTT_OK/GD32VW55X_Wifi_BLE_SDK/GD32VW55x_RELEASE_V1.0.2/MSDK/cloud/alicloud/src/services/awss\zconfig_ieee80211.c ****         if (finish_func) {
 933:C:/Users/stapi/OneDrive/Desktop/GD32VW553/V1_MQTT_OK/GD32VW55X_Wifi_BLE_SDK/GD32VW55x_RELEASE_V1.0.2/MSDK/cloud/alicloud/src/services/awss\zconfig_ieee80211.c ****             pkt_type = finish_func(res);
 934:C:/Users/stapi/OneDrive/Desktop/GD32VW553/V1_MQTT_OK/GD32VW55X_Wifi_BLE_SDK/GD32VW55x_RELEASE_V1.0.2/MSDK/cloud/alicloud/src/services/awss\zconfig_ieee80211.c ****         }
 935:C:/Users/stapi/OneDrive/Desktop/GD32VW553/V1_MQTT_OK/GD32VW55X_Wifi_BLE_SDK/GD32VW55x_RELEASE_V1.0.2/MSDK/cloud/alicloud/src/services/awss\zconfig_ieee80211.c ****     } while (0);
 936:C:/Users/stapi/OneDrive/Desktop/GD32VW553/V1_MQTT_OK/GD32VW55X_Wifi_BLE_SDK/GD32VW55x_RELEASE_V1.0.2/MSDK/cloud/alicloud/src/services/awss\zconfig_ieee80211.c **** 
 937:C:/Users/stapi/OneDrive/Desktop/GD32VW553/V1_MQTT_OK/GD32VW55X_Wifi_BLE_SDK/GD32VW55x_RELEASE_V1.0.2/MSDK/cloud/alicloud/src/services/awss\zconfig_ieee80211.c **** drop:
 938:C:/Users/stapi/OneDrive/Desktop/GD32VW553/V1_MQTT_OK/GD32VW55X_Wifi_BLE_SDK/GD32VW55x_RELEASE_V1.0.2/MSDK/cloud/alicloud/src/services/awss\zconfig_ieee80211.c ****     return pkt_type;
 939:C:/Users/stapi/OneDrive/Desktop/GD32VW553/V1_MQTT_OK/GD32VW55X_Wifi_BLE_SDK/GD32VW55x_RELEASE_V1.0.2/MSDK/cloud/alicloud/src/services/awss\zconfig_ieee80211.c **** }
 2245              		.loc 1 939 1
 2246 0028 4101     		addi	sp,sp,16
 2247              		.cfi_remember_state
 2248              		.cfi_def_cfa_offset 0
 2249 002a 17030000 		tail	__riscv_restore_9
 2249      67000300 
 2250              		.cfi_restore 24
 2251              		.cfi_restore 23
 2252              		.cfi_restore 22
 2253              		.cfi_restore 21
 2254              		.cfi_restore 20
 2255              		.cfi_restore 19
 2256              		.cfi_restore 18
 2257              		.cfi_restore 9
 2258              		.cfi_restore 8
 2259              		.cfi_restore 1
 2260              		.cfi_def_cfa_offset -48
 2261              	.LVL264:
 2262              	.L214:
 2263              		.cfi_restore_state
 883:C:/Users/stapi/OneDrive/Desktop/GD32VW553/V1_MQTT_OK/GD32VW55X_Wifi_BLE_SDK/GD32VW55x_RELEASE_V1.0.2/MSDK/cloud/alicloud/src/services/awss\zconfig_ieee80211.c **** 
 2264              		.loc 1 883 13
 2265 0032 835B0500 		lhu	s7,0(a0)
 2266 0036 B7070000 		lui	a5,%hi(.LANCHOR12)
 2267 003a AA84     		mv	s1,a0
 883:C:/Users/stapi/OneDrive/Desktop/GD32VW553/V1_MQTT_OK/GD32VW55X_Wifi_BLE_SDK/GD32VW55x_RELEASE_V1.0.2/MSDK/cloud/alicloud/src/services/awss\zconfig_ieee80211.c **** 
 2268              		.loc 1 883 5 is_stmt 1
 2269              	.LVL265:
 885:C:/Users/stapi/OneDrive/Desktop/GD32VW553/V1_MQTT_OK/GD32VW55X_Wifi_BLE_SDK/GD32VW55x_RELEASE_V1.0.2/MSDK/cloud/alicloud/src/services/awss\zconfig_ieee80211.c ****         awss_protocol_process_func_type protocol_func = NULL;
 2270              		.loc 1 885 5
 885:C:/Users/stapi/OneDrive/Desktop/GD32VW553/V1_MQTT_OK/GD32VW55X_Wifi_BLE_SDK/GD32VW55x_RELEASE_V1.0.2/MSDK/cloud/alicloud/src/services/awss\zconfig_ieee80211.c ****         awss_protocol_process_func_type protocol_func = NULL;
 2271              		.loc 1 885 17
 2272 003c 93890700 		addi	s3,a5,%lo(.LANCHOR12)
 885:C:/Users/stapi/OneDrive/Desktop/GD32VW553/V1_MQTT_OK/GD32VW55X_Wifi_BLE_SDK/GD32VW55x_RELEASE_V1.0.2/MSDK/cloud/alicloud/src/services/awss\zconfig_ieee80211.c ****         awss_protocol_process_func_type protocol_func = NULL;
 2273              		.loc 1 885 12 is_stmt 0
 2274 0040 0149     		li	s2,0
 2275 0042 138A0700 		addi	s4,a5,%lo(.LANCHOR12)
 885:C:/Users/stapi/OneDrive/Desktop/GD32VW553/V1_MQTT_OK/GD32VW55X_Wifi_BLE_SDK/GD32VW55x_RELEASE_V1.0.2/MSDK/cloud/alicloud/src/services/awss\zconfig_ieee80211.c ****         awss_protocol_process_func_type protocol_func = NULL;
 2276              		.loc 1 885 5
 2277 0046 0D4C     		li	s8,3
 2278              	.LVL266:
 2279              	.L217:
 2280              	.LBB28:
 886:C:/Users/stapi/OneDrive/Desktop/GD32VW553/V1_MQTT_OK/GD32VW55X_Wifi_BLE_SDK/GD32VW55x_RELEASE_V1.0.2/MSDK/cloud/alicloud/src/services/awss\zconfig_ieee80211.c **** #ifdef AWSS_BATCH_DEVAP_ENABLE
 2281              		.loc 1 886 9 is_stmt 1
 900:C:/Users/stapi/OneDrive/Desktop/GD32VW553/V1_MQTT_OK/GD32VW55X_Wifi_BLE_SDK/GD32VW55x_RELEASE_V1.0.2/MSDK/cloud/alicloud/src/services/awss\zconfig_ieee80211.c **** #endif
 2282              		.loc 1 900 9
 900:C:/Users/stapi/OneDrive/Desktop/GD32VW553/V1_MQTT_OK/GD32VW55X_Wifi_BLE_SDK/GD32VW55x_RELEASE_V1.0.2/MSDK/cloud/alicloud/src/services/awss\zconfig_ieee80211.c **** #endif
 2283              		.loc 1 900 23 is_stmt 0
 2284 0048 83A74900 		lw	a5,4(s3)
 2285              	.LVL267:
 902:C:/Users/stapi/OneDrive/Desktop/GD32VW553/V1_MQTT_OK/GD32VW55X_Wifi_BLE_SDK/GD32VW55x_RELEASE_V1.0.2/MSDK/cloud/alicloud/src/services/awss\zconfig_ieee80211.c ****             continue;
 2286              		.loc 1 902 9 is_stmt 1
 902:C:/Users/stapi/OneDrive/Desktop/GD32VW553/V1_MQTT_OK/GD32VW55X_Wifi_BLE_SDK/GD32VW55x_RELEASE_V1.0.2/MSDK/cloud/alicloud/src/services/awss\zconfig_ieee80211.c ****             continue;
 2287              		.loc 1 902 12 is_stmt 0
 2288 004c 91E7     		bne	a5,zero,.L216
 2289              	.LVL268:
 2290              	.L220:
 2291              	.LBE28:
 885:C:/Users/stapi/OneDrive/Desktop/GD32VW553/V1_MQTT_OK/GD32VW55X_Wifi_BLE_SDK/GD32VW55x_RELEASE_V1.0.2/MSDK/cloud/alicloud/src/services/awss\zconfig_ieee80211.c ****         awss_protocol_process_func_type protocol_func = NULL;
 2292              		.loc 1 885 97 is_stmt 1
 885:C:/Users/stapi/OneDrive/Desktop/GD32VW553/V1_MQTT_OK/GD32VW55X_Wifi_BLE_SDK/GD32VW55x_RELEASE_V1.0.2/MSDK/cloud/alicloud/src/services/awss\zconfig_ieee80211.c ****         awss_protocol_process_func_type protocol_func = NULL;
 2293              		.loc 1 885 99 is_stmt 0
 2294 004e 0509     		addi	s2,s2,1
 2295              	.LVL269:
 885:C:/Users/stapi/OneDrive/Desktop/GD32VW553/V1_MQTT_OK/GD32VW55X_Wifi_BLE_SDK/GD32VW55x_RELEASE_V1.0.2/MSDK/cloud/alicloud/src/services/awss\zconfig_ieee80211.c ****         awss_protocol_process_func_type protocol_func = NULL;
 2296              		.loc 1 885 17 is_stmt 1
 885:C:/Users/stapi/OneDrive/Desktop/GD32VW553/V1_MQTT_OK/GD32VW55X_Wifi_BLE_SDK/GD32VW55x_RELEASE_V1.0.2/MSDK/cloud/alicloud/src/services/awss\zconfig_ieee80211.c ****         awss_protocol_process_func_type protocol_func = NULL;
 2297              		.loc 1 885 5 is_stmt 0
 2298 0050 B109     		addi	s3,s3,12
 2299 0052 E31B89FF 		bne	s2,s8,.L217
 2300 0056 C1BF     		j	.L218
 2301              	.LVL270:
 2302              	.L216:
 2303              	.LBB29:
 905:C:/Users/stapi/OneDrive/Desktop/GD32VW553/V1_MQTT_OK/GD32VW55X_Wifi_BLE_SDK/GD32VW55x_RELEASE_V1.0.2/MSDK/cloud/alicloud/src/services/awss\zconfig_ieee80211.c ****         if (alink_type != ALINK_INVALID) {
 2304              		.loc 1 905 9 is_stmt 1
 905:C:/Users/stapi/OneDrive/Desktop/GD32VW553/V1_MQTT_OK/GD32VW55X_Wifi_BLE_SDK/GD32VW55x_RELEASE_V1.0.2/MSDK/cloud/alicloud/src/services/awss\zconfig_ieee80211.c ****         if (alink_type != ALINK_INVALID) {
 2305              		.loc 1 905 22 is_stmt 0
 2306 0058 A245     		lw	a1,8(sp)
 2307 005a 5A87     		mv	a4,s6
 2308 005c A286     		mv	a3,s0
 2309 005e 5686     		mv	a2,s5
 2310 0060 2685     		mv	a0,s1
 2311 0062 8297     		jalr	a5
 2312              	.LVL271:
 906:C:/Users/stapi/OneDrive/Desktop/GD32VW553/V1_MQTT_OK/GD32VW55X_Wifi_BLE_SDK/GD32VW55x_RELEASE_V1.0.2/MSDK/cloud/alicloud/src/services/awss\zconfig_ieee80211.c ****             break;
 2313              		.loc 1 906 9 is_stmt 1
 906:C:/Users/stapi/OneDrive/Desktop/GD32VW553/V1_MQTT_OK/GD32VW55X_Wifi_BLE_SDK/GD32VW55x_RELEASE_V1.0.2/MSDK/cloud/alicloud/src/services/awss\zconfig_ieee80211.c ****             break;
 2314              		.loc 1 906 12 is_stmt 0
 2315 0064 6DD5     		beq	a0,zero,.L220
 2316              	.LBE29:
 911:C:/Users/stapi/OneDrive/Desktop/GD32VW553/V1_MQTT_OK/GD32VW55X_Wifi_BLE_SDK/GD32VW55x_RELEASE_V1.0.2/MSDK/cloud/alicloud/src/services/awss\zconfig_ieee80211.c ****         goto drop;
 2317              		.loc 1 911 5 is_stmt 1
 915:C:/Users/stapi/OneDrive/Desktop/GD32VW553/V1_MQTT_OK/GD32VW55X_Wifi_BLE_SDK/GD32VW55x_RELEASE_V1.0.2/MSDK/cloud/alicloud/src/services/awss\zconfig_ieee80211.c ****         /* convert IEEE 802.11 header + possible LLC headers into Ethernet header
 2318              		.loc 1 915 5
 915:C:/Users/stapi/OneDrive/Desktop/GD32VW553/V1_MQTT_OK/GD32VW55X_Wifi_BLE_SDK/GD32VW55x_RELEASE_V1.0.2/MSDK/cloud/alicloud/src/services/awss\zconfig_ieee80211.c ****         /* convert IEEE 802.11 header + possible LLC headers into Ethernet header
 2319              		.loc 1 915 8 is_stmt 0
 2320 0066 A547     		li	a5,9
 2321 0068 630BF502 		beq	a0,a5,.L222
 924:C:/Users/stapi/OneDrive/Desktop/GD32VW553/V1_MQTT_OK/GD32VW55X_Wifi_BLE_SDK/GD32VW55x_RELEASE_V1.0.2/MSDK/cloud/alicloud/src/services/awss\zconfig_ieee80211.c ****         res->dst = ieee80211_get_DA(hdr);
 2322              		.loc 1 924 9 is_stmt 1
 924:C:/Users/stapi/OneDrive/Desktop/GD32VW553/V1_MQTT_OK/GD32VW55X_Wifi_BLE_SDK/GD32VW55x_RELEASE_V1.0.2/MSDK/cloud/alicloud/src/services/awss\zconfig_ieee80211.c ****         res->dst = ieee80211_get_DA(hdr);
 2323              		.loc 1 924 20 is_stmt 0
 2324 006c 2685     		mv	a0,s1
 2325              	.LVL272:
 2326 006e 97000000 		call	ieee80211_get_SA
 2326      E7800000 
 2327              	.LVL273:
 924:C:/Users/stapi/OneDrive/Desktop/GD32VW553/V1_MQTT_OK/GD32VW55X_Wifi_BLE_SDK/GD32VW55x_RELEASE_V1.0.2/MSDK/cloud/alicloud/src/services/awss\zconfig_ieee80211.c ****         res->dst = ieee80211_get_DA(hdr);
 2328              		.loc 1 924 18
 2329 0076 08C4     		sw	a0,8(s0)
 925:C:/Users/stapi/OneDrive/Desktop/GD32VW553/V1_MQTT_OK/GD32VW55X_Wifi_BLE_SDK/GD32VW55x_RELEASE_V1.0.2/MSDK/cloud/alicloud/src/services/awss\zconfig_ieee80211.c ****         res->bssid = ieee80211_get_BSSID(hdr);
 2330              		.loc 1 925 9 is_stmt 1
 925:C:/Users/stapi/OneDrive/Desktop/GD32VW553/V1_MQTT_OK/GD32VW55X_Wifi_BLE_SDK/GD32VW55x_RELEASE_V1.0.2/MSDK/cloud/alicloud/src/services/awss\zconfig_ieee80211.c ****         res->bssid = ieee80211_get_BSSID(hdr);
 2331              		.loc 1 925 20 is_stmt 0
 2332 0078 2685     		mv	a0,s1
 2333 007a 97000000 		call	ieee80211_get_DA
 2333      E7800000 
 2334              	.LVL274:
 925:C:/Users/stapi/OneDrive/Desktop/GD32VW553/V1_MQTT_OK/GD32VW55X_Wifi_BLE_SDK/GD32VW55x_RELEASE_V1.0.2/MSDK/cloud/alicloud/src/services/awss\zconfig_ieee80211.c ****         res->bssid = ieee80211_get_BSSID(hdr);
 2335              		.loc 1 925 18
 2336 0082 48C4     		sw	a0,12(s0)
 926:C:/Users/stapi/OneDrive/Desktop/GD32VW553/V1_MQTT_OK/GD32VW55X_Wifi_BLE_SDK/GD32VW55x_RELEASE_V1.0.2/MSDK/cloud/alicloud/src/services/awss\zconfig_ieee80211.c ****         res->tods = ieee80211_has_tods(fc);
 2337              		.loc 1 926 9 is_stmt 1
 926:C:/Users/stapi/OneDrive/Desktop/GD32VW553/V1_MQTT_OK/GD32VW55X_Wifi_BLE_SDK/GD32VW55x_RELEASE_V1.0.2/MSDK/cloud/alicloud/src/services/awss\zconfig_ieee80211.c ****         res->tods = ieee80211_has_tods(fc);
 2338              		.loc 1 926 22 is_stmt 0
 2339 0084 2685     		mv	a0,s1
 2340 0086 97000000 		call	ieee80211_get_BSSID
 2340      E7800000 
 2341              	.LVL275:
 926:C:/Users/stapi/OneDrive/Desktop/GD32VW553/V1_MQTT_OK/GD32VW55X_Wifi_BLE_SDK/GD32VW55x_RELEASE_V1.0.2/MSDK/cloud/alicloud/src/services/awss\zconfig_ieee80211.c ****         res->tods = ieee80211_has_tods(fc);
 2342              		.loc 1 926 20
 2343 008e 08C8     		sw	a0,16(s0)
 927:C:/Users/stapi/OneDrive/Desktop/GD32VW553/V1_MQTT_OK/GD32VW55X_Wifi_BLE_SDK/GD32VW55x_RELEASE_V1.0.2/MSDK/cloud/alicloud/src/services/awss\zconfig_ieee80211.c ****     }
 2344              		.loc 1 927 9 is_stmt 1
 927:C:/Users/stapi/OneDrive/Desktop/GD32VW553/V1_MQTT_OK/GD32VW55X_Wifi_BLE_SDK/GD32VW55x_RELEASE_V1.0.2/MSDK/cloud/alicloud/src/services/awss\zconfig_ieee80211.c ****     }
 2345              		.loc 1 927 21 is_stmt 0
 2346 0090 5E85     		mv	a0,s7
 2347 0092 97000000 		call	ieee80211_has_tods
 2347      E7800000 
 2348              	.LVL276:
 927:C:/Users/stapi/OneDrive/Desktop/GD32VW553/V1_MQTT_OK/GD32VW55X_Wifi_BLE_SDK/GD32VW55x_RELEASE_V1.0.2/MSDK/cloud/alicloud/src/services/awss\zconfig_ieee80211.c ****     }
 2349              		.loc 1 927 19
 2350 009a 230AA400 		sb	a0,20(s0)
 2351              	.L222:
 930:C:/Users/stapi/OneDrive/Desktop/GD32VW553/V1_MQTT_OK/GD32VW55X_Wifi_BLE_SDK/GD32VW55x_RELEASE_V1.0.2/MSDK/cloud/alicloud/src/services/awss\zconfig_ieee80211.c ****         awss_protocol_finish_func_type finish_func = awss_protocol_couple_array[i].awss_protocol_fi
 2352              		.loc 1 930 5 is_stmt 1
 2353              	.LBB30:
 931:C:/Users/stapi/OneDrive/Desktop/GD32VW553/V1_MQTT_OK/GD32VW55X_Wifi_BLE_SDK/GD32VW55x_RELEASE_V1.0.2/MSDK/cloud/alicloud/src/services/awss\zconfig_ieee80211.c ****         if (finish_func) {
 2354              		.loc 1 931 9
 931:C:/Users/stapi/OneDrive/Desktop/GD32VW553/V1_MQTT_OK/GD32VW55X_Wifi_BLE_SDK/GD32VW55x_RELEASE_V1.0.2/MSDK/cloud/alicloud/src/services/awss\zconfig_ieee80211.c ****         if (finish_func) {
 2355              		.loc 1 931 40 is_stmt 0
 2356 009e 3147     		li	a4,12
 2357 00a0 D287     		mv	a5,s4
 2358 00a2 FF17E9C4 		maddr32	a5, s2, a4
 2359 00a6 9C47     		lw	a5,8(a5)
 2360              	.LVL277:
 932:C:/Users/stapi/OneDrive/Desktop/GD32VW553/V1_MQTT_OK/GD32VW55X_Wifi_BLE_SDK/GD32VW55x_RELEASE_V1.0.2/MSDK/cloud/alicloud/src/services/awss\zconfig_ieee80211.c ****             pkt_type = finish_func(res);
 2361              		.loc 1 932 9 is_stmt 1
 932:C:/Users/stapi/OneDrive/Desktop/GD32VW553/V1_MQTT_OK/GD32VW55X_Wifi_BLE_SDK/GD32VW55x_RELEASE_V1.0.2/MSDK/cloud/alicloud/src/services/awss\zconfig_ieee80211.c ****             pkt_type = finish_func(res);
 2362              		.loc 1 932 12 is_stmt 0
 2363 00a8 BDDF     		beq	a5,zero,.L218
 2364              	.L215:
 933:C:/Users/stapi/OneDrive/Desktop/GD32VW553/V1_MQTT_OK/GD32VW55X_Wifi_BLE_SDK/GD32VW55x_RELEASE_V1.0.2/MSDK/cloud/alicloud/src/services/awss\zconfig_ieee80211.c ****         }
 2365              		.loc 1 933 13 is_stmt 1
 933:C:/Users/stapi/OneDrive/Desktop/GD32VW553/V1_MQTT_OK/GD32VW55X_Wifi_BLE_SDK/GD32VW55x_RELEASE_V1.0.2/MSDK/cloud/alicloud/src/services/awss\zconfig_ieee80211.c ****         }
 2366              		.loc 1 933 24 is_stmt 0
 2367 00aa 2285     		mv	a0,s0
 2368 00ac 8297     		jalr	a5
 2369              	.LVL278:
 2370              	.LBE30:
 935:C:/Users/stapi/OneDrive/Desktop/GD32VW553/V1_MQTT_OK/GD32VW55X_Wifi_BLE_SDK/GD32VW55x_RELEASE_V1.0.2/MSDK/cloud/alicloud/src/services/awss\zconfig_ieee80211.c **** 
 2371              		.loc 1 935 13 is_stmt 1
 938:C:/Users/stapi/OneDrive/Desktop/GD32VW553/V1_MQTT_OK/GD32VW55X_Wifi_BLE_SDK/GD32VW55x_RELEASE_V1.0.2/MSDK/cloud/alicloud/src/services/awss\zconfig_ieee80211.c **** }
 2372              		.loc 1 938 5
 938:C:/Users/stapi/OneDrive/Desktop/GD32VW553/V1_MQTT_OK/GD32VW55X_Wifi_BLE_SDK/GD32VW55x_RELEASE_V1.0.2/MSDK/cloud/alicloud/src/services/awss\zconfig_ieee80211.c **** }
 2373              		.loc 1 938 12 is_stmt 0
 2374 00ae ADBF     		j	.L213
 2375              		.cfi_endproc
 2376              	.LFE80:
 2378              		.globl	awss_protocol_couple_array
 2379              		.globl	wlan_fixed_scanning_channels
 2380              		.section	.data.awss_protocol_couple_array,"aw"
 2381              		.align	2
 2382              		.set	.LANCHOR12,. + 0
 2385              	awss_protocol_couple_array:
 2386 0000 08000000 		.word	8
 2387 0004 00000000 		.word	awss_ieee80211_aplist_process
 2388 0008 00000000 		.word	0
 2389 000c 06000000 		.word	6
 2390 0010 00000000 		.word	awss_enrollee_ieee80211_process
 2391 0014 00000000 		.word	awss_enrollee_recv_callback
 2392 0018 01000000 		.word	1
 2393 001c 00000000 		.word	awss_ieee80211_smartconfig_process
 2394 0020 00000000 		.word	awss_recv_callback_smartconfig
 2395              		.section	.rodata.wlan_fixed_scanning_channels,"a"
 2396              		.align	2
 2399              	wlan_fixed_scanning_channels:
 2400 0000 01060B01 		.ascii	"\001\006\013\001\002\003\004\005\006\007\b\t\n\013\f\r"
 2400      02030405 
 2400      06070809 
 2400      0A0B0C0D 
 2401              		.section	.srodata.RSN_CIPHER_SUITE_CCMP23A,"a"
 2402              		.align	2
 2403              		.set	.LANCHOR8,. + 0
 2406              	RSN_CIPHER_SUITE_CCMP23A:
 2407 0000 00       		.string	""
 2408 0001 0FAC04   		.ascii	"\017\254\004"
 2409              		.section	.srodata.RSN_CIPHER_SUITE_NONE23A,"a"
 2410              		.align	2
 2411              		.set	.LANCHOR5,. + 0
 2414              	RSN_CIPHER_SUITE_NONE23A:
 2415 0000 00       		.string	""
 2416 0001 0FAC00   		.string	"\017\254"
 2417              		.section	.srodata.RSN_CIPHER_SUITE_TKIP23A,"a"
 2418              		.align	2
 2419              		.set	.LANCHOR7,. + 0
 2422              	RSN_CIPHER_SUITE_TKIP23A:
 2423 0000 00       		.string	""
 2424 0001 0FAC02   		.ascii	"\017\254\002"
 2425              		.section	.srodata.RSN_CIPHER_SUITE_WEP10423A,"a"
 2426              		.align	2
 2427              		.set	.LANCHOR9,. + 0
 2430              	RSN_CIPHER_SUITE_WEP10423A:
 2431 0000 00       		.string	""
 2432 0001 0FAC05   		.ascii	"\017\254\005"
 2433              		.section	.srodata.RSN_CIPHER_SUITE_WEP4023A,"a"
 2434              		.align	2
 2435              		.set	.LANCHOR6,. + 0
 2438              	RSN_CIPHER_SUITE_WEP4023A:
 2439 0000 00       		.string	""
 2440 0001 0FAC01   		.ascii	"\017\254\001"
 2441              		.section	.srodata.RSN_SUITE_1X,"a"
 2442              		.align	2
 2443              		.set	.LANCHOR11,. + 0
 2446              	RSN_SUITE_1X:
 2447 0000 00       		.string	""
 2448 0001 0FAC01   		.ascii	"\017\254\001"
 2449              		.section	.srodata.WPA_CIPHER_SUITE_CCMP23A,"a"
 2450              		.align	2
 2451              		.set	.LANCHOR3,. + 0
 2454              	WPA_CIPHER_SUITE_CCMP23A:
 2455 0000 00       		.string	""
 2456 0001 50F204   		.ascii	"P\362\004"
 2457              		.section	.srodata.WPA_CIPHER_SUITE_NONE23A,"a"
 2458              		.align	2
 2459              		.set	.LANCHOR0,. + 0
 2462              	WPA_CIPHER_SUITE_NONE23A:
 2463 0000 00       		.string	""
 2464 0001 50F200   		.string	"P\362"
 2465              		.section	.srodata.WPA_CIPHER_SUITE_TKIP23A,"a"
 2466              		.align	2
 2467              		.set	.LANCHOR2,. + 0
 2470              	WPA_CIPHER_SUITE_TKIP23A:
 2471 0000 00       		.string	""
 2472 0001 50F202   		.ascii	"P\362\002"
 2473              		.section	.srodata.WPA_CIPHER_SUITE_WEP10423A,"a"
 2474              		.align	2
 2475              		.set	.LANCHOR4,. + 0
 2478              	WPA_CIPHER_SUITE_WEP10423A:
 2479 0000 00       		.string	""
 2480 0001 50F205   		.ascii	"P\362\005"
 2481              		.section	.srodata.WPA_CIPHER_SUITE_WEP4023A,"a"
 2482              		.align	2
 2483              		.set	.LANCHOR1,. + 0
 2486              	WPA_CIPHER_SUITE_WEP4023A:
 2487 0000 00       		.string	""
 2488 0001 50F201   		.ascii	"P\362\001"
 2489              		.section	.srodata.WPA_OUI23A_TYPE,"a"
 2490              		.align	2
 2491              		.set	.LANCHOR10,. + 0
 2494              	WPA_OUI23A_TYPE:
 2495 0000 00       		.string	""
 2496 0001 50F201   		.ascii	"P\362\001"
 2497              		.text
 2498              	.Letext0:
 2499              		.file 2 "c:\\users\\stapi\\onedrive\\desktop\\gd32vw553\\embeddedbuilder_v1.4.7.26843\\tools\\nucl
 2500              		.file 3 "c:\\users\\stapi\\onedrive\\desktop\\gd32vw553\\embeddedbuilder_v1.4.7.26843\\tools\\nucl
 2501              		.file 4 "C:/Users/stapi/OneDrive/Desktop/GD32VW553/V1_MQTT_OK/GD32VW55X_Wifi_BLE_SDK/GD32VW55x_REL
 2502              		.file 5 "C:/Users/stapi/OneDrive/Desktop/GD32VW553/V1_MQTT_OK/GD32VW55X_Wifi_BLE_SDK/GD32VW55x_REL
 2503              		.file 6 "C:/Users/stapi/OneDrive/Desktop/GD32VW553/V1_MQTT_OK/GD32VW55X_Wifi_BLE_SDK/GD32VW55x_REL
 2504              		.file 7 "c:\\users\\stapi\\onedrive\\desktop\\gd32vw553\\embeddedbuilder_v1.4.7.26843\\tools\\nucl
 2505              		.file 8 "..\\..\\..\\..\\cloud\\alicloud\\src\\services\\dev_bind\\os/os.h"
 2506              		.file 9 "..\\..\\..\\..\\cloud\\alicloud\\include/iot_export.h"
 2507              		.file 10 "..\\..\\..\\..\\cloud\\alicloud\\include/iot_import.h"
 2508              		.file 11 "<built-in>"
DEFINED SYMBOLS
                            *ABS*:0000000000000000 zconfig_ieee80211.c
C:\Users\stapi\AppData\Local\Temp\cc9dCqYX.s:22     .text.map_cipher_to_encry:0000000000000000 map_cipher_to_encry
C:\Users\stapi\AppData\Local\Temp\cc9dCqYX.s:26     .text.map_cipher_to_encry:0000000000000000 .L0 
C:\Users\stapi\AppData\Local\Temp\cc9dCqYX.s:28     .text.map_cipher_to_encry:0000000000000000 .L0 
C:\Users\stapi\AppData\Local\Temp\cc9dCqYX.s:29     .text.map_cipher_to_encry:0000000000000000 .L0 
C:\Users\stapi\AppData\Local\Temp\cc9dCqYX.s:36     .text.map_cipher_to_encry:0000000000000014 .L0 
C:\Users\stapi\AppData\Local\Temp\cc9dCqYX.s:39     .text.map_cipher_to_encry:0000000000000016 .L0 
C:\Users\stapi\AppData\Local\Temp\cc9dCqYX.s:42     .text.map_cipher_to_encry:000000000000001a .L0 
C:\Users\stapi\AppData\Local\Temp\cc9dCqYX.s:45     .text.map_cipher_to_encry:000000000000001c .L0 
C:\Users\stapi\AppData\Local\Temp\cc9dCqYX.s:47     .text.map_cipher_to_encry:0000000000000020 .L0 
C:\Users\stapi\AppData\Local\Temp\cc9dCqYX.s:48     .text.map_cipher_to_encry:0000000000000028 .L0 
C:\Users\stapi\AppData\Local\Temp\cc9dCqYX.s:49     .text.map_cipher_to_encry:0000000000000028 .L0 
C:\Users\stapi\AppData\Local\Temp\cc9dCqYX.s:51     .text.map_cipher_to_encry:0000000000000028 .L0 
C:\Users\stapi\AppData\Local\Temp\cc9dCqYX.s:53     .text.map_cipher_to_encry:000000000000002c .L0 
C:\Users\stapi\AppData\Local\Temp\cc9dCqYX.s:54     .text.map_cipher_to_encry:000000000000002e .L0 
C:\Users\stapi\AppData\Local\Temp\cc9dCqYX.s:56     .text.map_cipher_to_encry:000000000000002e .L0 
C:\Users\stapi\AppData\Local\Temp\cc9dCqYX.s:59     .text.map_cipher_to_encry:0000000000000034 .L0 
C:\Users\stapi\AppData\Local\Temp\cc9dCqYX.s:60     .text.map_cipher_to_encry:0000000000000034 .L0 
C:\Users\stapi\AppData\Local\Temp\cc9dCqYX.s:63     .text.map_cipher_to_encry:000000000000003c .L0 
C:\Users\stapi\AppData\Local\Temp\cc9dCqYX.s:69     .text.map_cipher_to_encry:000000000000004e .L0 
C:\Users\stapi\AppData\Local\Temp\cc9dCqYX.s:74     .text.map_cipher_to_encry:000000000000005e .L0 
C:\Users\stapi\AppData\Local\Temp\cc9dCqYX.s:75     .text.map_cipher_to_encry:000000000000005e .L0 
C:\Users\stapi\AppData\Local\Temp\cc9dCqYX.s:76     .text.map_cipher_to_encry:000000000000005e .L0 
C:\Users\stapi\AppData\Local\Temp\cc9dCqYX.s:78     .text.map_cipher_to_encry:0000000000000062 .L0 
C:\Users\stapi\AppData\Local\Temp\cc9dCqYX.s:79     .text.map_cipher_to_encry:0000000000000064 .L0 
C:\Users\stapi\AppData\Local\Temp\cc9dCqYX.s:81     .text.map_cipher_to_encry:000000000000006c .L0 
C:\Users\stapi\AppData\Local\Temp\cc9dCqYX.s:82     .text.map_cipher_to_encry:000000000000006c .L0 
C:\Users\stapi\AppData\Local\Temp\cc9dCqYX.s:85     .text.map_cipher_to_encry:000000000000006c .L0 
C:\Users\stapi\AppData\Local\Temp\cc9dCqYX.s:87     .text.map_cipher_to_encry:000000000000006c .L0 
C:\Users\stapi\AppData\Local\Temp\cc9dCqYX.s:89     .text.map_cipher_to_encry:000000000000006e .L0 
C:\Users\stapi\AppData\Local\Temp\cc9dCqYX.s:92     .text.map_cipher_to_encry:0000000000000070 .L0 
C:\Users\stapi\AppData\Local\Temp\cc9dCqYX.s:95     .text.map_cipher_to_encry:0000000000000076 .L0 
C:\Users\stapi\AppData\Local\Temp\cc9dCqYX.s:100    .text.map_cipher_to_encry:000000000000007a .L0 
C:\Users\stapi\AppData\Local\Temp\cc9dCqYX.s:105    .text.map_cipher_to_encry:000000000000007e .L0 
C:\Users\stapi\AppData\Local\Temp\cc9dCqYX.s:106    .text.map_cipher_to_encry:0000000000000080 .L0 
C:\Users\stapi\AppData\Local\Temp\cc9dCqYX.s:112    .text.get_wpa_cipher_suite:0000000000000000 get_wpa_cipher_suite
C:\Users\stapi\AppData\Local\Temp\cc9dCqYX.s:115    .text.get_wpa_cipher_suite:0000000000000000 .L0 
C:\Users\stapi\AppData\Local\Temp\cc9dCqYX.s:117    .text.get_wpa_cipher_suite:0000000000000000 .L0 
C:\Users\stapi\AppData\Local\Temp\cc9dCqYX.s:118    .text.get_wpa_cipher_suite:0000000000000008 .L0 
C:\Users\stapi\AppData\Local\Temp\cc9dCqYX.s:119    .text.get_wpa_cipher_suite:0000000000000008 .L0 
C:\Users\stapi\AppData\Local\Temp\cc9dCqYX.s:120    .text.get_wpa_cipher_suite:0000000000000008 .L0 
C:\Users\stapi\AppData\Local\Temp\cc9dCqYX.s:122    .text.get_wpa_cipher_suite:0000000000000008 .L0 
C:\Users\stapi\AppData\Local\Temp\cc9dCqYX.s:123    .text.get_wpa_cipher_suite:0000000000000008 .L0 
C:\Users\stapi\AppData\Local\Temp\cc9dCqYX.s:127    .text.get_wpa_cipher_suite:0000000000000012 .L0 
C:\Users\stapi\AppData\Local\Temp\cc9dCqYX.s:129    .text.get_wpa_cipher_suite:0000000000000014 .L0 
C:\Users\stapi\AppData\Local\Temp\cc9dCqYX.s:132    .text.get_wpa_cipher_suite:000000000000001c .L0 
C:\Users\stapi\AppData\Local\Temp\cc9dCqYX.s:134    .text.get_wpa_cipher_suite:000000000000001e .L0 
C:\Users\stapi\AppData\Local\Temp\cc9dCqYX.s:136    .text.get_wpa_cipher_suite:0000000000000020 .L0 
C:\Users\stapi\AppData\Local\Temp\cc9dCqYX.s:137    .text.get_wpa_cipher_suite:0000000000000020 .L0 
C:\Users\stapi\AppData\Local\Temp\cc9dCqYX.s:144    .text.get_wpa_cipher_suite:0000000000000034 .L0 
C:\Users\stapi\AppData\Local\Temp\cc9dCqYX.s:146    .text.get_wpa_cipher_suite:0000000000000036 .L0 
C:\Users\stapi\AppData\Local\Temp\cc9dCqYX.s:151    .text.get_wpa_cipher_suite:0000000000000038 .L0 
C:\Users\stapi\AppData\Local\Temp\cc9dCqYX.s:152    .text.get_wpa_cipher_suite:0000000000000038 .L0 
C:\Users\stapi\AppData\Local\Temp\cc9dCqYX.s:159    .text.get_wpa_cipher_suite:000000000000004c .L0 
C:\Users\stapi\AppData\Local\Temp\cc9dCqYX.s:161    .text.get_wpa_cipher_suite:000000000000004e .L0 
C:\Users\stapi\AppData\Local\Temp\cc9dCqYX.s:163    .text.get_wpa_cipher_suite:0000000000000050 .L0 
C:\Users\stapi\AppData\Local\Temp\cc9dCqYX.s:164    .text.get_wpa_cipher_suite:0000000000000050 .L0 
C:\Users\stapi\AppData\Local\Temp\cc9dCqYX.s:171    .text.get_wpa_cipher_suite:0000000000000064 .L0 
C:\Users\stapi\AppData\Local\Temp\cc9dCqYX.s:173    .text.get_wpa_cipher_suite:0000000000000066 .L0 
C:\Users\stapi\AppData\Local\Temp\cc9dCqYX.s:175    .text.get_wpa_cipher_suite:0000000000000068 .L0 
C:\Users\stapi\AppData\Local\Temp\cc9dCqYX.s:176    .text.get_wpa_cipher_suite:0000000000000068 .L0 
C:\Users\stapi\AppData\Local\Temp\cc9dCqYX.s:183    .text.get_wpa_cipher_suite:000000000000007c .L0 
C:\Users\stapi\AppData\Local\Temp\cc9dCqYX.s:190    .text.get_wpa_cipher_suite:0000000000000082 .L0 
C:\Users\stapi\AppData\Local\Temp\cc9dCqYX.s:192    .text.get_wpa_cipher_suite:000000000000008c .L0 
C:\Users\stapi\AppData\Local\Temp\cc9dCqYX.s:193    .text.get_wpa_cipher_suite:000000000000008c .L0 
C:\Users\stapi\AppData\Local\Temp\cc9dCqYX.s:194    .text.get_wpa_cipher_suite:000000000000008c .L0 
C:\Users\stapi\AppData\Local\Temp\cc9dCqYX.s:195    .text.get_wpa_cipher_suite:000000000000008c .L0 
C:\Users\stapi\AppData\Local\Temp\cc9dCqYX.s:201    .text.get_wpa2_cipher_suite:0000000000000000 get_wpa2_cipher_suite
C:\Users\stapi\AppData\Local\Temp\cc9dCqYX.s:204    .text.get_wpa2_cipher_suite:0000000000000000 .L0 
C:\Users\stapi\AppData\Local\Temp\cc9dCqYX.s:206    .text.get_wpa2_cipher_suite:0000000000000000 .L0 
C:\Users\stapi\AppData\Local\Temp\cc9dCqYX.s:207    .text.get_wpa2_cipher_suite:0000000000000008 .L0 
C:\Users\stapi\AppData\Local\Temp\cc9dCqYX.s:208    .text.get_wpa2_cipher_suite:0000000000000008 .L0 
C:\Users\stapi\AppData\Local\Temp\cc9dCqYX.s:209    .text.get_wpa2_cipher_suite:0000000000000008 .L0 
C:\Users\stapi\AppData\Local\Temp\cc9dCqYX.s:211    .text.get_wpa2_cipher_suite:0000000000000008 .L0 
C:\Users\stapi\AppData\Local\Temp\cc9dCqYX.s:212    .text.get_wpa2_cipher_suite:0000000000000008 .L0 
C:\Users\stapi\AppData\Local\Temp\cc9dCqYX.s:216    .text.get_wpa2_cipher_suite:0000000000000012 .L0 
C:\Users\stapi\AppData\Local\Temp\cc9dCqYX.s:218    .text.get_wpa2_cipher_suite:0000000000000014 .L0 
C:\Users\stapi\AppData\Local\Temp\cc9dCqYX.s:221    .text.get_wpa2_cipher_suite:000000000000001c .L0 
C:\Users\stapi\AppData\Local\Temp\cc9dCqYX.s:223    .text.get_wpa2_cipher_suite:000000000000001e .L0 
C:\Users\stapi\AppData\Local\Temp\cc9dCqYX.s:225    .text.get_wpa2_cipher_suite:0000000000000020 .L0 
C:\Users\stapi\AppData\Local\Temp\cc9dCqYX.s:226    .text.get_wpa2_cipher_suite:0000000000000020 .L0 
C:\Users\stapi\AppData\Local\Temp\cc9dCqYX.s:233    .text.get_wpa2_cipher_suite:0000000000000034 .L0 
C:\Users\stapi\AppData\Local\Temp\cc9dCqYX.s:235    .text.get_wpa2_cipher_suite:0000000000000036 .L0 
C:\Users\stapi\AppData\Local\Temp\cc9dCqYX.s:240    .text.get_wpa2_cipher_suite:0000000000000038 .L0 
C:\Users\stapi\AppData\Local\Temp\cc9dCqYX.s:241    .text.get_wpa2_cipher_suite:0000000000000038 .L0 
C:\Users\stapi\AppData\Local\Temp\cc9dCqYX.s:248    .text.get_wpa2_cipher_suite:000000000000004c .L0 
C:\Users\stapi\AppData\Local\Temp\cc9dCqYX.s:250    .text.get_wpa2_cipher_suite:000000000000004e .L0 
C:\Users\stapi\AppData\Local\Temp\cc9dCqYX.s:252    .text.get_wpa2_cipher_suite:0000000000000050 .L0 
C:\Users\stapi\AppData\Local\Temp\cc9dCqYX.s:253    .text.get_wpa2_cipher_suite:0000000000000050 .L0 
C:\Users\stapi\AppData\Local\Temp\cc9dCqYX.s:260    .text.get_wpa2_cipher_suite:0000000000000064 .L0 
C:\Users\stapi\AppData\Local\Temp\cc9dCqYX.s:262    .text.get_wpa2_cipher_suite:0000000000000066 .L0 
C:\Users\stapi\AppData\Local\Temp\cc9dCqYX.s:264    .text.get_wpa2_cipher_suite:0000000000000068 .L0 
C:\Users\stapi\AppData\Local\Temp\cc9dCqYX.s:265    .text.get_wpa2_cipher_suite:0000000000000068 .L0 
C:\Users\stapi\AppData\Local\Temp\cc9dCqYX.s:272    .text.get_wpa2_cipher_suite:000000000000007c .L0 
C:\Users\stapi\AppData\Local\Temp\cc9dCqYX.s:279    .text.get_wpa2_cipher_suite:0000000000000082 .L0 
C:\Users\stapi\AppData\Local\Temp\cc9dCqYX.s:281    .text.get_wpa2_cipher_suite:000000000000008c .L0 
C:\Users\stapi\AppData\Local\Temp\cc9dCqYX.s:282    .text.get_wpa2_cipher_suite:000000000000008c .L0 
C:\Users\stapi\AppData\Local\Temp\cc9dCqYX.s:283    .text.get_wpa2_cipher_suite:000000000000008c .L0 
C:\Users\stapi\AppData\Local\Temp\cc9dCqYX.s:284    .text.get_wpa2_cipher_suite:000000000000008c .L0 
C:\Users\stapi\AppData\Local\Temp\cc9dCqYX.s:291    .text.ieee80211_is_ctl:0000000000000000 ieee80211_is_ctl
C:\Users\stapi\AppData\Local\Temp\cc9dCqYX.s:294    .text.ieee80211_is_ctl:0000000000000000 .L0 
C:\Users\stapi\AppData\Local\Temp\cc9dCqYX.s:296    .text.ieee80211_is_ctl:0000000000000000 .L0 
C:\Users\stapi\AppData\Local\Temp\cc9dCqYX.s:297    .text.ieee80211_is_ctl:0000000000000008 .L0 
C:\Users\stapi\AppData\Local\Temp\cc9dCqYX.s:298    .text.ieee80211_is_ctl:0000000000000008 .L0 
C:\Users\stapi\AppData\Local\Temp\cc9dCqYX.s:299    .text.ieee80211_is_ctl:0000000000000008 .L0 
C:\Users\stapi\AppData\Local\Temp\cc9dCqYX.s:301    .text.ieee80211_is_ctl:0000000000000008 .L0 
C:\Users\stapi\AppData\Local\Temp\cc9dCqYX.s:302    .text.ieee80211_is_ctl:0000000000000008 .L0 
C:\Users\stapi\AppData\Local\Temp\cc9dCqYX.s:304    .text.ieee80211_is_ctl:000000000000000a .L0 
C:\Users\stapi\AppData\Local\Temp\cc9dCqYX.s:309    .text.ieee80211_is_ctl:0000000000000014 .L0 
C:\Users\stapi\AppData\Local\Temp\cc9dCqYX.s:311    .text.ieee80211_is_ctl:0000000000000016 .L0 
C:\Users\stapi\AppData\Local\Temp\cc9dCqYX.s:315    .text.ieee80211_is_ctl:0000000000000020 .L0 
C:\Users\stapi\AppData\Local\Temp\cc9dCqYX.s:317    .text.ieee80211_is_ctl:0000000000000024 .L0 
C:\Users\stapi\AppData\Local\Temp\cc9dCqYX.s:319    .text.ieee80211_is_ctl:0000000000000030 .L0 
C:\Users\stapi\AppData\Local\Temp\cc9dCqYX.s:320    .text.ieee80211_is_ctl:0000000000000030 .L0 
C:\Users\stapi\AppData\Local\Temp\cc9dCqYX.s:321    .text.ieee80211_is_ctl:0000000000000030 .L0 
C:\Users\stapi\AppData\Local\Temp\cc9dCqYX.s:322    .text.ieee80211_is_ctl:0000000000000030 .L0 
C:\Users\stapi\AppData\Local\Temp\cc9dCqYX.s:329    .text.ieee80211_is_data:0000000000000000 ieee80211_is_data
C:\Users\stapi\AppData\Local\Temp\cc9dCqYX.s:332    .text.ieee80211_is_data:0000000000000000 .L0 
C:\Users\stapi\AppData\Local\Temp\cc9dCqYX.s:334    .text.ieee80211_is_data:0000000000000000 .L0 
C:\Users\stapi\AppData\Local\Temp\cc9dCqYX.s:335    .text.ieee80211_is_data:0000000000000008 .L0 
C:\Users\stapi\AppData\Local\Temp\cc9dCqYX.s:336    .text.ieee80211_is_data:0000000000000008 .L0 
C:\Users\stapi\AppData\Local\Temp\cc9dCqYX.s:337    .text.ieee80211_is_data:0000000000000008 .L0 
C:\Users\stapi\AppData\Local\Temp\cc9dCqYX.s:339    .text.ieee80211_is_data:0000000000000008 .L0 
C:\Users\stapi\AppData\Local\Temp\cc9dCqYX.s:340    .text.ieee80211_is_data:0000000000000008 .L0 
C:\Users\stapi\AppData\Local\Temp\cc9dCqYX.s:342    .text.ieee80211_is_data:000000000000000a .L0 
C:\Users\stapi\AppData\Local\Temp\cc9dCqYX.s:347    .text.ieee80211_is_data:0000000000000014 .L0 
C:\Users\stapi\AppData\Local\Temp\cc9dCqYX.s:349    .text.ieee80211_is_data:0000000000000016 .L0 
C:\Users\stapi\AppData\Local\Temp\cc9dCqYX.s:353    .text.ieee80211_is_data:0000000000000020 .L0 
C:\Users\stapi\AppData\Local\Temp\cc9dCqYX.s:355    .text.ieee80211_is_data:0000000000000024 .L0 
C:\Users\stapi\AppData\Local\Temp\cc9dCqYX.s:357    .text.ieee80211_is_data:0000000000000030 .L0 
C:\Users\stapi\AppData\Local\Temp\cc9dCqYX.s:358    .text.ieee80211_is_data:0000000000000030 .L0 
C:\Users\stapi\AppData\Local\Temp\cc9dCqYX.s:359    .text.ieee80211_is_data:0000000000000030 .L0 
C:\Users\stapi\AppData\Local\Temp\cc9dCqYX.s:360    .text.ieee80211_is_data:0000000000000030 .L0 
C:\Users\stapi\AppData\Local\Temp\cc9dCqYX.s:367    .text.ieee80211_has_tods:0000000000000000 ieee80211_has_tods
C:\Users\stapi\AppData\Local\Temp\cc9dCqYX.s:370    .text.ieee80211_has_tods:0000000000000000 .L0 
C:\Users\stapi\AppData\Local\Temp\cc9dCqYX.s:372    .text.ieee80211_has_tods:0000000000000000 .L0 
C:\Users\stapi\AppData\Local\Temp\cc9dCqYX.s:373    .text.ieee80211_has_tods:0000000000000008 .L0 
C:\Users\stapi\AppData\Local\Temp\cc9dCqYX.s:374    .text.ieee80211_has_tods:0000000000000008 .L0 
C:\Users\stapi\AppData\Local\Temp\cc9dCqYX.s:375    .text.ieee80211_has_tods:0000000000000008 .L0 
C:\Users\stapi\AppData\Local\Temp\cc9dCqYX.s:377    .text.ieee80211_has_tods:0000000000000008 .L0 
C:\Users\stapi\AppData\Local\Temp\cc9dCqYX.s:378    .text.ieee80211_has_tods:0000000000000008 .L0 
C:\Users\stapi\AppData\Local\Temp\cc9dCqYX.s:380    .text.ieee80211_has_tods:000000000000000a .L0 
C:\Users\stapi\AppData\Local\Temp\cc9dCqYX.s:385    .text.ieee80211_has_tods:0000000000000016 .L0 
C:\Users\stapi\AppData\Local\Temp\cc9dCqYX.s:387    .text.ieee80211_has_tods:0000000000000018 .L0 
C:\Users\stapi\AppData\Local\Temp\cc9dCqYX.s:389    .text.ieee80211_has_tods:0000000000000024 .L0 
C:\Users\stapi\AppData\Local\Temp\cc9dCqYX.s:390    .text.ieee80211_has_tods:0000000000000024 .L0 
C:\Users\stapi\AppData\Local\Temp\cc9dCqYX.s:391    .text.ieee80211_has_tods:0000000000000024 .L0 
C:\Users\stapi\AppData\Local\Temp\cc9dCqYX.s:392    .text.ieee80211_has_tods:0000000000000024 .L0 
C:\Users\stapi\AppData\Local\Temp\cc9dCqYX.s:399    .text.ieee80211_has_fromds:0000000000000000 ieee80211_has_fromds
C:\Users\stapi\AppData\Local\Temp\cc9dCqYX.s:402    .text.ieee80211_has_fromds:0000000000000000 .L0 
C:\Users\stapi\AppData\Local\Temp\cc9dCqYX.s:404    .text.ieee80211_has_fromds:0000000000000000 .L0 
C:\Users\stapi\AppData\Local\Temp\cc9dCqYX.s:405    .text.ieee80211_has_fromds:0000000000000008 .L0 
C:\Users\stapi\AppData\Local\Temp\cc9dCqYX.s:406    .text.ieee80211_has_fromds:0000000000000008 .L0 
C:\Users\stapi\AppData\Local\Temp\cc9dCqYX.s:407    .text.ieee80211_has_fromds:0000000000000008 .L0 
C:\Users\stapi\AppData\Local\Temp\cc9dCqYX.s:409    .text.ieee80211_has_fromds:0000000000000008 .L0 
C:\Users\stapi\AppData\Local\Temp\cc9dCqYX.s:410    .text.ieee80211_has_fromds:0000000000000008 .L0 
C:\Users\stapi\AppData\Local\Temp\cc9dCqYX.s:412    .text.ieee80211_has_fromds:000000000000000a .L0 
C:\Users\stapi\AppData\Local\Temp\cc9dCqYX.s:417    .text.ieee80211_has_fromds:0000000000000016 .L0 
C:\Users\stapi\AppData\Local\Temp\cc9dCqYX.s:419    .text.ieee80211_has_fromds:0000000000000018 .L0 
C:\Users\stapi\AppData\Local\Temp\cc9dCqYX.s:421    .text.ieee80211_has_fromds:0000000000000024 .L0 
C:\Users\stapi\AppData\Local\Temp\cc9dCqYX.s:422    .text.ieee80211_has_fromds:0000000000000024 .L0 
C:\Users\stapi\AppData\Local\Temp\cc9dCqYX.s:423    .text.ieee80211_has_fromds:0000000000000024 .L0 
C:\Users\stapi\AppData\Local\Temp\cc9dCqYX.s:424    .text.ieee80211_has_fromds:0000000000000024 .L0 
C:\Users\stapi\AppData\Local\Temp\cc9dCqYX.s:431    .text.ieee80211_has_a4:0000000000000000 ieee80211_has_a4
C:\Users\stapi\AppData\Local\Temp\cc9dCqYX.s:434    .text.ieee80211_has_a4:0000000000000000 .L0 
C:\Users\stapi\AppData\Local\Temp\cc9dCqYX.s:436    .text.ieee80211_has_a4:0000000000000000 .L0 
C:\Users\stapi\AppData\Local\Temp\cc9dCqYX.s:437    .text.ieee80211_has_a4:0000000000000008 .L0 
C:\Users\stapi\AppData\Local\Temp\cc9dCqYX.s:438    .text.ieee80211_has_a4:0000000000000008 .L0 
C:\Users\stapi\AppData\Local\Temp\cc9dCqYX.s:439    .text.ieee80211_has_a4:0000000000000008 .L0 
C:\Users\stapi\AppData\Local\Temp\cc9dCqYX.s:441    .text.ieee80211_has_a4:0000000000000008 .L0 
C:\Users\stapi\AppData\Local\Temp\cc9dCqYX.s:442    .text.ieee80211_has_a4:0000000000000008 .L0 
C:\Users\stapi\AppData\Local\Temp\cc9dCqYX.s:444    .text.ieee80211_has_a4:000000000000000a .L0 
C:\Users\stapi\AppData\Local\Temp\cc9dCqYX.s:449    .text.ieee80211_has_a4:0000000000000016 .L0 
C:\Users\stapi\AppData\Local\Temp\cc9dCqYX.s:450    .text.ieee80211_has_a4:0000000000000016 .L0 
C:\Users\stapi\AppData\Local\Temp\cc9dCqYX.s:453    .text.ieee80211_has_a4:000000000000001a .L0 
C:\Users\stapi\AppData\Local\Temp\cc9dCqYX.s:455    .text.ieee80211_has_a4:0000000000000026 .L0 
C:\Users\stapi\AppData\Local\Temp\cc9dCqYX.s:456    .text.ieee80211_has_a4:0000000000000026 .L0 
C:\Users\stapi\AppData\Local\Temp\cc9dCqYX.s:457    .text.ieee80211_has_a4:0000000000000026 .L0 
C:\Users\stapi\AppData\Local\Temp\cc9dCqYX.s:458    .text.ieee80211_has_a4:0000000000000026 .L0 
C:\Users\stapi\AppData\Local\Temp\cc9dCqYX.s:465    .text.ieee80211_has_order:0000000000000000 ieee80211_has_order
C:\Users\stapi\AppData\Local\Temp\cc9dCqYX.s:468    .text.ieee80211_has_order:0000000000000000 .L0 
C:\Users\stapi\AppData\Local\Temp\cc9dCqYX.s:470    .text.ieee80211_has_order:0000000000000000 .L0 
C:\Users\stapi\AppData\Local\Temp\cc9dCqYX.s:471    .text.ieee80211_has_order:0000000000000008 .L0 
C:\Users\stapi\AppData\Local\Temp\cc9dCqYX.s:472    .text.ieee80211_has_order:0000000000000008 .L0 
C:\Users\stapi\AppData\Local\Temp\cc9dCqYX.s:473    .text.ieee80211_has_order:0000000000000008 .L0 
C:\Users\stapi\AppData\Local\Temp\cc9dCqYX.s:475    .text.ieee80211_has_order:0000000000000008 .L0 
C:\Users\stapi\AppData\Local\Temp\cc9dCqYX.s:476    .text.ieee80211_has_order:0000000000000008 .L0 
C:\Users\stapi\AppData\Local\Temp\cc9dCqYX.s:478    .text.ieee80211_has_order:000000000000000a .L0 
C:\Users\stapi\AppData\Local\Temp\cc9dCqYX.s:483    .text.ieee80211_has_order:0000000000000014 .L0 
C:\Users\stapi\AppData\Local\Temp\cc9dCqYX.s:485    .text.ieee80211_has_order:0000000000000016 .L0 
C:\Users\stapi\AppData\Local\Temp\cc9dCqYX.s:487    .text.ieee80211_has_order:0000000000000022 .L0 
C:\Users\stapi\AppData\Local\Temp\cc9dCqYX.s:488    .text.ieee80211_has_order:0000000000000022 .L0 
C:\Users\stapi\AppData\Local\Temp\cc9dCqYX.s:489    .text.ieee80211_has_order:0000000000000022 .L0 
C:\Users\stapi\AppData\Local\Temp\cc9dCqYX.s:490    .text.ieee80211_has_order:0000000000000022 .L0 
C:\Users\stapi\AppData\Local\Temp\cc9dCqYX.s:497    .text.ieee80211_has_protected:0000000000000000 ieee80211_has_protected
C:\Users\stapi\AppData\Local\Temp\cc9dCqYX.s:500    .text.ieee80211_has_protected:0000000000000000 .L0 
C:\Users\stapi\AppData\Local\Temp\cc9dCqYX.s:502    .text.ieee80211_has_protected:0000000000000000 .L0 
C:\Users\stapi\AppData\Local\Temp\cc9dCqYX.s:503    .text.ieee80211_has_protected:0000000000000008 .L0 
C:\Users\stapi\AppData\Local\Temp\cc9dCqYX.s:504    .text.ieee80211_has_protected:0000000000000008 .L0 
C:\Users\stapi\AppData\Local\Temp\cc9dCqYX.s:505    .text.ieee80211_has_protected:0000000000000008 .L0 
C:\Users\stapi\AppData\Local\Temp\cc9dCqYX.s:507    .text.ieee80211_has_protected:0000000000000008 .L0 
C:\Users\stapi\AppData\Local\Temp\cc9dCqYX.s:508    .text.ieee80211_has_protected:0000000000000008 .L0 
C:\Users\stapi\AppData\Local\Temp\cc9dCqYX.s:510    .text.ieee80211_has_protected:000000000000000a .L0 
C:\Users\stapi\AppData\Local\Temp\cc9dCqYX.s:515    .text.ieee80211_has_protected:0000000000000014 .L0 
C:\Users\stapi\AppData\Local\Temp\cc9dCqYX.s:517    .text.ieee80211_has_protected:0000000000000016 .L0 
C:\Users\stapi\AppData\Local\Temp\cc9dCqYX.s:519    .text.ieee80211_has_protected:0000000000000022 .L0 
C:\Users\stapi\AppData\Local\Temp\cc9dCqYX.s:520    .text.ieee80211_has_protected:0000000000000022 .L0 
C:\Users\stapi\AppData\Local\Temp\cc9dCqYX.s:521    .text.ieee80211_has_protected:0000000000000022 .L0 
C:\Users\stapi\AppData\Local\Temp\cc9dCqYX.s:522    .text.ieee80211_has_protected:0000000000000022 .L0 
C:\Users\stapi\AppData\Local\Temp\cc9dCqYX.s:529    .text.ieee80211_is_data_qos:0000000000000000 ieee80211_is_data_qos
C:\Users\stapi\AppData\Local\Temp\cc9dCqYX.s:532    .text.ieee80211_is_data_qos:0000000000000000 .L0 
C:\Users\stapi\AppData\Local\Temp\cc9dCqYX.s:534    .text.ieee80211_is_data_qos:0000000000000000 .L0 
C:\Users\stapi\AppData\Local\Temp\cc9dCqYX.s:535    .text.ieee80211_is_data_qos:0000000000000008 .L0 
C:\Users\stapi\AppData\Local\Temp\cc9dCqYX.s:536    .text.ieee80211_is_data_qos:0000000000000008 .L0 
C:\Users\stapi\AppData\Local\Temp\cc9dCqYX.s:537    .text.ieee80211_is_data_qos:0000000000000008 .L0 
C:\Users\stapi\AppData\Local\Temp\cc9dCqYX.s:539    .text.ieee80211_is_data_qos:0000000000000008 .L0 
C:\Users\stapi\AppData\Local\Temp\cc9dCqYX.s:540    .text.ieee80211_is_data_qos:0000000000000008 .L0 
C:\Users\stapi\AppData\Local\Temp\cc9dCqYX.s:542    .text.ieee80211_is_data_qos:000000000000000a .L0 
C:\Users\stapi\AppData\Local\Temp\cc9dCqYX.s:547    .text.ieee80211_is_data_qos:0000000000000016 .L0 
C:\Users\stapi\AppData\Local\Temp\cc9dCqYX.s:549    .text.ieee80211_is_data_qos:0000000000000018 .L0 
C:\Users\stapi\AppData\Local\Temp\cc9dCqYX.s:553    .text.ieee80211_is_data_qos:0000000000000024 .L0 
C:\Users\stapi\AppData\Local\Temp\cc9dCqYX.s:555    .text.ieee80211_is_data_qos:0000000000000028 .L0 
C:\Users\stapi\AppData\Local\Temp\cc9dCqYX.s:557    .text.ieee80211_is_data_qos:0000000000000034 .L0 
C:\Users\stapi\AppData\Local\Temp\cc9dCqYX.s:558    .text.ieee80211_is_data_qos:0000000000000034 .L0 
C:\Users\stapi\AppData\Local\Temp\cc9dCqYX.s:559    .text.ieee80211_is_data_qos:0000000000000034 .L0 
C:\Users\stapi\AppData\Local\Temp\cc9dCqYX.s:560    .text.ieee80211_is_data_qos:0000000000000034 .L0 
C:\Users\stapi\AppData\Local\Temp\cc9dCqYX.s:567    .text.ieee80211_is_data_exact:0000000000000000 ieee80211_is_data_exact
C:\Users\stapi\AppData\Local\Temp\cc9dCqYX.s:570    .text.ieee80211_is_data_exact:0000000000000000 .L0 
C:\Users\stapi\AppData\Local\Temp\cc9dCqYX.s:572    .text.ieee80211_is_data_exact:0000000000000000 .L0 
C:\Users\stapi\AppData\Local\Temp\cc9dCqYX.s:573    .text.ieee80211_is_data_exact:0000000000000008 .L0 
C:\Users\stapi\AppData\Local\Temp\cc9dCqYX.s:574    .text.ieee80211_is_data_exact:0000000000000008 .L0 
C:\Users\stapi\AppData\Local\Temp\cc9dCqYX.s:575    .text.ieee80211_is_data_exact:0000000000000008 .L0 
C:\Users\stapi\AppData\Local\Temp\cc9dCqYX.s:577    .text.ieee80211_is_data_exact:0000000000000008 .L0 
C:\Users\stapi\AppData\Local\Temp\cc9dCqYX.s:578    .text.ieee80211_is_data_exact:0000000000000008 .L0 
C:\Users\stapi\AppData\Local\Temp\cc9dCqYX.s:580    .text.ieee80211_is_data_exact:000000000000000a .L0 
C:\Users\stapi\AppData\Local\Temp\cc9dCqYX.s:585    .text.ieee80211_is_data_exact:0000000000000016 .L0 
C:\Users\stapi\AppData\Local\Temp\cc9dCqYX.s:588    .text.ieee80211_is_data_exact:0000000000000018 .L0 
C:\Users\stapi\AppData\Local\Temp\cc9dCqYX.s:589    .text.ieee80211_is_data_exact:0000000000000018 .L0 
C:\Users\stapi\AppData\Local\Temp\cc9dCqYX.s:593    .text.ieee80211_is_data_exact:0000000000000022 .L0 
C:\Users\stapi\AppData\Local\Temp\cc9dCqYX.s:595    .text.ieee80211_is_data_exact:0000000000000026 .L0 
C:\Users\stapi\AppData\Local\Temp\cc9dCqYX.s:599    .text.ieee80211_is_data_exact:0000000000000032 .L0 
C:\Users\stapi\AppData\Local\Temp\cc9dCqYX.s:603    .text.ieee80211_is_data_exact:0000000000000038 .L0 
C:\Users\stapi\AppData\Local\Temp\cc9dCqYX.s:604    .text.ieee80211_is_data_exact:0000000000000040 .L0 
C:\Users\stapi\AppData\Local\Temp\cc9dCqYX.s:605    .text.ieee80211_is_data_exact:0000000000000040 .L0 
C:\Users\stapi\AppData\Local\Temp\cc9dCqYX.s:606    .text.ieee80211_is_data_exact:0000000000000040 .L0 
C:\Users\stapi\AppData\Local\Temp\cc9dCqYX.s:607    .text.ieee80211_is_data_exact:0000000000000040 .L0 
C:\Users\stapi\AppData\Local\Temp\cc9dCqYX.s:609    .text.ieee80211_is_data_exact:0000000000000040 .L0 
C:\Users\stapi\AppData\Local\Temp\cc9dCqYX.s:611    .text.ieee80211_is_data_exact:0000000000000040 .L0 
C:\Users\stapi\AppData\Local\Temp\cc9dCqYX.s:613    .text.ieee80211_is_data_exact:0000000000000044 .L0 
C:\Users\stapi\AppData\Local\Temp\cc9dCqYX.s:620    .text.ieee80211_is_beacon:0000000000000000 ieee80211_is_beacon
C:\Users\stapi\AppData\Local\Temp\cc9dCqYX.s:623    .text.ieee80211_is_beacon:0000000000000000 .L0 
C:\Users\stapi\AppData\Local\Temp\cc9dCqYX.s:625    .text.ieee80211_is_beacon:0000000000000000 .L0 
C:\Users\stapi\AppData\Local\Temp\cc9dCqYX.s:626    .text.ieee80211_is_beacon:0000000000000008 .L0 
C:\Users\stapi\AppData\Local\Temp\cc9dCqYX.s:627    .text.ieee80211_is_beacon:0000000000000008 .L0 
C:\Users\stapi\AppData\Local\Temp\cc9dCqYX.s:628    .text.ieee80211_is_beacon:0000000000000008 .L0 
C:\Users\stapi\AppData\Local\Temp\cc9dCqYX.s:630    .text.ieee80211_is_beacon:0000000000000008 .L0 
C:\Users\stapi\AppData\Local\Temp\cc9dCqYX.s:631    .text.ieee80211_is_beacon:0000000000000008 .L0 
C:\Users\stapi\AppData\Local\Temp\cc9dCqYX.s:633    .text.ieee80211_is_beacon:000000000000000a .L0 
C:\Users\stapi\AppData\Local\Temp\cc9dCqYX.s:638    .text.ieee80211_is_beacon:0000000000000016 .L0 
C:\Users\stapi\AppData\Local\Temp\cc9dCqYX.s:640    .text.ieee80211_is_beacon:0000000000000018 .L0 
C:\Users\stapi\AppData\Local\Temp\cc9dCqYX.s:644    .text.ieee80211_is_beacon:0000000000000024 .L0 
C:\Users\stapi\AppData\Local\Temp\cc9dCqYX.s:646    .text.ieee80211_is_beacon:0000000000000028 .L0 
C:\Users\stapi\AppData\Local\Temp\cc9dCqYX.s:648    .text.ieee80211_is_beacon:0000000000000034 .L0 
C:\Users\stapi\AppData\Local\Temp\cc9dCqYX.s:649    .text.ieee80211_is_beacon:0000000000000034 .L0 
C:\Users\stapi\AppData\Local\Temp\cc9dCqYX.s:650    .text.ieee80211_is_beacon:0000000000000034 .L0 
C:\Users\stapi\AppData\Local\Temp\cc9dCqYX.s:651    .text.ieee80211_is_beacon:0000000000000034 .L0 
C:\Users\stapi\AppData\Local\Temp\cc9dCqYX.s:658    .text.ieee80211_is_probe_req:0000000000000000 ieee80211_is_probe_req
C:\Users\stapi\AppData\Local\Temp\cc9dCqYX.s:661    .text.ieee80211_is_probe_req:0000000000000000 .L0 
C:\Users\stapi\AppData\Local\Temp\cc9dCqYX.s:663    .text.ieee80211_is_probe_req:0000000000000000 .L0 
C:\Users\stapi\AppData\Local\Temp\cc9dCqYX.s:664    .text.ieee80211_is_probe_req:0000000000000008 .L0 
C:\Users\stapi\AppData\Local\Temp\cc9dCqYX.s:665    .text.ieee80211_is_probe_req:0000000000000008 .L0 
C:\Users\stapi\AppData\Local\Temp\cc9dCqYX.s:666    .text.ieee80211_is_probe_req:0000000000000008 .L0 
C:\Users\stapi\AppData\Local\Temp\cc9dCqYX.s:668    .text.ieee80211_is_probe_req:0000000000000008 .L0 
C:\Users\stapi\AppData\Local\Temp\cc9dCqYX.s:669    .text.ieee80211_is_probe_req:0000000000000008 .L0 
C:\Users\stapi\AppData\Local\Temp\cc9dCqYX.s:671    .text.ieee80211_is_probe_req:000000000000000a .L0 
C:\Users\stapi\AppData\Local\Temp\cc9dCqYX.s:676    .text.ieee80211_is_probe_req:0000000000000016 .L0 
C:\Users\stapi\AppData\Local\Temp\cc9dCqYX.s:678    .text.ieee80211_is_probe_req:0000000000000018 .L0 
C:\Users\stapi\AppData\Local\Temp\cc9dCqYX.s:682    .text.ieee80211_is_probe_req:0000000000000024 .L0 
C:\Users\stapi\AppData\Local\Temp\cc9dCqYX.s:684    .text.ieee80211_is_probe_req:0000000000000028 .L0 
C:\Users\stapi\AppData\Local\Temp\cc9dCqYX.s:686    .text.ieee80211_is_probe_req:0000000000000034 .L0 
C:\Users\stapi\AppData\Local\Temp\cc9dCqYX.s:687    .text.ieee80211_is_probe_req:0000000000000034 .L0 
C:\Users\stapi\AppData\Local\Temp\cc9dCqYX.s:688    .text.ieee80211_is_probe_req:0000000000000034 .L0 
C:\Users\stapi\AppData\Local\Temp\cc9dCqYX.s:689    .text.ieee80211_is_probe_req:0000000000000034 .L0 
C:\Users\stapi\AppData\Local\Temp\cc9dCqYX.s:696    .text.ieee80211_is_probe_resp:0000000000000000 ieee80211_is_probe_resp
C:\Users\stapi\AppData\Local\Temp\cc9dCqYX.s:699    .text.ieee80211_is_probe_resp:0000000000000000 .L0 
C:\Users\stapi\AppData\Local\Temp\cc9dCqYX.s:701    .text.ieee80211_is_probe_resp:0000000000000000 .L0 
C:\Users\stapi\AppData\Local\Temp\cc9dCqYX.s:702    .text.ieee80211_is_probe_resp:0000000000000008 .L0 
C:\Users\stapi\AppData\Local\Temp\cc9dCqYX.s:703    .text.ieee80211_is_probe_resp:0000000000000008 .L0 
C:\Users\stapi\AppData\Local\Temp\cc9dCqYX.s:704    .text.ieee80211_is_probe_resp:0000000000000008 .L0 
C:\Users\stapi\AppData\Local\Temp\cc9dCqYX.s:706    .text.ieee80211_is_probe_resp:0000000000000008 .L0 
C:\Users\stapi\AppData\Local\Temp\cc9dCqYX.s:707    .text.ieee80211_is_probe_resp:0000000000000008 .L0 
C:\Users\stapi\AppData\Local\Temp\cc9dCqYX.s:709    .text.ieee80211_is_probe_resp:000000000000000a .L0 
C:\Users\stapi\AppData\Local\Temp\cc9dCqYX.s:714    .text.ieee80211_is_probe_resp:0000000000000016 .L0 
C:\Users\stapi\AppData\Local\Temp\cc9dCqYX.s:716    .text.ieee80211_is_probe_resp:0000000000000018 .L0 
C:\Users\stapi\AppData\Local\Temp\cc9dCqYX.s:720    .text.ieee80211_is_probe_resp:0000000000000024 .L0 
C:\Users\stapi\AppData\Local\Temp\cc9dCqYX.s:722    .text.ieee80211_is_probe_resp:0000000000000028 .L0 
C:\Users\stapi\AppData\Local\Temp\cc9dCqYX.s:724    .text.ieee80211_is_probe_resp:0000000000000034 .L0 
C:\Users\stapi\AppData\Local\Temp\cc9dCqYX.s:725    .text.ieee80211_is_probe_resp:0000000000000034 .L0 
C:\Users\stapi\AppData\Local\Temp\cc9dCqYX.s:726    .text.ieee80211_is_probe_resp:0000000000000034 .L0 
C:\Users\stapi\AppData\Local\Temp\cc9dCqYX.s:727    .text.ieee80211_is_probe_resp:0000000000000034 .L0 
C:\Users\stapi\AppData\Local\Temp\cc9dCqYX.s:734    .text.ieee80211_get_SA:0000000000000000 ieee80211_get_SA
C:\Users\stapi\AppData\Local\Temp\cc9dCqYX.s:737    .text.ieee80211_get_SA:0000000000000000 .L0 
C:\Users\stapi\AppData\Local\Temp\cc9dCqYX.s:739    .text.ieee80211_get_SA:0000000000000000 .L0 
C:\Users\stapi\AppData\Local\Temp\cc9dCqYX.s:740    .text.ieee80211_get_SA:0000000000000008 .L0 
C:\Users\stapi\AppData\Local\Temp\cc9dCqYX.s:741    .text.ieee80211_get_SA:0000000000000008 .L0 
C:\Users\stapi\AppData\Local\Temp\cc9dCqYX.s:742    .text.ieee80211_get_SA:0000000000000008 .L0 
C:\Users\stapi\AppData\Local\Temp\cc9dCqYX.s:744    .text.ieee80211_get_SA:0000000000000008 .L0 
C:\Users\stapi\AppData\Local\Temp\cc9dCqYX.s:745    .text.ieee80211_get_SA:0000000000000008 .L0 
C:\Users\stapi\AppData\Local\Temp\cc9dCqYX.s:747    .text.ieee80211_get_SA:000000000000000a .L0 
C:\Users\stapi\AppData\Local\Temp\cc9dCqYX.s:752    .text.ieee80211_get_SA:0000000000000016 .L0 
C:\Users\stapi\AppData\Local\Temp\cc9dCqYX.s:754    .text.ieee80211_get_SA:000000000000001a .L0 
C:\Users\stapi\AppData\Local\Temp\cc9dCqYX.s:759    .text.ieee80211_get_SA:000000000000001c .L0 
C:\Users\stapi\AppData\Local\Temp\cc9dCqYX.s:760    .text.ieee80211_get_SA:000000000000001c .L0 
C:\Users\stapi\AppData\Local\Temp\cc9dCqYX.s:764    .text.ieee80211_get_SA:0000000000000028 .L0 
C:\Users\stapi\AppData\Local\Temp\cc9dCqYX.s:766    .text.ieee80211_get_SA:000000000000002c .L0 
C:\Users\stapi\AppData\Local\Temp\cc9dCqYX.s:768    .text.ieee80211_get_SA:000000000000002e .L0 
C:\Users\stapi\AppData\Local\Temp\cc9dCqYX.s:769    .text.ieee80211_get_SA:000000000000002e .L0 
C:\Users\stapi\AppData\Local\Temp\cc9dCqYX.s:775    .text.ieee80211_get_SA:0000000000000032 .L0 
C:\Users\stapi\AppData\Local\Temp\cc9dCqYX.s:777    .text.ieee80211_get_SA:000000000000003c .L0 
C:\Users\stapi\AppData\Local\Temp\cc9dCqYX.s:778    .text.ieee80211_get_SA:000000000000003c .L0 
C:\Users\stapi\AppData\Local\Temp\cc9dCqYX.s:779    .text.ieee80211_get_SA:000000000000003c .L0 
C:\Users\stapi\AppData\Local\Temp\cc9dCqYX.s:780    .text.ieee80211_get_SA:000000000000003c .L0 
C:\Users\stapi\AppData\Local\Temp\cc9dCqYX.s:787    .text.ieee80211_get_DA:0000000000000000 ieee80211_get_DA
C:\Users\stapi\AppData\Local\Temp\cc9dCqYX.s:790    .text.ieee80211_get_DA:0000000000000000 .L0 
C:\Users\stapi\AppData\Local\Temp\cc9dCqYX.s:792    .text.ieee80211_get_DA:0000000000000000 .L0 
C:\Users\stapi\AppData\Local\Temp\cc9dCqYX.s:793    .text.ieee80211_get_DA:0000000000000008 .L0 
C:\Users\stapi\AppData\Local\Temp\cc9dCqYX.s:794    .text.ieee80211_get_DA:0000000000000008 .L0 
C:\Users\stapi\AppData\Local\Temp\cc9dCqYX.s:795    .text.ieee80211_get_DA:0000000000000008 .L0 
C:\Users\stapi\AppData\Local\Temp\cc9dCqYX.s:797    .text.ieee80211_get_DA:0000000000000008 .L0 
C:\Users\stapi\AppData\Local\Temp\cc9dCqYX.s:798    .text.ieee80211_get_DA:0000000000000008 .L0 
C:\Users\stapi\AppData\Local\Temp\cc9dCqYX.s:800    .text.ieee80211_get_DA:000000000000000a .L0 
C:\Users\stapi\AppData\Local\Temp\cc9dCqYX.s:805    .text.ieee80211_get_DA:0000000000000016 .L0 
C:\Users\stapi\AppData\Local\Temp\cc9dCqYX.s:807    .text.ieee80211_get_DA:0000000000000018 .L0 
C:\Users\stapi\AppData\Local\Temp\cc9dCqYX.s:808    .text.ieee80211_get_DA:0000000000000018 .L0 
C:\Users\stapi\AppData\Local\Temp\cc9dCqYX.s:811    .text.ieee80211_get_DA:000000000000001c .L0 
C:\Users\stapi\AppData\Local\Temp\cc9dCqYX.s:812    .text.ieee80211_get_DA:0000000000000024 .L0 
C:\Users\stapi\AppData\Local\Temp\cc9dCqYX.s:813    .text.ieee80211_get_DA:0000000000000024 .L0 
C:\Users\stapi\AppData\Local\Temp\cc9dCqYX.s:814    .text.ieee80211_get_DA:0000000000000024 .L0 
C:\Users\stapi\AppData\Local\Temp\cc9dCqYX.s:815    .text.ieee80211_get_DA:0000000000000024 .L0 
C:\Users\stapi\AppData\Local\Temp\cc9dCqYX.s:817    .text.ieee80211_get_DA:0000000000000024 .L0 
C:\Users\stapi\AppData\Local\Temp\cc9dCqYX.s:819    .text.ieee80211_get_DA:0000000000000024 .L0 
C:\Users\stapi\AppData\Local\Temp\cc9dCqYX.s:820    .text.ieee80211_get_DA:0000000000000024 .L0 
C:\Users\stapi\AppData\Local\Temp\cc9dCqYX.s:822    .text.ieee80211_get_DA:000000000000002a .L0 
C:\Users\stapi\AppData\Local\Temp\cc9dCqYX.s:829    .text.ieee80211_get_BSSID:0000000000000000 ieee80211_get_BSSID
C:\Users\stapi\AppData\Local\Temp\cc9dCqYX.s:832    .text.ieee80211_get_BSSID:0000000000000000 .L0 
C:\Users\stapi\AppData\Local\Temp\cc9dCqYX.s:834    .text.ieee80211_get_BSSID:0000000000000000 .L0 
C:\Users\stapi\AppData\Local\Temp\cc9dCqYX.s:835    .text.ieee80211_get_BSSID:0000000000000008 .L0 
C:\Users\stapi\AppData\Local\Temp\cc9dCqYX.s:836    .text.ieee80211_get_BSSID:0000000000000008 .L0 
C:\Users\stapi\AppData\Local\Temp\cc9dCqYX.s:837    .text.ieee80211_get_BSSID:0000000000000008 .L0 
C:\Users\stapi\AppData\Local\Temp\cc9dCqYX.s:839    .text.ieee80211_get_BSSID:0000000000000008 .L0 
C:\Users\stapi\AppData\Local\Temp\cc9dCqYX.s:840    .text.ieee80211_get_BSSID:0000000000000008 .L0 
C:\Users\stapi\AppData\Local\Temp\cc9dCqYX.s:842    .text.ieee80211_get_BSSID:000000000000000a .L0 
C:\Users\stapi\AppData\Local\Temp\cc9dCqYX.s:849    .text.ieee80211_get_BSSID:000000000000001c .L0 
C:\Users\stapi\AppData\Local\Temp\cc9dCqYX.s:854    .text.ieee80211_get_BSSID:000000000000001e .L0 
C:\Users\stapi\AppData\Local\Temp\cc9dCqYX.s:855    .text.ieee80211_get_BSSID:000000000000001e .L0 
C:\Users\stapi\AppData\Local\Temp\cc9dCqYX.s:858    .text.ieee80211_get_BSSID:0000000000000026 .L0 
C:\Users\stapi\AppData\Local\Temp\cc9dCqYX.s:860    .text.ieee80211_get_BSSID:0000000000000028 .L0 
C:\Users\stapi\AppData\Local\Temp\cc9dCqYX.s:862    .text.ieee80211_get_BSSID:000000000000002a .L0 
C:\Users\stapi\AppData\Local\Temp\cc9dCqYX.s:863    .text.ieee80211_get_BSSID:000000000000002a .L0 
C:\Users\stapi\AppData\Local\Temp\cc9dCqYX.s:869    .text.ieee80211_get_BSSID:000000000000002e .L0 
C:\Users\stapi\AppData\Local\Temp\cc9dCqYX.s:871    .text.ieee80211_get_BSSID:0000000000000038 .L0 
C:\Users\stapi\AppData\Local\Temp\cc9dCqYX.s:872    .text.ieee80211_get_BSSID:0000000000000038 .L0 
C:\Users\stapi\AppData\Local\Temp\cc9dCqYX.s:873    .text.ieee80211_get_BSSID:0000000000000038 .L0 
C:\Users\stapi\AppData\Local\Temp\cc9dCqYX.s:874    .text.ieee80211_get_BSSID:0000000000000038 .L0 
C:\Users\stapi\AppData\Local\Temp\cc9dCqYX.s:876    .text.ieee80211_get_BSSID:0000000000000038 .L0 
C:\Users\stapi\AppData\Local\Temp\cc9dCqYX.s:878    .text.ieee80211_get_BSSID:0000000000000038 .L0 
C:\Users\stapi\AppData\Local\Temp\cc9dCqYX.s:879    .text.ieee80211_get_BSSID:0000000000000038 .L0 
C:\Users\stapi\AppData\Local\Temp\cc9dCqYX.s:882    .text.ieee80211_get_BSSID:0000000000000040 .L0 
C:\Users\stapi\AppData\Local\Temp\cc9dCqYX.s:884    .text.ieee80211_get_BSSID:0000000000000044 .L0 
C:\Users\stapi\AppData\Local\Temp\cc9dCqYX.s:886    .text.ieee80211_get_BSSID:0000000000000046 .L0 
C:\Users\stapi\AppData\Local\Temp\cc9dCqYX.s:887    .text.ieee80211_get_BSSID:0000000000000046 .L0 
C:\Users\stapi\AppData\Local\Temp\cc9dCqYX.s:889    .text.ieee80211_get_BSSID:000000000000004c .L0 
C:\Users\stapi\AppData\Local\Temp\cc9dCqYX.s:896    .text.ieee80211_get_bssid:0000000000000000 ieee80211_get_bssid
C:\Users\stapi\AppData\Local\Temp\cc9dCqYX.s:899    .text.ieee80211_get_bssid:0000000000000000 .L0 
C:\Users\stapi\AppData\Local\Temp\cc9dCqYX.s:901    .text.ieee80211_get_bssid:0000000000000000 .L0 
C:\Users\stapi\AppData\Local\Temp\cc9dCqYX.s:902    .text.ieee80211_get_bssid:0000000000000008 .L0 
C:\Users\stapi\AppData\Local\Temp\cc9dCqYX.s:903    .text.ieee80211_get_bssid:0000000000000008 .L0 
C:\Users\stapi\AppData\Local\Temp\cc9dCqYX.s:904    .text.ieee80211_get_bssid:0000000000000008 .L0 
C:\Users\stapi\AppData\Local\Temp\cc9dCqYX.s:906    .text.ieee80211_get_bssid:0000000000000008 .L0 
C:\Users\stapi\AppData\Local\Temp\cc9dCqYX.s:907    .text.ieee80211_get_bssid:0000000000000008 .L0 
C:\Users\stapi\AppData\Local\Temp\cc9dCqYX.s:909    .text.ieee80211_get_bssid:000000000000000a .L0 
C:\Users\stapi\AppData\Local\Temp\cc9dCqYX.s:912    .text.ieee80211_get_bssid:0000000000000012 .L0 
C:\Users\stapi\AppData\Local\Temp\cc9dCqYX.s:913    .text.ieee80211_get_bssid:0000000000000012 .L0 
C:\Users\stapi\AppData\Local\Temp\cc9dCqYX.s:916    .text.ieee80211_get_bssid:0000000000000016 .L0 
C:\Users\stapi\AppData\Local\Temp\cc9dCqYX.s:922    .text.ieee80211_get_bssid:0000000000000022 .L0 
C:\Users\stapi\AppData\Local\Temp\cc9dCqYX.s:923    .text.ieee80211_get_bssid:0000000000000022 .L0 
C:\Users\stapi\AppData\Local\Temp\cc9dCqYX.s:926    .text.ieee80211_get_bssid:0000000000000024 .L0 
C:\Users\stapi\AppData\Local\Temp\cc9dCqYX.s:927    .text.ieee80211_get_bssid:000000000000002c .L0 
C:\Users\stapi\AppData\Local\Temp\cc9dCqYX.s:928    .text.ieee80211_get_bssid:000000000000002c .L0 
C:\Users\stapi\AppData\Local\Temp\cc9dCqYX.s:929    .text.ieee80211_get_bssid:000000000000002c .L0 
C:\Users\stapi\AppData\Local\Temp\cc9dCqYX.s:930    .text.ieee80211_get_bssid:000000000000002c .L0 
C:\Users\stapi\AppData\Local\Temp\cc9dCqYX.s:933    .text.ieee80211_get_bssid:000000000000002c .L0 
C:\Users\stapi\AppData\Local\Temp\cc9dCqYX.s:935    .text.ieee80211_get_bssid:000000000000002c .L0 
C:\Users\stapi\AppData\Local\Temp\cc9dCqYX.s:938    .text.ieee80211_get_bssid:0000000000000030 .L0 
C:\Users\stapi\AppData\Local\Temp\cc9dCqYX.s:945    .text.ieee80211_has_frags:0000000000000000 ieee80211_has_frags
C:\Users\stapi\AppData\Local\Temp\cc9dCqYX.s:948    .text.ieee80211_has_frags:0000000000000000 .L0 
C:\Users\stapi\AppData\Local\Temp\cc9dCqYX.s:950    .text.ieee80211_has_frags:0000000000000000 .L0 
C:\Users\stapi\AppData\Local\Temp\cc9dCqYX.s:951    .text.ieee80211_has_frags:0000000000000008 .L0 
C:\Users\stapi\AppData\Local\Temp\cc9dCqYX.s:952    .text.ieee80211_has_frags:0000000000000008 .L0 
C:\Users\stapi\AppData\Local\Temp\cc9dCqYX.s:953    .text.ieee80211_has_frags:0000000000000008 .L0 
C:\Users\stapi\AppData\Local\Temp\cc9dCqYX.s:955    .text.ieee80211_has_frags:0000000000000008 .L0 
C:\Users\stapi\AppData\Local\Temp\cc9dCqYX.s:956    .text.ieee80211_has_frags:0000000000000008 .L0 
C:\Users\stapi\AppData\Local\Temp\cc9dCqYX.s:958    .text.ieee80211_has_frags:000000000000000a .L0 
C:\Users\stapi\AppData\Local\Temp\cc9dCqYX.s:964    .text.ieee80211_has_frags:0000000000000018 .L0 
C:\Users\stapi\AppData\Local\Temp\cc9dCqYX.s:965    .text.ieee80211_has_frags:0000000000000018 .L0 
C:\Users\stapi\AppData\Local\Temp\cc9dCqYX.s:968    .text.ieee80211_has_frags:000000000000001a .L0 
C:\Users\stapi\AppData\Local\Temp\cc9dCqYX.s:970    .text.ieee80211_has_frags:0000000000000026 .L0 
C:\Users\stapi\AppData\Local\Temp\cc9dCqYX.s:971    .text.ieee80211_has_frags:0000000000000026 .L0 
C:\Users\stapi\AppData\Local\Temp\cc9dCqYX.s:972    .text.ieee80211_has_frags:0000000000000026 .L0 
C:\Users\stapi\AppData\Local\Temp\cc9dCqYX.s:973    .text.ieee80211_has_frags:0000000000000026 .L0 
C:\Users\stapi\AppData\Local\Temp\cc9dCqYX.s:980    .text.ieee80211_hdrlen:0000000000000000 ieee80211_hdrlen
C:\Users\stapi\AppData\Local\Temp\cc9dCqYX.s:983    .text.ieee80211_hdrlen:0000000000000000 .L0 
C:\Users\stapi\AppData\Local\Temp\cc9dCqYX.s:985    .text.ieee80211_hdrlen:0000000000000000 .L0 
C:\Users\stapi\AppData\Local\Temp\cc9dCqYX.s:986    .text.ieee80211_hdrlen:0000000000000008 .L0 
C:\Users\stapi\AppData\Local\Temp\cc9dCqYX.s:987    .text.ieee80211_hdrlen:0000000000000008 .L0 
C:\Users\stapi\AppData\Local\Temp\cc9dCqYX.s:988    .text.ieee80211_hdrlen:0000000000000008 .L0 
C:\Users\stapi\AppData\Local\Temp\cc9dCqYX.s:989    .text.ieee80211_hdrlen:0000000000000008 .L0 
C:\Users\stapi\AppData\Local\Temp\cc9dCqYX.s:992    .text.ieee80211_hdrlen:0000000000000008 .L0 
C:\Users\stapi\AppData\Local\Temp\cc9dCqYX.s:993    .text.ieee80211_hdrlen:0000000000000008 .L0 
C:\Users\stapi\AppData\Local\Temp\cc9dCqYX.s:994    .text.ieee80211_hdrlen:0000000000000008 .L0 
C:\Users\stapi\AppData\Local\Temp\cc9dCqYX.s:996    .text.ieee80211_hdrlen:000000000000000a .L0 
C:\Users\stapi\AppData\Local\Temp\cc9dCqYX.s:999    .text.ieee80211_hdrlen:0000000000000012 .L0 
C:\Users\stapi\AppData\Local\Temp\cc9dCqYX.s:1001   .text.ieee80211_hdrlen:0000000000000014 .L0 
C:\Users\stapi\AppData\Local\Temp\cc9dCqYX.s:1002   .text.ieee80211_hdrlen:0000000000000014 .L0 
C:\Users\stapi\AppData\Local\Temp\cc9dCqYX.s:1006   .text.ieee80211_hdrlen:000000000000001e .L0 
C:\Users\stapi\AppData\Local\Temp\cc9dCqYX.s:1008   .text.ieee80211_hdrlen:0000000000000020 .L0 
C:\Users\stapi\AppData\Local\Temp\cc9dCqYX.s:1010   .text.ieee80211_hdrlen:0000000000000022 .L0 
C:\Users\stapi\AppData\Local\Temp\cc9dCqYX.s:1014   .text.ieee80211_hdrlen:0000000000000024 .L0 
C:\Users\stapi\AppData\Local\Temp\cc9dCqYX.s:1015   .text.ieee80211_hdrlen:0000000000000024 .L0 
C:\Users\stapi\AppData\Local\Temp\cc9dCqYX.s:1019   .text.ieee80211_hdrlen:000000000000002e .L0 
C:\Users\stapi\AppData\Local\Temp\cc9dCqYX.s:1022   .text.ieee80211_hdrlen:0000000000000030 .L0 
C:\Users\stapi\AppData\Local\Temp\cc9dCqYX.s:1023   .text.ieee80211_hdrlen:0000000000000030 .L0 
C:\Users\stapi\AppData\Local\Temp\cc9dCqYX.s:1024   .text.ieee80211_hdrlen:0000000000000030 .L0 
C:\Users\stapi\AppData\Local\Temp\cc9dCqYX.s:1028   .text.ieee80211_hdrlen:000000000000003a .L0 
C:\Users\stapi\AppData\Local\Temp\cc9dCqYX.s:1030   .text.ieee80211_hdrlen:000000000000003c .L0 
C:\Users\stapi\AppData\Local\Temp\cc9dCqYX.s:1034   .text.ieee80211_hdrlen:000000000000003e .L0 
C:\Users\stapi\AppData\Local\Temp\cc9dCqYX.s:1035   .text.ieee80211_hdrlen:000000000000003e .L0 
C:\Users\stapi\AppData\Local\Temp\cc9dCqYX.s:1037   .text.ieee80211_hdrlen:0000000000000048 .L0 
C:\Users\stapi\AppData\Local\Temp\cc9dCqYX.s:1038   .text.ieee80211_hdrlen:0000000000000048 .L0 
C:\Users\stapi\AppData\Local\Temp\cc9dCqYX.s:1039   .text.ieee80211_hdrlen:0000000000000048 .L0 
C:\Users\stapi\AppData\Local\Temp\cc9dCqYX.s:1040   .text.ieee80211_hdrlen:0000000000000048 .L0 
C:\Users\stapi\AppData\Local\Temp\cc9dCqYX.s:1041   .text.ieee80211_hdrlen:0000000000000048 .L0 
C:\Users\stapi\AppData\Local\Temp\cc9dCqYX.s:1044   .text.ieee80211_hdrlen:0000000000000048 .L0 
C:\Users\stapi\AppData\Local\Temp\cc9dCqYX.s:1046   .text.ieee80211_hdrlen:0000000000000048 .L0 
C:\Users\stapi\AppData\Local\Temp\cc9dCqYX.s:1047   .text.ieee80211_hdrlen:0000000000000048 .L0 
C:\Users\stapi\AppData\Local\Temp\cc9dCqYX.s:1053   .text.ieee80211_hdrlen:000000000000004c .L0 
C:\Users\stapi\AppData\Local\Temp\cc9dCqYX.s:1054   .text.ieee80211_hdrlen:000000000000004c .L0 
C:\Users\stapi\AppData\Local\Temp\cc9dCqYX.s:1058   .text.ieee80211_hdrlen:0000000000000056 .L0 
C:\Users\stapi\AppData\Local\Temp\cc9dCqYX.s:1060   .text.ieee80211_hdrlen:0000000000000058 .L0 
C:\Users\stapi\AppData\Local\Temp\cc9dCqYX.s:1062   .text.ieee80211_hdrlen:000000000000005a .L0 
C:\Users\stapi\AppData\Local\Temp\cc9dCqYX.s:1063   .text.ieee80211_hdrlen:000000000000005a .L0 
C:\Users\stapi\AppData\Local\Temp\cc9dCqYX.s:1067   .text.ieee80211_hdrlen:0000000000000066 .L0 
C:\Users\stapi\AppData\Local\Temp\cc9dCqYX.s:1069   .text.ieee80211_hdrlen:0000000000000068 .L0 
C:\Users\stapi\AppData\Local\Temp\cc9dCqYX.s:1073   .text.ieee80211_hdrlen:0000000000000074 .L0 
C:\Users\stapi\AppData\Local\Temp\cc9dCqYX.s:1075   .text.ieee80211_hdrlen:0000000000000076 .L0 
C:\Users\stapi\AppData\Local\Temp\cc9dCqYX.s:1077   .text.ieee80211_hdrlen:000000000000007a .L0 
C:\Users\stapi\AppData\Local\Temp\cc9dCqYX.s:1079   .text.ieee80211_hdrlen:000000000000007e .L0 
C:\Users\stapi\AppData\Local\Temp\cc9dCqYX.s:1086   .text.ieee80211_get_radiotap_len:0000000000000000 ieee80211_get_radiotap_len
C:\Users\stapi\AppData\Local\Temp\cc9dCqYX.s:1089   .text.ieee80211_get_radiotap_len:0000000000000000 .L0 
C:\Users\stapi\AppData\Local\Temp\cc9dCqYX.s:1091   .text.ieee80211_get_radiotap_len:0000000000000000 .L0 
C:\Users\stapi\AppData\Local\Temp\cc9dCqYX.s:1092   .text.ieee80211_get_radiotap_len:0000000000000000 .L0 
C:\Users\stapi\AppData\Local\Temp\cc9dCqYX.s:1093   .text.ieee80211_get_radiotap_len:0000000000000000 .L0 
C:\Users\stapi\AppData\Local\Temp\cc9dCqYX.s:1094   .text.ieee80211_get_radiotap_len:0000000000000000 .L0 
C:\Users\stapi\AppData\Local\Temp\cc9dCqYX.s:1098   .text.ieee80211_get_radiotap_len:000000000000000a .L0 
C:\Users\stapi\AppData\Local\Temp\cc9dCqYX.s:1105   .text.ieee80211_is_invalid_pkg:0000000000000000 ieee80211_is_invalid_pkg
C:\Users\stapi\AppData\Local\Temp\cc9dCqYX.s:1108   .text.ieee80211_is_invalid_pkg:0000000000000000 .L0 
C:\Users\stapi\AppData\Local\Temp\cc9dCqYX.s:1110   .text.ieee80211_is_invalid_pkg:0000000000000000 .L0 
C:\Users\stapi\AppData\Local\Temp\cc9dCqYX.s:1111   .text.ieee80211_is_invalid_pkg:0000000000000000 .L0 
C:\Users\stapi\AppData\Local\Temp\cc9dCqYX.s:1112   .text.ieee80211_is_invalid_pkg:0000000000000000 .L0 
C:\Users\stapi\AppData\Local\Temp\cc9dCqYX.s:1115   .text.ieee80211_is_invalid_pkg:0000000000000004 .L0 
C:\Users\stapi\AppData\Local\Temp\cc9dCqYX.s:1117   .text.ieee80211_is_invalid_pkg:0000000000000008 .L0 
C:\Users\stapi\AppData\Local\Temp\cc9dCqYX.s:1119   .text.ieee80211_is_invalid_pkg:000000000000000e .L0 
C:\Users\stapi\AppData\Local\Temp\cc9dCqYX.s:1126   .text.cfg80211_find_ie:0000000000000000 cfg80211_find_ie
C:\Users\stapi\AppData\Local\Temp\cc9dCqYX.s:1129   .text.cfg80211_find_ie:0000000000000000 .L0 
C:\Users\stapi\AppData\Local\Temp\cc9dCqYX.s:1131   .text.cfg80211_find_ie:0000000000000000 .L0 
C:\Users\stapi\AppData\Local\Temp\cc9dCqYX.s:1132   .text.cfg80211_find_ie:0000000000000000 .L0 
C:\Users\stapi\AppData\Local\Temp\cc9dCqYX.s:1133   .text.cfg80211_find_ie:0000000000000000 .L0 
C:\Users\stapi\AppData\Local\Temp\cc9dCqYX.s:1135   .text.cfg80211_find_ie:0000000000000002 .L0 
C:\Users\stapi\AppData\Local\Temp\cc9dCqYX.s:1140   .text.cfg80211_find_ie:0000000000000006 .L0 
C:\Users\stapi\AppData\Local\Temp\cc9dCqYX.s:1142   .text.cfg80211_find_ie:000000000000000a .L0 
C:\Users\stapi\AppData\Local\Temp\cc9dCqYX.s:1144   .text.cfg80211_find_ie:000000000000000e .L0 
C:\Users\stapi\AppData\Local\Temp\cc9dCqYX.s:1146   .text.cfg80211_find_ie:0000000000000012 .L0 
C:\Users\stapi\AppData\Local\Temp\cc9dCqYX.s:1149   .text.cfg80211_find_ie:0000000000000016 .L0 
C:\Users\stapi\AppData\Local\Temp\cc9dCqYX.s:1150   .text.cfg80211_find_ie:0000000000000016 .L0 
C:\Users\stapi\AppData\Local\Temp\cc9dCqYX.s:1152   .text.cfg80211_find_ie:000000000000001a .L0 
C:\Users\stapi\AppData\Local\Temp\cc9dCqYX.s:1154   .text.cfg80211_find_ie:000000000000001c .L0 
C:\Users\stapi\AppData\Local\Temp\cc9dCqYX.s:1158   .text.cfg80211_find_ie:0000000000000020 .L0 
C:\Users\stapi\AppData\Local\Temp\cc9dCqYX.s:1162   .text.cfg80211_find_ie:0000000000000022 .L0 
C:\Users\stapi\AppData\Local\Temp\cc9dCqYX.s:1163   .text.cfg80211_find_ie:0000000000000022 .L0 
C:\Users\stapi\AppData\Local\Temp\cc9dCqYX.s:1165   .text.cfg80211_find_ie:0000000000000024 .L0 
C:\Users\stapi\AppData\Local\Temp\cc9dCqYX.s:1168   .text.cfg80211_find_ie:0000000000000026 .L0 
C:\Users\stapi\AppData\Local\Temp\cc9dCqYX.s:1169   .text.cfg80211_find_ie:0000000000000026 .L0 
C:\Users\stapi\AppData\Local\Temp\cc9dCqYX.s:1174   .text.cfg80211_find_ie:000000000000002a .L0 
C:\Users\stapi\AppData\Local\Temp\cc9dCqYX.s:1175   .text.cfg80211_find_ie:000000000000002a .L0 
C:\Users\stapi\AppData\Local\Temp\cc9dCqYX.s:1178   .text.cfg80211_find_ie:000000000000002e .L0 
C:\Users\stapi\AppData\Local\Temp\cc9dCqYX.s:1181   .text.cfg80211_find_ie:0000000000000032 .L0 
C:\Users\stapi\AppData\Local\Temp\cc9dCqYX.s:1188   .text.cfg80211_find_vendor_ie:0000000000000000 cfg80211_find_vendor_ie
C:\Users\stapi\AppData\Local\Temp\cc9dCqYX.s:1191   .text.cfg80211_find_vendor_ie:0000000000000000 .L0 
C:\Users\stapi\AppData\Local\Temp\cc9dCqYX.s:1193   .text.cfg80211_find_vendor_ie:0000000000000000 .L0 
C:\Users\stapi\AppData\Local\Temp\cc9dCqYX.s:1194   .text.cfg80211_find_vendor_ie:0000000000000008 .L0 
C:\Users\stapi\AppData\Local\Temp\cc9dCqYX.s:1195   .text.cfg80211_find_vendor_ie:0000000000000008 .L0 
C:\Users\stapi\AppData\Local\Temp\cc9dCqYX.s:1196   .text.cfg80211_find_vendor_ie:0000000000000008 .L0 
C:\Users\stapi\AppData\Local\Temp\cc9dCqYX.s:1197   .text.cfg80211_find_vendor_ie:0000000000000008 .L0 
C:\Users\stapi\AppData\Local\Temp\cc9dCqYX.s:1198   .text.cfg80211_find_vendor_ie:0000000000000008 .L0 
C:\Users\stapi\AppData\Local\Temp\cc9dCqYX.s:1199   .text.cfg80211_find_vendor_ie:0000000000000008 .L0 
C:\Users\stapi\AppData\Local\Temp\cc9dCqYX.s:1201   .text.cfg80211_find_vendor_ie:0000000000000008 .L0 
C:\Users\stapi\AppData\Local\Temp\cc9dCqYX.s:1203   .text.cfg80211_find_vendor_ie:0000000000000008 .L0 
C:\Users\stapi\AppData\Local\Temp\cc9dCqYX.s:1204   .text.cfg80211_find_vendor_ie:0000000000000008 .L0 
C:\Users\stapi\AppData\Local\Temp\cc9dCqYX.s:1209   .text.cfg80211_find_vendor_ie:000000000000000e .L0 
C:\Users\stapi\AppData\Local\Temp\cc9dCqYX.s:1212   .text.cfg80211_find_vendor_ie:0000000000000012 .L0 
C:\Users\stapi\AppData\Local\Temp\cc9dCqYX.s:1213   .text.cfg80211_find_vendor_ie:0000000000000012 .L0 
C:\Users\stapi\AppData\Local\Temp\cc9dCqYX.s:1214   .text.cfg80211_find_vendor_ie:0000000000000012 .L0 
C:\Users\stapi\AppData\Local\Temp\cc9dCqYX.s:1218   .text.cfg80211_find_vendor_ie:0000000000000014 .L0 
C:\Users\stapi\AppData\Local\Temp\cc9dCqYX.s:1220   .text.cfg80211_find_vendor_ie:0000000000000018 .L0 
C:\Users\stapi\AppData\Local\Temp\cc9dCqYX.s:1224   .text.cfg80211_find_vendor_ie:000000000000001a .L0 
C:\Users\stapi\AppData\Local\Temp\cc9dCqYX.s:1225   .text.cfg80211_find_vendor_ie:0000000000000022 .L0 
C:\Users\stapi\AppData\Local\Temp\cc9dCqYX.s:1226   .text.cfg80211_find_vendor_ie:0000000000000022 .L0 
C:\Users\stapi\AppData\Local\Temp\cc9dCqYX.s:1227   .text.cfg80211_find_vendor_ie:0000000000000022 .L0 
C:\Users\stapi\AppData\Local\Temp\cc9dCqYX.s:1228   .text.cfg80211_find_vendor_ie:0000000000000022 .L0 
C:\Users\stapi\AppData\Local\Temp\cc9dCqYX.s:1229   .text.cfg80211_find_vendor_ie:0000000000000022 .L0 
C:\Users\stapi\AppData\Local\Temp\cc9dCqYX.s:1230   .text.cfg80211_find_vendor_ie:0000000000000022 .L0 
C:\Users\stapi\AppData\Local\Temp\cc9dCqYX.s:1231   .text.cfg80211_find_vendor_ie:0000000000000022 .L0 
C:\Users\stapi\AppData\Local\Temp\cc9dCqYX.s:1234   .text.cfg80211_find_vendor_ie:0000000000000022 .L0 
C:\Users\stapi\AppData\Local\Temp\cc9dCqYX.s:1236   .text.cfg80211_find_vendor_ie:0000000000000022 .L0 
C:\Users\stapi\AppData\Local\Temp\cc9dCqYX.s:1237   .text.cfg80211_find_vendor_ie:0000000000000022 .L0 
C:\Users\stapi\AppData\Local\Temp\cc9dCqYX.s:1242   .text.cfg80211_find_vendor_ie:0000000000000032 .L0 
C:\Users\stapi\AppData\Local\Temp\cc9dCqYX.s:1243   .text.cfg80211_find_vendor_ie:0000000000000032 .L0 
C:\Users\stapi\AppData\Local\Temp\cc9dCqYX.s:1246   .text.cfg80211_find_vendor_ie:0000000000000034 .L0 
C:\Users\stapi\AppData\Local\Temp\cc9dCqYX.s:1247   .text.cfg80211_find_vendor_ie:0000000000000034 .L0 
C:\Users\stapi\AppData\Local\Temp\cc9dCqYX.s:1248   .text.cfg80211_find_vendor_ie:0000000000000034 .L0 
C:\Users\stapi\AppData\Local\Temp\cc9dCqYX.s:1250   .text.cfg80211_find_vendor_ie:0000000000000038 .L0 
C:\Users\stapi\AppData\Local\Temp\cc9dCqYX.s:1253   .text.cfg80211_find_vendor_ie:000000000000003c .L0 
C:\Users\stapi\AppData\Local\Temp\cc9dCqYX.s:1254   .text.cfg80211_find_vendor_ie:000000000000003c .L0 
C:\Users\stapi\AppData\Local\Temp\cc9dCqYX.s:1255   .text.cfg80211_find_vendor_ie:000000000000003c .L0 
C:\Users\stapi\AppData\Local\Temp\cc9dCqYX.s:1257   .text.cfg80211_find_vendor_ie:0000000000000040 .L0 
C:\Users\stapi\AppData\Local\Temp\cc9dCqYX.s:1259   .text.cfg80211_find_vendor_ie:0000000000000044 .L0 
C:\Users\stapi\AppData\Local\Temp\cc9dCqYX.s:1261   .text.cfg80211_find_vendor_ie:0000000000000046 .L0 
C:\Users\stapi\AppData\Local\Temp\cc9dCqYX.s:1263   .text.cfg80211_find_vendor_ie:0000000000000048 .L0 
C:\Users\stapi\AppData\Local\Temp\cc9dCqYX.s:1265   .text.cfg80211_find_vendor_ie:000000000000004a .L0 
C:\Users\stapi\AppData\Local\Temp\cc9dCqYX.s:1267   .text.cfg80211_find_vendor_ie:000000000000004e .L0 
C:\Users\stapi\AppData\Local\Temp\cc9dCqYX.s:1269   .text.cfg80211_find_vendor_ie:0000000000000050 .L0 
C:\Users\stapi\AppData\Local\Temp\cc9dCqYX.s:1271   .text.cfg80211_find_vendor_ie:0000000000000054 .L0 
C:\Users\stapi\AppData\Local\Temp\cc9dCqYX.s:1276   .text.cfg80211_find_vendor_ie:000000000000005c .L0 
C:\Users\stapi\AppData\Local\Temp\cc9dCqYX.s:1277   .text.cfg80211_find_vendor_ie:000000000000005c .L0 
C:\Users\stapi\AppData\Local\Temp\cc9dCqYX.s:1279   .text.cfg80211_find_vendor_ie:000000000000005e .L0 
C:\Users\stapi\AppData\Local\Temp\cc9dCqYX.s:1282   .text.cfg80211_find_vendor_ie:0000000000000064 .L0 
C:\Users\stapi\AppData\Local\Temp\cc9dCqYX.s:1289   .text.ieee80211_get_ssid:0000000000000000 ieee80211_get_ssid
C:\Users\stapi\AppData\Local\Temp\cc9dCqYX.s:1292   .text.ieee80211_get_ssid:0000000000000000 .L0 
C:\Users\stapi\AppData\Local\Temp\cc9dCqYX.s:1294   .text.ieee80211_get_ssid:0000000000000000 .L0 
C:\Users\stapi\AppData\Local\Temp\cc9dCqYX.s:1295   .text.ieee80211_get_ssid:0000000000000008 .L0 
C:\Users\stapi\AppData\Local\Temp\cc9dCqYX.s:1296   .text.ieee80211_get_ssid:0000000000000008 .L0 
C:\Users\stapi\AppData\Local\Temp\cc9dCqYX.s:1297   .text.ieee80211_get_ssid:0000000000000008 .L0 
C:\Users\stapi\AppData\Local\Temp\cc9dCqYX.s:1298   .text.ieee80211_get_ssid:0000000000000008 .L0 
C:\Users\stapi\AppData\Local\Temp\cc9dCqYX.s:1301   .text.ieee80211_get_ssid:0000000000000008 .L0 
C:\Users\stapi\AppData\Local\Temp\cc9dCqYX.s:1302   .text.ieee80211_get_ssid:0000000000000008 .L0 
C:\Users\stapi\AppData\Local\Temp\cc9dCqYX.s:1303   .text.ieee80211_get_ssid:0000000000000008 .L0 
C:\Users\stapi\AppData\Local\Temp\cc9dCqYX.s:1305   .text.ieee80211_get_ssid:000000000000000a .L0 
C:\Users\stapi\AppData\Local\Temp\cc9dCqYX.s:1314   .text.ieee80211_get_ssid:000000000000001c .L0 
C:\Users\stapi\AppData\Local\Temp\cc9dCqYX.s:1315   .text.ieee80211_get_ssid:000000000000001c .L0 
C:\Users\stapi\AppData\Local\Temp\cc9dCqYX.s:1318   .text.ieee80211_get_ssid:000000000000001e .L0 
C:\Users\stapi\AppData\Local\Temp\cc9dCqYX.s:1320   .text.ieee80211_get_ssid:0000000000000022 .L0 
C:\Users\stapi\AppData\Local\Temp\cc9dCqYX.s:1324   .text.ieee80211_get_ssid:0000000000000028 .L0 
C:\Users\stapi\AppData\Local\Temp\cc9dCqYX.s:1326   .text.ieee80211_get_ssid:0000000000000028 .L0 
C:\Users\stapi\AppData\Local\Temp\cc9dCqYX.s:1327   .text.ieee80211_get_ssid:0000000000000028 .L0 
C:\Users\stapi\AppData\Local\Temp\cc9dCqYX.s:1331   .text.ieee80211_get_ssid:000000000000002a .L0 
C:\Users\stapi\AppData\Local\Temp\cc9dCqYX.s:1333   .text.ieee80211_get_ssid:000000000000002e .L0 
C:\Users\stapi\AppData\Local\Temp\cc9dCqYX.s:1340   .text.ieee80211_get_ssid:000000000000003c .L0 
C:\Users\stapi\AppData\Local\Temp\cc9dCqYX.s:1341   .text.ieee80211_get_ssid:000000000000003c .L0 
C:\Users\stapi\AppData\Local\Temp\cc9dCqYX.s:1345   .text.ieee80211_get_ssid:0000000000000042 .L0 
C:\Users\stapi\AppData\Local\Temp\cc9dCqYX.s:1346   .text.ieee80211_get_ssid:0000000000000042 .L0 
C:\Users\stapi\AppData\Local\Temp\cc9dCqYX.s:1351   .text.ieee80211_get_ssid:0000000000000044 .L0 
C:\Users\stapi\AppData\Local\Temp\cc9dCqYX.s:1352   .text.ieee80211_get_ssid:000000000000004c .L0 
C:\Users\stapi\AppData\Local\Temp\cc9dCqYX.s:1353   .text.ieee80211_get_ssid:000000000000004c .L0 
C:\Users\stapi\AppData\Local\Temp\cc9dCqYX.s:1354   .text.ieee80211_get_ssid:000000000000004c .L0 
C:\Users\stapi\AppData\Local\Temp\cc9dCqYX.s:1355   .text.ieee80211_get_ssid:000000000000004c .L0 
C:\Users\stapi\AppData\Local\Temp\cc9dCqYX.s:1356   .text.ieee80211_get_ssid:000000000000004c .L0 
C:\Users\stapi\AppData\Local\Temp\cc9dCqYX.s:1359   .text.ieee80211_get_ssid:000000000000004c .L0 
C:\Users\stapi\AppData\Local\Temp\cc9dCqYX.s:1361   .text.ieee80211_get_ssid:000000000000004c .L0 
C:\Users\stapi\AppData\Local\Temp\cc9dCqYX.s:1364   .text.ieee80211_get_ssid:0000000000000050 .L0 
C:\Users\stapi\AppData\Local\Temp\cc9dCqYX.s:1371   .text.cfg80211_get_bss_channel:0000000000000000 cfg80211_get_bss_channel
C:\Users\stapi\AppData\Local\Temp\cc9dCqYX.s:1374   .text.cfg80211_get_bss_channel:0000000000000000 .L0 
C:\Users\stapi\AppData\Local\Temp\cc9dCqYX.s:1376   .text.cfg80211_get_bss_channel:0000000000000000 .L0 
C:\Users\stapi\AppData\Local\Temp\cc9dCqYX.s:1377   .text.cfg80211_get_bss_channel:0000000000000008 .L0 
C:\Users\stapi\AppData\Local\Temp\cc9dCqYX.s:1378   .text.cfg80211_get_bss_channel:0000000000000008 .L0 
C:\Users\stapi\AppData\Local\Temp\cc9dCqYX.s:1381   .text.cfg80211_get_bss_channel:0000000000000008 .L0 
C:\Users\stapi\AppData\Local\Temp\cc9dCqYX.s:1382   .text.cfg80211_get_bss_channel:0000000000000008 .L0 
C:\Users\stapi\AppData\Local\Temp\cc9dCqYX.s:1383   .text.cfg80211_get_bss_channel:0000000000000008 .L0 
C:\Users\stapi\AppData\Local\Temp\cc9dCqYX.s:1385   .text.cfg80211_get_bss_channel:000000000000000c .L0 
C:\Users\stapi\AppData\Local\Temp\cc9dCqYX.s:1387   .text.cfg80211_get_bss_channel:000000000000000c .L0 
C:\Users\stapi\AppData\Local\Temp\cc9dCqYX.s:1390   .text.cfg80211_get_bss_channel:0000000000000010 .L0 
C:\Users\stapi\AppData\Local\Temp\cc9dCqYX.s:1391   .text.cfg80211_get_bss_channel:0000000000000010 .L0 
C:\Users\stapi\AppData\Local\Temp\cc9dCqYX.s:1392   .text.cfg80211_get_bss_channel:0000000000000010 .L0 
C:\Users\stapi\AppData\Local\Temp\cc9dCqYX.s:1393   .text.cfg80211_get_bss_channel:0000000000000010 .L0 
C:\Users\stapi\AppData\Local\Temp\cc9dCqYX.s:1394   .text.cfg80211_get_bss_channel:0000000000000010 .L0 
C:\Users\stapi\AppData\Local\Temp\cc9dCqYX.s:1397   .text.cfg80211_get_bss_channel:0000000000000014 .L0 
C:\Users\stapi\AppData\Local\Temp\cc9dCqYX.s:1405   .text.cfg80211_get_bss_channel:0000000000000026 .L0 
C:\Users\stapi\AppData\Local\Temp\cc9dCqYX.s:1406   .text.cfg80211_get_bss_channel:0000000000000026 .L0 
C:\Users\stapi\AppData\Local\Temp\cc9dCqYX.s:1410   .text.cfg80211_get_bss_channel:000000000000002c .L0 
C:\Users\stapi\AppData\Local\Temp\cc9dCqYX.s:1414   .text.cfg80211_get_bss_channel:0000000000000036 .L0 
C:\Users\stapi\AppData\Local\Temp\cc9dCqYX.s:1415   .text.cfg80211_get_bss_channel:0000000000000036 .L0 
C:\Users\stapi\AppData\Local\Temp\cc9dCqYX.s:1419   .text.cfg80211_get_bss_channel:000000000000003a .L0 
C:\Users\stapi\AppData\Local\Temp\cc9dCqYX.s:1420   .text.cfg80211_get_bss_channel:000000000000003c .L0 
C:\Users\stapi\AppData\Local\Temp\cc9dCqYX.s:1421   .text.cfg80211_get_bss_channel:000000000000003c .L0 
C:\Users\stapi\AppData\Local\Temp\cc9dCqYX.s:1424   .text.cfg80211_get_bss_channel:0000000000000044 .L0 
C:\Users\stapi\AppData\Local\Temp\cc9dCqYX.s:1425   .text.cfg80211_get_bss_channel:0000000000000044 .L0 
C:\Users\stapi\AppData\Local\Temp\cc9dCqYX.s:1428   .text.cfg80211_get_bss_channel:0000000000000044 .L0 
C:\Users\stapi\AppData\Local\Temp\cc9dCqYX.s:1430   .text.cfg80211_get_bss_channel:0000000000000044 .L0 
C:\Users\stapi\AppData\Local\Temp\cc9dCqYX.s:1431   .text.cfg80211_get_bss_channel:0000000000000044 .L0 
C:\Users\stapi\AppData\Local\Temp\cc9dCqYX.s:1438   .text.cfg80211_get_bss_channel:0000000000000052 .L0 
C:\Users\stapi\AppData\Local\Temp\cc9dCqYX.s:1439   .text.cfg80211_get_bss_channel:0000000000000052 .L0 
C:\Users\stapi\AppData\Local\Temp\cc9dCqYX.s:1442   .text.cfg80211_get_bss_channel:0000000000000054 .L0 
C:\Users\stapi\AppData\Local\Temp\cc9dCqYX.s:1444   .text.cfg80211_get_bss_channel:0000000000000056 .L0 
C:\Users\stapi\AppData\Local\Temp\cc9dCqYX.s:1450   .text.cfg80211_get_bss_channel:0000000000000060 .L0 
C:\Users\stapi\AppData\Local\Temp\cc9dCqYX.s:1451   .text.cfg80211_get_bss_channel:0000000000000060 .L0 
C:\Users\stapi\AppData\Local\Temp\cc9dCqYX.s:1452   .text.cfg80211_get_bss_channel:0000000000000060 .L0 
C:\Users\stapi\AppData\Local\Temp\cc9dCqYX.s:1456   .text.cfg80211_get_bss_channel:0000000000000066 .L0 
C:\Users\stapi\AppData\Local\Temp\cc9dCqYX.s:1463   .text.cfg80211_parse_wpa_info:0000000000000000 cfg80211_parse_wpa_info
C:\Users\stapi\AppData\Local\Temp\cc9dCqYX.s:1466   .text.cfg80211_parse_wpa_info:0000000000000000 .L0 
C:\Users\stapi\AppData\Local\Temp\cc9dCqYX.s:1468   .text.cfg80211_parse_wpa_info:0000000000000000 .L0 
C:\Users\stapi\AppData\Local\Temp\cc9dCqYX.s:1469   .text.cfg80211_parse_wpa_info:0000000000000000 .L0 
C:\Users\stapi\AppData\Local\Temp\cc9dCqYX.s:1470   .text.cfg80211_parse_wpa_info:0000000000000000 .L0 
C:\Users\stapi\AppData\Local\Temp\cc9dCqYX.s:1471   .text.cfg80211_parse_wpa_info:0000000000000000 .L0 
C:\Users\stapi\AppData\Local\Temp\cc9dCqYX.s:1472   .text.cfg80211_parse_wpa_info:0000000000000000 .L0 
C:\Users\stapi\AppData\Local\Temp\cc9dCqYX.s:1473   .text.cfg80211_parse_wpa_info:0000000000000000 .L0 
C:\Users\stapi\AppData\Local\Temp\cc9dCqYX.s:1475   .text.cfg80211_parse_wpa_info:0000000000000004 .L0 
C:\Users\stapi\AppData\Local\Temp\cc9dCqYX.s:1478   .text.cfg80211_parse_wpa_info:0000000000000006 .L0 
C:\Users\stapi\AppData\Local\Temp\cc9dCqYX.s:1482   .text.cfg80211_parse_wpa_info:0000000000000008 .L0 
C:\Users\stapi\AppData\Local\Temp\cc9dCqYX.s:1483   .text.cfg80211_parse_wpa_info:0000000000000010 .L0 
C:\Users\stapi\AppData\Local\Temp\cc9dCqYX.s:1484   .text.cfg80211_parse_wpa_info:0000000000000010 .L0 
C:\Users\stapi\AppData\Local\Temp\cc9dCqYX.s:1485   .text.cfg80211_parse_wpa_info:0000000000000010 .L0 
C:\Users\stapi\AppData\Local\Temp\cc9dCqYX.s:1486   .text.cfg80211_parse_wpa_info:0000000000000010 .L0 
C:\Users\stapi\AppData\Local\Temp\cc9dCqYX.s:1487   .text.cfg80211_parse_wpa_info:0000000000000010 .L0 
C:\Users\stapi\AppData\Local\Temp\cc9dCqYX.s:1488   .text.cfg80211_parse_wpa_info:0000000000000010 .L0 
C:\Users\stapi\AppData\Local\Temp\cc9dCqYX.s:1489   .text.cfg80211_parse_wpa_info:0000000000000010 .L0 
C:\Users\stapi\AppData\Local\Temp\cc9dCqYX.s:1490   .text.cfg80211_parse_wpa_info:0000000000000010 .L0 
C:\Users\stapi\AppData\Local\Temp\cc9dCqYX.s:1491   .text.cfg80211_parse_wpa_info:0000000000000010 .L0 
C:\Users\stapi\AppData\Local\Temp\cc9dCqYX.s:1494   .text.cfg80211_parse_wpa_info:0000000000000012 .L0 
C:\Users\stapi\AppData\Local\Temp\cc9dCqYX.s:1495   .text.cfg80211_parse_wpa_info:0000000000000012 .L0 
C:\Users\stapi\AppData\Local\Temp\cc9dCqYX.s:1498   .text.cfg80211_parse_wpa_info:0000000000000016 .L0 
C:\Users\stapi\AppData\Local\Temp\cc9dCqYX.s:1500   .text.cfg80211_parse_wpa_info:000000000000001a .L0 
C:\Users\stapi\AppData\Local\Temp\cc9dCqYX.s:1506   .text.cfg80211_parse_wpa_info:0000000000000026 .L0 
C:\Users\stapi\AppData\Local\Temp\cc9dCqYX.s:1508   .text.cfg80211_parse_wpa_info:000000000000002a .L0 
C:\Users\stapi\AppData\Local\Temp\cc9dCqYX.s:1512   .text.cfg80211_parse_wpa_info:000000000000002e .L0 
C:\Users\stapi\AppData\Local\Temp\cc9dCqYX.s:1513   .text.cfg80211_parse_wpa_info:000000000000002e .L0 
C:\Users\stapi\AppData\Local\Temp\cc9dCqYX.s:1514   .text.cfg80211_parse_wpa_info:000000000000002e .L0 
C:\Users\stapi\AppData\Local\Temp\cc9dCqYX.s:1517   .text.cfg80211_parse_wpa_info:0000000000000032 .L0 
C:\Users\stapi\AppData\Local\Temp\cc9dCqYX.s:1518   .text.cfg80211_parse_wpa_info:0000000000000032 .L0 
C:\Users\stapi\AppData\Local\Temp\cc9dCqYX.s:1519   .text.cfg80211_parse_wpa_info:0000000000000032 .L0 
C:\Users\stapi\AppData\Local\Temp\cc9dCqYX.s:1521   .text.cfg80211_parse_wpa_info:0000000000000036 .L0 
C:\Users\stapi\AppData\Local\Temp\cc9dCqYX.s:1525   .text.cfg80211_parse_wpa_info:000000000000003a .L0 
C:\Users\stapi\AppData\Local\Temp\cc9dCqYX.s:1526   .text.cfg80211_parse_wpa_info:000000000000003a .L0 
C:\Users\stapi\AppData\Local\Temp\cc9dCqYX.s:1529   .text.cfg80211_parse_wpa_info:0000000000000042 .L0 
C:\Users\stapi\AppData\Local\Temp\cc9dCqYX.s:1531   .text.cfg80211_parse_wpa_info:0000000000000046 .L0 
C:\Users\stapi\AppData\Local\Temp\cc9dCqYX.s:1532   .text.cfg80211_parse_wpa_info:0000000000000046 .L0 
C:\Users\stapi\AppData\Local\Temp\cc9dCqYX.s:1535   .text.cfg80211_parse_wpa_info:000000000000004a .L0 
C:\Users\stapi\AppData\Local\Temp\cc9dCqYX.s:1536   .text.cfg80211_parse_wpa_info:000000000000004a .L0 
C:\Users\stapi\AppData\Local\Temp\cc9dCqYX.s:1540   .text.cfg80211_parse_wpa_info:000000000000004e .L0 
C:\Users\stapi\AppData\Local\Temp\cc9dCqYX.s:1541   .text.cfg80211_parse_wpa_info:000000000000004e .L0 
C:\Users\stapi\AppData\Local\Temp\cc9dCqYX.s:1544   .text.cfg80211_parse_wpa_info:0000000000000054 .L0 
C:\Users\stapi\AppData\Local\Temp\cc9dCqYX.s:1545   .text.cfg80211_parse_wpa_info:0000000000000054 .L0 
C:\Users\stapi\AppData\Local\Temp\cc9dCqYX.s:1551   .text.cfg80211_parse_wpa_info:0000000000000060 .L0 
C:\Users\stapi\AppData\Local\Temp\cc9dCqYX.s:1552   .text.cfg80211_parse_wpa_info:0000000000000060 .L0 
C:\Users\stapi\AppData\Local\Temp\cc9dCqYX.s:1555   .text.cfg80211_parse_wpa_info:0000000000000062 .L0 
C:\Users\stapi\AppData\Local\Temp\cc9dCqYX.s:1556   .text.cfg80211_parse_wpa_info:0000000000000062 .L0 
C:\Users\stapi\AppData\Local\Temp\cc9dCqYX.s:1559   .text.cfg80211_parse_wpa_info:0000000000000064 .L0 
C:\Users\stapi\AppData\Local\Temp\cc9dCqYX.s:1560   .text.cfg80211_parse_wpa_info:0000000000000064 .L0 
C:\Users\stapi\AppData\Local\Temp\cc9dCqYX.s:1562   .text.cfg80211_parse_wpa_info:0000000000000066 .L0 
C:\Users\stapi\AppData\Local\Temp\cc9dCqYX.s:1564   .text.cfg80211_parse_wpa_info:000000000000006a .L0 
C:\Users\stapi\AppData\Local\Temp\cc9dCqYX.s:1566   .text.cfg80211_parse_wpa_info:000000000000006e .L0 
C:\Users\stapi\AppData\Local\Temp\cc9dCqYX.s:1568   .text.cfg80211_parse_wpa_info:0000000000000070 .L0 
C:\Users\stapi\AppData\Local\Temp\cc9dCqYX.s:1572   .text.cfg80211_parse_wpa_info:0000000000000072 .L0 
C:\Users\stapi\AppData\Local\Temp\cc9dCqYX.s:1573   .text.cfg80211_parse_wpa_info:0000000000000072 .L0 
C:\Users\stapi\AppData\Local\Temp\cc9dCqYX.s:1577   .text.cfg80211_parse_wpa_info:000000000000007c .L0 
C:\Users\stapi\AppData\Local\Temp\cc9dCqYX.s:1579   .text.cfg80211_parse_wpa_info:0000000000000080 .L0 
C:\Users\stapi\AppData\Local\Temp\cc9dCqYX.s:1582   .text.cfg80211_parse_wpa_info:0000000000000082 .L0 
C:\Users\stapi\AppData\Local\Temp\cc9dCqYX.s:1584   .text.cfg80211_parse_wpa_info:0000000000000084 .L0 
C:\Users\stapi\AppData\Local\Temp\cc9dCqYX.s:1587   .text.cfg80211_parse_wpa_info:000000000000008a .L0 
C:\Users\stapi\AppData\Local\Temp\cc9dCqYX.s:1588   .text.cfg80211_parse_wpa_info:000000000000008a .L0 
C:\Users\stapi\AppData\Local\Temp\cc9dCqYX.s:1590   .text.cfg80211_parse_wpa_info:000000000000008a .L0 
C:\Users\stapi\AppData\Local\Temp\cc9dCqYX.s:1591   .text.cfg80211_parse_wpa_info:000000000000008a .L0 
C:\Users\stapi\AppData\Local\Temp\cc9dCqYX.s:1592   .text.cfg80211_parse_wpa_info:000000000000008a .L0 
C:\Users\stapi\AppData\Local\Temp\cc9dCqYX.s:1600   .text.cfg80211_parse_wpa_info:0000000000000098 .L0 
C:\Users\stapi\AppData\Local\Temp\cc9dCqYX.s:1601   .text.cfg80211_parse_wpa_info:0000000000000098 .L0 
C:\Users\stapi\AppData\Local\Temp\cc9dCqYX.s:1603   .text.cfg80211_parse_wpa_info:000000000000009a .L0 
C:\Users\stapi\AppData\Local\Temp\cc9dCqYX.s:1605   .text.cfg80211_parse_wpa_info:000000000000009e .L0 
C:\Users\stapi\AppData\Local\Temp\cc9dCqYX.s:1606   .text.cfg80211_parse_wpa_info:000000000000009e .L0 
C:\Users\stapi\AppData\Local\Temp\cc9dCqYX.s:1610   .text.cfg80211_parse_wpa_info:00000000000000a4 .L0 
C:\Users\stapi\AppData\Local\Temp\cc9dCqYX.s:1611   .text.cfg80211_parse_wpa_info:00000000000000a4 .L0 
C:\Users\stapi\AppData\Local\Temp\cc9dCqYX.s:1612   .text.cfg80211_parse_wpa_info:00000000000000a4 .L0 
C:\Users\stapi\AppData\Local\Temp\cc9dCqYX.s:1614   .text.cfg80211_parse_wpa_info:00000000000000a8 .L0 
C:\Users\stapi\AppData\Local\Temp\cc9dCqYX.s:1621   .text.cfg80211_parse_wpa_info:00000000000000bc .L0 
C:\Users\stapi\AppData\Local\Temp\cc9dCqYX.s:1623   .text.cfg80211_parse_wpa_info:00000000000000be .L0 
C:\Users\stapi\AppData\Local\Temp\cc9dCqYX.s:1624   .text.cfg80211_parse_wpa_info:00000000000000be .L0 
C:\Users\stapi\AppData\Local\Temp\cc9dCqYX.s:1630   .text.cfg80211_parse_wpa_info:00000000000000c6 .L0 
C:\Users\stapi\AppData\Local\Temp\cc9dCqYX.s:1631   .text.cfg80211_parse_wpa_info:00000000000000c6 .L0 
C:\Users\stapi\AppData\Local\Temp\cc9dCqYX.s:1635   .text.cfg80211_parse_wpa_info:00000000000000ca .L0 
C:\Users\stapi\AppData\Local\Temp\cc9dCqYX.s:1639   .text.cfg80211_parse_wpa_info:00000000000000cc .L0 
C:\Users\stapi\AppData\Local\Temp\cc9dCqYX.s:1640   .text.cfg80211_parse_wpa_info:00000000000000d4 .L0 
C:\Users\stapi\AppData\Local\Temp\cc9dCqYX.s:1641   .text.cfg80211_parse_wpa_info:00000000000000d4 .L0 
C:\Users\stapi\AppData\Local\Temp\cc9dCqYX.s:1642   .text.cfg80211_parse_wpa_info:00000000000000d4 .L0 
C:\Users\stapi\AppData\Local\Temp\cc9dCqYX.s:1643   .text.cfg80211_parse_wpa_info:00000000000000d4 .L0 
C:\Users\stapi\AppData\Local\Temp\cc9dCqYX.s:1644   .text.cfg80211_parse_wpa_info:00000000000000d4 .L0 
C:\Users\stapi\AppData\Local\Temp\cc9dCqYX.s:1645   .text.cfg80211_parse_wpa_info:00000000000000d4 .L0 
C:\Users\stapi\AppData\Local\Temp\cc9dCqYX.s:1646   .text.cfg80211_parse_wpa_info:00000000000000d4 .L0 
C:\Users\stapi\AppData\Local\Temp\cc9dCqYX.s:1647   .text.cfg80211_parse_wpa_info:00000000000000d4 .L0 
C:\Users\stapi\AppData\Local\Temp\cc9dCqYX.s:1648   .text.cfg80211_parse_wpa_info:00000000000000d4 .L0 
C:\Users\stapi\AppData\Local\Temp\cc9dCqYX.s:1649   .text.cfg80211_parse_wpa_info:00000000000000d4 .L0 
C:\Users\stapi\AppData\Local\Temp\cc9dCqYX.s:1652   .text.cfg80211_parse_wpa_info:00000000000000d4 .L0 
C:\Users\stapi\AppData\Local\Temp\cc9dCqYX.s:1654   .text.cfg80211_parse_wpa_info:00000000000000d4 .L0 
C:\Users\stapi\AppData\Local\Temp\cc9dCqYX.s:1655   .text.cfg80211_parse_wpa_info:00000000000000d4 .L0 
C:\Users\stapi\AppData\Local\Temp\cc9dCqYX.s:1662   .text.cfg80211_parse_wpa_info:00000000000000e2 .L0 
C:\Users\stapi\AppData\Local\Temp\cc9dCqYX.s:1664   .text.cfg80211_parse_wpa_info:00000000000000e6 .L0 
C:\Users\stapi\AppData\Local\Temp\cc9dCqYX.s:1671   .text.cfg80211_parse_wpa2_info:0000000000000000 cfg80211_parse_wpa2_info
C:\Users\stapi\AppData\Local\Temp\cc9dCqYX.s:1674   .text.cfg80211_parse_wpa2_info:0000000000000000 .L0 
C:\Users\stapi\AppData\Local\Temp\cc9dCqYX.s:1676   .text.cfg80211_parse_wpa2_info:0000000000000000 .L0 
C:\Users\stapi\AppData\Local\Temp\cc9dCqYX.s:1677   .text.cfg80211_parse_wpa2_info:0000000000000000 .L0 
C:\Users\stapi\AppData\Local\Temp\cc9dCqYX.s:1678   .text.cfg80211_parse_wpa2_info:0000000000000000 .L0 
C:\Users\stapi\AppData\Local\Temp\cc9dCqYX.s:1679   .text.cfg80211_parse_wpa2_info:0000000000000000 .L0 
C:\Users\stapi\AppData\Local\Temp\cc9dCqYX.s:1680   .text.cfg80211_parse_wpa2_info:0000000000000000 .L0 
C:\Users\stapi\AppData\Local\Temp\cc9dCqYX.s:1681   .text.cfg80211_parse_wpa2_info:0000000000000000 .L0 
C:\Users\stapi\AppData\Local\Temp\cc9dCqYX.s:1683   .text.cfg80211_parse_wpa2_info:0000000000000004 .L0 
C:\Users\stapi\AppData\Local\Temp\cc9dCqYX.s:1686   .text.cfg80211_parse_wpa2_info:0000000000000006 .L0 
C:\Users\stapi\AppData\Local\Temp\cc9dCqYX.s:1690   .text.cfg80211_parse_wpa2_info:0000000000000008 .L0 
C:\Users\stapi\AppData\Local\Temp\cc9dCqYX.s:1691   .text.cfg80211_parse_wpa2_info:0000000000000010 .L0 
C:\Users\stapi\AppData\Local\Temp\cc9dCqYX.s:1692   .text.cfg80211_parse_wpa2_info:0000000000000010 .L0 
C:\Users\stapi\AppData\Local\Temp\cc9dCqYX.s:1693   .text.cfg80211_parse_wpa2_info:0000000000000010 .L0 
C:\Users\stapi\AppData\Local\Temp\cc9dCqYX.s:1694   .text.cfg80211_parse_wpa2_info:0000000000000010 .L0 
C:\Users\stapi\AppData\Local\Temp\cc9dCqYX.s:1695   .text.cfg80211_parse_wpa2_info:0000000000000010 .L0 
C:\Users\stapi\AppData\Local\Temp\cc9dCqYX.s:1696   .text.cfg80211_parse_wpa2_info:0000000000000010 .L0 
C:\Users\stapi\AppData\Local\Temp\cc9dCqYX.s:1697   .text.cfg80211_parse_wpa2_info:0000000000000010 .L0 
C:\Users\stapi\AppData\Local\Temp\cc9dCqYX.s:1698   .text.cfg80211_parse_wpa2_info:0000000000000010 .L0 
C:\Users\stapi\AppData\Local\Temp\cc9dCqYX.s:1699   .text.cfg80211_parse_wpa2_info:0000000000000010 .L0 
C:\Users\stapi\AppData\Local\Temp\cc9dCqYX.s:1702   .text.cfg80211_parse_wpa2_info:0000000000000012 .L0 
C:\Users\stapi\AppData\Local\Temp\cc9dCqYX.s:1703   .text.cfg80211_parse_wpa2_info:0000000000000012 .L0 
C:\Users\stapi\AppData\Local\Temp\cc9dCqYX.s:1709   .text.cfg80211_parse_wpa2_info:0000000000000020 .L0 
C:\Users\stapi\AppData\Local\Temp\cc9dCqYX.s:1711   .text.cfg80211_parse_wpa2_info:0000000000000024 .L0 
C:\Users\stapi\AppData\Local\Temp\cc9dCqYX.s:1713   .text.cfg80211_parse_wpa2_info:0000000000000028 .L0 
C:\Users\stapi\AppData\Local\Temp\cc9dCqYX.s:1718   .text.cfg80211_parse_wpa2_info:0000000000000032 .L0 
C:\Users\stapi\AppData\Local\Temp\cc9dCqYX.s:1720   .text.cfg80211_parse_wpa2_info:0000000000000036 .L0 
C:\Users\stapi\AppData\Local\Temp\cc9dCqYX.s:1724   .text.cfg80211_parse_wpa2_info:000000000000003a .L0 
C:\Users\stapi\AppData\Local\Temp\cc9dCqYX.s:1725   .text.cfg80211_parse_wpa2_info:000000000000003a .L0 
C:\Users\stapi\AppData\Local\Temp\cc9dCqYX.s:1726   .text.cfg80211_parse_wpa2_info:000000000000003a .L0 
C:\Users\stapi\AppData\Local\Temp\cc9dCqYX.s:1729   .text.cfg80211_parse_wpa2_info:000000000000003e .L0 
C:\Users\stapi\AppData\Local\Temp\cc9dCqYX.s:1730   .text.cfg80211_parse_wpa2_info:000000000000003e .L0 
C:\Users\stapi\AppData\Local\Temp\cc9dCqYX.s:1731   .text.cfg80211_parse_wpa2_info:000000000000003e .L0 
C:\Users\stapi\AppData\Local\Temp\cc9dCqYX.s:1733   .text.cfg80211_parse_wpa2_info:0000000000000042 .L0 
C:\Users\stapi\AppData\Local\Temp\cc9dCqYX.s:1737   .text.cfg80211_parse_wpa2_info:0000000000000046 .L0 
C:\Users\stapi\AppData\Local\Temp\cc9dCqYX.s:1738   .text.cfg80211_parse_wpa2_info:0000000000000046 .L0 
C:\Users\stapi\AppData\Local\Temp\cc9dCqYX.s:1741   .text.cfg80211_parse_wpa2_info:000000000000004e .L0 
C:\Users\stapi\AppData\Local\Temp\cc9dCqYX.s:1743   .text.cfg80211_parse_wpa2_info:0000000000000052 .L0 
C:\Users\stapi\AppData\Local\Temp\cc9dCqYX.s:1744   .text.cfg80211_parse_wpa2_info:0000000000000052 .L0 
C:\Users\stapi\AppData\Local\Temp\cc9dCqYX.s:1747   .text.cfg80211_parse_wpa2_info:0000000000000056 .L0 
C:\Users\stapi\AppData\Local\Temp\cc9dCqYX.s:1748   .text.cfg80211_parse_wpa2_info:0000000000000056 .L0 
C:\Users\stapi\AppData\Local\Temp\cc9dCqYX.s:1752   .text.cfg80211_parse_wpa2_info:000000000000005a .L0 
C:\Users\stapi\AppData\Local\Temp\cc9dCqYX.s:1753   .text.cfg80211_parse_wpa2_info:000000000000005a .L0 
C:\Users\stapi\AppData\Local\Temp\cc9dCqYX.s:1756   .text.cfg80211_parse_wpa2_info:0000000000000060 .L0 
C:\Users\stapi\AppData\Local\Temp\cc9dCqYX.s:1757   .text.cfg80211_parse_wpa2_info:0000000000000060 .L0 
C:\Users\stapi\AppData\Local\Temp\cc9dCqYX.s:1763   .text.cfg80211_parse_wpa2_info:000000000000006c .L0 
C:\Users\stapi\AppData\Local\Temp\cc9dCqYX.s:1764   .text.cfg80211_parse_wpa2_info:000000000000006c .L0 
C:\Users\stapi\AppData\Local\Temp\cc9dCqYX.s:1767   .text.cfg80211_parse_wpa2_info:000000000000006e .L0 
C:\Users\stapi\AppData\Local\Temp\cc9dCqYX.s:1768   .text.cfg80211_parse_wpa2_info:000000000000006e .L0 
C:\Users\stapi\AppData\Local\Temp\cc9dCqYX.s:1771   .text.cfg80211_parse_wpa2_info:0000000000000070 .L0 
C:\Users\stapi\AppData\Local\Temp\cc9dCqYX.s:1772   .text.cfg80211_parse_wpa2_info:0000000000000070 .L0 
C:\Users\stapi\AppData\Local\Temp\cc9dCqYX.s:1774   .text.cfg80211_parse_wpa2_info:0000000000000072 .L0 
C:\Users\stapi\AppData\Local\Temp\cc9dCqYX.s:1776   .text.cfg80211_parse_wpa2_info:0000000000000076 .L0 
C:\Users\stapi\AppData\Local\Temp\cc9dCqYX.s:1778   .text.cfg80211_parse_wpa2_info:000000000000007a .L0 
C:\Users\stapi\AppData\Local\Temp\cc9dCqYX.s:1780   .text.cfg80211_parse_wpa2_info:000000000000007c .L0 
C:\Users\stapi\AppData\Local\Temp\cc9dCqYX.s:1784   .text.cfg80211_parse_wpa2_info:000000000000007e .L0 
C:\Users\stapi\AppData\Local\Temp\cc9dCqYX.s:1785   .text.cfg80211_parse_wpa2_info:000000000000007e .L0 
C:\Users\stapi\AppData\Local\Temp\cc9dCqYX.s:1789   .text.cfg80211_parse_wpa2_info:0000000000000088 .L0 
C:\Users\stapi\AppData\Local\Temp\cc9dCqYX.s:1791   .text.cfg80211_parse_wpa2_info:000000000000008c .L0 
C:\Users\stapi\AppData\Local\Temp\cc9dCqYX.s:1794   .text.cfg80211_parse_wpa2_info:000000000000008e .L0 
C:\Users\stapi\AppData\Local\Temp\cc9dCqYX.s:1796   .text.cfg80211_parse_wpa2_info:0000000000000090 .L0 
C:\Users\stapi\AppData\Local\Temp\cc9dCqYX.s:1799   .text.cfg80211_parse_wpa2_info:0000000000000096 .L0 
C:\Users\stapi\AppData\Local\Temp\cc9dCqYX.s:1800   .text.cfg80211_parse_wpa2_info:0000000000000096 .L0 
C:\Users\stapi\AppData\Local\Temp\cc9dCqYX.s:1802   .text.cfg80211_parse_wpa2_info:0000000000000096 .L0 
C:\Users\stapi\AppData\Local\Temp\cc9dCqYX.s:1803   .text.cfg80211_parse_wpa2_info:0000000000000096 .L0 
C:\Users\stapi\AppData\Local\Temp\cc9dCqYX.s:1804   .text.cfg80211_parse_wpa2_info:0000000000000096 .L0 
C:\Users\stapi\AppData\Local\Temp\cc9dCqYX.s:1812   .text.cfg80211_parse_wpa2_info:00000000000000a4 .L0 
C:\Users\stapi\AppData\Local\Temp\cc9dCqYX.s:1813   .text.cfg80211_parse_wpa2_info:00000000000000a4 .L0 
C:\Users\stapi\AppData\Local\Temp\cc9dCqYX.s:1815   .text.cfg80211_parse_wpa2_info:00000000000000a6 .L0 
C:\Users\stapi\AppData\Local\Temp\cc9dCqYX.s:1817   .text.cfg80211_parse_wpa2_info:00000000000000aa .L0 
C:\Users\stapi\AppData\Local\Temp\cc9dCqYX.s:1818   .text.cfg80211_parse_wpa2_info:00000000000000aa .L0 
C:\Users\stapi\AppData\Local\Temp\cc9dCqYX.s:1822   .text.cfg80211_parse_wpa2_info:00000000000000b0 .L0 
C:\Users\stapi\AppData\Local\Temp\cc9dCqYX.s:1823   .text.cfg80211_parse_wpa2_info:00000000000000b0 .L0 
C:\Users\stapi\AppData\Local\Temp\cc9dCqYX.s:1824   .text.cfg80211_parse_wpa2_info:00000000000000b0 .L0 
C:\Users\stapi\AppData\Local\Temp\cc9dCqYX.s:1826   .text.cfg80211_parse_wpa2_info:00000000000000b4 .L0 
C:\Users\stapi\AppData\Local\Temp\cc9dCqYX.s:1833   .text.cfg80211_parse_wpa2_info:00000000000000c8 .L0 
C:\Users\stapi\AppData\Local\Temp\cc9dCqYX.s:1835   .text.cfg80211_parse_wpa2_info:00000000000000ca .L0 
C:\Users\stapi\AppData\Local\Temp\cc9dCqYX.s:1836   .text.cfg80211_parse_wpa2_info:00000000000000ca .L0 
C:\Users\stapi\AppData\Local\Temp\cc9dCqYX.s:1842   .text.cfg80211_parse_wpa2_info:00000000000000d2 .L0 
C:\Users\stapi\AppData\Local\Temp\cc9dCqYX.s:1843   .text.cfg80211_parse_wpa2_info:00000000000000d2 .L0 
C:\Users\stapi\AppData\Local\Temp\cc9dCqYX.s:1847   .text.cfg80211_parse_wpa2_info:00000000000000d6 .L0 
C:\Users\stapi\AppData\Local\Temp\cc9dCqYX.s:1851   .text.cfg80211_parse_wpa2_info:00000000000000d8 .L0 
C:\Users\stapi\AppData\Local\Temp\cc9dCqYX.s:1852   .text.cfg80211_parse_wpa2_info:00000000000000e0 .L0 
C:\Users\stapi\AppData\Local\Temp\cc9dCqYX.s:1853   .text.cfg80211_parse_wpa2_info:00000000000000e0 .L0 
C:\Users\stapi\AppData\Local\Temp\cc9dCqYX.s:1854   .text.cfg80211_parse_wpa2_info:00000000000000e0 .L0 
C:\Users\stapi\AppData\Local\Temp\cc9dCqYX.s:1855   .text.cfg80211_parse_wpa2_info:00000000000000e0 .L0 
C:\Users\stapi\AppData\Local\Temp\cc9dCqYX.s:1856   .text.cfg80211_parse_wpa2_info:00000000000000e0 .L0 
C:\Users\stapi\AppData\Local\Temp\cc9dCqYX.s:1857   .text.cfg80211_parse_wpa2_info:00000000000000e0 .L0 
C:\Users\stapi\AppData\Local\Temp\cc9dCqYX.s:1858   .text.cfg80211_parse_wpa2_info:00000000000000e0 .L0 
C:\Users\stapi\AppData\Local\Temp\cc9dCqYX.s:1859   .text.cfg80211_parse_wpa2_info:00000000000000e0 .L0 
C:\Users\stapi\AppData\Local\Temp\cc9dCqYX.s:1860   .text.cfg80211_parse_wpa2_info:00000000000000e0 .L0 
C:\Users\stapi\AppData\Local\Temp\cc9dCqYX.s:1861   .text.cfg80211_parse_wpa2_info:00000000000000e0 .L0 
C:\Users\stapi\AppData\Local\Temp\cc9dCqYX.s:1864   .text.cfg80211_parse_wpa2_info:00000000000000e0 .L0 
C:\Users\stapi\AppData\Local\Temp\cc9dCqYX.s:1866   .text.cfg80211_parse_wpa2_info:00000000000000e0 .L0 
C:\Users\stapi\AppData\Local\Temp\cc9dCqYX.s:1867   .text.cfg80211_parse_wpa2_info:00000000000000e0 .L0 
C:\Users\stapi\AppData\Local\Temp\cc9dCqYX.s:1874   .text.cfg80211_parse_wpa2_info:00000000000000ee .L0 
C:\Users\stapi\AppData\Local\Temp\cc9dCqYX.s:1876   .text.cfg80211_parse_wpa2_info:00000000000000f2 .L0 
C:\Users\stapi\AppData\Local\Temp\cc9dCqYX.s:1883   .text.cfg80211_get_cipher_info:0000000000000000 cfg80211_get_cipher_info
C:\Users\stapi\AppData\Local\Temp\cc9dCqYX.s:1886   .text.cfg80211_get_cipher_info:0000000000000000 .L0 
C:\Users\stapi\AppData\Local\Temp\cc9dCqYX.s:1888   .text.cfg80211_get_cipher_info:0000000000000000 .L0 
C:\Users\stapi\AppData\Local\Temp\cc9dCqYX.s:1889   .text.cfg80211_get_cipher_info:0000000000000008 .L0 
C:\Users\stapi\AppData\Local\Temp\cc9dCqYX.s:1890   .text.cfg80211_get_cipher_info:0000000000000008 .L0 
C:\Users\stapi\AppData\Local\Temp\cc9dCqYX.s:1891   .text.cfg80211_get_cipher_info:0000000000000008 .L0 
C:\Users\stapi\AppData\Local\Temp\cc9dCqYX.s:1892   .text.cfg80211_get_cipher_info:0000000000000008 .L0 
C:\Users\stapi\AppData\Local\Temp\cc9dCqYX.s:1893   .text.cfg80211_get_cipher_info:0000000000000008 .L0 
C:\Users\stapi\AppData\Local\Temp\cc9dCqYX.s:1894   .text.cfg80211_get_cipher_info:0000000000000008 .L0 
C:\Users\stapi\AppData\Local\Temp\cc9dCqYX.s:1895   .text.cfg80211_get_cipher_info:0000000000000008 .L0 
C:\Users\stapi\AppData\Local\Temp\cc9dCqYX.s:1898   .text.cfg80211_get_cipher_info:0000000000000008 .L0 
C:\Users\stapi\AppData\Local\Temp\cc9dCqYX.s:1899   .text.cfg80211_get_cipher_info:0000000000000008 .L0 
C:\Users\stapi\AppData\Local\Temp\cc9dCqYX.s:1901   .text.cfg80211_get_cipher_info:000000000000000c .L0 
C:\Users\stapi\AppData\Local\Temp\cc9dCqYX.s:1902   .text.cfg80211_get_cipher_info:000000000000000e .L0 
C:\Users\stapi\AppData\Local\Temp\cc9dCqYX.s:1904   .text.cfg80211_get_cipher_info:000000000000000e .L0 
C:\Users\stapi\AppData\Local\Temp\cc9dCqYX.s:1906   .text.cfg80211_get_cipher_info:0000000000000010 .L0 
C:\Users\stapi\AppData\Local\Temp\cc9dCqYX.s:1909   .text.cfg80211_get_cipher_info:0000000000000014 .L0 
C:\Users\stapi\AppData\Local\Temp\cc9dCqYX.s:1914   .text.cfg80211_get_cipher_info:000000000000001c .L0 
C:\Users\stapi\AppData\Local\Temp\cc9dCqYX.s:1919   .text.cfg80211_get_cipher_info:0000000000000022 .L0 
C:\Users\stapi\AppData\Local\Temp\cc9dCqYX.s:1920   .text.cfg80211_get_cipher_info:0000000000000022 .L0 
C:\Users\stapi\AppData\Local\Temp\cc9dCqYX.s:1921   .text.cfg80211_get_cipher_info:0000000000000022 .L0 
C:\Users\stapi\AppData\Local\Temp\cc9dCqYX.s:1922   .text.cfg80211_get_cipher_info:0000000000000022 .L0 
C:\Users\stapi\AppData\Local\Temp\cc9dCqYX.s:1923   .text.cfg80211_get_cipher_info:0000000000000022 .L0 
C:\Users\stapi\AppData\Local\Temp\cc9dCqYX.s:1925   .text.cfg80211_get_cipher_info:0000000000000026 .L0 
C:\Users\stapi\AppData\Local\Temp\cc9dCqYX.s:1927   .text.cfg80211_get_cipher_info:000000000000002a .L0 
C:\Users\stapi\AppData\Local\Temp\cc9dCqYX.s:1929   .text.cfg80211_get_cipher_info:000000000000002e .L0 
C:\Users\stapi\AppData\Local\Temp\cc9dCqYX.s:1931   .text.cfg80211_get_cipher_info:000000000000002e .L0 
C:\Users\stapi\AppData\Local\Temp\cc9dCqYX.s:1932   .text.cfg80211_get_cipher_info:000000000000002e .L0 
C:\Users\stapi\AppData\Local\Temp\cc9dCqYX.s:1933   .text.cfg80211_get_cipher_info:000000000000002e .L0 
C:\Users\stapi\AppData\Local\Temp\cc9dCqYX.s:1937   .text.cfg80211_get_cipher_info:000000000000003a .L0 
C:\Users\stapi\AppData\Local\Temp\cc9dCqYX.s:1938   .text.cfg80211_get_cipher_info:000000000000003a .L0 
C:\Users\stapi\AppData\Local\Temp\cc9dCqYX.s:1940   .text.cfg80211_get_cipher_info:000000000000003c .L0 
C:\Users\stapi\AppData\Local\Temp\cc9dCqYX.s:1942   .text.cfg80211_get_cipher_info:0000000000000040 .L0 
C:\Users\stapi\AppData\Local\Temp\cc9dCqYX.s:1944   .text.cfg80211_get_cipher_info:0000000000000042 .L0 
C:\Users\stapi\AppData\Local\Temp\cc9dCqYX.s:1945   .text.cfg80211_get_cipher_info:0000000000000042 .L0 
C:\Users\stapi\AppData\Local\Temp\cc9dCqYX.s:1954   .text.cfg80211_get_cipher_info:000000000000005a .L0 
C:\Users\stapi\AppData\Local\Temp\cc9dCqYX.s:1955   .text.cfg80211_get_cipher_info:000000000000005a .L0 
C:\Users\stapi\AppData\Local\Temp\cc9dCqYX.s:1957   .text.cfg80211_get_cipher_info:000000000000005e .L0 
C:\Users\stapi\AppData\Local\Temp\cc9dCqYX.s:1960   .text.cfg80211_get_cipher_info:0000000000000062 .L0 
C:\Users\stapi\AppData\Local\Temp\cc9dCqYX.s:1963   .text.cfg80211_get_cipher_info:000000000000006a .L0 
C:\Users\stapi\AppData\Local\Temp\cc9dCqYX.s:1965   .text.cfg80211_get_cipher_info:000000000000006e .L0 
C:\Users\stapi\AppData\Local\Temp\cc9dCqYX.s:1967   .text.cfg80211_get_cipher_info:0000000000000072 .L0 
C:\Users\stapi\AppData\Local\Temp\cc9dCqYX.s:1971   .text.cfg80211_get_cipher_info:0000000000000078 .L0 
C:\Users\stapi\AppData\Local\Temp\cc9dCqYX.s:1972   .text.cfg80211_get_cipher_info:0000000000000078 .L0 
C:\Users\stapi\AppData\Local\Temp\cc9dCqYX.s:1973   .text.cfg80211_get_cipher_info:0000000000000078 .L0 
C:\Users\stapi\AppData\Local\Temp\cc9dCqYX.s:1976   .text.cfg80211_get_cipher_info:0000000000000080 .L0 
C:\Users\stapi\AppData\Local\Temp\cc9dCqYX.s:1980   .text.cfg80211_get_cipher_info:0000000000000084 .L0 
C:\Users\stapi\AppData\Local\Temp\cc9dCqYX.s:1981   .text.cfg80211_get_cipher_info:0000000000000084 .L0 
C:\Users\stapi\AppData\Local\Temp\cc9dCqYX.s:1983   .text.cfg80211_get_cipher_info:0000000000000088 .L0 
C:\Users\stapi\AppData\Local\Temp\cc9dCqYX.s:1984   .text.cfg80211_get_cipher_info:0000000000000088 .L0 
C:\Users\stapi\AppData\Local\Temp\cc9dCqYX.s:1987   .text.cfg80211_get_cipher_info:000000000000008c .L0 
C:\Users\stapi\AppData\Local\Temp\cc9dCqYX.s:1988   .text.cfg80211_get_cipher_info:000000000000008c .L0 
C:\Users\stapi\AppData\Local\Temp\cc9dCqYX.s:1990   .text.cfg80211_get_cipher_info:0000000000000090 .L0 
C:\Users\stapi\AppData\Local\Temp\cc9dCqYX.s:1991   .text.cfg80211_get_cipher_info:0000000000000090 .L0 
C:\Users\stapi\AppData\Local\Temp\cc9dCqYX.s:1995   .text.cfg80211_get_cipher_info:0000000000000098 .L0 
C:\Users\stapi\AppData\Local\Temp\cc9dCqYX.s:1996   .text.cfg80211_get_cipher_info:0000000000000098 .L0 
C:\Users\stapi\AppData\Local\Temp\cc9dCqYX.s:1998   .text.cfg80211_get_cipher_info:000000000000009c .L0 
C:\Users\stapi\AppData\Local\Temp\cc9dCqYX.s:1999   .text.cfg80211_get_cipher_info:000000000000009c .L0 
C:\Users\stapi\AppData\Local\Temp\cc9dCqYX.s:2003   .text.cfg80211_get_cipher_info:00000000000000a4 .L0 
C:\Users\stapi\AppData\Local\Temp\cc9dCqYX.s:2004   .text.cfg80211_get_cipher_info:00000000000000a4 .L0 
C:\Users\stapi\AppData\Local\Temp\cc9dCqYX.s:2006   .text.cfg80211_get_cipher_info:00000000000000a8 .L0 
C:\Users\stapi\AppData\Local\Temp\cc9dCqYX.s:2007   .text.cfg80211_get_cipher_info:00000000000000a8 .L0 
C:\Users\stapi\AppData\Local\Temp\cc9dCqYX.s:2009   .text.cfg80211_get_cipher_info:00000000000000b0 .L0 
C:\Users\stapi\AppData\Local\Temp\cc9dCqYX.s:2010   .text.cfg80211_get_cipher_info:00000000000000b0 .L0 
C:\Users\stapi\AppData\Local\Temp\cc9dCqYX.s:2011   .text.cfg80211_get_cipher_info:00000000000000b0 .L0 
C:\Users\stapi\AppData\Local\Temp\cc9dCqYX.s:2012   .text.cfg80211_get_cipher_info:00000000000000b0 .L0 
C:\Users\stapi\AppData\Local\Temp\cc9dCqYX.s:2013   .text.cfg80211_get_cipher_info:00000000000000b0 .L0 
C:\Users\stapi\AppData\Local\Temp\cc9dCqYX.s:2014   .text.cfg80211_get_cipher_info:00000000000000b0 .L0 
C:\Users\stapi\AppData\Local\Temp\cc9dCqYX.s:2015   .text.cfg80211_get_cipher_info:00000000000000b0 .L0 
C:\Users\stapi\AppData\Local\Temp\cc9dCqYX.s:2018   .text.cfg80211_get_cipher_info:00000000000000b0 .L0 
C:\Users\stapi\AppData\Local\Temp\cc9dCqYX.s:2020   .text.cfg80211_get_cipher_info:00000000000000b0 .L0 
C:\Users\stapi\AppData\Local\Temp\cc9dCqYX.s:2021   .text.cfg80211_get_cipher_info:00000000000000b0 .L0 
C:\Users\stapi\AppData\Local\Temp\cc9dCqYX.s:2024   .text.cfg80211_get_cipher_info:00000000000000b2 .L0 
C:\Users\stapi\AppData\Local\Temp\cc9dCqYX.s:2025   .text.cfg80211_get_cipher_info:00000000000000b2 .L0 
C:\Users\stapi\AppData\Local\Temp\cc9dCqYX.s:2026   .text.cfg80211_get_cipher_info:00000000000000b2 .L0 
C:\Users\stapi\AppData\Local\Temp\cc9dCqYX.s:2029   .text.cfg80211_get_cipher_info:00000000000000b8 .L0 
C:\Users\stapi\AppData\Local\Temp\cc9dCqYX.s:2030   .text.cfg80211_get_cipher_info:00000000000000b8 .L0 
C:\Users\stapi\AppData\Local\Temp\cc9dCqYX.s:2032   .text.cfg80211_get_cipher_info:00000000000000bc .L0 
C:\Users\stapi\AppData\Local\Temp\cc9dCqYX.s:2034   .text.cfg80211_get_cipher_info:00000000000000be .L0 
C:\Users\stapi\AppData\Local\Temp\cc9dCqYX.s:2040   .text.cfg80211_get_cipher_info:00000000000000c2 .L0 
C:\Users\stapi\AppData\Local\Temp\cc9dCqYX.s:2042   .text.cfg80211_get_cipher_info:00000000000000c4 .L0 
C:\Users\stapi\AppData\Local\Temp\cc9dCqYX.s:2045   .text.cfg80211_get_cipher_info:00000000000000c8 .L0 
C:\Users\stapi\AppData\Local\Temp\cc9dCqYX.s:2056   .text.zconfig_remove_link_header:0000000000000000 zconfig_remove_link_header
C:\Users\stapi\AppData\Local\Temp\cc9dCqYX.s:2059   .text.zconfig_remove_link_header:0000000000000000 .L0 
C:\Users\stapi\AppData\Local\Temp\cc9dCqYX.s:2061   .text.zconfig_remove_link_header:0000000000000000 .L0 
C:\Users\stapi\AppData\Local\Temp\cc9dCqYX.s:2062   .text.zconfig_remove_link_header:0000000000000008 .L0 
C:\Users\stapi\AppData\Local\Temp\cc9dCqYX.s:2063   .text.zconfig_remove_link_header:0000000000000008 .L0 
C:\Users\stapi\AppData\Local\Temp\cc9dCqYX.s:2064   .text.zconfig_remove_link_header:0000000000000008 .L0 
C:\Users\stapi\AppData\Local\Temp\cc9dCqYX.s:2065   .text.zconfig_remove_link_header:0000000000000008 .L0 
C:\Users\stapi\AppData\Local\Temp\cc9dCqYX.s:2068   .text.zconfig_remove_link_header:0000000000000008 .L0 
C:\Users\stapi\AppData\Local\Temp\cc9dCqYX.s:2069   .text.zconfig_remove_link_header:0000000000000008 .L0 
C:\Users\stapi\AppData\Local\Temp\cc9dCqYX.s:2071   .text.zconfig_remove_link_header:000000000000000a .L0 
C:\Users\stapi\AppData\Local\Temp\cc9dCqYX.s:2074   .text.zconfig_remove_link_header:000000000000000e .L0 
C:\Users\stapi\AppData\Local\Temp\cc9dCqYX.s:2081   .text.zconfig_remove_link_header:000000000000001e .L0 
C:\Users\stapi\AppData\Local\Temp\cc9dCqYX.s:2091   .text.zconfig_remove_link_header:0000000000000034 .L0 
C:\Users\stapi\AppData\Local\Temp\cc9dCqYX.s:2095   .text.zconfig_remove_link_header:0000000000000036 .L0 
C:\Users\stapi\AppData\Local\Temp\cc9dCqYX.s:2098   .text.zconfig_remove_link_header:000000000000003c .L0 
C:\Users\stapi\AppData\Local\Temp\cc9dCqYX.s:2099   .text.zconfig_remove_link_header:000000000000003c .L0 
C:\Users\stapi\AppData\Local\Temp\cc9dCqYX.s:2101   .text.zconfig_remove_link_header:000000000000003e .L0 
C:\Users\stapi\AppData\Local\Temp\cc9dCqYX.s:2104   .text.zconfig_remove_link_header:0000000000000040 .L0 
C:\Users\stapi\AppData\Local\Temp\cc9dCqYX.s:2107   .text.zconfig_remove_link_header:0000000000000042 .L0 
C:\Users\stapi\AppData\Local\Temp\cc9dCqYX.s:2108   .text.zconfig_remove_link_header:0000000000000042 .L0 
C:\Users\stapi\AppData\Local\Temp\cc9dCqYX.s:2111   .text.zconfig_remove_link_header:0000000000000046 .L0 
C:\Users\stapi\AppData\Local\Temp\cc9dCqYX.s:2112   .text.zconfig_remove_link_header:0000000000000046 .L0 
C:\Users\stapi\AppData\Local\Temp\cc9dCqYX.s:2117   .text.zconfig_remove_link_header:000000000000004a .L0 
C:\Users\stapi\AppData\Local\Temp\cc9dCqYX.s:2118   .text.zconfig_remove_link_header:000000000000004a .L0 
C:\Users\stapi\AppData\Local\Temp\cc9dCqYX.s:2122   .text.zconfig_remove_link_header:0000000000000052 .L0 
C:\Users\stapi\AppData\Local\Temp\cc9dCqYX.s:2123   .text.zconfig_remove_link_header:0000000000000052 .L0 
C:\Users\stapi\AppData\Local\Temp\cc9dCqYX.s:2129   .text.zconfig_remove_link_header:000000000000005a .L0 
C:\Users\stapi\AppData\Local\Temp\cc9dCqYX.s:2130   .text.zconfig_remove_link_header:000000000000005a .L0 
C:\Users\stapi\AppData\Local\Temp\cc9dCqYX.s:2131   .text.zconfig_remove_link_header:000000000000005a .L0 
C:\Users\stapi\AppData\Local\Temp\cc9dCqYX.s:2133   .text.zconfig_remove_link_header:0000000000000064 .L0 
C:\Users\stapi\AppData\Local\Temp\cc9dCqYX.s:2134   .text.zconfig_remove_link_header:0000000000000064 .L0 
C:\Users\stapi\AppData\Local\Temp\cc9dCqYX.s:2135   .text.zconfig_remove_link_header:0000000000000064 .L0 
C:\Users\stapi\AppData\Local\Temp\cc9dCqYX.s:2136   .text.zconfig_remove_link_header:0000000000000064 .L0 
C:\Users\stapi\AppData\Local\Temp\cc9dCqYX.s:2137   .text.zconfig_remove_link_header:0000000000000064 .L0 
C:\Users\stapi\AppData\Local\Temp\cc9dCqYX.s:2140   .text.zconfig_remove_link_header:0000000000000064 .L0 
C:\Users\stapi\AppData\Local\Temp\cc9dCqYX.s:2144   .text.zconfig_remove_link_header:0000000000000064 .L0 
C:\Users\stapi\AppData\Local\Temp\cc9dCqYX.s:2145   .text.zconfig_remove_link_header:0000000000000064 .L0 
C:\Users\stapi\AppData\Local\Temp\cc9dCqYX.s:2146   .text.zconfig_remove_link_header:0000000000000064 .L0 
C:\Users\stapi\AppData\Local\Temp\cc9dCqYX.s:2147   .text.zconfig_remove_link_header:0000000000000064 .L0 
C:\Users\stapi\AppData\Local\Temp\cc9dCqYX.s:2149   .text.zconfig_remove_link_header:0000000000000066 .L0 
C:\Users\stapi\AppData\Local\Temp\cc9dCqYX.s:2155   .text.zconfig_remove_link_header:0000000000000070 .L0 
C:\Users\stapi\AppData\Local\Temp\cc9dCqYX.s:2156   .text.zconfig_remove_link_header:0000000000000070 .L0 
C:\Users\stapi\AppData\Local\Temp\cc9dCqYX.s:2158   .text.zconfig_remove_link_header:0000000000000072 .L0 
C:\Users\stapi\AppData\Local\Temp\cc9dCqYX.s:2160   .text.zconfig_remove_link_header:0000000000000074 .L0 
C:\Users\stapi\AppData\Local\Temp\cc9dCqYX.s:2163   .text.zconfig_remove_link_header:0000000000000078 .L0 
C:\Users\stapi\AppData\Local\Temp\cc9dCqYX.s:2164   .text.zconfig_remove_link_header:0000000000000078 .L0 
C:\Users\stapi\AppData\Local\Temp\cc9dCqYX.s:2168   .text.zconfig_remove_link_header:000000000000007a .L0 
C:\Users\stapi\AppData\Local\Temp\cc9dCqYX.s:2170   .text.zconfig_remove_link_header:000000000000007c .L0 
C:\Users\stapi\AppData\Local\Temp\cc9dCqYX.s:2171   .text.zconfig_remove_link_header:000000000000007c .L0 
C:\Users\stapi\AppData\Local\Temp\cc9dCqYX.s:2174   .text.zconfig_remove_link_header:0000000000000082 .L0 
C:\Users\stapi\AppData\Local\Temp\cc9dCqYX.s:2177   .text.zconfig_remove_link_header:0000000000000086 .L0 
C:\Users\stapi\AppData\Local\Temp\cc9dCqYX.s:2180   .text.zconfig_remove_link_header:000000000000008a .L0 
C:\Users\stapi\AppData\Local\Temp\cc9dCqYX.s:2184   .text.zconfig_remove_link_header:0000000000000094 .L0 
C:\Users\stapi\AppData\Local\Temp\cc9dCqYX.s:2187   .text.zconfig_remove_link_header:0000000000000098 .L0 
C:\Users\stapi\AppData\Local\Temp\cc9dCqYX.s:2194   .text.ieee80211_data_extract:0000000000000000 ieee80211_data_extract
C:\Users\stapi\AppData\Local\Temp\cc9dCqYX.s:2197   .text.ieee80211_data_extract:0000000000000000 .L0 
C:\Users\stapi\AppData\Local\Temp\cc9dCqYX.s:2199   .text.ieee80211_data_extract:0000000000000000 .L0 
C:\Users\stapi\AppData\Local\Temp\cc9dCqYX.s:2200   .text.ieee80211_data_extract:0000000000000008 .L0 
C:\Users\stapi\AppData\Local\Temp\cc9dCqYX.s:2201   .text.ieee80211_data_extract:0000000000000008 .L0 
C:\Users\stapi\AppData\Local\Temp\cc9dCqYX.s:2202   .text.ieee80211_data_extract:0000000000000008 .L0 
C:\Users\stapi\AppData\Local\Temp\cc9dCqYX.s:2203   .text.ieee80211_data_extract:0000000000000008 .L0 
C:\Users\stapi\AppData\Local\Temp\cc9dCqYX.s:2204   .text.ieee80211_data_extract:0000000000000008 .L0 
C:\Users\stapi\AppData\Local\Temp\cc9dCqYX.s:2205   .text.ieee80211_data_extract:0000000000000008 .L0 
C:\Users\stapi\AppData\Local\Temp\cc9dCqYX.s:2206   .text.ieee80211_data_extract:0000000000000008 .L0 
C:\Users\stapi\AppData\Local\Temp\cc9dCqYX.s:2207   .text.ieee80211_data_extract:0000000000000008 .L0 
C:\Users\stapi\AppData\Local\Temp\cc9dCqYX.s:2208   .text.ieee80211_data_extract:0000000000000008 .L0 
C:\Users\stapi\AppData\Local\Temp\cc9dCqYX.s:2209   .text.ieee80211_data_extract:0000000000000008 .L0 
C:\Users\stapi\AppData\Local\Temp\cc9dCqYX.s:2210   .text.ieee80211_data_extract:0000000000000008 .L0 
C:\Users\stapi\AppData\Local\Temp\cc9dCqYX.s:2212   .text.ieee80211_data_extract:0000000000000008 .L0 
C:\Users\stapi\AppData\Local\Temp\cc9dCqYX.s:2214   .text.ieee80211_data_extract:0000000000000008 .L0 
C:\Users\stapi\AppData\Local\Temp\cc9dCqYX.s:2215   .text.ieee80211_data_extract:0000000000000008 .L0 
C:\Users\stapi\AppData\Local\Temp\cc9dCqYX.s:2216   .text.ieee80211_data_extract:0000000000000008 .L0 
C:\Users\stapi\AppData\Local\Temp\cc9dCqYX.s:2217   .text.ieee80211_data_extract:0000000000000008 .L0 
C:\Users\stapi\AppData\Local\Temp\cc9dCqYX.s:2218   .text.ieee80211_data_extract:0000000000000008 .L0 
C:\Users\stapi\AppData\Local\Temp\cc9dCqYX.s:2219   .text.ieee80211_data_extract:000000000000000a .L0 
C:\Users\stapi\AppData\Local\Temp\cc9dCqYX.s:2221   .text.ieee80211_data_extract:000000000000000a .L0 
C:\Users\stapi\AppData\Local\Temp\cc9dCqYX.s:2224   .text.ieee80211_data_extract:000000000000000e .L0 
C:\Users\stapi\AppData\Local\Temp\cc9dCqYX.s:2229   .text.ieee80211_data_extract:0000000000000012 .L0 
C:\Users\stapi\AppData\Local\Temp\cc9dCqYX.s:2233   .text.ieee80211_data_extract:0000000000000018 .L0 
C:\Users\stapi\AppData\Local\Temp\cc9dCqYX.s:2236   .text.ieee80211_data_extract:0000000000000020 .L0 
C:\Users\stapi\AppData\Local\Temp\cc9dCqYX.s:2237   .text.ieee80211_data_extract:0000000000000020 .L0 
C:\Users\stapi\AppData\Local\Temp\cc9dCqYX.s:2242   .text.ieee80211_data_extract:0000000000000026 .L0 
C:\Users\stapi\AppData\Local\Temp\cc9dCqYX.s:2246   .text.ieee80211_data_extract:0000000000000028 .L0 
C:\Users\stapi\AppData\Local\Temp\cc9dCqYX.s:2247   .text.ieee80211_data_extract:000000000000002a .L0 
C:\Users\stapi\AppData\Local\Temp\cc9dCqYX.s:2248   .text.ieee80211_data_extract:000000000000002a .L0 
C:\Users\stapi\AppData\Local\Temp\cc9dCqYX.s:2250   .text.ieee80211_data_extract:0000000000000032 .L0 
C:\Users\stapi\AppData\Local\Temp\cc9dCqYX.s:2251   .text.ieee80211_data_extract:0000000000000032 .L0 
C:\Users\stapi\AppData\Local\Temp\cc9dCqYX.s:2252   .text.ieee80211_data_extract:0000000000000032 .L0 
C:\Users\stapi\AppData\Local\Temp\cc9dCqYX.s:2253   .text.ieee80211_data_extract:0000000000000032 .L0 
C:\Users\stapi\AppData\Local\Temp\cc9dCqYX.s:2254   .text.ieee80211_data_extract:0000000000000032 .L0 
C:\Users\stapi\AppData\Local\Temp\cc9dCqYX.s:2255   .text.ieee80211_data_extract:0000000000000032 .L0 
C:\Users\stapi\AppData\Local\Temp\cc9dCqYX.s:2256   .text.ieee80211_data_extract:0000000000000032 .L0 
C:\Users\stapi\AppData\Local\Temp\cc9dCqYX.s:2257   .text.ieee80211_data_extract:0000000000000032 .L0 
C:\Users\stapi\AppData\Local\Temp\cc9dCqYX.s:2258   .text.ieee80211_data_extract:0000000000000032 .L0 
C:\Users\stapi\AppData\Local\Temp\cc9dCqYX.s:2259   .text.ieee80211_data_extract:0000000000000032 .L0 
C:\Users\stapi\AppData\Local\Temp\cc9dCqYX.s:2260   .text.ieee80211_data_extract:0000000000000032 .L0 
C:\Users\stapi\AppData\Local\Temp\cc9dCqYX.s:2263   .text.ieee80211_data_extract:0000000000000032 .L0 
C:\Users\stapi\AppData\Local\Temp\cc9dCqYX.s:2265   .text.ieee80211_data_extract:0000000000000032 .L0 
C:\Users\stapi\AppData\Local\Temp\cc9dCqYX.s:2270   .text.ieee80211_data_extract:000000000000003c .L0 
C:\Users\stapi\AppData\Local\Temp\cc9dCqYX.s:2271   .text.ieee80211_data_extract:000000000000003c .L0 
C:\Users\stapi\AppData\Local\Temp\cc9dCqYX.s:2272   .text.ieee80211_data_extract:000000000000003c .L0 
C:\Users\stapi\AppData\Local\Temp\cc9dCqYX.s:2274   .text.ieee80211_data_extract:0000000000000040 .L0 
C:\Users\stapi\AppData\Local\Temp\cc9dCqYX.s:2277   .text.ieee80211_data_extract:0000000000000046 .L0 
C:\Users\stapi\AppData\Local\Temp\cc9dCqYX.s:2282   .text.ieee80211_data_extract:0000000000000048 .L0 
C:\Users\stapi\AppData\Local\Temp\cc9dCqYX.s:2283   .text.ieee80211_data_extract:0000000000000048 .L0 
C:\Users\stapi\AppData\Local\Temp\cc9dCqYX.s:2284   .text.ieee80211_data_extract:0000000000000048 .L0 
C:\Users\stapi\AppData\Local\Temp\cc9dCqYX.s:2287   .text.ieee80211_data_extract:000000000000004c .L0 
C:\Users\stapi\AppData\Local\Temp\cc9dCqYX.s:2288   .text.ieee80211_data_extract:000000000000004c .L0 
C:\Users\stapi\AppData\Local\Temp\cc9dCqYX.s:2293   .text.ieee80211_data_extract:000000000000004e .L0 
C:\Users\stapi\AppData\Local\Temp\cc9dCqYX.s:2294   .text.ieee80211_data_extract:000000000000004e .L0 
C:\Users\stapi\AppData\Local\Temp\cc9dCqYX.s:2297   .text.ieee80211_data_extract:0000000000000050 .L0 
C:\Users\stapi\AppData\Local\Temp\cc9dCqYX.s:2298   .text.ieee80211_data_extract:0000000000000050 .L0 
C:\Users\stapi\AppData\Local\Temp\cc9dCqYX.s:2305   .text.ieee80211_data_extract:0000000000000058 .L0 
C:\Users\stapi\AppData\Local\Temp\cc9dCqYX.s:2306   .text.ieee80211_data_extract:0000000000000058 .L0 
C:\Users\stapi\AppData\Local\Temp\cc9dCqYX.s:2314   .text.ieee80211_data_extract:0000000000000064 .L0 
C:\Users\stapi\AppData\Local\Temp\cc9dCqYX.s:2315   .text.ieee80211_data_extract:0000000000000064 .L0 
C:\Users\stapi\AppData\Local\Temp\cc9dCqYX.s:2318   .text.ieee80211_data_extract:0000000000000066 .L0 
C:\Users\stapi\AppData\Local\Temp\cc9dCqYX.s:2319   .text.ieee80211_data_extract:0000000000000066 .L0 
C:\Users\stapi\AppData\Local\Temp\cc9dCqYX.s:2320   .text.ieee80211_data_extract:0000000000000066 .L0 
C:\Users\stapi\AppData\Local\Temp\cc9dCqYX.s:2323   .text.ieee80211_data_extract:000000000000006c .L0 
C:\Users\stapi\AppData\Local\Temp\cc9dCqYX.s:2324   .text.ieee80211_data_extract:000000000000006c .L0 
C:\Users\stapi\AppData\Local\Temp\cc9dCqYX.s:2329   .text.ieee80211_data_extract:0000000000000076 .L0 
C:\Users\stapi\AppData\Local\Temp\cc9dCqYX.s:2331   .text.ieee80211_data_extract:0000000000000078 .L0 
C:\Users\stapi\AppData\Local\Temp\cc9dCqYX.s:2332   .text.ieee80211_data_extract:0000000000000078 .L0 
C:\Users\stapi\AppData\Local\Temp\cc9dCqYX.s:2336   .text.ieee80211_data_extract:0000000000000082 .L0 
C:\Users\stapi\AppData\Local\Temp\cc9dCqYX.s:2338   .text.ieee80211_data_extract:0000000000000084 .L0 
C:\Users\stapi\AppData\Local\Temp\cc9dCqYX.s:2339   .text.ieee80211_data_extract:0000000000000084 .L0 
C:\Users\stapi\AppData\Local\Temp\cc9dCqYX.s:2343   .text.ieee80211_data_extract:000000000000008e .L0 
C:\Users\stapi\AppData\Local\Temp\cc9dCqYX.s:2345   .text.ieee80211_data_extract:0000000000000090 .L0 
C:\Users\stapi\AppData\Local\Temp\cc9dCqYX.s:2346   .text.ieee80211_data_extract:0000000000000090 .L0 
C:\Users\stapi\AppData\Local\Temp\cc9dCqYX.s:2350   .text.ieee80211_data_extract:000000000000009a .L0 
C:\Users\stapi\AppData\Local\Temp\cc9dCqYX.s:2354   .text.ieee80211_data_extract:000000000000009e .L0 
C:\Users\stapi\AppData\Local\Temp\cc9dCqYX.s:2355   .text.ieee80211_data_extract:000000000000009e .L0 
C:\Users\stapi\AppData\Local\Temp\cc9dCqYX.s:2356   .text.ieee80211_data_extract:000000000000009e .L0 
C:\Users\stapi\AppData\Local\Temp\cc9dCqYX.s:2362   .text.ieee80211_data_extract:00000000000000a8 .L0 
C:\Users\stapi\AppData\Local\Temp\cc9dCqYX.s:2363   .text.ieee80211_data_extract:00000000000000a8 .L0 
C:\Users\stapi\AppData\Local\Temp\cc9dCqYX.s:2366   .text.ieee80211_data_extract:00000000000000aa .L0 
C:\Users\stapi\AppData\Local\Temp\cc9dCqYX.s:2367   .text.ieee80211_data_extract:00000000000000aa .L0 
C:\Users\stapi\AppData\Local\Temp\cc9dCqYX.s:2372   .text.ieee80211_data_extract:00000000000000ae .L0 
C:\Users\stapi\AppData\Local\Temp\cc9dCqYX.s:2373   .text.ieee80211_data_extract:00000000000000ae .L0 
C:\Users\stapi\AppData\Local\Temp\cc9dCqYX.s:2374   .text.ieee80211_data_extract:00000000000000ae .L0 
C:\Users\stapi\AppData\Local\Temp\cc9dCqYX.s:2375   .text.ieee80211_data_extract:00000000000000b0 .L0 
C:\Users\stapi\AppData\Local\Temp\cc9dCqYX.s:2385   .data.awss_protocol_couple_array:0000000000000000 awss_protocol_couple_array
C:\Users\stapi\AppData\Local\Temp\cc9dCqYX.s:2399   .rodata.wlan_fixed_scanning_channels:0000000000000000 wlan_fixed_scanning_channels
C:\Users\stapi\AppData\Local\Temp\cc9dCqYX.s:2382   .data.awss_protocol_couple_array:0000000000000000 .LANCHOR12
C:\Users\stapi\AppData\Local\Temp\cc9dCqYX.s:2403   .srodata.RSN_CIPHER_SUITE_CCMP23A:0000000000000000 .LANCHOR8
C:\Users\stapi\AppData\Local\Temp\cc9dCqYX.s:2406   .srodata.RSN_CIPHER_SUITE_CCMP23A:0000000000000000 RSN_CIPHER_SUITE_CCMP23A
C:\Users\stapi\AppData\Local\Temp\cc9dCqYX.s:2411   .srodata.RSN_CIPHER_SUITE_NONE23A:0000000000000000 .LANCHOR5
C:\Users\stapi\AppData\Local\Temp\cc9dCqYX.s:2414   .srodata.RSN_CIPHER_SUITE_NONE23A:0000000000000000 RSN_CIPHER_SUITE_NONE23A
C:\Users\stapi\AppData\Local\Temp\cc9dCqYX.s:2419   .srodata.RSN_CIPHER_SUITE_TKIP23A:0000000000000000 .LANCHOR7
C:\Users\stapi\AppData\Local\Temp\cc9dCqYX.s:2422   .srodata.RSN_CIPHER_SUITE_TKIP23A:0000000000000000 RSN_CIPHER_SUITE_TKIP23A
C:\Users\stapi\AppData\Local\Temp\cc9dCqYX.s:2427   .srodata.RSN_CIPHER_SUITE_WEP10423A:0000000000000000 .LANCHOR9
C:\Users\stapi\AppData\Local\Temp\cc9dCqYX.s:2430   .srodata.RSN_CIPHER_SUITE_WEP10423A:0000000000000000 RSN_CIPHER_SUITE_WEP10423A
C:\Users\stapi\AppData\Local\Temp\cc9dCqYX.s:2435   .srodata.RSN_CIPHER_SUITE_WEP4023A:0000000000000000 .LANCHOR6
C:\Users\stapi\AppData\Local\Temp\cc9dCqYX.s:2438   .srodata.RSN_CIPHER_SUITE_WEP4023A:0000000000000000 RSN_CIPHER_SUITE_WEP4023A
C:\Users\stapi\AppData\Local\Temp\cc9dCqYX.s:2443   .srodata.RSN_SUITE_1X:0000000000000000 .LANCHOR11
C:\Users\stapi\AppData\Local\Temp\cc9dCqYX.s:2446   .srodata.RSN_SUITE_1X:0000000000000000 RSN_SUITE_1X
C:\Users\stapi\AppData\Local\Temp\cc9dCqYX.s:2451   .srodata.WPA_CIPHER_SUITE_CCMP23A:0000000000000000 .LANCHOR3
C:\Users\stapi\AppData\Local\Temp\cc9dCqYX.s:2454   .srodata.WPA_CIPHER_SUITE_CCMP23A:0000000000000000 WPA_CIPHER_SUITE_CCMP23A
C:\Users\stapi\AppData\Local\Temp\cc9dCqYX.s:2459   .srodata.WPA_CIPHER_SUITE_NONE23A:0000000000000000 .LANCHOR0
C:\Users\stapi\AppData\Local\Temp\cc9dCqYX.s:2462   .srodata.WPA_CIPHER_SUITE_NONE23A:0000000000000000 WPA_CIPHER_SUITE_NONE23A
C:\Users\stapi\AppData\Local\Temp\cc9dCqYX.s:2467   .srodata.WPA_CIPHER_SUITE_TKIP23A:0000000000000000 .LANCHOR2
C:\Users\stapi\AppData\Local\Temp\cc9dCqYX.s:2470   .srodata.WPA_CIPHER_SUITE_TKIP23A:0000000000000000 WPA_CIPHER_SUITE_TKIP23A
C:\Users\stapi\AppData\Local\Temp\cc9dCqYX.s:2475   .srodata.WPA_CIPHER_SUITE_WEP10423A:0000000000000000 .LANCHOR4
C:\Users\stapi\AppData\Local\Temp\cc9dCqYX.s:2478   .srodata.WPA_CIPHER_SUITE_WEP10423A:0000000000000000 WPA_CIPHER_SUITE_WEP10423A
C:\Users\stapi\AppData\Local\Temp\cc9dCqYX.s:2483   .srodata.WPA_CIPHER_SUITE_WEP4023A:0000000000000000 .LANCHOR1
C:\Users\stapi\AppData\Local\Temp\cc9dCqYX.s:2486   .srodata.WPA_CIPHER_SUITE_WEP4023A:0000000000000000 WPA_CIPHER_SUITE_WEP4023A
C:\Users\stapi\AppData\Local\Temp\cc9dCqYX.s:2491   .srodata.WPA_OUI23A_TYPE:0000000000000000 .LANCHOR10
C:\Users\stapi\AppData\Local\Temp\cc9dCqYX.s:2494   .srodata.WPA_OUI23A_TYPE:0000000000000000 WPA_OUI23A_TYPE
C:\Users\stapi\AppData\Local\Temp\cc9dCqYX.s:109    .text.map_cipher_to_encry:0000000000000080 .L0 
C:\Users\stapi\AppData\Local\Temp\cc9dCqYX.s:198    .text.get_wpa_cipher_suite:000000000000008c .L0 
C:\Users\stapi\AppData\Local\Temp\cc9dCqYX.s:287    .text.get_wpa2_cipher_suite:000000000000008c .L0 
C:\Users\stapi\AppData\Local\Temp\cc9dCqYX.s:325    .text.ieee80211_is_ctl:0000000000000030 .L0 
C:\Users\stapi\AppData\Local\Temp\cc9dCqYX.s:363    .text.ieee80211_is_data:0000000000000030 .L0 
C:\Users\stapi\AppData\Local\Temp\cc9dCqYX.s:395    .text.ieee80211_has_tods:0000000000000024 .L0 
C:\Users\stapi\AppData\Local\Temp\cc9dCqYX.s:427    .text.ieee80211_has_fromds:0000000000000024 .L0 
C:\Users\stapi\AppData\Local\Temp\cc9dCqYX.s:461    .text.ieee80211_has_a4:0000000000000026 .L0 
C:\Users\stapi\AppData\Local\Temp\cc9dCqYX.s:493    .text.ieee80211_has_order:0000000000000022 .L0 
C:\Users\stapi\AppData\Local\Temp\cc9dCqYX.s:525    .text.ieee80211_has_protected:0000000000000022 .L0 
C:\Users\stapi\AppData\Local\Temp\cc9dCqYX.s:563    .text.ieee80211_is_data_qos:0000000000000034 .L0 
C:\Users\stapi\AppData\Local\Temp\cc9dCqYX.s:616    .text.ieee80211_is_data_exact:0000000000000044 .L0 
C:\Users\stapi\AppData\Local\Temp\cc9dCqYX.s:654    .text.ieee80211_is_beacon:0000000000000034 .L0 
C:\Users\stapi\AppData\Local\Temp\cc9dCqYX.s:692    .text.ieee80211_is_probe_req:0000000000000034 .L0 
C:\Users\stapi\AppData\Local\Temp\cc9dCqYX.s:730    .text.ieee80211_is_probe_resp:0000000000000034 .L0 
C:\Users\stapi\AppData\Local\Temp\cc9dCqYX.s:783    .text.ieee80211_get_SA:000000000000003c .L0 
C:\Users\stapi\AppData\Local\Temp\cc9dCqYX.s:825    .text.ieee80211_get_DA:000000000000002a .L0 
C:\Users\stapi\AppData\Local\Temp\cc9dCqYX.s:892    .text.ieee80211_get_BSSID:000000000000004c .L0 
C:\Users\stapi\AppData\Local\Temp\cc9dCqYX.s:941    .text.ieee80211_get_bssid:0000000000000030 .L0 
C:\Users\stapi\AppData\Local\Temp\cc9dCqYX.s:976    .text.ieee80211_has_frags:0000000000000026 .L0 
C:\Users\stapi\AppData\Local\Temp\cc9dCqYX.s:1082   .text.ieee80211_hdrlen:000000000000007e .L0 
C:\Users\stapi\AppData\Local\Temp\cc9dCqYX.s:1101   .text.ieee80211_get_radiotap_len:000000000000000a .L0 
C:\Users\stapi\AppData\Local\Temp\cc9dCqYX.s:1122   .text.ieee80211_is_invalid_pkg:000000000000000e .L0 
C:\Users\stapi\AppData\Local\Temp\cc9dCqYX.s:1184   .text.cfg80211_find_ie:0000000000000032 .L0 
C:\Users\stapi\AppData\Local\Temp\cc9dCqYX.s:1285   .text.cfg80211_find_vendor_ie:0000000000000064 .L0 
C:\Users\stapi\AppData\Local\Temp\cc9dCqYX.s:1367   .text.ieee80211_get_ssid:0000000000000050 .L0 
C:\Users\stapi\AppData\Local\Temp\cc9dCqYX.s:1459   .text.cfg80211_get_bss_channel:0000000000000066 .L0 
C:\Users\stapi\AppData\Local\Temp\cc9dCqYX.s:1667   .text.cfg80211_parse_wpa_info:00000000000000e6 .L0 
C:\Users\stapi\AppData\Local\Temp\cc9dCqYX.s:1879   .text.cfg80211_parse_wpa2_info:00000000000000f2 .L0 
C:\Users\stapi\AppData\Local\Temp\cc9dCqYX.s:2048   .text.cfg80211_get_cipher_info:00000000000000c8 .L0 
C:\Users\stapi\AppData\Local\Temp\cc9dCqYX.s:2190   .text.zconfig_remove_link_header:0000000000000098 .L0 
C:\Users\stapi\AppData\Local\Temp\cc9dCqYX.s:2380   .text.ieee80211_data_extract:00000000000000b0 .L0 
                     .debug_frame:0000000000000000 .L0 
C:\Users\stapi\AppData\Local\Temp\cc9dCqYX.s:11     .rodata.map_cipher_to_encry.str1.4:0000000000000000 .LC0
C:\Users\stapi\AppData\Local\Temp\cc9dCqYX.s:14     .rodata.map_cipher_to_encry.str1.4:0000000000000008 .LC1
C:\Users\stapi\AppData\Local\Temp\cc9dCqYX.s:17     .rodata.map_cipher_to_encry.str1.4:0000000000000024 .LC2
C:\Users\stapi\AppData\Local\Temp\cc9dCqYX.s:98     .text.map_cipher_to_encry:000000000000007a .L5
C:\Users\stapi\AppData\Local\Temp\cc9dCqYX.s:84     .text.map_cipher_to_encry:000000000000006c .L3
C:\Users\stapi\AppData\Local\Temp\cc9dCqYX.s:103    .text.map_cipher_to_encry:000000000000007e .L11
C:\Users\stapi\AppData\Local\Temp\cc9dCqYX.s:43     .text.map_cipher_to_encry:000000000000001c .L14
C:\Users\stapi\AppData\Local\Temp\cc9dCqYX.s:186    .text.get_wpa_cipher_suite:0000000000000082 .L15
C:\Users\stapi\AppData\Local\Temp\cc9dCqYX.s:275    .text.get_wpa2_cipher_suite:0000000000000082 .L23
C:\Users\stapi\AppData\Local\Temp\cc9dCqYX.s:608    .text.ieee80211_is_data_exact:0000000000000040 .L49
C:\Users\stapi\AppData\Local\Temp\cc9dCqYX.s:601    .text.ieee80211_is_data_exact:0000000000000038 .L47
C:\Users\stapi\AppData\Local\Temp\cc9dCqYX.s:771    .text.ieee80211_get_SA:0000000000000032 .L57
C:\Users\stapi\AppData\Local\Temp\cc9dCqYX.s:816    .text.ieee80211_get_DA:0000000000000024 .L64
C:\Users\stapi\AppData\Local\Temp\cc9dCqYX.s:809    .text.ieee80211_get_DA:000000000000001c .L63
C:\Users\stapi\AppData\Local\Temp\cc9dCqYX.s:875    .text.ieee80211_get_BSSID:0000000000000038 .L68
C:\Users\stapi\AppData\Local\Temp\cc9dCqYX.s:865    .text.ieee80211_get_BSSID:000000000000002e .L67
C:\Users\stapi\AppData\Local\Temp\cc9dCqYX.s:932    .text.ieee80211_get_bssid:000000000000002c .L76
C:\Users\stapi\AppData\Local\Temp\cc9dCqYX.s:924    .text.ieee80211_get_bssid:0000000000000024 .L74
C:\Users\stapi\AppData\Local\Temp\cc9dCqYX.s:1051   .text.ieee80211_hdrlen:000000000000004c .L81
C:\Users\stapi\AppData\Local\Temp\cc9dCqYX.s:1011   .text.ieee80211_hdrlen:0000000000000024 .L82
C:\Users\stapi\AppData\Local\Temp\cc9dCqYX.s:1032   .text.ieee80211_hdrlen:000000000000003e .L83
C:\Users\stapi\AppData\Local\Temp\cc9dCqYX.s:1043   .text.ieee80211_hdrlen:0000000000000048 .L84
C:\Users\stapi\AppData\Local\Temp\cc9dCqYX.s:1172   .text.cfg80211_find_ie:000000000000002a .L99
C:\Users\stapi\AppData\Local\Temp\cc9dCqYX.s:1160   .text.cfg80211_find_ie:0000000000000022 .L100
C:\Users\stapi\AppData\Local\Temp\cc9dCqYX.s:1176   .text.cfg80211_find_ie:000000000000002e .L103
C:\Users\stapi\AppData\Local\Temp\cc9dCqYX.s:1138   .text.cfg80211_find_ie:0000000000000006 .L98
C:\Users\stapi\AppData\Local\Temp\cc9dCqYX.s:1147   .text.cfg80211_find_ie:0000000000000016 .L101
C:\Users\stapi\AppData\Local\Temp\cc9dCqYX.s:1156   .text.cfg80211_find_ie:0000000000000020 .L97
C:\Users\stapi\AppData\Local\Temp\cc9dCqYX.s:1233   .text.cfg80211_find_vendor_ie:0000000000000022 .L108
C:\Users\stapi\AppData\Local\Temp\cc9dCqYX.s:1222   .text.cfg80211_find_vendor_ie:000000000000001a .L104
C:\Users\stapi\AppData\Local\Temp\cc9dCqYX.s:1274   .text.cfg80211_find_vendor_ie:000000000000005c .L107
C:\Users\stapi\AppData\Local\Temp\cc9dCqYX.s:1216   .text.cfg80211_find_vendor_ie:0000000000000014 .L105
C:\Users\stapi\AppData\Local\Temp\cc9dCqYX.s:1358   .text.ieee80211_get_ssid:000000000000004c .L115
C:\Users\stapi\AppData\Local\Temp\cc9dCqYX.s:1348   .text.ieee80211_get_ssid:0000000000000044 .L113
C:\Users\stapi\AppData\Local\Temp\cc9dCqYX.s:1427   .text.cfg80211_get_bss_channel:0000000000000044 .L119
C:\Users\stapi\AppData\Local\Temp\cc9dCqYX.s:1417   .text.cfg80211_get_bss_channel:000000000000003a .L118
C:\Users\stapi\AppData\Local\Temp\cc9dCqYX.s:1480   .text.cfg80211_parse_wpa_info:0000000000000008 .L128
C:\Users\stapi\AppData\Local\Temp\cc9dCqYX.s:1633   .text.cfg80211_parse_wpa_info:00000000000000ca .L130
C:\Users\stapi\AppData\Local\Temp\cc9dCqYX.s:1628   .text.cfg80211_parse_wpa_info:00000000000000c6 .L131
C:\Users\stapi\AppData\Local\Temp\cc9dCqYX.s:1651   .text.cfg80211_parse_wpa_info:00000000000000d4 .L133
C:\Users\stapi\AppData\Local\Temp\cc9dCqYX.s:1570   .text.cfg80211_parse_wpa_info:0000000000000072 .L134
C:\Users\stapi\AppData\Local\Temp\cc9dCqYX.s:1637   .text.cfg80211_parse_wpa_info:00000000000000cc .L127
C:\Users\stapi\AppData\Local\Temp\cc9dCqYX.s:1660   .text.cfg80211_parse_wpa_info:00000000000000e2 .L138
C:\Users\stapi\AppData\Local\Temp\cc9dCqYX.s:1538   .text.cfg80211_parse_wpa_info:000000000000004e .L132
C:\Users\stapi\AppData\Local\Temp\cc9dCqYX.s:1688   .text.cfg80211_parse_wpa2_info:0000000000000008 .L148
C:\Users\stapi\AppData\Local\Temp\cc9dCqYX.s:1845   .text.cfg80211_parse_wpa2_info:00000000000000d6 .L150
C:\Users\stapi\AppData\Local\Temp\cc9dCqYX.s:1840   .text.cfg80211_parse_wpa2_info:00000000000000d2 .L151
C:\Users\stapi\AppData\Local\Temp\cc9dCqYX.s:1863   .text.cfg80211_parse_wpa2_info:00000000000000e0 .L153
C:\Users\stapi\AppData\Local\Temp\cc9dCqYX.s:1782   .text.cfg80211_parse_wpa2_info:000000000000007e .L154
C:\Users\stapi\AppData\Local\Temp\cc9dCqYX.s:1849   .text.cfg80211_parse_wpa2_info:00000000000000d8 .L147
C:\Users\stapi\AppData\Local\Temp\cc9dCqYX.s:1872   .text.cfg80211_parse_wpa2_info:00000000000000ee .L158
C:\Users\stapi\AppData\Local\Temp\cc9dCqYX.s:1750   .text.cfg80211_parse_wpa2_info:000000000000005a .L152
C:\Users\stapi\AppData\Local\Temp\cc9dCqYX.s:2017   .text.cfg80211_get_cipher_info:00000000000000b0 .L168
C:\Users\stapi\AppData\Local\Temp\cc9dCqYX.s:1985   .text.cfg80211_get_cipher_info:000000000000008c .L171
C:\Users\stapi\AppData\Local\Temp\cc9dCqYX.s:1993   .text.cfg80211_get_cipher_info:0000000000000098 .L172
C:\Users\stapi\AppData\Local\Temp\cc9dCqYX.s:2002   .text.cfg80211_get_cipher_info:00000000000000a4 .L167
C:\Users\stapi\AppData\Local\Temp\cc9dCqYX.s:2038   .text.cfg80211_get_cipher_info:00000000000000c2 .L175
C:\Users\stapi\AppData\Local\Temp\cc9dCqYX.s:1978   .text.cfg80211_get_cipher_info:0000000000000084 .L170
C:\Users\stapi\AppData\Local\Temp\cc9dCqYX.s:2050   .rodata.zconfig_remove_link_header.str1.4:0000000000000000 .LC3
C:\Users\stapi\AppData\Local\Temp\cc9dCqYX.s:2139   .text.zconfig_remove_link_header:0000000000000064 .L193
C:\Users\stapi\AppData\Local\Temp\cc9dCqYX.s:2093   .text.zconfig_remove_link_header:0000000000000036 .L194
C:\Users\stapi\AppData\Local\Temp\cc9dCqYX.s:2128   .text.zconfig_remove_link_header:000000000000005a .L195
C:\Users\stapi\AppData\Local\Temp\cc9dCqYX.s:2115   .text.zconfig_remove_link_header:000000000000004a .L196
C:\Users\stapi\AppData\Local\Temp\cc9dCqYX.s:2079   .text.zconfig_remove_link_header:000000000000001e .L197
C:\Users\stapi\AppData\Local\Temp\cc9dCqYX.s:2166   .text.zconfig_remove_link_header:000000000000007a .L212
C:\Users\stapi\AppData\Local\Temp\cc9dCqYX.s:2262   .text.ieee80211_data_extract:0000000000000032 .L214
C:\Users\stapi\AppData\Local\Temp\cc9dCqYX.s:2302   .text.ieee80211_data_extract:0000000000000058 .L216
C:\Users\stapi\AppData\Local\Temp\cc9dCqYX.s:2279   .text.ieee80211_data_extract:0000000000000048 .L217
C:\Users\stapi\AppData\Local\Temp\cc9dCqYX.s:2240   .text.ieee80211_data_extract:0000000000000026 .L218
C:\Users\stapi\AppData\Local\Temp\cc9dCqYX.s:2290   .text.ieee80211_data_extract:000000000000004e .L220
C:\Users\stapi\AppData\Local\Temp\cc9dCqYX.s:2351   .text.ieee80211_data_extract:000000000000009e .L222
C:\Users\stapi\AppData\Local\Temp\cc9dCqYX.s:2244   .text.ieee80211_data_extract:0000000000000028 .L213
C:\Users\stapi\AppData\Local\Temp\cc9dCqYX.s:6046   .debug_abbrev:0000000000000000 .Ldebug_abbrev0
C:\Users\stapi\AppData\Local\Temp\cc9dCqYX.s:9014   .debug_str:0000000000000091 .LASF237
C:\Users\stapi\AppData\Local\Temp\cc9dCqYX.s:9344   .debug_str:0000000000000bc4 .LASF238
C:\Users\stapi\AppData\Local\Temp\cc9dCqYX.s:9294   .debug_str:00000000000009c5 .LASF239
C:\Users\stapi\AppData\Local\Temp\cc9dCqYX.s:8918   .debug_ranges:0000000000000000 .Ldebug_ranges0
C:\Users\stapi\AppData\Local\Temp\cc9dCqYX.s:8998   .debug_line:0000000000000000 .Ldebug_line0
C:\Users\stapi\AppData\Local\Temp\cc9dCqYX.s:9094   .debug_str:00000000000003ad .LASF0
C:\Users\stapi\AppData\Local\Temp\cc9dCqYX.s:9056   .debug_str:00000000000002a7 .LASF3
C:\Users\stapi\AppData\Local\Temp\cc9dCqYX.s:9118   .debug_str:000000000000045c .LASF1
C:\Users\stapi\AppData\Local\Temp\cc9dCqYX.s:9394   .debug_str:0000000000000dda .LASF2
C:\Users\stapi\AppData\Local\Temp\cc9dCqYX.s:9136   .debug_str:00000000000004bc .LASF4
C:\Users\stapi\AppData\Local\Temp\cc9dCqYX.s:9450   .debug_str:0000000000000fa6 .LASF5
C:\Users\stapi\AppData\Local\Temp\cc9dCqYX.s:9074   .debug_str:000000000000031d .LASF6
C:\Users\stapi\AppData\Local\Temp\cc9dCqYX.s:9232   .debug_str:00000000000007db .LASF7
C:\Users\stapi\AppData\Local\Temp\cc9dCqYX.s:9200   .debug_str:00000000000006d1 .LASF8
C:\Users\stapi\AppData\Local\Temp\cc9dCqYX.s:9234   .debug_str:00000000000007e6 .LASF9
C:\Users\stapi\AppData\Local\Temp\cc9dCqYX.s:9322   .debug_str:0000000000000b0b .LASF10
C:\Users\stapi\AppData\Local\Temp\cc9dCqYX.s:9260   .debug_str:0000000000000895 .LASF11
C:\Users\stapi\AppData\Local\Temp\cc9dCqYX.s:9096   .debug_str:00000000000003b9 .LASF12
C:\Users\stapi\AppData\Local\Temp\cc9dCqYX.s:9326   .debug_str:0000000000000b35 .LASF13
C:\Users\stapi\AppData\Local\Temp\cc9dCqYX.s:9430   .debug_str:0000000000000f03 .LASF14
C:\Users\stapi\AppData\Local\Temp\cc9dCqYX.s:9128   .debug_str:0000000000000495 .LASF15
C:\Users\stapi\AppData\Local\Temp\cc9dCqYX.s:9340   .debug_str:0000000000000ba3 .LASF16
C:\Users\stapi\AppData\Local\Temp\cc9dCqYX.s:9292   .debug_str:00000000000009b4 .LASF17
C:\Users\stapi\AppData\Local\Temp\cc9dCqYX.s:9108   .debug_str:0000000000000403 .LASF18
C:\Users\stapi\AppData\Local\Temp\cc9dCqYX.s:9102   .debug_str:00000000000003e2 .LASF19
C:\Users\stapi\AppData\Local\Temp\cc9dCqYX.s:9462   .debug_str:0000000000001000 .LASF20
C:\Users\stapi\AppData\Local\Temp\cc9dCqYX.s:9000   .debug_str:0000000000000000 .LASF21
C:\Users\stapi\AppData\Local\Temp\cc9dCqYX.s:9414   .debug_str:0000000000000e72 .LASF22
C:\Users\stapi\AppData\Local\Temp\cc9dCqYX.s:9052   .debug_str:000000000000028a .LASF23
C:\Users\stapi\AppData\Local\Temp\cc9dCqYX.s:9402   .debug_str:0000000000000e13 .LASF24
C:\Users\stapi\AppData\Local\Temp\cc9dCqYX.s:9202   .debug_str:00000000000006e3 .LASF25
C:\Users\stapi\AppData\Local\Temp\cc9dCqYX.s:9142   .debug_str:00000000000004f2 .LASF26
C:\Users\stapi\AppData\Local\Temp\cc9dCqYX.s:9156   .debug_str:0000000000000567 .LASF27
C:\Users\stapi\AppData\Local\Temp\cc9dCqYX.s:9440   .debug_str:0000000000000f5a .LASF28
C:\Users\stapi\AppData\Local\Temp\cc9dCqYX.s:9082   .debug_str:0000000000000348 .LASF29
C:\Users\stapi\AppData\Local\Temp\cc9dCqYX.s:9120   .debug_str:000000000000046a .LASF30
C:\Users\stapi\AppData\Local\Temp\cc9dCqYX.s:9092   .debug_str:000000000000039d .LASF31
C:\Users\stapi\AppData\Local\Temp\cc9dCqYX.s:9166   .debug_str:00000000000005ab .LASF32
C:\Users\stapi\AppData\Local\Temp\cc9dCqYX.s:9218   .debug_str:0000000000000763 .LASF33
C:\Users\stapi\AppData\Local\Temp\cc9dCqYX.s:9214   .debug_str:0000000000000749 .LASF34
C:\Users\stapi\AppData\Local\Temp\cc9dCqYX.s:9456   .debug_str:0000000000000fd9 .LASF35
C:\Users\stapi\AppData\Local\Temp\cc9dCqYX.s:9264   .debug_str:00000000000008bb .LASF36
C:\Users\stapi\AppData\Local\Temp\cc9dCqYX.s:9086   .debug_str:000000000000036c .LASF37
C:\Users\stapi\AppData\Local\Temp\cc9dCqYX.s:9332   .debug_str:0000000000000b58 .LASF38
C:\Users\stapi\AppData\Local\Temp\cc9dCqYX.s:9040   .debug_str:000000000000023f .LASF39
C:\Users\stapi\AppData\Local\Temp\cc9dCqYX.s:9288   .debug_str:000000000000098c .LASF40
C:\Users\stapi\AppData\Local\Temp\cc9dCqYX.s:9376   .debug_str:0000000000000d4f .LASF41
C:\Users\stapi\AppData\Local\Temp\cc9dCqYX.s:9274   .debug_str:0000000000000920 .LASF42
C:\Users\stapi\AppData\Local\Temp\cc9dCqYX.s:9412   .debug_str:0000000000000e5e .LASF43
C:\Users\stapi\AppData\Local\Temp\cc9dCqYX.s:9198   .debug_str:00000000000006bc .LASF44
C:\Users\stapi\AppData\Local\Temp\cc9dCqYX.s:9448   .debug_str:0000000000000f92 .LASF45
C:\Users\stapi\AppData\Local\Temp\cc9dCqYX.s:9220   .debug_str:000000000000077c .LASF46
C:\Users\stapi\AppData\Local\Temp\cc9dCqYX.s:9466   .debug_str:000000000000101a .LASF47
C:\Users\stapi\AppData\Local\Temp\cc9dCqYX.s:9434   .debug_str:0000000000000f23 .LASF48
C:\Users\stapi\AppData\Local\Temp\cc9dCqYX.s:9406   .debug_str:0000000000000e3a .LASF49
C:\Users\stapi\AppData\Local\Temp\cc9dCqYX.s:9184   .debug_str:000000000000064c .LASF54
C:\Users\stapi\AppData\Local\Temp\cc9dCqYX.s:9324   .debug_str:0000000000000b22 .LASF50
C:\Users\stapi\AppData\Local\Temp\cc9dCqYX.s:9194   .debug_str:0000000000000692 .LASF51
C:\Users\stapi\AppData\Local\Temp\cc9dCqYX.s:9428   .debug_str:0000000000000ee9 .LASF52
C:\Users\stapi\AppData\Local\Temp\cc9dCqYX.s:9338   .debug_str:0000000000000b85 .LASF53
C:\Users\stapi\AppData\Local\Temp\cc9dCqYX.s:9110   .debug_str:0000000000000414 .LASF55
C:\Users\stapi\AppData\Local\Temp\cc9dCqYX.s:9146   .debug_str:000000000000051d .LASF56
C:\Users\stapi\AppData\Local\Temp\cc9dCqYX.s:9422   .debug_str:0000000000000eb6 .LASF57
C:\Users\stapi\AppData\Local\Temp\cc9dCqYX.s:9374   .debug_str:0000000000000d3b .LASF58
C:\Users\stapi\AppData\Local\Temp\cc9dCqYX.s:9268   .debug_str:00000000000008da .LASF59
C:\Users\stapi\AppData\Local\Temp\cc9dCqYX.s:9458   .debug_str:0000000000000fe2 .LASF60
C:\Users\stapi\AppData\Local\Temp\cc9dCqYX.s:9278   .debug_str:000000000000093b .LASF61
C:\Users\stapi\AppData\Local\Temp\cc9dCqYX.s:9138   .debug_str:00000000000004c7 .LASF62
C:\Users\stapi\AppData\Local\Temp\cc9dCqYX.s:9188   .debug_str:0000000000000674 .LASF63
C:\Users\stapi\AppData\Local\Temp\cc9dCqYX.s:9418   .debug_str:0000000000000e9a .LASF64
C:\Users\stapi\AppData\Local\Temp\cc9dCqYX.s:9254   .debug_str:0000000000000877 .LASF65
C:\Users\stapi\AppData\Local\Temp\cc9dCqYX.s:9306   .debug_str:0000000000000aa1 .LASF66
C:\Users\stapi\AppData\Local\Temp\cc9dCqYX.s:9100   .debug_str:00000000000003d2 .LASF67
C:\Users\stapi\AppData\Local\Temp\cc9dCqYX.s:9342   .debug_str:0000000000000bb3 .LASF68
C:\Users\stapi\AppData\Local\Temp\cc9dCqYX.s:9368   .debug_str:0000000000000d14 .LASF69
C:\Users\stapi\AppData\Local\Temp\cc9dCqYX.s:9002   .debug_str:0000000000000012 .LASF70
C:\Users\stapi\AppData\Local\Temp\cc9dCqYX.s:9028   .debug_str:00000000000001e0 .LASF71
C:\Users\stapi\AppData\Local\Temp\cc9dCqYX.s:9022   .debug_str:000000000000019d .LASF72
C:\Users\stapi\AppData\Local\Temp\cc9dCqYX.s:9130   .debug_str:000000000000049a .LASF73
C:\Users\stapi\AppData\Local\Temp\cc9dCqYX.s:9452   .debug_str:0000000000000fb9 .LASF74
C:\Users\stapi\AppData\Local\Temp\cc9dCqYX.s:9356   .debug_str:0000000000000cc4 .LASF75
C:\Users\stapi\AppData\Local\Temp\cc9dCqYX.s:9250   .debug_str:0000000000000859 .LASF76
C:\Users\stapi\AppData\Local\Temp\cc9dCqYX.s:9180   .debug_str:000000000000062d .LASF77
C:\Users\stapi\AppData\Local\Temp\cc9dCqYX.s:9084   .debug_str:000000000000035b .LASF78
C:\Users\stapi\AppData\Local\Temp\cc9dCqYX.s:9470   .debug_str:000000000000104c .LASF79
C:\Users\stapi\AppData\Local\Temp\cc9dCqYX.s:9182   .debug_str:000000000000063c .LASF80
C:\Users\stapi\AppData\Local\Temp\cc9dCqYX.s:9226   .debug_str:00000000000007b0 .LASF81
C:\Users\stapi\AppData\Local\Temp\cc9dCqYX.s:9238   .debug_str:00000000000007f9 .LASF160
C:\Users\stapi\AppData\Local\Temp\cc9dCqYX.s:9112   .debug_str:0000000000000423 .LASF82
C:\Users\stapi\AppData\Local\Temp\cc9dCqYX.s:9228   .debug_str:00000000000007b8 .LASF83
C:\Users\stapi\AppData\Local\Temp\cc9dCqYX.s:9334   .debug_str:0000000000000b68 .LASF84
C:\Users\stapi\AppData\Local\Temp\cc9dCqYX.s:9286   .debug_str:000000000000097f .LASF85
C:\Users\stapi\AppData\Local\Temp\cc9dCqYX.s:9304   .debug_str:0000000000000a94 .LASF86
C:\Users\stapi\AppData\Local\Temp\cc9dCqYX.s:9444   .debug_str:0000000000000f7d .LASF87
C:\Users\stapi\AppData\Local\Temp\cc9dCqYX.s:9116   .debug_str:0000000000000449 .LASF88
C:\Users\stapi\AppData\Local\Temp\cc9dCqYX.s:9248   .debug_str:0000000000000847 .LASF89
C:\Users\stapi\AppData\Local\Temp\cc9dCqYX.s:9372   .debug_str:0000000000000d2b .LASF90
C:\Users\stapi\AppData\Local\Temp\cc9dCqYX.s:9346   .debug_str:0000000000000c63 .LASF91
C:\Users\stapi\AppData\Local\Temp\cc9dCqYX.s:9158   .debug_str:000000000000057f .LASF92
C:\Users\stapi\AppData\Local\Temp\cc9dCqYX.s:9358   .debug_str:0000000000000cd1 .LASF95
C:\Users\stapi\AppData\Local\Temp\cc9dCqYX.s:9360   .debug_str:0000000000000ce0 .LASF93
C:\Users\stapi\AppData\Local\Temp\cc9dCqYX.s:9054   .debug_str:000000000000029e .LASF94
C:\Users\stapi\AppData\Local\Temp\cc9dCqYX.s:9192   .debug_str:000000000000068a .LASF96
C:\Users\stapi\AppData\Local\Temp\cc9dCqYX.s:9266   .debug_str:00000000000008d1 .LASF97
C:\Users\stapi\AppData\Local\Temp\cc9dCqYX.s:9336   .debug_str:0000000000000b78 .LASF98
C:\Users\stapi\AppData\Local\Temp\cc9dCqYX.s:9164   .debug_str:000000000000059f .LASF99
C:\Users\stapi\AppData\Local\Temp\cc9dCqYX.s:9482   .debug_str:0000000000001079 .LASF100
C:\Users\stapi\AppData\Local\Temp\cc9dCqYX.s:9048   .debug_str:000000000000027c .LASF101
C:\Users\stapi\AppData\Local\Temp\cc9dCqYX.s:9400   .debug_str:0000000000000e06 .LASF102
C:\Users\stapi\AppData\Local\Temp\cc9dCqYX.s:9472   .debug_str:000000000000105c .LASF103
C:\Users\stapi\AppData\Local\Temp\cc9dCqYX.s:9408   .debug_str:0000000000000e4e .LASF104
C:\Users\stapi\AppData\Local\Temp\cc9dCqYX.s:9362   .debug_str:0000000000000ceb .LASF240
C:\Users\stapi\AppData\Local\Temp\cc9dCqYX.s:9106   .debug_str:00000000000003fc .LASF105
C:\Users\stapi\AppData\Local\Temp\cc9dCqYX.s:9348   .debug_str:0000000000000c70 .LASF106
C:\Users\stapi\AppData\Local\Temp\cc9dCqYX.s:9126   .debug_str:000000000000048a .LASF107
C:\Users\stapi\AppData\Local\Temp\cc9dCqYX.s:9072   .debug_str:0000000000000317 .LASF108
C:\Users\stapi\AppData\Local\Temp\cc9dCqYX.s:9320   .debug_str:0000000000000b06 .LASF109
C:\Users\stapi\AppData\Local\Temp\cc9dCqYX.s:9212   .debug_str:0000000000000741 .LASF110
C:\Users\stapi\AppData\Local\Temp\cc9dCqYX.s:9152   .debug_str:000000000000054b .LASF111
C:\Users\stapi\AppData\Local\Temp\cc9dCqYX.s:9252   .debug_str:0000000000000869 .LASF112
C:\Users\stapi\AppData\Local\Temp\cc9dCqYX.s:9382   .debug_str:0000000000000d88 .LASF113
C:\Users\stapi\AppData\Local\Temp\cc9dCqYX.s:9474   .debug_str:0000000000001061 .LASF114
C:\Users\stapi\AppData\Local\Temp\cc9dCqYX.s:9476   .debug_str:0000000000001067 .LASF115
C:\Users\stapi\AppData\Local\Temp\cc9dCqYX.s:9478   .debug_str:000000000000106d .LASF116
C:\Users\stapi\AppData\Local\Temp\cc9dCqYX.s:9330   .debug_str:0000000000000b4f .LASF117
C:\Users\stapi\AppData\Local\Temp\cc9dCqYX.s:9480   .debug_str:0000000000001073 .LASF118
C:\Users\stapi\AppData\Local\Temp\cc9dCqYX.s:9144   .debug_str:0000000000000503 .LASF119
C:\Users\stapi\AppData\Local\Temp\cc9dCqYX.s:9034   .debug_str:0000000000000218 .LASF120
C:\Users\stapi\AppData\Local\Temp\cc9dCqYX.s:9390   .debug_str:0000000000000db3 .LASF121
C:\Users\stapi\AppData\Local\Temp\cc9dCqYX.s:9066   .debug_str:0000000000000301 .LASF122
C:\Users\stapi\AppData\Local\Temp\cc9dCqYX.s:9446   .debug_str:0000000000000f87 .LASF123
C:\Users\stapi\AppData\Local\Temp\cc9dCqYX.s:9432   .debug_str:0000000000000f0c .LASF124
C:\Users\stapi\AppData\Local\Temp\cc9dCqYX.s:9280   .debug_str:0000000000000952 .LASF125
C:\Users\stapi\AppData\Local\Temp\cc9dCqYX.s:9396   .debug_str:0000000000000de4 .LASF126
C:\Users\stapi\AppData\Local\Temp\cc9dCqYX.s:9442   .debug_str:0000000000000f6e .LASF127
C:\Users\stapi\AppData\Local\Temp\cc9dCqYX.s:9388   .debug_str:0000000000000da8 .LASF128
C:\Users\stapi\AppData\Local\Temp\cc9dCqYX.s:9070   .debug_str:000000000000030d .LASF129
C:\Users\stapi\AppData\Local\Temp\cc9dCqYX.s:9454   .debug_str:0000000000000fc5 .LASF130
C:\Users\stapi\AppData\Local\Temp\cc9dCqYX.s:9150   .debug_str:0000000000000540 .LASF131
C:\Users\stapi\AppData\Local\Temp\cc9dCqYX.s:9436   .debug_str:0000000000000f38 .LASF132
C:\Users\stapi\AppData\Local\Temp\cc9dCqYX.s:9366   .debug_str:0000000000000d0a .LASF133
C:\Users\stapi\AppData\Local\Temp\cc9dCqYX.s:9296   .debug_str:0000000000000a56 .LASF134
C:\Users\stapi\AppData\Local\Temp\cc9dCqYX.s:9222   .debug_str:000000000000078a .LASF135
C:\Users\stapi\AppData\Local\Temp\cc9dCqYX.s:9302   .debug_str:0000000000000a8b .LASF136
C:\Users\stapi\AppData\Local\Temp\cc9dCqYX.s:9016   .debug_str:0000000000000178 .LASF137
C:\Users\stapi\AppData\Local\Temp\cc9dCqYX.s:9018   .debug_str:000000000000017f .LASF138
C:\Users\stapi\AppData\Local\Temp\cc9dCqYX.s:9162   .debug_str:0000000000000594 .LASF139
C:\Users\stapi\AppData\Local\Temp\cc9dCqYX.s:9310   .debug_str:0000000000000ab7 .LASF140
C:\Users\stapi\AppData\Local\Temp\cc9dCqYX.s:9104   .debug_str:00000000000003f3 .LASF141
C:\Users\stapi\AppData\Local\Temp\cc9dCqYX.s:9392   .debug_str:0000000000000dba .LASF142
C:\Users\stapi\AppData\Local\Temp\cc9dCqYX.s:9468   .debug_str:000000000000102d .LASF143
C:\Users\stapi\AppData\Local\Temp\cc9dCqYX.s:9210   .debug_str:0000000000000727 .LASF144
C:\Users\stapi\AppData\Local\Temp\cc9dCqYX.s:9042   .debug_str:0000000000000254 .LASF145
C:\Users\stapi\AppData\Local\Temp\cc9dCqYX.s:9378   .debug_str:0000000000000d64 .LASF146
C:\Users\stapi\AppData\Local\Temp\cc9dCqYX.s:9186   .debug_str:000000000000065a .LASF147
C:\Users\stapi\AppData\Local\Temp\cc9dCqYX.s:9140   .debug_str:00000000000004e2 .LASF148
C:\Users\stapi\AppData\Local\Temp\cc9dCqYX.s:9386   .debug_str:0000000000000d9b .LASF149
C:\Users\stapi\AppData\Local\Temp\cc9dCqYX.s:9354   .debug_str:0000000000000cab .LASF150
C:\Users\stapi\AppData\Local\Temp\cc9dCqYX.s:9350   .debug_str:0000000000000c78 .LASF151
C:\Users\stapi\AppData\Local\Temp\cc9dCqYX.s:9284   .debug_str:0000000000000966 .LASF152
C:\Users\stapi\AppData\Local\Temp\cc9dCqYX.s:9438   .debug_str:0000000000000f41 .LASF153
C:\Users\stapi\AppData\Local\Temp\cc9dCqYX.s:9224   .debug_str:0000000000000795 .LASF154
C:\Users\stapi\AppData\Local\Temp\cc9dCqYX.s:9088   .debug_str:000000000000037d .LASF155
C:\Users\stapi\AppData\Local\Temp\cc9dCqYX.s:9004   .debug_str:0000000000000026 .LASF156
C:\Users\stapi\AppData\Local\Temp\cc9dCqYX.s:9006   .debug_str:0000000000000040 .LASF157
C:\Users\stapi\AppData\Local\Temp\cc9dCqYX.s:9172   .debug_str:00000000000005eb .LASF158
C:\Users\stapi\AppData\Local\Temp\cc9dCqYX.s:9114   .debug_str:000000000000042e .LASF159
C:\Users\stapi\AppData\Local\Temp\cc9dCqYX.s:9270   .debug_str:00000000000008f0 .LASF161
C:\Users\stapi\AppData\Local\Temp\cc9dCqYX.s:9170   .debug_str:00000000000005d4 .LASF167
C:\Users\stapi\AppData\Local\Temp\cc9dCqYX.s:2195   .text.ieee80211_data_extract:0000000000000000 .LFB80
C:\Users\stapi\AppData\Local\Temp\cc9dCqYX.s:2376   .text.ieee80211_data_extract:00000000000000b0 .LFE80
C:\Users\stapi\AppData\Local\Temp\cc9dCqYX.s:7084   .debug_loc:0000000000000000 .LLST88
C:\Users\stapi\AppData\Local\Temp\cc9dCqYX.s:7096   .debug_loc:000000000000001f .LLST89
C:\Users\stapi\AppData\Local\Temp\cc9dCqYX.s:9256   .debug_str:0000000000000885 .LASF162
C:\Users\stapi\AppData\Local\Temp\cc9dCqYX.s:7108   .debug_loc:000000000000003e .LLST90
C:\Users\stapi\AppData\Local\Temp\cc9dCqYX.s:7119   .debug_loc:000000000000005c .LLST91
C:\Users\stapi\AppData\Local\Temp\cc9dCqYX.s:7130   .debug_loc:000000000000007a .LLST92
C:\Users\stapi\AppData\Local\Temp\cc9dCqYX.s:7144   .debug_loc:000000000000009b .LLST93
C:\Users\stapi\AppData\Local\Temp\cc9dCqYX.s:9038   .debug_str:0000000000000234 .LASF163
C:\Users\stapi\AppData\Local\Temp\cc9dCqYX.s:7159   .debug_loc:00000000000000c4 .LLST94
C:\Users\stapi\AppData\Local\Temp\cc9dCqYX.s:9380   .debug_str:0000000000000d7f .LASF164
C:\Users\stapi\AppData\Local\Temp\cc9dCqYX.s:7176   .debug_loc:00000000000000ef .LLST95
C:\Users\stapi\AppData\Local\Temp\cc9dCqYX.s:7193   .debug_loc:000000000000011a .LLST96
C:\Users\stapi\AppData\Local\Temp\cc9dCqYX.s:9124   .debug_str:0000000000000485 .LASF205
C:\Users\stapi\AppData\Local\Temp\cc9dCqYX.s:2364   .text.ieee80211_data_extract:00000000000000aa .L215
C:\Users\stapi\AppData\Local\Temp\cc9dCqYX.s:9154   .debug_str:0000000000000559 .LASF165
C:\Users\stapi\AppData\Local\Temp\cc9dCqYX.s:7205   .debug_loc:0000000000000139 .LLST97
C:\Users\stapi\AppData\Local\Temp\cc9dCqYX.s:2312   .text.ieee80211_data_extract:0000000000000064 .LVL271
C:\Users\stapi\AppData\Local\Temp\cc9dCqYX.s:2353   .text.ieee80211_data_extract:000000000000009e .LBB30
C:\Users\stapi\AppData\Local\Temp\cc9dCqYX.s:2370   .text.ieee80211_data_extract:00000000000000ae .LBE30
C:\Users\stapi\AppData\Local\Temp\cc9dCqYX.s:9060   .debug_str:00000000000002c8 .LASF166
C:\Users\stapi\AppData\Local\Temp\cc9dCqYX.s:7221   .debug_loc:0000000000000163 .LLST98
C:\Users\stapi\AppData\Local\Temp\cc9dCqYX.s:2369   .text.ieee80211_data_extract:00000000000000ae .LVL278
C:\Users\stapi\AppData\Local\Temp\cc9dCqYX.s:2234   .text.ieee80211_data_extract:0000000000000020 .LVL261
C:\Users\stapi\AppData\Local\Temp\cc9dCqYX.s:2327   .text.ieee80211_data_extract:0000000000000076 .LVL273
C:\Users\stapi\AppData\Local\Temp\cc9dCqYX.s:2334   .text.ieee80211_data_extract:0000000000000082 .LVL274
C:\Users\stapi\AppData\Local\Temp\cc9dCqYX.s:2341   .text.ieee80211_data_extract:000000000000008e .LVL275
C:\Users\stapi\AppData\Local\Temp\cc9dCqYX.s:2348   .text.ieee80211_data_extract:000000000000009a .LVL276
C:\Users\stapi\AppData\Local\Temp\cc9dCqYX.s:9024   .debug_str:00000000000001b1 .LASF168
C:\Users\stapi\AppData\Local\Temp\cc9dCqYX.s:2057   .text.zconfig_remove_link_header:0000000000000000 .LFB79
C:\Users\stapi\AppData\Local\Temp\cc9dCqYX.s:2188   .text.zconfig_remove_link_header:0000000000000098 .LFE79
C:\Users\stapi\AppData\Local\Temp\cc9dCqYX.s:7228   .debug_loc:0000000000000176 .LLST81
C:\Users\stapi\AppData\Local\Temp\cc9dCqYX.s:7239   .debug_loc:0000000000000194 .LLST82
C:\Users\stapi\AppData\Local\Temp\cc9dCqYX.s:7250   .debug_loc:00000000000001b2 .LLST83
C:\Users\stapi\AppData\Local\Temp\cc9dCqYX.s:9160   .debug_str:000000000000058d .LASF169
C:\Users\stapi\AppData\Local\Temp\cc9dCqYX.s:7297   .debug_loc:000000000000021e .LLST84
C:\Users\stapi\AppData\Local\Temp\cc9dCqYX.s:9208   .debug_str:0000000000000717 .LASF170
C:\Users\stapi\AppData\Local\Temp\cc9dCqYX.s:2175   .text.zconfig_remove_link_header:0000000000000086 .LBB27
C:\Users\stapi\AppData\Local\Temp\cc9dCqYX.s:2186   .text.zconfig_remove_link_header:0000000000000098 .LBE27
C:\Users\stapi\AppData\Local\Temp\cc9dCqYX.s:7328   .debug_loc:0000000000000266 .LLST87
C:\Users\stapi\AppData\Local\Temp\cc9dCqYX.s:2182   .text.zconfig_remove_link_header:0000000000000094 .LVL256
C:\Users\stapi\AppData\Local\Temp\cc9dCqYX.s:2142   .text.zconfig_remove_link_header:0000000000000064 .LBB25
C:\Users\stapi\AppData\Local\Temp\cc9dCqYX.s:2153   .text.zconfig_remove_link_header:0000000000000070 .LBE25
C:\Users\stapi\AppData\Local\Temp\cc9dCqYX.s:7335   .debug_loc:0000000000000279 .LLST85
C:\Users\stapi\AppData\Local\Temp\cc9dCqYX.s:2151   .text.zconfig_remove_link_header:0000000000000070 .LVL253
C:\Users\stapi\AppData\Local\Temp\cc9dCqYX.s:2089   .text.zconfig_remove_link_header:0000000000000034 .LVL246
C:\Users\stapi\AppData\Local\Temp\cc9dCqYX.s:9318   .debug_str:0000000000000aed .LASF171
C:\Users\stapi\AppData\Local\Temp\cc9dCqYX.s:1884   .text.cfg80211_get_cipher_info:0000000000000000 .LFB78
C:\Users\stapi\AppData\Local\Temp\cc9dCqYX.s:2046   .text.cfg80211_get_cipher_info:00000000000000c8 .LFE78
C:\Users\stapi\AppData\Local\Temp\cc9dCqYX.s:9464   .debug_str:000000000000100d .LASF172
C:\Users\stapi\AppData\Local\Temp\cc9dCqYX.s:7343   .debug_loc:000000000000028d .LLST71
C:\Users\stapi\AppData\Local\Temp\cc9dCqYX.s:9176   .debug_str:000000000000060f .LASF173
C:\Users\stapi\AppData\Local\Temp\cc9dCqYX.s:7363   .debug_loc:00000000000002bb .LLST72
C:\Users\stapi\AppData\Local\Temp\cc9dCqYX.s:9246   .debug_str:000000000000083d .LASF174
C:\Users\stapi\AppData\Local\Temp\cc9dCqYX.s:7377   .debug_loc:00000000000002dc .LLST73
C:\Users\stapi\AppData\Local\Temp\cc9dCqYX.s:9272   .debug_str:000000000000090b .LASF175
C:\Users\stapi\AppData\Local\Temp\cc9dCqYX.s:7388   .debug_loc:00000000000002fa .LLST74
C:\Users\stapi\AppData\Local\Temp\cc9dCqYX.s:9364   .debug_str:0000000000000cf8 .LASF176
C:\Users\stapi\AppData\Local\Temp\cc9dCqYX.s:7399   .debug_loc:0000000000000318 .LLST75
C:\Users\stapi\AppData\Local\Temp\cc9dCqYX.s:9240   .debug_str:0000000000000816 .LASF177
C:\Users\stapi\AppData\Local\Temp\cc9dCqYX.s:7410   .debug_loc:0000000000000336 .LLST76
C:\Users\stapi\AppData\Local\Temp\cc9dCqYX.s:9206   .debug_str:000000000000070c .LASF178
C:\Users\stapi\AppData\Local\Temp\cc9dCqYX.s:7430   .debug_loc:0000000000000364 .LLST77
C:\Users\stapi\AppData\Local\Temp\cc9dCqYX.s:9132   .debug_str:00000000000004a8 .LASF179
C:\Users\stapi\AppData\Local\Temp\cc9dCqYX.s:9314   .debug_str:0000000000000acf .LASF180
C:\Users\stapi\AppData\Local\Temp\cc9dCqYX.s:9236   .debug_str:00000000000007f4 .LASF181
C:\Users\stapi\AppData\Local\Temp\cc9dCqYX.s:7463   .debug_loc:000000000000039f .LLST78
C:\Users\stapi\AppData\Local\Temp\cc9dCqYX.s:9484   .debug_str:000000000000107e .LASF182
C:\Users\stapi\AppData\Local\Temp\cc9dCqYX.s:9030   .debug_str:00000000000001f0 .LASF183
C:\Users\stapi\AppData\Local\Temp\cc9dCqYX.s:9312   .debug_str:0000000000000ac6 .LASF184
C:\Users\stapi\AppData\Local\Temp\cc9dCqYX.s:7490   .debug_loc:00000000000003e2 .LLST79
C:\Users\stapi\AppData\Local\Temp\cc9dCqYX.s:7501   .debug_loc:0000000000000400 .LLST80
C:\Users\stapi\AppData\Local\Temp\cc9dCqYX.s:1935   .text.cfg80211_get_cipher_info:000000000000003a .LVL228
C:\Users\stapi\AppData\Local\Temp\cc9dCqYX.s:1950   .text.cfg80211_get_cipher_info:0000000000000058 .LVL229
C:\Users\stapi\AppData\Local\Temp\cc9dCqYX.s:1961   .text.cfg80211_get_cipher_info:000000000000006a .LVL232
C:\Users\stapi\AppData\Local\Temp\cc9dCqYX.s:1974   .text.cfg80211_get_cipher_info:0000000000000080 .LVL234
C:\Users\stapi\AppData\Local\Temp\cc9dCqYX.s:9352   .debug_str:0000000000000c92 .LASF185
C:\Users\stapi\AppData\Local\Temp\cc9dCqYX.s:1672   .text.cfg80211_parse_wpa2_info:0000000000000000 .LFB77
C:\Users\stapi\AppData\Local\Temp\cc9dCqYX.s:1877   .text.cfg80211_parse_wpa2_info:00000000000000f2 .LFE77
C:\Users\stapi\AppData\Local\Temp\cc9dCqYX.s:9424   .debug_str:0000000000000eca .LASF186
C:\Users\stapi\AppData\Local\Temp\cc9dCqYX.s:7518   .debug_loc:000000000000042b .LLST62
C:\Users\stapi\AppData\Local\Temp\cc9dCqYX.s:9134   .debug_str:00000000000004b1 .LASF187
C:\Users\stapi\AppData\Local\Temp\cc9dCqYX.s:7573   .debug_loc:00000000000004ad .LLST63
C:\Users\stapi\AppData\Local\Temp\cc9dCqYX.s:7613   .debug_loc:000000000000050b .LLST64
C:\Users\stapi\AppData\Local\Temp\cc9dCqYX.s:7642   .debug_loc:0000000000000550 .LLST65
C:\Users\stapi\AppData\Local\Temp\cc9dCqYX.s:9410   .debug_str:0000000000000e55 .LASF188
C:\Users\stapi\AppData\Local\Temp\cc9dCqYX.s:7668   .debug_loc:0000000000000592 .LLST66
C:\Users\stapi\AppData\Local\Temp\cc9dCqYX.s:7679   .debug_loc:00000000000005b0 .LLST67
C:\Users\stapi\AppData\Local\Temp\cc9dCqYX.s:9190   .debug_str:0000000000000685 .LASF189
C:\Users\stapi\AppData\Local\Temp\cc9dCqYX.s:7700   .debug_loc:00000000000005e6 .LLST68
C:\Users\stapi\AppData\Local\Temp\cc9dCqYX.s:9258   .debug_str:000000000000088f .LASF190
C:\Users\stapi\AppData\Local\Temp\cc9dCqYX.s:7715   .debug_loc:000000000000060f .LLST69
C:\Users\stapi\AppData\Local\Temp\cc9dCqYX.s:7728   .debug_loc:000000000000062f .LLST70
C:\Users\stapi\AppData\Local\Temp\cc9dCqYX.s:1739   .text.cfg80211_parse_wpa2_info:000000000000004e .LVL201
C:\Users\stapi\AppData\Local\Temp\cc9dCqYX.s:1759   .text.cfg80211_parse_wpa2_info:000000000000006a .LVL204
C:\Users\stapi\AppData\Local\Temp\cc9dCqYX.s:1787   .text.cfg80211_parse_wpa2_info:0000000000000088 .LVL209
C:\Users\stapi\AppData\Local\Temp\cc9dCqYX.s:1831   .text.cfg80211_parse_wpa2_info:00000000000000c8 .LVL215
C:\Users\stapi\AppData\Local\Temp\cc9dCqYX.s:9044   .debug_str:0000000000000259 .LASF191
C:\Users\stapi\AppData\Local\Temp\cc9dCqYX.s:1464   .text.cfg80211_parse_wpa_info:0000000000000000 .LFB76
C:\Users\stapi\AppData\Local\Temp\cc9dCqYX.s:1665   .text.cfg80211_parse_wpa_info:00000000000000e6 .LFE76
C:\Users\stapi\AppData\Local\Temp\cc9dCqYX.s:9090   .debug_str:0000000000000396 .LASF192
C:\Users\stapi\AppData\Local\Temp\cc9dCqYX.s:7769   .debug_loc:0000000000000687 .LLST53
C:\Users\stapi\AppData\Local\Temp\cc9dCqYX.s:9080   .debug_str:000000000000033d .LASF193
C:\Users\stapi\AppData\Local\Temp\cc9dCqYX.s:7824   .debug_loc:0000000000000709 .LLST54
C:\Users\stapi\AppData\Local\Temp\cc9dCqYX.s:7864   .debug_loc:0000000000000767 .LLST55
C:\Users\stapi\AppData\Local\Temp\cc9dCqYX.s:7893   .debug_loc:00000000000007ac .LLST56
C:\Users\stapi\AppData\Local\Temp\cc9dCqYX.s:7919   .debug_loc:00000000000007ee .LLST57
C:\Users\stapi\AppData\Local\Temp\cc9dCqYX.s:7930   .debug_loc:000000000000080c .LLST58
C:\Users\stapi\AppData\Local\Temp\cc9dCqYX.s:7951   .debug_loc:0000000000000842 .LLST59
C:\Users\stapi\AppData\Local\Temp\cc9dCqYX.s:7966   .debug_loc:000000000000086b .LLST60
C:\Users\stapi\AppData\Local\Temp\cc9dCqYX.s:7979   .debug_loc:000000000000088b .LLST61
C:\Users\stapi\AppData\Local\Temp\cc9dCqYX.s:1527   .text.cfg80211_parse_wpa_info:0000000000000042 .LVL173
C:\Users\stapi\AppData\Local\Temp\cc9dCqYX.s:1547   .text.cfg80211_parse_wpa_info:000000000000005e .LVL176
C:\Users\stapi\AppData\Local\Temp\cc9dCqYX.s:1575   .text.cfg80211_parse_wpa_info:000000000000007c .LVL181
C:\Users\stapi\AppData\Local\Temp\cc9dCqYX.s:1619   .text.cfg80211_parse_wpa_info:00000000000000bc .LVL187
C:\Users\stapi\AppData\Local\Temp\cc9dCqYX.s:9196   .debug_str:00000000000006a6 .LASF194
C:\Users\stapi\AppData\Local\Temp\cc9dCqYX.s:9230   .debug_str:00000000000007c6 .LASF195
C:\Users\stapi\AppData\Local\Temp\cc9dCqYX.s:9020   .debug_str:0000000000000189 .LASF241
C:\Users\stapi\AppData\Local\Temp\cc9dCqYX.s:23     .text.map_cipher_to_encry:0000000000000000 .LFB73
C:\Users\stapi\AppData\Local\Temp\cc9dCqYX.s:107    .text.map_cipher_to_encry:0000000000000080 .LFE73
C:\Users\stapi\AppData\Local\Temp\cc9dCqYX.s:9384   .debug_str:0000000000000d94 .LASF196
C:\Users\stapi\AppData\Local\Temp\cc9dCqYX.s:8020   .debug_loc:00000000000008e3 .LLST0
C:\Users\stapi\AppData\Local\Temp\cc9dCqYX.s:61     .text.map_cipher_to_encry:000000000000003c .LVL2
C:\Users\stapi\AppData\Local\Temp\cc9dCqYX.s:67     .text.map_cipher_to_encry:000000000000004e .LVL3
C:\Users\stapi\AppData\Local\Temp\cc9dCqYX.s:72     .text.map_cipher_to_encry:000000000000005e .LVL4
C:\Users\stapi\AppData\Local\Temp\cc9dCqYX.s:9398   .debug_str:0000000000000ded .LASF197
C:\Users\stapi\AppData\Local\Temp\cc9dCqYX.s:1372   .text.cfg80211_get_bss_channel:0000000000000000 .LFB72
C:\Users\stapi\AppData\Local\Temp\cc9dCqYX.s:1457   .text.cfg80211_get_bss_channel:0000000000000066 .LFE72
C:\Users\stapi\AppData\Local\Temp\cc9dCqYX.s:8056   .debug_loc:0000000000000936 .LLST47
C:\Users\stapi\AppData\Local\Temp\cc9dCqYX.s:8099   .debug_loc:0000000000000989 .LLST48
C:\Users\stapi\AppData\Local\Temp\cc9dCqYX.s:8113   .debug_loc:00000000000009aa .LLST49
C:\Users\stapi\AppData\Local\Temp\cc9dCqYX.s:8135   .debug_loc:00000000000009e1 .LLST50
C:\Users\stapi\AppData\Local\Temp\cc9dCqYX.s:8144   .debug_loc:00000000000009f6 .LLST51
C:\Users\stapi\AppData\Local\Temp\cc9dCqYX.s:9078   .debug_str:000000000000032e .LASF198
C:\Users\stapi\AppData\Local\Temp\cc9dCqYX.s:8163   .debug_loc:0000000000000a2a .LLST52
C:\Users\stapi\AppData\Local\Temp\cc9dCqYX.s:1447   .text.cfg80211_get_bss_channel:0000000000000060 .LBB24
C:\Users\stapi\AppData\Local\Temp\cc9dCqYX.s:1455   .text.cfg80211_get_bss_channel:0000000000000066 .LBE24
C:\Users\stapi\AppData\Local\Temp\cc9dCqYX.s:9308   .debug_str:0000000000000ab2 .LASF199
C:\Users\stapi\AppData\Local\Temp\cc9dCqYX.s:1403   .text.cfg80211_get_bss_channel:0000000000000026 .LVL155
C:\Users\stapi\AppData\Local\Temp\cc9dCqYX.s:1434   .text.cfg80211_get_bss_channel:0000000000000050 .LVL160
C:\Users\stapi\AppData\Local\Temp\cc9dCqYX.s:9290   .debug_str:00000000000009a1 .LASF200
C:\Users\stapi\AppData\Local\Temp\cc9dCqYX.s:1290   .text.ieee80211_get_ssid:0000000000000000 .LFB71
C:\Users\stapi\AppData\Local\Temp\cc9dCqYX.s:1365   .text.ieee80211_get_ssid:0000000000000050 .LFE71
C:\Users\stapi\AppData\Local\Temp\cc9dCqYX.s:8180   .debug_loc:0000000000000a55 .LLST42
C:\Users\stapi\AppData\Local\Temp\cc9dCqYX.s:8200   .debug_loc:0000000000000a83 .LLST43
C:\Users\stapi\AppData\Local\Temp\cc9dCqYX.s:9068   .debug_str:0000000000000308 .LASF201
C:\Users\stapi\AppData\Local\Temp\cc9dCqYX.s:8214   .debug_loc:0000000000000aa4 .LLST44
C:\Users\stapi\AppData\Local\Temp\cc9dCqYX.s:8236   .debug_loc:0000000000000adb .LLST45
C:\Users\stapi\AppData\Local\Temp\cc9dCqYX.s:9486   .debug_str:000000000000108b .LASF202
C:\Users\stapi\AppData\Local\Temp\cc9dCqYX.s:8257   .debug_loc:0000000000000b11 .LLST46
C:\Users\stapi\AppData\Local\Temp\cc9dCqYX.s:1338   .text.ieee80211_get_ssid:000000000000003c .LVL145
C:\Users\stapi\AppData\Local\Temp\cc9dCqYX.s:1312   .text.ieee80211_get_ssid:000000000000001c .LVL141
C:\Users\stapi\AppData\Local\Temp\cc9dCqYX.s:9426   .debug_str:0000000000000ed1 .LASF203
C:\Users\stapi\AppData\Local\Temp\cc9dCqYX.s:1189   .text.cfg80211_find_vendor_ie:0000000000000000 .LFB70
C:\Users\stapi\AppData\Local\Temp\cc9dCqYX.s:1283   .text.cfg80211_find_vendor_ie:0000000000000064 .LFE70
C:\Users\stapi\AppData\Local\Temp\cc9dCqYX.s:8264   .debug_loc:0000000000000b24 .LLST36
C:\Users\stapi\AppData\Local\Temp\cc9dCqYX.s:8275   .debug_loc:0000000000000b42 .LLST37
C:\Users\stapi\AppData\Local\Temp\cc9dCqYX.s:8289   .debug_loc:0000000000000b63 .LLST38
C:\Users\stapi\AppData\Local\Temp\cc9dCqYX.s:8303   .debug_loc:0000000000000b84 .LLST39
C:\Users\stapi\AppData\Local\Temp\cc9dCqYX.s:8317   .debug_loc:0000000000000ba5 .LLST40
C:\Users\stapi\AppData\Local\Temp\cc9dCqYX.s:9276   .debug_str:0000000000000934 .LASF204
C:\Users\stapi\AppData\Local\Temp\cc9dCqYX.s:8340   .debug_loc:0000000000000be4 .LLST41
C:\Users\stapi\AppData\Local\Temp\cc9dCqYX.s:9050   .debug_str:0000000000000285 .LASF206
C:\Users\stapi\AppData\Local\Temp\cc9dCqYX.s:1240   .text.cfg80211_find_vendor_ie:0000000000000032 .LVL131
C:\Users\stapi\AppData\Local\Temp\cc9dCqYX.s:9216   .debug_str:0000000000000752 .LASF207
C:\Users\stapi\AppData\Local\Temp\cc9dCqYX.s:1127   .text.cfg80211_find_ie:0000000000000000 .LFB69
C:\Users\stapi\AppData\Local\Temp\cc9dCqYX.s:1182   .text.cfg80211_find_ie:0000000000000032 .LFE69
C:\Users\stapi\AppData\Local\Temp\cc9dCqYX.s:8374   .debug_loc:0000000000000c12 .LLST33
C:\Users\stapi\AppData\Local\Temp\cc9dCqYX.s:8388   .debug_loc:0000000000000c33 .LLST34
C:\Users\stapi\AppData\Local\Temp\cc9dCqYX.s:8403   .debug_loc:0000000000000c5c .LLST35
C:\Users\stapi\AppData\Local\Temp\cc9dCqYX.s:9262   .debug_str:00000000000008a2 .LASF208
C:\Users\stapi\AppData\Local\Temp\cc9dCqYX.s:1106   .text.ieee80211_is_invalid_pkg:0000000000000000 .LFB68
C:\Users\stapi\AppData\Local\Temp\cc9dCqYX.s:1120   .text.ieee80211_is_invalid_pkg:000000000000000e .LFE68
C:\Users\stapi\AppData\Local\Temp\cc9dCqYX.s:9460   .debug_str:0000000000000ff7 .LASF209
C:\Users\stapi\AppData\Local\Temp\cc9dCqYX.s:8414   .debug_loc:0000000000000c7a .LLST32
C:\Users\stapi\AppData\Local\Temp\cc9dCqYX.s:9122   .debug_str:000000000000047a .LASF210
C:\Users\stapi\AppData\Local\Temp\cc9dCqYX.s:9064   .debug_str:00000000000002e6 .LASF215
C:\Users\stapi\AppData\Local\Temp\cc9dCqYX.s:9242   .debug_str:000000000000081b .LASF211
C:\Users\stapi\AppData\Local\Temp\cc9dCqYX.s:981    .text.ieee80211_hdrlen:0000000000000000 .LFB66
C:\Users\stapi\AppData\Local\Temp\cc9dCqYX.s:1080   .text.ieee80211_hdrlen:000000000000007e .LFE66
C:\Users\stapi\AppData\Local\Temp\cc9dCqYX.s:8428   .debug_loc:0000000000000c9b .LLST28
C:\Users\stapi\AppData\Local\Temp\cc9dCqYX.s:9282   .debug_str:000000000000095f .LASF212
C:\Users\stapi\AppData\Local\Temp\cc9dCqYX.s:8442   .debug_loc:0000000000000cbc .LLST29
C:\Users\stapi\AppData\Local\Temp\cc9dCqYX.s:997    .text.ieee80211_hdrlen:0000000000000012 .LVL99
C:\Users\stapi\AppData\Local\Temp\cc9dCqYX.s:1004   .text.ieee80211_hdrlen:000000000000001e .LVL100
C:\Users\stapi\AppData\Local\Temp\cc9dCqYX.s:1017   .text.ieee80211_hdrlen:000000000000002e .LVL102
C:\Users\stapi\AppData\Local\Temp\cc9dCqYX.s:1026   .text.ieee80211_hdrlen:000000000000003a .LVL104
C:\Users\stapi\AppData\Local\Temp\cc9dCqYX.s:1056   .text.ieee80211_hdrlen:0000000000000056 .LVL109
C:\Users\stapi\AppData\Local\Temp\cc9dCqYX.s:1065   .text.ieee80211_hdrlen:0000000000000066 .LVL110
C:\Users\stapi\AppData\Local\Temp\cc9dCqYX.s:1071   .text.ieee80211_hdrlen:0000000000000074 .LVL111
C:\Users\stapi\AppData\Local\Temp\cc9dCqYX.s:9416   .debug_str:0000000000000e86 .LASF213
C:\Users\stapi\AppData\Local\Temp\cc9dCqYX.s:946    .text.ieee80211_has_frags:0000000000000000 .LFB65
C:\Users\stapi\AppData\Local\Temp\cc9dCqYX.s:974    .text.ieee80211_has_frags:0000000000000026 .LFE65
C:\Users\stapi\AppData\Local\Temp\cc9dCqYX.s:8479   .debug_loc:0000000000000d17 .LLST26
C:\Users\stapi\AppData\Local\Temp\cc9dCqYX.s:8493   .debug_loc:0000000000000d38 .LLST27
C:\Users\stapi\AppData\Local\Temp\cc9dCqYX.s:962    .text.ieee80211_has_frags:0000000000000018 .LVL95
C:\Users\stapi\AppData\Local\Temp\cc9dCqYX.s:9026   .debug_str:00000000000001cc .LASF214
C:\Users\stapi\AppData\Local\Temp\cc9dCqYX.s:897    .text.ieee80211_get_bssid:0000000000000000 .LFB64
C:\Users\stapi\AppData\Local\Temp\cc9dCqYX.s:939    .text.ieee80211_get_bssid:0000000000000030 .LFE64
C:\Users\stapi\AppData\Local\Temp\cc9dCqYX.s:8505   .debug_loc:0000000000000d50 .LLST23
C:\Users\stapi\AppData\Local\Temp\cc9dCqYX.s:8519   .debug_loc:0000000000000d71 .LLST24
C:\Users\stapi\AppData\Local\Temp\cc9dCqYX.s:8530   .debug_loc:0000000000000d8f .LLST25
C:\Users\stapi\AppData\Local\Temp\cc9dCqYX.s:910    .text.ieee80211_get_bssid:0000000000000012 .LVL88
C:\Users\stapi\AppData\Local\Temp\cc9dCqYX.s:920    .text.ieee80211_get_bssid:0000000000000022 .LVL90
C:\Users\stapi\AppData\Local\Temp\cc9dCqYX.s:9178   .debug_str:0000000000000619 .LASF216
C:\Users\stapi\AppData\Local\Temp\cc9dCqYX.s:9012   .debug_str:0000000000000080 .LASF217
C:\Users\stapi\AppData\Local\Temp\cc9dCqYX.s:788    .text.ieee80211_get_DA:0000000000000000 .LFB62
C:\Users\stapi\AppData\Local\Temp\cc9dCqYX.s:823    .text.ieee80211_get_DA:000000000000002a .LFE62
C:\Users\stapi\AppData\Local\Temp\cc9dCqYX.s:8545   .debug_loc:0000000000000db8 .LLST20
C:\Users\stapi\AppData\Local\Temp\cc9dCqYX.s:803    .text.ieee80211_get_DA:0000000000000016 .LVL79
C:\Users\stapi\AppData\Local\Temp\cc9dCqYX.s:9244   .debug_str:000000000000082c .LASF218
C:\Users\stapi\AppData\Local\Temp\cc9dCqYX.s:9032   .debug_str:0000000000000200 .LASF219
C:\Users\stapi\AppData\Local\Temp\cc9dCqYX.s:697    .text.ieee80211_is_probe_resp:0000000000000000 .LFB60
C:\Users\stapi\AppData\Local\Temp\cc9dCqYX.s:728    .text.ieee80211_is_probe_resp:0000000000000034 .LFE60
C:\Users\stapi\AppData\Local\Temp\cc9dCqYX.s:8556   .debug_loc:0000000000000dd6 .LLST17
C:\Users\stapi\AppData\Local\Temp\cc9dCqYX.s:712    .text.ieee80211_is_probe_resp:0000000000000016 .LVL69
C:\Users\stapi\AppData\Local\Temp\cc9dCqYX.s:718    .text.ieee80211_is_probe_resp:0000000000000024 .LVL70
C:\Users\stapi\AppData\Local\Temp\cc9dCqYX.s:9058   .debug_str:00000000000002b1 .LASF220
C:\Users\stapi\AppData\Local\Temp\cc9dCqYX.s:659    .text.ieee80211_is_probe_req:0000000000000000 .LFB59
C:\Users\stapi\AppData\Local\Temp\cc9dCqYX.s:690    .text.ieee80211_is_probe_req:0000000000000034 .LFE59
C:\Users\stapi\AppData\Local\Temp\cc9dCqYX.s:8570   .debug_loc:0000000000000df7 .LLST16
C:\Users\stapi\AppData\Local\Temp\cc9dCqYX.s:674    .text.ieee80211_is_probe_req:0000000000000016 .LVL65
C:\Users\stapi\AppData\Local\Temp\cc9dCqYX.s:680    .text.ieee80211_is_probe_req:0000000000000024 .LVL66
C:\Users\stapi\AppData\Local\Temp\cc9dCqYX.s:9300   .debug_str:0000000000000a77 .LASF221
C:\Users\stapi\AppData\Local\Temp\cc9dCqYX.s:621    .text.ieee80211_is_beacon:0000000000000000 .LFB58
C:\Users\stapi\AppData\Local\Temp\cc9dCqYX.s:652    .text.ieee80211_is_beacon:0000000000000034 .LFE58
C:\Users\stapi\AppData\Local\Temp\cc9dCqYX.s:8584   .debug_loc:0000000000000e18 .LLST15
C:\Users\stapi\AppData\Local\Temp\cc9dCqYX.s:636    .text.ieee80211_is_beacon:0000000000000016 .LVL61
C:\Users\stapi\AppData\Local\Temp\cc9dCqYX.s:642    .text.ieee80211_is_beacon:0000000000000024 .LVL62
C:\Users\stapi\AppData\Local\Temp\cc9dCqYX.s:9316   .debug_str:0000000000000ad5 .LASF222
C:\Users\stapi\AppData\Local\Temp\cc9dCqYX.s:568    .text.ieee80211_is_data_exact:0000000000000000 .LFB57
C:\Users\stapi\AppData\Local\Temp\cc9dCqYX.s:614    .text.ieee80211_is_data_exact:0000000000000044 .LFE57
C:\Users\stapi\AppData\Local\Temp\cc9dCqYX.s:8598   .debug_loc:0000000000000e39 .LLST14
C:\Users\stapi\AppData\Local\Temp\cc9dCqYX.s:583    .text.ieee80211_is_data_exact:0000000000000016 .LVL55
C:\Users\stapi\AppData\Local\Temp\cc9dCqYX.s:591    .text.ieee80211_is_data_exact:0000000000000022 .LVL57
C:\Users\stapi\AppData\Local\Temp\cc9dCqYX.s:597    .text.ieee80211_is_data_exact:0000000000000032 .LVL58
C:\Users\stapi\AppData\Local\Temp\cc9dCqYX.s:9298   .debug_str:0000000000000a61 .LASF223
C:\Users\stapi\AppData\Local\Temp\cc9dCqYX.s:530    .text.ieee80211_is_data_qos:0000000000000000 .LFB56
C:\Users\stapi\AppData\Local\Temp\cc9dCqYX.s:561    .text.ieee80211_is_data_qos:0000000000000034 .LFE56
C:\Users\stapi\AppData\Local\Temp\cc9dCqYX.s:8612   .debug_loc:0000000000000e5a .LLST13
C:\Users\stapi\AppData\Local\Temp\cc9dCqYX.s:545    .text.ieee80211_is_data_qos:0000000000000016 .LVL51
C:\Users\stapi\AppData\Local\Temp\cc9dCqYX.s:551    .text.ieee80211_is_data_qos:0000000000000024 .LVL52
C:\Users\stapi\AppData\Local\Temp\cc9dCqYX.s:9204   .debug_str:00000000000006f4 .LASF224
C:\Users\stapi\AppData\Local\Temp\cc9dCqYX.s:498    .text.ieee80211_has_protected:0000000000000000 .LFB55
C:\Users\stapi\AppData\Local\Temp\cc9dCqYX.s:523    .text.ieee80211_has_protected:0000000000000022 .LFE55
C:\Users\stapi\AppData\Local\Temp\cc9dCqYX.s:8626   .debug_loc:0000000000000e7b .LLST12
C:\Users\stapi\AppData\Local\Temp\cc9dCqYX.s:513    .text.ieee80211_has_protected:0000000000000014 .LVL48
C:\Users\stapi\AppData\Local\Temp\cc9dCqYX.s:9008   .debug_str:0000000000000059 .LASF225
C:\Users\stapi\AppData\Local\Temp\cc9dCqYX.s:466    .text.ieee80211_has_order:0000000000000000 .LFB54
C:\Users\stapi\AppData\Local\Temp\cc9dCqYX.s:491    .text.ieee80211_has_order:0000000000000022 .LFE54
C:\Users\stapi\AppData\Local\Temp\cc9dCqYX.s:8640   .debug_loc:0000000000000e9c .LLST11
C:\Users\stapi\AppData\Local\Temp\cc9dCqYX.s:481    .text.ieee80211_has_order:0000000000000014 .LVL45
C:\Users\stapi\AppData\Local\Temp\cc9dCqYX.s:9328   .debug_str:0000000000000b3e .LASF226
C:\Users\stapi\AppData\Local\Temp\cc9dCqYX.s:432    .text.ieee80211_has_a4:0000000000000000 .LFB53
C:\Users\stapi\AppData\Local\Temp\cc9dCqYX.s:459    .text.ieee80211_has_a4:0000000000000026 .LFE53
C:\Users\stapi\AppData\Local\Temp\cc9dCqYX.s:8654   .debug_loc:0000000000000ebd .LLST9
C:\Users\stapi\AppData\Local\Temp\cc9dCqYX.s:8668   .debug_loc:0000000000000ede .LLST10
C:\Users\stapi\AppData\Local\Temp\cc9dCqYX.s:447    .text.ieee80211_has_a4:0000000000000016 .LVL41
C:\Users\stapi\AppData\Local\Temp\cc9dCqYX.s:9168   .debug_str:00000000000005bf .LASF227
C:\Users\stapi\AppData\Local\Temp\cc9dCqYX.s:400    .text.ieee80211_has_fromds:0000000000000000 .LFB52
C:\Users\stapi\AppData\Local\Temp\cc9dCqYX.s:425    .text.ieee80211_has_fromds:0000000000000024 .LFE52
C:\Users\stapi\AppData\Local\Temp\cc9dCqYX.s:8675   .debug_loc:0000000000000ef1 .LLST8
C:\Users\stapi\AppData\Local\Temp\cc9dCqYX.s:415    .text.ieee80211_has_fromds:0000000000000016 .LVL38
C:\Users\stapi\AppData\Local\Temp\cc9dCqYX.s:9010   .debug_str:000000000000006d .LASF228
C:\Users\stapi\AppData\Local\Temp\cc9dCqYX.s:368    .text.ieee80211_has_tods:0000000000000000 .LFB51
C:\Users\stapi\AppData\Local\Temp\cc9dCqYX.s:393    .text.ieee80211_has_tods:0000000000000024 .LFE51
C:\Users\stapi\AppData\Local\Temp\cc9dCqYX.s:8689   .debug_loc:0000000000000f12 .LLST7
C:\Users\stapi\AppData\Local\Temp\cc9dCqYX.s:383    .text.ieee80211_has_tods:0000000000000016 .LVL35
C:\Users\stapi\AppData\Local\Temp\cc9dCqYX.s:9062   .debug_str:00000000000002d4 .LASF229
C:\Users\stapi\AppData\Local\Temp\cc9dCqYX.s:330    .text.ieee80211_is_data:0000000000000000 .LFB50
C:\Users\stapi\AppData\Local\Temp\cc9dCqYX.s:361    .text.ieee80211_is_data:0000000000000030 .LFE50
C:\Users\stapi\AppData\Local\Temp\cc9dCqYX.s:8703   .debug_loc:0000000000000f33 .LLST6
C:\Users\stapi\AppData\Local\Temp\cc9dCqYX.s:345    .text.ieee80211_is_data:0000000000000014 .LVL31
C:\Users\stapi\AppData\Local\Temp\cc9dCqYX.s:351    .text.ieee80211_is_data:0000000000000020 .LVL32
C:\Users\stapi\AppData\Local\Temp\cc9dCqYX.s:9098   .debug_str:00000000000003c1 .LASF230
C:\Users\stapi\AppData\Local\Temp\cc9dCqYX.s:292    .text.ieee80211_is_ctl:0000000000000000 .LFB49
C:\Users\stapi\AppData\Local\Temp\cc9dCqYX.s:323    .text.ieee80211_is_ctl:0000000000000030 .LFE49
C:\Users\stapi\AppData\Local\Temp\cc9dCqYX.s:8717   .debug_loc:0000000000000f54 .LLST5
C:\Users\stapi\AppData\Local\Temp\cc9dCqYX.s:307    .text.ieee80211_is_ctl:0000000000000014 .LVL27
C:\Users\stapi\AppData\Local\Temp\cc9dCqYX.s:313    .text.ieee80211_is_ctl:0000000000000020 .LVL28
C:\Users\stapi\AppData\Local\Temp\cc9dCqYX.s:113    .text.get_wpa_cipher_suite:0000000000000000 .LFB74
C:\Users\stapi\AppData\Local\Temp\cc9dCqYX.s:196    .text.get_wpa_cipher_suite:000000000000008c .LFE74
C:\Users\stapi\AppData\Local\Temp\cc9dCqYX.s:8731   .debug_loc:0000000000000f75 .LLST1
C:\Users\stapi\AppData\Local\Temp\cc9dCqYX.s:148    .text.get_wpa_cipher_suite:0000000000000038 .LBB8
C:\Users\stapi\AppData\Local\Temp\cc9dCqYX.s:188    .text.get_wpa_cipher_suite:0000000000000082 .LBE8
C:\Users\stapi\AppData\Local\Temp\cc9dCqYX.s:8742   .debug_loc:0000000000000f93 .LLST2
C:\Users\stapi\AppData\Local\Temp\cc9dCqYX.s:157    .text.get_wpa_cipher_suite:000000000000004c .LVL13
C:\Users\stapi\AppData\Local\Temp\cc9dCqYX.s:169    .text.get_wpa_cipher_suite:0000000000000064 .LVL14
C:\Users\stapi\AppData\Local\Temp\cc9dCqYX.s:181    .text.get_wpa_cipher_suite:000000000000007c .LVL15
C:\Users\stapi\AppData\Local\Temp\cc9dCqYX.s:130    .text.get_wpa_cipher_suite:000000000000001c .LVL10
C:\Users\stapi\AppData\Local\Temp\cc9dCqYX.s:142    .text.get_wpa_cipher_suite:0000000000000034 .LVL11
C:\Users\stapi\AppData\Local\Temp\cc9dCqYX.s:202    .text.get_wpa2_cipher_suite:0000000000000000 .LFB75
C:\Users\stapi\AppData\Local\Temp\cc9dCqYX.s:285    .text.get_wpa2_cipher_suite:000000000000008c .LFE75
C:\Users\stapi\AppData\Local\Temp\cc9dCqYX.s:8749   .debug_loc:0000000000000fa6 .LLST3
C:\Users\stapi\AppData\Local\Temp\cc9dCqYX.s:237    .text.get_wpa2_cipher_suite:0000000000000038 .LBB12
C:\Users\stapi\AppData\Local\Temp\cc9dCqYX.s:277    .text.get_wpa2_cipher_suite:0000000000000082 .LBE12
C:\Users\stapi\AppData\Local\Temp\cc9dCqYX.s:8760   .debug_loc:0000000000000fc4 .LLST4
C:\Users\stapi\AppData\Local\Temp\cc9dCqYX.s:246    .text.get_wpa2_cipher_suite:000000000000004c .LVL21
C:\Users\stapi\AppData\Local\Temp\cc9dCqYX.s:258    .text.get_wpa2_cipher_suite:0000000000000064 .LVL22
C:\Users\stapi\AppData\Local\Temp\cc9dCqYX.s:270    .text.get_wpa2_cipher_suite:000000000000007c .LVL23
C:\Users\stapi\AppData\Local\Temp\cc9dCqYX.s:219    .text.get_wpa2_cipher_suite:000000000000001c .LVL18
C:\Users\stapi\AppData\Local\Temp\cc9dCqYX.s:231    .text.get_wpa2_cipher_suite:0000000000000034 .LVL19
C:\Users\stapi\AppData\Local\Temp\cc9dCqYX.s:735    .text.ieee80211_get_SA:0000000000000000 .LFB61
C:\Users\stapi\AppData\Local\Temp\cc9dCqYX.s:781    .text.ieee80211_get_SA:000000000000003c .LFE61
C:\Users\stapi\AppData\Local\Temp\cc9dCqYX.s:8767   .debug_loc:0000000000000fd7 .LLST18
C:\Users\stapi\AppData\Local\Temp\cc9dCqYX.s:756    .text.ieee80211_get_SA:000000000000001c .LBB16
C:\Users\stapi\AppData\Local\Temp\cc9dCqYX.s:773    .text.ieee80211_get_SA:0000000000000032 .LBE16
C:\Users\stapi\AppData\Local\Temp\cc9dCqYX.s:8778   .debug_loc:0000000000000ff5 .LLST19
C:\Users\stapi\AppData\Local\Temp\cc9dCqYX.s:762    .text.ieee80211_get_SA:0000000000000028 .LVL75
C:\Users\stapi\AppData\Local\Temp\cc9dCqYX.s:750    .text.ieee80211_get_SA:0000000000000016 .LVL73
C:\Users\stapi\AppData\Local\Temp\cc9dCqYX.s:830    .text.ieee80211_get_BSSID:0000000000000000 .LFB63
C:\Users\stapi\AppData\Local\Temp\cc9dCqYX.s:890    .text.ieee80211_get_BSSID:000000000000004c .LFE63
C:\Users\stapi\AppData\Local\Temp\cc9dCqYX.s:8785   .debug_loc:0000000000001008 .LLST21
C:\Users\stapi\AppData\Local\Temp\cc9dCqYX.s:851    .text.ieee80211_get_BSSID:000000000000001e .LBB20
C:\Users\stapi\AppData\Local\Temp\cc9dCqYX.s:867    .text.ieee80211_get_BSSID:000000000000002e .LBE20
C:\Users\stapi\AppData\Local\Temp\cc9dCqYX.s:8796   .debug_loc:0000000000001026 .LLST22
C:\Users\stapi\AppData\Local\Temp\cc9dCqYX.s:856    .text.ieee80211_get_BSSID:0000000000000026 .LVL84
C:\Users\stapi\AppData\Local\Temp\cc9dCqYX.s:845    .text.ieee80211_get_BSSID:0000000000000016 .LVL82
C:\Users\stapi\AppData\Local\Temp\cc9dCqYX.s:880    .text.ieee80211_get_BSSID:0000000000000040 .LVL86
C:\Users\stapi\AppData\Local\Temp\cc9dCqYX.s:1087   .text.ieee80211_get_radiotap_len:0000000000000000 .LFB67
C:\Users\stapi\AppData\Local\Temp\cc9dCqYX.s:1099   .text.ieee80211_get_radiotap_len:000000000000000a .LFE67
C:\Users\stapi\AppData\Local\Temp\cc9dCqYX.s:8803   .debug_loc:0000000000001039 .LLST30
C:\Users\stapi\AppData\Local\Temp\cc9dCqYX.s:8823   .debug_loc:0000000000001067 .LLST31
C:\Users\stapi\AppData\Local\Temp\cc9dCqYX.s:1097   .text.ieee80211_get_radiotap_len:000000000000000a .LVL114
C:\Users\stapi\AppData\Local\Temp\cc9dCqYX.s:9076   .debug_str:0000000000000326 .LASF231
C:\Users\stapi\AppData\Local\Temp\cc9dCqYX.s:9404   .debug_str:0000000000000e24 .LASF232
C:\Users\stapi\AppData\Local\Temp\cc9dCqYX.s:9036   .debug_str:0000000000000223 .LASF233
C:\Users\stapi\AppData\Local\Temp\cc9dCqYX.s:9370   .debug_str:0000000000000d24 .LASF234
C:\Users\stapi\AppData\Local\Temp\cc9dCqYX.s:9046   .debug_str:0000000000000271 .LASF235
C:\Users\stapi\AppData\Local\Temp\cc9dCqYX.s:9420   .debug_str:0000000000000eaf .LASF242
C:\Users\stapi\AppData\Local\Temp\cc9dCqYX.s:9148   .debug_str:000000000000052f .LASF243
C:\Users\stapi\AppData\Local\Temp\cc9dCqYX.s:9174   .debug_str:0000000000000604 .LASF236
C:\Users\stapi\AppData\Local\Temp\cc9dCqYX.s:2198   .text.ieee80211_data_extract:0000000000000000 .LVL257
C:\Users\stapi\AppData\Local\Temp\cc9dCqYX.s:2225   .text.ieee80211_data_extract:0000000000000010 .LVL259
C:\Users\stapi\AppData\Local\Temp\cc9dCqYX.s:2227   .text.ieee80211_data_extract:0000000000000012 .LVL260
C:\Users\stapi\AppData\Local\Temp\cc9dCqYX.s:2239   .text.ieee80211_data_extract:0000000000000026 .LVL262
C:\Users\stapi\AppData\Local\Temp\cc9dCqYX.s:2261   .text.ieee80211_data_extract:0000000000000032 .LVL264
C:\Users\stapi\AppData\Local\Temp\cc9dCqYX.s:2278   .text.ieee80211_data_extract:0000000000000048 .LVL266
C:\Users\stapi\AppData\Local\Temp\cc9dCqYX.s:2213   .text.ieee80211_data_extract:0000000000000008 .LVL258
C:\Users\stapi\AppData\Local\Temp\cc9dCqYX.s:2325   .text.ieee80211_data_extract:000000000000006e .LVL272
C:\Users\stapi\AppData\Local\Temp\cc9dCqYX.s:2243   .text.ieee80211_data_extract:0000000000000028 .LVL263
C:\Users\stapi\AppData\Local\Temp\cc9dCqYX.s:2269   .text.ieee80211_data_extract:000000000000003c .LVL265
C:\Users\stapi\AppData\Local\Temp\cc9dCqYX.s:2285   .text.ieee80211_data_extract:000000000000004c .LVL267
C:\Users\stapi\AppData\Local\Temp\cc9dCqYX.s:2289   .text.ieee80211_data_extract:000000000000004e .LVL268
C:\Users\stapi\AppData\Local\Temp\cc9dCqYX.s:2301   .text.ieee80211_data_extract:0000000000000058 .LVL270
C:\Users\stapi\AppData\Local\Temp\cc9dCqYX.s:2360   .text.ieee80211_data_extract:00000000000000a8 .LVL277
C:\Users\stapi\AppData\Local\Temp\cc9dCqYX.s:2060   .text.zconfig_remove_link_header:0000000000000000 .LVL241
C:\Users\stapi\AppData\Local\Temp\cc9dCqYX.s:2087   .text.zconfig_remove_link_header:000000000000002c .LVL245
C:\Users\stapi\AppData\Local\Temp\cc9dCqYX.s:2085   .text.zconfig_remove_link_header:000000000000002a .LVL244
C:\Users\stapi\AppData\Local\Temp\cc9dCqYX.s:2082   .text.zconfig_remove_link_header:0000000000000022 .LVL243
C:\Users\stapi\AppData\Local\Temp\cc9dCqYX.s:2092   .text.zconfig_remove_link_header:0000000000000036 .LVL247
C:\Users\stapi\AppData\Local\Temp\cc9dCqYX.s:2102   .text.zconfig_remove_link_header:0000000000000040 .LVL248
C:\Users\stapi\AppData\Local\Temp\cc9dCqYX.s:2114   .text.zconfig_remove_link_header:000000000000004a .LVL250
C:\Users\stapi\AppData\Local\Temp\cc9dCqYX.s:2127   .text.zconfig_remove_link_header:000000000000005a .LVL251
C:\Users\stapi\AppData\Local\Temp\cc9dCqYX.s:2138   .text.zconfig_remove_link_header:0000000000000064 .LVL252
C:\Users\stapi\AppData\Local\Temp\cc9dCqYX.s:2067   .text.zconfig_remove_link_header:0000000000000008 .LVL242
C:\Users\stapi\AppData\Local\Temp\cc9dCqYX.s:2105   .text.zconfig_remove_link_header:0000000000000042 .LVL249
C:\Users\stapi\AppData\Local\Temp\cc9dCqYX.s:2165   .text.zconfig_remove_link_header:000000000000007a .LVL254
C:\Users\stapi\AppData\Local\Temp\cc9dCqYX.s:2178   .text.zconfig_remove_link_header:000000000000008a .LVL255
C:\Users\stapi\AppData\Local\Temp\cc9dCqYX.s:1887   .text.cfg80211_get_cipher_info:0000000000000000 .LVL221
C:\Users\stapi\AppData\Local\Temp\cc9dCqYX.s:1912   .text.cfg80211_get_cipher_info:000000000000001c .LVL225
C:\Users\stapi\AppData\Local\Temp\cc9dCqYX.s:1910   .text.cfg80211_get_cipher_info:0000000000000018 .LVL224
C:\Users\stapi\AppData\Local\Temp\cc9dCqYX.s:1907   .text.cfg80211_get_cipher_info:0000000000000014 .LVL223
C:\Users\stapi\AppData\Local\Temp\cc9dCqYX.s:1897   .text.cfg80211_get_cipher_info:0000000000000008 .LVL222
C:\Users\stapi\AppData\Local\Temp\cc9dCqYX.s:1917   .text.cfg80211_get_cipher_info:0000000000000022 .LVL226
C:\Users\stapi\AppData\Local\Temp\cc9dCqYX.s:1958   .text.cfg80211_get_cipher_info:0000000000000062 .LVL231
C:\Users\stapi\AppData\Local\Temp\cc9dCqYX.s:2016   .text.cfg80211_get_cipher_info:00000000000000b0 .LVL236
C:\Users\stapi\AppData\Local\Temp\cc9dCqYX.s:2035   .text.cfg80211_get_cipher_info:00000000000000c0 .LVL238
C:\Users\stapi\AppData\Local\Temp\cc9dCqYX.s:2037   .text.cfg80211_get_cipher_info:00000000000000c2 .LVL239
C:\Users\stapi\AppData\Local\Temp\cc9dCqYX.s:2043   .text.cfg80211_get_cipher_info:00000000000000c6 .LVL240
C:\Users\stapi\AppData\Local\Temp\cc9dCqYX.s:1969   .text.cfg80211_get_cipher_info:0000000000000078 .LVL233
C:\Users\stapi\AppData\Local\Temp\cc9dCqYX.s:2023   .text.cfg80211_get_cipher_info:00000000000000b2 .LVL237
C:\Users\stapi\AppData\Local\Temp\cc9dCqYX.s:1930   .text.cfg80211_get_cipher_info:000000000000002e .LVL227
C:\Users\stapi\AppData\Local\Temp\cc9dCqYX.s:1952   .text.cfg80211_get_cipher_info:000000000000005a .LVL230
C:\Users\stapi\AppData\Local\Temp\cc9dCqYX.s:1675   .text.cfg80211_parse_wpa2_info:0000000000000000 .LVL193
C:\Users\stapi\AppData\Local\Temp\cc9dCqYX.s:1684   .text.cfg80211_parse_wpa2_info:0000000000000006 .LVL194
C:\Users\stapi\AppData\Local\Temp\cc9dCqYX.s:1687   .text.cfg80211_parse_wpa2_info:0000000000000008 .LVL195
C:\Users\stapi\AppData\Local\Temp\cc9dCqYX.s:1734   .text.cfg80211_parse_wpa2_info:0000000000000044 .LVL200
C:\Users\stapi\AppData\Local\Temp\cc9dCqYX.s:1781   .text.cfg80211_parse_wpa2_info:000000000000007e .LVL208
C:\Users\stapi\AppData\Local\Temp\cc9dCqYX.s:1839   .text.cfg80211_parse_wpa2_info:00000000000000d2 .LVL216
C:\Users\stapi\AppData\Local\Temp\cc9dCqYX.s:1844   .text.cfg80211_parse_wpa2_info:00000000000000d6 .LVL217
C:\Users\stapi\AppData\Local\Temp\cc9dCqYX.s:1848   .text.cfg80211_parse_wpa2_info:00000000000000d8 .LVL218
C:\Users\stapi\AppData\Local\Temp\cc9dCqYX.s:1862   .text.cfg80211_parse_wpa2_info:00000000000000e0 .LVL219
C:\Users\stapi\AppData\Local\Temp\cc9dCqYX.s:1871   .text.cfg80211_parse_wpa2_info:00000000000000ee .LVL220
C:\Users\stapi\AppData\Local\Temp\cc9dCqYX.s:1716   .text.cfg80211_parse_wpa2_info:0000000000000032 .LVL197
C:\Users\stapi\AppData\Local\Temp\cc9dCqYX.s:1761   .text.cfg80211_parse_wpa2_info:000000000000006c .LVL205
C:\Users\stapi\AppData\Local\Temp\cc9dCqYX.s:1749   .text.cfg80211_parse_wpa2_info:000000000000005a .LVL203
C:\Users\stapi\AppData\Local\Temp\cc9dCqYX.s:1704   .text.cfg80211_parse_wpa2_info:0000000000000016 .LVL196
C:\Users\stapi\AppData\Local\Temp\cc9dCqYX.s:1792   .text.cfg80211_parse_wpa2_info:000000000000008e .LVL210
C:\Users\stapi\AppData\Local\Temp\cc9dCqYX.s:1801   .text.cfg80211_parse_wpa2_info:0000000000000096 .LVL211
C:\Users\stapi\AppData\Local\Temp\cc9dCqYX.s:1727   .text.cfg80211_parse_wpa2_info:000000000000003e .LVL199
C:\Users\stapi\AppData\Local\Temp\cc9dCqYX.s:1810   .text.cfg80211_parse_wpa2_info:00000000000000a4 .LVL213
C:\Users\stapi\AppData\Local\Temp\cc9dCqYX.s:1808   .text.cfg80211_parse_wpa2_info:00000000000000a2 .LVL212
C:\Users\stapi\AppData\Local\Temp\cc9dCqYX.s:1723   .text.cfg80211_parse_wpa2_info:000000000000003a .LVL198
C:\Users\stapi\AppData\Local\Temp\cc9dCqYX.s:1821   .text.cfg80211_parse_wpa2_info:00000000000000b0 .LVL214
C:\Users\stapi\AppData\Local\Temp\cc9dCqYX.s:1467   .text.cfg80211_parse_wpa_info:0000000000000000 .LVL165
C:\Users\stapi\AppData\Local\Temp\cc9dCqYX.s:1476   .text.cfg80211_parse_wpa_info:0000000000000006 .LVL166
C:\Users\stapi\AppData\Local\Temp\cc9dCqYX.s:1479   .text.cfg80211_parse_wpa_info:0000000000000008 .LVL167
C:\Users\stapi\AppData\Local\Temp\cc9dCqYX.s:1522   .text.cfg80211_parse_wpa_info:0000000000000038 .LVL172
C:\Users\stapi\AppData\Local\Temp\cc9dCqYX.s:1569   .text.cfg80211_parse_wpa_info:0000000000000072 .LVL180
C:\Users\stapi\AppData\Local\Temp\cc9dCqYX.s:1627   .text.cfg80211_parse_wpa_info:00000000000000c6 .LVL188
C:\Users\stapi\AppData\Local\Temp\cc9dCqYX.s:1632   .text.cfg80211_parse_wpa_info:00000000000000ca .LVL189
C:\Users\stapi\AppData\Local\Temp\cc9dCqYX.s:1636   .text.cfg80211_parse_wpa_info:00000000000000cc .LVL190
C:\Users\stapi\AppData\Local\Temp\cc9dCqYX.s:1650   .text.cfg80211_parse_wpa_info:00000000000000d4 .LVL191
C:\Users\stapi\AppData\Local\Temp\cc9dCqYX.s:1659   .text.cfg80211_parse_wpa_info:00000000000000e2 .LVL192
C:\Users\stapi\AppData\Local\Temp\cc9dCqYX.s:1504   .text.cfg80211_parse_wpa_info:0000000000000026 .LVL169
C:\Users\stapi\AppData\Local\Temp\cc9dCqYX.s:1549   .text.cfg80211_parse_wpa_info:0000000000000060 .LVL177
C:\Users\stapi\AppData\Local\Temp\cc9dCqYX.s:1537   .text.cfg80211_parse_wpa_info:000000000000004e .LVL175
C:\Users\stapi\AppData\Local\Temp\cc9dCqYX.s:1496   .text.cfg80211_parse_wpa_info:0000000000000016 .LVL168
C:\Users\stapi\AppData\Local\Temp\cc9dCqYX.s:1580   .text.cfg80211_parse_wpa_info:0000000000000082 .LVL182
C:\Users\stapi\AppData\Local\Temp\cc9dCqYX.s:1589   .text.cfg80211_parse_wpa_info:000000000000008a .LVL183
C:\Users\stapi\AppData\Local\Temp\cc9dCqYX.s:1515   .text.cfg80211_parse_wpa_info:0000000000000032 .LVL171
C:\Users\stapi\AppData\Local\Temp\cc9dCqYX.s:1598   .text.cfg80211_parse_wpa_info:0000000000000098 .LVL185
C:\Users\stapi\AppData\Local\Temp\cc9dCqYX.s:1596   .text.cfg80211_parse_wpa_info:0000000000000096 .LVL184
C:\Users\stapi\AppData\Local\Temp\cc9dCqYX.s:1511   .text.cfg80211_parse_wpa_info:000000000000002e .LVL170
C:\Users\stapi\AppData\Local\Temp\cc9dCqYX.s:1609   .text.cfg80211_parse_wpa_info:00000000000000a4 .LVL186
C:\Users\stapi\AppData\Local\Temp\cc9dCqYX.s:27     .text.map_cipher_to_encry:0000000000000000 .LVL0
C:\Users\stapi\AppData\Local\Temp\cc9dCqYX.s:37     .text.map_cipher_to_encry:0000000000000016 .LVL1
C:\Users\stapi\AppData\Local\Temp\cc9dCqYX.s:83     .text.map_cipher_to_encry:000000000000006c .LVL5
C:\Users\stapi\AppData\Local\Temp\cc9dCqYX.s:90     .text.map_cipher_to_encry:0000000000000070 .LVL6
C:\Users\stapi\AppData\Local\Temp\cc9dCqYX.s:97     .text.map_cipher_to_encry:000000000000007a .LVL7
C:\Users\stapi\AppData\Local\Temp\cc9dCqYX.s:101    .text.map_cipher_to_encry:000000000000007c .LVL8
C:\Users\stapi\AppData\Local\Temp\cc9dCqYX.s:1375   .text.cfg80211_get_bss_channel:0000000000000000 .LVL150
C:\Users\stapi\AppData\Local\Temp\cc9dCqYX.s:1398   .text.cfg80211_get_bss_channel:0000000000000016 .LVL154
C:\Users\stapi\AppData\Local\Temp\cc9dCqYX.s:1422   .text.cfg80211_get_bss_channel:000000000000003c .LVL157
C:\Users\stapi\AppData\Local\Temp\cc9dCqYX.s:1426   .text.cfg80211_get_bss_channel:0000000000000044 .LVL158
C:\Users\stapi\AppData\Local\Temp\cc9dCqYX.s:1388   .text.cfg80211_get_bss_channel:0000000000000010 .LVL152
C:\Users\stapi\AppData\Local\Temp\cc9dCqYX.s:1395   .text.cfg80211_get_bss_channel:0000000000000014 .LVL153
C:\Users\stapi\AppData\Local\Temp\cc9dCqYX.s:1416   .text.cfg80211_get_bss_channel:000000000000003a .LVL156
C:\Users\stapi\AppData\Local\Temp\cc9dCqYX.s:1432   .text.cfg80211_get_bss_channel:0000000000000048 .LVL159
C:\Users\stapi\AppData\Local\Temp\cc9dCqYX.s:1436   .text.cfg80211_get_bss_channel:0000000000000052 .LVL161
C:\Users\stapi\AppData\Local\Temp\cc9dCqYX.s:1440   .text.cfg80211_get_bss_channel:0000000000000054 .LVL162
C:\Users\stapi\AppData\Local\Temp\cc9dCqYX.s:1453   .text.cfg80211_get_bss_channel:0000000000000064 .LVL164
C:\Users\stapi\AppData\Local\Temp\cc9dCqYX.s:1293   .text.ieee80211_get_ssid:0000000000000000 .LVL136
C:\Users\stapi\AppData\Local\Temp\cc9dCqYX.s:1310   .text.ieee80211_get_ssid:0000000000000014 .LVL140
C:\Users\stapi\AppData\Local\Temp\cc9dCqYX.s:1308   .text.ieee80211_get_ssid:0000000000000012 .LVL139
C:\Users\stapi\AppData\Local\Temp\cc9dCqYX.s:1306   .text.ieee80211_get_ssid:000000000000000e .LVL138
C:\Users\stapi\AppData\Local\Temp\cc9dCqYX.s:1342   .text.ieee80211_get_ssid:000000000000003e .LVL146
C:\Users\stapi\AppData\Local\Temp\cc9dCqYX.s:1357   .text.ieee80211_get_ssid:000000000000004c .LVL148
C:\Users\stapi\AppData\Local\Temp\cc9dCqYX.s:1328   .text.ieee80211_get_ssid:000000000000002a .LVL143
C:\Users\stapi\AppData\Local\Temp\cc9dCqYX.s:1336   .text.ieee80211_get_ssid:0000000000000034 .LVL144
C:\Users\stapi\AppData\Local\Temp\cc9dCqYX.s:1362   .text.ieee80211_get_ssid:000000000000004e .LVL149
C:\Users\stapi\AppData\Local\Temp\cc9dCqYX.s:1323   .text.ieee80211_get_ssid:0000000000000028 .LVL142
C:\Users\stapi\AppData\Local\Temp\cc9dCqYX.s:1347   .text.ieee80211_get_ssid:0000000000000044 .LVL147
C:\Users\stapi\AppData\Local\Temp\cc9dCqYX.s:1192   .text.cfg80211_find_vendor_ie:0000000000000000 .LVL124
C:\Users\stapi\AppData\Local\Temp\cc9dCqYX.s:1215   .text.cfg80211_find_vendor_ie:0000000000000014 .LVL128
C:\Users\stapi\AppData\Local\Temp\cc9dCqYX.s:1207   .text.cfg80211_find_vendor_ie:000000000000000e .LVL126
C:\Users\stapi\AppData\Local\Temp\cc9dCqYX.s:1202   .text.cfg80211_find_vendor_ie:0000000000000008 .LVL125
C:\Users\stapi\AppData\Local\Temp\cc9dCqYX.s:1221   .text.cfg80211_find_vendor_ie:000000000000001a .LVL129
C:\Users\stapi\AppData\Local\Temp\cc9dCqYX.s:1232   .text.cfg80211_find_vendor_ie:0000000000000022 .LVL130
C:\Users\stapi\AppData\Local\Temp\cc9dCqYX.s:1280   .text.cfg80211_find_vendor_ie:0000000000000062 .LVL135
C:\Users\stapi\AppData\Local\Temp\cc9dCqYX.s:1252   .text.cfg80211_find_vendor_ie:000000000000003c .LVL133
C:\Users\stapi\AppData\Local\Temp\cc9dCqYX.s:1273   .text.cfg80211_find_vendor_ie:000000000000005c .LVL134
C:\Users\stapi\AppData\Local\Temp\cc9dCqYX.s:1130   .text.cfg80211_find_ie:0000000000000000 .LVL117
C:\Users\stapi\AppData\Local\Temp\cc9dCqYX.s:1137   .text.cfg80211_find_ie:0000000000000006 .LVL118
C:\Users\stapi\AppData\Local\Temp\cc9dCqYX.s:1155   .text.cfg80211_find_ie:0000000000000020 .LVL119
C:\Users\stapi\AppData\Local\Temp\cc9dCqYX.s:1159   .text.cfg80211_find_ie:0000000000000022 .LVL120
C:\Users\stapi\AppData\Local\Temp\cc9dCqYX.s:1179   .text.cfg80211_find_ie:0000000000000030 .LVL123
C:\Users\stapi\AppData\Local\Temp\cc9dCqYX.s:1166   .text.cfg80211_find_ie:0000000000000026 .LVL121
C:\Users\stapi\AppData\Local\Temp\cc9dCqYX.s:1109   .text.ieee80211_is_invalid_pkg:0000000000000000 .LVL115
C:\Users\stapi\AppData\Local\Temp\cc9dCqYX.s:1113   .text.ieee80211_is_invalid_pkg:0000000000000004 .LVL116
C:\Users\stapi\AppData\Local\Temp\cc9dCqYX.s:984    .text.ieee80211_hdrlen:0000000000000000 .LVL97
C:\Users\stapi\AppData\Local\Temp\cc9dCqYX.s:991    .text.ieee80211_hdrlen:0000000000000008 .LVL98
C:\Users\stapi\AppData\Local\Temp\cc9dCqYX.s:1012   .text.ieee80211_hdrlen:0000000000000024 .LVL101
C:\Users\stapi\AppData\Local\Temp\cc9dCqYX.s:1021   .text.ieee80211_hdrlen:0000000000000030 .LVL103
C:\Users\stapi\AppData\Local\Temp\cc9dCqYX.s:1031   .text.ieee80211_hdrlen:000000000000003e .LVL105
C:\Users\stapi\AppData\Local\Temp\cc9dCqYX.s:1042   .text.ieee80211_hdrlen:0000000000000048 .LVL106
C:\Users\stapi\AppData\Local\Temp\cc9dCqYX.s:1048   .text.ieee80211_hdrlen:000000000000004a .LVL107
C:\Users\stapi\AppData\Local\Temp\cc9dCqYX.s:1050   .text.ieee80211_hdrlen:000000000000004c .LVL108
C:\Users\stapi\AppData\Local\Temp\cc9dCqYX.s:949    .text.ieee80211_has_frags:0000000000000000 .LVL93
C:\Users\stapi\AppData\Local\Temp\cc9dCqYX.s:959    .text.ieee80211_has_frags:000000000000000c .LVL94
C:\Users\stapi\AppData\Local\Temp\cc9dCqYX.s:966    .text.ieee80211_has_frags:000000000000001a .LVL96
C:\Users\stapi\AppData\Local\Temp\cc9dCqYX.s:900    .text.ieee80211_get_bssid:0000000000000000 .LVL87
C:\Users\stapi\AppData\Local\Temp\cc9dCqYX.s:918    .text.ieee80211_get_bssid:000000000000001a .LVL89
C:\Users\stapi\AppData\Local\Temp\cc9dCqYX.s:931    .text.ieee80211_get_bssid:000000000000002c .LVL91
C:\Users\stapi\AppData\Local\Temp\cc9dCqYX.s:936    .text.ieee80211_get_bssid:000000000000002e .LVL92
C:\Users\stapi\AppData\Local\Temp\cc9dCqYX.s:791    .text.ieee80211_get_DA:0000000000000000 .LVL77
C:\Users\stapi\AppData\Local\Temp\cc9dCqYX.s:801    .text.ieee80211_get_DA:000000000000000e .LVL78
C:\Users\stapi\AppData\Local\Temp\cc9dCqYX.s:700    .text.ieee80211_is_probe_resp:0000000000000000 .LVL67
C:\Users\stapi\AppData\Local\Temp\cc9dCqYX.s:710    .text.ieee80211_is_probe_resp:000000000000000e .LVL68
C:\Users\stapi\AppData\Local\Temp\cc9dCqYX.s:662    .text.ieee80211_is_probe_req:0000000000000000 .LVL63
C:\Users\stapi\AppData\Local\Temp\cc9dCqYX.s:672    .text.ieee80211_is_probe_req:000000000000000e .LVL64
C:\Users\stapi\AppData\Local\Temp\cc9dCqYX.s:624    .text.ieee80211_is_beacon:0000000000000000 .LVL59
C:\Users\stapi\AppData\Local\Temp\cc9dCqYX.s:634    .text.ieee80211_is_beacon:000000000000000e .LVL60
C:\Users\stapi\AppData\Local\Temp\cc9dCqYX.s:571    .text.ieee80211_is_data_exact:0000000000000000 .LVL53
C:\Users\stapi\AppData\Local\Temp\cc9dCqYX.s:581    .text.ieee80211_is_data_exact:000000000000000e .LVL54
C:\Users\stapi\AppData\Local\Temp\cc9dCqYX.s:533    .text.ieee80211_is_data_qos:0000000000000000 .LVL49
C:\Users\stapi\AppData\Local\Temp\cc9dCqYX.s:543    .text.ieee80211_is_data_qos:000000000000000e .LVL50
C:\Users\stapi\AppData\Local\Temp\cc9dCqYX.s:501    .text.ieee80211_has_protected:0000000000000000 .LVL46
C:\Users\stapi\AppData\Local\Temp\cc9dCqYX.s:511    .text.ieee80211_has_protected:000000000000000c .LVL47
C:\Users\stapi\AppData\Local\Temp\cc9dCqYX.s:469    .text.ieee80211_has_order:0000000000000000 .LVL43
C:\Users\stapi\AppData\Local\Temp\cc9dCqYX.s:479    .text.ieee80211_has_order:000000000000000c .LVL44
C:\Users\stapi\AppData\Local\Temp\cc9dCqYX.s:435    .text.ieee80211_has_a4:0000000000000000 .LVL39
C:\Users\stapi\AppData\Local\Temp\cc9dCqYX.s:445    .text.ieee80211_has_a4:000000000000000e .LVL40
C:\Users\stapi\AppData\Local\Temp\cc9dCqYX.s:451    .text.ieee80211_has_a4:000000000000001a .LVL42
C:\Users\stapi\AppData\Local\Temp\cc9dCqYX.s:403    .text.ieee80211_has_fromds:0000000000000000 .LVL36
C:\Users\stapi\AppData\Local\Temp\cc9dCqYX.s:413    .text.ieee80211_has_fromds:000000000000000e .LVL37
C:\Users\stapi\AppData\Local\Temp\cc9dCqYX.s:371    .text.ieee80211_has_tods:0000000000000000 .LVL33
C:\Users\stapi\AppData\Local\Temp\cc9dCqYX.s:381    .text.ieee80211_has_tods:000000000000000e .LVL34
C:\Users\stapi\AppData\Local\Temp\cc9dCqYX.s:333    .text.ieee80211_is_data:0000000000000000 .LVL29
C:\Users\stapi\AppData\Local\Temp\cc9dCqYX.s:343    .text.ieee80211_is_data:000000000000000c .LVL30
C:\Users\stapi\AppData\Local\Temp\cc9dCqYX.s:295    .text.ieee80211_is_ctl:0000000000000000 .LVL25
C:\Users\stapi\AppData\Local\Temp\cc9dCqYX.s:305    .text.ieee80211_is_ctl:000000000000000c .LVL26
C:\Users\stapi\AppData\Local\Temp\cc9dCqYX.s:116    .text.get_wpa_cipher_suite:0000000000000000 .LVL9
C:\Users\stapi\AppData\Local\Temp\cc9dCqYX.s:147    .text.get_wpa_cipher_suite:0000000000000038 .LVL12
C:\Users\stapi\AppData\Local\Temp\cc9dCqYX.s:185    .text.get_wpa_cipher_suite:0000000000000082 .LVL16
C:\Users\stapi\AppData\Local\Temp\cc9dCqYX.s:205    .text.get_wpa2_cipher_suite:0000000000000000 .LVL17
C:\Users\stapi\AppData\Local\Temp\cc9dCqYX.s:236    .text.get_wpa2_cipher_suite:0000000000000038 .LVL20
C:\Users\stapi\AppData\Local\Temp\cc9dCqYX.s:274    .text.get_wpa2_cipher_suite:0000000000000082 .LVL24
C:\Users\stapi\AppData\Local\Temp\cc9dCqYX.s:738    .text.ieee80211_get_SA:0000000000000000 .LVL71
C:\Users\stapi\AppData\Local\Temp\cc9dCqYX.s:748    .text.ieee80211_get_SA:000000000000000e .LVL72
C:\Users\stapi\AppData\Local\Temp\cc9dCqYX.s:755    .text.ieee80211_get_SA:000000000000001c .LVL74
C:\Users\stapi\AppData\Local\Temp\cc9dCqYX.s:770    .text.ieee80211_get_SA:0000000000000032 .LVL76
C:\Users\stapi\AppData\Local\Temp\cc9dCqYX.s:833    .text.ieee80211_get_BSSID:0000000000000000 .LVL80
C:\Users\stapi\AppData\Local\Temp\cc9dCqYX.s:843    .text.ieee80211_get_BSSID:000000000000000e .LVL81
C:\Users\stapi\AppData\Local\Temp\cc9dCqYX.s:850    .text.ieee80211_get_BSSID:000000000000001e .LVL83
C:\Users\stapi\AppData\Local\Temp\cc9dCqYX.s:864    .text.ieee80211_get_BSSID:000000000000002e .LVL85
C:\Users\stapi\AppData\Local\Temp\cc9dCqYX.s:1090   .text.ieee80211_get_radiotap_len:0000000000000000 .LVL112
C:\Users\stapi\AppData\Local\Temp\cc9dCqYX.s:1095   .text.ieee80211_get_radiotap_len:0000000000000002 .LVL113
C:\Users\stapi\AppData\Local\Temp\cc9dCqYX.s:2510   .debug_info:0000000000000000 .Ldebug_info0
C:\Users\stapi\AppData\Local\Temp\cc9dCqYX.s:1316   .text.ieee80211_get_ssid:000000000000001e .LBB22
C:\Users\stapi\AppData\Local\Temp\cc9dCqYX.s:1325   .text.ieee80211_get_ssid:0000000000000028 .LBE22
C:\Users\stapi\AppData\Local\Temp\cc9dCqYX.s:1329   .text.ieee80211_get_ssid:000000000000002a .LBB23
C:\Users\stapi\AppData\Local\Temp\cc9dCqYX.s:1349   .text.ieee80211_get_ssid:0000000000000044 .LBE23
C:\Users\stapi\AppData\Local\Temp\cc9dCqYX.s:2280   .text.ieee80211_data_extract:0000000000000048 .LBB28
C:\Users\stapi\AppData\Local\Temp\cc9dCqYX.s:2291   .text.ieee80211_data_extract:000000000000004e .LBE28
C:\Users\stapi\AppData\Local\Temp\cc9dCqYX.s:2303   .text.ieee80211_data_extract:0000000000000058 .LBB29
C:\Users\stapi\AppData\Local\Temp\cc9dCqYX.s:2316   .text.ieee80211_data_extract:0000000000000066 .LBE29

UNDEFINED SYMBOLS
__riscv_save_0
HAL_Printf
__riscv_restore_0
__riscv_save_1
memcmp
__riscv_restore_1
os_htole16
memcpy
__riscv_save_2
__riscv_restore_2
os_get_unaligned_le16
__riscv_save_4
__riscv_restore_4
__riscv_save_7
__riscv_restore_7
__riscv_save_5
__riscv_restore_5
iotx_state_event
memmove
__riscv_save_9
__riscv_restore_9
awss_ieee80211_aplist_process
awss_enrollee_ieee80211_process
awss_enrollee_recv_callback
awss_ieee80211_smartconfig_process
awss_recv_callback_smartconfig
