   1              		.file	"zconfig_utils.c"
   2              		.option nopic
   3              		.attribute arch, "rv32i2p0_m2p0_a2p0_f2p0_c2p0_b_p0p94"
   4              		.attribute unaligned_access, 0
   5              		.attribute stack_align, 16
   6              		.text
   7              	.Ltext0:
   8              		.cfi_sections	.debug_frame
   9              		.section	.rodata.zconfig_dump_hex.str1.4,"aMS",@progbits,1
  10              		.align	2
  11              	.LC0:
  12 0000 25303278 		.string	"%02x "
  12      2000
  13 0006 0000     		.align	2
  14              	.LC1:
  15 0008 0D0A00   		.string	"\r\n"
  16              		.section	.text.zconfig_dump_hex,"ax",@progbits
  17              		.align	1
  18              		.globl	zconfig_dump_hex
  20              	zconfig_dump_hex:
  21              	.LFB48:
  22              		.file 1 "C:/Users/stapi/OneDrive/Desktop/GD32VW553/V1_MQTT_OK/GD32VW55X_Wifi_BLE_SDK/GD32VW55x_REL
   1:C:/Users/stapi/OneDrive/Desktop/GD32VW553/V1_MQTT_OK/GD32VW55X_Wifi_BLE_SDK/GD32VW55x_RELEASE_V1.0.2/MSDK/cloud/alicloud/src/services/awss\zconfig_utils.c **** /*
   2:C:/Users/stapi/OneDrive/Desktop/GD32VW553/V1_MQTT_OK/GD32VW55X_Wifi_BLE_SDK/GD32VW55x_RELEASE_V1.0.2/MSDK/cloud/alicloud/src/services/awss\zconfig_utils.c ****  * Copyright (C) 2015-2018 Alibaba Group Holding Limited
   3:C:/Users/stapi/OneDrive/Desktop/GD32VW553/V1_MQTT_OK/GD32VW55X_Wifi_BLE_SDK/GD32VW55x_RELEASE_V1.0.2/MSDK/cloud/alicloud/src/services/awss\zconfig_utils.c ****  */
   4:C:/Users/stapi/OneDrive/Desktop/GD32VW553/V1_MQTT_OK/GD32VW55X_Wifi_BLE_SDK/GD32VW55x_RELEASE_V1.0.2/MSDK/cloud/alicloud/src/services/awss\zconfig_utils.c **** 
   5:C:/Users/stapi/OneDrive/Desktop/GD32VW553/V1_MQTT_OK/GD32VW55X_Wifi_BLE_SDK/GD32VW55x_RELEASE_V1.0.2/MSDK/cloud/alicloud/src/services/awss\zconfig_utils.c **** 
   6:C:/Users/stapi/OneDrive/Desktop/GD32VW553/V1_MQTT_OK/GD32VW55X_Wifi_BLE_SDK/GD32VW55x_RELEASE_V1.0.2/MSDK/cloud/alicloud/src/services/awss\zconfig_utils.c **** 
   7:C:/Users/stapi/OneDrive/Desktop/GD32VW553/V1_MQTT_OK/GD32VW55X_Wifi_BLE_SDK/GD32VW55x_RELEASE_V1.0.2/MSDK/cloud/alicloud/src/services/awss\zconfig_utils.c **** #include <string.h>
   8:C:/Users/stapi/OneDrive/Desktop/GD32VW553/V1_MQTT_OK/GD32VW55X_Wifi_BLE_SDK/GD32VW55x_RELEASE_V1.0.2/MSDK/cloud/alicloud/src/services/awss\zconfig_utils.c **** #include <time.h>
   9:C:/Users/stapi/OneDrive/Desktop/GD32VW553/V1_MQTT_OK/GD32VW55X_Wifi_BLE_SDK/GD32VW55x_RELEASE_V1.0.2/MSDK/cloud/alicloud/src/services/awss\zconfig_utils.c **** #include "zconfig_lib.h"
  10:C:/Users/stapi/OneDrive/Desktop/GD32VW553/V1_MQTT_OK/GD32VW55X_Wifi_BLE_SDK/GD32VW55x_RELEASE_V1.0.2/MSDK/cloud/alicloud/src/services/awss\zconfig_utils.c **** #include "zconfig_utils.h"
  11:C:/Users/stapi/OneDrive/Desktop/GD32VW553/V1_MQTT_OK/GD32VW55X_Wifi_BLE_SDK/GD32VW55x_RELEASE_V1.0.2/MSDK/cloud/alicloud/src/services/awss\zconfig_utils.c **** #include "awss_main.h"
  12:C:/Users/stapi/OneDrive/Desktop/GD32VW553/V1_MQTT_OK/GD32VW55X_Wifi_BLE_SDK/GD32VW55x_RELEASE_V1.0.2/MSDK/cloud/alicloud/src/services/awss\zconfig_utils.c **** 
  13:C:/Users/stapi/OneDrive/Desktop/GD32VW553/V1_MQTT_OK/GD32VW55X_Wifi_BLE_SDK/GD32VW55x_RELEASE_V1.0.2/MSDK/cloud/alicloud/src/services/awss\zconfig_utils.c **** #if defined(__cplusplus)  /* If this is a C++ compiler, use C linkage */
  14:C:/Users/stapi/OneDrive/Desktop/GD32VW553/V1_MQTT_OK/GD32VW55X_Wifi_BLE_SDK/GD32VW55x_RELEASE_V1.0.2/MSDK/cloud/alicloud/src/services/awss\zconfig_utils.c **** extern "C" {
  15:C:/Users/stapi/OneDrive/Desktop/GD32VW553/V1_MQTT_OK/GD32VW55X_Wifi_BLE_SDK/GD32VW55x_RELEASE_V1.0.2/MSDK/cloud/alicloud/src/services/awss\zconfig_utils.c **** #endif
  16:C:/Users/stapi/OneDrive/Desktop/GD32VW553/V1_MQTT_OK/GD32VW55X_Wifi_BLE_SDK/GD32VW55x_RELEASE_V1.0.2/MSDK/cloud/alicloud/src/services/awss\zconfig_utils.c **** 
  17:C:/Users/stapi/OneDrive/Desktop/GD32VW553/V1_MQTT_OK/GD32VW55X_Wifi_BLE_SDK/GD32VW55x_RELEASE_V1.0.2/MSDK/cloud/alicloud/src/services/awss\zconfig_utils.c **** void zconfig_dump_hex(uint8_t *data, int len, int tab_num)
  18:C:/Users/stapi/OneDrive/Desktop/GD32VW553/V1_MQTT_OK/GD32VW55X_Wifi_BLE_SDK/GD32VW55x_RELEASE_V1.0.2/MSDK/cloud/alicloud/src/services/awss\zconfig_utils.c **** {
  23              		.loc 1 18 1
  24              		.cfi_startproc
  25              	.LVL0:
  26 0000 17030000 		call	t0,__riscv_save_6
  26      E7020300 
  27              		.cfi_offset 21, -28
  28              		.cfi_offset 20, -24
  29              		.cfi_offset 19, -20
  30              		.cfi_offset 18, -16
  31              		.cfi_offset 9, -12
  32              		.cfi_offset 8, -8
  33              		.cfi_offset 1, -4
  34              		.cfi_def_cfa_offset 32
  19:C:/Users/stapi/OneDrive/Desktop/GD32VW553/V1_MQTT_OK/GD32VW55X_Wifi_BLE_SDK/GD32VW55x_RELEASE_V1.0.2/MSDK/cloud/alicloud/src/services/awss\zconfig_utils.c **** #if (CONFIG_BLDTIME_MUTE_DBGLOG)
  20:C:/Users/stapi/OneDrive/Desktop/GD32VW553/V1_MQTT_OK/GD32VW55X_Wifi_BLE_SDK/GD32VW55x_RELEASE_V1.0.2/MSDK/cloud/alicloud/src/services/awss\zconfig_utils.c **** 
  21:C:/Users/stapi/OneDrive/Desktop/GD32VW553/V1_MQTT_OK/GD32VW55X_Wifi_BLE_SDK/GD32VW55x_RELEASE_V1.0.2/MSDK/cloud/alicloud/src/services/awss\zconfig_utils.c **** #else
  22:C:/Users/stapi/OneDrive/Desktop/GD32VW553/V1_MQTT_OK/GD32VW55X_Wifi_BLE_SDK/GD32VW55x_RELEASE_V1.0.2/MSDK/cloud/alicloud/src/services/awss\zconfig_utils.c ****     int i;
  35              		.loc 1 22 5
  23:C:/Users/stapi/OneDrive/Desktop/GD32VW553/V1_MQTT_OK/GD32VW55X_Wifi_BLE_SDK/GD32VW55x_RELEASE_V1.0.2/MSDK/cloud/alicloud/src/services/awss\zconfig_utils.c ****     for (i = 0; i < len; i++) {
  36              		.loc 1 23 5
  37              	.LVL1:
  18:C:/Users/stapi/OneDrive/Desktop/GD32VW553/V1_MQTT_OK/GD32VW55X_Wifi_BLE_SDK/GD32VW55x_RELEASE_V1.0.2/MSDK/cloud/alicloud/src/services/awss\zconfig_utils.c **** #if (CONFIG_BLDTIME_MUTE_DBGLOG)
  38              		.loc 1 18 1 is_stmt 0
  39 0008 2A89     		mv	s2,a0
  40 000a AE84     		mv	s1,a1
  41 000c B289     		mv	s3,a2
  42              		.loc 1 23 12
  43 000e 0144     		li	s0,0
  24:C:/Users/stapi/OneDrive/Desktop/GD32VW553/V1_MQTT_OK/GD32VW55X_Wifi_BLE_SDK/GD32VW55x_RELEASE_V1.0.2/MSDK/cloud/alicloud/src/services/awss\zconfig_utils.c ****         os_printf("%02x ", data[i]);
  44              		.loc 1 24 9
  45 0010 370A0000 		lui	s4,%hi(.LC0)
  25:C:/Users/stapi/OneDrive/Desktop/GD32VW553/V1_MQTT_OK/GD32VW55X_Wifi_BLE_SDK/GD32VW55x_RELEASE_V1.0.2/MSDK/cloud/alicloud/src/services/awss\zconfig_utils.c **** 
  26:C:/Users/stapi/OneDrive/Desktop/GD32VW553/V1_MQTT_OK/GD32VW55X_Wifi_BLE_SDK/GD32VW55x_RELEASE_V1.0.2/MSDK/cloud/alicloud/src/services/awss\zconfig_utils.c ****         if (!((i + 1) % tab_num)) {
  27:C:/Users/stapi/OneDrive/Desktop/GD32VW553/V1_MQTT_OK/GD32VW55X_Wifi_BLE_SDK/GD32VW55x_RELEASE_V1.0.2/MSDK/cloud/alicloud/src/services/awss\zconfig_utils.c ****             os_printf("\r\n");
  46              		.loc 1 27 13
  47 0014 B70A0000 		lui	s5,%hi(.LC1)
  48              	.LVL2:
  49              	.L2:
  23:C:/Users/stapi/OneDrive/Desktop/GD32VW553/V1_MQTT_OK/GD32VW55X_Wifi_BLE_SDK/GD32VW55x_RELEASE_V1.0.2/MSDK/cloud/alicloud/src/services/awss\zconfig_utils.c ****         os_printf("%02x ", data[i]);
  50              		.loc 1 23 17 is_stmt 1 discriminator 1
  23:C:/Users/stapi/OneDrive/Desktop/GD32VW553/V1_MQTT_OK/GD32VW55X_Wifi_BLE_SDK/GD32VW55x_RELEASE_V1.0.2/MSDK/cloud/alicloud/src/services/awss\zconfig_utils.c ****         os_printf("%02x ", data[i]);
  51              		.loc 1 23 5 is_stmt 0 discriminator 1
  52 0018 634E9400 		blt	s0,s1,.L4
  28:C:/Users/stapi/OneDrive/Desktop/GD32VW553/V1_MQTT_OK/GD32VW55X_Wifi_BLE_SDK/GD32VW55x_RELEASE_V1.0.2/MSDK/cloud/alicloud/src/services/awss\zconfig_utils.c ****         }
  29:C:/Users/stapi/OneDrive/Desktop/GD32VW553/V1_MQTT_OK/GD32VW55X_Wifi_BLE_SDK/GD32VW55x_RELEASE_V1.0.2/MSDK/cloud/alicloud/src/services/awss\zconfig_utils.c ****     }
  30:C:/Users/stapi/OneDrive/Desktop/GD32VW553/V1_MQTT_OK/GD32VW55X_Wifi_BLE_SDK/GD32VW55x_RELEASE_V1.0.2/MSDK/cloud/alicloud/src/services/awss\zconfig_utils.c **** 
  31:C:/Users/stapi/OneDrive/Desktop/GD32VW553/V1_MQTT_OK/GD32VW55X_Wifi_BLE_SDK/GD32VW55x_RELEASE_V1.0.2/MSDK/cloud/alicloud/src/services/awss\zconfig_utils.c ****     os_printf("\r\n");
  53              		.loc 1 31 5 is_stmt 1
  54 001c 37050000 		lui	a0,%hi(.LC1)
  55 0020 13050500 		addi	a0,a0,%lo(.LC1)
  56 0024 97000000 		call	HAL_Printf
  56      E7800000 
  57              	.LVL3:
  32:C:/Users/stapi/OneDrive/Desktop/GD32VW553/V1_MQTT_OK/GD32VW55X_Wifi_BLE_SDK/GD32VW55x_RELEASE_V1.0.2/MSDK/cloud/alicloud/src/services/awss\zconfig_utils.c **** #endif
  33:C:/Users/stapi/OneDrive/Desktop/GD32VW553/V1_MQTT_OK/GD32VW55X_Wifi_BLE_SDK/GD32VW55x_RELEASE_V1.0.2/MSDK/cloud/alicloud/src/services/awss\zconfig_utils.c **** }
  58              		.loc 1 33 1 is_stmt 0
  59 002c 17030000 		tail	__riscv_restore_6
  59      67000300 
  60              		.cfi_remember_state
  61              		.cfi_restore 21
  62              		.cfi_restore 20
  63              		.cfi_restore 19
  64              		.cfi_restore 18
  65              		.cfi_restore 9
  66              		.cfi_restore 8
  67              		.cfi_restore 1
  68              		.cfi_def_cfa_offset 0
  69              	.L4:
  70              		.cfi_restore_state
  24:C:/Users/stapi/OneDrive/Desktop/GD32VW553/V1_MQTT_OK/GD32VW55X_Wifi_BLE_SDK/GD32VW55x_RELEASE_V1.0.2/MSDK/cloud/alicloud/src/services/awss\zconfig_utils.c **** 
  71              		.loc 1 24 9 is_stmt 1
  72 0034 B3078900 		add	a5,s2,s0
  73 0038 83C50700 		lbu	a1,0(a5)
  74 003c 13050A00 		addi	a0,s4,%lo(.LC0)
  26:C:/Users/stapi/OneDrive/Desktop/GD32VW553/V1_MQTT_OK/GD32VW55X_Wifi_BLE_SDK/GD32VW55x_RELEASE_V1.0.2/MSDK/cloud/alicloud/src/services/awss\zconfig_utils.c ****             os_printf("\r\n");
  75              		.loc 1 26 18 is_stmt 0
  76 0040 0504     		addi	s0,s0,1
  77              	.LVL4:
  24:C:/Users/stapi/OneDrive/Desktop/GD32VW553/V1_MQTT_OK/GD32VW55X_Wifi_BLE_SDK/GD32VW55x_RELEASE_V1.0.2/MSDK/cloud/alicloud/src/services/awss\zconfig_utils.c **** 
  78              		.loc 1 24 9
  79 0042 97000000 		call	HAL_Printf
  79      E7800000 
  80              	.LVL5:
  26:C:/Users/stapi/OneDrive/Desktop/GD32VW553/V1_MQTT_OK/GD32VW55X_Wifi_BLE_SDK/GD32VW55x_RELEASE_V1.0.2/MSDK/cloud/alicloud/src/services/awss\zconfig_utils.c ****             os_printf("\r\n");
  81              		.loc 1 26 9 is_stmt 1
  26:C:/Users/stapi/OneDrive/Desktop/GD32VW553/V1_MQTT_OK/GD32VW55X_Wifi_BLE_SDK/GD32VW55x_RELEASE_V1.0.2/MSDK/cloud/alicloud/src/services/awss\zconfig_utils.c ****             os_printf("\r\n");
  82              		.loc 1 26 23 is_stmt 0
  83 004a B3673403 		rem	a5,s0,s3
  26:C:/Users/stapi/OneDrive/Desktop/GD32VW553/V1_MQTT_OK/GD32VW55X_Wifi_BLE_SDK/GD32VW55x_RELEASE_V1.0.2/MSDK/cloud/alicloud/src/services/awss\zconfig_utils.c ****             os_printf("\r\n");
  84              		.loc 1 26 12
  85 004e E9F7     		bne	a5,zero,.L2
  27:C:/Users/stapi/OneDrive/Desktop/GD32VW553/V1_MQTT_OK/GD32VW55X_Wifi_BLE_SDK/GD32VW55x_RELEASE_V1.0.2/MSDK/cloud/alicloud/src/services/awss\zconfig_utils.c ****         }
  86              		.loc 1 27 13 is_stmt 1
  87 0050 13850A00 		addi	a0,s5,%lo(.LC1)
  88 0054 97000000 		call	HAL_Printf
  88      E7800000 
  89              	.LVL6:
  90 005c 75BF     		j	.L2
  91              		.cfi_endproc
  92              	.LFE48:
  94              		.section	.text.zconfig_checksum_v3,"ax",@progbits
  95              		.align	1
  96              		.globl	zconfig_checksum_v3
  98              	zconfig_checksum_v3:
  99              	.LFB49:
  34:C:/Users/stapi/OneDrive/Desktop/GD32VW553/V1_MQTT_OK/GD32VW55X_Wifi_BLE_SDK/GD32VW55x_RELEASE_V1.0.2/MSDK/cloud/alicloud/src/services/awss\zconfig_utils.c **** #if 0
  35:C:/Users/stapi/OneDrive/Desktop/GD32VW553/V1_MQTT_OK/GD32VW55X_Wifi_BLE_SDK/GD32VW55x_RELEASE_V1.0.2/MSDK/cloud/alicloud/src/services/awss\zconfig_utils.c **** void zconfig_dump_ascii(uint8_t *data, int len, int tab_num)
  36:C:/Users/stapi/OneDrive/Desktop/GD32VW553/V1_MQTT_OK/GD32VW55X_Wifi_BLE_SDK/GD32VW55x_RELEASE_V1.0.2/MSDK/cloud/alicloud/src/services/awss\zconfig_utils.c **** {
  37:C:/Users/stapi/OneDrive/Desktop/GD32VW553/V1_MQTT_OK/GD32VW55X_Wifi_BLE_SDK/GD32VW55x_RELEASE_V1.0.2/MSDK/cloud/alicloud/src/services/awss\zconfig_utils.c ****     int i;
  38:C:/Users/stapi/OneDrive/Desktop/GD32VW553/V1_MQTT_OK/GD32VW55X_Wifi_BLE_SDK/GD32VW55x_RELEASE_V1.0.2/MSDK/cloud/alicloud/src/services/awss\zconfig_utils.c ****     for (i = 0; i < len; i++) {
  39:C:/Users/stapi/OneDrive/Desktop/GD32VW553/V1_MQTT_OK/GD32VW55X_Wifi_BLE_SDK/GD32VW55x_RELEASE_V1.0.2/MSDK/cloud/alicloud/src/services/awss\zconfig_utils.c ****         os_printf("%-2c ", data[i]);
  40:C:/Users/stapi/OneDrive/Desktop/GD32VW553/V1_MQTT_OK/GD32VW55X_Wifi_BLE_SDK/GD32VW55x_RELEASE_V1.0.2/MSDK/cloud/alicloud/src/services/awss\zconfig_utils.c **** 
  41:C:/Users/stapi/OneDrive/Desktop/GD32VW553/V1_MQTT_OK/GD32VW55X_Wifi_BLE_SDK/GD32VW55x_RELEASE_V1.0.2/MSDK/cloud/alicloud/src/services/awss\zconfig_utils.c ****         if (!((i + 1) % tab_num)) {
  42:C:/Users/stapi/OneDrive/Desktop/GD32VW553/V1_MQTT_OK/GD32VW55X_Wifi_BLE_SDK/GD32VW55x_RELEASE_V1.0.2/MSDK/cloud/alicloud/src/services/awss\zconfig_utils.c ****             os_printf("  ");
  43:C:/Users/stapi/OneDrive/Desktop/GD32VW553/V1_MQTT_OK/GD32VW55X_Wifi_BLE_SDK/GD32VW55x_RELEASE_V1.0.2/MSDK/cloud/alicloud/src/services/awss\zconfig_utils.c ****         }
  44:C:/Users/stapi/OneDrive/Desktop/GD32VW553/V1_MQTT_OK/GD32VW55X_Wifi_BLE_SDK/GD32VW55x_RELEASE_V1.0.2/MSDK/cloud/alicloud/src/services/awss\zconfig_utils.c ****     }
  45:C:/Users/stapi/OneDrive/Desktop/GD32VW553/V1_MQTT_OK/GD32VW55X_Wifi_BLE_SDK/GD32VW55x_RELEASE_V1.0.2/MSDK/cloud/alicloud/src/services/awss\zconfig_utils.c **** 
  46:C:/Users/stapi/OneDrive/Desktop/GD32VW553/V1_MQTT_OK/GD32VW55X_Wifi_BLE_SDK/GD32VW55x_RELEASE_V1.0.2/MSDK/cloud/alicloud/src/services/awss\zconfig_utils.c ****     os_printf("\r\n");
  47:C:/Users/stapi/OneDrive/Desktop/GD32VW553/V1_MQTT_OK/GD32VW55X_Wifi_BLE_SDK/GD32VW55x_RELEASE_V1.0.2/MSDK/cloud/alicloud/src/services/awss\zconfig_utils.c **** }
  48:C:/Users/stapi/OneDrive/Desktop/GD32VW553/V1_MQTT_OK/GD32VW55X_Wifi_BLE_SDK/GD32VW55x_RELEASE_V1.0.2/MSDK/cloud/alicloud/src/services/awss\zconfig_utils.c **** 
  49:C:/Users/stapi/OneDrive/Desktop/GD32VW553/V1_MQTT_OK/GD32VW55X_Wifi_BLE_SDK/GD32VW55x_RELEASE_V1.0.2/MSDK/cloud/alicloud/src/services/awss\zconfig_utils.c **** void zconfig_dump_mac(uint8_t *src, uint8_t *dst)
  50:C:/Users/stapi/OneDrive/Desktop/GD32VW553/V1_MQTT_OK/GD32VW55X_Wifi_BLE_SDK/GD32VW55x_RELEASE_V1.0.2/MSDK/cloud/alicloud/src/services/awss\zconfig_utils.c **** {
  51:C:/Users/stapi/OneDrive/Desktop/GD32VW553/V1_MQTT_OK/GD32VW55X_Wifi_BLE_SDK/GD32VW55x_RELEASE_V1.0.2/MSDK/cloud/alicloud/src/services/awss\zconfig_utils.c ****     uint8_t *mac;
  52:C:/Users/stapi/OneDrive/Desktop/GD32VW553/V1_MQTT_OK/GD32VW55X_Wifi_BLE_SDK/GD32VW55x_RELEASE_V1.0.2/MSDK/cloud/alicloud/src/services/awss\zconfig_utils.c **** 
  53:C:/Users/stapi/OneDrive/Desktop/GD32VW553/V1_MQTT_OK/GD32VW55X_Wifi_BLE_SDK/GD32VW55x_RELEASE_V1.0.2/MSDK/cloud/alicloud/src/services/awss\zconfig_utils.c ****     mac = src;
  54:C:/Users/stapi/OneDrive/Desktop/GD32VW553/V1_MQTT_OK/GD32VW55X_Wifi_BLE_SDK/GD32VW55x_RELEASE_V1.0.2/MSDK/cloud/alicloud/src/services/awss\zconfig_utils.c ****     os_printf("%02x:%02x:%02x:%02x:%02x:%02x > ",
  55:C:/Users/stapi/OneDrive/Desktop/GD32VW553/V1_MQTT_OK/GD32VW55X_Wifi_BLE_SDK/GD32VW55x_RELEASE_V1.0.2/MSDK/cloud/alicloud/src/services/awss\zconfig_utils.c ****               mac[0], mac[1], mac[2], mac[3], mac[4], mac[5]);
  56:C:/Users/stapi/OneDrive/Desktop/GD32VW553/V1_MQTT_OK/GD32VW55X_Wifi_BLE_SDK/GD32VW55x_RELEASE_V1.0.2/MSDK/cloud/alicloud/src/services/awss\zconfig_utils.c **** 
  57:C:/Users/stapi/OneDrive/Desktop/GD32VW553/V1_MQTT_OK/GD32VW55X_Wifi_BLE_SDK/GD32VW55x_RELEASE_V1.0.2/MSDK/cloud/alicloud/src/services/awss\zconfig_utils.c ****     mac = dst;
  58:C:/Users/stapi/OneDrive/Desktop/GD32VW553/V1_MQTT_OK/GD32VW55X_Wifi_BLE_SDK/GD32VW55x_RELEASE_V1.0.2/MSDK/cloud/alicloud/src/services/awss\zconfig_utils.c ****     os_printf("%02x:%02x:%02x:%02x:%02x:%02x\r\n",
  59:C:/Users/stapi/OneDrive/Desktop/GD32VW553/V1_MQTT_OK/GD32VW55X_Wifi_BLE_SDK/GD32VW55x_RELEASE_V1.0.2/MSDK/cloud/alicloud/src/services/awss\zconfig_utils.c ****               mac[0], mac[1], mac[2], mac[3], mac[4], mac[5]);
  60:C:/Users/stapi/OneDrive/Desktop/GD32VW553/V1_MQTT_OK/GD32VW55X_Wifi_BLE_SDK/GD32VW55x_RELEASE_V1.0.2/MSDK/cloud/alicloud/src/services/awss\zconfig_utils.c **** 
  61:C:/Users/stapi/OneDrive/Desktop/GD32VW553/V1_MQTT_OK/GD32VW55X_Wifi_BLE_SDK/GD32VW55x_RELEASE_V1.0.2/MSDK/cloud/alicloud/src/services/awss\zconfig_utils.c ****     /* elimite compiler warning */
  62:C:/Users/stapi/OneDrive/Desktop/GD32VW553/V1_MQTT_OK/GD32VW55X_Wifi_BLE_SDK/GD32VW55x_RELEASE_V1.0.2/MSDK/cloud/alicloud/src/services/awss\zconfig_utils.c ****     mac = mac;
  63:C:/Users/stapi/OneDrive/Desktop/GD32VW553/V1_MQTT_OK/GD32VW55X_Wifi_BLE_SDK/GD32VW55x_RELEASE_V1.0.2/MSDK/cloud/alicloud/src/services/awss\zconfig_utils.c **** }
  64:C:/Users/stapi/OneDrive/Desktop/GD32VW553/V1_MQTT_OK/GD32VW55X_Wifi_BLE_SDK/GD32VW55x_RELEASE_V1.0.2/MSDK/cloud/alicloud/src/services/awss\zconfig_utils.c **** #endif
  65:C:/Users/stapi/OneDrive/Desktop/GD32VW553/V1_MQTT_OK/GD32VW55X_Wifi_BLE_SDK/GD32VW55x_RELEASE_V1.0.2/MSDK/cloud/alicloud/src/services/awss\zconfig_utils.c **** /* for smartconfig with encrypt */
  66:C:/Users/stapi/OneDrive/Desktop/GD32VW553/V1_MQTT_OK/GD32VW55X_Wifi_BLE_SDK/GD32VW55x_RELEASE_V1.0.2/MSDK/cloud/alicloud/src/services/awss\zconfig_utils.c **** uint16_t zconfig_checksum_v3(uint8_t *data, uint8_t len)
  67:C:/Users/stapi/OneDrive/Desktop/GD32VW553/V1_MQTT_OK/GD32VW55X_Wifi_BLE_SDK/GD32VW55x_RELEASE_V1.0.2/MSDK/cloud/alicloud/src/services/awss\zconfig_utils.c **** {
 100              		.loc 1 67 1
 101              		.cfi_startproc
 102              	.LVL7:
  68:C:/Users/stapi/OneDrive/Desktop/GD32VW553/V1_MQTT_OK/GD32VW55X_Wifi_BLE_SDK/GD32VW55x_RELEASE_V1.0.2/MSDK/cloud/alicloud/src/services/awss\zconfig_utils.c ****     uint8_t i;
 103              		.loc 1 68 5
  69:C:/Users/stapi/OneDrive/Desktop/GD32VW553/V1_MQTT_OK/GD32VW55X_Wifi_BLE_SDK/GD32VW55x_RELEASE_V1.0.2/MSDK/cloud/alicloud/src/services/awss\zconfig_utils.c ****     uint16_t sum = 0, res;
 104              		.loc 1 69 5
  70:C:/Users/stapi/OneDrive/Desktop/GD32VW553/V1_MQTT_OK/GD32VW55X_Wifi_BLE_SDK/GD32VW55x_RELEASE_V1.0.2/MSDK/cloud/alicloud/src/services/awss\zconfig_utils.c **** 
  71:C:/Users/stapi/OneDrive/Desktop/GD32VW553/V1_MQTT_OK/GD32VW55X_Wifi_BLE_SDK/GD32VW55x_RELEASE_V1.0.2/MSDK/cloud/alicloud/src/services/awss\zconfig_utils.c ****     for (i = 0; i < len; i++) {
 105              		.loc 1 71 5
 106 0000 8146     		li	a3,0
  69:C:/Users/stapi/OneDrive/Desktop/GD32VW553/V1_MQTT_OK/GD32VW55X_Wifi_BLE_SDK/GD32VW55x_RELEASE_V1.0.2/MSDK/cloud/alicloud/src/services/awss\zconfig_utils.c ****     uint16_t sum = 0, res;
 107              		.loc 1 69 14 is_stmt 0
 108 0002 0147     		li	a4,0
 109              	.LVL8:
 110              	.L7:
 111              		.loc 1 71 17 is_stmt 1 discriminator 1
 112              		.loc 1 71 5 is_stmt 0 discriminator 1
 113 0004 93F7F60F 		andi	a5,a3,0xff
 114 0008 63ECB702 		bgtu	a1,a5,.L8
  72:C:/Users/stapi/OneDrive/Desktop/GD32VW553/V1_MQTT_OK/GD32VW55X_Wifi_BLE_SDK/GD32VW55x_RELEASE_V1.0.2/MSDK/cloud/alicloud/src/services/awss\zconfig_utils.c ****         sum += data[i];
  73:C:/Users/stapi/OneDrive/Desktop/GD32VW553/V1_MQTT_OK/GD32VW55X_Wifi_BLE_SDK/GD32VW55x_RELEASE_V1.0.2/MSDK/cloud/alicloud/src/services/awss\zconfig_utils.c ****     }
  74:C:/Users/stapi/OneDrive/Desktop/GD32VW553/V1_MQTT_OK/GD32VW55X_Wifi_BLE_SDK/GD32VW55x_RELEASE_V1.0.2/MSDK/cloud/alicloud/src/services/awss\zconfig_utils.c **** 
  75:C:/Users/stapi/OneDrive/Desktop/GD32VW553/V1_MQTT_OK/GD32VW55X_Wifi_BLE_SDK/GD32VW55x_RELEASE_V1.0.2/MSDK/cloud/alicloud/src/services/awss\zconfig_utils.c ****     res = sum & (0x3F << 0);
 115              		.loc 1 75 5 is_stmt 1
 116              	.LVL9:
  76:C:/Users/stapi/OneDrive/Desktop/GD32VW553/V1_MQTT_OK/GD32VW55X_Wifi_BLE_SDK/GD32VW55x_RELEASE_V1.0.2/MSDK/cloud/alicloud/src/services/awss\zconfig_utils.c ****     res |= (sum & (0x3F << 6)) << 2;
 117              		.loc 1 76 5
 118              		.loc 1 76 32 is_stmt 0
 119 000c 9166     		li	a3,16384
 120              	.LVL10:
 121 000e 93172700 		slli	a5,a4,2
 122              	.LVL11:
 123 0012 938606F0 		addi	a3,a3,-256
 124 0016 F58F     		and	a5,a5,a3
  75:C:/Users/stapi/OneDrive/Desktop/GD32VW553/V1_MQTT_OK/GD32VW55X_Wifi_BLE_SDK/GD32VW55x_RELEASE_V1.0.2/MSDK/cloud/alicloud/src/services/awss\zconfig_utils.c ****     res |= (sum & (0x3F << 6)) << 2;
 125              		.loc 1 75 9
 126 0018 1377F703 		andi	a4,a4,63
 127              	.LVL12:
 128              		.loc 1 76 9
 129 001c D98F     		or	a5,a5,a4
 130 001e 93975760 		sext.h	a5,a5
 131 0022 33C50708 		zext.h	a0,a5
 132              	.LVL13:
  77:C:/Users/stapi/OneDrive/Desktop/GD32VW553/V1_MQTT_OK/GD32VW55X_Wifi_BLE_SDK/GD32VW55x_RELEASE_V1.0.2/MSDK/cloud/alicloud/src/services/awss\zconfig_utils.c **** 
  78:C:/Users/stapi/OneDrive/Desktop/GD32VW553/V1_MQTT_OK/GD32VW55X_Wifi_BLE_SDK/GD32VW55x_RELEASE_V1.0.2/MSDK/cloud/alicloud/src/services/awss\zconfig_utils.c ****     if (!(res & 0x00FF)) {
 133              		.loc 1 78 5 is_stmt 1
 134              		.loc 1 78 8 is_stmt 0
 135 0026 93F7F703 		andi	a5,a5,63
 136 002a 99E3     		bne	a5,zero,.L9
  79:C:/Users/stapi/OneDrive/Desktop/GD32VW553/V1_MQTT_OK/GD32VW55X_Wifi_BLE_SDK/GD32VW55x_RELEASE_V1.0.2/MSDK/cloud/alicloud/src/services/awss\zconfig_utils.c ****         res |= 0x0001;
 137              		.loc 1 79 9 is_stmt 1
 138              		.loc 1 79 13 is_stmt 0
 139 002c 13651500 		ori	a0,a0,1
 140              	.LVL14:
 141              	.L9:
  80:C:/Users/stapi/OneDrive/Desktop/GD32VW553/V1_MQTT_OK/GD32VW55X_Wifi_BLE_SDK/GD32VW55x_RELEASE_V1.0.2/MSDK/cloud/alicloud/src/services/awss\zconfig_utils.c ****     }
  81:C:/Users/stapi/OneDrive/Desktop/GD32VW553/V1_MQTT_OK/GD32VW55X_Wifi_BLE_SDK/GD32VW55x_RELEASE_V1.0.2/MSDK/cloud/alicloud/src/services/awss\zconfig_utils.c ****     if (!(res & 0xFF00)) {
 142              		.loc 1 81 5 is_stmt 1
 143              		.loc 1 81 8 is_stmt 0
 144 0030 937705F0 		andi	a5,a0,-256
 145 0034 B3C70708 		zext.h	a5,a5
 146 0038 99E3     		bne	a5,zero,.L10
  82:C:/Users/stapi/OneDrive/Desktop/GD32VW553/V1_MQTT_OK/GD32VW55X_Wifi_BLE_SDK/GD32VW55x_RELEASE_V1.0.2/MSDK/cloud/alicloud/src/services/awss\zconfig_utils.c ****         res |= 0x0100;
 147              		.loc 1 82 9 is_stmt 1
 148              		.loc 1 82 13 is_stmt 0
 149 003a 13650510 		ori	a0,a0,256
 150              	.LVL15:
 151              	.L10:
  83:C:/Users/stapi/OneDrive/Desktop/GD32VW553/V1_MQTT_OK/GD32VW55X_Wifi_BLE_SDK/GD32VW55x_RELEASE_V1.0.2/MSDK/cloud/alicloud/src/services/awss\zconfig_utils.c ****     }
  84:C:/Users/stapi/OneDrive/Desktop/GD32VW553/V1_MQTT_OK/GD32VW55X_Wifi_BLE_SDK/GD32VW55x_RELEASE_V1.0.2/MSDK/cloud/alicloud/src/services/awss\zconfig_utils.c **** 
  85:C:/Users/stapi/OneDrive/Desktop/GD32VW553/V1_MQTT_OK/GD32VW55X_Wifi_BLE_SDK/GD32VW55x_RELEASE_V1.0.2/MSDK/cloud/alicloud/src/services/awss\zconfig_utils.c ****     return res;
 152              		.loc 1 85 5 is_stmt 1
  86:C:/Users/stapi/OneDrive/Desktop/GD32VW553/V1_MQTT_OK/GD32VW55X_Wifi_BLE_SDK/GD32VW55x_RELEASE_V1.0.2/MSDK/cloud/alicloud/src/services/awss\zconfig_utils.c **** }
 153              		.loc 1 86 1 is_stmt 0
 154 003e 8280     		ret
 155              	.LVL16:
 156              	.L8:
  72:C:/Users/stapi/OneDrive/Desktop/GD32VW553/V1_MQTT_OK/GD32VW55X_Wifi_BLE_SDK/GD32VW55x_RELEASE_V1.0.2/MSDK/cloud/alicloud/src/services/awss\zconfig_utils.c ****     }
 157              		.loc 1 72 9 is_stmt 1 discriminator 3
  72:C:/Users/stapi/OneDrive/Desktop/GD32VW553/V1_MQTT_OK/GD32VW55X_Wifi_BLE_SDK/GD32VW55x_RELEASE_V1.0.2/MSDK/cloud/alicloud/src/services/awss\zconfig_utils.c ****     }
 158              		.loc 1 72 20 is_stmt 0 discriminator 3
 159 0040 B307D500 		add	a5,a0,a3
 160 0044 83C70700 		lbu	a5,0(a5)
 161 0048 8506     		addi	a3,a3,1
 162              	.LVL17:
  72:C:/Users/stapi/OneDrive/Desktop/GD32VW553/V1_MQTT_OK/GD32VW55X_Wifi_BLE_SDK/GD32VW55x_RELEASE_V1.0.2/MSDK/cloud/alicloud/src/services/awss\zconfig_utils.c ****     }
 163              		.loc 1 72 13 discriminator 3
 164 004a 3E97     		add	a4,a4,a5
 165              	.LVL18:
 166 004c 33470708 		zext.h	a4,a4
 167              	.LVL19:
  71:C:/Users/stapi/OneDrive/Desktop/GD32VW553/V1_MQTT_OK/GD32VW55X_Wifi_BLE_SDK/GD32VW55x_RELEASE_V1.0.2/MSDK/cloud/alicloud/src/services/awss\zconfig_utils.c ****         sum += data[i];
 168              		.loc 1 71 26 is_stmt 1 discriminator 3
 169 0050 55BF     		j	.L7
 170              		.cfi_endproc
 171              	.LFE49:
 173              		.section	.rodata.zconfig_auth_str.str1.4,"aMS",@progbits,1
 174              		.align	2
 175              	.LC2:
 176 0000 696E7661 		.string	"invalid auth"
 176      6C696420 
 176      61757468 
 176      00
 177              		.section	.text.zconfig_auth_str,"ax",@progbits
 178              		.align	1
 179              		.globl	zconfig_auth_str
 181              	zconfig_auth_str:
 182              	.LFB50:
  87:C:/Users/stapi/OneDrive/Desktop/GD32VW553/V1_MQTT_OK/GD32VW55X_Wifi_BLE_SDK/GD32VW55x_RELEASE_V1.0.2/MSDK/cloud/alicloud/src/services/awss\zconfig_utils.c **** 
  88:C:/Users/stapi/OneDrive/Desktop/GD32VW553/V1_MQTT_OK/GD32VW55X_Wifi_BLE_SDK/GD32VW55x_RELEASE_V1.0.2/MSDK/cloud/alicloud/src/services/awss\zconfig_utils.c **** static const char *zc_auth_str[] = {
  89:C:/Users/stapi/OneDrive/Desktop/GD32VW553/V1_MQTT_OK/GD32VW55X_Wifi_BLE_SDK/GD32VW55x_RELEASE_V1.0.2/MSDK/cloud/alicloud/src/services/awss\zconfig_utils.c ****     "open",
  90:C:/Users/stapi/OneDrive/Desktop/GD32VW553/V1_MQTT_OK/GD32VW55X_Wifi_BLE_SDK/GD32VW55x_RELEASE_V1.0.2/MSDK/cloud/alicloud/src/services/awss\zconfig_utils.c ****     "shared",
  91:C:/Users/stapi/OneDrive/Desktop/GD32VW553/V1_MQTT_OK/GD32VW55X_Wifi_BLE_SDK/GD32VW55x_RELEASE_V1.0.2/MSDK/cloud/alicloud/src/services/awss\zconfig_utils.c ****     "wpa-psk",
  92:C:/Users/stapi/OneDrive/Desktop/GD32VW553/V1_MQTT_OK/GD32VW55X_Wifi_BLE_SDK/GD32VW55x_RELEASE_V1.0.2/MSDK/cloud/alicloud/src/services/awss\zconfig_utils.c ****     "wpa-8021x",
  93:C:/Users/stapi/OneDrive/Desktop/GD32VW553/V1_MQTT_OK/GD32VW55X_Wifi_BLE_SDK/GD32VW55x_RELEASE_V1.0.2/MSDK/cloud/alicloud/src/services/awss\zconfig_utils.c ****     "wpa2-psk",
  94:C:/Users/stapi/OneDrive/Desktop/GD32VW553/V1_MQTT_OK/GD32VW55X_Wifi_BLE_SDK/GD32VW55x_RELEASE_V1.0.2/MSDK/cloud/alicloud/src/services/awss\zconfig_utils.c ****     "wpa2-8021x",
  95:C:/Users/stapi/OneDrive/Desktop/GD32VW553/V1_MQTT_OK/GD32VW55X_Wifi_BLE_SDK/GD32VW55x_RELEASE_V1.0.2/MSDK/cloud/alicloud/src/services/awss\zconfig_utils.c ****     "wpa-psk - wpa2-psk",
  96:C:/Users/stapi/OneDrive/Desktop/GD32VW553/V1_MQTT_OK/GD32VW55X_Wifi_BLE_SDK/GD32VW55x_RELEASE_V1.0.2/MSDK/cloud/alicloud/src/services/awss\zconfig_utils.c **** };
  97:C:/Users/stapi/OneDrive/Desktop/GD32VW553/V1_MQTT_OK/GD32VW55X_Wifi_BLE_SDK/GD32VW55x_RELEASE_V1.0.2/MSDK/cloud/alicloud/src/services/awss\zconfig_utils.c **** 
  98:C:/Users/stapi/OneDrive/Desktop/GD32VW553/V1_MQTT_OK/GD32VW55X_Wifi_BLE_SDK/GD32VW55x_RELEASE_V1.0.2/MSDK/cloud/alicloud/src/services/awss\zconfig_utils.c **** const char *zconfig_auth_str(uint8_t auth)
  99:C:/Users/stapi/OneDrive/Desktop/GD32VW553/V1_MQTT_OK/GD32VW55X_Wifi_BLE_SDK/GD32VW55x_RELEASE_V1.0.2/MSDK/cloud/alicloud/src/services/awss\zconfig_utils.c **** {
 183              		.loc 1 99 1
 184              		.cfi_startproc
 185              	.LVL20:
 100:C:/Users/stapi/OneDrive/Desktop/GD32VW553/V1_MQTT_OK/GD32VW55X_Wifi_BLE_SDK/GD32VW55x_RELEASE_V1.0.2/MSDK/cloud/alicloud/src/services/awss\zconfig_utils.c ****     if (auth <= ZC_AUTH_TYPE_MAX) {
 186              		.loc 1 100 5
 187              		.loc 1 100 8 is_stmt 0
 188 0000 9947     		li	a5,6
 189 0002 63EAA700 		bgtu	a0,a5,.L13
 101:C:/Users/stapi/OneDrive/Desktop/GD32VW553/V1_MQTT_OK/GD32VW55X_Wifi_BLE_SDK/GD32VW55x_RELEASE_V1.0.2/MSDK/cloud/alicloud/src/services/awss\zconfig_utils.c ****         return zc_auth_str[auth];
 190              		.loc 1 101 9 is_stmt 1
 191              		.loc 1 101 27 is_stmt 0
 192 0006 B7070000 		lui	a5,%hi(.LANCHOR0)
 193 000a 93870700 		addi	a5,a5,%lo(.LANCHOR0)
 194 000e 3345F520 		sh2add	a0,a0,a5
 195              	.LVL21:
 196 0012 0841     		lw	a0,0(a0)
 197 0014 8280     		ret
 198              	.LVL22:
 199              	.L13:
 102:C:/Users/stapi/OneDrive/Desktop/GD32VW553/V1_MQTT_OK/GD32VW55X_Wifi_BLE_SDK/GD32VW55x_RELEASE_V1.0.2/MSDK/cloud/alicloud/src/services/awss\zconfig_utils.c ****     } else {
 103:C:/Users/stapi/OneDrive/Desktop/GD32VW553/V1_MQTT_OK/GD32VW55X_Wifi_BLE_SDK/GD32VW55x_RELEASE_V1.0.2/MSDK/cloud/alicloud/src/services/awss\zconfig_utils.c ****         return "invalid auth";
 200              		.loc 1 103 16
 201 0016 37050000 		lui	a0,%hi(.LC2)
 202              	.LVL23:
 203 001a 13050500 		addi	a0,a0,%lo(.LC2)
 104:C:/Users/stapi/OneDrive/Desktop/GD32VW553/V1_MQTT_OK/GD32VW55X_Wifi_BLE_SDK/GD32VW55x_RELEASE_V1.0.2/MSDK/cloud/alicloud/src/services/awss\zconfig_utils.c ****     }
 105:C:/Users/stapi/OneDrive/Desktop/GD32VW553/V1_MQTT_OK/GD32VW55X_Wifi_BLE_SDK/GD32VW55x_RELEASE_V1.0.2/MSDK/cloud/alicloud/src/services/awss\zconfig_utils.c **** }
 204              		.loc 1 105 1
 205 001e 8280     		ret
 206              		.cfi_endproc
 207              	.LFE50:
 209              		.section	.rodata.zconfig_encry_str.str1.4,"aMS",@progbits,1
 210              		.align	2
 211              	.LC3:
 212 0000 696E7661 		.string	"invalid encry"
 212      6C696420 
 212      656E6372 
 212      7900
 213              		.section	.text.zconfig_encry_str,"ax",@progbits
 214              		.align	1
 215              		.globl	zconfig_encry_str
 217              	zconfig_encry_str:
 218              	.LFB51:
 106:C:/Users/stapi/OneDrive/Desktop/GD32VW553/V1_MQTT_OK/GD32VW55X_Wifi_BLE_SDK/GD32VW55x_RELEASE_V1.0.2/MSDK/cloud/alicloud/src/services/awss\zconfig_utils.c **** 
 107:C:/Users/stapi/OneDrive/Desktop/GD32VW553/V1_MQTT_OK/GD32VW55X_Wifi_BLE_SDK/GD32VW55x_RELEASE_V1.0.2/MSDK/cloud/alicloud/src/services/awss\zconfig_utils.c **** static const char *zc_encry_str[] = {
 108:C:/Users/stapi/OneDrive/Desktop/GD32VW553/V1_MQTT_OK/GD32VW55X_Wifi_BLE_SDK/GD32VW55x_RELEASE_V1.0.2/MSDK/cloud/alicloud/src/services/awss\zconfig_utils.c ****     "none",
 109:C:/Users/stapi/OneDrive/Desktop/GD32VW553/V1_MQTT_OK/GD32VW55X_Wifi_BLE_SDK/GD32VW55x_RELEASE_V1.0.2/MSDK/cloud/alicloud/src/services/awss\zconfig_utils.c ****     "wep",
 110:C:/Users/stapi/OneDrive/Desktop/GD32VW553/V1_MQTT_OK/GD32VW55X_Wifi_BLE_SDK/GD32VW55x_RELEASE_V1.0.2/MSDK/cloud/alicloud/src/services/awss\zconfig_utils.c ****     "tkip",
 111:C:/Users/stapi/OneDrive/Desktop/GD32VW553/V1_MQTT_OK/GD32VW55X_Wifi_BLE_SDK/GD32VW55x_RELEASE_V1.0.2/MSDK/cloud/alicloud/src/services/awss\zconfig_utils.c ****     "aes",
 112:C:/Users/stapi/OneDrive/Desktop/GD32VW553/V1_MQTT_OK/GD32VW55X_Wifi_BLE_SDK/GD32VW55x_RELEASE_V1.0.2/MSDK/cloud/alicloud/src/services/awss\zconfig_utils.c ****     "tkip-aes"
 113:C:/Users/stapi/OneDrive/Desktop/GD32VW553/V1_MQTT_OK/GD32VW55X_Wifi_BLE_SDK/GD32VW55x_RELEASE_V1.0.2/MSDK/cloud/alicloud/src/services/awss\zconfig_utils.c **** };
 114:C:/Users/stapi/OneDrive/Desktop/GD32VW553/V1_MQTT_OK/GD32VW55X_Wifi_BLE_SDK/GD32VW55x_RELEASE_V1.0.2/MSDK/cloud/alicloud/src/services/awss\zconfig_utils.c **** 
 115:C:/Users/stapi/OneDrive/Desktop/GD32VW553/V1_MQTT_OK/GD32VW55X_Wifi_BLE_SDK/GD32VW55x_RELEASE_V1.0.2/MSDK/cloud/alicloud/src/services/awss\zconfig_utils.c **** const char *zconfig_encry_str(uint8_t encry)
 116:C:/Users/stapi/OneDrive/Desktop/GD32VW553/V1_MQTT_OK/GD32VW55X_Wifi_BLE_SDK/GD32VW55x_RELEASE_V1.0.2/MSDK/cloud/alicloud/src/services/awss\zconfig_utils.c **** {
 219              		.loc 1 116 1 is_stmt 1
 220              		.cfi_startproc
 221              	.LVL24:
 117:C:/Users/stapi/OneDrive/Desktop/GD32VW553/V1_MQTT_OK/GD32VW55X_Wifi_BLE_SDK/GD32VW55x_RELEASE_V1.0.2/MSDK/cloud/alicloud/src/services/awss\zconfig_utils.c ****     if (encry <= ZC_ENC_TYPE_MAX) {
 222              		.loc 1 117 5
 223              		.loc 1 117 8 is_stmt 0
 224 0000 9147     		li	a5,4
 225 0002 63EAA700 		bgtu	a0,a5,.L16
 118:C:/Users/stapi/OneDrive/Desktop/GD32VW553/V1_MQTT_OK/GD32VW55X_Wifi_BLE_SDK/GD32VW55x_RELEASE_V1.0.2/MSDK/cloud/alicloud/src/services/awss\zconfig_utils.c ****         return zc_encry_str[encry];
 226              		.loc 1 118 9 is_stmt 1
 227              		.loc 1 118 28 is_stmt 0
 228 0006 B7070000 		lui	a5,%hi(.LANCHOR1)
 229 000a 93870700 		addi	a5,a5,%lo(.LANCHOR1)
 230 000e 3345F520 		sh2add	a0,a0,a5
 231              	.LVL25:
 232 0012 0841     		lw	a0,0(a0)
 233 0014 8280     		ret
 234              	.LVL26:
 235              	.L16:
 119:C:/Users/stapi/OneDrive/Desktop/GD32VW553/V1_MQTT_OK/GD32VW55X_Wifi_BLE_SDK/GD32VW55x_RELEASE_V1.0.2/MSDK/cloud/alicloud/src/services/awss\zconfig_utils.c ****     } else {
 120:C:/Users/stapi/OneDrive/Desktop/GD32VW553/V1_MQTT_OK/GD32VW55X_Wifi_BLE_SDK/GD32VW55x_RELEASE_V1.0.2/MSDK/cloud/alicloud/src/services/awss\zconfig_utils.c ****         return "invalid encry";
 236              		.loc 1 120 16
 237 0016 37050000 		lui	a0,%hi(.LC3)
 238              	.LVL27:
 239 001a 13050500 		addi	a0,a0,%lo(.LC3)
 121:C:/Users/stapi/OneDrive/Desktop/GD32VW553/V1_MQTT_OK/GD32VW55X_Wifi_BLE_SDK/GD32VW55x_RELEASE_V1.0.2/MSDK/cloud/alicloud/src/services/awss\zconfig_utils.c ****     }
 122:C:/Users/stapi/OneDrive/Desktop/GD32VW553/V1_MQTT_OK/GD32VW55X_Wifi_BLE_SDK/GD32VW55x_RELEASE_V1.0.2/MSDK/cloud/alicloud/src/services/awss\zconfig_utils.c **** }
 240              		.loc 1 122 1
 241 001e 8280     		ret
 242              		.cfi_endproc
 243              	.LFE51:
 245              		.section	.text.zconfig_checksum_v5,"ax",@progbits
 246              		.align	1
 247              		.globl	zconfig_checksum_v5
 249              	zconfig_checksum_v5:
 250              	.LFB52:
 123:C:/Users/stapi/OneDrive/Desktop/GD32VW553/V1_MQTT_OK/GD32VW55X_Wifi_BLE_SDK/GD32VW55x_RELEASE_V1.0.2/MSDK/cloud/alicloud/src/services/awss\zconfig_utils.c **** 
 124:C:/Users/stapi/OneDrive/Desktop/GD32VW553/V1_MQTT_OK/GD32VW55X_Wifi_BLE_SDK/GD32VW55x_RELEASE_V1.0.2/MSDK/cloud/alicloud/src/services/awss\zconfig_utils.c **** uint16_t zconfig_checksum_v5(uint8_t *data, uint8_t len)
 125:C:/Users/stapi/OneDrive/Desktop/GD32VW553/V1_MQTT_OK/GD32VW55X_Wifi_BLE_SDK/GD32VW55x_RELEASE_V1.0.2/MSDK/cloud/alicloud/src/services/awss\zconfig_utils.c **** {
 251              		.loc 1 125 1 is_stmt 1
 252              		.cfi_startproc
 253              	.LVL28:
 126:C:/Users/stapi/OneDrive/Desktop/GD32VW553/V1_MQTT_OK/GD32VW55X_Wifi_BLE_SDK/GD32VW55x_RELEASE_V1.0.2/MSDK/cloud/alicloud/src/services/awss\zconfig_utils.c ****     uint8_t i;
 254              		.loc 1 126 5
 127:C:/Users/stapi/OneDrive/Desktop/GD32VW553/V1_MQTT_OK/GD32VW55X_Wifi_BLE_SDK/GD32VW55x_RELEASE_V1.0.2/MSDK/cloud/alicloud/src/services/awss\zconfig_utils.c ****     uint16_t sum = 0, res;
 255              		.loc 1 127 5
 128:C:/Users/stapi/OneDrive/Desktop/GD32VW553/V1_MQTT_OK/GD32VW55X_Wifi_BLE_SDK/GD32VW55x_RELEASE_V1.0.2/MSDK/cloud/alicloud/src/services/awss\zconfig_utils.c **** 
 129:C:/Users/stapi/OneDrive/Desktop/GD32VW553/V1_MQTT_OK/GD32VW55X_Wifi_BLE_SDK/GD32VW55x_RELEASE_V1.0.2/MSDK/cloud/alicloud/src/services/awss\zconfig_utils.c ****     for (i = 0; i < len; i++) {
 256              		.loc 1 129 5
 125:C:/Users/stapi/OneDrive/Desktop/GD32VW553/V1_MQTT_OK/GD32VW55X_Wifi_BLE_SDK/GD32VW55x_RELEASE_V1.0.2/MSDK/cloud/alicloud/src/services/awss\zconfig_utils.c ****     uint8_t i;
 257              		.loc 1 125 1 is_stmt 0
 258 0000 2A87     		mv	a4,a0
 259              		.loc 1 129 5
 260 0002 8147     		li	a5,0
 127:C:/Users/stapi/OneDrive/Desktop/GD32VW553/V1_MQTT_OK/GD32VW55X_Wifi_BLE_SDK/GD32VW55x_RELEASE_V1.0.2/MSDK/cloud/alicloud/src/services/awss\zconfig_utils.c ****     uint16_t sum = 0, res;
 261              		.loc 1 127 14
 262 0004 0145     		li	a0,0
 263              	.LVL29:
 264              	.L18:
 265              		.loc 1 129 17 is_stmt 1 discriminator 1
 266              		.loc 1 129 5 is_stmt 0 discriminator 1
 267 0006 93F6F70F 		andi	a3,a5,0xff
 268 000a 63E3B600 		bgtu	a1,a3,.L19
 130:C:/Users/stapi/OneDrive/Desktop/GD32VW553/V1_MQTT_OK/GD32VW55X_Wifi_BLE_SDK/GD32VW55x_RELEASE_V1.0.2/MSDK/cloud/alicloud/src/services/awss\zconfig_utils.c ****         sum += data[i];
 131:C:/Users/stapi/OneDrive/Desktop/GD32VW553/V1_MQTT_OK/GD32VW55X_Wifi_BLE_SDK/GD32VW55x_RELEASE_V1.0.2/MSDK/cloud/alicloud/src/services/awss\zconfig_utils.c ****     }
 132:C:/Users/stapi/OneDrive/Desktop/GD32VW553/V1_MQTT_OK/GD32VW55X_Wifi_BLE_SDK/GD32VW55x_RELEASE_V1.0.2/MSDK/cloud/alicloud/src/services/awss\zconfig_utils.c **** 
 133:C:/Users/stapi/OneDrive/Desktop/GD32VW553/V1_MQTT_OK/GD32VW55X_Wifi_BLE_SDK/GD32VW55x_RELEASE_V1.0.2/MSDK/cloud/alicloud/src/services/awss\zconfig_utils.c ****     res = sum ;
 269              		.loc 1 133 5 is_stmt 1
 270              	.LVL30:
 134:C:/Users/stapi/OneDrive/Desktop/GD32VW553/V1_MQTT_OK/GD32VW55X_Wifi_BLE_SDK/GD32VW55x_RELEASE_V1.0.2/MSDK/cloud/alicloud/src/services/awss\zconfig_utils.c ****     return res;
 271              		.loc 1 134 5
 135:C:/Users/stapi/OneDrive/Desktop/GD32VW553/V1_MQTT_OK/GD32VW55X_Wifi_BLE_SDK/GD32VW55x_RELEASE_V1.0.2/MSDK/cloud/alicloud/src/services/awss\zconfig_utils.c **** }
 272              		.loc 1 135 1 is_stmt 0
 273 000e 8280     		ret
 274              	.LVL31:
 275              	.L19:
 130:C:/Users/stapi/OneDrive/Desktop/GD32VW553/V1_MQTT_OK/GD32VW55X_Wifi_BLE_SDK/GD32VW55x_RELEASE_V1.0.2/MSDK/cloud/alicloud/src/services/awss\zconfig_utils.c ****         sum += data[i];
 276              		.loc 1 130 9 is_stmt 1 discriminator 3
 130:C:/Users/stapi/OneDrive/Desktop/GD32VW553/V1_MQTT_OK/GD32VW55X_Wifi_BLE_SDK/GD32VW55x_RELEASE_V1.0.2/MSDK/cloud/alicloud/src/services/awss\zconfig_utils.c ****         sum += data[i];
 277              		.loc 1 130 20 is_stmt 0 discriminator 3
 278 0010 B306F700 		add	a3,a4,a5
 279 0014 83C60600 		lbu	a3,0(a3)
 280 0018 8507     		addi	a5,a5,1
 281              	.LVL32:
 130:C:/Users/stapi/OneDrive/Desktop/GD32VW553/V1_MQTT_OK/GD32VW55X_Wifi_BLE_SDK/GD32VW55x_RELEASE_V1.0.2/MSDK/cloud/alicloud/src/services/awss\zconfig_utils.c ****         sum += data[i];
 282              		.loc 1 130 13 discriminator 3
 283 001a 3695     		add	a0,a0,a3
 284              	.LVL33:
 285 001c 33450508 		zext.h	a0,a0
 286              	.LVL34:
 129:C:/Users/stapi/OneDrive/Desktop/GD32VW553/V1_MQTT_OK/GD32VW55X_Wifi_BLE_SDK/GD32VW55x_RELEASE_V1.0.2/MSDK/cloud/alicloud/src/services/awss\zconfig_utils.c ****         sum += data[i];
 287              		.loc 1 129 26 is_stmt 1 discriminator 3
 288 0020 DDB7     		j	.L18
 289              		.cfi_endproc
 290              	.LFE52:
 292              		.section	.text.zconfig_is_utf8,"ax",@progbits
 293              		.align	1
 294              		.globl	zconfig_is_utf8
 296              	zconfig_is_utf8:
 297              	.LFB53:
 136:C:/Users/stapi/OneDrive/Desktop/GD32VW553/V1_MQTT_OK/GD32VW55X_Wifi_BLE_SDK/GD32VW55x_RELEASE_V1.0.2/MSDK/cloud/alicloud/src/services/awss\zconfig_utils.c **** 
 137:C:/Users/stapi/OneDrive/Desktop/GD32VW553/V1_MQTT_OK/GD32VW55X_Wifi_BLE_SDK/GD32VW55x_RELEASE_V1.0.2/MSDK/cloud/alicloud/src/services/awss\zconfig_utils.c **** char zconfig_is_utf8(const char *ansi_str, int length)
 138:C:/Users/stapi/OneDrive/Desktop/GD32VW553/V1_MQTT_OK/GD32VW55X_Wifi_BLE_SDK/GD32VW55x_RELEASE_V1.0.2/MSDK/cloud/alicloud/src/services/awss\zconfig_utils.c **** {
 298              		.loc 1 138 1
 299              		.cfi_startproc
 300              	.LVL35:
 139:C:/Users/stapi/OneDrive/Desktop/GD32VW553/V1_MQTT_OK/GD32VW55X_Wifi_BLE_SDK/GD32VW55x_RELEASE_V1.0.2/MSDK/cloud/alicloud/src/services/awss\zconfig_utils.c ****     int i = 0;
 301              		.loc 1 139 5
 140:C:/Users/stapi/OneDrive/Desktop/GD32VW553/V1_MQTT_OK/GD32VW55X_Wifi_BLE_SDK/GD32VW55x_RELEASE_V1.0.2/MSDK/cloud/alicloud/src/services/awss\zconfig_utils.c ****     char utf8 = 1;
 302              		.loc 1 140 5
 141:C:/Users/stapi/OneDrive/Desktop/GD32VW553/V1_MQTT_OK/GD32VW55X_Wifi_BLE_SDK/GD32VW55x_RELEASE_V1.0.2/MSDK/cloud/alicloud/src/services/awss\zconfig_utils.c ****     while (i < length) {
 303              		.loc 1 141 5
 138:C:/Users/stapi/OneDrive/Desktop/GD32VW553/V1_MQTT_OK/GD32VW55X_Wifi_BLE_SDK/GD32VW55x_RELEASE_V1.0.2/MSDK/cloud/alicloud/src/services/awss\zconfig_utils.c ****     int i = 0;
 304              		.loc 1 138 1 is_stmt 0
 305 0000 2A86     		mv	a2,a0
 139:C:/Users/stapi/OneDrive/Desktop/GD32VW553/V1_MQTT_OK/GD32VW55X_Wifi_BLE_SDK/GD32VW55x_RELEASE_V1.0.2/MSDK/cloud/alicloud/src/services/awss\zconfig_utils.c ****     char utf8 = 1;
 306              		.loc 1 139 9
 307 0002 0147     		li	a4,0
 142:C:/Users/stapi/OneDrive/Desktop/GD32VW553/V1_MQTT_OK/GD32VW55X_Wifi_BLE_SDK/GD32VW55x_RELEASE_V1.0.2/MSDK/cloud/alicloud/src/services/awss\zconfig_utils.c ****         if ((0x80 & ansi_str[i]) == 0) { // ASCII
 143:C:/Users/stapi/OneDrive/Desktop/GD32VW553/V1_MQTT_OK/GD32VW55X_Wifi_BLE_SDK/GD32VW55x_RELEASE_V1.0.2/MSDK/cloud/alicloud/src/services/awss\zconfig_utils.c ****             i++;
 144:C:/Users/stapi/OneDrive/Desktop/GD32VW553/V1_MQTT_OK/GD32VW55X_Wifi_BLE_SDK/GD32VW55x_RELEASE_V1.0.2/MSDK/cloud/alicloud/src/services/awss\zconfig_utils.c ****             continue;
 145:C:/Users/stapi/OneDrive/Desktop/GD32VW553/V1_MQTT_OK/GD32VW55X_Wifi_BLE_SDK/GD32VW55x_RELEASE_V1.0.2/MSDK/cloud/alicloud/src/services/awss\zconfig_utils.c ****         } else if ((0xE0 & ansi_str[i]) == 0xC0) { // 110xxxxx
 308              		.loc 1 145 19
 309 0004 9308000C 		li	a7,192
 146:C:/Users/stapi/OneDrive/Desktop/GD32VW553/V1_MQTT_OK/GD32VW55X_Wifi_BLE_SDK/GD32VW55x_RELEASE_V1.0.2/MSDK/cloud/alicloud/src/services/awss\zconfig_utils.c ****             if (ansi_str[i + 1] == '\0') {
 147:C:/Users/stapi/OneDrive/Desktop/GD32VW553/V1_MQTT_OK/GD32VW55X_Wifi_BLE_SDK/GD32VW55x_RELEASE_V1.0.2/MSDK/cloud/alicloud/src/services/awss\zconfig_utils.c ****                 utf8 = 0;
 148:C:/Users/stapi/OneDrive/Desktop/GD32VW553/V1_MQTT_OK/GD32VW55X_Wifi_BLE_SDK/GD32VW55x_RELEASE_V1.0.2/MSDK/cloud/alicloud/src/services/awss\zconfig_utils.c ****                 break;
 149:C:/Users/stapi/OneDrive/Desktop/GD32VW553/V1_MQTT_OK/GD32VW55X_Wifi_BLE_SDK/GD32VW55x_RELEASE_V1.0.2/MSDK/cloud/alicloud/src/services/awss\zconfig_utils.c ****             }
 150:C:/Users/stapi/OneDrive/Desktop/GD32VW553/V1_MQTT_OK/GD32VW55X_Wifi_BLE_SDK/GD32VW55x_RELEASE_V1.0.2/MSDK/cloud/alicloud/src/services/awss\zconfig_utils.c ****             if ((0xC0 & ansi_str[i + 1]) == 0x80) { // 10xxxxxx
 151:C:/Users/stapi/OneDrive/Desktop/GD32VW553/V1_MQTT_OK/GD32VW55X_Wifi_BLE_SDK/GD32VW55x_RELEASE_V1.0.2/MSDK/cloud/alicloud/src/services/awss\zconfig_utils.c ****                 i += 2;
 152:C:/Users/stapi/OneDrive/Desktop/GD32VW553/V1_MQTT_OK/GD32VW55X_Wifi_BLE_SDK/GD32VW55x_RELEASE_V1.0.2/MSDK/cloud/alicloud/src/services/awss\zconfig_utils.c ****                 continue;
 153:C:/Users/stapi/OneDrive/Desktop/GD32VW553/V1_MQTT_OK/GD32VW55X_Wifi_BLE_SDK/GD32VW55x_RELEASE_V1.0.2/MSDK/cloud/alicloud/src/services/awss\zconfig_utils.c ****             } else {
 154:C:/Users/stapi/OneDrive/Desktop/GD32VW553/V1_MQTT_OK/GD32VW55X_Wifi_BLE_SDK/GD32VW55x_RELEASE_V1.0.2/MSDK/cloud/alicloud/src/services/awss\zconfig_utils.c ****                 utf8 = 0;
 155:C:/Users/stapi/OneDrive/Desktop/GD32VW553/V1_MQTT_OK/GD32VW55X_Wifi_BLE_SDK/GD32VW55x_RELEASE_V1.0.2/MSDK/cloud/alicloud/src/services/awss\zconfig_utils.c ****                 break;
 156:C:/Users/stapi/OneDrive/Desktop/GD32VW553/V1_MQTT_OK/GD32VW55X_Wifi_BLE_SDK/GD32VW55x_RELEASE_V1.0.2/MSDK/cloud/alicloud/src/services/awss\zconfig_utils.c ****             }
 157:C:/Users/stapi/OneDrive/Desktop/GD32VW553/V1_MQTT_OK/GD32VW55X_Wifi_BLE_SDK/GD32VW55x_RELEASE_V1.0.2/MSDK/cloud/alicloud/src/services/awss\zconfig_utils.c ****         } else if ((0xF0 & ansi_str[i]) == 0xE0) { // 1110xxxx
 310              		.loc 1 157 19
 311 0008 1303000E 		li	t1,224
 158:C:/Users/stapi/OneDrive/Desktop/GD32VW553/V1_MQTT_OK/GD32VW55X_Wifi_BLE_SDK/GD32VW55x_RELEASE_V1.0.2/MSDK/cloud/alicloud/src/services/awss\zconfig_utils.c ****             if (ansi_str[i + 1] == '\0') {
 159:C:/Users/stapi/OneDrive/Desktop/GD32VW553/V1_MQTT_OK/GD32VW55X_Wifi_BLE_SDK/GD32VW55x_RELEASE_V1.0.2/MSDK/cloud/alicloud/src/services/awss\zconfig_utils.c ****                 utf8 = 0;
 160:C:/Users/stapi/OneDrive/Desktop/GD32VW553/V1_MQTT_OK/GD32VW55X_Wifi_BLE_SDK/GD32VW55x_RELEASE_V1.0.2/MSDK/cloud/alicloud/src/services/awss\zconfig_utils.c ****                 break;
 161:C:/Users/stapi/OneDrive/Desktop/GD32VW553/V1_MQTT_OK/GD32VW55X_Wifi_BLE_SDK/GD32VW55x_RELEASE_V1.0.2/MSDK/cloud/alicloud/src/services/awss\zconfig_utils.c ****             }
 162:C:/Users/stapi/OneDrive/Desktop/GD32VW553/V1_MQTT_OK/GD32VW55X_Wifi_BLE_SDK/GD32VW55x_RELEASE_V1.0.2/MSDK/cloud/alicloud/src/services/awss\zconfig_utils.c ****             if (ansi_str[i + 2] == '\0') {
 163:C:/Users/stapi/OneDrive/Desktop/GD32VW553/V1_MQTT_OK/GD32VW55X_Wifi_BLE_SDK/GD32VW55x_RELEASE_V1.0.2/MSDK/cloud/alicloud/src/services/awss\zconfig_utils.c ****                 utf8 = 0;
 164:C:/Users/stapi/OneDrive/Desktop/GD32VW553/V1_MQTT_OK/GD32VW55X_Wifi_BLE_SDK/GD32VW55x_RELEASE_V1.0.2/MSDK/cloud/alicloud/src/services/awss\zconfig_utils.c ****                 break;
 165:C:/Users/stapi/OneDrive/Desktop/GD32VW553/V1_MQTT_OK/GD32VW55X_Wifi_BLE_SDK/GD32VW55x_RELEASE_V1.0.2/MSDK/cloud/alicloud/src/services/awss\zconfig_utils.c ****             }
 166:C:/Users/stapi/OneDrive/Desktop/GD32VW553/V1_MQTT_OK/GD32VW55X_Wifi_BLE_SDK/GD32VW55x_RELEASE_V1.0.2/MSDK/cloud/alicloud/src/services/awss\zconfig_utils.c ****             if (((0xC0 & ansi_str[i + 1]) == 0x80) && ((0xC0 & ansi_str[i + 2]) == 0x80)) { // 10xx
 312              		.loc 1 166 16
 313 000c 13080008 		li	a6,128
 314              	.LVL36:
 315              	.L21:
 141:C:/Users/stapi/OneDrive/Desktop/GD32VW553/V1_MQTT_OK/GD32VW55X_Wifi_BLE_SDK/GD32VW55x_RELEASE_V1.0.2/MSDK/cloud/alicloud/src/services/awss\zconfig_utils.c ****         if ((0x80 & ansi_str[i]) == 0) { // ASCII
 316              		.loc 1 141 11 is_stmt 1
 317 0010 6344B700 		blt	a4,a1,.L26
 140:C:/Users/stapi/OneDrive/Desktop/GD32VW553/V1_MQTT_OK/GD32VW55X_Wifi_BLE_SDK/GD32VW55x_RELEASE_V1.0.2/MSDK/cloud/alicloud/src/services/awss\zconfig_utils.c ****     while (i < length) {
 318              		.loc 1 140 10 is_stmt 0
 319 0014 0545     		li	a0,1
 320 0016 8280     		ret
 321              	.L26:
 142:C:/Users/stapi/OneDrive/Desktop/GD32VW553/V1_MQTT_OK/GD32VW55X_Wifi_BLE_SDK/GD32VW55x_RELEASE_V1.0.2/MSDK/cloud/alicloud/src/services/awss\zconfig_utils.c ****             i++;
 322              		.loc 1 142 9 is_stmt 1
 142:C:/Users/stapi/OneDrive/Desktop/GD32VW553/V1_MQTT_OK/GD32VW55X_Wifi_BLE_SDK/GD32VW55x_RELEASE_V1.0.2/MSDK/cloud/alicloud/src/services/awss\zconfig_utils.c ****             i++;
 323              		.loc 1 142 29 is_stmt 0
 324 0018 B306E600 		add	a3,a2,a4
 325 001c 83870600 		lb	a5,0(a3)
 142:C:/Users/stapi/OneDrive/Desktop/GD32VW553/V1_MQTT_OK/GD32VW55X_Wifi_BLE_SDK/GD32VW55x_RELEASE_V1.0.2/MSDK/cloud/alicloud/src/services/awss\zconfig_utils.c ****             i++;
 326              		.loc 1 142 12
 327 0020 63C40700 		blt	a5,zero,.L22
 143:C:/Users/stapi/OneDrive/Desktop/GD32VW553/V1_MQTT_OK/GD32VW55X_Wifi_BLE_SDK/GD32VW55x_RELEASE_V1.0.2/MSDK/cloud/alicloud/src/services/awss\zconfig_utils.c ****             continue;
 328              		.loc 1 143 13 is_stmt 1
 143:C:/Users/stapi/OneDrive/Desktop/GD32VW553/V1_MQTT_OK/GD32VW55X_Wifi_BLE_SDK/GD32VW55x_RELEASE_V1.0.2/MSDK/cloud/alicloud/src/services/awss\zconfig_utils.c ****             continue;
 329              		.loc 1 143 14 is_stmt 0
 330 0024 0507     		addi	a4,a4,1
 331              	.LVL37:
 144:C:/Users/stapi/OneDrive/Desktop/GD32VW553/V1_MQTT_OK/GD32VW55X_Wifi_BLE_SDK/GD32VW55x_RELEASE_V1.0.2/MSDK/cloud/alicloud/src/services/awss\zconfig_utils.c ****         } else if ((0xE0 & ansi_str[i]) == 0xC0) { // 110xxxxx
 332              		.loc 1 144 13 is_stmt 1
 333 0026 EDB7     		j	.L21
 334              	.L22:
 145:C:/Users/stapi/OneDrive/Desktop/GD32VW553/V1_MQTT_OK/GD32VW55X_Wifi_BLE_SDK/GD32VW55x_RELEASE_V1.0.2/MSDK/cloud/alicloud/src/services/awss\zconfig_utils.c ****             if (ansi_str[i + 1] == '\0') {
 335              		.loc 1 145 16
 145:C:/Users/stapi/OneDrive/Desktop/GD32VW553/V1_MQTT_OK/GD32VW55X_Wifi_BLE_SDK/GD32VW55x_RELEASE_V1.0.2/MSDK/cloud/alicloud/src/services/awss\zconfig_utils.c ****             if (ansi_str[i + 1] == '\0') {
 336              		.loc 1 145 26 is_stmt 0
 337 0028 13F5070E 		andi	a0,a5,224
 145:C:/Users/stapi/OneDrive/Desktop/GD32VW553/V1_MQTT_OK/GD32VW55X_Wifi_BLE_SDK/GD32VW55x_RELEASE_V1.0.2/MSDK/cloud/alicloud/src/services/awss\zconfig_utils.c ****             if (ansi_str[i + 1] == '\0') {
 338              		.loc 1 145 19
 339 002c 631B1501 		bne	a0,a7,.L24
 146:C:/Users/stapi/OneDrive/Desktop/GD32VW553/V1_MQTT_OK/GD32VW55X_Wifi_BLE_SDK/GD32VW55x_RELEASE_V1.0.2/MSDK/cloud/alicloud/src/services/awss\zconfig_utils.c ****                 utf8 = 0;
 340              		.loc 1 146 13 is_stmt 1
 146:C:/Users/stapi/OneDrive/Desktop/GD32VW553/V1_MQTT_OK/GD32VW55X_Wifi_BLE_SDK/GD32VW55x_RELEASE_V1.0.2/MSDK/cloud/alicloud/src/services/awss\zconfig_utils.c ****                 utf8 = 0;
 341              		.loc 1 146 25 is_stmt 0
 342 0030 03851600 		lb	a0,1(a3)
 146:C:/Users/stapi/OneDrive/Desktop/GD32VW553/V1_MQTT_OK/GD32VW55X_Wifi_BLE_SDK/GD32VW55x_RELEASE_V1.0.2/MSDK/cloud/alicloud/src/services/awss\zconfig_utils.c ****                 utf8 = 0;
 343              		.loc 1 146 16
 344 0034 05CD     		beq	a0,zero,.L25
 150:C:/Users/stapi/OneDrive/Desktop/GD32VW553/V1_MQTT_OK/GD32VW55X_Wifi_BLE_SDK/GD32VW55x_RELEASE_V1.0.2/MSDK/cloud/alicloud/src/services/awss\zconfig_utils.c ****                 i += 2;
 345              		.loc 1 150 13 is_stmt 1
 150:C:/Users/stapi/OneDrive/Desktop/GD32VW553/V1_MQTT_OK/GD32VW55X_Wifi_BLE_SDK/GD32VW55x_RELEASE_V1.0.2/MSDK/cloud/alicloud/src/services/awss\zconfig_utils.c ****                 i += 2;
 346              		.loc 1 150 23 is_stmt 0
 347 0036 9377050C 		andi	a5,a0,192
 150:C:/Users/stapi/OneDrive/Desktop/GD32VW553/V1_MQTT_OK/GD32VW55X_Wifi_BLE_SDK/GD32VW55x_RELEASE_V1.0.2/MSDK/cloud/alicloud/src/services/awss\zconfig_utils.c ****                 i += 2;
 348              		.loc 1 150 16
 349 003a 63980703 		bne	a5,a6,.L31
 151:C:/Users/stapi/OneDrive/Desktop/GD32VW553/V1_MQTT_OK/GD32VW55X_Wifi_BLE_SDK/GD32VW55x_RELEASE_V1.0.2/MSDK/cloud/alicloud/src/services/awss\zconfig_utils.c ****                 continue;
 350              		.loc 1 151 17 is_stmt 1
 151:C:/Users/stapi/OneDrive/Desktop/GD32VW553/V1_MQTT_OK/GD32VW55X_Wifi_BLE_SDK/GD32VW55x_RELEASE_V1.0.2/MSDK/cloud/alicloud/src/services/awss\zconfig_utils.c ****                 continue;
 351              		.loc 1 151 19 is_stmt 0
 352 003e 0907     		addi	a4,a4,2
 353              	.LVL38:
 152:C:/Users/stapi/OneDrive/Desktop/GD32VW553/V1_MQTT_OK/GD32VW55X_Wifi_BLE_SDK/GD32VW55x_RELEASE_V1.0.2/MSDK/cloud/alicloud/src/services/awss\zconfig_utils.c ****             } else {
 354              		.loc 1 152 17 is_stmt 1
 355 0040 C1BF     		j	.L21
 356              	.L24:
 157:C:/Users/stapi/OneDrive/Desktop/GD32VW553/V1_MQTT_OK/GD32VW55X_Wifi_BLE_SDK/GD32VW55x_RELEASE_V1.0.2/MSDK/cloud/alicloud/src/services/awss\zconfig_utils.c ****             if (ansi_str[i + 1] == '\0') {
 357              		.loc 1 157 16
 157:C:/Users/stapi/OneDrive/Desktop/GD32VW553/V1_MQTT_OK/GD32VW55X_Wifi_BLE_SDK/GD32VW55x_RELEASE_V1.0.2/MSDK/cloud/alicloud/src/services/awss\zconfig_utils.c ****             if (ansi_str[i + 1] == '\0') {
 358              		.loc 1 157 26 is_stmt 0
 359 0042 93F7070F 		andi	a5,a5,240
 157:C:/Users/stapi/OneDrive/Desktop/GD32VW553/V1_MQTT_OK/GD32VW55X_Wifi_BLE_SDK/GD32VW55x_RELEASE_V1.0.2/MSDK/cloud/alicloud/src/services/awss\zconfig_utils.c ****             if (ansi_str[i + 1] == '\0') {
 360              		.loc 1 157 19
 361 0046 63926702 		bne	a5,t1,.L31
 158:C:/Users/stapi/OneDrive/Desktop/GD32VW553/V1_MQTT_OK/GD32VW55X_Wifi_BLE_SDK/GD32VW55x_RELEASE_V1.0.2/MSDK/cloud/alicloud/src/services/awss\zconfig_utils.c ****                 utf8 = 0;
 362              		.loc 1 158 13 is_stmt 1
 158:C:/Users/stapi/OneDrive/Desktop/GD32VW553/V1_MQTT_OK/GD32VW55X_Wifi_BLE_SDK/GD32VW55x_RELEASE_V1.0.2/MSDK/cloud/alicloud/src/services/awss\zconfig_utils.c ****                 utf8 = 0;
 363              		.loc 1 158 25 is_stmt 0
 364 004a 83871600 		lb	a5,1(a3)
 158:C:/Users/stapi/OneDrive/Desktop/GD32VW553/V1_MQTT_OK/GD32VW55X_Wifi_BLE_SDK/GD32VW55x_RELEASE_V1.0.2/MSDK/cloud/alicloud/src/services/awss\zconfig_utils.c ****                 utf8 = 0;
 365              		.loc 1 158 16
 366 004e 91CF     		beq	a5,zero,.L31
 162:C:/Users/stapi/OneDrive/Desktop/GD32VW553/V1_MQTT_OK/GD32VW55X_Wifi_BLE_SDK/GD32VW55x_RELEASE_V1.0.2/MSDK/cloud/alicloud/src/services/awss\zconfig_utils.c ****                 utf8 = 0;
 367              		.loc 1 162 13 is_stmt 1
 162:C:/Users/stapi/OneDrive/Desktop/GD32VW553/V1_MQTT_OK/GD32VW55X_Wifi_BLE_SDK/GD32VW55x_RELEASE_V1.0.2/MSDK/cloud/alicloud/src/services/awss\zconfig_utils.c ****                 utf8 = 0;
 368              		.loc 1 162 25 is_stmt 0
 369 0050 03852600 		lb	a0,2(a3)
 162:C:/Users/stapi/OneDrive/Desktop/GD32VW553/V1_MQTT_OK/GD32VW55X_Wifi_BLE_SDK/GD32VW55x_RELEASE_V1.0.2/MSDK/cloud/alicloud/src/services/awss\zconfig_utils.c ****                 utf8 = 0;
 370              		.loc 1 162 16
 371 0054 01CD     		beq	a0,zero,.L25
 372              		.loc 1 166 13 is_stmt 1
 373              		.loc 1 166 24 is_stmt 0
 374 0056 93F7070C 		andi	a5,a5,192
 375              		.loc 1 166 16
 376 005a 63980701 		bne	a5,a6,.L31
 377              		.loc 1 166 62 discriminator 1
 378 005e 9377050C 		andi	a5,a0,192
 379              		.loc 1 166 52 discriminator 1
 380 0062 63940701 		bne	a5,a6,.L31
 167:C:/Users/stapi/OneDrive/Desktop/GD32VW553/V1_MQTT_OK/GD32VW55X_Wifi_BLE_SDK/GD32VW55x_RELEASE_V1.0.2/MSDK/cloud/alicloud/src/services/awss\zconfig_utils.c ****                 i += 3;
 381              		.loc 1 167 17 is_stmt 1
 382              		.loc 1 167 19 is_stmt 0
 383 0066 0D07     		addi	a4,a4,3
 384              	.LVL39:
 168:C:/Users/stapi/OneDrive/Desktop/GD32VW553/V1_MQTT_OK/GD32VW55X_Wifi_BLE_SDK/GD32VW55x_RELEASE_V1.0.2/MSDK/cloud/alicloud/src/services/awss\zconfig_utils.c ****                 continue;
 385              		.loc 1 168 17 is_stmt 1
 386 0068 65B7     		j	.L21
 387              	.L31:
 147:C:/Users/stapi/OneDrive/Desktop/GD32VW553/V1_MQTT_OK/GD32VW55X_Wifi_BLE_SDK/GD32VW55x_RELEASE_V1.0.2/MSDK/cloud/alicloud/src/services/awss\zconfig_utils.c ****                 break;
 388              		.loc 1 147 22 is_stmt 0
 389 006a 0145     		li	a0,0
 390              	.L25:
 391              	.LVL40:
 169:C:/Users/stapi/OneDrive/Desktop/GD32VW553/V1_MQTT_OK/GD32VW55X_Wifi_BLE_SDK/GD32VW55x_RELEASE_V1.0.2/MSDK/cloud/alicloud/src/services/awss\zconfig_utils.c ****             } else {
 170:C:/Users/stapi/OneDrive/Desktop/GD32VW553/V1_MQTT_OK/GD32VW55X_Wifi_BLE_SDK/GD32VW55x_RELEASE_V1.0.2/MSDK/cloud/alicloud/src/services/awss\zconfig_utils.c ****                 utf8 = 0;
 171:C:/Users/stapi/OneDrive/Desktop/GD32VW553/V1_MQTT_OK/GD32VW55X_Wifi_BLE_SDK/GD32VW55x_RELEASE_V1.0.2/MSDK/cloud/alicloud/src/services/awss\zconfig_utils.c ****                 break;
 172:C:/Users/stapi/OneDrive/Desktop/GD32VW553/V1_MQTT_OK/GD32VW55X_Wifi_BLE_SDK/GD32VW55x_RELEASE_V1.0.2/MSDK/cloud/alicloud/src/services/awss\zconfig_utils.c ****             }
 173:C:/Users/stapi/OneDrive/Desktop/GD32VW553/V1_MQTT_OK/GD32VW55X_Wifi_BLE_SDK/GD32VW55x_RELEASE_V1.0.2/MSDK/cloud/alicloud/src/services/awss\zconfig_utils.c ****         } else {
 174:C:/Users/stapi/OneDrive/Desktop/GD32VW553/V1_MQTT_OK/GD32VW55X_Wifi_BLE_SDK/GD32VW55x_RELEASE_V1.0.2/MSDK/cloud/alicloud/src/services/awss\zconfig_utils.c ****             utf8 = 0;
 175:C:/Users/stapi/OneDrive/Desktop/GD32VW553/V1_MQTT_OK/GD32VW55X_Wifi_BLE_SDK/GD32VW55x_RELEASE_V1.0.2/MSDK/cloud/alicloud/src/services/awss\zconfig_utils.c ****             break;
 176:C:/Users/stapi/OneDrive/Desktop/GD32VW553/V1_MQTT_OK/GD32VW55X_Wifi_BLE_SDK/GD32VW55x_RELEASE_V1.0.2/MSDK/cloud/alicloud/src/services/awss\zconfig_utils.c ****         }
 177:C:/Users/stapi/OneDrive/Desktop/GD32VW553/V1_MQTT_OK/GD32VW55X_Wifi_BLE_SDK/GD32VW55x_RELEASE_V1.0.2/MSDK/cloud/alicloud/src/services/awss\zconfig_utils.c ****     }
 178:C:/Users/stapi/OneDrive/Desktop/GD32VW553/V1_MQTT_OK/GD32VW55X_Wifi_BLE_SDK/GD32VW55x_RELEASE_V1.0.2/MSDK/cloud/alicloud/src/services/awss\zconfig_utils.c ****     return utf8;
 392              		.loc 1 178 5 is_stmt 1
 179:C:/Users/stapi/OneDrive/Desktop/GD32VW553/V1_MQTT_OK/GD32VW55X_Wifi_BLE_SDK/GD32VW55x_RELEASE_V1.0.2/MSDK/cloud/alicloud/src/services/awss\zconfig_utils.c **** }
 393              		.loc 1 179 1 is_stmt 0
 394 006c 8280     		ret
 395              		.cfi_endproc
 396              	.LFE53:
 398              		.section	.rodata.str1.4,"aMS",@progbits,1
 399              		.align	2
 400              	.LC4:
 401 0000 6E6F6E65 		.string	"none"
 401      00
 402 0005 000000   		.align	2
 403              	.LC5:
 404 0008 77657000 		.string	"wep"
 405              		.align	2
 406              	.LC6:
 407 000c 746B6970 		.string	"tkip"
 407      00
 408 0011 000000   		.align	2
 409              	.LC7:
 410 0014 61657300 		.string	"aes"
 411              		.align	2
 412              	.LC8:
 413 0018 746B6970 		.string	"tkip-aes"
 413      2D616573 
 413      00
 414 0021 000000   		.align	2
 415              	.LC9:
 416 0024 6F70656E 		.string	"open"
 416      00
 417 0029 000000   		.align	2
 418              	.LC10:
 419 002c 73686172 		.string	"shared"
 419      656400
 420 0033 00       		.align	2
 421              	.LC11:
 422 0034 7770612D 		.string	"wpa-psk"
 422      70736B00 
 423              		.align	2
 424              	.LC12:
 425 003c 7770612D 		.string	"wpa-8021x"
 425      38303231 
 425      7800
 426 0046 0000     		.align	2
 427              	.LC13:
 428 0048 77706132 		.string	"wpa2-psk"
 428      2D70736B 
 428      00
 429 0051 000000   		.align	2
 430              	.LC14:
 431 0054 77706132 		.string	"wpa2-8021x"
 431      2D383032 
 431      317800
 432 005f 00       		.align	2
 433              	.LC15:
 434 0060 7770612D 		.string	"wpa-psk - wpa2-psk"
 434      70736B20 
 434      2D207770 
 434      61322D70 
 434      736B00
 435              		.section	.rodata.zc_auth_str,"a"
 436              		.align	2
 437              		.set	.LANCHOR0,. + 0
 440              	zc_auth_str:
 441 0000 00000000 		.word	.LC9
 442 0004 00000000 		.word	.LC10
 443 0008 00000000 		.word	.LC11
 444 000c 00000000 		.word	.LC12
 445 0010 00000000 		.word	.LC13
 446 0014 00000000 		.word	.LC14
 447 0018 00000000 		.word	.LC15
 448              		.section	.rodata.zc_encry_str,"a"
 449              		.align	2
 450              		.set	.LANCHOR1,. + 0
 453              	zc_encry_str:
 454 0000 00000000 		.word	.LC4
 455 0004 00000000 		.word	.LC5
 456 0008 00000000 		.word	.LC6
 457 000c 00000000 		.word	.LC7
 458 0010 00000000 		.word	.LC8
 459              		.text
 460              	.Letext0:
 461              		.file 2 "c:\\users\\stapi\\onedrive\\desktop\\gd32vw553\\embeddedbuilder_v1.4.7.26843\\tools\\nucl
 462              		.file 3 "c:\\users\\stapi\\onedrive\\desktop\\gd32vw553\\embeddedbuilder_v1.4.7.26843\\tools\\nucl
 463              		.file 4 "C:/Users/stapi/OneDrive/Desktop/GD32VW553/V1_MQTT_OK/GD32VW55X_Wifi_BLE_SDK/GD32VW55x_REL
 464              		.file 5 "..\\..\\..\\..\\cloud\\alicloud\\include/iot_import.h"
DEFINED SYMBOLS
                            *ABS*:0000000000000000 zconfig_utils.c
C:\Users\stapi\AppData\Local\Temp\ccQjKDWa.s:20     .text.zconfig_dump_hex:0000000000000000 zconfig_dump_hex
C:\Users\stapi\AppData\Local\Temp\ccQjKDWa.s:24     .text.zconfig_dump_hex:0000000000000000 .L0 
C:\Users\stapi\AppData\Local\Temp\ccQjKDWa.s:26     .text.zconfig_dump_hex:0000000000000000 .L0 
C:\Users\stapi\AppData\Local\Temp\ccQjKDWa.s:27     .text.zconfig_dump_hex:0000000000000008 .L0 
C:\Users\stapi\AppData\Local\Temp\ccQjKDWa.s:28     .text.zconfig_dump_hex:0000000000000008 .L0 
C:\Users\stapi\AppData\Local\Temp\ccQjKDWa.s:29     .text.zconfig_dump_hex:0000000000000008 .L0 
C:\Users\stapi\AppData\Local\Temp\ccQjKDWa.s:30     .text.zconfig_dump_hex:0000000000000008 .L0 
C:\Users\stapi\AppData\Local\Temp\ccQjKDWa.s:31     .text.zconfig_dump_hex:0000000000000008 .L0 
C:\Users\stapi\AppData\Local\Temp\ccQjKDWa.s:32     .text.zconfig_dump_hex:0000000000000008 .L0 
C:\Users\stapi\AppData\Local\Temp\ccQjKDWa.s:33     .text.zconfig_dump_hex:0000000000000008 .L0 
C:\Users\stapi\AppData\Local\Temp\ccQjKDWa.s:34     .text.zconfig_dump_hex:0000000000000008 .L0 
C:\Users\stapi\AppData\Local\Temp\ccQjKDWa.s:36     .text.zconfig_dump_hex:0000000000000008 .L0 
C:\Users\stapi\AppData\Local\Temp\ccQjKDWa.s:38     .text.zconfig_dump_hex:0000000000000008 .L0 
C:\Users\stapi\AppData\Local\Temp\ccQjKDWa.s:39     .text.zconfig_dump_hex:0000000000000008 .L0 
C:\Users\stapi\AppData\Local\Temp\ccQjKDWa.s:43     .text.zconfig_dump_hex:000000000000000e .L0 
C:\Users\stapi\AppData\Local\Temp\ccQjKDWa.s:45     .text.zconfig_dump_hex:0000000000000010 .L0 
C:\Users\stapi\AppData\Local\Temp\ccQjKDWa.s:47     .text.zconfig_dump_hex:0000000000000014 .L0 
C:\Users\stapi\AppData\Local\Temp\ccQjKDWa.s:51     .text.zconfig_dump_hex:0000000000000018 .L0 
C:\Users\stapi\AppData\Local\Temp\ccQjKDWa.s:52     .text.zconfig_dump_hex:0000000000000018 .L0 
C:\Users\stapi\AppData\Local\Temp\ccQjKDWa.s:54     .text.zconfig_dump_hex:000000000000001c .L0 
C:\Users\stapi\AppData\Local\Temp\ccQjKDWa.s:59     .text.zconfig_dump_hex:000000000000002c .L0 
C:\Users\stapi\AppData\Local\Temp\ccQjKDWa.s:60     .text.zconfig_dump_hex:0000000000000034 .L0 
C:\Users\stapi\AppData\Local\Temp\ccQjKDWa.s:61     .text.zconfig_dump_hex:0000000000000034 .L0 
C:\Users\stapi\AppData\Local\Temp\ccQjKDWa.s:62     .text.zconfig_dump_hex:0000000000000034 .L0 
C:\Users\stapi\AppData\Local\Temp\ccQjKDWa.s:63     .text.zconfig_dump_hex:0000000000000034 .L0 
C:\Users\stapi\AppData\Local\Temp\ccQjKDWa.s:64     .text.zconfig_dump_hex:0000000000000034 .L0 
C:\Users\stapi\AppData\Local\Temp\ccQjKDWa.s:65     .text.zconfig_dump_hex:0000000000000034 .L0 
C:\Users\stapi\AppData\Local\Temp\ccQjKDWa.s:66     .text.zconfig_dump_hex:0000000000000034 .L0 
C:\Users\stapi\AppData\Local\Temp\ccQjKDWa.s:67     .text.zconfig_dump_hex:0000000000000034 .L0 
C:\Users\stapi\AppData\Local\Temp\ccQjKDWa.s:68     .text.zconfig_dump_hex:0000000000000034 .L0 
C:\Users\stapi\AppData\Local\Temp\ccQjKDWa.s:70     .text.zconfig_dump_hex:0000000000000034 .L0 
C:\Users\stapi\AppData\Local\Temp\ccQjKDWa.s:72     .text.zconfig_dump_hex:0000000000000034 .L0 
C:\Users\stapi\AppData\Local\Temp\ccQjKDWa.s:76     .text.zconfig_dump_hex:0000000000000040 .L0 
C:\Users\stapi\AppData\Local\Temp\ccQjKDWa.s:79     .text.zconfig_dump_hex:0000000000000042 .L0 
C:\Users\stapi\AppData\Local\Temp\ccQjKDWa.s:82     .text.zconfig_dump_hex:000000000000004a .L0 
C:\Users\stapi\AppData\Local\Temp\ccQjKDWa.s:83     .text.zconfig_dump_hex:000000000000004a .L0 
C:\Users\stapi\AppData\Local\Temp\ccQjKDWa.s:85     .text.zconfig_dump_hex:000000000000004e .L0 
C:\Users\stapi\AppData\Local\Temp\ccQjKDWa.s:87     .text.zconfig_dump_hex:0000000000000050 .L0 
C:\Users\stapi\AppData\Local\Temp\ccQjKDWa.s:91     .text.zconfig_dump_hex:000000000000005e .L0 
C:\Users\stapi\AppData\Local\Temp\ccQjKDWa.s:98     .text.zconfig_checksum_v3:0000000000000000 zconfig_checksum_v3
C:\Users\stapi\AppData\Local\Temp\ccQjKDWa.s:101    .text.zconfig_checksum_v3:0000000000000000 .L0 
C:\Users\stapi\AppData\Local\Temp\ccQjKDWa.s:103    .text.zconfig_checksum_v3:0000000000000000 .L0 
C:\Users\stapi\AppData\Local\Temp\ccQjKDWa.s:104    .text.zconfig_checksum_v3:0000000000000000 .L0 
C:\Users\stapi\AppData\Local\Temp\ccQjKDWa.s:105    .text.zconfig_checksum_v3:0000000000000000 .L0 
C:\Users\stapi\AppData\Local\Temp\ccQjKDWa.s:106    .text.zconfig_checksum_v3:0000000000000000 .L0 
C:\Users\stapi\AppData\Local\Temp\ccQjKDWa.s:108    .text.zconfig_checksum_v3:0000000000000002 .L0 
C:\Users\stapi\AppData\Local\Temp\ccQjKDWa.s:112    .text.zconfig_checksum_v3:0000000000000004 .L0 
C:\Users\stapi\AppData\Local\Temp\ccQjKDWa.s:113    .text.zconfig_checksum_v3:0000000000000004 .L0 
C:\Users\stapi\AppData\Local\Temp\ccQjKDWa.s:117    .text.zconfig_checksum_v3:000000000000000c .L0 
C:\Users\stapi\AppData\Local\Temp\ccQjKDWa.s:118    .text.zconfig_checksum_v3:000000000000000c .L0 
C:\Users\stapi\AppData\Local\Temp\ccQjKDWa.s:119    .text.zconfig_checksum_v3:000000000000000c .L0 
C:\Users\stapi\AppData\Local\Temp\ccQjKDWa.s:126    .text.zconfig_checksum_v3:0000000000000018 .L0 
C:\Users\stapi\AppData\Local\Temp\ccQjKDWa.s:129    .text.zconfig_checksum_v3:000000000000001c .L0 
C:\Users\stapi\AppData\Local\Temp\ccQjKDWa.s:134    .text.zconfig_checksum_v3:0000000000000026 .L0 
C:\Users\stapi\AppData\Local\Temp\ccQjKDWa.s:135    .text.zconfig_checksum_v3:0000000000000026 .L0 
C:\Users\stapi\AppData\Local\Temp\ccQjKDWa.s:138    .text.zconfig_checksum_v3:000000000000002c .L0 
C:\Users\stapi\AppData\Local\Temp\ccQjKDWa.s:139    .text.zconfig_checksum_v3:000000000000002c .L0 
C:\Users\stapi\AppData\Local\Temp\ccQjKDWa.s:143    .text.zconfig_checksum_v3:0000000000000030 .L0 
C:\Users\stapi\AppData\Local\Temp\ccQjKDWa.s:144    .text.zconfig_checksum_v3:0000000000000030 .L0 
C:\Users\stapi\AppData\Local\Temp\ccQjKDWa.s:148    .text.zconfig_checksum_v3:000000000000003a .L0 
C:\Users\stapi\AppData\Local\Temp\ccQjKDWa.s:149    .text.zconfig_checksum_v3:000000000000003a .L0 
C:\Users\stapi\AppData\Local\Temp\ccQjKDWa.s:153    .text.zconfig_checksum_v3:000000000000003e .L0 
C:\Users\stapi\AppData\Local\Temp\ccQjKDWa.s:154    .text.zconfig_checksum_v3:000000000000003e .L0 
C:\Users\stapi\AppData\Local\Temp\ccQjKDWa.s:158    .text.zconfig_checksum_v3:0000000000000040 .L0 
C:\Users\stapi\AppData\Local\Temp\ccQjKDWa.s:159    .text.zconfig_checksum_v3:0000000000000040 .L0 
C:\Users\stapi\AppData\Local\Temp\ccQjKDWa.s:164    .text.zconfig_checksum_v3:000000000000004a .L0 
C:\Users\stapi\AppData\Local\Temp\ccQjKDWa.s:169    .text.zconfig_checksum_v3:0000000000000050 .L0 
C:\Users\stapi\AppData\Local\Temp\ccQjKDWa.s:170    .text.zconfig_checksum_v3:0000000000000052 .L0 
C:\Users\stapi\AppData\Local\Temp\ccQjKDWa.s:181    .text.zconfig_auth_str:0000000000000000 zconfig_auth_str
C:\Users\stapi\AppData\Local\Temp\ccQjKDWa.s:184    .text.zconfig_auth_str:0000000000000000 .L0 
C:\Users\stapi\AppData\Local\Temp\ccQjKDWa.s:186    .text.zconfig_auth_str:0000000000000000 .L0 
C:\Users\stapi\AppData\Local\Temp\ccQjKDWa.s:187    .text.zconfig_auth_str:0000000000000000 .L0 
C:\Users\stapi\AppData\Local\Temp\ccQjKDWa.s:188    .text.zconfig_auth_str:0000000000000000 .L0 
C:\Users\stapi\AppData\Local\Temp\ccQjKDWa.s:191    .text.zconfig_auth_str:0000000000000006 .L0 
C:\Users\stapi\AppData\Local\Temp\ccQjKDWa.s:192    .text.zconfig_auth_str:0000000000000006 .L0 
C:\Users\stapi\AppData\Local\Temp\ccQjKDWa.s:201    .text.zconfig_auth_str:0000000000000016 .L0 
C:\Users\stapi\AppData\Local\Temp\ccQjKDWa.s:205    .text.zconfig_auth_str:000000000000001e .L0 
C:\Users\stapi\AppData\Local\Temp\ccQjKDWa.s:206    .text.zconfig_auth_str:0000000000000020 .L0 
C:\Users\stapi\AppData\Local\Temp\ccQjKDWa.s:217    .text.zconfig_encry_str:0000000000000000 zconfig_encry_str
C:\Users\stapi\AppData\Local\Temp\ccQjKDWa.s:220    .text.zconfig_encry_str:0000000000000000 .L0 
C:\Users\stapi\AppData\Local\Temp\ccQjKDWa.s:222    .text.zconfig_encry_str:0000000000000000 .L0 
C:\Users\stapi\AppData\Local\Temp\ccQjKDWa.s:223    .text.zconfig_encry_str:0000000000000000 .L0 
C:\Users\stapi\AppData\Local\Temp\ccQjKDWa.s:224    .text.zconfig_encry_str:0000000000000000 .L0 
C:\Users\stapi\AppData\Local\Temp\ccQjKDWa.s:227    .text.zconfig_encry_str:0000000000000006 .L0 
C:\Users\stapi\AppData\Local\Temp\ccQjKDWa.s:228    .text.zconfig_encry_str:0000000000000006 .L0 
C:\Users\stapi\AppData\Local\Temp\ccQjKDWa.s:237    .text.zconfig_encry_str:0000000000000016 .L0 
C:\Users\stapi\AppData\Local\Temp\ccQjKDWa.s:241    .text.zconfig_encry_str:000000000000001e .L0 
C:\Users\stapi\AppData\Local\Temp\ccQjKDWa.s:242    .text.zconfig_encry_str:0000000000000020 .L0 
C:\Users\stapi\AppData\Local\Temp\ccQjKDWa.s:249    .text.zconfig_checksum_v5:0000000000000000 zconfig_checksum_v5
C:\Users\stapi\AppData\Local\Temp\ccQjKDWa.s:252    .text.zconfig_checksum_v5:0000000000000000 .L0 
C:\Users\stapi\AppData\Local\Temp\ccQjKDWa.s:254    .text.zconfig_checksum_v5:0000000000000000 .L0 
C:\Users\stapi\AppData\Local\Temp\ccQjKDWa.s:255    .text.zconfig_checksum_v5:0000000000000000 .L0 
C:\Users\stapi\AppData\Local\Temp\ccQjKDWa.s:256    .text.zconfig_checksum_v5:0000000000000000 .L0 
C:\Users\stapi\AppData\Local\Temp\ccQjKDWa.s:257    .text.zconfig_checksum_v5:0000000000000000 .L0 
C:\Users\stapi\AppData\Local\Temp\ccQjKDWa.s:258    .text.zconfig_checksum_v5:0000000000000000 .L0 
C:\Users\stapi\AppData\Local\Temp\ccQjKDWa.s:260    .text.zconfig_checksum_v5:0000000000000002 .L0 
C:\Users\stapi\AppData\Local\Temp\ccQjKDWa.s:262    .text.zconfig_checksum_v5:0000000000000004 .L0 
C:\Users\stapi\AppData\Local\Temp\ccQjKDWa.s:266    .text.zconfig_checksum_v5:0000000000000006 .L0 
C:\Users\stapi\AppData\Local\Temp\ccQjKDWa.s:267    .text.zconfig_checksum_v5:0000000000000006 .L0 
C:\Users\stapi\AppData\Local\Temp\ccQjKDWa.s:271    .text.zconfig_checksum_v5:000000000000000e .L0 
C:\Users\stapi\AppData\Local\Temp\ccQjKDWa.s:272    .text.zconfig_checksum_v5:000000000000000e .L0 
C:\Users\stapi\AppData\Local\Temp\ccQjKDWa.s:273    .text.zconfig_checksum_v5:000000000000000e .L0 
C:\Users\stapi\AppData\Local\Temp\ccQjKDWa.s:277    .text.zconfig_checksum_v5:0000000000000010 .L0 
C:\Users\stapi\AppData\Local\Temp\ccQjKDWa.s:278    .text.zconfig_checksum_v5:0000000000000010 .L0 
C:\Users\stapi\AppData\Local\Temp\ccQjKDWa.s:283    .text.zconfig_checksum_v5:000000000000001a .L0 
C:\Users\stapi\AppData\Local\Temp\ccQjKDWa.s:288    .text.zconfig_checksum_v5:0000000000000020 .L0 
C:\Users\stapi\AppData\Local\Temp\ccQjKDWa.s:289    .text.zconfig_checksum_v5:0000000000000022 .L0 
C:\Users\stapi\AppData\Local\Temp\ccQjKDWa.s:296    .text.zconfig_is_utf8:0000000000000000 zconfig_is_utf8
C:\Users\stapi\AppData\Local\Temp\ccQjKDWa.s:299    .text.zconfig_is_utf8:0000000000000000 .L0 
C:\Users\stapi\AppData\Local\Temp\ccQjKDWa.s:301    .text.zconfig_is_utf8:0000000000000000 .L0 
C:\Users\stapi\AppData\Local\Temp\ccQjKDWa.s:302    .text.zconfig_is_utf8:0000000000000000 .L0 
C:\Users\stapi\AppData\Local\Temp\ccQjKDWa.s:303    .text.zconfig_is_utf8:0000000000000000 .L0 
C:\Users\stapi\AppData\Local\Temp\ccQjKDWa.s:304    .text.zconfig_is_utf8:0000000000000000 .L0 
C:\Users\stapi\AppData\Local\Temp\ccQjKDWa.s:305    .text.zconfig_is_utf8:0000000000000000 .L0 
C:\Users\stapi\AppData\Local\Temp\ccQjKDWa.s:307    .text.zconfig_is_utf8:0000000000000002 .L0 
C:\Users\stapi\AppData\Local\Temp\ccQjKDWa.s:309    .text.zconfig_is_utf8:0000000000000004 .L0 
C:\Users\stapi\AppData\Local\Temp\ccQjKDWa.s:311    .text.zconfig_is_utf8:0000000000000008 .L0 
C:\Users\stapi\AppData\Local\Temp\ccQjKDWa.s:313    .text.zconfig_is_utf8:000000000000000c .L0 
C:\Users\stapi\AppData\Local\Temp\ccQjKDWa.s:317    .text.zconfig_is_utf8:0000000000000010 .L0 
C:\Users\stapi\AppData\Local\Temp\ccQjKDWa.s:319    .text.zconfig_is_utf8:0000000000000014 .L0 
C:\Users\stapi\AppData\Local\Temp\ccQjKDWa.s:323    .text.zconfig_is_utf8:0000000000000018 .L0 
C:\Users\stapi\AppData\Local\Temp\ccQjKDWa.s:324    .text.zconfig_is_utf8:0000000000000018 .L0 
C:\Users\stapi\AppData\Local\Temp\ccQjKDWa.s:327    .text.zconfig_is_utf8:0000000000000020 .L0 
C:\Users\stapi\AppData\Local\Temp\ccQjKDWa.s:329    .text.zconfig_is_utf8:0000000000000024 .L0 
C:\Users\stapi\AppData\Local\Temp\ccQjKDWa.s:330    .text.zconfig_is_utf8:0000000000000024 .L0 
C:\Users\stapi\AppData\Local\Temp\ccQjKDWa.s:333    .text.zconfig_is_utf8:0000000000000026 .L0 
C:\Users\stapi\AppData\Local\Temp\ccQjKDWa.s:336    .text.zconfig_is_utf8:0000000000000028 .L0 
C:\Users\stapi\AppData\Local\Temp\ccQjKDWa.s:337    .text.zconfig_is_utf8:0000000000000028 .L0 
C:\Users\stapi\AppData\Local\Temp\ccQjKDWa.s:339    .text.zconfig_is_utf8:000000000000002c .L0 
C:\Users\stapi\AppData\Local\Temp\ccQjKDWa.s:341    .text.zconfig_is_utf8:0000000000000030 .L0 
C:\Users\stapi\AppData\Local\Temp\ccQjKDWa.s:342    .text.zconfig_is_utf8:0000000000000030 .L0 
C:\Users\stapi\AppData\Local\Temp\ccQjKDWa.s:344    .text.zconfig_is_utf8:0000000000000034 .L0 
C:\Users\stapi\AppData\Local\Temp\ccQjKDWa.s:346    .text.zconfig_is_utf8:0000000000000036 .L0 
C:\Users\stapi\AppData\Local\Temp\ccQjKDWa.s:347    .text.zconfig_is_utf8:0000000000000036 .L0 
C:\Users\stapi\AppData\Local\Temp\ccQjKDWa.s:349    .text.zconfig_is_utf8:000000000000003a .L0 
C:\Users\stapi\AppData\Local\Temp\ccQjKDWa.s:351    .text.zconfig_is_utf8:000000000000003e .L0 
C:\Users\stapi\AppData\Local\Temp\ccQjKDWa.s:352    .text.zconfig_is_utf8:000000000000003e .L0 
C:\Users\stapi\AppData\Local\Temp\ccQjKDWa.s:355    .text.zconfig_is_utf8:0000000000000040 .L0 
C:\Users\stapi\AppData\Local\Temp\ccQjKDWa.s:358    .text.zconfig_is_utf8:0000000000000042 .L0 
C:\Users\stapi\AppData\Local\Temp\ccQjKDWa.s:359    .text.zconfig_is_utf8:0000000000000042 .L0 
C:\Users\stapi\AppData\Local\Temp\ccQjKDWa.s:361    .text.zconfig_is_utf8:0000000000000046 .L0 
C:\Users\stapi\AppData\Local\Temp\ccQjKDWa.s:363    .text.zconfig_is_utf8:000000000000004a .L0 
C:\Users\stapi\AppData\Local\Temp\ccQjKDWa.s:364    .text.zconfig_is_utf8:000000000000004a .L0 
C:\Users\stapi\AppData\Local\Temp\ccQjKDWa.s:366    .text.zconfig_is_utf8:000000000000004e .L0 
C:\Users\stapi\AppData\Local\Temp\ccQjKDWa.s:368    .text.zconfig_is_utf8:0000000000000050 .L0 
C:\Users\stapi\AppData\Local\Temp\ccQjKDWa.s:369    .text.zconfig_is_utf8:0000000000000050 .L0 
C:\Users\stapi\AppData\Local\Temp\ccQjKDWa.s:371    .text.zconfig_is_utf8:0000000000000054 .L0 
C:\Users\stapi\AppData\Local\Temp\ccQjKDWa.s:373    .text.zconfig_is_utf8:0000000000000056 .L0 
C:\Users\stapi\AppData\Local\Temp\ccQjKDWa.s:374    .text.zconfig_is_utf8:0000000000000056 .L0 
C:\Users\stapi\AppData\Local\Temp\ccQjKDWa.s:376    .text.zconfig_is_utf8:000000000000005a .L0 
C:\Users\stapi\AppData\Local\Temp\ccQjKDWa.s:378    .text.zconfig_is_utf8:000000000000005e .L0 
C:\Users\stapi\AppData\Local\Temp\ccQjKDWa.s:380    .text.zconfig_is_utf8:0000000000000062 .L0 
C:\Users\stapi\AppData\Local\Temp\ccQjKDWa.s:382    .text.zconfig_is_utf8:0000000000000066 .L0 
C:\Users\stapi\AppData\Local\Temp\ccQjKDWa.s:383    .text.zconfig_is_utf8:0000000000000066 .L0 
C:\Users\stapi\AppData\Local\Temp\ccQjKDWa.s:386    .text.zconfig_is_utf8:0000000000000068 .L0 
C:\Users\stapi\AppData\Local\Temp\ccQjKDWa.s:389    .text.zconfig_is_utf8:000000000000006a .L0 
C:\Users\stapi\AppData\Local\Temp\ccQjKDWa.s:393    .text.zconfig_is_utf8:000000000000006c .L0 
C:\Users\stapi\AppData\Local\Temp\ccQjKDWa.s:394    .text.zconfig_is_utf8:000000000000006c .L0 
C:\Users\stapi\AppData\Local\Temp\ccQjKDWa.s:395    .text.zconfig_is_utf8:000000000000006e .L0 
C:\Users\stapi\AppData\Local\Temp\ccQjKDWa.s:437    .rodata.zc_auth_str:0000000000000000 .LANCHOR0
C:\Users\stapi\AppData\Local\Temp\ccQjKDWa.s:440    .rodata.zc_auth_str:0000000000000000 zc_auth_str
C:\Users\stapi\AppData\Local\Temp\ccQjKDWa.s:450    .rodata.zc_encry_str:0000000000000000 .LANCHOR1
C:\Users\stapi\AppData\Local\Temp\ccQjKDWa.s:453    .rodata.zc_encry_str:0000000000000000 zc_encry_str
C:\Users\stapi\AppData\Local\Temp\ccQjKDWa.s:94     .text.zconfig_dump_hex:000000000000005e .L0 
C:\Users\stapi\AppData\Local\Temp\ccQjKDWa.s:173    .text.zconfig_checksum_v3:0000000000000052 .L0 
C:\Users\stapi\AppData\Local\Temp\ccQjKDWa.s:209    .text.zconfig_auth_str:0000000000000020 .L0 
C:\Users\stapi\AppData\Local\Temp\ccQjKDWa.s:245    .text.zconfig_encry_str:0000000000000020 .L0 
C:\Users\stapi\AppData\Local\Temp\ccQjKDWa.s:292    .text.zconfig_checksum_v5:0000000000000022 .L0 
C:\Users\stapi\AppData\Local\Temp\ccQjKDWa.s:398    .text.zconfig_is_utf8:000000000000006e .L0 
                     .debug_frame:0000000000000000 .L0 
C:\Users\stapi\AppData\Local\Temp\ccQjKDWa.s:11     .rodata.zconfig_dump_hex.str1.4:0000000000000000 .LC0
C:\Users\stapi\AppData\Local\Temp\ccQjKDWa.s:14     .rodata.zconfig_dump_hex.str1.4:0000000000000008 .LC1
C:\Users\stapi\AppData\Local\Temp\ccQjKDWa.s:69     .text.zconfig_dump_hex:0000000000000034 .L4
C:\Users\stapi\AppData\Local\Temp\ccQjKDWa.s:49     .text.zconfig_dump_hex:0000000000000018 .L2
C:\Users\stapi\AppData\Local\Temp\ccQjKDWa.s:156    .text.zconfig_checksum_v3:0000000000000040 .L8
C:\Users\stapi\AppData\Local\Temp\ccQjKDWa.s:141    .text.zconfig_checksum_v3:0000000000000030 .L9
C:\Users\stapi\AppData\Local\Temp\ccQjKDWa.s:151    .text.zconfig_checksum_v3:000000000000003e .L10
C:\Users\stapi\AppData\Local\Temp\ccQjKDWa.s:110    .text.zconfig_checksum_v3:0000000000000004 .L7
C:\Users\stapi\AppData\Local\Temp\ccQjKDWa.s:175    .rodata.zconfig_auth_str.str1.4:0000000000000000 .LC2
C:\Users\stapi\AppData\Local\Temp\ccQjKDWa.s:199    .text.zconfig_auth_str:0000000000000016 .L13
C:\Users\stapi\AppData\Local\Temp\ccQjKDWa.s:211    .rodata.zconfig_encry_str.str1.4:0000000000000000 .LC3
C:\Users\stapi\AppData\Local\Temp\ccQjKDWa.s:235    .text.zconfig_encry_str:0000000000000016 .L16
C:\Users\stapi\AppData\Local\Temp\ccQjKDWa.s:275    .text.zconfig_checksum_v5:0000000000000010 .L19
C:\Users\stapi\AppData\Local\Temp\ccQjKDWa.s:264    .text.zconfig_checksum_v5:0000000000000006 .L18
C:\Users\stapi\AppData\Local\Temp\ccQjKDWa.s:321    .text.zconfig_is_utf8:0000000000000018 .L26
C:\Users\stapi\AppData\Local\Temp\ccQjKDWa.s:334    .text.zconfig_is_utf8:0000000000000028 .L22
C:\Users\stapi\AppData\Local\Temp\ccQjKDWa.s:315    .text.zconfig_is_utf8:0000000000000010 .L21
C:\Users\stapi\AppData\Local\Temp\ccQjKDWa.s:356    .text.zconfig_is_utf8:0000000000000042 .L24
C:\Users\stapi\AppData\Local\Temp\ccQjKDWa.s:390    .text.zconfig_is_utf8:000000000000006c .L25
C:\Users\stapi\AppData\Local\Temp\ccQjKDWa.s:387    .text.zconfig_is_utf8:000000000000006a .L31
C:\Users\stapi\AppData\Local\Temp\ccQjKDWa.s:415    .rodata.str1.4:0000000000000024 .LC9
C:\Users\stapi\AppData\Local\Temp\ccQjKDWa.s:418    .rodata.str1.4:000000000000002c .LC10
C:\Users\stapi\AppData\Local\Temp\ccQjKDWa.s:421    .rodata.str1.4:0000000000000034 .LC11
C:\Users\stapi\AppData\Local\Temp\ccQjKDWa.s:424    .rodata.str1.4:000000000000003c .LC12
C:\Users\stapi\AppData\Local\Temp\ccQjKDWa.s:427    .rodata.str1.4:0000000000000048 .LC13
C:\Users\stapi\AppData\Local\Temp\ccQjKDWa.s:430    .rodata.str1.4:0000000000000054 .LC14
C:\Users\stapi\AppData\Local\Temp\ccQjKDWa.s:433    .rodata.str1.4:0000000000000060 .LC15
C:\Users\stapi\AppData\Local\Temp\ccQjKDWa.s:400    .rodata.str1.4:0000000000000000 .LC4
C:\Users\stapi\AppData\Local\Temp\ccQjKDWa.s:403    .rodata.str1.4:0000000000000008 .LC5
C:\Users\stapi\AppData\Local\Temp\ccQjKDWa.s:406    .rodata.str1.4:000000000000000c .LC6
C:\Users\stapi\AppData\Local\Temp\ccQjKDWa.s:409    .rodata.str1.4:0000000000000014 .LC7
C:\Users\stapi\AppData\Local\Temp\ccQjKDWa.s:412    .rodata.str1.4:0000000000000018 .LC8
C:\Users\stapi\AppData\Local\Temp\ccQjKDWa.s:909    .debug_abbrev:0000000000000000 .Ldebug_abbrev0
C:\Users\stapi\AppData\Local\Temp\ccQjKDWa.s:1635   .debug_str:0000000000000366 .LASF46
C:\Users\stapi\AppData\Local\Temp\ccQjKDWa.s:1577   .debug_str:000000000000013f .LASF47
C:\Users\stapi\AppData\Local\Temp\ccQjKDWa.s:1571   .debug_str:000000000000008a .LASF48
C:\Users\stapi\AppData\Local\Temp\ccQjKDWa.s:1535   .debug_ranges:0000000000000000 .Ldebug_ranges0
C:\Users\stapi\AppData\Local\Temp\ccQjKDWa.s:1551   .debug_line:0000000000000000 .Ldebug_line0
C:\Users\stapi\AppData\Local\Temp\ccQjKDWa.s:1613   .debug_str:00000000000002dc .LASF0
C:\Users\stapi\AppData\Local\Temp\ccQjKDWa.s:1645   .debug_str:0000000000000482 .LASF1
C:\Users\stapi\AppData\Local\Temp\ccQjKDWa.s:1555   .debug_str:0000000000000011 .LASF4
C:\Users\stapi\AppData\Local\Temp\ccQjKDWa.s:1593   .debug_str:0000000000000230 .LASF2
C:\Users\stapi\AppData\Local\Temp\ccQjKDWa.s:1611   .debug_str:00000000000002d2 .LASF3
C:\Users\stapi\AppData\Local\Temp\ccQjKDWa.s:1607   .debug_str:00000000000002b5 .LASF5
C:\Users\stapi\AppData\Local\Temp\ccQjKDWa.s:1573   .debug_str:000000000000011b .LASF6
C:\Users\stapi\AppData\Local\Temp\ccQjKDWa.s:1641   .debug_str:0000000000000462 .LASF7
C:\Users\stapi\AppData\Local\Temp\ccQjKDWa.s:1597   .debug_str:0000000000000253 .LASF8
C:\Users\stapi\AppData\Local\Temp\ccQjKDWa.s:1629   .debug_str:000000000000033b .LASF9
C:\Users\stapi\AppData\Local\Temp\ccQjKDWa.s:1651   .debug_str:00000000000004ab .LASF10
C:\Users\stapi\AppData\Local\Temp\ccQjKDWa.s:1615   .debug_str:00000000000002e9 .LASF11
C:\Users\stapi\AppData\Local\Temp\ccQjKDWa.s:1617   .debug_str:00000000000002ee .LASF12
C:\Users\stapi\AppData\Local\Temp\ccQjKDWa.s:1637   .debug_str:000000000000044d .LASF13
C:\Users\stapi\AppData\Local\Temp\ccQjKDWa.s:1559   .debug_str:0000000000000024 .LASF23
C:\Users\stapi\AppData\Local\Temp\ccQjKDWa.s:1609   .debug_str:00000000000002c0 .LASF14
C:\Users\stapi\AppData\Local\Temp\ccQjKDWa.s:1599   .debug_str:0000000000000265 .LASF15
C:\Users\stapi\AppData\Local\Temp\ccQjKDWa.s:1561   .debug_str:0000000000000033 .LASF16
C:\Users\stapi\AppData\Local\Temp\ccQjKDWa.s:1647   .debug_str:000000000000048e .LASF17
C:\Users\stapi\AppData\Local\Temp\ccQjKDWa.s:1631   .debug_str:0000000000000349 .LASF18
C:\Users\stapi\AppData\Local\Temp\ccQjKDWa.s:1643   .debug_str:000000000000046b .LASF19
C:\Users\stapi\AppData\Local\Temp\ccQjKDWa.s:1627   .debug_str:0000000000000320 .LASF20
C:\Users\stapi\AppData\Local\Temp\ccQjKDWa.s:1653   .debug_str:00000000000004c2 .LASF21
C:\Users\stapi\AppData\Local\Temp\ccQjKDWa.s:1595   .debug_str:000000000000023e .LASF22
C:\Users\stapi\AppData\Local\Temp\ccQjKDWa.s:1589   .debug_str:000000000000021c .LASF24
C:\Users\stapi\AppData\Local\Temp\ccQjKDWa.s:1581   .debug_str:00000000000001ee .LASF25
C:\Users\stapi\AppData\Local\Temp\ccQjKDWa.s:1621   .debug_str:00000000000002fb .LASF26
C:\Users\stapi\AppData\Local\Temp\ccQjKDWa.s:1553   .debug_str:0000000000000000 .LASF27
C:\Users\stapi\AppData\Local\Temp\ccQjKDWa.s:1625   .debug_str:0000000000000310 .LASF28
C:\Users\stapi\AppData\Local\Temp\ccQjKDWa.s:1601   .debug_str:0000000000000279 .LASF29
C:\Users\stapi\AppData\Local\Temp\ccQjKDWa.s:1567   .debug_str:0000000000000069 .LASF30
C:\Users\stapi\AppData\Local\Temp\ccQjKDWa.s:1579   .debug_str:00000000000001da .LASF31
C:\Users\stapi\AppData\Local\Temp\ccQjKDWa.s:1639   .debug_str:0000000000000456 .LASF32
C:\Users\stapi\AppData\Local\Temp\ccQjKDWa.s:1587   .debug_str:000000000000020f .LASF33
C:\Users\stapi\AppData\Local\Temp\ccQjKDWa.s:1565   .debug_str:0000000000000059 .LASF37
C:\Users\stapi\AppData\Local\Temp\ccQjKDWa.s:297    .text.zconfig_is_utf8:0000000000000000 .LFB53
C:\Users\stapi\AppData\Local\Temp\ccQjKDWa.s:396    .text.zconfig_is_utf8:000000000000006e .LFE53
C:\Users\stapi\AppData\Local\Temp\ccQjKDWa.s:1557   .debug_str:000000000000001b .LASF34
C:\Users\stapi\AppData\Local\Temp\ccQjKDWa.s:1256   .debug_loc:0000000000000000 .LLST14
C:\Users\stapi\AppData\Local\Temp\ccQjKDWa.s:1649   .debug_str:00000000000004a4 .LASF35
C:\Users\stapi\AppData\Local\Temp\ccQjKDWa.s:1267   .debug_loc:000000000000001e .LLST15
C:\Users\stapi\AppData\Local\Temp\ccQjKDWa.s:1623   .debug_str:000000000000030b .LASF36
C:\Users\stapi\AppData\Local\Temp\ccQjKDWa.s:1279   .debug_loc:000000000000003d .LLST16
C:\Users\stapi\AppData\Local\Temp\ccQjKDWa.s:1605   .debug_str:00000000000002a1 .LASF38
C:\Users\stapi\AppData\Local\Temp\ccQjKDWa.s:250    .text.zconfig_checksum_v5:0000000000000000 .LFB52
C:\Users\stapi\AppData\Local\Temp\ccQjKDWa.s:290    .text.zconfig_checksum_v5:0000000000000022 .LFE52
C:\Users\stapi\AppData\Local\Temp\ccQjKDWa.s:1585   .debug_str:000000000000020a .LASF39
C:\Users\stapi\AppData\Local\Temp\ccQjKDWa.s:1291   .debug_loc:000000000000005c .LLST10
C:\Users\stapi\AppData\Local\Temp\ccQjKDWa.s:1302   .debug_loc:000000000000007a .LLST11
C:\Users\stapi\AppData\Local\Temp\ccQjKDWa.s:1314   .debug_loc:0000000000000099 .LLST12
C:\Users\stapi\AppData\Local\Temp\ccQjKDWa.s:1330   .debug_loc:00000000000000c3 .LLST13
C:\Users\stapi\AppData\Local\Temp\ccQjKDWa.s:1563   .debug_str:0000000000000047 .LASF40
C:\Users\stapi\AppData\Local\Temp\ccQjKDWa.s:218    .text.zconfig_encry_str:0000000000000000 .LFB51
C:\Users\stapi\AppData\Local\Temp\ccQjKDWa.s:243    .text.zconfig_encry_str:0000000000000020 .LFE51
C:\Users\stapi\AppData\Local\Temp\ccQjKDWa.s:1591   .debug_str:000000000000022a .LASF41
C:\Users\stapi\AppData\Local\Temp\ccQjKDWa.s:1337   .debug_loc:00000000000000d6 .LLST9
C:\Users\stapi\AppData\Local\Temp\ccQjKDWa.s:1575   .debug_str:000000000000012e .LASF42
C:\Users\stapi\AppData\Local\Temp\ccQjKDWa.s:182    .text.zconfig_auth_str:0000000000000000 .LFB50
C:\Users\stapi\AppData\Local\Temp\ccQjKDWa.s:207    .text.zconfig_auth_str:0000000000000020 .LFE50
C:\Users\stapi\AppData\Local\Temp\ccQjKDWa.s:1619   .debug_str:00000000000002f6 .LASF43
C:\Users\stapi\AppData\Local\Temp\ccQjKDWa.s:1362   .debug_loc:0000000000000110 .LLST8
C:\Users\stapi\AppData\Local\Temp\ccQjKDWa.s:1603   .debug_str:000000000000028d .LASF44
C:\Users\stapi\AppData\Local\Temp\ccQjKDWa.s:99     .text.zconfig_checksum_v3:0000000000000000 .LFB49
C:\Users\stapi\AppData\Local\Temp\ccQjKDWa.s:171    .text.zconfig_checksum_v3:0000000000000052 .LFE49
C:\Users\stapi\AppData\Local\Temp\ccQjKDWa.s:1387   .debug_loc:000000000000014a .LLST4
C:\Users\stapi\AppData\Local\Temp\ccQjKDWa.s:1405   .debug_loc:0000000000000176 .LLST5
C:\Users\stapi\AppData\Local\Temp\ccQjKDWa.s:1425   .debug_loc:00000000000001ab .LLST6
C:\Users\stapi\AppData\Local\Temp\ccQjKDWa.s:1445   .debug_loc:00000000000001e0 .LLST7
C:\Users\stapi\AppData\Local\Temp\ccQjKDWa.s:1569   .debug_str:0000000000000079 .LASF49
C:\Users\stapi\AppData\Local\Temp\ccQjKDWa.s:21     .text.zconfig_dump_hex:0000000000000000 .LFB48
C:\Users\stapi\AppData\Local\Temp\ccQjKDWa.s:92     .text.zconfig_dump_hex:000000000000005e .LFE48
C:\Users\stapi\AppData\Local\Temp\ccQjKDWa.s:1461   .debug_loc:0000000000000203 .LLST0
C:\Users\stapi\AppData\Local\Temp\ccQjKDWa.s:1472   .debug_loc:0000000000000221 .LLST1
C:\Users\stapi\AppData\Local\Temp\ccQjKDWa.s:1633   .debug_str:000000000000035e .LASF45
C:\Users\stapi\AppData\Local\Temp\ccQjKDWa.s:1483   .debug_loc:000000000000023f .LLST2
C:\Users\stapi\AppData\Local\Temp\ccQjKDWa.s:1494   .debug_loc:000000000000025d .LLST3
C:\Users\stapi\AppData\Local\Temp\ccQjKDWa.s:57     .text.zconfig_dump_hex:000000000000002c .LVL3
C:\Users\stapi\AppData\Local\Temp\ccQjKDWa.s:80     .text.zconfig_dump_hex:000000000000004a .LVL5
C:\Users\stapi\AppData\Local\Temp\ccQjKDWa.s:89     .text.zconfig_dump_hex:000000000000005c .LVL6
C:\Users\stapi\AppData\Local\Temp\ccQjKDWa.s:1583   .debug_str:00000000000001ff .LASF50
C:\Users\stapi\AppData\Local\Temp\ccQjKDWa.s:300    .text.zconfig_is_utf8:0000000000000000 .LVL35
C:\Users\stapi\AppData\Local\Temp\ccQjKDWa.s:314    .text.zconfig_is_utf8:0000000000000010 .LVL36
C:\Users\stapi\AppData\Local\Temp\ccQjKDWa.s:391    .text.zconfig_is_utf8:000000000000006c .LVL40
C:\Users\stapi\AppData\Local\Temp\ccQjKDWa.s:253    .text.zconfig_checksum_v5:0000000000000000 .LVL28
C:\Users\stapi\AppData\Local\Temp\ccQjKDWa.s:263    .text.zconfig_checksum_v5:0000000000000006 .LVL29
C:\Users\stapi\AppData\Local\Temp\ccQjKDWa.s:281    .text.zconfig_checksum_v5:000000000000001a .LVL32
C:\Users\stapi\AppData\Local\Temp\ccQjKDWa.s:284    .text.zconfig_checksum_v5:000000000000001c .LVL33
C:\Users\stapi\AppData\Local\Temp\ccQjKDWa.s:286    .text.zconfig_checksum_v5:0000000000000020 .LVL34
C:\Users\stapi\AppData\Local\Temp\ccQjKDWa.s:270    .text.zconfig_checksum_v5:000000000000000e .LVL30
C:\Users\stapi\AppData\Local\Temp\ccQjKDWa.s:274    .text.zconfig_checksum_v5:0000000000000010 .LVL31
C:\Users\stapi\AppData\Local\Temp\ccQjKDWa.s:221    .text.zconfig_encry_str:0000000000000000 .LVL24
C:\Users\stapi\AppData\Local\Temp\ccQjKDWa.s:231    .text.zconfig_encry_str:0000000000000012 .LVL25
C:\Users\stapi\AppData\Local\Temp\ccQjKDWa.s:234    .text.zconfig_encry_str:0000000000000016 .LVL26
C:\Users\stapi\AppData\Local\Temp\ccQjKDWa.s:238    .text.zconfig_encry_str:000000000000001a .LVL27
C:\Users\stapi\AppData\Local\Temp\ccQjKDWa.s:185    .text.zconfig_auth_str:0000000000000000 .LVL20
C:\Users\stapi\AppData\Local\Temp\ccQjKDWa.s:195    .text.zconfig_auth_str:0000000000000012 .LVL21
C:\Users\stapi\AppData\Local\Temp\ccQjKDWa.s:198    .text.zconfig_auth_str:0000000000000016 .LVL22
C:\Users\stapi\AppData\Local\Temp\ccQjKDWa.s:202    .text.zconfig_auth_str:000000000000001a .LVL23
C:\Users\stapi\AppData\Local\Temp\ccQjKDWa.s:102    .text.zconfig_checksum_v3:0000000000000000 .LVL7
C:\Users\stapi\AppData\Local\Temp\ccQjKDWa.s:132    .text.zconfig_checksum_v3:0000000000000026 .LVL13
C:\Users\stapi\AppData\Local\Temp\ccQjKDWa.s:155    .text.zconfig_checksum_v3:0000000000000040 .LVL16
C:\Users\stapi\AppData\Local\Temp\ccQjKDWa.s:109    .text.zconfig_checksum_v3:0000000000000004 .LVL8
C:\Users\stapi\AppData\Local\Temp\ccQjKDWa.s:120    .text.zconfig_checksum_v3:000000000000000e .LVL10
C:\Users\stapi\AppData\Local\Temp\ccQjKDWa.s:122    .text.zconfig_checksum_v3:0000000000000012 .LVL11
C:\Users\stapi\AppData\Local\Temp\ccQjKDWa.s:162    .text.zconfig_checksum_v3:000000000000004a .LVL17
C:\Users\stapi\AppData\Local\Temp\ccQjKDWa.s:127    .text.zconfig_checksum_v3:000000000000001c .LVL12
C:\Users\stapi\AppData\Local\Temp\ccQjKDWa.s:165    .text.zconfig_checksum_v3:000000000000004c .LVL18
C:\Users\stapi\AppData\Local\Temp\ccQjKDWa.s:167    .text.zconfig_checksum_v3:0000000000000050 .LVL19
C:\Users\stapi\AppData\Local\Temp\ccQjKDWa.s:116    .text.zconfig_checksum_v3:000000000000000c .LVL9
C:\Users\stapi\AppData\Local\Temp\ccQjKDWa.s:25     .text.zconfig_dump_hex:0000000000000000 .LVL0
C:\Users\stapi\AppData\Local\Temp\ccQjKDWa.s:48     .text.zconfig_dump_hex:0000000000000018 .LVL2
C:\Users\stapi\AppData\Local\Temp\ccQjKDWa.s:37     .text.zconfig_dump_hex:0000000000000008 .LVL1
C:\Users\stapi\AppData\Local\Temp\ccQjKDWa.s:77     .text.zconfig_dump_hex:0000000000000042 .LVL4
C:\Users\stapi\AppData\Local\Temp\ccQjKDWa.s:466    .debug_info:0000000000000000 .Ldebug_info0

UNDEFINED SYMBOLS
__riscv_save_6
HAL_Printf
__riscv_restore_6
