   1              		.file	"zconfig_protocol.c"
   2              		.option nopic
   3              		.attribute arch, "rv32i2p0_m2p0_a2p0_f2p0_c2p0_b_p0p94"
   4              		.attribute unaligned_access, 0
   5              		.attribute stack_align, 16
   6              		.text
   7              	.Ltext0:
   8              		.cfi_sections	.debug_frame
   9              		.section	.text.encode_chinese,"ax",@progbits
  10              		.align	1
  11              		.globl	encode_chinese
  13              	encode_chinese:
  14              	.LFB49:
  15              		.file 1 "C:/Users/stapi/OneDrive/Desktop/GD32VW553/V1_MQTT_OK/GD32VW55X_Wifi_BLE_SDK/GD32VW55x_REL
   1:C:/Users/stapi/OneDrive/Desktop/GD32VW553/V1_MQTT_OK/GD32VW55X_Wifi_BLE_SDK/GD32VW55x_RELEASE_V1.0.2/MSDK/cloud/alicloud/src/services/awss\zconfig_protocol.c **** /*
   2:C:/Users/stapi/OneDrive/Desktop/GD32VW553/V1_MQTT_OK/GD32VW55X_Wifi_BLE_SDK/GD32VW55x_RELEASE_V1.0.2/MSDK/cloud/alicloud/src/services/awss\zconfig_protocol.c ****  * Copyright (C) 2015-2018 Alibaba Group Holding Limited
   3:C:/Users/stapi/OneDrive/Desktop/GD32VW553/V1_MQTT_OK/GD32VW55X_Wifi_BLE_SDK/GD32VW55x_RELEASE_V1.0.2/MSDK/cloud/alicloud/src/services/awss\zconfig_protocol.c ****  */
   4:C:/Users/stapi/OneDrive/Desktop/GD32VW553/V1_MQTT_OK/GD32VW55X_Wifi_BLE_SDK/GD32VW55x_RELEASE_V1.0.2/MSDK/cloud/alicloud/src/services/awss\zconfig_protocol.c **** 
   5:C:/Users/stapi/OneDrive/Desktop/GD32VW553/V1_MQTT_OK/GD32VW55X_Wifi_BLE_SDK/GD32VW55x_RELEASE_V1.0.2/MSDK/cloud/alicloud/src/services/awss\zconfig_protocol.c **** #include <stdlib.h>
   6:C:/Users/stapi/OneDrive/Desktop/GD32VW553/V1_MQTT_OK/GD32VW55X_Wifi_BLE_SDK/GD32VW55x_RELEASE_V1.0.2/MSDK/cloud/alicloud/src/services/awss\zconfig_protocol.c **** #include <string.h>            // strcpy, memset()
   7:C:/Users/stapi/OneDrive/Desktop/GD32VW553/V1_MQTT_OK/GD32VW55X_Wifi_BLE_SDK/GD32VW55x_RELEASE_V1.0.2/MSDK/cloud/alicloud/src/services/awss\zconfig_protocol.c **** #include <ctype.h>             // isascii()
   8:C:/Users/stapi/OneDrive/Desktop/GD32VW553/V1_MQTT_OK/GD32VW55X_Wifi_BLE_SDK/GD32VW55x_RELEASE_V1.0.2/MSDK/cloud/alicloud/src/services/awss\zconfig_protocol.c **** #include <stdio.h>             // snprintf
   9:C:/Users/stapi/OneDrive/Desktop/GD32VW553/V1_MQTT_OK/GD32VW55X_Wifi_BLE_SDK/GD32VW55x_RELEASE_V1.0.2/MSDK/cloud/alicloud/src/services/awss\zconfig_protocol.c **** #include "os.h"
  10:C:/Users/stapi/OneDrive/Desktop/GD32VW553/V1_MQTT_OK/GD32VW55X_Wifi_BLE_SDK/GD32VW55x_RELEASE_V1.0.2/MSDK/cloud/alicloud/src/services/awss\zconfig_protocol.c **** #include "zconfig_utils.h"
  11:C:/Users/stapi/OneDrive/Desktop/GD32VW553/V1_MQTT_OK/GD32VW55X_Wifi_BLE_SDK/GD32VW55x_RELEASE_V1.0.2/MSDK/cloud/alicloud/src/services/awss\zconfig_protocol.c **** #include "zconfig_ieee80211.h"
  12:C:/Users/stapi/OneDrive/Desktop/GD32VW553/V1_MQTT_OK/GD32VW55X_Wifi_BLE_SDK/GD32VW55x_RELEASE_V1.0.2/MSDK/cloud/alicloud/src/services/awss\zconfig_protocol.c **** #include "zconfig_protocol.h"
  13:C:/Users/stapi/OneDrive/Desktop/GD32VW553/V1_MQTT_OK/GD32VW55X_Wifi_BLE_SDK/GD32VW55x_RELEASE_V1.0.2/MSDK/cloud/alicloud/src/services/awss\zconfig_protocol.c **** #include "passwd.h"
  14:C:/Users/stapi/OneDrive/Desktop/GD32VW553/V1_MQTT_OK/GD32VW55X_Wifi_BLE_SDK/GD32VW55x_RELEASE_V1.0.2/MSDK/cloud/alicloud/src/services/awss\zconfig_protocol.c **** #include "awss_aha.h"
  15:C:/Users/stapi/OneDrive/Desktop/GD32VW553/V1_MQTT_OK/GD32VW55X_Wifi_BLE_SDK/GD32VW55x_RELEASE_V1.0.2/MSDK/cloud/alicloud/src/services/awss\zconfig_protocol.c **** #include "awss_adha.h"
  16:C:/Users/stapi/OneDrive/Desktop/GD32VW553/V1_MQTT_OK/GD32VW55X_Wifi_BLE_SDK/GD32VW55x_RELEASE_V1.0.2/MSDK/cloud/alicloud/src/services/awss\zconfig_protocol.c **** #include "awss_aplist.h"
  17:C:/Users/stapi/OneDrive/Desktop/GD32VW553/V1_MQTT_OK/GD32VW55X_Wifi_BLE_SDK/GD32VW55x_RELEASE_V1.0.2/MSDK/cloud/alicloud/src/services/awss\zconfig_protocol.c **** #include "awss_smartconfig.h"
  18:C:/Users/stapi/OneDrive/Desktop/GD32VW553/V1_MQTT_OK/GD32VW55X_Wifi_BLE_SDK/GD32VW55x_RELEASE_V1.0.2/MSDK/cloud/alicloud/src/services/awss\zconfig_protocol.c **** #include "awss_main.h"
  19:C:/Users/stapi/OneDrive/Desktop/GD32VW553/V1_MQTT_OK/GD32VW55X_Wifi_BLE_SDK/GD32VW55x_RELEASE_V1.0.2/MSDK/cloud/alicloud/src/services/awss\zconfig_protocol.c **** #include "awss_timer.h"
  20:C:/Users/stapi/OneDrive/Desktop/GD32VW553/V1_MQTT_OK/GD32VW55X_Wifi_BLE_SDK/GD32VW55x_RELEASE_V1.0.2/MSDK/cloud/alicloud/src/services/awss\zconfig_protocol.c **** #include "awss_crypt.h"
  21:C:/Users/stapi/OneDrive/Desktop/GD32VW553/V1_MQTT_OK/GD32VW55X_Wifi_BLE_SDK/GD32VW55x_RELEASE_V1.0.2/MSDK/cloud/alicloud/src/services/awss\zconfig_protocol.c **** #include "awss.h"
  22:C:/Users/stapi/OneDrive/Desktop/GD32VW553/V1_MQTT_OK/GD32VW55X_Wifi_BLE_SDK/GD32VW55x_RELEASE_V1.0.2/MSDK/cloud/alicloud/src/services/awss\zconfig_protocol.c **** 
  23:C:/Users/stapi/OneDrive/Desktop/GD32VW553/V1_MQTT_OK/GD32VW55X_Wifi_BLE_SDK/GD32VW55x_RELEASE_V1.0.2/MSDK/cloud/alicloud/src/services/awss\zconfig_protocol.c **** #ifdef AWSS_SUPPORT_HT40
  24:C:/Users/stapi/OneDrive/Desktop/GD32VW553/V1_MQTT_OK/GD32VW55X_Wifi_BLE_SDK/GD32VW55x_RELEASE_V1.0.2/MSDK/cloud/alicloud/src/services/awss\zconfig_protocol.c ****     #include "awss_ht40.h"
  25:C:/Users/stapi/OneDrive/Desktop/GD32VW553/V1_MQTT_OK/GD32VW55X_Wifi_BLE_SDK/GD32VW55x_RELEASE_V1.0.2/MSDK/cloud/alicloud/src/services/awss\zconfig_protocol.c **** #endif
  26:C:/Users/stapi/OneDrive/Desktop/GD32VW553/V1_MQTT_OK/GD32VW55X_Wifi_BLE_SDK/GD32VW55x_RELEASE_V1.0.2/MSDK/cloud/alicloud/src/services/awss\zconfig_protocol.c **** 
  27:C:/Users/stapi/OneDrive/Desktop/GD32VW553/V1_MQTT_OK/GD32VW55X_Wifi_BLE_SDK/GD32VW55x_RELEASE_V1.0.2/MSDK/cloud/alicloud/src/services/awss\zconfig_protocol.c **** #if defined(__cplusplus)  /* If this is a C++ compiler, use C linkage */
  28:C:/Users/stapi/OneDrive/Desktop/GD32VW553/V1_MQTT_OK/GD32VW55X_Wifi_BLE_SDK/GD32VW55x_RELEASE_V1.0.2/MSDK/cloud/alicloud/src/services/awss\zconfig_protocol.c **** extern "C" {
  29:C:/Users/stapi/OneDrive/Desktop/GD32VW553/V1_MQTT_OK/GD32VW55X_Wifi_BLE_SDK/GD32VW55x_RELEASE_V1.0.2/MSDK/cloud/alicloud/src/services/awss\zconfig_protocol.c **** #endif
  30:C:/Users/stapi/OneDrive/Desktop/GD32VW553/V1_MQTT_OK/GD32VW55X_Wifi_BLE_SDK/GD32VW55x_RELEASE_V1.0.2/MSDK/cloud/alicloud/src/services/awss\zconfig_protocol.c **** 
  31:C:/Users/stapi/OneDrive/Desktop/GD32VW553/V1_MQTT_OK/GD32VW55X_Wifi_BLE_SDK/GD32VW55x_RELEASE_V1.0.2/MSDK/cloud/alicloud/src/services/awss\zconfig_protocol.c **** /* broadcast mac address */
  32:C:/Users/stapi/OneDrive/Desktop/GD32VW553/V1_MQTT_OK/GD32VW55X_Wifi_BLE_SDK/GD32VW55x_RELEASE_V1.0.2/MSDK/cloud/alicloud/src/services/awss\zconfig_protocol.c **** const uint8_t br_mac[ETH_ALEN] = {0xff, 0xff, 0xff, 0xff, 0xff, 0xff};
  33:C:/Users/stapi/OneDrive/Desktop/GD32VW553/V1_MQTT_OK/GD32VW55X_Wifi_BLE_SDK/GD32VW55x_RELEASE_V1.0.2/MSDK/cloud/alicloud/src/services/awss\zconfig_protocol.c **** /* all zero mac address */
  34:C:/Users/stapi/OneDrive/Desktop/GD32VW553/V1_MQTT_OK/GD32VW55X_Wifi_BLE_SDK/GD32VW55x_RELEASE_V1.0.2/MSDK/cloud/alicloud/src/services/awss\zconfig_protocol.c **** const uint8_t zero_mac[ETH_ALEN] = {0, 0, 0, 0, 0, 0};
  35:C:/Users/stapi/OneDrive/Desktop/GD32VW553/V1_MQTT_OK/GD32VW55X_Wifi_BLE_SDK/GD32VW55x_RELEASE_V1.0.2/MSDK/cloud/alicloud/src/services/awss\zconfig_protocol.c **** 
  36:C:/Users/stapi/OneDrive/Desktop/GD32VW553/V1_MQTT_OK/GD32VW55X_Wifi_BLE_SDK/GD32VW55x_RELEASE_V1.0.2/MSDK/cloud/alicloud/src/services/awss\zconfig_protocol.c **** /* which channel lock at */
  37:C:/Users/stapi/OneDrive/Desktop/GD32VW553/V1_MQTT_OK/GD32VW55X_Wifi_BLE_SDK/GD32VW55x_RELEASE_V1.0.2/MSDK/cloud/alicloud/src/services/awss\zconfig_protocol.c **** uint8_t zconfig_channel_locked = INVALID_CHANNEL;/* locked channel */
  38:C:/Users/stapi/OneDrive/Desktop/GD32VW553/V1_MQTT_OK/GD32VW55X_Wifi_BLE_SDK/GD32VW55x_RELEASE_V1.0.2/MSDK/cloud/alicloud/src/services/awss\zconfig_protocol.c **** /*
  39:C:/Users/stapi/OneDrive/Desktop/GD32VW553/V1_MQTT_OK/GD32VW55X_Wifi_BLE_SDK/GD32VW55x_RELEASE_V1.0.2/MSDK/cloud/alicloud/src/services/awss\zconfig_protocol.c ****  * avoid zconfig_callback_over() was called twice,
  40:C:/Users/stapi/OneDrive/Desktop/GD32VW553/V1_MQTT_OK/GD32VW55X_Wifi_BLE_SDK/GD32VW55x_RELEASE_V1.0.2/MSDK/cloud/alicloud/src/services/awss\zconfig_protocol.c ****  * once from tods, once from fromds
  41:C:/Users/stapi/OneDrive/Desktop/GD32VW553/V1_MQTT_OK/GD32VW55X_Wifi_BLE_SDK/GD32VW55x_RELEASE_V1.0.2/MSDK/cloud/alicloud/src/services/awss\zconfig_protocol.c ****  */
  42:C:/Users/stapi/OneDrive/Desktop/GD32VW553/V1_MQTT_OK/GD32VW55X_Wifi_BLE_SDK/GD32VW55x_RELEASE_V1.0.2/MSDK/cloud/alicloud/src/services/awss\zconfig_protocol.c **** uint8_t zconfig_finished;
  43:C:/Users/stapi/OneDrive/Desktop/GD32VW553/V1_MQTT_OK/GD32VW55X_Wifi_BLE_SDK/GD32VW55x_RELEASE_V1.0.2/MSDK/cloud/alicloud/src/services/awss\zconfig_protocol.c **** 
  44:C:/Users/stapi/OneDrive/Desktop/GD32VW553/V1_MQTT_OK/GD32VW55X_Wifi_BLE_SDK/GD32VW55x_RELEASE_V1.0.2/MSDK/cloud/alicloud/src/services/awss\zconfig_protocol.c **** /* global data structure, which hold all broadcast data */
  45:C:/Users/stapi/OneDrive/Desktop/GD32VW553/V1_MQTT_OK/GD32VW55X_Wifi_BLE_SDK/GD32VW55x_RELEASE_V1.0.2/MSDK/cloud/alicloud/src/services/awss\zconfig_protocol.c **** struct zconfig_data *zconfig_data;
  46:C:/Users/stapi/OneDrive/Desktop/GD32VW553/V1_MQTT_OK/GD32VW55X_Wifi_BLE_SDK/GD32VW55x_RELEASE_V1.0.2/MSDK/cloud/alicloud/src/services/awss\zconfig_protocol.c **** 
  47:C:/Users/stapi/OneDrive/Desktop/GD32VW553/V1_MQTT_OK/GD32VW55X_Wifi_BLE_SDK/GD32VW55x_RELEASE_V1.0.2/MSDK/cloud/alicloud/src/services/awss\zconfig_protocol.c **** /*
  48:C:/Users/stapi/OneDrive/Desktop/GD32VW553/V1_MQTT_OK/GD32VW55X_Wifi_BLE_SDK/GD32VW55x_RELEASE_V1.0.2/MSDK/cloud/alicloud/src/services/awss\zconfig_protocol.c ****  * 8bit -> x bit
  49:C:/Users/stapi/OneDrive/Desktop/GD32VW553/V1_MQTT_OK/GD32VW55X_Wifi_BLE_SDK/GD32VW55x_RELEASE_V1.0.2/MSDK/cloud/alicloud/src/services/awss\zconfig_protocol.c ****  *
  50:C:/Users/stapi/OneDrive/Desktop/GD32VW553/V1_MQTT_OK/GD32VW55X_Wifi_BLE_SDK/GD32VW55x_RELEASE_V1.0.2/MSDK/cloud/alicloud/src/services/awss\zconfig_protocol.c ****  * serialize chinese char from 8bit to x bit
  51:C:/Users/stapi/OneDrive/Desktop/GD32VW553/V1_MQTT_OK/GD32VW55X_Wifi_BLE_SDK/GD32VW55x_RELEASE_V1.0.2/MSDK/cloud/alicloud/src/services/awss\zconfig_protocol.c ****  */
  52:C:/Users/stapi/OneDrive/Desktop/GD32VW553/V1_MQTT_OK/GD32VW55X_Wifi_BLE_SDK/GD32VW55x_RELEASE_V1.0.2/MSDK/cloud/alicloud/src/services/awss\zconfig_protocol.c **** void encode_chinese(uint8_t *in, uint8_t in_len,
  53:C:/Users/stapi/OneDrive/Desktop/GD32VW553/V1_MQTT_OK/GD32VW55X_Wifi_BLE_SDK/GD32VW55x_RELEASE_V1.0.2/MSDK/cloud/alicloud/src/services/awss\zconfig_protocol.c ****                     uint8_t *out, uint8_t *out_len, uint8_t bits)
  54:C:/Users/stapi/OneDrive/Desktop/GD32VW553/V1_MQTT_OK/GD32VW55X_Wifi_BLE_SDK/GD32VW55x_RELEASE_V1.0.2/MSDK/cloud/alicloud/src/services/awss\zconfig_protocol.c **** {
  16              		.loc 1 54 1
  17              		.cfi_startproc
  18              	.LVL0:
  19 0000 17030000 		call	t0,__riscv_save_6
  19      E7020300 
  20              		.cfi_offset 21, -28
  21              		.cfi_offset 20, -24
  22              		.cfi_offset 19, -20
  23              		.cfi_offset 18, -16
  24              		.cfi_offset 9, -12
  25              		.cfi_offset 8, -8
  26              		.cfi_offset 1, -4
  27              		.cfi_def_cfa_offset 32
  55:C:/Users/stapi/OneDrive/Desktop/GD32VW553/V1_MQTT_OK/GD32VW55X_Wifi_BLE_SDK/GD32VW55x_RELEASE_V1.0.2/MSDK/cloud/alicloud/src/services/awss\zconfig_protocol.c ****     if (bits == 0 || bits > 7) {
  28              		.loc 1 55 5
  29              		.loc 1 55 19 is_stmt 0
  30 0008 9307F7FF 		addi	a5,a4,-1
  54:C:/Users/stapi/OneDrive/Desktop/GD32VW553/V1_MQTT_OK/GD32VW55X_Wifi_BLE_SDK/GD32VW55x_RELEASE_V1.0.2/MSDK/cloud/alicloud/src/services/awss\zconfig_protocol.c ****     if (bits == 0 || bits > 7) {
  31              		.loc 1 54 1
  32 000c 3A84     		mv	s0,a4
  33              		.loc 1 55 8
  34 000e 93F7F70F 		andi	a5,a5,0xff
  35 0012 1947     		li	a4,6
  36              	.LVL1:
  54:C:/Users/stapi/OneDrive/Desktop/GD32VW553/V1_MQTT_OK/GD32VW55X_Wifi_BLE_SDK/GD32VW55x_RELEASE_V1.0.2/MSDK/cloud/alicloud/src/services/awss\zconfig_protocol.c ****     if (bits == 0 || bits > 7) {
  37              		.loc 1 54 1
  38 0014 6D71     		addi	sp,sp,-272
  39              		.cfi_def_cfa_offset 304
  40              		.loc 1 55 8
  41 0016 6363F706 		bgtu	a5,a4,.L1
  42 001a AE89     		mv	s3,a1
  43 001c 2A8A     		mv	s4,a0
  44              	.LBB19:
  56:C:/Users/stapi/OneDrive/Desktop/GD32VW553/V1_MQTT_OK/GD32VW55X_Wifi_BLE_SDK/GD32VW55x_RELEASE_V1.0.2/MSDK/cloud/alicloud/src/services/awss\zconfig_protocol.c ****         return;
  57:C:/Users/stapi/OneDrive/Desktop/GD32VW553/V1_MQTT_OK/GD32VW55X_Wifi_BLE_SDK/GD32VW55x_RELEASE_V1.0.2/MSDK/cloud/alicloud/src/services/awss\zconfig_protocol.c ****     }
  58:C:/Users/stapi/OneDrive/Desktop/GD32VW553/V1_MQTT_OK/GD32VW55X_Wifi_BLE_SDK/GD32VW55x_RELEASE_V1.0.2/MSDK/cloud/alicloud/src/services/awss\zconfig_protocol.c **** 
  59:C:/Users/stapi/OneDrive/Desktop/GD32VW553/V1_MQTT_OK/GD32VW55X_Wifi_BLE_SDK/GD32VW55x_RELEASE_V1.0.2/MSDK/cloud/alicloud/src/services/awss\zconfig_protocol.c ****     do {
  60:C:/Users/stapi/OneDrive/Desktop/GD32VW553/V1_MQTT_OK/GD32VW55X_Wifi_BLE_SDK/GD32VW55x_RELEASE_V1.0.2/MSDK/cloud/alicloud/src/services/awss\zconfig_protocol.c ****         uint8_t i, j;
  61:C:/Users/stapi/OneDrive/Desktop/GD32VW553/V1_MQTT_OK/GD32VW55X_Wifi_BLE_SDK/GD32VW55x_RELEASE_V1.0.2/MSDK/cloud/alicloud/src/services/awss\zconfig_protocol.c ****         uint8_t bit[ZC_MAX_SSID_LEN * 8] = {0};
  45              		.loc 1 61 17
  46 001e 8145     		li	a1,0
  47              	.LVL2:
  48 0020 B284     		mv	s1,a2
  49 0022 6800     		addi	a0,sp,12
  50              	.LVL3:
  51 0024 13064010 		li	a2,260
  52              	.LVL4:
  53 0028 3689     		mv	s2,a3
  54              	.LBE19:
  59:C:/Users/stapi/OneDrive/Desktop/GD32VW553/V1_MQTT_OK/GD32VW55X_Wifi_BLE_SDK/GD32VW55x_RELEASE_V1.0.2/MSDK/cloud/alicloud/src/services/awss\zconfig_protocol.c ****         uint8_t i, j;
  55              		.loc 1 59 5 is_stmt 1
  56              	.LBB20:
  60:C:/Users/stapi/OneDrive/Desktop/GD32VW553/V1_MQTT_OK/GD32VW55X_Wifi_BLE_SDK/GD32VW55x_RELEASE_V1.0.2/MSDK/cloud/alicloud/src/services/awss\zconfig_protocol.c ****         uint8_t bit[ZC_MAX_SSID_LEN * 8] = {0};
  57              		.loc 1 60 9
  58              		.loc 1 61 9
  59              		.loc 1 61 17 is_stmt 0
  60 002a 02C4     		sw	zero,8(sp)
  61 002c 97000000 		call	memset
  61      E7800000 
  62              	.LVL5:
  62:C:/Users/stapi/OneDrive/Desktop/GD32VW553/V1_MQTT_OK/GD32VW55X_Wifi_BLE_SDK/GD32VW55x_RELEASE_V1.0.2/MSDK/cloud/alicloud/src/services/awss\zconfig_protocol.c ****         uint8_t output_len = ((in_len * 8) + bits - 1) / bits;
  63              		.loc 1 62 9 is_stmt 1
  64              		.loc 1 62 44 is_stmt 0
  65 0034 B3E78920 		sh3add	a5,s3,s0
  66              		.loc 1 62 51
  67 0038 FD17     		addi	a5,a5,-1
  68              		.loc 1 62 56
  69 003a B3C78702 		div	a5,a5,s0
  63:C:/Users/stapi/OneDrive/Desktop/GD32VW553/V1_MQTT_OK/GD32VW55X_Wifi_BLE_SDK/GD32VW55x_RELEASE_V1.0.2/MSDK/cloud/alicloud/src/services/awss\zconfig_protocol.c **** 
  64:C:/Users/stapi/OneDrive/Desktop/GD32VW553/V1_MQTT_OK/GD32VW55X_Wifi_BLE_SDK/GD32VW55x_RELEASE_V1.0.2/MSDK/cloud/alicloud/src/services/awss\zconfig_protocol.c ****         // char to bit stream
  65:C:/Users/stapi/OneDrive/Desktop/GD32VW553/V1_MQTT_OK/GD32VW55X_Wifi_BLE_SDK/GD32VW55x_RELEASE_V1.0.2/MSDK/cloud/alicloud/src/services/awss\zconfig_protocol.c ****         for (i = 0; i < in_len; i ++) {
  70              		.loc 1 65 9
  71 003e 3000     		addi	a2,sp,8
  72 0040 8146     		li	a3,0
  66:C:/Users/stapi/OneDrive/Desktop/GD32VW553/V1_MQTT_OK/GD32VW55X_Wifi_BLE_SDK/GD32VW55x_RELEASE_V1.0.2/MSDK/cloud/alicloud/src/services/awss\zconfig_protocol.c ****             for (j = 0; j < 8; j ++) {
  73              		.loc 1 66 13
  74 0042 A145     		li	a1,8
  62:C:/Users/stapi/OneDrive/Desktop/GD32VW553/V1_MQTT_OK/GD32VW55X_Wifi_BLE_SDK/GD32VW55x_RELEASE_V1.0.2/MSDK/cloud/alicloud/src/services/awss\zconfig_protocol.c ****         uint8_t output_len = ((in_len * 8) + bits - 1) / bits;
  75              		.loc 1 62 17
  76 0044 93FAF70F 		andi	s5,a5,0xff
  77              	.LVL6:
  65:C:/Users/stapi/OneDrive/Desktop/GD32VW553/V1_MQTT_OK/GD32VW55X_Wifi_BLE_SDK/GD32VW55x_RELEASE_V1.0.2/MSDK/cloud/alicloud/src/services/awss\zconfig_protocol.c ****             for (j = 0; j < 8; j ++) {
  78              		.loc 1 65 9 is_stmt 1
  79              	.L3:
  65:C:/Users/stapi/OneDrive/Desktop/GD32VW553/V1_MQTT_OK/GD32VW55X_Wifi_BLE_SDK/GD32VW55x_RELEASE_V1.0.2/MSDK/cloud/alicloud/src/services/awss\zconfig_protocol.c ****             for (j = 0; j < 8; j ++) {
  80              		.loc 1 65 21 discriminator 1
  65:C:/Users/stapi/OneDrive/Desktop/GD32VW553/V1_MQTT_OK/GD32VW55X_Wifi_BLE_SDK/GD32VW55x_RELEASE_V1.0.2/MSDK/cloud/alicloud/src/services/awss\zconfig_protocol.c ****             for (j = 0; j < 8; j ++) {
  81              		.loc 1 65 9 is_stmt 0 discriminator 1
  82 0048 13F7F60F 		andi	a4,a3,0xff
  83 004c 636D3703 		bgtu	s3,a4,.L5
  67:C:/Users/stapi/OneDrive/Desktop/GD32VW553/V1_MQTT_OK/GD32VW55X_Wifi_BLE_SDK/GD32VW55x_RELEASE_V1.0.2/MSDK/cloud/alicloud/src/services/awss\zconfig_protocol.c ****                 bit[i * 8 + j] = (in[i] >> j) & 0x01;
  68:C:/Users/stapi/OneDrive/Desktop/GD32VW553/V1_MQTT_OK/GD32VW55X_Wifi_BLE_SDK/GD32VW55x_RELEASE_V1.0.2/MSDK/cloud/alicloud/src/services/awss\zconfig_protocol.c ****             }
  69:C:/Users/stapi/OneDrive/Desktop/GD32VW553/V1_MQTT_OK/GD32VW55X_Wifi_BLE_SDK/GD32VW55x_RELEASE_V1.0.2/MSDK/cloud/alicloud/src/services/awss\zconfig_protocol.c ****         }
  70:C:/Users/stapi/OneDrive/Desktop/GD32VW553/V1_MQTT_OK/GD32VW55X_Wifi_BLE_SDK/GD32VW55x_RELEASE_V1.0.2/MSDK/cloud/alicloud/src/services/awss\zconfig_protocol.c **** 
  71:C:/Users/stapi/OneDrive/Desktop/GD32VW553/V1_MQTT_OK/GD32VW55X_Wifi_BLE_SDK/GD32VW55x_RELEASE_V1.0.2/MSDK/cloud/alicloud/src/services/awss\zconfig_protocol.c ****         out[output_len] = '\0'; /* NULL-terminated */
  84              		.loc 1 71 9 is_stmt 1
  85              		.loc 1 71 12 is_stmt 0
  86 0050 13F6F70F 		andi	a2,a5,255
  87              		.loc 1 71 25
  88 0054 B387C400 		add	a5,s1,a2
  89 0058 23800700 		sb	zero,0(a5)
  72:C:/Users/stapi/OneDrive/Desktop/GD32VW553/V1_MQTT_OK/GD32VW55X_Wifi_BLE_SDK/GD32VW55x_RELEASE_V1.0.2/MSDK/cloud/alicloud/src/services/awss\zconfig_protocol.c ****         for (i = 0; i < output_len; i ++) {
  90              		.loc 1 72 9 is_stmt 1
  91              	.LVL7:
  73:C:/Users/stapi/OneDrive/Desktop/GD32VW553/V1_MQTT_OK/GD32VW55X_Wifi_BLE_SDK/GD32VW55x_RELEASE_V1.0.2/MSDK/cloud/alicloud/src/services/awss\zconfig_protocol.c ****             for (j = 0, out[i] = 0; j < bits; j ++) {
  92              		.loc 1 73 32 is_stmt 0
  93 005c 8145     		li	a1,0
  94 005e 2685     		mv	a0,s1
  95 0060 97000000 		call	memset
  95      E7800000 
  96              	.LVL8:
  72:C:/Users/stapi/OneDrive/Desktop/GD32VW553/V1_MQTT_OK/GD32VW55X_Wifi_BLE_SDK/GD32VW55x_RELEASE_V1.0.2/MSDK/cloud/alicloud/src/services/awss\zconfig_protocol.c ****         for (i = 0; i < output_len; i ++) {
  97              		.loc 1 72 9
  98 0068 0146     		li	a2,0
  99 006a 8146     		li	a3,0
 100              	.LVL9:
 101              	.L6:
  72:C:/Users/stapi/OneDrive/Desktop/GD32VW553/V1_MQTT_OK/GD32VW55X_Wifi_BLE_SDK/GD32VW55x_RELEASE_V1.0.2/MSDK/cloud/alicloud/src/services/awss\zconfig_protocol.c ****         for (i = 0; i < output_len; i ++) {
 102              		.loc 1 72 21 is_stmt 1 discriminator 1
  72:C:/Users/stapi/OneDrive/Desktop/GD32VW553/V1_MQTT_OK/GD32VW55X_Wifi_BLE_SDK/GD32VW55x_RELEASE_V1.0.2/MSDK/cloud/alicloud/src/services/awss\zconfig_protocol.c ****         for (i = 0; i < output_len; i ++) {
 103              		.loc 1 72 9 is_stmt 0 discriminator 1
 104 006c 93F7F60F 		andi	a5,a3,0xff
 105 0070 63EC5703 		bltu	a5,s5,.L9
  74:C:/Users/stapi/OneDrive/Desktop/GD32VW553/V1_MQTT_OK/GD32VW55X_Wifi_BLE_SDK/GD32VW55x_RELEASE_V1.0.2/MSDK/cloud/alicloud/src/services/awss\zconfig_protocol.c ****                 out[i] |= bit[i * bits + j] << j;
  75:C:/Users/stapi/OneDrive/Desktop/GD32VW553/V1_MQTT_OK/GD32VW55X_Wifi_BLE_SDK/GD32VW55x_RELEASE_V1.0.2/MSDK/cloud/alicloud/src/services/awss\zconfig_protocol.c ****             }
  76:C:/Users/stapi/OneDrive/Desktop/GD32VW553/V1_MQTT_OK/GD32VW55X_Wifi_BLE_SDK/GD32VW55x_RELEASE_V1.0.2/MSDK/cloud/alicloud/src/services/awss\zconfig_protocol.c ****         }
  77:C:/Users/stapi/OneDrive/Desktop/GD32VW553/V1_MQTT_OK/GD32VW55X_Wifi_BLE_SDK/GD32VW55x_RELEASE_V1.0.2/MSDK/cloud/alicloud/src/services/awss\zconfig_protocol.c **** 
  78:C:/Users/stapi/OneDrive/Desktop/GD32VW553/V1_MQTT_OK/GD32VW55X_Wifi_BLE_SDK/GD32VW55x_RELEASE_V1.0.2/MSDK/cloud/alicloud/src/services/awss\zconfig_protocol.c ****         if (out_len) {
 106              		.loc 1 78 9 is_stmt 1
 107              		.loc 1 78 12 is_stmt 0
 108 0074 63040900 		beq	s2,zero,.L1
  79:C:/Users/stapi/OneDrive/Desktop/GD32VW553/V1_MQTT_OK/GD32VW55X_Wifi_BLE_SDK/GD32VW55x_RELEASE_V1.0.2/MSDK/cloud/alicloud/src/services/awss\zconfig_protocol.c ****             *out_len = output_len;
 109              		.loc 1 79 13 is_stmt 1
 110              		.loc 1 79 22 is_stmt 0
 111 0078 23005901 		sb	s5,0(s2)
 112              	.LBE20:
  80:C:/Users/stapi/OneDrive/Desktop/GD32VW553/V1_MQTT_OK/GD32VW55X_Wifi_BLE_SDK/GD32VW55x_RELEASE_V1.0.2/MSDK/cloud/alicloud/src/services/awss\zconfig_protocol.c ****         }
  81:C:/Users/stapi/OneDrive/Desktop/GD32VW553/V1_MQTT_OK/GD32VW55X_Wifi_BLE_SDK/GD32VW55x_RELEASE_V1.0.2/MSDK/cloud/alicloud/src/services/awss\zconfig_protocol.c ****     } while (0);
 113              		.loc 1 81 13 is_stmt 1
 114              	.LVL10:
 115              	.L1:
  82:C:/Users/stapi/OneDrive/Desktop/GD32VW553/V1_MQTT_OK/GD32VW55X_Wifi_BLE_SDK/GD32VW55x_RELEASE_V1.0.2/MSDK/cloud/alicloud/src/services/awss\zconfig_protocol.c **** }
 116              		.loc 1 82 1 is_stmt 0
 117 007c 5161     		addi	sp,sp,272
 118              		.cfi_remember_state
 119              		.cfi_def_cfa_offset 0
 120 007e 17030000 		tail	__riscv_restore_6
 120      67000300 
 121              		.cfi_restore 21
 122              		.cfi_restore 20
 123              		.cfi_restore 19
 124              		.cfi_restore 18
 125              		.cfi_restore 9
 126              		.cfi_restore 8
 127              		.cfi_restore 1
 128              		.cfi_def_cfa_offset -32
 129              	.LVL11:
 130              	.L5:
 131              		.cfi_restore_state
 132              	.LBB21:
  67:C:/Users/stapi/OneDrive/Desktop/GD32VW553/V1_MQTT_OK/GD32VW55X_Wifi_BLE_SDK/GD32VW55x_RELEASE_V1.0.2/MSDK/cloud/alicloud/src/services/awss\zconfig_protocol.c ****             }
 133              		.loc 1 67 37
 134 0086 3307DA00 		add	a4,s4,a3
 135 008a 83480700 		lbu	a7,0(a4)
 136 008e 0147     		li	a4,0
 137              	.L4:
 138              	.LVL12:
  67:C:/Users/stapi/OneDrive/Desktop/GD32VW553/V1_MQTT_OK/GD32VW55X_Wifi_BLE_SDK/GD32VW55x_RELEASE_V1.0.2/MSDK/cloud/alicloud/src/services/awss\zconfig_protocol.c ****             }
 139              		.loc 1 67 17 is_stmt 1 discriminator 3
  67:C:/Users/stapi/OneDrive/Desktop/GD32VW553/V1_MQTT_OK/GD32VW55X_Wifi_BLE_SDK/GD32VW55x_RELEASE_V1.0.2/MSDK/cloud/alicloud/src/services/awss\zconfig_protocol.c ****             }
 140              		.loc 1 67 32 is_stmt 0 discriminator 3
 141 0090 3305E600 		add	a0,a2,a4
  67:C:/Users/stapi/OneDrive/Desktop/GD32VW553/V1_MQTT_OK/GD32VW55X_Wifi_BLE_SDK/GD32VW55x_RELEASE_V1.0.2/MSDK/cloud/alicloud/src/services/awss\zconfig_protocol.c ****             }
 142              		.loc 1 67 47 discriminator 3
 143 0094 33D8E848 		bext	a6,a7,a4
  66:C:/Users/stapi/OneDrive/Desktop/GD32VW553/V1_MQTT_OK/GD32VW55X_Wifi_BLE_SDK/GD32VW55x_RELEASE_V1.0.2/MSDK/cloud/alicloud/src/services/awss\zconfig_protocol.c ****                 bit[i * 8 + j] = (in[i] >> j) & 0x01;
 144              		.loc 1 66 13 discriminator 3
 145 0098 0507     		addi	a4,a4,1
 146              	.LVL13:
  67:C:/Users/stapi/OneDrive/Desktop/GD32VW553/V1_MQTT_OK/GD32VW55X_Wifi_BLE_SDK/GD32VW55x_RELEASE_V1.0.2/MSDK/cloud/alicloud/src/services/awss\zconfig_protocol.c ****             }
 147              		.loc 1 67 32 discriminator 3
 148 009a 23000501 		sb	a6,0(a0)
  66:C:/Users/stapi/OneDrive/Desktop/GD32VW553/V1_MQTT_OK/GD32VW55X_Wifi_BLE_SDK/GD32VW55x_RELEASE_V1.0.2/MSDK/cloud/alicloud/src/services/awss\zconfig_protocol.c ****                 bit[i * 8 + j] = (in[i] >> j) & 0x01;
 149              		.loc 1 66 32 is_stmt 1 discriminator 3
  66:C:/Users/stapi/OneDrive/Desktop/GD32VW553/V1_MQTT_OK/GD32VW55X_Wifi_BLE_SDK/GD32VW55x_RELEASE_V1.0.2/MSDK/cloud/alicloud/src/services/awss\zconfig_protocol.c ****                 bit[i * 8 + j] = (in[i] >> j) & 0x01;
 150              		.loc 1 66 25 discriminator 3
  66:C:/Users/stapi/OneDrive/Desktop/GD32VW553/V1_MQTT_OK/GD32VW55X_Wifi_BLE_SDK/GD32VW55x_RELEASE_V1.0.2/MSDK/cloud/alicloud/src/services/awss\zconfig_protocol.c ****                 bit[i * 8 + j] = (in[i] >> j) & 0x01;
 151              		.loc 1 66 13 is_stmt 0 discriminator 3
 152 009e E319B7FE 		bne	a4,a1,.L4
  65:C:/Users/stapi/OneDrive/Desktop/GD32VW553/V1_MQTT_OK/GD32VW55X_Wifi_BLE_SDK/GD32VW55x_RELEASE_V1.0.2/MSDK/cloud/alicloud/src/services/awss\zconfig_protocol.c ****             for (j = 0; j < 8; j ++) {
 153              		.loc 1 65 33 is_stmt 1 discriminator 2
 154              	.LVL14:
 155 00a2 8506     		addi	a3,a3,1
 156              	.LVL15:
 157 00a4 2106     		addi	a2,a2,8
 158 00a6 4DB7     		j	.L3
 159              	.LVL16:
 160              	.L9:
  74:C:/Users/stapi/OneDrive/Desktop/GD32VW553/V1_MQTT_OK/GD32VW55X_Wifi_BLE_SDK/GD32VW55x_RELEASE_V1.0.2/MSDK/cloud/alicloud/src/services/awss\zconfig_protocol.c ****             }
 161              		.loc 1 74 30 is_stmt 0
 162 00a8 2C00     		addi	a1,sp,8
 163 00aa 0147     		li	a4,0
 164 00ac 8147     		li	a5,0
 165 00ae 3305B600 		add	a0,a2,a1
 166              	.L7:
 167              	.LVL17:
  74:C:/Users/stapi/OneDrive/Desktop/GD32VW553/V1_MQTT_OK/GD32VW55X_Wifi_BLE_SDK/GD32VW55x_RELEASE_V1.0.2/MSDK/cloud/alicloud/src/services/awss\zconfig_protocol.c ****             }
 168              		.loc 1 74 17 is_stmt 1 discriminator 3
  74:C:/Users/stapi/OneDrive/Desktop/GD32VW553/V1_MQTT_OK/GD32VW55X_Wifi_BLE_SDK/GD32VW55x_RELEASE_V1.0.2/MSDK/cloud/alicloud/src/services/awss\zconfig_protocol.c ****             }
 169              		.loc 1 74 30 is_stmt 0 discriminator 3
 170 00b2 B305E500 		add	a1,a0,a4
 171 00b6 83C50500 		lbu	a1,0(a1)
  74:C:/Users/stapi/OneDrive/Desktop/GD32VW553/V1_MQTT_OK/GD32VW55X_Wifi_BLE_SDK/GD32VW55x_RELEASE_V1.0.2/MSDK/cloud/alicloud/src/services/awss\zconfig_protocol.c ****             }
 172              		.loc 1 74 45 discriminator 3
 173 00ba B395E500 		sll	a1,a1,a4
  73:C:/Users/stapi/OneDrive/Desktop/GD32VW553/V1_MQTT_OK/GD32VW55X_Wifi_BLE_SDK/GD32VW55x_RELEASE_V1.0.2/MSDK/cloud/alicloud/src/services/awss\zconfig_protocol.c ****                 out[i] |= bit[i * bits + j] << j;
 174              		.loc 1 73 13 discriminator 3
 175 00be 0507     		addi	a4,a4,1
 176              	.LVL18:
  74:C:/Users/stapi/OneDrive/Desktop/GD32VW553/V1_MQTT_OK/GD32VW55X_Wifi_BLE_SDK/GD32VW55x_RELEASE_V1.0.2/MSDK/cloud/alicloud/src/services/awss\zconfig_protocol.c ****             }
 177              		.loc 1 74 24 discriminator 3
 178 00c0 CD8F     		or	a5,a1,a5
  73:C:/Users/stapi/OneDrive/Desktop/GD32VW553/V1_MQTT_OK/GD32VW55X_Wifi_BLE_SDK/GD32VW55x_RELEASE_V1.0.2/MSDK/cloud/alicloud/src/services/awss\zconfig_protocol.c ****                 out[i] |= bit[i * bits + j] << j;
 179              		.loc 1 73 13 discriminator 3
 180 00c2 9375F70F 		andi	a1,a4,0xff
  74:C:/Users/stapi/OneDrive/Desktop/GD32VW553/V1_MQTT_OK/GD32VW55X_Wifi_BLE_SDK/GD32VW55x_RELEASE_V1.0.2/MSDK/cloud/alicloud/src/services/awss\zconfig_protocol.c ****             }
 181              		.loc 1 74 24 discriminator 3
 182 00c6 93F7F70F 		andi	a5,a5,0xff
  73:C:/Users/stapi/OneDrive/Desktop/GD32VW553/V1_MQTT_OK/GD32VW55X_Wifi_BLE_SDK/GD32VW55x_RELEASE_V1.0.2/MSDK/cloud/alicloud/src/services/awss\zconfig_protocol.c ****                 out[i] |= bit[i * bits + j] << j;
 183              		.loc 1 73 47 is_stmt 1 discriminator 3
  73:C:/Users/stapi/OneDrive/Desktop/GD32VW553/V1_MQTT_OK/GD32VW55X_Wifi_BLE_SDK/GD32VW55x_RELEASE_V1.0.2/MSDK/cloud/alicloud/src/services/awss\zconfig_protocol.c ****                 out[i] |= bit[i * bits + j] << j;
 184              		.loc 1 73 37 discriminator 3
  73:C:/Users/stapi/OneDrive/Desktop/GD32VW553/V1_MQTT_OK/GD32VW55X_Wifi_BLE_SDK/GD32VW55x_RELEASE_V1.0.2/MSDK/cloud/alicloud/src/services/awss\zconfig_protocol.c ****                 out[i] |= bit[i * bits + j] << j;
 185              		.loc 1 73 13 is_stmt 0 discriminator 3
 186 00ca E3E485FE 		bgtu	s0,a1,.L7
 187 00ce 3387D400 		add	a4,s1,a3
 188 00d2 2300F700 		sb	a5,0(a4)
  72:C:/Users/stapi/OneDrive/Desktop/GD32VW553/V1_MQTT_OK/GD32VW55X_Wifi_BLE_SDK/GD32VW55x_RELEASE_V1.0.2/MSDK/cloud/alicloud/src/services/awss\zconfig_protocol.c ****             for (j = 0, out[i] = 0; j < bits; j ++) {
 189              		.loc 1 72 37 is_stmt 1 discriminator 2
 190              	.LVL19:
 191 00d6 8506     		addi	a3,a3,1
 192              	.LVL20:
 193 00d8 2296     		add	a2,a2,s0
 194 00da 49BF     		j	.L6
 195              	.LBE21:
 196              		.cfi_endproc
 197              	.LFE49:
 199              		.section	.rodata.decode_chinese.str1.4,"aMS",@progbits,1
 200              		.align	2
 201              	.LC0:
 202 0000 5B637274 		.string	"[crt] "
 202      5D2000
 203 0007 00       		.align	2
 204              	.LC1:
 205 0008 6465636F 		.string	"decode malloc failed!\r\n"
 205      6465206D 
 205      616C6C6F 
 205      63206661 
 205      696C6564 
 206              		.align	2
 207              	.LC2:
 208 0020 0D0A00   		.string	"\r\n"
 209              		.section	.text.decode_chinese,"ax",@progbits
 210              		.align	1
 211              		.globl	decode_chinese
 213              	decode_chinese:
 214              	.LFB50:
  83:C:/Users/stapi/OneDrive/Desktop/GD32VW553/V1_MQTT_OK/GD32VW55X_Wifi_BLE_SDK/GD32VW55x_RELEASE_V1.0.2/MSDK/cloud/alicloud/src/services/awss\zconfig_protocol.c **** 
  84:C:/Users/stapi/OneDrive/Desktop/GD32VW553/V1_MQTT_OK/GD32VW55X_Wifi_BLE_SDK/GD32VW55x_RELEASE_V1.0.2/MSDK/cloud/alicloud/src/services/awss\zconfig_protocol.c **** /* x bit -> 8bit */
  85:C:/Users/stapi/OneDrive/Desktop/GD32VW553/V1_MQTT_OK/GD32VW55X_Wifi_BLE_SDK/GD32VW55x_RELEASE_V1.0.2/MSDK/cloud/alicloud/src/services/awss\zconfig_protocol.c **** void decode_chinese(uint8_t *in, uint8_t in_len,
  86:C:/Users/stapi/OneDrive/Desktop/GD32VW553/V1_MQTT_OK/GD32VW55X_Wifi_BLE_SDK/GD32VW55x_RELEASE_V1.0.2/MSDK/cloud/alicloud/src/services/awss\zconfig_protocol.c ****                     uint8_t *out, uint8_t *out_len, uint8_t bits)
  87:C:/Users/stapi/OneDrive/Desktop/GD32VW553/V1_MQTT_OK/GD32VW55X_Wifi_BLE_SDK/GD32VW55x_RELEASE_V1.0.2/MSDK/cloud/alicloud/src/services/awss\zconfig_protocol.c **** {
 215              		.loc 1 87 1
 216              		.cfi_startproc
 217              	.LVL21:
 218 0000 17030000 		call	t0,__riscv_save_8
 218      E7020300 
 219              		.cfi_offset 23, -36
 220              		.cfi_offset 22, -32
 221              		.cfi_offset 21, -28
 222              		.cfi_offset 20, -24
 223              		.cfi_offset 19, -20
 224              		.cfi_offset 18, -16
 225              		.cfi_offset 9, -12
 226              		.cfi_offset 8, -8
 227              		.cfi_offset 1, -4
 228              		.cfi_def_cfa_offset 48
  88:C:/Users/stapi/OneDrive/Desktop/GD32VW553/V1_MQTT_OK/GD32VW55X_Wifi_BLE_SDK/GD32VW55x_RELEASE_V1.0.2/MSDK/cloud/alicloud/src/services/awss\zconfig_protocol.c ****     if (bits == 0 || bits > 7 || in_len == 0) {
 229              		.loc 1 88 5
 230              		.loc 1 88 19 is_stmt 0
 231 0008 9307F7FF 		addi	a5,a4,-1
  87:C:/Users/stapi/OneDrive/Desktop/GD32VW553/V1_MQTT_OK/GD32VW55X_Wifi_BLE_SDK/GD32VW55x_RELEASE_V1.0.2/MSDK/cloud/alicloud/src/services/awss\zconfig_protocol.c ****     if (bits == 0 || bits > 7 || in_len == 0) {
 232              		.loc 1 87 1
 233 000c 3A89     		mv	s2,a4
 234              		.loc 1 88 8
 235 000e 93F7F70F 		andi	a5,a5,0xff
 236 0012 1947     		li	a4,6
 237              	.LVL22:
  87:C:/Users/stapi/OneDrive/Desktop/GD32VW553/V1_MQTT_OK/GD32VW55X_Wifi_BLE_SDK/GD32VW55x_RELEASE_V1.0.2/MSDK/cloud/alicloud/src/services/awss\zconfig_protocol.c ****     if (bits == 0 || bits > 7 || in_len == 0) {
 238              		.loc 1 87 1
 239 0014 4111     		addi	sp,sp,-16
 240              		.cfi_def_cfa_offset 64
 241              		.loc 1 88 8
 242 0016 6368F708 		bgtu	a5,a4,.L16
 243 001a AE89     		mv	s3,a1
 244              		.loc 1 88 31 discriminator 1
 245 001c C9C5     		beq	a1,zero,.L16
 246 001e 3284     		mv	s0,a2
 247              	.LBB29:
  89:C:/Users/stapi/OneDrive/Desktop/GD32VW553/V1_MQTT_OK/GD32VW55X_Wifi_BLE_SDK/GD32VW55x_RELEASE_V1.0.2/MSDK/cloud/alicloud/src/services/awss\zconfig_protocol.c ****         return;
  90:C:/Users/stapi/OneDrive/Desktop/GD32VW553/V1_MQTT_OK/GD32VW55X_Wifi_BLE_SDK/GD32VW55x_RELEASE_V1.0.2/MSDK/cloud/alicloud/src/services/awss\zconfig_protocol.c ****     }
  91:C:/Users/stapi/OneDrive/Desktop/GD32VW553/V1_MQTT_OK/GD32VW55X_Wifi_BLE_SDK/GD32VW55x_RELEASE_V1.0.2/MSDK/cloud/alicloud/src/services/awss\zconfig_protocol.c **** 
  92:C:/Users/stapi/OneDrive/Desktop/GD32VW553/V1_MQTT_OK/GD32VW55X_Wifi_BLE_SDK/GD32VW55x_RELEASE_V1.0.2/MSDK/cloud/alicloud/src/services/awss\zconfig_protocol.c ****     do {
  93:C:/Users/stapi/OneDrive/Desktop/GD32VW553/V1_MQTT_OK/GD32VW55X_Wifi_BLE_SDK/GD32VW55x_RELEASE_V1.0.2/MSDK/cloud/alicloud/src/services/awss\zconfig_protocol.c ****         uint8_t i, j;
  94:C:/Users/stapi/OneDrive/Desktop/GD32VW553/V1_MQTT_OK/GD32VW55X_Wifi_BLE_SDK/GD32VW55x_RELEASE_V1.0.2/MSDK/cloud/alicloud/src/services/awss\zconfig_protocol.c ****         uint8_t output_len = (in_len * bits) / 8;
 248              		.loc 1 94 38
 249 0020 33862503 		mul	a2,a1,s2
 250              	.LVL23:
 251 0024 AA8B     		mv	s7,a0
 252 0026 368A     		mv	s4,a3
 253              	.LBE29:
  92:C:/Users/stapi/OneDrive/Desktop/GD32VW553/V1_MQTT_OK/GD32VW55X_Wifi_BLE_SDK/GD32VW55x_RELEASE_V1.0.2/MSDK/cloud/alicloud/src/services/awss\zconfig_protocol.c ****         uint8_t i, j;
 254              		.loc 1 92 5 is_stmt 1
 255              	.LBB48:
  93:C:/Users/stapi/OneDrive/Desktop/GD32VW553/V1_MQTT_OK/GD32VW55X_Wifi_BLE_SDK/GD32VW55x_RELEASE_V1.0.2/MSDK/cloud/alicloud/src/services/awss\zconfig_protocol.c ****         uint8_t output_len = (in_len * bits) / 8;
 256              		.loc 1 93 9
 257              		.loc 1 94 9
 258              	.LBB30:
 259              	.LBB31:
 260              	.LBB32:
 261              	.LBB33:
 262              		.file 2 "..\\..\\..\\..\\cloud\\alicloud\\src\\services\\dev_bind\\os/os.h"
   1:..\..\..\..\cloud\alicloud\src\services\dev_bind\os/os.h **** /*
   2:..\..\..\..\cloud\alicloud\src\services\dev_bind\os/os.h ****  * Copyright (C) 2015-2018 Alibaba Group Holding Limited
   3:..\..\..\..\cloud\alicloud\src\services\dev_bind\os/os.h ****  */
   4:..\..\..\..\cloud\alicloud\src\services\dev_bind\os/os.h **** 
   5:..\..\..\..\cloud\alicloud\src\services\dev_bind\os/os.h **** #ifndef __AWSS_OS_H__
   6:..\..\..\..\cloud\alicloud\src\services\dev_bind\os/os.h **** #define __AWSS_OS_H__
   7:..\..\..\..\cloud\alicloud\src\services\dev_bind\os/os.h **** 
   8:..\..\..\..\cloud\alicloud\src\services\dev_bind\os/os.h **** #ifdef __cplusplus
   9:..\..\..\..\cloud\alicloud\src\services\dev_bind\os/os.h **** extern "C" {
  10:..\..\..\..\cloud\alicloud\src\services\dev_bind\os/os.h **** #endif
  11:..\..\..\..\cloud\alicloud\src\services\dev_bind\os/os.h **** #include <ctype.h>
  12:..\..\..\..\cloud\alicloud\src\services\dev_bind\os/os.h **** #include "iot_import.h"
  13:..\..\..\..\cloud\alicloud\src\services\dev_bind\os/os.h **** #include "iot_export.h"
  14:..\..\..\..\cloud\alicloud\src\services\dev_bind\os/os.h **** #include "product/product.h"
  15:..\..\..\..\cloud\alicloud\src\services\dev_bind\os/os.h **** #include "platform.h"
  16:..\..\..\..\cloud\alicloud\src\services\dev_bind\os/os.h **** 
  17:..\..\..\..\cloud\alicloud\src\services\dev_bind\os/os.h **** /** @defgroup group_os os
  18:..\..\..\..\cloud\alicloud\src\services\dev_bind\os/os.h ****  *  @{
  19:..\..\..\..\cloud\alicloud\src\services\dev_bind\os/os.h ****  */
  20:..\..\..\..\cloud\alicloud\src\services\dev_bind\os/os.h **** 
  21:..\..\..\..\cloud\alicloud\src\services\dev_bind\os/os.h **** #define OS_MAX_SSID_LEN         PLATFORM_MAX_SSID_LEN
  22:..\..\..\..\cloud\alicloud\src\services\dev_bind\os/os.h **** #define OS_MAX_PASSWD_LEN       PLATFORM_MAX_PASSWD_LEN
  23:..\..\..\..\cloud\alicloud\src\services\dev_bind\os/os.h **** 
  24:..\..\..\..\cloud\alicloud\src\services\dev_bind\os/os.h **** #define OS_MAC_LEN              PLATFORM_MAC_LEN
  25:..\..\..\..\cloud\alicloud\src\services\dev_bind\os/os.h **** #define OS_IP_LEN               PLATFORM_IP_LEN
  26:..\..\..\..\cloud\alicloud\src\services\dev_bind\os/os.h **** #define OS_ETH_ALEN             ETH_ALEN
  27:..\..\..\..\cloud\alicloud\src\services\dev_bind\os/os.h **** 
  28:..\..\..\..\cloud\alicloud\src\services\dev_bind\os/os.h **** #define OS_PRODUCT_KEY_LEN      PRODUCT_KEY_LEN
  29:..\..\..\..\cloud\alicloud\src\services\dev_bind\os/os.h **** #define OS_PRODUCT_SECRET_LEN   PRODUCT_SECRET_LEN
  30:..\..\..\..\cloud\alicloud\src\services\dev_bind\os/os.h **** #define OS_DEVICE_NAME_LEN      DEVICE_NAME_LEN
  31:..\..\..\..\cloud\alicloud\src\services\dev_bind\os/os.h **** #define OS_DEVICE_SECRET_LEN    DEVICE_SECRET_LEN
  32:..\..\..\..\cloud\alicloud\src\services\dev_bind\os/os.h **** 
  33:..\..\..\..\cloud\alicloud\src\services\dev_bind\os/os.h **** /***************************************** Misc Interface *****************************************
  34:..\..\..\..\cloud\alicloud\src\services\dev_bind\os/os.h **** 
  35:..\..\..\..\cloud\alicloud\src\services\dev_bind\os/os.h **** /** @defgroup group_misc misc
  36:..\..\..\..\cloud\alicloud\src\services\dev_bind\os/os.h ****  *  @{
  37:..\..\..\..\cloud\alicloud\src\services\dev_bind\os/os.h ****  */
  38:..\..\..\..\cloud\alicloud\src\services\dev_bind\os/os.h **** /**
  39:..\..\..\..\cloud\alicloud\src\services\dev_bind\os/os.h ****  * @brief .
  40:..\..\..\..\cloud\alicloud\src\services\dev_bind\os/os.h ****  *
  41:..\..\..\..\cloud\alicloud\src\services\dev_bind\os/os.h ****  * @param None.
  42:..\..\..\..\cloud\alicloud\src\services\dev_bind\os/os.h ****  * @return
  43:..\..\..\..\cloud\alicloud\src\services\dev_bind\os/os.h ****  * @verbatim
  44:..\..\..\..\cloud\alicloud\src\services\dev_bind\os/os.h ****  * = 0, This platform is little endian.
  45:..\..\..\..\cloud\alicloud\src\services\dev_bind\os/os.h ****  * = 1, This platform is big endian.
  46:..\..\..\..\cloud\alicloud\src\services\dev_bind\os/os.h ****  * @endverbatim
  47:..\..\..\..\cloud\alicloud\src\services\dev_bind\os/os.h ****  * @see None.
  48:..\..\..\..\cloud\alicloud\src\services\dev_bind\os/os.h ****  * @note None.
  49:..\..\..\..\cloud\alicloud\src\services\dev_bind\os/os.h ****  */
  50:..\..\..\..\cloud\alicloud\src\services\dev_bind\os/os.h **** static inline int os_is_big_endian(void)
  51:..\..\..\..\cloud\alicloud\src\services\dev_bind\os/os.h **** {
  52:..\..\..\..\cloud\alicloud\src\services\dev_bind\os/os.h ****     uint32_t data = 0xFF000000;
  53:..\..\..\..\cloud\alicloud\src\services\dev_bind\os/os.h **** 
  54:..\..\..\..\cloud\alicloud\src\services\dev_bind\os/os.h ****     if (0xFF == *(uint8_t *) & data) {
  55:..\..\..\..\cloud\alicloud\src\services\dev_bind\os/os.h ****         return 1;                                    //big endian
  56:..\..\..\..\cloud\alicloud\src\services\dev_bind\os/os.h ****     }
  57:..\..\..\..\cloud\alicloud\src\services\dev_bind\os/os.h **** 
  58:..\..\..\..\cloud\alicloud\src\services\dev_bind\os/os.h ****     return 0;                                        //little endian
  59:..\..\..\..\cloud\alicloud\src\services\dev_bind\os/os.h **** }
  60:..\..\..\..\cloud\alicloud\src\services\dev_bind\os/os.h **** 
  61:..\..\..\..\cloud\alicloud\src\services\dev_bind\os/os.h **** /**
  62:..\..\..\..\cloud\alicloud\src\services\dev_bind\os/os.h ****  * @brief Convert the data from byte order of current CPU(the "host") to big-endian.
  63:..\..\..\..\cloud\alicloud\src\services\dev_bind\os/os.h ****    The size of the data is 16 bits.
  64:..\..\..\..\cloud\alicloud\src\services\dev_bind\os/os.h ****  *
  65:..\..\..\..\cloud\alicloud\src\services\dev_bind\os/os.h ****  * @param[in] data @n Data to be converted.
  66:..\..\..\..\cloud\alicloud\src\services\dev_bind\os/os.h ****  * @return Conversion result.
  67:..\..\..\..\cloud\alicloud\src\services\dev_bind\os/os.h ****  * @see None.
  68:..\..\..\..\cloud\alicloud\src\services\dev_bind\os/os.h ****  * @note None.
  69:..\..\..\..\cloud\alicloud\src\services\dev_bind\os/os.h ****  */
  70:..\..\..\..\cloud\alicloud\src\services\dev_bind\os/os.h **** uint16_t os_htobe16(uint16_t data);
  71:..\..\..\..\cloud\alicloud\src\services\dev_bind\os/os.h **** 
  72:..\..\..\..\cloud\alicloud\src\services\dev_bind\os/os.h **** /**
  73:..\..\..\..\cloud\alicloud\src\services\dev_bind\os/os.h ****  * @brief Convert the data from host to little-endian.
  74:..\..\..\..\cloud\alicloud\src\services\dev_bind\os/os.h ****    The size of the data is 16 bits.
  75:..\..\..\..\cloud\alicloud\src\services\dev_bind\os/os.h ****  *
  76:..\..\..\..\cloud\alicloud\src\services\dev_bind\os/os.h ****  * @param[in] data @n Data to be converted.
  77:..\..\..\..\cloud\alicloud\src\services\dev_bind\os/os.h ****  * @return Conversion result.
  78:..\..\..\..\cloud\alicloud\src\services\dev_bind\os/os.h ****  * @see None.
  79:..\..\..\..\cloud\alicloud\src\services\dev_bind\os/os.h ****  * @note None.
  80:..\..\..\..\cloud\alicloud\src\services\dev_bind\os/os.h ****  */
  81:..\..\..\..\cloud\alicloud\src\services\dev_bind\os/os.h **** uint16_t os_htole16(uint16_t data);
  82:..\..\..\..\cloud\alicloud\src\services\dev_bind\os/os.h **** 
  83:..\..\..\..\cloud\alicloud\src\services\dev_bind\os/os.h **** /**
  84:..\..\..\..\cloud\alicloud\src\services\dev_bind\os/os.h ****  * @brief Convert the data from big-endian to host.
  85:..\..\..\..\cloud\alicloud\src\services\dev_bind\os/os.h ****    The size of the data is 16 bits.
  86:..\..\..\..\cloud\alicloud\src\services\dev_bind\os/os.h ****  *
  87:..\..\..\..\cloud\alicloud\src\services\dev_bind\os/os.h ****  * @param[in] data @n Data to be converted.
  88:..\..\..\..\cloud\alicloud\src\services\dev_bind\os/os.h ****  * @return Conversion result.
  89:..\..\..\..\cloud\alicloud\src\services\dev_bind\os/os.h ****  * @see None.
  90:..\..\..\..\cloud\alicloud\src\services\dev_bind\os/os.h ****  * @note None.
  91:..\..\..\..\cloud\alicloud\src\services\dev_bind\os/os.h ****  */
  92:..\..\..\..\cloud\alicloud\src\services\dev_bind\os/os.h **** uint16_t os_be16toh(uint16_t data);
  93:..\..\..\..\cloud\alicloud\src\services\dev_bind\os/os.h **** 
  94:..\..\..\..\cloud\alicloud\src\services\dev_bind\os/os.h **** /**
  95:..\..\..\..\cloud\alicloud\src\services\dev_bind\os/os.h ****  * @brief Convert the data from little-endian to host.
  96:..\..\..\..\cloud\alicloud\src\services\dev_bind\os/os.h ****    The size of the data is 16 bits.
  97:..\..\..\..\cloud\alicloud\src\services\dev_bind\os/os.h ****  *
  98:..\..\..\..\cloud\alicloud\src\services\dev_bind\os/os.h ****  * @param[in] data @n Data to be converted.
  99:..\..\..\..\cloud\alicloud\src\services\dev_bind\os/os.h ****  * @return Conversion result.
 100:..\..\..\..\cloud\alicloud\src\services\dev_bind\os/os.h ****  * @see None.
 101:..\..\..\..\cloud\alicloud\src\services\dev_bind\os/os.h ****  * @note None.
 102:..\..\..\..\cloud\alicloud\src\services\dev_bind\os/os.h ****  */
 103:..\..\..\..\cloud\alicloud\src\services\dev_bind\os/os.h **** uint16_t os_le16toh(uint16_t data);
 104:..\..\..\..\cloud\alicloud\src\services\dev_bind\os/os.h **** 
 105:..\..\..\..\cloud\alicloud\src\services\dev_bind\os/os.h **** /**
 106:..\..\..\..\cloud\alicloud\src\services\dev_bind\os/os.h ****  * @brief Convert the data from little-endian to host.
 107:..\..\..\..\cloud\alicloud\src\services\dev_bind\os/os.h ****    The size of the data is 32 bits.
 108:..\..\..\..\cloud\alicloud\src\services\dev_bind\os/os.h ****  *
 109:..\..\..\..\cloud\alicloud\src\services\dev_bind\os/os.h ****  * @param[in] data @n Data to be converted.
 110:..\..\..\..\cloud\alicloud\src\services\dev_bind\os/os.h ****  * @return Conversion result.
 111:..\..\..\..\cloud\alicloud\src\services\dev_bind\os/os.h ****  * @see None.
 112:..\..\..\..\cloud\alicloud\src\services\dev_bind\os/os.h ****  * @note None.
 113:..\..\..\..\cloud\alicloud\src\services\dev_bind\os/os.h ****  */
 114:..\..\..\..\cloud\alicloud\src\services\dev_bind\os/os.h **** uint32_t os_le32toh(uint32_t data);
 115:..\..\..\..\cloud\alicloud\src\services\dev_bind\os/os.h **** 
 116:..\..\..\..\cloud\alicloud\src\services\dev_bind\os/os.h **** /**
 117:..\..\..\..\cloud\alicloud\src\services\dev_bind\os/os.h ****  * @brief Convert the data from host to big-endian.
 118:..\..\..\..\cloud\alicloud\src\services\dev_bind\os/os.h ****    The size of the data is 64 bits.
 119:..\..\..\..\cloud\alicloud\src\services\dev_bind\os/os.h ****  *
 120:..\..\..\..\cloud\alicloud\src\services\dev_bind\os/os.h ****  * @param[in] data @n Data to be converted.
 121:..\..\..\..\cloud\alicloud\src\services\dev_bind\os/os.h ****  * @return Conversion result.
 122:..\..\..\..\cloud\alicloud\src\services\dev_bind\os/os.h ****  * @see None.
 123:..\..\..\..\cloud\alicloud\src\services\dev_bind\os/os.h ****  * @note None.
 124:..\..\..\..\cloud\alicloud\src\services\dev_bind\os/os.h ****  */
 125:..\..\..\..\cloud\alicloud\src\services\dev_bind\os/os.h **** //uint64_t os_htobe64(uint64_t data);
 126:..\..\..\..\cloud\alicloud\src\services\dev_bind\os/os.h **** 
 127:..\..\..\..\cloud\alicloud\src\services\dev_bind\os/os.h **** /**
 128:..\..\..\..\cloud\alicloud\src\services\dev_bind\os/os.h ****  * @brief Convert the data from host to little-endian.
 129:..\..\..\..\cloud\alicloud\src\services\dev_bind\os/os.h ****    The size of the data is 64 bits.
 130:..\..\..\..\cloud\alicloud\src\services\dev_bind\os/os.h ****  *
 131:..\..\..\..\cloud\alicloud\src\services\dev_bind\os/os.h ****  * @param[in] data @n Data to be converted.
 132:..\..\..\..\cloud\alicloud\src\services\dev_bind\os/os.h ****  * @return Conversion result.
 133:..\..\..\..\cloud\alicloud\src\services\dev_bind\os/os.h ****  * @see None.
 134:..\..\..\..\cloud\alicloud\src\services\dev_bind\os/os.h ****  * @note None.
 135:..\..\..\..\cloud\alicloud\src\services\dev_bind\os/os.h ****  */
 136:..\..\..\..\cloud\alicloud\src\services\dev_bind\os/os.h **** //uint64_t os_htole64(uint64_t data);
 137:..\..\..\..\cloud\alicloud\src\services\dev_bind\os/os.h **** 
 138:..\..\..\..\cloud\alicloud\src\services\dev_bind\os/os.h **** /**
 139:..\..\..\..\cloud\alicloud\src\services\dev_bind\os/os.h ****  * @brief Convert the data from big-endian to host.
 140:..\..\..\..\cloud\alicloud\src\services\dev_bind\os/os.h ****    The size of the data is 64 bits.
 141:..\..\..\..\cloud\alicloud\src\services\dev_bind\os/os.h ****  *
 142:..\..\..\..\cloud\alicloud\src\services\dev_bind\os/os.h ****  * @param[in] data @n Data to be converted.
 143:..\..\..\..\cloud\alicloud\src\services\dev_bind\os/os.h ****  * @return Conversion result.
 144:..\..\..\..\cloud\alicloud\src\services\dev_bind\os/os.h ****  * @see None.
 145:..\..\..\..\cloud\alicloud\src\services\dev_bind\os/os.h ****  * @note None.
 146:..\..\..\..\cloud\alicloud\src\services\dev_bind\os/os.h ****  */
 147:..\..\..\..\cloud\alicloud\src\services\dev_bind\os/os.h **** //uint64_t os_be64toh(uint64_t data);
 148:..\..\..\..\cloud\alicloud\src\services\dev_bind\os/os.h **** 
 149:..\..\..\..\cloud\alicloud\src\services\dev_bind\os/os.h **** /**
 150:..\..\..\..\cloud\alicloud\src\services\dev_bind\os/os.h ****  * @brief Convert the data from little-endian to host.
 151:..\..\..\..\cloud\alicloud\src\services\dev_bind\os/os.h ****    The size of the data is 64 bits.
 152:..\..\..\..\cloud\alicloud\src\services\dev_bind\os/os.h ****  *
 153:..\..\..\..\cloud\alicloud\src\services\dev_bind\os/os.h ****  * @param[in] data @n Data to be converted.
 154:..\..\..\..\cloud\alicloud\src\services\dev_bind\os/os.h ****  * @return Conversion result.
 155:..\..\..\..\cloud\alicloud\src\services\dev_bind\os/os.h ****  * @see None.
 156:..\..\..\..\cloud\alicloud\src\services\dev_bind\os/os.h ****  * @note None.
 157:..\..\..\..\cloud\alicloud\src\services\dev_bind\os/os.h ****  */
 158:..\..\..\..\cloud\alicloud\src\services\dev_bind\os/os.h **** //uint64_t os_le64toh(uint64_t data);
 159:..\..\..\..\cloud\alicloud\src\services\dev_bind\os/os.h **** 
 160:..\..\..\..\cloud\alicloud\src\services\dev_bind\os/os.h **** /**
 161:..\..\..\..\cloud\alicloud\src\services\dev_bind\os/os.h ****  * @brief Get unaligned 16 bits data which is big-endian and convert to host byte order.
 162:..\..\..\..\cloud\alicloud\src\services\dev_bind\os/os.h ****  *
 163:..\..\..\..\cloud\alicloud\src\services\dev_bind\os/os.h ****  * @param[in] ptr @n The start address of the unaligned data.
 164:..\..\..\..\cloud\alicloud\src\services\dev_bind\os/os.h ****  * @return Result in host byte order.
 165:..\..\..\..\cloud\alicloud\src\services\dev_bind\os/os.h ****  * @see None.
 166:..\..\..\..\cloud\alicloud\src\services\dev_bind\os/os.h ****  * @note None.
 167:..\..\..\..\cloud\alicloud\src\services\dev_bind\os/os.h ****  */
 168:..\..\..\..\cloud\alicloud\src\services\dev_bind\os/os.h **** uint16_t os_get_unaligned_be16(uint8_t *ptr);
 169:..\..\..\..\cloud\alicloud\src\services\dev_bind\os/os.h **** 
 170:..\..\..\..\cloud\alicloud\src\services\dev_bind\os/os.h **** /**
 171:..\..\..\..\cloud\alicloud\src\services\dev_bind\os/os.h ****  * @brief Get unaligned 16 bits data which is little-endian and convert to host byte order.
 172:..\..\..\..\cloud\alicloud\src\services\dev_bind\os/os.h ****  *
 173:..\..\..\..\cloud\alicloud\src\services\dev_bind\os/os.h ****  * @param[in] ptr @n The start address of the unaligned data.
 174:..\..\..\..\cloud\alicloud\src\services\dev_bind\os/os.h ****  * @return Result in host byte order.
 175:..\..\..\..\cloud\alicloud\src\services\dev_bind\os/os.h ****  * @see None.
 176:..\..\..\..\cloud\alicloud\src\services\dev_bind\os/os.h ****  * @note None.
 177:..\..\..\..\cloud\alicloud\src\services\dev_bind\os/os.h ****  */
 178:..\..\..\..\cloud\alicloud\src\services\dev_bind\os/os.h **** uint16_t os_get_unaligned_le16(uint8_t *ptr);
 179:..\..\..\..\cloud\alicloud\src\services\dev_bind\os/os.h **** 
 180:..\..\..\..\cloud\alicloud\src\services\dev_bind\os/os.h **** /**
 181:..\..\..\..\cloud\alicloud\src\services\dev_bind\os/os.h ****  * @brief Get unaligned 32 bits data which is big-endian and convert to host byte order.
 182:..\..\..\..\cloud\alicloud\src\services\dev_bind\os/os.h ****  *
 183:..\..\..\..\cloud\alicloud\src\services\dev_bind\os/os.h ****  * @param[in] ptr @n The start address of the unaligned data.
 184:..\..\..\..\cloud\alicloud\src\services\dev_bind\os/os.h ****  * @return Result in host byte order.
 185:..\..\..\..\cloud\alicloud\src\services\dev_bind\os/os.h ****  * @see None.
 186:..\..\..\..\cloud\alicloud\src\services\dev_bind\os/os.h ****  * @note None.
 187:..\..\..\..\cloud\alicloud\src\services\dev_bind\os/os.h ****  */
 188:..\..\..\..\cloud\alicloud\src\services\dev_bind\os/os.h **** uint32_t os_get_unaligned_be32(uint8_t *ptr);
 189:..\..\..\..\cloud\alicloud\src\services\dev_bind\os/os.h **** 
 190:..\..\..\..\cloud\alicloud\src\services\dev_bind\os/os.h **** /**
 191:..\..\..\..\cloud\alicloud\src\services\dev_bind\os/os.h ****  * @brief Get unaligned 32 bits data which is little-endian and convert to host byte order.
 192:..\..\..\..\cloud\alicloud\src\services\dev_bind\os/os.h ****  *
 193:..\..\..\..\cloud\alicloud\src\services\dev_bind\os/os.h ****  * @param[in] ptr @n The start address of the unaligned data.
 194:..\..\..\..\cloud\alicloud\src\services\dev_bind\os/os.h ****  * @return Result in host byte order.
 195:..\..\..\..\cloud\alicloud\src\services\dev_bind\os/os.h ****  * @see None.
 196:..\..\..\..\cloud\alicloud\src\services\dev_bind\os/os.h ****  * @note None.
 197:..\..\..\..\cloud\alicloud\src\services\dev_bind\os/os.h ****  */
 198:..\..\..\..\cloud\alicloud\src\services\dev_bind\os/os.h **** uint32_t os_get_unaligned_le32(uint8_t *ptr);
 199:..\..\..\..\cloud\alicloud\src\services\dev_bind\os/os.h **** 
 200:..\..\..\..\cloud\alicloud\src\services\dev_bind\os/os.h **** /**
 201:..\..\..\..\cloud\alicloud\src\services\dev_bind\os/os.h ****  * @brief sleep thread itself.
 202:..\..\..\..\cloud\alicloud\src\services\dev_bind\os/os.h ****  *
 203:..\..\..\..\cloud\alicloud\src\services\dev_bind\os/os.h ****  * @param[in] ms @n the time interval for which execution is to be suspended, in milliseconds.
 204:..\..\..\..\cloud\alicloud\src\services\dev_bind\os/os.h ****  * @return None.
 205:..\..\..\..\cloud\alicloud\src\services\dev_bind\os/os.h ****  * @see None.
 206:..\..\..\..\cloud\alicloud\src\services\dev_bind\os/os.h ****  * @note None.
 207:..\..\..\..\cloud\alicloud\src\services\dev_bind\os/os.h ****  */
 208:..\..\..\..\cloud\alicloud\src\services\dev_bind\os/os.h **** static inline void os_msleep(_IN_ uint32_t ms)
 209:..\..\..\..\cloud\alicloud\src\services\dev_bind\os/os.h **** {
 210:..\..\..\..\cloud\alicloud\src\services\dev_bind\os/os.h ****     platform_msleep(ms);
 211:..\..\..\..\cloud\alicloud\src\services\dev_bind\os/os.h **** }
 212:..\..\..\..\cloud\alicloud\src\services\dev_bind\os/os.h **** 
 213:..\..\..\..\cloud\alicloud\src\services\dev_bind\os/os.h **** /**
 214:..\..\..\..\cloud\alicloud\src\services\dev_bind\os/os.h ****  * @brief sleep thread itself.
 215:..\..\..\..\cloud\alicloud\src\services\dev_bind\os/os.h ****  *
 216:..\..\..\..\cloud\alicloud\src\services\dev_bind\os/os.h ****  * @param[in] sec @n the time interval for which execution is to be suspended, in seconds.
 217:..\..\..\..\cloud\alicloud\src\services\dev_bind\os/os.h ****  * @return None.
 218:..\..\..\..\cloud\alicloud\src\services\dev_bind\os/os.h ****  * @see None.
 219:..\..\..\..\cloud\alicloud\src\services\dev_bind\os/os.h ****  * @note None.
 220:..\..\..\..\cloud\alicloud\src\services\dev_bind\os/os.h ****  */
 221:..\..\..\..\cloud\alicloud\src\services\dev_bind\os/os.h **** static inline void os_sleep(_IN_ uint32_t sec)
 222:..\..\..\..\cloud\alicloud\src\services\dev_bind\os/os.h **** {
 223:..\..\..\..\cloud\alicloud\src\services\dev_bind\os/os.h ****     platform_msleep(sec * 1000);
 224:..\..\..\..\cloud\alicloud\src\services\dev_bind\os/os.h **** }
 225:..\..\..\..\cloud\alicloud\src\services\dev_bind\os/os.h **** 
 226:..\..\..\..\cloud\alicloud\src\services\dev_bind\os/os.h **** /**
 227:..\..\..\..\cloud\alicloud\src\services\dev_bind\os/os.h ****  * @brief system reboot immediately.
 228:..\..\..\..\cloud\alicloud\src\services\dev_bind\os/os.h ****  *
 229:..\..\..\..\cloud\alicloud\src\services\dev_bind\os/os.h ****  * @return None.
 230:..\..\..\..\cloud\alicloud\src\services\dev_bind\os/os.h ****  * @see None.
 231:..\..\..\..\cloud\alicloud\src\services\dev_bind\os/os.h ****  * @note None.
 232:..\..\..\..\cloud\alicloud\src\services\dev_bind\os/os.h ****  */
 233:..\..\..\..\cloud\alicloud\src\services\dev_bind\os/os.h **** static inline void os_reboot()
 234:..\..\..\..\cloud\alicloud\src\services\dev_bind\os/os.h **** {
 235:..\..\..\..\cloud\alicloud\src\services\dev_bind\os/os.h ****     platform_reboot();
 236:..\..\..\..\cloud\alicloud\src\services\dev_bind\os/os.h **** }
 237:..\..\..\..\cloud\alicloud\src\services\dev_bind\os/os.h **** 
 238:..\..\..\..\cloud\alicloud\src\services\dev_bind\os/os.h **** /** @} *///end of os_misc
 239:..\..\..\..\cloud\alicloud\src\services\dev_bind\os/os.h **** 
 240:..\..\..\..\cloud\alicloud\src\services\dev_bind\os/os.h **** /***************************************** mutex Interface ****************************************
 241:..\..\..\..\cloud\alicloud\src\services\dev_bind\os/os.h **** 
 242:..\..\..\..\cloud\alicloud\src\services\dev_bind\os/os.h **** /** @defgroup group_os_mutex mutex
 243:..\..\..\..\cloud\alicloud\src\services\dev_bind\os/os.h ****  *  @{
 244:..\..\..\..\cloud\alicloud\src\services\dev_bind\os/os.h ****  */
 245:..\..\..\..\cloud\alicloud\src\services\dev_bind\os/os.h **** 
 246:..\..\..\..\cloud\alicloud\src\services\dev_bind\os/os.h **** /**
 247:..\..\..\..\cloud\alicloud\src\services\dev_bind\os/os.h ****  * @brief Create a mutex.
 248:..\..\..\..\cloud\alicloud\src\services\dev_bind\os/os.h ****  *
 249:..\..\..\..\cloud\alicloud\src\services\dev_bind\os/os.h ****  * @return Mutex handle.
 250:..\..\..\..\cloud\alicloud\src\services\dev_bind\os/os.h ****  * @see None.
 251:..\..\..\..\cloud\alicloud\src\services\dev_bind\os/os.h ****  * @note None.
 252:..\..\..\..\cloud\alicloud\src\services\dev_bind\os/os.h ****  */
 253:..\..\..\..\cloud\alicloud\src\services\dev_bind\os/os.h **** static inline void *os_mutex_init(void)
 254:..\..\..\..\cloud\alicloud\src\services\dev_bind\os/os.h **** {
 255:..\..\..\..\cloud\alicloud\src\services\dev_bind\os/os.h ****     return platform_mutex_init();
 256:..\..\..\..\cloud\alicloud\src\services\dev_bind\os/os.h **** }
 257:..\..\..\..\cloud\alicloud\src\services\dev_bind\os/os.h **** 
 258:..\..\..\..\cloud\alicloud\src\services\dev_bind\os/os.h **** /**
 259:..\..\..\..\cloud\alicloud\src\services\dev_bind\os/os.h ****  * @brief Destroy the specified mutex object, it will free related resource.
 260:..\..\..\..\cloud\alicloud\src\services\dev_bind\os/os.h ****  *
 261:..\..\..\..\cloud\alicloud\src\services\dev_bind\os/os.h ****  * @param[in] mutex @n The specified mutex.
 262:..\..\..\..\cloud\alicloud\src\services\dev_bind\os/os.h ****  * @return None.
 263:..\..\..\..\cloud\alicloud\src\services\dev_bind\os/os.h ****  * @see None.
 264:..\..\..\..\cloud\alicloud\src\services\dev_bind\os/os.h ****  * @note None.
 265:..\..\..\..\cloud\alicloud\src\services\dev_bind\os/os.h ****  */
 266:..\..\..\..\cloud\alicloud\src\services\dev_bind\os/os.h **** static inline void os_mutex_destroy(_IN_ void *mutex)
 267:..\..\..\..\cloud\alicloud\src\services\dev_bind\os/os.h **** {
 268:..\..\..\..\cloud\alicloud\src\services\dev_bind\os/os.h ****     platform_mutex_destroy(mutex);
 269:..\..\..\..\cloud\alicloud\src\services\dev_bind\os/os.h **** }
 270:..\..\..\..\cloud\alicloud\src\services\dev_bind\os/os.h **** 
 271:..\..\..\..\cloud\alicloud\src\services\dev_bind\os/os.h **** /**
 272:..\..\..\..\cloud\alicloud\src\services\dev_bind\os/os.h ****  * @brief Waits until the specified mutex is in the signaled state.
 273:..\..\..\..\cloud\alicloud\src\services\dev_bind\os/os.h ****  *
 274:..\..\..\..\cloud\alicloud\src\services\dev_bind\os/os.h ****  * @param[in] mutex @n the specified mutex.
 275:..\..\..\..\cloud\alicloud\src\services\dev_bind\os/os.h ****  * @return None.
 276:..\..\..\..\cloud\alicloud\src\services\dev_bind\os/os.h ****  * @see None.
 277:..\..\..\..\cloud\alicloud\src\services\dev_bind\os/os.h ****  * @note None.
 278:..\..\..\..\cloud\alicloud\src\services\dev_bind\os/os.h ****  */
 279:..\..\..\..\cloud\alicloud\src\services\dev_bind\os/os.h **** static inline void os_mutex_lock(_IN_ void *mutex)
 280:..\..\..\..\cloud\alicloud\src\services\dev_bind\os/os.h **** {
 281:..\..\..\..\cloud\alicloud\src\services\dev_bind\os/os.h ****     platform_mutex_lock(mutex);
 282:..\..\..\..\cloud\alicloud\src\services\dev_bind\os/os.h **** }
 283:..\..\..\..\cloud\alicloud\src\services\dev_bind\os/os.h **** 
 284:..\..\..\..\cloud\alicloud\src\services\dev_bind\os/os.h **** /**
 285:..\..\..\..\cloud\alicloud\src\services\dev_bind\os/os.h ****  * @brief Releases ownership of the specified mutex object..
 286:..\..\..\..\cloud\alicloud\src\services\dev_bind\os/os.h ****  *
 287:..\..\..\..\cloud\alicloud\src\services\dev_bind\os/os.h ****  * @param[in] mutex @n the specified mutex.
 288:..\..\..\..\cloud\alicloud\src\services\dev_bind\os/os.h ****  * @return None.
 289:..\..\..\..\cloud\alicloud\src\services\dev_bind\os/os.h ****  * @see None.
 290:..\..\..\..\cloud\alicloud\src\services\dev_bind\os/os.h ****  * @note None.
 291:..\..\..\..\cloud\alicloud\src\services\dev_bind\os/os.h ****  */
 292:..\..\..\..\cloud\alicloud\src\services\dev_bind\os/os.h **** static inline void os_mutex_unlock(_IN_ void *mutex)
 293:..\..\..\..\cloud\alicloud\src\services\dev_bind\os/os.h **** {
 294:..\..\..\..\cloud\alicloud\src\services\dev_bind\os/os.h ****     platform_mutex_unlock(mutex);
 295:..\..\..\..\cloud\alicloud\src\services\dev_bind\os/os.h **** }
 296:..\..\..\..\cloud\alicloud\src\services\dev_bind\os/os.h **** 
 297:..\..\..\..\cloud\alicloud\src\services\dev_bind\os/os.h **** /** @} */// end of os_mutex
 298:..\..\..\..\cloud\alicloud\src\services\dev_bind\os/os.h **** 
 299:..\..\..\..\cloud\alicloud\src\services\dev_bind\os/os.h **** /*************************************** semaphore Interface **************************************
 300:..\..\..\..\cloud\alicloud\src\services\dev_bind\os/os.h **** 
 301:..\..\..\..\cloud\alicloud\src\services\dev_bind\os/os.h **** /** @defgroup group_os_semaphore semaphore
 302:..\..\..\..\cloud\alicloud\src\services\dev_bind\os/os.h ****  *  @{
 303:..\..\..\..\cloud\alicloud\src\services\dev_bind\os/os.h ****  */
 304:..\..\..\..\cloud\alicloud\src\services\dev_bind\os/os.h **** 
 305:..\..\..\..\cloud\alicloud\src\services\dev_bind\os/os.h **** /**
 306:..\..\..\..\cloud\alicloud\src\services\dev_bind\os/os.h ****  * @brief Create a semaphore.
 307:..\..\..\..\cloud\alicloud\src\services\dev_bind\os/os.h ****  *
 308:..\..\..\..\cloud\alicloud\src\services\dev_bind\os/os.h ****  * @return semaphore handle.
 309:..\..\..\..\cloud\alicloud\src\services\dev_bind\os/os.h ****  * @see None.
 310:..\..\..\..\cloud\alicloud\src\services\dev_bind\os/os.h ****  * @note The recommended value of maximum count of the semaphore is 255.
 311:..\..\..\..\cloud\alicloud\src\services\dev_bind\os/os.h ****  */
 312:..\..\..\..\cloud\alicloud\src\services\dev_bind\os/os.h **** static inline void *os_semaphore_init(void)
 313:..\..\..\..\cloud\alicloud\src\services\dev_bind\os/os.h **** {
 314:..\..\..\..\cloud\alicloud\src\services\dev_bind\os/os.h ****     return platform_semaphore_init();
 315:..\..\..\..\cloud\alicloud\src\services\dev_bind\os/os.h **** }
 316:..\..\..\..\cloud\alicloud\src\services\dev_bind\os/os.h **** 
 317:..\..\..\..\cloud\alicloud\src\services\dev_bind\os/os.h **** /**
 318:..\..\..\..\cloud\alicloud\src\services\dev_bind\os/os.h ****  * @brief Destroy the specified semaphore object, it will free related resource.
 319:..\..\..\..\cloud\alicloud\src\services\dev_bind\os/os.h ****  *
 320:..\..\..\..\cloud\alicloud\src\services\dev_bind\os/os.h ****  * @param[in] sem @n the specified sem.
 321:..\..\..\..\cloud\alicloud\src\services\dev_bind\os/os.h ****  * @return None.
 322:..\..\..\..\cloud\alicloud\src\services\dev_bind\os/os.h ****  * @see None.
 323:..\..\..\..\cloud\alicloud\src\services\dev_bind\os/os.h ****  * @note None.
 324:..\..\..\..\cloud\alicloud\src\services\dev_bind\os/os.h ****  */
 325:..\..\..\..\cloud\alicloud\src\services\dev_bind\os/os.h **** static inline void os_semaphore_destroy(_IN_ void *sem)
 326:..\..\..\..\cloud\alicloud\src\services\dev_bind\os/os.h **** {
 327:..\..\..\..\cloud\alicloud\src\services\dev_bind\os/os.h ****     platform_semaphore_destroy(sem);
 328:..\..\..\..\cloud\alicloud\src\services\dev_bind\os/os.h **** }
 329:..\..\..\..\cloud\alicloud\src\services\dev_bind\os/os.h **** 
 330:..\..\..\..\cloud\alicloud\src\services\dev_bind\os/os.h **** /**
 331:..\..\..\..\cloud\alicloud\src\services\dev_bind\os/os.h ****  * @brief Wait until the specified mutex is in the signaled state or the time-out interval elapses.
 332:..\..\..\..\cloud\alicloud\src\services\dev_bind\os/os.h ****  *
 333:..\..\..\..\cloud\alicloud\src\services\dev_bind\os/os.h ****  * @param[in] sem @n the specified semaphore.
 334:..\..\..\..\cloud\alicloud\src\services\dev_bind\os/os.h ****  * @param[in] timeout_ms @n timeout interval in millisecond.
 335:..\..\..\..\cloud\alicloud\src\services\dev_bind\os/os.h ****      If timeout_ms is OS_WAIT_INFINITE, the function will return only when the semaphore is signale
 336:..\..\..\..\cloud\alicloud\src\services\dev_bind\os/os.h ****  * @return
 337:..\..\..\..\cloud\alicloud\src\services\dev_bind\os/os.h ****    @verbatim
 338:..\..\..\..\cloud\alicloud\src\services\dev_bind\os/os.h ****    =  0: The state of the specified object is signaled.
 339:..\..\..\..\cloud\alicloud\src\services\dev_bind\os/os.h ****    =  -1: The time-out interval elapsed, and the object's state is nonsignaled.
 340:..\..\..\..\cloud\alicloud\src\services\dev_bind\os/os.h ****    @endverbatim
 341:..\..\..\..\cloud\alicloud\src\services\dev_bind\os/os.h ****  * @see None.
 342:..\..\..\..\cloud\alicloud\src\services\dev_bind\os/os.h ****  * @note None.
 343:..\..\..\..\cloud\alicloud\src\services\dev_bind\os/os.h ****  */
 344:..\..\..\..\cloud\alicloud\src\services\dev_bind\os/os.h **** static inline int os_semaphore_wait(_IN_ void *sem, _IN_ uint32_t timeout_ms)
 345:..\..\..\..\cloud\alicloud\src\services\dev_bind\os/os.h **** {
 346:..\..\..\..\cloud\alicloud\src\services\dev_bind\os/os.h ****     return platform_semaphore_wait(sem, timeout_ms);
 347:..\..\..\..\cloud\alicloud\src\services\dev_bind\os/os.h **** }
 348:..\..\..\..\cloud\alicloud\src\services\dev_bind\os/os.h **** 
 349:..\..\..\..\cloud\alicloud\src\services\dev_bind\os/os.h **** /**
 350:..\..\..\..\cloud\alicloud\src\services\dev_bind\os/os.h ****  * @brief Increases the count of the specified semaphore object by 1.
 351:..\..\..\..\cloud\alicloud\src\services\dev_bind\os/os.h ****  *
 352:..\..\..\..\cloud\alicloud\src\services\dev_bind\os/os.h ****  * @param[in] sem @n the specified semaphore.
 353:..\..\..\..\cloud\alicloud\src\services\dev_bind\os/os.h ****  * @return None.
 354:..\..\..\..\cloud\alicloud\src\services\dev_bind\os/os.h ****  * @see None.
 355:..\..\..\..\cloud\alicloud\src\services\dev_bind\os/os.h ****  * @note None.
 356:..\..\..\..\cloud\alicloud\src\services\dev_bind\os/os.h ****  */
 357:..\..\..\..\cloud\alicloud\src\services\dev_bind\os/os.h **** static inline void os_semaphore_post(_IN_ void *sem)
 358:..\..\..\..\cloud\alicloud\src\services\dev_bind\os/os.h **** {
 359:..\..\..\..\cloud\alicloud\src\services\dev_bind\os/os.h ****     platform_semaphore_post(sem);
 360:..\..\..\..\cloud\alicloud\src\services\dev_bind\os/os.h **** }
 361:..\..\..\..\cloud\alicloud\src\services\dev_bind\os/os.h **** 
 362:..\..\..\..\cloud\alicloud\src\services\dev_bind\os/os.h **** /** @} */// end of os_semaphore
 363:..\..\..\..\cloud\alicloud\src\services\dev_bind\os/os.h **** 
 364:..\..\..\..\cloud\alicloud\src\services\dev_bind\os/os.h **** /**************************************** memory Interface ****************************************
 365:..\..\..\..\cloud\alicloud\src\services\dev_bind\os/os.h **** 
 366:..\..\..\..\cloud\alicloud\src\services\dev_bind\os/os.h **** /** @defgroup group_os_memory_manage memory
 367:..\..\..\..\cloud\alicloud\src\services\dev_bind\os/os.h ****  *  @{
 368:..\..\..\..\cloud\alicloud\src\services\dev_bind\os/os.h ****  */
 369:..\..\..\..\cloud\alicloud\src\services\dev_bind\os/os.h **** 
 370:..\..\..\..\cloud\alicloud\src\services\dev_bind\os/os.h **** /**
 371:..\..\..\..\cloud\alicloud\src\services\dev_bind\os/os.h ****  * @brief Allocates a block of size bytes of memory, returning a pointer to the beginning of the bl
 372:..\..\..\..\cloud\alicloud\src\services\dev_bind\os/os.h ****  *
 373:..\..\..\..\cloud\alicloud\src\services\dev_bind\os/os.h ****  * @param[in] size @n specify block size in bytes.
 374:..\..\..\..\cloud\alicloud\src\services\dev_bind\os/os.h ****  * @return A pointer to the beginning of the block.
 375:..\..\..\..\cloud\alicloud\src\services\dev_bind\os/os.h ****  * @see None.
 376:..\..\..\..\cloud\alicloud\src\services\dev_bind\os/os.h ****  * @note Block value is indeterminate.
 377:..\..\..\..\cloud\alicloud\src\services\dev_bind\os/os.h ****  */
 378:..\..\..\..\cloud\alicloud\src\services\dev_bind\os/os.h **** static inline void *os_malloc(_IN_ uint32_t size)
 379:..\..\..\..\cloud\alicloud\src\services\dev_bind\os/os.h **** {
 380:..\..\..\..\cloud\alicloud\src\services\dev_bind\os/os.h ****     return platform_malloc(size);
 263              		.loc 2 380 12 is_stmt 0
 264 0028 3285     		mv	a0,a2
 265              	.LVL24:
 266              	.LBE33:
 267              	.LBE32:
 268              	.LBE31:
 269              	.LBE30:
 270              		.loc 1 94 46
 271 002a 135B3640 		srai	s6,a2,3
 272              	.LBB42:
 273              	.LBB38:
 274              	.LBB36:
 275              	.LBB34:
 276              		.loc 2 380 12
 277 002e 32C6     		sw	a2,12(sp)
 278 0030 97000000 		call	HAL_Malloc
 278      E7800000 
 279              	.LVL25:
 280              	.LBE34:
 281              	.LBE36:
 282              	.LBE38:
 283              	.LBE42:
 284              		.loc 1 94 17
 285 0038 937AFB0F 		andi	s5,s6,0xff
 286              	.LVL26:
  95:C:/Users/stapi/OneDrive/Desktop/GD32VW553/V1_MQTT_OK/GD32VW55X_Wifi_BLE_SDK/GD32VW55x_RELEASE_V1.0.2/MSDK/cloud/alicloud/src/services/awss\zconfig_protocol.c ****         uint8_t *bit = (uint8_t *)os_zalloc(in_len * bits);
 287              		.loc 1 95 9 is_stmt 1
 288              	.LBB43:
 289              	.LBB39:
 381:..\..\..\..\cloud\alicloud\src\services\dev_bind\os/os.h **** }
 382:..\..\..\..\cloud\alicloud\src\services\dev_bind\os/os.h **** 
 383:..\..\..\..\cloud\alicloud\src\services\dev_bind\os/os.h **** 
 384:..\..\..\..\cloud\alicloud\src\services\dev_bind\os/os.h **** /**
 385:..\..\..\..\cloud\alicloud\src\services\dev_bind\os/os.h ****  * @brief Deallocate memory block
 386:..\..\..\..\cloud\alicloud\src\services\dev_bind\os/os.h ****  *
 387:..\..\..\..\cloud\alicloud\src\services\dev_bind\os/os.h ****  * @param[in] ptr @n Pointer to a memory block previously allocated with platform_malloc.
 388:..\..\..\..\cloud\alicloud\src\services\dev_bind\os/os.h ****  * @return None.
 389:..\..\..\..\cloud\alicloud\src\services\dev_bind\os/os.h ****  * @see None.
 390:..\..\..\..\cloud\alicloud\src\services\dev_bind\os/os.h ****  * @note None.
 391:..\..\..\..\cloud\alicloud\src\services\dev_bind\os/os.h ****  */
 392:..\..\..\..\cloud\alicloud\src\services\dev_bind\os/os.h **** static inline void os_free(_IN_ void *ptr)
 393:..\..\..\..\cloud\alicloud\src\services\dev_bind\os/os.h **** {
 394:..\..\..\..\cloud\alicloud\src\services\dev_bind\os/os.h ****     platform_free(ptr);
 395:..\..\..\..\cloud\alicloud\src\services\dev_bind\os/os.h **** }
 396:..\..\..\..\cloud\alicloud\src\services\dev_bind\os/os.h **** 
 397:..\..\..\..\cloud\alicloud\src\services\dev_bind\os/os.h **** /**
 398:..\..\..\..\cloud\alicloud\src\services\dev_bind\os/os.h ****  * @brief Allocates a memory block with memory initialized to 0,
 399:..\..\..\..\cloud\alicloud\src\services\dev_bind\os/os.h ****      returning a pointer to the beginning of the block.
 400:..\..\..\..\cloud\alicloud\src\services\dev_bind\os/os.h ****  *
 401:..\..\..\..\cloud\alicloud\src\services\dev_bind\os/os.h ****  * @param[in] size @n specify block size in bytes.
 402:..\..\..\..\cloud\alicloud\src\services\dev_bind\os/os.h ****  * @return A pointer to the beginning of the block.
 403:..\..\..\..\cloud\alicloud\src\services\dev_bind\os/os.h ****  * @see None.
 404:..\..\..\..\cloud\alicloud\src\services\dev_bind\os/os.h ****  * @note Block value is indeterminate.
 405:..\..\..\..\cloud\alicloud\src\services\dev_bind\os/os.h ****  */
 406:..\..\..\..\cloud\alicloud\src\services\dev_bind\os/os.h **** static inline void *os_zalloc(uint32_t size)
 407:..\..\..\..\cloud\alicloud\src\services\dev_bind\os/os.h **** {
 408:..\..\..\..\cloud\alicloud\src\services\dev_bind\os/os.h ****     void *ptr = os_malloc(size);
 290              		.loc 2 408 5
 291              	.LBB37:
 292              	.LBB35:
 380:..\..\..\..\cloud\alicloud\src\services\dev_bind\os/os.h **** }
 293              		.loc 2 380 5
 380:..\..\..\..\cloud\alicloud\src\services\dev_bind\os/os.h **** }
 294              		.loc 2 380 12 is_stmt 0
 295 003c AA84     		mv	s1,a0
 296              	.LVL27:
 297              	.LBE35:
 298              	.LBE37:
 409:..\..\..\..\cloud\alicloud\src\services\dev_bind\os/os.h ****     if (ptr != NULL) {
 299              		.loc 2 409 5 is_stmt 1
 300              		.loc 2 409 8 is_stmt 0
 301 003e 59CD     		beq	a0,zero,.L20
 410:..\..\..\..\cloud\alicloud\src\services\dev_bind\os/os.h ****         memset(ptr, 0, size);
 302              		.loc 2 410 9 is_stmt 1
 303 0040 3246     		lw	a2,12(sp)
 304 0042 8145     		li	a1,0
 305 0044 97000000 		call	memset
 305      E7800000 
 306              	.LVL28:
 411:..\..\..\..\cloud\alicloud\src\services\dev_bind\os/os.h ****     }
 412:..\..\..\..\cloud\alicloud\src\services\dev_bind\os/os.h ****     return ptr;
 307              		.loc 2 412 5
 308              	.LBE39:
 309              	.LBE43:
  96:C:/Users/stapi/OneDrive/Desktop/GD32VW553/V1_MQTT_OK/GD32VW55X_Wifi_BLE_SDK/GD32VW55x_RELEASE_V1.0.2/MSDK/cloud/alicloud/src/services/awss\zconfig_protocol.c **** 
  97:C:/Users/stapi/OneDrive/Desktop/GD32VW553/V1_MQTT_OK/GD32VW55X_Wifi_BLE_SDK/GD32VW55x_RELEASE_V1.0.2/MSDK/cloud/alicloud/src/services/awss\zconfig_protocol.c ****         if (bit == NULL) {
 310              		.loc 1 97 9
  98:C:/Users/stapi/OneDrive/Desktop/GD32VW553/V1_MQTT_OK/GD32VW55X_Wifi_BLE_SDK/GD32VW55x_RELEASE_V1.0.2/MSDK/cloud/alicloud/src/services/awss\zconfig_protocol.c ****             awss_crit("decode malloc failed!\r\n");
  99:C:/Users/stapi/OneDrive/Desktop/GD32VW553/V1_MQTT_OK/GD32VW55X_Wifi_BLE_SDK/GD32VW55x_RELEASE_V1.0.2/MSDK/cloud/alicloud/src/services/awss\zconfig_protocol.c ****             return;
 100:C:/Users/stapi/OneDrive/Desktop/GD32VW553/V1_MQTT_OK/GD32VW55X_Wifi_BLE_SDK/GD32VW55x_RELEASE_V1.0.2/MSDK/cloud/alicloud/src/services/awss\zconfig_protocol.c ****         }
 101:C:/Users/stapi/OneDrive/Desktop/GD32VW553/V1_MQTT_OK/GD32VW55X_Wifi_BLE_SDK/GD32VW55x_RELEASE_V1.0.2/MSDK/cloud/alicloud/src/services/awss\zconfig_protocol.c **** 
 102:C:/Users/stapi/OneDrive/Desktop/GD32VW553/V1_MQTT_OK/GD32VW55X_Wifi_BLE_SDK/GD32VW55x_RELEASE_V1.0.2/MSDK/cloud/alicloud/src/services/awss\zconfig_protocol.c ****         // char to bit stream
 103:C:/Users/stapi/OneDrive/Desktop/GD32VW553/V1_MQTT_OK/GD32VW55X_Wifi_BLE_SDK/GD32VW55x_RELEASE_V1.0.2/MSDK/cloud/alicloud/src/services/awss\zconfig_protocol.c ****         for (i = 0; i < in_len; i ++) {
 311              		.loc 1 103 21
 312              	.LBB44:
 313              	.LBB40:
 410:..\..\..\..\cloud\alicloud\src\services\dev_bind\os/os.h ****     }
 314              		.loc 2 410 9 is_stmt 0
 315 004c 8146     		li	a3,0
 316 004e 0147     		li	a4,0
 317              	.LVL29:
 318              	.L21:
 319              	.LBE40:
 320              	.LBE44:
 104:C:/Users/stapi/OneDrive/Desktop/GD32VW553/V1_MQTT_OK/GD32VW55X_Wifi_BLE_SDK/GD32VW55x_RELEASE_V1.0.2/MSDK/cloud/alicloud/src/services/awss\zconfig_protocol.c ****             for (j = 0; j < bits; j ++) {
 321              		.loc 1 104 25 is_stmt 1
 322              	.LBE48:
  87:C:/Users/stapi/OneDrive/Desktop/GD32VW553/V1_MQTT_OK/GD32VW55X_Wifi_BLE_SDK/GD32VW55x_RELEASE_V1.0.2/MSDK/cloud/alicloud/src/services/awss\zconfig_protocol.c ****     if (bits == 0 || bits > 7 || in_len == 0) {
 323              		.loc 1 87 1 is_stmt 0
 324 0050 8147     		li	a5,0
 325              	.LBB49:
 105:C:/Users/stapi/OneDrive/Desktop/GD32VW553/V1_MQTT_OK/GD32VW55X_Wifi_BLE_SDK/GD32VW55x_RELEASE_V1.0.2/MSDK/cloud/alicloud/src/services/awss\zconfig_protocol.c ****                 bit[i * bits + j] = (in[i] >> j) & 0x01;
 326              		.loc 1 105 35
 327 0052 3385D400 		add	a0,s1,a3
 328              		.loc 1 105 40
 329 0056 B385EB00 		add	a1,s7,a4
 330              	.LVL30:
 331              	.L22:
 332              		.loc 1 105 17 is_stmt 1 discriminator 3
 333              		.loc 1 105 40 is_stmt 0 discriminator 3
 334 005a 03C60500 		lbu	a2,0(a1)
 335              		.loc 1 105 35 discriminator 3
 336 005e 3308F500 		add	a6,a0,a5
 337              		.loc 1 105 50 discriminator 3
 338 0062 3356F648 		bext	a2,a2,a5
 104:C:/Users/stapi/OneDrive/Desktop/GD32VW553/V1_MQTT_OK/GD32VW55X_Wifi_BLE_SDK/GD32VW55x_RELEASE_V1.0.2/MSDK/cloud/alicloud/src/services/awss\zconfig_protocol.c ****             for (j = 0; j < bits; j ++) {
 339              		.loc 1 104 13 discriminator 3
 340 0066 8507     		addi	a5,a5,1
 341              	.LVL31:
 342              		.loc 1 105 35 discriminator 3
 343 0068 2300C800 		sb	a2,0(a6)
 104:C:/Users/stapi/OneDrive/Desktop/GD32VW553/V1_MQTT_OK/GD32VW55X_Wifi_BLE_SDK/GD32VW55x_RELEASE_V1.0.2/MSDK/cloud/alicloud/src/services/awss\zconfig_protocol.c ****             for (j = 0; j < bits; j ++) {
 344              		.loc 1 104 35 is_stmt 1 discriminator 3
 104:C:/Users/stapi/OneDrive/Desktop/GD32VW553/V1_MQTT_OK/GD32VW55X_Wifi_BLE_SDK/GD32VW55x_RELEASE_V1.0.2/MSDK/cloud/alicloud/src/services/awss\zconfig_protocol.c ****             for (j = 0; j < bits; j ++) {
 345              		.loc 1 104 25 discriminator 3
 104:C:/Users/stapi/OneDrive/Desktop/GD32VW553/V1_MQTT_OK/GD32VW55X_Wifi_BLE_SDK/GD32VW55x_RELEASE_V1.0.2/MSDK/cloud/alicloud/src/services/awss\zconfig_protocol.c ****             for (j = 0; j < bits; j ++) {
 346              		.loc 1 104 13 is_stmt 0 discriminator 3
 347 006c 13F6F70F 		andi	a2,a5,0xff
 348 0070 E36526FF 		bgtu	s2,a2,.L22
 103:C:/Users/stapi/OneDrive/Desktop/GD32VW553/V1_MQTT_OK/GD32VW55X_Wifi_BLE_SDK/GD32VW55x_RELEASE_V1.0.2/MSDK/cloud/alicloud/src/services/awss\zconfig_protocol.c ****             for (j = 0; j < bits; j ++) {
 349              		.loc 1 103 33 is_stmt 1 discriminator 2
 350              	.LVL32:
 103:C:/Users/stapi/OneDrive/Desktop/GD32VW553/V1_MQTT_OK/GD32VW55X_Wifi_BLE_SDK/GD32VW55x_RELEASE_V1.0.2/MSDK/cloud/alicloud/src/services/awss\zconfig_protocol.c ****             for (j = 0; j < bits; j ++) {
 351              		.loc 1 103 21 discriminator 2
 103:C:/Users/stapi/OneDrive/Desktop/GD32VW553/V1_MQTT_OK/GD32VW55X_Wifi_BLE_SDK/GD32VW55x_RELEASE_V1.0.2/MSDK/cloud/alicloud/src/services/awss\zconfig_protocol.c ****             for (j = 0; j < bits; j ++) {
 352              		.loc 1 103 9 is_stmt 0 discriminator 2
 353 0074 0507     		addi	a4,a4,1
 354              	.LVL33:
 355 0076 9377F70F 		andi	a5,a4,0xff
 356 007a CA96     		add	a3,a3,s2
 357 007c E3EA37FD 		bltu	a5,s3,.L21
 106:C:/Users/stapi/OneDrive/Desktop/GD32VW553/V1_MQTT_OK/GD32VW55X_Wifi_BLE_SDK/GD32VW55x_RELEASE_V1.0.2/MSDK/cloud/alicloud/src/services/awss\zconfig_protocol.c ****             }
 107:C:/Users/stapi/OneDrive/Desktop/GD32VW553/V1_MQTT_OK/GD32VW55X_Wifi_BLE_SDK/GD32VW55x_RELEASE_V1.0.2/MSDK/cloud/alicloud/src/services/awss\zconfig_protocol.c ****         }
 108:C:/Users/stapi/OneDrive/Desktop/GD32VW553/V1_MQTT_OK/GD32VW55X_Wifi_BLE_SDK/GD32VW55x_RELEASE_V1.0.2/MSDK/cloud/alicloud/src/services/awss\zconfig_protocol.c **** 
 109:C:/Users/stapi/OneDrive/Desktop/GD32VW553/V1_MQTT_OK/GD32VW55X_Wifi_BLE_SDK/GD32VW55x_RELEASE_V1.0.2/MSDK/cloud/alicloud/src/services/awss\zconfig_protocol.c ****         out[output_len] = '\0'; /* NULL-terminated */
 358              		.loc 1 109 9 is_stmt 1
 359              		.loc 1 109 25 is_stmt 0
 360 0080 229B     		add	s6,s0,s6
 361 0082 23000B00 		sb	zero,0(s6)
 110:C:/Users/stapi/OneDrive/Desktop/GD32VW553/V1_MQTT_OK/GD32VW55X_Wifi_BLE_SDK/GD32VW55x_RELEASE_V1.0.2/MSDK/cloud/alicloud/src/services/awss\zconfig_protocol.c ****         for (i = 0; i < output_len; i++) {
 362              		.loc 1 110 9 is_stmt 1
 363              	.LVL34:
 364 0086 2286     		mv	a2,s0
 365 0088 8146     		li	a3,0
 111:C:/Users/stapi/OneDrive/Desktop/GD32VW553/V1_MQTT_OK/GD32VW55X_Wifi_BLE_SDK/GD32VW55x_RELEASE_V1.0.2/MSDK/cloud/alicloud/src/services/awss\zconfig_protocol.c ****             for (j = 0, out[i] = 0; j < 8; j ++) {
 366              		.loc 1 111 13 is_stmt 0
 367 008a A145     		li	a1,8
 368              	.LVL35:
 369              	.L24:
 110:C:/Users/stapi/OneDrive/Desktop/GD32VW553/V1_MQTT_OK/GD32VW55X_Wifi_BLE_SDK/GD32VW55x_RELEASE_V1.0.2/MSDK/cloud/alicloud/src/services/awss\zconfig_protocol.c ****         for (i = 0; i < output_len; i++) {
 370              		.loc 1 110 21 is_stmt 1 discriminator 1
 110:C:/Users/stapi/OneDrive/Desktop/GD32VW553/V1_MQTT_OK/GD32VW55X_Wifi_BLE_SDK/GD32VW55x_RELEASE_V1.0.2/MSDK/cloud/alicloud/src/services/awss\zconfig_protocol.c ****         for (i = 0; i < output_len; i++) {
 371              		.loc 1 110 9 is_stmt 0 discriminator 1
 372 008c 93F7F60F 		andi	a5,a3,0xff
 373 0090 63E05703 		bgtu	s5,a5,.L26
 112:C:/Users/stapi/OneDrive/Desktop/GD32VW553/V1_MQTT_OK/GD32VW55X_Wifi_BLE_SDK/GD32VW55x_RELEASE_V1.0.2/MSDK/cloud/alicloud/src/services/awss\zconfig_protocol.c ****                 out[i] |= bit[i * 8 + j] << j;
 113:C:/Users/stapi/OneDrive/Desktop/GD32VW553/V1_MQTT_OK/GD32VW55X_Wifi_BLE_SDK/GD32VW55x_RELEASE_V1.0.2/MSDK/cloud/alicloud/src/services/awss\zconfig_protocol.c ****             }
 114:C:/Users/stapi/OneDrive/Desktop/GD32VW553/V1_MQTT_OK/GD32VW55X_Wifi_BLE_SDK/GD32VW55x_RELEASE_V1.0.2/MSDK/cloud/alicloud/src/services/awss\zconfig_protocol.c ****         }
 115:C:/Users/stapi/OneDrive/Desktop/GD32VW553/V1_MQTT_OK/GD32VW55X_Wifi_BLE_SDK/GD32VW55x_RELEASE_V1.0.2/MSDK/cloud/alicloud/src/services/awss\zconfig_protocol.c **** 
 116:C:/Users/stapi/OneDrive/Desktop/GD32VW553/V1_MQTT_OK/GD32VW55X_Wifi_BLE_SDK/GD32VW55x_RELEASE_V1.0.2/MSDK/cloud/alicloud/src/services/awss\zconfig_protocol.c ****         os_free(bit);
 374              		.loc 1 116 9 is_stmt 1
 375              	.LVL36:
 376              	.LBB45:
 377              	.LBB46:
 394:..\..\..\..\cloud\alicloud\src\services\dev_bind\os/os.h **** }
 378              		.loc 2 394 5
 379 0094 2685     		mv	a0,s1
 380 0096 97000000 		call	HAL_Free
 380      E7800000 
 381              	.LVL37:
 382              	.LBE46:
 383              	.LBE45:
 117:C:/Users/stapi/OneDrive/Desktop/GD32VW553/V1_MQTT_OK/GD32VW55X_Wifi_BLE_SDK/GD32VW55x_RELEASE_V1.0.2/MSDK/cloud/alicloud/src/services/awss\zconfig_protocol.c ****         if (out_len) {
 384              		.loc 1 117 9
 385              		.loc 1 117 12 is_stmt 0
 386 009e 63040A00 		beq	s4,zero,.L16
 118:C:/Users/stapi/OneDrive/Desktop/GD32VW553/V1_MQTT_OK/GD32VW55X_Wifi_BLE_SDK/GD32VW55x_RELEASE_V1.0.2/MSDK/cloud/alicloud/src/services/awss\zconfig_protocol.c ****             *out_len = output_len;
 387              		.loc 1 118 13 is_stmt 1
 388              		.loc 1 118 22 is_stmt 0
 389 00a2 23005A01 		sb	s5,0(s4)
 390              	.LBE49:
 119:C:/Users/stapi/OneDrive/Desktop/GD32VW553/V1_MQTT_OK/GD32VW55X_Wifi_BLE_SDK/GD32VW55x_RELEASE_V1.0.2/MSDK/cloud/alicloud/src/services/awss\zconfig_protocol.c ****         }
 120:C:/Users/stapi/OneDrive/Desktop/GD32VW553/V1_MQTT_OK/GD32VW55X_Wifi_BLE_SDK/GD32VW55x_RELEASE_V1.0.2/MSDK/cloud/alicloud/src/services/awss\zconfig_protocol.c ****     } while (0);
 391              		.loc 1 120 13 is_stmt 1
 392              	.LVL38:
 393              	.L16:
 121:C:/Users/stapi/OneDrive/Desktop/GD32VW553/V1_MQTT_OK/GD32VW55X_Wifi_BLE_SDK/GD32VW55x_RELEASE_V1.0.2/MSDK/cloud/alicloud/src/services/awss\zconfig_protocol.c **** }
 394              		.loc 1 121 1 is_stmt 0
 395 00a6 4101     		addi	sp,sp,16
 396              		.cfi_remember_state
 397              		.cfi_def_cfa_offset 0
 398 00a8 17030000 		tail	__riscv_restore_8
 398      67000300 
 399              		.cfi_restore 23
 400              		.cfi_restore 22
 401              		.cfi_restore 21
 402              		.cfi_restore 20
 403              		.cfi_restore 19
 404              		.cfi_restore 18
 405              		.cfi_restore 9
 406              		.cfi_restore 8
 407              		.cfi_restore 1
 408              		.cfi_def_cfa_offset -48
 409              	.LVL39:
 410              	.L26:
 411              		.cfi_restore_state
 412              	.LBB50:
 111:C:/Users/stapi/OneDrive/Desktop/GD32VW553/V1_MQTT_OK/GD32VW55X_Wifi_BLE_SDK/GD32VW55x_RELEASE_V1.0.2/MSDK/cloud/alicloud/src/services/awss\zconfig_protocol.c ****                 out[i] |= bit[i * 8 + j] << j;
 413              		.loc 1 111 13 is_stmt 1
 111:C:/Users/stapi/OneDrive/Desktop/GD32VW553/V1_MQTT_OK/GD32VW55X_Wifi_BLE_SDK/GD32VW55x_RELEASE_V1.0.2/MSDK/cloud/alicloud/src/services/awss\zconfig_protocol.c ****                 out[i] |= bit[i * 8 + j] << j;
 414              		.loc 1 111 32 is_stmt 0
 415 00b0 23000600 		sb	zero,0(a2)
 111:C:/Users/stapi/OneDrive/Desktop/GD32VW553/V1_MQTT_OK/GD32VW55X_Wifi_BLE_SDK/GD32VW55x_RELEASE_V1.0.2/MSDK/cloud/alicloud/src/services/awss\zconfig_protocol.c ****                 out[i] |= bit[i * 8 + j] << j;
 416              		.loc 1 111 37 is_stmt 1
 111:C:/Users/stapi/OneDrive/Desktop/GD32VW553/V1_MQTT_OK/GD32VW55X_Wifi_BLE_SDK/GD32VW55x_RELEASE_V1.0.2/MSDK/cloud/alicloud/src/services/awss\zconfig_protocol.c ****                 out[i] |= bit[i * 8 + j] << j;
 417              		.loc 1 111 32 is_stmt 0
 418 00b4 8147     		li	a5,0
 419 00b6 33E89620 		sh3add	a6,a3,s1
 420              	.LVL40:
 421              	.L25:
 112:C:/Users/stapi/OneDrive/Desktop/GD32VW553/V1_MQTT_OK/GD32VW55X_Wifi_BLE_SDK/GD32VW55x_RELEASE_V1.0.2/MSDK/cloud/alicloud/src/services/awss\zconfig_protocol.c ****             }
 422              		.loc 1 112 17 is_stmt 1 discriminator 3
 112:C:/Users/stapi/OneDrive/Desktop/GD32VW553/V1_MQTT_OK/GD32VW55X_Wifi_BLE_SDK/GD32VW55x_RELEASE_V1.0.2/MSDK/cloud/alicloud/src/services/awss\zconfig_protocol.c ****             }
 423              		.loc 1 112 30 is_stmt 0 discriminator 3
 424 00ba 3307F800 		add	a4,a6,a5
 425 00be 03470700 		lbu	a4,0(a4)
 112:C:/Users/stapi/OneDrive/Desktop/GD32VW553/V1_MQTT_OK/GD32VW55X_Wifi_BLE_SDK/GD32VW55x_RELEASE_V1.0.2/MSDK/cloud/alicloud/src/services/awss\zconfig_protocol.c ****             }
 426              		.loc 1 112 24 discriminator 3
 427 00c2 03450600 		lbu	a0,0(a2)
 112:C:/Users/stapi/OneDrive/Desktop/GD32VW553/V1_MQTT_OK/GD32VW55X_Wifi_BLE_SDK/GD32VW55x_RELEASE_V1.0.2/MSDK/cloud/alicloud/src/services/awss\zconfig_protocol.c ****             }
 428              		.loc 1 112 42 discriminator 3
 429 00c6 3317F700 		sll	a4,a4,a5
 112:C:/Users/stapi/OneDrive/Desktop/GD32VW553/V1_MQTT_OK/GD32VW55X_Wifi_BLE_SDK/GD32VW55x_RELEASE_V1.0.2/MSDK/cloud/alicloud/src/services/awss\zconfig_protocol.c ****             }
 430              		.loc 1 112 24 discriminator 3
 431 00ca 498F     		or	a4,a4,a0
 432 00cc 2300E600 		sb	a4,0(a2)
 111:C:/Users/stapi/OneDrive/Desktop/GD32VW553/V1_MQTT_OK/GD32VW55X_Wifi_BLE_SDK/GD32VW55x_RELEASE_V1.0.2/MSDK/cloud/alicloud/src/services/awss\zconfig_protocol.c ****                 out[i] |= bit[i * 8 + j] << j;
 433              		.loc 1 111 44 is_stmt 1 discriminator 3
 434              	.LVL41:
 111:C:/Users/stapi/OneDrive/Desktop/GD32VW553/V1_MQTT_OK/GD32VW55X_Wifi_BLE_SDK/GD32VW55x_RELEASE_V1.0.2/MSDK/cloud/alicloud/src/services/awss\zconfig_protocol.c ****                 out[i] |= bit[i * 8 + j] << j;
 435              		.loc 1 111 37 discriminator 3
 111:C:/Users/stapi/OneDrive/Desktop/GD32VW553/V1_MQTT_OK/GD32VW55X_Wifi_BLE_SDK/GD32VW55x_RELEASE_V1.0.2/MSDK/cloud/alicloud/src/services/awss\zconfig_protocol.c ****                 out[i] |= bit[i * 8 + j] << j;
 436              		.loc 1 111 13 is_stmt 0 discriminator 3
 437 00d0 8507     		addi	a5,a5,1
 438              	.LVL42:
 439 00d2 E394B7FE 		bne	a5,a1,.L25
 110:C:/Users/stapi/OneDrive/Desktop/GD32VW553/V1_MQTT_OK/GD32VW55X_Wifi_BLE_SDK/GD32VW55x_RELEASE_V1.0.2/MSDK/cloud/alicloud/src/services/awss\zconfig_protocol.c ****             for (j = 0, out[i] = 0; j < 8; j ++) {
 440              		.loc 1 110 37 is_stmt 1 discriminator 2
 441              	.LVL43:
 442 00d6 8506     		addi	a3,a3,1
 443              	.LVL44:
 444 00d8 0506     		addi	a2,a2,1
 445 00da 4DBF     		j	.L24
 446              	.LVL45:
 447              	.L20:
 448              	.LBB47:
 449              	.LBB41:
 450              		.loc 2 412 5
 451              	.LBE41:
 452              	.LBE47:
  97:C:/Users/stapi/OneDrive/Desktop/GD32VW553/V1_MQTT_OK/GD32VW55X_Wifi_BLE_SDK/GD32VW55x_RELEASE_V1.0.2/MSDK/cloud/alicloud/src/services/awss\zconfig_protocol.c ****             awss_crit("decode malloc failed!\r\n");
 453              		.loc 1 97 9
  98:C:/Users/stapi/OneDrive/Desktop/GD32VW553/V1_MQTT_OK/GD32VW55X_Wifi_BLE_SDK/GD32VW55x_RELEASE_V1.0.2/MSDK/cloud/alicloud/src/services/awss\zconfig_protocol.c ****             return;
 454              		.loc 1 98 13
  98:C:/Users/stapi/OneDrive/Desktop/GD32VW553/V1_MQTT_OK/GD32VW55X_Wifi_BLE_SDK/GD32VW55x_RELEASE_V1.0.2/MSDK/cloud/alicloud/src/services/awss\zconfig_protocol.c ****             return;
 455              		.loc 1 98 13
 456 00dc 37050000 		lui	a0,%hi(.LC0)
 457 00e0 13050500 		addi	a0,a0,%lo(.LC0)
 458 00e4 97000000 		call	HAL_Printf
 458      E7800000 
 459              	.LVL46:
  98:C:/Users/stapi/OneDrive/Desktop/GD32VW553/V1_MQTT_OK/GD32VW55X_Wifi_BLE_SDK/GD32VW55x_RELEASE_V1.0.2/MSDK/cloud/alicloud/src/services/awss\zconfig_protocol.c ****             return;
 460              		.loc 1 98 13
 461 00ec 37050000 		lui	a0,%hi(.LC1)
 462 00f0 13050500 		addi	a0,a0,%lo(.LC1)
 463 00f4 97000000 		call	HAL_Printf
 463      E7800000 
 464              	.LVL47:
  98:C:/Users/stapi/OneDrive/Desktop/GD32VW553/V1_MQTT_OK/GD32VW55X_Wifi_BLE_SDK/GD32VW55x_RELEASE_V1.0.2/MSDK/cloud/alicloud/src/services/awss\zconfig_protocol.c ****             return;
 465              		.loc 1 98 13
 466 00fc 37050000 		lui	a0,%hi(.LC2)
 467 0100 13050500 		addi	a0,a0,%lo(.LC2)
 468 0104 97000000 		call	HAL_Printf
 468      E7800000 
 469              	.LVL48:
  98:C:/Users/stapi/OneDrive/Desktop/GD32VW553/V1_MQTT_OK/GD32VW55X_Wifi_BLE_SDK/GD32VW55x_RELEASE_V1.0.2/MSDK/cloud/alicloud/src/services/awss\zconfig_protocol.c ****             return;
 470              		.loc 1 98 13
  99:C:/Users/stapi/OneDrive/Desktop/GD32VW553/V1_MQTT_OK/GD32VW55X_Wifi_BLE_SDK/GD32VW55x_RELEASE_V1.0.2/MSDK/cloud/alicloud/src/services/awss\zconfig_protocol.c ****         }
 471              		.loc 1 99 13
 472 010c 69BF     		j	.L16
 473              	.LBE50:
 474              		.cfi_endproc
 475              	.LFE50:
 477              		.section	.text.is_channel_locked,"ax",@progbits
 478              		.align	1
 479              		.globl	is_channel_locked
 481              	is_channel_locked:
 482              	.LFB51:
 122:C:/Users/stapi/OneDrive/Desktop/GD32VW553/V1_MQTT_OK/GD32VW55X_Wifi_BLE_SDK/GD32VW55x_RELEASE_V1.0.2/MSDK/cloud/alicloud/src/services/awss\zconfig_protocol.c **** 
 123:C:/Users/stapi/OneDrive/Desktop/GD32VW553/V1_MQTT_OK/GD32VW55X_Wifi_BLE_SDK/GD32VW55x_RELEASE_V1.0.2/MSDK/cloud/alicloud/src/services/awss\zconfig_protocol.c **** /*
 124:C:/Users/stapi/OneDrive/Desktop/GD32VW553/V1_MQTT_OK/GD32VW55X_Wifi_BLE_SDK/GD32VW55x_RELEASE_V1.0.2/MSDK/cloud/alicloud/src/services/awss\zconfig_protocol.c ****  * 1/locked, 0/not locked
 125:C:/Users/stapi/OneDrive/Desktop/GD32VW553/V1_MQTT_OK/GD32VW55X_Wifi_BLE_SDK/GD32VW55x_RELEASE_V1.0.2/MSDK/cloud/alicloud/src/services/awss\zconfig_protocol.c ****  */
 126:C:/Users/stapi/OneDrive/Desktop/GD32VW553/V1_MQTT_OK/GD32VW55X_Wifi_BLE_SDK/GD32VW55x_RELEASE_V1.0.2/MSDK/cloud/alicloud/src/services/awss\zconfig_protocol.c **** uint8_t is_channel_locked(void)
 127:C:/Users/stapi/OneDrive/Desktop/GD32VW553/V1_MQTT_OK/GD32VW55X_Wifi_BLE_SDK/GD32VW55x_RELEASE_V1.0.2/MSDK/cloud/alicloud/src/services/awss\zconfig_protocol.c **** {
 483              		.loc 1 127 1
 484              		.cfi_startproc
 128:C:/Users/stapi/OneDrive/Desktop/GD32VW553/V1_MQTT_OK/GD32VW55X_Wifi_BLE_SDK/GD32VW55x_RELEASE_V1.0.2/MSDK/cloud/alicloud/src/services/awss\zconfig_protocol.c ****     return zconfig_channel_locked != INVALID_CHANNEL;
 485              		.loc 1 128 5
 486              		.loc 1 128 35 is_stmt 0
 487 0000 B7070000 		lui	a5,%hi(.LANCHOR0)
 488 0004 03C50700 		lbu	a0,%lo(.LANCHOR0)(a5)
 129:C:/Users/stapi/OneDrive/Desktop/GD32VW553/V1_MQTT_OK/GD32VW55X_Wifi_BLE_SDK/GD32VW55x_RELEASE_V1.0.2/MSDK/cloud/alicloud/src/services/awss\zconfig_protocol.c **** }
 489              		.loc 1 129 1
 490 0008 3335A000 		snez	a0,a0
 491 000c 8280     		ret
 492              		.cfi_endproc
 493              	.LFE51:
 495              		.section	.rodata.zconfig_callback_channel_locked.str1.4,"aMS",@progbits,1
 496              		.align	2
 497              	.LC3:
 498 0000 5B696E66 		.string	"[inf] "
 498      5D2000
 499 0007 00       		.align	2
 500              	.LC4:
 501 0008 6368616E 		.string	"channel lock @ %d\r\n"
 501      6E656C20 
 501      6C6F636B 
 501      20402025 
 501      640D0A00 
 502              		.section	.text.zconfig_callback_channel_locked,"ax",@progbits
 503              		.align	1
 504              		.globl	zconfig_callback_channel_locked
 506              	zconfig_callback_channel_locked:
 507              	.LFB52:
 130:C:/Users/stapi/OneDrive/Desktop/GD32VW553/V1_MQTT_OK/GD32VW55X_Wifi_BLE_SDK/GD32VW55x_RELEASE_V1.0.2/MSDK/cloud/alicloud/src/services/awss\zconfig_protocol.c **** 
 131:C:/Users/stapi/OneDrive/Desktop/GD32VW553/V1_MQTT_OK/GD32VW55X_Wifi_BLE_SDK/GD32VW55x_RELEASE_V1.0.2/MSDK/cloud/alicloud/src/services/awss\zconfig_protocol.c **** /*
 132:C:/Users/stapi/OneDrive/Desktop/GD32VW553/V1_MQTT_OK/GD32VW55X_Wifi_BLE_SDK/GD32VW55x_RELEASE_V1.0.2/MSDK/cloud/alicloud/src/services/awss\zconfig_protocol.c ****  * Note: this notification will be kept called, in case of
 133:C:/Users/stapi/OneDrive/Desktop/GD32VW553/V1_MQTT_OK/GD32VW55X_Wifi_BLE_SDK/GD32VW55x_RELEASE_V1.0.2/MSDK/cloud/alicloud/src/services/awss\zconfig_protocol.c ****  *     user clear the channel locked state to re-scanning
 134:C:/Users/stapi/OneDrive/Desktop/GD32VW553/V1_MQTT_OK/GD32VW55X_Wifi_BLE_SDK/GD32VW55x_RELEASE_V1.0.2/MSDK/cloud/alicloud/src/services/awss\zconfig_protocol.c ****  *    channel because of waiting timeout.
 135:C:/Users/stapi/OneDrive/Desktop/GD32VW553/V1_MQTT_OK/GD32VW55X_Wifi_BLE_SDK/GD32VW55x_RELEASE_V1.0.2/MSDK/cloud/alicloud/src/services/awss\zconfig_protocol.c ****  */
 136:C:/Users/stapi/OneDrive/Desktop/GD32VW553/V1_MQTT_OK/GD32VW55X_Wifi_BLE_SDK/GD32VW55x_RELEASE_V1.0.2/MSDK/cloud/alicloud/src/services/awss\zconfig_protocol.c **** uint8_t zconfig_callback_channel_locked(uint8_t channel)
 137:C:/Users/stapi/OneDrive/Desktop/GD32VW553/V1_MQTT_OK/GD32VW55X_Wifi_BLE_SDK/GD32VW55x_RELEASE_V1.0.2/MSDK/cloud/alicloud/src/services/awss\zconfig_protocol.c **** {
 508              		.loc 1 137 1 is_stmt 1
 509              		.cfi_startproc
 510              	.LVL49:
 511 0000 17030000 		call	t0,__riscv_save_2
 511      E7020300 
 512              		.cfi_offset 9, -12
 513              		.cfi_offset 8, -8
 514              		.cfi_offset 1, -4
 515              		.cfi_def_cfa_offset 16
 138:C:/Users/stapi/OneDrive/Desktop/GD32VW553/V1_MQTT_OK/GD32VW55X_Wifi_BLE_SDK/GD32VW55x_RELEASE_V1.0.2/MSDK/cloud/alicloud/src/services/awss\zconfig_protocol.c ****     if (channel != zconfig_channel_locked) {
 516              		.loc 1 138 5
 517              		.loc 1 138 17 is_stmt 0
 518 0008 B7040000 		lui	s1,%hi(.LANCHOR0)
 519 000c 93840400 		addi	s1,s1,%lo(.LANCHOR0)
 520              		.loc 1 138 8
 521 0010 83C70400 		lbu	a5,0(s1)
 137:C:/Users/stapi/OneDrive/Desktop/GD32VW553/V1_MQTT_OK/GD32VW55X_Wifi_BLE_SDK/GD32VW55x_RELEASE_V1.0.2/MSDK/cloud/alicloud/src/services/awss\zconfig_protocol.c ****     if (channel != zconfig_channel_locked) {
 522              		.loc 1 137 1
 523 0014 2A84     		mv	s0,a0
 524              		.loc 1 138 8
 525 0016 638DA702 		beq	a5,a0,.L38
 139:C:/Users/stapi/OneDrive/Desktop/GD32VW553/V1_MQTT_OK/GD32VW55X_Wifi_BLE_SDK/GD32VW55x_RELEASE_V1.0.2/MSDK/cloud/alicloud/src/services/awss\zconfig_protocol.c ****         awss_info("channel lock @ %d\r\n", channel);
 526              		.loc 1 139 9 is_stmt 1
 527              		.loc 1 139 9
 528 001a 37050000 		lui	a0,%hi(.LC3)
 529              	.LVL50:
 530 001e 13050500 		addi	a0,a0,%lo(.LC3)
 531 0022 97000000 		call	HAL_Printf
 531      E7800000 
 532              	.LVL51:
 533              		.loc 1 139 9
 534 002a 37050000 		lui	a0,%hi(.LC4)
 535 002e A285     		mv	a1,s0
 536 0030 13050500 		addi	a0,a0,%lo(.LC4)
 537 0034 97000000 		call	HAL_Printf
 537      E7800000 
 538              	.LVL52:
 539              		.loc 1 139 9
 540 003c 37050000 		lui	a0,%hi(.LC2)
 541 0040 13050500 		addi	a0,a0,%lo(.LC2)
 542 0044 97000000 		call	HAL_Printf
 542      E7800000 
 543              	.LVL53:
 544              		.loc 1 139 9
 140:C:/Users/stapi/OneDrive/Desktop/GD32VW553/V1_MQTT_OK/GD32VW55X_Wifi_BLE_SDK/GD32VW55x_RELEASE_V1.0.2/MSDK/cloud/alicloud/src/services/awss\zconfig_protocol.c ****         zconfig_channel_locked = channel;
 545              		.loc 1 140 9
 546              		.loc 1 140 32 is_stmt 0
 547 004c 23808400 		sb	s0,0(s1)
 548              	.L38:
 141:C:/Users/stapi/OneDrive/Desktop/GD32VW553/V1_MQTT_OK/GD32VW55X_Wifi_BLE_SDK/GD32VW55x_RELEASE_V1.0.2/MSDK/cloud/alicloud/src/services/awss\zconfig_protocol.c ****     }
 142:C:/Users/stapi/OneDrive/Desktop/GD32VW553/V1_MQTT_OK/GD32VW55X_Wifi_BLE_SDK/GD32VW55x_RELEASE_V1.0.2/MSDK/cloud/alicloud/src/services/awss\zconfig_protocol.c **** 
 143:C:/Users/stapi/OneDrive/Desktop/GD32VW553/V1_MQTT_OK/GD32VW55X_Wifi_BLE_SDK/GD32VW55x_RELEASE_V1.0.2/MSDK/cloud/alicloud/src/services/awss\zconfig_protocol.c ****     /*
 144:C:/Users/stapi/OneDrive/Desktop/GD32VW553/V1_MQTT_OK/GD32VW55X_Wifi_BLE_SDK/GD32VW55x_RELEASE_V1.0.2/MSDK/cloud/alicloud/src/services/awss\zconfig_protocol.c ****      * if recv timeout, vendor may re-scanning channel,
 145:C:/Users/stapi/OneDrive/Desktop/GD32VW553/V1_MQTT_OK/GD32VW55X_Wifi_BLE_SDK/GD32VW55x_RELEASE_V1.0.2/MSDK/cloud/alicloud/src/services/awss\zconfig_protocol.c ****      * so keep calling channel locked notification here.
 146:C:/Users/stapi/OneDrive/Desktop/GD32VW553/V1_MQTT_OK/GD32VW55X_Wifi_BLE_SDK/GD32VW55x_RELEASE_V1.0.2/MSDK/cloud/alicloud/src/services/awss\zconfig_protocol.c ****      */
 147:C:/Users/stapi/OneDrive/Desktop/GD32VW553/V1_MQTT_OK/GD32VW55X_Wifi_BLE_SDK/GD32VW55x_RELEASE_V1.0.2/MSDK/cloud/alicloud/src/services/awss\zconfig_protocol.c ****     zconfig_channel_locked_callback(channel, 0, zc_bssid);
 549              		.loc 1 147 5 is_stmt 1
 550 0050 B7070000 		lui	a5,%hi(.LANCHOR1)
 551 0054 03A60700 		lw	a2,%lo(.LANCHOR1)(a5)
 552 0058 2285     		mv	a0,s0
 553 005a 8145     		li	a1,0
 554 005c 1306A64E 		addi	a2,a2,1258
 555 0060 97000000 		call	zconfig_channel_locked_callback
 555      E7800000 
 556              	.LVL54:
 148:C:/Users/stapi/OneDrive/Desktop/GD32VW553/V1_MQTT_OK/GD32VW55X_Wifi_BLE_SDK/GD32VW55x_RELEASE_V1.0.2/MSDK/cloud/alicloud/src/services/awss\zconfig_protocol.c **** 
 149:C:/Users/stapi/OneDrive/Desktop/GD32VW553/V1_MQTT_OK/GD32VW55X_Wifi_BLE_SDK/GD32VW55x_RELEASE_V1.0.2/MSDK/cloud/alicloud/src/services/awss\zconfig_protocol.c ****     return 0;
 557              		.loc 1 149 5
 150:C:/Users/stapi/OneDrive/Desktop/GD32VW553/V1_MQTT_OK/GD32VW55X_Wifi_BLE_SDK/GD32VW55x_RELEASE_V1.0.2/MSDK/cloud/alicloud/src/services/awss\zconfig_protocol.c **** }
 558              		.loc 1 150 1 is_stmt 0
 559 0068 0145     		li	a0,0
 560 006a 17030000 		tail	__riscv_restore_2
 560      67000300 
 561              		.cfi_restore 9
 562              		.cfi_restore 8
 563              		.cfi_restore 1
 564              		.cfi_def_cfa_offset 0
 565              		.cfi_endproc
 566              	.LFE52:
 568              		.section	.rodata.zconfig_callback_over.str1.4,"aMS",@progbits,1
 569              		.align	2
 570              	.LC5:
 571 0000 7A636F6E 		.string	"zconfig done. ssid:%s, mac:%02x%02x%02x%02x%02x%02x"
 571      66696720 
 571      646F6E65 
 571      2E207373 
 571      69643A25 
 572              		.section	.text.zconfig_callback_over,"ax",@progbits
 573              		.align	1
 574              		.globl	zconfig_callback_over
 576              	zconfig_callback_over:
 577              	.LFB53:
 151:C:/Users/stapi/OneDrive/Desktop/GD32VW553/V1_MQTT_OK/GD32VW55X_Wifi_BLE_SDK/GD32VW55x_RELEASE_V1.0.2/MSDK/cloud/alicloud/src/services/awss\zconfig_protocol.c **** 
 152:C:/Users/stapi/OneDrive/Desktop/GD32VW553/V1_MQTT_OK/GD32VW55X_Wifi_BLE_SDK/GD32VW55x_RELEASE_V1.0.2/MSDK/cloud/alicloud/src/services/awss\zconfig_protocol.c **** uint8_t zconfig_callback_over(uint8_t *ssid, uint8_t *passwd, uint8_t *bssid, uint8_t *token, uint8
 153:C:/Users/stapi/OneDrive/Desktop/GD32VW553/V1_MQTT_OK/GD32VW55X_Wifi_BLE_SDK/GD32VW55x_RELEASE_V1.0.2/MSDK/cloud/alicloud/src/services/awss\zconfig_protocol.c **** {
 578              		.loc 1 153 1 is_stmt 1
 579              		.cfi_startproc
 580              	.LVL55:
 581 0000 17030000 		call	t0,__riscv_save_6
 581      E7020300 
 582              		.cfi_offset 21, -28
 583              		.cfi_offset 20, -24
 584              		.cfi_offset 19, -20
 585              		.cfi_offset 18, -16
 586              		.cfi_offset 9, -12
 587              		.cfi_offset 8, -8
 588              		.cfi_offset 1, -4
 589              		.cfi_def_cfa_offset 32
 154:C:/Users/stapi/OneDrive/Desktop/GD32VW553/V1_MQTT_OK/GD32VW55X_Wifi_BLE_SDK/GD32VW55x_RELEASE_V1.0.2/MSDK/cloud/alicloud/src/services/awss\zconfig_protocol.c ****     uint8_t auth = ZC_AUTH_TYPE_INVALID, encry = ZC_ENC_TYPE_INVALID, channel = 0;
 590              		.loc 1 154 5
 153:C:/Users/stapi/OneDrive/Desktop/GD32VW553/V1_MQTT_OK/GD32VW55X_Wifi_BLE_SDK/GD32VW55x_RELEASE_V1.0.2/MSDK/cloud/alicloud/src/services/awss\zconfig_protocol.c ****     uint8_t auth = ZC_AUTH_TYPE_INVALID, encry = ZC_ENC_TYPE_INVALID, channel = 0;
 591              		.loc 1 153 1 is_stmt 0
 592 0008 0111     		addi	sp,sp,-32
 593              		.cfi_def_cfa_offset 64
 594              		.loc 1 154 13
 595 000a FD57     		li	a5,-1
 596 000c A30EF100 		sb	a5,29(sp)
 597              		.loc 1 154 42
 598 0010 230FF100 		sb	a5,30(sp)
 155:C:/Users/stapi/OneDrive/Desktop/GD32VW553/V1_MQTT_OK/GD32VW55X_Wifi_BLE_SDK/GD32VW55x_RELEASE_V1.0.2/MSDK/cloud/alicloud/src/services/awss\zconfig_protocol.c **** 
 156:C:/Users/stapi/OneDrive/Desktop/GD32VW553/V1_MQTT_OK/GD32VW55X_Wifi_BLE_SDK/GD32VW55x_RELEASE_V1.0.2/MSDK/cloud/alicloud/src/services/awss\zconfig_protocol.c ****     dump_awss_status(STATE_WIFI_PASSWD_DECODE_SUCCESS, "zconfig done. ssid:%s, mac:%02x%02x%02x%02x
 599              		.loc 1 156 5
 600 0014 83475600 		lbu	a5,5(a2)
 153:C:/Users/stapi/OneDrive/Desktop/GD32VW553/V1_MQTT_OK/GD32VW55X_Wifi_BLE_SDK/GD32VW55x_RELEASE_V1.0.2/MSDK/cloud/alicloud/src/services/awss\zconfig_protocol.c ****     uint8_t auth = ZC_AUTH_TYPE_INVALID, encry = ZC_ENC_TYPE_INVALID, channel = 0;
 601              		.loc 1 153 1
 602 0018 BA8A     		mv	s5,a4
 603 001a 3284     		mv	s0,a2
 604              		.loc 1 156 5
 605 001c 3EC2     		sw	a5,4(sp)
 606 001e 83474600 		lbu	a5,4(a2)
 153:C:/Users/stapi/OneDrive/Desktop/GD32VW553/V1_MQTT_OK/GD32VW55X_Wifi_BLE_SDK/GD32VW55x_RELEASE_V1.0.2/MSDK/cloud/alicloud/src/services/awss\zconfig_protocol.c ****     uint8_t auth = ZC_AUTH_TYPE_INVALID, encry = ZC_ENC_TYPE_INVALID, channel = 0;
 607              		.loc 1 153 1
 608 0022 AA84     		mv	s1,a0
 609 0024 AE89     		mv	s3,a1
 610              		.loc 1 156 5
 611 0026 3EC0     		sw	a5,0(sp)
 612 0028 83471600 		lbu	a5,1(a2)
 613 002c 83483600 		lbu	a7,3(a2)
 614 0030 03482600 		lbu	a6,2(a2)
 615 0034 03470600 		lbu	a4,0(a2)
 616              	.LVL56:
 617 0038 37060000 		lui	a2,%hi(.LC5)
 618              	.LVL57:
 153:C:/Users/stapi/OneDrive/Desktop/GD32VW553/V1_MQTT_OK/GD32VW55X_Wifi_BLE_SDK/GD32VW55x_RELEASE_V1.0.2/MSDK/cloud/alicloud/src/services/awss\zconfig_protocol.c ****     uint8_t auth = ZC_AUTH_TYPE_INVALID, encry = ZC_ENC_TYPE_INVALID, channel = 0;
 619              		.loc 1 153 1
 620 003c 368A     		mv	s4,a3
 621              		.loc 1 156 5
 622 003e 13060600 		addi	a2,a2,%lo(.LC5)
 623 0042 AA86     		mv	a3,a0
 624              	.LVL58:
 625 0044 930530BF 		li	a1,-1037
 626              	.LVL59:
 627 0048 6D45     		li	a0,27
 628              	.LVL60:
 157:C:/Users/stapi/OneDrive/Desktop/GD32VW553/V1_MQTT_OK/GD32VW55X_Wifi_BLE_SDK/GD32VW55x_RELEASE_V1.0.2/MSDK/cloud/alicloud/src/services/awss\zconfig_protocol.c ****                ssid, bssid[0], bssid[1], bssid[2], bssid[3], bssid[4], bssid[5]);
 158:C:/Users/stapi/OneDrive/Desktop/GD32VW553/V1_MQTT_OK/GD32VW55X_Wifi_BLE_SDK/GD32VW55x_RELEASE_V1.0.2/MSDK/cloud/alicloud/src/services/awss\zconfig_protocol.c **** 
 159:C:/Users/stapi/OneDrive/Desktop/GD32VW553/V1_MQTT_OK/GD32VW55X_Wifi_BLE_SDK/GD32VW55x_RELEASE_V1.0.2/MSDK/cloud/alicloud/src/services/awss\zconfig_protocol.c ****     if (zconfig_finished) {
 629              		.loc 1 159 9
 630 004a 37090000 		lui	s2,%hi(.LANCHOR2)
 154:C:/Users/stapi/OneDrive/Desktop/GD32VW553/V1_MQTT_OK/GD32VW55X_Wifi_BLE_SDK/GD32VW55x_RELEASE_V1.0.2/MSDK/cloud/alicloud/src/services/awss\zconfig_protocol.c **** 
 631              		.loc 1 154 71
 632 004e A30F0100 		sb	zero,31(sp)
 156:C:/Users/stapi/OneDrive/Desktop/GD32VW553/V1_MQTT_OK/GD32VW55X_Wifi_BLE_SDK/GD32VW55x_RELEASE_V1.0.2/MSDK/cloud/alicloud/src/services/awss\zconfig_protocol.c ****                ssid, bssid[0], bssid[1], bssid[2], bssid[3], bssid[4], bssid[5]);
 633              		.loc 1 156 5 is_stmt 1
 634              		.loc 1 159 9 is_stmt 0
 635 0052 13090900 		addi	s2,s2,%lo(.LANCHOR2)
 156:C:/Users/stapi/OneDrive/Desktop/GD32VW553/V1_MQTT_OK/GD32VW55X_Wifi_BLE_SDK/GD32VW55x_RELEASE_V1.0.2/MSDK/cloud/alicloud/src/services/awss\zconfig_protocol.c ****                ssid, bssid[0], bssid[1], bssid[2], bssid[3], bssid[4], bssid[5]);
 636              		.loc 1 156 5
 637 0056 97000000 		call	iotx_state_event
 637      E7800000 
 638              	.LVL61:
 639              		.loc 1 159 5 is_stmt 1
 640              		.loc 1 159 8 is_stmt 0
 641 005e 83470900 		lbu	a5,0(s2)
 642 0062 A1E3     		bne	a5,zero,.L41
 160:C:/Users/stapi/OneDrive/Desktop/GD32VW553/V1_MQTT_OK/GD32VW55X_Wifi_BLE_SDK/GD32VW55x_RELEASE_V1.0.2/MSDK/cloud/alicloud/src/services/awss\zconfig_protocol.c ****         return 0;
 161:C:/Users/stapi/OneDrive/Desktop/GD32VW553/V1_MQTT_OK/GD32VW55X_Wifi_BLE_SDK/GD32VW55x_RELEASE_V1.0.2/MSDK/cloud/alicloud/src/services/awss\zconfig_protocol.c ****     }
 162:C:/Users/stapi/OneDrive/Desktop/GD32VW553/V1_MQTT_OK/GD32VW55X_Wifi_BLE_SDK/GD32VW55x_RELEASE_V1.0.2/MSDK/cloud/alicloud/src/services/awss\zconfig_protocol.c **** 
 163:C:/Users/stapi/OneDrive/Desktop/GD32VW553/V1_MQTT_OK/GD32VW55X_Wifi_BLE_SDK/GD32VW55x_RELEASE_V1.0.2/MSDK/cloud/alicloud/src/services/awss\zconfig_protocol.c **** #ifdef AWSS_SUPPORT_APLIST
 164:C:/Users/stapi/OneDrive/Desktop/GD32VW553/V1_MQTT_OK/GD32VW55X_Wifi_BLE_SDK/GD32VW55x_RELEASE_V1.0.2/MSDK/cloud/alicloud/src/services/awss\zconfig_protocol.c ****     awss_get_auth_info(ssid, bssid, &auth, &encry, &channel);
 643              		.loc 1 164 5 is_stmt 1
 644 0064 1307F101 		addi	a4,sp,31
 645 0068 9306E101 		addi	a3,sp,30
 646 006c 1306D101 		addi	a2,sp,29
 647 0070 A285     		mv	a1,s0
 648 0072 2685     		mv	a0,s1
 649 0074 97000000 		call	awss_get_auth_info
 649      E7800000 
 650              	.LVL62:
 165:C:/Users/stapi/OneDrive/Desktop/GD32VW553/V1_MQTT_OK/GD32VW55X_Wifi_BLE_SDK/GD32VW55x_RELEASE_V1.0.2/MSDK/cloud/alicloud/src/services/awss\zconfig_protocol.c **** #endif
 166:C:/Users/stapi/OneDrive/Desktop/GD32VW553/V1_MQTT_OK/GD32VW55X_Wifi_BLE_SDK/GD32VW55x_RELEASE_V1.0.2/MSDK/cloud/alicloud/src/services/awss\zconfig_protocol.c **** 
 167:C:/Users/stapi/OneDrive/Desktop/GD32VW553/V1_MQTT_OK/GD32VW55X_Wifi_BLE_SDK/GD32VW55x_RELEASE_V1.0.2/MSDK/cloud/alicloud/src/services/awss\zconfig_protocol.c ****     zconfig_got_ssid_passwd_callback(ssid, passwd, bssid, token, auth, encry, channel, *token_type)
 651              		.loc 1 167 5
 652 007c 8347E101 		lbu	a5,30(sp)
 653 0080 83C80A00 		lbu	a7,0(s5)
 654 0084 0348F101 		lbu	a6,31(sp)
 655 0088 0347D101 		lbu	a4,29(sp)
 656 008c D286     		mv	a3,s4
 657 008e 2286     		mv	a2,s0
 658 0090 CE85     		mv	a1,s3
 659 0092 2685     		mv	a0,s1
 660 0094 97000000 		call	zconfig_got_ssid_passwd_callback
 660      E7800000 
 661              	.LVL63:
 168:C:/Users/stapi/OneDrive/Desktop/GD32VW553/V1_MQTT_OK/GD32VW55X_Wifi_BLE_SDK/GD32VW55x_RELEASE_V1.0.2/MSDK/cloud/alicloud/src/services/awss\zconfig_protocol.c **** 
 169:C:/Users/stapi/OneDrive/Desktop/GD32VW553/V1_MQTT_OK/GD32VW55X_Wifi_BLE_SDK/GD32VW55x_RELEASE_V1.0.2/MSDK/cloud/alicloud/src/services/awss\zconfig_protocol.c ****     zconfig_finished = 1;
 662              		.loc 1 169 5
 663              		.loc 1 169 22 is_stmt 0
 664 009c 8547     		li	a5,1
 665 009e 2300F900 		sb	a5,0(s2)
 170:C:/Users/stapi/OneDrive/Desktop/GD32VW553/V1_MQTT_OK/GD32VW55X_Wifi_BLE_SDK/GD32VW55x_RELEASE_V1.0.2/MSDK/cloud/alicloud/src/services/awss\zconfig_protocol.c **** 
 171:C:/Users/stapi/OneDrive/Desktop/GD32VW553/V1_MQTT_OK/GD32VW55X_Wifi_BLE_SDK/GD32VW55x_RELEASE_V1.0.2/MSDK/cloud/alicloud/src/services/awss\zconfig_protocol.c ****     // will be called in destroy
 172:C:/Users/stapi/OneDrive/Desktop/GD32VW553/V1_MQTT_OK/GD32VW55X_Wifi_BLE_SDK/GD32VW55x_RELEASE_V1.0.2/MSDK/cloud/alicloud/src/services/awss\zconfig_protocol.c ****     //os_awss_close_monitor();
 173:C:/Users/stapi/OneDrive/Desktop/GD32VW553/V1_MQTT_OK/GD32VW55X_Wifi_BLE_SDK/GD32VW55x_RELEASE_V1.0.2/MSDK/cloud/alicloud/src/services/awss\zconfig_protocol.c **** 
 174:C:/Users/stapi/OneDrive/Desktop/GD32VW553/V1_MQTT_OK/GD32VW55X_Wifi_BLE_SDK/GD32VW55x_RELEASE_V1.0.2/MSDK/cloud/alicloud/src/services/awss\zconfig_protocol.c ****     return 0;
 666              		.loc 1 174 5 is_stmt 1
 667              	.L41:
 175:C:/Users/stapi/OneDrive/Desktop/GD32VW553/V1_MQTT_OK/GD32VW55X_Wifi_BLE_SDK/GD32VW55x_RELEASE_V1.0.2/MSDK/cloud/alicloud/src/services/awss\zconfig_protocol.c **** }
 668              		.loc 1 175 1 is_stmt 0
 669 00a2 0145     		li	a0,0
 670 00a4 0561     		addi	sp,sp,32
 671              		.cfi_def_cfa_offset 0
 672 00a6 17030000 		tail	__riscv_restore_6
 672      67000300 
 673              		.cfi_restore 21
 674              		.cfi_restore 20
 675              		.cfi_restore 19
 676              		.cfi_restore 18
 677              		.cfi_restore 9
 678              		.cfi_restore 8
 679              		.cfi_restore 1
 680              		.cfi_def_cfa_offset -32
 681              		.cfi_endproc
 682              	.LFE53:
 684              		.section	.text.zconfig_set_state,"ax",@progbits
 685              		.align	1
 686              		.globl	zconfig_set_state
 688              	zconfig_set_state:
 689              	.LFB54:
 176:C:/Users/stapi/OneDrive/Desktop/GD32VW553/V1_MQTT_OK/GD32VW55X_Wifi_BLE_SDK/GD32VW55x_RELEASE_V1.0.2/MSDK/cloud/alicloud/src/services/awss\zconfig_protocol.c **** 
 177:C:/Users/stapi/OneDrive/Desktop/GD32VW553/V1_MQTT_OK/GD32VW55X_Wifi_BLE_SDK/GD32VW55x_RELEASE_V1.0.2/MSDK/cloud/alicloud/src/services/awss\zconfig_protocol.c **** void zconfig_set_state(uint8_t state, uint8_t tods, uint8_t channel)
 178:C:/Users/stapi/OneDrive/Desktop/GD32VW553/V1_MQTT_OK/GD32VW55X_Wifi_BLE_SDK/GD32VW55x_RELEASE_V1.0.2/MSDK/cloud/alicloud/src/services/awss\zconfig_protocol.c **** {
 690              		.loc 1 178 1 is_stmt 1
 691              		.cfi_startproc
 692              	.LVL64:
 693 0000 17030000 		call	t0,__riscv_save_4
 693      E7020300 
 694              		.cfi_offset 19, -20
 695              		.cfi_offset 18, -16
 696              		.cfi_offset 9, -12
 697              		.cfi_offset 8, -8
 698              		.cfi_offset 1, -4
 699              		.cfi_def_cfa_offset 32
 179:C:/Users/stapi/OneDrive/Desktop/GD32VW553/V1_MQTT_OK/GD32VW55X_Wifi_BLE_SDK/GD32VW55x_RELEASE_V1.0.2/MSDK/cloud/alicloud/src/services/awss\zconfig_protocol.c ****     if (zconfig_data == NULL) {
 700              		.loc 1 179 5
 701              		.loc 1 179 22 is_stmt 0
 702 0008 37090000 		lui	s2,%hi(.LANCHOR1)
 703 000c 83270900 		lw	a5,%lo(.LANCHOR1)(s2)
 704              		.loc 1 179 8
 705 0010 B9C3     		beq	a5,zero,.L43
 180:C:/Users/stapi/OneDrive/Desktop/GD32VW553/V1_MQTT_OK/GD32VW55X_Wifi_BLE_SDK/GD32VW55x_RELEASE_V1.0.2/MSDK/cloud/alicloud/src/services/awss\zconfig_protocol.c ****         return;
 181:C:/Users/stapi/OneDrive/Desktop/GD32VW553/V1_MQTT_OK/GD32VW55X_Wifi_BLE_SDK/GD32VW55x_RELEASE_V1.0.2/MSDK/cloud/alicloud/src/services/awss\zconfig_protocol.c ****     }
 182:C:/Users/stapi/OneDrive/Desktop/GD32VW553/V1_MQTT_OK/GD32VW55X_Wifi_BLE_SDK/GD32VW55x_RELEASE_V1.0.2/MSDK/cloud/alicloud/src/services/awss\zconfig_protocol.c ****     
 183:C:/Users/stapi/OneDrive/Desktop/GD32VW553/V1_MQTT_OK/GD32VW55X_Wifi_BLE_SDK/GD32VW55x_RELEASE_V1.0.2/MSDK/cloud/alicloud/src/services/awss\zconfig_protocol.c ****     /* state change callback */
 184:C:/Users/stapi/OneDrive/Desktop/GD32VW553/V1_MQTT_OK/GD32VW55X_Wifi_BLE_SDK/GD32VW55x_RELEASE_V1.0.2/MSDK/cloud/alicloud/src/services/awss\zconfig_protocol.c ****     switch (state) {
 706              		.loc 1 184 5
 707 0012 0D47     		li	a4,3
 708 0014 2A84     		mv	s0,a0
 709 0016 AE89     		mv	s3,a1
 710 0018 B284     		mv	s1,a2
 711 001a 13090900 		addi	s2,s2,%lo(.LANCHOR1)
 712              		.loc 1 184 5 is_stmt 1
 713 001e 6360A704 		bgtu	a0,a4,.L46
 714 0022 0547     		li	a4,1
 715 0024 6361A708 		bgtu	a0,a4,.L47
 716 0028 6303E508 		beq	a0,a4,.L51
 717              	.LVL65:
 718              	.L49:
 185:C:/Users/stapi/OneDrive/Desktop/GD32VW553/V1_MQTT_OK/GD32VW55X_Wifi_BLE_SDK/GD32VW55x_RELEASE_V1.0.2/MSDK/cloud/alicloud/src/services/awss\zconfig_protocol.c ****         case STATE_CHN_SCANNING:
 186:C:/Users/stapi/OneDrive/Desktop/GD32VW553/V1_MQTT_OK/GD32VW55X_Wifi_BLE_SDK/GD32VW55x_RELEASE_V1.0.2/MSDK/cloud/alicloud/src/services/awss\zconfig_protocol.c ****             break;
 187:C:/Users/stapi/OneDrive/Desktop/GD32VW553/V1_MQTT_OK/GD32VW55X_Wifi_BLE_SDK/GD32VW55x_RELEASE_V1.0.2/MSDK/cloud/alicloud/src/services/awss\zconfig_protocol.c ****         case STATE_CHN_LOCKED_BY_P2P:
 188:C:/Users/stapi/OneDrive/Desktop/GD32VW553/V1_MQTT_OK/GD32VW55X_Wifi_BLE_SDK/GD32VW55x_RELEASE_V1.0.2/MSDK/cloud/alicloud/src/services/awss\zconfig_protocol.c ****             //locked state used by action/wps frame
 189:C:/Users/stapi/OneDrive/Desktop/GD32VW553/V1_MQTT_OK/GD32VW55X_Wifi_BLE_SDK/GD32VW55x_RELEASE_V1.0.2/MSDK/cloud/alicloud/src/services/awss\zconfig_protocol.c ****             zconfig_callback_channel_locked(channel);
 190:C:/Users/stapi/OneDrive/Desktop/GD32VW553/V1_MQTT_OK/GD32VW55X_Wifi_BLE_SDK/GD32VW55x_RELEASE_V1.0.2/MSDK/cloud/alicloud/src/services/awss\zconfig_protocol.c ****             break;
 191:C:/Users/stapi/OneDrive/Desktop/GD32VW553/V1_MQTT_OK/GD32VW55X_Wifi_BLE_SDK/GD32VW55x_RELEASE_V1.0.2/MSDK/cloud/alicloud/src/services/awss\zconfig_protocol.c ****         case STATE_CHN_LOCKED_BY_BR:
 192:C:/Users/stapi/OneDrive/Desktop/GD32VW553/V1_MQTT_OK/GD32VW55X_Wifi_BLE_SDK/GD32VW55x_RELEASE_V1.0.2/MSDK/cloud/alicloud/src/services/awss\zconfig_protocol.c ****         case STATE_CHN_LOCKED_BY_MCAST:
 193:C:/Users/stapi/OneDrive/Desktop/GD32VW553/V1_MQTT_OK/GD32VW55X_Wifi_BLE_SDK/GD32VW55x_RELEASE_V1.0.2/MSDK/cloud/alicloud/src/services/awss\zconfig_protocol.c ****             //locked state used by br frame
 194:C:/Users/stapi/OneDrive/Desktop/GD32VW553/V1_MQTT_OK/GD32VW55X_Wifi_BLE_SDK/GD32VW55x_RELEASE_V1.0.2/MSDK/cloud/alicloud/src/services/awss\zconfig_protocol.c ****             zconfig_callback_channel_locked(zc_channel ? zc_channel : channel);
 195:C:/Users/stapi/OneDrive/Desktop/GD32VW553/V1_MQTT_OK/GD32VW55X_Wifi_BLE_SDK/GD32VW55x_RELEASE_V1.0.2/MSDK/cloud/alicloud/src/services/awss\zconfig_protocol.c ****             break;
 196:C:/Users/stapi/OneDrive/Desktop/GD32VW553/V1_MQTT_OK/GD32VW55X_Wifi_BLE_SDK/GD32VW55x_RELEASE_V1.0.2/MSDK/cloud/alicloud/src/services/awss\zconfig_protocol.c ****         case STATE_RCV_DONE:
 197:C:/Users/stapi/OneDrive/Desktop/GD32VW553/V1_MQTT_OK/GD32VW55X_Wifi_BLE_SDK/GD32VW55x_RELEASE_V1.0.2/MSDK/cloud/alicloud/src/services/awss\zconfig_protocol.c ****             // prevent main_thread_func to free zconfig_data until curent task is finished.
 198:C:/Users/stapi/OneDrive/Desktop/GD32VW553/V1_MQTT_OK/GD32VW55X_Wifi_BLE_SDK/GD32VW55x_RELEASE_V1.0.2/MSDK/cloud/alicloud/src/services/awss\zconfig_protocol.c ****             os_mutex_lock(zc_mutex);
 199:C:/Users/stapi/OneDrive/Desktop/GD32VW553/V1_MQTT_OK/GD32VW55X_Wifi_BLE_SDK/GD32VW55x_RELEASE_V1.0.2/MSDK/cloud/alicloud/src/services/awss\zconfig_protocol.c ****             /*
 200:C:/Users/stapi/OneDrive/Desktop/GD32VW553/V1_MQTT_OK/GD32VW55X_Wifi_BLE_SDK/GD32VW55x_RELEASE_V1.0.2/MSDK/cloud/alicloud/src/services/awss\zconfig_protocol.c ****              * in case of p2p/router, direct into RCV_DONE state,
 201:C:/Users/stapi/OneDrive/Desktop/GD32VW553/V1_MQTT_OK/GD32VW55X_Wifi_BLE_SDK/GD32VW55x_RELEASE_V1.0.2/MSDK/cloud/alicloud/src/services/awss\zconfig_protocol.c ****              * skiped the chn lock state, so better to call channel lock here
 202:C:/Users/stapi/OneDrive/Desktop/GD32VW553/V1_MQTT_OK/GD32VW55X_Wifi_BLE_SDK/GD32VW55x_RELEASE_V1.0.2/MSDK/cloud/alicloud/src/services/awss\zconfig_protocol.c ****              */
 203:C:/Users/stapi/OneDrive/Desktop/GD32VW553/V1_MQTT_OK/GD32VW55X_Wifi_BLE_SDK/GD32VW55x_RELEASE_V1.0.2/MSDK/cloud/alicloud/src/services/awss\zconfig_protocol.c ****             if (!is_channel_locked()) {
 204:C:/Users/stapi/OneDrive/Desktop/GD32VW553/V1_MQTT_OK/GD32VW55X_Wifi_BLE_SDK/GD32VW55x_RELEASE_V1.0.2/MSDK/cloud/alicloud/src/services/awss\zconfig_protocol.c ****                 zconfig_callback_channel_locked(channel);
 205:C:/Users/stapi/OneDrive/Desktop/GD32VW553/V1_MQTT_OK/GD32VW55X_Wifi_BLE_SDK/GD32VW55x_RELEASE_V1.0.2/MSDK/cloud/alicloud/src/services/awss\zconfig_protocol.c ****             }
 206:C:/Users/stapi/OneDrive/Desktop/GD32VW553/V1_MQTT_OK/GD32VW55X_Wifi_BLE_SDK/GD32VW55x_RELEASE_V1.0.2/MSDK/cloud/alicloud/src/services/awss\zconfig_protocol.c ****             zconfig_callback_over(zc_ssid, zc_passwd, zc_bssid, zc_token, zc_token_type);
 207:C:/Users/stapi/OneDrive/Desktop/GD32VW553/V1_MQTT_OK/GD32VW55X_Wifi_BLE_SDK/GD32VW55x_RELEASE_V1.0.2/MSDK/cloud/alicloud/src/services/awss\zconfig_protocol.c ****             break;
 208:C:/Users/stapi/OneDrive/Desktop/GD32VW553/V1_MQTT_OK/GD32VW55X_Wifi_BLE_SDK/GD32VW55x_RELEASE_V1.0.2/MSDK/cloud/alicloud/src/services/awss\zconfig_protocol.c ****         default:
 209:C:/Users/stapi/OneDrive/Desktop/GD32VW553/V1_MQTT_OK/GD32VW55X_Wifi_BLE_SDK/GD32VW55x_RELEASE_V1.0.2/MSDK/cloud/alicloud/src/services/awss\zconfig_protocol.c ****             break;
 210:C:/Users/stapi/OneDrive/Desktop/GD32VW553/V1_MQTT_OK/GD32VW55X_Wifi_BLE_SDK/GD32VW55x_RELEASE_V1.0.2/MSDK/cloud/alicloud/src/services/awss\zconfig_protocol.c ****     }
 211:C:/Users/stapi/OneDrive/Desktop/GD32VW553/V1_MQTT_OK/GD32VW55X_Wifi_BLE_SDK/GD32VW55x_RELEASE_V1.0.2/MSDK/cloud/alicloud/src/services/awss\zconfig_protocol.c **** 
 212:C:/Users/stapi/OneDrive/Desktop/GD32VW553/V1_MQTT_OK/GD32VW55X_Wifi_BLE_SDK/GD32VW55x_RELEASE_V1.0.2/MSDK/cloud/alicloud/src/services/awss\zconfig_protocol.c ****     /*
 213:C:/Users/stapi/OneDrive/Desktop/GD32VW553/V1_MQTT_OK/GD32VW55X_Wifi_BLE_SDK/GD32VW55x_RELEASE_V1.0.2/MSDK/cloud/alicloud/src/services/awss\zconfig_protocol.c ****      * state machine loop:
 214:C:/Users/stapi/OneDrive/Desktop/GD32VW553/V1_MQTT_OK/GD32VW55X_Wifi_BLE_SDK/GD32VW55x_RELEASE_V1.0.2/MSDK/cloud/alicloud/src/services/awss\zconfig_protocol.c ****      * scanning -> p2p lock -> rcv_done
 215:C:/Users/stapi/OneDrive/Desktop/GD32VW553/V1_MQTT_OK/GD32VW55X_Wifi_BLE_SDK/GD32VW55x_RELEASE_V1.0.2/MSDK/cloud/alicloud/src/services/awss\zconfig_protocol.c ****      * scanning -> (p2p) rcv_done
 216:C:/Users/stapi/OneDrive/Desktop/GD32VW553/V1_MQTT_OK/GD32VW55X_Wifi_BLE_SDK/GD32VW55x_RELEASE_V1.0.2/MSDK/cloud/alicloud/src/services/awss\zconfig_protocol.c ****      * scanning -> br lock -> (br) rcv_done
 217:C:/Users/stapi/OneDrive/Desktop/GD32VW553/V1_MQTT_OK/GD32VW55X_Wifi_BLE_SDK/GD32VW55x_RELEASE_V1.0.2/MSDK/cloud/alicloud/src/services/awss\zconfig_protocol.c ****      * scanning -> br lock -> (p2p) recv_done
 218:C:/Users/stapi/OneDrive/Desktop/GD32VW553/V1_MQTT_OK/GD32VW55X_Wifi_BLE_SDK/GD32VW55x_RELEASE_V1.0.2/MSDK/cloud/alicloud/src/services/awss\zconfig_protocol.c ****      * scanning -> p2p lock -> br lock -> (br) recv_done
 219:C:/Users/stapi/OneDrive/Desktop/GD32VW553/V1_MQTT_OK/GD32VW55X_Wifi_BLE_SDK/GD32VW55x_RELEASE_V1.0.2/MSDK/cloud/alicloud/src/services/awss\zconfig_protocol.c ****      *
 220:C:/Users/stapi/OneDrive/Desktop/GD32VW553/V1_MQTT_OK/GD32VW55X_Wifi_BLE_SDK/GD32VW55x_RELEASE_V1.0.2/MSDK/cloud/alicloud/src/services/awss\zconfig_protocol.c ****      * watch out zc_state rolling back.
 221:C:/Users/stapi/OneDrive/Desktop/GD32VW553/V1_MQTT_OK/GD32VW55X_Wifi_BLE_SDK/GD32VW55x_RELEASE_V1.0.2/MSDK/cloud/alicloud/src/services/awss\zconfig_protocol.c ****      * zconfig_set_state(CHN_LOCKED) will be called more than once,
 222:C:/Users/stapi/OneDrive/Desktop/GD32VW553/V1_MQTT_OK/GD32VW55X_Wifi_BLE_SDK/GD32VW55x_RELEASE_V1.0.2/MSDK/cloud/alicloud/src/services/awss\zconfig_protocol.c ****      */
 223:C:/Users/stapi/OneDrive/Desktop/GD32VW553/V1_MQTT_OK/GD32VW55X_Wifi_BLE_SDK/GD32VW55x_RELEASE_V1.0.2/MSDK/cloud/alicloud/src/services/awss\zconfig_protocol.c ****     if (zc_state < state) {
 719              		.loc 1 223 5
 720              		.loc 1 223 9 is_stmt 0
 721 002c 83270900 		lw	a5,0(s2)
 722 0030 D146     		li	a3,20
 723 0032 3E87     		mv	a4,a5
 724 0034 7F97D9C4 		maddr32	a4, s3, a3
 725              		.loc 1 223 8
 726 0038 83460700 		lbu	a3,0(a4)
 727 003c 63F48600 		bgeu	a3,s0,.L53
 224:C:/Users/stapi/OneDrive/Desktop/GD32VW553/V1_MQTT_OK/GD32VW55X_Wifi_BLE_SDK/GD32VW55x_RELEASE_V1.0.2/MSDK/cloud/alicloud/src/services/awss\zconfig_protocol.c ****         zc_state = state;
 728              		.loc 1 224 9 is_stmt 1
 729              		.loc 1 224 18 is_stmt 0
 730 0040 23008700 		sb	s0,0(a4)
 731              	.L53:
 225:C:/Users/stapi/OneDrive/Desktop/GD32VW553/V1_MQTT_OK/GD32VW55X_Wifi_BLE_SDK/GD32VW55x_RELEASE_V1.0.2/MSDK/cloud/alicloud/src/services/awss\zconfig_protocol.c ****     }
 226:C:/Users/stapi/OneDrive/Desktop/GD32VW553/V1_MQTT_OK/GD32VW55X_Wifi_BLE_SDK/GD32VW55x_RELEASE_V1.0.2/MSDK/cloud/alicloud/src/services/awss\zconfig_protocol.c ****     if (state == STATE_RCV_DONE) {
 732              		.loc 1 226 5 is_stmt 1
 733              		.loc 1 226 8 is_stmt 0
 734 0044 1D47     		li	a4,7
 735 0046 6318E400 		bne	s0,a4,.L43
 227:C:/Users/stapi/OneDrive/Desktop/GD32VW553/V1_MQTT_OK/GD32VW55X_Wifi_BLE_SDK/GD32VW55x_RELEASE_V1.0.2/MSDK/cloud/alicloud/src/services/awss\zconfig_protocol.c ****         os_mutex_unlock(zc_mutex);
 736              		.loc 1 227 9 is_stmt 1
 737              	.LVL66:
 738              	.LBB51:
 739              	.LBB52:
 294:..\..\..\..\cloud\alicloud\src\services\dev_bind\os/os.h **** }
 740              		.loc 2 294 5
 741 004a 03A50754 		lw	a0,1344(a5)
 742 004e 97000000 		call	HAL_MutexUnlock
 742      E7800000 
 743              	.LVL67:
 744              	.L43:
 745              	.LBE52:
 746              	.LBE51:
 228:C:/Users/stapi/OneDrive/Desktop/GD32VW553/V1_MQTT_OK/GD32VW55X_Wifi_BLE_SDK/GD32VW55x_RELEASE_V1.0.2/MSDK/cloud/alicloud/src/services/awss\zconfig_protocol.c ****     }
 229:C:/Users/stapi/OneDrive/Desktop/GD32VW553/V1_MQTT_OK/GD32VW55X_Wifi_BLE_SDK/GD32VW55x_RELEASE_V1.0.2/MSDK/cloud/alicloud/src/services/awss\zconfig_protocol.c **** }
 747              		.loc 1 229 1 is_stmt 0
 748 0056 17030000 		tail	__riscv_restore_4
 748      67000300 
 749              		.cfi_remember_state
 750              		.cfi_restore 19
 751              		.cfi_restore 18
 752              		.cfi_restore 9
 753              		.cfi_restore 8
 754              		.cfi_restore 1
 755              		.cfi_def_cfa_offset 0
 756              	.LVL68:
 757              	.L46:
 758              		.cfi_restore_state
 184:C:/Users/stapi/OneDrive/Desktop/GD32VW553/V1_MQTT_OK/GD32VW55X_Wifi_BLE_SDK/GD32VW55x_RELEASE_V1.0.2/MSDK/cloud/alicloud/src/services/awss\zconfig_protocol.c ****         case STATE_CHN_SCANNING:
 759              		.loc 1 184 5
 760 005e 1D47     		li	a4,7
 761 0060 E316E5FC 		bne	a0,a4,.L49
 198:C:/Users/stapi/OneDrive/Desktop/GD32VW553/V1_MQTT_OK/GD32VW55X_Wifi_BLE_SDK/GD32VW55x_RELEASE_V1.0.2/MSDK/cloud/alicloud/src/services/awss\zconfig_protocol.c ****             /*
 762              		.loc 1 198 13 is_stmt 1
 763              	.LVL69:
 764              	.LBB53:
 765              	.LBB54:
 281:..\..\..\..\cloud\alicloud\src\services\dev_bind\os/os.h **** }
 766              		.loc 2 281 5
 767 0064 03A50754 		lw	a0,1344(a5)
 768              	.LVL70:
 769 0068 97000000 		call	HAL_MutexLock
 769      E7800000 
 770              	.LVL71:
 771              	.LBE54:
 772              	.LBE53:
 203:C:/Users/stapi/OneDrive/Desktop/GD32VW553/V1_MQTT_OK/GD32VW55X_Wifi_BLE_SDK/GD32VW55x_RELEASE_V1.0.2/MSDK/cloud/alicloud/src/services/awss\zconfig_protocol.c ****                 zconfig_callback_channel_locked(channel);
 773              		.loc 1 203 13
 774              	.LBB55:
 775              	.LBB56:
 128:C:/Users/stapi/OneDrive/Desktop/GD32VW553/V1_MQTT_OK/GD32VW55X_Wifi_BLE_SDK/GD32VW55x_RELEASE_V1.0.2/MSDK/cloud/alicloud/src/services/awss\zconfig_protocol.c **** }
 776              		.loc 1 128 5
 777              	.LBE56:
 778              	.LBE55:
 203:C:/Users/stapi/OneDrive/Desktop/GD32VW553/V1_MQTT_OK/GD32VW55X_Wifi_BLE_SDK/GD32VW55x_RELEASE_V1.0.2/MSDK/cloud/alicloud/src/services/awss\zconfig_protocol.c ****                 zconfig_callback_channel_locked(channel);
 779              		.loc 1 203 16 is_stmt 0
 780 0070 B7070000 		lui	a5,%hi(.LANCHOR0)
 781 0074 83C70700 		lbu	a5,%lo(.LANCHOR0)(a5)
 782 0078 91E7     		bne	a5,zero,.L52
 204:C:/Users/stapi/OneDrive/Desktop/GD32VW553/V1_MQTT_OK/GD32VW55X_Wifi_BLE_SDK/GD32VW55x_RELEASE_V1.0.2/MSDK/cloud/alicloud/src/services/awss\zconfig_protocol.c ****             }
 783              		.loc 1 204 17 is_stmt 1
 784 007a 2685     		mv	a0,s1
 785 007c 97000000 		call	zconfig_callback_channel_locked
 785      E7800000 
 786              	.LVL72:
 787              	.L52:
 206:C:/Users/stapi/OneDrive/Desktop/GD32VW553/V1_MQTT_OK/GD32VW55X_Wifi_BLE_SDK/GD32VW55x_RELEASE_V1.0.2/MSDK/cloud/alicloud/src/services/awss\zconfig_protocol.c ****             break;
 788              		.loc 1 206 13
 206:C:/Users/stapi/OneDrive/Desktop/GD32VW553/V1_MQTT_OK/GD32VW55X_Wifi_BLE_SDK/GD32VW55x_RELEASE_V1.0.2/MSDK/cloud/alicloud/src/services/awss\zconfig_protocol.c ****             break;
 789              		.loc 1 206 35 is_stmt 0
 790 0084 03250900 		lw	a0,0(s2)
 206:C:/Users/stapi/OneDrive/Desktop/GD32VW553/V1_MQTT_OK/GD32VW55X_Wifi_BLE_SDK/GD32VW55x_RELEASE_V1.0.2/MSDK/cloud/alicloud/src/services/awss\zconfig_protocol.c ****             break;
 791              		.loc 1 206 13
 792 0088 1307854A 		addi	a4,a0,1192
 793 008c 93068549 		addi	a3,a0,1176
 794 0090 1306A54E 		addi	a2,a0,1258
 795 0094 9305954A 		addi	a1,a0,1193
 796 0098 13057547 		addi	a0,a0,1143
 797 009c 97000000 		call	zconfig_callback_over
 797      E7800000 
 798              	.LVL73:
 207:C:/Users/stapi/OneDrive/Desktop/GD32VW553/V1_MQTT_OK/GD32VW55X_Wifi_BLE_SDK/GD32VW55x_RELEASE_V1.0.2/MSDK/cloud/alicloud/src/services/awss\zconfig_protocol.c ****         default:
 799              		.loc 1 207 13 is_stmt 1
 800 00a4 61B7     		j	.L49
 801              	.LVL74:
 802              	.L47:
 194:C:/Users/stapi/OneDrive/Desktop/GD32VW553/V1_MQTT_OK/GD32VW55X_Wifi_BLE_SDK/GD32VW55x_RELEASE_V1.0.2/MSDK/cloud/alicloud/src/services/awss\zconfig_protocol.c ****             break;
 803              		.loc 1 194 13
 194:C:/Users/stapi/OneDrive/Desktop/GD32VW553/V1_MQTT_OK/GD32VW55X_Wifi_BLE_SDK/GD32VW55x_RELEASE_V1.0.2/MSDK/cloud/alicloud/src/services/awss\zconfig_protocol.c ****             break;
 804              		.loc 1 194 45 is_stmt 0
 805 00a6 83C76747 		lbu	a5,1142(a5)
 194:C:/Users/stapi/OneDrive/Desktop/GD32VW553/V1_MQTT_OK/GD32VW55X_Wifi_BLE_SDK/GD32VW55x_RELEASE_V1.0.2/MSDK/cloud/alicloud/src/services/awss\zconfig_protocol.c ****             break;
 806              		.loc 1 194 13
 807 00aa 91C3     		beq	a5,zero,.L51
 808 00ac BE84     		mv	s1,a5
 809              	.L51:
 194:C:/Users/stapi/OneDrive/Desktop/GD32VW553/V1_MQTT_OK/GD32VW55X_Wifi_BLE_SDK/GD32VW55x_RELEASE_V1.0.2/MSDK/cloud/alicloud/src/services/awss\zconfig_protocol.c ****             break;
 810              		.loc 1 194 13 discriminator 4
 811 00ae 2685     		mv	a0,s1
 812              	.LVL75:
 813 00b0 97000000 		call	zconfig_callback_channel_locked
 813      E7800000 
 814              	.LVL76:
 195:C:/Users/stapi/OneDrive/Desktop/GD32VW553/V1_MQTT_OK/GD32VW55X_Wifi_BLE_SDK/GD32VW55x_RELEASE_V1.0.2/MSDK/cloud/alicloud/src/services/awss\zconfig_protocol.c ****         case STATE_RCV_DONE:
 815              		.loc 1 195 13 is_stmt 1 discriminator 4
 816 00b8 95BF     		j	.L49
 817              		.cfi_endproc
 818              	.LFE54:
 820              		.section	.text.zconfig_recv_callback,"ax",@progbits
 821              		.align	1
 822              		.globl	zconfig_recv_callback
 824              	zconfig_recv_callback:
 825              	.LFB55:
 230:C:/Users/stapi/OneDrive/Desktop/GD32VW553/V1_MQTT_OK/GD32VW55X_Wifi_BLE_SDK/GD32VW55x_RELEASE_V1.0.2/MSDK/cloud/alicloud/src/services/awss\zconfig_protocol.c **** 
 231:C:/Users/stapi/OneDrive/Desktop/GD32VW553/V1_MQTT_OK/GD32VW55X_Wifi_BLE_SDK/GD32VW55x_RELEASE_V1.0.2/MSDK/cloud/alicloud/src/services/awss\zconfig_protocol.c **** /*
 232:C:/Users/stapi/OneDrive/Desktop/GD32VW553/V1_MQTT_OK/GD32VW55X_Wifi_BLE_SDK/GD32VW55x_RELEASE_V1.0.2/MSDK/cloud/alicloud/src/services/awss\zconfig_protocol.c ****  * zconfig_recv_callback()
 233:C:/Users/stapi/OneDrive/Desktop/GD32VW553/V1_MQTT_OK/GD32VW55X_Wifi_BLE_SDK/GD32VW55x_RELEASE_V1.0.2/MSDK/cloud/alicloud/src/services/awss\zconfig_protocol.c ****  *
 234:C:/Users/stapi/OneDrive/Desktop/GD32VW553/V1_MQTT_OK/GD32VW55X_Wifi_BLE_SDK/GD32VW55x_RELEASE_V1.0.2/MSDK/cloud/alicloud/src/services/awss\zconfig_protocol.c ****  * ieee80211 package parser
 235:C:/Users/stapi/OneDrive/Desktop/GD32VW553/V1_MQTT_OK/GD32VW55X_Wifi_BLE_SDK/GD32VW55x_RELEASE_V1.0.2/MSDK/cloud/alicloud/src/services/awss\zconfig_protocol.c ****  *
 236:C:/Users/stapi/OneDrive/Desktop/GD32VW553/V1_MQTT_OK/GD32VW55X_Wifi_BLE_SDK/GD32VW55x_RELEASE_V1.0.2/MSDK/cloud/alicloud/src/services/awss\zconfig_protocol.c ****  * @Return:
 237:C:/Users/stapi/OneDrive/Desktop/GD32VW553/V1_MQTT_OK/GD32VW55X_Wifi_BLE_SDK/GD32VW55x_RELEASE_V1.0.2/MSDK/cloud/alicloud/src/services/awss\zconfig_protocol.c ****  *     zconfig state
 238:C:/Users/stapi/OneDrive/Desktop/GD32VW553/V1_MQTT_OK/GD32VW55X_Wifi_BLE_SDK/GD32VW55x_RELEASE_V1.0.2/MSDK/cloud/alicloud/src/services/awss\zconfig_protocol.c ****  */
 239:C:/Users/stapi/OneDrive/Desktop/GD32VW553/V1_MQTT_OK/GD32VW55X_Wifi_BLE_SDK/GD32VW55x_RELEASE_V1.0.2/MSDK/cloud/alicloud/src/services/awss\zconfig_protocol.c **** int zconfig_recv_callback(void *pkt_data, uint32_t pkt_length, uint8_t channel,
 240:C:/Users/stapi/OneDrive/Desktop/GD32VW553/V1_MQTT_OK/GD32VW55X_Wifi_BLE_SDK/GD32VW55x_RELEASE_V1.0.2/MSDK/cloud/alicloud/src/services/awss\zconfig_protocol.c ****                           int link_type, int with_fcs, signed char rssi)
 241:C:/Users/stapi/OneDrive/Desktop/GD32VW553/V1_MQTT_OK/GD32VW55X_Wifi_BLE_SDK/GD32VW55x_RELEASE_V1.0.2/MSDK/cloud/alicloud/src/services/awss\zconfig_protocol.c **** {
 826              		.loc 1 241 1
 827              		.cfi_startproc
 828              	.LVL77:
 829 0000 17030000 		call	t0,__riscv_save_6
 829      E7020300 
 830              		.cfi_offset 21, -28
 831              		.cfi_offset 20, -24
 832              		.cfi_offset 19, -20
 833              		.cfi_offset 18, -16
 834              		.cfi_offset 9, -12
 835              		.cfi_offset 8, -8
 836              		.cfi_offset 1, -4
 837              		.cfi_def_cfa_offset 32
 242:C:/Users/stapi/OneDrive/Desktop/GD32VW553/V1_MQTT_OK/GD32VW55X_Wifi_BLE_SDK/GD32VW55x_RELEASE_V1.0.2/MSDK/cloud/alicloud/src/services/awss\zconfig_protocol.c ****     int pkt_type = PKG_INVALID;
 838              		.loc 1 242 5
 839              	.LVL78:
 243:C:/Users/stapi/OneDrive/Desktop/GD32VW553/V1_MQTT_OK/GD32VW55X_Wifi_BLE_SDK/GD32VW55x_RELEASE_V1.0.2/MSDK/cloud/alicloud/src/services/awss\zconfig_protocol.c ****     struct parser_res res;
 840              		.loc 1 243 5
 244:C:/Users/stapi/OneDrive/Desktop/GD32VW553/V1_MQTT_OK/GD32VW55X_Wifi_BLE_SDK/GD32VW55x_RELEASE_V1.0.2/MSDK/cloud/alicloud/src/services/awss\zconfig_protocol.c ****     memset(&res, 0, sizeof(res));
 841              		.loc 1 244 5
 241:C:/Users/stapi/OneDrive/Desktop/GD32VW553/V1_MQTT_OK/GD32VW55X_Wifi_BLE_SDK/GD32VW55x_RELEASE_V1.0.2/MSDK/cloud/alicloud/src/services/awss\zconfig_protocol.c ****     int pkt_type = PKG_INVALID;
 842              		.loc 1 241 1 is_stmt 0
 843 0008 0111     		addi	sp,sp,-32
 844              		.cfi_def_cfa_offset 64
 241:C:/Users/stapi/OneDrive/Desktop/GD32VW553/V1_MQTT_OK/GD32VW55X_Wifi_BLE_SDK/GD32VW55x_RELEASE_V1.0.2/MSDK/cloud/alicloud/src/services/awss\zconfig_protocol.c ****     int pkt_type = PKG_INVALID;
 845              		.loc 1 241 1
 846 000a AA84     		mv	s1,a0
 847 000c 2E84     		mv	s0,a1
 848 000e 328A     		mv	s4,a2
 849 0010 BA8A     		mv	s5,a4
 850              		.loc 1 244 5
 851 0012 6146     		li	a2,24
 852              	.LVL79:
 853 0014 8145     		li	a1,0
 854              	.LVL80:
 855 0016 2800     		addi	a0,sp,8
 856              	.LVL81:
 241:C:/Users/stapi/OneDrive/Desktop/GD32VW553/V1_MQTT_OK/GD32VW55X_Wifi_BLE_SDK/GD32VW55x_RELEASE_V1.0.2/MSDK/cloud/alicloud/src/services/awss\zconfig_protocol.c ****     int pkt_type = PKG_INVALID;
 857              		.loc 1 241 1
 858 0018 3689     		mv	s2,a3
 859 001a BE89     		mv	s3,a5
 860              		.loc 1 244 5
 861 001c 97000000 		call	memset
 861      E7800000 
 862              	.LVL82:
 245:C:/Users/stapi/OneDrive/Desktop/GD32VW553/V1_MQTT_OK/GD32VW55X_Wifi_BLE_SDK/GD32VW55x_RELEASE_V1.0.2/MSDK/cloud/alicloud/src/services/awss\zconfig_protocol.c **** 
 246:C:/Users/stapi/OneDrive/Desktop/GD32VW553/V1_MQTT_OK/GD32VW55X_Wifi_BLE_SDK/GD32VW55x_RELEASE_V1.0.2/MSDK/cloud/alicloud/src/services/awss\zconfig_protocol.c ****     /* remove FCS filed */
 247:C:/Users/stapi/OneDrive/Desktop/GD32VW553/V1_MQTT_OK/GD32VW55X_Wifi_BLE_SDK/GD32VW55x_RELEASE_V1.0.2/MSDK/cloud/alicloud/src/services/awss\zconfig_protocol.c ****     if (with_fcs) {
 863              		.loc 1 247 5 is_stmt 1
 864              		.loc 1 247 8 is_stmt 0
 865 0024 63830A00 		beq	s5,zero,.L60
 248:C:/Users/stapi/OneDrive/Desktop/GD32VW553/V1_MQTT_OK/GD32VW55X_Wifi_BLE_SDK/GD32VW55x_RELEASE_V1.0.2/MSDK/cloud/alicloud/src/services/awss\zconfig_protocol.c ****         pkt_length -= 4;
 866              		.loc 1 248 9 is_stmt 1
 867              		.loc 1 248 20 is_stmt 0
 868 0028 7114     		addi	s0,s0,-4
 869              	.LVL83:
 870              	.L60:
 249:C:/Users/stapi/OneDrive/Desktop/GD32VW553/V1_MQTT_OK/GD32VW55X_Wifi_BLE_SDK/GD32VW55x_RELEASE_V1.0.2/MSDK/cloud/alicloud/src/services/awss\zconfig_protocol.c ****     }
 250:C:/Users/stapi/OneDrive/Desktop/GD32VW553/V1_MQTT_OK/GD32VW55X_Wifi_BLE_SDK/GD32VW55x_RELEASE_V1.0.2/MSDK/cloud/alicloud/src/services/awss\zconfig_protocol.c **** 
 251:C:/Users/stapi/OneDrive/Desktop/GD32VW553/V1_MQTT_OK/GD32VW55X_Wifi_BLE_SDK/GD32VW55x_RELEASE_V1.0.2/MSDK/cloud/alicloud/src/services/awss\zconfig_protocol.c ****     /* useless, will be removed */
 252:C:/Users/stapi/OneDrive/Desktop/GD32VW553/V1_MQTT_OK/GD32VW55X_Wifi_BLE_SDK/GD32VW55x_RELEASE_V1.0.2/MSDK/cloud/alicloud/src/services/awss\zconfig_protocol.c ****     if (ieee80211_is_invalid_pkg(pkt_data, pkt_length)) {
 871              		.loc 1 252 5 is_stmt 1
 872              		.loc 1 252 9 is_stmt 0
 873 002a A285     		mv	a1,s0
 874 002c 2685     		mv	a0,s1
 875 002e 97000000 		call	ieee80211_is_invalid_pkg
 875      E7800000 
 876              	.LVL84:
 877 0036 AA87     		mv	a5,a0
 253:C:/Users/stapi/OneDrive/Desktop/GD32VW553/V1_MQTT_OK/GD32VW55X_Wifi_BLE_SDK/GD32VW55x_RELEASE_V1.0.2/MSDK/cloud/alicloud/src/services/awss\zconfig_protocol.c ****         return PKG_INVALID;
 878              		.loc 1 253 16
 879 0038 0145     		li	a0,0
 252:C:/Users/stapi/OneDrive/Desktop/GD32VW553/V1_MQTT_OK/GD32VW55X_Wifi_BLE_SDK/GD32VW55x_RELEASE_V1.0.2/MSDK/cloud/alicloud/src/services/awss\zconfig_protocol.c ****         return PKG_INVALID;
 880              		.loc 1 252 8
 881 003a 81EF     		bne	a5,zero,.L59
 254:C:/Users/stapi/OneDrive/Desktop/GD32VW553/V1_MQTT_OK/GD32VW55X_Wifi_BLE_SDK/GD32VW55x_RELEASE_V1.0.2/MSDK/cloud/alicloud/src/services/awss\zconfig_protocol.c ****     }
 255:C:/Users/stapi/OneDrive/Desktop/GD32VW553/V1_MQTT_OK/GD32VW55X_Wifi_BLE_SDK/GD32VW55x_RELEASE_V1.0.2/MSDK/cloud/alicloud/src/services/awss\zconfig_protocol.c **** 
 256:C:/Users/stapi/OneDrive/Desktop/GD32VW553/V1_MQTT_OK/GD32VW55X_Wifi_BLE_SDK/GD32VW55x_RELEASE_V1.0.2/MSDK/cloud/alicloud/src/services/awss\zconfig_protocol.c ****     res.channel = channel;
 882              		.loc 1 256 5 is_stmt 1
 257:C:/Users/stapi/OneDrive/Desktop/GD32VW553/V1_MQTT_OK/GD32VW55X_Wifi_BLE_SDK/GD32VW55x_RELEASE_V1.0.2/MSDK/cloud/alicloud/src/services/awss\zconfig_protocol.c **** 
 258:C:/Users/stapi/OneDrive/Desktop/GD32VW553/V1_MQTT_OK/GD32VW55X_Wifi_BLE_SDK/GD32VW55x_RELEASE_V1.0.2/MSDK/cloud/alicloud/src/services/awss\zconfig_protocol.c ****     pkt_type = ieee80211_data_extract(pkt_data, pkt_length, link_type, &res, rssi);
 883              		.loc 1 258 16 is_stmt 0
 884 003c 4E87     		mv	a4,s3
 885 003e 3400     		addi	a3,sp,8
 886 0040 4A86     		mv	a2,s2
 887 0042 A285     		mv	a1,s0
 888 0044 2685     		mv	a0,s1
 256:C:/Users/stapi/OneDrive/Desktop/GD32VW553/V1_MQTT_OK/GD32VW55X_Wifi_BLE_SDK/GD32VW55x_RELEASE_V1.0.2/MSDK/cloud/alicloud/src/services/awss\zconfig_protocol.c **** 
 889              		.loc 1 256 17
 890 0046 A30E4101 		sb	s4,29(sp)
 891              		.loc 1 258 5 is_stmt 1
 892              		.loc 1 258 16 is_stmt 0
 893 004a 97000000 		call	ieee80211_data_extract
 893      E7800000 
 894              	.LVL85:
 259:C:/Users/stapi/OneDrive/Desktop/GD32VW553/V1_MQTT_OK/GD32VW55X_Wifi_BLE_SDK/GD32VW55x_RELEASE_V1.0.2/MSDK/cloud/alicloud/src/services/awss\zconfig_protocol.c **** 
 260:C:/Users/stapi/OneDrive/Desktop/GD32VW553/V1_MQTT_OK/GD32VW55X_Wifi_BLE_SDK/GD32VW55x_RELEASE_V1.0.2/MSDK/cloud/alicloud/src/services/awss\zconfig_protocol.c ****     return pkt_type;
 895              		.loc 1 260 5 is_stmt 1
 896              	.L59:
 261:C:/Users/stapi/OneDrive/Desktop/GD32VW553/V1_MQTT_OK/GD32VW55X_Wifi_BLE_SDK/GD32VW55x_RELEASE_V1.0.2/MSDK/cloud/alicloud/src/services/awss\zconfig_protocol.c **** }
 897              		.loc 1 261 1 is_stmt 0
 898 0052 0561     		addi	sp,sp,32
 899              		.cfi_def_cfa_offset 0
 900 0054 17030000 		tail	__riscv_restore_6
 900      67000300 
 901              		.cfi_restore 21
 902              		.cfi_restore 20
 903              		.cfi_restore 19
 904              		.cfi_restore 18
 905              		.cfi_restore 9
 906              		.cfi_restore 8
 907              		.cfi_restore 1
 908              		.cfi_def_cfa_offset -32
 909              		.cfi_endproc
 910              	.LFE55:
 912              		.section	.rodata.zconfig_destroy.str1.4,"aMS",@progbits,1
 913              		.align	2
 914              	.LC6:
 915 0000 7A635F6D 		.string	"zc_mutex to free"
 915      75746578 
 915      20746F20 
 915      66726565 
 915      00
 916 0011 000000   		.align	2
 917              	.LC7:
 918 0014 61777373 		.string	"awss"
 918      00
 919 0019 000000   		.align	2
 920              	.LC8:
 921 001c 7A636F6E 		.string	"zconfig data to free"
 921      66696720 
 921      64617461 
 921      20746F20 
 921      66726565 
 922 0031 000000   		.align	2
 923              	.LC9:
 924 0034 7A636F6E 		.string	"zconfig data released"
 924      66696720 
 924      64617461 
 924      2072656C 
 924      65617365 
 925              		.section	.text.zconfig_destroy,"ax",@progbits
 926              		.align	1
 927              		.globl	zconfig_destroy
 929              	zconfig_destroy:
 930              	.LFB57:
 262:C:/Users/stapi/OneDrive/Desktop/GD32VW553/V1_MQTT_OK/GD32VW55X_Wifi_BLE_SDK/GD32VW55x_RELEASE_V1.0.2/MSDK/cloud/alicloud/src/services/awss\zconfig_protocol.c **** 
 263:C:/Users/stapi/OneDrive/Desktop/GD32VW553/V1_MQTT_OK/GD32VW55X_Wifi_BLE_SDK/GD32VW55x_RELEASE_V1.0.2/MSDK/cloud/alicloud/src/services/awss\zconfig_protocol.c **** /* init mem & timer */
 264:C:/Users/stapi/OneDrive/Desktop/GD32VW553/V1_MQTT_OK/GD32VW55X_Wifi_BLE_SDK/GD32VW55x_RELEASE_V1.0.2/MSDK/cloud/alicloud/src/services/awss\zconfig_protocol.c **** void zconfig_init()
 265:C:/Users/stapi/OneDrive/Desktop/GD32VW553/V1_MQTT_OK/GD32VW55X_Wifi_BLE_SDK/GD32VW55x_RELEASE_V1.0.2/MSDK/cloud/alicloud/src/services/awss\zconfig_protocol.c **** {
 266:C:/Users/stapi/OneDrive/Desktop/GD32VW553/V1_MQTT_OK/GD32VW55X_Wifi_BLE_SDK/GD32VW55x_RELEASE_V1.0.2/MSDK/cloud/alicloud/src/services/awss\zconfig_protocol.c ****     awss_info("%s\r\n", __func__);
 267:C:/Users/stapi/OneDrive/Desktop/GD32VW553/V1_MQTT_OK/GD32VW55X_Wifi_BLE_SDK/GD32VW55x_RELEASE_V1.0.2/MSDK/cloud/alicloud/src/services/awss\zconfig_protocol.c **** 
 268:C:/Users/stapi/OneDrive/Desktop/GD32VW553/V1_MQTT_OK/GD32VW55X_Wifi_BLE_SDK/GD32VW55x_RELEASE_V1.0.2/MSDK/cloud/alicloud/src/services/awss\zconfig_protocol.c ****     zconfig_channel_locked = INVALID_CHANNEL;
 269:C:/Users/stapi/OneDrive/Desktop/GD32VW553/V1_MQTT_OK/GD32VW55X_Wifi_BLE_SDK/GD32VW55x_RELEASE_V1.0.2/MSDK/cloud/alicloud/src/services/awss\zconfig_protocol.c ****     zconfig_finished = 0;
 270:C:/Users/stapi/OneDrive/Desktop/GD32VW553/V1_MQTT_OK/GD32VW55X_Wifi_BLE_SDK/GD32VW55x_RELEASE_V1.0.2/MSDK/cloud/alicloud/src/services/awss\zconfig_protocol.c **** 
 271:C:/Users/stapi/OneDrive/Desktop/GD32VW553/V1_MQTT_OK/GD32VW55X_Wifi_BLE_SDK/GD32VW55x_RELEASE_V1.0.2/MSDK/cloud/alicloud/src/services/awss\zconfig_protocol.c ****     zconfig_data = (struct zconfig_data *)os_zalloc(sizeof(struct zconfig_data));
 272:C:/Users/stapi/OneDrive/Desktop/GD32VW553/V1_MQTT_OK/GD32VW55X_Wifi_BLE_SDK/GD32VW55x_RELEASE_V1.0.2/MSDK/cloud/alicloud/src/services/awss\zconfig_protocol.c ****     if (zconfig_data == NULL) {
 273:C:/Users/stapi/OneDrive/Desktop/GD32VW553/V1_MQTT_OK/GD32VW55X_Wifi_BLE_SDK/GD32VW55x_RELEASE_V1.0.2/MSDK/cloud/alicloud/src/services/awss\zconfig_protocol.c ****         goto ZCONFIG_INIT_FAIL;
 274:C:/Users/stapi/OneDrive/Desktop/GD32VW553/V1_MQTT_OK/GD32VW55X_Wifi_BLE_SDK/GD32VW55x_RELEASE_V1.0.2/MSDK/cloud/alicloud/src/services/awss\zconfig_protocol.c ****     }
 275:C:/Users/stapi/OneDrive/Desktop/GD32VW553/V1_MQTT_OK/GD32VW55X_Wifi_BLE_SDK/GD32VW55x_RELEASE_V1.0.2/MSDK/cloud/alicloud/src/services/awss\zconfig_protocol.c ****     zc_mutex = os_mutex_init();
 276:C:/Users/stapi/OneDrive/Desktop/GD32VW553/V1_MQTT_OK/GD32VW55X_Wifi_BLE_SDK/GD32VW55x_RELEASE_V1.0.2/MSDK/cloud/alicloud/src/services/awss\zconfig_protocol.c ****     if (zc_mutex == NULL) {
 277:C:/Users/stapi/OneDrive/Desktop/GD32VW553/V1_MQTT_OK/GD32VW55X_Wifi_BLE_SDK/GD32VW55x_RELEASE_V1.0.2/MSDK/cloud/alicloud/src/services/awss\zconfig_protocol.c ****         goto ZCONFIG_INIT_FAIL;
 278:C:/Users/stapi/OneDrive/Desktop/GD32VW553/V1_MQTT_OK/GD32VW55X_Wifi_BLE_SDK/GD32VW55x_RELEASE_V1.0.2/MSDK/cloud/alicloud/src/services/awss\zconfig_protocol.c ****     }
 279:C:/Users/stapi/OneDrive/Desktop/GD32VW553/V1_MQTT_OK/GD32VW55X_Wifi_BLE_SDK/GD32VW55x_RELEASE_V1.0.2/MSDK/cloud/alicloud/src/services/awss\zconfig_protocol.c **** 
 280:C:/Users/stapi/OneDrive/Desktop/GD32VW553/V1_MQTT_OK/GD32VW55X_Wifi_BLE_SDK/GD32VW55x_RELEASE_V1.0.2/MSDK/cloud/alicloud/src/services/awss\zconfig_protocol.c **** #ifdef AWSS_SUPPORT_APLIST
 281:C:/Users/stapi/OneDrive/Desktop/GD32VW553/V1_MQTT_OK/GD32VW55X_Wifi_BLE_SDK/GD32VW55x_RELEASE_V1.0.2/MSDK/cloud/alicloud/src/services/awss\zconfig_protocol.c ****     if (awss_init_ieee80211_aplist()) {
 282:C:/Users/stapi/OneDrive/Desktop/GD32VW553/V1_MQTT_OK/GD32VW55X_Wifi_BLE_SDK/GD32VW55x_RELEASE_V1.0.2/MSDK/cloud/alicloud/src/services/awss\zconfig_protocol.c ****         goto ZCONFIG_INIT_FAIL;
 283:C:/Users/stapi/OneDrive/Desktop/GD32VW553/V1_MQTT_OK/GD32VW55X_Wifi_BLE_SDK/GD32VW55x_RELEASE_V1.0.2/MSDK/cloud/alicloud/src/services/awss\zconfig_protocol.c ****     }
 284:C:/Users/stapi/OneDrive/Desktop/GD32VW553/V1_MQTT_OK/GD32VW55X_Wifi_BLE_SDK/GD32VW55x_RELEASE_V1.0.2/MSDK/cloud/alicloud/src/services/awss\zconfig_protocol.c **** #endif
 285:C:/Users/stapi/OneDrive/Desktop/GD32VW553/V1_MQTT_OK/GD32VW55X_Wifi_BLE_SDK/GD32VW55x_RELEASE_V1.0.2/MSDK/cloud/alicloud/src/services/awss\zconfig_protocol.c **** #if defined(AWSS_SUPPORT_ADHA) || defined(AWSS_SUPPORT_AHA)
 286:C:/Users/stapi/OneDrive/Desktop/GD32VW553/V1_MQTT_OK/GD32VW55X_Wifi_BLE_SDK/GD32VW55x_RELEASE_V1.0.2/MSDK/cloud/alicloud/src/services/awss\zconfig_protocol.c ****     if (awss_init_adha_aplist()) {
 287:C:/Users/stapi/OneDrive/Desktop/GD32VW553/V1_MQTT_OK/GD32VW55X_Wifi_BLE_SDK/GD32VW55x_RELEASE_V1.0.2/MSDK/cloud/alicloud/src/services/awss\zconfig_protocol.c ****         goto ZCONFIG_INIT_FAIL;
 288:C:/Users/stapi/OneDrive/Desktop/GD32VW553/V1_MQTT_OK/GD32VW55X_Wifi_BLE_SDK/GD32VW55x_RELEASE_V1.0.2/MSDK/cloud/alicloud/src/services/awss\zconfig_protocol.c ****     }
 289:C:/Users/stapi/OneDrive/Desktop/GD32VW553/V1_MQTT_OK/GD32VW55X_Wifi_BLE_SDK/GD32VW55x_RELEASE_V1.0.2/MSDK/cloud/alicloud/src/services/awss\zconfig_protocol.c **** #endif
 290:C:/Users/stapi/OneDrive/Desktop/GD32VW553/V1_MQTT_OK/GD32VW55X_Wifi_BLE_SDK/GD32VW55x_RELEASE_V1.0.2/MSDK/cloud/alicloud/src/services/awss\zconfig_protocol.c **** 
 291:C:/Users/stapi/OneDrive/Desktop/GD32VW553/V1_MQTT_OK/GD32VW55X_Wifi_BLE_SDK/GD32VW55x_RELEASE_V1.0.2/MSDK/cloud/alicloud/src/services/awss\zconfig_protocol.c **** #ifdef AWSS_SUPPORT_HT40
 292:C:/Users/stapi/OneDrive/Desktop/GD32VW553/V1_MQTT_OK/GD32VW55X_Wifi_BLE_SDK/GD32VW55x_RELEASE_V1.0.2/MSDK/cloud/alicloud/src/services/awss\zconfig_protocol.c ****     ht40_init();
 293:C:/Users/stapi/OneDrive/Desktop/GD32VW553/V1_MQTT_OK/GD32VW55X_Wifi_BLE_SDK/GD32VW55x_RELEASE_V1.0.2/MSDK/cloud/alicloud/src/services/awss\zconfig_protocol.c **** #endif
 294:C:/Users/stapi/OneDrive/Desktop/GD32VW553/V1_MQTT_OK/GD32VW55X_Wifi_BLE_SDK/GD32VW55x_RELEASE_V1.0.2/MSDK/cloud/alicloud/src/services/awss\zconfig_protocol.c ****     return;
 295:C:/Users/stapi/OneDrive/Desktop/GD32VW553/V1_MQTT_OK/GD32VW55X_Wifi_BLE_SDK/GD32VW55x_RELEASE_V1.0.2/MSDK/cloud/alicloud/src/services/awss\zconfig_protocol.c **** 
 296:C:/Users/stapi/OneDrive/Desktop/GD32VW553/V1_MQTT_OK/GD32VW55X_Wifi_BLE_SDK/GD32VW55x_RELEASE_V1.0.2/MSDK/cloud/alicloud/src/services/awss\zconfig_protocol.c **** ZCONFIG_INIT_FAIL:
 297:C:/Users/stapi/OneDrive/Desktop/GD32VW553/V1_MQTT_OK/GD32VW55X_Wifi_BLE_SDK/GD32VW55x_RELEASE_V1.0.2/MSDK/cloud/alicloud/src/services/awss\zconfig_protocol.c ****     awss_crit("malloc failed!\r\n");
 298:C:/Users/stapi/OneDrive/Desktop/GD32VW553/V1_MQTT_OK/GD32VW55X_Wifi_BLE_SDK/GD32VW55x_RELEASE_V1.0.2/MSDK/cloud/alicloud/src/services/awss\zconfig_protocol.c ****     zconfig_destroy();
 299:C:/Users/stapi/OneDrive/Desktop/GD32VW553/V1_MQTT_OK/GD32VW55X_Wifi_BLE_SDK/GD32VW55x_RELEASE_V1.0.2/MSDK/cloud/alicloud/src/services/awss\zconfig_protocol.c **** 
 300:C:/Users/stapi/OneDrive/Desktop/GD32VW553/V1_MQTT_OK/GD32VW55X_Wifi_BLE_SDK/GD32VW55x_RELEASE_V1.0.2/MSDK/cloud/alicloud/src/services/awss\zconfig_protocol.c **** #ifdef AWSS_SUPPORT_APLIST
 301:C:/Users/stapi/OneDrive/Desktop/GD32VW553/V1_MQTT_OK/GD32VW55X_Wifi_BLE_SDK/GD32VW55x_RELEASE_V1.0.2/MSDK/cloud/alicloud/src/services/awss\zconfig_protocol.c ****     awss_deinit_ieee80211_aplist();
 302:C:/Users/stapi/OneDrive/Desktop/GD32VW553/V1_MQTT_OK/GD32VW55X_Wifi_BLE_SDK/GD32VW55x_RELEASE_V1.0.2/MSDK/cloud/alicloud/src/services/awss\zconfig_protocol.c **** #endif
 303:C:/Users/stapi/OneDrive/Desktop/GD32VW553/V1_MQTT_OK/GD32VW55X_Wifi_BLE_SDK/GD32VW55x_RELEASE_V1.0.2/MSDK/cloud/alicloud/src/services/awss\zconfig_protocol.c **** #if defined(AWSS_SUPPORT_ADHA) || defined(AWSS_SUPPORT_AHA)
 304:C:/Users/stapi/OneDrive/Desktop/GD32VW553/V1_MQTT_OK/GD32VW55X_Wifi_BLE_SDK/GD32VW55x_RELEASE_V1.0.2/MSDK/cloud/alicloud/src/services/awss\zconfig_protocol.c ****     awss_deinit_adha_aplist();
 305:C:/Users/stapi/OneDrive/Desktop/GD32VW553/V1_MQTT_OK/GD32VW55X_Wifi_BLE_SDK/GD32VW55x_RELEASE_V1.0.2/MSDK/cloud/alicloud/src/services/awss\zconfig_protocol.c **** #endif
 306:C:/Users/stapi/OneDrive/Desktop/GD32VW553/V1_MQTT_OK/GD32VW55X_Wifi_BLE_SDK/GD32VW55x_RELEASE_V1.0.2/MSDK/cloud/alicloud/src/services/awss\zconfig_protocol.c ****     return;
 307:C:/Users/stapi/OneDrive/Desktop/GD32VW553/V1_MQTT_OK/GD32VW55X_Wifi_BLE_SDK/GD32VW55x_RELEASE_V1.0.2/MSDK/cloud/alicloud/src/services/awss\zconfig_protocol.c **** }
 308:C:/Users/stapi/OneDrive/Desktop/GD32VW553/V1_MQTT_OK/GD32VW55X_Wifi_BLE_SDK/GD32VW55x_RELEASE_V1.0.2/MSDK/cloud/alicloud/src/services/awss\zconfig_protocol.c **** 
 309:C:/Users/stapi/OneDrive/Desktop/GD32VW553/V1_MQTT_OK/GD32VW55X_Wifi_BLE_SDK/GD32VW55x_RELEASE_V1.0.2/MSDK/cloud/alicloud/src/services/awss\zconfig_protocol.c **** void zconfig_destroy(void)
 310:C:/Users/stapi/OneDrive/Desktop/GD32VW553/V1_MQTT_OK/GD32VW55X_Wifi_BLE_SDK/GD32VW55x_RELEASE_V1.0.2/MSDK/cloud/alicloud/src/services/awss\zconfig_protocol.c **** {
 931              		.loc 1 310 1 is_stmt 1
 932              		.cfi_startproc
 933 0000 17030000 		call	t0,__riscv_save_3
 933      E7020300 
 934              		.cfi_offset 18, -16
 935              		.cfi_offset 9, -12
 936              		.cfi_offset 8, -8
 937              		.cfi_offset 1, -4
 938              		.cfi_def_cfa_offset 16
 311:C:/Users/stapi/OneDrive/Desktop/GD32VW553/V1_MQTT_OK/GD32VW55X_Wifi_BLE_SDK/GD32VW55x_RELEASE_V1.0.2/MSDK/cloud/alicloud/src/services/awss\zconfig_protocol.c ****     if (zconfig_data) {
 939              		.loc 1 311 5
 940              		.loc 1 311 9 is_stmt 0
 941 0008 37040000 		lui	s0,%hi(.LANCHOR1)
 942 000c 83270400 		lw	a5,%lo(.LANCHOR1)(s0)
 943              		.loc 1 311 8
 944 0010 C9C7     		beq	a5,zero,.L67
 312:C:/Users/stapi/OneDrive/Desktop/GD32VW553/V1_MQTT_OK/GD32VW55X_Wifi_BLE_SDK/GD32VW55x_RELEASE_V1.0.2/MSDK/cloud/alicloud/src/services/awss\zconfig_protocol.c ****         if (zc_mutex) {
 945              		.loc 1 312 12
 946 0012 83A70754 		lw	a5,1344(a5)
 947 0016 13040400 		addi	s0,s0,%lo(.LANCHOR1)
 948              		.loc 1 312 9 is_stmt 1
 949 001a 37090000 		lui	s2,%hi(.LANCHOR3)
 950 001e B7040000 		lui	s1,%hi(.LC7)
 951              		.loc 1 312 12 is_stmt 0
 952 0022 9DC7     		beq	a5,zero,.L69
 313:C:/Users/stapi/OneDrive/Desktop/GD32VW553/V1_MQTT_OK/GD32VW55X_Wifi_BLE_SDK/GD32VW55x_RELEASE_V1.0.2/MSDK/cloud/alicloud/src/services/awss\zconfig_protocol.c ****             awss_debug("zc_mutex to free");
 953              		.loc 1 313 13 is_stmt 1
 954 0024 37070000 		lui	a4,%hi(.LC6)
 955 0028 13850400 		addi	a0,s1,%lo(.LC7)
 956 002c 13070700 		addi	a4,a4,%lo(.LC6)
 957 0030 9546     		li	a3,5
 958 0032 13069013 		li	a2,313
 959 0036 93050900 		addi	a1,s2,%lo(.LANCHOR3)
 960 003a 97000000 		call	LITE_syslog
 960      E7800000 
 961              	.LVL86:
 314:C:/Users/stapi/OneDrive/Desktop/GD32VW553/V1_MQTT_OK/GD32VW55X_Wifi_BLE_SDK/GD32VW55x_RELEASE_V1.0.2/MSDK/cloud/alicloud/src/services/awss\zconfig_protocol.c ****             os_mutex_destroy(zc_mutex);
 962              		.loc 1 314 13
 963              	.LBB57:
 964              	.LBB58:
 268:..\..\..\..\cloud\alicloud\src\services\dev_bind\os/os.h **** }
 965              		.loc 2 268 5
 966              	.LBE58:
 967              	.LBE57:
 968              		.loc 1 314 13 is_stmt 0
 969 0042 1C40     		lw	a5,0(s0)
 970              	.LBB60:
 971              	.LBB59:
 268:..\..\..\..\cloud\alicloud\src\services\dev_bind\os/os.h **** }
 972              		.loc 2 268 5
 973 0044 03A50754 		lw	a0,1344(a5)
 974 0048 97000000 		call	HAL_MutexDestroy
 974      E7800000 
 975              	.LVL87:
 976              	.L69:
 977              	.LBE59:
 978              	.LBE60:
 315:C:/Users/stapi/OneDrive/Desktop/GD32VW553/V1_MQTT_OK/GD32VW55X_Wifi_BLE_SDK/GD32VW55x_RELEASE_V1.0.2/MSDK/cloud/alicloud/src/services/awss\zconfig_protocol.c ****         }
 316:C:/Users/stapi/OneDrive/Desktop/GD32VW553/V1_MQTT_OK/GD32VW55X_Wifi_BLE_SDK/GD32VW55x_RELEASE_V1.0.2/MSDK/cloud/alicloud/src/services/awss\zconfig_protocol.c ****         awss_debug("zconfig data to free");
 979              		.loc 1 316 9 is_stmt 1
 980 0050 37070000 		lui	a4,%hi(.LC8)
 981 0054 13070700 		addi	a4,a4,%lo(.LC8)
 982 0058 9546     		li	a3,5
 983 005a 1306C013 		li	a2,316
 984 005e 93050900 		addi	a1,s2,%lo(.LANCHOR3)
 985 0062 13850400 		addi	a0,s1,%lo(.LC7)
 986 0066 97000000 		call	LITE_syslog
 986      E7800000 
 987              	.LVL88:
 317:C:/Users/stapi/OneDrive/Desktop/GD32VW553/V1_MQTT_OK/GD32VW55X_Wifi_BLE_SDK/GD32VW55x_RELEASE_V1.0.2/MSDK/cloud/alicloud/src/services/awss\zconfig_protocol.c ****         os_free((void *)zconfig_data);
 988              		.loc 1 317 9
 989              	.LBB61:
 990              	.LBB62:
 394:..\..\..\..\cloud\alicloud\src\services\dev_bind\os/os.h **** }
 991              		.loc 2 394 5
 992 006e 0840     		lw	a0,0(s0)
 993 0070 97000000 		call	HAL_Free
 993      E7800000 
 994              	.LVL89:
 995              	.LBE62:
 996              	.LBE61:
 318:C:/Users/stapi/OneDrive/Desktop/GD32VW553/V1_MQTT_OK/GD32VW55X_Wifi_BLE_SDK/GD32VW55x_RELEASE_V1.0.2/MSDK/cloud/alicloud/src/services/awss\zconfig_protocol.c ****         zconfig_data = NULL;
 997              		.loc 1 318 9
 319:C:/Users/stapi/OneDrive/Desktop/GD32VW553/V1_MQTT_OK/GD32VW55X_Wifi_BLE_SDK/GD32VW55x_RELEASE_V1.0.2/MSDK/cloud/alicloud/src/services/awss\zconfig_protocol.c ****         awss_debug("zconfig data released");
 998              		.loc 1 319 9 is_stmt 0
 999 0078 37070000 		lui	a4,%hi(.LC9)
 1000 007c 13070700 		addi	a4,a4,%lo(.LC9)
 1001 0080 9546     		li	a3,5
 1002 0082 1306F013 		li	a2,319
 1003 0086 93050900 		addi	a1,s2,%lo(.LANCHOR3)
 1004 008a 13850400 		addi	a0,s1,%lo(.LC7)
 318:C:/Users/stapi/OneDrive/Desktop/GD32VW553/V1_MQTT_OK/GD32VW55X_Wifi_BLE_SDK/GD32VW55x_RELEASE_V1.0.2/MSDK/cloud/alicloud/src/services/awss\zconfig_protocol.c ****         zconfig_data = NULL;
 1005              		.loc 1 318 22
 1006 008e 23200400 		sw	zero,0(s0)
 1007              		.loc 1 319 9 is_stmt 1
 1008 0092 97000000 		call	LITE_syslog
 1008      E7800000 
 1009              	.LVL90:
 1010              	.L67:
 320:C:/Users/stapi/OneDrive/Desktop/GD32VW553/V1_MQTT_OK/GD32VW55X_Wifi_BLE_SDK/GD32VW55x_RELEASE_V1.0.2/MSDK/cloud/alicloud/src/services/awss\zconfig_protocol.c ****     }
 321:C:/Users/stapi/OneDrive/Desktop/GD32VW553/V1_MQTT_OK/GD32VW55X_Wifi_BLE_SDK/GD32VW55x_RELEASE_V1.0.2/MSDK/cloud/alicloud/src/services/awss\zconfig_protocol.c **** }
 1011              		.loc 1 321 1 is_stmt 0
 1012 009a 17030000 		tail	__riscv_restore_3
 1012      67000300 
 1013              		.cfi_restore 18
 1014              		.cfi_restore 9
 1015              		.cfi_restore 8
 1016              		.cfi_restore 1
 1017              		.cfi_def_cfa_offset 0
 1018              		.cfi_endproc
 1019              	.LFE57:
 1021              		.section	.rodata.zconfig_init.str1.4,"aMS",@progbits,1
 1022              		.align	2
 1023              	.LC10:
 1024 0000 25730D0A 		.string	"%s\r\n"
 1024      00
 1025 0005 000000   		.align	2
 1026              	.LC11:
 1027 0008 6D616C6C 		.string	"malloc failed!\r\n"
 1027      6F632066 
 1027      61696C65 
 1027      64210D0A 
 1027      00
 1028              		.section	.text.zconfig_init,"ax",@progbits
 1029              		.align	1
 1030              		.globl	zconfig_init
 1032              	zconfig_init:
 1033              	.LFB56:
 265:C:/Users/stapi/OneDrive/Desktop/GD32VW553/V1_MQTT_OK/GD32VW55X_Wifi_BLE_SDK/GD32VW55x_RELEASE_V1.0.2/MSDK/cloud/alicloud/src/services/awss\zconfig_protocol.c ****     awss_info("%s\r\n", __func__);
 1034              		.loc 1 265 1 is_stmt 1
 1035              		.cfi_startproc
 1036 0000 17030000 		call	t0,__riscv_save_3
 1036      E7020300 
 1037              		.cfi_offset 18, -16
 1038              		.cfi_offset 9, -12
 1039              		.cfi_offset 8, -8
 1040              		.cfi_offset 1, -4
 1041              		.cfi_def_cfa_offset 16
 266:C:/Users/stapi/OneDrive/Desktop/GD32VW553/V1_MQTT_OK/GD32VW55X_Wifi_BLE_SDK/GD32VW55x_RELEASE_V1.0.2/MSDK/cloud/alicloud/src/services/awss\zconfig_protocol.c **** 
 1042              		.loc 1 266 5
 266:C:/Users/stapi/OneDrive/Desktop/GD32VW553/V1_MQTT_OK/GD32VW55X_Wifi_BLE_SDK/GD32VW55x_RELEASE_V1.0.2/MSDK/cloud/alicloud/src/services/awss\zconfig_protocol.c **** 
 1043              		.loc 1 266 5
 1044 0008 37050000 		lui	a0,%hi(.LC3)
 1045 000c 13050500 		addi	a0,a0,%lo(.LC3)
 1046 0010 97000000 		call	HAL_Printf
 1046      E7800000 
 1047              	.LVL91:
 266:C:/Users/stapi/OneDrive/Desktop/GD32VW553/V1_MQTT_OK/GD32VW55X_Wifi_BLE_SDK/GD32VW55x_RELEASE_V1.0.2/MSDK/cloud/alicloud/src/services/awss\zconfig_protocol.c **** 
 1048              		.loc 1 266 5
 1049 0018 B7050000 		lui	a1,%hi(.LANCHOR4)
 1050 001c 37050000 		lui	a0,%hi(.LC10)
 1051 0020 93850500 		addi	a1,a1,%lo(.LANCHOR4)
 1052 0024 13050500 		addi	a0,a0,%lo(.LC10)
 1053 0028 97000000 		call	HAL_Printf
 1053      E7800000 
 1054              	.LVL92:
 266:C:/Users/stapi/OneDrive/Desktop/GD32VW553/V1_MQTT_OK/GD32VW55X_Wifi_BLE_SDK/GD32VW55x_RELEASE_V1.0.2/MSDK/cloud/alicloud/src/services/awss\zconfig_protocol.c **** 
 1055              		.loc 1 266 5
 1056 0030 B7040000 		lui	s1,%hi(.LC2)
 1057 0034 13850400 		addi	a0,s1,%lo(.LC2)
 1058 0038 97000000 		call	HAL_Printf
 1058      E7800000 
 1059              	.LVL93:
 266:C:/Users/stapi/OneDrive/Desktop/GD32VW553/V1_MQTT_OK/GD32VW55X_Wifi_BLE_SDK/GD32VW55x_RELEASE_V1.0.2/MSDK/cloud/alicloud/src/services/awss\zconfig_protocol.c **** 
 1060              		.loc 1 266 5
 268:C:/Users/stapi/OneDrive/Desktop/GD32VW553/V1_MQTT_OK/GD32VW55X_Wifi_BLE_SDK/GD32VW55x_RELEASE_V1.0.2/MSDK/cloud/alicloud/src/services/awss\zconfig_protocol.c ****     zconfig_finished = 0;
 1061              		.loc 1 268 5
 268:C:/Users/stapi/OneDrive/Desktop/GD32VW553/V1_MQTT_OK/GD32VW55X_Wifi_BLE_SDK/GD32VW55x_RELEASE_V1.0.2/MSDK/cloud/alicloud/src/services/awss\zconfig_protocol.c ****     zconfig_finished = 0;
 1062              		.loc 1 268 28 is_stmt 0
 1063 0040 B7070000 		lui	a5,%hi(.LANCHOR0)
 1064 0044 23800700 		sb	zero,%lo(.LANCHOR0)(a5)
 269:C:/Users/stapi/OneDrive/Desktop/GD32VW553/V1_MQTT_OK/GD32VW55X_Wifi_BLE_SDK/GD32VW55x_RELEASE_V1.0.2/MSDK/cloud/alicloud/src/services/awss\zconfig_protocol.c **** 
 1065              		.loc 1 269 5 is_stmt 1
 1066              	.LBB69:
 1067              	.LBB70:
 1068              	.LBB71:
 1069              	.LBB72:
 380:..\..\..\..\cloud\alicloud\src\services\dev_bind\os/os.h **** }
 1070              		.loc 2 380 12 is_stmt 0
 1071 0048 13058054 		li	a0,1352
 1072              	.LBE72:
 1073              	.LBE71:
 1074              	.LBE70:
 1075              	.LBE69:
 269:C:/Users/stapi/OneDrive/Desktop/GD32VW553/V1_MQTT_OK/GD32VW55X_Wifi_BLE_SDK/GD32VW55x_RELEASE_V1.0.2/MSDK/cloud/alicloud/src/services/awss\zconfig_protocol.c **** 
 1076              		.loc 1 269 22
 1077 004c B7070000 		lui	a5,%hi(.LANCHOR2)
 1078 0050 23800700 		sb	zero,%lo(.LANCHOR2)(a5)
 271:C:/Users/stapi/OneDrive/Desktop/GD32VW553/V1_MQTT_OK/GD32VW55X_Wifi_BLE_SDK/GD32VW55x_RELEASE_V1.0.2/MSDK/cloud/alicloud/src/services/awss\zconfig_protocol.c ****     if (zconfig_data == NULL) {
 1079              		.loc 1 271 5 is_stmt 1
 1080              	.LVL94:
 1081              	.LBB76:
 1082              	.LBB75:
 408:..\..\..\..\cloud\alicloud\src\services\dev_bind\os/os.h ****     if (ptr != NULL) {
 1083              		.loc 2 408 5
 1084              	.LBB74:
 1085              	.LBB73:
 380:..\..\..\..\cloud\alicloud\src\services\dev_bind\os/os.h **** }
 1086              		.loc 2 380 5
 380:..\..\..\..\cloud\alicloud\src\services\dev_bind\os/os.h **** }
 1087              		.loc 2 380 12 is_stmt 0
 1088 0054 97000000 		call	HAL_Malloc
 1088      E7800000 
 1089              	.LVL95:
 1090 005c 2A84     		mv	s0,a0
 1091              	.LVL96:
 1092              	.LBE73:
 1093              	.LBE74:
 409:..\..\..\..\cloud\alicloud\src\services\dev_bind\os/os.h ****         memset(ptr, 0, size);
 1094              		.loc 2 409 5 is_stmt 1
 409:..\..\..\..\cloud\alicloud\src\services\dev_bind\os/os.h ****         memset(ptr, 0, size);
 1095              		.loc 2 409 8 is_stmt 0
 1096 005e 01C9     		beq	a0,zero,.L78
 410:..\..\..\..\cloud\alicloud\src\services\dev_bind\os/os.h ****     }
 1097              		.loc 2 410 9 is_stmt 1
 1098 0060 13068054 		li	a2,1352
 1099 0064 8145     		li	a1,0
 1100 0066 97000000 		call	memset
 1100      E7800000 
 1101              	.LVL97:
 1102              	.L78:
 1103              		.loc 2 412 5
 1104              	.LBE75:
 1105              	.LBE76:
 271:C:/Users/stapi/OneDrive/Desktop/GD32VW553/V1_MQTT_OK/GD32VW55X_Wifi_BLE_SDK/GD32VW55x_RELEASE_V1.0.2/MSDK/cloud/alicloud/src/services/awss\zconfig_protocol.c ****     if (zconfig_data == NULL) {
 1106              		.loc 1 271 18 is_stmt 0
 1107 006e 37090000 		lui	s2,%hi(.LANCHOR1)
 1108 0072 13090900 		addi	s2,s2,%lo(.LANCHOR1)
 1109 0076 23208900 		sw	s0,0(s2)
 272:C:/Users/stapi/OneDrive/Desktop/GD32VW553/V1_MQTT_OK/GD32VW55X_Wifi_BLE_SDK/GD32VW55x_RELEASE_V1.0.2/MSDK/cloud/alicloud/src/services/awss\zconfig_protocol.c ****         goto ZCONFIG_INIT_FAIL;
 1110              		.loc 1 272 5 is_stmt 1
 272:C:/Users/stapi/OneDrive/Desktop/GD32VW553/V1_MQTT_OK/GD32VW55X_Wifi_BLE_SDK/GD32VW55x_RELEASE_V1.0.2/MSDK/cloud/alicloud/src/services/awss\zconfig_protocol.c ****         goto ZCONFIG_INIT_FAIL;
 1111              		.loc 1 272 8 is_stmt 0
 1112 007a 39E0     		bne	s0,zero,.L79
 1113              	.L81:
 1114              	.LDL1:
 297:C:/Users/stapi/OneDrive/Desktop/GD32VW553/V1_MQTT_OK/GD32VW55X_Wifi_BLE_SDK/GD32VW55x_RELEASE_V1.0.2/MSDK/cloud/alicloud/src/services/awss\zconfig_protocol.c ****     zconfig_destroy();
 1115              		.loc 1 297 5 is_stmt 1
 297:C:/Users/stapi/OneDrive/Desktop/GD32VW553/V1_MQTT_OK/GD32VW55X_Wifi_BLE_SDK/GD32VW55x_RELEASE_V1.0.2/MSDK/cloud/alicloud/src/services/awss\zconfig_protocol.c ****     zconfig_destroy();
 1116              		.loc 1 297 5
 1117 007c 37050000 		lui	a0,%hi(.LC0)
 1118 0080 13050500 		addi	a0,a0,%lo(.LC0)
 1119 0084 97000000 		call	HAL_Printf
 1119      E7800000 
 1120              	.LVL98:
 297:C:/Users/stapi/OneDrive/Desktop/GD32VW553/V1_MQTT_OK/GD32VW55X_Wifi_BLE_SDK/GD32VW55x_RELEASE_V1.0.2/MSDK/cloud/alicloud/src/services/awss\zconfig_protocol.c ****     zconfig_destroy();
 1121              		.loc 1 297 5
 1122 008c 37050000 		lui	a0,%hi(.LC11)
 1123 0090 13050500 		addi	a0,a0,%lo(.LC11)
 1124 0094 97000000 		call	HAL_Printf
 1124      E7800000 
 1125              	.LVL99:
 297:C:/Users/stapi/OneDrive/Desktop/GD32VW553/V1_MQTT_OK/GD32VW55X_Wifi_BLE_SDK/GD32VW55x_RELEASE_V1.0.2/MSDK/cloud/alicloud/src/services/awss\zconfig_protocol.c ****     zconfig_destroy();
 1126              		.loc 1 297 5
 1127 009c 13850400 		addi	a0,s1,%lo(.LC2)
 1128 00a0 97000000 		call	HAL_Printf
 1128      E7800000 
 1129              	.LVL100:
 297:C:/Users/stapi/OneDrive/Desktop/GD32VW553/V1_MQTT_OK/GD32VW55X_Wifi_BLE_SDK/GD32VW55x_RELEASE_V1.0.2/MSDK/cloud/alicloud/src/services/awss\zconfig_protocol.c ****     zconfig_destroy();
 1130              		.loc 1 297 5
 298:C:/Users/stapi/OneDrive/Desktop/GD32VW553/V1_MQTT_OK/GD32VW55X_Wifi_BLE_SDK/GD32VW55x_RELEASE_V1.0.2/MSDK/cloud/alicloud/src/services/awss\zconfig_protocol.c **** 
 1131              		.loc 1 298 5
 1132 00a8 97000000 		call	zconfig_destroy
 1132      E7800000 
 1133              	.LVL101:
 301:C:/Users/stapi/OneDrive/Desktop/GD32VW553/V1_MQTT_OK/GD32VW55X_Wifi_BLE_SDK/GD32VW55x_RELEASE_V1.0.2/MSDK/cloud/alicloud/src/services/awss\zconfig_protocol.c **** #endif
 1134              		.loc 1 301 5
 1135 00b0 97000000 		call	awss_deinit_ieee80211_aplist
 1135      E7800000 
 1136              	.LVL102:
 306:C:/Users/stapi/OneDrive/Desktop/GD32VW553/V1_MQTT_OK/GD32VW55X_Wifi_BLE_SDK/GD32VW55x_RELEASE_V1.0.2/MSDK/cloud/alicloud/src/services/awss\zconfig_protocol.c **** }
 1137              		.loc 1 306 5
 1138              	.L77:
 307:C:/Users/stapi/OneDrive/Desktop/GD32VW553/V1_MQTT_OK/GD32VW55X_Wifi_BLE_SDK/GD32VW55x_RELEASE_V1.0.2/MSDK/cloud/alicloud/src/services/awss\zconfig_protocol.c **** 
 1139              		.loc 1 307 1 is_stmt 0
 1140 00b8 17030000 		tail	__riscv_restore_3
 1140      67000300 
 1141              		.cfi_remember_state
 1142              		.cfi_restore 18
 1143              		.cfi_restore 9
 1144              		.cfi_restore 8
 1145              		.cfi_restore 1
 1146              		.cfi_def_cfa_offset 0
 1147              	.L79:
 1148              		.cfi_restore_state
 275:C:/Users/stapi/OneDrive/Desktop/GD32VW553/V1_MQTT_OK/GD32VW55X_Wifi_BLE_SDK/GD32VW55x_RELEASE_V1.0.2/MSDK/cloud/alicloud/src/services/awss\zconfig_protocol.c ****     if (zc_mutex == NULL) {
 1149              		.loc 1 275 5 is_stmt 1
 1150              	.LBB77:
 1151              	.LBB78:
 255:..\..\..\..\cloud\alicloud\src\services\dev_bind\os/os.h **** }
 1152              		.loc 2 255 5
 255:..\..\..\..\cloud\alicloud\src\services\dev_bind\os/os.h **** }
 1153              		.loc 2 255 12 is_stmt 0
 1154 00c0 97000000 		call	HAL_MutexCreate
 1154      E7800000 
 1155              	.LVL103:
 1156              	.LBE78:
 1157              	.LBE77:
 276:C:/Users/stapi/OneDrive/Desktop/GD32VW553/V1_MQTT_OK/GD32VW55X_Wifi_BLE_SDK/GD32VW55x_RELEASE_V1.0.2/MSDK/cloud/alicloud/src/services/awss\zconfig_protocol.c ****         goto ZCONFIG_INIT_FAIL;
 1158              		.loc 1 276 9
 1159 00c8 83270900 		lw	a5,0(s2)
 275:C:/Users/stapi/OneDrive/Desktop/GD32VW553/V1_MQTT_OK/GD32VW55X_Wifi_BLE_SDK/GD32VW55x_RELEASE_V1.0.2/MSDK/cloud/alicloud/src/services/awss\zconfig_protocol.c ****     if (zc_mutex == NULL) {
 1160              		.loc 1 275 14
 1161 00cc 2320A454 		sw	a0,1344(s0)
 276:C:/Users/stapi/OneDrive/Desktop/GD32VW553/V1_MQTT_OK/GD32VW55X_Wifi_BLE_SDK/GD32VW55x_RELEASE_V1.0.2/MSDK/cloud/alicloud/src/services/awss\zconfig_protocol.c ****         goto ZCONFIG_INIT_FAIL;
 1162              		.loc 1 276 5 is_stmt 1
 276:C:/Users/stapi/OneDrive/Desktop/GD32VW553/V1_MQTT_OK/GD32VW55X_Wifi_BLE_SDK/GD32VW55x_RELEASE_V1.0.2/MSDK/cloud/alicloud/src/services/awss\zconfig_protocol.c ****         goto ZCONFIG_INIT_FAIL;
 1163              		.loc 1 276 8 is_stmt 0
 1164 00d0 83A70754 		lw	a5,1344(a5)
 1165 00d4 C5D7     		beq	a5,zero,.L81
 281:C:/Users/stapi/OneDrive/Desktop/GD32VW553/V1_MQTT_OK/GD32VW55X_Wifi_BLE_SDK/GD32VW55x_RELEASE_V1.0.2/MSDK/cloud/alicloud/src/services/awss\zconfig_protocol.c ****         goto ZCONFIG_INIT_FAIL;
 1166              		.loc 1 281 5 is_stmt 1
 281:C:/Users/stapi/OneDrive/Desktop/GD32VW553/V1_MQTT_OK/GD32VW55X_Wifi_BLE_SDK/GD32VW55x_RELEASE_V1.0.2/MSDK/cloud/alicloud/src/services/awss\zconfig_protocol.c ****         goto ZCONFIG_INIT_FAIL;
 1167              		.loc 1 281 9 is_stmt 0
 1168 00d6 97000000 		call	awss_init_ieee80211_aplist
 1168      E7800000 
 1169              	.LVL104:
 281:C:/Users/stapi/OneDrive/Desktop/GD32VW553/V1_MQTT_OK/GD32VW55X_Wifi_BLE_SDK/GD32VW55x_RELEASE_V1.0.2/MSDK/cloud/alicloud/src/services/awss\zconfig_protocol.c ****         goto ZCONFIG_INIT_FAIL;
 1170              		.loc 1 281 8
 1171 00de 69DD     		beq	a0,zero,.L77
 1172 00e0 71BF     		j	.L81
 1173              		.cfi_endproc
 1174              	.LFE56:
 1176              		.section	.text.zconfig_force_destroy,"ax",@progbits
 1177              		.align	1
 1178              		.globl	zconfig_force_destroy
 1180              	zconfig_force_destroy:
 1181              	.LFB58:
 322:C:/Users/stapi/OneDrive/Desktop/GD32VW553/V1_MQTT_OK/GD32VW55X_Wifi_BLE_SDK/GD32VW55x_RELEASE_V1.0.2/MSDK/cloud/alicloud/src/services/awss\zconfig_protocol.c **** 
 323:C:/Users/stapi/OneDrive/Desktop/GD32VW553/V1_MQTT_OK/GD32VW55X_Wifi_BLE_SDK/GD32VW55x_RELEASE_V1.0.2/MSDK/cloud/alicloud/src/services/awss\zconfig_protocol.c **** void zconfig_force_destroy(void)
 324:C:/Users/stapi/OneDrive/Desktop/GD32VW553/V1_MQTT_OK/GD32VW55X_Wifi_BLE_SDK/GD32VW55x_RELEASE_V1.0.2/MSDK/cloud/alicloud/src/services/awss\zconfig_protocol.c **** {
 1182              		.loc 1 324 1 is_stmt 1
 1183              		.cfi_startproc
 1184 0000 17030000 		call	t0,__riscv_save_0
 1184      E7020300 
 1185              		.cfi_offset 1, -4
 1186              		.cfi_def_cfa_offset 16
 325:C:/Users/stapi/OneDrive/Desktop/GD32VW553/V1_MQTT_OK/GD32VW55X_Wifi_BLE_SDK/GD32VW55x_RELEASE_V1.0.2/MSDK/cloud/alicloud/src/services/awss\zconfig_protocol.c ****     zconfig_destroy();
 1187              		.loc 1 325 5
 1188 0008 97000000 		call	zconfig_destroy
 1188      E7800000 
 1189              	.LVL105:
 326:C:/Users/stapi/OneDrive/Desktop/GD32VW553/V1_MQTT_OK/GD32VW55X_Wifi_BLE_SDK/GD32VW55x_RELEASE_V1.0.2/MSDK/cloud/alicloud/src/services/awss\zconfig_protocol.c **** 
 327:C:/Users/stapi/OneDrive/Desktop/GD32VW553/V1_MQTT_OK/GD32VW55X_Wifi_BLE_SDK/GD32VW55x_RELEASE_V1.0.2/MSDK/cloud/alicloud/src/services/awss\zconfig_protocol.c **** #ifdef AWSS_SUPPORT_APLIST
 328:C:/Users/stapi/OneDrive/Desktop/GD32VW553/V1_MQTT_OK/GD32VW55X_Wifi_BLE_SDK/GD32VW55x_RELEASE_V1.0.2/MSDK/cloud/alicloud/src/services/awss\zconfig_protocol.c ****     awss_deinit_ieee80211_aplist();
 1190              		.loc 1 328 5
 1191 0010 97000000 		call	awss_deinit_ieee80211_aplist
 1191      E7800000 
 1192              	.LVL106:
 329:C:/Users/stapi/OneDrive/Desktop/GD32VW553/V1_MQTT_OK/GD32VW55X_Wifi_BLE_SDK/GD32VW55x_RELEASE_V1.0.2/MSDK/cloud/alicloud/src/services/awss\zconfig_protocol.c ****     awss_close_aplist_monitor();
 1193              		.loc 1 329 5
 1194 0018 97000000 		call	awss_close_aplist_monitor
 1194      E7800000 
 1195              	.LVL107:
 330:C:/Users/stapi/OneDrive/Desktop/GD32VW553/V1_MQTT_OK/GD32VW55X_Wifi_BLE_SDK/GD32VW55x_RELEASE_V1.0.2/MSDK/cloud/alicloud/src/services/awss\zconfig_protocol.c **** #endif
 331:C:/Users/stapi/OneDrive/Desktop/GD32VW553/V1_MQTT_OK/GD32VW55X_Wifi_BLE_SDK/GD32VW55x_RELEASE_V1.0.2/MSDK/cloud/alicloud/src/services/awss\zconfig_protocol.c **** 
 332:C:/Users/stapi/OneDrive/Desktop/GD32VW553/V1_MQTT_OK/GD32VW55X_Wifi_BLE_SDK/GD32VW55x_RELEASE_V1.0.2/MSDK/cloud/alicloud/src/services/awss\zconfig_protocol.c **** #if defined(AWSS_SUPPORT_ADHA) || defined(AWSS_SUPPORT_AHA)
 333:C:/Users/stapi/OneDrive/Desktop/GD32VW553/V1_MQTT_OK/GD32VW55X_Wifi_BLE_SDK/GD32VW55x_RELEASE_V1.0.2/MSDK/cloud/alicloud/src/services/awss\zconfig_protocol.c ****     awss_deinit_adha_aplist();
 334:C:/Users/stapi/OneDrive/Desktop/GD32VW553/V1_MQTT_OK/GD32VW55X_Wifi_BLE_SDK/GD32VW55x_RELEASE_V1.0.2/MSDK/cloud/alicloud/src/services/awss\zconfig_protocol.c **** #endif
 335:C:/Users/stapi/OneDrive/Desktop/GD32VW553/V1_MQTT_OK/GD32VW55X_Wifi_BLE_SDK/GD32VW55x_RELEASE_V1.0.2/MSDK/cloud/alicloud/src/services/awss\zconfig_protocol.c **** }
 1196              		.loc 1 335 1 is_stmt 0
 1197 0020 17030000 		tail	__riscv_restore_0
 1197      67000300 
 1198              		.cfi_restore 1
 1199              		.cfi_def_cfa_offset 0
 1200              		.cfi_endproc
 1201              	.LFE58:
 1203              		.globl	zconfig_data
 1204              		.globl	zconfig_finished
 1205              		.globl	zconfig_channel_locked
 1206              		.globl	zero_mac
 1207              		.globl	br_mac
 1208              		.section	.rodata.__FUNCTION__.0,"a"
 1209              		.align	2
 1210              		.set	.LANCHOR3,. + 0
 1213              	__FUNCTION__.0:
 1214 0000 7A636F6E 		.string	"zconfig_destroy"
 1214      6669675F 
 1214      64657374 
 1214      726F7900 
 1215              		.section	.rodata.__func__.1,"a"
 1216              		.align	2
 1217              		.set	.LANCHOR4,. + 0
 1220              	__func__.1:
 1221 0000 7A636F6E 		.string	"zconfig_init"
 1221      6669675F 
 1221      696E6974 
 1221      00
 1222              		.section	.sbss.zconfig_channel_locked,"aw",@nobits
 1223              		.set	.LANCHOR0,. + 0
 1226              	zconfig_channel_locked:
 1227 0000 00       		.zero	1
 1228              		.section	.sbss.zconfig_data,"aw",@nobits
 1229              		.align	2
 1230              		.set	.LANCHOR1,. + 0
 1233              	zconfig_data:
 1234 0000 00000000 		.zero	4
 1235              		.section	.sbss.zconfig_finished,"aw",@nobits
 1236              		.set	.LANCHOR2,. + 0
 1239              	zconfig_finished:
 1240 0000 00       		.zero	1
 1241              		.section	.srodata.br_mac,"a"
 1242              		.align	2
 1245              	br_mac:
 1246 0000 FFFFFFFF 		.ascii	"\377\377\377\377\377\377"
 1246      FFFF
 1247              		.section	.srodata.zero_mac,"a"
 1248              		.align	2
 1251              	zero_mac:
 1252 0000 00000000 		.zero	6
 1252      0000
 1253              		.text
 1254              	.Letext0:
 1255              		.file 3 "c:\\users\\stapi\\onedrive\\desktop\\gd32vw553\\embeddedbuilder_v1.4.7.26843\\tools\\nucl
 1256              		.file 4 "c:\\users\\stapi\\onedrive\\desktop\\gd32vw553\\embeddedbuilder_v1.4.7.26843\\tools\\nucl
 1257              		.file 5 "C:/Users/stapi/OneDrive/Desktop/GD32VW553/V1_MQTT_OK/GD32VW55X_Wifi_BLE_SDK/GD32VW55x_REL
 1258              		.file 6 "C:/Users/stapi/OneDrive/Desktop/GD32VW553/V1_MQTT_OK/GD32VW55X_Wifi_BLE_SDK/GD32VW55x_REL
 1259              		.file 7 "C:/Users/stapi/OneDrive/Desktop/GD32VW553/V1_MQTT_OK/GD32VW55X_Wifi_BLE_SDK/GD32VW55x_REL
 1260              		.file 8 "C:/Users/stapi/OneDrive/Desktop/GD32VW553/V1_MQTT_OK/GD32VW55X_Wifi_BLE_SDK/GD32VW55x_REL
 1261              		.file 9 "..\\..\\..\\..\\cloud\\alicloud\\include/iot_import.h"
 1262              		.file 10 "..\\..\\..\\..\\cloud\\alicloud\\src\\infra\\log/iotx_log.h"
 1263              		.file 11 "..\\..\\..\\..\\cloud\\alicloud\\include/iot_export.h"
 1264              		.file 12 "<built-in>"