   1              		.file	"wifi_net_ip.c"
   2              		.option nopic
   3              		.attribute arch, "rv32i2p0_m2p0_a2p0_f2p0_c2p0_b_p0p94"
   4              		.attribute unaligned_access, 0
   5              		.attribute stack_align, 16
   6              		.text
   7              	.Ltext0:
   8              		.cfi_sections	.debug_frame
   9              		.section	.rodata.wifi_dhcp_stop.isra.0.str1.4,"aMS",@progbits,1
  10              		.align	2
  11              	.LC0:
  12 0000 4661696C 		.string	"Failed to release DHCP\r\n"
  12      65642074 
  12      6F207265 
  12      6C656173 
  12      65204448 
  13 0019 000000   		.align	2
  14              	.LC1:
  15 001c 49502072 		.string	"IP released\r\n"
  15      656C6561 
  15      7365640D 
  15      0A00
  16              		.section	.text.wifi_dhcp_stop.isra.0,"ax",@progbits
  17              		.align	1
  19              	wifi_dhcp_stop.isra.0:
  20              	.LFB23:
  21              		.file 1 "C:/Users/stapi/OneDrive/Desktop/GD32VW553/GD32VW55X_Wifi_BLE_SDK/GD32VW55x_RELEASE_V1.0.2
   1:C:/Users/stapi/OneDrive/Desktop/GD32VW553/GD32VW55X_Wifi_BLE_SDK/GD32VW55x_RELEASE_V1.0.2/MSDK/wifi_manager\wifi_net_ip.c **** /*!
   2:C:/Users/stapi/OneDrive/Desktop/GD32VW553/GD32VW55X_Wifi_BLE_SDK/GD32VW55x_RELEASE_V1.0.2/MSDK/wifi_manager\wifi_net_ip.c ****     \file    wifi_net_ip.c
   3:C:/Users/stapi/OneDrive/Desktop/GD32VW553/GD32VW55X_Wifi_BLE_SDK/GD32VW55x_RELEASE_V1.0.2/MSDK/wifi_manager\wifi_net_ip.c ****     \brief   Implementation of IP configuration related for GD32VW55x SDK.
   4:C:/Users/stapi/OneDrive/Desktop/GD32VW553/GD32VW55X_Wifi_BLE_SDK/GD32VW55x_RELEASE_V1.0.2/MSDK/wifi_manager\wifi_net_ip.c **** 
   5:C:/Users/stapi/OneDrive/Desktop/GD32VW553/GD32VW55X_Wifi_BLE_SDK/GD32VW55x_RELEASE_V1.0.2/MSDK/wifi_manager\wifi_net_ip.c ****     \version 2023-07-20, V1.0.0, firmware for GD32VW55x
   6:C:/Users/stapi/OneDrive/Desktop/GD32VW553/GD32VW55X_Wifi_BLE_SDK/GD32VW55x_RELEASE_V1.0.2/MSDK/wifi_manager\wifi_net_ip.c **** */
   7:C:/Users/stapi/OneDrive/Desktop/GD32VW553/GD32VW55X_Wifi_BLE_SDK/GD32VW55x_RELEASE_V1.0.2/MSDK/wifi_manager\wifi_net_ip.c **** 
   8:C:/Users/stapi/OneDrive/Desktop/GD32VW553/GD32VW55X_Wifi_BLE_SDK/GD32VW55x_RELEASE_V1.0.2/MSDK/wifi_manager\wifi_net_ip.c **** /*
   9:C:/Users/stapi/OneDrive/Desktop/GD32VW553/GD32VW55X_Wifi_BLE_SDK/GD32VW55x_RELEASE_V1.0.2/MSDK/wifi_manager\wifi_net_ip.c ****     Copyright (c) 2023, GigaDevice Semiconductor Inc.
  10:C:/Users/stapi/OneDrive/Desktop/GD32VW553/GD32VW55X_Wifi_BLE_SDK/GD32VW55x_RELEASE_V1.0.2/MSDK/wifi_manager\wifi_net_ip.c **** 
  11:C:/Users/stapi/OneDrive/Desktop/GD32VW553/GD32VW55X_Wifi_BLE_SDK/GD32VW55x_RELEASE_V1.0.2/MSDK/wifi_manager\wifi_net_ip.c ****     Redistribution and use in source and binary forms, with or without modification,
  12:C:/Users/stapi/OneDrive/Desktop/GD32VW553/GD32VW55X_Wifi_BLE_SDK/GD32VW55x_RELEASE_V1.0.2/MSDK/wifi_manager\wifi_net_ip.c **** are permitted provided that the following conditions are met:
  13:C:/Users/stapi/OneDrive/Desktop/GD32VW553/GD32VW55X_Wifi_BLE_SDK/GD32VW55x_RELEASE_V1.0.2/MSDK/wifi_manager\wifi_net_ip.c **** 
  14:C:/Users/stapi/OneDrive/Desktop/GD32VW553/GD32VW55X_Wifi_BLE_SDK/GD32VW55x_RELEASE_V1.0.2/MSDK/wifi_manager\wifi_net_ip.c ****     1. Redistributions of source code must retain the above copyright notice, this
  15:C:/Users/stapi/OneDrive/Desktop/GD32VW553/GD32VW55X_Wifi_BLE_SDK/GD32VW55x_RELEASE_V1.0.2/MSDK/wifi_manager\wifi_net_ip.c ****        list of conditions and the following disclaimer.
  16:C:/Users/stapi/OneDrive/Desktop/GD32VW553/GD32VW55X_Wifi_BLE_SDK/GD32VW55x_RELEASE_V1.0.2/MSDK/wifi_manager\wifi_net_ip.c ****     2. Redistributions in binary form must reproduce the above copyright notice,
  17:C:/Users/stapi/OneDrive/Desktop/GD32VW553/GD32VW55X_Wifi_BLE_SDK/GD32VW55x_RELEASE_V1.0.2/MSDK/wifi_manager\wifi_net_ip.c ****        this list of conditions and the following disclaimer in the documentation
  18:C:/Users/stapi/OneDrive/Desktop/GD32VW553/GD32VW55X_Wifi_BLE_SDK/GD32VW55x_RELEASE_V1.0.2/MSDK/wifi_manager\wifi_net_ip.c ****        and/or other materials provided with the distribution.
  19:C:/Users/stapi/OneDrive/Desktop/GD32VW553/GD32VW55X_Wifi_BLE_SDK/GD32VW55x_RELEASE_V1.0.2/MSDK/wifi_manager\wifi_net_ip.c ****     3. Neither the name of the copyright holder nor the names of its contributors
  20:C:/Users/stapi/OneDrive/Desktop/GD32VW553/GD32VW55X_Wifi_BLE_SDK/GD32VW55x_RELEASE_V1.0.2/MSDK/wifi_manager\wifi_net_ip.c ****        may be used to endorse or promote products derived from this software without
  21:C:/Users/stapi/OneDrive/Desktop/GD32VW553/GD32VW55X_Wifi_BLE_SDK/GD32VW55x_RELEASE_V1.0.2/MSDK/wifi_manager\wifi_net_ip.c ****        specific prior written permission.
  22:C:/Users/stapi/OneDrive/Desktop/GD32VW553/GD32VW55X_Wifi_BLE_SDK/GD32VW55x_RELEASE_V1.0.2/MSDK/wifi_manager\wifi_net_ip.c **** 
  23:C:/Users/stapi/OneDrive/Desktop/GD32VW553/GD32VW55X_Wifi_BLE_SDK/GD32VW55x_RELEASE_V1.0.2/MSDK/wifi_manager\wifi_net_ip.c ****     THIS SOFTWARE IS PROVIDED BY THE COPYRIGHT HOLDERS AND CONTRIBUTORS "AS IS"
  24:C:/Users/stapi/OneDrive/Desktop/GD32VW553/GD32VW55X_Wifi_BLE_SDK/GD32VW55x_RELEASE_V1.0.2/MSDK/wifi_manager\wifi_net_ip.c **** AND ANY EXPRESS OR IMPLIED WARRANTIES, INCLUDING, BUT NOT LIMITED TO, THE IMPLIED
  25:C:/Users/stapi/OneDrive/Desktop/GD32VW553/GD32VW55X_Wifi_BLE_SDK/GD32VW55x_RELEASE_V1.0.2/MSDK/wifi_manager\wifi_net_ip.c **** WARRANTIES OF MERCHANTABILITY AND FITNESS FOR A PARTICULAR PURPOSE ARE DISCLAIMED.
  26:C:/Users/stapi/OneDrive/Desktop/GD32VW553/GD32VW55X_Wifi_BLE_SDK/GD32VW55x_RELEASE_V1.0.2/MSDK/wifi_manager\wifi_net_ip.c **** IN NO EVENT SHALL THE COPYRIGHT HOLDER OR CONTRIBUTORS BE LIABLE FOR ANY DIRECT,
  27:C:/Users/stapi/OneDrive/Desktop/GD32VW553/GD32VW55X_Wifi_BLE_SDK/GD32VW55x_RELEASE_V1.0.2/MSDK/wifi_manager\wifi_net_ip.c **** INDIRECT, INCIDENTAL, SPECIAL, EXEMPLARY, OR CONSEQUENTIAL DAMAGES (INCLUDING, BUT
  28:C:/Users/stapi/OneDrive/Desktop/GD32VW553/GD32VW55X_Wifi_BLE_SDK/GD32VW55x_RELEASE_V1.0.2/MSDK/wifi_manager\wifi_net_ip.c **** NOT LIMITED TO, PROCUREMENT OF SUBSTITUTE GOODS OR SERVICES; LOSS OF USE, DATA, OR
  29:C:/Users/stapi/OneDrive/Desktop/GD32VW553/GD32VW55X_Wifi_BLE_SDK/GD32VW55x_RELEASE_V1.0.2/MSDK/wifi_manager\wifi_net_ip.c **** PROFITS; OR BUSINESS INTERRUPTION) HOWEVER CAUSED AND ON ANY THEORY OF LIABILITY,
  30:C:/Users/stapi/OneDrive/Desktop/GD32VW553/GD32VW55X_Wifi_BLE_SDK/GD32VW55x_RELEASE_V1.0.2/MSDK/wifi_manager\wifi_net_ip.c **** WHETHER IN CONTRACT, STRICT LIABILITY, OR TORT (INCLUDING NEGLIGENCE OR OTHERWISE)
  31:C:/Users/stapi/OneDrive/Desktop/GD32VW553/GD32VW55X_Wifi_BLE_SDK/GD32VW55x_RELEASE_V1.0.2/MSDK/wifi_manager\wifi_net_ip.c **** ARISING IN ANY WAY OUT OF THE USE OF THIS SOFTWARE, EVEN IF ADVISED OF THE POSSIBILITY
  32:C:/Users/stapi/OneDrive/Desktop/GD32VW553/GD32VW55X_Wifi_BLE_SDK/GD32VW55x_RELEASE_V1.0.2/MSDK/wifi_manager\wifi_net_ip.c **** OF SUCH DAMAGE.
  33:C:/Users/stapi/OneDrive/Desktop/GD32VW553/GD32VW55X_Wifi_BLE_SDK/GD32VW55x_RELEASE_V1.0.2/MSDK/wifi_manager\wifi_net_ip.c **** */
  34:C:/Users/stapi/OneDrive/Desktop/GD32VW553/GD32VW55X_Wifi_BLE_SDK/GD32VW55x_RELEASE_V1.0.2/MSDK/wifi_manager\wifi_net_ip.c **** 
  35:C:/Users/stapi/OneDrive/Desktop/GD32VW553/GD32VW55X_Wifi_BLE_SDK/GD32VW55x_RELEASE_V1.0.2/MSDK/wifi_manager\wifi_net_ip.c **** #include "wrapper_os.h"
  36:C:/Users/stapi/OneDrive/Desktop/GD32VW553/GD32VW55X_Wifi_BLE_SDK/GD32VW55x_RELEASE_V1.0.2/MSDK/wifi_manager\wifi_net_ip.c **** #include "wifi_net_ip.h"
  37:C:/Users/stapi/OneDrive/Desktop/GD32VW553/GD32VW55X_Wifi_BLE_SDK/GD32VW55x_RELEASE_V1.0.2/MSDK/wifi_manager\wifi_net_ip.c **** 
  38:C:/Users/stapi/OneDrive/Desktop/GD32VW553/GD32VW55X_Wifi_BLE_SDK/GD32VW55x_RELEASE_V1.0.2/MSDK/wifi_manager\wifi_net_ip.c **** #include "wifi_netif.h"
  39:C:/Users/stapi/OneDrive/Desktop/GD32VW553/GD32VW55X_Wifi_BLE_SDK/GD32VW55x_RELEASE_V1.0.2/MSDK/wifi_manager\wifi_net_ip.c **** #include "wifi_vif.h"
  40:C:/Users/stapi/OneDrive/Desktop/GD32VW553/GD32VW55X_Wifi_BLE_SDK/GD32VW55x_RELEASE_V1.0.2/MSDK/wifi_manager\wifi_net_ip.c **** #include "wifi_export.h"
  41:C:/Users/stapi/OneDrive/Desktop/GD32VW553/GD32VW55X_Wifi_BLE_SDK/GD32VW55x_RELEASE_V1.0.2/MSDK/wifi_manager\wifi_net_ip.c **** #include "lwip/netif.h"
  42:C:/Users/stapi/OneDrive/Desktop/GD32VW553/GD32VW55X_Wifi_BLE_SDK/GD32VW55x_RELEASE_V1.0.2/MSDK/wifi_manager\wifi_net_ip.c **** #include "dbg_print.h"
  43:C:/Users/stapi/OneDrive/Desktop/GD32VW553/GD32VW55X_Wifi_BLE_SDK/GD32VW55x_RELEASE_V1.0.2/MSDK/wifi_manager\wifi_net_ip.c **** #include "string.h"
  44:C:/Users/stapi/OneDrive/Desktop/GD32VW553/GD32VW55X_Wifi_BLE_SDK/GD32VW55x_RELEASE_V1.0.2/MSDK/wifi_manager\wifi_net_ip.c **** 
  45:C:/Users/stapi/OneDrive/Desktop/GD32VW553/GD32VW55X_Wifi_BLE_SDK/GD32VW55x_RELEASE_V1.0.2/MSDK/wifi_manager\wifi_net_ip.c **** /**
  46:C:/Users/stapi/OneDrive/Desktop/GD32VW553/GD32VW55X_Wifi_BLE_SDK/GD32VW55x_RELEASE_V1.0.2/MSDK/wifi_manager\wifi_net_ip.c ****  ******************************************************************************
  47:C:/Users/stapi/OneDrive/Desktop/GD32VW553/GD32VW55X_Wifi_BLE_SDK/GD32VW55x_RELEASE_V1.0.2/MSDK/wifi_manager\wifi_net_ip.c ****  * @brief Stop using DHCP
  48:C:/Users/stapi/OneDrive/Desktop/GD32VW553/GD32VW55X_Wifi_BLE_SDK/GD32VW55x_RELEASE_V1.0.2/MSDK/wifi_manager\wifi_net_ip.c ****  *
  49:C:/Users/stapi/OneDrive/Desktop/GD32VW553/GD32VW55X_Wifi_BLE_SDK/GD32VW55x_RELEASE_V1.0.2/MSDK/wifi_manager\wifi_net_ip.c ****  * Release DHCP lease for the specified interface and stop DHCP procedure.
  50:C:/Users/stapi/OneDrive/Desktop/GD32VW553/GD32VW55X_Wifi_BLE_SDK/GD32VW55x_RELEASE_V1.0.2/MSDK/wifi_manager\wifi_net_ip.c ****  *
  51:C:/Users/stapi/OneDrive/Desktop/GD32VW553/GD32VW55X_Wifi_BLE_SDK/GD32VW55x_RELEASE_V1.0.2/MSDK/wifi_manager\wifi_net_ip.c ****  * @param[in] net_if  Pointer to network interface structure
  52:C:/Users/stapi/OneDrive/Desktop/GD32VW553/GD32VW55X_Wifi_BLE_SDK/GD32VW55x_RELEASE_V1.0.2/MSDK/wifi_manager\wifi_net_ip.c ****  *
  53:C:/Users/stapi/OneDrive/Desktop/GD32VW553/GD32VW55X_Wifi_BLE_SDK/GD32VW55x_RELEASE_V1.0.2/MSDK/wifi_manager\wifi_net_ip.c ****  * @return 0 if DHCP is stopped, != 0 an error occurred.
  54:C:/Users/stapi/OneDrive/Desktop/GD32VW553/GD32VW55X_Wifi_BLE_SDK/GD32VW55x_RELEASE_V1.0.2/MSDK/wifi_manager\wifi_net_ip.c ****  ******************************************************************************
  55:C:/Users/stapi/OneDrive/Desktop/GD32VW553/GD32VW55X_Wifi_BLE_SDK/GD32VW55x_RELEASE_V1.0.2/MSDK/wifi_manager\wifi_net_ip.c ****  */
  56:C:/Users/stapi/OneDrive/Desktop/GD32VW553/GD32VW55X_Wifi_BLE_SDK/GD32VW55x_RELEASE_V1.0.2/MSDK/wifi_manager\wifi_net_ip.c **** static int wifi_dhcp_stop(struct netif *net_if)
  22              		.loc 1 56 12
  23              		.cfi_startproc
  24              	.LVL0:
  25 0000 17030000 		call	t0,__riscv_save_1
  25      E7020300 
  26              		.cfi_offset 8, -8
  27              		.cfi_offset 1, -4
  28              		.cfi_def_cfa_offset 16
  57:C:/Users/stapi/OneDrive/Desktop/GD32VW553/GD32VW55X_Wifi_BLE_SDK/GD32VW55x_RELEASE_V1.0.2/MSDK/wifi_manager\wifi_net_ip.c **** {
  58:C:/Users/stapi/OneDrive/Desktop/GD32VW553/GD32VW55X_Wifi_BLE_SDK/GD32VW55x_RELEASE_V1.0.2/MSDK/wifi_manager\wifi_net_ip.c ****     // Release DHCP lease
  59:C:/Users/stapi/OneDrive/Desktop/GD32VW553/GD32VW55X_Wifi_BLE_SDK/GD32VW55x_RELEASE_V1.0.2/MSDK/wifi_manager\wifi_net_ip.c ****     if (!net_dhcp_address_obtained(net_if))
  29              		.loc 1 59 5
  56:C:/Users/stapi/OneDrive/Desktop/GD32VW553/GD32VW55X_Wifi_BLE_SDK/GD32VW55x_RELEASE_V1.0.2/MSDK/wifi_manager\wifi_net_ip.c **** {
  30              		.loc 1 56 12 is_stmt 0
  31 0008 2A84     		mv	s0,a0
  32              		.loc 1 59 10
  33 000a 97000000 		call	net_dhcp_address_obtained
  33      E7800000 
  34              	.LVL1:
  35              		.loc 1 59 8
  36 0012 29E5     		bne	a0,zero,.L3
  60:C:/Users/stapi/OneDrive/Desktop/GD32VW553/GD32VW55X_Wifi_BLE_SDK/GD32VW55x_RELEASE_V1.0.2/MSDK/wifi_manager\wifi_net_ip.c ****     {
  61:C:/Users/stapi/OneDrive/Desktop/GD32VW553/GD32VW55X_Wifi_BLE_SDK/GD32VW55x_RELEASE_V1.0.2/MSDK/wifi_manager\wifi_net_ip.c ****         if (net_dhcp_release(net_if))
  37              		.loc 1 61 9 is_stmt 1
  38              		.loc 1 61 13 is_stmt 0
  39 0014 2285     		mv	a0,s0
  40 0016 97000000 		call	net_dhcp_release
  40      E7800000 
  41              	.LVL2:
  42 001e B7070000 		lui	a5,%hi(global_debug_level)
  43              		.loc 1 61 12
  44 0022 05C1     		beq	a0,zero,.L4
  45              	.LVL3:
  46              	.LBB4:
  47              	.LBB5:
  62:C:/Users/stapi/OneDrive/Desktop/GD32VW553/GD32VW55X_Wifi_BLE_SDK/GD32VW55x_RELEASE_V1.0.2/MSDK/wifi_manager\wifi_net_ip.c ****         {
  63:C:/Users/stapi/OneDrive/Desktop/GD32VW553/GD32VW55X_Wifi_BLE_SDK/GD32VW55x_RELEASE_V1.0.2/MSDK/wifi_manager\wifi_net_ip.c ****             dbg_print(ERR, "Failed to release DHCP\r\n");
  48              		.loc 1 63 13 is_stmt 1
  49              		.loc 1 63 13
  50 0024 83C70700 		lbu	a5,%lo(global_debug_level)(a5)
  51 0028 89CB     		beq	a5,zero,.L1
  52              		.loc 1 63 13
  53 002a 37050000 		lui	a0,%hi(.LC0)
  54 002e 13050500 		addi	a0,a0,%lo(.LC0)
  55 0032 97000000 		call	co_printf
  55      E7800000 
  56              	.LVL4:
  57              	.L1:
  58              	.LBE5:
  59              	.LBE4:
  64:C:/Users/stapi/OneDrive/Desktop/GD32VW553/GD32VW55X_Wifi_BLE_SDK/GD32VW55x_RELEASE_V1.0.2/MSDK/wifi_manager\wifi_net_ip.c ****             return -1;
  65:C:/Users/stapi/OneDrive/Desktop/GD32VW553/GD32VW55X_Wifi_BLE_SDK/GD32VW55x_RELEASE_V1.0.2/MSDK/wifi_manager\wifi_net_ip.c ****         }
  66:C:/Users/stapi/OneDrive/Desktop/GD32VW553/GD32VW55X_Wifi_BLE_SDK/GD32VW55x_RELEASE_V1.0.2/MSDK/wifi_manager\wifi_net_ip.c **** 
  67:C:/Users/stapi/OneDrive/Desktop/GD32VW553/GD32VW55X_Wifi_BLE_SDK/GD32VW55x_RELEASE_V1.0.2/MSDK/wifi_manager\wifi_net_ip.c ****         dbg_print(INFO, "IP released\r\n");
  68:C:/Users/stapi/OneDrive/Desktop/GD32VW553/GD32VW55X_Wifi_BLE_SDK/GD32VW55x_RELEASE_V1.0.2/MSDK/wifi_manager\wifi_net_ip.c ****     }
  69:C:/Users/stapi/OneDrive/Desktop/GD32VW553/GD32VW55X_Wifi_BLE_SDK/GD32VW55x_RELEASE_V1.0.2/MSDK/wifi_manager\wifi_net_ip.c **** 
  70:C:/Users/stapi/OneDrive/Desktop/GD32VW553/GD32VW55X_Wifi_BLE_SDK/GD32VW55x_RELEASE_V1.0.2/MSDK/wifi_manager\wifi_net_ip.c ****     // Stop DHCP
  71:C:/Users/stapi/OneDrive/Desktop/GD32VW553/GD32VW55X_Wifi_BLE_SDK/GD32VW55x_RELEASE_V1.0.2/MSDK/wifi_manager\wifi_net_ip.c ****     net_dhcp_stop(net_if);
  72:C:/Users/stapi/OneDrive/Desktop/GD32VW553/GD32VW55X_Wifi_BLE_SDK/GD32VW55x_RELEASE_V1.0.2/MSDK/wifi_manager\wifi_net_ip.c **** 
  73:C:/Users/stapi/OneDrive/Desktop/GD32VW553/GD32VW55X_Wifi_BLE_SDK/GD32VW55x_RELEASE_V1.0.2/MSDK/wifi_manager\wifi_net_ip.c ****     return 0;
  74:C:/Users/stapi/OneDrive/Desktop/GD32VW553/GD32VW55X_Wifi_BLE_SDK/GD32VW55x_RELEASE_V1.0.2/MSDK/wifi_manager\wifi_net_ip.c **** }
  60              		.loc 1 74 1 is_stmt 0
  61 003a 17030000 		tail	__riscv_restore_1
  61      67000300 
  62              		.cfi_remember_state
  63              		.cfi_restore 8
  64              		.cfi_restore 1
  65              		.cfi_def_cfa_offset 0
  66              	.L4:
  67              		.cfi_restore_state
  67:C:/Users/stapi/OneDrive/Desktop/GD32VW553/GD32VW55X_Wifi_BLE_SDK/GD32VW55x_RELEASE_V1.0.2/MSDK/wifi_manager\wifi_net_ip.c ****     }
  68              		.loc 1 67 9 is_stmt 1
  67:C:/Users/stapi/OneDrive/Desktop/GD32VW553/GD32VW55X_Wifi_BLE_SDK/GD32VW55x_RELEASE_V1.0.2/MSDK/wifi_manager\wifi_net_ip.c ****     }
  69              		.loc 1 67 9
  70 0042 03C70700 		lbu	a4,%lo(global_debug_level)(a5)
  71 0046 8D47     		li	a5,3
  72 0048 63FAE700 		bleu	a4,a5,.L3
  67:C:/Users/stapi/OneDrive/Desktop/GD32VW553/GD32VW55X_Wifi_BLE_SDK/GD32VW55x_RELEASE_V1.0.2/MSDK/wifi_manager\wifi_net_ip.c ****     }
  73              		.loc 1 67 9
  74 004c 37050000 		lui	a0,%hi(.LC1)
  75 0050 13050500 		addi	a0,a0,%lo(.LC1)
  76 0054 97000000 		call	co_printf
  76      E7800000 
  77              	.LVL5:
  78              	.L3:
  67:C:/Users/stapi/OneDrive/Desktop/GD32VW553/GD32VW55X_Wifi_BLE_SDK/GD32VW55x_RELEASE_V1.0.2/MSDK/wifi_manager\wifi_net_ip.c ****     }
  79              		.loc 1 67 9
  71:C:/Users/stapi/OneDrive/Desktop/GD32VW553/GD32VW55X_Wifi_BLE_SDK/GD32VW55x_RELEASE_V1.0.2/MSDK/wifi_manager\wifi_net_ip.c **** 
  80              		.loc 1 71 5
  81 005c 2285     		mv	a0,s0
  82 005e 97000000 		call	net_dhcp_stop
  82      E7800000 
  83              	.LVL6:
  73:C:/Users/stapi/OneDrive/Desktop/GD32VW553/GD32VW55X_Wifi_BLE_SDK/GD32VW55x_RELEASE_V1.0.2/MSDK/wifi_manager\wifi_net_ip.c **** }
  84              		.loc 1 73 5
  73:C:/Users/stapi/OneDrive/Desktop/GD32VW553/GD32VW55X_Wifi_BLE_SDK/GD32VW55x_RELEASE_V1.0.2/MSDK/wifi_manager\wifi_net_ip.c **** }
  85              		.loc 1 73 12 is_stmt 0
  86 0066 D1BF     		j	.L1
  87              		.cfi_endproc
  88              	.LFE23:
  90              		.section	.rodata.wifi_set_vif_ip.str1.4,"aMS",@progbits,1
  91              		.align	2
  92              	.LC2:
  93 0000 6E65745F 		.string	"net_if is not up, stop dhcp\r\n"
  93      69662069 
  93      73206E6F 
  93      74207570 
  93      2C207374 
  94 001e 0000     		.align	2
  95              	.LC3:
  96 0020 4661696C 		.string	"Failed to start DHCP\r\n"
  96      65642074 
  96      6F207374 
  96      61727420 
  96      44484350 
  97 0037 00       		.align	2
  98              	.LC4:
  99 0038 44484350 		.string	"DHCP timeout\r\n"
  99      2074696D 
  99      656F7574 
  99      0D0A00
 100 0047 00       		.align	2
 101              	.LC5:
 102 0048 476F7420 		.string	"Got IP  %d.%d.%d.%d\r\n"
 102      49502020 
 102      25642E25 
 102      642E2564 
 102      2E25640D 
 103 005e 0000     		.align	2
 104              	.LC6:
 105 0060 7B564946 		.string	"{VIF-%d} ip=%d.%d.%d.%d gw=%d.%d.%d.%d\r\n"
 105      2D25647D 
 105      2069703D 
 105      25642E25 
 105      642E2564 
 106              		.section	.text.wifi_set_vif_ip,"ax",@progbits
 107              		.align	1
 108              		.globl	wifi_set_vif_ip
 110              	wifi_set_vif_ip:
 111              	.LFB19:
  75:C:/Users/stapi/OneDrive/Desktop/GD32VW553/GD32VW55X_Wifi_BLE_SDK/GD32VW55x_RELEASE_V1.0.2/MSDK/wifi_manager\wifi_net_ip.c **** 
  76:C:/Users/stapi/OneDrive/Desktop/GD32VW553/GD32VW55X_Wifi_BLE_SDK/GD32VW55x_RELEASE_V1.0.2/MSDK/wifi_manager\wifi_net_ip.c **** /**
  77:C:/Users/stapi/OneDrive/Desktop/GD32VW553/GD32VW55X_Wifi_BLE_SDK/GD32VW55x_RELEASE_V1.0.2/MSDK/wifi_manager\wifi_net_ip.c ****  ******************************************************************************
  78:C:/Users/stapi/OneDrive/Desktop/GD32VW553/GD32VW55X_Wifi_BLE_SDK/GD32VW55x_RELEASE_V1.0.2/MSDK/wifi_manager\wifi_net_ip.c ****  * @brief Retrieve IP address using DHCP
  79:C:/Users/stapi/OneDrive/Desktop/GD32VW553/GD32VW55X_Wifi_BLE_SDK/GD32VW55x_RELEASE_V1.0.2/MSDK/wifi_manager\wifi_net_ip.c ****  *
  80:C:/Users/stapi/OneDrive/Desktop/GD32VW553/GD32VW55X_Wifi_BLE_SDK/GD32VW55x_RELEASE_V1.0.2/MSDK/wifi_manager\wifi_net_ip.c ****  * Start DHCP procedure for the specified interface and wait until
  81:C:/Users/stapi/OneDrive/Desktop/GD32VW553/GD32VW55X_Wifi_BLE_SDK/GD32VW55x_RELEASE_V1.0.2/MSDK/wifi_manager\wifi_net_ip.c ****  * it is completed using a timeout passed as parameter.
  82:C:/Users/stapi/OneDrive/Desktop/GD32VW553/GD32VW55X_Wifi_BLE_SDK/GD32VW55x_RELEASE_V1.0.2/MSDK/wifi_manager\wifi_net_ip.c ****  *
  83:C:/Users/stapi/OneDrive/Desktop/GD32VW553/GD32VW55X_Wifi_BLE_SDK/GD32VW55x_RELEASE_V1.0.2/MSDK/wifi_manager\wifi_net_ip.c ****  * @param[in] net_if  Pointer to network interface structure
  84:C:/Users/stapi/OneDrive/Desktop/GD32VW553/GD32VW55X_Wifi_BLE_SDK/GD32VW55x_RELEASE_V1.0.2/MSDK/wifi_manager\wifi_net_ip.c ****  * @param[in] to_ms   Timeout in milliseconds
  85:C:/Users/stapi/OneDrive/Desktop/GD32VW553/GD32VW55X_Wifi_BLE_SDK/GD32VW55x_RELEASE_V1.0.2/MSDK/wifi_manager\wifi_net_ip.c ****  *
  86:C:/Users/stapi/OneDrive/Desktop/GD32VW553/GD32VW55X_Wifi_BLE_SDK/GD32VW55x_RELEASE_V1.0.2/MSDK/wifi_manager\wifi_net_ip.c ****  * @return 0 when ip address has been received, !=0 an error or timeout occurred.
  87:C:/Users/stapi/OneDrive/Desktop/GD32VW553/GD32VW55X_Wifi_BLE_SDK/GD32VW55x_RELEASE_V1.0.2/MSDK/wifi_manager\wifi_net_ip.c ****  ******************************************************************************
  88:C:/Users/stapi/OneDrive/Desktop/GD32VW553/GD32VW55X_Wifi_BLE_SDK/GD32VW55x_RELEASE_V1.0.2/MSDK/wifi_manager\wifi_net_ip.c ****  */
  89:C:/Users/stapi/OneDrive/Desktop/GD32VW553/GD32VW55X_Wifi_BLE_SDK/GD32VW55x_RELEASE_V1.0.2/MSDK/wifi_manager\wifi_net_ip.c **** static int wifi_dhcp_start(struct netif *net_if, uint32_t to_ms)
  90:C:/Users/stapi/OneDrive/Desktop/GD32VW553/GD32VW55X_Wifi_BLE_SDK/GD32VW55x_RELEASE_V1.0.2/MSDK/wifi_manager\wifi_net_ip.c **** {
  91:C:/Users/stapi/OneDrive/Desktop/GD32VW553/GD32VW55X_Wifi_BLE_SDK/GD32VW55x_RELEASE_V1.0.2/MSDK/wifi_manager\wifi_net_ip.c ****     uint32_t start_ms;
  92:C:/Users/stapi/OneDrive/Desktop/GD32VW553/GD32VW55X_Wifi_BLE_SDK/GD32VW55x_RELEASE_V1.0.2/MSDK/wifi_manager\wifi_net_ip.c **** 
  93:C:/Users/stapi/OneDrive/Desktop/GD32VW553/GD32VW55X_Wifi_BLE_SDK/GD32VW55x_RELEASE_V1.0.2/MSDK/wifi_manager\wifi_net_ip.c ****     if (!netif_is_up(net_if)) {
  94:C:/Users/stapi/OneDrive/Desktop/GD32VW553/GD32VW55X_Wifi_BLE_SDK/GD32VW55x_RELEASE_V1.0.2/MSDK/wifi_manager\wifi_net_ip.c ****         dbg_print(WARNING, "net_if is not up, stop dhcp\r\n");
  95:C:/Users/stapi/OneDrive/Desktop/GD32VW553/GD32VW55X_Wifi_BLE_SDK/GD32VW55x_RELEASE_V1.0.2/MSDK/wifi_manager\wifi_net_ip.c ****         return -1;
  96:C:/Users/stapi/OneDrive/Desktop/GD32VW553/GD32VW55X_Wifi_BLE_SDK/GD32VW55x_RELEASE_V1.0.2/MSDK/wifi_manager\wifi_net_ip.c ****     }
  97:C:/Users/stapi/OneDrive/Desktop/GD32VW553/GD32VW55X_Wifi_BLE_SDK/GD32VW55x_RELEASE_V1.0.2/MSDK/wifi_manager\wifi_net_ip.c **** 
  98:C:/Users/stapi/OneDrive/Desktop/GD32VW553/GD32VW55X_Wifi_BLE_SDK/GD32VW55x_RELEASE_V1.0.2/MSDK/wifi_manager\wifi_net_ip.c ****     // Run DHCP client
  99:C:/Users/stapi/OneDrive/Desktop/GD32VW553/GD32VW55X_Wifi_BLE_SDK/GD32VW55x_RELEASE_V1.0.2/MSDK/wifi_manager\wifi_net_ip.c ****     if (net_dhcp_start(net_if))
 100:C:/Users/stapi/OneDrive/Desktop/GD32VW553/GD32VW55X_Wifi_BLE_SDK/GD32VW55x_RELEASE_V1.0.2/MSDK/wifi_manager\wifi_net_ip.c ****     {
 101:C:/Users/stapi/OneDrive/Desktop/GD32VW553/GD32VW55X_Wifi_BLE_SDK/GD32VW55x_RELEASE_V1.0.2/MSDK/wifi_manager\wifi_net_ip.c ****         dbg_print(ERR, "Failed to start DHCP\r\n");
 102:C:/Users/stapi/OneDrive/Desktop/GD32VW553/GD32VW55X_Wifi_BLE_SDK/GD32VW55x_RELEASE_V1.0.2/MSDK/wifi_manager\wifi_net_ip.c ****         return -1;
 103:C:/Users/stapi/OneDrive/Desktop/GD32VW553/GD32VW55X_Wifi_BLE_SDK/GD32VW55x_RELEASE_V1.0.2/MSDK/wifi_manager\wifi_net_ip.c ****     }
 104:C:/Users/stapi/OneDrive/Desktop/GD32VW553/GD32VW55X_Wifi_BLE_SDK/GD32VW55x_RELEASE_V1.0.2/MSDK/wifi_manager\wifi_net_ip.c **** 
 105:C:/Users/stapi/OneDrive/Desktop/GD32VW553/GD32VW55X_Wifi_BLE_SDK/GD32VW55x_RELEASE_V1.0.2/MSDK/wifi_manager\wifi_net_ip.c ****     if (to_ms == 0) {
 106:C:/Users/stapi/OneDrive/Desktop/GD32VW553/GD32VW55X_Wifi_BLE_SDK/GD32VW55x_RELEASE_V1.0.2/MSDK/wifi_manager\wifi_net_ip.c ****         return 0;
 107:C:/Users/stapi/OneDrive/Desktop/GD32VW553/GD32VW55X_Wifi_BLE_SDK/GD32VW55x_RELEASE_V1.0.2/MSDK/wifi_manager\wifi_net_ip.c ****     }
 108:C:/Users/stapi/OneDrive/Desktop/GD32VW553/GD32VW55X_Wifi_BLE_SDK/GD32VW55x_RELEASE_V1.0.2/MSDK/wifi_manager\wifi_net_ip.c **** 
 109:C:/Users/stapi/OneDrive/Desktop/GD32VW553/GD32VW55X_Wifi_BLE_SDK/GD32VW55x_RELEASE_V1.0.2/MSDK/wifi_manager\wifi_net_ip.c ****     start_ms = sys_os_now(false);
 110:C:/Users/stapi/OneDrive/Desktop/GD32VW553/GD32VW55X_Wifi_BLE_SDK/GD32VW55x_RELEASE_V1.0.2/MSDK/wifi_manager\wifi_net_ip.c ****     while ((!net_dhcp_address_obtained(net_if)) &&
 111:C:/Users/stapi/OneDrive/Desktop/GD32VW553/GD32VW55X_Wifi_BLE_SDK/GD32VW55x_RELEASE_V1.0.2/MSDK/wifi_manager\wifi_net_ip.c ****            (sys_os_now(false) - start_ms < to_ms) &&
 112:C:/Users/stapi/OneDrive/Desktop/GD32VW553/GD32VW55X_Wifi_BLE_SDK/GD32VW55x_RELEASE_V1.0.2/MSDK/wifi_manager\wifi_net_ip.c ****            !net_if_is_static_ip())
 113:C:/Users/stapi/OneDrive/Desktop/GD32VW553/GD32VW55X_Wifi_BLE_SDK/GD32VW55x_RELEASE_V1.0.2/MSDK/wifi_manager\wifi_net_ip.c ****     {
 114:C:/Users/stapi/OneDrive/Desktop/GD32VW553/GD32VW55X_Wifi_BLE_SDK/GD32VW55x_RELEASE_V1.0.2/MSDK/wifi_manager\wifi_net_ip.c ****         sys_ms_sleep(100);
 115:C:/Users/stapi/OneDrive/Desktop/GD32VW553/GD32VW55X_Wifi_BLE_SDK/GD32VW55x_RELEASE_V1.0.2/MSDK/wifi_manager\wifi_net_ip.c ****     }
 116:C:/Users/stapi/OneDrive/Desktop/GD32VW553/GD32VW55X_Wifi_BLE_SDK/GD32VW55x_RELEASE_V1.0.2/MSDK/wifi_manager\wifi_net_ip.c **** 
 117:C:/Users/stapi/OneDrive/Desktop/GD32VW553/GD32VW55X_Wifi_BLE_SDK/GD32VW55x_RELEASE_V1.0.2/MSDK/wifi_manager\wifi_net_ip.c ****     if (!net_dhcp_address_obtained(net_if) && !net_if_is_static_ip())
 118:C:/Users/stapi/OneDrive/Desktop/GD32VW553/GD32VW55X_Wifi_BLE_SDK/GD32VW55x_RELEASE_V1.0.2/MSDK/wifi_manager\wifi_net_ip.c ****     {
 119:C:/Users/stapi/OneDrive/Desktop/GD32VW553/GD32VW55X_Wifi_BLE_SDK/GD32VW55x_RELEASE_V1.0.2/MSDK/wifi_manager\wifi_net_ip.c ****         dbg_print(ERR, "DHCP timeout\r\n");
 120:C:/Users/stapi/OneDrive/Desktop/GD32VW553/GD32VW55X_Wifi_BLE_SDK/GD32VW55x_RELEASE_V1.0.2/MSDK/wifi_manager\wifi_net_ip.c ****         wifi_dhcp_stop(net_if);
 121:C:/Users/stapi/OneDrive/Desktop/GD32VW553/GD32VW55X_Wifi_BLE_SDK/GD32VW55x_RELEASE_V1.0.2/MSDK/wifi_manager\wifi_net_ip.c ****         return -1;
 122:C:/Users/stapi/OneDrive/Desktop/GD32VW553/GD32VW55X_Wifi_BLE_SDK/GD32VW55x_RELEASE_V1.0.2/MSDK/wifi_manager\wifi_net_ip.c ****     } else {
 123:C:/Users/stapi/OneDrive/Desktop/GD32VW553/GD32VW55X_Wifi_BLE_SDK/GD32VW55x_RELEASE_V1.0.2/MSDK/wifi_manager\wifi_net_ip.c ****         struct wifi_ip_addr_cfg cfg;
 124:C:/Users/stapi/OneDrive/Desktop/GD32VW553/GD32VW55X_Wifi_BLE_SDK/GD32VW55x_RELEASE_V1.0.2/MSDK/wifi_manager\wifi_net_ip.c ****         net_if_get_ip(net_if, &(cfg.ipv4.addr), &(cfg.ipv4.mask), &(cfg.ipv4.gw));
 125:C:/Users/stapi/OneDrive/Desktop/GD32VW553/GD32VW55X_Wifi_BLE_SDK/GD32VW55x_RELEASE_V1.0.2/MSDK/wifi_manager\wifi_net_ip.c ****         dbg_print(NOTICE, "Got IP  " IP_FMT "\r\n", IP_ARG(cfg.ipv4.addr));
 126:C:/Users/stapi/OneDrive/Desktop/GD32VW553/GD32VW55X_Wifi_BLE_SDK/GD32VW55x_RELEASE_V1.0.2/MSDK/wifi_manager\wifi_net_ip.c ****     }
 127:C:/Users/stapi/OneDrive/Desktop/GD32VW553/GD32VW55X_Wifi_BLE_SDK/GD32VW55x_RELEASE_V1.0.2/MSDK/wifi_manager\wifi_net_ip.c **** 
 128:C:/Users/stapi/OneDrive/Desktop/GD32VW553/GD32VW55X_Wifi_BLE_SDK/GD32VW55x_RELEASE_V1.0.2/MSDK/wifi_manager\wifi_net_ip.c ****     return 0;
 129:C:/Users/stapi/OneDrive/Desktop/GD32VW553/GD32VW55X_Wifi_BLE_SDK/GD32VW55x_RELEASE_V1.0.2/MSDK/wifi_manager\wifi_net_ip.c **** }
 130:C:/Users/stapi/OneDrive/Desktop/GD32VW553/GD32VW55X_Wifi_BLE_SDK/GD32VW55x_RELEASE_V1.0.2/MSDK/wifi_manager\wifi_net_ip.c **** 
 131:C:/Users/stapi/OneDrive/Desktop/GD32VW553/GD32VW55X_Wifi_BLE_SDK/GD32VW55x_RELEASE_V1.0.2/MSDK/wifi_manager\wifi_net_ip.c **** #if 0
 132:C:/Users/stapi/OneDrive/Desktop/GD32VW553/GD32VW55X_Wifi_BLE_SDK/GD32VW55x_RELEASE_V1.0.2/MSDK/wifi_manager\wifi_net_ip.c **** int wifi_dhcp_start_no_wait(void *net_if)
 133:C:/Users/stapi/OneDrive/Desktop/GD32VW553/GD32VW55X_Wifi_BLE_SDK/GD32VW55x_RELEASE_V1.0.2/MSDK/wifi_manager\wifi_net_ip.c **** {
 134:C:/Users/stapi/OneDrive/Desktop/GD32VW553/GD32VW55X_Wifi_BLE_SDK/GD32VW55x_RELEASE_V1.0.2/MSDK/wifi_manager\wifi_net_ip.c ****     if (!netif_is_up((struct netif *)net_if)) {
 135:C:/Users/stapi/OneDrive/Desktop/GD32VW553/GD32VW55X_Wifi_BLE_SDK/GD32VW55x_RELEASE_V1.0.2/MSDK/wifi_manager\wifi_net_ip.c ****         dbg_print(WARNING, "net_if is not up, stop dhcp\r\n");
 136:C:/Users/stapi/OneDrive/Desktop/GD32VW553/GD32VW55X_Wifi_BLE_SDK/GD32VW55x_RELEASE_V1.0.2/MSDK/wifi_manager\wifi_net_ip.c ****         return -1;
 137:C:/Users/stapi/OneDrive/Desktop/GD32VW553/GD32VW55X_Wifi_BLE_SDK/GD32VW55x_RELEASE_V1.0.2/MSDK/wifi_manager\wifi_net_ip.c ****     }
 138:C:/Users/stapi/OneDrive/Desktop/GD32VW553/GD32VW55X_Wifi_BLE_SDK/GD32VW55x_RELEASE_V1.0.2/MSDK/wifi_manager\wifi_net_ip.c **** 
 139:C:/Users/stapi/OneDrive/Desktop/GD32VW553/GD32VW55X_Wifi_BLE_SDK/GD32VW55x_RELEASE_V1.0.2/MSDK/wifi_manager\wifi_net_ip.c ****     // Run DHCP client
 140:C:/Users/stapi/OneDrive/Desktop/GD32VW553/GD32VW55X_Wifi_BLE_SDK/GD32VW55x_RELEASE_V1.0.2/MSDK/wifi_manager\wifi_net_ip.c ****     if (net_dhcp_start((struct netif *)net_if))
 141:C:/Users/stapi/OneDrive/Desktop/GD32VW553/GD32VW55X_Wifi_BLE_SDK/GD32VW55x_RELEASE_V1.0.2/MSDK/wifi_manager\wifi_net_ip.c ****     {
 142:C:/Users/stapi/OneDrive/Desktop/GD32VW553/GD32VW55X_Wifi_BLE_SDK/GD32VW55x_RELEASE_V1.0.2/MSDK/wifi_manager\wifi_net_ip.c ****         dbg_print(ERR, "Failed to start DHCP\r\n");
 143:C:/Users/stapi/OneDrive/Desktop/GD32VW553/GD32VW55X_Wifi_BLE_SDK/GD32VW55x_RELEASE_V1.0.2/MSDK/wifi_manager\wifi_net_ip.c ****         return -1;
 144:C:/Users/stapi/OneDrive/Desktop/GD32VW553/GD32VW55X_Wifi_BLE_SDK/GD32VW55x_RELEASE_V1.0.2/MSDK/wifi_manager\wifi_net_ip.c ****     }
 145:C:/Users/stapi/OneDrive/Desktop/GD32VW553/GD32VW55X_Wifi_BLE_SDK/GD32VW55x_RELEASE_V1.0.2/MSDK/wifi_manager\wifi_net_ip.c **** 
 146:C:/Users/stapi/OneDrive/Desktop/GD32VW553/GD32VW55X_Wifi_BLE_SDK/GD32VW55x_RELEASE_V1.0.2/MSDK/wifi_manager\wifi_net_ip.c ****     return 0;
 147:C:/Users/stapi/OneDrive/Desktop/GD32VW553/GD32VW55X_Wifi_BLE_SDK/GD32VW55x_RELEASE_V1.0.2/MSDK/wifi_manager\wifi_net_ip.c **** }
 148:C:/Users/stapi/OneDrive/Desktop/GD32VW553/GD32VW55X_Wifi_BLE_SDK/GD32VW55x_RELEASE_V1.0.2/MSDK/wifi_manager\wifi_net_ip.c **** #endif
 149:C:/Users/stapi/OneDrive/Desktop/GD32VW553/GD32VW55X_Wifi_BLE_SDK/GD32VW55x_RELEASE_V1.0.2/MSDK/wifi_manager\wifi_net_ip.c **** /*
 150:C:/Users/stapi/OneDrive/Desktop/GD32VW553/GD32VW55X_Wifi_BLE_SDK/GD32VW55x_RELEASE_V1.0.2/MSDK/wifi_manager\wifi_net_ip.c ****  ****************************************************************************************
 151:C:/Users/stapi/OneDrive/Desktop/GD32VW553/GD32VW55X_Wifi_BLE_SDK/GD32VW55x_RELEASE_V1.0.2/MSDK/wifi_manager\wifi_net_ip.c ****  * PUBLIC FUNCTIONS
 152:C:/Users/stapi/OneDrive/Desktop/GD32VW553/GD32VW55X_Wifi_BLE_SDK/GD32VW55x_RELEASE_V1.0.2/MSDK/wifi_manager\wifi_net_ip.c ****  ****************************************************************************************
 153:C:/Users/stapi/OneDrive/Desktop/GD32VW553/GD32VW55X_Wifi_BLE_SDK/GD32VW55x_RELEASE_V1.0.2/MSDK/wifi_manager\wifi_net_ip.c ****  */
 154:C:/Users/stapi/OneDrive/Desktop/GD32VW553/GD32VW55X_Wifi_BLE_SDK/GD32VW55x_RELEASE_V1.0.2/MSDK/wifi_manager\wifi_net_ip.c **** /*!
 155:C:/Users/stapi/OneDrive/Desktop/GD32VW553/GD32VW55X_Wifi_BLE_SDK/GD32VW55x_RELEASE_V1.0.2/MSDK/wifi_manager\wifi_net_ip.c ****     \brief      Config the IP address infomation
 156:C:/Users/stapi/OneDrive/Desktop/GD32VW553/GD32VW55X_Wifi_BLE_SDK/GD32VW55x_RELEASE_V1.0.2/MSDK/wifi_manager\wifi_net_ip.c ****     \param[in]  vif_idx: index of the wifi vif
 157:C:/Users/stapi/OneDrive/Desktop/GD32VW553/GD32VW55X_Wifi_BLE_SDK/GD32VW55x_RELEASE_V1.0.2/MSDK/wifi_manager\wifi_net_ip.c ****     \param[in]  cfg: pointer to the IP address infomation
 158:C:/Users/stapi/OneDrive/Desktop/GD32VW553/GD32VW55X_Wifi_BLE_SDK/GD32VW55x_RELEASE_V1.0.2/MSDK/wifi_manager\wifi_net_ip.c ****     \param[out] none
 159:C:/Users/stapi/OneDrive/Desktop/GD32VW553/GD32VW55X_Wifi_BLE_SDK/GD32VW55x_RELEASE_V1.0.2/MSDK/wifi_manager\wifi_net_ip.c ****     \retval     0 on success and != 0 if error occured.
 160:C:/Users/stapi/OneDrive/Desktop/GD32VW553/GD32VW55X_Wifi_BLE_SDK/GD32VW55x_RELEASE_V1.0.2/MSDK/wifi_manager\wifi_net_ip.c **** */
 161:C:/Users/stapi/OneDrive/Desktop/GD32VW553/GD32VW55X_Wifi_BLE_SDK/GD32VW55x_RELEASE_V1.0.2/MSDK/wifi_manager\wifi_net_ip.c **** int wifi_set_vif_ip(int vif_idx, struct wifi_ip_addr_cfg *cfg)
 162:C:/Users/stapi/OneDrive/Desktop/GD32VW553/GD32VW55X_Wifi_BLE_SDK/GD32VW55x_RELEASE_V1.0.2/MSDK/wifi_manager\wifi_net_ip.c **** {
 112              		.loc 1 162 1 is_stmt 1
 113              		.cfi_startproc
 114              	.LVL7:
 163:C:/Users/stapi/OneDrive/Desktop/GD32VW553/GD32VW55X_Wifi_BLE_SDK/GD32VW55x_RELEASE_V1.0.2/MSDK/wifi_manager\wifi_net_ip.c ****     struct netif *net_if;
 115              		.loc 1 163 5
 164:C:/Users/stapi/OneDrive/Desktop/GD32VW553/GD32VW55X_Wifi_BLE_SDK/GD32VW55x_RELEASE_V1.0.2/MSDK/wifi_manager\wifi_net_ip.c **** 
 165:C:/Users/stapi/OneDrive/Desktop/GD32VW553/GD32VW55X_Wifi_BLE_SDK/GD32VW55x_RELEASE_V1.0.2/MSDK/wifi_manager\wifi_net_ip.c ****     if (vif_idx >= CFG_VIF_NUM)
 116              		.loc 1 165 5
 117              		.loc 1 165 8 is_stmt 0
 118 0000 8547     		li	a5,1
 119 0002 63D4A700 		ble	a0,a5,.L12
 166:C:/Users/stapi/OneDrive/Desktop/GD32VW553/GD32VW55X_Wifi_BLE_SDK/GD32VW55x_RELEASE_V1.0.2/MSDK/wifi_manager\wifi_net_ip.c ****         return -1;
 120              		.loc 1 166 16
 121 0006 7D55     		li	a0,-1
 122              	.LVL8:
 167:C:/Users/stapi/OneDrive/Desktop/GD32VW553/GD32VW55X_Wifi_BLE_SDK/GD32VW55x_RELEASE_V1.0.2/MSDK/wifi_manager\wifi_net_ip.c **** 
 168:C:/Users/stapi/OneDrive/Desktop/GD32VW553/GD32VW55X_Wifi_BLE_SDK/GD32VW55x_RELEASE_V1.0.2/MSDK/wifi_manager\wifi_net_ip.c ****     net_if = vif_idx_to_net_if(vif_idx);
 169:C:/Users/stapi/OneDrive/Desktop/GD32VW553/GD32VW55X_Wifi_BLE_SDK/GD32VW55x_RELEASE_V1.0.2/MSDK/wifi_manager\wifi_net_ip.c ****     if (!net_if)
 170:C:/Users/stapi/OneDrive/Desktop/GD32VW553/GD32VW55X_Wifi_BLE_SDK/GD32VW55x_RELEASE_V1.0.2/MSDK/wifi_manager\wifi_net_ip.c ****         return -1;
 171:C:/Users/stapi/OneDrive/Desktop/GD32VW553/GD32VW55X_Wifi_BLE_SDK/GD32VW55x_RELEASE_V1.0.2/MSDK/wifi_manager\wifi_net_ip.c **** 
 172:C:/Users/stapi/OneDrive/Desktop/GD32VW553/GD32VW55X_Wifi_BLE_SDK/GD32VW55x_RELEASE_V1.0.2/MSDK/wifi_manager\wifi_net_ip.c ****     if (cfg->mode != IP_ADDR_DHCP_SERVER)
 173:C:/Users/stapi/OneDrive/Desktop/GD32VW553/GD32VW55X_Wifi_BLE_SDK/GD32VW55x_RELEASE_V1.0.2/MSDK/wifi_manager\wifi_net_ip.c ****     {
 174:C:/Users/stapi/OneDrive/Desktop/GD32VW553/GD32VW55X_Wifi_BLE_SDK/GD32VW55x_RELEASE_V1.0.2/MSDK/wifi_manager\wifi_net_ip.c ****         net_dhcpd_stop(net_if);
 175:C:/Users/stapi/OneDrive/Desktop/GD32VW553/GD32VW55X_Wifi_BLE_SDK/GD32VW55x_RELEASE_V1.0.2/MSDK/wifi_manager\wifi_net_ip.c ****     }
 176:C:/Users/stapi/OneDrive/Desktop/GD32VW553/GD32VW55X_Wifi_BLE_SDK/GD32VW55x_RELEASE_V1.0.2/MSDK/wifi_manager\wifi_net_ip.c **** #ifdef CONFIG_IPV6_SUPPORT
 177:C:/Users/stapi/OneDrive/Desktop/GD32VW553/GD32VW55X_Wifi_BLE_SDK/GD32VW55x_RELEASE_V1.0.2/MSDK/wifi_manager\wifi_net_ip.c ****     if (cfg->ip6_mode != IP6_ADDR_SERVER)
 178:C:/Users/stapi/OneDrive/Desktop/GD32VW553/GD32VW55X_Wifi_BLE_SDK/GD32VW55x_RELEASE_V1.0.2/MSDK/wifi_manager\wifi_net_ip.c ****     {
 179:C:/Users/stapi/OneDrive/Desktop/GD32VW553/GD32VW55X_Wifi_BLE_SDK/GD32VW55x_RELEASE_V1.0.2/MSDK/wifi_manager\wifi_net_ip.c ****         net_ip6_server_stop(net_if);
 180:C:/Users/stapi/OneDrive/Desktop/GD32VW553/GD32VW55X_Wifi_BLE_SDK/GD32VW55x_RELEASE_V1.0.2/MSDK/wifi_manager\wifi_net_ip.c ****     }
 181:C:/Users/stapi/OneDrive/Desktop/GD32VW553/GD32VW55X_Wifi_BLE_SDK/GD32VW55x_RELEASE_V1.0.2/MSDK/wifi_manager\wifi_net_ip.c ****     if (cfg->ip6_mode == IP6_ADDR_NONE) {
 182:C:/Users/stapi/OneDrive/Desktop/GD32VW553/GD32VW55X_Wifi_BLE_SDK/GD32VW55x_RELEASE_V1.0.2/MSDK/wifi_manager\wifi_net_ip.c ****         wifi_ip6_unique_addr_set_invalid(net_if);
 183:C:/Users/stapi/OneDrive/Desktop/GD32VW553/GD32VW55X_Wifi_BLE_SDK/GD32VW55x_RELEASE_V1.0.2/MSDK/wifi_manager\wifi_net_ip.c ****     }
 184:C:/Users/stapi/OneDrive/Desktop/GD32VW553/GD32VW55X_Wifi_BLE_SDK/GD32VW55x_RELEASE_V1.0.2/MSDK/wifi_manager\wifi_net_ip.c **** #endif /* CONFIG_IPV6_SUPPORT */
 185:C:/Users/stapi/OneDrive/Desktop/GD32VW553/GD32VW55X_Wifi_BLE_SDK/GD32VW55x_RELEASE_V1.0.2/MSDK/wifi_manager\wifi_net_ip.c ****     if (cfg->mode == IP_ADDR_NONE)
 186:C:/Users/stapi/OneDrive/Desktop/GD32VW553/GD32VW55X_Wifi_BLE_SDK/GD32VW55x_RELEASE_V1.0.2/MSDK/wifi_manager\wifi_net_ip.c ****     {
 187:C:/Users/stapi/OneDrive/Desktop/GD32VW553/GD32VW55X_Wifi_BLE_SDK/GD32VW55x_RELEASE_V1.0.2/MSDK/wifi_manager\wifi_net_ip.c ****         // clear current IP address
 188:C:/Users/stapi/OneDrive/Desktop/GD32VW553/GD32VW55X_Wifi_BLE_SDK/GD32VW55x_RELEASE_V1.0.2/MSDK/wifi_manager\wifi_net_ip.c ****         if (!net_if_is_static_ip()) {
 189:C:/Users/stapi/OneDrive/Desktop/GD32VW553/GD32VW55X_Wifi_BLE_SDK/GD32VW55x_RELEASE_V1.0.2/MSDK/wifi_manager\wifi_net_ip.c ****             wifi_dhcp_stop(net_if);
 190:C:/Users/stapi/OneDrive/Desktop/GD32VW553/GD32VW55X_Wifi_BLE_SDK/GD32VW55x_RELEASE_V1.0.2/MSDK/wifi_manager\wifi_net_ip.c ****             net_if_set_ip(net_if, 0, 0, 0);
 191:C:/Users/stapi/OneDrive/Desktop/GD32VW553/GD32VW55X_Wifi_BLE_SDK/GD32VW55x_RELEASE_V1.0.2/MSDK/wifi_manager\wifi_net_ip.c ****         }
 192:C:/Users/stapi/OneDrive/Desktop/GD32VW553/GD32VW55X_Wifi_BLE_SDK/GD32VW55x_RELEASE_V1.0.2/MSDK/wifi_manager\wifi_net_ip.c ****         return 0;
 193:C:/Users/stapi/OneDrive/Desktop/GD32VW553/GD32VW55X_Wifi_BLE_SDK/GD32VW55x_RELEASE_V1.0.2/MSDK/wifi_manager\wifi_net_ip.c ****     }
 194:C:/Users/stapi/OneDrive/Desktop/GD32VW553/GD32VW55X_Wifi_BLE_SDK/GD32VW55x_RELEASE_V1.0.2/MSDK/wifi_manager\wifi_net_ip.c ****     if (cfg->mode == IP_ADDR_STATIC_IPV4)
 195:C:/Users/stapi/OneDrive/Desktop/GD32VW553/GD32VW55X_Wifi_BLE_SDK/GD32VW55x_RELEASE_V1.0.2/MSDK/wifi_manager\wifi_net_ip.c ****     {
 196:C:/Users/stapi/OneDrive/Desktop/GD32VW553/GD32VW55X_Wifi_BLE_SDK/GD32VW55x_RELEASE_V1.0.2/MSDK/wifi_manager\wifi_net_ip.c ****         // To be safe
 197:C:/Users/stapi/OneDrive/Desktop/GD32VW553/GD32VW55X_Wifi_BLE_SDK/GD32VW55x_RELEASE_V1.0.2/MSDK/wifi_manager\wifi_net_ip.c ****         wifi_dhcp_stop(net_if);
 198:C:/Users/stapi/OneDrive/Desktop/GD32VW553/GD32VW55X_Wifi_BLE_SDK/GD32VW55x_RELEASE_V1.0.2/MSDK/wifi_manager\wifi_net_ip.c ****         net_if_set_ip(net_if, cfg->ipv4.addr, cfg->ipv4.mask, cfg->ipv4.gw);
 199:C:/Users/stapi/OneDrive/Desktop/GD32VW553/GD32VW55X_Wifi_BLE_SDK/GD32VW55x_RELEASE_V1.0.2/MSDK/wifi_manager\wifi_net_ip.c **** 
 200:C:/Users/stapi/OneDrive/Desktop/GD32VW553/GD32VW55X_Wifi_BLE_SDK/GD32VW55x_RELEASE_V1.0.2/MSDK/wifi_manager\wifi_net_ip.c ****         if (cfg->ipv4.dns)
 201:C:/Users/stapi/OneDrive/Desktop/GD32VW553/GD32VW55X_Wifi_BLE_SDK/GD32VW55x_RELEASE_V1.0.2/MSDK/wifi_manager\wifi_net_ip.c ****             net_set_dns(cfg->ipv4.dns);
 202:C:/Users/stapi/OneDrive/Desktop/GD32VW553/GD32VW55X_Wifi_BLE_SDK/GD32VW55x_RELEASE_V1.0.2/MSDK/wifi_manager\wifi_net_ip.c ****         else
 203:C:/Users/stapi/OneDrive/Desktop/GD32VW553/GD32VW55X_Wifi_BLE_SDK/GD32VW55x_RELEASE_V1.0.2/MSDK/wifi_manager\wifi_net_ip.c ****             net_get_dns(&cfg->ipv4.dns);
 204:C:/Users/stapi/OneDrive/Desktop/GD32VW553/GD32VW55X_Wifi_BLE_SDK/GD32VW55x_RELEASE_V1.0.2/MSDK/wifi_manager\wifi_net_ip.c ****     }
 205:C:/Users/stapi/OneDrive/Desktop/GD32VW553/GD32VW55X_Wifi_BLE_SDK/GD32VW55x_RELEASE_V1.0.2/MSDK/wifi_manager\wifi_net_ip.c ****     else if (cfg->mode == IP_ADDR_DHCP_CLIENT)
 206:C:/Users/stapi/OneDrive/Desktop/GD32VW553/GD32VW55X_Wifi_BLE_SDK/GD32VW55x_RELEASE_V1.0.2/MSDK/wifi_manager\wifi_net_ip.c ****     {
 207:C:/Users/stapi/OneDrive/Desktop/GD32VW553/GD32VW55X_Wifi_BLE_SDK/GD32VW55x_RELEASE_V1.0.2/MSDK/wifi_manager\wifi_net_ip.c **** #ifdef CFG_COEX
 208:C:/Users/stapi/OneDrive/Desktop/GD32VW553/GD32VW55X_Wifi_BLE_SDK/GD32VW55x_RELEASE_V1.0.2/MSDK/wifi_manager\wifi_net_ip.c ****         {
 209:C:/Users/stapi/OneDrive/Desktop/GD32VW553/GD32VW55X_Wifi_BLE_SDK/GD32VW55x_RELEASE_V1.0.2/MSDK/wifi_manager\wifi_net_ip.c ****             uint8_t ble_pti;
 210:C:/Users/stapi/OneDrive/Desktop/GD32VW553/GD32VW55X_Wifi_BLE_SDK/GD32VW55x_RELEASE_V1.0.2/MSDK/wifi_manager\wifi_net_ip.c ****             int32_t ret;
 211:C:/Users/stapi/OneDrive/Desktop/GD32VW553/GD32VW55X_Wifi_BLE_SDK/GD32VW55x_RELEASE_V1.0.2/MSDK/wifi_manager\wifi_net_ip.c **** 
 212:C:/Users/stapi/OneDrive/Desktop/GD32VW553/GD32VW55X_Wifi_BLE_SDK/GD32VW55x_RELEASE_V1.0.2/MSDK/wifi_manager\wifi_net_ip.c ****             ble_pti = coex_get_wlan_pti(WLAN_PTI_BE_DATA);
 213:C:/Users/stapi/OneDrive/Desktop/GD32VW553/GD32VW55X_Wifi_BLE_SDK/GD32VW55x_RELEASE_V1.0.2/MSDK/wifi_manager\wifi_net_ip.c ****             coex_set_wlan_pti(WLAN_PTI_BE_DATA, 6);
 214:C:/Users/stapi/OneDrive/Desktop/GD32VW553/GD32VW55X_Wifi_BLE_SDK/GD32VW55x_RELEASE_V1.0.2/MSDK/wifi_manager\wifi_net_ip.c ****             ret = wifi_dhcp_start(net_if, cfg->dhcp.to_ms);
 215:C:/Users/stapi/OneDrive/Desktop/GD32VW553/GD32VW55X_Wifi_BLE_SDK/GD32VW55x_RELEASE_V1.0.2/MSDK/wifi_manager\wifi_net_ip.c ****             coex_set_wlan_pti(WLAN_PTI_BE_DATA, ble_pti);
 216:C:/Users/stapi/OneDrive/Desktop/GD32VW553/GD32VW55X_Wifi_BLE_SDK/GD32VW55x_RELEASE_V1.0.2/MSDK/wifi_manager\wifi_net_ip.c ****             if (ret != 0)
 217:C:/Users/stapi/OneDrive/Desktop/GD32VW553/GD32VW55X_Wifi_BLE_SDK/GD32VW55x_RELEASE_V1.0.2/MSDK/wifi_manager\wifi_net_ip.c ****                 return -1;
 218:C:/Users/stapi/OneDrive/Desktop/GD32VW553/GD32VW55X_Wifi_BLE_SDK/GD32VW55x_RELEASE_V1.0.2/MSDK/wifi_manager\wifi_net_ip.c ****         }
 219:C:/Users/stapi/OneDrive/Desktop/GD32VW553/GD32VW55X_Wifi_BLE_SDK/GD32VW55x_RELEASE_V1.0.2/MSDK/wifi_manager\wifi_net_ip.c **** #else
 220:C:/Users/stapi/OneDrive/Desktop/GD32VW553/GD32VW55X_Wifi_BLE_SDK/GD32VW55x_RELEASE_V1.0.2/MSDK/wifi_manager\wifi_net_ip.c ****         if (wifi_dhcp_start(net_if, cfg->dhcp.to_ms))
 221:C:/Users/stapi/OneDrive/Desktop/GD32VW553/GD32VW55X_Wifi_BLE_SDK/GD32VW55x_RELEASE_V1.0.2/MSDK/wifi_manager\wifi_net_ip.c ****             return -1;
 222:C:/Users/stapi/OneDrive/Desktop/GD32VW553/GD32VW55X_Wifi_BLE_SDK/GD32VW55x_RELEASE_V1.0.2/MSDK/wifi_manager\wifi_net_ip.c **** #endif
 223:C:/Users/stapi/OneDrive/Desktop/GD32VW553/GD32VW55X_Wifi_BLE_SDK/GD32VW55x_RELEASE_V1.0.2/MSDK/wifi_manager\wifi_net_ip.c **** 
 224:C:/Users/stapi/OneDrive/Desktop/GD32VW553/GD32VW55X_Wifi_BLE_SDK/GD32VW55x_RELEASE_V1.0.2/MSDK/wifi_manager\wifi_net_ip.c ****         net_if_get_ip(net_if, &(cfg->ipv4.addr), &(cfg->ipv4.mask), &(cfg->ipv4.gw));
 225:C:/Users/stapi/OneDrive/Desktop/GD32VW553/GD32VW55X_Wifi_BLE_SDK/GD32VW55x_RELEASE_V1.0.2/MSDK/wifi_manager\wifi_net_ip.c ****         net_get_dns(&cfg->ipv4.dns);
 226:C:/Users/stapi/OneDrive/Desktop/GD32VW553/GD32VW55X_Wifi_BLE_SDK/GD32VW55x_RELEASE_V1.0.2/MSDK/wifi_manager\wifi_net_ip.c **** 
 227:C:/Users/stapi/OneDrive/Desktop/GD32VW553/GD32VW55X_Wifi_BLE_SDK/GD32VW55x_RELEASE_V1.0.2/MSDK/wifi_manager\wifi_net_ip.c ****         dbg_print(INFO, "{VIF-%d} ip=" IP_FMT " gw=" IP_FMT "\r\n",
 228:C:/Users/stapi/OneDrive/Desktop/GD32VW553/GD32VW55X_Wifi_BLE_SDK/GD32VW55x_RELEASE_V1.0.2/MSDK/wifi_manager\wifi_net_ip.c ****                         vif_idx, IP_ARG(cfg->ipv4.addr), IP_ARG(cfg->ipv4.gw));
 229:C:/Users/stapi/OneDrive/Desktop/GD32VW553/GD32VW55X_Wifi_BLE_SDK/GD32VW55x_RELEASE_V1.0.2/MSDK/wifi_manager\wifi_net_ip.c ****     }
 230:C:/Users/stapi/OneDrive/Desktop/GD32VW553/GD32VW55X_Wifi_BLE_SDK/GD32VW55x_RELEASE_V1.0.2/MSDK/wifi_manager\wifi_net_ip.c ****     else if (cfg->mode == IP_ADDR_DHCP_SERVER)
 231:C:/Users/stapi/OneDrive/Desktop/GD32VW553/GD32VW55X_Wifi_BLE_SDK/GD32VW55x_RELEASE_V1.0.2/MSDK/wifi_manager\wifi_net_ip.c ****     {
 232:C:/Users/stapi/OneDrive/Desktop/GD32VW553/GD32VW55X_Wifi_BLE_SDK/GD32VW55x_RELEASE_V1.0.2/MSDK/wifi_manager\wifi_net_ip.c ****         wifi_dhcp_stop(net_if);
 233:C:/Users/stapi/OneDrive/Desktop/GD32VW553/GD32VW55X_Wifi_BLE_SDK/GD32VW55x_RELEASE_V1.0.2/MSDK/wifi_manager\wifi_net_ip.c ****         net_if_set_ip(net_if, cfg->ipv4.addr, cfg->ipv4.mask, cfg->ipv4.gw);
 234:C:/Users/stapi/OneDrive/Desktop/GD32VW553/GD32VW55X_Wifi_BLE_SDK/GD32VW55x_RELEASE_V1.0.2/MSDK/wifi_manager\wifi_net_ip.c ****         net_dhcpd_stop(net_if);
 235:C:/Users/stapi/OneDrive/Desktop/GD32VW553/GD32VW55X_Wifi_BLE_SDK/GD32VW55x_RELEASE_V1.0.2/MSDK/wifi_manager\wifi_net_ip.c ****         if (net_dhcpd_start(net_if))
 236:C:/Users/stapi/OneDrive/Desktop/GD32VW553/GD32VW55X_Wifi_BLE_SDK/GD32VW55x_RELEASE_V1.0.2/MSDK/wifi_manager\wifi_net_ip.c ****             return -1;
 237:C:/Users/stapi/OneDrive/Desktop/GD32VW553/GD32VW55X_Wifi_BLE_SDK/GD32VW55x_RELEASE_V1.0.2/MSDK/wifi_manager\wifi_net_ip.c ****     }
 238:C:/Users/stapi/OneDrive/Desktop/GD32VW553/GD32VW55X_Wifi_BLE_SDK/GD32VW55x_RELEASE_V1.0.2/MSDK/wifi_manager\wifi_net_ip.c ****     else
 239:C:/Users/stapi/OneDrive/Desktop/GD32VW553/GD32VW55X_Wifi_BLE_SDK/GD32VW55x_RELEASE_V1.0.2/MSDK/wifi_manager\wifi_net_ip.c ****     {
 240:C:/Users/stapi/OneDrive/Desktop/GD32VW553/GD32VW55X_Wifi_BLE_SDK/GD32VW55x_RELEASE_V1.0.2/MSDK/wifi_manager\wifi_net_ip.c ****         return -1;
 241:C:/Users/stapi/OneDrive/Desktop/GD32VW553/GD32VW55X_Wifi_BLE_SDK/GD32VW55x_RELEASE_V1.0.2/MSDK/wifi_manager\wifi_net_ip.c ****     }
 242:C:/Users/stapi/OneDrive/Desktop/GD32VW553/GD32VW55X_Wifi_BLE_SDK/GD32VW55x_RELEASE_V1.0.2/MSDK/wifi_manager\wifi_net_ip.c **** 
 243:C:/Users/stapi/OneDrive/Desktop/GD32VW553/GD32VW55X_Wifi_BLE_SDK/GD32VW55x_RELEASE_V1.0.2/MSDK/wifi_manager\wifi_net_ip.c **** #ifdef CONFIG_IPV6_SUPPORT
 244:C:/Users/stapi/OneDrive/Desktop/GD32VW553/GD32VW55X_Wifi_BLE_SDK/GD32VW55x_RELEASE_V1.0.2/MSDK/wifi_manager\wifi_net_ip.c ****     if (cfg->ip6_mode == IP6_ADDR_SERVER)
 245:C:/Users/stapi/OneDrive/Desktop/GD32VW553/GD32VW55X_Wifi_BLE_SDK/GD32VW55x_RELEASE_V1.0.2/MSDK/wifi_manager\wifi_net_ip.c ****     {
 246:C:/Users/stapi/OneDrive/Desktop/GD32VW553/GD32VW55X_Wifi_BLE_SDK/GD32VW55x_RELEASE_V1.0.2/MSDK/wifi_manager\wifi_net_ip.c ****         net_ip6_server_start(net_if);
 247:C:/Users/stapi/OneDrive/Desktop/GD32VW553/GD32VW55X_Wifi_BLE_SDK/GD32VW55x_RELEASE_V1.0.2/MSDK/wifi_manager\wifi_net_ip.c ****     }
 248:C:/Users/stapi/OneDrive/Desktop/GD32VW553/GD32VW55X_Wifi_BLE_SDK/GD32VW55x_RELEASE_V1.0.2/MSDK/wifi_manager\wifi_net_ip.c **** #endif /* CONFIG_IPV6_SUPPORT */
 249:C:/Users/stapi/OneDrive/Desktop/GD32VW553/GD32VW55X_Wifi_BLE_SDK/GD32VW55x_RELEASE_V1.0.2/MSDK/wifi_manager\wifi_net_ip.c **** 
 250:C:/Users/stapi/OneDrive/Desktop/GD32VW553/GD32VW55X_Wifi_BLE_SDK/GD32VW55x_RELEASE_V1.0.2/MSDK/wifi_manager\wifi_net_ip.c ****     if (cfg->default_output)
 251:C:/Users/stapi/OneDrive/Desktop/GD32VW553/GD32VW55X_Wifi_BLE_SDK/GD32VW55x_RELEASE_V1.0.2/MSDK/wifi_manager\wifi_net_ip.c ****         net_if_set_default(net_if);
 252:C:/Users/stapi/OneDrive/Desktop/GD32VW553/GD32VW55X_Wifi_BLE_SDK/GD32VW55x_RELEASE_V1.0.2/MSDK/wifi_manager\wifi_net_ip.c **** 
 253:C:/Users/stapi/OneDrive/Desktop/GD32VW553/GD32VW55X_Wifi_BLE_SDK/GD32VW55x_RELEASE_V1.0.2/MSDK/wifi_manager\wifi_net_ip.c **** 
 254:C:/Users/stapi/OneDrive/Desktop/GD32VW553/GD32VW55X_Wifi_BLE_SDK/GD32VW55x_RELEASE_V1.0.2/MSDK/wifi_manager\wifi_net_ip.c ****     return 0;
 255:C:/Users/stapi/OneDrive/Desktop/GD32VW553/GD32VW55X_Wifi_BLE_SDK/GD32VW55x_RELEASE_V1.0.2/MSDK/wifi_manager\wifi_net_ip.c **** }
 123              		.loc 1 255 1
 124 0008 8280     		ret
 125              	.LVL9:
 126              	.L12:
 162:C:/Users/stapi/OneDrive/Desktop/GD32VW553/GD32VW55X_Wifi_BLE_SDK/GD32VW55x_RELEASE_V1.0.2/MSDK/wifi_manager\wifi_net_ip.c ****     struct netif *net_if;
 127              		.loc 1 162 1
 128 000a 17030000 		call	t0,__riscv_save_7
 128      E7020300 
 129              		.cfi_offset 22, -32
 130              		.cfi_offset 21, -28
 131              		.cfi_offset 20, -24
 132              		.cfi_offset 19, -20
 133              		.cfi_offset 18, -16
 134              		.cfi_offset 9, -12
 135              		.cfi_offset 8, -8
 136              		.cfi_offset 1, -4
 137              		.cfi_def_cfa_offset 32
 138 0012 7971     		addi	sp,sp,-48
 139              		.cfi_def_cfa_offset 80
 140 0014 AA89     		mv	s3,a0
 168:C:/Users/stapi/OneDrive/Desktop/GD32VW553/GD32VW55X_Wifi_BLE_SDK/GD32VW55x_RELEASE_V1.0.2/MSDK/wifi_manager\wifi_net_ip.c ****     if (!net_if)
 141              		.loc 1 168 14
 142 0016 1375F50F 		andi	a0,a0,0xff
 143              	.LVL10:
 144 001a 2E84     		mv	s0,a1
 168:C:/Users/stapi/OneDrive/Desktop/GD32VW553/GD32VW55X_Wifi_BLE_SDK/GD32VW55x_RELEASE_V1.0.2/MSDK/wifi_manager\wifi_net_ip.c ****     if (!net_if)
 145              		.loc 1 168 5 is_stmt 1
 168:C:/Users/stapi/OneDrive/Desktop/GD32VW553/GD32VW55X_Wifi_BLE_SDK/GD32VW55x_RELEASE_V1.0.2/MSDK/wifi_manager\wifi_net_ip.c ****     if (!net_if)
 146              		.loc 1 168 14 is_stmt 0
 147 001c 97000000 		call	vif_idx_to_net_if
 147      E7800000 
 148              	.LVL11:
 149 0024 AA84     		mv	s1,a0
 150              	.LVL12:
 169:C:/Users/stapi/OneDrive/Desktop/GD32VW553/GD32VW55X_Wifi_BLE_SDK/GD32VW55x_RELEASE_V1.0.2/MSDK/wifi_manager\wifi_net_ip.c ****         return -1;
 151              		.loc 1 169 5 is_stmt 1
 169:C:/Users/stapi/OneDrive/Desktop/GD32VW553/GD32VW55X_Wifi_BLE_SDK/GD32VW55x_RELEASE_V1.0.2/MSDK/wifi_manager\wifi_net_ip.c ****         return -1;
 152              		.loc 1 169 8 is_stmt 0
 153 0026 63020528 		beq	a0,zero,.L14
 172:C:/Users/stapi/OneDrive/Desktop/GD32VW553/GD32VW55X_Wifi_BLE_SDK/GD32VW55x_RELEASE_V1.0.2/MSDK/wifi_manager\wifi_net_ip.c ****     {
 154              		.loc 1 172 5 is_stmt 1
 172:C:/Users/stapi/OneDrive/Desktop/GD32VW553/GD32VW55X_Wifi_BLE_SDK/GD32VW55x_RELEASE_V1.0.2/MSDK/wifi_manager\wifi_net_ip.c ****     {
 155              		.loc 1 172 8 is_stmt 0
 156 002a 1840     		lw	a4,0(s0)
 157 002c 8D47     		li	a5,3
 158 002e 6306F700 		beq	a4,a5,.L15
 174:C:/Users/stapi/OneDrive/Desktop/GD32VW553/GD32VW55X_Wifi_BLE_SDK/GD32VW55x_RELEASE_V1.0.2/MSDK/wifi_manager\wifi_net_ip.c ****     }
 159              		.loc 1 174 9 is_stmt 1
 160 0032 97000000 		call	net_dhcpd_stop
 160      E7800000 
 161              	.LVL13:
 162              	.L15:
 185:C:/Users/stapi/OneDrive/Desktop/GD32VW553/GD32VW55X_Wifi_BLE_SDK/GD32VW55x_RELEASE_V1.0.2/MSDK/wifi_manager\wifi_net_ip.c ****     {
 163              		.loc 1 185 5
 185:C:/Users/stapi/OneDrive/Desktop/GD32VW553/GD32VW55X_Wifi_BLE_SDK/GD32VW55x_RELEASE_V1.0.2/MSDK/wifi_manager\wifi_net_ip.c ****     {
 164              		.loc 1 185 12 is_stmt 0
 165 003a 1C40     		lw	a5,0(s0)
 185:C:/Users/stapi/OneDrive/Desktop/GD32VW553/GD32VW55X_Wifi_BLE_SDK/GD32VW55x_RELEASE_V1.0.2/MSDK/wifi_manager\wifi_net_ip.c ****     {
 166              		.loc 1 185 8
 167 003c 95E7     		bne	a5,zero,.L16
 188:C:/Users/stapi/OneDrive/Desktop/GD32VW553/GD32VW55X_Wifi_BLE_SDK/GD32VW55x_RELEASE_V1.0.2/MSDK/wifi_manager\wifi_net_ip.c ****             wifi_dhcp_stop(net_if);
 168              		.loc 1 188 9 is_stmt 1
 188:C:/Users/stapi/OneDrive/Desktop/GD32VW553/GD32VW55X_Wifi_BLE_SDK/GD32VW55x_RELEASE_V1.0.2/MSDK/wifi_manager\wifi_net_ip.c ****             wifi_dhcp_stop(net_if);
 169              		.loc 1 188 14 is_stmt 0
 170 003e 97000000 		call	net_if_is_static_ip
 170      E7800000 
 171              	.LVL14:
 188:C:/Users/stapi/OneDrive/Desktop/GD32VW553/GD32VW55X_Wifi_BLE_SDK/GD32VW55x_RELEASE_V1.0.2/MSDK/wifi_manager\wifi_net_ip.c ****             wifi_dhcp_stop(net_if);
 172              		.loc 1 188 12
 173 0046 19C1     		beq	a0,zero,.L17
 174              	.L60:
 254:C:/Users/stapi/OneDrive/Desktop/GD32VW553/GD32VW55X_Wifi_BLE_SDK/GD32VW55x_RELEASE_V1.0.2/MSDK/wifi_manager\wifi_net_ip.c **** }
 175              		.loc 1 254 12
 176 0048 0145     		li	a0,0
 177 004a 8DA4     		j	.L11
 178              	.L17:
 189:C:/Users/stapi/OneDrive/Desktop/GD32VW553/GD32VW55X_Wifi_BLE_SDK/GD32VW55x_RELEASE_V1.0.2/MSDK/wifi_manager\wifi_net_ip.c ****             net_if_set_ip(net_if, 0, 0, 0);
 179              		.loc 1 189 13 is_stmt 1
 180 004c 2685     		mv	a0,s1
 181 004e 97000000 		call	wifi_dhcp_stop.isra.0
 181      E7800000 
 182              	.LVL15:
 190:C:/Users/stapi/OneDrive/Desktop/GD32VW553/GD32VW55X_Wifi_BLE_SDK/GD32VW55x_RELEASE_V1.0.2/MSDK/wifi_manager\wifi_net_ip.c ****         }
 183              		.loc 1 190 13
 184 0056 8146     		li	a3,0
 185 0058 0146     		li	a2,0
 186 005a 8145     		li	a1,0
 187 005c 2685     		mv	a0,s1
 188 005e 97000000 		call	net_if_set_ip
 188      E7800000 
 189              	.LVL16:
 190 0066 CDB7     		j	.L60
 191              	.L16:
 194:C:/Users/stapi/OneDrive/Desktop/GD32VW553/GD32VW55X_Wifi_BLE_SDK/GD32VW55x_RELEASE_V1.0.2/MSDK/wifi_manager\wifi_net_ip.c ****     {
 192              		.loc 1 194 5
 194:C:/Users/stapi/OneDrive/Desktop/GD32VW553/GD32VW55X_Wifi_BLE_SDK/GD32VW55x_RELEASE_V1.0.2/MSDK/wifi_manager\wifi_net_ip.c ****     {
 193              		.loc 1 194 8 is_stmt 0
 194 0068 0549     		li	s2,1
 195 006a 63952705 		bne	a5,s2,.L18
 197:C:/Users/stapi/OneDrive/Desktop/GD32VW553/GD32VW55X_Wifi_BLE_SDK/GD32VW55x_RELEASE_V1.0.2/MSDK/wifi_manager\wifi_net_ip.c ****         net_if_set_ip(net_if, cfg->ipv4.addr, cfg->ipv4.mask, cfg->ipv4.gw);
 196              		.loc 1 197 9 is_stmt 1
 197 006e 2685     		mv	a0,s1
 198 0070 97000000 		call	wifi_dhcp_stop.isra.0
 198      E7800000 
 199              	.LVL17:
 198:C:/Users/stapi/OneDrive/Desktop/GD32VW553/GD32VW55X_Wifi_BLE_SDK/GD32VW55x_RELEASE_V1.0.2/MSDK/wifi_manager\wifi_net_ip.c **** 
 200              		.loc 1 198 9
 201 0078 1448     		lw	a3,16(s0)
 202 007a 5044     		lw	a2,12(s0)
 203 007c 0C44     		lw	a1,8(s0)
 204 007e 2685     		mv	a0,s1
 205 0080 97000000 		call	net_if_set_ip
 205      E7800000 
 206              	.LVL18:
 200:C:/Users/stapi/OneDrive/Desktop/GD32VW553/GD32VW55X_Wifi_BLE_SDK/GD32VW55x_RELEASE_V1.0.2/MSDK/wifi_manager\wifi_net_ip.c ****             net_set_dns(cfg->ipv4.dns);
 207              		.loc 1 200 9
 200:C:/Users/stapi/OneDrive/Desktop/GD32VW553/GD32VW55X_Wifi_BLE_SDK/GD32VW55x_RELEASE_V1.0.2/MSDK/wifi_manager\wifi_net_ip.c ****             net_set_dns(cfg->ipv4.dns);
 208              		.loc 1 200 22 is_stmt 0
 209 0088 4848     		lw	a0,20(s0)
 200:C:/Users/stapi/OneDrive/Desktop/GD32VW553/GD32VW55X_Wifi_BLE_SDK/GD32VW55x_RELEASE_V1.0.2/MSDK/wifi_manager\wifi_net_ip.c ****             net_set_dns(cfg->ipv4.dns);
 210              		.loc 1 200 12
 211 008a 11CD     		beq	a0,zero,.L19
 201:C:/Users/stapi/OneDrive/Desktop/GD32VW553/GD32VW55X_Wifi_BLE_SDK/GD32VW55x_RELEASE_V1.0.2/MSDK/wifi_manager\wifi_net_ip.c ****         else
 212              		.loc 1 201 13 is_stmt 1
 213 008c 97000000 		call	net_set_dns
 213      E7800000 
 214              	.LVL19:
 215              	.L20:
 250:C:/Users/stapi/OneDrive/Desktop/GD32VW553/GD32VW55X_Wifi_BLE_SDK/GD32VW55x_RELEASE_V1.0.2/MSDK/wifi_manager\wifi_net_ip.c ****         net_if_set_default(net_if);
 216              		.loc 1 250 5
 250:C:/Users/stapi/OneDrive/Desktop/GD32VW553/GD32VW55X_Wifi_BLE_SDK/GD32VW55x_RELEASE_V1.0.2/MSDK/wifi_manager\wifi_net_ip.c ****         net_if_set_default(net_if);
 217              		.loc 1 250 8 is_stmt 0
 218 0094 83474400 		lbu	a5,4(s0)
 219 0098 C5DB     		beq	a5,zero,.L60
 251:C:/Users/stapi/OneDrive/Desktop/GD32VW553/GD32VW55X_Wifi_BLE_SDK/GD32VW55x_RELEASE_V1.0.2/MSDK/wifi_manager\wifi_net_ip.c **** 
 220              		.loc 1 251 9 is_stmt 1
 221 009a 2685     		mv	a0,s1
 222 009c 97000000 		call	net_if_set_default
 222      E7800000 
 223              	.LVL20:
 224 00a4 55B7     		j	.L60
 225              	.L19:
 203:C:/Users/stapi/OneDrive/Desktop/GD32VW553/GD32VW55X_Wifi_BLE_SDK/GD32VW55x_RELEASE_V1.0.2/MSDK/wifi_manager\wifi_net_ip.c ****     }
 226              		.loc 1 203 13
 227 00a6 13054401 		addi	a0,s0,20
 228 00aa 97000000 		call	net_get_dns
 228      E7800000 
 229              	.LVL21:
 230 00b2 CDB7     		j	.L20
 231              	.L18:
 205:C:/Users/stapi/OneDrive/Desktop/GD32VW553/GD32VW55X_Wifi_BLE_SDK/GD32VW55x_RELEASE_V1.0.2/MSDK/wifi_manager\wifi_net_ip.c ****     {
 232              		.loc 1 205 10
 205:C:/Users/stapi/OneDrive/Desktop/GD32VW553/GD32VW55X_Wifi_BLE_SDK/GD32VW55x_RELEASE_V1.0.2/MSDK/wifi_manager\wifi_net_ip.c ****     {
 233              		.loc 1 205 13 is_stmt 0
 234 00b4 0947     		li	a4,2
 235 00b6 639EE71A 		bne	a5,a4,.L21
 236              	.LBB10:
 209:C:/Users/stapi/OneDrive/Desktop/GD32VW553/GD32VW55X_Wifi_BLE_SDK/GD32VW55x_RELEASE_V1.0.2/MSDK/wifi_manager\wifi_net_ip.c ****             int32_t ret;
 237              		.loc 1 209 13 is_stmt 1
 210:C:/Users/stapi/OneDrive/Desktop/GD32VW553/GD32VW55X_Wifi_BLE_SDK/GD32VW55x_RELEASE_V1.0.2/MSDK/wifi_manager\wifi_net_ip.c **** 
 238              		.loc 1 210 13
 212:C:/Users/stapi/OneDrive/Desktop/GD32VW553/GD32VW55X_Wifi_BLE_SDK/GD32VW55x_RELEASE_V1.0.2/MSDK/wifi_manager\wifi_net_ip.c ****             coex_set_wlan_pti(WLAN_PTI_BE_DATA, 6);
 239              		.loc 1 212 13
 212:C:/Users/stapi/OneDrive/Desktop/GD32VW553/GD32VW55X_Wifi_BLE_SDK/GD32VW55x_RELEASE_V1.0.2/MSDK/wifi_manager\wifi_net_ip.c ****             coex_set_wlan_pti(WLAN_PTI_BE_DATA, 6);
 240              		.loc 1 212 23 is_stmt 0
 241 00ba 1545     		li	a0,5
 242 00bc 97000000 		call	coex_get_wlan_pti
 242      E7800000 
 243              	.LVL22:
 244 00c4 2A8A     		mv	s4,a0
 245              	.LVL23:
 213:C:/Users/stapi/OneDrive/Desktop/GD32VW553/GD32VW55X_Wifi_BLE_SDK/GD32VW55x_RELEASE_V1.0.2/MSDK/wifi_manager\wifi_net_ip.c ****             ret = wifi_dhcp_start(net_if, cfg->dhcp.to_ms);
 246              		.loc 1 213 13 is_stmt 1
 247 00c6 9945     		li	a1,6
 248 00c8 1545     		li	a0,5
 249 00ca 97000000 		call	coex_set_wlan_pti
 249      E7800000 
 250              	.LVL24:
 214:C:/Users/stapi/OneDrive/Desktop/GD32VW553/GD32VW55X_Wifi_BLE_SDK/GD32VW55x_RELEASE_V1.0.2/MSDK/wifi_manager\wifi_net_ip.c ****             coex_set_wlan_pti(WLAN_PTI_BE_DATA, ble_pti);
 251              		.loc 1 214 13
 252              	.LBB11:
 253              	.LBB12:
  93:C:/Users/stapi/OneDrive/Desktop/GD32VW553/GD32VW55X_Wifi_BLE_SDK/GD32VW55x_RELEASE_V1.0.2/MSDK/wifi_manager\wifi_net_ip.c ****         dbg_print(WARNING, "net_if is not up, stop dhcp\r\n");
 254              		.loc 1 93 8 is_stmt 0
 255 00d2 83C71403 		lbu	a5,49(s1)
 256              	.LBE12:
 257              	.LBE11:
 214:C:/Users/stapi/OneDrive/Desktop/GD32VW553/GD32VW55X_Wifi_BLE_SDK/GD32VW55x_RELEASE_V1.0.2/MSDK/wifi_manager\wifi_net_ip.c ****             coex_set_wlan_pti(WLAN_PTI_BE_DATA, ble_pti);
 258              		.loc 1 214 19
 259 00d6 032B8400 		lw	s6,8(s0)
 260              	.LVL25:
 261              	.LBB16:
 262              	.LBB14:
  91:C:/Users/stapi/OneDrive/Desktop/GD32VW553/GD32VW55X_Wifi_BLE_SDK/GD32VW55x_RELEASE_V1.0.2/MSDK/wifi_manager\wifi_net_ip.c **** 
 263              		.loc 1 91 5 is_stmt 1
  93:C:/Users/stapi/OneDrive/Desktop/GD32VW553/GD32VW55X_Wifi_BLE_SDK/GD32VW55x_RELEASE_V1.0.2/MSDK/wifi_manager\wifi_net_ip.c ****         dbg_print(WARNING, "net_if is not up, stop dhcp\r\n");
 264              		.loc 1 93 5
  93:C:/Users/stapi/OneDrive/Desktop/GD32VW553/GD32VW55X_Wifi_BLE_SDK/GD32VW55x_RELEASE_V1.0.2/MSDK/wifi_manager\wifi_net_ip.c ****         dbg_print(WARNING, "net_if is not up, stop dhcp\r\n");
 265              		.loc 1 93 8 is_stmt 0
 266 00da 858B     		andi	a5,a5,1
 267 00dc C5EB     		bne	a5,zero,.L22
  94:C:/Users/stapi/OneDrive/Desktop/GD32VW553/GD32VW55X_Wifi_BLE_SDK/GD32VW55x_RELEASE_V1.0.2/MSDK/wifi_manager\wifi_net_ip.c ****         return -1;
 268              		.loc 1 94 9 is_stmt 1
  94:C:/Users/stapi/OneDrive/Desktop/GD32VW553/GD32VW55X_Wifi_BLE_SDK/GD32VW55x_RELEASE_V1.0.2/MSDK/wifi_manager\wifi_net_ip.c ****         return -1;
 269              		.loc 1 94 9
 270 00de B7070000 		lui	a5,%hi(global_debug_level)
 271 00e2 83C70700 		lbu	a5,%lo(global_debug_level)(a5)
 272 00e6 636AF908 		bgtu	a5,s2,.L23
 273              	.L58:
  95:C:/Users/stapi/OneDrive/Desktop/GD32VW553/GD32VW55X_Wifi_BLE_SDK/GD32VW55x_RELEASE_V1.0.2/MSDK/wifi_manager\wifi_net_ip.c ****     }
 274              		.loc 1 95 16 is_stmt 0
 275 00ea 7D59     		li	s2,-1
 276              	.L24:
 277              	.LVL26:
 278              	.LBE14:
 279              	.LBE16:
 215:C:/Users/stapi/OneDrive/Desktop/GD32VW553/GD32VW55X_Wifi_BLE_SDK/GD32VW55x_RELEASE_V1.0.2/MSDK/wifi_manager\wifi_net_ip.c ****             if (ret != 0)
 280              		.loc 1 215 13 is_stmt 1
 281 00ec D285     		mv	a1,s4
 282 00ee 1545     		li	a0,5
 283 00f0 97000000 		call	coex_set_wlan_pti
 283      E7800000 
 284              	.LVL27:
 216:C:/Users/stapi/OneDrive/Desktop/GD32VW553/GD32VW55X_Wifi_BLE_SDK/GD32VW55x_RELEASE_V1.0.2/MSDK/wifi_manager\wifi_net_ip.c ****                 return -1;
 285              		.loc 1 216 13
 216:C:/Users/stapi/OneDrive/Desktop/GD32VW553/GD32VW55X_Wifi_BLE_SDK/GD32VW55x_RELEASE_V1.0.2/MSDK/wifi_manager\wifi_net_ip.c ****                 return -1;
 286              		.loc 1 216 16 is_stmt 0
 287 00f8 6319091A 		bne	s2,zero,.L14
 288              	.LVL28:
 289              	.LBE10:
 224:C:/Users/stapi/OneDrive/Desktop/GD32VW553/GD32VW55X_Wifi_BLE_SDK/GD32VW55x_RELEASE_V1.0.2/MSDK/wifi_manager\wifi_net_ip.c ****         net_get_dns(&cfg->ipv4.dns);
 290              		.loc 1 224 9 is_stmt 1
 291 00fc 93060401 		addi	a3,s0,16
 292 0100 1306C400 		addi	a2,s0,12
 293 0104 93058400 		addi	a1,s0,8
 294 0108 2685     		mv	a0,s1
 295 010a 97000000 		call	net_if_get_ip
 295      E7800000 
 296              	.LVL29:
 225:C:/Users/stapi/OneDrive/Desktop/GD32VW553/GD32VW55X_Wifi_BLE_SDK/GD32VW55x_RELEASE_V1.0.2/MSDK/wifi_manager\wifi_net_ip.c **** 
 297              		.loc 1 225 9
 298 0112 13054401 		addi	a0,s0,20
 299 0116 97000000 		call	net_get_dns
 299      E7800000 
 300              	.LVL30:
 227:C:/Users/stapi/OneDrive/Desktop/GD32VW553/GD32VW55X_Wifi_BLE_SDK/GD32VW55x_RELEASE_V1.0.2/MSDK/wifi_manager\wifi_net_ip.c ****                         vif_idx, IP_ARG(cfg->ipv4.addr), IP_ARG(cfg->ipv4.gw));
 301              		.loc 1 227 9
 227:C:/Users/stapi/OneDrive/Desktop/GD32VW553/GD32VW55X_Wifi_BLE_SDK/GD32VW55x_RELEASE_V1.0.2/MSDK/wifi_manager\wifi_net_ip.c ****                         vif_idx, IP_ARG(cfg->ipv4.addr), IP_ARG(cfg->ipv4.gw));
 302              		.loc 1 227 9
 303 011e B7070000 		lui	a5,%hi(global_debug_level)
 304 0122 03C70700 		lbu	a4,%lo(global_debug_level)(a5)
 305 0126 8D47     		li	a5,3
 306 0128 E3F6E7F6 		bleu	a4,a5,.L20
 227:C:/Users/stapi/OneDrive/Desktop/GD32VW553/GD32VW55X_Wifi_BLE_SDK/GD32VW55x_RELEASE_V1.0.2/MSDK/wifi_manager\wifi_net_ip.c ****                         vif_idx, IP_ARG(cfg->ipv4.addr), IP_ARG(cfg->ipv4.gw));
 307              		.loc 1 227 9 discriminator 1
 308 012c 03280401 		lw	a6,16(s0)
 309 0130 1044     		lw	a2,8(s0)
 310 0132 37050000 		lui	a0,%hi(.LC6)
 311 0136 93578801 		srli	a5,a6,24
 312 013a 3EC2     		sw	a5,4(sp)
 313 013c 93570801 		srli	a5,a6,16
 314 0140 93588800 		srli	a7,a6,8
 315 0144 13570601 		srli	a4,a2,16
 316 0148 93568600 		srli	a3,a2,8
 317 014c 93F7F70F 		andi	a5,a5,255
 318 0150 3EC0     		sw	a5,0(sp)
 319 0152 93F8F80F 		andi	a7,a7,0xff
 320 0156 93578601 		srli	a5,a2,24
 321 015a 1378F80F 		andi	a6,a6,0xff
 322 015e 1377F70F 		andi	a4,a4,0xff
 323 0162 93F6F60F 		andi	a3,a3,0xff
 324 0166 1376F60F 		andi	a2,a2,0xff
 325 016a CE85     		mv	a1,s3
 326 016c 13050500 		addi	a0,a0,%lo(.LC6)
 327 0170 97000000 		call	co_printf
 327      E7800000 
 328              	.LVL31:
 329 0178 31BF     		j	.L20
 330              	.LVL32:
 331              	.L23:
 332              	.LBB18:
 333              	.LBB17:
 334              	.LBB15:
  94:C:/Users/stapi/OneDrive/Desktop/GD32VW553/GD32VW55X_Wifi_BLE_SDK/GD32VW55x_RELEASE_V1.0.2/MSDK/wifi_manager\wifi_net_ip.c ****         return -1;
 335              		.loc 1 94 9
 336 017a 37050000 		lui	a0,%hi(.LC2)
 337 017e 13050500 		addi	a0,a0,%lo(.LC2)
 338              	.L59:
 339 0182 97000000 		call	co_printf
 339      E7800000 
 340              	.LVL33:
 341 018a 85B7     		j	.L58
 342              	.L22:
  99:C:/Users/stapi/OneDrive/Desktop/GD32VW553/GD32VW55X_Wifi_BLE_SDK/GD32VW55x_RELEASE_V1.0.2/MSDK/wifi_manager\wifi_net_ip.c ****     {
 343              		.loc 1 99 5
  99:C:/Users/stapi/OneDrive/Desktop/GD32VW553/GD32VW55X_Wifi_BLE_SDK/GD32VW55x_RELEASE_V1.0.2/MSDK/wifi_manager\wifi_net_ip.c ****     {
 344              		.loc 1 99 9 is_stmt 0
 345 018c 2685     		mv	a0,s1
 346 018e 97000000 		call	net_dhcp_start
 346      E7800000 
 347              	.LVL34:
 348 0196 2A89     		mv	s2,a0
  99:C:/Users/stapi/OneDrive/Desktop/GD32VW553/GD32VW55X_Wifi_BLE_SDK/GD32VW55x_RELEASE_V1.0.2/MSDK/wifi_manager\wifi_net_ip.c ****     {
 349              		.loc 1 99 8
 350 0198 19C9     		beq	a0,zero,.L25
 101:C:/Users/stapi/OneDrive/Desktop/GD32VW553/GD32VW55X_Wifi_BLE_SDK/GD32VW55x_RELEASE_V1.0.2/MSDK/wifi_manager\wifi_net_ip.c ****         return -1;
 351              		.loc 1 101 9 is_stmt 1
 101:C:/Users/stapi/OneDrive/Desktop/GD32VW553/GD32VW55X_Wifi_BLE_SDK/GD32VW55x_RELEASE_V1.0.2/MSDK/wifi_manager\wifi_net_ip.c ****         return -1;
 352              		.loc 1 101 9
 353 019a B7070000 		lui	a5,%hi(global_debug_level)
 354 019e 83C70700 		lbu	a5,%lo(global_debug_level)(a5)
 355 01a2 A1D7     		beq	a5,zero,.L58
 101:C:/Users/stapi/OneDrive/Desktop/GD32VW553/GD32VW55X_Wifi_BLE_SDK/GD32VW55x_RELEASE_V1.0.2/MSDK/wifi_manager\wifi_net_ip.c ****         return -1;
 356              		.loc 1 101 9
 357 01a4 37050000 		lui	a0,%hi(.LC3)
 358 01a8 13050500 		addi	a0,a0,%lo(.LC3)
 359 01ac D9BF     		j	.L59
 360              	.L25:
 105:C:/Users/stapi/OneDrive/Desktop/GD32VW553/GD32VW55X_Wifi_BLE_SDK/GD32VW55x_RELEASE_V1.0.2/MSDK/wifi_manager\wifi_net_ip.c ****         return 0;
 361              		.loc 1 105 5
 105:C:/Users/stapi/OneDrive/Desktop/GD32VW553/GD32VW55X_Wifi_BLE_SDK/GD32VW55x_RELEASE_V1.0.2/MSDK/wifi_manager\wifi_net_ip.c ****         return 0;
 362              		.loc 1 105 8 is_stmt 0
 363 01ae E30F0BF2 		beq	s6,zero,.L24
 109:C:/Users/stapi/OneDrive/Desktop/GD32VW553/GD32VW55X_Wifi_BLE_SDK/GD32VW55x_RELEASE_V1.0.2/MSDK/wifi_manager\wifi_net_ip.c ****     while ((!net_dhcp_address_obtained(net_if)) &&
 364              		.loc 1 109 5 is_stmt 1
 109:C:/Users/stapi/OneDrive/Desktop/GD32VW553/GD32VW55X_Wifi_BLE_SDK/GD32VW55x_RELEASE_V1.0.2/MSDK/wifi_manager\wifi_net_ip.c ****     while ((!net_dhcp_address_obtained(net_if)) &&
 365              		.loc 1 109 16 is_stmt 0
 366 01b2 97000000 		call	sys_os_now
 366      E7800000 
 367              	.LVL35:
 368 01ba AA8A     		mv	s5,a0
 369              	.LVL36:
 110:C:/Users/stapi/OneDrive/Desktop/GD32VW553/GD32VW55X_Wifi_BLE_SDK/GD32VW55x_RELEASE_V1.0.2/MSDK/wifi_manager\wifi_net_ip.c ****            (sys_os_now(false) - start_ms < to_ms) &&
 370              		.loc 1 110 5 is_stmt 1
 371              	.L27:
 110:C:/Users/stapi/OneDrive/Desktop/GD32VW553/GD32VW55X_Wifi_BLE_SDK/GD32VW55x_RELEASE_V1.0.2/MSDK/wifi_manager\wifi_net_ip.c ****            (sys_os_now(false) - start_ms < to_ms) &&
 372              		.loc 1 110 11
 110:C:/Users/stapi/OneDrive/Desktop/GD32VW553/GD32VW55X_Wifi_BLE_SDK/GD32VW55x_RELEASE_V1.0.2/MSDK/wifi_manager\wifi_net_ip.c ****            (sys_os_now(false) - start_ms < to_ms) &&
 373              		.loc 1 110 14 is_stmt 0
 374 01bc 2685     		mv	a0,s1
 375 01be 97000000 		call	net_dhcp_address_obtained
 375      E7800000 
 376              	.LVL37:
 110:C:/Users/stapi/OneDrive/Desktop/GD32VW553/GD32VW55X_Wifi_BLE_SDK/GD32VW55x_RELEASE_V1.0.2/MSDK/wifi_manager\wifi_net_ip.c ****            (sys_os_now(false) - start_ms < to_ms) &&
 377              		.loc 1 110 11
 378 01c6 1DCD     		beq	a0,zero,.L28
 379              	.L31:
 117:C:/Users/stapi/OneDrive/Desktop/GD32VW553/GD32VW55X_Wifi_BLE_SDK/GD32VW55x_RELEASE_V1.0.2/MSDK/wifi_manager\wifi_net_ip.c ****     {
 380              		.loc 1 117 5 is_stmt 1
 117:C:/Users/stapi/OneDrive/Desktop/GD32VW553/GD32VW55X_Wifi_BLE_SDK/GD32VW55x_RELEASE_V1.0.2/MSDK/wifi_manager\wifi_net_ip.c ****     {
 381              		.loc 1 117 10 is_stmt 0
 382 01c8 2685     		mv	a0,s1
 383 01ca 97000000 		call	net_dhcp_address_obtained
 383      E7800000 
 384              	.LVL38:
 385 01d2 B70A0000 		lui	s5,%hi(global_debug_level)
 386              	.LVL39:
 117:C:/Users/stapi/OneDrive/Desktop/GD32VW553/GD32VW55X_Wifi_BLE_SDK/GD32VW55x_RELEASE_V1.0.2/MSDK/wifi_manager\wifi_net_ip.c ****     {
 387              		.loc 1 117 8
 388 01d6 39E9     		bne	a0,zero,.L29
 117:C:/Users/stapi/OneDrive/Desktop/GD32VW553/GD32VW55X_Wifi_BLE_SDK/GD32VW55x_RELEASE_V1.0.2/MSDK/wifi_manager\wifi_net_ip.c ****     {
 389              		.loc 1 117 48
 390 01d8 97000000 		call	net_if_is_static_ip
 390      E7800000 
 391              	.LVL40:
 117:C:/Users/stapi/OneDrive/Desktop/GD32VW553/GD32VW55X_Wifi_BLE_SDK/GD32VW55x_RELEASE_V1.0.2/MSDK/wifi_manager\wifi_net_ip.c ****     {
 392              		.loc 1 117 44
 393 01e0 31E5     		bne	a0,zero,.L29
 119:C:/Users/stapi/OneDrive/Desktop/GD32VW553/GD32VW55X_Wifi_BLE_SDK/GD32VW55x_RELEASE_V1.0.2/MSDK/wifi_manager\wifi_net_ip.c ****         wifi_dhcp_stop(net_if);
 394              		.loc 1 119 9 is_stmt 1
 119:C:/Users/stapi/OneDrive/Desktop/GD32VW553/GD32VW55X_Wifi_BLE_SDK/GD32VW55x_RELEASE_V1.0.2/MSDK/wifi_manager\wifi_net_ip.c ****         wifi_dhcp_stop(net_if);
 395              		.loc 1 119 9
 396 01e2 83C70A00 		lbu	a5,%lo(global_debug_level)(s5)
 397 01e6 89CB     		beq	a5,zero,.L33
 119:C:/Users/stapi/OneDrive/Desktop/GD32VW553/GD32VW55X_Wifi_BLE_SDK/GD32VW55x_RELEASE_V1.0.2/MSDK/wifi_manager\wifi_net_ip.c ****         wifi_dhcp_stop(net_if);
 398              		.loc 1 119 9
 399 01e8 37050000 		lui	a0,%hi(.LC4)
 400 01ec 13050500 		addi	a0,a0,%lo(.LC4)
 401 01f0 97000000 		call	co_printf
 401      E7800000 
 402              	.LVL41:
 403              	.L33:
 119:C:/Users/stapi/OneDrive/Desktop/GD32VW553/GD32VW55X_Wifi_BLE_SDK/GD32VW55x_RELEASE_V1.0.2/MSDK/wifi_manager\wifi_net_ip.c ****         wifi_dhcp_stop(net_if);
 404              		.loc 1 119 9
 120:C:/Users/stapi/OneDrive/Desktop/GD32VW553/GD32VW55X_Wifi_BLE_SDK/GD32VW55x_RELEASE_V1.0.2/MSDK/wifi_manager\wifi_net_ip.c ****         return -1;
 405              		.loc 1 120 9
 406 01f8 2685     		mv	a0,s1
 407 01fa 97000000 		call	wifi_dhcp_stop.isra.0
 407      E7800000 
 408              	.LVL42:
 121:C:/Users/stapi/OneDrive/Desktop/GD32VW553/GD32VW55X_Wifi_BLE_SDK/GD32VW55x_RELEASE_V1.0.2/MSDK/wifi_manager\wifi_net_ip.c ****     } else {
 409              		.loc 1 121 9
 410 0202 E5B5     		j	.L58
 411              	.LVL43:
 412              	.L28:
 111:C:/Users/stapi/OneDrive/Desktop/GD32VW553/GD32VW55X_Wifi_BLE_SDK/GD32VW55x_RELEASE_V1.0.2/MSDK/wifi_manager\wifi_net_ip.c ****            !net_if_is_static_ip())
 413              		.loc 1 111 13 is_stmt 0
 414 0204 97000000 		call	sys_os_now
 414      E7800000 
 415              	.LVL44:
 111:C:/Users/stapi/OneDrive/Desktop/GD32VW553/GD32VW55X_Wifi_BLE_SDK/GD32VW55x_RELEASE_V1.0.2/MSDK/wifi_manager\wifi_net_ip.c ****            !net_if_is_static_ip())
 416              		.loc 1 111 31
 417 020c 33055541 		sub	a0,a0,s5
 110:C:/Users/stapi/OneDrive/Desktop/GD32VW553/GD32VW55X_Wifi_BLE_SDK/GD32VW55x_RELEASE_V1.0.2/MSDK/wifi_manager\wifi_net_ip.c ****            (sys_os_now(false) - start_ms < to_ms) &&
 418              		.loc 1 110 49
 419 0210 E37C65FB 		bleu	s6,a0,.L31
 112:C:/Users/stapi/OneDrive/Desktop/GD32VW553/GD32VW55X_Wifi_BLE_SDK/GD32VW55x_RELEASE_V1.0.2/MSDK/wifi_manager\wifi_net_ip.c ****     {
 420              		.loc 1 112 13
 421 0214 97000000 		call	net_if_is_static_ip
 421      E7800000 
 422              	.LVL45:
 111:C:/Users/stapi/OneDrive/Desktop/GD32VW553/GD32VW55X_Wifi_BLE_SDK/GD32VW55x_RELEASE_V1.0.2/MSDK/wifi_manager\wifi_net_ip.c ****            !net_if_is_static_ip())
 423              		.loc 1 111 51
 424 021c 55F5     		bne	a0,zero,.L31
 114:C:/Users/stapi/OneDrive/Desktop/GD32VW553/GD32VW55X_Wifi_BLE_SDK/GD32VW55x_RELEASE_V1.0.2/MSDK/wifi_manager\wifi_net_ip.c ****     }
 425              		.loc 1 114 9 is_stmt 1
 426 021e 13054006 		li	a0,100
 427 0222 97000000 		call	sys_ms_sleep
 427      E7800000 
 428              	.LVL46:
 429 022a 49BF     		j	.L27
 430              	.LVL47:
 431              	.L29:
 432              	.LBB13:
 123:C:/Users/stapi/OneDrive/Desktop/GD32VW553/GD32VW55X_Wifi_BLE_SDK/GD32VW55x_RELEASE_V1.0.2/MSDK/wifi_manager\wifi_net_ip.c ****         net_if_get_ip(net_if, &(cfg.ipv4.addr), &(cfg.ipv4.mask), &(cfg.ipv4.gw));
 433              		.loc 1 123 9
 124:C:/Users/stapi/OneDrive/Desktop/GD32VW553/GD32VW55X_Wifi_BLE_SDK/GD32VW55x_RELEASE_V1.0.2/MSDK/wifi_manager\wifi_net_ip.c ****         dbg_print(NOTICE, "Got IP  " IP_FMT "\r\n", IP_ARG(cfg.ipv4.addr));
 434              		.loc 1 124 9
 435 022c 3410     		addi	a3,sp,40
 436 022e 5010     		addi	a2,sp,36
 437 0230 0C10     		addi	a1,sp,32
 438 0232 2685     		mv	a0,s1
 439 0234 97000000 		call	net_if_get_ip
 439      E7800000 
 440              	.LVL48:
 125:C:/Users/stapi/OneDrive/Desktop/GD32VW553/GD32VW55X_Wifi_BLE_SDK/GD32VW55x_RELEASE_V1.0.2/MSDK/wifi_manager\wifi_net_ip.c ****     }
 441              		.loc 1 125 9
 125:C:/Users/stapi/OneDrive/Desktop/GD32VW553/GD32VW55X_Wifi_BLE_SDK/GD32VW55x_RELEASE_V1.0.2/MSDK/wifi_manager\wifi_net_ip.c ****     }
 442              		.loc 1 125 9
 443 023c 03C70A00 		lbu	a4,%lo(global_debug_level)(s5)
 444 0240 8947     		li	a5,2
 445 0242 E3F5E7EA 		bleu	a4,a5,.L24
 125:C:/Users/stapi/OneDrive/Desktop/GD32VW553/GD32VW55X_Wifi_BLE_SDK/GD32VW55x_RELEASE_V1.0.2/MSDK/wifi_manager\wifi_net_ip.c ****     }
 446              		.loc 1 125 9
 447 0246 8255     		lw	a1,32(sp)
 448 0248 37050000 		lui	a0,%hi(.LC5)
 449 024c 13050500 		addi	a0,a0,%lo(.LC5)
 450 0250 93D60501 		srli	a3,a1,16
 451 0254 13D68500 		srli	a2,a1,8
 452 0258 13D78501 		srli	a4,a1,24
 453 025c 93F6F60F 		andi	a3,a3,0xff
 454 0260 1376F60F 		andi	a2,a2,0xff
 455 0264 93F5F50F 		andi	a1,a1,0xff
 456 0268 97000000 		call	co_printf
 456      E7800000 
 457              	.LVL49:
 125:C:/Users/stapi/OneDrive/Desktop/GD32VW553/GD32VW55X_Wifi_BLE_SDK/GD32VW55x_RELEASE_V1.0.2/MSDK/wifi_manager\wifi_net_ip.c ****     }
 458              		.loc 1 125 9
 459              	.LBE13:
 128:C:/Users/stapi/OneDrive/Desktop/GD32VW553/GD32VW55X_Wifi_BLE_SDK/GD32VW55x_RELEASE_V1.0.2/MSDK/wifi_manager\wifi_net_ip.c **** }
 460              		.loc 1 128 5
 128:C:/Users/stapi/OneDrive/Desktop/GD32VW553/GD32VW55X_Wifi_BLE_SDK/GD32VW55x_RELEASE_V1.0.2/MSDK/wifi_manager\wifi_net_ip.c **** }
 461              		.loc 1 128 12 is_stmt 0
 462 0270 B5BD     		j	.L24
 463              	.LVL50:
 464              	.L21:
 465              	.LBE15:
 466              	.LBE17:
 467              	.LBE18:
 230:C:/Users/stapi/OneDrive/Desktop/GD32VW553/GD32VW55X_Wifi_BLE_SDK/GD32VW55x_RELEASE_V1.0.2/MSDK/wifi_manager\wifi_net_ip.c ****     {
 468              		.loc 1 230 10 is_stmt 1
 230:C:/Users/stapi/OneDrive/Desktop/GD32VW553/GD32VW55X_Wifi_BLE_SDK/GD32VW55x_RELEASE_V1.0.2/MSDK/wifi_manager\wifi_net_ip.c ****     {
 469              		.loc 1 230 13 is_stmt 0
 470 0272 0D47     		li	a4,3
 471 0274 639BE702 		bne	a5,a4,.L14
 232:C:/Users/stapi/OneDrive/Desktop/GD32VW553/GD32VW55X_Wifi_BLE_SDK/GD32VW55x_RELEASE_V1.0.2/MSDK/wifi_manager\wifi_net_ip.c ****         net_if_set_ip(net_if, cfg->ipv4.addr, cfg->ipv4.mask, cfg->ipv4.gw);
 472              		.loc 1 232 9 is_stmt 1
 473 0278 2685     		mv	a0,s1
 474 027a 97000000 		call	wifi_dhcp_stop.isra.0
 474      E7800000 
 475              	.LVL51:
 233:C:/Users/stapi/OneDrive/Desktop/GD32VW553/GD32VW55X_Wifi_BLE_SDK/GD32VW55x_RELEASE_V1.0.2/MSDK/wifi_manager\wifi_net_ip.c ****         net_dhcpd_stop(net_if);
 476              		.loc 1 233 9
 477 0282 1448     		lw	a3,16(s0)
 478 0284 5044     		lw	a2,12(s0)
 479 0286 0C44     		lw	a1,8(s0)
 480 0288 2685     		mv	a0,s1
 481 028a 97000000 		call	net_if_set_ip
 481      E7800000 
 482              	.LVL52:
 234:C:/Users/stapi/OneDrive/Desktop/GD32VW553/GD32VW55X_Wifi_BLE_SDK/GD32VW55x_RELEASE_V1.0.2/MSDK/wifi_manager\wifi_net_ip.c ****         if (net_dhcpd_start(net_if))
 483              		.loc 1 234 9
 484 0292 2685     		mv	a0,s1
 485 0294 97000000 		call	net_dhcpd_stop
 485      E7800000 
 486              	.LVL53:
 235:C:/Users/stapi/OneDrive/Desktop/GD32VW553/GD32VW55X_Wifi_BLE_SDK/GD32VW55x_RELEASE_V1.0.2/MSDK/wifi_manager\wifi_net_ip.c ****             return -1;
 487              		.loc 1 235 9
 235:C:/Users/stapi/OneDrive/Desktop/GD32VW553/GD32VW55X_Wifi_BLE_SDK/GD32VW55x_RELEASE_V1.0.2/MSDK/wifi_manager\wifi_net_ip.c ****             return -1;
 488              		.loc 1 235 13 is_stmt 0
 489 029c 2685     		mv	a0,s1
 490 029e 97000000 		call	net_dhcpd_start
 490      E7800000 
 491              	.LVL54:
 235:C:/Users/stapi/OneDrive/Desktop/GD32VW553/GD32VW55X_Wifi_BLE_SDK/GD32VW55x_RELEASE_V1.0.2/MSDK/wifi_manager\wifi_net_ip.c ****             return -1;
 492              		.loc 1 235 12
 493 02a6 E30705DE 		beq	a0,zero,.L20
 494              	.L14:
 166:C:/Users/stapi/OneDrive/Desktop/GD32VW553/GD32VW55X_Wifi_BLE_SDK/GD32VW55x_RELEASE_V1.0.2/MSDK/wifi_manager\wifi_net_ip.c **** 
 495              		.loc 1 166 16
 496 02aa 7D55     		li	a0,-1
 497              	.L11:
 498              		.loc 1 255 1
 499 02ac 4561     		addi	sp,sp,48
 500              		.cfi_def_cfa_offset 0
 501 02ae 17030000 		tail	__riscv_restore_7
 501      67000300 
 502              		.cfi_restore 22
 503              		.cfi_restore 21
 504              		.cfi_restore 20
 505              		.cfi_restore 19
 506              		.cfi_restore 18
 507              		.cfi_restore 9
 508              		.cfi_restore 8
 509              		.cfi_restore 1
 510              		.cfi_def_cfa_offset -32
 511              		.cfi_endproc
 512              	.LFE19:
 514              		.section	.text.wifi_get_vif_ip,"ax",@progbits
 515              		.align	1
 516              		.globl	wifi_get_vif_ip
 518              	wifi_get_vif_ip:
 519              	.LFB20:
 256:C:/Users/stapi/OneDrive/Desktop/GD32VW553/GD32VW55X_Wifi_BLE_SDK/GD32VW55x_RELEASE_V1.0.2/MSDK/wifi_manager\wifi_net_ip.c **** 
 257:C:/Users/stapi/OneDrive/Desktop/GD32VW553/GD32VW55X_Wifi_BLE_SDK/GD32VW55x_RELEASE_V1.0.2/MSDK/wifi_manager\wifi_net_ip.c **** /*!
 258:C:/Users/stapi/OneDrive/Desktop/GD32VW553/GD32VW55X_Wifi_BLE_SDK/GD32VW55x_RELEASE_V1.0.2/MSDK/wifi_manager\wifi_net_ip.c ****     \brief      Get IP address infomation
 259:C:/Users/stapi/OneDrive/Desktop/GD32VW553/GD32VW55X_Wifi_BLE_SDK/GD32VW55x_RELEASE_V1.0.2/MSDK/wifi_manager\wifi_net_ip.c ****     \param[in]  vif_idx: index of the wifi vif
 260:C:/Users/stapi/OneDrive/Desktop/GD32VW553/GD32VW55X_Wifi_BLE_SDK/GD32VW55x_RELEASE_V1.0.2/MSDK/wifi_manager\wifi_net_ip.c ****     \param[out] cfg: pointer to the IP address infomation
 261:C:/Users/stapi/OneDrive/Desktop/GD32VW553/GD32VW55X_Wifi_BLE_SDK/GD32VW55x_RELEASE_V1.0.2/MSDK/wifi_manager\wifi_net_ip.c ****     \retval     0 on success and != 0 if error occured.
 262:C:/Users/stapi/OneDrive/Desktop/GD32VW553/GD32VW55X_Wifi_BLE_SDK/GD32VW55x_RELEASE_V1.0.2/MSDK/wifi_manager\wifi_net_ip.c **** */
 263:C:/Users/stapi/OneDrive/Desktop/GD32VW553/GD32VW55X_Wifi_BLE_SDK/GD32VW55x_RELEASE_V1.0.2/MSDK/wifi_manager\wifi_net_ip.c **** int wifi_get_vif_ip(int vif_idx, struct wifi_ip_addr_cfg *cfg)
 264:C:/Users/stapi/OneDrive/Desktop/GD32VW553/GD32VW55X_Wifi_BLE_SDK/GD32VW55x_RELEASE_V1.0.2/MSDK/wifi_manager\wifi_net_ip.c **** {
 520              		.loc 1 264 1 is_stmt 1
 521              		.cfi_startproc
 522              	.LVL55:
 265:C:/Users/stapi/OneDrive/Desktop/GD32VW553/GD32VW55X_Wifi_BLE_SDK/GD32VW55x_RELEASE_V1.0.2/MSDK/wifi_manager\wifi_net_ip.c ****     struct netif *net_if;
 523              		.loc 1 265 5
 266:C:/Users/stapi/OneDrive/Desktop/GD32VW553/GD32VW55X_Wifi_BLE_SDK/GD32VW55x_RELEASE_V1.0.2/MSDK/wifi_manager\wifi_net_ip.c **** 
 267:C:/Users/stapi/OneDrive/Desktop/GD32VW553/GD32VW55X_Wifi_BLE_SDK/GD32VW55x_RELEASE_V1.0.2/MSDK/wifi_manager\wifi_net_ip.c ****     if (vif_idx >= CFG_VIF_NUM)
 524              		.loc 1 267 5
 525              		.loc 1 267 8 is_stmt 0
 526 0000 8547     		li	a5,1
 527 0002 63D9A700 		ble	a0,a5,.L62
 268:C:/Users/stapi/OneDrive/Desktop/GD32VW553/GD32VW55X_Wifi_BLE_SDK/GD32VW55x_RELEASE_V1.0.2/MSDK/wifi_manager\wifi_net_ip.c ****         return -1;
 528              		.loc 1 268 16
 529 0006 7D55     		li	a0,-1
 530              	.LVL56:
 269:C:/Users/stapi/OneDrive/Desktop/GD32VW553/GD32VW55X_Wifi_BLE_SDK/GD32VW55x_RELEASE_V1.0.2/MSDK/wifi_manager\wifi_net_ip.c **** 
 270:C:/Users/stapi/OneDrive/Desktop/GD32VW553/GD32VW55X_Wifi_BLE_SDK/GD32VW55x_RELEASE_V1.0.2/MSDK/wifi_manager\wifi_net_ip.c ****     net_if = vif_idx_to_net_if(vif_idx);
 271:C:/Users/stapi/OneDrive/Desktop/GD32VW553/GD32VW55X_Wifi_BLE_SDK/GD32VW55x_RELEASE_V1.0.2/MSDK/wifi_manager\wifi_net_ip.c ****     if (!net_if)
 272:C:/Users/stapi/OneDrive/Desktop/GD32VW553/GD32VW55X_Wifi_BLE_SDK/GD32VW55x_RELEASE_V1.0.2/MSDK/wifi_manager\wifi_net_ip.c ****         return -1;
 273:C:/Users/stapi/OneDrive/Desktop/GD32VW553/GD32VW55X_Wifi_BLE_SDK/GD32VW55x_RELEASE_V1.0.2/MSDK/wifi_manager\wifi_net_ip.c **** 
 274:C:/Users/stapi/OneDrive/Desktop/GD32VW553/GD32VW55X_Wifi_BLE_SDK/GD32VW55x_RELEASE_V1.0.2/MSDK/wifi_manager\wifi_net_ip.c ****     if (!net_dhcp_address_obtained(net_if))
 275:C:/Users/stapi/OneDrive/Desktop/GD32VW553/GD32VW55X_Wifi_BLE_SDK/GD32VW55x_RELEASE_V1.0.2/MSDK/wifi_manager\wifi_net_ip.c ****         cfg->mode = IP_ADDR_DHCP_CLIENT;
 276:C:/Users/stapi/OneDrive/Desktop/GD32VW553/GD32VW55X_Wifi_BLE_SDK/GD32VW55x_RELEASE_V1.0.2/MSDK/wifi_manager\wifi_net_ip.c ****     else
 277:C:/Users/stapi/OneDrive/Desktop/GD32VW553/GD32VW55X_Wifi_BLE_SDK/GD32VW55x_RELEASE_V1.0.2/MSDK/wifi_manager\wifi_net_ip.c ****         cfg->mode = IP_ADDR_STATIC_IPV4;
 278:C:/Users/stapi/OneDrive/Desktop/GD32VW553/GD32VW55X_Wifi_BLE_SDK/GD32VW55x_RELEASE_V1.0.2/MSDK/wifi_manager\wifi_net_ip.c **** 
 279:C:/Users/stapi/OneDrive/Desktop/GD32VW553/GD32VW55X_Wifi_BLE_SDK/GD32VW55x_RELEASE_V1.0.2/MSDK/wifi_manager\wifi_net_ip.c ****     cfg->default_output = false;
 280:C:/Users/stapi/OneDrive/Desktop/GD32VW553/GD32VW55X_Wifi_BLE_SDK/GD32VW55x_RELEASE_V1.0.2/MSDK/wifi_manager\wifi_net_ip.c **** 
 281:C:/Users/stapi/OneDrive/Desktop/GD32VW553/GD32VW55X_Wifi_BLE_SDK/GD32VW55x_RELEASE_V1.0.2/MSDK/wifi_manager\wifi_net_ip.c ****     net_if_get_ip(net_if, &(cfg->ipv4.addr), &(cfg->ipv4.mask), &(cfg->ipv4.gw));
 282:C:/Users/stapi/OneDrive/Desktop/GD32VW553/GD32VW55X_Wifi_BLE_SDK/GD32VW55x_RELEASE_V1.0.2/MSDK/wifi_manager\wifi_net_ip.c ****     net_get_dns(&(cfg->ipv4.dns));
 283:C:/Users/stapi/OneDrive/Desktop/GD32VW553/GD32VW55X_Wifi_BLE_SDK/GD32VW55x_RELEASE_V1.0.2/MSDK/wifi_manager\wifi_net_ip.c **** 
 284:C:/Users/stapi/OneDrive/Desktop/GD32VW553/GD32VW55X_Wifi_BLE_SDK/GD32VW55x_RELEASE_V1.0.2/MSDK/wifi_manager\wifi_net_ip.c ****     return 0;
 285:C:/Users/stapi/OneDrive/Desktop/GD32VW553/GD32VW55X_Wifi_BLE_SDK/GD32VW55x_RELEASE_V1.0.2/MSDK/wifi_manager\wifi_net_ip.c **** }
 531              		.loc 1 285 1
 532 0008 8280     		ret
 533              	.LVL57:
 534              	.L64:
 535              		.cfi_def_cfa_offset 16
 536              		.cfi_offset 1, -4
 537              		.cfi_offset 8, -8
 538              		.cfi_offset 9, -12
 268:C:/Users/stapi/OneDrive/Desktop/GD32VW553/GD32VW55X_Wifi_BLE_SDK/GD32VW55x_RELEASE_V1.0.2/MSDK/wifi_manager\wifi_net_ip.c ****         return -1;
 539              		.loc 1 268 16
 540 000a 7D55     		li	a0,-1
 541              	.L61:
 542              		.loc 1 285 1
 543 000c 17030000 		tail	__riscv_restore_2
 543      67000300 
 544              		.cfi_restore 9
 545              		.cfi_restore 8
 546              		.cfi_restore 1
 547              		.cfi_def_cfa_offset 0
 548              	.LVL58:
 549              	.L62:
 264:C:/Users/stapi/OneDrive/Desktop/GD32VW553/GD32VW55X_Wifi_BLE_SDK/GD32VW55x_RELEASE_V1.0.2/MSDK/wifi_manager\wifi_net_ip.c ****     struct netif *net_if;
 550              		.loc 1 264 1
 551 0014 17030000 		call	t0,__riscv_save_2
 551      E7020300 
 552              		.cfi_offset 9, -12
 553              		.cfi_offset 8, -8
 554              		.cfi_offset 1, -4
 555              		.cfi_def_cfa_offset 16
 270:C:/Users/stapi/OneDrive/Desktop/GD32VW553/GD32VW55X_Wifi_BLE_SDK/GD32VW55x_RELEASE_V1.0.2/MSDK/wifi_manager\wifi_net_ip.c ****     if (!net_if)
 556              		.loc 1 270 14
 557 001c 1375F50F 		andi	a0,a0,0xff
 558              	.LVL59:
 559 0020 2E84     		mv	s0,a1
 270:C:/Users/stapi/OneDrive/Desktop/GD32VW553/GD32VW55X_Wifi_BLE_SDK/GD32VW55x_RELEASE_V1.0.2/MSDK/wifi_manager\wifi_net_ip.c ****     if (!net_if)
 560              		.loc 1 270 5 is_stmt 1
 270:C:/Users/stapi/OneDrive/Desktop/GD32VW553/GD32VW55X_Wifi_BLE_SDK/GD32VW55x_RELEASE_V1.0.2/MSDK/wifi_manager\wifi_net_ip.c ****     if (!net_if)
 561              		.loc 1 270 14 is_stmt 0
 562 0022 97000000 		call	vif_idx_to_net_if
 562      E7800000 
 563              	.LVL60:
 564 002a AA84     		mv	s1,a0
 565              	.LVL61:
 271:C:/Users/stapi/OneDrive/Desktop/GD32VW553/GD32VW55X_Wifi_BLE_SDK/GD32VW55x_RELEASE_V1.0.2/MSDK/wifi_manager\wifi_net_ip.c ****         return -1;
 566              		.loc 1 271 5 is_stmt 1
 271:C:/Users/stapi/OneDrive/Desktop/GD32VW553/GD32VW55X_Wifi_BLE_SDK/GD32VW55x_RELEASE_V1.0.2/MSDK/wifi_manager\wifi_net_ip.c ****         return -1;
 567              		.loc 1 271 8 is_stmt 0
 568 002c 79DD     		beq	a0,zero,.L64
 274:C:/Users/stapi/OneDrive/Desktop/GD32VW553/GD32VW55X_Wifi_BLE_SDK/GD32VW55x_RELEASE_V1.0.2/MSDK/wifi_manager\wifi_net_ip.c ****         cfg->mode = IP_ADDR_DHCP_CLIENT;
 569              		.loc 1 274 5 is_stmt 1
 274:C:/Users/stapi/OneDrive/Desktop/GD32VW553/GD32VW55X_Wifi_BLE_SDK/GD32VW55x_RELEASE_V1.0.2/MSDK/wifi_manager\wifi_net_ip.c ****         cfg->mode = IP_ADDR_DHCP_CLIENT;
 570              		.loc 1 274 10 is_stmt 0
 571 002e 97000000 		call	net_dhcp_address_obtained
 571      E7800000 
 572              	.LVL62:
 277:C:/Users/stapi/OneDrive/Desktop/GD32VW553/GD32VW55X_Wifi_BLE_SDK/GD32VW55x_RELEASE_V1.0.2/MSDK/wifi_manager\wifi_net_ip.c **** 
 573              		.loc 1 277 19
 574 0036 93371500 		seqz	a5,a0
 575 003a 8507     		addi	a5,a5,1
 576 003c 1CC0     		sw	a5,0(s0)
 279:C:/Users/stapi/OneDrive/Desktop/GD32VW553/GD32VW55X_Wifi_BLE_SDK/GD32VW55x_RELEASE_V1.0.2/MSDK/wifi_manager\wifi_net_ip.c **** 
 577              		.loc 1 279 5 is_stmt 1
 281:C:/Users/stapi/OneDrive/Desktop/GD32VW553/GD32VW55X_Wifi_BLE_SDK/GD32VW55x_RELEASE_V1.0.2/MSDK/wifi_manager\wifi_net_ip.c ****     net_get_dns(&(cfg->ipv4.dns));
 578              		.loc 1 281 5 is_stmt 0
 579 003e 93060401 		addi	a3,s0,16
 580 0042 1306C400 		addi	a2,s0,12
 581 0046 93058400 		addi	a1,s0,8
 279:C:/Users/stapi/OneDrive/Desktop/GD32VW553/GD32VW55X_Wifi_BLE_SDK/GD32VW55x_RELEASE_V1.0.2/MSDK/wifi_manager\wifi_net_ip.c **** 
 582              		.loc 1 279 25
 583 004a 23020400 		sb	zero,4(s0)
 281:C:/Users/stapi/OneDrive/Desktop/GD32VW553/GD32VW55X_Wifi_BLE_SDK/GD32VW55x_RELEASE_V1.0.2/MSDK/wifi_manager\wifi_net_ip.c ****     net_get_dns(&(cfg->ipv4.dns));
 584              		.loc 1 281 5 is_stmt 1
 585 004e 2685     		mv	a0,s1
 586 0050 97000000 		call	net_if_get_ip
 586      E7800000 
 587              	.LVL63:
 282:C:/Users/stapi/OneDrive/Desktop/GD32VW553/GD32VW55X_Wifi_BLE_SDK/GD32VW55x_RELEASE_V1.0.2/MSDK/wifi_manager\wifi_net_ip.c **** 
 588              		.loc 1 282 5
 589 0058 13054401 		addi	a0,s0,20
 590 005c 97000000 		call	net_get_dns
 590      E7800000 
 591              	.LVL64:
 284:C:/Users/stapi/OneDrive/Desktop/GD32VW553/GD32VW55X_Wifi_BLE_SDK/GD32VW55x_RELEASE_V1.0.2/MSDK/wifi_manager\wifi_net_ip.c **** }
 592              		.loc 1 284 5
 284:C:/Users/stapi/OneDrive/Desktop/GD32VW553/GD32VW55X_Wifi_BLE_SDK/GD32VW55x_RELEASE_V1.0.2/MSDK/wifi_manager\wifi_net_ip.c **** }
 593              		.loc 1 284 12 is_stmt 0
 594 0064 0145     		li	a0,0
 595 0066 5DB7     		j	.L61
 596              		.cfi_endproc
 597              	.LFE20:
 599              		.section	.text.wifi_ip_chksum,"ax",@progbits
 600              		.align	1
 601              		.globl	wifi_ip_chksum
 603              	wifi_ip_chksum:
 604              	.LFB21:
 286:C:/Users/stapi/OneDrive/Desktop/GD32VW553/GD32VW55X_Wifi_BLE_SDK/GD32VW55x_RELEASE_V1.0.2/MSDK/wifi_manager\wifi_net_ip.c **** 
 287:C:/Users/stapi/OneDrive/Desktop/GD32VW553/GD32VW55X_Wifi_BLE_SDK/GD32VW55x_RELEASE_V1.0.2/MSDK/wifi_manager\wifi_net_ip.c **** #ifdef CONFIG_IPV6_SUPPORT
 288:C:/Users/stapi/OneDrive/Desktop/GD32VW553/GD32VW55X_Wifi_BLE_SDK/GD32VW55x_RELEASE_V1.0.2/MSDK/wifi_manager\wifi_net_ip.c **** /*!
 289:C:/Users/stapi/OneDrive/Desktop/GD32VW553/GD32VW55X_Wifi_BLE_SDK/GD32VW55x_RELEASE_V1.0.2/MSDK/wifi_manager\wifi_net_ip.c ****     \brief      Check if IPv6 address is got
 290:C:/Users/stapi/OneDrive/Desktop/GD32VW553/GD32VW55X_Wifi_BLE_SDK/GD32VW55x_RELEASE_V1.0.2/MSDK/wifi_manager\wifi_net_ip.c ****     \param[in]  vif_idx: index of the wifi vif
 291:C:/Users/stapi/OneDrive/Desktop/GD32VW553/GD32VW55X_Wifi_BLE_SDK/GD32VW55x_RELEASE_V1.0.2/MSDK/wifi_manager\wifi_net_ip.c ****     \param[out] none
 292:C:/Users/stapi/OneDrive/Desktop/GD32VW553/GD32VW55X_Wifi_BLE_SDK/GD32VW55x_RELEASE_V1.0.2/MSDK/wifi_manager\wifi_net_ip.c ****     \retval     1 if is got and 0 otherwise.
 293:C:/Users/stapi/OneDrive/Desktop/GD32VW553/GD32VW55X_Wifi_BLE_SDK/GD32VW55x_RELEASE_V1.0.2/MSDK/wifi_manager\wifi_net_ip.c **** */
 294:C:/Users/stapi/OneDrive/Desktop/GD32VW553/GD32VW55X_Wifi_BLE_SDK/GD32VW55x_RELEASE_V1.0.2/MSDK/wifi_manager\wifi_net_ip.c **** uint8_t wifi_ipv6_is_got(int vif_idx)
 295:C:/Users/stapi/OneDrive/Desktop/GD32VW553/GD32VW55X_Wifi_BLE_SDK/GD32VW55x_RELEASE_V1.0.2/MSDK/wifi_manager\wifi_net_ip.c **** {
 296:C:/Users/stapi/OneDrive/Desktop/GD32VW553/GD32VW55X_Wifi_BLE_SDK/GD32VW55x_RELEASE_V1.0.2/MSDK/wifi_manager\wifi_net_ip.c ****     struct netif *net_if;
 297:C:/Users/stapi/OneDrive/Desktop/GD32VW553/GD32VW55X_Wifi_BLE_SDK/GD32VW55x_RELEASE_V1.0.2/MSDK/wifi_manager\wifi_net_ip.c **** 
 298:C:/Users/stapi/OneDrive/Desktop/GD32VW553/GD32VW55X_Wifi_BLE_SDK/GD32VW55x_RELEASE_V1.0.2/MSDK/wifi_manager\wifi_net_ip.c ****     if (vif_idx >= CFG_VIF_NUM)
 299:C:/Users/stapi/OneDrive/Desktop/GD32VW553/GD32VW55X_Wifi_BLE_SDK/GD32VW55x_RELEASE_V1.0.2/MSDK/wifi_manager\wifi_net_ip.c ****         return 0;
 300:C:/Users/stapi/OneDrive/Desktop/GD32VW553/GD32VW55X_Wifi_BLE_SDK/GD32VW55x_RELEASE_V1.0.2/MSDK/wifi_manager\wifi_net_ip.c **** 
 301:C:/Users/stapi/OneDrive/Desktop/GD32VW553/GD32VW55X_Wifi_BLE_SDK/GD32VW55x_RELEASE_V1.0.2/MSDK/wifi_manager\wifi_net_ip.c ****     net_if = vif_idx_to_net_if(vif_idx);
 302:C:/Users/stapi/OneDrive/Desktop/GD32VW553/GD32VW55X_Wifi_BLE_SDK/GD32VW55x_RELEASE_V1.0.2/MSDK/wifi_manager\wifi_net_ip.c ****     if (!net_if)
 303:C:/Users/stapi/OneDrive/Desktop/GD32VW553/GD32VW55X_Wifi_BLE_SDK/GD32VW55x_RELEASE_V1.0.2/MSDK/wifi_manager\wifi_net_ip.c ****         return 0;
 304:C:/Users/stapi/OneDrive/Desktop/GD32VW553/GD32VW55X_Wifi_BLE_SDK/GD32VW55x_RELEASE_V1.0.2/MSDK/wifi_manager\wifi_net_ip.c **** 
 305:C:/Users/stapi/OneDrive/Desktop/GD32VW553/GD32VW55X_Wifi_BLE_SDK/GD32VW55x_RELEASE_V1.0.2/MSDK/wifi_manager\wifi_net_ip.c ****     if (!ip6_addr_isany(ip_2_ip6(&net_if->ip6_addr[1])) && !ip6_addr_isinvalid(net_if->ip6_addr_sta
 306:C:/Users/stapi/OneDrive/Desktop/GD32VW553/GD32VW55X_Wifi_BLE_SDK/GD32VW55x_RELEASE_V1.0.2/MSDK/wifi_manager\wifi_net_ip.c ****         return 1;
 307:C:/Users/stapi/OneDrive/Desktop/GD32VW553/GD32VW55X_Wifi_BLE_SDK/GD32VW55x_RELEASE_V1.0.2/MSDK/wifi_manager\wifi_net_ip.c **** 
 308:C:/Users/stapi/OneDrive/Desktop/GD32VW553/GD32VW55X_Wifi_BLE_SDK/GD32VW55x_RELEASE_V1.0.2/MSDK/wifi_manager\wifi_net_ip.c ****     return 0;
 309:C:/Users/stapi/OneDrive/Desktop/GD32VW553/GD32VW55X_Wifi_BLE_SDK/GD32VW55x_RELEASE_V1.0.2/MSDK/wifi_manager\wifi_net_ip.c **** }
 310:C:/Users/stapi/OneDrive/Desktop/GD32VW553/GD32VW55X_Wifi_BLE_SDK/GD32VW55x_RELEASE_V1.0.2/MSDK/wifi_manager\wifi_net_ip.c **** 
 311:C:/Users/stapi/OneDrive/Desktop/GD32VW553/GD32VW55X_Wifi_BLE_SDK/GD32VW55x_RELEASE_V1.0.2/MSDK/wifi_manager\wifi_net_ip.c **** /*!
 312:C:/Users/stapi/OneDrive/Desktop/GD32VW553/GD32VW55X_Wifi_BLE_SDK/GD32VW55x_RELEASE_V1.0.2/MSDK/wifi_manager\wifi_net_ip.c ****     \brief      Get IPv6 address
 313:C:/Users/stapi/OneDrive/Desktop/GD32VW553/GD32VW55X_Wifi_BLE_SDK/GD32VW55x_RELEASE_V1.0.2/MSDK/wifi_manager\wifi_net_ip.c ****     \param[in]  vif_idx: index of the wifi vif
 314:C:/Users/stapi/OneDrive/Desktop/GD32VW553/GD32VW55X_Wifi_BLE_SDK/GD32VW55x_RELEASE_V1.0.2/MSDK/wifi_manager\wifi_net_ip.c ****     \param[out] ip6_local: pointer to the IPv6 local address
 315:C:/Users/stapi/OneDrive/Desktop/GD32VW553/GD32VW55X_Wifi_BLE_SDK/GD32VW55x_RELEASE_V1.0.2/MSDK/wifi_manager\wifi_net_ip.c ****     \param[out] ip6_unique: pointer to the IPv6 unique address
 316:C:/Users/stapi/OneDrive/Desktop/GD32VW553/GD32VW55X_Wifi_BLE_SDK/GD32VW55x_RELEASE_V1.0.2/MSDK/wifi_manager\wifi_net_ip.c ****     \retval     0 on success and != 0 if error occured.
 317:C:/Users/stapi/OneDrive/Desktop/GD32VW553/GD32VW55X_Wifi_BLE_SDK/GD32VW55x_RELEASE_V1.0.2/MSDK/wifi_manager\wifi_net_ip.c **** */
 318:C:/Users/stapi/OneDrive/Desktop/GD32VW553/GD32VW55X_Wifi_BLE_SDK/GD32VW55x_RELEASE_V1.0.2/MSDK/wifi_manager\wifi_net_ip.c **** int wifi_get_vif_ip6(int vif_idx, char *ip6_local, char *ip6_unique)
 319:C:/Users/stapi/OneDrive/Desktop/GD32VW553/GD32VW55X_Wifi_BLE_SDK/GD32VW55x_RELEASE_V1.0.2/MSDK/wifi_manager\wifi_net_ip.c **** {
 320:C:/Users/stapi/OneDrive/Desktop/GD32VW553/GD32VW55X_Wifi_BLE_SDK/GD32VW55x_RELEASE_V1.0.2/MSDK/wifi_manager\wifi_net_ip.c ****     struct netif *net_if;
 321:C:/Users/stapi/OneDrive/Desktop/GD32VW553/GD32VW55X_Wifi_BLE_SDK/GD32VW55x_RELEASE_V1.0.2/MSDK/wifi_manager\wifi_net_ip.c ****     char *local = NULL;
 322:C:/Users/stapi/OneDrive/Desktop/GD32VW553/GD32VW55X_Wifi_BLE_SDK/GD32VW55x_RELEASE_V1.0.2/MSDK/wifi_manager\wifi_net_ip.c ****     char *unique = NULL;
 323:C:/Users/stapi/OneDrive/Desktop/GD32VW553/GD32VW55X_Wifi_BLE_SDK/GD32VW55x_RELEASE_V1.0.2/MSDK/wifi_manager\wifi_net_ip.c **** 
 324:C:/Users/stapi/OneDrive/Desktop/GD32VW553/GD32VW55X_Wifi_BLE_SDK/GD32VW55x_RELEASE_V1.0.2/MSDK/wifi_manager\wifi_net_ip.c ****     if (vif_idx >= CFG_VIF_NUM)
 325:C:/Users/stapi/OneDrive/Desktop/GD32VW553/GD32VW55X_Wifi_BLE_SDK/GD32VW55x_RELEASE_V1.0.2/MSDK/wifi_manager\wifi_net_ip.c ****         return -1;
 326:C:/Users/stapi/OneDrive/Desktop/GD32VW553/GD32VW55X_Wifi_BLE_SDK/GD32VW55x_RELEASE_V1.0.2/MSDK/wifi_manager\wifi_net_ip.c **** 
 327:C:/Users/stapi/OneDrive/Desktop/GD32VW553/GD32VW55X_Wifi_BLE_SDK/GD32VW55x_RELEASE_V1.0.2/MSDK/wifi_manager\wifi_net_ip.c ****     net_if = vif_idx_to_net_if(vif_idx);
 328:C:/Users/stapi/OneDrive/Desktop/GD32VW553/GD32VW55X_Wifi_BLE_SDK/GD32VW55x_RELEASE_V1.0.2/MSDK/wifi_manager\wifi_net_ip.c ****     if (!net_if)
 329:C:/Users/stapi/OneDrive/Desktop/GD32VW553/GD32VW55X_Wifi_BLE_SDK/GD32VW55x_RELEASE_V1.0.2/MSDK/wifi_manager\wifi_net_ip.c ****         return -1;
 330:C:/Users/stapi/OneDrive/Desktop/GD32VW553/GD32VW55X_Wifi_BLE_SDK/GD32VW55x_RELEASE_V1.0.2/MSDK/wifi_manager\wifi_net_ip.c **** 
 331:C:/Users/stapi/OneDrive/Desktop/GD32VW553/GD32VW55X_Wifi_BLE_SDK/GD32VW55x_RELEASE_V1.0.2/MSDK/wifi_manager\wifi_net_ip.c ****     local = ip6addr_ntoa(ip_2_ip6(&net_if->ip6_addr[0]));
 332:C:/Users/stapi/OneDrive/Desktop/GD32VW553/GD32VW55X_Wifi_BLE_SDK/GD32VW55x_RELEASE_V1.0.2/MSDK/wifi_manager\wifi_net_ip.c ****     sys_memcpy(ip6_local, local, strlen(local));
 333:C:/Users/stapi/OneDrive/Desktop/GD32VW553/GD32VW55X_Wifi_BLE_SDK/GD32VW55x_RELEASE_V1.0.2/MSDK/wifi_manager\wifi_net_ip.c ****     if (wifi_ipv6_is_got(vif_idx)) {
 334:C:/Users/stapi/OneDrive/Desktop/GD32VW553/GD32VW55X_Wifi_BLE_SDK/GD32VW55x_RELEASE_V1.0.2/MSDK/wifi_manager\wifi_net_ip.c ****         unique = ip6addr_ntoa(ip_2_ip6(&net_if->ip6_addr[1]));
 335:C:/Users/stapi/OneDrive/Desktop/GD32VW553/GD32VW55X_Wifi_BLE_SDK/GD32VW55x_RELEASE_V1.0.2/MSDK/wifi_manager\wifi_net_ip.c ****         sys_memcpy(ip6_unique, unique, strlen(unique));
 336:C:/Users/stapi/OneDrive/Desktop/GD32VW553/GD32VW55X_Wifi_BLE_SDK/GD32VW55x_RELEASE_V1.0.2/MSDK/wifi_manager\wifi_net_ip.c ****     }
 337:C:/Users/stapi/OneDrive/Desktop/GD32VW553/GD32VW55X_Wifi_BLE_SDK/GD32VW55x_RELEASE_V1.0.2/MSDK/wifi_manager\wifi_net_ip.c **** 
 338:C:/Users/stapi/OneDrive/Desktop/GD32VW553/GD32VW55X_Wifi_BLE_SDK/GD32VW55x_RELEASE_V1.0.2/MSDK/wifi_manager\wifi_net_ip.c ****     return 0;
 339:C:/Users/stapi/OneDrive/Desktop/GD32VW553/GD32VW55X_Wifi_BLE_SDK/GD32VW55x_RELEASE_V1.0.2/MSDK/wifi_manager\wifi_net_ip.c **** }
 340:C:/Users/stapi/OneDrive/Desktop/GD32VW553/GD32VW55X_Wifi_BLE_SDK/GD32VW55x_RELEASE_V1.0.2/MSDK/wifi_manager\wifi_net_ip.c **** 
 341:C:/Users/stapi/OneDrive/Desktop/GD32VW553/GD32VW55X_Wifi_BLE_SDK/GD32VW55x_RELEASE_V1.0.2/MSDK/wifi_manager\wifi_net_ip.c **** /*!
 342:C:/Users/stapi/OneDrive/Desktop/GD32VW553/GD32VW55X_Wifi_BLE_SDK/GD32VW55x_RELEASE_V1.0.2/MSDK/wifi_manager\wifi_net_ip.c ****     \brief      Set IPv6 unique address invalid
 343:C:/Users/stapi/OneDrive/Desktop/GD32VW553/GD32VW55X_Wifi_BLE_SDK/GD32VW55x_RELEASE_V1.0.2/MSDK/wifi_manager\wifi_net_ip.c ****     \param[in]  net_if: Pointer to the net_if structure
 344:C:/Users/stapi/OneDrive/Desktop/GD32VW553/GD32VW55X_Wifi_BLE_SDK/GD32VW55x_RELEASE_V1.0.2/MSDK/wifi_manager\wifi_net_ip.c ****     \param[out] none
 345:C:/Users/stapi/OneDrive/Desktop/GD32VW553/GD32VW55X_Wifi_BLE_SDK/GD32VW55x_RELEASE_V1.0.2/MSDK/wifi_manager\wifi_net_ip.c ****     \retval     none
 346:C:/Users/stapi/OneDrive/Desktop/GD32VW553/GD32VW55X_Wifi_BLE_SDK/GD32VW55x_RELEASE_V1.0.2/MSDK/wifi_manager\wifi_net_ip.c **** */
 347:C:/Users/stapi/OneDrive/Desktop/GD32VW553/GD32VW55X_Wifi_BLE_SDK/GD32VW55x_RELEASE_V1.0.2/MSDK/wifi_manager\wifi_net_ip.c **** void wifi_ip6_unique_addr_set_invalid(void *net_if)
 348:C:/Users/stapi/OneDrive/Desktop/GD32VW553/GD32VW55X_Wifi_BLE_SDK/GD32VW55x_RELEASE_V1.0.2/MSDK/wifi_manager\wifi_net_ip.c **** {
 349:C:/Users/stapi/OneDrive/Desktop/GD32VW553/GD32VW55X_Wifi_BLE_SDK/GD32VW55x_RELEASE_V1.0.2/MSDK/wifi_manager\wifi_net_ip.c ****     struct netif *netif = (struct netif *)net_if;
 350:C:/Users/stapi/OneDrive/Desktop/GD32VW553/GD32VW55X_Wifi_BLE_SDK/GD32VW55x_RELEASE_V1.0.2/MSDK/wifi_manager\wifi_net_ip.c **** 
 351:C:/Users/stapi/OneDrive/Desktop/GD32VW553/GD32VW55X_Wifi_BLE_SDK/GD32VW55x_RELEASE_V1.0.2/MSDK/wifi_manager\wifi_net_ip.c ****     if (!netif)
 352:C:/Users/stapi/OneDrive/Desktop/GD32VW553/GD32VW55X_Wifi_BLE_SDK/GD32VW55x_RELEASE_V1.0.2/MSDK/wifi_manager\wifi_net_ip.c ****         return;
 353:C:/Users/stapi/OneDrive/Desktop/GD32VW553/GD32VW55X_Wifi_BLE_SDK/GD32VW55x_RELEASE_V1.0.2/MSDK/wifi_manager\wifi_net_ip.c **** 
 354:C:/Users/stapi/OneDrive/Desktop/GD32VW553/GD32VW55X_Wifi_BLE_SDK/GD32VW55x_RELEASE_V1.0.2/MSDK/wifi_manager\wifi_net_ip.c ****     netif->ip6_addr_state[1] = IP6_ADDR_INVALID;
 355:C:/Users/stapi/OneDrive/Desktop/GD32VW553/GD32VW55X_Wifi_BLE_SDK/GD32VW55x_RELEASE_V1.0.2/MSDK/wifi_manager\wifi_net_ip.c ****     ip6_addr_set_zero(ip_2_ip6(&netif->ip6_addr[1]));
 356:C:/Users/stapi/OneDrive/Desktop/GD32VW553/GD32VW55X_Wifi_BLE_SDK/GD32VW55x_RELEASE_V1.0.2/MSDK/wifi_manager\wifi_net_ip.c **** }
 357:C:/Users/stapi/OneDrive/Desktop/GD32VW553/GD32VW55X_Wifi_BLE_SDK/GD32VW55x_RELEASE_V1.0.2/MSDK/wifi_manager\wifi_net_ip.c **** #endif /* CONFIG_IPV6_SUPPORT */
 358:C:/Users/stapi/OneDrive/Desktop/GD32VW553/GD32VW55X_Wifi_BLE_SDK/GD32VW55x_RELEASE_V1.0.2/MSDK/wifi_manager\wifi_net_ip.c **** 
 359:C:/Users/stapi/OneDrive/Desktop/GD32VW553/GD32VW55X_Wifi_BLE_SDK/GD32VW55x_RELEASE_V1.0.2/MSDK/wifi_manager\wifi_net_ip.c **** /*!
 360:C:/Users/stapi/OneDrive/Desktop/GD32VW553/GD32VW55X_Wifi_BLE_SDK/GD32VW55x_RELEASE_V1.0.2/MSDK/wifi_manager\wifi_net_ip.c ****     \brief      Calculate checksum
 361:C:/Users/stapi/OneDrive/Desktop/GD32VW553/GD32VW55X_Wifi_BLE_SDK/GD32VW55x_RELEASE_V1.0.2/MSDK/wifi_manager\wifi_net_ip.c ****     \param[in]  dataptr: data to calculate checksum
 362:C:/Users/stapi/OneDrive/Desktop/GD32VW553/GD32VW55X_Wifi_BLE_SDK/GD32VW55x_RELEASE_V1.0.2/MSDK/wifi_manager\wifi_net_ip.c ****     \param[in]  len: data length
 363:C:/Users/stapi/OneDrive/Desktop/GD32VW553/GD32VW55X_Wifi_BLE_SDK/GD32VW55x_RELEASE_V1.0.2/MSDK/wifi_manager\wifi_net_ip.c ****     \param[out] none
 364:C:/Users/stapi/OneDrive/Desktop/GD32VW553/GD32VW55X_Wifi_BLE_SDK/GD32VW55x_RELEASE_V1.0.2/MSDK/wifi_manager\wifi_net_ip.c ****     \retval     checksum of data.
 365:C:/Users/stapi/OneDrive/Desktop/GD32VW553/GD32VW55X_Wifi_BLE_SDK/GD32VW55x_RELEASE_V1.0.2/MSDK/wifi_manager\wifi_net_ip.c **** */
 366:C:/Users/stapi/OneDrive/Desktop/GD32VW553/GD32VW55X_Wifi_BLE_SDK/GD32VW55x_RELEASE_V1.0.2/MSDK/wifi_manager\wifi_net_ip.c **** uint16_t wifi_ip_chksum(const void *dataptr, int len)
 367:C:/Users/stapi/OneDrive/Desktop/GD32VW553/GD32VW55X_Wifi_BLE_SDK/GD32VW55x_RELEASE_V1.0.2/MSDK/wifi_manager\wifi_net_ip.c **** {
 605              		.loc 1 367 1 is_stmt 1
 606              		.cfi_startproc
 607              	.LVL65:
 368:C:/Users/stapi/OneDrive/Desktop/GD32VW553/GD32VW55X_Wifi_BLE_SDK/GD32VW55x_RELEASE_V1.0.2/MSDK/wifi_manager\wifi_net_ip.c ****     return net_ip_chksum(dataptr, len);
 608              		.loc 1 368 5
 609              		.loc 1 368 12 is_stmt 0
 610 0000 17030000 		tail	net_ip_chksum
 610      67000300 
 611              	.LVL66:
 612              		.cfi_endproc
 613              	.LFE21:
 615              		.text
 616              	.Letext0:
 617              		.file 2 "c:\\users\\stapi\\onedrive\\desktop\\gd32vw553\\embeddedbuilder_v1.4.7.26843\\tools\\nucl
 618              		.file 3 "c:\\users\\stapi\\onedrive\\desktop\\gd32vw553\\embeddedbuilder_v1.4.7.26843\\tools\\nucl
 619              		.file 4 "C:/Users/stapi/OneDrive/Desktop/GD32VW553/GD32VW55X_Wifi_BLE_SDK/GD32VW55x_RELEASE_V1.0.2
 620              		.file 5 "..\\..\\..\\..\\lwip\\lwip-2.1.2\\src\\include/lwip/arch.h"
 621              		.file 6 "..\\..\\..\\..\\lwip\\lwip-2.1.2\\src\\include/lwip/err.h"
 622              		.file 7 "..\\..\\..\\..\\lwip\\lwip-2.1.2\\src\\include/lwip/pbuf.h"
 623              		.file 8 "..\\..\\..\\..\\lwip\\lwip-2.1.2\\src\\include/lwip/ip4_addr.h"
 624              		.file 9 "..\\..\\..\\..\\lwip\\lwip-2.1.2\\src\\include/lwip/ip_addr.h"
 625              		.file 10 "..\\..\\..\\..\\lwip\\lwip-2.1.2\\src\\include/lwip/netif.h"
 626              		.file 11 "..\\..\\..\\..\\macsw\\export/wifi_export.h"
 627              		.file 12 "..\\..\\..\\..\\lwip\\lwip-2.1.2\\port/wifi_netif.h"
 628              		.file 13 "C:/Users/stapi/OneDrive/Desktop/GD32VW553/GD32VW55X_Wifi_BLE_SDK/GD32VW55x_RELEASE_V1.0.
 629              		.file 14 "..\\..\\..\\..\\util\\include/debug_print.h"
 630              		.file 15 "..\\..\\..\\..\\macsw\\import/rtos_import.h"
 631              		.file 16 "..\\..\\..\\..\\util\\include/dbg_print.h"