   1              		.file	"wifi_vif.c"
   2              		.option nopic
   3              		.attribute arch, "rv32i2p0_m2p0_a2p0_f2p0_c2p0_b_p0p94"
   4              		.attribute unaligned_access, 0
   5              		.attribute stack_align, 16
   6              		.text
   7              	.Ltext0:
   8              		.cfi_sections	.debug_frame
   9              		.section	.text.vif_idx_to_mac_vif,"ax",@progbits
  10              		.align	1
  11              		.globl	vif_idx_to_mac_vif
  13              	vif_idx_to_mac_vif:
  14              	.LFB14:
  15              		.file 1 "C:/Users/stapi/OneDrive/Desktop/GD32VW553/GD32VW55X_Wifi_BLE_SDK/GD32VW55x_RELEASE_V1.0.2
   1:C:/Users/stapi/OneDrive/Desktop/GD32VW553/GD32VW55X_Wifi_BLE_SDK/GD32VW55x_RELEASE_V1.0.2/MSDK/wifi_manager\wifi_vif.c **** /*!
   2:C:/Users/stapi/OneDrive/Desktop/GD32VW553/GD32VW55X_Wifi_BLE_SDK/GD32VW55x_RELEASE_V1.0.2/MSDK/wifi_manager\wifi_vif.c ****     \file    wifi_vif.c
   3:C:/Users/stapi/OneDrive/Desktop/GD32VW553/GD32VW55X_Wifi_BLE_SDK/GD32VW55x_RELEASE_V1.0.2/MSDK/wifi_manager\wifi_vif.c ****     \brief   wifi virtual interface for GD32VW55x SDK.
   4:C:/Users/stapi/OneDrive/Desktop/GD32VW553/GD32VW55X_Wifi_BLE_SDK/GD32VW55x_RELEASE_V1.0.2/MSDK/wifi_manager\wifi_vif.c **** 
   5:C:/Users/stapi/OneDrive/Desktop/GD32VW553/GD32VW55X_Wifi_BLE_SDK/GD32VW55x_RELEASE_V1.0.2/MSDK/wifi_manager\wifi_vif.c ****     \version 2023-07-20, V1.0.0, firmware for GD32VW55x
   6:C:/Users/stapi/OneDrive/Desktop/GD32VW553/GD32VW55X_Wifi_BLE_SDK/GD32VW55x_RELEASE_V1.0.2/MSDK/wifi_manager\wifi_vif.c **** */
   7:C:/Users/stapi/OneDrive/Desktop/GD32VW553/GD32VW55X_Wifi_BLE_SDK/GD32VW55x_RELEASE_V1.0.2/MSDK/wifi_manager\wifi_vif.c **** 
   8:C:/Users/stapi/OneDrive/Desktop/GD32VW553/GD32VW55X_Wifi_BLE_SDK/GD32VW55x_RELEASE_V1.0.2/MSDK/wifi_manager\wifi_vif.c **** /*
   9:C:/Users/stapi/OneDrive/Desktop/GD32VW553/GD32VW55X_Wifi_BLE_SDK/GD32VW55x_RELEASE_V1.0.2/MSDK/wifi_manager\wifi_vif.c ****     Copyright (c) 2023, GigaDevice Semiconductor Inc.
  10:C:/Users/stapi/OneDrive/Desktop/GD32VW553/GD32VW55X_Wifi_BLE_SDK/GD32VW55x_RELEASE_V1.0.2/MSDK/wifi_manager\wifi_vif.c **** 
  11:C:/Users/stapi/OneDrive/Desktop/GD32VW553/GD32VW55X_Wifi_BLE_SDK/GD32VW55x_RELEASE_V1.0.2/MSDK/wifi_manager\wifi_vif.c ****     Redistribution and use in source and binary forms, with or without modification,
  12:C:/Users/stapi/OneDrive/Desktop/GD32VW553/GD32VW55X_Wifi_BLE_SDK/GD32VW55x_RELEASE_V1.0.2/MSDK/wifi_manager\wifi_vif.c **** are permitted provided that the following conditions are met:
  13:C:/Users/stapi/OneDrive/Desktop/GD32VW553/GD32VW55X_Wifi_BLE_SDK/GD32VW55x_RELEASE_V1.0.2/MSDK/wifi_manager\wifi_vif.c **** 
  14:C:/Users/stapi/OneDrive/Desktop/GD32VW553/GD32VW55X_Wifi_BLE_SDK/GD32VW55x_RELEASE_V1.0.2/MSDK/wifi_manager\wifi_vif.c ****     1. Redistributions of source code must retain the above copyright notice, this
  15:C:/Users/stapi/OneDrive/Desktop/GD32VW553/GD32VW55X_Wifi_BLE_SDK/GD32VW55x_RELEASE_V1.0.2/MSDK/wifi_manager\wifi_vif.c ****        list of conditions and the following disclaimer.
  16:C:/Users/stapi/OneDrive/Desktop/GD32VW553/GD32VW55X_Wifi_BLE_SDK/GD32VW55x_RELEASE_V1.0.2/MSDK/wifi_manager\wifi_vif.c ****     2. Redistributions in binary form must reproduce the above copyright notice,
  17:C:/Users/stapi/OneDrive/Desktop/GD32VW553/GD32VW55X_Wifi_BLE_SDK/GD32VW55x_RELEASE_V1.0.2/MSDK/wifi_manager\wifi_vif.c ****        this list of conditions and the following disclaimer in the documentation
  18:C:/Users/stapi/OneDrive/Desktop/GD32VW553/GD32VW55X_Wifi_BLE_SDK/GD32VW55x_RELEASE_V1.0.2/MSDK/wifi_manager\wifi_vif.c ****        and/or other materials provided with the distribution.
  19:C:/Users/stapi/OneDrive/Desktop/GD32VW553/GD32VW55X_Wifi_BLE_SDK/GD32VW55x_RELEASE_V1.0.2/MSDK/wifi_manager\wifi_vif.c ****     3. Neither the name of the copyright holder nor the names of its contributors
  20:C:/Users/stapi/OneDrive/Desktop/GD32VW553/GD32VW55X_Wifi_BLE_SDK/GD32VW55x_RELEASE_V1.0.2/MSDK/wifi_manager\wifi_vif.c ****        may be used to endorse or promote products derived from this software without
  21:C:/Users/stapi/OneDrive/Desktop/GD32VW553/GD32VW55X_Wifi_BLE_SDK/GD32VW55x_RELEASE_V1.0.2/MSDK/wifi_manager\wifi_vif.c ****        specific prior written permission.
  22:C:/Users/stapi/OneDrive/Desktop/GD32VW553/GD32VW55X_Wifi_BLE_SDK/GD32VW55x_RELEASE_V1.0.2/MSDK/wifi_manager\wifi_vif.c **** 
  23:C:/Users/stapi/OneDrive/Desktop/GD32VW553/GD32VW55X_Wifi_BLE_SDK/GD32VW55x_RELEASE_V1.0.2/MSDK/wifi_manager\wifi_vif.c ****     THIS SOFTWARE IS PROVIDED BY THE COPYRIGHT HOLDERS AND CONTRIBUTORS "AS IS"
  24:C:/Users/stapi/OneDrive/Desktop/GD32VW553/GD32VW55X_Wifi_BLE_SDK/GD32VW55x_RELEASE_V1.0.2/MSDK/wifi_manager\wifi_vif.c **** AND ANY EXPRESS OR IMPLIED WARRANTIES, INCLUDING, BUT NOT LIMITED TO, THE IMPLIED
  25:C:/Users/stapi/OneDrive/Desktop/GD32VW553/GD32VW55X_Wifi_BLE_SDK/GD32VW55x_RELEASE_V1.0.2/MSDK/wifi_manager\wifi_vif.c **** WARRANTIES OF MERCHANTABILITY AND FITNESS FOR A PARTICULAR PURPOSE ARE DISCLAIMED.
  26:C:/Users/stapi/OneDrive/Desktop/GD32VW553/GD32VW55X_Wifi_BLE_SDK/GD32VW55x_RELEASE_V1.0.2/MSDK/wifi_manager\wifi_vif.c **** IN NO EVENT SHALL THE COPYRIGHT HOLDER OR CONTRIBUTORS BE LIABLE FOR ANY DIRECT,
  27:C:/Users/stapi/OneDrive/Desktop/GD32VW553/GD32VW55X_Wifi_BLE_SDK/GD32VW55x_RELEASE_V1.0.2/MSDK/wifi_manager\wifi_vif.c **** INDIRECT, INCIDENTAL, SPECIAL, EXEMPLARY, OR CONSEQUENTIAL DAMAGES (INCLUDING, BUT
  28:C:/Users/stapi/OneDrive/Desktop/GD32VW553/GD32VW55X_Wifi_BLE_SDK/GD32VW55x_RELEASE_V1.0.2/MSDK/wifi_manager\wifi_vif.c **** NOT LIMITED TO, PROCUREMENT OF SUBSTITUTE GOODS OR SERVICES; LOSS OF USE, DATA, OR
  29:C:/Users/stapi/OneDrive/Desktop/GD32VW553/GD32VW55X_Wifi_BLE_SDK/GD32VW55x_RELEASE_V1.0.2/MSDK/wifi_manager\wifi_vif.c **** PROFITS; OR BUSINESS INTERRUPTION) HOWEVER CAUSED AND ON ANY THEORY OF LIABILITY,
  30:C:/Users/stapi/OneDrive/Desktop/GD32VW553/GD32VW55X_Wifi_BLE_SDK/GD32VW55x_RELEASE_V1.0.2/MSDK/wifi_manager\wifi_vif.c **** WHETHER IN CONTRACT, STRICT LIABILITY, OR TORT (INCLUDING NEGLIGENCE OR OTHERWISE)
  31:C:/Users/stapi/OneDrive/Desktop/GD32VW553/GD32VW55X_Wifi_BLE_SDK/GD32VW55x_RELEASE_V1.0.2/MSDK/wifi_manager\wifi_vif.c **** ARISING IN ANY WAY OUT OF THE USE OF THIS SOFTWARE, EVEN IF ADVISED OF THE POSSIBILITY
  32:C:/Users/stapi/OneDrive/Desktop/GD32VW553/GD32VW55X_Wifi_BLE_SDK/GD32VW55x_RELEASE_V1.0.2/MSDK/wifi_manager\wifi_vif.c **** OF SUCH DAMAGE.
  33:C:/Users/stapi/OneDrive/Desktop/GD32VW553/GD32VW55X_Wifi_BLE_SDK/GD32VW55x_RELEASE_V1.0.2/MSDK/wifi_manager\wifi_vif.c **** */
  34:C:/Users/stapi/OneDrive/Desktop/GD32VW553/GD32VW55X_Wifi_BLE_SDK/GD32VW55x_RELEASE_V1.0.2/MSDK/wifi_manager\wifi_vif.c **** 
  35:C:/Users/stapi/OneDrive/Desktop/GD32VW553/GD32VW55X_Wifi_BLE_SDK/GD32VW55x_RELEASE_V1.0.2/MSDK/wifi_manager\wifi_vif.c **** #include "wifi_vif.h"
  36:C:/Users/stapi/OneDrive/Desktop/GD32VW553/GD32VW55X_Wifi_BLE_SDK/GD32VW55x_RELEASE_V1.0.2/MSDK/wifi_manager\wifi_vif.c **** #include "wifi_net_ip.h"
  37:C:/Users/stapi/OneDrive/Desktop/GD32VW553/GD32VW55X_Wifi_BLE_SDK/GD32VW55x_RELEASE_V1.0.2/MSDK/wifi_manager\wifi_vif.c **** 
  38:C:/Users/stapi/OneDrive/Desktop/GD32VW553/GD32VW55X_Wifi_BLE_SDK/GD32VW55x_RELEASE_V1.0.2/MSDK/wifi_manager\wifi_vif.c **** struct wifi_vif_tag wifi_vif_tab[CFG_VIF_NUM];
  39:C:/Users/stapi/OneDrive/Desktop/GD32VW553/GD32VW55X_Wifi_BLE_SDK/GD32VW55x_RELEASE_V1.0.2/MSDK/wifi_manager\wifi_vif.c **** 
  40:C:/Users/stapi/OneDrive/Desktop/GD32VW553/GD32VW55X_Wifi_BLE_SDK/GD32VW55x_RELEASE_V1.0.2/MSDK/wifi_manager\wifi_vif.c **** /*!
  41:C:/Users/stapi/OneDrive/Desktop/GD32VW553/GD32VW55X_Wifi_BLE_SDK/GD32VW55x_RELEASE_V1.0.2/MSDK/wifi_manager\wifi_vif.c ****     \brief      Get mac vif from wifi vif
  42:C:/Users/stapi/OneDrive/Desktop/GD32VW553/GD32VW55X_Wifi_BLE_SDK/GD32VW55x_RELEASE_V1.0.2/MSDK/wifi_manager\wifi_vif.c ****     \param[in]  vif_idx: index of the wifi vif
  43:C:/Users/stapi/OneDrive/Desktop/GD32VW553/GD32VW55X_Wifi_BLE_SDK/GD32VW55x_RELEASE_V1.0.2/MSDK/wifi_manager\wifi_vif.c ****     \param[out] none
  44:C:/Users/stapi/OneDrive/Desktop/GD32VW553/GD32VW55X_Wifi_BLE_SDK/GD32VW55x_RELEASE_V1.0.2/MSDK/wifi_manager\wifi_vif.c ****     \retval     Pointer to the mac vif on success or NULL if error occured.
  45:C:/Users/stapi/OneDrive/Desktop/GD32VW553/GD32VW55X_Wifi_BLE_SDK/GD32VW55x_RELEASE_V1.0.2/MSDK/wifi_manager\wifi_vif.c **** */
  46:C:/Users/stapi/OneDrive/Desktop/GD32VW553/GD32VW55X_Wifi_BLE_SDK/GD32VW55x_RELEASE_V1.0.2/MSDK/wifi_manager\wifi_vif.c **** void *vif_idx_to_mac_vif(uint8_t vif_idx)
  47:C:/Users/stapi/OneDrive/Desktop/GD32VW553/GD32VW55X_Wifi_BLE_SDK/GD32VW55x_RELEASE_V1.0.2/MSDK/wifi_manager\wifi_vif.c **** {
  16              		.loc 1 47 1
  17              		.cfi_startproc
  18              	.LVL0:
  48:C:/Users/stapi/OneDrive/Desktop/GD32VW553/GD32VW55X_Wifi_BLE_SDK/GD32VW55x_RELEASE_V1.0.2/MSDK/wifi_manager\wifi_vif.c ****     if (vif_idx >= CFG_VIF_NUM)
  19              		.loc 1 48 5
  20              		.loc 1 48 8 is_stmt 0
  21 0000 8547     		li	a5,1
  22 0002 63ECA700 		bgtu	a0,a5,.L3
  49:C:/Users/stapi/OneDrive/Desktop/GD32VW553/GD32VW55X_Wifi_BLE_SDK/GD32VW55x_RELEASE_V1.0.2/MSDK/wifi_manager\wifi_vif.c ****         return NULL;
  50:C:/Users/stapi/OneDrive/Desktop/GD32VW553/GD32VW55X_Wifi_BLE_SDK/GD32VW55x_RELEASE_V1.0.2/MSDK/wifi_manager\wifi_vif.c ****     return wifi_vif_tab[vif_idx].mac_vif;
  23              		.loc 1 50 5 is_stmt 1
  24              		.loc 1 50 33 is_stmt 0
  25 0006 B7070000 		lui	a5,%hi(.LANCHOR0)
  26 000a 1307800F 		li	a4,248
  27 000e 93870700 		addi	a5,a5,%lo(.LANCHOR0)
  28 0012 FF17E5C4 		maddr32	a5, a0, a4
  29 0016 E847     		lw	a0,76(a5)
  30              	.LVL1:
  31 0018 8280     		ret
  32              	.LVL2:
  33              	.L3:
  49:C:/Users/stapi/OneDrive/Desktop/GD32VW553/GD32VW55X_Wifi_BLE_SDK/GD32VW55x_RELEASE_V1.0.2/MSDK/wifi_manager\wifi_vif.c ****         return NULL;
  34              		.loc 1 49 16
  35 001a 0145     		li	a0,0
  36              	.LVL3:
  51:C:/Users/stapi/OneDrive/Desktop/GD32VW553/GD32VW55X_Wifi_BLE_SDK/GD32VW55x_RELEASE_V1.0.2/MSDK/wifi_manager\wifi_vif.c **** }
  37              		.loc 1 51 1
  38 001c 8280     		ret
  39              		.cfi_endproc
  40              	.LFE14:
  42              		.section	.text.wvif_to_mac_vif,"ax",@progbits
  43              		.align	1
  44              		.globl	wvif_to_mac_vif
  46              	wvif_to_mac_vif:
  47              	.LFB15:
  52:C:/Users/stapi/OneDrive/Desktop/GD32VW553/GD32VW55X_Wifi_BLE_SDK/GD32VW55x_RELEASE_V1.0.2/MSDK/wifi_manager\wifi_vif.c **** 
  53:C:/Users/stapi/OneDrive/Desktop/GD32VW553/GD32VW55X_Wifi_BLE_SDK/GD32VW55x_RELEASE_V1.0.2/MSDK/wifi_manager\wifi_vif.c **** /*!
  54:C:/Users/stapi/OneDrive/Desktop/GD32VW553/GD32VW55X_Wifi_BLE_SDK/GD32VW55x_RELEASE_V1.0.2/MSDK/wifi_manager\wifi_vif.c ****     \brief      Get mac vif from wifi vif
  55:C:/Users/stapi/OneDrive/Desktop/GD32VW553/GD32VW55X_Wifi_BLE_SDK/GD32VW55x_RELEASE_V1.0.2/MSDK/wifi_manager\wifi_vif.c ****     \param[in]  wvif: Pointer to the wifi vif
  56:C:/Users/stapi/OneDrive/Desktop/GD32VW553/GD32VW55X_Wifi_BLE_SDK/GD32VW55x_RELEASE_V1.0.2/MSDK/wifi_manager\wifi_vif.c ****     \param[out] none
  57:C:/Users/stapi/OneDrive/Desktop/GD32VW553/GD32VW55X_Wifi_BLE_SDK/GD32VW55x_RELEASE_V1.0.2/MSDK/wifi_manager\wifi_vif.c ****     \retval     Pointer to the mac vif on success and NULL if error occured.
  58:C:/Users/stapi/OneDrive/Desktop/GD32VW553/GD32VW55X_Wifi_BLE_SDK/GD32VW55x_RELEASE_V1.0.2/MSDK/wifi_manager\wifi_vif.c **** */
  59:C:/Users/stapi/OneDrive/Desktop/GD32VW553/GD32VW55X_Wifi_BLE_SDK/GD32VW55x_RELEASE_V1.0.2/MSDK/wifi_manager\wifi_vif.c **** void *wvif_to_mac_vif(void *wvif)
  60:C:/Users/stapi/OneDrive/Desktop/GD32VW553/GD32VW55X_Wifi_BLE_SDK/GD32VW55x_RELEASE_V1.0.2/MSDK/wifi_manager\wifi_vif.c **** {
  48              		.loc 1 60 1 is_stmt 1
  49              		.cfi_startproc
  50              	.LVL4:
  61:C:/Users/stapi/OneDrive/Desktop/GD32VW553/GD32VW55X_Wifi_BLE_SDK/GD32VW55x_RELEASE_V1.0.2/MSDK/wifi_manager\wifi_vif.c ****     return (((struct wifi_vif_tag *)wvif)->mac_vif);
  51              		.loc 1 61 5
  62:C:/Users/stapi/OneDrive/Desktop/GD32VW553/GD32VW55X_Wifi_BLE_SDK/GD32VW55x_RELEASE_V1.0.2/MSDK/wifi_manager\wifi_vif.c **** }
  52              		.loc 1 62 1 is_stmt 0
  53 0000 6845     		lw	a0,76(a0)
  54              	.LVL5:
  55 0002 8280     		ret
  56              		.cfi_endproc
  57              	.LFE15:
  59              		.section	.text.vif_idx_to_net_if,"ax",@progbits
  60              		.align	1
  61              		.globl	vif_idx_to_net_if
  63              	vif_idx_to_net_if:
  64              	.LFB16:
  63:C:/Users/stapi/OneDrive/Desktop/GD32VW553/GD32VW55X_Wifi_BLE_SDK/GD32VW55x_RELEASE_V1.0.2/MSDK/wifi_manager\wifi_vif.c **** 
  64:C:/Users/stapi/OneDrive/Desktop/GD32VW553/GD32VW55X_Wifi_BLE_SDK/GD32VW55x_RELEASE_V1.0.2/MSDK/wifi_manager\wifi_vif.c **** /*!
  65:C:/Users/stapi/OneDrive/Desktop/GD32VW553/GD32VW55X_Wifi_BLE_SDK/GD32VW55x_RELEASE_V1.0.2/MSDK/wifi_manager\wifi_vif.c ****     \brief      Get net interface from wifi vif
  66:C:/Users/stapi/OneDrive/Desktop/GD32VW553/GD32VW55X_Wifi_BLE_SDK/GD32VW55x_RELEASE_V1.0.2/MSDK/wifi_manager\wifi_vif.c ****     \param[in]  vif_idx: index of the wifi vif
  67:C:/Users/stapi/OneDrive/Desktop/GD32VW553/GD32VW55X_Wifi_BLE_SDK/GD32VW55x_RELEASE_V1.0.2/MSDK/wifi_manager\wifi_vif.c ****     \param[out] none
  68:C:/Users/stapi/OneDrive/Desktop/GD32VW553/GD32VW55X_Wifi_BLE_SDK/GD32VW55x_RELEASE_V1.0.2/MSDK/wifi_manager\wifi_vif.c ****     \retval     Pointer to the net interface on success and NULL if error occured.
  69:C:/Users/stapi/OneDrive/Desktop/GD32VW553/GD32VW55X_Wifi_BLE_SDK/GD32VW55x_RELEASE_V1.0.2/MSDK/wifi_manager\wifi_vif.c **** */
  70:C:/Users/stapi/OneDrive/Desktop/GD32VW553/GD32VW55X_Wifi_BLE_SDK/GD32VW55x_RELEASE_V1.0.2/MSDK/wifi_manager\wifi_vif.c **** void *vif_idx_to_net_if(uint8_t vif_idx)
  71:C:/Users/stapi/OneDrive/Desktop/GD32VW553/GD32VW55X_Wifi_BLE_SDK/GD32VW55x_RELEASE_V1.0.2/MSDK/wifi_manager\wifi_vif.c **** {
  65              		.loc 1 71 1 is_stmt 1
  66              		.cfi_startproc
  67              	.LVL6:
  72:C:/Users/stapi/OneDrive/Desktop/GD32VW553/GD32VW55X_Wifi_BLE_SDK/GD32VW55x_RELEASE_V1.0.2/MSDK/wifi_manager\wifi_vif.c ****     if (vif_idx >= CFG_VIF_NUM)
  68              		.loc 1 72 5
  69              		.loc 1 72 8 is_stmt 0
  70 0000 0547     		li	a4,1
  71:C:/Users/stapi/OneDrive/Desktop/GD32VW553/GD32VW55X_Wifi_BLE_SDK/GD32VW55x_RELEASE_V1.0.2/MSDK/wifi_manager\wifi_vif.c ****     if (vif_idx >= CFG_VIF_NUM)
  71              		.loc 1 71 1
  72 0002 AA87     		mv	a5,a0
  73              		.loc 1 72 8
  74 0004 636BA700 		bgtu	a0,a4,.L7
  73:C:/Users/stapi/OneDrive/Desktop/GD32VW553/GD32VW55X_Wifi_BLE_SDK/GD32VW55x_RELEASE_V1.0.2/MSDK/wifi_manager\wifi_vif.c ****         return NULL;
  74:C:/Users/stapi/OneDrive/Desktop/GD32VW553/GD32VW55X_Wifi_BLE_SDK/GD32VW55x_RELEASE_V1.0.2/MSDK/wifi_manager\wifi_vif.c ****     return &(wifi_vif_tab[vif_idx].net_if);
  75              		.loc 1 74 5 is_stmt 1
  76              		.loc 1 74 12 is_stmt 0
  77 0008 37050000 		lui	a0,%hi(.LANCHOR0)
  78              	.LVL7:
  79 000c 1307800F 		li	a4,248
  80 0010 13050500 		addi	a0,a0,%lo(.LANCHOR0)
  81 0014 7F95E7C4 		maddr32	a0, a5, a4
  82 0018 8280     		ret
  83              	.LVL8:
  84              	.L7:
  73:C:/Users/stapi/OneDrive/Desktop/GD32VW553/GD32VW55X_Wifi_BLE_SDK/GD32VW55x_RELEASE_V1.0.2/MSDK/wifi_manager\wifi_vif.c ****         return NULL;
  85              		.loc 1 73 16
  86 001a 0145     		li	a0,0
  87              	.LVL9:
  75:C:/Users/stapi/OneDrive/Desktop/GD32VW553/GD32VW55X_Wifi_BLE_SDK/GD32VW55x_RELEASE_V1.0.2/MSDK/wifi_manager\wifi_vif.c **** }
  88              		.loc 1 75 1
  89 001c 8280     		ret
  90              		.cfi_endproc
  91              	.LFE16:
  93              		.section	.text.vif_idx_to_wvif,"ax",@progbits
  94              		.align	1
  95              		.globl	vif_idx_to_wvif
  97              	vif_idx_to_wvif:
  98              	.LFB17:
  76:C:/Users/stapi/OneDrive/Desktop/GD32VW553/GD32VW55X_Wifi_BLE_SDK/GD32VW55x_RELEASE_V1.0.2/MSDK/wifi_manager\wifi_vif.c **** 
  77:C:/Users/stapi/OneDrive/Desktop/GD32VW553/GD32VW55X_Wifi_BLE_SDK/GD32VW55x_RELEASE_V1.0.2/MSDK/wifi_manager\wifi_vif.c **** /*!
  78:C:/Users/stapi/OneDrive/Desktop/GD32VW553/GD32VW55X_Wifi_BLE_SDK/GD32VW55x_RELEASE_V1.0.2/MSDK/wifi_manager\wifi_vif.c ****     \brief      Get wifi vif by index
  79:C:/Users/stapi/OneDrive/Desktop/GD32VW553/GD32VW55X_Wifi_BLE_SDK/GD32VW55x_RELEASE_V1.0.2/MSDK/wifi_manager\wifi_vif.c ****     \param[in]  vif_idx: index of the wifi vif
  80:C:/Users/stapi/OneDrive/Desktop/GD32VW553/GD32VW55X_Wifi_BLE_SDK/GD32VW55x_RELEASE_V1.0.2/MSDK/wifi_manager\wifi_vif.c ****     \param[out] none
  81:C:/Users/stapi/OneDrive/Desktop/GD32VW553/GD32VW55X_Wifi_BLE_SDK/GD32VW55x_RELEASE_V1.0.2/MSDK/wifi_manager\wifi_vif.c ****     \retval     Pointer to the wifi vif on success and NULL if error occured.
  82:C:/Users/stapi/OneDrive/Desktop/GD32VW553/GD32VW55X_Wifi_BLE_SDK/GD32VW55x_RELEASE_V1.0.2/MSDK/wifi_manager\wifi_vif.c **** */
  83:C:/Users/stapi/OneDrive/Desktop/GD32VW553/GD32VW55X_Wifi_BLE_SDK/GD32VW55x_RELEASE_V1.0.2/MSDK/wifi_manager\wifi_vif.c **** void *vif_idx_to_wvif(uint8_t vif_idx)
  84:C:/Users/stapi/OneDrive/Desktop/GD32VW553/GD32VW55X_Wifi_BLE_SDK/GD32VW55x_RELEASE_V1.0.2/MSDK/wifi_manager\wifi_vif.c **** {
  99              		.loc 1 84 1 is_stmt 1
 100              		.cfi_startproc
 101              	.LVL10:
  85:C:/Users/stapi/OneDrive/Desktop/GD32VW553/GD32VW55X_Wifi_BLE_SDK/GD32VW55x_RELEASE_V1.0.2/MSDK/wifi_manager\wifi_vif.c ****     if (vif_idx >= CFG_VIF_NUM)
 102              		.loc 1 85 5
 103              		.loc 1 85 8 is_stmt 0
 104 0000 0547     		li	a4,1
  84:C:/Users/stapi/OneDrive/Desktop/GD32VW553/GD32VW55X_Wifi_BLE_SDK/GD32VW55x_RELEASE_V1.0.2/MSDK/wifi_manager\wifi_vif.c ****     if (vif_idx >= CFG_VIF_NUM)
 105              		.loc 1 84 1
 106 0002 AA87     		mv	a5,a0
 107              		.loc 1 85 8
 108 0004 636BA700 		bgtu	a0,a4,.L10
  86:C:/Users/stapi/OneDrive/Desktop/GD32VW553/GD32VW55X_Wifi_BLE_SDK/GD32VW55x_RELEASE_V1.0.2/MSDK/wifi_manager\wifi_vif.c ****         return NULL;
  87:C:/Users/stapi/OneDrive/Desktop/GD32VW553/GD32VW55X_Wifi_BLE_SDK/GD32VW55x_RELEASE_V1.0.2/MSDK/wifi_manager\wifi_vif.c ****     return &(wifi_vif_tab[vif_idx]);
 109              		.loc 1 87 5 is_stmt 1
 110              		.loc 1 87 12 is_stmt 0
 111 0008 37050000 		lui	a0,%hi(.LANCHOR0)
 112              	.LVL11:
 113 000c 1307800F 		li	a4,248
 114 0010 13050500 		addi	a0,a0,%lo(.LANCHOR0)
 115 0014 7F95E7C4 		maddr32	a0, a5, a4
 116 0018 8280     		ret
 117              	.LVL12:
 118              	.L10:
  86:C:/Users/stapi/OneDrive/Desktop/GD32VW553/GD32VW55X_Wifi_BLE_SDK/GD32VW55x_RELEASE_V1.0.2/MSDK/wifi_manager\wifi_vif.c ****         return NULL;
 119              		.loc 1 86 16
 120 001a 0145     		li	a0,0
 121              	.LVL13:
  88:C:/Users/stapi/OneDrive/Desktop/GD32VW553/GD32VW55X_Wifi_BLE_SDK/GD32VW55x_RELEASE_V1.0.2/MSDK/wifi_manager\wifi_vif.c **** }
 122              		.loc 1 88 1
 123 001c 8280     		ret
 124              		.cfi_endproc
 125              	.LFE17:
 127              		.section	.text.wvif_to_vif_idx,"ax",@progbits
 128              		.align	1
 129              		.globl	wvif_to_vif_idx
 131              	wvif_to_vif_idx:
 132              	.LFB18:
  89:C:/Users/stapi/OneDrive/Desktop/GD32VW553/GD32VW55X_Wifi_BLE_SDK/GD32VW55x_RELEASE_V1.0.2/MSDK/wifi_manager\wifi_vif.c **** 
  90:C:/Users/stapi/OneDrive/Desktop/GD32VW553/GD32VW55X_Wifi_BLE_SDK/GD32VW55x_RELEASE_V1.0.2/MSDK/wifi_manager\wifi_vif.c **** /*!
  91:C:/Users/stapi/OneDrive/Desktop/GD32VW553/GD32VW55X_Wifi_BLE_SDK/GD32VW55x_RELEASE_V1.0.2/MSDK/wifi_manager\wifi_vif.c ****     \brief      Get index of the wifi vif
  92:C:/Users/stapi/OneDrive/Desktop/GD32VW553/GD32VW55X_Wifi_BLE_SDK/GD32VW55x_RELEASE_V1.0.2/MSDK/wifi_manager\wifi_vif.c ****     \param[in]  wvif: Pointer to the wifi vif
  93:C:/Users/stapi/OneDrive/Desktop/GD32VW553/GD32VW55X_Wifi_BLE_SDK/GD32VW55x_RELEASE_V1.0.2/MSDK/wifi_manager\wifi_vif.c ****     \param[out] none
  94:C:/Users/stapi/OneDrive/Desktop/GD32VW553/GD32VW55X_Wifi_BLE_SDK/GD32VW55x_RELEASE_V1.0.2/MSDK/wifi_manager\wifi_vif.c ****     \retval     index of the wifi vif.
  95:C:/Users/stapi/OneDrive/Desktop/GD32VW553/GD32VW55X_Wifi_BLE_SDK/GD32VW55x_RELEASE_V1.0.2/MSDK/wifi_manager\wifi_vif.c **** */
  96:C:/Users/stapi/OneDrive/Desktop/GD32VW553/GD32VW55X_Wifi_BLE_SDK/GD32VW55x_RELEASE_V1.0.2/MSDK/wifi_manager\wifi_vif.c **** int wvif_to_vif_idx(void *wvif)
  97:C:/Users/stapi/OneDrive/Desktop/GD32VW553/GD32VW55X_Wifi_BLE_SDK/GD32VW55x_RELEASE_V1.0.2/MSDK/wifi_manager\wifi_vif.c **** {
 133              		.loc 1 97 1 is_stmt 1
 134              		.cfi_startproc
 135              	.LVL14:
  98:C:/Users/stapi/OneDrive/Desktop/GD32VW553/GD32VW55X_Wifi_BLE_SDK/GD32VW55x_RELEASE_V1.0.2/MSDK/wifi_manager\wifi_vif.c ****     return ((struct wifi_vif_tag *)wvif - wifi_vif_tab);
 136              		.loc 1 98 5
 137              		.loc 1 98 41 is_stmt 0
 138 0000 B7070000 		lui	a5,%hi(.LANCHOR0)
 139 0004 93870700 		addi	a5,a5,%lo(.LANCHOR0)
 140 0008 1D8D     		sub	a0,a0,a5
 141              	.LVL15:
  99:C:/Users/stapi/OneDrive/Desktop/GD32VW553/GD32VW55X_Wifi_BLE_SDK/GD32VW55x_RELEASE_V1.0.2/MSDK/wifi_manager\wifi_vif.c **** }
 142              		.loc 1 99 1
 143 000a B787EFBD 		li	a5,-1108377600
 144 000e 9387F7BD 		addi	a5,a5,-1057
  98:C:/Users/stapi/OneDrive/Desktop/GD32VW553/GD32VW55X_Wifi_BLE_SDK/GD32VW55x_RELEASE_V1.0.2/MSDK/wifi_manager\wifi_vif.c ****     return ((struct wifi_vif_tag *)wvif - wifi_vif_tab);
 145              		.loc 1 98 41
 146 0012 0D85     		srai	a0,a0,3
 147              	.LVL16:
 148              		.loc 1 99 1
 149 0014 3305F502 		mul	a0,a0,a5
 150 0018 8280     		ret
 151              		.cfi_endproc
 152              	.LFE18:
 154              		.section	.text.wvif_type_to_mvif_type,"ax",@progbits
 155              		.align	1
 156              		.globl	wvif_type_to_mvif_type
 158              	wvif_type_to_mvif_type:
 159              	.LFB19:
 100:C:/Users/stapi/OneDrive/Desktop/GD32VW553/GD32VW55X_Wifi_BLE_SDK/GD32VW55x_RELEASE_V1.0.2/MSDK/wifi_manager\wifi_vif.c **** 
 101:C:/Users/stapi/OneDrive/Desktop/GD32VW553/GD32VW55X_Wifi_BLE_SDK/GD32VW55x_RELEASE_V1.0.2/MSDK/wifi_manager\wifi_vif.c **** /*!
 102:C:/Users/stapi/OneDrive/Desktop/GD32VW553/GD32VW55X_Wifi_BLE_SDK/GD32VW55x_RELEASE_V1.0.2/MSDK/wifi_manager\wifi_vif.c ****     \brief      Convert the wifi vif type to the mac vif type
 103:C:/Users/stapi/OneDrive/Desktop/GD32VW553/GD32VW55X_Wifi_BLE_SDK/GD32VW55x_RELEASE_V1.0.2/MSDK/wifi_manager\wifi_vif.c ****     \param[in]  wvif_type: wifi vif type
 104:C:/Users/stapi/OneDrive/Desktop/GD32VW553/GD32VW55X_Wifi_BLE_SDK/GD32VW55x_RELEASE_V1.0.2/MSDK/wifi_manager\wifi_vif.c ****     \param[out] none
 105:C:/Users/stapi/OneDrive/Desktop/GD32VW553/GD32VW55X_Wifi_BLE_SDK/GD32VW55x_RELEASE_V1.0.2/MSDK/wifi_manager\wifi_vif.c ****     \retval     mac vif type.
 106:C:/Users/stapi/OneDrive/Desktop/GD32VW553/GD32VW55X_Wifi_BLE_SDK/GD32VW55x_RELEASE_V1.0.2/MSDK/wifi_manager\wifi_vif.c **** */
 107:C:/Users/stapi/OneDrive/Desktop/GD32VW553/GD32VW55X_Wifi_BLE_SDK/GD32VW55x_RELEASE_V1.0.2/MSDK/wifi_manager\wifi_vif.c **** uint32_t wvif_type_to_mvif_type(uint32_t wvif_type)
 108:C:/Users/stapi/OneDrive/Desktop/GD32VW553/GD32VW55X_Wifi_BLE_SDK/GD32VW55x_RELEASE_V1.0.2/MSDK/wifi_manager\wifi_vif.c **** {
 160              		.loc 1 108 1 is_stmt 1
 161              		.cfi_startproc
 162              	.LVL17:
 109:C:/Users/stapi/OneDrive/Desktop/GD32VW553/GD32VW55X_Wifi_BLE_SDK/GD32VW55x_RELEASE_V1.0.2/MSDK/wifi_manager\wifi_vif.c ****     enum mac_vif_type macvif_type;
 163              		.loc 1 109 5
 110:C:/Users/stapi/OneDrive/Desktop/GD32VW553/GD32VW55X_Wifi_BLE_SDK/GD32VW55x_RELEASE_V1.0.2/MSDK/wifi_manager\wifi_vif.c **** 
 111:C:/Users/stapi/OneDrive/Desktop/GD32VW553/GD32VW55X_Wifi_BLE_SDK/GD32VW55x_RELEASE_V1.0.2/MSDK/wifi_manager\wifi_vif.c ****     switch (wvif_type) {
 164              		.loc 1 111 5
 165 0000 1307F5FF 		addi	a4,a0,-1
 166 0004 8947     		li	a5,2
 167 0006 63E5E700 		bgtu	a4,a5,.L14
 168 000a 0605     		slli	a0,a0,1
 169              	.LVL18:
 170 000c 7915     		addi	a0,a0,-2
 171 000e 8280     		ret
 172              	.LVL19:
 173              	.L14:
 108:C:/Users/stapi/OneDrive/Desktop/GD32VW553/GD32VW55X_Wifi_BLE_SDK/GD32VW55x_RELEASE_V1.0.2/MSDK/wifi_manager\wifi_vif.c ****     enum mac_vif_type macvif_type;
 174              		.loc 1 108 1 is_stmt 0
 175 0010 1545     		li	a0,5
 176              	.LVL20:
 112:C:/Users/stapi/OneDrive/Desktop/GD32VW553/GD32VW55X_Wifi_BLE_SDK/GD32VW55x_RELEASE_V1.0.2/MSDK/wifi_manager\wifi_vif.c ****         case WVIF_STA:
 113:C:/Users/stapi/OneDrive/Desktop/GD32VW553/GD32VW55X_Wifi_BLE_SDK/GD32VW55x_RELEASE_V1.0.2/MSDK/wifi_manager\wifi_vif.c ****             macvif_type = VIF_STA;
 114:C:/Users/stapi/OneDrive/Desktop/GD32VW553/GD32VW55X_Wifi_BLE_SDK/GD32VW55x_RELEASE_V1.0.2/MSDK/wifi_manager\wifi_vif.c ****             break;
 115:C:/Users/stapi/OneDrive/Desktop/GD32VW553/GD32VW55X_Wifi_BLE_SDK/GD32VW55x_RELEASE_V1.0.2/MSDK/wifi_manager\wifi_vif.c ****         case WVIF_AP:
 116:C:/Users/stapi/OneDrive/Desktop/GD32VW553/GD32VW55X_Wifi_BLE_SDK/GD32VW55x_RELEASE_V1.0.2/MSDK/wifi_manager\wifi_vif.c ****             macvif_type = VIF_AP;
 117:C:/Users/stapi/OneDrive/Desktop/GD32VW553/GD32VW55X_Wifi_BLE_SDK/GD32VW55x_RELEASE_V1.0.2/MSDK/wifi_manager\wifi_vif.c ****             break;
 118:C:/Users/stapi/OneDrive/Desktop/GD32VW553/GD32VW55X_Wifi_BLE_SDK/GD32VW55x_RELEASE_V1.0.2/MSDK/wifi_manager\wifi_vif.c ****         case WVIF_MONITOR:
 119:C:/Users/stapi/OneDrive/Desktop/GD32VW553/GD32VW55X_Wifi_BLE_SDK/GD32VW55x_RELEASE_V1.0.2/MSDK/wifi_manager\wifi_vif.c ****             macvif_type = VIF_MONITOR;
 120:C:/Users/stapi/OneDrive/Desktop/GD32VW553/GD32VW55X_Wifi_BLE_SDK/GD32VW55x_RELEASE_V1.0.2/MSDK/wifi_manager\wifi_vif.c ****             break;
 121:C:/Users/stapi/OneDrive/Desktop/GD32VW553/GD32VW55X_Wifi_BLE_SDK/GD32VW55x_RELEASE_V1.0.2/MSDK/wifi_manager\wifi_vif.c ****         default:
 122:C:/Users/stapi/OneDrive/Desktop/GD32VW553/GD32VW55X_Wifi_BLE_SDK/GD32VW55x_RELEASE_V1.0.2/MSDK/wifi_manager\wifi_vif.c ****             macvif_type = VIF_UNKNOWN;
 123:C:/Users/stapi/OneDrive/Desktop/GD32VW553/GD32VW55X_Wifi_BLE_SDK/GD32VW55x_RELEASE_V1.0.2/MSDK/wifi_manager\wifi_vif.c ****             break;
 124:C:/Users/stapi/OneDrive/Desktop/GD32VW553/GD32VW55X_Wifi_BLE_SDK/GD32VW55x_RELEASE_V1.0.2/MSDK/wifi_manager\wifi_vif.c ****     }
 125:C:/Users/stapi/OneDrive/Desktop/GD32VW553/GD32VW55X_Wifi_BLE_SDK/GD32VW55x_RELEASE_V1.0.2/MSDK/wifi_manager\wifi_vif.c ****     return macvif_type;
 177              		.loc 1 125 5 is_stmt 1
 126:C:/Users/stapi/OneDrive/Desktop/GD32VW553/GD32VW55X_Wifi_BLE_SDK/GD32VW55x_RELEASE_V1.0.2/MSDK/wifi_manager\wifi_vif.c **** }
 178              		.loc 1 126 1 is_stmt 0
 179 0012 8280     		ret
 180              		.cfi_endproc
 181              	.LFE19:
 183              		.section	.text.mvif_type_to_wvif_type,"ax",@progbits
 184              		.align	1
 185              		.globl	mvif_type_to_wvif_type
 187              	mvif_type_to_wvif_type:
 188              	.LFB20:
 127:C:/Users/stapi/OneDrive/Desktop/GD32VW553/GD32VW55X_Wifi_BLE_SDK/GD32VW55x_RELEASE_V1.0.2/MSDK/wifi_manager\wifi_vif.c **** 
 128:C:/Users/stapi/OneDrive/Desktop/GD32VW553/GD32VW55X_Wifi_BLE_SDK/GD32VW55x_RELEASE_V1.0.2/MSDK/wifi_manager\wifi_vif.c **** /*!
 129:C:/Users/stapi/OneDrive/Desktop/GD32VW553/GD32VW55X_Wifi_BLE_SDK/GD32VW55x_RELEASE_V1.0.2/MSDK/wifi_manager\wifi_vif.c ****     \brief      Convert the mac vif type to the wifi vif type
 130:C:/Users/stapi/OneDrive/Desktop/GD32VW553/GD32VW55X_Wifi_BLE_SDK/GD32VW55x_RELEASE_V1.0.2/MSDK/wifi_manager\wifi_vif.c ****     \param[in]  macvif_type: mac vif type
 131:C:/Users/stapi/OneDrive/Desktop/GD32VW553/GD32VW55X_Wifi_BLE_SDK/GD32VW55x_RELEASE_V1.0.2/MSDK/wifi_manager\wifi_vif.c ****     \param[out] none
 132:C:/Users/stapi/OneDrive/Desktop/GD32VW553/GD32VW55X_Wifi_BLE_SDK/GD32VW55x_RELEASE_V1.0.2/MSDK/wifi_manager\wifi_vif.c ****     \retval     wifi vif type.
 133:C:/Users/stapi/OneDrive/Desktop/GD32VW553/GD32VW55X_Wifi_BLE_SDK/GD32VW55x_RELEASE_V1.0.2/MSDK/wifi_manager\wifi_vif.c **** */
 134:C:/Users/stapi/OneDrive/Desktop/GD32VW553/GD32VW55X_Wifi_BLE_SDK/GD32VW55x_RELEASE_V1.0.2/MSDK/wifi_manager\wifi_vif.c **** uint32_t mvif_type_to_wvif_type(uint32_t macvif_type)
 135:C:/Users/stapi/OneDrive/Desktop/GD32VW553/GD32VW55X_Wifi_BLE_SDK/GD32VW55x_RELEASE_V1.0.2/MSDK/wifi_manager\wifi_vif.c **** {
 189              		.loc 1 135 1 is_stmt 1
 190              		.cfi_startproc
 191              	.LVL21:
 136:C:/Users/stapi/OneDrive/Desktop/GD32VW553/GD32VW55X_Wifi_BLE_SDK/GD32VW55x_RELEASE_V1.0.2/MSDK/wifi_manager\wifi_vif.c ****     enum wifi_vif_type wvif_type;
 192              		.loc 1 136 5
 137:C:/Users/stapi/OneDrive/Desktop/GD32VW553/GD32VW55X_Wifi_BLE_SDK/GD32VW55x_RELEASE_V1.0.2/MSDK/wifi_manager\wifi_vif.c **** 
 138:C:/Users/stapi/OneDrive/Desktop/GD32VW553/GD32VW55X_Wifi_BLE_SDK/GD32VW55x_RELEASE_V1.0.2/MSDK/wifi_manager\wifi_vif.c ****     switch (macvif_type) {
 193              		.loc 1 138 5
 194 0000 1307F5FF 		addi	a4,a0,-1
 195 0004 8947     		li	a5,2
 196 0006 63F3E700 		bleu	a4,a5,.L16
 135:C:/Users/stapi/OneDrive/Desktop/GD32VW553/GD32VW55X_Wifi_BLE_SDK/GD32VW55x_RELEASE_V1.0.2/MSDK/wifi_manager\wifi_vif.c ****     enum wifi_vif_type wvif_type;
 197              		.loc 1 135 1 is_stmt 0
 198 000a 0145     		li	a0,0
 199              	.LVL22:
 200              	.L16:
 139:C:/Users/stapi/OneDrive/Desktop/GD32VW553/GD32VW55X_Wifi_BLE_SDK/GD32VW55x_RELEASE_V1.0.2/MSDK/wifi_manager\wifi_vif.c ****         case WVIF_STA:
 140:C:/Users/stapi/OneDrive/Desktop/GD32VW553/GD32VW55X_Wifi_BLE_SDK/GD32VW55x_RELEASE_V1.0.2/MSDK/wifi_manager\wifi_vif.c ****             wvif_type = WVIF_STA;
 141:C:/Users/stapi/OneDrive/Desktop/GD32VW553/GD32VW55X_Wifi_BLE_SDK/GD32VW55x_RELEASE_V1.0.2/MSDK/wifi_manager\wifi_vif.c ****             break;
 142:C:/Users/stapi/OneDrive/Desktop/GD32VW553/GD32VW55X_Wifi_BLE_SDK/GD32VW55x_RELEASE_V1.0.2/MSDK/wifi_manager\wifi_vif.c ****         case WVIF_AP:
 143:C:/Users/stapi/OneDrive/Desktop/GD32VW553/GD32VW55X_Wifi_BLE_SDK/GD32VW55x_RELEASE_V1.0.2/MSDK/wifi_manager\wifi_vif.c ****             wvif_type = WVIF_AP;
 144:C:/Users/stapi/OneDrive/Desktop/GD32VW553/GD32VW55X_Wifi_BLE_SDK/GD32VW55x_RELEASE_V1.0.2/MSDK/wifi_manager\wifi_vif.c ****             break;
 145:C:/Users/stapi/OneDrive/Desktop/GD32VW553/GD32VW55X_Wifi_BLE_SDK/GD32VW55x_RELEASE_V1.0.2/MSDK/wifi_manager\wifi_vif.c ****         case WVIF_MONITOR:
 146:C:/Users/stapi/OneDrive/Desktop/GD32VW553/GD32VW55X_Wifi_BLE_SDK/GD32VW55x_RELEASE_V1.0.2/MSDK/wifi_manager\wifi_vif.c ****             wvif_type = WVIF_MONITOR;
 147:C:/Users/stapi/OneDrive/Desktop/GD32VW553/GD32VW55X_Wifi_BLE_SDK/GD32VW55x_RELEASE_V1.0.2/MSDK/wifi_manager\wifi_vif.c ****             break;
 148:C:/Users/stapi/OneDrive/Desktop/GD32VW553/GD32VW55X_Wifi_BLE_SDK/GD32VW55x_RELEASE_V1.0.2/MSDK/wifi_manager\wifi_vif.c ****         default:
 149:C:/Users/stapi/OneDrive/Desktop/GD32VW553/GD32VW55X_Wifi_BLE_SDK/GD32VW55x_RELEASE_V1.0.2/MSDK/wifi_manager\wifi_vif.c ****             wvif_type = WVIF_UNKNOWN;
 150:C:/Users/stapi/OneDrive/Desktop/GD32VW553/GD32VW55X_Wifi_BLE_SDK/GD32VW55x_RELEASE_V1.0.2/MSDK/wifi_manager\wifi_vif.c ****             break;
 151:C:/Users/stapi/OneDrive/Desktop/GD32VW553/GD32VW55X_Wifi_BLE_SDK/GD32VW55x_RELEASE_V1.0.2/MSDK/wifi_manager\wifi_vif.c ****     }
 152:C:/Users/stapi/OneDrive/Desktop/GD32VW553/GD32VW55X_Wifi_BLE_SDK/GD32VW55x_RELEASE_V1.0.2/MSDK/wifi_manager\wifi_vif.c ****     return wvif_type;
 201              		.loc 1 152 5 is_stmt 1
 153:C:/Users/stapi/OneDrive/Desktop/GD32VW553/GD32VW55X_Wifi_BLE_SDK/GD32VW55x_RELEASE_V1.0.2/MSDK/wifi_manager\wifi_vif.c **** }
 202              		.loc 1 153 1 is_stmt 0
 203 000c 8280     		ret
 204              		.cfi_endproc
 205              	.LFE20:
 207              		.section	.text.wifi_vif_init,"ax",@progbits
 208              		.align	1
 209              		.globl	wifi_vif_init
 211              	wifi_vif_init:
 212              	.LFB21:
 154:C:/Users/stapi/OneDrive/Desktop/GD32VW553/GD32VW55X_Wifi_BLE_SDK/GD32VW55x_RELEASE_V1.0.2/MSDK/wifi_manager\wifi_vif.c **** 
 155:C:/Users/stapi/OneDrive/Desktop/GD32VW553/GD32VW55X_Wifi_BLE_SDK/GD32VW55x_RELEASE_V1.0.2/MSDK/wifi_manager\wifi_vif.c **** /*!
 156:C:/Users/stapi/OneDrive/Desktop/GD32VW553/GD32VW55X_Wifi_BLE_SDK/GD32VW55x_RELEASE_V1.0.2/MSDK/wifi_manager\wifi_vif.c ****     \brief      Initialize WIFI VIF
 157:C:/Users/stapi/OneDrive/Desktop/GD32VW553/GD32VW55X_Wifi_BLE_SDK/GD32VW55x_RELEASE_V1.0.2/MSDK/wifi_manager\wifi_vif.c ****                 This include initialization of the wifi VIF structure (mac address, ...) and
 158:C:/Users/stapi/OneDrive/Desktop/GD32VW553/GD32VW55X_Wifi_BLE_SDK/GD32VW55x_RELEASE_V1.0.2/MSDK/wifi_manager\wifi_vif.c ****                 registration of the interface in the IP stack.
 159:C:/Users/stapi/OneDrive/Desktop/GD32VW553/GD32VW55X_Wifi_BLE_SDK/GD32VW55x_RELEASE_V1.0.2/MSDK/wifi_manager\wifi_vif.c ****     \param[in]  vif_idx: Index of the WIFI VIF to initialize.
 160:C:/Users/stapi/OneDrive/Desktop/GD32VW553/GD32VW55X_Wifi_BLE_SDK/GD32VW55x_RELEASE_V1.0.2/MSDK/wifi_manager\wifi_vif.c ****                          No check on the value, assume it is valid.
 161:C:/Users/stapi/OneDrive/Desktop/GD32VW553/GD32VW55X_Wifi_BLE_SDK/GD32VW55x_RELEASE_V1.0.2/MSDK/wifi_manager\wifi_vif.c ****     \param[in]  base_mac_addr: Base MAC address
 162:C:/Users/stapi/OneDrive/Desktop/GD32VW553/GD32VW55X_Wifi_BLE_SDK/GD32VW55x_RELEASE_V1.0.2/MSDK/wifi_manager\wifi_vif.c ****     \param[out] none
 163:C:/Users/stapi/OneDrive/Desktop/GD32VW553/GD32VW55X_Wifi_BLE_SDK/GD32VW55x_RELEASE_V1.0.2/MSDK/wifi_manager\wifi_vif.c ****     \retval     none
 164:C:/Users/stapi/OneDrive/Desktop/GD32VW553/GD32VW55X_Wifi_BLE_SDK/GD32VW55x_RELEASE_V1.0.2/MSDK/wifi_manager\wifi_vif.c **** */
 165:C:/Users/stapi/OneDrive/Desktop/GD32VW553/GD32VW55X_Wifi_BLE_SDK/GD32VW55x_RELEASE_V1.0.2/MSDK/wifi_manager\wifi_vif.c **** void wifi_vif_init(int vif_idx, struct mac_addr *base_mac_addr)
 166:C:/Users/stapi/OneDrive/Desktop/GD32VW553/GD32VW55X_Wifi_BLE_SDK/GD32VW55x_RELEASE_V1.0.2/MSDK/wifi_manager\wifi_vif.c **** {
 213              		.loc 1 166 1 is_stmt 1
 214              		.cfi_startproc
 215              	.LVL23:
 216 0000 17030000 		call	t0,__riscv_save_5
 216      E7020300 
 217              		.cfi_offset 20, -24
 218              		.cfi_offset 19, -20
 219              		.cfi_offset 18, -16
 220              		.cfi_offset 9, -12
 221              		.cfi_offset 8, -8
 222              		.cfi_offset 1, -4
 223              		.cfi_def_cfa_offset 32
 167:C:/Users/stapi/OneDrive/Desktop/GD32VW553/GD32VW55X_Wifi_BLE_SDK/GD32VW55x_RELEASE_V1.0.2/MSDK/wifi_manager\wifi_vif.c ****     struct wifi_vif_tag *wvif =  &wifi_vif_tab[vif_idx];
 224              		.loc 1 167 5
 225 0008 1309800F 		li	s2,248
 226 000c 33092503 		mul	s2,a0,s2
 227              		.loc 1 167 26 is_stmt 0
 228 0010 B7090000 		lui	s3,%hi(.LANCHOR0)
 229 0014 93890900 		addi	s3,s3,%lo(.LANCHOR0)
 166:C:/Users/stapi/OneDrive/Desktop/GD32VW553/GD32VW55X_Wifi_BLE_SDK/GD32VW55x_RELEASE_V1.0.2/MSDK/wifi_manager\wifi_vif.c ****     struct wifi_vif_tag *wvif =  &wifi_vif_tab[vif_idx];
 230              		.loc 1 166 1
 231 0018 2A84     		mv	s0,a0
 232 001a 2E8A     		mv	s4,a1
 168:C:/Users/stapi/OneDrive/Desktop/GD32VW553/GD32VW55X_Wifi_BLE_SDK/GD32VW55x_RELEASE_V1.0.2/MSDK/wifi_manager\wifi_vif.c **** 
 169:C:/Users/stapi/OneDrive/Desktop/GD32VW553/GD32VW55X_Wifi_BLE_SDK/GD32VW55x_RELEASE_V1.0.2/MSDK/wifi_manager\wifi_vif.c ****     sys_memset(wvif, 0, sizeof(struct wifi_vif_tag));
 233              		.loc 1 169 5
 234 001c 1306800F 		li	a2,248
 235 0020 8145     		li	a1,0
 236              	.LVL24:
 167:C:/Users/stapi/OneDrive/Desktop/GD32VW553/GD32VW55X_Wifi_BLE_SDK/GD32VW55x_RELEASE_V1.0.2/MSDK/wifi_manager\wifi_vif.c **** 
 237              		.loc 1 167 26
 238 0022 B3842901 		add	s1,s3,s2
 239              	.LVL25:
 240              		.loc 1 169 5 is_stmt 1
 241 0026 2685     		mv	a0,s1
 242              	.LVL26:
 243 0028 97000000 		call	sys_memset
 243      E7800000 
 244              	.LVL27:
 170:C:/Users/stapi/OneDrive/Desktop/GD32VW553/GD32VW55X_Wifi_BLE_SDK/GD32VW55x_RELEASE_V1.0.2/MSDK/wifi_manager\wifi_vif.c **** 
 171:C:/Users/stapi/OneDrive/Desktop/GD32VW553/GD32VW55X_Wifi_BLE_SDK/GD32VW55x_RELEASE_V1.0.2/MSDK/wifi_manager\wifi_vif.c ****     wvif->mac_addr = *base_mac_addr;
 245              		.loc 1 171 5
 246              		.loc 1 171 20 is_stmt 0
 247 0030 D285     		mv	a1,s4
 248 0032 1946     		li	a2,6
 249 0034 13854404 		addi	a0,s1,68
 250 0038 97000000 		call	memcpy
 250      E7800000 
 251              	.LVL28:
 172:C:/Users/stapi/OneDrive/Desktop/GD32VW553/GD32VW55X_Wifi_BLE_SDK/GD32VW55x_RELEASE_V1.0.2/MSDK/wifi_manager\wifi_vif.c ****     wvif->mac_addr.array[2] ^= (vif_idx << 8);
 252              		.loc 1 172 5 is_stmt 1
 173:C:/Users/stapi/OneDrive/Desktop/GD32VW553/GD32VW55X_Wifi_BLE_SDK/GD32VW55x_RELEASE_V1.0.2/MSDK/wifi_manager\wifi_vif.c ****     wvif->mac_vif = NULL;
 174:C:/Users/stapi/OneDrive/Desktop/GD32VW553/GD32VW55X_Wifi_BLE_SDK/GD32VW55x_RELEASE_V1.0.2/MSDK/wifi_manager\wifi_vif.c ****     wvif->sta.ap_id = 0xFF;
 175:C:/Users/stapi/OneDrive/Desktop/GD32VW553/GD32VW55X_Wifi_BLE_SDK/GD32VW55x_RELEASE_V1.0.2/MSDK/wifi_manager\wifi_vif.c **** #ifdef CONFIG_WPA_SUPPLICANT
 176:C:/Users/stapi/OneDrive/Desktop/GD32VW553/GD32VW55X_Wifi_BLE_SDK/GD32VW55x_RELEASE_V1.0.2/MSDK/wifi_manager\wifi_vif.c ****     wvif->wpa_vif = &wifi_wpa.vifs[vif_idx];
 253              		.loc 1 176 21 is_stmt 0
 254 0040 13054003 		li	a0,52
 172:C:/Users/stapi/OneDrive/Desktop/GD32VW553/GD32VW55X_Wifi_BLE_SDK/GD32VW55x_RELEASE_V1.0.2/MSDK/wifi_manager\wifi_vif.c ****     wvif->mac_addr.array[2] ^= (vif_idx << 8);
 255              		.loc 1 172 41
 256 0044 93178400 		slli	a5,s0,8
 257              		.loc 1 176 21
 258 0048 3304A402 		mul	s0,s0,a0
 259              	.LVL29:
 172:C:/Users/stapi/OneDrive/Desktop/GD32VW553/GD32VW55X_Wifi_BLE_SDK/GD32VW55x_RELEASE_V1.0.2/MSDK/wifi_manager\wifi_vif.c ****     wvif->mac_addr.array[2] ^= (vif_idx << 8);
 260              		.loc 1 172 29
 261 004c 03D78404 		lhu	a4,72(s1)
 177:C:/Users/stapi/OneDrive/Desktop/GD32VW553/GD32VW55X_Wifi_BLE_SDK/GD32VW55x_RELEASE_V1.0.2/MSDK/wifi_manager\wifi_vif.c **** #endif
 178:C:/Users/stapi/OneDrive/Desktop/GD32VW553/GD32VW55X_Wifi_BLE_SDK/GD32VW55x_RELEASE_V1.0.2/MSDK/wifi_manager\wifi_vif.c ****     net_if_add(&wvif->net_if, (uint8_t *)wvif->mac_addr.array,
 262              		.loc 1 178 42
 263 0050 93054904 		addi	a1,s2,68
 173:C:/Users/stapi/OneDrive/Desktop/GD32VW553/GD32VW55X_Wifi_BLE_SDK/GD32VW55x_RELEASE_V1.0.2/MSDK/wifi_manager\wifi_vif.c ****     wvif->mac_vif = NULL;
 264              		.loc 1 173 19
 265 0054 23A60404 		sw	zero,76(s1)
 172:C:/Users/stapi/OneDrive/Desktop/GD32VW553/GD32VW55X_Wifi_BLE_SDK/GD32VW55x_RELEASE_V1.0.2/MSDK/wifi_manager\wifi_vif.c ****     wvif->mac_vif = NULL;
 266              		.loc 1 172 29
 267 0058 B98F     		xor	a5,a5,a4
 268 005a 2394F404 		sh	a5,72(s1)
 173:C:/Users/stapi/OneDrive/Desktop/GD32VW553/GD32VW55X_Wifi_BLE_SDK/GD32VW55x_RELEASE_V1.0.2/MSDK/wifi_manager\wifi_vif.c ****     wvif->mac_vif = NULL;
 269              		.loc 1 173 5 is_stmt 1
 174:C:/Users/stapi/OneDrive/Desktop/GD32VW553/GD32VW55X_Wifi_BLE_SDK/GD32VW55x_RELEASE_V1.0.2/MSDK/wifi_manager\wifi_vif.c **** #ifdef CONFIG_WPA_SUPPLICANT
 270              		.loc 1 174 5
 174:C:/Users/stapi/OneDrive/Desktop/GD32VW553/GD32VW55X_Wifi_BLE_SDK/GD32VW55x_RELEASE_V1.0.2/MSDK/wifi_manager\wifi_vif.c **** #ifdef CONFIG_WPA_SUPPLICANT
 271              		.loc 1 174 21 is_stmt 0
 272 005e FD57     		li	a5,-1
 273 0060 238CF40C 		sb	a5,216(s1)
 176:C:/Users/stapi/OneDrive/Desktop/GD32VW553/GD32VW55X_Wifi_BLE_SDK/GD32VW55x_RELEASE_V1.0.2/MSDK/wifi_manager\wifi_vif.c **** #endif
 274              		.loc 1 176 5 is_stmt 1
 176:C:/Users/stapi/OneDrive/Desktop/GD32VW553/GD32VW55X_Wifi_BLE_SDK/GD32VW55x_RELEASE_V1.0.2/MSDK/wifi_manager\wifi_vif.c **** #endif
 275              		.loc 1 176 21 is_stmt 0
 276 0064 B7070000 		lui	a5,%hi(wifi_wpa)
 277 0068 93870700 		addi	a5,a5,%lo(wifi_wpa)
 278 006c 3104     		addi	s0,s0,12
 279 006e 3E94     		add	s0,s0,a5
 176:C:/Users/stapi/OneDrive/Desktop/GD32VW553/GD32VW55X_Wifi_BLE_SDK/GD32VW55x_RELEASE_V1.0.2/MSDK/wifi_manager\wifi_vif.c **** #endif
 280              		.loc 1 176 19
 281 0070 23AA840E 		sw	s0,244(s1)
 282              		.loc 1 178 5 is_stmt 1
 283 0074 A687     		mv	a5,s1
 284 0076 0147     		li	a4,0
 285 0078 8146     		li	a3,0
 286 007a 0146     		li	a2,0
 287 007c CE95     		add	a1,s3,a1
 288 007e 2685     		mv	a0,s1
 289 0080 97000000 		call	net_if_add
 289      E7800000 
 290              	.LVL30:
 179:C:/Users/stapi/OneDrive/Desktop/GD32VW553/GD32VW55X_Wifi_BLE_SDK/GD32VW55x_RELEASE_V1.0.2/MSDK/wifi_manager\wifi_vif.c ****                NULL, NULL, NULL, wvif);
 180:C:/Users/stapi/OneDrive/Desktop/GD32VW553/GD32VW55X_Wifi_BLE_SDK/GD32VW55x_RELEASE_V1.0.2/MSDK/wifi_manager\wifi_vif.c **** }
 291              		.loc 1 180 1 is_stmt 0
 292 0088 17030000 		tail	__riscv_restore_5
 292      67000300 
 293              		.cfi_restore 20
 294              		.cfi_restore 19
 295              		.cfi_restore 18
 296              		.cfi_restore 9
 297              		.cfi_restore 8
 298              		.cfi_restore 1
 299              		.cfi_def_cfa_offset 0
 300              		.cfi_endproc
 301              	.LFE21:
 303              		.section	.text.wifi_vifs_init,"ax",@progbits
 304              		.align	1
 305              		.globl	wifi_vifs_init
 307              	wifi_vifs_init:
 308              	.LFB22:
 181:C:/Users/stapi/OneDrive/Desktop/GD32VW553/GD32VW55X_Wifi_BLE_SDK/GD32VW55x_RELEASE_V1.0.2/MSDK/wifi_manager\wifi_vif.c **** 
 182:C:/Users/stapi/OneDrive/Desktop/GD32VW553/GD32VW55X_Wifi_BLE_SDK/GD32VW55x_RELEASE_V1.0.2/MSDK/wifi_manager\wifi_vif.c **** /*!
 183:C:/Users/stapi/OneDrive/Desktop/GD32VW553/GD32VW55X_Wifi_BLE_SDK/GD32VW55x_RELEASE_V1.0.2/MSDK/wifi_manager\wifi_vif.c ****     \brief      Initialize all the WIFI VIFs
 184:C:/Users/stapi/OneDrive/Desktop/GD32VW553/GD32VW55X_Wifi_BLE_SDK/GD32VW55x_RELEASE_V1.0.2/MSDK/wifi_manager\wifi_vif.c ****                 This include initialization of the all the wifi VIF structure (mac address,
 185:C:/Users/stapi/OneDrive/Desktop/GD32VW553/GD32VW55X_Wifi_BLE_SDK/GD32VW55x_RELEASE_V1.0.2/MSDK/wifi_manager\wifi_vif.c ****                 ip address...) and registration of the interface in the IP stack.
 186:C:/Users/stapi/OneDrive/Desktop/GD32VW553/GD32VW55X_Wifi_BLE_SDK/GD32VW55x_RELEASE_V1.0.2/MSDK/wifi_manager\wifi_vif.c ****     \param[in]  base_mac_addr: Base MAC address(from which all VIF MAC addresses are computed)
 187:C:/Users/stapi/OneDrive/Desktop/GD32VW553/GD32VW55X_Wifi_BLE_SDK/GD32VW55x_RELEASE_V1.0.2/MSDK/wifi_manager\wifi_vif.c ****     \param[out] none
 188:C:/Users/stapi/OneDrive/Desktop/GD32VW553/GD32VW55X_Wifi_BLE_SDK/GD32VW55x_RELEASE_V1.0.2/MSDK/wifi_manager\wifi_vif.c ****     \retval     0 on success and != 0 if error occured.
 189:C:/Users/stapi/OneDrive/Desktop/GD32VW553/GD32VW55X_Wifi_BLE_SDK/GD32VW55x_RELEASE_V1.0.2/MSDK/wifi_manager\wifi_vif.c **** */
 190:C:/Users/stapi/OneDrive/Desktop/GD32VW553/GD32VW55X_Wifi_BLE_SDK/GD32VW55x_RELEASE_V1.0.2/MSDK/wifi_manager\wifi_vif.c **** int wifi_vifs_init(struct mac_addr *base_mac_addr)
 191:C:/Users/stapi/OneDrive/Desktop/GD32VW553/GD32VW55X_Wifi_BLE_SDK/GD32VW55x_RELEASE_V1.0.2/MSDK/wifi_manager\wifi_vif.c **** {
 309              		.loc 1 191 1 is_stmt 1
 310              		.cfi_startproc
 311              	.LVL31:
 192:C:/Users/stapi/OneDrive/Desktop/GD32VW553/GD32VW55X_Wifi_BLE_SDK/GD32VW55x_RELEASE_V1.0.2/MSDK/wifi_manager\wifi_vif.c ****     if (base_mac_addr == NULL)
 312              		.loc 1 192 5
 313              		.loc 1 192 8 is_stmt 0
 314 0000 2DC9     		beq	a0,zero,.L23
 191:C:/Users/stapi/OneDrive/Desktop/GD32VW553/GD32VW55X_Wifi_BLE_SDK/GD32VW55x_RELEASE_V1.0.2/MSDK/wifi_manager\wifi_vif.c ****     if (base_mac_addr == NULL)
 315              		.loc 1 191 1
 316 0002 17030000 		call	t0,__riscv_save_3
 316      E7020300 
 317              		.cfi_offset 18, -16
 318              		.cfi_offset 9, -12
 319              		.cfi_offset 8, -8
 320              		.cfi_offset 1, -4
 321              		.cfi_def_cfa_offset 16
 322 000a 0111     		addi	sp,sp,-32
 323              		.cfi_def_cfa_offset 48
 324              	.LBB2:
 325              	.LBB3:
 193:C:/Users/stapi/OneDrive/Desktop/GD32VW553/GD32VW55X_Wifi_BLE_SDK/GD32VW55x_RELEASE_V1.0.2/MSDK/wifi_manager\wifi_vif.c ****         return -1;
 194:C:/Users/stapi/OneDrive/Desktop/GD32VW553/GD32VW55X_Wifi_BLE_SDK/GD32VW55x_RELEASE_V1.0.2/MSDK/wifi_manager\wifi_vif.c **** 
 195:C:/Users/stapi/OneDrive/Desktop/GD32VW553/GD32VW55X_Wifi_BLE_SDK/GD32VW55x_RELEASE_V1.0.2/MSDK/wifi_manager\wifi_vif.c ****     /* Initialize wifi virtue interfaces */
 196:C:/Users/stapi/OneDrive/Desktop/GD32VW553/GD32VW55X_Wifi_BLE_SDK/GD32VW55x_RELEASE_V1.0.2/MSDK/wifi_manager\wifi_vif.c ****     for (int i = 0; i < CFG_VIF_NUM; i++)
 197:C:/Users/stapi/OneDrive/Desktop/GD32VW553/GD32VW55X_Wifi_BLE_SDK/GD32VW55x_RELEASE_V1.0.2/MSDK/wifi_manager\wifi_vif.c ****     {
 198:C:/Users/stapi/OneDrive/Desktop/GD32VW553/GD32VW55X_Wifi_BLE_SDK/GD32VW55x_RELEASE_V1.0.2/MSDK/wifi_manager\wifi_vif.c ****         struct wifi_ip_addr_cfg ip_cfg;
 199:C:/Users/stapi/OneDrive/Desktop/GD32VW553/GD32VW55X_Wifi_BLE_SDK/GD32VW55x_RELEASE_V1.0.2/MSDK/wifi_manager\wifi_vif.c **** 
 200:C:/Users/stapi/OneDrive/Desktop/GD32VW553/GD32VW55X_Wifi_BLE_SDK/GD32VW55x_RELEASE_V1.0.2/MSDK/wifi_manager\wifi_vif.c ****         wifi_vif_init(i, base_mac_addr);
 326              		.loc 1 200 9
 327 000c AA85     		mv	a1,a0
 328 000e 2A84     		mv	s0,a0
 329              	.LVL32:
 330              	.LBE3:
 196:C:/Users/stapi/OneDrive/Desktop/GD32VW553/GD32VW55X_Wifi_BLE_SDK/GD32VW55x_RELEASE_V1.0.2/MSDK/wifi_manager\wifi_vif.c ****     {
 331              		.loc 1 196 21 is_stmt 1
 332              	.LBB4:
 198:C:/Users/stapi/OneDrive/Desktop/GD32VW553/GD32VW55X_Wifi_BLE_SDK/GD32VW55x_RELEASE_V1.0.2/MSDK/wifi_manager\wifi_vif.c **** 
 333              		.loc 1 198 9
 334              		.loc 1 200 9
 335 0010 0145     		li	a0,0
 336              	.LVL33:
 337 0012 97000000 		call	wifi_vif_init
 337      E7800000 
 338              	.LVL34:
 201:C:/Users/stapi/OneDrive/Desktop/GD32VW553/GD32VW55X_Wifi_BLE_SDK/GD32VW55x_RELEASE_V1.0.2/MSDK/wifi_manager\wifi_vif.c **** 
 202:C:/Users/stapi/OneDrive/Desktop/GD32VW553/GD32VW55X_Wifi_BLE_SDK/GD32VW55x_RELEASE_V1.0.2/MSDK/wifi_manager\wifi_vif.c ****         ip_cfg.mode = IP_ADDR_STATIC_IPV4;
 339              		.loc 1 202 9
 203:C:/Users/stapi/OneDrive/Desktop/GD32VW553/GD32VW55X_Wifi_BLE_SDK/GD32VW55x_RELEASE_V1.0.2/MSDK/wifi_manager\wifi_vif.c ****         ip_cfg.ipv4.addr = 0;
 204:C:/Users/stapi/OneDrive/Desktop/GD32VW553/GD32VW55X_Wifi_BLE_SDK/GD32VW55x_RELEASE_V1.0.2/MSDK/wifi_manager\wifi_vif.c ****         ip_cfg.ipv4.mask =  0x00FFFFFF;
 340              		.loc 1 204 26 is_stmt 0
 341 001a B7040001 		li	s1,16777216
 202:C:/Users/stapi/OneDrive/Desktop/GD32VW553/GD32VW55X_Wifi_BLE_SDK/GD32VW55x_RELEASE_V1.0.2/MSDK/wifi_manager\wifi_vif.c ****         ip_cfg.ipv4.addr = 0;
 342              		.loc 1 202 21
 343 001e 0549     		li	s2,1
 344              		.loc 1 204 26
 345 0020 FD14     		addi	s1,s1,-1
 205:C:/Users/stapi/OneDrive/Desktop/GD32VW553/GD32VW55X_Wifi_BLE_SDK/GD32VW55x_RELEASE_V1.0.2/MSDK/wifi_manager\wifi_vif.c ****         ip_cfg.ipv4.gw = 0;
 206:C:/Users/stapi/OneDrive/Desktop/GD32VW553/GD32VW55X_Wifi_BLE_SDK/GD32VW55x_RELEASE_V1.0.2/MSDK/wifi_manager\wifi_vif.c ****         ip_cfg.ipv4.dns = 0;
 207:C:/Users/stapi/OneDrive/Desktop/GD32VW553/GD32VW55X_Wifi_BLE_SDK/GD32VW55x_RELEASE_V1.0.2/MSDK/wifi_manager\wifi_vif.c **** 
 208:C:/Users/stapi/OneDrive/Desktop/GD32VW553/GD32VW55X_Wifi_BLE_SDK/GD32VW55x_RELEASE_V1.0.2/MSDK/wifi_manager\wifi_vif.c ****         if (i == 0)
 209:C:/Users/stapi/OneDrive/Desktop/GD32VW553/GD32VW55X_Wifi_BLE_SDK/GD32VW55x_RELEASE_V1.0.2/MSDK/wifi_manager\wifi_vif.c ****             ip_cfg.default_output = true;
 210:C:/Users/stapi/OneDrive/Desktop/GD32VW553/GD32VW55X_Wifi_BLE_SDK/GD32VW55x_RELEASE_V1.0.2/MSDK/wifi_manager\wifi_vif.c ****         else
 211:C:/Users/stapi/OneDrive/Desktop/GD32VW553/GD32VW55X_Wifi_BLE_SDK/GD32VW55x_RELEASE_V1.0.2/MSDK/wifi_manager\wifi_vif.c ****             ip_cfg.default_output = false;
 212:C:/Users/stapi/OneDrive/Desktop/GD32VW553/GD32VW55X_Wifi_BLE_SDK/GD32VW55x_RELEASE_V1.0.2/MSDK/wifi_manager\wifi_vif.c **** 
 213:C:/Users/stapi/OneDrive/Desktop/GD32VW553/GD32VW55X_Wifi_BLE_SDK/GD32VW55x_RELEASE_V1.0.2/MSDK/wifi_manager\wifi_vif.c ****         if (wifi_set_vif_ip(i, &ip_cfg))
 346              		.loc 1 213 13
 347 0022 2C00     		addi	a1,sp,8
 348 0024 0145     		li	a0,0
 202:C:/Users/stapi/OneDrive/Desktop/GD32VW553/GD32VW55X_Wifi_BLE_SDK/GD32VW55x_RELEASE_V1.0.2/MSDK/wifi_manager\wifi_vif.c ****         ip_cfg.ipv4.addr = 0;
 349              		.loc 1 202 21
 350 0026 4AC4     		sw	s2,8(sp)
 203:C:/Users/stapi/OneDrive/Desktop/GD32VW553/GD32VW55X_Wifi_BLE_SDK/GD32VW55x_RELEASE_V1.0.2/MSDK/wifi_manager\wifi_vif.c ****         ip_cfg.ipv4.mask =  0x00FFFFFF;
 351              		.loc 1 203 9 is_stmt 1
 203:C:/Users/stapi/OneDrive/Desktop/GD32VW553/GD32VW55X_Wifi_BLE_SDK/GD32VW55x_RELEASE_V1.0.2/MSDK/wifi_manager\wifi_vif.c ****         ip_cfg.ipv4.mask =  0x00FFFFFF;
 352              		.loc 1 203 26 is_stmt 0
 353 0028 02C8     		sw	zero,16(sp)
 204:C:/Users/stapi/OneDrive/Desktop/GD32VW553/GD32VW55X_Wifi_BLE_SDK/GD32VW55x_RELEASE_V1.0.2/MSDK/wifi_manager\wifi_vif.c ****         ip_cfg.ipv4.gw = 0;
 354              		.loc 1 204 9 is_stmt 1
 204:C:/Users/stapi/OneDrive/Desktop/GD32VW553/GD32VW55X_Wifi_BLE_SDK/GD32VW55x_RELEASE_V1.0.2/MSDK/wifi_manager\wifi_vif.c ****         ip_cfg.ipv4.gw = 0;
 355              		.loc 1 204 26 is_stmt 0
 356 002a 26CA     		sw	s1,20(sp)
 205:C:/Users/stapi/OneDrive/Desktop/GD32VW553/GD32VW55X_Wifi_BLE_SDK/GD32VW55x_RELEASE_V1.0.2/MSDK/wifi_manager\wifi_vif.c ****         ip_cfg.ipv4.gw = 0;
 357              		.loc 1 205 9 is_stmt 1
 205:C:/Users/stapi/OneDrive/Desktop/GD32VW553/GD32VW55X_Wifi_BLE_SDK/GD32VW55x_RELEASE_V1.0.2/MSDK/wifi_manager\wifi_vif.c ****         ip_cfg.ipv4.gw = 0;
 358              		.loc 1 205 24 is_stmt 0
 359 002c 02CC     		sw	zero,24(sp)
 206:C:/Users/stapi/OneDrive/Desktop/GD32VW553/GD32VW55X_Wifi_BLE_SDK/GD32VW55x_RELEASE_V1.0.2/MSDK/wifi_manager\wifi_vif.c **** 
 360              		.loc 1 206 9 is_stmt 1
 206:C:/Users/stapi/OneDrive/Desktop/GD32VW553/GD32VW55X_Wifi_BLE_SDK/GD32VW55x_RELEASE_V1.0.2/MSDK/wifi_manager\wifi_vif.c **** 
 361              		.loc 1 206 25 is_stmt 0
 362 002e 02CE     		sw	zero,28(sp)
 208:C:/Users/stapi/OneDrive/Desktop/GD32VW553/GD32VW55X_Wifi_BLE_SDK/GD32VW55x_RELEASE_V1.0.2/MSDK/wifi_manager\wifi_vif.c ****             ip_cfg.default_output = true;
 363              		.loc 1 208 9 is_stmt 1
 209:C:/Users/stapi/OneDrive/Desktop/GD32VW553/GD32VW55X_Wifi_BLE_SDK/GD32VW55x_RELEASE_V1.0.2/MSDK/wifi_manager\wifi_vif.c ****         else
 364              		.loc 1 209 13
 209:C:/Users/stapi/OneDrive/Desktop/GD32VW553/GD32VW55X_Wifi_BLE_SDK/GD32VW55x_RELEASE_V1.0.2/MSDK/wifi_manager\wifi_vif.c ****         else
 365              		.loc 1 209 35 is_stmt 0
 366 0030 23062101 		sb	s2,12(sp)
 367              		.loc 1 213 9 is_stmt 1
 368              		.loc 1 213 13 is_stmt 0
 369 0034 97000000 		call	wifi_set_vif_ip
 369      E7800000 
 370              	.LVL35:
 371              		.loc 1 213 12
 372 003c 0DE5     		bne	a0,zero,.L22
 373              	.LBE4:
 196:C:/Users/stapi/OneDrive/Desktop/GD32VW553/GD32VW55X_Wifi_BLE_SDK/GD32VW55x_RELEASE_V1.0.2/MSDK/wifi_manager\wifi_vif.c ****     {
 374              		.loc 1 196 38 is_stmt 1
 375              	.LVL36:
 196:C:/Users/stapi/OneDrive/Desktop/GD32VW553/GD32VW55X_Wifi_BLE_SDK/GD32VW55x_RELEASE_V1.0.2/MSDK/wifi_manager\wifi_vif.c ****     {
 376              		.loc 1 196 21
 377              	.LBB5:
 198:C:/Users/stapi/OneDrive/Desktop/GD32VW553/GD32VW55X_Wifi_BLE_SDK/GD32VW55x_RELEASE_V1.0.2/MSDK/wifi_manager\wifi_vif.c **** 
 378              		.loc 1 198 9
 200:C:/Users/stapi/OneDrive/Desktop/GD32VW553/GD32VW55X_Wifi_BLE_SDK/GD32VW55x_RELEASE_V1.0.2/MSDK/wifi_manager\wifi_vif.c **** 
 379              		.loc 1 200 9
 380 003e A285     		mv	a1,s0
 381 0040 0545     		li	a0,1
 382 0042 97000000 		call	wifi_vif_init
 382      E7800000 
 383              	.LVL37:
 202:C:/Users/stapi/OneDrive/Desktop/GD32VW553/GD32VW55X_Wifi_BLE_SDK/GD32VW55x_RELEASE_V1.0.2/MSDK/wifi_manager\wifi_vif.c ****         ip_cfg.ipv4.addr = 0;
 384              		.loc 1 202 9
 385              		.loc 1 213 13 is_stmt 0
 386 004a 2C00     		addi	a1,sp,8
 387 004c 0545     		li	a0,1
 202:C:/Users/stapi/OneDrive/Desktop/GD32VW553/GD32VW55X_Wifi_BLE_SDK/GD32VW55x_RELEASE_V1.0.2/MSDK/wifi_manager\wifi_vif.c ****         ip_cfg.ipv4.addr = 0;
 388              		.loc 1 202 21
 389 004e 4AC4     		sw	s2,8(sp)
 203:C:/Users/stapi/OneDrive/Desktop/GD32VW553/GD32VW55X_Wifi_BLE_SDK/GD32VW55x_RELEASE_V1.0.2/MSDK/wifi_manager\wifi_vif.c ****         ip_cfg.ipv4.mask =  0x00FFFFFF;
 390              		.loc 1 203 9 is_stmt 1
 203:C:/Users/stapi/OneDrive/Desktop/GD32VW553/GD32VW55X_Wifi_BLE_SDK/GD32VW55x_RELEASE_V1.0.2/MSDK/wifi_manager\wifi_vif.c ****         ip_cfg.ipv4.mask =  0x00FFFFFF;
 391              		.loc 1 203 26 is_stmt 0
 392 0050 02C8     		sw	zero,16(sp)
 204:C:/Users/stapi/OneDrive/Desktop/GD32VW553/GD32VW55X_Wifi_BLE_SDK/GD32VW55x_RELEASE_V1.0.2/MSDK/wifi_manager\wifi_vif.c ****         ip_cfg.ipv4.gw = 0;
 393              		.loc 1 204 9 is_stmt 1
 204:C:/Users/stapi/OneDrive/Desktop/GD32VW553/GD32VW55X_Wifi_BLE_SDK/GD32VW55x_RELEASE_V1.0.2/MSDK/wifi_manager\wifi_vif.c ****         ip_cfg.ipv4.gw = 0;
 394              		.loc 1 204 26 is_stmt 0
 395 0052 26CA     		sw	s1,20(sp)
 205:C:/Users/stapi/OneDrive/Desktop/GD32VW553/GD32VW55X_Wifi_BLE_SDK/GD32VW55x_RELEASE_V1.0.2/MSDK/wifi_manager\wifi_vif.c ****         ip_cfg.ipv4.dns = 0;
 396              		.loc 1 205 9 is_stmt 1
 205:C:/Users/stapi/OneDrive/Desktop/GD32VW553/GD32VW55X_Wifi_BLE_SDK/GD32VW55x_RELEASE_V1.0.2/MSDK/wifi_manager\wifi_vif.c ****         ip_cfg.ipv4.dns = 0;
 397              		.loc 1 205 24 is_stmt 0
 398 0054 02CC     		sw	zero,24(sp)
 206:C:/Users/stapi/OneDrive/Desktop/GD32VW553/GD32VW55X_Wifi_BLE_SDK/GD32VW55x_RELEASE_V1.0.2/MSDK/wifi_manager\wifi_vif.c **** 
 399              		.loc 1 206 9 is_stmt 1
 206:C:/Users/stapi/OneDrive/Desktop/GD32VW553/GD32VW55X_Wifi_BLE_SDK/GD32VW55x_RELEASE_V1.0.2/MSDK/wifi_manager\wifi_vif.c **** 
 400              		.loc 1 206 25 is_stmt 0
 401 0056 02CE     		sw	zero,28(sp)
 208:C:/Users/stapi/OneDrive/Desktop/GD32VW553/GD32VW55X_Wifi_BLE_SDK/GD32VW55x_RELEASE_V1.0.2/MSDK/wifi_manager\wifi_vif.c ****             ip_cfg.default_output = true;
 402              		.loc 1 208 9 is_stmt 1
 211:C:/Users/stapi/OneDrive/Desktop/GD32VW553/GD32VW55X_Wifi_BLE_SDK/GD32VW55x_RELEASE_V1.0.2/MSDK/wifi_manager\wifi_vif.c **** 
 403              		.loc 1 211 13
 211:C:/Users/stapi/OneDrive/Desktop/GD32VW553/GD32VW55X_Wifi_BLE_SDK/GD32VW55x_RELEASE_V1.0.2/MSDK/wifi_manager\wifi_vif.c **** 
 404              		.loc 1 211 35 is_stmt 0
 405 0058 23060100 		sb	zero,12(sp)
 406              		.loc 1 213 9 is_stmt 1
 407              		.loc 1 213 13 is_stmt 0
 408 005c 97000000 		call	wifi_set_vif_ip
 408      E7800000 
 409              	.LVL38:
 410              		.loc 1 213 12
 411 0064 11C1     		beq	a0,zero,.L20
 412              	.LVL39:
 413              	.L22:
 214:C:/Users/stapi/OneDrive/Desktop/GD32VW553/GD32VW55X_Wifi_BLE_SDK/GD32VW55x_RELEASE_V1.0.2/MSDK/wifi_manager\wifi_vif.c ****             return -2;
 414              		.loc 1 214 13 is_stmt 1
 415              		.loc 1 214 20 is_stmt 0
 416 0066 7955     		li	a0,-2
 417              	.L20:
 418              	.LBE5:
 419              	.LBE2:
 215:C:/Users/stapi/OneDrive/Desktop/GD32VW553/GD32VW55X_Wifi_BLE_SDK/GD32VW55x_RELEASE_V1.0.2/MSDK/wifi_manager\wifi_vif.c ****     }
 216:C:/Users/stapi/OneDrive/Desktop/GD32VW553/GD32VW55X_Wifi_BLE_SDK/GD32VW55x_RELEASE_V1.0.2/MSDK/wifi_manager\wifi_vif.c ****     return 0;
 217:C:/Users/stapi/OneDrive/Desktop/GD32VW553/GD32VW55X_Wifi_BLE_SDK/GD32VW55x_RELEASE_V1.0.2/MSDK/wifi_manager\wifi_vif.c **** }
 420              		.loc 1 217 1
 421 0068 0561     		addi	sp,sp,32
 422              		.cfi_def_cfa_offset 0
 423 006a 17030000 		tail	__riscv_restore_3
 423      67000300 
 424              		.cfi_restore 18
 425              		.cfi_restore 9
 426              		.cfi_restore 8
 427              		.cfi_restore 1
 428              		.cfi_def_cfa_offset -16
 429              	.LVL40:
 430              	.L23:
 431              		.cfi_def_cfa_offset 0
 193:C:/Users/stapi/OneDrive/Desktop/GD32VW553/GD32VW55X_Wifi_BLE_SDK/GD32VW55x_RELEASE_V1.0.2/MSDK/wifi_manager\wifi_vif.c **** 
 432              		.loc 1 193 16
 433 0072 7D55     		li	a0,-1
 434              	.LVL41:
 435              		.loc 1 217 1
 436 0074 8280     		ret
 437              		.cfi_endproc
 438              	.LFE22:
 440              		.section	.text.wifi_vifs_deinit,"ax",@progbits
 441              		.align	1
 442              		.globl	wifi_vifs_deinit
 444              	wifi_vifs_deinit:
 445              	.LFB23:
 218:C:/Users/stapi/OneDrive/Desktop/GD32VW553/GD32VW55X_Wifi_BLE_SDK/GD32VW55x_RELEASE_V1.0.2/MSDK/wifi_manager\wifi_vif.c **** 
 219:C:/Users/stapi/OneDrive/Desktop/GD32VW553/GD32VW55X_Wifi_BLE_SDK/GD32VW55x_RELEASE_V1.0.2/MSDK/wifi_manager\wifi_vif.c **** /*!
 220:C:/Users/stapi/OneDrive/Desktop/GD32VW553/GD32VW55X_Wifi_BLE_SDK/GD32VW55x_RELEASE_V1.0.2/MSDK/wifi_manager\wifi_vif.c ****     \brief      Reset all wifi vifs
 221:C:/Users/stapi/OneDrive/Desktop/GD32VW553/GD32VW55X_Wifi_BLE_SDK/GD32VW55x_RELEASE_V1.0.2/MSDK/wifi_manager\wifi_vif.c ****     \param[in]  none
 222:C:/Users/stapi/OneDrive/Desktop/GD32VW553/GD32VW55X_Wifi_BLE_SDK/GD32VW55x_RELEASE_V1.0.2/MSDK/wifi_manager\wifi_vif.c ****     \param[out] none
 223:C:/Users/stapi/OneDrive/Desktop/GD32VW553/GD32VW55X_Wifi_BLE_SDK/GD32VW55x_RELEASE_V1.0.2/MSDK/wifi_manager\wifi_vif.c ****     \retval     none
 224:C:/Users/stapi/OneDrive/Desktop/GD32VW553/GD32VW55X_Wifi_BLE_SDK/GD32VW55x_RELEASE_V1.0.2/MSDK/wifi_manager\wifi_vif.c **** */
 225:C:/Users/stapi/OneDrive/Desktop/GD32VW553/GD32VW55X_Wifi_BLE_SDK/GD32VW55x_RELEASE_V1.0.2/MSDK/wifi_manager\wifi_vif.c **** void wifi_vifs_deinit(void)
 226:C:/Users/stapi/OneDrive/Desktop/GD32VW553/GD32VW55X_Wifi_BLE_SDK/GD32VW55x_RELEASE_V1.0.2/MSDK/wifi_manager\wifi_vif.c **** {
 446              		.loc 1 226 1 is_stmt 1
 447              		.cfi_startproc
 448 0000 17030000 		call	t0,__riscv_save_3
 448      E7020300 
 449              		.cfi_offset 18, -16
 450              		.cfi_offset 9, -12
 451              		.cfi_offset 8, -8
 452              		.cfi_offset 1, -4
 453              		.cfi_def_cfa_offset 16
 227:C:/Users/stapi/OneDrive/Desktop/GD32VW553/GD32VW55X_Wifi_BLE_SDK/GD32VW55x_RELEASE_V1.0.2/MSDK/wifi_manager\wifi_vif.c ****     struct wifi_vif_tag *wvif;
 454              		.loc 1 227 5
 228:C:/Users/stapi/OneDrive/Desktop/GD32VW553/GD32VW55X_Wifi_BLE_SDK/GD32VW55x_RELEASE_V1.0.2/MSDK/wifi_manager\wifi_vif.c ****     struct wifi_ip_addr_cfg ip_cfg;
 455              		.loc 1 228 5
 229:C:/Users/stapi/OneDrive/Desktop/GD32VW553/GD32VW55X_Wifi_BLE_SDK/GD32VW55x_RELEASE_V1.0.2/MSDK/wifi_manager\wifi_vif.c **** 
 230:C:/Users/stapi/OneDrive/Desktop/GD32VW553/GD32VW55X_Wifi_BLE_SDK/GD32VW55x_RELEASE_V1.0.2/MSDK/wifi_manager\wifi_vif.c ****     /* deinitialize wifi virtue interfaces */
 231:C:/Users/stapi/OneDrive/Desktop/GD32VW553/GD32VW55X_Wifi_BLE_SDK/GD32VW55x_RELEASE_V1.0.2/MSDK/wifi_manager\wifi_vif.c ****     for (int i = 0; i < CFG_VIF_NUM; i++)
 456              		.loc 1 231 5
 457              	.LBB6:
 458              		.loc 1 231 10
 459              	.LVL42:
 460              		.loc 1 231 21
 232:C:/Users/stapi/OneDrive/Desktop/GD32VW553/GD32VW55X_Wifi_BLE_SDK/GD32VW55x_RELEASE_V1.0.2/MSDK/wifi_manager\wifi_vif.c ****     {
 233:C:/Users/stapi/OneDrive/Desktop/GD32VW553/GD32VW55X_Wifi_BLE_SDK/GD32VW55x_RELEASE_V1.0.2/MSDK/wifi_manager\wifi_vif.c ****         wvif =  &wifi_vif_tab[i];
 461              		.loc 1 233 9
 234:C:/Users/stapi/OneDrive/Desktop/GD32VW553/GD32VW55X_Wifi_BLE_SDK/GD32VW55x_RELEASE_V1.0.2/MSDK/wifi_manager\wifi_vif.c **** 
 235:C:/Users/stapi/OneDrive/Desktop/GD32VW553/GD32VW55X_Wifi_BLE_SDK/GD32VW55x_RELEASE_V1.0.2/MSDK/wifi_manager\wifi_vif.c ****         ip_cfg.mode = IP_ADDR_NONE;
 462              		.loc 1 235 9
 463              	.LBE6:
 226:C:/Users/stapi/OneDrive/Desktop/GD32VW553/GD32VW55X_Wifi_BLE_SDK/GD32VW55x_RELEASE_V1.0.2/MSDK/wifi_manager\wifi_vif.c ****     struct wifi_vif_tag *wvif;
 464              		.loc 1 226 1 is_stmt 0
 465 0008 0111     		addi	sp,sp,-32
 466              		.cfi_def_cfa_offset 48
 467              	.LBB7:
 236:C:/Users/stapi/OneDrive/Desktop/GD32VW553/GD32VW55X_Wifi_BLE_SDK/GD32VW55x_RELEASE_V1.0.2/MSDK/wifi_manager\wifi_vif.c **** #ifdef CONFIG_IPV6_SUPPORT
 237:C:/Users/stapi/OneDrive/Desktop/GD32VW553/GD32VW55X_Wifi_BLE_SDK/GD32VW55x_RELEASE_V1.0.2/MSDK/wifi_manager\wifi_vif.c ****         ip_cfg.ip6_mode = IP6_ADDR_NONE;
 238:C:/Users/stapi/OneDrive/Desktop/GD32VW553/GD32VW55X_Wifi_BLE_SDK/GD32VW55x_RELEASE_V1.0.2/MSDK/wifi_manager\wifi_vif.c **** #endif
 239:C:/Users/stapi/OneDrive/Desktop/GD32VW553/GD32VW55X_Wifi_BLE_SDK/GD32VW55x_RELEASE_V1.0.2/MSDK/wifi_manager\wifi_vif.c ****         wifi_set_vif_ip(i, &ip_cfg);
 468              		.loc 1 239 9
 469 000a 2C00     		addi	a1,sp,8
 470 000c 0145     		li	a0,0
 240:C:/Users/stapi/OneDrive/Desktop/GD32VW553/GD32VW55X_Wifi_BLE_SDK/GD32VW55x_RELEASE_V1.0.2/MSDK/wifi_manager\wifi_vif.c **** 
 241:C:/Users/stapi/OneDrive/Desktop/GD32VW553/GD32VW55X_Wifi_BLE_SDK/GD32VW55x_RELEASE_V1.0.2/MSDK/wifi_manager\wifi_vif.c ****         net_if_remove(&wvif->net_if);
 471              		.loc 1 241 9
 472 000e B7040000 		lui	s1,%hi(.LANCHOR0)
 235:C:/Users/stapi/OneDrive/Desktop/GD32VW553/GD32VW55X_Wifi_BLE_SDK/GD32VW55x_RELEASE_V1.0.2/MSDK/wifi_manager\wifi_vif.c **** #ifdef CONFIG_IPV6_SUPPORT
 473              		.loc 1 235 21
 474 0012 02C4     		sw	zero,8(sp)
 239:C:/Users/stapi/OneDrive/Desktop/GD32VW553/GD32VW55X_Wifi_BLE_SDK/GD32VW55x_RELEASE_V1.0.2/MSDK/wifi_manager\wifi_vif.c **** 
 475              		.loc 1 239 9 is_stmt 1
 476 0014 97000000 		call	wifi_set_vif_ip
 476      E7800000 
 477              	.LVL43:
 478              		.loc 1 241 9
 479 001c 13850400 		addi	a0,s1,%lo(.LANCHOR0)
 480 0020 97000000 		call	net_if_remove
 480      E7800000 
 481              	.LVL44:
 242:C:/Users/stapi/OneDrive/Desktop/GD32VW553/GD32VW55X_Wifi_BLE_SDK/GD32VW55x_RELEASE_V1.0.2/MSDK/wifi_manager\wifi_vif.c **** 
 243:C:/Users/stapi/OneDrive/Desktop/GD32VW553/GD32VW55X_Wifi_BLE_SDK/GD32VW55x_RELEASE_V1.0.2/MSDK/wifi_manager\wifi_vif.c ****         sys_memset(wvif, 0, sizeof(struct wifi_vif_tag));
 482              		.loc 1 243 9
 483 0028 1306800F 		li	a2,248
 484 002c 8145     		li	a1,0
 485 002e 13850400 		addi	a0,s1,%lo(.LANCHOR0)
 486 0032 97000000 		call	sys_memset
 486      E7800000 
 487              	.LVL45:
 244:C:/Users/stapi/OneDrive/Desktop/GD32VW553/GD32VW55X_Wifi_BLE_SDK/GD32VW55x_RELEASE_V1.0.2/MSDK/wifi_manager\wifi_vif.c **** 
 245:C:/Users/stapi/OneDrive/Desktop/GD32VW553/GD32VW55X_Wifi_BLE_SDK/GD32VW55x_RELEASE_V1.0.2/MSDK/wifi_manager\wifi_vif.c ****         wvif->wvif_type = WVIF_UNKNOWN;
 488              		.loc 1 245 9
 241:C:/Users/stapi/OneDrive/Desktop/GD32VW553/GD32VW55X_Wifi_BLE_SDK/GD32VW55x_RELEASE_V1.0.2/MSDK/wifi_manager\wifi_vif.c **** 
 489              		.loc 1 241 9 is_stmt 0
 490 003a 13840400 		addi	s0,s1,%lo(.LANCHOR0)
 246:C:/Users/stapi/OneDrive/Desktop/GD32VW553/GD32VW55X_Wifi_BLE_SDK/GD32VW55x_RELEASE_V1.0.2/MSDK/wifi_manager\wifi_vif.c ****         wvif->sta.ap_id = 0xFF;
 247:C:/Users/stapi/OneDrive/Desktop/GD32VW553/GD32VW55X_Wifi_BLE_SDK/GD32VW55x_RELEASE_V1.0.2/MSDK/wifi_manager\wifi_vif.c **** 
 248:C:/Users/stapi/OneDrive/Desktop/GD32VW553/GD32VW55X_Wifi_BLE_SDK/GD32VW55x_RELEASE_V1.0.2/MSDK/wifi_manager\wifi_vif.c ****         // clear static ip setting, because IP address configuration of
 249:C:/Users/stapi/OneDrive/Desktop/GD32VW553/GD32VW55X_Wifi_BLE_SDK/GD32VW55x_RELEASE_V1.0.2/MSDK/wifi_manager\wifi_vif.c ****         // TCPIP network interface structure has been cleared.
 250:C:/Users/stapi/OneDrive/Desktop/GD32VW553/GD32VW55X_Wifi_BLE_SDK/GD32VW55x_RELEASE_V1.0.2/MSDK/wifi_manager\wifi_vif.c ****         net_if_use_static_ip(false);
 491              		.loc 1 250 9
 492 003e 0145     		li	a0,0
 246:C:/Users/stapi/OneDrive/Desktop/GD32VW553/GD32VW55X_Wifi_BLE_SDK/GD32VW55x_RELEASE_V1.0.2/MSDK/wifi_manager\wifi_vif.c ****         wvif->sta.ap_id = 0xFF;
 493              		.loc 1 246 25
 494 0040 FD54     		li	s1,-1
 245:C:/Users/stapi/OneDrive/Desktop/GD32VW553/GD32VW55X_Wifi_BLE_SDK/GD32VW55x_RELEASE_V1.0.2/MSDK/wifi_manager\wifi_vif.c ****         wvif->sta.ap_id = 0xFF;
 495              		.loc 1 245 25
 496 0042 232A0404 		sw	zero,84(s0)
 246:C:/Users/stapi/OneDrive/Desktop/GD32VW553/GD32VW55X_Wifi_BLE_SDK/GD32VW55x_RELEASE_V1.0.2/MSDK/wifi_manager\wifi_vif.c ****         wvif->sta.ap_id = 0xFF;
 497              		.loc 1 246 9 is_stmt 1
 246:C:/Users/stapi/OneDrive/Desktop/GD32VW553/GD32VW55X_Wifi_BLE_SDK/GD32VW55x_RELEASE_V1.0.2/MSDK/wifi_manager\wifi_vif.c ****         wvif->sta.ap_id = 0xFF;
 498              		.loc 1 246 25 is_stmt 0
 499 0046 230C940C 		sb	s1,216(s0)
 500              		.loc 1 250 9 is_stmt 1
 501 004a 97000000 		call	net_if_use_static_ip
 501      E7800000 
 502              	.LVL46:
 231:C:/Users/stapi/OneDrive/Desktop/GD32VW553/GD32VW55X_Wifi_BLE_SDK/GD32VW55x_RELEASE_V1.0.2/MSDK/wifi_manager\wifi_vif.c ****     {
 503              		.loc 1 231 38
 231:C:/Users/stapi/OneDrive/Desktop/GD32VW553/GD32VW55X_Wifi_BLE_SDK/GD32VW55x_RELEASE_V1.0.2/MSDK/wifi_manager\wifi_vif.c ****     {
 504              		.loc 1 231 21
 233:C:/Users/stapi/OneDrive/Desktop/GD32VW553/GD32VW55X_Wifi_BLE_SDK/GD32VW55x_RELEASE_V1.0.2/MSDK/wifi_manager\wifi_vif.c **** 
 505              		.loc 1 233 9
 235:C:/Users/stapi/OneDrive/Desktop/GD32VW553/GD32VW55X_Wifi_BLE_SDK/GD32VW55x_RELEASE_V1.0.2/MSDK/wifi_manager\wifi_vif.c **** #ifdef CONFIG_IPV6_SUPPORT
 506              		.loc 1 235 9
 239:C:/Users/stapi/OneDrive/Desktop/GD32VW553/GD32VW55X_Wifi_BLE_SDK/GD32VW55x_RELEASE_V1.0.2/MSDK/wifi_manager\wifi_vif.c **** 
 507              		.loc 1 239 9 is_stmt 0
 508 0052 2C00     		addi	a1,sp,8
 509 0054 0545     		li	a0,1
 241:C:/Users/stapi/OneDrive/Desktop/GD32VW553/GD32VW55X_Wifi_BLE_SDK/GD32VW55x_RELEASE_V1.0.2/MSDK/wifi_manager\wifi_vif.c **** 
 510              		.loc 1 241 9
 511 0056 1309840F 		addi	s2,s0,248
 235:C:/Users/stapi/OneDrive/Desktop/GD32VW553/GD32VW55X_Wifi_BLE_SDK/GD32VW55x_RELEASE_V1.0.2/MSDK/wifi_manager\wifi_vif.c **** #ifdef CONFIG_IPV6_SUPPORT
 512              		.loc 1 235 21
 513 005a 02C4     		sw	zero,8(sp)
 239:C:/Users/stapi/OneDrive/Desktop/GD32VW553/GD32VW55X_Wifi_BLE_SDK/GD32VW55x_RELEASE_V1.0.2/MSDK/wifi_manager\wifi_vif.c **** 
 514              		.loc 1 239 9 is_stmt 1
 515 005c 97000000 		call	wifi_set_vif_ip
 515      E7800000 
 516              	.LVL47:
 241:C:/Users/stapi/OneDrive/Desktop/GD32VW553/GD32VW55X_Wifi_BLE_SDK/GD32VW55x_RELEASE_V1.0.2/MSDK/wifi_manager\wifi_vif.c **** 
 517              		.loc 1 241 9
 518 0064 4A85     		mv	a0,s2
 519 0066 97000000 		call	net_if_remove
 519      E7800000 
 520              	.LVL48:
 243:C:/Users/stapi/OneDrive/Desktop/GD32VW553/GD32VW55X_Wifi_BLE_SDK/GD32VW55x_RELEASE_V1.0.2/MSDK/wifi_manager\wifi_vif.c **** 
 521              		.loc 1 243 9
 522 006e 1306800F 		li	a2,248
 523 0072 8145     		li	a1,0
 524 0074 4A85     		mv	a0,s2
 525 0076 97000000 		call	sys_memset
 525      E7800000 
 526              	.LVL49:
 245:C:/Users/stapi/OneDrive/Desktop/GD32VW553/GD32VW55X_Wifi_BLE_SDK/GD32VW55x_RELEASE_V1.0.2/MSDK/wifi_manager\wifi_vif.c ****         wvif->sta.ap_id = 0xFF;
 527              		.loc 1 245 9
 528              		.loc 1 250 9 is_stmt 0
 529 007e 0145     		li	a0,0
 245:C:/Users/stapi/OneDrive/Desktop/GD32VW553/GD32VW55X_Wifi_BLE_SDK/GD32VW55x_RELEASE_V1.0.2/MSDK/wifi_manager\wifi_vif.c ****         wvif->sta.ap_id = 0xFF;
 530              		.loc 1 245 25
 531 0080 23260414 		sw	zero,332(s0)
 246:C:/Users/stapi/OneDrive/Desktop/GD32VW553/GD32VW55X_Wifi_BLE_SDK/GD32VW55x_RELEASE_V1.0.2/MSDK/wifi_manager\wifi_vif.c **** 
 532              		.loc 1 246 9 is_stmt 1
 246:C:/Users/stapi/OneDrive/Desktop/GD32VW553/GD32VW55X_Wifi_BLE_SDK/GD32VW55x_RELEASE_V1.0.2/MSDK/wifi_manager\wifi_vif.c **** 
 533              		.loc 1 246 25 is_stmt 0
 534 0084 2308941C 		sb	s1,464(s0)
 535              		.loc 1 250 9 is_stmt 1
 536 0088 97000000 		call	net_if_use_static_ip
 536      E7800000 
 537              	.LVL50:
 231:C:/Users/stapi/OneDrive/Desktop/GD32VW553/GD32VW55X_Wifi_BLE_SDK/GD32VW55x_RELEASE_V1.0.2/MSDK/wifi_manager\wifi_vif.c ****     {
 538              		.loc 1 231 38
 231:C:/Users/stapi/OneDrive/Desktop/GD32VW553/GD32VW55X_Wifi_BLE_SDK/GD32VW55x_RELEASE_V1.0.2/MSDK/wifi_manager\wifi_vif.c ****     {
 539              		.loc 1 231 21
 540              	.LBE7:
 251:C:/Users/stapi/OneDrive/Desktop/GD32VW553/GD32VW55X_Wifi_BLE_SDK/GD32VW55x_RELEASE_V1.0.2/MSDK/wifi_manager\wifi_vif.c ****     }
 252:C:/Users/stapi/OneDrive/Desktop/GD32VW553/GD32VW55X_Wifi_BLE_SDK/GD32VW55x_RELEASE_V1.0.2/MSDK/wifi_manager\wifi_vif.c **** }
 541              		.loc 1 252 1 is_stmt 0
 542 0090 0561     		addi	sp,sp,32
 543              		.cfi_def_cfa_offset 0
 544 0092 17030000 		tail	__riscv_restore_3
 544      67000300 
 545              		.cfi_restore 18
 546              		.cfi_restore 9
 547              		.cfi_restore 8
 548              		.cfi_restore 1
 549              		.cfi_def_cfa_offset -16
 550              		.cfi_endproc
 551              	.LFE23:
 553              		.section	.text.wifi_vif_reset,"ax",@progbits
 554              		.align	1
 555              		.globl	wifi_vif_reset
 557              	wifi_vif_reset:
 558              	.LFB24:
 253:C:/Users/stapi/OneDrive/Desktop/GD32VW553/GD32VW55X_Wifi_BLE_SDK/GD32VW55x_RELEASE_V1.0.2/MSDK/wifi_manager\wifi_vif.c **** 
 254:C:/Users/stapi/OneDrive/Desktop/GD32VW553/GD32VW55X_Wifi_BLE_SDK/GD32VW55x_RELEASE_V1.0.2/MSDK/wifi_manager\wifi_vif.c **** /*!
 255:C:/Users/stapi/OneDrive/Desktop/GD32VW553/GD32VW55X_Wifi_BLE_SDK/GD32VW55x_RELEASE_V1.0.2/MSDK/wifi_manager\wifi_vif.c ****     \brief      Reset a wifi vif
 256:C:/Users/stapi/OneDrive/Desktop/GD32VW553/GD32VW55X_Wifi_BLE_SDK/GD32VW55x_RELEASE_V1.0.2/MSDK/wifi_manager\wifi_vif.c ****     \param[in]  vif_idx: index of the wifi vif
 257:C:/Users/stapi/OneDrive/Desktop/GD32VW553/GD32VW55X_Wifi_BLE_SDK/GD32VW55x_RELEASE_V1.0.2/MSDK/wifi_manager\wifi_vif.c ****     \param[in]  type: type of the wifi vif, refer to enum wifi_vif_type
 258:C:/Users/stapi/OneDrive/Desktop/GD32VW553/GD32VW55X_Wifi_BLE_SDK/GD32VW55x_RELEASE_V1.0.2/MSDK/wifi_manager\wifi_vif.c ****     \param[out] none
 259:C:/Users/stapi/OneDrive/Desktop/GD32VW553/GD32VW55X_Wifi_BLE_SDK/GD32VW55x_RELEASE_V1.0.2/MSDK/wifi_manager\wifi_vif.c ****     \retval     none
 260:C:/Users/stapi/OneDrive/Desktop/GD32VW553/GD32VW55X_Wifi_BLE_SDK/GD32VW55x_RELEASE_V1.0.2/MSDK/wifi_manager\wifi_vif.c **** */
 261:C:/Users/stapi/OneDrive/Desktop/GD32VW553/GD32VW55X_Wifi_BLE_SDK/GD32VW55x_RELEASE_V1.0.2/MSDK/wifi_manager\wifi_vif.c **** void wifi_vif_reset(int vif_idx, enum wifi_vif_type type)
 262:C:/Users/stapi/OneDrive/Desktop/GD32VW553/GD32VW55X_Wifi_BLE_SDK/GD32VW55x_RELEASE_V1.0.2/MSDK/wifi_manager\wifi_vif.c **** {
 559              		.loc 1 262 1 is_stmt 1
 560              		.cfi_startproc
 561              	.LVL51:
 562 0000 17030000 		call	t0,__riscv_save_3
 562      E7020300 
 563              		.cfi_offset 18, -16
 564              		.cfi_offset 9, -12
 565              		.cfi_offset 8, -8
 566              		.cfi_offset 1, -4
 567              		.cfi_def_cfa_offset 16
 263:C:/Users/stapi/OneDrive/Desktop/GD32VW553/GD32VW55X_Wifi_BLE_SDK/GD32VW55x_RELEASE_V1.0.2/MSDK/wifi_manager\wifi_vif.c ****     struct wifi_vif_tag *wvif =  &wifi_vif_tab[vif_idx];
 568              		.loc 1 263 5
 569              	.LVL52:
 264:C:/Users/stapi/OneDrive/Desktop/GD32VW553/GD32VW55X_Wifi_BLE_SDK/GD32VW55x_RELEASE_V1.0.2/MSDK/wifi_manager\wifi_vif.c ****     struct wifi_sta *sta = &wvif->sta;
 570              		.loc 1 264 5
 265:C:/Users/stapi/OneDrive/Desktop/GD32VW553/GD32VW55X_Wifi_BLE_SDK/GD32VW55x_RELEASE_V1.0.2/MSDK/wifi_manager\wifi_vif.c ****     struct wifi_ap *ap = &wvif->ap;
 571              		.loc 1 265 5
 266:C:/Users/stapi/OneDrive/Desktop/GD32VW553/GD32VW55X_Wifi_BLE_SDK/GD32VW55x_RELEASE_V1.0.2/MSDK/wifi_manager\wifi_vif.c ****     struct wifi_monitor *monitor = &wvif->monitor;
 572              		.loc 1 266 5
 573              		.loc 1 266 26 is_stmt 0
 574 0008 9307800F 		li	a5,248
 575 000c B307F502 		mul	a5,a0,a5
 576 0010 37040000 		lui	s0,%hi(.LANCHOR0)
 577 0014 13040400 		addi	s0,s0,%lo(.LANCHOR0)
 262:C:/Users/stapi/OneDrive/Desktop/GD32VW553/GD32VW55X_Wifi_BLE_SDK/GD32VW55x_RELEASE_V1.0.2/MSDK/wifi_manager\wifi_vif.c ****     struct wifi_vif_tag *wvif =  &wifi_vif_tab[vif_idx];
 578              		.loc 1 262 1
 579 0018 AA84     		mv	s1,a0
 580              		.loc 1 266 26
 581 001a 13898705 		addi	s2,a5,88
 582 001e 2299     		add	s2,s0,s2
 583              	.LVL53:
 267:C:/Users/stapi/OneDrive/Desktop/GD32VW553/GD32VW55X_Wifi_BLE_SDK/GD32VW55x_RELEASE_V1.0.2/MSDK/wifi_manager\wifi_vif.c **** 
 268:C:/Users/stapi/OneDrive/Desktop/GD32VW553/GD32VW55X_Wifi_BLE_SDK/GD32VW55x_RELEASE_V1.0.2/MSDK/wifi_manager\wifi_vif.c ****     wvif->wvif_type = type;
 584              		.loc 1 268 5 is_stmt 1
 585              		.loc 1 268 21 is_stmt 0
 586 0020 3E94     		add	s0,s0,a5
 587 0022 6CC8     		sw	a1,84(s0)
 269:C:/Users/stapi/OneDrive/Desktop/GD32VW553/GD32VW55X_Wifi_BLE_SDK/GD32VW55x_RELEASE_V1.0.2/MSDK/wifi_manager\wifi_vif.c **** 
 270:C:/Users/stapi/OneDrive/Desktop/GD32VW553/GD32VW55X_Wifi_BLE_SDK/GD32VW55x_RELEASE_V1.0.2/MSDK/wifi_manager\wifi_vif.c ****     if (type == WVIF_STA) {
 588              		.loc 1 270 5 is_stmt 1
 589              		.loc 1 270 8 is_stmt 0
 590 0024 8547     		li	a5,1
 591 0026 639EF502 		bne	a1,a5,.L31
 271:C:/Users/stapi/OneDrive/Desktop/GD32VW553/GD32VW55X_Wifi_BLE_SDK/GD32VW55x_RELEASE_V1.0.2/MSDK/wifi_manager\wifi_vif.c ****         sta->state = WIFI_STA_STATE_IDLE;
 592              		.loc 1 271 9 is_stmt 1
 593              		.loc 1 271 20 is_stmt 0
 594 002a 232A040C 		sw	zero,212(s0)
 272:C:/Users/stapi/OneDrive/Desktop/GD32VW553/GD32VW55X_Wifi_BLE_SDK/GD32VW55x_RELEASE_V1.0.2/MSDK/wifi_manager\wifi_vif.c ****         sys_memset(&sta->cfg, 0, sizeof(sta->cfg));
 595              		.loc 1 272 9 is_stmt 1
 596 002e 1306C007 		li	a2,124
 597 0032 8145     		li	a1,0
 598              	.LVL54:
 599 0034 4A85     		mv	a0,s2
 600              	.LVL55:
 601 0036 97000000 		call	sys_memset
 601      E7800000 
 602              	.LVL56:
 273:C:/Users/stapi/OneDrive/Desktop/GD32VW553/GD32VW55X_Wifi_BLE_SDK/GD32VW55x_RELEASE_V1.0.2/MSDK/wifi_manager\wifi_vif.c ****         sta->ap_id = 0xFF;
 603              		.loc 1 273 9
 604              		.loc 1 273 20 is_stmt 0
 605 003e FD57     		li	a5,-1
 606 0040 230CF40C 		sb	a5,216(s0)
 607              	.L32:
 274:C:/Users/stapi/OneDrive/Desktop/GD32VW553/GD32VW55X_Wifi_BLE_SDK/GD32VW55x_RELEASE_V1.0.2/MSDK/wifi_manager\wifi_vif.c **** #ifndef CONFIG_WPA_SUPPLICANT
 275:C:/Users/stapi/OneDrive/Desktop/GD32VW553/GD32VW55X_Wifi_BLE_SDK/GD32VW55x_RELEASE_V1.0.2/MSDK/wifi_manager\wifi_vif.c ****         sys_memset(&sta->cache, 0, sizeof(sta->cache));
 276:C:/Users/stapi/OneDrive/Desktop/GD32VW553/GD32VW55X_Wifi_BLE_SDK/GD32VW55x_RELEASE_V1.0.2/MSDK/wifi_manager\wifi_vif.c **** #endif
 277:C:/Users/stapi/OneDrive/Desktop/GD32VW553/GD32VW55X_Wifi_BLE_SDK/GD32VW55x_RELEASE_V1.0.2/MSDK/wifi_manager\wifi_vif.c ****     } else if (type == WVIF_AP) {
 278:C:/Users/stapi/OneDrive/Desktop/GD32VW553/GD32VW55X_Wifi_BLE_SDK/GD32VW55x_RELEASE_V1.0.2/MSDK/wifi_manager\wifi_vif.c ****         ap->ap_state = WIFI_AP_STATE_INIT;
 279:C:/Users/stapi/OneDrive/Desktop/GD32VW553/GD32VW55X_Wifi_BLE_SDK/GD32VW55x_RELEASE_V1.0.2/MSDK/wifi_manager\wifi_vif.c ****         sys_memset(&ap->cfg, 0, sizeof(ap->cfg));
 280:C:/Users/stapi/OneDrive/Desktop/GD32VW553/GD32VW55X_Wifi_BLE_SDK/GD32VW55x_RELEASE_V1.0.2/MSDK/wifi_manager\wifi_vif.c ****     } else if (type == WVIF_MONITOR) {
 281:C:/Users/stapi/OneDrive/Desktop/GD32VW553/GD32VW55X_Wifi_BLE_SDK/GD32VW55x_RELEASE_V1.0.2/MSDK/wifi_manager\wifi_vif.c ****         macif_rx_set_monitor_cb(NULL, NULL);
 282:C:/Users/stapi/OneDrive/Desktop/GD32VW553/GD32VW55X_Wifi_BLE_SDK/GD32VW55x_RELEASE_V1.0.2/MSDK/wifi_manager\wifi_vif.c ****         sys_memset(monitor, 0, sizeof(*monitor));
 283:C:/Users/stapi/OneDrive/Desktop/GD32VW553/GD32VW55X_Wifi_BLE_SDK/GD32VW55x_RELEASE_V1.0.2/MSDK/wifi_manager\wifi_vif.c ****     }
 284:C:/Users/stapi/OneDrive/Desktop/GD32VW553/GD32VW55X_Wifi_BLE_SDK/GD32VW55x_RELEASE_V1.0.2/MSDK/wifi_manager\wifi_vif.c **** 
 285:C:/Users/stapi/OneDrive/Desktop/GD32VW553/GD32VW55X_Wifi_BLE_SDK/GD32VW55x_RELEASE_V1.0.2/MSDK/wifi_manager\wifi_vif.c **** #ifdef CONFIG_WPA_SUPPLICANT
 286:C:/Users/stapi/OneDrive/Desktop/GD32VW553/GD32VW55X_Wifi_BLE_SDK/GD32VW55x_RELEASE_V1.0.2/MSDK/wifi_manager\wifi_vif.c ****     wifi_wpa_link_monitor(vif_idx, 0);
 608              		.loc 1 286 5 is_stmt 1
 609 0044 8145     		li	a1,0
 610 0046 2685     		mv	a0,s1
 611 0048 97000000 		call	wifi_wpa_link_monitor
 611      E7800000 
 612              	.LVL57:
 287:C:/Users/stapi/OneDrive/Desktop/GD32VW553/GD32VW55X_Wifi_BLE_SDK/GD32VW55x_RELEASE_V1.0.2/MSDK/wifi_manager\wifi_vif.c ****     wifi_wpa_remove_vif(vif_idx);
 613              		.loc 1 287 5
 614 0050 2685     		mv	a0,s1
 615 0052 97000000 		call	wifi_wpa_remove_vif
 615      E7800000 
 616              	.LVL58:
 288:C:/Users/stapi/OneDrive/Desktop/GD32VW553/GD32VW55X_Wifi_BLE_SDK/GD32VW55x_RELEASE_V1.0.2/MSDK/wifi_manager\wifi_vif.c **** #endif
 289:C:/Users/stapi/OneDrive/Desktop/GD32VW553/GD32VW55X_Wifi_BLE_SDK/GD32VW55x_RELEASE_V1.0.2/MSDK/wifi_manager\wifi_vif.c **** }
 617              		.loc 1 289 1 is_stmt 0
 618 005a 17030000 		tail	__riscv_restore_3
 618      67000300 
 619              		.cfi_remember_state
 620              		.cfi_restore 18
 621              		.cfi_restore 9
 622              		.cfi_restore 8
 623              		.cfi_restore 1
 624              		.cfi_def_cfa_offset 0
 625              	.LVL59:
 626              	.L31:
 627              		.cfi_restore_state
 277:C:/Users/stapi/OneDrive/Desktop/GD32VW553/GD32VW55X_Wifi_BLE_SDK/GD32VW55x_RELEASE_V1.0.2/MSDK/wifi_manager\wifi_vif.c ****         ap->ap_state = WIFI_AP_STATE_INIT;
 628              		.loc 1 277 12 is_stmt 1
 277:C:/Users/stapi/OneDrive/Desktop/GD32VW553/GD32VW55X_Wifi_BLE_SDK/GD32VW55x_RELEASE_V1.0.2/MSDK/wifi_manager\wifi_vif.c ****         ap->ap_state = WIFI_AP_STATE_INIT;
 629              		.loc 1 277 15 is_stmt 0
 630 0062 8947     		li	a5,2
 631 0064 639DF500 		bne	a1,a5,.L33
 278:C:/Users/stapi/OneDrive/Desktop/GD32VW553/GD32VW55X_Wifi_BLE_SDK/GD32VW55x_RELEASE_V1.0.2/MSDK/wifi_manager\wifi_vif.c ****         sys_memset(&ap->cfg, 0, sizeof(ap->cfg));
 632              		.loc 1 278 9 is_stmt 1
 278:C:/Users/stapi/OneDrive/Desktop/GD32VW553/GD32VW55X_Wifi_BLE_SDK/GD32VW55x_RELEASE_V1.0.2/MSDK/wifi_manager\wifi_vif.c ****         sys_memset(&ap->cfg, 0, sizeof(ap->cfg));
 633              		.loc 1 278 22 is_stmt 0
 634 0068 2328040E 		sw	zero,240(s0)
 279:C:/Users/stapi/OneDrive/Desktop/GD32VW553/GD32VW55X_Wifi_BLE_SDK/GD32VW55x_RELEASE_V1.0.2/MSDK/wifi_manager\wifi_vif.c ****     } else if (type == WVIF_MONITOR) {
 635              		.loc 1 279 9 is_stmt 1
 636 006c 13068009 		li	a2,152
 637              	.LVL60:
 638              	.L35:
 282:C:/Users/stapi/OneDrive/Desktop/GD32VW553/GD32VW55X_Wifi_BLE_SDK/GD32VW55x_RELEASE_V1.0.2/MSDK/wifi_manager\wifi_vif.c ****     }
 639              		.loc 1 282 9 is_stmt 0
 640 0070 8145     		li	a1,0
 641 0072 4A85     		mv	a0,s2
 642 0074 97000000 		call	sys_memset
 642      E7800000 
 643              	.LVL61:
 644 007c E1B7     		j	.L32
 645              	.LVL62:
 646              	.L33:
 280:C:/Users/stapi/OneDrive/Desktop/GD32VW553/GD32VW55X_Wifi_BLE_SDK/GD32VW55x_RELEASE_V1.0.2/MSDK/wifi_manager\wifi_vif.c ****         macif_rx_set_monitor_cb(NULL, NULL);
 647              		.loc 1 280 12 is_stmt 1
 280:C:/Users/stapi/OneDrive/Desktop/GD32VW553/GD32VW55X_Wifi_BLE_SDK/GD32VW55x_RELEASE_V1.0.2/MSDK/wifi_manager\wifi_vif.c ****         macif_rx_set_monitor_cb(NULL, NULL);
 648              		.loc 1 280 15 is_stmt 0
 649 007e 8D47     		li	a5,3
 650 0080 E392F5FC 		bne	a1,a5,.L32
 281:C:/Users/stapi/OneDrive/Desktop/GD32VW553/GD32VW55X_Wifi_BLE_SDK/GD32VW55x_RELEASE_V1.0.2/MSDK/wifi_manager\wifi_vif.c ****         sys_memset(monitor, 0, sizeof(*monitor));
 651              		.loc 1 281 9 is_stmt 1
 652 0084 8145     		li	a1,0
 653              	.LVL63:
 654 0086 0145     		li	a0,0
 655 0088 97000000 		call	macif_rx_set_monitor_cb
 655      E7800000 
 656              	.LVL64:
 282:C:/Users/stapi/OneDrive/Desktop/GD32VW553/GD32VW55X_Wifi_BLE_SDK/GD32VW55x_RELEASE_V1.0.2/MSDK/wifi_manager\wifi_vif.c ****     }
 657              		.loc 1 282 9
 658 0090 3146     		li	a2,12
 659 0092 F9BF     		j	.L35
 660              		.cfi_endproc
 661              	.LFE24:
 663              		.section	.text.wifi_vif_mac_addr_get,"ax",@progbits
 664              		.align	1
 665              		.globl	wifi_vif_mac_addr_get
 667              	wifi_vif_mac_addr_get:
 668              	.LFB25:
 290:C:/Users/stapi/OneDrive/Desktop/GD32VW553/GD32VW55X_Wifi_BLE_SDK/GD32VW55x_RELEASE_V1.0.2/MSDK/wifi_manager\wifi_vif.c **** 
 291:C:/Users/stapi/OneDrive/Desktop/GD32VW553/GD32VW55X_Wifi_BLE_SDK/GD32VW55x_RELEASE_V1.0.2/MSDK/wifi_manager\wifi_vif.c **** /*!
 292:C:/Users/stapi/OneDrive/Desktop/GD32VW553/GD32VW55X_Wifi_BLE_SDK/GD32VW55x_RELEASE_V1.0.2/MSDK/wifi_manager\wifi_vif.c ****     \brief      Get mac address of the wifi vif
 293:C:/Users/stapi/OneDrive/Desktop/GD32VW553/GD32VW55X_Wifi_BLE_SDK/GD32VW55x_RELEASE_V1.0.2/MSDK/wifi_manager\wifi_vif.c ****     \param[in]  vif_idx: index of the wifi vif
 294:C:/Users/stapi/OneDrive/Desktop/GD32VW553/GD32VW55X_Wifi_BLE_SDK/GD32VW55x_RELEASE_V1.0.2/MSDK/wifi_manager\wifi_vif.c ****     \param[out] none
 295:C:/Users/stapi/OneDrive/Desktop/GD32VW553/GD32VW55X_Wifi_BLE_SDK/GD32VW55x_RELEASE_V1.0.2/MSDK/wifi_manager\wifi_vif.c ****     \retval     Pointer to the mac address on success and NULL if error occured.
 296:C:/Users/stapi/OneDrive/Desktop/GD32VW553/GD32VW55X_Wifi_BLE_SDK/GD32VW55x_RELEASE_V1.0.2/MSDK/wifi_manager\wifi_vif.c **** */
 297:C:/Users/stapi/OneDrive/Desktop/GD32VW553/GD32VW55X_Wifi_BLE_SDK/GD32VW55x_RELEASE_V1.0.2/MSDK/wifi_manager\wifi_vif.c **** uint8_t *wifi_vif_mac_addr_get(int vif_idx)
 298:C:/Users/stapi/OneDrive/Desktop/GD32VW553/GD32VW55X_Wifi_BLE_SDK/GD32VW55x_RELEASE_V1.0.2/MSDK/wifi_manager\wifi_vif.c **** {
 669              		.loc 1 298 1
 670              		.cfi_startproc
 671              	.LVL65:
 299:C:/Users/stapi/OneDrive/Desktop/GD32VW553/GD32VW55X_Wifi_BLE_SDK/GD32VW55x_RELEASE_V1.0.2/MSDK/wifi_manager\wifi_vif.c ****     if (vif_idx >= CFG_VIF_NUM)
 672              		.loc 1 299 5
 673              		.loc 1 299 8 is_stmt 0
 674 0000 8547     		li	a5,1
 298:C:/Users/stapi/OneDrive/Desktop/GD32VW553/GD32VW55X_Wifi_BLE_SDK/GD32VW55x_RELEASE_V1.0.2/MSDK/wifi_manager\wifi_vif.c ****     if (vif_idx >= CFG_VIF_NUM)
 675              		.loc 1 298 1
 676 0002 2A87     		mv	a4,a0
 677              		.loc 1 299 8
 678 0004 63CEA700 		bgt	a0,a5,.L38
 300:C:/Users/stapi/OneDrive/Desktop/GD32VW553/GD32VW55X_Wifi_BLE_SDK/GD32VW55x_RELEASE_V1.0.2/MSDK/wifi_manager\wifi_vif.c ****         return NULL;
 301:C:/Users/stapi/OneDrive/Desktop/GD32VW553/GD32VW55X_Wifi_BLE_SDK/GD32VW55x_RELEASE_V1.0.2/MSDK/wifi_manager\wifi_vif.c **** 
 302:C:/Users/stapi/OneDrive/Desktop/GD32VW553/GD32VW55X_Wifi_BLE_SDK/GD32VW55x_RELEASE_V1.0.2/MSDK/wifi_manager\wifi_vif.c ****     return (uint8_t *)wifi_vif_tab[vif_idx].mac_addr.array;
 679              		.loc 1 302 5 is_stmt 1
 680              		.loc 1 302 12 is_stmt 0
 681 0008 B7070000 		lui	a5,%hi(.LANCHOR0)
 682 000c 13850700 		addi	a0,a5,%lo(.LANCHOR0)
 683              	.LVL66:
 684 0010 9306800F 		li	a3,248
 685 0014 AA87     		mv	a5,a0
 686 0016 FF17D7C4 		maddr32	a5, a4, a3
 687 001a 13854704 		addi	a0,a5,68
 688 001e 8280     		ret
 689              	.LVL67:
 690              	.L38:
 300:C:/Users/stapi/OneDrive/Desktop/GD32VW553/GD32VW55X_Wifi_BLE_SDK/GD32VW55x_RELEASE_V1.0.2/MSDK/wifi_manager\wifi_vif.c ****         return NULL;
 691              		.loc 1 300 16
 692 0020 0145     		li	a0,0
 693              	.LVL68:
 303:C:/Users/stapi/OneDrive/Desktop/GD32VW553/GD32VW55X_Wifi_BLE_SDK/GD32VW55x_RELEASE_V1.0.2/MSDK/wifi_manager\wifi_vif.c **** }
 694              		.loc 1 303 1
 695 0022 8280     		ret
 696              		.cfi_endproc
 697              	.LFE25:
 699              		.section	.text.wifi_vif_mac_vif_set,"ax",@progbits
 700              		.align	1
 701              		.globl	wifi_vif_mac_vif_set
 703              	wifi_vif_mac_vif_set:
 704              	.LFB26:
 304:C:/Users/stapi/OneDrive/Desktop/GD32VW553/GD32VW55X_Wifi_BLE_SDK/GD32VW55x_RELEASE_V1.0.2/MSDK/wifi_manager\wifi_vif.c **** 
 305:C:/Users/stapi/OneDrive/Desktop/GD32VW553/GD32VW55X_Wifi_BLE_SDK/GD32VW55x_RELEASE_V1.0.2/MSDK/wifi_manager\wifi_vif.c **** /*!
 306:C:/Users/stapi/OneDrive/Desktop/GD32VW553/GD32VW55X_Wifi_BLE_SDK/GD32VW55x_RELEASE_V1.0.2/MSDK/wifi_manager\wifi_vif.c ****     \brief      Link a mac vif to the wifi vif
 307:C:/Users/stapi/OneDrive/Desktop/GD32VW553/GD32VW55X_Wifi_BLE_SDK/GD32VW55x_RELEASE_V1.0.2/MSDK/wifi_manager\wifi_vif.c ****     \param[in]  vif_idx: index of the wifi vif
 308:C:/Users/stapi/OneDrive/Desktop/GD32VW553/GD32VW55X_Wifi_BLE_SDK/GD32VW55x_RELEASE_V1.0.2/MSDK/wifi_manager\wifi_vif.c ****     \param[in]  mac_vif: pointer to the mac vif
 309:C:/Users/stapi/OneDrive/Desktop/GD32VW553/GD32VW55X_Wifi_BLE_SDK/GD32VW55x_RELEASE_V1.0.2/MSDK/wifi_manager\wifi_vif.c ****     \param[out] none
 310:C:/Users/stapi/OneDrive/Desktop/GD32VW553/GD32VW55X_Wifi_BLE_SDK/GD32VW55x_RELEASE_V1.0.2/MSDK/wifi_manager\wifi_vif.c ****     \retval     none
 311:C:/Users/stapi/OneDrive/Desktop/GD32VW553/GD32VW55X_Wifi_BLE_SDK/GD32VW55x_RELEASE_V1.0.2/MSDK/wifi_manager\wifi_vif.c **** */
 312:C:/Users/stapi/OneDrive/Desktop/GD32VW553/GD32VW55X_Wifi_BLE_SDK/GD32VW55x_RELEASE_V1.0.2/MSDK/wifi_manager\wifi_vif.c **** void wifi_vif_mac_vif_set(int vif_idx, void *mac_vif)
 313:C:/Users/stapi/OneDrive/Desktop/GD32VW553/GD32VW55X_Wifi_BLE_SDK/GD32VW55x_RELEASE_V1.0.2/MSDK/wifi_manager\wifi_vif.c **** {
 705              		.loc 1 313 1 is_stmt 1
 706              		.cfi_startproc
 707              	.LVL69:
 314:C:/Users/stapi/OneDrive/Desktop/GD32VW553/GD32VW55X_Wifi_BLE_SDK/GD32VW55x_RELEASE_V1.0.2/MSDK/wifi_manager\wifi_vif.c ****     if (vif_idx >= CFG_VIF_NUM)
 708              		.loc 1 314 5
 709              		.loc 1 314 8 is_stmt 0
 710 0000 8547     		li	a5,1
 711 0002 63CBA700 		bgt	a0,a5,.L39
 315:C:/Users/stapi/OneDrive/Desktop/GD32VW553/GD32VW55X_Wifi_BLE_SDK/GD32VW55x_RELEASE_V1.0.2/MSDK/wifi_manager\wifi_vif.c ****         return;
 316:C:/Users/stapi/OneDrive/Desktop/GD32VW553/GD32VW55X_Wifi_BLE_SDK/GD32VW55x_RELEASE_V1.0.2/MSDK/wifi_manager\wifi_vif.c **** 
 317:C:/Users/stapi/OneDrive/Desktop/GD32VW553/GD32VW55X_Wifi_BLE_SDK/GD32VW55x_RELEASE_V1.0.2/MSDK/wifi_manager\wifi_vif.c ****     wifi_vif_tab[vif_idx].mac_vif = mac_vif;
 712              		.loc 1 317 5 is_stmt 1
 713              		.loc 1 317 35 is_stmt 0
 714 0006 B7070000 		lui	a5,%hi(.LANCHOR0)
 715 000a 93870700 		addi	a5,a5,%lo(.LANCHOR0)
 716 000e 1307800F 		li	a4,248
 717 0012 FF17E5C4 		maddr32	a5, a0, a4
 718 0016 ECC7     		sw	a1,76(a5)
 719              	.L39:
 318:C:/Users/stapi/OneDrive/Desktop/GD32VW553/GD32VW55X_Wifi_BLE_SDK/GD32VW55x_RELEASE_V1.0.2/MSDK/wifi_manager\wifi_vif.c **** }
 720              		.loc 1 318 1
 721 0018 8280     		ret
 722              		.cfi_endproc
 723              	.LFE26:
 725              		.section	.text.wifi_vif_sta_uapsd_get,"ax",@progbits
 726              		.align	1
 727              		.globl	wifi_vif_sta_uapsd_get
 729              	wifi_vif_sta_uapsd_get:
 730              	.LFB27:
 319:C:/Users/stapi/OneDrive/Desktop/GD32VW553/GD32VW55X_Wifi_BLE_SDK/GD32VW55x_RELEASE_V1.0.2/MSDK/wifi_manager\wifi_vif.c **** 
 320:C:/Users/stapi/OneDrive/Desktop/GD32VW553/GD32VW55X_Wifi_BLE_SDK/GD32VW55x_RELEASE_V1.0.2/MSDK/wifi_manager\wifi_vif.c **** /*!
 321:C:/Users/stapi/OneDrive/Desktop/GD32VW553/GD32VW55X_Wifi_BLE_SDK/GD32VW55x_RELEASE_V1.0.2/MSDK/wifi_manager\wifi_vif.c ****     \brief      Get UAPSD config of the wifi vif which is in station mode
 322:C:/Users/stapi/OneDrive/Desktop/GD32VW553/GD32VW55X_Wifi_BLE_SDK/GD32VW55x_RELEASE_V1.0.2/MSDK/wifi_manager\wifi_vif.c ****     \param[in]  vif_idx: index of the wifi vif
 323:C:/Users/stapi/OneDrive/Desktop/GD32VW553/GD32VW55X_Wifi_BLE_SDK/GD32VW55x_RELEASE_V1.0.2/MSDK/wifi_manager\wifi_vif.c ****     \param[out] none
 324:C:/Users/stapi/OneDrive/Desktop/GD32VW553/GD32VW55X_Wifi_BLE_SDK/GD32VW55x_RELEASE_V1.0.2/MSDK/wifi_manager\wifi_vif.c ****     \retval     UAPSD config of the wifi vif on success and 0 if error occured.
 325:C:/Users/stapi/OneDrive/Desktop/GD32VW553/GD32VW55X_Wifi_BLE_SDK/GD32VW55x_RELEASE_V1.0.2/MSDK/wifi_manager\wifi_vif.c **** */
 326:C:/Users/stapi/OneDrive/Desktop/GD32VW553/GD32VW55X_Wifi_BLE_SDK/GD32VW55x_RELEASE_V1.0.2/MSDK/wifi_manager\wifi_vif.c **** uint8_t wifi_vif_sta_uapsd_get(int vif_idx)
 327:C:/Users/stapi/OneDrive/Desktop/GD32VW553/GD32VW55X_Wifi_BLE_SDK/GD32VW55x_RELEASE_V1.0.2/MSDK/wifi_manager\wifi_vif.c **** {
 731              		.loc 1 327 1 is_stmt 1
 732              		.cfi_startproc
 733              	.LVL70:
 328:C:/Users/stapi/OneDrive/Desktop/GD32VW553/GD32VW55X_Wifi_BLE_SDK/GD32VW55x_RELEASE_V1.0.2/MSDK/wifi_manager\wifi_vif.c ****     if (vif_idx >= CFG_VIF_NUM)
 734              		.loc 1 328 5
 735              		.loc 1 328 8 is_stmt 0
 736 0000 8547     		li	a5,1
 737 0002 63CDA700 		bgt	a0,a5,.L43
 329:C:/Users/stapi/OneDrive/Desktop/GD32VW553/GD32VW55X_Wifi_BLE_SDK/GD32VW55x_RELEASE_V1.0.2/MSDK/wifi_manager\wifi_vif.c ****         return 0;
 330:C:/Users/stapi/OneDrive/Desktop/GD32VW553/GD32VW55X_Wifi_BLE_SDK/GD32VW55x_RELEASE_V1.0.2/MSDK/wifi_manager\wifi_vif.c **** 
 331:C:/Users/stapi/OneDrive/Desktop/GD32VW553/GD32VW55X_Wifi_BLE_SDK/GD32VW55x_RELEASE_V1.0.2/MSDK/wifi_manager\wifi_vif.c ****     return (wifi_vif_tab[vif_idx].sta.uapsd_queues);
 738              		.loc 1 331 5 is_stmt 1
 739              		.loc 1 331 38 is_stmt 0
 740 0006 B7070000 		lui	a5,%hi(.LANCHOR0)
 741 000a 1307800F 		li	a4,248
 742 000e 93870700 		addi	a5,a5,%lo(.LANCHOR0)
 743 0012 FF17E5C4 		maddr32	a5, a0, a4
 744 0016 03C5970D 		lbu	a0,217(a5)
 745              	.LVL71:
 746 001a 8280     		ret
 747              	.LVL72:
 748              	.L43:
 329:C:/Users/stapi/OneDrive/Desktop/GD32VW553/GD32VW55X_Wifi_BLE_SDK/GD32VW55x_RELEASE_V1.0.2/MSDK/wifi_manager\wifi_vif.c ****         return 0;
 749              		.loc 1 329 16
 750 001c 0145     		li	a0,0
 751              	.LVL73:
 332:C:/Users/stapi/OneDrive/Desktop/GD32VW553/GD32VW55X_Wifi_BLE_SDK/GD32VW55x_RELEASE_V1.0.2/MSDK/wifi_manager\wifi_vif.c **** }
 752              		.loc 1 332 1
 753 001e 8280     		ret
 754              		.cfi_endproc
 755              	.LFE27:
 757              		.section	.text.wifi_vif_uapsd_queues_set,"ax",@progbits
 758              		.align	1
 759              		.globl	wifi_vif_uapsd_queues_set
 761              	wifi_vif_uapsd_queues_set:
 762              	.LFB28:
 333:C:/Users/stapi/OneDrive/Desktop/GD32VW553/GD32VW55X_Wifi_BLE_SDK/GD32VW55x_RELEASE_V1.0.2/MSDK/wifi_manager\wifi_vif.c **** 
 334:C:/Users/stapi/OneDrive/Desktop/GD32VW553/GD32VW55X_Wifi_BLE_SDK/GD32VW55x_RELEASE_V1.0.2/MSDK/wifi_manager\wifi_vif.c **** /*!
 335:C:/Users/stapi/OneDrive/Desktop/GD32VW553/GD32VW55X_Wifi_BLE_SDK/GD32VW55x_RELEASE_V1.0.2/MSDK/wifi_manager\wifi_vif.c ****     \brief      Set UAPSD config of the wifi vif which is in station mode
 336:C:/Users/stapi/OneDrive/Desktop/GD32VW553/GD32VW55X_Wifi_BLE_SDK/GD32VW55x_RELEASE_V1.0.2/MSDK/wifi_manager\wifi_vif.c ****     \param[in]  vif_idx: index of the wifi vif
 337:C:/Users/stapi/OneDrive/Desktop/GD32VW553/GD32VW55X_Wifi_BLE_SDK/GD32VW55x_RELEASE_V1.0.2/MSDK/wifi_manager\wifi_vif.c ****     \param[in]  uapsd_queues: UAPSD config
 338:C:/Users/stapi/OneDrive/Desktop/GD32VW553/GD32VW55X_Wifi_BLE_SDK/GD32VW55x_RELEASE_V1.0.2/MSDK/wifi_manager\wifi_vif.c ****     \param[out] none
 339:C:/Users/stapi/OneDrive/Desktop/GD32VW553/GD32VW55X_Wifi_BLE_SDK/GD32VW55x_RELEASE_V1.0.2/MSDK/wifi_manager\wifi_vif.c ****     \retval     0 on success and -1 if error occured.
 340:C:/Users/stapi/OneDrive/Desktop/GD32VW553/GD32VW55X_Wifi_BLE_SDK/GD32VW55x_RELEASE_V1.0.2/MSDK/wifi_manager\wifi_vif.c **** */
 341:C:/Users/stapi/OneDrive/Desktop/GD32VW553/GD32VW55X_Wifi_BLE_SDK/GD32VW55x_RELEASE_V1.0.2/MSDK/wifi_manager\wifi_vif.c **** int wifi_vif_uapsd_queues_set(int vif_idx, uint8_t uapsd_queues)
 342:C:/Users/stapi/OneDrive/Desktop/GD32VW553/GD32VW55X_Wifi_BLE_SDK/GD32VW55x_RELEASE_V1.0.2/MSDK/wifi_manager\wifi_vif.c **** {
 763              		.loc 1 342 1 is_stmt 1
 764              		.cfi_startproc
 765              	.LVL74:
 343:C:/Users/stapi/OneDrive/Desktop/GD32VW553/GD32VW55X_Wifi_BLE_SDK/GD32VW55x_RELEASE_V1.0.2/MSDK/wifi_manager\wifi_vif.c ****     if (vif_idx < 0)
 766              		.loc 1 343 5
 342:C:/Users/stapi/OneDrive/Desktop/GD32VW553/GD32VW55X_Wifi_BLE_SDK/GD32VW55x_RELEASE_V1.0.2/MSDK/wifi_manager\wifi_vif.c ****     if (vif_idx < 0)
 767              		.loc 1 342 1 is_stmt 0
 768 0000 2A87     		mv	a4,a0
 769              		.loc 1 343 8
 770 0002 635C0500 		bge	a0,zero,.L45
 771              	.LVL75:
 772              	.LBB8:
 344:C:/Users/stapi/OneDrive/Desktop/GD32VW553/GD32VW55X_Wifi_BLE_SDK/GD32VW55x_RELEASE_V1.0.2/MSDK/wifi_manager\wifi_vif.c ****     {
 345:C:/Users/stapi/OneDrive/Desktop/GD32VW553/GD32VW55X_Wifi_BLE_SDK/GD32VW55x_RELEASE_V1.0.2/MSDK/wifi_manager\wifi_vif.c ****         int i;
 346:C:/Users/stapi/OneDrive/Desktop/GD32VW553/GD32VW55X_Wifi_BLE_SDK/GD32VW55x_RELEASE_V1.0.2/MSDK/wifi_manager\wifi_vif.c ****         for (i = 0; i < CFG_VIF_NUM; i++)
 773              		.loc 1 346 21 is_stmt 1
 347:C:/Users/stapi/OneDrive/Desktop/GD32VW553/GD32VW55X_Wifi_BLE_SDK/GD32VW55x_RELEASE_V1.0.2/MSDK/wifi_manager\wifi_vif.c ****         {
 348:C:/Users/stapi/OneDrive/Desktop/GD32VW553/GD32VW55X_Wifi_BLE_SDK/GD32VW55x_RELEASE_V1.0.2/MSDK/wifi_manager\wifi_vif.c ****             wifi_vif_tab[i].sta.uapsd_queues = uapsd_queues;
 774              		.loc 1 348 13
 775              		.loc 1 348 46 is_stmt 0
 776 0006 B7070000 		lui	a5,%hi(.LANCHOR0)
 777 000a 93870700 		addi	a5,a5,%lo(.LANCHOR0)
 778 000e A38CB70C 		sb	a1,217(a5)
 346:C:/Users/stapi/OneDrive/Desktop/GD32VW553/GD32VW55X_Wifi_BLE_SDK/GD32VW55x_RELEASE_V1.0.2/MSDK/wifi_manager\wifi_vif.c ****         {
 779              		.loc 1 346 38 is_stmt 1
 780              	.LVL76:
 346:C:/Users/stapi/OneDrive/Desktop/GD32VW553/GD32VW55X_Wifi_BLE_SDK/GD32VW55x_RELEASE_V1.0.2/MSDK/wifi_manager\wifi_vif.c ****         {
 781              		.loc 1 346 21
 782              		.loc 1 348 13
 783              		.loc 1 348 46 is_stmt 0
 784 0012 A388B71C 		sb	a1,465(a5)
 346:C:/Users/stapi/OneDrive/Desktop/GD32VW553/GD32VW55X_Wifi_BLE_SDK/GD32VW55x_RELEASE_V1.0.2/MSDK/wifi_manager\wifi_vif.c ****         {
 785              		.loc 1 346 38 is_stmt 1
 786              	.LVL77:
 346:C:/Users/stapi/OneDrive/Desktop/GD32VW553/GD32VW55X_Wifi_BLE_SDK/GD32VW55x_RELEASE_V1.0.2/MSDK/wifi_manager\wifi_vif.c ****         {
 787              		.loc 1 346 21
 788              	.L48:
 789              	.LBE8:
 349:C:/Users/stapi/OneDrive/Desktop/GD32VW553/GD32VW55X_Wifi_BLE_SDK/GD32VW55x_RELEASE_V1.0.2/MSDK/wifi_manager\wifi_vif.c ****         }
 350:C:/Users/stapi/OneDrive/Desktop/GD32VW553/GD32VW55X_Wifi_BLE_SDK/GD32VW55x_RELEASE_V1.0.2/MSDK/wifi_manager\wifi_vif.c ****     }
 351:C:/Users/stapi/OneDrive/Desktop/GD32VW553/GD32VW55X_Wifi_BLE_SDK/GD32VW55x_RELEASE_V1.0.2/MSDK/wifi_manager\wifi_vif.c ****     else
 352:C:/Users/stapi/OneDrive/Desktop/GD32VW553/GD32VW55X_Wifi_BLE_SDK/GD32VW55x_RELEASE_V1.0.2/MSDK/wifi_manager\wifi_vif.c ****     {
 353:C:/Users/stapi/OneDrive/Desktop/GD32VW553/GD32VW55X_Wifi_BLE_SDK/GD32VW55x_RELEASE_V1.0.2/MSDK/wifi_manager\wifi_vif.c ****         if (vif_idx > CFG_VIF_NUM)
 354:C:/Users/stapi/OneDrive/Desktop/GD32VW553/GD32VW55X_Wifi_BLE_SDK/GD32VW55x_RELEASE_V1.0.2/MSDK/wifi_manager\wifi_vif.c ****             return -1;
 355:C:/Users/stapi/OneDrive/Desktop/GD32VW553/GD32VW55X_Wifi_BLE_SDK/GD32VW55x_RELEASE_V1.0.2/MSDK/wifi_manager\wifi_vif.c ****         wifi_vif_tab[vif_idx].sta.uapsd_queues = uapsd_queues;
 356:C:/Users/stapi/OneDrive/Desktop/GD32VW553/GD32VW55X_Wifi_BLE_SDK/GD32VW55x_RELEASE_V1.0.2/MSDK/wifi_manager\wifi_vif.c ****     }
 357:C:/Users/stapi/OneDrive/Desktop/GD32VW553/GD32VW55X_Wifi_BLE_SDK/GD32VW55x_RELEASE_V1.0.2/MSDK/wifi_manager\wifi_vif.c ****     return 0;
 790              		.loc 1 357 12 is_stmt 0
 791 0016 0145     		li	a0,0
 792              	.L44:
 358:C:/Users/stapi/OneDrive/Desktop/GD32VW553/GD32VW55X_Wifi_BLE_SDK/GD32VW55x_RELEASE_V1.0.2/MSDK/wifi_manager\wifi_vif.c **** }
 793              		.loc 1 358 1
 794 0018 8280     		ret
 795              	.LVL78:
 796              	.L45:
 353:C:/Users/stapi/OneDrive/Desktop/GD32VW553/GD32VW55X_Wifi_BLE_SDK/GD32VW55x_RELEASE_V1.0.2/MSDK/wifi_manager\wifi_vif.c ****             return -1;
 797              		.loc 1 353 9 is_stmt 1
 353:C:/Users/stapi/OneDrive/Desktop/GD32VW553/GD32VW55X_Wifi_BLE_SDK/GD32VW55x_RELEASE_V1.0.2/MSDK/wifi_manager\wifi_vif.c ****             return -1;
 798              		.loc 1 353 12 is_stmt 0
 799 001a 8947     		li	a5,2
 354:C:/Users/stapi/OneDrive/Desktop/GD32VW553/GD32VW55X_Wifi_BLE_SDK/GD32VW55x_RELEASE_V1.0.2/MSDK/wifi_manager\wifi_vif.c ****         wifi_vif_tab[vif_idx].sta.uapsd_queues = uapsd_queues;
 800              		.loc 1 354 20
 801 001c 7D55     		li	a0,-1
 802              	.LVL79:
 353:C:/Users/stapi/OneDrive/Desktop/GD32VW553/GD32VW55X_Wifi_BLE_SDK/GD32VW55x_RELEASE_V1.0.2/MSDK/wifi_manager\wifi_vif.c ****             return -1;
 803              		.loc 1 353 12
 804 001e E3CDE7FE 		bgt	a4,a5,.L44
 355:C:/Users/stapi/OneDrive/Desktop/GD32VW553/GD32VW55X_Wifi_BLE_SDK/GD32VW55x_RELEASE_V1.0.2/MSDK/wifi_manager\wifi_vif.c ****     }
 805              		.loc 1 355 9 is_stmt 1
 355:C:/Users/stapi/OneDrive/Desktop/GD32VW553/GD32VW55X_Wifi_BLE_SDK/GD32VW55x_RELEASE_V1.0.2/MSDK/wifi_manager\wifi_vif.c ****     }
 806              		.loc 1 355 48 is_stmt 0
 807 0022 B7070000 		lui	a5,%hi(.LANCHOR0)
 808 0026 93870700 		addi	a5,a5,%lo(.LANCHOR0)
 809 002a 9306800F 		li	a3,248
 810 002e FF17D7C4 		maddr32	a5, a4, a3
 811 0032 A38CB70C 		sb	a1,217(a5)
 812 0036 C5B7     		j	.L48
 813              		.cfi_endproc
 814              	.LFE28:
 816              		.section	.text.wifi_vif_ap_id_set,"ax",@progbits
 817              		.align	1
 818              		.globl	wifi_vif_ap_id_set
 820              	wifi_vif_ap_id_set:
 821              	.LFB29:
 359:C:/Users/stapi/OneDrive/Desktop/GD32VW553/GD32VW55X_Wifi_BLE_SDK/GD32VW55x_RELEASE_V1.0.2/MSDK/wifi_manager\wifi_vif.c **** 
 360:C:/Users/stapi/OneDrive/Desktop/GD32VW553/GD32VW55X_Wifi_BLE_SDK/GD32VW55x_RELEASE_V1.0.2/MSDK/wifi_manager\wifi_vif.c **** /*!
 361:C:/Users/stapi/OneDrive/Desktop/GD32VW553/GD32VW55X_Wifi_BLE_SDK/GD32VW55x_RELEASE_V1.0.2/MSDK/wifi_manager\wifi_vif.c ****     \brief      Set the ap index of the wifi vif which is in station mode
 362:C:/Users/stapi/OneDrive/Desktop/GD32VW553/GD32VW55X_Wifi_BLE_SDK/GD32VW55x_RELEASE_V1.0.2/MSDK/wifi_manager\wifi_vif.c ****     \param[in]  vif_idx: index of the wifi vif
 363:C:/Users/stapi/OneDrive/Desktop/GD32VW553/GD32VW55X_Wifi_BLE_SDK/GD32VW55x_RELEASE_V1.0.2/MSDK/wifi_manager\wifi_vif.c ****     \param[in]  ap_id: ap index
 364:C:/Users/stapi/OneDrive/Desktop/GD32VW553/GD32VW55X_Wifi_BLE_SDK/GD32VW55x_RELEASE_V1.0.2/MSDK/wifi_manager\wifi_vif.c ****     \param[out] none
 365:C:/Users/stapi/OneDrive/Desktop/GD32VW553/GD32VW55X_Wifi_BLE_SDK/GD32VW55x_RELEASE_V1.0.2/MSDK/wifi_manager\wifi_vif.c ****     \retval     none
 366:C:/Users/stapi/OneDrive/Desktop/GD32VW553/GD32VW55X_Wifi_BLE_SDK/GD32VW55x_RELEASE_V1.0.2/MSDK/wifi_manager\wifi_vif.c **** */
 367:C:/Users/stapi/OneDrive/Desktop/GD32VW553/GD32VW55X_Wifi_BLE_SDK/GD32VW55x_RELEASE_V1.0.2/MSDK/wifi_manager\wifi_vif.c **** void wifi_vif_ap_id_set(int vif_idx, uint8_t ap_id)
 368:C:/Users/stapi/OneDrive/Desktop/GD32VW553/GD32VW55X_Wifi_BLE_SDK/GD32VW55x_RELEASE_V1.0.2/MSDK/wifi_manager\wifi_vif.c **** {
 822              		.loc 1 368 1 is_stmt 1
 823              		.cfi_startproc
 824              	.LVL80:
 369:C:/Users/stapi/OneDrive/Desktop/GD32VW553/GD32VW55X_Wifi_BLE_SDK/GD32VW55x_RELEASE_V1.0.2/MSDK/wifi_manager\wifi_vif.c ****     if (vif_idx >= CFG_VIF_NUM)
 825              		.loc 1 369 5
 826              		.loc 1 369 8 is_stmt 0
 827 0000 8547     		li	a5,1
 828 0002 63CCA700 		bgt	a0,a5,.L49
 370:C:/Users/stapi/OneDrive/Desktop/GD32VW553/GD32VW55X_Wifi_BLE_SDK/GD32VW55x_RELEASE_V1.0.2/MSDK/wifi_manager\wifi_vif.c ****         return;
 371:C:/Users/stapi/OneDrive/Desktop/GD32VW553/GD32VW55X_Wifi_BLE_SDK/GD32VW55x_RELEASE_V1.0.2/MSDK/wifi_manager\wifi_vif.c **** 
 372:C:/Users/stapi/OneDrive/Desktop/GD32VW553/GD32VW55X_Wifi_BLE_SDK/GD32VW55x_RELEASE_V1.0.2/MSDK/wifi_manager\wifi_vif.c ****     wifi_vif_tab[vif_idx].sta.ap_id = ap_id;
 829              		.loc 1 372 5 is_stmt 1
 830              		.loc 1 372 37 is_stmt 0
 831 0006 B7070000 		lui	a5,%hi(.LANCHOR0)
 832 000a 93870700 		addi	a5,a5,%lo(.LANCHOR0)
 833 000e 1307800F 		li	a4,248
 834 0012 FF17E5C4 		maddr32	a5, a0, a4
 835 0016 238CB70C 		sb	a1,216(a5)
 836              	.L49:
 373:C:/Users/stapi/OneDrive/Desktop/GD32VW553/GD32VW55X_Wifi_BLE_SDK/GD32VW55x_RELEASE_V1.0.2/MSDK/wifi_manager\wifi_vif.c **** }
 837              		.loc 1 373 1
 838 001a 8280     		ret
 839              		.cfi_endproc
 840              	.LFE29:
 842              		.section	.text.wifi_vif_ap_id_get,"ax",@progbits
 843              		.align	1
 844              		.globl	wifi_vif_ap_id_get
 846              	wifi_vif_ap_id_get:
 847              	.LFB30:
 374:C:/Users/stapi/OneDrive/Desktop/GD32VW553/GD32VW55X_Wifi_BLE_SDK/GD32VW55x_RELEASE_V1.0.2/MSDK/wifi_manager\wifi_vif.c **** 
 375:C:/Users/stapi/OneDrive/Desktop/GD32VW553/GD32VW55X_Wifi_BLE_SDK/GD32VW55x_RELEASE_V1.0.2/MSDK/wifi_manager\wifi_vif.c **** /*!
 376:C:/Users/stapi/OneDrive/Desktop/GD32VW553/GD32VW55X_Wifi_BLE_SDK/GD32VW55x_RELEASE_V1.0.2/MSDK/wifi_manager\wifi_vif.c ****     \brief      Get the ap index of the wifi vif which is in station mode
 377:C:/Users/stapi/OneDrive/Desktop/GD32VW553/GD32VW55X_Wifi_BLE_SDK/GD32VW55x_RELEASE_V1.0.2/MSDK/wifi_manager\wifi_vif.c ****     \param[in]  vif_idx: index of the wifi vif
 378:C:/Users/stapi/OneDrive/Desktop/GD32VW553/GD32VW55X_Wifi_BLE_SDK/GD32VW55x_RELEASE_V1.0.2/MSDK/wifi_manager\wifi_vif.c ****     \param[out] none
 379:C:/Users/stapi/OneDrive/Desktop/GD32VW553/GD32VW55X_Wifi_BLE_SDK/GD32VW55x_RELEASE_V1.0.2/MSDK/wifi_manager\wifi_vif.c ****     \retval     ap index on success and 0xFF if error occured.
 380:C:/Users/stapi/OneDrive/Desktop/GD32VW553/GD32VW55X_Wifi_BLE_SDK/GD32VW55x_RELEASE_V1.0.2/MSDK/wifi_manager\wifi_vif.c **** */
 381:C:/Users/stapi/OneDrive/Desktop/GD32VW553/GD32VW55X_Wifi_BLE_SDK/GD32VW55x_RELEASE_V1.0.2/MSDK/wifi_manager\wifi_vif.c **** uint8_t wifi_vif_ap_id_get(int vif_idx)
 382:C:/Users/stapi/OneDrive/Desktop/GD32VW553/GD32VW55X_Wifi_BLE_SDK/GD32VW55x_RELEASE_V1.0.2/MSDK/wifi_manager\wifi_vif.c **** {
 848              		.loc 1 382 1 is_stmt 1
 849              		.cfi_startproc
 850              	.LVL81:
 383:C:/Users/stapi/OneDrive/Desktop/GD32VW553/GD32VW55X_Wifi_BLE_SDK/GD32VW55x_RELEASE_V1.0.2/MSDK/wifi_manager\wifi_vif.c ****     if (vif_idx >= CFG_VIF_NUM)
 851              		.loc 1 383 5
 852              		.loc 1 383 8 is_stmt 0
 853 0000 8547     		li	a5,1
 854 0002 63CDA700 		bgt	a0,a5,.L53
 384:C:/Users/stapi/OneDrive/Desktop/GD32VW553/GD32VW55X_Wifi_BLE_SDK/GD32VW55x_RELEASE_V1.0.2/MSDK/wifi_manager\wifi_vif.c ****         return 0xFF;
 385:C:/Users/stapi/OneDrive/Desktop/GD32VW553/GD32VW55X_Wifi_BLE_SDK/GD32VW55x_RELEASE_V1.0.2/MSDK/wifi_manager\wifi_vif.c **** 
 386:C:/Users/stapi/OneDrive/Desktop/GD32VW553/GD32VW55X_Wifi_BLE_SDK/GD32VW55x_RELEASE_V1.0.2/MSDK/wifi_manager\wifi_vif.c ****     return wifi_vif_tab[vif_idx].sta.ap_id;
 855              		.loc 1 386 5 is_stmt 1
 856              		.loc 1 386 37 is_stmt 0
 857 0006 B7070000 		lui	a5,%hi(.LANCHOR0)
 858 000a 1307800F 		li	a4,248
 859 000e 93870700 		addi	a5,a5,%lo(.LANCHOR0)
 860 0012 FF17E5C4 		maddr32	a5, a0, a4
 861 0016 03C5870D 		lbu	a0,216(a5)
 862              	.LVL82:
 863 001a 8280     		ret
 864              	.LVL83:
 865              	.L53:
 384:C:/Users/stapi/OneDrive/Desktop/GD32VW553/GD32VW55X_Wifi_BLE_SDK/GD32VW55x_RELEASE_V1.0.2/MSDK/wifi_manager\wifi_vif.c ****         return 0xFF;
 866              		.loc 1 384 16
 867 001c 1305F00F 		li	a0,255
 868              	.LVL84:
 387:C:/Users/stapi/OneDrive/Desktop/GD32VW553/GD32VW55X_Wifi_BLE_SDK/GD32VW55x_RELEASE_V1.0.2/MSDK/wifi_manager\wifi_vif.c **** }
 869              		.loc 1 387 1
 870 0020 8280     		ret
 871              		.cfi_endproc
 872              	.LFE30:
 874              		.section	.text.wifi_vif_history_ip_get,"ax",@progbits
 875              		.align	1
 876              		.globl	wifi_vif_history_ip_get
 878              	wifi_vif_history_ip_get:
 879              	.LFB31:
 388:C:/Users/stapi/OneDrive/Desktop/GD32VW553/GD32VW55X_Wifi_BLE_SDK/GD32VW55x_RELEASE_V1.0.2/MSDK/wifi_manager\wifi_vif.c **** 
 389:C:/Users/stapi/OneDrive/Desktop/GD32VW553/GD32VW55X_Wifi_BLE_SDK/GD32VW55x_RELEASE_V1.0.2/MSDK/wifi_manager\wifi_vif.c **** /*!
 390:C:/Users/stapi/OneDrive/Desktop/GD32VW553/GD32VW55X_Wifi_BLE_SDK/GD32VW55x_RELEASE_V1.0.2/MSDK/wifi_manager\wifi_vif.c ****     \brief      Get the history IP address of the wifi vif which is in station mode
 391:C:/Users/stapi/OneDrive/Desktop/GD32VW553/GD32VW55X_Wifi_BLE_SDK/GD32VW55x_RELEASE_V1.0.2/MSDK/wifi_manager\wifi_vif.c ****     \param[in]  none
 392:C:/Users/stapi/OneDrive/Desktop/GD32VW553/GD32VW55X_Wifi_BLE_SDK/GD32VW55x_RELEASE_V1.0.2/MSDK/wifi_manager\wifi_vif.c ****     \param[out] none
 393:C:/Users/stapi/OneDrive/Desktop/GD32VW553/GD32VW55X_Wifi_BLE_SDK/GD32VW55x_RELEASE_V1.0.2/MSDK/wifi_manager\wifi_vif.c ****     \retval     history IP address.
 394:C:/Users/stapi/OneDrive/Desktop/GD32VW553/GD32VW55X_Wifi_BLE_SDK/GD32VW55x_RELEASE_V1.0.2/MSDK/wifi_manager\wifi_vif.c **** */
 395:C:/Users/stapi/OneDrive/Desktop/GD32VW553/GD32VW55X_Wifi_BLE_SDK/GD32VW55x_RELEASE_V1.0.2/MSDK/wifi_manager\wifi_vif.c **** uint32_t wifi_vif_history_ip_get(void)
 396:C:/Users/stapi/OneDrive/Desktop/GD32VW553/GD32VW55X_Wifi_BLE_SDK/GD32VW55x_RELEASE_V1.0.2/MSDK/wifi_manager\wifi_vif.c **** {
 880              		.loc 1 396 1 is_stmt 1
 881              		.cfi_startproc
 397:C:/Users/stapi/OneDrive/Desktop/GD32VW553/GD32VW55X_Wifi_BLE_SDK/GD32VW55x_RELEASE_V1.0.2/MSDK/wifi_manager\wifi_vif.c ****     return wifi_vif_tab[WIFI_VIF_INDEX_DEFAULT].sta.history_ip;
 882              		.loc 1 397 5
 398:C:/Users/stapi/OneDrive/Desktop/GD32VW553/GD32VW55X_Wifi_BLE_SDK/GD32VW55x_RELEASE_V1.0.2/MSDK/wifi_manager\wifi_vif.c **** }
 883              		.loc 1 398 1 is_stmt 0
 884 0000 B7070000 		lui	a5,%hi(.LANCHOR0+224)
 885 0004 03A5070E 		lw	a0,%lo(.LANCHOR0+224)(a5)
 886 0008 8280     		ret
 887              		.cfi_endproc
 888              	.LFE31:
 890              		.section	.text.wifi_vif_is_sta_connecting,"ax",@progbits
 891              		.align	1
 892              		.globl	wifi_vif_is_sta_connecting
 894              	wifi_vif_is_sta_connecting:
 895              	.LFB32:
 399:C:/Users/stapi/OneDrive/Desktop/GD32VW553/GD32VW55X_Wifi_BLE_SDK/GD32VW55x_RELEASE_V1.0.2/MSDK/wifi_manager\wifi_vif.c **** 
 400:C:/Users/stapi/OneDrive/Desktop/GD32VW553/GD32VW55X_Wifi_BLE_SDK/GD32VW55x_RELEASE_V1.0.2/MSDK/wifi_manager\wifi_vif.c **** /*!
 401:C:/Users/stapi/OneDrive/Desktop/GD32VW553/GD32VW55X_Wifi_BLE_SDK/GD32VW55x_RELEASE_V1.0.2/MSDK/wifi_manager\wifi_vif.c ****     \brief      Check if wifi vif which in station is in the connection state
 402:C:/Users/stapi/OneDrive/Desktop/GD32VW553/GD32VW55X_Wifi_BLE_SDK/GD32VW55x_RELEASE_V1.0.2/MSDK/wifi_manager\wifi_vif.c ****     \param[in]  vif_idx: index of the wifi vif
 403:C:/Users/stapi/OneDrive/Desktop/GD32VW553/GD32VW55X_Wifi_BLE_SDK/GD32VW55x_RELEASE_V1.0.2/MSDK/wifi_manager\wifi_vif.c ****     \param[out] none
 404:C:/Users/stapi/OneDrive/Desktop/GD32VW553/GD32VW55X_Wifi_BLE_SDK/GD32VW55x_RELEASE_V1.0.2/MSDK/wifi_manager\wifi_vif.c ****     \retval     true if in the connection state and false otherwise.
 405:C:/Users/stapi/OneDrive/Desktop/GD32VW553/GD32VW55X_Wifi_BLE_SDK/GD32VW55x_RELEASE_V1.0.2/MSDK/wifi_manager\wifi_vif.c **** */
 406:C:/Users/stapi/OneDrive/Desktop/GD32VW553/GD32VW55X_Wifi_BLE_SDK/GD32VW55x_RELEASE_V1.0.2/MSDK/wifi_manager\wifi_vif.c **** int wifi_vif_is_sta_connecting(int vif_idx)
 407:C:/Users/stapi/OneDrive/Desktop/GD32VW553/GD32VW55X_Wifi_BLE_SDK/GD32VW55x_RELEASE_V1.0.2/MSDK/wifi_manager\wifi_vif.c **** {
 896              		.loc 1 407 1 is_stmt 1
 897              		.cfi_startproc
 898              	.LVL85:
 408:C:/Users/stapi/OneDrive/Desktop/GD32VW553/GD32VW55X_Wifi_BLE_SDK/GD32VW55x_RELEASE_V1.0.2/MSDK/wifi_manager\wifi_vif.c ****     struct wifi_vif_tag *wvif;
 899              		.loc 1 408 5
 409:C:/Users/stapi/OneDrive/Desktop/GD32VW553/GD32VW55X_Wifi_BLE_SDK/GD32VW55x_RELEASE_V1.0.2/MSDK/wifi_manager\wifi_vif.c **** 
 410:C:/Users/stapi/OneDrive/Desktop/GD32VW553/GD32VW55X_Wifi_BLE_SDK/GD32VW55x_RELEASE_V1.0.2/MSDK/wifi_manager\wifi_vif.c ****     if (vif_idx >= CFG_VIF_NUM)
 900              		.loc 1 410 5
 901              		.loc 1 410 8 is_stmt 0
 902 0000 0547     		li	a4,1
 903 0002 6346A702 		bgt	a0,a4,.L57
 411:C:/Users/stapi/OneDrive/Desktop/GD32VW553/GD32VW55X_Wifi_BLE_SDK/GD32VW55x_RELEASE_V1.0.2/MSDK/wifi_manager\wifi_vif.c ****         return false;
 412:C:/Users/stapi/OneDrive/Desktop/GD32VW553/GD32VW55X_Wifi_BLE_SDK/GD32VW55x_RELEASE_V1.0.2/MSDK/wifi_manager\wifi_vif.c **** 
 413:C:/Users/stapi/OneDrive/Desktop/GD32VW553/GD32VW55X_Wifi_BLE_SDK/GD32VW55x_RELEASE_V1.0.2/MSDK/wifi_manager\wifi_vif.c ****     wvif =  &wifi_vif_tab[vif_idx];
 904              		.loc 1 413 5 is_stmt 1
 905              	.LVL86:
 414:C:/Users/stapi/OneDrive/Desktop/GD32VW553/GD32VW55X_Wifi_BLE_SDK/GD32VW55x_RELEASE_V1.0.2/MSDK/wifi_manager\wifi_vif.c ****     if (NULL == wvif->mac_vif)
 906              		.loc 1 414 5
 907              		.loc 1 414 21 is_stmt 0
 908 0006 B7070000 		lui	a5,%hi(.LANCHOR0)
 909 000a 9306800F 		li	a3,248
 910 000e 93870700 		addi	a5,a5,%lo(.LANCHOR0)
 911 0012 FF17D5C4 		maddr32	a5, a0, a3
 912              		.loc 1 414 8
 913 0016 F447     		lw	a3,76(a5)
 411:C:/Users/stapi/OneDrive/Desktop/GD32VW553/GD32VW55X_Wifi_BLE_SDK/GD32VW55x_RELEASE_V1.0.2/MSDK/wifi_manager\wifi_vif.c ****         return false;
 914              		.loc 1 411 16
 915 0018 0145     		li	a0,0
 916              	.LVL87:
 917              		.loc 1 414 8
 918 001a 99CA     		beq	a3,zero,.L55
 415:C:/Users/stapi/OneDrive/Desktop/GD32VW553/GD32VW55X_Wifi_BLE_SDK/GD32VW55x_RELEASE_V1.0.2/MSDK/wifi_manager\wifi_vif.c ****         return false;
 416:C:/Users/stapi/OneDrive/Desktop/GD32VW553/GD32VW55X_Wifi_BLE_SDK/GD32VW55x_RELEASE_V1.0.2/MSDK/wifi_manager\wifi_vif.c **** 
 417:C:/Users/stapi/OneDrive/Desktop/GD32VW553/GD32VW55X_Wifi_BLE_SDK/GD32VW55x_RELEASE_V1.0.2/MSDK/wifi_manager\wifi_vif.c ****     if (wvif->wvif_type == WVIF_STA) {
 919              		.loc 1 417 5 is_stmt 1
 920              		.loc 1 417 8 is_stmt 0
 921 001c F44B     		lw	a3,84(a5)
 922 001e 6399E600 		bne	a3,a4,.L55
 418:C:/Users/stapi/OneDrive/Desktop/GD32VW553/GD32VW55X_Wifi_BLE_SDK/GD32VW55x_RELEASE_V1.0.2/MSDK/wifi_manager\wifi_vif.c ****         if ((wvif->sta.state >= WIFI_STA_STATE_SCAN)
 923              		.loc 1 418 9 is_stmt 1
 419:C:/Users/stapi/OneDrive/Desktop/GD32VW553/GD32VW55X_Wifi_BLE_SDK/GD32VW55x_RELEASE_V1.0.2/MSDK/wifi_manager\wifi_vif.c ****             && (wvif->sta.state <= WIFI_STA_STATE_IP_GETTING))
 924              		.loc 1 419 13 is_stmt 0
 925 0022 03A5470D 		lw	a0,212(a5)
 926 0026 7915     		addi	a0,a0,-2
 418:C:/Users/stapi/OneDrive/Desktop/GD32VW553/GD32VW55X_Wifi_BLE_SDK/GD32VW55x_RELEASE_V1.0.2/MSDK/wifi_manager\wifi_vif.c ****         if ((wvif->sta.state >= WIFI_STA_STATE_SCAN)
 927              		.loc 1 418 12
 928 0028 13354500 		sltiu	a0,a0,4
 929 002c 8280     		ret
 930              	.LVL88:
 931              	.L57:
 411:C:/Users/stapi/OneDrive/Desktop/GD32VW553/GD32VW55X_Wifi_BLE_SDK/GD32VW55x_RELEASE_V1.0.2/MSDK/wifi_manager\wifi_vif.c **** 
 932              		.loc 1 411 16
 933 002e 0145     		li	a0,0
 934              	.LVL89:
 935              	.L55:
 420:C:/Users/stapi/OneDrive/Desktop/GD32VW553/GD32VW55X_Wifi_BLE_SDK/GD32VW55x_RELEASE_V1.0.2/MSDK/wifi_manager\wifi_vif.c ****             return true;
 421:C:/Users/stapi/OneDrive/Desktop/GD32VW553/GD32VW55X_Wifi_BLE_SDK/GD32VW55x_RELEASE_V1.0.2/MSDK/wifi_manager\wifi_vif.c ****     }
 422:C:/Users/stapi/OneDrive/Desktop/GD32VW553/GD32VW55X_Wifi_BLE_SDK/GD32VW55x_RELEASE_V1.0.2/MSDK/wifi_manager\wifi_vif.c **** 
 423:C:/Users/stapi/OneDrive/Desktop/GD32VW553/GD32VW55X_Wifi_BLE_SDK/GD32VW55x_RELEASE_V1.0.2/MSDK/wifi_manager\wifi_vif.c ****     return false;
 424:C:/Users/stapi/OneDrive/Desktop/GD32VW553/GD32VW55X_Wifi_BLE_SDK/GD32VW55x_RELEASE_V1.0.2/MSDK/wifi_manager\wifi_vif.c **** }
 936              		.loc 1 424 1
 937 0030 8280     		ret
 938              		.cfi_endproc
 939              	.LFE32:
 941              		.section	.text.wifi_vif_is_sta_handshaked,"ax",@progbits
 942              		.align	1
 943              		.globl	wifi_vif_is_sta_handshaked
 945              	wifi_vif_is_sta_handshaked:
 946              	.LFB33:
 425:C:/Users/stapi/OneDrive/Desktop/GD32VW553/GD32VW55X_Wifi_BLE_SDK/GD32VW55x_RELEASE_V1.0.2/MSDK/wifi_manager\wifi_vif.c **** 
 426:C:/Users/stapi/OneDrive/Desktop/GD32VW553/GD32VW55X_Wifi_BLE_SDK/GD32VW55x_RELEASE_V1.0.2/MSDK/wifi_manager\wifi_vif.c **** /*!
 427:C:/Users/stapi/OneDrive/Desktop/GD32VW553/GD32VW55X_Wifi_BLE_SDK/GD32VW55x_RELEASE_V1.0.2/MSDK/wifi_manager\wifi_vif.c ****     \brief      Check if handshake of wifi vif which in station is completed
 428:C:/Users/stapi/OneDrive/Desktop/GD32VW553/GD32VW55X_Wifi_BLE_SDK/GD32VW55x_RELEASE_V1.0.2/MSDK/wifi_manager\wifi_vif.c ****     \param[in]  vif_idx: index of the wifi vif
 429:C:/Users/stapi/OneDrive/Desktop/GD32VW553/GD32VW55X_Wifi_BLE_SDK/GD32VW55x_RELEASE_V1.0.2/MSDK/wifi_manager\wifi_vif.c ****     \param[out] none
 430:C:/Users/stapi/OneDrive/Desktop/GD32VW553/GD32VW55X_Wifi_BLE_SDK/GD32VW55x_RELEASE_V1.0.2/MSDK/wifi_manager\wifi_vif.c ****     \retval     true if handshake is completed and false otherwise.
 431:C:/Users/stapi/OneDrive/Desktop/GD32VW553/GD32VW55X_Wifi_BLE_SDK/GD32VW55x_RELEASE_V1.0.2/MSDK/wifi_manager\wifi_vif.c **** */
 432:C:/Users/stapi/OneDrive/Desktop/GD32VW553/GD32VW55X_Wifi_BLE_SDK/GD32VW55x_RELEASE_V1.0.2/MSDK/wifi_manager\wifi_vif.c **** int wifi_vif_is_sta_handshaked(int vif_idx)
 433:C:/Users/stapi/OneDrive/Desktop/GD32VW553/GD32VW55X_Wifi_BLE_SDK/GD32VW55x_RELEASE_V1.0.2/MSDK/wifi_manager\wifi_vif.c **** {
 947              		.loc 1 433 1 is_stmt 1
 948              		.cfi_startproc
 949              	.LVL90:
 434:C:/Users/stapi/OneDrive/Desktop/GD32VW553/GD32VW55X_Wifi_BLE_SDK/GD32VW55x_RELEASE_V1.0.2/MSDK/wifi_manager\wifi_vif.c ****     struct wifi_vif_tag *wvif;
 950              		.loc 1 434 5
 435:C:/Users/stapi/OneDrive/Desktop/GD32VW553/GD32VW55X_Wifi_BLE_SDK/GD32VW55x_RELEASE_V1.0.2/MSDK/wifi_manager\wifi_vif.c **** 
 436:C:/Users/stapi/OneDrive/Desktop/GD32VW553/GD32VW55X_Wifi_BLE_SDK/GD32VW55x_RELEASE_V1.0.2/MSDK/wifi_manager\wifi_vif.c ****     if (vif_idx >= CFG_VIF_NUM)
 951              		.loc 1 436 5
 952              		.loc 1 436 8 is_stmt 0
 953 0000 0547     		li	a4,1
 954 0002 6346A702 		bgt	a0,a4,.L62
 437:C:/Users/stapi/OneDrive/Desktop/GD32VW553/GD32VW55X_Wifi_BLE_SDK/GD32VW55x_RELEASE_V1.0.2/MSDK/wifi_manager\wifi_vif.c ****         return false;
 438:C:/Users/stapi/OneDrive/Desktop/GD32VW553/GD32VW55X_Wifi_BLE_SDK/GD32VW55x_RELEASE_V1.0.2/MSDK/wifi_manager\wifi_vif.c **** 
 439:C:/Users/stapi/OneDrive/Desktop/GD32VW553/GD32VW55X_Wifi_BLE_SDK/GD32VW55x_RELEASE_V1.0.2/MSDK/wifi_manager\wifi_vif.c ****     wvif =  &wifi_vif_tab[vif_idx];
 955              		.loc 1 439 5 is_stmt 1
 956              	.LVL91:
 440:C:/Users/stapi/OneDrive/Desktop/GD32VW553/GD32VW55X_Wifi_BLE_SDK/GD32VW55x_RELEASE_V1.0.2/MSDK/wifi_manager\wifi_vif.c ****     if (NULL == wvif->mac_vif)
 957              		.loc 1 440 5
 958              		.loc 1 440 21 is_stmt 0
 959 0006 B7070000 		lui	a5,%hi(.LANCHOR0)
 960 000a 9306800F 		li	a3,248
 961 000e 93870700 		addi	a5,a5,%lo(.LANCHOR0)
 962 0012 FF17D5C4 		maddr32	a5, a0, a3
 963              		.loc 1 440 8
 964 0016 F447     		lw	a3,76(a5)
 437:C:/Users/stapi/OneDrive/Desktop/GD32VW553/GD32VW55X_Wifi_BLE_SDK/GD32VW55x_RELEASE_V1.0.2/MSDK/wifi_manager\wifi_vif.c ****         return false;
 965              		.loc 1 437 16
 966 0018 0145     		li	a0,0
 967              	.LVL92:
 968              		.loc 1 440 8
 969 001a 99CA     		beq	a3,zero,.L60
 441:C:/Users/stapi/OneDrive/Desktop/GD32VW553/GD32VW55X_Wifi_BLE_SDK/GD32VW55x_RELEASE_V1.0.2/MSDK/wifi_manager\wifi_vif.c ****         return false;
 442:C:/Users/stapi/OneDrive/Desktop/GD32VW553/GD32VW55X_Wifi_BLE_SDK/GD32VW55x_RELEASE_V1.0.2/MSDK/wifi_manager\wifi_vif.c **** 
 443:C:/Users/stapi/OneDrive/Desktop/GD32VW553/GD32VW55X_Wifi_BLE_SDK/GD32VW55x_RELEASE_V1.0.2/MSDK/wifi_manager\wifi_vif.c ****     if (wvif->wvif_type == WVIF_STA) {
 970              		.loc 1 443 5 is_stmt 1
 971              		.loc 1 443 8 is_stmt 0
 972 001c F44B     		lw	a3,84(a5)
 973 001e 6399E600 		bne	a3,a4,.L60
 444:C:/Users/stapi/OneDrive/Desktop/GD32VW553/GD32VW55X_Wifi_BLE_SDK/GD32VW55x_RELEASE_V1.0.2/MSDK/wifi_manager\wifi_vif.c ****         if ((wvif->sta.state >= WIFI_STA_STATE_IP_GETTING)
 974              		.loc 1 444 9 is_stmt 1
 445:C:/Users/stapi/OneDrive/Desktop/GD32VW553/GD32VW55X_Wifi_BLE_SDK/GD32VW55x_RELEASE_V1.0.2/MSDK/wifi_manager\wifi_vif.c ****             && (wvif->sta.state <= WIFI_STA_STATE_CONNECTED))
 975              		.loc 1 445 13 is_stmt 0
 976 0022 03A5470D 		lw	a0,212(a5)
 977 0026 6D15     		addi	a0,a0,-5
 444:C:/Users/stapi/OneDrive/Desktop/GD32VW553/GD32VW55X_Wifi_BLE_SDK/GD32VW55x_RELEASE_V1.0.2/MSDK/wifi_manager\wifi_vif.c ****         if ((wvif->sta.state >= WIFI_STA_STATE_IP_GETTING)
 978              		.loc 1 444 12
 979 0028 13352500 		sltiu	a0,a0,2
 980 002c 8280     		ret
 981              	.LVL93:
 982              	.L62:
 437:C:/Users/stapi/OneDrive/Desktop/GD32VW553/GD32VW55X_Wifi_BLE_SDK/GD32VW55x_RELEASE_V1.0.2/MSDK/wifi_manager\wifi_vif.c **** 
 983              		.loc 1 437 16
 984 002e 0145     		li	a0,0
 985              	.LVL94:
 986              	.L60:
 446:C:/Users/stapi/OneDrive/Desktop/GD32VW553/GD32VW55X_Wifi_BLE_SDK/GD32VW55x_RELEASE_V1.0.2/MSDK/wifi_manager\wifi_vif.c ****             return true;
 447:C:/Users/stapi/OneDrive/Desktop/GD32VW553/GD32VW55X_Wifi_BLE_SDK/GD32VW55x_RELEASE_V1.0.2/MSDK/wifi_manager\wifi_vif.c ****     }
 448:C:/Users/stapi/OneDrive/Desktop/GD32VW553/GD32VW55X_Wifi_BLE_SDK/GD32VW55x_RELEASE_V1.0.2/MSDK/wifi_manager\wifi_vif.c **** 
 449:C:/Users/stapi/OneDrive/Desktop/GD32VW553/GD32VW55X_Wifi_BLE_SDK/GD32VW55x_RELEASE_V1.0.2/MSDK/wifi_manager\wifi_vif.c ****     return false;
 450:C:/Users/stapi/OneDrive/Desktop/GD32VW553/GD32VW55X_Wifi_BLE_SDK/GD32VW55x_RELEASE_V1.0.2/MSDK/wifi_manager\wifi_vif.c **** }
 987              		.loc 1 450 1
 988 0030 8280     		ret
 989              		.cfi_endproc
 990              	.LFE33:
 992              		.section	.text.wifi_vif_is_sta_connected,"ax",@progbits
 993              		.align	1
 994              		.globl	wifi_vif_is_sta_connected
 996              	wifi_vif_is_sta_connected:
 997              	.LFB34:
 451:C:/Users/stapi/OneDrive/Desktop/GD32VW553/GD32VW55X_Wifi_BLE_SDK/GD32VW55x_RELEASE_V1.0.2/MSDK/wifi_manager\wifi_vif.c **** 
 452:C:/Users/stapi/OneDrive/Desktop/GD32VW553/GD32VW55X_Wifi_BLE_SDK/GD32VW55x_RELEASE_V1.0.2/MSDK/wifi_manager\wifi_vif.c **** /*!
 453:C:/Users/stapi/OneDrive/Desktop/GD32VW553/GD32VW55X_Wifi_BLE_SDK/GD32VW55x_RELEASE_V1.0.2/MSDK/wifi_manager\wifi_vif.c ****     \brief      Check if wifi vif which in station is connected to an ap
 454:C:/Users/stapi/OneDrive/Desktop/GD32VW553/GD32VW55X_Wifi_BLE_SDK/GD32VW55x_RELEASE_V1.0.2/MSDK/wifi_manager\wifi_vif.c ****     \param[in]  vif_idx: index of the wifi vif
 455:C:/Users/stapi/OneDrive/Desktop/GD32VW553/GD32VW55X_Wifi_BLE_SDK/GD32VW55x_RELEASE_V1.0.2/MSDK/wifi_manager\wifi_vif.c ****     \param[out] none
 456:C:/Users/stapi/OneDrive/Desktop/GD32VW553/GD32VW55X_Wifi_BLE_SDK/GD32VW55x_RELEASE_V1.0.2/MSDK/wifi_manager\wifi_vif.c ****     \retval     true if is connected and false otherwise.
 457:C:/Users/stapi/OneDrive/Desktop/GD32VW553/GD32VW55X_Wifi_BLE_SDK/GD32VW55x_RELEASE_V1.0.2/MSDK/wifi_manager\wifi_vif.c **** */
 458:C:/Users/stapi/OneDrive/Desktop/GD32VW553/GD32VW55X_Wifi_BLE_SDK/GD32VW55x_RELEASE_V1.0.2/MSDK/wifi_manager\wifi_vif.c **** int wifi_vif_is_sta_connected(int vif_idx)
 459:C:/Users/stapi/OneDrive/Desktop/GD32VW553/GD32VW55X_Wifi_BLE_SDK/GD32VW55x_RELEASE_V1.0.2/MSDK/wifi_manager\wifi_vif.c **** {
 998              		.loc 1 459 1 is_stmt 1
 999              		.cfi_startproc
 1000              	.LVL95:
 460:C:/Users/stapi/OneDrive/Desktop/GD32VW553/GD32VW55X_Wifi_BLE_SDK/GD32VW55x_RELEASE_V1.0.2/MSDK/wifi_manager\wifi_vif.c ****     struct wifi_vif_tag *wvif;
 1001              		.loc 1 460 5
 461:C:/Users/stapi/OneDrive/Desktop/GD32VW553/GD32VW55X_Wifi_BLE_SDK/GD32VW55x_RELEASE_V1.0.2/MSDK/wifi_manager\wifi_vif.c **** 
 462:C:/Users/stapi/OneDrive/Desktop/GD32VW553/GD32VW55X_Wifi_BLE_SDK/GD32VW55x_RELEASE_V1.0.2/MSDK/wifi_manager\wifi_vif.c ****     if (vif_idx >= CFG_VIF_NUM)
 1002              		.loc 1 462 5
 1003              		.loc 1 462 8 is_stmt 0
 1004 0000 0547     		li	a4,1
 1005 0002 6346A702 		bgt	a0,a4,.L67
 463:C:/Users/stapi/OneDrive/Desktop/GD32VW553/GD32VW55X_Wifi_BLE_SDK/GD32VW55x_RELEASE_V1.0.2/MSDK/wifi_manager\wifi_vif.c ****         return false;
 464:C:/Users/stapi/OneDrive/Desktop/GD32VW553/GD32VW55X_Wifi_BLE_SDK/GD32VW55x_RELEASE_V1.0.2/MSDK/wifi_manager\wifi_vif.c **** 
 465:C:/Users/stapi/OneDrive/Desktop/GD32VW553/GD32VW55X_Wifi_BLE_SDK/GD32VW55x_RELEASE_V1.0.2/MSDK/wifi_manager\wifi_vif.c ****     wvif =  &wifi_vif_tab[vif_idx];
 1006              		.loc 1 465 5 is_stmt 1
 1007              	.LVL96:
 466:C:/Users/stapi/OneDrive/Desktop/GD32VW553/GD32VW55X_Wifi_BLE_SDK/GD32VW55x_RELEASE_V1.0.2/MSDK/wifi_manager\wifi_vif.c ****     if (NULL == wvif->mac_vif)
 1008              		.loc 1 466 5
 1009              		.loc 1 466 21 is_stmt 0
 1010 0006 B7070000 		lui	a5,%hi(.LANCHOR0)
 1011 000a 9306800F 		li	a3,248
 1012 000e 93870700 		addi	a5,a5,%lo(.LANCHOR0)
 1013 0012 FF17D5C4 		maddr32	a5, a0, a3
 1014              		.loc 1 466 8
 1015 0016 F447     		lw	a3,76(a5)
 463:C:/Users/stapi/OneDrive/Desktop/GD32VW553/GD32VW55X_Wifi_BLE_SDK/GD32VW55x_RELEASE_V1.0.2/MSDK/wifi_manager\wifi_vif.c ****         return false;
 1016              		.loc 1 463 16
 1017 0018 0145     		li	a0,0
 1018              	.LVL97:
 1019              		.loc 1 466 8
 1020 001a 99CA     		beq	a3,zero,.L65
 467:C:/Users/stapi/OneDrive/Desktop/GD32VW553/GD32VW55X_Wifi_BLE_SDK/GD32VW55x_RELEASE_V1.0.2/MSDK/wifi_manager\wifi_vif.c ****         return false;
 468:C:/Users/stapi/OneDrive/Desktop/GD32VW553/GD32VW55X_Wifi_BLE_SDK/GD32VW55x_RELEASE_V1.0.2/MSDK/wifi_manager\wifi_vif.c **** 
 469:C:/Users/stapi/OneDrive/Desktop/GD32VW553/GD32VW55X_Wifi_BLE_SDK/GD32VW55x_RELEASE_V1.0.2/MSDK/wifi_manager\wifi_vif.c ****     if (wvif->wvif_type == WVIF_STA) {
 1021              		.loc 1 469 5 is_stmt 1
 1022              		.loc 1 469 8 is_stmt 0
 1023 001c F44B     		lw	a3,84(a5)
 1024 001e 6399E600 		bne	a3,a4,.L65
 470:C:/Users/stapi/OneDrive/Desktop/GD32VW553/GD32VW55X_Wifi_BLE_SDK/GD32VW55x_RELEASE_V1.0.2/MSDK/wifi_manager\wifi_vif.c ****         if (wvif->sta.state == WIFI_STA_STATE_CONNECTED)
 1025              		.loc 1 470 9 is_stmt 1
 1026              		.loc 1 470 12 is_stmt 0
 1027 0022 03A5470D 		lw	a0,212(a5)
 1028 0026 6915     		addi	a0,a0,-6
 1029 0028 13351500 		seqz	a0,a0
 1030 002c 8280     		ret
 1031              	.LVL98:
 1032              	.L67:
 463:C:/Users/stapi/OneDrive/Desktop/GD32VW553/GD32VW55X_Wifi_BLE_SDK/GD32VW55x_RELEASE_V1.0.2/MSDK/wifi_manager\wifi_vif.c **** 
 1033              		.loc 1 463 16
 1034 002e 0145     		li	a0,0
 1035              	.LVL99:
 1036              	.L65:
 471:C:/Users/stapi/OneDrive/Desktop/GD32VW553/GD32VW55X_Wifi_BLE_SDK/GD32VW55x_RELEASE_V1.0.2/MSDK/wifi_manager\wifi_vif.c ****             return true;
 472:C:/Users/stapi/OneDrive/Desktop/GD32VW553/GD32VW55X_Wifi_BLE_SDK/GD32VW55x_RELEASE_V1.0.2/MSDK/wifi_manager\wifi_vif.c ****     }
 473:C:/Users/stapi/OneDrive/Desktop/GD32VW553/GD32VW55X_Wifi_BLE_SDK/GD32VW55x_RELEASE_V1.0.2/MSDK/wifi_manager\wifi_vif.c **** 
 474:C:/Users/stapi/OneDrive/Desktop/GD32VW553/GD32VW55X_Wifi_BLE_SDK/GD32VW55x_RELEASE_V1.0.2/MSDK/wifi_manager\wifi_vif.c ****     return false;
 475:C:/Users/stapi/OneDrive/Desktop/GD32VW553/GD32VW55X_Wifi_BLE_SDK/GD32VW55x_RELEASE_V1.0.2/MSDK/wifi_manager\wifi_vif.c **** }
 1037              		.loc 1 475 1
 1038 0030 8280     		ret
 1039              		.cfi_endproc
 1040              	.LFE34:
 1042              		.section	.text.wifi_vif_name,"ax",@progbits
 1043              		.align	1
 1044              		.globl	wifi_vif_name
 1046              	wifi_vif_name:
 1047              	.LFB35:
 476:C:/Users/stapi/OneDrive/Desktop/GD32VW553/GD32VW55X_Wifi_BLE_SDK/GD32VW55x_RELEASE_V1.0.2/MSDK/wifi_manager\wifi_vif.c **** 
 477:C:/Users/stapi/OneDrive/Desktop/GD32VW553/GD32VW55X_Wifi_BLE_SDK/GD32VW55x_RELEASE_V1.0.2/MSDK/wifi_manager\wifi_vif.c **** /*!
 478:C:/Users/stapi/OneDrive/Desktop/GD32VW553/GD32VW55X_Wifi_BLE_SDK/GD32VW55x_RELEASE_V1.0.2/MSDK/wifi_manager\wifi_vif.c ****     \brief      Get name of the wifi vif
 479:C:/Users/stapi/OneDrive/Desktop/GD32VW553/GD32VW55X_Wifi_BLE_SDK/GD32VW55x_RELEASE_V1.0.2/MSDK/wifi_manager\wifi_vif.c ****     \param[in]  vif_idx: index of the wifi vif
 480:C:/Users/stapi/OneDrive/Desktop/GD32VW553/GD32VW55X_Wifi_BLE_SDK/GD32VW55x_RELEASE_V1.0.2/MSDK/wifi_manager\wifi_vif.c ****     \param[in]  len: length of buffer
 481:C:/Users/stapi/OneDrive/Desktop/GD32VW553/GD32VW55X_Wifi_BLE_SDK/GD32VW55x_RELEASE_V1.0.2/MSDK/wifi_manager\wifi_vif.c ****     \param[out] name: Buffer to write the wifi vif name
 482:C:/Users/stapi/OneDrive/Desktop/GD32VW553/GD32VW55X_Wifi_BLE_SDK/GD32VW55x_RELEASE_V1.0.2/MSDK/wifi_manager\wifi_vif.c ****     \retval     length of the wifi vif name on success and -1 if error occured.
 483:C:/Users/stapi/OneDrive/Desktop/GD32VW553/GD32VW55X_Wifi_BLE_SDK/GD32VW55x_RELEASE_V1.0.2/MSDK/wifi_manager\wifi_vif.c **** */
 484:C:/Users/stapi/OneDrive/Desktop/GD32VW553/GD32VW55X_Wifi_BLE_SDK/GD32VW55x_RELEASE_V1.0.2/MSDK/wifi_manager\wifi_vif.c **** int wifi_vif_name(int vif_idx, char *name, int len)
 485:C:/Users/stapi/OneDrive/Desktop/GD32VW553/GD32VW55X_Wifi_BLE_SDK/GD32VW55x_RELEASE_V1.0.2/MSDK/wifi_manager\wifi_vif.c **** {
 1048              		.loc 1 485 1 is_stmt 1
 1049              		.cfi_startproc
 1050              	.LVL100:
 486:C:/Users/stapi/OneDrive/Desktop/GD32VW553/GD32VW55X_Wifi_BLE_SDK/GD32VW55x_RELEASE_V1.0.2/MSDK/wifi_manager\wifi_vif.c ****     if (vif_idx > CFG_VIF_NUM)
 1051              		.loc 1 486 5
 1052              		.loc 1 486 8 is_stmt 0
 1053 0000 0947     		li	a4,2
 1054 0002 634FA700 		bgt	a0,a4,.L72
 1055 0006 AA87     		mv	a5,a0
 487:C:/Users/stapi/OneDrive/Desktop/GD32VW553/GD32VW55X_Wifi_BLE_SDK/GD32VW55x_RELEASE_V1.0.2/MSDK/wifi_manager\wifi_vif.c ****         return -1;
 488:C:/Users/stapi/OneDrive/Desktop/GD32VW553/GD32VW55X_Wifi_BLE_SDK/GD32VW55x_RELEASE_V1.0.2/MSDK/wifi_manager\wifi_vif.c **** 
 489:C:/Users/stapi/OneDrive/Desktop/GD32VW553/GD32VW55X_Wifi_BLE_SDK/GD32VW55x_RELEASE_V1.0.2/MSDK/wifi_manager\wifi_vif.c ****     return net_if_get_name(&wifi_vif_tab[vif_idx].net_if, name, len);
 1056              		.loc 1 489 5 is_stmt 1
 1057              		.loc 1 489 12 is_stmt 0
 1058 0008 37050000 		lui	a0,%hi(.LANCHOR0)
 1059              	.LVL101:
 1060 000c 1307800F 		li	a4,248
 1061 0010 13050500 		addi	a0,a0,%lo(.LANCHOR0)
 1062 0014 7F95E7C4 		maddr32	a0, a5, a4
 1063 0018 17030000 		tail	net_if_get_name
 1063      67000300 
 1064              	.LVL102:
 1065              	.L72:
 487:C:/Users/stapi/OneDrive/Desktop/GD32VW553/GD32VW55X_Wifi_BLE_SDK/GD32VW55x_RELEASE_V1.0.2/MSDK/wifi_manager\wifi_vif.c ****         return -1;
 1066              		.loc 1 487 16
 1067 0020 7D55     		li	a0,-1
 1068              	.LVL103:
 490:C:/Users/stapi/OneDrive/Desktop/GD32VW553/GD32VW55X_Wifi_BLE_SDK/GD32VW55x_RELEASE_V1.0.2/MSDK/wifi_manager\wifi_vif.c **** }
 1069              		.loc 1 490 1
 1070 0022 8280     		ret
 1071              		.cfi_endproc
 1072              	.LFE35:
 1074              		.section	.text.wifi_vif_user_addr_set,"ax",@progbits
 1075              		.align	1
 1076              		.globl	wifi_vif_user_addr_set
 1078              	wifi_vif_user_addr_set:
 1079              	.LFB36:
 491:C:/Users/stapi/OneDrive/Desktop/GD32VW553/GD32VW55X_Wifi_BLE_SDK/GD32VW55x_RELEASE_V1.0.2/MSDK/wifi_manager\wifi_vif.c **** 
 492:C:/Users/stapi/OneDrive/Desktop/GD32VW553/GD32VW55X_Wifi_BLE_SDK/GD32VW55x_RELEASE_V1.0.2/MSDK/wifi_manager\wifi_vif.c **** /*!
 493:C:/Users/stapi/OneDrive/Desktop/GD32VW553/GD32VW55X_Wifi_BLE_SDK/GD32VW55x_RELEASE_V1.0.2/MSDK/wifi_manager\wifi_vif.c ****     \brief      Set mac address of the wifi vif
 494:C:/Users/stapi/OneDrive/Desktop/GD32VW553/GD32VW55X_Wifi_BLE_SDK/GD32VW55x_RELEASE_V1.0.2/MSDK/wifi_manager\wifi_vif.c ****     \param[in]  user_addr: pointer to the user MAC address of the device (from which all
 495:C:/Users/stapi/OneDrive/Desktop/GD32VW553/GD32VW55X_Wifi_BLE_SDK/GD32VW55x_RELEASE_V1.0.2/MSDK/wifi_manager\wifi_vif.c ****                            VIF MAC addresses are computed)
 496:C:/Users/stapi/OneDrive/Desktop/GD32VW553/GD32VW55X_Wifi_BLE_SDK/GD32VW55x_RELEASE_V1.0.2/MSDK/wifi_manager\wifi_vif.c ****     \param[out] none
 497:C:/Users/stapi/OneDrive/Desktop/GD32VW553/GD32VW55X_Wifi_BLE_SDK/GD32VW55x_RELEASE_V1.0.2/MSDK/wifi_manager\wifi_vif.c ****     \retval     none
 498:C:/Users/stapi/OneDrive/Desktop/GD32VW553/GD32VW55X_Wifi_BLE_SDK/GD32VW55x_RELEASE_V1.0.2/MSDK/wifi_manager\wifi_vif.c **** */
 499:C:/Users/stapi/OneDrive/Desktop/GD32VW553/GD32VW55X_Wifi_BLE_SDK/GD32VW55x_RELEASE_V1.0.2/MSDK/wifi_manager\wifi_vif.c **** void wifi_vif_user_addr_set(uint8_t *user_addr)
 500:C:/Users/stapi/OneDrive/Desktop/GD32VW553/GD32VW55X_Wifi_BLE_SDK/GD32VW55x_RELEASE_V1.0.2/MSDK/wifi_manager\wifi_vif.c **** {
 1080              		.loc 1 500 1 is_stmt 1
 1081              		.cfi_startproc
 1082              	.LVL104:
 501:C:/Users/stapi/OneDrive/Desktop/GD32VW553/GD32VW55X_Wifi_BLE_SDK/GD32VW55x_RELEASE_V1.0.2/MSDK/wifi_manager\wifi_vif.c ****     macif_user_mac_addr_set(user_addr);
 1083              		.loc 1 501 5
 1084 0000 17030000 		tail	macif_user_mac_addr_set
 1084      67000300 
 1085              	.LVL105:
 1086              		.cfi_endproc
 1087              	.LFE36:
 1089              		.section	.text.wifi_vif_idx_from_name,"ax",@progbits
 1090              		.align	1
 1091              		.globl	wifi_vif_idx_from_name
 1093              	wifi_vif_idx_from_name:
 1094              	.LFB37:
 502:C:/Users/stapi/OneDrive/Desktop/GD32VW553/GD32VW55X_Wifi_BLE_SDK/GD32VW55x_RELEASE_V1.0.2/MSDK/wifi_manager\wifi_vif.c **** }
 503:C:/Users/stapi/OneDrive/Desktop/GD32VW553/GD32VW55X_Wifi_BLE_SDK/GD32VW55x_RELEASE_V1.0.2/MSDK/wifi_manager\wifi_vif.c **** 
 504:C:/Users/stapi/OneDrive/Desktop/GD32VW553/GD32VW55X_Wifi_BLE_SDK/GD32VW55x_RELEASE_V1.0.2/MSDK/wifi_manager\wifi_vif.c **** #ifndef CONFIG_WPA_SUPPLICANT
 505:C:/Users/stapi/OneDrive/Desktop/GD32VW553/GD32VW55X_Wifi_BLE_SDK/GD32VW55x_RELEASE_V1.0.2/MSDK/wifi_manager\wifi_vif.c **** /*!
 506:C:/Users/stapi/OneDrive/Desktop/GD32VW553/GD32VW55X_Wifi_BLE_SDK/GD32VW55x_RELEASE_V1.0.2/MSDK/wifi_manager\wifi_vif.c ****     \brief      Check if a client is connected to the softap
 507:C:/Users/stapi/OneDrive/Desktop/GD32VW553/GD32VW55X_Wifi_BLE_SDK/GD32VW55x_RELEASE_V1.0.2/MSDK/wifi_manager\wifi_vif.c ****     \param[in]  ap: pointer to the softap
 508:C:/Users/stapi/OneDrive/Desktop/GD32VW553/GD32VW55X_Wifi_BLE_SDK/GD32VW55x_RELEASE_V1.0.2/MSDK/wifi_manager\wifi_vif.c ****     \param[in]  sa: pointer to the mac address of the client
 509:C:/Users/stapi/OneDrive/Desktop/GD32VW553/GD32VW55X_Wifi_BLE_SDK/GD32VW55x_RELEASE_V1.0.2/MSDK/wifi_manager\wifi_vif.c ****     \param[out] none
 510:C:/Users/stapi/OneDrive/Desktop/GD32VW553/GD32VW55X_Wifi_BLE_SDK/GD32VW55x_RELEASE_V1.0.2/MSDK/wifi_manager\wifi_vif.c ****     \retval     true if is connected and false otherwise.
 511:C:/Users/stapi/OneDrive/Desktop/GD32VW553/GD32VW55X_Wifi_BLE_SDK/GD32VW55x_RELEASE_V1.0.2/MSDK/wifi_manager\wifi_vif.c **** */
 512:C:/Users/stapi/OneDrive/Desktop/GD32VW553/GD32VW55X_Wifi_BLE_SDK/GD32VW55x_RELEASE_V1.0.2/MSDK/wifi_manager\wifi_vif.c **** int wifi_vif_is_cli_connected(struct wpas_ap *ap, uint8_t *sa)
 513:C:/Users/stapi/OneDrive/Desktop/GD32VW553/GD32VW55X_Wifi_BLE_SDK/GD32VW55x_RELEASE_V1.0.2/MSDK/wifi_manager\wifi_vif.c **** {
 514:C:/Users/stapi/OneDrive/Desktop/GD32VW553/GD32VW55X_Wifi_BLE_SDK/GD32VW55x_RELEASE_V1.0.2/MSDK/wifi_manager\wifi_vif.c ****     struct ap_cli *cli = ap->cli;
 515:C:/Users/stapi/OneDrive/Desktop/GD32VW553/GD32VW55X_Wifi_BLE_SDK/GD32VW55x_RELEASE_V1.0.2/MSDK/wifi_manager\wifi_vif.c **** 
 516:C:/Users/stapi/OneDrive/Desktop/GD32VW553/GD32VW55X_Wifi_BLE_SDK/GD32VW55x_RELEASE_V1.0.2/MSDK/wifi_manager\wifi_vif.c ****     while (cli) {
 517:C:/Users/stapi/OneDrive/Desktop/GD32VW553/GD32VW55X_Wifi_BLE_SDK/GD32VW55x_RELEASE_V1.0.2/MSDK/wifi_manager\wifi_vif.c ****         if (sys_memcmp((uint8_t *)cli->addr.array, sa, WIFI_ALEN) == 0) {
 518:C:/Users/stapi/OneDrive/Desktop/GD32VW553/GD32VW55X_Wifi_BLE_SDK/GD32VW55x_RELEASE_V1.0.2/MSDK/wifi_manager\wifi_vif.c ****             if (cli->cli_state == WIFI_STA_STATE_CONNECTED) {
 519:C:/Users/stapi/OneDrive/Desktop/GD32VW553/GD32VW55X_Wifi_BLE_SDK/GD32VW55x_RELEASE_V1.0.2/MSDK/wifi_manager\wifi_vif.c ****                 return true;
 520:C:/Users/stapi/OneDrive/Desktop/GD32VW553/GD32VW55X_Wifi_BLE_SDK/GD32VW55x_RELEASE_V1.0.2/MSDK/wifi_manager\wifi_vif.c ****             }
 521:C:/Users/stapi/OneDrive/Desktop/GD32VW553/GD32VW55X_Wifi_BLE_SDK/GD32VW55x_RELEASE_V1.0.2/MSDK/wifi_manager\wifi_vif.c ****         }
 522:C:/Users/stapi/OneDrive/Desktop/GD32VW553/GD32VW55X_Wifi_BLE_SDK/GD32VW55x_RELEASE_V1.0.2/MSDK/wifi_manager\wifi_vif.c ****         cli = cli->next;
 523:C:/Users/stapi/OneDrive/Desktop/GD32VW553/GD32VW55X_Wifi_BLE_SDK/GD32VW55x_RELEASE_V1.0.2/MSDK/wifi_manager\wifi_vif.c ****     }
 524:C:/Users/stapi/OneDrive/Desktop/GD32VW553/GD32VW55X_Wifi_BLE_SDK/GD32VW55x_RELEASE_V1.0.2/MSDK/wifi_manager\wifi_vif.c ****     return false;
 525:C:/Users/stapi/OneDrive/Desktop/GD32VW553/GD32VW55X_Wifi_BLE_SDK/GD32VW55x_RELEASE_V1.0.2/MSDK/wifi_manager\wifi_vif.c **** }
 526:C:/Users/stapi/OneDrive/Desktop/GD32VW553/GD32VW55X_Wifi_BLE_SDK/GD32VW55x_RELEASE_V1.0.2/MSDK/wifi_manager\wifi_vif.c **** 
 527:C:/Users/stapi/OneDrive/Desktop/GD32VW553/GD32VW55X_Wifi_BLE_SDK/GD32VW55x_RELEASE_V1.0.2/MSDK/wifi_manager\wifi_vif.c **** /*!
 528:C:/Users/stapi/OneDrive/Desktop/GD32VW553/GD32VW55X_Wifi_BLE_SDK/GD32VW55x_RELEASE_V1.0.2/MSDK/wifi_manager\wifi_vif.c ****     \brief      Set type of the wifi vif
 529:C:/Users/stapi/OneDrive/Desktop/GD32VW553/GD32VW55X_Wifi_BLE_SDK/GD32VW55x_RELEASE_V1.0.2/MSDK/wifi_manager\wifi_vif.c ****     \param[in]  vif_idx: index of the wifi vif
 530:C:/Users/stapi/OneDrive/Desktop/GD32VW553/GD32VW55X_Wifi_BLE_SDK/GD32VW55x_RELEASE_V1.0.2/MSDK/wifi_manager\wifi_vif.c ****     \param[in]  wvif_type: type of the wifi vif, refer to enum wifi_vif_type
 531:C:/Users/stapi/OneDrive/Desktop/GD32VW553/GD32VW55X_Wifi_BLE_SDK/GD32VW55x_RELEASE_V1.0.2/MSDK/wifi_manager\wifi_vif.c ****     \param[out] none
 532:C:/Users/stapi/OneDrive/Desktop/GD32VW553/GD32VW55X_Wifi_BLE_SDK/GD32VW55x_RELEASE_V1.0.2/MSDK/wifi_manager\wifi_vif.c ****     \retval     0 on success and != 0 if error occured.
 533:C:/Users/stapi/OneDrive/Desktop/GD32VW553/GD32VW55X_Wifi_BLE_SDK/GD32VW55x_RELEASE_V1.0.2/MSDK/wifi_manager\wifi_vif.c **** */
 534:C:/Users/stapi/OneDrive/Desktop/GD32VW553/GD32VW55X_Wifi_BLE_SDK/GD32VW55x_RELEASE_V1.0.2/MSDK/wifi_manager\wifi_vif.c **** int wifi_vif_type_set(int vif_idx, enum wifi_vif_type wvif_type)
 535:C:/Users/stapi/OneDrive/Desktop/GD32VW553/GD32VW55X_Wifi_BLE_SDK/GD32VW55x_RELEASE_V1.0.2/MSDK/wifi_manager\wifi_vif.c **** {
 536:C:/Users/stapi/OneDrive/Desktop/GD32VW553/GD32VW55X_Wifi_BLE_SDK/GD32VW55x_RELEASE_V1.0.2/MSDK/wifi_manager\wifi_vif.c ****     struct macif_cmd_set_vif_type cmd;
 537:C:/Users/stapi/OneDrive/Desktop/GD32VW553/GD32VW55X_Wifi_BLE_SDK/GD32VW55x_RELEASE_V1.0.2/MSDK/wifi_manager\wifi_vif.c ****     struct macif_cmd_resp resp;
 538:C:/Users/stapi/OneDrive/Desktop/GD32VW553/GD32VW55X_Wifi_BLE_SDK/GD32VW55x_RELEASE_V1.0.2/MSDK/wifi_manager\wifi_vif.c **** 
 539:C:/Users/stapi/OneDrive/Desktop/GD32VW553/GD32VW55X_Wifi_BLE_SDK/GD32VW55x_RELEASE_V1.0.2/MSDK/wifi_manager\wifi_vif.c ****     if (vif_idx >= CFG_VIF_NUM)
 540:C:/Users/stapi/OneDrive/Desktop/GD32VW553/GD32VW55X_Wifi_BLE_SDK/GD32VW55x_RELEASE_V1.0.2/MSDK/wifi_manager\wifi_vif.c ****         return -1;
 541:C:/Users/stapi/OneDrive/Desktop/GD32VW553/GD32VW55X_Wifi_BLE_SDK/GD32VW55x_RELEASE_V1.0.2/MSDK/wifi_manager\wifi_vif.c **** 
 542:C:/Users/stapi/OneDrive/Desktop/GD32VW553/GD32VW55X_Wifi_BLE_SDK/GD32VW55x_RELEASE_V1.0.2/MSDK/wifi_manager\wifi_vif.c ****     // Change type of the associated MAC vif
 543:C:/Users/stapi/OneDrive/Desktop/GD32VW553/GD32VW55X_Wifi_BLE_SDK/GD32VW55x_RELEASE_V1.0.2/MSDK/wifi_manager\wifi_vif.c ****     cmd.hdr.len = sizeof(cmd);
 544:C:/Users/stapi/OneDrive/Desktop/GD32VW553/GD32VW55X_Wifi_BLE_SDK/GD32VW55x_RELEASE_V1.0.2/MSDK/wifi_manager\wifi_vif.c ****     cmd.hdr.id = MACIF_SET_VIF_TYPE_CMD;
 545:C:/Users/stapi/OneDrive/Desktop/GD32VW553/GD32VW55X_Wifi_BLE_SDK/GD32VW55x_RELEASE_V1.0.2/MSDK/wifi_manager\wifi_vif.c ****     cmd.vif_idx = vif_idx;
 546:C:/Users/stapi/OneDrive/Desktop/GD32VW553/GD32VW55X_Wifi_BLE_SDK/GD32VW55x_RELEASE_V1.0.2/MSDK/wifi_manager\wifi_vif.c ****     cmd.type = wvif_type_to_mvif_type(wvif_type);
 547:C:/Users/stapi/OneDrive/Desktop/GD32VW553/GD32VW55X_Wifi_BLE_SDK/GD32VW55x_RELEASE_V1.0.2/MSDK/wifi_manager\wifi_vif.c **** 
 548:C:/Users/stapi/OneDrive/Desktop/GD32VW553/GD32VW55X_Wifi_BLE_SDK/GD32VW55x_RELEASE_V1.0.2/MSDK/wifi_manager\wifi_vif.c ****     if (macif_ctl_cmd_execute(&cmd.hdr, &resp.hdr)
 549:C:/Users/stapi/OneDrive/Desktop/GD32VW553/GD32VW55X_Wifi_BLE_SDK/GD32VW55x_RELEASE_V1.0.2/MSDK/wifi_manager\wifi_vif.c ****         || resp.status != MACIF_STATUS_SUCCESS) {
 550:C:/Users/stapi/OneDrive/Desktop/GD32VW553/GD32VW55X_Wifi_BLE_SDK/GD32VW55x_RELEASE_V1.0.2/MSDK/wifi_manager\wifi_vif.c ****         return -1;
 551:C:/Users/stapi/OneDrive/Desktop/GD32VW553/GD32VW55X_Wifi_BLE_SDK/GD32VW55x_RELEASE_V1.0.2/MSDK/wifi_manager\wifi_vif.c ****     }
 552:C:/Users/stapi/OneDrive/Desktop/GD32VW553/GD32VW55X_Wifi_BLE_SDK/GD32VW55x_RELEASE_V1.0.2/MSDK/wifi_manager\wifi_vif.c ****     return 0;
 553:C:/Users/stapi/OneDrive/Desktop/GD32VW553/GD32VW55X_Wifi_BLE_SDK/GD32VW55x_RELEASE_V1.0.2/MSDK/wifi_manager\wifi_vif.c **** }
 554:C:/Users/stapi/OneDrive/Desktop/GD32VW553/GD32VW55X_Wifi_BLE_SDK/GD32VW55x_RELEASE_V1.0.2/MSDK/wifi_manager\wifi_vif.c **** 
 555:C:/Users/stapi/OneDrive/Desktop/GD32VW553/GD32VW55X_Wifi_BLE_SDK/GD32VW55x_RELEASE_V1.0.2/MSDK/wifi_manager\wifi_vif.c **** #else /* CONFIG_WPA_SUPPLICANT */
 556:C:/Users/stapi/OneDrive/Desktop/GD32VW553/GD32VW55X_Wifi_BLE_SDK/GD32VW55x_RELEASE_V1.0.2/MSDK/wifi_manager\wifi_vif.c **** 
 557:C:/Users/stapi/OneDrive/Desktop/GD32VW553/GD32VW55X_Wifi_BLE_SDK/GD32VW55x_RELEASE_V1.0.2/MSDK/wifi_manager\wifi_vif.c **** /*!
 558:C:/Users/stapi/OneDrive/Desktop/GD32VW553/GD32VW55X_Wifi_BLE_SDK/GD32VW55x_RELEASE_V1.0.2/MSDK/wifi_manager\wifi_vif.c ****     \brief      Get index of the wifi vif
 559:C:/Users/stapi/OneDrive/Desktop/GD32VW553/GD32VW55X_Wifi_BLE_SDK/GD32VW55x_RELEASE_V1.0.2/MSDK/wifi_manager\wifi_vif.c ****     \param[in]  name: pointer to the name of the wifi vif
 560:C:/Users/stapi/OneDrive/Desktop/GD32VW553/GD32VW55X_Wifi_BLE_SDK/GD32VW55x_RELEASE_V1.0.2/MSDK/wifi_manager\wifi_vif.c ****     \param[out] none
 561:C:/Users/stapi/OneDrive/Desktop/GD32VW553/GD32VW55X_Wifi_BLE_SDK/GD32VW55x_RELEASE_V1.0.2/MSDK/wifi_manager\wifi_vif.c ****     \retval     index of the wifi vif on success and -1 if error occured.
 562:C:/Users/stapi/OneDrive/Desktop/GD32VW553/GD32VW55X_Wifi_BLE_SDK/GD32VW55x_RELEASE_V1.0.2/MSDK/wifi_manager\wifi_vif.c **** */
 563:C:/Users/stapi/OneDrive/Desktop/GD32VW553/GD32VW55X_Wifi_BLE_SDK/GD32VW55x_RELEASE_V1.0.2/MSDK/wifi_manager\wifi_vif.c **** int wifi_vif_idx_from_name(const char *name)
 564:C:/Users/stapi/OneDrive/Desktop/GD32VW553/GD32VW55X_Wifi_BLE_SDK/GD32VW55x_RELEASE_V1.0.2/MSDK/wifi_manager\wifi_vif.c **** {
 1095              		.loc 1 564 1
 1096              		.cfi_startproc
 1097              	.LVL106:
 565:C:/Users/stapi/OneDrive/Desktop/GD32VW553/GD32VW55X_Wifi_BLE_SDK/GD32VW55x_RELEASE_V1.0.2/MSDK/wifi_manager\wifi_vif.c ****     struct netif *net_if;
 1098              		.loc 1 565 5
 566:C:/Users/stapi/OneDrive/Desktop/GD32VW553/GD32VW55X_Wifi_BLE_SDK/GD32VW55x_RELEASE_V1.0.2/MSDK/wifi_manager\wifi_vif.c ****     int i;
 1099              		.loc 1 566 5
 567:C:/Users/stapi/OneDrive/Desktop/GD32VW553/GD32VW55X_Wifi_BLE_SDK/GD32VW55x_RELEASE_V1.0.2/MSDK/wifi_manager\wifi_vif.c **** 
 568:C:/Users/stapi/OneDrive/Desktop/GD32VW553/GD32VW55X_Wifi_BLE_SDK/GD32VW55x_RELEASE_V1.0.2/MSDK/wifi_manager\wifi_vif.c ****     if (name == NULL)
 1100              		.loc 1 568 5
 1101              		.loc 1 568 8 is_stmt 0
 1102 0000 05CD     		beq	a0,zero,.L91
 564:C:/Users/stapi/OneDrive/Desktop/GD32VW553/GD32VW55X_Wifi_BLE_SDK/GD32VW55x_RELEASE_V1.0.2/MSDK/wifi_manager\wifi_vif.c ****     struct netif *net_if;
 1103              		.loc 1 564 1
 1104 0002 17030000 		call	t0,__riscv_save_0
 1104      E7020300 
 1105              		.cfi_offset 1, -4
 1106              		.cfi_def_cfa_offset 16
 569:C:/Users/stapi/OneDrive/Desktop/GD32VW553/GD32VW55X_Wifi_BLE_SDK/GD32VW55x_RELEASE_V1.0.2/MSDK/wifi_manager\wifi_vif.c ****         return -1;
 570:C:/Users/stapi/OneDrive/Desktop/GD32VW553/GD32VW55X_Wifi_BLE_SDK/GD32VW55x_RELEASE_V1.0.2/MSDK/wifi_manager\wifi_vif.c **** 
 571:C:/Users/stapi/OneDrive/Desktop/GD32VW553/GD32VW55X_Wifi_BLE_SDK/GD32VW55x_RELEASE_V1.0.2/MSDK/wifi_manager\wifi_vif.c ****     net_if = (struct netif *)net_if_find_from_name(name);
 1107              		.loc 1 571 5 is_stmt 1
 1108              		.loc 1 571 30 is_stmt 0
 1109 000a 97000000 		call	net_if_find_from_name
 1109      E7800000 
 1110              	.LVL107:
 1111 0012 2A87     		mv	a4,a0
 1112              	.LVL108:
 572:C:/Users/stapi/OneDrive/Desktop/GD32VW553/GD32VW55X_Wifi_BLE_SDK/GD32VW55x_RELEASE_V1.0.2/MSDK/wifi_manager\wifi_vif.c ****     if (!net_if)
 1113              		.loc 1 572 5 is_stmt 1
 1114              		.loc 1 572 8 is_stmt 0
 1115 0014 09CD     		beq	a0,zero,.L80
 1116              	.LVL109:
 573:C:/Users/stapi/OneDrive/Desktop/GD32VW553/GD32VW55X_Wifi_BLE_SDK/GD32VW55x_RELEASE_V1.0.2/MSDK/wifi_manager\wifi_vif.c ****         return -1;
 574:C:/Users/stapi/OneDrive/Desktop/GD32VW553/GD32VW55X_Wifi_BLE_SDK/GD32VW55x_RELEASE_V1.0.2/MSDK/wifi_manager\wifi_vif.c **** 
 575:C:/Users/stapi/OneDrive/Desktop/GD32VW553/GD32VW55X_Wifi_BLE_SDK/GD32VW55x_RELEASE_V1.0.2/MSDK/wifi_manager\wifi_vif.c ****     for (i = 0; i < CFG_VIF_NUM; i++)
 1117              		.loc 1 575 17 is_stmt 1
 576:C:/Users/stapi/OneDrive/Desktop/GD32VW553/GD32VW55X_Wifi_BLE_SDK/GD32VW55x_RELEASE_V1.0.2/MSDK/wifi_manager\wifi_vif.c ****     {
 577:C:/Users/stapi/OneDrive/Desktop/GD32VW553/GD32VW55X_Wifi_BLE_SDK/GD32VW55x_RELEASE_V1.0.2/MSDK/wifi_manager\wifi_vif.c ****         if (&(wifi_vif_tab[i].net_if) == net_if)
 1118              		.loc 1 577 9
 1119              		.loc 1 577 12 is_stmt 0
 1120 0016 B7070000 		lui	a5,%hi(.LANCHOR0)
 1121 001a 93870700 		addi	a5,a5,%lo(.LANCHOR0)
 575:C:/Users/stapi/OneDrive/Desktop/GD32VW553/GD32VW55X_Wifi_BLE_SDK/GD32VW55x_RELEASE_V1.0.2/MSDK/wifi_manager\wifi_vif.c ****     {
 1122              		.loc 1 575 12
 1123 001e 0145     		li	a0,0
 1124              	.LVL110:
 1125              		.loc 1 577 12
 1126 0020 6308F700 		beq	a4,a5,.L79
 575:C:/Users/stapi/OneDrive/Desktop/GD32VW553/GD32VW55X_Wifi_BLE_SDK/GD32VW55x_RELEASE_V1.0.2/MSDK/wifi_manager\wifi_vif.c ****     {
 1127              		.loc 1 575 34 is_stmt 1
 1128              	.LVL111:
 575:C:/Users/stapi/OneDrive/Desktop/GD32VW553/GD32VW55X_Wifi_BLE_SDK/GD32VW55x_RELEASE_V1.0.2/MSDK/wifi_manager\wifi_vif.c ****     {
 1129              		.loc 1 575 17
 1130              		.loc 1 577 9
 1131              		.loc 1 577 12 is_stmt 0
 1132 0024 9387870F 		addi	a5,a5,248
 575:C:/Users/stapi/OneDrive/Desktop/GD32VW553/GD32VW55X_Wifi_BLE_SDK/GD32VW55x_RELEASE_V1.0.2/MSDK/wifi_manager\wifi_vif.c ****     {
 1133              		.loc 1 575 35
 1134 0028 0545     		li	a0,1
 1135              		.loc 1 577 12
 1136 002a 6303F700 		beq	a4,a5,.L79
 1137              	.LVL112:
 1138              	.L80:
 575:C:/Users/stapi/OneDrive/Desktop/GD32VW553/GD32VW55X_Wifi_BLE_SDK/GD32VW55x_RELEASE_V1.0.2/MSDK/wifi_manager\wifi_vif.c ****     {
 1139              		.loc 1 575 34 is_stmt 1
 575:C:/Users/stapi/OneDrive/Desktop/GD32VW553/GD32VW55X_Wifi_BLE_SDK/GD32VW55x_RELEASE_V1.0.2/MSDK/wifi_manager\wifi_vif.c ****     {
 1140              		.loc 1 575 17
 578:C:/Users/stapi/OneDrive/Desktop/GD32VW553/GD32VW55X_Wifi_BLE_SDK/GD32VW55x_RELEASE_V1.0.2/MSDK/wifi_manager\wifi_vif.c ****             return i;
 579:C:/Users/stapi/OneDrive/Desktop/GD32VW553/GD32VW55X_Wifi_BLE_SDK/GD32VW55x_RELEASE_V1.0.2/MSDK/wifi_manager\wifi_vif.c ****     }
 580:C:/Users/stapi/OneDrive/Desktop/GD32VW553/GD32VW55X_Wifi_BLE_SDK/GD32VW55x_RELEASE_V1.0.2/MSDK/wifi_manager\wifi_vif.c **** 
 581:C:/Users/stapi/OneDrive/Desktop/GD32VW553/GD32VW55X_Wifi_BLE_SDK/GD32VW55x_RELEASE_V1.0.2/MSDK/wifi_manager\wifi_vif.c ****     return -1;
 1141              		.loc 1 581 12 is_stmt 0
 1142 002e 7D55     		li	a0,-1
 1143              	.LVL113:
 1144              	.L79:
 582:C:/Users/stapi/OneDrive/Desktop/GD32VW553/GD32VW55X_Wifi_BLE_SDK/GD32VW55x_RELEASE_V1.0.2/MSDK/wifi_manager\wifi_vif.c **** }
 1145              		.loc 1 582 1
 1146 0030 17030000 		tail	__riscv_restore_0
 1146      67000300 
 1147              		.cfi_restore 1
 1148              		.cfi_def_cfa_offset 0
 1149              	.LVL114:
 1150              	.L91:
 575:C:/Users/stapi/OneDrive/Desktop/GD32VW553/GD32VW55X_Wifi_BLE_SDK/GD32VW55x_RELEASE_V1.0.2/MSDK/wifi_manager\wifi_vif.c ****     {
 1151              		.loc 1 575 34 is_stmt 1
 575:C:/Users/stapi/OneDrive/Desktop/GD32VW553/GD32VW55X_Wifi_BLE_SDK/GD32VW55x_RELEASE_V1.0.2/MSDK/wifi_manager\wifi_vif.c ****     {
 1152              		.loc 1 575 17
 581:C:/Users/stapi/OneDrive/Desktop/GD32VW553/GD32VW55X_Wifi_BLE_SDK/GD32VW55x_RELEASE_V1.0.2/MSDK/wifi_manager\wifi_vif.c **** }
 1153              		.loc 1 581 12 is_stmt 0
 1154 0038 7D55     		li	a0,-1
 1155              	.LVL115:
 1156              		.loc 1 582 1
 1157 003a 8280     		ret
 1158              		.cfi_endproc
 1159              	.LFE37:
 1161              		.section	.text.wifi_vif_type_set,"ax",@progbits
 1162              		.align	1
 1163              		.globl	wifi_vif_type_set
 1165              	wifi_vif_type_set:
 1166              	.LFB38:
 583:C:/Users/stapi/OneDrive/Desktop/GD32VW553/GD32VW55X_Wifi_BLE_SDK/GD32VW55x_RELEASE_V1.0.2/MSDK/wifi_manager\wifi_vif.c **** 
 584:C:/Users/stapi/OneDrive/Desktop/GD32VW553/GD32VW55X_Wifi_BLE_SDK/GD32VW55x_RELEASE_V1.0.2/MSDK/wifi_manager\wifi_vif.c **** /*!
 585:C:/Users/stapi/OneDrive/Desktop/GD32VW553/GD32VW55X_Wifi_BLE_SDK/GD32VW55x_RELEASE_V1.0.2/MSDK/wifi_manager\wifi_vif.c ****     \brief      Set type of the wifi vif
 586:C:/Users/stapi/OneDrive/Desktop/GD32VW553/GD32VW55X_Wifi_BLE_SDK/GD32VW55x_RELEASE_V1.0.2/MSDK/wifi_manager\wifi_vif.c ****     \param[in]  vif_idx: index of the wifi vif
 587:C:/Users/stapi/OneDrive/Desktop/GD32VW553/GD32VW55X_Wifi_BLE_SDK/GD32VW55x_RELEASE_V1.0.2/MSDK/wifi_manager\wifi_vif.c ****     \param[in]  wvif_type: type of the wifi vif, refer to enum wifi_vif_type
 588:C:/Users/stapi/OneDrive/Desktop/GD32VW553/GD32VW55X_Wifi_BLE_SDK/GD32VW55x_RELEASE_V1.0.2/MSDK/wifi_manager\wifi_vif.c ****     \param[out] none
 589:C:/Users/stapi/OneDrive/Desktop/GD32VW553/GD32VW55X_Wifi_BLE_SDK/GD32VW55x_RELEASE_V1.0.2/MSDK/wifi_manager\wifi_vif.c ****     \retval     0 on success and != 0 if error occured.
 590:C:/Users/stapi/OneDrive/Desktop/GD32VW553/GD32VW55X_Wifi_BLE_SDK/GD32VW55x_RELEASE_V1.0.2/MSDK/wifi_manager\wifi_vif.c **** */
 591:C:/Users/stapi/OneDrive/Desktop/GD32VW553/GD32VW55X_Wifi_BLE_SDK/GD32VW55x_RELEASE_V1.0.2/MSDK/wifi_manager\wifi_vif.c **** int wifi_vif_type_set(int vif_idx, enum wifi_vif_type wvif_type)
 592:C:/Users/stapi/OneDrive/Desktop/GD32VW553/GD32VW55X_Wifi_BLE_SDK/GD32VW55x_RELEASE_V1.0.2/MSDK/wifi_manager\wifi_vif.c **** {
 1167              		.loc 1 592 1 is_stmt 1
 1168              		.cfi_startproc
 1169              	.LVL116:
 1170 0000 17030000 		call	t0,__riscv_save_0
 1170      E7020300 
 1171              		.cfi_offset 1, -4
 1172              		.cfi_def_cfa_offset 16
 593:C:/Users/stapi/OneDrive/Desktop/GD32VW553/GD32VW55X_Wifi_BLE_SDK/GD32VW55x_RELEASE_V1.0.2/MSDK/wifi_manager\wifi_vif.c ****     struct macif_cmd_set_vif_type cmd;
 1173              		.loc 1 593 5
 594:C:/Users/stapi/OneDrive/Desktop/GD32VW553/GD32VW55X_Wifi_BLE_SDK/GD32VW55x_RELEASE_V1.0.2/MSDK/wifi_manager\wifi_vif.c ****     struct macif_cmd_resp resp;
 1174              		.loc 1 594 5
 595:C:/Users/stapi/OneDrive/Desktop/GD32VW553/GD32VW55X_Wifi_BLE_SDK/GD32VW55x_RELEASE_V1.0.2/MSDK/wifi_manager\wifi_vif.c **** 
 596:C:/Users/stapi/OneDrive/Desktop/GD32VW553/GD32VW55X_Wifi_BLE_SDK/GD32VW55x_RELEASE_V1.0.2/MSDK/wifi_manager\wifi_vif.c ****     cmd.hdr.len = sizeof(cmd);
 1175              		.loc 1 596 5
 597:C:/Users/stapi/OneDrive/Desktop/GD32VW553/GD32VW55X_Wifi_BLE_SDK/GD32VW55x_RELEASE_V1.0.2/MSDK/wifi_manager\wifi_vif.c ****     cmd.hdr.id = MACIF_SET_VIF_TYPE_CMD;
 1176              		.loc 1 597 5
 592:C:/Users/stapi/OneDrive/Desktop/GD32VW553/GD32VW55X_Wifi_BLE_SDK/GD32VW55x_RELEASE_V1.0.2/MSDK/wifi_manager\wifi_vif.c ****     struct macif_cmd_set_vif_type cmd;
 1177              		.loc 1 592 1 is_stmt 0
 1178 0008 0111     		addi	sp,sp,-32
 1179              		.cfi_def_cfa_offset 48
 596:C:/Users/stapi/OneDrive/Desktop/GD32VW553/GD32VW55X_Wifi_BLE_SDK/GD32VW55x_RELEASE_V1.0.2/MSDK/wifi_manager\wifi_vif.c ****     cmd.hdr.id = MACIF_SET_VIF_TYPE_CMD;
 1180              		.loc 1 596 17
 1181 000a B7070B00 		li	a5,720896
 1182 000e D107     		addi	a5,a5,20
 598:C:/Users/stapi/OneDrive/Desktop/GD32VW553/GD32VW55X_Wifi_BLE_SDK/GD32VW55x_RELEASE_V1.0.2/MSDK/wifi_manager\wifi_vif.c ****     cmd.vif_idx = vif_idx;
 1183              		.loc 1 598 17
 1184 0010 2ACA     		sw	a0,20(sp)
 599:C:/Users/stapi/OneDrive/Desktop/GD32VW553/GD32VW55X_Wifi_BLE_SDK/GD32VW55x_RELEASE_V1.0.2/MSDK/wifi_manager\wifi_vif.c ****     cmd.type = wvif_type_to_mvif_type(wvif_type);
 1185              		.loc 1 599 16
 1186 0012 2E85     		mv	a0,a1
 1187              	.LVL117:
 596:C:/Users/stapi/OneDrive/Desktop/GD32VW553/GD32VW55X_Wifi_BLE_SDK/GD32VW55x_RELEASE_V1.0.2/MSDK/wifi_manager\wifi_vif.c ****     cmd.hdr.id = MACIF_SET_VIF_TYPE_CMD;
 1188              		.loc 1 596 17
 1189 0014 3EC8     		sw	a5,16(sp)
 598:C:/Users/stapi/OneDrive/Desktop/GD32VW553/GD32VW55X_Wifi_BLE_SDK/GD32VW55x_RELEASE_V1.0.2/MSDK/wifi_manager\wifi_vif.c ****     cmd.vif_idx = vif_idx;
 1190              		.loc 1 598 5 is_stmt 1
 1191              		.loc 1 599 5
 1192              		.loc 1 599 16 is_stmt 0
 1193 0016 97000000 		call	wvif_type_to_mvif_type
 1193      E7800000 
 1194              	.LVL118:
 1195              		.loc 1 599 14
 1196 001e 2ACC     		sw	a0,24(sp)
 600:C:/Users/stapi/OneDrive/Desktop/GD32VW553/GD32VW55X_Wifi_BLE_SDK/GD32VW55x_RELEASE_V1.0.2/MSDK/wifi_manager\wifi_vif.c ****     cmd.p2p = 0;
 1197              		.loc 1 600 5 is_stmt 1
 601:C:/Users/stapi/OneDrive/Desktop/GD32VW553/GD32VW55X_Wifi_BLE_SDK/GD32VW55x_RELEASE_V1.0.2/MSDK/wifi_manager\wifi_vif.c **** 
 602:C:/Users/stapi/OneDrive/Desktop/GD32VW553/GD32VW55X_Wifi_BLE_SDK/GD32VW55x_RELEASE_V1.0.2/MSDK/wifi_manager\wifi_vif.c ****     if (macif_cntrl_cmd_send_cli(&cmd.hdr, &resp.hdr) ||
 1198              		.loc 1 602 9 is_stmt 0
 1199 0020 8A85     		mv	a1,sp
 1200 0022 6800     		addi	a0,sp,12
 600:C:/Users/stapi/OneDrive/Desktop/GD32VW553/GD32VW55X_Wifi_BLE_SDK/GD32VW55x_RELEASE_V1.0.2/MSDK/wifi_manager\wifi_vif.c ****     cmd.p2p = 0;
 1201              		.loc 1 600 13
 1202 0024 230E0100 		sb	zero,28(sp)
 1203              		.loc 1 602 5 is_stmt 1
 1204              		.loc 1 602 9 is_stmt 0
 1205 0028 97000000 		call	macif_cntrl_cmd_send_cli
 1205      E7800000 
 1206              	.LVL119:
 1207              		.loc 1 602 55
 1208 0030 A247     		lw	a5,8(sp)
 603:C:/Users/stapi/OneDrive/Desktop/GD32VW553/GD32VW55X_Wifi_BLE_SDK/GD32VW55x_RELEASE_V1.0.2/MSDK/wifi_manager\wifi_vif.c ****         (resp.status != MACIF_STATUS_SUCCESS))
 604:C:/Users/stapi/OneDrive/Desktop/GD32VW553/GD32VW55X_Wifi_BLE_SDK/GD32VW55x_RELEASE_V1.0.2/MSDK/wifi_manager\wifi_vif.c ****     {
 605:C:/Users/stapi/OneDrive/Desktop/GD32VW553/GD32VW55X_Wifi_BLE_SDK/GD32VW55x_RELEASE_V1.0.2/MSDK/wifi_manager\wifi_vif.c ****         return -1;
 606:C:/Users/stapi/OneDrive/Desktop/GD32VW553/GD32VW55X_Wifi_BLE_SDK/GD32VW55x_RELEASE_V1.0.2/MSDK/wifi_manager\wifi_vif.c ****     }
 607:C:/Users/stapi/OneDrive/Desktop/GD32VW553/GD32VW55X_Wifi_BLE_SDK/GD32VW55x_RELEASE_V1.0.2/MSDK/wifi_manager\wifi_vif.c **** 
 608:C:/Users/stapi/OneDrive/Desktop/GD32VW553/GD32VW55X_Wifi_BLE_SDK/GD32VW55x_RELEASE_V1.0.2/MSDK/wifi_manager\wifi_vif.c ****     return 0;
 609:C:/Users/stapi/OneDrive/Desktop/GD32VW553/GD32VW55X_Wifi_BLE_SDK/GD32VW55x_RELEASE_V1.0.2/MSDK/wifi_manager\wifi_vif.c **** }
 1209              		.loc 1 609 1
 1210 0032 0561     		addi	sp,sp,32
 1211              		.cfi_def_cfa_offset 0
 602:C:/Users/stapi/OneDrive/Desktop/GD32VW553/GD32VW55X_Wifi_BLE_SDK/GD32VW55x_RELEASE_V1.0.2/MSDK/wifi_manager\wifi_vif.c ****         (resp.status != MACIF_STATUS_SUCCESS))
 1212              		.loc 1 602 55
 1213 0034 5D8D     		or	a0,a0,a5
 1214 0036 3335A000 		snez	a0,a0
 1215              		.loc 1 609 1
 1216 003a 3305A040 		neg	a0,a0
 1217 003e 17030000 		tail	__riscv_restore_0
 1217      67000300 
 1218              		.cfi_restore 1
 1219              		.cfi_def_cfa_offset -16
 1220              		.cfi_endproc
 1221              	.LFE38:
 1223              		.globl	wifi_vif_tab
 1224              		.section	.bss.wifi_vif_tab,"aw",@nobits
 1225              		.align	2
 1226              		.set	.LANCHOR0,. + 0
 1229              	wifi_vif_tab:
 1230 0000 00000000 		.zero	496
 1230      00000000 
 1230      00000000 
 1230      00000000 
 1230      00000000 
 1231              		.text
 1232              	.Letext0:
 1233              		.file 2 "c:\\users\\stapi\\onedrive\\desktop\\gd32vw553\\embeddedbuilder_v1.4.7.26843\\tools\\nucl
 1234              		.file 3 "c:\\users\\stapi\\onedrive\\desktop\\gd32vw553\\embeddedbuilder_v1.4.7.26843\\tools\\nucl
 1235              		.file 4 "..\\..\\..\\..\\rtos\\rtos_wrapper/wrapper_os.h"
 1236              		.file 5 "..\\..\\..\\..\\lwip\\lwip-2.1.2\\src\\include/lwip/arch.h"
 1237              		.file 6 "..\\..\\..\\..\\lwip\\lwip-2.1.2\\src\\include/lwip/err.h"
 1238              		.file 7 "..\\..\\..\\..\\lwip\\lwip-2.1.2\\src\\include/lwip/pbuf.h"
 1239              		.file 8 "..\\..\\..\\..\\macsw\\export/mac_types.h"
 1240              		.file 9 "..\\..\\..\\..\\macsw\\import/rtos_import.h"
 1241              		.file 10 "..\\..\\..\\..\\macsw\\export/macif_types.h"
 1242              		.file 11 "..\\..\\..\\..\\macsw\\export/macif_api.h"
 1243              		.file 12 "..\\..\\..\\..\\lwip\\lwip-2.1.2\\src\\include/lwip/ip4_addr.h"
 1244              		.file 13 "..\\..\\..\\..\\lwip\\lwip-2.1.2\\src\\include/lwip/ip_addr.h"
 1245              		.file 14 "..\\..\\..\\..\\lwip\\lwip-2.1.2\\src\\include/lwip/netif.h"
 1246              		.file 15 "C:/Users/stapi/OneDrive/Desktop/GD32VW553/GD32VW55X_Wifi_BLE_SDK/GD32VW55x_RELEASE_V1.0.
 1247              		.file 16 "C:/Users/stapi/OneDrive/Desktop/GD32VW553/GD32VW55X_Wifi_BLE_SDK/GD32VW55x_RELEASE_V1.0.
 1248              		.file 17 "C:/Users/stapi/OneDrive/Desktop/GD32VW553/GD32VW55X_Wifi_BLE_SDK/GD32VW55x_RELEASE_V1.0.
 1249              		.file 18 "..\\..\\..\\..\\lwip\\lwip-2.1.2\\port/wifi_netif.h"
 1250              		.file 19 "..\\..\\..\\..\\lwip\\lwip-2.1.2\\src\\include/lwip/memp.h"
 1251              		.file 20 "<built-in>"